 bncs_cc02

 Timestamp is 56ddfefb (Mon Mar 07 22:21:47 2016)

 Preferred load address is 10000000

 Start         Length     Name                   Class
 0001:00000000 000058c4H .text                   CODE
 0001:000058c4 000004aaH .text$x                 CODE
 0002:00000000 00000790H .idata$5                DATA
 0002:00000790 00004174H .rdata                  DATA
 0002:00004908 00000598H .xdata$x                DATA
 0002:00004ea0 0000008cH .idata$2                DATA
 0002:00004f2c 00000014H .idata$3                DATA
 0002:00004f40 00000790H .idata$4                DATA
 0002:000056d0 0000440eH .idata$6                DATA
 0002:00009ae0 00000825H .edata                  DATA
 0003:00000000 00000004H .CRT$XCA                DATA
 0003:00000004 0000000cH .CRT$XCU                DATA
 0003:00000010 00000004H .CRT$XCZ                DATA
 0003:00000014 00000004H .CRT$XIA                DATA
 0003:00000018 00000004H .CRT$XIZ                DATA
 0003:00000020 000ec830H .data                   DATA
 0003:000ec850 000000c0H .bss                    DATA
 0004:00000000 00000058H .rsrc$01                DATA
 0004:00000060 00000498H .rsrc$02                DATA

  Address         Publics by Value              Rva+Base     Lib:Object

 0001:00000000       ??0bncs_cc02_editImpl@@QAE@PAVQWidget@@PBD_NI@Z 10001000 f   bncs_cc02_editimpl.obj
 0001:0000005e       ?metaObject@bncs_cc02_editImpl@@UBEPAVQMetaObject@@XZ 1000105e f i bncs_cc02_editimpl.obj
 0001:00000063       ??_Ebncs_cc02_editImpl@@UAEPAXI@Z 10001063 f i bncs_cc02_editimpl.obj
 0001:00000063       ??_Gbncs_cc02_editImpl@@UAEPAXI@Z 10001063 f i bncs_cc02_editimpl.obj
 0001:0000007f       ??1bncs_cc02_editImpl@@UAE@XZ 1000107f f   bncs_cc02_editimpl.obj
 0001:00000091       ?doHelp@bncs_cc02_editImpl@@AAEXXZ 10001091 f   bncs_cc02_editimpl.obj
 0001:0000024c       ??_Ebncs_cc02_editImpl@@WCI@AEPAXI@Z 1000124c f i bncs_cc02_editimpl.obj
 0001:00000254       ?metaObject@bncs_cc02_qt@@UBEPAVQMetaObject@@XZ 10001254 f i bncs_cc02_qt.obj
 0001:00000259       ?qObject@bncs_cc02_qt@@QAEPAVQObject@@XZ 10001259 f i bncs_cc02_qt.obj
 0001:0000025c       ??0bncs_cc02_qt@@QAE@ABV0@@Z 1000125c f i bncs_cc02_qt.obj
 0001:000002d8       ??4bncs_cc02_qt@@QAEAAV0@ABV0@@Z 100012d8 f i bncs_cc02_qt.obj
 0001:00000328       ??_Fbncs_cc02_qt@@QAEXXZ   10001328 f i bncs_cc02_qt.obj
 0001:00000332       ??_Ebncs_cc02_qt@@UAEPAXI@Z 10001332 f i bncs_cc02_qt.obj
 0001:00000380       ??0signalConnection@@QAE@ABVQString@@0000@Z 10001380 f i bncs_cc02_qt.obj
 0001:00000412       ??0signalConnection@@QAE@ABV0@@Z 10001412 f i bncs_cc02_qt.obj
 0001:00000478       ??4signalConnection@@QAEAAV0@ABV0@@Z 10001478 f i bncs_cc02_qt.obj
 0001:000004b6       ??1signalConnection@@QAE@XZ 100014b6 f i bncs_cc02_qt.obj
 0001:00000517       ??0signalConnectionRefList@@QAE@XZ 10001517 f i bncs_cc02_qt.obj
 0001:0000052a       ??0signalConnectionRefList@@QAE@ABV0@@Z 1000152a f i bncs_cc02_qt.obj
 0001:00000543       ??1signalConnectionRefList@@UAE@XZ 10001543 f i bncs_cc02_qt.obj
 0001:00000592       ??4signalConnectionRefList@@QAEAAV0@ABV0@@Z 10001592 f i bncs_cc02_qt.obj
 0001:0000059f       ??_EsignalConnectionRefList@@UAEPAXI@Z 1000159f f i bncs_cc02_qt.obj
 0001:000005ea       ??0signalConnectionRefListIt@@QAE@ABVsignalConnectionRefList@@@Z 100015ea f i bncs_cc02_qt.obj
 0001:000005fd       ??4signalConnectionRefListIt@@QAEAAV0@ABV0@@Z 100015fd f i bncs_cc02_qt.obj
 0001:00000610       ??0signalConnectionRefListIt@@QAE@ABV0@@Z 10001610 f i bncs_cc02_qt.obj
 0001:00000623       ??1signalConnectionRefListIt@@QAE@XZ 10001623 f i bncs_cc02_qt.obj
 0001:00000629       ??0bncs_cc02_qt@@QAE@PAVQWidget@@PBD@Z 10001629 f   bncs_cc02_qt.obj
 0001:00000709       ??_GQPixmap@@UAEPAXI@Z     10001709 f i bncs_cc02_qt.obj
 0001:00000709       ??_EQPixmap@@UAEPAXI@Z     10001709 f i bncs_cc02_qt.obj
 0001:00000726       ??1bncs_cc02_qt@@UAE@XZ    10001726 f   bncs_cc02_qt.obj
 0001:00000789       ?paintEvent@bncs_cc02_qt@@MAEXPAVQPaintEvent@@@Z 10001789 f   bncs_cc02_qt.obj
 0001:00000801       ?resizeEvent@bncs_cc02_qt@@MAEXPAVQResizeEvent@@@Z 10001801 f   bncs_cc02_qt.obj
 0001:0000081e       ?setCaption@bncs_cc02_qt@@UAEXABVQString@@@Z 1000181e f   bncs_cc02_qt.obj
 0001:000009ca       ?edit@bncs_cc02_qt@@QAEXPA_N0@Z 100019ca f   bncs_cc02_qt.obj
 0001:00000d53       ?defaultvalues@bncs_cc02_qt@@AAEXXZ 10001d53 f   bncs_cc02_qt.obj
 0001:00000d90       ?setTextBlock@bncs_cc02_qt@@AAEXHPBD@Z 10001d90 f   bncs_cc02_qt.obj
 0001:00000dd5       ??1?$QPtrList@VsignalConnection@@@@UAE@XZ 10001dd5 f i bncs_cc02_qt.obj
 0001:00000e0f       ?count@?$QPtrList@VsignalConnection@@@@UBEIXZ 10001e0f f i bncs_cc02_qt.obj
 0001:00000e13       ?clear@?$QPtrList@VsignalConnection@@@@UAEXXZ 10001e13 f i bncs_cc02_qt.obj
 0001:00000e19       ??_E?$QPtrList@VsignalConnection@@@@UAEPAXI@Z 10001e19 f i bncs_cc02_qt.obj
 0001:00000e19       ??_G?$QPtrList@VsignalConnection@@@@UAEPAXI@Z 10001e19 f i bncs_cc02_qt.obj
 0001:00000e35       ?deleteItem@?$QPtrList@VsignalConnection@@@@EAEXPAX@Z 10001e35 f i bncs_cc02_qt.obj
 0001:00000e56       ??_Ebncs_cc02_qt@@WCI@AEPAXI@Z 10001e56 f i bncs_cc02_qt.obj
 0001:00000e5e       ?keys@BNCSWidgetPlugin@@UBE?AVQStringList@@XZ 10001e5e f   plugin.obj
 0001:00000edb       ?create@BNCSWidgetPlugin@@UAEPAVQWidget@@ABVQString@@PAV2@PBD@Z 10001edb f   plugin.obj
 0001:00000f2f       ?group@BNCSWidgetPlugin@@UBE?AVQString@@ABV2@@Z 10001f2f f   plugin.obj
 0001:00000f71       ?iconSet@BNCSWidgetPlugin@@UBE?AVQIconSet@@ABVQString@@@Z 10001f71 f   plugin.obj
 0001:00000fdd       ?includeFile@BNCSWidgetPlugin@@UBE?AVQString@@ABV2@@Z 10001fdd f   plugin.obj
 0001:0000101f       ?toolTip@BNCSWidgetPlugin@@UBE?AVQString@@ABV2@@Z 1000201f f   plugin.obj
 0001:00001061       ?whatsThis@BNCSWidgetPlugin@@UBE?AVQString@@ABV2@@Z 10002061 f   plugin.obj
 0001:000010a3       ?isContainer@BNCSWidgetPlugin@@UBE_NABVQString@@@Z 100020a3 f   plugin.obj
 0001:000010a8       _qt_ucm_query_verification_data 100020a8 f   plugin.obj
 0001:000010ae       _ucm_instantiate           100020ae f   plugin.obj
 0001:000010d9       ??_EBNCSWidgetPlugin@@UAEPAXI@Z 100020d9 f i plugin.obj
 0001:000010d9       ??_GBNCSWidgetPlugin@@UAEPAXI@Z 100020d9 f i plugin.obj
 0001:000010f5       ??1BNCSWidgetPlugin@@UAE@XZ 100020f5 f i plugin.obj
 0001:000010fb       ?derefAndDelete@?$QValueListPrivate@VQString@@@@QAEXXZ 100020fb f i plugin.obj
 0001:0000110b       ??0bncs_cc02_edit@@QAE@PAVQWidget@@PBD_NI@Z 1000210b f   bncs_cc02_edit.obj
 0001:00001a01       ?metaObject@bncs_cc02_edit@@UBEPAVQMetaObject@@XZ 10002a01 f i bncs_cc02_edit.obj
 0001:00001a06       ??_GQSpacerItem@@UAEPAXI@Z 10002a06 f i bncs_cc02_edit.obj
 0001:00001a06       ??_EQSpacerItem@@UAEPAXI@Z 10002a06 f i bncs_cc02_edit.obj
 0001:00001a23       ??_Ebncs_cc02_edit@@UAEPAXI@Z 10002a23 f i bncs_cc02_edit.obj
 0001:00001a23       ??_Gbncs_cc02_edit@@UAEPAXI@Z 10002a23 f i bncs_cc02_edit.obj
 0001:00001a3f       ??_GQVBoxLayout@@UAEPAXI@Z 10002a3f f i bncs_cc02_edit.obj
 0001:00001a3f       ??_EQVBoxLayout@@UAEPAXI@Z 10002a3f f i bncs_cc02_edit.obj
 0001:00001a5c       ??_EQHBoxLayout@@UAEPAXI@Z 10002a5c f i bncs_cc02_edit.obj
 0001:00001a5c       ??_GQHBoxLayout@@UAEPAXI@Z 10002a5c f i bncs_cc02_edit.obj
 0001:00001a79       ??_GQLabel@@UAEPAXI@Z      10002a79 f i bncs_cc02_edit.obj
 0001:00001a79       ??_EQLabel@@UAEPAXI@Z      10002a79 f i bncs_cc02_edit.obj
 0001:00001a96       ??_EQLineEdit@@UAEPAXI@Z   10002a96 f i bncs_cc02_edit.obj
 0001:00001a96       ??_GQLineEdit@@UAEPAXI@Z   10002a96 f i bncs_cc02_edit.obj
 0001:00001ab3       ??_EQFrame@@UAEPAXI@Z      10002ab3 f i bncs_cc02_edit.obj
 0001:00001ab3       ??_GQFrame@@UAEPAXI@Z      10002ab3 f i bncs_cc02_edit.obj
 0001:00001ad0       ??_EQPushButton@@UAEPAXI@Z 10002ad0 f i bncs_cc02_edit.obj
 0001:00001ad0       ??_GQPushButton@@UAEPAXI@Z 10002ad0 f i bncs_cc02_edit.obj
 0001:00001aed       ??1bncs_cc02_edit@@UAE@XZ  10002aed f   bncs_cc02_edit.obj
 0001:00001b34       ?languageChange@bncs_cc02_edit@@MAEXXZ 10002b34 f   bncs_cc02_edit.obj
 0001:00001d08       ??_EQPushButton@@WCI@AEPAXI@Z 10002d08 f i bncs_cc02_edit.obj
 0001:00001d10       ??_EQVBoxLayout@@WCI@AEPAXI@Z 10002d10 f i bncs_cc02_edit.obj
 0001:00001d18       ??_EQHBoxLayout@@WCI@AEPAXI@Z 10002d18 f i bncs_cc02_edit.obj
 0001:00001d20       ??_EQLabel@@WCI@AEPAXI@Z   10002d20 f i bncs_cc02_edit.obj
 0001:00001d28       ??_EQLineEdit@@WCI@AEPAXI@Z 10002d28 f i bncs_cc02_edit.obj
 0001:00001d30       ??_EQFrame@@WCI@AEPAXI@Z   10002d30 f i bncs_cc02_edit.obj
 0001:00001d38       ??_Ebncs_cc02_edit@@WCI@AEPAXI@Z 10002d38 f i bncs_cc02_edit.obj
 0001:00001d40       ?className@bncs_cc02_edit@@UBEPBDXZ 10002d40 f   moc_bncs_cc02_edit.obj
 0001:00001d7d       ?tr@bncs_cc02_edit@@SA?AVQString@@PBD0@Z 10002d7d f   moc_bncs_cc02_edit.obj
 0001:00001dbe       ?staticMetaObject@bncs_cc02_edit@@SAPAVQMetaObject@@XZ 10002dbe f   moc_bncs_cc02_edit.obj
 0001:00001e0a       ?qt_cast@bncs_cc02_edit@@UAEPAXPBD@Z 10002e0a f   moc_bncs_cc02_edit.obj
 0001:00001e46       ?qt_invoke@bncs_cc02_edit@@UAE_NHPAUQUObject@@@Z 10002e46 f   moc_bncs_cc02_edit.obj
 0001:00001e79       ?qt_emit@bncs_cc02_edit@@UAE_NHPAUQUObject@@@Z 10002e79 f   moc_bncs_cc02_edit.obj
 0001:00001e8a       ?qt_property@bncs_cc02_edit@@UAE_NHHPAVQVariant@@@Z 10002e8a f   moc_bncs_cc02_edit.obj
 0001:00001e9f       ?className@bncs_cc02_editImpl@@UBEPBDXZ 10002e9f f   moc_bncs_cc02_editimpl.obj
 0001:00001edc       ?staticMetaObject@bncs_cc02_editImpl@@SAPAVQMetaObject@@XZ 10002edc f   moc_bncs_cc02_editimpl.obj
 0001:00001f27       ?qt_cast@bncs_cc02_editImpl@@UAEPAXPBD@Z 10002f27 f   moc_bncs_cc02_editimpl.obj
 0001:00001f62       ?qt_invoke@bncs_cc02_editImpl@@UAE_NHPAUQUObject@@@Z 10002f62 f   moc_bncs_cc02_editimpl.obj
 0001:00001f91       ?qt_emit@bncs_cc02_editImpl@@UAE_NHPAUQUObject@@@Z 10002f91 f   moc_bncs_cc02_editimpl.obj
 0001:00001fa1       ?qt_property@bncs_cc02_editImpl@@UAE_NHHPAVQVariant@@@Z 10002fa1 f   moc_bncs_cc02_editimpl.obj
 0001:00001fb5       ?className@bncs_cc02_qt@@UBEPBDXZ 10002fb5 f   moc_bncs_cc02_qt.obj
 0001:00001ff2       ?tr@bncs_cc02_qt@@SA?AVQString@@PBD0@Z 10002ff2 f   moc_bncs_cc02_qt.obj
 0001:00002033       ?trUtf8@bncs_cc02_qt@@SA?AVQString@@PBD0@Z 10003033 f   moc_bncs_cc02_qt.obj
 0001:00002074       ?staticMetaObject@bncs_cc02_qt@@SAPAVQMetaObject@@XZ 10003074 f   moc_bncs_cc02_qt.obj
 0001:0000213f       ?qt_cast@bncs_cc02_qt@@UAEPAXPBD@Z 1000313f f   moc_bncs_cc02_qt.obj
 0001:0000217b       ?notify@bncs_cc02_qt@@IAEXAAVQString@@@Z 1000317b f   moc_bncs_cc02_qt.obj
 0001:0000221c       ?qt_invoke@bncs_cc02_qt@@UAE_NHPAUQUObject@@@Z 1000321c f   moc_bncs_cc02_qt.obj
 0001:00002256       ?qt_emit@bncs_cc02_qt@@UAE_NHPAUQUObject@@@Z 10003256 f   moc_bncs_cc02_qt.obj
 0001:0000228d       ?qt_property@bncs_cc02_qt@@UAE_NHHPAVQVariant@@@Z 1000328d f   moc_bncs_cc02_qt.obj
 0001:000022a2       ?qt_static_property@bncs_cc02_qt@@SA_NPAVQObject@@HHPAVQVariant@@@Z 100032a2 f   moc_bncs_cc02_qt.obj
 0001:000022a5       _DllMain@12                100032a5 f   BNCS_CC02.obj
 0001:000022ee       ?Initialise@@YAHPAUHINSTANCE__@@@Z 100032ee f   BNCS_CC02.obj
 0001:0000238c       ?Shutdown@@YAXPAX@Z        1000338c f   BNCS_CC02.obj
 0001:0000239e       _BBC_CC_WndFn@16           1000339e f   BNCS_CC02.obj
 0001:000023ed       _CCcomps_Message@16        100033ed f   CC_COMPS.OBJ
 0001:000028aa       _CCcomps_DrawAll           100038aa f   CC_COMPS.OBJ
 0001:0000299a       _CCcomps_DrawBackground    1000399a f   CC_COMPS.OBJ
 0001:00002a05       _CCcomps_DrawClock         10003a05 f   CC_COMPS.OBJ
 0001:00002fea       _CCcomps_DrawHand          10003fea f   CC_COMPS.OBJ
 0001:0000321c       _CCcomps_SetPreset         1000421c f   CC_COMPS.OBJ
 0001:00003356       _CCcomps_DrawPreset        10004356 f   CC_COMPS.OBJ
 0001:000034cb       _CCcomps_DrawTitle         100044cb f   CC_COMPS.OBJ
 0001:000036a9       _CCcomps_DrawText          100046a9 f   CC_COMPS.OBJ
 0001:0000374e       _CCcomps_LabelSave         1000474e f   CC_COMPS.OBJ
 0001:00003791       _CCcomps_LabelLoad         10004791 f   CC_COMPS.OBJ
 0001:000037d4       _CSSufu_DecodeEscapeSeq    100047d4 f   CC_SUFU.OBJ
 0001:00003935       _CCSufu_GetColourRef       10004935 f   Cc_sufu_common.obj
 0001:000039e7       _CCSufu_SetTextColour      100049e7 f   Cc_sufu_common.obj
 0001:00003ab2       _CCSufu_SetBkColour        10004ab2 f   Cc_sufu_common.obj
 0001:00003b7d       _CSSufu_ESValid            10004b7d f   Cc_sufu_common.obj
 0001:00003ba5       _CCvtclk_Message@16        10004ba5 f   CC_VTCLK.OBJ
 0001:00003f0d       _CCvtclk_DrawAll           10004f0d f   CC_VTCLK.OBJ
 0001:00003ff0       _CCvtclk_DrawBackground    10004ff0 f   CC_VTCLK.OBJ
 0001:0000405b       _CCvtclk_DrawClock         1000505b f   CC_VTCLK.OBJ
 0001:00004532       _CCvtclk_DrawHand          10005532 f   CC_VTCLK.OBJ
 0001:0000474a       _CCvtclk_DrawTitle         1000574a f   CC_VTCLK.OBJ
 0001:00004a0d       _CCvtclk_DrawText          10005a0d f   CC_VTCLK.OBJ
 0001:00004ab4       _CCcomps_PaintText         10005ab4 f   CC_VTCLK.OBJ
 0001:00004ab4       _CCvtclk_PaintText         10005ab4 f   CC_VTCLK.OBJ
 0001:00004b35       _CCvtclk_LabelSave         10005b35 f   CC_VTCLK.OBJ
 0001:00004b78       _CCvtclk_LabelLoad         10005b78 f   CC_VTCLK.OBJ
 0001:00004bbb       _HtmlHelpA@16              10005bbb f   htmlhelp:init.obj
 0001:00004cb4       ?isDesignTime@dCW@@SA_NXZ  10005cb4 f   dcw:dcw.dll
 0001:00004cc0       ??0decodeCaptionString@@QAE@PBD@Z 10005cc0 f   decodecaptionstring:decodecaptionstring.obj
 0001:00004df0       ??1decodeCaptionString@@QAE@XZ 10005df0 f   decodecaptionstring:decodecaptionstring.obj
 0001:00004e10       ?fontInf@QPaintDevice@@MBEHPAVQFont@@H@Z 10005e10 f   qt-mt323:qt-mt323.dll
 0001:00004e16       ?fontMet@QPaintDevice@@MBEHPAVQFont@@HPBDH@Z 10005e16 f   qt-mt323:qt-mt323.dll
 0001:00004e1c       ?metric@QWidget@@MBEHH@Z   10005e1c f   qt-mt323:qt-mt323.dll
 0001:00004e22       ?cmd@QPaintDevice@@MAE_NHPAVQPainter@@PATQPDevCmdParam@@@Z 10005e22 f   qt-mt323:qt-mt323.dll
 0001:00004e28       ?handle@QPaintDevice@@UBEPAUHDC__@@XZ 10005e28 f   qt-mt323:qt-mt323.dll
 0001:00004e2e       ?resolution@QPaintDevice@@UBEHXZ 10005e2e f   qt-mt323:qt-mt323.dll
 0001:00004e34       ?setResolution@QPaintDevice@@UAEXH@Z 10005e34 f   qt-mt323:qt-mt323.dll
 0001:00004e3a       ?reject@QDialog@@MAEXXZ    10005e3a f   qt-mt323:qt-mt323.dll
 0001:00004e40       ?accept@QDialog@@MAEXXZ    10005e40 f   qt-mt323:qt-mt323.dll
 0001:00004e46       ?done@QDialog@@MAEXH@Z     10005e46 f   qt-mt323:qt-mt323.dll
 0001:00004e4c       ?setMicroFocusHint@QWidget@@MAEXHHHH_NPAVQFont@@@Z 10005e4c f   qt-mt323:qt-mt323.dll
 0001:00004e52       ?setKeyCompression@QWidget@@MAEX_N@Z 10005e52 f   qt-mt323:qt-mt323.dll
 0001:00004e58       ?focusNextPrevChild@QWidget@@MAE_N_N@Z 10005e58 f   qt-mt323:qt-mt323.dll
 0001:00004e5e       ?setWFlags@QWidget@@MAEXI@Z 10005e5e f   qt-mt323:qt-mt323.dll
 0001:00004e64       ?setWState@QWidget@@MAEXI@Z 10005e64 f   qt-mt323:qt-mt323.dll
 0001:00004e6a       ?destroy@QWidget@@MAEX_N0@Z 10005e6a f   qt-mt323:qt-mt323.dll
 0001:00004e70       ?create@QWidget@@MAEXPAUHWND__@@_N1@Z 10005e70 f   qt-mt323:qt-mt323.dll
 0001:00004e76       ?windowActivationChange@QWidget@@MAEX_N@Z 10005e76 f   qt-mt323:qt-mt323.dll
 0001:00004e7c       ?fontChange@QWidget@@MAEXABVQFont@@@Z 10005e7c f   qt-mt323:qt-mt323.dll
 0001:00004e82       ?paletteChange@QWidget@@MAEXABVQPalette@@@Z 10005e82 f   qt-mt323:qt-mt323.dll
 0001:00004e88       ?enabledChange@QWidget@@MAEX_N@Z 10005e88 f   qt-mt323:qt-mt323.dll
 0001:00004e8e       ?styleChange@QWidget@@MAEXAAVQStyle@@@Z 10005e8e f   qt-mt323:qt-mt323.dll
 0001:00004e94       ?updateMask@QWidget@@MAEXXZ 10005e94 f   qt-mt323:qt-mt323.dll
 0001:00004e9a       ?winEvent@QWidget@@MAE_NPAUtagMSG@@@Z 10005e9a f   qt-mt323:qt-mt323.dll
 0001:00004ea0       ?hideEvent@QWidget@@MAEXPAVQHideEvent@@@Z 10005ea0 f   qt-mt323:qt-mt323.dll
 0001:00004ea6       ?showEvent@QWidget@@MAEXPAVQShowEvent@@@Z 10005ea6 f   qt-mt323:qt-mt323.dll
 0001:00004eac       ?dropEvent@QWidget@@MAEXPAVQDropEvent@@@Z 10005eac f   qt-mt323:qt-mt323.dll
 0001:00004eb2       ?dragLeaveEvent@QWidget@@MAEXPAVQDragLeaveEvent@@@Z 10005eb2 f   qt-mt323:qt-mt323.dll
 0001:00004eb8       ?dragMoveEvent@QWidget@@MAEXPAVQDragMoveEvent@@@Z 10005eb8 f   qt-mt323:qt-mt323.dll
 0001:00004ebe       ?dragEnterEvent@QWidget@@MAEXPAVQDragEnterEvent@@@Z 10005ebe f   qt-mt323:qt-mt323.dll
 0001:00004ec4       ?tabletEvent@QWidget@@MAEXPAVQTabletEvent@@@Z 10005ec4 f   qt-mt323:qt-mt323.dll
 0001:00004eca       ?imEndEvent@QWidget@@MAEXPAVQIMEvent@@@Z 10005eca f   qt-mt323:qt-mt323.dll
 0001:00004ed0       ?imComposeEvent@QWidget@@MAEXPAVQIMEvent@@@Z 10005ed0 f   qt-mt323:qt-mt323.dll
 0001:00004ed6       ?imStartEvent@QWidget@@MAEXPAVQIMEvent@@@Z 10005ed6 f   qt-mt323:qt-mt323.dll
 0001:00004edc       ?contextMenuEvent@QDialog@@MAEXPAVQContextMenuEvent@@@Z 10005edc f   qt-mt323:qt-mt323.dll
 0001:00004ee2       ?closeEvent@QDialog@@MAEXPAVQCloseEvent@@@Z 10005ee2 f   qt-mt323:qt-mt323.dll
 0001:00004ee8       ?resizeEvent@QDialog@@MAEXPAVQResizeEvent@@@Z 10005ee8 f   qt-mt323:qt-mt323.dll
 0001:00004eee       ?moveEvent@QWidget@@MAEXPAVQMoveEvent@@@Z 10005eee f   qt-mt323:qt-mt323.dll
 0001:00004ef4       ?paintEvent@QWidget@@MAEXPAVQPaintEvent@@@Z 10005ef4 f   qt-mt323:qt-mt323.dll
 0001:00004efa       ?leaveEvent@QWidget@@MAEXPAVQEvent@@@Z 10005efa f   qt-mt323:qt-mt323.dll
 0001:00004f00       ?enterEvent@QWidget@@MAEXPAVQEvent@@@Z 10005f00 f   qt-mt323:qt-mt323.dll
 0001:00004f06       ?focusOutEvent@QWidget@@MAEXPAVQFocusEvent@@@Z 10005f06 f   qt-mt323:qt-mt323.dll
 0001:00004f0c       ?focusInEvent@QWidget@@MAEXPAVQFocusEvent@@@Z 10005f0c f   qt-mt323:qt-mt323.dll
 0001:00004f12       ?keyReleaseEvent@QWidget@@MAEXPAVQKeyEvent@@@Z 10005f12 f   qt-mt323:qt-mt323.dll
 0001:00004f18       ?keyPressEvent@QDialog@@MAEXPAVQKeyEvent@@@Z 10005f18 f   qt-mt323:qt-mt323.dll
 0001:00004f1e       ?wheelEvent@QWidget@@MAEXPAVQWheelEvent@@@Z 10005f1e f   qt-mt323:qt-mt323.dll
 0001:00004f24       ?mouseMoveEvent@QWidget@@MAEXPAVQMouseEvent@@@Z 10005f24 f   qt-mt323:qt-mt323.dll
 0001:00004f2a       ?mouseDoubleClickEvent@QWidget@@MAEXPAVQMouseEvent@@@Z 10005f2a f   qt-mt323:qt-mt323.dll
 0001:00004f30       ?mouseReleaseEvent@QWidget@@MAEXPAVQMouseEvent@@@Z 10005f30 f   qt-mt323:qt-mt323.dll
 0001:00004f36       ?mousePressEvent@QWidget@@MAEXPAVQMouseEvent@@@Z 10005f36 f   qt-mt323:qt-mt323.dll
 0001:00004f3c       ?customWhatsThis@QWidget@@UBE_NXZ 10005f3c f   qt-mt323:qt-mt323.dll
 0001:00004f42       ?setBackgroundOrigin@QWidget@@UAEXW4BackgroundOrigin@1@@Z 10005f42 f   qt-mt323:qt-mt323.dll
 0001:00004f48       ?setAutoMask@QWidget@@UAEX_N@Z 10005f48 f   qt-mt323:qt-mt323.dll
 0001:00004f4e       ?setAcceptDrops@QWidget@@UAEX_N@Z 10005f4e f   qt-mt323:qt-mt323.dll
 0001:00004f54       ?reparent@QWidget@@UAEXPAV1@IABVQPoint@@_N@Z 10005f54 f   qt-mt323:qt-mt323.dll
 0001:00004f5a       ?adjustSize@QWidget@@UAEXXZ 10005f5a f   qt-mt323:qt-mt323.dll
 0001:00004f60       ?heightForWidth@QWidget@@UBEHH@Z 10005f60 f   qt-mt323:qt-mt323.dll
 0001:00004f66       ?setSizePolicy@QWidget@@UAEXVQSizePolicy@@@Z 10005f66 f   qt-mt323:qt-mt323.dll
 0001:00004f6c       ?sizePolicy@QWidget@@UBE?AVQSizePolicy@@XZ 10005f6c f   qt-mt323:qt-mt323.dll
 0001:00004f72       ?minimumSizeHint@QDialog@@UBE?AVQSize@@XZ 10005f72 f   qt-mt323:qt-mt323.dll
 0001:00004f78       ?sizeHint@QDialog@@UBE?AVQSize@@XZ 10005f78 f   qt-mt323:qt-mt323.dll
 0001:00004f7e       ?setGeometry@QDialog@@UAEXHHHH@Z 10005f7e f   qt-mt323:qt-mt323.dll
 0001:00004f84       ?setGeometry@QDialog@@UAEXABVQRect@@@Z 10005f84 f   qt-mt323:qt-mt323.dll
 0001:00004f8a       ?resize@QDialog@@UAEXHH@Z  10005f8a f   qt-mt323:qt-mt323.dll
 0001:00004f90       ?move@QDialog@@UAEXHH@Z    10005f90 f   qt-mt323:qt-mt323.dll
 0001:00004f96       ?close@QWidget@@UAE_N_N@Z  10005f96 f   qt-mt323:qt-mt323.dll
 0001:00004f9c       ?polish@QWidget@@UAEXXZ    10005f9c f   qt-mt323:qt-mt323.dll
 0001:00004fa2       ?showNormal@QWidget@@UAEXXZ 10005fa2 f   qt-mt323:qt-mt323.dll
 0001:00004fa8       ?showMaximized@QWidget@@UAEXXZ 10005fa8 f   qt-mt323:qt-mt323.dll
 0001:00004fae       ?showMinimized@QWidget@@UAEXXZ 10005fae f   qt-mt323:qt-mt323.dll
 0001:00004fb4       ?hide@QDialog@@UAEXXZ      10005fb4 f   qt-mt323:qt-mt323.dll
 0001:00004fba       ?show@QDialog@@UAEXXZ      10005fba f   qt-mt323:qt-mt323.dll
 0001:00004fc0       ?setUpdatesEnabled@QWidget@@UAEX_N@Z 10005fc0 f   qt-mt323:qt-mt323.dll
 0001:00004fc6       ?setFocusProxy@QWidget@@UAEXPAV1@@Z 10005fc6 f   qt-mt323:qt-mt323.dll
 0001:00004fcc       ?setFocusPolicy@QWidget@@UAEXW4FocusPolicy@1@@Z 10005fcc f   qt-mt323:qt-mt323.dll
 0001:00004fd2       ?setActiveWindow@QWidget@@UAEXXZ 10005fd2 f   qt-mt323:qt-mt323.dll
 0001:00004fd8       ?setFocus@QWidget@@UAEXXZ  10005fd8 f   qt-mt323:qt-mt323.dll
 0001:00004fde       ?setMouseTracking@QWidget@@UAEX_N@Z 10005fde f   qt-mt323:qt-mt323.dll
 0001:00004fe4       ?setIconText@QWidget@@UAEXABVQString@@@Z 10005fe4 f   qt-mt323:qt-mt323.dll
 0001:00004fea       ?setIcon@QWidget@@UAEXABVQPixmap@@@Z 10005fea f   qt-mt323:qt-mt323.dll
 0001:00004ff0       ?setCaption@QWidget@@UAEXABVQString@@@Z 10005ff0 f   qt-mt323:qt-mt323.dll
 0001:00004ff6       ?setBackgroundPixmap@QWidget@@UAEXABVQPixmap@@@Z 10005ff6 f   qt-mt323:qt-mt323.dll
 0001:00004ffc       ?setBackgroundColor@QWidget@@UAEXABVQColor@@@Z 10005ffc f   qt-mt323:qt-mt323.dll
 0001:00005002       ?setMask@QWidget@@UAEXABVQBitmap@@@Z 10006002 f   qt-mt323:qt-mt323.dll
 0001:00005008       ?setMask@QWidget@@UAEXABVQRegion@@@Z 10006008 f   qt-mt323:qt-mt323.dll
 0001:0000500e       ?unsetCursor@QWidget@@UAEXXZ 1000600e f   qt-mt323:qt-mt323.dll
 0001:00005014       ?setCursor@QWidget@@UAEXABVQCursor@@@Z 10006014 f   qt-mt323:qt-mt323.dll
 0001:0000501a       ?setFont@QWidget@@UAEXABVQFont@@@Z 1000601a f   qt-mt323:qt-mt323.dll
 0001:00005020       ?setPaletteBackgroundPixmap@QWidget@@UAEXABVQPixmap@@@Z 10006020 f   qt-mt323:qt-mt323.dll
 0001:00005026       ?setPaletteBackgroundColor@QWidget@@UAEXABVQColor@@@Z 10006026 f   qt-mt323:qt-mt323.dll
 0001:0000502c       ?setPalette@QWidget@@UAEXABVQPalette@@@Z 1000602c f   qt-mt323:qt-mt323.dll
 0001:00005032       ?setErasePixmap@QWidget@@UAEXABVQPixmap@@@Z 10006032 f   qt-mt323:qt-mt323.dll
 0001:00005038       ?setEraseColor@QWidget@@UAEXABVQColor@@@Z 10006038 f   qt-mt323:qt-mt323.dll
 0001:0000503e       ?setBackgroundMode@QWidget@@UAEXW4BackgroundMode@Qt@@@Z 1000603e f   qt-mt323:qt-mt323.dll
 0001:00005044       ?setSizeIncrement@QWidget@@UAEXHH@Z 10006044 f   qt-mt323:qt-mt323.dll
 0001:0000504a       ?setMaximumSize@QWidget@@UAEXHH@Z 1000604a f   qt-mt323:qt-mt323.dll
 0001:00005050       ?setMinimumSize@QWidget@@UAEXHH@Z 10006050 f   qt-mt323:qt-mt323.dll
 0001:00005056       ?setEnabled@QWidget@@UAEX_N@Z 10006056 f   qt-mt323:qt-mt323.dll
 0001:0000505c       ?checkConnectArgs@QObject@@MAE_NPBDPBV1@0@Z 1000605c f   qt-mt323:qt-mt323.dll
 0001:00005062       ?disconnectNotify@QObject@@MAEXPBD@Z 10006062 f   qt-mt323:qt-mt323.dll
 0001:00005068       ?connectNotify@QObject@@MAEXPBD@Z 10006068 f   qt-mt323:qt-mt323.dll
 0001:0000506e       ?customEvent@QObject@@MAEXPAVQCustomEvent@@@Z 1000606e f   qt-mt323:qt-mt323.dll
 0001:00005074       ?childEvent@QObject@@MAEXPAVQChildEvent@@@Z 10006074 f   qt-mt323:qt-mt323.dll
 0001:0000507a       ?timerEvent@QObject@@MAEXPAVQTimerEvent@@@Z 1000607a f   qt-mt323:qt-mt323.dll
 0001:00005080       ?property@QObject@@UBE?AVQVariant@@PBD@Z 10006080 f   qt-mt323:qt-mt323.dll
 0001:00005086       ?setProperty@QObject@@UAE_NPBDABVQVariant@@@Z 10006086 f   qt-mt323:qt-mt323.dll
 0001:0000508c       ?removeChild@QObject@@UAEXPAV1@@Z 1000608c f   qt-mt323:qt-mt323.dll
 0001:00005092       ?insertChild@QObject@@UAEXPAV1@@Z 10006092 f   qt-mt323:qt-mt323.dll
 0001:00005098       ?setName@QWidget@@UAEXPBD@Z 10006098 f   qt-mt323:qt-mt323.dll
 0001:0000509e       ?eventFilter@QDialog@@MAE_NPAVQObject@@PAVQEvent@@@Z 1000609e f   qt-mt323:qt-mt323.dll
 0001:000050a4       ?event@QWidget@@MAE_NPAVQEvent@@@Z 100060a4 f   qt-mt323:qt-mt323.dll
 0001:000050aa       ?contextMenuEvent@QWidget@@MAEXPAVQContextMenuEvent@@@Z 100060aa f   qt-mt323:qt-mt323.dll
 0001:000050b0       ?closeEvent@QWidget@@MAEXPAVQCloseEvent@@@Z 100060b0 f   qt-mt323:qt-mt323.dll
 0001:000050b6       ?keyPressEvent@QWidget@@MAEXPAVQKeyEvent@@@Z 100060b6 f   qt-mt323:qt-mt323.dll
 0001:000050bc       ?minimumSizeHint@QWidget@@UBE?AVQSize@@XZ 100060bc f   qt-mt323:qt-mt323.dll
 0001:000050c2       ?sizeHint@QWidget@@UBE?AVQSize@@XZ 100060c2 f   qt-mt323:qt-mt323.dll
 0001:000050c8       ?setGeometry@QWidget@@UAEXHHHH@Z 100060c8 f   qt-mt323:qt-mt323.dll
 0001:000050ce       ?setGeometry@QWidget@@UAEXABVQRect@@@Z 100060ce f   qt-mt323:qt-mt323.dll
 0001:000050d4       ?resize@QWidget@@UAEXHH@Z  100060d4 f   qt-mt323:qt-mt323.dll
 0001:000050da       ?move@QWidget@@UAEXHH@Z    100060da f   qt-mt323:qt-mt323.dll
 0001:000050e0       ?hide@QWidget@@UAEXXZ      100060e0 f   qt-mt323:qt-mt323.dll
 0001:000050e6       ?show@QWidget@@UAEXXZ      100060e6 f   qt-mt323:qt-mt323.dll
 0001:000050ec       ?eventFilter@QObject@@UAE_NPAV1@PAVQEvent@@@Z 100060ec f   qt-mt323:qt-mt323.dll
 0001:000050f2       ?compareItems@QGList@@MAEHPAX0@Z 100060f2 f   qt-mt323:qt-mt323.dll
 0001:000050f8       ?write@QGList@@MBEAAVQDataStream@@AAV2@PAX@Z 100060f8 f   qt-mt323:qt-mt323.dll
 0001:000050fe       ?read@QGList@@MAEAAVQDataStream@@AAV2@AAPAX@Z 100060fe f   qt-mt323:qt-mt323.dll
 0001:00005104       ?newItem@QPtrCollection@@MAEPAXPAX@Z 10006104 f   qt-mt323:qt-mt323.dll
 0001:0000510a       ?detach@QPixmap@@UAEXXZ    1000610a f   qt-mt323:qt-mt323.dll
 0001:00005110       ?metric@QPixmap@@MBEHH@Z   10006110 f   qt-mt323:qt-mt323.dll
 0001:00005116       ?setName@QObject@@UAEXPBD@Z 10006116 f   qt-mt323:qt-mt323.dll
 0001:0000511c       ?event@QObject@@UAE_NPAVQEvent@@@Z 1000611c f   qt-mt323:qt-mt323.dll
 0001:00005122       ?qt_property@QWidgetPlugin@@UAE_NHHPAVQVariant@@@Z 10006122 f   qt-mt323:qt-mt323.dll
 0001:00005128       ?qt_emit@QWidgetPlugin@@UAE_NHPAUQUObject@@@Z 10006128 f   qt-mt323:qt-mt323.dll
 0001:0000512e       ?qt_invoke@QWidgetPlugin@@UAE_NHPAUQUObject@@@Z 1000612e f   qt-mt323:qt-mt323.dll
 0001:00005134       ?qt_cast@QWidgetPlugin@@UAEPAXPBD@Z 10006134 f   qt-mt323:qt-mt323.dll
 0001:0000513a       ?className@QWidgetPlugin@@UBEPBDXZ 1000613a f   qt-mt323:qt-mt323.dll
 0001:00005140       ?metaObject@QWidgetPlugin@@UBEPAVQMetaObject@@XZ 10006140 f   qt-mt323:qt-mt323.dll
 0001:00005146       ?drawContents@QFrame@@MAEXPAVQPainter@@@Z 10006146 f   qt-mt323:qt-mt323.dll
 0001:0000514c       ?resizeEvent@QFrame@@MAEXPAVQResizeEvent@@@Z 1000614c f   qt-mt323:qt-mt323.dll
 0001:00005152       ?sizeHint@QFrame@@UBE?AVQSize@@XZ 10006152 f   qt-mt323:qt-mt323.dll
 0001:00005158       ?qt_property@QFrame@@UAE_NHHPAVQVariant@@@Z 10006158 f   qt-mt323:qt-mt323.dll
 0001:0000515e       ?qt_emit@QFrame@@UAE_NHPAUQUObject@@@Z 1000615e f   qt-mt323:qt-mt323.dll
 0001:00005164       ?qt_invoke@QFrame@@UAE_NHPAUQUObject@@@Z 10006164 f   qt-mt323:qt-mt323.dll
 0001:0000516a       ?qt_cast@QFrame@@UAEPAXPBD@Z 1000616a f   qt-mt323:qt-mt323.dll
 0001:00005170       ?className@QFrame@@UBEPBDXZ 10006170 f   qt-mt323:qt-mt323.dll
 0001:00005176       ?metaObject@QFrame@@UBEPAVQMetaObject@@XZ 10006176 f   qt-mt323:qt-mt323.dll
 0001:0000517c       ?createPopupMenu@QLineEdit@@MAEPAVQPopupMenu@@XZ 1000617c f   qt-mt323:qt-mt323.dll
 0001:00005182       ?setDragEnabled@QLineEdit@@UAEX_N@Z 10006182 f   qt-mt323:qt-mt323.dll
 0001:00005188       ?paste@QLineEdit@@UAEXXZ   10006188 f   qt-mt323:qt-mt323.dll
 0001:0000518e       ?copy@QLineEdit@@UBEXXZ    1000618e f   qt-mt323:qt-mt323.dll
 0001:00005194       ?cut@QLineEdit@@UAEXXZ     10006194 f   qt-mt323:qt-mt323.dll
 0001:0000519a       ?setAlignment@QLineEdit@@UAEXH@Z 1000619a f   qt-mt323:qt-mt323.dll
 0001:000051a0       ?setCursorPosition@QLineEdit@@UAEXH@Z 100061a0 f   qt-mt323:qt-mt323.dll
 0001:000051a6       ?setSelection@QLineEdit@@UAEXHH@Z 100061a6 f   qt-mt323:qt-mt323.dll
 0001:000051ac       ?setValidator@QLineEdit@@UAEXPBVQValidator@@@Z 100061ac f   qt-mt323:qt-mt323.dll
 0001:000051b2       ?setReadOnly@QLineEdit@@UAEX_N@Z 100061b2 f   qt-mt323:qt-mt323.dll
 0001:000051b8       ?setEchoMode@QLineEdit@@UAEXW4EchoMode@1@@Z 100061b8 f   qt-mt323:qt-mt323.dll
 0001:000051be       ?setFrame@QLineEdit@@UAEX_N@Z 100061be f   qt-mt323:qt-mt323.dll
 0001:000051c4       ?setMaxLength@QLineEdit@@UAEXH@Z 100061c4 f   qt-mt323:qt-mt323.dll
 0001:000051ca       ?redo@QLineEdit@@UAEXXZ    100061ca f   qt-mt323:qt-mt323.dll
 0001:000051d0       ?undo@QLineEdit@@UAEXXZ    100061d0 f   qt-mt323:qt-mt323.dll
 0001:000051d6       ?clear@QLineEdit@@UAEXXZ   100061d6 f   qt-mt323:qt-mt323.dll
 0001:000051dc       ?insert@QLineEdit@@UAEXABVQString@@@Z 100061dc f   qt-mt323:qt-mt323.dll
 0001:000051e2       ?clearValidator@QLineEdit@@UAEXXZ 100061e2 f   qt-mt323:qt-mt323.dll
 0001:000051e8       ?deselect@QLineEdit@@UAEXXZ 100061e8 f   qt-mt323:qt-mt323.dll
 0001:000051ee       ?selectAll@QLineEdit@@UAEXXZ 100061ee f   qt-mt323:qt-mt323.dll
 0001:000051f4       ?setText@QLineEdit@@UAEXABVQString@@@Z 100061f4 f   qt-mt323:qt-mt323.dll
 0001:000051fa       ?drawContents@QLineEdit@@MAEXPAVQPainter@@@Z 100061fa f   qt-mt323:qt-mt323.dll
 0001:00005200       ?windowActivationChange@QLineEdit@@MAEX_N@Z 10006200 f   qt-mt323:qt-mt323.dll
 0001:00005206       ?dropEvent@QLineEdit@@MAEXPAVQDropEvent@@@Z 10006206 f   qt-mt323:qt-mt323.dll
 0001:0000520c       ?dragLeaveEvent@QLineEdit@@MAEXPAVQDragLeaveEvent@@@Z 1000620c f   qt-mt323:qt-mt323.dll
 0001:00005212       ?dragMoveEvent@QLineEdit@@MAEXPAVQDragMoveEvent@@@Z 10006212 f   qt-mt323:qt-mt323.dll
 0001:00005218       ?dragEnterEvent@QLineEdit@@MAEXPAVQDragEnterEvent@@@Z 10006218 f   qt-mt323:qt-mt323.dll
 0001:0000521e       ?imEndEvent@QLineEdit@@MAEXPAVQIMEvent@@@Z 1000621e f   qt-mt323:qt-mt323.dll
 0001:00005224       ?imComposeEvent@QLineEdit@@MAEXPAVQIMEvent@@@Z 10006224 f   qt-mt323:qt-mt323.dll
 0001:0000522a       ?imStartEvent@QLineEdit@@MAEXPAVQIMEvent@@@Z 1000622a f   qt-mt323:qt-mt323.dll
 0001:00005230       ?contextMenuEvent@QLineEdit@@MAEXPAVQContextMenuEvent@@@Z 10006230 f   qt-mt323:qt-mt323.dll
 0001:00005236       ?resizeEvent@QLineEdit@@MAEXPAVQResizeEvent@@@Z 10006236 f   qt-mt323:qt-mt323.dll
 0001:0000523c       ?focusOutEvent@QLineEdit@@MAEXPAVQFocusEvent@@@Z 1000623c f   qt-mt323:qt-mt323.dll
 0001:00005242       ?focusInEvent@QLineEdit@@MAEXPAVQFocusEvent@@@Z 10006242 f   qt-mt323:qt-mt323.dll
 0001:00005248       ?keyPressEvent@QLineEdit@@MAEXPAVQKeyEvent@@@Z 10006248 f   qt-mt323:qt-mt323.dll
 0001:0000524e       ?mouseMoveEvent@QLineEdit@@MAEXPAVQMouseEvent@@@Z 1000624e f   qt-mt323:qt-mt323.dll
 0001:00005254       ?mouseDoubleClickEvent@QLineEdit@@MAEXPAVQMouseEvent@@@Z 10006254 f   qt-mt323:qt-mt323.dll
 0001:0000525a       ?mouseReleaseEvent@QLineEdit@@MAEXPAVQMouseEvent@@@Z 1000625a f   qt-mt323:qt-mt323.dll
 0001:00005260       ?mousePressEvent@QLineEdit@@MAEXPAVQMouseEvent@@@Z 10006260 f   qt-mt323:qt-mt323.dll
 0001:00005266       ?minimumSizeHint@QLineEdit@@UBE?AVQSize@@XZ 10006266 f   qt-mt323:qt-mt323.dll
 0001:0000526c       ?sizeHint@QLineEdit@@UBE?AVQSize@@XZ 1000626c f   qt-mt323:qt-mt323.dll
 0001:00005272       ?setFont@QLineEdit@@UAEXABVQFont@@@Z 10006272 f   qt-mt323:qt-mt323.dll
 0001:00005278       ?setPalette@QLineEdit@@UAEXABVQPalette@@@Z 10006278 f   qt-mt323:qt-mt323.dll
 0001:0000527e       ?event@QLineEdit@@MAE_NPAVQEvent@@@Z 1000627e f   qt-mt323:qt-mt323.dll
 0001:00005284       ?qt_property@QLineEdit@@UAE_NHHPAVQVariant@@@Z 10006284 f   qt-mt323:qt-mt323.dll
 0001:0000528a       ?qt_emit@QLineEdit@@UAE_NHPAUQUObject@@@Z 1000628a f   qt-mt323:qt-mt323.dll
 0001:00005290       ?qt_invoke@QLineEdit@@UAE_NHPAUQUObject@@@Z 10006290 f   qt-mt323:qt-mt323.dll
 0001:00005296       ?qt_cast@QLineEdit@@UAEPAXPBD@Z 10006296 f   qt-mt323:qt-mt323.dll
 0001:0000529c       ?className@QLineEdit@@UBEPBDXZ 1000629c f   qt-mt323:qt-mt323.dll
 0001:000052a2       ?metaObject@QLineEdit@@UBEPAVQMetaObject@@XZ 100062a2 f   qt-mt323:qt-mt323.dll
 0001:000052a8       ?setNum@QLabel@@UAEXH@Z    100062a8 f   qt-mt323:qt-mt323.dll
 0001:000052ae       ?setNum@QLabel@@UAEXN@Z    100062ae f   qt-mt323:qt-mt323.dll
 0001:000052b4       ?setMovie@QLabel@@UAEXABVQMovie@@@Z 100062b4 f   qt-mt323:qt-mt323.dll
 0001:000052ba       ?setPicture@QLabel@@UAEXABVQPicture@@@Z 100062ba f   qt-mt323:qt-mt323.dll
 0001:000052c0       ?setPixmap@QLabel@@UAEXABVQPixmap@@@Z 100062c0 f   qt-mt323:qt-mt323.dll
 0001:000052c6       ?setText@QLabel@@UAEXABVQString@@@Z 100062c6 f   qt-mt323:qt-mt323.dll
 0001:000052cc       ?setBuddy@QLabel@@UAEXPAVQWidget@@@Z 100062cc f   qt-mt323:qt-mt323.dll
 0001:000052d2       ?setAutoResize@QLabel@@UAEX_N@Z 100062d2 f   qt-mt323:qt-mt323.dll
 0001:000052d8       ?setAlignment@QLabel@@UAEXH@Z 100062d8 f   qt-mt323:qt-mt323.dll
 0001:000052de       ?frameChanged@QFrame@@MAEXXZ 100062de f   qt-mt323:qt-mt323.dll
 0001:000052e4       ?drawContents@QLabel@@MAEXPAVQPainter@@@Z 100062e4 f   qt-mt323:qt-mt323.dll
 0001:000052ea       ?drawFrame@QFrame@@MAEXPAVQPainter@@@Z 100062ea f   qt-mt323:qt-mt323.dll
 0001:000052f0       ?setFrameRect@QFrame@@UAEXABVQRect@@@Z 100062f0 f   qt-mt323:qt-mt323.dll
 0001:000052f6       ?setMidLineWidth@QFrame@@UAEXH@Z 100062f6 f   qt-mt323:qt-mt323.dll
 0001:000052fc       ?setMargin@QFrame@@UAEXH@Z 100062fc f   qt-mt323:qt-mt323.dll
 0001:00005302       ?setLineWidth@QFrame@@UAEXH@Z 10006302 f   qt-mt323:qt-mt323.dll
 0001:00005308       ?setFrameStyle@QFrame@@UAEXH@Z 10006308 f   qt-mt323:qt-mt323.dll
 0001:0000530e       ?fontChange@QLabel@@MAEXABVQFont@@@Z 1000630e f   qt-mt323:qt-mt323.dll
 0001:00005314       ?styleChange@QFrame@@MAEXAAVQStyle@@@Z 10006314 f   qt-mt323:qt-mt323.dll
 0001:0000531a       ?resizeEvent@QLabel@@MAEXPAVQResizeEvent@@@Z 1000631a f   qt-mt323:qt-mt323.dll
 0001:00005320       ?paintEvent@QFrame@@MAEXPAVQPaintEvent@@@Z 10006320 f   qt-mt323:qt-mt323.dll
 0001:00005326       ?heightForWidth@QLabel@@UBEHH@Z 10006326 f   qt-mt323:qt-mt323.dll
 0001:0000532c       ?minimumSizeHint@QLabel@@UBE?AVQSize@@XZ 1000632c f   qt-mt323:qt-mt323.dll
 0001:00005332       ?sizeHint@QLabel@@UBE?AVQSize@@XZ 10006332 f   qt-mt323:qt-mt323.dll
 0001:00005338       ?setFont@QLabel@@UAEXABVQFont@@@Z 10006338 f   qt-mt323:qt-mt323.dll
 0001:0000533e       ?qt_property@QLabel@@UAE_NHHPAVQVariant@@@Z 1000633e f   qt-mt323:qt-mt323.dll
 0001:00005344       ?qt_emit@QLabel@@UAE_NHPAUQUObject@@@Z 10006344 f   qt-mt323:qt-mt323.dll
 0001:0000534a       ?qt_invoke@QLabel@@UAE_NHPAUQUObject@@@Z 1000634a f   qt-mt323:qt-mt323.dll
 0001:00005350       ?qt_cast@QLabel@@UAEPAXPBD@Z 10006350 f   qt-mt323:qt-mt323.dll
 0001:00005356       ?className@QLabel@@UBEPBDXZ 10006356 f   qt-mt323:qt-mt323.dll
 0001:0000535c       ?metaObject@QLabel@@UBEPAVQMetaObject@@XZ 1000635c f   qt-mt323:qt-mt323.dll
 0001:00005362       ?qt_property@QHBoxLayout@@UAE_NHHPAVQVariant@@@Z 10006362 f   qt-mt323:qt-mt323.dll
 0001:00005368       ?qt_emit@QHBoxLayout@@UAE_NHPAUQUObject@@@Z 10006368 f   qt-mt323:qt-mt323.dll
 0001:0000536e       ?qt_invoke@QHBoxLayout@@UAE_NHPAUQUObject@@@Z 1000636e f   qt-mt323:qt-mt323.dll
 0001:00005374       ?qt_cast@QHBoxLayout@@UAEPAXPBD@Z 10006374 f   qt-mt323:qt-mt323.dll
 0001:0000537a       ?className@QHBoxLayout@@UBEPBDXZ 1000637a f   qt-mt323:qt-mt323.dll
 0001:00005380       ?metaObject@QHBoxLayout@@UBEPAVQMetaObject@@XZ 10006380 f   qt-mt323:qt-mt323.dll
 0001:00005386       ?spacerItem@QLayoutItem@@UAEPAVQSpacerItem@@XZ 10006386 f   qt-mt323:qt-mt323.dll
 0001:0000538c       ?layout@QLayout@@UAEPAV1@XZ 1000638c f   qt-mt323:qt-mt323.dll
 0001:00005392       ?iterator@QBoxLayout@@UAE?AVQLayoutIterator@@XZ 10006392 f   qt-mt323:qt-mt323.dll
 0001:00005398       ?invalidate@QBoxLayout@@UAEXXZ 10006398 f   qt-mt323:qt-mt323.dll
 0001:0000539e       ?heightForWidth@QBoxLayout@@UBEHH@Z 1000639e f   qt-mt323:qt-mt323.dll
 0001:000053a4       ?hasHeightForWidth@QBoxLayout@@UBE_NXZ 100063a4 f   qt-mt323:qt-mt323.dll
 0001:000053aa       ?isEmpty@QLayout@@UBE_NXZ  100063aa f   qt-mt323:qt-mt323.dll
 0001:000053b0       ?geometry@QLayout@@UBE?AVQRect@@XZ 100063b0 f   qt-mt323:qt-mt323.dll
 0001:000053b6       ?setGeometry@QBoxLayout@@UAEXABVQRect@@@Z 100063b6 f   qt-mt323:qt-mt323.dll
 0001:000053bc       ?expanding@QBoxLayout@@UBE?AW4ExpandData@QSizePolicy@@XZ 100063bc f   qt-mt323:qt-mt323.dll
 0001:000053c2       ?maximumSize@QBoxLayout@@UBE?AVQSize@@XZ 100063c2 f   qt-mt323:qt-mt323.dll
 0001:000053c8       ?minimumSize@QBoxLayout@@UBE?AVQSize@@XZ 100063c8 f   qt-mt323:qt-mt323.dll
 0001:000053ce       ?sizeHint@QBoxLayout@@UBE?AVQSize@@XZ 100063ce f   qt-mt323:qt-mt323.dll
 0001:000053d4       ?addItem@QBoxLayout@@UAEXPAVQLayoutItem@@@Z 100063d4 f   qt-mt323:qt-mt323.dll
 0001:000053da       ?setAutoAdd@QLayout@@UAEX_N@Z 100063da f   qt-mt323:qt-mt323.dll
 0001:000053e0       ?setMenuBar@QLayout@@UAEXPAVQMenuBar@@@Z 100063e0 f   qt-mt323:qt-mt323.dll
 0001:000053e6       ?setSpacing@QLayout@@UAEXH@Z 100063e6 f   qt-mt323:qt-mt323.dll
 0001:000053ec       ?setMargin@QLayout@@UAEXH@Z 100063ec f   qt-mt323:qt-mt323.dll
 0001:000053f2       ?childEvent@QLayout@@MAEXPAVQChildEvent@@@Z 100063f2 f   qt-mt323:qt-mt323.dll
 0001:000053f8       ?eventFilter@QLayout@@MAE_NPAVQObject@@PAVQEvent@@@Z 100063f8 f   qt-mt323:qt-mt323.dll
 0001:000053fe       ?qt_property@QVBoxLayout@@UAE_NHHPAVQVariant@@@Z 100063fe f   qt-mt323:qt-mt323.dll
 0001:00005404       ?qt_emit@QVBoxLayout@@UAE_NHPAUQUObject@@@Z 10006404 f   qt-mt323:qt-mt323.dll
 0001:0000540a       ?qt_invoke@QVBoxLayout@@UAE_NHPAUQUObject@@@Z 1000640a f   qt-mt323:qt-mt323.dll
 0001:00005410       ?qt_cast@QVBoxLayout@@UAEPAXPBD@Z 10006410 f   qt-mt323:qt-mt323.dll
 0001:00005416       ?className@QVBoxLayout@@UBEPBDXZ 10006416 f   qt-mt323:qt-mt323.dll
 0001:0000541c       ?metaObject@QVBoxLayout@@UBEPAVQMetaObject@@XZ 1000641c f   qt-mt323:qt-mt323.dll
 0001:00005422       ?setAlignment@QLayoutItem@@UAEXH@Z 10006422 f   qt-mt323:qt-mt323.dll
 0001:00005428       ?spacerItem@QSpacerItem@@UAEPAV1@XZ 10006428 f   qt-mt323:qt-mt323.dll
 0001:0000542e       ?layout@QLayoutItem@@UAEPAVQLayout@@XZ 1000642e f   qt-mt323:qt-mt323.dll
 0001:00005434       ?iterator@QLayoutItem@@UAE?AVQLayoutIterator@@XZ 10006434 f   qt-mt323:qt-mt323.dll
 0001:0000543a       ?widget@QLayoutItem@@UAEPAVQWidget@@XZ 1000643a f   qt-mt323:qt-mt323.dll
 0001:00005440       ?invalidate@QLayoutItem@@UAEXXZ 10006440 f   qt-mt323:qt-mt323.dll
 0001:00005446       ?heightForWidth@QLayoutItem@@UBEHH@Z 10006446 f   qt-mt323:qt-mt323.dll
 0001:0000544c       ?hasHeightForWidth@QLayoutItem@@UBE_NXZ 1000644c f   qt-mt323:qt-mt323.dll
 0001:00005452       ?isEmpty@QSpacerItem@@UBE_NXZ 10006452 f   qt-mt323:qt-mt323.dll
 0001:00005458       ?geometry@QSpacerItem@@UBE?AVQRect@@XZ 10006458 f   qt-mt323:qt-mt323.dll
 0001:0000545e       ?setGeometry@QSpacerItem@@UAEXABVQRect@@@Z 1000645e f   qt-mt323:qt-mt323.dll
 0001:00005464       ?expanding@QSpacerItem@@UBE?AW4ExpandData@QSizePolicy@@XZ 10006464 f   qt-mt323:qt-mt323.dll
 0001:0000546a       ?maximumSize@QSpacerItem@@UBE?AVQSize@@XZ 1000646a f   qt-mt323:qt-mt323.dll
 0001:00005470       ?minimumSize@QSpacerItem@@UBE?AVQSize@@XZ 10006470 f   qt-mt323:qt-mt323.dll
 0001:00005476       ?sizeHint@QSpacerItem@@UBE?AVQSize@@XZ 10006476 f   qt-mt323:qt-mt323.dll
 0001:0000547c       ?setOn@QPushButton@@UAEX_N@Z 1000647c f   qt-mt323:qt-mt323.dll
 0001:00005482       ?setIsMenuButton@QPushButton@@UAEX_N@Z 10006482 f   qt-mt323:qt-mt323.dll
 0001:00005488       ?setDefault@QPushButton@@UAEX_N@Z 10006488 f   qt-mt323:qt-mt323.dll
 0001:0000548e       ?setAutoDefault@QPushButton@@UAEX_N@Z 1000648e f   qt-mt323:qt-mt323.dll
 0001:00005494       ?setGroup@QButton@@EAEXPAVQButtonGroup@@@Z 10006494 f   qt-mt323:qt-mt323.dll
 0001:0000549a       ?drawButtonLabel@QPushButton@@MAEXPAVQPainter@@@Z 1000649a f   qt-mt323:qt-mt323.dll
 0001:000054a0       ?drawButton@QPushButton@@MAEXPAVQPainter@@@Z 100064a0 f   qt-mt323:qt-mt323.dll
 0001:000054a6       ?hitButton@QButton@@MBE_NABVQPoint@@@Z 100064a6 f   qt-mt323:qt-mt323.dll
 0001:000054ac       ?setState@QButton@@MAEXW4ToggleState@1@@Z 100064ac f   qt-mt323:qt-mt323.dll
 0001:000054b2       ?setToggleType@QButton@@MAEXW4ToggleType@1@@Z 100064b2 f   qt-mt323:qt-mt323.dll
 0001:000054b8       ?setAutoRepeat@QButton@@UAEX_N@Z 100064b8 f   qt-mt323:qt-mt323.dll
 0001:000054be       ?setDown@QButton@@UAEX_N@Z 100064be f   qt-mt323:qt-mt323.dll
 0001:000054c4       ?setAccel@QButton@@UAEXABVQKeySequence@@@Z 100064c4 f   qt-mt323:qt-mt323.dll
 0001:000054ca       ?setPixmap@QButton@@UAEXABVQPixmap@@@Z 100064ca f   qt-mt323:qt-mt323.dll
 0001:000054d0       ?setText@QButton@@UAEXABVQString@@@Z 100064d0 f   qt-mt323:qt-mt323.dll
 0001:000054d6       ?enabledChange@QButton@@MAEX_N@Z 100064d6 f   qt-mt323:qt-mt323.dll
 0001:000054dc       ?updateMask@QPushButton@@MAEXXZ 100064dc f   qt-mt323:qt-mt323.dll
 0001:000054e2       ?resizeEvent@QPushButton@@MAEXPAVQResizeEvent@@@Z 100064e2 f   qt-mt323:qt-mt323.dll
 0001:000054e8       ?paintEvent@QButton@@MAEXPAVQPaintEvent@@@Z 100064e8 f   qt-mt323:qt-mt323.dll
 0001:000054ee       ?focusOutEvent@QPushButton@@MAEXPAVQFocusEvent@@@Z 100064ee f   qt-mt323:qt-mt323.dll
 0001:000054f4       ?focusInEvent@QPushButton@@MAEXPAVQFocusEvent@@@Z 100064f4 f   qt-mt323:qt-mt323.dll
 0001:000054fa       ?keyReleaseEvent@QButton@@MAEXPAVQKeyEvent@@@Z 100064fa f   qt-mt323:qt-mt323.dll
 0001:00005500       ?keyPressEvent@QButton@@MAEXPAVQKeyEvent@@@Z 10006500 f   qt-mt323:qt-mt323.dll
 0001:00005506       ?mouseMoveEvent@QButton@@MAEXPAVQMouseEvent@@@Z 10006506 f   qt-mt323:qt-mt323.dll
 0001:0000550c       ?mouseReleaseEvent@QButton@@MAEXPAVQMouseEvent@@@Z 1000650c f   qt-mt323:qt-mt323.dll
 0001:00005512       ?mousePressEvent@QButton@@MAEXPAVQMouseEvent@@@Z 10006512 f   qt-mt323:qt-mt323.dll
 0001:00005518       ?sizeHint@QPushButton@@UBE?AVQSize@@XZ 10006518 f   qt-mt323:qt-mt323.dll
 0001:0000551e       ?setGeometry@QPushButton@@UAEXHHHH@Z 1000651e f   qt-mt323:qt-mt323.dll
 0001:00005524       ?setGeometry@QPushButton@@UAEXABVQRect@@@Z 10006524 f   qt-mt323:qt-mt323.dll
 0001:0000552a       ?resize@QPushButton@@UAEXHH@Z 1000652a f   qt-mt323:qt-mt323.dll
 0001:00005530       ?move@QPushButton@@UAEXHH@Z 10006530 f   qt-mt323:qt-mt323.dll
 0001:00005536       ?qt_property@QPushButton@@UAE_NHHPAVQVariant@@@Z 10006536 f   qt-mt323:qt-mt323.dll
 0001:0000553c       ?qt_emit@QPushButton@@UAE_NHPAUQUObject@@@Z 1000653c f   qt-mt323:qt-mt323.dll
 0001:00005542       ?qt_invoke@QPushButton@@UAE_NHPAUQUObject@@@Z 10006542 f   qt-mt323:qt-mt323.dll
 0001:00005548       ?qt_cast@QPushButton@@UAEPAXPBD@Z 10006548 f   qt-mt323:qt-mt323.dll
 0001:0000554e       ?className@QPushButton@@UBEPBDXZ 1000654e f   qt-mt323:qt-mt323.dll
 0001:00005554       ?metaObject@QPushButton@@UBEPAVQMetaObject@@XZ 10006554 f   qt-mt323:qt-mt323.dll
 0001:0000555a       ___CxxFrameHandler         1000655a f   MSVCRT:MSVCRT.dll
 0001:00005560       __EH_prolog                10006560 f   MSVCRT:ehprolog.obj
 0001:00005580       ??3@YAXPAX@Z               10006580 f   MSVCRT:MSVCRT.dll
 0001:00005586       ??_M@YGXPAXIHP6EX0@Z@Z     10006586 f   MSVCRT:ehvecdtr.obj
 0001:00005606       ?__ArrayUnwind@@YGXPAXIHP6EX0@Z@Z 10006606 f   MSVCRT:ehvecdtr.obj
 0001:0000567a       ??2@YAPAXI@Z               1000667a f   MSVCRT:MSVCRT.dll
 0001:00005680       ??_L@YGXPAXIHP6EX0@Z1@Z    10006680 f   MSVCRT:ehvecctr.obj
 0001:00005702       _strcmp                    10006702 f   MSVCRT:MSVCRT.dll
 0001:00005708       __onexit                   10006708 f   MSVCRT:atonexit.obj
 0001:00005734       _atexit                    10006734 f   MSVCRT:atonexit.obj
 0001:00005746       _cos                       10006746 f   MSVCRT:MSVCRT.dll
 0001:0000574c       _sin                       1000674c f   MSVCRT:MSVCRT.dll
 0001:00005752       __ftol                     10006752 f   MSVCRT:MSVCRT.dll
 0001:00005758       _atan                      10006758 f   MSVCRT:MSVCRT.dll
 0001:0000575e       _strlen                    1000675e f   MSVCRT:MSVCRT.dll
 0001:00005764       __CRT_INIT@12              10006764 f   MSVCRT:crtdll.obj
 0001:0000580f       __DllMainCRTStartup@12     1000680f f   MSVCRT:crtdll.obj
 0001:000058ac       __except_handler3          100068ac f   MSVCRT:MSVCRT.dll
 0001:000058b2       ?terminate@@YAXXZ          100068b2 f   MSVCRT:MSVCRT.dll
 0001:000058b8       ___dllonexit               100068b8 f   MSVCRT:MSVCRT.dll
 0001:000058be       __initterm                 100068be f   MSVCRT:MSVCRT.dll
 0002:00000000       __imp__RegQueryValueExA@24 10007000     advapi32:ADVAPI32.dll
 0002:00000004       __imp__RegOpenKeyExA@20    10007004     advapi32:ADVAPI32.dll
 0002:00000008       __imp__RegCloseKey@4       10007008     advapi32:ADVAPI32.dll
 0002:0000000c       \177ADVAPI32_NULL_THUNK_DATA 1000700c     advapi32:ADVAPI32.dll
 0002:00000010       __imp__SetTextColor@8      10007010     gdi32:GDI32.dll
 0002:00000014       __imp__SetBkColor@8        10007014     gdi32:GDI32.dll
 0002:00000018       __imp__Arc@36              10007018     gdi32:GDI32.dll
 0002:0000001c       __imp__DeleteObject@4      1000701c     gdi32:GDI32.dll
 0002:00000020       __imp__Rectangle@20        10007020     gdi32:GDI32.dll
 0002:00000024       __imp__SelectObject@8      10007024     gdi32:GDI32.dll
 0002:00000028       __imp__CreateSolidBrush@4  10007028     gdi32:GDI32.dll
 0002:0000002c       __imp__LineTo@12           1000702c     gdi32:GDI32.dll
 0002:00000030       __imp__MoveToEx@16         10007030     gdi32:GDI32.dll
 0002:00000034       __imp__Ellipse@20          10007034     gdi32:GDI32.dll
 0002:00000038       __imp__CreatePen@12        10007038     gdi32:GDI32.dll
 0002:0000003c       __imp__SetROP2@8           1000703c     gdi32:GDI32.dll
 0002:00000040       __imp__GetTextExtentPoint32A@16 10007040     gdi32:GDI32.dll
 0002:00000044       __imp__SetTextAlign@8      10007044     gdi32:GDI32.dll
 0002:00000048       __imp__TextOutA@20         10007048     gdi32:GDI32.dll
 0002:0000004c       __imp__SetBkMode@8         1000704c     gdi32:GDI32.dll
 0002:00000050       __imp__CreateFontIndirectA@4 10007050     gdi32:GDI32.dll
 0002:00000054       \177GDI32_NULL_THUNK_DATA  10007054     gdi32:GDI32.dll
 0002:00000058       __imp__LoadLibraryA@4      10007058     kernel32:KERNEL32.dll
 0002:0000005c       __imp__GetProcAddress@8    1000705c     kernel32:KERNEL32.dll
 0002:00000060       __imp__lstrlenA@4          10007060     kernel32:KERNEL32.dll
 0002:00000064       __imp__lstrcpynA@12        10007064     kernel32:KERNEL32.dll
 0002:00000068       __imp__GlobalAlloc@8       10007068     kernel32:KERNEL32.dll
 0002:0000006c       __imp__GlobalLock@4        1000706c     kernel32:KERNEL32.dll
 0002:00000070       __imp__GlobalUnlock@4      10007070     kernel32:KERNEL32.dll
 0002:00000074       __imp__GlobalFree@4        10007074     kernel32:KERNEL32.dll
 0002:00000078       \177KERNEL32_NULL_THUNK_DATA 10007078     kernel32:KERNEL32.dll
 0002:0000007c       __imp____CxxFrameHandler   1000707c     MSVCRT:MSVCRT.dll
 0002:00000080       __imp_??3@YAXPAX@Z         10007080     MSVCRT:MSVCRT.dll
 0002:00000084       __imp__getenv              10007084     MSVCRT:MSVCRT.dll
 0002:00000088       __imp_??2@YAPAXI@Z         10007088     MSVCRT:MSVCRT.dll
 0002:0000008c       __imp__atoi                1000708c     MSVCRT:MSVCRT.dll
 0002:00000090       __imp__strcmp              10007090     MSVCRT:MSVCRT.dll
 0002:00000094       __imp__sprintf             10007094     MSVCRT:MSVCRT.dll
 0002:00000098       __imp__exit                10007098     MSVCRT:MSVCRT.dll
 0002:0000009c       __imp__calloc              1000709c     MSVCRT:MSVCRT.dll
 0002:000000a0       __imp__cos                 100070a0     MSVCRT:MSVCRT.dll
 0002:000000a4       __imp__sin                 100070a4     MSVCRT:MSVCRT.dll
 0002:000000a8       __imp___ftol               100070a8     MSVCRT:MSVCRT.dll
 0002:000000ac       __imp__atan                100070ac     MSVCRT:MSVCRT.dll
 0002:000000b0       __imp__strlen              100070b0     MSVCRT:MSVCRT.dll
 0002:000000b4       __imp___adjust_fdiv        100070b4     MSVCRT:MSVCRT.dll
 0002:000000b8       __imp__malloc              100070b8     MSVCRT:MSVCRT.dll
 0002:000000bc       __imp___initterm           100070bc     MSVCRT:MSVCRT.dll
 0002:000000c0       __imp__free                100070c0     MSVCRT:MSVCRT.dll
 0002:000000c4       __imp___onexit             100070c4     MSVCRT:MSVCRT.dll
 0002:000000c8       __imp____dllonexit         100070c8     MSVCRT:MSVCRT.dll
 0002:000000cc       __imp_?terminate@@YAXXZ    100070cc     MSVCRT:MSVCRT.dll
 0002:000000d0       __imp___except_handler3    100070d0     MSVCRT:MSVCRT.dll
 0002:000000d4       __imp__strncpy             100070d4     MSVCRT:MSVCRT.dll
 0002:000000d8       \177MSVCRT_NULL_THUNK_DATA 100070d8     MSVCRT:MSVCRT.dll
 0002:000000dc       __imp__GetParent@4         100070dc     user32:USER32.dll
 0002:000000e0       __imp__SendMessageA@16     100070e0     user32:USER32.dll
 0002:000000e4       __imp__GetWindowLongA@8    100070e4     user32:USER32.dll
 0002:000000e8       __imp__UnregisterClassA@8  100070e8     user32:USER32.dll
 0002:000000ec       __imp__LoadCursorA@8       100070ec     user32:USER32.dll
 0002:000000f0       __imp__RegisterClassA@4    100070f0     user32:USER32.dll
 0002:000000f4       __imp__SetWindowTextA@8    100070f4     user32:USER32.dll
 0002:000000f8       __imp__SetWindowPos@28     100070f8     user32:USER32.dll
 0002:000000fc       __imp__CreateWindowExA@48  100070fc     user32:USER32.dll
 0002:00000100       __imp__ShowWindow@8        10007100     user32:USER32.dll
 0002:00000104       __imp__MessageBoxA@16      10007104     user32:USER32.dll
 0002:00000108       __imp__ReleaseCapture@0    10007108     user32:USER32.dll
 0002:0000010c       __imp__ReleaseDC@8         1000710c     user32:USER32.dll
 0002:00000110       __imp__DefWindowProcA@16   10007110     user32:USER32.dll
 0002:00000114       __imp__GetDC@4             10007114     user32:USER32.dll
 0002:00000118       __imp__SetWindowLongA@12   10007118     user32:USER32.dll
 0002:0000011c       __imp__EndPaint@8          1000711c     user32:USER32.dll
 0002:00000120       __imp__BeginPaint@8        10007120     user32:USER32.dll
 0002:00000124       __imp__InvalidateRect@12   10007124     user32:USER32.dll
 0002:00000128       __imp__SetCapture@4        10007128     user32:USER32.dll
 0002:0000012c       \177USER32_NULL_THUNK_DATA 1000712c     user32:USER32.dll
 0002:00000130       __imp_?isDesignTime@dCW@@SA_NXZ 10007130     dcw:dcw.dll
 0002:00000134       \177dcw_NULL_THUNK_DATA    10007134     dcw:dcw.dll
 0002:00000138       __imp_?setPalette@QWidget@@UAEXABVQPalette@@@Z 10007138     qt-mt323:qt-mt323.dll
 0002:0000013c       __imp_?setErasePixmap@QWidget@@UAEXABVQPixmap@@@Z 1000713c     qt-mt323:qt-mt323.dll
 0002:00000140       __imp_?setEraseColor@QWidget@@UAEXABVQColor@@@Z 10007140     qt-mt323:qt-mt323.dll
 0002:00000144       __imp_?setBackgroundMode@QWidget@@UAEXW4BackgroundMode@Qt@@@Z 10007144     qt-mt323:qt-mt323.dll
 0002:00000148       __imp_?setSizeIncrement@QWidget@@UAEXHH@Z 10007148     qt-mt323:qt-mt323.dll
 0002:0000014c       __imp_?setMaximumSize@QWidget@@UAEXHH@Z 1000714c     qt-mt323:qt-mt323.dll
 0002:00000150       __imp_?setMinimumSize@QWidget@@UAEXHH@Z 10007150     qt-mt323:qt-mt323.dll
 0002:00000154       __imp_?setEnabled@QWidget@@UAEX_N@Z 10007154     qt-mt323:qt-mt323.dll
 0002:00000158       __imp_?checkConnectArgs@QObject@@MAE_NPBDPBV1@0@Z 10007158     qt-mt323:qt-mt323.dll
 0002:0000015c       __imp_?disconnectNotify@QObject@@MAEXPBD@Z 1000715c     qt-mt323:qt-mt323.dll
 0002:00000160       __imp_?connectNotify@QObject@@MAEXPBD@Z 10007160     qt-mt323:qt-mt323.dll
 0002:00000164       __imp_?customEvent@QObject@@MAEXPAVQCustomEvent@@@Z 10007164     qt-mt323:qt-mt323.dll
 0002:00000168       __imp_?childEvent@QObject@@MAEXPAVQChildEvent@@@Z 10007168     qt-mt323:qt-mt323.dll
 0002:0000016c       __imp_?timerEvent@QObject@@MAEXPAVQTimerEvent@@@Z 1000716c     qt-mt323:qt-mt323.dll
 0002:00000170       __imp_?property@QObject@@UBE?AVQVariant@@PBD@Z 10007170     qt-mt323:qt-mt323.dll
 0002:00000174       __imp_?setProperty@QObject@@UAE_NPBDABVQVariant@@@Z 10007174     qt-mt323:qt-mt323.dll
 0002:00000178       __imp_?removeChild@QObject@@UAEXPAV1@@Z 10007178     qt-mt323:qt-mt323.dll
 0002:0000017c       __imp_?insertChild@QObject@@UAEXPAV1@@Z 1000717c     qt-mt323:qt-mt323.dll
 0002:00000180       __imp_?setName@QWidget@@UAEXPBD@Z 10007180     qt-mt323:qt-mt323.dll
 0002:00000184       __imp_?eventFilter@QDialog@@MAE_NPAVQObject@@PAVQEvent@@@Z 10007184     qt-mt323:qt-mt323.dll
 0002:00000188       __imp_?event@QWidget@@MAE_NPAVQEvent@@@Z 10007188     qt-mt323:qt-mt323.dll
 0002:0000018c       __imp_?connect@QObject@@SA_NPBV1@PBD01@Z 1000718c     qt-mt323:qt-mt323.dll
 0002:00000190       __imp_??H@YA?BVQString@@ABV0@0@Z 10007190     qt-mt323:qt-mt323.dll
 0002:00000194       __imp_??H@YA?BVQString@@PBDABV0@@Z 10007194     qt-mt323:qt-mt323.dll
 0002:00000198       __imp_?ascii@QString@@QBEPBDXZ 10007198     qt-mt323:qt-mt323.dll
 0002:0000019c       __imp_?main_widget@QApplication@@0PAVQWidget@@A 1000719c     qt-mt323:qt-mt323.dll
 0002:000001a0       __imp_??1QString@@QAE@XZ   100071a0     qt-mt323:qt-mt323.dll
 0002:000001a4       __imp_?arg@QString@@QBE?AV1@ABV1@H@Z 100071a4     qt-mt323:qt-mt323.dll
 0002:000001a8       __imp_??0QString@@QAE@PBD@Z 100071a8     qt-mt323:qt-mt323.dll
 0002:000001ac       __imp_?contextMenuEvent@QWidget@@MAEXPAVQContextMenuEvent@@@Z 100071ac     qt-mt323:qt-mt323.dll
 0002:000001b0       __imp_?closeEvent@QWidget@@MAEXPAVQCloseEvent@@@Z 100071b0     qt-mt323:qt-mt323.dll
 0002:000001b4       __imp_?keyPressEvent@QWidget@@MAEXPAVQKeyEvent@@@Z 100071b4     qt-mt323:qt-mt323.dll
 0002:000001b8       __imp_?minimumSizeHint@QWidget@@UBE?AVQSize@@XZ 100071b8     qt-mt323:qt-mt323.dll
 0002:000001bc       __imp_?sizeHint@QWidget@@UBE?AVQSize@@XZ 100071bc     qt-mt323:qt-mt323.dll
 0002:000001c0       __imp_?setGeometry@QWidget@@UAEXHHHH@Z 100071c0     qt-mt323:qt-mt323.dll
 0002:000001c4       __imp_?setGeometry@QWidget@@UAEXABVQRect@@@Z 100071c4     qt-mt323:qt-mt323.dll
 0002:000001c8       __imp_?resize@QWidget@@UAEXHH@Z 100071c8     qt-mt323:qt-mt323.dll
 0002:000001cc       __imp_?move@QWidget@@UAEXHH@Z 100071cc     qt-mt323:qt-mt323.dll
 0002:000001d0       __imp_?hide@QWidget@@UAEXXZ 100071d0     qt-mt323:qt-mt323.dll
 0002:000001d4       __imp_?show@QWidget@@UAEXXZ 100071d4     qt-mt323:qt-mt323.dll
 0002:000001d8       __imp_?eventFilter@QObject@@UAE_NPAV1@PAVQEvent@@@Z 100071d8     qt-mt323:qt-mt323.dll
 0002:000001dc       __imp_??1QWidget@@UAE@XZ   100071dc     qt-mt323:qt-mt323.dll
 0002:000001e0       __imp_??0QString@@QAE@ABV0@@Z 100071e0     qt-mt323:qt-mt323.dll
 0002:000001e4       __imp_??0QWidget@@QAE@ABV0@@Z 100071e4     qt-mt323:qt-mt323.dll
 0002:000001e8       __imp_??4QString@@QAEAAV0@ABV0@@Z 100071e8     qt-mt323:qt-mt323.dll
 0002:000001ec       __imp_??4QWidget@@QAEAAV0@ABV0@@Z 100071ec     qt-mt323:qt-mt323.dll
 0002:000001f0       __imp_??0QString@@QAE@XZ   100071f0     qt-mt323:qt-mt323.dll
 0002:000001f4       __imp_?compareItems@QGList@@MAEHPAX0@Z 100071f4     qt-mt323:qt-mt323.dll
 0002:000001f8       __imp_?write@QGList@@MBEAAVQDataStream@@AAV2@PAX@Z 100071f8     qt-mt323:qt-mt323.dll
 0002:000001fc       __imp_?read@QGList@@MAEAAVQDataStream@@AAV2@AAPAX@Z 100071fc     qt-mt323:qt-mt323.dll
 0002:00000200       __imp_?newItem@QPtrCollection@@MAEPAXPAX@Z 10007200     qt-mt323:qt-mt323.dll
 0002:00000204       __imp_??0QGList@@IAE@XZ    10007204     qt-mt323:qt-mt323.dll
 0002:00000208       __imp_??0QGList@@IAE@ABV0@@Z 10007208     qt-mt323:qt-mt323.dll
 0002:0000020c       __imp_??1QGList@@MAE@XZ    1000720c     qt-mt323:qt-mt323.dll
 0002:00000210       __imp_?clear@QGList@@MAEXXZ 10007210     qt-mt323:qt-mt323.dll
 0002:00000214       __imp_??4QGList@@IAEAAV0@ABV0@@Z 10007214     qt-mt323:qt-mt323.dll
 0002:00000218       __imp_??0QGListIterator@@IAE@ABVQGList@@@Z 10007218     qt-mt323:qt-mt323.dll
 0002:0000021c       __imp_??4QGListIterator@@IAEAAV0@ABV0@@Z 1000721c     qt-mt323:qt-mt323.dll
 0002:00000220       __imp_??0QGListIterator@@IAE@ABV0@@Z 10007220     qt-mt323:qt-mt323.dll
 0002:00000224       __imp_??1QGListIterator@@IAE@XZ 10007224     qt-mt323:qt-mt323.dll
 0002:00000228       __imp_?detach@QPixmap@@UAEXXZ 10007228     qt-mt323:qt-mt323.dll
 0002:0000022c       __imp_?metric@QPixmap@@MBEHH@Z 1000722c     qt-mt323:qt-mt323.dll
 0002:00000230       __imp_??0QPixmap@@QAE@QAPBD@Z 10007230     qt-mt323:qt-mt323.dll
 0002:00000234       __imp_??0QWidget@@QAE@PAV0@PBDI@Z 10007234     qt-mt323:qt-mt323.dll
 0002:00000238       __imp_??1QPixmap@@UAE@XZ   10007238     qt-mt323:qt-mt323.dll
 0002:0000023c       __imp_??1QPainter@@QAE@XZ  1000723c     qt-mt323:qt-mt323.dll
 0002:00000240       __imp_?drawPixmap@QPainter@@QAEXABVQRect@@ABVQPixmap@@@Z 10007240     qt-mt323:qt-mt323.dll
 0002:00000244       __imp_?rect@QWidget@@QBE?AVQRect@@XZ 10007244     qt-mt323:qt-mt323.dll
 0002:00000248       __imp_??0QPainter@@QAE@PBVQPaintDevice@@_N@Z 10007248     qt-mt323:qt-mt323.dll
 0002:0000024c       __imp_??4QString@@QAEAAV0@PBD@Z 1000724c     qt-mt323:qt-mt323.dll
 0002:00000250       __imp_?update@QWidget@@QAEXXZ 10007250     qt-mt323:qt-mt323.dll
 0002:00000254       __imp_??YQString@@QAEAAV0@ABV0@@Z 10007254     qt-mt323:qt-mt323.dll
 0002:00000258       __imp_?arg@QString@@QBE?AV1@HHH@Z 10007258     qt-mt323:qt-mt323.dll
 0002:0000025c       __imp_?text@QLineEdit@@QBE?AVQString@@XZ 1000725c     qt-mt323:qt-mt323.dll
 0002:00000260       __imp_?exec@QDialog@@QAEHXZ 10007260     qt-mt323:qt-mt323.dll
 0002:00000264       __imp_?name@QObject@@QBEPBDXZ 10007264     qt-mt323:qt-mt323.dll
 0002:00000268       __imp_??1QStringList@@QAE@XZ 10007268     qt-mt323:qt-mt323.dll
 0002:0000026c       __imp_?append@?$QValueList@VQString@@@@QAE?AV?$QValueListIterator@VQString@@@@ABVQString@@@Z 1000726c     qt-mt323:qt-mt323.dll
 0002:00000270       __imp_??0?$QValueList@VQString@@@@QAE@XZ 10007270     qt-mt323:qt-mt323.dll
 0002:00000274       __imp_??8@YA_NABVQString@@PBD@Z 10007274     qt-mt323:qt-mt323.dll
 0002:00000278       __imp_?null@QString@@2V1@A 10007278     qt-mt323:qt-mt323.dll
 0002:0000027c       __imp_??0QIconSet@@QAE@XZ  1000727c     qt-mt323:qt-mt323.dll
 0002:00000280       __imp_??0QIconSet@@QAE@ABVQPixmap@@W4Size@0@@Z 10007280     qt-mt323:qt-mt323.dll
 0002:00000284       __imp_?setName@QObject@@UAEXPBD@Z 10007284     qt-mt323:qt-mt323.dll
 0002:00000288       __imp_?event@QObject@@UAE_NPAVQEvent@@@Z 10007288     qt-mt323:qt-mt323.dll
 0002:0000028c       __imp_?qt_property@QWidgetPlugin@@UAE_NHHPAVQVariant@@@Z 1000728c     qt-mt323:qt-mt323.dll
 0002:00000290       __imp_?qt_emit@QWidgetPlugin@@UAE_NHPAUQUObject@@@Z 10007290     qt-mt323:qt-mt323.dll
 0002:00000294       __imp_?qt_invoke@QWidgetPlugin@@UAE_NHPAUQUObject@@@Z 10007294     qt-mt323:qt-mt323.dll
 0002:00000298       __imp_?qt_cast@QWidgetPlugin@@UAEPAXPBD@Z 10007298     qt-mt323:qt-mt323.dll
 0002:0000029c       __imp_?className@QWidgetPlugin@@UBEPBDXZ 1000729c     qt-mt323:qt-mt323.dll
 0002:000002a0       __imp_?metaObject@QWidgetPlugin@@UBEPAVQMetaObject@@XZ 100072a0     qt-mt323:qt-mt323.dll
 0002:000002a4       __imp_?iface@QGPlugin@@QAEPAUQUnknownInterface@@XZ 100072a4     qt-mt323:qt-mt323.dll
 0002:000002a8       __imp_??0QWidgetPlugin@@QAE@XZ 100072a8     qt-mt323:qt-mt323.dll
 0002:000002ac       __imp_??1QWidgetPlugin@@UAE@XZ 100072ac     qt-mt323:qt-mt323.dll
 0002:000002b0       __imp_?drawContents@QFrame@@MAEXPAVQPainter@@@Z 100072b0     qt-mt323:qt-mt323.dll
 0002:000002b4       __imp_?resizeEvent@QFrame@@MAEXPAVQResizeEvent@@@Z 100072b4     qt-mt323:qt-mt323.dll
 0002:000002b8       __imp_?sizeHint@QFrame@@UBE?AVQSize@@XZ 100072b8     qt-mt323:qt-mt323.dll
 0002:000002bc       __imp_?qt_property@QFrame@@UAE_NHHPAVQVariant@@@Z 100072bc     qt-mt323:qt-mt323.dll
 0002:000002c0       __imp_?qt_emit@QFrame@@UAE_NHPAUQUObject@@@Z 100072c0     qt-mt323:qt-mt323.dll
 0002:000002c4       __imp_?qt_invoke@QFrame@@UAE_NHPAUQUObject@@@Z 100072c4     qt-mt323:qt-mt323.dll
 0002:000002c8       __imp_?qt_cast@QFrame@@UAEPAXPBD@Z 100072c8     qt-mt323:qt-mt323.dll
 0002:000002cc       __imp_?className@QFrame@@UBEPBDXZ 100072cc     qt-mt323:qt-mt323.dll
 0002:000002d0       __imp_?metaObject@QFrame@@UBEPAVQMetaObject@@XZ 100072d0     qt-mt323:qt-mt323.dll
 0002:000002d4       __imp_?createPopupMenu@QLineEdit@@MAEPAVQPopupMenu@@XZ 100072d4     qt-mt323:qt-mt323.dll
 0002:000002d8       __imp_?setDragEnabled@QLineEdit@@UAEX_N@Z 100072d8     qt-mt323:qt-mt323.dll
 0002:000002dc       __imp_?paste@QLineEdit@@UAEXXZ 100072dc     qt-mt323:qt-mt323.dll
 0002:000002e0       __imp_?copy@QLineEdit@@UBEXXZ 100072e0     qt-mt323:qt-mt323.dll
 0002:000002e4       __imp_?cut@QLineEdit@@UAEXXZ 100072e4     qt-mt323:qt-mt323.dll
 0002:000002e8       __imp_?setAlignment@QLineEdit@@UAEXH@Z 100072e8     qt-mt323:qt-mt323.dll
 0002:000002ec       __imp_?setCursorPosition@QLineEdit@@UAEXH@Z 100072ec     qt-mt323:qt-mt323.dll
 0002:000002f0       __imp_?setSelection@QLineEdit@@UAEXHH@Z 100072f0     qt-mt323:qt-mt323.dll
 0002:000002f4       __imp_?setValidator@QLineEdit@@UAEXPBVQValidator@@@Z 100072f4     qt-mt323:qt-mt323.dll
 0002:000002f8       __imp_?setReadOnly@QLineEdit@@UAEX_N@Z 100072f8     qt-mt323:qt-mt323.dll
 0002:000002fc       __imp_?setEchoMode@QLineEdit@@UAEXW4EchoMode@1@@Z 100072fc     qt-mt323:qt-mt323.dll
 0002:00000300       __imp_?setFrame@QLineEdit@@UAEX_N@Z 10007300     qt-mt323:qt-mt323.dll
 0002:00000304       __imp_?setMaxLength@QLineEdit@@UAEXH@Z 10007304     qt-mt323:qt-mt323.dll
 0002:00000308       __imp_?redo@QLineEdit@@UAEXXZ 10007308     qt-mt323:qt-mt323.dll
 0002:0000030c       __imp_?undo@QLineEdit@@UAEXXZ 1000730c     qt-mt323:qt-mt323.dll
 0002:00000310       __imp_?clear@QLineEdit@@UAEXXZ 10007310     qt-mt323:qt-mt323.dll
 0002:00000314       __imp_?insert@QLineEdit@@UAEXABVQString@@@Z 10007314     qt-mt323:qt-mt323.dll
 0002:00000318       __imp_?clearValidator@QLineEdit@@UAEXXZ 10007318     qt-mt323:qt-mt323.dll
 0002:0000031c       __imp_?deselect@QLineEdit@@UAEXXZ 1000731c     qt-mt323:qt-mt323.dll
 0002:00000320       __imp_?selectAll@QLineEdit@@UAEXXZ 10007320     qt-mt323:qt-mt323.dll
 0002:00000324       __imp_?setText@QLineEdit@@UAEXABVQString@@@Z 10007324     qt-mt323:qt-mt323.dll
 0002:00000328       __imp_?drawContents@QLineEdit@@MAEXPAVQPainter@@@Z 10007328     qt-mt323:qt-mt323.dll
 0002:0000032c       __imp_?windowActivationChange@QLineEdit@@MAEX_N@Z 1000732c     qt-mt323:qt-mt323.dll
 0002:00000330       __imp_?dropEvent@QLineEdit@@MAEXPAVQDropEvent@@@Z 10007330     qt-mt323:qt-mt323.dll
 0002:00000334       __imp_?dragLeaveEvent@QLineEdit@@MAEXPAVQDragLeaveEvent@@@Z 10007334     qt-mt323:qt-mt323.dll
 0002:00000338       __imp_?dragMoveEvent@QLineEdit@@MAEXPAVQDragMoveEvent@@@Z 10007338     qt-mt323:qt-mt323.dll
 0002:0000033c       __imp_?dragEnterEvent@QLineEdit@@MAEXPAVQDragEnterEvent@@@Z 1000733c     qt-mt323:qt-mt323.dll
 0002:00000340       __imp_?imEndEvent@QLineEdit@@MAEXPAVQIMEvent@@@Z 10007340     qt-mt323:qt-mt323.dll
 0002:00000344       __imp_?imComposeEvent@QLineEdit@@MAEXPAVQIMEvent@@@Z 10007344     qt-mt323:qt-mt323.dll
 0002:00000348       __imp_?imStartEvent@QLineEdit@@MAEXPAVQIMEvent@@@Z 10007348     qt-mt323:qt-mt323.dll
 0002:0000034c       __imp_?contextMenuEvent@QLineEdit@@MAEXPAVQContextMenuEvent@@@Z 1000734c     qt-mt323:qt-mt323.dll
 0002:00000350       __imp_?resizeEvent@QLineEdit@@MAEXPAVQResizeEvent@@@Z 10007350     qt-mt323:qt-mt323.dll
 0002:00000354       __imp_?focusOutEvent@QLineEdit@@MAEXPAVQFocusEvent@@@Z 10007354     qt-mt323:qt-mt323.dll
 0002:00000358       __imp_?focusInEvent@QLineEdit@@MAEXPAVQFocusEvent@@@Z 10007358     qt-mt323:qt-mt323.dll
 0002:0000035c       __imp_?keyPressEvent@QLineEdit@@MAEXPAVQKeyEvent@@@Z 1000735c     qt-mt323:qt-mt323.dll
 0002:00000360       __imp_?mouseMoveEvent@QLineEdit@@MAEXPAVQMouseEvent@@@Z 10007360     qt-mt323:qt-mt323.dll
 0002:00000364       __imp_?mouseDoubleClickEvent@QLineEdit@@MAEXPAVQMouseEvent@@@Z 10007364     qt-mt323:qt-mt323.dll
 0002:00000368       __imp_?mouseReleaseEvent@QLineEdit@@MAEXPAVQMouseEvent@@@Z 10007368     qt-mt323:qt-mt323.dll
 0002:0000036c       __imp_?mousePressEvent@QLineEdit@@MAEXPAVQMouseEvent@@@Z 1000736c     qt-mt323:qt-mt323.dll
 0002:00000370       __imp_?minimumSizeHint@QLineEdit@@UBE?AVQSize@@XZ 10007370     qt-mt323:qt-mt323.dll
 0002:00000374       __imp_?sizeHint@QLineEdit@@UBE?AVQSize@@XZ 10007374     qt-mt323:qt-mt323.dll
 0002:00000378       __imp_?setFont@QLineEdit@@UAEXABVQFont@@@Z 10007378     qt-mt323:qt-mt323.dll
 0002:0000037c       __imp_?setPalette@QLineEdit@@UAEXABVQPalette@@@Z 1000737c     qt-mt323:qt-mt323.dll
 0002:00000380       __imp_?event@QLineEdit@@MAE_NPAVQEvent@@@Z 10007380     qt-mt323:qt-mt323.dll
 0002:00000384       __imp_?qt_property@QLineEdit@@UAE_NHHPAVQVariant@@@Z 10007384     qt-mt323:qt-mt323.dll
 0002:00000388       __imp_?qt_emit@QLineEdit@@UAE_NHPAUQUObject@@@Z 10007388     qt-mt323:qt-mt323.dll
 0002:0000038c       __imp_?qt_invoke@QLineEdit@@UAE_NHPAUQUObject@@@Z 1000738c     qt-mt323:qt-mt323.dll
 0002:00000390       __imp_?qt_cast@QLineEdit@@UAEPAXPBD@Z 10007390     qt-mt323:qt-mt323.dll
 0002:00000394       __imp_?className@QLineEdit@@UBEPBDXZ 10007394     qt-mt323:qt-mt323.dll
 0002:00000398       __imp_?metaObject@QLineEdit@@UBEPAVQMetaObject@@XZ 10007398     qt-mt323:qt-mt323.dll
 0002:0000039c       __imp_?setNum@QLabel@@UAEXH@Z 1000739c     qt-mt323:qt-mt323.dll
 0002:000003a0       __imp_?setNum@QLabel@@UAEXN@Z 100073a0     qt-mt323:qt-mt323.dll
 0002:000003a4       __imp_?setMovie@QLabel@@UAEXABVQMovie@@@Z 100073a4     qt-mt323:qt-mt323.dll
 0002:000003a8       __imp_?setPicture@QLabel@@UAEXABVQPicture@@@Z 100073a8     qt-mt323:qt-mt323.dll
 0002:000003ac       __imp_?setPixmap@QLabel@@UAEXABVQPixmap@@@Z 100073ac     qt-mt323:qt-mt323.dll
 0002:000003b0       __imp_?setText@QLabel@@UAEXABVQString@@@Z 100073b0     qt-mt323:qt-mt323.dll
 0002:000003b4       __imp_?setBuddy@QLabel@@UAEXPAVQWidget@@@Z 100073b4     qt-mt323:qt-mt323.dll
 0002:000003b8       __imp_?setAutoResize@QLabel@@UAEX_N@Z 100073b8     qt-mt323:qt-mt323.dll
 0002:000003bc       __imp_?setAlignment@QLabel@@UAEXH@Z 100073bc     qt-mt323:qt-mt323.dll
 0002:000003c0       __imp_?frameChanged@QFrame@@MAEXXZ 100073c0     qt-mt323:qt-mt323.dll
 0002:000003c4       __imp_?drawContents@QLabel@@MAEXPAVQPainter@@@Z 100073c4     qt-mt323:qt-mt323.dll
 0002:000003c8       __imp_?drawFrame@QFrame@@MAEXPAVQPainter@@@Z 100073c8     qt-mt323:qt-mt323.dll
 0002:000003cc       __imp_?setFrameRect@QFrame@@UAEXABVQRect@@@Z 100073cc     qt-mt323:qt-mt323.dll
 0002:000003d0       __imp_?setMidLineWidth@QFrame@@UAEXH@Z 100073d0     qt-mt323:qt-mt323.dll
 0002:000003d4       __imp_?setPaletteBackgroundColor@QWidget@@UAEXABVQColor@@@Z 100073d4     qt-mt323:qt-mt323.dll
 0002:000003d8       __imp_?setLineWidth@QFrame@@UAEXH@Z 100073d8     qt-mt323:qt-mt323.dll
 0002:000003dc       __imp_?setFrameStyle@QFrame@@UAEXH@Z 100073dc     qt-mt323:qt-mt323.dll
 0002:000003e0       __imp_?fontChange@QLabel@@MAEXABVQFont@@@Z 100073e0     qt-mt323:qt-mt323.dll
 0002:000003e4       __imp_?styleChange@QFrame@@MAEXAAVQStyle@@@Z 100073e4     qt-mt323:qt-mt323.dll
 0002:000003e8       __imp_?resizeEvent@QLabel@@MAEXPAVQResizeEvent@@@Z 100073e8     qt-mt323:qt-mt323.dll
 0002:000003ec       __imp_?paintEvent@QFrame@@MAEXPAVQPaintEvent@@@Z 100073ec     qt-mt323:qt-mt323.dll
 0002:000003f0       __imp_?heightForWidth@QLabel@@UBEHH@Z 100073f0     qt-mt323:qt-mt323.dll
 0002:000003f4       __imp_?minimumSizeHint@QLabel@@UBE?AVQSize@@XZ 100073f4     qt-mt323:qt-mt323.dll
 0002:000003f8       __imp_?sizeHint@QLabel@@UBE?AVQSize@@XZ 100073f8     qt-mt323:qt-mt323.dll
 0002:000003fc       __imp_?setFont@QLabel@@UAEXABVQFont@@@Z 100073fc     qt-mt323:qt-mt323.dll
 0002:00000400       __imp_?qt_property@QLabel@@UAE_NHHPAVQVariant@@@Z 10007400     qt-mt323:qt-mt323.dll
 0002:00000404       __imp_?qt_emit@QLabel@@UAE_NHPAUQUObject@@@Z 10007404     qt-mt323:qt-mt323.dll
 0002:00000408       __imp_?qt_invoke@QLabel@@UAE_NHPAUQUObject@@@Z 10007408     qt-mt323:qt-mt323.dll
 0002:0000040c       __imp_?qt_cast@QLabel@@UAEPAXPBD@Z 1000740c     qt-mt323:qt-mt323.dll
 0002:00000410       __imp_?className@QLabel@@UBEPBDXZ 10007410     qt-mt323:qt-mt323.dll
 0002:00000414       __imp_?metaObject@QLabel@@UBEPAVQMetaObject@@XZ 10007414     qt-mt323:qt-mt323.dll
 0002:00000418       __imp_?qt_property@QHBoxLayout@@UAE_NHHPAVQVariant@@@Z 10007418     qt-mt323:qt-mt323.dll
 0002:0000041c       __imp_?qt_emit@QHBoxLayout@@UAE_NHPAUQUObject@@@Z 1000741c     qt-mt323:qt-mt323.dll
 0002:00000420       __imp_?qt_invoke@QHBoxLayout@@UAE_NHPAUQUObject@@@Z 10007420     qt-mt323:qt-mt323.dll
 0002:00000424       __imp_?qt_cast@QHBoxLayout@@UAEPAXPBD@Z 10007424     qt-mt323:qt-mt323.dll
 0002:00000428       __imp_?className@QHBoxLayout@@UBEPBDXZ 10007428     qt-mt323:qt-mt323.dll
 0002:0000042c       __imp_?metaObject@QHBoxLayout@@UBEPAVQMetaObject@@XZ 1000742c     qt-mt323:qt-mt323.dll
 0002:00000430       __imp_?spacerItem@QLayoutItem@@UAEPAVQSpacerItem@@XZ 10007430     qt-mt323:qt-mt323.dll
 0002:00000434       __imp_?layout@QLayout@@UAEPAV1@XZ 10007434     qt-mt323:qt-mt323.dll
 0002:00000438       __imp_?iterator@QBoxLayout@@UAE?AVQLayoutIterator@@XZ 10007438     qt-mt323:qt-mt323.dll
 0002:0000043c       __imp_?invalidate@QBoxLayout@@UAEXXZ 1000743c     qt-mt323:qt-mt323.dll
 0002:00000440       __imp_?heightForWidth@QBoxLayout@@UBEHH@Z 10007440     qt-mt323:qt-mt323.dll
 0002:00000444       __imp_?hasHeightForWidth@QBoxLayout@@UBE_NXZ 10007444     qt-mt323:qt-mt323.dll
 0002:00000448       __imp_?isEmpty@QLayout@@UBE_NXZ 10007448     qt-mt323:qt-mt323.dll
 0002:0000044c       __imp_?geometry@QLayout@@UBE?AVQRect@@XZ 1000744c     qt-mt323:qt-mt323.dll
 0002:00000450       __imp_?setGeometry@QBoxLayout@@UAEXABVQRect@@@Z 10007450     qt-mt323:qt-mt323.dll
 0002:00000454       __imp_?expanding@QBoxLayout@@UBE?AW4ExpandData@QSizePolicy@@XZ 10007454     qt-mt323:qt-mt323.dll
 0002:00000458       __imp_?maximumSize@QBoxLayout@@UBE?AVQSize@@XZ 10007458     qt-mt323:qt-mt323.dll
 0002:0000045c       __imp_?minimumSize@QBoxLayout@@UBE?AVQSize@@XZ 1000745c     qt-mt323:qt-mt323.dll
 0002:00000460       __imp_?sizeHint@QBoxLayout@@UBE?AVQSize@@XZ 10007460     qt-mt323:qt-mt323.dll
 0002:00000464       __imp_?addItem@QBoxLayout@@UAEXPAVQLayoutItem@@@Z 10007464     qt-mt323:qt-mt323.dll
 0002:00000468       __imp_?setAutoAdd@QLayout@@UAEX_N@Z 10007468     qt-mt323:qt-mt323.dll
 0002:0000046c       __imp_?setMenuBar@QLayout@@UAEXPAVQMenuBar@@@Z 1000746c     qt-mt323:qt-mt323.dll
 0002:00000470       __imp_?setSpacing@QLayout@@UAEXH@Z 10007470     qt-mt323:qt-mt323.dll
 0002:00000474       __imp_?setMargin@QLayout@@UAEXH@Z 10007474     qt-mt323:qt-mt323.dll
 0002:00000478       __imp_?childEvent@QLayout@@MAEXPAVQChildEvent@@@Z 10007478     qt-mt323:qt-mt323.dll
 0002:0000047c       __imp_?eventFilter@QLayout@@MAE_NPAVQObject@@PAVQEvent@@@Z 1000747c     qt-mt323:qt-mt323.dll
 0002:00000480       __imp_?qt_property@QVBoxLayout@@UAE_NHHPAVQVariant@@@Z 10007480     qt-mt323:qt-mt323.dll
 0002:00000484       __imp_?qt_emit@QVBoxLayout@@UAE_NHPAUQUObject@@@Z 10007484     qt-mt323:qt-mt323.dll
 0002:00000488       __imp_?qt_invoke@QVBoxLayout@@UAE_NHPAUQUObject@@@Z 10007488     qt-mt323:qt-mt323.dll
 0002:0000048c       __imp_?qt_cast@QVBoxLayout@@UAEPAXPBD@Z 1000748c     qt-mt323:qt-mt323.dll
 0002:00000490       __imp_?className@QVBoxLayout@@UBEPBDXZ 10007490     qt-mt323:qt-mt323.dll
 0002:00000494       __imp_?metaObject@QVBoxLayout@@UBEPAVQMetaObject@@XZ 10007494     qt-mt323:qt-mt323.dll
 0002:00000498       __imp_?setAlignment@QLayoutItem@@UAEXH@Z 10007498     qt-mt323:qt-mt323.dll
 0002:0000049c       __imp_?spacerItem@QSpacerItem@@UAEPAV1@XZ 1000749c     qt-mt323:qt-mt323.dll
 0002:000004a0       __imp_?layout@QLayoutItem@@UAEPAVQLayout@@XZ 100074a0     qt-mt323:qt-mt323.dll
 0002:000004a4       __imp_?iterator@QLayoutItem@@UAE?AVQLayoutIterator@@XZ 100074a4     qt-mt323:qt-mt323.dll
 0002:000004a8       __imp_?widget@QLayoutItem@@UAEPAVQWidget@@XZ 100074a8     qt-mt323:qt-mt323.dll
 0002:000004ac       __imp_?invalidate@QLayoutItem@@UAEXXZ 100074ac     qt-mt323:qt-mt323.dll
 0002:000004b0       __imp_?heightForWidth@QLayoutItem@@UBEHH@Z 100074b0     qt-mt323:qt-mt323.dll
 0002:000004b4       __imp_?hasHeightForWidth@QLayoutItem@@UBE_NXZ 100074b4     qt-mt323:qt-mt323.dll
 0002:000004b8       __imp_?isEmpty@QSpacerItem@@UBE_NXZ 100074b8     qt-mt323:qt-mt323.dll
 0002:000004bc       __imp_?geometry@QSpacerItem@@UBE?AVQRect@@XZ 100074bc     qt-mt323:qt-mt323.dll
 0002:000004c0       __imp_?setGeometry@QSpacerItem@@UAEXABVQRect@@@Z 100074c0     qt-mt323:qt-mt323.dll
 0002:000004c4       __imp_?expanding@QSpacerItem@@UBE?AW4ExpandData@QSizePolicy@@XZ 100074c4     qt-mt323:qt-mt323.dll
 0002:000004c8       __imp_?maximumSize@QSpacerItem@@UBE?AVQSize@@XZ 100074c8     qt-mt323:qt-mt323.dll
 0002:000004cc       __imp_?minimumSize@QSpacerItem@@UBE?AVQSize@@XZ 100074cc     qt-mt323:qt-mt323.dll
 0002:000004d0       __imp_?sizeHint@QSpacerItem@@UBE?AVQSize@@XZ 100074d0     qt-mt323:qt-mt323.dll
 0002:000004d4       __imp_?setOn@QPushButton@@UAEX_N@Z 100074d4     qt-mt323:qt-mt323.dll
 0002:000004d8       __imp_?setIsMenuButton@QPushButton@@UAEX_N@Z 100074d8     qt-mt323:qt-mt323.dll
 0002:000004dc       __imp_?setDefault@QPushButton@@UAEX_N@Z 100074dc     qt-mt323:qt-mt323.dll
 0002:000004e0       __imp_?setAutoDefault@QPushButton@@UAEX_N@Z 100074e0     qt-mt323:qt-mt323.dll
 0002:000004e4       __imp_?setGroup@QButton@@EAEXPAVQButtonGroup@@@Z 100074e4     qt-mt323:qt-mt323.dll
 0002:000004e8       __imp_?drawButtonLabel@QPushButton@@MAEXPAVQPainter@@@Z 100074e8     qt-mt323:qt-mt323.dll
 0002:000004ec       __imp_?drawButton@QPushButton@@MAEXPAVQPainter@@@Z 100074ec     qt-mt323:qt-mt323.dll
 0002:000004f0       __imp_?hitButton@QButton@@MBE_NABVQPoint@@@Z 100074f0     qt-mt323:qt-mt323.dll
 0002:000004f4       __imp_?setState@QButton@@MAEXW4ToggleState@1@@Z 100074f4     qt-mt323:qt-mt323.dll
 0002:000004f8       __imp_?setToggleType@QButton@@MAEXW4ToggleType@1@@Z 100074f8     qt-mt323:qt-mt323.dll
 0002:000004fc       __imp_?setAutoRepeat@QButton@@UAEX_N@Z 100074fc     qt-mt323:qt-mt323.dll
 0002:00000500       __imp_?setDown@QButton@@UAEX_N@Z 10007500     qt-mt323:qt-mt323.dll
 0002:00000504       __imp_?setAccel@QButton@@UAEXABVQKeySequence@@@Z 10007504     qt-mt323:qt-mt323.dll
 0002:00000508       __imp_?setPixmap@QButton@@UAEXABVQPixmap@@@Z 10007508     qt-mt323:qt-mt323.dll
 0002:0000050c       __imp_?setText@QButton@@UAEXABVQString@@@Z 1000750c     qt-mt323:qt-mt323.dll
 0002:00000510       __imp_?enabledChange@QButton@@MAEX_N@Z 10007510     qt-mt323:qt-mt323.dll
 0002:00000514       __imp_?updateMask@QPushButton@@MAEXXZ 10007514     qt-mt323:qt-mt323.dll
 0002:00000518       __imp_?resizeEvent@QPushButton@@MAEXPAVQResizeEvent@@@Z 10007518     qt-mt323:qt-mt323.dll
 0002:0000051c       __imp_?paintEvent@QButton@@MAEXPAVQPaintEvent@@@Z 1000751c     qt-mt323:qt-mt323.dll
 0002:00000520       __imp_?focusOutEvent@QPushButton@@MAEXPAVQFocusEvent@@@Z 10007520     qt-mt323:qt-mt323.dll
 0002:00000524       __imp_?focusInEvent@QPushButton@@MAEXPAVQFocusEvent@@@Z 10007524     qt-mt323:qt-mt323.dll
 0002:00000528       __imp_?keyReleaseEvent@QButton@@MAEXPAVQKeyEvent@@@Z 10007528     qt-mt323:qt-mt323.dll
 0002:0000052c       __imp_?keyPressEvent@QButton@@MAEXPAVQKeyEvent@@@Z 1000752c     qt-mt323:qt-mt323.dll
 0002:00000530       __imp_?mouseMoveEvent@QButton@@MAEXPAVQMouseEvent@@@Z 10007530     qt-mt323:qt-mt323.dll
 0002:00000534       __imp_?mouseReleaseEvent@QButton@@MAEXPAVQMouseEvent@@@Z 10007534     qt-mt323:qt-mt323.dll
 0002:00000538       __imp_?mousePressEvent@QButton@@MAEXPAVQMouseEvent@@@Z 10007538     qt-mt323:qt-mt323.dll
 0002:0000053c       __imp_?sizeHint@QPushButton@@UBE?AVQSize@@XZ 1000753c     qt-mt323:qt-mt323.dll
 0002:00000540       __imp_?setGeometry@QPushButton@@UAEXHHHH@Z 10007540     qt-mt323:qt-mt323.dll
 0002:00000544       __imp_?setGeometry@QPushButton@@UAEXABVQRect@@@Z 10007544     qt-mt323:qt-mt323.dll
 0002:00000548       __imp_?resize@QPushButton@@UAEXHH@Z 10007548     qt-mt323:qt-mt323.dll
 0002:0000054c       __imp_?move@QPushButton@@UAEXHH@Z 1000754c     qt-mt323:qt-mt323.dll
 0002:00000550       __imp_?qt_property@QPushButton@@UAE_NHHPAVQVariant@@@Z 10007550     qt-mt323:qt-mt323.dll
 0002:00000554       __imp_?qt_emit@QPushButton@@UAE_NHPAUQUObject@@@Z 10007554     qt-mt323:qt-mt323.dll
 0002:00000558       __imp_?qt_invoke@QPushButton@@UAE_NHPAUQUObject@@@Z 10007558     qt-mt323:qt-mt323.dll
 0002:0000055c       __imp_?qt_cast@QPushButton@@UAEPAXPBD@Z 1000755c     qt-mt323:qt-mt323.dll
 0002:00000560       __imp_?className@QPushButton@@UBEPBDXZ 10007560     qt-mt323:qt-mt323.dll
 0002:00000564       __imp_?metaObject@QPushButton@@UBEPAVQMetaObject@@XZ 10007564     qt-mt323:qt-mt323.dll
 0002:00000568       __imp_??1QDialog@@UAE@XZ   10007568     qt-mt323:qt-mt323.dll
 0002:0000056c       __imp_?setTabOrder@QWidget@@SAXPAV1@0@Z 1000756c     qt-mt323:qt-mt323.dll
 0002:00000570       __imp_?resize@QDialog@@QAEXABVQSize@@@Z 10007570     qt-mt323:qt-mt323.dll
 0002:00000574       __imp_??0QPushButton@@QAE@PAVQWidget@@PBD@Z 10007574     qt-mt323:qt-mt323.dll
 0002:00000578       __imp_??0QFrame@@QAE@PAVQWidget@@PBDI@Z 10007578     qt-mt323:qt-mt323.dll
 0002:0000057c       __imp_?addLayout@QBoxLayout@@QAEXPAVQLayout@@H@Z 1000757c     qt-mt323:qt-mt323.dll
 0002:00000580       __imp_??0QLineEdit@@QAE@PAVQWidget@@PBD@Z 10007580     qt-mt323:qt-mt323.dll
 0002:00000584       __imp_?addWidget@QBoxLayout@@QAEXPAVQWidget@@HH@Z 10007584     qt-mt323:qt-mt323.dll
 0002:00000588       __imp_??0QLabel@@QAE@PAVQWidget@@PBDI@Z 10007588     qt-mt323:qt-mt323.dll
 0002:0000058c       __imp_??0QHBoxLayout@@QAE@PAVQWidget@@HHPBD@Z 1000758c     qt-mt323:qt-mt323.dll
 0002:00000590       __imp_??0QVBoxLayout@@QAE@PAVQWidget@@HHPBD@Z 10007590     qt-mt323:qt-mt323.dll
 0002:00000594       __imp_?setSizeGripEnabled@QDialog@@QAEX_N@Z 10007594     qt-mt323:qt-mt323.dll
 0002:00000598       __imp_??0QDialog@@QAE@PAVQWidget@@PBD_NI@Z 10007598     qt-mt323:qt-mt323.dll
 0002:0000059c       __imp_??1QSpacerItem@@UAE@XZ 1000759c     qt-mt323:qt-mt323.dll
 0002:000005a0       __imp_??1QVBoxLayout@@UAE@XZ 100075a0     qt-mt323:qt-mt323.dll
 0002:000005a4       __imp_??1QHBoxLayout@@UAE@XZ 100075a4     qt-mt323:qt-mt323.dll
 0002:000005a8       __imp_??1QLabel@@UAE@XZ    100075a8     qt-mt323:qt-mt323.dll
 0002:000005ac       __imp_??1QLineEdit@@UAE@XZ 100075ac     qt-mt323:qt-mt323.dll
 0002:000005b0       __imp_??1QFrame@@UAE@XZ    100075b0     qt-mt323:qt-mt323.dll
 0002:000005b4       __imp_??1QPushButton@@UAE@XZ 100075b4     qt-mt323:qt-mt323.dll
 0002:000005b8       __imp_??1QKeySequence@@QAE@XZ 100075b8     qt-mt323:qt-mt323.dll
 0002:000005bc       __imp_??0QKeySequence@@QAE@ABVQString@@@Z 100075bc     qt-mt323:qt-mt323.dll
 0002:000005c0       __imp_??0QMetaObjectCleanUp@@QAE@PBDP6APAVQMetaObject@@XZ@Z 100075c0     qt-mt323:qt-mt323.dll
 0002:000005c4       __imp_??1QMetaObjectCleanUp@@QAE@XZ 100075c4     qt-mt323:qt-mt323.dll
 0002:000005c8       __imp_?fromLatin1@QString@@SA?AV1@PBDH@Z 100075c8     qt-mt323:qt-mt323.dll
 0002:000005cc       __imp_?translate@QApplication@@QBE?AVQString@@PBD00W4Encoding@1@@Z 100075cc     qt-mt323:qt-mt323.dll
 0002:000005d0       __imp_?qApp@@3PAVQApplication@@A 100075d0     qt-mt323:qt-mt323.dll
 0002:000005d4       __imp_?fromUtf8@QString@@SA?AV1@PBDH@Z 100075d4     qt-mt323:qt-mt323.dll
 0002:000005d8       __imp_?setMetaObject@QMetaObjectCleanUp@@QAEXAAPAVQMetaObject@@@Z 100075d8     qt-mt323:qt-mt323.dll
 0002:000005dc       __imp_?new_metaobject@QMetaObject@@SAPAV1@PBDPAV1@QBUQMetaData@@H2HQBVQMetaProperty@@HQBUQMetaEnum@@HQBUQClassInfo@@H@Z 100075dc     qt-mt323:qt-mt323.dll
 0002:000005e0       __imp_?staticMetaObject@QDialog@@SAPAVQMetaObject@@XZ 100075e0     qt-mt323:qt-mt323.dll
 0002:000005e4       __imp_?qt_cast@QDialog@@UAEPAXPBD@Z 100075e4     qt-mt323:qt-mt323.dll
 0002:000005e8       __imp_?qt_invoke@QDialog@@UAE_NHPAUQUObject@@@Z 100075e8     qt-mt323:qt-mt323.dll
 0002:000005ec       __imp_?qt_emit@QDialog@@UAE_NHPAUQUObject@@@Z 100075ec     qt-mt323:qt-mt323.dll
 0002:000005f0       __imp_?qt_property@QDialog@@UAE_NHHPAVQVariant@@@Z 100075f0     qt-mt323:qt-mt323.dll
 0002:000005f4       __imp_?static_QUType_QString@@3UQUType_QString@@A 100075f4     qt-mt323:qt-mt323.dll
 0002:000005f8       __imp_?static_QUType_varptr@@3UQUType_varptr@@A 100075f8     qt-mt323:qt-mt323.dll
 0002:000005fc       __imp_?staticMetaObject@QWidget@@SAPAVQMetaObject@@XZ 100075fc     qt-mt323:qt-mt323.dll
 0002:00000600       __imp_?qt_cast@QWidget@@UAEPAXPBD@Z 10007600     qt-mt323:qt-mt323.dll
 0002:00000604       __imp_?activate_signal@QObject@@IAEXPAVQConnectionList@@PAUQUObject@@@Z 10007604     qt-mt323:qt-mt323.dll
 0002:00000608       __imp_?set@QUType_QString@@QAEXPAUQUObject@@ABVQString@@@Z 10007608     qt-mt323:qt-mt323.dll
 0002:0000060c       __imp_??0QUObject@@QAE@XZ  1000760c     qt-mt323:qt-mt323.dll
 0002:00000610       __imp_??1QUObject@@QAE@XZ  10007610     qt-mt323:qt-mt323.dll
 0002:00000614       __imp_?receivers@QObject@@IBEPAVQConnectionList@@H@Z 10007614     qt-mt323:qt-mt323.dll
 0002:00000618       __imp_?qt_invoke@QWidget@@UAE_NHPAUQUObject@@@Z 10007618     qt-mt323:qt-mt323.dll
 0002:0000061c       __imp_?qt_emit@QWidget@@UAE_NHPAUQUObject@@@Z 1000761c     qt-mt323:qt-mt323.dll
 0002:00000620       __imp_?qt_property@QWidget@@UAE_NHHPAVQVariant@@@Z 10007620     qt-mt323:qt-mt323.dll
 0002:00000624       __imp_?setPaletteBackgroundPixmap@QWidget@@UAEXABVQPixmap@@@Z 10007624     qt-mt323:qt-mt323.dll
 0002:00000628       __imp_?setFont@QWidget@@UAEXABVQFont@@@Z 10007628     qt-mt323:qt-mt323.dll
 0002:0000062c       __imp_?setCursor@QWidget@@UAEXABVQCursor@@@Z 1000762c     qt-mt323:qt-mt323.dll
 0002:00000630       __imp_?unsetCursor@QWidget@@UAEXXZ 10007630     qt-mt323:qt-mt323.dll
 0002:00000634       __imp_?setMask@QWidget@@UAEXABVQRegion@@@Z 10007634     qt-mt323:qt-mt323.dll
 0002:00000638       __imp_?setMask@QWidget@@UAEXABVQBitmap@@@Z 10007638     qt-mt323:qt-mt323.dll
 0002:0000063c       __imp_?setBackgroundColor@QWidget@@UAEXABVQColor@@@Z 1000763c     qt-mt323:qt-mt323.dll
 0002:00000640       __imp_?setBackgroundPixmap@QWidget@@UAEXABVQPixmap@@@Z 10007640     qt-mt323:qt-mt323.dll
 0002:00000644       __imp_?setCaption@QWidget@@UAEXABVQString@@@Z 10007644     qt-mt323:qt-mt323.dll
 0002:00000648       __imp_?setIcon@QWidget@@UAEXABVQPixmap@@@Z 10007648     qt-mt323:qt-mt323.dll
 0002:0000064c       __imp_?setIconText@QWidget@@UAEXABVQString@@@Z 1000764c     qt-mt323:qt-mt323.dll
 0002:00000650       __imp_?setMouseTracking@QWidget@@UAEX_N@Z 10007650     qt-mt323:qt-mt323.dll
 0002:00000654       __imp_?setFocus@QWidget@@UAEXXZ 10007654     qt-mt323:qt-mt323.dll
 0002:00000658       __imp_?setActiveWindow@QWidget@@UAEXXZ 10007658     qt-mt323:qt-mt323.dll
 0002:0000065c       __imp_?setFocusPolicy@QWidget@@UAEXW4FocusPolicy@1@@Z 1000765c     qt-mt323:qt-mt323.dll
 0002:00000660       __imp_?setFocusProxy@QWidget@@UAEXPAV1@@Z 10007660     qt-mt323:qt-mt323.dll
 0002:00000664       __imp_?setUpdatesEnabled@QWidget@@UAEX_N@Z 10007664     qt-mt323:qt-mt323.dll
 0002:00000668       __imp_?show@QDialog@@UAEXXZ 10007668     qt-mt323:qt-mt323.dll
 0002:0000066c       __imp_?hide@QDialog@@UAEXXZ 1000766c     qt-mt323:qt-mt323.dll
 0002:00000670       __imp_?showMinimized@QWidget@@UAEXXZ 10007670     qt-mt323:qt-mt323.dll
 0002:00000674       __imp_?showMaximized@QWidget@@UAEXXZ 10007674     qt-mt323:qt-mt323.dll
 0002:00000678       __imp_?showNormal@QWidget@@UAEXXZ 10007678     qt-mt323:qt-mt323.dll
 0002:0000067c       __imp_?polish@QWidget@@UAEXXZ 1000767c     qt-mt323:qt-mt323.dll
 0002:00000680       __imp_?close@QWidget@@UAE_N_N@Z 10007680     qt-mt323:qt-mt323.dll
 0002:00000684       __imp_?move@QDialog@@UAEXHH@Z 10007684     qt-mt323:qt-mt323.dll
 0002:00000688       __imp_?resize@QDialog@@UAEXHH@Z 10007688     qt-mt323:qt-mt323.dll
 0002:0000068c       __imp_?setGeometry@QDialog@@UAEXABVQRect@@@Z 1000768c     qt-mt323:qt-mt323.dll
 0002:00000690       __imp_?setGeometry@QDialog@@UAEXHHHH@Z 10007690     qt-mt323:qt-mt323.dll
 0002:00000694       __imp_?sizeHint@QDialog@@UBE?AVQSize@@XZ 10007694     qt-mt323:qt-mt323.dll
 0002:00000698       __imp_?minimumSizeHint@QDialog@@UBE?AVQSize@@XZ 10007698     qt-mt323:qt-mt323.dll
 0002:0000069c       __imp_?sizePolicy@QWidget@@UBE?AVQSizePolicy@@XZ 1000769c     qt-mt323:qt-mt323.dll
 0002:000006a0       __imp_?setSizePolicy@QWidget@@UAEXVQSizePolicy@@@Z 100076a0     qt-mt323:qt-mt323.dll
 0002:000006a4       __imp_?heightForWidth@QWidget@@UBEHH@Z 100076a4     qt-mt323:qt-mt323.dll
 0002:000006a8       __imp_?adjustSize@QWidget@@UAEXXZ 100076a8     qt-mt323:qt-mt323.dll
 0002:000006ac       __imp_?reparent@QWidget@@UAEXPAV1@IABVQPoint@@_N@Z 100076ac     qt-mt323:qt-mt323.dll
 0002:000006b0       __imp_?setAcceptDrops@QWidget@@UAEX_N@Z 100076b0     qt-mt323:qt-mt323.dll
 0002:000006b4       __imp_?setAutoMask@QWidget@@UAEX_N@Z 100076b4     qt-mt323:qt-mt323.dll
 0002:000006b8       __imp_?setBackgroundOrigin@QWidget@@UAEXW4BackgroundOrigin@1@@Z 100076b8     qt-mt323:qt-mt323.dll
 0002:000006bc       __imp_?customWhatsThis@QWidget@@UBE_NXZ 100076bc     qt-mt323:qt-mt323.dll
 0002:000006c0       __imp_?mousePressEvent@QWidget@@MAEXPAVQMouseEvent@@@Z 100076c0     qt-mt323:qt-mt323.dll
 0002:000006c4       __imp_?mouseReleaseEvent@QWidget@@MAEXPAVQMouseEvent@@@Z 100076c4     qt-mt323:qt-mt323.dll
 0002:000006c8       __imp_?mouseDoubleClickEvent@QWidget@@MAEXPAVQMouseEvent@@@Z 100076c8     qt-mt323:qt-mt323.dll
 0002:000006cc       __imp_?mouseMoveEvent@QWidget@@MAEXPAVQMouseEvent@@@Z 100076cc     qt-mt323:qt-mt323.dll
 0002:000006d0       __imp_?wheelEvent@QWidget@@MAEXPAVQWheelEvent@@@Z 100076d0     qt-mt323:qt-mt323.dll
 0002:000006d4       __imp_?keyPressEvent@QDialog@@MAEXPAVQKeyEvent@@@Z 100076d4     qt-mt323:qt-mt323.dll
 0002:000006d8       __imp_?keyReleaseEvent@QWidget@@MAEXPAVQKeyEvent@@@Z 100076d8     qt-mt323:qt-mt323.dll
 0002:000006dc       __imp_?focusInEvent@QWidget@@MAEXPAVQFocusEvent@@@Z 100076dc     qt-mt323:qt-mt323.dll
 0002:000006e0       __imp_?focusOutEvent@QWidget@@MAEXPAVQFocusEvent@@@Z 100076e0     qt-mt323:qt-mt323.dll
 0002:000006e4       __imp_?enterEvent@QWidget@@MAEXPAVQEvent@@@Z 100076e4     qt-mt323:qt-mt323.dll
 0002:000006e8       __imp_?leaveEvent@QWidget@@MAEXPAVQEvent@@@Z 100076e8     qt-mt323:qt-mt323.dll
 0002:000006ec       __imp_?paintEvent@QWidget@@MAEXPAVQPaintEvent@@@Z 100076ec     qt-mt323:qt-mt323.dll
 0002:000006f0       __imp_?moveEvent@QWidget@@MAEXPAVQMoveEvent@@@Z 100076f0     qt-mt323:qt-mt323.dll
 0002:000006f4       __imp_?resizeEvent@QDialog@@MAEXPAVQResizeEvent@@@Z 100076f4     qt-mt323:qt-mt323.dll
 0002:000006f8       __imp_?closeEvent@QDialog@@MAEXPAVQCloseEvent@@@Z 100076f8     qt-mt323:qt-mt323.dll
 0002:000006fc       __imp_?contextMenuEvent@QDialog@@MAEXPAVQContextMenuEvent@@@Z 100076fc     qt-mt323:qt-mt323.dll
 0002:00000700       __imp_?imStartEvent@QWidget@@MAEXPAVQIMEvent@@@Z 10007700     qt-mt323:qt-mt323.dll
 0002:00000704       __imp_?imComposeEvent@QWidget@@MAEXPAVQIMEvent@@@Z 10007704     qt-mt323:qt-mt323.dll
 0002:00000708       __imp_?imEndEvent@QWidget@@MAEXPAVQIMEvent@@@Z 10007708     qt-mt323:qt-mt323.dll
 0002:0000070c       __imp_?tabletEvent@QWidget@@MAEXPAVQTabletEvent@@@Z 1000770c     qt-mt323:qt-mt323.dll
 0002:00000710       __imp_?dragEnterEvent@QWidget@@MAEXPAVQDragEnterEvent@@@Z 10007710     qt-mt323:qt-mt323.dll
 0002:00000714       __imp_?dragMoveEvent@QWidget@@MAEXPAVQDragMoveEvent@@@Z 10007714     qt-mt323:qt-mt323.dll
 0002:00000718       __imp_?dragLeaveEvent@QWidget@@MAEXPAVQDragLeaveEvent@@@Z 10007718     qt-mt323:qt-mt323.dll
 0002:0000071c       __imp_?dropEvent@QWidget@@MAEXPAVQDropEvent@@@Z 1000771c     qt-mt323:qt-mt323.dll
 0002:00000720       __imp_?showEvent@QWidget@@MAEXPAVQShowEvent@@@Z 10007720     qt-mt323:qt-mt323.dll
 0002:00000724       __imp_?hideEvent@QWidget@@MAEXPAVQHideEvent@@@Z 10007724     qt-mt323:qt-mt323.dll
 0002:00000728       __imp_?winEvent@QWidget@@MAE_NPAUtagMSG@@@Z 10007728     qt-mt323:qt-mt323.dll
 0002:0000072c       __imp_?updateMask@QWidget@@MAEXXZ 1000772c     qt-mt323:qt-mt323.dll
 0002:00000730       __imp_?styleChange@QWidget@@MAEXAAVQStyle@@@Z 10007730     qt-mt323:qt-mt323.dll
 0002:00000734       __imp_?enabledChange@QWidget@@MAEX_N@Z 10007734     qt-mt323:qt-mt323.dll
 0002:00000738       __imp_?paletteChange@QWidget@@MAEXABVQPalette@@@Z 10007738     qt-mt323:qt-mt323.dll
 0002:0000073c       __imp_?fontChange@QWidget@@MAEXABVQFont@@@Z 1000773c     qt-mt323:qt-mt323.dll
 0002:00000740       __imp_?windowActivationChange@QWidget@@MAEX_N@Z 10007740     qt-mt323:qt-mt323.dll
 0002:00000744       __imp_?create@QWidget@@MAEXPAUHWND__@@_N1@Z 10007744     qt-mt323:qt-mt323.dll
 0002:00000748       __imp_?destroy@QWidget@@MAEX_N0@Z 10007748     qt-mt323:qt-mt323.dll
 0002:0000074c       __imp_?setWState@QWidget@@MAEXI@Z 1000774c     qt-mt323:qt-mt323.dll
 0002:00000750       __imp_?setWFlags@QWidget@@MAEXI@Z 10007750     qt-mt323:qt-mt323.dll
 0002:00000754       __imp_?focusNextPrevChild@QWidget@@MAE_N_N@Z 10007754     qt-mt323:qt-mt323.dll
 0002:00000758       __imp_?setKeyCompression@QWidget@@MAEX_N@Z 10007758     qt-mt323:qt-mt323.dll
 0002:0000075c       __imp_?setMicroFocusHint@QWidget@@MAEXHHHH_NPAVQFont@@@Z 1000775c     qt-mt323:qt-mt323.dll
 0002:00000760       __imp_?done@QDialog@@MAEXH@Z 10007760     qt-mt323:qt-mt323.dll
 0002:00000764       __imp_?accept@QDialog@@MAEXXZ 10007764     qt-mt323:qt-mt323.dll
 0002:00000768       __imp_?reject@QDialog@@MAEXXZ 10007768     qt-mt323:qt-mt323.dll
 0002:0000076c       __imp_?setResolution@QPaintDevice@@UAEXH@Z 1000776c     qt-mt323:qt-mt323.dll
 0002:00000770       __imp_?resolution@QPaintDevice@@UBEHXZ 10007770     qt-mt323:qt-mt323.dll
 0002:00000774       __imp_?handle@QPaintDevice@@UBEPAUHDC__@@XZ 10007774     qt-mt323:qt-mt323.dll
 0002:00000778       __imp_?cmd@QPaintDevice@@MAE_NHPAVQPainter@@PATQPDevCmdParam@@@Z 10007778     qt-mt323:qt-mt323.dll
 0002:0000077c       __imp_?metric@QWidget@@MBEHH@Z 1000777c     qt-mt323:qt-mt323.dll
 0002:00000780       __imp_?fontMet@QPaintDevice@@MBEHPAVQFont@@HPBDH@Z 10007780     qt-mt323:qt-mt323.dll
 0002:00000784       __imp_?fontInf@QPaintDevice@@MBEHPAVQFont@@H@Z 10007784     qt-mt323:qt-mt323.dll
 0002:00000788       __imp_?setMargin@QFrame@@UAEXH@Z 10007788     qt-mt323:qt-mt323.dll
 0002:0000078c       \177qt-mt323_NULL_THUNK_DATA 1000778c     qt-mt323:qt-mt323.dll
 0002:00000790       ??_7bncs_cc02_editImpl@@6BQPaintDevice@@@ 10007790     bncs_cc02_editimpl.obj
 0002:000007b0       ??_7bncs_cc02_editImpl@@6BQObject@@@ 100077b0     bncs_cc02_editimpl.obj
 0002:00000970       ??_7bncs_cc02_qt@@6BQPaintDevice@@@ 10007970     bncs_cc02_qt.obj
 0002:00000990       ??_7bncs_cc02_qt@@6BQObject@@@ 10007990     bncs_cc02_qt.obj
 0002:00000b40       ??_7signalConnectionRefList@@6B@ 10007b40     bncs_cc02_qt.obj
 0002:00000b60       ??_7?$QPtrList@VsignalConnection@@@@6B@ 10007b60     bncs_cc02_qt.obj
 0002:00000b80       ??_SQPixmap@@6B@           10007b80     bncs_cc02_qt.obj
 0002:00000ba4       ??_7BNCSWidgetPlugin@@6B@  10007ba4     plugin.obj
 0002:00002b98       ??_SQPushButton@@6BQPaintDevice@@@ 10009b98     bncs_cc02_edit.obj
 0002:00002bb8       ??_SQPushButton@@6BQObject@@@ 10009bb8     bncs_cc02_edit.obj
 0002:00002da4       ??_SQFrame@@6BQPaintDevice@@@ 10009da4     bncs_cc02_edit.obj
 0002:00002dc4       ??_SQFrame@@6BQObject@@@   10009dc4     bncs_cc02_edit.obj
 0002:00002f94       ??_SQSpacerItem@@6B@       10009f94     bncs_cc02_edit.obj
 0002:00002fd4       ??_SQLineEdit@@6BQPaintDevice@@@ 10009fd4     bncs_cc02_edit.obj
 0002:00002ff4       ??_SQLineEdit@@6BQObject@@@ 10009ff4     bncs_cc02_edit.obj
 0002:00003218       ??_SQLabel@@6BQPaintDevice@@@ 1000a218     bncs_cc02_edit.obj
 0002:00003238       ??_SQLabel@@6BQObject@@@   1000a238     bncs_cc02_edit.obj
 0002:0000342c       ??_SQHBoxLayout@@6BQLayoutItem@@@ 1000a42c     bncs_cc02_edit.obj
 0002:0000346c       ??_SQHBoxLayout@@6BQObject@@@ 1000a46c     bncs_cc02_edit.obj
 0002:000034d0       ??_SQVBoxLayout@@6BQLayoutItem@@@ 1000a4d0     bncs_cc02_edit.obj
 0002:00003510       ??_SQVBoxLayout@@6BQObject@@@ 1000a510     bncs_cc02_edit.obj
 0002:00003574       ??_7bncs_cc02_edit@@6BQPaintDevice@@@ 1000a574     bncs_cc02_edit.obj
 0002:00003594       ??_7bncs_cc02_edit@@6BQObject@@@ 1000a594     bncs_cc02_edit.obj
 0002:000037d4       __real@4@3ffcb2ca580000000000 1000a7d4     CC_COMPS.OBJ
 0002:000037d8       __real@8@bffef333333333333000 1000a7d8     CC_COMPS.OBJ
 0002:000037e0       __real@8@bffef5c28f5c28f5c000 1000a7e0     CC_COMPS.OBJ
 0002:000037e8       __real@4@3ffec923a30000000000 1000a7e8     CC_COMPS.OBJ
 0002:000037f0       __real@8@bffeee147ae147ae1800 1000a7f0     CC_COMPS.OBJ
 0002:000037f8       __real@4@4001c91eb80000000000 1000a7f8     CC_COMPS.OBJ
 0002:000037fc       __real@4@3fffc916870000000000 1000a7fc     CC_COMPS.OBJ
 0002:00003800       __real@8@3ffe8000000000000000 1000a800     CC_COMPS.OBJ
 0002:00003808       __real@8@bffee666666666666800 1000a808     CC_COMPS.OBJ
 0002:00003810       __real@8@bffe8000000000000000 1000a810     CC_COMPS.OBJ
 0002:00003818       __real@8@bffed999999999999800 1000a818     CC_COMPS.OBJ
 0002:00003820       __real@8@bffce147ae147ae14800 1000a820     CC_COMPS.OBJ
 0002:00003828       __real@4@3ff98efef40000000000 1000a828     CC_COMPS.OBJ
 0002:00003830       __real@8@4004e51856ccaec5a800 1000a830     CC_COMPS.OBJ
 0002:00003838       __real@4@3feea7c5ac0000000000 1000a838     CC_COMPS.OBJ
 0002:0000383c       __real@4@00000000000000000000 1000a83c     CC_COMPS.OBJ
 0002:00003840       __real@8@3ff98efef407d3f1f800 1000a840     CC_COMPS.OBJ
 0002:00003848       __real@4@3ffe8000000000000000 1000a848     CC_COMPS.OBJ
 0002:00004850       __real@8@3ffcccccccccccccd000 1000b850     CC_VTCLK.OBJ
 0002:00004858       __real@8@40019999999999999800 1000b858     CC_VTCLK.OBJ
 0002:00004860       __real@8@3ffbd6a161e4f7660000 1000b860     CC_VTCLK.OBJ
 0002:00004868       __real@8@40019b33333333333000 1000b868     CC_VTCLK.OBJ
 0002:00004870       __real@8@3ffe8624dd2f1a9fc000 1000b870     CC_VTCLK.OBJ
 0002:00004878       __real@8@3ffbd67e6e0bbdeaf800 1000b878     CC_VTCLK.OBJ
 0002:00004880       __real@4@4001a000000000000000 1000b880     CC_VTCLK.OBJ
 0002:00004ea0       __IMPORT_DESCRIPTOR_dcw    1000bea0     dcw:dcw.dll
 0002:00004eb4       __IMPORT_DESCRIPTOR_qt-mt323 1000beb4     qt-mt323:qt-mt323.dll
 0002:00004ec8       __IMPORT_DESCRIPTOR_KERNEL32 1000bec8     kernel32:KERNEL32.dll
 0002:00004edc       __IMPORT_DESCRIPTOR_USER32 1000bedc     user32:USER32.dll
 0002:00004ef0       __IMPORT_DESCRIPTOR_GDI32  1000bef0     gdi32:GDI32.dll
 0002:00004f04       __IMPORT_DESCRIPTOR_ADVAPI32 1000bf04     advapi32:ADVAPI32.dll
 0002:00004f18       __IMPORT_DESCRIPTOR_MSVCRT 1000bf18     MSVCRT:MSVCRT.dll
 0002:00004f2c       __NULL_IMPORT_DESCRIPTOR   1000bf2c     dcw:dcw.dll
 0003:00000000       ___xc_a                    10012000     MSVCRT:cinitexe.obj
 0003:00000010       ___xc_z                    10012010     MSVCRT:cinitexe.obj
 0003:00000014       ___xi_a                    10012014     MSVCRT:cinitexe.obj
 0003:00000018       ___xi_z                    10012018     MSVCRT:cinitexe.obj
 0003:00000020       ??_C@_0L@EHAF@2clicked?$CI?$CJ?$AA@ 10012020     bncs_cc02_editimpl.obj
 0003:0000002c       ??_C@_09MIBO@1doHelp?$CI?$CJ?$AA@ 1001202c     bncs_cc02_editimpl.obj
 0003:00000038       ??_C@_09IFOG@BNCS_CC02?$AA@ 10012038     bncs_cc02_editimpl.obj
 0003:00000044       ??_C@_0BI@LMDM@Can?8t?5open?5help?5file?3?5?6?$AA@ 10012044     bncs_cc02_editimpl.obj
 0003:0000005c       ??_C@_04BMBN@?$CF1?$CF2?$AA@ 1001205c     bncs_cc02_editimpl.obj
 0003:00000064       ??_C@_0CO@FDH@windows?2lib?2qt_plugins?2designer?2@ 10012064     bncs_cc02_editimpl.obj
 0003:00000094       ??_C@_06FHOB@?$CF1?2?$CF2?2?$AA@ 10012094     bncs_cc02_editimpl.obj
 0003:0000009c       ??_C@_07FCNI@CC_ROOT?$AA@  1001209c     bncs_cc02_editimpl.obj
 0003:000000a4       ??_C@_09EFEJ@CC_SYSTEM?$AA@ 100120a4     bncs_cc02_editimpl.obj
 0003:00000e10       ??_C@_0EHM@DCDF@?4?$CDaaaaaaaaaaaaaaaaaaaaaaaaaaaaaa@ 10012e10     bncs_cc02_qt.obj
 0003:0000128c       ??_C@_0EHM@GEGI@?4?$CDaaaaaaaaaaaaaaaaaaaaaaaaaaaaaa@ 1001328c     bncs_cc02_qt.obj
 0003:00001708       ??_C@_0EHM@MHNK@?4?$CDaaaaaaaaaaaaaaaaaaaaaaaaaaaaaa@ 10013708     bncs_cc02_qt.obj
 0003:00001b84       ??_C@_0EHM@EFDE@?4?$CDaaaaaaaaaaaaaaaaaaaaaaaaaaaaaa@ 10013b84     bncs_cc02_qt.obj
 0003:00002000       ??_C@_0EHM@GPMD@?4?$CDaaaaaaaaaaaaaaaaaaaaaaaaaaaaaa@ 10014000     bncs_cc02_qt.obj
 0003:0000247c       ??_C@_0EHM@FBDL@?4?$CDaaaaaaaaaaaaaaaaaaaaaaaaaaaaaa@ 1001447c     bncs_cc02_qt.obj
 0003:000028f8       ??_C@_0EHM@PGPO@?4?$CDaaaaaaaaaaaaaaaaaaaaaaaaaaaaaa@ 100148f8     bncs_cc02_qt.obj
 0003:00002d74       ??_C@_0EHM@JIJC@?4?$CDaaaaaaaaaaaaaaaaaaaaaaaaaaaaaa@ 10014d74     bncs_cc02_qt.obj
 0003:000031f0       ??_C@_0EHM@PFAE@?4?$CDaaaaaaaaaaaaaaaaaaaaaaaaaaaaaa@ 100151f0     bncs_cc02_qt.obj
 0003:0000366c       ??_C@_0EHM@LPAM@?4?$CDaaaaaaaaaaaaaaaaaaaaaaaaaaaaaa@ 1001566c     bncs_cc02_qt.obj
 0003:00003ae8       ??_C@_0EHM@BKOE@?4?$CDaaaaaaaaaaaaaaaaaaaaaaaaaaaaaa@ 10015ae8     bncs_cc02_qt.obj
 0003:00003f64       ??_C@_0EHM@PDPG@?4?$CDaaaaaaaaaaaaaaaaaaaaaaaaaaaaaa@ 10015f64     bncs_cc02_qt.obj
 0003:000043e0       ??_C@_0EHM@HAGJ@?4?$CDaaaaaaaaaaaaaaaaaaaaaaaaaaaaaa@ 100163e0     bncs_cc02_qt.obj
 0003:0000485c       ??_C@_0EHM@OENC@?4?$CDaaaaaaaaaaaaaaaaaaaaaaaaaaaaaa@ 1001685c     bncs_cc02_qt.obj
 0003:00004cd8       ??_C@_0EHM@IKEI@?4?$CDaaaaaaaaaaaaaaaaaaaaaaaaaaaaaa@ 10016cd8     bncs_cc02_qt.obj
 0003:00005154       ??_C@_0EHM@GAKP@?4?$CDaaaaaaaaaaaaaaaaaaaaaaaaaaaaaa@ 10017154     bncs_cc02_qt.obj
 0003:000055d0       ??_C@_0EHM@DIEN@?4?$CDaaaaaaaaaaaaaaaaaaaaaaaaaaaaaa@ 100175d0     bncs_cc02_qt.obj
 0003:00005a4c       ??_C@_0EHM@OPKN@?4?$CDaaaaaaaaaaaaaaaaaaaaaaaaaaaaaa@ 10017a4c     bncs_cc02_qt.obj
 0003:00005ec8       ??_C@_0EHM@CCED@?4?$CDaaaaaaaaaaaaaaaaaaaaaaaaaaaaaa@ 10017ec8     bncs_cc02_qt.obj
 0003:00006344       ??_C@_0EHM@EGOL@?4?$CDaaaaaaaaaaaaaaaaaaaaaaaaaaaaaa@ 10018344     bncs_cc02_qt.obj
 0003:000067c0       ??_C@_0EHM@CNOM@?4?$CDaaaaaaaaaaaaaaaaaaaaaaaaaaaaaa@ 100187c0     bncs_cc02_qt.obj
 0003:00006c3c       ??_C@_0EHM@EPAK@?4?$CDaaaaaaaaaaaaaaaaaaaaaaaaaaaaaa@ 10018c3c     bncs_cc02_qt.obj
 0003:000070b8       ??_C@_0EHM@BPGM@?4?$CDaaaaaaaaaaaaaaaaaaaaaaaaaaaaaa@ 100190b8     bncs_cc02_qt.obj
 0003:00007534       ??_C@_0EHM@BEBB@?4?$CDaaaaaaaaaaaaaaaaaaaaaaaaaaaaaa@ 10019534     bncs_cc02_qt.obj
 0003:000079b0       ??_C@_0EHM@HGCO@?4?$CDaaaaaaaaaaaaaaaaaaaaaaaaaaaaaa@ 100199b0     bncs_cc02_qt.obj
 0003:00007e2c       ??_C@_0EHM@GOMO@?4?$CDaaaaaaaaaaaaaaaaaaaaaaaaaaaaaa@ 10019e2c     bncs_cc02_qt.obj
 0003:000082a8       ??_C@_0EHM@EPIB@?4?$CDaaaaaaaaaaaaaaaaaaaaaaaaaaaaaa@ 1001a2a8     bncs_cc02_qt.obj
 0003:00008724       ??_C@_0EHM@BFG@?4?$CDaaaaaaaaaaaaaaaaaaaaaaaaaaaaaa@ 1001a724     bncs_cc02_qt.obj
 0003:00008ba0       ??_C@_0EHM@KCBP@?4?$CDaaaaaaaaaaaaaaaaaaaaaaaaaaaaaa@ 1001aba0     bncs_cc02_qt.obj
 0003:0000901c       ??_C@_0EHM@NLBK@?4?$CDaaaaaaaaaaaaaaaaaaaaaaaaaaaaaa@ 1001b01c     bncs_cc02_qt.obj
 0003:00009498       ??_C@_0EHM@EEDG@?4?$CDaaaaaaaaaaaaaaaaaaaaaaaaaaaaaa@ 1001b498     bncs_cc02_qt.obj
 0003:00009914       ??_C@_0EHM@KLHP@?4?$CDaaaaaaaaaaaaaaaaaaaaaaaaaaaaaa@ 1001b914     bncs_cc02_qt.obj
 0003:00009d90       ??_C@_0EHM@CKJD@?4?$CDaaaaaaaaaaaaaaaaaaaaaaaaaaaaaa@ 1001bd90     bncs_cc02_qt.obj
 0003:0000a20c       ??_C@_0EHM@LAEO@?4?$CDaaaaaaaaaaaaaaaaaaaaaaaaaaaaaa@ 1001c20c     bncs_cc02_qt.obj
 0003:0000a688       ??_C@_0EHM@PGLG@?4?$CDaaaaaaaaaaaaaaaaaaaaaaaaaaaaaa@ 1001c688     bncs_cc02_qt.obj
 0003:0000ab04       ??_C@_0EHM@MKGI@?4?$CDaaaaaaaaaaaaaaaaaaaaaaaaaaaaaa@ 1001cb04     bncs_cc02_qt.obj
 0003:0000af80       ??_C@_0EHM@HDJB@?4?$CDaaaaaaaaaaaaaaaaaaaaaaaaaaaaaa@ 1001cf80     bncs_cc02_qt.obj
 0003:0000b3fc       ??_C@_0EHM@OAAB@?4?$CDaaaaaaaaaaaaaaaaaaaaaaaaaaaaaa@ 1001d3fc     bncs_cc02_qt.obj
 0003:0000b878       ??_C@_0EHM@DMOI@?4?$CDaaaaaaaaaaaaaaaaaaaaaaaaaaaaaa@ 1001d878     bncs_cc02_qt.obj
 0003:0000bcf4       ??_C@_0EHM@NGPP@?4?$CDaaaaaaaaaaaaaaaaaaaaaaaaaaaaaa@ 1001dcf4     bncs_cc02_qt.obj
 0003:0000c170       ??_C@_0EHM@ELDM@?4?$CDaaaaaaaaaaaaaaaaaaaaaaaaaaaaaa@ 1001e170     bncs_cc02_qt.obj
 0003:0000c5ec       ??_C@_0EHM@OCHH@?4?$CDaaaaaaaaaaaaaaaaaaaaaaaaaaaaaa@ 1001e5ec     bncs_cc02_qt.obj
 0003:0000ca68       ??_C@_0EHM@MPGM@?4?$CDaaaaaaaaaaaaaaaaaaaaaaaaaaaaaa@ 1001ea68     bncs_cc02_qt.obj
 0003:0000cee4       ??_C@_0EHM@LNKF@?4?$CDaaaaaaaaaaaaaaaaaaaaaaaaaaaaaa@ 1001eee4     bncs_cc02_qt.obj
 0003:0000d360       ??_C@_0EHM@EHNK@?4?$CDaaaaaaaaaaaaaaaaaaaaaaaaaaaaaa@ 1001f360     bncs_cc02_qt.obj
 0003:0000d7dc       ??_C@_0EHM@MGGB@?4?$CDaaaaaaaaaaaaaaaaaaaaaaaaaaaaaa@ 1001f7dc     bncs_cc02_qt.obj
 0003:0000dc58       ??_C@_0EHM@PCBP@?4?$CDaaaaaaaaaaaaaaaaaaaaaaaaaaaaaa@ 1001fc58     bncs_cc02_qt.obj
 0003:0000e0d4       ??_C@_0EHM@KKLA@?4?$CDaaaaaaaaaaaaaaaaaaaaaaaaaaaaaa@ 100200d4     bncs_cc02_qt.obj
 0003:0000e550       ??_C@_0EHM@NJGH@?4?$CDaaaaaaaaaaaaaaaaaaaaaaaaaaaaaa@ 10020550     bncs_cc02_qt.obj
 0003:0000e9cc       ??_C@_0EHM@HEBJ@?4?$CDaaaaaaaaaaaaaaaaaaaaaaaaaaaaaa@ 100209cc     bncs_cc02_qt.obj
 0003:0000ee48       ??_C@_0EHM@FGJH@?4?$CDaaaaaaaaaaaaaaaaaaaaaaaaaaaaaa@ 10020e48     bncs_cc02_qt.obj
 0003:0000f2c4       ??_C@_0EHM@CKAL@?4?$CDaaaaaaaaaaaaaaaaaaaaaaaaaaaaaa@ 100212c4     bncs_cc02_qt.obj
 0003:0000f740       ??_C@_0EHM@IDGI@?4?$CDaaaaaaaaaaaaaaaaaaaaaaaaaaaaaa@ 10021740     bncs_cc02_qt.obj
 0003:0000fbbc       ??_C@_0EHM@JEBE@?4?$CDaaaaaaaaaaaaaaaaaaaaaaaaaaaaaa@ 10021bbc     bncs_cc02_qt.obj
 0003:00010038       ??_C@_0EHM@FEFA@?4?$CDaaaaaaaaaaaaaaaaaaaaaaaaaaaaaa@ 10022038     bncs_cc02_qt.obj
 0003:000104b4       ??_C@_0EHM@JHAN@?4?$CDaaaaaaaaaaaaaaaaaaaaaaaaaaaaaa@ 100224b4     bncs_cc02_qt.obj
 0003:00010930       ??_C@_0EHM@FJCD@?4?$CDaaaaaaaaaaaaaaaaaaaaaaaaaaaaaa@ 10022930     bncs_cc02_qt.obj
 0003:00010dac       ??_C@_0EHM@DMJP@?4?$CDaaaaaaaaaaaaaaaaaaaamncccccccc@ 10022dac     bncs_cc02_qt.obj
 0003:00011228       ??_C@_0EHM@BLFM@?4?$CDaaaaaaaaaaaaaaaaaaaamncccccccc@ 10023228     bncs_cc02_qt.obj
 0003:000116a4       ??_C@_0EHM@DKDD@?4?$CDaaaaaaaaaaaaaaaaaaaamncccccccc@ 100236a4     bncs_cc02_qt.obj
 0003:00011b20       ??_C@_0EHM@OOCO@?4?$CDaaaaaaaaaaaaaaaaaaaamncccccccc@ 10023b20     bncs_cc02_qt.obj
 0003:00011f9c       ??_C@_0EHM@BAOF@?4?$CDaaaaaaaaaaaaaaaaaaaamncccccccc@ 10023f9c     bncs_cc02_qt.obj
 0003:00012418       ??_C@_0EHM@CHA@?4?$CDaaaaaaaaaaaaaaaaaaaamncccccccc@ 10024418     bncs_cc02_qt.obj
 0003:00012894       ??_C@_0EHM@ONID@?4?$CDaaaaaaaaaaaaaaaaaaaaaaaaaaaaaa@ 10024894     bncs_cc02_qt.obj
 0003:00012d10       ??_C@_0EHM@FJJG@?4?$CDaaaaaaaaaaaaaaaaaaaaaaaaaaaaaa@ 10024d10     bncs_cc02_qt.obj
 0003:0001318c       ??_C@_0EHM@IOHG@?4?$CDaaaaaaaaaaaaaaaaaaaaaaaaaaaaaa@ 1002518c     bncs_cc02_qt.obj
 0003:00013608       ??_C@_0EHM@EALF@?4?$CDaaaaaaaaaaaaaaaaaaaaaaaaaaaaaa@ 10025608     bncs_cc02_qt.obj
 0003:00013a84       ??_C@_0EHM@MHKB@?4?$CDaaaaaaaaaaaaaaaaaaaaaaaaaaaaaa@ 10025a84     bncs_cc02_qt.obj
 0003:00013f00       ??_C@_0EHM@KKAJ@?4?$CDaaaaaaaaaaaaaaaaaaaaaaaaaaaaaa@ 10025f00     bncs_cc02_qt.obj
 0003:0001437c       ??_C@_0EHM@DBMM@?4?$CDaaaaaaaaaaaaaaaaaaaaaaaaaaaaaa@ 1002637c     bncs_cc02_qt.obj
 0003:000147f8       ??_C@_0EHM@HEGD@?4?$CDaaaaaaaaaaaaaaaaaaaaaaaaaaaaaa@ 100267f8     bncs_cc02_qt.obj
 0003:00014c74       ??_C@_0EHM@KIPD@?4?$CDaaaaaaaaaaaaaaaaaaaaaaaaaaaaaa@ 10026c74     bncs_cc02_qt.obj
 0003:000150f0       ??_C@_0EHM@KIFD@?4?$CDaaaaaaaaaaaaaaaaaaaaaaaaaaaaaa@ 100270f0     bncs_cc02_qt.obj
 0003:0001556c       ??_C@_0EHM@NFGA@?4?$CDaaaaaaaaaaaaaaaaaaaaaaaaaaaaaa@ 1002756c     bncs_cc02_qt.obj
 0003:000159e8       ??_C@_0EHM@GNFK@?4?$CDaaaaaaaaaaaaaaaaaaaaaaaaaaaaaa@ 100279e8     bncs_cc02_qt.obj
 0003:00015e64       ??_C@_0EHM@PBEA@?4?$CDaaaaaaaaaaaaaaaaaaaaaaaaaaaaaa@ 10027e64     bncs_cc02_qt.obj
 0003:000162e0       ??_C@_0EHM@MCPL@?4?$CDaaaaaaaaaaaaaaaaaaaaaaaaaaaaaa@ 100282e0     bncs_cc02_qt.obj
 0003:0001675c       ??_C@_0EHM@IEIC@?4?$CDaaaaaaaaaaaaaaaaaaaaaaaaaaaaaa@ 1002875c     bncs_cc02_qt.obj
 0003:00016bd8       ??_C@_0EHM@DIGL@?4?$CDaaaaaaaaaaaaaaaaaaaaaaaaaaaaaa@ 10028bd8     bncs_cc02_qt.obj
 0003:00017054       ??_C@_0EHM@EHIC@?4?$CDaaaaaaaaaaaaaaaaaaaaaaaaaaaaaa@ 10029054     bncs_cc02_qt.obj
 0003:000174d0       ??_C@_0EHM@MIND@?4?$CDaaaaaaaaaaaaaaaaaaaaaaaaaaaaaa@ 100294d0     bncs_cc02_qt.obj
 0003:0001794c       ??_C@_0EHM@EGAL@?4?$CDaaaaaaaaaaaaaaaaaaaaaaaaaaaaaa@ 1002994c     bncs_cc02_qt.obj
 0003:00017dc8       ??_C@_0EHM@GALB@?4?$CDaaaaaaaaaaaaaaaaaaaaaaaaaaaaaa@ 10029dc8     bncs_cc02_qt.obj
 0003:00018244       ??_C@_0EHM@JJIF@?4?$CDaaaaaaaaaaaaaaaaaaaaaaaaaaaaaa@ 1002a244     bncs_cc02_qt.obj
 0003:000186c0       ??_C@_0EHM@HLCL@?4?$CDaaaaaaaaaaaaaaaaaaaaaaaaaaaaaa@ 1002a6c0     bncs_cc02_qt.obj
 0003:00018b3c       ??_C@_0EHM@MKBD@?4?$CDaaaaaaaaaaaaaaaaaaaaaaaaaaaaaa@ 1002ab3c     bncs_cc02_qt.obj
 0003:00018fb8       ??_C@_0EHM@CPMM@?4?$CDaaaaaaaaaaaaaaaaaaaaaaaaaaaaaa@ 1002afb8     bncs_cc02_qt.obj
 0003:00019434       ??_C@_0EHM@JBO@?4?$CDaaaaaaaaaaaaaaaaaaaaaaaaaaaaaa@ 1002b434     bncs_cc02_qt.obj
 0003:000198b0       ??_C@_0EHM@GDME@?4?$CDaaaaaaaaaaaaaaaaaaaaaaaaaaaaaa@ 1002b8b0     bncs_cc02_qt.obj
 0003:00019d2c       ??_C@_0EHM@OOKH@?4?$CDaaaaaaaaaaaaaaaaaaaaaaaaaaaaaa@ 1002bd2c     bncs_cc02_qt.obj
 0003:0001a1a8       ??_C@_0EHM@BNEP@?4?$CDaaaaaaaaaaaaaaaaaaaaaaaaaaaaaa@ 1002c1a8     bncs_cc02_qt.obj
 0003:0001a624       ??_C@_0EHM@BBDC@?4?$CDaaaaaaaaaaaaaaaaaaaaaaaaaaaaaa@ 1002c624     bncs_cc02_qt.obj
 0003:0001aaa0       ??_C@_0EHM@GAEN@?4?$CDaaaaaaaaaaaaaaaaaaaaaaaaaaaaaa@ 1002caa0     bncs_cc02_qt.obj
 0003:0001af1c       ??_C@_0EHM@FOMJ@?4?$CDaaaaaaaaaaaaaaaaaaaaaaaaaaaaaa@ 1002cf1c     bncs_cc02_qt.obj
 0003:0001b398       ??_C@_0EHM@LHKA@?4?$CDaaaaaaaaaaaaaaaaaaaaaaaaaaaaaa@ 1002d398     bncs_cc02_qt.obj
 0003:0001b814       ??_C@_0EHM@NMLL@?4?$CDaaaaaaaaaaaaaaaaaaaaaaaaaaaaaa@ 1002d814     bncs_cc02_qt.obj
 0003:0001bc90       ??_C@_0EHM@MKNG@?4?$CDaaaaaaaaaaaaaaaaaaaaaaaaaaaaaa@ 1002dc90     bncs_cc02_qt.obj
 0003:0001c10c       ??_C@_0EHM@LJFG@?4?$CDaaaaaaaaaaaaaaaaaaaaaaaaaaaaaa@ 1002e10c     bncs_cc02_qt.obj
 0003:0001c588       ??_C@_0EHM@JKOM@?4?$CDaaaaaaaaaaaaaaaaaaaaaaaaaaaaaa@ 1002e588     bncs_cc02_qt.obj
 0003:0001ca04       ??_C@_0EHM@HIHN@?4?$CDaaaaaaaaaaaaaaaaaaaaaaaaaaaaaa@ 1002ea04     bncs_cc02_qt.obj
 0003:0001ce80       ??_C@_0EHM@HNJF@?4?$CDaaaaaaaaaaaaaaaaaaaaaaaaaaaaaa@ 1002ee80     bncs_cc02_qt.obj
 0003:0001d2fc       ??_C@_0EHM@IECP@?4?$CDaaaaaaaaaaaaaaaaaaaaaaaaaaaaaa@ 1002f2fc     bncs_cc02_qt.obj
 0003:0001d778       ??_C@_0EHM@BICH@?4?$CDaaaaaaaaaaaaaaaaaaaaaaaaaaaaaa@ 1002f778     bncs_cc02_qt.obj
 0003:0001dbf4       ??_C@_0EHM@JMEF@?4?$CDaaaaaaaaaaaaaaaaaaaaaaaaaaaaaa@ 1002fbf4     bncs_cc02_qt.obj
 0003:0001e070       ??_C@_0EHM@BABI@?4?$CDaaaaaaaaaaaaaaaaaaaaaaaaaaaaaa@ 10030070     bncs_cc02_qt.obj
 0003:0001e4ec       ??_C@_0EHM@FJMK@?4?$CDaaaaaaaaaaaaaaaaaaaaaaaaaaaaaa@ 100304ec     bncs_cc02_qt.obj
 0003:0001e968       ??_C@_0EHM@PJKG@?4?$CDaaaaaaaaaaaaaaaaaaaaaaaaaaaaaa@ 10030968     bncs_cc02_qt.obj
 0003:0001ede4       ??_C@_0EHM@IDEK@?4?$CDaaaaaaaaaaaaaaaaaaaaaaaaaaaaaa@ 10030de4     bncs_cc02_qt.obj
 0003:0001f260       ??_C@_0EHM@JBED@?4?$CDaaaaaaaaaaaaaaaaaaaaaaaaaaaaaa@ 10031260     bncs_cc02_qt.obj
 0003:0001f6dc       ??_C@_0EHM@DFI@?4?$CDaaaaaaaaaaaaaaaaaaaaaaaaaaaaaa@ 100316dc     bncs_cc02_qt.obj
 0003:0001fb58       ??_C@_0EHM@JAMB@?4?$CDaaaaaaaaaaaaaaaaaaaaaaaaaaaaaa@ 10031b58     bncs_cc02_qt.obj
 0003:0001ffd4       ??_C@_0EHM@DPOL@?4?$CDaaaaaaaaaaaaaaaaaaaaaaaaaaaaaa@ 10031fd4     bncs_cc02_qt.obj
 0003:00020450       ??_C@_0EHM@HPDN@?4?$CDaaaaaaaaaaaaaaaaaaaaaaaaaaaaaa@ 10032450     bncs_cc02_qt.obj
 0003:000208cc       ??_C@_0EHM@DAFE@?4?$CDaaaaaaaaaaaaaaaaaaaaaaaaaaaaaa@ 100328cc     bncs_cc02_qt.obj
 0003:00020d48       ??_C@_0EHM@NHBB@?4?$CDaaaaaaaaaaaaaaaaaaaaaaaaaaaaaa@ 10032d48     bncs_cc02_qt.obj
 0003:000211c4       ??_C@_0EHM@OKNH@?4?$CDaaaaaaaaaaaaaaaaaaaaaaaaaaaaaa@ 100331c4     bncs_cc02_qt.obj
 0003:00021640       ??_C@_0EHM@BONM@?4?$CDaaaaaaaaaaaaaaaaaaaaaaaaaaaaaa@ 10033640     bncs_cc02_qt.obj
 0003:00021abc       ??_C@_0EHM@LENL@?4?$CDaaaaaaaaaaaaaaaaaaaaaaaaaaaaaa@ 10033abc     bncs_cc02_qt.obj
 0003:00021f38       ??_C@_0EHM@JFJD@?4?$CDaaaaaaaaaaaaaaaaaaaaaaaaaaaaaa@ 10033f38     bncs_cc02_qt.obj
 0003:000223b4       ??_C@_0EHM@BBIO@?4?$CDaaaaaaaaaaaaaaaaaaaaaaaaaaaaaa@ 100343b4     bncs_cc02_qt.obj
 0003:00022830       ??_C@_0EHM@DPDK@?4?$CDaaaaaaaaaaaaaaaaaaaaaaaaaaaaaa@ 10034830     bncs_cc02_qt.obj
 0003:00022cac       ??_C@_0EHM@LFEL@?4?$CDaaaaaaaaaaaaaaaaaaaaaaaaaaaaaa@ 10034cac     bncs_cc02_qt.obj
 0003:00023128       ??_C@_0EHM@MJBJ@?4?$CDaaaaaaaaaaaaaaaaaaaaaaaaaaaaaa@ 10035128     bncs_cc02_qt.obj
 0003:000235a4       ??_C@_0EHM@CKOM@?4?$CDaaaaaaaaaaaaaaaaaaaaaaaaaaaaaa@ 100355a4     bncs_cc02_qt.obj
 0003:00023a20       ??_C@_0EHM@IIKL@?4?$CDaaaaaaaaaaaaaaaaaaaaaaaaaaaaaa@ 10035a20     bncs_cc02_qt.obj
 0003:00023e9c       ??_C@_0EHM@FKPB@?4?$CDaaaaaaaaaaaaaaaaaaaaaaaaaaaaaa@ 10035e9c     bncs_cc02_qt.obj
 0003:00024318       ??_C@_0EHM@CLC@?4?$CDaaaaaaaaaaaaaaaaaaaaaaaaaaaaaa@ 10036318     bncs_cc02_qt.obj
 0003:00024794       ??_C@_0EHM@DHJM@?4?$CDaaaaaaaaaaaaaaaaaaaaaaaaaaaaaa@ 10036794     bncs_cc02_qt.obj
 0003:00024c10       ??_C@_0EHM@CGCD@?4?$CDaaaaaaaaaaaaaaaaaaaaaaaaaaaaaa@ 10036c10     bncs_cc02_qt.obj
 0003:0002508c       ??_C@_0EHM@DNHC@?4?$CDaaaaaaaaaaaaaaaaaaaaaaaaaaaaaa@ 1003708c     bncs_cc02_qt.obj
 0003:00025508       ??_C@_0EHM@BGKA@?4?$CDaaaaaaaaaaaaaaaaaaaaaaaaaaaaaa@ 10037508     bncs_cc02_qt.obj
 0003:00025984       ??_C@_0EHM@MDGN@?4?$CDaaaaaaaaaaaaaaaaaaaaaaaaaaaaaa@ 10037984     bncs_cc02_qt.obj
 0003:00025e00       ??_C@_0EHM@CALI@?4?$CDaaaaaaaaaaaaaaaaaaaaaaaaaaaaaa@ 10037e00     bncs_cc02_qt.obj
 0003:0002627c       ??_C@_0EHM@FOOP@?4?$CDaaaaaaaaaaaaaaaaaaaaaaaaaaaaaa@ 1003827c     bncs_cc02_qt.obj
 0003:000266f8       ??_C@_0EHM@ICHM@?4?$CDaaaaaaaaaaaaaaaaaaaaaaaaaaaaaa@ 100386f8     bncs_cc02_qt.obj
 0003:00026b74       ??_C@_0EHM@MIDG@?4?$CDaaaaaaaaaaaaaaaaaaaaaaaaaaaaaa@ 10038b74     bncs_cc02_qt.obj
 0003:00026ff0       ??_C@_0EHM@MHDA@?4?$CDaaaaaaaaaaaaaaaaaaaaaaaaaaaaaa@ 10038ff0     bncs_cc02_qt.obj
 0003:0002746c       ??_C@_0EHM@GAJM@?4?$CDaaaaaaaaaaaaaaaaaaaaaaaaaaaaaa@ 1003946c     bncs_cc02_qt.obj
 0003:000278e8       ??_C@_0EHM@JOLJ@?4?$CDaaaaaaaaaaaaaaaaaaaaaaaaaaaaaa@ 100398e8     bncs_cc02_qt.obj
 0003:00027d64       ??_C@_0EHM@HEIG@?4?$CDaaaaaaaaaaaaaaaaaaaaaaaaaaaaaa@ 10039d64     bncs_cc02_qt.obj
 0003:000281e0       ??_C@_0EHM@FLDN@?4?$CDaaaaaaaaaaaaaaaaaaaaaaaaaaaaaa@ 1003a1e0     bncs_cc02_qt.obj
 0003:0002865c       ??_C@_0EHM@KCNL@?4?$CDaaaaaaaaaaaaaaaaaaaaaaaaaaaaaa@ 1003a65c     bncs_cc02_qt.obj
 0003:00028ad8       ??_C@_0EHM@CPLI@?4?$CDaaaaaaaaaaaaaaaaaaaaaaaaaaaaaa@ 1003aad8     bncs_cc02_qt.obj
 0003:00028f54       ??_C@_0EHM@MJKF@?4?$CDaaaaaaaaaaaaaaaaaaaaaaaaaaaaaa@ 1003af54     bncs_cc02_qt.obj
 0003:000293d0       ??_C@_0EHM@KFH@?4?$CDaaaaaaaaaaaaaaaaaaaaaaaaaaaaaa@ 1003b3d0     bncs_cc02_qt.obj
 0003:0002984c       ??_C@_0EHM@EMOA@?4?$CDaaaaaaaaaaaaaaaaaaaaaaaaaaaaaa@ 1003b84c     bncs_cc02_qt.obj
 0003:00029cc8       ??_C@_0EHM@CMKF@?4?$CDaaaaaaaaaaaaaaaaaaaaaaaaaaaaaa@ 1003bcc8     bncs_cc02_qt.obj
 0003:0002a144       ??_C@_0EHM@OBEE@?4?$CDaaaaaaaaaaaaaaaaaaaaaaaaaaaaaa@ 1003c144     bncs_cc02_qt.obj
 0003:0002a5c0       ??_C@_0EHM@CKCH@?4?$CDaaaaaaaaaaaaaaaaaaaaaaaaaaaaaa@ 1003c5c0     bncs_cc02_qt.obj
 0003:0002aa3c       ??_C@_0EHM@GJAC@?4?$CDaaaaaaaaaaaaaaaaaaaaaaaaaaaaaa@ 1003ca3c     bncs_cc02_qt.obj
 0003:0002aeb8       ??_C@_0EHM@LNFP@?4?$CDaaaaaaaaaaaaaaaaaaaaaaaaaaaaaa@ 1003ceb8     bncs_cc02_qt.obj
 0003:0002b334       ??_C@_0EHM@GFCI@?4?$CDaaaaaaaaaaaaaaaaaaaaaaaaaaaaaa@ 1003d334     bncs_cc02_qt.obj
 0003:0002b7b0       ??_C@_0EHM@PCOC@?4?$CDaaaaaaaaaaaaaaaaaaaaaaaaaaaaaa@ 1003d7b0     bncs_cc02_qt.obj
 0003:0002bc2c       ??_C@_0EHM@JBNE@?4?$CDaaaaaaaaaaaaaaaaaaaaaaaaaaaaaa@ 1003dc2c     bncs_cc02_qt.obj
 0003:0002c0a8       ??_C@_0EHM@EIHG@?4?$CDaaaaaaaaaaaaaaaaaaaaaaaaaaaaaa@ 1003e0a8     bncs_cc02_qt.obj
 0003:0002c524       ??_C@_0EHM@FLNI@?4?$CDaaaaaaaaaaaaaaaaaaaaaaaaaaaaaa@ 1003e524     bncs_cc02_qt.obj
 0003:0002c9a0       ??_C@_0EHM@HNIC@?4?$CDaaaaaaaaaaaaaaaaaaaaaaaaaaaaaa@ 1003e9a0     bncs_cc02_qt.obj
 0003:0002ce1c       ??_C@_0EHM@KDNC@?4?$CDaaaaaaaaaaaaaaaaaaaaaaaaaaaaaa@ 1003ee1c     bncs_cc02_qt.obj
 0003:0002d298       ??_C@_0EHM@GGMJ@?4?$CDaaaaaaaaaaaaaaaaaaaaaaaaaaaaaa@ 1003f298     bncs_cc02_qt.obj
 0003:0002d714       ??_C@_0EHM@BLNH@?4?$CDaaaaaaaaaaaaaaaaaaaaaaaaaaaaaa@ 1003f714     bncs_cc02_qt.obj
 0003:0002db90       ??_C@_0EHM@HMON@?4?$CDaaaaaaaaaaaaaaaaaaaaaaaaaaaaaa@ 1003fb90     bncs_cc02_qt.obj
 0003:0002e00c       ??_C@_0EHM@CGGI@?4?$CDaaaaaaaaaaaaaaaaaaaaaaaaaaaaaa@ 1004000c     bncs_cc02_qt.obj
 0003:0002e488       ??_C@_0EHM@EJLP@?4?$CDaaaaaaaaaaaaaaaaaaaaaaaaaaaaaa@ 10040488     bncs_cc02_qt.obj
 0003:0002e904       ??_C@_0EHM@MOOD@?4?$CDaaaaaaaaaaaaaaaaaaaaaaaaaaaaaa@ 10040904     bncs_cc02_qt.obj
 0003:0002ed80       ??_C@_0EHM@CHLO@?4?$CDaaaaaaaaaaaaaaaaaaaaaaaaaaaaaa@ 10040d80     bncs_cc02_qt.obj
 0003:0002f1fc       ??_C@_0EHM@DNAL@?4?$CDaaaaaaaaaaaaaaaaaaaaaaaaaaaaaa@ 100411fc     bncs_cc02_qt.obj
 0003:0002f678       ??_C@_0EHM@IENL@?4?$CDaaaaaaaaaaaaaaaaaaaaaaaaaaaaaa@ 10041678     bncs_cc02_qt.obj
 0003:0002faf4       ??_C@_0EHM@EOC@?4?$CDaaaaaaaaaaaaaaaaaaaaaaaaaaaaaa@ 10041af4     bncs_cc02_qt.obj
 0003:0002ff70       ??_C@_0EHM@CFDL@?4?$CDaaaaaaaaaaaaaaaaaaaaaaaaaaaaaa@ 10041f70     bncs_cc02_qt.obj
 0003:000303ec       ??_C@_0EHM@HOEG@?4?$CDaaaaaaaaaaaaaaaaaaaaaaaaaaaaaa@ 100423ec     bncs_cc02_qt.obj
 0003:00030868       ??_C@_0EHM@GKDJ@?4?$CDaaaaaaaaaaaaaaaaaaaaaaaaaaaaaa@ 10042868     bncs_cc02_qt.obj
 0003:00030ce4       ??_C@_0EHM@FIAL@?4?$CDaaaaaaaaaaaaaaaaaaaaaaaaaaaaaa@ 10042ce4     bncs_cc02_qt.obj
 0003:00031160       ??_C@_0EHM@PMBM@?4?$CDaaaaaaaaaaaaaaaaaaaaaaaaaaaaaa@ 10043160     bncs_cc02_qt.obj
 0003:000315dc       ??_C@_0EHM@FNBK@?4?$CDaaaaaaaaaaaaaaaaaaaaaaaaaaaaaa@ 100435dc     bncs_cc02_qt.obj
 0003:00031a58       ??_C@_0EHM@HDCL@?4?$CDaaaaaaaaaaaaaaaaaaaaaaaaaaaaaa@ 10043a58     bncs_cc02_qt.obj
 0003:00031ed4       ??_C@_0EHM@NEPO@?4?$CDaaaaaaaaaaaaaaaaaaaaaaaaaaaaaa@ 10043ed4     bncs_cc02_qt.obj
 0003:00032350       ??_C@_0EHM@HBDJ@?4?$CDaaaaaaaaaaaaaaaaaaaaaaaaaaaaaa@ 10044350     bncs_cc02_qt.obj
 0003:000327cc       ??_C@_0EHM@HEOL@?4?$CDaaaaaaaaaaaaaaaaaaaaaaaaaaaaaa@ 100447cc     bncs_cc02_qt.obj
 0003:00032c48       ??_C@_0EHM@HJHE@?4?$CDaaaaaaaaaaaaaaaaaaaaaaaaaaaaaa@ 10044c48     bncs_cc02_qt.obj
 0003:000330c4       ??_C@_0EHM@JPHG@?4?$CDaaaaaaaaaaaaaaaaaaaaaaaaaaaaaa@ 100450c4     bncs_cc02_qt.obj
 0003:00033540       ??_C@_0EHM@NFKF@?4?$CDaaaaaaaaaaaaaaaaaaaaaaaaaaaaaa@ 10045540     bncs_cc02_qt.obj
 0003:000339bc       ??_C@_0EHM@OABE@?4?$CDaaaaaaaaaaaaaaaaaaaaaaaaaaaaaa@ 100459bc     bncs_cc02_qt.obj
 0003:00033e38       ??_C@_0EHM@CNJN@?4?$CDaaaaaaaaaaaaaaaaaaaaaaaaaaaaaa@ 10045e38     bncs_cc02_qt.obj
 0003:000342b4       ??_C@_0EHM@KEJM@?4?$CDaaaaaaaaaaaaaaaaaaaaaaaaaaaaaa@ 100462b4     bncs_cc02_qt.obj
 0003:00034730       ??_C@_0EHM@FPNB@?4?$CDaaaaaaaaaaaaaaaaaaaaaaaaaaaaaa@ 10046730     bncs_cc02_qt.obj
 0003:00034bac       ??_C@_0EHM@LGAP@?4?$CDaaaaaaaaaaaaaaaaaaaaaaaaaaaaaa@ 10046bac     bncs_cc02_qt.obj
 0003:00035028       ??_C@_0EHM@GIPJ@?4?$CDaaaaaaaaaaaaaaaaaaaaaaaaaaaaaa@ 10047028     bncs_cc02_qt.obj
 0003:000354a4       ??_C@_0EHM@LFMN@?4?$CDaaaaaaaaaaaaaaaaaaaaaaaaaaaaaa@ 100474a4     bncs_cc02_qt.obj
 0003:00035920       ??_C@_0EHM@MKJN@?4?$CDaaaaaaaaaaaaaaaaaaaaaaaaaaaaaa@ 10047920     bncs_cc02_qt.obj
 0003:00035d9c       ??_C@_0EHM@NPCF@?4?$CDaaaaaaaaaaaaaaaaaaaaaaaaaaaaaa@ 10047d9c     bncs_cc02_qt.obj
 0003:00036218       ??_C@_0EHM@IEFD@?4?$CDaaaaaaaaaaaaaaaaaaaaaaaaaaaaaa@ 10048218     bncs_cc02_qt.obj
 0003:00036694       ??_C@_0EHM@GKBK@?4?$CDaaaaaaaaaaaaaaaaaaaaaaaaaaaaaa@ 10048694     bncs_cc02_qt.obj
 0003:00036b10       ??_C@_0EHM@GDGB@?4?$CDaaaaaaaaaaaaaaaaaaaaaaaaaaaaaa@ 10048b10     bncs_cc02_qt.obj
 0003:00036f8c       ??_C@_0EHM@HNBO@?4?$CDaaaaaaaaaaaaaaaaaaaaaaaaaaaaaa@ 10048f8c     bncs_cc02_qt.obj
 0003:00037408       ??_C@_0EHM@BDFP@?4?$CDaaaaaaaaaaaaaaaaaaaaaaaaaaaaaa@ 10049408     bncs_cc02_qt.obj
 0003:00037884       ??_C@_0EHM@GPHC@?4?$CDaaaaaaaaaaaaaaaaaaaaaaaaaaaaaa@ 10049884     bncs_cc02_qt.obj
 0003:00037d00       ??_C@_0EHM@CLMF@?4?$CDaaaaaaaaaaaaaaaaaaaaaaaaaaaaaa@ 10049d00     bncs_cc02_qt.obj
 0003:0003817c       ??_C@_0EHM@BIFG@?4?$CDaaaaaaaaaaaaaaaaaaaaaaaaaaaaaa@ 1004a17c     bncs_cc02_qt.obj
 0003:000385f8       ??_C@_0EHM@EECN@?4?$CDaaaaaaaaaaaaaaaaaaaaaaaaaaaaaa@ 1004a5f8     bncs_cc02_qt.obj
 0003:00038a74       ??_C@_0EHM@CADG@?4?$CDaaaaaaaaaaaaaaaaaaaaaaaaaaaaaa@ 1004aa74     bncs_cc02_qt.obj
 0003:00038ef0       ??_C@_0EHM@LBDI@?4?$CDaaaaaaaaaaaaaaaaaaaaaaaaaaaaaa@ 1004aef0     bncs_cc02_qt.obj
 0003:0003936c       ??_C@_0EHM@HNDF@?4?$CDaaaaaaaaaaaaaaaaaaaaaaaaaaaaaa@ 1004b36c     bncs_cc02_qt.obj
 0003:000397e8       ??_C@_0EHM@KBNK@?4?$CDaaaaaaaaaaaaaaaaaaaaaaaaaaaaaa@ 1004b7e8     bncs_cc02_qt.obj
 0003:00039c64       ??_C@_0EHM@HIGC@?4?$CDaaaaaaaaaaaaaaaaaaaaaaaaaaaaaa@ 1004bc64     bncs_cc02_qt.obj
 0003:0003a0e0       ??_C@_0EHM@KEID@?4?$CDaaaaaaaaaaaaaaaaaaaaaaaaaaaaaa@ 1004c0e0     bncs_cc02_qt.obj
 0003:0003a55c       ??_C@_0EHM@ELJC@?4?$CDaaaaaaaaaaaaaaaaaaaaaaaaaaaaaa@ 1004c55c     bncs_cc02_qt.obj
 0003:0003a9d8       ??_C@_0EHM@PHHG@?4?$CDaaaaaaaaaaaaaaaaaaaaaaaaaaaaaa@ 1004c9d8     bncs_cc02_qt.obj
 0003:0003ae54       ??_C@_0EHM@NPFP@?4?$CDaaaaaaaaaaaaaaaaaaaaaaaaaaaaaa@ 1004ce54     bncs_cc02_qt.obj
 0003:0003b2d0       ??_C@_0EHM@OPOG@?4?$CDaaaaaaaaaaaaaaaaaaaaaaaaaaaaaa@ 1004d2d0     bncs_cc02_qt.obj
 0003:0003b74c       ??_C@_0EHM@DNGI@?4?$CDaaaaaaaaaaaaaaaaaaaaaaaaaaaaaa@ 1004d74c     bncs_cc02_qt.obj
 0003:0003bbc8       ??_C@_0EHM@NMOE@?4?$CDaaaaaaaaaaaaaaaaaaaaaaaaaaaaaa@ 1004dbc8     bncs_cc02_qt.obj
 0003:0003c044       ??_C@_0EHM@ELGO@?4?$CDaaaaaaaaaaaaaaaaaaaaaaaaaaaaaa@ 1004e044     bncs_cc02_qt.obj
 0003:0003c4c0       ??_C@_0EHM@FJKH@?4?$CDaaaaaaaaaaaaaaaaaaaaaaaaaaaaaa@ 1004e4c0     bncs_cc02_qt.obj
 0003:0003c93c       ??_C@_0EHM@KIAC@?4?$CDaaaaaaaaaaaaaaaaaaaaaaaaaaaaaa@ 1004e93c     bncs_cc02_qt.obj
 0003:0003cdb8       ??_C@_0EHM@DFLH@?4?$CDaaaaaaaaaaaaaaaaaaaaaaaaaaaaaa@ 1004edb8     bncs_cc02_qt.obj
 0003:0003d234       ??_C@_0EHM@GHHJ@?4?$CDaaaaaaaaaaaaaaaaaaaaaaaaaaaaaa@ 1004f234     bncs_cc02_qt.obj
 0003:0003d6b0       ??_C@_0EHM@LKGF@?4?$CDaaaaaaaaaaaaaaaaaaaaaaaaaaaaaa@ 1004f6b0     bncs_cc02_qt.obj
 0003:0003db2c       ??_C@_0EHM@IEPN@?4?$CDaaaaaaaaaaaaaaaaaaaaaaaaaaaaaa@ 1004fb2c     bncs_cc02_qt.obj
 0003:0003dfa8       ??_C@_0EHM@LIPJ@?4?$CDaaaaaaaaaaaaaaaaaaaaaaaaaaaaaa@ 1004ffa8     bncs_cc02_qt.obj
 0003:0003e424       ??_C@_0EHM@OBEJ@?4?$CDaaaaaaaaaaaaaaaaaaaaaaaaaaaaaa@ 10050424     bncs_cc02_qt.obj
 0003:0003e8a0       ??_C@_0EHM@KMAI@?4?$CDaaaaaaaaaaaaaaaaaaaaaaaaaaaaaa@ 100508a0     bncs_cc02_qt.obj
 0003:0003ed1c       ??_C@_0EHM@LAOF@?4?$CDaaaaaaaaaaaaaaaaaaaaaaaaaaaaaa@ 10050d1c     bncs_cc02_qt.obj
 0003:0003f198       ??_C@_0EHM@LLGP@?4?$CDaaaaaaaaaaaaaaaaaaaaaaaaaaaaaa@ 10051198     bncs_cc02_qt.obj
 0003:0003f614       ??_C@_0EHM@FMFL@?4?$CDaaaaaaaaaaaaaaaaaaaaaaaaaaaaaa@ 10051614     bncs_cc02_qt.obj
 0003:0003fa90       ??_C@_0EHM@HKBG@?4?$CDaaaaaaaaaaaaaaaaaaaaaaaaaaaaaa@ 10051a90     bncs_cc02_qt.obj
 0003:0003ff0c       ??_C@_0EHM@BOBE@?4?$CDaaaaaaaaaaaaaaaaaaaaaaaaaaaaaa@ 10051f0c     bncs_cc02_qt.obj
 0003:00040388       ??_C@_0EHM@MIP@?4?$CDaaaaaaaaaaaaaaaaaaaaaaaaaaaaaa@ 10052388     bncs_cc02_qt.obj
 0003:00040804       ??_C@_0EHM@EJAL@?4?$CDaaaaaaaaaaaaaaaaaaaaaaaaaaaaaa@ 10052804     bncs_cc02_qt.obj
 0003:00040c80       ??_C@_0EHM@BPOB@?4?$CDaaaaaaaaaaaaaaaaaaaaaaaaaaaaaa@ 10052c80     bncs_cc02_qt.obj
 0003:000410fc       ??_C@_0EHM@FHCG@?4?$CDaaaaaaaaaaaaaaaaaaaaaaaaaaaaaa@ 100530fc     bncs_cc02_qt.obj
 0003:00041578       ??_C@_0EHM@CCFO@?4?$CDaaaaaaaaaaaaaaaaaaaaaaaaaaaaaa@ 10053578     bncs_cc02_qt.obj
 0003:000419f4       ??_C@_0EHM@PBBH@?4?$CDaaaaaaaaaaaaaaaaaaaaaaaaaaaaaa@ 100539f4     bncs_cc02_qt.obj
 0003:00041e70       ??_C@_0EHM@IAAG@?4?$CDaaaaaaaaaaaaaaaaaaaaaaaaaaaaaa@ 10053e70     bncs_cc02_qt.obj
 0003:000422ec       ??_C@_0EHM@PKJO@?4?$CDaaaaaaaaaaaaaaaaaaaaaaaaaaaaaa@ 100542ec     bncs_cc02_qt.obj
 0003:00042768       ??_C@_0EHM@LBAM@?4?$CDaaaaaaaaaaaaaaaaaaaaaaaaaaaaaa@ 10054768     bncs_cc02_qt.obj
 0003:00042be4       ??_C@_0EHM@OOEC@?4?$CDaaaaaaaaaaaaaaaaaaaaaaaaaaaaaa@ 10054be4     bncs_cc02_qt.obj
 0003:00043060       ??_C@_0EHM@GEHI@?4?$CDaaaaaaaaaaaaaaaaaaaaaaaaaaaaaa@ 10055060     bncs_cc02_qt.obj
 0003:000434dc       ??_C@_0EHM@LDOM@?4?$CDaaaaaaaaaaaaaaaaaaaaaaaaaaaaaa@ 100554dc     bncs_cc02_qt.obj
 0003:00043958       ??_C@_0EHM@GDOK@?4?$CDaaaaaaaaaaaaaaaaaaaaaaaaaaaaaa@ 10055958     bncs_cc02_qt.obj
 0003:00043dd4       ??_C@_0EHM@GMJO@?4?$CDaaaaaaaaaaaaaaaaaaaaaaaaaaaaaa@ 10055dd4     bncs_cc02_qt.obj
 0003:00044250       ??_C@_0EHM@JGOI@?4?$CDaaaaaaaaaaaaaaaaaaaaaaaaaaaaaa@ 10056250     bncs_cc02_qt.obj
 0003:000446cc       ??_C@_0EHM@ONKI@?4?$CDaaaaaaaaaaaaaaaaaaaaaaaaaaaaaa@ 100566cc     bncs_cc02_qt.obj
 0003:00044b48       ??_C@_0EHM@FKAN@?4?$CDaaaaaaaaaaaaaaaaaaaaaaaaaaaaaa@ 10056b48     bncs_cc02_qt.obj
 0003:00044fc4       ??_C@_0EHM@NKKG@?4?$CDaaaaaaaaaaaaaaaaaaaaaaaaaaaaaa@ 10056fc4     bncs_cc02_qt.obj
 0003:00045440       ??_C@_0EHM@ILAK@?4?$CDaaaaaaaaaaaaaaaaaaaaaaaaaaaaaa@ 10057440     bncs_cc02_qt.obj
 0003:000458bc       ??_C@_0EHM@NNAF@?4?$CDaaaaaaaaaaaaaaaaaaaaaaaaaaaaaa@ 100578bc     bncs_cc02_qt.obj
 0003:00045d38       ??_C@_0EHM@KFCC@?4?$CDaaaaaaaaaaaaaaaaaaaaaaaaaaaaaa@ 10057d38     bncs_cc02_qt.obj
 0003:000461b4       ??_C@_0EHM@IKCL@?4?$CDaaaaaaaaaaaaaaaaaaaaaaaaaaaaaa@ 100581b4     bncs_cc02_qt.obj
 0003:00046630       ??_C@_0EHM@DHKN@?4?$CDaaaaaaaaaaaaaaaaaaaaaaaaaaaaaa@ 10058630     bncs_cc02_qt.obj
 0003:00046aac       ??_C@_0EHM@CAFG@?4?$CDaaaaaaaaaaaaaaaaaaaaaaaaaaaaaa@ 10058aac     bncs_cc02_qt.obj
 0003:00046f28       ??_C@_0EHM@EBHB@?4?$CDaaaaaaaaaaaaaaaaaaaaaaaaaaaaaa@ 10058f28     bncs_cc02_qt.obj
 0003:000473a4       ??_C@_0EHM@JFDD@?4?$CDaaaaaaaaaaaaaaaaaaaaaaaaaaaaaa@ 100593a4     bncs_cc02_qt.obj
 0003:00047820       ??_C@_0EHM@FAGD@?4?$CDaaaaaaaaaaaaaaaaaaaaaaaaaaaaaa@ 10059820     bncs_cc02_qt.obj
 0003:00047c9c       ??_C@_0EHM@LGMC@?4?$CDaaaaaaaaaaaaaaaaaaaaaaaaaaaaaa@ 10059c9c     bncs_cc02_qt.obj
 0003:00048118       ??_C@_0EHM@JMMN@?4?$CDaaaaaaaaaaaaaaaaaaaaaaaaaaaaaa@ 1005a118     bncs_cc02_qt.obj
 0003:00048594       ??_C@_0EHM@DFHH@?4?$CDaaaaaaaaaaaaaaaaaaaaaaaaaaaaaa@ 1005a594     bncs_cc02_qt.obj
 0003:00048a10       ??_C@_0EHM@BEAG@?4?$CDaaaaaaaaaaaaaaaaaaaaaaaaaaaaaa@ 1005aa10     bncs_cc02_qt.obj
 0003:00048e8c       ??_C@_0EHM@CCMH@?4?$CDaaaaaaaaaaaaaaaaaaaaaaaaaaaaaa@ 1005ae8c     bncs_cc02_qt.obj
 0003:00049308       ??_C@_0EHM@PJGF@?4?$CDaaaaaaaaaaaaaaaaaaaaaaaaaaaaaa@ 1005b308     bncs_cc02_qt.obj
 0003:00049784       ??_C@_0EHM@GLJD@?4?$CDaaaaaaaaaaaaaaaaaaaaaaaaaaaaaa@ 1005b784     bncs_cc02_qt.obj
 0003:00049c00       ??_C@_0EHM@KONP@?4?$CDaaaaaaaaaaaaaaaaaaaaaaaaaaaaaa@ 1005bc00     bncs_cc02_qt.obj
 0003:0004a07c       ??_C@_0EHM@LGLN@?4?$CDaaaaaaaaaaaaaaaaaaaaaaaaaaaaaa@ 1005c07c     bncs_cc02_qt.obj
 0003:0004a4f8       ??_C@_0EHM@KFHO@?4?$CDaaaaaaaaaaaaaaaaaaaaaaaaaaaaaa@ 1005c4f8     bncs_cc02_qt.obj
 0003:0004a974       ??_C@_0EHM@MEPC@?4?$CDaaaaaaaaaaaaaaaaaaaaaaaaaaaaaa@ 1005c974     bncs_cc02_qt.obj
 0003:0004adf0       ??_C@_0EHM@ODKH@?4?$CDaaaaaaaaaaaaaaaaaaaaaaaaaaaaaa@ 1005cdf0     bncs_cc02_qt.obj
 0003:0004b26c       ??_C@_0EHM@BCEC@?4?$CDaaaaaaaaaaaaaaaaaaaaaaaaaaaaaa@ 1005d26c     bncs_cc02_qt.obj
 0003:0004b6e8       ??_C@_0EHM@PHOM@?4?$CDaaaaaaaaaaaaaaaaaaaaaaaaaaaaaa@ 1005d6e8     bncs_cc02_qt.obj
 0003:0004bb64       ??_C@_0EHM@POHJ@?4?$CDaaaaaaaaaaaaaaaaaaaaaaaaaaaaaa@ 1005db64     bncs_cc02_qt.obj
 0003:0004bfe0       ??_C@_0EHM@DBJF@?4?$CDaaaaaaaaaaaaaaaaaaaaaaaaaaaaaa@ 1005dfe0     bncs_cc02_qt.obj
 0003:0004c45c       ??_C@_0EHM@NPKD@?4?$CDaaaaaaaaaaaaaaaaaaaaaaaaaaaaaa@ 1005e45c     bncs_cc02_qt.obj
 0003:0004c8d8       ??_C@_0EHM@NKJH@?4?$CDaaaaaaaaaaaaaaaaaaaaaaaaaaaaaa@ 1005e8d8     bncs_cc02_qt.obj
 0003:0004cd54       ??_C@_0EHM@NIPH@?4?$CDaaaaaaaaaaaaaaaaaaaaaaaaaaaaaa@ 1005ed54     bncs_cc02_qt.obj
 0003:0004d1d0       ??_C@_0EHM@COKL@?4?$CDaaaaaaaaaaaaaaaaaaaaaaaaaaaaaa@ 1005f1d0     bncs_cc02_qt.obj
 0003:0004d64c       ??_C@_0EHM@JEMO@?4?$CDaaaaaaaaaaaaaaaaaaaaaaaaaaaaaa@ 1005f64c     bncs_cc02_qt.obj
 0003:0004dac8       ??_C@_0EHM@GCFP@?4?$CDaaaaaaaaaaaaaaaaaaaaaaaaaaaaaa@ 1005fac8     bncs_cc02_qt.obj
 0003:0004df44       ??_C@_0EHM@FDLF@?4?$CDaaaaaaaaaaaaaaaaaaaaaaaaaaaaaa@ 1005ff44     bncs_cc02_qt.obj
 0003:0004e3c0       ??_C@_0EHM@KBCO@?4?$CDaaaaaaaaaaaaaaaaaaaaaaaaaaaaaa@ 100603c0     bncs_cc02_qt.obj
 0003:0004e83c       ??_C@_0EHM@FJNG@?4?$CDaaaaaaaaaaaaaaaaaaaaaaaaaaaaaa@ 1006083c     bncs_cc02_qt.obj
 0003:0004ecb8       ??_C@_0EHM@OIOF@?4?$CDaaaaaaaaaaaaaaaaaaaaaaaaaaaaaa@ 10060cb8     bncs_cc02_qt.obj
 0003:0004f134       ??_C@_0EHM@DJKJ@?4?$CDaaaaaaaaaaaaaaaaaaaaaaaaaaaaaa@ 10061134     bncs_cc02_qt.obj
 0003:0004f5b0       ??_C@_0EHM@GLJL@?4?$CDaaaaaaaaaaaaaaaaaaaaaaaaaaaaaa@ 100615b0     bncs_cc02_qt.obj
 0003:0004fa2c       ??_C@_0EHM@EJEL@?4?$CDaaaaaaaaaaaaaaaaaaaaaaaaaaaaaa@ 10061a2c     bncs_cc02_qt.obj
 0003:0004fea8       ??_C@_0EHM@JJIG@?4?$CDaaaaaaaaaaaaaaaaaaaaaaaaaaaaaa@ 10061ea8     bncs_cc02_qt.obj
 0003:00050324       ??_C@_0EHM@LKIL@?4?$CDaaaaaaaaaaaaaaaaaaaaaaaaaaaaaa@ 10062324     bncs_cc02_qt.obj
 0003:000507a0       ??_C@_0EHM@PLCN@?4?$CDaaaaaaaaaaaaaaaaaaaaaaaaaaaaaa@ 100627a0     bncs_cc02_qt.obj
 0003:00050c1c       ??_C@_0EHM@JHG@?4?$CDaaaaaaaaaaaaaaaaaaaaaaaaaaaaaa@ 10062c1c     bncs_cc02_qt.obj
 0003:00051098       ??_C@_0EHM@MNDA@?4?$CDaaaaaaaaaaaaaaaaaaaaaaaaaaaaaa@ 10063098     bncs_cc02_qt.obj
 0003:00051514       ??_C@_0EHM@JPCH@?4?$CDaaaaaaaaaaaaaaaaaaaaaaaaaaaaaa@ 10063514     bncs_cc02_qt.obj
 0003:00051990       ??_C@_0EHM@KLBM@?4?$CDaaaaaaaaaaaaaaaaaaaaaaaaaaaaaa@ 10063990     bncs_cc02_qt.obj
 0003:00051e0c       ??_C@_0EHM@POEO@?4?$CDaaaaaaaaaaaaaaaaaaaaaaaaaaaaaa@ 10063e0c     bncs_cc02_qt.obj
 0003:00052288       ??_C@_0EHM@FAKA@?4?$CDaaaaaaaaaaaaaaaaaaaaaaaaaaaaaa@ 10064288     bncs_cc02_qt.obj
 0003:00052704       ??_C@_0EHM@CJPC@?4?$CDaaaaaaaaaaaaaaaaaaaaaaaaaaaaaa@ 10064704     bncs_cc02_qt.obj
 0003:00052b80       ??_C@_0EHM@MCAM@?4?$CDaaaaaaaaaaaaaaaaaaaaaaaaaaaaaa@ 10064b80     bncs_cc02_qt.obj
 0003:00052ffc       ??_C@_0EHM@EFIE@?4?$CDaaaaaaaaaaaaaaaaaaaaaaaaaaaaaa@ 10064ffc     bncs_cc02_qt.obj
 0003:00053478       ??_C@_0EHM@HICK@?4?$CDaaaaaaaaaaaaaaaaaaaaaaaaaaaaaa@ 10065478     bncs_cc02_qt.obj
 0003:000538f4       ??_C@_0EHM@HOON@?4?$CDaaaaaaaaaaaaaaaaaaaaaaaaaaaaaa@ 100658f4     bncs_cc02_qt.obj
 0003:00053d70       ??_C@_0EHM@LCJB@?4?$CDaaaaaaaaaaaaaaaaaaaaaaaaaaaaaa@ 10065d70     bncs_cc02_qt.obj
 0003:000541ec       ??_C@_0EHM@NLDO@?4?$CDaaaaaaaaaaaaaaaaaaaaaaaaaaaaaa@ 100661ec     bncs_cc02_qt.obj
 0003:00054668       ??_C@_0EHM@FPB@?4?$CDaaaaaaaaaaaaaaaaaaaaaaaaaaaaaa@ 10066668     bncs_cc02_qt.obj
 0003:00054ae4       ??_C@_0EHM@LFEN@?4?$CDaaaaaaaaaaaaaaaaaaaaaaaaaaaaaa@ 10066ae4     bncs_cc02_qt.obj
 0003:00054f60       ??_C@_0EHM@IG@?4?$CDaaaaaaaaaaaaaaaaaaaaaaaaaaaaaa@ 10066f60     bncs_cc02_qt.obj
 0003:000553dc       ??_C@_0EHM@IFID@?4?$CDaaaaaaaaaaaaaaaaaaaaaaaaaaaaaa@ 100673dc     bncs_cc02_qt.obj
 0003:00055858       ??_C@_0EHM@EJPP@?4?$CDaaaaaaaaaaaaaaaaaaaaaaaaaaaaaa@ 10067858     bncs_cc02_qt.obj
 0003:00055cd4       ??_C@_0EHM@LMIC@?4?$CDaaaaaaaaaaaaaaaaaaaaaaaaaaaaaa@ 10067cd4     bncs_cc02_qt.obj
 0003:00056150       ??_C@_0EHM@BMAF@?4?$CDaaaaaaaaaaaaaaaaaaaaaaaaaaaaaa@ 10068150     bncs_cc02_qt.obj
 0003:000565cc       ??_C@_0EHM@CCL@?4?$CDaaaaaaaaaaaaaaaaaaaaaaaaaaaaaa@ 100685cc     bncs_cc02_qt.obj
 0003:00056a48       ??_C@_0EHM@FKO@?4?$CDaaaaaaaaaaaaaaaaaaaaaaaaaaaaaa@ 10068a48     bncs_cc02_qt.obj
 0003:00056ec4       ??_C@_0EHM@LAGF@?4?$CDaaaaaaaaaaaaaaaaaaaaaaaaaaaaaa@ 10068ec4     bncs_cc02_qt.obj
 0003:00057340       ??_C@_0EHM@HGNF@?4?$CDaaaaaaaaaaaaaaaaaaaaaaaaaaaaaa@ 10069340     bncs_cc02_qt.obj
 0003:000577bc       ??_C@_0EHM@OCAK@?4?$CDaaaaaaaaaaaaaaaaaaaaaaaaaaaaaa@ 100697bc     bncs_cc02_qt.obj
 0003:00057c38       ??_C@_0EHM@DCCE@?4?$CDaaaaaaaaaaaaaaaaaaaaaaaaaaaaaa@ 10069c38     bncs_cc02_qt.obj
 0003:000580b4       ??_C@_0EHM@PFJC@?4?$CDaaaaaaaaaaaaaaaaaaaaaaaaaaaaaa@ 1006a0b4     bncs_cc02_qt.obj
 0003:00058530       ??_C@_0EHM@LFEH@?4?$CDaaaaaaaaaaaaaaaaaaaaaaaaaaaaaa@ 1006a530     bncs_cc02_qt.obj
 0003:000589ac       ??_C@_0EHM@CACG@?4?$CDaaaaaaaaaaaaaaaaaaaaaaaaaaaaaa@ 1006a9ac     bncs_cc02_qt.obj
 0003:00058e28       ??_C@_0EHM@MBGJ@?4?$CDaaaaaaaaaaaaaaaaaaaaaaaaaaaaaa@ 1006ae28     bncs_cc02_qt.obj
 0003:000592a4       ??_C@_0EHM@KGIP@?4?$CDaaaaaaaaaaaaaaaaaaaaaaaaaaaaaa@ 1006b2a4     bncs_cc02_qt.obj
 0003:00059720       ??_C@_0EHM@KNGH@?4?$CDaaaaaaaaaaaaaaaaaaaaaaaaaaaaaa@ 1006b720     bncs_cc02_qt.obj
 0003:00059b9c       ??_C@_0EHM@CFGM@?4?$CDaaaaaaaaaaaaaaaaaaaaaaaaaaaaaa@ 1006bb9c     bncs_cc02_qt.obj
 0003:0005a018       ??_C@_0EHM@BMNE@?4?$CDaaaaaaaaaaaaaaaaaaaaaaaaaaaaaa@ 1006c018     bncs_cc02_qt.obj
 0003:0005a494       ??_C@_0EHM@ENIH@?4?$CDaaaaaaaaaaaaaaaaaaaaaaaaaaaaaa@ 1006c494     bncs_cc02_qt.obj
 0003:0005a910       ??_C@_0EHM@KPOF@?4?$CDaaaaaaaaaaaaaaaaaaaaaaaaaaaaaa@ 1006c910     bncs_cc02_qt.obj
 0003:0005ad8c       ??_C@_0EHM@BEMN@?4?$CDaaaaaaaaaaaaaaaaaaaaaaaaaaaaaa@ 1006cd8c     bncs_cc02_qt.obj
 0003:0005b208       ??_C@_0EHM@GLE@?4?$CDaaaaaaaaaaaaaaaaaaaaaaaaaaaaaa@ 1006d208     bncs_cc02_qt.obj
 0003:0005b684       ??_C@_0EHM@JLIL@?4?$CDaaaaaaaaaaaaaaaaaaaaaaaaaaaaaa@ 1006d684     bncs_cc02_qt.obj
 0003:0005bb00       ??_C@_0EHM@EKKN@?4?$CDaaaaaaaaaaaaaaaaaaaaaaaaaaaaaa@ 1006db00     bncs_cc02_qt.obj
 0003:0005bf7c       ??_C@_0EHM@KBOP@?4?$CDaaaaaaaaaaaaaaaaaaaaaaaaaaaaaa@ 1006df7c     bncs_cc02_qt.obj
 0003:0005c3f8       ??_C@_0EHM@CJGC@?4?$CDaaaaaaaaaaaaaaaaaaaaaaaaaaaaaa@ 1006e3f8     bncs_cc02_qt.obj
 0003:0005c874       ??_C@_0EHM@BNAJ@?4?$CDaaaaaaaaaaaaaaaaaaaaaaaaaaaaaa@ 1006e874     bncs_cc02_qt.obj
 0003:0005ccf0       ??_C@_0EHM@PGHB@?4?$CDaaaaaaaaaaaaaaaaaaaaaaaaaaaaaa@ 1006ecf0     bncs_cc02_qt.obj
 0003:0005d16c       ??_C@_0EHM@CIDG@?4?$CDaaaaaaaaaaaaaaaaaaaaaaaaaaaaaa@ 1006f16c     bncs_cc02_qt.obj
 0003:0005d5e8       ??_C@_0EHM@GCGF@?4?$CDaaaaaaaaaaaaaaaaaaaaaaaaaaaaaa@ 1006f5e8     bncs_cc02_qt.obj
 0003:0005da64       ??_C@_0EHM@KOAA@?4?$CDaaaaaaaaaaaaaaaaaaaaaaaaaaaaaa@ 1006fa64     bncs_cc02_qt.obj
 0003:0005dee0       ??_C@_0EHM@GEHA@?4?$CDaaaaaaaaaaaaaaaaaaaaaaaaaaaaaa@ 1006fee0     bncs_cc02_qt.obj
 0003:0005e35c       ??_C@_0EHM@PBEG@?4?$CDaaaaaaaaaaaaaaaaaaaaaaaaaaaaaa@ 1007035c     bncs_cc02_qt.obj
 0003:0005e7d8       ??_C@_0EHM@MAAF@?4?$CDaaaaaaaaaaaaaaaaaaaaaaaaaaaaaa@ 100707d8     bncs_cc02_qt.obj
 0003:0005ec54       ??_C@_0EHM@MJPN@?4?$CDaaaaaaaaaaaaaaaaaaaaaaaaaaaaaa@ 10070c54     bncs_cc02_qt.obj
 0003:0005f0d0       ??_C@_0EHM@PHNP@?4?$CDaaaaaaaaaaaaaaaaaaaaaaaaaaaaaa@ 100710d0     bncs_cc02_qt.obj
 0003:0005f54c       ??_C@_0EHM@CBIJ@?4?$CDaaaaaaaaaaaaaaaaaaaaaaaaaaaaaa@ 1007154c     bncs_cc02_qt.obj
 0003:0005f9c8       ??_C@_0EHM@ILII@?4?$CDaaaaaaaaaaaaaaaaaaaaaaaaaaaaaa@ 100719c8     bncs_cc02_qt.obj
 0003:0005fe44       ??_C@_0EHM@KAEL@?4?$CDaaaaaaaaaaaaaaaaaaaaaaaaaaaaaa@ 10071e44     bncs_cc02_qt.obj
 0003:000602c0       ??_C@_0EHM@CFGJ@?4?$CDaaaaaaaaaaaaaaaaaaaaaaaaaaaaaa@ 100722c0     bncs_cc02_qt.obj
 0003:0006073c       ??_C@_0EHM@NCH@?4?$CDaaaaaaaaaaaaaaaaaaaaaaaaaaaaaa@ 1007273c     bncs_cc02_qt.obj
 0003:00060bb8       ??_C@_0EHM@LMPB@?4?$CDaaaaaaaaaaaaaaaaaaaaaaaaaaaaaa@ 10072bb8     bncs_cc02_qt.obj
 0003:00061034       ??_C@_0EHM@BHP@?4?$CDaaaaaaaaaaaaaaaaaaaaaaaaaaaaaa@ 10073034     bncs_cc02_qt.obj
 0003:000614b0       ??_C@_0EHM@CEEB@?4?$CDaaaaaaaaaaaaaaaaaaaaaaaaaaaaaa@ 100734b0     bncs_cc02_qt.obj
 0003:0006192c       ??_C@_0EHM@NDFD@?4?$CDaaaaaaaaaaaaaaaaaaaaaaaaaaaaaa@ 1007392c     bncs_cc02_qt.obj
 0003:00061da8       ??_C@_0EHM@HDNE@?4?$CDaaaaaaaaaaaaaaaaaaaaaaaaaaaaaa@ 10073da8     bncs_cc02_qt.obj
 0003:00062224       ??_C@_0EHM@IGKJ@?4?$CDaaaaaaaaaaaaaaaaaaaaaaaaaaaaaa@ 10074224     bncs_cc02_qt.obj
 0003:000626a0       ??_C@_0EHM@EKNF@?4?$CDaaaaaaaaaaaaaaaaaaaaaaaaaaaaaa@ 100746a0     bncs_cc02_qt.obj
 0003:00062b1c       ??_C@_0EHM@MPNA@?4?$CDaaaaaaaaaaaaaaaaaaaaaaaaaaaaaa@ 10074b1c     bncs_cc02_qt.obj
 0003:00062f98       ??_C@_0EHM@HKBL@?4?$CDaaaaaaaaaaaaaaaaaaaaaaaaaaaaaa@ 10074f98     bncs_cc02_qt.obj
 0003:00063414       ??_C@_0EHM@CEII@?4?$CDaaaaaaaaaaaaaaaaaaaaaaaaaaaaaa@ 10075414     bncs_cc02_qt.obj
 0003:00063890       ??_C@_0EHM@PLGF@?4?$CDaaaaaaaaaaaaaaaaaaaaaaaaaaaaaa@ 10075890     bncs_cc02_qt.obj
 0003:00063d0c       ??_C@_0EHM@LKCN@?4?$CDaaaaaaaaaaaaaaaaaaaaaaaaaaaaaa@ 10075d0c     bncs_cc02_qt.obj
 0003:00064188       ??_C@_0EHM@HGFB@?4?$CDaaaaaaaaaaaaaaaaaaaaaaaaaaaaaa@ 10076188     bncs_cc02_qt.obj
 0003:00064604       ??_C@_0EHM@FIBH@?4?$CDaaaaaaaaaaaaaaaaaaaaaaaaaaaaaa@ 10076604     bncs_cc02_qt.obj
 0003:00064a80       ??_C@_0EHM@FIAI@?4?$CDaaaaaaaaaaaaaaaaaaaaaaaaaaaaaa@ 10076a80     bncs_cc02_qt.obj
 0003:00064efc       ??_C@_0EHM@NKAL@?4?$CDaaaaaaaaaaaaaaaaaaaaaaaaaaaaaa@ 10076efc     bncs_cc02_qt.obj
 0003:00065378       ??_C@_0EHM@CKLG@?4?$CDaaaaaaaaaaaaaaaaaaaaaaaaaaaaaa@ 10077378     bncs_cc02_qt.obj
 0003:000657f4       ??_C@_0EHM@NOGP@?4?$CDaaaaaaaaaaaaaaaaaaaaaaaaaaaaaa@ 100777f4     bncs_cc02_qt.obj
 0003:00065c70       ??_C@_0EHM@HAIB@?4?$CDaaaaaaaaaaaaaaaaaaaaaaaaaaaaaa@ 10077c70     bncs_cc02_qt.obj
 0003:000660ec       ??_C@_0EHM@CFND@?4?$CDaaaaaaaaaaaaaaaaaaaaaaaaaaaaaa@ 100780ec     bncs_cc02_qt.obj
 0003:00066568       ??_C@_0EHM@BBOI@?4?$CDaaaaaaaaaaaaaaaaaaaaaaaaaaaaaa@ 10078568     bncs_cc02_qt.obj
 0003:000669e4       ??_C@_0EHM@EDPP@?4?$CDaaaaaaaaaaaaaaaaaaaaaaaaaaaaaa@ 100789e4     bncs_cc02_qt.obj
 0003:00066e60       ??_C@_0EHM@IHLJ@?4?$CDaaaaaaaaaaaaaaaaaaaaaaaaaaaaaa@ 10078e60     bncs_cc02_qt.obj
 0003:000672dc       ??_C@_0EHM@CMKD@?4?$CDaaaaaaaaaaaaaaaaaaaaaaaaaaaaaa@ 100792dc     bncs_cc02_qt.obj
 0003:00067758       ??_C@_0EHM@GNAF@?4?$CDaaaaaaaaaaaaaaaaaaaaaaaaaaaaaa@ 10079758     bncs_cc02_qt.obj
 0003:00067bd4       ??_C@_0EHM@EOAI@?4?$CDaaaaaaaaaaaaaaaaaaaaaaaaaaaaaa@ 10079bd4     bncs_cc02_qt.obj
 0003:00068050       ??_C@_0EHM@JOMF@?4?$CDaaaaaaaaaaaaaaaaaaaaaaaaaaaaaa@ 1007a050     bncs_cc02_qt.obj
 0003:000684cc       ??_C@_0EHM@LMBF@?4?$CDaaaaaaaaaaaaaaaaaaaaaaaaaaaaaa@ 1007a4cc     bncs_cc02_qt.obj
 0003:00068948       ??_C@_0EHM@OOCH@?4?$CDaaaaaaaaaaaaaaaaaaaaaaaaaaaaaa@ 1007a948     bncs_cc02_qt.obj
 0003:00068dc4       ??_C@_0EHM@DPGL@?4?$CDaaaaaaaaaaaaaaaaaaaaaaaaaaaaaa@ 1007adc4     bncs_cc02_qt.obj
 0003:00069240       ??_C@_0EHM@LLAB@?4?$CDaaaaaaaaaaaaaaaaaaaaaaaaaaaaaa@ 1007b240     bncs_cc02_qt.obj
 0003:000696bc       ??_C@_0EHM@EDPJ@?4?$CDaaaaaaaaaaaaaaaaaaaaaaaaaaaaaa@ 1007b6bc     bncs_cc02_qt.obj
 0003:00069b38       ??_C@_0EHM@LBGC@?4?$CDaaaaaaaaaaaaaaaaaaaaaaaaaaaaaa@ 1007bb38     bncs_cc02_qt.obj
 0003:00069fb4       ??_C@_0EHM@IAII@?4?$CDaaaaaaaaaaaaaaaaaaaaaaaaaaaaaa@ 1007bfb4     bncs_cc02_qt.obj
 0003:0006a430       ??_C@_0EHM@HGBJ@?4?$CDaaaaaaaaaaaaaaaaaaaaaaaaaaaaaa@ 1007c430     bncs_cc02_qt.obj
 0003:0006a8ac       ??_C@_0EHM@MMHM@?4?$CDaaaaaaaaaaaaaaaaaaaaaaaaaaaaaa@ 1007c8ac     bncs_cc02_qt.obj
 0003:0006ad28       ??_C@_0EHM@DKCA@?4?$CDaaaaaaaaaaaaaaaaaaaaaaaaaaaaaa@ 1007cd28     bncs_cc02_qt.obj
 0003:0006b1a4       ??_C@_0EHM@HFHF@?4?$CDaaaaaaaaaaaaaaaaaaaaaaaaaaaaaa@ 1007d1a4     bncs_cc02_qt.obj
 0003:0006b620       ??_C@_0EHM@HAEB@?4?$CDaaaaaaaaaaaaaaaaaaaaaaaaaaaaaa@ 1007d620     bncs_cc02_qt.obj
 0003:0006ba9c       ??_C@_0EHM@JOHH@?4?$CDaaaaaaaaaaaaaaaaaaaaaaaaaaaaaa@ 1007da9c     bncs_cc02_qt.obj
 0003:0006bf18       ??_C@_0EHM@HHKE@?4?$CDaaaaaaaaaaaaaaaaaaaaaaaaaaaaaa@ 1007df18     bncs_cc02_qt.obj
 0003:0006c394       ??_C@_0EHM@JNCM@?4?$CDaaaaaaaaaaaaaaaaaaaaaaaaaaaaaa@ 1007e394     bncs_cc02_qt.obj
 0003:0006c810       ??_C@_0EHM@MNPA@?4?$CDaaaaaaaaaaaaaaaaaaaaaaaaaaaaaa@ 1007e810     bncs_cc02_qt.obj
 0003:0006cc8c       ??_C@_0EHM@JLMI@?4?$CDaaaaaaaaaaaaaaaaaaaaaaaaaaaaaa@ 1007ec8c     bncs_cc02_qt.obj
 0003:0006d108       ??_C@_0EHM@JFAP@?4?$CDaaaaaaaaaaaaaaaaaaaaaaaaaaaaaa@ 1007f108     bncs_cc02_qt.obj
 0003:0006d584       ??_C@_0EHM@HIFN@?4?$CDaaaaaaaaaaaaaaaaaaaaaaaaaaaaaa@ 1007f584     bncs_cc02_qt.obj
 0003:0006da00       ??_C@_0EHM@NGAP@?4?$CDaaaaaaaaaaaaaaaaaaaaaaaaaaaaaa@ 1007fa00     bncs_cc02_qt.obj
 0003:0006de7c       ??_C@_0EHM@CPAK@?4?$CDaaaaaaaaaaaaaaaaaaaaaaaaaaaaaa@ 1007fe7c     bncs_cc02_qt.obj
 0003:0006e2f8       ??_C@_0EHM@GHFP@?4?$CDaaaaaaaaaaaaaaaaaaaaaaaaaaaaaa@ 100802f8     bncs_cc02_qt.obj
 0003:0006e774       ??_C@_0EHM@OOGM@?4?$CDaaaaaaaaaaaaaaaaaaaaaaaaaaaaaa@ 10080774     bncs_cc02_qt.obj
 0003:0006ebf0       ??_C@_0EHM@FFM@?4?$CDaaaaaaaaaaaaaaaaaaaaaaaaaaaaaa@ 10080bf0     bncs_cc02_qt.obj
 0003:0006f06c       ??_C@_0EHM@DFKN@?4?$CDaaaaaaaaaaaaaaaaaaaaaaaaaaaaaa@ 1008106c     bncs_cc02_qt.obj
 0003:0006f4e8       ??_C@_0EHM@MENK@?4?$CDaaaaaaaaaaaaaaaaaaaaaaaaaaaaaa@ 100814e8     bncs_cc02_qt.obj
 0003:0006f964       ??_C@_0EHM@LDLA@?4?$CDaaaaaaaaaaaaaaaaaaaaaaaaaaaaaa@ 10081964     bncs_cc02_qt.obj
 0003:0006fde0       ??_C@_0EHM@NJGB@?4?$CDaaaaaaaaaaaaaaaaaaaaaaaaaaaaaa@ 10081de0     bncs_cc02_qt.obj
 0003:0007025c       ??_C@_0EHM@COMA@?4?$CDaaaaaaaaaaaaaaaaaaaaaaaaaaaaaa@ 1008225c     bncs_cc02_qt.obj
 0003:000706d8       ??_C@_0EHM@IJFO@?4?$CDaaaaaaaaaaaaaaaaaaaaaaaaaaaaaa@ 100826d8     bncs_cc02_qt.obj
 0003:00070b54       ??_C@_0EHM@JLKO@?4?$CDaaaaaaaaaaaaaaaaaaaaaaaaaaaaaa@ 10082b54     bncs_cc02_qt.obj
 0003:00070fd0       ??_C@_0EHM@FPPJ@?4?$CDaaaaaaaaaaaaaaaaaaaaaaaaaaaaaa@ 10082fd0     bncs_cc02_qt.obj
 0003:0007144c       ??_C@_0EHM@PBMD@?4?$CDaaaaaaaaaaaaaaaaaaaaaaaaaaaaaa@ 1008344c     bncs_cc02_qt.obj
 0003:000718c8       ??_C@_0EHM@PGN@?4?$CDaaaaaaaaaaaaaaaaaaaaaaaaaaaaaa@ 100838c8     bncs_cc02_qt.obj
 0003:00071d44       ??_C@_0EHM@POMD@?4?$CDaaaaaaaaaaaaaaaaaaaaaaaaaaaaaa@ 10083d44     bncs_cc02_qt.obj
 0003:000721c0       ??_C@_0EHM@KPBL@?4?$CDaaaaaaaaaaaaaaaaaaaaaaaaaaaaaa@ 100841c0     bncs_cc02_qt.obj
 0003:0007263c       ??_C@_0EHM@FPON@?4?$CDaaaaaaaaaaaaaaaaaaaaaaaaaaaaaa@ 1008463c     bncs_cc02_qt.obj
 0003:00072ab8       ??_C@_0EHM@ICPP@?4?$CDaaaaaaaaaaaaaaaaaaaaaaaaaaaaaa@ 10084ab8     bncs_cc02_qt.obj
 0003:00072f34       ??_C@_0EHM@JGPC@?4?$CDaaaaaaaaaaaaaaaaaaaaaaaaaaaaaa@ 10084f34     bncs_cc02_qt.obj
 0003:000733b0       ??_C@_0EHM@JLBP@?4?$CDaaaaaaaaaaaaaaaaaaaaaaaaaaaaaa@ 100853b0     bncs_cc02_qt.obj
 0003:0007382c       ??_C@_0EHM@HGBP@?4?$CDaaaaaaaaaaaaaaaaaaaaaaaaaaaaaa@ 1008582c     bncs_cc02_qt.obj
 0003:00073ca8       ??_C@_0EHM@HGHM@?4?$CDaaaaaaaaaaaaaaaaaaaaaaaaaaaaaa@ 10085ca8     bncs_cc02_qt.obj
 0003:00074124       ??_C@_0EHM@BFHF@?4?$CDaaaaaaaaaaaaaaaaaaaaaaaaaaaaaa@ 10086124     bncs_cc02_qt.obj
 0003:000745a0       ??_C@_0EHM@BMFC@?4?$CDaaaaaaaaaaaaaaaaaaaaaaaaaaaaaa@ 100865a0     bncs_cc02_qt.obj
 0003:00074a1c       ??_C@_0EHM@DLLG@?4?$CDaaaaaaaaaaaaaaaaaaaaaaaaaaaaaa@ 10086a1c     bncs_cc02_qt.obj
 0003:00074e98       ??_C@_0EHM@KNPG@?4?$CDaaaaaaaaaaaaaaaaaaaaaaaaaaaaaa@ 10086e98     bncs_cc02_qt.obj
 0003:00075314       ??_C@_0EHM@MHND@?4?$CDaaaaaaaaaaaaaaaaaaaaaaaaaaaaaa@ 10087314     bncs_cc02_qt.obj
 0003:00075790       ??_C@_0EHM@IKNC@?4?$CDaaaaaaaaaaaaaaaaaaaaaaaaaaaaaa@ 10087790     bncs_cc02_qt.obj
 0003:00075c0c       ??_C@_0EHM@MNKB@?4?$CDaaaaaaaaaaaaaaaaaaaaaaaaaaaaaa@ 10087c0c     bncs_cc02_qt.obj
 0003:00076088       ??_C@_0EHM@EHAP@?4?$CDaaaaaaaaaaaaaaaaaaaaaaaaaaaaaa@ 10088088     bncs_cc02_qt.obj
 0003:00076504       ??_C@_0EHM@EHDL@?4?$CDaaaaaaaaaaaaaaaaaaaaaaaaaaaaaa@ 10088504     bncs_cc02_qt.obj
 0003:00076980       ??_C@_0EHM@PFLF@?4?$CDaaaaaaaaaaaaaaaaaaaaaaaaaaaaaa@ 10088980     bncs_cc02_qt.obj
 0003:00076dfc       ??_C@_0EHM@COGN@?4?$CDaaaaaaaaaaaaaaaaaaaaaaaaaaaaaa@ 10088dfc     bncs_cc02_qt.obj
 0003:00077278       ??_C@_0EHM@EFMK@?4?$CDaaaaaaaaaaaaaaaaaaaaaaaaaaaaaa@ 10089278     bncs_cc02_qt.obj
 0003:000776f4       ??_C@_0EHM@GDIH@?4?$CDaaaaaaaaaaaaaaaaaaaaaaaaaaaaaa@ 100896f4     bncs_cc02_qt.obj
 0003:00077b70       ??_C@_0EHM@NECC@?4?$CDaaaaaaaaaaaaaaaaaaaaaaaaaaaaaa@ 10089b70     bncs_cc02_qt.obj
 0003:00077fec       ??_C@_0EHM@ELGL@?4?$CDaaaaaaaaaaaaaaaaaaaaaaaaaaaaaa@ 10089fec     bncs_cc02_qt.obj
 0003:00078468       ??_C@_0EHM@CJJ@?4?$CDaaaaaaaaaaaaaaaaaaaaaaaaaaaaaa@ 1008a468     bncs_cc02_qt.obj
 0003:000788e4       ??_C@_0EHM@PADG@?4?$CDaaaaaaaaaaaaaaaaaaaaaaaaaaaaaa@ 1008a8e4     bncs_cc02_qt.obj
 0003:00078d60       ??_C@_0EHM@KAHG@?4?$CDaaaaaaaaaaaaaaaaaaaaaaaaaaaaaa@ 1008ad60     bncs_cc02_qt.obj
 0003:000791dc       ??_C@_0EHM@NANB@?4?$CDaaaaaaaaaaaaaaaaaaaaaaaaaaaaaa@ 1008b1dc     bncs_cc02_qt.obj
 0003:00079658       ??_C@_0EHM@MKC@?4?$CDaaaaaaaaaaaaaaaaaaaaaaaaaaaaaa@ 1008b658     bncs_cc02_qt.obj
 0003:00079ad4       ??_C@_0EHM@FNLC@?4?$CDaaaaaaaaaaaaaaaaaaaaaaaaaaaaaa@ 1008bad4     bncs_cc02_qt.obj
 0003:00079f50       ??_C@_0EHM@OAOD@?4?$CDaaaaaaaaaaaaaaaaaaaaaaaaaaaaaa@ 1008bf50     bncs_cc02_qt.obj
 0003:0007a3cc       ??_C@_0EHM@ECLG@?4?$CDaaaaaaaaaaaaaaaaaaaaaaaaaaaaaa@ 1008c3cc     bncs_cc02_qt.obj
 0003:0007a848       ??_C@_0EHM@IDCL@?4?$CDaaaaaaaaaaaaaaaaaaaaaaaaaaaaaa@ 1008c848     bncs_cc02_qt.obj
 0003:0007acc4       ??_C@_0EHM@ONLB@?4?$CDaaaaaaaaaaaaaaaaaaaaaaaaaaaaaa@ 1008ccc4     bncs_cc02_qt.obj
 0003:0007b140       ??_C@_0EHM@DKGM@?4?$CDaaaaaaaaaaaaaaaaaaaaaaaaaaaaaa@ 1008d140     bncs_cc02_qt.obj
 0003:0007b5bc       ??_C@_0EHM@HGLP@?4?$CDaaaaaaaaaaaaaaaaaaaaaaaaaaaaaa@ 1008d5bc     bncs_cc02_qt.obj
 0003:0007ba38       ??_C@_0EHM@ODMJ@?4?$CDaaaaaaaaaaaaaaaaaaaaaaaaaaaaaa@ 1008da38     bncs_cc02_qt.obj
 0003:0007beb4       ??_C@_0EHM@DJIK@?4?$CDaaaaaaaaaaaaaaaaaaaaaaaaaaaaaa@ 1008deb4     bncs_cc02_qt.obj
 0003:0007c330       ??_C@_0EHM@EMAC@?4?$CDaaaaaaaaaaaaaaaaaaaaaaaaaaaaaa@ 1008e330     bncs_cc02_qt.obj
 0003:0007c7ac       ??_C@_0EHM@KLAD@?4?$CDaaaaaaaaaaaaaaaaaaaaaaaaaaaaaa@ 1008e7ac     bncs_cc02_qt.obj
 0003:0007cc28       ??_C@_0EHM@LFCG@?4?$CDaaaaaaaaaaaaaaaaaaaaaaaaaaaaaa@ 1008ec28     bncs_cc02_qt.obj
 0003:0007d0a4       ??_C@_0EHM@KDLH@?4?$CDaaaaaaaaaaaaaaaaaaaaaaaaaaaaaa@ 1008f0a4     bncs_cc02_qt.obj
 0003:0007d520       ??_C@_0EHM@GOLE@?4?$CDaaaaaaaaaaaaaaaaaaaaaaaaaaaaaa@ 1008f520     bncs_cc02_qt.obj
 0003:0007d99c       ??_C@_0EHM@FILP@?4?$CDaaaaaaaaaaaaaaaaaaaaaaaaaaaaaa@ 1008f99c     bncs_cc02_qt.obj
 0003:0007de18       ??_C@_0EHM@NNHK@?4?$CDaaaaaaaaaaaaaaaaaaaaaaaaaaaaaa@ 1008fe18     bncs_cc02_qt.obj
 0003:0007e294       ??_C@_0EHM@PLBP@?4?$CDaaaaaaaaaaaaaaaaaaaaaaaaaaaaaa@ 10090294     bncs_cc02_qt.obj
 0003:0007e710       ??_C@_0EHM@HICP@?4?$CDaaaaaaaaaaaaaaaaaaaaaaaaaaaaaa@ 10090710     bncs_cc02_qt.obj
 0003:0007eb8c       ??_C@_0EHM@ONPE@?4?$CDaaaaaaaaaaaaaaaaaaaaaaaaaaaaaa@ 10090b8c     bncs_cc02_qt.obj
 0003:0007f008       ??_C@_0EHM@LHBB@?4?$CDaaaaaaaaaaaaaaaaaaaaaaaaaaaaaa@ 10091008     bncs_cc02_qt.obj
 0003:0007f484       ??_C@_0EHM@MDJP@?4?$CDaaaaaaaaaaaaaaaaaaaaaaaaaaaaaa@ 10091484     bncs_cc02_qt.obj
 0003:0007f900       ??_C@_0EHM@POBL@?4?$CDaaaaaaaaaaaaaaaaaaaaaaaaaaaaaa@ 10091900     bncs_cc02_qt.obj
 0003:0007fd7c       ??_C@_0EHM@JJOD@?4?$CDaaaaaaaaaaaaaaaaaaaaaaaaaaaaaa@ 10091d7c     bncs_cc02_qt.obj
 0003:000801f8       ??_C@_0EHM@JEEP@?4?$CDaaaaaaaaaaaaaaaaaaaaaaaaaaaaaa@ 100921f8     bncs_cc02_qt.obj
 0003:00080674       ??_C@_0EHM@NKFB@?4?$CDaaaaaaaaaaaaaaaaaaaaaaaaaaaaaa@ 10092674     bncs_cc02_qt.obj
 0003:00080af0       ??_C@_0EHM@CBJP@?4?$CDaaaaaaaaaaaaaaaaaaaaaaaaaaaaaa@ 10092af0     bncs_cc02_qt.obj
 0003:00080f6c       ??_C@_0EHM@HBMM@?4?$CDaaaaaaaaaaaaaaaaaaaaaaaaaaaaaa@ 10092f6c     bncs_cc02_qt.obj
 0003:000813e8       ??_C@_0EHM@LCAA@?4?$CDaaaaaaaaaaaaaaaaaaaaaaaaaaaaaa@ 100933e8     bncs_cc02_qt.obj
 0003:00081864       ??_C@_0EHM@CEGJ@?4?$CDaaaaaaaaaaaaaaaaaaaaaaaaaaaaaa@ 10093864     bncs_cc02_qt.obj
 0003:00081ce0       ??_C@_0EHM@MMNE@?4?$CDaaaaaaaaaaaaaaaaaaaaaaaaaaaaaa@ 10093ce0     bncs_cc02_qt.obj
 0003:0008215c       ??_C@_0EHM@NFOH@?4?$CDaaaaaaaaaaaaaaaaaaaaaaaaaaaaaa@ 1009415c     bncs_cc02_qt.obj
 0003:000825d8       ??_C@_0EHM@JGCI@?4?$CDaaaaaaaaaaaaaaaaaaaaaaaaaaaaaa@ 100945d8     bncs_cc02_qt.obj
 0003:00082a54       ??_C@_0EHM@BAC@?4?$CDaaaaaaaaaaaaaaaaaaaaaaaaaaaaaa@ 10094a54     bncs_cc02_qt.obj
 0003:00082ed0       ??_C@_0EHM@GAHO@?4?$CDaaaaaaaaaaaaaaaaaaaaaaaaaaaaaa@ 10094ed0     bncs_cc02_qt.obj
 0003:0008334c       ??_C@_0EHM@OAHB@?4?$CDaaaaaaaaaaaaaaaaaaaaaaaaaaaaaa@ 1009534c     bncs_cc02_qt.obj
 0003:000837c8       ??_C@_0EHM@CIBC@?4?$CDaaaaaaaaaaaaaaaaaaaaaaaaaaaaaa@ 100957c8     bncs_cc02_qt.obj
 0003:00083c44       ??_C@_0EHM@JBJG@?4?$CDaaaaaaaaaaaaaaaaaaaaaaaaaaaaaa@ 10095c44     bncs_cc02_qt.obj
 0003:000840c0       ??_C@_0EHM@JBGO@?4?$CDaaaaaaaaaaaaaaaaaaaaaaaaaaaaaa@ 100960c0     bncs_cc02_qt.obj
 0003:0008453c       ??_C@_0EHM@CPBD@?4?$CDaaaaaaaaaaaaaaaaaaaaaaaaaaaaaa@ 1009653c     bncs_cc02_qt.obj
 0003:000849b8       ??_C@_0EHM@GMJG@?4?$CDaaaaaaaaaaaaaaaaaaaaaaaaaaaaaa@ 100969b8     bncs_cc02_qt.obj
 0003:00084e34       ??_C@_0EHM@DEBF@?4?$CDaaaaaaaaaaaaaaaaaaaaaaaaaaaaaa@ 10096e34     bncs_cc02_qt.obj
 0003:000852b0       ??_C@_0EHM@MIOE@?4?$CDaaaaaaaaaaaaaaaaaaaaaaaaaaaaaa@ 100972b0     bncs_cc02_qt.obj
 0003:0008572c       ??_C@_0EHM@JMGH@?4?$CDaaaaaaaaaaaaaaaaaaaaaaaaaaaaaa@ 1009772c     bncs_cc02_qt.obj
 0003:00085ba8       ??_C@_0EHM@PMPK@?4?$CDaaaaaaaaaaaaaaaaaaaaaaaaaaaaaa@ 10097ba8     bncs_cc02_qt.obj
 0003:00086024       ??_C@_0EHM@GLBE@?4?$CDaaaaaaaaaaaaaaaaaaaaaaaaaaaaaa@ 10098024     bncs_cc02_qt.obj
 0003:000864a0       ??_C@_0EHM@HDKJ@?4?$CDaaaaaaaaaaaaaaaaaaaaaaaaaaaaaa@ 100984a0     bncs_cc02_qt.obj
 0003:0008691c       ??_C@_0EHM@GFCH@?4?$CDaaaaaaaaaaaaaaaaaaaaaaaaaaaaaa@ 1009891c     bncs_cc02_qt.obj
 0003:00086d98       ??_C@_0EHM@HHIP@?4?$CDaaaaaaaaaaaaaaaaaaaaaaaaaaaaaa@ 10098d98     bncs_cc02_qt.obj
 0003:00087214       ??_C@_0EHM@EJPK@?4?$CDaaaaaaaaaaaaaaaaaaaaaaaaaaaaaa@ 10099214     bncs_cc02_qt.obj
 0003:00087690       ??_C@_0EHM@DFIJ@?4?$CDaaaaaaaaaaaaaaaaaaaaaaaaaaaaaa@ 10099690     bncs_cc02_qt.obj
 0003:00087b0c       ??_C@_0EHM@IIK@?4?$CDaaaaaaaaaaaaaaaaaaaaaaaaaaaaaa@ 10099b0c     bncs_cc02_qt.obj
 0003:00087f88       ??_C@_0EHM@GIHI@?4?$CDaaaaaaaaaaaaaaaaaaaaaaaaaaaaaa@ 10099f88     bncs_cc02_qt.obj
 0003:00088404       ??_C@_0EHM@KEIN@?4?$CDaaaaaaaaaaaaaaaaaaaaaaaaaaaaaa@ 1009a404     bncs_cc02_qt.obj
 0003:00088880       ??_C@_0EHM@EHHG@?4?$CDaaaaaaaaaaaaaaaaaaaaaaaaaaaaaa@ 1009a880     bncs_cc02_qt.obj
 0003:00088cfc       ??_C@_0EHM@DIAH@?4?$CDaaaaaaaaaaaaaaaaaaaaaaaaaaaaaa@ 1009acfc     bncs_cc02_qt.obj
 0003:00089178       ??_C@_0EHM@KFBI@?4?$CDaaaaaaaaaaaaaaaaaaaaaaaaaaaaaa@ 1009b178     bncs_cc02_qt.obj
 0003:000895f4       ??_C@_0EHM@MBMB@?4?$CDaaaaaaaaaaaaaaaaaaaaaaaaaaaaaa@ 1009b5f4     bncs_cc02_qt.obj
 0003:00089a70       ??_C@_0EHM@FJKI@?4?$CDaaaaaaaaaaaaaaaaaaaaaaaaaaaaaa@ 1009ba70     bncs_cc02_qt.obj
 0003:00089eec       ??_C@_0EHM@LLFF@?4?$CDaaaaaaaaaaaaaaaaaaaaaaaaaaaaaa@ 1009beec     bncs_cc02_qt.obj
 0003:0008a368       ??_C@_0EHM@OPLM@?4?$CDaaaaaaaaaaaaaaaaaaaaaaaaaaaaaa@ 1009c368     bncs_cc02_qt.obj
 0003:0008a7e4       ??_C@_0EHM@PEN@?4?$CDaaaaaaaaaaaaaaaaaaaaaaaaaaaaaa@ 1009c7e4     bncs_cc02_qt.obj
 0003:0008ac60       ??_C@_0EHM@PNPA@?4?$CDaaaaaaaaaaaaaaaaaaaaaaaaaaaaaa@ 1009cc60     bncs_cc02_qt.obj
 0003:0008b0dc       ??_C@_0EHM@MCPG@?4?$CDaaaaaaaaaaaaaaaaaaaaaaaaaaaaaa@ 1009d0dc     bncs_cc02_qt.obj
 0003:0008b558       ??_C@_0EHM@IMFN@?4?$CDaaaaaaaaaaaaaaaaaaaaaaaaaaaaaa@ 1009d558     bncs_cc02_qt.obj
 0003:0008b9d4       ??_C@_0EHM@LJA@?4?$CDaaaaaaaaaaaaaaaaaaaaaaaaaaaaaa@ 1009d9d4     bncs_cc02_qt.obj
 0003:0008be50       ??_C@_0EHM@CJIA@?4?$CDaaaaaaaaaaaaaaaaaaaaaaaaaaaaaa@ 1009de50     bncs_cc02_qt.obj
 0003:0008c2cc       ??_C@_0EHM@HNPA@?4?$CDaaaaaaaaaaaaaaaaaaaaaaaaaaaaaa@ 1009e2cc     bncs_cc02_qt.obj
 0003:0008c748       ??_C@_0EHM@HMLK@?4?$CDaaaaaaaaaaaaaaaaaaaaaaaaaaaaaa@ 1009e748     bncs_cc02_qt.obj
 0003:0008cbc4       ??_C@_0EHM@PCCH@?4?$CDaaaaaaaaaaaaaaaaaaaaaaaaaaaaaa@ 1009ebc4     bncs_cc02_qt.obj
 0003:0008d040       ??_C@_0EHM@IPNJ@?4?$CDaaaaaaaaaaaaaaaaaaaaaaaaaaaaaa@ 1009f040     bncs_cc02_qt.obj
 0003:0008d4bc       ??_C@_0EHM@MNAM@?4?$CDaaaaaaaaaaaaaaaaaaaaaaaaaaaaaa@ 1009f4bc     bncs_cc02_qt.obj
 0003:0008d938       ??_C@_0EHM@GFKA@?4?$CDaaaaaaaaaaaaaaaaaaaaaaaaaaaaaa@ 1009f938     bncs_cc02_qt.obj
 0003:0008ddb4       ??_C@_0EHM@MJJK@?4?$CDaaaaaaaaaaaaaaaaaaaaaaaaaaaaaa@ 1009fdb4     bncs_cc02_qt.obj
 0003:0008e230       ??_C@_0EHM@PDJP@?4?$CDaaaaaaaaaaaaaaaaaaaaaaaaaaaaaa@ 100a0230     bncs_cc02_qt.obj
 0003:0008e6ac       ??_C@_0EHM@PGEF@?4?$CDaaaaaaaaaaaaaaaaaaaaaaaaaaaaaa@ 100a06ac     bncs_cc02_qt.obj
 0003:0008eb28       ??_C@_0EHM@CMMF@?4?$CDaaaaaaaaaaaaaaaaaaaaaaaaaaaaaa@ 100a0b28     bncs_cc02_qt.obj
 0003:0008efa4       ??_C@_0EHM@KMOO@?4?$CDaaaaaaaaaaaaaaaaaaaaaaaaaaaaaa@ 100a0fa4     bncs_cc02_qt.obj
 0003:0008f420       ??_C@_0EHM@IHEO@?4?$CDaaaaaaaaaaaaaaaaaaaaaaaaaaaaaa@ 100a1420     bncs_cc02_qt.obj
 0003:0008f89c       ??_C@_0EHM@CHEP@?4?$CDaaaaaaaaaaaaaaaaaaaaaaaaaaaaaa@ 100a189c     bncs_cc02_qt.obj
 0003:0008fd18       ??_C@_0EHM@NMGH@?4?$CDaaaaaaaaaaaaaaaaaaaaaaaaaaaaaa@ 100a1d18     bncs_cc02_qt.obj
 0003:00090194       ??_C@_0EHM@GLBA@?4?$CDaaaaaaaaaaaaaaaaaaaaaaaaaaaaaa@ 100a2194     bncs_cc02_qt.obj
 0003:00090610       ??_C@_0EHM@JELJ@?4?$CDaaaaaaaaaaaaaaaaaaaaaaaaaaaaaa@ 100a2610     bncs_cc02_qt.obj
 0003:00090a8c       ??_C@_0EHM@JLEG@?4?$CDaaaaaaaaaaaaaaaaaaaaaaaaaaaaaa@ 100a2a8c     bncs_cc02_qt.obj
 0003:00090f08       ??_C@_0EHM@LEIB@?4?$CDaaaaaaaaaaaaaaaaaaaaaaaaaaaaaa@ 100a2f08     bncs_cc02_qt.obj
 0003:00091384       ??_C@_0EHM@DBOM@?4?$CDaaaaaaaaaaaaaaaaaaaaaaaaaaaaaa@ 100a3384     bncs_cc02_qt.obj
 0003:00091800       ??_C@_0EHM@JB@?4?$CDaaaaaaaaaaaaaaaaaaaaaaaaaaaaaa@ 100a3800     bncs_cc02_qt.obj
 0003:00091c7c       ??_C@_0EHM@GGEA@?4?$CDaaaaaaaaaaaaaaaaaaaaaaaaaaaaaa@ 100a3c7c     bncs_cc02_qt.obj
 0003:000920f8       ??_C@_0EHM@MFDM@?4?$CDaaaaaaaaaaaaaaaaaaaaaaaaaaaaaa@ 100a40f8     bncs_cc02_qt.obj
 0003:00092574       ??_C@_0EHM@ECGN@?4?$CDaaaaaaaaaaaaaaaaaaaaaaaaaaaaaa@ 100a4574     bncs_cc02_qt.obj
 0003:000929f0       ??_C@_0EHM@GFPP@?4?$CDaaaaaaaaaaaaaaaaaaaaaaaaaaaaaa@ 100a49f0     bncs_cc02_qt.obj
 0003:00092e6c       ??_C@_0EHM@LDFI@?4?$CDaaaaaaaaaaaaaaaaaaaaaaaaaaaaaa@ 100a4e6c     bncs_cc02_qt.obj
 0003:000932e8       ??_C@_0EHM@MLIE@?4?$CDaaaaaaaaaaaaaaaaaaaaaaaaaaaaaa@ 100a52e8     bncs_cc02_qt.obj
 0003:00093764       ??_C@_0EHM@CHOI@?4?$CDaaaaaaaaaaaaaaaaaaaaaaaaaaaaaa@ 100a5764     bncs_cc02_qt.obj
 0003:00093be0       ??_C@_0EHM@ELKK@?4?$CDaaaaaaaaaaaaaaaaaaaaaaaaaaaaaa@ 100a5be0     bncs_cc02_qt.obj
 0003:0009405c       ??_C@_0EHM@HMFD@?4?$CDaaaaaaaaaaaaaaaaaaaaaaaaaaaaaa@ 100a605c     bncs_cc02_qt.obj
 0003:000944d8       ??_C@_0EHM@DGPA@?4?$CDaaaaaaaaaaaaaaaaaaaaaaaaaaaaaa@ 100a64d8     bncs_cc02_qt.obj
 0003:00094954       ??_C@_0EHM@KOA@?4?$CDaaaaaaaaaaaaaaaaaaaaaaaaaaaaaa@ 100a6954     bncs_cc02_qt.obj
 0003:00094dd0       ??_C@_0EHM@GBF@?4?$CDaaaaaaaaaaaaaaaaaaaaaaaaaaaaaa@ 100a6dd0     bncs_cc02_qt.obj
 0003:0009524c       ??_C@_0EHM@MHMB@?4?$CDaaaaaaaaaaaaaaaaaaaaaaaaaaaaaa@ 100a724c     bncs_cc02_qt.obj
 0003:000956c8       ??_C@_0EHM@FIHP@?4?$CDaaaaaaaaaaaaaaaaaaaaaaaaaaaaaa@ 100a76c8     bncs_cc02_qt.obj
 0003:00095b44       ??_C@_0EHM@NMBM@?4?$CDaaaaaaaaaaaaaaaaaaaaaaaaaaaaaa@ 100a7b44     bncs_cc02_qt.obj
 0003:00095fc0       ??_C@_0EHM@HPMB@?4?$CDaaaaaaaaaaaaaaaaaaaaaaaaaaaaaa@ 100a7fc0     bncs_cc02_qt.obj
 0003:0009643c       ??_C@_0EHM@BKOM@?4?$CDaaaaaaaaaaaaaaaaaaaaaaaaaaaaaa@ 100a843c     bncs_cc02_qt.obj
 0003:000968b8       ??_C@_0EHM@IOAE@?4?$CDaaaaaaaaaaaaaaaaaaaaaaaaaaaaaa@ 100a88b8     bncs_cc02_qt.obj
 0003:00096d34       ??_C@_0EHM@BLMF@?4?$CDaaaaaaaaaaaaaaaaaaaaaaaaaaaaaa@ 100a8d34     bncs_cc02_qt.obj
 0003:000971b0       ??_C@_0EHM@HLIP@?4?$CDaaaaaaaaaaaaaaaaaaaaaaaaaaaaaa@ 100a91b0     bncs_cc02_qt.obj
 0003:0009762c       ??_C@_0EHM@KBKJ@?4?$CDaaaaaaaaaaaaaaaaaaaaaaaaaaaaaa@ 100a962c     bncs_cc02_qt.obj
 0003:00097aa8       ??_C@_0EHM@BGPO@?4?$CDaaaaaaaaaaaaaaaaaaaaaaaaaaaaaa@ 100a9aa8     bncs_cc02_qt.obj
 0003:00097f24       ??_C@_0EHM@DGOL@?4?$CDaaaaaaaaaaaaaaaaaaaaaaaaaaaaaa@ 100a9f24     bncs_cc02_qt.obj
 0003:000983a0       ??_C@_0EHM@JOGH@?4?$CDaaaaaaaaaaaaaaaaaaaaaaaaaaaaaa@ 100aa3a0     bncs_cc02_qt.obj
 0003:0009881c       ??_C@_0EHM@CHOM@?4?$CDaaaaaaaaaaaaaaaaaaaaaaaaaaaaaa@ 100aa81c     bncs_cc02_qt.obj
 0003:00098c98       ??_C@_0EHM@COJ@?4?$CDaaaaaaaaaaaaaaaaaaaaaaaaaaaaaa@ 100aac98     bncs_cc02_qt.obj
 0003:00099114       ??_C@_0EHM@IPNE@?4?$CDaaaaaaaaaaaaaaaaaaaaaaaaaaaaaa@ 100ab114     bncs_cc02_qt.obj
 0003:00099590       ??_C@_0EHM@MAFP@?4?$CDaaaaaaaaaaaaaaaaaaaaaaaaaaaaaa@ 100ab590     bncs_cc02_qt.obj
 0003:00099a0c       ??_C@_0EHM@NCKM@?4?$CDaaaaaaaaaaaaaaaaaaaaaaaaaaaaaa@ 100aba0c     bncs_cc02_qt.obj
 0003:00099e88       ??_C@_0EHM@ELCH@?4?$CDaaaaaaaaaaaaaaaaaaaaaaaaaaaaaa@ 100abe88     bncs_cc02_qt.obj
 0003:0009a304       ??_C@_0EHM@MELB@?4?$CDaaaaaaaaaaaaaaaaaaaaaaaaaaaaaa@ 100ac304     bncs_cc02_qt.obj
 0003:0009a780       ??_C@_0EHM@IOKP@?4?$CDaaaaaaaaaaaaaaaaaaaaaaaaaaaaaa@ 100ac780     bncs_cc02_qt.obj
 0003:0009abfc       ??_C@_0EHM@MJPM@?4?$CDaaaaaaaaaaaaaaaaaaaaaaaaaaaaaa@ 100acbfc     bncs_cc02_qt.obj
 0003:0009b078       ??_C@_0EHM@MJMG@?4?$CDaaaaaaaaaaaaaaaaaaaaaaaaaaaaaa@ 100ad078     bncs_cc02_qt.obj
 0003:0009b4f4       ??_C@_0EHM@OHND@?4?$CDaaaaaaaaaaaaaaaaaaaaaaaaaaaaaa@ 100ad4f4     bncs_cc02_qt.obj
 0003:0009b970       ??_C@_0EHM@CBJN@?4?$CDaaaaaaaaaaaaaaaaaaaaaaaaaaaaaa@ 100ad970     bncs_cc02_qt.obj
 0003:0009bdec       ??_C@_0EHM@FPHM@?4?$CDaaaaaaaaaaaaaaaaaaaaaaaaaaaaaa@ 100addec     bncs_cc02_qt.obj
 0003:0009c268       ??_C@_0EHM@BHEK@?4?$CDaaaaaaaaaaaaaaaaaaaaaaaaaaaaaa@ 100ae268     bncs_cc02_qt.obj
 0003:0009c6e4       ??_C@_0EHM@KDBJ@?4?$CDaaaaaaaaaaaaaaaaaaaaaaaaaaaaaa@ 100ae6e4     bncs_cc02_qt.obj
 0003:0009cb60       ??_C@_0EHM@CJLN@?4?$CDaaaaaaaaaaaaaaaaaaaaaaaaaaaaaa@ 100aeb60     bncs_cc02_qt.obj
 0003:0009cfdc       ??_C@_0EHM@EPI@?4?$CDaaaaaaaaaaaaaaaaaaaaaaaaaaaaaa@ 100aefdc     bncs_cc02_qt.obj
 0003:0009d458       ??_C@_0EHM@NDEB@?4?$CDaaaaaaaaaaaaaaaaaaaaaaaaaaaaaa@ 100af458     bncs_cc02_qt.obj
 0003:0009d8d4       ??_C@_0EHM@NGIC@?4?$CDaaaaaaaaaaaaaaaaaaaaaaaaaaaaaa@ 100af8d4     bncs_cc02_qt.obj
 0003:0009dd50       ??_C@_0EHM@IEKA@?4?$CDaaaaaaaaaaaaaaaaaaaaaaaaaaaaaa@ 100afd50     bncs_cc02_qt.obj
 0003:0009e1cc       ??_C@_0EHM@HMNM@?4?$CDaaaaaaaaaaaaaaaaaaaaaaaaaaaaaa@ 100b01cc     bncs_cc02_qt.obj
 0003:0009e648       ??_C@_0EHM@DHKA@?4?$CDaaaaaaaaaaaaaaaaaaaaaaaaaaaaaa@ 100b0648     bncs_cc02_qt.obj
 0003:0009eac4       ??_C@_0EHM@IOB@?4?$CDaaaaaaaaaaaaaaaaaaaaaaaaaaaaaa@ 100b0ac4     bncs_cc02_qt.obj
 0003:0009ef40       ??_C@_0EHM@CDKJ@?4?$CDaaaaaaaaaaaaaaaaaaaaaaaaaaaaaa@ 100b0f40     bncs_cc02_qt.obj
 0003:0009f3bc       ??_C@_0EHM@DFMJ@?4?$CDaaaaaaaaaaaaaaaaaaaaaaaaaaaaaa@ 100b13bc     bncs_cc02_qt.obj
 0003:0009f838       ??_C@_0EHM@LCPC@?4?$CDaaaaaaaaaaaaaaaaaaaaaaaaaaaaaa@ 100b1838     bncs_cc02_qt.obj
 0003:0009fcb4       ??_C@_0EHM@MGOC@?4?$CDaaaaaaaaaaaaaaaaaaaaaaaaaaaaaa@ 100b1cb4     bncs_cc02_qt.obj
 0003:000a0130       ??_C@_0EHM@BOCH@?4?$CDaaaaaaaaaaaaaaaaaaaaaaaaaaaaaa@ 100b2130     bncs_cc02_qt.obj
 0003:000a05ac       ??_C@_0EHM@LFHC@?4?$CDaaaaaaaaaaaaaaaaaaaaaaaaaaaaaa@ 100b25ac     bncs_cc02_qt.obj
 0003:000a0a28       ??_C@_0EHM@JCMA@?4?$CDaaaaaaaaaaaaaaaaaaaaaaaaaaaaaa@ 100b2a28     bncs_cc02_qt.obj
 0003:000a0ea4       ??_C@_0EHM@NOJK@?4?$CDaaaaaaaaaaaaaaaaaaaaaaaaaaaaaa@ 100b2ea4     bncs_cc02_qt.obj
 0003:000a1320       ??_C@_0EHM@LBCC@?4?$CDaaaaaaaaaaaaaaaaaaaaaaaaaaaaaa@ 100b3320     bncs_cc02_qt.obj
 0003:000a179c       ??_C@_0EHM@ENEB@?4?$CDaaaaaaaaaaaaaaaaaaaaaaaaaaaaaa@ 100b379c     bncs_cc02_qt.obj
 0003:000a1c18       ??_C@_0EHM@KLOF@?4?$CDaaaaaaaaaaaaaaaaaaaaaaaaaaaaaa@ 100b3c18     bncs_cc02_qt.obj
 0003:000a2094       ??_C@_0EHM@JODM@?4?$CDaaaaaaaaaaaaaaaaaaaaaaaaaaaaaa@ 100b4094     bncs_cc02_qt.obj
 0003:000a2510       ??_C@_0EHM@CPBG@?4?$CDaaaaaaaaaaaaaaaaaaaaaaaaaaaaaa@ 100b4510     bncs_cc02_qt.obj
 0003:000a298c       ??_C@_0EHM@NGHD@?4?$CDaaaaaaaaaaaaaaaaaaaaaaaaaaaaaa@ 100b498c     bncs_cc02_qt.obj
 0003:000a2e08       ??_C@_0EHM@JAKH@?4?$CDaaaaaaaaaaaaaaaaaaaaaaaaaaaaaa@ 100b4e08     bncs_cc02_qt.obj
 0003:000a3284       ??_C@_0EHM@NBCC@?4?$CDaaaaaaaaaaaaaaaaaaaaaaaaaaaaaa@ 100b5284     bncs_cc02_qt.obj
 0003:000a3700       ??_C@_0EHM@CMMG@?4?$CDaaaaaaaaaaaaaaaaaaaaaaaaaaaaaa@ 100b5700     bncs_cc02_qt.obj
 0003:000a3b7c       ??_C@_0EHM@NPPK@?4?$CDaaaaaaaaaaaaaaaaaaaaaaaaaaaaaa@ 100b5b7c     bncs_cc02_qt.obj
 0003:000a3ff8       ??_C@_0EHM@BPOM@?4?$CDaaaaaaaaaaaaaaaaaaaaaaaaaaaaaa@ 100b5ff8     bncs_cc02_qt.obj
 0003:000a4474       ??_C@_0EHM@KOAN@?4?$CDaaaaaaaaaaaaaaaaaaaaaaaaaaaaaa@ 100b6474     bncs_cc02_qt.obj
 0003:000a48f0       ??_C@_0EHM@GGFA@?4?$CDaaaaaaaaaaaaaaaaaaaaaaaaaaaaaa@ 100b68f0     bncs_cc02_qt.obj
 0003:000a4d6c       ??_C@_0EHM@JBPB@?4?$CDaaaaaaaaaaaaaaaaaaaaaaaaaaaaaa@ 100b6d6c     bncs_cc02_qt.obj
 0003:000a51e8       ??_C@_0EHM@NGLA@?4?$CDaaaaaaaaaaaaaaaaaaaaaaaaaaaaaa@ 100b71e8     bncs_cc02_qt.obj
 0003:000a5664       ??_C@_0EHM@HHMM@?4?$CDaaaaaaaaaaaaaaaaaaaaaaaaaaaaaa@ 100b7664     bncs_cc02_qt.obj
 0003:000a5ae0       ??_C@_0EHM@PNCB@?4?$CDaaaaaaaaaaaaaaaaaaaaaaaaaaaaaa@ 100b7ae0     bncs_cc02_qt.obj
 0003:000a5f5c       ??_C@_0EHM@MAIB@?4?$CDaaaaaaaaaaaaaaaaaaaaaaaaaaaaaa@ 100b7f5c     bncs_cc02_qt.obj
 0003:000a63d8       ??_C@_0EHM@IKNE@?4?$CDaaaaaaaaaaaaaaaaaaaaaaaaaaaaaa@ 100b83d8     bncs_cc02_qt.obj
 0003:000a6854       ??_C@_0EHM@ELJH@?4?$CDaaaaaaaaaaaaaaaaaaaaaaaaaaaaaa@ 100b8854     bncs_cc02_qt.obj
 0003:000a6cd0       ??_C@_0EHM@PJON@?4?$CDaaaaaaaaaaaaaaaaaaaaaaaaaaaaaa@ 100b8cd0     bncs_cc02_qt.obj
 0003:000a714c       ??_C@_0EHM@GJAJ@?4?$CDaaaaaaaaaaaaaaaaaaaaaaaaaaaaaa@ 100b914c     bncs_cc02_qt.obj
 0003:000a75c8       ??_C@_0EHM@MJPH@?4?$CDaaaaaaaaaaaaaaaaaaaaaaaaaaaaaa@ 100b95c8     bncs_cc02_qt.obj
 0003:000a7a44       ??_C@_0EHM@HABF@?4?$CDaaaaaaaaaaaaaaaaaaaaaaaaaaaaaa@ 100b9a44     bncs_cc02_qt.obj
 0003:000a7ec0       ??_C@_0EHM@NKOI@?4?$CDaaaaaaaaaaaaaaaaaaaaaaaaaaaaaa@ 100b9ec0     bncs_cc02_qt.obj
 0003:000a833c       ??_C@_0EHM@LHJH@?4?$CDaaaaaaaaaaaaaaaaaaaaaaaaaaaaaa@ 100ba33c     bncs_cc02_qt.obj
 0003:000a87b8       ??_C@_0EHM@IKF@?4?$CDaaaaaaaaaaaaaaaaaaaaaaaaaaaaaa@ 100ba7b8     bncs_cc02_qt.obj
 0003:000a8c34       ??_C@_0EHM@PPLA@?4?$CDaaaaaaaaaaaaaaaaaaaaaaaaaaaaaa@ 100bac34     bncs_cc02_qt.obj
 0003:000a90b0       ??_C@_0EHM@HHOM@?4?$CDaaaaaaaaaaaaaaaaaaaaaaaaaaaaaa@ 100bb0b0     bncs_cc02_qt.obj
 0003:000a952c       ??_C@_0EHM@PEAF@?4?$CDaaaaaaaaaaaaaaaaaaaaaaaaaaaaaa@ 100bb52c     bncs_cc02_qt.obj
 0003:000a99a8       ??_C@_0EHM@GMFO@?4?$CDaaaaaaaaaaaaaaaaaaaaaaaaaaaaaa@ 100bb9a8     bncs_cc02_qt.obj
 0003:000a9e24       ??_C@_0EHM@BBOL@?4?$CDaaaaaaaaaaaaaaaaaaaaaaaaaaaaaa@ 100bbe24     bncs_cc02_qt.obj
 0003:000aa2a0       ??_C@_0EHM@HHCM@?4?$CDaaaaaaaaaaaaaaaaaaaaaaaaaaaaaa@ 100bc2a0     bncs_cc02_qt.obj
 0003:000aa71c       ??_C@_0EHM@HHLH@?4?$CDaaaaaaaaaaaaaaaaaaaaaaaaaaaaaa@ 100bc71c     bncs_cc02_qt.obj
 0003:000aab98       ??_C@_0EHM@PEDK@?4?$CDaaaaaaaaaaaaaaaaaaaaaaaaaaaaaa@ 100bcb98     bncs_cc02_qt.obj
 0003:000ab014       ??_C@_0EHM@DCID@?4?$CDaaaaaaaaaaaaaaaaaaaaaaaaaaaaaa@ 100bd014     bncs_cc02_qt.obj
 0003:000ab490       ??_C@_0EHM@EPGP@?4?$CDaaaaaaaaaaaaaaaaaaaaaaaaaaaaaa@ 100bd490     bncs_cc02_qt.obj
 0003:000ab90c       ??_C@_0EHM@FKKG@?4?$CDaaaaaaaaaaaaaaaaaaaaaaaaaaaaaa@ 100bd90c     bncs_cc02_qt.obj
 0003:000abd88       ??_C@_0EHM@DMKC@?4?$CDaaaaaaaaaaaaaaaaaaaaaaaaaaaaaa@ 100bdd88     bncs_cc02_qt.obj
 0003:000ac204       ??_C@_0EHM@CCNN@?4?$CDaaaaaaaaaaaaaaaaaaaaaaaaaaaaaa@ 100be204     bncs_cc02_qt.obj
 0003:000ac680       ??_C@_0EHM@NBGG@?4?$CDaaaaaaaaaaaaaaaaaaaaaaaaaaaaaa@ 100be680     bncs_cc02_qt.obj
 0003:000acafc       ??_C@_0EHM@OICD@?4?$CDaaaaaaaaaaaaaaaaaaaaaaaaaaaaaa@ 100beafc     bncs_cc02_qt.obj
 0003:000acf78       ??_C@_0EHM@JMFD@?4?$CDaaaaaaaaaaaaaaaaaaaaaaaaaaaaaa@ 100bef78     bncs_cc02_qt.obj
 0003:000ad3f4       ??_C@_0EHM@JBCC@?4?$CDaaaaaaaaaaaaaaaaaaaaaaaaaaaaaa@ 100bf3f4     bncs_cc02_qt.obj
 0003:000ad870       ??_C@_0EHM@NABE@?4?$CDaaaaaaaaaaaaaaaaaaaaaaaaaaaaaa@ 100bf870     bncs_cc02_qt.obj
 0003:000adcec       ??_C@_0EHM@DFJB@?4?$CDaaaaaaaaaaaaaaaaaaaaaaaaaaaaaa@ 100bfcec     bncs_cc02_qt.obj
 0003:000ae168       ??_C@_0EHM@LMCH@?4?$CDaaaaaaaaaaaaaaaaaaaaaaaaaaaaaa@ 100c0168     bncs_cc02_qt.obj
 0003:000ae5e4       ??_C@_0EHM@IEEN@?4?$CDaaaaaaaaaaaaaaaaaaaaaaaaaaaaaa@ 100c05e4     bncs_cc02_qt.obj
 0003:000aea60       ??_C@_0EHM@PNPF@?4?$CDaaaaaaaaaaaaaaaaaaaaaaaaaaaaaa@ 100c0a60     bncs_cc02_qt.obj
 0003:000aeedc       ??_C@_0EHM@EJPE@?4?$CDaaaaaaaaaaaaaaaaaaaaaaaaaaaaaa@ 100c0edc     bncs_cc02_qt.obj
 0003:000af358       ??_C@_0EHM@OADB@?4?$CDaaaaaaaaaaaaaaaaaaaaaaaaaaaaaa@ 100c1358     bncs_cc02_qt.obj
 0003:000af7d4       ??_C@_0EHM@EJPA@?4?$CDaaaaaaaaaaaaaaaaaaaaaaaaaaaaaa@ 100c17d4     bncs_cc02_qt.obj
 0003:000afc50       ??_C@_0EHM@MJPP@?4?$CDaaaaaaaaaaaaaaaaaaaaaaaaaaaaaa@ 100c1c50     bncs_cc02_qt.obj
 0003:000b00cc       ??_C@_0EHM@CJEE@?4?$CDaaaaaaaaaaaaaaaaaaaaaaaaaaaaaa@ 100c20cc     bncs_cc02_qt.obj
 0003:000b0548       ??_C@_0EHM@BFHL@?4?$CDaaaaaaaaaaaaaaaaaaaaaaaaaaaaaa@ 100c2548     bncs_cc02_qt.obj
 0003:000b09c4       ??_C@_0EHM@BPDD@?4?$CDaaaaaaaaaaaaaaaaaaaaaaaaaaaaaa@ 100c29c4     bncs_cc02_qt.obj
 0003:000b0e40       ??_C@_0EHM@GOJN@?4?$CDaaaaaaaaaaaaaaaaaaaaaaaaaaaaaa@ 100c2e40     bncs_cc02_qt.obj
 0003:000b12bc       ??_C@_0EHM@DKOD@?4?$CDaaaaaaaaaaaaaaaaaaaaaaaaaaaaaa@ 100c32bc     bncs_cc02_qt.obj
 0003:000b1738       ??_C@_0EHM@KLGG@?4?$CDaaaaaaaaaaaaaaaaaaaaaaaaaaaaaa@ 100c3738     bncs_cc02_qt.obj
 0003:000b1bb4       ??_C@_0EHM@DKPE@?4?$CDaaaaaaaaaaaaaaaaaaaaaaaaaaaaaa@ 100c3bb4     bncs_cc02_qt.obj
 0003:000b2030       ??_C@_0EHM@KAOI@?4?$CDaaaaaaaaaaaaaaaaaaaaaaaaaaaaaa@ 100c4030     bncs_cc02_qt.obj
 0003:000b24ac       ??_C@_0EHM@CCPC@?4?$CDaaaaaaaaaaaaaaaaaaaaaaaaaaaaaa@ 100c44ac     bncs_cc02_qt.obj
 0003:000b2928       ??_C@_0EHM@FEEO@?4?$CDaaaaaaaaaaaaaaaaaaaaaaaaaaaaaa@ 100c4928     bncs_cc02_qt.obj
 0003:000b2da4       ??_C@_0EHM@EFGK@?4?$CDaaaaaaaaaaaaaaaaaaaaaaaaaaaaaa@ 100c4da4     bncs_cc02_qt.obj
 0003:000b3220       ??_C@_0EHM@MACC@?4?$CDaaaaaaaaaaaaaaaaaaaaaaaaaaaaaa@ 100c5220     bncs_cc02_qt.obj
 0003:000b369c       ??_C@_0EHM@ONCD@?4?$CDaaaaaaaaaaaaaaaaaaaaaaaaaaaaaa@ 100c569c     bncs_cc02_qt.obj
 0003:000b3b18       ??_C@_0EHM@DFKJ@?4?$CDaaaaaaaaaaaaaaaaaaaaaaaaaaaaaa@ 100c5b18     bncs_cc02_qt.obj
 0003:000b3f94       ??_C@_0EHM@CKCF@?4?$CDaaaaaaaaaaaaaaaaaaaaaaaaaaaaaa@ 100c5f94     bncs_cc02_qt.obj
 0003:000b4410       ??_C@_0EHM@PMG@?4?$CDaaaaaaaaaaaaaaaaaaaaaaaaaaaaaa@ 100c6410     bncs_cc02_qt.obj
 0003:000b488c       ??_C@_0EHM@IIFG@?4?$CDaaaaaaaaaaaaaaaaaaaaaaaaaaaaaa@ 100c688c     bncs_cc02_qt.obj
 0003:000b4d08       ??_C@_0EHM@LCHC@?4?$CDaaaaaaaaaaaaaaaaaaaaaaaaaaaaaa@ 100c6d08     bncs_cc02_qt.obj
 0003:000b5184       ??_C@_0EHM@GBDI@?4?$CDaaaaaaaaaaaaaaaaaaaaaaaaaaaaaa@ 100c7184     bncs_cc02_qt.obj
 0003:000b5600       ??_C@_0EHM@KLKH@?4?$CDaaaaaaaaaaaaaaaaaaaaaaaaaaaaaa@ 100c7600     bncs_cc02_qt.obj
 0003:000b5a7c       ??_C@_0EHM@GOEJ@?4?$CDaaaaaaaaaaaaaaaaaaaaaaaaaaaaaa@ 100c7a7c     bncs_cc02_qt.obj
 0003:000b5ef8       ??_C@_0EHM@GFHC@?4?$CDaaaaaaaaaaaaaaaaaaaaaaaaaaaaaa@ 100c7ef8     bncs_cc02_qt.obj
 0003:000b6374       ??_C@_0EHM@INFC@?4?$CDaaaaaaaaaaaaaaaaaaaaaaaaaaaaaa@ 100c8374     bncs_cc02_qt.obj
 0003:000b67f0       ??_C@_0EHM@DADL@?4?$CDaaaaaaaaaaaaaaaaaaaaaaaaaaaaaa@ 100c87f0     bncs_cc02_qt.obj
 0003:000b6c6c       ??_C@_0EHM@JBPO@?4?$CDaaaaaaaaaaaaaaaaaaaaaaaaaaaaaa@ 100c8c6c     bncs_cc02_qt.obj
 0003:000b70e8       ??_C@_0EHM@JPBP@?4?$CDaaaaaaaaaaaaaaaaaaaaaaaaaaaaaa@ 100c90e8     bncs_cc02_qt.obj
 0003:000b7564       ??_C@_0EHM@HLDP@?4?$CDaaaaaaaaaaaaaaaaaaaamncccccccc@ 100c9564     bncs_cc02_qt.obj
 0003:000b79e0       ??_C@_0EHM@JEIK@?4?$CDaaaaaaaaaaaaaaaaaaaamncccccccc@ 100c99e0     bncs_cc02_qt.obj
 0003:000b7e5c       ??_C@_0EHM@LKJK@?4?$CDaaaaaaaaaaaaaaaaaaaamncccccccc@ 100c9e5c     bncs_cc02_qt.obj
 0003:000b82d8       ??_C@_0EHM@KCDM@?4?$CDaaaaaaaaaaaaaaaaaaaamncccccccc@ 100ca2d8     bncs_cc02_qt.obj
 0003:000b8754       ??_C@_0EHM@MNA@?4?$CDaaaaaaaaaaaaaaaaaaaamncccccccc@ 100ca754     bncs_cc02_qt.obj
 0003:000b8bd0       ??_C@_0EHM@JAON@?4?$CDaaaaaaaaaaaaaaaaaaaamncccccccc@ 100cabd0     bncs_cc02_qt.obj
 0003:000b904c       ??_C@_0EHM@CNPG@?4?$CDaaaaaaaaaaaaaaaaaaaaaaaaaaaaaa@ 100cb04c     bncs_cc02_qt.obj
 0003:000b94c8       ??_C@_0EHM@OCMB@?4?$CDaaaaaaaaaaaaaaaaaaaaaaaaaaaaaa@ 100cb4c8     bncs_cc02_qt.obj
 0003:000b9944       ??_C@_0EHM@GHPN@?4?$CDaaaaaaaaaaaaaaaaaaaaaaaaaaaaaa@ 100cb944     bncs_cc02_qt.obj
 0003:000b9dc0       ??_C@_0EHM@BOHP@?4?$CDaaaaaaaaaaaaaaaaaaaaaaaaaaaaaa@ 100cbdc0     bncs_cc02_qt.obj
 0003:000ba23c       ??_C@_0EHM@JBLG@?4?$CDaaaaaaaaaaaaaaaaaaaaaaaaaaaaaa@ 100cc23c     bncs_cc02_qt.obj
 0003:000ba6b8       ??_C@_0EHM@OFDC@?4?$CDaaaaaaaaaaaaaaaaaaaaaaaaaaaaaa@ 100cc6b8     bncs_cc02_qt.obj
 0003:000bab34       ??_C@_0EHM@JLH@?4?$CDaaaaaaaaaaaaaaaaaaaaaaaaaaaaaa@ 100ccb34     bncs_cc02_qt.obj
 0003:000bafb0       ??_C@_0EHM@MKIH@?4?$CDaaaaaaaaaaaaaaaaaaaaaaaaaaaaaa@ 100ccfb0     bncs_cc02_qt.obj
 0003:000bb42c       ??_C@_0EHM@CCDI@?4?$CDaaaaaaaaaaaaaaaaaaaaaaaaaaaaaa@ 100cd42c     bncs_cc02_qt.obj
 0003:000bb8a8       ??_C@_0EHM@IAAK@?4?$CDaaaaaaaaaaaaaaaaaaaaaaaaaaaaaa@ 100cd8a8     bncs_cc02_qt.obj
 0003:000bbd24       ??_C@_0EHM@IGPE@?4?$CDaaaaaaaaaaaaaaaaaaaaaaaaaaaaaa@ 100cdd24     bncs_cc02_qt.obj
 0003:000bc1a0       ??_C@_0EHM@CMO@?4?$CDaaaaaaaaaaaaaaaaaaaaaaaaaaaaaa@ 100ce1a0     bncs_cc02_qt.obj
 0003:000bc61c       ??_C@_0EHM@GHDJ@?4?$CDaaaaaaaaaaaaaaaaaaaaaaaaaaaaaa@ 100ce61c     bncs_cc02_qt.obj
 0003:000bca98       ??_C@_0EHM@HFJA@?4?$CDaaaaaaaaaaaaaaaaaaaaaaaaaaaaaa@ 100cea98     bncs_cc02_qt.obj
 0003:000bcf14       ??_C@_0M@GKEK@c?5c?5?$CDffffff?$AA@ 100cef14     bncs_cc02_qt.obj
 0003:000bcf20       ??_C@_0M@IGKN@h?5c?5?$CDffffdb?$AA@ 100cef20     bncs_cc02_qt.obj
 0003:000bcf2c       ??_C@_0M@KLDM@p?5c?5?$CDffffb6?$AA@ 100cef2c     bncs_cc02_qt.obj
 0003:000bcf38       ??_C@_0M@BKNE@d?5c?5?$CDffdb90?$AA@ 100cef38     bncs_cc02_qt.obj
 0003:000bcf44       ??_C@_0M@FGKP@l?5c?5?$CDffb666?$AA@ 100cef44     bncs_cc02_qt.obj
 0003:000bcf50       ??_C@_0M@NFFB@n?5c?5?$CDdbffff?$AA@ 100cef50     bncs_cc02_qt.obj
 0003:000bcf5c       ??_C@_0M@GFBP@x?5c?5?$CDdbb6b6?$AA@ 100cef5c     bncs_cc02_qt.obj
 0003:000bcf68       ??_C@_0M@LNID@y?5c?5?$CDdb9066?$AA@ 100cef68     bncs_cc02_qt.obj
 0003:000bcf74       ??_C@_0M@NFDF@k?5c?5?$CDdb903a?$AA@ 100cef74     bncs_cc02_qt.obj
 0003:000bcf80       ??_C@_0M@DCLE@?4?5c?5?$CDd6d6d6?$AA@ 100cef80     bncs_cc02_qt.obj
 0003:000bcf8c       ??_C@_0M@KJI@t?5c?5?$CDb6ffff?$AA@ 100cef8c     bncs_cc02_qt.obj
 0003:000bcf98       ??_C@_0M@NELO@A?5c?5?$CDb6b6b6?$AA@ 100cef98     bncs_cc02_qt.obj
 0003:000bcfa4       ??_C@_0M@CINP@o?5c?5?$CDb66600?$AA@ 100cefa4     bncs_cc02_qt.obj
 0003:000bcfb0       ??_C@_0M@HODP@g?5c?5?$CD90dbff?$AA@ 100cefb0     bncs_cc02_qt.obj
 0003:000bcfbc       ??_C@_0M@LLEF@v?5c?5?$CD90dbdb?$AA@ 100cefbc     bncs_cc02_qt.obj
 0003:000bcfc8       ??_C@_0M@MKAJ@w?5c?5?$CD9090db?$AA@ 100cefc8     bncs_cc02_qt.obj
 0003:000bcfd4       ??_C@_0M@BMHB@i?5c?5?$CD903a00?$AA@ 100cefd4     bncs_cc02_qt.obj
 0003:000bcfe0       ??_C@_0M@IIEH@b?5c?5?$CD66b6ff?$AA@ 100cefe0     bncs_cc02_qt.obj
 0003:000bcfec       ??_C@_0M@KNFN@z?5c?5?$CD663a90?$AA@ 100cefec     bncs_cc02_qt.obj
 0003:000bcff8       ??_C@_0M@PMGN@q?5c?5?$CD660000?$AA@ 100ceff8     bncs_cc02_qt.obj
 0003:000bd004       ??_C@_0M@KHNM@r?5c?5?$CD3a90db?$AA@ 100cf004     bncs_cc02_qt.obj
 0003:000bd010       ??_C@_0M@FGHF@e?5c?5?$CD3a0000?$AA@ 100cf010     bncs_cc02_qt.obj
 0003:000bd01c       ??_C@_0M@9?$CD?5c?5?$CD262626?$AA@ 100cf01c     bncs_cc02_qt.obj
 0003:000bd028       ??_C@_0M@KDNA@j?5c?5?$CD0066b6?$AA@ 100cf028     bncs_cc02_qt.obj
 0003:000bd034       ??_C@_0M@FAFL@u?5c?5?$CD006666?$AA@ 100cf034     bncs_cc02_qt.obj
 0003:000bd040       ??_C@_0M@CNBB@m?5c?5?$CD003a90?$AA@ 100cf040     bncs_cc02_qt.obj
 0003:000bd04c       ??_C@_0M@BMOA@s?5c?5?$CD000066?$AA@ 100cf04c     bncs_cc02_qt.obj
 0003:000bd058       ??_C@_0M@OBPJ@f?5c?5?$CD00003a?$AA@ 100cf058     bncs_cc02_qt.obj
 0003:000bd064       ??_C@_0M@OJIO@a?5c?5?$CD000000?$AA@ 100cf064     bncs_cc02_qt.obj
 0003:000bd070       ??_C@_0O@HCGJ@1147?5826?529?51?$AA@ 100cf070     bncs_cc02_qt.obj
 0003:000bd080       ??_C@_08IGCE@BBC_CC02?$AA@ 100cf080     bncs_cc02_qt.obj
 0003:000bd08c       ??_C@_04EKDK@time?$AA@     100cf08c     bncs_cc02_qt.obj
 0003:000bd094       ??_C@_04LHJL@text?$AA@     100cf094     bncs_cc02_qt.obj
 0003:000bd09c       ??_C@_05NGOJ@reset?$AA@    100cf09c     bncs_cc02_qt.obj
 0003:000bd0a4       ??_C@_0M@DHOA@text?4?$CF1?$DN?$CF2?6?$AA@ 100cf0a4     bncs_cc02_qt.obj
 0003:000bd0b0       ??_C@_03MKE@all?$AA@       100cf0b0     bncs_cc02_qt.obj
 0003:000bd0b4       ??_C@_06CGBH@return?$AA@   100cf0b4     bncs_cc02_qt.obj
 0003:000bd0bc       ??_C@_09GOCI@text?46?$DN?$CF1?$AA@ 100cf0bc     bncs_cc02_qt.obj
 0003:000bd0c8       ??_C@_09BNO@text?45?$DN?$CF1?$AA@ 100cf0c8     bncs_cc02_qt.obj
 0003:000bd0d4       ??_C@_09CEIM@text?44?$DN?$CF1?$AA@ 100cf0d4     bncs_cc02_qt.obj
 0003:000bd0e0       ??_C@_09NODC@text?43?$DN?$CF1?$AA@ 100cf0e0     bncs_cc02_qt.obj
 0003:000bd0ec       ??_C@_09PLGA@text?42?$DN?$CF1?$AA@ 100cf0ec     bncs_cc02_qt.obj
 0003:000bd0f8       ??_C@_09JEJG@text?41?$DN?$CF1?$AA@ 100cf0f8     bncs_cc02_qt.obj
 0003:000bd104       ??_C@_01PLJA@0?$AA@        100cf104     bncs_cc02_qt.obj
 0003:000bd108       ??_C@_08MPBD@?1_____?$CFd?$AA@ 100cf108     bncs_cc02_qt.obj
 0003:000bd184       ??_C@_0EO@MOAO@pattern?$DNQT_UCM_VERIFICATION_DATA@ 100cf184     plugin.obj
 0003:000bd1d4       ??_C@_0BH@BHFF@OO?4?4?4?4?4?4?4?4?4?4?4?4?4?4?4?4?4?4OO?$AA@ 100cf1d4     plugin.obj
 0003:000bd1ec       ??_C@_0BH@IMMH@OX?5?5?5?5?5?5?5?5?5?5?5?5?5?5?5?5?5?5?5O?$AA@ 100cf1ec     plugin.obj
 0003:000bd204       ??_C@_0BH@NJJI@OX?4?5?5?5?5?5?5?5?5?5?5?5?5?5?5?5?5?5?4O?$AA@ 100cf204     plugin.obj
 0003:000bd21c       ??_C@_0BH@BLDD@OX?4?5?5?5?5?5?5?5?5?5?5?5?5?5?5?5?5?5?5O?$AA@ 100cf21c     plugin.obj
 0003:000bd234       ??_C@_0BH@NIEC@OXX?4?5?5?5?5?5?5?5?5?5?5?5?5?5?5?5?5?5O?$AA@ 100cf234     plugin.obj
 0003:000bd24c       ??_C@_0BH@PJOO@OOXXXXXXXXXXXXXXXXXXOO?$AA@ 100cf24c     plugin.obj
 0003:000bd264       ??_C@_0BH@FFFJ@?$CLOOOOOOOOOOOOOOOOOOOO?$CL?$AA@ 100cf264     plugin.obj
 0003:000bd27c       ??_C@_0BH@IJIB@?$CL?$CL?$CL?$CL?$CL?$CL?$CL?$CL?$CL?$CL?$CL?$CL?$CL?$CL?$CL?$CL?$CL?$CL?$CL?$CL?$CL?$CL?$AA@ 100cf27c     plugin.obj
 0003:000bd294       ??_C@_09OKNM@?$CD?5c?5Gray0?$AA@ 100cf294     plugin.obj
 0003:000bd2a0       ??_C@_09HHAK@?$EA?5c?5Gray0?$AA@ 100cf2a0     plugin.obj
 0003:000bd2ac       ??_C@_08IAIB@?$CL?5c?5none?$AA@ 100cf2ac     plugin.obj
 0003:000bd2b8       ??_C@_09CKLD@O?5c?5Gray0?$AA@ 100cf2b8     plugin.obj
 0003:000bd2c4       ??_C@_0M@FAEH@o?5c?5?$CD00007f?$AA@ 100cf2c4     plugin.obj
 0003:000bd2d0       ??_C@_0M@CKFH@X?5c?5?$CD4f504f?$AA@ 100cf2d0     plugin.obj
 0003:000bd2dc       ??_C@_0L@GJLI@?4?5c?5Gray97?$AA@ 100cf2dc     plugin.obj
 0003:000bd2e8       ??_C@_0M@IMEH@?5?5c?5Gray100?$AA@ 100cf2e8     plugin.obj
 0003:000bd2f4       ??_C@_09INKL@22?518?58?51?$AA@ 100cf2f4     plugin.obj
 0003:000bd300       ??_C@_0N@HMBC@bncs_cc02_qt?$AA@ 100cf300     plugin.obj
 0003:000bd310       ??_C@_04IFBK@BNCS?$AA@     100cf310     plugin.obj
 0003:000bd318       ??_C@_0P@MGGD@bncs_cc02_qt?4h?$AA@ 100cf318     plugin.obj
 0003:000bd328       ??_C@_0CK@MEH@Simple?5Qt?5Plugin?5Widget?5Example?5@ 100cf328     plugin.obj
 0003:000bd354       ??_C@_0CO@EDNB@Simple?5Qt?5Plugin?5Widget?5Example?5@ 100cf354     plugin.obj
 0003:000bd384       ??_C@_0CLD@GHIO@Qt?4?$CD?4?$CD?4?$CD?4?$CD?4?$CD?4?$CD?4?$CD?4?$CD?4?$CD?4?$CD?4?$CD?4?$CD?4?$CD?4?$CD?4?$CD@ 100cf384     bncs_cc02_edit.obj
 0003:000bd638       ??_C@_0CLD@LNGC@Qt?4?$CD?4?$CD?4?$CD?4?$CD?4?$CD?4?$CD?4?$CD?4?$CD?4?$CD?4?$CD?4?$CD?4?$CD?4?$CD?4?$CD?4?$CD@ 100cf638     bncs_cc02_edit.obj
 0003:000bd8ec       ??_C@_0CLD@PCHB@Qt?4?$CD?4?$CD?4?$CD?4?$CD?4?$CD?4?$CD?4?$CD?4?$CD?4?$CD?4?$CD?4?$CD?4?$CD?4?$CD?4?$CD?4?$CD@ 100cf8ec     bncs_cc02_edit.obj
 0003:000bdba0       ??_C@_0CLD@EFMJ@Qt?4?$CD?4?$CD?4?$CD?4?$CD?4?$CD?4?$CD?4?$CD?4?$CD?4?$CD?4?$CD?4?$CDyO?4d?4diU@ 100cfba0     bncs_cc02_edit.obj
 0003:000bde54       ??_C@_0CLD@GNNL@Qt?4?$CD?4?$CD?4?$CD?4?$CD?4?$CD?4?$CD?4?$CD?4?$CD?4?$CD?4?$CD?4?$CDx6?4d?4daw@ 100cfe54     bncs_cc02_edit.obj
 0003:000be108       ??_C@_0CLD@OOCF@Qt?4?$CD?4?$CD?4?$CD?4?$CD?4?$CD?4?$CD?4?$CD?4?$CD?4?$CD?4?$CD?4?$CDav?4d?4daw@ 100d0108     bncs_cc02_edit.obj
 0003:000be3bc       ??_C@_0CLD@JMMB@Qt?4?$CD?4?$CD?4?$CD?4?$CD?4?$CD?4?$CD?4?$CD?4?$CD?4?$CD?4?$CD?4?$CDav?4d?4daw@ 100d03bc     bncs_cc02_edit.obj
 0003:000be670       ??_C@_0CLD@PBIK@Qt?4?$CD?4?$CD?4?$CD?4?$CD?4?$CD?4?$CD?4?$CD?4?$CD?4?$CD?4?$CD?4?$CDav?4d?4daw@ 100d0670     bncs_cc02_edit.obj
 0003:000be924       ??_C@_0CLD@BEPH@Qt?4?$CD?4?$CD?4?$CD?4?$CD?4?$CD?4?$CD?4?$CD?4?$CD?4?$CD?4?$CD?4?$CDav?4d?4daw@ 100d0924     bncs_cc02_edit.obj
 0003:000bebd8       ??_C@_0CLD@HJLP@Qt?4?$CD?4?$CD?4?$CD?4?$CD?4?$CD?4?$CD?4?$CD?4?$CD?4?$CD?4?$CD?4?$CDav?4d?4daw@ 100d0bd8     bncs_cc02_edit.obj
 0003:000bee8c       ??_C@_0CLD@PDPP@Qt?4?$CD?4?$CD?4?$CD?4?$CD?4?$CD?4?$CD?4?$CD?4?$CD?4?$CD?4?$CD?4?$CDav?4d?4daw@ 100d0e8c     bncs_cc02_edit.obj
 0003:000bf140       ??_C@_0CLD@OBIH@Qt?4?$CD?4?$CD?4?$CD?4?$CD?4?$CD?4?$CD?4?$CD?4?$CD?4?$CD?4?$CD?4?$CDav?4d?4daw@ 100d1140     bncs_cc02_edit.obj
 0003:000bf3f4       ??_C@_0CLD@PEGH@Qt?4?$CD?4?$CD?4?$CD?4?$CD?4?$CD?4?$CD?4?$CD?4?$CD?4?$CD?4?$CD?4?$CDav?4d?4daw@ 100d13f4     bncs_cc02_edit.obj
 0003:000bf6a8       ??_C@_0CLD@NBMG@Qt?4?$CD?4?$CD?4?$CD?4?$CD?4?$CD?4?$CD?4?$CD?4?$CD?4?$CD?4?$CD?4?$CDav?4d?4daw@ 100d16a8     bncs_cc02_edit.obj
 0003:000bf95c       ??_C@_0CLD@BFLM@Qt?4?$CD?4?$CD?4?$CD?4?$CD?4?$CD?4?$CD?4?$CD?4?$CD?4?$CD?4?$CD?4?$CDav?4d?4daw@ 100d195c     bncs_cc02_edit.obj
 0003:000bfc10       ??_C@_0CLD@LNDB@Qt?4?$CD?4?$CD?4?$CD?4?$CD?4?$CD?4?$CD?4?$CD?4?$CD?4?$CD?4?$CD?4?$CDav?4d?4daw@ 100d1c10     bncs_cc02_edit.obj
 0003:000bfec4       ??_C@_0CLD@JIDI@Qt?4?$CD?4?$CD?4?$CD?4?$CD?4?$CD?4?$CD?4?$CD?4?$CD?4?$CD?4?$CD?4?$CDtZ?4d?4dqY@ 100d1ec4     bncs_cc02_edit.obj
 0003:000c0178       ??_C@_0CLD@GNIL@Qt?4?$CD?4?$CD?4?$CD?4?$CD?4?$CDtmtngngngntotp?4d?4dtq@ 100d2178     bncs_cc02_edit.obj
 0003:000c042c       ??_C@_0CLD@OBOC@Qt?4?$CD?4?$CD?4?$CD?4?$CD?4?$CD?4X?4d?4d?4d?4d?4d?4d?4d?4d?4d@ 100d242c     bncs_cc02_edit.obj
 0003:000c06e0       ??_C@_0CLD@IPBB@Qt?4?$CD?4?$CD?4?$CD?4?$CD?4?$CDswsxpJpJpJpJpJpJpJpJ@ 100d26e0     bncs_cc02_edit.obj
 0003:000c0994       ??_C@_0CLD@FHLE@Qt?4?$CD?4?$CD?4?$CD?4?$CD?4?$CD?4?$CD?4?$CD?4?$CD?4?$CD?4?$CD?4?$CD?4?$CD?4?$CD?4?$CD?4?$CD@ 100d2994     bncs_cc02_edit.obj
 0003:000c0c48       ??_C@_0CLD@EDJO@Qt?4?$CD?4?$CD?4?$CD?4?$CD?4?$CD?4?$CD?4?$CD?4?$CD?4?$CD?4?$CD?4?$CD?4?$CD?4?$CD?4?$CD?4?$CD@ 100d2c48     bncs_cc02_edit.obj
 0003:000c0efc       ??_C@_0CLD@MGJL@Qt?4?$CD?4?$CD?4?$CD?4?$CD?4?$CD?4?$CD?4?$CD?4?$CD?4?$CD?4?$CD?4?$CD?4?$CD?4?$CD?4?$CD?4?$CD@ 100d2efc     bncs_cc02_edit.obj
 0003:000c11b0       ??_C@_0CLD@KGNN@Qt?4?$CD?4?$CD?4?$CD?4?$CD?4?$CD?4?$CD?4?$CD?4?$CD?4?$CD?4?$CD?4?$CD?4?$CD?4?$CD?4?$CD?4?$CD@ 100d31b0     bncs_cc02_edit.obj
 0003:000c1464       ??_C@_0CLD@OPIL@Qt?4?$CD?4?$CD?4?$CD?4?$CD?4?$CD?4?$CD?4?$CD?4?$CD?4?$CD?4?$CD?4?$CD?4?$CD?4?$CD?4?$CD?4?$CD@ 100d3464     bncs_cc02_edit.obj
 0003:000c1718       ??_C@_0CLD@OOLE@Qt?4?$CD?4?$CD?4?$CD?4?$CD?4?$CD?4?$CD?4?$CD?4?$CD?4?$CD?4?$CD?4?$CD?4?$CD?4?$CD?4?$CD?4?$CD@ 100d3718     bncs_cc02_edit.obj
 0003:000c19cc       ??_C@_0CLD@IPMA@Qt?4?$CD?4?$CD?4?$CD?4?$CD?4?$CD?4?$CD?4?$CD?4?$CD?4?$CD?4?$CD?4?$CD?4?$CD?4?$CD?4?$CD?4?$CD@ 100d39cc     bncs_cc02_edit.obj
 0003:000c1c80       ??_C@_0CLD@HBMN@Qt?4?$CD?4?$CD?4?$CD?4?$CD?4?$CD?4?$CD?4?$CD?4?$CD?4?$CD?4?$CD?4?$CD?4?$CD?4?$CD?4?$CD?4?$CD@ 100d3c80     bncs_cc02_edit.obj
 0003:000c1f34       ??_C@_0CLD@JODI@Qt?4?$CD?4?$CD?4?$CD?4?$CD?4?$CD?4?$CD?4?$CD?4?$CD?4?$CD?4?$CD?4?$CD?4?$CD?4?$CD?4?$CD?4?$CD@ 100d3f34     bncs_cc02_edit.obj
 0003:000c21e8       ??_C@_0CLD@ONAB@Qt?4?$CD?4?$CD?4?$CD?4?$CD?4?$CD?4?$CD?4?$CD?4?$CD?4?$CD?4?$CD?4?$CD?4?$CD?4?$CD?4?$CD?4?$CD@ 100d41e8     bncs_cc02_edit.obj
 0003:000c249c       ??_C@_0CLD@LBPH@Qt?4?$CD?4?$CD?4?$CD?4?$CD?4?$CD?4?$CD?4?$CD?4?$CD?4?$CD?4?$CD?4?$CD?4?$CD?4?$CD?4?$CD?4?$CD@ 100d449c     bncs_cc02_edit.obj
 0003:000c2750       ??_C@_0CLD@NHHE@Qt?4?$CD?4?$CD?4?$CD?4?$CD?4?$CD?4?$CD?4?$CD?4?$CD?4?$CD?4?$CD?4?$CD?4?$CD?4?$CD?4?$CD?4?$CD@ 100d4750     bncs_cc02_edit.obj
 0003:000c2a04       ??_C@_0CLD@GDIG@Qt?4?$CD?4?$CD?4?$CD?4?$CD?4?$CD?4?$CD?4?$CD?4?$CD?4?$CD?4?$CD?4?$CD?4?$CD?4?$CD?4?$CD?4?$CD@ 100d4a04     bncs_cc02_edit.obj
 0003:000c2cb8       ??_C@_0CLD@KAAP@Qt?4?$CD?4?$CD?4?$CD?4?$CD?4?$CD?4?$CD?4?$CD?4?$CD?4?$CD?4?$CD?4?$CD?4?$CD?4?$CD?4?$CD?4?$CD@ 100d4cb8     bncs_cc02_edit.obj
 0003:000c2f6c       ??_C@_0CLD@NGMB@Qt?4?$CD?4?$CD?4?$CD?4?$CD?4?$CD?4?$CD?4?$CD?4?$CD?4?$CD?4?$CD?4?$CD?4?$CD?4?$CD?4?$CD?4?$CD@ 100d4f6c     bncs_cc02_edit.obj
 0003:000c3220       ??_C@_0CLD@MGA@Qt?4?$CD?4?$CD?4?$CD?4?$CD?4?$CD?4?$CD?4?$CD?4?$CD?4?$CD?4?$CD?4?$CD?4?$CD?4?$CD?4?$CD?4?$CD@ 100d5220     bncs_cc02_edit.obj
 0003:000c34d4       ??_C@_0CLD@GLJE@Qt?4?$CD?4?$CD?4?$CD?4?$CD?4?$CD?4?$CD?4?$CD?4?$CD?4?$CD?4?$CD?4?$CD?4?$CD?4?$CD?4?$CD?4?$CD@ 100d54d4     bncs_cc02_edit.obj
 0003:000c3788       ??_C@_0CLD@IEHN@Qt?4?$CD?4?$CD?4?$CD?4?$CD?4?$CD?4?$CD?4?$CD?4?$CD?4?$CD?4?$CD?4?$CD?4?$CD?4?$CD?4?$CD?4?$CD@ 100d5788     bncs_cc02_edit.obj
 0003:000c3a3c       ??_C@_0CLD@KNKO@Qt?4?$CD?4?$CD?4?$CD?4?$CD?4?$CD?4?$CD?4?$CD?4?$CD?4?$CD?4?$CD?4?$CD?4?$CD?4?$CD?4?$CD?4?$CD@ 100d5a3c     bncs_cc02_edit.obj
 0003:000c3cf0       ??_C@_0CLD@LBHD@Qt?4?$CD?4?$CD?4?$CD?4?$CD?4?$CD?4?$CD?4?$CD?4?$CD?4?$CD?4?$CD?4?$CD?4?$CD?4?$CD?4?$CD?4?$CD@ 100d5cf0     bncs_cc02_edit.obj
 0003:000c3fa4       ??_C@_0CLD@JOBC@Qt?4?$CD?4?$CD?4?$CD?4?$CD?4?$CD?4?$CD?4?$CD?4?$CD?4?$CD?4?$CD?4?$CD?4?$CD?4?$CD?4?$CD?4?$CD@ 100d5fa4     bncs_cc02_edit.obj
 0003:000c4258       ??_C@_0CLD@HOF@Qt?4?$CD?4?$CD?4?$CD?4?$CD?4?$CD?4?$CD?4?$CD?4?$CD?4?$CD?4?$CD?4?$CD?4?$CD?4?$CD?4?$CD?4?$CD@ 100d6258     bncs_cc02_edit.obj
 0003:000c450c       ??_C@_0CLD@BPEO@Qt?4?$CD?4?$CD?4?$CD?4?$CD?4?$CD?4?$CD?4?$CD?4?$CD?4?$CD?4?$CD?4?$CD?4?$CD?4?$CD?4?$CD?4?$CD@ 100d650c     bncs_cc02_edit.obj
 0003:000c47c0       ??_C@_0CLD@KLBP@Qt?4?$CD?4?$CD?4?$CD?4?$CD?4?$CD?4?$CD?4?$CD?4?$CD?4?$CD?4?$CD?4?$CD?4?$CD?4?$CD?4?$CD?4?$CD@ 100d67c0     bncs_cc02_edit.obj
 0003:000c4a74       ??_C@_0CLD@HAPN@Qt?4?$CD?4?$CD?4?$CD?4?$CD?4?$CD?4?$CD?4?$CD?4?$CD?4?$CD?4?$CD?4?$CD?4?$CD?4?$CD?4?$CD?4?$CD@ 100d6a74     bncs_cc02_edit.obj
 0003:000c4d28       ??_C@_0CLD@OBEA@Qt?4?$CD?4?$CD?4?$CD?4?$CD?4?$CD?4?$CD?4?$CD?4?$CD?4?$CD?4?$CD?4?$CD?4?$CD?4?$CD?4?$CD?4?$CD@ 100d6d28     bncs_cc02_edit.obj
 0003:000c4fdc       ??_C@_0CLD@JFI@Qt?4?$CD?4?$CD?4?$CD?4?$CD?4?$CD?4?$CD?4?$CD?4?$CD?4?$CD?4?$CD?4?$CD?4?$CD?4?$CD?4?$CD?4?$CD@ 100d6fdc     bncs_cc02_edit.obj
 0003:000c5290       ??_C@_0CLD@GCPE@Qt?4?$CD?4?$CD?4?$CD?4?$CD?4?$CD?4?$CD?4?$CD?4?$CD?4?$CD?4?$CD?4?$CD?4?$CD?4?$CD?4?$CD?4?$CD@ 100d7290     bncs_cc02_edit.obj
 0003:000c5544       ??_C@_0CLD@EOKM@Qt?4?$CD?4?$CD?4?$CD?4?$CD?4?$CD?4?$CD?4?$CD?4?$CD?4?$CD?4?$CD?4?$CD?4?$CD?4?$CD?4?$CD?4?$CD@ 100d7544     bncs_cc02_edit.obj
 0003:000c57f8       ??_C@_0CLD@IGEO@Qt?4?$CD?4?$CD?4?$CD?4?$CD?4?$CD?4?$CD?4?$CD?4?$CD?4?$CD?4?$CD?4?$CD?4?$CD?4?$CD?4?$CD?4?$CD@ 100d77f8     bncs_cc02_edit.obj
 0003:000c5aac       ??_C@_0CLD@LPLL@Qt?4?$CD?4?$CD?4?$CD?4?$CD?4?$CD?4?$CD?4?$CD?4?$CD?4?$CD?4?$CD?4?$CD?4?$CD?4?$CD?4?$CD?4?$CD@ 100d7aac     bncs_cc02_edit.obj
 0003:000c5d60       ??_C@_0CLD@CDJB@Qt?4?$CD?4?$CD?4?$CD?4?$CD?4?$CD?4?$CD?4?$CD?4?$CD?4?$CD?4?$CD?4?$CD?4?$CD?4?$CD?4?$CD?4?$CD@ 100d7d60     bncs_cc02_edit.obj
 0003:000c6014       ??_C@_0CLD@EOCJ@Qt?4?$CD?4?$CD?4?$CD?4?$CD?4?$CD?4?$CD?4?$CD?4?$CD?4?$CD?4?$CD?4?$CD?4?$CD?4?$CD?4?$CD?4?$CD@ 100d8014     bncs_cc02_edit.obj
 0003:000c62c8       ??_C@_0CLD@DNDM@Qt?4?$CD?4?$CD?4?$CD?4?$CD?4?$CD?4?$CD?4?$CD?4?$CD?4?$CD?4?$CD?4?$CD?4?$CD?4?$CD?4?$CD?4?$CD@ 100d82c8     bncs_cc02_edit.obj
 0003:000c657c       ??_C@_0CLD@HKGK@Qt?4?$CD?4?$CD?4?$CD?4?$CD?4?$CD?4?$CD?4?$CD?4?$CD?4?$CD?4?$CD?4?$CD?4?$CD?4?$CD?4?$CD?4?$CD@ 100d857c     bncs_cc02_edit.obj
 0003:000c6830       ??_C@_0CLD@MPDC@Qt?4?$CD?4?$CD?4?$CD?4?$CD?4?$CD?4?$CD?4?$CD?4?$CD?4?$CD?4?$CD?4?$CD?4?$CD?4?$CD?4?$CD?4?$CD@ 100d8830     bncs_cc02_edit.obj
 0003:000c6ae4       ??_C@_0CLD@CLMK@Qt?4?$CD?4?$CD?4?$CD?4?$CD?4?$CD?4?$CD?4?$CD?4?$CD?4?$CD?4?$CD?4?$CD?4?$CD?4?$CD?4?$CD?4?$CD@ 100d8ae4     bncs_cc02_edit.obj
 0003:000c6d98       ??_C@_0CLD@OCMJ@Qt?4?$CD?4?$CD?4?$CD?4?$CD?4?$CD?4?$CD?4?$CD?4?$CD?4?$CD?4?$CD?4?$CD?4?$CD?4?$CD?4?$CD?4?$CD@ 100d8d98     bncs_cc02_edit.obj
 0003:000c704c       ??_C@_0CLD@ICHD@Qt?4?$CD?4?$CD?4?$CD?4?$CD?4?$CD?4?$CD?4?$CD?4?$CD?4?$CD?4?$CD?4?$CD?4?$CD?4?$CD?4?$CD?4?$CD@ 100d904c     bncs_cc02_edit.obj
 0003:000c7300       ??_C@_0CLD@CJIA@Qt?4?$CD?4?$CD?4?$CD?4?$CD?4?$CD?4?$CD?4?$CD?4?$CD?4?$CD?4?$CD?4?$CD?4?$CD?4?$CD?4?$CD?4?$CD@ 100d9300     bncs_cc02_edit.obj
 0003:000c75b4       ??_C@_0CLD@KLDP@Qt?4?$CD?4?$CD?4?$CD?4?$CD?4?$CD?4?$CD?4?$CD?4?$CD?4?$CD?4?$CD?4?$CD?4?$CD?4?$CD?4?$CD?4?$CD@ 100d95b4     bncs_cc02_edit.obj
 0003:000c7868       ??_C@_0CLD@BAE@Qt?4?$CD?4?$CD?4?$CD?4?$CD?4?$CD?4?$CD?4?$CD?4?$CD?4?$CD?4?$CD?4?$CD?4?$CD?4?$CD?4?$CD?4?$CD@ 100d9868     bncs_cc02_edit.obj
 0003:000c7b1c       ??_C@_0CLD@CLEJ@Qt?4?$CD?4?$CD?4?$CD?4?$CD?4?$CD?4?$CD?4?$CD?4?$CD?4?$CD?4?$CD?4?$CD?4?$CD?4?$CD?4?$CD?4?$CD@ 100d9b1c     bncs_cc02_edit.obj
 0003:000c7dd0       ??_C@_0CLD@CDJL@Qt?4?$CD?4?$CD?4?$CD?4?$CD?4?$CD?4?$CD?4?$CD?4?$CD?4?$CD?4?$CD?4?$CD?4?$CD?4?$CD?4?$CD?4?$CD@ 100d9dd0     bncs_cc02_edit.obj
 0003:000c8084       ??_C@_0CLD@EPGC@Qt?4?$CD?4?$CD?4?$CD?4?$CD?4?$CD?4?$CD?4?$CD?4?$CD?4?$CD?4?$CD?4?$CD?4?$CD?4?$CD?4?$CD?4?$CD@ 100da084     bncs_cc02_edit.obj
 0003:000c8338       ??_C@_0CLD@DMNO@Qt?4?$CD?4?$CD?4?$CD?4?$CD?4?$CD?4?$CD?4?$CD?4?$CD?4?$CD?4?$CD?4?$CD?4?$CD?4?$CD?4?$CD?4?$CD@ 100da338     bncs_cc02_edit.obj
 0003:000c85ec       ??_C@_0CLD@JJBA@Qt?4?$CD?4?$CD?4?$CD?4?$CD?4?$CD?4?$CD?4?$CD?4?$CD?4?$CD?4?$CD?4?$CD?4?$CD?4?$CD?4?$CD?4?$CD@ 100da5ec     bncs_cc02_edit.obj
 0003:000c88a0       ??_C@_0CLD@JKKJ@Qt?4?$CD?4?$CD?4?$CD?4?$CD?4?$CD?4?$CD?4?$CD?4?$CD?4?$CD?4?$CD?4?$CD?4?$CD?4?$CD?4?$CD?4?$CD@ 100da8a0     bncs_cc02_edit.obj
 0003:000c8b54       ??_C@_0CLD@FPBP@Qt?4?$CD?4?$CD?4?$CD?4?$CD?4?$CD?4?$CD?4?$CD?4?$CD?4?$CD?4?$CD?4?$CD?4?$CD?4?$CD?4?$CD?4?$CD@ 100dab54     bncs_cc02_edit.obj
 0003:000c8e08       ??_C@_0CLD@EDKG@Qt?4?$CD?4?$CD?4?$CD?4?$CD?4?$CD?4?$CD?4?$CD?4?$CD?4?$CD?4?$CD?4?$CD?4?$CD?4?$CD?4?$CD?4?$CD@ 100dae08     bncs_cc02_edit.obj
 0003:000c90bc       ??_C@_0CLD@BOJC@Qt?4?$CD?4?$CD?4?$CD?4?$CD?4?$CD?4?$CD?4?$CD?4?$CD?4?$CD?4?$CD?4?$CD?4?$CD?4?$CD?4?$CD?4?$CD@ 100db0bc     bncs_cc02_edit.obj
 0003:000c9370       ??_C@_0CLD@GBAE@Qt?4?$CD?4?$CD?4?$CD?4?$CD?4?$CD?4?$CD?4?$CD?4?$CD?4?$CD?4?$CD?4?$CD?4?$CD?4?$CD?4?$CD?4?$CD@ 100db370     bncs_cc02_edit.obj
 0003:000c9624       ??_C@_0CLD@GFEB@Qt?4?$CD?4?$CD?4?$CD?4?$CD?4?$CD?4?$CD?4?$CD?4?$CD?4?$CD?4?$CD?4?$CD?4?$CD?4?$CD?4?$CD?4?$CD@ 100db624     bncs_cc02_edit.obj
 0003:000c98d8       ??_C@_0CLD@OCII@Qt?4?$CD?4?$CD?4?$CD?4?$CD?4?$CD?4?$CD?4?$CD?4?$CD?4?$CD?4?$CD?4?$CD?4?$CD?4?$CD?4?$CD?4?$CD@ 100db8d8     bncs_cc02_edit.obj
 0003:000c9b8c       ??_C@_0CLD@JBHK@Qt?4?$CD?4?$CD?4?$CD?4?$CD?4?$CD?4?$CD?4?$CD?4?$CD?4?$CD?4?$CD?4?$CD?4?$CD?4?$CD?4?$CD?4?$CD@ 100dbb8c     bncs_cc02_edit.obj
 0003:000c9e40       ??_C@_0CLD@MGNO@Qt?4?$CD?4?$CD?4?$CD?4?$CD?4?$CD?4?$CD?4?$CD?4?$CD?4?$CD?4?$CD?4?$CD?4?$CD?4?$CD?4?$CD?4?$CD@ 100dbe40     bncs_cc02_edit.obj
 0003:000ca0f4       ??_C@_0CLD@JKMG@Qt?4?$CD?4?$CD?4?$CD?4?$CD?4?$CD?4?$CD?4?$CD?4?$CD?4?$CD?4?$CD?4?$CD?4?$CD?4?$CD?4?$CD?4?$CD@ 100dc0f4     bncs_cc02_edit.obj
 0003:000ca3a8       ??_C@_0CLD@OGHB@Qt?4?$CD?4?$CD?4?$CD?4?$CD?4?$CD?4?$CD?4?$CD?4?$CD?4?$CD?4?$CD?4?$CD?4?$CD?4?$CD?4?$CD?4?$CD@ 100dc3a8     bncs_cc02_edit.obj
 0003:000ca65c       ??_C@_0CLD@PGAP@Qt?4?$CD?4?$CD?4?$CD?4?$CD?4?$CD?4?$CD?4?$CD?4?$CD?4?$CD?4?$CD?4?$CD?4?$CD?4?$CD?4?$CD?4?$CD@ 100dc65c     bncs_cc02_edit.obj
 0003:000ca910       ??_C@_0CLD@BNGC@Qt?4?$CD?4?$CD?4?$CD?4?$CD?4?$CD?4?$CD?4?$CD?4?$CD?4?$CD?4?$CD?4?$CD?4?$CD?4?$CD?4?$CD?4?$CD@ 100dc910     bncs_cc02_edit.obj
 0003:000cabc4       ??_C@_0CLD@EDCE@Qt?4?$CD?4?$CD?4?$CD?4?$CD?4?$CD?4?$CD?4?$CD?4?$CD?4?$CD?4?$CD?4?$CD?4?$CD?4?$CD?4?$CD?4?$CD@ 100dcbc4     bncs_cc02_edit.obj
 0003:000cae78       ??_C@_0CLD@DHBP@Qt?4?$CD?4?$CD?4?$CD?4?$CD?4?$CD?4?$CD?4?$CD?4?$CD?4?$CD?4?$CD?4?$CD?4?$CD?4?$CD?4?$CD?4?$CD@ 100dce78     bncs_cc02_edit.obj
 0003:000cb12c       ??_C@_0CLD@FGCE@Qt?4?$CD?4?$CD?4?$CD?4?$CD?4?$CD?4?$CD?4?$CD?4?$CD?4?$CD?4?$CD?4?$CD?4?$CD?4?$CD?4?$CD?4?$CD@ 100dd12c     bncs_cc02_edit.obj
 0003:000cb3e0       ??_C@_0CLD@KDDF@Qt?4?$CD?4?$CD?4?$CD?4?$CD?4?$CD?4?$CD?4?$CD?4?$CD?4?$CD?4?$CD?4?$CD?4?$CD?4?$CD?4?$CD?4?$CD@ 100dd3e0     bncs_cc02_edit.obj
 0003:000cb694       ??_C@_0CLD@KFHO@Qt?4?$CD?4?$CD?4?$CD?4?$CD?4?$CD?4?$CD?4?$CD?4?$CD?4?$CD?4?$CD?4?$CD?4?$CD?4?$CD?4?$CD?4?$CD@ 100dd694     bncs_cc02_edit.obj
 0003:000cb948       ??_C@_0CLD@LKJK@Qt?4?$CD?4?$CD?4?$CD?4?$CD?4?$CD?4?$CD?4?$CD?4?$CD?4?$CD?4?$CD?4?$CD?4?$CD?4?$CD?4?$CD?4?$CD@ 100dd948     bncs_cc02_edit.obj
 0003:000cbbfc       ??_C@_0CLD@OGMM@Qt?4?$CD?4?$CD?4?$CD?4?$CD?4?$CD?4?$CD?4?$CD?4?$CD?4?$CD?4?$CD?4?$CD?4?$CD?4?$CD?4?$CD?4?$CD@ 100ddbfc     bncs_cc02_edit.obj
 0003:000cbeb0       ??_C@_0CLD@CHPH@Qt?4?$CD?4?$CD?4?$CD?4?$CD?4?$CD?4?$CD?4?$CD?4?$CD?4?$CD?4?$CD?4?$CD?4?$CD?4?$CD?4?$CD?4?$CD@ 100ddeb0     bncs_cc02_edit.obj
 0003:000cc164       ??_C@_0CLD@NBJD@Qt?4?$CD?4?$CD?4?$CD?4?$CD?4?$CD?4?$CD?4?$CD?4?$CD?4?$CD?4?$CD?4?$CD?4?$CD?4?$CD?4?$CD?4?$CD@ 100de164     bncs_cc02_edit.obj
 0003:000cc418       ??_C@_0CLD@FJDE@Qt?4?$CD?4?$CD?4?$CD?4?$CD?4?$CD?4?$CD?4?$CD?4?$CD?4?$CD?4?$CD?4?$CD?4?$CD?4?$CD?4?$CD?4?$CD@ 100de418     bncs_cc02_edit.obj
 0003:000cc6cc       ??_C@_0CLD@PADI@Qt?4?$CD?4?$CD?4?$CD?4?$CD?4?$CD?4?$CD?4?$CD?4?$CD?4?$CD?4?$CD?4?$CD?4?$CD?4?$CD?4?$CD?4?$CD@ 100de6cc     bncs_cc02_edit.obj
 0003:000cc980       ??_C@_0CLD@MPJL@Qt?4?$CD?4?$CD?4?$CD?4?$CD?4?$CD?4?$CD?4?$CD?4?$CD?4?$CD?4?$CD?4?$CD?4?$CD?4?$CD?4?$CD?4?$CD@ 100de980     bncs_cc02_edit.obj
 0003:000ccc34       ??_C@_0CLD@EMKK@Qt?4?$CD?4?$CD?4?$CD?4?$CD?4?$CD?4?$CD?4?$CD?4?$CD?4?$CD?4?$CD?4?$CD?4?$CD?4?$CD?4?$CD?4?$CD@ 100dec34     bncs_cc02_edit.obj
 0003:000ccee8       ??_C@_0CLD@CDI@Qt?4?$CD?4?$CD?4?$CD?4?$CD?4?$CD?4?$CD?4?$CD?4?$CD?4?$CD?4?$CD?4?$CD?4?$CD?4?$CD?4?$CD?4?$CD@ 100deee8     bncs_cc02_edit.obj
 0003:000cd19c       ??_C@_0CLD@FAAE@Qt?4?$CD?4?$CD?4?$CD?4?$CD?4?$CD?4?$CD?4?$CD?4?$CD?4?$CD?4?$CD?4?$CD?4?$CD?4?$CD?4?$CD?4?$CD@ 100df19c     bncs_cc02_edit.obj
 0003:000cd450       ??_C@_0CLD@ELAC@Qt?4?$CD?4?$CD?4?$CD?4?$CD?4?$CD?4?$CD?4?$CD?4?$CD?4?$CD?4?$CD?4?$CD?4?$CD?4?$CD?4?$CD?4?$CD@ 100df450     bncs_cc02_edit.obj
 0003:000cd704       ??_C@_0CLD@OEHB@Qt?4?$CD?4?$CD?4?$CD?4?$CD?4?$CD?4?$CD?4?$CD?4?$CD?4?$CD?4?$CD?4?$CD?4?$CD?4?$CD?4?$CD?4?$CD@ 100df704     bncs_cc02_edit.obj
 0003:000cd9b8       ??_C@_0CLD@JFEE@Qt?4?$CD?4?$CD?4?$CD?4?$CD?4?$CD?4?$CD?4?$CD?4?$CD?4?$CD?4?$CD?4?$CD?4?$CD?4?$CD?4?$CD?4?$CD@ 100df9b8     bncs_cc02_edit.obj
 0003:000cdc6c       ??_C@_0CLD@GPEA@Qt?4?$CD?4?$CD?4?$CD?4?$CD?4?$CD?4?$CD?4?$CD?4?$CD?4?$CD?4?$CD?4?$CD?4?$CD?4?$CD?4?$CD?4?$CD@ 100dfc6c     bncs_cc02_edit.obj
 0003:000cdf20       ??_C@_0CLD@IAPC@Qt?4?$CD?4?$CD?4?$CD?4?$CD?4?$CD?4?$CD?4?$CD?4?$CD?4?$CD?4?$CD?4?$CD?4?$CD?4?$CD?4?$CD?4?$CD@ 100dff20     bncs_cc02_edit.obj
 0003:000ce1d4       ??_C@_0CLD@KGHB@Qt?4?$CD?4?$CD?4?$CD?4?$CD?4?$CD?4?$CD?4?$CD?4?$CD?4?$CD?4?$CD?4?$CD?4?$CD?4?$CD?4?$CD?4?$CD@ 100e01d4     bncs_cc02_edit.obj
 0003:000ce488       ??_C@_0CLD@GFLJ@Qt?4?$CD?4?$CD?4?$CD?4?$CD?4?$CD?4?$CD?4?$CD?4?$CD?4?$CD?4?$CD?4?$CD?4?$CD?4?$CD?4?$CD?4?$CD@ 100e0488     bncs_cc02_edit.obj
 0003:000ce73c       ??_C@_0CLD@CHG@Qt?4?$CD?4?$CD?4?$CD?4?$CD?4?$CD?4?$CD?4?$CD?4?$CD?4?$CD?4?$CD?4?$CD?4?$CD?4?$CD?4?$CD?4?$CD@ 100e073c     bncs_cc02_edit.obj
 0003:000ce9f0       ??_C@_0CLD@EKAP@Qt?4?$CD?4?$CD?4?$CD?4?$CD?4?$CD?4?$CD?4?$CD?4?$CD?4?$CD?4?$CD?4?$CD?4?$CD?4?$CD?4?$CD?4?$CD@ 100e09f0     bncs_cc02_edit.obj
 0003:000ceca4       ??_C@_0CLD@DGNH@Qt?4?$CD?4?$CD?4?$CD?4?$CD?4?$CD?4?$CD?4?$CD?4?$CD?4?$CD?4?$CD?4?$CD?4?$CD?4?$CD?4?$CD?4?$CD@ 100e0ca4     bncs_cc02_edit.obj
 0003:000cef58       ??_C@_0CLD@MOHH@Qt?4?$CD?4?$CD?4?$CD?4?$CD?4?$CD?4?$CD?4?$CD?4?$CD?4?$CD?4?$CD?4?$CD?4?$CD?4?$CD?4?$CD?4?$CD@ 100e0f58     bncs_cc02_edit.obj
 0003:000cf20c       ??_C@_0CLD@BAJJ@Qt?4?$CD?4?$CD?4?$CD?4?$CD?4?$CD?4?$CD?4?$CD?4?$CD?4?$CD?4?$CD?4?$CD?4?$CD?4?$CD?4?$CD?4?$CD@ 100e120c     bncs_cc02_edit.obj
 0003:000cf4c0       ??_C@_0CLD@EKID@Qt?4?$CD?4?$CD?4?$CD?4?$CD?4?$CD?4?$CD?4?$CD?4?$CD?4?$CD?4?$CD?4?$CD?4?$CD?4?$CD?4?$CD?4?$CD@ 100e14c0     bncs_cc02_edit.obj
 0003:000cf774       ??_C@_0CLD@CFHP@Qt?4?$CD?4?$CD?4?$CD?4?$CD?4?$CD?4?$CD?4?$CD?4?$CD?4?$CD?4?$CD?4?$CD?4?$CD?4?$CD?4?$CD?4?$CD@ 100e1774     bncs_cc02_edit.obj
 0003:000cfa28       ??_C@_0CLD@JEL@Qt?4?$CD?4?$CD?4?$CD?4?$CD?4?$CD?4?$CD?4?$CD?4?$CD?4?$CD?4?$CD?4?$CD?4?$CD?4?$CD?4?$CD?4?$CD@ 100e1a28     bncs_cc02_edit.obj
 0003:000cfcdc       ??_C@_0CLD@IMCL@Qt?4?$CD?4?$CD?4?$CD?4?$CD?4?$CD?4?$CD?4?$CD?4?$CD?4?$CD?4?$CD?4?$CD?4?$CD?4?$CD?4?$CD?4?$CD@ 100e1cdc     bncs_cc02_edit.obj
 0003:000cff90       ??_C@_0CLD@PNJG@Qt?4?$CD?4?$CD?4?$CD?4?$CD?4?$CD?4?$CD?4?$CD?4?$CD?4?$CD?4?$CD?4?$CD?4?$CD?4?$CD?4?$CD?4?$CD@ 100e1f90     bncs_cc02_edit.obj
 0003:000d0244       ??_C@_0CLD@JIJF@Qt?4?$CD?4?$CD?4?$CD?4?$CD?4?$CD?4?$CD?4?$CD?4?$CD?4?$CD?4?$CD?4?$CD?4?$CD?4?$CD?4?$CD?4?$CD@ 100e2244     bncs_cc02_edit.obj
 0003:000d04f8       ??_C@_0CLD@EOGP@Qt?4?$CD?4?$CD?4?$CD?4?$CD?4?$CD?4?$CD?4?$CD?4?$CD?4?$CD?4?$CD?4?$CD?4?$CD?4?$CD?4?$CD?4?$CD@ 100e24f8     bncs_cc02_edit.obj
 0003:000d07ac       ??_C@_0CLD@EOCC@Qt?4?$CD?4?$CD?4?$CD?4?$CD?4?$CD?4?$CD?4?$CD?4?$CD?4?$CD?4?$CD?4?$CD?4?$CD?4?$CD?4?$CD?4?$CD@ 100e27ac     bncs_cc02_edit.obj
 0003:000d0a60       ??_C@_0CLD@IOCE@Qt?4?$CD?4?$CD?4?$CD?4?$CD?4?$CD?4?$CD?4?$CD?4?$CD?4?$CD?4?$CD?4?$CD?4?$CD?4?$CD?4?$CD?4?$CD@ 100e2a60     bncs_cc02_edit.obj
 0003:000d0d14       ??_C@_0CLD@DMKC@Qt?4?$CD?4?$CD?4?$CD?4?$CD?4?$CD?4?$CD?4?$CD?4?$CD?4?$CD?4?$CD?4?$CD?4?$CD?4?$CD?4?$CD?4?$CD@ 100e2d14     bncs_cc02_edit.obj
 0003:000d0fc8       ??_C@_0CLD@PNPA@Qt?4?$CD?4?$CD?4?$CD?4?$CD?4?$CD?4?$CD?4?$CD?4?$CD?4?$CD?4?$CD?4?$CD?4?$CD?4?$CD?4?$CD?4?$CD@ 100e2fc8     bncs_cc02_edit.obj
 0003:000d127c       ??_C@_0CLD@JCIK@Qt?4?$CD?4?$CD?4?$CD?4?$CD?4?$CD?4?$CD?4?$CD?4?$CD?4?$CD?4?$CD?4?$CD?4?$CD?4?$CD?4?$CD?4?$CD@ 100e327c     bncs_cc02_edit.obj
 0003:000d1530       ??_C@_0CLD@ODII@Qt?4?$CD?4?$CD?4?$CD?4?$CD?4?$CD?4?$CD?4?$CD?4?$CD?4?$CD?4?$CD?4?$CD?4?$CD?4?$CD?4?$CD?4?$CD@ 100e3530     bncs_cc02_edit.obj
 0003:000d17e4       ??_C@_0CLD@PBND@Qt?4?$CD?4?$CD?4?$CD?4?$CD?4?$CD?4?$CD?4?$CD?4?$CD?4?$CD?4?$CD?4?$CD?4?$CD?4?$CD?4?$CD?4?$CD@ 100e37e4     bncs_cc02_edit.obj
 0003:000d1a98       ??_C@_0CLD@MNJJ@Qt?4?$CD?4?$CD?4?$CD?4?$CD?4?$CD?4?$CD?4?$CD?4?$CD?4?$CD?4?$CD?4?$CD?4?$CD?4?$CD?4?$CD?4?$CD@ 100e3a98     bncs_cc02_edit.obj
 0003:000d1d4c       ??_C@_0CLD@JLFO@Qt?4?$CD?4?$CD?4?$CD?4?$CD?4?$CD?4?$CD?4?$CD?4?$CD?4?$CD?4?$CD?4?$CD?4?$CD?4?$CD?4?$CD?4?$CD@ 100e3d4c     bncs_cc02_edit.obj
 0003:000d2000       ??_C@_0CLD@HKCH@Qt?4?$CD?4?$CD?4?$CD?4?$CD?4?$CD?4?$CD?4?$CD?4?$CD?4?$CD?4?$CD?4?$CD?4?$CD?4?$CD?4?$CD?4?$CD@ 100e4000     bncs_cc02_edit.obj
 0003:000d22b4       ??_C@_0CLD@OFIJ@Qt?4?$CD?4?$CD?4?$CD?4?$CD?4?$CD?4?$CD?4?$CD?4?$CD?4?$CD?4?$CD?4?$CD?4?$CD?4?$CD?4?$CD?4?$CD@ 100e42b4     bncs_cc02_edit.obj
 0003:000d2568       ??_C@_0CLD@IMJJ@Qt?4?$CD?4?$CD?4?$CD?4?$CD?4?$CD?4?$CD?4?$CD?4?$CD?4?$CD?4?$CD?4?$CD?4?$CD?4?$CD?4?$CD?4?$CD@ 100e4568     bncs_cc02_edit.obj
 0003:000d281c       ??_C@_0CLD@OGPE@Qt?4?$CD?4?$CD?4?$CD?4?$CD?4?$CD?4?$CD?4?$CD?4?$CD?4?$CD?4?$CD?4?$CD?4?$CD?4?$CD?4?$CD?4?$CD@ 100e481c     bncs_cc02_edit.obj
 0003:000d2ad0       ??_C@_0CLD@BEHJ@Qt?4?$CD?4?$CD?4?$CD?4?$CD?4?$CD?4?$CD?4?$CD?4?$CD?4?$CD?4?$CD?4?$CD?4?$CD?4?$CD?4?$CD?4?$CD@ 100e4ad0     bncs_cc02_edit.obj
 0003:000d2d84       ??_C@_0CLD@GIDN@Qt?4?$CD?4?$CD?4?$CD?4?$CD?4?$CD?4?$CD?4?$CD?4?$CD?4?$CD?4?$CD?4?$CD?4?$CD?4?$CD?4?$CD?4?$CD@ 100e4d84     bncs_cc02_edit.obj
 0003:000d3038       ??_C@_0CLD@ODBP@Qt?4?$CD?4?$CD?4?$CD?4?$CD?4?$CD?4?$CD?4?$CD?4?$CD?4?$CD?4?$CD?4?$CD?4?$CD?4?$CD?4?$CD?4?$CD@ 100e5038     bncs_cc02_edit.obj
 0003:000d32ec       ??_C@_0CLD@BJGN@Qt?4?$CD?4?$CD?4?$CD?4?$CD?4?$CD?4?$CD?4?$CD?4?$CD?4?$CD?4?$CD?4?$CD?4?$CD?4?$CD?4?$CD?4?$CD@ 100e52ec     bncs_cc02_edit.obj
 0003:000d35a0       ??_C@_0CLD@DKGH@Qt?4?$CD?4?$CD?4?$CD?4?$CD?4?$CD?4?$CD?4?$CD?4?$CD?4?$CD?4?$CD?4?$CD?4?$CD?4?$CD?4?$CD?4?$CD@ 100e55a0     bncs_cc02_edit.obj
 0003:000d3854       ??_C@_0CLD@GENF@Qt?4?$CD?4?$CD?4?$CD?4?$CD?4?$CD?4?$CD?4?$CD?4?$CD?4?$CD?4?$CD?4?$CD?4?$CD?4?$CD?4?$CD?4?$CD@ 100e5854     bncs_cc02_edit.obj
 0003:000d3b08       ??_C@_0CLD@NLM@Qt?4?$CD?4?$CD?4?$CD?4?$CD?4?$CD?4?$CD?4?$CD?4?$CD?4?$CD?4?$CD?4?$CD?4?$CD?4?$CD?4?$CD?4?$CD@ 100e5b08     bncs_cc02_edit.obj
 0003:000d3dbc       ??_C@_0CLD@NMOL@Qt?4?$CD?4?$CD?4?$CD?4?$CD?4?$CD?4?$CD?4?$CD?4?$CD?4?$CD?4?$CD?4?$CD?4?$CD?4?$CD?4?$CD?4?$CD@ 100e5dbc     bncs_cc02_edit.obj
 0003:000d4070       ??_C@_0CLD@HJIK@Qt?4?$CD?4?$CD?4?$CD?4?$CD?4?$CD?4?$CD?4?$CD?4?$CD?4?$CD?4?$CD?4?$CD?4?$CD?4?$CD?4?$CD?4?$CD@ 100e6070     bncs_cc02_edit.obj
 0003:000d4324       ??_C@_0CLD@NLOD@Qt?4?$CD?4?$CD?4?$CD?4?$CD?4?$CD?4?$CD?4?$CD?4?$CD?4?$CD?4?$CD?4?$CD?4?$CD?4?$CD?4?$CD?4?$CD@ 100e6324     bncs_cc02_edit.obj
 0003:000d45d8       ??_C@_0CLD@CAHE@Qt?4?$CD?4?$CD?4?$CD?4?$CD?4?$CD?4?$CD?4?$CD?4?$CD?4?$CD?4?$CD?4?$CD?4?$CD?4?$CD?4?$CD?4?$CD@ 100e65d8     bncs_cc02_edit.obj
 0003:000d488c       ??_C@_0CLD@KLLP@Qt?4?$CD?4?$CD?4?$CD?4?$CD?4?$CD?4?$CD?4?$CD?4?$CD?4?$CD?4?$CD?4?$CD?4?$CD?4?$CD?4?$CD?4?$CD@ 100e688c     bncs_cc02_edit.obj
 0003:000d4b40       ??_C@_0CLD@MAGC@Qt?4?$CD?4?$CD?4?$CD?4?$CD?4?$CD?4?$CD?4?$CD?4?$CD?4?$CD?4?$CD?4?$CD?4?$CD?4?$CD?4?$CD?4?$CD@ 100e6b40     bncs_cc02_edit.obj
 0003:000d4df4       ??_C@_0CLD@OMJI@Qt?4?$CD?4?$CD?4?$CD?4?$CD?4?$CD?4?$CD?4?$CD?4?$CD?4?$CD?4?$CD?4?$CD?4?$CD?4?$CD?4?$CD?4?$CD@ 100e6df4     bncs_cc02_edit.obj
 0003:000d50a8       ??_C@_0CLD@LPCA@Qt?4?$CD?4?$CD?4?$CD?4?$CD?4?$CD?4?$CD?4?$CD?4?$CD?4?$CD?4?$CD?4?$CD?4?$CD?4?$CD?4?$CD?4?$CD@ 100e70a8     bncs_cc02_edit.obj
 0003:000d535c       ??_C@_0CLD@OKH@Qt?4?$CD?4?$CD?4?$CD?4?$CD?4?$CD?4?$CD?4?$CD?4?$CD?4?$CD?4?$CD?4?$CD?4?$CD?4?$CD?4?$CD?4?$CD@ 100e735c     bncs_cc02_edit.obj
 0003:000d5610       ??_C@_0CLD@FCGK@Qt?4?$CD?4?$CD?4?$CD?4?$CD?4?$CD?4?$CD?4?$CD?4?$CD?4?$CD?4?$CD?4?$CD?4?$CD?4?$CD?4?$CD?4?$CD@ 100e7610     bncs_cc02_edit.obj
 0003:000d58c4       ??_C@_0CLD@OCEN@Qt?4?$CD?4?$CD?4?$CD?4?$CD?4?$CD?4?$CD?4?$CD?4?$CD?4?$CD?4?$CD?4?$CD?4?$CD?4?$CD?4?$CD?4?$CD@ 100e78c4     bncs_cc02_edit.obj
 0003:000d5b78       ??_C@_0CLD@LBOF@Qt?4?$CD?4?$CD?4?$CD?4?$CD?4?$CD?4?$CD?4?$CD?4?$CD?4?$CD?4?$CD?4?$CD?4?$CD?4?$CD?4?$CD?4?$CD@ 100e7b78     bncs_cc02_edit.obj
 0003:000d5e2c       ??_C@_0CLD@NGMP@Qt?4?$CD?4?$CD?4?$CD?4?$CD?4?$CD?4?$CD?4?$CD?4?$CD?4?$CD?4?$CD?4?$CD?4?$CD?4?$CD?4?$CD?4?$CD@ 100e7e2c     bncs_cc02_edit.obj
 0003:000d60e0       ??_C@_0CLD@KODH@Qt?4?$CD?4?$CD?4?$CD?4?$CD?4?$CD?4?$CD?4?$CD?4?$CD?4?$CD?4?$CD?4?$CD?4?$CD?4?$CD?4?$CD?4?$CD@ 100e80e0     bncs_cc02_edit.obj
 0003:000d6394       ??_C@_0CLD@IJGJ@Qt?4?$CD?4?$CD?4?$CD?4?$CD?4?$CD?4?$CD?4?$CD?4?$CD?4?$CD?4?$CD?4?$CD?4?$CD?4?$CD?4?$CD?4?$CD@ 100e8394     bncs_cc02_edit.obj
 0003:000d6648       ??_C@_0CLD@IDME@Qt?4?$CD?4?$CD?4?$CD?4?$CD?4?$CD?4?$CD?4?$CD?4?$CD?4?$CD?4?$CD?4?$CD?4?$CD?4?$CD?4?$CD?4?$CD@ 100e8648     bncs_cc02_edit.obj
 0003:000d68fc       ??_C@_0CLD@EEBJ@Qt?4?$CD?4?$CD?4?$CD?4?$CD?4?$CD?4?$CD?4?$CD?4?$CD?4?$CD?4?$CD?4?$CD?4?$CD?4?$CD?4?$CD?4?$CD@ 100e88fc     bncs_cc02_edit.obj
 0003:000d6bb0       ??_C@_0CLD@IJKB@Qt?4?$CD?4?$CD?4?$CD?4?$CD?4?$CD?4?$CD?4?$CD?4?$CD?4?$CD?4?$CD?4?$CD?4?$CD?4?$CD?4?$CD?4?$CD@ 100e8bb0     bncs_cc02_edit.obj
 0003:000d6e64       ??_C@_0CLD@BPJL@Qt?4?$CD?4?$CD?4?$CD?4?$CD?4?$CD?4?$CD?4?$CD?4?$CD?4?$CD?4?$CD?4?$CD?4?$CD?4?$CD?4?$CD?4?$CD@ 100e8e64     bncs_cc02_edit.obj
 0003:000d7118       ??_C@_0CLD@FLNA@Qt?4?$CD?4?$CD?4?$CD?4?$CD?4?$CD?4?$CD?4?$CD?4?$CD?4?$CD?4?$CD?4?$CD?4?$CD?4?$CD?4?$CD?4?$CD@ 100e9118     bncs_cc02_edit.obj
 0003:000d73cc       ??_C@_0CLD@NMEL@Qt?4?$CD?4?$CD?4?$CD?4?$CD?4?$CD?4?$CD?4?$CD?4?$CD?4?$CD?4?$CD?4?$CD?4?$CD?4?$CD?4?$CD?4?$CD@ 100e93cc     bncs_cc02_edit.obj
 0003:000d7680       ??_C@_0CLD@JIJA@Qt?4?$CD?4?$CD?4?$CD?4?$CD?4?$CD?4?$CD?4?$CD?4?$CD?4?$CD?4?$CD?4?$CD?4?$CD?4?$CD?4?$CD?4?$CD@ 100e9680     bncs_cc02_edit.obj
 0003:000d7934       ??_C@_0CLD@EFIN@Qt?4?$CD?4?$CD?4?$CD?4?$CD?4?$CD?4?$CD?4?$CD?4?$CD?4?$CD?4?$CD?4?$CD?4?$CD?4?$CD?4?$CD?4?$CD@ 100e9934     bncs_cc02_edit.obj
 0003:000d7be8       ??_C@_0CLD@IJH@Qt?4?$CD?4?$CD?4?$CD?4?$CD?4?$CD?4?$CD?4?$CD?4?$CD?4?$CD?4?$CD?4?$CD?4?$CD?4?$CD?4?$CD?4?$CD@ 100e9be8     bncs_cc02_edit.obj
 0003:000d7e9c       ??_C@_0CLD@GJHC@Qt?4?$CD?4?$CD?4?$CD?4?$CD?4?$CD?4?$CD?4?$CD?4?$CD?4?$CD?4?$CD?4?$CD?4?$CD?4?$CD?4?$CD?4?$CD@ 100e9e9c     bncs_cc02_edit.obj
 0003:000d8150       ??_C@_0CLD@JLKF@Qt?4?$CD?4?$CD?4?$CD?4?$CD?4?$CD?4?$CD?4?$CD?4?$CD?4?$CD?4?$CD?4?$CD?4?$CD?4?$CD?4?$CD?4?$CD@ 100ea150     bncs_cc02_edit.obj
 0003:000d8404       ??_C@_0CLD@KAPD@Qt?4?$CD?4?$CD?4?$CD?4?$CD?4?$CD?4?$CD?4?$CD?4?$CD?4?$CD?4?$CD?4?$CD?4?$CD?4?$CD?4?$CD?4?$CD@ 100ea404     bncs_cc02_edit.obj
 0003:000d86b8       ??_C@_0CLD@GLKO@Qt?4?$CD?4?$CD?4?$CD?4?$CD?4?$CD?4?$CD?4?$CD?4?$CD?4?$CD?4?$CD?4?$CD?4?$CD?4?$CD?4?$CD?4?$CD@ 100ea6b8     bncs_cc02_edit.obj
 0003:000d896c       ??_C@_0CLD@FPHH@Qt?4?$CD?4?$CD?4?$CD?4?$CD?4?$CD?4?$CD?4?$CD?4?$CD?4?$CD?4?$CD?4?$CD?4?$CD?4?$CD?4?$CD?4?$CD@ 100ea96c     bncs_cc02_edit.obj
 0003:000d8c20       ??_C@_0CLD@DBPN@Qt?4?$CD?4?$CD?4?$CD?4?$CD?4?$CD?4?$CD?4?$CD?4?$CD?4?$CD?4?$CD?4?$CD?4?$CD?4?$CD?4?$CD?4?$CD@ 100eac20     bncs_cc02_edit.obj
 0003:000d8ed4       ??_C@_0CLD@CELA@Qt?4?$CD?4?$CD?4?$CD?4?$CD?4?$CD?4?$CD?4?$CD?4?$CD?4?$CD?4?$CD?4?$CD?4?$CD?4?$CD?4?$CD?4?$CD@ 100eaed4     bncs_cc02_edit.obj
 0003:000d9188       ??_C@_0CLD@KOBL@Qt?4?$CD?4?$CD?4?$CD?4?$CD?4?$CD?4?$CD?4?$CD?4?$CD?4?$CD?4?$CD?4?$CD?4?$CD?4?$CD?4?$CD?4?$CD@ 100eb188     bncs_cc02_edit.obj
 0003:000d943c       ??_C@_0CLD@LFBO@Qt?4?$CD?4?$CD?4?$CD?4?$CD?4?$CD?4?$CD?4?$CD?4?$CD?4?$CD?4?$CD?4?$CD?4?$CD?4?$CD?4?$CD?4?$CD@ 100eb43c     bncs_cc02_edit.obj
 0003:000d96f0       ??_C@_0CLD@OKAG@Qt?4?$CD?4?$CD?4?$CD?4?$CD?4?$CD?4?$CD?4?$CD?4?$CD?4?$CD?4?$CD?4?$CD?4?$CD?4?$CD?4?$CD?4?$CD@ 100eb6f0     bncs_cc02_edit.obj
 0003:000d99a4       ??_C@_0CLD@PILD@Qt?4?$CD?4?$CD?4?$CD?4?$CD?4?$CD?4?$CD?4?$CD?4?$CD?4?$CD?4?$CD?4?$CD?4?$CD?4?$CD?4?$CD?4?$CD@ 100eb9a4     bncs_cc02_edit.obj
 0003:000d9c58       ??_C@_0CLD@OCFC@Qt?4?$CD?4?$CD?4?$CD?4?$CD?4?$CD?4?$CD?4?$CD?4?$CD?4?$CD?4?$CD?4?$CD?4?$CD?4?$CD?4?$CD?4?$CD@ 100ebc58     bncs_cc02_edit.obj
 0003:000d9f0c       ??_C@_0CLD@BGHE@Qt?4?$CD?4?$CD?4?$CD?4?$CD?4?$CD?4?$CD?4?$CD?4?$CD?4?$CD?4?$CD?4?$CD?4?$CD?4?$CD?4?$CD?4?$CD@ 100ebf0c     bncs_cc02_edit.obj
 0003:000da1c0       ??_C@_0CLD@BJC@Qt?4?$CD?4?$CD?4?$CD?4?$CD?4?$CD?4?$CD?4?$CD?4?$CD?4?$CD?4?$CD?4?$CD?4?$CD?4?$CD?4?$CD?4?$CD@ 100ec1c0     bncs_cc02_edit.obj
 0003:000da474       ??_C@_0CLD@JHIF@Qt?4?$CD?4?$CD?4?$CD?4?$CD?4?$CD?4?$CD?4?$CD?4?$CD?4?$CD?4?$CD?4?$CD?4?$CD?4?$CD?4?$CD?4?$CD@ 100ec474     bncs_cc02_edit.obj
 0003:000da728       ??_C@_0CLD@FHBA@Qt?4?$CD?4?$CD?4?$CD?4?$CD?4?$CD?4?$CD?4?$CD?4?$CD?4?$CD?4?$CD?4?$CD?4?$CD?4?$CD?4?$CD?4?$CD@ 100ec728     bncs_cc02_edit.obj
 0003:000da9dc       ??_C@_0CLD@JNKF@Qt?4?$CD?4?$CD?4?$CD?4?$CD?4?$CD?4?$CD?4?$CD?4?$CD?4?$CD?4?$CD?4?$CD?4?$CD?4?$CD?4?$CD?4?$CD@ 100ec9dc     bncs_cc02_edit.obj
 0003:000dac90       ??_C@_0CLD@MLLC@Qt?4?$CD?4?$CD?4?$CD?4?$CD?4?$CD?4?$CD?4?$CD?4?$CD?4?$CD?4?$CD?4?$CD?4?$CD?4?$CD?4?$CD?4?$CD@ 100ecc90     bncs_cc02_edit.obj
 0003:000daf44       ??_C@_0CLD@GAM@Qt?4?$CD?4?$CD?4?$CD?4?$CD?4?$CD?4?$CD?4?$CD?4?$CD?4?$CD?4?$CD?4?$CD?4?$CD?4?$CD?4?$CD?4?$CD@ 100ecf44     bncs_cc02_edit.obj
 0003:000db1f8       ??_C@_0CLD@BDHL@Qt?4?$CD?4?$CD?4?$CD?4?$CD?4?$CD?4?$CD?4?$CD?4?$CD?4?$CD?4?$CD?4?$CD?4?$CD?4?$CD?4?$CD?4?$CD@ 100ed1f8     bncs_cc02_edit.obj
 0003:000db4ac       ??_C@_0CLD@IHEH@Qt?4?$CD?4?$CD?4?$CD?4?$CD?4?$CD?4?$CD?4?$CD?4?$CD?4?$CD?4?$CD?4?$CD?4?$CD?4?$CD?4?$CD?4?$CD@ 100ed4ac     bncs_cc02_edit.obj
 0003:000db760       ??_C@_0CLD@BDPH@Qt?4?$CD?4?$CD?4?$CD?4?$CD?4?$CD?4?$CD?4?$CD?4?$CD?4?$CD?4?$CD?4?$CD?4?$CD?4?$CD?4?$CD?4?$CD@ 100ed760     bncs_cc02_edit.obj
 0003:000dba14       ??_C@_0CLD@OHC@Qt?4?$CD?4?$CD?4?$CD?4?$CD?4?$CD?4?$CD?4?$CD?4?$CD?4?$CD?4?$CD?4?$CD?4?$CD?4?$CD?4?$CD?4?$CD@ 100eda14     bncs_cc02_edit.obj
 0003:000dbcc8       ??_C@_0CLD@GDEC@Qt?4?$CD?4?$CD?4?$CD?4?$CD?4?$CD?4?$CD?4?$CD?4?$CD?4?$CD?4?$CD?4?$CD?4?$CD?4?$CD?4?$CD?4?$CD@ 100edcc8     bncs_cc02_edit.obj
 0003:000dbf7c       ??_C@_0CLD@FCBN@Qt?4?$CD?4?$CD?4?$CD?4?$CD?4?$CD?4?$CD?4?$CD?4?$CD?4?$CD?4?$CD?4?$CD?4?$CD?4?$CD?4?$CD?4?$CD@ 100edf7c     bncs_cc02_edit.obj
 0003:000dc230       ??_C@_0CLD@NEMN@Qt?4?$CD?4?$CD?4?$CD?4?$CD?4?$CD?4?$CD?4?$CD?4?$CD?4?$CD?4?$CD?4?$CD?4?$CD?4?$CD?4?$CD?4?$CD@ 100ee230     bncs_cc02_edit.obj
 0003:000dc4e4       ??_C@_0CLD@NLCG@Qt?4?$CD?4?$CD?4?$CD?4?$CD?4?$CD?4?$CD?4?$CD?4?$CD?4?$CD?4?$CD?4?$CD?4?$CD?4?$CD?4?$CD?4?$CD@ 100ee4e4     bncs_cc02_edit.obj
 0003:000dc798       ??_C@_0CLD@DKDK@Qt?4?$CD?4?$CD?4?$CD?4?$CD?4?$CD?4?$CD?4?$CD?4?$CD?4?$CD?4?$CD?4?$CD?4?$CD?4?$CD?4?$CD?4?$CD@ 100ee798     bncs_cc02_edit.obj
 0003:000dca4c       ??_C@_0CLD@NDJI@Qt?4?$CD?4?$CD?4?$CD?4?$CD?4?$CD?4?$CD?4?$CD?4?$CD?4?$CD?4?$CD?4?$CD?4?$CD?4?$CD?4?$CD?4?$CD@ 100eea4c     bncs_cc02_edit.obj
 0003:000dcd00       ??_C@_0CLD@JCKP@Qt?4?$CD?4?$CD?4?$CD?4?$CD?4?$CD?4?$CD?4?$CD?4?$CD?4?$CD?4?$CD?4?$CD?4?$CD?4?$CD?4?$CD?4?$CD@ 100eed00     bncs_cc02_edit.obj
 0003:000dcfb4       ??_C@_0CLD@DMJC@Qt?4?$CD?4?$CD?4?$CD?4?$CD?4?$CD?4?$CD?4?$CD?4?$CD?4?$CD?4?$CD?4?$CD?4?$CD?4?$CD?4?$CD?4?$CD@ 100eefb4     bncs_cc02_edit.obj
 0003:000dd268       ??_C@_0CLD@GGLK@Qt?4?$CD?4?$CD?4?$CD?4?$CD?4?$CD?4?$CD?4?$CD?4?$CD?4?$CD?4?$CD?4?$CD?4?$CD?4?$CD?4?$CD?4?$CD@ 100ef268     bncs_cc02_edit.obj
 0003:000dd51c       ??_C@_0CLD@NEPK@Qt?4?$CD?4?$CD?4?$CD?4?$CD?4?$CD?4?$CD?4?$CD?4?$CD?4?$CD?4?$CD?4?$CD?4?$CD?4?$CD?4?$CD?4?$CD@ 100ef51c     bncs_cc02_edit.obj
 0003:000dd7d0       ??_C@_0CLD@OIPB@Qt?4?$CD?4?$CD?4?$CD?4?$CD?4?$CD?4?$CD?4?$CD?4?$CD?4?$CD?4?$CD?4?$CD?4?$CD?4?$CD?4?$CD?4?$CD@ 100ef7d0     bncs_cc02_edit.obj
 0003:000dda84       ??_C@_0CLD@DGHG@Qt?4?$CD?4?$CD?4?$CD?4?$CD?4?$CD?4?$CD?4?$CD?4?$CD?4?$CD?4?$CD?4?$CD?4?$CD?4?$CD?4?$CD?4?$CD@ 100efa84     bncs_cc02_edit.obj
 0003:000ddd38       ??_C@_0CLD@IPCI@Qt?4?$CD?4?$CD?4?$CD?4?$CD?4?$CD?4?$CD?4?$CD?4?$CD?4?$CD?4?$CD?4?$CD?4?$CD?4?$CD?4?$CD?4?$CD@ 100efd38     bncs_cc02_edit.obj
 0003:000ddfec       ??_C@_0CLD@KKPI@Qt?4?$CD?4?$CD?4?$CD?4?$CD?4?$CD?4?$CD?4?$CD?4?$CD?4?$CD?4?$CD?4?$CD?4?$CD?4?$CD?4?$CD?4?$CD@ 100effec     bncs_cc02_edit.obj
 0003:000de2a0       ??_C@_0CLD@LLD@Qt?4?$CD?4?$CD?4?$CD?4?$CD?4?$CD?4?$CD?4?$CD?4?$CD?4?$CD?4?$CD?4?$CD?4?$CD?4?$CD?4?$CD?4?$CD@ 100f02a0     bncs_cc02_edit.obj
 0003:000de554       ??_C@_0CLD@PNDN@Qt?4?$CD?4?$CD?4?$CD?4?$CD?4?$CD?4?$CD?4?$CD?4?$CD?4?$CD?4?$CD?4?$CD?4?$CD?4?$CD?4?$CD?4?$CD@ 100f0554     bncs_cc02_edit.obj
 0003:000de808       ??_C@_0CLD@OMAN@Qt?4?$CD?4?$CD?4?$CD?4?$CD?4?$CD?4?$CD?4?$CD?4?$CD?4?$CD?4?$CD?4?$CD?4?$CD?4?$CD?4?$CD?4?$CD@ 100f0808     bncs_cc02_edit.obj
 0003:000deabc       ??_C@_0CLD@GBEK@Qt?4?$CD?4?$CD?4?$CD?4?$CD?4?$CD?4?$CD?4?$CD?4?$CD?4?$CD?4?$CD?4?$CD?4?$CD?4?$CD?4?$CD?4?$CD@ 100f0abc     bncs_cc02_edit.obj
 0003:000ded70       ??_C@_0CLD@NEOH@Qt?4?$CD?4?$CD?4?$CD?4?$CD?4?$CD?4?$CD?4?$CD?4?$CD?4?$CD?4?$CD?4?$CD?4?$CD?4?$CD?4?$CD?4?$CD@ 100f0d70     bncs_cc02_edit.obj
 0003:000df024       ??_C@_0CLD@PNAD@Qt?4?$CD?4?$CD?4?$CD?4?$CD?4?$CD?4?$CD?4?$CD?4?$CD?4?$CD?4?$CD?4?$CD?4?$CD?4?$CD?4?$CD?4?$CD@ 100f1024     bncs_cc02_edit.obj
 0003:000df2d8       ??_C@_0CLD@DFGO@Qt?4?$CD?4?$CD?4?$CD?4?$CD?4?$CD?4?$CD?4?$CD?4?$CD?4?$CD?4?$CD?4?$CD?4?$CD?4?$CD?4?$CD?4?$CD@ 100f12d8     bncs_cc02_edit.obj
 0003:000df58c       ??_C@_0CLD@PKFA@Qt?4?$CD?4?$CD?4?$CD?4?$CD?4?$CD?4?$CD?4?$CD?4?$CD?4?$CD?4?$CD?4?$CD?4?$CD?4?$CD?4?$CD?4?$CD@ 100f158c     bncs_cc02_edit.obj
 0003:000df840       ??_C@_0CLD@PDEO@Qt?4?$CD?4?$CD?4?$CD?4?$CD?4?$CD?4?$CD?4?$CD?4?$CD?4?$CD?4?$CD?4?$CDfpfqfrc0@ 100f1840     bncs_cc02_edit.obj
 0003:000dfaf4       ??_C@_0CLD@HAAD@Qt?4?$CD?4?$CD?4?$CD?4?$CD?4?$CD?4?$CD?4?$CD?4?$CD?4?$CD?4?$CD?4?$CDeW?4d?4deX@ 100f1af4     bncs_cc02_edit.obj
 0003:000dfda8       ??_C@_0CLD@DGOH@Qt?4?$CD?4?$CD?4?$CD?4?$CD?4?$CD?4?$CD?4?$CD?4?$CD?4?$CD?4?$CD?4?$CDav?4d?4daw@ 100f1da8     bncs_cc02_edit.obj
 0003:000e005c       ??_C@_0CLD@MODL@Qt?4?$CD?4?$CD?4?$CD?4?$CD?4?$CD?4?$CD?4?$CD?4?$CD?4?$CD?4?$CD?4?$CDav?4d?4daw@ 100f205c     bncs_cc02_edit.obj
 0003:000e0310       ??_C@_0CLD@CLNL@Qt?4?$CD?4?$CD?4?$CD?4?$CD?4?$CD?4?$CD?4?$CD?4?$CD?4?$CD?4?$CD?4?$CDav?4d?4daw@ 100f2310     bncs_cc02_edit.obj
 0003:000e05c4       ??_C@_0CLD@BFBA@Qt?4?$CD?4?$CD?4?$CD?4?$CD?4?$CD?4?$CD?4?$CD?4?$CD?4?$CD?4?$CD?4?$CDav?4d?4daw@ 100f25c4     bncs_cc02_edit.obj
 0003:000e0878       ??_C@_0CLD@MLGP@Qt?4?$CD?4?$CD?4?$CD?4?$CD?4?$CD?4?$CD?4?$CD?4?$CD?4?$CD?4?$CD?4?$CDav?4d?4daw@ 100f2878     bncs_cc02_edit.obj
 0003:000e0b2c       ??_C@_0CLD@DHJK@Qt?4?$CD?4?$CD?4?$CD?4?$CD?4?$CD?4?$CD?4?$CD?4?$CD?4?$CD?4?$CD?4?$CDav?4d?4daw@ 100f2b2c     bncs_cc02_edit.obj
 0003:000e0de0       ??_C@_0CLD@EELK@Qt?4?$CD?4?$CD?4?$CD?4?$CD?4?$CD?4?$CD?4?$CD?4?$CD?4?$CD?4?$CD?4?$CDav?4d?4daw@ 100f2de0     bncs_cc02_edit.obj
 0003:000e1094       ??_C@_0CLD@PLMN@Qt?4?$CD?4?$CD?4?$CD?4?$CD?4?$CD?4?$CD?4?$CD?4?$CD?4?$CD?4?$CD?4?$CDav?4d?4daw@ 100f3094     bncs_cc02_edit.obj
 0003:000e1348       ??_C@_0CLD@LJOM@Qt?4?$CD?4?$CD?4?$CD?4?$CD?4?$CD?4?$CD?4?$CD?4?$CD?4?$CD?4?$CD?4?$CDav?4d?4daw@ 100f3348     bncs_cc02_edit.obj
 0003:000e15fc       ??_C@_0CLD@CIDG@Qt?4?$CD?4?$CD?4?$CD?4?$CD?4?$CD?4?$CD?4?$CD?4?$CD?4?$CD?4?$CD?4?$CDav?4d?4daw@ 100f35fc     bncs_cc02_edit.obj
 0003:000e18b0       ??_C@_0CLD@CHDD@Qt?4?$CD?4?$CD?4?$CD?4?$CD?4?$CD?4?$CD?4?$CD?4?$CD?4?$CD?4?$CD?4?$CDav?4d?4daw@ 100f38b0     bncs_cc02_edit.obj
 0003:000e1b64       ??_C@_0CLD@MFKO@Qt?4?$CD?4?$CD?4?$CD?4?$CD?4?$CD?4?$CD?4?$CD?4?$CD?4?$CD?4?$CD?4?$CDav?4d?4daw@ 100f3b64     bncs_cc02_edit.obj
 0003:000e1e18       ??_C@_0CLD@DCG@Qt?4?$CD?4?$CD?4?$CD?4?$CD?4?$CD?4?$CD?4?$CD?4?$CD?4?$CD?4?$CD?4?$CDae?4d?4d?4U@ 100f3e18     bncs_cc02_edit.obj
 0003:000e20cc       ??_C@_0CLD@CHJO@Qt?4?$CD?4?$CD?4?$CD?4?$CD?4?$CD?$CDq?$CDr?$CDs?$CDt?$CDt?$CDu?$CDv?4d?4d?$CDw@ 100f40cc     bncs_cc02_edit.obj
 0003:000e2380       ??_C@_0CLD@KMIB@Qt?4?$CD?4?$CD?4?$CD?4?$CD?4?$CD?4X?4d?4d?4d?4d?4d?4d?4d?4d?4d@ 100f4380     bncs_cc02_edit.obj
 0003:000e2634       ??_C@_0CLD@GAIH@Qt?4?$CD?4?$CD?4?$CD?4?$CD?4?$CD?4o?4p?4q?4r?4r?4r?4r?4r?4r?4r@ 100f4634     bncs_cc02_edit.obj
 0003:000e28e8       ??_C@_0CLD@PMHJ@Qt?4?$CD?4?$CD?4?$CD?4?$CD?4?$CD?4?$CD?4?$CD?4?$CD?4?$CD?4?$CD?4?$CD?4?$CD?4?$CD?4?$CD?4?$CD@ 100f48e8     bncs_cc02_edit.obj
 0003:000e2b9c       ??_C@_0CLD@EGNP@Qt?4?$CD?4?$CD?4?$CD?4?$CD?4?$CD?4?$CD?4?$CD?4?$CD?4?$CD?4?$CD?4?$CD?4?$CD?4?$CD?4?$CD?4?$CD@ 100f4b9c     bncs_cc02_edit.obj
 0003:000e2e50       ??_C@_0CLD@KJBL@Qt?4?$CD?4?$CD?4?$CD?4?$CD?4?$CD?4?$CD?4?$CD?4?$CD?4?$CD?4?$CD?4?$CD?4?$CD?4?$CD?4?$CD?4?$CD@ 100f4e50     bncs_cc02_edit.obj
 0003:000e3104       ??_C@_0CLD@ELBI@Qt?4?$CD?4?$CD?4?$CD?4?$CD?4?$CD?4?$CD?4?$CD?4?$CD?4?$CD?4?$CD?4?$CD?4?$CD?4?$CD?4?$CD?4?$CD@ 100f5104     bncs_cc02_edit.obj
 0003:000e33b8       ??_C@_0CLD@FANM@Qt?4?$CD?4?$CD?4?$CD?4?$CD?4?$CD?4?$CD?4?$CD?4?$CD?4?$CD?4?$CD?4?$CD?4?$CD?4?$CD?4?$CD?4?$CD@ 100f53b8     bncs_cc02_edit.obj
 0003:000e366c       ??_C@_0N@EBJP@?4d?5c?5?$CDffffff?$AA@ 100f566c     bncs_cc02_edit.obj
 0003:000e367c       ??_C@_0N@ELCO@ll?5c?5?$CDfffffe?$AA@ 100f567c     bncs_cc02_edit.obj
 0003:000e368c       ??_C@_0N@DPED@ag?5c?5?$CDfffffd?$AA@ 100f568c     bncs_cc02_edit.obj
 0003:000e369c       ??_C@_0N@HBDH@dh?5c?5?$CDfffffc?$AA@ 100f569c     bncs_cc02_edit.obj
 0003:000e36ac       ??_C@_0N@JJND@dy?5c?5?$CDfffffb?$AA@ 100f56ac     bncs_cc02_edit.obj
 0003:000e36bc       ??_C@_0N@LMCK@ay?5c?5?$CDfffffa?$AA@ 100f56bc     bncs_cc02_edit.obj
 0003:000e36cc       ??_C@_0N@NKLD@b7?5c?5?$CDfffff9?$AA@ 100f56cc     bncs_cc02_edit.obj
 0003:000e36dc       ??_C@_0N@CCFO@c4?5c?5?$CDfffff8?$AA@ 100f56dc     bncs_cc02_edit.obj
 0003:000e36ec       ??_C@_0N@EBAN@wd?5c?5?$CDfffff7?$AA@ 100f56ec     bncs_cc02_edit.obj
 0003:000e36fc       ??_C@_0N@MHOO@a3?5c?5?$CDfffff6?$AA@ 100f56fc     bncs_cc02_edit.obj
 0003:000e370c       ??_C@_0N@FBEH@jB?5c?5?$CDfffff5?$AA@ 100f570c     bncs_cc02_edit.obj
 0003:000e371c       ??_C@_0N@OBAA@nz?5c?5?$CDfffff4?$AA@ 100f571c     bncs_cc02_edit.obj
 0003:000e372c       ??_C@_0N@LEAM@c?$CD?5c?5?$CDfffff3?$AA@ 100f572c     bncs_cc02_edit.obj
 0003:000e373c       ??_C@_0N@HCOE@e?$CD?5c?5?$CDfffff2?$AA@ 100f573c     bncs_cc02_edit.obj
 0003:000e374c       ??_C@_0N@PDFD@rw?5c?5?$CDfffff1?$AA@ 100f574c     bncs_cc02_edit.obj
 0003:000e375c       ??_C@_0N@PEBL@i8?5c?5?$CDffffef?$AA@ 100f575c     bncs_cc02_edit.obj
 0003:000e376c       ??_C@_0N@CEAG@cG?5c?5?$CDffffee?$AA@ 100f576c     bncs_cc02_edit.obj
 0003:000e377c       ??_C@_0N@BKAC@kc?5c?5?$CDffffed?$AA@ 100f577c     bncs_cc02_edit.obj
 0003:000e378c       ??_C@_0N@JHGB@?4Y?5c?5?$CDffffec?$AA@ 100f578c     bncs_cc02_edit.obj
 0003:000e379c       ??_C@_0N@HAEL@uJ?5c?5?$CDffffe9?$AA@ 100f579c     bncs_cc02_edit.obj
 0003:000e37ac       ??_C@_0N@KAOA@oo?5c?5?$CDffffe7?$AA@ 100f57ac     bncs_cc02_edit.obj
 0003:000e37bc       ??_C@_0N@BNCJ@q0?5c?5?$CDffffe6?$AA@ 100f57bc     bncs_cc02_edit.obj
 0003:000e37cc       ??_C@_0N@KNEN@wv?5c?5?$CDffffe3?$AA@ 100f57cc     bncs_cc02_edit.obj
 0003:000e37dc       ??_C@_0N@EDND@a6?5c?5?$CDffffe0?$AA@ 100f57dc     bncs_cc02_edit.obj
 0003:000e37ec       ??_C@_0N@BNAK@xQ?5c?5?$CDffffdf?$AA@ 100f57ec     bncs_cc02_edit.obj
 0003:000e37fc       ??_C@_0N@HPAH@rO?5c?5?$CDffffdd?$AA@ 100f57fc     bncs_cc02_edit.obj
 0003:000e380c       ??_C@_0N@NIFD@p9?5c?5?$CDffffd3?$AA@ 100f580c     bncs_cc02_edit.obj
 0003:000e381c       ??_C@_0N@IHML@hj?5c?5?$CDfffef9?$AA@ 100f581c     bncs_cc02_edit.obj
 0003:000e382c       ??_C@_0N@DBLK@wV?5c?5?$CDfffef6?$AA@ 100f582c     bncs_cc02_edit.obj
 0003:000e383c       ??_C@_0N@ODHH@mk?5c?5?$CDfffef4?$AA@ 100f583c     bncs_cc02_edit.obj
 0003:000e384c       ??_C@_0N@HLNN@uq?5c?5?$CDfffef1?$AA@ 100f584c     bncs_cc02_edit.obj
 0003:000e385c       ??_C@_0N@NA@nW?5c?5?$CDfffdf1?$AA@ 100f585c     bncs_cc02_edit.obj
 0003:000e386c       ??_C@_0N@FBGC@oA?5c?5?$CDfffcf6?$AA@ 100f586c     bncs_cc02_edit.obj
 0003:000e387c       ??_C@_0N@JHNJ@qj?5c?5?$CDfffcdc?$AA@ 100f587c     bncs_cc02_edit.obj
 0003:000e388c       ??_C@_0N@NHEH@p4?5c?5?$CDfffcd9?$AA@ 100f588c     bncs_cc02_edit.obj
 0003:000e389c       ??_C@_0N@BAK@?$CDR?5c?5?$CDfffbef?$AA@ 100f589c     bncs_cc02_edit.obj
 0003:000e38ac       ??_C@_0N@NHGL@b1?5c?5?$CDfffbe6?$AA@ 100f58ac     bncs_cc02_edit.obj
 0003:000e38bc       ??_C@_0N@CLN@xE?5c?5?$CDfffbdd?$AA@ 100f58bc     bncs_cc02_edit.obj
 0003:000e38cc       ??_C@_0N@BKKC@zo?5c?5?$CDfffae2?$AA@ 100f58cc     bncs_cc02_edit.obj
 0003:000e38dc       ??_C@_0N@GFEG@zt?5c?5?$CDfffad6?$AA@ 100f58dc     bncs_cc02_edit.obj
 0003:000e38ec       ??_C@_0N@HPAA@oH?5c?5?$CDfff9f3?$AA@ 100f58ec     bncs_cc02_edit.obj
 0003:000e38fc       ??_C@_0N@LNBA@pe?5c?5?$CDfff9ec?$AA@ 100f58fc     bncs_cc02_edit.obj
 0003:000e390c       ??_C@_0N@CAPM@?4k?5c?5?$CDfff8da?$AA@ 100f590c     bncs_cc02_edit.obj
 0003:000e391c       ??_C@_0N@OIJJ@c7?5c?5?$CDfff8d8?$AA@ 100f591c     bncs_cc02_edit.obj
 0003:000e392c       ??_C@_0N@BJOK@qT?5c?5?$CDfff8ce?$AA@ 100f592c     bncs_cc02_edit.obj
 0003:000e393c       ??_C@_0N@OOON@vx?5c?5?$CDfff7ee?$AA@ 100f593c     bncs_cc02_edit.obj
 0003:000e394c       ??_C@_0N@IAJE@tI?5c?5?$CDfff7e4?$AA@ 100f594c     bncs_cc02_edit.obj
 0003:000e395c       ??_C@_0N@GNFD@m2?5c?5?$CDfff7e1?$AA@ 100f595c     bncs_cc02_edit.obj
 0003:000e396c       ??_C@_0N@MLEI@aI?5c?5?$CDfff7df?$AA@ 100f596c     bncs_cc02_edit.obj
 0003:000e397c       ??_C@_0N@EDGB@ne?5c?5?$CDfff6e9?$AA@ 100f597c     bncs_cc02_edit.obj
 0003:000e398c       ??_C@_0N@LLIM@of?5c?5?$CDfff6e8?$AA@ 100f598c     bncs_cc02_edit.obj
 0003:000e399c       ??_C@_0N@KMKA@iL?5c?5?$CDfff6e6?$AA@ 100f599c     bncs_cc02_edit.obj
 0003:000e39ac       ??_C@_0N@LJDC@t7?5c?5?$CDfff6dd?$AA@ 100f59ac     bncs_cc02_edit.obj
 0003:000e39bc       ??_C@_0N@GHED@qD?5c?5?$CDfff6cd?$AA@ 100f59bc     bncs_cc02_edit.obj
 0003:000e39cc       ??_C@_0N@LMPH@xL?5c?5?$CDfff5e4?$AA@ 100f59cc     bncs_cc02_edit.obj
 0003:000e39dc       ??_C@_0N@OLOB@ao?5c?5?$CDfff5db?$AA@ 100f59dc     bncs_cc02_edit.obj
 0003:000e39ec       ??_C@_0N@JPLN@xC?5c?5?$CDfff4de?$AA@ 100f59ec     bncs_cc02_edit.obj
 0003:000e39fc       ??_C@_0N@DOFG@hA?5c?5?$CDfff4da?$AA@ 100f59fc     bncs_cc02_edit.obj
 0003:000e3a0c       ??_C@_0N@HJEE@rH?5c?5?$CDfff4c8?$AA@ 100f5a0c     bncs_cc02_edit.obj
 0003:000e3a1c       ??_C@_0N@MFKK@lE?5c?5?$CDfff3d9?$AA@ 100f5a1c     bncs_cc02_edit.obj
 0003:000e3a2c       ??_C@_0N@CGHN@fe?5c?5?$CDfff2d1?$AA@ 100f5a2c     bncs_cc02_edit.obj
 0003:000e3a3c       ??_C@_0N@IEHG@re?5c?5?$CDfff2c5?$AA@ 100f5a3c     bncs_cc02_edit.obj
 0003:000e3a4c       ??_C@_0N@DENI@cV?5c?5?$CDfff0d5?$AA@ 100f5a4c     bncs_cc02_edit.obj
 0003:000e3a5c       ??_C@_0N@GKOB@qw?5c?5?$CDffefcd?$AA@ 100f5a5c     bncs_cc02_edit.obj
 0003:000e3a6c       ??_C@_0N@DDHM@wl?5c?5?$CDffeeca?$AA@ 100f5a6c     bncs_cc02_edit.obj
 0003:000e3a7c       ??_C@_0N@FMNF@xn?5c?5?$CDffecd6?$AA@ 100f5a7c     bncs_cc02_edit.obj
 0003:000e3a8c       ??_C@_0N@GMBH@qq?5c?5?$CDffe9c2?$AA@ 100f5a8c     bncs_cc02_edit.obj
 0003:000e3a9c       ??_C@_0N@BNEG@vM?5c?5?$CDffe6ce?$AA@ 100f5a9c     bncs_cc02_edit.obj
 0003:000e3aac       ??_C@_0N@FEJI@qh?5c?5?$CDffe3bb?$AA@ 100f5aac     bncs_cc02_edit.obj
 0003:000e3abc       ??_C@_0N@MOAF@qV?5c?5?$CDffe2c7?$AA@ 100f5abc     bncs_cc02_edit.obj
 0003:000e3acc       ??_C@_0N@FFI@ro?5c?5?$CDffdcb4?$AA@ 100f5acc     bncs_cc02_edit.obj
 0003:000e3adc       ??_C@_0N@GADD@p6?5c?5?$CDffdbbc?$AA@ 100f5adc     bncs_cc02_edit.obj
 0003:000e3aec       ??_C@_0N@JOMM@aj?5c?5?$CDfeffff?$AA@ 100f5aec     bncs_cc02_edit.obj
 0003:000e3afc       ??_C@_0N@HBFM@g0?5c?5?$CDfefefe?$AA@ 100f5afc     bncs_cc02_edit.obj
 0003:000e3b0c       ??_C@_0N@CBHI@l?$CD?5c?5?$CDfefcf9?$AA@ 100f5b0c     bncs_cc02_edit.obj
 0003:000e3b1c       ??_C@_0N@PMPG@oD?5c?5?$CDfef9eb?$AA@ 100f5b1c     bncs_cc02_edit.obj
 0003:000e3b2c       ??_C@_0N@CNMF@yt?5c?5?$CDfef8f1?$AA@ 100f5b2c     bncs_cc02_edit.obj
 0003:000e3b3c       ??_C@_0N@FCEI@?4e?5c?5?$CDfeedde?$AA@ 100f5b3c     bncs_cc02_edit.obj
 0003:000e3b4c       ??_C@_0N@KIIE@b4?5c?5?$CDfdffff?$AA@ 100f5b4c     bncs_cc02_edit.obj
 0003:000e3b5c       ??_C@_0N@NGJH@pn?5c?5?$CDfdfdfd?$AA@ 100f5b5c     bncs_cc02_edit.obj
 0003:000e3b6c       ??_C@_0N@PKKF@qX?5c?5?$CDfdf4e9?$AA@ 100f5b6c     bncs_cc02_edit.obj
 0003:000e3b7c       ??_C@_0N@EAMC@qm?5c?5?$CDfde1c3?$AA@ 100f5b7c     bncs_cc02_edit.obj
 0003:000e3b8c       ??_C@_0N@CKNG@le?5c?5?$CDfcffff?$AA@ 100f5b8c     bncs_cc02_edit.obj
 0003:000e3b9c       ??_C@_0N@NJII@kp?5c?5?$CDfcfcfc?$AA@ 100f5b9c     bncs_cc02_edit.obj
 0003:000e3bac       ??_C@_0N@CLMM@tA?5c?5?$CDfceede?$AA@ 100f5bac     bncs_cc02_edit.obj
 0003:000e3bbc       ??_C@_0N@BBDP@aC?5c?5?$CDfbffff?$AA@ 100f5bbc     bncs_cc02_edit.obj
 0003:000e3bcc       ??_C@_0N@EGKH@h6?5c?5?$CDfbfcfd?$AA@ 100f5bcc     bncs_cc02_edit.obj
 0003:000e3bdc       ??_C@_0N@GNKH@jz?5c?5?$CDfbfbfb?$AA@ 100f5bdc     bncs_cc02_edit.obj
 0003:000e3bec       ??_C@_0N@PBMD@eU?5c?5?$CDfbf0e0?$AA@ 100f5bec     bncs_cc02_edit.obj
 0003:000e3bfc       ??_C@_0N@BCJH@va?5c?5?$CDfbefe3?$AA@ 100f5bfc     bncs_cc02_edit.obj
 0003:000e3c0c       ??_C@_0N@NEGK@t2?5c?5?$CDfbe5cc?$AA@ 100f5c0c     bncs_cc02_edit.obj
 0003:000e3c1c       ??_C@_0N@GNOH@cx?5c?5?$CDfbe1c6?$AA@ 100f5c1c     bncs_cc02_edit.obj
 0003:000e3c2c       ??_C@_0N@NECI@?48?5c?5?$CDfaffff?$AA@ 100f5c2c     bncs_cc02_edit.obj
 0003:000e3c3c       ??_C@_0N@LOPF@er?5c?5?$CDfafafa?$AA@ 100f5c3c     bncs_cc02_edit.obj
 0003:000e3c4c       ??_C@_0N@GFLG@h5?5c?5?$CDfafaf9?$AA@ 100f5c4c     bncs_cc02_edit.obj
 0003:000e3c5c       ??_C@_0N@GEE@yc?5c?5?$CDfaece1?$AA@ 100f5c5c     bncs_cc02_edit.obj
 0003:000e3c6c       ??_C@_0N@GBFP@bq?5c?5?$CDf9ffff?$AA@ 100f5c6c     bncs_cc02_edit.obj
 0003:000e3c7c       ??_C@_0N@MPIA@r9?5c?5?$CDf9f9f9?$AA@ 100f5c7c     bncs_cc02_edit.obj
 0003:000e3c8c       ??_C@_0N@JLEC@nO?5c?5?$CDf9ead3?$AA@ 100f5c8c     bncs_cc02_edit.obj
 0003:000e3c9c       ??_C@_0N@DPNM@?4h?5c?5?$CDf9e6d6?$AA@ 100f5c9c     bncs_cc02_edit.obj
 0003:000e3cac       ??_C@_0N@BCDG@dm?5c?5?$CDf8fcf0?$AA@ 100f5cac     bncs_cc02_edit.obj
 0003:000e3cbc       ??_C@_0N@LGBI@gO?5c?5?$CDf8f8f8?$AA@ 100f5cbc     bncs_cc02_edit.obj
 0003:000e3ccc       ??_C@_0N@PBEN@?$CDC?5c?5?$CDf8f5f4?$AA@ 100f5ccc     bncs_cc02_edit.obj
 0003:000e3cdc       ??_C@_0N@CNAE@t9?5c?5?$CDf8eada?$AA@ 100f5cdc     bncs_cc02_edit.obj
 0003:000e3cec       ??_C@_0N@OABE@lL?5c?5?$CDf8e8dd?$AA@ 100f5cec     bncs_cc02_edit.obj
 0003:000e3cfc       ??_C@_0N@GGBO@qb?5c?5?$CDf8dbbc?$AA@ 100f5cfc     bncs_cc02_edit.obj
 0003:000e3d0c       ??_C@_0N@DPAJ@w?4?5c?5?$CDf8d9bb?$AA@ 100f5d0c     bncs_cc02_edit.obj
 0003:000e3d1c       ??_C@_0N@PHIC@em?5c?5?$CDf7ffff?$AA@ 100f5d1c     bncs_cc02_edit.obj
 0003:000e3d2c       ??_C@_0N@NPKC@lb?5c?5?$CDf7fafd?$AA@ 100f5d2c     bncs_cc02_edit.obj
 0003:000e3d3c       ??_C@_0N@MFBC@gX?5c?5?$CDf7f7f7?$AA@ 100f5d3c     bncs_cc02_edit.obj
 0003:000e3d4c       ??_C@_0N@DBGD@eB?5c?5?$CDf7ede2?$AA@ 100f5d4c     bncs_cc02_edit.obj
 0003:000e3d5c       ??_C@_0N@NIBK@xv?5c?5?$CDf7e6cf?$AA@ 100f5d5c     bncs_cc02_edit.obj
 0003:000e3d6c       ??_C@_0N@OAFF@gJ?5c?5?$CDf6f6f6?$AA@ 100f5d6c     bncs_cc02_edit.obj
 0003:000e3d7c       ??_C@_0N@DNGL@tR?5c?5?$CDf6e7dd?$AA@ 100f5d7c     bncs_cc02_edit.obj
 0003:000e3d8c       ??_C@_0N@EPFF@wu?5c?5?$CDf6ddbd?$AA@ 100f5d8c     bncs_cc02_edit.obj
 0003:000e3d9c       ??_C@_0N@DOAH@ym?5c?5?$CDf6d0a6?$AA@ 100f5d9c     bncs_cc02_edit.obj
 0003:000e3dac       ??_C@_0N@OIKI@zD?5c?5?$CDf5ffff?$AA@ 100f5dac     bncs_cc02_edit.obj
 0003:000e3dbc       ??_C@_0N@JILP@p7?5c?5?$CDf5f5f5?$AA@ 100f5dbc     bncs_cc02_edit.obj
 0003:000e3dcc       ??_C@_0N@GBAM@n3?5c?5?$CDf5e1bf?$AA@ 100f5dcc     bncs_cc02_edit.obj
 0003:000e3ddc       ??_C@_0N@CMN@rJ?5c?5?$CDf5dabf?$AA@ 100f5ddc     bncs_cc02_edit.obj
 0003:000e3dec       ??_C@_0N@PGDI@?$CDM?5c?5?$CDf5d1b3?$AA@ 100f5dec     bncs_cc02_edit.obj
 0003:000e3dfc       ??_C@_0N@GELM@?4G?5c?5?$CDf4ffff?$AA@ 100f5dfc     bncs_cc02_edit.obj
 0003:000e3e0c       ??_C@_0N@OAL@cs?5c?5?$CDf4feff?$AA@ 100f5e0c     bncs_cc02_edit.obj
 0003:000e3e1c       ??_C@_0N@BCIK@hi?5c?5?$CDf4fcff?$AA@ 100f5e1c     bncs_cc02_edit.obj
 0003:000e3e2c       ??_C@_0N@JOCJ@yE?5c?5?$CDf4f9ff?$AA@ 100f5e2c     bncs_cc02_edit.obj
 0003:000e3e3c       ??_C@_0N@DCDC@mR?5c?5?$CDf4f8fb?$AA@ 100f5e3c     bncs_cc02_edit.obj
 0003:000e3e4c       ??_C@_0N@EPFP@?$CD0?5c?5?$CDf4f7f8?$AA@ 100f5e4c     bncs_cc02_edit.obj
 0003:000e3e5c       ??_C@_0N@CJAE@nd?5c?5?$CDf4f4f4?$AA@ 100f5e5c     bncs_cc02_edit.obj
 0003:000e3e6c       ??_C@_0N@IDMB@br?5c?5?$CDf4ede6?$AA@ 100f5e6c     bncs_cc02_edit.obj
 0003:000e3e7c       ??_C@_0N@FCMM@kg?5c?5?$CDf4d2af?$AA@ 100f5e7c     bncs_cc02_edit.obj
 0003:000e3e8c       ??_C@_0N@HLIK@c6?5c?5?$CDf3ffff?$AA@ 100f5e8c     bncs_cc02_edit.obj
 0003:000e3e9c       ??_C@_0N@FFBE@yM?5c?5?$CDf3f9fe?$AA@ 100f5e9c     bncs_cc02_edit.obj
 0003:000e3eac       ??_C@_0N@MKJF@ou?5c?5?$CDf3f5f8?$AA@ 100f5eac     bncs_cc02_edit.obj
 0003:000e3ebc       ??_C@_0N@DFL@qA?5c?5?$CDf3f3f3?$AA@ 100f5ebc     bncs_cc02_edit.obj
 0003:000e3ecc       ??_C@_0N@HPIA@wb?5c?5?$CDf3e0c8?$AA@ 100f5ecc     bncs_cc02_edit.obj
 0003:000e3edc       ??_C@_0N@HLAH@df?5c?5?$CDf3dfc6?$AA@ 100f5edc     bncs_cc02_edit.obj
 0003:000e3eec       ??_C@_0N@BECB@nG?5c?5?$CDf3d3ae?$AA@ 100f5eec     bncs_cc02_edit.obj
 0003:000e3efc       ??_C@_0N@BIJC@w2?5c?5?$CDf2ffff?$AA@ 100f5efc     bncs_cc02_edit.obj
 0003:000e3f0c       ??_C@_0N@BGFA@uE?5c?5?$CDf2fcff?$AA@ 100f5f0c     bncs_cc02_edit.obj
 0003:000e3f1c       ??_C@_0N@IBKN@k0?5c?5?$CDf2f2f2?$AA@ 100f5f1c     bncs_cc02_edit.obj
 0003:000e3f2c       ??_C@_0N@KPOO@tk?5c?5?$CDf2e7dc?$AA@ 100f5f2c     bncs_cc02_edit.obj
 0003:000e3f3c       ??_C@_0N@DALF@eM?5c?5?$CDf2e5d7?$AA@ 100f5f3c     bncs_cc02_edit.obj
 0003:000e3f4c       ??_C@_0N@KALO@xi?5c?5?$CDf2d4b2?$AA@ 100f5f4c     bncs_cc02_edit.obj
 0003:000e3f5c       ??_C@_0N@CEOL@n2?5c?5?$CDf1ffff?$AA@ 100f5f5c     bncs_cc02_edit.obj
 0003:000e3f6c       ??_C@_0N@LJKK@jt?5c?5?$CDf1feff?$AA@ 100f5f6c     bncs_cc02_edit.obj
 0003:000e3f7c       ??_C@_0N@GALP@nN?5c?5?$CDf1f2f3?$AA@ 100f5f7c     bncs_cc02_edit.obj
 0003:000e3f8c       ??_C@_0N@BJGM@pr?5c?5?$CDf1f1f1?$AA@ 100f5f8c     bncs_cc02_edit.obj
 0003:000e3f9c       ??_C@_0N@FPEA@yg?5c?5?$CDf1dcc0?$AA@ 100f5f9c     bncs_cc02_edit.obj
 0003:000e3fac       ??_C@_0N@GFCJ@i6?5c?5?$CDf1d7b6?$AA@ 100f5fac     bncs_cc02_edit.obj
 0003:000e3fbc       ??_C@_0N@IEKB@xW?5c?5?$CDf0ffff?$AA@ 100f5fbc     bncs_cc02_edit.obj
 0003:000e3fcc       ??_C@_0N@ILGF@jO?5c?5?$CDf0feff?$AA@ 100f5fcc     bncs_cc02_edit.obj
 0003:000e3fdc       ??_C@_0N@NOCM@uw?5c?5?$CDf0faff?$AA@ 100f5fdc     bncs_cc02_edit.obj
 0003:000e3fec       ??_C@_0N@NAPC@la?5c?5?$CDf0f0f0?$AA@ 100f5fec     bncs_cc02_edit.obj
 0003:000e3ffc       ??_C@_0N@KKCB@lf?5c?5?$CDf0efef?$AA@ 100f5ffc     bncs_cc02_edit.obj
 0003:000e400c       ??_C@_0N@EIDJ@os?5c?5?$CDf0ece7?$AA@ 100f600c     bncs_cc02_edit.obj
 0003:000e401c       ??_C@_0N@ICPM@iF?5c?5?$CDf0e2d1?$AA@ 100f601c     bncs_cc02_edit.obj
 0003:000e402c       ??_C@_0N@HJJI@wi?5c?5?$CDf0d7b8?$AA@ 100f602c     bncs_cc02_edit.obj
 0003:000e403c       ??_C@_0N@HFHI@xu?5c?5?$CDefffff?$AA@ 100f603c     bncs_cc02_edit.obj
 0003:000e404c       ??_C@_0N@EODF@fm?5c?5?$CDeffcff?$AA@ 100f604c     bncs_cc02_edit.obj
 0003:000e405c       ??_C@_0N@EEFL@z?4?5c?5?$CDeff9ff?$AA@ 100f605c     bncs_cc02_edit.obj
 0003:000e406c       ??_C@_0N@LOMK@?$CDX?5c?5?$CDeff4f5?$AA@ 100f606c     bncs_cc02_edit.obj
 0003:000e407c       ??_C@_0N@ODAF@mS?5c?5?$CDeff1f2?$AA@ 100f607c     bncs_cc02_edit.obj
 0003:000e408c       ??_C@_0N@DOM@lk?5c?5?$CDefeff0?$AA@ 100f608c     bncs_cc02_edit.obj
 0003:000e409c       ??_C@_0N@CKGP@gT?5c?5?$CDefefef?$AA@ 100f609c     bncs_cc02_edit.obj
 0003:000e40ac       ??_C@_0N@JNNG@aR?5c?5?$CDefedec?$AA@ 100f60ac     bncs_cc02_edit.obj
 0003:000e40bc       ??_C@_0N@BAOI@ze?5c?5?$CDeef7ff?$AA@ 100f60bc     bncs_cc02_edit.obj
 0003:000e40cc       ??_C@_0N@BGPC@q3?5c?5?$CDeeeeee?$AA@ 100f60cc     bncs_cc02_edit.obj
 0003:000e40dc       ??_C@_0N@BDII@ik?5c?5?$CDeee5d7?$AA@ 100f60dc     bncs_cc02_edit.obj
 0003:000e40ec       ??_C@_0N@JOLH@kn?5c?5?$CDedffff?$AA@ 100f60ec     bncs_cc02_edit.obj
 0003:000e40fc       ??_C@_0N@MKNO@gt?5c?5?$CDededed?$AA@ 100f60fc     bncs_cc02_edit.obj
 0003:000e410c       ??_C@_0N@COIG@vO?5c?5?$CDecffff?$AA@ 100f610c     bncs_cc02_edit.obj
 0003:000e411c       ??_C@_0N@HDJM@aW?5c?5?$CDecf0e9?$AA@ 100f611c     bncs_cc02_edit.obj
 0003:000e412c       ??_C@_0N@GILN@bb?5c?5?$CDeceef0?$AA@ 100f612c     bncs_cc02_edit.obj
 0003:000e413c       ??_C@_0N@JLEJ@mW?5c?5?$CDececec?$AA@ 100f613c     bncs_cc02_edit.obj
 0003:000e414c       ??_C@_0N@FGDJ@oJ?5c?5?$CDececeb?$AA@ 100f614c     bncs_cc02_edit.obj
 0003:000e415c       ??_C@_0N@BBEO@ct?5c?5?$CDece3da?$AA@ 100f615c     bncs_cc02_edit.obj
 0003:000e416c       ??_C@_0N@GKOI@e5?5c?5?$CDece2d1?$AA@ 100f616c     bncs_cc02_edit.obj
 0003:000e417c       ??_C@_0N@FJIE@dq?5c?5?$CDebffff?$AA@ 100f617c     bncs_cc02_edit.obj
 0003:000e418c       ??_C@_0N@PAMP@vX?5c?5?$CDebf1f4?$AA@ 100f618c     bncs_cc02_edit.obj
 0003:000e419c       ??_C@_0N@NMMH@ot?5c?5?$CDebebec?$AA@ 100f619c     bncs_cc02_edit.obj
 0003:000e41ac       ??_C@_0N@CGJE@gw?5c?5?$CDebebeb?$AA@ 100f61ac     bncs_cc02_edit.obj
 0003:000e41bc       ??_C@_0N@EHPO@vi?5c?5?$CDebeae9?$AA@ 100f61bc     bncs_cc02_edit.obj
 0003:000e41cc       ??_C@_0N@KHNG@uQ?5c?5?$CDebdccf?$AA@ 100f61cc     bncs_cc02_edit.obj
 0003:000e41dc       ??_C@_0N@NKKB@in?5c?5?$CDebd4c1?$AA@ 100f61dc     bncs_cc02_edit.obj
 0003:000e41ec       ??_C@_0N@FANF@cR?5c?5?$CDebcbae?$AA@ 100f61ec     bncs_cc02_edit.obj
 0003:000e41fc       ??_C@_0N@MNNC@ai?5c?5?$CDeaf5ff?$AA@ 100f61fc     bncs_cc02_edit.obj
 0003:000e420c       ??_C@_0N@GDBM@vj?5c?5?$CDeaebec?$AA@ 100f620c     bncs_cc02_edit.obj
 0003:000e421c       ??_C@_0N@INMO@oI?5c?5?$CDeaeaeb?$AA@ 100f621c     bncs_cc02_edit.obj
 0003:000e422c       ??_C@_0N@EPFJ@fJ?5c?5?$CDeaeaea?$AA@ 100f622c     bncs_cc02_edit.obj
 0003:000e423c       ??_C@_0N@IACD@db?5c?5?$CDeae7e3?$AA@ 100f623c     bncs_cc02_edit.obj
 0003:000e424c       ??_C@_0N@MKDB@uF?5c?5?$CDeae0d7?$AA@ 100f624c     bncs_cc02_edit.obj
 0003:000e425c       ??_C@_0N@KHNE@n9?5c?5?$CDeaddce?$AA@ 100f625c     bncs_cc02_edit.obj
 0003:000e426c       ??_C@_0N@BHKE@zr?5c?5?$CDeacfb2?$AA@ 100f626c     bncs_cc02_edit.obj
 0003:000e427c       ??_C@_0N@OGBM@zE?5c?5?$CDeacfaf?$AA@ 100f627c     bncs_cc02_edit.obj
 0003:000e428c       ??_C@_0N@JBHL@rF?5c?5?$CDeac59f?$AA@ 100f628c     bncs_cc02_edit.obj
 0003:000e429c       ??_C@_0N@FCL@aF?5c?5?$CDe9ffff?$AA@ 100f629c     bncs_cc02_edit.obj
 0003:000e42ac       ??_C@_0N@OCPA@?$CD7?5c?5?$CDe9f7ff?$AA@ 100f62ac     bncs_cc02_edit.obj
 0003:000e42bc       ??_C@_0N@HBEA@yU?5c?5?$CDe9f5ff?$AA@ 100f62bc     bncs_cc02_edit.obj
 0003:000e42cc       ??_C@_0N@HKKC@uN?5c?5?$CDe9ece6?$AA@ 100f62cc     bncs_cc02_edit.obj
 0003:000e42dc       ??_C@_0N@OMAL@oB?5c?5?$CDe9eaeb?$AA@ 100f62dc     bncs_cc02_edit.obj
 0003:000e42ec       ??_C@_0N@JMJN@pv?5c?5?$CDe9e9e9?$AA@ 100f62ec     bncs_cc02_edit.obj
 0003:000e42fc       ??_C@_0N@CGDN@be?5c?5?$CDe9e7e4?$AA@ 100f62fc     bncs_cc02_edit.obj
 0003:000e430c       ??_C@_0N@BBEA@yF?5c?5?$CDe9d7ca?$AA@ 100f630c     bncs_cc02_edit.obj
 0003:000e431c       ??_C@_0N@OMJF@am?5c?5?$CDe9c6a7?$AA@ 100f631c     bncs_cc02_edit.obj
 0003:000e432c       ??_C@_0N@DCLG@ss?5c?5?$CDe8e8e8?$AA@ 100f632c     bncs_cc02_edit.obj
 0003:000e433c       ??_C@_0N@BBKP@oC?5c?5?$CDe8e7ea?$AA@ 100f633c     bncs_cc02_edit.obj
 0003:000e434c       ??_C@_0N@OGL@?$CDb?5c?5?$CDe8c49d?$AA@ 100f634c     bncs_cc02_edit.obj
 0003:000e435c       ??_C@_0N@DHMC@y1?5c?5?$CDe8c09c?$AA@ 100f635c     bncs_cc02_edit.obj
 0003:000e436c       ??_C@_0N@JOEF@wS?5c?5?$CDe7ffff?$AA@ 100f636c     bncs_cc02_edit.obj
 0003:000e437c       ??_C@_0N@GKNK@hJ?5c?5?$CDe7f5ff?$AA@ 100f637c     bncs_cc02_edit.obj
 0003:000e438c       ??_C@_0N@BMI@iK?5c?5?$CDe7f3ff?$AA@ 100f638c     bncs_cc02_edit.obj
 0003:000e439c       ??_C@_0N@JKBJ@b?4?5c?5?$CDe7ecec?$AA@ 100f639c     bncs_cc02_edit.obj
 0003:000e43ac       ??_C@_0N@PBGO@oK?5c?5?$CDe7eaf0?$AA@ 100f63ac     bncs_cc02_edit.obj
 0003:000e43bc       ??_C@_0N@DEID@yI?5c?5?$CDe7e8e3?$AA@ 100f63bc     bncs_cc02_edit.obj
 0003:000e43cc       ??_C@_0N@JNMG@ab?5c?5?$CDe7e7ef?$AA@ 100f63cc     bncs_cc02_edit.obj
 0003:000e43dc       ??_C@_0N@EGHP@hd?5c?5?$CDe7e7e7?$AA@ 100f63dc     bncs_cc02_edit.obj
 0003:000e43ec       ??_C@_0N@NOFK@d?$CD?5c?5?$CDe7c7aa?$AA@ 100f63ec     bncs_cc02_edit.obj
 0003:000e43fc       ??_C@_0N@PHIK@nx?5c?5?$CDe7c5a3?$AA@ 100f63fc     bncs_cc02_edit.obj
 0003:000e440c       ??_C@_0N@LLF@vB?5c?5?$CDe6fcff?$AA@ 100f640c     bncs_cc02_edit.obj
 0003:000e441c       ??_C@_0N@CCFJ@vw?5c?5?$CDe6f9ff?$AA@ 100f641c     bncs_cc02_edit.obj
 0003:000e442c       ??_C@_0N@LBKF@bk?5c?5?$CDe6e8eb?$AA@ 100f642c     bncs_cc02_edit.obj
 0003:000e443c       ??_C@_0N@CHOJ@de?5c?5?$CDe6e7ea?$AA@ 100f643c     bncs_cc02_edit.obj
 0003:000e444c       ??_C@_0N@NMMI@k2?5c?5?$CDe6e6e6?$AA@ 100f644c     bncs_cc02_edit.obj
 0003:000e445c       ??_C@_0N@GJGF@uY?5c?5?$CDe6e4e1?$AA@ 100f645c     bncs_cc02_edit.obj
 0003:000e446c       ??_C@_0N@GEBH@vT?5c?5?$CDe6d3b6?$AA@ 100f646c     bncs_cc02_edit.obj
 0003:000e447c       ??_C@_0N@IPEP@qs?5c?5?$CDe6bf99?$AA@ 100f647c     bncs_cc02_edit.obj
 0003:000e448c       ??_C@_0N@JKKL@nV?5c?5?$CDe5f8ff?$AA@ 100f648c     bncs_cc02_edit.obj
 0003:000e449c       ??_C@_0N@EKEK@?$CDQ?5c?5?$CDe5f5ff?$AA@ 100f649c     bncs_cc02_edit.obj
 0003:000e44ac       ??_C@_0N@CFOA@?$CDg?5c?5?$CDe5f0f0?$AA@ 100f64ac     bncs_cc02_edit.obj
 0003:000e44bc       ??_C@_0N@NKFO@?$CDm?5c?5?$CDe5effb?$AA@ 100f64bc     bncs_cc02_edit.obj
 0003:000e44cc       ??_C@_0N@CPMI@dd?5c?5?$CDe5e5e5?$AA@ 100f64cc     bncs_cc02_edit.obj
 0003:000e44dc       ??_C@_0N@HKEE@yo?5c?5?$CDe4ffff?$AA@ 100f64dc     bncs_cc02_edit.obj
 0003:000e44ec       ??_C@_0N@HBAP@pd?5c?5?$CDe4eff9?$AA@ 100f64ec     bncs_cc02_edit.obj
 0003:000e44fc       ??_C@_0N@KELD@dj?5c?5?$CDe4e5e5?$AA@ 100f64fc     bncs_cc02_edit.obj
 0003:000e450c       ??_C@_0N@POOE@?$CD8?5c?5?$CDe4e5e3?$AA@ 100f650c     bncs_cc02_edit.obj
 0003:000e451c       ??_C@_0N@HGDM@dl?5c?5?$CDe4e4e6?$AA@ 100f651c     bncs_cc02_edit.obj
 0003:000e452c       ??_C@_0N@LGLN@dk?5c?5?$CDe4e4e4?$AA@ 100f652c     bncs_cc02_edit.obj
 0003:000e453c       ??_C@_0N@ONHB@hI?5c?5?$CDe4d1bf?$AA@ 100f653c     bncs_cc02_edit.obj
 0003:000e454c       ??_C@_0N@LBJG@?4F?5c?5?$CDe4bf9f?$AA@ 100f654c     bncs_cc02_edit.obj
 0003:000e455c       ??_C@_0N@JBFE@aD?5c?5?$CDe3ffff?$AA@ 100f655c     bncs_cc02_edit.obj
 0003:000e456c       ??_C@_0N@GCFG@uz?5c?5?$CDe3fbff?$AA@ 100f656c     bncs_cc02_edit.obj
 0003:000e457c       ??_C@_0N@MEBN@wa?5c?5?$CDe3f7ff?$AA@ 100f657c     bncs_cc02_edit.obj
 0003:000e458c       ??_C@_0N@JHNI@u3?5c?5?$CDe3e5e7?$AA@ 100f658c     bncs_cc02_edit.obj
 0003:000e459c       ??_C@_0N@DMFI@dc?5c?5?$CDe3e3e4?$AA@ 100f659c     bncs_cc02_edit.obj
 0003:000e45ac       ??_C@_0N@JCGP@?$CDY?5c?5?$CDe3e2e2?$AA@ 100f65ac     bncs_cc02_edit.obj
 0003:000e45bc       ??_C@_0N@FNJF@dT?5c?5?$CDe3c19c?$AA@ 100f65bc     bncs_cc02_edit.obj
 0003:000e45cc       ??_C@_0N@NNK@?$CDZ?5c?5?$CDe2e2e2?$AA@ 100f65cc     bncs_cc02_edit.obj
 0003:000e45dc       ??_C@_0N@NLEE@d6?5c?5?$CDe2cfbd?$AA@ 100f65dc     bncs_cc02_edit.obj
 0003:000e45ec       ??_C@_0N@KLIH@rm?5c?5?$CDe2c29a?$AA@ 100f65ec     bncs_cc02_edit.obj
 0003:000e45fc       ??_C@_0N@HOKH@hu?5c?5?$CDe1f3ff?$AA@ 100f65fc     bncs_cc02_edit.obj
 0003:000e460c       ??_C@_0N@NIPH@aU?5c?5?$CDe1e2e5?$AA@ 100f660c     bncs_cc02_edit.obj
 0003:000e461c       ??_C@_0N@HIOJ@se?5c?5?$CDe1e1e1?$AA@ 100f661c     bncs_cc02_edit.obj
 0003:000e462c       ??_C@_0N@FGFA@aO?5c?5?$CDe1c09f?$AA@ 100f662c     bncs_cc02_edit.obj
 0003:000e463c       ??_C@_0N@BABA@?$CD?$CD?5c?5?$CDe1bfa0?$AA@ 100f663c     bncs_cc02_edit.obj
 0003:000e464c       ??_C@_0N@IDFM@wA?5c?5?$CDe0ffff?$AA@ 100f664c     bncs_cc02_edit.obj
 0003:000e465c       ??_C@_0N@GAME@o7?5c?5?$CDe0eaf7?$AA@ 100f665c     bncs_cc02_edit.obj
 0003:000e466c       ??_C@_0N@JFOG@kk?5c?5?$CDe0e7f1?$AA@ 100f666c     bncs_cc02_edit.obj
 0003:000e467c       ??_C@_0N@FHKD@pj?5c?5?$CDe0e0e0?$AA@ 100f667c     bncs_cc02_edit.obj
 0003:000e468c       ??_C@_0N@IADO@di?5c?5?$CDe0dede?$AA@ 100f668c     bncs_cc02_edit.obj
 0003:000e469c       ??_C@_0N@JBON@h?4?5c?5?$CDe0dedc?$AA@ 100f669c     bncs_cc02_edit.obj
 0003:000e46ac       ??_C@_0N@LHAH@ip?5c?5?$CDdffdff?$AA@ 100f66ac     bncs_cc02_edit.obj
 0003:000e46bc       ??_C@_0N@MNGD@mD?5c?5?$CDdfeffd?$AA@ 100f66bc     bncs_cc02_edit.obj
 0003:000e46cc       ??_C@_0N@DHCF@?$CDB?5c?5?$CDdfedf9?$AA@ 100f66cc     bncs_cc02_edit.obj
 0003:000e46dc       ??_C@_0N@CNGL@qe?5c?5?$CDdfdfdf?$AA@ 100f66dc     bncs_cc02_edit.obj
 0003:000e46ec       ??_C@_0N@ONHJ@vY?5c?5?$CDdfd4c8?$AA@ 100f66ec     bncs_cc02_edit.obj
 0003:000e46fc       ??_C@_0N@ONEI@ac?5c?5?$CDdfcec3?$AA@ 100f66fc     bncs_cc02_edit.obj
 0003:000e470c       ??_C@_0N@CHAJ@w4?5c?5?$CDdeffff?$AA@ 100f670c     bncs_cc02_edit.obj
 0003:000e471c       ??_C@_0N@OOOF@or?5c?5?$CDdef6ff?$AA@ 100f671c     bncs_cc02_edit.obj
 0003:000e472c       ??_C@_0N@CILP@vr?5c?5?$CDdef3ff?$AA@ 100f672c     bncs_cc02_edit.obj
 0003:000e473c       ??_C@_0N@BGAB@mQ?5c?5?$CDdee9f3?$AA@ 100f673c     bncs_cc02_edit.obj
 0003:000e474c       ??_C@_0N@JOAP@ha?5c?5?$CDdee1e3?$AA@ 100f674c     bncs_cc02_edit.obj
 0003:000e475c       ??_C@_0N@IPHG@uL?5c?5?$CDdedfe3?$AA@ 100f675c     bncs_cc02_edit.obj
 0003:000e476c       ??_C@_0N@HCEP@bs?5c?5?$CDdedfdf?$AA@ 100f676c     bncs_cc02_edit.obj
 0003:000e477c       ??_C@_0N@MNCG@gD?5c?5?$CDdedede?$AA@ 100f677c     bncs_cc02_edit.obj
 0003:000e478c       ??_C@_0N@HIKM@fi?5c?5?$CDded5c8?$AA@ 100f678c     bncs_cc02_edit.obj
 0003:000e479c       ??_C@_0N@HPNC@fa?5c?5?$CDddffff?$AA@ 100f679c     bncs_cc02_edit.obj
 0003:000e47ac       ??_C@_0N@KJLA@x1?5c?5?$CDddf4ff?$AA@ 100f67ac     bncs_cc02_edit.obj
 0003:000e47bc       ??_C@_0N@PKKH@bg?5c?5?$CDdde3e8?$AA@ 100f67bc     bncs_cc02_edit.obj
 0003:000e47cc       ??_C@_0N@IPMG@g1?5c?5?$CDdddddd?$AA@ 100f67cc     bncs_cc02_edit.obj
 0003:000e47dc       ??_C@_0N@DKHD@bh?5c?5?$CDddd8d5?$AA@ 100f67dc     bncs_cc02_edit.obj
 0003:000e47ec       ??_C@_0N@KEIN@ju?5c?5?$CDddcdc1?$AA@ 100f67ec     bncs_cc02_edit.obj
 0003:000e47fc       ??_C@_0N@JJHM@j0?5c?5?$CDddc6ab?$AA@ 100f67fc     bncs_cc02_edit.obj
 0003:000e480c       ??_C@_0N@FDPK@vS?5c?5?$CDdcfaff?$AA@ 100f680c     bncs_cc02_edit.obj
 0003:000e481c       ??_C@_0N@DPMG@lR?5c?5?$CDdcf5ff?$AA@ 100f681c     bncs_cc02_edit.obj
 0003:000e482c       ??_C@_0N@BCGN@nc?5c?5?$CDdcf0fe?$AA@ 100f682c     bncs_cc02_edit.obj
 0003:000e483c       ??_C@_0N@JCIC@iO?5c?5?$CDdceeff?$AA@ 100f683c     bncs_cc02_edit.obj
 0003:000e484c       ??_C@_0N@EEEC@tb?5c?5?$CDdcedfb?$AA@ 100f684c     bncs_cc02_edit.obj
 0003:000e485c       ??_C@_0N@IEPH@pi?5c?5?$CDdcdcdc?$AA@ 100f685c     bncs_cc02_edit.obj
 0003:000e486c       ??_C@_0N@MILH@bp?5c?5?$CDdcdbd9?$AA@ 100f686c     bncs_cc02_edit.obj
 0003:000e487c       ??_C@_0N@MACL@uo?5c?5?$CDdcc3a5?$AA@ 100f687c     bncs_cc02_edit.obj
 0003:000e488c       ??_C@_0N@GDD@yY?5c?5?$CDdbfdff?$AA@ 100f688c     bncs_cc02_edit.obj
 0003:000e489c       ??_C@_0N@HLNH@ji?5c?5?$CDdbfbff?$AA@ 100f689c     bncs_cc02_edit.obj
 0003:000e48ac       ??_C@_0N@FOHG@k?4?5c?5?$CDdbe4f1?$AA@ 100f68ac     bncs_cc02_edit.obj
 0003:000e48bc       ??_C@_0N@PIKJ@gM?5c?5?$CDdbdbdb?$AA@ 100f68bc     bncs_cc02_edit.obj
 0003:000e48cc       ??_C@_0N@EAG@b?$CD?5c?5?$CDdbdbda?$AA@ 100f68cc     bncs_cc02_edit.obj
 0003:000e48dc       ??_C@_0N@EPHA@u1?5c?5?$CDdbd5d2?$AA@ 100f68dc     bncs_cc02_edit.obj
 0003:000e48ec       ??_C@_0N@PNAK@bT?5c?5?$CDdbd2c7?$AA@ 100f68ec     bncs_cc02_edit.obj
 0003:000e48fc       ??_C@_0N@EBPC@jP?5c?5?$CDdbc9bd?$AA@ 100f68fc     bncs_cc02_edit.obj
 0003:000e490c       ??_C@_0N@FLIA@lu?5c?5?$CDdbb994?$AA@ 100f690c     bncs_cc02_edit.obj
 0003:000e491c       ??_C@_0N@HMPP@vE?5c?5?$CDdae5ef?$AA@ 100f691c     bncs_cc02_edit.obj
 0003:000e492c       ??_C@_0N@JEGO@u0?5c?5?$CDdae1e6?$AA@ 100f692c     bncs_cc02_edit.obj
 0003:000e493c       ??_C@_0N@JLAE@ba?5c?5?$CDdadadb?$AA@ 100f693c     bncs_cc02_edit.obj
 0003:000e494c       ??_C@_0N@PFD@bj?5c?5?$CDdadada?$AA@ 100f694c     bncs_cc02_edit.obj
 0003:000e495c       ??_C@_0N@JBMO@v4?5c?5?$CDdabea4?$AA@ 100f695c     bncs_cc02_edit.obj
 0003:000e496c       ??_C@_0N@ICKO@by?5c?5?$CDdabc99?$AA@ 100f696c     bncs_cc02_edit.obj
 0003:000e497c       ??_C@_0N@COAC@vI?5c?5?$CDdab895?$AA@ 100f697c     bncs_cc02_edit.obj
 0003:000e498c       ??_C@_0N@CIKG@bB?5c?5?$CDd9fdff?$AA@ 100f698c     bncs_cc02_edit.obj
 0003:000e499c       ??_C@_0N@LKHJ@ib?5c?5?$CDd9faff?$AA@ 100f699c     bncs_cc02_edit.obj
 0003:000e49ac       ??_C@_0N@KGBF@bx?5c?5?$CDd9f5ff?$AA@ 100f69ac     bncs_cc02_edit.obj
 0003:000e49bc       ??_C@_0N@POKH@nF?5c?5?$CDd9f4ff?$AA@ 100f69bc     bncs_cc02_edit.obj
 0003:000e49cc       ??_C@_0N@LCBJ@ni?5c?5?$CDd9eaf9?$AA@ 100f69cc     bncs_cc02_edit.obj
 0003:000e49dc       ??_C@_0N@DJDM@je?5c?5?$CDd9e2e7?$AA@ 100f69dc     bncs_cc02_edit.obj
 0003:000e49ec       ??_C@_0N@DKOI@bi?5c?5?$CDd9dada?$AA@ 100f69ec     bncs_cc02_edit.obj
 0003:000e49fc       ??_C@_0N@PLBE@py?5c?5?$CDd9d9d9?$AA@ 100f69fc     bncs_cc02_edit.obj
 0003:000e4a0c       ??_C@_0N@LGMM@v?$CD?5c?5?$CDd9d9d7?$AA@ 100f6a0c     bncs_cc02_edit.obj
 0003:000e4a1c       ??_C@_0N@GPMF@bf?5c?5?$CDd9d8d8?$AA@ 100f6a1c     bncs_cc02_edit.obj
 0003:000e4a2c       ??_C@_0N@KMGC@aV?5c?5?$CDd9d4d5?$AA@ 100f6a2c     bncs_cc02_edit.obj
 0003:000e4a3c       ??_C@_0N@MBIJ@kb?5c?5?$CDd8faff?$AA@ 100f6a3c     bncs_cc02_edit.obj
 0003:000e4a4c       ??_C@_0N@ODA@xB?5c?5?$CDd8f0ff?$AA@ 100f6a4c     bncs_cc02_edit.obj
 0003:000e4a5c       ??_C@_0N@GJKF@aQ?5c?5?$CDd8e5f1?$AA@ 100f6a5c     bncs_cc02_edit.obj
 0003:000e4a6c       ??_C@_0N@HAJE@u6?5c?5?$CDd8dadb?$AA@ 100f6a6c     bncs_cc02_edit.obj
 0003:000e4a7c       ??_C@_0N@OJAN@sa?5c?5?$CDd8d8d8?$AA@ 100f6a7c     bncs_cc02_edit.obj
 0003:000e4a8c       ??_C@_0N@ICIG@cL?5c?5?$CDd8c6b2?$AA@ 100f6a8c     bncs_cc02_edit.obj
 0003:000e4a9c       ??_C@_0N@DPLD@pG?5c?5?$CDd7d7d7?$AA@ 100f6a9c     bncs_cc02_edit.obj
 0003:000e4aac       ??_C@_0N@OFHG@ja?5c?5?$CDd7cfcd?$AA@ 100f6aac     bncs_cc02_edit.obj
 0003:000e4abc       ??_C@_0N@LPFP@kF?5c?5?$CDd7ccbb?$AA@ 100f6abc     bncs_cc02_edit.obj
 0003:000e4acc       ??_C@_0N@FPJC@u2?5c?5?$CDd6d7d7?$AA@ 100f6acc     bncs_cc02_edit.obj
 0003:000e4adc       ??_C@_0N@EGGL@gK?5c?5?$CDd6d6d6?$AA@ 100f6adc     bncs_cc02_edit.obj
 0003:000e4aec       ??_C@_0N@IOH@uZ?5c?5?$CDd6d5d5?$AA@ 100f6aec     bncs_cc02_edit.obj
 0003:000e4afc       ??_C@_0N@HKBN@uM?5c?5?$CDd6d0d2?$AA@ 100f6afc     bncs_cc02_edit.obj
 0003:000e4b0c       ??_C@_0N@ILCJ@vF?5c?5?$CDd6cfc1?$AA@ 100f6b0c     bncs_cc02_edit.obj
 0003:000e4b1c       ??_C@_0N@KHEP@tH?5c?5?$CDd5eeff?$AA@ 100f6b1c     bncs_cc02_edit.obj
 0003:000e4b2c       ??_C@_0N@IFCD@kP?5c?5?$CDd5d6cd?$AA@ 100f6b2c     bncs_cc02_edit.obj
 0003:000e4b3c       ??_C@_0N@GHDB@h?$CD?5c?5?$CDd5d5d5?$AA@ 100f6b3c     bncs_cc02_edit.obj
 0003:000e4b4c       ??_C@_0N@MCFK@hf?5c?5?$CDd5d3d1?$AA@ 100f6b4c     bncs_cc02_edit.obj
 0003:000e4b5c       ??_C@_0N@FLOD@aN?5c?5?$CDd4f3ff?$AA@ 100f6b5c     bncs_cc02_edit.obj
 0003:000e4b6c       ??_C@_0N@ILGJ@k7?5c?5?$CDd4d4d4?$AA@ 100f6b6c     bncs_cc02_edit.obj
 0003:000e4b7c       ??_C@_0N@OEJ@d9?5c?5?$CDd4b898?$AA@ 100f6b7c     bncs_cc02_edit.obj
 0003:000e4b8c       ??_C@_0N@NHKL@on?5c?5?$CDd3f4ff?$AA@ 100f6b8c     bncs_cc02_edit.obj
 0003:000e4b9c       ??_C@_0N@BGID@?4E?5c?5?$CDd3f2ff?$AA@ 100f6b9c     bncs_cc02_edit.obj
 0003:000e4bac       ??_C@_0N@EOOK@?46?5c?5?$CDd3eaff?$AA@ 100f6bac     bncs_cc02_edit.obj
 0003:000e4bbc       ??_C@_0N@JHHN@eA?5c?5?$CDd3e5f4?$AA@ 100f6bbc     bncs_cc02_edit.obj
 0003:000e4bcc       ??_C@_0N@MMMO@jc?5c?5?$CDd3d3d3?$AA@ 100f6bcc     bncs_cc02_edit.obj
 0003:000e4bdc       ??_C@_0N@HEFP@?$CDn?5c?5?$CDd3c6c4?$AA@ 100f6bdc     bncs_cc02_edit.obj
 0003:000e4bec       ??_C@_0N@DCMA@k?$CD?5c?5?$CDd3bba1?$AA@ 100f6bec     bncs_cc02_edit.obj
 0003:000e4bfc       ??_C@_0N@DNFB@px?5c?5?$CDd2d2d2?$AA@ 100f6bfc     bncs_cc02_edit.obj
 0003:000e4c0c       ??_C@_0N@PFCM@kO?5c?5?$CDd2d1d0?$AA@ 100f6c0c     bncs_cc02_edit.obj
 0003:000e4c1c       ??_C@_0N@PIKC@x4?5c?5?$CDd1e4fa?$AA@ 100f6c1c     bncs_cc02_edit.obj
 0003:000e4c2c       ??_C@_0N@DLNP@lx?5c?5?$CDd1dce7?$AA@ 100f6c2c     bncs_cc02_edit.obj
 0003:000e4c3c       ??_C@_0N@FJHG@bS?5c?5?$CDd1dae4?$AA@ 100f6c3c     bncs_cc02_edit.obj
 0003:000e4c4c       ??_C@_0N@BLGB@k3?5c?5?$CDd1d1d1?$AA@ 100f6c4c     bncs_cc02_edit.obj
 0003:000e4c5c       ??_C@_0N@FCA@m8?5c?5?$CDd1c2af?$AA@ 100f6c5c     bncs_cc02_edit.obj
 0003:000e4c6c       ??_C@_0N@CFGB@wx?5c?5?$CDd1b49a?$AA@ 100f6c6c     bncs_cc02_edit.obj
 0003:000e4c7c       ??_C@_0N@MPIF@dB?5c?5?$CDd1b28d?$AA@ 100f6c7c     bncs_cc02_edit.obj
 0003:000e4c8c       ??_C@_0N@BCMF@rg?5c?5?$CDd1ad86?$AA@ 100f6c8c     bncs_cc02_edit.obj
 0003:000e4c9c       ??_C@_0N@NKBO@?$CD?4?5c?5?$CDd0f2ff?$AA@ 100f6c9c     bncs_cc02_edit.obj
 0003:000e4cac       ??_C@_0N@OLGB@vL?5c?5?$CDd0eafd?$AA@ 100f6cac     bncs_cc02_edit.obj
 0003:000e4cbc       ??_C@_0N@PLML@y6?5c?5?$CDd0dee7?$AA@ 100f6cbc     bncs_cc02_edit.obj
 0003:000e4ccc       ??_C@_0N@FNOK@yD?5c?5?$CDd0d9e0?$AA@ 100f6ccc     bncs_cc02_edit.obj
 0003:000e4cdc       ??_C@_0N@MIJE@jb?5c?5?$CDd0d1d2?$AA@ 100f6cdc     bncs_cc02_edit.obj
 0003:000e4cec       ??_C@_0N@NGGK@k4?5c?5?$CDd0d0d0?$AA@ 100f6cec     bncs_cc02_edit.obj
 0003:000e4cfc       ??_C@_0N@GPKL@jd?5c?5?$CDd0cfce?$AA@ 100f6cfc     bncs_cc02_edit.obj
 0003:000e4d0c       ??_C@_0N@CBFN@z?$CD?5c?5?$CDd0c4c1?$AA@ 100f6d0c     bncs_cc02_edit.obj
 0003:000e4d1c       ??_C@_0N@EDGJ@eu?5c?5?$CDd0c1b0?$AA@ 100f6d1c     bncs_cc02_edit.obj
 0003:000e4d2c       ??_C@_0N@GGOA@b9?5c?5?$CDd0b799?$AA@ 100f6d2c     bncs_cc02_edit.obj
 0003:000e4d3c       ??_C@_0N@BMEJ@tj?5c?5?$CDcfd8e3?$AA@ 100f6d3c     bncs_cc02_edit.obj
 0003:000e4d4c       ??_C@_0N@OFM@hm?5c?5?$CDcfd1d4?$AA@ 100f6d4c     bncs_cc02_edit.obj
 0003:000e4d5c       ??_C@_0N@HBLP@i2?5c?5?$CDcfcfcf?$AA@ 100f6d5c     bncs_cc02_edit.obj
 0003:000e4d6c       ??_C@_0N@LJAE@kC?5c?5?$CDcfcecd?$AA@ 100f6d6c     bncs_cc02_edit.obj
 0003:000e4d7c       ??_C@_0N@DPA@nb?5c?5?$CDcfb28e?$AA@ 100f6d7c     bncs_cc02_edit.obj
 0003:000e4d8c       ??_C@_0N@LNFO@kE?5c?5?$CDcecfd1?$AA@ 100f6d8c     bncs_cc02_edit.obj
 0003:000e4d9c       ??_C@_0N@CIGJ@k9?5c?5?$CDcecece?$AA@ 100f6d9c     bncs_cc02_edit.obj
 0003:000e4dac       ??_C@_0N@DIDL@aG?5c?5?$CDceb08e?$AA@ 100f6dac     bncs_cc02_edit.obj
 0003:000e4dbc       ??_C@_0N@CPFL@aE?5c?5?$CDceac8c?$AA@ 100f6dbc     bncs_cc02_edit.obj
 0003:000e4dcc       ??_C@_0N@KAJO@v5?5c?5?$CDcdf0ff?$AA@ 100f6dcc     bncs_cc02_edit.obj
 0003:000e4ddc       ??_C@_0N@OICK@qc?5c?5?$CDcdecff?$AA@ 100f6ddc     bncs_cc02_edit.obj
 0003:000e4dec       ??_C@_0N@DOPH@kD?5c?5?$CDcdcdcd?$AA@ 100f6dec     bncs_cc02_edit.obj
 0003:000e4dfc       ??_C@_0N@PEAB@qp?5c?5?$CDcdc6c7?$AA@ 100f6dfc     bncs_cc02_edit.obj
 0003:000e4e0c       ??_C@_0N@PNCJ@i0?5c?5?$CDcdbba4?$AA@ 100f6e0c     bncs_cc02_edit.obj
 0003:000e4e1c       ??_C@_0N@PLJK@dG?5c?5?$CDcdb392?$AA@ 100f6e1c     bncs_cc02_edit.obj
 0003:000e4e2c       ??_C@_0N@NEKG@vs?5c?5?$CDcdaa87?$AA@ 100f6e2c     bncs_cc02_edit.obj
 0003:000e4e3c       ??_C@_0N@GCBI@xZ?5c?5?$CDcce2f1?$AA@ 100f6e3c     bncs_cc02_edit.obj
 0003:000e4e4c       ??_C@_0N@ILNJ@bX?5c?5?$CDccd6e1?$AA@ 100f6e4c     bncs_cc02_edit.obj
 0003:000e4e5c       ??_C@_0N@HDPE@f?4?5c?5?$CDcccccc?$AA@ 100f6e5c     bncs_cc02_edit.obj
 0003:000e4e6c       ??_C@_0N@LOFD@mM?5c?5?$CDccb39f?$AA@ 100f6e6c     bncs_cc02_edit.obj
 0003:000e4e7c       ??_C@_0N@DKEC@yq?5c?5?$CDcbecff?$AA@ 100f6e7c     bncs_cc02_edit.obj
 0003:000e4e8c       ??_C@_0N@JOFN@aH?5c?5?$CDcbebff?$AA@ 100f6e8c     bncs_cc02_edit.obj
 0003:000e4e9c       ??_C@_0N@FDFK@pq?5c?5?$CDcbcbcb?$AA@ 100f6e9c     bncs_cc02_edit.obj
 0003:000e4eac       ??_C@_0N@IFPF@al?5c?5?$CDcaebff?$AA@ 100f6eac     bncs_cc02_edit.obj
 0003:000e4ebc       ??_C@_0N@HGAL@yR?5c?5?$CDcae8ff?$AA@ 100f6ebc     bncs_cc02_edit.obj
 0003:000e4ecc       ??_C@_0N@LNLC@r7?5c?5?$CDcacaca?$AA@ 100f6ecc     bncs_cc02_edit.obj
 0003:000e4edc       ??_C@_0N@HMHB@oL?5c?5?$CDcabcb1?$AA@ 100f6edc     bncs_cc02_edit.obj
 0003:000e4eec       ??_C@_0N@CML@cy?5c?5?$CDc9e7ff?$AA@ 100f6eec     bncs_cc02_edit.obj
 0003:000e4efc       ??_C@_0N@PELM@e2?5c?5?$CDc9e6ff?$AA@ 100f6efc     bncs_cc02_edit.obj
 0003:000e4f0c       ??_C@_0N@LKMB@hg?5c?5?$CDc9c9c9?$AA@ 100f6f0c     bncs_cc02_edit.obj
 0003:000e4f1c       ??_C@_0N@DBLP@jp?5c?5?$CDc9bbab?$AA@ 100f6f1c     bncs_cc02_edit.obj
 0003:000e4f2c       ??_C@_0N@FHEF@t6?5c?5?$CDc8eaff?$AA@ 100f6f2c     bncs_cc02_edit.obj
 0003:000e4f3c       ??_C@_0N@CDBM@hl?5c?5?$CDc8c8c9?$AA@ 100f6f3c     bncs_cc02_edit.obj
 0003:000e4f4c       ??_C@_0N@IAKN@eq?5c?5?$CDc8c8c8?$AA@ 100f6f4c     bncs_cc02_edit.obj
 0003:000e4f5c       ??_C@_0N@BPJK@?44?5c?5?$CDc7e5ff?$AA@ 100f6f5c     bncs_cc02_edit.obj
 0003:000e4f6c       ??_C@_0N@NDPD@hr?5c?5?$CDc7cfd7?$AA@ 100f6f6c     bncs_cc02_edit.obj
 0003:000e4f7c       ??_C@_0N@FGLK@it?5c?5?$CDc7c7c7?$AA@ 100f6f7c     bncs_cc02_edit.obj
 0003:000e4f8c       ??_C@_0N@BKOM@hk?5c?5?$CDc7c3c2?$AA@ 100f6f8c     bncs_cc02_edit.obj
 0003:000e4f9c       ??_C@_0N@LPFH@aB?5c?5?$CDc7c2bb?$AA@ 100f6f9c     bncs_cc02_edit.obj
 0003:000e4fac       ??_C@_0N@FNBM@vk?5c?5?$CDc7b9af?$AA@ 100f6fac     bncs_cc02_edit.obj
 0003:000e4fbc       ??_C@_0N@PJFP@an?5c?5?$CDc6e9ff?$AA@ 100f6fbc     bncs_cc02_edit.obj
 0003:000e4fcc       ??_C@_0N@ILHM@bM?5c?5?$CDc6def5?$AA@ 100f6fcc     bncs_cc02_edit.obj
 0003:000e4fdc       ??_C@_0N@BJNE@sf?5c?5?$CDc6c6c6?$AA@ 100f6fdc     bncs_cc02_edit.obj
 0003:000e4fec       ??_C@_0N@GFIP@hz?5c?5?$CDc5e7ff?$AA@ 100f6fec     bncs_cc02_edit.obj
 0003:000e4ffc       ??_C@_0N@IPEL@nk?5c?5?$CDc5c5c5?$AA@ 100f6ffc     bncs_cc02_edit.obj
 0003:000e500c       ??_C@_0N@HPAE@x8?5c?5?$CDc5b9aa?$AA@ 100f700c     bncs_cc02_edit.obj
 0003:000e501c       ??_C@_0N@DFCA@n0?5c?5?$CDc5a888?$AA@ 100f701c     bncs_cc02_edit.obj
 0003:000e502c       ??_C@_0N@GHCN@up?5c?5?$CDc4e3ff?$AA@ 100f702c     bncs_cc02_edit.obj
 0003:000e503c       ??_C@_0N@HPGO@go?5c?5?$CDc4c4c4?$AA@ 100f703c     bncs_cc02_edit.obj
 0003:000e504c       ??_C@_0N@NIIF@bE?5c?5?$CDc4c0bb?$AA@ 100f704c     bncs_cc02_edit.obj
 0003:000e505c       ??_C@_0N@JECH@xO?5c?5?$CDc49d76?$AA@ 100f705c     bncs_cc02_edit.obj
 0003:000e506c       ??_C@_0N@JMPO@x?$CD?5c?5?$CDc3edff?$AA@ 100f706c     bncs_cc02_edit.obj
 0003:000e507c       ??_C@_0N@JCLG@lD?5c?5?$CDc3e6ff?$AA@ 100f707c     bncs_cc02_edit.obj
 0003:000e508c       ??_C@_0N@JNFD@na?5c?5?$CDc3dbf6?$AA@ 100f708c     bncs_cc02_edit.obj
 0003:000e509c       ??_C@_0N@HGNI@eT?5c?5?$CDc3d0db?$AA@ 100f709c     bncs_cc02_edit.obj
 0003:000e50ac       ??_C@_0N@GJKF@bV?5c?5?$CDc3c3c3?$AA@ 100f70ac     bncs_cc02_edit.obj
 0003:000e50bc       ??_C@_0N@KIEF@o1?5c?5?$CDc3c0be?$AA@ 100f70bc     bncs_cc02_edit.obj
 0003:000e50cc       ??_C@_0N@DCMB@xR?5c?5?$CDc2ecff?$AA@ 100f70cc     bncs_cc02_edit.obj
 0003:000e50dc       ??_C@_0N@OEAF@rE?5c?5?$CDc2e0f9?$AA@ 100f70dc     bncs_cc02_edit.obj
 0003:000e50ec       ??_C@_0N@NLMI@t?4?5c?5?$CDc2dffb?$AA@ 100f70ec     bncs_cc02_edit.obj
 0003:000e50fc       ??_C@_0N@PHCH@uT?5c?5?$CDc2d0dd?$AA@ 100f70fc     bncs_cc02_edit.obj
 0003:000e510c       ??_C@_0N@NHAI@oW?5c?5?$CDc2c4c5?$AA@ 100f710c     bncs_cc02_edit.obj
 0003:000e511c       ??_C@_0N@EEPI@gz?5c?5?$CDc2c2c2?$AA@ 100f711c     bncs_cc02_edit.obj
 0003:000e512c       ??_C@_0N@KIGD@hh?5c?5?$CDc2c2c1?$AA@ 100f712c     bncs_cc02_edit.obj
 0003:000e513c       ??_C@_0N@HIJL@bW?5c?5?$CDc2c1c0?$AA@ 100f713c     bncs_cc02_edit.obj
 0003:000e514c       ??_C@_0N@LDPL@zf?5c?5?$CDc2bab9?$AA@ 100f714c     bncs_cc02_edit.obj
 0003:000e515c       ??_C@_0N@JJKJ@?4H?5c?5?$CDc2a27e?$AA@ 100f715c     bncs_cc02_edit.obj
 0003:000e516c       ??_C@_0N@NBEA@xr?5c?5?$CDc1ebff?$AA@ 100f716c     bncs_cc02_edit.obj
 0003:000e517c       ??_C@_0N@ECFJ@w1?5c?5?$CDc1dff6?$AA@ 100f717c     bncs_cc02_edit.obj
 0003:000e518c       ??_C@_0N@IGPL@h4?5c?5?$CDc1cbd8?$AA@ 100f718c     bncs_cc02_edit.obj
 0003:000e519c       ??_C@_0N@BIMF@bU?5c?5?$CDc1c1c2?$AA@ 100f719c     bncs_cc02_edit.obj
 0003:000e51ac       ??_C@_0N@OPGG@gk?5c?5?$CDc1c1c1?$AA@ 100f71ac     bncs_cc02_edit.obj
 0003:000e51bc       ??_C@_0N@PJLL@m4?5c?5?$CDc1bab2?$AA@ 100f71bc     bncs_cc02_edit.obj
 0003:000e51cc       ??_C@_0N@FMND@tf?5c?5?$CDc0cad5?$AA@ 100f71cc     bncs_cc02_edit.obj
 0003:000e51dc       ??_C@_0N@LAOI@q2?5c?5?$CDc0c0c0?$AA@ 100f71dc     bncs_cc02_edit.obj
 0003:000e51ec       ??_C@_0N@DGJJ@kl?5c?5?$CDc0b8a8?$AA@ 100f71ec     bncs_cc02_edit.obj
 0003:000e51fc       ??_C@_0N@EODM@?$CDL?5c?5?$CDbfdefd?$AA@ 100f71fc     bncs_cc02_edit.obj
 0003:000e520c       ??_C@_0N@JNLD@gs?5c?5?$CDbfbfbf?$AA@ 100f720c     bncs_cc02_edit.obj
 0003:000e521c       ??_C@_0N@DCLM@lc?5c?5?$CDbfa180?$AA@ 100f721c     bncs_cc02_edit.obj
 0003:000e522c       ??_C@_0N@IHN@kB?5c?5?$CDbec8cd?$AA@ 100f722c     bncs_cc02_edit.obj
 0003:000e523c       ??_C@_0N@EFNO@oU?5c?5?$CDbec2c2?$AA@ 100f723c     bncs_cc02_edit.obj
 0003:000e524c       ??_C@_0N@NPIJ@ic?5c?5?$CDbebebe?$AA@ 100f724c     bncs_cc02_edit.obj
 0003:000e525c       ??_C@_0N@NHKD@cO?5c?5?$CDbde1ff?$AA@ 100f725c     bncs_cc02_edit.obj
 0003:000e526c       ??_C@_0N@MHBL@rZ?5c?5?$CDbdbdbd?$AA@ 100f726c     bncs_cc02_edit.obj
 0003:000e527c       ??_C@_0N@FFOF@t8?5c?5?$CDbcd7ef?$AA@ 100f727c     bncs_cc02_edit.obj
 0003:000e528c       ??_C@_0N@BDMC@at?5c?5?$CDbcd1e5?$AA@ 100f728c     bncs_cc02_edit.obj
 0003:000e529c       ??_C@_0N@OGOD@vh?5c?5?$CDbcc9d5?$AA@ 100f729c     bncs_cc02_edit.obj
 0003:000e52ac       ??_C@_0N@JPLC@bF?5c?5?$CDbcbdc0?$AA@ 100f72ac     bncs_cc02_edit.obj
 0003:000e52bc       ??_C@_0N@LCAL@fI?5c?5?$CDbcbcbc?$AA@ 100f72bc     bncs_cc02_edit.obj
 0003:000e52cc       ??_C@_0N@PJDN@cr?5c?5?$CDbcbab8?$AA@ 100f72cc     bncs_cc02_edit.obj
 0003:000e52dc       ??_C@_0N@PPLJ@mE?5c?5?$CDbcb2a8?$AA@ 100f72dc     bncs_cc02_edit.obj
 0003:000e52ec       ??_C@_0N@JGAC@a0?5c?5?$CDbcb2a3?$AA@ 100f72ec     bncs_cc02_edit.obj
 0003:000e52fc       ??_C@_0N@IFOO@ol?5c?5?$CDbca78e?$AA@ 100f72fc     bncs_cc02_edit.obj
 0003:000e530c       ??_C@_0N@FOEJ@e0?5c?5?$CDbbd8f4?$AA@ 100f730c     bncs_cc02_edit.obj
 0003:000e531c       ??_C@_0N@FBED@i?$CD?5c?5?$CDbbd2dc?$AA@ 100f731c     bncs_cc02_edit.obj
 0003:000e532c       ??_C@_0N@FIHI@pI?5c?5?$CDbbbbbb?$AA@ 100f732c     bncs_cc02_edit.obj
 0003:000e533c       ??_C@_0N@LBFH@bY?5c?5?$CDbba999?$AA@ 100f733c     bncs_cc02_edit.obj
 0003:000e534c       ??_C@_0N@EEDI@ko?5c?5?$CDbb9275?$AA@ 100f734c     bncs_cc02_edit.obj
 0003:000e535c       ??_C@_0N@DLMH@ql?5c?5?$CDbabbbd?$AA@ 100f735c     bncs_cc02_edit.obj
 0003:000e536c       ??_C@_0N@MCDK@ie?5c?5?$CDbababa?$AA@ 100f736c     bncs_cc02_edit.obj
 0003:000e537c       ??_C@_0N@BKAG@h7?5c?5?$CDbab0a5?$AA@ 100f737c     bncs_cc02_edit.obj
 0003:000e538c       ??_C@_0N@NMKE@mT?5c?5?$CDbaaea5?$AA@ 100f738c     bncs_cc02_edit.obj
 0003:000e539c       ??_C@_0N@HLCG@vA?5c?5?$CDba9e80?$AA@ 100f739c     bncs_cc02_edit.obj
 0003:000e53ac       ??_C@_0N@EGIF@nM?5c?5?$CDb9c5cf?$AA@ 100f73ac     bncs_cc02_edit.obj
 0003:000e53bc       ??_C@_0N@POEN@o9?5c?5?$CDb9bbb6?$AA@ 100f73bc     bncs_cc02_edit.obj
 0003:000e53cc       ??_C@_0N@JIHO@hE?5c?5?$CDb9b9b9?$AA@ 100f73cc     bncs_cc02_edit.obj
 0003:000e53dc       ??_C@_0N@ELBI@oQ?5c?5?$CDb9b6b5?$AA@ 100f73dc     bncs_cc02_edit.obj
 0003:000e53ec       ??_C@_0N@EMLA@o8?5c?5?$CDb9abac?$AA@ 100f73ec     bncs_cc02_edit.obj
 0003:000e53fc       ??_C@_0N@DPJM@y?$CD?5c?5?$CDb8d4ef?$AA@ 100f73fc     bncs_cc02_edit.obj
 0003:000e540c       ??_C@_0N@JJK@?$CDI?5c?5?$CDb8d4ea?$AA@ 100f740c     bncs_cc02_edit.obj
 0003:000e541c       ??_C@_0N@DGPJ@?$CDG?5c?5?$CDb8d3ee?$AA@ 100f741c     bncs_cc02_edit.obj
 0003:000e542c       ??_C@_0N@JCMK@yL?5c?5?$CDb8c2ce?$AA@ 100f742c     bncs_cc02_edit.obj
 0003:000e543c       ??_C@_0N@OIKP@fK?5c?5?$CDb8b8b8?$AA@ 100f743c     bncs_cc02_edit.obj
 0003:000e544c       ??_C@_0N@CHHD@wK?5c?5?$CDb8ada0?$AA@ 100f744c     bncs_cc02_edit.obj
 0003:000e545c       ??_C@_0N@CPPA@jk?5c?5?$CDb7b7b7?$AA@ 100f745c     bncs_cc02_edit.obj
 0003:000e546c       ??_C@_0N@INIM@oS?5c?5?$CDb7ad9c?$AA@ 100f746c     bncs_cc02_edit.obj
 0003:000e547c       ??_C@_0N@EDEE@ei?5c?5?$CDb7a497?$AA@ 100f747c     bncs_cc02_edit.obj
 0003:000e548c       ??_C@_0N@FMFK@ov?5c?5?$CDb7987a?$AA@ 100f748c     bncs_cc02_edit.obj
 0003:000e549c       ??_C@_0N@OFBH@es?5c?5?$CDb6b6b6?$AA@ 100f749c     bncs_cc02_edit.obj
 0003:000e54ac       ??_C@_0N@OGGC@rA?5c?5?$CDb68e6d?$AA@ 100f74ac     bncs_cc02_edit.obj
 0003:000e54bc       ??_C@_0N@KABJ@oR?5c?5?$CDb5b6b7?$AA@ 100f74bc     bncs_cc02_edit.obj
 0003:000e54cc       ??_C@_0N@DIIP@hy?5c?5?$CDb5b5b5?$AA@ 100f74cc     bncs_cc02_edit.obj
 0003:000e54dc       ??_C@_0N@JECM@rr?5c?5?$CDb5b4b3?$AA@ 100f74dc     bncs_cc02_edit.obj
 0003:000e54ec       ??_C@_0N@JGNH@rk?5c?5?$CDb5b3b2?$AA@ 100f74ec     bncs_cc02_edit.obj
 0003:000e54fc       ??_C@_0N@KNPO@tE?5c?5?$CDb59674?$AA@ 100f74fc     bncs_cc02_edit.obj
 0003:000e550c       ??_C@_0N@LKDN@xJ?5c?5?$CDb5916e?$AA@ 100f750c     bncs_cc02_edit.obj
 0003:000e551c       ??_C@_0N@GHMB@yf?5c?5?$CDb4c0ce?$AA@ 100f751c     bncs_cc02_edit.obj
 0003:000e552c       ??_C@_0N@DHNH@iR?5c?5?$CDb4b4b4?$AA@ 100f752c     bncs_cc02_edit.obj
 0003:000e553c       ??_C@_0N@BKBD@oV?5c?5?$CDb4b3b3?$AA@ 100f753c     bncs_cc02_edit.obj
 0003:000e554c       ??_C@_0N@BNEF@oZ?5c?5?$CDb4b2b8?$AA@ 100f754c     bncs_cc02_edit.obj
 0003:000e555c       ??_C@_0N@IDIP@nY?5c?5?$CDb4a492?$AA@ 100f755c     bncs_cc02_edit.obj
 0003:000e556c       ??_C@_0N@OFID@?49?5c?5?$CDb49570?$AA@ 100f756c     bncs_cc02_edit.obj
 0003:000e557c       ??_C@_0N@PMJL@hv?5c?5?$CDb48c70?$AA@ 100f757c     bncs_cc02_edit.obj
 0003:000e558c       ??_C@_0N@LNPH@v3?5c?5?$CDb3bfc9?$AA@ 100f758c     bncs_cc02_edit.obj
 0003:000e559c       ??_C@_0N@FHK@ur?5c?5?$CDb3b7bb?$AA@ 100f759c     bncs_cc02_edit.obj
 0003:000e55ac       ??_C@_0N@IMIE@ma?5c?5?$CDb3b4b5?$AA@ 100f75ac     bncs_cc02_edit.obj
 0003:000e55bc       ??_C@_0N@MJFK@o2?5c?5?$CDb3b4b4?$AA@ 100f75bc     bncs_cc02_edit.obj
 0003:000e55cc       ??_C@_0N@NKJL@n5?5c?5?$CDb3b3b3?$AA@ 100f75cc     bncs_cc02_edit.obj
 0003:000e55dc       ??_C@_0N@KIIO@m?4?5c?5?$CDb3b2b1?$AA@ 100f75dc     bncs_cc02_edit.obj
 0003:000e55ec       ??_C@_0N@BLEI@o6?5c?5?$CDb3b1af?$AA@ 100f75ec     bncs_cc02_edit.obj
 0003:000e55fc       ??_C@_0N@KANM@j5?5c?5?$CDb3a596?$AA@ 100f75fc     bncs_cc02_edit.obj
 0003:000e560c       ??_C@_0N@HNNC@b0?5c?5?$CDb2c8d8?$AA@ 100f760c     bncs_cc02_edit.obj
 0003:000e561c       ??_C@_0N@LLHL@eI?5c?5?$CDb2bac7?$AA@ 100f761c     bncs_cc02_edit.obj
 0003:000e562c       ??_C@_0N@ENBJ@gV?5c?5?$CDb2b2b2?$AA@ 100f762c     bncs_cc02_edit.obj
 0003:000e563c       ??_C@_0N@BCKO@pc?5c?5?$CDb2b0af?$AA@ 100f763c     bncs_cc02_edit.obj
 0003:000e564c       ??_C@_0N@LFFF@yN?5c?5?$CDb2a68f?$AA@ 100f764c     bncs_cc02_edit.obj
 0003:000e565c       ??_C@_0N@KHAI@us?5c?5?$CDb29d86?$AA@ 100f765c     bncs_cc02_edit.obj
 0003:000e566c       ??_C@_0N@GGL@mL?5c?5?$CDb1c1cd?$AA@ 100f766c     bncs_cc02_edit.obj
 0003:000e567c       ??_C@_0N@FKOD@mj?5c?5?$CDb1bac2?$AA@ 100f767c     bncs_cc02_edit.obj
 0003:000e568c       ??_C@_0N@OCHN@m6?5c?5?$CDb1b1b1?$AA@ 100f768c     bncs_cc02_edit.obj
 0003:000e569c       ??_C@_0N@GIHO@xm?5c?5?$CDb0d3e9?$AA@ 100f769c     bncs_cc02_edit.obj
 0003:000e56ac       ??_C@_0N@FKBL@eL?5c?5?$CDb0c1d8?$AA@ 100f76ac     bncs_cc02_edit.obj
 0003:000e56bc       ??_C@_0N@KIJF@nq?5c?5?$CDb0c1cf?$AA@ 100f76bc     bncs_cc02_edit.obj
 0003:000e56cc       ??_C@_0N@FECL@xp?5c?5?$CDb0bed3?$AA@ 100f76cc     bncs_cc02_edit.obj
 0003:000e56dc       ??_C@_0N@PKFA@uD?5c?5?$CDb0b9c1?$AA@ 100f76dc     bncs_cc02_edit.obj
 0003:000e56ec       ??_C@_0N@IFEJ@m5?5c?5?$CDb0b0b0?$AA@ 100f76ec     bncs_cc02_edit.obj
 0003:000e56fc       ??_C@_0N@HDCF@yA?5c?5?$CDb0a598?$AA@ 100f76fc     bncs_cc02_edit.obj
 0003:000e570c       ??_C@_0N@DNNA@ci?5c?5?$CDb09c85?$AA@ 100f770c     bncs_cc02_edit.obj
 0003:000e571c       ??_C@_0N@FNKO@ak?5c?5?$CDb09069?$AA@ 100f771c     bncs_cc02_edit.obj
 0003:000e572c       ??_C@_0N@KBOL@oz?5c?5?$CDafbbc9?$AA@ 100f772c     bncs_cc02_edit.obj
 0003:000e573c       ??_C@_0N@BPEL@oO?5c?5?$CDafafaf?$AA@ 100f773c     bncs_cc02_edit.obj
 0003:000e574c       ??_C@_0N@FGLP@vd?5c?5?$CDaf8f6c?$AA@ 100f774c     bncs_cc02_edit.obj
 0003:000e575c       ??_C@_0N@FHCD@hD?5c?5?$CDaf886d?$AA@ 100f775c     bncs_cc02_edit.obj
 0003:000e576c       ??_C@_0N@NAPA@dL?5c?5?$CDaed3f2?$AA@ 100f776c     bncs_cc02_edit.obj
 0003:000e577c       ??_C@_0N@LCKD@wh?5c?5?$CDaed1f0?$AA@ 100f777c     bncs_cc02_edit.obj
 0003:000e578c       ??_C@_0N@MCOO@pf?5c?5?$CDaeafb1?$AA@ 100f778c     bncs_cc02_edit.obj
 0003:000e579c       ??_C@_0N@CBDK@m?$CD?5c?5?$CDaeaeae?$AA@ 100f779c     bncs_cc02_edit.obj
 0003:000e57ac       ??_C@_0N@BAKB@vP?5c?5?$CDae8568?$AA@ 100f77ac     bncs_cc02_edit.obj
 0003:000e57bc       ??_C@_0N@CJKN@rv?5c?5?$CDadbac7?$AA@ 100f77bc     bncs_cc02_edit.obj
 0003:000e57cc       ??_C@_0N@KPDO@gl?5c?5?$CDadadad?$AA@ 100f77cc     bncs_cc02_edit.obj
 0003:000e57dc       ??_C@_0N@GJCC@bL?5c?5?$CDad8e75?$AA@ 100f77dc     bncs_cc02_edit.obj
 0003:000e57ec       ??_C@_0N@BLNP@rU?5c?5?$CDad8d69?$AA@ 100f77ec     bncs_cc02_edit.obj
 0003:000e57fc       ??_C@_0N@FAAK@?$CDK?5c?5?$CDad8d63?$AA@ 100f77fc     bncs_cc02_edit.obj
 0003:000e580c       ??_C@_0N@JNMH@?42?5c?5?$CDacc9bf?$AA@ 100f780c     bncs_cc02_edit.obj
 0003:000e581c       ??_C@_0N@PAKM@y9?5c?5?$CDacb4b6?$AA@ 100f781c     bncs_cc02_edit.obj
 0003:000e582c       ??_C@_0N@PCFB@nX?5c?5?$CDacafb2?$AA@ 100f782c     bncs_cc02_edit.obj
 0003:000e583c       ??_C@_0N@BHPG@qf?5c?5?$CDacacac?$AA@ 100f783c     bncs_cc02_edit.obj
 0003:000e584c       ??_C@_0N@NKFE@fn?5c?5?$CDac9d97?$AA@ 100f784c     bncs_cc02_edit.obj
 0003:000e585c       ??_C@_0N@MFDI@mZ?5c?5?$CDac9884?$AA@ 100f785c     bncs_cc02_edit.obj
 0003:000e586c       ??_C@_0N@PLFC@vK?5c?5?$CDac8b6a?$AA@ 100f786c     bncs_cc02_edit.obj
 0003:000e587c       ??_C@_0N@EBJI@sd?5c?5?$CDababab?$AA@ 100f787c     bncs_cc02_edit.obj
 0003:000e588c       ??_C@_0N@MHMM@xx?5c?5?$CDabaaaa?$AA@ 100f788c     bncs_cc02_edit.obj
 0003:000e589c       ??_C@_0N@LAPN@rb?5c?5?$CDaacdea?$AA@ 100f789c     bncs_cc02_edit.obj
 0003:000e58ac       ??_C@_0N@LGMA@tD?5c?5?$CDaabac4?$AA@ 100f78ac     bncs_cc02_edit.obj
 0003:000e58bc       ??_C@_0N@JNKP@bo?5c?5?$CDaab5bf?$AA@ 100f78bc     bncs_cc02_edit.obj
 0003:000e58cc       ??_C@_0N@PNMM@ig?5c?5?$CDaaaaaa?$AA@ 100f78cc     bncs_cc02_edit.obj
 0003:000e58dc       ??_C@_0N@GGLA@q8?5c?5?$CDaa8d6c?$AA@ 100f78dc     bncs_cc02_edit.obj
 0003:000e58ec       ??_C@_0N@JCKB@m1?5c?5?$CDa9c2d8?$AA@ 100f78ec     bncs_cc02_edit.obj
 0003:000e58fc       ??_C@_0N@NOOA@m7?5c?5?$CDa9a8a7?$AA@ 100f78fc     bncs_cc02_edit.obj
 0003:000e590c       ??_C@_0N@CCOG@xH?5c?5?$CDa98a66?$AA@ 100f790c     bncs_cc02_edit.obj
 0003:000e591c       ??_C@_0N@FFGB@jj?5c?5?$CDa98063?$AA@ 100f791c     bncs_cc02_edit.obj
 0003:000e592c       ??_C@_0N@IECE@wk?5c?5?$CDa8c5e1?$AA@ 100f792c     bncs_cc02_edit.obj
 0003:000e593c       ??_C@_0N@JLLA@w6?5c?5?$CDa8c0da?$AA@ 100f793c     bncs_cc02_edit.obj
 0003:000e594c       ??_C@_0N@OCIG@jg?5c?5?$CDa8c0d2?$AA@ 100f794c     bncs_cc02_edit.obj
 0003:000e595c       ??_C@_0N@IOCM@oG?5c?5?$CDa8b3c0?$AA@ 100f795c     bncs_cc02_edit.obj
 0003:000e596c       ??_C@_0N@OEOP@pC?5c?5?$CDa8a8a8?$AA@ 100f796c     bncs_cc02_edit.obj
 0003:000e597c       ??_C@_0N@DOJO@wZ?5c?5?$CDa7a9a1?$AA@ 100f797c     bncs_cc02_edit.obj
 0003:000e598c       ??_C@_0N@PAIE@iu?5c?5?$CDa7a7a7?$AA@ 100f798c     bncs_cc02_edit.obj
 0003:000e599c       ??_C@_0N@IEID@uG?5c?5?$CDa79e92?$AA@ 100f799c     bncs_cc02_edit.obj
 0003:000e59ac       ??_C@_0N@LPLI@nl?5c?5?$CDa6a6a6?$AA@ 100f79ac     bncs_cc02_edit.obj
 0003:000e59bc       ??_C@_0N@LCGF@tw?5c?5?$CDa6a4a3?$AA@ 100f79bc     bncs_cc02_edit.obj
 0003:000e59cc       ??_C@_0N@NMHK@tX?5c?5?$CDa5b2bb?$AA@ 100f79cc     bncs_cc02_edit.obj
 0003:000e59dc       ??_C@_0N@LJEO@q4?5c?5?$CDa5a5a5?$AA@ 100f79dc     bncs_cc02_edit.obj
 0003:000e59ec       ??_C@_0N@GGHA@pg?5c?5?$CDa59990?$AA@ 100f79ec     bncs_cc02_edit.obj
 0003:000e59fc       ??_C@_0N@GEOC@qF?5c?5?$CDa5876b?$AA@ 100f79fc     bncs_cc02_edit.obj
 0003:000e5a0c       ??_C@_0N@DNEC@a5?5c?5?$CDa4c5e5?$AA@ 100f7a0c     bncs_cc02_edit.obj
 0003:000e5a1c       ??_C@_0N@POHO@cl?5c?5?$CDa4b5c6?$AA@ 100f7a1c     bncs_cc02_edit.obj
 0003:000e5a2c       ??_C@_0N@KJJE@r8?5c?5?$CDa4a4a4?$AA@ 100f7a2c     bncs_cc02_edit.obj
 0003:000e5a3c       ??_C@_0N@LFDG@rt?5c?5?$CDa4a3a2?$AA@ 100f7a3c     bncs_cc02_edit.obj
 0003:000e5a4c       ??_C@_0N@CPOM@wM?5c?5?$CDa49685?$AA@ 100f7a4c     bncs_cc02_edit.obj
 0003:000e5a5c       ??_C@_0N@MFHN@w3?5c?5?$CDa48865?$AA@ 100f7a5c     bncs_cc02_edit.obj
 0003:000e5a6c       ??_C@_0N@MKPG@ec?5c?5?$CDa3b4c8?$AA@ 100f7a6c     bncs_cc02_edit.obj
 0003:000e5a7c       ??_C@_0N@GNHC@tO?5c?5?$CDa3a5a6?$AA@ 100f7a7c     bncs_cc02_edit.obj
 0003:000e5a8c       ??_C@_0N@MFGN@sb?5c?5?$CDa3a3a3?$AA@ 100f7a8c     bncs_cc02_edit.obj
 0003:000e5a9c       ??_C@_0N@IBBA@ml?5c?5?$CDa39b8c?$AA@ 100f7a9c     bncs_cc02_edit.obj
 0003:000e5aac       ??_C@_0N@JBDH@jY?5c?5?$CDa38b74?$AA@ 100f7aac     bncs_cc02_edit.obj
 0003:000e5abc       ??_C@_0N@MDDN@xN?5c?5?$CDa2c8eb?$AA@ 100f7abc     bncs_cc02_edit.obj
 0003:000e5acc       ??_C@_0N@GBCH@aT?5c?5?$CDa2bcd3?$AA@ 100f7acc     bncs_cc02_edit.obj
 0003:000e5adc       ??_C@_0N@EAIM@ok?5c?5?$CDa2adc2?$AA@ 100f7adc     bncs_cc02_edit.obj
 0003:000e5aec       ??_C@_0N@FCLL@aZ?5c?5?$CDa2acb6?$AA@ 100f7aec     bncs_cc02_edit.obj
 0003:000e5afc       ??_C@_0N@NINA@gP?5c?5?$CDa2a2a2?$AA@ 100f7afc     bncs_cc02_edit.obj
 0003:000e5b0c       ??_C@_0N@BNMI@nn?5c?5?$CDa29189?$AA@ 100f7b0c     bncs_cc02_edit.obj
 0003:000e5b1c       ??_C@_0N@CNBN@ar?5c?5?$CDa28b72?$AA@ 100f7b1c     bncs_cc02_edit.obj
 0003:000e5b2c       ??_C@_0N@DONI@tc?5c?5?$CDa2856e?$AA@ 100f7b2c     bncs_cc02_edit.obj
 0003:000e5b3c       ??_C@_0N@CPBJ@dx?5c?5?$CDa28560?$AA@ 100f7b3c     bncs_cc02_edit.obj
 0003:000e5b4c       ??_C@_0N@EOMA@nS?5c?5?$CDa1c0e4?$AA@ 100f7b4c     bncs_cc02_edit.obj
 0003:000e5b5c       ??_C@_0N@CADO@aa?5c?5?$CDa1acb6?$AA@ 100f7b5c     bncs_cc02_edit.obj
 0003:000e5b6c       ??_C@_0N@IGH@zd?5c?5?$CDa1a9b0?$AA@ 100f7b6c     bncs_cc02_edit.obj
 0003:000e5b7c       ??_C@_0N@CJPG@hR?5c?5?$CDa1a2a3?$AA@ 100f7b7c     bncs_cc02_edit.obj
 0003:000e5b8c       ??_C@_0N@IDOK@qP?5c?5?$CDa1a1a1?$AA@ 100f7b8c     bncs_cc02_edit.obj
 0003:000e5b9c       ??_C@_0N@LPID@bt?5c?5?$CDa1968c?$AA@ 100f7b9c     bncs_cc02_edit.obj
 0003:000e5bac       ??_C@_0N@OLNJ@hX?5c?5?$CDa1938a?$AA@ 100f7bac     bncs_cc02_edit.obj
 0003:000e5bbc       ??_C@_0N@LCJI@rz?5c?5?$CDa0c6ec?$AA@ 100f7bbc     bncs_cc02_edit.obj
 0003:000e5bcc       ??_C@_0N@OJLM@mn?5c?5?$CDa0c3e5?$AA@ 100f7bcc     bncs_cc02_edit.obj
 0003:000e5bdc       ??_C@_0N@IKOD@dA?5c?5?$CDa0c1e2?$AA@ 100f7bdc     bncs_cc02_edit.obj
 0003:000e5bec       ??_C@_0N@NOML@tN?5c?5?$CDa0a3a4?$AA@ 100f7bec     bncs_cc02_edit.obj
 0003:000e5bfc       ??_C@_0N@LAPC@lP?5c?5?$CDa0a0a0?$AA@ 100f7bfc     bncs_cc02_edit.obj
 0003:000e5c0c       ??_C@_0N@MMAO@ru?5c?5?$CDa09f9d?$AA@ 100f7c0c     bncs_cc02_edit.obj
 0003:000e5c1c       ??_C@_0N@DEGP@xy?5c?5?$CDa0968a?$AA@ 100f7c1c     bncs_cc02_edit.obj
 0003:000e5c2c       ??_C@_0N@BBIE@xk?5c?5?$CDa09689?$AA@ 100f7c2c     bncs_cc02_edit.obj
 0003:000e5c3c       ??_C@_0N@JNMC@hn?5c?5?$CDa0876b?$AA@ 100f7c3c     bncs_cc02_edit.obj
 0003:000e5c4c       ??_C@_0N@EBCH@yS?5c?5?$CDa0815e?$AA@ 100f7c4c     bncs_cc02_edit.obj
 0003:000e5c5c       ??_C@_0N@CDEE@rI?5c?5?$CD9fc4e8?$AA@ 100f7c5c     bncs_cc02_edit.obj
 0003:000e5c6c       ??_C@_0N@BPLO@cF?5c?5?$CD9fc4de?$AA@ 100f7c6c     bncs_cc02_edit.obj
 0003:000e5c7c       ??_C@_0N@BDHK@vJ?5c?5?$CD9fc2e5?$AA@ 100f7c7c     bncs_cc02_edit.obj
 0003:000e5c8c       ??_C@_0N@DHF@ch?5c?5?$CD9fbcd7?$AA@ 100f7c8c     bncs_cc02_edit.obj
 0003:000e5c9c       ??_C@_0N@COAC@uK?5c?5?$CD9fbad0?$AA@ 100f7c9c     bncs_cc02_edit.obj
 0003:000e5cac       ??_C@_0N@EGGC@hW?5c?5?$CD9fafbc?$AA@ 100f7cac     bncs_cc02_edit.obj
 0003:000e5cbc       ??_C@_0N@BMCM@sh?5c?5?$CD9f9f9f?$AA@ 100f7cbc     bncs_cc02_edit.obj
 0003:000e5ccc       ??_C@_0N@PIFE@hU?5c?5?$CD9f9d9b?$AA@ 100f7ccc     bncs_cc02_edit.obj
 0003:000e5cdc       ??_C@_0N@LNMO@rx?5c?5?$CD9f988b?$AA@ 100f7cdc     bncs_cc02_edit.obj
 0003:000e5cec       ??_C@_0N@MAPH@jh?5c?5?$CD9f8a71?$AA@ 100f7cec     bncs_cc02_edit.obj
 0003:000e5cfc       ??_C@_0N@DIJG@bQ?5c?5?$CD9f815f?$AA@ 100f7cfc     bncs_cc02_edit.obj
 0003:000e5d0c       ??_C@_0N@BJCM@e3?5c?5?$CD9f805d?$AA@ 100f7d0c     bncs_cc02_edit.obj
 0003:000e5d1c       ??_C@_0N@ELGC@hP?5c?5?$CD9ea1a1?$AA@ 100f7d1c     bncs_cc02_edit.obj
 0003:000e5d2c       ??_C@_0N@OKED@qO?5c?5?$CD9e9e9e?$AA@ 100f7d2c     bncs_cc02_edit.obj
 0003:000e5d3c       ??_C@_0N@MMFM@lO?5c?5?$CD9e9b93?$AA@ 100f7d3c     bncs_cc02_edit.obj
 0003:000e5d4c       ??_C@_0N@OACF@?$CD9?5c?5?$CD9e918a?$AA@ 100f7d4c     bncs_cc02_edit.obj
 0003:000e5d5c       ??_C@_0N@OINH@?45?5c?5?$CD9e7f5c?$AA@ 100f7d5c     bncs_cc02_edit.obj
 0003:000e5d6c       ??_C@_0N@BAIG@n?$CD?5c?5?$CD9e7f5a?$AA@ 100f7d6c     bncs_cc02_edit.obj
 0003:000e5d7c       ??_C@_0N@PLKA@un?5c?5?$CD9dc2dc?$AA@ 100f7d7c     bncs_cc02_edit.obj
 0003:000e5d8c       ??_C@_0N@DKMC@kf?5c?5?$CD9db8d4?$AA@ 100f7d8c     bncs_cc02_edit.obj
 0003:000e5d9c       ??_C@_0N@HBP@hZ?5c?5?$CD9d9ea0?$AA@ 100f7d9c     bncs_cc02_edit.obj
 0003:000e5dac       ??_C@_0N@IEHO@hN?5c?5?$CD9d9d9d?$AA@ 100f7dac     bncs_cc02_edit.obj
 0003:000e5dbc       ??_C@_0N@OCIP@lq?5c?5?$CD9d9a92?$AA@ 100f7dbc     bncs_cc02_edit.obj
 0003:000e5dcc       ??_C@_0N@FAAP@eh?5c?5?$CD9cbeda?$AA@ 100f7dcc     bncs_cc02_edit.obj
 0003:000e5ddc       ??_C@_0N@PONJ@vc?5c?5?$CD9cbddb?$AA@ 100f7ddc     bncs_cc02_edit.obj
 0003:000e5dec       ??_C@_0N@PJAG@jw?5c?5?$CD9c9ea0?$AA@ 100f7dec     bncs_cc02_edit.obj
 0003:000e5dfc       ??_C@_0N@FLHO@hF?5c?5?$CD9c9c9c?$AA@ 100f7dfc     bncs_cc02_edit.obj
 0003:000e5e0c       ??_C@_0N@HNLI@jJ?5c?5?$CD9c7d58?$AA@ 100f7e0c     bncs_cc02_edit.obj
 0003:000e5e1c       ??_C@_0N@LKJP@xD?5c?5?$CD9bb9d8?$AA@ 100f7e1c     bncs_cc02_edit.obj
 0003:000e5e2c       ??_C@_0N@LGKB@s?$CD?5c?5?$CD9b9b9b?$AA@ 100f7e2c     bncs_cc02_edit.obj
 0003:000e5e3c       ??_C@_0N@PAI@eS?5c?5?$CD9b9a99?$AA@ 100f7e3c     bncs_cc02_edit.obj
 0003:000e5e4c       ??_C@_0N@NCKG@qU?5c?5?$CD9abcde?$AA@ 100f7e4c     bncs_cc02_edit.obj
 0003:000e5e5c       ??_C@_0N@DPKN@?$CDl?5c?5?$CD9aa2ae?$AA@ 100f7e5c     bncs_cc02_edit.obj
 0003:000e5e6c       ??_C@_0N@CNMP@wL?5c?5?$CD9a9b9d?$AA@ 100f7e6c     bncs_cc02_edit.obj
 0003:000e5e7c       ??_C@_0N@NJAH@ep?5c?5?$CD9a9a9a?$AA@ 100f7e7c     bncs_cc02_edit.obj
 0003:000e5e8c       ??_C@_0N@NJHJ@eC?5c?5?$CD9a9998?$AA@ 100f7e8c     bncs_cc02_edit.obj
 0003:000e5e9c       ??_C@_0N@GFDK@jM?5c?5?$CD9a9896?$AA@ 100f7e9c     bncs_cc02_edit.obj
 0003:000e5eac       ??_C@_0N@GEHJ@j3?5c?5?$CD9a846a?$AA@ 100f7eac     bncs_cc02_edit.obj
 0003:000e5ebc       ??_C@_0N@OKGI@t?$CD?5c?5?$CD9a7b59?$AA@ 100f7ebc     bncs_cc02_edit.obj
 0003:000e5ecc       ??_C@_0N@BGFB@u?$CD?5c?5?$CD99b8cf?$AA@ 100f7ecc     bncs_cc02_edit.obj
 0003:000e5edc       ??_C@_0N@HPGF@kN?5c?5?$CD99a4b0?$AA@ 100f7edc     bncs_cc02_edit.obj
 0003:000e5eec       ??_C@_0N@EGPK@g5?5c?5?$CD99a3a7?$AA@ 100f7eec     bncs_cc02_edit.obj
 0003:000e5efc       ??_C@_0N@NCN@wY?5c?5?$CD99999a?$AA@ 100f7efc     bncs_cc02_edit.obj
 0003:000e5f0c       ??_C@_0N@ENBJ@gj?5c?5?$CD999999?$AA@ 100f7f0c     bncs_cc02_edit.obj
 0003:000e5f1c       ??_C@_0N@FNEO@mo?5c?5?$CD997955?$AA@ 100f7f1c     bncs_cc02_edit.obj
 0003:000e5f2c       ??_C@_0N@MKBN@rs?5c?5?$CD98a2ac?$AA@ 100f7f2c     bncs_cc02_edit.obj
 0003:000e5f3c       ??_C@_0N@JDOE@nH?5c?5?$CD989898?$AA@ 100f7f3c     bncs_cc02_edit.obj
 0003:000e5f4c       ??_C@_0N@PDBM@yV?5c?5?$CD988d7c?$AA@ 100f7f4c     bncs_cc02_edit.obj
 0003:000e5f5c       ??_C@_0N@OKID@v6?5c?5?$CD987a61?$AA@ 100f7f5c     bncs_cc02_edit.obj
 0003:000e5f6c       ??_C@_0N@KLHJ@?$CDv?5c?5?$CD97a5b6?$AA@ 100f7f6c     bncs_cc02_edit.obj
 0003:000e5f7c       ??_C@_0N@CMEJ@wX?5c?5?$CD979899?$AA@ 100f7f7c     bncs_cc02_edit.obj
 0003:000e5f8c       ??_C@_0N@KHGG@gr?5c?5?$CD979797?$AA@ 100f7f8c     bncs_cc02_edit.obj
 0003:000e5f9c       ??_C@_0N@LPCG@wy?5c?5?$CD96b9db?$AA@ 100f7f9c     bncs_cc02_edit.obj
 0003:000e5fac       ??_C@_0N@NGIN@fh?5c?5?$CD969cab?$AA@ 100f7fac     bncs_cc02_edit.obj
 0003:000e5fbc       ??_C@_0N@GEJK@h8?5c?5?$CD969898?$AA@ 100f7fbc     bncs_cc02_edit.obj
 0003:000e5fcc       ??_C@_0N@PFAH@eN?5c?5?$CD969897?$AA@ 100f7fcc     bncs_cc02_edit.obj
 0003:000e5fdc       ??_C@_0N@FFNC@si?5c?5?$CD969696?$AA@ 100f7fdc     bncs_cc02_edit.obj
 0003:000e5fec       ??_C@_0N@JOMH@sB?5c?5?$CD969494?$AA@ 100f7fec     bncs_cc02_edit.obj
 0003:000e5ffc       ??_C@_0N@NMLI@nQ?5c?5?$CD967654?$AA@ 100f7ffc     bncs_cc02_edit.obj
 0003:000e600c       ??_C@_0N@EABB@zs?5c?5?$CD95b5d4?$AA@ 100f800c     bncs_cc02_edit.obj
 0003:000e601c       ??_C@_0N@GIDE@q7?5c?5?$CD95b4d5?$AA@ 100f801c     bncs_cc02_edit.obj
 0003:000e602c       ??_C@_0N@DADE@aA?5c?5?$CD95abbc?$AA@ 100f802c     bncs_cc02_edit.obj
 0003:000e603c       ??_C@_0N@JLCK@c3?5c?5?$CD959fa8?$AA@ 100f803c     bncs_cc02_edit.obj
 0003:000e604c       ??_C@_0N@FADB@tv?5c?5?$CD959ea7?$AA@ 100f804c     bncs_cc02_edit.obj
 0003:000e605c       ??_C@_0N@CJN@jR?5c?5?$CD959798?$AA@ 100f805c     bncs_cc02_edit.obj
 0003:000e606c       ??_C@_0N@EICB@ms?5c?5?$CD959595?$AA@ 100f806c     bncs_cc02_edit.obj
 0003:000e607c       ??_C@_0N@OOAH@hQ?5c?5?$CD959494?$AA@ 100f807c     bncs_cc02_edit.obj
 0003:000e608c       ??_C@_0N@HHLK@h3?5c?5?$CD959391?$AA@ 100f808c     bncs_cc02_edit.obj
 0003:000e609c       ??_C@_0N@LLIJ@sX?5c?5?$CD959291?$AA@ 100f809c     bncs_cc02_edit.obj
 0003:000e60ac       ??_C@_0N@LABD@wW?5c?5?$CD958e89?$AA@ 100f80ac     bncs_cc02_edit.obj
 0003:000e60bc       ??_C@_0N@FLJE@yJ?5c?5?$CD958784?$AA@ 100f80bc     bncs_cc02_edit.obj
 0003:000e60cc       ??_C@_0N@FMKM@i5?5c?5?$CD94b6d8?$AA@ 100f80cc     bncs_cc02_edit.obj
 0003:000e60dc       ??_C@_0N@OGJ@sT?5c?5?$CD949596?$AA@ 100f80dc     bncs_cc02_edit.obj
 0003:000e60ec       ??_C@_0N@GCDJ@hc?5c?5?$CD949494?$AA@ 100f80ec     bncs_cc02_edit.obj
 0003:000e60fc       ??_C@_0N@GDBM@sZ?5c?5?$CD949392?$AA@ 100f80fc     bncs_cc02_edit.obj
 0003:000e610c       ??_C@_0N@GEPK@qR?5c?5?$CD94683f?$AA@ 100f810c     bncs_cc02_edit.obj
 0003:000e611c       ??_C@_0N@NIAA@qQ?5c?5?$CD93bae2?$AA@ 100f811c     bncs_cc02_edit.obj
 0003:000e612c       ??_C@_0N@GIAO@hC?5c?5?$CD93a5bd?$AA@ 100f812c     bncs_cc02_edit.obj
 0003:000e613c       ??_C@_0N@FADO@tS?5c?5?$CD939597?$AA@ 100f813c     bncs_cc02_edit.obj
 0003:000e614c       ??_C@_0N@HJGO@hL?5c?5?$CD939393?$AA@ 100f814c     bncs_cc02_edit.obj
 0003:000e615c       ??_C@_0N@DPAJ@ed?5c?5?$CD937553?$AA@ 100f815c     bncs_cc02_edit.obj
 0003:000e616c       ??_C@_0N@NJED@wz?5c?5?$CD936f49?$AA@ 100f816c     bncs_cc02_edit.obj
 0003:000e617c       ??_C@_0N@LLMH@w9?5c?5?$CD936f45?$AA@ 100f817c     bncs_cc02_edit.obj
 0003:000e618c       ??_C@_0N@NAPM@w8?5c?5?$CD92acd0?$AA@ 100f818c     bncs_cc02_edit.obj
 0003:000e619c       ??_C@_0N@GIIN@sx?5c?5?$CD929695?$AA@ 100f819c     bncs_cc02_edit.obj
 0003:000e61ac       ??_C@_0N@GEOC@hY?5c?5?$CD929394?$AA@ 100f81ac     bncs_cc02_edit.obj
 0003:000e61bc       ??_C@_0N@MIEB@rR?5c?5?$CD929292?$AA@ 100f81bc     bncs_cc02_edit.obj
 0003:000e61cc       ??_C@_0N@BMDM@hV?5c?5?$CD92908f?$AA@ 100f81cc     bncs_cc02_edit.obj
 0003:000e61dc       ??_C@_0N@ENFO@hb?5c?5?$CD92725b?$AA@ 100f81dc     bncs_cc02_edit.obj
 0003:000e61ec       ??_C@_0N@OPCK@jm?5c?5?$CD91acd3?$AA@ 100f81ec     bncs_cc02_edit.obj
 0003:000e61fc       ??_C@_0N@MHPH@dg?5c?5?$CD91acd2?$AA@ 100f81fc     bncs_cc02_edit.obj
 0003:000e620c       ??_C@_0N@FGMB@sR?5c?5?$CD919494?$AA@ 100f820c     bncs_cc02_edit.obj
 0003:000e621c       ??_C@_0N@MBCO@qN?5c?5?$CD919191?$AA@ 100f821c     bncs_cc02_edit.obj
 0003:000e622c       ??_C@_0N@JFEO@sN?5c?5?$CD918f8e?$AA@ 100f822c     bncs_cc02_edit.obj
 0003:000e623c       ??_C@_0N@PEKI@za?5c?5?$CD91887c?$AA@ 100f823c     bncs_cc02_edit.obj
 0003:000e624c       ??_C@_0N@GMEA@ya?5c?5?$CD917554?$AA@ 100f824c     bncs_cc02_edit.obj
 0003:000e625c       ??_C@_0N@MBNF@?$CDH?5c?5?$CD917454?$AA@ 100f825c     bncs_cc02_edit.obj
 0003:000e626c       ??_C@_0N@GPLK@cz?5c?5?$CD91704e?$AA@ 100f826c     bncs_cc02_edit.obj
 0003:000e627c       ??_C@_0N@DJJ@vV?5c?5?$CD916f4d?$AA@ 100f827c     bncs_cc02_edit.obj
 0003:000e628c       ??_C@_0N@LAGK@oc?5c?5?$CD9098a8?$AA@ 100f828c     bncs_cc02_edit.obj
 0003:000e629c       ??_C@_0N@GBIN@jr?5c?5?$CD909191?$AA@ 100f829c     bncs_cc02_edit.obj
 0003:000e62ac       ??_C@_0N@FIKB@lN?5c?5?$CD909091?$AA@ 100f82ac     bncs_cc02_edit.obj
 0003:000e62bc       ??_C@_0N@HNOA@gR?5c?5?$CD909090?$AA@ 100f82bc     bncs_cc02_edit.obj
 0003:000e62cc       ??_C@_0N@GALE@u7?5c?5?$CD90877c?$AA@ 100f82cc     bncs_cc02_edit.obj
 0003:000e62dc       ??_C@_0N@ODND@n8?5c?5?$CD8fa9c0?$AA@ 100f82dc     bncs_cc02_edit.obj
 0003:000e62ec       ??_C@_0N@JJNF@fx?5c?5?$CD8f9192?$AA@ 100f82ec     bncs_cc02_edit.obj
 0003:000e62fc       ??_C@_0N@DOEK@f9?5c?5?$CD8f9086?$AA@ 100f82fc     bncs_cc02_edit.obj
 0003:000e630c       ??_C@_0N@BDPH@lp?5c?5?$CD8f8f90?$AA@ 100f830c     bncs_cc02_edit.obj
 0003:000e631c       ??_C@_0N@JPLC@lo?5c?5?$CD8f8f8f?$AA@ 100f831c     bncs_cc02_edit.obj
 0003:000e632c       ??_C@_0N@FIMP@?$CDo?5c?5?$CD8f857a?$AA@ 100f832c     bncs_cc02_edit.obj
 0003:000e633c       ??_C@_0N@PBBB@wO?5c?5?$CD8f7051?$AA@ 100f833c     bncs_cc02_edit.obj
 0003:000e634c       ??_C@_0N@LDDI@a8?5c?5?$CD8f6b4a?$AA@ 100f834c     bncs_cc02_edit.obj
 0003:000e635c       ??_C@_0N@CKDG@nt?5c?5?$CD8eafc9?$AA@ 100f835c     bncs_cc02_edit.obj
 0003:000e636c       ??_C@_0N@PIEK@oP?5c?5?$CD8ea5b9?$AA@ 100f836c     bncs_cc02_edit.obj
 0003:000e637c       ??_C@_0N@CGNF@qy?5c?5?$CD8e8f90?$AA@ 100f837c     bncs_cc02_edit.obj
 0003:000e638c       ??_C@_0N@MFEA@s3?5c?5?$CD8e8f8e?$AA@ 100f838c     bncs_cc02_edit.obj
 0003:000e639c       ??_C@_0N@CBPB@pO?5c?5?$CD8e8e8e?$AA@ 100f839c     bncs_cc02_edit.obj
 0003:000e63ac       ??_C@_0N@PKIE@cC?5c?5?$CD8e8b83?$AA@ 100f83ac     bncs_cc02_edit.obj
 0003:000e63bc       ??_C@_0N@NPMN@nv?5c?5?$CD8da8cd?$AA@ 100f83bc     bncs_cc02_edit.obj
 0003:000e63cc       ??_C@_0N@KJH@pb?5c?5?$CD8d98a1?$AA@ 100f83cc     bncs_cc02_edit.obj
 0003:000e63dc       ??_C@_0N@MKMD@gx?5c?5?$CD8d8d8d?$AA@ 100f83dc     bncs_cc02_edit.obj
 0003:000e63ec       ??_C@_0N@OOII@cB?5c?5?$CD8d8c8c?$AA@ 100f83ec     bncs_cc02_edit.obj
 0003:000e63fc       ??_C@_0N@HDFO@nL?5c?5?$CD8d8a88?$AA@ 100f83fc     bncs_cc02_edit.obj
 0003:000e640c       ??_C@_0N@HCLL@f0?5c?5?$CD8d857a?$AA@ 100f840c     bncs_cc02_edit.obj
 0003:000e641c       ??_C@_0N@DJHH@ia?5c?5?$CD8d7760?$AA@ 100f841c     bncs_cc02_edit.obj
 0003:000e642c       ??_C@_0N@HKLH@?$CDr?5c?5?$CD8c908f?$AA@ 100f842c     bncs_cc02_edit.obj
 0003:000e643c       ??_C@_0N@ENMA@sO?5c?5?$CD8c8e90?$AA@ 100f843c     bncs_cc02_edit.obj
 0003:000e644c       ??_C@_0N@EFLH@sJ?5c?5?$CD8c8d8e?$AA@ 100f844c     bncs_cc02_edit.obj
 0003:000e645c       ??_C@_0N@JDOH@gF?5c?5?$CD8c8c8c?$AA@ 100f845c     bncs_cc02_edit.obj
 0003:000e646c       ??_C@_0N@OKLO@fw?5c?5?$CD8c8b8a?$AA@ 100f846c     bncs_cc02_edit.obj
 0003:000e647c       ??_C@_0N@PFKC@sz?5c?5?$CD8c7f6f?$AA@ 100f847c     bncs_cc02_edit.obj
 0003:000e648c       ??_C@_0N@HOKD@?$CDw?5c?5?$CD8c7978?$AA@ 100f848c     bncs_cc02_edit.obj
 0003:000e649c       ??_C@_0N@HMMK@wU?5c?5?$CD8ba7cb?$AA@ 100f849c     bncs_cc02_edit.obj
 0003:000e64ac       ??_C@_0N@IAMO@s4?5c?5?$CD8b8c8d?$AA@ 100f84ac     bncs_cc02_edit.obj
 0003:000e64bc       ??_C@_0N@MGLA@t5?5c?5?$CD8b8b8b?$AA@ 100f84bc     bncs_cc02_edit.obj
 0003:000e64cc       ??_C@_0N@LBGD@f7?5c?5?$CD8b8b89?$AA@ 100f84cc     bncs_cc02_edit.obj
 0003:000e64dc       ??_C@_0N@BOCO@gd?5c?5?$CD8b8a89?$AA@ 100f84dc     bncs_cc02_edit.obj
 0003:000e64ec       ??_C@_0N@GGP@sI?5c?5?$CD8b8989?$AA@ 100f84ec     bncs_cc02_edit.obj
 0003:000e64fc       ??_C@_0N@HHND@?$CDO?5c?5?$CD8b8988?$AA@ 100f84fc     bncs_cc02_edit.obj
 0003:000e650c       ??_C@_0N@FFDC@yu?5c?5?$CD8b8379?$AA@ 100f850c     bncs_cc02_edit.obj
 0003:000e651c       ??_C@_0N@MNKL@jv?5c?5?$CD8a8b8c?$AA@ 100f851c     bncs_cc02_edit.obj
 0003:000e652c       ??_C@_0N@PNPM@f?$CD?5c?5?$CD8a8a8a?$AA@ 100f852c     bncs_cc02_edit.obj
 0003:000e653c       ??_C@_0N@COBC@yi?5c?5?$CD8a6c4b?$AA@ 100f853c     bncs_cc02_edit.obj
 0003:000e654c       ??_C@_0N@HCJL@cb?5c?5?$CD89acc8?$AA@ 100f854c     bncs_cc02_edit.obj
 0003:000e655c       ??_C@_0N@FJFK@fl?5c?5?$CD89939b?$AA@ 100f855c     bncs_cc02_edit.obj
 0003:000e656c       ??_C@_0N@EFJI@yw?5c?5?$CD898b8c?$AA@ 100f856c     bncs_cc02_edit.obj
 0003:000e657c       ??_C@_0N@CMHM@sy?5c?5?$CD898a8c?$AA@ 100f857c     bncs_cc02_edit.obj
 0003:000e658c       ??_C@_0N@LJFE@ge?5c?5?$CD898a8b?$AA@ 100f858c     bncs_cc02_edit.obj
 0003:000e659c       ??_C@_0N@FNFB@pu?5c?5?$CD898989?$AA@ 100f859c     bncs_cc02_edit.obj
 0003:000e65ac       ??_C@_0N@DNDH@sS?5c?5?$CD898888?$AA@ 100f85ac     bncs_cc02_edit.obj
 0003:000e65bc       ??_C@_0N@GHID@ef?5c?5?$CD89755d?$AA@ 100f85bc     bncs_cc02_edit.obj
 0003:000e65cc       ??_C@_0N@BEPC@bI?5c?5?$CD89715e?$AA@ 100f85cc     bncs_cc02_edit.obj
 0003:000e65dc       ??_C@_0N@GFKE@yX?5c?5?$CD896b4b?$AA@ 100f85dc     bncs_cc02_edit.obj
 0003:000e65ec       ??_C@_0N@MILN@?$CDa?5c?5?$CD88abcb?$AA@ 100f85ec     bncs_cc02_edit.obj
 0003:000e65fc       ??_C@_0N@DGNL@xh?5c?5?$CD88a9ca?$AA@ 100f85fc     bncs_cc02_edit.obj
 0003:000e660c       ??_C@_0N@LGLN@o5?5c?5?$CD88929c?$AA@ 100f860c     bncs_cc02_edit.obj
 0003:000e661c       ??_C@_0N@PPIL@x9?5c?5?$CD888b8e?$AA@ 100f861c     bncs_cc02_edit.obj
 0003:000e662c       ??_C@_0N@LGOE@sY?5c?5?$CD888889?$AA@ 100f862c     bncs_cc02_edit.obj
 0003:000e663c       ??_C@_0N@DNCA@pJ?5c?5?$CD888888?$AA@ 100f863c     bncs_cc02_edit.obj
 0003:000e664c       ??_C@_0N@CGFG@fZ?5c?5?$CD888887?$AA@ 100f864c     bncs_cc02_edit.obj
 0003:000e665c       ??_C@_0N@DIEN@js?5c?5?$CD888685?$AA@ 100f865c     bncs_cc02_edit.obj
 0003:000e666c       ??_C@_0N@NILD@vo?5c?5?$CD886644?$AA@ 100f866c     bncs_cc02_edit.obj
 0003:000e667c       ??_C@_0N@BNJJ@p5?5c?5?$CD87acce?$AA@ 100f867c     bncs_cc02_edit.obj
 0003:000e668c       ??_C@_0N@KHPO@c?4?5c?5?$CD87a5c2?$AA@ 100f868c     bncs_cc02_edit.obj
 0003:000e669c       ??_C@_0N@FJJI@iZ?5c?5?$CD879baf?$AA@ 100f869c     bncs_cc02_edit.obj
 0003:000e66ac       ??_C@_0N@EONE@sA?5c?5?$CD878f97?$AA@ 100f86ac     bncs_cc02_edit.obj
 0003:000e66bc       ??_C@_0N@DALC@no?5c?5?$CD87898a?$AA@ 100f86bc     bncs_cc02_edit.obj
 0003:000e66cc       ??_C@_0N@NFHG@?$CDU?5c?5?$CD87888a?$AA@ 100f86cc     bncs_cc02_edit.obj
 0003:000e66dc       ??_C@_0N@PKEB@fC?5c?5?$CD878889?$AA@ 100f86dc     bncs_cc02_edit.obj
 0003:000e66ec       ??_C@_0N@KGGG@pH?5c?5?$CD878787?$AA@ 100f86ec     bncs_cc02_edit.obj
 0003:000e66fc       ??_C@_0N@FEEB@vg?5c?5?$CD878583?$AA@ 100f86fc     bncs_cc02_edit.obj
 0003:000e670c       ??_C@_0N@JDLE@qH?5c?5?$CD877c6f?$AA@ 100f870c     bncs_cc02_edit.obj
 0003:000e671c       ??_C@_0N@DBLJ@?$CDz?5c?5?$CD877a6a?$AA@ 100f871c     bncs_cc02_edit.obj
 0003:000e672c       ??_C@_0N@BAPG@yZ?5c?5?$CD87603b?$AA@ 100f872c     bncs_cc02_edit.obj
 0003:000e673c       ??_C@_0N@LMHG@f8?5c?5?$CD868687?$AA@ 100f873c     bncs_cc02_edit.obj
 0003:000e674c       ??_C@_0N@MKF@fM?5c?5?$CD868686?$AA@ 100f874c     bncs_cc02_edit.obj
 0003:000e675c       ??_C@_0N@IAEK@np?5c?5?$CD868482?$AA@ 100f875c     bncs_cc02_edit.obj
 0003:000e676c       ??_C@_0N@PEIK@vl?5c?5?$CD858889?$AA@ 100f876c     bncs_cc02_edit.obj
 0003:000e677c       ??_C@_0N@GFEH@so?5c?5?$CD858585?$AA@ 100f877c     bncs_cc02_edit.obj
 0003:000e678c       ??_C@_0N@HKGC@x0?5c?5?$CD856b4e?$AA@ 100f878c     bncs_cc02_edit.obj
 0003:000e679c       ??_C@_0N@MJKC@vH?5c?5?$CD84a4c5?$AA@ 100f879c     bncs_cc02_edit.obj
 0003:000e67ac       ??_C@_0N@PLHN@ij?5c?5?$CD848e9a?$AA@ 100f87ac     bncs_cc02_edit.obj
 0003:000e67bc       ??_C@_0N@FCPJ@lM?5c?5?$CD848687?$AA@ 100f87bc     bncs_cc02_edit.obj
 0003:000e67cc       ??_C@_0N@EJAM@?$CDy?5c?5?$CD848586?$AA@ 100f87cc     bncs_cc02_edit.obj
 0003:000e67dc       ??_C@_0N@OPM@jF?5c?5?$CD848484?$AA@ 100f87dc     bncs_cc02_edit.obj
 0003:000e67ec       ??_C@_0N@HMNN@yd?5c?5?$CD84827e?$AA@ 100f87ec     bncs_cc02_edit.obj
 0003:000e67fc       ??_C@_0N@EIHG@fD?5c?5?$CD847c73?$AA@ 100f87fc     bncs_cc02_edit.obj
 0003:000e680c       ??_C@_0N@JPEO@c5?5c?5?$CD84675a?$AA@ 100f880c     bncs_cc02_edit.obj
 0003:000e681c       ??_C@_0N@JAON@t1?5c?5?$CD83a5c8?$AA@ 100f881c     bncs_cc02_edit.obj
 0003:000e682c       ??_C@_0N@JOPI@?4l?5c?5?$CD83a5c7?$AA@ 100f882c     bncs_cc02_edit.obj
 0003:000e683c       ??_C@_0N@HCHH@eH?5c?5?$CD838c93?$AA@ 100f883c     bncs_cc02_edit.obj
 0003:000e684c       ??_C@_0N@LNMD@n4?5c?5?$CD838383?$AA@ 100f884c     bncs_cc02_edit.obj
 0003:000e685c       ??_C@_0N@LMKK@?$CDs?5c?5?$CD838282?$AA@ 100f885c     bncs_cc02_edit.obj
 0003:000e686c       ??_C@_0N@LADM@mP?5c?5?$CD82868a?$AA@ 100f886c     bncs_cc02_edit.obj
 0003:000e687c       ??_C@_0N@FJOH@jQ?5c?5?$CD828485?$AA@ 100f887c     bncs_cc02_edit.obj
 0003:000e688c       ??_C@_0N@OBNB@yv?5c?5?$CD828384?$AA@ 100f888c     bncs_cc02_edit.obj
 0003:000e689c       ??_C@_0N@FJPO@yK?5c?5?$CD828383?$AA@ 100f889c     bncs_cc02_edit.obj
 0003:000e68ac       ??_C@_0N@IJCA@?$CDt?5c?5?$CD828282?$AA@ 100f88ac     bncs_cc02_edit.obj
 0003:000e68bc       ??_C@_0N@EHDD@mx?5c?5?$CD827064?$AA@ 100f88bc     bncs_cc02_edit.obj
 0003:000e68cc       ??_C@_0N@JHOH@wF?5c?5?$CD819ebf?$AA@ 100f88cc     bncs_cc02_edit.obj
 0003:000e68dc       ??_C@_0N@HDO@yz?5c?5?$CD8194a4?$AA@ 100f88dc     bncs_cc02_edit.obj
 0003:000e68ec       ??_C@_0N@CPMI@v?4?5c?5?$CD818b97?$AA@ 100f88ec     bncs_cc02_edit.obj
 0003:000e68fc       ??_C@_0N@DILH@?$CDT?5c?5?$CD818282?$AA@ 100f88fc     bncs_cc02_edit.obj
 0003:000e690c       ??_C@_0N@GNFE@fL?5c?5?$CD818181?$AA@ 100f890c     bncs_cc02_edit.obj
 0003:000e691c       ??_C@_0N@FBJA@?$CDS?5c?5?$CD817a76?$AA@ 100f891c     bncs_cc02_edit.obj
 0003:000e692c       ??_C@_0N@KJBD@xX?5c?5?$CD817262?$AA@ 100f892c     bncs_cc02_edit.obj
 0003:000e693c       ??_C@_0N@NGFG@oE?5c?5?$CD816b5c?$AA@ 100f893c     bncs_cc02_edit.obj
 0003:000e694c       ??_C@_0N@JPNL@r?4?5c?5?$CD815a3d?$AA@ 100f894c     bncs_cc02_edit.obj
 0003:000e695c       ??_C@_0N@PGAP@uU?5c?5?$CD815941?$AA@ 100f895c     bncs_cc02_edit.obj
 0003:000e696c       ??_C@_0N@GPHE@rf?5c?5?$CD80a3c7?$AA@ 100f896c     bncs_cc02_edit.obj
 0003:000e697c       ??_C@_0N@NLLE@lt?5c?5?$CD80a1bf?$AA@ 100f897c     bncs_cc02_edit.obj
 0003:000e698c       ??_C@_0N@NEDJ@ny?5c?5?$CD809dbd?$AA@ 100f898c     bncs_cc02_edit.obj
 0003:000e699c       ??_C@_0N@NNOP@mw?5c?5?$CD8095a6?$AA@ 100f899c     bncs_cc02_edit.obj
 0003:000e69ac       ??_C@_0N@DHCL@?$CDx?5c?5?$CD808282?$AA@ 100f89ac     bncs_cc02_edit.obj
 0003:000e69bc       ??_C@_0N@PLOJ@yB?5c?5?$CD808082?$AA@ 100f89bc     bncs_cc02_edit.obj
 0003:000e69cc       ??_C@_0N@JJIL@e9?5c?5?$CD808080?$AA@ 100f89cc     bncs_cc02_edit.obj
 0003:000e69dc       ??_C@_0N@NCGF@jN?5c?5?$CD807f7d?$AA@ 100f89dc     bncs_cc02_edit.obj
 0003:000e69ec       ??_C@_0N@NJNG@nj?5c?5?$CD806446?$AA@ 100f89ec     bncs_cc02_edit.obj
 0003:000e69fc       ??_C@_0N@DKGK@cP?5c?5?$CD805937?$AA@ 100f89fc     bncs_cc02_edit.obj
 0003:000e6a0c       ??_C@_0N@JLMD@jD?5c?5?$CD80583a?$AA@ 100f8a0c     bncs_cc02_edit.obj
 0003:000e6a1c       ??_C@_0N@DHFK@a?4?5c?5?$CD7f8081?$AA@ 100f8a1c     bncs_cc02_edit.obj
 0003:000e6a2c       ??_C@_0N@OAHP@pP?5c?5?$CD7f7f7f?$AA@ 100f8a2c     bncs_cc02_edit.obj
 0003:000e6a3c       ??_C@_0N@JFEM@a?$CD?5c?5?$CD7f7e7d?$AA@ 100f8a3c     bncs_cc02_edit.obj
 0003:000e6a4c       ??_C@_0N@EHOF@?$CDu?5c?5?$CD7f7d7c?$AA@ 100f8a4c     bncs_cc02_edit.obj
 0003:000e6a5c       ??_C@_0N@NKMI@eJ?5c?5?$CD7f674e?$AA@ 100f8a5c     bncs_cc02_edit.obj
 0003:000e6a6c       ??_C@_0N@FOOI@xs?5c?5?$CD7f5e34?$AA@ 100f8a6c     bncs_cc02_edit.obj
 0003:000e6a7c       ??_C@_0N@KLMM@yQ?5c?5?$CD7f5a39?$AA@ 100f8a7c     bncs_cc02_edit.obj
 0003:000e6a8c       ??_C@_0N@JGK@qo?5c?5?$CD7ea3c7?$AA@ 100f8a8c     bncs_cc02_edit.obj
 0003:000e6a9c       ??_C@_0N@CNPP@wq?5c?5?$CD7e9bb7?$AA@ 100f8a9c     bncs_cc02_edit.obj
 0003:000e6aac       ??_C@_0N@NJAL@pz?5c?5?$CD7e7e7e?$AA@ 100f8aac     bncs_cc02_edit.obj
 0003:000e6abc       ??_C@_0N@BPPM@ye?5c?5?$CD7e7d7c?$AA@ 100f8abc     bncs_cc02_edit.obj
 0003:000e6acc       ??_C@_0N@OAJD@tl?5c?5?$CD7e726b?$AA@ 100f8acc     bncs_cc02_edit.obj
 0003:000e6adc       ??_C@_0N@FINJ@x2?5c?5?$CD7e6a52?$AA@ 100f8adc     bncs_cc02_edit.obj
 0003:000e6aec       ??_C@_0N@DHCI@qu?5c?5?$CD7e5d3e?$AA@ 100f8aec     bncs_cc02_edit.obj
 0003:000e6afc       ??_C@_0N@OKK@aM?5c?5?$CD7e5b34?$AA@ 100f8afc     bncs_cc02_edit.obj
 0003:000e6b0c       ??_C@_0N@LJFF@dZ?5c?5?$CD7d7d7d?$AA@ 100f8b0c     bncs_cc02_edit.obj
 0003:000e6b1c       ??_C@_0N@IGI@yC?5c?5?$CD7d7c80?$AA@ 100f8b1c     bncs_cc02_edit.obj
 0003:000e6b2c       ??_C@_0N@NJOM@qE?5c?5?$CD7c9cbe?$AA@ 100f8b2c     bncs_cc02_edit.obj
 0003:000e6b3c       ??_C@_0N@FFGF@id?5c?5?$CD7c7c7c?$AA@ 100f8b3c     bncs_cc02_edit.obj
 0003:000e6b4c       ??_C@_0N@FDPG@zn?5c?5?$CD7ba0c4?$AA@ 100f8b4c     bncs_cc02_edit.obj
 0003:000e6b5c       ??_C@_0N@DHJH@k5?5c?5?$CD7b7b7b?$AA@ 100f8b5c     bncs_cc02_edit.obj
 0003:000e6b6c       ??_C@_0N@NPBE@ug?5c?5?$CD7b5a38?$AA@ 100f8b6c     bncs_cc02_edit.obj
 0003:000e6b7c       ??_C@_0N@NDAB@l9?5c?5?$CD7a8591?$AA@ 100f8b7c     bncs_cc02_edit.obj
 0003:000e6b8c       ??_C@_0N@BKIE@d1?5c?5?$CD7a7a7a?$AA@ 100f8b8c     bncs_cc02_edit.obj
 0003:000e6b9c       ??_C@_0N@JGCP@zg?5c?5?$CD7a6d61?$AA@ 100f8b9c     bncs_cc02_edit.obj
 0003:000e6bac       ??_C@_0N@IMIJ@og?5c?5?$CD7a685c?$AA@ 100f8bac     bncs_cc02_edit.obj
 0003:000e6bbc       ??_C@_0N@KBJB@yP?5c?5?$CD7997b7?$AA@ 100f8bbc     bncs_cc02_edit.obj
 0003:000e6bcc       ??_C@_0N@BKAH@d8?5c?5?$CD7990aa?$AA@ 100f8bcc     bncs_cc02_edit.obj
 0003:000e6bdc       ??_C@_0N@PFPP@lw?5c?5?$CD79828a?$AA@ 100f8bdc     bncs_cc02_edit.obj
 0003:000e6bec       ??_C@_0N@LALP@jq?5c?5?$CD797a7d?$AA@ 100f8bec     bncs_cc02_edit.obj
 0003:000e6bfc       ??_C@_0N@PMLC@gv?5c?5?$CD797979?$AA@ 100f8bfc     bncs_cc02_edit.obj
 0003:000e6c0c       ??_C@_0N@CEOI@mu?5c?5?$CD797876?$AA@ 100f8c0c     bncs_cc02_edit.obj
 0003:000e6c1c       ??_C@_0N@EMM@xS?5c?5?$CD79582f?$AA@ 100f8c1c     bncs_cc02_edit.obj
 0003:000e6c2c       ??_C@_0N@NCLJ@xo?5c?5?$CD788c98?$AA@ 100f8c2c     bncs_cc02_edit.obj
 0003:000e6c3c       ??_C@_0N@JOAE@fY?5c?5?$CD788187?$AA@ 100f8c3c     bncs_cc02_edit.obj
 0003:000e6c4c       ??_C@_0N@MOPJ@d0?5c?5?$CD787878?$AA@ 100f8c4c     bncs_cc02_edit.obj
 0003:000e6c5c       ??_C@_0N@FJJP@xa?5c?5?$CD78572e?$AA@ 100f8c5c     bncs_cc02_edit.obj
 0003:000e6c6c       ??_C@_0N@BNPN@xw?5c?5?$CD778b98?$AA@ 100f8c6c     bncs_cc02_edit.obj
 0003:000e6c7c       ??_C@_0N@LNGF@mA?5c?5?$CD77797a?$AA@ 100f8c7c     bncs_cc02_edit.obj
 0003:000e6c8c       ??_C@_0N@JMPB@kx?5c?5?$CD777879?$AA@ 100f8c8c     bncs_cc02_edit.obj
 0003:000e6c9c       ??_C@_0N@NFNP@gu?5c?5?$CD777777?$AA@ 100f8c9c     bncs_cc02_edit.obj
 0003:000e6cac       ??_C@_0N@PCOF@kI?5c?5?$CD777676?$AA@ 100f8cac     bncs_cc02_edit.obj
 0003:000e6cbc       ??_C@_0N@ENEE@kH?5c?5?$CD777674?$AA@ 100f8cbc     bncs_cc02_edit.obj
 0003:000e6ccc       ??_C@_0N@FCAK@?$CDP?5c?5?$CD777574?$AA@ 100f8ccc     bncs_cc02_edit.obj
 0003:000e6cdc       ??_C@_0N@DKID@cu?5c?5?$CD776f5f?$AA@ 100f8cdc     bncs_cc02_edit.obj
 0003:000e6cec       ??_C@_0N@BDMJ@bl?5c?5?$CD776046?$AA@ 100f8cec     bncs_cc02_edit.obj
 0003:000e6cfc       ??_C@_0N@EMFB@e4?5c?5?$CD7692aa?$AA@ 100f8cfc     bncs_cc02_edit.obj
 0003:000e6d0c       ??_C@_0N@MPNB@cX?5c?5?$CD767a77?$AA@ 100f8d0c     bncs_cc02_edit.obj
 0003:000e6d1c       ??_C@_0N@PCHE@sl?5c?5?$CD767676?$AA@ 100f8d1c     bncs_cc02_edit.obj
 0003:000e6d2c       ??_C@_0N@HGKC@u9?5c?5?$CD767574?$AA@ 100f8d2c     bncs_cc02_edit.obj
 0003:000e6d3c       ??_C@_0N@EMAH@uR?5c?5?$CD76736f?$AA@ 100f8d3c     bncs_cc02_edit.obj
 0003:000e6d4c       ??_C@_0N@CAEJ@fj?5c?5?$CD766e5e?$AA@ 100f8d4c     bncs_cc02_edit.obj
 0003:000e6d5c       ??_C@_0N@HANM@lS?5c?5?$CD76562f?$AA@ 100f8d5c     bncs_cc02_edit.obj
 0003:000e6d6c       ??_C@_0N@BKIB@c8?5c?5?$CD7594b2?$AA@ 100f8d6c     bncs_cc02_edit.obj
 0003:000e6d7c       ??_C@_0N@NPFH@u8?5c?5?$CD757676?$AA@ 100f8d7c     bncs_cc02_edit.obj
 0003:000e6d8c       ??_C@_0N@JIDL@sr?5c?5?$CD757575?$AA@ 100f8d8c     bncs_cc02_edit.obj
 0003:000e6d9c       ??_C@_0N@PNAP@u4?5c?5?$CD755e45?$AA@ 100f8d9c     bncs_cc02_edit.obj
 0003:000e6dac       ??_C@_0N@FKEJ@xf?5c?5?$CD75532f?$AA@ 100f8dac     bncs_cc02_edit.obj
 0003:000e6dbc       ??_C@_0N@JHKM@dN?5c?5?$CD7497b4?$AA@ 100f8dbc     bncs_cc02_edit.obj
 0003:000e6dcc       ??_C@_0N@DKAG@u5?5c?5?$CD748a9d?$AA@ 100f8dcc     bncs_cc02_edit.obj
 0003:000e6ddc       ??_C@_0N@DIGF@sH?5c?5?$CD747f89?$AA@ 100f8ddc     bncs_cc02_edit.obj
 0003:000e6dec       ??_C@_0N@OJCP@?$CDf?5c?5?$CD747d87?$AA@ 100f8dec     bncs_cc02_edit.obj
 0003:000e6dfc       ??_C@_0N@DIFB@kw?5c?5?$CD747777?$AA@ 100f8dfc     bncs_cc02_edit.obj
 0003:000e6e0c       ??_C@_0N@GKKA@sv?5c?5?$CD747474?$AA@ 100f8e0c     bncs_cc02_edit.obj
 0003:000e6e1c       ??_C@_0N@FKPF@mb?5c?5?$CD746a5f?$AA@ 100f8e1c     bncs_cc02_edit.obj
 0003:000e6e2c       ??_C@_0N@GELL@uh?5c?5?$CD745633?$AA@ 100f8e2c     bncs_cc02_edit.obj
 0003:000e6e3c       ??_C@_0N@NCNF@rP?5c?5?$CD7390b5?$AA@ 100f8e3c     bncs_cc02_edit.obj
 0003:000e6e4c       ??_C@_0N@LICL@kR?5c?5?$CD737570?$AA@ 100f8e4c     bncs_cc02_edit.obj
 0003:000e6e5c       ??_C@_0N@CIMB@pp?5c?5?$CD737373?$AA@ 100f8e5c     bncs_cc02_edit.obj
 0003:000e6e6c       ??_C@_0N@POEH@iG?5c?5?$CD736a61?$AA@ 100f8e6c     bncs_cc02_edit.obj
 0003:000e6e7c       ??_C@_0N@ELDB@kQ?5c?5?$CD736566?$AA@ 100f8e7c     bncs_cc02_edit.obj
 0003:000e6e8c       ??_C@_0N@JFGO@nf?5c?5?$CD736459?$AA@ 100f8e8c     bncs_cc02_edit.obj
 0003:000e6e9c       ??_C@_0N@IFCH@dp?5c?5?$CD734f2a?$AA@ 100f8e9c     bncs_cc02_edit.obj
 0003:000e6eac       ??_C@_0N@OGLL@qZ?5c?5?$CD7293b7?$AA@ 100f8eac     bncs_cc02_edit.obj
 0003:000e6ebc       ??_C@_0N@IPAO@jA?5c?5?$CD7292b1?$AA@ 100f8ebc     bncs_cc02_edit.obj
 0003:000e6ecc       ??_C@_0N@GCHG@nK?5c?5?$CD72828e?$AA@ 100f8ecc     bncs_cc02_edit.obj
 0003:000e6edc       ??_C@_0N@FOIN@kV?5c?5?$CD727375?$AA@ 100f8edc     bncs_cc02_edit.obj
 0003:000e6eec       ??_C@_0N@GPII@d2?5c?5?$CD727272?$AA@ 100f8eec     bncs_cc02_edit.obj
 0003:000e6efc       ??_C@_0N@ONGG@iP?5c?5?$CD725840?$AA@ 100f8efc     bncs_cc02_edit.obj
 0003:000e6f0c       ??_C@_0N@CNDG@zq?5c?5?$CD72512d?$AA@ 100f8f0c     bncs_cc02_edit.obj
 0003:000e6f1c       ??_C@_0N@BFGC@bP?5c?5?$CD7190bb?$AA@ 100f8f1c     bncs_cc02_edit.obj
 0003:000e6f2c       ??_C@_0N@HDFF@mz?5c?5?$CD717171?$AA@ 100f8f2c     bncs_cc02_edit.obj
 0003:000e6f3c       ??_C@_0N@MEOB@kr?5c?5?$CD716f6e?$AA@ 100f8f3c     bncs_cc02_edit.obj
 0003:000e6f4c       ??_C@_0N@OEGA@uA?5c?5?$CD715331?$AA@ 100f8f4c     bncs_cc02_edit.obj
 0003:000e6f5c       ??_C@_0N@OKFM@w5?5c?5?$CD714d2d?$AA@ 100f8f5c     bncs_cc02_edit.obj
 0003:000e6f6c       ??_C@_0N@IBBL@mF?5c?5?$CD707173?$AA@ 100f8f6c     bncs_cc02_edit.obj
 0003:000e6f7c       ??_C@_0N@PBBI@gY?5c?5?$CD707070?$AA@ 100f8f7c     bncs_cc02_edit.obj
 0003:000e6f8c       ??_C@_0N@CCKL@mK?5c?5?$CD70706e?$AA@ 100f8f8c     bncs_cc02_edit.obj
 0003:000e6f9c       ??_C@_0N@PMDP@kU?5c?5?$CD706e6d?$AA@ 100f8f9c     bncs_cc02_edit.obj
 0003:000e6fac       ??_C@_0N@ILEM@ku?5c?5?$CD706a5f?$AA@ 100f8fac     bncs_cc02_edit.obj
 0003:000e6fbc       ??_C@_0N@GGEI@cc?5c?5?$CD705435?$AA@ 100f8fbc     bncs_cc02_edit.obj
 0003:000e6fcc       ??_C@_0N@POKC@xK?5c?5?$CD6f95b6?$AA@ 100f8fcc     bncs_cc02_edit.obj
 0003:000e6fdc       ??_C@_0N@PDPI@m3?5c?5?$CD6f94b4?$AA@ 100f8fdc     bncs_cc02_edit.obj
 0003:000e6fec       ??_C@_0N@NJJF@l?4?5c?5?$CD6f8ca7?$AA@ 100f8fec     bncs_cc02_edit.obj
 0003:000e6ffc       ??_C@_0N@IGNF@uS?5c?5?$CD6f7173?$AA@ 100f8ffc     bncs_cc02_edit.obj
 0003:000e700c       ??_C@_0N@CCEC@sn?5c?5?$CD6f6f6f?$AA@ 100f900c     bncs_cc02_edit.obj
 0003:000e701c       ??_C@_0N@LLIO@e1?5c?5?$CD6f4d2a?$AA@ 100f901c     bncs_cc02_edit.obj
 0003:000e702c       ??_C@_0N@LPCE@kt?5c?5?$CD6e6f70?$AA@ 100f902c     bncs_cc02_edit.obj
 0003:000e703c       ??_C@_0N@PEDP@sm?5c?5?$CD6e6e6e?$AA@ 100f903c     bncs_cc02_edit.obj
 0003:000e704c       ??_C@_0N@POJD@mv?5c?5?$CD6e6b6a?$AA@ 100f904c     bncs_cc02_edit.obj
 0003:000e705c       ??_C@_0N@CLAM@s5?5c?5?$CD6e6356?$AA@ 100f905c     bncs_cc02_edit.obj
 0003:000e706c       ??_C@_0N@FHMM@mU?5c?5?$CD6e6259?$AA@ 100f906c     bncs_cc02_edit.obj
 0003:000e707c       ??_C@_0N@CFDP@il?5c?5?$CD6e5c4c?$AA@ 100f907c     bncs_cc02_edit.obj
 0003:000e708c       ??_C@_0N@GHLA@my?5c?5?$CD6d6f70?$AA@ 100f908c     bncs_cc02_edit.obj
 0003:000e709c       ??_C@_0N@JOMF@ks?5c?5?$CD6d6d6d?$AA@ 100f909c     bncs_cc02_edit.obj
 0003:000e70ac       ??_C@_0N@LLMB@kA?5c?5?$CD6d6b72?$AA@ 100f90ac     bncs_cc02_edit.obj
 0003:000e70bc       ??_C@_0N@PICL@kM?5c?5?$CD6d6b69?$AA@ 100f90bc     bncs_cc02_edit.obj
 0003:000e70cc       ??_C@_0N@BGKM@tB?5c?5?$CD6d6259?$AA@ 100f90cc     bncs_cc02_edit.obj
 0003:000e70dc       ??_C@_0N@LHEG@sP?5c?5?$CD6d5b49?$AA@ 100f90dc     bncs_cc02_edit.obj
 0003:000e70ec       ??_C@_0N@GHBH@y0?5c?5?$CD6c90b5?$AA@ 100f90ec     bncs_cc02_edit.obj
 0003:000e70fc       ??_C@_0N@OOMO@wN?5c?5?$CD6c85a6?$AA@ 100f90fc     bncs_cc02_edit.obj
 0003:000e710c       ??_C@_0N@PGPL@k6?5c?5?$CD6c6c6c?$AA@ 100f910c     bncs_cc02_edit.obj
 0003:000e711c       ??_C@_0N@JIIO@gf?5c?5?$CD6c5f55?$AA@ 100f911c     bncs_cc02_edit.obj
 0003:000e712c       ??_C@_0N@NHP@?4n?5c?5?$CD6c462b?$AA@ 100f912c     bncs_cc02_edit.obj
 0003:000e713c       ??_C@_0N@DCOH@p8?5c?5?$CD6b93b7?$AA@ 100f913c     bncs_cc02_edit.obj
 0003:000e714c       ??_C@_0N@BPKD@cU?5c?5?$CD6b90b5?$AA@ 100f914c     bncs_cc02_edit.obj
 0003:000e715c       ??_C@_0N@NDJM@g9?5c?5?$CD6b8498?$AA@ 100f915c     bncs_cc02_edit.obj
 0003:000e716c       ??_C@_0N@OKOO@sj?5c?5?$CD6b6b6b?$AA@ 100f916c     bncs_cc02_edit.obj
 0003:000e717c       ??_C@_0N@OBPP@o?4?5c?5?$CD6b5d4f?$AA@ 100f917c     bncs_cc02_edit.obj
 0003:000e718c       ??_C@_0N@IBBH@i4?5c?5?$CD6b4924?$AA@ 100f918c     bncs_cc02_edit.obj
 0003:000e719c       ??_C@_0N@CJPL@p1?5c?5?$CD6a6c69?$AA@ 100f919c     bncs_cc02_edit.obj
 0003:000e71ac       ??_C@_0N@EDJM@gp?5c?5?$CD6a6a6a?$AA@ 100f91ac     bncs_cc02_edit.obj
 0003:000e71bc       ??_C@_0N@NAP@p?4?5c?5?$CD6a5d5b?$AA@ 100f91bc     bncs_cc02_edit.obj
 0003:000e71cc       ??_C@_0N@CFGM@qd?5c?5?$CD6a4928?$AA@ 100f91cc     bncs_cc02_edit.obj
 0003:000e71dc       ??_C@_0N@LOC@cw?5c?5?$CD6989aa?$AA@ 100f91dc     bncs_cc02_edit.obj
 0003:000e71ec       ??_C@_0N@EHJJ@iJ?5c?5?$CD697985?$AA@ 100f91ec     bncs_cc02_edit.obj
 0003:000e71fc       ??_C@_0N@HGFB@j9?5c?5?$CD69717d?$AA@ 100f91fc     bncs_cc02_edit.obj
 0003:000e720c       ??_C@_0N@NMJM@zK?5c?5?$CD696969?$AA@ 100f920c     bncs_cc02_edit.obj
 0003:000e721c       ??_C@_0N@MHNE@pS?5c?5?$CD696866?$AA@ 100f921c     bncs_cc02_edit.obj
 0003:000e722c       ??_C@_0N@EGJB@vZ?5c?5?$CD696157?$AA@ 100f922c     bncs_cc02_edit.obj
 0003:000e723c       ??_C@_0N@HDOH@wc?5c?5?$CD688db0?$AA@ 100f923c     bncs_cc02_edit.obj
 0003:000e724c       ??_C@_0N@MPPN@j?$CD?5c?5?$CD688aa7?$AA@ 100f924c     bncs_cc02_edit.obj
 0003:000e725c       ??_C@_0N@CJOI@v9?5c?5?$CD68869f?$AA@ 100f925c     bncs_cc02_edit.obj
 0003:000e726c       ??_C@_0N@JMHJ@yH?5c?5?$CD68778e?$AA@ 100f926c     bncs_cc02_edit.obj
 0003:000e727c       ??_C@_0N@FKJH@te?5c?5?$CD68737d?$AA@ 100f927c     bncs_cc02_edit.obj
 0003:000e728c       ??_C@_0N@HAI@ti?5c?5?$CD68707c?$AA@ 100f928c     bncs_cc02_edit.obj
 0003:000e729c       ??_C@_0N@JKMG@r5?5c?5?$CD686868?$AA@ 100f929c     bncs_cc02_edit.obj
 0003:000e72ac       ??_C@_0N@HHNG@?$CDV?5c?5?$CD685846?$AA@ 100f92ac     bncs_cc02_edit.obj
 0003:000e72bc       ??_C@_0N@IMIH@fN?5c?5?$CD676767?$AA@ 100f92bc     bncs_cc02_edit.obj
 0003:000e72cc       ??_C@_0N@ECBK@pX?5c?5?$CD675e51?$AA@ 100f92cc     bncs_cc02_edit.obj
 0003:000e72dc       ??_C@_0N@IHLP@cm?5c?5?$CD674c35?$AA@ 100f92dc     bncs_cc02_edit.obj
 0003:000e72ec       ??_C@_0N@IJBM@oe?5c?5?$CD66829f?$AA@ 100f92ec     bncs_cc02_edit.obj
 0003:000e72fc       ??_C@_0N@KNND@cq?5c?5?$CD66747f?$AA@ 100f92fc     bncs_cc02_edit.obj
 0003:000e730c       ??_C@_0N@EHII@gB?5c?5?$CD666666?$AA@ 100f930c     bncs_cc02_edit.obj
 0003:000e731c       ??_C@_0N@MFOK@oY?5c?5?$CD65747d?$AA@ 100f931c     bncs_cc02_edit.obj
 0003:000e732c       ??_C@_0N@JPIN@el?5c?5?$CD656f80?$AA@ 100f932c     bncs_cc02_edit.obj
 0003:000e733c       ??_C@_0N@DOEM@gm?5c?5?$CD656565?$AA@ 100f933c     bncs_cc02_edit.obj
 0003:000e734c       ??_C@_0N@PKKJ@c2?5c?5?$CD656362?$AA@ 100f934c     bncs_cc02_edit.obj
 0003:000e735c       ??_C@_0N@LLKD@a4?5c?5?$CD654739?$AA@ 100f935c     bncs_cc02_edit.obj
 0003:000e736c       ??_C@_0N@DEKC@rc?5c?5?$CD653f1a?$AA@ 100f936c     bncs_cc02_edit.obj
 0003:000e737c       ??_C@_0N@DKFH@tQ?5c?5?$CD64788a?$AA@ 100f937c     bncs_cc02_edit.obj
 0003:000e738c       ??_C@_0N@HCOK@kj?5c?5?$CD647381?$AA@ 100f938c     bncs_cc02_edit.obj
 0003:000e739c       ??_C@_0N@CKFH@h2?5c?5?$CD646f78?$AA@ 100f939c     bncs_cc02_edit.obj
 0003:000e73ac       ??_C@_0N@BDJH@pU?5c?5?$CD646566?$AA@ 100f93ac     bncs_cc02_edit.obj
 0003:000e73bc       ??_C@_0N@IIA@gN?5c?5?$CD646464?$AA@ 100f93bc     bncs_cc02_edit.obj
 0003:000e73cc       ??_C@_0N@JGNO@eD?5c?5?$CD64594d?$AA@ 100f93cc     bncs_cc02_edit.obj
 0003:000e73dc       ??_C@_0N@DGDN@l3?5c?5?$CD644e3f?$AA@ 100f93dc     bncs_cc02_edit.obj
 0003:000e73ec       ??_C@_0N@OPMJ@bn?5c?5?$CD636c74?$AA@ 100f93ec     bncs_cc02_edit.obj
 0003:000e73fc       ??_C@_0N@KNIP@hK?5c?5?$CD636363?$AA@ 100f93fc     bncs_cc02_edit.obj
 0003:000e740c       ??_C@_0N@FJDI@pZ?5c?5?$CD636261?$AA@ 100f940c     bncs_cc02_edit.obj
 0003:000e741c       ??_C@_0N@DIPN@ds?5c?5?$CD6284a2?$AA@ 100f941c     bncs_cc02_edit.obj
 0003:000e742c       ??_C@_0N@LKJJ@sE?5c?5?$CD62717f?$AA@ 100f942c     bncs_cc02_edit.obj
 0003:000e743c       ??_C@_0N@DOPH@kY?5c?5?$CD626262?$AA@ 100f943c     bncs_cc02_edit.obj
 0003:000e744c       ??_C@_0N@MOHK@nJ?5c?5?$CD624321?$AA@ 100f944c     bncs_cc02_edit.obj
 0003:000e745c       ??_C@_0N@DNHG@wJ?5c?5?$CD623e1e?$AA@ 100f945c     bncs_cc02_edit.obj
 0003:000e746c       ??_C@_0N@BMIL@rn?5c?5?$CD6186b0?$AA@ 100f946c     bncs_cc02_edit.obj
 0003:000e747c       ??_C@_0N@DNBG@iV?5c?5?$CD6183a1?$AA@ 100f947c     bncs_cc02_edit.obj
 0003:000e748c       ??_C@_0N@IBHM@jX?5c?5?$CD617ca6?$AA@ 100f948c     bncs_cc02_edit.obj
 0003:000e749c       ??_C@_0N@BEEA@l2?5c?5?$CD617c90?$AA@ 100f949c     bncs_cc02_edit.obj
 0003:000e74ac       ??_C@_0N@GDJJ@p0?5c?5?$CD616162?$AA@ 100f94ac     bncs_cc02_edit.obj
 0003:000e74bc       ??_C@_0N@MEBH@pT?5c?5?$CD616161?$AA@ 100f94bc     bncs_cc02_edit.obj
 0003:000e74cc       ??_C@_0N@DJEB@rC?5c?5?$CD614533?$AA@ 100f94cc     bncs_cc02_edit.obj
 0003:000e74dc       ??_C@_0N@KLMC@gA?5c?5?$CD606060?$AA@ 100f94dc     bncs_cc02_edit.obj
 0003:000e74ec       ??_C@_0N@EEIL@iW?5c?5?$CD604933?$AA@ 100f94ec     bncs_cc02_edit.obj
 0003:000e74fc       ??_C@_0N@PALE@wn?5c?5?$CD60432f?$AA@ 100f94fc     bncs_cc02_edit.obj
 0003:000e750c       ??_C@_0N@POKH@kT?5c?5?$CD5f6c78?$AA@ 100f950c     bncs_cc02_edit.obj
 0003:000e751c       ??_C@_0N@EKAH@tW?5c?5?$CD5f6973?$AA@ 100f951c     bncs_cc02_edit.obj
 0003:000e752c       ??_C@_0N@EBFG@mf?5c?5?$CD5f5f5f?$AA@ 100f952c     bncs_cc02_edit.obj
 0003:000e753c       ??_C@_0N@NKED@dI?5c?5?$CD5f5e5e?$AA@ 100f953c     bncs_cc02_edit.obj
 0003:000e754c       ??_C@_0N@MBNF@sK?5c?5?$CD5f564b?$AA@ 100f954c     bncs_cc02_edit.obj
 0003:000e755c       ??_C@_0N@NOMF@yp?5c?5?$CD5f361c?$AA@ 100f955c     bncs_cc02_edit.obj
 0003:000e756c       ??_C@_0N@HCFC@gE?5c?5?$CD5e5e5e?$AA@ 100f956c     bncs_cc02_edit.obj
 0003:000e757c       ??_C@_0N@LIAF@co?5c?5?$CD5e5d5c?$AA@ 100f957c     bncs_cc02_edit.obj
 0003:000e758c       ??_C@_0N@IMLO@vy?5c?5?$CD5e4b34?$AA@ 100f958c     bncs_cc02_edit.obj
 0003:000e759c       ??_C@_0N@LNNP@rl?5c?5?$CD5d88aa?$AA@ 100f959c     bncs_cc02_edit.obj
 0003:000e75ac       ??_C@_0N@KPJL@he?5c?5?$CD5d758b?$AA@ 100f95ac     bncs_cc02_edit.obj
 0003:000e75bc       ??_C@_0N@NJEG@pY?5c?5?$CD5d696d?$AA@ 100f95bc     bncs_cc02_edit.obj
 0003:000e75cc       ??_C@_0N@GAGE@pB?5c?5?$CD5d5d5d?$AA@ 100f95cc     bncs_cc02_edit.obj
 0003:000e75dc       ??_C@_0N@KFK@vb?5c?5?$CD5d4532?$AA@ 100f95dc     bncs_cc02_edit.obj
 0003:000e75ec       ??_C@_0N@CJAB@wT?5c?5?$CD5d331a?$AA@ 100f95ec     bncs_cc02_edit.obj
 0003:000e75fc       ??_C@_0N@PNFI@ln?5c?5?$CD5c7183?$AA@ 100f95fc     bncs_cc02_edit.obj
 0003:000e760c       ??_C@_0N@JCJD@zH?5c?5?$CD5c6667?$AA@ 100f960c     bncs_cc02_edit.obj
 0003:000e761c       ??_C@_0N@MAAE@r6?5c?5?$CD5c5c5c?$AA@ 100f961c     bncs_cc02_edit.obj
 0003:000e762c       ??_C@_0N@CCNA@pQ?5c?5?$CD5c5b53?$AA@ 100f962c     bncs_cc02_edit.obj
 0003:000e763c       ??_C@_0N@JPOK@tT?5c?5?$CD5c5347?$AA@ 100f963c     bncs_cc02_edit.obj
 0003:000e764c       ??_C@_0N@KHMO@yx?5c?5?$CD5c4837?$AA@ 100f964c     bncs_cc02_edit.obj
 0003:000e765c       ??_C@_0N@ONDL@ua?5c?5?$CD5c3c23?$AA@ 100f965c     bncs_cc02_edit.obj
 0003:000e766c       ??_C@_0N@LKKH@im?5c?5?$CD5b738b?$AA@ 100f966c     bncs_cc02_edit.obj
 0003:000e767c       ??_C@_0N@JIOA@pL?5c?5?$CD5b5b5b?$AA@ 100f967c     bncs_cc02_edit.obj
 0003:000e768c       ??_C@_0N@IDPD@h9?5c?5?$CD5b5046?$AA@ 100f968c     bncs_cc02_edit.obj
 0003:000e769c       ??_C@_0N@GMCA@qK?5c?5?$CD5b3722?$AA@ 100f969c     bncs_cc02_edit.obj
 0003:000e76ac       ??_C@_0N@BFFE@dr?5c?5?$CD5b3718?$AA@ 100f96ac     bncs_cc02_edit.obj
 0003:000e76bc       ??_C@_0N@FMBK@a2?5c?5?$CD5a78a3?$AA@ 100f96bc     bncs_cc02_edit.obj
 0003:000e76cc       ??_C@_0N@HLHN@tp?5c?5?$CD5a708b?$AA@ 100f96cc     bncs_cc02_edit.obj
 0003:000e76dc       ??_C@_0N@BGOA@cM?5c?5?$CD5a5d5b?$AA@ 100f96dc     bncs_cc02_edit.obj
 0003:000e76ec       ??_C@_0N@DGF@sk?5c?5?$CD5a5a5a?$AA@ 100f96ec     bncs_cc02_edit.obj
 0003:000e76fc       ??_C@_0N@FHHL@n7?5c?5?$CD5a3d1f?$AA@ 100f96fc     bncs_cc02_edit.obj
 0003:000e770c       ??_C@_0N@JGDK@pF?5c?5?$CD595959?$AA@ 100f970c     bncs_cc02_edit.obj
 0003:000e771c       ??_C@_0N@KPIB@cp?5c?5?$CD595757?$AA@ 100f971c     bncs_cc02_edit.obj
 0003:000e772c       ??_C@_0N@NFKJ@bu?5c?5?$CD595044?$AA@ 100f972c     bncs_cc02_edit.obj
 0003:000e773c       ??_C@_0N@ODPA@dS?5c?5?$CD593e1f?$AA@ 100f973c     bncs_cc02_edit.obj
 0003:000e774c       ??_C@_0N@FGLH@iX?5c?5?$CD587b9a?$AA@ 100f974c     bncs_cc02_edit.obj
 0003:000e775c       ??_C@_0N@MADI@gc?5c?5?$CD58636d?$AA@ 100f975c     bncs_cc02_edit.obj
 0003:000e776c       ??_C@_0N@JMGC@jy?5c?5?$CD585858?$AA@ 100f976c     bncs_cc02_edit.obj
 0003:000e777c       ??_C@_0N@OKCE@xA?5c?5?$CD585550?$AA@ 100f977c     bncs_cc02_edit.obj
 0003:000e778c       ??_C@_0N@PJAP@cJ?5c?5?$CD58361e?$AA@ 100f978c     bncs_cc02_edit.obj
 0003:000e779c       ??_C@_0N@KNKA@vC?5c?5?$CD583211?$AA@ 100f979c     bncs_cc02_edit.obj
 0003:000e77ac       ??_C@_0N@PCFD@kq?5c?5?$CD576571?$AA@ 100f97ac     bncs_cc02_edit.obj
 0003:000e77bc       ??_C@_0N@JEAJ@pK?5c?5?$CD575757?$AA@ 100f97bc     bncs_cc02_edit.obj
 0003:000e77cc       ??_C@_0N@IJJP@pV?5c?5?$CD57473d?$AA@ 100f97cc     bncs_cc02_edit.obj
 0003:000e77dc       ??_C@_0N@EHH@wB?5c?5?$CD573713?$AA@ 100f97dc     bncs_cc02_edit.obj
 0003:000e77ec       ??_C@_0N@BNKB@q?$CD?5c?5?$CD572a16?$AA@ 100f97ec     bncs_cc02_edit.obj
 0003:000e77fc       ??_C@_0N@LNGE@fd?5c?5?$CD56708f?$AA@ 100f97fc     bncs_cc02_edit.obj
 0003:000e780c       ??_C@_0N@KFBG@lX?5c?5?$CD565757?$AA@ 100f980c     bncs_cc02_edit.obj
 0003:000e781c       ??_C@_0N@ONNB@gG?5c?5?$CD565656?$AA@ 100f981c     bncs_cc02_edit.obj
 0003:000e782c       ??_C@_0N@CNBI@nT?5c?5?$CD563c24?$AA@ 100f982c     bncs_cc02_edit.obj
 0003:000e783c       ??_C@_0N@JEDC@lK?5c?5?$CD557a99?$AA@ 100f983c     bncs_cc02_edit.obj
 0003:000e784c       ??_C@_0N@GAB@nm?5c?5?$CD557896?$AA@ 100f984c     bncs_cc02_edit.obj
 0003:000e785c       ??_C@_0N@MJIA@yb?5c?5?$CD557795?$AA@ 100f985c     bncs_cc02_edit.obj
 0003:000e786c       ??_C@_0N@MNCO@Qt?5c?5?$CD555555?$AA@ 100f986c     bncs_cc02_edit.obj
 0003:000e787c       ??_C@_0N@BFPP@l0?5c?5?$CD555452?$AA@ 100f987c     bncs_cc02_edit.obj
 0003:000e788c       ??_C@_0N@BEEK@dJ?5c?5?$CD554a3e?$AA@ 100f988c     bncs_cc02_edit.obj
 0003:000e789c       ??_C@_0N@FDJM@tY?5c?5?$CD553e2a?$AA@ 100f989c     bncs_cc02_edit.obj
 0003:000e78ac       ??_C@_0N@BCFJ@iE?5c?5?$CD546d85?$AA@ 100f98ac     bncs_cc02_edit.obj
 0003:000e78bc       ??_C@_0N@GPPA@bd?5c?5?$CD546b8c?$AA@ 100f98bc     bncs_cc02_edit.obj
 0003:000e78cc       ??_C@_0N@DGID@lV?5c?5?$CD545656?$AA@ 100f98cc     bncs_cc02_edit.obj
 0003:000e78dc       ??_C@_0N@DNBE@r4?5c?5?$CD545454?$AA@ 100f98dc     bncs_cc02_edit.obj
 0003:000e78ec       ??_C@_0N@GCAJ@zI?5c?5?$CD54493e?$AA@ 100f98ec     bncs_cc02_edit.obj
 0003:000e78fc       ??_C@_0N@LMKM@eO?5c?5?$CD544740?$AA@ 100f98fc     bncs_cc02_edit.obj
 0003:000e790c       ??_C@_0N@HEGH@uX?5c?5?$CD536a8a?$AA@ 100f990c     bncs_cc02_edit.obj
 0003:000e791c       ??_C@_0N@CNGC@fv?5c?5?$CD535f69?$AA@ 100f991c     bncs_cc02_edit.obj
 0003:000e792c       ??_C@_0N@HCLH@f6?5c?5?$CD535d6a?$AA@ 100f992c     bncs_cc02_edit.obj
 0003:000e793c       ??_C@_0N@MAHF@l5?5c?5?$CD535455?$AA@ 100f993c     bncs_cc02_edit.obj
 0003:000e794c       ??_C@_0N@LMAI@gL?5c?5?$CD535353?$AA@ 100f994c     bncs_cc02_edit.obj
 0003:000e795c       ??_C@_0N@CKAI@j6?5c?5?$CD535252?$AA@ 100f995c     bncs_cc02_edit.obj
 0003:000e796c       ??_C@_0N@PHJP@vm?5c?5?$CD53473d?$AA@ 100f996c     bncs_cc02_edit.obj
 0003:000e797c       ??_C@_0N@MMBF@nu?5c?5?$CD533617?$AA@ 100f997c     bncs_cc02_edit.obj
 0003:000e798c       ??_C@_0N@DHEK@nZ?5c?5?$CD527195?$AA@ 100f998c     bncs_cc02_edit.obj
 0003:000e799c       ??_C@_0N@FBBB@eo?5c?5?$CD525252?$AA@ 100f999c     bncs_cc02_edit.obj
 0003:000e79ac       ??_C@_0N@CJCJ@zG?5c?5?$CD523617?$AA@ 100f99ac     bncs_cc02_edit.obj
 0003:000e79bc       ??_C@_0N@JJOI@aq?5c?5?$CD51718e?$AA@ 100f99bc     bncs_cc02_edit.obj
 0003:000e79cc       ??_C@_0N@IMHE@vz?5c?5?$CD516274?$AA@ 100f99cc     bncs_cc02_edit.obj
 0003:000e79dc       ??_C@_0N@NOBM@qG?5c?5?$CD51606d?$AA@ 100f99dc     bncs_cc02_edit.obj
 0003:000e79ec       ??_C@_0N@LHAK@oN?5c?5?$CD515151?$AA@ 100f99ec     bncs_cc02_edit.obj
 0003:000e79fc       ??_C@_0N@FFAH@ph?5c?5?$CD514f46?$AA@ 100f99fc     bncs_cc02_edit.obj
 0003:000e7a0c       ??_C@_0N@FHHE@dD?5c?5?$CD514639?$AA@ 100f9a0c     bncs_cc02_edit.obj
 0003:000e7a1c       ??_C@_0N@NKGH@h0?5c?5?$CD51412f?$AA@ 100f9a1c     bncs_cc02_edit.obj
 0003:000e7a2c       ??_C@_0N@IAEO@mc?5c?5?$CD505252?$AA@ 100f9a2c     bncs_cc02_edit.obj
 0003:000e7a3c       ??_C@_0N@EEKN@gi?5c?5?$CD505050?$AA@ 100f9a3c     bncs_cc02_edit.obj
 0003:000e7a4c       ??_C@_0N@OGKO@fB?5c?5?$CD4f5865?$AA@ 100f9a4c     bncs_cc02_edit.obj
 0003:000e7a5c       ??_C@_0N@DMAP@iQ?5c?5?$CD4f4f4f?$AA@ 100f9a5c     bncs_cc02_edit.obj
 0003:000e7a6c       ??_C@_0N@KEMH@l8?5c?5?$CD4f4d4b?$AA@ 100f9a6c     bncs_cc02_edit.obj
 0003:000e7a7c       ??_C@_0N@BFHJ@ux?5c?5?$CD4f3a25?$AA@ 100f9a7c     bncs_cc02_edit.obj
 0003:000e7a8c       ??_C@_0N@HAIC@lW?5c?5?$CD4e4e4e?$AA@ 100f9a8c     bncs_cc02_edit.obj
 0003:000e7a9c       ??_C@_0N@DLIE@d?4?5c?5?$CD4d6377?$AA@ 100f9a9c     bncs_cc02_edit.obj
 0003:000e7aac       ??_C@_0N@NAPG@?4j?5c?5?$CD4d5a65?$AA@ 100f9aac     bncs_cc02_edit.obj
 0003:000e7abc       ??_C@_0N@JOFL@ul?5c?5?$CD4d4e4e?$AA@ 100f9abc     bncs_cc02_edit.obj
 0003:000e7acc       ??_C@_0N@PBEN@gW?5c?5?$CD4d4d4d?$AA@ 100f9acc     bncs_cc02_edit.obj
 0003:000e7adc       ??_C@_0N@HDLH@ud?5c?5?$CD4d4c4b?$AA@ 100f9adc     bncs_cc02_edit.obj
 0003:000e7aec       ??_C@_0N@JCKG@mO?5c?5?$CD4d4035?$AA@ 100f9aec     bncs_cc02_edit.obj
 0003:000e7afc       ??_C@_0N@FGL@sF?5c?5?$CD4d3e2d?$AA@ 100f9afc     bncs_cc02_edit.obj
 0003:000e7b0c       ??_C@_0N@MNIF@t3?5c?5?$CD4c708d?$AA@ 100f9b0c     bncs_cc02_edit.obj
 0003:000e7b1c       ??_C@_0N@ILIO@xc?5c?5?$CD4c6b90?$AA@ 100f9b1c     bncs_cc02_edit.obj
 0003:000e7b2c       ??_C@_0N@BGPJ@lh?5c?5?$CD4c565c?$AA@ 100f9b2c     bncs_cc02_edit.obj
 0003:000e7b3c       ??_C@_0N@GOIH@vt?5c?5?$CD4c5253?$AA@ 100f9b3c     bncs_cc02_edit.obj
 0003:000e7b4c       ??_C@_0N@CEOJ@ka?5c?5?$CD4c4c4c?$AA@ 100f9b4c     bncs_cc02_edit.obj
 0003:000e7b5c       ??_C@_0N@HPDD@uk?5c?5?$CD4c4b4a?$AA@ 100f9b5c     bncs_cc02_edit.obj
 0003:000e7b6c       ??_C@_0N@JLHL@rY?5c?5?$CD4c4843?$AA@ 100f9b6c     bncs_cc02_edit.obj
 0003:000e7b7c       ??_C@_0N@GAEB@i9?5c?5?$CD4c3625?$AA@ 100f9b7c     bncs_cc02_edit.obj
 0003:000e7b8c       ??_C@_0N@FFD@wH?5c?5?$CD4c2d05?$AA@ 100f9b8c     bncs_cc02_edit.obj
 0003:000e7b9c       ??_C@_0N@HPIM@yl?5c?5?$CD4b6f8d?$AA@ 100f9b9c     bncs_cc02_edit.obj
 0003:000e7bac       ??_C@_0N@PLCF@xj?5c?5?$CD4b6179?$AA@ 100f9bac     bncs_cc02_edit.obj
 0003:000e7bbc       ??_C@_0N@KGJF@ue?5c?5?$CD4b4c4d?$AA@ 100f9bbc     bncs_cc02_edit.obj
 0003:000e7bcc       ??_C@_0N@KBDF@gI?5c?5?$CD4b4b4b?$AA@ 100f9bcc     bncs_cc02_edit.obj
 0003:000e7bdc       ??_C@_0N@NEPG@kW?5c?5?$CD4b3a2e?$AA@ 100f9bdc     bncs_cc02_edit.obj
 0003:000e7bec       ??_C@_0N@NBPI@l4?5c?5?$CD4a4c4e?$AA@ 100f9bec     bncs_cc02_edit.obj
 0003:000e7bfc       ??_C@_0N@GJKE@pE?5c?5?$CD4a4a4a?$AA@ 100f9bfc     bncs_cc02_edit.obj
 0003:000e7c0c       ??_C@_0N@KAAP@l1?5c?5?$CD4a4846?$AA@ 100f9c0c     bncs_cc02_edit.obj
 0003:000e7c1c       ??_C@_0N@HBCL@?4C?5c?5?$CD4a4845?$AA@ 100f9c1c     bncs_cc02_edit.obj
 0003:000e7c2c       ??_C@_0N@FNK@uP?5c?5?$CD496c8c?$AA@ 100f9c2c     bncs_cc02_edit.obj
 0003:000e7c3c       ??_C@_0N@CDCC@vf?5c?5?$CD495560?$AA@ 100f9c3c     bncs_cc02_edit.obj
 0003:000e7c4c       ??_C@_0N@CHKI@jT?5c?5?$CD494949?$AA@ 100f9c4c     bncs_cc02_edit.obj
 0003:000e7c5c       ??_C@_0N@INLJ@y8?5c?5?$CD484f5e?$AA@ 100f9c5c     bncs_cc02_edit.obj
 0003:000e7c6c       ??_C@_0N@MNLE@j1?5c?5?$CD484848?$AA@ 100f9c6c     bncs_cc02_edit.obj
 0003:000e7c7c       ??_C@_0N@NJNL@r1?5c?5?$CD484035?$AA@ 100f9c7c     bncs_cc02_edit.obj
 0003:000e7c8c       ??_C@_0N@IJHO@yW?5c?5?$CD476c8c?$AA@ 100f9c8c     bncs_cc02_edit.obj
 0003:000e7c9c       ??_C@_0N@FOLM@xb?5c?5?$CD476a88?$AA@ 100f9c9c     bncs_cc02_edit.obj
 0003:000e7cac       ??_C@_0N@OOC@nh?5c?5?$CD47525c?$AA@ 100f9cac     bncs_cc02_edit.obj
 0003:000e7cbc       ??_C@_0N@DAKL@uC?5c?5?$CD475058?$AA@ 100f9cbc     bncs_cc02_edit.obj
 0003:000e7ccc       ??_C@_0N@CGLA@dY?5c?5?$CD474747?$AA@ 100f9ccc     bncs_cc02_edit.obj
 0003:000e7cdc       ??_C@_0N@DANL@uB?5c?5?$CD472a09?$AA@ 100f9cdc     bncs_cc02_edit.obj
 0003:000e7cec       ??_C@_0N@CIBC@tq?5c?5?$CD472928?$AA@ 100f9cec     bncs_cc02_edit.obj
 0003:000e7cfc       ??_C@_0N@OHNC@r2?5c?5?$CD464c4c?$AA@ 100f9cfc     bncs_cc02_edit.obj
 0003:000e7d0c       ??_C@_0N@PKFK@kX?5c?5?$CD464646?$AA@ 100f9d0c     bncs_cc02_edit.obj
 0003:000e7d1c       ??_C@_0N@NBDE@rW?5c?5?$CD463e35?$AA@ 100f9d1c     bncs_cc02_edit.obj
 0003:000e7d2c       ??_C@_0N@NHFJ@hp?5c?5?$CD462a09?$AA@ 100f9d2c     bncs_cc02_edit.obj
 0003:000e7d3c       ??_C@_0N@ECCH@?$CDd?5c?5?$CD462909?$AA@ 100f9d3c     bncs_cc02_edit.obj
 0003:000e7d4c       ??_C@_0N@ECEA@bH?5c?5?$CD455b76?$AA@ 100f9d4c     bncs_cc02_edit.obj
 0003:000e7d5c       ??_C@_0N@NPC@st?5c?5?$CD454545?$AA@ 100f9d5c     bncs_cc02_edit.obj
 0003:000e7d6c       ??_C@_0N@BOLC@xl?5c?5?$CD453f36?$AA@ 100f9d6c     bncs_cc02_edit.obj
 0003:000e7d7c       ??_C@_0N@PGGF@eV?5c?5?$CD452f1e?$AA@ 100f9d7c     bncs_cc02_edit.obj
 0003:000e7d8c       ??_C@_0N@DLCM@iz?5c?5?$CD452b19?$AA@ 100f9d8c     bncs_cc02_edit.obj
 0003:000e7d9c       ??_C@_0N@GPIF@fc?5c?5?$CD452808?$AA@ 100f9d9c     bncs_cc02_edit.obj
 0003:000e7dac       ??_C@_0N@HMBH@v2?5c?5?$CD445059?$AA@ 100f9dac     bncs_cc02_edit.obj
 0003:000e7dbc       ??_C@_0N@OMGB@pa?5c?5?$CD444d56?$AA@ 100f9dbc     bncs_cc02_edit.obj
 0003:000e7dcc       ??_C@_0N@NKO@o4?5c?5?$CD444d4f?$AA@ 100f9dcc     bncs_cc02_edit.obj
 0003:000e7ddc       ??_C@_0N@IKEE@pk?5c?5?$CD444444?$AA@ 100f9ddc     bncs_cc02_edit.obj
 0003:000e7dec       ??_C@_0N@JAFN@?4w?5c?5?$CD444343?$AA@ 100f9dec     bncs_cc02_edit.obj
 0003:000e7dfc       ??_C@_0N@OICJ@ws?5c?5?$CD442f1a?$AA@ 100f9dfc     bncs_cc02_edit.obj
 0003:000e7e0c       ??_C@_0N@HCNF@vG?5c?5?$CD442d1a?$AA@ 100f9e0c     bncs_cc02_edit.obj
 0003:000e7e1c       ??_C@_0N@HNCF@mh?5c?5?$CD442808?$AA@ 100f9e1c     bncs_cc02_edit.obj
 0003:000e7e2c       ??_C@_0N@JKAH@cT?5c?5?$CD441f00?$AA@ 100f9e2c     bncs_cc02_edit.obj
 0003:000e7e3c       ??_C@_0N@OAEM@?4W?5c?5?$CD434445?$AA@ 100f9e3c     bncs_cc02_edit.obj
 0003:000e7e4c       ??_C@_0N@LGFJ@?4O?5c?5?$CD434444?$AA@ 100f9e4c     bncs_cc02_edit.obj
 0003:000e7e5c       ??_C@_0N@IONL@zz?5c?5?$CD43443b?$AA@ 100f9e5c     bncs_cc02_edit.obj
 0003:000e7e6c       ??_C@_0N@LBIM@?4z?5c?5?$CD434344?$AA@ 100f9e6c     bncs_cc02_edit.obj
 0003:000e7e7c       ??_C@_0N@KDOE@gy?5c?5?$CD434343?$AA@ 100f9e7c     bncs_cc02_edit.obj
 0003:000e7e8c       ??_C@_0N@DEFI@?4T?5c?5?$CD434342?$AA@ 100f9e8c     bncs_cc02_edit.obj
 0003:000e7e9c       ??_C@_0N@OGNH@?4R?5c?5?$CD434241?$AA@ 100f9e9c     bncs_cc02_edit.obj
 0003:000e7eac       ??_C@_0N@EKOH@ke?5c?5?$CD432707?$AA@ 100f9eac     bncs_cc02_edit.obj
 0003:000e7ebc       ??_C@_0N@MIJ@ry?5c?5?$CD431f00?$AA@ 100f9ebc     bncs_cc02_edit.obj
 0003:000e7ecc       ??_C@_0N@CLKH@cQ?5c?5?$CD42688a?$AA@ 100f9ecc     bncs_cc02_edit.obj
 0003:000e7edc       ??_C@_0N@HKDJ@iy?5c?5?$CD42627a?$AA@ 100f9edc     bncs_cc02_edit.obj
 0003:000e7eec       ??_C@_0N@CMCN@j4?5c?5?$CD425874?$AA@ 100f9eec     bncs_cc02_edit.obj
 0003:000e7efc       ??_C@_0N@HLEM@?4p?5c?5?$CD424443?$AA@ 100f9efc     bncs_cc02_edit.obj
 0003:000e7f0c       ??_C@_0N@BHHH@?4N?5c?5?$CD424343?$AA@ 100f9f0c     bncs_cc02_edit.obj
 0003:000e7f1c       ??_C@_0N@LONP@hw?5c?5?$CD424242?$AA@ 100f9f1c     bncs_cc02_edit.obj
 0003:000e7f2c       ??_C@_0N@HELE@zC?5c?5?$CD42403e?$AA@ 100f9f2c     bncs_cc02_edit.obj
 0003:000e7f3c       ??_C@_0N@IMEC@jx?5c?5?$CD422d1d?$AA@ 100f9f3c     bncs_cc02_edit.obj
 0003:000e7f4c       ??_C@_0N@GLFG@dO?5c?5?$CD421f0c?$AA@ 100f9f4c     bncs_cc02_edit.obj
 0003:000e7f5c       ??_C@_0N@MPPM@kL?5c?5?$CD414c55?$AA@ 100f9f5c     bncs_cc02_edit.obj
 0003:000e7f6c       ??_C@_0N@BKEM@po?5c?5?$CD414141?$AA@ 100f9f6c     bncs_cc02_edit.obj
 0003:000e7f7c       ??_C@_0N@MGDC@?4J?5c?5?$CD41403f?$AA@ 100f9f7c     bncs_cc02_edit.obj
 0003:000e7f8c       ??_C@_0N@PCMC@u?4?5c?5?$CD413224?$AA@ 100f9f8c     bncs_cc02_edit.obj
 0003:000e7f9c       ??_C@_0N@HHDJ@qz?5c?5?$CD41301d?$AA@ 100f9f9c     bncs_cc02_edit.obj
 0003:000e7fac       ??_C@_0N@FJGE@fy?5c?5?$CD412e1f?$AA@ 100f9fac     bncs_cc02_edit.obj
 0003:000e7fbc       ??_C@_0N@KNHD@ea?5c?5?$CD412b1c?$AA@ 100f9fbc     bncs_cc02_edit.obj
 0003:000e7fcc       ??_C@_0N@HNCP@ii?5c?5?$CD412607?$AA@ 100f9fcc     bncs_cc02_edit.obj
 0003:000e7fdc       ??_C@_0N@BLOJ@oq?5c?5?$CD412507?$AA@ 100f9fdc     bncs_cc02_edit.obj
 0003:000e7fec       ??_C@_0N@EOFI@zj?5c?5?$CD404141?$AA@ 100f9fec     bncs_cc02_edit.obj
 0003:000e7ffc       ??_C@_0N@KLOF@qM?5c?5?$CD404040?$AA@ 100f9ffc     bncs_cc02_edit.obj
 0003:000e800c       ??_C@_0N@FGGO@zi?5c?5?$CD403f3e?$AA@ 100fa00c     bncs_cc02_edit.obj
 0003:000e801c       ??_C@_0N@CKLM@?4t?5c?5?$CD403932?$AA@ 100fa01c     bncs_cc02_edit.obj
 0003:000e802c       ??_C@_0N@CGMI@?4i?5c?5?$CD40392f?$AA@ 100fa02c     bncs_cc02_edit.obj
 0003:000e803c       ??_C@_0N@HHEE@w7?5c?5?$CD402c14?$AA@ 100fa03c     bncs_cc02_edit.obj
 0003:000e804c       ??_C@_0N@POFB@sM?5c?5?$CD3f4f5f?$AA@ 100fa04c     bncs_cc02_edit.obj
 0003:000e805c       ??_C@_0N@LDGA@xz?5c?5?$CD3f4042?$AA@ 100fa05c     bncs_cc02_edit.obj
 0003:000e806c       ??_C@_0N@JHCG@?4K?5c?5?$CD3f4041?$AA@ 100fa06c     bncs_cc02_edit.obj
 0003:000e807c       ??_C@_0N@BFH@du?5c?5?$CD3f3f3f?$AA@ 100fa07c     bncs_cc02_edit.obj
 0003:000e808c       ??_C@_0N@NNCM@zy?5c?5?$CD3f3f3e?$AA@ 100fa08c     bncs_cc02_edit.obj
 0003:000e809c       ??_C@_0N@BDGK@zB?5c?5?$CD3f3e3d?$AA@ 100fa09c     bncs_cc02_edit.obj
 0003:000e80ac       ??_C@_0N@MGKF@jS?5c?5?$CD3f2b1b?$AA@ 100fa0ac     bncs_cc02_edit.obj
 0003:000e80bc       ??_C@_0N@HHPN@vR?5c?5?$CD3f2609?$AA@ 100fa0bc     bncs_cc02_edit.obj
 0003:000e80cc       ??_C@_0N@FFKL@bO?5c?5?$CD3f2506?$AA@ 100fa0cc     bncs_cc02_edit.obj
 0003:000e80dc       ??_C@_0N@JNLI@sq?5c?5?$CD3e3e3e?$AA@ 100fa0dc     bncs_cc02_edit.obj
 0003:000e80ec       ??_C@_0N@NDEK@fo?5c?5?$CD3e2f20?$AA@ 100fa0ec     bncs_cc02_edit.obj
 0003:000e80fc       ??_C@_0N@EMAD@yr?5c?5?$CD3e2305?$AA@ 100fa0fc     bncs_cc02_edit.obj
 0003:000e810c       ??_C@_0N@MNHD@bG?5c?5?$CD3e1b0d?$AA@ 100fa10c     bncs_cc02_edit.obj
 0003:000e811c       ??_C@_0N@PGEA@qr?5c?5?$CD3d6387?$AA@ 100fa11c     bncs_cc02_edit.obj
 0003:000e812c       ??_C@_0N@GMGJ@wf?5c?5?$CD3d5675?$AA@ 100fa12c     bncs_cc02_edit.obj
 0003:000e813c       ??_C@_0N@HADF@cn?5c?5?$CD3d4852?$AA@ 100fa13c     bncs_cc02_edit.obj
 0003:000e814c       ??_C@_0N@MKOI@j8?5c?5?$CD3d464c?$AA@ 100fa14c     bncs_cc02_edit.obj
 0003:000e815c       ??_C@_0N@GIHL@?4v?5c?5?$CD3d4144?$AA@ 100fa15c     bncs_cc02_edit.obj
 0003:000e816c       ??_C@_0N@GCE@?4s?5c?5?$CD3d3e3f?$AA@ 100fa16c     bncs_cc02_edit.obj
 0003:000e817c       ??_C@_0N@PPLC@tn?5c?5?$CD3d3e3d?$AA@ 100fa17c     bncs_cc02_edit.obj
 0003:000e818c       ??_C@_0N@BOOG@en?5c?5?$CD3d3d3d?$AA@ 100fa18c     bncs_cc02_edit.obj
 0003:000e819c       ??_C@_0N@DPIH@?4q?5c?5?$CD3d3c3c?$AA@ 100fa19c     bncs_cc02_edit.obj
 0003:000e81ac       ??_C@_0N@BDBO@zv?5c?5?$CD3d3c3b?$AA@ 100fa1ac     bncs_cc02_edit.obj
 0003:000e81bc       ??_C@_0N@HKJN@mB?5c?5?$CD3d3124?$AA@ 100fa1bc     bncs_cc02_edit.obj
 0003:000e81cc       ??_C@_0N@LLFM@ce?5c?5?$CD3d2305?$AA@ 100fa1cc     bncs_cc02_edit.obj
 0003:000e81dc       ??_C@_0N@KKA@rM?5c?5?$CD3d2207?$AA@ 100fa1dc     bncs_cc02_edit.obj
 0003:000e81ec       ??_C@_0N@PDGB@uu?5c?5?$CD3d2205?$AA@ 100fa1ec     bncs_cc02_edit.obj
 0003:000e81fc       ??_C@_0N@KKHB@qt?5c?5?$CD3c576c?$AA@ 100fa1fc     bncs_cc02_edit.obj
 0003:000e820c       ??_C@_0N@PFGK@?$CDN?5c?5?$CD3c4c5b?$AA@ 100fa20c     bncs_cc02_edit.obj
 0003:000e821c       ??_C@_0N@IOHP@?4S?5c?5?$CD3c3c3d?$AA@ 100fa21c     bncs_cc02_edit.obj
 0003:000e822c       ??_C@_0N@GAON@?4r?5c?5?$CD3c3c3c?$AA@ 100fa22c     bncs_cc02_edit.obj
 0003:000e823c       ??_C@_0N@IGPI@zw?5c?5?$CD3c3731?$AA@ 100fa23c     bncs_cc02_edit.obj
 0003:000e824c       ??_C@_0N@DHAH@ev?5c?5?$CD3c352c?$AA@ 100fa24c     bncs_cc02_edit.obj
 0003:000e825c       ??_C@_0N@PLIA@?40?5c?5?$CD3c2105?$AA@ 100fa25c     bncs_cc02_edit.obj
 0003:000e826c       ??_C@_0N@KPAB@xd?5c?5?$CD3c1b00?$AA@ 100fa26c     bncs_cc02_edit.obj
 0003:000e827c       ??_C@_0N@JOF@ex?5c?5?$CD3b3d3d?$AA@ 100fa27c     bncs_cc02_edit.obj
 0003:000e828c       ??_C@_0N@CODM@gQ?5c?5?$CD3b3b3b?$AA@ 100fa28c     bncs_cc02_edit.obj
 0003:000e829c       ??_C@_0N@GOMO@tG?5c?5?$CD3b3b3a?$AA@ 100fa29c     bncs_cc02_edit.obj
 0003:000e82ac       ??_C@_0N@JFHD@lg?5c?5?$CD3b2307?$AA@ 100fa2ac     bncs_cc02_edit.obj
 0003:000e82bc       ??_C@_0N@ILAE@eZ?5c?5?$CD3b2105?$AA@ 100fa2bc     bncs_cc02_edit.obj
 0003:000e82cc       ??_C@_0N@ENMA@bC?5c?5?$CD3b1600?$AA@ 100fa2cc     bncs_cc02_edit.obj
 0003:000e82dc       ??_C@_0N@HDJP@jn?5c?5?$CD3b1104?$AA@ 100fa2dc     bncs_cc02_edit.obj
 0003:000e82ec       ??_C@_0N@KPMA@om?5c?5?$CD3a3a3a?$AA@ 100fa2ec     bncs_cc02_edit.obj
 0003:000e82fc       ??_C@_0N@LMHE@tt?5c?5?$CD3a342e?$AA@ 100fa2fc     bncs_cc02_edit.obj
 0003:000e830c       ??_C@_0N@PFK@hT?5c?5?$CD39495f?$AA@ 100fa30c     bncs_cc02_edit.obj
 0003:000e831c       ??_C@_0N@EBOL@mi?5c?5?$CD394450?$AA@ 100fa31c     bncs_cc02_edit.obj
 0003:000e832c       ??_C@_0N@HDEJ@tK?5c?5?$CD393a3b?$AA@ 100fa32c     bncs_cc02_edit.obj
 0003:000e833c       ??_C@_0N@FAGC@pw?5c?5?$CD393939?$AA@ 100fa33c     bncs_cc02_edit.obj
 0003:000e834c       ??_C@_0N@GKGK@nw?5c?5?$CD391004?$AA@ 100fa34c     bncs_cc02_edit.obj
 0003:000e835c       ??_C@_0N@FENN@zc?5c?5?$CD384352?$AA@ 100fa35c     bncs_cc02_edit.obj
 0003:000e836c       ??_C@_0N@EAJK@nD?5c?5?$CD383937?$AA@ 100fa36c     bncs_cc02_edit.obj
 0003:000e837c       ??_C@_0N@BPKF@eF?5c?5?$CD383838?$AA@ 100fa37c     bncs_cc02_edit.obj
 0003:000e838c       ??_C@_0N@NHP@eQ?5c?5?$CD383737?$AA@ 100fa38c     bncs_cc02_edit.obj
 0003:000e839c       ??_C@_0N@DLHD@ej?5c?5?$CD383532?$AA@ 100fa39c     bncs_cc02_edit.obj
 0003:000e83ac       ??_C@_0N@EAIO@zm?5c?5?$CD383127?$AA@ 100fa3ac     bncs_cc02_edit.obj
 0003:000e83bc       ??_C@_0N@JLN@uH?5c?5?$CD382e21?$AA@ 100fa3bc     bncs_cc02_edit.obj
 0003:000e83cc       ??_C@_0N@ODNL@km?5c?5?$CD382316?$AA@ 100fa3cc     bncs_cc02_edit.obj
 0003:000e83dc       ??_C@_0N@LBOG@?$CD1?5c?5?$CD382106?$AA@ 100fa3dc     bncs_cc02_edit.obj
 0003:000e83ec       ??_C@_0N@OIFP@g7?5c?5?$CD376182?$AA@ 100fa3ec     bncs_cc02_edit.obj
 0003:000e83fc       ??_C@_0N@MKGF@y7?5c?5?$CD376181?$AA@ 100fa3fc     bncs_cc02_edit.obj
 0003:000e840c       ??_C@_0N@NOBE@ts?5c?5?$CD373839?$AA@ 100fa40c     bncs_cc02_edit.obj
 0003:000e841c       ??_C@_0N@GNPO@ew?5c?5?$CD373838?$AA@ 100fa41c     bncs_cc02_edit.obj
 0003:000e842c       ??_C@_0N@IPKP@gn?5c?5?$CD373737?$AA@ 100fa42c     bncs_cc02_edit.obj
 0003:000e843c       ??_C@_0N@MDCL@ff?5c?5?$CD366080?$AA@ 100fa43c     bncs_cc02_edit.obj
 0003:000e844c       ??_C@_0N@BAFE@rL?5c?5?$CD364f64?$AA@ 100fa44c     bncs_cc02_edit.obj
 0003:000e845c       ??_C@_0N@MCJG@eg?5c?5?$CD36383c?$AA@ 100fa45c     bncs_cc02_edit.obj
 0003:000e846c       ??_C@_0N@IKCP@lH?5c?5?$CD363637?$AA@ 100fa46c     bncs_cc02_edit.obj
 0003:000e847c       ??_C@_0N@DICM@tJ?5c?5?$CD362a24?$AA@ 100fa47c     bncs_cc02_edit.obj
 0003:000e848c       ??_C@_0N@MMBO@bc?5c?5?$CD361f06?$AA@ 100fa48c     bncs_cc02_edit.obj
 0003:000e849c       ??_C@_0N@OMBP@bA?5c?5?$CD361d03?$AA@ 100fa49c     bncs_cc02_edit.obj
 0003:000e84ac       ??_C@_0N@ECPE@?$CDi?5c?5?$CD355f7f?$AA@ 100fa4ac     bncs_cc02_edit.obj
 0003:000e84bc       ??_C@_0N@CKKK@hH?5c?5?$CD354c61?$AA@ 100fa4bc     bncs_cc02_edit.obj
 0003:000e84cc       ??_C@_0N@JEHM@eP?5c?5?$CD353637?$AA@ 100fa4cc     bncs_cc02_edit.obj
 0003:000e84dc       ??_C@_0N@BAG@lG?5c?5?$CD353636?$AA@ 100fa4dc     bncs_cc02_edit.obj
 0003:000e84ec       ??_C@_0N@KFCK@jH?5c?5?$CD353535?$AA@ 100fa4ec     bncs_cc02_edit.obj
 0003:000e84fc       ??_C@_0N@FPPE@v0?5c?5?$CD353029?$AA@ 100fa4fc     bncs_cc02_edit.obj
 0003:000e850c       ??_C@_0N@OIEN@b5?5c?5?$CD351c02?$AA@ 100fa50c     bncs_cc02_edit.obj
 0003:000e851c       ??_C@_0N@OMKK@kh?5c?5?$CD345d7d?$AA@ 100fa51c     bncs_cc02_edit.obj
 0003:000e852c       ??_C@_0N@HOEL@vp?5c?5?$CD345577?$AA@ 100fa52c     bncs_cc02_edit.obj
 0003:000e853c       ??_C@_0N@CEOL@oj?5c?5?$CD344049?$AA@ 100fa53c     bncs_cc02_edit.obj
 0003:000e854c       ??_C@_0N@IALJ@eE?5c?5?$CD343536?$AA@ 100fa54c     bncs_cc02_edit.obj
 0003:000e855c       ??_C@_0N@CDHE@gC?5c?5?$CD343434?$AA@ 100fa55c     bncs_cc02_edit.obj
 0003:000e856c       ??_C@_0N@HONE@?47?5c?5?$CD341604?$AA@ 100fa56c     bncs_cc02_edit.obj
 0003:000e857c       ??_C@_0N@HNCK@th?5c?5?$CD335c7b?$AA@ 100fa57c     bncs_cc02_edit.obj
 0003:000e858c       ??_C@_0N@GLEE@wm?5c?5?$CD335777?$AA@ 100fa58c     bncs_cc02_edit.obj
 0003:000e859c       ??_C@_0N@NLHE@s8?5c?5?$CD33435b?$AA@ 100fa59c     bncs_cc02_edit.obj
 0003:000e85ac       ??_C@_0N@MJJB@tr?5c?5?$CD333636?$AA@ 100fa5ac     bncs_cc02_edit.obj
 0003:000e85bc       ??_C@_0N@FGFC@tU?5c?5?$CD333435?$AA@ 100fa5bc     bncs_cc02_edit.obj
 0003:000e85cc       ??_C@_0N@KCCI@pA?5c?5?$CD333333?$AA@ 100fa5cc     bncs_cc02_edit.obj
 0003:000e85dc       ??_C@_0N@CPOJ@tV?5c?5?$CD333231?$AA@ 100fa5dc     bncs_cc02_edit.obj
 0003:000e85ec       ??_C@_0N@JKEN@nA?5c?5?$CD332519?$AA@ 100fa5ec     bncs_cc02_edit.obj
 0003:000e85fc       ??_C@_0N@KFBE@oM?5c?5?$CD332415?$AA@ 100fa5fc     bncs_cc02_edit.obj
 0003:000e860c       ??_C@_0N@LAHN@ow?5c?5?$CD325a79?$AA@ 100fa60c     bncs_cc02_edit.obj
 0003:000e861c       ??_C@_0N@DJIL@do?5c?5?$CD325275?$AA@ 100fa61c     bncs_cc02_edit.obj
 0003:000e862c       ??_C@_0N@LPMC@s2?5c?5?$CD323c48?$AA@ 100fa62c     bncs_cc02_edit.obj
 0003:000e863c       ??_C@_0N@FIIH@nC?5c?5?$CD323233?$AA@ 100fa63c     bncs_cc02_edit.obj
 0003:000e864c       ??_C@_0N@BKGB@e8?5c?5?$CD323232?$AA@ 100fa64c     bncs_cc02_edit.obj
 0003:000e865c       ??_C@_0N@HLND@ek?5c?5?$CD323230?$AA@ 100fa65c     bncs_cc02_edit.obj
 0003:000e866c       ??_C@_0N@GEMH@yG?5c?5?$CD32200e?$AA@ 100fa66c     bncs_cc02_edit.obj
 0003:000e867c       ??_C@_0N@DPEK@lz?5c?5?$CD315877?$AA@ 100fa67c     bncs_cc02_edit.obj
 0003:000e868c       ??_C@_0N@LIDE@yO?5c?5?$CD315076?$AA@ 100fa68c     bncs_cc02_edit.obj
 0003:000e869c       ??_C@_0N@MOJP@gU?5c?5?$CD313131?$AA@ 100fa69c     bncs_cc02_edit.obj
 0003:000e86ac       ??_C@_0N@JAOD@eG?5c?5?$CD313035?$AA@ 100fa6ac     bncs_cc02_edit.obj
 0003:000e86bc       ??_C@_0N@PLEP@to?5c?5?$CD312f2d?$AA@ 100fa6bc     bncs_cc02_edit.obj
 0003:000e86cc       ??_C@_0N@KJFF@?4L?5c?5?$CD312920?$AA@ 100fa6cc     bncs_cc02_edit.obj
 0003:000e86dc       ??_C@_0N@LDND@d7?5c?5?$CD312418?$AA@ 100fa6dc     bncs_cc02_edit.obj
 0003:000e86ec       ??_C@_0N@NPON@yy?5c?5?$CD305775?$AA@ 100fa6ec     bncs_cc02_edit.obj
 0003:000e86fc       ??_C@_0N@IANI@?$CD4?5c?5?$CD305674?$AA@ 100fa6fc     bncs_cc02_edit.obj
 0003:000e870c       ??_C@_0N@HAJJ@eW?5c?5?$CD304f75?$AA@ 100fa70c     bncs_cc02_edit.obj
 0003:000e871c       ??_C@_0N@LDDB@cA?5c?5?$CD30414b?$AA@ 100fa71c     bncs_cc02_edit.obj
 0003:000e872c       ??_C@_0N@LNMM@hx?5c?5?$CD303030?$AA@ 100fa72c     bncs_cc02_edit.obj
 0003:000e873c       ??_C@_0N@DEJA@?$CDD?5c?5?$CD301a04?$AA@ 100fa73c     bncs_cc02_edit.obj
 0003:000e874c       ??_C@_0N@CHHE@wG?5c?5?$CD300d01?$AA@ 100fa74c     bncs_cc02_edit.obj
 0003:000e875c       ??_C@_0N@EKOD@eR?5c?5?$CD2f3c46?$AA@ 100fa75c     bncs_cc02_edit.obj
 0003:000e876c       ??_C@_0N@KCIG@nB?5c?5?$CD2f3032?$AA@ 100fa76c     bncs_cc02_edit.obj
 0003:000e877c       ??_C@_0N@DIIC@sp?5c?5?$CD2f2f2f?$AA@ 100fa77c     bncs_cc02_edit.obj
 0003:000e878c       ??_C@_0N@GEBB@iw?5c?5?$CD2f2e2d?$AA@ 100fa78c     bncs_cc02_edit.obj
 0003:000e879c       ??_C@_0N@KLLK@dn?5c?5?$CD2f0d03?$AA@ 100fa79c     bncs_cc02_edit.obj
 0003:000e87ac       ??_C@_0N@KPGF@p3?5c?5?$CD2e537a?$AA@ 100fa7ac     bncs_cc02_edit.obj
 0003:000e87bc       ??_C@_0N@FILJ@lj?5c?5?$CD2e526d?$AA@ 100fa7bc     bncs_cc02_edit.obj
 0003:000e87cc       ??_C@_0N@BGHK@dH?5c?5?$CD2e3b47?$AA@ 100fa7cc     bncs_cc02_edit.obj
 0003:000e87dc       ??_C@_0N@CMPJ@tC?5c?5?$CD2e343f?$AA@ 100fa7dc     bncs_cc02_edit.obj
 0003:000e87ec       ??_C@_0N@HEFA@iC?5c?5?$CD2e2f2f?$AA@ 100fa7ec     bncs_cc02_edit.obj
 0003:000e87fc       ??_C@_0N@NPP@qL?5c?5?$CD2e2e2e?$AA@ 100fa7fc     bncs_cc02_edit.obj
 0003:000e880c       ??_C@_0N@GGHB@vu?5c?5?$CD2e2215?$AA@ 100fa80c     bncs_cc02_edit.obj
 0003:000e881c       ??_C@_0N@HHDE@aS?5c?5?$CD2e1903?$AA@ 100fa81c     bncs_cc02_edit.obj
 0003:000e882c       ??_C@_0N@MFG@?$CDJ?5c?5?$CD2e1202?$AA@ 100fa82c     bncs_cc02_edit.obj
 0003:000e883c       ??_C@_0N@LHPE@wC?5c?5?$CD2e0900?$AA@ 100fa83c     bncs_cc02_edit.obj
 0003:000e884c       ??_C@_0N@OLAB@vD?5c?5?$CD2d465c?$AA@ 100fa84c     bncs_cc02_edit.obj
 0003:000e885c       ??_C@_0N@LMEP@jZ?5c?5?$CD2d4360?$AA@ 100fa85c     bncs_cc02_edit.obj
 0003:000e886c       ??_C@_0N@HKC@zu?5c?5?$CD2d363b?$AA@ 100fa86c     bncs_cc02_edit.obj
 0003:000e887c       ??_C@_0N@KJJJ@s?4?5c?5?$CD2d2d2d?$AA@ 100fa87c     bncs_cc02_edit.obj
 0003:000e888c       ??_C@_0N@FIPH@fr?5c?5?$CD2d2d2a?$AA@ 100fa88c     bncs_cc02_edit.obj
 0003:000e889c       ??_C@_0N@CMAI@s1?5c?5?$CD2d2b2a?$AA@ 100fa89c     bncs_cc02_edit.obj
 0003:000e88ac       ??_C@_0N@ECDC@tL?5c?5?$CD2d251d?$AA@ 100fa8ac     bncs_cc02_edit.obj
 0003:000e88bc       ??_C@_0N@JEON@?$CD6?5c?5?$CD2c4257?$AA@ 100fa8bc     bncs_cc02_edit.obj
 0003:000e88cc       ??_C@_0N@DHEF@?4y?5c?5?$CD2c3339?$AA@ 100fa8cc     bncs_cc02_edit.obj
 0003:000e88dc       ??_C@_0N@HNGA@fV?5c?5?$CD2c2c2d?$AA@ 100fa8dc     bncs_cc02_edit.obj
 0003:000e88ec       ??_C@_0N@KMGC@ft?5c?5?$CD2c2c2c?$AA@ 100fa8ec     bncs_cc02_edit.obj
 0003:000e88fc       ??_C@_0N@DPNI@fG?5c?5?$CD2c2c2a?$AA@ 100fa8fc     bncs_cc02_edit.obj
 0003:000e890c       ??_C@_0N@BEFD@fq?5c?5?$CD2c2b2b?$AA@ 100fa90c     bncs_cc02_edit.obj
 0003:000e891c       ??_C@_0N@HHIK@f2?5c?5?$CD2c2b2a?$AA@ 100fa91c     bncs_cc02_edit.obj
 0003:000e892c       ??_C@_0N@MACI@cj?5c?5?$CD2c231b?$AA@ 100fa92c     bncs_cc02_edit.obj
 0003:000e893c       ??_C@_0N@MNFG@g?4?5c?5?$CD2c1f20?$AA@ 100fa93c     bncs_cc02_edit.obj
 0003:000e894c       ??_C@_0N@CAFM@oX?5c?5?$CD2c1905?$AA@ 100fa94c     bncs_cc02_edit.obj
 0003:000e895c       ??_C@_0N@EKLE@x6?5c?5?$CD2b486b?$AA@ 100fa95c     bncs_cc02_edit.obj
 0003:000e896c       ??_C@_0N@OEDP@av?5c?5?$CD2b476a?$AA@ 100fa96c     bncs_cc02_edit.obj
 0003:000e897c       ??_C@_0N@GGDN@mt?5c?5?$CD2b3749?$AA@ 100fa97c     bncs_cc02_edit.obj
 0003:000e898c       ??_C@_0N@BEHG@g4?5c?5?$CD2b343e?$AA@ 100fa98c     bncs_cc02_edit.obj
 0003:000e899c       ??_C@_0N@MAON@?$CDk?5c?5?$CD2b3340?$AA@ 100fa99c     bncs_cc02_edit.obj
 0003:000e89ac       ??_C@_0N@EMEJ@g?$CD?5c?5?$CD2b2d29?$AA@ 100fa9ac     bncs_cc02_edit.obj
 0003:000e89bc       ??_C@_0N@LHDA@fU?5c?5?$CD2b2c2c?$AA@ 100fa9bc     bncs_cc02_edit.obj
 0003:000e89cc       ??_C@_0N@BKKB@su?5c?5?$CD2b2b2b?$AA@ 100fa9cc     bncs_cc02_edit.obj
 0003:000e89dc       ??_C@_0N@KELB@l6?5c?5?$CD2b2218?$AA@ 100fa9dc     bncs_cc02_edit.obj
 0003:000e89ec       ??_C@_0N@EBDK@aX?5c?5?$CD2b1000?$AA@ 100fa9ec     bncs_cc02_edit.obj
 0003:000e89fc       ??_C@_0N@ICHL@?$CDh?5c?5?$CD2b0700?$AA@ 100fa9fc     bncs_cc02_edit.obj
 0003:000e8a0c       ??_C@_0N@NDJO@mY?5c?5?$CD2a455d?$AA@ 100faa0c     bncs_cc02_edit.obj
 0003:000e8a1c       ??_C@_0N@ODDK@yT?5c?5?$CD2a4257?$AA@ 100faa1c     bncs_cc02_edit.obj
 0003:000e8a2c       ??_C@_0N@JCCF@fF?5c?5?$CD2a2b2c?$AA@ 100faa2c     bncs_cc02_edit.obj
 0003:000e8a3c       ??_C@_0N@PFMO@iB?5c?5?$CD2a2a2a?$AA@ 100faa3c     bncs_cc02_edit.obj
 0003:000e8a4c       ??_C@_0N@LJHE@bv?5c?5?$CD2a2928?$AA@ 100faa4c     bncs_cc02_edit.obj
 0003:000e8a5c       ??_C@_0N@GJBB@mG?5c?5?$CD2a2015?$AA@ 100faa5c     bncs_cc02_edit.obj
 0003:000e8a6c       ??_C@_0N@KEL@dv?5c?5?$CD2a1f17?$AA@ 100faa6c     bncs_cc02_edit.obj
 0003:000e8a7c       ??_C@_0N@JIOB@uO?5c?5?$CD2a0f00?$AA@ 100faa7c     bncs_cc02_edit.obj
 0003:000e8a8c       ??_C@_0N@CKLA@qn?5c?5?$CD2a0300?$AA@ 100faa8c     bncs_cc02_edit.obj
 0003:000e8a9c       ??_C@_0N@DKCO@rN?5c?5?$CD294b73?$AA@ 100faa9c     bncs_cc02_edit.obj
 0003:000e8aac       ??_C@_0N@IEOD@bK?5c?5?$CD29486b?$AA@ 100faaac     bncs_cc02_edit.obj
 0003:000e8abc       ??_C@_0N@GMPI@bw?5c?5?$CD292a27?$AA@ 100faabc     bncs_cc02_edit.obj
 0003:000e8acc       ??_C@_0N@NPKH@pm?5c?5?$CD292929?$AA@ 100faacc     bncs_cc02_edit.obj
 0003:000e8adc       ??_C@_0N@KLDN@iI?5c?5?$CD292826?$AA@ 100faadc     bncs_cc02_edit.obj
 0003:000e8aec       ??_C@_0N@MCHO@fS?5c?5?$CD292723?$AA@ 100faaec     bncs_cc02_edit.obj
 0003:000e8afc       ??_C@_0N@LFNM@au?5c?5?$CD291203?$AA@ 100faafc     bncs_cc02_edit.obj
 0003:000e8b0c       ??_C@_0N@COAN@dR?5c?5?$CD284667?$AA@ 100fab0c     bncs_cc02_edit.obj
 0003:000e8b1c       ??_C@_0N@KGL@d5?5c?5?$CD283b60?$AA@ 100fab1c     bncs_cc02_edit.obj
 0003:000e8b2c       ??_C@_0N@NEHK@fs?5c?5?$CD282b2d?$AA@ 100fab2c     bncs_cc02_edit.obj
 0003:000e8b3c       ??_C@_0N@CBBI@iH?5c?5?$CD282a2b?$AA@ 100fab3c     bncs_cc02_edit.obj
 0003:000e8b4c       ??_C@_0N@OID@gq?5c?5?$CD282828?$AA@ 100fab4c     bncs_cc02_edit.obj
 0003:000e8b5c       ??_C@_0N@NJED@fP?5c?5?$CD282827?$AA@ 100fab5c     bncs_cc02_edit.obj
 0003:000e8b6c       ??_C@_0N@KNLF@r3?5c?5?$CD281e13?$AA@ 100fab6c     bncs_cc02_edit.obj
 0003:000e8b7c       ??_C@_0N@PCGG@fE?5c?5?$CD281c15?$AA@ 100fab7c     bncs_cc02_edit.obj
 0003:000e8b8c       ??_C@_0N@FIOC@lC?5c?5?$CD280b00?$AA@ 100fab8c     bncs_cc02_edit.obj
 0003:000e8b9c       ??_C@_0N@ODBA@?4c?5c?5?$CD27405c?$AA@ 100fab9c     bncs_cc02_edit.obj
 0003:000e8bac       ??_C@_0N@HBJH@i7?5c?5?$CD273e53?$AA@ 100fabac     bncs_cc02_edit.obj
 0003:000e8bbc       ??_C@_0N@ECAF@fR?5c?5?$CD272728?$AA@ 100fabbc     bncs_cc02_edit.obj
 0003:000e8bcc       ??_C@_0N@HMMI@fQ?5c?5?$CD272727?$AA@ 100fabcc     bncs_cc02_edit.obj
 0003:000e8bdc       ??_C@_0N@BCOD@p?$CD?5c?5?$CD271d10?$AA@ 100fabdc     bncs_cc02_edit.obj
 0003:000e8bec       ??_C@_0N@JHAP@mm?5c?5?$CD27180e?$AA@ 100fabec     bncs_cc02_edit.obj
 0003:000e8bfc       ??_C@_0N@MCBD@ri?5c?5?$CD270a00?$AA@ 100fabfc     bncs_cc02_edit.obj
 0003:000e8c0c       ??_C@_0N@EMA@ww?5c?5?$CD263e58?$AA@ 100fac0c     bncs_cc02_edit.obj
 0003:000e8c1c       ??_C@_0N@MHMG@iA?5c?5?$CD26282a?$AA@ 100fac1c     bncs_cc02_edit.obj
 0003:000e8c2c       ??_C@_0N@GHLH@j?4?5c?5?$CD262626?$AA@ 100fac2c     bncs_cc02_edit.obj
 0003:000e8c3c       ??_C@_0N@IBGD@gb?5c?5?$CD262422?$AA@ 100fac3c     bncs_cc02_edit.obj
 0003:000e8c4c       ??_C@_0N@OKAN@ix?5c?5?$CD262321?$AA@ 100fac4c     bncs_cc02_edit.obj
 0003:000e8c5c       ??_C@_0N@INL@cY?5c?5?$CD261b0f?$AA@ 100fac5c     bncs_cc02_edit.obj
 0003:000e8c6c       ??_C@_0N@INDD@vq?5c?5?$CD260c00?$AA@ 100fac6c     bncs_cc02_edit.obj
 0003:000e8c7c       ??_C@_0N@FCKE@y4?5c?5?$CD260b00?$AA@ 100fac7c     bncs_cc02_edit.obj
 0003:000e8c8c       ??_C@_0N@JMPB@iY?5c?5?$CD260a00?$AA@ 100fac8c     bncs_cc02_edit.obj
 0003:000e8c9c       ??_C@_0N@JPIC@qI?5c?5?$CD25446a?$AA@ 100fac9c     bncs_cc02_edit.obj
 0003:000e8cac       ??_C@_0N@FOJA@s6?5c?5?$CD252728?$AA@ 100facac     bncs_cc02_edit.obj
 0003:000e8cbc       ??_C@_0N@FBEI@i1?5c?5?$CD252525?$AA@ 100facbc     bncs_cc02_edit.obj
 0003:000e8ccc       ??_C@_0N@JCEF@f5?5c?5?$CD252422?$AA@ 100faccc     bncs_cc02_edit.obj
 0003:000e8cdc       ??_C@_0N@DJOL@fX?5c?5?$CD25232a?$AA@ 100facdc     bncs_cc02_edit.obj
 0003:000e8cec       ??_C@_0N@FMA@zb?5c?5?$CD251d11?$AA@ 100facec     bncs_cc02_edit.obj
 0003:000e8cfc       ??_C@_0N@BOGL@zL?5c?5?$CD25190c?$AA@ 100facfc     bncs_cc02_edit.obj
 0003:000e8d0c       ??_C@_0N@JDP@iM?5c?5?$CD251205?$AA@ 100fad0c     bncs_cc02_edit.obj
 0003:000e8d1c       ??_C@_0N@PBOE@t4?5c?5?$CD250a00?$AA@ 100fad1c     bncs_cc02_edit.obj
 0003:000e8d2c       ??_C@_0N@JHID@tg?5c?5?$CD250200?$AA@ 100fad2c     bncs_cc02_edit.obj
 0003:000e8d3c       ??_C@_0N@JPBA@y2?5c?5?$CD250100?$AA@ 100fad3c     bncs_cc02_edit.obj
 0003:000e8d4c       ??_C@_0N@MOCL@tZ?5c?5?$CD244165?$AA@ 100fad4c     bncs_cc02_edit.obj
 0003:000e8d5c       ??_C@_0N@MPLO@pD?5c?5?$CD242424?$AA@ 100fad5c     bncs_cc02_edit.obj
 0003:000e8d6c       ??_C@_0N@GEB@hS?5c?5?$CD241503?$AA@ 100fad6c     bncs_cc02_edit.obj
 0003:000e8d7c       ??_C@_0N@KOEH@c9?5c?5?$CD240900?$AA@ 100fad7c     bncs_cc02_edit.obj
 0003:000e8d8c       ??_C@_0N@HLJ@uv?5c?5?$CD233c54?$AA@ 100fad8c     bncs_cc02_edit.obj
 0003:000e8d9c       ??_C@_0N@EGF@bR?5c?5?$CD23384b?$AA@ 100fad9c     bncs_cc02_edit.obj
 0003:000e8dac       ??_C@_0N@JPKD@c1?5c?5?$CD232f39?$AA@ 100fadac     bncs_cc02_edit.obj
 0003:000e8dbc       ??_C@_0N@JMJH@sg?5c?5?$CD232323?$AA@ 100fadbc     bncs_cc02_edit.obj
 0003:000e8dcc       ??_C@_0N@PEMN@?4b?5c?5?$CD23211b?$AA@ 100fadcc     bncs_cc02_edit.obj
 0003:000e8ddc       ??_C@_0N@NFND@?$CDp?5c?5?$CD23190b?$AA@ 100faddc     bncs_cc02_edit.obj
 0003:000e8dec       ??_C@_0N@KBNJ@od?5c?5?$CD231507?$AA@ 100fadec     bncs_cc02_edit.obj
 0003:000e8dfc       ??_C@_0N@KFDM@uW?5c?5?$CD230900?$AA@ 100fadfc     bncs_cc02_edit.obj
 0003:000e8e0c       ??_C@_0N@JGCK@rS?5c?5?$CD22476d?$AA@ 100fae0c     bncs_cc02_edit.obj
 0003:000e8e1c       ??_C@_0N@FAHG@o0?5c?5?$CD223d52?$AA@ 100fae1c     bncs_cc02_edit.obj
 0003:000e8e2c       ??_C@_0N@NCNL@ck?5c?5?$CD22313d?$AA@ 100fae2c     bncs_cc02_edit.obj
 0003:000e8e3c       ??_C@_0N@GMNI@ob?5c?5?$CD222a36?$AA@ 100fae3c     bncs_cc02_edit.obj
 0003:000e8e4c       ??_C@_0N@BECH@xY?5c?5?$CD222939?$AA@ 100fae4c     bncs_cc02_edit.obj
 0003:000e8e5c       ??_C@_0N@BEKD@gg?5c?5?$CD222425?$AA@ 100fae5c     bncs_cc02_edit.obj
 0003:000e8e6c       ??_C@_0N@KKAM@?4a?5c?5?$CD222222?$AA@ 100fae6c     bncs_cc02_edit.obj
 0003:000e8e7c       ??_C@_0N@KBKK@?4A?5c?5?$CD221b13?$AA@ 100fae7c     bncs_cc02_edit.obj
 0003:000e8e8c       ??_C@_0N@EELK@ey?5c?5?$CD221711?$AA@ 100fae8c     bncs_cc02_edit.obj
 0003:000e8e9c       ??_C@_0N@BGLD@cN?5c?5?$CD221614?$AA@ 100fae9c     bncs_cc02_edit.obj
 0003:000e8eac       ??_C@_0N@EEIK@uf?5c?5?$CD22160b?$AA@ 100faeac     bncs_cc02_edit.obj
 0003:000e8ebc       ??_C@_0N@HHAD@jC?5c?5?$CD214065?$AA@ 100faebc     bncs_cc02_edit.obj
 0003:000e8ecc       ??_C@_0N@DIKC@pR?5c?5?$CD212c3a?$AA@ 100faecc     bncs_cc02_edit.obj
 0003:000e8edc       ??_C@_0N@BIFF@x3?5c?5?$CD212a32?$AA@ 100faedc     bncs_cc02_edit.obj
 0003:000e8eec       ??_C@_0N@ILKF@q1?5c?5?$CD212222?$AA@ 100faeec     bncs_cc02_edit.obj
 0003:000e8efc       ??_C@_0N@HEOI@pN?5c?5?$CD212121?$AA@ 100faefc     bncs_cc02_edit.obj
 0003:000e8f0c       ??_C@_0N@IBFM@kS?5c?5?$CD211411?$AA@ 100faf0c     bncs_cc02_edit.obj
 0003:000e8f1c       ??_C@_0N@LCGF@sU?5c?5?$CD211303?$AA@ 100faf1c     bncs_cc02_edit.obj
 0003:000e8f2c       ??_C@_0N@IEEO@g6?5c?5?$CD210700?$AA@ 100faf2c     bncs_cc02_edit.obj
 0003:000e8f3c       ??_C@_0N@IBGF@ly?5c?5?$CD210000?$AA@ 100faf3c     bncs_cc02_edit.obj
 0003:000e8f4c       ??_C@_0N@GOOG@tP?5c?5?$CD204b6c?$AA@ 100faf4c     bncs_cc02_edit.obj
 0003:000e8f5c       ??_C@_0N@GHGB@me?5c?5?$CD203c5e?$AA@ 100faf5c     bncs_cc02_edit.obj
 0003:000e8f6c       ??_C@_0N@MIHP@fO?5c?5?$CD20252a?$AA@ 100faf6c     bncs_cc02_edit.obj
 0003:000e8f7c       ??_C@_0N@IMFB@gH?5c?5?$CD202020?$AA@ 100faf7c     bncs_cc02_edit.obj
 0003:000e8f8c       ??_C@_0N@MMEP@y?4?5c?5?$CD201100?$AA@ 100faf8c     bncs_cc02_edit.obj
 0003:000e8f9c       ??_C@_0N@MNLB@wE?5c?5?$CD200600?$AA@ 100faf9c     bncs_cc02_edit.obj
 0003:000e8fac       ??_C@_0N@KLBI@g8?5c?5?$CD200500?$AA@ 100fafac     bncs_cc02_edit.obj
 0003:000e8fbc       ??_C@_0N@BHIL@hs?5c?5?$CD200000?$AA@ 100fafbc     bncs_cc02_edit.obj
 0003:000e8fcc       ??_C@_0N@CAKB@dC?5c?5?$CD1f2d39?$AA@ 100fafcc     bncs_cc02_edit.obj
 0003:000e8fdc       ??_C@_0N@LNEK@rq?5c?5?$CD1f2122?$AA@ 100fafdc     bncs_cc02_edit.obj
 0003:000e8fec       ??_C@_0N@GLPA@gZ?5c?5?$CD1f1f1f?$AA@ 100fafec     bncs_cc02_edit.obj
 0003:000e8ffc       ??_C@_0N@NCNO@tx?5c?5?$CD1f1101?$AA@ 100faffc     bncs_cc02_edit.obj
 0003:000e900c       ??_C@_0N@MNDM@?$CDj?5c?5?$CD1f0500?$AA@ 100fb00c     bncs_cc02_edit.obj
 0003:000e901c       ??_C@_0N@JCMF@xU?5c?5?$CD1f0000?$AA@ 100fb01c     bncs_cc02_edit.obj
 0003:000e902c       ??_C@_0N@HLLG@lJ?5c?5?$CD1e4767?$AA@ 100fb02c     bncs_cc02_edit.obj
 0003:000e903c       ??_C@_0N@LHNN@ae?5c?5?$CD1e3c61?$AA@ 100fb03c     bncs_cc02_edit.obj
 0003:000e904c       ??_C@_0N@PGNI@jU?5c?5?$CD1e1e1e?$AA@ 100fb04c     bncs_cc02_edit.obj
 0003:000e905c       ??_C@_0N@HMNL@j7?5c?5?$CD1e1306?$AA@ 100fb05c     bncs_cc02_edit.obj
 0003:000e906c       ??_C@_0N@GENL@we?5c?5?$CD1e1205?$AA@ 100fb06c     bncs_cc02_edit.obj
 0003:000e907c       ??_C@_0N@LKCF@w0?5c?5?$CD1e0701?$AA@ 100fb07c     bncs_cc02_edit.obj
 0003:000e908c       ??_C@_0N@FFCC@ki?5c?5?$CD1e0400?$AA@ 100fb08c     bncs_cc02_edit.obj
 0003:000e909c       ??_C@_0N@ICOC@?$CD3?5c?5?$CD1e0000?$AA@ 100fb09c     bncs_cc02_edit.obj
 0003:000e90ac       ??_C@_0N@MJEE@hB?5c?5?$CD1d4565?$AA@ 100fb0ac     bncs_cc02_edit.obj
 0003:000e90bc       ??_C@_0N@LCFO@lZ?5c?5?$CD1d2632?$AA@ 100fb0bc     bncs_cc02_edit.obj
 0003:000e90cc       ??_C@_0N@NDON@h1?5c?5?$CD1d262e?$AA@ 100fb0cc     bncs_cc02_edit.obj
 0003:000e90dc       ??_C@_0N@FFLA@fz?5c?5?$CD1d2126?$AA@ 100fb0dc     bncs_cc02_edit.obj
 0003:000e90ec       ??_C@_0N@CIIM@lT?5c?5?$CD1d1d1d?$AA@ 100fb0ec     bncs_cc02_edit.obj
 0003:000e90fc       ??_C@_0N@KGPE@v8?5c?5?$CD1d1a18?$AA@ 100fb0fc     bncs_cc02_edit.obj
 0003:000e910c       ??_C@_0N@NBPJ@cD?5c?5?$CD1d0d04?$AA@ 100fb10c     bncs_cc02_edit.obj
 0003:000e911c       ??_C@_0N@LOLP@ox?5c?5?$CD1d0300?$AA@ 100fb11c     bncs_cc02_edit.obj
 0003:000e912c       ??_C@_0N@JAFF@wg?5c?5?$CD1d0000?$AA@ 100fb12c     bncs_cc02_edit.obj
 0003:000e913c       ??_C@_0N@DOIJ@ap?5c?5?$CD1c4362?$AA@ 100fb13c     bncs_cc02_edit.obj
 0003:000e914c       ??_C@_0N@GFKM@qC?5c?5?$CD1c2d49?$AA@ 100fb14c     bncs_cc02_edit.obj
 0003:000e915c       ??_C@_0N@KMBN@kz?5c?5?$CD1c2932?$AA@ 100fb15c     bncs_cc02_edit.obj
 0003:000e916c       ??_C@_0N@JJMN@l7?5c?5?$CD1c2731?$AA@ 100fb16c     bncs_cc02_edit.obj
 0003:000e917c       ??_C@_0N@BLFB@?4I?5c?5?$CD1c232a?$AA@ 100fb17c     bncs_cc02_edit.obj
 0003:000e918c       ??_C@_0N@IHPM@sG?5c?5?$CD1c2325?$AA@ 100fb18c     bncs_cc02_edit.obj
 0003:000e919c       ??_C@_0N@EAFB@ra?5c?5?$CD1c1f22?$AA@ 100fb19c     bncs_cc02_edit.obj
 0003:000e91ac       ??_C@_0N@HPDA@sc?5c?5?$CD1c1c1c?$AA@ 100fb1ac     bncs_cc02_edit.obj
 0003:000e91bc       ??_C@_0N@FOOC@sC?5c?5?$CD1c0f01?$AA@ 100fb1bc     bncs_cc02_edit.obj
 0003:000e91cc       ??_C@_0N@KJPH@m9?5c?5?$CD1c0d03?$AA@ 100fb1cc     bncs_cc02_edit.obj
 0003:000e91dc       ??_C@_0N@LHOF@cH?5c?5?$CD1c0700?$AA@ 100fb1dc     bncs_cc02_edit.obj
 0003:000e91ec       ??_C@_0N@CPIP@lA?5c?5?$CD1c0300?$AA@ 100fb1ec     bncs_cc02_edit.obj
 0003:000e91fc       ??_C@_0N@HGIL@wQ?5c?5?$CD1c0000?$AA@ 100fb1fc     bncs_cc02_edit.obj
 0003:000e920c       ??_C@_0N@ILDD@nR?5c?5?$CD1b4361?$AA@ 100fb20c     bncs_cc02_edit.obj
 0003:000e921c       ??_C@_0N@LNKL@xt?5c?5?$CD1b4360?$AA@ 100fb21c     bncs_cc02_edit.obj
 0003:000e922c       ??_C@_0N@PKGA@dE?5c?5?$CD1b4260?$AA@ 100fb22c     bncs_cc02_edit.obj
 0003:000e923c       ??_C@_0N@JFJN@q6?5c?5?$CD1b4064?$AA@ 100fb23c     bncs_cc02_edit.obj
 0003:000e924c       ??_C@_0N@CBNL@nI?5c?5?$CD1b3c5d?$AA@ 100fb24c     bncs_cc02_edit.obj
 0003:000e925c       ??_C@_0N@ICBI@rj?5c?5?$CD1b1e21?$AA@ 100fb25c     bncs_cc02_edit.obj
 0003:000e926c       ??_C@_0N@FAHK@pl?5c?5?$CD1b1b1b?$AA@ 100fb26c     bncs_cc02_edit.obj
 0003:000e927c       ??_C@_0N@PACK@?4f?5c?5?$CD1b0d00?$AA@ 100fb27c     bncs_cc02_edit.obj
 0003:000e928c       ??_C@_0N@EIJD@p2?5c?5?$CD1b0c05?$AA@ 100fb28c     bncs_cc02_edit.obj
 0003:000e929c       ??_C@_0N@JOHC@lm?5c?5?$CD1b0400?$AA@ 100fb29c     bncs_cc02_edit.obj
 0003:000e92ac       ??_C@_0N@DJBF@?$CD5?5c?5?$CD1b0200?$AA@ 100fb2ac     bncs_cc02_edit.obj
 0003:000e92bc       ??_C@_0N@CFJM@cE?5c?5?$CD1a415f?$AA@ 100fb2bc     bncs_cc02_edit.obj
 0003:000e92cc       ??_C@_0N@BNOB@jV?5c?5?$CD1a405e?$AA@ 100fb2cc     bncs_cc02_edit.obj
 0003:000e92dc       ??_C@_0N@EFCE@d3?5c?5?$CD1a3d5c?$AA@ 100fb2dc     bncs_cc02_edit.obj
 0003:000e92ec       ??_C@_0N@DGLA@oy?5c?5?$CD1a2837?$AA@ 100fb2ec     bncs_cc02_edit.obj
 0003:000e92fc       ??_C@_0N@PEON@mJ?5c?5?$CD1a2530?$AA@ 100fb2fc     bncs_cc02_edit.obj
 0003:000e930c       ??_C@_0N@PIIH@wo?5c?5?$CD1a1e21?$AA@ 100fb30c     bncs_cc02_edit.obj
 0003:000e931c       ??_C@_0N@KIPA@dV?5c?5?$CD1a1a1a?$AA@ 100fb31c     bncs_cc02_edit.obj
 0003:000e932c       ??_C@_0N@CKND@zk?5c?5?$CD1a110a?$AA@ 100fb32c     bncs_cc02_edit.obj
 0003:000e933c       ??_C@_0N@CIII@ky?5c?5?$CD1a0f02?$AA@ 100fb33c     bncs_cc02_edit.obj
 0003:000e934c       ??_C@_0N@CCMM@uI?5c?5?$CD193555?$AA@ 100fb34c     bncs_cc02_edit.obj
 0003:000e935c       ??_C@_0N@DHMM@sW?5c?5?$CD192e3e?$AA@ 100fb35c     bncs_cc02_edit.obj
 0003:000e936c       ??_C@_0N@LNIH@fg?5c?5?$CD192837?$AA@ 100fb36c     bncs_cc02_edit.obj
 0003:000e937c       ??_C@_0N@KABJ@?$CDe?5c?5?$CD19242f?$AA@ 100fb37c     bncs_cc02_edit.obj
 0003:000e938c       ??_C@_0N@IFJC@tF?5c?5?$CD192027?$AA@ 100fb38c     bncs_cc02_edit.obj
 0003:000e939c       ??_C@_0N@CECJ@dW?5c?5?$CD191919?$AA@ 100fb39c     bncs_cc02_edit.obj
 0003:000e93ac       ??_C@_0N@KHDM@ad?5c?5?$CD190800?$AA@ 100fb3ac     bncs_cc02_edit.obj
 0003:000e93bc       ??_C@_0N@PMCH@x5?5c?5?$CD190300?$AA@ 100fb3bc     bncs_cc02_edit.obj
 0003:000e93cc       ??_C@_0N@JJMD@qi?5c?5?$CD18375b?$AA@ 100fb3cc     bncs_cc02_edit.obj
 0003:000e93dc       ??_C@_0N@HECF@y5?5c?5?$CD182a42?$AA@ 100fb3dc     bncs_cc02_edit.obj
 0003:000e93ec       ??_C@_0N@OJPE@v7?5c?5?$CD181b1d?$AA@ 100fb3ec     bncs_cc02_edit.obj
 0003:000e93fc       ??_C@_0N@CMAJ@n?4?5c?5?$CD181818?$AA@ 100fb3fc     bncs_cc02_edit.obj
 0003:000e940c       ??_C@_0N@HBD@wp?5c?5?$CD18130f?$AA@ 100fb40c     bncs_cc02_edit.obj
 0003:000e941c       ??_C@_0N@NKAB@li?5c?5?$CD180600?$AA@ 100fb41c     bncs_cc02_edit.obj
 0003:000e942c       ??_C@_0N@NDIC@jf?5c?5?$CD180400?$AA@ 100fb42c     bncs_cc02_edit.obj
 0003:000e943c       ??_C@_0N@OLHD@iU?5c?5?$CD180000?$AA@ 100fb43c     bncs_cc02_edit.obj
 0003:000e944c       ??_C@_0N@BKEB@xT?5c?5?$CD173758?$AA@ 100fb44c     bncs_cc02_edit.obj
 0003:000e945c       ??_C@_0N@HAKM@cS?5c?5?$CD173659?$AA@ 100fb45c     bncs_cc02_edit.obj
 0003:000e946c       ??_C@_0N@HPMK@qx?5c?5?$CD171a26?$AA@ 100fb46c     bncs_cc02_edit.obj
 0003:000e947c       ??_C@_0N@DFLO@pt?5c?5?$CD171717?$AA@ 100fb47c     bncs_cc02_edit.obj
 0003:000e948c       ??_C@_0N@OPED@iD?5c?5?$CD17120d?$AA@ 100fb48c     bncs_cc02_edit.obj
 0003:000e949c       ??_C@_0N@BFKI@gh?5c?5?$CD171008?$AA@ 100fb49c     bncs_cc02_edit.obj
 0003:000e94ac       ??_C@_0N@EGJD@eX?5c?5?$CD170000?$AA@ 100fb4ac     bncs_cc02_edit.obj
 0003:000e94bc       ??_C@_0N@NDJ@mC?5c?5?$CD16283a?$AA@ 100fb4bc     bncs_cc02_edit.obj
 0003:000e94cc       ??_C@_0N@CFDG@ns?5c?5?$CD161616?$AA@ 100fb4cc     bncs_cc02_edit.obj
 0003:000e94dc       ??_C@_0N@MCMJ@fA?5c?5?$CD16110c?$AA@ 100fb4dc     bncs_cc02_edit.obj
 0003:000e94ec       ??_C@_0N@HHLK@e6?5c?5?$CD160400?$AA@ 100fb4ec     bncs_cc02_edit.obj
 0003:000e94fc       ??_C@_0N@LGDM@?$CD2?5c?5?$CD15364e?$AA@ 100fb4fc     bncs_cc02_edit.obj
 0003:000e950c       ??_C@_0N@HJBF@xI?5c?5?$CD152d41?$AA@ 100fb50c     bncs_cc02_edit.obj
 0003:000e951c       ??_C@_0N@OLMH@qW?5c?5?$CD152b42?$AA@ 100fb51c     bncs_cc02_edit.obj
 0003:000e952c       ??_C@_0N@NADF@zp?5c?5?$CD152639?$AA@ 100fb52c     bncs_cc02_edit.obj
 0003:000e953c       ??_C@_0N@MPKM@ht?5c?5?$CD152338?$AA@ 100fb53c     bncs_cc02_edit.obj
 0003:000e954c       ??_C@_0N@CCBN@dt?5c?5?$CD151f2a?$AA@ 100fb54c     bncs_cc02_edit.obj
 0003:000e955c       ??_C@_0N@CHMB@ir?5c?5?$CD151515?$AA@ 100fb55c     bncs_cc02_edit.obj
 0003:000e956c       ??_C@_0N@DJP@i?4?5c?5?$CD150c01?$AA@ 100fb56c     bncs_cc02_edit.obj
 0003:000e957c       ??_C@_0N@DMPH@?43?5c?5?$CD150000?$AA@ 100fb57c     bncs_cc02_edit.obj
 0003:000e958c       ??_C@_0N@KINA@iT?5c?5?$CD143c5b?$AA@ 100fb58c     bncs_cc02_edit.obj
 0003:000e959c       ??_C@_0N@PCAN@qk?5c?5?$CD142e47?$AA@ 100fb59c     bncs_cc02_edit.obj
 0003:000e95ac       ??_C@_0N@PCMD@kG?5c?5?$CD142532?$AA@ 100fb5ac     bncs_cc02_edit.obj
 0003:000e95bc       ??_C@_0N@LOAH@zA?5c?5?$CD141f29?$AA@ 100fb5bc     bncs_cc02_edit.obj
 0003:000e95cc       ??_C@_0N@GJKG@rX?5c?5?$CD141e2d?$AA@ 100fb5cc     bncs_cc02_edit.obj
 0003:000e95dc       ??_C@_0N@LLFK@uj?5c?5?$CD141e2b?$AA@ 100fb5dc     bncs_cc02_edit.obj
 0003:000e95ec       ??_C@_0N@IMNG@v1?5c?5?$CD141c28?$AA@ 100fb5ec     bncs_cc02_edit.obj
 0003:000e95fc       ??_C@_0N@BKOI@dX?5c?5?$CD141414?$AA@ 100fb5fc     bncs_cc02_edit.obj
 0003:000e960c       ??_C@_0N@FGIP@rK?5c?5?$CD140d08?$AA@ 100fb60c     bncs_cc02_edit.obj
 0003:000e961c       ??_C@_0N@KOEH@x?4?5c?5?$CD133a5c?$AA@ 100fb61c     bncs_cc02_edit.obj
 0003:000e962c       ??_C@_0N@DNMH@cI?5c?5?$CD133350?$AA@ 100fb62c     bncs_cc02_edit.obj
 0003:000e963c       ??_C@_0N@NLHA@wI?5c?5?$CD132d4d?$AA@ 100fb63c     bncs_cc02_edit.obj
 0003:000e964c       ??_C@_0N@EPGM@iS?5c?5?$CD131313?$AA@ 100fb64c     bncs_cc02_edit.obj
 0003:000e965c       ??_C@_0N@FMHL@lr?5c?5?$CD130400?$AA@ 100fb65c     bncs_cc02_edit.obj
 0003:000e966c       ??_C@_0N@EPEM@o3?5c?5?$CD130200?$AA@ 100fb66c     bncs_cc02_edit.obj
 0003:000e967c       ??_C@_0N@OBIF@aw?5c?5?$CD130000?$AA@ 100fb67c     bncs_cc02_edit.obj
 0003:000e968c       ??_C@_0N@JDCP@iq?5c?5?$CD121212?$AA@ 100fb68c     bncs_cc02_edit.obj
 0003:000e969c       ??_C@_0N@HIME@lY?5c?5?$CD120a00?$AA@ 100fb69c     bncs_cc02_edit.obj
 0003:000e96ac       ??_C@_0N@OCEF@md?5c?5?$CD120600?$AA@ 100fb6ac     bncs_cc02_edit.obj
 0003:000e96bc       ??_C@_0N@HIA@d4?5c?5?$CD120000?$AA@ 100fb6bc     bncs_cc02_edit.obj
 0003:000e96cc       ??_C@_0N@CFHJ@lQ?5c?5?$CD113959?$AA@ 100fb6cc     bncs_cc02_edit.obj
 0003:000e96dc       ??_C@_0N@HIHP@?4m?5c?5?$CD112f54?$AA@ 100fb6dc     bncs_cc02_edit.obj
 0003:000e96ec       ??_C@_0N@JPMG@jE?5c?5?$CD111111?$AA@ 100fb6ec     bncs_cc02_edit.obj
 0003:000e96fc       ??_C@_0N@CKBM@vv?5c?5?$CD110700?$AA@ 100fb6fc     bncs_cc02_edit.obj
 0003:000e970c       ??_C@_0N@KPNK@rQ?5c?5?$CD110400?$AA@ 100fb70c     bncs_cc02_edit.obj
 0003:000e971c       ??_C@_0N@CJFM@jW?5c?5?$CD110000?$AA@ 100fb71c     bncs_cc02_edit.obj
 0003:000e972c       ??_C@_0N@OICO@xq?5c?5?$CD103c60?$AA@ 100fb72c     bncs_cc02_edit.obj
 0003:000e973c       ??_C@_0N@JNIM@uV?5c?5?$CD102f50?$AA@ 100fb73c     bncs_cc02_edit.obj
 0003:000e974c       ??_C@_0N@FIMA@n6?5c?5?$CD102849?$AA@ 100fb74c     bncs_cc02_edit.obj
 0003:000e975c       ??_C@_0N@GMAC@iN?5c?5?$CD101e2f?$AA@ 100fb75c     bncs_cc02_edit.obj
 0003:000e976c       ??_C@_0N@PKHC@?4V?5c?5?$CD101a24?$AA@ 100fb76c     bncs_cc02_edit.obj
 0003:000e977c       ??_C@_0N@FOIM@iv?5c?5?$CD10151c?$AA@ 100fb77c     bncs_cc02_edit.obj
 0003:000e978c       ??_C@_0N@BFCK@nr?5c?5?$CD101316?$AA@ 100fb78c     bncs_cc02_edit.obj
 0003:000e979c       ??_C@_0N@ML@mr?5c?5?$CD101011?$AA@ 100fb79c     bncs_cc02_edit.obj
 0003:000e97ac       ??_C@_0N@KFKK@gS?5c?5?$CD101010?$AA@ 100fb7ac     bncs_cc02_edit.obj
 0003:000e97bc       ??_C@_0N@NPOC@jK?5c?5?$CD100b05?$AA@ 100fb7bc     bncs_cc02_edit.obj
 0003:000e97cc       ??_C@_0N@KDMP@dM?5c?5?$CD100000?$AA@ 100fb7cc     bncs_cc02_edit.obj
 0003:000e97dc       ??_C@_0N@HFKG@mX?5c?5?$CD0f3756?$AA@ 100fb7dc     bncs_cc02_edit.obj
 0003:000e97ec       ??_C@_0N@MAKO@bD?5c?5?$CD0f2b46?$AA@ 100fb7ec     bncs_cc02_edit.obj
 0003:000e97fc       ??_C@_0N@BHCB@jL?5c?5?$CD0f1f32?$AA@ 100fb7fc     bncs_cc02_edit.obj
 0003:000e980c       ??_C@_0N@GLNO@g2?5c?5?$CD0f0f0f?$AA@ 100fb80c     bncs_cc02_edit.obj
 0003:000e981c       ??_C@_0N@BBPM@mI?5c?5?$CD0f0f0e?$AA@ 100fb81c     bncs_cc02_edit.obj
 0003:000e982c       ??_C@_0N@INHN@uy?5c?5?$CD0f0800?$AA@ 100fb82c     bncs_cc02_edit.obj
 0003:000e983c       ??_C@_0N@IDEE@a1?5c?5?$CD0f0000?$AA@ 100fb83c     bncs_cc02_edit.obj
 0003:000e984c       ??_C@_0N@KPBN@rG?5c?5?$CD0e3358?$AA@ 100fb84c     bncs_cc02_edit.obj
 0003:000e985c       ??_C@_0N@EJAH@oF?5c?5?$CD0e1f2d?$AA@ 100fb85c     bncs_cc02_edit.obj
 0003:000e986c       ??_C@_0N@IGOG@rD?5c?5?$CD0e1215?$AA@ 100fb86c     bncs_cc02_edit.obj
 0003:000e987c       ??_C@_0N@BMN@mH?5c?5?$CD0e0f10?$AA@ 100fb87c     bncs_cc02_edit.obj
 0003:000e988c       ??_C@_0N@KKNC@mq?5c?5?$CD0e0e0e?$AA@ 100fb88c     bncs_cc02_edit.obj
 0003:000e989c       ??_C@_0N@NBKP@?4P?5c?5?$CD0e0700?$AA@ 100fb89c     bncs_cc02_edit.obj
 0003:000e98ac       ??_C@_0N@JFLB@ng?5c?5?$CD0e0600?$AA@ 100fb8ac     bncs_cc02_edit.obj
 0003:000e98bc       ??_C@_0N@NOMP@s0?5c?5?$CD0e0100?$AA@ 100fb8bc     bncs_cc02_edit.obj
 0003:000e98cc       ??_C@_0N@DCCI@s9?5c?5?$CD0e0000?$AA@ 100fb8cc     bncs_cc02_edit.obj
 0003:000e98dc       ??_C@_0N@GFHI@zF?5c?5?$CD0d263f?$AA@ 100fb8dc     bncs_cc02_edit.obj
 0003:000e98ec       ??_C@_0N@MJC@mp?5c?5?$CD0d0f10?$AA@ 100fb8ec     bncs_cc02_edit.obj
 0003:000e98fc       ??_C@_0N@EPNB@jl?5c?5?$CD0d0d0d?$AA@ 100fb8fc     bncs_cc02_edit.obj
 0003:000e990c       ??_C@_0N@KJHK@um?5c?5?$CD0d0300?$AA@ 100fb90c     bncs_cc02_edit.obj
 0003:000e991c       ??_C@_0N@EKKB@b2?5c?5?$CD0d0000?$AA@ 100fb91c     bncs_cc02_edit.obj
 0003:000e992c       ??_C@_0N@BHHI@hG?5c?5?$CD0c3554?$AA@ 100fb92c     bncs_cc02_edit.obj
 0003:000e993c       ??_C@_0N@HENJ@hq?5c?5?$CD0c2132?$AA@ 100fb93c     bncs_cc02_edit.obj
 0003:000e994c       ??_C@_0N@CJKP@wt?5c?5?$CD0c2031?$AA@ 100fb94c     bncs_cc02_edit.obj
 0003:000e995c       ??_C@_0N@PCM@uc?5c?5?$CD0c1623?$AA@ 100fb95c     bncs_cc02_edit.obj
 0003:000e996c       ??_C@_0N@IHG@k8?5c?5?$CD0c0c0c?$AA@ 100fb96c     bncs_cc02_edit.obj
 0003:000e997c       ??_C@_0N@NLCK@qY?5c?5?$CD0c0000?$AA@ 100fb97c     bncs_cc02_edit.obj
 0003:000e998c       ??_C@_0N@JLGP@ho?5c?5?$CD0b2044?$AA@ 100fb98c     bncs_cc02_edit.obj
 0003:000e999c       ??_C@_0N@JDAD@?$CDc?5c?5?$CD0b2043?$AA@ 100fb99c     bncs_cc02_edit.obj
 0003:000e99ac       ??_C@_0N@IHDD@xG?5c?5?$CD0b203e?$AA@ 100fb9ac     bncs_cc02_edit.obj
 0003:000e99bc       ??_C@_0N@FELJ@fb?5c?5?$CD0b1f42?$AA@ 100fb9bc     bncs_cc02_edit.obj
 0003:000e99cc       ??_C@_0N@EFAD@ez?5c?5?$CD0b192f?$AA@ 100fb9cc     bncs_cc02_edit.obj
 0003:000e99dc       ??_C@_0N@NINF@dU?5c?5?$CD0b0b0b?$AA@ 100fb9dc     bncs_cc02_edit.obj
 0003:000e99ec       ??_C@_0N@OLAC@o?$CD?5c?5?$CD0b0908?$AA@ 100fb9ec     bncs_cc02_edit.obj
 0003:000e99fc       ??_C@_0N@BAPO@?4x?5c?5?$CD0b0500?$AA@ 100fb9fc     bncs_cc02_edit.obj
 0003:000e9a0c       ??_C@_0N@EKLD@mV?5c?5?$CD0b0300?$AA@ 100fba0c     bncs_cc02_edit.obj
 0003:000e9a1c       ??_C@_0N@BOMB@io?5c?5?$CD0b0100?$AA@ 100fba1c     bncs_cc02_edit.obj
 0003:000e9a2c       ??_C@_0N@IGEK@kJ?5c?5?$CD0b0000?$AA@ 100fba2c     bncs_cc02_edit.obj
 0003:000e9a3c       ??_C@_0N@GDPF@qS?5c?5?$CD0a3259?$AA@ 100fba3c     bncs_cc02_edit.obj
 0003:000e9a4c       ??_C@_0N@KAGE@qv?5c?5?$CD0a2c56?$AA@ 100fba4c     bncs_cc02_edit.obj
 0003:000e9a5c       ??_C@_0N@IAFL@aL?5c?5?$CD0a2946?$AA@ 100fba5c     bncs_cc02_edit.obj
 0003:000e9a6c       ??_C@_0N@NCLE@mg?5c?5?$CD0a1f41?$AA@ 100fba6c     bncs_cc02_edit.obj
 0003:000e9a7c       ??_C@_0N@NNPH@kd?5c?5?$CD0a1e40?$AA@ 100fba7c     bncs_cc02_edit.obj
 0003:000e9a8c       ??_C@_0N@LJCB@zx?5c?5?$CD0a1420?$AA@ 100fba8c     bncs_cc02_edit.obj
 0003:000e9a9c       ??_C@_0N@HBKE@td?5c?5?$CD0a141d?$AA@ 100fba9c     bncs_cc02_edit.obj
 0003:000e9aac       ??_C@_0N@CHOI@?4Q?5c?5?$CD0a141b?$AA@ 100fbaac     bncs_cc02_edit.obj
 0003:000e9abc       ??_C@_0N@KELI@pM?5c?5?$CD0a0a0a?$AA@ 100fbabc     bncs_cc02_edit.obj
 0003:000e9acc       ??_C@_0N@ECGM@lI?5c?5?$CD0a0500?$AA@ 100fbacc     bncs_cc02_edit.obj
 0003:000e9adc       ??_C@_0N@JAHF@yk?5c?5?$CD0a0400?$AA@ 100fbadc     bncs_cc02_edit.obj
 0003:000e9aec       ??_C@_0N@BLKD@?4D?5c?5?$CD0a0300?$AA@ 100fbaec     bncs_cc02_edit.obj
 0003:000e9afc       ??_C@_0N@DICL@aK?5c?5?$CD0a0000?$AA@ 100fbafc     bncs_cc02_edit.obj
 0003:000e9b0c       ??_C@_0N@DCMJ@ih?5c?5?$CD091d3f?$AA@ 100fbb0c     bncs_cc02_edit.obj
 0003:000e9b1c       ??_C@_0N@FNIN@op?5c?5?$CD091d3e?$AA@ 100fbb1c     bncs_cc02_edit.obj
 0003:000e9b2c       ??_C@_0N@FNMF@ld?5c?5?$CD091b38?$AA@ 100fbb2c     bncs_cc02_edit.obj
 0003:000e9b3c       ??_C@_0N@BALE@ps?5c?5?$CD090909?$AA@ 100fbb3c     bncs_cc02_edit.obj
 0003:000e9b4c       ??_C@_0N@MBNO@s7?5c?5?$CD090100?$AA@ 100fbb4c     bncs_cc02_edit.obj
 0003:000e9b5c       ??_C@_0N@EGGM@cg?5c?5?$CD090000?$AA@ 100fbb5c     bncs_cc02_edit.obj
 0003:000e9b6c       ??_C@_0N@FGPE@j2?5c?5?$CD081e3b?$AA@ 100fbb6c     bncs_cc02_edit.obj
 0003:000e9b7c       ??_C@_0N@IOBA@bN?5c?5?$CD081c3d?$AA@ 100fbb7c     bncs_cc02_edit.obj
 0003:000e9b8c       ??_C@_0N@JOAH@cd?5c?5?$CD081b3b?$AA@ 100fbb8c     bncs_cc02_edit.obj
 0003:000e9b9c       ??_C@_0N@LJCL@?$CDW?5c?5?$CD081935?$AA@ 100fbb9c     bncs_cc02_edit.obj
 0003:000e9bac       ??_C@_0N@GMGP@a9?5c?5?$CD081833?$AA@ 100fbbac     bncs_cc02_edit.obj
 0003:000e9bbc       ??_C@_0N@FEK@fk?5c?5?$CD08111d?$AA@ 100fbbbc     bncs_cc02_edit.obj
 0003:000e9bcc       ??_C@_0N@HOPA@rV?5c?5?$CD08111b?$AA@ 100fbbcc     bncs_cc02_edit.obj
 0003:000e9bdc       ??_C@_0N@IDPC@oi?5c?5?$CD080908?$AA@ 100fbbdc     bncs_cc02_edit.obj
 0003:000e9bec       ??_C@_0N@DJDM@k1?5c?5?$CD080808?$AA@ 100fbbec     bncs_cc02_edit.obj
 0003:000e9bfc       ??_C@_0N@INFH@fW?5c?5?$CD080400?$AA@ 100fbbfc     bncs_cc02_edit.obj
 0003:000e9c0c       ??_C@_0N@NNFB@sV?5c?5?$CD080300?$AA@ 100fbc0c     bncs_cc02_edit.obj
 0003:000e9c1c       ??_C@_0N@IFKM@nE?5c?5?$CD080100?$AA@ 100fbc1c     bncs_cc02_edit.obj
 0003:000e9c2c       ??_C@_0N@CPH@sL?5c?5?$CD080000?$AA@ 100fbc2c     bncs_cc02_edit.obj
 0003:000e9c3c       ??_C@_0N@MFGH@ui?5c?5?$CD073151?$AA@ 100fbc3c     bncs_cc02_edit.obj
 0003:000e9c4c       ??_C@_0N@CFCN@jo?5c?5?$CD071738?$AA@ 100fbc4c     bncs_cc02_edit.obj
 0003:000e9c5c       ??_C@_0N@NBNH@as?5c?5?$CD07151d?$AA@ 100fbc5c     bncs_cc02_edit.obj
 0003:000e9c6c       ??_C@_0N@FNJH@zh?5c?5?$CD07111a?$AA@ 100fbc6c     bncs_cc02_edit.obj
 0003:000e9c7c       ??_C@_0N@MICK@f4?5c?5?$CD070f16?$AA@ 100fbc7c     bncs_cc02_edit.obj
 0003:000e9c8c       ??_C@_0N@HKIE@g3?5c?5?$CD070707?$AA@ 100fbc8c     bncs_cc02_edit.obj
 0003:000e9c9c       ??_C@_0N@NGAB@fu?5c?5?$CD070300?$AA@ 100fbc9c     bncs_cc02_edit.obj
 0003:000e9cac       ??_C@_0N@CI@dQ?5c?5?$CD070000?$AA@ 100fbcac     bncs_cc02_edit.obj
 0003:000e9cbc       ??_C@_0N@JKKJ@aJ?5c?5?$CD063050?$AA@ 100fbcbc     bncs_cc02_edit.obj
 0003:000e9ccc       ??_C@_0N@BEHO@rd?5c?5?$CD062d52?$AA@ 100fbccc     bncs_cc02_edit.obj
 0003:000e9cdc       ??_C@_0N@GBMN@oT?5c?5?$CD06132a?$AA@ 100fbcdc     bncs_cc02_edit.obj
 0003:000e9cec       ??_C@_0N@MHIK@r0?5c?5?$CD061019?$AA@ 100fbcec     bncs_cc02_edit.obj
 0003:000e9cfc       ??_C@_0N@FOKG@ve?5c?5?$CD060e15?$AA@ 100fbcfc     bncs_cc02_edit.obj
 0003:000e9d0c       ??_C@_0N@GHBG@f1?5c?5?$CD060c11?$AA@ 100fbd0c     bncs_cc02_edit.obj
 0003:000e9d1c       ??_C@_0N@DNEL@hM?5c?5?$CD060606?$AA@ 100fbd1c     bncs_cc02_edit.obj
 0003:000e9d2c       ??_C@_0N@DPMD@fH?5c?5?$CD060100?$AA@ 100fbd2c     bncs_cc02_edit.obj
 0003:000e9d3c       ??_C@_0N@JHHM@sD?5c?5?$CD060000?$AA@ 100fbd3c     bncs_cc02_edit.obj
 0003:000e9d4c       ??_C@_0N@ICAL@ty?5c?5?$CD052346?$AA@ 100fbd4c     bncs_cc02_edit.obj
 0003:000e9d5c       ??_C@_0N@DPMJ@tM?5c?5?$CD051023?$AA@ 100fbd5c     bncs_cc02_edit.obj
 0003:000e9d6c       ??_C@_0N@EGBH@hO?5c?5?$CD051022?$AA@ 100fbd6c     bncs_cc02_edit.obj
 0003:000e9d7c       ??_C@_0N@KKJB@az?5c?5?$CD050f18?$AA@ 100fbd7c     bncs_cc02_edit.obj
 0003:000e9d8c       ??_C@_0N@MALM@fp?5c?5?$CD050a10?$AA@ 100fbd8c     bncs_cc02_edit.obj
 0003:000e9d9c       ??_C@_0N@NBPF@bm?5c?5?$CD050a0e?$AA@ 100fbd9c     bncs_cc02_edit.obj
 0003:000e9dac       ??_C@_0N@NAGN@dK?5c?5?$CD050607?$AA@ 100fbdac     bncs_cc02_edit.obj
 0003:000e9dbc       ??_C@_0N@IDFK@if?5c?5?$CD050505?$AA@ 100fbdbc     bncs_cc02_edit.obj
 0003:000e9dcc       ??_C@_0N@CEHP@?4U?5c?5?$CD050000?$AA@ 100fbdcc     bncs_cc02_edit.obj
 0003:000e9ddc       ??_C@_0N@NADJ@cf?5c?5?$CD042e4f?$AA@ 100fbddc     bncs_cc02_edit.obj
 0003:000e9dec       ??_C@_0N@OBPB@qJ?5c?5?$CD041d42?$AA@ 100fbdec     bncs_cc02_edit.obj
 0003:000e9dfc       ??_C@_0N@MEMC@rB?5c?5?$CD041d3c?$AA@ 100fbdfc     bncs_cc02_edit.obj
 0003:000e9e0c       ??_C@_0N@GEJO@sQ?5c?5?$CD040e1f?$AA@ 100fbe0c     bncs_cc02_edit.obj
 0003:000e9e1c       ??_C@_0N@ENMC@kK?5c?5?$CD040708?$AA@ 100fbe1c     bncs_cc02_edit.obj
 0003:000e9e2c       ??_C@_0N@DDLC@is?5c?5?$CD040404?$AA@ 100fbe2c     bncs_cc02_edit.obj
 0003:000e9e3c       ??_C@_0N@KGCC@?$CDF?5c?5?$CD040000?$AA@ 100fbe3c     bncs_cc02_edit.obj
 0003:000e9e4c       ??_C@_0N@MPOK@dP?5c?5?$CD031f3f?$AA@ 100fbe4c     bncs_cc02_edit.obj
 0003:000e9e5c       ??_C@_0N@GFLF@af?5c?5?$CD031e3f?$AA@ 100fbe5c     bncs_cc02_edit.obj
 0003:000e9e6c       ??_C@_0N@EFPE@xF?5c?5?$CD031d3e?$AA@ 100fbe6c     bncs_cc02_edit.obj
 0003:000e9e7c       ??_C@_0N@MHAA@nP?5c?5?$CD031c37?$AA@ 100fbe7c     bncs_cc02_edit.obj
 0003:000e9e8c       ??_C@_0N@JMOO@n1?5c?5?$CD031125?$AA@ 100fbe8c     bncs_cc02_edit.obj
 0003:000e9e9c       ??_C@_0N@FAGE@ta?5c?5?$CD031026?$AA@ 100fbe9c     bncs_cc02_edit.obj
 0003:000e9eac       ??_C@_0N@CAEG@lv?5c?5?$CD030f17?$AA@ 100fbeac     bncs_cc02_edit.obj
 0003:000e9ebc       ??_C@_0N@MCED@kv?5c?5?$CD030b19?$AA@ 100fbebc     bncs_cc02_edit.obj
 0003:000e9ecc       ??_C@_0N@FBIK@oh?5c?5?$CD030507?$AA@ 100fbecc     bncs_cc02_edit.obj
 0003:000e9edc       ??_C@_0N@IMBA@kZ?5c?5?$CD030303?$AA@ 100fbedc     bncs_cc02_edit.obj
 0003:000e9eec       ??_C@_0N@LKKL@dz?5c?5?$CD030000?$AA@ 100fbeec     bncs_cc02_edit.obj
 0003:000e9efc       ??_C@_0N@FOKG@xg?5c?5?$CD021d3e?$AA@ 100fbefc     bncs_cc02_edit.obj
 0003:000e9f0c       ??_C@_0N@LBIB@cv?5c?5?$CD021d3d?$AA@ 100fbf0c     bncs_cc02_edit.obj
 0003:000e9f1c       ??_C@_0N@KPC@vn?5c?5?$CD021a33?$AA@ 100fbf1c     bncs_cc02_edit.obj
 0003:000e9f2c       ??_C@_0N@PIIJ@ah?5c?5?$CD02172f?$AA@ 100fbf2c     bncs_cc02_edit.obj
 0003:000e9f3c       ??_C@_0N@PILJ@zl?5c?5?$CD020b19?$AA@ 100fbf3c     bncs_cc02_edit.obj
 0003:000e9f4c       ??_C@_0N@EPFO@oa?5c?5?$CD020507?$AA@ 100fbf4c     bncs_cc02_edit.obj
 0003:000e9f5c       ??_C@_0N@FGM@jG?5c?5?$CD020202?$AA@ 100fbf5c     bncs_cc02_edit.obj
 0003:000e9f6c       ??_C@_0N@CCGF@xM?5c?5?$CD020100?$AA@ 100fbf6c     bncs_cc02_edit.obj
 0003:000e9f7c       ??_C@_0N@IPML@wj?5c?5?$CD020002?$AA@ 100fbf7c     bncs_cc02_edit.obj
 0003:000e9f8c       ??_C@_0N@NMFK@f3?5c?5?$CD020000?$AA@ 100fbf8c     bncs_cc02_edit.obj
 0003:000e9f9c       ??_C@_0N@OMGC@t0?5c?5?$CD011c3d?$AA@ 100fbf9c     bncs_cc02_edit.obj
 0003:000e9fac       ??_C@_0N@HDBN@wR?5c?5?$CD01133e?$AA@ 100fbfac     bncs_cc02_edit.obj
 0003:000e9fbc       ??_C@_0N@NJOF@zJ?5c?5?$CD010f1b?$AA@ 100fbfbc     bncs_cc02_edit.obj
 0003:000e9fcc       ??_C@_0N@DKJO@ga?5c?5?$CD010a12?$AA@ 100fbfcc     bncs_cc02_edit.obj
 0003:000e9fdc       ??_C@_0N@HMA@lU?5c?5?$CD010711?$AA@ 100fbfdc     bncs_cc02_edit.obj
 0003:000e9fec       ??_C@_0N@PBBI@cZ?5c?5?$CD010203?$AA@ 100fbfec     bncs_cc02_edit.obj
 0003:000e9ffc       ??_C@_0N@NDMF@ls?5c?5?$CD010101?$AA@ 100fbffc     bncs_cc02_edit.obj
 0003:000ea00c       ??_C@_0N@NJOF@c0?5c?5?$CD010000?$AA@ 100fc00c     bncs_cc02_edit.obj
 0003:000ea01c       ??_C@_0N@KNGE@xP?5c?5?$CD00294f?$AA@ 100fc01c     bncs_cc02_edit.obj
 0003:000ea02c       ??_C@_0N@IAMO@q5?5c?5?$CD001a38?$AA@ 100fc02c     bncs_cc02_edit.obj
 0003:000ea03c       ??_C@_0N@IIHC@jI?5c?5?$CD001a36?$AA@ 100fc03c     bncs_cc02_edit.obj
 0003:000ea04c       ??_C@_0N@OBME@rp?5c?5?$CD001938?$AA@ 100fc04c     bncs_cc02_edit.obj
 0003:000ea05c       ??_C@_0N@CCEE@?4g?5c?5?$CD001734?$AA@ 100fc05c     bncs_cc02_edit.obj
 0003:000ea06c       ??_C@_0N@OKMP@?4X?5c?5?$CD001539?$AA@ 100fc06c     bncs_cc02_edit.obj
 0003:000ea07c       ??_C@_0N@EIOI@?$CDE?5c?5?$CD001532?$AA@ 100fc07c     bncs_cc02_edit.obj
 0003:000ea08c       ??_C@_0N@PAJO@i3?5c?5?$CD001438?$AA@ 100fc08c     bncs_cc02_edit.obj
 0003:000ea09c       ??_C@_0N@IDNF@vQ?5c?5?$CD00142a?$AA@ 100fc09c     bncs_cc02_edit.obj
 0003:000ea0ac       ??_C@_0N@LCFA@et?5c?5?$CD00102a?$AA@ 100fc0ac     bncs_cc02_edit.obj
 0003:000ea0bc       ??_C@_0N@DFCF@bZ?5c?5?$CD000f1e?$AA@ 100fc0bc     bncs_cc02_edit.obj
 0003:000ea0cc       ??_C@_0N@PGKN@qa?5c?5?$CD000d24?$AA@ 100fc0cc     bncs_cc02_edit.obj
 0003:000ea0dc       ??_C@_0N@BEPB@e7?5c?5?$CD000d22?$AA@ 100fc0dc     bncs_cc02_edit.obj
 0003:000ea0ec       ??_C@_0N@HGEC@ee?5c?5?$CD000a2f?$AA@ 100fc0ec     bncs_cc02_edit.obj
 0003:000ea0fc       ??_C@_0N@GIGL@ub?5c?5?$CD000a2d?$AA@ 100fc0fc     bncs_cc02_edit.obj
 0003:000ea10c       ??_C@_0N@NOND@ca?5c?5?$CD000a1d?$AA@ 100fc10c     bncs_cc02_edit.obj
 0003:000ea11c       ??_C@_0N@EJGE@ax?5c?5?$CD00092c?$AA@ 100fc11c     bncs_cc02_edit.obj
 0003:000ea12c       ??_C@_0N@NPH@wP?5c?5?$CD000925?$AA@ 100fc12c     bncs_cc02_edit.obj
 0003:000ea13c       ??_C@_0N@IPGH@xe?5c?5?$CD000922?$AA@ 100fc13c     bncs_cc02_edit.obj
 0003:000ea14c       ??_C@_0N@LNFK@bJ?5c?5?$CD00091d?$AA@ 100fc14c     bncs_cc02_edit.obj
 0003:000ea15c       ??_C@_0N@LILL@?4B?5c?5?$CD000912?$AA@ 100fc15c     bncs_cc02_edit.obj
 0003:000ea16c       ??_C@_0N@CI@dw?5c?5?$CD00082f?$AA@ 100fc16c     bncs_cc02_edit.obj
 0003:000ea17c       ??_C@_0N@KEFF@yh?5c?5?$CD000822?$AA@ 100fc17c     bncs_cc02_edit.obj
 0003:000ea18c       ??_C@_0N@OJAH@sw?5c?5?$CD000819?$AA@ 100fc18c     bncs_cc02_edit.obj
 0003:000ea19c       ??_C@_0N@JILL@?$CDq?5c?5?$CD000818?$AA@ 100fc19c     bncs_cc02_edit.obj
 0003:000ea1ac       ??_C@_0N@FOBJ@b6?5c?5?$CD00072a?$AA@ 100fc1ac     bncs_cc02_edit.obj
 0003:000ea1bc       ??_C@_0N@ODEJ@cW?5c?5?$CD000717?$AA@ 100fc1bc     bncs_cc02_edit.obj
 0003:000ea1cc       ??_C@_0N@ILH@a7?5c?5?$CD000629?$AA@ 100fc1cc     bncs_cc02_edit.obj
 0003:000ea1dc       ??_C@_0N@GEKJ@ut?5c?5?$CD000511?$AA@ 100fc1dc     bncs_cc02_edit.obj
 0003:000ea1ec       ??_C@_0N@EEON@?4M?5c?5?$CD00050d?$AA@ 100fc1ec     bncs_cc02_edit.obj
 0003:000ea1fc       ??_C@_0N@NLIN@x7?5c?5?$CD000422?$AA@ 100fc1fc     bncs_cc02_edit.obj
 0003:000ea20c       ??_C@_0N@FOBJ@xV?5c?5?$CD00041f?$AA@ 100fc20c     bncs_cc02_edit.obj
 0003:000ea21c       ??_C@_0N@GOAB@e?4?5c?5?$CD00041d?$AA@ 100fc21c     bncs_cc02_edit.obj
 0003:000ea22c       ??_C@_0N@IOCE@tz?5c?5?$CD000418?$AA@ 100fc22c     bncs_cc02_edit.obj
 0003:000ea23c       ??_C@_0N@DBHJ@?4Z?5c?5?$CD000411?$AA@ 100fc23c     bncs_cc02_edit.obj
 0003:000ea24c       ??_C@_0N@HLG@eY?5c?5?$CD000410?$AA@ 100fc24c     bncs_cc02_edit.obj
 0003:000ea25c       ??_C@_0N@BLBH@yn?5c?5?$CD00032f?$AA@ 100fc25c     bncs_cc02_edit.obj
 0003:000ea26c       ??_C@_0N@ICGE@qB?5c?5?$CD000324?$AA@ 100fc26c     bncs_cc02_edit.obj
 0003:000ea27c       ??_C@_0N@OEOB@r?$CD?5c?5?$CD00031b?$AA@ 100fc27c     bncs_cc02_edit.obj
 0003:000ea28c       ??_C@_0N@DCBB@w?$CD?5c?5?$CD000312?$AA@ 100fc28c     bncs_cc02_edit.obj
 0003:000ea29c       ??_C@_0N@IBKK@eb?5c?5?$CD000311?$AA@ 100fc29c     bncs_cc02_edit.obj
 0003:000ea2ac       ??_C@_0N@ODMP@?$CDA?5c?5?$CD00030d?$AA@ 100fc2ac     bncs_cc02_edit.obj
 0003:000ea2bc       ??_C@_0N@FFCP@aP?5c?5?$CD00030c?$AA@ 100fc2bc     bncs_cc02_edit.obj
 0003:000ea2cc       ??_C@_0N@GCMJ@lF?5c?5?$CD00030a?$AA@ 100fc2cc     bncs_cc02_edit.obj
 0003:000ea2dc       ??_C@_0N@DLAH@yj?5c?5?$CD000308?$AA@ 100fc2dc     bncs_cc02_edit.obj
 0003:000ea2ec       ??_C@_0N@KDNC@aY?5c?5?$CD000213?$AA@ 100fc2ec     bncs_cc02_edit.obj
 0003:000ea2fc       ??_C@_0N@LLFB@?41?5c?5?$CD000212?$AA@ 100fc2fc     bncs_cc02_edit.obj
 0003:000ea30c       ??_C@_0N@JOON@bz?5c?5?$CD00020e?$AA@ 100fc30c     bncs_cc02_edit.obj
 0003:000ea31c       ??_C@_0N@CJHL@b3?5c?5?$CD00020d?$AA@ 100fc31c     bncs_cc02_edit.obj
 0003:000ea32c       ??_C@_0N@HOKA@?4o?5c?5?$CD00020a?$AA@ 100fc32c     bncs_cc02_edit.obj
 0003:000ea33c       ??_C@_0N@ODDN@tm?5c?5?$CD000209?$AA@ 100fc33c     bncs_cc02_edit.obj
 0003:000ea34c       ??_C@_0N@LCC@fT?5c?5?$CD000208?$AA@ 100fc34c     bncs_cc02_edit.obj
 0003:000ea35c       ??_C@_0N@NMLO@wr?5c?5?$CD000119?$AA@ 100fc35c     bncs_cc02_edit.obj
 0003:000ea36c       ??_C@_0N@GOGI@nU?5c?5?$CD000118?$AA@ 100fc36c     bncs_cc02_edit.obj
 0003:000ea37c       ??_C@_0N@HNHI@pW?5c?5?$CD00010b?$AA@ 100fc37c     bncs_cc02_edit.obj
 0003:000ea38c       ??_C@_0N@EDBD@tu?5c?5?$CD000108?$AA@ 100fc38c     bncs_cc02_edit.obj
 0003:000ea39c       ??_C@_0N@BKHH@q?4?5c?5?$CD00001f?$AA@ 100fc39c     bncs_cc02_edit.obj
 0003:000ea3ac       ??_C@_0N@BBJA@mN?5c?5?$CD00001e?$AA@ 100fc3ac     bncs_cc02_edit.obj
 0003:000ea3bc       ??_C@_0N@HKDA@rT?5c?5?$CD000019?$AA@ 100fc3bc     bncs_cc02_edit.obj
 0003:000ea3cc       ??_C@_0N@NLKF@lB?5c?5?$CD000017?$AA@ 100fc3cc     bncs_cc02_edit.obj
 0003:000ea3dc       ??_C@_0N@PGGI@wD?5c?5?$CD000015?$AA@ 100fc3dc     bncs_cc02_edit.obj
 0003:000ea3ec       ??_C@_0N@LAN@qg?5c?5?$CD000013?$AA@ 100fc3ec     bncs_cc02_edit.obj
 0003:000ea3fc       ??_C@_0N@MMAN@ys?5c?5?$CD000012?$AA@ 100fc3fc     bncs_cc02_edit.obj
 0003:000ea40c       ??_C@_0N@ELCL@dF?5c?5?$CD000010?$AA@ 100fc40c     bncs_cc02_edit.obj
 0003:000ea41c       ??_C@_0N@LDJG@b8?5c?5?$CD00000f?$AA@ 100fc41c     bncs_cc02_edit.obj
 0003:000ea42c       ??_C@_0N@MODH@q9?5c?5?$CD00000e?$AA@ 100fc42c     bncs_cc02_edit.obj
 0003:000ea43c       ??_C@_0N@IKJF@y3?5c?5?$CD00000d?$AA@ 100fc43c     bncs_cc02_edit.obj
 0003:000ea44c       ??_C@_0N@MMGO@rh?5c?5?$CD00000b?$AA@ 100fc44c     bncs_cc02_edit.obj
 0003:000ea45c       ??_C@_0N@NKIK@eK?5c?5?$CD000009?$AA@ 100fc45c     bncs_cc02_edit.obj
 0003:000ea46c       ??_C@_0N@FIDK@vN?5c?5?$CD000008?$AA@ 100fc46c     bncs_cc02_edit.obj
 0003:000ea47c       ??_C@_0N@MMDD@da?5c?5?$CD000007?$AA@ 100fc47c     bncs_cc02_edit.obj
 0003:000ea48c       ??_C@_0N@OFPN@vW?5c?5?$CD000006?$AA@ 100fc48c     bncs_cc02_edit.obj
 0003:000ea49c       ??_C@_0N@HKCA@m0?5c?5?$CD000005?$AA@ 100fc49c     bncs_cc02_edit.obj
 0003:000ea4ac       ??_C@_0N@LHGD@cK?5c?5?$CD000003?$AA@ 100fc4ac     bncs_cc02_edit.obj
 0003:000ea4bc       ??_C@_0N@JKLO@vU?5c?5?$CD000002?$AA@ 100fc4bc     bncs_cc02_edit.obj
 0003:000ea4cc       ??_C@_0N@PPKA@?4u?5c?5?$CD000001?$AA@ 100fc4cc     bncs_cc02_edit.obj
 0003:000ea4dc       ??_C@_0N@CBBL@?4?$CD?5c?5?$CD000000?$AA@ 100fc4dc     bncs_cc02_edit.obj
 0003:000ea4ec       ??_C@_0P@KHCC@345?5248?51768?52?$AA@ 100fc4ec     bncs_cc02_edit.obj
 0003:000ea4fc       ??_C@_09NEKG@1reject?$CI?$CJ?$AA@ 100fc4fc     bncs_cc02_edit.obj
 0003:000ea508       ??_C@_09GLDH@1accept?$CI?$CJ?$AA@ 100fc508     bncs_cc02_edit.obj
 0003:000ea514       ??_C@_0N@BDAB@buttonCancel?$AA@ 100fc514     bncs_cc02_edit.obj
 0003:000ea524       ??_C@_08HMAP@buttonOk?$AA@ 100fc524     bncs_cc02_edit.obj
 0003:000ea530       ??_C@_0L@JDFH@buttonHelp?$AA@ 100fc530     bncs_cc02_edit.obj
 0003:000ea53c       ??_C@_07EANJ@Layout1?$AA@  100fc53c     bncs_cc02_edit.obj
 0003:000ea544       ??_C@_09JKJO@lineEdit2?$AA@ 100fc544     bncs_cc02_edit.obj
 0003:000ea550       ??_C@_09GFCH@lineEdit1?$AA@ 100fc550     bncs_cc02_edit.obj
 0003:000ea55c       ??_C@_09DAMC@lineEdit6?$AA@ 100fc55c     bncs_cc02_edit.obj
 0003:000ea568       ??_C@_09DAAJ@lineEdit3?$AA@ 100fc568     bncs_cc02_edit.obj
 0003:000ea574       ??_C@_09MPHL@lineEdit5?$AA@ 100fc574     bncs_cc02_edit.obj
 0003:000ea580       ??_C@_09GFOM@lineEdit4?$AA@ 100fc580     bncs_cc02_edit.obj
 0003:000ea58c       ??_C@_06EPOB@frame3?$AA@   100fc58c     bncs_cc02_edit.obj
 0003:000ea594       ??_C@_07MHII@layout6?$AA@  100fc594     bncs_cc02_edit.obj
 0003:000ea59c       ??_C@_08KKN@buttonId?$AA@  100fc59c     bncs_cc02_edit.obj
 0003:000ea5a8       ??_C@_0L@KEKH@textLabel1?$AA@ 100fc5a8     bncs_cc02_edit.obj
 0003:000ea5b4       ??_C@_07MHED@layout3?$AA@  100fc5b4     bncs_cc02_edit.obj
 0003:000ea5bc       ??_C@_0BF@IHHD@bncs_cc02_editLayout?$AA@ 100fc5bc     bncs_cc02_edit.obj
 0003:000ea5d4       ??_C@_0P@LLAE@bncs_cc02_edit?$AA@ 100fc5d4     bncs_cc02_edit.obj
 0003:000ea5e4       ??_C@_05EHKB@Alt?$CLC?$AA@ 100fc5e4     bncs_cc02_edit.obj
 0003:000ea5ec       ??_C@_07EODH@?$CGCancel?$AA@ 100fc5ec     bncs_cc02_edit.obj
 0003:000ea5f4       ??_C@_05LJEF@Alt?$CLO?$AA@ 100fc5f4     bncs_cc02_edit.obj
 0003:000ea5fc       ??_C@_03NOMH@?$CGOK?$AA@   100fc5fc     bncs_cc02_edit.obj
 0003:000ea600       ??_C@_05KJAK@?$CGHelp?$AA@ 100fc600     bncs_cc02_edit.obj
 0003:000ea608       ??_C@_02GMH@ID?$AA@        100fc608     bncs_cc02_edit.obj
 0003:000ea60c       ??_C@_0BB@MOGM@languageChange?$CI?$CJ?$AA@ 100fc60c     moc_bncs_cc02_edit.obj
 0003:000ea620       ??_C@_0P@COD@languageChange?$AA@ 100fc620     moc_bncs_cc02_edit.obj
 0003:000ea630       ??_C@_08GHNB@doHelp?$CI?$CJ?$AA@ 100fc630     moc_bncs_cc02_editimpl.obj
 0003:000ea63c       ??_C@_06ILNM@doHelp?$AA@   100fc63c     moc_bncs_cc02_editimpl.obj
 0003:000ea644       ??_C@_0BD@DBH@bncs_cc02_editImpl?$AA@ 100fc644     moc_bncs_cc02_editimpl.obj
 0003:000ea658       ??_C@_0BB@KFHP@notify?$CIQString?$CG?$CJ?$AA@ 100fc658     moc_bncs_cc02_qt.obj
 0003:000ea66c       ??_C@_06PDOH@notify?$AA@   100fc66c     moc_bncs_cc02_qt.obj
 0003:000ea674       ??_C@_0BC@MFHG@edit?$CIbool?$CK?0bool?$CK?$CJ?$AA@ 100fc674     moc_bncs_cc02_qt.obj
 0003:000ea688       ??_C@_04OJPN@edit?$AA@     100fc688     moc_bncs_cc02_qt.obj
 0003:000ea6b0       ??_C@_07MEJL@changed?$AA@  100fc6b0     moc_bncs_cc02_qt.obj
 0003:000ea6b8       ??_C@_0BK@PJPI@suppressInsertEventFilter?$AA@ 100fc6b8     moc_bncs_cc02_qt.obj
 0003:000ea6d4       ??_C@_01PMFO@?$BC?$AA@     100fc6d4     moc_bncs_cc02_qt.obj
 0003:000ea6d8       ??_C@_0CB@DFLM@BNCS_CC02?4IMPOSSIBLE?5DLL?5VECTOR?$CB@ 100fc6d8     BNCS_CC02.obj
 0003:000ea6fc       ??_C@_01PIHH@?$CB?$AA@     100fc6fc     BNCS_CC02.obj
 0003:000ea700       ??_C@_03MIH@361?$AA@       100fc700     CC_COMPS.OBJ
 0003:000ea704       ??_C@_07IFEE@Title?54?$AA@ 100fc704     CC_COMPS.OBJ
 0003:000ea70c       ??_C@_07NAKB@Title?53?$AA@ 100fc70c     CC_COMPS.OBJ
 0003:000ea714       ??_C@_07HKDG@Title?52?$AA@ 100fc714     CC_COMPS.OBJ
 0003:000ea71c       ??_C@_07IFIP@Title?51?$AA@ 100fc71c     CC_COMPS.OBJ
 0003:000ea724       ??_C@_03OCKM@270?$AA@      100fc724     CC_COMPS.OBJ
 0003:000ea728       ??_C@_03MAJG@180?$AA@      100fc728     CC_COMPS.OBJ
 0003:000ea72c       ??_C@_03IECK@090?$AA@      100fc72c     CC_COMPS.OBJ
 0003:000ea730       ??_C@_03CHNE@000?$AA@      100fc730     CC_COMPS.OBJ
 0003:000ea734       ??_C@_04KAJP@?$CF03d?$AA@  100fc734     CC_COMPS.OBJ
 0003:000ea73c       ??_C@_08NPLL@?$CFs______?$AA@ 100fc73c     CC_SUFU.OBJ
 0003:000ea748       ??_C@_07LFFN@WM_USER?$AA@  100fc748     Cc_sufu_common.obj
 0003:000ea750       ??_C@_0BF@HFBA@WM_CBT_RESERVED_LAST?$AA@ 100fc750     Cc_sufu_common.obj
 0003:000ea768       ??_C@_0BG@LGCK@WM_CBT_RESERVED_FIRST?$AA@ 100fc768     Cc_sufu_common.obj
 0003:000ea780       ??_C@_0P@OMCP@WM_DDE_EXECUTE?$AA@ 100fc780     Cc_sufu_common.obj
 0003:000ea790       ??_C@_0M@JFNO@WM_DDE_POKE?$AA@ 100fc790     Cc_sufu_common.obj
 0003:000ea79c       ??_C@_0P@LDGL@WM_DDE_REQUEST?$AA@ 100fc79c     Cc_sufu_common.obj
 0003:000ea7ac       ??_C@_0M@DNIB@WM_DDE_DATA?$AA@ 100fc7ac     Cc_sufu_common.obj
 0003:000ea7b8       ??_C@_0L@EJNE@WM_DDE_ACK?$AA@ 100fc7b8     Cc_sufu_common.obj
 0003:000ea7c4       ??_C@_0BA@IDGA@WM_DDE_UNADVISE?$AA@ 100fc7c4     Cc_sufu_common.obj
 0003:000ea7d4       ??_C@_0O@ILOI@WM_DDE_ADVISE?$AA@ 100fc7d4     Cc_sufu_common.obj
 0003:000ea7e4       ??_C@_0BB@EJPN@WM_DDE_TERMINATE?$AA@ 100fc7e4     Cc_sufu_common.obj
 0003:000ea7f8       ??_C@_0BA@LLPM@WM_DDE_INITIATE?$AA@ 100fc7f8     Cc_sufu_common.obj
 0003:000ea808       ??_C@_0BE@MCJF@WM_MM_RESERVED_LAST?$AA@ 100fc808     Cc_sufu_common.obj
 0003:000ea81c       ??_C@_0M@JDGC@MM_MOM_DONE?$AA@ 100fc81c     Cc_sufu_common.obj
 0003:000ea828       ??_C@_0N@JJNE@MM_MOM_CLOSE?$AA@ 100fc828     Cc_sufu_common.obj
 0003:000ea838       ??_C@_0M@PMBA@MM_MOM_OPEN?$AA@ 100fc838     Cc_sufu_common.obj
 0003:000ea844       ??_C@_0BB@MBKF@MM_MIM_LONGERROR?$AA@ 100fc844     Cc_sufu_common.obj
 0003:000ea858       ??_C@_0N@JLOA@MM_MIM_ERROR?$AA@ 100fc858     Cc_sufu_common.obj
 0003:000ea868       ??_C@_0BA@BFFE@MM_MIM_LONGDATA?$AA@ 100fc868     Cc_sufu_common.obj
 0003:000ea878       ??_C@_0M@FACJ@MM_MIM_DATA?$AA@ 100fc878     Cc_sufu_common.obj
 0003:000ea884       ??_C@_0N@CJDD@MM_MIM_CLOSE?$AA@ 100fc884     Cc_sufu_common.obj
 0003:000ea894       ??_C@_0M@BLGN@MM_MIM_OPEN?$AA@ 100fc894     Cc_sufu_common.obj
 0003:000ea8a0       ??_C@_0M@DOJ@MM_WIM_DATA?$AA@ 100fc8a0     Cc_sufu_common.obj
 0003:000ea8ac       ??_C@_0N@JLGA@MM_WIM_CLOSE?$AA@ 100fc8ac     Cc_sufu_common.obj
 0003:000ea8bc       ??_C@_0M@EIKN@MM_WIM_OPEN?$AA@ 100fc8bc     Cc_sufu_common.obj
 0003:000ea8c8       ??_C@_0M@MAKC@MM_WOM_DONE?$AA@ 100fc8c8     Cc_sufu_common.obj
 0003:000ea8d4       ??_C@_0N@CLIH@MM_WOM_CLOSE?$AA@ 100fc8d4     Cc_sufu_common.obj
 0003:000ea8e4       ??_C@_0M@KPNA@MM_WOM_OPEN?$AA@ 100fc8e4     Cc_sufu_common.obj
 0003:000ea8f0       ??_C@_0N@OOKK@MM_MCINOTIFY?$AA@ 100fc8f0     Cc_sufu_common.obj
 0003:000ea900       ??_C@_0BA@NLCC@MM_JOY2BUTTONUP?$AA@ 100fc900     Cc_sufu_common.obj
 0003:000ea910       ??_C@_0BA@JNPK@MM_JOY1BUTTONUP?$AA@ 100fc910     Cc_sufu_common.obj
 0003:000ea920       ??_C@_0BC@NIFL@MM_JOY2BUTTONDOWN?$AA@ 100fc920     Cc_sufu_common.obj
 0003:000ea934       ??_C@_0BC@OHML@MM_JOY1BUTTONDOWN?$AA@ 100fc934     Cc_sufu_common.obj
 0003:000ea948       ??_C@_0N@PNAE@MM_JOY2ZMOVE?$AA@ 100fc948     Cc_sufu_common.obj
 0003:000ea958       ??_C@_0N@EDOE@MM_JOY1ZMOVE?$AA@ 100fc958     Cc_sufu_common.obj
 0003:000ea968       ??_C@_0M@JLHC@MM_JOY2MOVE?$AA@ 100fc968     Cc_sufu_common.obj
 0003:000ea974       ??_C@_0M@HLBN@MM_JOY1MOVE?$AA@ 100fc974     Cc_sufu_common.obj
 0003:000ea980       ??_C@_0BB@LEFM@WM_COALESCE_LAST?$AA@ 100fc980     Cc_sufu_common.obj
 0003:000ea994       ??_C@_0BC@LGOL@WM_COALESCE_FIRST?$AA@ 100fc994     Cc_sufu_common.obj
 0003:000ea9a8       ??_C@_0M@IAIP@WM_HEDITCTL?$AA@ 100fc9a8     Cc_sufu_common.obj
 0003:000ea9b4       ??_C@_06KFDE@WM_SKB?$AA@   100fc9b4     Cc_sufu_common.obj
 0003:000ea9bc       ??_C@_0BC@HGC@WM_GLOBALRCCHANGE?$AA@ 100fc9bc     Cc_sufu_common.obj
 0003:000ea9d0       ??_C@_0BA@NEPE@WM_HOOKRCRESULT?$AA@ 100fc9d0     Cc_sufu_common.obj
 0003:000ea9e0       ??_C@_0M@IHNJ@WM_RCRESULT?$AA@ 100fc9e0     Cc_sufu_common.obj
 0003:000ea9ec       ??_C@_0P@MBHC@WM_PENWINFIRST?$AA@ 100fc9ec     Cc_sufu_common.obj
 0003:000ea9fc       ??_C@_0BK@JCPC@WM_OCC_LOADFROMSTORAGE_EX?$AA@ 100fc9fc     Cc_sufu_common.obj
 0003:000eaa18       ??_C@_0BJ@DLFO@WM_OCC_LOADFROMSTREAM_EX?$AA@ 100fca18     Cc_sufu_common.obj
 0003:000eaa34       ??_C@_0BC@GALM@WM_QUEUE_SENTINEL?$AA@ 100fca34     Cc_sufu_common.obj
 0003:000eaa48       ??_C@_0P@KFJO@WM_OCC_INITNEW?$AA@ 100fca48     Cc_sufu_common.obj
 0003:000eaa58       ??_C@_0BH@OEHO@WM_OCC_LOADFROMSTORAGE?$AA@ 100fca58     Cc_sufu_common.obj
 0003:000eaa70       ??_C@_0BG@CEEM@WM_OCC_LOADFROMSTREAM?$AA@ 100fca70     Cc_sufu_common.obj
 0003:000eaa88       ??_C@_0BE@GJGA@WM_POPMESSAGESTRING?$AA@ 100fca88     Cc_sufu_common.obj
 0003:000eaa9c       ??_C@_0P@PPJF@WM_SOCKET_DEAD?$AA@ 100fca9c     Cc_sufu_common.obj
 0003:000eaaac       ??_C@_0BB@ILNA@WM_SOCKET_NOTIFY?$AA@ 100fcaac     Cc_sufu_common.obj
 0003:000eaac0       ??_C@_0BD@BFGE@WM_QUERY3DCONTROLS?$AA@ 100fcac0     Cc_sufu_common.obj
 0003:000eaad4       ??_C@_0BE@HHOK@WM_ACTIVATETOPLEVEL?$AA@ 100fcad4     Cc_sufu_common.obj
 0003:000eaae8       ??_C@_0P@IMMN@WM_FLOATSTATUS?$AA@ 100fcae8     Cc_sufu_common.obj
 0003:000eaaf8       ??_C@_0BA@EJDJ@WM_DISABLEMODAL?$AA@ 100fcaf8     Cc_sufu_common.obj
 0003:000eab08       ??_C@_0BC@BFHM@WM_QUERYCENTERWND?$AA@ 100fcb08     Cc_sufu_common.obj
 0003:000eab1c       ??_C@_0M@GODF@WM_KICKIDLE?$AA@ 100fcb1c     Cc_sufu_common.obj
 0003:000eab28       ??_C@_0N@GJJI@WM_SIZECHILD?$AA@ 100fcb28     Cc_sufu_common.obj
 0003:000eab38       ??_C@_0BA@BJLE@WM_RECALCPARENT?$AA@ 100fcb38     Cc_sufu_common.obj
 0003:000eab48       ??_C@_0BA@BKIC@WM_EXITHELPMODE?$AA@ 100fcb48     Cc_sufu_common.obj
 0003:000eab58       ??_C@_0P@JFOD@WM_HELPHITTEST?$AA@ 100fcb58     Cc_sufu_common.obj
 0003:000eab68       ??_C@_0P@LINK@WM_COMMANDHELP?$AA@ 100fcb68     Cc_sufu_common.obj
 0003:000eab78       ??_C@_0BB@OBCK@WM_INITIALUPDATE?$AA@ 100fcb78     Cc_sufu_common.obj
 0003:000eab8c       ??_C@_0BD@GBKN@WM_IDLEUPDATECMDUI?$AA@ 100fcb8c     Cc_sufu_common.obj
 0003:000eaba0       ??_C@_0BE@BKCA@WM_SETMESSAGESTRING?$AA@ 100fcba0     Cc_sufu_common.obj
 0003:000eabb4       ??_C@_0O@MIIN@WM_SIZEPARENT?$AA@ 100fcbb4     Cc_sufu_common.obj
 0003:000eabc4       ??_C@_0BD@INHL@WM_QUERYAFXWNDPROC?$AA@ 100fcbc4     Cc_sufu_common.obj
 0003:000eabd8       ??_C@_0N@CMNI@WM_NOTIFYWOW?$AA@ 100fcbd8     Cc_sufu_common.obj
 0003:000eabe8       ??_C@_0L@PIJE@WM_UAHINIT?$AA@ 100fcbe8     Cc_sufu_common.obj
 0003:000eabf4       ??_C@_0BA@MNLP@WM_THEMECHANGED?$AA@ 100fcbf4     Cc_sufu_common.obj
 0003:000eac04       ??_C@_0O@BDAL@WM_APPCOMMAND?$AA@ 100fcc04     Cc_sufu_common.obj
 0003:000eac14       ??_C@_0P@HMNB@WM_PRINTCLIENT?$AA@ 100fcc14     Cc_sufu_common.obj
 0003:000eac24       ??_C@_08IKAD@WM_PRINT?$AA@ 100fcc24     Cc_sufu_common.obj
 0003:000eac30       ??_C@_0O@KFPM@WM_WAKETHREAD?$AA@ 100fcc30     Cc_sufu_common.obj
 0003:000eac40       ??_C@_0P@JFHM@WM_EXITPROCESS?$AA@ 100fcc40     Cc_sufu_common.obj
 0003:000eac50       ??_C@_0L@DDPO@WM_SYSMENU?$AA@ 100fcc50     Cc_sufu_common.obj
 0003:000eac5c       ??_C@_0L@FJGF@WM_HOOKMSG?$AA@ 100fcc5c     Cc_sufu_common.obj
 0003:000eac68       ??_C@_09OEDN@WM_HOTKEY?$AA@ 100fcc68     Cc_sufu_common.obj
 0003:000eac74       ??_C@_0BC@PIEK@WM_PALETTECHANGED?$AA@ 100fcc74     Cc_sufu_common.obj
 0003:000eac88       ??_C@_0BF@EKBE@WM_PALETTEISCHANGING?$AA@ 100fcc88     Cc_sufu_common.obj
 0003:000eaca0       ??_C@_0BD@DMNM@WM_QUERYNEWPALETTE?$AA@ 100fcca0     Cc_sufu_common.obj
 0003:000eacb4       ??_C@_0BE@PKKP@WM_HSCROLLCLIPBOARD?$AA@ 100fccb4     Cc_sufu_common.obj
 0003:000eacc8       ??_C@_0BB@LIFP@WM_CHANGECBCHAIN?$AA@ 100fccc8     Cc_sufu_common.obj
 0003:000eacdc       ??_C@_0BD@PGGG@WM_ASKCBFORMATNAME?$AA@ 100fccdc     Cc_sufu_common.obj
 0003:000eacf0       ??_C@_0BB@JJM@WM_SIZECLIPBOARD?$AA@ 100fccf0     Cc_sufu_common.obj
 0003:000ead04       ??_C@_0BE@CMBP@WM_VSCROLLCLIPBOARD?$AA@ 100fcd04     Cc_sufu_common.obj
 0003:000ead18       ??_C@_0BC@NHPH@WM_PAINTCLIPBOARD?$AA@ 100fcd18     Cc_sufu_common.obj
 0003:000ead2c       ??_C@_0BB@IODC@WM_DRAWCLIPBOARD?$AA@ 100fcd2c     Cc_sufu_common.obj
 0003:000ead40       ??_C@_0BE@CMMN@WM_DESTROYCLIPBOARD?$AA@ 100fcd40     Cc_sufu_common.obj
 0003:000ead54       ??_C@_0BE@BJAC@WM_RENDERALLFORMATS?$AA@ 100fcd54     Cc_sufu_common.obj
 0003:000ead68       ??_C@_0BA@HABD@WM_RENDERFORMAT?$AA@ 100fcd68     Cc_sufu_common.obj
 0003:000ead78       ??_C@_07PFGH@WM_UNDO?$AA@  100fcd78     Cc_sufu_common.obj
 0003:000ead80       ??_C@_08DLPI@WM_CLEAR?$AA@ 100fcd80     Cc_sufu_common.obj
 0003:000ead8c       ??_C@_08FEGJ@WM_PASTE?$AA@ 100fcd8c     Cc_sufu_common.obj
 0003:000ead98       ??_C@_07ELLN@WM_COPY?$AA@  100fcd98     Cc_sufu_common.obj
 0003:000eada0       ??_C@_06HKFO@WM_CUT?$AA@   100fcda0     Cc_sufu_common.obj
 0003:000eada8       ??_C@_0O@NDHL@WM_MOUSELEAVE?$AA@ 100fcda8     Cc_sufu_common.obj
 0003:000eadb8       ??_C@_0BA@EACC@WM_NCMOUSELEAVE?$AA@ 100fcdb8     Cc_sufu_common.obj
 0003:000eadc8       ??_C@_0O@BBC@WM_MOUSEHOVER?$AA@ 100fcdc8     Cc_sufu_common.obj
 0003:000eadd8       ??_C@_0BA@JCEL@WM_NCMOUSEHOVER?$AA@ 100fcdd8     Cc_sufu_common.obj
 0003:000eade8       ??_C@_0N@FLAH@WM_KANJILAST?$AA@ 100fcde8     Cc_sufu_common.obj
 0003:000eadf8       ??_C@_0N@DJM@WM_IME_KEYUP?$AA@ 100fcdf8     Cc_sufu_common.obj
 0003:000eae08       ??_C@_0P@FCJK@WM_IME_KEYDOWN?$AA@ 100fce08     Cc_sufu_common.obj
 0003:000eae18       ??_C@_0P@FGHF@WM_IME_REQUEST?$AA@ 100fce18     Cc_sufu_common.obj
 0003:000eae28       ??_C@_0O@JFNC@WM_IME_SYSTEM?$AA@ 100fce28     Cc_sufu_common.obj
 0003:000eae38       ??_C@_0M@GCE@WM_IME_CHAR?$AA@ 100fce38     Cc_sufu_common.obj
 0003:000eae44       ??_C@_0O@MAOL@WM_IME_SELECT?$AA@ 100fce44     Cc_sufu_common.obj
 0003:000eae54       ??_C@_0BH@DDBB@WM_IME_COMPOSITIONFULL?$AA@ 100fce54     Cc_sufu_common.obj
 0003:000eae6c       ??_C@_0P@LGLI@WM_IME_CONTROL?$AA@ 100fce6c     Cc_sufu_common.obj
 0003:000eae7c       ??_C@_0O@KIF@WM_IME_NOTIFY?$AA@ 100fce7c     Cc_sufu_common.obj
 0003:000eae8c       ??_C@_0BC@GGM@WM_IME_SETCONTENT?$AA@ 100fce8c     Cc_sufu_common.obj
 0003:000eaea0       ??_C@_0O@FJAE@WM_KANJIFIRST?$AA@ 100fcea0     Cc_sufu_common.obj
 0003:000eaeb0       ??_C@_0BC@MNNI@WM_MDIREFRESHMENU?$AA@ 100fceb0     Cc_sufu_common.obj
 0003:000eaec4       ??_C@_0N@LNHC@WM_DROPFILES?$AA@ 100fcec4     Cc_sufu_common.obj
 0003:000eaed4       ??_C@_0BA@INEM@WM_EXITSIZEMOVE?$AA@ 100fced4     Cc_sufu_common.obj
 0003:000eaee4       ??_C@_0BB@CPJL@WM_ENTERSIZEMOVE?$AA@ 100fcee4     Cc_sufu_common.obj
 0003:000eaef8       ??_C@_0O@HDPN@WM_MDISETMENU?$AA@ 100fcef8     Cc_sufu_common.obj
 0003:000eaf08       ??_C@_0M@JCFA@WM_DRAGMOVE?$AA@ 100fcf08     Cc_sufu_common.obj
 0003:000eaf14       ??_C@_0O@MKEE@WM_DRAGSELECT?$AA@ 100fcf14     Cc_sufu_common.obj
 0003:000eaf24       ??_C@_0M@NHOO@WM_DRAGLOOP?$AA@ 100fcf24     Cc_sufu_common.obj
 0003:000eaf30       ??_C@_0N@MDGC@WM_BEGINDRAG?$AA@ 100fcf30     Cc_sufu_common.obj
 0003:000eaf40       ??_C@_0BD@EPNA@WM_QUERYDROPOBJECT?$AA@ 100fcf40     Cc_sufu_common.obj
 0003:000eaf54       ??_C@_0O@FPA@WM_DROPOBJECT?$AA@ 100fcf54     Cc_sufu_common.obj
 0003:000eaf64       ??_C@_0BA@NCGN@WM_MDIGETACTIVE?$AA@ 100fcf64     Cc_sufu_common.obj
 0003:000eaf74       ??_C@_0BC@KCHC@WM_MDIICONARRANGE?$AA@ 100fcf74     Cc_sufu_common.obj
 0003:000eaf88       ??_C@_0O@CAIK@WM_MDICASCADE?$AA@ 100fcf88     Cc_sufu_common.obj
 0003:000eaf98       ??_C@_0L@DIEL@WM_MDITILE?$AA@ 100fcf98     Cc_sufu_common.obj
 0003:000eafa4       ??_C@_0P@KOLA@WM_MDIMAXIMIZE?$AA@ 100fcfa4     Cc_sufu_common.obj
 0003:000eafb4       ??_C@_0L@OGFF@WM_MDINEXT?$AA@ 100fcfb4     Cc_sufu_common.obj
 0003:000eafc0       ??_C@_0O@HPMO@WM_MDIRESTORE?$AA@ 100fcfc0     Cc_sufu_common.obj
 0003:000eafd0       ??_C@_0P@CLIN@WM_MDIACTIVATE?$AA@ 100fcfd0     Cc_sufu_common.obj
 0003:000eafe0       ??_C@_0O@BOBD@WM_MDIDESTROY?$AA@ 100fcfe0     Cc_sufu_common.obj
 0003:000eaff0       ??_C@_0N@MBAK@WM_MDICREATE?$AA@ 100fcff0     Cc_sufu_common.obj
 0003:000eb000       ??_C@_0BA@BCKA@WM_DEVICECHANGE?$AA@ 100fd000     Cc_sufu_common.obj
 0003:000eb010       ??_C@_0BC@HECE@WM_POWERBROADCAST?$AA@ 100fd010     Cc_sufu_common.obj
 0003:000eb024       ??_C@_09EFIF@WM_MOVING?$AA@ 100fd024     Cc_sufu_common.obj
 0003:000eb030       ??_C@_0BC@FLPI@WM_CAPTURECHANGED?$AA@ 100fd030     Cc_sufu_common.obj
 0003:000eb044       ??_C@_09LAEB@WM_SIZING?$AA@ 100fd044     Cc_sufu_common.obj
 0003:000eb050       ??_C@_0M@KBEH@WM_NEXTMENU?$AA@ 100fd050     Cc_sufu_common.obj
 0003:000eb05c       ??_C@_0BA@HLKE@WM_EXITMENULOOP?$AA@ 100fd05c     Cc_sufu_common.obj
 0003:000eb06c       ??_C@_0BB@NJHD@WM_ENTERMENULOOP?$AA@ 100fd06c     Cc_sufu_common.obj
 0003:000eb080       ??_C@_0BA@PGF@WM_PARENTNOTIFY?$AA@ 100fd080     Cc_sufu_common.obj
 0003:000eb090       ??_C@_0BB@OPO@WM_XBUTTONDBLCLK?$AA@ 100fd090     Cc_sufu_common.obj
 0003:000eb0a4       ??_C@_0N@DKOK@WM_XBUTTONUP?$AA@ 100fd0a4     Cc_sufu_common.obj
 0003:000eb0b4       ??_C@_0P@MMMA@WM_XBUTTONDOWN?$AA@ 100fd0b4     Cc_sufu_common.obj
 0003:000eb0c4       ??_C@_0O@ENMC@WM_MOUSEWHEEL?$AA@ 100fd0c4     Cc_sufu_common.obj
 0003:000eb0d4       ??_C@_0BB@MPK@WM_MBUTTONDBLCLK?$AA@ 100fd0d4     Cc_sufu_common.obj
 0003:000eb0e8       ??_C@_0N@NFAA@WM_MBUTTONUP?$AA@ 100fd0e8     Cc_sufu_common.obj
 0003:000eb0f8       ??_C@_0P@CEIM@WM_MBUTTONDOWN?$AA@ 100fd0f8     Cc_sufu_common.obj
 0003:000eb108       ??_C@_0BB@CHEK@WM_RBUTTONDBLCLK?$AA@ 100fd108     Cc_sufu_common.obj
 0003:000eb11c       ??_C@_0N@KMDL@WM_RBUTTONUP?$AA@ 100fd11c     Cc_sufu_common.obj
 0003:000eb12c       ??_C@_0P@ENKB@WM_RBUTTONDOWN?$AA@ 100fd12c     Cc_sufu_common.obj
 0003:000eb13c       ??_C@_0BB@FNJH@WM_LBUTTONDBLCLK?$AA@ 100fd13c     Cc_sufu_common.obj
 0003:000eb150       ??_C@_0N@BHEI@WM_LBUTTONUP?$AA@ 100fd150     Cc_sufu_common.obj
 0003:000eb160       ??_C@_0P@MOAD@WM_LBUTTONDOWN?$AA@ 100fd160     Cc_sufu_common.obj
 0003:000eb170       ??_C@_0N@DMAG@WM_MOUSEMOVE?$AA@ 100fd170     Cc_sufu_common.obj
 0003:000eb180       ??_C@_0O@GKIG@MN_DODRAGDROP?$AA@ 100fd180     Cc_sufu_common.obj
 0003:000eb190       ??_C@_0L@DGHO@MN_ENDMENU?$AA@ 100fd190     Cc_sufu_common.obj
 0003:000eb19c       ??_C@_0P@PFDK@MN_ACTIVEPOPUP?$AA@ 100fd19c     Cc_sufu_common.obj
 0003:000eb1ac       ??_C@_09OEKC@MN_DBLCLK?$AA@ 100fd1ac     Cc_sufu_common.obj
 0003:000eb1b8       ??_C@_0BL@EAFP@MN_SETTIMERTOOPENHIERARCHY?$AA@ 100fd1b8     Cc_sufu_common.obj
 0003:000eb1d4       ??_C@_0M@KDGK@MN_BUTTONUP?$AA@ 100fd1d4     Cc_sufu_common.obj
 0003:000eb1e0       ??_C@_0BD@JOCO@MN_SHOWPOPUPWINDOW?$AA@ 100fd1e0     Cc_sufu_common.obj
 0003:000eb1f4       ??_C@_0BL@MDNM@MN_FINDMENUWINDOWFROMPOINT?$AA@ 100fd1f4     Cc_sufu_common.obj
 0003:000eb210       ??_C@_0BI@LOBE@MN_SELECTFIRSTVALIDITEM?$AA@ 100fd210     Cc_sufu_common.obj
 0003:000eb228       ??_C@_0P@BPHE@MN_CANCELMENUS?$AA@ 100fd228     Cc_sufu_common.obj
 0003:000eb238       ??_C@_0O@BEHP@MN_SELECTITEM?$AA@ 100fd238     Cc_sufu_common.obj
 0003:000eb248       ??_C@_0BC@DKOO@MN_CLOSEHIERARCHY?$AA@ 100fd248     Cc_sufu_common.obj
 0003:000eb25c       ??_C@_0BB@MBFL@MN_OPENHIERARCHY?$AA@ 100fd25c     Cc_sufu_common.obj
 0003:000eb270       ??_C@_0O@PJGO@MN_SIZEWINDOW?$AA@ 100fd270     Cc_sufu_common.obj
 0003:000eb280       ??_C@_0M@GJKN@MN_GETHMENU?$AA@ 100fd280     Cc_sufu_common.obj
 0003:000eb28c       ??_C@_0M@MLPO@MN_SETHMENU?$AA@ 100fd28c     Cc_sufu_common.obj
 0003:000eb298       ??_C@_0BC@LIPG@LB_GETLISTBOXINFO?$AA@ 100fd298     Cc_sufu_common.obj
 0003:000eb2ac       ??_C@_0BF@NNFF@LB_MULTIPLEADDSTRING?$AA@ 100fd2ac     Cc_sufu_common.obj
 0003:000eb2c4       ??_C@_0O@EPCB@LBCB_ENDTRACK?$AA@ 100fd2c4     Cc_sufu_common.obj
 0003:000eb2d4       ??_C@_0BA@LNPK@LBCB_STARTTRACK?$AA@ 100fd2d4     Cc_sufu_common.obj
 0003:000eb2e4       ??_C@_0BC@NPKG@LB_ADDSTRINGLOWER?$AA@ 100fd2e4     Cc_sufu_common.obj
 0003:000eb2f8       ??_C@_0BC@EHJC@LB_ADDSTRINGUPPER?$AA@ 100fd2f8     Cc_sufu_common.obj
 0003:000eb30c       ??_C@_0BF@LBDP@LB_INSERTSTRINGLOWER?$AA@ 100fd30c     Cc_sufu_common.obj
 0003:000eb324       ??_C@_0BF@CJAL@LB_INSERTSTRINGUPPER?$AA@ 100fd324     Cc_sufu_common.obj
 0003:000eb33c       ??_C@_0BD@BPE@LB_ITEMFROMPOINT32?$AA@ 100fd33c     Cc_sufu_common.obj
 0003:000eb350       ??_C@_0BB@JKAK@LB_INITSTORAGE32?$AA@ 100fd350     Cc_sufu_common.obj
 0003:000eb364       ??_C@_0O@CFLK@LB_SETCOUNT32?$AA@ 100fd364     Cc_sufu_common.obj
 0003:000eb374       ??_C@_0P@DOIO@LB_GETLOCALE32?$AA@ 100fd374     Cc_sufu_common.obj
 0003:000eb384       ??_C@_0P@DMEN@LB_SETLOCALE32?$AA@ 100fd384     Cc_sufu_common.obj
 0003:000eb394       ??_C@_0O@CCCF@LB_CARETOFF32?$AA@ 100fd394     Cc_sufu_common.obj
 0003:000eb3a4       ??_C@_0N@PINM@LB_CARETON32?$AA@ 100fd3a4     Cc_sufu_common.obj
 0003:000eb3b4       ??_C@_0BF@MMAJ@LB_FINDSTRINGEXACT32?$AA@ 100fd3b4     Cc_sufu_common.obj
 0003:000eb3cc       ??_C@_0BD@BCKF@LB_GETITEMHEIGHT32?$AA@ 100fd3cc     Cc_sufu_common.obj
 0003:000eb3e0       ??_C@_0BD@DCCB@LB_SETITEMHEIGHT32?$AA@ 100fd3e0     Cc_sufu_common.obj
 0003:000eb3f4       ??_C@_0BD@GIPE@LB_GETCARETINDEX32?$AA@ 100fd3f4     Cc_sufu_common.obj
 0003:000eb408       ??_C@_0BD@EIHA@LB_SETCARETINDEX32?$AA@ 100fd408     Cc_sufu_common.obj
 0003:000eb41c       ??_C@_0BE@BKOP@LB_GETANCHORINDEX32?$AA@ 100fd41c     Cc_sufu_common.obj
 0003:000eb430       ??_C@_0BE@IBMP@LB_SETANCHORINDEX32?$AA@ 100fd430     Cc_sufu_common.obj
 0003:000eb444       ??_C@_0BC@OGAL@LB_SELITEMRANGE32?$AA@ 100fd444     Cc_sufu_common.obj
 0003:000eb458       ??_C@_0BB@HPJP@LB_SETITEMDATA32?$AA@ 100fd458     Cc_sufu_common.obj
 0003:000eb46c       ??_C@_0BB@CMPG@LB_GETITEMDATA32?$AA@ 100fd46c     Cc_sufu_common.obj
 0003:000eb480       ??_C@_0BB@BPBI@LB_GETITEMRECT32?$AA@ 100fd480     Cc_sufu_common.obj
 0003:000eb494       ??_C@_0BB@FIBJ@LB_SETTOPINDEX32?$AA@ 100fd494     Cc_sufu_common.obj
 0003:000eb4a8       ??_C@_0N@IOKI@LB_ADDFILE32?$AA@ 100fd4a8     Cc_sufu_common.obj
 0003:000eb4b8       ??_C@_0BE@BJJG@LB_SETCOLUMNWIDTH32?$AA@ 100fd4b8     Cc_sufu_common.obj
 0003:000eb4cc       ??_C@_0BJ@IPIJ@LB_SETHORIZONTALEXTENT32?$AA@ 100fd4cc     Cc_sufu_common.obj
 0003:000eb4e8       ??_C@_0BJ@MKLJ@LB_GETHORIZONTALEXTENT32?$AA@ 100fd4e8     Cc_sufu_common.obj
 0003:000eb504       ??_C@_0BB@KLDD@LB_SETTABSTOPS32?$AA@ 100fd504     Cc_sufu_common.obj
 0003:000eb518       ??_C@_0BB@OBLB@LB_GETSELITEMS32?$AA@ 100fd518     Cc_sufu_common.obj
 0003:000eb52c       ??_C@_0BB@FCBG@LB_GETSELCOUNT32?$AA@ 100fd52c     Cc_sufu_common.obj
 0003:000eb540       ??_C@_0BA@LJM@LB_FINDSTRING32?$AA@ 100fd540     Cc_sufu_common.obj
 0003:000eb550       ??_C@_0BB@LHA@LB_GETTOPINDEX32?$AA@ 100fd550     Cc_sufu_common.obj
 0003:000eb564       ??_C@_08BNJD@LB_DIR32?$AA@ 100fd564     Cc_sufu_common.obj
 0003:000eb570       ??_C@_0BC@BGBL@LB_SELECTSTRING32?$AA@ 100fd570     Cc_sufu_common.obj
 0003:000eb584       ??_C@_0O@OGJH@LB_GETCOUNT32?$AA@ 100fd584     Cc_sufu_common.obj
 0003:000eb594       ??_C@_0BA@HEH@LB_GETTEXTLEN32?$AA@ 100fd594     Cc_sufu_common.obj
 0003:000eb5a4       ??_C@_0N@OBIE@LB_GETTEXT32?$AA@ 100fd5a4     Cc_sufu_common.obj
 0003:000eb5b4       ??_C@_0P@HDD@LB_GETCURSEL32?$AA@ 100fd5b4     Cc_sufu_common.obj
 0003:000eb5c4       ??_C@_0M@IHNF@LB_GETSEL32?$AA@ 100fd5c4     Cc_sufu_common.obj
 0003:000eb5d0       ??_C@_0P@FPA@LB_SETCURSEL32?$AA@ 100fd5d0     Cc_sufu_common.obj
 0003:000eb5e0       ??_C@_0M@CFIG@LB_SETSEL32?$AA@ 100fd5e0     Cc_sufu_common.obj
 0003:000eb5ec       ??_C@_0BC@DGOH@LB_RESETCONTENT32?$AA@ 100fd5ec     Cc_sufu_common.obj
 0003:000eb600       ??_C@_0BE@FOKC@LB_SELITEMRANGEEX32?$AA@ 100fd600     Cc_sufu_common.obj
 0003:000eb614       ??_C@_0BC@MHBK@LB_DELETESTRING32?$AA@ 100fd614     Cc_sufu_common.obj
 0003:000eb628       ??_C@_0BC@OKHC@LB_INSERTSTRING32?$AA@ 100fd628     Cc_sufu_common.obj
 0003:000eb63c       ??_C@_0P@BPPC@LB_ADDSTRING32?$AA@ 100fd63c     Cc_sufu_common.obj
 0003:000eb64c       ??_C@_0L@FIEC@STM_MSGMAX?$AA@ 100fd64c     Cc_sufu_common.obj
 0003:000eb658       ??_C@_0P@BIOB@STM_GETIMAGE32?$AA@ 100fd658     Cc_sufu_common.obj
 0003:000eb668       ??_C@_0P@NLMM@STM_SETIMAGE32?$AA@ 100fd668     Cc_sufu_common.obj
 0003:000eb678       ??_C@_0O@GBCK@STM_GETICON32?$AA@ 100fd678     Cc_sufu_common.obj
 0003:000eb688       ??_C@_0O@EMII@STM_SETICON32?$AA@ 100fd688     Cc_sufu_common.obj
 0003:000eb698       ??_C@_0BD@MMEJ@CB_GETCOMBOBOXINFO?$AA@ 100fd698     Cc_sufu_common.obj
 0003:000eb6ac       ??_C@_0BF@JFP@CB_MULTIPLEADDSTRING?$AA@ 100fd6ac     Cc_sufu_common.obj
 0003:000eb6c4       ??_C@_0BB@HBFC@CB_INITSTORAGE32?$AA@ 100fd6c4     Cc_sufu_common.obj
 0003:000eb6d8       ??_C@_0BF@ECDH@CB_SETDROPPEDWIDTH32?$AA@ 100fd6d8     Cc_sufu_common.obj
 0003:000eb6f0       ??_C@_0BF@NAKM@CB_GETDROPPEDWIDTH32?$AA@ 100fd6f0     Cc_sufu_common.obj
 0003:000eb708       ??_C@_0BJ@OEDM@CB_SETHORIZONTALEXTENT32?$AA@ 100fd708     Cc_sufu_common.obj
 0003:000eb724       ??_C@_0BJ@KBAM@CB_GETHORIZONTALEXTENT32?$AA@ 100fd724     Cc_sufu_common.obj
 0003:000eb740       ??_C@_0BB@LDEB@CB_SETTOPINDEX32?$AA@ 100fd740     Cc_sufu_common.obj
 0003:000eb754       ??_C@_0BB@OACI@CB_GETTOPINDEX32?$AA@ 100fd754     Cc_sufu_common.obj
 0003:000eb768       ??_C@_0P@FNLD@CB_GETLOCALE32?$AA@ 100fd768     Cc_sufu_common.obj
 0003:000eb778       ??_C@_0P@FPHA@CB_SETLOCALE32?$AA@ 100fd778     Cc_sufu_common.obj
 0003:000eb788       ??_C@_0BF@BIAD@CB_FINDSTRINGEXACT32?$AA@ 100fd788     Cc_sufu_common.obj
 0003:000eb7a0       ??_C@_0BF@PEJA@CB_GETDROPPEDSTATE32?$AA@ 100fd7a0     Cc_sufu_common.obj
 0003:000eb7b8       ??_C@_0BD@HCHE@CB_GETEXTENDEDUI32?$AA@ 100fd7b8     Cc_sufu_common.obj
 0003:000eb7cc       ??_C@_0BD@FCPA@CB_SETEXTENDEDUI32?$AA@ 100fd7cc     Cc_sufu_common.obj
 0003:000eb7e0       ??_C@_0BD@NEMI@CB_GETITEMHEIGHT32?$AA@ 100fd7e0     Cc_sufu_common.obj
 0003:000eb7f4       ??_C@_0BD@PEEM@CB_SETITEMHEIGHT32?$AA@ 100fd7f4     Cc_sufu_common.obj
 0003:000eb808       ??_C@_0BL@EJAO@CB_GETDROPPEDCONTROLRECT32?$AA@ 100fd808     Cc_sufu_common.obj
 0003:000eb824       ??_C@_0BB@JEMH@CB_SETITEMDATA32?$AA@ 100fd824     Cc_sufu_common.obj
 0003:000eb838       ??_C@_0BB@MHKO@CB_GETITEMDATA32?$AA@ 100fd838     Cc_sufu_common.obj
 0003:000eb84c       ??_C@_0BC@CLEK@CB_SHOWDROPDOWN32?$AA@ 100fd84c     Cc_sufu_common.obj
 0003:000eb860       ??_C@_0P@GGMN@CB_SETCURSEL32?$AA@ 100fd860     Cc_sufu_common.obj
 0003:000eb870       ??_C@_0BC@HLPA@CB_SELECTSTRING32?$AA@ 100fd870     Cc_sufu_common.obj
 0003:000eb884       ??_C@_0BA@FDPP@CB_FINDSTRING32?$AA@ 100fd884     Cc_sufu_common.obj
 0003:000eb894       ??_C@_0BC@FLAM@CB_RESETCONTENT32?$AA@ 100fd894     Cc_sufu_common.obj
 0003:000eb8a8       ??_C@_0BC@IHJJ@CB_INSERTSTRING32?$AA@ 100fd8a8     Cc_sufu_common.obj
 0003:000eb8bc       ??_C@_0BC@FJCM@CB_GETLBTEXTLEN32?$AA@ 100fd8bc     Cc_sufu_common.obj
 0003:000eb8d0       ??_C@_0P@DMDP@CB_GETLBTEXT32?$AA@ 100fd8d0     Cc_sufu_common.obj
 0003:000eb8e0       ??_C@_0P@GEAO@CB_GETCURSEL32?$AA@ 100fd8e0     Cc_sufu_common.obj
 0003:000eb8f0       ??_C@_0O@NLPJ@CB_GETCOUNT32?$AA@ 100fd8f0     Cc_sufu_common.obj
 0003:000eb900       ??_C@_08KECO@CB_DIR32?$AA@ 100fd900     Cc_sufu_common.obj
 0003:000eb90c       ??_C@_0BC@KKPB@CB_DELETESTRING32?$AA@ 100fd90c     Cc_sufu_common.obj
 0003:000eb920       ??_C@_0P@HMMP@CB_ADDSTRING32?$AA@ 100fd920     Cc_sufu_common.obj
 0003:000eb930       ??_C@_0BA@JIKF@CB_SETEDITSEL32?$AA@ 100fd930     Cc_sufu_common.obj
 0003:000eb940       ??_C@_0P@IEPC@CB_LIMITTEXT32?$AA@ 100fd940     Cc_sufu_common.obj
 0003:000eb950       ??_C@_0BA@PBKH@CB_GETEDITSEL32?$AA@ 100fd950     Cc_sufu_common.obj
 0003:000eb960       ??_C@_0BC@IELM@WM_CTLCOLORSTATIC?$AA@ 100fd960     Cc_sufu_common.obj
 0003:000eb974       ??_C@_0BF@CNIA@WM_CTLCOLORSCROLLBAR?$AA@ 100fd974     Cc_sufu_common.obj
 0003:000eb98c       ??_C@_0P@FLDC@WM_CTLCOLORDLG?$AA@ 100fd98c     Cc_sufu_common.obj
 0003:000eb99c       ??_C@_0P@JGJH@WM_CTLCOLORBTN?$AA@ 100fd99c     Cc_sufu_common.obj
 0003:000eb9ac       ??_C@_0BD@CBNP@WM_CTLCOLORLISTBOX?$AA@ 100fd9ac     Cc_sufu_common.obj
 0003:000eb9c0       ??_C@_0BA@LJPL@WM_CTLCOLOREDIT?$AA@ 100fd9c0     Cc_sufu_common.obj
 0003:000eb9d0       ??_C@_0BC@JPK@WM_CTLCOLORMSGBOX?$AA@ 100fd9d0     Cc_sufu_common.obj
 0003:000eb9e4       ??_C@_0BA@LFJO@WM_LBTRACKPOINT?$AA@ 100fd9e4     Cc_sufu_common.obj
 0003:000eb9f4       ??_C@_0BA@OHLP@WM_QUERYUISTATE?$AA@ 100fd9f4     Cc_sufu_common.obj
 0003:000eba04       ??_C@_0BB@MGDA@WM_UPDATEUISTATE?$AA@ 100fda04     Cc_sufu_common.obj
 0003:000eba18       ??_C@_0BB@HFMJ@WM_CHANGEUISTATE?$AA@ 100fda18     Cc_sufu_common.obj
 0003:000eba2c       ??_C@_0P@MIOK@WM_MENUCOMMAND?$AA@ 100fda2c     Cc_sufu_common.obj
 0003:000eba3c       ??_C@_0BD@EOJL@WM_UNINITMENUPOPUP?$AA@ 100fda3c     Cc_sufu_common.obj
 0003:000eba50       ??_C@_0BB@GOEG@WM_MENUGETOBJECT?$AA@ 100fda50     Cc_sufu_common.obj
 0003:000eba64       ??_C@_0M@EGEF@WM_MENUDRAG?$AA@ 100fda64     Cc_sufu_common.obj
 0003:000eba70       ??_C@_0BB@LNAH@WM_MENURBUTTONUP?$AA@ 100fda70     Cc_sufu_common.obj
 0003:000eba84       ??_C@_0N@MPP@WM_ENTERIDLE?$AA@ 100fda84     Cc_sufu_common.obj
 0003:000eba94       ??_C@_0M@LC@WM_MENUCHAR?$AA@ 100fda94     Cc_sufu_common.obj
 0003:000ebaa0       ??_C@_0O@FNCC@WM_MENUSELECT?$AA@ 100fdaa0     Cc_sufu_common.obj
 0003:000ebab0       ??_C@_0M@OALN@WM_SYSTIMER?$AA@ 100fdab0     Cc_sufu_common.obj
 0003:000ebabc       ??_C@_0BB@BMJA@WM_INITMENUPOPUP?$AA@ 100fdabc     Cc_sufu_common.obj
 0003:000ebad0       ??_C@_0M@JBDP@WM_INITMENU?$AA@ 100fdad0     Cc_sufu_common.obj
 0003:000ebadc       ??_C@_0L@OILE@WM_VSCROLL?$AA@ 100fdadc     Cc_sufu_common.obj
 0003:000ebae8       ??_C@_0L@JCDO@WM_HSCROLL?$AA@ 100fdae8     Cc_sufu_common.obj
 0003:000ebaf4       ??_C@_08CDFC@WM_TIMER?$AA@ 100fdaf4     Cc_sufu_common.obj
 0003:000ebb00       ??_C@_0O@PINB@WM_SYSCOMMAND?$AA@ 100fdb00     Cc_sufu_common.obj
 0003:000ebb10       ??_C@_0L@HFHL@WM_COMMAND?$AA@ 100fdb10     Cc_sufu_common.obj
 0003:000ebb1c       ??_C@_0O@DCCN@WM_INITDIALOG?$AA@ 100fdb1c     Cc_sufu_common.obj
 0003:000ebb2c       ??_C@_0BD@GMIL@WM_IME_COMPOSITION?$AA@ 100fdb2c     Cc_sufu_common.obj
 0003:000ebb40       ??_C@_0BG@EOCD@WM_IME_ENDCOMPOSITION?$AA@ 100fdb40     Cc_sufu_common.obj
 0003:000ebb58       ??_C@_0BI@CBHJ@WM_IME_STARTCOMPOSITION?$AA@ 100fdb58     Cc_sufu_common.obj
 0003:000ebb70       ??_C@_0L@ILM@WM_INTERIM?$AA@ 100fdb70     Cc_sufu_common.obj
 0003:000ebb7c       ??_C@_0BB@CDGD@WM_CONVERTRESULT?$AA@ 100fdb7c     Cc_sufu_common.obj
 0003:000ebb90       ??_C@_0BC@KCHD@WM_CONVERTREQUEST?$AA@ 100fdb90     Cc_sufu_common.obj
 0003:000ebba4       ??_C@_0L@NLLF@WM_UNICHAR?$AA@ 100fdba4     Cc_sufu_common.obj
 0003:000ebbb0       ??_C@_0M@LGGN@WM_YOMICHAR?$AA@ 100fdbb0     Cc_sufu_common.obj
 0003:000ebbbc       ??_C@_0P@OCHE@WM_SYSDEADCHAR?$AA@ 100fdbbc     Cc_sufu_common.obj
 0003:000ebbcc       ??_C@_0L@MNJP@WM_SYSCHAR?$AA@ 100fdbcc     Cc_sufu_common.obj
 0003:000ebbd8       ??_C@_0M@GKFH@WM_SYSKEYUP?$AA@ 100fdbd8     Cc_sufu_common.obj
 0003:000ebbe4       ??_C@_0O@DDDM@WM_SYSKEYDOWN?$AA@ 100fdbe4     Cc_sufu_common.obj
 0003:000ebbf4       ??_C@_0M@OOPJ@WM_DEADCHAR?$AA@ 100fdbf4     Cc_sufu_common.obj
 0003:000ebc00       ??_C@_07CCNO@WM_CHAR?$AA@  100fdc00     Cc_sufu_common.obj
 0003:000ebc08       ??_C@_08KJLI@WM_KEYUP?$AA@ 100fdc08     Cc_sufu_common.obj
 0003:000ebc14       ??_C@_0L@LOJG@WM_KEYDOWN?$AA@ 100fdc14     Cc_sufu_common.obj
 0003:000ebc20       ??_C@_08MEGL@WM_INPUT?$AA@ 100fdc20     Cc_sufu_common.obj
 0003:000ebc2c       ??_C@_0O@NLMA@BM_SETIMAGE32?$AA@ 100fdc2c     Cc_sufu_common.obj
 0003:000ebc3c       ??_C@_0O@BION@BM_GETIMAGE32?$AA@ 100fdc3c     Cc_sufu_common.obj
 0003:000ebc4c       ??_C@_0L@ILCN@BM_CLICK32?$AA@ 100fdc4c     Cc_sufu_common.obj
 0003:000ebc58       ??_C@_0O@DPKG@BM_SETSTYLE32?$AA@ 100fdc58     Cc_sufu_common.obj
 0003:000ebc68       ??_C@_0O@EDGI@BM_SETSTATE32?$AA@ 100fdc68     Cc_sufu_common.obj
 0003:000ebc78       ??_C@_0O@IAEF@BM_GETSTATE32?$AA@ 100fdc78     Cc_sufu_common.obj
 0003:000ebc88       ??_C@_0O@FIHJ@BM_SETCHECK32?$AA@ 100fdc88     Cc_sufu_common.obj
 0003:000ebc98       ??_C@_0O@JLFE@BM_GETCHECK32?$AA@ 100fdc98     Cc_sufu_common.obj
 0003:000ebca8       ??_C@_0BE@CDFP@SBM_GETSCROLLINFO32?$AA@ 100fdca8     Cc_sufu_common.obj
 0003:000ebcbc       ??_C@_0BE@DNL@SBM_SETSCROLLINFO32?$AA@ 100fdcbc     Cc_sufu_common.obj
 0003:000ebcd0       ??_C@_0BF@FOFA@SBM_SETRANGEREDRAW32?$AA@ 100fdcd0     Cc_sufu_common.obj
 0003:000ebce8       ??_C@_0BE@HAED@SBM_ENABLE_ARROWS32?$AA@ 100fdce8     Cc_sufu_common.obj
 0003:000ebcfc       ??_C@_0P@JNEL@SBM_GETRANGE32?$AA@ 100fdcfc     Cc_sufu_common.obj
 0003:000ebd0c       ??_C@_0P@FOGG@SBM_SETRANGE32?$AA@ 100fdd0c     Cc_sufu_common.obj
 0003:000ebd1c       ??_C@_0N@OAAH@SBM_GETPOS32?$AA@ 100fdd1c     Cc_sufu_common.obj
 0003:000ebd2c       ??_C@_0N@ECFE@SBM_SETPOS32?$AA@ 100fdd2c     Cc_sufu_common.obj
 0003:000ebd3c       ??_C@_09CCHI@EM_MSGMAX?$AA@ 100fdd3c     Cc_sufu_common.obj
 0003:000ebd48       ??_C@_0BA@DICJ@EM_GETIMESTATUS?$AA@ 100fdd48     Cc_sufu_common.obj
 0003:000ebd58       ??_C@_0BA@FBCL@EM_SETIMESTATUS?$AA@ 100fdd58     Cc_sufu_common.obj
 0003:000ebd68       ??_C@_0BB@NJBF@EM_CHARFROMPOS32?$AA@ 100fdd68     Cc_sufu_common.obj
 0003:000ebd7c       ??_C@_0BB@CMHC@EM_POSFROMCHAR32?$AA@ 100fdd7c     Cc_sufu_common.obj
 0003:000ebd90       ??_C@_0BC@EEAM@EM_GETLIMITTEXT32?$AA@ 100fdd90     Cc_sufu_common.obj
 0003:000ebda4       ??_C@_0BA@GEMI@EM_GETMARGINS32?$AA@ 100fdda4     Cc_sufu_common.obj
 0003:000ebdb4       ??_C@_0BA@NMK@EM_SETMARGINS32?$AA@ 100fddb4     Cc_sufu_common.obj
 0003:000ebdc4       ??_C@_0BF@GMNA@EM_GETPASSWORDCHAR32?$AA@ 100fddc4     Cc_sufu_common.obj
 0003:000ebddc       ??_C@_0BG@DDFA@EM_GETWORDBREAKPROC32?$AA@ 100fdddc     Cc_sufu_common.obj
 0003:000ebdf4       ??_C@_0BG@DLMC@EM_SETWORDBREAKPROC32?$AA@ 100fddf4     Cc_sufu_common.obj
 0003:000ebe0c       ??_C@_0BB@DKEM@EM_SETREADONLY32?$AA@ 100fde0c     Cc_sufu_common.obj
 0003:000ebe20       ??_C@_0BJ@FEEI@EM_GETFIRSTVISIBLELINE32?$AA@ 100fde20     Cc_sufu_common.obj
 0003:000ebe3c       ??_C@_0BF@PCGH@EM_EMPTYUNDOBUFFER32?$AA@ 100fde3c     Cc_sufu_common.obj
 0003:000ebe54       ??_C@_0BF@POEL@EM_SETPASSWORDCHAR32?$AA@ 100fde54     Cc_sufu_common.obj
 0003:000ebe6c       ??_C@_0BB@NMIH@EM_SETTABSTOPS32?$AA@ 100fde6c     Cc_sufu_common.obj
 0003:000ebe80       ??_C@_0BA@KODP@EM_SETWORDBREAK?$AA@ 100fde80     Cc_sufu_common.obj
 0003:000ebe90       ??_C@_0BC@DCPL@EM_LINEFROMCHAR32?$AA@ 100fde90     Cc_sufu_common.obj
 0003:000ebea4       ??_C@_0O@BHEF@EM_FMTLINES32?$AA@ 100fdea4     Cc_sufu_common.obj
 0003:000ebeb4       ??_C@_09PDNC@EM_UNDO32?$AA@ 100fdeb4     Cc_sufu_common.obj
 0003:000ebec0       ??_C@_0N@BCFF@EM_CANUNDO32?$AA@ 100fdec0     Cc_sufu_common.obj
 0003:000ebed0       ??_C@_0P@HIHL@EM_LIMITTEXT32?$AA@ 100fded0     Cc_sufu_common.obj
 0003:000ebee0       ??_C@_0BH@LGEK@EM_SETFONTEM_GETLINE32?$AA@ 100fdee0     Cc_sufu_common.obj
 0003:000ebef8       ??_C@_0BA@HIAD@EM_REPLACESEL32?$AA@ 100fdef8     Cc_sufu_common.obj
 0003:000ebf08       ??_C@_0BA@EOOG@EM_LINELENGTH32?$AA@ 100fdf08     Cc_sufu_common.obj
 0003:000ebf18       ??_C@_0O@DIGN@EM_GETTHUMB32?$AA@ 100fdf18     Cc_sufu_common.obj
 0003:000ebf28       ??_C@_0P@FMMB@EM_GETHANDLE32?$AA@ 100fdf28     Cc_sufu_common.obj
 0003:000ebf38       ??_C@_0P@FOAC@EM_SETHANDLE32?$AA@ 100fdf38     Cc_sufu_common.obj
 0003:000ebf48       ??_C@_0P@DNHL@EM_LINEINDEX32?$AA@ 100fdf48     Cc_sufu_common.obj
 0003:000ebf58       ??_C@_0BC@ICND@EM_GETLINECOUNT32?$AA@ 100fdf58     Cc_sufu_common.obj
 0003:000ebf6c       ??_C@_0P@JLCM@EM_SETMODIFY32?$AA@ 100fdf6c     Cc_sufu_common.obj
 0003:000ebf7c       ??_C@_0P@JJOP@EM_GETMODIFY32?$AA@ 100fdf7c     Cc_sufu_common.obj
 0003:000ebf8c       ??_C@_0BB@PNPP@EM_SCROLLCARET32?$AA@ 100fdf8c     Cc_sufu_common.obj
 0003:000ebfa0       ??_C@_0BA@FIN@EM_LINESCROLL32?$AA@ 100fdfa0     Cc_sufu_common.obj
 0003:000ebfb0       ??_C@_0M@FMLP@EM_SCROLL32?$AA@ 100fdfb0     Cc_sufu_common.obj
 0003:000ebfbc       ??_C@_0P@KKGC@EM_SETRECTNP32?$AA@ 100fdfbc     Cc_sufu_common.obj
 0003:000ebfcc       ??_C@_0N@GCMO@EM_SETRECT32?$AA@ 100fdfcc     Cc_sufu_common.obj
 0003:000ebfdc       ??_C@_0N@EPGM@EM_GETRECT32?$AA@ 100fdfdc     Cc_sufu_common.obj
 0003:000ebfec       ??_C@_0M@EKCK@EM_SETSEL32?$AA@ 100fdfec     Cc_sufu_common.obj
 0003:000ebff8       ??_C@_0M@OIHJ@EM_GETSEL32?$AA@ 100fdff8     Cc_sufu_common.obj
 0003:000ec004       ??_C@_0BC@DCKA@WM_NCUAHDRAWFRAME?$AA@ 100fe004     Cc_sufu_common.obj
 0003:000ec018       ??_C@_0BE@OLDA@WM_NCUAHDRAWCAPTION?$AA@ 100fe018     Cc_sufu_common.obj
 0003:000ec02c       ??_C@_0BD@HIN@WM_NCXBUTTONDBLCLK?$AA@ 100fe02c     Cc_sufu_common.obj
 0003:000ec040       ??_C@_0P@GDCF@WM_NCXBUTTONUP?$AA@ 100fe040     Cc_sufu_common.obj
 0003:000ec050       ??_C@_0BB@MHFD@WM_NCXBUTTONDOWN?$AA@ 100fe050     Cc_sufu_common.obj
 0003:000ec064       ??_C@_0BD@FIJ@WM_NCMBUTTONDBLCLK?$AA@ 100fe064     Cc_sufu_common.obj
 0003:000ec078       ??_C@_0P@IMMP@WM_NCMBUTTONUP?$AA@ 100fe078     Cc_sufu_common.obj
 0003:000ec088       ??_C@_0BB@CPBP@WM_NCMBUTTONDOWN?$AA@ 100fe088     Cc_sufu_common.obj
 0003:000ec09c       ??_C@_0BD@CODJ@WM_NCRBUTTONDBLCLK?$AA@ 100fe09c     Cc_sufu_common.obj
 0003:000ec0b0       ??_C@_0P@PFPE@WM_NCRBUTTONUP?$AA@ 100fe0b0     Cc_sufu_common.obj
 0003:000ec0c0       ??_C@_0BB@EGDC@WM_NCRBUTTONDOWN?$AA@ 100fe0c0     Cc_sufu_common.obj
 0003:000ec0d4       ??_C@_0BD@FEOE@WM_NCLBUTTONDBLCLK?$AA@ 100fe0d4     Cc_sufu_common.obj
 0003:000ec0e8       ??_C@_0P@EOIH@WM_NCLBUTTONUP?$AA@ 100fe0e8     Cc_sufu_common.obj
 0003:000ec0f8       ??_C@_0BB@MFJA@WM_NCLBUTTONDOWN?$AA@ 100fe0f8     Cc_sufu_common.obj
 0003:000ec10c       ??_C@_0P@GFMJ@WM_NCMOUSEMOVE?$AA@ 100fe10c     Cc_sufu_common.obj
 0003:000ec11c       ??_C@_0BE@NPED@WM_LPKDRAWSWITCHWND?$AA@ 100fe11c     Cc_sufu_common.obj
 0003:000ec130       ??_C@_0BB@LMM@WM_KLUDGEMINRECT?$AA@ 100fe130     Cc_sufu_common.obj
 0003:000ec144       ??_C@_0M@OLHM@WM_SYNCTASK?$AA@ 100fe144     Cc_sufu_common.obj
 0003:000ec150       ??_C@_0N@KMGA@WM_SYNCPAINT?$AA@ 100fe150     Cc_sufu_common.obj
 0003:000ec160       ??_C@_0O@HBJG@WM_GETDLGCODE?$AA@ 100fe160     Cc_sufu_common.obj
 0003:000ec170       ??_C@_0O@OLMF@WM_NCACTIVATE?$AA@ 100fe170     Cc_sufu_common.obj
 0003:000ec180       ??_C@_0L@MLEG@WM_NCPAINT?$AA@ 100fe180     Cc_sufu_common.obj
 0003:000ec18c       ??_C@_0N@ENIL@WM_NCHITTEST?$AA@ 100fe18c     Cc_sufu_common.obj
 0003:000ec19c       ??_C@_0O@HCNE@WM_NCCALCSIZE?$AA@ 100fe19c     Cc_sufu_common.obj
 0003:000ec1ac       ??_C@_0N@FGCE@WM_NCDESTROY?$AA@ 100fe1ac     Cc_sufu_common.obj
 0003:000ec1bc       ??_C@_0M@PGBE@WM_NCCREATE?$AA@ 100fe1bc     Cc_sufu_common.obj
 0003:000ec1c8       ??_C@_0L@JPGD@WM_SETICON?$AA@ 100fe1c8     Cc_sufu_common.obj
 0003:000ec1d4       ??_C@_0L@MMGP@WM_GETICON?$AA@ 100fe1d4     Cc_sufu_common.obj
 0003:000ec1e0       ??_C@_0BB@DEEK@WM_DISPLAYCHANGE?$AA@ 100fe1e0     Cc_sufu_common.obj
 0003:000ec1f4       ??_C@_0BA@OFOA@WM_STYLECHANGED?$AA@ 100fe1f4     Cc_sufu_common.obj
 0003:000ec204       ??_C@_0BB@DICO@WM_STYLECHANGING?$AA@ 100fe204     Cc_sufu_common.obj
 0003:000ec218       ??_C@_0P@HHPE@WM_CONTEXTMENU?$AA@ 100fe218     Cc_sufu_common.obj
 0003:000ec228       ??_C@_0BB@LHCJ@WM_SETCURSORINFO?$AA@ 100fe228     Cc_sufu_common.obj
 0003:000ec23c       ??_C@_0BC@IGOL@WM_TASKNOTVISIBLE?$AA@ 100fe23c     Cc_sufu_common.obj
 0003:000ec250       ??_C@_0P@EIHH@WM_TASKVISIBLE?$AA@ 100fe250     Cc_sufu_common.obj
 0003:000ec260       ??_C@_0BB@NDC@WM_TASKUICHANGED?$AA@ 100fe260     Cc_sufu_common.obj
 0003:000ec274       ??_C@_0BB@FICP@WM_TASKDESTROYED?$AA@ 100fe274     Cc_sufu_common.obj
 0003:000ec288       ??_C@_0P@FAGD@WM_TASKCREATED?$AA@ 100fe288     Cc_sufu_common.obj
 0003:000ec298       ??_C@_0BD@LDKB@WM_TASKDEACTIVATED?$AA@ 100fe298     Cc_sufu_common.obj
 0003:000ec2ac       ??_C@_0BB@CBHL@WM_TASKACTIVATED?$AA@ 100fe2ac     Cc_sufu_common.obj
 0003:000ec2c0       ??_C@_0BK@FMMG@WM_MEASUREITEM_CLIENTDATA?$AA@ 100fe2c0     Cc_sufu_common.obj
 0003:000ec2dc       ??_C@_0BA@FAMF@WM_FINALDESTROY?$AA@ 100fe2dc     Cc_sufu_common.obj
 0003:000ec2ec       ??_C@_0BA@GMNP@WM_NOTIFYFORMAT?$AA@ 100fe2ec     Cc_sufu_common.obj
 0003:000ec2fc       ??_C@_0P@CAGE@WM_USERCHANGED?$AA@ 100fe2fc     Cc_sufu_common.obj
 0003:000ec30c       ??_C@_07EBDL@WM_HELP?$AA@  100fe30c     Cc_sufu_common.obj
 0003:000ec314       ??_C@_08MGHH@WM_TCARD?$AA@ 100fe314     Cc_sufu_common.obj
 0003:000ec320       ??_C@_0BD@DEHG@WM_INPUTLANGCHANGE?$AA@ 100fe320     Cc_sufu_common.obj
 0003:000ec334       ??_C@_0BK@DLLH@WM_INPUTLANGCHANGEREQUEST?$AA@ 100fe334     Cc_sufu_common.obj
 0003:000ec350       ??_C@_0BB@PNOL@WM_ACCESS_WINDOW?$AA@ 100fe350     Cc_sufu_common.obj
 0003:000ec364       ??_C@_09GCP@WM_NOTIFY?$AA@ 100fe364     Cc_sufu_common.obj
 0003:000ec370       ??_C@_08KFFJ@WM_KEYF1?$AA@ 100fe370     Cc_sufu_common.obj
 0003:000ec37c       ??_C@_0P@HHLP@WM_LOGONNOTIFY?$AA@ 100fe37c     Cc_sufu_common.obj
 0003:000ec38c       ??_C@_0BB@DFAL@WM_CANCELJOURNAL?$AA@ 100fe38c     Cc_sufu_common.obj
 0003:000ec3a0       ??_C@_0M@JLKG@WM_COPYDATA?$AA@ 100fe3a0     Cc_sufu_common.obj
 0003:000ec3ac       ??_C@_0BC@GNOK@WM_COPYGLOBALDATA?$AA@ 100fe3ac     Cc_sufu_common.obj
 0003:000ec3c0       ??_C@_08GJNJ@WM_POWER?$AA@ 100fe3c0     Cc_sufu_common.obj
 0003:000ec3cc       ??_C@_0BE@MHJM@WM_WINDOWPOSCHANGED?$AA@ 100fe3cc     Cc_sufu_common.obj
 0003:000ec3e0       ??_C@_0BF@LNAM@WM_WINDOWPOSCHANGING?$AA@ 100fe3e0     Cc_sufu_common.obj
 0003:000ec3f8       ??_C@_0BF@EMOL@WM_MEDIASTATUSCHANGE?$AA@ 100fe3f8     Cc_sufu_common.obj
 0003:000ec410       ??_C@_0O@BKIG@WM_COMMNOTIFY?$AA@ 100fe410     Cc_sufu_common.obj
 0003:000ec420       ??_C@_0BI@CD@WM_OTHERWINDOWDESTROYED?$AA@ 100fe420     Cc_sufu_common.obj
 0003:000ec438       ??_C@_0BG@KBMC@WM_OTHERWINDOWCREATED?$AA@ 100fe438     Cc_sufu_common.obj
 0003:000ec450       ??_C@_0O@GAIC@WM_COMPACTING?$AA@ 100fe450     Cc_sufu_common.obj
 0003:000ec460       ??_C@_0L@CFMH@WM_TESTING?$AA@ 100fe460     Cc_sufu_common.obj
 0003:000ec46c       ??_C@_0O@OJDE@WM_CALCSCROLL?$AA@ 100fe46c     Cc_sufu_common.obj
 0003:000ec47c       ??_C@_0N@HPHK@WM_GETOBJECT?$AA@ 100fe47c     Cc_sufu_common.obj
 0003:000ec48c       ??_C@_0O@LJGI@WM_DDEMLEVENT?$AA@ 100fe48c     Cc_sufu_common.obj
 0003:000ec49c       ??_C@_0BC@FANI@WM_CLIENTSHUTDOWN?$AA@ 100fe49c     Cc_sufu_common.obj
 0003:000ec4b0       ??_C@_0O@LFA@WM_FULLSCREEN?$AA@ 100fe4b0     Cc_sufu_common.obj
 0003:000ec4c0       ??_C@_0P@BKKG@WM_COMPAREITEM?$AA@ 100fe4c0     Cc_sufu_common.obj
 0003:000ec4d0       ??_C@_0L@GNOB@WM_WINHELP?$AA@ 100fe4d0     Cc_sufu_common.obj
 0003:000ec4dc       ??_C@_0BB@IMIB@WM_QUERYDRAGICON?$AA@ 100fe4dc     Cc_sufu_common.obj
 0003:000ec4f0       ??_C@_0BB@NBGL@WM_QUERYPARKICON?$AA@ 100fe4f0     Cc_sufu_common.obj
 0003:000ec504       ??_C@_0BA@HIN@WM_ISACTIVEICON?$AA@ 100fe504     Cc_sufu_common.obj
 0003:000ec514       ??_C@_0BB@CAHD@WM_FILESYSCHANGE?$AA@ 100fe514     Cc_sufu_common.obj
 0003:000ec528       ??_C@_0N@EJJD@WM_GETHOTKEY?$AA@ 100fe528     Cc_sufu_common.obj
 0003:000ec538       ??_C@_0N@GEDB@WM_SETHOTKEY?$AA@ 100fe538     Cc_sufu_common.obj
 0003:000ec548       ??_C@_0L@HKOC@WM_GETFONT?$AA@ 100fe548     Cc_sufu_common.obj
 0003:000ec554       ??_C@_0L@CJOO@WM_SETFONT?$AA@ 100fe554     Cc_sufu_common.obj
 0003:000ec560       ??_C@_0O@OAAH@WM_CHARTOITEM?$AA@ 100fe560     Cc_sufu_common.obj
 0003:000ec570       ??_C@_0O@MNJJ@WM_VKEYTOITEM?$AA@ 100fe570     Cc_sufu_common.obj
 0003:000ec580       ??_C@_0O@NOFD@WM_DELETEITEM?$AA@ 100fe580     Cc_sufu_common.obj
 0003:000ec590       ??_C@_0P@MAHA@WM_MEASUREITEM?$AA@ 100fe590     Cc_sufu_common.obj
 0003:000ec5a0       ??_C@_0M@EHEH@WM_DRAWITEM?$AA@ 100fe5a0     Cc_sufu_common.obj
 0003:000ec5ac       ??_C@_0BB@MJAK@WM_SPOOLERSTATUS?$AA@ 100fe5ac     Cc_sufu_common.obj
 0003:000ec5c0       ??_C@_0BA@CANH@WM_ALTTABACTIVE?$AA@ 100fe5c0     Cc_sufu_common.obj
 0003:000ec5d0       ??_C@_0O@JNLH@WM_NEXTDLGCTL?$AA@ 100fe5d0     Cc_sufu_common.obj
 0003:000ec5e0       ??_C@_0BC@KHMF@WM_ICONERASEBKGND?$AA@ 100fe5e0     Cc_sufu_common.obj
 0003:000ec5f4       ??_C@_0N@KODN@WM_PAINTICON?$AA@ 100fe5f4     Cc_sufu_common.obj
 0003:000ec604       ??_C@_09FDOC@WM_LOGOFF?$AA@ 100fe604     Cc_sufu_common.obj
 0003:000ec610       ??_C@_0BB@INDA@WM_GETMINMAXINFO?$AA@ 100fe610     Cc_sufu_common.obj
 0003:000ec624       ??_C@_0N@IJHA@WM_QUEUESYNC?$AA@ 100fe624     Cc_sufu_common.obj
 0003:000ec634       ??_C@_0BB@GLME@WM_CHILDACTIVATE?$AA@ 100fe634     Cc_sufu_common.obj
 0003:000ec648       ??_C@_0BB@LPNO@WM_MOUSEACTIVATE?$AA@ 100fe648     Cc_sufu_common.obj
 0003:000ec65c       ??_C@_0N@GJNG@WM_SETCURSOR?$AA@ 100fe65c     Cc_sufu_common.obj
 0003:000ec66c       ??_C@_0O@PBAP@WM_CANCELMODE?$AA@ 100fe66c     Cc_sufu_common.obj
 0003:000ec67c       ??_C@_0O@KEEP@WM_TIMECHANGE?$AA@ 100fe67c     Cc_sufu_common.obj
 0003:000ec68c       ??_C@_0O@NFOD@WM_FONTCHANGE?$AA@ 100fe68c     Cc_sufu_common.obj
 0003:000ec69c       ??_C@_0P@MIOO@WM_ACTIVATEAPP?$AA@ 100fe69c     Cc_sufu_common.obj
 0003:000ec6ac       ??_C@_0BB@JHBE@WM_DEVMODECHANGE?$AA@ 100fe6ac     Cc_sufu_common.obj
 0003:000ec6c0       ??_C@_0BA@OBFL@WM_WININICHANGE?$AA@ 100fe6c0     Cc_sufu_common.obj
 0003:000ec6d0       ??_C@_0M@OKAN@WM_CTLCOLOR?$AA@ 100fe6d0     Cc_sufu_common.obj
 0003:000ec6dc       ??_C@_0O@OMHP@WM_SHOWWINDOW?$AA@ 100fe6dc     Cc_sufu_common.obj
 0003:000ec6ec       ??_C@_0P@JMBD@WM_SYSTEMERROR?$AA@ 100fe6ec     Cc_sufu_common.obj
 0003:000ec6fc       ??_C@_0O@LOEN@WM_ENDSESSION?$AA@ 100fe6fc     Cc_sufu_common.obj
 0003:000ec70c       ??_C@_0BC@FPLF@WM_SYSCOLORCHANGE?$AA@ 100fe70c     Cc_sufu_common.obj
 0003:000ec720       ??_C@_0O@FPAF@WM_ERASEBKGND?$AA@ 100fe720     Cc_sufu_common.obj
 0003:000ec730       ??_C@_0N@BAHI@WM_QUERYOPEN?$AA@ 100fe730     Cc_sufu_common.obj
 0003:000ec740       ??_C@_07NMOO@WM_QUIT?$AA@  100fe740     Cc_sufu_common.obj
 0003:000ec748       ??_C@_0BD@PEGN@WM_QUERYENDSESSION?$AA@ 100fe748     Cc_sufu_common.obj
 0003:000ec75c       ??_C@_08LEAJ@WM_CLOSE?$AA@ 100fe75c     Cc_sufu_common.obj
 0003:000ec768       ??_C@_08LANE@WM_PAINT?$AA@ 100fe768     Cc_sufu_common.obj
 0003:000ec774       ??_C@_0BB@HNCD@WM_GETTEXTLENGTH?$AA@ 100fe774     Cc_sufu_common.obj
 0003:000ec788       ??_C@_0L@EMKJ@WM_GETTEXT?$AA@ 100fe788     Cc_sufu_common.obj
 0003:000ec794       ??_C@_0L@BPKF@WM_SETTEXT?$AA@ 100fe794     Cc_sufu_common.obj
 0003:000ec7a0       ??_C@_0N@LOJK@WM_SETREDRAW?$AA@ 100fe7a0     Cc_sufu_common.obj
 0003:000ec7b0       ??_C@_09PJML@WM_ENABLE?$AA@ 100fe7b0     Cc_sufu_common.obj
 0003:000ec7bc       ??_C@_0O@BILD@WM_SETVISIBLE?$AA@ 100fe7bc     Cc_sufu_common.obj
 0003:000ec7cc       ??_C@_0N@LCIJ@WM_KILLFOCUS?$AA@ 100fe7cc     Cc_sufu_common.obj
 0003:000ec7dc       ??_C@_0M@OHD@WM_SETFOCUS?$AA@ 100fe7dc     Cc_sufu_common.obj
 0003:000ec7e8       ??_C@_0M@CEAM@WM_ACTIVATE?$AA@ 100fe7e8     Cc_sufu_common.obj
 0003:000ec7f4       ??_C@_07DNHO@WM_SIZE?$AA@  100fe7f4     Cc_sufu_common.obj
 0003:000ec7fc       ??_C@_0M@PLAI@WM_SIZEWAIT?$AA@ 100fe7fc     Cc_sufu_common.obj
 0003:000ec808       ??_C@_07JOKK@WM_MOVE?$AA@  100fe808     Cc_sufu_common.obj
 0003:000ec810       ??_C@_0L@JPGJ@WM_DESTROY?$AA@ 100fe810     Cc_sufu_common.obj
 0003:000ec81c       ??_C@_09LLGP@WM_CREATE?$AA@ 100fe81c     Cc_sufu_common.obj
 0003:000ec828       ??_C@_07OICJ@WM_NULL?$AA@  100fe828     Cc_sufu_common.obj
 0003:000ec830       ??_C@_07NAGK@Title?56?$AA@ 100fe830     CC_VTCLK.OBJ
 0003:000ec838       ??_C@_07CPND@Title?55?$AA@ 100fe838     CC_VTCLK.OBJ
 0003:000ec840       ??_C@_02BOAK@45?$AA@       100fe840     CC_VTCLK.OBJ
 0003:000ec844       ??_C@_02HPJE@30?$AA@       100fe844     CC_VTCLK.OBJ
 0003:000ec848       ??_C@_02FCAK@15?$AA@       100fe848     CC_VTCLK.OBJ
 0003:000ec84c       ??_C@_02ONBL@0?5?$AA@      100fe84c     CC_VTCLK.OBJ
 0003:000ec850       ??_C@_00A@?$AA@            100fe850     bncs_cc02_qt.obj
 0003:000ec858       ?metaObj@bncs_cc02_edit@@0PAVQMetaObject@@A 100fe858     moc_bncs_cc02_edit.obj
 0003:000ec860       ?metaObj@bncs_cc02_editImpl@@0PAVQMetaObject@@A 100fe860     moc_bncs_cc02_editimpl.obj
 0003:000ec870       ?metaObj@bncs_cc02_qt@@0PAVQMetaObject@@A 100fe870     moc_bncs_cc02_qt.obj
 0003:000ec888       _hWndMain                  100fe888     BNCS_CC02.obj
 0003:000ec88c       _hLibData                  100fe88c     BNCS_CC02.obj
 0003:000ec890       _hLibInstance              100fe890     BNCS_CC02.obj
 0003:000ec898       _lf                        100fe898     BNCS_CC02.obj
 0003:000ec8e4       ?pHtmlHelpW@@3P6GPAUHWND__@@PAU1@PBGIK@ZA 100fe8e4     htmlhelp:init.obj
 0003:000ec8e8       ?pHtmlHelpA@@3P6GPAUHWND__@@PAU1@PBDIK@ZA 100fe8e8     htmlhelp:init.obj
 0003:000ec8f0       _hCapture                  100fe8f0     <common>
 0003:000ec8f4       _iLastpresetY              100fe8f4     <common>
 0003:000ec8f8       _iLastpresetX              100fe8f8     <common>
 0003:000ec8fc       _iCapture                  100fe8fc     <common>
 0003:000ec900       __adjust_fdiv              100fe900     <common>
 0003:000ec904       __pRawDllMain              100fe904     <common>
 0003:000ec908       ___onexitend               100fe908     <common>
 0003:000ec90c       ___onexitbegin             100fe90c     <common>

 entry point at        0001:0000580f

 Static symbols

 0001:00003ec4       _GetMemLongValue           10004ec4 f   CC_VTCLK.OBJ
 0001:00002861       _SetMemLongValue           10003861 f   CC_COMPS.OBJ
 0001:00003ec4       _GetMemLongValue           10004ec4 f   CC_VTCLK.OBJ
 0001:00002861       _SetMemLongValue           10003861 f   CC_COMPS.OBJ
 0001:00003ec4       _GetMemLongValue           10004ec4 f   CC_VTCLK.OBJ
 0001:00002861       _SetMemLongValue           10003861 f   CC_COMPS.OBJ
 0001:00001fbb       _$E106                     10002fbb f   moc_bncs_cc02_qt.obj
 0001:00001fc5       _$E103                     10002fc5 f   moc_bncs_cc02_qt.obj
 0001:00001fdb       _$E105                     10002fdb f   moc_bncs_cc02_qt.obj
 0001:00001fe7       _$E104                     10002fe7 f   moc_bncs_cc02_qt.obj
 0001:00001ea5       _$E102                     10002ea5 f   moc_bncs_cc02_editimpl.obj
 0001:00001eaf       _$E99                      10002eaf f   moc_bncs_cc02_editimpl.obj
 0001:00001ec5       _$E101                     10002ec5 f   moc_bncs_cc02_editimpl.obj
 0001:00001ed1       _$E100                     10002ed1 f   moc_bncs_cc02_editimpl.obj
 0001:00001d46       _$E101                     10002d46 f   moc_bncs_cc02_edit.obj
 0001:00001d50       _$E98                      10002d50 f   moc_bncs_cc02_edit.obj
 0001:00001d66       _$E100                     10002d66 f   moc_bncs_cc02_edit.obj
 0001:00001d72       _$E99                      10002d72 f   moc_bncs_cc02_edit.obj
 0001:00004c54       ?GetRegisteredLocation@@YGHPAD@Z 10005c54 f   htmlhelp:init.obj
 0001:00005664       ?ArrayUnwindFilter@@YAHPAU_EXCEPTION_POINTERS@@@Z 10006664 f   MSVCRT:ehvecdtr.obj

 129 bytes saved through ICF

