 bncs_ssmart

 Timestamp is 56ddfef2 (Mon Mar 07 22:21:38 2016)

 Preferred load address is 10000000

 Start         Length     Name                   Class
 0001:00000000 000b87aeH .text                   CODE
 0001:000b87b0 00017fdbH .text$x                 CODE
 0002:00000000 000029dcH .idata$5                DATA
 0002:000029e0 00017efcH .rdata                  DATA
 0002:0001a8e0 00004fa4H .rdata$r                DATA
 0002:0001f888 00018bb0H .xdata$x                DATA
 0002:00038438 00000154H .idata$2                DATA
 0002:0003858c 00000014H .idata$3                DATA
 0002:000385a0 000029dcH .idata$4                DATA
 0002:0003af7c 0001af64H .idata$6                DATA
 0002:00055ee0 000119daH .edata                  DATA
 0003:00000000 00000004H .CRT$XCA                DATA
 0003:00000004 00000188H .CRT$XCU                DATA
 0003:0000018c 00000004H .CRT$XCZ                DATA
 0003:00000190 00000004H .CRT$XIA                DATA
 0003:00000194 00000004H .CRT$XIZ                DATA
 0003:000001a0 0002e860H .data                   DATA
 0003:0002ea00 000007d0H .bss                    DATA
 0004:00000000 00000058H .rsrc$01                DATA
 0004:00000060 000004a0H .rsrc$02                DATA

  Address         Publics by Value              Rva+Base     Lib:Object

 0001:00000000       ?metaObject@bncs_control@@UBEPAVQMetaObject@@XZ 10001000 f i bncs_data_button.obj
 0001:00000005       ??0bncs_control@@QAE@ABV0@@Z 10001005 f i bncs_data_button.obj
 0001:0000003c       ??4bncs_control@@QAEAAV0@ABV0@@Z 1000103c f i bncs_data_button.obj
 0001:00000058       ??_Fbncs_control@@QAEXXZ   10001058 f i bncs_data_button.obj
 0001:00000063       ??_Ebncs_control@@UAEPAXI@Z 10001063 f i bncs_data_button.obj
 0001:000000ae       ?metaObject@bncs_data_button@@UBEPAVQMetaObject@@XZ 100010ae f i bncs_data_button.obj
 0001:000000b3       ??0bncs_data_button@@QAE@ABV0@@Z 100010b3 f i bncs_data_button.obj
 0001:00000172       ??4bncs_data_button@@QAEAAV0@ABV0@@Z 10001172 f i bncs_data_button.obj
 0001:000001fc       ??_Fbncs_data_button@@QAEXXZ 100011fc f i bncs_data_button.obj
 0001:00000207       ??_Ebncs_data_button@@UAEPAXI@Z 10001207 f i bncs_data_button.obj
 0001:00000255       ??0extraPixmaps@@QAE@XZ    10001255 f i bncs_data_button.obj
 0001:0000027f       ??1extraPixmaps@@UAE@XZ    1000127f f i bncs_data_button.obj
 0001:000002ba       ?posToString@extraPixmaps@@SA?AVQString@@H@Z 100012ba f i bncs_data_button.obj
 0001:00000347       ?stringToPos@extraPixmaps@@SAHABVQString@@@Z 10001347 f i bncs_data_button.obj
 0001:0000054e       ?isNull@extraPixmaps@@QAE_NXZ 1000154e f i bncs_data_button.obj
 0001:00000567       ??0extraPixmaps@@QAE@ABV0@@Z 10001567 f i bncs_data_button.obj
 0001:00000590       ??4extraPixmaps@@QAEAAV0@ABV0@@Z 10001590 f i bncs_data_button.obj
 0001:000005c1       ??_EextraPixmaps@@UAEPAXI@Z 100015c1 f i bncs_data_button.obj
 0001:0000060c       ??0bncs_control_funcs@@QAE@ABV0@@Z 1000160c f i bncs_data_button.obj
 0001:00000810       ??4bncs_control_funcs@@QAEAAV0@ABV0@@Z 10001810 f i bncs_data_button.obj
 0001:000009c0       ??_Ebncs_control_funcs@@UAEPAXI@Z 100019c0 f i bncs_data_button.obj
 0001:00000a66       ??0bncs_data_button@@QAE@PAVQWidget@@PBDI@Z 10001a66 f   bncs_data_button.obj
 0001:00000bba       ??_GQTimer@@UAEPAXI@Z      10001bba f i bncs_data_button.obj
 0001:00000bba       ??_EQTimer@@UAEPAXI@Z      10001bba f i bncs_data_button.obj
 0001:00000bd7       ??1bncs_data_button@@UAE@XZ 10001bd7 f   bncs_data_button.obj
 0001:00000c6b       ?edit@bncs_data_button@@QAEXPA_N0@Z 10001c6b f   bncs_data_button.obj
 0001:00000d86       ?editAccepted@bncs_data_button@@IAEXABVbncs_data_button_edit@@@Z 10001d86 f   bncs_data_button.obj
 0001:0000120e       ?setCaption@bncs_data_button@@UAEXABVQString@@@Z 1000220e f   bncs_data_button.obj
 0001:00002120       ?setDefault@bncs_data_button@@IAEXXZ 10003120 f   bncs_data_button.obj
 0001:000021eb       ?applyChanges@bncs_data_button@@IAEXXZ 100031eb f   bncs_data_button.obj
 0001:00002206       ?load@bncs_data_button@@IAEXXZ 10003206 f   bncs_data_button.obj
 0001:0000254a       ?connectDatabase@bncs_data_button@@IAEXXZ 1000354a f   bncs_data_button.obj
 0001:00002763       ?save@bncs_data_button@@IAEXABVQString@@@Z 10003763 f   bncs_data_button.obj
 0001:00002b7f       ?updateOrInsert@bncs_data_button@@IAEXAAVQSqlQuery@@ABVQString@@@Z 10003b7f f   bncs_data_button.obj
 0001:00002e2d       ??_Ebncs_data_button@@WCI@AEPAXI@Z 10003e2d f i bncs_data_button.obj
 0001:00002e35       ??_Ebncs_control@@WCI@AEPAXI@Z 10003e35 f i bncs_data_button.obj
 0001:00002e3d       ??0bncs_hbox@@QAE@PAVQWidget@@PBD@Z 10003e3d f   bncs_hbox.obj
 0001:00002eac       ??_Ebncs_hbox@@UAEPAXI@Z   10003eac f i bncs_hbox.obj
 0001:00002eac       ??_Gbncs_hbox@@UAEPAXI@Z   10003eac f i bncs_hbox.obj
 0001:00002ec8       ??1bncs_hbox@@UAE@XZ       10003ec8 f   bncs_hbox.obj
 0001:00002edb       ?paintEvent@bncs_hbox@@UAEXPAVQPaintEvent@@@Z 10003edb f   bncs_hbox.obj
 0001:00002f77       ?setCaption@bncs_hbox@@UAEXABVQString@@@Z 10003f77 f   bncs_hbox.obj
 0001:000030bd       ??0?$QMap@VQString@@Vstyleentry@@@@QAE@XZ 100040bd f i bncs_hbox.obj
 0001:000030f7       ??1?$QMap@VQString@@Vstyleentry@@@@QAE@XZ 100040f7 f i bncs_hbox.obj
 0001:00003114       ?begin@?$QMap@VQString@@Vstyleentry@@@@QAE?AV?$QMapIterator@VQString@@Vstyleentry@@@@XZ 10004114 f i bncs_hbox.obj
 0001:00003134       ?end@?$QMap@VQString@@Vstyleentry@@@@QAE?AV?$QMapIterator@VQString@@Vstyleentry@@@@XZ 10004134 f i bncs_hbox.obj
 0001:00003152       ?replace@?$QMap@VQString@@Vstyleentry@@@@QAE?AV?$QMapIterator@VQString@@Vstyleentry@@@@ABVQString@@ABVstyleentry@@@Z 10004152 f i bncs_hbox.obj
 0001:0000317a       ?remove@?$QMap@VQString@@Vstyleentry@@@@QAEXV?$QMapIterator@VQString@@Vstyleentry@@@@@Z 1000417a f i bncs_hbox.obj
 0001:0000317a       ?erase@?$QMap@VQString@@Vstyleentry@@@@QAEXV?$QMapIterator@VQString@@Vstyleentry@@@@@Z 1000417a f i bncs_hbox.obj
 0001:0000319d       ?find@?$QMap@VQString@@Vstyleentry@@@@QAE?AV?$QMapIterator@VQString@@Vstyleentry@@@@ABVQString@@@Z 1000419d f i bncs_hbox.obj
 0001:000031c9       ??A?$QMap@VQString@@Vstyleentry@@@@QBEABVstyleentry@@ABVQString@@@Z 100041c9 f i bncs_hbox.obj
 0001:000031c9       ??A?$QMap@VQString@@VdeviceTypeInfo@@@@QBEABVdeviceTypeInfo@@ABVQString@@@Z 100041c9 f i bncs_hbox.obj
 0001:000031e3       ?keys@?$QMap@VQString@@Vstyleentry@@@@QBE?AV?$QValueList@VQString@@@@XZ 100041e3 f i bncs_hbox.obj
 0001:00003268       ?values@?$QMap@VQString@@Vstyleentry@@@@QBE?AV?$QValueList@Vstyleentry@@@@XZ 10004268 f i bncs_hbox.obj
 0001:000032eb       ?detach@?$QMap@VQString@@Vstyleentry@@@@IAEXXZ 100042eb f i bncs_hbox.obj
 0001:000032f8       ??1?$QMapPrivate@VQString@@Vstyleentry@@@@QAE@XZ 100042f8 f i bncs_hbox.obj
 0001:00003317       ?remove@?$QMapPrivate@VQString@@Vstyleentry@@@@QAEXV?$QMapIterator@VQString@@Vstyleentry@@@@@Z 10004317 f i bncs_hbox.obj
 0001:0000334f       ??0?$QValueList@Vstyleentry@@@@QAE@XZ 1000434f f i bncs_hbox.obj
 0001:00003389       ?append@?$QValueList@Vstyleentry@@@@QAE?AV?$QValueListIterator@Vstyleentry@@@@ABVstyleentry@@@Z 10004389 f i bncs_hbox.obj
 0001:000033b9       ??1?$QMapNode@VQString@@Vstyleentry@@@@QAE@XZ 100043b9 f i bncs_hbox.obj
 0001:000033f1       ?end@?$QValueList@Vstyleentry@@@@QAE?AV?$QValueListIterator@Vstyleentry@@@@XZ 100043f1 f i bncs_hbox.obj
 0001:00003410       ??4?$QMap@VQString@@Vstyleentry@@@@QAEAAV0@ABV0@@Z 10004410 f i bncs_hbox.obj
 0001:00003443       ?insert@?$QMap@VQString@@Vstyleentry@@@@QAE?AV?$QMapIterator@VQString@@Vstyleentry@@@@ABVQString@@ABVstyleentry@@_N@Z 10004443 f i bncs_hbox.obj
 0001:00003492       ?insert@?$QMap@VQString@@Vstyleentry@@@@QAE?AU?$QPair@V?$QMapIterator@VQString@@Vstyleentry@@@@_N@@ABU?$QPair@$$CBVQString@@Vstyleentry@@@@@Z 10004492 f i bncs_hbox.obj
 0001:000034eb       ?remove@?$QMap@VQString@@Vstyleentry@@@@QAEXABVQString@@@Z 100044eb f i bncs_hbox.obj
 0001:000034eb       ?erase@?$QMap@VQString@@Vstyleentry@@@@QAEXABVQString@@@Z 100044eb f i bncs_hbox.obj
 0001:00003535       ??A?$QMap@VQString@@Vstyleentry@@@@QAEAAVstyleentry@@ABVQString@@@Z 10004535 f i bncs_hbox.obj
 0001:000035ae       ?clear@?$QMap@VQString@@Vstyleentry@@@@QAEXXZ 100045ae f i bncs_hbox.obj
 0001:000035f6       ?detachInternal@?$QMap@VQString@@Vstyleentry@@@@AAEXXZ 100045f6 f i bncs_hbox.obj
 0001:00003634       ??0?$QMapPrivate@VQString@@Vstyleentry@@@@QAE@XZ 10004634 f i bncs_hbox.obj
 0001:000036a9       ?clear@?$QMapPrivate@VQString@@Vstyleentry@@@@QAEXXZ 100046a9 f i bncs_hbox.obj
 0001:000036d8       ?find@?$QMapPrivate@VQString@@Vstyleentry@@@@QBE?AV?$QMapConstIterator@VQString@@Vstyleentry@@@@ABVQString@@@Z 100046d8 f i bncs_hbox.obj
 0001:000036d8       ?find@?$QMapPrivate@VQString@@VdeviceTypeInfo@@@@QBE?AV?$QMapConstIterator@VQString@@VdeviceTypeInfo@@@@ABVQString@@@Z 100046d8 f i bncs_hbox.obj
 0001:00003736       ?detachInternal@?$QValueList@Vstyleentry@@@@AAEXXZ 10004736 f i bncs_hbox.obj
 0001:00003777       ??0?$QValueListPrivate@Vstyleentry@@@@QAE@XZ 10004777 f i bncs_hbox.obj
 0001:000037e0       ?insert@?$QValueListPrivate@Vstyleentry@@@@QAE?AV?$QValueListIterator@Vstyleentry@@@@V2@ABVstyleentry@@@Z 100047e0 f i bncs_hbox.obj
 0001:00003846       ??_E?$QValueListPrivate@Vstyleentry@@@@UAEPAXI@Z 10004846 f i bncs_hbox.obj
 0001:00003846       ??_G?$QValueListPrivate@Vstyleentry@@@@UAEPAXI@Z 10004846 f i bncs_hbox.obj
 0001:00003862       ??1?$QValueListPrivate@Vstyleentry@@@@UAE@XZ 10004862 f i bncs_hbox.obj
 0001:0000389a       ??_E?$QValueListNode@Vstyleentry@@@@UAEPAXI@Z 1000489a f i bncs_hbox.obj
 0001:0000389a       ??_G?$QValueListNode@Vstyleentry@@@@UAEPAXI@Z 1000489a f i bncs_hbox.obj
 0001:000038b6       ??1?$QValueListNode@Vstyleentry@@@@UAE@XZ 100048b6 f i bncs_hbox.obj
 0001:000038c5       ??0?$QMapPrivate@VQString@@Vstyleentry@@@@QAE@PBV0@@Z 100048c5 f i bncs_hbox.obj
 0001:0000398d       ?clear@?$QMapPrivate@VQString@@Vstyleentry@@@@QAEXPAU?$QMapNode@VQString@@Vstyleentry@@@@@Z 1000498d f i bncs_hbox.obj
 0001:000039c4       ?insertSingle@?$QMapPrivate@VQString@@Vstyleentry@@@@QAE?AV?$QMapIterator@VQString@@Vstyleentry@@@@ABVQString@@@Z 100049c4 f i bncs_hbox.obj
 0001:00003a46       ??0?$QValueListPrivate@Vstyleentry@@@@QAE@ABV0@@Z 10004a46 f i bncs_hbox.obj
 0001:00003af0       ??0?$QValueListIterator@VcomplexType@@@@QAE@ABV0@@Z 10004af0 f i bncs_hbox.obj
 0001:00003af0       ??0?$QValueListIterator@VvalidState@@@@QAE@ABV0@@Z 10004af0 f i bncs_hbox.obj
 0001:00003af0       ??0?$QValueListIterator@VcomplexInstance@@@@QAE@ABV0@@Z 10004af0 f i bncs_hbox.obj
 0001:00003af0       ??0?$QValueListIterator@VparamInfo@@@@QAE@ABV0@@Z 10004af0 f i bncs_hbox.obj
 0001:00003af0       ??0?$QValueListIterator@VinstanceInfo@@@@QAE@ABV0@@Z 10004af0 f i bncs_hbox.obj
 0001:00003af0       ??0?$QValueListIterator@VcomplexParam@@@@QAE@ABV0@@Z 10004af0 f i bncs_hbox.obj
 0001:00003af0       ??0?$QValueListIterator@Vstyleentry@@@@QAE@ABV0@@Z 10004af0 f i bncs_hbox.obj
 0001:00003af0       ??0?$QValueListIterator@VdeviceTypeInfo@@@@QAE@ABV0@@Z 10004af0 f i bncs_hbox.obj
 0001:00003afd       ?copy@?$QMapPrivate@VQString@@Vstyleentry@@@@QAEPAU?$QMapNode@VQString@@Vstyleentry@@@@PAU2@@Z 10004afd f i bncs_hbox.obj
 0001:00003b8a       ?insert@?$QMapPrivate@VQString@@Vstyleentry@@@@QAE?AV?$QMapIterator@VQString@@Vstyleentry@@@@PAUQMapNodeBase@@0ABVQString@@@Z 10004b8a f i bncs_hbox.obj
 0001:00003c39       ??0?$QMapNode@VQString@@Vstyleentry@@@@QAE@ABVQString@@@Z 10004c39 f i bncs_hbox.obj
 0001:00003c84       ??0?$QMapNode@VQString@@Vstyleentry@@@@QAE@ABU0@@Z 10004c84 f i bncs_hbox.obj
 0001:00003ce2       ??_Ebncs_hbox@@WCI@AEPAXI@Z 10004ce2 f i bncs_hbox.obj
 0001:00003cea       ?metaObject@bncs_keyboard_ctrl@@UBEPAVQMetaObject@@XZ 10004cea f i bncs_keyboard_ctrl.obj
 0001:00003cef       ??0bncs_keyboard_ctrl@@QAE@ABV0@@Z 10004cef f i bncs_keyboard_ctrl.obj
 0001:00003e80       ??4bncs_keyboard_ctrl@@QAEAAV0@ABV0@@Z 10004e80 f i bncs_keyboard_ctrl.obj
 0001:00003fdc       ??1bncs_keyboard_ctrl@@UAE@XZ 10004fdc f i bncs_keyboard_ctrl.obj
 0001:00004040       ??_Fbncs_keyboard_ctrl@@QAEXXZ 10005040 f i bncs_keyboard_ctrl.obj
 0001:0000404a       ??_Ebncs_keyboard_ctrl@@UAEPAXI@Z 1000504a f i bncs_keyboard_ctrl.obj
 0001:00004098       ??0bncs_keyboard_ctrl@@QAE@PAVQWidget@@PBD@Z 10005098 f   bncs_keyboard_ctrl.obj
 0001:0000419a       ?setCaption@bncs_keyboard_ctrl@@UAEXABVQString@@@Z 1000519a f   bncs_keyboard_ctrl.obj
 0001:00005ad7       ?edit@bncs_keyboard_ctrl@@QAEXPA_N0@Z 10006ad7 f   bncs_keyboard_ctrl.obj
 0001:00006927       ?defaultvalues@bncs_keyboard_ctrl@@AAEXXZ 10007927 f   bncs_keyboard_ctrl.obj
 0001:00006a08       ?resizeEvent@bncs_keyboard_ctrl@@UAEXPAVQResizeEvent@@@Z 10007a08 f   bncs_keyboard_ctrl.obj
 0001:00006a20       ?updateText@bncs_keyboard_ctrl@@AAEXXZ 10007a20 f   bncs_keyboard_ctrl.obj
 0001:00006c82       ?updateHexText@bncs_keyboard_ctrl@@AAEXXZ 10007c82 f   bncs_keyboard_ctrl.obj
 0001:00006e80       ?char_Pressed@bncs_keyboard_ctrl@@IAEXAAVQString@@@Z 10007e80 f   bncs_keyboard_ctrl.obj
 0001:0000702d       ?space_Pressed@bncs_keyboard_ctrl@@IAEXAAVQString@@@Z 1000802d f   bncs_keyboard_ctrl.obj
 0001:00007117       ?tab_Pressed@bncs_keyboard_ctrl@@IAEXAAVQString@@@Z 10008117 f   bncs_keyboard_ctrl.obj
 0001:000071e6       ?back_Pressed@bncs_keyboard_ctrl@@IAEXAAVQString@@@Z 100081e6 f   bncs_keyboard_ctrl.obj
 0001:00007362       ?left_Pressed@bncs_keyboard_ctrl@@IAEXAAVQString@@@Z 10008362 f   bncs_keyboard_ctrl.obj
 0001:00007431       ?right_Pressed@bncs_keyboard_ctrl@@IAEXAAVQString@@@Z 10008431 f   bncs_keyboard_ctrl.obj
 0001:00007500       ?home_Pressed@bncs_keyboard_ctrl@@IAEXAAVQString@@@Z 10008500 f   bncs_keyboard_ctrl.obj
 0001:000075cf       ?end_Pressed@bncs_keyboard_ctrl@@IAEXAAVQString@@@Z 100085cf f   bncs_keyboard_ctrl.obj
 0001:0000769e       ?del_Pressed@bncs_keyboard_ctrl@@IAEXAAVQString@@@Z 1000869e f   bncs_keyboard_ctrl.obj
 0001:0000776d       ?changeSign_Pressed@bncs_keyboard_ctrl@@IAEXAAVQString@@@Z 1000876d f   bncs_keyboard_ctrl.obj
 0001:000079a9       ?clear_Pressed@bncs_keyboard_ctrl@@IAEXAAVQString@@@Z 100089a9 f   bncs_keyboard_ctrl.obj
 0001:00007aae       ?shift_Pressed@bncs_keyboard_ctrl@@IAEXAAVQString@@@Z 10008aae f   bncs_keyboard_ctrl.obj
 0001:00007aeb       ?caps_Pressed@bncs_keyboard_ctrl@@IAEXAAVQString@@@Z 10008aeb f   bncs_keyboard_ctrl.obj
 0001:00007b28       ?setFixedText@bncs_keyboard_ctrl@@AAEXXZ 10008b28 f   bncs_keyboard_ctrl.obj
 0001:00007ddc       ?ret_Pressed@bncs_keyboard_ctrl@@IAEXAAVQString@@@Z 10008ddc f   bncs_keyboard_ctrl.obj
 0001:00007e82       ?setFocus@bncs_keyboard_ctrl@@EAEXXZ 10008e82 f   bncs_keyboard_ctrl.obj
 0001:00007ead       ?createButtons@bncs_keyboard_ctrl@@AAEXXZ 10008ead f   bncs_keyboard_ctrl.obj
 0001:000083ad       ?showButton@bncs_keyboard_ctrl@@AAEXVQString@@_N@Z 100093ad f   bncs_keyboard_ctrl.obj
 0001:00008476       ?hideAllButtons@bncs_keyboard_ctrl@@AAEX_N@Z 10009476 f   bncs_keyboard_ctrl.obj
 0001:00008615       ?ReDrawKeyboard@bncs_keyboard_ctrl@@IAEXXZ 10009615 f   bncs_keyboard_ctrl.obj
 0001:00008633       ?ReDrawKeypad@bncs_keyboard_ctrl@@AAEXXZ 10009633 f   bncs_keyboard_ctrl.obj
 0001:00008bd8       ?ReDrawNumpad@bncs_keyboard_ctrl@@AAEXXZ 10009bd8 f   bncs_keyboard_ctrl.obj
 0001:00008f8d       ?ReDrawHexNumpad@bncs_keyboard_ctrl@@AAEXXZ 10009f8d f   bncs_keyboard_ctrl.obj
 0001:00009384       ?positionButton@bncs_keyboard_ctrl@@AAEXVQString@@HHHH@Z 1000a384 f   bncs_keyboard_ctrl.obj
 0001:00009451       ?applyChanges@bncs_keyboard_ctrl@@IAEXXZ 1000a451 f   bncs_keyboard_ctrl.obj
 0001:00009472       ?setChildCaption@bncs_keyboard_ctrl@@AAEXVQString@@@Z 1000a472 f   bncs_keyboard_ctrl.obj
 0001:00009512       ?buttonText@bncs_keyboard_ctrl@@AAEXVQString@@0@Z 1000a512 f   bncs_keyboard_ctrl.obj
 0001:000095de       ?keyPressEvent@bncs_keyboard_ctrl@@UAEXPAVQKeyEvent@@@Z 1000a5de f   bncs_keyboard_ctrl.obj
 0001:0000993f       ?validateIP@bncs_keyboard_ctrl@@AAEX_N@Z 1000a93f f   bncs_keyboard_ctrl.obj
 0001:00009f52       ?validateDecimal@bncs_keyboard_ctrl@@AAEXXZ 1000af52 f   bncs_keyboard_ctrl.obj
 0001:0000a31c       ?validateLength@bncs_keyboard_ctrl@@AAEXXZ 1000b31c f   bncs_keyboard_ctrl.obj
 0001:0000a3c6       ?setButtonEnabled@bncs_keyboard_ctrl@@AAEXVQString@@_N@Z 1000b3c6 f   bncs_keyboard_ctrl.obj
 0001:0000a4a7       ?enableAllButtons@bncs_keyboard_ctrl@@AAEX_N@Z 1000b4a7 f   bncs_keyboard_ctrl.obj
 0001:0000a5a8       ?getLineEdit@bncs_keyboard_ctrl@@QAEPAVQWidget@@XZ 1000b5a8 f   bncs_keyboard_ctrl.obj
 0001:0000a5af       ?showStyleBrowser@bncs_keyboard_ctrl@@QAEXPA_NABVQString@@@Z 1000b5af f   bncs_keyboard_ctrl.obj
 0001:0000a6af       ?getText@bncs_keyboard_ctrl@@AAE?AVQString@@XZ 1000b6af f   bncs_keyboard_ctrl.obj
 0001:0000a73f       ??_Ebncs_keyboard_ctrl@@WCI@AEPAXI@Z 1000b73f f i bncs_keyboard_ctrl.obj
 0001:0000a747       ?metaObject@bncs_listview@@UBEPAVQMetaObject@@XZ 1000b747 f i bncs_listview.obj
 0001:0000a74c       ??0bncs_listview@@QAE@ABV0@@Z 1000b74c f i bncs_listview.obj
 0001:0000a884       ??4bncs_listview@@QAEAAV0@ABV0@@Z 1000b884 f i bncs_listview.obj
 0001:0000a9a9       ??_Fbncs_listview@@QAEXXZ  1000b9a9 f i bncs_listview.obj
 0001:0000a9b3       ??_Ebncs_listview@@UAEPAXI@Z 1000b9b3 f i bncs_listview.obj
 0001:0000aa01       ??0bncs_listview@@QAE@PAVQWidget@@PBD@Z 1000ba01 f   bncs_listview.obj
 0001:0000ab34       ??1bncs_listview@@UAE@XZ   1000bb34 f   bncs_listview.obj
 0001:0000ac1c       ?setCaption@bncs_listview@@UAEXABVQString@@@Z 1000bc1c f   bncs_listview.obj
 0001:0000e2b6       ?edit@bncs_listview@@QAEXPA_N0@Z 1000f2b6 f   bncs_listview.obj
 0001:0000eaa4       ?defaultvalues@bncs_listview@@AAEXXZ 1000faa4 f   bncs_listview.obj
 0001:0000ebe7       ?doSelectionChanged@bncs_listview@@QAEXPAVQListViewItem@@@Z 1000fbe7 f   bncs_listview.obj
 0001:0000ed68       ?showStyleBrowser@bncs_listview@@QAEXPA_NABVQString@@@Z 1000fd68 f   bncs_listview.obj
 0001:0000ee68       ?getColumnWidth@bncs_listview@@QAEHI@Z 1000fe68 f   bncs_listview.obj
 0001:0000ee96       ??0BncsListViewItem@@QAE@PAVbncs_listview@@PAVQListViewItem@@@Z 1000fe96 f   bncs_listview.obj
 0001:0000eeb9       ??0BncsListViewItem@@QAE@PAVbncs_listview@@@Z 1000feb9 f   bncs_listview.obj
 0001:0000eed8       ?paintCell@BncsListViewItem@@UAEXPAVQPainter@@ABVQColorGroup@@HHH@Z 1000fed8 f   bncs_listview.obj
 0001:0000ef27       ??0?$QValueVector@H@@QAE@XZ 1000ff27 f i bncs_listview.obj
 0001:0000ef58       ?size@?$QValueVector@H@@QBEIXZ 1000ff58 f i bncs_listview.obj
 0001:0000ef64       ?begin@?$QValueVector@H@@QAEPAHXZ 1000ff64 f i bncs_listview.obj
 0001:0000ef7b       ?at@?$QValueVector@H@@QAEAAHIPA_N@Z 1000ff7b f i bncs_listview.obj
 0001:0000efc6       ??A?$QValueVector@H@@QAEAAHI@Z 1000ffc6 f i bncs_listview.obj
 0001:0000eff5       ?push_back@?$QValueVector@H@@QAEXABH@Z 1000fff5 f i bncs_listview.obj
 0001:0000f041       ?erase@?$QValueVector@H@@QAEPAHPAH@Z 10010041 f i bncs_listview.obj
 0001:0000f08e       ?detach@?$QValueVector@H@@IAEXXZ 1001008e f i bncs_listview.obj
 0001:0000f09c       ?clear@?$QValueVectorPrivate@H@@QAEXXZ 1001009c f i bncs_listview.obj
 0001:0000f0b5       ??_G?$QValueVectorPrivate@H@@UAEPAXI@Z 100100b5 f i bncs_listview.obj
 0001:0000f0b5       ??_E?$QValueVectorPrivate@H@@UAEPAXI@Z 100100b5 f i bncs_listview.obj
 0001:0000f0db       ?detachInternal@?$QValueVector@H@@IAEXXZ 100100db f i bncs_listview.obj
 0001:0000f11c       ?at@?$QValueListPrivate@VQString@@@@QBEPAV?$QValueListNode@VQString@@@@I@Z 1001011c f i bncs_listview.obj
 0001:0000f15b       ?reserve@?$QValueVectorPrivate@H@@QAEXI@Z 1001015b f i bncs_listview.obj
 0001:0000f190       ??0?$QValueVectorPrivate@H@@QAE@ABV0@@Z 10010190 f i bncs_listview.obj
 0001:0000f1f4       ?growAndCopy@?$QValueVectorPrivate@H@@AAEPAHIPAH0@Z 100101f4 f i bncs_listview.obj
 0001:0000f234       ??_Ebncs_listview@@WCI@AEPAXI@Z 10010234 f i bncs_listview.obj
 0001:0000f23c       ??0bncs_popup@@QAE@PAVQWidget@@0@Z 1001023c f   bncs_popup.obj
 0001:0000f2f4       ?metaObject@bncs_popup@@UBEPAVQMetaObject@@XZ 100102f4 f i bncs_popup.obj
 0001:0000f2f9       ??_Gbncs_popup@@UAEPAXI@Z  100102f9 f i bncs_popup.obj
 0001:0000f2f9       ??_Ebncs_popup@@UAEPAXI@Z  100102f9 f i bncs_popup.obj
 0001:0000f315       ??1bncs_popup@@UAE@XZ      10010315 f   bncs_popup.obj
 0001:0000f332       ?aboutToHide@bncs_popup@@QAEXXZ 10010332 f   bncs_popup.obj
 0001:0000f361       ?add@bncs_popup@@QAEXPAVQWidget@@@Z 10010361 f   bncs_popup.obj
 0001:0000f410       ?drawContents@bncs_popup@@UAEXPAVQPainter@@@Z 10010410 f   bncs_popup.obj
 0001:0000f410       ?resizeEvent@bncs_popup@@UAEXPAVQResizeEvent@@@Z 10010410 f   bncs_popup.obj
 0001:0000f410       ?drawFrame@bncs_popup@@UAEXPAVQPainter@@@Z 10010410 f   bncs_popup.obj
 0001:0000f413       ?paintEvent@bncs_popup@@UAEXPAVQPaintEvent@@@Z 10010413 f   bncs_popup.obj
 0001:0000f4c3       ??_Ebncs_popup@@WCI@AEPAXI@Z 100104c3 f i bncs_popup.obj
 0001:0000f4cb       ??_Ebncs_popup@@WIM@AEPAXI@Z 100104cb f i bncs_popup.obj
 0001:0000f4d6       ??0signalConnection@@QAE@ABVQString@@0000@Z 100104d6 f i bncs_skin_button.obj
 0001:0000f568       ??0signalConnection@@QAE@ABV0@@Z 10010568 f i bncs_skin_button.obj
 0001:0000f5ce       ??4signalConnection@@QAEAAV0@ABV0@@Z 100105ce f i bncs_skin_button.obj
 0001:0000f60c       ??1signalConnection@@QAE@XZ 1001060c f i bncs_skin_button.obj
 0001:0000f66d       ??0signalConnectionRefList@@QAE@XZ 1001066d f i bncs_skin_button.obj
 0001:0000f680       ??0signalConnectionRefList@@QAE@ABV0@@Z 10010680 f i bncs_skin_button.obj
 0001:0000f699       ??1signalConnectionRefList@@UAE@XZ 10010699 f i bncs_skin_button.obj
 0001:0000f6e8       ??4signalConnectionRefList@@QAEAAV0@ABV0@@Z 100106e8 f i bncs_skin_button.obj
 0001:0000f6f5       ??_EsignalConnectionRefList@@UAEPAXI@Z 100106f5 f i bncs_skin_button.obj
 0001:0000f740       ??0signalConnectionRefListIt@@QAE@ABVsignalConnectionRefList@@@Z 10010740 f i bncs_skin_button.obj
 0001:0000f740       ??0?$QPtrListIterator@VsignalConnection@@@@QAE@ABV?$QPtrList@VsignalConnection@@@@@Z 10010740 f i bncs_skin_button.obj
 0001:0000f753       ??4signalConnectionRefListIt@@QAEAAV0@ABV0@@Z 10010753 f i bncs_skin_button.obj
 0001:0000f766       ??0signalConnectionRefListIt@@QAE@ABV0@@Z 10010766 f i bncs_skin_button.obj
 0001:0000f779       ??1signalConnectionRefListIt@@QAE@XZ 10010779 f i bncs_skin_button.obj
 0001:0000f779       ??1?$QPtrListIterator@VQFileInfo@@@@QAE@XZ 10010779 f i bncs_skin_button.obj
 0001:0000f77f       ??_F?$QDict@VplaySound@@@@QAEXXZ 1001077f f i bncs_skin_button.obj
 0001:0000f789       ??_F?$QDict@VQWidget@@@@QAEXXZ 10010789 f i bncs_skin_button.obj
 0001:0000f793       ??_F?$QDict@Vbncs_popup@@@@QAEXXZ 10010793 f i bncs_skin_button.obj
 0001:0000f79d       ??_F?$QIntDict@VQTimer@@@@QAEXXZ 1001079d f i bncs_skin_button.obj
 0001:0000f7a5       ??_F?$QDict@Vbncs_http@@@@QAEXXZ 100107a5 f i bncs_skin_button.obj
 0001:0000f7af       ?metaObject@bncs_script_loader@@UBEPAVQMetaObject@@XZ 100107af f i bncs_skin_button.obj
 0001:0000f7b4       ?setCallback@bncs_script_loader@@QAEXPAVbncs_client_callback@@@Z 100107b4 f i bncs_skin_button.obj
 0001:0000f7c1       ?getscriptname@bncs_script_loader@@QBE?AVQString@@XZ 100107c1 f i bncs_skin_button.obj
 0001:0000f7e0       ?setscriptname@bncs_script_loader@@QAEXVQString@@@Z 100107e0 f i bncs_skin_button.obj
 0001:0000f840       ??0bncs_script_loader@@QAE@ABV0@@Z 10010840 f i bncs_skin_button.obj
 0001:0000fa68       ??1bncs_client_callback@@UAE@XZ 10010a68 f i bncs_skin_button.obj
 0001:0000fa6f       ??_Ebncs_client_callback@@UAEPAXI@Z 10010a6f f i bncs_skin_button.obj
 0001:0000fa6f       ??_Gbncs_client_callback@@UAEPAXI@Z 10010a6f f i bncs_skin_button.obj
 0001:0000fa8c       ??4bncs_script_loader@@QAEAAV0@ABV0@@Z 10010a8c f i bncs_skin_button.obj
 0001:0000fbfa       ??_Fbncs_script_loader@@QAEXXZ 10010bfa f i bncs_skin_button.obj
 0001:0000fc05       ??_Ebncs_script_loader@@UAEPAXI@Z 10010c05 f i bncs_skin_button.obj
 0001:0000fc53       ?metaObject@bncs_ss_base@@UBEPAVQMetaObject@@XZ 10010c53 f i bncs_skin_button.obj
 0001:0000fc58       ?getPath@bncs_ss_base@@UAE?AVQString@@XZ 10010c58 f i bncs_skin_button.obj
 0001:0000fc58       ?getDefaultStyle@bncs_ss_base@@UAE?AVQString@@XZ 10010c58 f i bncs_skin_button.obj
 0001:0000fc75       ?mouseReleaseEvent@bncs_skin_base@@UAEXPAVQMouseEvent@@@Z 10010c75 f i bncs_skin_button.obj
 0001:0000fc75       ?setEnabled@bncs_skin_base@@UAEX_N@Z 10010c75 f i bncs_skin_button.obj
 0001:0000fc75       ?paintEvent@bncs_skin_base@@UAEXPAVQPaintEvent@@@Z 10010c75 f i bncs_skin_button.obj
 0001:0000fc75       ?setValue@bncs_skin_base@@UAEXH@Z 10010c75 f i bncs_skin_button.obj
 0001:0000fc75       ?enableTextEntry@bncs_skin_base@@UAEX_N@Z 10010c75 f i bncs_skin_button.obj
 0001:0000fc75       ?mousePressEvent@bncs_skin_base@@UAEXPAVQMouseEvent@@@Z 10010c75 f i bncs_skin_button.obj
 0001:0000fc75       ?resizeEvent@bncs_skin_base@@UAEXPAVQResizeEvent@@@Z 10010c75 f i bncs_skin_button.obj
 0001:0000fc75       ?emitNotify@bncs_ss_base@@UAEXAAVQString@@@Z 10010c75 f i bncs_skin_button.obj
 0001:0000fc78       ??0bncs_ss_base@@QAE@ABV0@@Z 10010c78 f i bncs_skin_button.obj
 0001:0000fdba       ??4bncs_ss_base@@QAEAAV0@ABV0@@Z 10010dba f i bncs_skin_button.obj
 0001:0000feb0       ??_Fbncs_ss_base@@QAEXXZ   10010eb0 f i bncs_skin_button.obj
 0001:0000febb       ??_Ebncs_ss_base@@UAEPAXI@Z 10010ebb f i bncs_skin_button.obj
 0001:0000ff09       ?metaObject@bncs_enum@@UBEPAVQMetaObject@@XZ 10010f09 f i bncs_skin_button.obj
 0001:0000ff0e       ??0bncs_enum@@QAE@ABV0@@Z  10010f0e f i bncs_skin_button.obj
 0001:0001007e       ??_Fbncs_enum@@QAEXXZ      1001107e f i bncs_skin_button.obj
 0001:00010089       ??_Ebncs_enum@@UAEPAXI@Z   10011089 f i bncs_skin_button.obj
 0001:000100d7       ??_EDeferredStartupControl@@UAEPAXI@Z 100110d7 f i bncs_skin_button.obj
 0001:000100d7       ??_GDeferredStartupControl@@UAEPAXI@Z 100110d7 f i bncs_skin_button.obj
 0001:000100f3       ??0bncs_skin_base@@QAE@XZ  100110f3 f i bncs_skin_button.obj
 0001:00010109       ??1bncs_skin_base@@UAE@XZ  10011109 f i bncs_skin_button.obj
 0001:00010118       ?showValueRaw@bncs_skin_base@@UAEXN@Z 10011118 f i bncs_skin_button.obj
 0001:00010118       ?showValue@bncs_range_fader@@UAEXN@Z 10011118 f i bncs_skin_button.obj
 0001:00010118       ?underlineInvalid@bncs_skin_base@@UAEX_NPAVQPaintEvent@@@Z 10011118 f i bncs_skin_button.obj
 0001:0001011b       ?nextstate@bncs_ss_base@@UAEXXZ 1001111b f i bncs_skin_button.obj
 0001:0001011b       ?dummy@bncs_data_button@@QAEXXZ 1001111b f i bncs_skin_button.obj
 0001:0001011b       ?outputValue@bncs_skin_base@@UAEXXZ 1001111b f i bncs_skin_button.obj
 0001:0001011b       ?updateMask@bncs_skin_base@@UAEXXZ 1001111b f i bncs_skin_button.obj
 0001:0001011b       ??3@YAXPAX0@Z              1001111b f i bncs_skin_button.obj
 0001:0001011b       ?settodefault@bncs_ss_base@@UAEXXZ 1001111b f i bncs_skin_button.obj
 0001:0001011b       ?updateWidgetText@bncs_skin_base@@UAEXXZ 1001111b f i bncs_skin_button.obj
 0001:0001011c       ?emitNotify@bncs_skin_base@@UAEXVQString@@@Z 1001111c f i bncs_skin_button.obj
 0001:0001011c       ?navigate@bncs_ss_base@@UAEXVQString@@@Z 1001111c f i bncs_skin_button.obj
 0001:00010129       ?setNotifyCallback@bncs_skin_base@@QAEXPAVnotifyCallbackClass@@@Z 10011129 f i bncs_skin_button.obj
 0001:00010133       ?setWidgetTextVar@bncs_skin_base@@QAEXABVQString@@@Z 10011133 f i bncs_skin_button.obj
 0001:0001014e       ?getWidgetTextVar@bncs_skin_base@@QAE?AVQString@@XZ 1001114e f i bncs_skin_button.obj
 0001:00010183       ?setIsValidString@bncs_skin_base@@QAEX_N@Z 10011183 f i bncs_skin_button.obj
 0001:0001018d       ?getIsValidString@bncs_skin_base@@QAE_NXZ 1001118d f i bncs_skin_button.obj
 0001:00010191       ??0bncs_skin_base@@QAE@ABV0@@Z 10011191 f i bncs_skin_button.obj
 0001:000101bf       ??4bncs_skin_base@@QAEAAV0@ABV0@@Z 100111bf f i bncs_skin_button.obj
 0001:000101e7       ??_Ebncs_skin_base@@UAEPAXI@Z 100111e7 f i bncs_skin_button.obj
 0001:00010232       ??0bncs_skin_button@@QAE@ABV0@@Z 10011232 f i bncs_skin_button.obj
 0001:000102fa       ??4bncs_skin_button@@QAEAAV0@ABV0@@Z 100112fa f i bncs_skin_button.obj
 0001:00010399       ??_Ebncs_skin_button@@UAEPAXI@Z 10011399 f i bncs_skin_button.obj
 0001:000103e4       ??0bncs_skin_button@@QAE@PAVbncs_ss_base@@_N@Z 100113e4 f   bncs_skin_button.obj
 0001:000104cb       ??1bncs_skin_button@@UAE@XZ 100114cb f   bncs_skin_button.obj
 0001:00010561       ?show@bncs_skin_button@@UAEXXZ 10011561 f   bncs_skin_button.obj
 0001:00010684       ?showFormattedValue@bncs_skin_button@@UAEXVQString@@@Z 10011684 f   bncs_skin_button.obj
 0001:000106fe       ?setCaption@bncs_skin_button@@UAEXPAVdecodeCaptionString@@AAVQString@@@Z 100116fe f   bncs_skin_button.obj
 0001:00011255       ?notifyCallback@bncs_skin_button@@MAEXABVQString@@0@Z 10012255 f   bncs_skin_button.obj
 0001:00011d7b       ?addEditWidget@bncs_skin_button@@UAE?AVQWidgetList@@XZ 10012d7b f   bncs_skin_button.obj
 0001:00011fd3       ?editAccepted@bncs_skin_button@@UAE?AVQStringList@@XZ 10012fd3 f   bncs_skin_button.obj
 0001:000124b6       ?removeEditWidget@bncs_skin_button@@UAEXXZ 100134b6 f   bncs_skin_button.obj
 0001:000124cd       ?resizeEvent@bncs_skin_button@@UAEXPAVQResizeEvent@@@Z 100134cd f   bncs_skin_button.obj
 0001:000124e0       ?paintEvent@bncs_skin_button@@UAEXPAVQPaintEvent@@@Z 100134e0 f   bncs_skin_button.obj
 0001:00012628       ?mousePressEvent@bncs_skin_button@@UAEXPAVQMouseEvent@@@Z 10013628 f   bncs_skin_button.obj
 0001:0001263b       ?mouseReleaseEvent@bncs_skin_button@@UAEXPAVQMouseEvent@@@Z 1001363b f   bncs_skin_button.obj
 0001:0001264e       ?setEnabled@bncs_skin_button@@UAEX_N@Z 1001364e f   bncs_skin_button.obj
 0001:00012661       ?updateWidgetText@bncs_skin_button@@UAEXXZ 10013661 f   bncs_skin_button.obj
 0001:0001269f       ?enableTextEntry@bncs_skin_button@@UAEX_N@Z 1001369f f   bncs_skin_button.obj
 0001:000126ae       ?underlineInvalid@bncs_skin_button@@UAEX_NPAVQPaintEvent@@@Z 100136ae f   bncs_skin_button.obj
 0001:00012828       ??1?$QPtrList@VsignalConnection@@@@UAE@XZ 10013828 f i bncs_skin_button.obj
 0001:00012862       ??0?$QDict@VplaySound@@@@QAE@H_N@Z 10013862 f i bncs_skin_button.obj
 0001:00012883       ??0?$QDict@VplaySound@@@@QAE@ABV0@@Z 10013883 f i bncs_skin_button.obj
 0001:0001289c       ??1?$QDict@VplaySound@@@@UAE@XZ 1001389c f i bncs_skin_button.obj
 0001:000128d6       ??4?$QDict@VQWidget@@@@QAEAAV0@ABV0@@Z 100138d6 f i bncs_skin_button.obj
 0001:000128d6       ??4?$QDict@VplaySound@@@@QAEAAV0@ABV0@@Z 100138d6 f i bncs_skin_button.obj
 0001:000128d6       ??4?$QDict@Vbncs_popup@@@@QAEAAV0@ABV0@@Z 100138d6 f i bncs_skin_button.obj
 0001:000128d6       ??4?$QIntDict@VQTimer@@@@QAEAAV0@ABV0@@Z 100138d6 f i bncs_skin_button.obj
 0001:000128d6       ??4?$QDict@Vbncs_http@@@@QAEAAV0@ABV0@@Z 100138d6 f i bncs_skin_button.obj
 0001:000128e3       ?count@?$QDict@Vbncs_http@@@@UBEIXZ 100138e3 f i bncs_skin_button.obj
 0001:000128e3       ?count@?$QDict@_N@@UBEIXZ  100138e3 f i bncs_skin_button.obj
 0001:000128e3       ?count@?$QDict@Vbncs_popup@@@@UBEIXZ 100138e3 f i bncs_skin_button.obj
 0001:000128e3       ?count@?$QDict@VplaySound@@@@UBEIXZ 100138e3 f i bncs_skin_button.obj
 0001:000128e3       ?count@?$QIntDict@VQTimer@@@@UBEIXZ 100138e3 f i bncs_skin_button.obj
 0001:000128e3       ?count@?$QDict@VQWidget@@@@UBEIXZ 100138e3 f i bncs_skin_button.obj
 0001:000128e7       ?size@?$QDict@VplaySound@@@@QBEIXZ 100138e7 f i bncs_skin_button.obj
 0001:000128e7       ?size@?$QIntDict@VQTimer@@@@QBEIXZ 100138e7 f i bncs_skin_button.obj
 0001:000128e7       ?size@?$QDict@Vbncs_popup@@@@QBEIXZ 100138e7 f i bncs_skin_button.obj
 0001:000128e7       ?size@?$QDict@Vbncs_http@@@@QBEIXZ 100138e7 f i bncs_skin_button.obj
 0001:000128e7       ?size@?$QDict@VQWidget@@@@QBEIXZ 100138e7 f i bncs_skin_button.obj
 0001:000128eb       ?isEmpty@?$QDict@Vbncs_http@@@@QBE_NXZ 100138eb f i bncs_skin_button.obj
 0001:000128eb       ?isEmpty@?$QDict@VplaySound@@@@QBE_NXZ 100138eb f i bncs_skin_button.obj
 0001:000128eb       ?isEmpty@?$QDict@VQWidget@@@@QBE_NXZ 100138eb f i bncs_skin_button.obj
 0001:000128eb       ?isEmpty@?$QDict@Vbncs_popup@@@@QBE_NXZ 100138eb f i bncs_skin_button.obj
 0001:000128eb       ?isEmpty@?$QIntDict@VQTimer@@@@QBE_NXZ 100138eb f i bncs_skin_button.obj
 0001:000128f4       ?insert@?$QDict@VQWidget@@@@QAEXABVQString@@PBVQWidget@@@Z 100138f4 f i bncs_skin_button.obj
 0001:000128f4       ?insert@?$QDict@Vbncs_popup@@@@QAEXABVQString@@PBVbncs_popup@@@Z 100138f4 f i bncs_skin_button.obj
 0001:000128f4       ?insert@?$QDict@Vbncs_http@@@@QAEXABVQString@@PBVbncs_http@@@Z 100138f4 f i bncs_skin_button.obj
 0001:000128f4       ?insert@?$QDict@VplaySound@@@@QAEXABVQString@@PBVplaySound@@@Z 100138f4 f i bncs_skin_button.obj
 0001:00012907       ?replace@?$QDict@VplaySound@@@@QAEXABVQString@@PBVplaySound@@@Z 10013907 f i bncs_skin_button.obj
 0001:00012907       ?replace@?$QDict@Vbncs_http@@@@QAEXABVQString@@PBVbncs_http@@@Z 10013907 f i bncs_skin_button.obj
 0001:00012907       ?replace@?$QDict@VQWidget@@@@QAEXABVQString@@PBVQWidget@@@Z 10013907 f i bncs_skin_button.obj
 0001:00012907       ?replace@?$QDict@Vbncs_popup@@@@QAEXABVQString@@PBVbncs_popup@@@Z 10013907 f i bncs_skin_button.obj
 0001:0001291a       ?remove@?$QDict@VplaySound@@@@QAE_NABVQString@@@Z 1001391a f i bncs_skin_button.obj
 0001:0001291a       ?remove@?$QDict@Vbncs_popup@@@@QAE_NABVQString@@@Z 1001391a f i bncs_skin_button.obj
 0001:0001291a       ?remove@?$QDict@Vbncs_http@@@@QAE_NABVQString@@@Z 1001391a f i bncs_skin_button.obj
 0001:0001291a       ?remove@?$QDict@VQWidget@@@@QAE_NABVQString@@@Z 1001391a f i bncs_skin_button.obj
 0001:00012929       ??0?$QDict@VQWidget@@@@QAE@H_N@Z 10013929 f i bncs_skin_button.obj
 0001:0001294a       ??0?$QDict@VQWidget@@@@QAE@ABV0@@Z 1001394a f i bncs_skin_button.obj
 0001:00012963       ??1?$QDict@VQWidget@@@@UAE@XZ 10013963 f i bncs_skin_button.obj
 0001:0001299d       ??0?$QDict@Vbncs_popup@@@@QAE@H_N@Z 1001399d f i bncs_skin_button.obj
 0001:000129be       ??0?$QDict@Vbncs_popup@@@@QAE@ABV0@@Z 100139be f i bncs_skin_button.obj
 0001:000129d7       ??1?$QDict@Vbncs_popup@@@@UAE@XZ 100139d7 f i bncs_skin_button.obj
 0001:00012a11       ??0?$QIntDict@VQTimer@@@@QAE@H@Z 10013a11 f i bncs_skin_button.obj
 0001:00012a30       ??0?$QIntDict@VQTimer@@@@QAE@ABV0@@Z 10013a30 f i bncs_skin_button.obj
 0001:00012a49       ??1?$QIntDict@VQTimer@@@@UAE@XZ 10013a49 f i bncs_skin_button.obj
 0001:00012a83       ?insert@?$QIntDict@VQTimer@@@@QAEXJPBVQTimer@@@Z 10013a83 f i bncs_skin_button.obj
 0001:00012a96       ?replace@?$QIntDict@VQTimer@@@@QAEXJPBVQTimer@@@Z 10013a96 f i bncs_skin_button.obj
 0001:00012aa9       ?remove@?$QIntDict@VQTimer@@@@QAE_NJ@Z 10013aa9 f i bncs_skin_button.obj
 0001:00012ab8       ?take@?$QIntDict@VQTimer@@@@QAEPAVQTimer@@J@Z 10013ab8 f i bncs_skin_button.obj
 0001:00012ac5       ??A?$QIntDict@VQTimer@@@@QBEPAVQTimer@@J@Z 10013ac5 f i bncs_skin_button.obj
 0001:00012ac5       ?find@?$QIntDict@VQTimer@@@@QBEPAVQTimer@@J@Z 10013ac5 f i bncs_skin_button.obj
 0001:00012ad6       ??0?$QDict@Vbncs_http@@@@QAE@H_N@Z 10013ad6 f i bncs_skin_button.obj
 0001:00012af7       ??0?$QDict@Vbncs_http@@@@QAE@ABV0@@Z 10013af7 f i bncs_skin_button.obj
 0001:00012b10       ??1?$QDict@Vbncs_http@@@@UAE@XZ 10013b10 f i bncs_skin_button.obj
 0001:00012b4a       ?take@?$QDict@VplaySound@@@@QAEPAVplaySound@@ABVQString@@@Z 10013b4a f i bncs_skin_button.obj
 0001:00012b4a       ?take@?$QDict@Vbncs_popup@@@@QAEPAVbncs_popup@@ABVQString@@@Z 10013b4a f i bncs_skin_button.obj
 0001:00012b4a       ?take@?$QDict@VQWidget@@@@QAEPAVQWidget@@ABVQString@@@Z 10013b4a f i bncs_skin_button.obj
 0001:00012b4a       ?take@?$QDict@Vbncs_http@@@@QAEPAVbncs_http@@ABVQString@@@Z 10013b4a f i bncs_skin_button.obj
 0001:00012b57       ?find@?$QDict@VplaySound@@@@QBEPAVplaySound@@ABVQString@@@Z 10013b57 f i bncs_skin_button.obj
 0001:00012b57       ?find@?$QDict@Vbncs_http@@@@QBEPAVbncs_http@@ABVQString@@@Z 10013b57 f i bncs_skin_button.obj
 0001:00012b57       ??A?$QDict@Vbncs_popup@@@@QBEPAVbncs_popup@@ABVQString@@@Z 10013b57 f i bncs_skin_button.obj
 0001:00012b57       ??A?$QDict@VQWidget@@@@QBEPAVQWidget@@ABVQString@@@Z 10013b57 f i bncs_skin_button.obj
 0001:00012b57       ??A?$QDict@Vbncs_http@@@@QBEPAVbncs_http@@ABVQString@@@Z 10013b57 f i bncs_skin_button.obj
 0001:00012b57       ??A?$QDict@VplaySound@@@@QBEPAVplaySound@@ABVQString@@@Z 10013b57 f i bncs_skin_button.obj
 0001:00012b57       ?find@?$QDict@Vbncs_popup@@@@QBEPAVbncs_popup@@ABVQString@@@Z 10013b57 f i bncs_skin_button.obj
 0001:00012b57       ?find@?$QDict@VQWidget@@@@QBEPAVQWidget@@ABVQString@@@Z 10013b57 f i bncs_skin_button.obj
 0001:00012b68       ?resize@?$QIntDict@VQTimer@@@@QAEXI@Z 10013b68 f i bncs_skin_button.obj
 0001:00012b68       ?resize@?$QDict@VQWidget@@@@QAEXI@Z 10013b68 f i bncs_skin_button.obj
 0001:00012b68       ?resize@?$QDict@VplaySound@@@@QAEXI@Z 10013b68 f i bncs_skin_button.obj
 0001:00012b68       ?resize@?$QDict@Vbncs_popup@@@@QAEXI@Z 10013b68 f i bncs_skin_button.obj
 0001:00012b68       ?resize@?$QDict@Vbncs_http@@@@QAEXI@Z 10013b68 f i bncs_skin_button.obj
 0001:00012b75       ?statistics@?$QDict@VplaySound@@@@QBEXXZ 10013b75 f i bncs_skin_button.obj
 0001:00012b75       ?statistics@?$QDict@Vbncs_popup@@@@QBEXXZ 10013b75 f i bncs_skin_button.obj
 0001:00012b75       ?statistics@?$QIntDict@VQTimer@@@@QBEXXZ 10013b75 f i bncs_skin_button.obj
 0001:00012b75       ?statistics@?$QDict@Vbncs_http@@@@QBEXXZ 10013b75 f i bncs_skin_button.obj
 0001:00012b75       ?statistics@?$QDict@VQWidget@@@@QBEXXZ 10013b75 f i bncs_skin_button.obj
 0001:00012b7b       ??0?$QMap@HVvalidState@@@@QAE@XZ 10013b7b f i bncs_skin_button.obj
 0001:00012bb5       ??1?$QMap@HVvalidState@@@@QAE@XZ 10013bb5 f i bncs_skin_button.obj
 0001:00012bd2       ?begin@?$QMap@HVvalidState@@@@QAE?AV?$QMapIterator@HVvalidState@@@@XZ 10013bd2 f i bncs_skin_button.obj
 0001:00012bf2       ?end@?$QMap@HVvalidState@@@@QAE?AV?$QMapIterator@HVvalidState@@@@XZ 10013bf2 f i bncs_skin_button.obj
 0001:00012c10       ?replace@?$QMap@HVvalidState@@@@QAE?AV?$QMapIterator@HVvalidState@@@@ABHABVvalidState@@@Z 10013c10 f i bncs_skin_button.obj
 0001:00012c38       ?remove@?$QMap@HVvalidState@@@@QAEXV?$QMapIterator@HVvalidState@@@@@Z 10013c38 f i bncs_skin_button.obj
 0001:00012c38       ?erase@?$QMap@HVvalidState@@@@QAEXV?$QMapIterator@HVvalidState@@@@@Z 10013c38 f i bncs_skin_button.obj
 0001:00012c5b       ?find@?$QMap@HVvalidState@@@@QAE?AV?$QMapIterator@HVvalidState@@@@ABH@Z 10013c5b f i bncs_skin_button.obj
 0001:00012c87       ?find@?$QMap@HVvalidState@@@@QBE?AV?$QMapConstIterator@HVvalidState@@@@ABH@Z 10013c87 f i bncs_skin_button.obj
 0001:00012c9d       ??A?$QMap@HVvalidState@@@@QBEABVvalidState@@ABH@Z 10013c9d f i bncs_skin_button.obj
 0001:00012cb7       ?contains@?$QMap@HVvalidState@@@@QBE_NABH@Z 10013cb7 f i bncs_skin_button.obj
 0001:00012cd9       ?keys@?$QMap@HVvalidState@@@@QBE?AV?$QValueList@H@@XZ 10013cd9 f i bncs_skin_button.obj
 0001:00012d5e       ?values@?$QMap@HVvalidState@@@@QBE?AV?$QValueList@VvalidState@@@@XZ 10013d5e f i bncs_skin_button.obj
 0001:00012de1       ?detach@?$QMap@HVvalidState@@@@IAEXXZ 10013de1 f i bncs_skin_button.obj
 0001:00012dee       ??0?$list@VQString@@V?$allocator@VQString@@@std@@@std@@QAE@ABV01@@Z 10013dee f i bncs_skin_button.obj
 0001:00012e3a       ??1?$list@VQString@@V?$allocator@VQString@@@std@@@std@@QAE@XZ 10013e3a f i bncs_skin_button.obj
 0001:00012e72       ??4?$list@VQString@@V?$allocator@VQString@@@std@@@std@@QAEAAV01@ABV01@@Z 10013e72 f i bncs_skin_button.obj
 0001:00012ee8       ?clear@?$list@VQString@@V?$allocator@VQString@@@std@@@std@@QAEXXZ 10013ee8 f i bncs_skin_button.obj
 0001:00012f0f       ??_G?$QPtrList@VsignalConnection@@@@UAEPAXI@Z 10013f0f f i bncs_skin_button.obj
 0001:00012f0f       ??_E?$QPtrList@VsignalConnection@@@@UAEPAXI@Z 10013f0f f i bncs_skin_button.obj
 0001:00012f2b       ??_E?$QDict@VplaySound@@@@UAEPAXI@Z 10013f2b f i bncs_skin_button.obj
 0001:00012f76       ??_E?$QDict@VQWidget@@@@UAEPAXI@Z 10013f76 f i bncs_skin_button.obj
 0001:00012fc1       ??_E?$QDict@Vbncs_popup@@@@UAEPAXI@Z 10013fc1 f i bncs_skin_button.obj
 0001:0001300c       ??_E?$QIntDict@VQTimer@@@@UAEPAXI@Z 1001400c f i bncs_skin_button.obj
 0001:00013057       ??_E?$QDict@Vbncs_http@@@@UAEPAXI@Z 10014057 f i bncs_skin_button.obj
 0001:000130a2       ?insert@?$list@VQString@@V?$allocator@VQString@@@std@@@std@@QAE?AViterator@12@V312@ABVQString@@@Z 100140a2 f i bncs_skin_button.obj
 0001:000130dc       ?_Buynode@?$list@VQString@@V?$allocator@VQString@@@std@@@std@@IAEPAU_Node@12@PAU312@0@Z 100140dc f i bncs_skin_button.obj
 0001:00013100       ??1?$QMapPrivate@HVvalidState@@@@QAE@XZ 10014100 f i bncs_skin_button.obj
 0001:0001311f       ?remove@?$QMapPrivate@HVvalidState@@@@QAEXV?$QMapIterator@HVvalidState@@@@@Z 1001411f f i bncs_skin_button.obj
 0001:00013157       ??0?$QValueList@VvalidState@@@@QAE@XZ 10014157 f i bncs_skin_button.obj
 0001:00013191       ?append@?$QValueList@VvalidState@@@@QAE?AV?$QValueListIterator@VvalidState@@@@ABVvalidState@@@Z 10014191 f i bncs_skin_button.obj
 0001:000131c1       ??1?$QMapNode@HVvalidState@@@@QAE@XZ 100141c1 f i bncs_skin_button.obj
 0001:000131c9       ?erase@?$list@VQString@@V?$allocator@VQString@@@std@@@std@@QAE?AViterator@12@V312@@Z 100141c9 f i bncs_skin_button.obj
 0001:00013202       ?end@?$QValueList@VvalidState@@@@QAE?AV?$QValueListIterator@VvalidState@@@@XZ 10014202 f i bncs_skin_button.obj
 0001:00013221       ?deleteItem@?$QPtrList@VsignalConnection@@@@EAEXPAX@Z 10014221 f i bncs_skin_button.obj
 0001:00013242       ?deleteItem@?$QPtrList@VQWidgetFactory@@@@EAEXPAX@Z 10014242 f i bncs_skin_button.obj
 0001:00013242       ?deleteItem@?$QDict@VplaySound@@@@EAEXPAX@Z 10014242 f i bncs_skin_button.obj
 0001:00013259       ?deleteItem@?$QDict@VQWidget@@@@EAEXPAX@Z 10014259 f i bncs_skin_button.obj
 0001:00013259       ?deleteItem@?$QPtrList@VQAction@@@@EAEXPAX@Z 10014259 f i bncs_skin_button.obj
 0001:00013259       ?deleteItem@?$QDict@Vbncs_popup@@@@EAEXPAX@Z 10014259 f i bncs_skin_button.obj
 0001:00013259       ?deleteItem@?$QIntDict@VQTimer@@@@EAEXPAX@Z 10014259 f i bncs_skin_button.obj
 0001:00013259       ?deleteItem@?$QDict@Vbncs_http@@@@EAEXPAX@Z 10014259 f i bncs_skin_button.obj
 0001:00013271       ??4?$QMap@HVvalidState@@@@QAEAAV0@ABV0@@Z 10014271 f i bncs_skin_button.obj
 0001:000132a4       ?insert@?$QMap@HVvalidState@@@@QAE?AV?$QMapIterator@HVvalidState@@@@ABHABVvalidState@@_N@Z 100142a4 f i bncs_skin_button.obj
 0001:000132f2       ?insert@?$QMap@HVvalidState@@@@QAE?AU?$QPair@V?$QMapIterator@HVvalidState@@@@_N@@ABU?$QPair@$$CBHVvalidState@@@@@Z 100142f2 f i bncs_skin_button.obj
 0001:0001334a       ?erase@?$QMap@HVvalidState@@@@QAEXABH@Z 1001434a f i bncs_skin_button.obj
 0001:0001334a       ?remove@?$QMap@HVvalidState@@@@QAEXABH@Z 1001434a f i bncs_skin_button.obj
 0001:00013394       ?count@?$QMap@HVvalidState@@@@QBEIABH@Z 10014394 f i bncs_skin_button.obj
 0001:000133d7       ??A?$QMap@HVvalidState@@@@QAEAAVvalidState@@ABH@Z 100143d7 f i bncs_skin_button.obj
 0001:0001344e       ??0validState@@QAE@XZ      1001444e f i bncs_skin_button.obj
 0001:000134a8       ??_EvalidState@@UAEPAXI@Z  100144a8 f i bncs_skin_button.obj
 0001:000134a8       ??_GvalidState@@UAEPAXI@Z  100144a8 f i bncs_skin_button.obj
 0001:000134c4       ?clear@?$QMap@HVvalidState@@@@QAEXXZ 100144c4 f i bncs_skin_button.obj
 0001:0001350c       ?detachInternal@?$QMap@HVvalidState@@@@AAEXXZ 1001450c f i bncs_skin_button.obj
 0001:0001354a       ?remove@?$QValueListPrivate@VQString@@@@QAEIABVQString@@@Z 1001454a f i bncs_skin_button.obj
 0001:0001359b       ?remove@?$QValueListPrivate@VQString@@@@QAE?AV?$QValueListIterator@VQString@@@@V2@@Z 1001459b f i bncs_skin_button.obj
 0001:000135ed       ??0?$QMapPrivate@HVvalidState@@@@QAE@XZ 100145ed f i bncs_skin_button.obj
 0001:00013654       ?clear@?$QMapPrivate@HVvalidState@@@@QAEXXZ 10014654 f i bncs_skin_button.obj
 0001:00013683       ?find@?$QMapPrivate@HVvalidState@@@@QBE?AV?$QMapConstIterator@HVvalidState@@@@ABH@Z 10014683 f i bncs_skin_button.obj
 0001:000136c7       ?detachInternal@?$QValueList@VvalidState@@@@AAEXXZ 100146c7 f i bncs_skin_button.obj
 0001:00013708       ??0?$QValueListPrivate@VvalidState@@@@QAE@XZ 10014708 f i bncs_skin_button.obj
 0001:00013770       ?insert@?$QValueListPrivate@VvalidState@@@@QAE?AV?$QValueListIterator@VvalidState@@@@V2@ABVvalidState@@@Z 10014770 f i bncs_skin_button.obj
 0001:000137d5       ?_Construct@std@@YAXPAVQString@@ABV2@@Z 100147d5 f i bncs_skin_button.obj
 0001:00013803       ??4validState@@QAEAAV0@ABV0@@Z 10014803 f i bncs_skin_button.obj
 0001:00013844       ??_G?$QValueListPrivate@VvalidState@@@@UAEPAXI@Z 10014844 f i bncs_skin_button.obj
 0001:00013844       ??_E?$QValueListPrivate@VvalidState@@@@UAEPAXI@Z 10014844 f i bncs_skin_button.obj
 0001:00013860       ??1?$QValueListPrivate@VvalidState@@@@UAE@XZ 10014860 f i bncs_skin_button.obj
 0001:00013898       ??_G?$QValueListNode@VvalidState@@@@UAEPAXI@Z 10014898 f i bncs_skin_button.obj
 0001:00013898       ??_E?$QValueListNode@VvalidState@@@@UAEPAXI@Z 10014898 f i bncs_skin_button.obj
 0001:000138b4       ??1?$QValueListNode@VvalidState@@@@UAE@XZ 100148b4 f i bncs_skin_button.obj
 0001:000138c2       ??0validState@@QAE@ABV0@@Z 100148c2 f i bncs_skin_button.obj
 0001:0001392d       ??0?$QMapPrivate@HVvalidState@@@@QAE@PBV0@@Z 1001492d f i bncs_skin_button.obj
 0001:000139e7       ?clear@?$QMapPrivate@HVvalidState@@@@QAEXPAU?$QMapNode@HVvalidState@@@@@Z 100149e7 f i bncs_skin_button.obj
 0001:00013a1e       ?insertSingle@?$QMapPrivate@HVvalidState@@@@QAE?AV?$QMapIterator@HVvalidState@@@@ABH@Z 10014a1e f i bncs_skin_button.obj
 0001:00013a96       ??0?$QValueListPrivate@VvalidState@@@@QAE@ABV0@@Z 10014a96 f i bncs_skin_button.obj
 0001:00013b3f       ?copy@?$QMapPrivate@HVvalidState@@@@QAEPAU?$QMapNode@HVvalidState@@@@PAU2@@Z 10014b3f f i bncs_skin_button.obj
 0001:00013bcc       ?insert@?$QMapPrivate@HVvalidState@@@@QAE?AV?$QMapIterator@HVvalidState@@@@PAUQMapNodeBase@@0ABH@Z 10014bcc f i bncs_skin_button.obj
 0001:00013c78       ??0?$QMapNode@HVvalidState@@@@QAE@ABU0@@Z 10014c78 f i bncs_skin_button.obj
 0001:00013cbe       ??_Ebncs_enum@@WCI@AEPAXI@Z 10014cbe f i bncs_skin_button.obj
 0001:00013cc6       ??_Ebncs_enum@@WBAM@AEPAXI@Z 10014cc6 f i bncs_skin_button.obj
 0001:00013cd1       ??_Ebncs_script_loader@@WCI@AEPAXI@Z 10014cd1 f i bncs_skin_button.obj
 0001:00013cd9       ??_Ebncs_script_loader@@WMM@AEPAXI@Z 10014cd9 f i bncs_skin_button.obj
 0001:00013ce4       ??_Ebncs_ss_base@@WCI@AEPAXI@Z 10014ce4 f i bncs_skin_button.obj
 0001:00013cec       ?metaObject@bncs_range@@UBEPAVQMetaObject@@XZ 10014cec f i bncs_slider_style.obj
 0001:00013cf1       ??0bncs_range@@QAE@ABV0@@Z 10014cf1 f i bncs_slider_style.obj
 0001:00013ea0       ??_Fbncs_range@@QAEXXZ     10014ea0 f i bncs_slider_style.obj
 0001:00013eab       ??_Ebncs_range@@UAEPAXI@Z  10014eab f i bncs_slider_style.obj
 0001:00013ef9       ?drawComplexControl@bncs_slider_style@@UBEXW4ComplexControl@QStyle@@PAVQPainter@@PBVQWidget@@ABVQRect@@ABVQColorGroup@@IIIABVQStyleOption@@@Z 10014ef9 f   bncs_slider_style.obj
 0001:00014114       ?getSlotPixmap@bncs_range_fader@@QAE?AVQPixmap@@XZ 10015114 f i bncs_slider_style.obj
 0001:00014133       ?pixelMetric@bncs_slider_style@@UBEHW4PixelMetric@QStyle@@PBVQWidget@@@Z 10015133 f   bncs_slider_style.obj
 0001:00014152       ?pixelMetric@bncs_slider_style@@QBEHW4bncs_PixelMetric@1@PBVQWidget@@@Z 10015152 f   bncs_slider_style.obj
 0001:00014174       ?querySubControlMetrics@bncs_slider_style@@QBE?AVQRect@@W4ComplexControl@QStyle@@PBVQWidget@@W4bncs_SubControl@1@ABVQStyleOption@@@Z 10015174 f   bncs_slider_style.obj
 0001:000142e6       ??_Ebncs_range@@WCI@AEPAXI@Z 100152e6 f i bncs_slider_style.obj
 0001:000142ee       ??_Ebncs_range@@WBAM@AEPAXI@Z 100152ee f i bncs_slider_style.obj
 0001:000142f9       ??0bncs_ss_base@@QAE@PAVQWidget@@PBDI@Z 100152f9 f   bncs_ss_base.obj
 0001:000143e8       ??1bncs_ss_base@@UAE@XZ    100153e8 f   bncs_ss_base.obj
 0001:000144cd       ?newstyle@bncs_ss_base@@QAEXAAVQString@@@Z 100154cd f   bncs_ss_base.obj
 0001:00014587       ?edit@bncs_ss_base@@QAEXPA_N0@Z 10015587 f   bncs_ss_base.obj
 0001:000148c9       ??_EQTabDialog@@UAEPAXI@Z  100158c9 f i bncs_ss_base.obj
 0001:000148c9       ??_GQTabDialog@@UAEPAXI@Z  100158c9 f i bncs_ss_base.obj
 0001:000148e6       ?addEditWidget@bncs_ss_base@@UAE?AVQWidgetList@@XZ 100158e6 f   bncs_ss_base.obj
 0001:0001494f       ?addEditTabs@bncs_ss_base@@AAEXVQWidgetList@@@Z 1001594f f   bncs_ss_base.obj
 0001:00014a18       ?setDevSlot@bncs_ss_base@@QAEXXZ 10015a18 f   bncs_ss_base.obj
 0001:00014a56       ?setDevSlot@bncs_ss_base@@QAE_NABVQString@@0@Z 10015a56 f   bncs_ss_base.obj
 0001:00014ab0       ?resizeEvent@bncs_ss_base@@UAEXPAVQResizeEvent@@@Z 10015ab0 f   bncs_ss_base.obj
 0001:00014ae0       ?paintEvent@bncs_ss_base@@UAEXPAVQPaintEvent@@@Z 10015ae0 f   bncs_ss_base.obj
 0001:00014af6       ?mousePressEvent@bncs_ss_base@@UAEXPAVQMouseEvent@@@Z 10015af6 f   bncs_ss_base.obj
 0001:00014b0c       ?mouseReleaseEvent@bncs_ss_base@@UAEXPAVQMouseEvent@@@Z 10015b0c f   bncs_ss_base.obj
 0001:00014b22       ?updateMask@bncs_ss_base@@UAEXXZ 10015b22 f   bncs_ss_base.obj
 0001:00014b32       ?showStyleBrowser@bncs_ss_base@@QAEXPA_NABVQString@@@Z 10015b32 f   bncs_ss_base.obj
 0001:00014c0f       ??0?$QMap@VQString@@VparamInfo@@@@QAE@XZ 10015c0f f i bncs_ss_base.obj
 0001:00014c49       ??1?$QMap@VQString@@VparamInfo@@@@QAE@XZ 10015c49 f i bncs_ss_base.obj
 0001:00014c66       ?begin@?$QMap@VQString@@VparamInfo@@@@QAE?AV?$QMapIterator@VQString@@VparamInfo@@@@XZ 10015c66 f i bncs_ss_base.obj
 0001:00014c86       ?end@?$QMap@VQString@@VparamInfo@@@@QAE?AV?$QMapIterator@VQString@@VparamInfo@@@@XZ 10015c86 f i bncs_ss_base.obj
 0001:00014ca4       ?constEnd@?$QMap@VQString@@VparamInfo@@@@QBE?AV?$QMapConstIterator@VQString@@VparamInfo@@@@XZ 10015ca4 f i bncs_ss_base.obj
 0001:00014ca4       ?end@?$QMap@VQString@@VparamInfo@@@@QBE?AV?$QMapConstIterator@VQString@@VparamInfo@@@@XZ 10015ca4 f i bncs_ss_base.obj
 0001:00014ca4       ?constEnd@?$QMap@HVvalidState@@@@QBE?AV?$QMapConstIterator@HVvalidState@@@@XZ 10015ca4 f i bncs_ss_base.obj
 0001:00014ca4       ?constEnd@?$QMap@VQString@@VcomplexInstance@@@@QBE?AV?$QMapConstIterator@VQString@@VcomplexInstance@@@@XZ 10015ca4 f i bncs_ss_base.obj
 0001:00014ca4       ?end@?$QMap@VQString@@Vstyleentry@@@@QBE?AV?$QMapConstIterator@VQString@@Vstyleentry@@@@XZ 10015ca4 f i bncs_ss_base.obj
 0001:00014ca4       ?constEnd@?$QMap@VQString@@VcomplexType@@@@QBE?AV?$QMapConstIterator@VQString@@VcomplexType@@@@XZ 10015ca4 f i bncs_ss_base.obj
 0001:00014ca4       ?end@?$QMap@VQString@@VdeviceTypeInfo@@@@QBE?AV?$QMapConstIterator@VQString@@VdeviceTypeInfo@@@@XZ 10015ca4 f i bncs_ss_base.obj
 0001:00014ca4       ?constEnd@?$QMap@VQString@@Vstyleentry@@@@QBE?AV?$QMapConstIterator@VQString@@Vstyleentry@@@@XZ 10015ca4 f i bncs_ss_base.obj
 0001:00014ca4       ?constEnd@?$QMap@VQString@@VdeviceTypeInfo@@@@QBE?AV?$QMapConstIterator@VQString@@VdeviceTypeInfo@@@@XZ 10015ca4 f i bncs_ss_base.obj
 0001:00014ca4       ?end@?$QMap@VQString@@VcomplexInstance@@@@QBE?AV?$QMapConstIterator@VQString@@VcomplexInstance@@@@XZ 10015ca4 f i bncs_ss_base.obj
 0001:00014ca4       ?end@?$QMap@HVvalidState@@@@QBE?AV?$QMapConstIterator@HVvalidState@@@@XZ 10015ca4 f i bncs_ss_base.obj
 0001:00014ca4       ?end@?$QMap@VQString@@VcomplexType@@@@QBE?AV?$QMapConstIterator@VQString@@VcomplexType@@@@XZ 10015ca4 f i bncs_ss_base.obj
 0001:00014ca4       ?end@?$QMap@VQString@@VcomplexParam@@@@QBE?AV?$QMapConstIterator@VQString@@VcomplexParam@@@@XZ 10015ca4 f i bncs_ss_base.obj
 0001:00014ca4       ?constEnd@?$QMap@VQString@@VinstanceInfo@@@@QBE?AV?$QMapConstIterator@VQString@@VinstanceInfo@@@@XZ 10015ca4 f i bncs_ss_base.obj
 0001:00014ca4       ?constEnd@?$QMap@VQString@@VcomplexParam@@@@QBE?AV?$QMapConstIterator@VQString@@VcomplexParam@@@@XZ 10015ca4 f i bncs_ss_base.obj
 0001:00014ca4       ?end@?$QMap@VQString@@VinstanceInfo@@@@QBE?AV?$QMapConstIterator@VQString@@VinstanceInfo@@@@XZ 10015ca4 f i bncs_ss_base.obj
 0001:00014cb2       ?replace@?$QMap@VQString@@VparamInfo@@@@QAE?AV?$QMapIterator@VQString@@VparamInfo@@@@ABVQString@@ABVparamInfo@@@Z 10015cb2 f i bncs_ss_base.obj
 0001:00014cda       ?find@?$QMap@VQString@@VparamInfo@@@@QAE?AV?$QMapIterator@VQString@@VparamInfo@@@@ABVQString@@@Z 10015cda f i bncs_ss_base.obj
 0001:00014d06       ?contains@?$QMap@VQString@@VcomplexInstance@@@@QBE_NABVQString@@@Z 10015d06 f i bncs_ss_base.obj
 0001:00014d06       ?contains@?$QMap@VQString@@VparamInfo@@@@QBE_NABVQString@@@Z 10015d06 f i bncs_ss_base.obj
 0001:00014d06       ?contains@?$QMap@VQString@@VcomplexType@@@@QBE_NABVQString@@@Z 10015d06 f i bncs_ss_base.obj
 0001:00014d28       ?keys@?$QMap@VQString@@VparamInfo@@@@QBE?AV?$QValueList@VQString@@@@XZ 10015d28 f i bncs_ss_base.obj
 0001:00014dad       ?values@?$QMap@VQString@@VparamInfo@@@@QBE?AV?$QValueList@VparamInfo@@@@XZ 10015dad f i bncs_ss_base.obj
 0001:00014e30       ?erase@?$QMap@VQString@@VparamInfo@@@@QAEXV?$QMapIterator@VQString@@VparamInfo@@@@@Z 10015e30 f i bncs_ss_base.obj
 0001:00014e30       ?remove@?$QMap@VQString@@VparamInfo@@@@QAEXV?$QMapIterator@VQString@@VparamInfo@@@@@Z 10015e30 f i bncs_ss_base.obj
 0001:00014e53       ?detach@?$QMap@VQString@@VparamInfo@@@@IAEXXZ 10015e53 f i bncs_ss_base.obj
 0001:00014e60       ??0?$QMap@VQString@@VcomplexParam@@@@QAE@XZ 10015e60 f i bncs_ss_base.obj
 0001:00014e9a       ??1?$QMap@VQString@@VcomplexParam@@@@QAE@XZ 10015e9a f i bncs_ss_base.obj
 0001:00014eb7       ?begin@?$QMap@VQString@@VcomplexParam@@@@QAE?AV?$QMapIterator@VQString@@VcomplexParam@@@@XZ 10015eb7 f i bncs_ss_base.obj
 0001:00014ed7       ?end@?$QMap@VQString@@VcomplexParam@@@@QAE?AV?$QMapIterator@VQString@@VcomplexParam@@@@XZ 10015ed7 f i bncs_ss_base.obj
 0001:00014ef5       ?replace@?$QMap@VQString@@VcomplexParam@@@@QAE?AV?$QMapIterator@VQString@@VcomplexParam@@@@ABVQString@@ABVcomplexParam@@@Z 10015ef5 f i bncs_ss_base.obj
 0001:00014f1d       ?remove@?$QMap@VQString@@VcomplexParam@@@@QAEXV?$QMapIterator@VQString@@VcomplexParam@@@@@Z 10015f1d f i bncs_ss_base.obj
 0001:00014f1d       ?erase@?$QMap@VQString@@VcomplexParam@@@@QAEXV?$QMapIterator@VQString@@VcomplexParam@@@@@Z 10015f1d f i bncs_ss_base.obj
 0001:00014f40       ?find@?$QMap@VQString@@VcomplexParam@@@@QAE?AV?$QMapIterator@VQString@@VcomplexParam@@@@ABVQString@@@Z 10015f40 f i bncs_ss_base.obj
 0001:00014f6c       ?find@?$QMap@VQString@@VcomplexParam@@@@QBE?AV?$QMapConstIterator@VQString@@VcomplexParam@@@@ABVQString@@@Z 10015f6c f i bncs_ss_base.obj
 0001:00014f82       ??A?$QMap@VQString@@VcomplexParam@@@@QBEABVcomplexParam@@ABVQString@@@Z 10015f82 f i bncs_ss_base.obj
 0001:00014f9c       ?contains@?$QMap@VQString@@VcomplexParam@@@@QBE_NABVQString@@@Z 10015f9c f i bncs_ss_base.obj
 0001:00014fbe       ?keys@?$QMap@VQString@@VcomplexParam@@@@QBE?AV?$QValueList@VQString@@@@XZ 10015fbe f i bncs_ss_base.obj
 0001:00015043       ?values@?$QMap@VQString@@VcomplexParam@@@@QBE?AV?$QValueList@VcomplexParam@@@@XZ 10016043 f i bncs_ss_base.obj
 0001:000150c6       ?isEmpty@?$QMap@VQString@@VcomplexParam@@@@QBE_NXZ 100160c6 f i bncs_ss_base.obj
 0001:000150c6       ?empty@?$QMap@VQString@@VparamInfo@@@@QBE_NXZ 100160c6 f i bncs_ss_base.obj
 0001:000150c6       ?empty@?$QMap@VQString@@VcomplexParam@@@@QBE_NXZ 100160c6 f i bncs_ss_base.obj
 0001:000150c6       ?empty@?$QMap@VQString@@Vstyleentry@@@@QBE_NXZ 100160c6 f i bncs_ss_base.obj
 0001:000150c6       ?isEmpty@?$QMap@VQString@@VinstanceInfo@@@@QBE_NXZ 100160c6 f i bncs_ss_base.obj
 0001:000150c6       ?isEmpty@?$QMap@VQString@@VcomplexType@@@@QBE_NXZ 100160c6 f i bncs_ss_base.obj
 0001:000150c6       ?isEmpty@?$QMap@VQString@@VparamInfo@@@@QBE_NXZ 100160c6 f i bncs_ss_base.obj
 0001:000150c6       ?empty@?$QMap@VQString@@VcomplexType@@@@QBE_NXZ 100160c6 f i bncs_ss_base.obj
 0001:000150c6       ?isEmpty@?$QMap@VQString@@VdeviceTypeInfo@@@@QBE_NXZ 100160c6 f i bncs_ss_base.obj
 0001:000150c6       ?isEmpty@?$QMap@VQString@@VcomplexInstance@@@@QBE_NXZ 100160c6 f i bncs_ss_base.obj
 0001:000150c6       ?empty@?$QMap@HVvalidState@@@@QBE_NXZ 100160c6 f i bncs_ss_base.obj
 0001:000150c6       ?isEmpty@?$QMap@HVvalidState@@@@QBE_NXZ 100160c6 f i bncs_ss_base.obj
 0001:000150c6       ?isEmpty@?$QMap@VQString@@Vstyleentry@@@@QBE_NXZ 100160c6 f i bncs_ss_base.obj
 0001:000150c6       ?empty@?$QMap@VQString@@VdeviceTypeInfo@@@@QBE_NXZ 100160c6 f i bncs_ss_base.obj
 0001:000150c6       ?empty@?$QMap@VQString@@VinstanceInfo@@@@QBE_NXZ 100160c6 f i bncs_ss_base.obj
 0001:000150c6       ?empty@?$QMap@VQString@@VcomplexInstance@@@@QBE_NXZ 100160c6 f i bncs_ss_base.obj
 0001:000150d3       ?detach@?$QMap@VQString@@VcomplexParam@@@@IAEXXZ 100160d3 f i bncs_ss_base.obj
 0001:000150e0       ??0?$QMap@VQString@@VcomplexInstance@@@@QAE@XZ 100160e0 f i bncs_ss_base.obj
 0001:0001511a       ??1?$QMap@VQString@@VcomplexInstance@@@@QAE@XZ 1001611a f i bncs_ss_base.obj
 0001:00015137       ?begin@?$QMap@VQString@@VcomplexInstance@@@@QAE?AV?$QMapIterator@VQString@@VcomplexInstance@@@@XZ 10016137 f i bncs_ss_base.obj
 0001:00015157       ?end@?$QMap@VQString@@VcomplexInstance@@@@QAE?AV?$QMapIterator@VQString@@VcomplexInstance@@@@XZ 10016157 f i bncs_ss_base.obj
 0001:00015175       ?replace@?$QMap@VQString@@VcomplexInstance@@@@QAE?AV?$QMapIterator@VQString@@VcomplexInstance@@@@ABVQString@@ABVcomplexInstance@@@Z 10016175 f i bncs_ss_base.obj
 0001:0001519d       ?find@?$QMap@VQString@@VcomplexInstance@@@@QAE?AV?$QMapIterator@VQString@@VcomplexInstance@@@@ABVQString@@@Z 1001619d f i bncs_ss_base.obj
 0001:000151c9       ?keys@?$QMap@VQString@@VcomplexInstance@@@@QBE?AV?$QValueList@VQString@@@@XZ 100161c9 f i bncs_ss_base.obj
 0001:0001524e       ?values@?$QMap@VQString@@VcomplexInstance@@@@QBE?AV?$QValueList@VcomplexInstance@@@@XZ 1001624e f i bncs_ss_base.obj
 0001:000152d1       ?erase@?$QMap@VQString@@VcomplexInstance@@@@QAEXV?$QMapIterator@VQString@@VcomplexInstance@@@@@Z 100162d1 f i bncs_ss_base.obj
 0001:000152d1       ?remove@?$QMap@VQString@@VcomplexInstance@@@@QAEXV?$QMapIterator@VQString@@VcomplexInstance@@@@@Z 100162d1 f i bncs_ss_base.obj
 0001:000152f4       ?detach@?$QMap@VQString@@VcomplexInstance@@@@IAEXXZ 100162f4 f i bncs_ss_base.obj
 0001:00015301       ??0?$QMap@VQString@@VinstanceInfo@@@@QAE@XZ 10016301 f i bncs_ss_base.obj
 0001:0001533b       ??1?$QMap@VQString@@VinstanceInfo@@@@QAE@XZ 1001633b f i bncs_ss_base.obj
 0001:00015358       ?begin@?$QMap@VQString@@VinstanceInfo@@@@QAE?AV?$QMapIterator@VQString@@VinstanceInfo@@@@XZ 10016358 f i bncs_ss_base.obj
 0001:00015378       ?end@?$QMap@VQString@@VinstanceInfo@@@@QAE?AV?$QMapIterator@VQString@@VinstanceInfo@@@@XZ 10016378 f i bncs_ss_base.obj
 0001:00015396       ?replace@?$QMap@VQString@@VinstanceInfo@@@@QAE?AV?$QMapIterator@VQString@@VinstanceInfo@@@@ABVQString@@ABVinstanceInfo@@@Z 10016396 f i bncs_ss_base.obj
 0001:000153be       ?find@?$QMap@VQString@@VinstanceInfo@@@@QAE?AV?$QMapIterator@VQString@@VinstanceInfo@@@@ABVQString@@@Z 100163be f i bncs_ss_base.obj
 0001:000153ea       ?find@?$QMap@VQString@@VinstanceInfo@@@@QBE?AV?$QMapConstIterator@VQString@@VinstanceInfo@@@@ABVQString@@@Z 100163ea f i bncs_ss_base.obj
 0001:00015400       ??A?$QMap@VQString@@VinstanceInfo@@@@QBEABVinstanceInfo@@ABVQString@@@Z 10016400 f i bncs_ss_base.obj
 0001:0001541a       ?contains@?$QMap@VQString@@VinstanceInfo@@@@QBE_NABVQString@@@Z 1001641a f i bncs_ss_base.obj
 0001:0001543c       ?keys@?$QMap@VQString@@VinstanceInfo@@@@QBE?AV?$QValueList@VQString@@@@XZ 1001643c f i bncs_ss_base.obj
 0001:000154c1       ?values@?$QMap@VQString@@VinstanceInfo@@@@QBE?AV?$QValueList@VinstanceInfo@@@@XZ 100164c1 f i bncs_ss_base.obj
 0001:00015544       ?remove@?$QMap@VQString@@VinstanceInfo@@@@QAEXV?$QMapIterator@VQString@@VinstanceInfo@@@@@Z 10016544 f i bncs_ss_base.obj
 0001:00015544       ?erase@?$QMap@VQString@@VinstanceInfo@@@@QAEXV?$QMapIterator@VQString@@VinstanceInfo@@@@@Z 10016544 f i bncs_ss_base.obj
 0001:00015567       ?detach@?$QMap@VQString@@VinstanceInfo@@@@IAEXXZ 10016567 f i bncs_ss_base.obj
 0001:00015574       ??0?$QMap@VQString@@VdeviceTypeInfo@@@@QAE@XZ 10016574 f i bncs_ss_base.obj
 0001:000155ae       ??0?$QMap@VQString@@Vstyleentry@@@@QAE@ABV0@@Z 100165ae f i bncs_ss_base.obj
 0001:000155ae       ??0?$QMap@VQString@@VdeviceTypeInfo@@@@QAE@ABV0@@Z 100165ae f i bncs_ss_base.obj
 0001:000155ae       ??0?$QMap@VQString@@VcomplexParam@@@@QAE@ABV0@@Z 100165ae f i bncs_ss_base.obj
 0001:000155ae       ??0?$QMap@VQString@@VcomplexType@@@@QAE@ABV0@@Z 100165ae f i bncs_ss_base.obj
 0001:000155ae       ??0?$QMap@HVvalidState@@@@QAE@ABV0@@Z 100165ae f i bncs_ss_base.obj
 0001:000155ae       ??0?$QMap@VQString@@VcomplexInstance@@@@QAE@ABV0@@Z 100165ae f i bncs_ss_base.obj
 0001:000155ae       ??0?$QMap@VQString@@VparamInfo@@@@QAE@ABV0@@Z 100165ae f i bncs_ss_base.obj
 0001:000155ae       ??0?$QMap@VQString@@VinstanceInfo@@@@QAE@ABV0@@Z 100165ae f i bncs_ss_base.obj
 0001:000155bd       ??1?$QMap@VQString@@VdeviceTypeInfo@@@@QAE@XZ 100165bd f i bncs_ss_base.obj
 0001:000155da       ?begin@?$QMap@VQString@@VdeviceTypeInfo@@@@QAE?AV?$QMapIterator@VQString@@VdeviceTypeInfo@@@@XZ 100165da f i bncs_ss_base.obj
 0001:000155fa       ?end@?$QMap@VQString@@VdeviceTypeInfo@@@@QAE?AV?$QMapIterator@VQString@@VdeviceTypeInfo@@@@XZ 100165fa f i bncs_ss_base.obj
 0001:00015618       ?replace@?$QMap@VQString@@VdeviceTypeInfo@@@@QAE?AV?$QMapIterator@VQString@@VdeviceTypeInfo@@@@ABVQString@@ABVdeviceTypeInfo@@@Z 10016618 f i bncs_ss_base.obj
 0001:00015640       ?find@?$QMap@VQString@@VdeviceTypeInfo@@@@QAE?AV?$QMapIterator@VQString@@VdeviceTypeInfo@@@@ABVQString@@@Z 10016640 f i bncs_ss_base.obj
 0001:0001566c       ?find@?$QMap@VQString@@VdeviceTypeInfo@@@@QBE?AV?$QMapConstIterator@VQString@@VdeviceTypeInfo@@@@ABVQString@@@Z 1001666c f i bncs_ss_base.obj
 0001:0001566c       ?find@?$QMap@VQString@@Vstyleentry@@@@QBE?AV?$QMapConstIterator@VQString@@Vstyleentry@@@@ABVQString@@@Z 1001666c f i bncs_ss_base.obj
 0001:00015682       ?contains@?$QMap@VQString@@Vstyleentry@@@@QBE_NABVQString@@@Z 10016682 f i bncs_ss_base.obj
 0001:00015682       ?contains@?$QMap@VQString@@VdeviceTypeInfo@@@@QBE_NABVQString@@@Z 10016682 f i bncs_ss_base.obj
 0001:000156a4       ?count@?$QMap@VQString@@VcomplexParam@@@@QBEIXZ 100166a4 f i bncs_ss_base.obj
 0001:000156a4       ?count@?$QMap@VQString@@VparamInfo@@@@QBEIXZ 100166a4 f i bncs_ss_base.obj
 0001:000156a4       ?size@?$QMap@VQString@@VdeviceTypeInfo@@@@QBEIXZ 100166a4 f i bncs_ss_base.obj
 0001:000156a4       ?count@?$QMap@VQString@@VinstanceInfo@@@@QBEIXZ 100166a4 f i bncs_ss_base.obj
 0001:000156a4       ?size@?$QMap@VQString@@VparamInfo@@@@QBEIXZ 100166a4 f i bncs_ss_base.obj
 0001:000156a4       ?size@?$QMap@HVvalidState@@@@QBEIXZ 100166a4 f i bncs_ss_base.obj
 0001:000156a4       ?size@?$QMap@VQString@@VcomplexParam@@@@QBEIXZ 100166a4 f i bncs_ss_base.obj
 0001:000156a4       ?size@?$QMap@VQString@@Vstyleentry@@@@QBEIXZ 100166a4 f i bncs_ss_base.obj
 0001:000156a4       ?count@?$QMap@HVvalidState@@@@QBEIXZ 100166a4 f i bncs_ss_base.obj
 0001:000156a4       ?count@?$QMap@VQString@@VcomplexType@@@@QBEIXZ 100166a4 f i bncs_ss_base.obj
 0001:000156a4       ?size@?$QMap@VQString@@VcomplexType@@@@QBEIXZ 100166a4 f i bncs_ss_base.obj
 0001:000156a4       ?count@?$QMap@VQString@@Vstyleentry@@@@QBEIXZ 100166a4 f i bncs_ss_base.obj
 0001:000156a4       ?count@?$QMap@VQString@@VdeviceTypeInfo@@@@QBEIXZ 100166a4 f i bncs_ss_base.obj
 0001:000156a4       ?size@?$QMap@VQString@@VinstanceInfo@@@@QBEIXZ 100166a4 f i bncs_ss_base.obj
 0001:000156a4       ?size@?$QMap@VQString@@VcomplexInstance@@@@QBEIXZ 100166a4 f i bncs_ss_base.obj
 0001:000156a4       ?count@?$QMap@VQString@@VcomplexInstance@@@@QBEIXZ 100166a4 f i bncs_ss_base.obj
 0001:000156aa       ?keys@?$QMap@VQString@@VdeviceTypeInfo@@@@QBE?AV?$QValueList@VQString@@@@XZ 100166aa f i bncs_ss_base.obj
 0001:0001572f       ?values@?$QMap@VQString@@VdeviceTypeInfo@@@@QBE?AV?$QValueList@VdeviceTypeInfo@@@@XZ 1001672f f i bncs_ss_base.obj
 0001:000157b2       ?remove@?$QMap@VQString@@VdeviceTypeInfo@@@@QAEXV?$QMapIterator@VQString@@VdeviceTypeInfo@@@@@Z 100167b2 f i bncs_ss_base.obj
 0001:000157b2       ?erase@?$QMap@VQString@@VdeviceTypeInfo@@@@QAEXV?$QMapIterator@VQString@@VdeviceTypeInfo@@@@@Z 100167b2 f i bncs_ss_base.obj
 0001:000157d5       ?detach@?$QMap@VQString@@VdeviceTypeInfo@@@@IAEXXZ 100167d5 f i bncs_ss_base.obj
 0001:000157e2       ??0?$QMap@VQString@@VcomplexType@@@@QAE@XZ 100167e2 f i bncs_ss_base.obj
 0001:0001581c       ??1?$QMap@VQString@@VcomplexType@@@@QAE@XZ 1001681c f i bncs_ss_base.obj
 0001:00015839       ?begin@?$QMap@VQString@@VcomplexType@@@@QAE?AV?$QMapIterator@VQString@@VcomplexType@@@@XZ 10016839 f i bncs_ss_base.obj
 0001:00015859       ?end@?$QMap@VQString@@VcomplexType@@@@QAE?AV?$QMapIterator@VQString@@VcomplexType@@@@XZ 10016859 f i bncs_ss_base.obj
 0001:00015877       ?constBegin@?$QMap@VQString@@Vstyleentry@@@@QBE?AV?$QMapConstIterator@VQString@@Vstyleentry@@@@XZ 10016877 f i bncs_ss_base.obj
 0001:00015877       ?constBegin@?$QMap@VQString@@VcomplexType@@@@QBE?AV?$QMapConstIterator@VQString@@VcomplexType@@@@XZ 10016877 f i bncs_ss_base.obj
 0001:00015877       ?begin@?$QMap@VQString@@VcomplexParam@@@@QBE?AV?$QMapConstIterator@VQString@@VcomplexParam@@@@XZ 10016877 f i bncs_ss_base.obj
 0001:00015877       ?constBegin@?$QMap@VQString@@VdeviceTypeInfo@@@@QBE?AV?$QMapConstIterator@VQString@@VdeviceTypeInfo@@@@XZ 10016877 f i bncs_ss_base.obj
 0001:00015877       ?begin@?$QMap@VQString@@VinstanceInfo@@@@QBE?AV?$QMapConstIterator@VQString@@VinstanceInfo@@@@XZ 10016877 f i bncs_ss_base.obj
 0001:00015877       ?begin@?$QMap@VQString@@Vstyleentry@@@@QBE?AV?$QMapConstIterator@VQString@@Vstyleentry@@@@XZ 10016877 f i bncs_ss_base.obj
 0001:00015877       ?constBegin@?$QMap@VQString@@VcomplexParam@@@@QBE?AV?$QMapConstIterator@VQString@@VcomplexParam@@@@XZ 10016877 f i bncs_ss_base.obj
 0001:00015877       ?constBegin@?$QMap@VQString@@VcomplexInstance@@@@QBE?AV?$QMapConstIterator@VQString@@VcomplexInstance@@@@XZ 10016877 f i bncs_ss_base.obj
 0001:00015877       ?begin@?$QMap@VQString@@VdeviceTypeInfo@@@@QBE?AV?$QMapConstIterator@VQString@@VdeviceTypeInfo@@@@XZ 10016877 f i bncs_ss_base.obj
 0001:00015877       ?constBegin@?$QMap@VQString@@VinstanceInfo@@@@QBE?AV?$QMapConstIterator@VQString@@VinstanceInfo@@@@XZ 10016877 f i bncs_ss_base.obj
 0001:00015877       ?begin@?$QMap@HVvalidState@@@@QBE?AV?$QMapConstIterator@HVvalidState@@@@XZ 10016877 f i bncs_ss_base.obj
 0001:00015877       ?constBegin@?$QMap@HVvalidState@@@@QBE?AV?$QMapConstIterator@HVvalidState@@@@XZ 10016877 f i bncs_ss_base.obj
 0001:00015877       ?begin@?$QMap@VQString@@VcomplexInstance@@@@QBE?AV?$QMapConstIterator@VQString@@VcomplexInstance@@@@XZ 10016877 f i bncs_ss_base.obj
 0001:00015877       ?begin@?$QMap@VQString@@VparamInfo@@@@QBE?AV?$QMapConstIterator@VQString@@VparamInfo@@@@XZ 10016877 f i bncs_ss_base.obj
 0001:00015877       ?constBegin@?$QMap@VQString@@VparamInfo@@@@QBE?AV?$QMapConstIterator@VQString@@VparamInfo@@@@XZ 10016877 f i bncs_ss_base.obj
 0001:00015877       ?begin@?$QMap@VQString@@VcomplexType@@@@QBE?AV?$QMapConstIterator@VQString@@VcomplexType@@@@XZ 10016877 f i bncs_ss_base.obj
 0001:00015887       ?replace@?$QMap@VQString@@VcomplexType@@@@QAE?AV?$QMapIterator@VQString@@VcomplexType@@@@ABVQString@@ABVcomplexType@@@Z 10016887 f i bncs_ss_base.obj
 0001:000158af       ?find@?$QMap@VQString@@VcomplexType@@@@QAE?AV?$QMapIterator@VQString@@VcomplexType@@@@ABVQString@@@Z 100168af f i bncs_ss_base.obj
 0001:000158db       ?find@?$QMap@VQString@@VcomplexType@@@@QBE?AV?$QMapConstIterator@VQString@@VcomplexType@@@@ABVQString@@@Z 100168db f i bncs_ss_base.obj
 0001:000158db       ?find@?$QMap@VQString@@VcomplexInstance@@@@QBE?AV?$QMapConstIterator@VQString@@VcomplexInstance@@@@ABVQString@@@Z 100168db f i bncs_ss_base.obj
 0001:000158db       ?find@?$QMap@VQString@@VparamInfo@@@@QBE?AV?$QMapConstIterator@VQString@@VparamInfo@@@@ABVQString@@@Z 100168db f i bncs_ss_base.obj
 0001:000158f1       ??A?$QMap@VQString@@VcomplexInstance@@@@QBEABVcomplexInstance@@ABVQString@@@Z 100168f1 f i bncs_ss_base.obj
 0001:000158f1       ??A?$QMap@VQString@@VparamInfo@@@@QBEABVparamInfo@@ABVQString@@@Z 100168f1 f i bncs_ss_base.obj
 0001:000158f1       ??A?$QMap@VQString@@VcomplexType@@@@QBEABVcomplexType@@ABVQString@@@Z 100168f1 f i bncs_ss_base.obj
 0001:0001590b       ?keys@?$QMap@VQString@@VcomplexType@@@@QBE?AV?$QValueList@VQString@@@@XZ 1001690b f i bncs_ss_base.obj
 0001:00015990       ?values@?$QMap@VQString@@VcomplexType@@@@QBE?AV?$QValueList@VcomplexType@@@@XZ 10016990 f i bncs_ss_base.obj
 0001:00015a13       ?erase@?$QMap@VQString@@VcomplexType@@@@QAEXV?$QMapIterator@VQString@@VcomplexType@@@@@Z 10016a13 f i bncs_ss_base.obj
 0001:00015a13       ?remove@?$QMap@VQString@@VcomplexType@@@@QAEXV?$QMapIterator@VQString@@VcomplexType@@@@@Z 10016a13 f i bncs_ss_base.obj
 0001:00015a36       ?detach@?$QMap@VQString@@VcomplexType@@@@IAEXXZ 10016a36 f i bncs_ss_base.obj
 0001:00015a43       ??1?$QMapPrivate@VQString@@VparamInfo@@@@QAE@XZ 10016a43 f i bncs_ss_base.obj
 0001:00015a62       ?remove@?$QMapPrivate@VQString@@VparamInfo@@@@QAEXV?$QMapIterator@VQString@@VparamInfo@@@@@Z 10016a62 f i bncs_ss_base.obj
 0001:00015a9a       ??0?$QValueList@VparamInfo@@@@QAE@XZ 10016a9a f i bncs_ss_base.obj
 0001:00015ad4       ?append@?$QValueList@VparamInfo@@@@QAE?AV?$QValueListIterator@VparamInfo@@@@ABVparamInfo@@@Z 10016ad4 f i bncs_ss_base.obj
 0001:00015b04       ??1?$QMapPrivate@VQString@@VcomplexParam@@@@QAE@XZ 10016b04 f i bncs_ss_base.obj
 0001:00015b23       ?remove@?$QMapPrivate@VQString@@VcomplexParam@@@@QAEXV?$QMapIterator@VQString@@VcomplexParam@@@@@Z 10016b23 f i bncs_ss_base.obj
 0001:00015b5b       ??0?$QValueList@VcomplexParam@@@@QAE@XZ 10016b5b f i bncs_ss_base.obj
 0001:00015b95       ?append@?$QValueList@VcomplexParam@@@@QAE?AV?$QValueListIterator@VcomplexParam@@@@ABVcomplexParam@@@Z 10016b95 f i bncs_ss_base.obj
 0001:00015bc5       ??1?$QMapPrivate@VQString@@VcomplexInstance@@@@QAE@XZ 10016bc5 f i bncs_ss_base.obj
 0001:00015be4       ?remove@?$QMapPrivate@VQString@@VcomplexInstance@@@@QAEXV?$QMapIterator@VQString@@VcomplexInstance@@@@@Z 10016be4 f i bncs_ss_base.obj
 0001:00015c1c       ??0?$QValueList@VcomplexInstance@@@@QAE@XZ 10016c1c f i bncs_ss_base.obj
 0001:00015c56       ?append@?$QValueList@VcomplexInstance@@@@QAE?AV?$QValueListIterator@VcomplexInstance@@@@ABVcomplexInstance@@@Z 10016c56 f i bncs_ss_base.obj
 0001:00015c86       ??1?$QMapPrivate@VQString@@VinstanceInfo@@@@QAE@XZ 10016c86 f i bncs_ss_base.obj
 0001:00015ca5       ?remove@?$QMapPrivate@VQString@@VinstanceInfo@@@@QAEXV?$QMapIterator@VQString@@VinstanceInfo@@@@@Z 10016ca5 f i bncs_ss_base.obj
 0001:00015cdd       ??0?$QValueList@VinstanceInfo@@@@QAE@XZ 10016cdd f i bncs_ss_base.obj
 0001:00015d17       ?append@?$QValueList@VinstanceInfo@@@@QAE?AV?$QValueListIterator@VinstanceInfo@@@@ABVinstanceInfo@@@Z 10016d17 f i bncs_ss_base.obj
 0001:00015d47       ??1?$QMapPrivate@VQString@@VdeviceTypeInfo@@@@QAE@XZ 10016d47 f i bncs_ss_base.obj
 0001:00015d66       ?remove@?$QMapPrivate@VQString@@VdeviceTypeInfo@@@@QAEXV?$QMapIterator@VQString@@VdeviceTypeInfo@@@@@Z 10016d66 f i bncs_ss_base.obj
 0001:00015d9e       ??0?$QValueList@VdeviceTypeInfo@@@@QAE@XZ 10016d9e f i bncs_ss_base.obj
 0001:00015dd8       ??1?$QValueVector@H@@QAE@XZ 10016dd8 f i bncs_ss_base.obj
 0001:00015dd8       ??1?$QValueList@Vstyleentry@@@@QAE@XZ 10016dd8 f i bncs_ss_base.obj
 0001:00015dd8       ??1?$QValueList@VdeviceTypeInfo@@@@QAE@XZ 10016dd8 f i bncs_ss_base.obj
 0001:00015dd8       ??1?$QValueList@VcomplexType@@@@QAE@XZ 10016dd8 f i bncs_ss_base.obj
 0001:00015dd8       ??1?$QValueList@VparamInfo@@@@QAE@XZ 10016dd8 f i bncs_ss_base.obj
 0001:00015dd8       ??1?$QValueList@VinstanceInfo@@@@QAE@XZ 10016dd8 f i bncs_ss_base.obj
 0001:00015dd8       ??1?$QValueList@VcomplexInstance@@@@QAE@XZ 10016dd8 f i bncs_ss_base.obj
 0001:00015dd8       ??1?$QValueList@VcomplexParam@@@@QAE@XZ 10016dd8 f i bncs_ss_base.obj
 0001:00015dd8       ??1?$QValueList@VvalidState@@@@QAE@XZ 10016dd8 f i bncs_ss_base.obj
 0001:00015ddf       ?append@?$QValueList@VdeviceTypeInfo@@@@QAE?AV?$QValueListIterator@VdeviceTypeInfo@@@@ABVdeviceTypeInfo@@@Z 10016ddf f i bncs_ss_base.obj
 0001:00015e0f       ??1?$QMapPrivate@VQString@@VcomplexType@@@@QAE@XZ 10016e0f f i bncs_ss_base.obj
 0001:00015e2e       ?remove@?$QMapPrivate@VQString@@VcomplexType@@@@QAEXV?$QMapIterator@VQString@@VcomplexType@@@@@Z 10016e2e f i bncs_ss_base.obj
 0001:00015e66       ??0?$QValueList@VcomplexType@@@@QAE@XZ 10016e66 f i bncs_ss_base.obj
 0001:00015ea0       ?append@?$QValueList@VcomplexType@@@@QAE?AV?$QValueListIterator@VcomplexType@@@@ABVcomplexType@@@Z 10016ea0 f i bncs_ss_base.obj
 0001:00015ed0       ??1?$QMapNode@VQString@@VparamInfo@@@@QAE@XZ 10016ed0 f i bncs_ss_base.obj
 0001:00015f08       ??1?$QMapNode@VQString@@VcomplexParam@@@@QAE@XZ 10016f08 f i bncs_ss_base.obj
 0001:00015f40       ??1?$QMapNode@VQString@@VcomplexInstance@@@@QAE@XZ 10016f40 f i bncs_ss_base.obj
 0001:00015f78       ??1?$QMapNode@VQString@@VinstanceInfo@@@@QAE@XZ 10016f78 f i bncs_ss_base.obj
 0001:00015fb0       ??1?$QMapNode@VQString@@VdeviceTypeInfo@@@@QAE@XZ 10016fb0 f i bncs_ss_base.obj
 0001:00015fe8       ??1?$QMapNode@VQString@@VcomplexType@@@@QAE@XZ 10016fe8 f i bncs_ss_base.obj
 0001:00016020       ?end@?$QValueList@VparamInfo@@@@QAE?AV?$QValueListIterator@VparamInfo@@@@XZ 10017020 f i bncs_ss_base.obj
 0001:0001603f       ?end@?$QValueList@VcomplexParam@@@@QAE?AV?$QValueListIterator@VcomplexParam@@@@XZ 1001703f f i bncs_ss_base.obj
 0001:0001605e       ?end@?$QValueList@VcomplexInstance@@@@QAE?AV?$QValueListIterator@VcomplexInstance@@@@XZ 1001705e f i bncs_ss_base.obj
 0001:0001607d       ?end@?$QValueList@VinstanceInfo@@@@QAE?AV?$QValueListIterator@VinstanceInfo@@@@XZ 1001707d f i bncs_ss_base.obj
 0001:0001609c       ?end@?$QValueList@VdeviceTypeInfo@@@@QAE?AV?$QValueListIterator@VdeviceTypeInfo@@@@XZ 1001709c f i bncs_ss_base.obj
 0001:000160bb       ?end@?$QValueList@VcomplexType@@@@QAE?AV?$QValueListIterator@VcomplexType@@@@XZ 100170bb f i bncs_ss_base.obj
 0001:000160da       ?derefAndDelete@?$QValueListPrivate@VcomplexInstance@@@@QAEXXZ 100170da f i bncs_ss_base.obj
 0001:000160da       ?derefAndDelete@?$QValueListPrivate@UImage@QWidgetFactory@@@@QAEXXZ 100170da f i bncs_ss_base.obj
 0001:000160da       ?derefAndDelete@?$QValueListPrivate@VvalidState@@@@QAEXXZ 100170da f i bncs_ss_base.obj
 0001:000160da       ?derefAndDelete@?$QValueListPrivate@H@@QAEXXZ 100170da f i bncs_ss_base.obj
 0001:000160da       ?derefAndDelete@?$QValueListPrivate@VcomplexType@@@@QAEXXZ 100170da f i bncs_ss_base.obj
 0001:000160da       ?derefAndDelete@?$QValueListPrivate@VcomplexParam@@@@QAEXXZ 100170da f i bncs_ss_base.obj
 0001:000160da       ?derefAndDelete@?$QValueListPrivate@VinstanceInfo@@@@QAEXXZ 100170da f i bncs_ss_base.obj
 0001:000160da       ?derefAndDelete@?$QValueListPrivate@UField@QWidgetFactory@@@@QAEXXZ 100170da f i bncs_ss_base.obj
 0001:000160da       ?derefAndDelete@?$QValueListPrivate@VQString@@@@QAEXXZ 100170da f i bncs_ss_base.obj
 0001:000160da       ?derefAndDelete@?$QValueListPrivate@VdeviceTypeInfo@@@@QAEXXZ 100170da f i bncs_ss_base.obj
 0001:000160da       ?derefAndDelete@?$QValueVectorPrivate@H@@QAEXXZ 100170da f i bncs_ss_base.obj
 0001:000160da       ?derefAndDelete@?$QValueListPrivate@Vstyleentry@@@@QAEXXZ 100170da f i bncs_ss_base.obj
 0001:000160da       ?derefAndDelete@?$QValueListPrivate@VparamInfo@@@@QAEXXZ 100170da f i bncs_ss_base.obj
 0001:000160ea       ??4?$QMap@VQString@@VparamInfo@@@@QAEAAV0@ABV0@@Z 100170ea f i bncs_ss_base.obj
 0001:0001611d       ?insert@?$QMap@VQString@@VparamInfo@@@@QAE?AV?$QMapIterator@VQString@@VparamInfo@@@@ABVQString@@ABVparamInfo@@_N@Z 1001711d f i bncs_ss_base.obj
 0001:00016169       ?insert@?$QMap@VQString@@VparamInfo@@@@QAE?AU?$QPair@V?$QMapIterator@VQString@@VparamInfo@@@@_N@@ABU?$QPair@$$CBVQString@@VparamInfo@@@@@Z 10017169 f i bncs_ss_base.obj
 0001:000161b6       ??A?$QMap@VQString@@VparamInfo@@@@QAEAAVparamInfo@@ABVQString@@@Z 100171b6 f i bncs_ss_base.obj
 0001:0001622f       ?clear@?$QMap@VQString@@VparamInfo@@@@QAEXXZ 1001722f f i bncs_ss_base.obj
 0001:00016277       ?remove@?$QMap@VQString@@VparamInfo@@@@QAEXABVQString@@@Z 10017277 f i bncs_ss_base.obj
 0001:00016277       ?erase@?$QMap@VQString@@VparamInfo@@@@QAEXABVQString@@@Z 10017277 f i bncs_ss_base.obj
 0001:000162c1       ?detachInternal@?$QMap@VQString@@VparamInfo@@@@AAEXXZ 100172c1 f i bncs_ss_base.obj
 0001:000162ff       ??4?$QMap@VQString@@VcomplexParam@@@@QAEAAV0@ABV0@@Z 100172ff f i bncs_ss_base.obj
 0001:00016332       ?insert@?$QMap@VQString@@VcomplexParam@@@@QAE?AV?$QMapIterator@VQString@@VcomplexParam@@@@ABVQString@@ABVcomplexParam@@_N@Z 10017332 f i bncs_ss_base.obj
 0001:00016395       ?insert@?$QMap@VQString@@VcomplexParam@@@@QAE?AU?$QPair@V?$QMapIterator@VQString@@VcomplexParam@@@@_N@@ABU?$QPair@$$CBVQString@@VcomplexParam@@@@@Z 10017395 f i bncs_ss_base.obj
 0001:000163fc       ?erase@?$QMap@VQString@@VcomplexParam@@@@QAEXABVQString@@@Z 100173fc f i bncs_ss_base.obj
 0001:000163fc       ?remove@?$QMap@VQString@@VcomplexParam@@@@QAEXABVQString@@@Z 100173fc f i bncs_ss_base.obj
 0001:00016446       ?count@?$QMap@VQString@@VcomplexParam@@@@QBEIABVQString@@@Z 10017446 f i bncs_ss_base.obj
 0001:00016489       ??A?$QMap@VQString@@VcomplexParam@@@@QAEAAVcomplexParam@@ABVQString@@@Z 10017489 f i bncs_ss_base.obj
 0001:00016502       ?clear@?$QMap@VQString@@VcomplexParam@@@@QAEXXZ 10017502 f i bncs_ss_base.obj
 0001:0001654a       ?detachInternal@?$QMap@VQString@@VcomplexParam@@@@AAEXXZ 1001754a f i bncs_ss_base.obj
 0001:00016588       ??4?$QMap@VQString@@VcomplexInstance@@@@QAEAAV0@ABV0@@Z 10017588 f i bncs_ss_base.obj
 0001:000165bb       ?insert@?$QMap@VQString@@VcomplexInstance@@@@QAE?AV?$QMapIterator@VQString@@VcomplexInstance@@@@ABVQString@@ABVcomplexInstance@@_N@Z 100175bb f i bncs_ss_base.obj
 0001:0001660d       ?insert@?$QMap@VQString@@VcomplexInstance@@@@QAE?AU?$QPair@V?$QMapIterator@VQString@@VcomplexInstance@@@@_N@@ABU?$QPair@$$CBVQString@@VcomplexInstance@@@@@Z 1001760d f i bncs_ss_base.obj
 0001:00016665       ?count@?$QMap@VQString@@VparamInfo@@@@QBEIABVQString@@@Z 10017665 f i bncs_ss_base.obj
 0001:00016665       ?count@?$QMap@VQString@@VcomplexInstance@@@@QBEIABVQString@@@Z 10017665 f i bncs_ss_base.obj
 0001:00016665       ?count@?$QMap@VQString@@VcomplexType@@@@QBEIABVQString@@@Z 10017665 f i bncs_ss_base.obj
 0001:000166a8       ??A?$QMap@VQString@@VcomplexInstance@@@@QAEAAVcomplexInstance@@ABVQString@@@Z 100176a8 f i bncs_ss_base.obj
 0001:00016721       ?clear@?$QMap@VQString@@VcomplexInstance@@@@QAEXXZ 10017721 f i bncs_ss_base.obj
 0001:00016769       ?erase@?$QMap@VQString@@VcomplexInstance@@@@QAEXABVQString@@@Z 10017769 f i bncs_ss_base.obj
 0001:00016769       ?remove@?$QMap@VQString@@VcomplexInstance@@@@QAEXABVQString@@@Z 10017769 f i bncs_ss_base.obj
 0001:000167b3       ?detachInternal@?$QMap@VQString@@VcomplexInstance@@@@AAEXXZ 100177b3 f i bncs_ss_base.obj
 0001:000167f1       ??4?$QMap@VQString@@VinstanceInfo@@@@QAEAAV0@ABV0@@Z 100177f1 f i bncs_ss_base.obj
 0001:00016824       ?insert@?$QMap@VQString@@VinstanceInfo@@@@QAE?AV?$QMapIterator@VQString@@VinstanceInfo@@@@ABVQString@@ABVinstanceInfo@@_N@Z 10017824 f i bncs_ss_base.obj
 0001:00016873       ?insert@?$QMap@VQString@@VinstanceInfo@@@@QAE?AU?$QPair@V?$QMapIterator@VQString@@VinstanceInfo@@@@_N@@ABU?$QPair@$$CBVQString@@VinstanceInfo@@@@@Z 10017873 f i bncs_ss_base.obj
 0001:000168cc       ?count@?$QMap@VQString@@VinstanceInfo@@@@QBEIABVQString@@@Z 100178cc f i bncs_ss_base.obj
 0001:0001690f       ??A?$QMap@VQString@@VinstanceInfo@@@@QAEAAVinstanceInfo@@ABVQString@@@Z 1001790f f i bncs_ss_base.obj
 0001:00016988       ?clear@?$QMap@VQString@@VinstanceInfo@@@@QAEXXZ 10017988 f i bncs_ss_base.obj
 0001:000169d0       ?erase@?$QMap@VQString@@VinstanceInfo@@@@QAEXABVQString@@@Z 100179d0 f i bncs_ss_base.obj
 0001:000169d0       ?remove@?$QMap@VQString@@VinstanceInfo@@@@QAEXABVQString@@@Z 100179d0 f i bncs_ss_base.obj
 0001:00016a1a       ?detachInternal@?$QMap@VQString@@VinstanceInfo@@@@AAEXXZ 10017a1a f i bncs_ss_base.obj
 0001:00016a58       ??4?$QMap@VQString@@VdeviceTypeInfo@@@@QAEAAV0@ABV0@@Z 10017a58 f i bncs_ss_base.obj
 0001:00016a8b       ?insert@?$QMap@VQString@@VdeviceTypeInfo@@@@QAE?AV?$QMapIterator@VQString@@VdeviceTypeInfo@@@@ABVQString@@ABVdeviceTypeInfo@@_N@Z 10017a8b f i bncs_ss_base.obj
 0001:00016aec       ?insert@?$QMap@VQString@@VdeviceTypeInfo@@@@QAE?AU?$QPair@V?$QMapIterator@VQString@@VdeviceTypeInfo@@@@_N@@ABU?$QPair@$$CBVQString@@VdeviceTypeInfo@@@@@Z 10017aec f i bncs_ss_base.obj
 0001:00016b53       ?erase@?$QMap@VQString@@VdeviceTypeInfo@@@@QAEXABVQString@@@Z 10017b53 f i bncs_ss_base.obj
 0001:00016b53       ?remove@?$QMap@VQString@@VdeviceTypeInfo@@@@QAEXABVQString@@@Z 10017b53 f i bncs_ss_base.obj
 0001:00016b9d       ?count@?$QMap@VQString@@VdeviceTypeInfo@@@@QBEIABVQString@@@Z 10017b9d f i bncs_ss_base.obj
 0001:00016b9d       ?count@?$QMap@VQString@@Vstyleentry@@@@QBEIABVQString@@@Z 10017b9d f i bncs_ss_base.obj
 0001:00016be0       ??A?$QMap@VQString@@VdeviceTypeInfo@@@@QAEAAVdeviceTypeInfo@@ABVQString@@@Z 10017be0 f i bncs_ss_base.obj
 0001:00016c59       ?clear@?$QMap@VQString@@VdeviceTypeInfo@@@@QAEXXZ 10017c59 f i bncs_ss_base.obj
 0001:00016ca1       ?detachInternal@?$QMap@VQString@@VdeviceTypeInfo@@@@AAEXXZ 10017ca1 f i bncs_ss_base.obj
 0001:00016cdf       ??4?$QMap@VQString@@VcomplexType@@@@QAEAAV0@ABV0@@Z 10017cdf f i bncs_ss_base.obj
 0001:00016d12       ?insert@?$QMap@VQString@@VcomplexType@@@@QAE?AV?$QMapIterator@VQString@@VcomplexType@@@@ABVQString@@ABVcomplexType@@_N@Z 10017d12 f i bncs_ss_base.obj
 0001:00016d64       ?insert@?$QMap@VQString@@VcomplexType@@@@QAE?AU?$QPair@V?$QMapIterator@VQString@@VcomplexType@@@@_N@@ABU?$QPair@$$CBVQString@@VcomplexType@@@@@Z 10017d64 f i bncs_ss_base.obj
 0001:00016dbc       ??A?$QMap@VQString@@VcomplexType@@@@QAEAAVcomplexType@@ABVQString@@@Z 10017dbc f i bncs_ss_base.obj
 0001:00016e35       ?clear@?$QMap@VQString@@VcomplexType@@@@QAEXXZ 10017e35 f i bncs_ss_base.obj
 0001:00016e7d       ?erase@?$QMap@VQString@@VcomplexType@@@@QAEXABVQString@@@Z 10017e7d f i bncs_ss_base.obj
 0001:00016e7d       ?remove@?$QMap@VQString@@VcomplexType@@@@QAEXABVQString@@@Z 10017e7d f i bncs_ss_base.obj
 0001:00016ec7       ?detachInternal@?$QMap@VQString@@VcomplexType@@@@AAEXXZ 10017ec7 f i bncs_ss_base.obj
 0001:00016f05       ??0?$QMapPrivate@VQString@@VparamInfo@@@@QAE@XZ 10017f05 f i bncs_ss_base.obj
 0001:00016f7a       ?clear@?$QMapPrivate@VQString@@VparamInfo@@@@QAEXXZ 10017f7a f i bncs_ss_base.obj
 0001:00016fa9       ?find@?$QMapPrivate@VQString@@VcomplexType@@@@QBE?AV?$QMapConstIterator@VQString@@VcomplexType@@@@ABVQString@@@Z 10017fa9 f i bncs_ss_base.obj
 0001:00016fa9       ?find@?$QMapPrivate@VQString@@VcomplexInstance@@@@QBE?AV?$QMapConstIterator@VQString@@VcomplexInstance@@@@ABVQString@@@Z 10017fa9 f i bncs_ss_base.obj
 0001:00016fa9       ?find@?$QMapPrivate@VQString@@VparamInfo@@@@QBE?AV?$QMapConstIterator@VQString@@VparamInfo@@@@ABVQString@@@Z 10017fa9 f i bncs_ss_base.obj
 0001:00017007       ?detachInternal@?$QValueList@VparamInfo@@@@AAEXXZ 10018007 f i bncs_ss_base.obj
 0001:00017048       ??0?$QMapPrivate@VQString@@VcomplexParam@@@@QAE@XZ 10018048 f i bncs_ss_base.obj
 0001:000170bd       ?clear@?$QMapPrivate@VQString@@VcomplexParam@@@@QAEXXZ 100180bd f i bncs_ss_base.obj
 0001:000170ec       ?find@?$QMapPrivate@VQString@@VcomplexParam@@@@QBE?AV?$QMapConstIterator@VQString@@VcomplexParam@@@@ABVQString@@@Z 100180ec f i bncs_ss_base.obj
 0001:0001714a       ?detachInternal@?$QValueList@VcomplexParam@@@@AAEXXZ 1001814a f i bncs_ss_base.obj
 0001:0001718b       ??0?$QMapPrivate@VQString@@VcomplexInstance@@@@QAE@XZ 1001818b f i bncs_ss_base.obj
 0001:00017200       ?clear@?$QMapPrivate@VQString@@VcomplexInstance@@@@QAEXXZ 10018200 f i bncs_ss_base.obj
 0001:0001722f       ?detachInternal@?$QValueList@VcomplexInstance@@@@AAEXXZ 1001822f f i bncs_ss_base.obj
 0001:00017270       ??0?$QMapPrivate@VQString@@VinstanceInfo@@@@QAE@XZ 10018270 f i bncs_ss_base.obj
 0001:000172e5       ?clear@?$QMapPrivate@VQString@@VinstanceInfo@@@@QAEXXZ 100182e5 f i bncs_ss_base.obj
 0001:00017314       ?find@?$QMapPrivate@VQString@@VinstanceInfo@@@@QBE?AV?$QMapConstIterator@VQString@@VinstanceInfo@@@@ABVQString@@@Z 10018314 f i bncs_ss_base.obj
 0001:00017372       ?detachInternal@?$QValueList@VinstanceInfo@@@@AAEXXZ 10018372 f i bncs_ss_base.obj
 0001:000173b3       ??0?$QMapPrivate@VQString@@VdeviceTypeInfo@@@@QAE@XZ 100183b3 f i bncs_ss_base.obj
 0001:00017428       ?clear@?$QMapPrivate@VQString@@VdeviceTypeInfo@@@@QAEXXZ 10018428 f i bncs_ss_base.obj
 0001:00017457       ?inc@?$QMapIterator@VQString@@VinstanceInfo@@@@AAEHXZ 10018457 f i bncs_ss_base.obj
 0001:00017457       ?inc@?$QMapConstIterator@VQString@@VcomplexInstance@@@@AAEHXZ 10018457 f i bncs_ss_base.obj
 0001:00017457       ?inc@?$QMapIterator@VQString@@Vstyleentry@@@@AAEHXZ 10018457 f i bncs_ss_base.obj
 0001:00017457       ?inc@?$QMapConstIterator@VQString@@VdeviceTypeInfo@@@@AAEHXZ 10018457 f i bncs_ss_base.obj
 0001:00017457       ?inc@?$QMapIterator@VQString@@V1@@@AAEHXZ 10018457 f i bncs_ss_base.obj
 0001:00017457       ?inc@?$QMapConstIterator@VQString@@Vstyleentry@@@@AAEHXZ 10018457 f i bncs_ss_base.obj
 0001:00017457       ?inc@?$QMapConstIterator@VQString@@VparamInfo@@@@AAEHXZ 10018457 f i bncs_ss_base.obj
 0001:00017457       ?inc@?$QMapIterator@HVQString@@@@AAEHXZ 10018457 f i bncs_ss_base.obj
 0001:00017457       ?inc@?$QMapConstIterator@VQString@@VinstanceInfo@@@@AAEHXZ 10018457 f i bncs_ss_base.obj
 0001:00017457       ?inc@?$QMapConstIterator@VQString@@VcomplexType@@@@AAEHXZ 10018457 f i bncs_ss_base.obj
 0001:00017457       ?inc@?$QMapConstIterator@VQString@@VcomplexParam@@@@AAEHXZ 10018457 f i bncs_ss_base.obj
 0001:00017457       ?inc@?$QMapIterator@HH@@AAEHXZ 10018457 f i bncs_ss_base.obj
 0001:00017457       ?inc@?$QMapConstIterator@HVvalidState@@@@AAEHXZ 10018457 f i bncs_ss_base.obj
 0001:00017457       ?inc@?$QMapIterator@HVvalidState@@@@AAEHXZ 10018457 f i bncs_ss_base.obj
 0001:00017485       ?detachInternal@?$QValueList@VdeviceTypeInfo@@@@AAEXXZ 10018485 f i bncs_ss_base.obj
 0001:000174c6       ??0?$QMapPrivate@VQString@@VcomplexType@@@@QAE@XZ 100184c6 f i bncs_ss_base.obj
 0001:0001753b       ?clear@?$QMapPrivate@VQString@@VcomplexType@@@@QAEXXZ 1001853b f i bncs_ss_base.obj
 0001:0001756a       ?detachInternal@?$QValueList@VcomplexType@@@@AAEXXZ 1001856a f i bncs_ss_base.obj
 0001:000175ab       ??0?$QValueListPrivate@VparamInfo@@@@QAE@XZ 100185ab f i bncs_ss_base.obj
 0001:00017614       ?insert@?$QValueListPrivate@VparamInfo@@@@QAE?AV?$QValueListIterator@VparamInfo@@@@V2@ABVparamInfo@@@Z 10018614 f i bncs_ss_base.obj
 0001:00017665       ??0?$QValueListPrivate@VcomplexParam@@@@QAE@XZ 10018665 f i bncs_ss_base.obj
 0001:000176ce       ?insert@?$QValueListPrivate@VcomplexParam@@@@QAE?AV?$QValueListIterator@VcomplexParam@@@@V2@ABVcomplexParam@@@Z 100186ce f i bncs_ss_base.obj
 0001:00017734       ??0?$QValueListPrivate@VcomplexInstance@@@@QAE@XZ 10018734 f i bncs_ss_base.obj
 0001:0001779d       ?insert@?$QValueListPrivate@VcomplexInstance@@@@QAE?AV?$QValueListIterator@VcomplexInstance@@@@V2@ABVcomplexInstance@@@Z 1001879d f i bncs_ss_base.obj
 0001:000177f0       ??0?$QValueListPrivate@VinstanceInfo@@@@QAE@XZ 100187f0 f i bncs_ss_base.obj
 0001:00017859       ?insert@?$QValueListPrivate@VinstanceInfo@@@@QAE?AV?$QValueListIterator@VinstanceInfo@@@@V2@ABVinstanceInfo@@@Z 10018859 f i bncs_ss_base.obj
 0001:000178bf       ??0?$QValueListPrivate@VdeviceTypeInfo@@@@QAE@XZ 100188bf f i bncs_ss_base.obj
 0001:00017928       ?insert@?$QValueListPrivate@VdeviceTypeInfo@@@@QAE?AV?$QValueListIterator@VdeviceTypeInfo@@@@V2@ABVdeviceTypeInfo@@@Z 10018928 f i bncs_ss_base.obj
 0001:00017987       ??0?$QValueListPrivate@VcomplexType@@@@QAE@XZ 10018987 f i bncs_ss_base.obj
 0001:000179f0       ?insert@?$QValueListPrivate@VcomplexType@@@@QAE?AV?$QValueListIterator@VcomplexType@@@@V2@ABVcomplexType@@@Z 100189f0 f i bncs_ss_base.obj
 0001:00017a43       ??_E?$QValueListPrivate@VparamInfo@@@@UAEPAXI@Z 10018a43 f i bncs_ss_base.obj
 0001:00017a43       ??_G?$QValueListPrivate@VparamInfo@@@@UAEPAXI@Z 10018a43 f i bncs_ss_base.obj
 0001:00017a5f       ??1?$QValueListPrivate@VparamInfo@@@@UAE@XZ 10018a5f f i bncs_ss_base.obj
 0001:00017a97       ??_E?$QValueListPrivate@VcomplexParam@@@@UAEPAXI@Z 10018a97 f i bncs_ss_base.obj
 0001:00017a97       ??_G?$QValueListPrivate@VcomplexParam@@@@UAEPAXI@Z 10018a97 f i bncs_ss_base.obj
 0001:00017ab3       ??1?$QValueListPrivate@VcomplexParam@@@@UAE@XZ 10018ab3 f i bncs_ss_base.obj
 0001:00017aeb       ??_G?$QValueListPrivate@VcomplexInstance@@@@UAEPAXI@Z 10018aeb f i bncs_ss_base.obj
 0001:00017aeb       ??_E?$QValueListPrivate@VcomplexInstance@@@@UAEPAXI@Z 10018aeb f i bncs_ss_base.obj
 0001:00017b07       ??1?$QValueListPrivate@VcomplexInstance@@@@UAE@XZ 10018b07 f i bncs_ss_base.obj
 0001:00017b3f       ??_G?$QValueListPrivate@VinstanceInfo@@@@UAEPAXI@Z 10018b3f f i bncs_ss_base.obj
 0001:00017b3f       ??_E?$QValueListPrivate@VinstanceInfo@@@@UAEPAXI@Z 10018b3f f i bncs_ss_base.obj
 0001:00017b5b       ??1?$QValueListPrivate@VinstanceInfo@@@@UAE@XZ 10018b5b f i bncs_ss_base.obj
 0001:00017b93       ??_G?$QValueListPrivate@VdeviceTypeInfo@@@@UAEPAXI@Z 10018b93 f i bncs_ss_base.obj
 0001:00017b93       ??_E?$QValueListPrivate@VdeviceTypeInfo@@@@UAEPAXI@Z 10018b93 f i bncs_ss_base.obj
 0001:00017baf       ??1?$QValueListPrivate@VdeviceTypeInfo@@@@UAE@XZ 10018baf f i bncs_ss_base.obj
 0001:00017be7       ??_G?$QValueListPrivate@VcomplexType@@@@UAEPAXI@Z 10018be7 f i bncs_ss_base.obj
 0001:00017be7       ??_E?$QValueListPrivate@VcomplexType@@@@UAEPAXI@Z 10018be7 f i bncs_ss_base.obj
 0001:00017c03       ??1?$QValueListPrivate@VcomplexType@@@@UAE@XZ 10018c03 f i bncs_ss_base.obj
 0001:00017c3b       ??_G?$QValueListNode@VparamInfo@@@@UAEPAXI@Z 10018c3b f i bncs_ss_base.obj
 0001:00017c3b       ??_E?$QValueListNode@VparamInfo@@@@UAEPAXI@Z 10018c3b f i bncs_ss_base.obj
 0001:00017c57       ??1?$QValueListNode@VparamInfo@@@@UAE@XZ 10018c57 f i bncs_ss_base.obj
 0001:00017c66       ??_G?$QValueListNode@VcomplexParam@@@@UAEPAXI@Z 10018c66 f i bncs_ss_base.obj
 0001:00017c66       ??_E?$QValueListNode@VcomplexParam@@@@UAEPAXI@Z 10018c66 f i bncs_ss_base.obj
 0001:00017c82       ??1?$QValueListNode@VcomplexParam@@@@UAE@XZ 10018c82 f i bncs_ss_base.obj
 0001:00017c91       ??_G?$QValueListNode@VcomplexInstance@@@@UAEPAXI@Z 10018c91 f i bncs_ss_base.obj
 0001:00017c91       ??_E?$QValueListNode@VcomplexInstance@@@@UAEPAXI@Z 10018c91 f i bncs_ss_base.obj
 0001:00017cad       ??1?$QValueListNode@VcomplexInstance@@@@UAE@XZ 10018cad f i bncs_ss_base.obj
 0001:00017cbc       ??_E?$QValueListNode@VinstanceInfo@@@@UAEPAXI@Z 10018cbc f i bncs_ss_base.obj
 0001:00017cbc       ??_G?$QValueListNode@VinstanceInfo@@@@UAEPAXI@Z 10018cbc f i bncs_ss_base.obj
 0001:00017cd8       ??1?$QValueListNode@VinstanceInfo@@@@UAE@XZ 10018cd8 f i bncs_ss_base.obj
 0001:00017ce7       ??_G?$QValueListNode@VdeviceTypeInfo@@@@UAEPAXI@Z 10018ce7 f i bncs_ss_base.obj
 0001:00017ce7       ??_E?$QValueListNode@VdeviceTypeInfo@@@@UAEPAXI@Z 10018ce7 f i bncs_ss_base.obj
 0001:00017d03       ??1?$QValueListNode@VdeviceTypeInfo@@@@UAE@XZ 10018d03 f i bncs_ss_base.obj
 0001:00017d12       ??_G?$QValueListNode@VcomplexType@@@@UAEPAXI@Z 10018d12 f i bncs_ss_base.obj
 0001:00017d12       ??_E?$QValueListNode@VcomplexType@@@@UAEPAXI@Z 10018d12 f i bncs_ss_base.obj
 0001:00017d2e       ??1?$QValueListNode@VcomplexType@@@@UAE@XZ 10018d2e f i bncs_ss_base.obj
 0001:00017d3d       ??0?$QMapPrivate@VQString@@VparamInfo@@@@QAE@PBV0@@Z 10018d3d f i bncs_ss_base.obj
 0001:00017e05       ?clear@?$QMapPrivate@VQString@@VparamInfo@@@@QAEXPAU?$QMapNode@VQString@@VparamInfo@@@@@Z 10018e05 f i bncs_ss_base.obj
 0001:00017e3c       ?insertSingle@?$QMapPrivate@VQString@@VparamInfo@@@@QAE?AV?$QMapIterator@VQString@@VparamInfo@@@@ABVQString@@@Z 10018e3c f i bncs_ss_base.obj
 0001:00017ebe       ??0?$QMapPrivate@VQString@@VcomplexParam@@@@QAE@PBV0@@Z 10018ebe f i bncs_ss_base.obj
 0001:00017f86       ?clear@?$QMapPrivate@VQString@@VcomplexParam@@@@QAEXPAU?$QMapNode@VQString@@VcomplexParam@@@@@Z 10018f86 f i bncs_ss_base.obj
 0001:00017fbd       ?insertSingle@?$QMapPrivate@VQString@@VcomplexParam@@@@QAE?AV?$QMapIterator@VQString@@VcomplexParam@@@@ABVQString@@@Z 10018fbd f i bncs_ss_base.obj
 0001:0001803f       ??0?$QMapPrivate@VQString@@VcomplexInstance@@@@QAE@PBV0@@Z 1001903f f i bncs_ss_base.obj
 0001:00018107       ?clear@?$QMapPrivate@VQString@@VcomplexInstance@@@@QAEXPAU?$QMapNode@VQString@@VcomplexInstance@@@@@Z 10019107 f i bncs_ss_base.obj
 0001:0001813e       ?insertSingle@?$QMapPrivate@VQString@@VcomplexInstance@@@@QAE?AV?$QMapIterator@VQString@@VcomplexInstance@@@@ABVQString@@@Z 1001913e f i bncs_ss_base.obj
 0001:000181c0       ??0?$QMapPrivate@VQString@@VinstanceInfo@@@@QAE@PBV0@@Z 100191c0 f i bncs_ss_base.obj
 0001:00018288       ?clear@?$QMapPrivate@VQString@@VinstanceInfo@@@@QAEXPAU?$QMapNode@VQString@@VinstanceInfo@@@@@Z 10019288 f i bncs_ss_base.obj
 0001:000182bf       ?insertSingle@?$QMapPrivate@VQString@@VinstanceInfo@@@@QAE?AV?$QMapIterator@VQString@@VinstanceInfo@@@@ABVQString@@@Z 100192bf f i bncs_ss_base.obj
 0001:00018341       ??0?$QMapPrivate@VQString@@VdeviceTypeInfo@@@@QAE@PBV0@@Z 10019341 f i bncs_ss_base.obj
 0001:00018409       ?clear@?$QMapPrivate@VQString@@VdeviceTypeInfo@@@@QAEXPAU?$QMapNode@VQString@@VdeviceTypeInfo@@@@@Z 10019409 f i bncs_ss_base.obj
 0001:00018440       ?insertSingle@?$QMapPrivate@VQString@@VdeviceTypeInfo@@@@QAE?AV?$QMapIterator@VQString@@VdeviceTypeInfo@@@@ABVQString@@@Z 10019440 f i bncs_ss_base.obj
 0001:000184c2       ??0?$QMapPrivate@VQString@@VcomplexType@@@@QAE@PBV0@@Z 100194c2 f i bncs_ss_base.obj
 0001:0001858a       ?clear@?$QMapPrivate@VQString@@VcomplexType@@@@QAEXPAU?$QMapNode@VQString@@VcomplexType@@@@@Z 1001958a f i bncs_ss_base.obj
 0001:000185c1       ?insertSingle@?$QMapPrivate@VQString@@VcomplexType@@@@QAE?AV?$QMapIterator@VQString@@VcomplexType@@@@ABVQString@@@Z 100195c1 f i bncs_ss_base.obj
 0001:00018643       ??0?$QValueListPrivate@VparamInfo@@@@QAE@ABV0@@Z 10019643 f i bncs_ss_base.obj
 0001:000186ed       ??0?$QValueListPrivate@VcomplexParam@@@@QAE@ABV0@@Z 100196ed f i bncs_ss_base.obj
 0001:00018797       ??0?$QValueListPrivate@VcomplexInstance@@@@QAE@ABV0@@Z 10019797 f i bncs_ss_base.obj
 0001:00018841       ??0?$QValueListPrivate@VinstanceInfo@@@@QAE@ABV0@@Z 10019841 f i bncs_ss_base.obj
 0001:000188eb       ??0?$QValueListPrivate@VdeviceTypeInfo@@@@QAE@ABV0@@Z 100198eb f i bncs_ss_base.obj
 0001:00018995       ??0?$QValueListPrivate@VcomplexType@@@@QAE@ABV0@@Z 10019995 f i bncs_ss_base.obj
 0001:00018a3f       ?copy@?$QMapPrivate@VQString@@VparamInfo@@@@QAEPAU?$QMapNode@VQString@@VparamInfo@@@@PAU2@@Z 10019a3f f i bncs_ss_base.obj
 0001:00018acc       ?insert@?$QMapPrivate@VQString@@VparamInfo@@@@QAE?AV?$QMapIterator@VQString@@VparamInfo@@@@PAUQMapNodeBase@@0ABVQString@@@Z 10019acc f i bncs_ss_base.obj
 0001:00018b7b       ?dec@?$QMapIterator@VQString@@VdeviceTypeInfo@@@@AAEHXZ 10019b7b f i bncs_ss_base.obj
 0001:00018b7b       ?dec@?$QMapIterator@VQString@@VparamInfo@@@@AAEHXZ 10019b7b f i bncs_ss_base.obj
 0001:00018b7b       ?dec@?$QMapIterator@VQString@@Vstyleentry@@@@AAEHXZ 10019b7b f i bncs_ss_base.obj
 0001:00018b7b       ?dec@?$QMapIterator@VQString@@VcomplexParam@@@@AAEHXZ 10019b7b f i bncs_ss_base.obj
 0001:00018b7b       ?dec@?$QMapIterator@HVvalidState@@@@AAEHXZ 10019b7b f i bncs_ss_base.obj
 0001:00018b7b       ?dec@?$QMapIterator@HH@@AAEHXZ 10019b7b f i bncs_ss_base.obj
 0001:00018b7b       ?dec@?$QMapIterator@VQString@@VcomplexInstance@@@@AAEHXZ 10019b7b f i bncs_ss_base.obj
 0001:00018b7b       ?dec@?$QMapIterator@VQString@@VinstanceInfo@@@@AAEHXZ 10019b7b f i bncs_ss_base.obj
 0001:00018b7b       ?dec@?$QMapIterator@VQString@@_N@@AAEHXZ 10019b7b f i bncs_ss_base.obj
 0001:00018b7b       ?dec@?$QMapIterator@VQString@@VcomplexType@@@@AAEHXZ 10019b7b f i bncs_ss_base.obj
 0001:00018bb2       ?copy@?$QMapPrivate@VQString@@VcomplexParam@@@@QAEPAU?$QMapNode@VQString@@VcomplexParam@@@@PAU2@@Z 10019bb2 f i bncs_ss_base.obj
 0001:00018c3f       ?insert@?$QMapPrivate@VQString@@VcomplexParam@@@@QAE?AV?$QMapIterator@VQString@@VcomplexParam@@@@PAUQMapNodeBase@@0ABVQString@@@Z 10019c3f f i bncs_ss_base.obj
 0001:00018cee       ?copy@?$QMapPrivate@VQString@@VcomplexInstance@@@@QAEPAU?$QMapNode@VQString@@VcomplexInstance@@@@PAU2@@Z 10019cee f i bncs_ss_base.obj
 0001:00018d7b       ?insert@?$QMapPrivate@VQString@@VcomplexInstance@@@@QAE?AV?$QMapIterator@VQString@@VcomplexInstance@@@@PAUQMapNodeBase@@0ABVQString@@@Z 10019d7b f i bncs_ss_base.obj
 0001:00018e2a       ?copy@?$QMapPrivate@VQString@@VinstanceInfo@@@@QAEPAU?$QMapNode@VQString@@VinstanceInfo@@@@PAU2@@Z 10019e2a f i bncs_ss_base.obj
 0001:00018eb7       ?insert@?$QMapPrivate@VQString@@VinstanceInfo@@@@QAE?AV?$QMapIterator@VQString@@VinstanceInfo@@@@PAUQMapNodeBase@@0ABVQString@@@Z 10019eb7 f i bncs_ss_base.obj
 0001:00018f66       ?copy@?$QMapPrivate@VQString@@VdeviceTypeInfo@@@@QAEPAU?$QMapNode@VQString@@VdeviceTypeInfo@@@@PAU2@@Z 10019f66 f i bncs_ss_base.obj
 0001:00018ff3       ?insert@?$QMapPrivate@VQString@@VdeviceTypeInfo@@@@QAE?AV?$QMapIterator@VQString@@VdeviceTypeInfo@@@@PAUQMapNodeBase@@0ABVQString@@@Z 10019ff3 f i bncs_ss_base.obj
 0001:000190a2       ?copy@?$QMapPrivate@VQString@@VcomplexType@@@@QAEPAU?$QMapNode@VQString@@VcomplexType@@@@PAU2@@Z 1001a0a2 f i bncs_ss_base.obj
 0001:0001912f       ?insert@?$QMapPrivate@VQString@@VcomplexType@@@@QAE?AV?$QMapIterator@VQString@@VcomplexType@@@@PAUQMapNodeBase@@0ABVQString@@@Z 1001a12f f i bncs_ss_base.obj
 0001:000191de       ??0?$QMapNode@VQString@@VparamInfo@@@@QAE@ABVQString@@@Z 1001a1de f i bncs_ss_base.obj
 0001:00019229       ??0?$QMapNode@VQString@@VparamInfo@@@@QAE@ABU0@@Z 1001a229 f i bncs_ss_base.obj
 0001:00019280       ??0?$QMapNode@VQString@@VcomplexParam@@@@QAE@ABVQString@@@Z 1001a280 f i bncs_ss_base.obj
 0001:000192cb       ??0?$QMapNode@VQString@@VcomplexParam@@@@QAE@ABU0@@Z 1001a2cb f i bncs_ss_base.obj
 0001:00019333       ??0?$QMapNode@VQString@@VcomplexInstance@@@@QAE@ABVQString@@@Z 1001a333 f i bncs_ss_base.obj
 0001:0001937e       ??0?$QMapNode@VQString@@VcomplexInstance@@@@QAE@ABU0@@Z 1001a37e f i bncs_ss_base.obj
 0001:000193db       ??0?$QMapNode@VQString@@VinstanceInfo@@@@QAE@ABVQString@@@Z 1001a3db f i bncs_ss_base.obj
 0001:00019426       ??0?$QMapNode@VQString@@VinstanceInfo@@@@QAE@ABU0@@Z 1001a426 f i bncs_ss_base.obj
 0001:00019484       ??0?$QMapNode@VQString@@VdeviceTypeInfo@@@@QAE@ABVQString@@@Z 1001a484 f i bncs_ss_base.obj
 0001:000194cf       ??0?$QMapNode@VQString@@VdeviceTypeInfo@@@@QAE@ABU0@@Z 1001a4cf f i bncs_ss_base.obj
 0001:00019539       ??0?$QMapNode@VQString@@VcomplexType@@@@QAE@ABVQString@@@Z 1001a539 f i bncs_ss_base.obj
 0001:00019584       ??0?$QMapNode@VQString@@VcomplexType@@@@QAE@ABU0@@Z 1001a584 f i bncs_ss_base.obj
 0001:000195e1       ??_EQTabDialog@@WCI@AEPAXI@Z 1001a5e1 f i bncs_ss_base.obj
 0001:000195e9       ??0bncs_vbox@@QAE@PAVQWidget@@PBD@Z 1001a5e9 f   bncs_vbox.obj
 0001:00019658       ??_Ebncs_vbox@@UAEPAXI@Z   1001a658 f i bncs_vbox.obj
 0001:00019658       ??_Gbncs_vbox@@UAEPAXI@Z   1001a658 f i bncs_vbox.obj
 0001:00019674       ??1bncs_vbox@@UAE@XZ       1001a674 f   bncs_vbox.obj
 0001:00019687       ?paintEvent@bncs_vbox@@UAEXPAVQPaintEvent@@@Z 1001a687 f   bncs_vbox.obj
 0001:00019723       ?setCaption@bncs_vbox@@UAEXABVQString@@@Z 1001a723 f   bncs_vbox.obj
 0001:00019869       ??_Ebncs_vbox@@WCI@AEPAXI@Z 1001a869 f i bncs_vbox.obj
 0001:00019871       ??0browseScriptsDialog@@QAE@PAVQWidget@@PBD_NI@Z 1001a871 f   browsescriptsdialog.obj
 0001:000199d0       ?metaObject@browseScriptsDialog@@UBEPAVQMetaObject@@XZ 1001a9d0 f i browsescriptsdialog.obj
 0001:000199d5       ??_EbrowseScriptsDialog@@UAEPAXI@Z 1001a9d5 f i browsescriptsdialog.obj
 0001:000199d5       ??_GbrowseScriptsDialog@@UAEPAXI@Z 1001a9d5 f i browsescriptsdialog.obj
 0001:000199f1       ??1browseScriptsDialog@@UAE@XZ 1001a9f1 f   browsescriptsdialog.obj
 0001:00019a4a       ?findScripts@browseScriptsDialog@@AAEXABVQString@@0@Z 1001aa4a f   browsescriptsdialog.obj
 0001:00019dff       ??_GQListViewItem@@UAEPAXI@Z 1001adff f i browsescriptsdialog.obj
 0001:00019dff       ??_EQListViewItem@@UAEPAXI@Z 1001adff f i browsescriptsdialog.obj
 0001:00019e1c       ?customEvent@browseScriptsDialog@@UAEXPAVQCustomEvent@@@Z 1001ae1c f   browsescriptsdialog.obj
 0001:00019e47       ?getPath@browseScriptsDialog@@QAE?AVQString@@ABV2@@Z 1001ae47 f   browsescriptsdialog.obj
 0001:0001a1d2       ??_EbrowseScriptsDialog@@WCI@AEPAXI@Z 1001b1d2 f i browsescriptsdialog.obj
 0001:0001a21d       ?path@cc_sys@@SA?BVbncs_string@@XZ 1001b21d f   cc_sys.obj
 0001:0001a2eb       ?ws@cc_sys@@SAHXZ          1001b2eb f   cc_sys.obj
 0001:0001a339       ?loadDebugSettings@cc_sys@@CAXXZ 1001b339 f   cc_sys.obj
 0001:0001a4c0       ?tooltipsEnabled@cc_sys@@SA_NXZ 1001b4c0 f   cc_sys.obj
 0001:0001a4db       ?rightPopupEnabled@cc_sys@@SA_NXZ 1001b4db f   cc_sys.obj
 0001:0001a4f6       ?getPnlManStyle@cc_sys@@SA?AVQString@@XZ 1001b4f6 f   cc_sys.obj
 0001:0001a51f       ?loadPnlManStyleSettings@cc_sys@@CAXXZ 1001b51f f   cc_sys.obj
 0001:0001a616       ??0ccWave@@QAE@ABV?$basic_string@DU?$char_traits@D@std@@V?$allocator@D@2@@std@@@Z 1001b616 f   ccWave.obj
 0001:0001a635       ??1ccWave@@QAE@XZ          1001b635 f   ccWave.obj
 0001:0001a645       ?LoadFile@ccWave@@AAE_NABV?$basic_string@DU?$char_traits@D@std@@V?$allocator@D@2@@std@@@Z 1001b645 f   ccWave.obj
 0001:0001a74d       ?GetWaveFormatPtr@ccWave@@QAEPAUtWAVEFORMATEX@@XZ 1001b74d f   ccWave.obj
 0001:0001a751       ?GetWaveDataPtr@ccWave@@QAEPADXZ 1001b751 f   ccWave.obj
 0001:0001a755       ??0dbConnection@@QAE@_NVQString@@QAVIDatabaseMessage@@@Z 1001b755 f   DBCONNECTION.OBJ
 0001:0001a8c8       ??_EdbConnection@@UAEPAXI@Z 1001b8c8 f i DBCONNECTION.OBJ
 0001:0001a8c8       ??_GdbConnection@@UAEPAXI@Z 1001b8c8 f i DBCONNECTION.OBJ
 0001:0001a8e4       ??0ConnectionParams@dbConnection@@QAE@XZ 1001b8e4 f i DBCONNECTION.OBJ
 0001:0001a941       ??1ConnectionParams@dbConnection@@QAE@XZ 1001b941 f i DBCONNECTION.OBJ
 0001:0001a9a3       ??_GQSemaphore@@UAEPAXI@Z  1001b9a3 f i DBCONNECTION.OBJ
 0001:0001a9a3       ??_EQSemaphore@@UAEPAXI@Z  1001b9a3 f i DBCONNECTION.OBJ
 0001:0001a9c0       ??1dbConnection@@UAE@XZ    1001b9c0 f   DBCONNECTION.OBJ
 0001:0001aa3a       ?lock@dbConnection@@QAEXXZ 1001ba3a f   DBCONNECTION.OBJ
 0001:0001aa46       ?unlock@dbConnection@@QAEXXZ 1001ba46 f   DBCONNECTION.OBJ
 0001:0001aa52       ?run@dbConnection@@UAEXXZ  1001ba52 f   DBCONNECTION.OBJ
 0001:0001ab58       ?doOpen@dbConnection@@AAE_NABUConnectionParams@1@@Z 1001bb58 f   DBCONNECTION.OBJ
 0001:0001ae8b       ?getDbase@dbConnection@@QAEPAVQSqlDatabase@@XZ 1001be8b f   DBCONNECTION.OBJ
 0001:0001aeb2       ?lastError@dbConnection@@QAE?AVQString@@XZ 1001beb2 f   DBCONNECTION.OBJ
 0001:0001b01b       ?getCurrentDatabase@dbConnection@@QBE?AVQString@@XZ 1001c01b f   DBCONNECTION.OBJ
 0001:0001b040       ??0DeferredStartupControl@@QAE@QAVQObject@@QAVQWidget@@@Z 1001c040 f   DeferredStartupControl.obj
 0001:0001b064       ??0DeferredStartupControl@@QAE@QAVQObject@@0QAVQWidget@@@Z 1001c064 f   DeferredStartupControl.obj
 0001:0001b08c       ??1DeferredStartupControl@@UAE@XZ 1001c08c f   DeferredStartupControl.obj
 0001:0001b093       ?setCaption@DeferredStartupControl@@IAE_NABVdecodeCaptionString@@@Z 1001c093 f   DeferredStartupControl.obj
 0001:0001b158       ?getStartCheckTimer@DeferredStartupControl@@IBE_NXZ 1001c158 f   DeferredStartupControl.obj
 0001:0001b15c       ?paramChanged@DeferredStartupControl@@IAEXXZ 1001c15c f   DeferredStartupControl.obj
 0001:0001b161       ?restartTimer@DeferredStartupControl@@AAEXXZ 1001c161 f   DeferredStartupControl.obj
 0001:0001b21b       ?timerEvent@DeferredStartupControl@@IAE_NPAVQTimerEvent@@@Z 1001c21b f   DeferredStartupControl.obj
 0001:0001b249       ??0descThread@@QAE@PAVQObject@@ABVQString@@@Z 1001c249 f   descThread.obj
 0001:0001b2c9       ??_GdescThread@@UAEPAXI@Z  1001c2c9 f i descThread.obj
 0001:0001b2c9       ??_EdescThread@@UAEPAXI@Z  1001c2c9 f i descThread.obj
 0001:0001b2e5       ??1descThread@@UAE@XZ      1001c2e5 f   descThread.obj
 0001:0001b359       ?addEntry@descThread@@QAEXABVQString@@@Z 1001c359 f   descThread.obj
 0001:0001b3b8       ?run@descThread@@UAEXXZ    1001c3b8 f   descThread.obj
 0001:0001b4bc       ??0descEvent@@QAE@VQString@@0@Z 1001c4bc f i descThread.obj
 0001:0001b54c       ??_EdescEvent@@UAEPAXI@Z   1001c54c f i descThread.obj
 0001:0001b54c       ??_GdescEvent@@UAEPAXI@Z   1001c54c f i descThread.obj
 0001:0001b568       ??1descEvent@@UAE@XZ       1001c568 f i descThread.obj
 0001:0001b5af       ?close@descThread@@QAEXXZ  1001c5af f   descThread.obj
 0001:0001b5bc       ??1?$QPtrQueue@VQString@@@@UAE@XZ 1001c5bc f i descThread.obj
 0001:0001b5f6       ?count@?$QPtrList@VQAction@@@@UBEIXZ 1001c5f6 f i descThread.obj
 0001:0001b5f6       ?count@?$QPtrQueue@VQString@@@@UBEIXZ 1001c5f6 f i descThread.obj
 0001:0001b5f6       ?count@?$QPtrList@VQWidgetFactory@@@@UBEIXZ 1001c5f6 f i descThread.obj
 0001:0001b5f6       ?count@?$QPtrList@VsignalConnection@@@@UBEIXZ 1001c5f6 f i descThread.obj
 0001:0001b5fa       ??_G?$QPtrQueue@VQString@@@@UAEPAXI@Z 1001c5fa f i descThread.obj
 0001:0001b5fa       ??_E?$QPtrQueue@VQString@@@@UAEPAXI@Z 1001c5fa f i descThread.obj
 0001:0001b616       ?deleteItem@?$QPtrQueue@VQString@@@@EAEXPAX@Z 1001c616 f i descThread.obj
 0001:0001b638       ?drawLine@@YAXPAVQPainter@@ABVQRect@@ABVQColor@@HABVQString@@@Z 1001c638 f   drawLine.obj
 0001:0001b9c5       ??0structured_exception@@QAE@ABU_EXCEPTION_POINTERS@@@Z 1001c9c5 f   except.obj
 0001:0001b9da       ?install@structured_exception@@SAXXZ 1001c9da f   except.obj
 0001:0001ba11       ?what@structured_exception@@QBEIXZ 1001ca11 f   except.obj
 0001:0001ba15       ?GetWaveSize@ccWave@@QAEKXZ 1001ca15 f   except.obj
 0001:0001ba15       ?where@structured_exception@@QBEPBXXZ 1001ca15 f   except.obj
 0001:0001ba18       ?Log@@YAXPADZZ             1001ca18 f   except.obj
 0001:0001bb96       ?doHelp@@YAXABVQString@@@Z 1001cb96 f   help.obj
 0001:0001bd0f       _DllMain@12                1001cd0f f   main.obj
 0001:0001bfb3       ?copyFile@@YA_NPBD0@Z      1001cfb3 f   main.obj
 0001:0001c05c       ?rotateImage@@YAXPAD0N@Z   1001d05c f   main.obj
 0001:0001c1a1       ?metaObject@uiHost@@UBEPAVQMetaObject@@XZ 1001d1a1 f i moc_uiHost.obj
 0001:0001c1a6       ??0uiHost@@QAE@ABV0@@Z     1001d1a6 f i moc_uiHost.obj
 0001:0001c29b       ??4uiHost@@QAEAAV0@ABV0@@Z 1001d29b f i moc_uiHost.obj
 0001:0001c313       ??_FuiHost@@QAEXXZ         1001d313 f i moc_uiHost.obj
 0001:0001c31d       ??_EuiHost@@UAEPAXI@Z      1001d31d f i moc_uiHost.obj
 0001:0001c36b       ??1?$map@VQString@@V1@U?$less@VQString@@@std@@V?$allocator@VQString@@@3@@std@@QAE@XZ 1001d36b f i moc_uiHost.obj
 0001:0001c370       ?className@uiHost@@UBEPBDXZ 1001d370 f   moc_uiHost.obj
 0001:0001c3ad       ?tr@uiHost@@SA?AVQString@@PBD0@Z 1001d3ad f   moc_uiHost.obj
 0001:0001c3ee       ?trUtf8@uiHost@@SA?AVQString@@PBD0@Z 1001d3ee f   moc_uiHost.obj
 0001:0001c42f       ?staticMetaObject@uiHost@@SAPAVQMetaObject@@XZ 1001d42f f   moc_uiHost.obj
 0001:0001c4fa       ?qt_cast@uiHost@@UAEPAXPBD@Z 1001d4fa f   moc_uiHost.obj
 0001:0001c536       ?notify@uiHost@@IAEXAAVQString@@@Z 1001d536 f   moc_uiHost.obj
 0001:0001c5d7       ?qt_invoke@uiHost@@UAE_NHPAUQUObject@@@Z 1001d5d7 f   moc_uiHost.obj
 0001:0001c611       ?qt_emit@uiHost@@UAE_NHPAUQUObject@@@Z 1001d611 f   moc_uiHost.obj
 0001:0001c648       ?qt_static_property@bncs_smart_string@@SA_NPAVQObject@@HHPAVQVariant@@@Z 1001d648 f   moc_uiHost.obj
 0001:0001c648       ?qt_static_property@bncs_enum@@SA_NPAVQObject@@HHPAVQVariant@@@Z 1001d648 f   moc_uiHost.obj
 0001:0001c648       ?qt_static_property@bncs_range@@SA_NPAVQObject@@HHPAVQVariant@@@Z 1001d648 f   moc_uiHost.obj
 0001:0001c648       ?qt_static_property@bncs_line@@SA_NPAVQObject@@HHPAVQVariant@@@Z 1001d648 f   moc_uiHost.obj
 0001:0001c648       ?qt_static_property@bncs_sourcegrid@@SA_NPAVQObject@@HHPAVQVariant@@@Z 1001d648 f   moc_uiHost.obj
 0001:0001c648       ?qt_static_property@bncs_edittext@@SA_NPAVQObject@@HHPAVQVariant@@@Z 1001d648 f   moc_uiHost.obj
 0001:0001c648       ?qt_static_property@bncs_ss_base@@SA_NPAVQObject@@HHPAVQVariant@@@Z 1001d648 f   moc_uiHost.obj
 0001:0001c648       ?qt_static_property@bncs_ie@@SA_NPAVQObject@@HHPAVQVariant@@@Z 1001d648 f   moc_uiHost.obj
 0001:0001c648       ?qt_static_property@bncs_rtrDestGrid@@SA_NPAVQObject@@HHPAVQVariant@@@Z 1001d648 f   moc_uiHost.obj
 0001:0001c648       ?qt_static_property@bncs_listview@@SA_NPAVQObject@@HHPAVQVariant@@@Z 1001d648 f   moc_uiHost.obj
 0001:0001c648       ?qt_static_property@bncs_instance@@SA_NPAVQObject@@HHPAVQVariant@@@Z 1001d648 f   moc_uiHost.obj
 0001:0001c648       ?qt_static_property@bncs_data_button@@SA_NPAVQObject@@HHPAVQVariant@@@Z 1001d648 f   moc_uiHost.obj
 0001:0001c648       ?qt_static_property@bncs_control@@SA_NPAVQObject@@HHPAVQVariant@@@Z 1001d648 f   moc_uiHost.obj
 0001:0001c648       ?qt_static_property@bncs_rtrNameGrid@@SA_NPAVQObject@@HHPAVQVariant@@@Z 1001d648 f   moc_uiHost.obj
 0001:0001c648       ?qt_static_property@bncs_listbox@@SA_NPAVQObject@@HHPAVQVariant@@@Z 1001d648 f   moc_uiHost.obj
 0001:0001c648       ?qt_static_property@bncs_clock@@SA_NPAVQObject@@HHPAVQVariant@@@Z 1001d648 f   moc_uiHost.obj
 0001:0001c648       ?qt_static_property@bncs_keyboard_ctrl@@SA_NPAVQObject@@HHPAVQVariant@@@Z 1001d648 f   moc_uiHost.obj
 0001:0001c648       ?qt_static_property@bncs_script_loader@@SA_NPAVQObject@@HHPAVQVariant@@@Z 1001d648 f   moc_uiHost.obj
 0001:0001c648       ?qt_static_property@uiHost@@SA_NPAVQObject@@HHPAVQVariant@@@Z 1001d648 f   moc_uiHost.obj
 0001:0001c64b       ??1?$_Tree@VQString@@U?$pair@$$CBVQString@@V1@@std@@U_Kfn@?$map@VQString@@V1@U?$less@VQString@@@std@@V?$allocator@VQString@@@3@@3@U?$less@VQString@@@3@V?$allocator@VQString@@@3@@std@@QAE@XZ 1001d64b f i moc_uiHost.obj
 0001:0001c6ac       ??4?$_Tree@VQString@@U?$pair@$$CBVQString@@V1@@std@@U_Kfn@?$map@VQString@@V1@U?$less@VQString@@@std@@V?$allocator@VQString@@@3@@3@U?$less@VQString@@@3@V?$allocator@VQString@@@3@@std@@QAEAAV01@ABV01@@Z 1001d6ac f i moc_uiHost.obj
 0001:0001c6db       ?erase@?$_Tree@VQString@@U?$pair@$$CBVQString@@V1@@std@@U_Kfn@?$map@VQString@@V1@U?$less@VQString@@@std@@V?$allocator@VQString@@@3@@3@U?$less@VQString@@@3@V?$allocator@VQString@@@3@@std@@QAE?AViterator@12@V312@0@Z 1001d6db f i moc_uiHost.obj
 0001:0001c752       ?_Copy@?$_Tree@VQString@@U?$pair@$$CBVQString@@V1@@std@@U_Kfn@?$map@VQString@@V1@U?$less@VQString@@@std@@V?$allocator@VQString@@@3@@3@U?$less@VQString@@@3@V?$allocator@VQString@@@3@@std@@IAEXABV12@@Z 1001d752 f i moc_uiHost.obj
 0001:0001c7bc       ?_Init@?$_Tree@VQString@@U?$pair@$$CBVQString@@V1@@std@@U_Kfn@?$map@VQString@@V1@U?$less@VQString@@@std@@V?$allocator@VQString@@@3@@3@U?$less@VQString@@@3@V?$allocator@VQString@@@3@@std@@IAEXXZ 1001d7bc f i moc_uiHost.obj
 0001:0001c847       ??4?$_Tree@VQString@@V1@U_Kfn@?$set@VQString@@U?$less@VQString@@@std@@V?$allocator@VQString@@@3@@std@@U?$less@VQString@@@4@V?$allocator@VQString@@@4@@std@@QAEAAV01@ABV01@@Z 1001d847 f i moc_uiHost.obj
 0001:0001c876       ?erase@?$_Tree@VQString@@V1@U_Kfn@?$set@VQString@@U?$less@VQString@@@std@@V?$allocator@VQString@@@3@@std@@U?$less@VQString@@@4@V?$allocator@VQString@@@4@@std@@QAE?AViterator@12@V312@0@Z 1001d876 f i moc_uiHost.obj
 0001:0001c8ed       ?_Copy@?$_Tree@VQString@@V1@U_Kfn@?$set@VQString@@U?$less@VQString@@@std@@V?$allocator@VQString@@@3@@std@@U?$less@VQString@@@4@V?$allocator@VQString@@@4@@std@@IAEXABV12@@Z 1001d8ed f i moc_uiHost.obj
 0001:0001c957       ?_Init@?$_Tree@VQString@@V1@U_Kfn@?$set@VQString@@U?$less@VQString@@@std@@V?$allocator@VQString@@@3@@std@@U?$less@VQString@@@4@V?$allocator@VQString@@@4@@std@@IAEXXZ 1001d957 f i moc_uiHost.obj
 0001:0001c9e2       ?erase@?$_Tree@VQString@@U?$pair@$$CBVQString@@V1@@std@@U_Kfn@?$map@VQString@@V1@U?$less@VQString@@@std@@V?$allocator@VQString@@@3@@3@U?$less@VQString@@@3@V?$allocator@VQString@@@3@@std@@QAE?AViterator@12@V312@@Z 1001d9e2 f i moc_uiHost.obj
 0001:0001cc84       ?_Copy@?$_Tree@VQString@@U?$pair@$$CBVQString@@V1@@std@@U_Kfn@?$map@VQString@@V1@U?$less@VQString@@@std@@V?$allocator@VQString@@@3@@3@U?$less@VQString@@@3@V?$allocator@VQString@@@3@@std@@IAEPAU_Node@12@PAU312@0@Z 1001dc84 f i moc_uiHost.obj
 0001:0001ccff       ?_Erase@?$_Tree@VQString@@U?$pair@$$CBVQString@@V1@@std@@U_Kfn@?$map@VQString@@V1@U?$less@VQString@@@std@@V?$allocator@VQString@@@3@@3@U?$less@VQString@@@3@V?$allocator@VQString@@@3@@std@@IAEXPAU_Node@12@@Z 1001dcff f i moc_uiHost.obj
 0001:0001cd3d       ?erase@?$_Tree@VQString@@V1@U_Kfn@?$set@VQString@@U?$less@VQString@@@std@@V?$allocator@VQString@@@3@@std@@U?$less@VQString@@@4@V?$allocator@VQString@@@4@@std@@QAE?AViterator@12@V312@@Z 1001dd3d f i moc_uiHost.obj
 0001:0001cfde       ?_Copy@?$_Tree@VQString@@V1@U_Kfn@?$set@VQString@@U?$less@VQString@@@std@@V?$allocator@VQString@@@3@@std@@U?$less@VQString@@@4@V?$allocator@VQString@@@4@@std@@IAEPAU_Node@12@PAU312@0@Z 1001dfde f i moc_uiHost.obj
 0001:0001d059       ?_Erase@?$_Tree@VQString@@V1@U_Kfn@?$set@VQString@@U?$less@VQString@@@std@@V?$allocator@VQString@@@3@@std@@U?$less@VQString@@@4@V?$allocator@VQString@@@4@@std@@IAEXPAU_Node@12@@Z 1001e059 f i moc_uiHost.obj
 0001:0001d098       ?_Lrotate@?$_Tree@VQString@@U?$pair@$$CBVQString@@V1@@std@@U_Kfn@?$map@VQString@@V1@U?$less@VQString@@@std@@V?$allocator@VQString@@@3@@3@U?$less@VQString@@@3@V?$allocator@VQString@@@3@@std@@IAEXPAU_Node@12@@Z 1001e098 f i moc_uiHost.obj
 0001:0001d0dc       ?_Rrotate@?$_Tree@VQString@@U?$pair@$$CBVQString@@V1@@std@@U_Kfn@?$map@VQString@@V1@U?$less@VQString@@@std@@V?$allocator@VQString@@@3@@3@U?$less@VQString@@@3@V?$allocator@VQString@@@3@@std@@IAEXPAU_Node@12@@Z 1001e0dc f i moc_uiHost.obj
 0001:0001d122       ?_Lrotate@?$_Tree@VQString@@V1@U_Kfn@?$set@VQString@@U?$less@VQString@@@std@@V?$allocator@VQString@@@3@@std@@U?$less@VQString@@@4@V?$allocator@VQString@@@4@@std@@IAEXPAU_Node@12@@Z 1001e122 f i moc_uiHost.obj
 0001:0001d166       ?_Rrotate@?$_Tree@VQString@@V1@U_Kfn@?$set@VQString@@U?$less@VQString@@@std@@V?$allocator@VQString@@@3@@std@@U?$less@VQString@@@4@V?$allocator@VQString@@@4@@std@@IAEXPAU_Node@12@@Z 1001e166 f i moc_uiHost.obj
 0001:0001d1ac       ?_Inc@const_iterator@?$_Tree@VQString@@U?$pair@$$CBVQString@@V1@@std@@U_Kfn@?$map@VQString@@V1@U?$less@VQString@@@std@@V?$allocator@VQString@@@3@@3@U?$less@VQString@@@3@V?$allocator@VQString@@@3@@std@@QAEXXZ 1001e1ac f i moc_uiHost.obj
 0001:0001d1e2       ?_Inc@const_iterator@?$_Tree@VQString@@V1@U_Kfn@?$set@VQString@@U?$less@VQString@@@std@@V?$allocator@VQString@@@3@@std@@U?$less@VQString@@@4@V?$allocator@VQString@@@4@@std@@QAEXXZ 1001e1e2 f i moc_uiHost.obj
 0001:0001d218       ?_Construct@std@@YAXPAU?$pair@$$CBVQString@@V1@@1@ABU21@@Z 1001e218 f i moc_uiHost.obj
 0001:0001d25e       ?_Destroy@std@@YAXPAU?$pair@$$CBVQString@@V1@@1@@Z 1001e25e f i moc_uiHost.obj
 0001:0001d267       ??1?$pair@$$CBVQString@@V1@@std@@QAE@XZ 1001e267 f i moc_uiHost.obj
 0001:0001d29e       ??_EuiHost@@WCI@AEPAXI@Z   1001e29e f i moc_uiHost.obj
 0001:0001d2a6       ?className@uiHostEditDialog@@UBEPBDXZ 1001e2a6 f   moc_uiHostEditdialogimpl.obj
 0001:0001d2e3       ?staticMetaObject@uiHostEditDialog@@SAPAVQMetaObject@@XZ 1001e2e3 f   moc_uiHostEditdialogimpl.obj
 0001:0001d32e       ?qt_cast@uiHostEditDialog@@UAEPAXPBD@Z 1001e32e f   moc_uiHostEditdialogimpl.obj
 0001:0001d369       ?qt_invoke@uiHostEditDialog@@UAE_NHPAUQUObject@@@Z 1001e369 f   moc_uiHostEditdialogimpl.obj
 0001:0001d3b3       ??0param_browser@@QAE@PBDPAVQWidget@@0_NI@Z 1001e3b3 f   param_browserimpl.obj
 0001:0001d82f       ?metaObject@param_browser@@UBEPAVQMetaObject@@XZ 1001e82f f i param_browserimpl.obj
 0001:0001d834       ??_Gparam_browser@@UAEPAXI@Z 1001e834 f i param_browserimpl.obj
 0001:0001d834       ??_Eparam_browser@@UAEPAXI@Z 1001e834 f i param_browserimpl.obj
 0001:0001d850       ??1param_browser@@UAE@XZ   1001e850 f   param_browserimpl.obj
 0001:0001d862       ?getParam@param_browser@@QAE?AVQString@@XZ 1001e862 f   param_browserimpl.obj
 0001:0001d89a       ??_Eparam_browser@@WCI@AEPAXI@Z 1001e89a f i param_browserimpl.obj
 0001:0001d8a2       ??0playSound@@QAE@ABV?$basic_string@DU?$char_traits@D@std@@V?$allocator@D@2@@std@@@Z 1001e8a2 f   playSound.obj
 0001:0001da70       ??_GplaySound@@UAEPAXI@Z   1001ea70 f i playSound.obj
 0001:0001da70       ??_EplaySound@@UAEPAXI@Z   1001ea70 f i playSound.obj
 0001:0001da8c       ??1playSound@@UAE@XZ       1001ea8c f   playSound.obj
 0001:0001dadf       ?isPlaying@playSound@@QAE_NXZ 1001eadf f   playSound.obj
 0001:0001db0c       ?play@playSound@@QAEXH@Z   1001eb0c f   playSound.obj
 0001:0001db4c       ?stop@playSound@@QAEXXZ    1001eb4c f   playSound.obj
 0001:0001db5a       ?init@playSound@@AAEXXZ    1001eb5a f   playSound.obj
 0001:0001dc4a       ?fileIsValid@playSound@@QAE_NXZ 1001ec4a f   playSound.obj
 0001:0001dc4a       ?WaveOK@ccWave@@QAE_NXZ    1001ec4a f   playSound.obj
 0001:0001dc4e       ?SndWndProc@@YGJPAUHWND__@@IIJ@Z 1001ec4e f   playSound.obj
 0001:0001dc71       ?getFile@playSound@@QAE?AV?$basic_string@DU?$char_traits@D@std@@V?$allocator@D@2@@std@@XZ 1001ec71 f   playSound.obj
 0001:0001dcaa       ??0CustomWidgetPlugin@@QAE@ABV0@@Z 1001ecaa f i plugin.obj
 0001:0001dcd9       ??4CustomWidgetPlugin@@QAEAAV0@ABV0@@Z 1001ecd9 f i plugin.obj
 0001:0001dcfb       ??1CustomWidgetPlugin@@UAE@XZ 1001ecfb f i plugin.obj
 0001:0001dd01       ??_ECustomWidgetPlugin@@UAEPAXI@Z 1001ed01 f i plugin.obj
 0001:0001dd4c       ?metaObject@bncs_listbox@@UBEPAVQMetaObject@@XZ 1001ed4c f i plugin.obj
 0001:0001dd51       ??0bncs_listbox@@QAE@ABV0@@Z 1001ed51 f i plugin.obj
 0001:0001de2f       ??4bncs_listbox@@QAEAAV0@ABV0@@Z 1001ee2f f i plugin.obj
 0001:0001deec       ??_Fbncs_listbox@@QAEXXZ   1001eeec f i plugin.obj
 0001:0001def6       ??_Ebncs_listbox@@UAEPAXI@Z 1001eef6 f i plugin.obj
 0001:0001df44       ?metaObject@bncs_edittext@@UBEPAVQMetaObject@@XZ 1001ef44 f i plugin.obj
 0001:0001df49       ??0bncs_edittext@@QAE@ABV0@@Z 1001ef49 f i plugin.obj
 0001:0001e06f       ??_Fbncs_edittext@@QAEXXZ  1001f06f f i plugin.obj
 0001:0001e079       ??_Ebncs_edittext@@UAEPAXI@Z 1001f079 f i plugin.obj
 0001:0001e0c7       ?metaObject@bncs_line@@UBEPAVQMetaObject@@XZ 1001f0c7 f i plugin.obj
 0001:0001e0cc       ??0bncs_line@@QAE@ABV0@@Z  1001f0cc f i plugin.obj
 0001:0001e1a4       ??4bncs_line@@QAEAAV0@ABV0@@Z 1001f1a4 f i plugin.obj
 0001:0001e24b       ??1bncs_line@@UAE@XZ       1001f24b f i plugin.obj
 0001:0001e2a5       ??_Fbncs_line@@QAEXXZ      1001f2a5 f i plugin.obj
 0001:0001e2af       ??_Ebncs_line@@UAEPAXI@Z   1001f2af f i plugin.obj
 0001:0001e2fd       ?metaObject@bncs_sourcegrid@@UBEPAVQMetaObject@@XZ 1001f2fd f i plugin.obj
 0001:0001e302       ?qObject@uiHost@@QAEPAVQObject@@XZ 1001f302 f i plugin.obj
 0001:0001e302       ?qObject@bncs_listview@@QAEPAVQObject@@XZ 1001f302 f i plugin.obj
 0001:0001e302       ?qObject@bncs_range@@QAEPAVQObject@@XZ 1001f302 f i plugin.obj
 0001:0001e302       ?qObject@bncs_data_button@@QAEPAVQObject@@XZ 1001f302 f i plugin.obj
 0001:0001e302       ?qObject@bncs_ss_base@@QAEPAVQObject@@XZ 1001f302 f i plugin.obj
 0001:0001e302       ?qObject@bncs_rtrDestGrid@@QAEPAVQObject@@XZ 1001f302 f i plugin.obj
 0001:0001e302       ?qObject@bncs_listbox@@QAEPAVQObject@@XZ 1001f302 f i plugin.obj
 0001:0001e302       ?qObject@bncs_smart_string@@QAEPAVQObject@@XZ 1001f302 f i plugin.obj
 0001:0001e302       ?qObject@bncs_control@@QAEPAVQObject@@XZ 1001f302 f i plugin.obj
 0001:0001e302       ?qObject@bncs_instance@@QAEPAVQObject@@XZ 1001f302 f i plugin.obj
 0001:0001e302       ?qObject@bncs_keyboard_ctrl@@QAEPAVQObject@@XZ 1001f302 f i plugin.obj
 0001:0001e302       ?qObject@bncs_line@@QAEPAVQObject@@XZ 1001f302 f i plugin.obj
 0001:0001e302       ?qObject@bncs_clock@@QAEPAVQObject@@XZ 1001f302 f i plugin.obj
 0001:0001e302       ?qObject@bncs_edittext@@QAEPAVQObject@@XZ 1001f302 f i plugin.obj
 0001:0001e302       ?qObject@bncs_script_loader@@QAEPAVQObject@@XZ 1001f302 f i plugin.obj
 0001:0001e302       ?qObject@bncs_enum@@QAEPAVQObject@@XZ 1001f302 f i plugin.obj
 0001:0001e302       ?qObject@bncs_sourcegrid@@QAEPAVQObject@@XZ 1001f302 f i plugin.obj
 0001:0001e302       ?qObject@bncs_rtrNameGrid@@QAEPAVQObject@@XZ 1001f302 f i plugin.obj
 0001:0001e302       ?qObject@bncs_ie@@QAEPAVQObject@@XZ 1001f302 f i plugin.obj
 0001:0001e305       ??0bncs_sourcegrid@@QAE@ABV0@@Z 1001f305 f i plugin.obj
 0001:0001e5c7       ??_Fbncs_sourcegrid@@QAEXXZ 1001f5c7 f i plugin.obj
 0001:0001e5d1       ??_Ebncs_sourcegrid@@UAEPAXI@Z 1001f5d1 f i plugin.obj
 0001:0001e61f       ?metaObject@bncs_ie@@UBEPAVQMetaObject@@XZ 1001f61f f i plugin.obj
 0001:0001e624       ??0bncs_ie@@QAE@ABV0@@Z    1001f624 f i plugin.obj
 0001:0001e6e0       ??_Fbncs_ie@@QAEXXZ        1001f6e0 f i plugin.obj
 0001:0001e6ea       ??_Ebncs_ie@@UAEPAXI@Z     1001f6ea f i plugin.obj
 0001:0001e738       ?metaObject@bncs_instance@@UBEPAVQMetaObject@@XZ 1001f738 f i plugin.obj
 0001:0001e73d       ??0bncs_instance@@QAE@ABV0@@Z 1001f73d f i plugin.obj
 0001:0001e7ba       ??4bncs_instance@@QAEAAV0@ABV0@@Z 1001f7ba f i plugin.obj
 0001:0001e802       ??_Fbncs_instance@@QAEXXZ  1001f802 f i plugin.obj
 0001:0001e80d       ??_Ebncs_instance@@UAEPAXI@Z 1001f80d f i plugin.obj
 0001:0001e85b       ?metaObject@bncs_clock@@UBEPAVQMetaObject@@XZ 1001f85b f i plugin.obj
 0001:0001e860       ??0bncs_clock@@QAE@ABV0@@Z 1001f860 f i plugin.obj
 0001:0001e98b       ??4bncs_clock@@QAEAAV0@ABV0@@Z 1001f98b f i plugin.obj
 0001:0001ea81       ??1bncs_clock@@UAE@XZ      1001fa81 f i plugin.obj
 0001:0001eaee       ??_Fbncs_clock@@QAEXXZ     1001faee f i plugin.obj
 0001:0001eaf8       ??_Ebncs_clock@@UAEPAXI@Z  1001faf8 f i plugin.obj
 0001:0001eb46       ?metaObject@bncs_smart_string@@UBEPAVQMetaObject@@XZ 1001fb46 f i plugin.obj
 0001:0001eb4b       ??0bncs_smart_string@@QAE@ABV0@@Z 1001fb4b f i plugin.obj
 0001:0001eda7       ??_Fbncs_smart_string@@QAEXXZ 1001fda7 f i plugin.obj
 0001:0001edb2       ??_Ebncs_smart_string@@UAEPAXI@Z 1001fdb2 f i plugin.obj
 0001:0001ee00       ?metaObject@bncs_rtrNameGrid@@UBEPAVQMetaObject@@XZ 1001fe00 f i plugin.obj
 0001:0001ee05       ??0bncs_rtrNameGrid@@QAE@ABV0@@Z 1001fe05 f i plugin.obj
 0001:0001f07b       ??_Fbncs_rtrNameGrid@@QAEXXZ 1002007b f i plugin.obj
 0001:0001f085       ??_Ebncs_rtrNameGrid@@UAEPAXI@Z 10020085 f i plugin.obj
 0001:0001f0d3       ?metaObject@bncs_rtrDestGrid@@UBEPAVQMetaObject@@XZ 100200d3 f i plugin.obj
 0001:0001f0d8       ??0bncs_rtrDestGrid@@QAE@ABV0@@Z 100200d8 f i plugin.obj
 0001:0001f451       ??_Fbncs_rtrDestGrid@@QAEXXZ 10020451 f i plugin.obj
 0001:0001f45b       ??_Ebncs_rtrDestGrid@@UAEPAXI@Z 1002045b f i plugin.obj
 0001:0001f4a9       ??0CustomWidgetPlugin@@QAE@XZ 100204a9 f   plugin.obj
 0001:0001f4bc       ?keys@CustomWidgetPlugin@@UBE?AVQStringList@@XZ 100204bc f   plugin.obj
 0001:0001f841       ?create@CustomWidgetPlugin@@UAEPAVQWidget@@ABVQString@@PAV2@PBD@Z 10020841 f   plugin.obj
 0001:0001fccc       ?group@CustomWidgetPlugin@@UBE?AVQString@@ABV2@@Z 10020ccc f   plugin.obj
 0001:0001fce9       ?iconSet@CustomWidgetPlugin@@UBE?AVQIconSet@@ABVQString@@@Z 10020ce9 f   plugin.obj
 0001:0001fd3d       ?includeFile@CustomWidgetPlugin@@UBE?AVQString@@ABV2@@Z 10020d3d f   plugin.obj
 0001:0001fe9b       ?toolTip@CustomWidgetPlugin@@UBE?AVQString@@ABV2@@Z 10020e9b f   plugin.obj
 0001:0002001b       ?whatsThis@CustomWidgetPlugin@@UBE?AVQString@@ABV2@@Z 1002101b f   plugin.obj
 0001:0002019b       ?isContainer@CustomWidgetPlugin@@UBE_NABVQString@@@Z 1002119b f   plugin.obj
 0001:000201a0       _qt_ucm_query_verification_data 100211a0 f   plugin.obj
 0001:000201a6       _ucm_instantiate           100211a6 f   plugin.obj
 0001:000201c5       ??_Ebncs_instance@@WCI@AEPAXI@Z 100211c5 f i plugin.obj
 0001:000201cd       ??_Ebncs_rtrNameGrid@@WCI@AEPAXI@Z 100211cd f i plugin.obj
 0001:000201d5       ??_Ebncs_rtrNameGrid@@WHA@AEPAXI@Z 100211d5 f i plugin.obj
 0001:000201dd       ??_Ebncs_rtrDestGrid@@WCI@AEPAXI@Z 100211dd f i plugin.obj
 0001:000201e5       ??_Ebncs_rtrDestGrid@@WHA@AEPAXI@Z 100211e5 f i plugin.obj
 0001:000201ed       ??_Ebncs_ie@@WCI@AEPAXI@Z  100211ed f i plugin.obj
 0001:000201f5       ??_Ebncs_ie@@WGM@AEPAXI@Z  100211f5 f i plugin.obj
 0001:000201fd       ??_Ebncs_line@@WCI@AEPAXI@Z 100211fd f i plugin.obj
 0001:00020205       ??_Ebncs_listbox@@WCI@AEPAXI@Z 10021205 f i plugin.obj
 0001:0002020d       ??_Ebncs_edittext@@WCI@AEPAXI@Z 1002120d f i plugin.obj
 0001:00020215       ??_Ebncs_edittext@@WGM@AEPAXI@Z 10021215 f i plugin.obj
 0001:0002021d       ??_Ebncs_sourcegrid@@WCI@AEPAXI@Z 1002121d f i plugin.obj
 0001:00020225       ??_Ebncs_sourcegrid@@WHA@AEPAXI@Z 10021225 f i plugin.obj
 0001:0002022d       ??_Ebncs_smart_string@@WCI@AEPAXI@Z 1002122d f i plugin.obj
 0001:00020235       ??_Ebncs_smart_string@@WBAM@AEPAXI@Z 10021235 f i plugin.obj
 0001:00020240       ??_Ebncs_clock@@WCI@AEPAXI@Z 10021240 f i plugin.obj
 0001:00020248       _fnSplitRev                10021248 f   splitrev.obj
 0001:00020351       ??1?$map@HVclient@@U?$less@H@std@@V?$allocator@Vclient@@@3@@std@@QAE@XZ 10021351 f i timer.obj
 0001:00020356       ??0timer@@QAE@PAVItimerCallback@@@Z 10021356 f   timer.obj
 0001:00020368       ??_Gtimer@@UAEPAXI@Z       10021368 f i timer.obj
 0001:00020368       ??_Etimer@@UAEPAXI@Z       10021368 f i timer.obj
 0001:00020384       ??1timer@@UAE@XZ           10021384 f   timer.obj
 0001:000203e3       ?timerStart@timer@@QAEHHH@Z 100213e3 f   timer.obj
 0001:00020432       ?timerStop@timer@@QAEHH@Z  10021432 f   timer.obj
 0001:00020493       ?timerProc@@YGXPAUHWND__@@IKK@Z 10021493 f   timer.obj
 0001:000204c9       ??0?$map@HVclient@@U?$less@H@std@@V?$allocator@Vclient@@@3@@std@@QAE@ABU?$less@H@1@ABV?$allocator@Vclient@@@1@@Z 100214c9 f i timer.obj
 0001:000204ec       ??1?$_Tree@HU?$pair@$$CBHVclient@@@std@@U_Kfn@?$map@HVclient@@U?$less@H@std@@V?$allocator@Vclient@@@3@@2@U?$less@H@2@V?$allocator@Vclient@@@2@@std@@QAE@XZ 100214ec f i timer.obj
 0001:0002054d       ?insert@?$_Tree@HU?$pair@$$CBHVclient@@@std@@U_Kfn@?$map@HVclient@@U?$less@H@std@@V?$allocator@Vclient@@@3@@2@U?$less@H@2@V?$allocator@Vclient@@@2@@std@@QAE?AU?$pair@Viterator@?$_Tree@HU?$pair@$$CBHVclient@@@std@@U_Kfn@?$map@HVclient@@U?$less@H@std@@V?$allocator@Vclient@@@3@@2@U?$less@H@2@V?$allocator@Vclient@@@2@@std@@_N@2@ABU?$pair@$$CBHVclient@@@2@@Z 1002154d f i timer.obj
 0001:000205eb       ?erase@?$_Tree@HU?$pair@$$CBHVclient@@@std@@U_Kfn@?$map@HVclient@@U?$less@H@std@@V?$allocator@Vclient@@@3@@2@U?$less@H@2@V?$allocator@Vclient@@@2@@std@@QAE?AViterator@12@V312@@Z 100215eb f i timer.obj
 0001:00020882       ?erase@?$_Tree@HU?$pair@$$CBHVclient@@@std@@U_Kfn@?$map@HVclient@@U?$less@H@std@@V?$allocator@Vclient@@@3@@2@U?$less@H@2@V?$allocator@Vclient@@@2@@std@@QAE?AViterator@12@V312@0@Z 10021882 f i timer.obj
 0001:00020919       ?find@?$_Tree@HU?$pair@$$CBHVclient@@@std@@U_Kfn@?$map@HVclient@@U?$less@H@std@@V?$allocator@Vclient@@@3@@2@U?$less@H@2@V?$allocator@Vclient@@@2@@std@@QAE?AViterator@12@ABH@Z 10021919 f i timer.obj
 0001:00020953       ?_Inc@const_iterator@?$_Tree@HU?$pair@$$CBHVclient@@@std@@U_Kfn@?$map@HVclient@@U?$less@H@std@@V?$allocator@Vclient@@@3@@2@U?$less@H@2@V?$allocator@Vclient@@@2@@std@@QAEXXZ 10021953 f i timer.obj
 0001:00020989       ?_Erase@?$_Tree@HU?$pair@$$CBHVclient@@@std@@U_Kfn@?$map@HVclient@@U?$less@H@std@@V?$allocator@Vclient@@@3@@2@U?$less@H@2@V?$allocator@Vclient@@@2@@std@@IAEXPAU_Node@12@@Z 10021989 f i timer.obj
 0001:000209bf       ?_Init@?$_Tree@HU?$pair@$$CBHVclient@@@std@@U_Kfn@?$map@HVclient@@U?$less@H@std@@V?$allocator@Vclient@@@3@@2@U?$less@H@2@V?$allocator@Vclient@@@2@@std@@IAEXXZ 100219bf f i timer.obj
 0001:00020a4a       ?_Insert@?$_Tree@HU?$pair@$$CBHVclient@@@std@@U_Kfn@?$map@HVclient@@U?$less@H@std@@V?$allocator@Vclient@@@3@@2@U?$less@H@2@V?$allocator@Vclient@@@2@@std@@IAE?AViterator@12@PAU_Node@12@0ABU?$pair@$$CBHVclient@@@2@@Z 10021a4a f i timer.obj
 0001:00020b9b       ?_Lrotate@?$_Tree@HU?$pair@$$CBHVclient@@@std@@U_Kfn@?$map@HVclient@@U?$less@H@std@@V?$allocator@Vclient@@@3@@2@U?$less@H@2@V?$allocator@Vclient@@@2@@std@@IAEXPAU_Node@12@@Z 10021b9b f i timer.obj
 0001:00020bdf       ?_Rrotate@?$_Tree@HU?$pair@$$CBHVclient@@@std@@U_Kfn@?$map@HVclient@@U?$less@H@std@@V?$allocator@Vclient@@@3@@2@U?$less@H@2@V?$allocator@Vclient@@@2@@std@@IAEXPAU_Node@12@@Z 10021bdf f i timer.obj
 0001:00020c25       ?_Lbound@?$_Tree@HU?$pair@$$CBHVclient@@@std@@U_Kfn@?$map@HVclient@@U?$less@H@std@@V?$allocator@Vclient@@@3@@2@U?$less@H@2@V?$allocator@Vclient@@@2@@std@@IBEPAU_Node@12@ABH@Z 10021c25 f i timer.obj
 0001:00020c52       ?_Dec@const_iterator@?$_Tree@HU?$pair@$$CBHVclient@@@std@@U_Kfn@?$map@HVclient@@U?$less@H@std@@V?$allocator@Vclient@@@3@@2@U?$less@H@2@V?$allocator@Vclient@@@2@@std@@QAEXXZ 10021c52 f i timer.obj
 0001:00020c8e       ?_Construct@std@@YAXPAU?$pair@$$CBHVclient@@@1@ABU21@@Z 10021c8e f i timer.obj
 0001:00020ceb       ??1?$set@HU?$less@H@std@@V?$allocator@H@2@@std@@QAE@XZ 10021ceb f i TimerDebug.obj
 0001:00020cf0       ??0?$set@HU?$less@H@std@@V?$allocator@H@2@@std@@QAE@ABU?$less@H@1@ABV?$allocator@H@1@@Z 10021cf0 f i TimerDebug.obj
 0001:00020d13       ??1?$_Tree@HHU_Kfn@?$set@HU?$less@H@std@@V?$allocator@H@2@@std@@U?$less@H@3@V?$allocator@H@3@@std@@QAE@XZ 10021d13 f i TimerDebug.obj
 0001:00020d74       ?erase@?$_Tree@HHU_Kfn@?$set@HU?$less@H@std@@V?$allocator@H@2@@std@@U?$less@H@3@V?$allocator@H@3@@std@@QAE?AViterator@12@V312@@Z 10021d74 f i TimerDebug.obj
 0001:0002100b       ?erase@?$_Tree@HHU_Kfn@?$set@HU?$less@H@std@@V?$allocator@H@2@@std@@U?$less@H@3@V?$allocator@H@3@@std@@QAE?AViterator@12@V312@0@Z 1002200b f i TimerDebug.obj
 0001:000210a2       ?_Erase@?$_Tree@HHU_Kfn@?$set@HU?$less@H@std@@V?$allocator@H@2@@std@@U?$less@H@3@V?$allocator@H@3@@std@@IAEXPAU_Node@12@@Z 100220a2 f i TimerDebug.obj
 0001:000210d8       ?_Init@?$_Tree@HHU_Kfn@?$set@HU?$less@H@std@@V?$allocator@H@2@@std@@U?$less@H@3@V?$allocator@H@3@@std@@IAEXXZ 100220d8 f i TimerDebug.obj
 0001:00021163       ?_Lrotate@?$_Tree@HHU_Kfn@?$set@HU?$less@H@std@@V?$allocator@H@2@@std@@U?$less@H@3@V?$allocator@H@3@@std@@IAEXPAU_Node@12@@Z 10022163 f i TimerDebug.obj
 0001:000211a7       ?_Rrotate@?$_Tree@HHU_Kfn@?$set@HU?$less@H@std@@V?$allocator@H@2@@std@@U?$less@H@3@V?$allocator@H@3@@std@@IAEXPAU_Node@12@@Z 100221a7 f i TimerDebug.obj
 0001:000211ed       ?_Inc@const_iterator@?$_Tree@HHU_Kfn@?$set@HU?$less@H@std@@V?$allocator@H@2@@std@@U?$less@H@3@V?$allocator@H@3@@std@@QAEXXZ 100221ed f i TimerDebug.obj
 0001:00021223       ??1validState@@UAE@XZ      10022223 f   validState.obj
 0001:0002127e       ??0bncs_clock_editBase@@QAE@PAVQWidget@@PBD_NI@Z 1002227e f   bncs_clock_edit.obj
 0001:00022a40       ?metaObject@bncs_clock_editBase@@UBEPAVQMetaObject@@XZ 10023a40 f i bncs_clock_edit.obj
 0001:00022a45       ??_EQSpacerItem@@UAEPAXI@Z 10023a45 f i bncs_clock_edit.obj
 0001:00022a45       ??_GQSpacerItem@@UAEPAXI@Z 10023a45 f i bncs_clock_edit.obj
 0001:00022a62       ??_Gbncs_clock_editBase@@UAEPAXI@Z 10023a62 f i bncs_clock_edit.obj
 0001:00022a62       ??_Ebncs_clock_editBase@@UAEPAXI@Z 10023a62 f i bncs_clock_edit.obj
 0001:00022a7e       ??_GQVBoxLayout@@UAEPAXI@Z 10023a7e f i bncs_clock_edit.obj
 0001:00022a7e       ??_EQVBoxLayout@@UAEPAXI@Z 10023a7e f i bncs_clock_edit.obj
 0001:00022a9b       ??_EQTabWidget@@UAEPAXI@Z  10023a9b f i bncs_clock_edit.obj
 0001:00022a9b       ??_GQTabWidget@@UAEPAXI@Z  10023a9b f i bncs_clock_edit.obj
 0001:00022ab8       ??_GQGroupBox@@UAEPAXI@Z   10023ab8 f i bncs_clock_edit.obj
 0001:00022ab8       ??_EQGroupBox@@UAEPAXI@Z   10023ab8 f i bncs_clock_edit.obj
 0001:00022ad5       ??_EQLineEdit@@UAEPAXI@Z   10023ad5 f i bncs_clock_edit.obj
 0001:00022ad5       ??_GQLineEdit@@UAEPAXI@Z   10023ad5 f i bncs_clock_edit.obj
 0001:00022af2       ??_EQPushButton@@UAEPAXI@Z 10023af2 f i bncs_clock_edit.obj
 0001:00022af2       ??_GQPushButton@@UAEPAXI@Z 10023af2 f i bncs_clock_edit.obj
 0001:00022b0f       ??_EQButtonGroup@@UAEPAXI@Z 10023b0f f i bncs_clock_edit.obj
 0001:00022b0f       ??_GQButtonGroup@@UAEPAXI@Z 10023b0f f i bncs_clock_edit.obj
 0001:00022b2c       ??_GQHBoxLayout@@UAEPAXI@Z 10023b2c f i bncs_clock_edit.obj
 0001:00022b2c       ??_EQHBoxLayout@@UAEPAXI@Z 10023b2c f i bncs_clock_edit.obj
 0001:00022b49       ??_EQRadioButton@@UAEPAXI@Z 10023b49 f i bncs_clock_edit.obj
 0001:00022b49       ??_GQRadioButton@@UAEPAXI@Z 10023b49 f i bncs_clock_edit.obj
 0001:00022b66       ??_GQSpinBox@@UAEPAXI@Z    10023b66 f i bncs_clock_edit.obj
 0001:00022b66       ??_EQSpinBox@@UAEPAXI@Z    10023b66 f i bncs_clock_edit.obj
 0001:00022b83       ??_EQCheckBox@@UAEPAXI@Z   10023b83 f i bncs_clock_edit.obj
 0001:00022b83       ??_GQCheckBox@@UAEPAXI@Z   10023b83 f i bncs_clock_edit.obj
 0001:00022ba0       ??_EQGridLayout@@UAEPAXI@Z 10023ba0 f i bncs_clock_edit.obj
 0001:00022ba0       ??_GQGridLayout@@UAEPAXI@Z 10023ba0 f i bncs_clock_edit.obj
 0001:00022bbd       ??_GQLabel@@UAEPAXI@Z      10023bbd f i bncs_clock_edit.obj
 0001:00022bbd       ??_EQLabel@@UAEPAXI@Z      10023bbd f i bncs_clock_edit.obj
 0001:00022bda       ??1bncs_clock_editBase@@UAE@XZ 10023bda f   bncs_clock_edit.obj
 0001:00022bed       ?languageChange@bncs_clock_editBase@@MAEXXZ 10023bed f   bncs_clock_edit.obj
 0001:0002371d       ??_EQVBoxLayout@@WCI@AEPAXI@Z 1002471d f i bncs_clock_edit.obj
 0001:00023725       ??_EQHBoxLayout@@WCI@AEPAXI@Z 10024725 f i bncs_clock_edit.obj
 0001:0002372d       ??_EQGridLayout@@WCI@AEPAXI@Z 1002472d f i bncs_clock_edit.obj
 0001:00023735       ??_EQTabWidget@@WCI@AEPAXI@Z 10024735 f i bncs_clock_edit.obj
 0001:0002373d       ??_EQGroupBox@@WCI@AEPAXI@Z 1002473d f i bncs_clock_edit.obj
 0001:00023745       ??_EQLineEdit@@WCI@AEPAXI@Z 10024745 f i bncs_clock_edit.obj
 0001:0002374d       ??_EQButtonGroup@@WCI@AEPAXI@Z 1002474d f i bncs_clock_edit.obj
 0001:00023755       ??_EQRadioButton@@WCI@AEPAXI@Z 10024755 f i bncs_clock_edit.obj
 0001:0002375d       ??_EQSpinBox@@WCI@AEPAXI@Z 1002475d f i bncs_clock_edit.obj
 0001:00023765       ??_EQSpinBox@@WGM@AEPAXI@Z 10024765 f i bncs_clock_edit.obj
 0001:0002376d       ??_EQCheckBox@@WCI@AEPAXI@Z 1002476d f i bncs_clock_edit.obj
 0001:00023775       ??_EQLabel@@WCI@AEPAXI@Z   10024775 f i bncs_clock_edit.obj
 0001:0002377d       ??_Ebncs_clock_editBase@@WCI@AEPAXI@Z 1002477d f i bncs_clock_edit.obj
 0001:00023785       ??_EQPushButton@@WCI@AEPAXI@Z 10024785 f i bncs_clock_edit.obj
 0001:0002378d       ??0bncs_config_browserBase@@QAE@PAVQWidget@@PBD_NI@Z 1002478d f   bncs_config_browser.obj
 0001:00023ab4       ?metaObject@bncs_config_browserBase@@UBEPAVQMetaObject@@XZ 10024ab4 f i bncs_config_browser.obj
 0001:00023ab9       ??_Gbncs_config_browserBase@@UAEPAXI@Z 10024ab9 f i bncs_config_browser.obj
 0001:00023ab9       ??_Ebncs_config_browserBase@@UAEPAXI@Z 10024ab9 f i bncs_config_browser.obj
 0001:00023ad5       ??_EQListView@@UAEPAXI@Z   10024ad5 f i bncs_config_browser.obj
 0001:00023ad5       ??_GQListView@@UAEPAXI@Z   10024ad5 f i bncs_config_browser.obj
 0001:00023af2       ??1bncs_config_browserBase@@UAE@XZ 10024af2 f   bncs_config_browser.obj
 0001:00023b05       ?languageChange@bncs_config_browserBase@@MAEXXZ 10024b05 f   bncs_config_browser.obj
 0001:00023c50       ??_EQListView@@WCI@AEPAXI@Z 10024c50 f i bncs_config_browser.obj
 0001:00023c58       ??_Ebncs_config_browserBase@@WCI@AEPAXI@Z 10024c58 f i bncs_config_browser.obj
 0001:00023c60       ??0bncs_control_editBase@@QAE@PAVQWidget@@PBD_NI@Z 10024c60 f   bncs_control_edit.obj
 0001:000291f1       ?metaObject@bncs_control_editBase@@UBEPAVQMetaObject@@XZ 1002a1f1 f i bncs_control_edit.obj
 0001:000291f6       ??_Ebncs_control_editBase@@UAEPAXI@Z 1002a1f6 f i bncs_control_edit.obj
 0001:000291f6       ??_Gbncs_control_editBase@@UAEPAXI@Z 1002a1f6 f i bncs_control_edit.obj
 0001:00029212       ??_GQSlider@@UAEPAXI@Z     1002a212 f i bncs_control_edit.obj
 0001:00029212       ??_EQSlider@@UAEPAXI@Z     1002a212 f i bncs_control_edit.obj
 0001:0002922f       ??1bncs_control_editBase@@UAE@XZ 1002a22f f   bncs_control_edit.obj
 0001:00029242       ?languageChange@bncs_control_editBase@@MAEXXZ 1002a242 f   bncs_control_edit.obj
 0001:0002b276       ??_EQSlider@@WCI@AEPAXI@Z  1002c276 f i bncs_control_edit.obj
 0001:0002b27e       ??_EQSlider@@WGM@AEPAXI@Z  1002c27e f i bncs_control_edit.obj
 0001:0002b286       ??_Ebncs_control_editBase@@WCI@AEPAXI@Z 1002c286 f i bncs_control_edit.obj
 0001:0002b28e       ??0bncs_control_edit_textBase@@QAE@PAVQWidget@@PBD_NI@Z 1002c28e f   bncs_control_edit_text.obj
 0001:0002b6aa       ?metaObject@bncs_control_edit_textBase@@UBEPAVQMetaObject@@XZ 1002c6aa f i bncs_control_edit_text.obj
 0001:0002b6af       ??_Gbncs_control_edit_textBase@@UAEPAXI@Z 1002c6af f i bncs_control_edit_text.obj
 0001:0002b6af       ??_Ebncs_control_edit_textBase@@UAEPAXI@Z 1002c6af f i bncs_control_edit_text.obj
 0001:0002b6cb       ??_GQTextEdit@@UAEPAXI@Z   1002c6cb f i bncs_control_edit_text.obj
 0001:0002b6cb       ??_EQTextEdit@@UAEPAXI@Z   1002c6cb f i bncs_control_edit_text.obj
 0001:0002b6e8       ??1bncs_control_edit_textBase@@UAE@XZ 1002c6e8 f   bncs_control_edit_text.obj
 0001:0002b6fb       ?languageChange@bncs_control_edit_textBase@@MAEXXZ 1002c6fb f   bncs_control_edit_text.obj
 0001:0002b87a       ??_EQTextEdit@@WCI@AEPAXI@Z 1002c87a f i bncs_control_edit_text.obj
 0001:0002b882       ??_Ebncs_control_edit_textBase@@WCI@AEPAXI@Z 1002c882 f i bncs_control_edit_text.obj
 0001:0002b88a       ??0bncs_data_button_editBase@@QAE@PAVQWidget@@PBD_NI@Z 1002c88a f   bncs_data_button_edit.obj
 0001:0002c7fc       ?metaObject@bncs_data_button_editBase@@UBEPAVQMetaObject@@XZ 1002d7fc f i bncs_data_button_edit.obj
 0001:0002c801       ??_Ebncs_data_button_editBase@@UAEPAXI@Z 1002d801 f i bncs_data_button_edit.obj
 0001:0002c801       ??_Gbncs_data_button_editBase@@UAEPAXI@Z 1002d801 f i bncs_data_button_edit.obj
 0001:0002c81d       ??_GQComboBox@@UAEPAXI@Z   1002d81d f i bncs_data_button_edit.obj
 0001:0002c81d       ??_EQComboBox@@UAEPAXI@Z   1002d81d f i bncs_data_button_edit.obj
 0001:0002c83a       ??1bncs_data_button_editBase@@UAE@XZ 1002d83a f   bncs_data_button_edit.obj
 0001:0002c84d       ?languageChange@bncs_data_button_editBase@@MAEXXZ 1002d84d f   bncs_data_button_edit.obj
 0001:0002cc0c       ??_EQComboBox@@WCI@AEPAXI@Z 1002dc0c f i bncs_data_button_edit.obj
 0001:0002cc14       ??_Ebncs_data_button_editBase@@WCI@AEPAXI@Z 1002dc14 f i bncs_data_button_edit.obj
 0001:0002cc1c       ??0bncs_editTextDialogBase@@QAE@PAVQWidget@@PBD_NI@Z 1002dc1c f   bncs_edittextdialog.obj
 0001:0002d986       ?metaObject@bncs_editTextDialogBase@@UBEPAVQMetaObject@@XZ 1002e986 f i bncs_edittextdialog.obj
 0001:0002d98b       ??_Ebncs_editTextDialogBase@@UAEPAXI@Z 1002e98b f i bncs_edittextdialog.obj
 0001:0002d98b       ??_Gbncs_editTextDialogBase@@UAEPAXI@Z 1002e98b f i bncs_edittextdialog.obj
 0001:0002d9a7       ??1bncs_editTextDialogBase@@UAE@XZ 1002e9a7 f   bncs_edittextdialog.obj
 0001:0002d9ba       ?languageChange@bncs_editTextDialogBase@@MAEXXZ 1002e9ba f   bncs_edittextdialog.obj
 0001:0002dfca       ??_Ebncs_editTextDialogBase@@WCI@AEPAXI@Z 1002efca f i bncs_edittextdialog.obj
 0001:0002dfd2       ??0bncs_enum_button_editBase@@QAE@PAVQWidget@@PBDI@Z 1002efd2 f   bncs_enum_button_edit.obj
 0001:0002e7f7       ?metaObject@bncs_enum_button_editBase@@UBEPAVQMetaObject@@XZ 1002f7f7 f i bncs_enum_button_edit.obj
 0001:0002e7fc       ??_Ebncs_enum_button_editBase@@UAEPAXI@Z 1002f7fc f i bncs_enum_button_edit.obj
 0001:0002e7fc       ??_Gbncs_enum_button_editBase@@UAEPAXI@Z 1002f7fc f i bncs_enum_button_edit.obj
 0001:0002e818       ??1bncs_enum_button_editBase@@UAE@XZ 1002f818 f   bncs_enum_button_edit.obj
 0001:0002e82b       ?languageChange@bncs_enum_button_editBase@@MAEXXZ 1002f82b f   bncs_enum_button_edit.obj
 0001:0002eb99       ??_Ebncs_enum_button_editBase@@WCI@AEPAXI@Z 1002fb99 f i bncs_enum_button_edit.obj
 0001:0002eba1       ??0bncs_enum_edit_settingsBase@@QAE@PAVQWidget@@PBDI@Z 1002fba1 f   bncs_enum_edit_settings.obj
 0001:0002ffd8       ?metaObject@bncs_enum_edit_settingsBase@@UBEPAVQMetaObject@@XZ 10030fd8 f i bncs_enum_edit_settings.obj
 0001:0002ffdd       ??_Ebncs_enum_edit_settingsBase@@UAEPAXI@Z 10030fdd f i bncs_enum_edit_settings.obj
 0001:0002ffdd       ??_Gbncs_enum_edit_settingsBase@@UAEPAXI@Z 10030fdd f i bncs_enum_edit_settings.obj
 0001:0002fff9       ??_GQTable@@UAEPAXI@Z      10030ff9 f i bncs_enum_edit_settings.obj
 0001:0002fff9       ??_EQTable@@UAEPAXI@Z      10030ff9 f i bncs_enum_edit_settings.obj
 0001:00030016       ??1bncs_enum_edit_settingsBase@@UAE@XZ 10031016 f   bncs_enum_edit_settings.obj
 0001:00030029       ?languageChange@bncs_enum_edit_settingsBase@@MAEXXZ 10031029 f   bncs_enum_edit_settings.obj
 0001:000306aa       ??_EQTable@@WCI@AEPAXI@Z   100316aa f i bncs_enum_edit_settings.obj
 0001:000306b2       ??_Ebncs_enum_edit_settingsBase@@WCI@AEPAXI@Z 100316b2 f i bncs_enum_edit_settings.obj
 0001:000306ba       ??0bncs_enum_edit_style@@QAE@PAVQWidget@@PBDI@Z 100316ba f   bncs_enum_edit_style.obj
 0001:00031112       ?metaObject@bncs_enum_edit_style@@UBEPAVQMetaObject@@XZ 10032112 f i bncs_enum_edit_style.obj
 0001:00031117       ??_Gbncs_enum_edit_style@@UAEPAXI@Z 10032117 f i bncs_enum_edit_style.obj
 0001:00031117       ??_Ebncs_enum_edit_style@@UAEPAXI@Z 10032117 f i bncs_enum_edit_style.obj
 0001:00031133       ??1bncs_enum_edit_style@@UAE@XZ 10032133 f   bncs_enum_edit_style.obj
 0001:000311b1       ?languageChange@bncs_enum_edit_style@@MAEXXZ 100321b1 f   bncs_enum_edit_style.obj
 0001:000315a0       ??_Ebncs_enum_edit_style@@WCI@AEPAXI@Z 100325a0 f i bncs_enum_edit_style.obj
 0001:000315a8       ??0bncs_enum_linebutton_editBase@@QAE@PAVQWidget@@PBD_NI@Z 100325a8 f   bncs_enum_linebutton_edit.obj
 0001:00031bf1       ?metaObject@bncs_enum_linebutton_editBase@@UBEPAVQMetaObject@@XZ 10032bf1 f i bncs_enum_linebutton_edit.obj
 0001:00031bf6       ??_Gbncs_enum_linebutton_editBase@@UAEPAXI@Z 10032bf6 f i bncs_enum_linebutton_edit.obj
 0001:00031bf6       ??_Ebncs_enum_linebutton_editBase@@UAEPAXI@Z 10032bf6 f i bncs_enum_linebutton_edit.obj
 0001:00031c12       ??1bncs_enum_linebutton_editBase@@UAE@XZ 10032c12 f   bncs_enum_linebutton_edit.obj
 0001:00031c25       ?languageChange@bncs_enum_linebutton_editBase@@MAEXXZ 10032c25 f   bncs_enum_linebutton_edit.obj
 0001:00031f0b       ??_Ebncs_enum_linebutton_editBase@@WCI@AEPAXI@Z 10032f0b f i bncs_enum_linebutton_edit.obj
 0001:00031f13       ??0bncs_enum_list_editBase@@QAE@PAVQWidget@@PBDI@Z 10032f13 f   bncs_enum_list_edit.obj
 0001:0003236c       ?metaObject@bncs_enum_list_editBase@@UBEPAVQMetaObject@@XZ 1003336c f i bncs_enum_list_edit.obj
 0001:00032371       ??_Gbncs_enum_list_editBase@@UAEPAXI@Z 10033371 f i bncs_enum_list_edit.obj
 0001:00032371       ??_Ebncs_enum_list_editBase@@UAEPAXI@Z 10033371 f i bncs_enum_list_edit.obj
 0001:0003238d       ??1bncs_enum_list_editBase@@UAE@XZ 1003338d f   bncs_enum_list_edit.obj
 0001:000323a0       ?languageChange@bncs_enum_list_editBase@@MAEXXZ 100333a0 f   bncs_enum_list_edit.obj
 0001:000324c7       ??_Ebncs_enum_list_editBase@@WCI@AEPAXI@Z 100334c7 f i bncs_enum_list_edit.obj
 0001:000324cf       ??0bncs_enum_listbutton_editBase@@QAE@PAVQWidget@@PBDI@Z 100334cf f   bncs_enum_listbutton_edit.obj
 0001:00032b7a       ?metaObject@bncs_enum_listbutton_editBase@@UBEPAVQMetaObject@@XZ 10033b7a f i bncs_enum_listbutton_edit.obj
 0001:00032b7f       ??_Gbncs_enum_listbutton_editBase@@UAEPAXI@Z 10033b7f f i bncs_enum_listbutton_edit.obj
 0001:00032b7f       ??_Ebncs_enum_listbutton_editBase@@UAEPAXI@Z 10033b7f f i bncs_enum_listbutton_edit.obj
 0001:00032b9b       ??1bncs_enum_listbutton_editBase@@UAE@XZ 10033b9b f   bncs_enum_listbutton_edit.obj
 0001:00032bae       ?languageChange@bncs_enum_listbutton_editBase@@MAEXXZ 10033bae f   bncs_enum_listbutton_edit.obj
 0001:00032e90       ??_Ebncs_enum_listbutton_editBase@@WCI@AEPAXI@Z 10033e90 f i bncs_enum_listbutton_edit.obj
 0001:00032e98       ??0bncs_ie_editBase@@QAE@PAVQWidget@@PBD_NI@Z 10033e98 f   bncs_ie_edit.obj
 0001:000335a1       ?metaObject@bncs_ie_editBase@@UBEPAVQMetaObject@@XZ 100345a1 f i bncs_ie_edit.obj
 0001:000335a6       ??_Gbncs_ie_editBase@@UAEPAXI@Z 100345a6 f i bncs_ie_edit.obj
 0001:000335a6       ??_Ebncs_ie_editBase@@UAEPAXI@Z 100345a6 f i bncs_ie_edit.obj
 0001:000335c2       ??1bncs_ie_editBase@@UAE@XZ 100345c2 f   bncs_ie_edit.obj
 0001:000335d5       ?languageChange@bncs_ie_editBase@@MAEXXZ 100345d5 f   bncs_ie_edit.obj
 0001:000337a3       ??_Ebncs_ie_editBase@@WCI@AEPAXI@Z 100347a3 f i bncs_ie_edit.obj
 0001:000337ab       ??0bncs_instance_editBase@@QAE@PAVQWidget@@PBD_NI@Z 100347ab f   bncs_instance_edit.obj
 0001:00034304       ?metaObject@bncs_instance_editBase@@UBEPAVQMetaObject@@XZ 10035304 f i bncs_instance_edit.obj
 0001:00034309       ??_Ebncs_instance_editBase@@UAEPAXI@Z 10035309 f i bncs_instance_edit.obj
 0001:00034309       ??_Gbncs_instance_editBase@@UAEPAXI@Z 10035309 f i bncs_instance_edit.obj
 0001:00034325       ??1bncs_instance_editBase@@UAE@XZ 10035325 f   bncs_instance_edit.obj
 0001:00034338       ?languageChange@bncs_instance_editBase@@MAEXXZ 10035338 f   bncs_instance_edit.obj
 0001:0003483e       ??_Ebncs_instance_editBase@@WCI@AEPAXI@Z 1003583e f i bncs_instance_edit.obj
 0001:00034846       ??0bncs_lineeditdialogBase@@QAE@PAVQWidget@@PBDI@Z 10035846 f   bncs_lineeditdialog.obj
 0001:00035257       ?metaObject@bncs_lineeditdialogBase@@UBEPAVQMetaObject@@XZ 10036257 f i bncs_lineeditdialog.obj
 0001:0003525c       ??_Ebncs_lineeditdialogBase@@UAEPAXI@Z 1003625c f i bncs_lineeditdialog.obj
 0001:0003525c       ??_Gbncs_lineeditdialogBase@@UAEPAXI@Z 1003625c f i bncs_lineeditdialog.obj
 0001:00035278       ??_EQIconView@@UAEPAXI@Z   10036278 f i bncs_lineeditdialog.obj
 0001:00035278       ??_GQIconView@@UAEPAXI@Z   10036278 f i bncs_lineeditdialog.obj
 0001:00035295       ??1bncs_lineeditdialogBase@@UAE@XZ 10036295 f   bncs_lineeditdialog.obj
 0001:000352a8       ?languageChange@bncs_lineeditdialogBase@@MAEXXZ 100362a8 f   bncs_lineeditdialog.obj
 0001:000355f0       ??_Ebncs_lineeditdialogBase@@WCI@AEPAXI@Z 100365f0 f i bncs_lineeditdialog.obj
 0001:000355f8       ??_EQIconView@@WCI@AEPAXI@Z 100365f8 f i bncs_lineeditdialog.obj
 0001:00035600       ??0bncs_listbox_editBase@@QAE@PAVQWidget@@PBD_NI@Z 10036600 f   bncs_listbox_edit.obj
 0001:00037188       ?metaObject@bncs_listbox_editBase@@UBEPAVQMetaObject@@XZ 10038188 f i bncs_listbox_edit.obj
 0001:0003718d       ??_Ebncs_listbox_editBase@@UAEPAXI@Z 1003818d f i bncs_listbox_edit.obj
 0001:0003718d       ??_Gbncs_listbox_editBase@@UAEPAXI@Z 1003818d f i bncs_listbox_edit.obj
 0001:000371a9       ??1bncs_listbox_editBase@@UAE@XZ 100381a9 f   bncs_listbox_edit.obj
 0001:000371bc       ?languageChange@bncs_listbox_editBase@@MAEXXZ 100381bc f   bncs_listbox_edit.obj
 0001:00037b8b       ??_Ebncs_listbox_editBase@@WCI@AEPAXI@Z 10038b8b f i bncs_listbox_edit.obj
 0001:00037b93       ??0bncs_listview_editBase@@QAE@PAVQWidget@@PBD_NI@Z 10038b93 f   bncs_listview_edit.obj
 0001:0003a071       ?metaObject@bncs_listview_editBase@@UBEPAVQMetaObject@@XZ 1003b071 f i bncs_listview_edit.obj
 0001:0003a076       ??_Ebncs_listview_editBase@@UAEPAXI@Z 1003b076 f i bncs_listview_edit.obj
 0001:0003a076       ??_Gbncs_listview_editBase@@UAEPAXI@Z 1003b076 f i bncs_listview_edit.obj
 0001:0003a092       ??1bncs_listview_editBase@@UAE@XZ 1003b092 f   bncs_listview_edit.obj
 0001:0003a0a5       ?languageChange@bncs_listview_editBase@@MAEXXZ 1003b0a5 f   bncs_listview_edit.obj
 0001:0003ae36       ??_Ebncs_listview_editBase@@WCI@AEPAXI@Z 1003be36 f i bncs_listview_edit.obj
 0001:0003ae3e       ??0bncs_range_button_editBase@@QAE@PAVQWidget@@PBDI@Z 1003be3e f   bncs_range_button_edit.obj
 0001:0003b018       ?metaObject@bncs_range_button_editBase@@UBEPAVQMetaObject@@XZ 1003c018 f i bncs_range_button_edit.obj
 0001:0003b01d       ??_Ebncs_range_button_editBase@@UAEPAXI@Z 1003c01d f i bncs_range_button_edit.obj
 0001:0003b01d       ??_Gbncs_range_button_editBase@@UAEPAXI@Z 1003c01d f i bncs_range_button_edit.obj
 0001:0003b039       ??1bncs_range_button_editBase@@UAE@XZ 1003c039 f   bncs_range_button_edit.obj
 0001:0003b04c       ?languageChange@bncs_range_button_editBase@@MAEXXZ 1003c04c f   bncs_range_button_edit.obj
 0001:0003b0fd       ??_Ebncs_range_button_editBase@@WCI@AEPAXI@Z 1003c0fd f i bncs_range_button_edit.obj
 0001:0003b105       ??0bncs_range_edit_settingsBase@@QAE@PAVQWidget@@PBDI@Z 1003c105 f   bncs_range_edit_settings.obj
 0001:0003ca91       ?metaObject@bncs_range_edit_settingsBase@@UBEPAVQMetaObject@@XZ 1003da91 f i bncs_range_edit_settings.obj
 0001:0003ca96       ??_Ebncs_range_edit_settingsBase@@UAEPAXI@Z 1003da96 f i bncs_range_edit_settings.obj
 0001:0003ca96       ??_Gbncs_range_edit_settingsBase@@UAEPAXI@Z 1003da96 f i bncs_range_edit_settings.obj
 0001:0003cab2       ??1bncs_range_edit_settingsBase@@UAE@XZ 1003dab2 f   bncs_range_edit_settings.obj
 0001:0003cac5       ?languageChange@bncs_range_edit_settingsBase@@MAEXXZ 1003dac5 f   bncs_range_edit_settings.obj
 0001:0003d1b1       ??_Ebncs_range_edit_settingsBase@@WCI@AEPAXI@Z 1003e1b1 f i bncs_range_edit_settings.obj
 0001:0003d1b9       ??0bncs_range_edit_style@@QAE@PAVQWidget@@PBDI@Z 1003e1b9 f   bncs_range_edit_style.obj
 0001:0003e584       ?metaObject@bncs_range_edit_style@@UBEPAVQMetaObject@@XZ 1003f584 f i bncs_range_edit_style.obj
 0001:0003e589       ??_Gbncs_range_edit_style@@UAEPAXI@Z 1003f589 f i bncs_range_edit_style.obj
 0001:0003e589       ??_Ebncs_range_edit_style@@UAEPAXI@Z 1003f589 f i bncs_range_edit_style.obj
 0001:0003e5a5       ??1bncs_range_edit_style@@UAE@XZ 1003f5a5 f   bncs_range_edit_style.obj
 0001:0003e65f       ?languageChange@bncs_range_edit_style@@MAEXXZ 1003f65f f   bncs_range_edit_style.obj
 0001:0003eb0d       ??_Ebncs_range_edit_style@@WCI@AEPAXI@Z 1003fb0d f i bncs_range_edit_style.obj
 0001:0003eb15       ??0bncs_range_fader_editBase@@QAE@PAVQWidget@@PBDI@Z 1003fb15 f   bncs_range_fader_edit.obj
 0001:0004161a       ?metaObject@bncs_range_fader_editBase@@UBEPAVQMetaObject@@XZ 1004261a f i bncs_range_fader_edit.obj
 0001:0004161f       ??_Gbncs_range_fader_editBase@@UAEPAXI@Z 1004261f f i bncs_range_fader_edit.obj
 0001:0004161f       ??_Ebncs_range_fader_editBase@@UAEPAXI@Z 1004261f f i bncs_range_fader_edit.obj
 0001:0004163b       ??1bncs_range_fader_editBase@@UAE@XZ 1004263b f   bncs_range_fader_edit.obj
 0001:0004164e       ?languageChange@bncs_range_fader_editBase@@MAEXXZ 1004264e f   bncs_range_fader_edit.obj
 0001:00042113       ??_Ebncs_range_fader_editBase@@WCI@AEPAXI@Z 10043113 f i bncs_range_fader_edit.obj
 0001:0004211b       ??0bncs_range_updown_editBase@@QAE@PAVQWidget@@PBDI@Z 1004311b f   bncs_range_updown_edit.obj
 0001:000424de       ?metaObject@bncs_range_updown_editBase@@UBEPAVQMetaObject@@XZ 100434de f i bncs_range_updown_edit.obj
 0001:000424e3       ??_Gbncs_range_updown_editBase@@UAEPAXI@Z 100434e3 f i bncs_range_updown_edit.obj
 0001:000424e3       ??_Ebncs_range_updown_editBase@@UAEPAXI@Z 100434e3 f i bncs_range_updown_edit.obj
 0001:000424ff       ??1bncs_range_updown_editBase@@UAE@XZ 100434ff f   bncs_range_updown_edit.obj
 0001:00042512       ?languageChange@bncs_range_updown_editBase@@MAEXXZ 10043512 f   bncs_range_updown_edit.obj
 0001:00042627       ??_Ebncs_range_updown_editBase@@WCI@AEPAXI@Z 10043627 f i bncs_range_updown_edit.obj
 0001:0004262f       ??0bncs_range_updownbutton_editBase@@QAE@PAVQWidget@@PBD_NI@Z 1004362f f   bncs_range_updownbutton_edit.obj
 0001:00042ab9       ?metaObject@bncs_range_updownbutton_editBase@@UBEPAVQMetaObject@@XZ 10043ab9 f i bncs_range_updownbutton_edit.obj
 0001:00042abe       ??_Gbncs_range_updownbutton_editBase@@UAEPAXI@Z 10043abe f i bncs_range_updownbutton_edit.obj
 0001:00042abe       ??_Ebncs_range_updownbutton_editBase@@UAEPAXI@Z 10043abe f i bncs_range_updownbutton_edit.obj
 0001:00042ada       ??1bncs_range_updownbutton_editBase@@UAE@XZ 10043ada f   bncs_range_updownbutton_edit.obj
 0001:00042aed       ?languageChange@bncs_range_updownbutton_editBase@@MAEXXZ 10043aed f   bncs_range_updownbutton_edit.obj
 0001:00042c3c       ??_Ebncs_range_updownbutton_editBase@@WCI@AEPAXI@Z 10043c3c f i bncs_range_updownbutton_edit.obj
 0001:00042c44       ??0bncs_rtrDestGridEditDlgBase@@QAE@PAVQWidget@@PBD_NI@Z 10043c44 f   bncs_rtrDestGridEditDlg.obj
 0001:00045e06       ?metaObject@bncs_rtrDestGridEditDlgBase@@UBEPAVQMetaObject@@XZ 10046e06 f i bncs_rtrDestGridEditDlg.obj
 0001:00045e0b       ??_Ebncs_rtrDestGridEditDlgBase@@UAEPAXI@Z 10046e0b f i bncs_rtrDestGridEditDlg.obj
 0001:00045e0b       ??_Gbncs_rtrDestGridEditDlgBase@@UAEPAXI@Z 10046e0b f i bncs_rtrDestGridEditDlg.obj
 0001:00045e27       ??1bncs_rtrDestGridEditDlgBase@@UAE@XZ 10046e27 f   bncs_rtrDestGridEditDlg.obj
 0001:00045e3a       ?languageChange@bncs_rtrDestGridEditDlgBase@@MAEXXZ 10046e3a f   bncs_rtrDestGridEditDlg.obj
 0001:000475e4       ??_Ebncs_rtrDestGridEditDlgBase@@WCI@AEPAXI@Z 100485e4 f i bncs_rtrDestGridEditDlg.obj
 0001:000475ec       ??0bncs_rtrNameGridEditDlgBase@@QAE@PAVQWidget@@PBD_NI@Z 100485ec f   bncs_rtrNameGridEditDlg.obj
 0001:00049c6c       ?metaObject@bncs_rtrNameGridEditDlgBase@@UBEPAVQMetaObject@@XZ 1004ac6c f i bncs_rtrNameGridEditDlg.obj
 0001:00049c71       ??_Ebncs_rtrNameGridEditDlgBase@@UAEPAXI@Z 1004ac71 f i bncs_rtrNameGridEditDlg.obj
 0001:00049c71       ??_Gbncs_rtrNameGridEditDlgBase@@UAEPAXI@Z 1004ac71 f i bncs_rtrNameGridEditDlg.obj
 0001:00049c8d       ??1bncs_rtrNameGridEditDlgBase@@UAE@XZ 1004ac8d f   bncs_rtrNameGridEditDlg.obj
 0001:00049ca0       ?languageChange@bncs_rtrNameGridEditDlgBase@@MAEXXZ 1004aca0 f   bncs_rtrNameGridEditDlg.obj
 0001:0004af53       ??_Ebncs_rtrNameGridEditDlgBase@@WCI@AEPAXI@Z 1004bf53 f i bncs_rtrNameGridEditDlg.obj
 0001:0004af5b       ??0bncs_script_loader_editBase@@QAE@PAVQWidget@@PBD_NI@Z 1004bf5b f   bncs_script_loader_edit.obj
 0001:0004be8a       ?metaObject@bncs_script_loader_editBase@@UBEPAVQMetaObject@@XZ 1004ce8a f i bncs_script_loader_edit.obj
 0001:0004be8f       ??_Ebncs_script_loader_editBase@@UAEPAXI@Z 1004ce8f f i bncs_script_loader_edit.obj
 0001:0004be8f       ??_Gbncs_script_loader_editBase@@UAEPAXI@Z 1004ce8f f i bncs_script_loader_edit.obj
 0001:0004beab       ??1bncs_script_loader_editBase@@UAE@XZ 1004ceab f   bncs_script_loader_edit.obj
 0001:0004bf05       ?languageChange@bncs_script_loader_editBase@@MAEXXZ 1004cf05 f   bncs_script_loader_edit.obj
 0001:0004c505       ??_Ebncs_script_loader_editBase@@WCI@AEPAXI@Z 1004d505 f i bncs_script_loader_edit.obj
 0001:0004c50d       ??0bncs_skin_button_editBase@@QAE@PAVQWidget@@PBD_NI@Z 1004d50d f   bncs_skin_button_edit.obj
 0001:0004d041       ?metaObject@bncs_skin_button_editBase@@UBEPAVQMetaObject@@XZ 1004e041 f i bncs_skin_button_edit.obj
 0001:0004d046       ??_Gbncs_skin_button_editBase@@UAEPAXI@Z 1004e046 f i bncs_skin_button_edit.obj
 0001:0004d046       ??_Ebncs_skin_button_editBase@@UAEPAXI@Z 1004e046 f i bncs_skin_button_edit.obj
 0001:0004d062       ??1bncs_skin_button_editBase@@UAE@XZ 1004e062 f   bncs_skin_button_edit.obj
 0001:0004d075       ?languageChange@bncs_skin_button_editBase@@MAEXXZ 1004e075 f   bncs_skin_button_edit.obj
 0001:0004d443       ??_Ebncs_skin_button_editBase@@WCI@AEPAXI@Z 1004e443 f i bncs_skin_button_edit.obj
 0001:0004d44b       ??0bncs_smart_string_edit_settingsBase@@QAE@PAVQWidget@@PBD_NI@Z 1004e44b f   bncs_smart_string_edit_settings.obj
 0001:0004f66f       ?metaObject@bncs_smart_string_edit_settingsBase@@UBEPAVQMetaObject@@XZ 1005066f f i bncs_smart_string_edit_settings.obj
 0001:0004f674       ??_Gbncs_smart_string_edit_settingsBase@@UAEPAXI@Z 10050674 f i bncs_smart_string_edit_settings.obj
 0001:0004f674       ??_Ebncs_smart_string_edit_settingsBase@@UAEPAXI@Z 10050674 f i bncs_smart_string_edit_settings.obj
 0001:0004f690       ??_GQWidgetStack@@UAEPAXI@Z 10050690 f i bncs_smart_string_edit_settings.obj
 0001:0004f690       ??_EQWidgetStack@@UAEPAXI@Z 10050690 f i bncs_smart_string_edit_settings.obj
 0001:0004f6ad       ??1bncs_smart_string_edit_settingsBase@@UAE@XZ 100506ad f   bncs_smart_string_edit_settings.obj
 0001:0004f6c0       ?languageChange@bncs_smart_string_edit_settingsBase@@MAEXXZ 100506c0 f   bncs_smart_string_edit_settings.obj
 0001:0004fe54       ??_EQWidgetStack@@WCI@AEPAXI@Z 10050e54 f i bncs_smart_string_edit_settings.obj
 0001:0004fe5c       ??_Ebncs_smart_string_edit_settingsBase@@WCI@AEPAXI@Z 10050e5c f i bncs_smart_string_edit_settings.obj
 0001:0004fe64       ??0bncs_smart_string_edit_styleBase@@QAE@PAVQWidget@@PBD_NI@Z 10050e64 f   bncs_smart_string_edit_style.obj
 0001:000504ae       ?metaObject@bncs_smart_string_edit_styleBase@@UBEPAVQMetaObject@@XZ 100514ae f i bncs_smart_string_edit_style.obj
 0001:000504b3       ??_Gbncs_smart_string_edit_styleBase@@UAEPAXI@Z 100514b3 f i bncs_smart_string_edit_style.obj
 0001:000504b3       ??_Ebncs_smart_string_edit_styleBase@@UAEPAXI@Z 100514b3 f i bncs_smart_string_edit_style.obj
 0001:000504cf       ??1bncs_smart_string_edit_styleBase@@UAE@XZ 100514cf f   bncs_smart_string_edit_style.obj
 0001:000504e2       ?languageChange@bncs_smart_string_edit_styleBase@@MAEXXZ 100514e2 f   bncs_smart_string_edit_style.obj
 0001:000506c8       ??_Ebncs_smart_string_edit_styleBase@@WCI@AEPAXI@Z 100516c8 f i bncs_smart_string_edit_style.obj
 0001:000506d0       ??0bncs_sourcegrideditdlgBase@@QAE@PAVQWidget@@PBD_NI@Z 100516d0 f   bncs_sourcegrideditdlg.obj
 0001:000536b0       ?metaObject@bncs_sourcegrideditdlgBase@@UBEPAVQMetaObject@@XZ 100546b0 f i bncs_sourcegrideditdlg.obj
 0001:000536b5       ??_Gbncs_sourcegrideditdlgBase@@UAEPAXI@Z 100546b5 f i bncs_sourcegrideditdlg.obj
 0001:000536b5       ??_Ebncs_sourcegrideditdlgBase@@UAEPAXI@Z 100546b5 f i bncs_sourcegrideditdlg.obj
 0001:000536d1       ??1bncs_sourcegrideditdlgBase@@UAE@XZ 100546d1 f   bncs_sourcegrideditdlg.obj
 0001:00053718       ?languageChange@bncs_sourcegrideditdlgBase@@MAEXXZ 10054718 f   bncs_sourcegrideditdlg.obj
 0001:00054cd9       ??_Ebncs_sourcegrideditdlgBase@@WCI@AEPAXI@Z 10055cd9 f i bncs_sourcegrideditdlg.obj
 0001:00054ce1       ??0bncs_stylesheet_browserBase@@QAE@PAVQWidget@@PBD_NI@Z 10055ce1 f   bncs_stylesheet_browser.obj
 0001:00057135       ?metaObject@bncs_stylesheet_browserBase@@UBEPAVQMetaObject@@XZ 10058135 f i bncs_stylesheet_browser.obj
 0001:0005713a       ??_Ebncs_stylesheet_browserBase@@UAEPAXI@Z 1005813a f i bncs_stylesheet_browser.obj
 0001:0005713a       ??_Gbncs_stylesheet_browserBase@@UAEPAXI@Z 1005813a f i bncs_stylesheet_browser.obj
 0001:00057156       ??_EQFrame@@UAEPAXI@Z      10058156 f i bncs_stylesheet_browser.obj
 0001:00057156       ??_GQFrame@@UAEPAXI@Z      10058156 f i bncs_stylesheet_browser.obj
 0001:00057173       ??1bncs_stylesheet_browserBase@@UAE@XZ 10058173 f   bncs_stylesheet_browser.obj
 0001:00057186       ?languageChange@bncs_stylesheet_browserBase@@MAEXXZ 10058186 f   bncs_stylesheet_browser.obj
 0001:0005824b       ??_EQFrame@@WCI@AEPAXI@Z   1005924b f i bncs_stylesheet_browser.obj
 0001:00058253       ??_Ebncs_stylesheet_browserBase@@WCI@AEPAXI@Z 10059253 f i bncs_stylesheet_browser.obj
 0001:0005825b       ?className@bncs_clock@@UBEPBDXZ 1005925b f   moc_bncs_clock.obj
 0001:00058298       ?tr@bncs_clock@@SA?AVQString@@PBD0@Z 10059298 f   moc_bncs_clock.obj
 0001:000582d9       ?trUtf8@bncs_clock@@SA?AVQString@@PBD0@Z 100592d9 f   moc_bncs_clock.obj
 0001:0005831a       ?staticMetaObject@bncs_clock@@SAPAVQMetaObject@@XZ 1005931a f   moc_bncs_clock.obj
 0001:000583e6       ?qt_cast@bncs_clock@@UAEPAXPBD@Z 100593e6 f   moc_bncs_clock.obj
 0001:00058422       ?notify@bncs_clock@@IAEXAAVQString@@@Z 10059422 f   moc_bncs_clock.obj
 0001:000584c3       ?qt_invoke@bncs_clock@@UAE_NHPAUQUObject@@@Z 100594c3 f   moc_bncs_clock.obj
 0001:0005851b       ?qt_emit@bncs_clock@@UAE_NHPAUQUObject@@@Z 1005951b f   moc_bncs_clock.obj
 0001:00058552       ?className@bncs_clock_editBase@@UBEPBDXZ 10059552 f   moc_bncs_clock_edit.obj
 0001:0005858f       ?tr@bncs_clock_editBase@@SA?AVQString@@PBD0@Z 1005958f f   moc_bncs_clock_edit.obj
 0001:000585d0       ?staticMetaObject@bncs_clock_editBase@@SAPAVQMetaObject@@XZ 100595d0 f   moc_bncs_clock_edit.obj
 0001:0005861c       ?qt_cast@bncs_clock_editBase@@UAEPAXPBD@Z 1005961c f   moc_bncs_clock_edit.obj
 0001:00058658       ?qt_invoke@bncs_clock_editBase@@UAE_NHPAUQUObject@@@Z 10059658 f   moc_bncs_clock_edit.obj
 0001:0005868b       ?className@bncs_clock_edit@@UBEPBDXZ 1005968b f   moc_bncs_clock_editimpl.obj
 0001:000586c8       ?staticMetaObject@bncs_clock_edit@@SAPAVQMetaObject@@XZ 100596c8 f   moc_bncs_clock_editimpl.obj
 0001:000587ac       ?qt_cast@bncs_clock_edit@@UAEPAXPBD@Z 100597ac f   moc_bncs_clock_editimpl.obj
 0001:000587e7       ?qt_invoke@bncs_clock_edit@@UAE_NHPAUQUObject@@@Z 100597e7 f   moc_bncs_clock_editimpl.obj
 0001:0005887d       ?className@bncs_config_browserBase@@UBEPBDXZ 1005987d f   moc_bncs_config_browser.obj
 0001:000588ba       ?tr@bncs_config_browserBase@@SA?AVQString@@PBD0@Z 100598ba f   moc_bncs_config_browser.obj
 0001:000588fb       ?staticMetaObject@bncs_config_browserBase@@SAPAVQMetaObject@@XZ 100598fb f   moc_bncs_config_browser.obj
 0001:00058947       ?qt_cast@bncs_config_browserBase@@UAEPAXPBD@Z 10059947 f   moc_bncs_config_browser.obj
 0001:00058983       ?qt_invoke@bncs_config_browserBase@@UAE_NHPAUQUObject@@@Z 10059983 f   moc_bncs_config_browser.obj
 0001:000589b6       ?className@bncs_config_browser@@UBEPBDXZ 100599b6 f   moc_bncs_config_browserimpl.obj
 0001:000589f3       ?staticMetaObject@bncs_config_browser@@SAPAVQMetaObject@@XZ 100599f3 f   moc_bncs_config_browserimpl.obj
 0001:00058a39       ?qt_cast@bncs_config_browser@@UAEPAXPBD@Z 10059a39 f   moc_bncs_config_browserimpl.obj
 0001:00058a74       ?qt_invoke@bncs_config_browser@@UAE_NHPAUQUObject@@@Z 10059a74 f   moc_bncs_config_browserimpl.obj
 0001:00058a84       ?className@bncs_control@@UBEPBDXZ 10059a84 f   moc_bncs_control.obj
 0001:00058ac1       ?tr@bncs_control@@SA?AVQString@@PBD0@Z 10059ac1 f   moc_bncs_control.obj
 0001:00058b02       ?trUtf8@bncs_control@@SA?AVQString@@PBD0@Z 10059b02 f   moc_bncs_control.obj
 0001:00058b43       ?staticMetaObject@bncs_control@@SAPAVQMetaObject@@XZ 10059b43 f   moc_bncs_control.obj
 0001:00058c4f       ?qt_cast@bncs_control@@UAEPAXPBD@Z 10059c4f f   moc_bncs_control.obj
 0001:00058cba       ?notify@bncs_control@@IAEXAAVQString@@@Z 10059cba f   moc_bncs_control.obj
 0001:00058d5b       ?qt_invoke@bncs_control@@UAE_NHPAUQUObject@@@Z 10059d5b f   moc_bncs_control.obj
 0001:00058dad       ?qt_emit@bncs_control@@UAE_NHPAUQUObject@@@Z 10059dad f   moc_bncs_control.obj
 0001:00058de4       ?className@bncs_control_editBase@@UBEPBDXZ 10059de4 f   moc_bncs_control_edit.obj
 0001:00058e21       ?tr@bncs_control_editBase@@SA?AVQString@@PBD0@Z 10059e21 f   moc_bncs_control_edit.obj
 0001:00058e62       ?staticMetaObject@bncs_control_editBase@@SAPAVQMetaObject@@XZ 10059e62 f   moc_bncs_control_edit.obj
 0001:00058eae       ?qt_cast@bncs_control_editBase@@UAEPAXPBD@Z 10059eae f   moc_bncs_control_edit.obj
 0001:00058eea       ?qt_invoke@bncs_control_editBase@@UAE_NHPAUQUObject@@@Z 10059eea f   moc_bncs_control_edit.obj
 0001:00058f1d       ?className@bncs_control_edit_textBase@@UBEPBDXZ 10059f1d f   moc_bncs_control_edit_text.obj
 0001:00058f5a       ?tr@bncs_control_edit_textBase@@SA?AVQString@@PBD0@Z 10059f5a f   moc_bncs_control_edit_text.obj
 0001:00058f9b       ?staticMetaObject@bncs_control_edit_textBase@@SAPAVQMetaObject@@XZ 10059f9b f   moc_bncs_control_edit_text.obj
 0001:00058fe7       ?qt_cast@bncs_control_edit_textBase@@UAEPAXPBD@Z 10059fe7 f   moc_bncs_control_edit_text.obj
 0001:00059023       ?qt_invoke@bncs_control_edit_textBase@@UAE_NHPAUQUObject@@@Z 1005a023 f   moc_bncs_control_edit_text.obj
 0001:00059056       ?className@bncs_control_edit_text@@UBEPBDXZ 1005a056 f   moc_bncs_control_edit_textimpl.obj
 0001:00059093       ?staticMetaObject@bncs_control_edit_text@@SAPAVQMetaObject@@XZ 1005a093 f   moc_bncs_control_edit_textimpl.obj
 0001:000590de       ?qt_cast@bncs_control_edit_text@@UAEPAXPBD@Z 1005a0de f   moc_bncs_control_edit_textimpl.obj
 0001:00059119       ?qt_invoke@bncs_control_edit_text@@UAE_NHPAUQUObject@@@Z 1005a119 f   moc_bncs_control_edit_textimpl.obj
 0001:00059163       ?className@bncs_control_edit@@UBEPBDXZ 1005a163 f   moc_bncs_control_editimpl.obj
 0001:000591a0       ?staticMetaObject@bncs_control_edit@@SAPAVQMetaObject@@XZ 1005a1a0 f   moc_bncs_control_editimpl.obj
 0001:00059240       ?qt_cast@bncs_control_edit@@UAEPAXPBD@Z 1005a240 f   moc_bncs_control_editimpl.obj
 0001:0005927b       ?qt_invoke@bncs_control_edit@@UAE_NHPAUQUObject@@@Z 1005a27b f   moc_bncs_control_editimpl.obj
 0001:000593c2       ?className@bncs_data_button@@UBEPBDXZ 1005a3c2 f   moc_bncs_data_button.obj
 0001:000593ff       ?tr@bncs_data_button@@SA?AVQString@@PBD0@Z 1005a3ff f   moc_bncs_data_button.obj
 0001:00059440       ?trUtf8@bncs_data_button@@SA?AVQString@@PBD0@Z 1005a440 f   moc_bncs_data_button.obj
 0001:00059481       ?staticMetaObject@bncs_data_button@@SAPAVQMetaObject@@XZ 1005a481 f   moc_bncs_data_button.obj
 0001:00059544       ?qt_cast@bncs_data_button@@UAEPAXPBD@Z 1005a544 f   moc_bncs_data_button.obj
 0001:0005957f       ?qt_invoke@bncs_data_button@@UAE_NHPAUQUObject@@@Z 1005a57f f   moc_bncs_data_button.obj
 0001:000595f4       ?qt_emit@bncs_data_button@@UAE_NHPAUQUObject@@@Z 1005a5f4 f   moc_bncs_data_button.obj
 0001:00059604       ?className@bncs_data_button_editBase@@UBEPBDXZ 1005a604 f   moc_bncs_data_button_edit.obj
 0001:00059641       ?tr@bncs_data_button_editBase@@SA?AVQString@@PBD0@Z 1005a641 f   moc_bncs_data_button_edit.obj
 0001:00059682       ?trUtf8@bncs_data_button_editBase@@SA?AVQString@@PBD0@Z 1005a682 f   moc_bncs_data_button_edit.obj
 0001:000596c3       ?staticMetaObject@bncs_data_button_editBase@@SAPAVQMetaObject@@XZ 1005a6c3 f   moc_bncs_data_button_edit.obj
 0001:0005970f       ?qt_cast@bncs_data_button_editBase@@UAEPAXPBD@Z 1005a70f f   moc_bncs_data_button_edit.obj
 0001:0005974b       ?qt_invoke@bncs_data_button_editBase@@UAE_NHPAUQUObject@@@Z 1005a74b f   moc_bncs_data_button_edit.obj
 0001:0005977e       ?className@bncs_data_button_edit@@UBEPBDXZ 1005a77e f   moc_bncs_data_button_editimpl.obj
 0001:000597bb       ?staticMetaObject@bncs_data_button_edit@@SAPAVQMetaObject@@XZ 1005a7bb f   moc_bncs_data_button_editimpl.obj
 0001:00059859       ?qt_cast@bncs_data_button_edit@@UAEPAXPBD@Z 1005a859 f   moc_bncs_data_button_editimpl.obj
 0001:00059894       ?qt_invoke@bncs_data_button_edit@@UAE_NHPAUQUObject@@@Z 1005a894 f   moc_bncs_data_button_editimpl.obj
 0001:000598e2       ?className@bncs_edittext@@UBEPBDXZ 1005a8e2 f   moc_bncs_edittext.obj
 0001:0005991f       ?tr@bncs_edittext@@SA?AVQString@@PBD0@Z 1005a91f f   moc_bncs_edittext.obj
 0001:00059960       ?trUtf8@bncs_edittext@@SA?AVQString@@PBD0@Z 1005a960 f   moc_bncs_edittext.obj
 0001:000599a1       ?staticMetaObject@bncs_edittext@@SAPAVQMetaObject@@XZ 1005a9a1 f   moc_bncs_edittext.obj
 0001:00059ab0       ?qt_cast@bncs_edittext@@UAEPAXPBD@Z 1005aab0 f   moc_bncs_edittext.obj
 0001:00059b1b       ?notify@bncs_edittext@@IAEXAAVQString@@@Z 1005ab1b f   moc_bncs_edittext.obj
 0001:00059bbc       ?textChanged@bncs_edittext@@IAEXABVQString@@@Z 1005abbc f   moc_bncs_edittext.obj
 0001:00059c03       ?qt_invoke@bncs_edittext@@UAE_NHPAUQUObject@@@Z 1005ac03 f   moc_bncs_edittext.obj
 0001:00059c5e       ?qt_emit@bncs_edittext@@UAE_NHPAUQUObject@@@Z 1005ac5e f   moc_bncs_edittext.obj
 0001:00059caa       ?className@bncs_editTextDialogBase@@UBEPBDXZ 1005acaa f   moc_bncs_edittextdialog.obj
 0001:00059ce7       ?tr@bncs_editTextDialogBase@@SA?AVQString@@PBD0@Z 1005ace7 f   moc_bncs_edittextdialog.obj
 0001:00059d28       ?staticMetaObject@bncs_editTextDialogBase@@SAPAVQMetaObject@@XZ 1005ad28 f   moc_bncs_edittextdialog.obj
 0001:00059d74       ?qt_cast@bncs_editTextDialogBase@@UAEPAXPBD@Z 1005ad74 f   moc_bncs_edittextdialog.obj
 0001:00059db0       ?qt_invoke@bncs_editTextDialogBase@@UAE_NHPAUQUObject@@@Z 1005adb0 f   moc_bncs_edittextdialog.obj
 0001:00059de3       ?className@bncs_editTextDialog@@UBEPBDXZ 1005ade3 f   moc_bncs_edittextdialogimpl.obj
 0001:00059e20       ?staticMetaObject@bncs_editTextDialog@@SAPAVQMetaObject@@XZ 1005ae20 f   moc_bncs_edittextdialogimpl.obj
 0001:00059e94       ?qt_cast@bncs_editTextDialog@@UAEPAXPBD@Z 1005ae94 f   moc_bncs_edittextdialogimpl.obj
 0001:00059ecf       ?qt_invoke@bncs_editTextDialog@@UAE_NHPAUQUObject@@@Z 1005aecf f   moc_bncs_edittextdialogimpl.obj
 0001:00059f38       ?className@bncs_enum@@UBEPBDXZ 1005af38 f   moc_bncs_enum.obj
 0001:00059f75       ?tr@bncs_enum@@SA?AVQString@@PBD0@Z 1005af75 f   moc_bncs_enum.obj
 0001:00059fb6       ?trUtf8@bncs_enum@@SA?AVQString@@PBD0@Z 1005afb6 f   moc_bncs_enum.obj
 0001:00059ff7       ?staticMetaObject@bncs_enum@@SAPAVQMetaObject@@XZ 1005aff7 f   moc_bncs_enum.obj
 0001:0005a0ff       ?qt_cast@bncs_enum@@UAEPAXPBD@Z 1005b0ff f   moc_bncs_enum.obj
 0001:0005a198       ?qt_invoke@bncs_enum@@UAE_NHPAUQUObject@@@Z 1005b198 f   moc_bncs_enum.obj
 0001:0005a255       ?className@bncs_enum_button_editBase@@UBEPBDXZ 1005b255 f   moc_bncs_enum_button_edit.obj
 0001:0005a292       ?tr@bncs_enum_button_editBase@@SA?AVQString@@PBD0@Z 1005b292 f   moc_bncs_enum_button_edit.obj
 0001:0005a2d3       ?staticMetaObject@bncs_enum_button_editBase@@SAPAVQMetaObject@@XZ 1005b2d3 f   moc_bncs_enum_button_edit.obj
 0001:0005a31f       ?qt_cast@bncs_enum_button_editBase@@UAEPAXPBD@Z 1005b31f f   moc_bncs_enum_button_edit.obj
 0001:0005a35b       ?qt_invoke@bncs_enum_button_editBase@@UAE_NHPAUQUObject@@@Z 1005b35b f   moc_bncs_enum_button_edit.obj
 0001:0005a38e       ?className@bncs_enum_edit_settingsBase@@UBEPBDXZ 1005b38e f   moc_bncs_enum_edit_settings.obj
 0001:0005a3cb       ?tr@bncs_enum_edit_settingsBase@@SA?AVQString@@PBD0@Z 1005b3cb f   moc_bncs_enum_edit_settings.obj
 0001:0005a40c       ?staticMetaObject@bncs_enum_edit_settingsBase@@SAPAVQMetaObject@@XZ 1005b40c f   moc_bncs_enum_edit_settings.obj
 0001:0005a458       ?qt_cast@bncs_enum_edit_settingsBase@@UAEPAXPBD@Z 1005b458 f   moc_bncs_enum_edit_settings.obj
 0001:0005a494       ?qt_invoke@bncs_enum_edit_settingsBase@@UAE_NHPAUQUObject@@@Z 1005b494 f   moc_bncs_enum_edit_settings.obj
 0001:0005a4c7       ?className@bncs_enum_edit_settings@@UBEPBDXZ 1005b4c7 f   moc_bncs_enum_edit_settingsimpl.obj
 0001:0005a504       ?staticMetaObject@bncs_enum_edit_settings@@SAPAVQMetaObject@@XZ 1005b504 f   moc_bncs_enum_edit_settingsimpl.obj
 0001:0005a6a9       ?qt_cast@bncs_enum_edit_settings@@UAEPAXPBD@Z 1005b6a9 f   moc_bncs_enum_edit_settingsimpl.obj
 0001:0005a6e4       ?qt_invoke@bncs_enum_edit_settings@@UAE_NHPAUQUObject@@@Z 1005b6e4 f   moc_bncs_enum_edit_settingsimpl.obj
 0001:0005a7c3       ?className@bncs_enum_edit_style@@UBEPBDXZ 1005b7c3 f   moc_bncs_enum_edit_style.obj
 0001:0005a800       ?tr@bncs_enum_edit_style@@SA?AVQString@@PBD0@Z 1005b800 f   moc_bncs_enum_edit_style.obj
 0001:0005a841       ?staticMetaObject@bncs_enum_edit_style@@SAPAVQMetaObject@@XZ 1005b841 f   moc_bncs_enum_edit_style.obj
 0001:0005a88d       ?qt_cast@bncs_enum_edit_style@@UAEPAXPBD@Z 1005b88d f   moc_bncs_enum_edit_style.obj
 0001:0005a8c9       ?qt_invoke@bncs_enum_edit_style@@UAE_NHPAUQUObject@@@Z 1005b8c9 f   moc_bncs_enum_edit_style.obj
 0001:0005a8fc       ?className@bncs_enum_linebutton_editBase@@UBEPBDXZ 1005b8fc f   moc_bncs_enum_linebutton_edit.obj
 0001:0005a939       ?tr@bncs_enum_linebutton_editBase@@SA?AVQString@@PBD0@Z 1005b939 f   moc_bncs_enum_linebutton_edit.obj
 0001:0005a97a       ?staticMetaObject@bncs_enum_linebutton_editBase@@SAPAVQMetaObject@@XZ 1005b97a f   moc_bncs_enum_linebutton_edit.obj
 0001:0005a9c6       ?qt_cast@bncs_enum_linebutton_editBase@@UAEPAXPBD@Z 1005b9c6 f   moc_bncs_enum_linebutton_edit.obj
 0001:0005aa02       ?qt_invoke@bncs_enum_linebutton_editBase@@UAE_NHPAUQUObject@@@Z 1005ba02 f   moc_bncs_enum_linebutton_edit.obj
 0001:0005aa35       ?className@bncs_enum_linebutton_edit@@UBEPBDXZ 1005ba35 f   moc_bncs_enum_linebutton_editimpl.obj
 0001:0005aa72       ?staticMetaObject@bncs_enum_linebutton_edit@@SAPAVQMetaObject@@XZ 1005ba72 f   moc_bncs_enum_linebutton_editimpl.obj
 0001:0005aab8       ?qt_cast@bncs_enum_linebutton_edit@@UAEPAXPBD@Z 1005bab8 f   moc_bncs_enum_linebutton_editimpl.obj
 0001:0005aaf3       ?qt_invoke@bncs_enum_linebutton_edit@@UAE_NHPAUQUObject@@@Z 1005baf3 f   moc_bncs_enum_linebutton_editimpl.obj
 0001:0005ab03       ?className@bncs_enum_list@@UBEPBDXZ 1005bb03 f   moc_bncs_enum_list.obj
 0001:0005ab40       ?staticMetaObject@bncs_enum_list@@SAPAVQMetaObject@@XZ 1005bb40 f   moc_bncs_enum_list.obj
 0001:0005abb6       ?qt_cast@bncs_enum_list@@UAEPAXPBD@Z 1005bbb6 f   moc_bncs_enum_list.obj
 0001:0005ac76       ?qt_invoke@bncs_enum_list@@UAE_NHPAUQUObject@@@Z 1005bc76 f   moc_bncs_enum_list.obj
 0001:0005acc8       ?className@bncs_enum_list_editBase@@UBEPBDXZ 1005bcc8 f   moc_bncs_enum_list_edit.obj
 0001:0005ad05       ?tr@bncs_enum_list_editBase@@SA?AVQString@@PBD0@Z 1005bd05 f   moc_bncs_enum_list_edit.obj
 0001:0005ad46       ?staticMetaObject@bncs_enum_list_editBase@@SAPAVQMetaObject@@XZ 1005bd46 f   moc_bncs_enum_list_edit.obj
 0001:0005ad92       ?qt_cast@bncs_enum_list_editBase@@UAEPAXPBD@Z 1005bd92 f   moc_bncs_enum_list_edit.obj
 0001:0005adce       ?qt_invoke@bncs_enum_list_editBase@@UAE_NHPAUQUObject@@@Z 1005bdce f   moc_bncs_enum_list_edit.obj
 0001:0005ae01       ?className@bncs_enum_list_edit@@UBEPBDXZ 1005be01 f   moc_bncs_enum_list_editimpl.obj
 0001:0005ae3e       ?staticMetaObject@bncs_enum_list_edit@@SAPAVQMetaObject@@XZ 1005be3e f   moc_bncs_enum_list_editimpl.obj
 0001:0005ae89       ?qt_cast@bncs_enum_list_edit@@UAEPAXPBD@Z 1005be89 f   moc_bncs_enum_list_editimpl.obj
 0001:0005aec4       ?qt_invoke@bncs_enum_list_edit@@UAE_NHPAUQUObject@@@Z 1005bec4 f   moc_bncs_enum_list_editimpl.obj
 0001:0005aef3       ?className@bncs_enum_listbutton_editBase@@UBEPBDXZ 1005bef3 f   moc_bncs_enum_listbutton_edit.obj
 0001:0005af30       ?tr@bncs_enum_listbutton_editBase@@SA?AVQString@@PBD0@Z 1005bf30 f   moc_bncs_enum_listbutton_edit.obj
 0001:0005af71       ?staticMetaObject@bncs_enum_listbutton_editBase@@SAPAVQMetaObject@@XZ 1005bf71 f   moc_bncs_enum_listbutton_edit.obj
 0001:0005afbd       ?qt_cast@bncs_enum_listbutton_editBase@@UAEPAXPBD@Z 1005bfbd f   moc_bncs_enum_listbutton_edit.obj
 0001:0005aff9       ?qt_invoke@bncs_enum_listbutton_editBase@@UAE_NHPAUQUObject@@@Z 1005bff9 f   moc_bncs_enum_listbutton_edit.obj
 0001:0005b02c       ?className@bncs_enum_listbutton_edit@@UBEPBDXZ 1005c02c f   moc_bncs_enum_listbutton_editimpl.obj
 0001:0005b069       ?staticMetaObject@bncs_enum_listbutton_edit@@SAPAVQMetaObject@@XZ 1005c069 f   moc_bncs_enum_listbutton_editimpl.obj
 0001:0005b0b4       ?qt_cast@bncs_enum_listbutton_edit@@UAEPAXPBD@Z 1005c0b4 f   moc_bncs_enum_listbutton_editimpl.obj
 0001:0005b0ef       ?qt_invoke@bncs_enum_listbutton_edit@@UAE_NHPAUQUObject@@@Z 1005c0ef f   moc_bncs_enum_listbutton_editimpl.obj
 0001:0005b11e       ?className@bncs_http@@UBEPBDXZ 1005c11e f   moc_bncs_http.obj
 0001:0005b15b       ?staticMetaObject@bncs_http@@SAPAVQMetaObject@@XZ 1005c15b f   moc_bncs_http.obj
 0001:0005b2c7       ?qt_cast@bncs_http@@UAEPAXPBD@Z 1005c2c7 f   moc_bncs_http.obj
 0001:0005b303       ?finished@bncs_http@@IAEXABVQString@@0_N10@Z 1005c303 f   moc_bncs_http.obj
 0001:0005b3f9       ?qt_invoke@bncs_http@@UAE_NHPAUQUObject@@@Z 1005c3f9 f   moc_bncs_http.obj
 0001:0005b448       ?qt_emit@bncs_http@@UAE_NHPAUQUObject@@@Z 1005c448 f   moc_bncs_http.obj
 0001:0005b490       ?className@bncs_ie@@UBEPBDXZ 1005c490 f   moc_bncs_ie.obj
 0001:0005b4cd       ?tr@bncs_ie@@SA?AVQString@@PBD0@Z 1005c4cd f   moc_bncs_ie.obj
 0001:0005b50e       ?trUtf8@bncs_ie@@SA?AVQString@@PBD0@Z 1005c50e f   moc_bncs_ie.obj
 0001:0005b54f       ?staticMetaObject@bncs_ie@@SAPAVQMetaObject@@XZ 1005c54f f   moc_bncs_ie.obj
 0001:0005b641       ?qt_cast@bncs_ie@@UAEPAXPBD@Z 1005c641 f   moc_bncs_ie.obj
 0001:0005b6ac       ?notify@bncs_ie@@IAEXAAVQString@@@Z 1005c6ac f   moc_bncs_ie.obj
 0001:0005b74d       ?qt_invoke@bncs_ie@@UAE_NHPAUQUObject@@@Z 1005c74d f   moc_bncs_ie.obj
 0001:0005b79c       ?qt_emit@bncs_ie@@UAE_NHPAUQUObject@@@Z 1005c79c f   moc_bncs_ie.obj
 0001:0005b7d3       ?className@bncs_ie_editBase@@UBEPBDXZ 1005c7d3 f   moc_bncs_ie_edit.obj
 0001:0005b810       ?tr@bncs_ie_editBase@@SA?AVQString@@PBD0@Z 1005c810 f   moc_bncs_ie_edit.obj
 0001:0005b851       ?trUtf8@bncs_ie_editBase@@SA?AVQString@@PBD0@Z 1005c851 f   moc_bncs_ie_edit.obj
 0001:0005b892       ?staticMetaObject@bncs_ie_editBase@@SAPAVQMetaObject@@XZ 1005c892 f   moc_bncs_ie_edit.obj
 0001:0005b8de       ?qt_cast@bncs_ie_editBase@@UAEPAXPBD@Z 1005c8de f   moc_bncs_ie_edit.obj
 0001:0005b91a       ?qt_invoke@bncs_ie_editBase@@UAE_NHPAUQUObject@@@Z 1005c91a f   moc_bncs_ie_edit.obj
 0001:0005b94d       ?className@bncs_ie_edit@@UBEPBDXZ 1005c94d f   moc_bncs_ie_editimpl.obj
 0001:0005b98a       ?staticMetaObject@bncs_ie_edit@@SAPAVQMetaObject@@XZ 1005c98a f   moc_bncs_ie_editimpl.obj
 0001:0005b9d0       ?qt_cast@bncs_ie_edit@@UAEPAXPBD@Z 1005c9d0 f   moc_bncs_ie_editimpl.obj
 0001:0005ba0b       ?qt_invoke@bncs_ie_edit@@UAE_NHPAUQUObject@@@Z 1005ca0b f   moc_bncs_ie_editimpl.obj
 0001:0005ba1b       ?className@bncs_instance@@UBEPBDXZ 1005ca1b f   moc_bncs_instance.obj
 0001:0005ba58       ?tr@bncs_instance@@SA?AVQString@@PBD0@Z 1005ca58 f   moc_bncs_instance.obj
 0001:0005ba99       ?trUtf8@bncs_instance@@SA?AVQString@@PBD0@Z 1005ca99 f   moc_bncs_instance.obj
 0001:0005bada       ?staticMetaObject@bncs_instance@@SAPAVQMetaObject@@XZ 1005cada f   moc_bncs_instance.obj
 0001:0005bbe6       ?qt_cast@bncs_instance@@UAEPAXPBD@Z 1005cbe6 f   moc_bncs_instance.obj
 0001:0005bc22       ?notify@bncs_instance@@IAEXAAVQString@@@Z 1005cc22 f   moc_bncs_instance.obj
 0001:0005bcc3       ?qt_invoke@bncs_instance@@UAE_NHPAUQUObject@@@Z 1005ccc3 f   moc_bncs_instance.obj
 0001:0005bd15       ?qt_emit@bncs_instance@@UAE_NHPAUQUObject@@@Z 1005cd15 f   moc_bncs_instance.obj
 0001:0005bd4c       ?className@bncs_instance_editBase@@UBEPBDXZ 1005cd4c f   moc_bncs_instance_edit.obj
 0001:0005bd89       ?tr@bncs_instance_editBase@@SA?AVQString@@PBD0@Z 1005cd89 f   moc_bncs_instance_edit.obj
 0001:0005bdca       ?staticMetaObject@bncs_instance_editBase@@SAPAVQMetaObject@@XZ 1005cdca f   moc_bncs_instance_edit.obj
 0001:0005be16       ?qt_cast@bncs_instance_editBase@@UAEPAXPBD@Z 1005ce16 f   moc_bncs_instance_edit.obj
 0001:0005be52       ?qt_invoke@bncs_instance_editBase@@UAE_NHPAUQUObject@@@Z 1005ce52 f   moc_bncs_instance_edit.obj
 0001:0005be85       ?className@bncs_instance_edit@@UBEPBDXZ 1005ce85 f   moc_bncs_instance_editimpl.obj
 0001:0005bec2       ?staticMetaObject@bncs_instance_edit@@SAPAVQMetaObject@@XZ 1005cec2 f   moc_bncs_instance_editimpl.obj
 0001:0005bf0d       ?qt_cast@bncs_instance_edit@@UAEPAXPBD@Z 1005cf0d f   moc_bncs_instance_editimpl.obj
 0001:0005bf48       ?qt_invoke@bncs_instance_edit@@UAE_NHPAUQUObject@@@Z 1005cf48 f   moc_bncs_instance_editimpl.obj
 0001:0005bf92       ?qt_emit@bncs_listview_edit@@UAE_NHPAUQUObject@@@Z 1005cf92 f   moc_bncs_instance_editimpl.obj
 0001:0005bf92       ?qt_emit@bncs_control_edit_text@@UAE_NHPAUQUObject@@@Z 1005cf92 f   moc_bncs_instance_editimpl.obj
 0001:0005bf92       ?qt_emit@keyboard_edit@@UAE_NHPAUQUObject@@@Z 1005cf92 f   moc_bncs_instance_editimpl.obj
 0001:0005bf92       ?qt_emit@bncs_editTextDialog@@UAE_NHPAUQUObject@@@Z 1005cf92 f   moc_bncs_instance_editimpl.obj
 0001:0005bf92       ?qt_emit@bncs_range_updownbutton_edit@@UAE_NHPAUQUObject@@@Z 1005cf92 f   moc_bncs_instance_editimpl.obj
 0001:0005bf92       ?qt_emit@param_browser@@UAE_NHPAUQUObject@@@Z 1005cf92 f   moc_bncs_instance_editimpl.obj
 0001:0005bf92       ?qt_emit@uiHostEditDialog@@UAE_NHPAUQUObject@@@Z 1005cf92 f   moc_bncs_instance_editimpl.obj
 0001:0005bf92       ?qt_emit@bncs_rtrNameGridEditDlg@@UAE_NHPAUQUObject@@@Z 1005cf92 f   moc_bncs_instance_editimpl.obj
 0001:0005bf92       ?qt_emit@bncs_smart_string_edit_settings@@UAE_NHPAUQUObject@@@Z 1005cf92 f   moc_bncs_instance_editimpl.obj
 0001:0005bf92       ?qt_emit@bncs_config_browser@@UAE_NHPAUQUObject@@@Z 1005cf92 f   moc_bncs_instance_editimpl.obj
 0001:0005bf92       ?qt_emit@bncs_listbox_edit@@UAE_NHPAUQUObject@@@Z 1005cf92 f   moc_bncs_instance_editimpl.obj
 0001:0005bf92       ?qt_emit@bncs_enum_linebutton_edit@@UAE_NHPAUQUObject@@@Z 1005cf92 f   moc_bncs_instance_editimpl.obj
 0001:0005bf92       ?qt_emit@bncs_rtrDestGridEditDlg@@UAE_NHPAUQUObject@@@Z 1005cf92 f   moc_bncs_instance_editimpl.obj
 0001:0005bf92       ?qt_emit@bncs_control_edit@@UAE_NHPAUQUObject@@@Z 1005cf92 f   moc_bncs_instance_editimpl.obj
 0001:0005bf92       ?qt_emit@bncs_script_loader_editBaseImpl@@UAE_NHPAUQUObject@@@Z 1005cf92 f   moc_bncs_instance_editimpl.obj
 0001:0005bf92       ?qt_emit@bncs_instance_edit@@UAE_NHPAUQUObject@@@Z 1005cf92 f   moc_bncs_instance_editimpl.obj
 0001:0005bf92       ?qt_emit@bncs_ie_edit@@UAE_NHPAUQUObject@@@Z 1005cf92 f   moc_bncs_instance_editimpl.obj
 0001:0005bf92       ?qt_emit@bncs_sourcegrideditdlg@@UAE_NHPAUQUObject@@@Z 1005cf92 f   moc_bncs_instance_editimpl.obj
 0001:0005bf92       ?qt_emit@bncs_data_button_edit@@UAE_NHPAUQUObject@@@Z 1005cf92 f   moc_bncs_instance_editimpl.obj
 0001:0005bf92       ?qt_emit@bncs_skin_button_edit@@UAE_NHPAUQUObject@@@Z 1005cf92 f   moc_bncs_instance_editimpl.obj
 0001:0005bf92       ?qt_emit@browseScriptsDialog@@UAE_NHPAUQUObject@@@Z 1005cf92 f   moc_bncs_instance_editimpl.obj
 0001:0005bf92       ?qt_emit@bncs_clock_edit@@UAE_NHPAUQUObject@@@Z 1005cf92 f   moc_bncs_instance_editimpl.obj
 0001:0005bfa2       ?className@bncs_keyboard_ctrl@@UBEPBDXZ 1005cfa2 f   moc_bncs_keyboard_ctrl.obj
 0001:0005bfdf       ?tr@bncs_keyboard_ctrl@@SA?AVQString@@PBD0@Z 1005cfdf f   moc_bncs_keyboard_ctrl.obj
 0001:0005c020       ?trUtf8@bncs_keyboard_ctrl@@SA?AVQString@@PBD0@Z 1005d020 f   moc_bncs_keyboard_ctrl.obj
 0001:0005c061       ?staticMetaObject@bncs_keyboard_ctrl@@SAPAVQMetaObject@@XZ 1005d061 f   moc_bncs_keyboard_ctrl.obj
 0001:0005c3f3       ?qt_cast@bncs_keyboard_ctrl@@UAEPAXPBD@Z 1005d3f3 f   moc_bncs_keyboard_ctrl.obj
 0001:0005c42f       ?notify@bncs_keyboard_ctrl@@IAEXAAVQString@@@Z 1005d42f f   moc_bncs_keyboard_ctrl.obj
 0001:0005c4d0       ?notify_custom@bncs_keyboard_ctrl@@IAEXH@Z 1005d4d0 f   moc_bncs_keyboard_ctrl.obj
 0001:0005c4ed       ?notify_custom@bncs_keyboard_ctrl@@IAEXHHAAVQString@@@Z 1005d4ed f   moc_bncs_keyboard_ctrl.obj
 0001:0005c5c0       ?qt_invoke@bncs_keyboard_ctrl@@UAE_NHPAUQUObject@@@Z 1005d5c0 f   moc_bncs_keyboard_ctrl.obj
 0001:0005c977       ?qt_emit@bncs_keyboard_ctrl@@UAE_NHPAUQUObject@@@Z 1005d977 f   moc_bncs_keyboard_ctrl.obj
 0001:0005c9db       ?className@bncs_line@@UBEPBDXZ 1005d9db f   moc_bncs_line.obj
 0001:0005ca18       ?tr@bncs_line@@SA?AVQString@@PBD0@Z 1005da18 f   moc_bncs_line.obj
 0001:0005ca59       ?trUtf8@bncs_line@@SA?AVQString@@PBD0@Z 1005da59 f   moc_bncs_line.obj
 0001:0005ca9a       ?staticMetaObject@bncs_line@@SAPAVQMetaObject@@XZ 1005da9a f   moc_bncs_line.obj
 0001:0005cc08       ?qt_cast@bncs_line@@UAEPAXPBD@Z 1005dc08 f   moc_bncs_line.obj
 0001:0005cc44       ?notify@bncs_line@@IAEXAAVQString@@@Z 1005dc44 f   moc_bncs_line.obj
 0001:0005cce5       ?qt_invoke@bncs_line@@UAE_NHPAUQUObject@@@Z 1005dce5 f   moc_bncs_line.obj
 0001:0005cd79       ?qt_emit@bncs_line@@UAE_NHPAUQUObject@@@Z 1005dd79 f   moc_bncs_line.obj
 0001:0005cdb0       ?className@bncs_lineeditdialogBase@@UBEPBDXZ 1005ddb0 f   moc_bncs_lineeditdialog.obj
 0001:0005cded       ?tr@bncs_lineeditdialogBase@@SA?AVQString@@PBD0@Z 1005dded f   moc_bncs_lineeditdialog.obj
 0001:0005ce2e       ?staticMetaObject@bncs_lineeditdialogBase@@SAPAVQMetaObject@@XZ 1005de2e f   moc_bncs_lineeditdialog.obj
 0001:0005ce7a       ?qt_cast@bncs_lineeditdialogBase@@UAEPAXPBD@Z 1005de7a f   moc_bncs_lineeditdialog.obj
 0001:0005ceb6       ?qt_invoke@bncs_lineeditdialogBase@@UAE_NHPAUQUObject@@@Z 1005deb6 f   moc_bncs_lineeditdialog.obj
 0001:0005cee9       ?className@editdialog@@UBEPBDXZ 1005dee9 f   moc_bncs_lineeditdialogimpl.obj
 0001:0005cf26       ?staticMetaObject@editdialog@@SAPAVQMetaObject@@XZ 1005df26 f   moc_bncs_lineeditdialogimpl.obj
 0001:0005cfca       ?qt_cast@editdialog@@UAEPAXPBD@Z 1005dfca f   moc_bncs_lineeditdialogimpl.obj
 0001:0005d005       ?qt_invoke@editdialog@@UAE_NHPAUQUObject@@@Z 1005e005 f   moc_bncs_lineeditdialogimpl.obj
 0001:0005d068       ?qt_property@bncs_enum_edit_settings@@UAE_NHHPAVQVariant@@@Z 1005e068 f   moc_bncs_lineeditdialogimpl.obj
 0001:0005d068       ?qt_property@editdialog@@UAE_NHHPAVQVariant@@@Z 1005e068 f   moc_bncs_lineeditdialogimpl.obj
 0001:0005d068       ?qt_property@bncs_enum_list_edit@@UAE_NHHPAVQVariant@@@Z 1005e068 f   moc_bncs_lineeditdialogimpl.obj
 0001:0005d068       ?qt_property@bncs_data_button@@UAE_NHHPAVQVariant@@@Z 1005e068 f   moc_bncs_lineeditdialogimpl.obj
 0001:0005d068       ?qt_property@bncs_range_edit_settings@@UAE_NHHPAVQVariant@@@Z 1005e068 f   moc_bncs_lineeditdialogimpl.obj
 0001:0005d068       ?qt_property@bncs_enum_listbutton_edit@@UAE_NHHPAVQVariant@@@Z 1005e068 f   moc_bncs_lineeditdialogimpl.obj
 0001:0005d07c       ?className@bncs_listbox@@UBEPBDXZ 1005e07c f   moc_bncs_listbox.obj
 0001:0005d0b9       ?tr@bncs_listbox@@SA?AVQString@@PBD0@Z 1005e0b9 f   moc_bncs_listbox.obj
 0001:0005d0fa       ?trUtf8@bncs_listbox@@SA?AVQString@@PBD0@Z 1005e0fa f   moc_bncs_listbox.obj
 0001:0005d13b       ?staticMetaObject@bncs_listbox@@SAPAVQMetaObject@@XZ 1005e13b f   moc_bncs_listbox.obj
 0001:0005d271       ?qt_cast@bncs_listbox@@UAEPAXPBD@Z 1005e271 f   moc_bncs_listbox.obj
 0001:0005d2ad       ?notify@bncs_listbox@@IAEXAAVQString@@@Z 1005e2ad f   moc_bncs_listbox.obj
 0001:0005d34e       ?qt_invoke@bncs_listbox@@UAE_NHPAUQUObject@@@Z 1005e34e f   moc_bncs_listbox.obj
 0001:0005d3b2       ?qt_emit@bncs_listbox@@UAE_NHPAUQUObject@@@Z 1005e3b2 f   moc_bncs_listbox.obj
 0001:0005d3e9       ?qt_property@bncs_listbox@@UAE_NHHPAVQVariant@@@Z 1005e3e9 f   moc_bncs_listbox.obj
 0001:0005d3fe       ?className@bncs_listbox_editBase@@UBEPBDXZ 1005e3fe f   moc_bncs_listbox_edit.obj
 0001:0005d43b       ?tr@bncs_listbox_editBase@@SA?AVQString@@PBD0@Z 1005e43b f   moc_bncs_listbox_edit.obj
 0001:0005d47c       ?staticMetaObject@bncs_listbox_editBase@@SAPAVQMetaObject@@XZ 1005e47c f   moc_bncs_listbox_edit.obj
 0001:0005d4c8       ?qt_cast@bncs_listbox_editBase@@UAEPAXPBD@Z 1005e4c8 f   moc_bncs_listbox_edit.obj
 0001:0005d504       ?qt_invoke@bncs_listbox_editBase@@UAE_NHPAUQUObject@@@Z 1005e504 f   moc_bncs_listbox_edit.obj
 0001:0005d537       ?className@bncs_listbox_edit@@UBEPBDXZ 1005e537 f   moc_bncs_listbox_editimpl.obj
 0001:0005d574       ?staticMetaObject@bncs_listbox_edit@@SAPAVQMetaObject@@XZ 1005e574 f   moc_bncs_listbox_editimpl.obj
 0001:0005d5e8       ?qt_cast@bncs_listbox_edit@@UAEPAXPBD@Z 1005e5e8 f   moc_bncs_listbox_editimpl.obj
 0001:0005d623       ?qt_invoke@bncs_listbox_edit@@UAE_NHPAUQUObject@@@Z 1005e623 f   moc_bncs_listbox_editimpl.obj
 0001:0005d680       ?className@bncs_listview@@UBEPBDXZ 1005e680 f   moc_bncs_listview.obj
 0001:0005d6bd       ?tr@bncs_listview@@SA?AVQString@@PBD0@Z 1005e6bd f   moc_bncs_listview.obj
 0001:0005d6fe       ?trUtf8@bncs_listview@@SA?AVQString@@PBD0@Z 1005e6fe f   moc_bncs_listview.obj
 0001:0005d73f       ?staticMetaObject@bncs_listview@@SAPAVQMetaObject@@XZ 1005e73f f   moc_bncs_listview.obj
 0001:0005d875       ?qt_cast@bncs_listview@@UAEPAXPBD@Z 1005e875 f   moc_bncs_listview.obj
 0001:0005d8b1       ?notify@bncs_listview@@IAEXAAVQString@@@Z 1005e8b1 f   moc_bncs_listview.obj
 0001:0005d952       ?qt_invoke@bncs_listview@@UAE_NHPAUQUObject@@@Z 1005e952 f   moc_bncs_listview.obj
 0001:0005d9b6       ?qt_emit@bncs_listview@@UAE_NHPAUQUObject@@@Z 1005e9b6 f   moc_bncs_listview.obj
 0001:0005d9ed       ?qt_property@bncs_listview@@UAE_NHHPAVQVariant@@@Z 1005e9ed f   moc_bncs_listview.obj
 0001:0005da02       ?className@bncs_listview_editBase@@UBEPBDXZ 1005ea02 f   moc_bncs_listview_edit.obj
 0001:0005da3f       ?tr@bncs_listview_editBase@@SA?AVQString@@PBD0@Z 1005ea3f f   moc_bncs_listview_edit.obj
 0001:0005da80       ?staticMetaObject@bncs_listview_editBase@@SAPAVQMetaObject@@XZ 1005ea80 f   moc_bncs_listview_edit.obj
 0001:0005dacc       ?qt_cast@bncs_listview_editBase@@UAEPAXPBD@Z 1005eacc f   moc_bncs_listview_edit.obj
 0001:0005db08       ?qt_invoke@bncs_listview_editBase@@UAE_NHPAUQUObject@@@Z 1005eb08 f   moc_bncs_listview_edit.obj
 0001:0005db3b       ?className@bncs_listview_edit@@UBEPBDXZ 1005eb3b f   moc_bncs_listview_editimpl.obj
 0001:0005db78       ?staticMetaObject@bncs_listview_edit@@SAPAVQMetaObject@@XZ 1005eb78 f   moc_bncs_listview_editimpl.obj
 0001:0005dd44       ?qt_cast@bncs_listview_edit@@UAEPAXPBD@Z 1005ed44 f   moc_bncs_listview_editimpl.obj
 0001:0005dd7f       ?qt_invoke@bncs_listview_edit@@UAE_NHPAUQUObject@@@Z 1005ed7f f   moc_bncs_listview_editimpl.obj
 0001:0005df1c       ?className@bncs_popup@@UBEPBDXZ 1005ef1c f   moc_bncs_popup.obj
 0001:0005df59       ?staticMetaObject@bncs_popup@@SAPAVQMetaObject@@XZ 1005ef59 f   moc_bncs_popup.obj
 0001:0005dfd6       ?qt_cast@bncs_popup@@UAEPAXPBD@Z 1005efd6 f   moc_bncs_popup.obj
 0001:0005e012       ?hiding@bncs_popup@@IAEXXZ 1005f012 f   moc_bncs_popup.obj
 0001:0005e027       ?notify@bncs_popup@@IAEXAAVQString@@@Z 1005f027 f   moc_bncs_popup.obj
 0001:0005e0ca       ?qt_invoke@bncs_popup@@UAE_NHPAUQUObject@@@Z 1005f0ca f   moc_bncs_popup.obj
 0001:0005e109       ?qt_emit@bncs_popup@@UAE_NHPAUQUObject@@@Z 1005f109 f   moc_bncs_popup.obj
 0001:0005e14f       ?qt_property@bncs_popup@@UAE_NHHPAVQVariant@@@Z 1005f14f f   moc_bncs_popup.obj
 0001:0005e164       ?className@bncs_range@@UBEPBDXZ 1005f164 f   moc_bncs_range.obj
 0001:0005e1a1       ?tr@bncs_range@@SA?AVQString@@PBD0@Z 1005f1a1 f   moc_bncs_range.obj
 0001:0005e1e2       ?trUtf8@bncs_range@@SA?AVQString@@PBD0@Z 1005f1e2 f   moc_bncs_range.obj
 0001:0005e223       ?staticMetaObject@bncs_range@@SAPAVQMetaObject@@XZ 1005f223 f   moc_bncs_range.obj
 0001:0005e311       ?qt_cast@bncs_range@@UAEPAXPBD@Z 1005f311 f   moc_bncs_range.obj
 0001:0005e3aa       ?qt_invoke@bncs_range@@UAE_NHPAUQUObject@@@Z 1005f3aa f   moc_bncs_range.obj
 0001:0005e456       ?qt_emit@bncs_smart_string@@UAE_NHPAUQUObject@@@Z 1005f456 f   moc_bncs_range.obj
 0001:0005e456       ?qt_emit@bncs_range@@UAE_NHPAUQUObject@@@Z 1005f456 f   moc_bncs_range.obj
 0001:0005e456       ?qt_emit@bncs_enum@@UAE_NHPAUQUObject@@@Z 1005f456 f   moc_bncs_range.obj
 0001:0005e466       ?qt_property@bncs_enum@@UAE_NHHPAVQVariant@@@Z 1005f466 f   moc_bncs_range.obj
 0001:0005e466       ?qt_property@bncs_smart_string@@UAE_NHHPAVQVariant@@@Z 1005f466 f   moc_bncs_range.obj
 0001:0005e466       ?qt_property@bncs_range@@UAE_NHHPAVQVariant@@@Z 1005f466 f   moc_bncs_range.obj
 0001:0005e47a       ?className@bncs_range_button_editBase@@UBEPBDXZ 1005f47a f   moc_bncs_range_button_edit.obj
 0001:0005e4b7       ?tr@bncs_range_button_editBase@@SA?AVQString@@PBD0@Z 1005f4b7 f   moc_bncs_range_button_edit.obj
 0001:0005e4f8       ?staticMetaObject@bncs_range_button_editBase@@SAPAVQMetaObject@@XZ 1005f4f8 f   moc_bncs_range_button_edit.obj
 0001:0005e544       ?qt_cast@bncs_range_button_editBase@@UAEPAXPBD@Z 1005f544 f   moc_bncs_range_button_edit.obj
 0001:0005e580       ?qt_invoke@bncs_range_button_editBase@@UAE_NHPAUQUObject@@@Z 1005f580 f   moc_bncs_range_button_edit.obj
 0001:0005e5b3       ?className@bncs_range_edit_settingsBase@@UBEPBDXZ 1005f5b3 f   moc_bncs_range_edit_settings.obj
 0001:0005e5f0       ?tr@bncs_range_edit_settingsBase@@SA?AVQString@@PBD0@Z 1005f5f0 f   moc_bncs_range_edit_settings.obj
 0001:0005e631       ?staticMetaObject@bncs_range_edit_settingsBase@@SAPAVQMetaObject@@XZ 1005f631 f   moc_bncs_range_edit_settings.obj
 0001:0005e67d       ?qt_cast@bncs_range_edit_settingsBase@@UAEPAXPBD@Z 1005f67d f   moc_bncs_range_edit_settings.obj
 0001:0005e6b9       ?qt_invoke@bncs_range_edit_settingsBase@@UAE_NHPAUQUObject@@@Z 1005f6b9 f   moc_bncs_range_edit_settings.obj
 0001:0005e6ec       ?className@bncs_range_edit_settings@@UBEPBDXZ 1005f6ec f   moc_bncs_range_edit_settingsimpl.obj
 0001:0005e729       ?staticMetaObject@bncs_range_edit_settings@@SAPAVQMetaObject@@XZ 1005f729 f   moc_bncs_range_edit_settingsimpl.obj
 0001:0005e7c7       ?qt_cast@bncs_range_edit_settings@@UAEPAXPBD@Z 1005f7c7 f   moc_bncs_range_edit_settingsimpl.obj
 0001:0005e802       ?qt_invoke@bncs_range_edit_settings@@UAE_NHPAUQUObject@@@Z 1005f802 f   moc_bncs_range_edit_settingsimpl.obj
 0001:0005e865       ?qt_emit@bncs_range_edit_settings@@UAE_NHPAUQUObject@@@Z 1005f865 f   moc_bncs_range_edit_settingsimpl.obj
 0001:0005e865       ?qt_emit@bncs_enum_edit_settings@@UAE_NHPAUQUObject@@@Z 1005f865 f   moc_bncs_range_edit_settingsimpl.obj
 0001:0005e865       ?qt_emit@bncs_enum_listbutton_edit@@UAE_NHPAUQUObject@@@Z 1005f865 f   moc_bncs_range_edit_settingsimpl.obj
 0001:0005e865       ?qt_emit@bncs_enum_list_edit@@UAE_NHPAUQUObject@@@Z 1005f865 f   moc_bncs_range_edit_settingsimpl.obj
 0001:0005e865       ?qt_emit@editdialog@@UAE_NHPAUQUObject@@@Z 1005f865 f   moc_bncs_range_edit_settingsimpl.obj
 0001:0005e875       ?className@bncs_range_edit_style@@UBEPBDXZ 1005f875 f   moc_bncs_range_edit_style.obj
 0001:0005e8b2       ?tr@bncs_range_edit_style@@SA?AVQString@@PBD0@Z 1005f8b2 f   moc_bncs_range_edit_style.obj
 0001:0005e8f3       ?staticMetaObject@bncs_range_edit_style@@SAPAVQMetaObject@@XZ 1005f8f3 f   moc_bncs_range_edit_style.obj
 0001:0005e93f       ?qt_cast@bncs_range_edit_style@@UAEPAXPBD@Z 1005f93f f   moc_bncs_range_edit_style.obj
 0001:0005e97b       ?qt_invoke@bncs_range_edit_style@@UAE_NHPAUQUObject@@@Z 1005f97b f   moc_bncs_range_edit_style.obj
 0001:0005e9ae       ?className@bncs_range_fader@@UBEPBDXZ 1005f9ae f   moc_bncs_range_fader.obj
 0001:0005e9eb       ?staticMetaObject@bncs_range_fader@@SAPAVQMetaObject@@XZ 1005f9eb f   moc_bncs_range_fader.obj
 0001:0005ea8a       ?qt_cast@bncs_range_fader@@UAEPAXPBD@Z 1005fa8a f   moc_bncs_range_fader.obj
 0001:0005eb4a       ?qt_invoke@bncs_range_fader@@UAE_NHPAUQUObject@@@Z 1005fb4a f   moc_bncs_range_fader.obj
 0001:0005ebfd       ?qt_emit@bncs_enum_list@@UAE_NHPAUQUObject@@@Z 1005fbfd f   moc_bncs_range_fader.obj
 0001:0005ebfd       ?qt_emit@bncs_range_updown@@UAE_NHPAUQUObject@@@Z 1005fbfd f   moc_bncs_range_fader.obj
 0001:0005ebfd       ?qt_emit@bncs_range_fader@@UAE_NHPAUQUObject@@@Z 1005fbfd f   moc_bncs_range_fader.obj
 0001:0005ec0e       ?qt_property@bncs_range_updown@@UAE_NHHPAVQVariant@@@Z 1005fc0e f   moc_bncs_range_fader.obj
 0001:0005ec0e       ?qt_property@bncs_http@@UAE_NHHPAVQVariant@@@Z 1005fc0e f   moc_bncs_range_fader.obj
 0001:0005ec0e       ?qt_property@bncs_enum_list@@UAE_NHHPAVQVariant@@@Z 1005fc0e f   moc_bncs_range_fader.obj
 0001:0005ec0e       ?qt_property@bncs_range_fader@@UAE_NHHPAVQVariant@@@Z 1005fc0e f   moc_bncs_range_fader.obj
 0001:0005ec23       ?className@bncs_range_fader_editBase@@UBEPBDXZ 1005fc23 f   moc_bncs_range_fader_edit.obj
 0001:0005ec60       ?tr@bncs_range_fader_editBase@@SA?AVQString@@PBD0@Z 1005fc60 f   moc_bncs_range_fader_edit.obj
 0001:0005eca1       ?staticMetaObject@bncs_range_fader_editBase@@SAPAVQMetaObject@@XZ 1005fca1 f   moc_bncs_range_fader_edit.obj
 0001:0005eced       ?qt_cast@bncs_range_fader_editBase@@UAEPAXPBD@Z 1005fced f   moc_bncs_range_fader_edit.obj
 0001:0005ed29       ?qt_invoke@bncs_range_fader_editBase@@UAE_NHPAUQUObject@@@Z 1005fd29 f   moc_bncs_range_fader_edit.obj
 0001:0005ed5c       ?qt_emit@bncs_enum_listbutton_editBase@@UAE_NHPAUQUObject@@@Z 1005fd5c f   moc_bncs_range_fader_edit.obj
 0001:0005ed5c       ?qt_emit@bncs_lineeditdialogBase@@UAE_NHPAUQUObject@@@Z 1005fd5c f   moc_bncs_range_fader_edit.obj
 0001:0005ed5c       ?qt_emit@bncs_range_button_editBase@@UAE_NHPAUQUObject@@@Z 1005fd5c f   moc_bncs_range_fader_edit.obj
 0001:0005ed5c       ?qt_emit@bncs_range_edit_style@@UAE_NHPAUQUObject@@@Z 1005fd5c f   moc_bncs_range_fader_edit.obj
 0001:0005ed5c       ?qt_emit@bncs_enum_edit_style@@UAE_NHPAUQUObject@@@Z 1005fd5c f   moc_bncs_range_fader_edit.obj
 0001:0005ed5c       ?qt_emit@bncs_range_edit_settingsBase@@UAE_NHPAUQUObject@@@Z 1005fd5c f   moc_bncs_range_fader_edit.obj
 0001:0005ed5c       ?qt_emit@bncs_enum_list_editBase@@UAE_NHPAUQUObject@@@Z 1005fd5c f   moc_bncs_range_fader_edit.obj
 0001:0005ed5c       ?qt_emit@bncs_range_updown_editBase@@UAE_NHPAUQUObject@@@Z 1005fd5c f   moc_bncs_range_fader_edit.obj
 0001:0005ed5c       ?qt_emit@bncs_range_fader_editBase@@UAE_NHPAUQUObject@@@Z 1005fd5c f   moc_bncs_range_fader_edit.obj
 0001:0005ed5c       ?qt_emit@bncs_enum_edit_settingsBase@@UAE_NHPAUQUObject@@@Z 1005fd5c f   moc_bncs_range_fader_edit.obj
 0001:0005ed5c       ?qt_emit@bncs_enum_button_editBase@@UAE_NHPAUQUObject@@@Z 1005fd5c f   moc_bncs_range_fader_edit.obj
 0001:0005ed6d       ?className@bncs_range_updown@@UBEPBDXZ 1005fd6d f   moc_bncs_range_updown.obj
 0001:0005edaa       ?staticMetaObject@bncs_range_updown@@SAPAVQMetaObject@@XZ 1005fdaa f   moc_bncs_range_updown.obj
 0001:0005ee20       ?qt_cast@bncs_range_updown@@UAEPAXPBD@Z 1005fe20 f   moc_bncs_range_updown.obj
 0001:0005eeb4       ?qt_invoke@bncs_range_updown@@UAE_NHPAUQUObject@@@Z 1005feb4 f   moc_bncs_range_updown.obj
 0001:0005ef08       ?className@bncs_range_updown_editBase@@UBEPBDXZ 1005ff08 f   moc_bncs_range_updown_edit.obj
 0001:0005ef45       ?tr@bncs_range_updown_editBase@@SA?AVQString@@PBD0@Z 1005ff45 f   moc_bncs_range_updown_edit.obj
 0001:0005ef86       ?staticMetaObject@bncs_range_updown_editBase@@SAPAVQMetaObject@@XZ 1005ff86 f   moc_bncs_range_updown_edit.obj
 0001:0005efd2       ?qt_cast@bncs_range_updown_editBase@@UAEPAXPBD@Z 1005ffd2 f   moc_bncs_range_updown_edit.obj
 0001:0005f00e       ?qt_invoke@bncs_range_updown_editBase@@UAE_NHPAUQUObject@@@Z 1006000e f   moc_bncs_range_updown_edit.obj
 0001:0005f041       ?qt_property@bncs_range_fader_editBase@@UAE_NHHPAVQVariant@@@Z 10060041 f   moc_bncs_range_updown_edit.obj
 0001:0005f041       ?qt_property@bncs_sourcegrid@@UAE_NHHPAVQVariant@@@Z 10060041 f   moc_bncs_range_updown_edit.obj
 0001:0005f041       ?qt_property@bncs_range_button_editBase@@UAE_NHHPAVQVariant@@@Z 10060041 f   moc_bncs_range_updown_edit.obj
 0001:0005f041       ?qt_property@bncs_clock@@UAE_NHHPAVQVariant@@@Z 10060041 f   moc_bncs_range_updown_edit.obj
 0001:0005f041       ?qt_property@bncs_enum_list_editBase@@UAE_NHHPAVQVariant@@@Z 10060041 f   moc_bncs_range_updown_edit.obj
 0001:0005f041       ?qt_property@bncs_keyboard_ctrl@@UAE_NHHPAVQVariant@@@Z 10060041 f   moc_bncs_range_updown_edit.obj
 0001:0005f041       ?qt_property@bncs_lineeditdialogBase@@UAE_NHHPAVQVariant@@@Z 10060041 f   moc_bncs_range_updown_edit.obj
 0001:0005f041       ?qt_property@bncs_control@@UAE_NHHPAVQVariant@@@Z 10060041 f   moc_bncs_range_updown_edit.obj
 0001:0005f041       ?qt_property@bncs_enum_edit_settingsBase@@UAE_NHHPAVQVariant@@@Z 10060041 f   moc_bncs_range_updown_edit.obj
 0001:0005f041       ?qt_property@bncs_range_updown_editBase@@UAE_NHHPAVQVariant@@@Z 10060041 f   moc_bncs_range_updown_edit.obj
 0001:0005f041       ?qt_property@bncs_instance@@UAE_NHHPAVQVariant@@@Z 10060041 f   moc_bncs_range_updown_edit.obj
 0001:0005f041       ?qt_property@bncs_enum_listbutton_editBase@@UAE_NHHPAVQVariant@@@Z 10060041 f   moc_bncs_range_updown_edit.obj
 0001:0005f041       ?qt_property@bncs_range_edit_style@@UAE_NHHPAVQVariant@@@Z 10060041 f   moc_bncs_range_updown_edit.obj
 0001:0005f041       ?qt_property@bncs_line@@UAE_NHHPAVQVariant@@@Z 10060041 f   moc_bncs_range_updown_edit.obj
 0001:0005f041       ?qt_property@bncs_ie@@UAE_NHHPAVQVariant@@@Z 10060041 f   moc_bncs_range_updown_edit.obj
 0001:0005f041       ?qt_property@bncs_rtrDestGrid@@UAE_NHHPAVQVariant@@@Z 10060041 f   moc_bncs_range_updown_edit.obj
 0001:0005f041       ?qt_property@uiHost@@UAE_NHHPAVQVariant@@@Z 10060041 f   moc_bncs_range_updown_edit.obj
 0001:0005f041       ?qt_property@bncs_enum_button_editBase@@UAE_NHHPAVQVariant@@@Z 10060041 f   moc_bncs_range_updown_edit.obj
 0001:0005f041       ?qt_property@bncs_rtrNameGrid@@UAE_NHHPAVQVariant@@@Z 10060041 f   moc_bncs_range_updown_edit.obj
 0001:0005f041       ?qt_property@bncs_enum_edit_style@@UAE_NHHPAVQVariant@@@Z 10060041 f   moc_bncs_range_updown_edit.obj
 0001:0005f041       ?qt_property@bncs_range_edit_settingsBase@@UAE_NHHPAVQVariant@@@Z 10060041 f   moc_bncs_range_updown_edit.obj
 0001:0005f041       ?qt_property@bncs_edittext@@UAE_NHHPAVQVariant@@@Z 10060041 f   moc_bncs_range_updown_edit.obj
 0001:0005f056       ?className@bncs_range_updownbutton_editBase@@UBEPBDXZ 10060056 f   moc_bncs_range_updownbutton_edit.obj
 0001:0005f093       ?tr@bncs_range_updownbutton_editBase@@SA?AVQString@@PBD0@Z 10060093 f   moc_bncs_range_updownbutton_edit.obj
 0001:0005f0d4       ?staticMetaObject@bncs_range_updownbutton_editBase@@SAPAVQMetaObject@@XZ 100600d4 f   moc_bncs_range_updownbutton_edit.obj
 0001:0005f120       ?qt_cast@bncs_range_updownbutton_editBase@@UAEPAXPBD@Z 10060120 f   moc_bncs_range_updownbutton_edit.obj
 0001:0005f15c       ?qt_invoke@bncs_range_updownbutton_editBase@@UAE_NHPAUQUObject@@@Z 1006015c f   moc_bncs_range_updownbutton_edit.obj
 0001:0005f18f       ?qt_emit@bncs_sourcegrideditdlgBase@@UAE_NHPAUQUObject@@@Z 1006018f f   moc_bncs_range_updownbutton_edit.obj
 0001:0005f18f       ?qt_emit@bncs_script_loader_editBase@@UAE_NHPAUQUObject@@@Z 1006018f f   moc_bncs_range_updownbutton_edit.obj
 0001:0005f18f       ?qt_emit@bncs_listbox_editBase@@UAE_NHPAUQUObject@@@Z 1006018f f   moc_bncs_range_updownbutton_edit.obj
 0001:0005f18f       ?qt_emit@bncs_listview_editBase@@UAE_NHPAUQUObject@@@Z 1006018f f   moc_bncs_range_updownbutton_edit.obj
 0001:0005f18f       ?qt_emit@bncs_control_edit_textBase@@UAE_NHPAUQUObject@@@Z 1006018f f   moc_bncs_range_updownbutton_edit.obj
 0001:0005f18f       ?qt_emit@bncs_data_button_editBase@@UAE_NHPAUQUObject@@@Z 1006018f f   moc_bncs_range_updownbutton_edit.obj
 0001:0005f18f       ?qt_emit@uiHostEditDialogBase@@UAE_NHPAUQUObject@@@Z 1006018f f   moc_bncs_range_updownbutton_edit.obj
 0001:0005f18f       ?qt_emit@bncs_enum_linebutton_editBase@@UAE_NHPAUQUObject@@@Z 1006018f f   moc_bncs_range_updownbutton_edit.obj
 0001:0005f18f       ?qt_emit@bncs_rtrDestGridEditDlgBase@@UAE_NHPAUQUObject@@@Z 1006018f f   moc_bncs_range_updownbutton_edit.obj
 0001:0005f18f       ?qt_emit@bncs_editTextDialogBase@@UAE_NHPAUQUObject@@@Z 1006018f f   moc_bncs_range_updownbutton_edit.obj
 0001:0005f18f       ?qt_emit@bncs_skin_button_editBase@@UAE_NHPAUQUObject@@@Z 1006018f f   moc_bncs_range_updownbutton_edit.obj
 0001:0005f18f       ?qt_emit@bncs_config_browserBase@@UAE_NHPAUQUObject@@@Z 1006018f f   moc_bncs_range_updownbutton_edit.obj
 0001:0005f18f       ?qt_emit@bncs_instance_editBase@@UAE_NHPAUQUObject@@@Z 1006018f f   moc_bncs_range_updownbutton_edit.obj
 0001:0005f18f       ?qt_emit@bncs_clock_editBase@@UAE_NHPAUQUObject@@@Z 1006018f f   moc_bncs_range_updownbutton_edit.obj
 0001:0005f18f       ?qt_emit@keyboard_editBase@@UAE_NHPAUQUObject@@@Z 1006018f f   moc_bncs_range_updownbutton_edit.obj
 0001:0005f18f       ?qt_emit@bncs_stylesheet_browserBase@@UAE_NHPAUQUObject@@@Z 1006018f f   moc_bncs_range_updownbutton_edit.obj
 0001:0005f18f       ?qt_emit@bncs_smart_string_edit_settingsBase@@UAE_NHPAUQUObject@@@Z 1006018f f   moc_bncs_range_updownbutton_edit.obj
 0001:0005f18f       ?qt_emit@browseScriptsDialogBase@@UAE_NHPAUQUObject@@@Z 1006018f f   moc_bncs_range_updownbutton_edit.obj
 0001:0005f18f       ?qt_emit@bncs_control_editBase@@UAE_NHPAUQUObject@@@Z 1006018f f   moc_bncs_range_updownbutton_edit.obj
 0001:0005f18f       ?qt_emit@bncs_ie_editBase@@UAE_NHPAUQUObject@@@Z 1006018f f   moc_bncs_range_updownbutton_edit.obj
 0001:0005f18f       ?qt_emit@param_browserBase@@UAE_NHPAUQUObject@@@Z 1006018f f   moc_bncs_range_updownbutton_edit.obj
 0001:0005f18f       ?qt_emit@bncs_smart_string_edit_styleBase@@UAE_NHPAUQUObject@@@Z 1006018f f   moc_bncs_range_updownbutton_edit.obj
 0001:0005f18f       ?qt_emit@bncs_rtrNameGridEditDlgBase@@UAE_NHPAUQUObject@@@Z 1006018f f   moc_bncs_range_updownbutton_edit.obj
 0001:0005f18f       ?qt_emit@bncs_range_updownbutton_editBase@@UAE_NHPAUQUObject@@@Z 1006018f f   moc_bncs_range_updownbutton_edit.obj
 0001:0005f1a0       ?qt_property@bncs_editTextDialogBase@@UAE_NHHPAVQVariant@@@Z 100601a0 f   moc_bncs_range_updownbutton_edit.obj
 0001:0005f1a0       ?qt_property@bncs_config_browserBase@@UAE_NHHPAVQVariant@@@Z 100601a0 f   moc_bncs_range_updownbutton_edit.obj
 0001:0005f1a0       ?qt_property@bncs_stylesheet_browserBase@@UAE_NHHPAVQVariant@@@Z 100601a0 f   moc_bncs_range_updownbutton_edit.obj
 0001:0005f1a0       ?qt_property@bncs_sourcegrideditdlgBase@@UAE_NHHPAVQVariant@@@Z 100601a0 f   moc_bncs_range_updownbutton_edit.obj
 0001:0005f1a0       ?qt_property@bncs_control_editBase@@UAE_NHHPAVQVariant@@@Z 100601a0 f   moc_bncs_range_updownbutton_edit.obj
 0001:0005f1a0       ?qt_property@bncs_rtrNameGridEditDlgBase@@UAE_NHHPAVQVariant@@@Z 100601a0 f   moc_bncs_range_updownbutton_edit.obj
 0001:0005f1a0       ?qt_property@bncs_rtrDestGridEditDlgBase@@UAE_NHHPAVQVariant@@@Z 100601a0 f   moc_bncs_range_updownbutton_edit.obj
 0001:0005f1a0       ?qt_property@bncs_instance_editBase@@UAE_NHHPAVQVariant@@@Z 100601a0 f   moc_bncs_range_updownbutton_edit.obj
 0001:0005f1a0       ?qt_property@bncs_data_button_editBase@@UAE_NHHPAVQVariant@@@Z 100601a0 f   moc_bncs_range_updownbutton_edit.obj
 0001:0005f1a0       ?qt_property@bncs_skin_button_editBase@@UAE_NHHPAVQVariant@@@Z 100601a0 f   moc_bncs_range_updownbutton_edit.obj
 0001:0005f1a0       ?qt_property@bncs_smart_string_edit_styleBase@@UAE_NHHPAVQVariant@@@Z 100601a0 f   moc_bncs_range_updownbutton_edit.obj
 0001:0005f1a0       ?qt_property@bncs_script_loader_editBase@@UAE_NHHPAVQVariant@@@Z 100601a0 f   moc_bncs_range_updownbutton_edit.obj
 0001:0005f1a0       ?qt_property@param_browserBase@@UAE_NHHPAVQVariant@@@Z 100601a0 f   moc_bncs_range_updownbutton_edit.obj
 0001:0005f1a0       ?qt_property@bncs_ie_editBase@@UAE_NHHPAVQVariant@@@Z 100601a0 f   moc_bncs_range_updownbutton_edit.obj
 0001:0005f1a0       ?qt_property@uiHostEditDialogBase@@UAE_NHHPAVQVariant@@@Z 100601a0 f   moc_bncs_range_updownbutton_edit.obj
 0001:0005f1a0       ?qt_property@bncs_enum_linebutton_editBase@@UAE_NHHPAVQVariant@@@Z 100601a0 f   moc_bncs_range_updownbutton_edit.obj
 0001:0005f1a0       ?qt_property@bncs_listview_editBase@@UAE_NHHPAVQVariant@@@Z 100601a0 f   moc_bncs_range_updownbutton_edit.obj
 0001:0005f1a0       ?qt_property@bncs_range_updownbutton_editBase@@UAE_NHHPAVQVariant@@@Z 100601a0 f   moc_bncs_range_updownbutton_edit.obj
 0001:0005f1a0       ?qt_property@browseScriptsDialogBase@@UAE_NHHPAVQVariant@@@Z 100601a0 f   moc_bncs_range_updownbutton_edit.obj
 0001:0005f1a0       ?qt_property@bncs_clock_editBase@@UAE_NHHPAVQVariant@@@Z 100601a0 f   moc_bncs_range_updownbutton_edit.obj
 0001:0005f1a0       ?qt_property@bncs_smart_string_edit_settingsBase@@UAE_NHHPAVQVariant@@@Z 100601a0 f   moc_bncs_range_updownbutton_edit.obj
 0001:0005f1a0       ?qt_property@bncs_control_edit_textBase@@UAE_NHHPAVQVariant@@@Z 100601a0 f   moc_bncs_range_updownbutton_edit.obj
 0001:0005f1a0       ?qt_property@bncs_listbox_editBase@@UAE_NHHPAVQVariant@@@Z 100601a0 f   moc_bncs_range_updownbutton_edit.obj
 0001:0005f1a0       ?qt_property@keyboard_editBase@@UAE_NHHPAVQVariant@@@Z 100601a0 f   moc_bncs_range_updownbutton_edit.obj
 0001:0005f1b5       ?className@bncs_range_updownbutton_edit@@UBEPBDXZ 100601b5 f   moc_bncs_range_updownbutton_editimpl.obj
 0001:0005f1f2       ?staticMetaObject@bncs_range_updownbutton_edit@@SAPAVQMetaObject@@XZ 100601f2 f   moc_bncs_range_updownbutton_editimpl.obj
 0001:0005f23d       ?qt_cast@bncs_range_updownbutton_edit@@UAEPAXPBD@Z 1006023d f   moc_bncs_range_updownbutton_editimpl.obj
 0001:0005f278       ?qt_invoke@bncs_range_updownbutton_edit@@UAE_NHPAUQUObject@@@Z 10060278 f   moc_bncs_range_updownbutton_editimpl.obj
 0001:0005f2a7       ?className@bncs_rtrDestGrid@@UBEPBDXZ 100602a7 f   moc_bncs_rtrDestGrid.obj
 0001:0005f2e4       ?tr@bncs_rtrDestGrid@@SA?AVQString@@PBD0@Z 100602e4 f   moc_bncs_rtrDestGrid.obj
 0001:0005f325       ?trUtf8@bncs_rtrDestGrid@@SA?AVQString@@PBD0@Z 10060325 f   moc_bncs_rtrDestGrid.obj
 0001:0005f366       ?staticMetaObject@bncs_rtrDestGrid@@SAPAVQMetaObject@@XZ 10060366 f   moc_bncs_rtrDestGrid.obj
 0001:0005f499       ?qt_cast@bncs_rtrDestGrid@@UAEPAXPBD@Z 10060499 f   moc_bncs_rtrDestGrid.obj
 0001:0005f52d       ?notify@bncs_rtrDestGrid@@IAEXAAVQString@@@Z 1006052d f   moc_bncs_rtrDestGrid.obj
 0001:0005f5ce       ?qt_invoke@bncs_rtrDestGrid@@UAE_NHPAUQUObject@@@Z 100605ce f   moc_bncs_rtrDestGrid.obj
 0001:0005f632       ?qt_emit@bncs_rtrDestGrid@@UAE_NHPAUQUObject@@@Z 10060632 f   moc_bncs_rtrDestGrid.obj
 0001:0005f669       ?className@bncs_rtrDestGridEditDlgBase@@UBEPBDXZ 10060669 f   moc_bncs_rtrDestGridEditDlg.obj
 0001:0005f6a6       ?tr@bncs_rtrDestGridEditDlgBase@@SA?AVQString@@PBD0@Z 100606a6 f   moc_bncs_rtrDestGridEditDlg.obj
 0001:0005f6e7       ?staticMetaObject@bncs_rtrDestGridEditDlgBase@@SAPAVQMetaObject@@XZ 100606e7 f   moc_bncs_rtrDestGridEditDlg.obj
 0001:0005f733       ?qt_cast@bncs_rtrDestGridEditDlgBase@@UAEPAXPBD@Z 10060733 f   moc_bncs_rtrDestGridEditDlg.obj
 0001:0005f76f       ?qt_invoke@bncs_rtrDestGridEditDlgBase@@UAE_NHPAUQUObject@@@Z 1006076f f   moc_bncs_rtrDestGridEditDlg.obj
 0001:0005f7a2       ?className@bncs_rtrDestGridEditDlg@@UBEPBDXZ 100607a2 f   moc_bncs_rtrDestGridEditDlgImpl.obj
 0001:0005f7df       ?staticMetaObject@bncs_rtrDestGridEditDlg@@SAPAVQMetaObject@@XZ 100607df f   moc_bncs_rtrDestGridEditDlgImpl.obj
 0001:0005f8bd       ?qt_cast@bncs_rtrDestGridEditDlg@@UAEPAXPBD@Z 100608bd f   moc_bncs_rtrDestGridEditDlgImpl.obj
 0001:0005f8f8       ?qt_invoke@bncs_rtrDestGridEditDlg@@UAE_NHPAUQUObject@@@Z 100608f8 f   moc_bncs_rtrDestGridEditDlgImpl.obj
 0001:0005f9a9       ?qt_property@bncs_instance_edit@@UAE_NHHPAVQVariant@@@Z 100609a9 f   moc_bncs_rtrDestGridEditDlgImpl.obj
 0001:0005f9a9       ?qt_property@bncs_config_browser@@UAE_NHHPAVQVariant@@@Z 100609a9 f   moc_bncs_rtrDestGridEditDlgImpl.obj
 0001:0005f9a9       ?qt_property@browseScriptsDialog@@UAE_NHHPAVQVariant@@@Z 100609a9 f   moc_bncs_rtrDestGridEditDlgImpl.obj
 0001:0005f9a9       ?qt_property@bncs_rtrDestGridEditDlg@@UAE_NHHPAVQVariant@@@Z 100609a9 f   moc_bncs_rtrDestGridEditDlgImpl.obj
 0001:0005f9a9       ?qt_property@bncs_ie_edit@@UAE_NHHPAVQVariant@@@Z 100609a9 f   moc_bncs_rtrDestGridEditDlgImpl.obj
 0001:0005f9a9       ?qt_property@bncs_control_edit@@UAE_NHHPAVQVariant@@@Z 100609a9 f   moc_bncs_rtrDestGridEditDlgImpl.obj
 0001:0005f9a9       ?qt_property@bncs_clock_edit@@UAE_NHHPAVQVariant@@@Z 100609a9 f   moc_bncs_rtrDestGridEditDlgImpl.obj
 0001:0005f9a9       ?qt_property@bncs_skin_button_edit@@UAE_NHHPAVQVariant@@@Z 100609a9 f   moc_bncs_rtrDestGridEditDlgImpl.obj
 0001:0005f9a9       ?qt_property@bncs_listbox_edit@@UAE_NHHPAVQVariant@@@Z 100609a9 f   moc_bncs_rtrDestGridEditDlgImpl.obj
 0001:0005f9a9       ?qt_property@bncs_smart_string_edit_settings@@UAE_NHHPAVQVariant@@@Z 100609a9 f   moc_bncs_rtrDestGridEditDlgImpl.obj
 0001:0005f9a9       ?qt_property@bncs_sourcegrideditdlg@@UAE_NHHPAVQVariant@@@Z 100609a9 f   moc_bncs_rtrDestGridEditDlgImpl.obj
 0001:0005f9a9       ?qt_property@uiHostEditDialog@@UAE_NHHPAVQVariant@@@Z 100609a9 f   moc_bncs_rtrDestGridEditDlgImpl.obj
 0001:0005f9a9       ?qt_property@bncs_rtrNameGridEditDlg@@UAE_NHHPAVQVariant@@@Z 100609a9 f   moc_bncs_rtrDestGridEditDlgImpl.obj
 0001:0005f9a9       ?qt_property@bncs_control_edit_text@@UAE_NHHPAVQVariant@@@Z 100609a9 f   moc_bncs_rtrDestGridEditDlgImpl.obj
 0001:0005f9a9       ?qt_property@bncs_stylesheet_browser@@UAE_NHHPAVQVariant@@@Z 100609a9 f   moc_bncs_rtrDestGridEditDlgImpl.obj
 0001:0005f9a9       ?qt_property@bncs_enum_linebutton_edit@@UAE_NHHPAVQVariant@@@Z 100609a9 f   moc_bncs_rtrDestGridEditDlgImpl.obj
 0001:0005f9a9       ?qt_property@bncs_script_loader_editBaseImpl@@UAE_NHHPAVQVariant@@@Z 100609a9 f   moc_bncs_rtrDestGridEditDlgImpl.obj
 0001:0005f9a9       ?qt_property@bncs_editTextDialog@@UAE_NHHPAVQVariant@@@Z 100609a9 f   moc_bncs_rtrDestGridEditDlgImpl.obj
 0001:0005f9a9       ?qt_property@param_browser@@UAE_NHHPAVQVariant@@@Z 100609a9 f   moc_bncs_rtrDestGridEditDlgImpl.obj
 0001:0005f9a9       ?qt_property@bncs_range_updownbutton_edit@@UAE_NHHPAVQVariant@@@Z 100609a9 f   moc_bncs_rtrDestGridEditDlgImpl.obj
 0001:0005f9a9       ?qt_property@bncs_listview_edit@@UAE_NHHPAVQVariant@@@Z 100609a9 f   moc_bncs_rtrDestGridEditDlgImpl.obj
 0001:0005f9a9       ?qt_property@keyboard_edit@@UAE_NHHPAVQVariant@@@Z 100609a9 f   moc_bncs_rtrDestGridEditDlgImpl.obj
 0001:0005f9a9       ?qt_property@bncs_data_button_edit@@UAE_NHHPAVQVariant@@@Z 100609a9 f   moc_bncs_rtrDestGridEditDlgImpl.obj
 0001:0005f9bd       ?className@bncs_rtrNameGrid@@UBEPBDXZ 100609bd f   moc_bncs_rtrNameGrid.obj
 0001:0005f9fa       ?tr@bncs_rtrNameGrid@@SA?AVQString@@PBD0@Z 100609fa f   moc_bncs_rtrNameGrid.obj
 0001:0005fa3b       ?trUtf8@bncs_rtrNameGrid@@SA?AVQString@@PBD0@Z 10060a3b f   moc_bncs_rtrNameGrid.obj
 0001:0005fa7c       ?staticMetaObject@bncs_rtrNameGrid@@SAPAVQMetaObject@@XZ 10060a7c f   moc_bncs_rtrNameGrid.obj
 0001:0005fbaf       ?qt_cast@bncs_rtrNameGrid@@UAEPAXPBD@Z 10060baf f   moc_bncs_rtrNameGrid.obj
 0001:0005fc43       ?notify@bncs_rtrNameGrid@@IAEXAAVQString@@@Z 10060c43 f   moc_bncs_rtrNameGrid.obj
 0001:0005fce4       ?qt_invoke@bncs_rtrNameGrid@@UAE_NHPAUQUObject@@@Z 10060ce4 f   moc_bncs_rtrNameGrid.obj
 0001:0005fd48       ?qt_emit@bncs_rtrNameGrid@@UAE_NHPAUQUObject@@@Z 10060d48 f   moc_bncs_rtrNameGrid.obj
 0001:0005fd7f       ?className@bncs_rtrNameGridEditDlgBase@@UBEPBDXZ 10060d7f f   moc_bncs_rtrNameGridEditDlg.obj
 0001:0005fdbc       ?tr@bncs_rtrNameGridEditDlgBase@@SA?AVQString@@PBD0@Z 10060dbc f   moc_bncs_rtrNameGridEditDlg.obj
 0001:0005fdfd       ?staticMetaObject@bncs_rtrNameGridEditDlgBase@@SAPAVQMetaObject@@XZ 10060dfd f   moc_bncs_rtrNameGridEditDlg.obj
 0001:0005fe49       ?qt_cast@bncs_rtrNameGridEditDlgBase@@UAEPAXPBD@Z 10060e49 f   moc_bncs_rtrNameGridEditDlg.obj
 0001:0005fe85       ?qt_invoke@bncs_rtrNameGridEditDlgBase@@UAE_NHPAUQUObject@@@Z 10060e85 f   moc_bncs_rtrNameGridEditDlg.obj
 0001:0005feb8       ?className@bncs_rtrNameGridEditDlg@@UBEPBDXZ 10060eb8 f   moc_bncs_rtrNameGridEditDlgImpl.obj
 0001:0005fef5       ?staticMetaObject@bncs_rtrNameGridEditDlg@@SAPAVQMetaObject@@XZ 10060ef5 f   moc_bncs_rtrNameGridEditDlgImpl.obj
 0001:0005ff93       ?qt_cast@bncs_rtrNameGridEditDlg@@UAEPAXPBD@Z 10060f93 f   moc_bncs_rtrNameGridEditDlgImpl.obj
 0001:0005ffce       ?qt_invoke@bncs_rtrNameGridEditDlg@@UAE_NHPAUQUObject@@@Z 10060fce f   moc_bncs_rtrNameGridEditDlgImpl.obj
 0001:00060055       ?className@bncs_script_loader@@UBEPBDXZ 10061055 f   moc_bncs_script_loader.obj
 0001:00060092       ?tr@bncs_script_loader@@SA?AVQString@@PBD0@Z 10061092 f   moc_bncs_script_loader.obj
 0001:000600d3       ?trUtf8@bncs_script_loader@@SA?AVQString@@PBD0@Z 100610d3 f   moc_bncs_script_loader.obj
 0001:00060114       ?staticMetaObject@bncs_script_loader@@SAPAVQMetaObject@@XZ 10061114 f   moc_bncs_script_loader.obj
 0001:0006027e       ?qt_cast@bncs_script_loader@@UAEPAXPBD@Z 1006127e f   moc_bncs_script_loader.obj
 0001:00060318       ?qt_invoke@bncs_script_loader@@UAE_NHPAUQUObject@@@Z 10061318 f   moc_bncs_script_loader.obj
 0001:000603ba       ?qt_emit@bncs_script_loader@@UAE_NHPAUQUObject@@@Z 100613ba f   moc_bncs_script_loader.obj
 0001:000603ba       ?qt_emit@bncs_ss_base@@UAE_NHPAUQUObject@@@Z 100613ba f   moc_bncs_script_loader.obj
 0001:000603cb       ?qt_property@bncs_script_loader@@UAE_NHHPAVQVariant@@@Z 100613cb f   moc_bncs_script_loader.obj
 0001:00060487       ?className@bncs_script_loader_editBase@@UBEPBDXZ 10061487 f   moc_bncs_script_loader_edit.obj
 0001:000604c4       ?tr@bncs_script_loader_editBase@@SA?AVQString@@PBD0@Z 100614c4 f   moc_bncs_script_loader_edit.obj
 0001:00060505       ?staticMetaObject@bncs_script_loader_editBase@@SAPAVQMetaObject@@XZ 10061505 f   moc_bncs_script_loader_edit.obj
 0001:00060551       ?qt_cast@bncs_script_loader_editBase@@UAEPAXPBD@Z 10061551 f   moc_bncs_script_loader_edit.obj
 0001:0006058d       ?qt_invoke@bncs_script_loader_editBase@@UAE_NHPAUQUObject@@@Z 1006158d f   moc_bncs_script_loader_edit.obj
 0001:000605c0       ?className@bncs_script_loader_editBaseImpl@@UBEPBDXZ 100615c0 f   moc_bncs_script_loader_editBaseImpl.obj
 0001:000605fd       ?staticMetaObject@bncs_script_loader_editBaseImpl@@SAPAVQMetaObject@@XZ 100615fd f   moc_bncs_script_loader_editBaseImpl.obj
 0001:00060671       ?qt_cast@bncs_script_loader_editBaseImpl@@UAEPAXPBD@Z 10061671 f   moc_bncs_script_loader_editBaseImpl.obj
 0001:000606ac       ?qt_invoke@bncs_script_loader_editBaseImpl@@UAE_NHPAUQUObject@@@Z 100616ac f   moc_bncs_script_loader_editBaseImpl.obj
 0001:0006074b       ?className@bncs_skin_button_editBase@@UBEPBDXZ 1006174b f   moc_bncs_skin_button_edit.obj
 0001:00060788       ?tr@bncs_skin_button_editBase@@SA?AVQString@@PBD0@Z 10061788 f   moc_bncs_skin_button_edit.obj
 0001:000607c9       ?staticMetaObject@bncs_skin_button_editBase@@SAPAVQMetaObject@@XZ 100617c9 f   moc_bncs_skin_button_edit.obj
 0001:00060815       ?qt_cast@bncs_skin_button_editBase@@UAEPAXPBD@Z 10061815 f   moc_bncs_skin_button_edit.obj
 0001:00060851       ?qt_invoke@bncs_skin_button_editBase@@UAE_NHPAUQUObject@@@Z 10061851 f   moc_bncs_skin_button_edit.obj
 0001:00060884       ?className@bncs_skin_button_edit@@UBEPBDXZ 10061884 f   moc_bncs_skin_button_editimpl.obj
 0001:000608c1       ?staticMetaObject@bncs_skin_button_edit@@SAPAVQMetaObject@@XZ 100618c1 f   moc_bncs_skin_button_editimpl.obj
 0001:0006090c       ?qt_cast@bncs_skin_button_edit@@UAEPAXPBD@Z 1006190c f   moc_bncs_skin_button_editimpl.obj
 0001:00060947       ?qt_invoke@bncs_skin_button_edit@@UAE_NHPAUQUObject@@@Z 10061947 f   moc_bncs_skin_button_editimpl.obj
 0001:00060976       ?className@bncs_slider_style@@UBEPBDXZ 10061976 f   moc_bncs_slider_style.obj
 0001:000609b3       ?staticMetaObject@bncs_slider_style@@SAPAVQMetaObject@@XZ 100619b3 f   moc_bncs_slider_style.obj
 0001:000609f9       ?qt_cast@bncs_slider_style@@UAEPAXPBD@Z 100619f9 f   moc_bncs_slider_style.obj
 0001:00060a34       ?qt_invoke@bncs_slider_style@@UAE_NHPAUQUObject@@@Z 10061a34 f   moc_bncs_slider_style.obj
 0001:00060a44       ?qt_emit@bncs_slider_style@@UAE_NHPAUQUObject@@@Z 10061a44 f   moc_bncs_slider_style.obj
 0001:00060a54       ?qt_property@bncs_slider_style@@UAE_NHHPAVQVariant@@@Z 10061a54 f   moc_bncs_slider_style.obj
 0001:00060a68       ?className@bncs_smart_string@@UBEPBDXZ 10061a68 f   moc_bncs_smart_string.obj
 0001:00060aa5       ?tr@bncs_smart_string@@SA?AVQString@@PBD0@Z 10061aa5 f   moc_bncs_smart_string.obj
 0001:00060ae6       ?trUtf8@bncs_smart_string@@SA?AVQString@@PBD0@Z 10061ae6 f   moc_bncs_smart_string.obj
 0001:00060b27       ?staticMetaObject@bncs_smart_string@@SAPAVQMetaObject@@XZ 10061b27 f   moc_bncs_smart_string.obj
 0001:00060c11       ?qt_cast@bncs_smart_string@@UAEPAXPBD@Z 10061c11 f   moc_bncs_smart_string.obj
 0001:00060caa       ?qt_invoke@bncs_smart_string@@UAE_NHPAUQUObject@@@Z 10061caa f   moc_bncs_smart_string.obj
 0001:00060d25       ?className@bncs_smart_string_edit_settingsBase@@UBEPBDXZ 10061d25 f   moc_bncs_smart_string_edit_settings.obj
 0001:00060d62       ?tr@bncs_smart_string_edit_settingsBase@@SA?AVQString@@PBD0@Z 10061d62 f   moc_bncs_smart_string_edit_settings.obj
 0001:00060da3       ?staticMetaObject@bncs_smart_string_edit_settingsBase@@SAPAVQMetaObject@@XZ 10061da3 f   moc_bncs_smart_string_edit_settings.obj
 0001:00060def       ?qt_cast@bncs_smart_string_edit_settingsBase@@UAEPAXPBD@Z 10061def f   moc_bncs_smart_string_edit_settings.obj
 0001:00060e2b       ?qt_invoke@bncs_smart_string_edit_settingsBase@@UAE_NHPAUQUObject@@@Z 10061e2b f   moc_bncs_smart_string_edit_settings.obj
 0001:00060e5e       ?className@bncs_smart_string_edit_settings@@UBEPBDXZ 10061e5e f   moc_bncs_smart_string_edit_settingsimpl.obj
 0001:00060e9b       ?staticMetaObject@bncs_smart_string_edit_settings@@SAPAVQMetaObject@@XZ 10061e9b f   moc_bncs_smart_string_edit_settingsimpl.obj
 0001:00060f39       ?qt_cast@bncs_smart_string_edit_settings@@UAEPAXPBD@Z 10061f39 f   moc_bncs_smart_string_edit_settingsimpl.obj
 0001:00060f74       ?qt_invoke@bncs_smart_string_edit_settings@@UAE_NHPAUQUObject@@@Z 10061f74 f   moc_bncs_smart_string_edit_settingsimpl.obj
 0001:00060fef       ?className@bncs_smart_string_edit_styleBase@@UBEPBDXZ 10061fef f   moc_bncs_smart_string_edit_style.obj
 0001:0006102c       ?tr@bncs_smart_string_edit_styleBase@@SA?AVQString@@PBD0@Z 1006202c f   moc_bncs_smart_string_edit_style.obj
 0001:0006106d       ?staticMetaObject@bncs_smart_string_edit_styleBase@@SAPAVQMetaObject@@XZ 1006206d f   moc_bncs_smart_string_edit_style.obj
 0001:000610b9       ?qt_cast@bncs_smart_string_edit_styleBase@@UAEPAXPBD@Z 100620b9 f   moc_bncs_smart_string_edit_style.obj
 0001:000610f5       ?qt_invoke@bncs_smart_string_edit_styleBase@@UAE_NHPAUQUObject@@@Z 100620f5 f   moc_bncs_smart_string_edit_style.obj
 0001:00061128       ?className@bncs_sourcegrid@@UBEPBDXZ 10062128 f   moc_bncs_sourcegrid.obj
 0001:00061165       ?tr@bncs_sourcegrid@@SA?AVQString@@PBD0@Z 10062165 f   moc_bncs_sourcegrid.obj
 0001:000611a6       ?trUtf8@bncs_sourcegrid@@SA?AVQString@@PBD0@Z 100621a6 f   moc_bncs_sourcegrid.obj
 0001:000611e7       ?staticMetaObject@bncs_sourcegrid@@SAPAVQMetaObject@@XZ 100621e7 f   moc_bncs_sourcegrid.obj
 0001:0006131b       ?qt_cast@bncs_sourcegrid@@UAEPAXPBD@Z 1006231b f   moc_bncs_sourcegrid.obj
 0001:000613af       ?notify@bncs_sourcegrid@@IAEXAAVQString@@@Z 100623af f   moc_bncs_sourcegrid.obj
 0001:00061450       ?qt_invoke@bncs_sourcegrid@@UAE_NHPAUQUObject@@@Z 10062450 f   moc_bncs_sourcegrid.obj
 0001:000614c0       ?qt_emit@bncs_sourcegrid@@UAE_NHPAUQUObject@@@Z 100624c0 f   moc_bncs_sourcegrid.obj
 0001:000614f7       ?className@bncs_sourcegrideditdlgBase@@UBEPBDXZ 100624f7 f   moc_bncs_sourcegrideditdlg.obj
 0001:00061534       ?tr@bncs_sourcegrideditdlgBase@@SA?AVQString@@PBD0@Z 10062534 f   moc_bncs_sourcegrideditdlg.obj
 0001:00061575       ?staticMetaObject@bncs_sourcegrideditdlgBase@@SAPAVQMetaObject@@XZ 10062575 f   moc_bncs_sourcegrideditdlg.obj
 0001:000615c1       ?qt_cast@bncs_sourcegrideditdlgBase@@UAEPAXPBD@Z 100625c1 f   moc_bncs_sourcegrideditdlg.obj
 0001:000615fd       ?qt_invoke@bncs_sourcegrideditdlgBase@@UAE_NHPAUQUObject@@@Z 100625fd f   moc_bncs_sourcegrideditdlg.obj
 0001:00061630       ?className@bncs_sourcegrideditdlg@@UBEPBDXZ 10062630 f   moc_bncs_sourcegrideditimpl.obj
 0001:0006166d       ?staticMetaObject@bncs_sourcegrideditdlg@@SAPAVQMetaObject@@XZ 1006266d f   moc_bncs_sourcegrideditimpl.obj
 0001:000616b8       ?qt_cast@bncs_sourcegrideditdlg@@UAEPAXPBD@Z 100626b8 f   moc_bncs_sourcegrideditimpl.obj
 0001:000616f3       ?qt_invoke@bncs_sourcegrideditdlg@@UAE_NHPAUQUObject@@@Z 100626f3 f   moc_bncs_sourcegrideditimpl.obj
 0001:0006173d       ?className@bncs_ss_base@@UBEPBDXZ 1006273d f   moc_bncs_ss_base.obj
 0001:0006177a       ?tr@bncs_ss_base@@SA?AVQString@@PBD0@Z 1006277a f   moc_bncs_ss_base.obj
 0001:000617bb       ?trUtf8@bncs_ss_base@@SA?AVQString@@PBD0@Z 100627bb f   moc_bncs_ss_base.obj
 0001:000617fc       ?staticMetaObject@bncs_ss_base@@SAPAVQMetaObject@@XZ 100627fc f   moc_bncs_ss_base.obj
 0001:000618de       ?qt_cast@bncs_ss_base@@UAEPAXPBD@Z 100628de f   moc_bncs_ss_base.obj
 0001:0006191a       ?qt_invoke@bncs_ss_base@@UAE_NHPAUQUObject@@@Z 1006291a f   moc_bncs_ss_base.obj
 0001:0006196c       ?qt_property@bncs_ss_base@@UAE_NHHPAVQVariant@@@Z 1006296c f   moc_bncs_ss_base.obj
 0001:00061981       ?className@bncs_stylesheet_browserBase@@UBEPBDXZ 10062981 f   moc_bncs_stylesheet_browser.obj
 0001:000619be       ?tr@bncs_stylesheet_browserBase@@SA?AVQString@@PBD0@Z 100629be f   moc_bncs_stylesheet_browser.obj
 0001:000619ff       ?staticMetaObject@bncs_stylesheet_browserBase@@SAPAVQMetaObject@@XZ 100629ff f   moc_bncs_stylesheet_browser.obj
 0001:00061a4b       ?qt_cast@bncs_stylesheet_browserBase@@UAEPAXPBD@Z 10062a4b f   moc_bncs_stylesheet_browser.obj
 0001:00061a87       ?qt_invoke@bncs_stylesheet_browserBase@@UAE_NHPAUQUObject@@@Z 10062a87 f   moc_bncs_stylesheet_browser.obj
 0001:00061aba       ?className@bncs_stylesheet_browser@@UBEPBDXZ 10062aba f   moc_bncs_stylesheet_browserimpl.obj
 0001:00061af7       ?staticMetaObject@bncs_stylesheet_browser@@SAPAVQMetaObject@@XZ 10062af7 f   moc_bncs_stylesheet_browserimpl.obj
 0001:00061be9       ?qt_cast@bncs_stylesheet_browser@@UAEPAXPBD@Z 10062be9 f   moc_bncs_stylesheet_browserimpl.obj
 0001:00061c24       ?dirty@bncs_stylesheet_browser@@IAEX_N@Z 10062c24 f   moc_bncs_stylesheet_browserimpl.obj
 0001:00061c40       ?qt_invoke@bncs_stylesheet_browser@@UAE_NHPAUQUObject@@@Z 10062c40 f   moc_bncs_stylesheet_browserimpl.obj
 0001:00061d5e       ?qt_emit@bncs_stylesheet_browser@@UAE_NHPAUQUObject@@@Z 10062d5e f   moc_bncs_stylesheet_browserimpl.obj
 0001:00061dcc       ?staticMetaObject@bncs_template@@SAPAVQMetaObject@@XZ 10062dcc f   moc_bncs_template.obj
 0001:00061e67       ?className@browseScriptsDialog@@UBEPBDXZ 10062e67 f   moc_browsescriptsdialog.obj
 0001:00061ea4       ?staticMetaObject@browseScriptsDialog@@SAPAVQMetaObject@@XZ 10062ea4 f   moc_browsescriptsdialog.obj
 0001:00061eea       ?qt_cast@browseScriptsDialog@@UAEPAXPBD@Z 10062eea f   moc_browsescriptsdialog.obj
 0001:00061f25       ?qt_invoke@browseScriptsDialog@@UAE_NHPAUQUObject@@@Z 10062f25 f   moc_browsescriptsdialog.obj
 0001:00061f35       ?className@browseScriptsDialogBase@@UBEPBDXZ 10062f35 f   moc_browsescriptsdialogbase.obj
 0001:00061f72       ?tr@browseScriptsDialogBase@@SA?AVQString@@PBD0@Z 10062f72 f   moc_browsescriptsdialogbase.obj
 0001:00061fb3       ?staticMetaObject@browseScriptsDialogBase@@SAPAVQMetaObject@@XZ 10062fb3 f   moc_browsescriptsdialogbase.obj
 0001:00061fff       ?qt_cast@browseScriptsDialogBase@@UAEPAXPBD@Z 10062fff f   moc_browsescriptsdialogbase.obj
 0001:0006203b       ?qt_invoke@browseScriptsDialogBase@@UAE_NHPAUQUObject@@@Z 1006303b f   moc_browsescriptsdialogbase.obj
 0001:0006206e       ?className@keyboard_editBase@@UBEPBDXZ 1006306e f   moc_keyboard_edit.obj
 0001:000620ab       ?tr@keyboard_editBase@@SA?AVQString@@PBD0@Z 100630ab f   moc_keyboard_edit.obj
 0001:000620ec       ?staticMetaObject@keyboard_editBase@@SAPAVQMetaObject@@XZ 100630ec f   moc_keyboard_edit.obj
 0001:00062138       ?qt_cast@keyboard_editBase@@UAEPAXPBD@Z 10063138 f   moc_keyboard_edit.obj
 0001:00062174       ?qt_invoke@keyboard_editBase@@UAE_NHPAUQUObject@@@Z 10063174 f   moc_keyboard_edit.obj
 0001:000621a7       ?className@keyboard_edit@@UBEPBDXZ 100631a7 f   moc_keyboard_editimpl.obj
 0001:000621e4       ?staticMetaObject@keyboard_edit@@SAPAVQMetaObject@@XZ 100631e4 f   moc_keyboard_editimpl.obj
 0001:00062258       ?qt_cast@keyboard_edit@@UAEPAXPBD@Z 10063258 f   moc_keyboard_editimpl.obj
 0001:00062293       ?qt_invoke@keyboard_edit@@UAE_NHPAUQUObject@@@Z 10063293 f   moc_keyboard_editimpl.obj
 0001:000622e5       ?className@param_browserBase@@UBEPBDXZ 100632e5 f   moc_param_browser.obj
 0001:00062322       ?tr@param_browserBase@@SA?AVQString@@PBD0@Z 10063322 f   moc_param_browser.obj
 0001:00062363       ?staticMetaObject@param_browserBase@@SAPAVQMetaObject@@XZ 10063363 f   moc_param_browser.obj
 0001:000623af       ?qt_cast@param_browserBase@@UAEPAXPBD@Z 100633af f   moc_param_browser.obj
 0001:000623eb       ?qt_invoke@param_browserBase@@UAE_NHPAUQUObject@@@Z 100633eb f   moc_param_browser.obj
 0001:0006241e       ?className@param_browser@@UBEPBDXZ 1006341e f   moc_param_browserimpl.obj
 0001:0006245b       ?staticMetaObject@param_browser@@SAPAVQMetaObject@@XZ 1006345b f   moc_param_browserimpl.obj
 0001:000624a1       ?qt_cast@param_browser@@UAEPAXPBD@Z 100634a1 f   moc_param_browserimpl.obj
 0001:000624dc       ?qt_invoke@param_browser@@UAE_NHPAUQUObject@@@Z 100634dc f   moc_param_browserimpl.obj
 0001:000624ec       ?className@uiHostEditDialogBase@@UBEPBDXZ 100634ec f   moc_uiHostEditdialog.obj
 0001:00062529       ?tr@uiHostEditDialogBase@@SA?AVQString@@PBD0@Z 10063529 f   moc_uiHostEditdialog.obj
 0001:0006256a       ?staticMetaObject@uiHostEditDialogBase@@SAPAVQMetaObject@@XZ 1006356a f   moc_uiHostEditdialog.obj
 0001:000625b6       ?qt_cast@uiHostEditDialogBase@@UAEPAXPBD@Z 100635b6 f   moc_uiHostEditdialog.obj
 0001:000625f2       ?qt_invoke@uiHostEditDialogBase@@UAE_NHPAUQUObject@@@Z 100635f2 f   moc_uiHostEditdialog.obj
 0001:00062625       ??0uiHostEditDialogBase@@QAE@PAVQWidget@@PBD_NI@Z 10063625 f   uiHostEditdialog.obj
 0001:00063040       ?metaObject@uiHostEditDialogBase@@UBEPAVQMetaObject@@XZ 10064040 f i uiHostEditdialog.obj
 0001:00063045       ??_GuiHostEditDialogBase@@UAEPAXI@Z 10064045 f i uiHostEditdialog.obj
 0001:00063045       ??_EuiHostEditDialogBase@@UAEPAXI@Z 10064045 f i uiHostEditdialog.obj
 0001:00063061       ??1uiHostEditDialogBase@@UAE@XZ 10064061 f   uiHostEditdialog.obj
 0001:00063074       ?languageChange@uiHostEditDialogBase@@MAEXXZ 10064074 f   uiHostEditdialog.obj
 0001:00063467       ??_EuiHostEditDialogBase@@WCI@AEPAXI@Z 10064467 f i uiHostEditdialog.obj
 0001:0006346f       ??0bncs_config_browser@@QAE@PAVQWidget@@PBD_NI@Z 1006446f f   bncs_config_browserimpl.obj
 0001:0006384a       ?metaObject@bncs_config_browser@@UBEPAVQMetaObject@@XZ 1006484a f i bncs_config_browserimpl.obj
 0001:0006384f       ??_Ebncs_config_browser@@UAEPAXI@Z 1006484f f i bncs_config_browserimpl.obj
 0001:0006384f       ??_Gbncs_config_browser@@UAEPAXI@Z 1006484f f i bncs_config_browserimpl.obj
 0001:0006386b       ??1bncs_config_browser@@UAE@XZ 1006486b f   bncs_config_browserimpl.obj
 0001:0006387d       ?selectedInstance@bncs_config_browser@@QAE?AVQString@@XZ 1006487d f   bncs_config_browserimpl.obj
 0001:000638b5       ?selectedDevice@bncs_config_browser@@QAE?AVQString@@XZ 100648b5 f   bncs_config_browserimpl.obj
 0001:00063a46       ?selectedOffset@bncs_config_browser@@QAE?AVQString@@XZ 10064a46 f   bncs_config_browserimpl.obj
 0001:00063bd7       ?key@?$QMapIterator@VQString@@VinstanceInfo@@@@QBEABVQString@@XZ 10064bd7 f i bncs_config_browserimpl.obj
 0001:00063bdd       ??_Ebncs_config_browser@@WCI@AEPAXI@Z 10064bdd f i bncs_config_browserimpl.obj
 0001:00063be5       ??0bncs_data_button_edit@@QAE@PAVQWidget@@PBD_NI@Z 10064be5 f   bncs_data_button_editimpl.obj
 0001:00063e6a       ?metaObject@bncs_data_button_edit@@UBEPAVQMetaObject@@XZ 10064e6a f i bncs_data_button_editimpl.obj
 0001:00063e6f       ??_Gbncs_data_button_edit@@UAEPAXI@Z 10064e6f f i bncs_data_button_editimpl.obj
 0001:00063e6f       ??_Ebncs_data_button_edit@@UAEPAXI@Z 10064e6f f i bncs_data_button_editimpl.obj
 0001:00063e8b       ??1bncs_data_button_edit@@UAE@XZ 10064e8b f   bncs_data_button_editimpl.obj
 0001:00063e9d       ?dbDriverChanged@bncs_data_button_edit@@QAEXABVQString@@@Z 10064e9d f   bncs_data_button_editimpl.obj
 0001:00063f19       ?dbDriver_reserveChanged@bncs_data_button_edit@@QAEXABVQString@@@Z 10064f19 f   bncs_data_button_editimpl.obj
 0001:00063f95       ??_Ebncs_data_button_edit@@WCI@AEPAXI@Z 10064f95 f i bncs_data_button_editimpl.obj
 0001:00063f9d       ??0bncs_listview_edit@@QAE@PAVQWidget@@PBD_NI@Z 10064f9d f   bncs_listview_editimpl.obj
 0001:00064796       ?metaObject@bncs_listview_edit@@UBEPAVQMetaObject@@XZ 10065796 f i bncs_listview_editimpl.obj
 0001:0006479b       ??_Gbncs_listview_edit@@UAEPAXI@Z 1006579b f i bncs_listview_editimpl.obj
 0001:0006479b       ??_Ebncs_listview_edit@@UAEPAXI@Z 1006579b f i bncs_listview_editimpl.obj
 0001:000647b7       ??1bncs_listview_edit@@UAE@XZ 100657b7 f   bncs_listview_editimpl.obj
 0001:0006480e       ?showColourBrowser@bncs_listview_edit@@QAEXXZ 1006580e f   bncs_listview_editimpl.obj
 0001:0006495d       ?showStyleBrowser@bncs_listview_edit@@QAEXXZ 1006595d f   bncs_listview_editimpl.obj
 0001:000649f2       ?showStyleHeaderBrowser@bncs_listview_edit@@QAEXXZ 100659f2 f   bncs_listview_editimpl.obj
 0001:00064a87       ?styleChanged@bncs_listview_edit@@QAEXABVQString@@@Z 10065a87 f   bncs_listview_editimpl.obj
 0001:00064c88       ?help@bncs_listview_edit@@QAEXXZ 10065c88 f   bncs_listview_editimpl.obj
 0001:00064cc8       ?addRow@bncs_listview_edit@@QAEXXZ 10065cc8 f   bncs_listview_editimpl.obj
 0001:00064dbd       ?removeRow@bncs_listview_edit@@QAEXXZ 10065dbd f   bncs_listview_editimpl.obj
 0001:00064de9       ?moveRowUp@bncs_listview_edit@@QAEXXZ 10065de9 f   bncs_listview_editimpl.obj
 0001:00064eb3       ?moveRowDown@bncs_listview_edit@@QAEXXZ 10065eb3 f   bncs_listview_editimpl.obj
 0001:00064f07       ?addColumn@bncs_listview_edit@@QAEXXZ 10065f07 f   bncs_listview_editimpl.obj
 0001:00065025       ?renameColumn@bncs_listview_edit@@QAEXABVQString@@@Z 10066025 f   bncs_listview_editimpl.obj
 0001:00065056       ?removeColumn@bncs_listview_edit@@QAEXXZ 10066056 f   bncs_listview_editimpl.obj
 0001:00065168       ?moveColumnLeft@bncs_listview_edit@@QAEXXZ 10066168 f   bncs_listview_editimpl.obj
 0001:000651d9       ?moveColumnRight@bncs_listview_edit@@QAEXXZ 100661d9 f   bncs_listview_editimpl.obj
 0001:00065259       ?setDefaultColumnWidth@bncs_listview_edit@@QAEXXZ 10066259 f   bncs_listview_editimpl.obj
 0001:000652a5       ?setColumnWidth@bncs_listview_edit@@QAEXABVQString@@@Z 100662a5 f   bncs_listview_editimpl.obj
 0001:00065361       ?changeColumnSize@bncs_listview_edit@@QAEXHHH@Z 10066361 f   bncs_listview_editimpl.obj
 0001:000653f6       ?doubleClickColumn@bncs_listview_edit@@QAEXH@Z 100663f6 f   bncs_listview_editimpl.obj
 0001:00065444       ?itemClicked@bncs_listview_edit@@QAEXH@Z 10066444 f   bncs_listview_editimpl.obj
 0001:000654b3       ?itemClicked@bncs_listview_edit@@QAEXPAVQListViewItem@@ABVQPoint@@H@Z 100664b3 f   bncs_listview_editimpl.obj
 0001:0006553a       ?columnSelected@bncs_listview_edit@@AAEXH@Z 1006653a f   bncs_listview_editimpl.obj
 0001:000656e9       ?enableColumnControls@bncs_listview_edit@@AAEX_N@Z 100666e9 f   bncs_listview_editimpl.obj
 0001:0006585e       ?setAlignment@bncs_listview_edit@@QAEXXZ 1006685e f   bncs_listview_editimpl.obj
 0001:00065a76       ??0VisEdListViewItem@@QAE@PAVbncs_listview_edit@@PAVQListView@@PAVQListViewItem@@@Z 10066a76 f   bncs_listview_editimpl.obj
 0001:00065a9a       ??_EVisEdListViewItem@@UAEPAXI@Z 10066a9a f i bncs_listview_editimpl.obj
 0001:00065a9a       ??_EBncsListViewItem@@UAEPAXI@Z 10066a9a f i bncs_listview_editimpl.obj
 0001:00065a9a       ??_GBncsListViewItem@@UAEPAXI@Z 10066a9a f i bncs_listview_editimpl.obj
 0001:00065a9a       ??_GVisEdListViewItem@@UAEPAXI@Z 10066a9a f i bncs_listview_editimpl.obj
 0001:00065ab6       ??1BncsListViewItem@@UAE@XZ 10066ab6 f i bncs_listview_editimpl.obj
 0001:00065ab6       ??1VisEdListViewItem@@UAE@XZ 10066ab6 f i bncs_listview_editimpl.obj
 0001:00065abc       ??0VisEdListViewItem@@QAE@PAVbncs_listview_edit@@PAVQListView@@PBV2@PBVQListViewItem@@@Z 10066abc f   bncs_listview_editimpl.obj
 0001:00065b5a       ?paintCell@VisEdListViewItem@@UAEXPAVQPainter@@ABVQColorGroup@@HHH@Z 10066b5a f   bncs_listview_editimpl.obj
 0001:00065c31       ??_Ebncs_listview_edit@@WCI@AEPAXI@Z 10066c31 f i bncs_listview_editimpl.obj
 0001:00065c39       ??0bncs_skin_button_edit@@QAE@PAVQWidget@@PBD_NI@Z 10066c39 f   bncs_skin_button_editimpl.obj
 0001:00065c97       ?metaObject@bncs_skin_button_edit@@UBEPAVQMetaObject@@XZ 10066c97 f i bncs_skin_button_editimpl.obj
 0001:00065c9c       ??_Ebncs_skin_button_edit@@UAEPAXI@Z 10066c9c f i bncs_skin_button_editimpl.obj
 0001:00065c9c       ??_Gbncs_skin_button_edit@@UAEPAXI@Z 10066c9c f i bncs_skin_button_editimpl.obj
 0001:00065cb8       ??1bncs_skin_button_edit@@UAE@XZ 10066cb8 f   bncs_skin_button_editimpl.obj
 0001:00065cca       ?showStateBrowser@bncs_skin_button_edit@@QAEXXZ 10066cca f   bncs_skin_button_editimpl.obj
 0001:00065d5c       ?addChildWidget@bncs_skin_button_edit@@QAEXPAVQWidget@@@Z 10066d5c f   bncs_skin_button_editimpl.obj
 0001:00065d75       ?getMainWidget@bncs_skin_button_edit@@QAEPAVQWidget@@XZ 10066d75 f   bncs_skin_button_editimpl.obj
 0001:00065d81       ??_Ebncs_skin_button_edit@@WCI@AEPAXI@Z 10066d81 f i bncs_skin_button_editimpl.obj
 0001:00065d89       ??0bncs_stylesheet_browser@@QAE@VQString@@PAVQWidget@@PBD_NI@Z 10066d89 f   bncs_stylesheet_browserimpl.obj
 0001:000666a9       ?metaObject@bncs_stylesheet_browser@@UBEPAVQMetaObject@@XZ 100676a9 f i bncs_stylesheet_browserimpl.obj
 0001:000666ae       ??_Ebncs_stylesheet_browser@@UAEPAXI@Z 100676ae f i bncs_stylesheet_browserimpl.obj
 0001:000666ae       ??_Gbncs_stylesheet_browser@@UAEPAXI@Z 100676ae f i bncs_stylesheet_browserimpl.obj
 0001:000666ca       ??1bncs_stylesheet_browser@@UAE@XZ 100676ca f   bncs_stylesheet_browserimpl.obj
 0001:000667b9       ?selectionChanged@bncs_stylesheet_browser@@QAEXPAVQListViewItem@@@Z 100677b9 f   bncs_stylesheet_browserimpl.obj
 0001:0006686f       ?selectedstyle@bncs_stylesheet_browser@@QAE?AVQString@@XZ 1006786f f   bncs_stylesheet_browserimpl.obj
 0001:000668aa       ?load@bncs_stylesheet_browser@@QAEXXZ 100678aa f   bncs_stylesheet_browserimpl.obj
 0001:00066c2e       ?filter_select@bncs_stylesheet_browser@@QAEXH@Z 10067c2e f   bncs_stylesheet_browserimpl.obj
 0001:00066c71       ?defaultSettings@bncs_stylesheet_browser@@QAEXXZ 10067c71 f   bncs_stylesheet_browserimpl.obj
 0001:00066d96       ?populateDialog@bncs_stylesheet_browser@@AAEXVstyleentry@@@Z 10067d96 f   bncs_stylesheet_browserimpl.obj
 0001:0006768f       ?reloadStyleObject@bncs_stylesheet_browser@@QAEXXZ 1006868f f   bncs_stylesheet_browserimpl.obj
 0001:0006802a       ?updatePreview@bncs_stylesheet_browser@@QAEXVQString@@@Z 1006902a f   bncs_stylesheet_browserimpl.obj
 0001:0006826a       ?setFieldsForNewStyle@bncs_stylesheet_browser@@AAEXXZ 1006926a f   bncs_stylesheet_browserimpl.obj
 0001:000683e3       ?newPressedTimeout@bncs_stylesheet_browser@@QAEXXZ 100693e3 f   bncs_stylesheet_browserimpl.obj
 0001:00068416       ?markDirty@bncs_stylesheet_browser@@QAEXXZ 10069416 f   bncs_stylesheet_browserimpl.obj
 0001:00068425       ?newReleased@bncs_stylesheet_browser@@QAEXXZ 10069425 f   bncs_stylesheet_browserimpl.obj
 0001:000686ab       ?deleteReleased@bncs_stylesheet_browser@@QAEXXZ 100696ab f   bncs_stylesheet_browserimpl.obj
 0001:00068781       ?editReleased@bncs_stylesheet_browser@@QAEXXZ 10069781 f   bncs_stylesheet_browserimpl.obj
 0001:000688e6       ?saveEnabled@bncs_stylesheet_browser@@QAEX_N@Z 100698e6 f   bncs_stylesheet_browserimpl.obj
 0001:00068940       ?applyReleased@bncs_stylesheet_browser@@QAEXXZ 10069940 f   bncs_stylesheet_browserimpl.obj
 0001:0006897e       ?saveReleased@bncs_stylesheet_browser@@QAEXXZ 1006997e f   bncs_stylesheet_browserimpl.obj
 0001:00068aa6       ?saveAsReleased@bncs_stylesheet_browser@@QAEXXZ 10069aa6 f   bncs_stylesheet_browserimpl.obj
 0001:00068e4a       ?cancelReleased@bncs_stylesheet_browser@@QAEXXZ 10069e4a f   bncs_stylesheet_browserimpl.obj
 0001:00068f3c       ?backgroundColourPicker@bncs_stylesheet_browser@@QAEXXZ 10069f3c f   bncs_stylesheet_browserimpl.obj
 0001:00068f49       ?textColourPicker@bncs_stylesheet_browser@@QAEXXZ 10069f49 f   bncs_stylesheet_browserimpl.obj
 0001:00068f56       ?filterMiscText@bncs_stylesheet_browser@@QAE?AVQString@@V2@@Z 10069f56 f   bncs_stylesheet_browserimpl.obj
 0001:00069411       ?colourPicker@bncs_stylesheet_browser@@AAEXAAVQColor@@@Z 1006a411 f   bncs_stylesheet_browserimpl.obj
 0001:0006944b       ?closeEvent@bncs_stylesheet_browser@@MAEXPAVQCloseEvent@@@Z 1006a44b f   bncs_stylesheet_browserimpl.obj
 0001:000694da       ?key@?$QMapIterator@VQString@@Vstyleentry@@@@QBEABVQString@@XZ 1006a4da f i bncs_stylesheet_browserimpl.obj
 0001:000694e0       ??_Ebncs_stylesheet_browser@@WCI@AEPAXI@Z 1006a4e0 f i bncs_stylesheet_browserimpl.obj
 0001:000694e8       ??0browseScriptsDialogBase@@QAE@PAVQWidget@@PBD_NI@Z 1006a4e8 f   browsescriptsdialogbase.obj
 0001:00069821       ?metaObject@browseScriptsDialogBase@@UBEPAVQMetaObject@@XZ 1006a821 f i browsescriptsdialogbase.obj
 0001:00069826       ??_EbrowseScriptsDialogBase@@UAEPAXI@Z 1006a826 f i browsescriptsdialogbase.obj
 0001:00069826       ??_GbrowseScriptsDialogBase@@UAEPAXI@Z 1006a826 f i browsescriptsdialogbase.obj
 0001:00069842       ??1browseScriptsDialogBase@@UAE@XZ 1006a842 f   browsescriptsdialogbase.obj
 0001:00069855       ?languageChange@browseScriptsDialogBase@@MAEXXZ 1006a855 f   browsescriptsdialogbase.obj
 0001:000699cf       ??_EbrowseScriptsDialogBase@@WCI@AEPAXI@Z 1006a9cf f i browsescriptsdialogbase.obj
 0001:000699d7       ??0keyboard_editBase@@QAE@PAVQWidget@@PBD_NI@Z 1006a9d7 f   keyboard_edit.obj
 0001:0006ba26       ?metaObject@keyboard_editBase@@UBEPAVQMetaObject@@XZ 1006ca26 f i keyboard_edit.obj
 0001:0006ba2b       ??_Ekeyboard_editBase@@UAEPAXI@Z 1006ca2b f i keyboard_edit.obj
 0001:0006ba2b       ??_Gkeyboard_editBase@@UAEPAXI@Z 1006ca2b f i keyboard_edit.obj
 0001:0006ba47       ??1keyboard_editBase@@UAE@XZ 1006ca47 f   keyboard_edit.obj
 0001:0006ba5a       ?languageChange@keyboard_editBase@@MAEXXZ 1006ca5a f   keyboard_edit.obj
 0001:0006c47a       ??_Ekeyboard_editBase@@WCI@AEPAXI@Z 1006d47a f i keyboard_edit.obj
 0001:0006c482       ??0keyboard_edit@@QAE@PAVQWidget@@PBD_NI@Z 1006d482 f   keyboard_editimpl.obj
 0001:0006c509       ?metaObject@keyboard_edit@@UBEPAVQMetaObject@@XZ 1006d509 f i keyboard_editimpl.obj
 0001:0006c50e       ??_Ekeyboard_edit@@UAEPAXI@Z 1006d50e f i keyboard_editimpl.obj
 0001:0006c50e       ??_Gkeyboard_edit@@UAEPAXI@Z 1006d50e f i keyboard_editimpl.obj
 0001:0006c52a       ??1keyboard_edit@@UAE@XZ   1006d52a f   keyboard_editimpl.obj
 0001:0006c53c       ?enableNumpadSettings@keyboard_edit@@IAEX_N@Z 1006d53c f   keyboard_editimpl.obj
 0001:0006c59d       ?showStyleBrowser@keyboard_edit@@IAEXXZ 1006d59d f   keyboard_editimpl.obj
 0001:0006c632       ?help@keyboard_edit@@IAEXXZ 1006d632 f   keyboard_editimpl.obj
 0001:0006c672       ??_Ekeyboard_edit@@WCI@AEPAXI@Z 1006d672 f i keyboard_editimpl.obj
 0001:0006c67a       ??0param_browserBase@@QAE@PAVQWidget@@PBD_NI@Z 1006d67a f   param_browser.obj
 0001:0006ca51       ?metaObject@param_browserBase@@UBEPAVQMetaObject@@XZ 1006da51 f i param_browser.obj
 0001:0006ca56       ??_Eparam_browserBase@@UAEPAXI@Z 1006da56 f i param_browser.obj
 0001:0006ca56       ??_Gparam_browserBase@@UAEPAXI@Z 1006da56 f i param_browser.obj
 0001:0006ca72       ??1param_browserBase@@UAE@XZ 1006da72 f   param_browser.obj
 0001:0006ca85       ?languageChange@param_browserBase@@MAEXXZ 1006da85 f   param_browser.obj
 0001:0006cc8c       ??_Eparam_browserBase@@WCI@AEPAXI@Z 1006dc8c f i param_browser.obj
 0001:0006cc94       ??0bncs_rtrDestGrid@@QAE@PAVQWidget@@PBD@Z 1006dc94 f   bncs_rtrDestGrid.obj
 0001:0006ce44       ??1bncs_rtrDestGrid@@UAE@XZ 1006de44 f   bncs_rtrDestGrid.obj
 0001:0006cfe4       ?cccInfoRevertive@bncs_rtrDestGrid@@MAEXHHABV?$basic_string@DU?$char_traits@D@std@@V?$allocator@D@2@@std@@@Z 1006dfe4 f   bncs_rtrDestGrid.obj
 0001:0006d20e       ?cccRtrRevertive@bncs_rtrDestGrid@@MAEXHHH@Z 1006e20e f   bncs_rtrDestGrid.obj
 0001:0006d4c6       ?setCaption@bncs_rtrDestGrid@@UAEXABVQString@@@Z 1006e4c6 f   bncs_rtrDestGrid.obj
 0001:0006f4ac       ?doEmulateButton@bncs_rtrDestGrid@@AAEXXZ 100704ac f   bncs_rtrDestGrid.obj
 0001:0006f589       ?edit@bncs_rtrDestGrid@@QAEXPA_N0@Z 10070589 f   bncs_rtrDestGrid.obj
 0001:00070ba3       ?defaultvalues@bncs_rtrDestGrid@@AAEXXZ 10071ba3 f   bncs_rtrDestGrid.obj
 0001:00070cf6       ?buildGrid@bncs_rtrDestGrid@@AAEXXZ 10071cf6 f   bncs_rtrDestGrid.obj
 0001:000714b4       ?resizeEvent@bncs_rtrDestGrid@@UAEXPAVQResizeEvent@@@Z 100724b4 f   bncs_rtrDestGrid.obj
 0001:000714d7       ?notify_in@bncs_rtrDestGrid@@QAEXAAVQString@@@Z 100724d7 f   bncs_rtrDestGrid.obj
 0001:0007167c       ?buttonReleased@bncs_rtrDestGrid@@AAEXABVQString@@0@Z 1007267c f   bncs_rtrDestGrid.obj
 0001:00071ab5       ?writeNames@bncs_rtrDestGrid@@AAEXABVQString@@@Z 10072ab5 f   bncs_rtrDestGrid.obj
 0001:0007218c       ?setHighlight@bncs_rtrDestGrid@@AAEXH@Z 1007318c f   bncs_rtrDestGrid.obj
 0001:000722d4       ?startUp@bncs_rtrDestGrid@@EAEXXZ 100732d4 f   bncs_rtrDestGrid.obj
 0001:00072303       ?setBNCSControl@bncs_rtrDestGrid@@AAEPAVbncs_control@@ABVQString@@0@Z 10073303 f   bncs_rtrDestGrid.obj
 0001:0007233b       ?nameToInt@bncs_rtrDestGrid@@AAEHPBD@Z 1007333b f   bncs_rtrDestGrid.obj
 0001:000723e3       ?clearLabels@bncs_rtrDestGrid@@AAEXXZ 100733e3 f   bncs_rtrDestGrid.obj
 0001:000724b4       ?showStyleBrowser@bncs_rtrDestGrid@@QAEXPA_NABVQString@@@Z 100734b4 f   bncs_rtrDestGrid.obj
 0001:00072591       ?cccDatabaseChange@bncs_rtrDestGrid@@MAEXHHH@Z 10073591 f   bncs_rtrDestGrid.obj
 0001:0007273d       ?route@bncs_rtrDestGrid@@AAEXHHHPBD@Z 1007373d f   bncs_rtrDestGrid.obj
 0001:000728c0       ?begin@?$QMapPrivate@HH@@QAE?AV?$QMapIterator@HH@@XZ 100738c0 f i bncs_rtrDestGrid.obj
 0001:000728c0       ?begin@?$QMapPrivate@HVvalidState@@@@QAE?AV?$QMapIterator@HVvalidState@@@@XZ 100738c0 f i bncs_rtrDestGrid.obj
 0001:000728ce       ?find@?$QMapPrivate@H_N@@QBE?AV?$QMapConstIterator@H_N@@ABH@Z 100738ce f i bncs_rtrDestGrid.obj
 0001:000728ce       ?find@?$QMapPrivate@HH@@QBE?AV?$QMapConstIterator@HH@@ABH@Z 100738ce f i bncs_rtrDestGrid.obj
 0001:00072912       ?insertSingle@?$QMapPrivate@HH@@QAE?AV?$QMapIterator@HH@@ABH@Z 10073912 f i bncs_rtrDestGrid.obj
 0001:0007298a       ?insert@?$QMapPrivate@HH@@QAE?AV?$QMapIterator@HH@@PAUQMapNodeBase@@0ABH@Z 1007398a f i bncs_rtrDestGrid.obj
 0001:00072a0e       ??0bncs_rtrDestGridEditDlg@@QAE@PAVQWidget@@PBD_NI@Z 10073a0e f   bncs_rtrDestGridEditDlgImpl.obj
 0001:00072b27       ?metaObject@bncs_rtrDestGridEditDlg@@UBEPAVQMetaObject@@XZ 10073b27 f i bncs_rtrDestGridEditDlgImpl.obj
 0001:00072b2c       ??_Ebncs_rtrDestGridEditDlg@@UAEPAXI@Z 10073b2c f i bncs_rtrDestGridEditDlgImpl.obj
 0001:00072b2c       ??_Gbncs_rtrDestGridEditDlg@@UAEPAXI@Z 10073b2c f i bncs_rtrDestGridEditDlgImpl.obj
 0001:00072b48       ??1bncs_rtrDestGridEditDlg@@UAE@XZ 10073b48 f   bncs_rtrDestGridEditDlgImpl.obj
 0001:00072b5a       ?showStyleBrowser@bncs_rtrDestGridEditDlg@@QAEXXZ 10073b5a f   bncs_rtrDestGridEditDlgImpl.obj
 0001:00072ca1       ?showStateBrowser@bncs_rtrDestGridEditDlg@@QAEXXZ 10073ca1 f   bncs_rtrDestGridEditDlgImpl.obj
 0001:00072e50       ?showInstanceBrowser@bncs_rtrDestGridEditDlg@@QAEXXZ 10073e50 f   bncs_rtrDestGridEditDlgImpl.obj
 0001:00072f8a       ?help@bncs_rtrDestGridEditDlg@@QAEXXZ 10073f8a f   bncs_rtrDestGridEditDlgImpl.obj
 0001:00072fca       ?instanceTextChanged@bncs_rtrDestGridEditDlg@@QAEXABVQString@@@Z 10073fca f   bncs_rtrDestGridEditDlgImpl.obj
 0001:00073043       ?instanceLockTextChanged@bncs_rtrDestGridEditDlg@@QAEXABVQString@@@Z 10074043 f   bncs_rtrDestGridEditDlgImpl.obj
 0001:000730bc       ?manualMappingTextChanged@bncs_rtrDestGridEditDlg@@QAEXABVQString@@@Z 100740bc f   bncs_rtrDestGridEditDlgImpl.obj
 0001:00073107       ?manualPixmapTextChanged@bncs_rtrDestGridEditDlg@@QAEXABVQString@@@Z 10074107 f   bncs_rtrDestGridEditDlgImpl.obj
 0001:00073133       ??_Ebncs_rtrDestGridEditDlg@@WCI@AEPAXI@Z 10074133 f i bncs_rtrDestGridEditDlgImpl.obj
 0001:0007313b       ??0bncs_rtrNameGrid@@QAE@PAVQWidget@@PBD@Z 1007413b f   bncs_rtrNameGrid.obj
 0001:0007324b       ??1bncs_rtrNameGrid@@UAE@XZ 1007424b f   bncs_rtrNameGrid.obj
 0001:0007334b       ?setCaption@bncs_rtrNameGrid@@UAEXABVQString@@@Z 1007434b f   bncs_rtrNameGrid.obj
 0001:0007502d       ?doEmulateButton@bncs_rtrNameGrid@@AAEXXZ 1007602d f   bncs_rtrNameGrid.obj
 0001:00075039       ?edit@bncs_rtrNameGrid@@QAEXPA_N0@Z 10076039 f   bncs_rtrNameGrid.obj
 0001:00075ff6       ?defaultvalues@bncs_rtrNameGrid@@AAEXXZ 10076ff6 f   bncs_rtrNameGrid.obj
 0001:000760ec       ?buildGrid@bncs_rtrNameGrid@@AAEXXZ 100770ec f   bncs_rtrNameGrid.obj
 0001:000764d7       ?resizeEvent@bncs_rtrNameGrid@@UAEXPAVQResizeEvent@@@Z 100774d7 f   bncs_rtrNameGrid.obj
 0001:000764fa       ?notify_in@bncs_rtrNameGrid@@QAEXAAVQString@@@Z 100774fa f   bncs_rtrNameGrid.obj
 0001:0007660c       ?buttonReleased@bncs_rtrNameGrid@@AAEXH@Z 1007760c f   bncs_rtrNameGrid.obj
 0001:0007699f       ?writeNames@bncs_rtrNameGrid@@AAEXXZ 1007799f f   bncs_rtrNameGrid.obj
 0001:00076e34       ?setHighlight@bncs_rtrNameGrid@@AAEXH@Z 10077e34 f   bncs_rtrNameGrid.obj
 0001:00076fe8       ?timerEvent@bncs_rtrNameGrid@@EAEXPAVQTimerEvent@@@Z 10077fe8 f   bncs_rtrNameGrid.obj
 0001:00076fe8       ?timerEvent@bncs_rtrDestGrid@@EAEXPAVQTimerEvent@@@Z 10077fe8 f   bncs_rtrNameGrid.obj
 0001:00076fe8       ?timerEvent@bncs_sourcegrid@@EAEXPAVQTimerEvent@@@Z 10077fe8 f   bncs_rtrNameGrid.obj
 0001:0007700d       ?startUp@bncs_rtrNameGrid@@EAEXXZ 1007800d f   bncs_rtrNameGrid.obj
 0001:0007703a       ?setBNCSControl@bncs_rtrNameGrid@@AAEPAVbncs_control@@ABVQString@@0@Z 1007803a f   bncs_rtrNameGrid.obj
 0001:00077072       ?nameToInt@bncs_rtrNameGrid@@AAEHPBD@Z 10078072 f   bncs_rtrNameGrid.obj
 0001:0007711a       ?clearLabels@bncs_rtrNameGrid@@AAEXXZ 1007811a f   bncs_rtrNameGrid.obj
 0001:000771eb       ?showStyleBrowser@bncs_rtrNameGrid@@QAEXPA_NABVQString@@@Z 100781eb f   bncs_rtrNameGrid.obj
 0001:000772c8       ?cccDatabaseChange@bncs_rtrNameGrid@@MAEXHHH@Z 100782c8 f   bncs_rtrNameGrid.obj
 0001:000774c5       ?updateButtonEnable@bncs_rtrNameGrid@@AAEXXZ 100784c5 f   bncs_rtrNameGrid.obj
 0001:000775c7       ??0bncs_rtrNameGridEditDlg@@QAE@PAVQWidget@@PBD_NI@Z 100785c7 f   bncs_rtrNameGridEditDlgImpl.obj
 0001:000776b6       ?metaObject@bncs_rtrNameGridEditDlg@@UBEPAVQMetaObject@@XZ 100786b6 f i bncs_rtrNameGridEditDlgImpl.obj
 0001:000776bb       ??_Ebncs_rtrNameGridEditDlg@@UAEPAXI@Z 100786bb f i bncs_rtrNameGridEditDlgImpl.obj
 0001:000776bb       ??_Gbncs_rtrNameGridEditDlg@@UAEPAXI@Z 100786bb f i bncs_rtrNameGridEditDlgImpl.obj
 0001:000776d7       ??1bncs_rtrNameGridEditDlg@@UAE@XZ 100786d7 f   bncs_rtrNameGridEditDlgImpl.obj
 0001:000776e9       ?showStyleBrowser@bncs_rtrNameGridEditDlg@@QAEXXZ 100786e9 f   bncs_rtrNameGridEditDlgImpl.obj
 0001:00077830       ?showStateBrowser@bncs_rtrNameGridEditDlg@@QAEXXZ 10078830 f   bncs_rtrNameGridEditDlgImpl.obj
 0001:00077977       ?showInstanceBrowserNames@bncs_rtrNameGridEditDlg@@QAEXXZ 10078977 f   bncs_rtrNameGridEditDlgImpl.obj
 0001:000779fb       ?showInstanceBrowserMap@bncs_rtrNameGridEditDlg@@QAEXXZ 100789fb f   bncs_rtrNameGridEditDlgImpl.obj
 0001:00077a7f       ?help@bncs_rtrNameGridEditDlg@@QAEXXZ 10078a7f f   bncs_rtrNameGridEditDlgImpl.obj
 0001:00077abf       ?instanceTextChangedNames@bncs_rtrNameGridEditDlg@@QAEXABVQString@@@Z 10078abf f   bncs_rtrNameGridEditDlgImpl.obj
 0001:00077bc5       ?instanceTextChangedMap@bncs_rtrNameGridEditDlg@@QAEXABVQString@@@Z 10078bc5 f   bncs_rtrNameGridEditDlgImpl.obj
 0001:00077c45       ??_Ebncs_rtrNameGridEditDlg@@WCI@AEPAXI@Z 10078c45 f i bncs_rtrNameGridEditDlgImpl.obj
 0001:00077c4d       ??0bncs_enum@@QAE@PAVQWidget@@PBDI@Z 10078c4d f   bncs_enum.obj
 0001:00077d41       ??1bncs_enum@@UAE@XZ       10078d41 f   bncs_enum.obj
 0001:00077e41       ?cccInfoRevertive@bncs_enum@@EAEXHHABV?$basic_string@DU?$char_traits@D@std@@V?$allocator@D@2@@std@@@Z 10078e41 f   bncs_enum.obj
 0001:00077e96       ?cccRtrRevertive@bncs_enum@@EAEXHHH@Z 10078e96 f   bncs_enum.obj
 0001:00077f03       ?cccGpiRevertive@bncs_enum@@EAEXHH_N@Z 10078f03 f   bncs_enum.obj
 0001:00077f72       ?handleRevertive@bncs_enum@@AAEXABVQString@@@Z 10078f72 f   bncs_enum.obj
 0001:00078055       ?setCaption@bncs_enum@@UAEXABVQString@@@Z 10079055 f   bncs_enum.obj
 0001:00079649       ?setValue@bncs_enum@@QAEXH@Z 1007a649 f   bncs_enum.obj
 0001:000796ba       ?defaultValues@bncs_enum@@EAEXXZ 1007a6ba f   bncs_enum.obj
 0001:0007976d       ?outputValue@bncs_enum@@QAEXXZ 1007a76d f   bncs_enum.obj
 0001:00079887       ?createHelper@bncs_enum@@UAEPAVbncs_skin_base@@PAVbncs_ss_base@@PBD@Z 1007a887 f   bncs_enum.obj
 0001:00079a35       ?timerEvent@bncs_enum@@UAEXPAVQTimerEvent@@@Z 1007aa35 f   bncs_enum.obj
 0001:00079a7c       ?startUp@bncs_enum@@UAEXXZ 1007aa7c f   bncs_enum.obj
 0001:00079d8d       ?addEditWidget@bncs_enum@@EAE?AVQWidgetList@@XZ 1007ad8d f   bncs_enum.obj
 0001:0007a469       ??_EQCheckTableItem@@UAEPAXI@Z 1007b469 f i bncs_enum.obj
 0001:0007a469       ??_GQCheckTableItem@@UAEPAXI@Z 1007b469 f i bncs_enum.obj
 0001:0007a486       ?editAccepted@bncs_enum@@UAE?AVQStringList@@XZ 1007b486 f   bncs_enum.obj
 0001:0007b015       ?stylechange@bncs_enum@@QAEXH@Z 1007c015 f   bncs_enum.obj
 0001:0007b092       ?navigate@bncs_enum@@QAEXABVQString@@@Z 1007c092 f   bncs_enum.obj
 0001:0007b11a       ?settodefault@bncs_enum@@UAEXXZ 1007c11a f   bncs_enum.obj
 0001:0007b126       ?nextstate@bncs_enum@@UAEXXZ 1007c126 f   bncs_enum.obj
 0001:0007b304       ?editRejected@bncs_enum@@UAEXXZ 1007c304 f   bncs_enum.obj
 0001:0007b33b       ?emitNotify@bncs_range@@UAEXAAVQString@@@Z 1007c33b f   bncs_enum.obj
 0001:0007b33b       ?emitNotify@bncs_enum@@UAEXAAVQString@@@Z 1007c33b f   bncs_enum.obj
 0001:0007b33b       ?emitNotify@bncs_smart_string@@UAEXAAVQString@@@Z 1007c33b f   bncs_enum.obj
 0001:0007b348       ?deviceDescription@bncs_enum@@AAEXABVQString@@@Z 1007c348 f   bncs_enum.obj
 0001:0007bab6       ?setValue@bncs_enum@@QAEXABVQString@@_N@Z 1007cab6 f   bncs_enum.obj
 0001:0007bce9       ?resizeEvent@bncs_enum@@UAEXPAVQResizeEvent@@@Z 1007cce9 f   bncs_enum.obj
 0001:0007bcf5       ?getPath@bncs_enum@@UAE?AVQString@@XZ 1007ccf5 f   bncs_enum.obj
 0001:0007bd14       ?getDefaultStyle@bncs_enum@@UAE?AVQString@@XZ 1007cd14 f   bncs_enum.obj
 0001:0007bd33       ?linePointsChanged@bncs_enum@@QAEXABVQString@@@Z 1007cd33 f   bncs_enum.obj
 0001:0007bdba       ?lineColourChanged@bncs_enum@@QAEXABVQString@@@Z 1007cdba f   bncs_enum.obj
 0001:0007be41       ?linePenWidthChanged@bncs_enum@@QAEXABVQString@@@Z 1007ce41 f   bncs_enum.obj
 0001:0007bec8       ?help@bncs_enum@@QAEXXZ    1007cec8 f   bncs_enum.obj
 0001:0007bf08       ?popupNotify@bncs_enum@@QAEXAAVQString@@@Z 1007cf08 f   bncs_enum.obj
 0001:0007c07a       ??_GQKeyEvent@@UAEPAXI@Z   1007d07a f i bncs_enum.obj
 0001:0007c07a       ??_EQKeyEvent@@UAEPAXI@Z   1007d07a f i bncs_enum.obj
 0001:0007c097       ?setPresetValue@bncs_enum@@QAEXABVQString@@@Z 1007d097 f   bncs_enum.obj
 0001:0007c3a4       ?data@?$QMapIterator@VQString@@Vstyleentry@@@@QAEAAVstyleentry@@XZ 1007d3a4 f i bncs_enum.obj
 0001:0007c3a4       ?data@?$QMapIterator@HVvalidState@@@@QAEAAVvalidState@@XZ 1007d3a4 f i bncs_enum.obj
 0001:0007c3aa       ??0bncs_enum_button@@QAE@PAVbncs_ss_base@@_N@Z 1007d3aa f   bncs_enum_button.obj
 0001:0007c44b       ??_Ebncs_enum_button@@UAEPAXI@Z 1007d44b f i bncs_enum_button.obj
 0001:0007c44b       ??_Gbncs_enum_button@@UAEPAXI@Z 1007d44b f i bncs_enum_button.obj
 0001:0007c467       ??1bncs_enum_button@@UAE@XZ 1007d467 f   bncs_enum_button.obj
 0001:0007c4d0       ?showValue@bncs_enum_button@@UAEXN@Z 1007d4d0 f   bncs_enum_button.obj
 0001:0007c847       ?setCaption@bncs_enum_button@@UAEXPAVdecodeCaptionString@@AAVQString@@@Z 1007d847 f   bncs_enum_button.obj
 0001:0007d1ae       ?notifyCallback@bncs_enum_button@@EAEXABVQString@@0@Z 1007e1ae f   bncs_enum_button.obj
 0001:0007d338       ?addEditWidget@bncs_enum_button@@UAE?AVQWidgetList@@XZ 1007e338 f   bncs_enum_button.obj
 0001:0007d4c9       ?editAccepted@bncs_enum_button@@UAE?AVQStringList@@XZ 1007e4c9 f   bncs_enum_button.obj
 0001:0007d83c       ?removeEditWidget@bncs_enum_button@@UAEXXZ 1007e83c f   bncs_enum_button.obj
 0001:0007d83c       ?removeEditWidget@bncs_range_button@@UAEXXZ 1007e83c f   bncs_enum_button.obj
 0001:0007d865       ?updateMask@bncs_enum_button@@UAEXXZ 1007e865 f   bncs_enum_button.obj
 0001:0007d958       ??0bncs_enum_edit_settings@@QAE@PAVQWidget@@PBDI@Z 1007e958 f   bncs_enum_edit_settingsimpl.obj
 0001:0007da37       ?metaObject@bncs_enum_edit_settings@@UBEPAVQMetaObject@@XZ 1007ea37 f i bncs_enum_edit_settingsimpl.obj
 0001:0007da3c       ??_Gbncs_enum_edit_settings@@UAEPAXI@Z 1007ea3c f i bncs_enum_edit_settingsimpl.obj
 0001:0007da3c       ??_Ebncs_enum_edit_settings@@UAEPAXI@Z 1007ea3c f i bncs_enum_edit_settingsimpl.obj
 0001:0007da58       ??1bncs_enum_edit_settings@@UAE@XZ 1007ea58 f   bncs_enum_edit_settingsimpl.obj
 0001:0007da9e       ?statelist_insert@bncs_enum_edit_settings@@QAEXXZ 1007ea9e f   bncs_enum_edit_settingsimpl.obj
 0001:0007db9b       ?statelist_delete@bncs_enum_edit_settings@@QAEXH@Z 1007eb9b f   bncs_enum_edit_settingsimpl.obj
 0001:0007dc08       ?showStateBrowser@bncs_enum_edit_settings@@QAEXHHHABVQPoint@@@Z 1007ec08 f   bncs_enum_edit_settingsimpl.obj
 0001:0007dcc8       ?showStateBrowser@bncs_enum_edit_settings@@QAEXXZ 1007ecc8 f   bncs_enum_edit_settingsimpl.obj
 0001:0007dd5d       ?contextMenuRequested@bncs_enum_edit_settings@@QAEXHHABVQPoint@@@Z 1007ed5d f   bncs_enum_edit_settingsimpl.obj
 0001:0007de35       ?showInstanceBrowser@bncs_enum_edit_settings@@QAEXXZ 1007ee35 f   bncs_enum_edit_settingsimpl.obj
 0001:0007df40       ?ParamChanged@bncs_enum_edit_settings@@QAEXABVQString@@@Z 1007ef40 f   bncs_enum_edit_settingsimpl.obj
 0001:0007df7c       ?showParamBrowser@bncs_enum_edit_settings@@QAEXXZ 1007ef7c f   bncs_enum_edit_settingsimpl.obj
 0001:0007e01c       ?InstanceChanged@bncs_enum_edit_settings@@QAEXABVQString@@@Z 1007f01c f   bncs_enum_edit_settingsimpl.obj
 0001:0007e0af       ??_Ebncs_enum_edit_settings@@WCI@AEPAXI@Z 1007f0af f i bncs_enum_edit_settingsimpl.obj
 0001:0007e0b7       ??0bncs_enum_line@@QAE@PAVbncs_enum@@_N@Z 1007f0b7 f   bncs_enum_line.obj
 0001:0007e158       ??_Gbncs_enum_line@@UAEPAXI@Z 1007f158 f i bncs_enum_line.obj
 0001:0007e158       ??_Ebncs_enum_line@@UAEPAXI@Z 1007f158 f i bncs_enum_line.obj
 0001:0007e174       ??1bncs_enum_line@@UAE@XZ  1007f174 f   bncs_enum_line.obj
 0001:0007e1f4       ?showValue@bncs_enum_line@@UAEXN@Z 1007f1f4 f   bncs_enum_line.obj
 0001:0007e3b5       ?showFormattedValue@bncs_enum_button@@UAEXVQString@@@Z 1007f3b5 f   bncs_enum_line.obj
 0001:0007e3b5       ?showFormattedValue@bncs_enum_list@@UAEXVQString@@@Z 1007f3b5 f   bncs_enum_line.obj
 0001:0007e3b5       ?showFormattedValue@bncs_smart_string_lineedit@@UAEXVQString@@@Z 1007f3b5 f   bncs_enum_line.obj
 0001:0007e3b5       ?showFormattedValue@bncs_smart_string_keyboard@@UAEXVQString@@@Z 1007f3b5 f   bncs_enum_line.obj
 0001:0007e3b5       ?showFormattedValue@bncs_range_fader@@UAEXVQString@@@Z 1007f3b5 f   bncs_enum_line.obj
 0001:0007e3b5       ?showFormattedValue@bncs_enum_line@@UAEXVQString@@@Z 1007f3b5 f   bncs_enum_line.obj
 0001:0007e3c2       ?setCaption@bncs_enum_line@@UAEXPAVdecodeCaptionString@@AAVQString@@@Z 1007f3c2 f   bncs_enum_line.obj
 0001:0007ecdd       ?addEditWidget@bncs_enum_line@@UAE?AVQWidgetList@@XZ 1007fcdd f   bncs_enum_line.obj
 0001:0007efd8       ?editAccepted@bncs_enum_line@@UAE?AVQStringList@@XZ 1007ffd8 f   bncs_enum_line.obj
 0001:0007f48e       ?editRejected@bncs_enum_line@@UAEXXZ 1008048e f   bncs_enum_line.obj
 0001:0007f59d       ?removeEditWidget@bncs_enum_line@@UAEXXZ 1008059d f   bncs_enum_line.obj
 0001:0007f5c6       ?setDefaults@bncs_enum_line@@AAEXXZ 100805c6 f   bncs_enum_line.obj
 0001:0007f628       ?resizeEvent@bncs_enum_line@@UAEXPAVQResizeEvent@@@Z 10080628 f   bncs_enum_line.obj
 0001:0007f630       ?paintEvent@bncs_enum_line@@UAEXPAVQPaintEvent@@@Z 10080630 f   bncs_enum_line.obj
 0001:0007f6ab       ?calcMask@bncs_enum_line@@AAEXXZ 100806ab f   bncs_enum_line.obj
 0001:0007f7b6       ?mouseReleaseEvent@bncs_enum_line@@UAEXPAVQMouseEvent@@@Z 100807b6 f   bncs_enum_line.obj
 0001:0007fa44       ??0bncs_enum_linebutton_edit@@QAE@PAVQWidget@@PBD_NI@Z 10080a44 f   bncs_enum_linebutton_editimpl.obj
 0001:0007fa6f       ?metaObject@bncs_enum_linebutton_edit@@UBEPAVQMetaObject@@XZ 10080a6f f i bncs_enum_linebutton_editimpl.obj
 0001:0007fa74       ??_Ebncs_enum_linebutton_edit@@UAEPAXI@Z 10080a74 f i bncs_enum_linebutton_editimpl.obj
 0001:0007fa74       ??_Gbncs_enum_linebutton_edit@@UAEPAXI@Z 10080a74 f i bncs_enum_linebutton_editimpl.obj
 0001:0007fa90       ??1bncs_enum_linebutton_edit@@UAE@XZ 10080a90 f   bncs_enum_linebutton_editimpl.obj
 0001:0007faa2       ??_Ebncs_enum_linebutton_edit@@WCI@AEPAXI@Z 10080aa2 f i bncs_enum_linebutton_editimpl.obj
 0001:0007faaa       ??0bncs_enum_list@@QAE@PAVbncs_ss_base@@_N1@Z 10080aaa f   bncs_enum_list.obj
 0001:0007fbef       ?metaObject@bncs_enum_list@@UBEPAVQMetaObject@@XZ 10080bef f i bncs_enum_list.obj
 0001:0007fbf4       ??_Gbncs_enum_list@@UAEPAXI@Z 10080bf4 f i bncs_enum_list.obj
 0001:0007fbf4       ??_Ebncs_enum_list@@UAEPAXI@Z 10080bf4 f i bncs_enum_list.obj
 0001:0007fc10       ??1bncs_enum_list@@UAE@XZ  10080c10 f   bncs_enum_list.obj
 0001:0007fd6a       ?show@bncs_enum_list@@UAEXXZ 10080d6a f   bncs_enum_list.obj
 0001:0007fd7c       ?notify_in@bncs_enum_list@@QAEXAAVQString@@@Z 10080d7c f   bncs_enum_list.obj
 0001:0007ff06       ?showValue@bncs_enum_list@@UAEXN@Z 10080f06 f   bncs_enum_list.obj
 0001:0008059d       ?setCaption@bncs_enum_list@@UAEXPAVdecodeCaptionString@@AAVQString@@@Z 1008159d f   bncs_enum_list.obj
 0001:00080bd7       ?addEditWidget@bncs_enum_list@@UAE?AVQWidgetList@@XZ 10081bd7 f   bncs_enum_list.obj
 0001:00080d9f       ?editAccepted@bncs_enum_list@@UAE?AVQStringList@@XZ 10081d9f f   bncs_enum_list.obj
 0001:000810eb       ?createlist@bncs_enum_list@@QAEXPAVQWidget@@@Z 100820eb f   bncs_enum_list.obj
 0001:0008170b       ?createPopupButton@bncs_enum_list@@QAEXPAVQWidget@@@Z 1008270b f   bncs_enum_list.obj
 0001:00081840       ?popupkilled@bncs_enum_list@@QAEXXZ 10082840 f   bncs_enum_list.obj
 0001:00081881       ?removeEditWidget@bncs_enum_list@@UAEXXZ 10082881 f   bncs_enum_list.obj
 0001:000818aa       ?timerEvent@bncs_enum_list@@UAEXPAVQTimerEvent@@@Z 100828aa f   bncs_enum_list.obj
 0001:000818ec       ?startUp@bncs_enum_list@@UAEXXZ 100828ec f   bncs_enum_list.obj
 0001:00081913       ?setDoublePushButton@bncs_enum_list@@AAEXXZ 10082913 f   bncs_enum_list.obj
 0001:00081992       ?setDoublePushList@bncs_enum_list@@AAEXXZ 10082992 f   bncs_enum_list.obj
 0001:00081a54       ?resizeEvent@bncs_enum_list@@EAEXPAVQResizeEvent@@@Z 10082a54 f   bncs_enum_list.obj
 0001:00081a74       ?notifyCallback@bncs_enum_list@@EAEXABVQString@@0@Z 10082a74 f   bncs_enum_list.obj
 0001:00081bb8       ?paintEvent@bncs_enum_list@@EAEXPAVQPaintEvent@@@Z 10082bb8 f   bncs_enum_list.obj
 0001:00081cf7       ?mousePressEvent@bncs_enum_list@@EAEXPAVQMouseEvent@@@Z 10082cf7 f   bncs_enum_list.obj
 0001:00081d10       ?mouseReleaseEvent@bncs_enum_list@@EAEXPAVQMouseEvent@@@Z 10082d10 f   bncs_enum_list.obj
 0001:00081d29       ?setEnabled@bncs_enum_list@@EAEX_N@Z 10082d29 f   bncs_enum_list.obj
 0001:00081d42       ?enableTextEntry@bncs_enum_list@@UAEX_N@Z 10082d42 f   bncs_enum_list.obj
 0001:00081d4e       ?updateMask@bncs_enum_list@@UAEXXZ 10082d4e f   bncs_enum_list.obj
 0001:00081da6       ?checkMask@bncs_enum_list@@AAEXXZ 10082da6 f   bncs_enum_list.obj
 0001:00081dd3       ??_Ebncs_enum_list@@WCI@AEPAXI@Z 10082dd3 f i bncs_enum_list.obj
 0001:00081ddb       ??_Ebncs_enum_list@@WDM@AEPAXI@Z 10082ddb f i bncs_enum_list.obj
 0001:00081de3       ??0bncs_enum_list_edit@@QAE@PAVQWidget@@PBDI@Z 10082de3 f   bncs_enum_list_editimpl.obj
 0001:00081e3b       ?metaObject@bncs_enum_list_edit@@UBEPAVQMetaObject@@XZ 10082e3b f i bncs_enum_list_editimpl.obj
 0001:00081e40       ??_Gbncs_enum_list_edit@@UAEPAXI@Z 10082e40 f i bncs_enum_list_editimpl.obj
 0001:00081e40       ??_Ebncs_enum_list_edit@@UAEPAXI@Z 10082e40 f i bncs_enum_list_editimpl.obj
 0001:00081e5c       ??1bncs_enum_list_edit@@UAE@XZ 10082e5c f   bncs_enum_list_editimpl.obj
 0001:00081e6e       ?showStateBrowser@bncs_enum_list_edit@@QAEXXZ 10082e6e f   bncs_enum_list_editimpl.obj
 0001:00081f00       ??_Ebncs_enum_list_edit@@WCI@AEPAXI@Z 10082f00 f i bncs_enum_list_editimpl.obj
 0001:00081f08       ??0bncs_enum_listbutton_edit@@QAE@PAVQWidget@@PBDI@Z 10082f08 f   bncs_enum_listbutton_editimpl.obj
 0001:00081f63       ?metaObject@bncs_enum_listbutton_edit@@UBEPAVQMetaObject@@XZ 10082f63 f i bncs_enum_listbutton_editimpl.obj
 0001:00081f68       ??_Gbncs_enum_listbutton_edit@@UAEPAXI@Z 10082f68 f i bncs_enum_listbutton_editimpl.obj
 0001:00081f68       ??_Ebncs_enum_listbutton_edit@@UAEPAXI@Z 10082f68 f i bncs_enum_listbutton_editimpl.obj
 0001:00081f84       ??1bncs_enum_listbutton_edit@@UAE@XZ 10082f84 f   bncs_enum_listbutton_editimpl.obj
 0001:00081f96       ?showStateBrowser@bncs_enum_listbutton_edit@@QAEXXZ 10082f96 f   bncs_enum_listbutton_editimpl.obj
 0001:0008202b       ??_Ebncs_enum_listbutton_edit@@WCI@AEPAXI@Z 1008302b f i bncs_enum_listbutton_editimpl.obj
 0001:00082033       ??0bncs_range@@QAE@PAVQWidget@@PBDI@Z 10083033 f   bncs_range.obj
 0001:000820f5       ??1bncs_range@@UAE@XZ      100830f5 f   bncs_range.obj
 0001:000821c3       ?cccInfoRevertive@bncs_range@@EAEXHHABV?$basic_string@DU?$char_traits@D@std@@V?$allocator@D@2@@std@@@Z 100831c3 f   bncs_range.obj
 0001:00082220       ?cccRtrRevertive@bncs_range@@EAEXHHH@Z 10083220 f   bncs_range.obj
 0001:0008228d       ?cccGpiRevertive@bncs_range@@EAEXHH_N@Z 1008328d f   bncs_range.obj
 0001:000822fc       ?handleRevertive@bncs_range@@AAEXABVQString@@@Z 100832fc f   bncs_range.obj
 0001:000823e1       ?setCaption@bncs_range@@UAEXABVQString@@@Z 100833e1 f   bncs_range.obj
 0001:00083dad       ?setValue@bncs_range@@QAEXN@Z 10084dad f   bncs_range.obj
 0001:00083f73       ?defaultValues@bncs_range@@EAEXXZ 10084f73 f   bncs_range.obj
 0001:0008407d       ?increment@bncs_range@@QAEX_N@Z 1008507d f   bncs_range.obj
 0001:000840a5       ?decrement@bncs_range@@QAEX_N@Z 100850a5 f   bncs_range.obj
 0001:000840d1       ?settodefault@bncs_range@@UAEXXZ 100850d1 f   bncs_range.obj
 0001:000840e2       ?outputValue@bncs_range@@QAEXXZ 100850e2 f   bncs_range.obj
 0001:000841e4       ?createHelper@bncs_range@@UAEPAVbncs_skin_base@@PAVbncs_ss_base@@PBD@Z 100851e4 f   bncs_range.obj
 0001:00084545       ?timerEvent@bncs_range@@UAEXPAVQTimerEvent@@@Z 10085545 f   bncs_range.obj
 0001:0008456d       ?startUp@bncs_range@@EAEXXZ 1008556d f   bncs_range.obj
 0001:0008482a       ?addEditWidget@bncs_range@@EAE?AVQWidgetList@@XZ 1008582a f   bncs_range.obj
 0001:000850a4       ?editAccepted@bncs_range@@UAE?AVQStringList@@XZ 100860a4 f   bncs_range.obj
 0001:00085fed       ?stylechange@bncs_range@@QAEXH@Z 10086fed f   bncs_range.obj
 0001:0008606a       ?navigate@bncs_range@@QAEXABVQString@@@Z 1008706a f   bncs_range.obj
 0001:000860f2       ?editRejected@bncs_range@@UAEXXZ 100870f2 f   bncs_range.obj
 0001:00086127       ?deviceDescription@bncs_range@@AAEXABVQString@@@Z 10087127 f   bncs_range.obj
 0001:00086a93       ?setValue@bncs_range@@QAEXABVQString@@@Z 10087a93 f   bncs_range.obj
 0001:00086b79       ?getPath@bncs_range@@UAE?AVQString@@XZ 10087b79 f   bncs_range.obj
 0001:00086b98       ?getDefaultStyle@bncs_range@@UAE?AVQString@@XZ 10087b98 f   bncs_range.obj
 0001:00086bb5       ?help@bncs_range@@QAEXXZ   10087bb5 f   bncs_range.obj
 0001:00086bf5       ?popupNotify@bncs_range@@QAEXAAVQString@@@Z 10087bf5 f   bncs_range.obj
 0001:00086d13       ?setPresetValue@bncs_range@@QAEXABVQString@@@Z 10087d13 f   bncs_range.obj
 0001:000870b5       ??0bncs_range_button@@QAE@PAVbncs_ss_base@@_N@Z 100880b5 f   bncs_range_button.obj
 0001:000870ef       ??_Ebncs_range_button@@UAEPAXI@Z 100880ef f i bncs_range_button.obj
 0001:000870ef       ??_Gbncs_range_button@@UAEPAXI@Z 100880ef f i bncs_range_button.obj
 0001:0008710b       ??1bncs_range_button@@UAE@XZ 1008810b f   bncs_range_button.obj
 0001:0008714a       ?showFormattedValue@bncs_range_button@@UAEXVQString@@@Z 1008814a f   bncs_range_button.obj
 0001:000871c4       ?setCaption@bncs_range_button@@UAEXPAVdecodeCaptionString@@AAVQString@@@Z 100881c4 f   bncs_range_button.obj
 0001:000872c7       ?notifyCallback@bncs_range_button@@EAEXABVQString@@0@Z 100882c7 f   bncs_range_button.obj
 0001:00087303       ?addEditWidget@bncs_range_button@@UAE?AVQWidgetList@@XZ 10088303 f   bncs_range_button.obj
 0001:0008741b       ?editAccepted@bncs_range_button@@UAE?AVQStringList@@XZ 1008841b f   bncs_range_button.obj
 0001:0008752b       ?editRejected@bncs_enum_list@@UAEXXZ 1008852b f   bncs_range_button.obj
 0001:0008752b       ?editRejected@bncs_range_updown@@UAEXXZ 1008852b f   bncs_range_button.obj
 0001:0008752b       ?editRejected@bncs_range_button@@UAEXXZ 1008852b f   bncs_range_button.obj
 0001:0008752b       ?editRejected@bncs_enum_button@@UAEXXZ 1008852b f   bncs_range_button.obj
 0001:0008752b       ?editRejected@bncs_skin_button@@UAEXXZ 1008852b f   bncs_range_button.obj
 0001:00087530       ??0bncs_range_edit_settings@@QAE@PAVQWidget@@PBDI@Z 10088530 f   bncs_range_edit_settingsimpl.obj
 0001:000875d4       ?metaObject@bncs_range_edit_settings@@UBEPAVQMetaObject@@XZ 100885d4 f i bncs_range_edit_settingsimpl.obj
 0001:000875d9       ??_Gbncs_range_edit_settings@@UAEPAXI@Z 100885d9 f i bncs_range_edit_settingsimpl.obj
 0001:000875d9       ??_Ebncs_range_edit_settings@@UAEPAXI@Z 100885d9 f i bncs_range_edit_settingsimpl.obj
 0001:000875f5       ??1bncs_range_edit_settings@@UAE@XZ 100885f5 f   bncs_range_edit_settingsimpl.obj
 0001:0008763b       ?showInstanceBrowser@bncs_range_edit_settings@@QAEXXZ 1008863b f   bncs_range_edit_settingsimpl.obj
 0001:00087746       ?ParamChanged@bncs_range_edit_settings@@QAEXABVQString@@@Z 10088746 f   bncs_range_edit_settingsimpl.obj
 0001:00087782       ?showParamBrowser@bncs_range_edit_settings@@QAEXXZ 10088782 f   bncs_range_edit_settingsimpl.obj
 0001:00087822       ?InstanceChanged@bncs_range_edit_settings@@QAEXABVQString@@@Z 10088822 f   bncs_range_edit_settingsimpl.obj
 0001:000878b5       ??_Ebncs_range_edit_settings@@WCI@AEPAXI@Z 100888b5 f i bncs_range_edit_settingsimpl.obj
 0001:000878bd       ??0bncs_range_fader@@QAE@PAVbncs_range@@_NNNNNH@Z 100888bd f   bncs_range_fader.obj
 0001:00087a15       ?metaObject@bncs_range_fader@@UBEPAVQMetaObject@@XZ 10088a15 f i bncs_range_fader.obj
 0001:00087a1a       ??_Ebncs_range_fader@@UAEPAXI@Z 10088a1a f i bncs_range_fader.obj
 0001:00087a1a       ??_Gbncs_range_fader@@UAEPAXI@Z 10088a1a f i bncs_range_fader.obj
 0001:00087a36       ??1bncs_range_fader@@UAE@XZ 10088a36 f   bncs_range_fader.obj
 0001:00087b36       ?addEditWidget@bncs_range_fader@@UAE?AVQWidgetList@@XZ 10088b36 f   bncs_range_fader.obj
 0001:00088192       ?editAccepted@bncs_range_fader@@UAE?AVQStringList@@XZ 10089192 f   bncs_range_fader.obj
 0001:00088bde       ?editRejected@bncs_range_fader@@UAEXXZ 10089bde f   bncs_range_fader.obj
 0001:00088bf6       ?removeEditWidget@bncs_range_fader@@UAEXXZ 10089bf6 f   bncs_range_fader.obj
 0001:00088c0d       ?setCaption@bncs_range_fader@@UAEXPAVdecodeCaptionString@@AAVQString@@@Z 10089c0d f   bncs_range_fader.obj
 0001:000890e1       ?showStateBrowser@bncs_range_fader@@QAEXXZ 1008a0e1 f   bncs_range_fader.obj
 0001:0008917b       ?showColourBrowser@bncs_range_fader@@QAEXXZ 1008a17b f   bncs_range_fader.obj
 0001:000892cf       ?showFileBrowser@bncs_range_fader@@QAEXXZ 1008a2cf f   bncs_range_fader.obj
 0001:00089462       ?showValueRaw@bncs_range_fader@@UAEXN@Z 1008a462 f   bncs_range_fader.obj
 0001:000895de       ?notify_in@bncs_range_fader@@QAEXH@Z 1008a5de f   bncs_range_fader.obj
 0001:0008966a       ?sliderPressed@bncs_range_fader@@QAEXXZ 1008a66a f   bncs_range_fader.obj
 0001:00089672       ?sliderReleased@bncs_range_fader@@QAEXXZ 1008a672 f   bncs_range_fader.obj
 0001:0008967a       ?enableControls@bncs_range_fader@@QAEXXZ 1008a67a f   bncs_range_fader.obj
 0001:000897ef       ?timerEvent@bncs_range_fader@@UAEXPAVQTimerEvent@@@Z 1008a7ef f   bncs_range_fader.obj
 0001:00089867       ?startUp@bncs_range_fader@@EAEXXZ 1008a867 f   bncs_range_fader.obj
 0001:0008986f       ?show@bncs_range_fader@@UAEXXZ 1008a86f f   bncs_range_fader.obj
 0001:00089877       ?createFader@bncs_range_fader@@AAEXXZ 1008a877 f   bncs_range_fader.obj
 0001:00089aba       ?metaObject@bncs_slider_style@@UBEPAVQMetaObject@@XZ 1008aaba f i bncs_range_fader.obj
 0001:00089abf       ??_Ebncs_slider_style@@UAEPAXI@Z 1008aabf f i bncs_range_fader.obj
 0001:00089abf       ??_Gbncs_slider_style@@UAEPAXI@Z 1008aabf f i bncs_range_fader.obj
 0001:00089adb       ??1bncs_slider_style@@UAE@XZ 1008aadb f i bncs_range_fader.obj
 0001:00089ae6       ?updateFader@bncs_range_fader@@AAEXXZ 1008aae6 f   bncs_range_fader.obj
 0001:00089b6d       ?setSlotPixmap@bncs_range_fader@@AAEXVQString@@@Z 1008ab6d f   bncs_range_fader.obj
 0001:00089d06       ??8@YA_NVQChar@@D@Z        1008ad06 f i bncs_range_fader.obj
 0001:00089d18       ?updateOrientation@bncs_range_fader@@QAEXXZ 1008ad18 f   bncs_range_fader.obj
 0001:00089d97       ?updateOrientationRBs@bncs_range_fader@@QAEXH@Z 1008ad97 f   bncs_range_fader.obj
 0001:00089e58       ?deferUpdateFader@bncs_range_fader@@AAEXXZ 1008ae58 f   bncs_range_fader.obj
 0001:00089e82       ??_Ebncs_range_fader@@WCI@AEPAXI@Z 1008ae82 f i bncs_range_fader.obj
 0001:00089e8a       ??_Ebncs_range_fader@@WDM@AEPAXI@Z 1008ae8a f i bncs_range_fader.obj
 0001:00089e92       ??0bncs_range_updown@@QAE@PAVbncs_range@@_N11@Z 1008ae92 f   bncs_range_updown.obj
 0001:00089f9b       ?metaObject@bncs_range_updown@@UBEPAVQMetaObject@@XZ 1008af9b f i bncs_range_updown.obj
 0001:00089fa0       ??_Ebncs_range_updown@@UAEPAXI@Z 1008afa0 f i bncs_range_updown.obj
 0001:00089fa0       ??_Gbncs_range_updown@@UAEPAXI@Z 1008afa0 f i bncs_range_updown.obj
 0001:00089fbc       ??1bncs_range_updown@@UAE@XZ 1008afbc f   bncs_range_updown.obj
 0001:0008a0e0       ?show@bncs_range_updown@@UAEXXZ 1008b0e0 f   bncs_range_updown.obj
 0001:0008a100       ?notify_in@bncs_range_updown@@QAEXAAVQString@@@Z 1008b100 f   bncs_range_updown.obj
 0001:0008a244       ?showValue@bncs_range_updown@@UAEXN@Z 1008b244 f   bncs_range_updown.obj
 0001:0008a347       ?showFormattedValue@bncs_range_updown@@UAEXVQString@@@Z 1008b347 f   bncs_range_updown.obj
 0001:0008a41a       ?setCaption@bncs_range_updown@@UAEXPAVdecodeCaptionString@@AAVQString@@@Z 1008b41a f   bncs_range_updown.obj
 0001:0008aa0e       ?addEditWidget@bncs_range_updown@@UAE?AVQWidgetList@@XZ 1008ba0e f   bncs_range_updown.obj
 0001:0008ab61       ?editAccepted@bncs_range_updown@@UAE?AVQStringList@@XZ 1008bb61 f   bncs_range_updown.obj
 0001:0008ad58       ?createUpdown@bncs_range_updown@@QAEXPAVQWidget@@_N@Z 1008bd58 f   bncs_range_updown.obj
 0001:0008b831       ?createPopupButton@bncs_range_updown@@QAEXPAVQWidget@@@Z 1008c831 f   bncs_range_updown.obj
 0001:0008b8b8       ?popupkilled@bncs_range_updown@@QAEXXZ 1008c8b8 f   bncs_range_updown.obj
 0001:0008b8d0       ?removeEditWidget@bncs_range_updown@@UAEXXZ 1008c8d0 f   bncs_range_updown.obj
 0001:0008b8f9       ?resizeEvent@bncs_range_updown@@UAEXPAVQResizeEvent@@@Z 1008c8f9 f   bncs_range_updown.obj
 0001:0008b91b       ?paintEvent@bncs_range_updown@@UAEXPAVQPaintEvent@@@Z 1008c91b f   bncs_range_updown.obj
 0001:0008b995       ?mousePressEvent@bncs_range_updown@@UAEXPAVQMouseEvent@@@Z 1008c995 f   bncs_range_updown.obj
 0001:0008b9ae       ?mouseReleaseEvent@bncs_range_updown@@UAEXPAVQMouseEvent@@@Z 1008c9ae f   bncs_range_updown.obj
 0001:0008b9c7       ?notifyCallback@bncs_range_updown@@UAEXABVQString@@0@Z 1008c9c7 f   bncs_range_updown.obj
 0001:0008bb06       ?setEnabled@bncs_range_updown@@UAEX_N@Z 1008cb06 f   bncs_range_updown.obj
 0001:0008bb1f       ?updateMask@bncs_range_updown@@UAEXXZ 1008cb1f f   bncs_range_updown.obj
 0001:0008bb6e       ?repeatAction@bncs_range_updown@@AAEXXZ 1008cb6e f   bncs_range_updown.obj
 0001:0008bbae       ?timerEvent@bncs_range_updown@@MAEXPAVQTimerEvent@@@Z 1008cbae f   bncs_range_updown.obj
 0001:0008bbd5       ??_Ebncs_range_updown@@WCI@AEPAXI@Z 1008cbd5 f i bncs_range_updown.obj
 0001:0008bbdd       ??0bncs_range_updownbutton_edit@@QAE@PAVQWidget@@PBD_NI@Z 1008cbdd f   bncs_range_updownbutton_editimpl.obj
 0001:0008bc3b       ?metaObject@bncs_range_updownbutton_edit@@UBEPAVQMetaObject@@XZ 1008cc3b f i bncs_range_updownbutton_editimpl.obj
 0001:0008bc40       ??_Gbncs_range_updownbutton_edit@@UAEPAXI@Z 1008cc40 f i bncs_range_updownbutton_editimpl.obj
 0001:0008bc40       ??_Ebncs_range_updownbutton_edit@@UAEPAXI@Z 1008cc40 f i bncs_range_updownbutton_editimpl.obj
 0001:0008bc5c       ??1bncs_range_updownbutton_edit@@UAE@XZ 1008cc5c f   bncs_range_updownbutton_editimpl.obj
 0001:0008bc6e       ?showStateBrowser@bncs_range_updownbutton_edit@@QAEXXZ 1008cc6e f   bncs_range_updownbutton_editimpl.obj
 0001:0008bd03       ??_Ebncs_range_updownbutton_edit@@WCI@AEPAXI@Z 1008cd03 f i bncs_range_updownbutton_editimpl.obj
 0001:0008bd0b       ??0bncs_http@@QAE@ABVQString@@0_N@Z 1008cd0b f   bncs_http.obj
 0001:0008be97       ?metaObject@bncs_http@@UBEPAVQMetaObject@@XZ 1008ce97 f i bncs_http.obj
 0001:0008be9c       ??_Gbncs_http@@UAEPAXI@Z   1008ce9c f i bncs_http.obj
 0001:0008be9c       ??_Ebncs_http@@UAEPAXI@Z   1008ce9c f i bncs_http.obj
 0001:0008beb8       ??_GQUrlOperator@@UAEPAXI@Z 1008ceb8 f i bncs_http.obj
 0001:0008beb8       ??_EQUrlOperator@@UAEPAXI@Z 1008ceb8 f i bncs_http.obj
 0001:0008bed5       ??1bncs_http@@UAE@XZ       1008ced5 f   bncs_http.obj
 0001:0008bf41       ?get@bncs_http@@QAEXXZ     1008cf41 f   bncs_http.obj
 0001:0008bfe4       ?put@bncs_http@@QAEXXZ     1008cfe4 f   bncs_http.obj
 0001:0008c18b       ?data@bncs_http@@QAEXABV?$QMemArray@D@@PAVQNetworkOperation@@@Z 1008d18b f   bncs_http.obj
 0001:0008c251       ?finished@bncs_http@@QAEXPAVQNetworkOperation@@@Z 1008d251 f   bncs_http.obj
 0001:0008c366       ??_EQUrlOperator@@WCI@AEPAXI@Z 1008d366 f i bncs_http.obj
 0001:0008c36e       _dllScript_call_helper     1008d36e f   bncs_script_loader.obj
 0001:0008c38a       ??0bncs_script_loader@@QAE@PAVQWidget@@PBDI@Z 1008d38a f   bncs_script_loader.obj
 0001:0008c568       ??1bncs_script_loader@@UAE@XZ 1008d568 f   bncs_script_loader.obj
 0001:0008c71e       ?cccInfoRevertive@bncs_script_loader@@EAEXHHABV?$basic_string@DU?$char_traits@D@std@@V?$allocator@D@2@@std@@@Z 1008d71e f   bncs_script_loader.obj
 0001:0008c7a3       ?cccRtrRevertive@bncs_script_loader@@EAEXHHH@Z 1008d7a3 f   bncs_script_loader.obj
 0001:0008c879       ?cccGpiRevertive@bncs_script_loader@@EAEXHH_N@Z 1008d879 f   bncs_script_loader.obj
 0001:0008c8f6       ?cccDatabaseChange@bncs_script_loader@@EAEXHHH@Z 1008d8f6 f   bncs_script_loader.obj
 0001:0008c9ba       ?setCaption@bncs_script_loader@@UAEXABVQString@@@Z 1008d9ba f   bncs_script_loader.obj
 0001:0008d5f0       ?ForcePanelReload@bncs_script_loader@@AAEXXZ 1008e5f0 f   bncs_script_loader.obj
 0001:0008d891       ?PR@bncs_script_loader@@AAE_NPBD@Z 1008e891 f   bncs_script_loader.obj
 0001:0008d9a5       ?PD@bncs_script_loader@@AAE_NPBD@Z 1008e9a5 f   bncs_script_loader.obj
 0001:0008dae2       ?PS@bncs_script_loader@@AAE_NPBD0_N@Z 1008eae2 f   bncs_script_loader.obj
 0001:0008dd78       ?widgetList@dCW@@QAE?AVQWidgetList@@XZ 1008ed78 f i bncs_script_loader.obj
 0001:0008dda5       ?PP@bncs_script_loader@@AAE_NPBD0HH@Z 1008eda5 f   bncs_script_loader.obj
 0001:0008e0e7       ??_Ebncs_client_runtime@@UAEPAXI@Z 1008f0e7 f i bncs_script_loader.obj
 0001:0008e0e7       ??_Gbncs_client_runtime@@UAEPAXI@Z 1008f0e7 f i bncs_script_loader.obj
 0001:0008e104       ?destroyed@bncs_script_loader@@QAEXXZ 1008f104 f   bncs_script_loader.obj
 0001:0008e1b0       ?TP@bncs_script_loader@@AAE_NPBD00@Z 1008f1b0 f   bncs_script_loader.obj
 0001:0008e208       ?CE@bncs_script_loader@@AAE_NPBD0_N@Z 1008f208 f   bncs_script_loader.obj
 0001:0008e229       ?CS@bncs_script_loader@@AAE_NPBD0_N@Z 1008f229 f   bncs_script_loader.obj
 0001:0008e249       ?CH@bncs_script_loader@@AAE_NPBD0_N@Z 1008f249 f   bncs_script_loader.obj
 0001:0008e269       ?CM@bncs_script_loader@@AAE_NPBD0_NHH@Z 1008f269 f   bncs_script_loader.obj
 0001:0008e2a7       ?CP@bncs_script_loader@@AAEPADPBD0_N@Z 1008f2a7 f   bncs_script_loader.obj
 0001:0008e410       ?TG@bncs_script_loader@@AAEPADPBD00@Z 1008f410 f   bncs_script_loader.obj
 0001:0008e517       ?notify_in@bncs_script_loader@@QAEXAAVQString@@@Z 1008f517 f   bncs_script_loader.obj
 0001:0008e62e       ?callback@bncs_script_loader@@UAEPAXPBXH@Z 1008f62e f   bncs_script_loader.obj
 0001:0009081c       ?doreg@bncs_script_loader@@AAEXPBD@Z 1009181c f   bncs_script_loader.obj
 0001:000909af       ?unreg@bncs_script_loader@@AAEXPBD@Z 100919af f   bncs_script_loader.obj
 0001:00090a81       ?findWidget@bncs_script_loader@@AAEPAVQWidget@@PBD0@Z 10091a81 f   bncs_script_loader.obj
 0001:00090b26       ?findpanel@bncs_script_loader@@AAE?AVQString@@PAVQWidget@@@Z 10091b26 f   bncs_script_loader.obj
 0001:00090c75       ?edit@bncs_script_loader@@QAEXPA_N0@Z 10091c75 f   bncs_script_loader.obj
 0001:000912e3       ?load@bncs_script_loader@@AAE_NXZ 100922e3 f   bncs_script_loader.obj
 0001:00091763       ??_EQLibrary@@UAEPAXI@Z    10092763 f i bncs_script_loader.obj
 0001:00091763       ??_GQLibrary@@UAEPAXI@Z    10092763 f i bncs_script_loader.obj
 0001:00091780       ?cleanup_lib@bncs_script_loader@@AAEXXZ 10092780 f   bncs_script_loader.obj
 0001:000917f5       ?timeout@bncs_script_loader@@QAEXXZ 100927f5 f   bncs_script_loader.obj
 0001:0009185f       ?aboutToHidePopup@bncs_script_loader@@QAEXXZ 1009285f f   bncs_script_loader.obj
 0001:0009186d       ?destroyedPopup@bncs_script_loader@@QAEXXZ 1009286d f   bncs_script_loader.obj
 0001:0009190b       ?EC@bncs_script_loader@@AAEX_NPBD1@Z 1009290b f   bncs_script_loader.obj
 0001:000919f1       ?PT@bncs_script_loader@@AAE_NPBD0@Z 100929f1 f   bncs_script_loader.obj
 0001:00091a9b       ?audioDestroy@bncs_script_loader@@AAEXPBD@Z 10092a9b f   bncs_script_loader.obj
 0001:00091b3f       ?audioPlay@bncs_script_loader@@AAEXPAVplaySound@@H@Z 10092b3f f   bncs_script_loader.obj
 0001:00091b5f       ?audioPlay@bncs_script_loader@@AAEXPBDH@Z 10092b5f f   bncs_script_loader.obj
 0001:00091c1d       ?audioPlay@bncs_script_loader@@AAEXPBD0H@Z 10092c1d f   bncs_script_loader.obj
 0001:00091e8f       ?audioStop@bncs_script_loader@@AAEXPBD@Z 10092e8f f   bncs_script_loader.obj
 0001:00091f46       ?audioStop@bncs_script_loader@@AAEXPAVplaySound@@@Z 10092f46 f   bncs_script_loader.obj
 0001:00091f8b       ?audioStopAll@bncs_script_loader@@AAEXXZ 10092f8b f   bncs_script_loader.obj
 0001:00092007       ?paintEvent@bncs_script_loader@@EAEXPAVQPaintEvent@@@Z 10093007 f   bncs_script_loader.obj
 0001:00092265       ?navigateCanAdjust@bncs_script_loader@@AAE_NABVQString@@@Z 10093265 f   bncs_script_loader.obj
 0001:0009238c       ?navigateCanExecute@bncs_script_loader@@AAE_NABVQString@@@Z 1009338c f   bncs_script_loader.obj
 0001:0009274e       ?httpFinished@bncs_script_loader@@QAEXABVQString@@0_N10@Z 1009374e f   bncs_script_loader.obj
 0001:00092837       ?CC@bncs_script_loader@@AAEPADPBD00HHHH0@Z 10093837 f   bncs_script_loader.obj
 0001:00092a64       ?resizeEvent@bncs_script_loader@@EAEXPAVQResizeEvent@@@Z 10093a64 f   bncs_script_loader.obj
 0001:00092b45       ??1?$QDictIterator@Vbncs_popup@@@@QAE@XZ 10093b45 f i bncs_script_loader.obj
 0001:00092b45       ??1?$QDictIterator@VQWidget@@@@QAE@XZ 10093b45 f i bncs_script_loader.obj
 0001:00092b45       ??1?$QDictIterator@VplaySound@@@@QAE@XZ 10093b45 f i bncs_script_loader.obj
 0001:00092b4b       ?currentKey@?$QDictIterator@Vbncs_popup@@@@QBE?AVQString@@XZ 10093b4b f i bncs_script_loader.obj
 0001:00092b4b       ?currentKey@?$QDictIterator@VQWidget@@@@QBE?AVQString@@XZ 10093b4b f i bncs_script_loader.obj
 0001:00092b63       ??_Ebncs_client_runtime@@WCI@AEPAXI@Z 10093b63 f i bncs_script_loader.obj
 0001:00092b6b       ??0bncs_script_loader_editBaseImpl@@QAE@PAVbncs_script_loader@@PBDI@Z 10093b6b f   bncs_script_loader_editBaseImpl.obj
 0001:00092c4a       ?metaObject@bncs_script_loader_editBaseImpl@@UBEPAVQMetaObject@@XZ 10093c4a f i bncs_script_loader_editBaseImpl.obj
 0001:00092c4f       ??_Gbncs_script_loader_editBaseImpl@@UAEPAXI@Z 10093c4f f i bncs_script_loader_editBaseImpl.obj
 0001:00092c4f       ??_Ebncs_script_loader_editBaseImpl@@UAEPAXI@Z 10093c4f f i bncs_script_loader_editBaseImpl.obj
 0001:00092c6b       ??1bncs_script_loader_editBaseImpl@@UAE@XZ 10093c6b f   bncs_script_loader_editBaseImpl.obj
 0001:00092c7d       ?showInstanceBrowser@bncs_script_loader_editBaseImpl@@QAEXXZ 10093c7d f   bncs_script_loader_editBaseImpl.obj
 0001:00092d01       ?showScriptBrowser@bncs_script_loader_editBaseImpl@@QAEXXZ 10093d01 f   bncs_script_loader_editBaseImpl.obj
 0001:00092d8e       ?resolvePath@bncs_script_loader_editBaseImpl@@AAE?AVQString@@XZ 10093d8e f   bncs_script_loader_editBaseImpl.obj
 0001:00093009       ?openVisualStudio@bncs_script_loader_editBaseImpl@@QAEXXZ 10094009 f   bncs_script_loader_editBaseImpl.obj
 0001:00093260       ?openDirectory@bncs_script_loader_editBaseImpl@@QAEXXZ 10094260 f   bncs_script_loader_editBaseImpl.obj
 0001:0009330b       ?help@bncs_script_loader_editBaseImpl@@QAEXXZ 1009430b f   bncs_script_loader_editBaseImpl.obj
 0001:0009334b       ?checkBoxStretchClicked@bncs_script_loader_editBaseImpl@@QAEXXZ 1009434b f   bncs_script_loader_editBaseImpl.obj
 0001:00093369       ?helpScript@bncs_script_loader_editBaseImpl@@QAEXXZ 10094369 f   bncs_script_loader_editBaseImpl.obj
 0001:00093556       ?scriptTextChanged@bncs_script_loader_editBaseImpl@@QAEXABVQString@@@Z 10094556 f   bncs_script_loader_editBaseImpl.obj
 0001:000936b4       ??_Ebncs_script_loader_editBaseImpl@@WCI@AEPAXI@Z 100946b4 f i bncs_script_loader_editBaseImpl.obj
 0001:000936bc       ??0bncs_smart_string@@QAE@PAVQWidget@@PBDI@Z 100946bc f   bncs_smart_string.obj
 0001:0009385b       ??1bncs_smart_string@@UAE@XZ 1009485b f   bncs_smart_string.obj
 0001:000939ec       ?defaultValues@bncs_smart_string@@UAEXXZ 100949ec f   bncs_smart_string.obj
 0001:00093ae0       ?cccInfoRevertive@bncs_smart_string@@EAEXHHABV?$basic_string@DU?$char_traits@D@std@@V?$allocator@D@2@@std@@@Z 10094ae0 f   bncs_smart_string.obj
 0001:00093b35       ?cccRtrRevertive@bncs_smart_string@@EAEXHHH@Z 10094b35 f   bncs_smart_string.obj
 0001:00093ba2       ?cccGpiRevertive@bncs_smart_string@@EAEXHH_N@Z 10094ba2 f   bncs_smart_string.obj
 0001:00093c11       ?handleRevertive@bncs_smart_string@@AAEXABVQString@@@Z 10094c11 f   bncs_smart_string.obj
 0001:00093cf4       ?setCaption@bncs_smart_string@@UAEXABVQString@@@Z 10094cf4 f   bncs_smart_string.obj
 0001:00094e86       ?createHelper@bncs_smart_string@@UAEPAVbncs_skin_base@@PAVbncs_ss_base@@PBD@Z 10095e86 f   bncs_smart_string.obj
 0001:00094fa7       ?setEnabled@bncs_smart_string@@EAEX_N@Z 10095fa7 f   bncs_smart_string.obj
 0001:00094fa7       ?setEnabled@bncs_range@@UAEX_N@Z 10095fa7 f   bncs_smart_string.obj
 0001:00094fa7       ?setEnabled@bncs_enum@@UAEX_N@Z 10095fa7 f   bncs_smart_string.obj
 0001:00094fcd       ?editAccepted@bncs_smart_string@@UAE?AVQStringList@@XZ 10095fcd f   bncs_smart_string.obj
 0001:00095d2d       ?addEditWidget@bncs_smart_string@@UAE?AVQWidgetList@@XZ 10096d2d f   bncs_smart_string.obj
 0001:00096385       ?editRejected@bncs_smart_string@@UAEXXZ 10097385 f   bncs_smart_string.obj
 0001:000963ba       ?validateDefaultString@bncs_smart_string@@QAEXABVQString@@@Z 100973ba f   bncs_smart_string.obj
 0001:000964e4       ?validateWidgetText@bncs_smart_string@@QAEXABVQString@@@Z 100974e4 f   bncs_smart_string.obj
 0001:000965eb       ?validateString@bncs_smart_string@@AAE_NVQString@@@Z 100975eb f   bncs_smart_string.obj
 0001:000967e6       ?ValidateInt@bncs_smart_string@@AAE_NVQString@@@Z 100977e6 f   bncs_smart_string.obj
 0001:00096876       ?ValidateDecimal@bncs_smart_string@@AAE_NVQString@@@Z 10097876 f   bncs_smart_string.obj
 0001:000969ae       ?ValidateAlpha@bncs_smart_string@@AAE_NVQString@@@Z 100979ae f   bncs_smart_string.obj
 0001:00096ace       ?ValidateStringLength@bncs_smart_string@@AAE_NVQString@@@Z 10097ace f   bncs_smart_string.obj
 0001:00096b4f       ?ValidateRegExp@bncs_smart_string@@AAE_NVQRegExp@@VQString@@@Z 10097b4f f   bncs_smart_string.obj
 0001:00096be1       ?setValue@bncs_smart_string@@AAEXABVQString@@_N@Z 10097be1 f   bncs_smart_string.obj
 0001:00096d93       ?deviceDescription@bncs_smart_string@@AAEXABVQString@@@Z 10097d93 f   bncs_smart_string.obj
 0001:00096fd6       ?stylechange@bncs_smart_string@@QAEXH@Z 10097fd6 f   bncs_smart_string.obj
 0001:00097053       ?timerEvent@bncs_smart_string@@EAEXPAVQTimerEvent@@@Z 10098053 f   bncs_smart_string.obj
 0001:00097065       ?startUp@bncs_smart_string@@EAEXXZ 10098065 f   bncs_smart_string.obj
 0001:0009726d       ?outputValue@bncs_smart_string@@QAEXXZ 1009826d f   bncs_smart_string.obj
 0001:000972f8       ?getDefaultStyle@bncs_smart_string@@UAE?AVQString@@XZ 100982f8 f   bncs_smart_string.obj
 0001:00097317       ?getPath@bncs_smart_string@@UAE?AVQString@@XZ 10098317 f   bncs_smart_string.obj
 0001:00097336       ?GetChildHelper@bncs_smart_string@@QAEPAVbncs_skin_base@@XZ 10098336 f   bncs_smart_string.obj
 0001:0009733d       ?help@bncs_smart_string@@QAEXXZ 1009833d f   bncs_smart_string.obj
 0001:0009737d       ?popupNotify@bncs_smart_string@@QAEXAAVQString@@@Z 1009837d f   bncs_smart_string.obj
 0001:0009749d       ?setPresetValue@bncs_smart_string@@QAEXABVQString@@@Z 1009849d f   bncs_smart_string.obj
 0001:000975c4       ??0bncs_smart_string_edit_settings@@QAE@PAVQWidget@@PBD_NI@Z 100985c4 f   bncs_smart_string_edit_settingsimpl.obj
 0001:00097694       ?metaObject@bncs_smart_string_edit_settings@@UBEPAVQMetaObject@@XZ 10098694 f i bncs_smart_string_edit_settingsimpl.obj
 0001:00097699       ??_Gbncs_smart_string_edit_settings@@UAEPAXI@Z 10098699 f i bncs_smart_string_edit_settingsimpl.obj
 0001:00097699       ??_Ebncs_smart_string_edit_settings@@UAEPAXI@Z 10098699 f i bncs_smart_string_edit_settingsimpl.obj
 0001:000976b5       ??1bncs_smart_string_edit_settings@@UAE@XZ 100986b5 f   bncs_smart_string_edit_settingsimpl.obj
 0001:000976fb       ?setChecksExclusiveLowerCase@bncs_smart_string_edit_settings@@QAEXXZ 100986fb f   bncs_smart_string_edit_settingsimpl.obj
 0001:00097718       ?setChecksExclusiveUpperCase@bncs_smart_string_edit_settings@@QAEXXZ 10098718 f   bncs_smart_string_edit_settingsimpl.obj
 0001:00097735       ?showInstanceBrowser@bncs_smart_string_edit_settings@@QAEXXZ 10098735 f   bncs_smart_string_edit_settingsimpl.obj
 0001:00097840       ?ParamChanged@bncs_smart_string_edit_settings@@QAEXABVQString@@@Z 10098840 f   bncs_smart_string_edit_settingsimpl.obj
 0001:0009787c       ?showParamBrowser@bncs_smart_string_edit_settings@@QAEXXZ 1009887c f   bncs_smart_string_edit_settingsimpl.obj
 0001:0009791c       ?InstanceChanged@bncs_smart_string_edit_settings@@QAEXABVQString@@@Z 1009891c f   bncs_smart_string_edit_settingsimpl.obj
 0001:000979af       ??_Ebncs_smart_string_edit_settings@@WCI@AEPAXI@Z 100989af f i bncs_smart_string_edit_settingsimpl.obj
 0001:000979b7       ??0bncs_smart_string_keyboard@@QAE@PAVbncs_ss_base@@@Z 100989b7 f   bncs_smart_string_keyboard.obj
 0001:00097a3d       ??_Ebncs_smart_string_keyboard@@UAEPAXI@Z 10098a3d f i bncs_smart_string_keyboard.obj
 0001:00097a3d       ??_Gbncs_smart_string_keyboard@@UAEPAXI@Z 10098a3d f i bncs_smart_string_keyboard.obj
 0001:00097a59       ??1bncs_smart_string_keyboard@@UAE@XZ 10098a59 f   bncs_smart_string_keyboard.obj
 0001:00097a68       ?setCaption@bncs_smart_string_keyboard@@UAEXPAVdecodeCaptionString@@AAVQString@@@Z 10098a68 f   bncs_smart_string_keyboard.obj
 0001:00097b83       ?editAccepted@bncs_smart_string_keyboard@@UAE?AVQStringList@@XZ 10098b83 f   bncs_smart_string_keyboard.obj
 0001:00097bc8       ?addEditWidget@bncs_smart_string_keyboard@@UAE?AVQWidgetList@@XZ 10098bc8 f   bncs_smart_string_keyboard.obj
 0001:00097c31       ?resizeEvent@bncs_smart_string_keyboard@@UAEXPAVQResizeEvent@@@Z 10098c31 f   bncs_smart_string_keyboard.obj
 0001:00097c31       ?resizeEvent@bncs_smart_string_lineedit@@UAEXPAVQResizeEvent@@@Z 10098c31 f   bncs_smart_string_keyboard.obj
 0001:00097c4d       ?showValue@bncs_smart_string_lineedit@@UAEXN@Z 10098c4d f   bncs_smart_string_keyboard.obj
 0001:00097c4d       ?showValue@bncs_range_button@@UAEXN@Z 10098c4d f   bncs_smart_string_keyboard.obj
 0001:00097c4d       ?showValue@bncs_smart_string_keyboard@@UAEXN@Z 10098c4d f   bncs_smart_string_keyboard.obj
 0001:00097c4d       ?notifyCallback@bncs_range_fader@@UAEXABVQString@@0@Z 10098c4d f   bncs_smart_string_keyboard.obj
 0001:00097c4d       ?showValue@bncs_skin_button@@UAEXN@Z 10098c4d f   bncs_smart_string_keyboard.obj
 0001:00097c50       ?updateWidgetText@bncs_smart_string_keyboard@@UAEXXZ 10098c50 f   bncs_smart_string_keyboard.obj
 0001:00097cd6       ?enableTextEntry@bncs_smart_string_keyboard@@UAEX_N@Z 10098cd6 f   bncs_smart_string_keyboard.obj
 0001:00097ce5       ??0bncs_smart_string_lineedit@@QAE@PAVbncs_ss_base@@@Z 10098ce5 f   bncs_smart_string_lineedit.obj
 0001:00097d76       ??_Ebncs_smart_string_lineedit@@UAEPAXI@Z 10098d76 f i bncs_smart_string_lineedit.obj
 0001:00097d76       ??_Gbncs_smart_string_lineedit@@UAEPAXI@Z 10098d76 f i bncs_smart_string_lineedit.obj
 0001:00097d92       ??1bncs_smart_string_lineedit@@UAE@XZ 10098d92 f   bncs_smart_string_lineedit.obj
 0001:00097ddb       ?setCaption@bncs_smart_string_lineedit@@UAEXPAVdecodeCaptionString@@AAVQString@@@Z 10098ddb f   bncs_smart_string_lineedit.obj
 0001:00097eda       ?editAccepted@bncs_smart_string_lineedit@@UAE?AVQStringList@@XZ 10098eda f   bncs_smart_string_lineedit.obj
 0001:00097f1f       ?addEditWidget@bncs_smart_string_lineedit@@UAE?AVQWidgetList@@XZ 10098f1f f   bncs_smart_string_lineedit.obj
 0001:00097f88       ?updateWidgetText@bncs_smart_string_lineedit@@UAEXXZ 10098f88 f   bncs_smart_string_lineedit.obj
 0001:00097fc9       ?enableTextEntry@bncs_smart_string_lineedit@@UAEX_N@Z 10098fc9 f   bncs_smart_string_lineedit.obj
 0001:00097fe7       ??0bncs_control@@QAE@PAVQWidget@@PBDI@Z 10098fe7 f   bncs_control.obj
 0001:00098081       ??1bncs_control@@UAE@XZ    10099081 f   bncs_control.obj
 0001:000980d1       ?paintEvent@bncs_control@@EAEXPAVQPaintEvent@@@Z 100990d1 f   bncs_control.obj
 0001:00098137       ?setCaption@bncs_control@@UAEXABVQString@@@Z 10099137 f   bncs_control.obj
 0001:00098146       ?mousePressEvent@bncs_control@@EAEXPAVQMouseEvent@@@Z 10099146 f   bncs_control.obj
 0001:00098155       ?mouseReleaseEvent@bncs_control@@EAEXPAVQMouseEvent@@@Z 10099155 f   bncs_control.obj
 0001:00098164       ?edit@bncs_control@@QAEXPA_N0@Z 10099164 f   bncs_control.obj
 0001:000981d8       ?editAccepted@bncs_control@@IAEXABVbncs_control_edit@@@Z 100991d8 f   bncs_control.obj
 0001:000997ca       ?resizeEvent@bncs_control@@EAEXPAVQResizeEvent@@@Z 1009a7ca f   bncs_control.obj
 0001:000997d9       ?setText@bncs_control@@QAEXABVQString@@@Z 1009a7d9 f   bncs_control.obj
 0001:000997fb       ?gettext@bncs_control@@QBE?AVQString@@XZ 1009a7fb f   bncs_control.obj
 0001:0009981c       ?setEnabled@bncs_control@@UAEX_N@Z 1009a81c f   bncs_control.obj
 0001:00099844       ?isEnabled@bncs_control@@QBE_NXZ 1009a844 f   bncs_control.obj
 0001:0009984b       ?notifyCallback@bncs_control@@UAEXABVQString@@0@Z 1009a84b f   bncs_control.obj
 0001:0009988d       ?showStyleBrowser@bncs_control@@QAEXPA_NABVQString@@@Z 1009a88d f   bncs_control.obj
 0001:0009998f       ??0bncs_control_edit_text@@QAE@PAVQWidget@@PBD_NI@Z 1009a98f f   bncs_control_edit_textimpl.obj
 0001:00099a10       ?metaObject@bncs_control_edit_text@@UBEPAVQMetaObject@@XZ 1009aa10 f i bncs_control_edit_textimpl.obj
 0001:00099a15       ??_Ebncs_control_edit_text@@UAEPAXI@Z 1009aa15 f i bncs_control_edit_textimpl.obj
 0001:00099a15       ??_Gbncs_control_edit_text@@UAEPAXI@Z 1009aa15 f i bncs_control_edit_textimpl.obj
 0001:00099a31       ??1bncs_control_edit_text@@UAE@XZ 1009aa31 f   bncs_control_edit_textimpl.obj
 0001:00099a43       ?text@bncs_control_edit_text@@QAE?AVQString@@XZ 1009aa43 f   bncs_control_edit_textimpl.obj
 0001:00099ade       ?setText@bncs_control_edit_text@@QAEXABVQString@@@Z 1009aade f   bncs_control_edit_textimpl.obj
 0001:00099b73       ?textChanged@bncs_control_edit_text@@QAEXXZ 1009ab73 f   bncs_control_edit_textimpl.obj
 0001:00099bed       ?doPrettyPrint@bncs_control_edit_text@@QAEXXZ 1009abed f   bncs_control_edit_textimpl.obj
 0001:00099c8a       ?help@bncs_control_edit_text@@QAEXXZ 1009ac8a f   bncs_control_edit_textimpl.obj
 0001:00099cca       ??_Ebncs_control_edit_text@@WCI@AEPAXI@Z 1009acca f i bncs_control_edit_textimpl.obj
 0001:00099cd2       ??0bncs_control_edit@@QAE@PAVQWidget@@PBD_NI@Z 1009acd2 f   bncs_control_editimpl.obj
 0001:0009a681       ?metaObject@bncs_control_edit@@UBEPAVQMetaObject@@XZ 1009b681 f i bncs_control_editimpl.obj
 0001:0009a686       ??_Gbncs_control_edit@@UAEPAXI@Z 1009b686 f i bncs_control_editimpl.obj
 0001:0009a686       ??_Ebncs_control_edit@@UAEPAXI@Z 1009b686 f i bncs_control_editimpl.obj
 0001:0009a6a2       ??1bncs_control_edit@@UAE@XZ 1009b6a2 f   bncs_control_editimpl.obj
 0001:0009a6b4       ?styleTextChange@bncs_control_edit@@QAEXABVQString@@@Z 1009b6b4 f   bncs_control_editimpl.obj
 0001:0009a70d       ?showColourBrowser@bncs_control_edit@@QAEXXZ 1009b70d f   bncs_control_editimpl.obj
 0001:0009a8c8       ?showStateBrowser@bncs_control_edit@@QAEXXZ 1009b8c8 f   bncs_control_editimpl.obj
 0001:0009a95d       ?showStyleBrowser@bncs_control_edit@@QAEXXZ 1009b95d f   bncs_control_editimpl.obj
 0001:0009a9f2       ?help@bncs_control_edit@@QAEXXZ 1009b9f2 f   bncs_control_editimpl.obj
 0001:0009aa32       ?updateOrientation@bncs_control_edit@@QAEXXZ 1009ba32 f   bncs_control_editimpl.obj
 0001:0009aaac       ?updateOrientationRBs@bncs_control_edit@@QAEXH@Z 1009baac f   bncs_control_editimpl.obj
 0001:0009ab4a       ?browsePixmap@bncs_control_edit@@QAEXXZ 1009bb4a f   bncs_control_editimpl.obj
 0001:0009ab95       ?browsePixmapTopLeft@bncs_control_edit@@QAEXXZ 1009bb95 f   bncs_control_editimpl.obj
 0001:0009abe0       ?browsePixmapTop@bncs_control_edit@@QAEXXZ 1009bbe0 f   bncs_control_editimpl.obj
 0001:0009ac2b       ?browsePixmapTopRight@bncs_control_edit@@QAEXXZ 1009bc2b f   bncs_control_editimpl.obj
 0001:0009ac76       ?browsePixmapLeft@bncs_control_edit@@QAEXXZ 1009bc76 f   bncs_control_editimpl.obj
 0001:0009acc1       ?browsePixmapCentre@bncs_control_edit@@QAEXXZ 1009bcc1 f   bncs_control_editimpl.obj
 0001:0009ad0c       ?browsePixmapRight@bncs_control_edit@@QAEXXZ 1009bd0c f   bncs_control_editimpl.obj
 0001:0009ad57       ?browsePixmapBottomLeft@bncs_control_edit@@QAEXXZ 1009bd57 f   bncs_control_editimpl.obj
 0001:0009ada2       ?browsePixmapBottom@bncs_control_edit@@QAEXXZ 1009bda2 f   bncs_control_editimpl.obj
 0001:0009aded       ?browsePixmapBottomRight@bncs_control_edit@@QAEXXZ 1009bded f   bncs_control_editimpl.obj
 0001:0009ae38       ?doFileBrowse@bncs_control_edit@@AAEXABVQString@@PAVQLineEdit@@@Z 1009be38 f   bncs_control_editimpl.obj
 0001:0009b27e       ?editText@bncs_control_edit@@QAEXXZ 1009c27e f   bncs_control_editimpl.obj
 0001:0009b32e       ?editSvg@bncs_control_edit@@QAEXXZ 1009c32e f   bncs_control_editimpl.obj
 0001:0009b423       ??_Ebncs_control_edit@@WCI@AEPAXI@Z 1009c423 f i bncs_control_editimpl.obj
 0001:0009b42b       ??0bncs_control_funcs@@QAE@PAVQWidget@@@Z 1009c42b f   bncs_control_funcs.obj
 0001:0009b555       ??1bncs_control_funcs@@UAE@XZ 1009c555 f   bncs_control_funcs.obj
 0001:0009b68b       ?doPaintEvent@bncs_control_funcs@@QAEXPAVQPaintEvent@@PAVQWidget@@ABVQRect@@ABVQStyle@@ABVQColorGroup@@ABVQFont@@@Z 1009c68b f   bncs_control_funcs.obj
 0001:0009c3a4       ?doSetCaption@bncs_control_funcs@@QAEXABVQString@@@Z 1009d3a4 f   bncs_control_funcs.obj
 0001:0009f293       ?path@global@@SA?AVQString@@XZ 100a0293 f i bncs_control_funcs.obj
 0001:0009f31e       ??_GQPixmap@@UAEPAXI@Z     100a031e f i bncs_control_funcs.obj
 0001:0009f31e       ??_EQPixmap@@UAEPAXI@Z     100a031e f i bncs_control_funcs.obj
 0001:0009f33b       ??_GQPicture@@UAEPAXI@Z    100a033b f i bncs_control_funcs.obj
 0001:0009f33b       ??_EQPicture@@UAEPAXI@Z    100a033b f i bncs_control_funcs.obj
 0001:0009f358       ?doMousePressEvent@bncs_control_funcs@@QAEXPAVQMouseEvent@@@Z 100a0358 f   bncs_control_funcs.obj
 0001:0009f507       ?doMouseReleaseEvent@bncs_control_funcs@@QAEXPAVQMouseEvent@@@Z 100a0507 f   bncs_control_funcs.obj
 0001:0009f5fe       ?doDefaultValues@bncs_control_funcs@@QAEXXZ 100a05fe f   bncs_control_funcs.obj
 0001:0009f700       ?alignToString@bncs_control_funcs@@QAE?AVQString@@HH@Z 100a0700 f   bncs_control_funcs.obj
 0001:0009f7a4       ?stringToAlign@bncs_control_funcs@@QAEXAAVQString@@PAH1@Z 100a07a4 f   bncs_control_funcs.obj
 0001:0009f8b7       ?godoublepush@bncs_control_funcs@@QAEX_N@Z 100a08b7 f   bncs_control_funcs.obj
 0001:0009fc29       ?doResizeEvent@bncs_control_funcs@@QAEXPAVQResizeEvent@@@Z 100a0c29 f   bncs_control_funcs.obj
 0001:0009fd1f       ?calcMinimumSize@bncs_control_funcs@@QAEXXZ 100a0d1f f   bncs_control_funcs.obj
 0001:0009ffb3       ?calcWidthAndHeight@bncs_control_funcs@@QAEXPAH0@Z 100a0fb3 f   bncs_control_funcs.obj
 0001:000a02a1       ?calcDrawRect@bncs_control_funcs@@QAE?AVQRect@@HHABV2@0@Z 100a12a1 f   bncs_control_funcs.obj
 0001:000a0370       ?setNotifyCallback@bncs_control_funcs@@QAEXPAVnotifyCallbackClass@@@Z 100a1370 f   bncs_control_funcs.obj
 0001:000a037a       ?timerCallback@bncs_control_funcs@@EAEXH@Z 100a137a f   bncs_control_funcs.obj
 0001:000a03a2       ?setEnabled@bncs_control_funcs@@QAEX_N@Z 100a13a2 f   bncs_control_funcs.obj
 0001:000a03bc       ?round@bncs_control_funcs@@QAEHN@Z 100a13bc f   bncs_control_funcs.obj
 0001:000a03e5       ??0bncs_sourcegrid@@QAE@PAVQWidget@@PBD@Z 100a13e5 f   bncs_sourcegrid.obj
 0001:000a0525       ??1bncs_sourcegrid@@UAE@XZ 100a1525 f   bncs_sourcegrid.obj
 0001:000a0655       ?cccInfoRevertive@bncs_sourcegrid@@EAEXHHABV?$basic_string@DU?$char_traits@D@std@@V?$allocator@D@2@@std@@@Z 100a1655 f   bncs_sourcegrid.obj
 0001:000a0afa       ?cccRtrRevertive@bncs_sourcegrid@@EAEXHHH@Z 100a1afa f   bncs_sourcegrid.obj
 0001:000a0f2f       ?setCaption@bncs_sourcegrid@@UAEXABVQString@@@Z 100a1f2f f   bncs_sourcegrid.obj
 0001:000a2610       ?doEmulateButton@bncs_sourcegrid@@AAEXXZ 100a3610 f   bncs_sourcegrid.obj
 0001:000a26ea       ?edit@bncs_sourcegrid@@QAEXPA_N0@Z 100a36ea f   bncs_sourcegrid.obj
 0001:000a38c5       ?defaultvalues@bncs_sourcegrid@@AAEXXZ 100a48c5 f   bncs_sourcegrid.obj
 0001:000a39dc       ?buildGrid@bncs_sourcegrid@@AAEXXZ 100a49dc f   bncs_sourcegrid.obj
 0001:000a43c0       ?resizeEvent@bncs_sourcegrid@@UAEXPAVQResizeEvent@@@Z 100a53c0 f   bncs_sourcegrid.obj
 0001:000a43e3       ?notify_in@bncs_sourcegrid@@QAEXAAVQString@@@Z 100a53e3 f   bncs_sourcegrid.obj
 0001:000a4588       ?buttonReleased@bncs_sourcegrid@@AAEXABVQString@@0@Z 100a5588 f   bncs_sourcegrid.obj
 0001:000a483e       ?writeNames@bncs_sourcegrid@@AAEXXZ 100a583e f   bncs_sourcegrid.obj
 0001:000a511e       ?setHighlight@bncs_sourcegrid@@AAEXPBD@Z 100a611e f   bncs_sourcegrid.obj
 0001:000a5230       ?show@bncs_smart_string_keyboard@@UAEXXZ 100a6230 f   bncs_sourcegrid.obj
 0001:000a5230       ?show@bncs_enum_line@@UAEXXZ 100a6230 f   bncs_sourcegrid.obj
 0001:000a5230       ?destroyed@bncs_sourcegrid@@QAEXXZ 100a6230 f   bncs_sourcegrid.obj
 0001:000a5230       ?editRejected@bncs_smart_string_lineedit@@UAEXXZ 100a6230 f   bncs_sourcegrid.obj
 0001:000a5230       ?childDestroyed@bncs_popup@@QAEXXZ 100a6230 f   bncs_sourcegrid.obj
 0001:000a5230       ?editRejected@bncs_smart_string_keyboard@@UAEXXZ 100a6230 f   bncs_sourcegrid.obj
 0001:000a5230       ?removeEditWidget@bncs_smart_string_lineedit@@UAEXXZ 100a6230 f   bncs_sourcegrid.obj
 0001:000a5230       ?updateWidgetText@bncs_enum_list@@UAEXXZ 100a6230 f   bncs_sourcegrid.obj
 0001:000a5230       ?removeEditWidget@bncs_smart_string_keyboard@@UAEXXZ 100a6230 f   bncs_sourcegrid.obj
 0001:000a5230       ?show@bncs_smart_string_lineedit@@UAEXXZ 100a6230 f   bncs_sourcegrid.obj
 0001:000a5230       ?widgetDestroyed@bncs_enum_list@@QAEXXZ 100a6230 f   bncs_sourcegrid.obj
 0001:000a5231       ?startUp@bncs_sourcegrid@@EAEXXZ 100a6231 f   bncs_sourcegrid.obj
 0001:000a525e       ?setBNCSControl@bncs_sourcegrid@@AAEPAVbncs_control@@ABVQString@@0@Z 100a625e f   bncs_sourcegrid.obj
 0001:000a5296       ?nameToInt@bncs_sourcegrid@@AAEHPBD@Z 100a6296 f   bncs_sourcegrid.obj
 0001:000a533e       ?clearLabels@bncs_sourcegrid@@AAEXXZ 100a633e f   bncs_sourcegrid.obj
 0001:000a57f6       ?showStyleBrowser@bncs_sourcegrid@@QAEXPA_NABVQString@@@Z 100a67f6 f   bncs_sourcegrid.obj
 0001:000a58d3       ?GetPrivateINIString@bncs_sourcegrid_locks@@AAE?AVQString@@V2@00@Z 100a68d3 f   bncs_sourcegrid_locks.obj
 0001:000a5a33       ??0bncs_sourcegrid_locks@@QAE@XZ 100a6a33 f   bncs_sourcegrid_locks.obj
 0001:000a5a5d       ?loadLockedDestinationsFromDevIni@bncs_sourcegrid_locks@@QAEXH@Z 100a6a5d f   bncs_sourcegrid_locks.obj
 0001:000a5edc       ?isLocked@bncs_sourcegrid_locks@@QAE_NHH@Z 100a6edc f   bncs_sourcegrid_locks.obj
 0001:000a5f0f       ??0bncs_sourcegrideditdlg@@QAE@PAVQWidget@@PBD_NI@Z 100a6f0f f   bncs_sourcegrideditimpl.obj
 0001:000a6008       ?metaObject@bncs_sourcegrideditdlg@@UBEPAVQMetaObject@@XZ 100a7008 f i bncs_sourcegrideditimpl.obj
 0001:000a600d       ??_Ebncs_sourcegrideditdlg@@UAEPAXI@Z 100a700d f i bncs_sourcegrideditimpl.obj
 0001:000a600d       ??_Gbncs_sourcegrideditdlg@@UAEPAXI@Z 100a700d f i bncs_sourcegrideditimpl.obj
 0001:000a6029       ??1bncs_sourcegrideditdlg@@UAE@XZ 100a7029 f   bncs_sourcegrideditimpl.obj
 0001:000a603b       ?showStyleBrowser@bncs_sourcegrideditdlg@@QAEXXZ 100a703b f   bncs_sourcegrideditimpl.obj
 0001:000a61ea       ?showStateBrowser@bncs_sourcegrideditdlg@@QAEXXZ 100a71ea f   bncs_sourcegrideditimpl.obj
 0001:000a6331       ?help@bncs_sourcegrideditdlg@@QAEXXZ 100a7331 f   bncs_sourcegrideditimpl.obj
 0001:000a6371       ??_Ebncs_sourcegrideditdlg@@WCI@AEPAXI@Z 100a7371 f i bncs_sourcegrideditimpl.obj
 0001:000a6379       ??0bncs_clock@@QAE@PAVQWidget@@PBD@Z 100a7379 f   bncs_clock.obj
 0001:000a64a0       ?polish@bncs_clock@@UAEXXZ 100a74a0 f   bncs_clock.obj
 0001:000a64a5       ?paintEvent@bncs_clock@@UAEXPAVQPaintEvent@@@Z 100a74a5 f   bncs_clock.obj
 0001:000a6810       ?setCaption@bncs_clock@@UAEXABVQString@@@Z 100a7810 f   bncs_clock.obj
 0001:000a75cf       ?edit@bncs_clock@@QAEXPA_N0@Z 100a85cf f   bncs_clock.obj
 0001:000a7c1a       ?defaultvalues@bncs_clock@@AAEXXZ 100a8c1a f   bncs_clock.obj
 0001:000a7cc4       ?tick@bncs_clock@@AAEXXZ   100a8cc4 f   bncs_clock.obj
 0001:000a7d46       ?clearDisplay@bncs_clock@@AAEXXZ 100a8d46 f   bncs_clock.obj
 0001:000a7d8d       ?resizeEvent@bncs_clock@@MAEXPAVQResizeEvent@@@Z 100a8d8d f   bncs_clock.obj
 0001:000a7e24       ?drawClock@bncs_clock@@AAEXXZ 100a8e24 f   bncs_clock.obj
 0001:000a82f6       ??_EQLCDNumber@@UAEPAXI@Z  100a92f6 f i bncs_clock.obj
 0001:000a82f6       ??_GQLCDNumber@@UAEPAXI@Z  100a92f6 f i bncs_clock.obj
 0001:000a8313       ?genMask@bncs_clock@@AAEXXZ 100a9313 f   bncs_clock.obj
 0001:000a842e       ??_EQLCDNumber@@WCI@AEPAXI@Z 100a942e f i bncs_clock.obj
 0001:000a8436       ??0bncs_clock_edit@@QAE@PAVQWidget@@PBD_NI@Z 100a9436 f   bncs_clock_editimpl.obj
 0001:000a857b       ?metaObject@bncs_clock_edit@@UBEPAVQMetaObject@@XZ 100a957b f i bncs_clock_editimpl.obj
 0001:000a8580       ??_Ebncs_clock_edit@@UAEPAXI@Z 100a9580 f i bncs_clock_editimpl.obj
 0001:000a8580       ??_Gbncs_clock_edit@@UAEPAXI@Z 100a9580 f i bncs_clock_editimpl.obj
 0001:000a859c       ??1bncs_clock_edit@@UAE@XZ 100a959c f   bncs_clock_editimpl.obj
 0001:000a85ae       ?showColourBrowser@bncs_clock_edit@@QAEXXZ 100a95ae f   bncs_clock_editimpl.obj
 0001:000a87d5       ?setAnalog@bncs_clock_edit@@QAEX_N@Z 100a97d5 f   bncs_clock_editimpl.obj
 0001:000a8824       ?setDigital@bncs_clock_edit@@QAEX_N@Z 100a9824 f   bncs_clock_editimpl.obj
 0001:000a886c       ?set7Seg@bncs_clock_edit@@QAEX_N@Z 100a986c f   bncs_clock_editimpl.obj
 0001:000a88b3       ?showStyleBrowser@bncs_clock_edit@@QAEXXZ 100a98b3 f   bncs_clock_editimpl.obj
 0001:000a8948       ?styleSheetChanged@bncs_clock_edit@@QAEXABVQString@@@Z 100a9948 f   bncs_clock_editimpl.obj
 0001:000a896f       ?help@bncs_clock_edit@@QAEXXZ 100a996f f   bncs_clock_editimpl.obj
 0001:000a89af       ??_Ebncs_clock_edit@@WCI@AEPAXI@Z 100a99af f i bncs_clock_editimpl.obj
 0001:000a89b7       ?staticMetaObject@QAxBase@@CAPAVQMetaObject@@XZ 100a99b7 f i bncs_ie.obj
 0001:000a89ba       ??0QAxBase@@QAE@ABV0@@Z    100a99ba f i bncs_ie.obj
 0001:000a89e0       ??4QAxBase@@QAEAAV0@ABV0@@Z 100a99e0 f i bncs_ie.obj
 0001:000a8a00       ??_FQAxBase@@QAEXXZ        100a9a00 f i bncs_ie.obj
 0001:000a8a08       ??_EQAxBase@@UAEPAXI@Z     100a9a08 f i bncs_ie.obj
 0001:000a8a53       ?qObject@QAxWidget@@UAEPAVQObject@@XZ 100a9a53 f i bncs_ie.obj
 0001:000a8a57       ??0QAxWidget@@QAE@ABV0@@Z  100a9a57 f i bncs_ie.obj
 0001:000a8ac8       ??4QAxWidget@@QAEAAV0@ABV0@@Z 100a9ac8 f i bncs_ie.obj
 0001:000a8b02       ??_FQAxWidget@@QAEXXZ      100a9b02 f i bncs_ie.obj
 0001:000a8b0d       ??_EQAxWidget@@UAEPAXI@Z   100a9b0d f i bncs_ie.obj
 0001:000a8b58       ??0bncs_ie@@QAE@PAVQWidget@@PBD@Z 100a9b58 f   bncs_ie.obj
 0001:000a8be6       ??1bncs_ie@@UAE@XZ         100a9be6 f   bncs_ie.obj
 0001:000a8c5c       ?timerEvent@bncs_edittext@@EAEXPAVQTimerEvent@@@Z 100a9c5c f   bncs_ie.obj
 0001:000a8c5c       ?timerEvent@bncs_ie@@UAEXPAVQTimerEvent@@@Z 100a9c5c f   bncs_ie.obj
 0001:000a8c81       ?startUp@bncs_ie@@EAEXXZ   100a9c81 f   bncs_ie.obj
 0001:000a8e4e       ?setCaption@bncs_ie@@UAEXABVQString@@@Z 100a9e4e f   bncs_ie.obj
 0001:000a93ba       ?edit@bncs_ie@@QAEXPA_N0@Z 100aa3ba f   bncs_ie.obj
 0001:000a9571       ?defaultvalues@bncs_ie@@AAEXXZ 100aa571 f   bncs_ie.obj
 0001:000a958a       ?resizeEvent@bncs_ie@@UAEXPAVQResizeEvent@@@Z 100aa58a f   bncs_ie.obj
 0001:000a95ad       ?TitleChange@bncs_ie@@QAEXABVQString@@@Z 100aa5ad f   bncs_ie.obj
 0001:000a9626       ??_EQAxWidget@@WCI@AEPAXI@Z 100aa626 f i bncs_ie.obj
 0001:000a962e       ??_EQAxWidget@@WGM@AEPAXI@Z 100aa62e f i bncs_ie.obj
 0001:000a9636       ?metaObject@QAxWidget@@WGM@BEPAVQMetaObject@@XZ 100aa636 f i bncs_ie.obj
 0001:000a963e       ?qt_invoke@QAxWidget@@WGM@AE_NHPAUQUObject@@@Z 100aa63e f i bncs_ie.obj
 0001:000a9646       ?qt_property@QAxWidget@@WGM@AE_NHHPAVQVariant@@@Z 100aa646 f i bncs_ie.obj
 0001:000a964e       ?qt_emit@QAxWidget@@WGM@AE_NHPAUQUObject@@@Z 100aa64e f i bncs_ie.obj
 0001:000a9656       ?className@QAxWidget@@WGM@BEPBDXZ 100aa656 f i bncs_ie.obj
 0001:000a965e       ??0bncs_ie_edit@@QAE@PAVQWidget@@PBD_NI@Z 100aa65e f   bncs_ie_editimpl.obj
 0001:000a9689       ?metaObject@bncs_ie_edit@@UBEPAVQMetaObject@@XZ 100aa689 f i bncs_ie_editimpl.obj
 0001:000a968e       ??_Gbncs_ie_edit@@UAEPAXI@Z 100aa68e f i bncs_ie_editimpl.obj
 0001:000a968e       ??_Ebncs_ie_edit@@UAEPAXI@Z 100aa68e f i bncs_ie_editimpl.obj
 0001:000a96aa       ??1bncs_ie_edit@@UAE@XZ    100aa6aa f   bncs_ie_editimpl.obj
 0001:000a96bc       ??_Ebncs_ie_edit@@WCI@AEPAXI@Z 100aa6bc f i bncs_ie_editimpl.obj
 0001:000a96c4       ??0bncs_edittext@@QAE@PAVQWidget@@PBD@Z 100aa6c4 f   bncs_edittext.obj
 0001:000a9919       ??1bncs_edittext@@UAE@XZ   100aa919 f   bncs_edittext.obj
 0001:000a999f       ?setCaption@bncs_edittext@@UAEXABVQString@@@Z 100aa99f f   bncs_edittext.obj
 0001:000aa7e0       ?edit@bncs_edittext@@QAEXPA_N0@Z 100ab7e0 f   bncs_edittext.obj
 0001:000aabc6       ?defaultvalues@bncs_edittext@@AAEXXZ 100abbc6 f   bncs_edittext.obj
 0001:000aabea       ?doReturnPressed@bncs_edittext@@QAEXXZ 100abbea f   bncs_edittext.obj
 0001:000aac54       ?startUp@bncs_edittext@@EAEXXZ 100abc54 f   bncs_edittext.obj
 0001:000aac64       ?ourTextChanged@bncs_edittext@@QAEXABVQString@@@Z 100abc64 f   bncs_edittext.obj
 0001:000aacb7       ?resizeEvent@bncs_edittext@@EAEXPAVQResizeEvent@@@Z 100abcb7 f   bncs_edittext.obj
 0001:000aacda       ?text@bncs_edittext@@AAE?AVQString@@XZ 100abcda f   bncs_edittext.obj
 0001:000aad27       ?setText@bncs_edittext@@AAEXABVQString@@@Z 100abd27 f   bncs_edittext.obj
 0001:000aada7       ?clear@bncs_edittext@@AAEXXZ 100abda7 f   bncs_edittext.obj
 0001:000aae10       ??0bncs_editTextDialog@@QAE@PAVQWidget@@PBD_NI@Z 100abe10 f   bncs_edittextdialogimpl.obj
 0001:000aaeda       ?metaObject@bncs_editTextDialog@@UBEPAVQMetaObject@@XZ 100abeda f i bncs_edittextdialogimpl.obj
 0001:000aaedf       ??_Gbncs_editTextDialog@@UAEPAXI@Z 100abedf f i bncs_edittextdialogimpl.obj
 0001:000aaedf       ??_Ebncs_editTextDialog@@UAEPAXI@Z 100abedf f i bncs_edittextdialogimpl.obj
 0001:000aaefb       ??1bncs_editTextDialog@@UAE@XZ 100abefb f   bncs_edittextdialogimpl.obj
 0001:000aaf0d       ?showStateBrowser@bncs_editTextDialog@@QAEXXZ 100abf0d f   bncs_edittextdialogimpl.obj
 0001:000aafa2       ?showStyleBrowser@bncs_editTextDialog@@QAEXXZ 100abfa2 f   bncs_edittextdialogimpl.obj
 0001:000ab037       ?showColourBrowser@bncs_editTextDialog@@QAEXXZ 100ac037 f   bncs_edittextdialogimpl.obj
 0001:000ab186       ?styleTextChanged@bncs_editTextDialog@@QAEXABVQString@@@Z 100ac186 f   bncs_edittextdialogimpl.obj
 0001:000ab22e       ?help@bncs_editTextDialog@@QAEXXZ 100ac22e f   bncs_edittextdialogimpl.obj
 0001:000ab26e       ??_Ebncs_editTextDialog@@WCI@AEPAXI@Z 100ac26e f i bncs_edittextdialogimpl.obj
 0001:000ab276       ??0bncs_line@@QAE@PAVQWidget@@PBD@Z 100ac276 f   bncs_line.obj
 0001:000ab301       ?paintEvent@bncs_line@@UAEXPAVQPaintEvent@@@Z 100ac301 f   bncs_line.obj
 0001:000ab37e       ?setCaption@bncs_line@@UAEXABVQString@@@Z 100ac37e f   bncs_line.obj
 0001:000abd0d       ?pointsChanged@bncs_line@@QAEXABVQString@@@Z 100acd0d f   bncs_line.obj
 0001:000abd5a       ?colourChanged@bncs_line@@QAEXABVQString@@@Z 100acd5a f   bncs_line.obj
 0001:000abda7       ?penWidthChanged@bncs_line@@QAEXABVQString@@@Z 100acda7 f   bncs_line.obj
 0001:000abdf4       ?edit@bncs_line@@QAEXPA_N0@Z 100acdf4 f   bncs_line.obj
 0001:000ac755       ?defaultvalues@bncs_line@@AAEXXZ 100ad755 f   bncs_line.obj
 0001:000ac7ab       ?mousePressEvent@bncs_line@@UAEXPAVQMouseEvent@@@Z 100ad7ab f   bncs_line.obj
 0001:000ac801       ?mouseReleaseEvent@bncs_line@@UAEXPAVQMouseEvent@@@Z 100ad801 f   bncs_line.obj
 0001:000ac8aa       ?resizeEvent@bncs_line@@UAEXPAVQResizeEvent@@@Z 100ad8aa f   bncs_line.obj
 0001:000ac8b2       ?calcMask@bncs_line@@QAEXXZ 100ad8b2 f   bncs_line.obj
 0001:000ac9bc       ?help@bncs_line@@QAEXXZ    100ad9bc f   bncs_line.obj
 0001:000ac9fc       ?showStyleBrowser@bncs_line@@QAEXPA_NABVQString@@@Z 100ad9fc f   bncs_line.obj
 0001:000acafc       ??0editdialog@@QAE@PAVQWidget@@PBDI@Z 100adafc f   bncs_lineeditdialogimpl.obj
 0001:000acbd9       ?metaObject@editdialog@@UBEPAVQMetaObject@@XZ 100adbd9 f i bncs_lineeditdialogimpl.obj
 0001:000acbde       ??0icons@@QAE@PAVQIconView@@PBDVQPixmap@@@Z 100adbde f i bncs_lineeditdialogimpl.obj
 0001:000acc66       ??_Eicons@@UAEPAXI@Z       100adc66 f i bncs_lineeditdialogimpl.obj
 0001:000acc66       ??_Gicons@@UAEPAXI@Z       100adc66 f i bncs_lineeditdialogimpl.obj
 0001:000acc82       ??1icons@@UAE@XZ           100adc82 f i bncs_lineeditdialogimpl.obj
 0001:000accb9       ??_Geditdialog@@UAEPAXI@Z  100adcb9 f i bncs_lineeditdialogimpl.obj
 0001:000accb9       ??_Eeditdialog@@UAEPAXI@Z  100adcb9 f i bncs_lineeditdialogimpl.obj
 0001:000accd5       ??1editdialog@@UAE@XZ      100adcd5 f   bncs_lineeditdialogimpl.obj
 0001:000acce7       ?selectionChanged@editdialog@@QAEXPAVQIconViewItem@@@Z 100adce7 f   bncs_lineeditdialogimpl.obj
 0001:000acd00       ?checkStyle@editdialog@@QAEXABVQString@@@Z 100add00 f   bncs_lineeditdialogimpl.obj
 0001:000acd6f       ?showStyleBrowser@editdialog@@QAEXXZ 100add6f f   bncs_lineeditdialogimpl.obj
 0001:000ace01       ?showColourBrowser@editdialog@@QAEXXZ 100ade01 f   bncs_lineeditdialogimpl.obj
 0001:000acf03       ??_Eeditdialog@@WCI@AEPAXI@Z 100adf03 f i bncs_lineeditdialogimpl.obj
 0001:000acf0b       ??0uiHost@@QAE@PAVQWidget@@PBD@Z 100adf0b f   uiHost.obj
 0001:000acfc6       ??1?$set@VQString@@U?$less@VQString@@@std@@V?$allocator@VQString@@@3@@std@@QAE@XZ 100adfc6 f i uiHost.obj
 0001:000acfcb       ??1uiHost@@UAE@XZ          100adfcb f   uiHost.obj
 0001:000ad069       ?setCaption@uiHost@@UAEXABVQString@@@Z 100ae069 f   uiHost.obj
 0001:000adcc9       ??1?$pair@VQString@@V1@@std@@QAE@XZ 100aecc9 f i uiHost.obj
 0001:000add00       ?edit@uiHost@@QAEXPA_N0@Z  100aed00 f   uiHost.obj
 0001:000ae0c2       ?defaultvalues@uiHost@@AAEXXZ 100af0c2 f   uiHost.obj
 0001:000ae101       ?resizeEvent@uiHost@@MAEXPAVQResizeEvent@@@Z 100af101 f   uiHost.obj
 0001:000ae121       ??1?$_Tree@VQString@@V1@U_Kfn@?$set@VQString@@U?$less@VQString@@@std@@V?$allocator@VQString@@@3@@std@@U?$less@VQString@@@4@V?$allocator@VQString@@@4@@std@@QAE@XZ 100af121 f i uiHost.obj
 0001:000ae182       ?insert@?$_Tree@VQString@@U?$pair@$$CBVQString@@V1@@std@@U_Kfn@?$map@VQString@@V1@U?$less@VQString@@@std@@V?$allocator@VQString@@@3@@3@U?$less@VQString@@@3@V?$allocator@VQString@@@3@@std@@QAE?AU?$pair@Viterator@?$_Tree@VQString@@U?$pair@$$CBVQString@@V1@@std@@U_Kfn@?$map@VQString@@V1@U?$less@VQString@@@std@@V?$allocator@VQString@@@3@@3@U?$less@VQString@@@3@V?$allocator@VQString@@@3@@std@@_N@2@ABU?$pair@$$CBVQString@@V1@@2@@Z 100af182 f i uiHost.obj
 0001:000ae231       ?clear@?$_Tree@VQString@@U?$pair@$$CBVQString@@V1@@std@@U_Kfn@?$map@VQString@@V1@U?$less@VQString@@@std@@V?$allocator@VQString@@@3@@3@U?$less@VQString@@@3@V?$allocator@VQString@@@3@@std@@QAEXXZ 100af231 f i uiHost.obj
 0001:000ae245       ?find@?$_Tree@VQString@@U?$pair@$$CBVQString@@V1@@std@@U_Kfn@?$map@VQString@@V1@U?$less@VQString@@@std@@V?$allocator@VQString@@@3@@3@U?$less@VQString@@@3@V?$allocator@VQString@@@3@@std@@QAE?AViterator@12@ABVQString@@@Z 100af245 f i uiHost.obj
 0001:000ae289       ?insert@?$_Tree@VQString@@V1@U_Kfn@?$set@VQString@@U?$less@VQString@@@std@@V?$allocator@VQString@@@3@@std@@U?$less@VQString@@@4@V?$allocator@VQString@@@4@@std@@QAE?AU?$pair@Viterator@?$_Tree@VQString@@V1@U_Kfn@?$set@VQString@@U?$less@VQString@@@std@@V?$allocator@VQString@@@3@@std@@U?$less@VQString@@@4@V?$allocator@VQString@@@4@@std@@_N@2@ABVQString@@@Z 100af289 f i uiHost.obj
 0001:000ae338       ?clear@?$_Tree@VQString@@V1@U_Kfn@?$set@VQString@@U?$less@VQString@@@std@@V?$allocator@VQString@@@3@@std@@U?$less@VQString@@@4@V?$allocator@VQString@@@4@@std@@QAEXXZ 100af338 f i uiHost.obj
 0001:000ae34c       ??0?$pair@Viterator@?$_Tree@VQString@@V1@U_Kfn@?$set@VQString@@U?$less@VQString@@@std@@V?$allocator@VQString@@@3@@std@@U?$less@VQString@@@4@V?$allocator@VQString@@@4@@std@@_N@std@@QAE@ABViterator@?$_Tree@VQString@@V1@U_Kfn@?$set@VQString@@U?$less@VQString@@@std@@V?$allocator@VQString@@@3@@std@@U?$less@VQString@@@4@V?$allocator@VQString@@@4@@1@AB_N@Z 100af34c f i uiHost.obj
 0001:000ae34c       ??0?$pair@Viterator@?$_Tree@VQString@@U?$pair@$$CBVQString@@V1@@std@@U_Kfn@?$map@VQString@@V1@U?$less@VQString@@@std@@V?$allocator@VQString@@@3@@3@U?$less@VQString@@@3@V?$allocator@VQString@@@3@@std@@_N@std@@QAE@ABViterator@?$_Tree@VQString@@U?$pair@$$CBVQString@@V1@@std@@U_Kfn@?$map@VQString@@V1@U?$less@VQString@@@std@@V?$allocator@VQString@@@3@@3@U?$less@VQString@@@3@V?$allocator@VQString@@@3@@1@AB_N@Z 100af34c f i uiHost.obj
 0001:000ae362       ?_Insert@?$_Tree@VQString@@U?$pair@$$CBVQString@@V1@@std@@U_Kfn@?$map@VQString@@V1@U?$less@VQString@@@std@@V?$allocator@VQString@@@3@@3@U?$less@VQString@@@3@V?$allocator@VQString@@@3@@std@@IAE?AViterator@12@PAU_Node@12@0ABU?$pair@$$CBVQString@@V1@@2@@Z 100af362 f i uiHost.obj
 0001:000ae4bc       ?_Insert@?$_Tree@VQString@@V1@U_Kfn@?$set@VQString@@U?$less@VQString@@@std@@V?$allocator@VQString@@@3@@std@@U?$less@VQString@@@4@V?$allocator@VQString@@@4@@std@@IAE?AViterator@12@PAU_Node@12@0ABVQString@@@Z 100af4bc f i uiHost.obj
 0001:000ae616       ?_Lbound@?$_Tree@VQString@@U?$pair@$$CBVQString@@V1@@std@@U_Kfn@?$map@VQString@@V1@U?$less@VQString@@@std@@V?$allocator@VQString@@@3@@3@U?$less@VQString@@@3@V?$allocator@VQString@@@3@@std@@IBEPAU_Node@12@ABVQString@@@Z 100af616 f i uiHost.obj
 0001:000ae64e       ?_Dec@const_iterator@?$_Tree@VQString@@U?$pair@$$CBVQString@@V1@@std@@U_Kfn@?$map@VQString@@V1@U?$less@VQString@@@std@@V?$allocator@VQString@@@3@@3@U?$less@VQString@@@3@V?$allocator@VQString@@@3@@std@@QAEXXZ 100af64e f i uiHost.obj
 0001:000ae68a       ?_Dec@const_iterator@?$_Tree@VQString@@V1@U_Kfn@?$set@VQString@@U?$less@VQString@@@std@@V?$allocator@VQString@@@3@@std@@U?$less@VQString@@@4@V?$allocator@VQString@@@4@@std@@QAEXXZ 100af68a f i uiHost.obj
 0001:000ae6c6       ?make_pair@std@@YA?AU?$pair@VQString@@V1@@1@ABVQString@@0@Z 100af6c6 f i uiHost.obj
 0001:000ae703       ??0uiHostEditDialog@@QAE@PAVQWidget@@PBD_NI@Z 100af703 f   uiHostEditdialogimpl.obj
 0001:000ae786       ?metaObject@uiHostEditDialog@@UBEPAVQMetaObject@@XZ 100af786 f i uiHostEditdialogimpl.obj
 0001:000ae78b       ??_EuiHostEditDialog@@UAEPAXI@Z 100af78b f i uiHostEditdialogimpl.obj
 0001:000ae78b       ??_GuiHostEditDialog@@UAEPAXI@Z 100af78b f i uiHostEditdialogimpl.obj
 0001:000ae7a7       ??1uiHostEditDialog@@UAE@XZ 100af7a7 f   uiHostEditdialogimpl.obj
 0001:000ae7b9       ?doPathBrowse@uiHostEditDialog@@QAEXXZ 100af7b9 f   uiHostEditdialogimpl.obj
 0001:000aea4a       ?doInstanceBrowse@uiHostEditDialog@@QAEXXZ 100afa4a f   uiHostEditdialogimpl.obj
 0001:000aeace       ?help@uiHostEditDialog@@QAEXXZ 100aface f   uiHostEditdialogimpl.obj
 0001:000aeb0e       ??_EuiHostEditDialog@@WCI@AEPAXI@Z 100afb0e f i uiHostEditdialogimpl.obj
 0001:000aeb16       ??0bncs_instance@@QAE@PAVQWidget@@PBDI@Z 100afb16 f   bncs_instance.obj
 0001:000aebef       ??1bncs_instance@@UAE@XZ   100afbef f   bncs_instance.obj
 0001:000aec5d       ?resizeEvent@bncs_instance@@UAEXPAVQResizeEvent@@@Z 100afc5d f   bncs_instance.obj
 0001:000aec79       ?setCaption@bncs_instance@@UAEXABVQString@@@Z 100afc79 f   bncs_instance.obj
 0001:000af356       ?edit@bncs_instance@@QAEXPA_N0@Z 100b0356 f   bncs_instance.obj
 0001:000af6a3       ?defaultvalues@bncs_instance@@AAEXXZ 100b06a3 f   bncs_instance.obj
 0001:000af713       ?showStyleBrowser@bncs_instance@@QAEXPA_NABVQString@@@Z 100b0713 f   bncs_instance.obj
 0001:000af813       ?setName@bncs_instance@@IAEXABVQString@@@Z 100b0813 f   bncs_instance.obj
 0001:000af849       ??0bncs_instance_edit@@QAE@PAVQWidget@@PBD_NI@Z 100b0849 f   bncs_instance_editimpl.obj
 0001:000af954       ?metaObject@bncs_instance_edit@@UBEPAVQMetaObject@@XZ 100b0954 f i bncs_instance_editimpl.obj
 0001:000af959       ??_Gbncs_instance_edit@@UAEPAXI@Z 100b0959 f i bncs_instance_editimpl.obj
 0001:000af959       ??_Ebncs_instance_edit@@UAEPAXI@Z 100b0959 f i bncs_instance_editimpl.obj
 0001:000af975       ??1bncs_instance_edit@@UAE@XZ 100b0975 f   bncs_instance_editimpl.obj
 0001:000af987       ?help@bncs_instance_edit@@QAEXXZ 100b0987 f   bncs_instance_editimpl.obj
 0001:000af9c7       ?doButtonSettings@bncs_instance_edit@@QAEXXZ 100b09c7 f   bncs_instance_editimpl.obj
 0001:000afa33       ?setControl@bncs_instance_edit@@QAEXPAVbncs_control@@@Z 100b0a33 f   bncs_instance_editimpl.obj
 0001:000afa40       ?showInstanceBrowser@bncs_instance_edit@@QAEXXZ 100b0a40 f   bncs_instance_editimpl.obj
 0001:000afac4       ??_Ebncs_instance_edit@@WCI@AEPAXI@Z 100b0ac4 f i bncs_instance_editimpl.obj
 0001:000afacc       ??0bncs_listbox@@QAE@PAVQWidget@@PBD@Z 100b0acc f   bncs_listbox.obj
 0001:000afb6b       ??1bncs_listbox@@UAE@XZ    100b0b6b f   bncs_listbox.obj
 0001:000afbf5       ?setCaption@bncs_listbox@@UAEXABVQString@@@Z 100b0bf5 f   bncs_listbox.obj
 0001:000b19bd       ?edit@bncs_listbox@@QAEXPA_N0@Z 100b29bd f   bncs_listbox.obj
 0001:000b1f24       ?defaultvalues@bncs_listbox@@AAEXXZ 100b2f24 f   bncs_listbox.obj
 0001:000b1f9f       ?doSelectionChanged@bncs_listbox@@QAEXPAVQListBoxItem@@@Z 100b2f9f f   bncs_listbox.obj
 0001:000b2053       ?timerEvent@bncs_listbox@@EAEXPAVQTimerEvent@@@Z 100b3053 f   bncs_listbox.obj
 0001:000b2091       ?showStyleBrowser@bncs_listbox@@QAEXPA_NABVQString@@@Z 100b3091 f   bncs_listbox.obj
 0001:000b2191       ??0bncs_listbox_edit@@QAE@PAVQWidget@@PBD_NI@Z 100b3191 f   bncs_listbox_editimpl.obj
 0001:000b2507       ?metaObject@bncs_listbox_edit@@UBEPAVQMetaObject@@XZ 100b3507 f i bncs_listbox_editimpl.obj
 0001:000b250c       ??_Ebncs_listbox_edit@@UAEPAXI@Z 100b350c f i bncs_listbox_editimpl.obj
 0001:000b250c       ??_Gbncs_listbox_edit@@UAEPAXI@Z 100b350c f i bncs_listbox_editimpl.obj
 0001:000b2528       ??1bncs_listbox_edit@@UAE@XZ 100b3528 f   bncs_listbox_editimpl.obj
 0001:000b253a       ?showColourBrowser@bncs_listbox_edit@@QAEXXZ 100b353a f   bncs_listbox_editimpl.obj
 0001:000b2689       ?showStyleBrowser@bncs_listbox_edit@@QAEXXZ 100b3689 f   bncs_listbox_editimpl.obj
 0001:000b271e       ?appTabEnable@bncs_listbox_edit@@QAEXABVQString@@@Z 100b371e f   bncs_listbox_editimpl.obj
 0001:000b274f       ?help@bncs_listbox_edit@@QAEXXZ 100b374f f   bncs_listbox_editimpl.obj
 0001:000b278f       ??_Ebncs_listbox_edit@@WCI@AEPAXI@Z 100b378f f i bncs_listbox_editimpl.obj
 0001:000b2798       _DirectSoundCreate@12      100b3798 f   dsound:DSOUND.dll
 0001:000b279e       _HtmlHelpA@16              100b379e f   htmlhelp:init.obj
 0001:000b2896       ?fontInf@QPaintDevice@@MBEHPAVQFont@@H@Z 100b3896 f   qt-mt323:qt-mt323.dll
 0001:000b289c       ?fontMet@QPaintDevice@@MBEHPAVQFont@@HPBDH@Z 100b389c f   qt-mt323:qt-mt323.dll
 0001:000b28a2       ?metric@QWidget@@MBEHH@Z   100b38a2 f   qt-mt323:qt-mt323.dll
 0001:000b28a8       ?cmd@QPaintDevice@@MAE_NHPAVQPainter@@PATQPDevCmdParam@@@Z 100b38a8 f   qt-mt323:qt-mt323.dll
 0001:000b28ae       ?handle@QPaintDevice@@UBEPAUHDC__@@XZ 100b38ae f   qt-mt323:qt-mt323.dll
 0001:000b28b4       ?resolution@QPaintDevice@@UBEHXZ 100b38b4 f   qt-mt323:qt-mt323.dll
 0001:000b28ba       ?setResolution@QPaintDevice@@UAEXH@Z 100b38ba f   qt-mt323:qt-mt323.dll
 0001:000b28c0       ?setMicroFocusHint@QWidget@@MAEXHHHH_NPAVQFont@@@Z 100b38c0 f   qt-mt323:qt-mt323.dll
 0001:000b28c6       ?setKeyCompression@QWidget@@MAEX_N@Z 100b38c6 f   qt-mt323:qt-mt323.dll
 0001:000b28cc       ?focusNextPrevChild@QWidget@@MAE_N_N@Z 100b38cc f   qt-mt323:qt-mt323.dll
 0001:000b28d2       ?setWFlags@QWidget@@MAEXI@Z 100b38d2 f   qt-mt323:qt-mt323.dll
 0001:000b28d8       ?setWState@QWidget@@MAEXI@Z 100b38d8 f   qt-mt323:qt-mt323.dll
 0001:000b28de       ?destroy@QWidget@@MAEX_N0@Z 100b38de f   qt-mt323:qt-mt323.dll
 0001:000b28e4       ?create@QWidget@@MAEXPAUHWND__@@_N1@Z 100b38e4 f   qt-mt323:qt-mt323.dll
 0001:000b28ea       ?windowActivationChange@QWidget@@MAEX_N@Z 100b38ea f   qt-mt323:qt-mt323.dll
 0001:000b28f0       ?fontChange@QWidget@@MAEXABVQFont@@@Z 100b38f0 f   qt-mt323:qt-mt323.dll
 0001:000b28f6       ?paletteChange@QWidget@@MAEXABVQPalette@@@Z 100b38f6 f   qt-mt323:qt-mt323.dll
 0001:000b28fc       ?enabledChange@QWidget@@MAEX_N@Z 100b38fc f   qt-mt323:qt-mt323.dll
 0001:000b2902       ?styleChange@QWidget@@MAEXAAVQStyle@@@Z 100b3902 f   qt-mt323:qt-mt323.dll
 0001:000b2908       ?updateMask@QWidget@@MAEXXZ 100b3908 f   qt-mt323:qt-mt323.dll
 0001:000b290e       ?winEvent@QWidget@@MAE_NPAUtagMSG@@@Z 100b390e f   qt-mt323:qt-mt323.dll
 0001:000b2914       ?hideEvent@QWidget@@MAEXPAVQHideEvent@@@Z 100b3914 f   qt-mt323:qt-mt323.dll
 0001:000b291a       ?showEvent@QWidget@@MAEXPAVQShowEvent@@@Z 100b391a f   qt-mt323:qt-mt323.dll
 0001:000b2920       ?dropEvent@QWidget@@MAEXPAVQDropEvent@@@Z 100b3920 f   qt-mt323:qt-mt323.dll
 0001:000b2926       ?dragLeaveEvent@QWidget@@MAEXPAVQDragLeaveEvent@@@Z 100b3926 f   qt-mt323:qt-mt323.dll
 0001:000b292c       ?dragMoveEvent@QWidget@@MAEXPAVQDragMoveEvent@@@Z 100b392c f   qt-mt323:qt-mt323.dll
 0001:000b2932       ?dragEnterEvent@QWidget@@MAEXPAVQDragEnterEvent@@@Z 100b3932 f   qt-mt323:qt-mt323.dll
 0001:000b2938       ?tabletEvent@QWidget@@MAEXPAVQTabletEvent@@@Z 100b3938 f   qt-mt323:qt-mt323.dll
 0001:000b293e       ?imEndEvent@QWidget@@MAEXPAVQIMEvent@@@Z 100b393e f   qt-mt323:qt-mt323.dll
 0001:000b2944       ?imComposeEvent@QWidget@@MAEXPAVQIMEvent@@@Z 100b3944 f   qt-mt323:qt-mt323.dll
 0001:000b294a       ?imStartEvent@QWidget@@MAEXPAVQIMEvent@@@Z 100b394a f   qt-mt323:qt-mt323.dll
 0001:000b2950       ?contextMenuEvent@QWidget@@MAEXPAVQContextMenuEvent@@@Z 100b3950 f   qt-mt323:qt-mt323.dll
 0001:000b2956       ?closeEvent@QWidget@@MAEXPAVQCloseEvent@@@Z 100b3956 f   qt-mt323:qt-mt323.dll
 0001:000b295c       ?moveEvent@QWidget@@MAEXPAVQMoveEvent@@@Z 100b395c f   qt-mt323:qt-mt323.dll
 0001:000b2962       ?leaveEvent@QWidget@@MAEXPAVQEvent@@@Z 100b3962 f   qt-mt323:qt-mt323.dll
 0001:000b2968       ?enterEvent@QWidget@@MAEXPAVQEvent@@@Z 100b3968 f   qt-mt323:qt-mt323.dll
 0001:000b296e       ?focusOutEvent@QWidget@@MAEXPAVQFocusEvent@@@Z 100b396e f   qt-mt323:qt-mt323.dll
 0001:000b2974       ?focusInEvent@QWidget@@MAEXPAVQFocusEvent@@@Z 100b3974 f   qt-mt323:qt-mt323.dll
 0001:000b297a       ?keyReleaseEvent@QWidget@@MAEXPAVQKeyEvent@@@Z 100b397a f   qt-mt323:qt-mt323.dll
 0001:000b2980       ?keyPressEvent@QWidget@@MAEXPAVQKeyEvent@@@Z 100b3980 f   qt-mt323:qt-mt323.dll
 0001:000b2986       ?wheelEvent@QWidget@@MAEXPAVQWheelEvent@@@Z 100b3986 f   qt-mt323:qt-mt323.dll
 0001:000b298c       ?mouseMoveEvent@QWidget@@MAEXPAVQMouseEvent@@@Z 100b398c f   qt-mt323:qt-mt323.dll
 0001:000b2992       ?mouseDoubleClickEvent@QWidget@@MAEXPAVQMouseEvent@@@Z 100b3992 f   qt-mt323:qt-mt323.dll
 0001:000b2998       ?customWhatsThis@QWidget@@UBE_NXZ 100b3998 f   qt-mt323:qt-mt323.dll
 0001:000b299e       ?setBackgroundOrigin@QWidget@@UAEXW4BackgroundOrigin@1@@Z 100b399e f   qt-mt323:qt-mt323.dll
 0001:000b29a4       ?setAutoMask@QWidget@@UAEX_N@Z 100b39a4 f   qt-mt323:qt-mt323.dll
 0001:000b29aa       ?setAcceptDrops@QWidget@@UAEX_N@Z 100b39aa f   qt-mt323:qt-mt323.dll
 0001:000b29b0       ?reparent@QWidget@@UAEXPAV1@IABVQPoint@@_N@Z 100b39b0 f   qt-mt323:qt-mt323.dll
 0001:000b29b6       ?adjustSize@QWidget@@UAEXXZ 100b39b6 f   qt-mt323:qt-mt323.dll
 0001:000b29bc       ?heightForWidth@QWidget@@UBEHH@Z 100b39bc f   qt-mt323:qt-mt323.dll
 0001:000b29c2       ?setSizePolicy@QWidget@@UAEXVQSizePolicy@@@Z 100b39c2 f   qt-mt323:qt-mt323.dll
 0001:000b29c8       ?sizePolicy@QWidget@@UBE?AVQSizePolicy@@XZ 100b39c8 f   qt-mt323:qt-mt323.dll
 0001:000b29ce       ?minimumSizeHint@QWidget@@UBE?AVQSize@@XZ 100b39ce f   qt-mt323:qt-mt323.dll
 0001:000b29d4       ?sizeHint@QWidget@@UBE?AVQSize@@XZ 100b39d4 f   qt-mt323:qt-mt323.dll
 0001:000b29da       ?setGeometry@QWidget@@UAEXHHHH@Z 100b39da f   qt-mt323:qt-mt323.dll
 0001:000b29e0       ?setGeometry@QWidget@@UAEXABVQRect@@@Z 100b39e0 f   qt-mt323:qt-mt323.dll
 0001:000b29e6       ?resize@QWidget@@UAEXHH@Z  100b39e6 f   qt-mt323:qt-mt323.dll
 0001:000b29ec       ?move@QWidget@@UAEXHH@Z    100b39ec f   qt-mt323:qt-mt323.dll
 0001:000b29f2       ?close@QWidget@@UAE_N_N@Z  100b39f2 f   qt-mt323:qt-mt323.dll
 0001:000b29f8       ?polish@QWidget@@UAEXXZ    100b39f8 f   qt-mt323:qt-mt323.dll
 0001:000b29fe       ?showNormal@QWidget@@UAEXXZ 100b39fe f   qt-mt323:qt-mt323.dll
 0001:000b2a04       ?showMaximized@QWidget@@UAEXXZ 100b3a04 f   qt-mt323:qt-mt323.dll
 0001:000b2a0a       ?showMinimized@QWidget@@UAEXXZ 100b3a0a f   qt-mt323:qt-mt323.dll
 0001:000b2a10       ?hide@QWidget@@UAEXXZ      100b3a10 f   qt-mt323:qt-mt323.dll
 0001:000b2a16       ?show@QWidget@@UAEXXZ      100b3a16 f   qt-mt323:qt-mt323.dll
 0001:000b2a1c       ?setUpdatesEnabled@QWidget@@UAEX_N@Z 100b3a1c f   qt-mt323:qt-mt323.dll
 0001:000b2a22       ?setFocusProxy@QWidget@@UAEXPAV1@@Z 100b3a22 f   qt-mt323:qt-mt323.dll
 0001:000b2a28       ?setFocusPolicy@QWidget@@UAEXW4FocusPolicy@1@@Z 100b3a28 f   qt-mt323:qt-mt323.dll
 0001:000b2a2e       ?setActiveWindow@QWidget@@UAEXXZ 100b3a2e f   qt-mt323:qt-mt323.dll
 0001:000b2a34       ?setFocus@QWidget@@UAEXXZ  100b3a34 f   qt-mt323:qt-mt323.dll
 0001:000b2a3a       ?setMouseTracking@QWidget@@UAEX_N@Z 100b3a3a f   qt-mt323:qt-mt323.dll
 0001:000b2a40       ?setIconText@QWidget@@UAEXABVQString@@@Z 100b3a40 f   qt-mt323:qt-mt323.dll
 0001:000b2a46       ?setIcon@QWidget@@UAEXABVQPixmap@@@Z 100b3a46 f   qt-mt323:qt-mt323.dll
 0001:000b2a4c       ?setBackgroundPixmap@QWidget@@UAEXABVQPixmap@@@Z 100b3a4c f   qt-mt323:qt-mt323.dll
 0001:000b2a52       ?setBackgroundColor@QWidget@@UAEXABVQColor@@@Z 100b3a52 f   qt-mt323:qt-mt323.dll
 0001:000b2a58       ?setMask@QWidget@@UAEXABVQBitmap@@@Z 100b3a58 f   qt-mt323:qt-mt323.dll
 0001:000b2a5e       ?setMask@QWidget@@UAEXABVQRegion@@@Z 100b3a5e f   qt-mt323:qt-mt323.dll
 0001:000b2a64       ?unsetCursor@QWidget@@UAEXXZ 100b3a64 f   qt-mt323:qt-mt323.dll
 0001:000b2a6a       ?setCursor@QWidget@@UAEXABVQCursor@@@Z 100b3a6a f   qt-mt323:qt-mt323.dll
 0001:000b2a70       ?setFont@QWidget@@UAEXABVQFont@@@Z 100b3a70 f   qt-mt323:qt-mt323.dll
 0001:000b2a76       ?setPaletteBackgroundPixmap@QWidget@@UAEXABVQPixmap@@@Z 100b3a76 f   qt-mt323:qt-mt323.dll
 0001:000b2a7c       ?setPaletteBackgroundColor@QWidget@@UAEXABVQColor@@@Z 100b3a7c f   qt-mt323:qt-mt323.dll
 0001:000b2a82       ?setPalette@QWidget@@UAEXABVQPalette@@@Z 100b3a82 f   qt-mt323:qt-mt323.dll
 0001:000b2a88       ?setErasePixmap@QWidget@@UAEXABVQPixmap@@@Z 100b3a88 f   qt-mt323:qt-mt323.dll
 0001:000b2a8e       ?setEraseColor@QWidget@@UAEXABVQColor@@@Z 100b3a8e f   qt-mt323:qt-mt323.dll
 0001:000b2a94       ?setBackgroundMode@QWidget@@UAEXW4BackgroundMode@Qt@@@Z 100b3a94 f   qt-mt323:qt-mt323.dll
 0001:000b2a9a       ?setSizeIncrement@QWidget@@UAEXHH@Z 100b3a9a f   qt-mt323:qt-mt323.dll
 0001:000b2aa0       ?setMaximumSize@QWidget@@UAEXHH@Z 100b3aa0 f   qt-mt323:qt-mt323.dll
 0001:000b2aa6       ?setMinimumSize@QWidget@@UAEXHH@Z 100b3aa6 f   qt-mt323:qt-mt323.dll
 0001:000b2aac       ?checkConnectArgs@QObject@@MAE_NPBDPBV1@0@Z 100b3aac f   qt-mt323:qt-mt323.dll
 0001:000b2ab2       ?disconnectNotify@QObject@@MAEXPBD@Z 100b3ab2 f   qt-mt323:qt-mt323.dll
 0001:000b2ab8       ?connectNotify@QObject@@MAEXPBD@Z 100b3ab8 f   qt-mt323:qt-mt323.dll
 0001:000b2abe       ?customEvent@QObject@@MAEXPAVQCustomEvent@@@Z 100b3abe f   qt-mt323:qt-mt323.dll
 0001:000b2ac4       ?childEvent@QObject@@MAEXPAVQChildEvent@@@Z 100b3ac4 f   qt-mt323:qt-mt323.dll
 0001:000b2aca       ?timerEvent@QObject@@MAEXPAVQTimerEvent@@@Z 100b3aca f   qt-mt323:qt-mt323.dll
 0001:000b2ad0       ?property@QObject@@UBE?AVQVariant@@PBD@Z 100b3ad0 f   qt-mt323:qt-mt323.dll
 0001:000b2ad6       ?setProperty@QObject@@UAE_NPBDABVQVariant@@@Z 100b3ad6 f   qt-mt323:qt-mt323.dll
 0001:000b2adc       ?removeChild@QObject@@UAEXPAV1@@Z 100b3adc f   qt-mt323:qt-mt323.dll
 0001:000b2ae2       ?insertChild@QObject@@UAEXPAV1@@Z 100b3ae2 f   qt-mt323:qt-mt323.dll
 0001:000b2ae8       ?setName@QWidget@@UAEXPBD@Z 100b3ae8 f   qt-mt323:qt-mt323.dll
 0001:000b2aee       ?eventFilter@QObject@@UAE_NPAV1@PAVQEvent@@@Z 100b3aee f   qt-mt323:qt-mt323.dll
 0001:000b2af4       ?event@QWidget@@MAE_NPAVQEvent@@@Z 100b3af4 f   qt-mt323:qt-mt323.dll
 0001:000b2afa       ?setName@QObject@@UAEXPBD@Z 100b3afa f   qt-mt323:qt-mt323.dll
 0001:000b2b00       ?event@QTimer@@MAE_NPAVQEvent@@@Z 100b3b00 f   qt-mt323:qt-mt323.dll
 0001:000b2b06       ?qt_property@QTimer@@UAE_NHHPAVQVariant@@@Z 100b3b06 f   qt-mt323:qt-mt323.dll
 0001:000b2b0c       ?qt_emit@QTimer@@UAE_NHPAUQUObject@@@Z 100b3b0c f   qt-mt323:qt-mt323.dll
 0001:000b2b12       ?qt_invoke@QTimer@@UAE_NHPAUQUObject@@@Z 100b3b12 f   qt-mt323:qt-mt323.dll
 0001:000b2b18       ?qt_cast@QTimer@@UAEPAXPBD@Z 100b3b18 f   qt-mt323:qt-mt323.dll
 0001:000b2b1e       ?className@QTimer@@UBEPBDXZ 100b3b1e f   qt-mt323:qt-mt323.dll
 0001:000b2b24       ?metaObject@QTimer@@UBEPAVQMetaObject@@XZ 100b3b24 f   qt-mt323:qt-mt323.dll
 0001:000b2b2a       ?next@QSqlQuery@@UAE_NXZ   100b3b2a f   qt-mt323:qt-mt323.dll
 0001:000b2b30       ?frameChanged@QHBox@@MAEXXZ 100b3b30 f   qt-mt323:qt-mt323.dll
 0001:000b2b36       ?drawContents@QFrame@@MAEXPAVQPainter@@@Z 100b3b36 f   qt-mt323:qt-mt323.dll
 0001:000b2b3c       ?drawFrame@QFrame@@MAEXPAVQPainter@@@Z 100b3b3c f   qt-mt323:qt-mt323.dll
 0001:000b2b42       ?setFrameRect@QFrame@@UAEXABVQRect@@@Z 100b3b42 f   qt-mt323:qt-mt323.dll
 0001:000b2b48       ?setMidLineWidth@QFrame@@UAEXH@Z 100b3b48 f   qt-mt323:qt-mt323.dll
 0001:000b2b4e       ?setMargin@QFrame@@UAEXH@Z 100b3b4e f   qt-mt323:qt-mt323.dll
 0001:000b2b54       ?setLineWidth@QFrame@@UAEXH@Z 100b3b54 f   qt-mt323:qt-mt323.dll
 0001:000b2b5a       ?setFrameStyle@QFrame@@UAEXH@Z 100b3b5a f   qt-mt323:qt-mt323.dll
 0001:000b2b60       ?styleChange@QFrame@@MAEXAAVQStyle@@@Z 100b3b60 f   qt-mt323:qt-mt323.dll
 0001:000b2b66       ?resizeEvent@QFrame@@MAEXPAVQResizeEvent@@@Z 100b3b66 f   qt-mt323:qt-mt323.dll
 0001:000b2b6c       ?mouseReleaseEvent@QWidget@@MAEXPAVQMouseEvent@@@Z 100b3b6c f   qt-mt323:qt-mt323.dll
 0001:000b2b72       ?mousePressEvent@QWidget@@MAEXPAVQMouseEvent@@@Z 100b3b72 f   qt-mt323:qt-mt323.dll
 0001:000b2b78       ?sizeHint@QHBox@@UBE?AVQSize@@XZ 100b3b78 f   qt-mt323:qt-mt323.dll
 0001:000b2b7e       ?setEnabled@QWidget@@UAEX_N@Z 100b3b7e f   qt-mt323:qt-mt323.dll
 0001:000b2b84       ?qt_property@QHBox@@UAE_NHHPAVQVariant@@@Z 100b3b84 f   qt-mt323:qt-mt323.dll
 0001:000b2b8a       ?qt_emit@QHBox@@UAE_NHPAUQUObject@@@Z 100b3b8a f   qt-mt323:qt-mt323.dll
 0001:000b2b90       ?qt_invoke@QHBox@@UAE_NHPAUQUObject@@@Z 100b3b90 f   qt-mt323:qt-mt323.dll
 0001:000b2b96       ?qt_cast@QHBox@@UAEPAXPBD@Z 100b3b96 f   qt-mt323:qt-mt323.dll
 0001:000b2b9c       ?className@QHBox@@UBEPBDXZ 100b3b9c f   qt-mt323:qt-mt323.dll
 0001:000b2ba2       ?metaObject@QHBox@@UBEPAVQMetaObject@@XZ 100b3ba2 f   qt-mt323:qt-mt323.dll
 0001:000b2ba8       ?paintEvent@QWidget@@MAEXPAVQPaintEvent@@@Z 100b3ba8 f   qt-mt323:qt-mt323.dll
 0001:000b2bae       ?resizeEvent@QWidget@@MAEXPAVQResizeEvent@@@Z 100b3bae f   qt-mt323:qt-mt323.dll
 0001:000b2bb4       ?paintEmptyArea@QListView@@MAEXPAVQPainter@@ABVQRect@@@Z 100b3bb4 f   qt-mt323:qt-mt323.dll
 0001:000b2bba       ?startDrag@QListView@@MAEXXZ 100b3bba f   qt-mt323:qt-mt323.dll
 0001:000b2bc0       ?dragObject@QListView@@MAEPAVQDragObject@@XZ 100b3bc0 f   qt-mt323:qt-mt323.dll
 0001:000b2bc6       ?selectAll@QListView@@UAEX_N@Z 100b3bc6 f   qt-mt323:qt-mt323.dll
 0001:000b2bcc       ?invertSelection@QListView@@UAEXXZ 100b3bcc f   qt-mt323:qt-mt323.dll
 0001:000b2bd2       ?clear@QListView@@UAEXXZ   100b3bd2 f   qt-mt323:qt-mt323.dll
 0001:000b2bd8       ?setDefaultRenameAction@QListView@@UAEXW4RenameAction@1@@Z 100b3bd8 f   qt-mt323:qt-mt323.dll
 0001:000b2bde       ?setResizeMode@QListView@@UAEXW4ResizeMode@1@@Z 100b3bde f   qt-mt323:qt-mt323.dll
 0001:000b2be4       ?setShowToolTips@QListView@@UAEX_N@Z 100b3be4 f   qt-mt323:qt-mt323.dll
 0001:000b2bea       ?setShowSortIndicator@QListView@@UAEX_N@Z 100b3bea f   qt-mt323:qt-mt323.dll
 0001:000b2bf0       ?sort@QListView@@UAEXXZ    100b3bf0 f   qt-mt323:qt-mt323.dll
 0001:000b2bf6       ?setSorting@QListView@@UAEXH_N@Z 100b3bf6 f   qt-mt323:qt-mt323.dll
 0001:000b2bfc       ?setRootIsDecorated@QListView@@UAEX_N@Z 100b3bfc f   qt-mt323:qt-mt323.dll
 0001:000b2c02       ?setItemMargin@QListView@@UAEXH@Z 100b3c02 f   qt-mt323:qt-mt323.dll
 0001:000b2c08       ?setAllColumnsShowFocus@QListView@@UAEX_N@Z 100b3c08 f   qt-mt323:qt-mt323.dll
 0001:000b2c0e       ?setCurrentItem@QListView@@UAEXPAVQListViewItem@@@Z 100b3c0e f   qt-mt323:qt-mt323.dll
 0001:000b2c14       ?setOpen@QListView@@UAEXPAVQListViewItem@@_N@Z 100b3c14 f   qt-mt323:qt-mt323.dll
 0001:000b2c1a       ?setSelected@QListView@@UAEXPAVQListViewItem@@_N@Z 100b3c1a f   qt-mt323:qt-mt323.dll
 0001:000b2c20       ?clearSelection@QListView@@UAEXXZ 100b3c20 f   qt-mt323:qt-mt323.dll
 0001:000b2c26       ?setMultiSelection@QListView@@UAEX_N@Z 100b3c26 f   qt-mt323:qt-mt323.dll
 0001:000b2c2c       ?setColumnAlignment@QListView@@UAEXHH@Z 100b3c2c f   qt-mt323:qt-mt323.dll
 0001:000b2c32       ?setColumnWidthMode@QListView@@UAEXHW4WidthMode@1@@Z 100b3c32 f   qt-mt323:qt-mt323.dll
 0001:000b2c38       ?setColumnWidth@QListView@@UAEXHH@Z 100b3c38 f   qt-mt323:qt-mt323.dll
 0001:000b2c3e       ?setColumnText@QListView@@UAEXHABVQString@@@Z 100b3c3e f   qt-mt323:qt-mt323.dll
 0001:000b2c44       ?setColumnText@QListView@@UAEXHABVQIconSet@@ABVQString@@@Z 100b3c44 f   qt-mt323:qt-mt323.dll
 0001:000b2c4a       ?removeColumn@QListView@@UAEXH@Z 100b3c4a f   qt-mt323:qt-mt323.dll
 0001:000b2c50       ?addColumn@QListView@@UAEHABVQString@@H@Z 100b3c50 f   qt-mt323:qt-mt323.dll
 0001:000b2c56       ?addColumn@QListView@@UAEHABVQIconSet@@ABVQString@@H@Z 100b3c56 f   qt-mt323:qt-mt323.dll
 0001:000b2c5c       ?removeItem@QListView@@UAEXPAVQListViewItem@@@Z 100b3c5c f   qt-mt323:qt-mt323.dll
 0001:000b2c62       ?takeItem@QListView@@UAEXPAVQListViewItem@@@Z 100b3c62 f   qt-mt323:qt-mt323.dll
 0001:000b2c68       ?insertItem@QListView@@UAEXPAVQListViewItem@@@Z 100b3c68 f   qt-mt323:qt-mt323.dll
 0001:000b2c6e       ?setTreeStepSize@QListView@@UAEXH@Z 100b3c6e f   qt-mt323:qt-mt323.dll
 0001:000b2c74       ?setVBarGeometry@QScrollView@@MAEXAAVQScrollBar@@HHHH@Z 100b3c74 f   qt-mt323:qt-mt323.dll
 0001:000b2c7a       ?setHBarGeometry@QScrollView@@MAEXAAVQScrollBar@@HHHH@Z 100b3c7a f   qt-mt323:qt-mt323.dll
 0001:000b2c80       ?setMargins@QScrollView@@MAEXHHHH@Z 100b3c80 f   qt-mt323:qt-mt323.dll
 0001:000b2c86       ?viewportContextMenuEvent@QScrollView@@MAEXPAVQContextMenuEvent@@@Z 100b3c86 f   qt-mt323:qt-mt323.dll
 0001:000b2c8c       ?viewportWheelEvent@QScrollView@@MAEXPAVQWheelEvent@@@Z 100b3c8c f   qt-mt323:qt-mt323.dll
 0001:000b2c92       ?viewportDropEvent@QScrollView@@MAEXPAVQDropEvent@@@Z 100b3c92 f   qt-mt323:qt-mt323.dll
 0001:000b2c98       ?viewportDragLeaveEvent@QScrollView@@MAEXPAVQDragLeaveEvent@@@Z 100b3c98 f   qt-mt323:qt-mt323.dll
 0001:000b2c9e       ?viewportDragMoveEvent@QScrollView@@MAEXPAVQDragMoveEvent@@@Z 100b3c9e f   qt-mt323:qt-mt323.dll
 0001:000b2ca4       ?viewportDragEnterEvent@QScrollView@@MAEXPAVQDragEnterEvent@@@Z 100b3ca4 f   qt-mt323:qt-mt323.dll
 0001:000b2caa       ?viewportMouseMoveEvent@QScrollView@@MAEXPAVQMouseEvent@@@Z 100b3caa f   qt-mt323:qt-mt323.dll
 0001:000b2cb0       ?viewportMouseDoubleClickEvent@QScrollView@@MAEXPAVQMouseEvent@@@Z 100b3cb0 f   qt-mt323:qt-mt323.dll
 0001:000b2cb6       ?viewportMouseReleaseEvent@QScrollView@@MAEXPAVQMouseEvent@@@Z 100b3cb6 f   qt-mt323:qt-mt323.dll
 0001:000b2cbc       ?viewportMousePressEvent@QScrollView@@MAEXPAVQMouseEvent@@@Z 100b3cbc f   qt-mt323:qt-mt323.dll
 0001:000b2cc2       ?viewportResizeEvent@QListView@@MAEXPAVQResizeEvent@@@Z 100b3cc2 f   qt-mt323:qt-mt323.dll
 0001:000b2cc8       ?viewportPaintEvent@QScrollView@@MAEXPAVQPaintEvent@@@Z 100b3cc8 f   qt-mt323:qt-mt323.dll
 0001:000b2cce       ?contentsContextMenuEvent@QListView@@MAEXPAVQContextMenuEvent@@@Z 100b3cce f   qt-mt323:qt-mt323.dll
 0001:000b2cd4       ?contentsWheelEvent@QScrollView@@MAEXPAVQWheelEvent@@@Z 100b3cd4 f   qt-mt323:qt-mt323.dll
 0001:000b2cda       ?contentsDropEvent@QListView@@MAEXPAVQDropEvent@@@Z 100b3cda f   qt-mt323:qt-mt323.dll
 0001:000b2ce0       ?contentsDragLeaveEvent@QListView@@MAEXPAVQDragLeaveEvent@@@Z 100b3ce0 f   qt-mt323:qt-mt323.dll
 0001:000b2ce6       ?contentsDragMoveEvent@QListView@@MAEXPAVQDragMoveEvent@@@Z 100b3ce6 f   qt-mt323:qt-mt323.dll
 0001:000b2cec       ?contentsDragEnterEvent@QListView@@MAEXPAVQDragEnterEvent@@@Z 100b3cec f   qt-mt323:qt-mt323.dll
 0001:000b2cf2       ?contentsMouseMoveEvent@QListView@@MAEXPAVQMouseEvent@@@Z 100b3cf2 f   qt-mt323:qt-mt323.dll
 0001:000b2cf8       ?contentsMouseDoubleClickEvent@QListView@@MAEXPAVQMouseEvent@@@Z 100b3cf8 f   qt-mt323:qt-mt323.dll
 0001:000b2cfe       ?contentsMouseReleaseEvent@QListView@@MAEXPAVQMouseEvent@@@Z 100b3cfe f   qt-mt323:qt-mt323.dll
 0001:000b2d04       ?contentsMousePressEvent@QListView@@MAEXPAVQMouseEvent@@@Z 100b3d04 f   qt-mt323:qt-mt323.dll
 0001:000b2d0a       ?drawContentsOffset@QListView@@MAEXPAVQPainter@@HHHHHH@Z 100b3d0a f   qt-mt323:qt-mt323.dll
 0001:000b2d10       ?drawContents@QScrollView@@MAEXPAVQPainter@@HHHH@Z 100b3d10 f   qt-mt323:qt-mt323.dll
 0001:000b2d16       ?setContentsPos@QListView@@UAEXHH@Z 100b3d16 f   qt-mt323:qt-mt323.dll
 0001:000b2d1c       ?resizeContents@QScrollView@@UAEXHH@Z 100b3d1c f   qt-mt323:qt-mt323.dll
 0001:000b2d22       ?setDragAutoScroll@QScrollView@@UAEX_N@Z 100b3d22 f   qt-mt323:qt-mt323.dll
 0001:000b2d28       ?setCornerWidget@QScrollView@@UAEXPAVQWidget@@@Z 100b3d28 f   qt-mt323:qt-mt323.dll
 0001:000b2d2e       ?setHScrollBarMode@QScrollView@@UAEXW4ScrollBarMode@1@@Z 100b3d2e f   qt-mt323:qt-mt323.dll
 0001:000b2d34       ?setVScrollBarMode@QScrollView@@UAEXW4ScrollBarMode@1@@Z 100b3d34 f   qt-mt323:qt-mt323.dll
 0001:000b2d3a       ?moveChild@QScrollView@@UAEXPAVQWidget@@HH@Z 100b3d3a f   qt-mt323:qt-mt323.dll
 0001:000b2d40       ?addChild@QScrollView@@UAEXPAVQWidget@@HH@Z 100b3d40 f   qt-mt323:qt-mt323.dll
 0001:000b2d46       ?setResizePolicy@QScrollView@@UAEXW4ResizePolicy@1@@Z 100b3d46 f   qt-mt323:qt-mt323.dll
 0001:000b2d4c       ?frameChanged@QScrollView@@MAEXXZ 100b3d4c f   qt-mt323:qt-mt323.dll
 0001:000b2d52       ?drawContents@QScrollView@@EAEXPAVQPainter@@@Z 100b3d52 f   qt-mt323:qt-mt323.dll
 0001:000b2d58       ?focusNextPrevChild@QScrollView@@MAE_N_N@Z 100b3d58 f   qt-mt323:qt-mt323.dll
 0001:000b2d5e       ?windowActivationChange@QListView@@MAEX_N@Z 100b3d5e f   qt-mt323:qt-mt323.dll
 0001:000b2d64       ?fontChange@QScrollView@@MAEXABVQFont@@@Z 100b3d64 f   qt-mt323:qt-mt323.dll
 0001:000b2d6a       ?styleChange@QListView@@MAEXAAVQStyle@@@Z 100b3d6a f   qt-mt323:qt-mt323.dll
 0001:000b2d70       ?showEvent@QListView@@MAEXPAVQShowEvent@@@Z 100b3d70 f   qt-mt323:qt-mt323.dll
 0001:000b2d76       ?contextMenuEvent@QScrollView@@MAEXPAVQContextMenuEvent@@@Z 100b3d76 f   qt-mt323:qt-mt323.dll
 0001:000b2d7c       ?resizeEvent@QListView@@MAEXPAVQResizeEvent@@@Z 100b3d7c f   qt-mt323:qt-mt323.dll
 0001:000b2d82       ?paintEvent@QFrame@@MAEXPAVQPaintEvent@@@Z 100b3d82 f   qt-mt323:qt-mt323.dll
 0001:000b2d88       ?focusOutEvent@QListView@@MAEXPAVQFocusEvent@@@Z 100b3d88 f   qt-mt323:qt-mt323.dll
 0001:000b2d8e       ?focusInEvent@QListView@@MAEXPAVQFocusEvent@@@Z 100b3d8e f   qt-mt323:qt-mt323.dll
 0001:000b2d94       ?keyPressEvent@QListView@@MAEXPAVQKeyEvent@@@Z 100b3d94 f   qt-mt323:qt-mt323.dll
 0001:000b2d9a       ?wheelEvent@QScrollView@@MAEXPAVQWheelEvent@@@Z 100b3d9a f   qt-mt323:qt-mt323.dll
 0001:000b2da0       ?mouseMoveEvent@QScrollView@@MAEXPAVQMouseEvent@@@Z 100b3da0 f   qt-mt323:qt-mt323.dll
 0001:000b2da6       ?mouseDoubleClickEvent@QScrollView@@MAEXPAVQMouseEvent@@@Z 100b3da6 f   qt-mt323:qt-mt323.dll
 0001:000b2dac       ?mouseReleaseEvent@QScrollView@@MAEXPAVQMouseEvent@@@Z 100b3dac f   qt-mt323:qt-mt323.dll
 0001:000b2db2       ?mousePressEvent@QScrollView@@MAEXPAVQMouseEvent@@@Z 100b3db2 f   qt-mt323:qt-mt323.dll
 0001:000b2db8       ?minimumSizeHint@QListView@@UBE?AVQSize@@XZ 100b3db8 f   qt-mt323:qt-mt323.dll
 0001:000b2dbe       ?sizeHint@QListView@@UBE?AVQSize@@XZ 100b3dbe f   qt-mt323:qt-mt323.dll
 0001:000b2dc4       ?resize@QScrollView@@UAEXHH@Z 100b3dc4 f   qt-mt323:qt-mt323.dll
 0001:000b2dca       ?show@QListView@@UAEXXZ    100b3dca f   qt-mt323:qt-mt323.dll
 0001:000b2dd0       ?setFont@QListView@@UAEXABVQFont@@@Z 100b3dd0 f   qt-mt323:qt-mt323.dll
 0001:000b2dd6       ?setPalette@QListView@@UAEXABVQPalette@@@Z 100b3dd6 f   qt-mt323:qt-mt323.dll
 0001:000b2ddc       ?setEnabled@QScrollView@@UAEX_N@Z 100b3ddc f   qt-mt323:qt-mt323.dll
 0001:000b2de2       ?removeChild@QScrollView@@UAEXPAVQObject@@@Z 100b3de2 f   qt-mt323:qt-mt323.dll
 0001:000b2de8       ?eventFilter@QListView@@UAE_NPAVQObject@@PAVQEvent@@@Z 100b3de8 f   qt-mt323:qt-mt323.dll
 0001:000b2dee       ?cancelRename@QListViewItem@@MAEXH@Z 100b3dee f   qt-mt323:qt-mt323.dll
 0001:000b2df4       ?okRename@QListViewItem@@MAEXH@Z 100b3df4 f   qt-mt323:qt-mt323.dll
 0001:000b2dfa       ?dragLeft@QListViewItem@@MAEXXZ 100b3dfa f   qt-mt323:qt-mt323.dll
 0001:000b2e00       ?dragEntered@QListViewItem@@MAEXXZ 100b3e00 f   qt-mt323:qt-mt323.dll
 0001:000b2e06       ?dropped@QListViewItem@@MAEXPAVQDropEvent@@@Z 100b3e06 f   qt-mt323:qt-mt323.dll
 0001:000b2e0c       ?activate@QListViewItem@@MAEXXZ 100b3e0c f   qt-mt323:qt-mt323.dll
 0001:000b2e12       ?setHeight@QListViewItem@@MAEXH@Z 100b3e12 f   qt-mt323:qt-mt323.dll
 0001:000b2e18       ?enforceSortOrder@QListViewItem@@MBEXXZ 100b3e18 f   qt-mt323:qt-mt323.dll
 0001:000b2e1e       ?setMultiLinesEnabled@QListViewItem@@UAEX_N@Z 100b3e1e f   qt-mt323:qt-mt323.dll
 0001:000b2e24       ?rtti@QListViewItem@@UBEHXZ 100b3e24 f   qt-mt323:qt-mt323.dll
 0001:000b2e2a       ?setEnabled@QListViewItem@@UAEX_N@Z 100b3e2a f   qt-mt323:qt-mt323.dll
 0001:000b2e30       ?startRename@QListViewItem@@UAEXH@Z 100b3e30 f   qt-mt323:qt-mt323.dll
 0001:000b2e36       ?setRenameEnabled@QListViewItem@@UAEXH_N@Z 100b3e36 f   qt-mt323:qt-mt323.dll
 0001:000b2e3c       ?acceptDrop@QListViewItem@@UBE_NPBVQMimeSource@@@Z 100b3e3c f   qt-mt323:qt-mt323.dll
 0001:000b2e42       ?setDropEnabled@QListViewItem@@UAEX_N@Z 100b3e42 f   qt-mt323:qt-mt323.dll
 0001:000b2e48       ?setDragEnabled@QListViewItem@@UAEX_N@Z 100b3e48 f   qt-mt323:qt-mt323.dll
 0001:000b2e4e       ?sort@QListViewItem@@UAEXXZ 100b3e4e f   qt-mt323:qt-mt323.dll
 0001:000b2e54       ?setExpandable@QListViewItem@@UAEX_N@Z 100b3e54 f   qt-mt323:qt-mt323.dll
 0001:000b2e5a       ?setSelectable@QListViewItem@@UAEX_N@Z 100b3e5a f   qt-mt323:qt-mt323.dll
 0001:000b2e60       ?paintFocus@QListViewItem@@UAEXPAVQPainter@@ABVQColorGroup@@ABVQRect@@@Z 100b3e60 f   qt-mt323:qt-mt323.dll
 0001:000b2e66       ?paintBranches@QListViewItem@@UAEXPAVQPainter@@ABVQColorGroup@@HHH@Z 100b3e66 f   qt-mt323:qt-mt323.dll
 0001:000b2e6c       ?setSelected@QListViewItem@@UAEX_N@Z 100b3e6c f   qt-mt323:qt-mt323.dll
 0001:000b2e72       ?setup@QListViewItem@@UAEXXZ 100b3e72 f   qt-mt323:qt-mt323.dll
 0001:000b2e78       ?setOpen@QListViewItem@@UAEX_N@Z 100b3e78 f   qt-mt323:qt-mt323.dll
 0001:000b2e7e       ?sortChildItems@QListViewItem@@UAEXH_N@Z 100b3e7e f   qt-mt323:qt-mt323.dll
 0001:000b2e84       ?compare@QListViewItem@@UBEHPAV1@H_N@Z 100b3e84 f   qt-mt323:qt-mt323.dll
 0001:000b2e8a       ?key@QListViewItem@@UBE?AVQString@@H_N@Z 100b3e8a f   qt-mt323:qt-mt323.dll
 0001:000b2e90       ?pixmap@QListViewItem@@UBEPBVQPixmap@@H@Z 100b3e90 f   qt-mt323:qt-mt323.dll
 0001:000b2e96       ?setPixmap@QListViewItem@@UAEXHABVQPixmap@@@Z 100b3e96 f   qt-mt323:qt-mt323.dll
 0001:000b2e9c       ?text@QListViewItem@@UBE?AVQString@@H@Z 100b3e9c f   qt-mt323:qt-mt323.dll
 0001:000b2ea2       ?setText@QListViewItem@@UAEXHABVQString@@@Z 100b3ea2 f   qt-mt323:qt-mt323.dll
 0001:000b2ea8       ?width@QListViewItem@@UBEHABVQFontMetrics@@PBVQListView@@H@Z 100b3ea8 f   qt-mt323:qt-mt323.dll
 0001:000b2eae       ?invalidateHeight@QListViewItem@@UAEXXZ 100b3eae f   qt-mt323:qt-mt323.dll
 0001:000b2eb4       ?removeItem@QListViewItem@@UAEXPAV1@@Z 100b3eb4 f   qt-mt323:qt-mt323.dll
 0001:000b2eba       ?takeItem@QListViewItem@@UAEXPAV1@@Z 100b3eba f   qt-mt323:qt-mt323.dll
 0001:000b2ec0       ?insertItem@QListViewItem@@UAEXPAV1@@Z 100b3ec0 f   qt-mt323:qt-mt323.dll
 0001:000b2ec6       ?paintCell@QListViewItem@@UAEXPAVQPainter@@ABVQColorGroup@@HHH@Z 100b3ec6 f   qt-mt323:qt-mt323.dll
 0001:000b2ecc       ?menuDelPopup@QPopupMenu@@EAEXPAV1@@Z 100b3ecc f   qt-mt323:qt-mt323.dll
 0001:000b2ed2       ?menuInsPopup@QPopupMenu@@EAEXPAV1@@Z 100b3ed2 f   qt-mt323:qt-mt323.dll
 0001:000b2ed8       ?menuStateChanged@QPopupMenu@@EAEXXZ 100b3ed8 f   qt-mt323:qt-mt323.dll
 0001:000b2ede       ?menuContentsChanged@QPopupMenu@@EAEXXZ 100b3ede f   qt-mt323:qt-mt323.dll
 0001:000b2ee4       ?activateItemAt@QPopupMenu@@UAEXH@Z 100b3ee4 f   qt-mt323:qt-mt323.dll
 0001:000b2eea       ?setId@QMenuData@@UAEXHH@Z 100b3eea f   qt-mt323:qt-mt323.dll
 0001:000b2ef0       ?updateItem@QPopupMenu@@UAEXH@Z 100b3ef0 f   qt-mt323:qt-mt323.dll
 0001:000b2ef6       ?setFirstItemActive@QPopupMenu@@EAEXXZ 100b3ef6 f   qt-mt323:qt-mt323.dll
 0001:000b2efc       ?setActiveItem@QPopupMenu@@UAEXH@Z 100b3efc f   qt-mt323:qt-mt323.dll
 0001:000b2f02       ?setCheckable@QPopupMenu@@UAEX_N@Z 100b3f02 f   qt-mt323:qt-mt323.dll
 0001:000b2f08       ?frameChanged@QPopupMenu@@EAEXXZ 100b3f08 f   qt-mt323:qt-mt323.dll
 0001:000b2f0e       ?focusNextPrevChild@QPopupMenu@@MAE_N_N@Z 100b3f0e f   qt-mt323:qt-mt323.dll
 0001:000b2f14       ?enabledChange@QPopupMenu@@MAEX_N@Z 100b3f14 f   qt-mt323:qt-mt323.dll
 0001:000b2f1a       ?styleChange@QPopupMenu@@MAEXAAVQStyle@@@Z 100b3f1a f   qt-mt323:qt-mt323.dll
 0001:000b2f20       ?closeEvent@QPopupMenu@@MAEXPAVQCloseEvent@@@Z 100b3f20 f   qt-mt323:qt-mt323.dll
 0001:000b2f26       ?leaveEvent@QPopupMenu@@MAEXPAVQEvent@@@Z 100b3f26 f   qt-mt323:qt-mt323.dll
 0001:000b2f2c       ?focusOutEvent@QPopupMenu@@MAEXPAVQFocusEvent@@@Z 100b3f2c f   qt-mt323:qt-mt323.dll
 0001:000b2f32       ?focusInEvent@QPopupMenu@@MAEXPAVQFocusEvent@@@Z 100b3f32 f   qt-mt323:qt-mt323.dll
 0001:000b2f38       ?keyPressEvent@QPopupMenu@@MAEXPAVQKeyEvent@@@Z 100b3f38 f   qt-mt323:qt-mt323.dll
 0001:000b2f3e       ?mouseMoveEvent@QPopupMenu@@MAEXPAVQMouseEvent@@@Z 100b3f3e f   qt-mt323:qt-mt323.dll
 0001:000b2f44       ?mouseReleaseEvent@QPopupMenu@@MAEXPAVQMouseEvent@@@Z 100b3f44 f   qt-mt323:qt-mt323.dll
 0001:000b2f4a       ?mousePressEvent@QPopupMenu@@MAEXPAVQMouseEvent@@@Z 100b3f4a f   qt-mt323:qt-mt323.dll
 0001:000b2f50       ?customWhatsThis@QPopupMenu@@UBE_NXZ 100b3f50 f   qt-mt323:qt-mt323.dll
 0001:000b2f56       ?sizeHint@QPopupMenu@@UBE?AVQSize@@XZ 100b3f56 f   qt-mt323:qt-mt323.dll
 0001:000b2f5c       ?hide@QPopupMenu@@UAEXXZ   100b3f5c f   qt-mt323:qt-mt323.dll
 0001:000b2f62       ?show@QPopupMenu@@UAEXXZ   100b3f62 f   qt-mt323:qt-mt323.dll
 0001:000b2f68       ?setCaption@QWidget@@UAEXABVQString@@@Z 100b3f68 f   qt-mt323:qt-mt323.dll
 0001:000b2f6e       ?setFont@QPopupMenu@@UAEXABVQFont@@@Z 100b3f6e f   qt-mt323:qt-mt323.dll
 0001:000b2f74       ?timerEvent@QPopupMenu@@MAEXPAVQTimerEvent@@@Z 100b3f74 f   qt-mt323:qt-mt323.dll
 0001:000b2f7a       ?compareItems@QGList@@MAEHPAX0@Z 100b3f7a f   qt-mt323:qt-mt323.dll
 0001:000b2f80       ?write@QGList@@MBEAAVQDataStream@@AAV2@PAX@Z 100b3f80 f   qt-mt323:qt-mt323.dll
 0001:000b2f86       ?read@QGList@@MAEAAVQDataStream@@AAV2@AAPAX@Z 100b3f86 f   qt-mt323:qt-mt323.dll
 0001:000b2f8c       ?newItem@QPtrCollection@@MAEPAXPAX@Z 100b3f8c f   qt-mt323:qt-mt323.dll
 0001:000b2f92       ?write@QGDict@@MBEAAVQDataStream@@AAV2@PAX@Z 100b3f92 f   qt-mt323:qt-mt323.dll
 0001:000b2f98       ?read@QGDict@@MAEAAVQDataStream@@AAV2@AAPAX@Z 100b3f98 f   qt-mt323:qt-mt323.dll
 0001:000b2f9e       ?drawComplexControl@QWindowsStyle@@UBEXW4ComplexControl@QStyle@@PAVQPainter@@PBVQWidget@@ABVQRect@@ABVQColorGroup@@IIIABVQStyleOption@@@Z 100b3f9e f   qt-mt323:qt-mt323.dll
 0001:000b2fa4       ?pixelMetric@QWindowsStyle@@UBEHW4PixelMetric@QStyle@@PBVQWidget@@@Z 100b3fa4 f   qt-mt323:qt-mt323.dll
 0001:000b2faa       ?querySubControlMetrics@QCommonStyle@@UBE?AVQRect@@W4ComplexControl@QStyle@@PBVQWidget@@W4SubControl@4@ABVQStyleOption@@@Z 100b3faa f   qt-mt323:qt-mt323.dll
 0001:000b2fb0       ?reject@QDialog@@MAEXXZ    100b3fb0 f   qt-mt323:qt-mt323.dll
 0001:000b2fb6       ?accept@QDialog@@MAEXXZ    100b3fb6 f   qt-mt323:qt-mt323.dll
 0001:000b2fbc       ?done@QDialog@@MAEXH@Z     100b3fbc f   qt-mt323:qt-mt323.dll
 0001:000b2fc2       ?styleChange@QTabDialog@@MAEXAAVQStyle@@@Z 100b3fc2 f   qt-mt323:qt-mt323.dll
 0001:000b2fc8       ?contextMenuEvent@QDialog@@MAEXPAVQContextMenuEvent@@@Z 100b3fc8 f   qt-mt323:qt-mt323.dll
 0001:000b2fce       ?closeEvent@QDialog@@MAEXPAVQCloseEvent@@@Z 100b3fce f   qt-mt323:qt-mt323.dll
 0001:000b2fd4       ?resizeEvent@QTabDialog@@MAEXPAVQResizeEvent@@@Z 100b3fd4 f   qt-mt323:qt-mt323.dll
 0001:000b2fda       ?paintEvent@QTabDialog@@MAEXPAVQPaintEvent@@@Z 100b3fda f   qt-mt323:qt-mt323.dll
 0001:000b2fe0       ?keyPressEvent@QDialog@@MAEXPAVQKeyEvent@@@Z 100b3fe0 f   qt-mt323:qt-mt323.dll
 0001:000b2fe6       ?minimumSizeHint@QDialog@@UBE?AVQSize@@XZ 100b3fe6 f   qt-mt323:qt-mt323.dll
 0001:000b2fec       ?sizeHint@QDialog@@UBE?AVQSize@@XZ 100b3fec f   qt-mt323:qt-mt323.dll
 0001:000b2ff2       ?setGeometry@QDialog@@UAEXHHHH@Z 100b3ff2 f   qt-mt323:qt-mt323.dll
 0001:000b2ff8       ?setGeometry@QDialog@@UAEXABVQRect@@@Z 100b3ff8 f   qt-mt323:qt-mt323.dll
 0001:000b2ffe       ?resize@QDialog@@UAEXHH@Z  100b3ffe f   qt-mt323:qt-mt323.dll
 0001:000b3004       ?move@QDialog@@UAEXHH@Z    100b4004 f   qt-mt323:qt-mt323.dll
 0001:000b300a       ?hide@QDialog@@UAEXXZ      100b400a f   qt-mt323:qt-mt323.dll
 0001:000b3010       ?show@QTabDialog@@UAEXXZ   100b4010 f   qt-mt323:qt-mt323.dll
 0001:000b3016       ?setFont@QTabDialog@@UAEXABVQFont@@@Z 100b4016 f   qt-mt323:qt-mt323.dll
 0001:000b301c       ?eventFilter@QDialog@@MAE_NPAVQObject@@PAVQEvent@@@Z 100b401c f   qt-mt323:qt-mt323.dll
 0001:000b3022       ?qt_property@QTabDialog@@UAE_NHHPAVQVariant@@@Z 100b4022 f   qt-mt323:qt-mt323.dll
 0001:000b3028       ?qt_emit@QTabDialog@@UAE_NHPAUQUObject@@@Z 100b4028 f   qt-mt323:qt-mt323.dll
 0001:000b302e       ?qt_invoke@QTabDialog@@UAE_NHPAUQUObject@@@Z 100b402e f   qt-mt323:qt-mt323.dll
 0001:000b3034       ?qt_cast@QTabDialog@@UAEPAXPBD@Z 100b4034 f   qt-mt323:qt-mt323.dll
 0001:000b303a       ?className@QTabDialog@@UBEPBDXZ 100b403a f   qt-mt323:qt-mt323.dll
 0001:000b3040       ?metaObject@QTabDialog@@UBEPAVQMetaObject@@XZ 100b4040 f   qt-mt323:qt-mt323.dll
 0001:000b3046       ?qt_property@QVBox@@UAE_NHHPAVQVariant@@@Z 100b4046 f   qt-mt323:qt-mt323.dll
 0001:000b304c       ?qt_emit@QVBox@@UAE_NHPAUQUObject@@@Z 100b404c f   qt-mt323:qt-mt323.dll
 0001:000b3052       ?qt_invoke@QVBox@@UAE_NHPAUQUObject@@@Z 100b4052 f   qt-mt323:qt-mt323.dll
 0001:000b3058       ?qt_cast@QVBox@@UAEPAXPBD@Z 100b4058 f   qt-mt323:qt-mt323.dll
 0001:000b305e       ?className@QVBox@@UBEPBDXZ 100b405e f   qt-mt323:qt-mt323.dll
 0001:000b3064       ?metaObject@QVBox@@UBEPAVQMetaObject@@XZ 100b4064 f   qt-mt323:qt-mt323.dll
 0001:000b306a       ?resizeEvent@QDialog@@MAEXPAVQResizeEvent@@@Z 100b406a f   qt-mt323:qt-mt323.dll
 0001:000b3070       ?show@QDialog@@UAEXXZ      100b4070 f   qt-mt323:qt-mt323.dll
 0001:000b3076       ?qt_cast@QWidget@@UAEPAXPBD@Z 100b4076 f   qt-mt323:qt-mt323.dll
 0001:000b307c       ?qt_invoke@QWidget@@UAE_NHPAUQUObject@@@Z 100b407c f   qt-mt323:qt-mt323.dll
 0001:000b3082       ?qt_emit@QWidget@@UAE_NHPAUQUObject@@@Z 100b4082 f   qt-mt323:qt-mt323.dll
 0001:000b3088       ?qt_property@QWidget@@UAE_NHHPAVQVariant@@@Z 100b4088 f   qt-mt323:qt-mt323.dll
 0001:000b308e       ?event@QObject@@UAE_NPAVQEvent@@@Z 100b408e f   qt-mt323:qt-mt323.dll
 0001:000b3094       ?qt_property@QWidgetPlugin@@UAE_NHHPAVQVariant@@@Z 100b4094 f   qt-mt323:qt-mt323.dll
 0001:000b309a       ?qt_emit@QWidgetPlugin@@UAE_NHPAUQUObject@@@Z 100b409a f   qt-mt323:qt-mt323.dll
 0001:000b30a0       ?qt_invoke@QWidgetPlugin@@UAE_NHPAUQUObject@@@Z 100b40a0 f   qt-mt323:qt-mt323.dll
 0001:000b30a6       ?qt_cast@QWidgetPlugin@@UAEPAXPBD@Z 100b40a6 f   qt-mt323:qt-mt323.dll
 0001:000b30ac       ?className@QWidgetPlugin@@UBEPBDXZ 100b40ac f   qt-mt323:qt-mt323.dll
 0001:000b30b2       ?metaObject@QWidgetPlugin@@UBEPAVQMetaObject@@XZ 100b40b2 f   qt-mt323:qt-mt323.dll
 0001:000b30b8       ?paintCell@QListBox@@MAEXPAVQPainter@@HH@Z 100b40b8 f   qt-mt323:qt-mt323.dll
 0001:000b30be       ?invertSelection@QListBox@@UAEXXZ 100b40be f   qt-mt323:qt-mt323.dll
 0001:000b30c4       ?selectAll@QListBox@@UAEX_N@Z 100b40c4 f   qt-mt323:qt-mt323.dll
 0001:000b30ca       ?clearSelection@QListBox@@UAEXXZ 100b40ca f   qt-mt323:qt-mt323.dll
 0001:000b30d0       ?ensureCurrentVisible@QListBox@@UAEXXZ 100b40d0 f   qt-mt323:qt-mt323.dll
 0001:000b30d6       ?setVariableHeight@QListBox@@UAEX_N@Z 100b40d6 f   qt-mt323:qt-mt323.dll
 0001:000b30dc       ?setVariableWidth@QListBox@@UAEX_N@Z 100b40dc f   qt-mt323:qt-mt323.dll
 0001:000b30e2       ?setRowMode@QListBox@@UAEXW4LayoutMode@1@@Z 100b40e2 f   qt-mt323:qt-mt323.dll
 0001:000b30e8       ?setRowMode@QListBox@@UAEXH@Z 100b40e8 f   qt-mt323:qt-mt323.dll
 0001:000b30ee       ?setColumnMode@QListBox@@UAEXW4LayoutMode@1@@Z 100b40ee f   qt-mt323:qt-mt323.dll
 0001:000b30f4       ?setColumnMode@QListBox@@UAEXH@Z 100b40f4 f   qt-mt323:qt-mt323.dll
 0001:000b30fa       ?setSelected@QListBox@@UAEXPAVQListBoxItem@@_N@Z 100b40fa f   qt-mt323:qt-mt323.dll
 0001:000b3100       ?setSelectionMode@QListBox@@UAEXW4SelectionMode@1@@Z 100b4100 f   qt-mt323:qt-mt323.dll
 0001:000b3106       ?setBottomItem@QListBox@@UAEXH@Z 100b4106 f   qt-mt323:qt-mt323.dll
 0001:000b310c       ?setTopItem@QListBox@@UAEXH@Z 100b410c f   qt-mt323:qt-mt323.dll
 0001:000b3112       ?setCurrentItem@QListBox@@UAEXH@Z 100b4112 f   qt-mt323:qt-mt323.dll
 0001:000b3118       ?setCurrentItem@QListBox@@UAEXPAVQListBoxItem@@@Z 100b4118 f   qt-mt323:qt-mt323.dll
 0001:000b311e       ?viewportResizeEvent@QScrollView@@MAEXPAVQResizeEvent@@@Z 100b411e f   qt-mt323:qt-mt323.dll
 0001:000b3124       ?viewportPaintEvent@QListBox@@UAEXPAVQPaintEvent@@@Z 100b4124 f   qt-mt323:qt-mt323.dll
 0001:000b312a       ?contentsContextMenuEvent@QListBox@@MAEXPAVQContextMenuEvent@@@Z 100b412a f   qt-mt323:qt-mt323.dll
 0001:000b3130       ?contentsDropEvent@QScrollView@@MAEXPAVQDropEvent@@@Z 100b4130 f   qt-mt323:qt-mt323.dll
 0001:000b3136       ?contentsDragLeaveEvent@QScrollView@@MAEXPAVQDragLeaveEvent@@@Z 100b4136 f   qt-mt323:qt-mt323.dll
 0001:000b313c       ?contentsDragMoveEvent@QScrollView@@MAEXPAVQDragMoveEvent@@@Z 100b413c f   qt-mt323:qt-mt323.dll
 0001:000b3142       ?contentsDragEnterEvent@QScrollView@@MAEXPAVQDragEnterEvent@@@Z 100b4142 f   qt-mt323:qt-mt323.dll
 0001:000b3148       ?contentsMouseMoveEvent@QScrollView@@MAEXPAVQMouseEvent@@@Z 100b4148 f   qt-mt323:qt-mt323.dll
 0001:000b314e       ?contentsMouseDoubleClickEvent@QScrollView@@MAEXPAVQMouseEvent@@@Z 100b414e f   qt-mt323:qt-mt323.dll
 0001:000b3154       ?contentsMouseReleaseEvent@QScrollView@@MAEXPAVQMouseEvent@@@Z 100b4154 f   qt-mt323:qt-mt323.dll
 0001:000b315a       ?contentsMousePressEvent@QScrollView@@MAEXPAVQMouseEvent@@@Z 100b415a f   qt-mt323:qt-mt323.dll
 0001:000b3160       ?drawContentsOffset@QScrollView@@MAEXPAVQPainter@@HHHHHH@Z 100b4160 f   qt-mt323:qt-mt323.dll
 0001:000b3166       ?setContentsPos@QScrollView@@UAEXHH@Z 100b4166 f   qt-mt323:qt-mt323.dll
 0001:000b316c       ?windowActivationChange@QListBox@@MAEX_N@Z 100b416c f   qt-mt323:qt-mt323.dll
 0001:000b3172       ?styleChange@QScrollView@@UAEXAAVQStyle@@@Z 100b4172 f   qt-mt323:qt-mt323.dll
 0001:000b3178       ?showEvent@QListBox@@MAEXPAVQShowEvent@@@Z 100b4178 f   qt-mt323:qt-mt323.dll
 0001:000b317e       ?resizeEvent@QListBox@@MAEXPAVQResizeEvent@@@Z 100b417e f   qt-mt323:qt-mt323.dll
 0001:000b3184       ?focusOutEvent@QListBox@@MAEXPAVQFocusEvent@@@Z 100b4184 f   qt-mt323:qt-mt323.dll
 0001:000b318a       ?focusInEvent@QListBox@@MAEXPAVQFocusEvent@@@Z 100b418a f   qt-mt323:qt-mt323.dll
 0001:000b3190       ?keyPressEvent@QListBox@@MAEXPAVQKeyEvent@@@Z 100b4190 f   qt-mt323:qt-mt323.dll
 0001:000b3196       ?mouseMoveEvent@QListBox@@MAEXPAVQMouseEvent@@@Z 100b4196 f   qt-mt323:qt-mt323.dll
 0001:000b319c       ?mouseDoubleClickEvent@QListBox@@MAEXPAVQMouseEvent@@@Z 100b419c f   qt-mt323:qt-mt323.dll
 0001:000b31a2       ?mouseReleaseEvent@QListBox@@MAEXPAVQMouseEvent@@@Z 100b41a2 f   qt-mt323:qt-mt323.dll
 0001:000b31a8       ?mousePressEvent@QListBox@@MAEXPAVQMouseEvent@@@Z 100b41a8 f   qt-mt323:qt-mt323.dll
 0001:000b31ae       ?minimumSizeHint@QListBox@@UBE?AVQSize@@XZ 100b41ae f   qt-mt323:qt-mt323.dll
 0001:000b31b4       ?sizeHint@QListBox@@UBE?AVQSize@@XZ 100b41b4 f   qt-mt323:qt-mt323.dll
 0001:000b31ba       ?show@QScrollView@@UAEXXZ  100b41ba f   qt-mt323:qt-mt323.dll
 0001:000b31c0       ?setFont@QListBox@@UAEXABVQFont@@@Z 100b41c0 f   qt-mt323:qt-mt323.dll
 0001:000b31c6       ?eventFilter@QListBox@@MAE_NPAVQObject@@PAVQEvent@@@Z 100b41c6 f   qt-mt323:qt-mt323.dll
 0001:000b31cc       ?spacerItem@QSpacerItem@@UAEPAV1@XZ 100b41cc f   qt-mt323:qt-mt323.dll
 0001:000b31d2       ?layout@QLayoutItem@@UAEPAVQLayout@@XZ 100b41d2 f   qt-mt323:qt-mt323.dll
 0001:000b31d8       ?iterator@QLayoutItem@@UAE?AVQLayoutIterator@@XZ 100b41d8 f   qt-mt323:qt-mt323.dll
 0001:000b31de       ?invalidate@QLayoutItem@@UAEXXZ 100b41de f   qt-mt323:qt-mt323.dll
 0001:000b31e4       ?heightForWidth@QLayoutItem@@UBEHH@Z 100b41e4 f   qt-mt323:qt-mt323.dll
 0001:000b31ea       ?hasHeightForWidth@QLayoutItem@@UBE_NXZ 100b41ea f   qt-mt323:qt-mt323.dll
 0001:000b31f0       ?isEmpty@QSpacerItem@@UBE_NXZ 100b41f0 f   qt-mt323:qt-mt323.dll
 0001:000b31f6       ?geometry@QSpacerItem@@UBE?AVQRect@@XZ 100b41f6 f   qt-mt323:qt-mt323.dll
 0001:000b31fc       ?setGeometry@QSpacerItem@@UAEXABVQRect@@@Z 100b41fc f   qt-mt323:qt-mt323.dll
 0001:000b3202       ?expanding@QSpacerItem@@UBE?AW4ExpandData@QSizePolicy@@XZ 100b4202 f   qt-mt323:qt-mt323.dll
 0001:000b3208       ?maximumSize@QSpacerItem@@UBE?AVQSize@@XZ 100b4208 f   qt-mt323:qt-mt323.dll
 0001:000b320e       ?minimumSize@QSpacerItem@@UBE?AVQSize@@XZ 100b420e f   qt-mt323:qt-mt323.dll
 0001:000b3214       ?sizeHint@QSpacerItem@@UBE?AVQSize@@XZ 100b4214 f   qt-mt323:qt-mt323.dll
 0001:000b321a       ?setOn@QPushButton@@UAEX_N@Z 100b421a f   qt-mt323:qt-mt323.dll
 0001:000b3220       ?setIsMenuButton@QPushButton@@UAEX_N@Z 100b4220 f   qt-mt323:qt-mt323.dll
 0001:000b3226       ?setDefault@QPushButton@@UAEX_N@Z 100b4226 f   qt-mt323:qt-mt323.dll
 0001:000b322c       ?setAutoDefault@QPushButton@@UAEX_N@Z 100b422c f   qt-mt323:qt-mt323.dll
 0001:000b3232       ?drawButtonLabel@QPushButton@@MAEXPAVQPainter@@@Z 100b4232 f   qt-mt323:qt-mt323.dll
 0001:000b3238       ?drawButton@QPushButton@@MAEXPAVQPainter@@@Z 100b4238 f   qt-mt323:qt-mt323.dll
 0001:000b323e       ?hitButton@QButton@@MBE_NABVQPoint@@@Z 100b423e f   qt-mt323:qt-mt323.dll
 0001:000b3244       ?updateMask@QPushButton@@MAEXXZ 100b4244 f   qt-mt323:qt-mt323.dll
 0001:000b324a       ?resizeEvent@QPushButton@@MAEXPAVQResizeEvent@@@Z 100b424a f   qt-mt323:qt-mt323.dll
 0001:000b3250       ?focusOutEvent@QPushButton@@MAEXPAVQFocusEvent@@@Z 100b4250 f   qt-mt323:qt-mt323.dll
 0001:000b3256       ?focusInEvent@QPushButton@@MAEXPAVQFocusEvent@@@Z 100b4256 f   qt-mt323:qt-mt323.dll
 0001:000b325c       ?sizeHint@QPushButton@@UBE?AVQSize@@XZ 100b425c f   qt-mt323:qt-mt323.dll
 0001:000b3262       ?setGeometry@QPushButton@@UAEXHHHH@Z 100b4262 f   qt-mt323:qt-mt323.dll
 0001:000b3268       ?setGeometry@QPushButton@@UAEXABVQRect@@@Z 100b4268 f   qt-mt323:qt-mt323.dll
 0001:000b326e       ?resize@QPushButton@@UAEXHH@Z 100b426e f   qt-mt323:qt-mt323.dll
 0001:000b3274       ?move@QPushButton@@UAEXHH@Z 100b4274 f   qt-mt323:qt-mt323.dll
 0001:000b327a       ?qt_property@QPushButton@@UAE_NHHPAVQVariant@@@Z 100b427a f   qt-mt323:qt-mt323.dll
 0001:000b3280       ?qt_emit@QPushButton@@UAE_NHPAUQUObject@@@Z 100b4280 f   qt-mt323:qt-mt323.dll
 0001:000b3286       ?qt_invoke@QPushButton@@UAE_NHPAUQUObject@@@Z 100b4286 f   qt-mt323:qt-mt323.dll
 0001:000b328c       ?qt_cast@QPushButton@@UAEPAXPBD@Z 100b428c f   qt-mt323:qt-mt323.dll
 0001:000b3292       ?className@QPushButton@@UBEPBDXZ 100b4292 f   qt-mt323:qt-mt323.dll
 0001:000b3298       ?metaObject@QPushButton@@UBEPAVQMetaObject@@XZ 100b4298 f   qt-mt323:qt-mt323.dll
 0001:000b329e       ?className@QWidget@@UBEPBDXZ 100b429e f   qt-mt323:qt-mt323.dll
 0001:000b32a4       ?metaObject@QWidget@@UBEPAVQMetaObject@@XZ 100b42a4 f   qt-mt323:qt-mt323.dll
 0001:000b32aa       ?setNum@QLabel@@UAEXH@Z    100b42aa f   qt-mt323:qt-mt323.dll
 0001:000b32b0       ?setNum@QLabel@@UAEXN@Z    100b42b0 f   qt-mt323:qt-mt323.dll
 0001:000b32b6       ?setMovie@QLabel@@UAEXABVQMovie@@@Z 100b42b6 f   qt-mt323:qt-mt323.dll
 0001:000b32bc       ?setPicture@QLabel@@UAEXABVQPicture@@@Z 100b42bc f   qt-mt323:qt-mt323.dll
 0001:000b32c2       ?setPixmap@QLabel@@UAEXABVQPixmap@@@Z 100b42c2 f   qt-mt323:qt-mt323.dll
 0001:000b32c8       ?setText@QLabel@@UAEXABVQString@@@Z 100b42c8 f   qt-mt323:qt-mt323.dll
 0001:000b32ce       ?setBuddy@QLabel@@UAEXPAVQWidget@@@Z 100b42ce f   qt-mt323:qt-mt323.dll
 0001:000b32d4       ?setAutoResize@QLabel@@UAEX_N@Z 100b42d4 f   qt-mt323:qt-mt323.dll
 0001:000b32da       ?setAlignment@QLabel@@UAEXH@Z 100b42da f   qt-mt323:qt-mt323.dll
 0001:000b32e0       ?drawContents@QLabel@@MAEXPAVQPainter@@@Z 100b42e0 f   qt-mt323:qt-mt323.dll
 0001:000b32e6       ?fontChange@QLabel@@MAEXABVQFont@@@Z 100b42e6 f   qt-mt323:qt-mt323.dll
 0001:000b32ec       ?resizeEvent@QLabel@@MAEXPAVQResizeEvent@@@Z 100b42ec f   qt-mt323:qt-mt323.dll
 0001:000b32f2       ?heightForWidth@QLabel@@UBEHH@Z 100b42f2 f   qt-mt323:qt-mt323.dll
 0001:000b32f8       ?minimumSizeHint@QLabel@@UBE?AVQSize@@XZ 100b42f8 f   qt-mt323:qt-mt323.dll
 0001:000b32fe       ?sizeHint@QLabel@@UBE?AVQSize@@XZ 100b42fe f   qt-mt323:qt-mt323.dll
 0001:000b3304       ?setFont@QLabel@@UAEXABVQFont@@@Z 100b4304 f   qt-mt323:qt-mt323.dll
 0001:000b330a       ?qt_property@QLabel@@UAE_NHHPAVQVariant@@@Z 100b430a f   qt-mt323:qt-mt323.dll
 0001:000b3310       ?qt_emit@QLabel@@UAE_NHPAUQUObject@@@Z 100b4310 f   qt-mt323:qt-mt323.dll
 0001:000b3316       ?qt_invoke@QLabel@@UAE_NHPAUQUObject@@@Z 100b4316 f   qt-mt323:qt-mt323.dll
 0001:000b331c       ?qt_cast@QLabel@@UAEPAXPBD@Z 100b431c f   qt-mt323:qt-mt323.dll
 0001:000b3322       ?className@QLabel@@UBEPBDXZ 100b4322 f   qt-mt323:qt-mt323.dll
 0001:000b3328       ?metaObject@QLabel@@UBEPAVQMetaObject@@XZ 100b4328 f   qt-mt323:qt-mt323.dll
 0001:000b332e       ?drawButtonLabel@QCheckBox@@MAEXPAVQPainter@@@Z 100b432e f   qt-mt323:qt-mt323.dll
 0001:000b3334       ?drawButton@QCheckBox@@MAEXPAVQPainter@@@Z 100b4334 f   qt-mt323:qt-mt323.dll
 0001:000b333a       ?hitButton@QCheckBox@@MBE_NABVQPoint@@@Z 100b433a f   qt-mt323:qt-mt323.dll
 0001:000b3340       ?updateMask@QCheckBox@@MAEXXZ 100b4340 f   qt-mt323:qt-mt323.dll
 0001:000b3346       ?resizeEvent@QCheckBox@@MAEXPAVQResizeEvent@@@Z 100b4346 f   qt-mt323:qt-mt323.dll
 0001:000b334c       ?sizeHint@QCheckBox@@UBE?AVQSize@@XZ 100b434c f   qt-mt323:qt-mt323.dll
 0001:000b3352       ?qt_property@QCheckBox@@UAE_NHHPAVQVariant@@@Z 100b4352 f   qt-mt323:qt-mt323.dll
 0001:000b3358       ?qt_emit@QCheckBox@@UAE_NHPAUQUObject@@@Z 100b4358 f   qt-mt323:qt-mt323.dll
 0001:000b335e       ?qt_invoke@QCheckBox@@UAE_NHPAUQUObject@@@Z 100b435e f   qt-mt323:qt-mt323.dll
 0001:000b3364       ?qt_cast@QCheckBox@@UAEPAXPBD@Z 100b4364 f   qt-mt323:qt-mt323.dll
 0001:000b336a       ?className@QCheckBox@@UBEPBDXZ 100b436a f   qt-mt323:qt-mt323.dll
 0001:000b3370       ?metaObject@QCheckBox@@UBEPAVQMetaObject@@XZ 100b4370 f   qt-mt323:qt-mt323.dll
 0001:000b3376       ?stepChange@QRangeControl@@MAEXXZ 100b4376 f   qt-mt323:qt-mt323.dll
 0001:000b337c       ?rangeChange@QSpinBox@@MAEXXZ 100b437c f   qt-mt323:qt-mt323.dll
 0001:000b3382       ?valueChange@QSpinBox@@MAEXXZ 100b4382 f   qt-mt323:qt-mt323.dll
 0001:000b3388       ?interpretText@QSpinBox@@MAEXXZ 100b4388 f   qt-mt323:qt-mt323.dll
 0001:000b338e       ?updateDisplay@QSpinBox@@MAEXXZ 100b438e f   qt-mt323:qt-mt323.dll
 0001:000b3394       ?mapTextToValue@QSpinBox@@MAEHPA_N@Z 100b4394 f   qt-mt323:qt-mt323.dll
 0001:000b339a       ?mapValueToText@QSpinBox@@MAE?AVQString@@H@Z 100b439a f   qt-mt323:qt-mt323.dll
 0001:000b33a0       ?selectAll@QSpinBox@@UAEXXZ 100b43a0 f   qt-mt323:qt-mt323.dll
 0001:000b33a6       ?stepDown@QSpinBox@@UAEXXZ 100b43a6 f   qt-mt323:qt-mt323.dll
 0001:000b33ac       ?stepUp@QSpinBox@@UAEXXZ   100b43ac f   qt-mt323:qt-mt323.dll
 0001:000b33b2       ?setSuffix@QSpinBox@@UAEXABVQString@@@Z 100b43b2 f   qt-mt323:qt-mt323.dll
 0001:000b33b8       ?setPrefix@QSpinBox@@UAEXABVQString@@@Z 100b43b8 f   qt-mt323:qt-mt323.dll
 0001:000b33be       ?setValue@QSpinBox@@UAEXH@Z 100b43be f   qt-mt323:qt-mt323.dll
 0001:000b33c4       ?setValidator@QSpinBox@@UAEXPBVQValidator@@@Z 100b43c4 f   qt-mt323:qt-mt323.dll
 0001:000b33ca       ?setButtonSymbols@QSpinBox@@UAEXW4ButtonSymbols@1@@Z 100b43ca f   qt-mt323:qt-mt323.dll
 0001:000b33d0       ?setWrapping@QSpinBox@@UAEX_N@Z 100b43d0 f   qt-mt323:qt-mt323.dll
 0001:000b33d6       ?setSpecialValueText@QSpinBox@@UAEXABVQString@@@Z 100b43d6 f   qt-mt323:qt-mt323.dll
 0001:000b33dc       ?cleanText@QSpinBox@@UBE?AVQString@@XZ 100b43dc f   qt-mt323:qt-mt323.dll
 0001:000b33e2       ?suffix@QSpinBox@@UBE?AVQString@@XZ 100b43e2 f   qt-mt323:qt-mt323.dll
 0001:000b33e8       ?prefix@QSpinBox@@UBE?AVQString@@XZ 100b43e8 f   qt-mt323:qt-mt323.dll
 0001:000b33ee       ?styleChange@QSpinBox@@MAEXAAVQStyle@@@Z 100b43ee f   qt-mt323:qt-mt323.dll
 0001:000b33f4       ?resizeEvent@QSpinBox@@MAEXPAVQResizeEvent@@@Z 100b43f4 f   qt-mt323:qt-mt323.dll
 0001:000b33fa       ?leaveEvent@QSpinBox@@MAEXPAVQEvent@@@Z 100b43fa f   qt-mt323:qt-mt323.dll
 0001:000b3400       ?wheelEvent@QSpinBox@@MAEXPAVQWheelEvent@@@Z 100b4400 f   qt-mt323:qt-mt323.dll
 0001:000b3406       ?minimumSizeHint@QSpinBox@@UBE?AVQSize@@XZ 100b4406 f   qt-mt323:qt-mt323.dll
 0001:000b340c       ?sizeHint@QSpinBox@@UBE?AVQSize@@XZ 100b440c f   qt-mt323:qt-mt323.dll
 0001:000b3412       ?setEnabled@QSpinBox@@UAEX_N@Z 100b4412 f   qt-mt323:qt-mt323.dll
 0001:000b3418       ?eventFilter@QSpinBox@@MAE_NPAVQObject@@PAVQEvent@@@Z 100b4418 f   qt-mt323:qt-mt323.dll
 0001:000b341e       ?qt_property@QSpinBox@@UAE_NHHPAVQVariant@@@Z 100b441e f   qt-mt323:qt-mt323.dll
 0001:000b3424       ?qt_emit@QSpinBox@@UAE_NHPAUQUObject@@@Z 100b4424 f   qt-mt323:qt-mt323.dll
 0001:000b342a       ?qt_invoke@QSpinBox@@UAE_NHPAUQUObject@@@Z 100b442a f   qt-mt323:qt-mt323.dll
 0001:000b3430       ?qt_cast@QSpinBox@@UAEPAXPBD@Z 100b4430 f   qt-mt323:qt-mt323.dll
 0001:000b3436       ?className@QSpinBox@@UBEPBDXZ 100b4436 f   qt-mt323:qt-mt323.dll
 0001:000b343c       ?metaObject@QSpinBox@@UBEPAVQMetaObject@@XZ 100b443c f   qt-mt323:qt-mt323.dll
 0001:000b3442       ?setChecked@QRadioButton@@UAEX_N@Z 100b4442 f   qt-mt323:qt-mt323.dll
 0001:000b3448       ?setGroup@QButton@@EAEXPAVQButtonGroup@@@Z 100b4448 f   qt-mt323:qt-mt323.dll
 0001:000b344e       ?drawButtonLabel@QRadioButton@@MAEXPAVQPainter@@@Z 100b444e f   qt-mt323:qt-mt323.dll
 0001:000b3454       ?drawButton@QRadioButton@@MAEXPAVQPainter@@@Z 100b4454 f   qt-mt323:qt-mt323.dll
 0001:000b345a       ?hitButton@QRadioButton@@MBE_NABVQPoint@@@Z 100b445a f   qt-mt323:qt-mt323.dll
 0001:000b3460       ?setState@QButton@@MAEXW4ToggleState@1@@Z 100b4460 f   qt-mt323:qt-mt323.dll
 0001:000b3466       ?setToggleType@QButton@@MAEXW4ToggleType@1@@Z 100b4466 f   qt-mt323:qt-mt323.dll
 0001:000b346c       ?setAutoRepeat@QButton@@UAEX_N@Z 100b446c f   qt-mt323:qt-mt323.dll
 0001:000b3472       ?setDown@QButton@@UAEX_N@Z 100b4472 f   qt-mt323:qt-mt323.dll
 0001:000b3478       ?setAccel@QButton@@UAEXABVQKeySequence@@@Z 100b4478 f   qt-mt323:qt-mt323.dll
 0001:000b347e       ?setPixmap@QButton@@UAEXABVQPixmap@@@Z 100b447e f   qt-mt323:qt-mt323.dll
 0001:000b3484       ?setText@QButton@@UAEXABVQString@@@Z 100b4484 f   qt-mt323:qt-mt323.dll
 0001:000b348a       ?enabledChange@QButton@@MAEX_N@Z 100b448a f   qt-mt323:qt-mt323.dll
 0001:000b3490       ?updateMask@QRadioButton@@MAEXXZ 100b4490 f   qt-mt323:qt-mt323.dll
 0001:000b3496       ?resizeEvent@QRadioButton@@MAEXPAVQResizeEvent@@@Z 100b4496 f   qt-mt323:qt-mt323.dll
 0001:000b349c       ?paintEvent@QButton@@MAEXPAVQPaintEvent@@@Z 100b449c f   qt-mt323:qt-mt323.dll
 0001:000b34a2       ?focusOutEvent@QButton@@MAEXPAVQFocusEvent@@@Z 100b44a2 f   qt-mt323:qt-mt323.dll
 0001:000b34a8       ?focusInEvent@QButton@@MAEXPAVQFocusEvent@@@Z 100b44a8 f   qt-mt323:qt-mt323.dll
 0001:000b34ae       ?keyReleaseEvent@QButton@@MAEXPAVQKeyEvent@@@Z 100b44ae f   qt-mt323:qt-mt323.dll
 0001:000b34b4       ?keyPressEvent@QButton@@MAEXPAVQKeyEvent@@@Z 100b44b4 f   qt-mt323:qt-mt323.dll
 0001:000b34ba       ?mouseMoveEvent@QButton@@MAEXPAVQMouseEvent@@@Z 100b44ba f   qt-mt323:qt-mt323.dll
 0001:000b34c0       ?mouseReleaseEvent@QButton@@MAEXPAVQMouseEvent@@@Z 100b44c0 f   qt-mt323:qt-mt323.dll
 0001:000b34c6       ?mousePressEvent@QButton@@MAEXPAVQMouseEvent@@@Z 100b44c6 f   qt-mt323:qt-mt323.dll
 0001:000b34cc       ?sizeHint@QRadioButton@@UBE?AVQSize@@XZ 100b44cc f   qt-mt323:qt-mt323.dll
 0001:000b34d2       ?qt_property@QRadioButton@@UAE_NHHPAVQVariant@@@Z 100b44d2 f   qt-mt323:qt-mt323.dll
 0001:000b34d8       ?qt_emit@QRadioButton@@UAE_NHPAUQUObject@@@Z 100b44d8 f   qt-mt323:qt-mt323.dll
 0001:000b34de       ?qt_invoke@QRadioButton@@UAE_NHPAUQUObject@@@Z 100b44de f   qt-mt323:qt-mt323.dll
 0001:000b34e4       ?qt_cast@QRadioButton@@UAEPAXPBD@Z 100b44e4 f   qt-mt323:qt-mt323.dll
 0001:000b34ea       ?className@QRadioButton@@UBEPBDXZ 100b44ea f   qt-mt323:qt-mt323.dll
 0001:000b34f0       ?metaObject@QRadioButton@@UBEPAVQMetaObject@@XZ 100b44f0 f   qt-mt323:qt-mt323.dll
 0001:000b34f6       ?moveFocus@QButtonGroup@@UAEXH@Z 100b44f6 f   qt-mt323:qt-mt323.dll
 0001:000b34fc       ?setButton@QButtonGroup@@UAEXH@Z 100b44fc f   qt-mt323:qt-mt323.dll
 0001:000b3502       ?setRadioButtonExclusive@QButtonGroup@@UAEX_N@Z 100b4502 f   qt-mt323:qt-mt323.dll
 0001:000b3508       ?setExclusive@QButtonGroup@@UAEX_N@Z 100b4508 f   qt-mt323:qt-mt323.dll
 0001:000b350e       ?event@QButtonGroup@@MAE_NPAVQEvent@@@Z 100b450e f   qt-mt323:qt-mt323.dll
 0001:000b3514       ?qt_property@QButtonGroup@@UAE_NHHPAVQVariant@@@Z 100b4514 f   qt-mt323:qt-mt323.dll
 0001:000b351a       ?qt_emit@QButtonGroup@@UAE_NHPAUQUObject@@@Z 100b451a f   qt-mt323:qt-mt323.dll
 0001:000b3520       ?qt_invoke@QButtonGroup@@UAE_NHPAUQUObject@@@Z 100b4520 f   qt-mt323:qt-mt323.dll
 0001:000b3526       ?qt_cast@QButtonGroup@@UAEPAXPBD@Z 100b4526 f   qt-mt323:qt-mt323.dll
 0001:000b352c       ?className@QButtonGroup@@UBEPBDXZ 100b452c f   qt-mt323:qt-mt323.dll
 0001:000b3532       ?metaObject@QButtonGroup@@UBEPAVQMetaObject@@XZ 100b4532 f   qt-mt323:qt-mt323.dll
 0001:000b3538       ?createPopupMenu@QLineEdit@@MAEPAVQPopupMenu@@XZ 100b4538 f   qt-mt323:qt-mt323.dll
 0001:000b353e       ?setDragEnabled@QLineEdit@@UAEX_N@Z 100b453e f   qt-mt323:qt-mt323.dll
 0001:000b3544       ?paste@QLineEdit@@UAEXXZ   100b4544 f   qt-mt323:qt-mt323.dll
 0001:000b354a       ?copy@QLineEdit@@UBEXXZ    100b454a f   qt-mt323:qt-mt323.dll
 0001:000b3550       ?cut@QLineEdit@@UAEXXZ     100b4550 f   qt-mt323:qt-mt323.dll
 0001:000b3556       ?setAlignment@QLineEdit@@UAEXH@Z 100b4556 f   qt-mt323:qt-mt323.dll
 0001:000b355c       ?setCursorPosition@QLineEdit@@UAEXH@Z 100b455c f   qt-mt323:qt-mt323.dll
 0001:000b3562       ?setSelection@QLineEdit@@UAEXHH@Z 100b4562 f   qt-mt323:qt-mt323.dll
 0001:000b3568       ?setValidator@QLineEdit@@UAEXPBVQValidator@@@Z 100b4568 f   qt-mt323:qt-mt323.dll
 0001:000b356e       ?setReadOnly@QLineEdit@@UAEX_N@Z 100b456e f   qt-mt323:qt-mt323.dll
 0001:000b3574       ?setEchoMode@QLineEdit@@UAEXW4EchoMode@1@@Z 100b4574 f   qt-mt323:qt-mt323.dll
 0001:000b357a       ?setFrame@QLineEdit@@UAEX_N@Z 100b457a f   qt-mt323:qt-mt323.dll
 0001:000b3580       ?setMaxLength@QLineEdit@@UAEXH@Z 100b4580 f   qt-mt323:qt-mt323.dll
 0001:000b3586       ?redo@QLineEdit@@UAEXXZ    100b4586 f   qt-mt323:qt-mt323.dll
 0001:000b358c       ?undo@QLineEdit@@UAEXXZ    100b458c f   qt-mt323:qt-mt323.dll
 0001:000b3592       ?clear@QLineEdit@@UAEXXZ   100b4592 f   qt-mt323:qt-mt323.dll
 0001:000b3598       ?insert@QLineEdit@@UAEXABVQString@@@Z 100b4598 f   qt-mt323:qt-mt323.dll
 0001:000b359e       ?clearValidator@QLineEdit@@UAEXXZ 100b459e f   qt-mt323:qt-mt323.dll
 0001:000b35a4       ?deselect@QLineEdit@@UAEXXZ 100b45a4 f   qt-mt323:qt-mt323.dll
 0001:000b35aa       ?selectAll@QLineEdit@@UAEXXZ 100b45aa f   qt-mt323:qt-mt323.dll
 0001:000b35b0       ?setText@QLineEdit@@UAEXABVQString@@@Z 100b45b0 f   qt-mt323:qt-mt323.dll
 0001:000b35b6       ?drawContents@QLineEdit@@MAEXPAVQPainter@@@Z 100b45b6 f   qt-mt323:qt-mt323.dll
 0001:000b35bc       ?windowActivationChange@QLineEdit@@MAEX_N@Z 100b45bc f   qt-mt323:qt-mt323.dll
 0001:000b35c2       ?dropEvent@QLineEdit@@MAEXPAVQDropEvent@@@Z 100b45c2 f   qt-mt323:qt-mt323.dll
 0001:000b35c8       ?dragLeaveEvent@QLineEdit@@MAEXPAVQDragLeaveEvent@@@Z 100b45c8 f   qt-mt323:qt-mt323.dll
 0001:000b35ce       ?dragMoveEvent@QLineEdit@@MAEXPAVQDragMoveEvent@@@Z 100b45ce f   qt-mt323:qt-mt323.dll
 0001:000b35d4       ?dragEnterEvent@QLineEdit@@MAEXPAVQDragEnterEvent@@@Z 100b45d4 f   qt-mt323:qt-mt323.dll
 0001:000b35da       ?imEndEvent@QLineEdit@@MAEXPAVQIMEvent@@@Z 100b45da f   qt-mt323:qt-mt323.dll
 0001:000b35e0       ?imComposeEvent@QLineEdit@@MAEXPAVQIMEvent@@@Z 100b45e0 f   qt-mt323:qt-mt323.dll
 0001:000b35e6       ?imStartEvent@QLineEdit@@MAEXPAVQIMEvent@@@Z 100b45e6 f   qt-mt323:qt-mt323.dll
 0001:000b35ec       ?contextMenuEvent@QLineEdit@@MAEXPAVQContextMenuEvent@@@Z 100b45ec f   qt-mt323:qt-mt323.dll
 0001:000b35f2       ?resizeEvent@QLineEdit@@MAEXPAVQResizeEvent@@@Z 100b45f2 f   qt-mt323:qt-mt323.dll
 0001:000b35f8       ?focusOutEvent@QLineEdit@@MAEXPAVQFocusEvent@@@Z 100b45f8 f   qt-mt323:qt-mt323.dll
 0001:000b35fe       ?focusInEvent@QLineEdit@@MAEXPAVQFocusEvent@@@Z 100b45fe f   qt-mt323:qt-mt323.dll
 0001:000b3604       ?keyPressEvent@QLineEdit@@MAEXPAVQKeyEvent@@@Z 100b4604 f   qt-mt323:qt-mt323.dll
 0001:000b360a       ?mouseMoveEvent@QLineEdit@@MAEXPAVQMouseEvent@@@Z 100b460a f   qt-mt323:qt-mt323.dll
 0001:000b3610       ?mouseDoubleClickEvent@QLineEdit@@MAEXPAVQMouseEvent@@@Z 100b4610 f   qt-mt323:qt-mt323.dll
 0001:000b3616       ?mouseReleaseEvent@QLineEdit@@MAEXPAVQMouseEvent@@@Z 100b4616 f   qt-mt323:qt-mt323.dll
 0001:000b361c       ?mousePressEvent@QLineEdit@@MAEXPAVQMouseEvent@@@Z 100b461c f   qt-mt323:qt-mt323.dll
 0001:000b3622       ?minimumSizeHint@QLineEdit@@UBE?AVQSize@@XZ 100b4622 f   qt-mt323:qt-mt323.dll
 0001:000b3628       ?sizeHint@QLineEdit@@UBE?AVQSize@@XZ 100b4628 f   qt-mt323:qt-mt323.dll
 0001:000b362e       ?setFont@QLineEdit@@UAEXABVQFont@@@Z 100b462e f   qt-mt323:qt-mt323.dll
 0001:000b3634       ?setPalette@QLineEdit@@UAEXABVQPalette@@@Z 100b4634 f   qt-mt323:qt-mt323.dll
 0001:000b363a       ?event@QLineEdit@@MAE_NPAVQEvent@@@Z 100b463a f   qt-mt323:qt-mt323.dll
 0001:000b3640       ?qt_property@QLineEdit@@UAE_NHHPAVQVariant@@@Z 100b4640 f   qt-mt323:qt-mt323.dll
 0001:000b3646       ?qt_emit@QLineEdit@@UAE_NHPAUQUObject@@@Z 100b4646 f   qt-mt323:qt-mt323.dll
 0001:000b364c       ?qt_invoke@QLineEdit@@UAE_NHPAUQUObject@@@Z 100b464c f   qt-mt323:qt-mt323.dll
 0001:000b3652       ?qt_cast@QLineEdit@@UAEPAXPBD@Z 100b4652 f   qt-mt323:qt-mt323.dll
 0001:000b3658       ?className@QLineEdit@@UBEPBDXZ 100b4658 f   qt-mt323:qt-mt323.dll
 0001:000b365e       ?metaObject@QLineEdit@@UBEPAVQMetaObject@@XZ 100b465e f   qt-mt323:qt-mt323.dll
 0001:000b3664       ?setAlignment@QGroupBox@@UAEXH@Z 100b4664 f   qt-mt323:qt-mt323.dll
 0001:000b366a       ?setTitle@QGroupBox@@UAEXABVQString@@@Z 100b466a f   qt-mt323:qt-mt323.dll
 0001:000b3670       ?setColumnLayout@QGroupBox@@UAEXHW4Orientation@Qt@@@Z 100b4670 f   qt-mt323:qt-mt323.dll
 0001:000b3676       ?frameChanged@QFrame@@MAEXXZ 100b4676 f   qt-mt323:qt-mt323.dll
 0001:000b367c       ?fontChange@QGroupBox@@MAEXABVQFont@@@Z 100b467c f   qt-mt323:qt-mt323.dll
 0001:000b3682       ?resizeEvent@QGroupBox@@MAEXPAVQResizeEvent@@@Z 100b4682 f   qt-mt323:qt-mt323.dll
 0001:000b3688       ?paintEvent@QGroupBox@@MAEXPAVQPaintEvent@@@Z 100b4688 f   qt-mt323:qt-mt323.dll
 0001:000b368e       ?focusInEvent@QGroupBox@@MAEXPAVQFocusEvent@@@Z 100b468e f   qt-mt323:qt-mt323.dll
 0001:000b3694       ?sizeHint@QGroupBox@@UBE?AVQSize@@XZ 100b4694 f   qt-mt323:qt-mt323.dll
 0001:000b369a       ?setEnabled@QGroupBox@@UAEX_N@Z 100b469a f   qt-mt323:qt-mt323.dll
 0001:000b36a0       ?childEvent@QGroupBox@@MAEXPAVQChildEvent@@@Z 100b46a0 f   qt-mt323:qt-mt323.dll
 0001:000b36a6       ?event@QGroupBox@@MAE_NPAVQEvent@@@Z 100b46a6 f   qt-mt323:qt-mt323.dll
 0001:000b36ac       ?qt_property@QGroupBox@@UAE_NHHPAVQVariant@@@Z 100b46ac f   qt-mt323:qt-mt323.dll
 0001:000b36b2       ?qt_emit@QGroupBox@@UAE_NHPAUQUObject@@@Z 100b46b2 f   qt-mt323:qt-mt323.dll
 0001:000b36b8       ?qt_invoke@QGroupBox@@UAE_NHPAUQUObject@@@Z 100b46b8 f   qt-mt323:qt-mt323.dll
 0001:000b36be       ?qt_cast@QGroupBox@@UAEPAXPBD@Z 100b46be f   qt-mt323:qt-mt323.dll
 0001:000b36c4       ?className@QGroupBox@@UBEPBDXZ 100b46c4 f   qt-mt323:qt-mt323.dll
 0001:000b36ca       ?metaObject@QGroupBox@@UBEPAVQMetaObject@@XZ 100b46ca f   qt-mt323:qt-mt323.dll
 0001:000b36d0       ?removePage@QTabWidget@@UAEXPAVQWidget@@@Z 100b46d0 f   qt-mt323:qt-mt323.dll
 0001:000b36d6       ?showPage@QTabWidget@@UAEXPAVQWidget@@@Z 100b46d6 f   qt-mt323:qt-mt323.dll
 0001:000b36dc       ?insertTab@QTabWidget@@UAEXPAVQWidget@@ABVQString@@H@Z 100b46dc f   qt-mt323:qt-mt323.dll
 0001:000b36e2       ?insertTab@QTabWidget@@UAEXPAVQWidget@@ABVQIconSet@@ABVQString@@H@Z 100b46e2 f   qt-mt323:qt-mt323.dll
 0001:000b36e8       ?insertTab@QTabWidget@@UAEXPAVQWidget@@PAVQTab@@H@Z 100b46e8 f   qt-mt323:qt-mt323.dll
 0001:000b36ee       ?addTab@QTabWidget@@UAEXPAVQWidget@@ABVQString@@@Z 100b46ee f   qt-mt323:qt-mt323.dll
 0001:000b36f4       ?addTab@QTabWidget@@UAEXPAVQWidget@@ABVQIconSet@@ABVQString@@@Z 100b46f4 f   qt-mt323:qt-mt323.dll
 0001:000b36fa       ?addTab@QTabWidget@@UAEXPAVQWidget@@PAVQTab@@@Z 100b46fa f   qt-mt323:qt-mt323.dll
 0001:000b3700       ?styleChange@QTabWidget@@MAEXAAVQStyle@@@Z 100b4700 f   qt-mt323:qt-mt323.dll
 0001:000b3706       ?updateMask@QTabWidget@@MAEXXZ 100b4706 f   qt-mt323:qt-mt323.dll
 0001:000b370c       ?showEvent@QTabWidget@@MAEXPAVQShowEvent@@@Z 100b470c f   qt-mt323:qt-mt323.dll
 0001:000b3712       ?resizeEvent@QTabWidget@@MAEXPAVQResizeEvent@@@Z 100b4712 f   qt-mt323:qt-mt323.dll
 0001:000b3718       ?minimumSizeHint@QTabWidget@@UBE?AVQSize@@XZ 100b4718 f   qt-mt323:qt-mt323.dll
 0001:000b371e       ?sizeHint@QTabWidget@@UBE?AVQSize@@XZ 100b471e f   qt-mt323:qt-mt323.dll
 0001:000b3724       ?eventFilter@QTabWidget@@MAE_NPAVQObject@@PAVQEvent@@@Z 100b4724 f   qt-mt323:qt-mt323.dll
 0001:000b372a       ?qt_property@QTabWidget@@UAE_NHHPAVQVariant@@@Z 100b472a f   qt-mt323:qt-mt323.dll
 0001:000b3730       ?qt_emit@QTabWidget@@UAE_NHPAUQUObject@@@Z 100b4730 f   qt-mt323:qt-mt323.dll
 0001:000b3736       ?qt_invoke@QTabWidget@@UAE_NHPAUQUObject@@@Z 100b4736 f   qt-mt323:qt-mt323.dll
 0001:000b373c       ?qt_cast@QTabWidget@@UAEPAXPBD@Z 100b473c f   qt-mt323:qt-mt323.dll
 0001:000b3742       ?className@QTabWidget@@UBEPBDXZ 100b4742 f   qt-mt323:qt-mt323.dll
 0001:000b3748       ?metaObject@QTabWidget@@UBEPAVQMetaObject@@XZ 100b4748 f   qt-mt323:qt-mt323.dll
 0001:000b374e       ?iterator@QGridLayout@@UAE?AVQLayoutIterator@@XZ 100b474e f   qt-mt323:qt-mt323.dll
 0001:000b3754       ?invalidate@QGridLayout@@UAEXXZ 100b4754 f   qt-mt323:qt-mt323.dll
 0001:000b375a       ?heightForWidth@QGridLayout@@UBEHH@Z 100b475a f   qt-mt323:qt-mt323.dll
 0001:000b3760       ?hasHeightForWidth@QGridLayout@@UBE_NXZ 100b4760 f   qt-mt323:qt-mt323.dll
 0001:000b3766       ?setGeometry@QGridLayout@@UAEXABVQRect@@@Z 100b4766 f   qt-mt323:qt-mt323.dll
 0001:000b376c       ?expanding@QGridLayout@@UBE?AW4ExpandData@QSizePolicy@@XZ 100b476c f   qt-mt323:qt-mt323.dll
 0001:000b3772       ?maximumSize@QGridLayout@@UBE?AVQSize@@XZ 100b4772 f   qt-mt323:qt-mt323.dll
 0001:000b3778       ?minimumSize@QGridLayout@@UBE?AVQSize@@XZ 100b4778 f   qt-mt323:qt-mt323.dll
 0001:000b377e       ?sizeHint@QGridLayout@@UBE?AVQSize@@XZ 100b477e f   qt-mt323:qt-mt323.dll
 0001:000b3784       ?setColStretch@QGridLayout@@UAEXHH@Z 100b4784 f   qt-mt323:qt-mt323.dll
 0001:000b378a       ?setRowStretch@QGridLayout@@UAEXHH@Z 100b478a f   qt-mt323:qt-mt323.dll
 0001:000b3790       ?addItem@QGridLayout@@UAEXPAVQLayoutItem@@@Z 100b4790 f   qt-mt323:qt-mt323.dll
 0001:000b3796       ?qt_property@QGridLayout@@UAE_NHHPAVQVariant@@@Z 100b4796 f   qt-mt323:qt-mt323.dll
 0001:000b379c       ?qt_emit@QGridLayout@@UAE_NHPAUQUObject@@@Z 100b479c f   qt-mt323:qt-mt323.dll
 0001:000b37a2       ?qt_invoke@QGridLayout@@UAE_NHPAUQUObject@@@Z 100b47a2 f   qt-mt323:qt-mt323.dll
 0001:000b37a8       ?qt_cast@QGridLayout@@UAEPAXPBD@Z 100b47a8 f   qt-mt323:qt-mt323.dll
 0001:000b37ae       ?className@QGridLayout@@UBEPBDXZ 100b47ae f   qt-mt323:qt-mt323.dll
 0001:000b37b4       ?metaObject@QGridLayout@@UBEPAVQMetaObject@@XZ 100b47b4 f   qt-mt323:qt-mt323.dll
 0001:000b37ba       ?qt_property@QHBoxLayout@@UAE_NHHPAVQVariant@@@Z 100b47ba f   qt-mt323:qt-mt323.dll
 0001:000b37c0       ?qt_emit@QHBoxLayout@@UAE_NHPAUQUObject@@@Z 100b47c0 f   qt-mt323:qt-mt323.dll
 0001:000b37c6       ?qt_invoke@QHBoxLayout@@UAE_NHPAUQUObject@@@Z 100b47c6 f   qt-mt323:qt-mt323.dll
 0001:000b37cc       ?qt_cast@QHBoxLayout@@UAEPAXPBD@Z 100b47cc f   qt-mt323:qt-mt323.dll
 0001:000b37d2       ?className@QHBoxLayout@@UBEPBDXZ 100b47d2 f   qt-mt323:qt-mt323.dll
 0001:000b37d8       ?metaObject@QHBoxLayout@@UBEPAVQMetaObject@@XZ 100b47d8 f   qt-mt323:qt-mt323.dll
 0001:000b37de       ?setAlignment@QLayoutItem@@UAEXH@Z 100b47de f   qt-mt323:qt-mt323.dll
 0001:000b37e4       ?spacerItem@QLayoutItem@@UAEPAVQSpacerItem@@XZ 100b47e4 f   qt-mt323:qt-mt323.dll
 0001:000b37ea       ?layout@QLayout@@UAEPAV1@XZ 100b47ea f   qt-mt323:qt-mt323.dll
 0001:000b37f0       ?iterator@QBoxLayout@@UAE?AVQLayoutIterator@@XZ 100b47f0 f   qt-mt323:qt-mt323.dll
 0001:000b37f6       ?widget@QLayoutItem@@UAEPAVQWidget@@XZ 100b47f6 f   qt-mt323:qt-mt323.dll
 0001:000b37fc       ?invalidate@QBoxLayout@@UAEXXZ 100b47fc f   qt-mt323:qt-mt323.dll
 0001:000b3802       ?heightForWidth@QBoxLayout@@UBEHH@Z 100b4802 f   qt-mt323:qt-mt323.dll
 0001:000b3808       ?hasHeightForWidth@QBoxLayout@@UBE_NXZ 100b4808 f   qt-mt323:qt-mt323.dll
 0001:000b380e       ?isEmpty@QLayout@@UBE_NXZ  100b480e f   qt-mt323:qt-mt323.dll
 0001:000b3814       ?geometry@QLayout@@UBE?AVQRect@@XZ 100b4814 f   qt-mt323:qt-mt323.dll
 0001:000b381a       ?setGeometry@QBoxLayout@@UAEXABVQRect@@@Z 100b481a f   qt-mt323:qt-mt323.dll
 0001:000b3820       ?expanding@QBoxLayout@@UBE?AW4ExpandData@QSizePolicy@@XZ 100b4820 f   qt-mt323:qt-mt323.dll
 0001:000b3826       ?maximumSize@QBoxLayout@@UBE?AVQSize@@XZ 100b4826 f   qt-mt323:qt-mt323.dll
 0001:000b382c       ?minimumSize@QBoxLayout@@UBE?AVQSize@@XZ 100b482c f   qt-mt323:qt-mt323.dll
 0001:000b3832       ?sizeHint@QBoxLayout@@UBE?AVQSize@@XZ 100b4832 f   qt-mt323:qt-mt323.dll
 0001:000b3838       ?addItem@QBoxLayout@@UAEXPAVQLayoutItem@@@Z 100b4838 f   qt-mt323:qt-mt323.dll
 0001:000b383e       ?setAutoAdd@QLayout@@UAEX_N@Z 100b483e f   qt-mt323:qt-mt323.dll
 0001:000b3844       ?setMenuBar@QLayout@@UAEXPAVQMenuBar@@@Z 100b4844 f   qt-mt323:qt-mt323.dll
 0001:000b384a       ?setSpacing@QLayout@@UAEXH@Z 100b484a f   qt-mt323:qt-mt323.dll
 0001:000b3850       ?setMargin@QLayout@@UAEXH@Z 100b4850 f   qt-mt323:qt-mt323.dll
 0001:000b3856       ?childEvent@QLayout@@MAEXPAVQChildEvent@@@Z 100b4856 f   qt-mt323:qt-mt323.dll
 0001:000b385c       ?eventFilter@QLayout@@MAE_NPAVQObject@@PAVQEvent@@@Z 100b485c f   qt-mt323:qt-mt323.dll
 0001:000b3862       ?qt_property@QVBoxLayout@@UAE_NHHPAVQVariant@@@Z 100b4862 f   qt-mt323:qt-mt323.dll
 0001:000b3868       ?qt_emit@QVBoxLayout@@UAE_NHPAUQUObject@@@Z 100b4868 f   qt-mt323:qt-mt323.dll
 0001:000b386e       ?qt_invoke@QVBoxLayout@@UAE_NHPAUQUObject@@@Z 100b486e f   qt-mt323:qt-mt323.dll
 0001:000b3874       ?qt_cast@QVBoxLayout@@UAEPAXPBD@Z 100b4874 f   qt-mt323:qt-mt323.dll
 0001:000b387a       ?className@QVBoxLayout@@UBEPBDXZ 100b487a f   qt-mt323:qt-mt323.dll
 0001:000b3880       ?metaObject@QVBoxLayout@@UBEPAVQMetaObject@@XZ 100b4880 f   qt-mt323:qt-mt323.dll
 0001:000b3886       ?qt_property@QListView@@UAE_NHHPAVQVariant@@@Z 100b4886 f   qt-mt323:qt-mt323.dll
 0001:000b388c       ?qt_emit@QListView@@UAE_NHPAUQUObject@@@Z 100b488c f   qt-mt323:qt-mt323.dll
 0001:000b3892       ?qt_invoke@QListView@@UAE_NHPAUQUObject@@@Z 100b4892 f   qt-mt323:qt-mt323.dll
 0001:000b3898       ?qt_cast@QListView@@UAEPAXPBD@Z 100b4898 f   qt-mt323:qt-mt323.dll
 0001:000b389e       ?className@QListView@@UBEPBDXZ 100b489e f   qt-mt323:qt-mt323.dll
 0001:000b38a4       ?metaObject@QListView@@UBEPAVQMetaObject@@XZ 100b48a4 f   qt-mt323:qt-mt323.dll
 0001:000b38aa       ?rangeChange@QSlider@@MAEXXZ 100b48aa f   qt-mt323:qt-mt323.dll
 0001:000b38b0       ?valueChange@QSlider@@MAEXXZ 100b48b0 f   qt-mt323:qt-mt323.dll
 0001:000b38b6       ?setValue@QSlider@@UAEXH@Z 100b48b6 f   qt-mt323:qt-mt323.dll
 0001:000b38bc       ?setTickInterval@QSlider@@UAEXH@Z 100b48bc f   qt-mt323:qt-mt323.dll
 0001:000b38c2       ?setTickmarks@QSlider@@UAEXW4TickSetting@1@@Z 100b48c2 f   qt-mt323:qt-mt323.dll
 0001:000b38c8       ?setTracking@QSlider@@UAEX_N@Z 100b48c8 f   qt-mt323:qt-mt323.dll
 0001:000b38ce       ?setOrientation@QSlider@@UAEXW4Orientation@Qt@@@Z 100b48ce f   qt-mt323:qt-mt323.dll
 0001:000b38d4       ?styleChange@QSlider@@MAEXAAVQStyle@@@Z 100b48d4 f   qt-mt323:qt-mt323.dll
 0001:000b38da       ?resizeEvent@QSlider@@MAEXPAVQResizeEvent@@@Z 100b48da f   qt-mt323:qt-mt323.dll
 0001:000b38e0       ?paintEvent@QSlider@@MAEXPAVQPaintEvent@@@Z 100b48e0 f   qt-mt323:qt-mt323.dll
 0001:000b38e6       ?focusOutEvent@QSlider@@MAEXPAVQFocusEvent@@@Z 100b48e6 f   qt-mt323:qt-mt323.dll
 0001:000b38ec       ?focusInEvent@QSlider@@MAEXPAVQFocusEvent@@@Z 100b48ec f   qt-mt323:qt-mt323.dll
 0001:000b38f2       ?keyPressEvent@QSlider@@MAEXPAVQKeyEvent@@@Z 100b48f2 f   qt-mt323:qt-mt323.dll
 0001:000b38f8       ?wheelEvent@QSlider@@MAEXPAVQWheelEvent@@@Z 100b48f8 f   qt-mt323:qt-mt323.dll
 0001:000b38fe       ?mouseMoveEvent@QSlider@@MAEXPAVQMouseEvent@@@Z 100b48fe f   qt-mt323:qt-mt323.dll
 0001:000b3904       ?mouseReleaseEvent@QSlider@@MAEXPAVQMouseEvent@@@Z 100b4904 f   qt-mt323:qt-mt323.dll
 0001:000b390a       ?mousePressEvent@QSlider@@MAEXPAVQMouseEvent@@@Z 100b490a f   qt-mt323:qt-mt323.dll
 0001:000b3910       ?setSizePolicy@QSlider@@UAEXVQSizePolicy@@@Z 100b4910 f   qt-mt323:qt-mt323.dll
 0001:000b3916       ?sizePolicy@QSlider@@UBE?AVQSizePolicy@@XZ 100b4916 f   qt-mt323:qt-mt323.dll
 0001:000b391c       ?minimumSizeHint@QSlider@@UBE?AVQSize@@XZ 100b491c f   qt-mt323:qt-mt323.dll
 0001:000b3922       ?sizeHint@QSlider@@UBE?AVQSize@@XZ 100b4922 f   qt-mt323:qt-mt323.dll
 0001:000b3928       ?setPalette@QSlider@@UAEXABVQPalette@@@Z 100b4928 f   qt-mt323:qt-mt323.dll
 0001:000b392e       ?qt_property@QSlider@@UAE_NHHPAVQVariant@@@Z 100b492e f   qt-mt323:qt-mt323.dll
 0001:000b3934       ?qt_emit@QSlider@@UAE_NHPAUQUObject@@@Z 100b4934 f   qt-mt323:qt-mt323.dll
 0001:000b393a       ?qt_invoke@QSlider@@UAE_NHPAUQUObject@@@Z 100b493a f   qt-mt323:qt-mt323.dll
 0001:000b3940       ?qt_cast@QSlider@@UAEPAXPBD@Z 100b4940 f   qt-mt323:qt-mt323.dll
 0001:000b3946       ?className@QSlider@@UBEPBDXZ 100b4946 f   qt-mt323:qt-mt323.dll
 0001:000b394c       ?metaObject@QSlider@@UBEPAVQMetaObject@@XZ 100b494c f   qt-mt323:qt-mt323.dll
 0001:000b3952       ?emitLinkClicked@QTextEdit@@EAEXABVQString@@@Z 100b4952 f   qt-mt323:qt-mt323.dll
 0001:000b3958       ?emitHighlighted@QTextEdit@@EAEXABVQString@@@Z 100b4958 f   qt-mt323:qt-mt323.dll
 0001:000b395e       ?linksEnabled@QTextEdit@@EBE_NXZ 100b495e f   qt-mt323:qt-mt323.dll
 0001:000b3964       ?doChangeInterval@QTextEdit@@MAEXXZ 100b4964 f   qt-mt323:qt-mt323.dll
 0001:000b396a       ?createPopupMenu@QTextEdit@@MAEPAVQPopupMenu@@ABVQPoint@@@Z 100b496a f   qt-mt323:qt-mt323.dll
 0001:000b3970       ?createPopupMenu@QTextEdit@@MAEPAVQPopupMenu@@XZ 100b4970 f   qt-mt323:qt-mt323.dll
 0001:000b3976       ?setUndoRedoEnabled@QTextEdit@@UAEX_N@Z 100b4976 f   qt-mt323:qt-mt323.dll
 0001:000b397c       ?clearParagraphBackground@QTextEdit@@UAEXH@Z 100b497c f   qt-mt323:qt-mt323.dll
 0001:000b3982       ?setParagraphBackgroundColor@QTextEdit@@UAEXHABVQColor@@@Z 100b4982 f   qt-mt323:qt-mt323.dll
 0001:000b3988       ?insertParagraph@QTextEdit@@UAEXABVQString@@H@Z 100b4988 f   qt-mt323:qt-mt323.dll
 0001:000b398e       ?removeParagraph@QTextEdit@@UAEXH@Z 100b498e f   qt-mt323:qt-mt323.dll
 0001:000b3994       ?insertAt@QTextEdit@@UAEXABVQString@@HH@Z 100b4994 f   qt-mt323:qt-mt323.dll
 0001:000b399a       ?insert@QTextEdit@@UAEXABVQString@@_N11@Z 100b499a f   qt-mt323:qt-mt323.dll
 0001:000b39a0       ?scrollToBottom@QTextEdit@@UAEXXZ 100b49a0 f   qt-mt323:qt-mt323.dll
 0001:000b39a6       ?setOverwriteMode@QTextEdit@@UAEX_N@Z 100b49a6 f   qt-mt323:qt-mt323.dll
 0001:000b39ac       ?setCurrentFont@QTextEdit@@UAEXABVQFont@@@Z 100b49ac f   qt-mt323:qt-mt323.dll
 0001:000b39b2       ?removeSelection@QTextEdit@@UAEXH@Z 100b49b2 f   qt-mt323:qt-mt323.dll
 0001:000b39b8       ?removeSelectedText@QTextEdit@@UAEXH@Z 100b49b8 f   qt-mt323:qt-mt323.dll
 0001:000b39be       ?doKeyboardAction@QTextEdit@@UAEXW4KeyboardAction@1@@Z 100b49be f   qt-mt323:qt-mt323.dll
 0001:000b39c4       ?moveCursor@QTextEdit@@UAEXW4CursorAction@1@_N@Z 100b49c4 f   qt-mt323:qt-mt323.dll
 0001:000b39ca       ?placeCursor@QTextEdit@@UAEXABVQPoint@@PAVQTextCursor@@@Z 100b49ca f   qt-mt323:qt-mt323.dll
 0001:000b39d0       ?ensureCursorVisible@QTextEdit@@UAEXXZ 100b49d0 f   qt-mt323:qt-mt323.dll
 0001:000b39d6       ?setFormat@QTextEdit@@UAEXPAVQTextFormat@@H@Z 100b49d6 f   qt-mt323:qt-mt323.dll
 0001:000b39dc       ?setUndoDepth@QTextEdit@@UAEXH@Z 100b49dc f   qt-mt323:qt-mt323.dll
 0001:000b39e2       ?resetFormat@QTextEdit@@UAEXXZ 100b49e2 f   qt-mt323:qt-mt323.dll
 0001:000b39e8       ?setModified@QTextEdit@@UAEX_N@Z 100b49e8 f   qt-mt323:qt-mt323.dll
 0001:000b39ee       ?setSelectionAttributes@QTextEdit@@UAEXHABVQColor@@_N@Z 100b49ee f   qt-mt323:qt-mt323.dll
 0001:000b39f4       ?setSelection@QTextEdit@@UAEXHHHHH@Z 100b49f4 f   qt-mt323:qt-mt323.dll
 0001:000b39fa       ?setCursorPosition@QTextEdit@@UAEXHH@Z 100b49fa f   qt-mt323:qt-mt323.dll
 0001:000b3a00       ?setParagType@QTextEdit@@UAEXW4DisplayMode@QStyleSheetItem@@W4ListStyle@3@@Z 100b4a00 f   qt-mt323:qt-mt323.dll
 0001:000b3a06       ?setAlignment@QTextEdit@@UAEXH@Z 100b4a06 f   qt-mt323:qt-mt323.dll
 0001:000b3a0c       ?setVerticalAlignment@QTextEdit@@UAEXW4VerticalAlignment@1@@Z 100b4a0c f   qt-mt323:qt-mt323.dll
 0001:000b3a12       ?setColor@QTextEdit@@UAEXABVQColor@@@Z 100b4a12 f   qt-mt323:qt-mt323.dll
 0001:000b3a18       ?setPointSize@QTextEdit@@UAEXH@Z 100b4a18 f   qt-mt323:qt-mt323.dll
 0001:000b3a1e       ?setFamily@QTextEdit@@UAEXABVQString@@@Z 100b4a1e f   qt-mt323:qt-mt323.dll
 0001:000b3a24       ?setUnderline@QTextEdit@@UAEX_N@Z 100b4a24 f   qt-mt323:qt-mt323.dll
 0001:000b3a2a       ?setBold@QTextEdit@@UAEX_N@Z 100b4a2a f   qt-mt323:qt-mt323.dll
 0001:000b3a30       ?setItalic@QTextEdit@@UAEX_N@Z 100b4a30 f   qt-mt323:qt-mt323.dll
 0001:000b3a36       ?indent@QTextEdit@@UAEXXZ  100b4a36 f   qt-mt323:qt-mt323.dll
 0001:000b3a3c       ?del@QTextEdit@@UAEXXZ     100b4a3c f   qt-mt323:qt-mt323.dll
 0001:000b3a42       ?clear@QTextEdit@@UAEXXZ   100b4a42 f   qt-mt323:qt-mt323.dll
 0001:000b3a48       ?pasteSubType@QTextEdit@@UAEXABVQCString@@@Z 100b4a48 f   qt-mt323:qt-mt323.dll
 0001:000b3a4e       ?paste@QTextEdit@@UAEXXZ   100b4a4e f   qt-mt323:qt-mt323.dll
 0001:000b3a54       ?cut@QTextEdit@@UAEXXZ     100b4a54 f   qt-mt323:qt-mt323.dll
 0001:000b3a5a       ?redo@QTextEdit@@UAEXXZ    100b4a5a f   qt-mt323:qt-mt323.dll
 0001:000b3a60       ?undo@QTextEdit@@UAEXXZ    100b4a60 f   qt-mt323:qt-mt323.dll
 0001:000b3a66       ?setReadOnly@QTextEdit@@UAEX_N@Z 100b4a66 f   qt-mt323:qt-mt323.dll
 0001:000b3a6c       ?sync@QTextEdit@@UAEXXZ    100b4a6c f   qt-mt323:qt-mt323.dll
 0001:000b3a72       ?zoomTo@QTextEdit@@UAEXH@Z 100b4a72 f   qt-mt323:qt-mt323.dll
 0001:000b3a78       ?zoomOut@QTextEdit@@UAEXH@Z 100b4a78 f   qt-mt323:qt-mt323.dll
 0001:000b3a7e       ?zoomOut@QTextEdit@@UAEXXZ 100b4a7e f   qt-mt323:qt-mt323.dll
 0001:000b3a84       ?zoomIn@QTextEdit@@UAEXH@Z 100b4a84 f   qt-mt323:qt-mt323.dll
 0001:000b3a8a       ?zoomIn@QTextEdit@@UAEXXZ  100b4a8a f   qt-mt323:qt-mt323.dll
 0001:000b3a90       ?setTabStopWidth@QTextEdit@@UAEXH@Z 100b4a90 f   qt-mt323:qt-mt323.dll
 0001:000b3a96       ?selectAll@QTextEdit@@UAEX_N@Z 100b4a96 f   qt-mt323:qt-mt323.dll
 0001:000b3a9c       ?setTextFormat@QTextEdit@@UAEXW4TextFormat@Qt@@@Z 100b4a9c f   qt-mt323:qt-mt323.dll
 0001:000b3aa2       ?setText@QTextEdit@@UAEXABVQString@@0@Z 100b4aa2 f   qt-mt323:qt-mt323.dll
 0001:000b3aa8       ?append@QTextEdit@@UAEXABVQString@@@Z 100b4aa8 f   qt-mt323:qt-mt323.dll
 0001:000b3aae       ?copy@QTextEdit@@UAEXXZ    100b4aae f   qt-mt323:qt-mt323.dll
 0001:000b3ab4       ?setWrapPolicy@QTextEdit@@UAEXW4WrapPolicy@1@@Z 100b4ab4 f   qt-mt323:qt-mt323.dll
 0001:000b3aba       ?setWrapColumnOrWidth@QTextEdit@@UAEXH@Z 100b4aba f   qt-mt323:qt-mt323.dll
 0001:000b3ac0       ?setWordWrap@QTextEdit@@UAEXW4WordWrap@1@@Z 100b4ac0 f   qt-mt323:qt-mt323.dll
 0001:000b3ac6       ?setLinkUnderline@QTextEdit@@UAEX_N@Z 100b4ac6 f   qt-mt323:qt-mt323.dll
 0001:000b3acc       ?setPaper@QTextEdit@@UAEXABVQBrush@@@Z 100b4acc f   qt-mt323:qt-mt323.dll
 0001:000b3ad2       ?scrollToAnchor@QTextEdit@@UAEXABVQString@@@Z 100b4ad2 f   qt-mt323:qt-mt323.dll
 0001:000b3ad8       ?setStyleSheet@QTextEdit@@UAEXPAVQStyleSheet@@@Z 100b4ad8 f   qt-mt323:qt-mt323.dll
 0001:000b3ade       ?setMimeSourceFactory@QTextEdit@@UAEXPAVQMimeSourceFactory@@@Z 100b4ade f   qt-mt323:qt-mt323.dll
 0001:000b3ae4       ?getParagraphFormat@QTextEdit@@UAE_NHPAVQFont@@PAVQColor@@PAW4VerticalAlignment@1@PAHPAW4DisplayMode@QStyleSheetItem@@PAW4ListStyle@6@3@Z 100b4ae4 f   qt-mt323:qt-mt323.dll
 0001:000b3aea       ?getFormat@QTextEdit@@UAE_NHHPAVQFont@@PAVQColor@@PAW4VerticalAlignment@1@@Z 100b4aea f   qt-mt323:qt-mt323.dll
 0001:000b3af0       ?find@QTextEdit@@UAE_NABVQString@@_N11PAH2@Z 100b4af0 f   qt-mt323:qt-mt323.dll
 0001:000b3af6       ?viewportResizeEvent@QTextEdit@@MAEXPAVQResizeEvent@@@Z 100b4af6 f   qt-mt323:qt-mt323.dll
 0001:000b3afc       ?contentsContextMenuEvent@QTextEdit@@MAEXPAVQContextMenuEvent@@@Z 100b4afc f   qt-mt323:qt-mt323.dll
 0001:000b3b02       ?contentsWheelEvent@QTextEdit@@MAEXPAVQWheelEvent@@@Z 100b4b02 f   qt-mt323:qt-mt323.dll
 0001:000b3b08       ?contentsDropEvent@QTextEdit@@MAEXPAVQDropEvent@@@Z 100b4b08 f   qt-mt323:qt-mt323.dll
 0001:000b3b0e       ?contentsDragLeaveEvent@QTextEdit@@MAEXPAVQDragLeaveEvent@@@Z 100b4b0e f   qt-mt323:qt-mt323.dll
 0001:000b3b14       ?contentsDragMoveEvent@QTextEdit@@MAEXPAVQDragMoveEvent@@@Z 100b4b14 f   qt-mt323:qt-mt323.dll
 0001:000b3b1a       ?contentsDragEnterEvent@QTextEdit@@MAEXPAVQDragEnterEvent@@@Z 100b4b1a f   qt-mt323:qt-mt323.dll
 0001:000b3b20       ?contentsMouseMoveEvent@QTextEdit@@MAEXPAVQMouseEvent@@@Z 100b4b20 f   qt-mt323:qt-mt323.dll
 0001:000b3b26       ?contentsMouseDoubleClickEvent@QTextEdit@@MAEXPAVQMouseEvent@@@Z 100b4b26 f   qt-mt323:qt-mt323.dll
 0001:000b3b2c       ?contentsMouseReleaseEvent@QTextEdit@@MAEXPAVQMouseEvent@@@Z 100b4b2c f   qt-mt323:qt-mt323.dll
 0001:000b3b32       ?contentsMousePressEvent@QTextEdit@@MAEXPAVQMouseEvent@@@Z 100b4b32 f   qt-mt323:qt-mt323.dll
 0001:000b3b38       ?drawContents@QTextEdit@@MAEXPAVQPainter@@HHHH@Z 100b4b38 f   qt-mt323:qt-mt323.dll
 0001:000b3b3e       ?drawContents@QTextEdit@@EAEXPAVQPainter@@@Z 100b4b3e f   qt-mt323:qt-mt323.dll
 0001:000b3b44       ?focusNextPrevChild@QTextEdit@@MAE_N_N@Z 100b4b44 f   qt-mt323:qt-mt323.dll
 0001:000b3b4a       ?windowActivationChange@QTextEdit@@MAEX_N@Z 100b4b4a f   qt-mt323:qt-mt323.dll
 0001:000b3b50       ?imEndEvent@QTextEdit@@MAEXPAVQIMEvent@@@Z 100b4b50 f   qt-mt323:qt-mt323.dll
 0001:000b3b56       ?imComposeEvent@QTextEdit@@MAEXPAVQIMEvent@@@Z 100b4b56 f   qt-mt323:qt-mt323.dll
 0001:000b3b5c       ?imStartEvent@QTextEdit@@MAEXPAVQIMEvent@@@Z 100b4b5c f   qt-mt323:qt-mt323.dll
 0001:000b3b62       ?resizeEvent@QTextEdit@@MAEXPAVQResizeEvent@@@Z 100b4b62 f   qt-mt323:qt-mt323.dll
 0001:000b3b68       ?keyPressEvent@QTextEdit@@MAEXPAVQKeyEvent@@@Z 100b4b68 f   qt-mt323:qt-mt323.dll
 0001:000b3b6e       ?heightForWidth@QTextEdit@@UBEHH@Z 100b4b6e f   qt-mt323:qt-mt323.dll
 0001:000b3b74       ?minimumSizeHint@QScrollView@@UBE?AVQSize@@XZ 100b4b74 f   qt-mt323:qt-mt323.dll
 0001:000b3b7a       ?sizeHint@QTextEdit@@UBE?AVQSize@@XZ 100b4b7a f   qt-mt323:qt-mt323.dll
 0001:000b3b80       ?polish@QTextEdit@@UAEXXZ  100b4b80 f   qt-mt323:qt-mt323.dll
 0001:000b3b86       ?setFont@QTextEdit@@UAEXABVQFont@@@Z 100b4b86 f   qt-mt323:qt-mt323.dll
 0001:000b3b8c       ?setPalette@QTextEdit@@UAEXABVQPalette@@@Z 100b4b8c f   qt-mt323:qt-mt323.dll
 0001:000b3b92       ?setEnabled@QTextEdit@@UAEX_N@Z 100b4b92 f   qt-mt323:qt-mt323.dll
 0001:000b3b98       ?eventFilter@QTextEdit@@UAE_NPAVQObject@@PAVQEvent@@@Z 100b4b98 f   qt-mt323:qt-mt323.dll
 0001:000b3b9e       ?event@QTextEdit@@MAE_NPAVQEvent@@@Z 100b4b9e f   qt-mt323:qt-mt323.dll
 0001:000b3ba4       ?qt_property@QTextEdit@@UAE_NHHPAVQVariant@@@Z 100b4ba4 f   qt-mt323:qt-mt323.dll
 0001:000b3baa       ?qt_emit@QTextEdit@@UAE_NHPAUQUObject@@@Z 100b4baa f   qt-mt323:qt-mt323.dll
 0001:000b3bb0       ?qt_invoke@QTextEdit@@UAE_NHPAUQUObject@@@Z 100b4bb0 f   qt-mt323:qt-mt323.dll
 0001:000b3bb6       ?qt_cast@QTextEdit@@UAEPAXPBD@Z 100b4bb6 f   qt-mt323:qt-mt323.dll
 0001:000b3bbc       ?className@QTextEdit@@UBEPBDXZ 100b4bbc f   qt-mt323:qt-mt323.dll
 0001:000b3bc2       ?metaObject@QTextEdit@@UBEPAVQMetaObject@@XZ 100b4bc2 f   qt-mt323:qt-mt323.dll
 0001:000b3bc8       ?setEditText@QComboBox@@UAEXABVQString@@@Z 100b4bc8 f   qt-mt323:qt-mt323.dll
 0001:000b3bce       ?popup@QComboBox@@UAEXXZ   100b4bce f   qt-mt323:qt-mt323.dll
 0001:000b3bd4       ?setAutoCompletion@QComboBox@@UAEX_N@Z 100b4bd4 f   qt-mt323:qt-mt323.dll
 0001:000b3bda       ?setLineEdit@QComboBox@@UAEXPAVQLineEdit@@@Z 100b4bda f   qt-mt323:qt-mt323.dll
 0001:000b3be0       ?setListBox@QComboBox@@UAEXPAVQListBox@@@Z 100b4be0 f   qt-mt323:qt-mt323.dll
 0001:000b3be6       ?setValidator@QComboBox@@UAEXPBVQValidator@@@Z 100b4be6 f   qt-mt323:qt-mt323.dll
 0001:000b3bec       ?setInsertionPolicy@QComboBox@@UAEXW4Policy@1@@Z 100b4bec f   qt-mt323:qt-mt323.dll
 0001:000b3bf2       ?setMaxCount@QComboBox@@UAEXH@Z 100b4bf2 f   qt-mt323:qt-mt323.dll
 0001:000b3bf8       ?setSizeLimit@QComboBox@@UAEXH@Z 100b4bf8 f   qt-mt323:qt-mt323.dll
 0001:000b3bfe       ?setAutoResize@QComboBox@@UAEX_N@Z 100b4bfe f   qt-mt323:qt-mt323.dll
 0001:000b3c04       ?setCurrentText@QComboBox@@UAEXABVQString@@@Z 100b4c04 f   qt-mt323:qt-mt323.dll
 0001:000b3c0a       ?setCurrentItem@QComboBox@@UAEXH@Z 100b4c0a f   qt-mt323:qt-mt323.dll
 0001:000b3c10       ?styleChange@QComboBox@@MAEXAAVQStyle@@@Z 100b4c10 f   qt-mt323:qt-mt323.dll
 0001:000b3c16       ?updateMask@QComboBox@@MAEXXZ 100b4c16 f   qt-mt323:qt-mt323.dll
 0001:000b3c1c       ?resizeEvent@QComboBox@@MAEXPAVQResizeEvent@@@Z 100b4c1c f   qt-mt323:qt-mt323.dll
 0001:000b3c22       ?paintEvent@QComboBox@@MAEXPAVQPaintEvent@@@Z 100b4c22 f   qt-mt323:qt-mt323.dll
 0001:000b3c28       ?focusOutEvent@QComboBox@@MAEXPAVQFocusEvent@@@Z 100b4c28 f   qt-mt323:qt-mt323.dll
 0001:000b3c2e       ?focusInEvent@QComboBox@@MAEXPAVQFocusEvent@@@Z 100b4c2e f   qt-mt323:qt-mt323.dll
 0001:000b3c34       ?keyPressEvent@QComboBox@@MAEXPAVQKeyEvent@@@Z 100b4c34 f   qt-mt323:qt-mt323.dll
 0001:000b3c3a       ?wheelEvent@QComboBox@@MAEXPAVQWheelEvent@@@Z 100b4c3a f   qt-mt323:qt-mt323.dll
 0001:000b3c40       ?mouseMoveEvent@QComboBox@@MAEXPAVQMouseEvent@@@Z 100b4c40 f   qt-mt323:qt-mt323.dll
 0001:000b3c46       ?mouseDoubleClickEvent@QComboBox@@MAEXPAVQMouseEvent@@@Z 100b4c46 f   qt-mt323:qt-mt323.dll
 0001:000b3c4c       ?mouseReleaseEvent@QComboBox@@MAEXPAVQMouseEvent@@@Z 100b4c4c f   qt-mt323:qt-mt323.dll
 0001:000b3c52       ?mousePressEvent@QComboBox@@MAEXPAVQMouseEvent@@@Z 100b4c52 f   qt-mt323:qt-mt323.dll
 0001:000b3c58       ?sizeHint@QComboBox@@UBE?AVQSize@@XZ 100b4c58 f   qt-mt323:qt-mt323.dll
 0001:000b3c5e       ?setFont@QComboBox@@UAEXABVQFont@@@Z 100b4c5e f   qt-mt323:qt-mt323.dll
 0001:000b3c64       ?setPalette@QComboBox@@UAEXABVQPalette@@@Z 100b4c64 f   qt-mt323:qt-mt323.dll
 0001:000b3c6a       ?setEnabled@QComboBox@@UAEX_N@Z 100b4c6a f   qt-mt323:qt-mt323.dll
 0001:000b3c70       ?eventFilter@QComboBox@@UAE_NPAVQObject@@PAVQEvent@@@Z 100b4c70 f   qt-mt323:qt-mt323.dll
 0001:000b3c76       ?qt_property@QComboBox@@UAE_NHHPAVQVariant@@@Z 100b4c76 f   qt-mt323:qt-mt323.dll
 0001:000b3c7c       ?qt_emit@QComboBox@@UAE_NHPAUQUObject@@@Z 100b4c7c f   qt-mt323:qt-mt323.dll
 0001:000b3c82       ?qt_invoke@QComboBox@@UAE_NHPAUQUObject@@@Z 100b4c82 f   qt-mt323:qt-mt323.dll
 0001:000b3c88       ?qt_cast@QComboBox@@UAEPAXPBD@Z 100b4c88 f   qt-mt323:qt-mt323.dll
 0001:000b3c8e       ?className@QComboBox@@UBEPBDXZ 100b4c8e f   qt-mt323:qt-mt323.dll
 0001:000b3c94       ?metaObject@QComboBox@@UBEPAVQMetaObject@@XZ 100b4c94 f   qt-mt323:qt-mt323.dll
 0001:000b3c9a       ?columnClicked@QTable@@MAEXH@Z 100b4c9a f   qt-mt323:qt-mt323.dll
 0001:000b3ca0       ?rowIndexChanged@QTable@@MAEXHHH@Z 100b4ca0 f   qt-mt323:qt-mt323.dll
 0001:000b3ca6       ?columnIndexChanged@QTable@@MAEXHHH@Z 100b4ca6 f   qt-mt323:qt-mt323.dll
 0001:000b3cac       ?rowHeightChanged@QTable@@MAEXH@Z 100b4cac f   qt-mt323:qt-mt323.dll
 0001:000b3cb2       ?columnWidthChanged@QTable@@MAEXH@Z 100b4cb2 f   qt-mt323:qt-mt323.dll
 0001:000b3cb8       ?insertWidget@QTable@@MAEXHHPAVQWidget@@@Z 100b4cb8 f   qt-mt323:qt-mt323.dll
 0001:000b3cbe       ?resizeData@QTable@@MAEXH@Z 100b4cbe f   qt-mt323:qt-mt323.dll
 0001:000b3cc4       ?endEdit@QTable@@MAEXHH_N0@Z 100b4cc4 f   qt-mt323:qt-mt323.dll
 0001:000b3cca       ?beginEdit@QTable@@MAEPAVQWidget@@HH_N@Z 100b4cca f   qt-mt323:qt-mt323.dll
 0001:000b3cd0       ?setCellContentFromEditor@QTable@@MAEXHH@Z 100b4cd0 f   qt-mt323:qt-mt323.dll
 0001:000b3cd6       ?createEditor@QTable@@MBEPAVQWidget@@HH_N@Z 100b4cd6 f   qt-mt323:qt-mt323.dll
 0001:000b3cdc       ?activateNextCell@QTable@@MAEXXZ 100b4cdc f   qt-mt323:qt-mt323.dll
 0001:000b3ce2       ?paintEmptyArea@QTable@@MAEXPAVQPainter@@HHHH@Z 100b4ce2 f   qt-mt323:qt-mt323.dll
 0001:000b3ce8       ?startDrag@QTable@@MAEXXZ  100b4ce8 f   qt-mt323:qt-mt323.dll
 0001:000b3cee       ?dragObject@QTable@@MAEPAVQDragObject@@XZ 100b4cee f   qt-mt323:qt-mt323.dll
 0001:000b3cf4       ?editCell@QTable@@UAEXHH_N@Z 100b4cf4 f   qt-mt323:qt-mt323.dll
 0001:000b3cfa       ?removeColumns@QTable@@UAEXABV?$QMemArray@H@@@Z 100b4cfa f   qt-mt323:qt-mt323.dll
 0001:000b3d00       ?removeColumn@QTable@@UAEXH@Z 100b4d00 f   qt-mt323:qt-mt323.dll
 0001:000b3d06       ?removeRows@QTable@@UAEXABV?$QMemArray@H@@@Z 100b4d06 f   qt-mt323:qt-mt323.dll
 0001:000b3d0c       ?removeRow@QTable@@UAEXH@Z 100b4d0c f   qt-mt323:qt-mt323.dll
 0001:000b3d12       ?insertColumns@QTable@@UAEXHH@Z 100b4d12 f   qt-mt323:qt-mt323.dll
 0001:000b3d18       ?insertRows@QTable@@UAEXHH@Z 100b4d18 f   qt-mt323:qt-mt323.dll
 0001:000b3d1e       ?setDragEnabled@QTable@@UAEX_N@Z 100b4d1e f   qt-mt323:qt-mt323.dll
 0001:000b3d24       ?setColumnReadOnly@QTable@@UAEXH_N@Z 100b4d24 f   qt-mt323:qt-mt323.dll
 0001:000b3d2a       ?setRowReadOnly@QTable@@UAEXH_N@Z 100b4d2a f   qt-mt323:qt-mt323.dll
 0001:000b3d30       ?setReadOnly@QTable@@UAEX_N@Z 100b4d30 f   qt-mt323:qt-mt323.dll
 0001:000b3d36       ?setRowMovingEnabled@QTable@@UAEX_N@Z 100b4d36 f   qt-mt323:qt-mt323.dll
 0001:000b3d3c       ?setColumnMovingEnabled@QTable@@UAEX_N@Z 100b4d3c f   qt-mt323:qt-mt323.dll
 0001:000b3d42       ?setCurrentCell@QTable@@UAEXHH@Z 100b4d42 f   qt-mt323:qt-mt323.dll
 0001:000b3d48       ?setTopMargin@QTable@@UAEXH@Z 100b4d48 f   qt-mt323:qt-mt323.dll
 0001:000b3d4e       ?setLeftMargin@QTable@@UAEXH@Z 100b4d4e f   qt-mt323:qt-mt323.dll
 0001:000b3d54       ?swapCells@QTable@@UAEXHHHH@Z 100b4d54 f   qt-mt323:qt-mt323.dll
 0001:000b3d5a       ?swapColumns@QTable@@UAEXHH_N@Z 100b4d5a f   qt-mt323:qt-mt323.dll
 0001:000b3d60       ?swapRows@QTable@@UAEXHH_N@Z 100b4d60 f   qt-mt323:qt-mt323.dll
 0001:000b3d66       ?setSorting@QTable@@UAEX_N@Z 100b4d66 f   qt-mt323:qt-mt323.dll
 0001:000b3d6c       ?setRowStretchable@QTable@@UAEXH_N@Z 100b4d6c f   qt-mt323:qt-mt323.dll
 0001:000b3d72       ?setColumnStretchable@QTable@@UAEXH_N@Z 100b4d72 f   qt-mt323:qt-mt323.dll
 0001:000b3d78       ?adjustRow@QTable@@UAEXH@Z 100b4d78 f   qt-mt323:qt-mt323.dll
 0001:000b3d7e       ?adjustColumn@QTable@@UAEXH@Z 100b4d7e f   qt-mt323:qt-mt323.dll
 0001:000b3d84       ?setRowHeight@QTable@@UAEXHH@Z 100b4d84 f   qt-mt323:qt-mt323.dll
 0001:000b3d8a       ?setColumnWidth@QTable@@UAEXHH@Z 100b4d8a f   qt-mt323:qt-mt323.dll
 0001:000b3d90       ?showColumn@QTable@@UAEXH@Z 100b4d90 f   qt-mt323:qt-mt323.dll
 0001:000b3d96       ?showRow@QTable@@UAEXH@Z   100b4d96 f   qt-mt323:qt-mt323.dll
 0001:000b3d9c       ?hideColumn@QTable@@UAEXH@Z 100b4d9c f   qt-mt323:qt-mt323.dll
 0001:000b3da2       ?hideRow@QTable@@UAEXH@Z   100b4da2 f   qt-mt323:qt-mt323.dll
 0001:000b3da8       ?setShowGrid@QTable@@UAEX_N@Z 100b4da8 f   qt-mt323:qt-mt323.dll
 0001:000b3dae       ?setNumCols@QTable@@UAEXH@Z 100b4dae f   qt-mt323:qt-mt323.dll
 0001:000b3db4       ?setNumRows@QTable@@UAEXH@Z 100b4db4 f   qt-mt323:qt-mt323.dll
 0001:000b3dba       ?setFocusStyle@QTable@@UAEXW4FocusStyle@1@@Z 100b4dba f   qt-mt323:qt-mt323.dll
 0001:000b3dc0       ?paintFocus@QTable@@UAEXPAVQPainter@@ABVQRect@@@Z 100b4dc0 f   qt-mt323:qt-mt323.dll
 0001:000b3dc6       ?paintCell@QTable@@UAEXPAVQPainter@@HHABVQRect@@_N@Z 100b4dc6 f   qt-mt323:qt-mt323.dll
 0001:000b3dcc       ?paintCell@QTable@@UAEXPAVQPainter@@HHABVQRect@@_NABVQColorGroup@@@Z 100b4dcc f   qt-mt323:qt-mt323.dll
 0001:000b3dd2       ?cellRect@QTable@@UBE?AVQRect@@HH@Z 100b4dd2 f   qt-mt323:qt-mt323.dll
 0001:000b3dd8       ?clearCellWidget@QTable@@UAEXHH@Z 100b4dd8 f   qt-mt323:qt-mt323.dll
 0001:000b3dde       ?cellWidget@QTable@@UBEPAVQWidget@@HH@Z 100b4dde f   qt-mt323:qt-mt323.dll
 0001:000b3de4       ?setCellWidget@QTable@@UAEXHHPAVQWidget@@@Z 100b4de4 f   qt-mt323:qt-mt323.dll
 0001:000b3dea       ?takeItem@QTable@@UAEXPAVQTableItem@@@Z 100b4dea f   qt-mt323:qt-mt323.dll
 0001:000b3df0       ?sortColumn@QTable@@UAEXH_N0@Z 100b4df0 f   qt-mt323:qt-mt323.dll
 0001:000b3df6       ?currentSelection@QTable@@UBEHXZ 100b4df6 f   qt-mt323:qt-mt323.dll
 0001:000b3dfc       ?removeSelection@QTable@@UAEXABVQTableSelection@@@Z 100b4dfc f   qt-mt323:qt-mt323.dll
 0001:000b3e02       ?removeSelection@QTable@@UAEXH@Z 100b4e02 f   qt-mt323:qt-mt323.dll
 0001:000b3e08       ?addSelection@QTable@@UAEHABVQTableSelection@@@Z 100b4e08 f   qt-mt323:qt-mt323.dll
 0001:000b3e0e       ?numCols@QTable@@UBEHXZ    100b4e0e f   qt-mt323:qt-mt323.dll
 0001:000b3e14       ?numRows@QTable@@UBEHXZ    100b4e14 f   qt-mt323:qt-mt323.dll
 0001:000b3e1a       ?rowAt@QTable@@UBEHH@Z     100b4e1a f   qt-mt323:qt-mt323.dll
 0001:000b3e20       ?columnAt@QTable@@UBEHH@Z  100b4e20 f   qt-mt323:qt-mt323.dll
 0001:000b3e26       ?rowPos@QTable@@UBEHH@Z    100b4e26 f   qt-mt323:qt-mt323.dll
 0001:000b3e2c       ?columnPos@QTable@@UBEHH@Z 100b4e2c f   qt-mt323:qt-mt323.dll
 0001:000b3e32       ?rowHeight@QTable@@UBEHH@Z 100b4e32 f   qt-mt323:qt-mt323.dll
 0001:000b3e38       ?columnWidth@QTable@@UBEHH@Z 100b4e38 f   qt-mt323:qt-mt323.dll
 0001:000b3e3e       ?cellGeometry@QTable@@UBE?AVQRect@@HH@Z 100b4e3e f   qt-mt323:qt-mt323.dll
 0001:000b3e44       ?clearCell@QTable@@UAEXHH@Z 100b4e44 f   qt-mt323:qt-mt323.dll
 0001:000b3e4a       ?pixmap@QTable@@UBE?AVQPixmap@@HH@Z 100b4e4a f   qt-mt323:qt-mt323.dll
 0001:000b3e50       ?text@QTable@@UBE?AVQString@@HH@Z 100b4e50 f   qt-mt323:qt-mt323.dll
 0001:000b3e56       ?item@QTable@@UBEPAVQTableItem@@HH@Z 100b4e56 f   qt-mt323:qt-mt323.dll
 0001:000b3e5c       ?setPixmap@QTable@@UAEXHHABVQPixmap@@@Z 100b4e5c f   qt-mt323:qt-mt323.dll
 0001:000b3e62       ?setText@QTable@@UAEXHHABVQString@@@Z 100b4e62 f   qt-mt323:qt-mt323.dll
 0001:000b3e68       ?setItem@QTable@@UAEXHHPAVQTableItem@@@Z 100b4e68 f   qt-mt323:qt-mt323.dll
 0001:000b3e6e       ?setSelectionMode@QTable@@UAEXW4SelectionMode@1@@Z 100b4e6e f   qt-mt323:qt-mt323.dll
 0001:000b3e74       ?viewportResizeEvent@QTable@@MAEXPAVQResizeEvent@@@Z 100b4e74 f   qt-mt323:qt-mt323.dll
 0001:000b3e7a       ?contentsContextMenuEvent@QTable@@MAEXPAVQContextMenuEvent@@@Z 100b4e7a f   qt-mt323:qt-mt323.dll
 0001:000b3e80       ?contentsDropEvent@QTable@@MAEXPAVQDropEvent@@@Z 100b4e80 f   qt-mt323:qt-mt323.dll
 0001:000b3e86       ?contentsDragLeaveEvent@QTable@@MAEXPAVQDragLeaveEvent@@@Z 100b4e86 f   qt-mt323:qt-mt323.dll
 0001:000b3e8c       ?contentsDragMoveEvent@QTable@@MAEXPAVQDragMoveEvent@@@Z 100b4e8c f   qt-mt323:qt-mt323.dll
 0001:000b3e92       ?contentsDragEnterEvent@QTable@@MAEXPAVQDragEnterEvent@@@Z 100b4e92 f   qt-mt323:qt-mt323.dll
 0001:000b3e98       ?contentsMouseMoveEvent@QTable@@MAEXPAVQMouseEvent@@@Z 100b4e98 f   qt-mt323:qt-mt323.dll
 0001:000b3e9e       ?contentsMouseDoubleClickEvent@QTable@@MAEXPAVQMouseEvent@@@Z 100b4e9e f   qt-mt323:qt-mt323.dll
 0001:000b3ea4       ?contentsMouseReleaseEvent@QTable@@MAEXPAVQMouseEvent@@@Z 100b4ea4 f   qt-mt323:qt-mt323.dll
 0001:000b3eaa       ?contentsMousePressEvent@QTable@@MAEXPAVQMouseEvent@@@Z 100b4eaa f   qt-mt323:qt-mt323.dll
 0001:000b3eb0       ?drawContents@QTable@@MAEXPAVQPainter@@HHHH@Z 100b4eb0 f   qt-mt323:qt-mt323.dll
 0001:000b3eb6       ?drawContents@QTable@@EAEXPAVQPainter@@@Z 100b4eb6 f   qt-mt323:qt-mt323.dll
 0001:000b3ebc       ?windowActivationChange@QTable@@MAEX_N@Z 100b4ebc f   qt-mt323:qt-mt323.dll
 0001:000b3ec2       ?showEvent@QTable@@MAEXPAVQShowEvent@@@Z 100b4ec2 f   qt-mt323:qt-mt323.dll
 0001:000b3ec8       ?resizeEvent@QScrollView@@MAEXPAVQResizeEvent@@@Z 100b4ec8 f   qt-mt323:qt-mt323.dll
 0001:000b3ece       ?paintEvent@QTable@@MAEXPAVQPaintEvent@@@Z 100b4ece f   qt-mt323:qt-mt323.dll
 0001:000b3ed4       ?focusOutEvent@QTable@@MAEXPAVQFocusEvent@@@Z 100b4ed4 f   qt-mt323:qt-mt323.dll
 0001:000b3eda       ?focusInEvent@QTable@@MAEXPAVQFocusEvent@@@Z 100b4eda f   qt-mt323:qt-mt323.dll
 0001:000b3ee0       ?keyPressEvent@QTable@@MAEXPAVQKeyEvent@@@Z 100b4ee0 f   qt-mt323:qt-mt323.dll
 0001:000b3ee6       ?sizeHint@QTable@@UBE?AVQSize@@XZ 100b4ee6 f   qt-mt323:qt-mt323.dll
 0001:000b3eec       ?setEnabled@QTable@@UAEX_N@Z 100b4eec f   qt-mt323:qt-mt323.dll
 0001:000b3ef2       ?eventFilter@QTable@@UAE_NPAVQObject@@PAVQEvent@@@Z 100b4ef2 f   qt-mt323:qt-mt323.dll
 0001:000b3ef8       ?qt_property@QTable@@UAE_NHHPAVQVariant@@@Z 100b4ef8 f   qt-mt323:qt-mt323.dll
 0001:000b3efe       ?qt_emit@QTable@@UAE_NHPAUQUObject@@@Z 100b4efe f   qt-mt323:qt-mt323.dll
 0001:000b3f04       ?qt_invoke@QTable@@UAE_NHPAUQUObject@@@Z 100b4f04 f   qt-mt323:qt-mt323.dll
 0001:000b3f0a       ?qt_cast@QTable@@UAEPAXPBD@Z 100b4f0a f   qt-mt323:qt-mt323.dll
 0001:000b3f10       ?className@QTable@@UBEPBDXZ 100b4f10 f   qt-mt323:qt-mt323.dll
 0001:000b3f16       ?metaObject@QTable@@UBEPAVQMetaObject@@XZ 100b4f16 f   qt-mt323:qt-mt323.dll
 0001:000b3f1c       ?initDragEnter@QIconView@@EAEXPAVQDropEvent@@@Z 100b4f1c f   qt-mt323:qt-mt323.dll
 0001:000b3f22       ?drawDragShapes@QIconView@@EAEXABVQPoint@@@Z 100b4f22 f   qt-mt323:qt-mt323.dll
 0001:000b3f28       ?drawBackground@QIconView@@MAEXPAVQPainter@@ABVQRect@@@Z 100b4f28 f   qt-mt323:qt-mt323.dll
 0001:000b3f2e       ?insertInGrid@QIconView@@MAEXPAVQIconViewItem@@@Z 100b4f2e f   qt-mt323:qt-mt323.dll
 0001:000b3f34       ?startDrag@QIconView@@MAEXXZ 100b4f34 f   qt-mt323:qt-mt323.dll
 0001:000b3f3a       ?dragObject@QIconView@@MAEPAVQDragObject@@XZ 100b4f3a f   qt-mt323:qt-mt323.dll
 0001:000b3f40       ?drawRubber@QIconView@@MAEXPAVQPainter@@@Z 100b4f40 f   qt-mt323:qt-mt323.dll
 0001:000b3f46       ?slotUpdate@QIconView@@MAEXXZ 100b4f46 f   qt-mt323:qt-mt323.dll
 0001:000b3f4c       ?adjustItems@QIconView@@MAEXXZ 100b4f4c f   qt-mt323:qt-mt323.dll
 0001:000b3f52       ?doAutoScroll@QIconView@@MAEXXZ 100b4f52 f   qt-mt323:qt-mt323.dll
 0001:000b3f58       ?updateContents@QIconView@@UAEXXZ 100b4f58 f   qt-mt323:qt-mt323.dll
 0001:000b3f5e       ?arrangeItemsInGrid@QIconView@@UAEXABVQSize@@_N@Z 100b4f5e f   qt-mt323:qt-mt323.dll
 0001:000b3f64       ?arrangeItemsInGrid@QIconView@@UAEX_N@Z 100b4f64 f   qt-mt323:qt-mt323.dll
 0001:000b3f6a       ?sort@QIconView@@UAEX_N@Z  100b4f6a f   qt-mt323:qt-mt323.dll
 0001:000b3f70       ?setWordWrapIconText@QIconView@@UAEX_N@Z 100b4f70 f   qt-mt323:qt-mt323.dll
 0001:000b3f76       ?setItemsMovable@QIconView@@UAEX_N@Z 100b4f76 f   qt-mt323:qt-mt323.dll
 0001:000b3f7c       ?setShowToolTips@QIconView@@UAEX_N@Z 100b4f7c f   qt-mt323:qt-mt323.dll
 0001:000b3f82       ?setAutoArrange@QIconView@@UAEX_N@Z 100b4f82 f   qt-mt323:qt-mt323.dll
 0001:000b3f88       ?setMaxItemTextLength@QIconView@@UAEXH@Z 100b4f88 f   qt-mt323:qt-mt323.dll
 0001:000b3f8e       ?setMaxItemWidth@QIconView@@UAEXH@Z 100b4f8e f   qt-mt323:qt-mt323.dll
 0001:000b3f94       ?setResizeMode@QIconView@@UAEXW4ResizeMode@1@@Z 100b4f94 f   qt-mt323:qt-mt323.dll
 0001:000b3f9a       ?setArrangement@QIconView@@UAEXW4Arrangement@1@@Z 100b4f9a f   qt-mt323:qt-mt323.dll
 0001:000b3fa0       ?setItemTextBackground@QIconView@@UAEXABVQBrush@@@Z 100b4fa0 f   qt-mt323:qt-mt323.dll
 0001:000b3fa6       ?setItemTextPos@QIconView@@UAEXW4ItemTextPos@1@@Z 100b4fa6 f   qt-mt323:qt-mt323.dll
 0001:000b3fac       ?setSpacing@QIconView@@UAEXH@Z 100b4fac f   qt-mt323:qt-mt323.dll
 0001:000b3fb2       ?setGridY@QIconView@@UAEXH@Z 100b4fb2 f   qt-mt323:qt-mt323.dll
 0001:000b3fb8       ?setGridX@QIconView@@UAEXH@Z 100b4fb8 f   qt-mt323:qt-mt323.dll
 0001:000b3fbe       ?clear@QIconView@@UAEXXZ   100b4fbe f   qt-mt323:qt-mt323.dll
 0001:000b3fc4       ?repaintItem@QIconView@@UAEXPAVQIconViewItem@@@Z 100b4fc4 f   qt-mt323:qt-mt323.dll
 0001:000b3fca       ?invertSelection@QIconView@@UAEXXZ 100b4fca f   qt-mt323:qt-mt323.dll
 0001:000b3fd0       ?clearSelection@QIconView@@UAEXXZ 100b4fd0 f   qt-mt323:qt-mt323.dll
 0001:000b3fd6       ?selectAll@QIconView@@UAEX_N@Z 100b4fd6 f   qt-mt323:qt-mt323.dll
 0001:000b3fdc       ?setSelectionMode@QIconView@@UAEXW4SelectionMode@1@@Z 100b4fdc f   qt-mt323:qt-mt323.dll
 0001:000b3fe2       ?setSelected@QIconView@@UAEXPAVQIconViewItem@@_N1@Z 100b4fe2 f   qt-mt323:qt-mt323.dll
 0001:000b3fe8       ?setCurrentItem@QIconView@@UAEXPAVQIconViewItem@@@Z 100b4fe8 f   qt-mt323:qt-mt323.dll
 0001:000b3fee       ?takeItem@QIconView@@UAEXPAVQIconViewItem@@@Z 100b4fee f   qt-mt323:qt-mt323.dll
 0001:000b3ff4       ?insertItem@QIconView@@UAEXPAVQIconViewItem@@0@Z 100b4ff4 f   qt-mt323:qt-mt323.dll
 0001:000b3ffa       ?contentsContextMenuEvent@QIconView@@MAEXPAVQContextMenuEvent@@@Z 100b4ffa f   qt-mt323:qt-mt323.dll
 0001:000b4000       ?contentsDropEvent@QIconView@@MAEXPAVQDropEvent@@@Z 100b5000 f   qt-mt323:qt-mt323.dll
 0001:000b4006       ?contentsDragLeaveEvent@QIconView@@MAEXPAVQDragLeaveEvent@@@Z 100b5006 f   qt-mt323:qt-mt323.dll
 0001:000b400c       ?contentsDragMoveEvent@QIconView@@MAEXPAVQDragMoveEvent@@@Z 100b500c f   qt-mt323:qt-mt323.dll
 0001:000b4012       ?contentsDragEnterEvent@QIconView@@MAEXPAVQDragEnterEvent@@@Z 100b5012 f   qt-mt323:qt-mt323.dll
 0001:000b4018       ?contentsMouseMoveEvent@QIconView@@MAEXPAVQMouseEvent@@@Z 100b5018 f   qt-mt323:qt-mt323.dll
 0001:000b401e       ?contentsMouseDoubleClickEvent@QIconView@@MAEXPAVQMouseEvent@@@Z 100b501e f   qt-mt323:qt-mt323.dll
 0001:000b4024       ?contentsMouseReleaseEvent@QIconView@@MAEXPAVQMouseEvent@@@Z 100b5024 f   qt-mt323:qt-mt323.dll
 0001:000b402a       ?contentsMousePressEvent@QIconView@@MAEXPAVQMouseEvent@@@Z 100b502a f   qt-mt323:qt-mt323.dll
 0001:000b4030       ?drawContents@QIconView@@MAEXPAVQPainter@@HHHH@Z 100b5030 f   qt-mt323:qt-mt323.dll
 0001:000b4036       ?setContentsPos@QIconView@@UAEXHH@Z 100b5036 f   qt-mt323:qt-mt323.dll
 0001:000b403c       ?drawContents@QIconView@@EAEXPAVQPainter@@@Z 100b503c f   qt-mt323:qt-mt323.dll
 0001:000b4042       ?windowActivationChange@QIconView@@MAEX_N@Z 100b5042 f   qt-mt323:qt-mt323.dll
 0001:000b4048       ?styleChange@QIconView@@MAEXAAVQStyle@@@Z 100b5048 f   qt-mt323:qt-mt323.dll
 0001:000b404e       ?showEvent@QIconView@@UAEXPAVQShowEvent@@@Z 100b504e f   qt-mt323:qt-mt323.dll
 0001:000b4054       ?resizeEvent@QIconView@@MAEXPAVQResizeEvent@@@Z 100b5054 f   qt-mt323:qt-mt323.dll
 0001:000b405a       ?enterEvent@QIconView@@MAEXPAVQEvent@@@Z 100b505a f   qt-mt323:qt-mt323.dll
 0001:000b4060       ?focusOutEvent@QIconView@@MAEXPAVQFocusEvent@@@Z 100b5060 f   qt-mt323:qt-mt323.dll
 0001:000b4066       ?focusInEvent@QIconView@@MAEXPAVQFocusEvent@@@Z 100b5066 f   qt-mt323:qt-mt323.dll
 0001:000b406c       ?keyPressEvent@QIconView@@MAEXPAVQKeyEvent@@@Z 100b506c f   qt-mt323:qt-mt323.dll
 0001:000b4072       ?minimumSizeHint@QIconView@@UBE?AVQSize@@XZ 100b5072 f   qt-mt323:qt-mt323.dll
 0001:000b4078       ?sizeHint@QIconView@@UBE?AVQSize@@XZ 100b5078 f   qt-mt323:qt-mt323.dll
 0001:000b407e       ?setFont@QIconView@@UAEXABVQFont@@@Z 100b507e f   qt-mt323:qt-mt323.dll
 0001:000b4084       ?setPalette@QIconView@@UAEXABVQPalette@@@Z 100b5084 f   qt-mt323:qt-mt323.dll
 0001:000b408a       ?eventFilter@QIconView@@UAE_NPAVQObject@@PAVQEvent@@@Z 100b508a f   qt-mt323:qt-mt323.dll
 0001:000b4090       ?qt_property@QIconView@@UAE_NHHPAVQVariant@@@Z 100b5090 f   qt-mt323:qt-mt323.dll
 0001:000b4096       ?qt_emit@QIconView@@UAE_NHPAUQUObject@@@Z 100b5096 f   qt-mt323:qt-mt323.dll
 0001:000b409c       ?qt_invoke@QIconView@@UAE_NHPAUQUObject@@@Z 100b509c f   qt-mt323:qt-mt323.dll
 0001:000b40a2       ?qt_cast@QIconView@@UAEPAXPBD@Z 100b50a2 f   qt-mt323:qt-mt323.dll
 0001:000b40a8       ?className@QIconView@@UBEPBDXZ 100b50a8 f   qt-mt323:qt-mt323.dll
 0001:000b40ae       ?metaObject@QIconView@@UBEPAVQMetaObject@@XZ 100b50ae f   qt-mt323:qt-mt323.dll
 0001:000b40b4       ?setChildGeometries@QWidgetStack@@MAEXXZ 100b50b4 f   qt-mt323:qt-mt323.dll
 0001:000b40ba       ?frameChanged@QWidgetStack@@MAEXXZ 100b50ba f   qt-mt323:qt-mt323.dll
 0001:000b40c0       ?setFrameRect@QWidgetStack@@UAEXABVQRect@@@Z 100b50c0 f   qt-mt323:qt-mt323.dll
 0001:000b40c6       ?resizeEvent@QWidgetStack@@MAEXPAVQResizeEvent@@@Z 100b50c6 f   qt-mt323:qt-mt323.dll
 0001:000b40cc       ?minimumSizeHint@QWidgetStack@@UBE?AVQSize@@XZ 100b50cc f   qt-mt323:qt-mt323.dll
 0001:000b40d2       ?sizeHint@QWidgetStack@@UBE?AVQSize@@XZ 100b50d2 f   qt-mt323:qt-mt323.dll
 0001:000b40d8       ?show@QWidgetStack@@UAEXXZ 100b50d8 f   qt-mt323:qt-mt323.dll
 0001:000b40de       ?childEvent@QWidgetStack@@MAEXPAVQChildEvent@@@Z 100b50de f   qt-mt323:qt-mt323.dll
 0001:000b40e4       ?qt_property@QWidgetStack@@UAE_NHHPAVQVariant@@@Z 100b50e4 f   qt-mt323:qt-mt323.dll
 0001:000b40ea       ?qt_emit@QWidgetStack@@UAE_NHPAUQUObject@@@Z 100b50ea f   qt-mt323:qt-mt323.dll
 0001:000b40f0       ?qt_invoke@QWidgetStack@@UAE_NHPAUQUObject@@@Z 100b50f0 f   qt-mt323:qt-mt323.dll
 0001:000b40f6       ?qt_cast@QWidgetStack@@UAEPAXPBD@Z 100b50f6 f   qt-mt323:qt-mt323.dll
 0001:000b40fc       ?className@QWidgetStack@@UBEPBDXZ 100b50fc f   qt-mt323:qt-mt323.dll
 0001:000b4102       ?metaObject@QWidgetStack@@UBEPAVQMetaObject@@XZ 100b5102 f   qt-mt323:qt-mt323.dll
 0001:000b4108       ?sizeHint@QFrame@@UBE?AVQSize@@XZ 100b5108 f   qt-mt323:qt-mt323.dll
 0001:000b410e       ?qt_property@QFrame@@UAE_NHHPAVQVariant@@@Z 100b510e f   qt-mt323:qt-mt323.dll
 0001:000b4114       ?qt_emit@QFrame@@UAE_NHPAUQUObject@@@Z 100b5114 f   qt-mt323:qt-mt323.dll
 0001:000b411a       ?qt_invoke@QFrame@@UAE_NHPAUQUObject@@@Z 100b511a f   qt-mt323:qt-mt323.dll
 0001:000b4120       ?qt_cast@QFrame@@UAEPAXPBD@Z 100b5120 f   qt-mt323:qt-mt323.dll
 0001:000b4126       ?className@QFrame@@UBEPBDXZ 100b5126 f   qt-mt323:qt-mt323.dll
 0001:000b412c       ?metaObject@QFrame@@UBEPAVQMetaObject@@XZ 100b512c f   qt-mt323:qt-mt323.dll
 0001:000b4132       ?qt_cast@QDialog@@UAEPAXPBD@Z 100b5132 f   qt-mt323:qt-mt323.dll
 0001:000b4138       ?qt_invoke@QDialog@@UAE_NHPAUQUObject@@@Z 100b5138 f   qt-mt323:qt-mt323.dll
 0001:000b413e       ?qt_emit@QDialog@@UAE_NHPAUQUObject@@@Z 100b513e f   qt-mt323:qt-mt323.dll
 0001:000b4144       ?qt_property@QDialog@@UAE_NHHPAVQVariant@@@Z 100b5144 f   qt-mt323:qt-mt323.dll
 0001:000b414a       ?qt_cast@QListBox@@UAEPAXPBD@Z 100b514a f   qt-mt323:qt-mt323.dll
 0001:000b4150       ?qt_invoke@QListBox@@UAE_NHPAUQUObject@@@Z 100b5150 f   qt-mt323:qt-mt323.dll
 0001:000b4156       ?qt_emit@QListBox@@UAE_NHPAUQUObject@@@Z 100b5156 f   qt-mt323:qt-mt323.dll
 0001:000b415c       ?qt_property@QListBox@@UAE_NHHPAVQVariant@@@Z 100b515c f   qt-mt323:qt-mt323.dll
 0001:000b4162       ?qt_cast@QPopupMenu@@UAEPAXPBD@Z 100b5162 f   qt-mt323:qt-mt323.dll
 0001:000b4168       ?qt_invoke@QPopupMenu@@UAE_NHPAUQUObject@@@Z 100b5168 f   qt-mt323:qt-mt323.dll
 0001:000b416e       ?qt_emit@QPopupMenu@@UAE_NHPAUQUObject@@@Z 100b516e f   qt-mt323:qt-mt323.dll
 0001:000b4174       ?qt_property@QPopupMenu@@UAE_NHHPAVQVariant@@@Z 100b5174 f   qt-mt323:qt-mt323.dll
 0001:000b417a       ?staticMetaObject@QWindowsStyle@@SAPAVQMetaObject@@XZ 100b517a f   qt-mt323:qt-mt323.dll
 0001:000b4180       ?qt_cast@QWindowsStyle@@UAEPAXPBD@Z 100b5180 f   qt-mt323:qt-mt323.dll
 0001:000b4186       ?qt_invoke@QWindowsStyle@@UAE_NHPAUQUObject@@@Z 100b5186 f   qt-mt323:qt-mt323.dll
 0001:000b418c       ?qt_emit@QWindowsStyle@@UAE_NHPAUQUObject@@@Z 100b518c f   qt-mt323:qt-mt323.dll
 0001:000b4192       ?qt_property@QWindowsStyle@@UAE_NHHPAVQVariant@@@Z 100b5192 f   qt-mt323:qt-mt323.dll
 0001:000b4198       ?setChecked@QCheckTableItem@@UAEX_N@Z 100b5198 f   qt-mt323:qt-mt323.dll
 0001:000b419e       ?rtti@QCheckTableItem@@UBEHXZ 100b519e f   qt-mt323:qt-mt323.dll
 0001:000b41a4       ?setEnabled@QTableItem@@UAEX_N@Z 100b51a4 f   qt-mt323:qt-mt323.dll
 0001:000b41aa       ?paint@QCheckTableItem@@UAEXPAVQPainter@@ABVQColorGroup@@ABVQRect@@_N@Z 100b51aa f   qt-mt323:qt-mt323.dll
 0001:000b41b0       ?setCol@QTableItem@@UAEXH@Z 100b51b0 f   qt-mt323:qt-mt323.dll
 0001:000b41b6       ?setRow@QTableItem@@UAEXH@Z 100b51b6 f   qt-mt323:qt-mt323.dll
 0001:000b41bc       ?setSpan@QTableItem@@UAEXHH@Z 100b51bc f   qt-mt323:qt-mt323.dll
 0001:000b41c2       ?sizeHint@QCheckTableItem@@UBE?AVQSize@@XZ 100b51c2 f   qt-mt323:qt-mt323.dll
 0001:000b41c8       ?key@QTableItem@@UBE?AVQString@@XZ 100b51c8 f   qt-mt323:qt-mt323.dll
 0001:000b41ce       ?setReplaceable@QTableItem@@UAEX_N@Z 100b51ce f   qt-mt323:qt-mt323.dll
 0001:000b41d4       ?setContentFromEditor@QCheckTableItem@@UAEXPAVQWidget@@@Z 100b51d4 f   qt-mt323:qt-mt323.dll
 0001:000b41da       ?createEditor@QCheckTableItem@@UBEPAVQWidget@@XZ 100b51da f   qt-mt323:qt-mt323.dll
 0001:000b41e0       ?setWordWrap@QTableItem@@UAEX_N@Z 100b51e0 f   qt-mt323:qt-mt323.dll
 0001:000b41e6       ?alignment@QTableItem@@UBEHXZ 100b51e6 f   qt-mt323:qt-mt323.dll
 0001:000b41ec       ?setText@QCheckTableItem@@UAEXABVQString@@@Z 100b51ec f   qt-mt323:qt-mt323.dll
 0001:000b41f2       ?setPixmap@QTableItem@@UAEXABVQPixmap@@@Z 100b51f2 f   qt-mt323:qt-mt323.dll
 0001:000b41f8       ?text@QTableItem@@UBE?AVQString@@XZ 100b51f8 f   qt-mt323:qt-mt323.dll
 0001:000b41fe       ?pixmap@QTableItem@@UBE?AVQPixmap@@XZ 100b51fe f   qt-mt323:qt-mt323.dll
 0001:000b4204       ?stylePixmap@QWindowsStyle@@UBE?AVQPixmap@@W4StylePixmap@QStyle@@PBVQWidget@@ABVQStyleOption@@@Z 100b5204 f   qt-mt323:qt-mt323.dll
 0001:000b420a       ?styleHint@QWindowsStyle@@UBEHW4StyleHint@QStyle@@PBVQWidget@@ABVQStyleOption@@PAVQStyleHintReturn@@@Z 100b520a f   qt-mt323:qt-mt323.dll
 0001:000b4210       ?sizeFromContents@QWindowsStyle@@UBE?AVQSize@@W4ContentsType@QStyle@@PBVQWidget@@ABV2@ABVQStyleOption@@@Z 100b5210 f   qt-mt323:qt-mt323.dll
 0001:000b4216       ?querySubControl@QCommonStyle@@UBE?AW4SubControl@QStyle@@W4ComplexControl@3@PBVQWidget@@ABVQPoint@@ABVQStyleOption@@@Z 100b5216 f   qt-mt323:qt-mt323.dll
 0001:000b421c       ?drawComplexControlMask@QCommonStyle@@UBEXW4ComplexControl@QStyle@@PAVQPainter@@PBVQWidget@@ABVQRect@@ABVQStyleOption@@@Z 100b521c f   qt-mt323:qt-mt323.dll
 0001:000b4222       ?subRect@QWindowsStyle@@UBE?AVQRect@@W4SubRect@QStyle@@PBVQWidget@@@Z 100b5222 f   qt-mt323:qt-mt323.dll
 0001:000b4228       ?drawControlMask@QCommonStyle@@UBEXW4ControlElement@QStyle@@PAVQPainter@@PBVQWidget@@ABVQRect@@ABVQStyleOption@@@Z 100b5228 f   qt-mt323:qt-mt323.dll
 0001:000b422e       ?drawControl@QWindowsStyle@@UBEXW4ControlElement@QStyle@@PAVQPainter@@PBVQWidget@@ABVQRect@@ABVQColorGroup@@IABVQStyleOption@@@Z 100b522e f   qt-mt323:qt-mt323.dll
 0001:000b4234       ?drawPrimitive@QWindowsStyle@@UBEXW4PrimitiveElement@QStyle@@PAVQPainter@@ABVQRect@@ABVQColorGroup@@IABVQStyleOption@@@Z 100b5234 f   qt-mt323:qt-mt323.dll
 0001:000b423a       ?drawItem@QStyle@@UBEXPAVQPainter@@ABVQRect@@HABVQColorGroup@@_NPBVQPixmap@@ABVQString@@HPBVQColor@@@Z 100b523a f   qt-mt323:qt-mt323.dll
 0001:000b4240       ?itemRect@QStyle@@UBE?AVQRect@@PAVQPainter@@ABV2@H_NPBVQPixmap@@ABVQString@@H@Z 100b5240 f   qt-mt323:qt-mt323.dll
 0001:000b4246       ?polishPopupMenu@QWindowsStyle@@UAEXPAVQPopupMenu@@@Z 100b5246 f   qt-mt323:qt-mt323.dll
 0001:000b424c       ?unPolish@QStyle@@UAEXPAVQWidget@@@Z 100b524c f   qt-mt323:qt-mt323.dll
 0001:000b4252       ?unPolish@QStyle@@UAEXPAVQApplication@@@Z 100b5252 f   qt-mt323:qt-mt323.dll
 0001:000b4258       ?polish@QStyle@@UAEXPAVQWidget@@@Z 100b5258 f   qt-mt323:qt-mt323.dll
 0001:000b425e       ?polish@QStyle@@UAEXPAVQApplication@@@Z 100b525e f   qt-mt323:qt-mt323.dll
 0001:000b4264       ?polish@QStyle@@UAEXAAVQPalette@@@Z 100b5264 f   qt-mt323:qt-mt323.dll
 0001:000b426a       ??0QWindowsStyle@@QAE@XZ   100b526a f   qt-mt323:qt-mt323.dll
 0001:000b4270       ??1QWindowsStyle@@UAE@XZ   100b5270 f   qt-mt323:qt-mt323.dll
 0001:000b4276       ?parse@QUrlOperator@@MAE_NABVQString@@@Z 100b5276 f   qt-mt323:qt-mt323.dll
 0001:000b427c       ?reset@QUrlOperator@@MAEXXZ 100b527c f   qt-mt323:qt-mt323.dll
 0001:000b4282       ?cdUp@QUrlOperator@@UAE_NXZ 100b5282 f   qt-mt323:qt-mt323.dll
 0001:000b4288       ?toString@QUrl@@UBE?AVQString@@_N0@Z 100b5288 f   qt-mt323:qt-mt323.dll
 0001:000b428e       ?setFileName@QUrl@@UAEXABVQString@@@Z 100b528e f   qt-mt323:qt-mt323.dll
 0001:000b4294       ?addPath@QUrl@@UAEXABVQString@@@Z 100b5294 f   qt-mt323:qt-mt323.dll
 0001:000b429a       ?setRef@QUrl@@UAEXABVQString@@@Z 100b529a f   qt-mt323:qt-mt323.dll
 0001:000b42a0       ?setQuery@QUrl@@UAEXABVQString@@@Z 100b52a0 f   qt-mt323:qt-mt323.dll
 0001:000b42a6       ?setEncodedPathAndQuery@QUrl@@UAEXABVQString@@@Z 100b52a6 f   qt-mt323:qt-mt323.dll
 0001:000b42ac       ?setPath@QUrlOperator@@UAEXABVQString@@@Z 100b52ac f   qt-mt323:qt-mt323.dll
 0001:000b42b2       ?setPort@QUrl@@UAEXH@Z     100b52b2 f   qt-mt323:qt-mt323.dll
 0001:000b42b8       ?setHost@QUrl@@UAEXABVQString@@@Z 100b52b8 f   qt-mt323:qt-mt323.dll
 0001:000b42be       ?setPassword@QUrl@@UAEXABVQString@@@Z 100b52be f   qt-mt323:qt-mt323.dll
 0001:000b42c4       ?setUser@QUrl@@UAEXABVQString@@@Z 100b52c4 f   qt-mt323:qt-mt323.dll
 0001:000b42ca       ?setProtocol@QUrl@@UAEXABVQString@@@Z 100b52ca f   qt-mt323:qt-mt323.dll
 0001:000b42d0       ?clearEntries@QUrlOperator@@MAEXXZ 100b52d0 f   qt-mt323:qt-mt323.dll
 0001:000b42d6       ?checkValid@QUrlOperator@@MAE_NXZ 100b52d6 f   qt-mt323:qt-mt323.dll
 0001:000b42dc       ?stop@QUrlOperator@@UAEXXZ 100b52dc f   qt-mt323:qt-mt323.dll
 0001:000b42e2       ?info@QUrlOperator@@UBE?AVQUrlInfo@@ABVQString@@@Z 100b52e2 f   qt-mt323:qt-mt323.dll
 0001:000b42e8       ?setNameFilter@QUrlOperator@@UAEXABVQString@@@Z 100b52e8 f   qt-mt323:qt-mt323.dll
 0001:000b42ee       ?isDir@QUrlOperator@@UAE_NPA_N@Z 100b52ee f   qt-mt323:qt-mt323.dll
 0001:000b42f4       ?copy@QUrlOperator@@UAE?AV?$QPtrList@VQNetworkOperation@@@@ABVQString@@0_N1@Z 100b52f4 f   qt-mt323:qt-mt323.dll
 0001:000b42fa       ?copy@QUrlOperator@@UAEXABVQStringList@@ABVQString@@_N@Z 100b52fa f   qt-mt323:qt-mt323.dll
 0001:000b4300       ?put@QUrlOperator@@UAEPBVQNetworkOperation@@ABV?$QMemArray@D@@ABVQString@@@Z 100b5300 f   qt-mt323:qt-mt323.dll
 0001:000b4306       ?get@QUrlOperator@@UAEPBVQNetworkOperation@@ABVQString@@@Z 100b5306 f   qt-mt323:qt-mt323.dll
 0001:000b430c       ?rename@QUrlOperator@@UAEPBVQNetworkOperation@@ABVQString@@0@Z 100b530c f   qt-mt323:qt-mt323.dll
 0001:000b4312       ?remove@QUrlOperator@@UAEPBVQNetworkOperation@@ABVQString@@@Z 100b5312 f   qt-mt323:qt-mt323.dll
 0001:000b4318       ?mkdir@QUrlOperator@@UAEPBVQNetworkOperation@@ABVQString@@@Z 100b5318 f   qt-mt323:qt-mt323.dll
 0001:000b431e       ?listChildren@QUrlOperator@@UAEPBVQNetworkOperation@@XZ 100b531e f   qt-mt323:qt-mt323.dll
 0001:000b4324       ?qt_property@QUrlOperator@@UAE_NHHPAVQVariant@@@Z 100b5324 f   qt-mt323:qt-mt323.dll
 0001:000b432a       ?qt_emit@QUrlOperator@@UAE_NHPAUQUObject@@@Z 100b532a f   qt-mt323:qt-mt323.dll
 0001:000b4330       ?qt_invoke@QUrlOperator@@UAE_NHPAUQUObject@@@Z 100b5330 f   qt-mt323:qt-mt323.dll
 0001:000b4336       ?qt_cast@QUrlOperator@@UAEPAXPBD@Z 100b5336 f   qt-mt323:qt-mt323.dll
 0001:000b433c       ?className@QUrlOperator@@UBEPBDXZ 100b533c f   qt-mt323:qt-mt323.dll
 0001:000b4342       ?metaObject@QUrlOperator@@UBEPAVQMetaObject@@XZ 100b5342 f   qt-mt323:qt-mt323.dll
 0001:000b4348       ?unload@QLibrary@@UAE_NXZ  100b5348 f   qt-mt323:qt-mt323.dll
 0001:000b434e       ?setData@QPicture@@UAEXPBDI@Z 100b534e f   qt-mt323:qt-mt323.dll
 0001:000b4354       ?metric@QPicture@@MBEHH@Z  100b5354 f   qt-mt323:qt-mt323.dll
 0001:000b435a       ?cmd@QPicture@@MAE_NHPAVQPainter@@PATQPDevCmdParam@@@Z 100b535a f   qt-mt323:qt-mt323.dll
 0001:000b4360       ?detach@QPixmap@@UAEXXZ    100b5360 f   qt-mt323:qt-mt323.dll
 0001:000b4366       ?metric@QPixmap@@MBEHH@Z   100b5366 f   qt-mt323:qt-mt323.dll
 0001:000b436c       ?setSmallDecimalPoint@QLCDNumber@@UAEX_N@Z 100b536c f   qt-mt323:qt-mt323.dll
 0001:000b4372       ?setBinMode@QLCDNumber@@UAEXXZ 100b5372 f   qt-mt323:qt-mt323.dll
 0001:000b4378       ?setOctMode@QLCDNumber@@UAEXXZ 100b5378 f   qt-mt323:qt-mt323.dll
 0001:000b437e       ?setDecMode@QLCDNumber@@UAEXXZ 100b537e f   qt-mt323:qt-mt323.dll
 0001:000b4384       ?setHexMode@QLCDNumber@@UAEXXZ 100b5384 f   qt-mt323:qt-mt323.dll
 0001:000b438a       ?setSegmentStyle@QLCDNumber@@UAEXW4SegmentStyle@1@@Z 100b538a f   qt-mt323:qt-mt323.dll
 0001:000b4390       ?setMode@QLCDNumber@@UAEXW4Mode@1@@Z 100b5390 f   qt-mt323:qt-mt323.dll
 0001:000b4396       ?setNumDigits@QLCDNumber@@UAEXH@Z 100b5396 f   qt-mt323:qt-mt323.dll
 0001:000b439c       ?drawContents@QLCDNumber@@MAEXPAVQPainter@@@Z 100b539c f   qt-mt323:qt-mt323.dll
 0001:000b43a2       ?sizeHint@QLCDNumber@@UBE?AVQSize@@XZ 100b53a2 f   qt-mt323:qt-mt323.dll
 0001:000b43a8       ?qt_property@QLCDNumber@@UAE_NHHPAVQVariant@@@Z 100b53a8 f   qt-mt323:qt-mt323.dll
 0001:000b43ae       ?qt_emit@QLCDNumber@@UAE_NHPAUQUObject@@@Z 100b53ae f   qt-mt323:qt-mt323.dll
 0001:000b43b4       ?qt_invoke@QLCDNumber@@UAE_NHPAUQUObject@@@Z 100b53b4 f   qt-mt323:qt-mt323.dll
 0001:000b43ba       ?qt_cast@QLCDNumber@@UAEPAXPBD@Z 100b53ba f   qt-mt323:qt-mt323.dll
 0001:000b43c0       ?className@QLCDNumber@@UBEPBDXZ 100b53c0 f   qt-mt323:qt-mt323.dll
 0001:000b43c6       ?metaObject@QLCDNumber@@UBEPAVQMetaObject@@XZ 100b53c6 f   qt-mt323:qt-mt323.dll
 0001:000b43cc       ?dragLeft@QIconViewItem@@MAEXXZ 100b53cc f   qt-mt323:qt-mt323.dll
 0001:000b43d2       ?dragEntered@QIconViewItem@@MAEXXZ 100b53d2 f   qt-mt323:qt-mt323.dll
 0001:000b43d8       ?dropped@QIconViewItem@@MAEXPAVQDropEvent@@ABV?$QValueList@VQIconDragItem@@@@@Z 100b53d8 f   qt-mt323:qt-mt323.dll
 0001:000b43de       ?paintFocus@QIconViewItem@@MAEXPAVQPainter@@ABVQColorGroup@@@Z 100b53de f   qt-mt323:qt-mt323.dll
 0001:000b43e4       ?paintItem@QIconViewItem@@MAEXPAVQPainter@@ABVQColorGroup@@@Z 100b53e4 f   qt-mt323:qt-mt323.dll
 0001:000b43ea       ?calcRect@QIconViewItem@@MAEXABVQString@@@Z 100b53ea f   qt-mt323:qt-mt323.dll
 0001:000b43f0       ?removeRenameBox@QIconViewItem@@MAEXXZ 100b53f0 f   qt-mt323:qt-mt323.dll
 0001:000b43f6       ?rtti@QIconViewItem@@UBEHXZ 100b53f6 f   qt-mt323:qt-mt323.dll
 0001:000b43fc       ?setKey@QIconViewItem@@UAEXABVQString@@@Z 100b53fc f   qt-mt323:qt-mt323.dll
 0001:000b4402       ?setPicture@QIconViewItem@@UAEXABVQPicture@@@Z 100b5402 f   qt-mt323:qt-mt323.dll
 0001:000b4408       ?setPixmap@QIconViewItem@@UAEXABVQPixmap@@@Z 100b5408 f   qt-mt323:qt-mt323.dll
 0001:000b440e       ?setPixmap@QIconViewItem@@UAEXABVQPixmap@@_N1@Z 100b540e f   qt-mt323:qt-mt323.dll
 0001:000b4414       ?setText@QIconViewItem@@UAEXABVQString@@@Z 100b5414 f   qt-mt323:qt-mt323.dll
 0001:000b441a       ?setText@QIconViewItem@@UAEXABVQString@@_N1@Z 100b541a f   qt-mt323:qt-mt323.dll
 0001:000b4420       ?compare@QIconViewItem@@UBEHPAV1@@Z 100b5420 f   qt-mt323:qt-mt323.dll
 0001:000b4426       ?acceptDrop@QIconViewItem@@UBE_NPBVQMimeSource@@@Z 100b5426 f   qt-mt323:qt-mt323.dll
 0001:000b442c       ?moveBy@QIconViewItem@@UAEXHH@Z 100b542c f   qt-mt323:qt-mt323.dll
 0001:000b4432       ?moveBy@QIconViewItem@@UAEXABVQPoint@@@Z 100b5432 f   qt-mt323:qt-mt323.dll
 0001:000b4438       ?move@QIconViewItem@@UAE_NHH@Z 100b5438 f   qt-mt323:qt-mt323.dll
 0001:000b443e       ?move@QIconViewItem@@UAE_NABVQPoint@@@Z 100b543e f   qt-mt323:qt-mt323.dll
 0001:000b4444       ?repaint@QIconViewItem@@UAEXXZ 100b5444 f   qt-mt323:qt-mt323.dll
 0001:000b444a       ?setSelectable@QIconViewItem@@UAEX_N@Z 100b544a f   qt-mt323:qt-mt323.dll
 0001:000b4450       ?setSelected@QIconViewItem@@UAEX_N0@Z 100b5450 f   qt-mt323:qt-mt323.dll
 0001:000b4456       ?setSelected@QIconViewItem@@UAEX_N@Z 100b5456 f   qt-mt323:qt-mt323.dll
 0001:000b445c       ?key@QIconViewItem@@UBE?AVQString@@XZ 100b545c f   qt-mt323:qt-mt323.dll
 0001:000b4462       ?picture@QIconViewItem@@UBEPAVQPicture@@XZ 100b5462 f   qt-mt323:qt-mt323.dll
 0001:000b4468       ?pixmap@QIconViewItem@@UBEPAVQPixmap@@XZ 100b5468 f   qt-mt323:qt-mt323.dll
 0001:000b446e       ?text@QIconViewItem@@UBE?AVQString@@XZ 100b546e f   qt-mt323:qt-mt323.dll
 0001:000b4474       ?setDropEnabled@QIconViewItem@@UAEX_N@Z 100b5474 f   qt-mt323:qt-mt323.dll
 0001:000b447a       ?setDragEnabled@QIconViewItem@@UAEX_N@Z 100b547a f   qt-mt323:qt-mt323.dll
 0001:000b4480       ?setRenameEnabled@QIconViewItem@@UAEX_N@Z 100b5480 f   qt-mt323:qt-mt323.dll
 0001:000b4506       ??0QWidgetFactory@@QAE@XZ  100b5506 f   qui:qwidgetfactory.obj
 0001:000b45a8       ??0QWidgetFactoryPrivate@@QAE@XZ 100b55a8 f i qui:qwidgetfactory.obj
 0001:000b45de       ??_GQWidgetFactory@@UAEPAXI@Z 100b55de f i qui:qwidgetfactory.obj
 0001:000b45de       ??_EQWidgetFactory@@UAEPAXI@Z 100b55de f i qui:qwidgetfactory.obj
 0001:000b45fa       ??1QWidgetFactory@@UAE@XZ  100b55fa f   qui:qwidgetfactory.obj
 0001:000b46b1       ??_EQSqlCursor@@UAEPAXI@Z  100b56b1 f i qui:qwidgetfactory.obj
 0001:000b46b1       ??_GQSqlCursor@@UAEPAXI@Z  100b56b1 f i qui:qwidgetfactory.obj
 0001:000b46ce       ??_EQPopupMenu@@UAEPAXI@Z  100b56ce f i qui:qwidgetfactory.obj
 0001:000b46ce       ??_GQPopupMenu@@UAEPAXI@Z  100b56ce f i qui:qwidgetfactory.obj
 0001:000b46eb       ?createWidget@QWidgetFactory@@UBEPAVQWidget@@ABVQString@@PAV2@PBD@Z 100b56eb f   qui:qwidgetfactory.obj
 0001:000b54a0       ??_GQToolButton@@UAEPAXI@Z 100b64a0 f i qui:qwidgetfactory.obj
 0001:000b54a0       ??_EQToolButton@@UAEPAXI@Z 100b64a0 f i qui:qwidgetfactory.obj
 0001:000b54bd       ??_GQListBox@@UAEPAXI@Z    100b64bd f i qui:qwidgetfactory.obj
 0001:000b54bd       ??_EQListBox@@UAEPAXI@Z    100b64bd f i qui:qwidgetfactory.obj
 0001:000b54da       ??_EQMultiLineEdit@@UAEPAXI@Z 100b64da f i qui:qwidgetfactory.obj
 0001:000b54da       ??_GQMultiLineEdit@@UAEPAXI@Z 100b64da f i qui:qwidgetfactory.obj
 0001:000b54f7       ??_GQDialog@@UAEPAXI@Z     100b64f7 f i qui:qwidgetfactory.obj
 0001:000b54f7       ??_EQDialog@@UAEPAXI@Z     100b64f7 f i qui:qwidgetfactory.obj
 0001:000b5514       ??_GQWizard@@UAEPAXI@Z     100b6514 f i qui:qwidgetfactory.obj
 0001:000b5514       ??_EQWizard@@UAEPAXI@Z     100b6514 f i qui:qwidgetfactory.obj
 0001:000b5531       ??_GQProgressBar@@UAEPAXI@Z 100b6531 f i qui:qwidgetfactory.obj
 0001:000b5531       ??_EQProgressBar@@UAEPAXI@Z 100b6531 f i qui:qwidgetfactory.obj
 0001:000b555c       ??_GQTextView@@UAEPAXI@Z   100b655c f i qui:qwidgetfactory.obj
 0001:000b555c       ??_EQTextView@@UAEPAXI@Z   100b655c f i qui:qwidgetfactory.obj
 0001:000b5579       ??_EQTextBrowser@@UAEPAXI@Z 100b6579 f i qui:qwidgetfactory.obj
 0001:000b5579       ??_GQTextBrowser@@UAEPAXI@Z 100b6579 f i qui:qwidgetfactory.obj
 0001:000b5596       ??_GQDial@@UAEPAXI@Z       100b6596 f i qui:qwidgetfactory.obj
 0001:000b5596       ??_EQDial@@UAEPAXI@Z       100b6596 f i qui:qwidgetfactory.obj
 0001:000b55b3       ??_GQSplitter@@UAEPAXI@Z   100b65b3 f i qui:qwidgetfactory.obj
 0001:000b55b3       ??_EQSplitter@@UAEPAXI@Z   100b65b3 f i qui:qwidgetfactory.obj
 0001:000b55d0       ??_GQDateEdit@@UAEPAXI@Z   100b65d0 f i qui:qwidgetfactory.obj
 0001:000b55d0       ??_EQDateEdit@@UAEPAXI@Z   100b65d0 f i qui:qwidgetfactory.obj
 0001:000b55ed       ??_EQTimeEdit@@UAEPAXI@Z   100b65ed f i qui:qwidgetfactory.obj
 0001:000b55ed       ??_GQTimeEdit@@UAEPAXI@Z   100b65ed f i qui:qwidgetfactory.obj
 0001:000b560a       ??_GQDateTimeEdit@@UAEPAXI@Z 100b660a f i qui:qwidgetfactory.obj
 0001:000b560a       ??_EQDateTimeEdit@@UAEPAXI@Z 100b660a f i qui:qwidgetfactory.obj
 0001:000b5627       ??_GQScrollBar@@UAEPAXI@Z  100b6627 f i qui:qwidgetfactory.obj
 0001:000b5627       ??_EQScrollBar@@UAEPAXI@Z  100b6627 f i qui:qwidgetfactory.obj
 0001:000b5644       ??_EQToolBox@@UAEPAXI@Z    100b6644 f i qui:qwidgetfactory.obj
 0001:000b5644       ??_GQToolBox@@UAEPAXI@Z    100b6644 f i qui:qwidgetfactory.obj
 0001:000b5661       ??_GQWidget@@UAEPAXI@Z     100b6661 f i qui:qwidgetfactory.obj
 0001:000b5661       ??_GQHBox@@UAEPAXI@Z       100b6661 f i qui:qwidgetfactory.obj
 0001:000b5661       ??_GQVBox@@UAEPAXI@Z       100b6661 f i qui:qwidgetfactory.obj
 0001:000b5661       ??_EQHBox@@UAEPAXI@Z       100b6661 f i qui:qwidgetfactory.obj
 0001:000b5661       ??_GQGrid@@UAEPAXI@Z       100b6661 f i qui:qwidgetfactory.obj
 0001:000b5661       ??_EQWidget@@UAEPAXI@Z     100b6661 f i qui:qwidgetfactory.obj
 0001:000b5661       ??_EQVBox@@UAEPAXI@Z       100b6661 f i qui:qwidgetfactory.obj
 0001:000b5661       ??_EQGrid@@UAEPAXI@Z       100b6661 f i qui:qwidgetfactory.obj
 0001:000b567e       ??_GQMainWindow@@UAEPAXI@Z 100b667e f i qui:qwidgetfactory.obj
 0001:000b567e       ??_EQMainWindow@@UAEPAXI@Z 100b667e f i qui:qwidgetfactory.obj
 0001:000b569b       ??_GQDataTable@@UAEPAXI@Z  100b669b f i qui:qwidgetfactory.obj
 0001:000b569b       ??_EQDataTable@@UAEPAXI@Z  100b669b f i qui:qwidgetfactory.obj
 0001:000b5f27       ?supportsWidget@QWidgetFactory@@SA_NABVQString@@@Z 100b6f27 f   qui:qwidgetfactory.obj
 0001:000b5f79       ??1Field@QWidgetFactory@@QAE@XZ 100b6f79 f i qui:qwidgetfactory.obj
 0001:000b5f98       ??0?$QValueList@UImage@QWidgetFactory@@@@QAE@XZ 100b6f98 f i qui:qwidgetfactory.obj
 0001:000b5fb8       ??0?$QMap@VQString@@VQStringList@@@@QAE@XZ 100b6fb8 f i qui:qwidgetfactory.obj
 0001:000b5fd8       ??1?$QMap@VQString@@VQStringList@@@@QAE@XZ 100b6fd8 f i qui:qwidgetfactory.obj
 0001:000b5ff5       ??0?$QMap@PAVQWidget@@USqlWidgetConnection@QWidgetFactory@@@@QAE@XZ 100b6ff5 f i qui:qwidgetfactory.obj
 0001:000b6015       ??1?$QMap@PAVQWidget@@USqlWidgetConnection@QWidgetFactory@@@@QAE@XZ 100b7015 f i qui:qwidgetfactory.obj
 0001:000b6032       ??0?$QMap@PAVQTable@@V?$QValueList@UField@QWidgetFactory@@@@@@QAE@XZ 100b7032 f i qui:qwidgetfactory.obj
 0001:000b6052       ??1?$QMap@PAVQTable@@V?$QValueList@UField@QWidgetFactory@@@@@@QAE@XZ 100b7052 f i qui:qwidgetfactory.obj
 0001:000b606f       ?clear@?$QPtrList@VQAction@@@@UAEXXZ 100b706f f i qui:qwidgetfactory.obj
 0001:000b606f       ?clear@?$QPtrList@VsignalConnection@@@@UAEXXZ 100b706f f i qui:qwidgetfactory.obj
 0001:000b606f       ?clear@?$QPtrQueue@VQString@@@@UAEXXZ 100b706f f i qui:qwidgetfactory.obj
 0001:000b606f       ?clear@?$QPtrList@VQWidgetFactory@@@@UAEXXZ 100b706f f i qui:qwidgetfactory.obj
 0001:000b6075       ??1?$QDict@_N@@UAE@XZ      100b7075 f i qui:qwidgetfactory.obj
 0001:000b608e       ?clear@?$QDict@VplaySound@@@@UAEXXZ 100b708e f i qui:qwidgetfactory.obj
 0001:000b608e       ?clear@?$QDict@_N@@UAEXXZ  100b708e f i qui:qwidgetfactory.obj
 0001:000b608e       ?clear@?$QIntDict@VQTimer@@@@UAEXXZ 100b708e f i qui:qwidgetfactory.obj
 0001:000b608e       ?clear@?$QDict@VQWidget@@@@UAEXXZ 100b708e f i qui:qwidgetfactory.obj
 0001:000b608e       ?clear@?$QDict@Vbncs_http@@@@UAEXXZ 100b708e f i qui:qwidgetfactory.obj
 0001:000b608e       ?clear@?$QDict@Vbncs_popup@@@@UAEXXZ 100b708e f i qui:qwidgetfactory.obj
 0001:000b6094       ??0?$QMap@VQString@@_N@@QAE@XZ 100b7094 f i qui:qwidgetfactory.obj
 0001:000b60b4       ??0?$QValueList@UField@QWidgetFactory@@@@QAE@XZ 100b70b4 f i qui:qwidgetfactory.obj
 0001:000b60d4       ??_E?$QPtrList@VQAction@@@@UAEPAXI@Z 100b70d4 f i qui:qwidgetfactory.obj
 0001:000b60d4       ??_G?$QPtrList@VQAction@@@@UAEPAXI@Z 100b70d4 f i qui:qwidgetfactory.obj
 0001:000b60ff       ??_E?$QDict@_N@@UAEPAXI@Z  100b70ff f i qui:qwidgetfactory.obj
 0001:000b60ff       ??_G?$QDict@_N@@UAEPAXI@Z  100b70ff f i qui:qwidgetfactory.obj
 0001:000b612a       ??_G?$QPtrList@VQWidgetFactory@@@@UAEPAXI@Z 100b712a f i qui:qwidgetfactory.obj
 0001:000b612a       ??_E?$QPtrList@VQWidgetFactory@@@@UAEPAXI@Z 100b712a f i qui:qwidgetfactory.obj
 0001:000b6155       ??1?$QMapPrivate@VQString@@VQStringList@@@@QAE@XZ 100b7155 f i qui:qwidgetfactory.obj
 0001:000b616d       ??1?$QMapPrivate@PAVQWidget@@USqlWidgetConnection@QWidgetFactory@@@@QAE@XZ 100b716d f i qui:qwidgetfactory.obj
 0001:000b6185       ??1?$QMapPrivate@PAVQTable@@V?$QValueList@UField@QWidgetFactory@@@@@@QAE@XZ 100b7185 f i qui:qwidgetfactory.obj
 0001:000b61a5       ??_G?$QMapNode@VQString@@VQStringList@@@@QAEPAXI@Z 100b71a5 f i qui:qwidgetfactory.obj
 0001:000b61cd       ??_G?$QMapNode@PAVQWidget@@USqlWidgetConnection@QWidgetFactory@@@@QAEPAXI@Z 100b71cd f i qui:qwidgetfactory.obj
 0001:000b61fa       ?deleteItem@?$QDict@_N@@EAEXPAX@Z 100b71fa f i qui:qwidgetfactory.obj
 0001:000b620d       ?detachInternal@?$QMap@VQString@@_N@@AAEXXZ 100b720d f i qui:qwidgetfactory.obj
 0001:000b6231       ??0?$QValueListPrivate@UImage@QWidgetFactory@@@@QAE@XZ 100b7231 f i qui:qwidgetfactory.obj
 0001:000b626f       ??0?$QMapPrivate@VQString@@VQStringList@@@@QAE@XZ 100b726f f i qui:qwidgetfactory.obj
 0001:000b62c3       ?clear@?$QMapPrivate@VQString@@VQStringList@@@@QAEXXZ 100b72c3 f i qui:qwidgetfactory.obj
 0001:000b62f2       ??0?$QMapPrivate@PAVQWidget@@USqlWidgetConnection@QWidgetFactory@@@@QAE@XZ 100b72f2 f i qui:qwidgetfactory.obj
 0001:000b634a       ?clear@?$QMapPrivate@PAVQWidget@@USqlWidgetConnection@QWidgetFactory@@@@QAEXXZ 100b734a f i qui:qwidgetfactory.obj
 0001:000b6379       ??0?$QMapPrivate@PAVQTable@@V?$QValueList@UField@QWidgetFactory@@@@@@QAE@XZ 100b7379 f i qui:qwidgetfactory.obj
 0001:000b63c3       ?clear@?$QMapPrivate@PAVQTable@@V?$QValueList@UField@QWidgetFactory@@@@@@QAEXXZ 100b73c3 f i qui:qwidgetfactory.obj
 0001:000b63f2       ??0?$QMapPrivate@VQString@@_N@@QAE@XZ 100b73f2 f i qui:qwidgetfactory.obj
 0001:000b643d       ?find@?$QMapPrivate@VQString@@_N@@QBE?AV?$QMapConstIterator@VQString@@_N@@ABVQString@@@Z 100b743d f i qui:qwidgetfactory.obj
 0001:000b649b       ??0?$QValueListPrivate@UField@QWidgetFactory@@@@QAE@XZ 100b749b f i qui:qwidgetfactory.obj
 0001:000b64e6       ??0Field@QWidgetFactory@@QAE@XZ 100b74e6 f i qui:qwidgetfactory.obj
 0001:000b6505       ??_G?$QValueListPrivate@UImage@QWidgetFactory@@@@UAEPAXI@Z 100b7505 f i qui:qwidgetfactory.obj
 0001:000b6505       ??_E?$QValueListPrivate@UImage@QWidgetFactory@@@@UAEPAXI@Z 100b7505 f i qui:qwidgetfactory.obj
 0001:000b6521       ??1?$QValueListPrivate@UImage@QWidgetFactory@@@@UAE@XZ 100b7521 f i qui:qwidgetfactory.obj
 0001:000b6559       ??_E?$QValueListPrivate@UField@QWidgetFactory@@@@UAEPAXI@Z 100b7559 f i qui:qwidgetfactory.obj
 0001:000b6559       ??_G?$QValueListPrivate@UField@QWidgetFactory@@@@UAEPAXI@Z 100b7559 f i qui:qwidgetfactory.obj
 0001:000b6575       ??1?$QValueListPrivate@UField@QWidgetFactory@@@@UAE@XZ 100b7575 f i qui:qwidgetfactory.obj
 0001:000b65ad       ??_G?$QValueListNode@UImage@QWidgetFactory@@@@UAEPAXI@Z 100b75ad f i qui:qwidgetfactory.obj
 0001:000b65ad       ??_E?$QValueListNode@UImage@QWidgetFactory@@@@UAEPAXI@Z 100b75ad f i qui:qwidgetfactory.obj
 0001:000b65c9       ??1?$QValueListNode@UImage@QWidgetFactory@@@@UAE@XZ 100b75c9 f i qui:qwidgetfactory.obj
 0001:000b65e6       ??0?$QValueListNode@UImage@QWidgetFactory@@@@QAE@XZ 100b75e6 f i qui:qwidgetfactory.obj
 0001:000b6609       ??_E?$QValueListNode@UField@QWidgetFactory@@@@UAEPAXI@Z 100b7609 f i qui:qwidgetfactory.obj
 0001:000b6609       ??_G?$QValueListNode@UField@QWidgetFactory@@@@UAEPAXI@Z 100b7609 f i qui:qwidgetfactory.obj
 0001:000b662e       ?clear@?$QMapPrivate@VQString@@VQStringList@@@@QAEXPAU?$QMapNode@VQString@@VQStringList@@@@@Z 100b762e f i qui:qwidgetfactory.obj
 0001:000b6660       ?clear@?$QMapPrivate@PAVQWidget@@USqlWidgetConnection@QWidgetFactory@@@@QAEXPAU?$QMapNode@PAVQWidget@@USqlWidgetConnection@QWidgetFactory@@@@@Z 100b7660 f i qui:qwidgetfactory.obj
 0001:000b6692       ?clear@?$QMapPrivate@PAVQTable@@V?$QValueList@UField@QWidgetFactory@@@@@@QAEXPAU?$QMapNode@PAVQTable@@V?$QValueList@UField@QWidgetFactory@@@@@@@Z 100b7692 f i qui:qwidgetfactory.obj
 0001:000b66ca       ??0?$QMapPrivate@VQString@@_N@@QAE@PBV0@@Z 100b76ca f i qui:qwidgetfactory.obj
 0001:000b6769       ?insertSingle@?$QMapPrivate@VQString@@_N@@QAE?AV?$QMapIterator@VQString@@_N@@ABVQString@@@Z 100b7769 f i qui:qwidgetfactory.obj
 0001:000b67eb       ?copy@?$QMapPrivate@VQString@@_N@@QAEPAU?$QMapNode@VQString@@_N@@PAU2@@Z 100b77eb f i qui:qwidgetfactory.obj
 0001:000b6857       ?insert@?$QMapPrivate@VQString@@_N@@QAE?AV?$QMapIterator@VQString@@_N@@PAUQMapNodeBase@@0ABVQString@@@Z 100b7857 f i qui:qwidgetfactory.obj
 0001:000b68f8       ??0?$QMapNode@VQString@@_N@@QAE@ABU0@@Z 100b78f8 f i qui:qwidgetfactory.obj
 0001:000b6926       ??_EQTimeEdit@@WCI@AEPAXI@Z 100b7926 f i qui:qwidgetfactory.obj
 0001:000b692e       ??_EQToolButton@@WCI@AEPAXI@Z 100b792e f i qui:qwidgetfactory.obj
 0001:000b6936       ??_EQPopupMenu@@WCI@AEPAXI@Z 100b7936 f i qui:qwidgetfactory.obj
 0001:000b693e       ??_EQPopupMenu@@WIM@AEPAXI@Z 100b793e f i qui:qwidgetfactory.obj
 0001:000b6949       ??_EQDateEdit@@WCI@AEPAXI@Z 100b7949 f i qui:qwidgetfactory.obj
 0001:000b6951       ??_EQDataTable@@WCI@AEPAXI@Z 100b7951 f i qui:qwidgetfactory.obj
 0001:000b6959       ??_EQSqlCursor@@W7AEPAXI@Z 100b7959 f i qui:qwidgetfactory.obj
 0001:000b6961       ?value@QSqlCursor@@W7BE?AVQVariant@@H@Z 100b7961 f i qui:qwidgetfactory.obj
 0001:000b696a       ??_EQVBox@@WCI@AEPAXI@Z    100b796a f i qui:qwidgetfactory.obj
 0001:000b696a       ??_EQWidget@@WCI@AEPAXI@Z  100b796a f i qui:qwidgetfactory.obj
 0001:000b696a       ??_EQGrid@@WCI@AEPAXI@Z    100b796a f i qui:qwidgetfactory.obj
 0001:000b696a       ??_EQHBox@@WCI@AEPAXI@Z    100b796a f i qui:qwidgetfactory.obj
 0001:000b6972       ??_EQDialog@@WCI@AEPAXI@Z  100b7972 f i qui:qwidgetfactory.obj
 0001:000b697a       ??_EQWizard@@WCI@AEPAXI@Z  100b797a f i qui:qwidgetfactory.obj
 0001:000b6982       ??_EQScrollBar@@WCI@AEPAXI@Z 100b7982 f i qui:qwidgetfactory.obj
 0001:000b698a       ??_EQScrollBar@@WGM@AEPAXI@Z 100b798a f i qui:qwidgetfactory.obj
 0001:000b6992       ??_EQSplitter@@WCI@AEPAXI@Z 100b7992 f i qui:qwidgetfactory.obj
 0001:000b699a       ??_EQProgressBar@@WCI@AEPAXI@Z 100b799a f i qui:qwidgetfactory.obj
 0001:000b69a2       ??_EQDateTimeEdit@@WCI@AEPAXI@Z 100b79a2 f i qui:qwidgetfactory.obj
 0001:000b69aa       ??_EQTextBrowser@@WCI@AEPAXI@Z 100b79aa f i qui:qwidgetfactory.obj
 0001:000b69b2       ??_EQMainWindow@@WCI@AEPAXI@Z 100b79b2 f i qui:qwidgetfactory.obj
 0001:000b69ba       ??_EQToolBox@@WCI@AEPAXI@Z 100b79ba f i qui:qwidgetfactory.obj
 0001:000b69c2       ??_EQListBox@@WCI@AEPAXI@Z 100b79c2 f i qui:qwidgetfactory.obj
 0001:000b69ca       ??_EQDial@@WCI@AEPAXI@Z    100b79ca f i qui:qwidgetfactory.obj
 0001:000b69d2       ??_EQDial@@WGM@AEPAXI@Z    100b79d2 f i qui:qwidgetfactory.obj
 0001:000b69da       ??_EQMultiLineEdit@@WCI@AEPAXI@Z 100b79da f i qui:qwidgetfactory.obj
 0001:000b69e2       ??_EQTextView@@WCI@AEPAXI@Z 100b79e2 f i qui:qwidgetfactory.obj
 0001:000b69ea       ??0DatabaseSupport2@@QAE@XZ 100b79ea f   qui:database.obj
 0001:000b6a14       ??_GDatabaseSupport2@@UAEPAXI@Z 100b7a14 f i qui:database.obj
 0001:000b6a14       ??_EDatabaseSupport2@@UAEPAXI@Z 100b7a14 f i qui:database.obj
 0001:000b6a43       ??0QDesignerDataBrowser2@@QAE@PAVQWidget@@PBD@Z 100b7a43 f   qui:database.obj
 0001:000b6a7b       ?metaObject@QDesignerDataBrowser2@@UBEPAVQMetaObject@@XZ 100b7a7b f i qui:database.obj
 0001:000b6a80       ??_EQDesignerDataBrowser2@@UAEPAXI@Z 100b7a80 f i qui:database.obj
 0001:000b6a80       ??_GQDesignerDataBrowser2@@UAEPAXI@Z 100b7a80 f i qui:database.obj
 0001:000b6a9c       ??1QDesignerDataBrowser2@@UAE@XZ 100b7a9c f i qui:database.obj
 0001:000b6ace       ?event@QDesignerDataBrowser2@@MAE_NPAVQEvent@@@Z 100b7ace f   qui:database.obj
 0001:000b6b4e       ??0QDesignerDataView2@@QAE@PAVQWidget@@PBD@Z 100b7b4e f   qui:database.obj
 0001:000b6b86       ?metaObject@QDesignerDataView2@@UBEPAVQMetaObject@@XZ 100b7b86 f i qui:database.obj
 0001:000b6b8b       ??_GQDesignerDataView2@@UAEPAXI@Z 100b7b8b f i qui:database.obj
 0001:000b6b8b       ??_EQDesignerDataView2@@UAEPAXI@Z 100b7b8b f i qui:database.obj
 0001:000b6ba7       ??1QDesignerDataView2@@UAE@XZ 100b7ba7 f i qui:database.obj
 0001:000b6bd9       ?event@QDesignerDataView2@@MAE_NPAVQEvent@@@Z 100b7bd9 f   qui:database.obj
 0001:000b6c0c       ??_EQDesignerDataView2@@WCI@AEPAXI@Z 100b7c0c f i qui:database.obj
 0001:000b6c14       ??_EQDesignerDataView2@@WHA@AEPAXI@Z 100b7c14 f i qui:database.obj
 0001:000b6c1c       ??_EQDesignerDataBrowser2@@WCI@AEPAXI@Z 100b7c1c f i qui:database.obj
 0001:000b6c24       ??_EQDesignerDataBrowser2@@WHA@AEPAXI@Z 100b7c24 f i qui:database.obj
 0001:000b6c2c       ?className@QDesignerDataBrowser2@@UBEPBDXZ 100b7c2c f   qui:moc_database2.obj
 0001:000b6c69       ?staticMetaObject@QDesignerDataBrowser2@@SAPAVQMetaObject@@XZ 100b7c69 f   qui:moc_database2.obj
 0001:000b6cb0       ?qt_cast@QDesignerDataBrowser2@@UAEPAXPBD@Z 100b7cb0 f   qui:moc_database2.obj
 0001:000b6d1b       ?qt_invoke@QDesignerDataBrowser2@@UAE_NHPAUQUObject@@@Z 100b7d1b f   qui:moc_database2.obj
 0001:000b6d2c       ?qt_emit@QDesignerDataBrowser2@@UAE_NHPAUQUObject@@@Z 100b7d2c f   qui:moc_database2.obj
 0001:000b6d3d       ?qt_property@QDesignerDataBrowser2@@UAE_NHHPAVQVariant@@@Z 100b7d3d f   qui:moc_database2.obj
 0001:000b6d52       ?className@QDesignerDataView2@@UBEPBDXZ 100b7d52 f   qui:moc_database2.obj
 0001:000b6d8f       ?staticMetaObject@QDesignerDataView2@@SAPAVQMetaObject@@XZ 100b7d8f f   qui:moc_database2.obj
 0001:000b6dd6       ?qt_cast@QDesignerDataView2@@UAEPAXPBD@Z 100b7dd6 f   qui:moc_database2.obj
 0001:000b6e41       ?qt_invoke@QDesignerDataView2@@UAE_NHPAUQUObject@@@Z 100b7e41 f   qui:moc_database2.obj
 0001:000b6e52       ?qt_emit@QDesignerDataView2@@UAE_NHPAUQUObject@@@Z 100b7e52 f   qui:moc_database2.obj
 0001:000b6e63       ?qt_property@QDesignerDataView2@@UAE_NHHPAVQVariant@@@Z 100b7e63 f   qui:moc_database2.obj
 0001:000b6e78       ?clear@QAxBase@@UAEXXZ     100b7e78 f   qaxcontainer:qaxcontainer.dll
 0001:000b6e7e       ?setPropertyWritable@QAxBase@@UAEXPBD_N@Z 100b7e7e f   qaxcontainer:qaxcontainer.dll
 0001:000b6e84       ?propertyWritable@QAxBase@@UBE_NPBD@Z 100b7e84 f   qaxcontainer:qaxcontainer.dll
 0001:000b6e8a       ?qt_property@QAxBase@@UAE_NHHPAVQVariant@@@Z 100b7e8a f   qaxcontainer:qaxcontainer.dll
 0001:000b6e90       ?qt_invoke@QAxBase@@UAE_NHPAUQUObject@@@Z 100b7e90 f   qaxcontainer:qaxcontainer.dll
 0001:000b6e96       ?metaObject@QAxBase@@UBEPAVQMetaObject@@XZ 100b7e96 f   qaxcontainer:qaxcontainer.dll
 0001:000b6e9c       ??0QAxBase@@QAE@PAUIUnknown@@@Z 100b7e9c f   qaxcontainer:qaxcontainer.dll
 0001:000b6ea2       ??1QAxBase@@UAE@XZ         100b7ea2 f   qaxcontainer:qaxcontainer.dll
 0001:000b6ea8       ?parentMetaObject@QAxWidget@@EBEPAVQMetaObject@@XZ 100b7ea8 f   qaxcontainer:qaxcontainer.dll
 0001:000b6eae       ?initialize@QAxWidget@@MAE_NPAPAUIUnknown@@@Z 100b7eae f   qaxcontainer:qaxcontainer.dll
 0001:000b6eb4       ?clear@QAxWidget@@UAEXXZ   100b7eb4 f   qaxcontainer:qaxcontainer.dll
 0001:000b6eba       ?createHostWindow@QAxWidget@@MAE_N_N@Z 100b7eba f   qaxcontainer:qaxcontainer.dll
 0001:000b6ec0       ?windowActivationChange@QAxWidget@@MAEX_N@Z 100b7ec0 f   qaxcontainer:qaxcontainer.dll
 0001:000b6ec6       ?fontChange@QAxWidget@@MAEXABVQFont@@@Z 100b7ec6 f   qaxcontainer:qaxcontainer.dll
 0001:000b6ecc       ?paletteChange@QAxWidget@@MAEXABVQPalette@@@Z 100b7ecc f   qaxcontainer:qaxcontainer.dll
 0001:000b6ed2       ?enabledChange@QAxWidget@@MAEX_N@Z 100b7ed2 f   qaxcontainer:qaxcontainer.dll
 0001:000b6ed8       ?resizeEvent@QAxWidget@@MAEXPAVQResizeEvent@@@Z 100b7ed8 f   qaxcontainer:qaxcontainer.dll
 0001:000b6ede       ?minimumSizeHint@QAxWidget@@UBE?AVQSize@@XZ 100b7ede f   qaxcontainer:qaxcontainer.dll
 0001:000b6ee4       ?sizeHint@QAxWidget@@UBE?AVQSize@@XZ 100b7ee4 f   qaxcontainer:qaxcontainer.dll
 0001:000b6eea       ?qt_property@QAxWidget@@UAE_NHHPAVQVariant@@@Z 100b7eea f   qaxcontainer:qaxcontainer.dll
 0001:000b6ef0       ?qt_emit@QAxWidget@@UAE_NHPAUQUObject@@@Z 100b7ef0 f   qaxcontainer:qaxcontainer.dll
 0001:000b6ef6       ?qt_invoke@QAxWidget@@UAE_NHPAUQUObject@@@Z 100b7ef6 f   qaxcontainer:qaxcontainer.dll
 0001:000b6efc       ?qt_cast@QAxWidget@@UAEPAXPBD@Z 100b7efc f   qaxcontainer:qaxcontainer.dll
 0001:000b6f02       ?className@QAxWidget@@UBEPBDXZ 100b7f02 f   qaxcontainer:qaxcontainer.dll
 0001:000b6f08       ?metaObject@QAxWidget@@UBEPAVQMetaObject@@XZ 100b7f08 f   qaxcontainer:qaxcontainer.dll
 0001:000b6f0e       ??0QAxWidget@@QAE@PAVQWidget@@PBDI@Z 100b7f0e f   qaxcontainer:qaxcontainer.dll
 0001:000b6f14       ??1QAxWidget@@UAE@XZ       100b7f14 f   qaxcontainer:qaxcontainer.dll
 0001:000b6f1a       ?dynamicCall@QAxBase@@QAE?AVQVariant@@ABVQCString@@ABV2@1111111@Z 100b7f1a f   qaxcontainer:qaxcontainer.dll
 0001:000b6f20       ?setControl@QAxBase@@QAE_NABVQString@@@Z 100b7f20 f   qaxcontainer:qaxcontainer.dll
 0001:000b6f30       ??0decodeCaptionString@@QAE@PBD@Z 100b7f30 f   decodecaptionstring:decodecaptionstring.obj
 0001:000b7060       ??1decodeCaptionString@@QAE@XZ 100b8060 f   decodecaptionstring:decodecaptionstring.obj
 0001:000b7080       ??0decodeBNCSString@@QAE@PBDD@Z 100b8080 f   decodecaptionstring:decodeBNCSString.obj
 0001:000b71d0       ??_GdecodeBNCSString@@UAEPAXI@Z 100b81d0 f i decodecaptionstring:decodeBNCSString.obj
 0001:000b71d0       ??_EdecodeBNCSString@@UAEPAXI@Z 100b81d0 f i decodecaptionstring:decodeBNCSString.obj
 0001:000b71f0       ??1decodeBNCSString@@UAE@XZ 100b81f0 f   decodecaptionstring:decodeBNCSString.obj
 0001:000b7210       ?ccTimerCallback@bncs_client_runtime@@MAEXH@Z 100b8210 f   dcw:dcw.dll
 0001:000b7216       ?contextMenuEvent@bncs_client_runtime@@UAEXPAVQContextMenuEvent@@@Z 100b8216 f   dcw:dcw.dll
 0001:000b721c       ?mouseReleaseEvent@bncs_client_runtime@@UAEXPAVQMouseEvent@@@Z 100b821c f   dcw:dcw.dll
 0001:000b7222       ?mousePressEvent@bncs_client_runtime@@UAEXPAVQMouseEvent@@@Z 100b8222 f   dcw:dcw.dll
 0001:000b7228       ?setCaption@bncs_client_runtime@@UAEXABVQString@@@Z 100b8228 f   dcw:dcw.dll
 0001:000b722e       ??1dCW@@UAE@XZ             100b822e f   dcw:dcw.dll
 0001:000b7234       ?create@dCW@@QAEPAVQWidget@@ABVQString@@PAVQObject@@PAV2@PBD_N4NN44@Z 100b8234 f   dcw:dcw.dll
 0001:000b723a       ??0dCW@@QAE@XZ             100b823a f   dcw:dcw.dll
 0001:000b7240       ?isDesignTime@dCW@@SA_NXZ  100b8240 f   dcw:dcw.dll
 0001:000b7246       ?qt_cast@bncs_client_runtime@@UAEPAXPBD@Z 100b8246 f   dcw:dcw.dll
 0001:000b724c       ?qt_invoke@bncs_client_runtime@@UAE_NHPAUQUObject@@@Z 100b824c f   dcw:dcw.dll
 0001:000b7252       ?qt_emit@bncs_client_runtime@@UAE_NHPAUQUObject@@@Z 100b8252 f   dcw:dcw.dll
 0001:000b7258       ?qt_property@bncs_client_runtime@@UAE_NHHPAVQVariant@@@Z 100b8258 f   dcw:dcw.dll
 0001:000b725e       ?paintEvent@bncs_client_runtime@@UAEXPAVQPaintEvent@@@Z 100b825e f   dcw:dcw.dll
 0001:000b7264       ?className@bncs_client_runtime@@UBEPBDXZ 100b8264 f   dcw:dcw.dll
 0001:000b726a       ?metaObject@bncs_client_runtime@@UBEPAVQMetaObject@@XZ 100b826a f   dcw:dcw.dll
 0001:000b7270       ?createWidget@dCW@@QAEPAVQWidget@@ABVQString@@PAV2@0HHHH@Z 100b8270 f   dcw:dcw.dll
 0001:000b7276       ?connectionList@dCW@@QAE?AVsignalConnectionRefList@@XZ 100b8276 f   dcw:dcw.dll
 0001:000b7280       ??0cBncsVersion@@QAE@PBD@Z 100b8280 f   BncsVersionInfo:cBncsVersion.obj
 0001:000b7790       ??_GcBncsVersion@@UAEPAXI@Z 100b8790 f i BncsVersionInfo:cBncsVersion.obj
 0001:000b7790       ??_EcBncsVersion@@UAEPAXI@Z 100b8790 f i BncsVersionInfo:cBncsVersion.obj
 0001:000b77b0       ??1cBncsVersion@@UAE@XZ    100b87b0 f   BncsVersionInfo:cBncsVersion.obj
 0001:000b7890       ?cccConfigChangeMessage@IccClientCallback@@MAEXABV?$basic_string@DU?$char_traits@D@std@@V?$allocator@D@2@@std@@@Z 100b8890 f   bncs_shim_loader:bncs_shim_loader.dll
 0001:000b7896       ?cccSerialNumberError@IccClientCallback@@MAEXHH@Z 100b8896 f   bncs_shim_loader:bncs_shim_loader.dll
 0001:000b789c       ?cccPollError@IccClientCallback@@MAEXHH@Z 100b889c f   bncs_shim_loader:bncs_shim_loader.dll
 0001:000b78a2       ?cccDeviceMessage@IccClientCallback@@MAEXHHABV?$basic_string@DU?$char_traits@D@std@@V?$allocator@D@2@@std@@H@Z 100b88a2 f   bncs_shim_loader:bncs_shim_loader.dll
 0001:000b78a8       ?cccDeviceMode@IccClientCallback@@MAEXHHW4redundancyState@cc@@@Z 100b88a8 f   bncs_shim_loader:bncs_shim_loader.dll
 0001:000b78ae       ?cccDisconnected@IccClientCallback@@MAEXXZ 100b88ae f   bncs_shim_loader:bncs_shim_loader.dll
 0001:000b78b4       ?cccConnected@IccClientCallback@@MAEXXZ 100b88b4 f   bncs_shim_loader:bncs_shim_loader.dll
 0001:000b78ba       ?cccDatabaseChange@IccClientCallback@@MAEXHHH@Z 100b88ba f   bncs_shim_loader:bncs_shim_loader.dll
 0001:000b78c0       ?cccGpiRevertive@IccClientCallback@@MAEXHH_N@Z 100b88c0 f   bncs_shim_loader:bncs_shim_loader.dll
 0001:000b78c6       ?cccRtrRevertive@IccClientCallback@@MAEXHHH@Z 100b88c6 f   bncs_shim_loader:bncs_shim_loader.dll
 0001:000b78cc       ?cccInfoRevertive@IccClientCallback@@MAEXHHABV?$basic_string@DU?$char_traits@D@std@@V?$allocator@D@2@@std@@@Z 100b88cc f   bncs_shim_loader:bncs_shim_loader.dll
 0001:000b78d2       ??3@YAXPAX@Z               100b88d2 f   msvcprt:delop_s.obj
 0001:000b78de       ??Hstd@@YA?AV?$basic_string@DU?$char_traits@D@std@@V?$allocator@D@2@@0@PBDABV10@@Z 100b88de f   msvcprt:MSVCP60.dll
 0001:000b78e4       __purecall                 100b88e4 f   MSVCRT:MSVCRT.dll
 0001:000b78ea       ??_Gtype_info@@UAEPAXI@Z   100b88ea f i MSVCRT:ti_inst.obj
 0001:000b78ea       ??_Etype_info@@UAEPAXI@Z   100b88ea f i MSVCRT:ti_inst.obj
 0001:000b7906       ??_M@YGXPAXIHP6EX0@Z@Z     100b8906 f   MSVCRT:ehvecdtr.obj
 0001:000b7986       ?__ArrayUnwind@@YGXPAXIHP6EX0@Z@Z 100b8986 f   MSVCRT:ehvecdtr.obj
 0001:000b79fa       ___CxxFrameHandler         100b89fa f   MSVCRT:MSVCRT.dll
 0001:000b7a00       __EH_prolog                100b8a00 f   MSVCRT:ehprolog.obj
 0001:000b7a20       _memset                    100b8a20 f   MSVCRT:MSVCRT.dll
 0001:000b7a26       __onexit                   100b8a26 f   MSVCRT:atonexit.obj
 0001:000b7a52       _atexit                    100b8a52 f   MSVCRT:atonexit.obj
 0001:000b7a64       ??2@YAPAXI@Z               100b8a64 f   MSVCRT:MSVCRT.dll
 0001:000b7a6a       _strcmp                    100b8a6a f   MSVCRT:MSVCRT.dll
 0001:000b7a70       __CxxThrowException@8      100b8a70 f   MSVCRT:MSVCRT.dll
 0001:000b7a76       __ftol                     100b8a76 f   MSVCRT:MSVCRT.dll
 0001:000b7a7c       _strlen                    100b8a7c f   MSVCRT:MSVCRT.dll
 0001:000b7a82       _free                      100b8a82 f   MSVCRT:MSVCRT.dll
 0001:000b7a88       _malloc                    100b8a88 f   MSVCRT:MSVCRT.dll
 0001:000b7a8e       _strcpy                    100b8a8e f   MSVCRT:MSVCRT.dll
 0001:000b7a94       _strcat                    100b8a94 f   MSVCRT:MSVCRT.dll
 0001:000b7a9a       ??_L@YGXPAXIHP6EX0@Z1@Z    100b8a9a f   MSVCRT:ehvecctr.obj
 0001:000b7b1c       _memcpy                    100b8b1c f   MSVCRT:MSVCRT.dll
 0001:000b7b22       _sin                       100b8b22 f   MSVCRT:MSVCRT.dll
 0001:000b7b28       _cos                       100b8b28 f   MSVCRT:MSVCRT.dll
 0001:000b7b2e       _abs                       100b8b2e f   MSVCRT:MSVCRT.dll
 0001:000b7b40       __chkstk                   100b8b40 f   MSVCRT:chkstk.obj
 0001:000b7b40       __alloca_probe             100b8b40 f   MSVCRT:chkstk.obj
 0001:000b7b6f       __CRT_INIT@12              100b8b6f f   MSVCRT:crtdll.obj
 0001:000b7c1a       __DllMainCRTStartup@12     100b8c1a f   MSVCRT:crtdll.obj
 0001:000b7cb8       _strpbrk                   100b8cb8 f   MSVCRT:MSVCRT.dll
 0001:000b7cbe       ??1type_info@@UAE@XZ       100b8cbe f   MSVCRT:MSVCRT.dll
 0001:000b7cc4       __except_handler3          100b8cc4 f   MSVCRT:MSVCRT.dll
 0001:000b7cca       ?terminate@@YAXXZ          100b8cca f   MSVCRT:MSVCRT.dll
 0001:000b7cd0       ___dllonexit               100b8cd0 f   MSVCRT:MSVCRT.dll
 0001:000b7cd6       __initterm                 100b8cd6 f   MSVCRT:MSVCRT.dll
 0001:000b7ce0       _VerQueryValueA@16         100b8ce0 f   version:VERSION.dll
 0001:000b7ce6       _GetFileVersionInfoA@16    100b8ce6 f   version:VERSION.dll
 0001:000b7cec       _GetFileVersionInfoSizeA@8 100b8cec f   version:VERSION.dll
 0001:000b7cf2       ?afterSeek@QSqlCursor@@MAEXXZ 100b8cf2 f   qt-mt323:qt-mt323.dll
 0001:000b7cf8       ?beforeSeek@QSqlQuery@@MAEXXZ 100b8cf8 f   qt-mt323:qt-mt323.dll
 0001:000b7cfe       ?last@QSqlQuery@@UAE_NXZ   100b8cfe f   qt-mt323:qt-mt323.dll
 0001:000b7d04       ?first@QSqlQuery@@UAE_NXZ  100b8d04 f   qt-mt323:qt-mt323.dll
 0001:000b7d0a       ?prev@QSqlQuery@@UAE_NXZ   100b8d0a f   qt-mt323:qt-mt323.dll
 0001:000b7d10       ?seek@QSqlQuery@@UAE_NH_N@Z 100b8d10 f   qt-mt323:qt-mt323.dll
 0001:000b7d16       ?exec@QSqlCursor@@MAE_NABVQString@@@Z 100b8d16 f   qt-mt323:qt-mt323.dll
 0001:000b7d1c       ?calculateField@QSqlCursor@@MAE?AVQVariant@@ABVQString@@@Z 100b8d1c f   qt-mt323:qt-mt323.dll
 0001:000b7d22       ?toString@QSqlCursor@@MBE?AVQString@@ABV2@PAVQSqlField@@0@Z 100b8d22 f   qt-mt323:qt-mt323.dll
 0001:000b7d28       ?toString@QSqlCursor@@MBE?AVQString@@PAVQSqlRecord@@ABV2@11@Z 100b8d28 f   qt-mt323:qt-mt323.dll
 0001:000b7d2e       ?toString@QSqlCursor@@MBE?AVQString@@ABVQSqlIndex@@PAVQSqlRecord@@ABV2@22@Z 100b8d2e f   qt-mt323:qt-mt323.dll
 0001:000b7d34       ?setName@QSqlCursor@@UAEXABVQString@@_N@Z 100b8d34 f   qt-mt323:qt-mt323.dll
 0001:000b7d3a       ?setFilter@QSqlCursor@@UAEXABVQString@@@Z 100b8d3a f   qt-mt323:qt-mt323.dll
 0001:000b7d40       ?setSort@QSqlCursor@@UAEXABVQSqlIndex@@@Z 100b8d40 f   qt-mt323:qt-mt323.dll
 0001:000b7d46       ?select@QSqlCursor@@UAE_NABVQString@@ABVQSqlIndex@@@Z 100b8d46 f   qt-mt323:qt-mt323.dll
 0001:000b7d4c       ?setTrimmed@QSqlCursor@@UAEXABVQString@@_N@Z 100b8d4c f   qt-mt323:qt-mt323.dll
 0001:000b7d52       ?setCalculated@QSqlCursor@@UAEXABVQString@@_N@Z 100b8d52 f   qt-mt323:qt-mt323.dll
 0001:000b7d58       ?setMode@QSqlCursor@@UAEXH@Z 100b8d58 f   qt-mt323:qt-mt323.dll
 0001:000b7d5e       ?del@QSqlCursor@@UAEH_N@Z  100b8d5e f   qt-mt323:qt-mt323.dll
 0001:000b7d64       ?del@QSqlCursor@@MAEHABVQString@@_N@Z 100b8d64 f   qt-mt323:qt-mt323.dll
 0001:000b7d6a       ?update@QSqlCursor@@UAEH_N@Z 100b8d6a f   qt-mt323:qt-mt323.dll
 0001:000b7d70       ?update@QSqlCursor@@MAEHABVQString@@_N@Z 100b8d70 f   qt-mt323:qt-mt323.dll
 0001:000b7d76       ?primeDelete@QSqlCursor@@UAEPAVQSqlRecord@@XZ 100b8d76 f   qt-mt323:qt-mt323.dll
 0001:000b7d7c       ?primeUpdate@QSqlCursor@@UAEPAVQSqlRecord@@XZ 100b8d7c f   qt-mt323:qt-mt323.dll
 0001:000b7d82       ?primeInsert@QSqlCursor@@UAEPAVQSqlRecord@@XZ 100b8d82 f   qt-mt323:qt-mt323.dll
 0001:000b7d88       ?editBuffer@QSqlCursor@@UAEPAVQSqlRecord@@_N@Z 100b8d88 f   qt-mt323:qt-mt323.dll
 0001:000b7d8e       ?insert@QSqlCursor@@UAEXHABVQSqlFieldInfo@@@Z 100b8d8e f   qt-mt323:qt-mt323.dll
 0001:000b7d94       ?insert@QSqlCursor@@UAEH_N@Z 100b8d94 f   qt-mt323:qt-mt323.dll
 0001:000b7d9a       ?append@QSqlCursor@@UAEXABVQSqlFieldInfo@@@Z 100b8d9a f   qt-mt323:qt-mt323.dll
 0001:000b7da0       ?setPrimaryIndex@QSqlCursor@@UAEXABVQSqlIndex@@@Z 100b8da0 f   qt-mt323:qt-mt323.dll
 0001:000b7da6       ?index@QSqlCursor@@UBE?AVQSqlIndex@@ABVQStringList@@@Z 100b8da6 f   qt-mt323:qt-mt323.dll
 0001:000b7dac       ?primaryIndex@QSqlCursor@@UBE?AVQSqlIndex@@_N@Z 100b8dac f   qt-mt323:qt-mt323.dll
 0001:000b7db2       ?toStringList@QSqlRecord@@UBE?AVQStringList@@ABVQString@@@Z 100b8db2 f   qt-mt323:qt-mt323.dll
 0001:000b7db8       ?toString@QSqlCursor@@UBE?AVQString@@ABV2@0@Z 100b8db8 f   qt-mt323:qt-mt323.dll
 0001:000b7dbe       ?clearValues@QSqlRecord@@UAEX_N@Z 100b8dbe f   qt-mt323:qt-mt323.dll
 0001:000b7dc4       ?clear@QSqlCursor@@UAEXXZ  100b8dc4 f   qt-mt323:qt-mt323.dll
 0001:000b7dca       ?remove@QSqlCursor@@UAEXH@Z 100b8dca f   qt-mt323:qt-mt323.dll
 0001:000b7dd0       ?insert@QSqlCursor@@EAEXHABVQSqlField@@@Z 100b8dd0 f   qt-mt323:qt-mt323.dll
 0001:000b7dd6       ?append@QSqlCursor@@EAEXABVQSqlField@@@Z 100b8dd6 f   qt-mt323:qt-mt323.dll
 0001:000b7ddc       ?setNull@QSqlRecord@@UAEXH@Z 100b8ddc f   qt-mt323:qt-mt323.dll
 0001:000b7de2       ?setNull@QSqlRecord@@UAEXABVQString@@@Z 100b8de2 f   qt-mt323:qt-mt323.dll
 0001:000b7de8       ?setGenerated@QSqlCursor@@UAEXABVQString@@_N@Z 100b8de8 f   qt-mt323:qt-mt323.dll
 0001:000b7dee       ?setGenerated@QSqlCursor@@UAEXH_N@Z 100b8dee f   qt-mt323:qt-mt323.dll
 0001:000b7df4       ?setValue@QSqlCursor@@UAEXHABVQVariant@@@Z 100b8df4 f   qt-mt323:qt-mt323.dll
 0001:000b7dfa       ?setValue@QSqlCursor@@UAEXABVQString@@ABVQVariant@@@Z 100b8dfa f   qt-mt323:qt-mt323.dll
 0001:000b7e00       ?value@QSqlCursor@@UBE?AVQVariant@@H@Z 100b8e00 f   qt-mt323:qt-mt323.dll
 0001:000b7e06       ?value@QSqlCursor@@UBE?AVQVariant@@ABVQString@@@Z 100b8e06 f   qt-mt323:qt-mt323.dll
 0001:000b7e0c       ?drawContents@QPopupMenu@@MAEXPAVQPainter@@@Z 100b8e0c f   qt-mt323:qt-mt323.dll
 0001:000b7e12       ?paintEvent@QPopupMenu@@MAEXPAVQPaintEvent@@@Z 100b8e12 f   qt-mt323:qt-mt323.dll
 0001:000b7e18       ?className@QPopupMenu@@UBEPBDXZ 100b8e18 f   qt-mt323:qt-mt323.dll
 0001:000b7e1e       ?metaObject@QPopupMenu@@UBEPAVQMetaObject@@XZ 100b8e1e f   qt-mt323:qt-mt323.dll
 0001:000b7e24       ?qt_property@QTextView@@UAE_NHHPAVQVariant@@@Z 100b8e24 f   qt-mt323:qt-mt323.dll
 0001:000b7e2a       ?qt_emit@QTextView@@UAE_NHPAUQUObject@@@Z 100b8e2a f   qt-mt323:qt-mt323.dll
 0001:000b7e30       ?qt_invoke@QTextView@@UAE_NHPAUQUObject@@@Z 100b8e30 f   qt-mt323:qt-mt323.dll
 0001:000b7e36       ?qt_cast@QTextView@@UAEPAXPBD@Z 100b8e36 f   qt-mt323:qt-mt323.dll
 0001:000b7e3c       ?className@QTextView@@UBEPBDXZ 100b8e3c f   qt-mt323:qt-mt323.dll
 0001:000b7e42       ?metaObject@QTextView@@UBEPAVQMetaObject@@XZ 100b8e42 f   qt-mt323:qt-mt323.dll
 0001:000b7e48       ?end@QMultiLineEdit@@MAEX_N@Z 100b8e48 f   qt-mt323:qt-mt323.dll
 0001:000b7e4e       ?home@QMultiLineEdit@@MAEX_N@Z 100b8e4e f   qt-mt323:qt-mt323.dll
 0001:000b7e54       ?backspace@QMultiLineEdit@@MAEXXZ 100b8e54 f   qt-mt323:qt-mt323.dll
 0001:000b7e5a       ?cursorDown@QMultiLineEdit@@MAEX_N@Z 100b8e5a f   qt-mt323:qt-mt323.dll
 0001:000b7e60       ?cursorUp@QMultiLineEdit@@MAEX_N@Z 100b8e60 f   qt-mt323:qt-mt323.dll
 0001:000b7e66       ?cursorRight@QMultiLineEdit@@MAEX_N0@Z 100b8e66 f   qt-mt323:qt-mt323.dll
 0001:000b7e6c       ?cursorLeft@QMultiLineEdit@@MAEX_N0@Z 100b8e6c f   qt-mt323:qt-mt323.dll
 0001:000b7e72       ?pageDown@QMultiLineEdit@@MAEX_N@Z 100b8e72 f   qt-mt323:qt-mt323.dll
 0001:000b7e78       ?pageUp@QMultiLineEdit@@MAEX_N@Z 100b8e78 f   qt-mt323:qt-mt323.dll
 0001:000b7e7e       ?killLine@QMultiLineEdit@@MAEXXZ 100b8e7e f   qt-mt323:qt-mt323.dll
 0001:000b7e84       ?newLine@QMultiLineEdit@@MAEXXZ 100b8e84 f   qt-mt323:qt-mt323.dll
 0001:000b7e8a       ?insertAndMark@QMultiLineEdit@@MAEXABVQString@@_N@Z 100b8e8a f   qt-mt323:qt-mt323.dll
 0001:000b7e90       ?setAutoUpdate@QMultiLineEdit@@UAEX_N@Z 100b8e90 f   qt-mt323:qt-mt323.dll
 0001:000b7e96       ?setCursorPosition@QMultiLineEdit@@UAEXHH_N@Z 100b8e96 f   qt-mt323:qt-mt323.dll
 0001:000b7e9c       ?removeLine@QMultiLineEdit@@UAEXH@Z 100b8e9c f   qt-mt323:qt-mt323.dll
 0001:000b7ea2       ?insertAt@QMultiLineEdit@@UAEXABVQString@@HH_N@Z 100b8ea2 f   qt-mt323:qt-mt323.dll
 0001:000b7ea8       ?insertLine@QMultiLineEdit@@UAEXABVQString@@H@Z 100b8ea8 f   qt-mt323:qt-mt323.dll
 0001:000b7eae       ?insertAt@QMultiLineEdit@@UAEXABVQString@@HH@Z 100b8eae f   qt-mt323:qt-mt323.dll
 0001:000b7eb4       ?setCursorPosition@QMultiLineEdit@@UAEXHH@Z 100b8eb4 f   qt-mt323:qt-mt323.dll
 0001:000b7eba       ?setAlignment@QMultiLineEdit@@UAEXH@Z 100b8eba f   qt-mt323:qt-mt323.dll
 0001:000b7ec0       ?qt_property@QMultiLineEdit@@UAE_NHHPAVQVariant@@@Z 100b8ec0 f   qt-mt323:qt-mt323.dll
 0001:000b7ec6       ?qt_emit@QMultiLineEdit@@UAE_NHPAUQUObject@@@Z 100b8ec6 f   qt-mt323:qt-mt323.dll
 0001:000b7ecc       ?qt_invoke@QMultiLineEdit@@UAE_NHPAUQUObject@@@Z 100b8ecc f   qt-mt323:qt-mt323.dll
 0001:000b7ed2       ?qt_cast@QMultiLineEdit@@UAEPAXPBD@Z 100b8ed2 f   qt-mt323:qt-mt323.dll
 0001:000b7ed8       ?className@QMultiLineEdit@@UBEPBDXZ 100b8ed8 f   qt-mt323:qt-mt323.dll
 0001:000b7ede       ?metaObject@QMultiLineEdit@@UBEPAVQMetaObject@@XZ 100b8ede f   qt-mt323:qt-mt323.dll
 0001:000b7ee4       ?rangeChange@QDial@@MAEXXZ 100b8ee4 f   qt-mt323:qt-mt323.dll
 0001:000b7eea       ?valueChange@QDial@@MAEXXZ 100b8eea f   qt-mt323:qt-mt323.dll
 0001:000b7ef0       ?repaintScreen@QDial@@MAEXPBVQRect@@@Z 100b8ef0 f   qt-mt323:qt-mt323.dll
 0001:000b7ef6       ?setTracking@QDial@@UAEX_N@Z 100b8ef6 f   qt-mt323:qt-mt323.dll
 0001:000b7efc       ?setWrapping@QDial@@UAEX_N@Z 100b8efc f   qt-mt323:qt-mt323.dll
 0001:000b7f02       ?setNotchesVisible@QDial@@UAEX_N@Z 100b8f02 f   qt-mt323:qt-mt323.dll
 0001:000b7f08       ?setValue@QDial@@UAEXH@Z   100b8f08 f   qt-mt323:qt-mt323.dll
 0001:000b7f0e       ?setNotchTarget@QDial@@UAEXN@Z 100b8f0e f   qt-mt323:qt-mt323.dll
 0001:000b7f14       ?resizeEvent@QDial@@MAEXPAVQResizeEvent@@@Z 100b8f14 f   qt-mt323:qt-mt323.dll
 0001:000b7f1a       ?paintEvent@QDial@@MAEXPAVQPaintEvent@@@Z 100b8f1a f   qt-mt323:qt-mt323.dll
 0001:000b7f20       ?focusOutEvent@QDial@@MAEXPAVQFocusEvent@@@Z 100b8f20 f   qt-mt323:qt-mt323.dll
 0001:000b7f26       ?focusInEvent@QDial@@MAEXPAVQFocusEvent@@@Z 100b8f26 f   qt-mt323:qt-mt323.dll
 0001:000b7f2c       ?keyPressEvent@QDial@@MAEXPAVQKeyEvent@@@Z 100b8f2c f   qt-mt323:qt-mt323.dll
 0001:000b7f32       ?wheelEvent@QDial@@MAEXPAVQWheelEvent@@@Z 100b8f32 f   qt-mt323:qt-mt323.dll
 0001:000b7f38       ?mouseMoveEvent@QDial@@MAEXPAVQMouseEvent@@@Z 100b8f38 f   qt-mt323:qt-mt323.dll
 0001:000b7f3e       ?mouseReleaseEvent@QDial@@MAEXPAVQMouseEvent@@@Z 100b8f3e f   qt-mt323:qt-mt323.dll
 0001:000b7f44       ?mousePressEvent@QDial@@MAEXPAVQMouseEvent@@@Z 100b8f44 f   qt-mt323:qt-mt323.dll
 0001:000b7f4a       ?minimumSizeHint@QDial@@UBE?AVQSize@@XZ 100b8f4a f   qt-mt323:qt-mt323.dll
 0001:000b7f50       ?sizeHint@QDial@@UBE?AVQSize@@XZ 100b8f50 f   qt-mt323:qt-mt323.dll
 0001:000b7f56       ?qt_property@QDial@@UAE_NHHPAVQVariant@@@Z 100b8f56 f   qt-mt323:qt-mt323.dll
 0001:000b7f5c       ?qt_emit@QDial@@UAE_NHPAUQUObject@@@Z 100b8f5c f   qt-mt323:qt-mt323.dll
 0001:000b7f62       ?qt_invoke@QDial@@UAE_NHPAUQUObject@@@Z 100b8f62 f   qt-mt323:qt-mt323.dll
 0001:000b7f68       ?qt_cast@QDial@@UAEPAXPBD@Z 100b8f68 f   qt-mt323:qt-mt323.dll
 0001:000b7f6e       ?className@QDial@@UBEPBDXZ 100b8f6e f   qt-mt323:qt-mt323.dll
 0001:000b7f74       ?metaObject@QDial@@UBEPAVQMetaObject@@XZ 100b8f74 f   qt-mt323:qt-mt323.dll
 0001:000b7f7a       ?className@QListBox@@UBEPBDXZ 100b8f7a f   qt-mt323:qt-mt323.dll
 0001:000b7f80       ?metaObject@QListBox@@UBEPAVQMetaObject@@XZ 100b8f80 f   qt-mt323:qt-mt323.dll
 0001:000b7f86       ?itemRemoved@QToolBox@@MAEXH@Z 100b8f86 f   qt-mt323:qt-mt323.dll
 0001:000b7f8c       ?itemInserted@QToolBox@@MAEXH@Z 100b8f8c f   qt-mt323:qt-mt323.dll
 0001:000b7f92       ?frameChanged@QToolBox@@MAEXXZ 100b8f92 f   qt-mt323:qt-mt323.dll
 0001:000b7f98       ?styleChange@QToolBox@@MAEXAAVQStyle@@@Z 100b8f98 f   qt-mt323:qt-mt323.dll
 0001:000b7f9e       ?showEvent@QToolBox@@MAEXPAVQShowEvent@@@Z 100b8f9e f   qt-mt323:qt-mt323.dll
 0001:000b7fa4       ?qt_property@QToolBox@@UAE_NHHPAVQVariant@@@Z 100b8fa4 f   qt-mt323:qt-mt323.dll
 0001:000b7faa       ?qt_emit@QToolBox@@UAE_NHPAUQUObject@@@Z 100b8faa f   qt-mt323:qt-mt323.dll
 0001:000b7fb0       ?qt_invoke@QToolBox@@UAE_NHPAUQUObject@@@Z 100b8fb0 f   qt-mt323:qt-mt323.dll
 0001:000b7fb6       ?qt_cast@QToolBox@@UAEPAXPBD@Z 100b8fb6 f   qt-mt323:qt-mt323.dll
 0001:000b7fbc       ?className@QToolBox@@UBEPBDXZ 100b8fbc f   qt-mt323:qt-mt323.dll
 0001:000b7fc2       ?metaObject@QToolBox@@UBEPAVQMetaObject@@XZ 100b8fc2 f   qt-mt323:qt-mt323.dll
 0001:000b7fc8       ?setToolTipGroup@QMainWindow@@EAEXPAVQToolTipGroup@@@Z 100b8fc8 f   qt-mt323:qt-mt323.dll
 0001:000b7fce       ?setStatusBar@QMainWindow@@EAEXPAVQStatusBar@@@Z 100b8fce f   qt-mt323:qt-mt323.dll
 0001:000b7fd4       ?setMenuBar@QMainWindow@@EAEXPAVQMenuBar@@@Z 100b8fd4 f   qt-mt323:qt-mt323.dll
 0001:000b7fda       ?showDockMenu@QMainWindow@@MAE_NABVQPoint@@@Z 100b8fda f   qt-mt323:qt-mt323.dll
 0001:000b7fe0       ?setUpLayout@QMainWindow@@MAEXXZ 100b8fe0 f   qt-mt323:qt-mt323.dll
 0001:000b7fe6       ?customize@QMainWindow@@UAEXXZ 100b8fe6 f   qt-mt323:qt-mt323.dll
 0001:000b7fec       ?setAppropriate@QMainWindow@@UAEXPAVQDockWindow@@_N@Z 100b8fec f   qt-mt323:qt-mt323.dll
 0001:000b7ff2       ?whatsThis@QMainWindow@@UAEXXZ 100b8ff2 f   qt-mt323:qt-mt323.dll
 0001:000b7ff8       ?setDockMenuEnabled@QMainWindow@@UAEX_N@Z 100b8ff8 f   qt-mt323:qt-mt323.dll
 0001:000b7ffe       ?setOpaqueMoving@QMainWindow@@UAEX_N@Z 100b8ffe f   qt-mt323:qt-mt323.dll
 0001:000b8004       ?setDockWindowsMovable@QMainWindow@@UAEX_N@Z 100b9004 f   qt-mt323:qt-mt323.dll
 0001:000b800a       ?setUsesTextLabel@QMainWindow@@UAEX_N@Z 100b900a f   qt-mt323:qt-mt323.dll
 0001:000b8010       ?setUsesBigPixmaps@QMainWindow@@UAEX_N@Z 100b9010 f   qt-mt323:qt-mt323.dll
 0001:000b8016       ?setRightJustification@QMainWindow@@UAEX_N@Z 100b9016 f   qt-mt323:qt-mt323.dll
 0001:000b801c       ?isCustomizable@QMainWindow@@UBE_NXZ 100b901c f   qt-mt323:qt-mt323.dll
 0001:000b8022       ?dockingArea@QMainWindow@@UAEPAVQDockArea@@ABVQPoint@@@Z 100b9022 f   qt-mt323:qt-mt323.dll
 0001:000b8028       ?removeDockWindow@QMainWindow@@UAEXPAVQDockWindow@@@Z 100b9028 f   qt-mt323:qt-mt323.dll
 0001:000b802e       ?moveDockWindow@QMainWindow@@UAEXPAVQDockWindow@@W4Dock@Qt@@@Z 100b902e f   qt-mt323:qt-mt323.dll
 0001:000b8034       ?moveDockWindow@QMainWindow@@UAEXPAVQDockWindow@@W4Dock@Qt@@_NHH@Z 100b9034 f   qt-mt323:qt-mt323.dll
 0001:000b803a       ?addDockWindow@QMainWindow@@UAEXPAVQDockWindow@@W4Dock@Qt@@_N@Z 100b903a f   qt-mt323:qt-mt323.dll
 0001:000b8040       ?addDockWindow@QMainWindow@@UAEXPAVQDockWindow@@ABVQString@@W4Dock@Qt@@_N@Z 100b9040 f   qt-mt323:qt-mt323.dll
 0001:000b8046       ?setDockEnabled@QMainWindow@@UAEXW4Dock@Qt@@_N@Z 100b9046 f   qt-mt323:qt-mt323.dll
 0001:000b804c       ?setDockEnabled@QMainWindow@@UAEXPAVQDockWindow@@W4Dock@Qt@@_N@Z 100b904c f   qt-mt323:qt-mt323.dll
 0001:000b8052       ?setCentralWidget@QMainWindow@@UAEXPAVQWidget@@@Z 100b9052 f   qt-mt323:qt-mt323.dll
 0001:000b8058       ?styleChange@QMainWindow@@MAEXAAVQStyle@@@Z 100b9058 f   qt-mt323:qt-mt323.dll
 0001:000b805e       ?paintEvent@QMainWindow@@MAEXPAVQPaintEvent@@@Z 100b905e f   qt-mt323:qt-mt323.dll
 0001:000b8064       ?minimumSizeHint@QMainWindow@@UBE?AVQSize@@XZ 100b9064 f   qt-mt323:qt-mt323.dll
 0001:000b806a       ?sizeHint@QMainWindow@@UBE?AVQSize@@XZ 100b906a f   qt-mt323:qt-mt323.dll
 0001:000b8070       ?hide@QMainWindow@@UAEXXZ  100b9070 f   qt-mt323:qt-mt323.dll
 0001:000b8076       ?show@QMainWindow@@UAEXXZ  100b9076 f   qt-mt323:qt-mt323.dll
 0001:000b807c       ?childEvent@QMainWindow@@MAEXPAVQChildEvent@@@Z 100b907c f   qt-mt323:qt-mt323.dll
 0001:000b8082       ?eventFilter@QMainWindow@@UAE_NPAVQObject@@PAVQEvent@@@Z 100b9082 f   qt-mt323:qt-mt323.dll
 0001:000b8088       ?event@QMainWindow@@MAE_NPAVQEvent@@@Z 100b9088 f   qt-mt323:qt-mt323.dll
 0001:000b808e       ?qt_property@QMainWindow@@UAE_NHHPAVQVariant@@@Z 100b908e f   qt-mt323:qt-mt323.dll
 0001:000b8094       ?qt_emit@QMainWindow@@UAE_NHPAUQUObject@@@Z 100b9094 f   qt-mt323:qt-mt323.dll
 0001:000b809a       ?qt_invoke@QMainWindow@@UAE_NHPAUQUObject@@@Z 100b909a f   qt-mt323:qt-mt323.dll
 0001:000b80a0       ?qt_cast@QMainWindow@@UAEPAXPBD@Z 100b90a0 f   qt-mt323:qt-mt323.dll
 0001:000b80a6       ?className@QMainWindow@@UBEPBDXZ 100b90a6 f   qt-mt323:qt-mt323.dll
 0001:000b80ac       ?metaObject@QMainWindow@@UBEPAVQMetaObject@@XZ 100b90ac f   qt-mt323:qt-mt323.dll
 0001:000b80b2       ?reload@QTextBrowser@@UAEXXZ 100b90b2 f   qt-mt323:qt-mt323.dll
 0001:000b80b8       ?home@QTextBrowser@@UAEXXZ 100b90b8 f   qt-mt323:qt-mt323.dll
 0001:000b80be       ?forward@QTextBrowser@@UAEXXZ 100b90be f   qt-mt323:qt-mt323.dll
 0001:000b80c4       ?backward@QTextBrowser@@UAEXXZ 100b90c4 f   qt-mt323:qt-mt323.dll
 0001:000b80ca       ?setSource@QTextBrowser@@UAEXABVQString@@@Z 100b90ca f   qt-mt323:qt-mt323.dll
 0001:000b80d0       ?emitLinkClicked@QTextBrowser@@EAEXABVQString@@@Z 100b90d0 f   qt-mt323:qt-mt323.dll
 0001:000b80d6       ?emitHighlighted@QTextBrowser@@EAEXABVQString@@@Z 100b90d6 f   qt-mt323:qt-mt323.dll
 0001:000b80dc       ?linksEnabled@QTextBrowser@@EBE_NXZ 100b90dc f   qt-mt323:qt-mt323.dll
 0001:000b80e2       ?setText@QTextBrowser@@UAEXABVQString@@0@Z 100b90e2 f   qt-mt323:qt-mt323.dll
 0001:000b80e8       ?keyPressEvent@QTextBrowser@@MAEXPAVQKeyEvent@@@Z 100b90e8 f   qt-mt323:qt-mt323.dll
 0001:000b80ee       ?qt_property@QTextBrowser@@UAE_NHHPAVQVariant@@@Z 100b90ee f   qt-mt323:qt-mt323.dll
 0001:000b80f4       ?qt_emit@QTextBrowser@@UAE_NHPAUQUObject@@@Z 100b90f4 f   qt-mt323:qt-mt323.dll
 0001:000b80fa       ?qt_invoke@QTextBrowser@@UAE_NHPAUQUObject@@@Z 100b90fa f   qt-mt323:qt-mt323.dll
 0001:000b8100       ?qt_cast@QTextBrowser@@UAEPAXPBD@Z 100b9100 f   qt-mt323:qt-mt323.dll
 0001:000b8106       ?className@QTextBrowser@@UBEPBDXZ 100b9106 f   qt-mt323:qt-mt323.dll
 0001:000b810c       ?metaObject@QTextBrowser@@UBEPAVQMetaObject@@XZ 100b910c f   qt-mt323:qt-mt323.dll
 0001:000b8112       ?setAutoAdvance@QDateTimeEdit@@UAEX_N@Z 100b9112 f   qt-mt323:qt-mt323.dll
 0001:000b8118       ?setDateTime@QDateTimeEdit@@UAEXABVQDateTime@@@Z 100b9118 f   qt-mt323:qt-mt323.dll
 0001:000b811e       ?resizeEvent@QDateTimeEdit@@MAEXPAVQResizeEvent@@@Z 100b911e f   qt-mt323:qt-mt323.dll
 0001:000b8124       ?minimumSizeHint@QDateTimeEdit@@UBE?AVQSize@@XZ 100b9124 f   qt-mt323:qt-mt323.dll
 0001:000b812a       ?sizeHint@QDateTimeEdit@@UBE?AVQSize@@XZ 100b912a f   qt-mt323:qt-mt323.dll
 0001:000b8130       ?qt_property@QDateTimeEdit@@UAE_NHHPAVQVariant@@@Z 100b9130 f   qt-mt323:qt-mt323.dll
 0001:000b8136       ?qt_emit@QDateTimeEdit@@UAE_NHPAUQUObject@@@Z 100b9136 f   qt-mt323:qt-mt323.dll
 0001:000b813c       ?qt_invoke@QDateTimeEdit@@UAE_NHPAUQUObject@@@Z 100b913c f   qt-mt323:qt-mt323.dll
 0001:000b8142       ?qt_cast@QDateTimeEdit@@UAEPAXPBD@Z 100b9142 f   qt-mt323:qt-mt323.dll
 0001:000b8148       ?className@QDateTimeEdit@@UBEPBDXZ 100b9148 f   qt-mt323:qt-mt323.dll
 0001:000b814e       ?metaObject@QDateTimeEdit@@UBEPAVQMetaObject@@XZ 100b914e f   qt-mt323:qt-mt323.dll
 0001:000b8154       ?setIndicator@QProgressBar@@MAE_NAAVQString@@HH@Z 100b9154 f   qt-mt323:qt-mt323.dll
 0001:000b815a       ?setProgress@QProgressBar@@UAEXH@Z 100b915a f   qt-mt323:qt-mt323.dll
 0001:000b8160       ?setTotalSteps@QProgressBar@@UAEXH@Z 100b9160 f   qt-mt323:qt-mt323.dll
 0001:000b8166       ?drawContents@QProgressBar@@MAEXPAVQPainter@@@Z 100b9166 f   qt-mt323:qt-mt323.dll
 0001:000b816c       ?styleChange@QProgressBar@@MAEXAAVQStyle@@@Z 100b916c f   qt-mt323:qt-mt323.dll
 0001:000b8172       ?minimumSizeHint@QProgressBar@@UBE?AVQSize@@XZ 100b9172 f   qt-mt323:qt-mt323.dll
 0001:000b8178       ?sizeHint@QProgressBar@@UBE?AVQSize@@XZ 100b9178 f   qt-mt323:qt-mt323.dll
 0001:000b817e       ?show@QProgressBar@@UAEXXZ 100b917e f   qt-mt323:qt-mt323.dll
 0001:000b8184       ?qt_property@QProgressBar@@UAE_NHHPAVQVariant@@@Z 100b9184 f   qt-mt323:qt-mt323.dll
 0001:000b818a       ?qt_emit@QProgressBar@@UAE_NHPAUQUObject@@@Z 100b918a f   qt-mt323:qt-mt323.dll
 0001:000b8190       ?qt_invoke@QProgressBar@@UAE_NHPAUQUObject@@@Z 100b9190 f   qt-mt323:qt-mt323.dll
 0001:000b8196       ?qt_cast@QProgressBar@@UAEPAXPBD@Z 100b9196 f   qt-mt323:qt-mt323.dll
 0001:000b819c       ?className@QProgressBar@@UBEPBDXZ 100b919c f   qt-mt323:qt-mt323.dll
 0001:000b81a2       ?metaObject@QProgressBar@@UBEPAVQMetaObject@@XZ 100b91a2 f   qt-mt323:qt-mt323.dll
 0001:000b81a8       ?setRubberband@QSplitter@@MAEXH@Z 100b91a8 f   qt-mt323:qt-mt323.dll
 0001:000b81ae       ?drawSplitter@QSplitter@@MAEXPAVQPainter@@HHHH@Z 100b91ae f   qt-mt323:qt-mt323.dll
 0001:000b81b4       ?setOpaqueResize@QSplitter@@UAEX_N@Z 100b91b4 f   qt-mt323:qt-mt323.dll
 0001:000b81ba       ?setResizeMode@QSplitter@@UAEXPAVQWidget@@W4ResizeMode@1@@Z 100b91ba f   qt-mt323:qt-mt323.dll
 0001:000b81c0       ?setOrientation@QSplitter@@UAEXW4Orientation@Qt@@@Z 100b91c0 f   qt-mt323:qt-mt323.dll
 0001:000b81c6       ?styleChange@QSplitter@@MAEXAAVQStyle@@@Z 100b91c6 f   qt-mt323:qt-mt323.dll
 0001:000b81cc       ?resizeEvent@QSplitter@@MAEXPAVQResizeEvent@@@Z 100b91cc f   qt-mt323:qt-mt323.dll
 0001:000b81d2       ?minimumSizeHint@QSplitter@@UBE?AVQSize@@XZ 100b91d2 f   qt-mt323:qt-mt323.dll
 0001:000b81d8       ?sizeHint@QSplitter@@UBE?AVQSize@@XZ 100b91d8 f   qt-mt323:qt-mt323.dll
 0001:000b81de       ?childEvent@QSplitter@@MAEXPAVQChildEvent@@@Z 100b91de f   qt-mt323:qt-mt323.dll
 0001:000b81e4       ?event@QSplitter@@MAE_NPAVQEvent@@@Z 100b91e4 f   qt-mt323:qt-mt323.dll
 0001:000b81ea       ?qt_property@QSplitter@@UAE_NHHPAVQVariant@@@Z 100b91ea f   qt-mt323:qt-mt323.dll
 0001:000b81f0       ?qt_emit@QSplitter@@UAE_NHPAUQUObject@@@Z 100b91f0 f   qt-mt323:qt-mt323.dll
 0001:000b81f6       ?qt_invoke@QSplitter@@UAE_NHPAUQUObject@@@Z 100b91f6 f   qt-mt323:qt-mt323.dll
 0001:000b81fc       ?qt_cast@QSplitter@@UAEPAXPBD@Z 100b91fc f   qt-mt323:qt-mt323.dll
 0001:000b8202       ?className@QSplitter@@UBEPBDXZ 100b9202 f   qt-mt323:qt-mt323.dll
 0001:000b8208       ?metaObject@QSplitter@@UBEPAVQMetaObject@@XZ 100b9208 f   qt-mt323:qt-mt323.dll
 0001:000b820e       ?stepChange@QScrollBar@@MAEXXZ 100b920e f   qt-mt323:qt-mt323.dll
 0001:000b8214       ?rangeChange@QScrollBar@@MAEXXZ 100b9214 f   qt-mt323:qt-mt323.dll
 0001:000b821a       ?valueChange@QScrollBar@@MAEXXZ 100b921a f   qt-mt323:qt-mt323.dll
 0001:000b8220       ?setTracking@QScrollBar@@UAEX_N@Z 100b9220 f   qt-mt323:qt-mt323.dll
 0001:000b8226       ?setOrientation@QScrollBar@@UAEXW4Orientation@Qt@@@Z 100b9226 f   qt-mt323:qt-mt323.dll
 0001:000b822c       ?styleChange@QScrollBar@@MAEXAAVQStyle@@@Z 100b922c f   qt-mt323:qt-mt323.dll
 0001:000b8232       ?hideEvent@QScrollBar@@MAEXPAVQHideEvent@@@Z 100b9232 f   qt-mt323:qt-mt323.dll
 0001:000b8238       ?contextMenuEvent@QScrollBar@@MAEXPAVQContextMenuEvent@@@Z 100b9238 f   qt-mt323:qt-mt323.dll
 0001:000b823e       ?resizeEvent@QScrollBar@@MAEXPAVQResizeEvent@@@Z 100b923e f   qt-mt323:qt-mt323.dll
 0001:000b8244       ?paintEvent@QScrollBar@@MAEXPAVQPaintEvent@@@Z 100b9244 f   qt-mt323:qt-mt323.dll
 0001:000b824a       ?keyPressEvent@QScrollBar@@MAEXPAVQKeyEvent@@@Z 100b924a f   qt-mt323:qt-mt323.dll
 0001:000b8250       ?wheelEvent@QScrollBar@@MAEXPAVQWheelEvent@@@Z 100b9250 f   qt-mt323:qt-mt323.dll
 0001:000b8256       ?mouseMoveEvent@QScrollBar@@MAEXPAVQMouseEvent@@@Z 100b9256 f   qt-mt323:qt-mt323.dll
 0001:000b825c       ?mouseReleaseEvent@QScrollBar@@MAEXPAVQMouseEvent@@@Z 100b925c f   qt-mt323:qt-mt323.dll
 0001:000b8262       ?mousePressEvent@QScrollBar@@MAEXPAVQMouseEvent@@@Z 100b9262 f   qt-mt323:qt-mt323.dll
 0001:000b8268       ?setSizePolicy@QScrollBar@@UAEXVQSizePolicy@@@Z 100b9268 f   qt-mt323:qt-mt323.dll
 0001:000b826e       ?sizeHint@QScrollBar@@UBE?AVQSize@@XZ 100b926e f   qt-mt323:qt-mt323.dll
 0001:000b8274       ?setPalette@QScrollBar@@UAEXABVQPalette@@@Z 100b9274 f   qt-mt323:qt-mt323.dll
 0001:000b827a       ?qt_property@QScrollBar@@UAE_NHHPAVQVariant@@@Z 100b927a f   qt-mt323:qt-mt323.dll
 0001:000b8280       ?qt_emit@QScrollBar@@UAE_NHPAUQUObject@@@Z 100b9280 f   qt-mt323:qt-mt323.dll
 0001:000b8286       ?qt_invoke@QScrollBar@@UAE_NHPAUQUObject@@@Z 100b9286 f   qt-mt323:qt-mt323.dll
 0001:000b828c       ?qt_cast@QScrollBar@@UAEPAXPBD@Z 100b928c f   qt-mt323:qt-mt323.dll
 0001:000b8292       ?className@QScrollBar@@UBEPBDXZ 100b9292 f   qt-mt323:qt-mt323.dll
 0001:000b8298       ?metaObject@QScrollBar@@UBEPAVQMetaObject@@XZ 100b9298 f   qt-mt323:qt-mt323.dll
 0001:000b829e       ?layOutTitleRow@QWizard@@MAEXPAVQHBoxLayout@@ABVQString@@@Z 100b929e f   qt-mt323:qt-mt323.dll
 0001:000b82a4       ?layOutButtonRow@QWizard@@MAEXPAVQHBoxLayout@@@Z 100b92a4 f   qt-mt323:qt-mt323.dll
 0001:000b82aa       ?help@QWizard@@MAEXXZ      100b92aa f   qt-mt323:qt-mt323.dll
 0001:000b82b0       ?next@QWizard@@MAEXXZ      100b92b0 f   qt-mt323:qt-mt323.dll
 0001:000b82b6       ?back@QWizard@@MAEXXZ      100b92b6 f   qt-mt323:qt-mt323.dll
 0001:000b82bc       ?setFinish@QWizard@@UAEXPAVQWidget@@_N@Z 100b92bc f   qt-mt323:qt-mt323.dll
 0001:000b82c2       ?setHelpEnabled@QWizard@@UAEXPAVQWidget@@_N@Z 100b92c2 f   qt-mt323:qt-mt323.dll
 0001:000b82c8       ?setFinishEnabled@QWizard@@UAEXPAVQWidget@@_N@Z 100b92c8 f   qt-mt323:qt-mt323.dll
 0001:000b82ce       ?setNextEnabled@QWizard@@UAEXPAVQWidget@@_N@Z 100b92ce f   qt-mt323:qt-mt323.dll
 0001:000b82d4       ?setBackEnabled@QWizard@@UAEXPAVQWidget@@_N@Z 100b92d4 f   qt-mt323:qt-mt323.dll
 0001:000b82da       ?setAppropriate@QWizard@@UAEXPAVQWidget@@_N@Z 100b92da f   qt-mt323:qt-mt323.dll
 0001:000b82e0       ?appropriate@QWizard@@UBE_NPAVQWidget@@@Z 100b92e0 f   qt-mt323:qt-mt323.dll
 0001:000b82e6       ?showPage@QWizard@@UAEXPAVQWidget@@@Z 100b92e6 f   qt-mt323:qt-mt323.dll
 0001:000b82ec       ?removePage@QWizard@@UAEXPAVQWidget@@@Z 100b92ec f   qt-mt323:qt-mt323.dll
 0001:000b82f2       ?insertPage@QWizard@@UAEXPAVQWidget@@ABVQString@@H@Z 100b92f2 f   qt-mt323:qt-mt323.dll
 0001:000b82f8       ?addPage@QWizard@@UAEXPAVQWidget@@ABVQString@@@Z 100b92f8 f   qt-mt323:qt-mt323.dll
 0001:000b82fe       ?show@QWizard@@UAEXXZ      100b92fe f   qt-mt323:qt-mt323.dll
 0001:000b8304       ?setFont@QWizard@@UAEXABVQFont@@@Z 100b9304 f   qt-mt323:qt-mt323.dll
 0001:000b830a       ?eventFilter@QWizard@@UAE_NPAVQObject@@PAVQEvent@@@Z 100b930a f   qt-mt323:qt-mt323.dll
 0001:000b8310       ?qt_property@QWizard@@UAE_NHHPAVQVariant@@@Z 100b9310 f   qt-mt323:qt-mt323.dll
 0001:000b8316       ?qt_emit@QWizard@@UAE_NHPAUQUObject@@@Z 100b9316 f   qt-mt323:qt-mt323.dll
 0001:000b831c       ?qt_invoke@QWizard@@UAE_NHPAUQUObject@@@Z 100b931c f   qt-mt323:qt-mt323.dll
 0001:000b8322       ?qt_cast@QWizard@@UAEPAXPBD@Z 100b9322 f   qt-mt323:qt-mt323.dll
 0001:000b8328       ?className@QWizard@@UBEPBDXZ 100b9328 f   qt-mt323:qt-mt323.dll
 0001:000b832e       ?metaObject@QWizard@@UBEPAVQMetaObject@@XZ 100b932e f   qt-mt323:qt-mt323.dll
 0001:000b8334       ?className@QDialog@@UBEPBDXZ 100b9334 f   qt-mt323:qt-mt323.dll
 0001:000b833a       ?metaObject@QDialog@@UBEPAVQMetaObject@@XZ 100b933a f   qt-mt323:qt-mt323.dll
 0001:000b8340       ?frameChanged@QGrid@@MAEXXZ 100b9340 f   qt-mt323:qt-mt323.dll
 0001:000b8346       ?sizeHint@QGrid@@UBE?AVQSize@@XZ 100b9346 f   qt-mt323:qt-mt323.dll
 0001:000b834c       ?qt_property@QGrid@@UAE_NHHPAVQVariant@@@Z 100b934c f   qt-mt323:qt-mt323.dll
 0001:000b8352       ?qt_emit@QGrid@@UAE_NHPAUQUObject@@@Z 100b9352 f   qt-mt323:qt-mt323.dll
 0001:000b8358       ?qt_invoke@QGrid@@UAE_NHPAUQUObject@@@Z 100b9358 f   qt-mt323:qt-mt323.dll
 0001:000b835e       ?qt_cast@QGrid@@UAEPAXPBD@Z 100b935e f   qt-mt323:qt-mt323.dll
 0001:000b8364       ?className@QGrid@@UBEPBDXZ 100b9364 f   qt-mt323:qt-mt323.dll
 0001:000b836a       ?metaObject@QGrid@@UBEPAVQMetaObject@@XZ 100b936a f   qt-mt323:qt-mt323.dll
 0001:000b8370       ?fieldAlignment@QDataTable@@MAEHPBVQSqlField@@@Z 100b9370 f   qt-mt323:qt-mt323.dll
 0001:000b8376       ?paintField@QDataTable@@MAEXPAVQPainter@@PBVQSqlField@@ABVQRect@@_N@Z 100b9376 f   qt-mt323:qt-mt323.dll
 0001:000b837c       ?beginUpdate@QDataTable@@MAEPAVQWidget@@HH_N@Z 100b937c f   qt-mt323:qt-mt323.dll
 0001:000b8382       ?beginInsert@QDataTable@@MAE_NXZ 100b9382 f   qt-mt323:qt-mt323.dll
 0001:000b8388       ?handleError@QDataTable@@MAEXABVQSqlError@@@Z 100b9388 f   qt-mt323:qt-mt323.dll
 0001:000b838e       ?confirmCancel@QDataTable@@MAE?AW4Confirm@QSql@@W4Op@3@@Z 100b938e f   qt-mt323:qt-mt323.dll
 0001:000b8394       ?confirmEdit@QDataTable@@MAE?AW4Confirm@QSql@@W4Op@3@@Z 100b9394 f   qt-mt323:qt-mt323.dll
 0001:000b839a       ?deleteCurrent@QDataTable@@MAE_NXZ 100b939a f   qt-mt323:qt-mt323.dll
 0001:000b83a0       ?updateCurrent@QDataTable@@MAE_NXZ 100b93a0 f   qt-mt323:qt-mt323.dll
