 bncs_log

 Timestamp is 56ddff29 (Mon Mar 07 22:22:33 2016)

 Preferred load address is 10000000

 Start         Length     Name                   Class
 0001:00000000 00034dc8H .text                   CODE
 0001:00034dd0 0000584fH .text$x                 CODE
 0002:00000000 00001538H .idata$5                DATA
 0002:00001538 00004064H .rdata                  DATA
 0002:000055a0 00000044H .rdata$r                DATA
 0002:000055e8 00004dd0H .xdata$x                DATA
 0002:0000a3b8 000000c8H .idata$2                DATA
 0002:0000a480 00000014H .idata$3                DATA
 0002:0000a494 00001538H .idata$4                DATA
 0002:0000b9cc 0000d76aH .idata$6                DATA
 0002:00019140 00000ae2H .edata                  DATA
 0003:00000000 00000004H .CRT$XCA                DATA
 0003:00000004 00000040H .CRT$XCU                DATA
 0003:00000044 00000004H .CRT$XCZ                DATA
 0003:00000048 00000004H .CRT$XIA                DATA
 0003:0000004c 00000004H .CRT$XIZ                DATA
 0003:00000050 00004208H .data                   DATA
 0003:00004258 00000188H .bss                    DATA
 0004:00000000 00000058H .rsrc$01                DATA
 0004:00000060 000004a0H .rsrc$02                DATA

  Address         Publics by Value              Rva+Base     Lib:Object

 0001:00000000       ??0bncs_data_form@@QAE@PAVQWidget@@PBD@Z 10001000 f   bncs_data_form.obj
 0001:00000610       ?metaObject@bncs_data_form@@UBEPAVQMetaObject@@XZ 10001610 f i bncs_data_form.obj
 0001:00000620       ??_Ebncs_data_form@@UAEPAXI@Z 10001620 f i bncs_data_form.obj
 0001:00000620       ??_Gbncs_data_form@@UAEPAXI@Z 10001620 f i bncs_data_form.obj
 0001:00000640       ??_GQTimer@@UAEPAXI@Z      10001640 f i bncs_data_form.obj
 0001:00000640       ??_EQTimer@@UAEPAXI@Z      10001640 f i bncs_data_form.obj
 0001:00000660       ??_EQHBoxLayout@@UAEPAXI@Z 10001660 f i bncs_data_form.obj
 0001:00000660       ??_GQHBoxLayout@@UAEPAXI@Z 10001660 f i bncs_data_form.obj
 0001:00000680       ??_GQPushButton@@UAEPAXI@Z 10001680 f i bncs_data_form.obj
 0001:00000680       ??_EQPushButton@@UAEPAXI@Z 10001680 f i bncs_data_form.obj
 0001:000006a0       ?polish@bncs_data_form@@UAEXXZ 100016a0 f   bncs_data_form.obj
 0001:00000770       ??1bncs_data_form@@UAE@XZ  10001770 f   bncs_data_form.obj
 0001:00000960       ??0FormWidget@@QAE@PAVQWidget@@0PBD@Z 10001960 f   bncs_data_form.obj
 0001:000009a0       ?metaObject@FormWidget@@UBEPAVQMetaObject@@XZ 100019a0 f i bncs_data_form.obj
 0001:000009b0       ??_GFormWidget@@UAEPAXI@Z  100019b0 f i bncs_data_form.obj
 0001:000009b0       ??_EFormWidget@@UAEPAXI@Z  100019b0 f i bncs_data_form.obj
 0001:000009d0       ??1FormWidget@@UAE@XZ      100019d0 f   bncs_data_form.obj
 0001:000009f0       ?setContent@FormWidget@@QAEXABVQString@@@Z 100019f0 f   bncs_data_form.obj
 0001:00000a70       ?getContent@FormWidget@@QBE?AVQString@@XZ 10001a70 f   bncs_data_form.obj
 0001:00000bb0       ?setCaption@bncs_data_form@@UAEXABVQString@@@Z 10001bb0 f   bncs_data_form.obj
 0001:000020d0       ?edit@bncs_data_form@@QAEXPA_N0@Z 100030d0 f   bncs_data_form.obj
 0001:00002b30       ??_GQListViewItem@@UAEPAXI@Z 10003b30 f i bncs_data_form.obj
 0001:00002b30       ??_EQListViewItem@@UAEPAXI@Z 10003b30 f i bncs_data_form.obj
 0001:00002b50       ?defaultvalues@bncs_data_form@@AAEXXZ 10003b50 f   bncs_data_form.obj
 0001:00002bd0       ?applyChanges@bncs_data_form@@QAEXXZ 10003bd0 f   bncs_data_form.obj
 0001:00002c00       ?updateConfig@bncs_data_form@@QAEXXZ 10003c00 f   bncs_data_form.obj
 0001:00002e70       ??_EQSqlForm@@UAEPAXI@Z    10003e70 f i bncs_data_form.obj
 0001:00002e70       ??_GQSqlForm@@UAEPAXI@Z    10003e70 f i bncs_data_form.obj
 0001:00002e90       ?connectDb@bncs_data_form@@QAEXXZ 10003e90 f   bncs_data_form.obj
 0001:00002ef0       ?clearSlaveFields@bncs_data_form@@AAEXXZ 10003ef0 f   bncs_data_form.obj
 0001:00002f20       ?loadData@bncs_data_form@@AAEXXZ 10003f20 f   bncs_data_form.obj
 0001:00003150       ??_EQSqlCursor@@UAEPAXI@Z  10004150 f i bncs_data_form.obj
 0001:00003150       ??_GQSqlCursor@@UAEPAXI@Z  10004150 f i bncs_data_form.obj
 0001:00003170       ?key@?$QMapIterator@VQString@@V1@@@QBEABVQString@@XZ 10004170 f i bncs_data_form.obj
 0001:00003180       ?data@?$QMapIterator@VQString@@V1@@@QAEAAVQString@@XZ 10004180 f i bncs_data_form.obj
 0001:00003190       ??1?$QMap@PAVFormWidget@@VQString@@@@QAE@XZ 10004190 f i bncs_data_form.obj
 0001:00003230       ?begin@?$QMapPrivate@VQString@@V1@@@QAE?AV?$QMapIterator@VQString@@V1@@@XZ 10004230 f i bncs_data_form.obj
 0001:00003230       ?begin@?$QMapPrivate@VQString@@Vstyleentry@@@@QAE?AV?$QMapIterator@VQString@@Vstyleentry@@@@XZ 10004230 f i bncs_data_form.obj
 0001:00003230       ?begin@?$QMapPrivate@HPAVbncs_log_queue@@@@QAE?AV?$QMapIterator@HPAVbncs_log_queue@@@@XZ 10004230 f i bncs_data_form.obj
 0001:00003230       ?begin@?$QMapPrivate@HPAVbncs_log@@@@QAE?AV?$QMapIterator@HPAVbncs_log@@@@XZ 10004230 f i bncs_data_form.obj
 0001:00003240       ??1?$QMapNode@VQString@@V1@@@QAE@XZ 10004240 f i bncs_data_form.obj
 0001:000032c0       ??1?$QMapNode@PAVFormWidget@@VQString@@@@QAE@XZ 100042c0 f i bncs_data_form.obj
 0001:000032e0       ?inc@?$QMapIterator@PAVFormWidget@@VQString@@@@AAEHXZ 100042e0 f i bncs_data_form.obj
 0001:000032e0       ?inc@?$QMapConstIterator@VQString@@Vstyleentry@@@@AAEHXZ 100042e0 f i bncs_data_form.obj
 0001:000032e0       ?inc@?$QMapIterator@VQString@@V1@@@AAEHXZ 100042e0 f i bncs_data_form.obj
 0001:00003320       ?detachInternal@?$QMap@PAVFormWidget@@VQString@@@@AAEXXZ 10004320 f i bncs_data_form.obj
 0001:000034f0       ?clear@?$QMapPrivate@VQString@@V1@@@QAEXXZ 100044f0 f i bncs_data_form.obj
 0001:00003560       ?clear@?$QMapPrivate@PAVFormWidget@@VQString@@@@QAEXXZ 10004560 f i bncs_data_form.obj
 0001:000035d0       ?clear@?$QMapPrivate@VQString@@V1@@@QAEXPAU?$QMapNode@VQString@@V1@@@@Z 100045d0 f i bncs_data_form.obj
 0001:00003610       ?clear@?$QMapPrivate@PAVFormWidget@@VQString@@@@QAEXPAU?$QMapNode@PAVFormWidget@@VQString@@@@@Z 10004610 f i bncs_data_form.obj
 0001:00003650       ?insertSingle@?$QMapPrivate@PAVFormWidget@@VQString@@@@QAE?AV?$QMapIterator@PAVFormWidget@@VQString@@@@ABQAVFormWidget@@@Z 10004650 f i bncs_data_form.obj
 0001:00003710       ?copy@?$QMapPrivate@PAVFormWidget@@VQString@@@@QAEPAU?$QMapNode@PAVFormWidget@@VQString@@@@PAU2@@Z 10004710 f i bncs_data_form.obj
 0001:000037f0       ?insert@?$QMapPrivate@PAVFormWidget@@VQString@@@@QAE?AV?$QMapIterator@PAVFormWidget@@VQString@@@@PAUQMapNodeBase@@0ABQAVFormWidget@@@Z 100047f0 f i bncs_data_form.obj
 0001:000038e0       ??_EQHBoxLayout@@WCI@AEPAXI@Z 100048e0 f i bncs_data_form.obj
 0001:000038f0       ??_Ebncs_data_form@@WCI@AEPAXI@Z 100048f0 f i bncs_data_form.obj
 0001:00003900       ??_EQSqlCursor@@W7AEPAXI@Z 10004900 f i bncs_data_form.obj
 0001:00003910       ?value@QSqlCursor@@W7BE?AVQVariant@@H@Z 10004910 f i bncs_data_form.obj
 0001:00003920       ??_EFormWidget@@WCI@AEPAXI@Z 10004920 f i bncs_data_form.obj
 0001:00003930       ??_EQPushButton@@WCI@AEPAXI@Z 10004930 f i bncs_data_form.obj
 0001:00003940       ??0bncs_data_form_edit@@QAE@PAVQWidget@@PBD_NI@Z 10004940 f   bncs_data_form_editimpl.obj
 0001:00003ac0       ?metaObject@bncs_data_form_edit@@UBEPAVQMetaObject@@XZ 10004ac0 f i bncs_data_form_editimpl.obj
 0001:00003ad0       ??_Gbncs_data_form_edit@@UAEPAXI@Z 10004ad0 f i bncs_data_form_editimpl.obj
 0001:00003ad0       ??_Ebncs_data_form_edit@@UAEPAXI@Z 10004ad0 f i bncs_data_form_editimpl.obj
 0001:00003af0       ??1bncs_data_form_edit@@UAE@XZ 10004af0 f   bncs_data_form_editimpl.obj
 0001:00003bb0       ?addField@bncs_data_form_edit@@QAEXXZ 10004bb0 f   bncs_data_form_editimpl.obj
 0001:00003d00       ?getFields@bncs_data_form_edit@@QAEXXZ 10004d00 f   bncs_data_form_editimpl.obj
 0001:00003f10       ?addFields@bncs_data_form_edit@@QAEXXZ 10004f10 f   bncs_data_form_editimpl.obj
 0001:000042a0       ?delField@bncs_data_form_edit@@QAEXXZ 100052a0 f   bncs_data_form_editimpl.obj
 0001:000042c0       ?itemSelected@bncs_data_form_edit@@QAEXPAVQListViewItem@@ABVQPoint@@H@Z 100052c0 f   bncs_data_form_editimpl.obj
 0001:00004300       ?help@bncs_data_form_edit@@QAEXXZ 10005300 f   bncs_data_form_editimpl.obj
 0001:00004320       ??_Ebncs_data_form_edit@@WCI@AEPAXI@Z 10005320 f i bncs_data_form_editimpl.obj
 0001:00004330       ??0bncs_data_Table@@QAE@PAVQWidget@@PBD@Z 10005330 f   bncs_data_Table.obj
 0001:000044b0       ?metaObject@bncs_data_Table@@UBEPAVQMetaObject@@XZ 100054b0 f i bncs_data_Table.obj
 0001:000044c0       ??_Gbncs_data_Table@@UAEPAXI@Z 100054c0 f i bncs_data_Table.obj
 0001:000044c0       ??_Ebncs_data_Table@@UAEPAXI@Z 100054c0 f i bncs_data_Table.obj
 0001:000044e0       ??1bncs_data_Table@@UAE@XZ 100054e0 f   bncs_data_Table.obj
 0001:000045c0       ?setCaption@bncs_data_Table@@UAEXABVQString@@@Z 100055c0 f   bncs_data_Table.obj
 0001:00005460       ?edit@bncs_data_Table@@QAEXPA_N0@Z 10006460 f   bncs_data_Table.obj
 0001:00005ac0       ?defaultvalues@bncs_data_Table@@AAEXXZ 10006ac0 f   bncs_data_Table.obj
 0001:00005b40       ?applyChanges@bncs_data_Table@@QAEXXZ 10006b40 f   bncs_data_Table.obj
 0001:00005b70       ?updateData@bncs_data_Table@@QAEXXZ 10006b70 f   bncs_data_Table.obj
 0001:00005d50       ?ReloadLog@bncs_data_Table@@QAEXXZ 10006d50 f   bncs_data_Table.obj
 0001:00005da0       ?requestMenu@bncs_data_Table@@QAEXHHABVQPoint@@@Z 10006da0 f   bncs_data_Table.obj
 0001:00005db0       ??_Ebncs_data_Table@@WCI@AEPAXI@Z 10006db0 f i bncs_data_Table.obj
 0001:00005dc0       ??0bncs_data_table_edit@@QAE@PAVQWidget@@PBD_NI@Z 10006dc0 f   bncs_data_table_editimpl.obj
 0001:00005e40       ?metaObject@bncs_data_table_edit@@UBEPAVQMetaObject@@XZ 10006e40 f i bncs_data_table_editimpl.obj
 0001:00005e50       ??_Ebncs_data_table_edit@@UAEPAXI@Z 10006e50 f i bncs_data_table_editimpl.obj
 0001:00005e50       ??_Gbncs_data_table_edit@@UAEPAXI@Z 10006e50 f i bncs_data_table_editimpl.obj
 0001:00005e70       ??1bncs_data_table_edit@@UAE@XZ 10006e70 f   bncs_data_table_editimpl.obj
 0001:00005e90       ?help@bncs_data_table_edit@@QAEXXZ 10006e90 f   bncs_data_table_editimpl.obj
 0001:00005eb0       ??_Ebncs_data_table_edit@@WCI@AEPAXI@Z 10006eb0 f i bncs_data_table_editimpl.obj
 0001:00005ec0       ?OnRevertive@bncs_log@@CAXPAVbncs_queued_revertive@@_NH@Z 10006ec0 f   bncs_log.obj
 0001:00005fb0       ??_GLogDrawEvent@@UAEPAXI@Z 10006fb0 f i bncs_log.obj
 0001:00005fb0       ??_ELogDrawEvent@@UAEPAXI@Z 10006fb0 f i bncs_log.obj
 0001:00005fd0       ??1LogDrawEvent@@UAE@XZ    10006fd0 f i bncs_log.obj
 0001:00005fe0       ??0bncs_log@@QAE@PAVQWidget@@PBDI@Z 10006fe0 f   bncs_log.obj
 0001:00006520       ?metaObject@bncs_log@@UBEPAVQMetaObject@@XZ 10007520 f i bncs_log.obj
 0001:00006530       ??_Ebncs_log@@UAEPAXI@Z    10007530 f i bncs_log.obj
 0001:00006530       ??_Gbncs_log@@UAEPAXI@Z    10007530 f i bncs_log.obj
 0001:00006550       ??1?$set@PAVlogLbi@@U?$less@PAVlogLbi@@@std@@V?$allocator@PAVlogLbi@@@3@@std@@QAE@XZ 10007550 f i bncs_log.obj
 0001:00006640       ??1bncs_log@@UAE@XZ        10007640 f   bncs_log.obj
 0001:000068c0       ?edit@bncs_log@@QAEXPA_N0@Z 100078c0 f   bncs_log.obj
 0001:0000a030       ?setCaption@bncs_log@@UAEXABVQString@@@Z 1000b030 f   bncs_log.obj
 0001:0000f5f0       ?getProcessId@logLbi@@QAE?AVQString@@XZ 100105f0 f i bncs_log.obj
 0001:0000f620       ?getGroup@logLbi@@QAE?AVQString@@XZ 10010620 f i bncs_log.obj
 0001:0000f650       ?getDevice@logLbi@@QAE?AVQString@@XZ 10010650 f i bncs_log.obj
 0001:0000f680       ?updateData@bncs_log@@QAEXXZ 10010680 f   bncs_log.obj
 0001:00010370       ?drawTable@bncs_log@@AAEXXZ 10011370 f   bncs_log.obj
 0001:000106e0       ?cccInfoRevertive@bncs_log@@EAEXHHABV?$basic_string@DU?$char_traits@D@std@@V?$allocator@D@2@@std@@@Z 100116e0 f   bncs_log.obj
 0001:000107e0       ?ListRevertive@bncs_log@@AAEXHHABV?$basic_string@DU?$char_traits@D@std@@V?$allocator@D@2@@std@@_N@Z 100117e0 f   bncs_log.obj
 0001:00010fc0       ?itemClicked@bncs_log@@QAEXPAVQListViewItem@@@Z 10011fc0 f   bncs_log.obj
 0001:000110e0       ?StartScroll@bncs_log@@QAEXXZ 100120e0 f   bncs_log.obj
 0001:00011150       ?applyChanges@bncs_log@@QAEXXZ 10012150 f   bncs_log.obj
 0001:00011220       ?ReloadLog@bncs_log@@QAEXXZ 10012220 f   bncs_log.obj
 0001:00011b60       ?selectionChanged@bncs_log@@QAEXPAVQListViewItem@@@Z 10012b60 f   bncs_log.obj
 0001:00011e80       ?setDefault@bncs_log@@AAEXXZ 10012e80 f   bncs_log.obj
 0001:00012090       ?getLogData@bncs_log@@QAEXXZ 10013090 f   bncs_log.obj
 0001:00012870       ?setColumnWidth@bncs_log@@AAEXVQString@@H@Z 10013870 f   bncs_log.obj
 0001:000129c0       ?getAllWidths@bncs_log@@AAE?AVQString@@XZ 100139c0 f   bncs_log.obj
 0001:00013070       ?printAll@bncs_log@@AAEXXZ 10014070 f   bncs_log.obj
 0001:00013120       ?printLogs@bncs_log@@AAE_NPAV?$QPtrList@VlogLbi@@@@@Z 10014120 f   bncs_log.obj
 0001:00013800       ?printLimit@bncs_log@@AAEXVQString@@@Z 10014800 f   bncs_log.obj
 0001:00013a70       ?keyPressEvent@bncs_log@@MAEXPAVQKeyEvent@@@Z 10014a70 f   bncs_log.obj
 0001:00013af0       ?GetInstance@bncs_log_manager@@SAPAV1@XZ 10014af0 f   bncs_log.obj
 0001:00013b60       ??0bncs_log_manager@@AAE@XZ 10014b60 f   bncs_log.obj
 0001:00013cb0       ??1bncs_log_manager@@AAE@XZ 10014cb0 f   bncs_log.obj
 0001:00013d30       ?Destroy@bncs_log_manager@@SAXXZ 10014d30 f   bncs_log.obj
 0001:00013d60       ?Register@bncs_log_manager@@QAEHPAVbncs_log@@@Z 10014d60 f   bncs_log.obj
 0001:00013e50       ?Unregister@bncs_log_manager@@QAE_NH@Z 10014e50 f   bncs_log.obj
 0001:00013eb0       ?GetLog@bncs_log_manager@@QAEPAVbncs_log@@H@Z 10014eb0 f   bncs_log.obj
 0001:00013f20       ?Count@bncs_queue_manager@@QAEHXZ 10014f20 f   bncs_log.obj
 0001:00013f20       ?Count@bncs_log_manager@@QAEHXZ 10014f20 f   bncs_log.obj
 0001:00013f30       ?customEvent@bncs_log@@EAEXPAVQCustomEvent@@@Z 10014f30 f   bncs_log.obj
 0001:00014080       ?messageLine@bncs_log@@UAEXABVQString@@@Z 10015080 f   bncs_log.obj
 0001:00014110       ??_GMessageEvent@@UAEPAXI@Z 10015110 f i bncs_log.obj
 0001:00014110       ??_EMessageEvent@@UAEPAXI@Z 10015110 f i bncs_log.obj
 0001:00014130       ??1MessageEvent@@UAE@XZ    10015130 f i bncs_log.obj
 0001:000141a0       ??0?$QMap@VQString@@Vstyleentry@@@@QAE@XZ 100151a0 f i bncs_log.obj
 0001:000142e0       ??0?$QMap@VQString@@Vstyleentry@@@@QAE@ABV0@@Z 100152e0 f i bncs_log.obj
 0001:000142f0       ??1?$QMap@VQString@@Vstyleentry@@@@QAE@XZ 100152f0 f i bncs_log.obj
 0001:00014390       ?begin@?$QMap@VQString@@Vstyleentry@@@@QAE?AV?$QMapIterator@VQString@@Vstyleentry@@@@XZ 10015390 f i bncs_log.obj
 0001:000143c0       ?end@?$QMap@VQString@@Vstyleentry@@@@QAE?AV?$QMapIterator@VQString@@Vstyleentry@@@@XZ 100153c0 f i bncs_log.obj
 0001:000143e0       ?begin@?$QMap@VQString@@Vstyleentry@@@@QBE?AV?$QMapConstIterator@VQString@@Vstyleentry@@@@XZ 100153e0 f i bncs_log.obj
 0001:000143e0       ?constBegin@?$QMap@VQString@@Vstyleentry@@@@QBE?AV?$QMapConstIterator@VQString@@Vstyleentry@@@@XZ 100153e0 f i bncs_log.obj
 0001:000143f0       ?end@?$QMap@VQString@@Vstyleentry@@@@QBE?AV?$QMapConstIterator@VQString@@Vstyleentry@@@@XZ 100153f0 f i bncs_log.obj
 0001:000143f0       ?constEnd@?$QMap@VQString@@Vstyleentry@@@@QBE?AV?$QMapConstIterator@VQString@@Vstyleentry@@@@XZ 100153f0 f i bncs_log.obj
 0001:00014400       ?replace@?$QMap@VQString@@Vstyleentry@@@@QAE?AV?$QMapIterator@VQString@@Vstyleentry@@@@ABVQString@@ABVstyleentry@@@Z 10015400 f i bncs_log.obj
 0001:00014580       ?count@?$QMap@VQString@@Vstyleentry@@@@QBEIXZ 10015580 f i bncs_log.obj
 0001:00014580       ?size@?$QMap@VQString@@Vstyleentry@@@@QBEIXZ 10015580 f i bncs_log.obj
 0001:00014590       ?empty@?$QMap@VQString@@Vstyleentry@@@@QBE_NXZ 10015590 f i bncs_log.obj
 0001:00014590       ?isEmpty@?$QMap@VQString@@Vstyleentry@@@@QBE_NXZ 10015590 f i bncs_log.obj
 0001:000145a0       ?remove@?$QMap@VQString@@Vstyleentry@@@@QAEXV?$QMapIterator@VQString@@Vstyleentry@@@@@Z 100155a0 f i bncs_log.obj
 0001:000145a0       ?erase@?$QMap@VQString@@Vstyleentry@@@@QAEXV?$QMapIterator@VQString@@Vstyleentry@@@@@Z 100155a0 f i bncs_log.obj
 0001:000145d0       ?find@?$QMap@VQString@@Vstyleentry@@@@QAE?AV?$QMapIterator@VQString@@Vstyleentry@@@@ABVQString@@@Z 100155d0 f i bncs_log.obj
 0001:00014650       ?find@?$QMap@VQString@@Vstyleentry@@@@QBE?AV?$QMapConstIterator@VQString@@Vstyleentry@@@@ABVQString@@@Z 10015650 f i bncs_log.obj
 0001:000146c0       ??A?$QMap@VQString@@Vstyleentry@@@@QBEABVstyleentry@@ABVQString@@@Z 100156c0 f i bncs_log.obj
 0001:00014730       ?contains@?$QMap@VQString@@Vstyleentry@@@@QBE_NABVQString@@@Z 10015730 f i bncs_log.obj
 0001:000147a0       ?keys@?$QMap@VQString@@Vstyleentry@@@@QBE?AV?$QValueList@VQString@@@@XZ 100157a0 f i bncs_log.obj
 0001:000148c0       ?values@?$QMap@VQString@@Vstyleentry@@@@QBE?AV?$QValueList@Vstyleentry@@@@XZ 100158c0 f i bncs_log.obj
 0001:000149e0       ?detach@?$QMap@VQString@@Vstyleentry@@@@IAEXXZ 100159e0 f i bncs_log.obj
 0001:000149f0       ??1?$_Tree@PAVlogLbi@@PAV1@U_Kfn@?$set@PAVlogLbi@@U?$less@PAVlogLbi@@@std@@V?$allocator@PAVlogLbi@@@3@@std@@U?$less@PAVlogLbi@@@4@V?$allocator@PAVlogLbi@@@4@@std@@QAE@XZ 100159f0 f i bncs_log.obj
 0001:00014ad0       ??1?$QMap@HPAVbncs_log@@@@QAE@XZ 10015ad0 f i bncs_log.obj
 0001:00014b50       ?remove@?$QMap@HPAVbncs_log@@@@QAEXV?$QMapIterator@HPAVbncs_log@@@@@Z 10015b50 f i bncs_log.obj
 0001:00014b80       ??1?$QPtrList@VlogLbi@@@@UAE@XZ 10015b80 f i bncs_log.obj
 0001:00014be0       ?clear@?$QPtrList@Vbncs_queued_revertive@@@@UAEXXZ 10015be0 f i bncs_log.obj
 0001:00014be0       ?clear@?$QPtrList@VlogLbi@@@@UAEXXZ 10015be0 f i bncs_log.obj
 0001:00014bf0       ??_E?$QPtrList@VlogLbi@@@@UAEPAXI@Z 10015bf0 f i bncs_log.obj
 0001:00014bf0       ??_G?$QPtrList@VlogLbi@@@@UAEPAXI@Z 10015bf0 f i bncs_log.obj
 0001:00014c10       ?begin@?$_Tree@PAVlogLbi@@PAV1@U_Kfn@?$set@PAVlogLbi@@U?$less@PAVlogLbi@@@std@@V?$allocator@PAVlogLbi@@@3@@std@@U?$less@PAVlogLbi@@@4@V?$allocator@PAVlogLbi@@@4@@std@@QAE?AViterator@12@XZ 10015c10 f i bncs_log.obj
 0001:00014c20       ?insert@?$_Tree@PAVlogLbi@@PAV1@U_Kfn@?$set@PAVlogLbi@@U?$less@PAVlogLbi@@@std@@V?$allocator@PAVlogLbi@@@3@@std@@U?$less@PAVlogLbi@@@4@V?$allocator@PAVlogLbi@@@4@@std@@QAE?AU?$pair@Viterator@?$_Tree@PAVlogLbi@@PAV1@U_Kfn@?$set@PAVlogLbi@@U?$less@PAVlogLbi@@@std@@V?$allocator@PAVlogLbi@@@3@@std@@U?$less@PAVlogLbi@@@4@V?$allocator@PAVlogLbi@@@4@@std@@_N@2@ABQAVlogLbi@@@Z 10015c20 f i bncs_log.obj
 0001:00014e60       ?erase@?$_Tree@PAVlogLbi@@PAV1@U_Kfn@?$set@PAVlogLbi@@U?$less@PAVlogLbi@@@std@@V?$allocator@PAVlogLbi@@@3@@std@@U?$less@PAVlogLbi@@@4@V?$allocator@PAVlogLbi@@@4@@std@@QAE?AViterator@12@V312@@Z 10015e60 f i bncs_log.obj
 0001:00015260       ??0?$pair@Viterator@?$_Tree@PAVlogLbi@@PAV1@U_Kfn@?$set@PAVlogLbi@@U?$less@PAVlogLbi@@@std@@V?$allocator@PAVlogLbi@@@3@@std@@U?$less@PAVlogLbi@@@4@V?$allocator@PAVlogLbi@@@4@@std@@_N@std@@QAE@ABViterator@?$_Tree@PAVlogLbi@@PAV1@U_Kfn@?$set@PAVlogLbi@@U?$less@PAVlogLbi@@@std@@V?$allocator@PAVlogLbi@@@3@@std@@U?$less@PAVlogLbi@@@4@V?$allocator@PAVlogLbi@@@4@@1@AB_N@Z 10016260 f i bncs_log.obj
 0001:00015280       ?derefAndDelete@?$QValueListPrivate@VQString@@@@QAEXXZ 10016280 f i bncs_log.obj
 0001:000152a0       ?remove@?$QMapPrivate@VQString@@Vstyleentry@@@@QAEXV?$QMapIterator@VQString@@Vstyleentry@@@@@Z 100162a0 f i bncs_log.obj
 0001:000152e0       ??1?$QValueList@Vstyleentry@@@@QAE@XZ 100162e0 f i bncs_log.obj
 0001:00015300       ?remove@?$QMapPrivate@HPAVbncs_log_queue@@@@QAEXV?$QMapIterator@HPAVbncs_log_queue@@@@@Z 10016300 f i bncs_log.obj
 0001:00015300       ?remove@?$QMapPrivate@HPAVbncs_log@@@@QAEXV?$QMapIterator@HPAVbncs_log@@@@@Z 10016300 f i bncs_log.obj
 0001:00015330       ??1?$QMapNode@VQString@@Vstyleentry@@@@QAE@XZ 10016330 f i bncs_log.obj
 0001:000153f0       ?lower_bound@?$_Tree@PAVlogLbi@@PAV1@U_Kfn@?$set@PAVlogLbi@@U?$less@PAVlogLbi@@@std@@V?$allocator@PAVlogLbi@@@3@@std@@U?$less@PAVlogLbi@@@4@V?$allocator@PAVlogLbi@@@4@@std@@QAE?AViterator@12@ABQAVlogLbi@@@Z 100163f0 f i bncs_log.obj
 0001:00015430       ?_Erase@?$_Tree@PAVlogLbi@@PAV1@U_Kfn@?$set@PAVlogLbi@@U?$less@PAVlogLbi@@@std@@V?$allocator@PAVlogLbi@@@3@@std@@U?$less@PAVlogLbi@@@4@V?$allocator@PAVlogLbi@@@4@@std@@IAEXPAU_Node@12@@Z 10016430 f i bncs_log.obj
 0001:00015470       ?_Insert@?$_Tree@PAVlogLbi@@PAV1@U_Kfn@?$set@PAVlogLbi@@U?$less@PAVlogLbi@@@std@@V?$allocator@PAVlogLbi@@@3@@std@@U?$less@PAVlogLbi@@@4@V?$allocator@PAVlogLbi@@@4@@std@@IAE?AViterator@12@PAU_Node@12@0ABQAVlogLbi@@@Z 10016470 f i bncs_log.obj
 0001:000156e0       ?_Lrotate@?$_Tree@PAVlogLbi@@PAV1@U_Kfn@?$set@PAVlogLbi@@U?$less@PAVlogLbi@@@std@@V?$allocator@PAVlogLbi@@@3@@std@@U?$less@PAVlogLbi@@@4@V?$allocator@PAVlogLbi@@@4@@std@@IAEXPAU_Node@12@@Z 100166e0 f i bncs_log.obj
 0001:00015740       ?_Rrotate@?$_Tree@PAVlogLbi@@PAV1@U_Kfn@?$set@PAVlogLbi@@U?$less@PAVlogLbi@@@std@@V?$allocator@PAVlogLbi@@@3@@std@@U?$less@PAVlogLbi@@@4@V?$allocator@PAVlogLbi@@@4@@std@@IAEXPAU_Node@12@@Z 10016740 f i bncs_log.obj
 0001:000157a0       ?end@?$QValueList@Vstyleentry@@@@QAE?AV?$QValueListIterator@Vstyleentry@@@@XZ 100167a0 f i bncs_log.obj
 0001:000157d0       ?_Lbound@?$_Tree@PAVlogLbi@@PAV1@U_Kfn@?$set@PAVlogLbi@@U?$less@PAVlogLbi@@@std@@V?$allocator@PAVlogLbi@@@3@@std@@U?$less@PAVlogLbi@@@4@V?$allocator@PAVlogLbi@@@4@@std@@IBEPAU_Node@12@ABQAVlogLbi@@@Z 100167d0 f i bncs_log.obj
 0001:00015800       ?_Buynode@?$_Tree@PAVlogLbi@@PAV1@U_Kfn@?$set@PAVlogLbi@@U?$less@PAVlogLbi@@@std@@V?$allocator@PAVlogLbi@@@3@@std@@U?$less@PAVlogLbi@@@4@V?$allocator@PAVlogLbi@@@4@@std@@IAEPAU_Node@12@PAU312@W4_Redbl@12@@Z 10016800 f i bncs_log.obj
 0001:00015820       ?_Dec@const_iterator@?$_Tree@PAVlogLbi@@PAV1@U_Kfn@?$set@PAVlogLbi@@U?$less@PAVlogLbi@@@std@@V?$allocator@PAVlogLbi@@@3@@std@@U?$less@PAVlogLbi@@@4@V?$allocator@PAVlogLbi@@@4@@std@@QAEXXZ 10016820 f i bncs_log.obj
 0001:00015880       ?_Inc@const_iterator@?$_Tree@PAVlogLbi@@PAV1@U_Kfn@?$set@PAVlogLbi@@U?$less@PAVlogLbi@@@std@@V?$allocator@PAVlogLbi@@@3@@std@@U?$less@PAVlogLbi@@@4@V?$allocator@PAVlogLbi@@@4@@std@@QAEXXZ 10016880 f i bncs_log.obj
 0001:000158d0       ??4?$QMap@VQString@@Vstyleentry@@@@QAEAAV0@ABV0@@Z 100168d0 f i bncs_log.obj
 0001:00015990       ?insert@?$QMap@VQString@@Vstyleentry@@@@QAE?AV?$QMapIterator@VQString@@Vstyleentry@@@@ABVQString@@ABVstyleentry@@_N@Z 10016990 f i bncs_log.obj
 0001:00015ad0       ?insert@?$QMap@VQString@@Vstyleentry@@@@QAE?AU?$QPair@V?$QMapIterator@VQString@@Vstyleentry@@@@_N@@ABU?$QPair@$$CBVQString@@Vstyleentry@@@@@Z 10016ad0 f i bncs_log.obj
 0001:00015bf0       ?count@?$QMap@VQString@@Vstyleentry@@@@QBEIABVQString@@@Z 10016bf0 f i bncs_log.obj
 0001:00015ca0       ??A?$QMap@VQString@@Vstyleentry@@@@QAEAAVstyleentry@@ABVQString@@@Z 10016ca0 f i bncs_log.obj
 0001:00015e80       ?clear@?$QMap@VQString@@Vstyleentry@@@@QAEXXZ 10016e80 f i bncs_log.obj
 0001:00016030       ?erase@?$QMap@VQString@@Vstyleentry@@@@QAEXABVQString@@@Z 10017030 f i bncs_log.obj
 0001:00016030       ?remove@?$QMap@VQString@@Vstyleentry@@@@QAEXABVQString@@@Z 10017030 f i bncs_log.obj
 0001:000160c0       ?detachInternal@?$QMap@VQString@@Vstyleentry@@@@AAEXXZ 100170c0 f i bncs_log.obj
 0001:000162a0       ?detachInternal@?$QMap@HPAVbncs_log@@@@AAEXXZ 100172a0 f i bncs_log.obj
 0001:00016400       ?deleteItem@?$QPtrList@VlogLbi@@@@EAEXPAX@Z 10017400 f i bncs_log.obj
 0001:00016420       ??0?$QValueListPrivate@VQString@@@@QAE@XZ 10017420 f i bncs_log.obj
 0001:000164c0       ??_E?$QValueListNode@VQString@@@@UAEPAXI@Z 100174c0 f i bncs_log.obj
 0001:000164c0       ??_G?$QValueListNode@VQString@@@@UAEPAXI@Z 100174c0 f i bncs_log.obj
 0001:000164e0       ??1?$QValueListNode@VQString@@@@UAE@XZ 100174e0 f i bncs_log.obj
 0001:00016510       ?insert@?$QValueListPrivate@VQString@@@@QAE?AV?$QValueListIterator@VQString@@@@V2@ABVQString@@@Z 10017510 f i bncs_log.obj
 0001:00016590       ?at@?$QValueListPrivate@VQString@@@@QBEPAV?$QValueListNode@VQString@@@@I@Z 10017590 f i bncs_log.obj
 0001:000165d0       ?detachInternal@?$QValueList@Vstyleentry@@@@AAEXXZ 100175d0 f i bncs_log.obj
 0001:000166e0       ?find@?$QMapPrivate@HPAVbncs_log_queue@@@@QBE?AV?$QMapConstIterator@HPAVbncs_log_queue@@@@ABH@Z 100176e0 f i bncs_log.obj
 0001:000166e0       ?find@?$QMapPrivate@HPAVbncs_log@@@@QBE?AV?$QMapConstIterator@HPAVbncs_log@@@@ABH@Z 100176e0 f i bncs_log.obj
 0001:00016730       ??0?$QValueListPrivate@Vstyleentry@@@@QAE@XZ 10017730 f i bncs_log.obj
 0001:00016870       ?insert@?$QValueListPrivate@Vstyleentry@@@@QAE?AV?$QValueListIterator@Vstyleentry@@@@V2@ABVstyleentry@@@Z 10017870 f i bncs_log.obj
 0001:00016930       ?_Construct@std@@YAXPAPAVlogLbi@@ABQAV2@@Z 10017930 f i bncs_log.obj
 0001:00016950       ??_E?$QValueListPrivate@VQString@@@@UAEPAXI@Z 10017950 f i bncs_log.obj
 0001:00016950       ??_G?$QValueListPrivate@VQString@@@@UAEPAXI@Z 10017950 f i bncs_log.obj
 0001:000169a0       ??_E?$QValueListPrivate@Vstyleentry@@@@UAEPAXI@Z 100179a0 f i bncs_log.obj
 0001:000169a0       ??_G?$QValueListPrivate@Vstyleentry@@@@UAEPAXI@Z 100179a0 f i bncs_log.obj
 0001:000169f0       ??_G?$QValueListNode@Vstyleentry@@@@UAEPAXI@Z 100179f0 f i bncs_log.obj
 0001:000169f0       ??_E?$QValueListNode@Vstyleentry@@@@UAEPAXI@Z 100179f0 f i bncs_log.obj
 0001:00016a10       ??1?$QValueListNode@Vstyleentry@@@@UAE@XZ 10017a10 f i bncs_log.obj
 0001:00016ab0       ??0?$QValueListPrivate@VQString@@@@QAE@ABV0@@Z 10017ab0 f i bncs_log.obj
 0001:00016b90       ??0?$QMapPrivate@VQString@@Vstyleentry@@@@QAE@PBV0@@Z 10017b90 f i bncs_log.obj
 0001:00016d60       ?clear@?$QMapPrivate@VQString@@Vstyleentry@@@@QAEXPAU?$QMapNode@VQString@@Vstyleentry@@@@@Z 10017d60 f i bncs_log.obj
 0001:00016da0       ?insertSingle@?$QMapPrivate@VQString@@Vstyleentry@@@@QAE?AV?$QMapIterator@VQString@@Vstyleentry@@@@ABVQString@@@Z 10017da0 f i bncs_log.obj
 0001:00016e80       ?clear@?$QMapPrivate@HPAVbncs_log@@@@QAEXPAU?$QMapNode@HPAVbncs_log@@@@@Z 10017e80 f i bncs_log.obj
 0001:00016eb0       ??0?$QValueListPrivate@Vstyleentry@@@@QAE@ABV0@@Z 10017eb0 f i bncs_log.obj
 0001:00016fa0       ??0?$QValueListIterator@Vstyleentry@@@@QAE@ABV0@@Z 10017fa0 f i bncs_log.obj
 0001:00016fb0       ?copy@?$QMapPrivate@VQString@@Vstyleentry@@@@QAEPAU?$QMapNode@VQString@@Vstyleentry@@@@PAU2@@Z 10017fb0 f i bncs_log.obj
 0001:00017150       ?insert@?$QMapPrivate@VQString@@Vstyleentry@@@@QAE?AV?$QMapIterator@VQString@@Vstyleentry@@@@PAUQMapNodeBase@@0ABVQString@@@Z 10018150 f i bncs_log.obj
 0001:000172a0       ?copy@?$QMapPrivate@HPAVbncs_log@@@@QAEPAU?$QMapNode@HPAVbncs_log@@@@PAU2@@Z 100182a0 f i bncs_log.obj
 0001:00017330       ?dec@?$QMapIterator@HPAVbncs_log_queue@@@@AAEHXZ 10018330 f i bncs_log.obj
 0001:00017330       ?dec@?$QMapIterator@VQString@@Vstyleentry@@@@AAEHXZ 10018330 f i bncs_log.obj
 0001:00017330       ?dec@?$QMapIterator@HPAVbncs_log@@@@AAEHXZ 10018330 f i bncs_log.obj
 0001:00017380       ??0?$QMapNode@VQString@@Vstyleentry@@@@QAE@ABU0@@Z 10018380 f i bncs_log.obj
 0001:000174b0       ??_Ebncs_log@@WCI@AEPAXI@Z 100184b0 f i bncs_log.obj
 0001:000174c0       ??0bncs_log_edit@@QAE@PAVQWidget@@PBD_NI@Z 100184c0 f   bncs_log_editimpl.obj
 0001:000178f0       ?metaObject@bncs_log_edit@@UBEPAVQMetaObject@@XZ 100188f0 f i bncs_log_editimpl.obj
 0001:00017900       ??_Gbncs_log_edit@@UAEPAXI@Z 10018900 f i bncs_log_editimpl.obj
 0001:00017900       ??_Ebncs_log_edit@@UAEPAXI@Z 10018900 f i bncs_log_editimpl.obj
 0001:00017920       ??1bncs_log_edit@@UAE@XZ   10018920 f   bncs_log_editimpl.obj
 0001:00017940       ?dbDriverChanged@bncs_log_edit@@QAEXABVQString@@@Z 10018940 f   bncs_log_editimpl.obj
 0001:00017a10       ?dbDriver_reserveChanged@bncs_log_edit@@QAEXABVQString@@@Z 10018a10 f   bncs_log_editimpl.obj
 0001:00017ae0       ?help@bncs_log_edit@@QAEXXZ 10018ae0 f   bncs_log_editimpl.obj
 0001:00017b00       ?dateTimeGroupClicked@bncs_log_edit@@QAEXH@Z 10018b00 f   bncs_log_editimpl.obj
 0001:00017d00       ?setDateTimeEdit@bncs_log_edit@@QAEXPAVlogFilter@@@Z 10018d00 f   bncs_log_editimpl.obj
 0001:00017f10       ?valueChangedDateBetweenStart@bncs_log_edit@@QAEXABVQDate@@@Z 10018f10 f   bncs_log_editimpl.obj
 0001:00017f10       ?valueChangedDateBefore@bncs_log_edit@@QAEXABVQDate@@@Z 10018f10 f   bncs_log_editimpl.obj
 0001:00017f10       ?valueChangedDateAfter@bncs_log_edit@@QAEXABVQDate@@@Z 10018f10 f   bncs_log_editimpl.obj
 0001:00017f20       ?valueChangedDateBetweenEnd@bncs_log_edit@@QAEXABVQDate@@@Z 10018f20 f   bncs_log_editimpl.obj
 0001:00017f30       ?valueChangedDateTimeBetweenStart@bncs_log_edit@@QAEXABVQDateTime@@@Z 10018f30 f   bncs_log_editimpl.obj
 0001:00017f30       ?valueChangedDateTimeBefore@bncs_log_edit@@QAEXABVQDateTime@@@Z 10018f30 f   bncs_log_editimpl.obj
 0001:00017f30       ?valueChangedDateTimeAfter@bncs_log_edit@@QAEXABVQDateTime@@@Z 10018f30 f   bncs_log_editimpl.obj
 0001:00017f50       ?valueChangedDateTimeBetweenEnd@bncs_log_edit@@QAEXABVQDateTime@@@Z 10018f50 f   bncs_log_editimpl.obj
 0001:00017f70       ?valueChangedSpinDaysBack@bncs_log_edit@@QAEXH@Z 10018f70 f   bncs_log_editimpl.obj
 0001:00017f80       ??_Ebncs_log_edit@@WCI@AEPAXI@Z 10018f80 f i bncs_log_editimpl.obj
 0001:00017f90       ??0bncs_log_getData@@QAE@VQString@@PAVdbConnection@@HPAVbncs_log@@_N@Z 10018f90 f   bncs_log_getData.obj
 0001:000180b0       ??_Ebncs_log_getData@@UAEPAXI@Z 100190b0 f i bncs_log_getData.obj
 0001:000180b0       ??_Gbncs_log_getData@@UAEPAXI@Z 100190b0 f i bncs_log_getData.obj
 0001:000180d0       ??1bncs_log_getData@@UAE@XZ 100190d0 f   bncs_log_getData.obj
 0001:00018190       ?stop@bncs_log_getData@@QAEXXZ 10019190 f   bncs_log_getData.obj
 0001:000181a0       ?restart@bncs_log_getData@@QAEXXZ 100191a0 f   bncs_log_getData.obj
 0001:000181b0       ?run@bncs_log_getData@@UAEXXZ 100191b0 f   bncs_log_getData.obj
 0001:00018510       ??_GQSqlQuery@@UAEPAXI@Z   10019510 f i bncs_log_getData.obj
 0001:00018510       ??_EQSqlQuery@@UAEPAXI@Z   10019510 f i bncs_log_getData.obj
 0001:00018530       ?newQuery@bncs_log_getData@@QAEXVQString@@@Z 10019530 f   bncs_log_getData.obj
 0001:000185f0       ?readEntries@bncs_log_getData@@QAEHXZ 100195f0 f   bncs_log_getData.obj
 0001:00018680       ?GlobalSendDebug@@YAXPBD@Z 10019680 f   bncs_log_queue.obj
 0001:000186c0       ??0bncs_log_queue@@QAE@H@Z 100196c0 f   bncs_log_queue.obj
 0001:00018750       ??1bncs_log_queue@@QAE@XZ  10019750 f   bncs_log_queue.obj
 0001:00018830       ?GetLog@bncs_queue_manager@@QAEPAVbncs_log_queue@@H@Z 10019830 f   bncs_log_queue.obj
 0001:000188a0       ?TransferRevertives@bncs_log_queue@@AAEIXZ 100198a0 f   bncs_log_queue.obj
 0001:00018920       ?Add@bncs_log_queue@@QAEXPAVbncs_queued_revertive@@@Z 10019920 f   bncs_log_queue.obj
 0001:00018960       ?GetNextRevertive@bncs_log_queue@@AAEPAVbncs_queued_revertive@@XZ 10019960 f   bncs_log_queue.obj
 0001:000189c0       ?ThreadActive@bncs_queue_manager@@QAE_NXZ 100199c0 f   bncs_log_queue.obj
 0001:000189d0       ?AttachEventHandler@bncs_log_queue@@QAEXP6AXPAVbncs_queued_revertive@@_NH@Z@Z 100199d0 f   bncs_log_queue.obj
 0001:000189e0       ?FireEvent@bncs_log_queue@@AAEXI@Z 100199e0 f   bncs_log_queue.obj
 0001:00018a80       ??0bncs_queued_revertive@@QAE@HHABV?$basic_string@DU?$char_traits@D@std@@V?$allocator@D@2@@std@@@Z 10019a80 f   bncs_log_queue.obj
 0001:00018c10       ?GetDevice@bncs_queued_revertive@@QAEHXZ 10019c10 f   bncs_log_queue.obj
 0001:00018c10       ?where@structured_exception@@QBEPBXXZ 10019c10 f   bncs_log_queue.obj
 0001:00018c20       ?what@structured_exception@@QBEIXZ 10019c20 f   bncs_log_queue.obj
 0001:00018c20       ?GetIndex@bncs_queued_revertive@@QAEHXZ 10019c20 f   bncs_log_queue.obj
 0001:00018c30       ?GetValue@bncs_queued_revertive@@QAEPAV?$basic_string@DU?$char_traits@D@std@@V?$allocator@D@2@@std@@XZ 10019c30 f   bncs_log_queue.obj
 0001:00018c40       ?GetInstance@bncs_queue_manager@@SAPAV1@XZ 10019c40 f   bncs_log_queue.obj
 0001:00018cb0       ??0bncs_queue_manager@@AAE@XZ 10019cb0 f   bncs_log_queue.obj
 0001:00018e30       ??1bncs_queue_manager@@AAE@XZ 10019e30 f   bncs_log_queue.obj
 0001:00018f00       ?Destroy@bncs_queue_manager@@SAXXZ 10019f00 f   bncs_log_queue.obj
 0001:00018f30       ?SendDebug@bncs_log_queue@@AAEXPBD@Z 10019f30 f   bncs_log_queue.obj
 0001:00018f30       ?SendDebug@bncs_queue_manager@@AAEXPBD@Z 10019f30 f   bncs_log_queue.obj
 0001:00018f40       ?Register@bncs_queue_manager@@QAEHPAVbncs_log_queue@@@Z 10019f40 f   bncs_log_queue.obj
 0001:00019030       ?Unregister@bncs_queue_manager@@QAE_NH@Z 1001a030 f   bncs_log_queue.obj
 0001:00019090       ?StartThread@bncs_queue_manager@@QAE_NXZ 1001a090 f   bncs_log_queue.obj
 0001:000190e0       ?StopThread@bncs_queue_manager@@AAEXXZ 1001a0e0 f   bncs_log_queue.obj
 0001:00019140       ?EnterCriticalSection@bncs_queue_manager@@QAEXXZ 1001a140 f   bncs_log_queue.obj
 0001:00019150       ?LeaveCriticalSection@bncs_queue_manager@@QAEXXZ 1001a150 f   bncs_log_queue.obj
 0001:00019160       ?TransferRevertives@bncs_log_queue@@QAEIHI@Z 1001a160 f   bncs_log_queue.obj
 0001:000191d0       ?ThreadProc@bncs_queue_manager@@CGKPAX@Z 1001a1d0 f   bncs_log_queue.obj
 0001:00019240       ?SignalDataArrived@bncs_queue_manager@@QAEXXZ 1001a240 f   bncs_log_queue.obj
 0001:00019250       ??1?$QPtrList@Vbncs_queued_revertive@@@@UAE@XZ 1001a250 f i bncs_log_queue.obj
 0001:000192b0       ?count@?$QPtrList@VlogLbi@@@@UBEIXZ 1001a2b0 f i bncs_log_queue.obj
 0001:000192b0       ?count@?$QPtrList@Vbncs_queued_revertive@@@@UBEIXZ 1001a2b0 f i bncs_log_queue.obj
 0001:000192c0       ??1?$QMap@HPAVbncs_log_queue@@@@QAE@XZ 1001a2c0 f i bncs_log_queue.obj
 0001:00019340       ?remove@?$QMap@HPAVbncs_log_queue@@@@QAEXV?$QMapIterator@HPAVbncs_log_queue@@@@@Z 1001a340 f i bncs_log_queue.obj
 0001:00019370       ??_G?$QPtrList@Vbncs_queued_revertive@@@@UAEPAXI@Z 1001a370 f i bncs_log_queue.obj
 0001:00019370       ??_E?$QPtrList@Vbncs_queued_revertive@@@@UAEPAXI@Z 1001a370 f i bncs_log_queue.obj
 0001:00019390       ?deleteItem@?$QPtrList@Vbncs_queued_revertive@@@@EAEXPAX@Z 1001a390 f i bncs_log_queue.obj
 0001:000193c0       ?detachInternal@?$QMap@HPAVbncs_log_queue@@@@AAEXXZ 1001a3c0 f i bncs_log_queue.obj
 0001:00019520       ??1bncs_queued_revertive@@QAE@XZ 1001a520 f i bncs_log_queue.obj
 0001:00019560       ?clear@?$QMapPrivate@HPAVbncs_log_queue@@@@QAEXPAU?$QMapNode@HPAVbncs_log_queue@@@@@Z 1001a560 f i bncs_log_queue.obj
 0001:00019590       ?copy@?$QMapPrivate@HPAVbncs_log_queue@@@@QAEPAU?$QMapNode@HPAVbncs_log_queue@@@@PAU2@@Z 1001a590 f i bncs_log_queue.obj
 0001:00019620       ?insert@?$QMapPrivate@HPAVbncs_log_queue@@@@QAE?AV?$QMapIterator@HPAVbncs_log_queue@@@@PAUQMapNodeBase@@0ABH@Z 1001a620 f i bncs_log_queue.obj
 0001:00019620       ?insert@?$QMapPrivate@HPAVbncs_log@@@@QAE?AV?$QMapIterator@HPAVbncs_log@@@@PAUQMapNodeBase@@0ABH@Z 1001a620 f i bncs_log_queue.obj
 0001:000196c0       ??0decodeCaptionString@@QAE@ABVQString@@@Z 1001a6c0 f   decodeCaptionString.obj
 0001:00019810       ??1decodeCaptionString@@QAE@XZ 1001a810 f   decodeCaptionString.obj
 0001:00019830       ??0structured_exception@@QAE@ABU_EXCEPTION_POINTERS@@@Z 1001a830 f   except.obj
 0001:00019850       ?install@structured_exception@@SAXXZ 1001a850 f   except.obj
 0001:00019890       ?Log@@YAXPADZZ             1001a890 f   except.obj
 0001:00019ab0       ?doHelp@@YAXVQString@@@Z   1001aab0 f   help.obj
 0001:00019ef0       ??0logFilter@@QAE@XZ       1001aef0 f   logFilter.obj
 0001:0001a0b0       ?compareLess@CompareDatesTimesExclusive@logFilter@@EBE_NABVQDate@@0@Z 1001b0b0 f i logFilter.obj
 0001:0001a0d0       ?compareMore@CompareDatesTimesExclusive@logFilter@@EBE_NABVQDate@@0@Z 1001b0d0 f i logFilter.obj
 0001:0001a0f0       ?compareLess@CompareDatesTimesExclusive@logFilter@@EBE_NABVQDateTime@@0@Z 1001b0f0 f i logFilter.obj
 0001:0001a110       ?compareMore@CompareDatesTimesExclusive@logFilter@@EBE_NABVQDateTime@@0@Z 1001b110 f i logFilter.obj
 0001:0001a130       ?getCompareLess@CompareDatesTimesExclusive@logFilter@@EBE?AVQString@@XZ 1001b130 f i logFilter.obj
 0001:0001a160       ?getCompareMore@CompareDatesTimesExclusive@logFilter@@EBE?AVQString@@XZ 1001b160 f i logFilter.obj
 0001:0001a190       ?isInclusive@CompareDatesTimesExclusive@logFilter@@EBE_NXZ 1001b190 f i logFilter.obj
 0001:0001a1a0       ??_ECompareDatesTimesExclusive@logFilter@@EAEPAXI@Z 1001b1a0 f i logFilter.obj
 0001:0001a1a0       ??_ECompareDatesTimesInclusive@logFilter@@EAEPAXI@Z 1001b1a0 f i logFilter.obj
 0001:0001a1a0       ??_GCompareDatesTimesInclusive@logFilter@@EAEPAXI@Z 1001b1a0 f i logFilter.obj
 0001:0001a1a0       ??_GCompareDatesTimesExclusive@logFilter@@EAEPAXI@Z 1001b1a0 f i logFilter.obj
 0001:0001a1c0       ??1CompareDatesTimesExclusive@logFilter@@EAE@XZ 1001b1c0 f i logFilter.obj
 0001:0001a1c0       ??1CompareDatesTimesInclusive@logFilter@@EAE@XZ 1001b1c0 f i logFilter.obj
 0001:0001a1d0       ??_EICompareDatesTimes@logFilter@@UAEPAXI@Z 1001b1d0 f i logFilter.obj
 0001:0001a1d0       ??_GICompareDatesTimes@logFilter@@UAEPAXI@Z 1001b1d0 f i logFilter.obj
 0001:0001a1f0       ??_GlogFilter@@UAEPAXI@Z   1001b1f0 f i logFilter.obj
 0001:0001a1f0       ??_ElogFilter@@UAEPAXI@Z   1001b1f0 f i logFilter.obj
 0001:0001a210       ??1logFilter@@UAE@XZ       1001b210 f   logFilter.obj
 0001:0001a2d0       ?setFilter@logFilter@@QAE_NABVQString@@@Z 1001b2d0 f   logFilter.obj
 0001:0001ade0       ?ClearFilter@logFilter@@QAEXXZ 1001bde0 f   logFilter.obj
 0001:0001b050       ?setList@logFilter@@ABE_NQAVQStringList@@QBVdecodeCaptionString@@@Z 1001c050 f   logFilter.obj
 0001:0001b420       ?showDevices@logFilter@@QBE?AVQString@@XZ 1001c420 f   logFilter.obj
 0001:0001b4c0       ?showGroups@logFilter@@QBE?AVQString@@XZ 1001c4c0 f   logFilter.obj
 0001:0001b560       ?showProcesses@logFilter@@QBE?AVQString@@XZ 1001c560 f   logFilter.obj
 0001:0001b600       ?showText@logFilter@@QBE?AVQString@@XZ 1001c600 f   logFilter.obj
 0001:0001b6a0       ?stripWhiteSpace@logFilter@@ABEXQAVQStringList@@@Z 1001c6a0 f   logFilter.obj
 0001:0001b7b0       ?sqlStringList@logFilter@@ABEXABVQStringList@@ABVQString@@1_NAAV3@@Z 1001c7b0 f   logFilter.obj
 0001:0001b9e0       ?sqlStatement@logFilter@@QBE?AVQString@@ABV2@_N@Z 1001c9e0 f   logFilter.obj
 0001:0001bec0       ?FilterUpdate@logFilter@@QBE_NABVQDateTime@@HHABVQString@@111@Z 1001cec0 f   logFilter.obj
 0001:0001c080       ?setState@logFilter@@AAE_NABVQString@@_N@Z 1001d080 f   logFilter.obj
 0001:0001c1e0       ?sqlState@logFilter@@ABE?AVQString@@ABV2@_N@Z 1001d1e0 f   logFilter.obj
 0001:0001c9f0       ?setLevel@logFilter@@AAE_NABVQString@@_N@Z 1001d9f0 f   logFilter.obj
 0001:0001cae0       ?sqlLevel@logFilter@@ABE?AVQString@@ABV2@_N@Z 1001dae0 f   logFilter.obj
 0001:0001ce90       ?setDateTime@logFilter@@AAE_NABVQString@@0@Z 1001de90 f   logFilter.obj
 0001:0001d740       ?compareLess@CompareDatesTimesInclusive@logFilter@@EBE_NABVQDate@@0@Z 1001e740 f i logFilter.obj
 0001:0001d760       ?compareMore@CompareDatesTimesInclusive@logFilter@@EBE_NABVQDate@@0@Z 1001e760 f i logFilter.obj
 0001:0001d780       ?compareLess@CompareDatesTimesInclusive@logFilter@@EBE_NABVQDateTime@@0@Z 1001e780 f i logFilter.obj
 0001:0001d7a0       ?compareMore@CompareDatesTimesInclusive@logFilter@@EBE_NABVQDateTime@@0@Z 1001e7a0 f i logFilter.obj
 0001:0001d7c0       ?getCompareLess@CompareDatesTimesInclusive@logFilter@@EBE?AVQString@@XZ 1001e7c0 f i logFilter.obj
 0001:0001d7f0       ?getCompareMore@CompareDatesTimesInclusive@logFilter@@EBE?AVQString@@XZ 1001e7f0 f i logFilter.obj
 0001:0001d820       ?isInclusive@CompareDatesTimesInclusive@logFilter@@EBE_NXZ 1001e820 f i logFilter.obj
 0001:0001d830       ?sqlDateTime@logFilter@@ABE?AVQString@@ABV2@_N@Z 1001e830 f   logFilter.obj
 0001:0001e410       ?checkList@logFilter@@ABE_NQBVQStringList@@ABVQString@@@Z 1001f410 f   logFilter.obj
 0001:0001e670       ?setCaptionReturnAll@logFilter@@QAEXAAVQString@@@Z 1001f670 f   logFilter.obj
 0001:0001fdc0       ?setCaptionReturn@logFilter@@QAEXPBDAAVQString@@@Z 10020dc0 f   logFilter.obj
 0001:000201e0       ?setCaptionReturnState@logFilter@@ABE_NPBDAAVQString@@@Z 100211e0 f   logFilter.obj
 0001:00020920       ?setCaptionReturnLevel@logFilter@@ABE_NPBDAAVQString@@@Z 10021920 f   logFilter.obj
 0001:00020e00       ?setCaptionReturnDateTime@logFilter@@ABE_NPBDAAVQString@@@Z 10021e00 f   logFilter.obj
 0001:00021960       ?updateDateTimeTest@logFilter@@ABE_NABVQDateTime@@@Z 10022960 f   logFilter.obj
 0001:00022230       ?find@?$QValueListPrivate@VQString@@@@QBEPAV?$QValueListNode@VQString@@@@PAV2@ABVQString@@@Z 10023230 f i logFilter.obj
 0001:00022270       ??0?$QValueListNode@VQString@@@@QAE@XZ 10023270 f i logFilter.obj
 0001:000222a0       ?clear@?$QValueListPrivate@VQString@@@@QAEXXZ 100232a0 f i logFilter.obj
 0001:000223d0       ??0logLbi@@QAE@PAVQListView@@VQDateTime@@HHHVQString@@222_N@Z 100233d0 f   logLbi.obj
 0001:000225e0       ??_ElogLbi@@UAEPAXI@Z      100235e0 f i logLbi.obj
 0001:000225e0       ??_GlogLbi@@UAEPAXI@Z      100235e0 f i logLbi.obj
 0001:00022600       ??1logLbi@@UAE@XZ          10023600 f i logLbi.obj
 0001:000226e0       ?setValues@logLbi@@QAEXVQDateTime@@HHHVQString@@111@Z 100236e0 f   logLbi.obj
 0001:00022d20       ?paintCell@logLbi@@UAEXPAVQPainter@@ABVQColorGroup@@HHH@Z 10023d20 f   logLbi.obj
 0001:00022ff0       ?compare@logLbi@@MBEHPAVQListViewItem@@H_N@Z 10023ff0 f   logLbi.obj
 0001:000231c0       ?paintFocus@logLbi@@UAEXPAVQPainter@@ABVQColorGroup@@ABVQRect@@@Z 100241c0 f   logLbi.obj
 0001:000231d0       ?getLogItem@logLbi@@QAE?AVQString@@XZ 100241d0 f   logLbi.obj
 0001:00023530       ?setLogText@logLbi@@QAEXVQString@@@Z 10024530 f   logLbi.obj
 0001:000235b0       ?setup@logLbi@@UAEXXZ      100245b0 f   logLbi.obj
 0001:00023660       ?loadLocations@logLbi@@AAEXXZ 10024660 f   logLbi.obj
 0001:00023c60       ?getText@logLbi@@QAE?AVQString@@H@Z 10024c60 f   logLbi.obj
 0001:00024180       ?setShowMsec@logLbi@@SAX_N@Z 10025180 f   logLbi.obj
 0001:00024190       ?setColour@logLbi@@SAXPAVlogLbiColour@@@Z 10025190 f   logLbi.obj
 0001:000241a0       ?SetMinHeight@logLbi@@SAXH@Z 100251a0 f   logLbi.obj
 0001:000241b0       ?find@?$QMapPrivate@VQString@@V1@@@QBE?AV?$QMapConstIterator@VQString@@V1@@@ABVQString@@@Z 100251b0 f i logLbi.obj
 0001:00024220       ??0logLbiColour@@QAE@XZ    10025220 f   logLbiColour.obj
 0001:00024340       ??_ElogLbiColour@@UAEPAXI@Z 10025340 f i logLbiColour.obj
 0001:00024340       ??_GlogLbiColour@@UAEPAXI@Z 10025340 f i logLbiColour.obj
 0001:00024360       ??1logLbiColour@@UAE@XZ    10025360 f   logLbiColour.obj
 0001:00024370       ?setDefaultColours@logLbiColour@@QAEXXZ 10025370 f   logLbiColour.obj
 0001:00024600       ?setColours@logLbiColour@@QAE_NVQString@@@Z 10025600 f   logLbiColour.obj
 0001:00025520       ?getBackgroundColour@logLbiColour@@QAE?AVQColor@@HH@Z 10026520 f   logLbiColour.obj
 0001:00025690       ?getTextColour@logLbiColour@@QAE?AVQColor@@HH@Z 10026690 f   logLbiColour.obj
 0001:00025800       ??0CustomWidgetPlugin@@QAE@XZ 10026800 f   plugin.obj
 0001:00025820       ??_ECustomWidgetPlugin@@UAEPAXI@Z 10026820 f i plugin.obj
 0001:00025820       ??_GCustomWidgetPlugin@@UAEPAXI@Z 10026820 f i plugin.obj
 0001:00025840       ??1CustomWidgetPlugin@@UAE@XZ 10026840 f i plugin.obj
 0001:00025850       ?keys@CustomWidgetPlugin@@UBE?AVQStringList@@XZ 10026850 f   plugin.obj
 0001:00025a30       ?create@CustomWidgetPlugin@@UAEPAVQWidget@@ABVQString@@PAV2@PBD@Z 10026a30 f   plugin.obj
 0001:00025b60       ?group@CustomWidgetPlugin@@UBE?AVQString@@ABV2@@Z 10026b60 f   plugin.obj
 0001:00025be0       ?iconSet@CustomWidgetPlugin@@UBE?AVQIconSet@@ABVQString@@@Z 10026be0 f   plugin.obj
 0001:00025c60       ?includeFile@CustomWidgetPlugin@@UBE?AVQString@@ABV2@@Z 10026c60 f   plugin.obj
 0001:00025d10       ?toolTip@CustomWidgetPlugin@@UBE?AVQString@@ABV2@@Z 10026d10 f   plugin.obj
 0001:00025dc0       ?whatsThis@CustomWidgetPlugin@@UBE?AVQString@@ABV2@@Z 10026dc0 f   plugin.obj
 0001:00025e70       ?isContainer@CustomWidgetPlugin@@UBE_NABVQString@@@Z 10026e70 f   plugin.obj
 0001:00025e80       _qt_ucm_query_verification_data 10026e80 f   plugin.obj
 0001:00025e90       _ucm_instantiate           10026e90 f   plugin.obj
 0001:00025ec0       ??0bncs_data_form_editBase@@QAE@PAVQWidget@@PBD_NI@Z 10026ec0 f   bncs_data_form_edit.obj
 0001:000278d0       ?metaObject@bncs_data_form_editBase@@UBEPAVQMetaObject@@XZ 100288d0 f i bncs_data_form_edit.obj
 0001:000278e0       ??_EQSpacerItem@@UAEPAXI@Z 100288e0 f i bncs_data_form_edit.obj
 0001:000278e0       ??_GQSpacerItem@@UAEPAXI@Z 100288e0 f i bncs_data_form_edit.obj
 0001:00027900       ??_Gbncs_data_form_editBase@@UAEPAXI@Z 10028900 f i bncs_data_form_edit.obj
 0001:00027900       ??_Ebncs_data_form_editBase@@UAEPAXI@Z 10028900 f i bncs_data_form_edit.obj
 0001:00027920       ??_EQVBoxLayout@@UAEPAXI@Z 10028920 f i bncs_data_form_edit.obj
 0001:00027920       ??_GQVBoxLayout@@UAEPAXI@Z 10028920 f i bncs_data_form_edit.obj
 0001:00027940       ??_GQTabWidget@@UAEPAXI@Z  10028940 f i bncs_data_form_edit.obj
 0001:00027940       ??_EQTabWidget@@UAEPAXI@Z  10028940 f i bncs_data_form_edit.obj
 0001:00027960       ??_GQWidget@@UAEPAXI@Z     10028960 f i bncs_data_form_edit.obj
 0001:00027960       ??_EQWidget@@UAEPAXI@Z     10028960 f i bncs_data_form_edit.obj
 0001:00027980       ??_EQGroupBox@@UAEPAXI@Z   10028980 f i bncs_data_form_edit.obj
 0001:00027980       ??_GQGroupBox@@UAEPAXI@Z   10028980 f i bncs_data_form_edit.obj
 0001:000279a0       ??_EQGridLayout@@UAEPAXI@Z 100289a0 f i bncs_data_form_edit.obj
 0001:000279a0       ??_GQGridLayout@@UAEPAXI@Z 100289a0 f i bncs_data_form_edit.obj
 0001:000279c0       ??_EQLineEdit@@UAEPAXI@Z   100289c0 f i bncs_data_form_edit.obj
 0001:000279c0       ??_GQLineEdit@@UAEPAXI@Z   100289c0 f i bncs_data_form_edit.obj
 0001:000279e0       ??_EQLabel@@UAEPAXI@Z      100289e0 f i bncs_data_form_edit.obj
 0001:000279e0       ??_GQLabel@@UAEPAXI@Z      100289e0 f i bncs_data_form_edit.obj
 0001:00027a00       ??_EQComboBox@@UAEPAXI@Z   10028a00 f i bncs_data_form_edit.obj
 0001:00027a00       ??_GQComboBox@@UAEPAXI@Z   10028a00 f i bncs_data_form_edit.obj
 0001:00027a20       ??_GQListView@@UAEPAXI@Z   10028a20 f i bncs_data_form_edit.obj
 0001:00027a20       ??_EQListView@@UAEPAXI@Z   10028a20 f i bncs_data_form_edit.obj
 0001:00027a40       ??1bncs_data_form_editBase@@UAE@XZ 10028a40 f   bncs_data_form_edit.obj
 0001:00027a60       ?languageChange@bncs_data_form_editBase@@MAEXXZ 10028a60 f   bncs_data_form_edit.obj
 0001:000284b0       ??_EQVBoxLayout@@WCI@AEPAXI@Z 100294b0 f i bncs_data_form_edit.obj
 0001:000284c0       ??_EQGridLayout@@WCI@AEPAXI@Z 100294c0 f i bncs_data_form_edit.obj
 0001:000284d0       ??_EQTabWidget@@WCI@AEPAXI@Z 100294d0 f i bncs_data_form_edit.obj
 0001:000284e0       ??_EQGroupBox@@WCI@AEPAXI@Z 100294e0 f i bncs_data_form_edit.obj
 0001:000284f0       ??_EQLineEdit@@WCI@AEPAXI@Z 100294f0 f i bncs_data_form_edit.obj
 0001:00028500       ??_EQLabel@@WCI@AEPAXI@Z   10029500 f i bncs_data_form_edit.obj
 0001:00028510       ??_EQComboBox@@WCI@AEPAXI@Z 10029510 f i bncs_data_form_edit.obj
 0001:00028520       ??_EQListView@@WCI@AEPAXI@Z 10029520 f i bncs_data_form_edit.obj
 0001:00028530       ??_Ebncs_data_form_editBase@@WCI@AEPAXI@Z 10029530 f i bncs_data_form_edit.obj
 0001:00028540       ??_EQWidget@@WCI@AEPAXI@Z  10029540 f i bncs_data_form_edit.obj
 0001:00028550       ??0bncs_data_table_editBase@@QAE@PAVQWidget@@PBD_NI@Z 10029550 f   bncs_data_table_edit.obj
 0001:00029260       ?metaObject@bncs_data_table_editBase@@UBEPAVQMetaObject@@XZ 1002a260 f i bncs_data_table_edit.obj
 0001:00029270       ??_Ebncs_data_table_editBase@@UAEPAXI@Z 1002a270 f i bncs_data_table_edit.obj
 0001:00029270       ??_Gbncs_data_table_editBase@@UAEPAXI@Z 1002a270 f i bncs_data_table_edit.obj
 0001:00029290       ??_GQCheckBox@@UAEPAXI@Z   1002a290 f i bncs_data_table_edit.obj
 0001:00029290       ??_EQCheckBox@@UAEPAXI@Z   1002a290 f i bncs_data_table_edit.obj
 0001:000292b0       ??1bncs_data_table_editBase@@UAE@XZ 1002a2b0 f   bncs_data_table_edit.obj
 0001:000292d0       ?languageChange@bncs_data_table_editBase@@MAEXXZ 1002a2d0 f   bncs_data_table_edit.obj
 0001:00029780       ??_EQCheckBox@@WCI@AEPAXI@Z 1002a780 f i bncs_data_table_edit.obj
 0001:00029790       ??_Ebncs_data_table_editBase@@WCI@AEPAXI@Z 1002a790 f i bncs_data_table_edit.obj
 0001:000297a0       ??0bncs_log_editBase@@QAE@PAVQWidget@@PBD_NI@Z 1002a7a0 f   bncs_log_edit.obj
 0001:0002e990       ?metaObject@bncs_log_editBase@@UBEPAVQMetaObject@@XZ 1002f990 f i bncs_log_edit.obj
 0001:0002e9a0       ??_Ebncs_log_editBase@@UAEPAXI@Z 1002f9a0 f i bncs_log_edit.obj
 0001:0002e9a0       ??_Gbncs_log_editBase@@UAEPAXI@Z 1002f9a0 f i bncs_log_edit.obj
 0001:0002e9c0       ??_GQButtonGroup@@UAEPAXI@Z 1002f9c0 f i bncs_log_edit.obj
 0001:0002e9c0       ??_EQButtonGroup@@UAEPAXI@Z 1002f9c0 f i bncs_log_edit.obj
 0001:0002e9e0       ??_EQSpinBox@@UAEPAXI@Z    1002f9e0 f i bncs_log_edit.obj
 0001:0002e9e0       ??_GQSpinBox@@UAEPAXI@Z    1002f9e0 f i bncs_log_edit.obj
 0001:0002ea00       ??_GQRadioButton@@UAEPAXI@Z 1002fa00 f i bncs_log_edit.obj
 0001:0002ea00       ??_EQRadioButton@@UAEPAXI@Z 1002fa00 f i bncs_log_edit.obj
 0001:0002ea20       ??_EQDateEdit@@UAEPAXI@Z   1002fa20 f i bncs_log_edit.obj
 0001:0002ea20       ??_GQDateEdit@@UAEPAXI@Z   1002fa20 f i bncs_log_edit.obj
 0001:0002ea40       ??_GQDateTimeEdit@@UAEPAXI@Z 1002fa40 f i bncs_log_edit.obj
 0001:0002ea40       ??_EQDateTimeEdit@@UAEPAXI@Z 1002fa40 f i bncs_log_edit.obj
 0001:0002ea60       ??1bncs_log_editBase@@UAE@XZ 1002fa60 f   bncs_log_edit.obj
 0001:0002ea80       ?languageChange@bncs_log_editBase@@MAEXXZ 1002fa80 f   bncs_log_edit.obj
 0001:000309b0       ??_EQButtonGroup@@WCI@AEPAXI@Z 100319b0 f i bncs_log_edit.obj
 0001:000309c0       ??_EQSpinBox@@WCI@AEPAXI@Z 100319c0 f i bncs_log_edit.obj
 0001:000309d0       ??_EQSpinBox@@WGM@AEPAXI@Z 100319d0 f i bncs_log_edit.obj
 0001:000309e0       ??_EQRadioButton@@WCI@AEPAXI@Z 100319e0 f i bncs_log_edit.obj
 0001:000309f0       ??_EQDateEdit@@WCI@AEPAXI@Z 100319f0 f i bncs_log_edit.obj
 0001:00030a00       ??_EQDateTimeEdit@@WCI@AEPAXI@Z 10031a00 f i bncs_log_edit.obj
 0001:00030a10       ??_Ebncs_log_editBase@@WCI@AEPAXI@Z 10031a10 f i bncs_log_edit.obj
 0001:00030a20       ?className@FormWidget@@UBEPBDXZ 10031a20 f   moc_bncs_data_form.obj
 0001:00030a80       ?staticMetaObject@FormWidget@@SAPAVQMetaObject@@XZ 10031a80 f   moc_bncs_data_form.obj
 0001:00030ad0       ?qt_cast@FormWidget@@UAEPAXPBD@Z 10031ad0 f   moc_bncs_data_form.obj
 0001:00030b40       ?qt_invoke@FormWidget@@UAE_NHPAUQUObject@@@Z 10031b40 f   moc_bncs_data_form.obj
 0001:00030b60       ?qt_emit@FormWidget@@UAE_NHPAUQUObject@@@Z 10031b60 f   moc_bncs_data_form.obj
 0001:00030b80       ?qt_property@FormWidget@@UAE_NHHPAVQVariant@@@Z 10031b80 f   moc_bncs_data_form.obj
 0001:00030cc0       ?className@bncs_data_form@@UBEPBDXZ 10031cc0 f   moc_bncs_data_form.obj
 0001:00030d20       ?staticMetaObject@bncs_data_form@@SAPAVQMetaObject@@XZ 10031d20 f   moc_bncs_data_form.obj
 0001:00030dd0       ?qt_cast@bncs_data_form@@UAEPAXPBD@Z 10031dd0 f   moc_bncs_data_form.obj
 0001:00030e40       ?qt_invoke@bncs_data_form@@UAE_NHPAUQUObject@@@Z 10031e40 f   moc_bncs_data_form.obj
 0001:00030ee0       ?qt_emit@bncs_data_form@@UAE_NHPAUQUObject@@@Z 10031ee0 f   moc_bncs_data_form.obj
 0001:00030f00       ?qt_property@bncs_data_form@@UAE_NHHPAVQVariant@@@Z 10031f00 f   moc_bncs_data_form.obj
 0001:00030f20       ?className@bncs_data_form_editBase@@UBEPBDXZ 10031f20 f   moc_bncs_data_form_edit.obj
 0001:00030f80       ?tr@bncs_data_form_editBase@@SA?AVQString@@PBD0@Z 10031f80 f   moc_bncs_data_form_edit.obj
 0001:00030fd0       ?trUtf8@bncs_data_form_editBase@@SA?AVQString@@PBD0@Z 10031fd0 f   moc_bncs_data_form_edit.obj
 0001:00031020       ?staticMetaObject@bncs_data_form_editBase@@SAPAVQMetaObject@@XZ 10032020 f   moc_bncs_data_form_edit.obj
 0001:00031070       ?qt_cast@bncs_data_form_editBase@@UAEPAXPBD@Z 10032070 f   moc_bncs_data_form_edit.obj
 0001:000310e0       ?qt_invoke@bncs_data_form_editBase@@UAE_NHPAUQUObject@@@Z 100320e0 f   moc_bncs_data_form_edit.obj
 0001:00031120       ?className@bncs_data_form_edit@@UBEPBDXZ 10032120 f   moc_bncs_data_form_editimpl.obj
 0001:00031180       ?staticMetaObject@bncs_data_form_edit@@SAPAVQMetaObject@@XZ 10032180 f   moc_bncs_data_form_editimpl.obj
 0001:00031260       ?qt_cast@bncs_data_form_edit@@UAEPAXPBD@Z 10032260 f   moc_bncs_data_form_editimpl.obj
 0001:000312d0       ?qt_invoke@bncs_data_form_edit@@UAE_NHPAUQUObject@@@Z 100322d0 f   moc_bncs_data_form_editimpl.obj
 0001:00031390       ?qt_emit@bncs_data_form_edit@@UAE_NHPAUQUObject@@@Z 10032390 f   moc_bncs_data_form_editimpl.obj
 0001:00031390       ?qt_emit@bncs_data_table_edit@@UAE_NHPAUQUObject@@@Z 10032390 f   moc_bncs_data_form_editimpl.obj
 0001:00031390       ?qt_emit@bncs_log_edit@@UAE_NHPAUQUObject@@@Z 10032390 f   moc_bncs_data_form_editimpl.obj
 0001:000313b0       ?className@bncs_data_Table@@UBEPBDXZ 100323b0 f   moc_bncs_data_Table.obj
 0001:00031410       ?staticMetaObject@bncs_data_Table@@SAPAVQMetaObject@@XZ 10032410 f   moc_bncs_data_Table.obj
 0001:00031530       ?qt_cast@bncs_data_Table@@UAEPAXPBD@Z 10032530 f   moc_bncs_data_Table.obj
 0001:000315a0       ?qt_invoke@bncs_data_Table@@UAE_NHPAUQUObject@@@Z 100325a0 f   moc_bncs_data_Table.obj
 0001:00031650       ?qt_emit@bncs_data_Table@@UAE_NHPAUQUObject@@@Z 10032650 f   moc_bncs_data_Table.obj
 0001:00031670       ?qt_property@bncs_data_Table@@UAE_NHHPAVQVariant@@@Z 10032670 f   moc_bncs_data_Table.obj
 0001:00031690       ?className@bncs_data_table_editBase@@UBEPBDXZ 10032690 f   moc_bncs_data_table_edit.obj
 0001:000316f0       ?tr@bncs_data_table_editBase@@SA?AVQString@@PBD0@Z 100326f0 f   moc_bncs_data_table_edit.obj
 0001:00031740       ?trUtf8@bncs_data_table_editBase@@SA?AVQString@@PBD0@Z 10032740 f   moc_bncs_data_table_edit.obj
 0001:00031790       ?staticMetaObject@bncs_data_table_editBase@@SAPAVQMetaObject@@XZ 10032790 f   moc_bncs_data_table_edit.obj
 0001:000317e0       ?qt_cast@bncs_data_table_editBase@@UAEPAXPBD@Z 100327e0 f   moc_bncs_data_table_edit.obj
 0001:00031850       ?qt_invoke@bncs_data_table_editBase@@UAE_NHPAUQUObject@@@Z 10032850 f   moc_bncs_data_table_edit.obj
 0001:00031890       ?qt_emit@bncs_log_editBase@@UAE_NHPAUQUObject@@@Z 10032890 f   moc_bncs_data_table_edit.obj
 0001:00031890       ?qt_emit@bncs_data_form_editBase@@UAE_NHPAUQUObject@@@Z 10032890 f   moc_bncs_data_table_edit.obj
 0001:00031890       ?qt_emit@bncs_data_table_editBase@@UAE_NHPAUQUObject@@@Z 10032890 f   moc_bncs_data_table_edit.obj
 0001:000318b0       ?qt_property@bncs_data_table_editBase@@UAE_NHHPAVQVariant@@@Z 100328b0 f   moc_bncs_data_table_edit.obj
 0001:000318b0       ?qt_property@bncs_log_editBase@@UAE_NHHPAVQVariant@@@Z 100328b0 f   moc_bncs_data_table_edit.obj
 0001:000318b0       ?qt_property@bncs_data_form_editBase@@UAE_NHHPAVQVariant@@@Z 100328b0 f   moc_bncs_data_table_edit.obj
 0001:000318d0       ?className@bncs_data_table_edit@@UBEPBDXZ 100328d0 f   moc_bncs_data_table_editimpl.obj
 0001:00031930       ?staticMetaObject@bncs_data_table_edit@@SAPAVQMetaObject@@XZ 10032930 f   moc_bncs_data_table_editimpl.obj
 0001:00031980       ?qt_cast@bncs_data_table_edit@@UAEPAXPBD@Z 10032980 f   moc_bncs_data_table_editimpl.obj
 0001:000319f0       ?qt_invoke@bncs_data_table_edit@@UAE_NHPAUQUObject@@@Z 100329f0 f   moc_bncs_data_table_editimpl.obj
 0001:00031a30       ?qt_property@bncs_data_form_edit@@UAE_NHHPAVQVariant@@@Z 10032a30 f   moc_bncs_data_table_editimpl.obj
 0001:00031a30       ?qt_property@bncs_log_edit@@UAE_NHHPAVQVariant@@@Z 10032a30 f   moc_bncs_data_table_editimpl.obj
 0001:00031a30       ?qt_property@bncs_data_table_edit@@UAE_NHHPAVQVariant@@@Z 10032a30 f   moc_bncs_data_table_editimpl.obj
 0001:00031a50       ?className@bncs_log@@UBEPBDXZ 10032a50 f   moc_bncs_log.obj
 0001:00031ab0       ?staticMetaObject@bncs_log@@SAPAVQMetaObject@@XZ 10032ab0 f   moc_bncs_log.obj
 0001:00031be0       ?qt_cast@bncs_log@@UAEPAXPBD@Z 10032be0 f   moc_bncs_log.obj
 0001:00031d10       ?notify@bncs_log@@IAEXAAVQString@@@Z 10032d10 f   moc_bncs_log.obj
 0001:00031de0       ?qt_invoke@bncs_log@@UAE_NHPAUQUObject@@@Z 10032de0 f   moc_bncs_log.obj
 0001:00031ed0       ?qt_emit@bncs_log@@UAE_NHPAUQUObject@@@Z 10032ed0 f   moc_bncs_log.obj
 0001:00031f10       ?qt_property@bncs_log@@UAE_NHHPAVQVariant@@@Z 10032f10 f   moc_bncs_log.obj
 0001:00031f30       ?className@bncs_log_editBase@@UBEPBDXZ 10032f30 f   moc_bncs_log_edit.obj
 0001:00031f90       ?tr@bncs_log_editBase@@SA?AVQString@@PBD0@Z 10032f90 f   moc_bncs_log_edit.obj
 0001:00031fe0       ?trUtf8@bncs_log_editBase@@SA?AVQString@@PBD0@Z 10032fe0 f   moc_bncs_log_edit.obj
 0001:00032030       ?staticMetaObject@bncs_log_editBase@@SAPAVQMetaObject@@XZ 10033030 f   moc_bncs_log_edit.obj
 0001:00032080       ?qt_cast@bncs_log_editBase@@UAEPAXPBD@Z 10033080 f   moc_bncs_log_edit.obj
 0001:000320f0       ?qt_invoke@bncs_log_editBase@@UAE_NHPAUQUObject@@@Z 100330f0 f   moc_bncs_log_edit.obj
 0001:00032130       ?className@bncs_log_edit@@UBEPBDXZ 10033130 f   moc_bncs_log_editimpl.obj
 0001:00032190       ?staticMetaObject@bncs_log_edit@@SAPAVQMetaObject@@XZ 10033190 f   moc_bncs_log_editimpl.obj
 0001:00032390       ?qt_cast@bncs_log_edit@@UAEPAXPBD@Z 10033390 f   moc_bncs_log_editimpl.obj
 0001:00032400       ?qt_invoke@bncs_log_edit@@UAE_NHPAUQUObject@@@Z 10033400 f   moc_bncs_log_editimpl.obj
 0001:00032590       ??0dbConnection@@QAE@_NVQString@@QAVIDatabaseMessage@@@Z 10033590 f   dbConnection.obj
 0001:00032840       ??_EdbConnection@@UAEPAXI@Z 10033840 f i dbConnection.obj
 0001:00032840       ??_GdbConnection@@UAEPAXI@Z 10033840 f i dbConnection.obj
 0001:00032860       ??1ConnectionParams@dbConnection@@QAE@XZ 10033860 f i dbConnection.obj
 0001:00032930       ??_GQSemaphore@@UAEPAXI@Z  10033930 f i dbConnection.obj
 0001:00032930       ??_EQSemaphore@@UAEPAXI@Z  10033930 f i dbConnection.obj
 0001:00032950       ??1dbConnection@@UAE@XZ    10033950 f   dbConnection.obj
 0001:00032b00       ?lock@dbConnection@@QAEXXZ 10033b00 f   dbConnection.obj
 0001:00032b10       ?unlock@dbConnection@@QAEXXZ 10033b10 f   dbConnection.obj
 0001:00032b20       ?run@dbConnection@@UAEXXZ  10033b20 f   dbConnection.obj
 0001:00032c80       ?doOpen@dbConnection@@AAE_NABUConnectionParams@1@@Z 10033c80 f   dbConnection.obj
 0001:00033160       ?getDbase@dbConnection@@QAEPAVQSqlDatabase@@XZ 10034160 f   dbConnection.obj
 0001:00033190       ?lastError@dbConnection@@QAE?AVQString@@XZ 10034190 f   dbConnection.obj
 0001:000333d0       ?getCurrentDatabase@dbConnection@@QBE?AVQString@@XZ 100343d0 f   dbConnection.obj
 0001:00033400       ?getCurrentHost@dbConnection@@QBE?AVQString@@XZ 10034400 f   dbConnection.obj
 0001:00033430       _HtmlHelpA@16              10034430 f   htmlhelp:init.obj
 0001:00033528       ?setOn@QPushButton@@UAEX_N@Z 10034528 f   qt-mt323:qt-mt323.dll
 0001:0003352e       ?setIsMenuButton@QPushButton@@UAEX_N@Z 1003452e f   qt-mt323:qt-mt323.dll
 0001:00033534       ?setDefault@QPushButton@@UAEX_N@Z 10034534 f   qt-mt323:qt-mt323.dll
 0001:0003353a       ?setAutoDefault@QPushButton@@UAEX_N@Z 1003453a f   qt-mt323:qt-mt323.dll
 0001:00033540       ?setGroup@QButton@@EAEXPAVQButtonGroup@@@Z 10034540 f   qt-mt323:qt-mt323.dll
 0001:00033546       ?drawButtonLabel@QPushButton@@MAEXPAVQPainter@@@Z 10034546 f   qt-mt323:qt-mt323.dll
 0001:0003354c       ?drawButton@QPushButton@@MAEXPAVQPainter@@@Z 1003454c f   qt-mt323:qt-mt323.dll
 0001:00033552       ?hitButton@QButton@@MBE_NABVQPoint@@@Z 10034552 f   qt-mt323:qt-mt323.dll
 0001:00033558       ?setState@QButton@@MAEXW4ToggleState@1@@Z 10034558 f   qt-mt323:qt-mt323.dll
 0001:0003355e       ?setToggleType@QButton@@MAEXW4ToggleType@1@@Z 1003455e f   qt-mt323:qt-mt323.dll
 0001:00033564       ?setAutoRepeat@QButton@@UAEX_N@Z 10034564 f   qt-mt323:qt-mt323.dll
 0001:0003356a       ?setDown@QButton@@UAEX_N@Z 1003456a f   qt-mt323:qt-mt323.dll
 0001:00033570       ?setAccel@QButton@@UAEXABVQKeySequence@@@Z 10034570 f   qt-mt323:qt-mt323.dll
 0001:00033576       ?setPixmap@QButton@@UAEXABVQPixmap@@@Z 10034576 f   qt-mt323:qt-mt323.dll
 0001:0003357c       ?setText@QButton@@UAEXABVQString@@@Z 1003457c f   qt-mt323:qt-mt323.dll
 0001:00033582       ?enabledChange@QButton@@MAEX_N@Z 10034582 f   qt-mt323:qt-mt323.dll
 0001:00033588       ?updateMask@QPushButton@@MAEXXZ 10034588 f   qt-mt323:qt-mt323.dll
 0001:0003358e       ?resizeEvent@QPushButton@@MAEXPAVQResizeEvent@@@Z 1003458e f   qt-mt323:qt-mt323.dll
 0001:00033594       ?paintEvent@QButton@@MAEXPAVQPaintEvent@@@Z 10034594 f   qt-mt323:qt-mt323.dll
 0001:0003359a       ?focusOutEvent@QPushButton@@MAEXPAVQFocusEvent@@@Z 1003459a f   qt-mt323:qt-mt323.dll
 0001:000335a0       ?focusInEvent@QPushButton@@MAEXPAVQFocusEvent@@@Z 100345a0 f   qt-mt323:qt-mt323.dll
 0001:000335a6       ?keyReleaseEvent@QButton@@MAEXPAVQKeyEvent@@@Z 100345a6 f   qt-mt323:qt-mt323.dll
 0001:000335ac       ?keyPressEvent@QButton@@MAEXPAVQKeyEvent@@@Z 100345ac f   qt-mt323:qt-mt323.dll
 0001:000335b2       ?mouseMoveEvent@QButton@@MAEXPAVQMouseEvent@@@Z 100345b2 f   qt-mt323:qt-mt323.dll
 0001:000335b8       ?mouseReleaseEvent@QButton@@MAEXPAVQMouseEvent@@@Z 100345b8 f   qt-mt323:qt-mt323.dll
 0001:000335be       ?mousePressEvent@QButton@@MAEXPAVQMouseEvent@@@Z 100345be f   qt-mt323:qt-mt323.dll
 0001:000335c4       ?sizeHint@QPushButton@@UBE?AVQSize@@XZ 100345c4 f   qt-mt323:qt-mt323.dll
 0001:000335ca       ?setGeometry@QPushButton@@UAEXHHHH@Z 100345ca f   qt-mt323:qt-mt323.dll
 0001:000335d0       ?setGeometry@QPushButton@@UAEXABVQRect@@@Z 100345d0 f   qt-mt323:qt-mt323.dll
 0001:000335d6       ?resize@QPushButton@@UAEXHH@Z 100345d6 f   qt-mt323:qt-mt323.dll
 0001:000335dc       ?move@QPushButton@@UAEXHH@Z 100345dc f   qt-mt323:qt-mt323.dll
 0001:000335e2       ?polish@QWidget@@UAEXXZ    100345e2 f   qt-mt323:qt-mt323.dll
 0001:000335e8       ?setCaption@QWidget@@UAEXABVQString@@@Z 100345e8 f   qt-mt323:qt-mt323.dll
 0001:000335ee       ?qt_property@QPushButton@@UAE_NHHPAVQVariant@@@Z 100345ee f   qt-mt323:qt-mt323.dll
 0001:000335f4       ?qt_emit@QPushButton@@UAE_NHPAUQUObject@@@Z 100345f4 f   qt-mt323:qt-mt323.dll
 0001:000335fa       ?qt_invoke@QPushButton@@UAE_NHPAUQUObject@@@Z 100345fa f   qt-mt323:qt-mt323.dll
 0001:00033600       ?qt_cast@QPushButton@@UAEPAXPBD@Z 10034600 f   qt-mt323:qt-mt323.dll
 0001:00033606       ?className@QPushButton@@UBEPBDXZ 10034606 f   qt-mt323:qt-mt323.dll
 0001:0003360c       ?metaObject@QPushButton@@UBEPAVQMetaObject@@XZ 1003460c f   qt-mt323:qt-mt323.dll
 0001:00033612       ?event@QTimer@@MAE_NPAVQEvent@@@Z 10034612 f   qt-mt323:qt-mt323.dll
 0001:00033618       ?qt_property@QTimer@@UAE_NHHPAVQVariant@@@Z 10034618 f   qt-mt323:qt-mt323.dll
 0001:0003361e       ?qt_emit@QTimer@@UAE_NHPAUQUObject@@@Z 1003461e f   qt-mt323:qt-mt323.dll
 0001:00033624       ?qt_invoke@QTimer@@UAE_NHPAUQUObject@@@Z 10034624 f   qt-mt323:qt-mt323.dll
 0001:0003362a       ?qt_cast@QTimer@@UAEPAXPBD@Z 1003462a f   qt-mt323:qt-mt323.dll
 0001:00033630       ?className@QTimer@@UBEPBDXZ 10034630 f   qt-mt323:qt-mt323.dll
 0001:00033636       ?metaObject@QTimer@@UBEPAVQMetaObject@@XZ 10034636 f   qt-mt323:qt-mt323.dll
 0001:0003363c       ?fontInf@QPaintDevice@@MBEHPAVQFont@@H@Z 1003463c f   qt-mt323:qt-mt323.dll
 0001:00033642       ?fontMet@QPaintDevice@@MBEHPAVQFont@@HPBDH@Z 10034642 f   qt-mt323:qt-mt323.dll
 0001:00033648       ?metric@QWidget@@MBEHH@Z   10034648 f   qt-mt323:qt-mt323.dll
 0001:0003364e       ?cmd@QPaintDevice@@MAE_NHPAVQPainter@@PATQPDevCmdParam@@@Z 1003464e f   qt-mt323:qt-mt323.dll
 0001:00033654       ?handle@QPaintDevice@@UBEPAUHDC__@@XZ 10034654 f   qt-mt323:qt-mt323.dll
 0001:0003365a       ?resolution@QPaintDevice@@UBEHXZ 1003465a f   qt-mt323:qt-mt323.dll
 0001:00033660       ?setResolution@QPaintDevice@@UAEXH@Z 10034660 f   qt-mt323:qt-mt323.dll
 0001:00033666       ?handleError@QDataBrowser@@MAEXABVQSqlError@@@Z 10034666 f   qt-mt323:qt-mt323.dll
 0001:0003366c       ?confirmCancel@QDataBrowser@@MAE?AW4Confirm@QSql@@W4Op@3@@Z 1003466c f   qt-mt323:qt-mt323.dll
 0001:00033672       ?confirmEdit@QDataBrowser@@MAE?AW4Confirm@QSql@@W4Op@3@@Z 10034672 f   qt-mt323:qt-mt323.dll
 0001:00033678       ?currentEdited@QDataBrowser@@MAE_NXZ 10034678 f   qt-mt323:qt-mt323.dll
 0001:0003367e       ?deleteCurrent@QDataBrowser@@MAE_NXZ 1003467e f   qt-mt323:qt-mt323.dll
 0001:00033684       ?updateCurrent@QDataBrowser@@MAE_NXZ 10034684 f   qt-mt323:qt-mt323.dll
 0001:0003368a       ?insertCurrent@QDataBrowser@@MAE_NXZ 1003468a f   qt-mt323:qt-mt323.dll
 0001:00033690       ?clearValues@QDataBrowser@@UAEXXZ 10034690 f   qt-mt323:qt-mt323.dll
 0001:00033696       ?writeFields@QDataBrowser@@UAEXXZ 10034696 f   qt-mt323:qt-mt323.dll
 0001:0003369c       ?readFields@QDataBrowser@@UAEXXZ 1003469c f   qt-mt323:qt-mt323.dll
 0001:000336a2       ?prev@QDataBrowser@@UAEXXZ 100346a2 f   qt-mt323:qt-mt323.dll
 0001:000336a8       ?next@QDataBrowser@@UAEXXZ 100346a8 f   qt-mt323:qt-mt323.dll
 0001:000336ae       ?last@QDataBrowser@@UAEXXZ 100346ae f   qt-mt323:qt-mt323.dll
 0001:000336b4       ?first@QDataBrowser@@UAEXXZ 100346b4 f   qt-mt323:qt-mt323.dll
 0001:000336ba       ?del@QDataBrowser@@UAEXXZ  100346ba f   qt-mt323:qt-mt323.dll
 0001:000336c0       ?update@QDataBrowser@@UAEXXZ 100346c0 f   qt-mt323:qt-mt323.dll
 0001:000336c6       ?insert@QDataBrowser@@UAEXXZ 100346c6 f   qt-mt323:qt-mt323.dll
 0001:000336cc       ?refresh@QDataBrowser@@UAEXXZ 100346cc f   qt-mt323:qt-mt323.dll
 0001:000336d2       ?seek@QDataBrowser@@UAE_NH_N@Z 100346d2 f   qt-mt323:qt-mt323.dll
 0001:000336d8       ?setAutoEdit@QDataBrowser@@UAEX_N@Z 100346d8 f   qt-mt323:qt-mt323.dll
 0001:000336de       ?setReadOnly@QDataBrowser@@UAEX_N@Z 100346de f   qt-mt323:qt-mt323.dll
 0001:000336e4       ?setConfirmCancels@QDataBrowser@@UAEX_N@Z 100346e4 f   qt-mt323:qt-mt323.dll
 0001:000336ea       ?setConfirmDelete@QDataBrowser@@UAEX_N@Z 100346ea f   qt-mt323:qt-mt323.dll
 0001:000336f0       ?setConfirmUpdate@QDataBrowser@@UAEX_N@Z 100346f0 f   qt-mt323:qt-mt323.dll
 0001:000336f6       ?setConfirmInsert@QDataBrowser@@UAEX_N@Z 100346f6 f   qt-mt323:qt-mt323.dll
 0001:000336fc       ?setConfirmEdits@QDataBrowser@@UAEX_N@Z 100346fc f   qt-mt323:qt-mt323.dll
 0001:00033702       ?setForm@QDataBrowser@@UAEXPAVQSqlForm@@@Z 10034702 f   qt-mt323:qt-mt323.dll
 0001:00033708       ?setSqlCursor@QDataBrowser@@UAEXPAVQSqlCursor@@_N@Z 10034708 f   qt-mt323:qt-mt323.dll
 0001:0003370e       ?setMicroFocusHint@QWidget@@MAEXHHHH_NPAVQFont@@@Z 1003470e f   qt-mt323:qt-mt323.dll
 0001:00033714       ?setKeyCompression@QWidget@@MAEX_N@Z 10034714 f   qt-mt323:qt-mt323.dll
 0001:0003371a       ?focusNextPrevChild@QWidget@@MAE_N_N@Z 1003471a f   qt-mt323:qt-mt323.dll
 0001:00033720       ?setWFlags@QWidget@@MAEXI@Z 10034720 f   qt-mt323:qt-mt323.dll
 0001:00033726       ?setWState@QWidget@@MAEXI@Z 10034726 f   qt-mt323:qt-mt323.dll
 0001:0003372c       ?destroy@QWidget@@MAEX_N0@Z 1003472c f   qt-mt323:qt-mt323.dll
 0001:00033732       ?create@QWidget@@MAEXPAUHWND__@@_N1@Z 10034732 f   qt-mt323:qt-mt323.dll
 0001:00033738       ?windowActivationChange@QWidget@@MAEX_N@Z 10034738 f   qt-mt323:qt-mt323.dll
 0001:0003373e       ?fontChange@QWidget@@MAEXABVQFont@@@Z 1003473e f   qt-mt323:qt-mt323.dll
 0001:00033744       ?paletteChange@QWidget@@MAEXABVQPalette@@@Z 10034744 f   qt-mt323:qt-mt323.dll
 0001:0003374a       ?enabledChange@QWidget@@MAEX_N@Z 1003474a f   qt-mt323:qt-mt323.dll
 0001:00033750       ?styleChange@QWidget@@MAEXAAVQStyle@@@Z 10034750 f   qt-mt323:qt-mt323.dll
 0001:00033756       ?updateMask@QWidget@@MAEXXZ 10034756 f   qt-mt323:qt-mt323.dll
 0001:0003375c       ?winEvent@QWidget@@MAE_NPAUtagMSG@@@Z 1003475c f   qt-mt323:qt-mt323.dll
 0001:00033762       ?hideEvent@QWidget@@MAEXPAVQHideEvent@@@Z 10034762 f   qt-mt323:qt-mt323.dll
 0001:00033768       ?showEvent@QWidget@@MAEXPAVQShowEvent@@@Z 10034768 f   qt-mt323:qt-mt323.dll
 0001:0003376e       ?dropEvent@QWidget@@MAEXPAVQDropEvent@@@Z 1003476e f   qt-mt323:qt-mt323.dll
 0001:00033774       ?dragLeaveEvent@QWidget@@MAEXPAVQDragLeaveEvent@@@Z 10034774 f   qt-mt323:qt-mt323.dll
 0001:0003377a       ?dragMoveEvent@QWidget@@MAEXPAVQDragMoveEvent@@@Z 1003477a f   qt-mt323:qt-mt323.dll
 0001:00033780       ?dragEnterEvent@QWidget@@MAEXPAVQDragEnterEvent@@@Z 10034780 f   qt-mt323:qt-mt323.dll
 0001:00033786       ?tabletEvent@QWidget@@MAEXPAVQTabletEvent@@@Z 10034786 f   qt-mt323:qt-mt323.dll
 0001:0003378c       ?imEndEvent@QWidget@@MAEXPAVQIMEvent@@@Z 1003478c f   qt-mt323:qt-mt323.dll
 0001:00033792       ?imComposeEvent@QWidget@@MAEXPAVQIMEvent@@@Z 10034792 f   qt-mt323:qt-mt323.dll
 0001:00033798       ?imStartEvent@QWidget@@MAEXPAVQIMEvent@@@Z 10034798 f   qt-mt323:qt-mt323.dll
 0001:0003379e       ?contextMenuEvent@QWidget@@MAEXPAVQContextMenuEvent@@@Z 1003479e f   qt-mt323:qt-mt323.dll
 0001:000337a4       ?closeEvent@QWidget@@MAEXPAVQCloseEvent@@@Z 100347a4 f   qt-mt323:qt-mt323.dll
 0001:000337aa       ?resizeEvent@QWidget@@MAEXPAVQResizeEvent@@@Z 100347aa f   qt-mt323:qt-mt323.dll
 0001:000337b0       ?moveEvent@QWidget@@MAEXPAVQMoveEvent@@@Z 100347b0 f   qt-mt323:qt-mt323.dll
 0001:000337b6       ?paintEvent@QWidget@@MAEXPAVQPaintEvent@@@Z 100347b6 f   qt-mt323:qt-mt323.dll
 0001:000337bc       ?leaveEvent@QWidget@@MAEXPAVQEvent@@@Z 100347bc f   qt-mt323:qt-mt323.dll
 0001:000337c2       ?enterEvent@QWidget@@MAEXPAVQEvent@@@Z 100347c2 f   qt-mt323:qt-mt323.dll
 0001:000337c8       ?focusOutEvent@QWidget@@MAEXPAVQFocusEvent@@@Z 100347c8 f   qt-mt323:qt-mt323.dll
 0001:000337ce       ?focusInEvent@QWidget@@MAEXPAVQFocusEvent@@@Z 100347ce f   qt-mt323:qt-mt323.dll
 0001:000337d4       ?keyReleaseEvent@QWidget@@MAEXPAVQKeyEvent@@@Z 100347d4 f   qt-mt323:qt-mt323.dll
 0001:000337da       ?keyPressEvent@QWidget@@MAEXPAVQKeyEvent@@@Z 100347da f   qt-mt323:qt-mt323.dll
 0001:000337e0       ?wheelEvent@QWidget@@MAEXPAVQWheelEvent@@@Z 100347e0 f   qt-mt323:qt-mt323.dll
 0001:000337e6       ?mouseMoveEvent@QWidget@@MAEXPAVQMouseEvent@@@Z 100347e6 f   qt-mt323:qt-mt323.dll
 0001:000337ec       ?mouseDoubleClickEvent@QWidget@@MAEXPAVQMouseEvent@@@Z 100347ec f   qt-mt323:qt-mt323.dll
 0001:000337f2       ?mouseReleaseEvent@QWidget@@MAEXPAVQMouseEvent@@@Z 100347f2 f   qt-mt323:qt-mt323.dll
 0001:000337f8       ?mousePressEvent@QWidget@@MAEXPAVQMouseEvent@@@Z 100347f8 f   qt-mt323:qt-mt323.dll
 0001:000337fe       ?customWhatsThis@QWidget@@UBE_NXZ 100347fe f   qt-mt323:qt-mt323.dll
 0001:00033804       ?setBackgroundOrigin@QWidget@@UAEXW4BackgroundOrigin@1@@Z 10034804 f   qt-mt323:qt-mt323.dll
 0001:0003380a       ?setAutoMask@QWidget@@UAEX_N@Z 1003480a f   qt-mt323:qt-mt323.dll
 0001:00033810       ?setAcceptDrops@QWidget@@UAEX_N@Z 10034810 f   qt-mt323:qt-mt323.dll
 0001:00033816       ?reparent@QWidget@@UAEXPAV1@IABVQPoint@@_N@Z 10034816 f   qt-mt323:qt-mt323.dll
 0001:0003381c       ?adjustSize@QWidget@@UAEXXZ 1003481c f   qt-mt323:qt-mt323.dll
 0001:00033822       ?heightForWidth@QWidget@@UBEHH@Z 10034822 f   qt-mt323:qt-mt323.dll
 0001:00033828       ?setSizePolicy@QWidget@@UAEXVQSizePolicy@@@Z 10034828 f   qt-mt323:qt-mt323.dll
 0001:0003382e       ?sizePolicy@QWidget@@UBE?AVQSizePolicy@@XZ 1003482e f   qt-mt323:qt-mt323.dll
 0001:00033834       ?minimumSizeHint@QWidget@@UBE?AVQSize@@XZ 10034834 f   qt-mt323:qt-mt323.dll
 0001:0003383a       ?sizeHint@QWidget@@UBE?AVQSize@@XZ 1003483a f   qt-mt323:qt-mt323.dll
 0001:00033840       ?setGeometry@QWidget@@UAEXHHHH@Z 10034840 f   qt-mt323:qt-mt323.dll
 0001:00033846       ?setGeometry@QWidget@@UAEXABVQRect@@@Z 10034846 f   qt-mt323:qt-mt323.dll
 0001:0003384c       ?resize@QWidget@@UAEXHH@Z  1003484c f   qt-mt323:qt-mt323.dll
 0001:00033852       ?move@QWidget@@UAEXHH@Z    10034852 f   qt-mt323:qt-mt323.dll
 0001:00033858       ?close@QWidget@@UAE_N_N@Z  10034858 f   qt-mt323:qt-mt323.dll
 0001:0003385e       ?showNormal@QWidget@@UAEXXZ 1003485e f   qt-mt323:qt-mt323.dll
 0001:00033864       ?showMaximized@QWidget@@UAEXXZ 10034864 f   qt-mt323:qt-mt323.dll
 0001:0003386a       ?showMinimized@QWidget@@UAEXXZ 1003486a f   qt-mt323:qt-mt323.dll
 0001:00033870       ?hide@QWidget@@UAEXXZ      10034870 f   qt-mt323:qt-mt323.dll
 0001:00033876       ?show@QWidget@@UAEXXZ      10034876 f   qt-mt323:qt-mt323.dll
 0001:0003387c       ?setUpdatesEnabled@QWidget@@UAEX_N@Z 1003487c f   qt-mt323:qt-mt323.dll
 0001:00033882       ?setFocusProxy@QWidget@@UAEXPAV1@@Z 10034882 f   qt-mt323:qt-mt323.dll
 0001:00033888       ?setFocusPolicy@QWidget@@UAEXW4FocusPolicy@1@@Z 10034888 f   qt-mt323:qt-mt323.dll
 0001:0003388e       ?setActiveWindow@QWidget@@UAEXXZ 1003488e f   qt-mt323:qt-mt323.dll
 0001:00033894       ?setFocus@QWidget@@UAEXXZ  10034894 f   qt-mt323:qt-mt323.dll
 0001:0003389a       ?setMouseTracking@QWidget@@UAEX_N@Z 1003489a f   qt-mt323:qt-mt323.dll
 0001:000338a0       ?setIconText@QWidget@@UAEXABVQString@@@Z 100348a0 f   qt-mt323:qt-mt323.dll
 0001:000338a6       ?setIcon@QWidget@@UAEXABVQPixmap@@@Z 100348a6 f   qt-mt323:qt-mt323.dll
 0001:000338ac       ?setBackgroundPixmap@QWidget@@UAEXABVQPixmap@@@Z 100348ac f   qt-mt323:qt-mt323.dll
 0001:000338b2       ?setBackgroundColor@QWidget@@UAEXABVQColor@@@Z 100348b2 f   qt-mt323:qt-mt323.dll
 0001:000338b8       ?setMask@QWidget@@UAEXABVQBitmap@@@Z 100348b8 f   qt-mt323:qt-mt323.dll
 0001:000338be       ?setMask@QWidget@@UAEXABVQRegion@@@Z 100348be f   qt-mt323:qt-mt323.dll
 0001:000338c4       ?unsetCursor@QWidget@@UAEXXZ 100348c4 f   qt-mt323:qt-mt323.dll
 0001:000338ca       ?setCursor@QWidget@@UAEXABVQCursor@@@Z 100348ca f   qt-mt323:qt-mt323.dll
 0001:000338d0       ?setFont@QWidget@@UAEXABVQFont@@@Z 100348d0 f   qt-mt323:qt-mt323.dll
 0001:000338d6       ?setPaletteBackgroundPixmap@QWidget@@UAEXABVQPixmap@@@Z 100348d6 f   qt-mt323:qt-mt323.dll
 0001:000338dc       ?setPaletteBackgroundColor@QWidget@@UAEXABVQColor@@@Z 100348dc f   qt-mt323:qt-mt323.dll
 0001:000338e2       ?setPalette@QWidget@@UAEXABVQPalette@@@Z 100348e2 f   qt-mt323:qt-mt323.dll
 0001:000338e8       ?setErasePixmap@QWidget@@UAEXABVQPixmap@@@Z 100348e8 f   qt-mt323:qt-mt323.dll
 0001:000338ee       ?setEraseColor@QWidget@@UAEXABVQColor@@@Z 100348ee f   qt-mt323:qt-mt323.dll
 0001:000338f4       ?setBackgroundMode@QWidget@@UAEXW4BackgroundMode@Qt@@@Z 100348f4 f   qt-mt323:qt-mt323.dll
 0001:000338fa       ?setSizeIncrement@QWidget@@UAEXHH@Z 100348fa f   qt-mt323:qt-mt323.dll
 0001:00033900       ?setMaximumSize@QWidget@@UAEXHH@Z 10034900 f   qt-mt323:qt-mt323.dll
 0001:00033906       ?setMinimumSize@QWidget@@UAEXHH@Z 10034906 f   qt-mt323:qt-mt323.dll
 0001:0003390c       ?setEnabled@QWidget@@UAEX_N@Z 1003490c f   qt-mt323:qt-mt323.dll
 0001:00033912       ?childEvent@QObject@@MAEXPAVQChildEvent@@@Z 10034912 f   qt-mt323:qt-mt323.dll
 0001:00033918       ?setName@QWidget@@UAEXPBD@Z 10034918 f   qt-mt323:qt-mt323.dll
 0001:0003391e       ?eventFilter@QObject@@UAE_NPAV1@PAVQEvent@@@Z 1003491e f   qt-mt323:qt-mt323.dll
 0001:00033924       ?event@QWidget@@MAE_NPAVQEvent@@@Z 10034924 f   qt-mt323:qt-mt323.dll
 0001:0003392a       ?setAlignment@QLayoutItem@@UAEXH@Z 1003492a f   qt-mt323:qt-mt323.dll
 0001:00033930       ?spacerItem@QLayoutItem@@UAEPAVQSpacerItem@@XZ 10034930 f   qt-mt323:qt-mt323.dll
 0001:00033936       ?layout@QLayout@@UAEPAV1@XZ 10034936 f   qt-mt323:qt-mt323.dll
 0001:0003393c       ?iterator@QBoxLayout@@UAE?AVQLayoutIterator@@XZ 1003493c f   qt-mt323:qt-mt323.dll
 0001:00033942       ?widget@QLayoutItem@@UAEPAVQWidget@@XZ 10034942 f   qt-mt323:qt-mt323.dll
 0001:00033948       ?invalidate@QBoxLayout@@UAEXXZ 10034948 f   qt-mt323:qt-mt323.dll
 0001:0003394e       ?heightForWidth@QBoxLayout@@UBEHH@Z 1003494e f   qt-mt323:qt-mt323.dll
 0001:00033954       ?hasHeightForWidth@QBoxLayout@@UBE_NXZ 10034954 f   qt-mt323:qt-mt323.dll
 0001:0003395a       ?isEmpty@QLayout@@UBE_NXZ  1003495a f   qt-mt323:qt-mt323.dll
 0001:00033960       ?geometry@QLayout@@UBE?AVQRect@@XZ 10034960 f   qt-mt323:qt-mt323.dll
 0001:00033966       ?setGeometry@QBoxLayout@@UAEXABVQRect@@@Z 10034966 f   qt-mt323:qt-mt323.dll
 0001:0003396c       ?expanding@QBoxLayout@@UBE?AW4ExpandData@QSizePolicy@@XZ 1003496c f   qt-mt323:qt-mt323.dll
 0001:00033972       ?maximumSize@QBoxLayout@@UBE?AVQSize@@XZ 10034972 f   qt-mt323:qt-mt323.dll
 0001:00033978       ?minimumSize@QBoxLayout@@UBE?AVQSize@@XZ 10034978 f   qt-mt323:qt-mt323.dll
 0001:0003397e       ?sizeHint@QBoxLayout@@UBE?AVQSize@@XZ 1003497e f   qt-mt323:qt-mt323.dll
 0001:00033984       ?addItem@QBoxLayout@@UAEXPAVQLayoutItem@@@Z 10034984 f   qt-mt323:qt-mt323.dll
 0001:0003398a       ?setAutoAdd@QLayout@@UAEX_N@Z 1003498a f   qt-mt323:qt-mt323.dll
 0001:00033990       ?setMenuBar@QLayout@@UAEXPAVQMenuBar@@@Z 10034990 f   qt-mt323:qt-mt323.dll
 0001:00033996       ?setSpacing@QLayout@@UAEXH@Z 10034996 f   qt-mt323:qt-mt323.dll
 0001:0003399c       ?setMargin@QLayout@@UAEXH@Z 1003499c f   qt-mt323:qt-mt323.dll
 0001:000339a2       ?checkConnectArgs@QObject@@MAE_NPBDPBV1@0@Z 100349a2 f   qt-mt323:qt-mt323.dll
 0001:000339a8       ?disconnectNotify@QObject@@MAEXPBD@Z 100349a8 f   qt-mt323:qt-mt323.dll
 0001:000339ae       ?connectNotify@QObject@@MAEXPBD@Z 100349ae f   qt-mt323:qt-mt323.dll
 0001:000339b4       ?customEvent@QObject@@MAEXPAVQCustomEvent@@@Z 100349b4 f   qt-mt323:qt-mt323.dll
 0001:000339ba       ?childEvent@QLayout@@MAEXPAVQChildEvent@@@Z 100349ba f   qt-mt323:qt-mt323.dll
 0001:000339c0       ?timerEvent@QObject@@MAEXPAVQTimerEvent@@@Z 100349c0 f   qt-mt323:qt-mt323.dll
 0001:000339c6       ?property@QObject@@UBE?AVQVariant@@PBD@Z 100349c6 f   qt-mt323:qt-mt323.dll
 0001:000339cc       ?setProperty@QObject@@UAE_NPBDABVQVariant@@@Z 100349cc f   qt-mt323:qt-mt323.dll
 0001:000339d2       ?removeChild@QObject@@UAEXPAV1@@Z 100349d2 f   qt-mt323:qt-mt323.dll
 0001:000339d8       ?insertChild@QObject@@UAEXPAV1@@Z 100349d8 f   qt-mt323:qt-mt323.dll
 0001:000339de       ?setName@QObject@@UAEXPBD@Z 100349de f   qt-mt323:qt-mt323.dll
 0001:000339e4       ?eventFilter@QLayout@@MAE_NPAVQObject@@PAVQEvent@@@Z 100349e4 f   qt-mt323:qt-mt323.dll
 0001:000339ea       ?event@QObject@@UAE_NPAVQEvent@@@Z 100349ea f   qt-mt323:qt-mt323.dll
 0001:000339f0       ?qt_property@QHBoxLayout@@UAE_NHHPAVQVariant@@@Z 100349f0 f   qt-mt323:qt-mt323.dll
 0001:000339f6       ?qt_emit@QHBoxLayout@@UAE_NHPAUQUObject@@@Z 100349f6 f   qt-mt323:qt-mt323.dll
 0001:000339fc       ?qt_invoke@QHBoxLayout@@UAE_NHPAUQUObject@@@Z 100349fc f   qt-mt323:qt-mt323.dll
 0001:00033a02       ?qt_cast@QHBoxLayout@@UAEPAXPBD@Z 10034a02 f   qt-mt323:qt-mt323.dll
 0001:00033a08       ?className@QHBoxLayout@@UBEPBDXZ 10034a08 f   qt-mt323:qt-mt323.dll
 0001:00033a0e       ?metaObject@QHBoxLayout@@UBEPAVQMetaObject@@XZ 10034a0e f   qt-mt323:qt-mt323.dll
 0001:00033a14       ?cancelRename@QListViewItem@@MAEXH@Z 10034a14 f   qt-mt323:qt-mt323.dll
 0001:00033a1a       ?okRename@QListViewItem@@MAEXH@Z 10034a1a f   qt-mt323:qt-mt323.dll
 0001:00033a20       ?dragLeft@QListViewItem@@MAEXXZ 10034a20 f   qt-mt323:qt-mt323.dll
 0001:00033a26       ?dragEntered@QListViewItem@@MAEXXZ 10034a26 f   qt-mt323:qt-mt323.dll
 0001:00033a2c       ?dropped@QListViewItem@@MAEXPAVQDropEvent@@@Z 10034a2c f   qt-mt323:qt-mt323.dll
 0001:00033a32       ?activate@QListViewItem@@MAEXXZ 10034a32 f   qt-mt323:qt-mt323.dll
 0001:00033a38       ?setHeight@QListViewItem@@MAEXH@Z 10034a38 f   qt-mt323:qt-mt323.dll
 0001:00033a3e       ?enforceSortOrder@QListViewItem@@MBEXXZ 10034a3e f   qt-mt323:qt-mt323.dll
 0001:00033a44       ?setMultiLinesEnabled@QListViewItem@@UAEX_N@Z 10034a44 f   qt-mt323:qt-mt323.dll
 0001:00033a4a       ?rtti@QListViewItem@@UBEHXZ 10034a4a f   qt-mt323:qt-mt323.dll
 0001:00033a50       ?setEnabled@QListViewItem@@UAEX_N@Z 10034a50 f   qt-mt323:qt-mt323.dll
 0001:00033a56       ?startRename@QListViewItem@@UAEXH@Z 10034a56 f   qt-mt323:qt-mt323.dll
 0001:00033a5c       ?setRenameEnabled@QListViewItem@@UAEXH_N@Z 10034a5c f   qt-mt323:qt-mt323.dll
 0001:00033a62       ?acceptDrop@QListViewItem@@UBE_NPBVQMimeSource@@@Z 10034a62 f   qt-mt323:qt-mt323.dll
 0001:00033a68       ?setDropEnabled@QListViewItem@@UAEX_N@Z 10034a68 f   qt-mt323:qt-mt323.dll
 0001:00033a6e       ?setDragEnabled@QListViewItem@@UAEX_N@Z 10034a6e f   qt-mt323:qt-mt323.dll
 0001:00033a74       ?sort@QListViewItem@@UAEXXZ 10034a74 f   qt-mt323:qt-mt323.dll
 0001:00033a7a       ?setExpandable@QListViewItem@@UAEX_N@Z 10034a7a f   qt-mt323:qt-mt323.dll
 0001:00033a80       ?setSelectable@QListViewItem@@UAEX_N@Z 10034a80 f   qt-mt323:qt-mt323.dll
 0001:00033a86       ?paintFocus@QListViewItem@@UAEXPAVQPainter@@ABVQColorGroup@@ABVQRect@@@Z 10034a86 f   qt-mt323:qt-mt323.dll
 0001:00033a8c       ?paintBranches@QListViewItem@@UAEXPAVQPainter@@ABVQColorGroup@@HHH@Z 10034a8c f   qt-mt323:qt-mt323.dll
 0001:00033a92       ?paintCell@QListViewItem@@UAEXPAVQPainter@@ABVQColorGroup@@HHH@Z 10034a92 f   qt-mt323:qt-mt323.dll
 0001:00033a98       ?setSelected@QListViewItem@@UAEX_N@Z 10034a98 f   qt-mt323:qt-mt323.dll
 0001:00033a9e       ?setup@QListViewItem@@UAEXXZ 10034a9e f   qt-mt323:qt-mt323.dll
 0001:00033aa4       ?setOpen@QListViewItem@@UAEX_N@Z 10034aa4 f   qt-mt323:qt-mt323.dll
 0001:00033aaa       ?sortChildItems@QListViewItem@@UAEXH_N@Z 10034aaa f   qt-mt323:qt-mt323.dll
 0001:00033ab0       ?compare@QListViewItem@@UBEHPAV1@H_N@Z 10034ab0 f   qt-mt323:qt-mt323.dll
 0001:00033ab6       ?key@QListViewItem@@UBE?AVQString@@H_N@Z 10034ab6 f   qt-mt323:qt-mt323.dll
 0001:00033abc       ?pixmap@QListViewItem@@UBEPBVQPixmap@@H@Z 10034abc f   qt-mt323:qt-mt323.dll
 0001:00033ac2       ?setPixmap@QListViewItem@@UAEXHABVQPixmap@@@Z 10034ac2 f   qt-mt323:qt-mt323.dll
 0001:00033ac8       ?text@QListViewItem@@UBE?AVQString@@H@Z 10034ac8 f   qt-mt323:qt-mt323.dll
 0001:00033ace       ?setText@QListViewItem@@UAEXHABVQString@@@Z 10034ace f   qt-mt323:qt-mt323.dll
 0001:00033ad4       ?width@QListViewItem@@UBEHABVQFontMetrics@@PBVQListView@@H@Z 10034ad4 f   qt-mt323:qt-mt323.dll
 0001:00033ada       ?invalidateHeight@QListViewItem@@UAEXXZ 10034ada f   qt-mt323:qt-mt323.dll
 0001:00033ae0       ?removeItem@QListViewItem@@UAEXPAV1@@Z 10034ae0 f   qt-mt323:qt-mt323.dll
 0001:00033ae6       ?takeItem@QListViewItem@@UAEXPAV1@@Z 10034ae6 f   qt-mt323:qt-mt323.dll
 0001:00033aec       ?insertItem@QListViewItem@@UAEXPAV1@@Z 10034aec f   qt-mt323:qt-mt323.dll
 0001:00033af2       ?sync@QSqlForm@@EAEXXZ     10034af2 f   qt-mt323:qt-mt323.dll
 0001:00033af8       ?clearValues@QSqlForm@@UAEX_N@Z 10034af8 f   qt-mt323:qt-mt323.dll
 0001:00033afe       ?clear@QSqlForm@@UAEXXZ    10034afe f   qt-mt323:qt-mt323.dll
 0001:00033b04       ?writeFields@QSqlForm@@UAEXXZ 10034b04 f   qt-mt323:qt-mt323.dll
 0001:00033b0a       ?readFields@QSqlForm@@UAEXXZ 10034b0a f   qt-mt323:qt-mt323.dll
 0001:00033b10       ?writeField@QSqlForm@@UAEXPAVQWidget@@@Z 10034b10 f   qt-mt323:qt-mt323.dll
 0001:00033b16       ?readField@QSqlForm@@UAEXPAVQWidget@@@Z 10034b16 f   qt-mt323:qt-mt323.dll
 0001:00033b1c       ?setRecord@QSqlForm@@UAEXPAVQSqlRecord@@@Z 10034b1c f   qt-mt323:qt-mt323.dll
 0001:00033b22       ?remove@QSqlForm@@UAEXABVQString@@@Z 10034b22 f   qt-mt323:qt-mt323.dll
 0001:00033b28       ?remove@QSqlForm@@MAEXPAVQWidget@@@Z 10034b28 f   qt-mt323:qt-mt323.dll
 0001:00033b2e       ?insert@QSqlForm@@UAEXPAVQWidget@@ABVQString@@@Z 10034b2e f   qt-mt323:qt-mt323.dll
 0001:00033b34       ?insert@QSqlForm@@MAEXPAVQWidget@@PAVQSqlField@@@Z 10034b34 f   qt-mt323:qt-mt323.dll
 0001:00033b3a       ?qt_property@QSqlForm@@UAE_NHHPAVQVariant@@@Z 10034b3a f   qt-mt323:qt-mt323.dll
 0001:00033b40       ?qt_emit@QSqlForm@@UAE_NHPAUQUObject@@@Z 10034b40 f   qt-mt323:qt-mt323.dll
 0001:00033b46       ?qt_invoke@QSqlForm@@UAE_NHPAUQUObject@@@Z 10034b46 f   qt-mt323:qt-mt323.dll
 0001:00033b4c       ?qt_cast@QSqlForm@@UAEPAXPBD@Z 10034b4c f   qt-mt323:qt-mt323.dll
 0001:00033b52       ?className@QSqlForm@@UBEPBDXZ 10034b52 f   qt-mt323:qt-mt323.dll
 0001:00033b58       ?metaObject@QSqlForm@@UBEPAVQMetaObject@@XZ 10034b58 f   qt-mt323:qt-mt323.dll
 0001:00033b5e       ?afterSeek@QSqlCursor@@MAEXXZ 10034b5e f   qt-mt323:qt-mt323.dll
 0001:00033b64       ?beforeSeek@QSqlQuery@@MAEXXZ 10034b64 f   qt-mt323:qt-mt323.dll
 0001:00033b6a       ?last@QSqlQuery@@UAE_NXZ   10034b6a f   qt-mt323:qt-mt323.dll
 0001:00033b70       ?first@QSqlQuery@@UAE_NXZ  10034b70 f   qt-mt323:qt-mt323.dll
 0001:00033b76       ?prev@QSqlQuery@@UAE_NXZ   10034b76 f   qt-mt323:qt-mt323.dll
 0001:00033b7c       ?next@QSqlQuery@@UAE_NXZ   10034b7c f   qt-mt323:qt-mt323.dll
 0001:00033b82       ?seek@QSqlQuery@@UAE_NH_N@Z 10034b82 f   qt-mt323:qt-mt323.dll
 0001:00033b88       ?exec@QSqlCursor@@MAE_NABVQString@@@Z 10034b88 f   qt-mt323:qt-mt323.dll
 0001:00033b8e       ?calculateField@QSqlCursor@@MAE?AVQVariant@@ABVQString@@@Z 10034b8e f   qt-mt323:qt-mt323.dll
 0001:00033b94       ?toString@QSqlCursor@@MBE?AVQString@@ABV2@PAVQSqlField@@0@Z 10034b94 f   qt-mt323:qt-mt323.dll
 0001:00033b9a       ?toString@QSqlCursor@@MBE?AVQString@@PAVQSqlRecord@@ABV2@11@Z 10034b9a f   qt-mt323:qt-mt323.dll
 0001:00033ba0       ?toString@QSqlCursor@@MBE?AVQString@@ABVQSqlIndex@@PAVQSqlRecord@@ABV2@22@Z 10034ba0 f   qt-mt323:qt-mt323.dll
 0001:00033ba6       ?setName@QSqlCursor@@UAEXABVQString@@_N@Z 10034ba6 f   qt-mt323:qt-mt323.dll
 0001:00033bac       ?setFilter@QSqlCursor@@UAEXABVQString@@@Z 10034bac f   qt-mt323:qt-mt323.dll
 0001:00033bb2       ?setSort@QSqlCursor@@UAEXABVQSqlIndex@@@Z 10034bb2 f   qt-mt323:qt-mt323.dll
 0001:00033bb8       ?select@QSqlCursor@@UAE_NABVQString@@ABVQSqlIndex@@@Z 10034bb8 f   qt-mt323:qt-mt323.dll
 0001:00033bbe       ?setTrimmed@QSqlCursor@@UAEXABVQString@@_N@Z 10034bbe f   qt-mt323:qt-mt323.dll
 0001:00033bc4       ?setCalculated@QSqlCursor@@UAEXABVQString@@_N@Z 10034bc4 f   qt-mt323:qt-mt323.dll
 0001:00033bca       ?setMode@QSqlCursor@@UAEXH@Z 10034bca f   qt-mt323:qt-mt323.dll
 0001:00033bd0       ?del@QSqlCursor@@UAEH_N@Z  10034bd0 f   qt-mt323:qt-mt323.dll
 0001:00033bd6       ?del@QSqlCursor@@MAEHABVQString@@_N@Z 10034bd6 f   qt-mt323:qt-mt323.dll
 0001:00033bdc       ?update@QSqlCursor@@UAEH_N@Z 10034bdc f   qt-mt323:qt-mt323.dll
 0001:00033be2       ?update@QSqlCursor@@MAEHABVQString@@_N@Z 10034be2 f   qt-mt323:qt-mt323.dll
 0001:00033be8       ?primeDelete@QSqlCursor@@UAEPAVQSqlRecord@@XZ 10034be8 f   qt-mt323:qt-mt323.dll
 0001:00033bee       ?primeUpdate@QSqlCursor@@UAEPAVQSqlRecord@@XZ 10034bee f   qt-mt323:qt-mt323.dll
 0001:00033bf4       ?primeInsert@QSqlCursor@@UAEPAVQSqlRecord@@XZ 10034bf4 f   qt-mt323:qt-mt323.dll
 0001:00033bfa       ?editBuffer@QSqlCursor@@UAEPAVQSqlRecord@@_N@Z 10034bfa f   qt-mt323:qt-mt323.dll
 0001:00033c00       ?insert@QSqlCursor@@UAEXHABVQSqlFieldInfo@@@Z 10034c00 f   qt-mt323:qt-mt323.dll
 0001:00033c06       ?insert@QSqlCursor@@UAEH_N@Z 10034c06 f   qt-mt323:qt-mt323.dll
 0001:00033c0c       ?append@QSqlCursor@@UAEXABVQSqlFieldInfo@@@Z 10034c0c f   qt-mt323:qt-mt323.dll
 0001:00033c12       ?setPrimaryIndex@QSqlCursor@@UAEXABVQSqlIndex@@@Z 10034c12 f   qt-mt323:qt-mt323.dll
 0001:00033c18       ?index@QSqlCursor@@UBE?AVQSqlIndex@@ABVQStringList@@@Z 10034c18 f   qt-mt323:qt-mt323.dll
 0001:00033c1e       ?primaryIndex@QSqlCursor@@UBE?AVQSqlIndex@@_N@Z 10034c1e f   qt-mt323:qt-mt323.dll
 0001:00033c24       ?toStringList@QSqlRecord@@UBE?AVQStringList@@ABVQString@@@Z 10034c24 f   qt-mt323:qt-mt323.dll
 0001:00033c2a       ?toString@QSqlCursor@@UBE?AVQString@@ABV2@0@Z 10034c2a f   qt-mt323:qt-mt323.dll
 0001:00033c30       ?clearValues@QSqlRecord@@UAEX_N@Z 10034c30 f   qt-mt323:qt-mt323.dll
 0001:00033c36       ?clear@QSqlCursor@@UAEXXZ  10034c36 f   qt-mt323:qt-mt323.dll
 0001:00033c3c       ?remove@QSqlCursor@@UAEXH@Z 10034c3c f   qt-mt323:qt-mt323.dll
 0001:00033c42       ?insert@QSqlCursor@@EAEXHABVQSqlField@@@Z 10034c42 f   qt-mt323:qt-mt323.dll
 0001:00033c48       ?append@QSqlCursor@@EAEXABVQSqlField@@@Z 10034c48 f   qt-mt323:qt-mt323.dll
 0001:00033c4e       ?setNull@QSqlRecord@@UAEXH@Z 10034c4e f   qt-mt323:qt-mt323.dll
 0001:00033c54       ?setNull@QSqlRecord@@UAEXABVQString@@@Z 10034c54 f   qt-mt323:qt-mt323.dll
 0001:00033c5a       ?setGenerated@QSqlCursor@@UAEXABVQString@@_N@Z 10034c5a f   qt-mt323:qt-mt323.dll
 0001:00033c60       ?setGenerated@QSqlCursor@@UAEXH_N@Z 10034c60 f   qt-mt323:qt-mt323.dll
 0001:00033c66       ?setValue@QSqlCursor@@UAEXHABVQVariant@@@Z 10034c66 f   qt-mt323:qt-mt323.dll
 0001:00033c6c       ?setValue@QSqlCursor@@UAEXABVQString@@ABVQVariant@@@Z 10034c6c f   qt-mt323:qt-mt323.dll
 0001:00033c72       ?value@QSqlCursor@@UBE?AVQVariant@@H@Z 10034c72 f   qt-mt323:qt-mt323.dll
 0001:00033c78       ?value@QSqlCursor@@UBE?AVQVariant@@ABVQString@@@Z 10034c78 f   qt-mt323:qt-mt323.dll
 0001:00033c7e       ?reject@QDialog@@MAEXXZ    10034c7e f   qt-mt323:qt-mt323.dll
 0001:00033c84       ?accept@QDialog@@MAEXXZ    10034c84 f   qt-mt323:qt-mt323.dll
 0001:00033c8a       ?done@QDialog@@MAEXH@Z     10034c8a f   qt-mt323:qt-mt323.dll
 0001:00033c90       ?contextMenuEvent@QDialog@@MAEXPAVQContextMenuEvent@@@Z 10034c90 f   qt-mt323:qt-mt323.dll
 0001:00033c96       ?closeEvent@QDialog@@MAEXPAVQCloseEvent@@@Z 10034c96 f   qt-mt323:qt-mt323.dll
 0001:00033c9c       ?resizeEvent@QDialog@@MAEXPAVQResizeEvent@@@Z 10034c9c f   qt-mt323:qt-mt323.dll
 0001:00033ca2       ?keyPressEvent@QDialog@@MAEXPAVQKeyEvent@@@Z 10034ca2 f   qt-mt323:qt-mt323.dll
 0001:00033ca8       ?minimumSizeHint@QDialog@@UBE?AVQSize@@XZ 10034ca8 f   qt-mt323:qt-mt323.dll
 0001:00033cae       ?sizeHint@QDialog@@UBE?AVQSize@@XZ 10034cae f   qt-mt323:qt-mt323.dll
 0001:00033cb4       ?setGeometry@QDialog@@UAEXHHHH@Z 10034cb4 f   qt-mt323:qt-mt323.dll
 0001:00033cba       ?setGeometry@QDialog@@UAEXABVQRect@@@Z 10034cba f   qt-mt323:qt-mt323.dll
 0001:00033cc0       ?resize@QDialog@@UAEXHH@Z  10034cc0 f   qt-mt323:qt-mt323.dll
 0001:00033cc6       ?move@QDialog@@UAEXHH@Z    10034cc6 f   qt-mt323:qt-mt323.dll
 0001:00033ccc       ?hide@QDialog@@UAEXXZ      10034ccc f   qt-mt323:qt-mt323.dll
 0001:00033cd2       ?show@QDialog@@UAEXXZ      10034cd2 f   qt-mt323:qt-mt323.dll
 0001:00033cd8       ?eventFilter@QDialog@@MAE_NPAVQObject@@PAVQEvent@@@Z 10034cd8 f   qt-mt323:qt-mt323.dll
 0001:00033cde       ?fieldAlignment@QDataTable@@MAEHPBVQSqlField@@@Z 10034cde f   qt-mt323:qt-mt323.dll
 0001:00033ce4       ?paintField@QDataTable@@MAEXPAVQPainter@@PBVQSqlField@@ABVQRect@@_N@Z 10034ce4 f   qt-mt323:qt-mt323.dll
 0001:00033cea       ?beginUpdate@QDataTable@@MAEPAVQWidget@@HH_N@Z 10034cea f   qt-mt323:qt-mt323.dll
 0001:00033cf0       ?beginInsert@QDataTable@@MAE_NXZ 10034cf0 f   qt-mt323:qt-mt323.dll
 0001:00033cf6       ?handleError@QDataTable@@MAEXABVQSqlError@@@Z 10034cf6 f   qt-mt323:qt-mt323.dll
 0001:00033cfc       ?confirmCancel@QDataTable@@MAE?AW4Confirm@QSql@@W4Op@3@@Z 10034cfc f   qt-mt323:qt-mt323.dll
 0001:00033d02       ?confirmEdit@QDataTable@@MAE?AW4Confirm@QSql@@W4Op@3@@Z 10034d02 f   qt-mt323:qt-mt323.dll
 0001:00033d08       ?deleteCurrent@QDataTable@@MAE_NXZ 10034d08 f   qt-mt323:qt-mt323.dll
 0001:00033d0e       ?updateCurrent@QDataTable@@MAE_NXZ 10034d0e f   qt-mt323:qt-mt323.dll
 0001:00033d14       ?insertCurrent@QDataTable@@MAE_NXZ 10034d14 f   qt-mt323:qt-mt323.dll
 0001:00033d1a       ?sortDescending@QDataTable@@UAEXH@Z 10034d1a f   qt-mt323:qt-mt323.dll
 0001:00033d20       ?sortAscending@QDataTable@@UAEXH@Z 10034d20 f   qt-mt323:qt-mt323.dll
 0001:00033d26       ?find@QDataTable@@UAEXABVQString@@_N1@Z 10034d26 f   qt-mt323:qt-mt323.dll
 0001:00033d2c       ?refresh@QDataTable@@UAEXXZ 10034d2c f   qt-mt323:qt-mt323.dll
 0001:00033d32       ?setSort@QDataTable@@UAEXABVQStringList@@@Z 10034d32 f   qt-mt323:qt-mt323.dll
 0001:00033d38       ?setSort@QDataTable@@UAEXABVQSqlIndex@@@Z 10034d38 f   qt-mt323:qt-mt323.dll
 0001:00033d3e       ?setFilter@QDataTable@@UAEXABVQString@@@Z 10034d3e f   qt-mt323:qt-mt323.dll
 0001:00033d44       ?setAutoEdit@QDataTable@@UAEX_N@Z 10034d44 f   qt-mt323:qt-mt323.dll
 0001:00033d4a       ?setAutoDelete@QDataTable@@UAEX_N@Z 10034d4a f   qt-mt323:qt-mt323.dll
 0001:00033d50       ?setConfirmCancels@QDataTable@@UAEX_N@Z 10034d50 f   qt-mt323:qt-mt323.dll
 0001:00033d56       ?setConfirmDelete@QDataTable@@UAEX_N@Z 10034d56 f   qt-mt323:qt-mt323.dll
 0001:00033d5c       ?setConfirmUpdate@QDataTable@@UAEX_N@Z 10034d5c f   qt-mt323:qt-mt323.dll
 0001:00033d62       ?setConfirmInsert@QDataTable@@UAEX_N@Z 10034d62 f   qt-mt323:qt-mt323.dll
 0001:00033d68       ?setConfirmEdits@QDataTable@@UAEX_N@Z 10034d68 f   qt-mt323:qt-mt323.dll
 0001:00033d6e       ?setDateFormat@QDataTable@@UAEXW4DateFormat@Qt@@@Z 10034d6e f   qt-mt323:qt-mt323.dll
 0001:00033d74       ?setFalseText@QDataTable@@UAEXABVQString@@@Z 10034d74 f   qt-mt323:qt-mt323.dll
 0001:00033d7a       ?setTrueText@QDataTable@@UAEXABVQString@@@Z 10034d7a f   qt-mt323:qt-mt323.dll
 0001:00033d80       ?setNullText@QDataTable@@UAEXABVQString@@@Z 10034d80 f   qt-mt323:qt-mt323.dll
 0001:00033d86       ?setSqlCursor@QDataTable@@UAEXPAVQSqlCursor@@_N1@Z 10034d86 f   qt-mt323:qt-mt323.dll
 0001:00033d8c       ?setColumn@QDataTable@@UAEXIABVQString@@0HABVQIconSet@@@Z 10034d8c f   qt-mt323:qt-mt323.dll
 0001:00033d92       ?removeColumn@QDataTable@@UAEXI@Z 10034d92 f   qt-mt323:qt-mt323.dll
 0001:00033d98       ?addColumn@QDataTable@@UAEXABVQString@@0HABVQIconSet@@@Z 10034d98 f   qt-mt323:qt-mt323.dll
 0001:00033d9e       ?columnClicked@QDataTable@@MAEXH@Z 10034d9e f   qt-mt323:qt-mt323.dll
 0001:00033da4       ?rowIndexChanged@QTable@@MAEXHHH@Z 10034da4 f   qt-mt323:qt-mt323.dll
 0001:00033daa       ?columnIndexChanged@QTable@@MAEXHHH@Z 10034daa f   qt-mt323:qt-mt323.dll
 0001:00033db0       ?rowHeightChanged@QTable@@MAEXH@Z 10034db0 f   qt-mt323:qt-mt323.dll
 0001:00033db6       ?columnWidthChanged@QTable@@MAEXH@Z 10034db6 f   qt-mt323:qt-mt323.dll
 0001:00033dbc       ?insertWidget@QTable@@MAEXHHPAVQWidget@@@Z 10034dbc f   qt-mt323:qt-mt323.dll
 0001:00033dc2       ?resizeData@QDataTable@@MAEXH@Z 10034dc2 f   qt-mt323:qt-mt323.dll
 0001:00033dc8       ?endEdit@QDataTable@@MAEXHH_N0@Z 10034dc8 f   qt-mt323:qt-mt323.dll
 0001:00033dce       ?beginEdit@QDataTable@@EAEPAVQWidget@@HH_N@Z 10034dce f   qt-mt323:qt-mt323.dll
 0001:00033dd4       ?setCellContentFromEditor@QTable@@MAEXHH@Z 10034dd4 f   qt-mt323:qt-mt323.dll
 0001:00033dda       ?createEditor@QDataTable@@MBEPAVQWidget@@HH_N@Z 10034dda f   qt-mt323:qt-mt323.dll
 0001:00033de0       ?activateNextCell@QDataTable@@MAEXXZ 10034de0 f   qt-mt323:qt-mt323.dll
 0001:00033de6       ?paintEmptyArea@QTable@@MAEXPAVQPainter@@HHHH@Z 10034de6 f   qt-mt323:qt-mt323.dll
 0001:00033dec       ?startDrag@QTable@@MAEXXZ  10034dec f   qt-mt323:qt-mt323.dll
 0001:00033df2       ?dragObject@QTable@@MAEPAVQDragObject@@XZ 10034df2 f   qt-mt323:qt-mt323.dll
 0001:00033df8       ?editCell@QTable@@UAEXHH_N@Z 10034df8 f   qt-mt323:qt-mt323.dll
 0001:00033dfe       ?removeColumns@QTable@@UAEXABV?$QMemArray@H@@@Z 10034dfe f   qt-mt323:qt-mt323.dll
 0001:00033e04       ?removeColumn@QTable@@UAEXH@Z 10034e04 f   qt-mt323:qt-mt323.dll
 0001:00033e0a       ?removeRows@QTable@@UAEXABV?$QMemArray@H@@@Z 10034e0a f   qt-mt323:qt-mt323.dll
 0001:00033e10       ?removeRow@QTable@@UAEXH@Z 10034e10 f   qt-mt323:qt-mt323.dll
 0001:00033e16       ?insertColumns@QTable@@UAEXHH@Z 10034e16 f   qt-mt323:qt-mt323.dll
 0001:00033e1c       ?insertRows@QTable@@UAEXHH@Z 10034e1c f   qt-mt323:qt-mt323.dll
 0001:00033e22       ?setDragEnabled@QTable@@UAEX_N@Z 10034e22 f   qt-mt323:qt-mt323.dll
 0001:00033e28       ?setColumnReadOnly@QTable@@UAEXH_N@Z 10034e28 f   qt-mt323:qt-mt323.dll
 0001:00033e2e       ?setRowReadOnly@QTable@@UAEXH_N@Z 10034e2e f   qt-mt323:qt-mt323.dll
 0001:00033e34       ?setReadOnly@QTable@@UAEX_N@Z 10034e34 f   qt-mt323:qt-mt323.dll
 0001:00033e3a       ?setRowMovingEnabled@QTable@@UAEX_N@Z 10034e3a f   qt-mt323:qt-mt323.dll
 0001:00033e40       ?setColumnMovingEnabled@QTable@@UAEX_N@Z 10034e40 f   qt-mt323:qt-mt323.dll
 0001:00033e46       ?setCurrentCell@QTable@@UAEXHH@Z 10034e46 f   qt-mt323:qt-mt323.dll
 0001:00033e4c       ?setTopMargin@QTable@@UAEXH@Z 10034e4c f   qt-mt323:qt-mt323.dll
 0001:00033e52       ?setLeftMargin@QTable@@UAEXH@Z 10034e52 f   qt-mt323:qt-mt323.dll
 0001:00033e58       ?swapCells@QTable@@UAEXHHHH@Z 10034e58 f   qt-mt323:qt-mt323.dll
 0001:00033e5e       ?swapColumns@QDataTable@@UAEXHH_N@Z 10034e5e f   qt-mt323:qt-mt323.dll
 0001:00033e64       ?swapRows@QTable@@UAEXHH_N@Z 10034e64 f   qt-mt323:qt-mt323.dll
 0001:00033e6a       ?setSorting@QTable@@UAEX_N@Z 10034e6a f   qt-mt323:qt-mt323.dll
 0001:00033e70       ?setRowStretchable@QTable@@UAEXH_N@Z 10034e70 f   qt-mt323:qt-mt323.dll
 0001:00033e76       ?setColumnStretchable@QDataTable@@UAEXH_N@Z 10034e76 f   qt-mt323:qt-mt323.dll
 0001:00033e7c       ?adjustRow@QTable@@UAEXH@Z 10034e7c f   qt-mt323:qt-mt323.dll
 0001:00033e82       ?adjustColumn@QDataTable@@UAEXH@Z 10034e82 f   qt-mt323:qt-mt323.dll
 0001:00033e88       ?setRowHeight@QTable@@UAEXHH@Z 10034e88 f   qt-mt323:qt-mt323.dll
 0001:00033e8e       ?setColumnWidth@QDataTable@@UAEXHH@Z 10034e8e f   qt-mt323:qt-mt323.dll
 0001:00033e94       ?showColumn@QDataTable@@UAEXH@Z 10034e94 f   qt-mt323:qt-mt323.dll
 0001:00033e9a       ?showRow@QTable@@UAEXH@Z   10034e9a f   qt-mt323:qt-mt323.dll
 0001:00033ea0       ?hideColumn@QDataTable@@UAEXH@Z 10034ea0 f   qt-mt323:qt-mt323.dll
 0001:00033ea6       ?hideRow@QTable@@UAEXH@Z   10034ea6 f   qt-mt323:qt-mt323.dll
 0001:00033eac       ?setShowGrid@QTable@@UAEX_N@Z 10034eac f   qt-mt323:qt-mt323.dll
 0001:00033eb2       ?setNumCols@QDataTable@@UAEXH@Z 10034eb2 f   qt-mt323:qt-mt323.dll
 0001:00033eb8       ?setNumRows@QDataTable@@UAEXH@Z 10034eb8 f   qt-mt323:qt-mt323.dll
 0001:00033ebe       ?setFocusStyle@QTable@@UAEXW4FocusStyle@1@@Z 10034ebe f   qt-mt323:qt-mt323.dll
 0001:00033ec4       ?paintFocus@QTable@@UAEXPAVQPainter@@ABVQRect@@@Z 10034ec4 f   qt-mt323:qt-mt323.dll
 0001:00033eca       ?paintCell@QTable@@UAEXPAVQPainter@@HHABVQRect@@_N@Z 10034eca f   qt-mt323:qt-mt323.dll
 0001:00033ed0       ?paintCell@QDataTable@@MAEXPAVQPainter@@HHABVQRect@@_NABVQColorGroup@@@Z 10034ed0 f   qt-mt323:qt-mt323.dll
 0001:00033ed6       ?cellRect@QTable@@UBE?AVQRect@@HH@Z 10034ed6 f   qt-mt323:qt-mt323.dll
 0001:00033edc       ?clearCellWidget@QTable@@UAEXHH@Z 10034edc f   qt-mt323:qt-mt323.dll
 0001:00033ee2       ?cellWidget@QTable@@UBEPAVQWidget@@HH@Z 10034ee2 f   qt-mt323:qt-mt323.dll
 0001:00033ee8       ?setCellWidget@QTable@@UAEXHHPAVQWidget@@@Z 10034ee8 f   qt-mt323:qt-mt323.dll
 0001:00033eee       ?takeItem@QDataTable@@MAEXPAVQTableItem@@@Z 10034eee f   qt-mt323:qt-mt323.dll
 0001:00033ef4       ?sortColumn@QDataTable@@UAEXH_N0@Z 10034ef4 f   qt-mt323:qt-mt323.dll
 0001:00033efa       ?currentSelection@QTable@@UBEHXZ 10034efa f   qt-mt323:qt-mt323.dll
 0001:00033f00       ?removeSelection@QTable@@UAEXABVQTableSelection@@@Z 10034f00 f   qt-mt323:qt-mt323.dll
 0001:00033f06       ?removeSelection@QTable@@UAEXH@Z 10034f06 f   qt-mt323:qt-mt323.dll
 0001:00033f0c       ?addSelection@QTable@@UAEHABVQTableSelection@@@Z 10034f0c f   qt-mt323:qt-mt323.dll
 0001:00033f12       ?numCols@QDataTable@@UBEHXZ 10034f12 f   qt-mt323:qt-mt323.dll
 0001:00033f18       ?numRows@QDataTable@@UBEHXZ 10034f18 f   qt-mt323:qt-mt323.dll
 0001:00033f1e       ?rowAt@QTable@@UBEHH@Z     10034f1e f   qt-mt323:qt-mt323.dll
 0001:00033f24       ?columnAt@QTable@@UBEHH@Z  10034f24 f   qt-mt323:qt-mt323.dll
 0001:00033f2a       ?rowPos@QTable@@UBEHH@Z    10034f2a f   qt-mt323:qt-mt323.dll
 0001:00033f30       ?columnPos@QTable@@UBEHH@Z 10034f30 f   qt-mt323:qt-mt323.dll
 0001:00033f36       ?rowHeight@QTable@@UBEHH@Z 10034f36 f   qt-mt323:qt-mt323.dll
 0001:00033f3c       ?columnWidth@QTable@@UBEHH@Z 10034f3c f   qt-mt323:qt-mt323.dll
 0001:00033f42       ?cellGeometry@QTable@@UBE?AVQRect@@HH@Z 10034f42 f   qt-mt323:qt-mt323.dll
 0001:00033f48       ?clearCell@QDataTable@@MAEXHH@Z 10034f48 f   qt-mt323:qt-mt323.dll
 0001:00033f4e       ?pixmap@QTable@@UBE?AVQPixmap@@HH@Z 10034f4e f   qt-mt323:qt-mt323.dll
 0001:00033f54       ?text@QDataTable@@UBE?AVQString@@HH@Z 10034f54 f   qt-mt323:qt-mt323.dll
 0001:00033f5a       ?item@QDataTable@@MBEPAVQTableItem@@HH@Z 10034f5a f   qt-mt323:qt-mt323.dll
 0001:00033f60       ?setPixmap@QDataTable@@MAEXHHABVQPixmap@@@Z 10034f60 f   qt-mt323:qt-mt323.dll
 0001:00033f66       ?setText@QTable@@UAEXHHABVQString@@@Z 10034f66 f   qt-mt323:qt-mt323.dll
 0001:00033f6c       ?setItem@QDataTable@@MAEXHHPAVQTableItem@@@Z 10034f6c f   qt-mt323:qt-mt323.dll
 0001:00033f72       ?setSelectionMode@QTable@@UAEXW4SelectionMode@1@@Z 10034f72 f   qt-mt323:qt-mt323.dll
 0001:00033f78       ?setVBarGeometry@QScrollView@@MAEXAAVQScrollBar@@HHHH@Z 10034f78 f   qt-mt323:qt-mt323.dll
 0001:00033f7e       ?setHBarGeometry@QScrollView@@MAEXAAVQScrollBar@@HHHH@Z 10034f7e f   qt-mt323:qt-mt323.dll
 0001:00033f84       ?setMargins@QScrollView@@MAEXHHHH@Z 10034f84 f   qt-mt323:qt-mt323.dll
 0001:00033f8a       ?viewportContextMenuEvent@QScrollView@@MAEXPAVQContextMenuEvent@@@Z 10034f8a f   qt-mt323:qt-mt323.dll
 0001:00033f90       ?viewportWheelEvent@QScrollView@@MAEXPAVQWheelEvent@@@Z 10034f90 f   qt-mt323:qt-mt323.dll
 0001:00033f96       ?viewportDropEvent@QScrollView@@MAEXPAVQDropEvent@@@Z 10034f96 f   qt-mt323:qt-mt323.dll
 0001:00033f9c       ?viewportDragLeaveEvent@QScrollView@@MAEXPAVQDragLeaveEvent@@@Z 10034f9c f   qt-mt323:qt-mt323.dll
 0001:00033fa2       ?viewportDragMoveEvent@QScrollView@@MAEXPAVQDragMoveEvent@@@Z 10034fa2 f   qt-mt323:qt-mt323.dll
 0001:00033fa8       ?viewportDragEnterEvent@QScrollView@@MAEXPAVQDragEnterEvent@@@Z 10034fa8 f   qt-mt323:qt-mt323.dll
 0001:00033fae       ?viewportMouseMoveEvent@QScrollView@@MAEXPAVQMouseEvent@@@Z 10034fae f   qt-mt323:qt-mt323.dll
 0001:00033fb4       ?viewportMouseDoubleClickEvent@QScrollView@@MAEXPAVQMouseEvent@@@Z 10034fb4 f   qt-mt323:qt-mt323.dll
 0001:00033fba       ?viewportMouseReleaseEvent@QScrollView@@MAEXPAVQMouseEvent@@@Z 10034fba f   qt-mt323:qt-mt323.dll
 0001:00033fc0       ?viewportMousePressEvent@QScrollView@@MAEXPAVQMouseEvent@@@Z 10034fc0 f   qt-mt323:qt-mt323.dll
 0001:00033fc6       ?viewportResizeEvent@QTable@@MAEXPAVQResizeEvent@@@Z 10034fc6 f   qt-mt323:qt-mt323.dll
 0001:00033fcc       ?viewportPaintEvent@QScrollView@@MAEXPAVQPaintEvent@@@Z 10034fcc f   qt-mt323:qt-mt323.dll
 0001:00033fd2       ?contentsContextMenuEvent@QDataTable@@MAEXPAVQContextMenuEvent@@@Z 10034fd2 f   qt-mt323:qt-mt323.dll
 0001:00033fd8       ?contentsWheelEvent@QScrollView@@MAEXPAVQWheelEvent@@@Z 10034fd8 f   qt-mt323:qt-mt323.dll
 0001:00033fde       ?contentsDropEvent@QTable@@MAEXPAVQDropEvent@@@Z 10034fde f   qt-mt323:qt-mt323.dll
 0001:00033fe4       ?contentsDragLeaveEvent@QTable@@MAEXPAVQDragLeaveEvent@@@Z 10034fe4 f   qt-mt323:qt-mt323.dll
 0001:00033fea       ?contentsDragMoveEvent@QTable@@MAEXPAVQDragMoveEvent@@@Z 10034fea f   qt-mt323:qt-mt323.dll
 0001:00033ff0       ?contentsDragEnterEvent@QTable@@MAEXPAVQDragEnterEvent@@@Z 10034ff0 f   qt-mt323:qt-mt323.dll
 0001:00033ff6       ?contentsMouseMoveEvent@QTable@@MAEXPAVQMouseEvent@@@Z 10034ff6 f   qt-mt323:qt-mt323.dll
 0001:00033ffc       ?contentsMouseDoubleClickEvent@QTable@@MAEXPAVQMouseEvent@@@Z 10034ffc f   qt-mt323:qt-mt323.dll
 0001:00034002       ?contentsMouseReleaseEvent@QTable@@MAEXPAVQMouseEvent@@@Z 10035002 f   qt-mt323:qt-mt323.dll
 0001:00034008       ?contentsMousePressEvent@QDataTable@@MAEXPAVQMouseEvent@@@Z 10035008 f   qt-mt323:qt-mt323.dll
 0001:0003400e       ?drawContentsOffset@QScrollView@@MAEXPAVQPainter@@HHHHHH@Z 1003500e f   qt-mt323:qt-mt323.dll
 0001:00034014       ?drawContents@QDataTable@@MAEXPAVQPainter@@HHHH@Z 10035014 f   qt-mt323:qt-mt323.dll
 0001:0003401a       ?setContentsPos@QScrollView@@UAEXHH@Z 1003501a f   qt-mt323:qt-mt323.dll
 0001:00034020       ?resizeContents@QScrollView@@UAEXHH@Z 10035020 f   qt-mt323:qt-mt323.dll
 0001:00034026       ?setDragAutoScroll@QScrollView@@UAEX_N@Z 10035026 f   qt-mt323:qt-mt323.dll
 0001:0003402c       ?setCornerWidget@QScrollView@@UAEXPAVQWidget@@@Z 1003502c f   qt-mt323:qt-mt323.dll
 0001:00034032       ?setHScrollBarMode@QScrollView@@UAEXW4ScrollBarMode@1@@Z 10035032 f   qt-mt323:qt-mt323.dll
 0001:00034038       ?setVScrollBarMode@QScrollView@@UAEXW4ScrollBarMode@1@@Z 10035038 f   qt-mt323:qt-mt323.dll
 0001:0003403e       ?moveChild@QScrollView@@UAEXPAVQWidget@@HH@Z 1003503e f   qt-mt323:qt-mt323.dll
 0001:00034044       ?addChild@QScrollView@@UAEXPAVQWidget@@HH@Z 10035044 f   qt-mt323:qt-mt323.dll
 0001:0003404a       ?setResizePolicy@QScrollView@@UAEXW4ResizePolicy@1@@Z 1003504a f   qt-mt323:qt-mt323.dll
 0001:00034050       ?frameChanged@QScrollView@@MAEXXZ 10035050 f   qt-mt323:qt-mt323.dll
 0001:00034056       ?drawContents@QTable@@EAEXPAVQPainter@@@Z 10035056 f   qt-mt323:qt-mt323.dll
 0001:0003405c       ?drawFrame@QFrame@@MAEXPAVQPainter@@@Z 1003505c f   qt-mt323:qt-mt323.dll
 0001:00034062       ?setFrameRect@QFrame@@UAEXABVQRect@@@Z 10035062 f   qt-mt323:qt-mt323.dll
 0001:00034068       ?setMidLineWidth@QFrame@@UAEXH@Z 10035068 f   qt-mt323:qt-mt323.dll
 0001:0003406e       ?setMargin@QFrame@@UAEXH@Z 1003506e f   qt-mt323:qt-mt323.dll
 0001:00034074       ?setLineWidth@QFrame@@UAEXH@Z 10035074 f   qt-mt323:qt-mt323.dll
 0001:0003407a       ?setFrameStyle@QFrame@@UAEXH@Z 1003507a f   qt-mt323:qt-mt323.dll
 0001:00034080       ?focusNextPrevChild@QScrollView@@MAE_N_N@Z 10035080 f   qt-mt323:qt-mt323.dll
 0001:00034086       ?windowActivationChange@QTable@@MAEX_N@Z 10035086 f   qt-mt323:qt-mt323.dll
 0001:0003408c       ?fontChange@QScrollView@@MAEXABVQFont@@@Z 1003508c f   qt-mt323:qt-mt323.dll
 0001:00034092       ?styleChange@QScrollView@@UAEXAAVQStyle@@@Z 10035092 f   qt-mt323:qt-mt323.dll
 0001:00034098       ?showEvent@QTable@@MAEXPAVQShowEvent@@@Z 10035098 f   qt-mt323:qt-mt323.dll
 0001:0003409e       ?contextMenuEvent@QScrollView@@MAEXPAVQContextMenuEvent@@@Z 1003509e f   qt-mt323:qt-mt323.dll
 0001:000340a4       ?resizeEvent@QDataTable@@MAEXPAVQResizeEvent@@@Z 100350a4 f   qt-mt323:qt-mt323.dll
 0001:000340aa       ?paintEvent@QTable@@MAEXPAVQPaintEvent@@@Z 100350aa f   qt-mt323:qt-mt323.dll
 0001:000340b0       ?focusOutEvent@QTable@@MAEXPAVQFocusEvent@@@Z 100350b0 f   qt-mt323:qt-mt323.dll
 0001:000340b6       ?focusInEvent@QTable@@MAEXPAVQFocusEvent@@@Z 100350b6 f   qt-mt323:qt-mt323.dll
 0001:000340bc       ?keyPressEvent@QDataTable@@MAEXPAVQKeyEvent@@@Z 100350bc f   qt-mt323:qt-mt323.dll
 0001:000340c2       ?wheelEvent@QScrollView@@MAEXPAVQWheelEvent@@@Z 100350c2 f   qt-mt323:qt-mt323.dll
 0001:000340c8       ?mouseMoveEvent@QScrollView@@MAEXPAVQMouseEvent@@@Z 100350c8 f   qt-mt323:qt-mt323.dll
 0001:000340ce       ?mouseDoubleClickEvent@QScrollView@@MAEXPAVQMouseEvent@@@Z 100350ce f   qt-mt323:qt-mt323.dll
 0001:000340d4       ?mouseReleaseEvent@QScrollView@@MAEXPAVQMouseEvent@@@Z 100350d4 f   qt-mt323:qt-mt323.dll
 0001:000340da       ?mousePressEvent@QScrollView@@MAEXPAVQMouseEvent@@@Z 100350da f   qt-mt323:qt-mt323.dll
 0001:000340e0       ?minimumSizeHint@QScrollView@@UBE?AVQSize@@XZ 100350e0 f   qt-mt323:qt-mt323.dll
 0001:000340e6       ?sizeHint@QTable@@UBE?AVQSize@@XZ 100350e6 f   qt-mt323:qt-mt323.dll
 0001:000340ec       ?resize@QScrollView@@UAEXHH@Z 100350ec f   qt-mt323:qt-mt323.dll
 0001:000340f2       ?show@QScrollView@@UAEXXZ  100350f2 f   qt-mt323:qt-mt323.dll
 0001:000340f8       ?setEnabled@QTable@@UAEX_N@Z 100350f8 f   qt-mt323:qt-mt323.dll
 0001:000340fe       ?removeChild@QScrollView@@UAEXPAVQObject@@@Z 100350fe f   qt-mt323:qt-mt323.dll
 0001:00034104       ?eventFilter@QDataTable@@MAE_NPAVQObject@@PAVQEvent@@@Z 10035104 f   qt-mt323:qt-mt323.dll
 0001:0003410a       ?paintEmptyArea@QListView@@MAEXPAVQPainter@@ABVQRect@@@Z 1003510a f   qt-mt323:qt-mt323.dll
 0001:00034110       ?startDrag@QListView@@MAEXXZ 10035110 f   qt-mt323:qt-mt323.dll
 0001:00034116       ?dragObject@QListView@@MAEPAVQDragObject@@XZ 10035116 f   qt-mt323:qt-mt323.dll
 0001:0003411c       ?selectAll@QListView@@UAEX_N@Z 1003511c f   qt-mt323:qt-mt323.dll
 0001:00034122       ?invertSelection@QListView@@UAEXXZ 10035122 f   qt-mt323:qt-mt323.dll
 0001:00034128       ?clear@QListView@@UAEXXZ   10035128 f   qt-mt323:qt-mt323.dll
 0001:0003412e       ?setDefaultRenameAction@QListView@@UAEXW4RenameAction@1@@Z 1003512e f   qt-mt323:qt-mt323.dll
 0001:00034134       ?setResizeMode@QListView@@UAEXW4ResizeMode@1@@Z 10035134 f   qt-mt323:qt-mt323.dll
 0001:0003413a       ?setShowToolTips@QListView@@UAEX_N@Z 1003513a f   qt-mt323:qt-mt323.dll
 0001:00034140       ?setShowSortIndicator@QListView@@UAEX_N@Z 10035140 f   qt-mt323:qt-mt323.dll
 0001:00034146       ?sort@QListView@@UAEXXZ    10035146 f   qt-mt323:qt-mt323.dll
 0001:0003414c       ?setSorting@QListView@@UAEXH_N@Z 1003514c f   qt-mt323:qt-mt323.dll
 0001:00034152       ?setRootIsDecorated@QListView@@UAEX_N@Z 10035152 f   qt-mt323:qt-mt323.dll
 0001:00034158       ?setItemMargin@QListView@@UAEXH@Z 10035158 f   qt-mt323:qt-mt323.dll
 0001:0003415e       ?setAllColumnsShowFocus@QListView@@UAEX_N@Z 1003515e f   qt-mt323:qt-mt323.dll
 0001:00034164       ?setCurrentItem@QListView@@UAEXPAVQListViewItem@@@Z 10035164 f   qt-mt323:qt-mt323.dll
 0001:0003416a       ?setOpen@QListView@@UAEXPAVQListViewItem@@_N@Z 1003516a f   qt-mt323:qt-mt323.dll
 0001:00034170       ?setSelected@QListView@@UAEXPAVQListViewItem@@_N@Z 10035170 f   qt-mt323:qt-mt323.dll
 0001:00034176       ?clearSelection@QListView@@UAEXXZ 10035176 f   qt-mt323:qt-mt323.dll
 0001:0003417c       ?setMultiSelection@QListView@@UAEX_N@Z 1003517c f   qt-mt323:qt-mt323.dll
 0001:00034182       ?setColumnAlignment@QListView@@UAEXHH@Z 10035182 f   qt-mt323:qt-mt323.dll
 0001:00034188       ?setColumnWidthMode@QListView@@UAEXHW4WidthMode@1@@Z 10035188 f   qt-mt323:qt-mt323.dll
 0001:0003418e       ?setColumnWidth@QListView@@UAEXHH@Z 1003518e f   qt-mt323:qt-mt323.dll
 0001:00034194       ?setColumnText@QListView@@UAEXHABVQString@@@Z 10035194 f   qt-mt323:qt-mt323.dll
 0001:0003419a       ?setColumnText@QListView@@UAEXHABVQIconSet@@ABVQString@@@Z 1003519a f   qt-mt323:qt-mt323.dll
 0001:000341a0       ?removeColumn@QListView@@UAEXH@Z 100351a0 f   qt-mt323:qt-mt323.dll
 0001:000341a6       ?addColumn@QListView@@UAEHABVQString@@H@Z 100351a6 f   qt-mt323:qt-mt323.dll
 0001:000341ac       ?addColumn@QListView@@UAEHABVQIconSet@@ABVQString@@H@Z 100351ac f   qt-mt323:qt-mt323.dll
 0001:000341b2       ?removeItem@QListView@@UAEXPAVQListViewItem@@@Z 100351b2 f   qt-mt323:qt-mt323.dll
 0001:000341b8       ?takeItem@QListView@@UAEXPAVQListViewItem@@@Z 100351b8 f   qt-mt323:qt-mt323.dll
 0001:000341be       ?insertItem@QListView@@UAEXPAVQListViewItem@@@Z 100351be f   qt-mt323:qt-mt323.dll
 0001:000341c4       ?setTreeStepSize@QListView@@UAEXH@Z 100351c4 f   qt-mt323:qt-mt323.dll
 0001:000341ca       ?viewportResizeEvent@QListView@@MAEXPAVQResizeEvent@@@Z 100351ca f   qt-mt323:qt-mt323.dll
 0001:000341d0       ?contentsContextMenuEvent@QListView@@MAEXPAVQContextMenuEvent@@@Z 100351d0 f   qt-mt323:qt-mt323.dll
 0001:000341d6       ?contentsDropEvent@QListView@@MAEXPAVQDropEvent@@@Z 100351d6 f   qt-mt323:qt-mt323.dll
 0001:000341dc       ?contentsDragLeaveEvent@QListView@@MAEXPAVQDragLeaveEvent@@@Z 100351dc f   qt-mt323:qt-mt323.dll
 0001:000341e2       ?contentsDragMoveEvent@QListView@@MAEXPAVQDragMoveEvent@@@Z 100351e2 f   qt-mt323:qt-mt323.dll
 0001:000341e8       ?contentsDragEnterEvent@QListView@@MAEXPAVQDragEnterEvent@@@Z 100351e8 f   qt-mt323:qt-mt323.dll
 0001:000341ee       ?contentsMouseMoveEvent@QListView@@MAEXPAVQMouseEvent@@@Z 100351ee f   qt-mt323:qt-mt323.dll
 0001:000341f4       ?contentsMouseDoubleClickEvent@QListView@@MAEXPAVQMouseEvent@@@Z 100351f4 f   qt-mt323:qt-mt323.dll
 0001:000341fa       ?contentsMouseReleaseEvent@QListView@@MAEXPAVQMouseEvent@@@Z 100351fa f   qt-mt323:qt-mt323.dll
 0001:00034200       ?contentsMousePressEvent@QListView@@MAEXPAVQMouseEvent@@@Z 10035200 f   qt-mt323:qt-mt323.dll
 0001:00034206       ?drawContentsOffset@QListView@@MAEXPAVQPainter@@HHHHHH@Z 10035206 f   qt-mt323:qt-mt323.dll
 0001:0003420c       ?drawContents@QScrollView@@MAEXPAVQPainter@@HHHH@Z 1003520c f   qt-mt323:qt-mt323.dll
 0001:00034212       ?setContentsPos@QListView@@UAEXHH@Z 10035212 f   qt-mt323:qt-mt323.dll
 0001:00034218       ?drawContents@QScrollView@@EAEXPAVQPainter@@@Z 10035218 f   qt-mt323:qt-mt323.dll
 0001:0003421e       ?windowActivationChange@QListView@@MAEX_N@Z 1003521e f   qt-mt323:qt-mt323.dll
 0001:00034224       ?styleChange@QListView@@MAEXAAVQStyle@@@Z 10035224 f   qt-mt323:qt-mt323.dll
 0001:0003422a       ?showEvent@QListView@@MAEXPAVQShowEvent@@@Z 1003522a f   qt-mt323:qt-mt323.dll
 0001:00034230       ?resizeEvent@QListView@@MAEXPAVQResizeEvent@@@Z 10035230 f   qt-mt323:qt-mt323.dll
 0001:00034236       ?paintEvent@QFrame@@MAEXPAVQPaintEvent@@@Z 10035236 f   qt-mt323:qt-mt323.dll
 0001:0003423c       ?focusOutEvent@QListView@@MAEXPAVQFocusEvent@@@Z 1003523c f   qt-mt323:qt-mt323.dll
 0001:00034242       ?focusInEvent@QListView@@MAEXPAVQFocusEvent@@@Z 10035242 f   qt-mt323:qt-mt323.dll
 0001:00034248       ?minimumSizeHint@QListView@@UBE?AVQSize@@XZ 10035248 f   qt-mt323:qt-mt323.dll
 0001:0003424e       ?sizeHint@QListView@@UBE?AVQSize@@XZ 1003524e f   qt-mt323:qt-mt323.dll
 0001:00034254       ?show@QListView@@UAEXXZ    10035254 f   qt-mt323:qt-mt323.dll
 0001:0003425a       ?setFont@QListView@@UAEXABVQFont@@@Z 1003525a f   qt-mt323:qt-mt323.dll
 0001:00034260       ?setPalette@QListView@@UAEXABVQPalette@@@Z 10035260 f   qt-mt323:qt-mt323.dll
 0001:00034266       ?setEnabled@QScrollView@@UAEX_N@Z 10035266 f   qt-mt323:qt-mt323.dll
 0001:0003426c       ?eventFilter@QListView@@UAE_NPAVQObject@@PAVQEvent@@@Z 1003526c f   qt-mt323:qt-mt323.dll
 0001:00034272       ?compareItems@QGList@@MAEHPAX0@Z 10035272 f   qt-mt323:qt-mt323.dll
 0001:00034278       ?write@QGList@@MBEAAVQDataStream@@AAV2@PAX@Z 10035278 f   qt-mt323:qt-mt323.dll
 0001:0003427e       ?read@QGList@@MAEAAVQDataStream@@AAV2@AAPAX@Z 1003527e f   qt-mt323:qt-mt323.dll
 0001:00034284       ?newItem@QPtrCollection@@MAEPAXPAX@Z 10035284 f   qt-mt323:qt-mt323.dll
 0001:0003428a       ?keyPressEvent@QListView@@MAEXPAVQKeyEvent@@@Z 1003528a f   qt-mt323:qt-mt323.dll
 0001:00034290       ?afterSeek@QSqlQuery@@MAEXXZ 10035290 f   qt-mt323:qt-mt323.dll
 0001:00034296       ?value@QSqlQuery@@UBE?AVQVariant@@H@Z 10035296 f   qt-mt323:qt-mt323.dll
 0001:0003429c       ?exec@QSqlQuery@@UAE_NABVQString@@@Z 1003529c f   qt-mt323:qt-mt323.dll
 0001:000342a2       ?qt_property@QWidgetPlugin@@UAE_NHHPAVQVariant@@@Z 100352a2 f   qt-mt323:qt-mt323.dll
 0001:000342a8       ?qt_emit@QWidgetPlugin@@UAE_NHPAUQUObject@@@Z 100352a8 f   qt-mt323:qt-mt323.dll
 0001:000342ae       ?qt_invoke@QWidgetPlugin@@UAE_NHPAUQUObject@@@Z 100352ae f   qt-mt323:qt-mt323.dll
 0001:000342b4       ?qt_cast@QWidgetPlugin@@UAEPAXPBD@Z 100352b4 f   qt-mt323:qt-mt323.dll
 0001:000342ba       ?className@QWidgetPlugin@@UBEPBDXZ 100352ba f   qt-mt323:qt-mt323.dll
 0001:000342c0       ?metaObject@QWidgetPlugin@@UBEPAVQMetaObject@@XZ 100352c0 f   qt-mt323:qt-mt323.dll
 0001:000342c6       ?qt_property@QWidget@@UAE_NHHPAVQVariant@@@Z 100352c6 f   qt-mt323:qt-mt323.dll
 0001:000342cc       ?qt_emit@QWidget@@UAE_NHPAUQUObject@@@Z 100352cc f   qt-mt323:qt-mt323.dll
 0001:000342d2       ?qt_invoke@QWidget@@UAE_NHPAUQUObject@@@Z 100352d2 f   qt-mt323:qt-mt323.dll
 0001:000342d8       ?qt_cast@QWidget@@UAEPAXPBD@Z 100352d8 f   qt-mt323:qt-mt323.dll
 0001:000342de       ?className@QWidget@@UBEPBDXZ 100352de f   qt-mt323:qt-mt323.dll
 0001:000342e4       ?metaObject@QWidget@@UBEPAVQMetaObject@@XZ 100352e4 f   qt-mt323:qt-mt323.dll
 0001:000342ea       ?spacerItem@QSpacerItem@@UAEPAV1@XZ 100352ea f   qt-mt323:qt-mt323.dll
 0001:000342f0       ?layout@QLayoutItem@@UAEPAVQLayout@@XZ 100352f0 f   qt-mt323:qt-mt323.dll
 0001:000342f6       ?iterator@QLayoutItem@@UAE?AVQLayoutIterator@@XZ 100352f6 f   qt-mt323:qt-mt323.dll
 0001:000342fc       ?invalidate@QLayoutItem@@UAEXXZ 100352fc f   qt-mt323:qt-mt323.dll
 0001:00034302       ?heightForWidth@QLayoutItem@@UBEHH@Z 10035302 f   qt-mt323:qt-mt323.dll
 0001:00034308       ?hasHeightForWidth@QLayoutItem@@UBE_NXZ 10035308 f   qt-mt323:qt-mt323.dll
 0001:0003430e       ?isEmpty@QSpacerItem@@UBE_NXZ 1003530e f   qt-mt323:qt-mt323.dll
 0001:00034314       ?geometry@QSpacerItem@@UBE?AVQRect@@XZ 10035314 f   qt-mt323:qt-mt323.dll
 0001:0003431a       ?setGeometry@QSpacerItem@@UAEXABVQRect@@@Z 1003531a f   qt-mt323:qt-mt323.dll
 0001:00034320       ?expanding@QSpacerItem@@UBE?AW4ExpandData@QSizePolicy@@XZ 10035320 f   qt-mt323:qt-mt323.dll
 0001:00034326       ?maximumSize@QSpacerItem@@UBE?AVQSize@@XZ 10035326 f   qt-mt323:qt-mt323.dll
 0001:0003432c       ?minimumSize@QSpacerItem@@UBE?AVQSize@@XZ 1003532c f   qt-mt323:qt-mt323.dll
 0001:00034332       ?sizeHint@QSpacerItem@@UBE?AVQSize@@XZ 10035332 f   qt-mt323:qt-mt323.dll
 0001:00034338       ?qt_property@QListView@@UAE_NHHPAVQVariant@@@Z 10035338 f   qt-mt323:qt-mt323.dll
 0001:0003433e       ?qt_emit@QListView@@UAE_NHPAUQUObject@@@Z 1003533e f   qt-mt323:qt-mt323.dll
 0001:00034344       ?qt_invoke@QListView@@UAE_NHPAUQUObject@@@Z 10035344 f   qt-mt323:qt-mt323.dll
 0001:0003434a       ?qt_cast@QListView@@UAEPAXPBD@Z 1003534a f   qt-mt323:qt-mt323.dll
 0001:00034350       ?className@QListView@@UBEPBDXZ 10035350 f   qt-mt323:qt-mt323.dll
 0001:00034356       ?metaObject@QListView@@UBEPAVQMetaObject@@XZ 10035356 f   qt-mt323:qt-mt323.dll
 0001:0003435c       ?setEditText@QComboBox@@UAEXABVQString@@@Z 1003535c f   qt-mt323:qt-mt323.dll
 0001:00034362       ?popup@QComboBox@@UAEXXZ   10035362 f   qt-mt323:qt-mt323.dll
 0001:00034368       ?setAutoCompletion@QComboBox@@UAEX_N@Z 10035368 f   qt-mt323:qt-mt323.dll
 0001:0003436e       ?setLineEdit@QComboBox@@UAEXPAVQLineEdit@@@Z 1003536e f   qt-mt323:qt-mt323.dll
 0001:00034374       ?setListBox@QComboBox@@UAEXPAVQListBox@@@Z 10035374 f   qt-mt323:qt-mt323.dll
 0001:0003437a       ?setValidator@QComboBox@@UAEXPBVQValidator@@@Z 1003537a f   qt-mt323:qt-mt323.dll
 0001:00034380       ?setInsertionPolicy@QComboBox@@UAEXW4Policy@1@@Z 10035380 f   qt-mt323:qt-mt323.dll
 0001:00034386       ?setMaxCount@QComboBox@@UAEXH@Z 10035386 f   qt-mt323:qt-mt323.dll
 0001:0003438c       ?setSizeLimit@QComboBox@@UAEXH@Z 1003538c f   qt-mt323:qt-mt323.dll
 0001:00034392       ?setAutoResize@QComboBox@@UAEX_N@Z 10035392 f   qt-mt323:qt-mt323.dll
 0001:00034398       ?setCurrentText@QComboBox@@UAEXABVQString@@@Z 10035398 f   qt-mt323:qt-mt323.dll
 0001:0003439e       ?setCurrentItem@QComboBox@@UAEXH@Z 1003539e f   qt-mt323:qt-mt323.dll
 0001:000343a4       ?styleChange@QComboBox@@MAEXAAVQStyle@@@Z 100353a4 f   qt-mt323:qt-mt323.dll
 0001:000343aa       ?updateMask@QComboBox@@MAEXXZ 100353aa f   qt-mt323:qt-mt323.dll
 0001:000343b0       ?resizeEvent@QComboBox@@MAEXPAVQResizeEvent@@@Z 100353b0 f   qt-mt323:qt-mt323.dll
 0001:000343b6       ?paintEvent@QComboBox@@MAEXPAVQPaintEvent@@@Z 100353b6 f   qt-mt323:qt-mt323.dll
 0001:000343bc       ?focusOutEvent@QComboBox@@MAEXPAVQFocusEvent@@@Z 100353bc f   qt-mt323:qt-mt323.dll
 0001:000343c2       ?focusInEvent@QComboBox@@MAEXPAVQFocusEvent@@@Z 100353c2 f   qt-mt323:qt-mt323.dll
 0001:000343c8       ?keyPressEvent@QComboBox@@MAEXPAVQKeyEvent@@@Z 100353c8 f   qt-mt323:qt-mt323.dll
 0001:000343ce       ?wheelEvent@QComboBox@@MAEXPAVQWheelEvent@@@Z 100353ce f   qt-mt323:qt-mt323.dll
 0001:000343d4       ?mouseMoveEvent@QComboBox@@MAEXPAVQMouseEvent@@@Z 100353d4 f   qt-mt323:qt-mt323.dll
 0001:000343da       ?mouseDoubleClickEvent@QComboBox@@MAEXPAVQMouseEvent@@@Z 100353da f   qt-mt323:qt-mt323.dll
 0001:000343e0       ?mouseReleaseEvent@QComboBox@@MAEXPAVQMouseEvent@@@Z 100353e0 f   qt-mt323:qt-mt323.dll
 0001:000343e6       ?mousePressEvent@QComboBox@@MAEXPAVQMouseEvent@@@Z 100353e6 f   qt-mt323:qt-mt323.dll
 0001:000343ec       ?sizeHint@QComboBox@@UBE?AVQSize@@XZ 100353ec f   qt-mt323:qt-mt323.dll
 0001:000343f2       ?setFont@QComboBox@@UAEXABVQFont@@@Z 100353f2 f   qt-mt323:qt-mt323.dll
 0001:000343f8       ?setPalette@QComboBox@@UAEXABVQPalette@@@Z 100353f8 f   qt-mt323:qt-mt323.dll
 0001:000343fe       ?setEnabled@QComboBox@@UAEX_N@Z 100353fe f   qt-mt323:qt-mt323.dll
 0001:00034404       ?eventFilter@QComboBox@@UAE_NPAVQObject@@PAVQEvent@@@Z 10035404 f   qt-mt323:qt-mt323.dll
 0001:0003440a       ?qt_property@QComboBox@@UAE_NHHPAVQVariant@@@Z 1003540a f   qt-mt323:qt-mt323.dll
 0001:00034410       ?qt_emit@QComboBox@@UAE_NHPAUQUObject@@@Z 10035410 f   qt-mt323:qt-mt323.dll
 0001:00034416       ?qt_invoke@QComboBox@@UAE_NHPAUQUObject@@@Z 10035416 f   qt-mt323:qt-mt323.dll
 0001:0003441c       ?qt_cast@QComboBox@@UAEPAXPBD@Z 1003541c f   qt-mt323:qt-mt323.dll
 0001:00034422       ?className@QComboBox@@UBEPBDXZ 10035422 f   qt-mt323:qt-mt323.dll
 0001:00034428       ?metaObject@QComboBox@@UBEPAVQMetaObject@@XZ 10035428 f   qt-mt323:qt-mt323.dll
 0001:0003442e       ?setNum@QLabel@@UAEXH@Z    1003542e f   qt-mt323:qt-mt323.dll
 0001:00034434       ?setNum@QLabel@@UAEXN@Z    10035434 f   qt-mt323:qt-mt323.dll
 0001:0003443a       ?setMovie@QLabel@@UAEXABVQMovie@@@Z 1003543a f   qt-mt323:qt-mt323.dll
 0001:00034440       ?setPicture@QLabel@@UAEXABVQPicture@@@Z 10035440 f   qt-mt323:qt-mt323.dll
 0001:00034446       ?setPixmap@QLabel@@UAEXABVQPixmap@@@Z 10035446 f   qt-mt323:qt-mt323.dll
 0001:0003444c       ?setText@QLabel@@UAEXABVQString@@@Z 1003544c f   qt-mt323:qt-mt323.dll
 0001:00034452       ?setBuddy@QLabel@@UAEXPAVQWidget@@@Z 10035452 f   qt-mt323:qt-mt323.dll
 0001:00034458       ?setAutoResize@QLabel@@UAEX_N@Z 10035458 f   qt-mt323:qt-mt323.dll
 0001:0003445e       ?setAlignment@QLabel@@UAEXH@Z 1003545e f   qt-mt323:qt-mt323.dll
 0001:00034464       ?drawContents@QLabel@@MAEXPAVQPainter@@@Z 10035464 f   qt-mt323:qt-mt323.dll
 0001:0003446a       ?fontChange@QLabel@@MAEXABVQFont@@@Z 1003546a f   qt-mt323:qt-mt323.dll
 0001:00034470       ?resizeEvent@QLabel@@MAEXPAVQResizeEvent@@@Z 10035470 f   qt-mt323:qt-mt323.dll
 0001:00034476       ?heightForWidth@QLabel@@UBEHH@Z 10035476 f   qt-mt323:qt-mt323.dll
 0001:0003447c       ?minimumSizeHint@QLabel@@UBE?AVQSize@@XZ 1003547c f   qt-mt323:qt-mt323.dll
 0001:00034482       ?sizeHint@QLabel@@UBE?AVQSize@@XZ 10035482 f   qt-mt323:qt-mt323.dll
 0001:00034488       ?setFont@QLabel@@UAEXABVQFont@@@Z 10035488 f   qt-mt323:qt-mt323.dll
 0001:0003448e       ?qt_property@QLabel@@UAE_NHHPAVQVariant@@@Z 1003548e f   qt-mt323:qt-mt323.dll
 0001:00034494       ?qt_emit@QLabel@@UAE_NHPAUQUObject@@@Z 10035494 f   qt-mt323:qt-mt323.dll
 0001:0003449a       ?qt_invoke@QLabel@@UAE_NHPAUQUObject@@@Z 1003549a f   qt-mt323:qt-mt323.dll
 0001:000344a0       ?qt_cast@QLabel@@UAEPAXPBD@Z 100354a0 f   qt-mt323:qt-mt323.dll
 0001:000344a6       ?className@QLabel@@UBEPBDXZ 100354a6 f   qt-mt323:qt-mt323.dll
 0001:000344ac       ?metaObject@QLabel@@UBEPAVQMetaObject@@XZ 100354ac f   qt-mt323:qt-mt323.dll
 0001:000344b2       ?createPopupMenu@QLineEdit@@MAEPAVQPopupMenu@@XZ 100354b2 f   qt-mt323:qt-mt323.dll
 0001:000344b8       ?setDragEnabled@QLineEdit@@UAEX_N@Z 100354b8 f   qt-mt323:qt-mt323.dll
 0001:000344be       ?paste@QLineEdit@@UAEXXZ   100354be f   qt-mt323:qt-mt323.dll
 0001:000344c4       ?copy@QLineEdit@@UBEXXZ    100354c4 f   qt-mt323:qt-mt323.dll
 0001:000344ca       ?cut@QLineEdit@@UAEXXZ     100354ca f   qt-mt323:qt-mt323.dll
 0001:000344d0       ?setAlignment@QLineEdit@@UAEXH@Z 100354d0 f   qt-mt323:qt-mt323.dll
 0001:000344d6       ?setCursorPosition@QLineEdit@@UAEXH@Z 100354d6 f   qt-mt323:qt-mt323.dll
 0001:000344dc       ?setSelection@QLineEdit@@UAEXHH@Z 100354dc f   qt-mt323:qt-mt323.dll
 0001:000344e2       ?setValidator@QLineEdit@@UAEXPBVQValidator@@@Z 100354e2 f   qt-mt323:qt-mt323.dll
 0001:000344e8       ?setReadOnly@QLineEdit@@UAEX_N@Z 100354e8 f   qt-mt323:qt-mt323.dll
 0001:000344ee       ?setEchoMode@QLineEdit@@UAEXW4EchoMode@1@@Z 100354ee f   qt-mt323:qt-mt323.dll
 0001:000344f4       ?setFrame@QLineEdit@@UAEX_N@Z 100354f4 f   qt-mt323:qt-mt323.dll
 0001:000344fa       ?setMaxLength@QLineEdit@@UAEXH@Z 100354fa f   qt-mt323:qt-mt323.dll
 0001:00034500       ?redo@QLineEdit@@UAEXXZ    10035500 f   qt-mt323:qt-mt323.dll
 0001:00034506       ?undo@QLineEdit@@UAEXXZ    10035506 f   qt-mt323:qt-mt323.dll
 0001:0003450c       ?clear@QLineEdit@@UAEXXZ   1003550c f   qt-mt323:qt-mt323.dll
 0001:00034512       ?insert@QLineEdit@@UAEXABVQString@@@Z 10035512 f   qt-mt323:qt-mt323.dll
 0001:00034518       ?clearValidator@QLineEdit@@UAEXXZ 10035518 f   qt-mt323:qt-mt323.dll
 0001:0003451e       ?deselect@QLineEdit@@UAEXXZ 1003551e f   qt-mt323:qt-mt323.dll
 0001:00034524       ?selectAll@QLineEdit@@UAEXXZ 10035524 f   qt-mt323:qt-mt323.dll
 0001:0003452a       ?setText@QLineEdit@@UAEXABVQString@@@Z 1003552a f   qt-mt323:qt-mt323.dll
 0001:00034530       ?drawContents@QLineEdit@@MAEXPAVQPainter@@@Z 10035530 f   qt-mt323:qt-mt323.dll
 0001:00034536       ?windowActivationChange@QLineEdit@@MAEX_N@Z 10035536 f   qt-mt323:qt-mt323.dll
 0001:0003453c       ?dropEvent@QLineEdit@@MAEXPAVQDropEvent@@@Z 1003553c f   qt-mt323:qt-mt323.dll
 0001:00034542       ?dragLeaveEvent@QLineEdit@@MAEXPAVQDragLeaveEvent@@@Z 10035542 f   qt-mt323:qt-mt323.dll
 0001:00034548       ?dragMoveEvent@QLineEdit@@MAEXPAVQDragMoveEvent@@@Z 10035548 f   qt-mt323:qt-mt323.dll
 0001:0003454e       ?dragEnterEvent@QLineEdit@@MAEXPAVQDragEnterEvent@@@Z 1003554e f   qt-mt323:qt-mt323.dll
 0001:00034554       ?imEndEvent@QLineEdit@@MAEXPAVQIMEvent@@@Z 10035554 f   qt-mt323:qt-mt323.dll
 0001:0003455a       ?imComposeEvent@QLineEdit@@MAEXPAVQIMEvent@@@Z 1003555a f   qt-mt323:qt-mt323.dll
 0001:00034560       ?imStartEvent@QLineEdit@@MAEXPAVQIMEvent@@@Z 10035560 f   qt-mt323:qt-mt323.dll
 0001:00034566       ?contextMenuEvent@QLineEdit@@MAEXPAVQContextMenuEvent@@@Z 10035566 f   qt-mt323:qt-mt323.dll
 0001:0003456c       ?resizeEvent@QLineEdit@@MAEXPAVQResizeEvent@@@Z 1003556c f   qt-mt323:qt-mt323.dll
 0001:00034572       ?focusOutEvent@QLineEdit@@MAEXPAVQFocusEvent@@@Z 10035572 f   qt-mt323:qt-mt323.dll
 0001:00034578       ?focusInEvent@QLineEdit@@MAEXPAVQFocusEvent@@@Z 10035578 f   qt-mt323:qt-mt323.dll
 0001:0003457e       ?keyPressEvent@QLineEdit@@MAEXPAVQKeyEvent@@@Z 1003557e f   qt-mt323:qt-mt323.dll
 0001:00034584       ?mouseMoveEvent@QLineEdit@@MAEXPAVQMouseEvent@@@Z 10035584 f   qt-mt323:qt-mt323.dll
 0001:0003458a       ?mouseDoubleClickEvent@QLineEdit@@MAEXPAVQMouseEvent@@@Z 1003558a f   qt-mt323:qt-mt323.dll
 0001:00034590       ?mouseReleaseEvent@QLineEdit@@MAEXPAVQMouseEvent@@@Z 10035590 f   qt-mt323:qt-mt323.dll
 0001:00034596       ?mousePressEvent@QLineEdit@@MAEXPAVQMouseEvent@@@Z 10035596 f   qt-mt323:qt-mt323.dll
 0001:0003459c       ?minimumSizeHint@QLineEdit@@UBE?AVQSize@@XZ 1003559c f   qt-mt323:qt-mt323.dll
 0001:000345a2       ?sizeHint@QLineEdit@@UBE?AVQSize@@XZ 100355a2 f   qt-mt323:qt-mt323.dll
 0001:000345a8       ?setFont@QLineEdit@@UAEXABVQFont@@@Z 100355a8 f   qt-mt323:qt-mt323.dll
 0001:000345ae       ?setPalette@QLineEdit@@UAEXABVQPalette@@@Z 100355ae f   qt-mt323:qt-mt323.dll
 0001:000345b4       ?event@QLineEdit@@MAE_NPAVQEvent@@@Z 100355b4 f   qt-mt323:qt-mt323.dll
 0001:000345ba       ?qt_property@QLineEdit@@UAE_NHHPAVQVariant@@@Z 100355ba f   qt-mt323:qt-mt323.dll
 0001:000345c0       ?qt_emit@QLineEdit@@UAE_NHPAUQUObject@@@Z 100355c0 f   qt-mt323:qt-mt323.dll
 0001:000345c6       ?qt_invoke@QLineEdit@@UAE_NHPAUQUObject@@@Z 100355c6 f   qt-mt323:qt-mt323.dll
 0001:000345cc       ?qt_cast@QLineEdit@@UAEPAXPBD@Z 100355cc f   qt-mt323:qt-mt323.dll
 0001:000345d2       ?className@QLineEdit@@UBEPBDXZ 100355d2 f   qt-mt323:qt-mt323.dll
 0001:000345d8       ?metaObject@QLineEdit@@UBEPAVQMetaObject@@XZ 100355d8 f   qt-mt323:qt-mt323.dll
 0001:000345de       ?setAlignment@QGroupBox@@UAEXH@Z 100355de f   qt-mt323:qt-mt323.dll
 0001:000345e4       ?setTitle@QGroupBox@@UAEXABVQString@@@Z 100355e4 f   qt-mt323:qt-mt323.dll
 0001:000345ea       ?setColumnLayout@QGroupBox@@UAEXHW4Orientation@Qt@@@Z 100355ea f   qt-mt323:qt-mt323.dll
 0001:000345f0       ?frameChanged@QFrame@@MAEXXZ 100355f0 f   qt-mt323:qt-mt323.dll
 0001:000345f6       ?drawContents@QFrame@@MAEXPAVQPainter@@@Z 100355f6 f   qt-mt323:qt-mt323.dll
 0001:000345fc       ?fontChange@QGroupBox@@MAEXABVQFont@@@Z 100355fc f   qt-mt323:qt-mt323.dll
 0001:00034602       ?styleChange@QFrame@@MAEXAAVQStyle@@@Z 10035602 f   qt-mt323:qt-mt323.dll
 0001:00034608       ?resizeEvent@QGroupBox@@MAEXPAVQResizeEvent@@@Z 10035608 f   qt-mt323:qt-mt323.dll
 0001:0003460e       ?paintEvent@QGroupBox@@MAEXPAVQPaintEvent@@@Z 1003560e f   qt-mt323:qt-mt323.dll
 0001:00034614       ?focusInEvent@QGroupBox@@MAEXPAVQFocusEvent@@@Z 10035614 f   qt-mt323:qt-mt323.dll
 0001:0003461a       ?sizeHint@QGroupBox@@UBE?AVQSize@@XZ 1003561a f   qt-mt323:qt-mt323.dll
 0001:00034620       ?setEnabled@QGroupBox@@UAEX_N@Z 10035620 f   qt-mt323:qt-mt323.dll
 0001:00034626       ?childEvent@QGroupBox@@MAEXPAVQChildEvent@@@Z 10035626 f   qt-mt323:qt-mt323.dll
 0001:0003462c       ?event@QGroupBox@@MAE_NPAVQEvent@@@Z 1003562c f   qt-mt323:qt-mt323.dll
 0001:00034632       ?qt_property@QGroupBox@@UAE_NHHPAVQVariant@@@Z 10035632 f   qt-mt323:qt-mt323.dll
 0001:00034638       ?qt_emit@QGroupBox@@UAE_NHPAUQUObject@@@Z 10035638 f   qt-mt323:qt-mt323.dll
 0001:0003463e       ?qt_invoke@QGroupBox@@UAE_NHPAUQUObject@@@Z 1003563e f   qt-mt323:qt-mt323.dll
 0001:00034644       ?qt_cast@QGroupBox@@UAEPAXPBD@Z 10035644 f   qt-mt323:qt-mt323.dll
 0001:0003464a       ?className@QGroupBox@@UBEPBDXZ 1003564a f   qt-mt323:qt-mt323.dll
 0001:00034650       ?metaObject@QGroupBox@@UBEPAVQMetaObject@@XZ 10035650 f   qt-mt323:qt-mt323.dll
 0001:00034656       ?removePage@QTabWidget@@UAEXPAVQWidget@@@Z 10035656 f   qt-mt323:qt-mt323.dll
 0001:0003465c       ?showPage@QTabWidget@@UAEXPAVQWidget@@@Z 1003565c f   qt-mt323:qt-mt323.dll
 0001:00034662       ?insertTab@QTabWidget@@UAEXPAVQWidget@@ABVQString@@H@Z 10035662 f   qt-mt323:qt-mt323.dll
 0001:00034668       ?insertTab@QTabWidget@@UAEXPAVQWidget@@ABVQIconSet@@ABVQString@@H@Z 10035668 f   qt-mt323:qt-mt323.dll
 0001:0003466e       ?insertTab@QTabWidget@@UAEXPAVQWidget@@PAVQTab@@H@Z 1003566e f   qt-mt323:qt-mt323.dll
 0001:00034674       ?addTab@QTabWidget@@UAEXPAVQWidget@@ABVQString@@@Z 10035674 f   qt-mt323:qt-mt323.dll
 0001:0003467a       ?addTab@QTabWidget@@UAEXPAVQWidget@@ABVQIconSet@@ABVQString@@@Z 1003567a f   qt-mt323:qt-mt323.dll
 0001:00034680       ?addTab@QTabWidget@@UAEXPAVQWidget@@PAVQTab@@@Z 10035680 f   qt-mt323:qt-mt323.dll
 0001:00034686       ?styleChange@QTabWidget@@MAEXAAVQStyle@@@Z 10035686 f   qt-mt323:qt-mt323.dll
 0001:0003468c       ?updateMask@QTabWidget@@MAEXXZ 1003568c f   qt-mt323:qt-mt323.dll
 0001:00034692       ?showEvent@QTabWidget@@MAEXPAVQShowEvent@@@Z 10035692 f   qt-mt323:qt-mt323.dll
 0001:00034698       ?resizeEvent@QTabWidget@@MAEXPAVQResizeEvent@@@Z 10035698 f   qt-mt323:qt-mt323.dll
 0001:0003469e       ?minimumSizeHint@QTabWidget@@UBE?AVQSize@@XZ 1003569e f   qt-mt323:qt-mt323.dll
 0001:000346a4       ?sizeHint@QTabWidget@@UBE?AVQSize@@XZ 100356a4 f   qt-mt323:qt-mt323.dll
 0001:000346aa       ?eventFilter@QTabWidget@@MAE_NPAVQObject@@PAVQEvent@@@Z 100356aa f   qt-mt323:qt-mt323.dll
 0001:000346b0       ?qt_property@QTabWidget@@UAE_NHHPAVQVariant@@@Z 100356b0 f   qt-mt323:qt-mt323.dll
 0001:000346b6       ?qt_emit@QTabWidget@@UAE_NHPAUQUObject@@@Z 100356b6 f   qt-mt323:qt-mt323.dll
 0001:000346bc       ?qt_invoke@QTabWidget@@UAE_NHPAUQUObject@@@Z 100356bc f   qt-mt323:qt-mt323.dll
 0001:000346c2       ?qt_cast@QTabWidget@@UAEPAXPBD@Z 100356c2 f   qt-mt323:qt-mt323.dll
 0001:000346c8       ?className@QTabWidget@@UBEPBDXZ 100356c8 f   qt-mt323:qt-mt323.dll
 0001:000346ce       ?metaObject@QTabWidget@@UBEPAVQMetaObject@@XZ 100356ce f   qt-mt323:qt-mt323.dll
 0001:000346d4       ?iterator@QGridLayout@@UAE?AVQLayoutIterator@@XZ 100356d4 f   qt-mt323:qt-mt323.dll
 0001:000346da       ?invalidate@QGridLayout@@UAEXXZ 100356da f   qt-mt323:qt-mt323.dll
 0001:000346e0       ?heightForWidth@QGridLayout@@UBEHH@Z 100356e0 f   qt-mt323:qt-mt323.dll
 0001:000346e6       ?hasHeightForWidth@QGridLayout@@UBE_NXZ 100356e6 f   qt-mt323:qt-mt323.dll
 0001:000346ec       ?setGeometry@QGridLayout@@UAEXABVQRect@@@Z 100356ec f   qt-mt323:qt-mt323.dll
 0001:000346f2       ?expanding@QGridLayout@@UBE?AW4ExpandData@QSizePolicy@@XZ 100356f2 f   qt-mt323:qt-mt323.dll
 0001:000346f8       ?maximumSize@QGridLayout@@UBE?AVQSize@@XZ 100356f8 f   qt-mt323:qt-mt323.dll
 0001:000346fe       ?minimumSize@QGridLayout@@UBE?AVQSize@@XZ 100356fe f   qt-mt323:qt-mt323.dll
 0001:00034704       ?sizeHint@QGridLayout@@UBE?AVQSize@@XZ 10035704 f   qt-mt323:qt-mt323.dll
 0001:0003470a       ?setColStretch@QGridLayout@@UAEXHH@Z 1003570a f   qt-mt323:qt-mt323.dll
 0001:00034710       ?setRowStretch@QGridLayout@@UAEXHH@Z 10035710 f   qt-mt323:qt-mt323.dll
 0001:00034716       ?addItem@QGridLayout@@UAEXPAVQLayoutItem@@@Z 10035716 f   qt-mt323:qt-mt323.dll
 0001:0003471c       ?qt_property@QGridLayout@@UAE_NHHPAVQVariant@@@Z 1003571c f   qt-mt323:qt-mt323.dll
 0001:00034722       ?qt_emit@QGridLayout@@UAE_NHPAUQUObject@@@Z 10035722 f   qt-mt323:qt-mt323.dll
 0001:00034728       ?qt_invoke@QGridLayout@@UAE_NHPAUQUObject@@@Z 10035728 f   qt-mt323:qt-mt323.dll
 0001:0003472e       ?qt_cast@QGridLayout@@UAEPAXPBD@Z 1003572e f   qt-mt323:qt-mt323.dll
 0001:00034734       ?className@QGridLayout@@UBEPBDXZ 10035734 f   qt-mt323:qt-mt323.dll
 0001:0003473a       ?metaObject@QGridLayout@@UBEPAVQMetaObject@@XZ 1003573a f   qt-mt323:qt-mt323.dll
 0001:00034740       ?qt_property@QVBoxLayout@@UAE_NHHPAVQVariant@@@Z 10035740 f   qt-mt323:qt-mt323.dll
 0001:00034746       ?qt_emit@QVBoxLayout@@UAE_NHPAUQUObject@@@Z 10035746 f   qt-mt323:qt-mt323.dll
 0001:0003474c       ?qt_invoke@QVBoxLayout@@UAE_NHPAUQUObject@@@Z 1003574c f   qt-mt323:qt-mt323.dll
 0001:00034752       ?qt_cast@QVBoxLayout@@UAEPAXPBD@Z 10035752 f   qt-mt323:qt-mt323.dll
 0001:00034758       ?className@QVBoxLayout@@UBEPBDXZ 10035758 f   qt-mt323:qt-mt323.dll
 0001:0003475e       ?metaObject@QVBoxLayout@@UBEPAVQMetaObject@@XZ 1003575e f   qt-mt323:qt-mt323.dll
 0001:00034764       ?drawButtonLabel@QCheckBox@@MAEXPAVQPainter@@@Z 10035764 f   qt-mt323:qt-mt323.dll
 0001:0003476a       ?drawButton@QCheckBox@@MAEXPAVQPainter@@@Z 1003576a f   qt-mt323:qt-mt323.dll
 0001:00034770       ?hitButton@QCheckBox@@MBE_NABVQPoint@@@Z 10035770 f   qt-mt323:qt-mt323.dll
 0001:00034776       ?updateMask@QCheckBox@@MAEXXZ 10035776 f   qt-mt323:qt-mt323.dll
 0001:0003477c       ?resizeEvent@QCheckBox@@MAEXPAVQResizeEvent@@@Z 1003577c f   qt-mt323:qt-mt323.dll
 0001:00034782       ?focusOutEvent@QButton@@MAEXPAVQFocusEvent@@@Z 10035782 f   qt-mt323:qt-mt323.dll
 0001:00034788       ?focusInEvent@QButton@@MAEXPAVQFocusEvent@@@Z 10035788 f   qt-mt323:qt-mt323.dll
 0001:0003478e       ?sizeHint@QCheckBox@@UBE?AVQSize@@XZ 1003578e f   qt-mt323:qt-mt323.dll
 0001:00034794       ?qt_property@QCheckBox@@UAE_NHHPAVQVariant@@@Z 10035794 f   qt-mt323:qt-mt323.dll
 0001:0003479a       ?qt_emit@QCheckBox@@UAE_NHPAUQUObject@@@Z 1003579a f   qt-mt323:qt-mt323.dll
 0001:000347a0       ?qt_invoke@QCheckBox@@UAE_NHPAUQUObject@@@Z 100357a0 f   qt-mt323:qt-mt323.dll
 0001:000347a6       ?qt_cast@QCheckBox@@UAEPAXPBD@Z 100357a6 f   qt-mt323:qt-mt323.dll
 0001:000347ac       ?className@QCheckBox@@UBEPBDXZ 100357ac f   qt-mt323:qt-mt323.dll
 0001:000347b2       ?metaObject@QCheckBox@@UBEPAVQMetaObject@@XZ 100357b2 f   qt-mt323:qt-mt323.dll
 0001:000347b8       ?setAutoAdvance@QDateTimeEdit@@UAEX_N@Z 100357b8 f   qt-mt323:qt-mt323.dll
 0001:000347be       ?setDateTime@QDateTimeEdit@@UAEXABVQDateTime@@@Z 100357be f   qt-mt323:qt-mt323.dll
 0001:000347c4       ?resizeEvent@QDateTimeEdit@@MAEXPAVQResizeEvent@@@Z 100357c4 f   qt-mt323:qt-mt323.dll
 0001:000347ca       ?minimumSizeHint@QDateTimeEdit@@UBE?AVQSize@@XZ 100357ca f   qt-mt323:qt-mt323.dll
 0001:000347d0       ?sizeHint@QDateTimeEdit@@UBE?AVQSize@@XZ 100357d0 f   qt-mt323:qt-mt323.dll
 0001:000347d6       ?qt_property@QDateTimeEdit@@UAE_NHHPAVQVariant@@@Z 100357d6 f   qt-mt323:qt-mt323.dll
 0001:000347dc       ?qt_emit@QDateTimeEdit@@UAE_NHPAUQUObject@@@Z 100357dc f   qt-mt323:qt-mt323.dll
 0001:000347e2       ?qt_invoke@QDateTimeEdit@@UAE_NHPAUQUObject@@@Z 100357e2 f   qt-mt323:qt-mt323.dll
 0001:000347e8       ?qt_cast@QDateTimeEdit@@UAEPAXPBD@Z 100357e8 f   qt-mt323:qt-mt323.dll
 0001:000347ee       ?className@QDateTimeEdit@@UBEPBDXZ 100357ee f   qt-mt323:qt-mt323.dll
 0001:000347f4       ?metaObject@QDateTimeEdit@@UBEPAVQMetaObject@@XZ 100357f4 f   qt-mt323:qt-mt323.dll
 0001:000347fa       ?outOfRange@QDateEdit@@MBE_NHHH@Z 100357fa f   qt-mt323:qt-mt323.dll
 0001:00034800       ?fix@QDateEdit@@MAEXXZ     10035800 f   qt-mt323:qt-mt323.dll
 0001:00034806       ?setDay@QDateEdit@@MAEXH@Z 10035806 f   qt-mt323:qt-mt323.dll
 0001:0003480c       ?setMonth@QDateEdit@@MAEXH@Z 1003580c f   qt-mt323:qt-mt323.dll
 0001:00034812       ?setYear@QDateEdit@@MAEXH@Z 10035812 f   qt-mt323:qt-mt323.dll
 0001:00034818       ?setSeparator@QDateEdit@@UAEXABVQString@@@Z 10035818 f   qt-mt323:qt-mt323.dll
 0001:0003481e       ?setRange@QDateEdit@@UAEXABVQDate@@0@Z 1003581e f   qt-mt323:qt-mt323.dll
 0001:00034824       ?setMaxValue@QDateEdit@@UAEXABVQDate@@@Z 10035824 f   qt-mt323:qt-mt323.dll
 0001:0003482a       ?setMinValue@QDateEdit@@UAEXABVQDate@@@Z 1003582a f   qt-mt323:qt-mt323.dll
 0001:00034830       ?setAutoAdvance@QDateEdit@@UAEX_N@Z 10035830 f   qt-mt323:qt-mt323.dll
 0001:00034836       ?setOrder@QDateEdit@@UAEXW4Order@1@@Z 10035836 f   qt-mt323:qt-mt323.dll
 0001:0003483c       ?setDate@QDateEdit@@UAEXABVQDate@@@Z 1003583c f   qt-mt323:qt-mt323.dll
 0001:00034842       ?stepDown@QDateEdit@@MAEXXZ 10035842 f   qt-mt323:qt-mt323.dll
 0001:00034848       ?stepUp@QDateEdit@@MAEXXZ  10035848 f   qt-mt323:qt-mt323.dll
 0001:0003484e       ?removeLastNumber@QDateEdit@@MAEXH@Z 1003584e f   qt-mt323:qt-mt323.dll
 0001:00034854       ?addNumber@QDateEdit@@MAEXHH@Z 10035854 f   qt-mt323:qt-mt323.dll
 0001:0003485a       ?sectionFormattedText@QDateEdit@@MAE?AVQString@@H@Z 1003585a f   qt-mt323:qt-mt323.dll
 0001:00034860       ?setFocusSection@QDateEdit@@MAE_NH@Z 10035860 f   qt-mt323:qt-mt323.dll
 0001:00034866       ?resizeEvent@QDateEdit@@MAEXPAVQResizeEvent@@@Z 10035866 f   qt-mt323:qt-mt323.dll
 0001:0003486c       ?minimumSizeHint@QDateEdit@@UBE?AVQSize@@XZ 1003586c f   qt-mt323:qt-mt323.dll
 0001:00034872       ?sizeHint@QDateEdit@@UBE?AVQSize@@XZ 10035872 f   qt-mt323:qt-mt323.dll
 0001:00034878       ?timerEvent@QDateEdit@@MAEXPAVQTimerEvent@@@Z 10035878 f   qt-mt323:qt-mt323.dll
 0001:0003487e       ?event@QDateEdit@@MAE_NPAVQEvent@@@Z 1003587e f   qt-mt323:qt-mt323.dll
 0001:00034884       ?qt_property@QDateEdit@@UAE_NHHPAVQVariant@@@Z 10035884 f   qt-mt323:qt-mt323.dll
 0001:0003488a       ?qt_emit@QDateEdit@@UAE_NHPAUQUObject@@@Z 1003588a f   qt-mt323:qt-mt323.dll
 0001:00034890       ?qt_invoke@QDateEdit@@UAE_NHPAUQUObject@@@Z 10035890 f   qt-mt323:qt-mt323.dll
 0001:00034896       ?qt_cast@QDateEdit@@UAEPAXPBD@Z 10035896 f   qt-mt323:qt-mt323.dll
 0001:0003489c       ?className@QDateEdit@@UBEPBDXZ 1003589c f   qt-mt323:qt-mt323.dll
 0001:000348a2       ?metaObject@QDateEdit@@UBEPAVQMetaObject@@XZ 100358a2 f   qt-mt323:qt-mt323.dll
 0001:000348a8       ?setChecked@QRadioButton@@UAEX_N@Z 100358a8 f   qt-mt323:qt-mt323.dll
 0001:000348ae       ?drawButtonLabel@QRadioButton@@MAEXPAVQPainter@@@Z 100358ae f   qt-mt323:qt-mt323.dll
 0001:000348b4       ?drawButton@QRadioButton@@MAEXPAVQPainter@@@Z 100358b4 f   qt-mt323:qt-mt323.dll
 0001:000348ba       ?hitButton@QRadioButton@@MBE_NABVQPoint@@@Z 100358ba f   qt-mt323:qt-mt323.dll
 0001:000348c0       ?updateMask@QRadioButton@@MAEXXZ 100358c0 f   qt-mt323:qt-mt323.dll
 0001:000348c6       ?resizeEvent@QRadioButton@@MAEXPAVQResizeEvent@@@Z 100358c6 f   qt-mt323:qt-mt323.dll
 0001:000348cc       ?sizeHint@QRadioButton@@UBE?AVQSize@@XZ 100358cc f   qt-mt323:qt-mt323.dll
 0001:000348d2       ?qt_property@QRadioButton@@UAE_NHHPAVQVariant@@@Z 100358d2 f   qt-mt323:qt-mt323.dll
 0001:000348d8       ?qt_emit@QRadioButton@@UAE_NHPAUQUObject@@@Z 100358d8 f   qt-mt323:qt-mt323.dll
 0001:000348de       ?qt_invoke@QRadioButton@@UAE_NHPAUQUObject@@@Z 100358de f   qt-mt323:qt-mt323.dll
 0001:000348e4       ?qt_cast@QRadioButton@@UAEPAXPBD@Z 100358e4 f   qt-mt323:qt-mt323.dll
 0001:000348ea       ?className@QRadioButton@@UBEPBDXZ 100358ea f   qt-mt323:qt-mt323.dll
 0001:000348f0       ?metaObject@QRadioButton@@UBEPAVQMetaObject@@XZ 100358f0 f   qt-mt323:qt-mt323.dll
 0001:000348f6       ?stepChange@QRangeControl@@MAEXXZ 100358f6 f   qt-mt323:qt-mt323.dll
 0001:000348fc       ?rangeChange@QSpinBox@@MAEXXZ 100358fc f   qt-mt323:qt-mt323.dll
 0001:00034902       ?valueChange@QSpinBox@@MAEXXZ 10035902 f   qt-mt323:qt-mt323.dll
 0001:00034908       ?interpretText@QSpinBox@@MAEXXZ 10035908 f   qt-mt323:qt-mt323.dll
 0001:0003490e       ?updateDisplay@QSpinBox@@MAEXXZ 1003590e f   qt-mt323:qt-mt323.dll
 0001:00034914       ?mapTextToValue@QSpinBox@@MAEHPA_N@Z 10035914 f   qt-mt323:qt-mt323.dll
 0001:0003491a       ?mapValueToText@QSpinBox@@MAE?AVQString@@H@Z 1003591a f   qt-mt323:qt-mt323.dll
 0001:00034920       ?selectAll@QSpinBox@@UAEXXZ 10035920 f   qt-mt323:qt-mt323.dll
 0001:00034926       ?stepDown@QSpinBox@@UAEXXZ 10035926 f   qt-mt323:qt-mt323.dll
 0001:0003492c       ?stepUp@QSpinBox@@UAEXXZ   1003592c f   qt-mt323:qt-mt323.dll
 0001:00034932       ?setSuffix@QSpinBox@@UAEXABVQString@@@Z 10035932 f   qt-mt323:qt-mt323.dll
 0001:00034938       ?setPrefix@QSpinBox@@UAEXABVQString@@@Z 10035938 f   qt-mt323:qt-mt323.dll
 0001:0003493e       ?setValue@QSpinBox@@UAEXH@Z 1003593e f   qt-mt323:qt-mt323.dll
 0001:00034944       ?setValidator@QSpinBox@@UAEXPBVQValidator@@@Z 10035944 f   qt-mt323:qt-mt323.dll
 0001:0003494a       ?setButtonSymbols@QSpinBox@@UAEXW4ButtonSymbols@1@@Z 1003594a f   qt-mt323:qt-mt323.dll
 0001:00034950       ?setWrapping@QSpinBox@@UAEX_N@Z 10035950 f   qt-mt323:qt-mt323.dll
 0001:00034956       ?setSpecialValueText@QSpinBox@@UAEXABVQString@@@Z 10035956 f   qt-mt323:qt-mt323.dll
 0001:0003495c       ?cleanText@QSpinBox@@UBE?AVQString@@XZ 1003595c f   qt-mt323:qt-mt323.dll
 0001:00034962       ?suffix@QSpinBox@@UBE?AVQString@@XZ 10035962 f   qt-mt323:qt-mt323.dll
 0001:00034968       ?prefix@QSpinBox@@UBE?AVQString@@XZ 10035968 f   qt-mt323:qt-mt323.dll
 0001:0003496e       ?styleChange@QSpinBox@@MAEXAAVQStyle@@@Z 1003596e f   qt-mt323:qt-mt323.dll
 0001:00034974       ?resizeEvent@QSpinBox@@MAEXPAVQResizeEvent@@@Z 10035974 f   qt-mt323:qt-mt323.dll
 0001:0003497a       ?leaveEvent@QSpinBox@@MAEXPAVQEvent@@@Z 1003597a f   qt-mt323:qt-mt323.dll
 0001:00034980       ?wheelEvent@QSpinBox@@MAEXPAVQWheelEvent@@@Z 10035980 f   qt-mt323:qt-mt323.dll
 0001:00034986       ?minimumSizeHint@QSpinBox@@UBE?AVQSize@@XZ 10035986 f   qt-mt323:qt-mt323.dll
 0001:0003498c       ?sizeHint@QSpinBox@@UBE?AVQSize@@XZ 1003598c f   qt-mt323:qt-mt323.dll
 0001:00034992       ?setEnabled@QSpinBox@@UAEX_N@Z 10035992 f   qt-mt323:qt-mt323.dll
 0001:00034998       ?eventFilter@QSpinBox@@MAE_NPAVQObject@@PAVQEvent@@@Z 10035998 f   qt-mt323:qt-mt323.dll
 0001:0003499e       ?qt_property@QSpinBox@@UAE_NHHPAVQVariant@@@Z 1003599e f   qt-mt323:qt-mt323.dll
 0001:000349a4       ?qt_emit@QSpinBox@@UAE_NHPAUQUObject@@@Z 100359a4 f   qt-mt323:qt-mt323.dll
 0001:000349aa       ?qt_invoke@QSpinBox@@UAE_NHPAUQUObject@@@Z 100359aa f   qt-mt323:qt-mt323.dll
 0001:000349b0       ?qt_cast@QSpinBox@@UAEPAXPBD@Z 100359b0 f   qt-mt323:qt-mt323.dll
 0001:000349b6       ?className@QSpinBox@@UBEPBDXZ 100359b6 f   qt-mt323:qt-mt323.dll
 0001:000349bc       ?metaObject@QSpinBox@@UBEPAVQMetaObject@@XZ 100359bc f   qt-mt323:qt-mt323.dll
 0001:000349c2       ?moveFocus@QButtonGroup@@UAEXH@Z 100359c2 f   qt-mt323:qt-mt323.dll
 0001:000349c8       ?setButton@QButtonGroup@@UAEXH@Z 100359c8 f   qt-mt323:qt-mt323.dll
 0001:000349ce       ?setRadioButtonExclusive@QButtonGroup@@UAEX_N@Z 100359ce f   qt-mt323:qt-mt323.dll
 0001:000349d4       ?setExclusive@QButtonGroup@@UAEX_N@Z 100359d4 f   qt-mt323:qt-mt323.dll
 0001:000349da       ?event@QButtonGroup@@MAE_NPAVQEvent@@@Z 100359da f   qt-mt323:qt-mt323.dll
 0001:000349e0       ?qt_property@QButtonGroup@@UAE_NHHPAVQVariant@@@Z 100359e0 f   qt-mt323:qt-mt323.dll
 0001:000349e6       ?qt_emit@QButtonGroup@@UAE_NHPAUQUObject@@@Z 100359e6 f   qt-mt323:qt-mt323.dll
 0001:000349ec       ?qt_invoke@QButtonGroup@@UAE_NHPAUQUObject@@@Z 100359ec f   qt-mt323:qt-mt323.dll
 0001:000349f2       ?qt_cast@QButtonGroup@@UAEPAXPBD@Z 100359f2 f   qt-mt323:qt-mt323.dll
 0001:000349f8       ?className@QButtonGroup@@UBEPBDXZ 100359f8 f   qt-mt323:qt-mt323.dll
 0001:000349fe       ?metaObject@QButtonGroup@@UBEPAVQMetaObject@@XZ 100359fe f   qt-mt323:qt-mt323.dll
 0001:00034a04       ?cccConfigChangeMessage@IccClientCallback@@MAEXABV?$basic_string@DU?$char_traits@D@std@@V?$allocator@D@2@@std@@@Z 10035a04 f   bncs_shim_loader:bncs_shim_loader.dll
 0001:00034a0a       ?cccSerialNumberError@IccClientCallback@@MAEXHH@Z 10035a0a f   bncs_shim_loader:bncs_shim_loader.dll
 0001:00034a10       ?cccPollError@IccClientCallback@@MAEXHH@Z 10035a10 f   bncs_shim_loader:bncs_shim_loader.dll
 0001:00034a16       ?cccDeviceMessage@IccClientCallback@@MAEXHHABV?$basic_string@DU?$char_traits@D@std@@V?$allocator@D@2@@std@@H@Z 10035a16 f   bncs_shim_loader:bncs_shim_loader.dll
 0001:00034a1c       ?cccDeviceMode@IccClientCallback@@MAEXHHW4redundancyState@cc@@@Z 10035a1c f   bncs_shim_loader:bncs_shim_loader.dll
 0001:00034a22       ?cccDatabaseChange@IccClientCallback@@MAEXHHH@Z 10035a22 f   bncs_shim_loader:bncs_shim_loader.dll
 0001:00034a28       ?cccGpiRevertive@IccClientCallback@@MAEXHH_N@Z 10035a28 f   bncs_shim_loader:bncs_shim_loader.dll
 0001:00034a2e       ?cccRtrRevertive@IccClientCallback@@MAEXHHH@Z 10035a2e f   bncs_shim_loader:bncs_shim_loader.dll
 0001:00034a34       ?cccDisconnected@IccClientCallback@@MAEXXZ 10035a34 f   bncs_shim_loader:bncs_shim_loader.dll
 0001:00034a3a       ?cccConnected@IccClientCallback@@MAEXXZ 10035a3a f   bncs_shim_loader:bncs_shim_loader.dll
 0001:00034a40       ??3@YAXPAX@Z               10035a40 f   MSVCRT:MSVCRT.dll
 0001:00034a46       ??2@YAPAXI@Z               10035a46 f   MSVCRT:MSVCRT.dll
 0001:00034a4c       ___CxxFrameHandler         10035a4c f   MSVCRT:MSVCRT.dll
 0001:00034a60       __purecall                 10035a60 f   MSVCRT:MSVCRT.dll
 0001:00034a66       ??_Gtype_info@@UAEPAXI@Z   10035a66 f i MSVCRT:ti_inst.obj
 0001:00034a66       ??_Etype_info@@UAEPAXI@Z   10035a66 f i MSVCRT:ti_inst.obj
 0001:00034a82       __CxxThrowException@8      10035a82 f   MSVCRT:MSVCRT.dll
 0001:00034a88       __ftol                     10035a88 f   MSVCRT:MSVCRT.dll
 0001:00034a8e       ??_M@YGXPAXIHP6EX0@Z@Z     10035a8e f   MSVCRT:ehvecdtr.obj
 0001:00034b0e       ?__ArrayUnwind@@YGXPAXIHP6EX0@Z@Z 10035b0e f   MSVCRT:ehvecdtr.obj
 0001:00034b82       ??_L@YGXPAXIHP6EX0@Z1@Z    10035b82 f   MSVCRT:ehvecctr.obj
 0001:00034c04       __onexit                   10035c04 f   MSVCRT:atonexit.obj
 0001:00034c30       _atexit                    10035c30 f   MSVCRT:atonexit.obj
 0001:00034c42       __CRT_INIT@12              10035c42 f   MSVCRT:crtdll.obj
 0001:00034ced       __DllMainCRTStartup@12     10035ced f   MSVCRT:crtdll.obj
 0001:00034d8a       ??1type_info@@UAE@XZ       10035d8a f   MSVCRT:MSVCRT.dll
 0001:00034d90       __except_handler3          10035d90 f   MSVCRT:MSVCRT.dll
 0001:00034d96       ?terminate@@YAXXZ          10035d96 f   MSVCRT:MSVCRT.dll
 0001:00034d9c       ___dllonexit               10035d9c f   MSVCRT:MSVCRT.dll
 0001:00034da2       __initterm                 10035da2 f   MSVCRT:MSVCRT.dll
 0001:00034da8       _DllMain@12                10035da8 f   MSVCRT:dllmain.obj
 0002:00000000       __imp__RegOpenKeyExA@20    1003c000     advapi32:ADVAPI32.dll
 0002:00000004       __imp__RegCloseKey@4       1003c004     advapi32:ADVAPI32.dll
 0002:00000008       __imp__RegQueryValueExA@24 1003c008     advapi32:ADVAPI32.dll
 0002:0000000c       \177ADVAPI32_NULL_THUNK_DATA 1003c00c     advapi32:ADVAPI32.dll
 0002:00000010       __imp__Sleep@4             1003c010     kernel32:KERNEL32.dll
 0002:00000014       __imp__DisableThreadLibraryCalls@4 1003c014     kernel32:KERNEL32.dll
 0002:00000018       __imp__LoadLibraryA@4      1003c018     kernel32:KERNEL32.dll
 0002:0000001c       __imp__GetProcAddress@8    1003c01c     kernel32:KERNEL32.dll
 0002:00000020       __imp__LeaveCriticalSection@4 1003c020     kernel32:KERNEL32.dll
 0002:00000024       __imp__EnterCriticalSection@4 1003c024     kernel32:KERNEL32.dll
 0002:00000028       __imp__WaitForSingleObject@8 1003c028     kernel32:KERNEL32.dll
 0002:0000002c       __imp__GetExitCodeThread@8 1003c02c     kernel32:KERNEL32.dll
 0002:00000030       __imp__CreateThread@24     1003c030     kernel32:KERNEL32.dll
 0002:00000034       __imp__DeleteCriticalSection@4 1003c034     kernel32:KERNEL32.dll
 0002:00000038       __imp__InitializeCriticalSection@4 1003c038     kernel32:KERNEL32.dll
 0002:0000003c       __imp__OutputDebugStringA@4 1003c03c     kernel32:KERNEL32.dll
 0002:00000040       \177KERNEL32_NULL_THUNK_DATA 1003c040     kernel32:KERNEL32.dll
 0002:00000044       __imp_??1_Lockit@std@@QAE@XZ 1003c044     msvcprt:MSVCP60.dll
 0002:00000048       __imp_?npos@?$basic_string@DU?$char_traits@D@std@@V?$allocator@D@2@@std@@2IB 1003c048     msvcprt:MSVCP60.dll
 0002:0000004c       __imp_?_Xran@std@@YAXXZ    1003c04c     msvcprt:MSVCP60.dll
 0002:00000050       __imp_?_Split@?$basic_string@DU?$char_traits@D@std@@V?$allocator@D@2@@std@@AAEXXZ 1003c050     msvcprt:MSVCP60.dll
 0002:00000054       __imp_?_Grow@?$basic_string@DU?$char_traits@D@std@@V?$allocator@D@2@@std@@AAE_NI_N@Z 1003c054     msvcprt:MSVCP60.dll
 0002:00000058       __imp_?_Eos@?$basic_string@DU?$char_traits@D@std@@V?$allocator@D@2@@std@@AAEXI@Z 1003c058     msvcprt:MSVCP60.dll
 0002:0000005c       __imp_??1?$basic_string@DU?$char_traits@D@std@@V?$allocator@D@2@@std@@QAE@XZ 1003c05c     msvcprt:MSVCP60.dll
 0002:00000060       __imp_??1_Winit@std@@QAE@XZ 1003c060     msvcprt:MSVCP60.dll
 0002:00000064       __imp_??0_Winit@std@@QAE@XZ 1003c064     msvcprt:MSVCP60.dll
 0002:00000068       __imp_??1Init@ios_base@std@@QAE@XZ 1003c068     msvcprt:MSVCP60.dll
 0002:0000006c       __imp_??0Init@ios_base@std@@QAE@XZ 1003c06c     msvcprt:MSVCP60.dll
 0002:00000070       __imp_?_C@?1??_Nullstr@?$basic_string@DU?$char_traits@D@std@@V?$allocator@D@2@@std@@CAPBDXZ@4DB 1003c070     msvcprt:MSVCP60.dll
 0002:00000074       __imp_??0_Lockit@std@@QAE@XZ 1003c074     msvcprt:MSVCP60.dll
 0002:00000078       \177MSVCP60_NULL_THUNK_DATA 1003c078     msvcprt:MSVCP60.dll
 0002:0000007c       __imp__fopen               1003c07c     MSVCRT:MSVCRT.dll
 0002:00000080       __imp___adjust_fdiv        1003c080     MSVCRT:MSVCRT.dll
 0002:00000084       __imp___initterm           1003c084     MSVCRT:MSVCRT.dll
 0002:00000088       __imp___onexit             1003c088     MSVCRT:MSVCRT.dll
 0002:0000008c       __imp____dllonexit         1003c08c     MSVCRT:MSVCRT.dll
 0002:00000090       __imp_?terminate@@YAXXZ    1003c090     MSVCRT:MSVCRT.dll
 0002:00000094       __imp___except_handler3    1003c094     MSVCRT:MSVCRT.dll
 0002:00000098       __imp_??1type_info@@UAE@XZ 1003c098     MSVCRT:MSVCRT.dll
 0002:0000009c       __imp__malloc              1003c09c     MSVCRT:MSVCRT.dll
 0002:000000a0       __imp__getenv              1003c0a0     MSVCRT:MSVCRT.dll
 0002:000000a4       __imp___mkdir              1003c0a4     MSVCRT:MSVCRT.dll
 0002:000000a8       __imp__vsprintf            1003c0a8     MSVCRT:MSVCRT.dll
 0002:000000ac       __imp__time                1003c0ac     MSVCRT:MSVCRT.dll
 0002:000000b0       __imp__localtime           1003c0b0     MSVCRT:MSVCRT.dll
 0002:000000b4       __imp___strtime            1003c0b4     MSVCRT:MSVCRT.dll
 0002:000000b8       __imp_??3@YAXPAX@Z         1003c0b8     MSVCRT:MSVCRT.dll
 0002:000000bc       __imp__fprintf             1003c0bc     MSVCRT:MSVCRT.dll
 0002:000000c0       __imp__fclose              1003c0c0     MSVCRT:MSVCRT.dll
 0002:000000c4       __imp__free                1003c0c4     MSVCRT:MSVCRT.dll
 0002:000000c8       __imp_?_set_se_translator@@YAP6AXIPAU_EXCEPTION_POINTERS@@@ZP6AXI0@Z@Z 1003c0c8     MSVCRT:MSVCRT.dll
 0002:000000cc       __imp__strncpy             1003c0cc     MSVCRT:MSVCRT.dll
 0002:000000d0       __imp__memmove             1003c0d0     MSVCRT:MSVCRT.dll
 0002:000000d4       __imp__sprintf             1003c0d4     MSVCRT:MSVCRT.dll
 0002:000000d8       __imp___ftol               1003c0d8     MSVCRT:MSVCRT.dll
 0002:000000dc       __imp___CxxThrowException@8 1003c0dc     MSVCRT:MSVCRT.dll
 0002:000000e0       __imp__strncmp             1003c0e0     MSVCRT:MSVCRT.dll
 0002:000000e4       __imp__atoi                1003c0e4     MSVCRT:MSVCRT.dll
 0002:000000e8       __imp___purecall           1003c0e8     MSVCRT:MSVCRT.dll
 0002:000000ec       __imp____CxxFrameHandler   1003c0ec     MSVCRT:MSVCRT.dll
 0002:000000f0       __imp_??2@YAPAXI@Z         1003c0f0     MSVCRT:MSVCRT.dll
 0002:000000f4       \177MSVCRT_NULL_THUNK_DATA 1003c0f4     MSVCRT:MSVCRT.dll
 0002:000000f8       __imp__wsprintfA           1003c0f8     user32:USER32.dll
 0002:000000fc       \177USER32_NULL_THUNK_DATA 1003c0fc     user32:USER32.dll
 0002:00000100       __imp_??4styleentry@@QAEAAV0@ABV0@@Z 1003c100     bncs_cachedData:bncs_cachedData.dll
 0002:00000104       __imp_??1styleentry@@QAE@XZ 1003c104     bncs_cachedData:bncs_cachedData.dll
 0002:00000108       __imp_?getStyle@bncs_stylesheet@@SAXAAVQString@@PAVQWidget@@@Z 1003c108     bncs_cachedData:bncs_cachedData.dll
 0002:0000010c       __imp_??0styleentry@@QAE@XZ 1003c10c     bncs_cachedData:bncs_cachedData.dll
 0002:00000110       \177bncs_cachedData_NULL_THUNK_DATA 1003c110     bncs_cachedData:bncs_cachedData.dll
 0002:00000114       __imp_?attr@bncs_config@@QAE?AVbncs_string@@ABV2@@Z 1003c114     bncs_config:bncs_config.dll
 0002:00000118       __imp_?isValid@bncs_config@@QAE_NXZ 1003c118     bncs_config:bncs_config.dll
 0002:0000011c       __imp_??0bncs_config@@QAE@ABVbncs_string@@@Z 1003c11c     bncs_config:bncs_config.dll
 0002:00000120       __imp_??1bncs_config@@UAE@XZ 1003c120     bncs_config:bncs_config.dll
 0002:00000124       \177bncs_config_NULL_THUNK_DATA 1003c124     bncs_config:bncs_config.dll
 0002:00000128       __imp_?cccPollError@IccClientCallback@@MAEXHH@Z 1003c128     bncs_shim_loader:bncs_shim_loader.dll
 0002:0000012c       __imp_?cccSerialNumberError@IccClientCallback@@MAEXHH@Z 1003c12c     bncs_shim_loader:bncs_shim_loader.dll
 0002:00000130       __imp_??_7IccClientCallback@@6B@ 1003c130     bncs_shim_loader:bncs_shim_loader.dll
 0002:00000134       __imp_?reg@bncs_dll_client_shim@@QAE_NPAVIccClientCallback@@HHHH@Z 1003c134     bncs_shim_loader:bncs_shim_loader.dll
 0002:00000138       __imp_?unreg@bncs_dll_client_shim@@QAEXPAVIccClientCallback@@HH@Z 1003c138     bncs_shim_loader:bncs_shim_loader.dll
 0002:0000013c       __imp_?cccConfigChangeMessage@IccClientCallback@@MAEXABV?$basic_string@DU?$char_traits@D@std@@V?$allocator@D@2@@std@@@Z 1003c13c     bncs_shim_loader:bncs_shim_loader.dll
 0002:00000140       __imp_?csiShim@bncs_shim_loader@@SAPAVbncs_dll_client_shim@@XZ 1003c140     bncs_shim_loader:bncs_shim_loader.dll
 0002:00000144       __imp_?cccConnected@IccClientCallback@@MAEXXZ 1003c144     bncs_shim_loader:bncs_shim_loader.dll
 0002:00000148       __imp_?cccDisconnected@IccClientCallback@@MAEXXZ 1003c148     bncs_shim_loader:bncs_shim_loader.dll
 0002:0000014c       __imp_?cccRtrRevertive@IccClientCallback@@MAEXHHH@Z 1003c14c     bncs_shim_loader:bncs_shim_loader.dll
 0002:00000150       __imp_?cccGpiRevertive@IccClientCallback@@MAEXHH_N@Z 1003c150     bncs_shim_loader:bncs_shim_loader.dll
 0002:00000154       __imp_?cccDatabaseChange@IccClientCallback@@MAEXHHH@Z 1003c154     bncs_shim_loader:bncs_shim_loader.dll
 0002:00000158       __imp_?cccDeviceMode@IccClientCallback@@MAEXHHW4redundancyState@cc@@@Z 1003c158     bncs_shim_loader:bncs_shim_loader.dll
 0002:0000015c       __imp_?cccDeviceMessage@IccClientCallback@@MAEXHHABV?$basic_string@DU?$char_traits@D@std@@V?$allocator@D@2@@std@@H@Z 1003c15c     bncs_shim_loader:bncs_shim_loader.dll
 0002:00000160       \177bncs_shim_loader_NULL_THUNK_DATA 1003c160     bncs_shim_loader:bncs_shim_loader.dll
 0002:00000164       __imp_??1bncs_string@@UAE@XZ 1003c164     bncs_string:bncs_string.dll
 0002:00000168       __imp_??8@YA_NABVbncs_string@@PBD@Z 1003c168     bncs_string:bncs_string.dll
 0002:0000016c       __imp_??0bncs_string@@QAE@PBD@Z 1003c16c     bncs_string:bncs_string.dll
 0002:00000170       \177bncs_string_NULL_THUNK_DATA 1003c170     bncs_string:bncs_string.dll
 0002:00000174       __imp_?create@QWidget@@MAEXPAUHWND__@@_N1@Z 1003c174     qt-mt323:qt-mt323.dll
 0002:00000178       __imp_?windowActivationChange@QWidget@@MAEX_N@Z 1003c178     qt-mt323:qt-mt323.dll
 0002:0000017c       __imp_?fontChange@QWidget@@MAEXABVQFont@@@Z 1003c17c     qt-mt323:qt-mt323.dll
 0002:00000180       __imp_?paletteChange@QWidget@@MAEXABVQPalette@@@Z 1003c180     qt-mt323:qt-mt323.dll
 0002:00000184       __imp_?enabledChange@QWidget@@MAEX_N@Z 1003c184     qt-mt323:qt-mt323.dll
 0002:00000188       __imp_?styleChange@QWidget@@MAEXAAVQStyle@@@Z 1003c188     qt-mt323:qt-mt323.dll
 0002:0000018c       __imp_?updateMask@QWidget@@MAEXXZ 1003c18c     qt-mt323:qt-mt323.dll
 0002:00000190       __imp_?winEvent@QWidget@@MAE_NPAUtagMSG@@@Z 1003c190     qt-mt323:qt-mt323.dll
 0002:00000194       __imp_?hideEvent@QWidget@@MAEXPAVQHideEvent@@@Z 1003c194     qt-mt323:qt-mt323.dll
 0002:00000198       __imp_?showEvent@QWidget@@MAEXPAVQShowEvent@@@Z 1003c198     qt-mt323:qt-mt323.dll
 0002:0000019c       __imp_?dropEvent@QWidget@@MAEXPAVQDropEvent@@@Z 1003c19c     qt-mt323:qt-mt323.dll
 0002:000001a0       __imp_?dragLeaveEvent@QWidget@@MAEXPAVQDragLeaveEvent@@@Z 1003c1a0     qt-mt323:qt-mt323.dll
 0002:000001a4       __imp_?dragMoveEvent@QWidget@@MAEXPAVQDragMoveEvent@@@Z 1003c1a4     qt-mt323:qt-mt323.dll
 0002:000001a8       __imp_?dragEnterEvent@QWidget@@MAEXPAVQDragEnterEvent@@@Z 1003c1a8     qt-mt323:qt-mt323.dll
 0002:000001ac       __imp_?tabletEvent@QWidget@@MAEXPAVQTabletEvent@@@Z 1003c1ac     qt-mt323:qt-mt323.dll
 0002:000001b0       __imp_?imEndEvent@QWidget@@MAEXPAVQIMEvent@@@Z 1003c1b0     qt-mt323:qt-mt323.dll
 0002:000001b4       __imp_?imComposeEvent@QWidget@@MAEXPAVQIMEvent@@@Z 1003c1b4     qt-mt323:qt-mt323.dll
 0002:000001b8       __imp_?imStartEvent@QWidget@@MAEXPAVQIMEvent@@@Z 1003c1b8     qt-mt323:qt-mt323.dll
 0002:000001bc       __imp_?contextMenuEvent@QWidget@@MAEXPAVQContextMenuEvent@@@Z 1003c1bc     qt-mt323:qt-mt323.dll
 0002:000001c0       __imp_?closeEvent@QWidget@@MAEXPAVQCloseEvent@@@Z 1003c1c0     qt-mt323:qt-mt323.dll
 0002:000001c4       __imp_?resizeEvent@QWidget@@MAEXPAVQResizeEvent@@@Z 1003c1c4     qt-mt323:qt-mt323.dll
 0002:000001c8       __imp_?moveEvent@QWidget@@MAEXPAVQMoveEvent@@@Z 1003c1c8     qt-mt323:qt-mt323.dll
 0002:000001cc       __imp_?paintEvent@QWidget@@MAEXPAVQPaintEvent@@@Z 1003c1cc     qt-mt323:qt-mt323.dll
 0002:000001d0       __imp_?leaveEvent@QWidget@@MAEXPAVQEvent@@@Z 1003c1d0     qt-mt323:qt-mt323.dll
 0002:000001d4       __imp_?enterEvent@QWidget@@MAEXPAVQEvent@@@Z 1003c1d4     qt-mt323:qt-mt323.dll
 0002:000001d8       __imp_?focusOutEvent@QWidget@@MAEXPAVQFocusEvent@@@Z 1003c1d8     qt-mt323:qt-mt323.dll
 0002:000001dc       __imp_?focusInEvent@QWidget@@MAEXPAVQFocusEvent@@@Z 1003c1dc     qt-mt323:qt-mt323.dll
 0002:000001e0       __imp_?keyReleaseEvent@QWidget@@MAEXPAVQKeyEvent@@@Z 1003c1e0     qt-mt323:qt-mt323.dll
 0002:000001e4       __imp_?keyPressEvent@QWidget@@MAEXPAVQKeyEvent@@@Z 1003c1e4     qt-mt323:qt-mt323.dll
 0002:000001e8       __imp_?wheelEvent@QWidget@@MAEXPAVQWheelEvent@@@Z 1003c1e8     qt-mt323:qt-mt323.dll
 0002:000001ec       __imp_?mouseMoveEvent@QWidget@@MAEXPAVQMouseEvent@@@Z 1003c1ec     qt-mt323:qt-mt323.dll
 0002:000001f0       __imp_?mouseDoubleClickEvent@QWidget@@MAEXPAVQMouseEvent@@@Z 1003c1f0     qt-mt323:qt-mt323.dll
 0002:000001f4       __imp_?mouseReleaseEvent@QWidget@@MAEXPAVQMouseEvent@@@Z 1003c1f4     qt-mt323:qt-mt323.dll
 0002:000001f8       __imp_?mousePressEvent@QWidget@@MAEXPAVQMouseEvent@@@Z 1003c1f8     qt-mt323:qt-mt323.dll
 0002:000001fc       __imp_?customWhatsThis@QWidget@@UBE_NXZ 1003c1fc     qt-mt323:qt-mt323.dll
 0002:00000200       __imp_?setBackgroundOrigin@QWidget@@UAEXW4BackgroundOrigin@1@@Z 1003c200     qt-mt323:qt-mt323.dll
 0002:00000204       __imp_?setAutoMask@QWidget@@UAEX_N@Z 1003c204     qt-mt323:qt-mt323.dll
 0002:00000208       __imp_?setAcceptDrops@QWidget@@UAEX_N@Z 1003c208     qt-mt323:qt-mt323.dll
 0002:0000020c       __imp_?reparent@QWidget@@UAEXPAV1@IABVQPoint@@_N@Z 1003c20c     qt-mt323:qt-mt323.dll
 0002:00000210       __imp_?adjustSize@QWidget@@UAEXXZ 1003c210     qt-mt323:qt-mt323.dll
 0002:00000214       __imp_?heightForWidth@QWidget@@UBEHH@Z 1003c214     qt-mt323:qt-mt323.dll
 0002:00000218       __imp_?setSizePolicy@QWidget@@UAEXVQSizePolicy@@@Z 1003c218     qt-mt323:qt-mt323.dll
 0002:0000021c       __imp_?sizePolicy@QWidget@@UBE?AVQSizePolicy@@XZ 1003c21c     qt-mt323:qt-mt323.dll
 0002:00000220       __imp_?minimumSizeHint@QWidget@@UBE?AVQSize@@XZ 1003c220     qt-mt323:qt-mt323.dll
 0002:00000224       __imp_?sizeHint@QWidget@@UBE?AVQSize@@XZ 1003c224     qt-mt323:qt-mt323.dll
 0002:00000228       __imp_?setGeometry@QWidget@@UAEXHHHH@Z 1003c228     qt-mt323:qt-mt323.dll
 0002:0000022c       __imp_?setGeometry@QWidget@@UAEXABVQRect@@@Z 1003c22c     qt-mt323:qt-mt323.dll
 0002:00000230       __imp_?resize@QWidget@@UAEXHH@Z 1003c230     qt-mt323:qt-mt323.dll
 0002:00000234       __imp_?move@QWidget@@UAEXHH@Z 1003c234     qt-mt323:qt-mt323.dll
 0002:00000238       __imp_?close@QWidget@@UAE_N_N@Z 1003c238     qt-mt323:qt-mt323.dll
 0002:0000023c       __imp_?showNormal@QWidget@@UAEXXZ 1003c23c     qt-mt323:qt-mt323.dll
 0002:00000240       __imp_?showMaximized@QWidget@@UAEXXZ 1003c240     qt-mt323:qt-mt323.dll
 0002:00000244       __imp_?showMinimized@QWidget@@UAEXXZ 1003c244     qt-mt323:qt-mt323.dll
 0002:00000248       __imp_?hide@QWidget@@UAEXXZ 1003c248     qt-mt323:qt-mt323.dll
 0002:0000024c       __imp_?show@QWidget@@UAEXXZ 1003c24c     qt-mt323:qt-mt323.dll
 0002:00000250       __imp_?setUpdatesEnabled@QWidget@@UAEX_N@Z 1003c250     qt-mt323:qt-mt323.dll
 0002:00000254       __imp_?setFocusProxy@QWidget@@UAEXPAV1@@Z 1003c254     qt-mt323:qt-mt323.dll
 0002:00000258       __imp_?setFocusPolicy@QWidget@@UAEXW4FocusPolicy@1@@Z 1003c258     qt-mt323:qt-mt323.dll
 0002:0000025c       __imp_?setActiveWindow@QWidget@@UAEXXZ 1003c25c     qt-mt323:qt-mt323.dll
 0002:00000260       __imp_?setFocus@QWidget@@UAEXXZ 1003c260     qt-mt323:qt-mt323.dll
 0002:00000264       __imp_?setMouseTracking@QWidget@@UAEX_N@Z 1003c264     qt-mt323:qt-mt323.dll
 0002:00000268       __imp_?setIconText@QWidget@@UAEXABVQString@@@Z 1003c268     qt-mt323:qt-mt323.dll
 0002:0000026c       __imp_?setIcon@QWidget@@UAEXABVQPixmap@@@Z 1003c26c     qt-mt323:qt-mt323.dll
 0002:00000270       __imp_?setBackgroundPixmap@QWidget@@UAEXABVQPixmap@@@Z 1003c270     qt-mt323:qt-mt323.dll
 0002:00000274       __imp_?setBackgroundColor@QWidget@@UAEXABVQColor@@@Z 1003c274     qt-mt323:qt-mt323.dll
 0002:00000278       __imp_?setMask@QWidget@@UAEXABVQBitmap@@@Z 1003c278     qt-mt323:qt-mt323.dll
 0002:0000027c       __imp_?setMask@QWidget@@UAEXABVQRegion@@@Z 1003c27c     qt-mt323:qt-mt323.dll
 0002:00000280       __imp_?unsetCursor@QWidget@@UAEXXZ 1003c280     qt-mt323:qt-mt323.dll
 0002:00000284       __imp_?setCursor@QWidget@@UAEXABVQCursor@@@Z 1003c284     qt-mt323:qt-mt323.dll
 0002:00000288       __imp_?setFont@QWidget@@UAEXABVQFont@@@Z 1003c288     qt-mt323:qt-mt323.dll
 0002:0000028c       __imp_?setPaletteBackgroundPixmap@QWidget@@UAEXABVQPixmap@@@Z 1003c28c     qt-mt323:qt-mt323.dll
 0002:00000290       __imp_?setPaletteBackgroundColor@QWidget@@UAEXABVQColor@@@Z 1003c290     qt-mt323:qt-mt323.dll
 0002:00000294       __imp_?setPalette@QWidget@@UAEXABVQPalette@@@Z 1003c294     qt-mt323:qt-mt323.dll
 0002:00000298       __imp_?setErasePixmap@QWidget@@UAEXABVQPixmap@@@Z 1003c298     qt-mt323:qt-mt323.dll
 0002:0000029c       __imp_?setEraseColor@QWidget@@UAEXABVQColor@@@Z 1003c29c     qt-mt323:qt-mt323.dll
 0002:000002a0       __imp_?setBackgroundMode@QWidget@@UAEXW4BackgroundMode@Qt@@@Z 1003c2a0     qt-mt323:qt-mt323.dll
 0002:000002a4       __imp_?setSizeIncrement@QWidget@@UAEXHH@Z 1003c2a4     qt-mt323:qt-mt323.dll
 0002:000002a8       __imp_?setMaximumSize@QWidget@@UAEXHH@Z 1003c2a8     qt-mt323:qt-mt323.dll
 0002:000002ac       __imp_?setMinimumSize@QWidget@@UAEXHH@Z 1003c2ac     qt-mt323:qt-mt323.dll
 0002:000002b0       __imp_?setEnabled@QWidget@@UAEX_N@Z 1003c2b0     qt-mt323:qt-mt323.dll
 0002:000002b4       __imp_?childEvent@QObject@@MAEXPAVQChildEvent@@@Z 1003c2b4     qt-mt323:qt-mt323.dll
 0002:000002b8       __imp_?setName@QWidget@@UAEXPBD@Z 1003c2b8     qt-mt323:qt-mt323.dll
 0002:000002bc       __imp_?eventFilter@QObject@@UAE_NPAV1@PAVQEvent@@@Z 1003c2bc     qt-mt323:qt-mt323.dll
 0002:000002c0       __imp_?event@QWidget@@MAE_NPAVQEvent@@@Z 1003c2c0     qt-mt323:qt-mt323.dll
 0002:000002c4       __imp_?setAlignment@QLayoutItem@@UAEXH@Z 1003c2c4     qt-mt323:qt-mt323.dll
 0002:000002c8       __imp_?spacerItem@QLayoutItem@@UAEPAVQSpacerItem@@XZ 1003c2c8     qt-mt323:qt-mt323.dll
 0002:000002cc       __imp_?layout@QLayout@@UAEPAV1@XZ 1003c2cc     qt-mt323:qt-mt323.dll
 0002:000002d0       __imp_?iterator@QBoxLayout@@UAE?AVQLayoutIterator@@XZ 1003c2d0     qt-mt323:qt-mt323.dll
 0002:000002d4       __imp_?widget@QLayoutItem@@UAEPAVQWidget@@XZ 1003c2d4     qt-mt323:qt-mt323.dll
 0002:000002d8       __imp_?invalidate@QBoxLayout@@UAEXXZ 1003c2d8     qt-mt323:qt-mt323.dll
 0002:000002dc       __imp_?heightForWidth@QBoxLayout@@UBEHH@Z 1003c2dc     qt-mt323:qt-mt323.dll
 0002:000002e0       __imp_?hasHeightForWidth@QBoxLayout@@UBE_NXZ 1003c2e0     qt-mt323:qt-mt323.dll
 0002:000002e4       __imp_?isEmpty@QLayout@@UBE_NXZ 1003c2e4     qt-mt323:qt-mt323.dll
 0002:000002e8       __imp_?geometry@QLayout@@UBE?AVQRect@@XZ 1003c2e8     qt-mt323:qt-mt323.dll
 0002:000002ec       __imp_?setGeometry@QBoxLayout@@UAEXABVQRect@@@Z 1003c2ec     qt-mt323:qt-mt323.dll
 0002:000002f0       __imp_?expanding@QBoxLayout@@UBE?AW4ExpandData@QSizePolicy@@XZ 1003c2f0     qt-mt323:qt-mt323.dll
 0002:000002f4       __imp_?maximumSize@QBoxLayout@@UBE?AVQSize@@XZ 1003c2f4     qt-mt323:qt-mt323.dll
 0002:000002f8       __imp_?minimumSize@QBoxLayout@@UBE?AVQSize@@XZ 1003c2f8     qt-mt323:qt-mt323.dll
 0002:000002fc       __imp_?sizeHint@QBoxLayout@@UBE?AVQSize@@XZ 1003c2fc     qt-mt323:qt-mt323.dll
 0002:00000300       __imp_?addItem@QBoxLayout@@UAEXPAVQLayoutItem@@@Z 1003c300     qt-mt323:qt-mt323.dll
 0002:00000304       __imp_?setAutoAdd@QLayout@@UAEX_N@Z 1003c304     qt-mt323:qt-mt323.dll
 0002:00000308       __imp_?setMenuBar@QLayout@@UAEXPAVQMenuBar@@@Z 1003c308     qt-mt323:qt-mt323.dll
 0002:0000030c       __imp_?setSpacing@QLayout@@UAEXH@Z 1003c30c     qt-mt323:qt-mt323.dll
 0002:00000310       __imp_?setMargin@QLayout@@UAEXH@Z 1003c310     qt-mt323:qt-mt323.dll
 0002:00000314       __imp_?checkConnectArgs@QObject@@MAE_NPBDPBV1@0@Z 1003c314     qt-mt323:qt-mt323.dll
 0002:00000318       __imp_?disconnectNotify@QObject@@MAEXPBD@Z 1003c318     qt-mt323:qt-mt323.dll
 0002:0000031c       __imp_?connectNotify@QObject@@MAEXPBD@Z 1003c31c     qt-mt323:qt-mt323.dll
 0002:00000320       __imp_?customEvent@QObject@@MAEXPAVQCustomEvent@@@Z 1003c320     qt-mt323:qt-mt323.dll
 0002:00000324       __imp_?childEvent@QLayout@@MAEXPAVQChildEvent@@@Z 1003c324     qt-mt323:qt-mt323.dll
 0002:00000328       __imp_?timerEvent@QObject@@MAEXPAVQTimerEvent@@@Z 1003c328     qt-mt323:qt-mt323.dll
 0002:0000032c       __imp_?property@QObject@@UBE?AVQVariant@@PBD@Z 1003c32c     qt-mt323:qt-mt323.dll
 0002:00000330       __imp_?setProperty@QObject@@UAE_NPBDABVQVariant@@@Z 1003c330     qt-mt323:qt-mt323.dll
 0002:00000334       __imp_?removeChild@QObject@@UAEXPAV1@@Z 1003c334     qt-mt323:qt-mt323.dll
 0002:00000338       __imp_?insertChild@QObject@@UAEXPAV1@@Z 1003c338     qt-mt323:qt-mt323.dll
 0002:0000033c       __imp_?setName@QObject@@UAEXPBD@Z 1003c33c     qt-mt323:qt-mt323.dll
 0002:00000340       __imp_?eventFilter@QLayout@@MAE_NPAVQObject@@PAVQEvent@@@Z 1003c340     qt-mt323:qt-mt323.dll
 0002:00000344       __imp_?event@QObject@@UAE_NPAVQEvent@@@Z 1003c344     qt-mt323:qt-mt323.dll
 0002:00000348       __imp_?qt_property@QHBoxLayout@@UAE_NHHPAVQVariant@@@Z 1003c348     qt-mt323:qt-mt323.dll
 0002:0000034c       __imp_?qt_emit@QHBoxLayout@@UAE_NHPAUQUObject@@@Z 1003c34c     qt-mt323:qt-mt323.dll
 0002:00000350       __imp_?qt_invoke@QHBoxLayout@@UAE_NHPAUQUObject@@@Z 1003c350     qt-mt323:qt-mt323.dll
 0002:00000354       __imp_?qt_cast@QHBoxLayout@@UAEPAXPBD@Z 1003c354     qt-mt323:qt-mt323.dll
 0002:00000358       __imp_?className@QHBoxLayout@@UBEPBDXZ 1003c358     qt-mt323:qt-mt323.dll
 0002:0000035c       __imp_?metaObject@QHBoxLayout@@UBEPAVQMetaObject@@XZ 1003c35c     qt-mt323:qt-mt323.dll
 0002:00000360       __imp_??1?$QMap@VQString@@V1@@@QAE@XZ 1003c360     qt-mt323:qt-mt323.dll
 0002:00000364       __imp_??1QRegion@@QAE@XZ   1003c364     qt-mt323:qt-mt323.dll
 0002:00000368       __imp_??1QString@@QAE@XZ   1003c368     qt-mt323:qt-mt323.dll
 0002:0000036c       __imp_??1QDataBrowser@@UAE@XZ 1003c36c     qt-mt323:qt-mt323.dll
 0002:00000370       __imp_?addWidget@QBoxLayout@@QAEXPAVQWidget@@HH@Z 1003c370     qt-mt323:qt-mt323.dll
 0002:00000374       __imp_?setMinimumWidth@QWidget@@QAEXH@Z 1003c374     qt-mt323:qt-mt323.dll
 0002:00000378       __imp_?deleteSelf@QStringData@@QAEXXZ 1003c378     qt-mt323:qt-mt323.dll
 0002:0000037c       __imp_??0QPushButton@@QAE@ABVQString@@PAVQWidget@@PBD@Z 1003c37c     qt-mt323:qt-mt323.dll
 0002:00000380       __imp_??0QHBoxLayout@@QAE@PAVQWidget@@HHPBD@Z 1003c380     qt-mt323:qt-mt323.dll
 0002:00000384       __imp_?connect@QObject@@SA_NPBV1@PBD01@Z 1003c384     qt-mt323:qt-mt323.dll
 0002:00000388       __imp_??0QTimer@@QAE@PAVQObject@@PBD@Z 1003c388     qt-mt323:qt-mt323.dll
 0002:0000038c       __imp_??0QString@@QAE@PBD@Z 1003c38c     qt-mt323:qt-mt323.dll
 0002:00000390       __imp_??0QRegion@@QAE@XZ   1003c390     qt-mt323:qt-mt323.dll
 0002:00000394       __imp_?makeSharedNull@QString@@CAPAUQStringData@@XZ 1003c394     qt-mt323:qt-mt323.dll
 0002:00000398       __imp_?shared_null@QString@@0PAUQStringData@@A 1003c398     qt-mt323:qt-mt323.dll
 0002:0000039c       __imp_??0QDataBrowser@@QAE@PAVQWidget@@PBDI@Z 1003c39c     qt-mt323:qt-mt323.dll
 0002:000003a0       __imp_??1QTimer@@UAE@XZ    1003c3a0     qt-mt323:qt-mt323.dll
 0002:000003a4       __imp_??1QHBoxLayout@@UAE@XZ 1003c3a4     qt-mt323:qt-mt323.dll
 0002:000003a8       __imp_??1QPushButton@@UAE@XZ 1003c3a8     qt-mt323:qt-mt323.dll
 0002:000003ac       __imp_?insert@QSqlPropertyMap@@QAEXABVQString@@0@Z 1003c3ac     qt-mt323:qt-mt323.dll
 0002:000003b0       __imp_?defaultMap@QSqlPropertyMap@@SAPAV1@XZ 1003c3b0     qt-mt323:qt-mt323.dll
 0002:000003b4       __imp_?wait@QThread@@QAE_NK@Z 1003c3b4     qt-mt323:qt-mt323.dll
 0002:000003b8       __imp_?terminate@QThread@@QAEXXZ 1003c3b8     qt-mt323:qt-mt323.dll
 0002:000003bc       __imp_?qDebug@@YAXPBDZZ    1003c3bc     qt-mt323:qt-mt323.dll
 0002:000003c0       __imp_??0QWidget@@QAE@PAV0@PBDI@Z 1003c3c0     qt-mt323:qt-mt323.dll
 0002:000003c4       __imp_??1QWidget@@UAE@XZ   1003c3c4     qt-mt323:qt-mt323.dll
 0002:000003c8       __imp_??H@YA?BVQString@@PBDABV0@@Z 1003c3c8     qt-mt323:qt-mt323.dll
 0002:000003cc       __imp_??0QString@@QAE@ABV0@@Z 1003c3cc     qt-mt323:qt-mt323.dll
 0002:000003d0       __imp_?mid@QString@@QBE?AV1@II@Z 1003c3d0     qt-mt323:qt-mt323.dll
 0002:000003d4       __imp_?left@QString@@QBE?AV1@I@Z 1003c3d4     qt-mt323:qt-mt323.dll
 0002:000003d8       __imp_?find@QString@@QBEHVQChar@@H_N@Z 1003c3d8     qt-mt323:qt-mt323.dll
 0002:000003dc       __imp_??0QChar@@QAE@D@Z    1003c3dc     qt-mt323:qt-mt323.dll
 0002:000003e0       __imp_??A?$QMap@VQString@@V1@@@QAEAAVQString@@ABV1@@Z 1003c3e0     qt-mt323:qt-mt323.dll
 0002:000003e4       __imp_?warning@QMessageBox@@SAHPAVQWidget@@ABVQString@@1111HH@Z 1003c3e4     qt-mt323:qt-mt323.dll
 0002:000003e8       __imp_?null@QString@@2V1@A 1003c3e8     qt-mt323:qt-mt323.dll
 0002:000003ec       __imp_?name@QObject@@QBEPBDXZ 1003c3ec     qt-mt323:qt-mt323.dll
 0002:000003f0       __imp_?section@QString@@QBE?AV1@DHHH@Z 1003c3f0     qt-mt323:qt-mt323.dll
 0002:000003f4       __imp_??8@YA_NABVQString@@PBD@Z 1003c3f4     qt-mt323:qt-mt323.dll
 0002:000003f8       __imp_??4QString@@QAEAAV0@PBD@Z 1003c3f8     qt-mt323:qt-mt323.dll
 0002:000003fc       __imp_?detachInternal@?$QMap@VQString@@V1@@@AAEXXZ 1003c3fc     qt-mt323:qt-mt323.dll
 0002:00000400       __imp_??YQString@@QAEAAV0@ABV0@@Z 1003c400     qt-mt323:qt-mt323.dll
 0002:00000404       __imp_??H@YA?BVQString@@ABV0@PBD@Z 1003c404     qt-mt323:qt-mt323.dll
 0002:00000408       __imp_??H@YA?BVQString@@ABV0@0@Z 1003c408     qt-mt323:qt-mt323.dll
 0002:0000040c       __imp_??4QString@@QAEAAV0@ABV0@@Z 1003c40c     qt-mt323:qt-mt323.dll
 0002:00000410       __imp_?cancelRename@QListViewItem@@MAEXH@Z 1003c410     qt-mt323:qt-mt323.dll
 0002:00000414       __imp_?okRename@QListViewItem@@MAEXH@Z 1003c414     qt-mt323:qt-mt323.dll
 0002:00000418       __imp_?dragLeft@QListViewItem@@MAEXXZ 1003c418     qt-mt323:qt-mt323.dll
 0002:0000041c       __imp_?dragEntered@QListViewItem@@MAEXXZ 1003c41c     qt-mt323:qt-mt323.dll
 0002:00000420       __imp_?dropped@QListViewItem@@MAEXPAVQDropEvent@@@Z 1003c420     qt-mt323:qt-mt323.dll
 0002:00000424       __imp_?activate@QListViewItem@@MAEXXZ 1003c424     qt-mt323:qt-mt323.dll
 0002:00000428       __imp_?setHeight@QListViewItem@@MAEXH@Z 1003c428     qt-mt323:qt-mt323.dll
 0002:0000042c       __imp_?enforceSortOrder@QListViewItem@@MBEXXZ 1003c42c     qt-mt323:qt-mt323.dll
 0002:00000430       __imp_?setMultiLinesEnabled@QListViewItem@@UAEX_N@Z 1003c430     qt-mt323:qt-mt323.dll
 0002:00000434       __imp_?rtti@QListViewItem@@UBEHXZ 1003c434     qt-mt323:qt-mt323.dll
 0002:00000438       __imp_?setEnabled@QListViewItem@@UAEX_N@Z 1003c438     qt-mt323:qt-mt323.dll
 0002:0000043c       __imp_?startRename@QListViewItem@@UAEXH@Z 1003c43c     qt-mt323:qt-mt323.dll
 0002:00000440       __imp_?setRenameEnabled@QListViewItem@@UAEXH_N@Z 1003c440     qt-mt323:qt-mt323.dll
 0002:00000444       __imp_?acceptDrop@QListViewItem@@UBE_NPBVQMimeSource@@@Z 1003c444     qt-mt323:qt-mt323.dll
 0002:00000448       __imp_?setDropEnabled@QListViewItem@@UAEX_N@Z 1003c448     qt-mt323:qt-mt323.dll
 0002:0000044c       __imp_?setDragEnabled@QListViewItem@@UAEX_N@Z 1003c44c     qt-mt323:qt-mt323.dll
 0002:00000450       __imp_?sort@QListViewItem@@UAEXXZ 1003c450     qt-mt323:qt-mt323.dll
 0002:00000454       __imp_?setExpandable@QListViewItem@@UAEX_N@Z 1003c454     qt-mt323:qt-mt323.dll
 0002:00000458       __imp_?setSelectable@QListViewItem@@UAEX_N@Z 1003c458     qt-mt323:qt-mt323.dll
 0002:0000045c       __imp_?paintFocus@QListViewItem@@UAEXPAVQPainter@@ABVQColorGroup@@ABVQRect@@@Z 1003c45c     qt-mt323:qt-mt323.dll
 0002:00000460       __imp_?paintBranches@QListViewItem@@UAEXPAVQPainter@@ABVQColorGroup@@HHH@Z 1003c460     qt-mt323:qt-mt323.dll
 0002:00000464       __imp_?paintCell@QListViewItem@@UAEXPAVQPainter@@ABVQColorGroup@@HHH@Z 1003c464     qt-mt323:qt-mt323.dll
 0002:00000468       __imp_?setSelected@QListViewItem@@UAEX_N@Z 1003c468     qt-mt323:qt-mt323.dll
 0002:0000046c       __imp_?setup@QListViewItem@@UAEXXZ 1003c46c     qt-mt323:qt-mt323.dll
 0002:00000470       __imp_?setOpen@QListViewItem@@UAEX_N@Z 1003c470     qt-mt323:qt-mt323.dll
 0002:00000474       __imp_?sortChildItems@QListViewItem@@UAEXH_N@Z 1003c474     qt-mt323:qt-mt323.dll
 0002:00000478       __imp_?compare@QListViewItem@@UBEHPAV1@H_N@Z 1003c478     qt-mt323:qt-mt323.dll
 0002:0000047c       __imp_?key@QListViewItem@@UBE?AVQString@@H_N@Z 1003c47c     qt-mt323:qt-mt323.dll
 0002:00000480       __imp_?pixmap@QListViewItem@@UBEPBVQPixmap@@H@Z 1003c480     qt-mt323:qt-mt323.dll
 0002:00000484       __imp_?setPixmap@QListViewItem@@UAEXHABVQPixmap@@@Z 1003c484     qt-mt323:qt-mt323.dll
 0002:00000488       __imp_?text@QListViewItem@@UBE?AVQString@@H@Z 1003c488     qt-mt323:qt-mt323.dll
 0002:0000048c       __imp_?setText@QListViewItem@@UAEXHABVQString@@@Z 1003c48c     qt-mt323:qt-mt323.dll
 0002:00000490       __imp_?width@QListViewItem@@UBEHABVQFontMetrics@@PBVQListView@@H@Z 1003c490     qt-mt323:qt-mt323.dll
 0002:00000494       __imp_?invalidateHeight@QListViewItem@@UAEXXZ 1003c494     qt-mt323:qt-mt323.dll
 0002:00000498       __imp_?removeItem@QListViewItem@@UAEXPAV1@@Z 1003c498     qt-mt323:qt-mt323.dll
 0002:0000049c       __imp_?takeItem@QListViewItem@@UAEXPAV1@@Z 1003c49c     qt-mt323:qt-mt323.dll
 0002:000004a0       __imp_?insertItem@QListViewItem@@UAEXPAV1@@Z 1003c4a0     qt-mt323:qt-mt323.dll
 0002:000004a4       __imp_??1QStringList@@QAE@XZ 1003c4a4     qt-mt323:qt-mt323.dll
 0002:000004a8       __imp_?itemBelow@QListViewItem@@QAEPAV1@XZ 1003c4a8     qt-mt323:qt-mt323.dll
 0002:000004ac       __imp_?childCount@QListView@@QBEHXZ 1003c4ac     qt-mt323:qt-mt323.dll
 0002:000004b0       __imp_?firstChild@QListView@@QBEPAVQListViewItem@@XZ 1003c4b0     qt-mt323:qt-mt323.dll
 0002:000004b4       __imp_?currentText@QComboBox@@QBE?AVQString@@XZ 1003c4b4     qt-mt323:qt-mt323.dll
 0002:000004b8       __imp_?ascii@QString@@QBEPBDXZ 1003c4b8     qt-mt323:qt-mt323.dll
 0002:000004bc       __imp_?text@QLineEdit@@QBE?AVQString@@XZ 1003c4bc     qt-mt323:qt-mt323.dll
 0002:000004c0       __imp_?exec@QDialog@@QAEHXZ 1003c4c0     qt-mt323:qt-mt323.dll
 0002:000004c4       __imp_??0QListViewItem@@QAE@PAVQListView@@VQString@@1111111@Z 1003c4c4     qt-mt323:qt-mt323.dll
 0002:000004c8       __imp_?insertItem@QComboBox@@QAEXABVQString@@H@Z 1003c4c8     qt-mt323:qt-mt323.dll
 0002:000004cc       __imp_?findItem@QListBox@@QBEPAVQListBoxItem@@ABVQString@@I@Z 1003c4cc     qt-mt323:qt-mt323.dll
 0002:000004d0       __imp_?listBox@QComboBox@@QBEPAVQListBox@@XZ 1003c4d0     qt-mt323:qt-mt323.dll
 0002:000004d4       __imp_?insertStringList@QComboBox@@QAEXABVQStringList@@H@Z 1003c4d4     qt-mt323:qt-mt323.dll
 0002:000004d8       __imp_?drivers@QSqlDatabase@@SA?AVQStringList@@XZ 1003c4d8     qt-mt323:qt-mt323.dll
 0002:000004dc       __imp_??1QListViewItem@@UAE@XZ 1003c4dc     qt-mt323:qt-mt323.dll
 0002:000004e0       __imp_?start@QTimer@@QAEHH_N@Z 1003c4e0     qt-mt323:qt-mt323.dll
 0002:000004e4       __imp_?stop@QTimer@@QAEXXZ 1003c4e4     qt-mt323:qt-mt323.dll
 0002:000004e8       __imp_?sync@QSqlForm@@EAEXXZ 1003c4e8     qt-mt323:qt-mt323.dll
 0002:000004ec       __imp_?clearValues@QSqlForm@@UAEX_N@Z 1003c4ec     qt-mt323:qt-mt323.dll
 0002:000004f0       __imp_?clear@QSqlForm@@UAEXXZ 1003c4f0     qt-mt323:qt-mt323.dll
 0002:000004f4       __imp_?writeFields@QSqlForm@@UAEXXZ 1003c4f4     qt-mt323:qt-mt323.dll
 0002:000004f8       __imp_?readFields@QSqlForm@@UAEXXZ 1003c4f8     qt-mt323:qt-mt323.dll
 0002:000004fc       __imp_?writeField@QSqlForm@@UAEXPAVQWidget@@@Z 1003c4fc     qt-mt323:qt-mt323.dll
 0002:00000500       __imp_?readField@QSqlForm@@UAEXPAVQWidget@@@Z 1003c500     qt-mt323:qt-mt323.dll
 0002:00000504       __imp_?setRecord@QSqlForm@@UAEXPAVQSqlRecord@@@Z 1003c504     qt-mt323:qt-mt323.dll
 0002:00000508       __imp_?remove@QSqlForm@@UAEXABVQString@@@Z 1003c508     qt-mt323:qt-mt323.dll
 0002:0000050c       __imp_?remove@QSqlForm@@MAEXPAVQWidget@@@Z 1003c50c     qt-mt323:qt-mt323.dll
 0002:00000510       __imp_?insert@QSqlForm@@UAEXPAVQWidget@@ABVQString@@@Z 1003c510     qt-mt323:qt-mt323.dll
 0002:00000514       __imp_?insert@QSqlForm@@MAEXPAVQWidget@@PAVQSqlField@@@Z 1003c514     qt-mt323:qt-mt323.dll
 0002:00000518       __imp_?qt_property@QSqlForm@@UAE_NHHPAVQVariant@@@Z 1003c518     qt-mt323:qt-mt323.dll
 0002:0000051c       __imp_?qt_emit@QSqlForm@@UAE_NHPAUQUObject@@@Z 1003c51c     qt-mt323:qt-mt323.dll
 0002:00000520       __imp_?qt_invoke@QSqlForm@@UAE_NHPAUQUObject@@@Z 1003c520     qt-mt323:qt-mt323.dll
 0002:00000524       __imp_?qt_cast@QSqlForm@@UAEPAXPBD@Z 1003c524     qt-mt323:qt-mt323.dll
 0002:00000528       __imp_?className@QSqlForm@@UBEPBDXZ 1003c528     qt-mt323:qt-mt323.dll
 0002:0000052c       __imp_?metaObject@QSqlForm@@UBEPAVQMetaObject@@XZ 1003c52c     qt-mt323:qt-mt323.dll
 0002:00000530       __imp_?child@QObject@@QAEPAV1@PBD0_N@Z 1003c530     qt-mt323:qt-mt323.dll
 0002:00000534       __imp_?count@QSqlForm@@QBEIXZ 1003c534     qt-mt323:qt-mt323.dll
 0002:00000538       __imp_??0QSqlForm@@QAE@PAVQObject@@PBD@Z 1003c538     qt-mt323:qt-mt323.dll
 0002:0000053c       __imp_??1QSqlForm@@UAE@XZ  1003c53c     qt-mt323:qt-mt323.dll
 0002:00000540       __imp_?start@QThread@@QAEXXZ 1003c540     qt-mt323:qt-mt323.dll
 0002:00000544       __imp_?running@QThread@@QBE_NXZ 1003c544     qt-mt323:qt-mt323.dll
 0002:00000548       __imp_?clear@?$QMap@VQString@@V1@@@QAEXXZ 1003c548     qt-mt323:qt-mt323.dll
 0002:0000054c       __imp_?afterSeek@QSqlCursor@@MAEXXZ 1003c54c     qt-mt323:qt-mt323.dll
 0002:00000550       __imp_?beforeSeek@QSqlQuery@@MAEXXZ 1003c550     qt-mt323:qt-mt323.dll
 0002:00000554       __imp_?last@QSqlQuery@@UAE_NXZ 1003c554     qt-mt323:qt-mt323.dll
 0002:00000558       __imp_?first@QSqlQuery@@UAE_NXZ 1003c558     qt-mt323:qt-mt323.dll
 0002:0000055c       __imp_?prev@QSqlQuery@@UAE_NXZ 1003c55c     qt-mt323:qt-mt323.dll
 0002:00000560       __imp_?next@QSqlQuery@@UAE_NXZ 1003c560     qt-mt323:qt-mt323.dll
 0002:00000564       __imp_?seek@QSqlQuery@@UAE_NH_N@Z 1003c564     qt-mt323:qt-mt323.dll
 0002:00000568       __imp_?exec@QSqlCursor@@MAE_NABVQString@@@Z 1003c568     qt-mt323:qt-mt323.dll
 0002:0000056c       __imp_?calculateField@QSqlCursor@@MAE?AVQVariant@@ABVQString@@@Z 1003c56c     qt-mt323:qt-mt323.dll
 0002:00000570       __imp_?toString@QSqlCursor@@MBE?AVQString@@ABV2@PAVQSqlField@@0@Z 1003c570     qt-mt323:qt-mt323.dll
 0002:00000574       __imp_?toString@QSqlCursor@@MBE?AVQString@@PAVQSqlRecord@@ABV2@11@Z 1003c574     qt-mt323:qt-mt323.dll
 0002:00000578       __imp_?toString@QSqlCursor@@MBE?AVQString@@ABVQSqlIndex@@PAVQSqlRecord@@ABV2@22@Z 1003c578     qt-mt323:qt-mt323.dll
 0002:0000057c       __imp_?setName@QSqlCursor@@UAEXABVQString@@_N@Z 1003c57c     qt-mt323:qt-mt323.dll
 0002:00000580       __imp_?setFilter@QSqlCursor@@UAEXABVQString@@@Z 1003c580     qt-mt323:qt-mt323.dll
 0002:00000584       __imp_?setSort@QSqlCursor@@UAEXABVQSqlIndex@@@Z 1003c584     qt-mt323:qt-mt323.dll
 0002:00000588       __imp_?select@QSqlCursor@@UAE_NABVQString@@ABVQSqlIndex@@@Z 1003c588     qt-mt323:qt-mt323.dll
 0002:0000058c       __imp_?setTrimmed@QSqlCursor@@UAEXABVQString@@_N@Z 1003c58c     qt-mt323:qt-mt323.dll
 0002:00000590       __imp_?setCalculated@QSqlCursor@@UAEXABVQString@@_N@Z 1003c590     qt-mt323:qt-mt323.dll
 0002:00000594       __imp_?setMode@QSqlCursor@@UAEXH@Z 1003c594     qt-mt323:qt-mt323.dll
 0002:00000598       __imp_?del@QSqlCursor@@UAEH_N@Z 1003c598     qt-mt323:qt-mt323.dll
 0002:0000059c       __imp_?del@QSqlCursor@@MAEHABVQString@@_N@Z 1003c59c     qt-mt323:qt-mt323.dll
 0002:000005a0       __imp_?update@QSqlCursor@@UAEH_N@Z 1003c5a0     qt-mt323:qt-mt323.dll
 0002:000005a4       __imp_?update@QSqlCursor@@MAEHABVQString@@_N@Z 1003c5a4     qt-mt323:qt-mt323.dll
 0002:000005a8       __imp_?primeDelete@QSqlCursor@@UAEPAVQSqlRecord@@XZ 1003c5a8     qt-mt323:qt-mt323.dll
 0002:000005ac       __imp_?primeUpdate@QSqlCursor@@UAEPAVQSqlRecord@@XZ 1003c5ac     qt-mt323:qt-mt323.dll
 0002:000005b0       __imp_?primeInsert@QSqlCursor@@UAEPAVQSqlRecord@@XZ 1003c5b0     qt-mt323:qt-mt323.dll
 0002:000005b4       __imp_?editBuffer@QSqlCursor@@UAEPAVQSqlRecord@@_N@Z 1003c5b4     qt-mt323:qt-mt323.dll
 0002:000005b8       __imp_?insert@QSqlCursor@@UAEXHABVQSqlFieldInfo@@@Z 1003c5b8     qt-mt323:qt-mt323.dll
 0002:000005bc       __imp_?insert@QSqlCursor@@UAEH_N@Z 1003c5bc     qt-mt323:qt-mt323.dll
 0002:000005c0       __imp_?append@QSqlCursor@@UAEXABVQSqlFieldInfo@@@Z 1003c5c0     qt-mt323:qt-mt323.dll
 0002:000005c4       __imp_?setPrimaryIndex@QSqlCursor@@UAEXABVQSqlIndex@@@Z 1003c5c4     qt-mt323:qt-mt323.dll
 0002:000005c8       __imp_?index@QSqlCursor@@UBE?AVQSqlIndex@@ABVQStringList@@@Z 1003c5c8     qt-mt323:qt-mt323.dll
 0002:000005cc       __imp_?primaryIndex@QSqlCursor@@UBE?AVQSqlIndex@@_N@Z 1003c5cc     qt-mt323:qt-mt323.dll
 0002:000005d0       __imp_?toStringList@QSqlRecord@@UBE?AVQStringList@@ABVQString@@@Z 1003c5d0     qt-mt323:qt-mt323.dll
 0002:000005d4       __imp_?toString@QSqlCursor@@UBE?AVQString@@ABV2@0@Z 1003c5d4     qt-mt323:qt-mt323.dll
 0002:000005d8       __imp_?clearValues@QSqlRecord@@UAEX_N@Z 1003c5d8     qt-mt323:qt-mt323.dll
 0002:000005dc       __imp_?clear@QSqlCursor@@UAEXXZ 1003c5dc     qt-mt323:qt-mt323.dll
 0002:000005e0       __imp_?remove@QSqlCursor@@UAEXH@Z 1003c5e0     qt-mt323:qt-mt323.dll
 0002:000005e4       __imp_?insert@QSqlCursor@@EAEXHABVQSqlField@@@Z 1003c5e4     qt-mt323:qt-mt323.dll
 0002:000005e8       __imp_?append@QSqlCursor@@EAEXABVQSqlField@@@Z 1003c5e8     qt-mt323:qt-mt323.dll
 0002:000005ec       __imp_?setNull@QSqlRecord@@UAEXH@Z 1003c5ec     qt-mt323:qt-mt323.dll
 0002:000005f0       __imp_?setNull@QSqlRecord@@UAEXABVQString@@@Z 1003c5f0     qt-mt323:qt-mt323.dll
 0002:000005f4       __imp_?setGenerated@QSqlCursor@@UAEXABVQString@@_N@Z 1003c5f4     qt-mt323:qt-mt323.dll
 0002:000005f8       __imp_?setGenerated@QSqlCursor@@UAEXH_N@Z 1003c5f8     qt-mt323:qt-mt323.dll
 0002:000005fc       __imp_?setValue@QSqlCursor@@UAEXHABVQVariant@@@Z 1003c5fc     qt-mt323:qt-mt323.dll
 0002:00000600       __imp_?setValue@QSqlCursor@@UAEXABVQString@@ABVQVariant@@@Z 1003c600     qt-mt323:qt-mt323.dll
 0002:00000604       __imp_?value@QSqlCursor@@UBE?AVQVariant@@H@Z 1003c604     qt-mt323:qt-mt323.dll
 0002:00000608       __imp_?value@QSqlCursor@@UBE?AVQVariant@@ABVQString@@@Z 1003c608     qt-mt323:qt-mt323.dll
 0002:0000060c       __imp_?numRowsAffected@QSqlQuery@@QBEHXZ 1003c60c     qt-mt323:qt-mt323.dll
 0002:00000610       __imp_?select@QSqlCursor@@QAE_NXZ 1003c610     qt-mt323:qt-mt323.dll
 0002:00000614       __imp_??1QSqlIndex@@UAE@XZ 1003c614     qt-mt323:qt-mt323.dll
 0002:00000618       __imp_?setSort@QDataBrowser@@QAEXABVQSqlIndex@@@Z 1003c618     qt-mt323:qt-mt323.dll
 0002:0000061c       __imp_??0QSqlCursor@@QAE@ABVQString@@_NPAVQSqlDatabase@@@Z 1003c61c     qt-mt323:qt-mt323.dll
 0002:00000620       __imp_??1QSqlCursor@@UAE@XZ 1003c620     qt-mt323:qt-mt323.dll
 0002:00000624       __imp_?rebalance@QMapPrivateBase@@QAEXPAUQMapNodeBase@@AAPAU2@@Z 1003c624     qt-mt323:qt-mt323.dll
 0002:00000628       __imp_?reject@QDialog@@MAEXXZ 1003c628     qt-mt323:qt-mt323.dll
 0002:0000062c       __imp_?accept@QDialog@@MAEXXZ 1003c62c     qt-mt323:qt-mt323.dll
 0002:00000630       __imp_?done@QDialog@@MAEXH@Z 1003c630     qt-mt323:qt-mt323.dll
 0002:00000634       __imp_?contextMenuEvent@QDialog@@MAEXPAVQContextMenuEvent@@@Z 1003c634     qt-mt323:qt-mt323.dll
 0002:00000638       __imp_?closeEvent@QDialog@@MAEXPAVQCloseEvent@@@Z 1003c638     qt-mt323:qt-mt323.dll
 0002:0000063c       __imp_?resizeEvent@QDialog@@MAEXPAVQResizeEvent@@@Z 1003c63c     qt-mt323:qt-mt323.dll
 0002:00000640       __imp_?keyPressEvent@QDialog@@MAEXPAVQKeyEvent@@@Z 1003c640     qt-mt323:qt-mt323.dll
 0002:00000644       __imp_?minimumSizeHint@QDialog@@UBE?AVQSize@@XZ 1003c644     qt-mt323:qt-mt323.dll
 0002:00000648       __imp_?sizeHint@QDialog@@UBE?AVQSize@@XZ 1003c648     qt-mt323:qt-mt323.dll
 0002:0000064c       __imp_?setGeometry@QDialog@@UAEXHHHH@Z 1003c64c     qt-mt323:qt-mt323.dll
 0002:00000650       __imp_?setGeometry@QDialog@@UAEXABVQRect@@@Z 1003c650     qt-mt323:qt-mt323.dll
 0002:00000654       __imp_?resize@QDialog@@UAEXHH@Z 1003c654     qt-mt323:qt-mt323.dll
 0002:00000658       __imp_?move@QDialog@@UAEXHH@Z 1003c658     qt-mt323:qt-mt323.dll
 0002:0000065c       __imp_?hide@QDialog@@UAEXXZ 1003c65c     qt-mt323:qt-mt323.dll
 0002:00000660       __imp_?show@QDialog@@UAEXXZ 1003c660     qt-mt323:qt-mt323.dll
 0002:00000664       __imp_?eventFilter@QDialog@@MAE_NPAVQObject@@PAVQEvent@@@Z 1003c664     qt-mt323:qt-mt323.dll
 0002:00000668       __imp_??1QSqlRecord@@UAE@XZ 1003c668     qt-mt323:qt-mt323.dll
 0002:0000066c       __imp_?findItem@QListView@@QBEPAVQListViewItem@@ABVQString@@HI@Z 1003c66c     qt-mt323:qt-mt323.dll
 0002:00000670       __imp_?fieldName@QSqlRecord@@QBE?AVQString@@H@Z 1003c670     qt-mt323:qt-mt323.dll
 0002:00000674       __imp_?count@QSqlRecord@@QBEIXZ 1003c674     qt-mt323:qt-mt323.dll
 0002:00000678       __imp_?record@QSqlDatabase@@QBE?AVQSqlRecord@@ABVQString@@@Z 1003c678     qt-mt323:qt-mt323.dll
 0002:0000067c       __imp_?selectedItem@QListView@@QBEPAVQListViewItem@@XZ 1003c67c     qt-mt323:qt-mt323.dll
 0002:00000680       __imp_?fieldAlignment@QDataTable@@MAEHPBVQSqlField@@@Z 1003c680     qt-mt323:qt-mt323.dll
 0002:00000684       __imp_?paintField@QDataTable@@MAEXPAVQPainter@@PBVQSqlField@@ABVQRect@@_N@Z 1003c684     qt-mt323:qt-mt323.dll
 0002:00000688       __imp_?beginUpdate@QDataTable@@MAEPAVQWidget@@HH_N@Z 1003c688     qt-mt323:qt-mt323.dll
 0002:0000068c       __imp_?beginInsert@QDataTable@@MAE_NXZ 1003c68c     qt-mt323:qt-mt323.dll
 0002:00000690       __imp_?handleError@QDataTable@@MAEXABVQSqlError@@@Z 1003c690     qt-mt323:qt-mt323.dll
 0002:00000694       __imp_?confirmCancel@QDataTable@@MAE?AW4Confirm@QSql@@W4Op@3@@Z 1003c694     qt-mt323:qt-mt323.dll
 0002:00000698       __imp_?confirmEdit@QDataTable@@MAE?AW4Confirm@QSql@@W4Op@3@@Z 1003c698     qt-mt323:qt-mt323.dll
 0002:0000069c       __imp_?deleteCurrent@QDataTable@@MAE_NXZ 1003c69c     qt-mt323:qt-mt323.dll
 0002:000006a0       __imp_?updateCurrent@QDataTable@@MAE_NXZ 1003c6a0     qt-mt323:qt-mt323.dll
 0002:000006a4       __imp_?insertCurrent@QDataTable@@MAE_NXZ 1003c6a4     qt-mt323:qt-mt323.dll
 0002:000006a8       __imp_?sortDescending@QDataTable@@UAEXH@Z 1003c6a8     qt-mt323:qt-mt323.dll
 0002:000006ac       __imp_?sortAscending@QDataTable@@UAEXH@Z 1003c6ac     qt-mt323:qt-mt323.dll
 0002:000006b0       __imp_?find@QDataTable@@UAEXABVQString@@_N1@Z 1003c6b0     qt-mt323:qt-mt323.dll
 0002:000006b4       __imp_?refresh@QDataTable@@UAEXXZ 1003c6b4     qt-mt323:qt-mt323.dll
 0002:000006b8       __imp_?setSort@QDataTable@@UAEXABVQStringList@@@Z 1003c6b8     qt-mt323:qt-mt323.dll
 0002:000006bc       __imp_?setSort@QDataTable@@UAEXABVQSqlIndex@@@Z 1003c6bc     qt-mt323:qt-mt323.dll
 0002:000006c0       __imp_?setFilter@QDataTable@@UAEXABVQString@@@Z 1003c6c0     qt-mt323:qt-mt323.dll
 0002:000006c4       __imp_?setAutoEdit@QDataTable@@UAEX_N@Z 1003c6c4     qt-mt323:qt-mt323.dll
 0002:000006c8       __imp_?setAutoDelete@QDataTable@@UAEX_N@Z 1003c6c8     qt-mt323:qt-mt323.dll
 0002:000006cc       __imp_?setConfirmCancels@QDataTable@@UAEX_N@Z 1003c6cc     qt-mt323:qt-mt323.dll
 0002:000006d0       __imp_?setConfirmDelete@QDataTable@@UAEX_N@Z 1003c6d0     qt-mt323:qt-mt323.dll
 0002:000006d4       __imp_?setConfirmUpdate@QDataTable@@UAEX_N@Z 1003c6d4     qt-mt323:qt-mt323.dll
 0002:000006d8       __imp_?setConfirmInsert@QDataTable@@UAEX_N@Z 1003c6d8     qt-mt323:qt-mt323.dll
 0002:000006dc       __imp_?setConfirmEdits@QDataTable@@UAEX_N@Z 1003c6dc     qt-mt323:qt-mt323.dll
 0002:000006e0       __imp_?setDateFormat@QDataTable@@UAEXW4DateFormat@Qt@@@Z 1003c6e0     qt-mt323:qt-mt323.dll
 0002:000006e4       __imp_?setFalseText@QDataTable@@UAEXABVQString@@@Z 1003c6e4     qt-mt323:qt-mt323.dll
 0002:000006e8       __imp_?setTrueText@QDataTable@@UAEXABVQString@@@Z 1003c6e8     qt-mt323:qt-mt323.dll
 0002:000006ec       __imp_?setNullText@QDataTable@@UAEXABVQString@@@Z 1003c6ec     qt-mt323:qt-mt323.dll
 0002:000006f0       __imp_?setSqlCursor@QDataTable@@UAEXPAVQSqlCursor@@_N1@Z 1003c6f0     qt-mt323:qt-mt323.dll
 0002:000006f4       __imp_?setColumn@QDataTable@@UAEXIABVQString@@0HABVQIconSet@@@Z 1003c6f4     qt-mt323:qt-mt323.dll
 0002:000006f8       __imp_?removeColumn@QDataTable@@UAEXI@Z 1003c6f8     qt-mt323:qt-mt323.dll
 0002:000006fc       __imp_?addColumn@QDataTable@@UAEXABVQString@@0HABVQIconSet@@@Z 1003c6fc     qt-mt323:qt-mt323.dll
 0002:00000700       __imp_?columnClicked@QDataTable@@MAEXH@Z 1003c700     qt-mt323:qt-mt323.dll
 0002:00000704       __imp_?rowIndexChanged@QTable@@MAEXHHH@Z 1003c704     qt-mt323:qt-mt323.dll
 0002:00000708       __imp_?columnIndexChanged@QTable@@MAEXHHH@Z 1003c708     qt-mt323:qt-mt323.dll
 0002:0000070c       __imp_?rowHeightChanged@QTable@@MAEXH@Z 1003c70c     qt-mt323:qt-mt323.dll
 0002:00000710       __imp_?columnWidthChanged@QTable@@MAEXH@Z 1003c710     qt-mt323:qt-mt323.dll
 0002:00000714       __imp_?insertWidget@QTable@@MAEXHHPAVQWidget@@@Z 1003c714     qt-mt323:qt-mt323.dll
 0002:00000718       __imp_?resizeData@QDataTable@@MAEXH@Z 1003c718     qt-mt323:qt-mt323.dll
 0002:0000071c       __imp_?endEdit@QDataTable@@MAEXHH_N0@Z 1003c71c     qt-mt323:qt-mt323.dll
 0002:00000720       __imp_?beginEdit@QDataTable@@EAEPAVQWidget@@HH_N@Z 1003c720     qt-mt323:qt-mt323.dll
 0002:00000724       __imp_?setCellContentFromEditor@QTable@@MAEXHH@Z 1003c724     qt-mt323:qt-mt323.dll
 0002:00000728       __imp_?createEditor@QDataTable@@MBEPAVQWidget@@HH_N@Z 1003c728     qt-mt323:qt-mt323.dll
 0002:0000072c       __imp_?activateNextCell@QDataTable@@MAEXXZ 1003c72c     qt-mt323:qt-mt323.dll
 0002:00000730       __imp_?paintEmptyArea@QTable@@MAEXPAVQPainter@@HHHH@Z 1003c730     qt-mt323:qt-mt323.dll
 0002:00000734       __imp_?startDrag@QTable@@MAEXXZ 1003c734     qt-mt323:qt-mt323.dll
 0002:00000738       __imp_?dragObject@QTable@@MAEPAVQDragObject@@XZ 1003c738     qt-mt323:qt-mt323.dll
 0002:0000073c       __imp_?editCell@QTable@@UAEXHH_N@Z 1003c73c     qt-mt323:qt-mt323.dll
 0002:00000740       __imp_?removeColumns@QTable@@UAEXABV?$QMemArray@H@@@Z 1003c740     qt-mt323:qt-mt323.dll
 0002:00000744       __imp_?removeColumn@QTable@@UAEXH@Z 1003c744     qt-mt323:qt-mt323.dll
 0002:00000748       __imp_?removeRows@QTable@@UAEXABV?$QMemArray@H@@@Z 1003c748     qt-mt323:qt-mt323.dll
 0002:0000074c       __imp_?removeRow@QTable@@UAEXH@Z 1003c74c     qt-mt323:qt-mt323.dll
 0002:00000750       __imp_?insertColumns@QTable@@UAEXHH@Z 1003c750     qt-mt323:qt-mt323.dll
 0002:00000754       __imp_?insertRows@QTable@@UAEXHH@Z 1003c754     qt-mt323:qt-mt323.dll
 0002:00000758       __imp_?setDragEnabled@QTable@@UAEX_N@Z 1003c758     qt-mt323:qt-mt323.dll
 0002:0000075c       __imp_?setColumnReadOnly@QTable@@UAEXH_N@Z 1003c75c     qt-mt323:qt-mt323.dll
 0002:00000760       __imp_?setRowReadOnly@QTable@@UAEXH_N@Z 1003c760     qt-mt323:qt-mt323.dll
 0002:00000764       __imp_?setReadOnly@QTable@@UAEX_N@Z 1003c764     qt-mt323:qt-mt323.dll
 0002:00000768       __imp_?setRowMovingEnabled@QTable@@UAEX_N@Z 1003c768     qt-mt323:qt-mt323.dll
 0002:0000076c       __imp_?setColumnMovingEnabled@QTable@@UAEX_N@Z 1003c76c     qt-mt323:qt-mt323.dll
 0002:00000770       __imp_?setCurrentCell@QTable@@UAEXHH@Z 1003c770     qt-mt323:qt-mt323.dll
 0002:00000774       __imp_?setTopMargin@QTable@@UAEXH@Z 1003c774     qt-mt323:qt-mt323.dll
 0002:00000778       __imp_?setLeftMargin@QTable@@UAEXH@Z 1003c778     qt-mt323:qt-mt323.dll
 0002:0000077c       __imp_?swapCells@QTable@@UAEXHHHH@Z 1003c77c     qt-mt323:qt-mt323.dll
 0002:00000780       __imp_?swapColumns@QDataTable@@UAEXHH_N@Z 1003c780     qt-mt323:qt-mt323.dll
 0002:00000784       __imp_?swapRows@QTable@@UAEXHH_N@Z 1003c784     qt-mt323:qt-mt323.dll
 0002:00000788       __imp_?setSorting@QTable@@UAEX_N@Z 1003c788     qt-mt323:qt-mt323.dll
 0002:0000078c       __imp_?setRowStretchable@QTable@@UAEXH_N@Z 1003c78c     qt-mt323:qt-mt323.dll
 0002:00000790       __imp_?setColumnStretchable@QDataTable@@UAEXH_N@Z 1003c790     qt-mt323:qt-mt323.dll
 0002:00000794       __imp_?adjustRow@QTable@@UAEXH@Z 1003c794     qt-mt323:qt-mt323.dll
 0002:00000798       __imp_?adjustColumn@QDataTable@@UAEXH@Z 1003c798     qt-mt323:qt-mt323.dll
 0002:0000079c       __imp_?setRowHeight@QTable@@UAEXHH@Z 1003c79c     qt-mt323:qt-mt323.dll
 0002:000007a0       __imp_?setColumnWidth@QDataTable@@UAEXHH@Z 1003c7a0     qt-mt323:qt-mt323.dll
 0002:000007a4       __imp_?showColumn@QDataTable@@UAEXH@Z 1003c7a4     qt-mt323:qt-mt323.dll
 0002:000007a8       __imp_?showRow@QTable@@UAEXH@Z 1003c7a8     qt-mt323:qt-mt323.dll
 0002:000007ac       __imp_?hideColumn@QDataTable@@UAEXH@Z 1003c7ac     qt-mt323:qt-mt323.dll
 0002:000007b0       __imp_?hideRow@QTable@@UAEXH@Z 1003c7b0     qt-mt323:qt-mt323.dll
 0002:000007b4       __imp_?setShowGrid@QTable@@UAEX_N@Z 1003c7b4     qt-mt323:qt-mt323.dll
 0002:000007b8       __imp_?setNumCols@QDataTable@@UAEXH@Z 1003c7b8     qt-mt323:qt-mt323.dll
 0002:000007bc       __imp_?setNumRows@QDataTable@@UAEXH@Z 1003c7bc     qt-mt323:qt-mt323.dll
 0002:000007c0       __imp_?setFocusStyle@QTable@@UAEXW4FocusStyle@1@@Z 1003c7c0     qt-mt323:qt-mt323.dll
 0002:000007c4       __imp_?paintFocus@QTable@@UAEXPAVQPainter@@ABVQRect@@@Z 1003c7c4     qt-mt323:qt-mt323.dll
 0002:000007c8       __imp_?paintCell@QTable@@UAEXPAVQPainter@@HHABVQRect@@_N@Z 1003c7c8     qt-mt323:qt-mt323.dll
 0002:000007cc       __imp_?paintCell@QDataTable@@MAEXPAVQPainter@@HHABVQRect@@_NABVQColorGroup@@@Z 1003c7cc     qt-mt323:qt-mt323.dll
 0002:000007d0       __imp_?cellRect@QTable@@UBE?AVQRect@@HH@Z 1003c7d0     qt-mt323:qt-mt323.dll
 0002:000007d4       __imp_?clearCellWidget@QTable@@UAEXHH@Z 1003c7d4     qt-mt323:qt-mt323.dll
 0002:000007d8       __imp_?cellWidget@QTable@@UBEPAVQWidget@@HH@Z 1003c7d8     qt-mt323:qt-mt323.dll
 0002:000007dc       __imp_?setCellWidget@QTable@@UAEXHHPAVQWidget@@@Z 1003c7dc     qt-mt323:qt-mt323.dll
 0002:000007e0       __imp_?takeItem@QDataTable@@MAEXPAVQTableItem@@@Z 1003c7e0     qt-mt323:qt-mt323.dll
 0002:000007e4       __imp_?sortColumn@QDataTable@@UAEXH_N0@Z 1003c7e4     qt-mt323:qt-mt323.dll
 0002:000007e8       __imp_?currentSelection@QTable@@UBEHXZ 1003c7e8     qt-mt323:qt-mt323.dll
 0002:000007ec       __imp_?removeSelection@QTable@@UAEXABVQTableSelection@@@Z 1003c7ec     qt-mt323:qt-mt323.dll
 0002:000007f0       __imp_?removeSelection@QTable@@UAEXH@Z 1003c7f0     qt-mt323:qt-mt323.dll
 0002:000007f4       __imp_?addSelection@QTable@@UAEHABVQTableSelection@@@Z 1003c7f4     qt-mt323:qt-mt323.dll
 0002:000007f8       __imp_?numCols@QDataTable@@UBEHXZ 1003c7f8     qt-mt323:qt-mt323.dll
 0002:000007fc       __imp_?numRows@QDataTable@@UBEHXZ 1003c7fc     qt-mt323:qt-mt323.dll
 0002:00000800       __imp_?rowAt@QTable@@UBEHH@Z 1003c800     qt-mt323:qt-mt323.dll
 0002:00000804       __imp_?columnAt@QTable@@UBEHH@Z 1003c804     qt-mt323:qt-mt323.dll
 0002:00000808       __imp_?rowPos@QTable@@UBEHH@Z 1003c808     qt-mt323:qt-mt323.dll
 0002:0000080c       __imp_?columnPos@QTable@@UBEHH@Z 1003c80c     qt-mt323:qt-mt323.dll
 0002:00000810       __imp_?rowHeight@QTable@@UBEHH@Z 1003c810     qt-mt323:qt-mt323.dll
 0002:00000814       __imp_?columnWidth@QTable@@UBEHH@Z 1003c814     qt-mt323:qt-mt323.dll
 0002:00000818       __imp_?cellGeometry@QTable@@UBE?AVQRect@@HH@Z 1003c818     qt-mt323:qt-mt323.dll
 0002:0000081c       __imp_?clearCell@QDataTable@@MAEXHH@Z 1003c81c     qt-mt323:qt-mt323.dll
 0002:00000820       __imp_?pixmap@QTable@@UBE?AVQPixmap@@HH@Z 1003c820     qt-mt323:qt-mt323.dll
 0002:00000824       __imp_?text@QDataTable@@UBE?AVQString@@HH@Z 1003c824     qt-mt323:qt-mt323.dll
 0002:00000828       __imp_?item@QDataTable@@MBEPAVQTableItem@@HH@Z 1003c828     qt-mt323:qt-mt323.dll
 0002:0000082c       __imp_?setPixmap@QDataTable@@MAEXHHABVQPixmap@@@Z 1003c82c     qt-mt323:qt-mt323.dll
 0002:00000830       __imp_?setText@QTable@@UAEXHHABVQString@@@Z 1003c830     qt-mt323:qt-mt323.dll
 0002:00000834       __imp_?setItem@QDataTable@@MAEXHHPAVQTableItem@@@Z 1003c834     qt-mt323:qt-mt323.dll
 0002:00000838       __imp_?setSelectionMode@QTable@@UAEXW4SelectionMode@1@@Z 1003c838     qt-mt323:qt-mt323.dll
 0002:0000083c       __imp_?setVBarGeometry@QScrollView@@MAEXAAVQScrollBar@@HHHH@Z 1003c83c     qt-mt323:qt-mt323.dll
 0002:00000840       __imp_?setHBarGeometry@QScrollView@@MAEXAAVQScrollBar@@HHHH@Z 1003c840     qt-mt323:qt-mt323.dll
 0002:00000844       __imp_?setMargins@QScrollView@@MAEXHHHH@Z 1003c844     qt-mt323:qt-mt323.dll
 0002:00000848       __imp_?viewportContextMenuEvent@QScrollView@@MAEXPAVQContextMenuEvent@@@Z 1003c848     qt-mt323:qt-mt323.dll
 0002:0000084c       __imp_?viewportWheelEvent@QScrollView@@MAEXPAVQWheelEvent@@@Z 1003c84c     qt-mt323:qt-mt323.dll
 0002:00000850       __imp_?viewportDropEvent@QScrollView@@MAEXPAVQDropEvent@@@Z 1003c850     qt-mt323:qt-mt323.dll
 0002:00000854       __imp_?viewportDragLeaveEvent@QScrollView@@MAEXPAVQDragLeaveEvent@@@Z 1003c854     qt-mt323:qt-mt323.dll
 0002:00000858       __imp_?viewportDragMoveEvent@QScrollView@@MAEXPAVQDragMoveEvent@@@Z 1003c858     qt-mt323:qt-mt323.dll
 0002:0000085c       __imp_?viewportDragEnterEvent@QScrollView@@MAEXPAVQDragEnterEvent@@@Z 1003c85c     qt-mt323:qt-mt323.dll
 0002:00000860       __imp_?viewportMouseMoveEvent@QScrollView@@MAEXPAVQMouseEvent@@@Z 1003c860     qt-mt323:qt-mt323.dll
 0002:00000864       __imp_?viewportMouseDoubleClickEvent@QScrollView@@MAEXPAVQMouseEvent@@@Z 1003c864     qt-mt323:qt-mt323.dll
 0002:00000868       __imp_?viewportMouseReleaseEvent@QScrollView@@MAEXPAVQMouseEvent@@@Z 1003c868     qt-mt323:qt-mt323.dll
 0002:0000086c       __imp_?viewportMousePressEvent@QScrollView@@MAEXPAVQMouseEvent@@@Z 1003c86c     qt-mt323:qt-mt323.dll
 0002:00000870       __imp_?viewportResizeEvent@QTable@@MAEXPAVQResizeEvent@@@Z 1003c870     qt-mt323:qt-mt323.dll
 0002:00000874       __imp_?viewportPaintEvent@QScrollView@@MAEXPAVQPaintEvent@@@Z 1003c874     qt-mt323:qt-mt323.dll
 0002:00000878       __imp_?contentsContextMenuEvent@QDataTable@@MAEXPAVQContextMenuEvent@@@Z 1003c878     qt-mt323:qt-mt323.dll
 0002:0000087c       __imp_?contentsWheelEvent@QScrollView@@MAEXPAVQWheelEvent@@@Z 1003c87c     qt-mt323:qt-mt323.dll
 0002:00000880       __imp_?contentsDropEvent@QTable@@MAEXPAVQDropEvent@@@Z 1003c880     qt-mt323:qt-mt323.dll
 0002:00000884       __imp_?contentsDragLeaveEvent@QTable@@MAEXPAVQDragLeaveEvent@@@Z 1003c884     qt-mt323:qt-mt323.dll
 0002:00000888       __imp_?contentsDragMoveEvent@QTable@@MAEXPAVQDragMoveEvent@@@Z 1003c888     qt-mt323:qt-mt323.dll
 0002:0000088c       __imp_?contentsDragEnterEvent@QTable@@MAEXPAVQDragEnterEvent@@@Z 1003c88c     qt-mt323:qt-mt323.dll
 0002:00000890       __imp_?contentsMouseMoveEvent@QTable@@MAEXPAVQMouseEvent@@@Z 1003c890     qt-mt323:qt-mt323.dll
 0002:00000894       __imp_?contentsMouseDoubleClickEvent@QTable@@MAEXPAVQMouseEvent@@@Z 1003c894     qt-mt323:qt-mt323.dll
 0002:00000898       __imp_?contentsMouseReleaseEvent@QTable@@MAEXPAVQMouseEvent@@@Z 1003c898     qt-mt323:qt-mt323.dll
 0002:0000089c       __imp_?contentsMousePressEvent@QDataTable@@MAEXPAVQMouseEvent@@@Z 1003c89c     qt-mt323:qt-mt323.dll
 0002:000008a0       __imp_?drawContentsOffset@QScrollView@@MAEXPAVQPainter@@HHHHHH@Z 1003c8a0     qt-mt323:qt-mt323.dll
 0002:000008a4       __imp_?drawContents@QDataTable@@MAEXPAVQPainter@@HHHH@Z 1003c8a4     qt-mt323:qt-mt323.dll
 0002:000008a8       __imp_?setContentsPos@QScrollView@@UAEXHH@Z 1003c8a8     qt-mt323:qt-mt323.dll
 0002:000008ac       __imp_?resizeContents@QScrollView@@UAEXHH@Z 1003c8ac     qt-mt323:qt-mt323.dll
 0002:000008b0       __imp_?setDragAutoScroll@QScrollView@@UAEX_N@Z 1003c8b0     qt-mt323:qt-mt323.dll
 0002:000008b4       __imp_?setCornerWidget@QScrollView@@UAEXPAVQWidget@@@Z 1003c8b4     qt-mt323:qt-mt323.dll
 0002:000008b8       __imp_?setHScrollBarMode@QScrollView@@UAEXW4ScrollBarMode@1@@Z 1003c8b8     qt-mt323:qt-mt323.dll
 0002:000008bc       __imp_?setVScrollBarMode@QScrollView@@UAEXW4ScrollBarMode@1@@Z 1003c8bc     qt-mt323:qt-mt323.dll
 0002:000008c0       __imp_?moveChild@QScrollView@@UAEXPAVQWidget@@HH@Z 1003c8c0     qt-mt323:qt-mt323.dll
 0002:000008c4       __imp_?addChild@QScrollView@@UAEXPAVQWidget@@HH@Z 1003c8c4     qt-mt323:qt-mt323.dll
 0002:000008c8       __imp_?setResizePolicy@QScrollView@@UAEXW4ResizePolicy@1@@Z 1003c8c8     qt-mt323:qt-mt323.dll
 0002:000008cc       __imp_?frameChanged@QScrollView@@MAEXXZ 1003c8cc     qt-mt323:qt-mt323.dll
 0002:000008d0       __imp_?drawContents@QTable@@EAEXPAVQPainter@@@Z 1003c8d0     qt-mt323:qt-mt323.dll
 0002:000008d4       __imp_?drawFrame@QFrame@@MAEXPAVQPainter@@@Z 1003c8d4     qt-mt323:qt-mt323.dll
 0002:000008d8       __imp_?setFrameRect@QFrame@@UAEXABVQRect@@@Z 1003c8d8     qt-mt323:qt-mt323.dll
 0002:000008dc       __imp_?setMidLineWidth@QFrame@@UAEXH@Z 1003c8dc     qt-mt323:qt-mt323.dll
 0002:000008e0       __imp_?setMargin@QFrame@@UAEXH@Z 1003c8e0     qt-mt323:qt-mt323.dll
 0002:000008e4       __imp_?setLineWidth@QFrame@@UAEXH@Z 1003c8e4     qt-mt323:qt-mt323.dll
 0002:000008e8       __imp_?setFrameStyle@QFrame@@UAEXH@Z 1003c8e8     qt-mt323:qt-mt323.dll
 0002:000008ec       __imp_?focusNextPrevChild@QScrollView@@MAE_N_N@Z 1003c8ec     qt-mt323:qt-mt323.dll
 0002:000008f0       __imp_?windowActivationChange@QTable@@MAEX_N@Z 1003c8f0     qt-mt323:qt-mt323.dll
 0002:000008f4       __imp_?fontChange@QScrollView@@MAEXABVQFont@@@Z 1003c8f4     qt-mt323:qt-mt323.dll
 0002:000008f8       __imp_?styleChange@QScrollView@@UAEXAAVQStyle@@@Z 1003c8f8     qt-mt323:qt-mt323.dll
 0002:000008fc       __imp_?showEvent@QTable@@MAEXPAVQShowEvent@@@Z 1003c8fc     qt-mt323:qt-mt323.dll
 0002:00000900       __imp_?contextMenuEvent@QScrollView@@MAEXPAVQContextMenuEvent@@@Z 1003c900     qt-mt323:qt-mt323.dll
 0002:00000904       __imp_?resizeEvent@QDataTable@@MAEXPAVQResizeEvent@@@Z 1003c904     qt-mt323:qt-mt323.dll
 0002:00000908       __imp_?paintEvent@QTable@@MAEXPAVQPaintEvent@@@Z 1003c908     qt-mt323:qt-mt323.dll
 0002:0000090c       __imp_?focusOutEvent@QTable@@MAEXPAVQFocusEvent@@@Z 1003c90c     qt-mt323:qt-mt323.dll
 0002:00000910       __imp_?focusInEvent@QTable@@MAEXPAVQFocusEvent@@@Z 1003c910     qt-mt323:qt-mt323.dll
 0002:00000914       __imp_?keyPressEvent@QDataTable@@MAEXPAVQKeyEvent@@@Z 1003c914     qt-mt323:qt-mt323.dll
 0002:00000918       __imp_?wheelEvent@QScrollView@@MAEXPAVQWheelEvent@@@Z 1003c918     qt-mt323:qt-mt323.dll
 0002:0000091c       __imp_?mouseMoveEvent@QScrollView@@MAEXPAVQMouseEvent@@@Z 1003c91c     qt-mt323:qt-mt323.dll
 0002:00000920       __imp_?mouseDoubleClickEvent@QScrollView@@MAEXPAVQMouseEvent@@@Z 1003c920     qt-mt323:qt-mt323.dll
 0002:00000924       __imp_?mouseReleaseEvent@QScrollView@@MAEXPAVQMouseEvent@@@Z 1003c924     qt-mt323:qt-mt323.dll
 0002:00000928       __imp_?mousePressEvent@QScrollView@@MAEXPAVQMouseEvent@@@Z 1003c928     qt-mt323:qt-mt323.dll
 0002:0000092c       __imp_?minimumSizeHint@QScrollView@@UBE?AVQSize@@XZ 1003c92c     qt-mt323:qt-mt323.dll
 0002:00000930       __imp_?sizeHint@QTable@@UBE?AVQSize@@XZ 1003c930     qt-mt323:qt-mt323.dll
 0002:00000934       __imp_?resize@QScrollView@@UAEXHH@Z 1003c934     qt-mt323:qt-mt323.dll
 0002:00000938       __imp_?show@QScrollView@@UAEXXZ 1003c938     qt-mt323:qt-mt323.dll
 0002:0000093c       __imp_?setEnabled@QTable@@UAEX_N@Z 1003c93c     qt-mt323:qt-mt323.dll
 0002:00000940       __imp_?removeChild@QScrollView@@UAEXPAVQObject@@@Z 1003c940     qt-mt323:qt-mt323.dll
 0002:00000944       __imp_?eventFilter@QDataTable@@MAE_NPAVQObject@@PAVQEvent@@@Z 1003c944     qt-mt323:qt-mt323.dll
 0002:00000948       __imp_??1QDataTable@@UAE@XZ 1003c948     qt-mt323:qt-mt323.dll
 0002:0000094c       __imp_??0QDataTable@@QAE@PAVQWidget@@PBD@Z 1003c94c     qt-mt323:qt-mt323.dll
 0002:00000950       __imp_?postEvent@QApplication@@SAXPAVQObject@@PAVQEvent@@@Z 1003c950     qt-mt323:qt-mt323.dll
 0002:00000954       __imp_??0QCustomEvent@@QAE@H@Z 1003c954     qt-mt323:qt-mt323.dll
 0002:00000958       __imp_??1QEvent@@UAE@XZ    1003c958     qt-mt323:qt-mt323.dll
 0002:0000095c       __imp_?paintEmptyArea@QListView@@MAEXPAVQPainter@@ABVQRect@@@Z 1003c95c     qt-mt323:qt-mt323.dll
 0002:00000960       __imp_?startDrag@QListView@@MAEXXZ 1003c960     qt-mt323:qt-mt323.dll
 0002:00000964       __imp_?dragObject@QListView@@MAEPAVQDragObject@@XZ 1003c964     qt-mt323:qt-mt323.dll
 0002:00000968       __imp_?selectAll@QListView@@UAEX_N@Z 1003c968     qt-mt323:qt-mt323.dll
 0002:0000096c       __imp_?invertSelection@QListView@@UAEXXZ 1003c96c     qt-mt323:qt-mt323.dll
 0002:00000970       __imp_?clear@QListView@@UAEXXZ 1003c970     qt-mt323:qt-mt323.dll
 0002:00000974       __imp_?setDefaultRenameAction@QListView@@UAEXW4RenameAction@1@@Z 1003c974     qt-mt323:qt-mt323.dll
 0002:00000978       __imp_?setResizeMode@QListView@@UAEXW4ResizeMode@1@@Z 1003c978     qt-mt323:qt-mt323.dll
 0002:0000097c       __imp_?setShowToolTips@QListView@@UAEX_N@Z 1003c97c     qt-mt323:qt-mt323.dll
 0002:00000980       __imp_?setShowSortIndicator@QListView@@UAEX_N@Z 1003c980     qt-mt323:qt-mt323.dll
 0002:00000984       __imp_?sort@QListView@@UAEXXZ 1003c984     qt-mt323:qt-mt323.dll
 0002:00000988       __imp_?setSorting@QListView@@UAEXH_N@Z 1003c988     qt-mt323:qt-mt323.dll
 0002:0000098c       __imp_?setRootIsDecorated@QListView@@UAEX_N@Z 1003c98c     qt-mt323:qt-mt323.dll
 0002:00000990       __imp_?setItemMargin@QListView@@UAEXH@Z 1003c990     qt-mt323:qt-mt323.dll
 0002:00000994       __imp_?setAllColumnsShowFocus@QListView@@UAEX_N@Z 1003c994     qt-mt323:qt-mt323.dll
 0002:00000998       __imp_?setCurrentItem@QListView@@UAEXPAVQListViewItem@@@Z 1003c998     qt-mt323:qt-mt323.dll
 0002:0000099c       __imp_?setOpen@QListView@@UAEXPAVQListViewItem@@_N@Z 1003c99c     qt-mt323:qt-mt323.dll
 0002:000009a0       __imp_?setSelected@QListView@@UAEXPAVQListViewItem@@_N@Z 1003c9a0     qt-mt323:qt-mt323.dll
 0002:000009a4       __imp_?clearSelection@QListView@@UAEXXZ 1003c9a4     qt-mt323:qt-mt323.dll
 0002:000009a8       __imp_?setMultiSelection@QListView@@UAEX_N@Z 1003c9a8     qt-mt323:qt-mt323.dll
 0002:000009ac       __imp_?setColumnAlignment@QListView@@UAEXHH@Z 1003c9ac     qt-mt323:qt-mt323.dll
 0002:000009b0       __imp_?setColumnWidthMode@QListView@@UAEXHW4WidthMode@1@@Z 1003c9b0     qt-mt323:qt-mt323.dll
 0002:000009b4       __imp_?setColumnWidth@QListView@@UAEXHH@Z 1003c9b4     qt-mt323:qt-mt323.dll
 0002:000009b8       __imp_?setColumnText@QListView@@UAEXHABVQString@@@Z 1003c9b8     qt-mt323:qt-mt323.dll
 0002:000009bc       __imp_?setColumnText@QListView@@UAEXHABVQIconSet@@ABVQString@@@Z 1003c9bc     qt-mt323:qt-mt323.dll
 0002:000009c0       __imp_?removeColumn@QListView@@UAEXH@Z 1003c9c0     qt-mt323:qt-mt323.dll
 0002:000009c4       __imp_?addColumn@QListView@@UAEHABVQString@@H@Z 1003c9c4     qt-mt323:qt-mt323.dll
 0002:000009c8       __imp_?addColumn@QListView@@UAEHABVQIconSet@@ABVQString@@H@Z 1003c9c8     qt-mt323:qt-mt323.dll
 0002:000009cc       __imp_?removeItem@QListView@@UAEXPAVQListViewItem@@@Z 1003c9cc     qt-mt323:qt-mt323.dll
 0002:000009d0       __imp_?takeItem@QListView@@UAEXPAVQListViewItem@@@Z 1003c9d0     qt-mt323:qt-mt323.dll
 0002:000009d4       __imp_?insertItem@QListView@@UAEXPAVQListViewItem@@@Z 1003c9d4     qt-mt323:qt-mt323.dll
 0002:000009d8       __imp_?setTreeStepSize@QListView@@UAEXH@Z 1003c9d8     qt-mt323:qt-mt323.dll
 0002:000009dc       __imp_?viewportResizeEvent@QListView@@MAEXPAVQResizeEvent@@@Z 1003c9dc     qt-mt323:qt-mt323.dll
 0002:000009e0       __imp_?contentsContextMenuEvent@QListView@@MAEXPAVQContextMenuEvent@@@Z 1003c9e0     qt-mt323:qt-mt323.dll
 0002:000009e4       __imp_?contentsDropEvent@QListView@@MAEXPAVQDropEvent@@@Z 1003c9e4     qt-mt323:qt-mt323.dll
 0002:000009e8       __imp_?contentsDragLeaveEvent@QListView@@MAEXPAVQDragLeaveEvent@@@Z 1003c9e8     qt-mt323:qt-mt323.dll
 0002:000009ec       __imp_?contentsDragMoveEvent@QListView@@MAEXPAVQDragMoveEvent@@@Z 1003c9ec     qt-mt323:qt-mt323.dll
 0002:000009f0       __imp_?contentsDragEnterEvent@QListView@@MAEXPAVQDragEnterEvent@@@Z 1003c9f0     qt-mt323:qt-mt323.dll
 0002:000009f4       __imp_?contentsMouseMoveEvent@QListView@@MAEXPAVQMouseEvent@@@Z 1003c9f4     qt-mt323:qt-mt323.dll
 0002:000009f8       __imp_?contentsMouseDoubleClickEvent@QListView@@MAEXPAVQMouseEvent@@@Z 1003c9f8     qt-mt323:qt-mt323.dll
 0002:000009fc       __imp_?contentsMouseReleaseEvent@QListView@@MAEXPAVQMouseEvent@@@Z 1003c9fc     qt-mt323:qt-mt323.dll
 0002:00000a00       __imp_?contentsMousePressEvent@QListView@@MAEXPAVQMouseEvent@@@Z 1003ca00     qt-mt323:qt-mt323.dll
 0002:00000a04       __imp_?drawContentsOffset@QListView@@MAEXPAVQPainter@@HHHHHH@Z 1003ca04     qt-mt323:qt-mt323.dll
 0002:00000a08       __imp_?drawContents@QScrollView@@MAEXPAVQPainter@@HHHH@Z 1003ca08     qt-mt323:qt-mt323.dll
 0002:00000a0c       __imp_?setContentsPos@QListView@@UAEXHH@Z 1003ca0c     qt-mt323:qt-mt323.dll
 0002:00000a10       __imp_?drawContents@QScrollView@@EAEXPAVQPainter@@@Z 1003ca10     qt-mt323:qt-mt323.dll
 0002:00000a14       __imp_?windowActivationChange@QListView@@MAEX_N@Z 1003ca14     qt-mt323:qt-mt323.dll
 0002:00000a18       __imp_?styleChange@QListView@@MAEXAAVQStyle@@@Z 1003ca18     qt-mt323:qt-mt323.dll
 0002:00000a1c       __imp_?showEvent@QListView@@MAEXPAVQShowEvent@@@Z 1003ca1c     qt-mt323:qt-mt323.dll
 0002:00000a20       __imp_?resizeEvent@QListView@@MAEXPAVQResizeEvent@@@Z 1003ca20     qt-mt323:qt-mt323.dll
 0002:00000a24       __imp_?paintEvent@QFrame@@MAEXPAVQPaintEvent@@@Z 1003ca24     qt-mt323:qt-mt323.dll
 0002:00000a28       __imp_?focusOutEvent@QListView@@MAEXPAVQFocusEvent@@@Z 1003ca28     qt-mt323:qt-mt323.dll
 0002:00000a2c       __imp_?focusInEvent@QListView@@MAEXPAVQFocusEvent@@@Z 1003ca2c     qt-mt323:qt-mt323.dll
 0002:00000a30       __imp_?minimumSizeHint@QListView@@UBE?AVQSize@@XZ 1003ca30     qt-mt323:qt-mt323.dll
 0002:00000a34       __imp_?sizeHint@QListView@@UBE?AVQSize@@XZ 1003ca34     qt-mt323:qt-mt323.dll
 0002:00000a38       __imp_?show@QListView@@UAEXXZ 1003ca38     qt-mt323:qt-mt323.dll
 0002:00000a3c       __imp_?setFont@QListView@@UAEXABVQFont@@@Z 1003ca3c     qt-mt323:qt-mt323.dll
 0002:00000a40       __imp_?setPalette@QListView@@UAEXABVQPalette@@@Z 1003ca40     qt-mt323:qt-mt323.dll
 0002:00000a44       __imp_?setEnabled@QScrollView@@UAEX_N@Z 1003ca44     qt-mt323:qt-mt323.dll
 0002:00000a48       __imp_?eventFilter@QListView@@UAE_NPAVQObject@@PAVQEvent@@@Z 1003ca48     qt-mt323:qt-mt323.dll
 0002:00000a4c       __imp_??1QListView@@UAE@XZ 1003ca4c     qt-mt323:qt-mt323.dll
 0002:00000a50       __imp_??0QListView@@QAE@PAVQWidget@@PBDI@Z 1003ca50     qt-mt323:qt-mt323.dll
 0002:00000a54       __imp_?toString@QDateTime@@QBE?AVQString@@W4DateFormat@Qt@@@Z 1003ca54     qt-mt323:qt-mt323.dll
 0002:00000a58       __imp_?dateTime@QDateTimeEdit@@QBE?AVQDateTime@@XZ 1003ca58     qt-mt323:qt-mt323.dll
 0002:00000a5c       __imp_?toString@QDate@@QBE?AVQString@@W4DateFormat@Qt@@@Z 1003ca5c     qt-mt323:qt-mt323.dll
 0002:00000a60       __imp_?date@QDateEdit@@QBE?AVQDate@@XZ 1003ca60     qt-mt323:qt-mt323.dll
 0002:00000a64       __imp_?selectedId@QButtonGroup@@QBEHXZ 1003ca64     qt-mt323:qt-mt323.dll
 0002:00000a68       __imp_?number@QString@@SA?AV1@HH@Z 1003ca68     qt-mt323:qt-mt323.dll
 0002:00000a6c       __imp_?value@QSpinBox@@QBEHXZ 1003ca6c     qt-mt323:qt-mt323.dll
 0002:00000a70       __imp_?vScrollBarMode@QScrollView@@QBE?AW4ScrollBarMode@1@XZ 1003ca70     qt-mt323:qt-mt323.dll
 0002:00000a74       __imp_?lastItem@QListView@@QBEPAVQListViewItem@@XZ 1003ca74     qt-mt323:qt-mt323.dll
 0002:00000a78       __imp_?ensureItemVisible@QListView@@QAEXPBVQListViewItem@@@Z 1003ca78     qt-mt323:qt-mt323.dll
 0002:00000a7c       __imp_?isEmpty@QString@@QBE_NXZ 1003ca7c     qt-mt323:qt-mt323.dll
 0002:00000a80       __imp_?setPointSize@QFont@@QAEXH@Z 1003ca80     qt-mt323:qt-mt323.dll
 0002:00000a84       __imp_??1QFont@@QAE@XZ     1003ca84     qt-mt323:qt-mt323.dll
 0002:00000a88       __imp_?setFamily@QFont@@QAEXABVQString@@@Z 1003ca88     qt-mt323:qt-mt323.dll
 0002:00000a8c       __imp_?font@QWidget@@QBE?AVQFont@@XZ 1003ca8c     qt-mt323:qt-mt323.dll
 0002:00000a90       __imp_?deref@QShared@@QAE_NXZ 1003ca90     qt-mt323:qt-mt323.dll
 0002:00000a94       __imp_?currentItem@QListView@@QBEPAVQListViewItem@@XZ 1003ca94     qt-mt323:qt-mt323.dll
 0002:00000a98       __imp_??YQString@@QAEAAV0@PBD@Z 1003ca98     qt-mt323:qt-mt323.dll
 0002:00000a9c       __imp_??9@YA_NABVQString@@PBD@Z 1003ca9c     qt-mt323:qt-mt323.dll
 0002:00000aa0       __imp_?arg@QString@@QBE?AV1@ABV1@H@Z 1003caa0     qt-mt323:qt-mt323.dll
 0002:00000aa4       __imp_?msec@QTime@@QBEHXZ  1003caa4     qt-mt323:qt-mt323.dll
 0002:00000aa8       __imp_?currentTime@QTime@@SA?AV1@XZ 1003caa8     qt-mt323:qt-mt323.dll
 0002:00000aac       __imp_?currentDateTime@QDateTime@@SA?AV1@XZ 1003caac     qt-mt323:qt-mt323.dll
 0002:00000ab0       __imp_?blockSignals@QObject@@QAEX_N@Z 1003cab0     qt-mt323:qt-mt323.dll
 0002:00000ab4       __imp_?deleteCurrent@QDataBrowser@@MAE_NXZ 1003cab4     qt-mt323:qt-mt323.dll
 0002:00000ab8       __imp_?columns@QListView@@QBEHXZ 1003cab8     qt-mt323:qt-mt323.dll
 0002:00000abc       __imp_?destroy@QWidget@@MAEX_N0@Z 1003cabc     qt-mt323:qt-mt323.dll
 0002:00000ac0       __imp_?repaintContents@QScrollView@@QAEX_N@Z 1003cac0     qt-mt323:qt-mt323.dll
 0002:00000ac4       __imp_?addDays@QDate@@QBE?AV1@H@Z 1003cac4     qt-mt323:qt-mt323.dll
 0002:00000ac8       __imp_?currentDate@QDate@@SA?AV1@XZ 1003cac8     qt-mt323:qt-mt323.dll
 0002:00000acc       __imp_?moveItem@QListViewItem@@QAEXPAV1@@Z 1003cacc     qt-mt323:qt-mt323.dll
 0002:00000ad0       __imp_?height@QListViewItem@@QBEHXZ 1003cad0     qt-mt323:qt-mt323.dll
 0002:00000ad4       __imp_??BQString@@QBEPBDXZ 1003cad4     qt-mt323:qt-mt323.dll
 0002:00000ad8       __imp_??A?$QValueList@VQString@@@@QBEABVQString@@I@Z 1003cad8     qt-mt323:qt-mt323.dll
 0002:00000adc       __imp_??8@YA_NABVQString@@0@Z 1003cadc     qt-mt323:qt-mt323.dll
 0002:00000ae0       __imp_?fromString@QTime@@SA?AV1@ABVQString@@W4DateFormat@Qt@@@Z 1003cae0     qt-mt323:qt-mt323.dll
 0002:00000ae4       __imp_?fromString@QDate@@SA?AV1@ABVQString@@W4DateFormat@Qt@@@Z 1003cae4     qt-mt323:qt-mt323.dll
 0002:00000ae8       __imp_?split@QStringList@@SA?AV1@ABVQChar@@ABVQString@@_N@Z 1003cae8     qt-mt323:qt-mt323.dll
 0002:00000aec       __imp_?split@QStringList@@SA?AV1@ABVQString@@0_N@Z 1003caec     qt-mt323:qt-mt323.dll
 0002:00000af0       __imp_?sender@QObject@@IAEPBV1@XZ 1003caf0     qt-mt323:qt-mt323.dll
 0002:00000af4       __imp_?toInt@QString@@QBEHPA_NH@Z 1003caf4     qt-mt323:qt-mt323.dll
 0002:00000af8       __imp_?toString@QDateTime@@QBE?AVQString@@ABV2@@Z 1003caf8     qt-mt323:qt-mt323.dll
 0002:00000afc       __imp_?unsetFont@QWidget@@QAEXXZ 1003cafc     qt-mt323:qt-mt323.dll
 0002:00000b00       __imp_?remove@QToolTip@@SAXPAVQWidget@@@Z 1003cb00     qt-mt323:qt-mt323.dll
 0002:00000b04       __imp_?add@QToolTip@@SAXPAVQWidget@@ABVQString@@@Z 1003cb04     qt-mt323:qt-mt323.dll
 0002:00000b08       __imp_?updateContents@QListView@@IAEXXZ 1003cb08     qt-mt323:qt-mt323.dll
 0002:00000b0c       __imp_?toDateTime@QVariant@@QBE?BVQDateTime@@XZ 1003cb0c     qt-mt323:qt-mt323.dll
 0002:00000b10       __imp_?toInt@QVariant@@QBEHPA_N@Z 1003cb10     qt-mt323:qt-mt323.dll
 0002:00000b14       __imp_?toString@QVariant@@QBE?BVQString@@XZ 1003cb14     qt-mt323:qt-mt323.dll
 0002:00000b18       __imp_??9QDateTime@@QBE_NABV0@@Z 1003cb18     qt-mt323:qt-mt323.dll
 0002:00000b1c       __imp_?compareItems@QGList@@MAEHPAX0@Z 1003cb1c     qt-mt323:qt-mt323.dll
 0002:00000b20       __imp_?write@QGList@@MBEAAVQDataStream@@AAV2@PAX@Z 1003cb20     qt-mt323:qt-mt323.dll
 0002:00000b24       __imp_?read@QGList@@MAEAAVQDataStream@@AAV2@AAPAX@Z 1003cb24     qt-mt323:qt-mt323.dll
 0002:00000b28       __imp_?newItem@QPtrCollection@@MAEPAXPAX@Z 1003cb28     qt-mt323:qt-mt323.dll
 0002:00000b2c       __imp_??1QGList@@MAE@XZ    1003cb2c     qt-mt323:qt-mt323.dll
 0002:00000b30       __imp_?clear@QGList@@MAEXXZ 1003cb30     qt-mt323:qt-mt323.dll
 0002:00000b34       __imp_?append@QGList@@IAEXPAX@Z 1003cb34     qt-mt323:qt-mt323.dll
 0002:00000b38       __imp_??0QGList@@IAE@XZ    1003cb38     qt-mt323:qt-mt323.dll
 0002:00000b3c       __imp_?next@QGList@@IAEPAXXZ 1003cb3c     qt-mt323:qt-mt323.dll
 0002:00000b40       __imp_?newPage@QPrinter@@QAE_NXZ 1003cb40     qt-mt323:qt-mt323.dll
 0002:00000b44       __imp_??1QPen@@QAE@XZ      1003cb44     qt-mt323:qt-mt323.dll
 0002:00000b48       __imp_?drawRect@QPainter@@QAEXHHHH@Z 1003cb48     qt-mt323:qt-mt323.dll
 0002:00000b4c       __imp_?setPen@QPainter@@QAEXABVQPen@@@Z 1003cb4c     qt-mt323:qt-mt323.dll
 0002:00000b50       __imp_?setWidth@QPen@@QAEXI@Z 1003cb50     qt-mt323:qt-mt323.dll
 0002:00000b54       __imp_?setColor@QPen@@QAEXABVQColor@@@Z 1003cb54     qt-mt323:qt-mt323.dll
 0002:00000b58       __imp_??0QPen@@QAE@XZ      1003cb58     qt-mt323:qt-mt323.dll
 0002:00000b5c       __imp_??0QPen@@QAE@ABV0@@Z 1003cb5c     qt-mt323:qt-mt323.dll
 0002:00000b60       __imp_?drawText@QPainter@@QAEXABVQRect@@HABVQString@@HPAV2@PAPAVQTextParag@@@Z 1003cb60     qt-mt323:qt-mt323.dll
 0002:00000b64       __imp_?columnText@QListView@@QBE?AVQString@@H@Z 1003cb64     qt-mt323:qt-mt323.dll
 0002:00000b68       __imp_?columnWidth@QListView@@QBEHH@Z 1003cb68     qt-mt323:qt-mt323.dll
 0002:00000b6c       __imp_?setWeight@QFont@@QAEXH@Z 1003cb6c     qt-mt323:qt-mt323.dll
 0002:00000b70       __imp_?setBrush@QPainter@@QAEXABVQColor@@@Z 1003cb70     qt-mt323:qt-mt323.dll
 0002:00000b74       __imp_?setPen@QPainter@@QAEXABVQColor@@@Z 1003cb74     qt-mt323:qt-mt323.dll
 0002:00000b78       __imp_??0QColor@@QAE@PBD@Z 1003cb78     qt-mt323:qt-mt323.dll
 0002:00000b7c       __imp_?first@QGList@@IAEPAXXZ 1003cb7c     qt-mt323:qt-mt323.dll
 0002:00000b80       __imp_?fontMetrics@QPainter@@QBE?AVQFontMetrics@@XZ 1003cb80     qt-mt323:qt-mt323.dll
 0002:00000b84       __imp_?setFont@QPainter@@QAEXABVQFont@@@Z 1003cb84     qt-mt323:qt-mt323.dll
 0002:00000b88       __imp_??1QFontMetrics@@QAE@XZ 1003cb88     qt-mt323:qt-mt323.dll
 0002:00000b8c       __imp_?setPixelSize@QFont@@QAEXH@Z 1003cb8c     qt-mt323:qt-mt323.dll
 0002:00000b90       __imp_?ascent@QFontMetrics@@QBEHXZ 1003cb90     qt-mt323:qt-mt323.dll
 0002:00000b94       __imp_?fontMetrics@QWidget@@QBE?AVQFontMetrics@@XZ 1003cb94     qt-mt323:qt-mt323.dll
 0002:00000b98       __imp_??0QPaintDeviceMetrics@@QAE@PBVQPaintDevice@@@Z 1003cb98     qt-mt323:qt-mt323.dll
 0002:00000b9c       __imp_??0QFont@@QAE@ABV0@@Z 1003cb9c     qt-mt323:qt-mt323.dll
 0002:00000ba0       __imp_??1QPrinter@@UAE@XZ  1003cba0     qt-mt323:qt-mt323.dll
 0002:00000ba4       __imp_??1QPainter@@QAE@XZ  1003cba4     qt-mt323:qt-mt323.dll
 0002:00000ba8       __imp_?begin@QPainter@@QAE_NPBVQPaintDevice@@_N@Z 1003cba8     qt-mt323:qt-mt323.dll
 0002:00000bac       __imp_??0QPainter@@QAE@XZ  1003cbac     qt-mt323:qt-mt323.dll
 0002:00000bb0       __imp_?setColorMode@QPrinter@@UAEXW4ColorMode@1@@Z 1003cbb0     qt-mt323:qt-mt323.dll
 0002:00000bb4       __imp_??0QPrinter@@QAE@W4PrinterMode@0@@Z 1003cbb4     qt-mt323:qt-mt323.dll
 0002:00000bb8       __imp_?insertAt@QGList@@IAE_NIPAX@Z 1003cbb8     qt-mt323:qt-mt323.dll
 0002:00000bbc       __imp_?itemAbove@QListViewItem@@QAEPAV1@XZ 1003cbbc     qt-mt323:qt-mt323.dll
 0002:00000bc0       __imp_?contains@QString@@QBEHVQChar@@_N@Z 1003cbc0     qt-mt323:qt-mt323.dll
 0002:00000bc4       __imp_?remove@QString@@QAEAAV1@VQChar@@@Z 1003cbc4     qt-mt323:qt-mt323.dll
 0002:00000bc8       __imp_?keyPressEvent@QListView@@MAEXPAVQKeyEvent@@@Z 1003cbc8     qt-mt323:qt-mt323.dll
 0002:00000bcc       __imp_??1QCustomEvent@@UAE@XZ 1003cbcc     qt-mt323:qt-mt323.dll
 0002:00000bd0       __imp_??4?$QValueList@VQString@@@@QAEAAV0@ABV0@@Z 1003cbd0     qt-mt323:qt-mt323.dll
 0002:00000bd4       __imp_??M@YA_NABVQString@@0@Z 1003cbd4     qt-mt323:qt-mt323.dll
 0002:00000bd8       __imp_??1?$QValueList@VQString@@@@QAE@XZ 1003cbd8     qt-mt323:qt-mt323.dll
 0002:00000bdc       __imp_?end@?$QValueList@VQString@@@@QAE?AV?$QValueListIterator@VQString@@@@XZ 1003cbdc     qt-mt323:qt-mt323.dll
 0002:00000be0       __imp_?removeAndRebalance@QMapPrivateBase@@QAEPAUQMapNodeBase@@PAU2@AAPAU2@11@Z 1003cbe0     qt-mt323:qt-mt323.dll
 0002:00000be4       __imp_??0?$QValueList@VQString@@@@QAE@XZ 1003cbe4     qt-mt323:qt-mt323.dll
 0002:00000be8       __imp_??0QString@@QAE@XZ   1003cbe8     qt-mt323:qt-mt323.dll
 0002:00000bec       __imp_??0QStringList@@QAE@XZ 1003cbec     qt-mt323:qt-mt323.dll
 0002:00000bf0       __imp_?qWarning@@YAXPBDZZ  1003cbf0     qt-mt323:qt-mt323.dll
 0002:00000bf4       __imp_??0?$QValueListIterator@VQString@@@@QAE@ABV0@@Z 1003cbf4     qt-mt323:qt-mt323.dll
 0002:00000bf8       __imp_??0QDateTime@@QAE@ABVQDate@@@Z 1003cbf8     qt-mt323:qt-mt323.dll
 0002:00000bfc       __imp_??1QThread@@UAE@XZ   1003cbfc     qt-mt323:qt-mt323.dll
 0002:00000c00       __imp_??0QVariant@@QAE@XZ  1003cc00     qt-mt323:qt-mt323.dll
 0002:00000c04       __imp_??1QVariant@@QAE@XZ  1003cc04     qt-mt323:qt-mt323.dll
 0002:00000c08       __imp_??0QThread@@QAE@XZ   1003cc08     qt-mt323:qt-mt323.dll
 0002:00000c0c       __imp_?afterSeek@QSqlQuery@@MAEXXZ 1003cc0c     qt-mt323:qt-mt323.dll
 0002:00000c10       __imp_?value@QSqlQuery@@UBE?AVQVariant@@H@Z 1003cc10     qt-mt323:qt-mt323.dll
 0002:00000c14       __imp_?exec@QSqlQuery@@UAE_NABVQString@@@Z 1003cc14     qt-mt323:qt-mt323.dll
 0002:00000c18       __imp_??1QSqlError@@UAE@XZ 1003cc18     qt-mt323:qt-mt323.dll
 0002:00000c1c       __imp_??4QVariant@@QAEAAV0@ABV0@@Z 1003cc1c     qt-mt323:qt-mt323.dll
 0002:00000c20       __imp_?size@QSqlQuery@@QBEHXZ 1003cc20     qt-mt323:qt-mt323.dll
 0002:00000c24       __imp_?text@QSqlError@@QBE?AVQString@@XZ 1003cc24     qt-mt323:qt-mt323.dll
 0002:00000c28       __imp_?type@QSqlError@@QBEHXZ 1003cc28     qt-mt323:qt-mt323.dll
 0002:00000c2c       __imp_?lastError@QSqlQuery@@QBE?AVQSqlError@@XZ 1003cc2c     qt-mt323:qt-mt323.dll
 0002:00000c30       __imp_?isValid@QSqlQuery@@QBE_NXZ 1003cc30     qt-mt323:qt-mt323.dll
 0002:00000c34       __imp_?isActive@QSqlQuery@@QBE_NXZ 1003cc34     qt-mt323:qt-mt323.dll
 0002:00000c38       __imp_?setForwardOnly@QSqlQuery@@QAEX_N@Z 1003cc38     qt-mt323:qt-mt323.dll
 0002:00000c3c       __imp_??0QSqlQuery@@QAE@ABVQString@@PAVQSqlDatabase@@@Z 1003cc3c     qt-mt323:qt-mt323.dll
 0002:00000c40       __imp_?latin1@QString@@QBEPBDXZ 1003cc40     qt-mt323:qt-mt323.dll
 0002:00000c44       __imp_??1QSqlQuery@@UAE@XZ 1003cc44     qt-mt323:qt-mt323.dll
 0002:00000c48       __imp_?finished@QThread@@QBE_NXZ 1003cc48     qt-mt323:qt-mt323.dll
 0002:00000c4c       __imp_?take@QGList@@IAEPAXXZ 1003cc4c     qt-mt323:qt-mt323.dll
 0002:00000c50       __imp_??1QWaitCondition@@UAE@XZ 1003cc50     qt-mt323:qt-mt323.dll
 0002:00000c54       __imp_??0QWaitCondition@@QAE@XZ 1003cc54     qt-mt323:qt-mt323.dll
 0002:00000c58       __imp_?wait@QWaitCondition@@QAE_NK@Z 1003cc58     qt-mt323:qt-mt323.dll
 0002:00000c5c       __imp_?wakeOne@QWaitCondition@@QAEXXZ 1003cc5c     qt-mt323:qt-mt323.dll
 0002:00000c60       __imp_?main_widget@QApplication@@0PAVQWidget@@A 1003cc60     qt-mt323:qt-mt323.dll
 0002:00000c64       __imp_??MQDateTime@@QBE_NABV0@@Z 1003cc64     qt-mt323:qt-mt323.dll
 0002:00000c68       __imp_??OQDateTime@@QBE_NABV0@@Z 1003cc68     qt-mt323:qt-mt323.dll
 0002:00000c6c       __imp_?remove@?$QValueList@VQString@@@@QAE?AV?$QValueListIterator@VQString@@@@V2@@Z 1003cc6c     qt-mt323:qt-mt323.dll
 0002:00000c70       __imp_?detach@?$QValueList@VQString@@@@IAEXXZ 1003cc70     qt-mt323:qt-mt323.dll
 0002:00000c74       __imp_?detachInternal@?$QValueList@VQString@@@@AAEXXZ 1003cc74     qt-mt323:qt-mt323.dll
 0002:00000c78       __imp_?join@QStringList@@QBE?AVQString@@ABV2@@Z 1003cc78     qt-mt323:qt-mt323.dll
 0002:00000c7c       __imp_?stripWhiteSpace@QString@@QBE?AV1@XZ 1003cc7c     qt-mt323:qt-mt323.dll
 0002:00000c80       __imp_?contains@QString@@QBEHPBD_N@Z 1003cc80     qt-mt323:qt-mt323.dll
 0002:00000c84       __imp_?prepend@QString@@QAEAAV1@PBD@Z 1003cc84     qt-mt323:qt-mt323.dll
 0002:00000c88       __imp_?simplifyWhiteSpace@QString@@QBE?AV1@XZ 1003cc88     qt-mt323:qt-mt323.dll
 0002:00000c8c       __imp_?fromString@QDateTime@@SA?AV1@ABVQString@@W4DateFormat@Qt@@@Z 1003cc8c     qt-mt323:qt-mt323.dll
 0002:00000c90       __imp_?isValid@QTime@@QBE_NXZ 1003cc90     qt-mt323:qt-mt323.dll
 0002:00000c94       __imp_?isValid@QDate@@QBE_NXZ 1003cc94     qt-mt323:qt-mt323.dll
 0002:00000c98       __imp_??NQDateTime@@QBE_NABV0@@Z 1003cc98     qt-mt323:qt-mt323.dll
 0002:00000c9c       __imp_??PQDateTime@@QBE_NABV0@@Z 1003cc9c     qt-mt323:qt-mt323.dll
 0002:00000ca0       __imp_?toString@QDate@@QBE?AVQString@@ABV2@@Z 1003cca0     qt-mt323:qt-mt323.dll
 0002:00000ca4       __imp_??1QRegExp@@QAE@XZ   1003cca4     qt-mt323:qt-mt323.dll
 0002:00000ca8       __imp_?exactMatch@QRegExp@@QBE_NABVQString@@@Z 1003cca8     qt-mt323:qt-mt323.dll
 0002:00000cac       __imp_??0QRegExp@@QAE@ABVQString@@_N1@Z 1003ccac     qt-mt323:qt-mt323.dll
 0002:00000cb0       __imp_?replace@QString@@QAEAAV1@ABV1@0@Z 1003ccb0     qt-mt323:qt-mt323.dll
 0002:00000cb4       __imp_??0?$QMap@VQString@@V1@@@QAE@XZ 1003ccb4     qt-mt323:qt-mt323.dll
 0002:00000cb8       __imp_??0QListViewItem@@QAE@PAVQListView@@@Z 1003ccb8     qt-mt323:qt-mt323.dll
 0002:00000cbc       __imp_?arg@QString@@QBE?AV1@HHH@Z 1003ccbc     qt-mt323:qt-mt323.dll
 0002:00000cc0       __imp_?sprintf@QString@@QAAAAV1@PBDZZ 1003ccc0     qt-mt323:qt-mt323.dll
 0002:00000cc4       __imp_?insert@?$QMap@VQString@@V1@@@QAE?AV?$QMapIterator@VQString@@V1@@@ABVQString@@0_N@Z 1003ccc4     qt-mt323:qt-mt323.dll
 0002:00000cc8       __imp_??4QColor@@QAEAAV0@ABV0@@Z 1003ccc8     qt-mt323:qt-mt323.dll
 0002:00000ccc       __imp_?white@Qt@@2AAVQColor@@A 1003cccc     qt-mt323:qt-mt323.dll
 0002:00000cd0       __imp_??0QColor@@QAE@ABV0@@Z 1003ccd0     qt-mt323:qt-mt323.dll
 0002:00000cd4       __imp_?black@Qt@@2AAVQColor@@A 1003ccd4     qt-mt323:qt-mt323.dll
 0002:00000cd8       __imp_?height@QFontMetrics@@QBEHXZ 1003ccd8     qt-mt323:qt-mt323.dll
 0002:00000cdc       __imp_?listView@QListViewItem@@QBEPAVQListView@@XZ 1003ccdc     qt-mt323:qt-mt323.dll
 0002:00000ce0       __imp_?repaint@QListViewItem@@QBEXXZ 1003cce0     qt-mt323:qt-mt323.dll
 0002:00000ce4       __imp_??0QFontMetrics@@QAE@ABVQFont@@@Z 1003cce4     qt-mt323:qt-mt323.dll
 0002:00000ce8       __imp_??1QDomNode@@UAE@XZ  1003cce8     qt-mt323:qt-mt323.dll
 0002:00000cec       __imp_??4QDomNode@@QAEAAV0@ABV0@@Z 1003ccec     qt-mt323:qt-mt323.dll
 0002:00000cf0       __imp_?nextSibling@QDomNode@@UBE?AV1@XZ 1003ccf0     qt-mt323:qt-mt323.dll
 0002:00000cf4       __imp_??1QDomElement@@UAE@XZ 1003ccf4     qt-mt323:qt-mt323.dll
 0002:00000cf8       __imp_?tagName@QDomElement@@QBE?AVQString@@XZ 1003ccf8     qt-mt323:qt-mt323.dll
 0002:00000cfc       __imp_?toElement@QDomNode@@QAE?AVQDomElement@@XZ 1003ccfc     qt-mt323:qt-mt323.dll
 0002:00000d00       __imp_?attribute@QDomElement@@QBE?AVQString@@ABV2@0@Z 1003cd00     qt-mt323:qt-mt323.dll
 0002:00000d04       __imp_?isNull@QDomNode@@QBE_NXZ 1003cd04     qt-mt323:qt-mt323.dll
 0002:00000d08       __imp_?firstChild@QDomNode@@UBE?AV1@XZ 1003cd08     qt-mt323:qt-mt323.dll
 0002:00000d0c       __imp_?documentElement@QDomDocument@@QBE?AVQDomElement@@XZ 1003cd0c     qt-mt323:qt-mt323.dll
 0002:00000d10       __imp_??1QDomDocument@@UAE@XZ 1003cd10     qt-mt323:qt-mt323.dll
 0002:00000d14       __imp_??1QFile@@UAE@XZ     1003cd14     qt-mt323:qt-mt323.dll
 0002:00000d18       __imp_?close@QFile@@UAEXXZ 1003cd18     qt-mt323:qt-mt323.dll
 0002:00000d1c       __imp_?setContent@QDomDocument@@QAE_NPAVQIODevice@@PAVQString@@PAH2@Z 1003cd1c     qt-mt323:qt-mt323.dll
 0002:00000d20       __imp_?open@QFile@@UAE_NH@Z 1003cd20     qt-mt323:qt-mt323.dll
 0002:00000d24       __imp_??0QFile@@QAE@ABVQString@@@Z 1003cd24     qt-mt323:qt-mt323.dll
 0002:00000d28       __imp_??0QDomDocument@@QAE@ABVQString@@@Z 1003cd28     qt-mt323:qt-mt323.dll
 0002:00000d2c       __imp_??0QColor@@QAE@XZ    1003cd2c     qt-mt323:qt-mt323.dll
 0002:00000d30       __imp_?qt_property@QWidgetPlugin@@UAE_NHHPAVQVariant@@@Z 1003cd30     qt-mt323:qt-mt323.dll
 0002:00000d34       __imp_?qt_emit@QWidgetPlugin@@UAE_NHPAUQUObject@@@Z 1003cd34     qt-mt323:qt-mt323.dll
 0002:00000d38       __imp_?qt_invoke@QWidgetPlugin@@UAE_NHPAUQUObject@@@Z 1003cd38     qt-mt323:qt-mt323.dll
 0002:00000d3c       __imp_?qt_cast@QWidgetPlugin@@UAEPAXPBD@Z 1003cd3c     qt-mt323:qt-mt323.dll
 0002:00000d40       __imp_?className@QWidgetPlugin@@UBEPBDXZ 1003cd40     qt-mt323:qt-mt323.dll
 0002:00000d44       __imp_?metaObject@QWidgetPlugin@@UBEPAVQMetaObject@@XZ 1003cd44     qt-mt323:qt-mt323.dll
 0002:00000d48       __imp_??0QWidgetPlugin@@QAE@XZ 1003cd48     qt-mt323:qt-mt323.dll
 0002:00000d4c       __imp_??1QWidgetPlugin@@UAE@XZ 1003cd4c     qt-mt323:qt-mt323.dll
 0002:00000d50       __imp_??1QIconSet@@UAE@XZ  1003cd50     qt-mt323:qt-mt323.dll
 0002:00000d54       __imp_??1QPixmap@@UAE@XZ   1003cd54     qt-mt323:qt-mt323.dll
 0002:00000d58       __imp_??0QIconSet@@QAE@ABVQPixmap@@W4Size@0@@Z 1003cd58     qt-mt323:qt-mt323.dll
 0002:00000d5c       __imp_??0QPixmap@@QAE@QAPBD@Z 1003cd5c     qt-mt323:qt-mt323.dll
 0002:00000d60       __imp_?iface@QGPlugin@@QAEPAUQUnknownInterface@@XZ 1003cd60     qt-mt323:qt-mt323.dll
 0002:00000d64       __imp_?qt_property@QWidget@@UAE_NHHPAVQVariant@@@Z 1003cd64     qt-mt323:qt-mt323.dll
 0002:00000d68       __imp_?qt_emit@QWidget@@UAE_NHPAUQUObject@@@Z 1003cd68     qt-mt323:qt-mt323.dll
 0002:00000d6c       __imp_?qt_invoke@QWidget@@UAE_NHPAUQUObject@@@Z 1003cd6c     qt-mt323:qt-mt323.dll
 0002:00000d70       __imp_?qt_cast@QWidget@@UAEPAXPBD@Z 1003cd70     qt-mt323:qt-mt323.dll
 0002:00000d74       __imp_?className@QWidget@@UBEPBDXZ 1003cd74     qt-mt323:qt-mt323.dll
 0002:00000d78       __imp_?metaObject@QWidget@@UBEPAVQMetaObject@@XZ 1003cd78     qt-mt323:qt-mt323.dll
 0002:00000d7c       __imp_?spacerItem@QSpacerItem@@UAEPAV1@XZ 1003cd7c     qt-mt323:qt-mt323.dll
 0002:00000d80       __imp_?layout@QLayoutItem@@UAEPAVQLayout@@XZ 1003cd80     qt-mt323:qt-mt323.dll
 0002:00000d84       __imp_?iterator@QLayoutItem@@UAE?AVQLayoutIterator@@XZ 1003cd84     qt-mt323:qt-mt323.dll
 0002:00000d88       __imp_?invalidate@QLayoutItem@@UAEXXZ 1003cd88     qt-mt323:qt-mt323.dll
 0002:00000d8c       __imp_?heightForWidth@QLayoutItem@@UBEHH@Z 1003cd8c     qt-mt323:qt-mt323.dll
 0002:00000d90       __imp_?hasHeightForWidth@QLayoutItem@@UBE_NXZ 1003cd90     qt-mt323:qt-mt323.dll
 0002:00000d94       __imp_?isEmpty@QSpacerItem@@UBE_NXZ 1003cd94     qt-mt323:qt-mt323.dll
 0002:00000d98       __imp_?geometry@QSpacerItem@@UBE?AVQRect@@XZ 1003cd98     qt-mt323:qt-mt323.dll
 0002:00000d9c       __imp_?setGeometry@QSpacerItem@@UAEXABVQRect@@@Z 1003cd9c     qt-mt323:qt-mt323.dll
 0002:00000da0       __imp_?expanding@QSpacerItem@@UBE?AW4ExpandData@QSizePolicy@@XZ 1003cda0     qt-mt323:qt-mt323.dll
 0002:00000da4       __imp_?maximumSize@QSpacerItem@@UBE?AVQSize@@XZ 1003cda4     qt-mt323:qt-mt323.dll
 0002:00000da8       __imp_?minimumSize@QSpacerItem@@UBE?AVQSize@@XZ 1003cda8     qt-mt323:qt-mt323.dll
 0002:00000dac       __imp_?sizeHint@QSpacerItem@@UBE?AVQSize@@XZ 1003cdac     qt-mt323:qt-mt323.dll
 0002:00000db0       __imp_?qt_property@QListView@@UAE_NHHPAVQVariant@@@Z 1003cdb0     qt-mt323:qt-mt323.dll
 0002:00000db4       __imp_?qt_emit@QListView@@UAE_NHPAUQUObject@@@Z 1003cdb4     qt-mt323:qt-mt323.dll
 0002:00000db8       __imp_?qt_invoke@QListView@@UAE_NHPAUQUObject@@@Z 1003cdb8     qt-mt323:qt-mt323.dll
 0002:00000dbc       __imp_?qt_cast@QListView@@UAEPAXPBD@Z 1003cdbc     qt-mt323:qt-mt323.dll
 0002:00000dc0       __imp_?className@QListView@@UBEPBDXZ 1003cdc0     qt-mt323:qt-mt323.dll
 0002:00000dc4       __imp_?metaObject@QListView@@UBEPAVQMetaObject@@XZ 1003cdc4     qt-mt323:qt-mt323.dll
 0002:00000dc8       __imp_?setEditText@QComboBox@@UAEXABVQString@@@Z 1003cdc8     qt-mt323:qt-mt323.dll
 0002:00000dcc       __imp_?popup@QComboBox@@UAEXXZ 1003cdcc     qt-mt323:qt-mt323.dll
 0002:00000dd0       __imp_?setAutoCompletion@QComboBox@@UAEX_N@Z 1003cdd0     qt-mt323:qt-mt323.dll
 0002:00000dd4       __imp_?setLineEdit@QComboBox@@UAEXPAVQLineEdit@@@Z 1003cdd4     qt-mt323:qt-mt323.dll
 0002:00000dd8       __imp_?setListBox@QComboBox@@UAEXPAVQListBox@@@Z 1003cdd8     qt-mt323:qt-mt323.dll
 0002:00000ddc       __imp_?setValidator@QComboBox@@UAEXPBVQValidator@@@Z 1003cddc     qt-mt323:qt-mt323.dll
 0002:00000de0       __imp_?setInsertionPolicy@QComboBox@@UAEXW4Policy@1@@Z 1003cde0     qt-mt323:qt-mt323.dll
 0002:00000de4       __imp_?setMaxCount@QComboBox@@UAEXH@Z 1003cde4     qt-mt323:qt-mt323.dll
 0002:00000de8       __imp_?setSizeLimit@QComboBox@@UAEXH@Z 1003cde8     qt-mt323:qt-mt323.dll
 0002:00000dec       __imp_?setAutoResize@QComboBox@@UAEX_N@Z 1003cdec     qt-mt323:qt-mt323.dll
 0002:00000df0       __imp_?setCurrentText@QComboBox@@UAEXABVQString@@@Z 1003cdf0     qt-mt323:qt-mt323.dll
 0002:00000df4       __imp_?setCurrentItem@QComboBox@@UAEXH@Z 1003cdf4     qt-mt323:qt-mt323.dll
 0002:00000df8       __imp_?styleChange@QComboBox@@MAEXAAVQStyle@@@Z 1003cdf8     qt-mt323:qt-mt323.dll
 0002:00000dfc       __imp_?updateMask@QComboBox@@MAEXXZ 1003cdfc     qt-mt323:qt-mt323.dll
 0002:00000e00       __imp_?resizeEvent@QComboBox@@MAEXPAVQResizeEvent@@@Z 1003ce00     qt-mt323:qt-mt323.dll
 0002:00000e04       __imp_?paintEvent@QComboBox@@MAEXPAVQPaintEvent@@@Z 1003ce04     qt-mt323:qt-mt323.dll
 0002:00000e08       __imp_?focusOutEvent@QComboBox@@MAEXPAVQFocusEvent@@@Z 1003ce08     qt-mt323:qt-mt323.dll
 0002:00000e0c       __imp_?focusInEvent@QComboBox@@MAEXPAVQFocusEvent@@@Z 1003ce0c     qt-mt323:qt-mt323.dll
 0002:00000e10       __imp_?keyPressEvent@QComboBox@@MAEXPAVQKeyEvent@@@Z 1003ce10     qt-mt323:qt-mt323.dll
 0002:00000e14       __imp_?wheelEvent@QComboBox@@MAEXPAVQWheelEvent@@@Z 1003ce14     qt-mt323:qt-mt323.dll
 0002:00000e18       __imp_?mouseMoveEvent@QComboBox@@MAEXPAVQMouseEvent@@@Z 1003ce18     qt-mt323:qt-mt323.dll
 0002:00000e1c       __imp_?mouseDoubleClickEvent@QComboBox@@MAEXPAVQMouseEvent@@@Z 1003ce1c     qt-mt323:qt-mt323.dll
 0002:00000e20       __imp_?mouseReleaseEvent@QComboBox@@MAEXPAVQMouseEvent@@@Z 1003ce20     qt-mt323:qt-mt323.dll
 0002:00000e24       __imp_?mousePressEvent@QComboBox@@MAEXPAVQMouseEvent@@@Z 1003ce24     qt-mt323:qt-mt323.dll
 0002:00000e28       __imp_?sizeHint@QComboBox@@UBE?AVQSize@@XZ 1003ce28     qt-mt323:qt-mt323.dll
 0002:00000e2c       __imp_?setFont@QComboBox@@UAEXABVQFont@@@Z 1003ce2c     qt-mt323:qt-mt323.dll
 0002:00000e30       __imp_?setPalette@QComboBox@@UAEXABVQPalette@@@Z 1003ce30     qt-mt323:qt-mt323.dll
 0002:00000e34       __imp_?setEnabled@QComboBox@@UAEX_N@Z 1003ce34     qt-mt323:qt-mt323.dll
 0002:00000e38       __imp_?eventFilter@QComboBox@@UAE_NPAVQObject@@PAVQEvent@@@Z 1003ce38     qt-mt323:qt-mt323.dll
 0002:00000e3c       __imp_?qt_property@QComboBox@@UAE_NHHPAVQVariant@@@Z 1003ce3c     qt-mt323:qt-mt323.dll
 0002:00000e40       __imp_?qt_emit@QComboBox@@UAE_NHPAUQUObject@@@Z 1003ce40     qt-mt323:qt-mt323.dll
 0002:00000e44       __imp_?qt_invoke@QComboBox@@UAE_NHPAUQUObject@@@Z 1003ce44     qt-mt323:qt-mt323.dll
 0002:00000e48       __imp_?qt_cast@QComboBox@@UAEPAXPBD@Z 1003ce48     qt-mt323:qt-mt323.dll
 0002:00000e4c       __imp_?className@QComboBox@@UBEPBDXZ 1003ce4c     qt-mt323:qt-mt323.dll
 0002:00000e50       __imp_?metaObject@QComboBox@@UBEPAVQMetaObject@@XZ 1003ce50     qt-mt323:qt-mt323.dll
 0002:00000e54       __imp_?setNum@QLabel@@UAEXH@Z 1003ce54     qt-mt323:qt-mt323.dll
 0002:00000e58       __imp_?setNum@QLabel@@UAEXN@Z 1003ce58     qt-mt323:qt-mt323.dll
 0002:00000e5c       __imp_?setMovie@QLabel@@UAEXABVQMovie@@@Z 1003ce5c     qt-mt323:qt-mt323.dll
 0002:00000e60       __imp_?setPicture@QLabel@@UAEXABVQPicture@@@Z 1003ce60     qt-mt323:qt-mt323.dll
 0002:00000e64       __imp_?setPixmap@QLabel@@UAEXABVQPixmap@@@Z 1003ce64     qt-mt323:qt-mt323.dll
 0002:00000e68       __imp_?setText@QLabel@@UAEXABVQString@@@Z 1003ce68     qt-mt323:qt-mt323.dll
 0002:00000e6c       __imp_?setBuddy@QLabel@@UAEXPAVQWidget@@@Z 1003ce6c     qt-mt323:qt-mt323.dll
 0002:00000e70       __imp_?setAutoResize@QLabel@@UAEX_N@Z 1003ce70     qt-mt323:qt-mt323.dll
 0002:00000e74       __imp_?setAlignment@QLabel@@UAEXH@Z 1003ce74     qt-mt323:qt-mt323.dll
 0002:00000e78       __imp_?drawContents@QLabel@@MAEXPAVQPainter@@@Z 1003ce78     qt-mt323:qt-mt323.dll
 0002:00000e7c       __imp_?fontChange@QLabel@@MAEXABVQFont@@@Z 1003ce7c     qt-mt323:qt-mt323.dll
 0002:00000e80       __imp_?resizeEvent@QLabel@@MAEXPAVQResizeEvent@@@Z 1003ce80     qt-mt323:qt-mt323.dll
 0002:00000e84       __imp_?heightForWidth@QLabel@@UBEHH@Z 1003ce84     qt-mt323:qt-mt323.dll
 0002:00000e88       __imp_?minimumSizeHint@QLabel@@UBE?AVQSize@@XZ 1003ce88     qt-mt323:qt-mt323.dll
 0002:00000e8c       __imp_?sizeHint@QLabel@@UBE?AVQSize@@XZ 1003ce8c     qt-mt323:qt-mt323.dll
 0002:00000e90       __imp_?setFont@QLabel@@UAEXABVQFont@@@Z 1003ce90     qt-mt323:qt-mt323.dll
 0002:00000e94       __imp_?qt_property@QLabel@@UAE_NHHPAVQVariant@@@Z 1003ce94     qt-mt323:qt-mt323.dll
 0002:00000e98       __imp_?qt_emit@QLabel@@UAE_NHPAUQUObject@@@Z 1003ce98     qt-mt323:qt-mt323.dll
 0002:00000e9c       __imp_?qt_invoke@QLabel@@UAE_NHPAUQUObject@@@Z 1003ce9c     qt-mt323:qt-mt323.dll
 0002:00000ea0       __imp_?qt_cast@QLabel@@UAEPAXPBD@Z 1003cea0     qt-mt323:qt-mt323.dll
 0002:00000ea4       __imp_?className@QLabel@@UBEPBDXZ 1003cea4     qt-mt323:qt-mt323.dll
 0002:00000ea8       __imp_?metaObject@QLabel@@UBEPAVQMetaObject@@XZ 1003cea8     qt-mt323:qt-mt323.dll
 0002:00000eac       __imp_?createPopupMenu@QLineEdit@@MAEPAVQPopupMenu@@XZ 1003ceac     qt-mt323:qt-mt323.dll
 0002:00000eb0       __imp_?setDragEnabled@QLineEdit@@UAEX_N@Z 1003ceb0     qt-mt323:qt-mt323.dll
 0002:00000eb4       __imp_?paste@QLineEdit@@UAEXXZ 1003ceb4     qt-mt323:qt-mt323.dll
 0002:00000eb8       __imp_?copy@QLineEdit@@UBEXXZ 1003ceb8     qt-mt323:qt-mt323.dll
 0002:00000ebc       __imp_?cut@QLineEdit@@UAEXXZ 1003cebc     qt-mt323:qt-mt323.dll
 0002:00000ec0       __imp_?setAlignment@QLineEdit@@UAEXH@Z 1003cec0     qt-mt323:qt-mt323.dll
 0002:00000ec4       __imp_?setCursorPosition@QLineEdit@@UAEXH@Z 1003cec4     qt-mt323:qt-mt323.dll
 0002:00000ec8       __imp_?setSelection@QLineEdit@@UAEXHH@Z 1003cec8     qt-mt323:qt-mt323.dll
 0002:00000ecc       __imp_?setValidator@QLineEdit@@UAEXPBVQValidator@@@Z 1003cecc     qt-mt323:qt-mt323.dll
 0002:00000ed0       __imp_?setReadOnly@QLineEdit@@UAEX_N@Z 1003ced0     qt-mt323:qt-mt323.dll
 0002:00000ed4       __imp_?setEchoMode@QLineEdit@@UAEXW4EchoMode@1@@Z 1003ced4     qt-mt323:qt-mt323.dll
 0002:00000ed8       __imp_?setFrame@QLineEdit@@UAEX_N@Z 1003ced8     qt-mt323:qt-mt323.dll
 0002:00000edc       __imp_?setMaxLength@QLineEdit@@UAEXH@Z 1003cedc     qt-mt323:qt-mt323.dll
 0002:00000ee0       __imp_?redo@QLineEdit@@UAEXXZ 1003cee0     qt-mt323:qt-mt323.dll
 0002:00000ee4       __imp_?undo@QLineEdit@@UAEXXZ 1003cee4     qt-mt323:qt-mt323.dll
 0002:00000ee8       __imp_?clear@QLineEdit@@UAEXXZ 1003cee8     qt-mt323:qt-mt323.dll
 0002:00000eec       __imp_?insert@QLineEdit@@UAEXABVQString@@@Z 1003ceec     qt-mt323:qt-mt323.dll
 0002:00000ef0       __imp_?clearValidator@QLineEdit@@UAEXXZ 1003cef0     qt-mt323:qt-mt323.dll
 0002:00000ef4       __imp_?deselect@QLineEdit@@UAEXXZ 1003cef4     qt-mt323:qt-mt323.dll
 0002:00000ef8       __imp_?selectAll@QLineEdit@@UAEXXZ 1003cef8     qt-mt323:qt-mt323.dll
 0002:00000efc       __imp_?setText@QLineEdit@@UAEXABVQString@@@Z 1003cefc     qt-mt323:qt-mt323.dll
 0002:00000f00       __imp_?drawContents@QLineEdit@@MAEXPAVQPainter@@@Z 1003cf00     qt-mt323:qt-mt323.dll
 0002:00000f04       __imp_?windowActivationChange@QLineEdit@@MAEX_N@Z 1003cf04     qt-mt323:qt-mt323.dll
 0002:00000f08       __imp_?dropEvent@QLineEdit@@MAEXPAVQDropEvent@@@Z 1003cf08     qt-mt323:qt-mt323.dll
 0002:00000f0c       __imp_?dragLeaveEvent@QLineEdit@@MAEXPAVQDragLeaveEvent@@@Z 1003cf0c     qt-mt323:qt-mt323.dll
 0002:00000f10       __imp_?dragMoveEvent@QLineEdit@@MAEXPAVQDragMoveEvent@@@Z 1003cf10     qt-mt323:qt-mt323.dll
 0002:00000f14       __imp_?dragEnterEvent@QLineEdit@@MAEXPAVQDragEnterEvent@@@Z 1003cf14     qt-mt323:qt-mt323.dll
 0002:00000f18       __imp_?imEndEvent@QLineEdit@@MAEXPAVQIMEvent@@@Z 1003cf18     qt-mt323:qt-mt323.dll
 0002:00000f1c       __imp_?imComposeEvent@QLineEdit@@MAEXPAVQIMEvent@@@Z 1003cf1c     qt-mt323:qt-mt323.dll
 0002:00000f20       __imp_?imStartEvent@QLineEdit@@MAEXPAVQIMEvent@@@Z 1003cf20     qt-mt323:qt-mt323.dll
 0002:00000f24       __imp_?contextMenuEvent@QLineEdit@@MAEXPAVQContextMenuEvent@@@Z 1003cf24     qt-mt323:qt-mt323.dll
 0002:00000f28       __imp_?resizeEvent@QLineEdit@@MAEXPAVQResizeEvent@@@Z 1003cf28     qt-mt323:qt-mt323.dll
 0002:00000f2c       __imp_?focusOutEvent@QLineEdit@@MAEXPAVQFocusEvent@@@Z 1003cf2c     qt-mt323:qt-mt323.dll
 0002:00000f30       __imp_?focusInEvent@QLineEdit@@MAEXPAVQFocusEvent@@@Z 1003cf30     qt-mt323:qt-mt323.dll
 0002:00000f34       __imp_?keyPressEvent@QLineEdit@@MAEXPAVQKeyEvent@@@Z 1003cf34     qt-mt323:qt-mt323.dll
 0002:00000f38       __imp_?mouseMoveEvent@QLineEdit@@MAEXPAVQMouseEvent@@@Z 1003cf38     qt-mt323:qt-mt323.dll
 0002:00000f3c       __imp_?mouseDoubleClickEvent@QLineEdit@@MAEXPAVQMouseEvent@@@Z 1003cf3c     qt-mt323:qt-mt323.dll
 0002:00000f40       __imp_?mouseReleaseEvent@QLineEdit@@MAEXPAVQMouseEvent@@@Z 1003cf40     qt-mt323:qt-mt323.dll
 0002:00000f44       __imp_?mousePressEvent@QLineEdit@@MAEXPAVQMouseEvent@@@Z 1003cf44     qt-mt323:qt-mt323.dll
 0002:00000f48       __imp_?minimumSizeHint@QLineEdit@@UBE?AVQSize@@XZ 1003cf48     qt-mt323:qt-mt323.dll
 0002:00000f4c       __imp_?sizeHint@QLineEdit@@UBE?AVQSize@@XZ 1003cf4c     qt-mt323:qt-mt323.dll
 0002:00000f50       __imp_?setFont@QLineEdit@@UAEXABVQFont@@@Z 1003cf50     qt-mt323:qt-mt323.dll
 0002:00000f54       __imp_?setPalette@QLineEdit@@UAEXABVQPalette@@@Z 1003cf54     qt-mt323:qt-mt323.dll
 0002:00000f58       __imp_?event@QLineEdit@@MAE_NPAVQEvent@@@Z 1003cf58     qt-mt323:qt-mt323.dll
 0002:00000f5c       __imp_?qt_property@QLineEdit@@UAE_NHHPAVQVariant@@@Z 1003cf5c     qt-mt323:qt-mt323.dll
 0002:00000f60       __imp_?qt_emit@QLineEdit@@UAE_NHPAUQUObject@@@Z 1003cf60     qt-mt323:qt-mt323.dll
 0002:00000f64       __imp_?qt_invoke@QLineEdit@@UAE_NHPAUQUObject@@@Z 1003cf64     qt-mt323:qt-mt323.dll
 0002:00000f68       __imp_?qt_cast@QLineEdit@@UAEPAXPBD@Z 1003cf68     qt-mt323:qt-mt323.dll
 0002:00000f6c       __imp_?className@QLineEdit@@UBEPBDXZ 1003cf6c     qt-mt323:qt-mt323.dll
 0002:00000f70       __imp_?metaObject@QLineEdit@@UBEPAVQMetaObject@@XZ 1003cf70     qt-mt323:qt-mt323.dll
 0002:00000f74       __imp_?setAlignment@QGroupBox@@UAEXH@Z 1003cf74     qt-mt323:qt-mt323.dll
 0002:00000f78       __imp_?setTitle@QGroupBox@@UAEXABVQString@@@Z 1003cf78     qt-mt323:qt-mt323.dll
 0002:00000f7c       __imp_?setColumnLayout@QGroupBox@@UAEXHW4Orientation@Qt@@@Z 1003cf7c     qt-mt323:qt-mt323.dll
 0002:00000f80       __imp_?frameChanged@QFrame@@MAEXXZ 1003cf80     qt-mt323:qt-mt323.dll
 0002:00000f84       __imp_?drawContents@QFrame@@MAEXPAVQPainter@@@Z 1003cf84     qt-mt323:qt-mt323.dll
 0002:00000f88       __imp_?fontChange@QGroupBox@@MAEXABVQFont@@@Z 1003cf88     qt-mt323:qt-mt323.dll
 0002:00000f8c       __imp_?styleChange@QFrame@@MAEXAAVQStyle@@@Z 1003cf8c     qt-mt323:qt-mt323.dll
 0002:00000f90       __imp_?resizeEvent@QGroupBox@@MAEXPAVQResizeEvent@@@Z 1003cf90     qt-mt323:qt-mt323.dll
 0002:00000f94       __imp_?paintEvent@QGroupBox@@MAEXPAVQPaintEvent@@@Z 1003cf94     qt-mt323:qt-mt323.dll
 0002:00000f98       __imp_?focusInEvent@QGroupBox@@MAEXPAVQFocusEvent@@@Z 1003cf98     qt-mt323:qt-mt323.dll
 0002:00000f9c       __imp_?sizeHint@QGroupBox@@UBE?AVQSize@@XZ 1003cf9c     qt-mt323:qt-mt323.dll
 0002:00000fa0       __imp_?setEnabled@QGroupBox@@UAEX_N@Z 1003cfa0     qt-mt323:qt-mt323.dll
 0002:00000fa4       __imp_?childEvent@QGroupBox@@MAEXPAVQChildEvent@@@Z 1003cfa4     qt-mt323:qt-mt323.dll
 0002:00000fa8       __imp_?event@QGroupBox@@MAE_NPAVQEvent@@@Z 1003cfa8     qt-mt323:qt-mt323.dll
 0002:00000fac       __imp_?qt_property@QGroupBox@@UAE_NHHPAVQVariant@@@Z 1003cfac     qt-mt323:qt-mt323.dll
 0002:00000fb0       __imp_?qt_emit@QGroupBox@@UAE_NHPAUQUObject@@@Z 1003cfb0     qt-mt323:qt-mt323.dll
 0002:00000fb4       __imp_?qt_invoke@QGroupBox@@UAE_NHPAUQUObject@@@Z 1003cfb4     qt-mt323:qt-mt323.dll
 0002:00000fb8       __imp_?qt_cast@QGroupBox@@UAEPAXPBD@Z 1003cfb8     qt-mt323:qt-mt323.dll
 0002:00000fbc       __imp_?className@QGroupBox@@UBEPBDXZ 1003cfbc     qt-mt323:qt-mt323.dll
 0002:00000fc0       __imp_?metaObject@QGroupBox@@UBEPAVQMetaObject@@XZ 1003cfc0     qt-mt323:qt-mt323.dll
 0002:00000fc4       __imp_?removePage@QTabWidget@@UAEXPAVQWidget@@@Z 1003cfc4     qt-mt323:qt-mt323.dll
 0002:00000fc8       __imp_?showPage@QTabWidget@@UAEXPAVQWidget@@@Z 1003cfc8     qt-mt323:qt-mt323.dll
 0002:00000fcc       __imp_?insertTab@QTabWidget@@UAEXPAVQWidget@@ABVQString@@H@Z 1003cfcc     qt-mt323:qt-mt323.dll
 0002:00000fd0       __imp_?insertTab@QTabWidget@@UAEXPAVQWidget@@ABVQIconSet@@ABVQString@@H@Z 1003cfd0     qt-mt323:qt-mt323.dll
 0002:00000fd4       __imp_?insertTab@QTabWidget@@UAEXPAVQWidget@@PAVQTab@@H@Z 1003cfd4     qt-mt323:qt-mt323.dll
 0002:00000fd8       __imp_?addTab@QTabWidget@@UAEXPAVQWidget@@ABVQString@@@Z 1003cfd8     qt-mt323:qt-mt323.dll
 0002:00000fdc       __imp_?addTab@QTabWidget@@UAEXPAVQWidget@@ABVQIconSet@@ABVQString@@@Z 1003cfdc     qt-mt323:qt-mt323.dll
 0002:00000fe0       __imp_?addTab@QTabWidget@@UAEXPAVQWidget@@PAVQTab@@@Z 1003cfe0     qt-mt323:qt-mt323.dll
 0002:00000fe4       __imp_?styleChange@QTabWidget@@MAEXAAVQStyle@@@Z 1003cfe4     qt-mt323:qt-mt323.dll
 0002:00000fe8       __imp_?updateMask@QTabWidget@@MAEXXZ 1003cfe8     qt-mt323:qt-mt323.dll
 0002:00000fec       __imp_?showEvent@QTabWidget@@MAEXPAVQShowEvent@@@Z 1003cfec     qt-mt323:qt-mt323.dll
 0002:00000ff0       __imp_?resizeEvent@QTabWidget@@MAEXPAVQResizeEvent@@@Z 1003cff0     qt-mt323:qt-mt323.dll
 0002:00000ff4       __imp_?minimumSizeHint@QTabWidget@@UBE?AVQSize@@XZ 1003cff4     qt-mt323:qt-mt323.dll
 0002:00000ff8       __imp_?sizeHint@QTabWidget@@UBE?AVQSize@@XZ 1003cff8     qt-mt323:qt-mt323.dll
 0002:00000ffc       __imp_?eventFilter@QTabWidget@@MAE_NPAVQObject@@PAVQEvent@@@Z 1003cffc     qt-mt323:qt-mt323.dll
 0002:00001000       __imp_?qt_property@QTabWidget@@UAE_NHHPAVQVariant@@@Z 1003d000     qt-mt323:qt-mt323.dll
 0002:00001004       __imp_?qt_emit@QTabWidget@@UAE_NHPAUQUObject@@@Z 1003d004     qt-mt323:qt-mt323.dll
 0002:00001008       __imp_?qt_invoke@QTabWidget@@UAE_NHPAUQUObject@@@Z 1003d008     qt-mt323:qt-mt323.dll
 0002:0000100c       __imp_?qt_cast@QTabWidget@@UAEPAXPBD@Z 1003d00c     qt-mt323:qt-mt323.dll
 0002:00001010       __imp_?className@QTabWidget@@UBEPBDXZ 1003d010     qt-mt323:qt-mt323.dll
 0002:00001014       __imp_?metaObject@QTabWidget@@UBEPAVQMetaObject@@XZ 1003d014     qt-mt323:qt-mt323.dll
 0002:00001018       __imp_?iterator@QGridLayout@@UAE?AVQLayoutIterator@@XZ 1003d018     qt-mt323:qt-mt323.dll
 0002:0000101c       __imp_?invalidate@QGridLayout@@UAEXXZ 1003d01c     qt-mt323:qt-mt323.dll
 0002:00001020       __imp_?heightForWidth@QGridLayout@@UBEHH@Z 1003d020     qt-mt323:qt-mt323.dll
 0002:00001024       __imp_?hasHeightForWidth@QGridLayout@@UBE_NXZ 1003d024     qt-mt323:qt-mt323.dll
 0002:00001028       __imp_?setGeometry@QGridLayout@@UAEXABVQRect@@@Z 1003d028     qt-mt323:qt-mt323.dll
 0002:0000102c       __imp_?expanding@QGridLayout@@UBE?AW4ExpandData@QSizePolicy@@XZ 1003d02c     qt-mt323:qt-mt323.dll
 0002:00001030       __imp_?maximumSize@QGridLayout@@UBE?AVQSize@@XZ 1003d030     qt-mt323:qt-mt323.dll
 0002:00001034       __imp_?minimumSize@QGridLayout@@UBE?AVQSize@@XZ 1003d034     qt-mt323:qt-mt323.dll
 0002:00001038       __imp_?sizeHint@QGridLayout@@UBE?AVQSize@@XZ 1003d038     qt-mt323:qt-mt323.dll
 0002:0000103c       __imp_?setColStretch@QGridLayout@@UAEXHH@Z 1003d03c     qt-mt323:qt-mt323.dll
 0002:00001040       __imp_?setRowStretch@QGridLayout@@UAEXHH@Z 1003d040     qt-mt323:qt-mt323.dll
 0002:00001044       __imp_?addItem@QGridLayout@@UAEXPAVQLayoutItem@@@Z 1003d044     qt-mt323:qt-mt323.dll
 0002:00001048       __imp_?qt_property@QGridLayout@@UAE_NHHPAVQVariant@@@Z 1003d048     qt-mt323:qt-mt323.dll
 0002:0000104c       __imp_?qt_emit@QGridLayout@@UAE_NHPAUQUObject@@@Z 1003d04c     qt-mt323:qt-mt323.dll
 0002:00001050       __imp_?qt_invoke@QGridLayout@@UAE_NHPAUQUObject@@@Z 1003d050     qt-mt323:qt-mt323.dll
 0002:00001054       __imp_?qt_cast@QGridLayout@@UAEPAXPBD@Z 1003d054     qt-mt323:qt-mt323.dll
 0002:00001058       __imp_?className@QGridLayout@@UBEPBDXZ 1003d058     qt-mt323:qt-mt323.dll
 0002:0000105c       __imp_?metaObject@QGridLayout@@UBEPAVQMetaObject@@XZ 1003d05c     qt-mt323:qt-mt323.dll
 0002:00001060       __imp_?qt_property@QVBoxLayout@@UAE_NHHPAVQVariant@@@Z 1003d060     qt-mt323:qt-mt323.dll
 0002:00001064       __imp_?qt_emit@QVBoxLayout@@UAE_NHPAUQUObject@@@Z 1003d064     qt-mt323:qt-mt323.dll
 0002:00001068       __imp_?qt_invoke@QVBoxLayout@@UAE_NHPAUQUObject@@@Z 1003d068     qt-mt323:qt-mt323.dll
 0002:0000106c       __imp_?qt_cast@QVBoxLayout@@UAEPAXPBD@Z 1003d06c     qt-mt323:qt-mt323.dll
 0002:00001070       __imp_?className@QVBoxLayout@@UBEPBDXZ 1003d070     qt-mt323:qt-mt323.dll
 0002:00001074       __imp_?metaObject@QVBoxLayout@@UBEPAVQMetaObject@@XZ 1003d074     qt-mt323:qt-mt323.dll
 0002:00001078       __imp_??1QDialog@@UAE@XZ   1003d078     qt-mt323:qt-mt323.dll
 0002:0000107c       __imp_?setTabOrder@QWidget@@SAXPAV1@0@Z 1003d07c     qt-mt323:qt-mt323.dll
 0002:00001080       __imp_?resize@QDialog@@QAEXABVQSize@@@Z 1003d080     qt-mt323:qt-mt323.dll
 0002:00001084       __imp_?addItem@QGridLayout@@QAEXPAVQLayoutItem@@HH@Z 1003d084     qt-mt323:qt-mt323.dll
 0002:00001088       __imp_??0QPushButton@@QAE@PAVQWidget@@PBD@Z 1003d088     qt-mt323:qt-mt323.dll
 0002:0000108c       __imp_?addMultiCellWidget@QGridLayout@@QAEXPAVQWidget@@HHHHH@Z 1003d08c     qt-mt323:qt-mt323.dll
 0002:00001090       __imp_??0QGridLayout@@QAE@PAVQWidget@@HHHHPBD@Z 1003d090     qt-mt323:qt-mt323.dll
 0002:00001094       __imp_?setDuplicatesEnabled@QComboBox@@QAEX_N@Z 1003d094     qt-mt323:qt-mt323.dll
 0002:00001098       __imp_?setEditable@QComboBox@@QAEX_N@Z 1003d098     qt-mt323:qt-mt323.dll
 0002:0000109c       __imp_??0QComboBox@@QAE@_NPAVQWidget@@PBD@Z 1003d09c     qt-mt323:qt-mt323.dll
 0002:000010a0       __imp_??0QLabel@@QAE@PAVQWidget@@PBDI@Z 1003d0a0     qt-mt323:qt-mt323.dll
 0002:000010a4       __imp_?addLayout@QBoxLayout@@QAEXPAVQLayout@@H@Z 1003d0a4     qt-mt323:qt-mt323.dll
 0002:000010a8       __imp_?addWidget@QGridLayout@@QAEXPAVQWidget@@HHH@Z 1003d0a8     qt-mt323:qt-mt323.dll
 0002:000010ac       __imp_??0QLineEdit@@QAE@PAVQWidget@@PBD@Z 1003d0ac     qt-mt323:qt-mt323.dll
 0002:000010b0       __imp_??0QGridLayout@@QAE@PAVQLayout@@HHHPBD@Z 1003d0b0     qt-mt323:qt-mt323.dll
 0002:000010b4       __imp_??0QGroupBox@@QAE@PAVQWidget@@PBD@Z 1003d0b4     qt-mt323:qt-mt323.dll
 0002:000010b8       __imp_??0QTabWidget@@QAE@PAVQWidget@@PBDI@Z 1003d0b8     qt-mt323:qt-mt323.dll
 0002:000010bc       __imp_??0QVBoxLayout@@QAE@PAVQWidget@@HHPBD@Z 1003d0bc     qt-mt323:qt-mt323.dll
 0002:000010c0       __imp_?setSizeGripEnabled@QDialog@@QAEX_N@Z 1003d0c0     qt-mt323:qt-mt323.dll
 0002:000010c4       __imp_??0QDialog@@QAE@PAVQWidget@@PBD_NI@Z 1003d0c4     qt-mt323:qt-mt323.dll
 0002:000010c8       __imp_??1QSpacerItem@@UAE@XZ 1003d0c8     qt-mt323:qt-mt323.dll
 0002:000010cc       __imp_??1QVBoxLayout@@UAE@XZ 1003d0cc     qt-mt323:qt-mt323.dll
 0002:000010d0       __imp_??1QTabWidget@@UAE@XZ 1003d0d0     qt-mt323:qt-mt323.dll
 0002:000010d4       __imp_??1QGroupBox@@UAE@XZ 1003d0d4     qt-mt323:qt-mt323.dll
 0002:000010d8       __imp_??1QGridLayout@@UAE@XZ 1003d0d8     qt-mt323:qt-mt323.dll
 0002:000010dc       __imp_??1QLineEdit@@UAE@XZ 1003d0dc     qt-mt323:qt-mt323.dll
 0002:000010e0       __imp_??1QLabel@@UAE@XZ    1003d0e0     qt-mt323:qt-mt323.dll
 0002:000010e4       __imp_??1QComboBox@@UAE@XZ 1003d0e4     qt-mt323:qt-mt323.dll
 0002:000010e8       __imp_??1QKeySequence@@QAE@XZ 1003d0e8     qt-mt323:qt-mt323.dll
 0002:000010ec       __imp_??0QKeySequence@@QAE@ABVQString@@@Z 1003d0ec     qt-mt323:qt-mt323.dll
 0002:000010f0       __imp_?changeTab@QTabWidget@@QAEXPAVQWidget@@ABVQString@@@Z 1003d0f0     qt-mt323:qt-mt323.dll
 0002:000010f4       __imp_?drawButtonLabel@QCheckBox@@MAEXPAVQPainter@@@Z 1003d0f4     qt-mt323:qt-mt323.dll
 0002:000010f8       __imp_?drawButton@QCheckBox@@MAEXPAVQPainter@@@Z 1003d0f8     qt-mt323:qt-mt323.dll
 0002:000010fc       __imp_?hitButton@QCheckBox@@MBE_NABVQPoint@@@Z 1003d0fc     qt-mt323:qt-mt323.dll
 0002:00001100       __imp_?updateMask@QCheckBox@@MAEXXZ 1003d100     qt-mt323:qt-mt323.dll
 0002:00001104       __imp_?resizeEvent@QCheckBox@@MAEXPAVQResizeEvent@@@Z 1003d104     qt-mt323:qt-mt323.dll
 0002:00001108       __imp_?focusOutEvent@QButton@@MAEXPAVQFocusEvent@@@Z 1003d108     qt-mt323:qt-mt323.dll
 0002:0000110c       __imp_?focusInEvent@QButton@@MAEXPAVQFocusEvent@@@Z 1003d10c     qt-mt323:qt-mt323.dll
 0002:00001110       __imp_?sizeHint@QCheckBox@@UBE?AVQSize@@XZ 1003d110     qt-mt323:qt-mt323.dll
 0002:00001114       __imp_?qt_property@QCheckBox@@UAE_NHHPAVQVariant@@@Z 1003d114     qt-mt323:qt-mt323.dll
 0002:00001118       __imp_?qt_emit@QCheckBox@@UAE_NHPAUQUObject@@@Z 1003d118     qt-mt323:qt-mt323.dll
 0002:0000111c       __imp_?qt_invoke@QCheckBox@@UAE_NHPAUQUObject@@@Z 1003d11c     qt-mt323:qt-mt323.dll
 0002:00001120       __imp_?qt_cast@QCheckBox@@UAEPAXPBD@Z 1003d120     qt-mt323:qt-mt323.dll
 0002:00001124       __imp_?className@QCheckBox@@UBEPBDXZ 1003d124     qt-mt323:qt-mt323.dll
 0002:00001128       __imp_?metaObject@QCheckBox@@UBEPAVQMetaObject@@XZ 1003d128     qt-mt323:qt-mt323.dll
 0002:0000112c       __imp_??0QCheckBox@@QAE@PAVQWidget@@PBD@Z 1003d12c     qt-mt323:qt-mt323.dll
 0002:00001130       __imp_??1QCheckBox@@UAE@XZ 1003d130     qt-mt323:qt-mt323.dll
 0002:00001134       __imp_?setAutoAdvance@QDateTimeEdit@@UAEX_N@Z 1003d134     qt-mt323:qt-mt323.dll
 0002:00001138       __imp_?setDateTime@QDateTimeEdit@@UAEXABVQDateTime@@@Z 1003d138     qt-mt323:qt-mt323.dll
 0002:0000113c       __imp_?resizeEvent@QDateTimeEdit@@MAEXPAVQResizeEvent@@@Z 1003d13c     qt-mt323:qt-mt323.dll
 0002:00001140       __imp_?minimumSizeHint@QDateTimeEdit@@UBE?AVQSize@@XZ 1003d140     qt-mt323:qt-mt323.dll
 0002:00001144       __imp_?sizeHint@QDateTimeEdit@@UBE?AVQSize@@XZ 1003d144     qt-mt323:qt-mt323.dll
 0002:00001148       __imp_?qt_property@QDateTimeEdit@@UAE_NHHPAVQVariant@@@Z 1003d148     qt-mt323:qt-mt323.dll
 0002:0000114c       __imp_?qt_emit@QDateTimeEdit@@UAE_NHPAUQUObject@@@Z 1003d14c     qt-mt323:qt-mt323.dll
 0002:00001150       __imp_?qt_invoke@QDateTimeEdit@@UAE_NHPAUQUObject@@@Z 1003d150     qt-mt323:qt-mt323.dll
 0002:00001154       __imp_?qt_cast@QDateTimeEdit@@UAEPAXPBD@Z 1003d154     qt-mt323:qt-mt323.dll
 0002:00001158       __imp_?className@QDateTimeEdit@@UBEPBDXZ 1003d158     qt-mt323:qt-mt323.dll
 0002:0000115c       __imp_?metaObject@QDateTimeEdit@@UBEPAVQMetaObject@@XZ 1003d15c     qt-mt323:qt-mt323.dll
 0002:00001160       __imp_?outOfRange@QDateEdit@@MBE_NHHH@Z 1003d160     qt-mt323:qt-mt323.dll
 0002:00001164       __imp_?fix@QDateEdit@@MAEXXZ 1003d164     qt-mt323:qt-mt323.dll
 0002:00001168       __imp_?setDay@QDateEdit@@MAEXH@Z 1003d168     qt-mt323:qt-mt323.dll
 0002:0000116c       __imp_?setMonth@QDateEdit@@MAEXH@Z 1003d16c     qt-mt323:qt-mt323.dll
 0002:00001170       __imp_?setYear@QDateEdit@@MAEXH@Z 1003d170     qt-mt323:qt-mt323.dll
 0002:00001174       __imp_?setSeparator@QDateEdit@@UAEXABVQString@@@Z 1003d174     qt-mt323:qt-mt323.dll
 0002:00001178       __imp_?setRange@QDateEdit@@UAEXABVQDate@@0@Z 1003d178     qt-mt323:qt-mt323.dll
 0002:0000117c       __imp_?setMaxValue@QDateEdit@@UAEXABVQDate@@@Z 1003d17c     qt-mt323:qt-mt323.dll
 0002:00001180       __imp_?setMinValue@QDateEdit@@UAEXABVQDate@@@Z 1003d180     qt-mt323:qt-mt323.dll
 0002:00001184       __imp_?setAutoAdvance@QDateEdit@@UAEX_N@Z 1003d184     qt-mt323:qt-mt323.dll
 0002:00001188       __imp_?setOrder@QDateEdit@@UAEXW4Order@1@@Z 1003d188     qt-mt323:qt-mt323.dll
 0002:0000118c       __imp_?setDate@QDateEdit@@UAEXABVQDate@@@Z 1003d18c     qt-mt323:qt-mt323.dll
 0002:00001190       __imp_?stepDown@QDateEdit@@MAEXXZ 1003d190     qt-mt323:qt-mt323.dll
 0002:00001194       __imp_?stepUp@QDateEdit@@MAEXXZ 1003d194     qt-mt323:qt-mt323.dll
 0002:00001198       __imp_?removeLastNumber@QDateEdit@@MAEXH@Z 1003d198     qt-mt323:qt-mt323.dll
 0002:0000119c       __imp_?addNumber@QDateEdit@@MAEXHH@Z 1003d19c     qt-mt323:qt-mt323.dll
 0002:000011a0       __imp_?sectionFormattedText@QDateEdit@@MAE?AVQString@@H@Z 1003d1a0     qt-mt323:qt-mt323.dll
 0002:000011a4       __imp_?setFocusSection@QDateEdit@@MAE_NH@Z 1003d1a4     qt-mt323:qt-mt323.dll
 0002:000011a8       __imp_?resizeEvent@QDateEdit@@MAEXPAVQResizeEvent@@@Z 1003d1a8     qt-mt323:qt-mt323.dll
 0002:000011ac       __imp_?minimumSizeHint@QDateEdit@@UBE?AVQSize@@XZ 1003d1ac     qt-mt323:qt-mt323.dll
 0002:000011b0       __imp_?sizeHint@QDateEdit@@UBE?AVQSize@@XZ 1003d1b0     qt-mt323:qt-mt323.dll
 0002:000011b4       __imp_?timerEvent@QDateEdit@@MAEXPAVQTimerEvent@@@Z 1003d1b4     qt-mt323:qt-mt323.dll
 0002:000011b8       __imp_?event@QDateEdit@@MAE_NPAVQEvent@@@Z 1003d1b8     qt-mt323:qt-mt323.dll
 0002:000011bc       __imp_?qt_property@QDateEdit@@UAE_NHHPAVQVariant@@@Z 1003d1bc     qt-mt323:qt-mt323.dll
 0002:000011c0       __imp_?qt_emit@QDateEdit@@UAE_NHPAUQUObject@@@Z 1003d1c0     qt-mt323:qt-mt323.dll
 0002:000011c4       __imp_?qt_invoke@QDateEdit@@UAE_NHPAUQUObject@@@Z 1003d1c4     qt-mt323:qt-mt323.dll
 0002:000011c8       __imp_?qt_cast@QDateEdit@@UAEPAXPBD@Z 1003d1c8     qt-mt323:qt-mt323.dll
 0002:000011cc       __imp_?className@QDateEdit@@UBEPBDXZ 1003d1cc     qt-mt323:qt-mt323.dll
 0002:000011d0       __imp_?metaObject@QDateEdit@@UBEPAVQMetaObject@@XZ 1003d1d0     qt-mt323:qt-mt323.dll
 0002:000011d4       __imp_?setChecked@QRadioButton@@UAEX_N@Z 1003d1d4     qt-mt323:qt-mt323.dll
 0002:000011d8       __imp_?drawButtonLabel@QRadioButton@@MAEXPAVQPainter@@@Z 1003d1d8     qt-mt323:qt-mt323.dll
 0002:000011dc       __imp_?drawButton@QRadioButton@@MAEXPAVQPainter@@@Z 1003d1dc     qt-mt323:qt-mt323.dll
 0002:000011e0       __imp_?hitButton@QRadioButton@@MBE_NABVQPoint@@@Z 1003d1e0     qt-mt323:qt-mt323.dll
 0002:000011e4       __imp_?updateMask@QRadioButton@@MAEXXZ 1003d1e4     qt-mt323:qt-mt323.dll
 0002:000011e8       __imp_?resizeEvent@QRadioButton@@MAEXPAVQResizeEvent@@@Z 1003d1e8     qt-mt323:qt-mt323.dll
 0002:000011ec       __imp_?sizeHint@QRadioButton@@UBE?AVQSize@@XZ 1003d1ec     qt-mt323:qt-mt323.dll
 0002:000011f0       __imp_?qt_property@QRadioButton@@UAE_NHHPAVQVariant@@@Z 1003d1f0     qt-mt323:qt-mt323.dll
 0002:000011f4       __imp_?qt_emit@QRadioButton@@UAE_NHPAUQUObject@@@Z 1003d1f4     qt-mt323:qt-mt323.dll
 0002:000011f8       __imp_?qt_invoke@QRadioButton@@UAE_NHPAUQUObject@@@Z 1003d1f8     qt-mt323:qt-mt323.dll
 0002:000011fc       __imp_?qt_cast@QRadioButton@@UAEPAXPBD@Z 1003d1fc     qt-mt323:qt-mt323.dll
 0002:00001200       __imp_?className@QRadioButton@@UBEPBDXZ 1003d200     qt-mt323:qt-mt323.dll
 0002:00001204       __imp_?metaObject@QRadioButton@@UBEPAVQMetaObject@@XZ 1003d204     qt-mt323:qt-mt323.dll
 0002:00001208       __imp_?stepChange@QRangeControl@@MAEXXZ 1003d208     qt-mt323:qt-mt323.dll
 0002:0000120c       __imp_?rangeChange@QSpinBox@@MAEXXZ 1003d20c     qt-mt323:qt-mt323.dll
 0002:00001210       __imp_?valueChange@QSpinBox@@MAEXXZ 1003d210     qt-mt323:qt-mt323.dll
 0002:00001214       __imp_?interpretText@QSpinBox@@MAEXXZ 1003d214     qt-mt323:qt-mt323.dll
 0002:00001218       __imp_?updateDisplay@QSpinBox@@MAEXXZ 1003d218     qt-mt323:qt-mt323.dll
 0002:0000121c       __imp_?mapTextToValue@QSpinBox@@MAEHPA_N@Z 1003d21c     qt-mt323:qt-mt323.dll
 0002:00001220       __imp_?mapValueToText@QSpinBox@@MAE?AVQString@@H@Z 1003d220     qt-mt323:qt-mt323.dll
 0002:00001224       __imp_?selectAll@QSpinBox@@UAEXXZ 1003d224     qt-mt323:qt-mt323.dll
 0002:00001228       __imp_?stepDown@QSpinBox@@UAEXXZ 1003d228     qt-mt323:qt-mt323.dll
 0002:0000122c       __imp_?stepUp@QSpinBox@@UAEXXZ 1003d22c     qt-mt323:qt-mt323.dll
 0002:00001230       __imp_?setSuffix@QSpinBox@@UAEXABVQString@@@Z 1003d230     qt-mt323:qt-mt323.dll
 0002:00001234       __imp_?setPrefix@QSpinBox@@UAEXABVQString@@@Z 1003d234     qt-mt323:qt-mt323.dll
 0002:00001238       __imp_?setValue@QSpinBox@@UAEXH@Z 1003d238     qt-mt323:qt-mt323.dll
 0002:0000123c       __imp_?setValidator@QSpinBox@@UAEXPBVQValidator@@@Z 1003d23c     qt-mt323:qt-mt323.dll
 0002:00001240       __imp_?setButtonSymbols@QSpinBox@@UAEXW4ButtonSymbols@1@@Z 1003d240     qt-mt323:qt-mt323.dll
 0002:00001244       __imp_?setWrapping@QSpinBox@@UAEX_N@Z 1003d244     qt-mt323:qt-mt323.dll
 0002:00001248       __imp_?setSpecialValueText@QSpinBox@@UAEXABVQString@@@Z 1003d248     qt-mt323:qt-mt323.dll
 0002:0000124c       __imp_?cleanText@QSpinBox@@UBE?AVQString@@XZ 1003d24c     qt-mt323:qt-mt323.dll
 0002:00001250       __imp_?suffix@QSpinBox@@UBE?AVQString@@XZ 1003d250     qt-mt323:qt-mt323.dll
 0002:00001254       __imp_?prefix@QSpinBox@@UBE?AVQString@@XZ 1003d254     qt-mt323:qt-mt323.dll
 0002:00001258       __imp_?styleChange@QSpinBox@@MAEXAAVQStyle@@@Z 1003d258     qt-mt323:qt-mt323.dll
 0002:0000125c       __imp_?resizeEvent@QSpinBox@@MAEXPAVQResizeEvent@@@Z 1003d25c     qt-mt323:qt-mt323.dll
 0002:00001260       __imp_?leaveEvent@QSpinBox@@MAEXPAVQEvent@@@Z 1003d260     qt-mt323:qt-mt323.dll
 0002:00001264       __imp_?wheelEvent@QSpinBox@@MAEXPAVQWheelEvent@@@Z 1003d264     qt-mt323:qt-mt323.dll
 0002:00001268       __imp_?minimumSizeHint@QSpinBox@@UBE?AVQSize@@XZ 1003d268     qt-mt323:qt-mt323.dll
 0002:0000126c       __imp_?sizeHint@QSpinBox@@UBE?AVQSize@@XZ 1003d26c     qt-mt323:qt-mt323.dll
 0002:00001270       __imp_?setEnabled@QSpinBox@@UAEX_N@Z 1003d270     qt-mt323:qt-mt323.dll
 0002:00001274       __imp_?eventFilter@QSpinBox@@MAE_NPAVQObject@@PAVQEvent@@@Z 1003d274     qt-mt323:qt-mt323.dll
 0002:00001278       __imp_?qt_property@QSpinBox@@UAE_NHHPAVQVariant@@@Z 1003d278     qt-mt323:qt-mt323.dll
 0002:0000127c       __imp_?qt_emit@QSpinBox@@UAE_NHPAUQUObject@@@Z 1003d27c     qt-mt323:qt-mt323.dll
 0002:00001280       __imp_?qt_invoke@QSpinBox@@UAE_NHPAUQUObject@@@Z 1003d280     qt-mt323:qt-mt323.dll
 0002:00001284       __imp_?qt_cast@QSpinBox@@UAEPAXPBD@Z 1003d284     qt-mt323:qt-mt323.dll
 0002:00001288       __imp_?className@QSpinBox@@UBEPBDXZ 1003d288     qt-mt323:qt-mt323.dll
 0002:0000128c       __imp_?metaObject@QSpinBox@@UBEPAVQMetaObject@@XZ 1003d28c     qt-mt323:qt-mt323.dll
 0002:00001290       __imp_?moveFocus@QButtonGroup@@UAEXH@Z 1003d290     qt-mt323:qt-mt323.dll
 0002:00001294       __imp_?setButton@QButtonGroup@@UAEXH@Z 1003d294     qt-mt323:qt-mt323.dll
 0002:00001298       __imp_?setRadioButtonExclusive@QButtonGroup@@UAEX_N@Z 1003d298     qt-mt323:qt-mt323.dll
 0002:0000129c       __imp_?setExclusive@QButtonGroup@@UAEX_N@Z 1003d29c     qt-mt323:qt-mt323.dll
 0002:000012a0       __imp_?event@QButtonGroup@@MAE_NPAVQEvent@@@Z 1003d2a0     qt-mt323:qt-mt323.dll
 0002:000012a4       __imp_?qt_property@QButtonGroup@@UAE_NHHPAVQVariant@@@Z 1003d2a4     qt-mt323:qt-mt323.dll
 0002:000012a8       __imp_?qt_emit@QButtonGroup@@UAE_NHPAUQUObject@@@Z 1003d2a8     qt-mt323:qt-mt323.dll
 0002:000012ac       __imp_?qt_invoke@QButtonGroup@@UAE_NHPAUQUObject@@@Z 1003d2ac     qt-mt323:qt-mt323.dll
 0002:000012b0       __imp_?qt_cast@QButtonGroup@@UAEPAXPBD@Z 1003d2b0     qt-mt323:qt-mt323.dll
 0002:000012b4       __imp_?className@QButtonGroup@@UBEPBDXZ 1003d2b4     qt-mt323:qt-mt323.dll
 0002:000012b8       __imp_?metaObject@QButtonGroup@@UBEPAVQMetaObject@@XZ 1003d2b8     qt-mt323:qt-mt323.dll
 0002:000012bc       __imp_??0QDateTimeEdit@@QAE@PAVQWidget@@PBD@Z 1003d2bc     qt-mt323:qt-mt323.dll
 0002:000012c0       __imp_??0QDateEdit@@QAE@PAVQWidget@@PBD@Z 1003d2c0     qt-mt323:qt-mt323.dll
 0002:000012c4       __imp_?addMultiCell@QGridLayout@@QAEXPAVQLayoutItem@@HHHHH@Z 1003d2c4     qt-mt323:qt-mt323.dll
 0002:000012c8       __imp_??0QRadioButton@@QAE@PAVQWidget@@PBD@Z 1003d2c8     qt-mt323:qt-mt323.dll
 0002:000012cc       __imp_?setMaxValue@QSpinBox@@QAEXH@Z 1003d2cc     qt-mt323:qt-mt323.dll
 0002:000012d0       __imp_??0QSpinBox@@QAE@PAVQWidget@@PBD@Z 1003d2d0     qt-mt323:qt-mt323.dll
 0002:000012d4       __imp_??_7QSpacerItem@@6B@ 1003d2d4     qt-mt323:qt-mt323.dll
 0002:000012d8       __imp_??_7QLayoutItem@@6B@ 1003d2d8     qt-mt323:qt-mt323.dll
 0002:000012dc       __imp_??0QHBoxLayout@@QAE@PAVQLayout@@HPBD@Z 1003d2dc     qt-mt323:qt-mt323.dll
 0002:000012e0       __imp_??0QButtonGroup@@QAE@PAVQWidget@@PBD@Z 1003d2e0     qt-mt323:qt-mt323.dll
 0002:000012e4       __imp_??0QVBoxLayout@@QAE@PAVQLayout@@HPBD@Z 1003d2e4     qt-mt323:qt-mt323.dll
 0002:000012e8       __imp_??1QButtonGroup@@UAE@XZ 1003d2e8     qt-mt323:qt-mt323.dll
 0002:000012ec       __imp_??1QSpinBox@@UAE@XZ  1003d2ec     qt-mt323:qt-mt323.dll
 0002:000012f0       __imp_??1QRadioButton@@UAE@XZ 1003d2f0     qt-mt323:qt-mt323.dll
 0002:000012f4       __imp_??1QDateEdit@@UAE@XZ 1003d2f4     qt-mt323:qt-mt323.dll
 0002:000012f8       __imp_??1QDateTimeEdit@@UAE@XZ 1003d2f8     qt-mt323:qt-mt323.dll
 0002:000012fc       __imp_??0QMetaObjectCleanUp@@QAE@PBDP6APAVQMetaObject@@XZ@Z 1003d2fc     qt-mt323:qt-mt323.dll
 0002:00001300       __imp_??1QMetaObjectCleanUp@@QAE@XZ 1003d300     qt-mt323:qt-mt323.dll
 0002:00001304       __imp_?fromLatin1@QString@@SA?AV1@PBDH@Z 1003d304     qt-mt323:qt-mt323.dll
 0002:00001308       __imp_?translate@QApplication@@QBE?AVQString@@PBD00W4Encoding@1@@Z 1003d308     qt-mt323:qt-mt323.dll
 0002:0000130c       __imp_?qApp@@3PAVQApplication@@A 1003d30c     qt-mt323:qt-mt323.dll
 0002:00001310       __imp_?fromUtf8@QString@@SA?AV1@PBDH@Z 1003d310     qt-mt323:qt-mt323.dll
 0002:00001314       __imp_?setMetaObject@QMetaObjectCleanUp@@QAEXAAPAVQMetaObject@@@Z 1003d314     qt-mt323:qt-mt323.dll
 0002:00001318       __imp_?new_metaobject@QMetaObject@@SAPAV1@PBDPAV1@QBUQMetaData@@H2HQBVQMetaProperty@@HQBUQMetaEnum@@HQBUQClassInfo@@H@Z 1003d318     qt-mt323:qt-mt323.dll
 0002:0000131c       __imp_?staticMetaObject@QWidget@@SAPAVQMetaObject@@XZ 1003d31c     qt-mt323:qt-mt323.dll
 0002:00001320       __imp_??0QVariant@@QAE@ABVQString@@@Z 1003d320     qt-mt323:qt-mt323.dll
 0002:00001324       __imp_?asString@QVariant@@QAEAAVQString@@XZ 1003d324     qt-mt323:qt-mt323.dll
 0002:00001328       __imp_?static_QUType_varptr@@3UQUType_varptr@@A 1003d328     qt-mt323:qt-mt323.dll
 0002:0000132c       __imp_?staticMetaObject@QDataBrowser@@SAPAVQMetaObject@@XZ 1003d32c     qt-mt323:qt-mt323.dll
 0002:00001330       __imp_?qt_cast@QDataBrowser@@UAEPAXPBD@Z 1003d330     qt-mt323:qt-mt323.dll
 0002:00001334       __imp_?qt_invoke@QDataBrowser@@UAE_NHPAUQUObject@@@Z 1003d334     qt-mt323:qt-mt323.dll
 0002:00001338       __imp_?qt_emit@QDataBrowser@@UAE_NHPAUQUObject@@@Z 1003d338     qt-mt323:qt-mt323.dll
 0002:0000133c       __imp_?qt_property@QDataBrowser@@UAE_NHHPAVQVariant@@@Z 1003d33c     qt-mt323:qt-mt323.dll
 0002:00001340       __imp_?staticMetaObject@QDialog@@SAPAVQMetaObject@@XZ 1003d340     qt-mt323:qt-mt323.dll
 0002:00001344       __imp_?qt_cast@QDialog@@UAEPAXPBD@Z 1003d344     qt-mt323:qt-mt323.dll
 0002:00001348       __imp_?qt_invoke@QDialog@@UAE_NHPAUQUObject@@@Z 1003d348     qt-mt323:qt-mt323.dll
 0002:0000134c       __imp_?qt_emit@QDialog@@UAE_NHPAUQUObject@@@Z 1003d34c     qt-mt323:qt-mt323.dll
 0002:00001350       __imp_?qt_property@QDialog@@UAE_NHHPAVQVariant@@@Z 1003d350     qt-mt323:qt-mt323.dll
 0002:00001354       __imp_?static_QUType_int@@3UQUType_int@@A 1003d354     qt-mt323:qt-mt323.dll
 0002:00001358       __imp_?static_QUType_ptr@@3UQUType_ptr@@A 1003d358     qt-mt323:qt-mt323.dll
 0002:0000135c       __imp_?staticMetaObject@QDataTable@@SAPAVQMetaObject@@XZ 1003d35c     qt-mt323:qt-mt323.dll
 0002:00001360       __imp_?qt_cast@QDataTable@@UAEPAXPBD@Z 1003d360     qt-mt323:qt-mt323.dll
 0002:00001364       __imp_?qt_invoke@QDataTable@@UAE_NHPAUQUObject@@@Z 1003d364     qt-mt323:qt-mt323.dll
 0002:00001368       __imp_?qt_emit@QDataTable@@UAE_NHPAUQUObject@@@Z 1003d368     qt-mt323:qt-mt323.dll
 0002:0000136c       __imp_?qt_property@QDataTable@@UAE_NHHPAVQVariant@@@Z 1003d36c     qt-mt323:qt-mt323.dll
 0002:00001370       __imp_?static_QUType_QString@@3UQUType_QString@@A 1003d370     qt-mt323:qt-mt323.dll
 0002:00001374       __imp_?staticMetaObject@QListView@@SAPAVQMetaObject@@XZ 1003d374     qt-mt323:qt-mt323.dll
 0002:00001378       __imp_?activate_signal@QObject@@IAEXPAVQConnectionList@@PAUQUObject@@@Z 1003d378     qt-mt323:qt-mt323.dll
 0002:0000137c       __imp_?set@QUType_QString@@QAEXPAUQUObject@@ABVQString@@@Z 1003d37c     qt-mt323:qt-mt323.dll
 0002:00001380       __imp_??0QUObject@@QAE@XZ  1003d380     qt-mt323:qt-mt323.dll
 0002:00001384       __imp_??1QUObject@@QAE@XZ  1003d384     qt-mt323:qt-mt323.dll
 0002:00001388       __imp_?receivers@QObject@@IBEPAVQConnectionList@@H@Z 1003d388     qt-mt323:qt-mt323.dll
 0002:0000138c       __imp_??0QSemaphore@@QAE@H@Z 1003d38c     qt-mt323:qt-mt323.dll
 0002:00001390       __imp_??1QSemaphore@@UAE@XZ 1003d390     qt-mt323:qt-mt323.dll
 0002:00001394       __imp_??EQSemaphore@@QAEHH@Z 1003d394     qt-mt323:qt-mt323.dll
 0002:00001398       __imp_??FQSemaphore@@QAEHH@Z 1003d398     qt-mt323:qt-mt323.dll
 0002:0000139c       __imp_?lastError@QSqlDatabase@@QBE?AVQSqlError@@XZ 1003d39c     qt-mt323:qt-mt323.dll
 0002:000013a0       __imp_?open@QSqlDatabase@@QAE_NXZ 1003d3a0     qt-mt323:qt-mt323.dll
 0002:000013a4       __imp_?close@QSqlDatabase@@QAEXXZ 1003d3a4     qt-mt323:qt-mt323.dll
 0002:000013a8       __imp_?isOpen@QSqlDatabase@@QBE_NXZ 1003d3a8     qt-mt323:qt-mt323.dll
 0002:000013ac       __imp_?hostName@QSqlDatabase@@QBE?AVQString@@XZ 1003d3ac     qt-mt323:qt-mt323.dll
 0002:000013b0       __imp_?password@QSqlDatabase@@QBE?AVQString@@XZ 1003d3b0     qt-mt323:qt-mt323.dll
 0002:000013b4       __imp_?userName@QSqlDatabase@@QBE?AVQString@@XZ 1003d3b4     qt-mt323:qt-mt323.dll
 0002:000013b8       __imp_??9@YA_NABVQString@@0@Z 1003d3b8     qt-mt323:qt-mt323.dll
 0002:000013bc       __imp_?databaseName@QSqlDatabase@@QBE?AVQString@@XZ 1003d3bc     qt-mt323:qt-mt323.dll
 0002:000013c0       __imp_?addDatabase@QSqlDatabase@@SAPAV1@ABVQString@@0@Z 1003d3c0     qt-mt323:qt-mt323.dll
 0002:000013c4       __imp_?removeDatabase@QSqlDatabase@@SAXPAV1@@Z 1003d3c4     qt-mt323:qt-mt323.dll
 0002:000013c8       __imp_?database@QSqlDatabase@@SAPAV1@ABVQString@@_N@Z 1003d3c8     qt-mt323:qt-mt323.dll
 0002:000013cc       __imp_?databaseText@QSqlError@@QBE?AVQString@@XZ 1003d3cc     qt-mt323:qt-mt323.dll
 0002:000013d0       __imp_??4QSqlError@@QAEAAV0@ABV0@@Z 1003d3d0     qt-mt323:qt-mt323.dll
 0002:000013d4       __imp_??0QSqlError@@QAE@ABVQString@@0HH@Z 1003d3d4     qt-mt323:qt-mt323.dll
 0002:000013d8       __imp_?setWState@QWidget@@MAEXI@Z 1003d3d8     qt-mt323:qt-mt323.dll
 0002:000013dc       __imp_?setWFlags@QWidget@@MAEXI@Z 1003d3dc     qt-mt323:qt-mt323.dll
 0002:000013e0       __imp_?focusNextPrevChild@QWidget@@MAE_N_N@Z 1003d3e0     qt-mt323:qt-mt323.dll
 0002:000013e4       __imp_?setKeyCompression@QWidget@@MAEX_N@Z 1003d3e4     qt-mt323:qt-mt323.dll
 0002:000013e8       __imp_?setMicroFocusHint@QWidget@@MAEXHHHH_NPAVQFont@@@Z 1003d3e8     qt-mt323:qt-mt323.dll
 0002:000013ec       __imp_?setSqlCursor@QDataBrowser@@UAEXPAVQSqlCursor@@_N@Z 1003d3ec     qt-mt323:qt-mt323.dll
 0002:000013f0       __imp_?setForm@QDataBrowser@@UAEXPAVQSqlForm@@@Z 1003d3f0     qt-mt323:qt-mt323.dll
 0002:000013f4       __imp_?setConfirmEdits@QDataBrowser@@UAEX_N@Z 1003d3f4     qt-mt323:qt-mt323.dll
 0002:000013f8       __imp_?setConfirmInsert@QDataBrowser@@UAEX_N@Z 1003d3f8     qt-mt323:qt-mt323.dll
 0002:000013fc       __imp_?setConfirmUpdate@QDataBrowser@@UAEX_N@Z 1003d3fc     qt-mt323:qt-mt323.dll
 0002:00001400       __imp_?setConfirmDelete@QDataBrowser@@UAEX_N@Z 1003d400     qt-mt323:qt-mt323.dll
 0002:00001404       __imp_?setConfirmCancels@QDataBrowser@@UAEX_N@Z 1003d404     qt-mt323:qt-mt323.dll
 0002:00001408       __imp_?setReadOnly@QDataBrowser@@UAEX_N@Z 1003d408     qt-mt323:qt-mt323.dll
 0002:0000140c       __imp_?setAutoEdit@QDataBrowser@@UAEX_N@Z 1003d40c     qt-mt323:qt-mt323.dll
 0002:00001410       __imp_?seek@QDataBrowser@@UAE_NH_N@Z 1003d410     qt-mt323:qt-mt323.dll
 0002:00001414       __imp_?refresh@QDataBrowser@@UAEXXZ 1003d414     qt-mt323:qt-mt323.dll
 0002:00001418       __imp_?insert@QDataBrowser@@UAEXXZ 1003d418     qt-mt323:qt-mt323.dll
 0002:0000141c       __imp_?update@QDataBrowser@@UAEXXZ 1003d41c     qt-mt323:qt-mt323.dll
 0002:00001420       __imp_?del@QDataBrowser@@UAEXXZ 1003d420     qt-mt323:qt-mt323.dll
 0002:00001424       __imp_?first@QDataBrowser@@UAEXXZ 1003d424     qt-mt323:qt-mt323.dll
 0002:00001428       __imp_?last@QDataBrowser@@UAEXXZ 1003d428     qt-mt323:qt-mt323.dll
 0002:0000142c       __imp_?next@QDataBrowser@@UAEXXZ 1003d42c     qt-mt323:qt-mt323.dll
 0002:00001430       __imp_?readFields@QDataBrowser@@UAEXXZ 1003d430     qt-mt323:qt-mt323.dll
 0002:00001434       __imp_?prev@QDataBrowser@@UAEXXZ 1003d434     qt-mt323:qt-mt323.dll
 0002:00001438       __imp_?writeFields@QDataBrowser@@UAEXXZ 1003d438     qt-mt323:qt-mt323.dll
 0002:0000143c       __imp_?clearValues@QDataBrowser@@UAEXXZ 1003d43c     qt-mt323:qt-mt323.dll
 0002:00001440       __imp_?insertCurrent@QDataBrowser@@MAE_NXZ 1003d440     qt-mt323:qt-mt323.dll
 0002:00001444       __imp_?triggerUpdate@QListView@@QAEXXZ 1003d444     qt-mt323:qt-mt323.dll
 0002:00001448       __imp_?updateCurrent@QDataBrowser@@MAE_NXZ 1003d448     qt-mt323:qt-mt323.dll
 0002:0000144c       __imp_?currentEdited@QDataBrowser@@MAE_NXZ 1003d44c     qt-mt323:qt-mt323.dll
 0002:00001450       __imp_?confirmEdit@QDataBrowser@@MAE?AW4Confirm@QSql@@W4Op@3@@Z 1003d450     qt-mt323:qt-mt323.dll
 0002:00001454       __imp_?confirmCancel@QDataBrowser@@MAE?AW4Confirm@QSql@@W4Op@3@@Z 1003d454     qt-mt323:qt-mt323.dll
 0002:00001458       __imp_?handleError@QDataBrowser@@MAEXABVQSqlError@@@Z 1003d458     qt-mt323:qt-mt323.dll
 0002:0000145c       __imp_?setResolution@QPaintDevice@@UAEXH@Z 1003d45c     qt-mt323:qt-mt323.dll
 0002:00001460       __imp_?resolution@QPaintDevice@@UBEHXZ 1003d460     qt-mt323:qt-mt323.dll
 0002:00001464       __imp_?handle@QPaintDevice@@UBEPAUHDC__@@XZ 1003d464     qt-mt323:qt-mt323.dll
 0002:00001468       __imp_?cmd@QPaintDevice@@MAE_NHPAVQPainter@@PATQPDevCmdParam@@@Z 1003d468     qt-mt323:qt-mt323.dll
 0002:0000146c       __imp_?metric@QWidget@@MBEHH@Z 1003d46c     qt-mt323:qt-mt323.dll
 0002:00001470       __imp_?fontMet@QPaintDevice@@MBEHPAVQFont@@HPBDH@Z 1003d470     qt-mt323:qt-mt323.dll
 0002:00001474       __imp_?fontInf@QPaintDevice@@MBEHPAVQFont@@H@Z 1003d474     qt-mt323:qt-mt323.dll
 0002:00001478       __imp_?metaObject@QTimer@@UBEPAVQMetaObject@@XZ 1003d478     qt-mt323:qt-mt323.dll
 0002:0000147c       __imp_?className@QTimer@@UBEPBDXZ 1003d47c     qt-mt323:qt-mt323.dll
 0002:00001480       __imp_?qt_cast@QTimer@@UAEPAXPBD@Z 1003d480     qt-mt323:qt-mt323.dll
 0002:00001484       __imp_?qt_invoke@QTimer@@UAE_NHPAUQUObject@@@Z 1003d484     qt-mt323:qt-mt323.dll
 0002:00001488       __imp_?qt_emit@QTimer@@UAE_NHPAUQUObject@@@Z 1003d488     qt-mt323:qt-mt323.dll
 0002:0000148c       __imp_?qt_property@QTimer@@UAE_NHHPAVQVariant@@@Z 1003d48c     qt-mt323:qt-mt323.dll
 0002:00001490       __imp_?event@QTimer@@MAE_NPAVQEvent@@@Z 1003d490     qt-mt323:qt-mt323.dll
 0002:00001494       __imp_?metaObject@QPushButton@@UBEPAVQMetaObject@@XZ 1003d494     qt-mt323:qt-mt323.dll
 0002:00001498       __imp_?className@QPushButton@@UBEPBDXZ 1003d498     qt-mt323:qt-mt323.dll
 0002:0000149c       __imp_?qt_cast@QPushButton@@UAEPAXPBD@Z 1003d49c     qt-mt323:qt-mt323.dll
 0002:000014a0       __imp_?qt_invoke@QPushButton@@UAE_NHPAUQUObject@@@Z 1003d4a0     qt-mt323:qt-mt323.dll
 0002:000014a4       __imp_?qt_emit@QPushButton@@UAE_NHPAUQUObject@@@Z 1003d4a4     qt-mt323:qt-mt323.dll
 0002:000014a8       __imp_?qt_property@QPushButton@@UAE_NHHPAVQVariant@@@Z 1003d4a8     qt-mt323:qt-mt323.dll
 0002:000014ac       __imp_?setCaption@QWidget@@UAEXABVQString@@@Z 1003d4ac     qt-mt323:qt-mt323.dll
 0002:000014b0       __imp_?polish@QWidget@@UAEXXZ 1003d4b0     qt-mt323:qt-mt323.dll
 0002:000014b4       __imp_?move@QPushButton@@UAEXHH@Z 1003d4b4     qt-mt323:qt-mt323.dll
 0002:000014b8       __imp_?resize@QPushButton@@UAEXHH@Z 1003d4b8     qt-mt323:qt-mt323.dll
 0002:000014bc       __imp_?setGeometry@QPushButton@@UAEXABVQRect@@@Z 1003d4bc     qt-mt323:qt-mt323.dll
 0002:000014c0       __imp_?setGeometry@QPushButton@@UAEXHHHH@Z 1003d4c0     qt-mt323:qt-mt323.dll
 0002:000014c4       __imp_?sizeHint@QPushButton@@UBE?AVQSize@@XZ 1003d4c4     qt-mt323:qt-mt323.dll
 0002:000014c8       __imp_?mousePressEvent@QButton@@MAEXPAVQMouseEvent@@@Z 1003d4c8     qt-mt323:qt-mt323.dll
 0002:000014cc       __imp_?mouseReleaseEvent@QButton@@MAEXPAVQMouseEvent@@@Z 1003d4cc     qt-mt323:qt-mt323.dll
 0002:000014d0       __imp_?mouseMoveEvent@QButton@@MAEXPAVQMouseEvent@@@Z 1003d4d0     qt-mt323:qt-mt323.dll
 0002:000014d4       __imp_?keyPressEvent@QButton@@MAEXPAVQKeyEvent@@@Z 1003d4d4     qt-mt323:qt-mt323.dll
 0002:000014d8       __imp_?keyReleaseEvent@QButton@@MAEXPAVQKeyEvent@@@Z 1003d4d8     qt-mt323:qt-mt323.dll
 0002:000014dc       __imp_?focusInEvent@QPushButton@@MAEXPAVQFocusEvent@@@Z 1003d4dc     qt-mt323:qt-mt323.dll
 0002:000014e0       __imp_?focusOutEvent@QPushButton@@MAEXPAVQFocusEvent@@@Z 1003d4e0     qt-mt323:qt-mt323.dll
 0002:000014e4       __imp_?paintEvent@QButton@@MAEXPAVQPaintEvent@@@Z 1003d4e4     qt-mt323:qt-mt323.dll
 0002:000014e8       __imp_?resizeEvent@QPushButton@@MAEXPAVQResizeEvent@@@Z 1003d4e8     qt-mt323:qt-mt323.dll
 0002:000014ec       __imp_?updateMask@QPushButton@@MAEXXZ 1003d4ec     qt-mt323:qt-mt323.dll
 0002:000014f0       __imp_?enabledChange@QButton@@MAEX_N@Z 1003d4f0     qt-mt323:qt-mt323.dll
 0002:000014f4       __imp_?setText@QButton@@UAEXABVQString@@@Z 1003d4f4     qt-mt323:qt-mt323.dll
 0002:000014f8       __imp_?setPixmap@QButton@@UAEXABVQPixmap@@@Z 1003d4f8     qt-mt323:qt-mt323.dll
 0002:000014fc       __imp_?setAccel@QButton@@UAEXABVQKeySequence@@@Z 1003d4fc     qt-mt323:qt-mt323.dll
 0002:00001500       __imp_?setDown@QButton@@UAEX_N@Z 1003d500     qt-mt323:qt-mt323.dll
 0002:00001504       __imp_?setAutoRepeat@QButton@@UAEX_N@Z 1003d504     qt-mt323:qt-mt323.dll
 0002:00001508       __imp_?setToggleType@QButton@@MAEXW4ToggleType@1@@Z 1003d508     qt-mt323:qt-mt323.dll
 0002:0000150c       __imp_?setState@QButton@@MAEXW4ToggleState@1@@Z 1003d50c     qt-mt323:qt-mt323.dll
 0002:00001510       __imp_?hitButton@QButton@@MBE_NABVQPoint@@@Z 1003d510     qt-mt323:qt-mt323.dll
 0002:00001514       __imp_?drawButton@QPushButton@@MAEXPAVQPainter@@@Z 1003d514     qt-mt323:qt-mt323.dll
 0002:00001518       __imp_?drawButtonLabel@QPushButton@@MAEXPAVQPainter@@@Z 1003d518     qt-mt323:qt-mt323.dll
 0002:0000151c       __imp_?setGroup@QButton@@EAEXPAVQButtonGroup@@@Z 1003d51c     qt-mt323:qt-mt323.dll
 0002:00001520       __imp_?setAutoDefault@QPushButton@@UAEX_N@Z 1003d520     qt-mt323:qt-mt323.dll
 0002:00001524       __imp_?setDefault@QPushButton@@UAEX_N@Z 1003d524     qt-mt323:qt-mt323.dll
 0002:00001528       __imp_?setIsMenuButton@QPushButton@@UAEX_N@Z 1003d528     qt-mt323:qt-mt323.dll
 0002:0000152c       __imp_?setOn@QPushButton@@UAEX_N@Z 1003d52c     qt-mt323:qt-mt323.dll
 0002:00001530       __imp_?header@QListView@@QBEPAVQHeader@@XZ 1003d530     qt-mt323:qt-mt323.dll
 0002:00001534       \177qt-mt323_NULL_THUNK_DATA 1003d534     qt-mt323:qt-mt323.dll
 0002:00001538       ??_SQPushButton@@6BQPaintDevice@@@ 1003d538     bncs_data_form.obj
 0002:00001558       ??_SQPushButton@@6BQObject@@@ 1003d558     bncs_data_form.obj
 0002:00001744       ??_SQHBoxLayout@@6BQLayoutItem@@@ 1003d744     bncs_data_form.obj
 0002:00001784       ??_SQHBoxLayout@@6BQObject@@@ 1003d784     bncs_data_form.obj
 0002:000017e8       ??_SQTimer@@6B@            1003d7e8     bncs_data_form.obj
 0002:00001838       ??_7bncs_data_form@@6BQPaintDevice@@@ 1003d838     bncs_data_form.obj
 0002:00001858       ??_7bncs_data_form@@6BQObject@@@ 1003d858     bncs_data_form.obj
 0002:00001a78       ??_7FormWidget@@6BQPaintDevice@@@ 1003da78     bncs_data_form.obj
 0002:00001a98       ??_7FormWidget@@6BQObject@@@ 1003da98     bncs_data_form.obj
 0002:00001c48       ??_SQListViewItem@@6B@     1003dc48     bncs_data_form.obj
 0002:00001ce0       ??_SQSqlForm@@6B@          1003dce0     bncs_data_form.obj
 0002:00001d60       ??_SQSqlCursor@@6BQSqlQuery@@@ 1003dd60     bncs_data_form.obj
 0002:00001d88       ??_SQSqlCursor@@6BQSqlRecord@@@ 1003dd88     bncs_data_form.obj
 0002:00001e2c       ??_7bncs_data_form_edit@@6BQPaintDevice@@@ 1003de2c     bncs_data_form_editimpl.obj
 0002:00001e4c       ??_7bncs_data_form_edit@@6BQObject@@@ 1003de4c     bncs_data_form_editimpl.obj
 0002:0000200c       ??_7bncs_data_Table@@6BQPaintDevice@@@ 1003e00c     bncs_data_Table.obj
 0002:0000202c       ??_7bncs_data_Table@@6BQObject@@@ 1003e02c     bncs_data_Table.obj
 0002:00002448       ??_7bncs_data_table_edit@@6BQPaintDevice@@@ 1003e448     bncs_data_table_editimpl.obj
 0002:00002468       ??_7bncs_data_table_edit@@6BQObject@@@ 1003e468     bncs_data_table_editimpl.obj
 0002:00002628       ??_7LogDrawEvent@@6B@      1003e628     bncs_log.obj
 0002:0000262c       ??_7bncs_log@@6BIDatabaseMessage@@@ 1003e62c     bncs_log.obj
 0002:00002630       ??_7bncs_log@@6BIccClientCallback@@@ 1003e630     bncs_log.obj
 0002:0000265c       ??_7bncs_log@@6BQPaintDevice@@@ 1003e65c     bncs_log.obj
 0002:0000267c       ??_7bncs_log@@6BQObject@@@ 1003e67c     bncs_log.obj
 0002:0000295c       ??_7IDatabaseMessage@@6B@  1003e95c     bncs_log.obj
 0002:00002960       ??_7?$QPtrList@VlogLbi@@@@6B@ 1003e960     bncs_log.obj
 0002:00002980       ??_7MessageEvent@@6B@      1003e980     bncs_log.obj
 0002:00002984       ??_7?$QValueListNode@VQString@@@@6B@ 1003e984     bncs_log.obj
 0002:00002988       ??_7?$QValueListPrivate@VQString@@@@6B@ 1003e988     bncs_log.obj
 0002:0000298c       ??_7?$QValueListNode@Vstyleentry@@@@6B@ 1003e98c     bncs_log.obj
 0002:00002990       ??_7?$QValueListPrivate@Vstyleentry@@@@6B@ 1003e990     bncs_log.obj
 0002:00002994       ??_7bncs_log_edit@@6BQPaintDevice@@@ 1003e994     bncs_log_editimpl.obj
 0002:000029b4       ??_7bncs_log_edit@@6BQObject@@@ 1003e9b4     bncs_log_editimpl.obj
 0002:00002b74       ??_7bncs_log_getData@@6B@  1003eb74     bncs_log_getData.obj
 0002:00002b7c       ??_SQSqlQuery@@6B@         1003eb7c     bncs_log_getData.obj
 0002:00002ba4       ??_7?$QPtrList@Vbncs_queued_revertive@@@@6B@ 1003eba4     bncs_log_queue.obj
 0002:00002bc4       ??_7CompareDatesTimesExclusive@logFilter@@6B@ 1003ebc4     logFilter.obj
 0002:00002be4       ??_7logFilter@@6B@         1003ebe4     logFilter.obj
 0002:00002be8       ??_7ICompareDatesTimes@logFilter@@6B@ 1003ebe8     logFilter.obj
 0002:00002c08       ??_7CompareDatesTimesInclusive@logFilter@@6B@ 1003ec08     logFilter.obj
 0002:00002c28       ?sm_bShowIndex@logLbi@@0_NB 1003ec28     logLbi.obj
 0002:00002c2c       ??_7logLbi@@6B@            1003ec2c     logLbi.obj
 0002:00002cc4       ??_7logLbiColour@@6B@      1003ecc4     logLbiColour.obj
 0002:00002cc8       ??_7CustomWidgetPlugin@@6B@ 1003ecc8     plugin.obj
 0002:00002d38       ??_SQListView@@6BQPaintDevice@@@ 1003ed38     bncs_data_form_edit.obj
 0002:00002d58       ??_SQListView@@6BQObject@@@ 1003ed58     bncs_data_form_edit.obj
 0002:00003038       ??_SQComboBox@@6BQPaintDevice@@@ 1003f038     bncs_data_form_edit.obj
 0002:00003058       ??_SQComboBox@@6BQObject@@@ 1003f058     bncs_data_form_edit.obj
 0002:00003238       ??_SQLabel@@6BQPaintDevice@@@ 1003f238     bncs_data_form_edit.obj
 0002:00003258       ??_SQLabel@@6BQObject@@@   1003f258     bncs_data_form_edit.obj
 0002:0000344c       ??_SQSpacerItem@@6B@       1003f44c     bncs_data_form_edit.obj
 0002:0000348c       ??_SQLineEdit@@6BQPaintDevice@@@ 1003f48c     bncs_data_form_edit.obj
 0002:000034ac       ??_SQLineEdit@@6BQObject@@@ 1003f4ac     bncs_data_form_edit.obj
 0002:000036d0       ??_SQGridLayout@@6BQLayoutItem@@@ 1003f6d0     bncs_data_form_edit.obj
 0002:00003710       ??_SQGridLayout@@6BQObject@@@ 1003f710     bncs_data_form_edit.obj
 0002:0000377c       ??_SQGroupBox@@6BQPaintDevice@@@ 1003f77c     bncs_data_form_edit.obj
 0002:0000379c       ??_SQGroupBox@@6BQObject@@@ 1003f79c     bncs_data_form_edit.obj
 0002:00003978       ??_SQWidget@@6BQPaintDevice@@@ 1003f978     bncs_data_form_edit.obj
 0002:00003998       ??_SQWidget@@6BQObject@@@  1003f998     bncs_data_form_edit.obj
 0002:00003b48       ??_SQTabWidget@@6BQPaintDevice@@@ 1003fb48     bncs_data_form_edit.obj
 0002:00003b68       ??_SQTabWidget@@6BQObject@@@ 1003fb68     bncs_data_form_edit.obj
 0002:00003d38       ??_SQVBoxLayout@@6BQLayoutItem@@@ 1003fd38     bncs_data_form_edit.obj
 0002:00003d78       ??_SQVBoxLayout@@6BQObject@@@ 1003fd78     bncs_data_form_edit.obj
 0002:00003ddc       ??_7bncs_data_form_editBase@@6BQPaintDevice@@@ 1003fddc     bncs_data_form_edit.obj
 0002:00003dfc       ??_7bncs_data_form_editBase@@6BQObject@@@ 1003fdfc     bncs_data_form_edit.obj
 0002:00003fbc       ??_SQCheckBox@@6BQPaintDevice@@@ 1003ffbc     bncs_data_table_edit.obj
 0002:00003fdc       ??_SQCheckBox@@6BQObject@@@ 1003ffdc     bncs_data_table_edit.obj
 0002:000041b8       ??_7bncs_data_table_editBase@@6BQPaintDevice@@@ 100401b8     bncs_data_table_edit.obj
 0002:000041d8       ??_7bncs_data_table_editBase@@6BQObject@@@ 100401d8     bncs_data_table_edit.obj
 0002:00004398       ??_SQDateTimeEdit@@6BQPaintDevice@@@ 10040398     bncs_log_edit.obj
 0002:000043b8       ??_SQDateTimeEdit@@6BQObject@@@ 100403b8     bncs_log_edit.obj
 0002:00004570       ??_SQDateEdit@@6BQPaintDevice@@@ 10040570     bncs_log_edit.obj
 0002:00004590       ??_SQDateEdit@@6BQObject@@@ 10040590     bncs_log_edit.obj
 0002:00004788       ??_SQRadioButton@@6BQPaintDevice@@@ 10040788     bncs_log_edit.obj
 0002:000047a8       ??_SQRadioButton@@6BQObject@@@ 100407a8     bncs_log_edit.obj
 0002:00004988       ??_SQSpinBox@@6B@          10040988     bncs_log_edit.obj
 0002:00004998       ??_SQSpinBox@@6BQPaintDevice@@@ 10040998     bncs_log_edit.obj
 0002:000049b8       ??_SQSpinBox@@6BQObject@@@ 100409b8     bncs_log_edit.obj
 0002:00004bac       ??_SQButtonGroup@@6BQPaintDevice@@@ 10040bac     bncs_log_edit.obj
 0002:00004bcc       ??_SQButtonGroup@@6BQObject@@@ 10040bcc     bncs_log_edit.obj
 0002:00004db8       ??_7bncs_log_editBase@@6BQPaintDevice@@@ 10040db8     bncs_log_edit.obj
 0002:00004dd8       ??_7bncs_log_editBase@@6BQObject@@@ 10040dd8     bncs_log_edit.obj
 0002:00005508       ??_SQSemaphore@@6B@        10041508     dbConnection.obj
 0002:0000550c       ??_7dbConnection@@6B@      1004150c     dbConnection.obj
 0002:00005568       ??_7type_info@@6B@         10041568     MSVCRT:ti_inst.obj
 0002:000055a0       ??_R1A@?0A@A@type_info@@8  100415a0     MSVCRT:ti_inst.obj
 0002:000055b8       ??_R2type_info@@8          100415b8     MSVCRT:ti_inst.obj
 0002:000055c0       ??_R3type_info@@8          100415c0     MSVCRT:ti_inst.obj
 0002:000055d0       ??_R4type_info@@6B@        100415d0     MSVCRT:ti_inst.obj
 0002:00007e78       __CT??_R0?AVstructured_exception@@@88 10043e78     except.obj
 0002:00007e98       __CTA1?AVstructured_exception@@ 10043e98     except.obj
 0002:00007ea0       __TI1?AVstructured_exception@@ 10043ea0     except.obj
 0002:0000a3b8       __IMPORT_DESCRIPTOR_USER32 100463b8     user32:USER32.dll
 0002:0000a3cc       __IMPORT_DESCRIPTOR_ADVAPI32 100463cc     advapi32:ADVAPI32.dll
 0002:0000a3e0       __IMPORT_DESCRIPTOR_qt-mt323 100463e0     qt-mt323:qt-mt323.dll
 0002:0000a3f4       __IMPORT_DESCRIPTOR_bncs_shim_loader 100463f4     bncs_shim_loader:bncs_shim_loader.dll
 0002:0000a408       __IMPORT_DESCRIPTOR_bncs_config 10046408     bncs_config:bncs_config.dll
 0002:0000a41c       __IMPORT_DESCRIPTOR_bncs_string 1004641c     bncs_string:bncs_string.dll
 0002:0000a430       __IMPORT_DESCRIPTOR_bncs_cachedData 10046430     bncs_cachedData:bncs_cachedData.dll
 0002:0000a444       __IMPORT_DESCRIPTOR_MSVCRT 10046444     MSVCRT:MSVCRT.dll
 0002:0000a458       __IMPORT_DESCRIPTOR_MSVCP60 10046458     msvcprt:MSVCP60.dll
 0002:0000a46c       __IMPORT_DESCRIPTOR_KERNEL32 1004646c     kernel32:KERNEL32.dll
 0002:0000a480       __NULL_IMPORT_DESCRIPTOR   10046480     user32:USER32.dll
 0003:00000000       ___xc_a                    10056000     MSVCRT:cinitexe.obj
 0003:00000044       ___xc_z                    10056044     MSVCRT:cinitexe.obj
 0003:00000048       ___xi_a                    10056048     MSVCRT:cinitexe.obj
 0003:0000004c       ___xi_z                    1005604c     MSVCRT:cinitexe.obj
 0003:00000050       ??_C@_07DJLK@1last?$CI?$CJ?$AA@ 10056050     bncs_data_form.obj
 0003:00000058       ??_C@_02NNOE@?$DO?$HM?$AA@ 10056058     bncs_data_form.obj
 0003:0000005c       ??_C@_0BL@BDNP@2nextRecordAvailable?$CIbool?$CJ?$AA@ 1005605c     bncs_data_form.obj
 0003:00000078       ??_C@_07NHAJ@1next?$CI?$CJ?$AA@ 10056078     bncs_data_form.obj
 0003:00000080       ??_C@_01FAFK@?$DO?$AA@     10056080     bncs_data_form.obj
 0003:00000084       ??_C@_0BL@OBHD@2prevRecordAvailable?$CIbool?$CJ?$AA@ 10056084     bncs_data_form.obj
 0003:000000a0       ??_C@_0BC@OKBM@1setEnabled?$CIbool?$CJ?$AA@ 100560a0     bncs_data_form.obj
 0003:000000b4       ??_C@_07FEOD@1prev?$CI?$CJ?$AA@ 100560b4     bncs_data_form.obj
 0003:000000bc       ??_C@_01FHE@?$DM?$AA@      100560bc     bncs_data_form.obj
 0003:000000c0       ??_C@_0L@EHAF@2clicked?$CI?$CJ?$AA@ 100560c0     bncs_data_form.obj
 0003:000000cc       ??_C@_08FCGP@1first?$CI?$CJ?$AA@ 100560cc     bncs_data_form.obj
 0003:000000d8       ??_C@_02PPNE@?$HM?$DM?$AA@ 100560d8     bncs_data_form.obj
 0003:000000dc       ??_C@_0BA@MJPN@1updateConfig?$CI?$CJ?$AA@ 100560dc     bncs_data_form.obj
 0003:000000ec       ??_C@_0L@HHKD@2timeout?$CI?$CJ?$AA@ 100560ec     bncs_data_form.obj
 0003:000000f8       ??_C@_0N@MBIM@1connectDb?$CI?$CJ?$AA@ 100560f8     bncs_data_form.obj
 0003:00000108       ??_C@_0L@HOCJ@FormWidget?$AA@ 10056108     bncs_data_form.obj
 0003:00000114       ??_C@_07PLMI@content?$AA@  10056114     bncs_data_form.obj
 0003:0000011c       ??_C@_0BJ@JOKK@delete?5connection?5object?$AA@ 1005611c     bncs_data_form.obj
 0003:00000138       ??_C@_0CI@MJBH@wait?5for?5connection?5thread?5to?5te@ 10056138     bncs_data_form.obj
 0003:00000160       ??_C@_0BL@LGCF@stop?5the?5connection?5thread?$AA@ 10056160     bncs_data_form.obj
 0003:0000017c       ??_C@_05FHFE@text?$DN?$AA@ 1005617c     bncs_data_form.obj
 0003:00000184       ??_C@_0M@HKMC@return?$DNtext?$AA@ 10056184     bncs_data_form.obj
 0003:00000190       ??_C@_03JFAA@Set?$AA@      10056190     bncs_data_form.obj
 0003:00000194       ??_C@_06GOOB@Filter?$AA@   10056194     bncs_data_form.obj
 0003:0000019c       ??_C@_0DO@CBEK@?5is?5set?5to?5the?5dbForm?5control?4Op@ 1005619c     bncs_data_form.obj
 0003:000001dc       ??_C@_0O@NFOF@Database?5Form?$AA@ 100561dc     bncs_data_form.obj
 0003:000001ec       ??_C@_03KPJN@Add?$AA@      100561ec     bncs_data_form.obj
 0003:000001f0       ??_C@_04NCCD@true?$AA@     100561f0     bncs_data_form.obj
 0003:000001f8       ??_C@_05BHDE@Clear?$AA@    100561f8     bncs_data_form.obj
 0003:00000200       ??_C@_05CIMI@Field?$AA@    10056200     bncs_data_form.obj
 0003:00000208       ??_C@_05KKFC@Slave?$AA@    10056208     bncs_data_form.obj
 0003:00000210       ??_C@_05NGOJ@reset?$AA@    10056210     bncs_data_form.obj
 0003:00000218       ??_C@_0L@KID@Filter?4Set?$AA@ 10056218     bncs_data_form.obj
 0003:00000224       ??_C@_05FELB@Table?$AA@    10056224     bncs_data_form.obj
 0003:0000022c       ??_C@_08NKKK@Password?$AA@ 1005622c     bncs_data_form.obj
 0003:00000238       ??_C@_04JJBJ@User?$AA@     10056238     bncs_data_form.obj
 0003:00000240       ??_C@_04ENBD@Host?$AA@     10056240     bncs_data_form.obj
 0003:00000248       ??_C@_08PHEC@Database?$AA@ 10056248     bncs_data_form.obj
 0003:00000254       ??_C@_08LGLM@dbDriver?$AA@ 10056254     bncs_data_form.obj
 0003:00000260       ??_C@_0M@JBOJ@Filter?4Set?$DN?$AA@ 10056260     bncs_data_form.obj
 0003:0000026c       ??_C@_0BB@IMFM@Slave?4Field?4Add?$DN?$AA@ 1005626c     bncs_data_form.obj
 0003:00000280       ??_C@_01KMAE@?0?$AA@       10056280     bncs_data_form.obj
 0003:00000284       ??_C@_06POLH@Table?$DN?$AA@ 10056284     bncs_data_form.obj
 0003:0000028c       ??_C@_09KMDJ@Password?$DN?$AA@ 1005628c     bncs_data_form.obj
 0003:00000298       ??_C@_05KFHK@User?$DN?$AA@ 10056298     bncs_data_form.obj
 0003:000002a0       ??_C@_05NGKO@Host?$DN?$AA@ 100562a0     bncs_data_form.obj
 0003:000002a8       ??_C@_09KKBE@Database?$DN?$AA@ 100562a8     bncs_data_form.obj
 0003:000002b4       ??_C@_01BJG@?6?$AA@        100562b4     bncs_data_form.obj
 0003:000002b8       ??_C@_09GMFF@dbDriver?$DN?$AA@ 100562b8     bncs_data_form.obj
 0003:000002c4       ??_C@_03MKE@all?$AA@       100562c4     bncs_data_form.obj
 0003:000002c8       ??_C@_06CGBH@return?$AA@   100562c8     bncs_data_form.obj
 0003:000002d0       ??_C@_0N@NHBE@Filter?$DNClear?$AA@ 100562d0     bncs_data_form.obj
 0003:000002e0       ??_C@_0BJ@LMLK@Failed?5to?5find?5button?5?9?5?$AA@ 100562e0     bncs_data_form.obj
 0003:000002fc       ??_C@_0CB@NFNJ@Failed?5to?5connect?5to?5database?5?9?5@ 100562fc     bncs_data_form.obj
 0003:00000320       ??_C@_0N@EBMK@1addFields?$CI?$CJ?$AA@ 10056320     bncs_data_form_editimpl.obj
 0003:00000330       ??_C@_07CCPK@1help?$CI?$CJ?$AA@ 10056330     bncs_data_form_editimpl.obj
 0003:00000338       ??_C@_0CN@FNCG@2pressed?$CIQListViewItem?$CK?0const?5QP@ 10056338     bncs_data_form_editimpl.obj
 0003:00000368       ??_C@_0DD@JBBA@1itemSelected?$CIQListViewItem?$CK?0con@ 10056368     bncs_data_form_editimpl.obj
 0003:0000039c       ??_C@_0N@JFKK@1getFields?$CI?$CJ?$AA@ 1005639c     bncs_data_form_editimpl.obj
 0003:000003ac       ??_C@_0M@NCIC@1delField?$CI?$CJ?$AA@ 100563ac     bncs_data_form_editimpl.obj
 0003:000003b8       ??_C@_0M@OBHF@1addField?$CI?$CJ?$AA@ 100563b8     bncs_data_form_editimpl.obj
 0003:000003c4       ??_C@_03DMDD@?5?9?5?$AA@   100563c4     bncs_data_form_editimpl.obj
 0003:000003c8       ??_C@_0BK@KCL@Request?5to?5get?5all?5fields?$AA@ 100563c8     bncs_data_form_editimpl.obj
 0003:000003e4       ??_C@_0DP@OBIB@Can?8t?5connect?5to?5databaseYou?5wil@ 100563e4     bncs_data_form_editimpl.obj
 0003:00000424       ??_C@_0P@ENFB@bncs_data_form?$AA@ 10056424     bncs_data_form_editimpl.obj
 0003:00000434       ??_C@_0DB@MMAP@2contextMenuRequested?$CIint?0?5int?0?5@ 10056434     bncs_data_Table.obj
 0003:00000468       ??_C@_0CH@HFAL@1requestMenu?$CIint?0?5int?0?5const?5QPo@ 10056468     bncs_data_Table.obj
 0003:00000490       ??_C@_0O@GGBD@1updateData?$CI?$CJ?$AA@ 10056490     bncs_data_Table.obj
 0003:000004a0       ??_C@_0N@NPKE@1ReloadLog?$CI?$CJ?$AA@ 100564a0     bncs_data_Table.obj
 0003:000004b0       ??_C@_09OCNC@ReadOnly?$DN?$AA@ 100564b0     bncs_data_Table.obj
 0003:000004bc       ??_C@_05NAGO@false?$AA@    100564bc     bncs_data_Table.obj
 0003:000004c4       ??_C@_08DBKI@ReadOnly?$AA@ 100564c4     bncs_data_Table.obj
 0003:000004d0       ??_C@_0P@FPKD@ReadOnly?$DNfalse?$AA@ 100564d0     bncs_data_Table.obj
 0003:000004e0       ??_C@_0BF@BEBL@Table?5requested?5menu?$AA@ 100564e0     bncs_data_Table.obj
 0003:000004f8       ??_C@_0BA@LIAF@bncs_data_table?$AA@ 100564f8     bncs_data_table_editimpl.obj
 0003:00000508       ??_C@_0O@MEIF@On?5revertive?4?$AA@ 10056508     bncs_log.obj
 0003:00000518       ??_C@_05KFME@value?$AA@    10056518     bncs_log.obj
 0003:00000520       ??_C@_0CO@LFFN@object_settings?4colledia_general@ 10056520     bncs_log.obj
 0003:00000550       ??_C@_0O@KBOP@1getLogData?$CI?$CJ?$AA@ 10056550     bncs_log.obj
 0003:00000560       ??_C@_0CA@NHAM@2currentChanged?$CIQListViewItem?$CK?$CJ?$AA@ 10056560     bncs_log.obj
 0003:00000580       ??_C@_0CC@NMCI@1selectionChanged?$CIQListViewItem?$CK@ 10056580     bncs_log.obj
 0003:000005a4       ??_C@_0P@LMKC@1StartScroll?$CI?$CJ?$AA@ 100565a4     bncs_log.obj
 0003:000005b4       ??_C@_0BJ@PPKB@2pressed?$CIQListViewItem?$CK?$CJ?$AA@ 100565b4     bncs_log.obj
 0003:000005d0       ??_C@_0BN@HKKA@1itemClicked?$CIQListViewItem?$CK?$CJ?$AA@ 100565d0     bncs_log.obj
 0003:000005f0       ??_C@_0BD@MLNG@scrollBarMode?$DNAuto?$AA@ 100565f0     bncs_log.obj
 0003:00000604       ??_C@_0BI@FPON@scrollBarMode?$DNAlwaysOff?$AA@ 10056604     bncs_log.obj
 0003:0000061c       ??_C@_0BH@OLPD@scrollBarMode?$DNAlwaysOn?$AA@ 1005661c     bncs_log.obj
 0003:00000634       ??_C@_0BA@HMCL@scrollMode?$DNAuto?$AA@ 10056634     bncs_log.obj
 0003:00000644       ??_C@_0BB@MPNP@scrollMode?$DNNever?$AA@ 10056644     bncs_log.obj
 0003:00000658       ??_C@_0BC@NCOL@scrollMode?$DNAlways?$AA@ 10056658     bncs_log.obj
 0003:0000066c       ??_C@_0BE@ECIA@LineHeight?4Minimum?$DN?$AA@ 1005666c     bncs_log.obj
 0003:00000680       ??_C@_08FNHI@MaxShow?$DN?$AA@ 10056680     bncs_log.obj
 0003:0000068c       ??_C@_0M@MJMB@BncsDriver?$DN?$AA@ 1005668c     bncs_log.obj
 0003:00000698       ??_C@_0BG@NKFJ@Filter?4State?4Unknown?$DN?$AA@ 10056698     bncs_log.obj
 0003:000006b0       ??_C@_0BG@DFKO@Filter?4State?4Latched?$DN?$AA@ 100566b0     bncs_log.obj
 0003:000006c8       ??_C@_0BF@LPLP@Filter?4State?4Ignore?$DN?$AA@ 100566c8     bncs_log.obj
 0003:000006e0       ??_C@_0BC@DIJI@Filter?4State?4Ack?$DN?$AA@ 100566e0     bncs_log.obj
 0003:000006f4       ??_C@_0BH@EIP@Filter?4State?4ForceOff?$DN?$AA@ 100566f4     bncs_log.obj
 0003:0000070c       ??_C@_0BC@COPM@Filter?4State?4Off?$DN?$AA@ 1005670c     bncs_log.obj
 0003:00000720       ??_C@_0BG@HOFB@Filter?4State?4ForceOn?$DN?$AA@ 10056720     bncs_log.obj
 0003:00000738       ??_C@_0BB@NAA@Filter?4State?4On?$DN?$AA@ 10056738     bncs_log.obj
 0003:0000074c       ??_C@_0BG@JACO@Filter?4State?4All?$DNtrue?$AA@ 1005674c     bncs_log.obj
 0003:00000764       ??_C@_0BK@JNNH@Filter?4Level?4Major?4Alarm?$DN?$AA@ 10056764     bncs_log.obj
 0003:00000780       ??_C@_0BK@PGKA@Filter?4Level?4Minor?4Alarm?$DN?$AA@ 10056780     bncs_log.obj
 0003:0000079c       ??_C@_0BM@KEJF@Filter?4Level?4Major?4Warning?$DN?$AA@ 1005679c     bncs_log.obj
 0003:000007b8       ??_C@_0BM@JIFA@Filter?4Level?4Minor?4Warning?$DN?$AA@ 100567b8     bncs_log.obj
 0003:000007d4       ??_C@_0BD@CGJF@Filter?4Level?4Info?$DN?$AA@ 100567d4     bncs_log.obj
 0003:000007e8       ??_C@_0BG@NNCI@Filter?4Level?4All?$DNtrue?$AA@ 100567e8     bncs_log.obj
 0003:00000800       ??_C@_0CG@FGFB@Filter?4DateTime?4CompareMode?$DNIncl@ 10056800     bncs_log.obj
 0003:00000828       ??_C@_0CC@NDDD@Filter?4Date?4CompareMode?$DNInclusiv@ 10056828     bncs_log.obj
 0003:0000084c       ??_C@_0CG@HPDO@Filter?4DateTime?4CompareMode?$DNExcl@ 1005684c     bncs_log.obj
 0003:00000874       ??_C@_0CC@PKFM@Filter?4Date?4CompareMode?$DNExclusiv@ 10056874     bncs_log.obj
 0003:00000898       ??_C@_0BG@IMBG@Filter?4Date?4DaysBack?$DN?$AA@ 10056898     bncs_log.obj
 0003:000008b0       ??_C@_0BJ@BJOC@Filter?4DateTime?4Between?$DN?$AA@ 100568b0     bncs_log.obj
 0003:000008cc       ??_C@_0BH@PHJD@Filter?4DateTime?4After?$DN?$AA@ 100568cc     bncs_log.obj
 0003:000008e4       ??_C@_0BI@FADJ@Filter?4DateTime?4Before?$DN?$AA@ 100568e4     bncs_log.obj
 0003:000008fc       ??_C@_03ELMM@?5?$CL?5?$AA@ 100568fc     bncs_log.obj
 0003:00000900       ??_C@_0BF@DGK@Filter?4Date?4Between?$DN?$AA@ 10056900     bncs_log.obj
 0003:00000918       ??_C@_0BD@JNPE@Filter?4Date?4After?$DN?$AA@ 10056918     bncs_log.obj
 0003:0000092c       ??_C@_0BE@NIFD@Filter?4Date?4Before?$DN?$AA@ 1005692c     bncs_log.obj
 0003:00000940       ??_C@_0BB@MMIH@Filter?4Text?4set?$DN?$AA@ 10056940     bncs_log.obj
 0003:00000954       ??_C@_0BG@FNHJ@Filter?4Processes?4set?$DN?$AA@ 10056954     bncs_log.obj
 0003:0000096c       ??_C@_0BD@KDGP@Filter?4Groups?4set?$DN?$AA@ 1005696c     bncs_log.obj
 0003:00000980       ??_C@_0BE@GJNN@Filter?4Devices?4set?$DN?$AA@ 10056980     bncs_log.obj
 0003:00000994       ??_C@_08PPA@OrderBy?$DN?$AA@ 10056994     bncs_log.obj
 0003:000009a0       ??_C@_0P@KKKI@ShowIfNoGroup?$DN?$AA@ 100569a0     bncs_log.obj
 0003:000009b0       ??_C@_0BA@KGKA@notify?4changed?$DN?$AA@ 100569b0     bncs_log.obj
 0003:000009c0       ??_C@_0BA@IJMA@notify?4pressed?$DN?$AA@ 100569c0     bncs_log.obj
 0003:000009d0       ??_C@_0P@BBC@SortAscending?$DN?$AA@ 100569d0     bncs_log.obj
 0003:000009e0       ??_C@_0BE@MAMP@ShowSingleInstance?$DN?$AA@ 100569e0     bncs_log.obj
 0003:000009f4       ??_C@_09EIFK@ShowText?$DN?$AA@ 100569f4     bncs_log.obj
 0003:00000a00       ??_C@_0L@JNAO@ShowLevel?$DN?$AA@ 10056a00     bncs_log.obj
 0003:00000a0c       ??_C@_0L@FPAA@ShowState?$DN?$AA@ 10056a0c     bncs_log.obj
 0003:00000a18       ??_C@_0N@DMBN@ShowProcess?$DN?$AA@ 10056a18     bncs_log.obj
 0003:00000a28       ??_C@_0O@IIJN@ShowLocation?$DN?$AA@ 10056a28     bncs_log.obj
 0003:00000a38       ??_C@_0M@CDIH@ShowDevice?$DN?$AA@ 10056a38     bncs_log.obj
 0003:00000a44       ??_C@_0L@BCJO@ShowGroup?$DN?$AA@ 10056a44     bncs_log.obj
 0003:00000a50       ??_C@_09MBKC@ShowMsec?$DN?$AA@ 10056a50     bncs_log.obj
 0003:00000a5c       ??_C@_0O@DDFB@ShowDateTime?$DN?$AA@ 10056a5c     bncs_log.obj
 0003:00000a6c       ??_C@_0N@HDO@width?4level?$DN?$AA@ 10056a6c     bncs_log.obj
 0003:00000a7c       ??_C@_0N@MFDA@width?4state?$DN?$AA@ 10056a7c     bncs_log.obj
 0003:00000a8c       ??_C@_0P@BCMC@width?4process?$DN?$AA@ 10056a8c     bncs_log.obj
 0003:00000a9c       ??_C@_0BA@FLD@width?4location?$DN?$AA@ 10056a9c     bncs_log.obj
 0003:00000aac       ??_C@_0O@PMBN@width?4device?$DN?$AA@ 10056aac     bncs_log.obj
 0003:00000abc       ??_C@_0N@IIKO@width?4group?$DN?$AA@ 10056abc     bncs_log.obj
 0003:00000acc       ??_C@_0BA@LOHP@width?4dateTime?$DN?$AA@ 10056acc     bncs_log.obj
 0003:00000adc       ??_C@_0BC@PIFB@Password_reserve?$DN?$AA@ 10056adc     bncs_log.obj
 0003:00000af0       ??_C@_0O@NJKB@User_reserve?$DN?$AA@ 10056af0     bncs_log.obj
 0003:00000b00       ??_C@_0BC@GHN@Database_reserve?$DN?$AA@ 10056b00     bncs_log.obj
 0003:00000b14       ??_C@_0O@KBMN@Host_reserve?$DN?$AA@ 10056b14     bncs_log.obj
 0003:00000b24       ??_C@_0BC@FILL@dbDriver_reserve?$DN?$AA@ 10056b24     bncs_log.obj
 0003:00000b38       ??_C@_0BC@BDDE@dbEnable_reserve?$DN?$AA@ 10056b38     bncs_log.obj
 0003:00000b4c       ??_C@_09OLFP@dbEnable?$DN?$AA@ 10056b4c     bncs_log.obj
 0003:00000b58       ??_C@_0BD@NKAA@stylesheet?4states?$DN?$AA@ 10056b58     bncs_log.obj
 0003:00000b6c       ??_C@_0BC@CDKC@stylesheet?4style?$DN?$AA@ 10056b6c     bncs_log.obj
 0003:00000b80       ??_C@_0BD@EIF@Slave?4Form?4Device?$DN?$AA@ 10056b80     bncs_log.obj
 0003:00000b94       ??_C@_0BA@EMJG@Slave?4Navigate?$DN?$AA@ 10056b94     bncs_log.obj
 0003:00000ba4       ??_C@_06DCH@bottom?$AA@    10056ba4     bncs_log.obj
 0003:00000bac       ??_C@_03FLOJ@top?$AA@      10056bac     bncs_log.obj
 0003:00000bb0       ??_C@_06EEFK@scroll?$AA@   10056bb0     bncs_log.obj
 0003:00000bb8       ??_C@_08KPFM@AlwaysOn?$AA@ 10056bb8     bncs_log.obj
 0003:00000bc4       ??_C@_09OAKJ@AlwaysOff?$AA@ 10056bc4     bncs_log.obj
 0003:00000bd0       ??_C@_06KCJA@Always?$AA@   10056bd0     bncs_log.obj
 0003:00000bd8       ??_C@_05LEJH@Never?$AA@    10056bd8     bncs_log.obj
 0003:00000be0       ??_C@_04DEAH@Auto?$AA@     10056be0     bncs_log.obj
 0003:00000be8       ??_C@_07CLCP@Minimum?$AA@  10056be8     bncs_log.obj
 0003:00000bf0       ??_C@_0L@PIIH@LineHeight?$AA@ 10056bf0     bncs_log.obj
 0003:00000bfc       ??_C@_05PNBN@width?$AA@    10056bfc     bncs_log.obj
 0003:00000c04       ??_C@_06NBPC@Device?$AA@   10056c04     bncs_log.obj
 0003:00000c0c       ??_C@_04PJJK@Form?$AA@     10056c0c     bncs_log.obj
 0003:00000c14       ??_C@_08NNEO@Navigate?$AA@ 10056c14     bncs_log.obj
 0003:00000c20       ??_C@_06PEFH@colour?$AA@   10056c20     bncs_log.obj
 0003:00000c28       ??_C@_07BDGD@OrderBy?$AA@  10056c28     bncs_log.obj
 0003:00000c30       ??_C@_0O@PBBM@SortAscending?$AA@ 10056c30     bncs_log.obj
 0003:00000c40       ??_C@_07MEJL@changed?$AA@  10056c40     bncs_log.obj
 0003:00000c48       ??_C@_07KEDC@pressed?$AA@  10056c48     bncs_log.obj
 0003:00000c50       ??_C@_06PDOH@notify?$AA@   10056c50     bncs_log.obj
 0003:00000c58       ??_C@_08EMID@fontsize?$AA@ 10056c58     bncs_log.obj
 0003:00000c64       ??_C@_04IBNA@font?$AA@     10056c64     bncs_log.obj
 0003:00000c6c       ??_C@_05JCDO@style?$AA@    10056c6c     bncs_log.obj
 0003:00000c74       ??_C@_06FABF@states?$AA@   10056c74     bncs_log.obj
 0003:00000c7c       ??_C@_0L@JAIA@stylesheet?$AA@ 10056c7c     bncs_log.obj
 0003:00000c88       ??_C@_05KGMP@Print?$AA@    10056c88     bncs_log.obj
 0003:00000c90       ??_C@_08BCJJ@PrintAll?$AA@ 10056c90     bncs_log.obj
 0003:00000c9c       ??_C@_0O@BAME@scrollBarMode?$AA@ 10056c9c     bncs_log.obj
 0003:00000cac       ??_C@_0L@HBOK@scrollMode?$AA@ 10056cac     bncs_log.obj
 0003:00000cb8       ??_C@_0M@NNCD@width?4level?$AA@ 10056cb8     bncs_log.obj
 0003:00000cc4       ??_C@_0M@NDPC@width?4state?$AA@ 10056cc4     bncs_log.obj
 0003:00000cd0       ??_C@_0O@CBDG@width?4process?$AA@ 10056cd0     bncs_log.obj
 0003:00000ce0       ??_C@_0P@FAMF@width?4location?$AA@ 10056ce0     bncs_log.obj
 0003:00000cf0       ??_C@_0N@PONJ@width?4device?$AA@ 10056cf0     bncs_log.obj
 0003:00000d00       ??_C@_0M@ENAN@width?4group?$AA@ 10056d00     bncs_log.obj
 0003:00000d0c       ??_C@_0P@JMIA@width?4dateTime?$AA@ 10056d0c     bncs_log.obj
 0003:00000d1c       ??_C@_0BD@GDGK@LineHeight?4Minimum?$AA@ 10056d1c     bncs_log.obj
 0003:00000d30       ??_C@_08GN@Log?4All?$DN?$AA@ 10056d30     bncs_log.obj
 0003:00000d3c       ??_C@_07IOLE@Log?4All?$AA@ 10056d3c     bncs_log.obj
 0003:00000d44       ??_C@_0L@CHGB@Log?4Group?$DN?$AA@ 10056d44     bncs_log.obj
 0003:00000d50       ??_C@_09ICBI@Log?4Group?$AA@ 10056d50     bncs_log.obj
 0003:00000d5c       ??_C@_0N@BEJ@Log?4Process?$DN?$AA@ 10056d5c     bncs_log.obj
 0003:00000d6c       ??_C@_0M@KKJJ@Log?4Process?$AA@ 10056d6c     bncs_log.obj
 0003:00000d78       ??_C@_0M@HHLC@Log?4Device?$DN?$AA@ 10056d78     bncs_log.obj
 0003:00000d84       ??_C@_0L@FBBG@Log?4Device?$AA@ 10056d84     bncs_log.obj
 0003:00000d90       ??_C@_07IEE@Filter?4?$AA@  10056d90     bncs_log.obj
 0003:00000d98       ??_C@_07JLPB@MaxShow?$AA@  10056d98     bncs_log.obj
 0003:00000da0       ??_C@_0L@CCFD@BncsDriver?$AA@ 10056da0     bncs_log.obj
 0003:00000dac       ??_C@_0BD@CMIE@ShowSingleInstance?$AA@ 10056dac     bncs_log.obj
 0003:00000dc0       ??_C@_0O@ELNC@ShowIfNoGroup?$AA@ 10056dc0     bncs_log.obj
 0003:00000dd0       ??_C@_0P@EDLD@notify?4changed?$AA@ 10056dd0     bncs_log.obj
 0003:00000de0       ??_C@_0P@CDBK@notify?4pressed?$AA@ 10056de0     bncs_log.obj
 0003:00000df0       ??_C@_08LJKK@ShowText?$AA@ 10056df0     bncs_log.obj
 0003:00000dfc       ??_C@_09ONMD@ShowLevel?$AA@ 10056dfc     bncs_log.obj
 0003:00000e08       ??_C@_09ODBC@ShowState?$AA@ 10056e08     bncs_log.obj
 0003:00000e14       ??_C@_0M@POKM@ShowProcess?$AA@ 10056e14     bncs_log.obj
 0003:00000e20       ??_C@_0N@HOBK@ShowLocation?$AA@ 10056e20     bncs_log.obj
 0003:00000e30       ??_C@_0L@GEOJ@ShowDevice?$AA@ 10056e30     bncs_log.obj
 0003:00000e3c       ??_C@_09HNON@ShowGroup?$AA@ 10056e3c     bncs_log.obj
 0003:00000e48       ??_C@_08EBDM@ShowMsec?$AA@ 10056e48     bncs_log.obj
 0003:00000e54       ??_C@_0N@LCFP@ShowDateTime?$AA@ 10056e54     bncs_log.obj
 0003:00000e64       ??_C@_0BC@GGPI@Slave?4Form?4Device?$AA@ 10056e64     bncs_log.obj
 0003:00000e78       ??_C@_0P@HFMH@Slave?4Navigate?$AA@ 10056e78     bncs_log.obj
 0003:00000e88       ??_C@_0BC@ODMG@stylesheet?4states?$AA@ 10056e88     bncs_log.obj
 0003:00000e9c       ??_C@_0BB@EBBP@stylesheet?4style?$AA@ 10056e9c     bncs_log.obj
 0003:00000eb0       ??_C@_0BB@LCFJ@Password_reserve?$AA@ 10056eb0     bncs_log.obj
 0003:00000ec4       ??_C@_0N@ECDJ@User_reserve?$AA@ 10056ec4     bncs_log.obj
 0003:00000ed4       ??_C@_0N@COCB@Host_reserve?$AA@ 10056ed4     bncs_log.obj
 0003:00000ee4       ??_C@_0BB@JOPG@Database_reserve?$AA@ 10056ee4     bncs_log.obj
 0003:00000ef8       ??_C@_0BB@FIPK@dbDriver_reserve?$AA@ 10056ef8     bncs_log.obj
 0003:00000f0c       ??_C@_0BB@NHJA@dbEnable_reserve?$AA@ 10056f0c     bncs_log.obj
 0003:00000f20       ??_C@_08LMDN@dbEnable?$AA@ 10056f20     bncs_log.obj
 0003:00000f2c       ??_C@_0BJ@BNMJ@scrollBarMode?$DNAlwaysOff?6?$AA@ 10056f2c     bncs_log.obj
 0003:00000f48       ??_C@_0BI@ODHN@scrollBarMode?$DNAlwaysOn?6?$AA@ 10056f48     bncs_log.obj
 0003:00000f60       ??_C@_0BC@HFFJ@scrollMode?$DNNever?6?$AA@ 10056f60     bncs_log.obj
 0003:00000f74       ??_C@_0BD@MCEE@scrollMode?$DNAlways?6?$AA@ 10056f74     bncs_log.obj
 0003:00000f88       ??_C@_0M@OBDL@Date?5?$CG?5Time?$AA@ 10056f88     bncs_log.obj
 0003:00000f94       ??_C@_0BI@EKGB@ShowSingleInstance?$DNtrue?$AA@ 10056f94     bncs_log.obj
 0003:00000fac       ??_C@_0BE@GLMI@SortAscending?$DNfalse?$AA@ 10056fac     bncs_log.obj
 0003:00000fc0       ??_C@_0BD@IOLC@ShowIfNoGroup?$DNtrue?$AA@ 10056fc0     bncs_log.obj
 0003:00000fd4       ??_C@_0BF@IG@notify?4changed?$DNfalse?$AA@ 10056fd4     bncs_log.obj
 0003:00000fec       ??_C@_0BF@DKKH@notify?4pressed?$DNfalse?$AA@ 10056fec     bncs_log.obj
 0003:00001004       ??_C@_0P@PANE@ShowText?$DNfalse?$AA@ 10057004     bncs_log.obj
 0003:00001014       ??_C@_0BA@JCHK@ShowLevel?$DNfalse?$AA@ 10057014     bncs_log.obj
 0003:00001024       ??_C@_0BA@HDDE@ShowState?$DNfalse?$AA@ 10057024     bncs_log.obj
 0003:00001034       ??_C@_0BC@BDNJ@ShowProcess?$DNfalse?$AA@ 10057034     bncs_log.obj
 0003:00001048       ??_C@_0BC@HKMO@ShowLocation?$DNtrue?$AA@ 10057048     bncs_log.obj
 0003:0000105c       ??_C@_0BB@IJBM@ShowDevice?$DNfalse?$AA@ 1005705c     bncs_log.obj
 0003:00001070       ??_C@_0BA@PLDM@ShowGroup?$DNfalse?$AA@ 10057070     bncs_log.obj
 0003:00001080       ??_C@_0O@BFKG@ShowMsec?$DNtrue?$AA@ 10057080     bncs_log.obj
 0003:00001090       ??_C@_0BD@LEL@ShowDateTime?$DNfalse?$AA@ 10057090     bncs_log.obj
 0003:000010a4       ??_C@_0DC@DALF@Connected?5to?5database?0?5getting?5d@ 100570a4     bncs_log.obj
 0003:000010d8       ??_C@_01FAJB@?$DL?$AA@     100570d8     bncs_log.obj
 0003:000010dc       ??_C@_0IB@JAOB@SELECT?5log?4date_time?0log?4mSec?0lo@ 100570dc     bncs_log.obj
 0003:00001160       ??_C@_09LHIL@?5LIMIT?50?0?$AA@ 10057160     bncs_log.obj
 0003:0000116c       ??_C@_0JH@JHOL@SELECT?5log?4date_time?0log?4mSec?0lo@ 1005716c     bncs_log.obj
 0003:00001204       ??_C@_02IFMD@?5?$DL?$AA@   10057204     bncs_log.obj
 0003:00001208       ??_C@_0L@GLGB@?5ORDER?5BY?5?$AA@ 10057208     bncs_log.obj
 0003:00001214       ??_C@_0HL@GCHJ@?5log?4date_time?0log?4mSec?0log?4leve@ 10057214     bncs_log.obj
 0003:00001290       ??_C@_03BGKD@log?$AA@      10057290     bncs_log.obj
 0003:00001294       ??_C@_0JB@OAOH@?5log?4date_time?0log?4mSec?0log?4curr@ 10057294     bncs_log.obj
 0003:00001328       ??_C@_0M@LINC@SELECT?5top?5?$AA@ 10057328     bncs_log.obj
 0003:00001334       ??_C@_06LKBG@QODBC3?$AA@   10057334     bncs_log.obj
 0003:0000133c       ??_C@_09FBEI@log?4state?$AA@ 1005733c     bncs_log.obj
 0003:00001348       ??_C@_0BC@EEIE@log?4current_state?$AA@ 10057348     bncs_log.obj
 0003:0000135c       ??_C@_05PILG@State?$AA@    1005735c     bncs_log.obj
 0003:00001364       ??_C@_09FPJJ@log?4level?$AA@ 10057364     bncs_log.obj
 0003:00001370       ??_C@_0BC@EKFF@log?4current_level?$AA@ 10057370     bncs_log.obj
 0003:00001384       ??_C@_05PGGH@Level?$AA@    10057384     bncs_log.obj
 0003:0000138c       ??_C@_08ODIJ@log?4text?$AA@ 1005738c     bncs_log.obj
 0003:00001398       ??_C@_0BB@CPCE@log?4current_text?$AA@ 10057398     bncs_log.obj
 0003:000013ac       ??_C@_04BNNJ@Text?$AA@     100573ac     bncs_log.obj
 0003:000013b4       ??_C@_0P@GJAD@log?4process_id?$AA@ 100573b4     bncs_log.obj
 0003:000013c4       ??_C@_07EOBJ@Process?$AA@  100573c4     bncs_log.obj
 0003:000013cc       ??_C@_0BA@OLFI@log?4device_name?$AA@ 100573cc     bncs_log.obj
 0003:000013dc       ??_C@_0O@JMOH@log?4usergroup?$AA@ 100573dc     bncs_log.obj
 0003:000013ec       ??_C@_05GGEJ@Group?$AA@    100573ec     bncs_log.obj
 0003:000013f4       ??_C@_0BI@MPEL@log?4date_time?$CF1?0?5mSec?$CF2?$AA@ 100573f4     bncs_log.obj
 0003:0000140c       ??_C@_04BJBD@?5asc?$AA@    1005740c     bncs_log.obj
 0003:00001414       ??_C@_05JECO@?5desc?$AA@   10057414     bncs_log.obj
 0003:0000141c       ??_C@_0BM@DNGK@Giving?5up?5trying?5to?5connect?$AA@ 1005741c     bncs_log.obj
 0003:00001438       ??_C@_08KDKK@Location?$AA@ 10057438     bncs_log.obj
 0003:00001444       ??_C@_0BC@MINI@button?4?$CF1?$DNpressed?$AA@ 10057444     bncs_log.obj
 0003:00001458       ??_R0?AVstructured_exception@@@8 10057458     bncs_log.obj
 0003:0000147c       ??_C@_0DC@JPNF@bncs_log?3?3ReloadLog?$CI?$CJ?5thrown?5exc@ 1005747c     bncs_log.obj
 0003:000014b0       ??_C@_08LEHD@hh?3mm?3ss?$AA@ 100574b0     bncs_log.obj
 0003:000014bc       ??_C@_0EC@NGOL@Attempting?5to?5connect?5to?5Databas@ 100574bc     bncs_log.obj
 0003:00001500       ??_C@_0CP@ICOP@Attempting?5to?5connect?5to?5Databas@ 10057500     bncs_log.obj
 0003:00001530       ??_C@_0CM@GPFO@bncs_log?3?3ReloadLog?$CI?$CJ?5db?5already@ 10057530     bncs_log.obj
 0003:0000155c       ??_C@_0CN@OFBM@Database?5?8?$CF1?8?5on?5?8?$CF2?8?4?5Connectio@ 1005755c     bncs_log.obj
 0003:0000158c       ??_C@_0BJ@BOFJ@button?4?$CF1?$DNlogItemChanged?$AA@ 1005758c     bncs_log.obj
 0003:000015a8       ??_C@_0BJ@MJHA@Not?5derived?5from?5QWidget?$AA@ 100575a8     bncs_log.obj
 0003:000015c4       ??_C@_01HAF@?8?$AA@        100575c4     bncs_log.obj
 0003:000015c8       ??_C@_0BJ@KBFO@Filter?4Set?$DNdevice_name?$DN?8?$AA@ 100575c8     bncs_log.obj
 0003:000015e4       ??_C@_0DG@CBME@bncs_log?3?3selectionChanged?5?9?5Not@ 100575e4     bncs_log.obj
 0003:0000161c       ??_C@_0O@LGNO@navigatedest?$DN?$AA@ 1005761c     bncs_log.obj
 0003:0000162c       ??_C@_0DF@OIOL@bncs_log?3?3getLogData?$CI?$CJ?5?9?5thrown?5@ 1005762c     bncs_log.obj
 0003:00001664       ??_C@_0BO@KLJC@bncs_log?3?3getLogData?$CI?$CJ?5?9?9?5END?$AA@ 10057664     bncs_log.obj
 0003:00001684       ??_C@_09JBEK@?6Devices?3?$AA@ 10057684     bncs_log.obj
 0003:00001690       ??_C@_07IEKP@Groups?3?$AA@ 10057690     bncs_log.obj
 0003:00001698       ??_C@_0CM@JEEL@bncs_log?3?3getLogData?$CI?$CJ?5?9?9?5over?5d@ 10057698     bncs_log.obj
 0003:000016c4       ??_C@_0DO@LHPD@bncs_log?3?3getLogData?$CI?$CJ?5?9?9?5get?5da@ 100576c4     bncs_log.obj
 0003:00001704       ??_C@_0DH@OAMB@Connected?5to?5database?0?5getting?5d@ 10057704     bncs_log.obj
 0003:0000173c       ??_C@_05PCMN@level?$AA@    1005773c     bncs_log.obj
 0003:00001744       ??_C@_05PMBM@state?$AA@    10057744     bncs_log.obj
 0003:0000174c       ??_C@_07JMKN@process?$AA@  1005774c     bncs_log.obj
 0003:00001754       ??_C@_08KGHI@location?$AA@ 10057754     bncs_log.obj
 0003:00001760       ??_C@_06GFPG@device?$AA@   10057760     bncs_log.obj
 0003:00001768       ??_C@_05GCOD@group?$AA@    10057768     bncs_log.obj
 0003:00001770       ??_C@_08GKDN@dateTime?$AA@ 10057770     bncs_log.obj
 0003:0000177c       ??_C@_09KCGF@lightGray?$AA@ 1005777c     bncs_log.obj
 0003:00001788       ??_C@_05GMF@white?$AA@     10057788     bncs_log.obj
 0003:00001790       ??_C@_05IBOL@black?$AA@    10057790     bncs_log.obj
 0003:00001798       ??_C@_0BA@JFDM@customEvent?4?5?$CFd?$AA@ 10057798     bncs_log.obj
 0003:000017a8       ??_C@_0BI@PHJO@ASSERT?3?5?$CC?$CFs?$CC?5in?5?$CFs?5?$CI?$CFd?$CJ?$AA@ 100577a8     bncs_log.obj
 0003:000017c0       ??_C@_0L@MGKG@i?5?$DM?$DN?5nodes?$AA@ 100577c0     bncs_log.obj
 0003:000017cc       ??_C@_0CB@GILJ@C?3?2Qt?23?42?43?2include?2qvaluelist?4h@ 100577cc     bncs_log.obj
 0003:000017f0       ??_C@_0BF@JFD@2valueChanged?$CI?5int?5?$CJ?$AA@ 100577f0     bncs_log_editimpl.obj
 0003:00001808       ??_C@_0CB@EFIF@1valueChangedSpinDaysBack?$CI?5int?5?$CJ@ 10057808     bncs_log_editimpl.obj
 0003:0000182c       ??_C@_0DF@CGB@1valueChangedDateTimeBetweenEnd?$CI@ 1005782c     bncs_log_editimpl.obj
 0003:00001864       ??_C@_0DH@OFB@1valueChangedDateTimeBetweenStar@ 10057864     bncs_log_editimpl.obj
 0003:0000189c       ??_C@_0DA@LLFH@1valueChangedDateTimeAfter?$CI?5cons@ 1005789c     bncs_log_editimpl.obj
 0003:000018cc       ??_C@_0CD@PNOL@2valueChanged?$CI?5const?5QDateTime?5?$CG@ 100578cc     bncs_log_editimpl.obj
 0003:000018f0       ??_C@_0DB@LCHA@1valueChangedDateTimeBefore?$CI?5con@ 100578f0     bncs_log_editimpl.obj
 0003:00001924       ??_C@_0CN@GDCA@1valueChangedDateBetweenEnd?$CI?5con@ 10057924     bncs_log_editimpl.obj
 0003:00001954       ??_C@_0CP@DHBA@1valueChangedDateBetweenStart?$CI?5c@ 10057954     bncs_log_editimpl.obj
 0003:00001984       ??_C@_0CI@GCGH@1valueChangedDateAfter?$CI?5const?5QD@ 10057984     bncs_log_editimpl.obj
 0003:000019ac       ??_C@_0CA@INGG@2valueChanged?5?$CI?5const?5QDate?5?$CG?5?$CJ?$AA@ 100579ac     bncs_log_editimpl.obj
 0003:000019cc       ??_C@_0CJ@MMJO@1valueChangedDateBefore?$CI?5const?5Q@ 100579cc     bncs_log_editimpl.obj
 0003:000019f8       ??_C@_0BA@PKA@2clicked?$CI?5int?5?$CJ?$AA@ 100579f8     bncs_log_editimpl.obj
 0003:00001a08       ??_C@_0BN@JHJG@1dateTimeGroupClicked?$CI?5int?5?$CJ?$AA@ 10057a08     bncs_log_editimpl.obj
 0003:00001a28       ??_C@_0CK@JOOO@1dbDriver_reserveChanged?$CIconst?5Q@ 10057a28     bncs_log_editimpl.obj
 0003:00001a54       ??_C@_0BO@BLCI@2textChanged?$CIconst?5QString?5?$CG?$CJ?$AA@ 10057a54     bncs_log_editimpl.obj
 0003:00001a74       ??_C@_0CC@LNH@1dbDriverChanged?$CIconst?5QString?5?$CG@ 10057a74     bncs_log_editimpl.obj
 0003:00001a98       ??_C@_08DACG@bncs_log?$AA@ 10057a98     bncs_log_editimpl.obj
 0003:00001aa4       ??_C@_0CF@NNDG@bncs_log_getData?3?3bncs_log_getDa@ 10057aa4     bncs_log_getData.obj
 0003:00001acc       ??_C@_0CG@PEAA@bncs_log_getData?3?3?$HObncs_log_getD@ 10057acc     bncs_log_getData.obj
 0003:00001af4       ??_C@_0CM@BMKA@bncs_log_getData?3?3run?$CI?$CJ?5END?5read@ 10057af4     bncs_log_getData.obj
 0003:00001b20       ??_C@_08KKBH@No?5error?$AA@ 10057b20     bncs_log_getData.obj
 0003:00001b2c       ??_C@_0CP@OKOH@bncs_log?3?3getLogData?$CI?$CJ?5?9?5There?5i@ 10057b2c     bncs_log_getData.obj
 0003:00001b5c       ??_C@_0CJ@DAJP@bncs_log_getData?3?3run?$CI?$CJ?5running?5@ 10057b5c     bncs_log_getData.obj
 0003:00001b88       ??_C@_0BI@HDGJ@bncs_log_getData?3?3run?$CI?$CJ?$AA@ 10057b88     bncs_log_getData.obj
 0003:00001ba0       ??_C@_0CO@PAE@bncs_log_getData?3?3newQuery?$CIQStri@ 10057ba0     bncs_log_getData.obj
 0003:00001bd0       ??_C@_0EP@LBNE@bncs_log_getData?3?3newQuery?$CIQStri@ 10057bd0     bncs_log_getData.obj
 0003:00001c20       ??_C@_0CK@MPKJ@bncs_log_getData?3?3newQuery?$CIQStri@ 10057c20     bncs_log_getData.obj
 0003:00001c4c       ??_C@_05JHKE@?$CFs?$CFs?6?$AA@ 10057c4c     bncs_log_queue.obj
 0003:00001c54       ??_C@_06GHO@PFD?5?9?5?$AA@ 10057c54     bncs_log_queue.obj
 0003:00001c5c       ??_C@_0BN@CIMG@log?5queue?5constructor?5called?$AA@ 10057c5c     bncs_log_queue.obj
 0003:00001c7c       ??_C@_0BO@JJMK@log?5queue?5destructor?5finished?$AA@ 10057c7c     bncs_log_queue.obj
 0003:00001c9c       ??_C@_0BM@NL@log?5queue?5destructor?5called?$AA@ 10057c9c     bncs_log_queue.obj
 0003:00001cb8       ??_C@_0P@OFCL@Got?5a?5NULL?5ref?$AA@ 10057cb8     bncs_log_queue.obj
 0003:00001cc8       ??_C@_0CE@DDON@GetNextRevertive?$CI?$CJ?3?5List?5count?5z@ 10057cc8     bncs_log_queue.obj
 0003:00001cec       ??_C@_0EA@GPII@GetNextRevertive?$CI?$CJ?3?5Failed?5to?5ta@ 10057cec     bncs_log_queue.obj
 0003:00001d2c       ??_C@_0CO@LJIM@GetNextRevertive?$CI?$CJ?3?5NULL?5pointer@ 10057d2c     bncs_log_queue.obj
 0003:00001d5c       ??_C@_0CJ@GDLL@Fire?5event?3?5revertive?5NULL?5?9?5aba@ 10057d5c     bncs_log_queue.obj
 0003:00001d88       ??_C@_0CJ@COKA@Thread?5already?5started?5by?5previo@ 10057d88     bncs_log_queue.obj
 0003:00001db4       ??_C@_0BP@KNEF@Thread?5started?5from?5a?5queue?5ok?$AA@ 10057db4     bncs_log_queue.obj
 0003:00001dd4       ??_C@_0CG@FADK@log?5queue?5thread?5termination?5com@ 10057dd4     bncs_log_queue.obj
 0003:00001dfc       ??_C@_0CB@DPJF@waiting?5on?5log?5queue?5termination@ 10057dfc     bncs_log_queue.obj
 0003:00001e20       ??_C@_0BN@MOCH@log?5queue?5thread?5is?5stopping?$AA@ 10057e20     bncs_log_queue.obj
 0003:00001e40       ??_C@_0BG@MAGL@All?5revertives?5fired?4?$AA@ 10057e40     bncs_log_queue.obj
 0003:00001e58       ??_C@_0CI@LBIK@Transferred?5?$CFd?5revertives?5for?5qu@ 10057e58     bncs_log_queue.obj
 0003:00001e80       ??_C@_0BP@GKKP@log?5queue?5thread?5is?5exiting?4?4?4?$AA@ 10057e80     bncs_log_queue.obj
 0003:00001ea4       ??_C@_01FNLH@a?$AA@        10057ea4     except.obj
 0003:00001ea8       ??_C@_09GIAM@?$CFs?1?$CFs?4log?$AA@ 10057ea8     except.obj
 0003:00001eb4       ??_C@_0P@HECP@?$CF04d_?$CF02d_?$CF02d?$AA@ 10057eb4     except.obj
 0003:00001ec4       ??_C@_07BEPK@?1alarms?$AA@ 10057ec4     except.obj
 0003:00001ecc       ??_C@_05HCIF@?1logs?$AA@   10057ecc     except.obj
 0003:00001ed4       ??_C@_01FDLN@?1?$AA@       10057ed4     except.obj
 0003:00001ed8       ??_C@_09NGBF@cc_system?$AA@ 10057ed8     except.obj
 0003:00001ee4       ??_C@_07FLEN@cc_root?$AA@  10057ee4     except.obj
 0003:00001eec       ??_C@_04BMBN@?$CF1?$CF2?$AA@ 10057eec     help.obj
 0003:00001ef4       ??_C@_05DACA@?4html?$AA@   10057ef4     help.obj
 0003:00001efc       ??_C@_0DF@OABH@windows?2lib?2qt_plugins?2designer?2@ 10057efc     help.obj
 0003:00001f34       ??_C@_06FHOB@?$CF1?2?$CF2?2?$AA@ 10057f34     help.obj
 0003:00001f3c       ??_C@_07FCNI@CC_ROOT?$AA@  10057f3c     help.obj
 0003:00001f44       ??_C@_09EFEJ@CC_SYSTEM?$AA@ 10057f44     help.obj
 0003:00001f50       ??_C@_0L@OHDJ@yyyy?9MM?9dd?$AA@ 10057f50     logFilter.obj
 0003:00001f5c       ??_C@_0BE@IODD@yyyy?9MM?9dd?5hh?3mm?3ss?$AA@ 10057f5c     logFilter.obj
 0003:00001f70       ??_C@_0BI@NIHI@yyyy?9MM?9dd?5hh?3mm?3ss?4zzz?$AA@ 10057f70     logFilter.obj
 0003:00001f88       ??_C@_08GPOP@DateTime?$AA@ 10057f88     logFilter.obj
 0003:00001f94       ??_C@_04OMLL@Date?$AA@     10057f94     logFilter.obj
 0003:00001f9c       ??_C@_01PJCK@?4?$AA@       10057f9c     logFilter.obj
 0003:00001fa0       ??_C@_09GJFA@Processes?$AA@ 10057fa0     logFilter.obj
 0003:00001fac       ??_C@_06KJIP@Groups?$AA@   10057fac     logFilter.obj
 0003:00001fb4       ??_C@_07JNDI@Devices?$AA@  10057fb4     logFilter.obj
 0003:00001fbc       ??_C@_08OCPE@subtract?$AA@ 10057fbc     logFilter.obj
 0003:00001fc8       ??_C@_03ONEI@add?$AA@      10057fc8     logFilter.obj
 0003:00001fcc       ??_C@_03NHNF@set?$AA@      10057fcc     logFilter.obj
 0003:00001fd0       ??_C@_02GDLA@?$DL?5?$AA@   10057fd0     logFilter.obj
 0003:00001fd4       ??_C@_04NFFE@?$CB?$DN?8?8?$AA@ 10057fd4     logFilter.obj
 0003:00001fdc       ??_C@_01KMMP@?$CJ?$AA@     10057fdc     logFilter.obj
 0003:00001fe0       ??_C@_07LFDF@?5LIKE?5?8?$AA@ 10057fe0     logFilter.obj
 0003:00001fe8       ??_C@_02EBKK@?$DN?8?$AA@   10057fe8     logFilter.obj
 0003:00001fec       ??_C@_01NON@_?$AA@         10057fec     logFilter.obj
 0003:00001ff0       ??_C@_01FCCL@?$CF?$AA@     10057ff0     logFilter.obj
 0003:00001ff4       ??_C@_04LOIF@?5OR?5?$AA@   10057ff4     logFilter.obj
 0003:00001ffc       ??_C@_01GFI@?$CI?$AA@      10057ffc     logFilter.obj
 0003:00002000       ??_C@_05COPK@?5AND?5?$AA@  10058000     logFilter.obj
 0003:00002008       ??_C@_06ICCC@WHERE?5?$AA@  10058008     logFilter.obj
 0003:00002010       ??_C@_0N@HEME@current_text?$AA@ 10058010     logFilter.obj
 0003:00002020       ??_C@_04LHJL@text?$AA@     10058020     logFilter.obj
 0003:00002028       ??_C@_0L@DND@process_id?$AA@ 10058028     logFilter.obj
 0003:00002034       ??_C@_09EMLK@usergroup?$AA@ 10058034     logFilter.obj
 0003:00002040       ??_C@_0M@LDC@device_name?$AA@ 10058040     logFilter.obj
 0003:0000204c       ??_C@_07PCHH@Unknown?$AA@  1005804c     logFilter.obj
 0003:00002054       ??_C@_07FHA@Latched?$AA@   10058054     logFilter.obj
 0003:0000205c       ??_C@_06BAFM@Ignore?$AA@   1005805c     logFilter.obj
 0003:00002064       ??_C@_03MPJF@Ack?$AA@      10058064     logFilter.obj
 0003:00002068       ??_C@_08NEPM@ForceOff?$AA@ 10058068     logFilter.obj
 0003:00002074       ??_C@_03KLCE@Off?$AA@      10058074     logFilter.obj
 0003:00002078       ??_C@_07PKNE@ForceOn?$AA@  10058078     logFilter.obj
 0003:00002080       ??_C@_02CCEO@On?$AA@       10058080     logFilter.obj
 0003:00002084       ??_C@_03EOHB@All?$AA@      10058084     logFilter.obj
 0003:00002088       ??_C@_04LEHP@?$DN?999?$AA@ 10058088     logFilter.obj
 0003:00002090       ??_C@_01KPOD@?$DN?$AA@     10058090     logFilter.obj
 0003:00002094       ??_C@_0O@GCNP@current_state?$AA@ 10058094     logFilter.obj
 0003:000020a4       ??_C@_0M@ILAF@Major?4Alarm?$AA@ 100580a4     logFilter.obj
 0003:000020b0       ??_C@_0M@PMDH@Minor?4Alarm?$AA@ 100580b0     logFilter.obj
 0003:000020bc       ??_C@_0O@NJAN@Major?4Warning?$AA@ 100580bc     logFilter.obj
 0003:000020cc       ??_C@_0O@BMGG@Minor?4Warning?$AA@ 100580cc     logFilter.obj
 0003:000020dc       ??_C@_04BOIP@Info?$AA@     100580dc     logFilter.obj
 0003:000020e4       ??_C@_02LNPE@?$DN5?$AA@    100580e4     logFilter.obj
 0003:000020e8       ??_C@_02BHGD@?$DN4?$AA@    100580e8     logFilter.obj
 0003:000020ec       ??_C@_02ECIG@?$DN3?$AA@    100580ec     logFilter.obj
 0003:000020f0       ??_C@_02OIBB@?$DN2?$AA@    100580f0     logFilter.obj
 0003:000020f4       ??_C@_02BHKI@?$DN1?$AA@    100580f4     logFilter.obj
 0003:000020f8       ??_C@_0O@GMAO@current_level?$AA@ 100580f8     logFilter.obj
 0003:00002108       ??_C@_09MMPK@Exclusive?$AA@ 10058108     logFilter.obj
 0003:00002114       ??_C@_09OFJF@Inclusive?$AA@ 10058114     logFilter.obj
 0003:00002120       ??_C@_0BF@OMOE@DateTime?4CompareMode?$AA@ 10058120     logFilter.obj
 0003:00002138       ??_C@_0BB@GIFL@Date?4CompareMode?$AA@ 10058138     logFilter.obj
 0003:0000214c       ??_C@_0BB@MHHP@DateTime?4Between?$AA@ 1005814c     logFilter.obj
 0003:00002160       ??_C@_0N@HBHJ@Date?4Between?$AA@ 10058160     logFilter.obj
 0003:00002170       ??_C@_0O@JKKH@Date?4DaysBack?$AA@ 10058170     logFilter.obj
 0003:00002180       ??_C@_0P@CIJF@DateTime?4After?$AA@ 10058180     logFilter.obj
 0003:00002190       ??_C@_0L@ODLP@Date?4After?$AA@ 10058190     logFilter.obj
 0003:0000219c       ??_C@_0BA@DAFB@DateTime?4Before?$AA@ 1005819c     logFilter.obj
 0003:000021ac       ??_C@_0M@DGJK@Date?4Before?$AA@ 100581ac     logFilter.obj
 0003:000021b8       ??_C@_02PPOG@?$DM?$DN?$AA@ 100581b8     logFilter.obj
 0003:000021bc       ??_C@_02NCLD@?$DO?$DN?$AA@ 100581bc     logFilter.obj
 0003:000021c0       ??_C@_0BC@BNOM@?8?$CJ?5AND?5?$CIdate_time?$AA@ 100581c0     logFilter.obj
 0003:000021d4       ??_C@_0L@JDK@?$CIdate_time?$AA@ 100581d4     logFilter.obj
 0003:000021e0       ??_C@_09IPGB@date_time?$AA@ 100581e0     logFilter.obj
 0003:000021ec       ??_C@_02BIMI@?8?$CJ?$AA@   100581ec     logFilter.obj
 0003:000021f0       ??_C@_0BI@NAOP@?8?$CJ?5AND?5?$CIDATE?$CIdate_time?$CJ?$AA@ 100581f0     logFilter.obj
 0003:00002208       ??_C@_0BB@DHOI@?$CIDATE?$CIdate_time?$CJ?$AA@ 10058208     logFilter.obj
 0003:0000221c       ??_C@_0BA@BKJ@DATE?$CIdate_time?$CJ?$AA@ 1005821c     logFilter.obj
 0003:0000222c       ??_C@_01PKMN@?$DP?$AA@     1005822c     logFilter.obj
 0003:00002230       ??_C@_01FDHG@?$CK?$AA@     10058230     logFilter.obj
 0003:00002234       ??_C@_0BH@IEGB@Filter?4Level?4All?$DNfalse?$AA@ 10058234     logFilter.obj
 0003:0000224c       ??_C@_0BM@HOHF@Filter?4DateTime?4CompareMode?$AA@ 1005824c     logFilter.obj
 0003:00002268       ??_C@_0M@KELJ@?$DNInclusive?6?$AA@ 10058268     logFilter.obj
 0003:00002274       ??_C@_0BI@KOLB@Filter?4Date?4CompareMode?$AA@ 10058274     logFilter.obj
 0003:0000228c       ??_C@_0BH@POCM@Filter?4State?4All?$DNfalse?$AA@ 1005828c     logFilter.obj
 0003:000022a4       ??_C@_0N@HHDM@Filter?4Text?$DN?$AA@ 100582a4     logFilter.obj
 0003:000022b4       ??_C@_0M@NPEG@Filter?4Text?$AA@ 100582b4     logFilter.obj
 0003:000022c0       ??_C@_0BC@FIJJ@Filter?4Processes?$DN?$AA@ 100582c0     logFilter.obj
 0003:000022d4       ??_C@_0BB@HKFC@Filter?4Processes?$AA@ 100582d4     logFilter.obj
 0003:000022e8       ??_C@_0P@HALJ@Filter?4Groups?$DN?$AA@ 100582e8     logFilter.obj
 0003:000022f8       ??_C@_0O@FKKL@Filter?4Groups?$AA@ 100582f8     logFilter.obj
 0003:00002308       ??_C@_0BA@FANP@Filter?4Devices?$DN?$AA@ 10058308     logFilter.obj
 0003:00002318       ??_C@_0P@DMML@Filter?4Devices?$AA@ 10058318     logFilter.obj
 0003:00002328       ??_C@_0BF@LKDL@Filter?4State?4Unknown?$AA@ 10058328     logFilter.obj
 0003:00002340       ??_C@_0BF@ENDM@Filter?4State?4Latched?$AA@ 10058340     logFilter.obj
 0003:00002358       ??_C@_0BE@FMBH@Filter?4State?4Ignore?$AA@ 10058358     logFilter.obj
 0003:0000236c       ??_C@_0BB@HLFE@Filter?4State?4Ack?$AA@ 1005836c     logFilter.obj
 0003:00002380       ??_C@_0BG@GMLE@Filter?4State?4ForceOff?$AA@ 10058380     logFilter.obj
 0003:00002398       ??_C@_0BB@BPOF@Filter?4State?4Off?$AA@ 10058398     logFilter.obj
 0003:000023ac       ??_C@_0BF@LCJI@Filter?4State?4ForceOn?$AA@ 100583ac     logFilter.obj
 0003:000023c4       ??_C@_0BA@ODFJ@Filter?4State?4On?$AA@ 100583c4     logFilter.obj
 0003:000023d4       ??_C@_0BC@HHBJ@Filter?4State?4All?$DN?$AA@ 100583d4     logFilter.obj
 0003:000023e8       ??_C@_0BB@PKLA@Filter?4State?4All?$AA@ 100583e8     logFilter.obj
 0003:000023fc       ??_C@_0BJ@DEND@Filter?4Level?4Major?4Alarm?$AA@ 100583fc     logFilter.obj
 0003:00002418       ??_C@_0BJ@EDOB@Filter?4Level?4Minor?4Alarm?$AA@ 10058418     logFilter.obj
 0003:00002434       ??_C@_0BL@HGDE@Filter?4Level?4Major?4Warning?$AA@ 10058434     logFilter.obj
 0003:00002450       ??_C@_0BL@LDFP@Filter?4Level?4Minor?4Warning?$AA@ 10058450     logFilter.obj
 0003:0000246c       ??_C@_0BC@HGMG@Filter?4Level?4Info?$AA@ 1005846c     logFilter.obj
 0003:00002480       ??_C@_0BC@DJOE@Filter?4Level?4All?$DN?$AA@ 10058480     logFilter.obj
 0003:00002494       ??_C@_0BB@HFD@Filter?4Level?4All?$AA@ 10058494     logFilter.obj
 0003:000024a8       ??_C@_0L@GEO@?$DNExclusive?$AA@ 100584a8     logFilter.obj
 0003:000024b4       ??_C@_0L@CPCB@?$DNInclusive?$AA@ 100584b4     logFilter.obj
 0003:000024c0       ??_C@_0BF@PFFP@Filter?4Date?4DaysBack?$AA@ 100584c0     logFilter.obj
 0003:000024d8       ??_C@_0BI@BJF@Filter?4DateTime?4Between?$AA@ 100584d8     logFilter.obj
 0003:000024f0       ??_C@_0BG@HAPK@Filter?4DateTime?4After?$AA@ 100584f0     logFilter.obj
 0003:00002508       ??_C@_0BH@NKAJ@Filter?4DateTime?4Before?$AA@ 10058508     logFilter.obj
 0003:00002520       ??_C@_0BE@IJPP@Filter?4Date?4Between?$AA@ 10058520     logFilter.obj
 0003:00002534       ??_C@_0BC@BHKM@Filter?4Date?4After?$AA@ 10058534     logFilter.obj
 0003:00002548       ??_C@_0BD@LAGO@Filter?4Date?4Before?$AA@ 10058548     logFilter.obj
 0003:0000255c       ??_C@_02MIFF@?$CF1?$AA@    1005855c     logLbi.obj
 0003:00002560       ??_C@_05GFMA@?4?$CF03d?$AA@ 10058560     logLbi.obj
 0003:00002568       ??_C@_0P@LBDF@yyyyMMddhhmmss?$AA@ 10058568     logLbi.obj
 0003:00002578       ??_C@_02IBHF@id?$AA@       10058578     logLbi.obj
 0003:0000257c       ??_C@_02ELCB@no?$AA@       1005857c     logLbi.obj
 0003:00002580       ??_C@_09COFM@composite?$AA@ 10058580     logLbi.obj
 0003:0000258c       ??_C@_08IHDL@instance?$AA@ 1005858c     logLbi.obj
 0003:00002598       ??_C@_09MMGO@instances?$AA@ 10058598     logLbi.obj
 0003:000025a4       ??_C@_0BG@BLGI@?1config?1instances?4xml?$AA@ 100585a4     logLbi.obj
 0003:000025bc       ??_C@_04EIOF@Ack?4?$AA@    100585bc     logLbi.obj
 0003:000025c4       ??_C@_0L@JOED@Force?5Fail?$AA@ 100585c4     logLbi.obj
 0003:000025d0       ??_C@_08ENGI@Force?5OK?$AA@ 100585d0     logLbi.obj
 0003:000025dc       ??_C@_04MLMN@Fail?$AA@     100585dc     logLbi.obj
 0003:000025e4       ??_C@_02HAGF@OK?$AA@       100585e4     logLbi.obj
 0003:000025e8       ??_C@_0M@FLME@Major?5Alarm?$AA@ 100585e8     logLbi.obj
 0003:000025f4       ??_C@_0M@CMPG@Minor?5Alarm?$AA@ 100585f4     logLbi.obj
 0003:00002600       ??_C@_0O@CIJO@Major?5Warning?$AA@ 10058600     logLbi.obj
 0003:00002610       ??_C@_0O@ONPF@Minor?5Warning?$AA@ 10058610     logLbi.obj
 0003:00002620       ??_C@_0M@LKAF@Information?$AA@ 10058620     logLbi.obj
 0003:0000262c       ??_C@_0BJ@JAGN@ddd?5MMM?5d?5yyyy?5?5hh?3mm?3ss?$AA@ 1005862c     logLbi.obj
 0003:00002648       ??_C@_07BGNF@?$CD808000?$AA@ 10058648     logLbiColour.obj
 0003:00002650       ??_C@_06FPOM@orange?$AA@   10058650     logLbiColour.obj
 0003:00002658       ??_C@_03CMLD@red?$AA@      10058658     logLbiColour.obj
 0003:0000265c       ??_C@_05DOGI@green?$AA@    1005865c     logLbiColour.obj
 0003:00002664       ??_C@_07BOAB@darkRed?$AA@  10058664     logLbiColour.obj
 0003:0000266c       ??_C@_09KCPE@darkGreen?$AA@ 1005866c     logLbiColour.obj
 0003:00002678       ??_C@_08BDFB@darkGray?$AA@ 10058678     logLbiColour.obj
 0003:00002684       ??_C@_04GBIP@fail?$AA@     10058684     logLbiColour.obj
 0003:0000268c       ??_C@_05KEJO@major?$AA@    1005868c     logLbiColour.obj
 0003:00002694       ??_C@_05OCPF@alarm?$AA@    10058694     logLbiColour.obj
 0003:0000269c       ??_C@_07EANM@warning?$AA@  1005869c     logLbiColour.obj
 0003:000026a4       ??_C@_05MGFE@minor?$AA@    100586a4     logLbiColour.obj
 0003:000026ac       ??_C@_02PHNH@ok?$AA@       100586ac     logLbiColour.obj
 0003:000026b0       ??_C@_05DNMD@other?$AA@    100586b0     logLbiColour.obj
 0003:000026b8       ??_C@_0L@OBMO@background?$AA@ 100586b8     logLbiColour.obj
 0003:000026c4       ??_C@_04LEMN@info?$AA@     100586c4     logLbiColour.obj
 0003:0000274c       ??_C@_0EO@MOAO@pattern?$DNQT_UCM_VERIFICATION_DATA@ 1005874c     plugin.obj
 0003:0000279c       ??_C@_0BH@BHFF@OO?4?4?4?4?4?4?4?4?4?4?4?4?4?4?4?4?4?4OO?$AA@ 1005879c     plugin.obj
 0003:000027b4       ??_C@_0BH@LDFD@OX?5?5?5?5?5?5?5?5?5?5?5?5OO?5OO?5?5O?$AA@ 100587b4     plugin.obj
 0003:000027cc       ??_C@_0BH@JBEK@OX?5?5oooo?5oooo?5?5?5O?5?5?5?5O?$AA@ 100587cc     plugin.obj
 0003:000027e4       ??_C@_0BH@NGPJ@OX?5oo?5oo?5oo?5oo?5?5O?5?5?5?5O?$AA@ 100587e4     plugin.obj
 0003:000027fc       ??_C@_0BH@DMNJ@OX?5?5oooo?5oo?5oo?5?5O?5?5?5?5O?$AA@ 100587fc     plugin.obj
 0003:00002814       ??_C@_0BH@OCCH@OX?5?5?5?5oo?5oo?5oo?5?5O?5?5?5?5O?$AA@ 10058814     plugin.obj
 0003:0000282c       ??_C@_0BH@GBDN@OX?5?5ooo?5?5oooo?5?5?5O?5?5?5?5O?$AA@ 1005882c     plugin.obj
 0003:00002844       ??_C@_0BH@DCIC@OX?4?5?5?5?5?5?5oo?5?5?5?5?5O?5?5?5?4O?$AA@ 10058844     plugin.obj
 0003:0000285c       ??_C@_0BH@PACJ@OX?4?5?5?5?5?5?5oo?5?5?5?5?5O?5?5?5?5O?$AA@ 1005885c     plugin.obj
 0003:00002874       ??_C@_0BH@OHNG@OXX?4?5?5?5?5?5?5?5?5?5?5OO?5OO?5?5O?$AA@ 10058874     plugin.obj
 0003:0000288c       ??_C@_0BH@PJOO@OOXXXXXXXXXXXXXXXXXXOO?$AA@ 1005888c     plugin.obj
 0003:000028a4       ??_C@_0BH@FFFJ@?$CLOOOOOOOOOOOOOOOOOOOO?$CL?$AA@ 100588a4     plugin.obj
 0003:000028bc       ??_C@_0BH@IJIB@?$CL?$CL?$CL?$CL?$CL?$CL?$CL?$CL?$CL?$CL?$CL?$CL?$CL?$CL?$CL?$CL?$CL?$CL?$CL?$CL?$CL?$CL?$AA@ 100588bc     plugin.obj
 0003:000028d4       ??_C@_09OKNM@?$CD?5c?5Gray0?$AA@ 100588d4     plugin.obj
 0003:000028e0       ??_C@_09HHAK@?$EA?5c?5Gray0?$AA@ 100588e0     plugin.obj
 0003:000028ec       ??_C@_08IAIB@?$CL?5c?5none?$AA@ 100588ec     plugin.obj
 0003:000028f8       ??_C@_09CKLD@O?5c?5Gray0?$AA@ 100588f8     plugin.obj
 0003:00002904       ??_C@_0M@FAEH@o?5c?5?$CD00007f?$AA@ 10058904     plugin.obj
 0003:00002910       ??_C@_0M@CKFH@X?5c?5?$CD4f504f?$AA@ 10058910     plugin.obj
 0003:0000291c       ??_C@_0L@GJLI@?4?5c?5Gray97?$AA@ 1005891c     plugin.obj
 0003:00002928       ??_C@_0M@IMEH@?5?5c?5Gray100?$AA@ 10058928     plugin.obj
 0003:00002934       ??_C@_09HCCL@22?522?58?51?$AA@ 10058934     plugin.obj
 0003:00002940       ??_C@_0BA@LMKP@bncs_data_Table?$AA@ 10058940     plugin.obj
 0003:00002950       ??_C@_04IFBK@BNCS?$AA@     10058950     plugin.obj
 0003:00002958       ??_C@_0BB@IBKO@bncs_data_form?4h?$AA@ 10058958     plugin.obj
 0003:0000296c       ??_C@_0BC@IGGE@bncs_data_Table?4h?$AA@ 1005896c     plugin.obj
 0003:00002980       ??_C@_0L@HACB@bncs_log?4h?$AA@ 10058980     plugin.obj
 0003:0000298c       ??_C@_0BD@EIHD@BNCS?5database?5form?$AA@ 1005898c     plugin.obj
 0003:000029a0       ??_C@_0BE@MKAA@BNCS?5database?5table?$AA@ 100589a0     plugin.obj
 0003:000029b4       ??_C@_0BA@KBKH@BNCS?5Log?5Widget?$AA@ 100589b4     plugin.obj
 0003:000029c4       ??_C@_0CB@GBAJ@A?5widget?5to?5show?5a?5Database?5form@ 100589c4     plugin.obj
 0003:000029e8       ??_C@_0CC@CBCJ@A?5widget?5to?5show?5a?5Database?5tabl@ 100589e8     plugin.obj
 0003:00002a0c       ??_C@_0BO@GOKH@A?5widget?5to?5display?5BNCS?5logs?$AA@ 10058a0c     plugin.obj
 0003:00002a2c       ??_C@_09NEKG@1reject?$CI?$CJ?$AA@ 10058a2c     bncs_data_form_edit.obj
 0003:00002a38       ??_C@_09GLDH@1accept?$CI?$CJ?$AA@ 10058a38     bncs_data_form_edit.obj
 0003:00002a44       ??_C@_0N@BDAB@buttonCancel?$AA@ 10058a44     bncs_data_form_edit.obj
 0003:00002a54       ??_C@_08HMAP@buttonOk?$AA@ 10058a54     bncs_data_form_edit.obj
 0003:00002a60       ??_C@_0M@FCBC@button_help?$AA@ 10058a60     bncs_data_form_edit.obj
 0003:00002a6c       ??_C@_07JCKG@layout4?$AA@  10058a6c     bncs_data_form_edit.obj
 0003:00002a74       ??_C@_0BA@FOOI@buttonGetFields?$AA@ 10058a74     bncs_data_form_edit.obj
 0003:00002a84       ??_C@_09NPJN@buttonDel?$AA@ 10058a84     bncs_data_form_edit.obj
 0003:00002a90       ??_C@_09IHMD@buttonAdd?$AA@ 10058a90     bncs_data_form_edit.obj
 0003:00002a9c       ??_C@_06LKP@Button?$AA@    10058a9c     bncs_data_form_edit.obj
 0003:00002aa4       ??_C@_0L@MPCD@Field?5Name?$AA@ 10058aa4     bncs_data_form_edit.obj
 0003:00002ab0       ??_C@_0M@POPE@displayList?$AA@ 10058ab0     bncs_data_form_edit.obj
 0003:00002abc       ??_C@_09PBBG@groupBox2?$AA@ 10058abc     bncs_data_form_edit.obj
 0003:00002ac8       ??_C@_0M@MGOO@tabLayout_2?$AA@ 10058ac8     bncs_data_form_edit.obj
 0003:00002ad4       ??_C@_05INEK@tab_2?$AA@    10058ad4     bncs_data_form_edit.obj
 0003:00002adc       ??_C@_08GKNL@dbFilter?$AA@ 10058adc     bncs_data_form_edit.obj
 0003:00002ae8       ??_C@_0M@LJJL@groupBox7_2?$AA@ 10058ae8     bncs_data_form_edit.obj
 0003:00002af4       ??_C@_0BB@IKAN@password_reserve?$AA@ 10058af4     bncs_data_form_edit.obj
 0003:00002b08       ??_C@_0BB@CBNG@textLabel1_3_2_2?$AA@ 10058b08     bncs_data_form_edit.obj
 0003:00002b1c       ??_C@_0BB@HDMA@textLabel1_3_3_2?$AA@ 10058b1c     bncs_data_form_edit.obj
 0003:00002b30       ??_C@_0O@GLBN@table_reserve?$AA@ 10058b30     bncs_data_form_edit.obj
 0003:00002b40       ??_C@_0BB@OGF@username_reserve?$AA@ 10058b40     bncs_data_form_edit.obj
 0003:00002b54       ??_C@_0P@CLJO@textLabel1_3_4?$AA@ 10058b54     bncs_data_form_edit.obj
 0003:00002b64       ??_C@_0P@OEHP@driver_reserve?$AA@ 10058b64     bncs_data_form_edit.obj
 0003:00002b74       ??_C@_0BB@BBNI@hostName_reserve?$AA@ 10058b74     bncs_data_form_edit.obj
 0003:00002b88       ??_C@_0BB@KGKC@database_reserve?$AA@ 10058b88     bncs_data_form_edit.obj
 0003:00002b9c       ??_C@_0P@DIJL@textLabel1_5_2?$AA@ 10058b9c     bncs_data_form_edit.obj
 0003:00002bac       ??_C@_0N@LMFP@textLabel1_4?$AA@ 10058bac     bncs_data_form_edit.obj
 0003:00002bbc       ??_C@_0P@IGPK@textLabel1_2_2?$AA@ 10058bbc     bncs_data_form_edit.obj
 0003:00002bcc       ??_C@_0M@BDAM@groupBox7_3?$AA@ 10058bcc     bncs_data_form_edit.obj
 0003:00002bd8       ??_C@_08NPHI@password?$AA@ 10058bd8     bncs_data_form_edit.obj
 0003:00002be4       ??_C@_0P@NEOM@textLabel1_3_2?$AA@ 10058be4     bncs_data_form_edit.obj
 0003:00002bf4       ??_C@_0P@HOHL@textLabel1_3_3?$AA@ 10058bf4     bncs_data_form_edit.obj
 0003:00002c04       ??_C@_05FABL@table?$AA@    10058c04     bncs_data_form_edit.obj
 0003:00002c0c       ??_C@_08LGGE@username?$AA@ 10058c0c     bncs_data_form_edit.obj
 0003:00002c18       ??_C@_0N@OJLK@textLabel1_3?$AA@ 10058c18     bncs_data_form_edit.obj
 0003:00002c28       ??_C@_06GIC@driver?$AA@    10058c28     bncs_data_form_edit.obj
 0003:00002c30       ??_C@_08HHJD@hostName?$AA@ 10058c30     bncs_data_form_edit.obj
 0003:00002c3c       ??_C@_08PCJA@database?$AA@ 10058c3c     bncs_data_form_edit.obj
 0003:00002c48       ??_C@_0N@BGMI@textLabel1_5?$AA@ 10058c48     bncs_data_form_edit.obj
 0003:00002c58       ??_C@_0L@KEKH@textLabel1?$AA@ 10058c58     bncs_data_form_edit.obj
 0003:00002c64       ??_C@_0N@EDCN@textLabel1_2?$AA@ 10058c64     bncs_data_form_edit.obj
 0003:00002c74       ??_C@_09PBNN@groupBox7?$AA@ 10058c74     bncs_data_form_edit.obj
 0003:00002c80       ??_C@_07DIDB@layout5?$AA@  10058c80     bncs_data_form_edit.obj
 0003:00002c88       ??_C@_08HKHA@nameEdit?$AA@ 10058c88     bncs_data_form_edit.obj
 0003:00002c94       ??_C@_09PAIA@groupBox8?$AA@ 10058c94     bncs_data_form_edit.obj
 0003:00002ca0       ??_C@_07MHED@layout3?$AA@  10058ca0     bncs_data_form_edit.obj
 0003:00002ca8       ??_C@_09EEIM@tabLayout?$AA@ 10058ca8     bncs_data_form_edit.obj
 0003:00002cb4       ??_C@_03GFBM@tab?$AA@      10058cb4     bncs_data_form_edit.obj
 0003:00002cb8       ??_C@_0L@DCBA@tabWidget3?$AA@ 10058cb8     bncs_data_form_edit.obj
 0003:00002cc4       ??_C@_0BO@FBEN@bncs_data_form_editBaseLayout?$AA@ 10058cc4     bncs_data_form_edit.obj
 0003:00002ce4       ??_C@_0BI@HBCD@bncs_data_form_editBase?$AA@ 10058ce4     bncs_data_form_edit.obj
 0003:00002cfc       ??_C@_05EHKB@Alt?$CLC?$AA@ 10058cfc     bncs_data_form_edit.obj
 0003:00002d04       ??_C@_07EODH@?$CGCancel?$AA@ 10058d04     bncs_data_form_edit.obj
 0003:00002d0c       ??_C@_05LJEF@Alt?$CLO?$AA@ 10058d0c     bncs_data_form_edit.obj
 0003:00002d14       ??_C@_03NOMH@?$CGOK?$AA@   10058d14     bncs_data_form_edit.obj
 0003:00002d18       ??_C@_05OMKA@Alt?$CLH?$AA@ 10058d18     bncs_data_form_edit.obj
 0003:00002d20       ??_C@_05KJAK@?$CGHelp?$AA@ 10058d20     bncs_data_form_edit.obj
 0003:00002d28       ??_C@_0O@IBLN@Slave?5Buttons?$AA@ 10058d28     bncs_data_form_edit.obj
 0003:00002d38       ??_C@_0P@MKEG@Get?5all?5fields?$AA@ 10058d38     bncs_data_form_edit.obj
 0003:00002d48       ??_C@_06DHPE@Delete?$AA@   10058d48     bncs_data_form_edit.obj
 0003:00002d50       ??_C@_0O@JIGE@Field?5Chooser?$AA@ 10058d50     bncs_data_form_edit.obj
 0003:00002d60       ??_C@_07NDNK@General?$AA@  10058d60     bncs_data_form_edit.obj
 0003:00002d68       ??_C@_0BA@EKLA@Database?5FiIter?$AA@ 10058d68     bncs_data_form_edit.obj
 0003:00002d78       ??_C@_0BO@NMEF@Database?5Connection?5?9?5Reserve?$AA@ 10058d78     bncs_data_form_edit.obj
 0003:00002d98       ??_C@_09CGCO@User?5Name?$AA@ 10058d98     bncs_data_form_edit.obj
 0003:00002da4       ??_C@_06LCIG@Driver?$AA@   10058da4     bncs_data_form_edit.obj
 0003:00002dac       ??_C@_0BL@JCGN@Database?5Connection?5?9?5Main?$AA@ 10058dac     bncs_data_form_edit.obj
 0003:00002dc8       ??_C@_02GMH@ID?$AA@        10058dc8     bncs_data_form_edit.obj
 0003:00002dcc       ??_C@_0BK@JMM@Colledia?b?$IE?$KC?5Database?5Form?$AA@ 10058dcc     bncs_data_form_edit.obj
 0003:00002de8       ??_C@_08KJFO@layout14?$AA@ 10058de8     bncs_data_table_edit.obj
 0003:00002df4       ??_C@_08DEHK@readOnly?$AA@ 10058df4     bncs_data_table_edit.obj
 0003:00002e00       ??_C@_07GMEC@layout8?$AA@  10058e00     bncs_data_table_edit.obj
 0003:00002e08       ??_C@_07GNBP@layout7?$AA@  10058e08     bncs_data_table_edit.obj
 0003:00002e10       ??_C@_08DMJ@layout15?$AA@  10058e10     bncs_data_table_edit.obj
 0003:00002e1c       ??_C@_0BP@IHP@bncs_data_table_editBaseLayout?$AA@ 10058e1c     bncs_data_table_edit.obj
 0003:00002e3c       ??_C@_0BJ@JDEB@bncs_data_table_editBase?$AA@ 10058e3c     bncs_data_table_edit.obj
 0003:00002e58       ??_C@_09IMPE@Read?5Only?$AA@ 10058e58     bncs_data_table_edit.obj
 0003:00002e64       ??_C@_0BE@HHK@Database?5Connection?$AA@ 10058e64     bncs_data_table_edit.obj
 0003:00002e78       ??_C@_0BM@JNHE@Colledia?b?$IE?$KC?5Database?5Table?5?$AA@ 10058e78     bncs_data_table_edit.obj
 0003:00002e94       ??_C@_0BD@EJPP@1setDisabled?$CIbool?$CJ?$AA@ 10058e94     bncs_log_edit.obj
 0003:00002ea8       ??_C@_0P@MHAE@2toggled?$CIbool?$CJ?$AA@ 10058ea8     bncs_log_edit.obj
 0003:00002eb8       ??_C@_08DAC@layout10?$AA@  10058eb8     bncs_log_edit.obj
 0003:00002ec4       ??_C@_0BB@GBPC@filterLevelMajAl?$AA@ 10058ec4     bncs_log_edit.obj
 0003:00002ed8       ??_C@_0BB@DDI@filterLevelMinAl?$AA@ 10058ed8     bncs_log_edit.obj
 0003:00002eec       ??_C@_0BD@HHOF@filterLevelMajWarn?$AA@ 10058eec     bncs_log_edit.obj
 0003:00002f00       ??_C@_0BD@FKHB@filterLevelMinWarn?$AA@ 10058f00     bncs_log_edit.obj
 0003:00002f14       ??_C@_0BA@JLMO@filterLevelInfo?$AA@ 10058f14     bncs_log_edit.obj
 0003:00002f24       ??_C@_0P@PAE@filterLevelAll?$AA@ 10058f24     bncs_log_edit.obj
 0003:00002f34       ??_C@_0BE@GCFL@m_pqRadioDateBefore?$AA@ 10058f34     bncs_log_edit.obj
 0003:00002f48       ??_C@_0BD@CCJC@m_pqRadioDateAfter?$AA@ 10058f48     bncs_log_edit.obj
 0003:00002f5c       ??_C@_0BF@FCN@m_pqRadioDateBetween?$AA@ 10058f5c     bncs_log_edit.obj
 0003:00002f74       ??_C@_0L@OPL@textLabel5?$AA@ 10058f74     bncs_log_edit.obj
 0003:00002f80       ??_C@_0N@PNEM@textLabel6_2?$AA@ 10058f80     bncs_log_edit.obj
 0003:00002f90       ??_C@_0N@OHAA@textLabel3_2?$AA@ 10058f90     bncs_log_edit.obj
 0003:00002fa0       ??_C@_0BF@EHBI@m_pqDateBetweenStart?$AA@ 10058fa0     bncs_log_edit.obj
 0003:00002fb8       ??_C@_0BD@KFDL@m_pqDateBetweenEnd?$AA@ 10058fb8     bncs_log_edit.obj
 0003:00002fcc       ??_C@_0BJ@IEGG@m_pqRadioDateTimeBetween?$AA@ 10058fcc     bncs_log_edit.obj
 0003:00002fe8       ??_C@_0L@KEGM@textLabel4?$AA@ 10058fe8     bncs_log_edit.obj
 0003:00002ff4       ??_C@_0BH@CIDD@m_pqRadioDateTimeAfter?$AA@ 10058ff4     bncs_log_edit.obj
 0003:0000300c       ??_C@_0BI@CJFB@m_pqRadioDateTimeBefore?$AA@ 1005900c     bncs_log_edit.obj
 0003:00003024       ??_C@_0BJ@NPIK@m_pqDateTimeBetweenStart?$AA@ 10059024     bncs_log_edit.obj
 0003:00003040       ??_C@_0BD@HCEI@m_pqDateTimeBefore?$AA@ 10059040     bncs_log_edit.obj
 0003:00003054       ??_C@_0BH@BJJF@m_pqDateTimeBetweenEnd?$AA@ 10059054     bncs_log_edit.obj
 0003:0000306c       ??_C@_0BC@DBJJ@m_pqDateTimeAfter?$AA@ 1005906c     bncs_log_edit.obj
 0003:00003080       ??_C@_0BG@END@m_pqRadioDateDaysBack?$AA@ 10059080     bncs_log_edit.obj
 0003:00003098       ??_C@_0BB@FFCO@m_pqSpinDaysBack?$AA@ 10059098     bncs_log_edit.obj
 0003:000030ac       ??_C@_0BL@BJPM@m_pqRadioDateTimeExclusive?$AA@ 100590ac     bncs_log_edit.obj
 0003:000030c8       ??_C@_0BL@DAJD@m_pqRadioDateTimeInclusive?$AA@ 100590c8     bncs_log_edit.obj
 0003:000030e4       ??_C@_0BN@GKLN@m_pqGroupDateTimeCompareMode?$AA@ 100590e4     bncs_log_edit.obj
 0003:00003104       ??_C@_0O@PKGC@m_pqDateAfter?$AA@ 10059104     bncs_log_edit.obj
 0003:00003114       ??_C@_0P@BEID@m_pqDateBefore?$AA@ 10059114     bncs_log_edit.obj
 0003:00003124       ??_C@_0BB@CFAA@m_pqRadioDateAll?$AA@ 10059124     bncs_log_edit.obj
 0003:00003138       ??_C@_0BC@CLGK@m_pqGroupDateTime?$AA@ 10059138     bncs_log_edit.obj
 0003:0000314c       ??_C@_0BD@IBNE@filterStateUnknown?$AA@ 1005914c     bncs_log_edit.obj
 0003:00003160       ??_C@_0BD@HGND@filterStateLatched?$AA@ 10059160     bncs_log_edit.obj
 0003:00003174       ??_C@_0BC@LDMG@filterStateIgnore?$AA@ 10059174     bncs_log_edit.obj
 0003:00003188       ??_C@_0P@GNKL@filterStateAck?$AA@ 10059188     bncs_log_edit.obj
 0003:00003198       ??_C@_0BA@BKDK@filterStateFoff?$AA@ 10059198     bncs_log_edit.obj
 0003:000031a8       ??_C@_0P@JBK@filterStateOff?$AA@ 100591a8     bncs_log_edit.obj
 0003:000031b8       ??_C@_0P@DMPP@filterStateFon?$AA@ 100591b8     bncs_log_edit.obj
 0003:000031c8       ??_C@_0O@BMPG@filterStateOn?$AA@ 100591c8     bncs_log_edit.obj
 0003:000031d8       ??_C@_0P@OMEP@filterStateAll?$AA@ 100591d8     bncs_log_edit.obj
 0003:000031e8       ??_C@_08KJJF@layout11?$AA@ 100591e8     bncs_log_edit.obj
 0003:000031f4       ??_C@_0N@CMKE@filterDevice?$AA@ 100591f4     bncs_log_edit.obj
 0003:00003204       ??_C@_0O@NBOE@filterProcess?$AA@ 10059204     bncs_log_edit.obj
 0003:00003214       ??_C@_0L@CFCN@filterText?$AA@ 10059214     bncs_log_edit.obj
 0003:00003220       ??_C@_0L@PBIJ@textLabel3?$AA@ 10059220     bncs_log_edit.obj
 0003:0000322c       ??_C@_0L@PBEC@textLabel6?$AA@ 1005922c     bncs_log_edit.obj
 0003:00003238       ??_C@_0M@DAHB@filterGroup?$AA@ 10059238     bncs_log_edit.obj
 0003:00003244       ??_C@_0BF@BGNA@textLabel1_3_2_2_2_2?$AA@ 10059244     bncs_log_edit.obj
 0003:0000325c       ??_C@_0L@FLBO@textLabel2?$AA@ 1005925c     bncs_log_edit.obj
 0003:00003268       ??_C@_0L@KEJO@groupBox10?$AA@ 10059268     bncs_log_edit.obj
 0003:00003274       ??_C@_0BK@MIFL@m_pRadioScrollBarAlwaysOn?$AA@ 10059274     bncs_log_edit.obj
 0003:00003290       ??_C@_0BL@PEMO@m_pRadioScrollBarAlwaysOff?$AA@ 10059290     bncs_log_edit.obj
 0003:000032ac       ??_C@_0BG@ONIH@m_pRadioScrollBarAuto?$AA@ 100592ac     bncs_log_edit.obj
 0003:000032c4       ??_C@_0BC@FKOI@m_pGroupScrollBar?$AA@ 100592c4     bncs_log_edit.obj
 0003:000032d8       ??_C@_0N@HLDP@scrollAlways?$AA@ 100592d8     bncs_log_edit.obj
 0003:000032e8       ??_C@_0M@BLBD@scrollNever?$AA@ 100592e8     bncs_log_edit.obj
 0003:000032f4       ??_C@_0L@LAPP@scrollAuto?$AA@ 100592f4     bncs_log_edit.obj
 0003:00003300       ??_C@_0M@MJMN@scrollGroup?$AA@ 10059300     bncs_log_edit.obj
 0003:0000330c       ??_C@_0BH@DMIP@textLabel1_3_2_2_2_3_3?$AA@ 1005930c     bncs_log_edit.obj
 0003:00003324       ??_C@_09LPPE@minHeight?$AA@ 10059324     bncs_log_edit.obj
 0003:00003330       ??_C@_0BA@EOIG@groupBox8_2_2_2?$AA@ 10059330     bncs_log_edit.obj
 0003:00003340       ??_C@_0L@MOOK@statesheet?$AA@ 10059340     bncs_log_edit.obj
 0003:0000334c       ??_C@_0O@FLDJ@groupBox8_2_2?$AA@ 1005934c     bncs_log_edit.obj
 0003:0000335c       ??_C@_0M@JHEP@groupBox8_2?$AA@ 1005935c     bncs_log_edit.obj
 0003:00003368       ??_C@_09IDOI@layout8_2?$AA@ 10059368     bncs_log_edit.obj
 0003:00003374       ??_C@_0BD@DCMA@checkShowIfNoGroup?$AA@ 10059374     bncs_log_edit.obj
 0003:00003388       ??_C@_0L@KEFF@groupBox15?$AA@ 10059388     bncs_log_edit.obj
 0003:00003394       ??_C@_0N@BOID@notifyChange?$AA@ 10059394     bncs_log_edit.obj
 0003:000033a4       ??_C@_0M@GHGG@notifyPress?$AA@ 100593a4     bncs_log_edit.obj
 0003:000033b0       ??_C@_0P@GAAC@groupBox10_2_2?$AA@ 100593b0     bncs_log_edit.obj
 0003:000033c0       ??_C@_0P@DEDC@orderAscending?$AA@ 100593c0     bncs_log_edit.obj
 0003:000033d0       ??_C@_0L@LEEM@comboOrder?$AA@ 100593d0     bncs_log_edit.obj
 0003:000033dc       ??_C@_0N@EEOD@groupBox10_2?$AA@ 100593dc     bncs_log_edit.obj
 0003:000033ec       ??_C@_0L@PDFC@showActive?$AA@ 100593ec     bncs_log_edit.obj
 0003:000033f8       ??_C@_0BF@LMEH@textLabel1_3_2_2_2_3?$AA@ 100593f8     bncs_log_edit.obj
 0003:00003410       ??_C@_0L@NGHH@maxEntries?$AA@ 10059410     bncs_log_edit.obj
 0003:0000341c       ??_C@_0M@OLIN@groupBox6_2?$AA@ 1005941c     bncs_log_edit.obj
 0003:00003428       ??_C@_0N@MDEL@showLocation?$AA@ 10059428     bncs_log_edit.obj
 0003:00003438       ??_C@_0O@OKHA@widthLocation?$AA@ 10059438     bncs_log_edit.obj
 0003:00003448       ??_C@_09KKBH@showState?$AA@ 10059448     bncs_log_edit.obj
 0003:00003454       ??_C@_08LMHI@showText?$AA@ 10059454     bncs_log_edit.obj
 0003:00003460       ??_C@_0L@JMKA@showDevice?$AA@ 10059460     bncs_log_edit.obj
 0003:0000346c       ??_C@_0M@JKNJ@widthDevice?$AA@ 1005946c     bncs_log_edit.obj
 0003:00003478       ??_C@_0P@GKIN@textLabel1_4_2?$AA@ 10059478     bncs_log_edit.obj
 0003:00003488       ??_C@_0O@CGDF@widthDateTime?$AA@ 10059488     bncs_log_edit.obj
 0003:00003498       ??_C@_09KEMG@showLevel?$AA@ 10059498     bncs_log_edit.obj
 0003:000034a4       ??_C@_0L@NDBA@widthState?$AA@ 100594a4     bncs_log_edit.obj
 0003:000034b0       ??_C@_0L@NNMB@widthLevel?$AA@ 100594b0     bncs_log_edit.obj
 0003:000034bc       ??_C@_0L@MNKP@widthProcs?$AA@ 100594bc     bncs_log_edit.obj
 0003:000034c8       ??_C@_0L@ENOP@widthGroup?$AA@ 100594c8     bncs_log_edit.obj
 0003:000034d4       ??_C@_0M@KPFE@showProcess?$AA@ 100594d4     bncs_log_edit.obj
 0003:000034e0       ??_C@_09DEOI@showGroup?$AA@ 100594e0     bncs_log_edit.obj
 0003:000034ec       ??_C@_08EEOO@showMsec?$AA@ 100594ec     bncs_log_edit.obj
 0003:000034f8       ??_C@_0N@PAO@showDateTime?$AA@ 100594f8     bncs_log_edit.obj
 0003:00003508       ??_C@_09FLEK@groupBox6?$AA@ 10059508     bncs_log_edit.obj
 0003:00003514       ??_C@_0O@MCFA@Widget9Layout?$AA@ 10059514     bncs_log_edit.obj
 0003:00003524       ??_C@_07HPBM@Widget9?$AA@  10059524     bncs_log_edit.obj
 0003:0000352c       ??_C@_0L@NKBK@bncsDriver?$AA@ 1005952c     bncs_log_edit.obj
 0003:00003538       ??_C@_0N@DBJO@buttonGroup1?$AA@ 10059538     bncs_log_edit.obj
 0003:00003548       ??_C@_0N@OJHB@textLabel1_6?$AA@ 10059548     bncs_log_edit.obj
 0003:00003558       ??_C@_0BB@ILEB@textLabel1_3_2_3?$AA@ 10059558     bncs_log_edit.obj
 0003:0000356c       ??_C@_0BD@KLHC@m_pqGroupReserveDb?$AA@ 1005956c     bncs_log_edit.obj
 0003:00003580       ??_C@_0BJ@JOMJ@m_pqCheckEnableReserveDb?$AA@ 10059580     bncs_log_edit.obj
 0003:0000359c       ??_C@_0BA@NFLB@m_pqGroupMainDb?$AA@ 1005959c     bncs_log_edit.obj
 0003:000035ac       ??_C@_0BG@HIJK@m_pqCheckEnableMainDb?$AA@ 100595ac     bncs_log_edit.obj
 0003:000035c4       ??_C@_08FGOH@layout17?$AA@ 100595c4     bncs_log_edit.obj
 0003:000035d0       ??_C@_0BB@PCEN@textLabel2_2_2_2?$AA@ 100595d0     bncs_log_edit.obj
 0003:000035e4       ??_C@_07OEEJ@devForm?$AA@  100595e4     bncs_log_edit.obj
 0003:000035ec       ??_C@_08NIJM@navigate?$AA@ 100595ec     bncs_log_edit.obj
 0003:000035f8       ??_C@_0P@GGJF@textLabel2_2_2?$AA@ 100595f8     bncs_log_edit.obj
 0003:00003608       ??_C@_08PMHA@layout16?$AA@ 10059608     bncs_log_edit.obj
 0003:00003614       ??_C@_0O@OMMF@Widget8Layout?$AA@ 10059614     bncs_log_edit.obj
 0003:00003624       ??_C@_07NFIL@Widget8?$AA@  10059624     bncs_log_edit.obj
 0003:0000362c       ??_C@_09DJPC@tabWidget?$AA@ 1005962c     bncs_log_edit.obj
 0003:00003638       ??_C@_0BI@BJI@bncs_log_editBaseLayout?$AA@ 10059638     bncs_log_edit.obj
 0003:00003650       ??_C@_0BC@CEEC@bncs_log_editBase?$AA@ 10059650     bncs_log_edit.obj
 0003:00003664       ??_C@_0M@BLBK@Before?5Date?$AA@ 10059664     bncs_log_edit.obj
 0003:00003670       ??_C@_0L@CDIL@After?5Date?$AA@ 10059670     bncs_log_edit.obj
 0003:0000367c       ??_C@_0O@HOA@Between?5Dates?$AA@ 1005967c     bncs_log_edit.obj
 0003:0000368c       ??_C@_04GLLG@from?$AA@     1005968c     bncs_log_edit.obj
 0003:00003694       ??_C@_0BD@LDHM@Between?5Date?1Times?$AA@ 10059694     bncs_log_edit.obj
 0003:000036a8       ??_C@_02LJIJ@to?$AA@       100596a8     bncs_log_edit.obj
 0003:000036ac       ??_C@_0BA@JJBG@After?5Date?1Time?$AA@ 100596ac     bncs_log_edit.obj
 0003:000036bc       ??_C@_0BB@HINJ@Before?5Date?1Time?$AA@ 100596bc     bncs_log_edit.obj
 0003:000036d0       ??_C@_09LGOI@Days?5Back?$AA@ 100596d0     bncs_log_edit.obj
 0003:000036dc       ??_C@_0BB@NCGI@Exclusive?5?$CI?$DM?0?5?$DO?$CJ?$AA@ 100596dc     bncs_log_edit.obj
 0003:000036f0       ??_C@_0BD@EIHB@Inclusive?5?$CI?$DM?$DN?0?5?$DO?$DN?$CJ?$AA@ 100596f0     bncs_log_edit.obj
 0003:00003704       ??_C@_0BA@PJGM@Comparison?5Mode?$AA@ 10059704     bncs_log_edit.obj
 0003:00003714       ??_C@_09GDIN@Date?1Time?$AA@ 10059714     bncs_log_edit.obj
 0003:00003720       ??_C@_0M@KBJH@Acknowledge?$AA@ 10059720     bncs_log_edit.obj
 0003:0000372c       ??_C@_09CFBJ@Force?5Off?$AA@ 1005972c     bncs_log_edit.obj
 0003:00003738       ??_C@_08BPED@Force?5On?$AA@ 10059738     bncs_log_edit.obj
 0003:00003744       ??_C@_0P@CLOO@Text?5Filtering?$AA@ 10059744     bncs_log_edit.obj
 0003:00003754       ??_C@_07GJAC@Display?$AA@  10059754     bncs_log_edit.obj
 0003:0000375c       ??_C@_09CLBG@Always?5On?$AA@ 1005975c     bncs_log_edit.obj
 0003:00003768       ??_C@_0L@MCCN@Always?5Off?$AA@ 10059768     bncs_log_edit.obj
 0003:00003774       ??_C@_0L@JFFH@Scroll?5Bar?$AA@ 10059774     bncs_log_edit.obj
 0003:00003780       ??_C@_0P@GAOG@Scroll?5Display?$AA@ 10059780     bncs_log_edit.obj
 0003:00003790       ??_C@_0M@KOA@Line?5Height?$AA@ 10059790     bncs_log_edit.obj
 0003:0000379c       ??_C@_06OEBB@States?$AA@   1005979c     bncs_log_edit.obj
 0003:000037a4       ??_C@_0L@GIMJ@Stylesheet?$AA@ 100597a4     bncs_log_edit.obj
 0003:000037b0       ??_C@_0BB@DOJD@Show?5if?5No?5Group?$AA@ 100597b0     bncs_log_edit.obj
 0003:000037c4       ??_C@_0L@GHFG@Show?5Group?$AA@ 100597c4     bncs_log_edit.obj
 0003:000037d0       ??_C@_0BB@DNJK@Selected?5Changed?$AA@ 100597d0     bncs_log_edit.obj
 0003:000037e4       ??_C@_07HGIG@Pressed?$AA@  100597e4     bncs_log_edit.obj
 0003:000037ec       ??_C@_06EHOD@Notify?$AA@   100597ec     bncs_log_edit.obj
 0003:000037f4       ??_C@_09KCCA@Ascending?$AA@ 100597f4     bncs_log_edit.obj
 0003:00003800       ??_C@_08FCGO@Order?5By?$AA@ 10059800     bncs_log_edit.obj
 0003:0000380c       ??_C@_0BF@FGEF@Show?5Single?5Instance?$AA@ 1005980c     bncs_log_edit.obj
 0003:00003824       ??_C@_07MENJ@Entries?$AA@  10059824     bncs_log_edit.obj
 0003:0000382c       ??_C@_0BK@LNEI@Location?6?$CIfrom?5Instances?$CJ?$AA@ 1005982c     bncs_log_edit.obj
 0003:00003848       ??_C@_04JJNL@Show?$AA@     10059848     bncs_log_edit.obj
 0003:00003850       ??_C@_05PJLH@Width?$AA@    10059850     bncs_log_edit.obj
 0003:00003858       ??_C@_08PLEH@mSeconds?$AA@ 10059858     bncs_log_edit.obj
 0003:00003864       ??_C@_0N@BDBD@Date?5?$CG?$CG?5Time?$AA@ 10059864     bncs_log_edit.obj
 0003:00003874       ??_C@_06GMMB@Fields?$AA@   10059874     bncs_log_edit.obj
 0003:0000387c       ??_C@_0L@KBLC@Log?5Driver?$AA@ 1005987c     bncs_log_edit.obj
 0003:00003888       ??_C@_0M@DNDM@BNCS?5Driver?$AA@ 10059888     bncs_log_edit.obj
 0003:00003894       ??_C@_06LIAH@Enable?$AA@   10059894     bncs_log_edit.obj
 0003:0000389c       ??_C@_0M@CCLB@Device?5Form?$AA@ 1005989c     bncs_log_edit.obj
 0003:000038a8       ??_C@_0BJ@GHH@Colledia?b?$IE?$KC?5Log?5Control?5?$AA@ 100598a8     bncs_log_edit.obj
 0003:000038c4       ??_C@_0BC@MFHG@edit?$CIbool?$CK?0bool?$CK?$CJ?$AA@ 100598c4     moc_bncs_data_form.obj
 0003:000038d8       ??_C@_0P@PPGJ@applyChanges?$CI?$CJ?$AA@ 100598d8     moc_bncs_data_form.obj
 0003:000038e8       ??_C@_0P@HFFC@updateConfig?$CI?$CJ?$AA@ 100598e8     moc_bncs_data_form.obj
 0003:000038f8       ??_C@_0M@MPJP@connectDb?$CI?$CJ?$AA@ 100598f8     moc_bncs_data_form.obj
 0003:00003904       ??_C@_08JCGJ@polish?$CI?$CJ?$AA@ 10059904     moc_bncs_data_form.obj
 0003:00003910       ??_C@_07CIPD@dummy?$CI?$CJ?$AA@ 10059910     moc_bncs_data_form.obj
 0003:00003918       ??_C@_04OJPN@edit?$AA@     10059918     moc_bncs_data_form.obj
 0003:00003940       ??_C@_0N@KLAC@applyChanges?$AA@ 10059940     moc_bncs_data_form.obj
 0003:00003950       ??_C@_0N@BMPJ@updateConfig?$AA@ 10059950     moc_bncs_data_form.obj
 0003:00003960       ??_C@_09ICON@connectDb?$AA@ 10059960     moc_bncs_data_form.obj
 0003:0000396c       ??_C@_06CDNL@polish?$AA@   1005996c     moc_bncs_data_form.obj
 0003:00003974       ??_C@_05PNMN@dummy?$AA@    10059974     moc_bncs_data_form.obj
 0003:0000397c       ??_C@_07JKHF@QString?$AA@  1005997c     moc_bncs_data_form.obj
 0003:00003984       ??_C@_0BK@PJPI@suppressInsertEventFilter?$AA@ 10059984     moc_bncs_data_form.obj
 0003:000039a0       ??_C@_01PMFO@?$BC?$AA@     100599a0     moc_bncs_data_form.obj
 0003:000039a4       ??_C@_0BB@MOGM@languageChange?$CI?$CJ?$AA@ 100599a4     moc_bncs_data_form_edit.obj
 0003:000039b8       ??_C@_0P@COD@languageChange?$AA@ 100599b8     moc_bncs_data_form_edit.obj
 0003:000039c8       ??_C@_06DHIB@help?$CI?$CJ?$AA@ 100599c8     moc_bncs_data_form_editimpl.obj
 0003:000039d0       ??_C@_0L@PCPO@addField?$CI?$CJ?$AA@ 100599d0     moc_bncs_data_form_editimpl.obj
 0003:000039dc       ??_C@_0M@JLLJ@getFields?$CI?$CJ?$AA@ 100599dc     moc_bncs_data_form_editimpl.obj
 0003:000039e8       ??_C@_0M@EPNJ@addFields?$CI?$CJ?$AA@ 100599e8     moc_bncs_data_form_editimpl.obj
 0003:000039f4       ??_C@_0L@MBAJ@delField?$CI?$CJ?$AA@ 100599f4     moc_bncs_data_form_editimpl.obj
 0003:00003a00       ??_C@_0CP@HBBF@itemSelected?$CIQListViewItem?$CK?0cons@ 10059a00     moc_bncs_data_form_editimpl.obj
 0003:00003a30       ??_C@_04MHDN@help?$AA@     10059a30     moc_bncs_data_form_editimpl.obj
 0003:00003a38       ??_C@_08CJJG@addField?$AA@ 10059a38     moc_bncs_data_form_editimpl.obj
 0003:00003a44       ??_C@_09LKAE@getFields?$AA@ 10059a44     moc_bncs_data_form_editimpl.obj
 0003:00003a50       ??_C@_09JGMA@addFields?$AA@ 10059a50     moc_bncs_data_form_editimpl.obj
 0003:00003a5c       ??_C@_08MCJG@delField?$AA@ 10059a5c     moc_bncs_data_form_editimpl.obj
 0003:00003a68       ??_C@_0N@GGKH@itemSelected?$AA@ 10059a68     moc_bncs_data_form_editimpl.obj
 0003:00003aa8       ??_C@_03HEDO@lvi?$AA@      10059aa8     moc_bncs_data_form_editimpl.obj
 0003:00003aac       ??_C@_0BE@BHOI@bncs_data_form_edit?$AA@ 10059aac     moc_bncs_data_form_editimpl.obj
 0003:00003ac0       ??_C@_04CAKG@iCol?$AA@     10059ac0     moc_bncs_data_form_editimpl.obj
 0003:00003ac8       ??_C@_01KLMK@?$AO?$AA@     10059ac8     moc_bncs_data_form_editimpl.obj
 0003:00003acc       ??_C@_03KPEF@pnt?$AA@      10059acc     moc_bncs_data_form_editimpl.obj
 0003:00003ad0       ??_C@_0O@GBOH@QListViewItem?$AA@ 10059ad0     moc_bncs_data_form_editimpl.obj
 0003:00003ae0       ??_C@_0CD@NGPH@requestMenu?$CIint?0int?0const?5QPoint@ 10059ae0     moc_bncs_data_Table.obj
 0003:00003b04       ??_C@_0N@MBN@updateData?$CI?$CJ?$AA@ 10059b04     moc_bncs_data_Table.obj
 0003:00003b14       ??_C@_0M@NBLH@ReloadLog?$CI?$CJ?$AA@ 10059b14     moc_bncs_data_Table.obj
 0003:00003b70       ??_C@_0M@EKAA@requestMenu?$AA@ 10059b70     moc_bncs_data_Table.obj
 0003:00003b7c       ??_C@_04FBKL@iRow?$AA@     10059b7c     moc_bncs_data_Table.obj
 0003:00003b84       ??_C@_0L@HHBK@updateData?$AA@ 10059b84     moc_bncs_data_Table.obj
 0003:00003b90       ??_C@_09OGJD@ReloadLog?$AA@ 10059b90     moc_bncs_data_Table.obj
 0003:00003b9c       ??_C@_03OMAK@pos?$AA@      10059b9c     moc_bncs_data_Table.obj
 0003:00003ba0       ??_C@_0BF@HILI@bncs_data_table_edit?$AA@ 10059ba0     moc_bncs_data_table_editimpl.obj
 0003:00003bb8       ??_C@_0BB@KFHP@notify?$CIQString?$CG?$CJ?$AA@ 10059bb8     moc_bncs_log.obj
 0003:00003bcc       ??_C@_0BM@EONO@itemClicked?$CIQListViewItem?$CK?$CJ?$AA@ 10059bcc     moc_bncs_log.obj
 0003:00003be8       ??_C@_0O@BDMI@StartScroll?$CI?$CJ?$AA@ 10059be8     moc_bncs_log.obj
 0003:00003bf8       ??_C@_0CB@MEDO@selectionChanged?$CIQListViewItem?$CK?$CJ@ 10059bf8     moc_bncs_log.obj
 0003:00003c1c       ??_C@_0N@MLOB@getLogData?$CI?$CJ?$AA@ 10059c1c     moc_bncs_log.obj
 0003:00003c70       ??_C@_0M@LDBO@itemClicked?$AA@ 10059c70     moc_bncs_log.obj
 0003:00003c7c       ??_C@_04MPOO@item?$AA@     10059c7c     moc_bncs_log.obj
 0003:00003c84       ??_C@_0M@COGB@StartScroll?$AA@ 10059c84     moc_bncs_log.obj
 0003:00003c90       ??_C@_0BB@OKHK@selectionChanged?$AA@ 10059c90     moc_bncs_log.obj
 0003:00003ca4       ??_C@_0L@MCMK@getLogData?$AA@ 10059ca4     moc_bncs_log.obj
 0003:00003cb0       ??_C@_06NKOF@filter?$AA@   10059cb0     moc_bncs_log.obj
 0003:00003cb8       ??_C@_0BB@LOBN@IDatabaseMessage?$AA@ 10059cb8     moc_bncs_log.obj
 0003:00003ccc       ??_C@_0BC@EPMA@IccClientCallback?$AA@ 10059ccc     moc_bncs_log.obj
 0003:00003ce0       ??_C@_0BO@MODA@valueChangedSpinDaysBack?$CIint?$CJ?$AA@ 10059ce0     moc_bncs_log_editimpl.obj
 0003:00003d00       ??_C@_0DB@IEFE@valueChangedDateTimeBetweenEnd?$CIc@ 10059d00     moc_bncs_log_editimpl.obj
 0003:00003d34       ??_C@_0DD@DCJN@valueChangedDateTimeBetweenStart@ 10059d34     moc_bncs_log_editimpl.obj
 0003:00003d68       ??_C@_0CM@CDBL@valueChangedDateTimeAfter?$CIconst?5@ 10059d68     moc_bncs_log_editimpl.obj
 0003:00003d94       ??_C@_0CN@IGM@valueChangedDateTimeBefore?$CIconst@ 10059d94     moc_bncs_log_editimpl.obj
 0003:00003dc4       ??_C@_0CJ@MHCA@valueChangedDateBetweenEnd?$CIconst@ 10059dc4     moc_bncs_log_editimpl.obj
 0003:00003df0       ??_C@_0CL@LGFJ@valueChangedDateBetweenStart?$CIcon@ 10059df0     moc_bncs_log_editimpl.obj
 0003:00003e1c       ??_C@_0CE@LAFL@valueChangedDateAfter?$CIconst?5QDat@ 10059e1c     moc_bncs_log_editimpl.obj
 0003:00003e40       ??_C@_0CF@FIFN@valueChangedDateBefore?$CIconst?5QDa@ 10059e40     moc_bncs_log_editimpl.obj
 0003:00003e68       ??_C@_0BK@GBAC@dateTimeGroupClicked?$CIint?$CJ?$AA@ 10059e68     moc_bncs_log_editimpl.obj
 0003:00003e84       ??_C@_0CI@BPN@dbDriver_reserveChanged?$CIconst?5QS@ 10059e84     moc_bncs_log_editimpl.obj
 0003:00003eac       ??_C@_0CA@HIDH@dbDriverChanged?$CIconst?5QString?$CG?$CJ?$AA@ 10059eac     moc_bncs_log_editimpl.obj
 0003:00003ecc       ??_C@_0BJ@GKNI@valueChangedSpinDaysBack?$AA@ 10059ecc     moc_bncs_log_editimpl.obj
 0003:00003ee8       ??_C@_0BP@PNM@valueChangedDateTimeBetweenEnd?$AA@ 10059ee8     moc_bncs_log_editimpl.obj
 0003:00003f08       ??_C@_0CB@OFCL@valueChangedDateTimeBetweenStart@ 10059f08     moc_bncs_log_editimpl.obj
 0003:00003f2c       ??_C@_0BK@IPKG@valueChangedDateTimeAfter?$AA@ 10059f2c     moc_bncs_log_editimpl.obj
 0003:00003f48       ??_C@_0BL@NJPG@valueChangedDateTimeBefore?$AA@ 10059f48     moc_bncs_log_editimpl.obj
 0003:00003f64       ??_C@_0BL@OIF@valueChangedDateBetweenEnd?$AA@ 10059f64     moc_bncs_log_editimpl.obj
 0003:00003f80       ??_C@_0BN@DEIN@valueChangedDateBetweenStart?$AA@ 10059f80     moc_bncs_log_editimpl.obj
 0003:00003fa0       ??_C@_0BG@GDLP@valueChangedDateAfter?$AA@ 10059fa0     moc_bncs_log_editimpl.obj
 0003:00003fb8       ??_C@_0BH@HNBK@valueChangedDateBefore?$AA@ 10059fb8     moc_bncs_log_editimpl.obj
 0003:00003fd0       ??_C@_0BF@FMJI@dateTimeGroupClicked?$AA@ 10059fd0     moc_bncs_log_editimpl.obj
 0003:00004018       ??_C@_03FBPL@iId?$AA@      1005a018     moc_bncs_log_editimpl.obj
 0003:0000401c       ??_C@_0BI@CJMH@dbDriver_reserveChanged?$AA@ 1005a01c     moc_bncs_log_editimpl.obj
 0003:00004034       ??_C@_0BA@PGAI@dbDriverChanged?$AA@ 1005a034     moc_bncs_log_editimpl.obj
 0003:00004044       ??_C@_07FPLO@sDriver?$AA@  1005a044     moc_bncs_log_editimpl.obj
 0003:0000404c       ??_C@_0O@EALF@bncs_log_edit?$AA@ 1005a04c     moc_bncs_log_editimpl.obj
 0003:0000405c       ??_C@_01FHJE@?$BM?$AA@     1005a05c     moc_bncs_log_editimpl.obj
 0003:00004060       ??_C@_01KIOG@?$BK?$AA@     1005a060     moc_bncs_log_editimpl.obj
 0003:00004064       ??_C@_0CK@BOKD@dbConnection?3?3dbConnection?$CI?$CJ?5cre@ 1005a064     dbConnection.obj
 0003:00004090       ??_C@_0DA@IANI@dbConnection?3?3run?$CI?$CJ?5thrown?5excep@ 1005a090     dbConnection.obj
 0003:000040c0       ??_C@_0CO@JPLA@dbConnection?3?3run?$CI?$CJ?5?9?5Switch?5to?5@ 1005a0c0     dbConnection.obj
 0003:000040f0       ??_C@_0DB@PPIK@dbConnection?3?3run?$CI?$CJ?5?9?5Switch?5to?5@ 1005a0f0     dbConnection.obj
 0003:00004124       ??_C@_0CK@POHB@dbConnection?3?3run?$CI?$CJ?5database_res@ 1005a124     dbConnection.obj
 0003:00004150       ??_C@_09OIIB@?0?5error?5?8?$AA@ 1005a150     dbConnection.obj
 0003:0000415c       ??_C@_0DD@ONBH@dbConnection?3?3run?$CI?$CJ?5?9?5Connection@ 1005a15c     dbConnection.obj
 0003:00004190       ??_C@_09BDLI@?5to?5start?$AA@ 1005a190     dbConnection.obj
 0003:0000419c       ??_C@_0CL@JCAN@dbConnection?3?3run?$CI?$CJ?5?9?5Can?8t?5find@ 1005a19c     dbConnection.obj
 0003:000041c8       ??_C@_0BA@FCII@SQL?5other?5error?$AA@ 1005a1c8     dbConnection.obj
 0003:000041d8       ??_C@_0BG@IHCD@SQL?5Transaction?5error?$AA@ 1005a1d8     dbConnection.obj
 0003:000041f0       ??_C@_0BH@FFGM@SQL?5Statement?5error?5?9?5?$AA@ 1005a1f0     dbConnection.obj
 0003:00004208       ??_C@_0BF@DHPJ@SQL?5Connection?5error?$AA@ 1005a208     dbConnection.obj
 0003:00004220       ??_C@_0N@HCAA@No?5SQL?5error?$AA@ 1005a220     dbConnection.obj
 0003:00004230       ??_C@_0O@NKPL@Unknown?5Error?$AA@ 1005a230     dbConnection.obj
 0003:00004240       ??_R0?AVtype_info@@@8      1005a240     MSVCRT:ti_inst.obj
 0003:0000425c       ??_C@_00A@?$AA@            1005a25c     bncs_data_form.obj
 0003:00004260       ?gotShowTooltipSetting@bncs_log@@0_NA 1005a260     bncs_log.obj
 0003:00004261       ?show_tooltip@bncs_log@@0_NA 1005a261     bncs_log.obj
 0003:00004264       ?sm_pLogManager@bncs_log_manager@@0PAV1@A 1005a264     bncs_log.obj
 0003:00004268       ?_Nilrefs@?$_Tree@PAVlogLbi@@PAV1@U_Kfn@?$set@PAVlogLbi@@U?$less@PAVlogLbi@@@std@@V?$allocator@PAVlogLbi@@@3@@std@@U?$less@PAVlogLbi@@@4@V?$allocator@PAVlogLbi@@@4@@std@@1IA 1005a268     bncs_log.obj
 0003:0000426c       ?_Nil@?$_Tree@PAVlogLbi@@PAV1@U_Kfn@?$set@PAVlogLbi@@U?$less@PAVlogLbi@@@std@@V?$allocator@PAVlogLbi@@@3@@std@@U?$less@PAVlogLbi@@@4@V?$allocator@PAVlogLbi@@@4@@std@@1PAU_Node@12@A 1005a26c     bncs_log.obj
 0003:00004274       ?sm_pBncs_queue_manager@bncs_queue_manager@@0PAV1@A 1005a274     bncs_log_queue.obj
 0003:00004278       ?sm_sDateTimeFormat@logFilter@@0VQString@@B 1005a278     logFilter.obj
 0003:0000427c       ?sm_sDateFormat@logFilter@@0VQString@@B 1005a27c     logFilter.obj
 0003:00004280       ?sm_sDateTimeFormatMs@logFilter@@0VQString@@B 1005a280     logFilter.obj
 0003:00004288       ?mapLoc@logLbi@@0V?$QMap@VQString@@V1@@@A 1005a288     logLbi.obj
 0003:00004290       ?sm_iIndex@logLbi@@0HA     1005a290     logLbi.obj
 0003:00004294       ?sm_pColour@logLbi@@0PAVlogLbiColour@@A 1005a294     logLbi.obj
 0003:00004298       ?sm_iMinHeight@logLbi@@0HA 1005a298     logLbi.obj
 0003:0000429c       ?sm_bShowMsec@logLbi@@0_NA 1005a29c     logLbi.obj
 0003:000042ac       ?metaObj@FormWidget@@0PAVQMetaObject@@A 1005a2ac     moc_bncs_data_form.obj
 0003:000042b0       ?metaObj@bncs_data_form@@0PAVQMetaObject@@A 1005a2b0     moc_bncs_data_form.obj
 0003:000042b8       ?metaObj@bncs_data_form_editBase@@0PAVQMetaObject@@A 1005a2b8     moc_bncs_data_form_edit.obj
 0003:000042c4       ?metaObj@bncs_data_form_edit@@0PAVQMetaObject@@A 1005a2c4     moc_bncs_data_form_editimpl.obj
 0003:000042d0       ?metaObj@bncs_data_Table@@0PAVQMetaObject@@A 1005a2d0     moc_bncs_data_Table.obj
 0003:000042d8       ?metaObj@bncs_data_table_editBase@@0PAVQMetaObject@@A 1005a2d8     moc_bncs_data_table_edit.obj
 0003:000042e0       ?metaObj@bncs_data_table_edit@@0PAVQMetaObject@@A 1005a2e0     moc_bncs_data_table_editimpl.obj
 0003:000042f0       ?metaObj@bncs_log@@0PAVQMetaObject@@A 1005a2f0     moc_bncs_log.obj
 0003:0000430c       ?metaObj@bncs_log_editBase@@0PAVQMetaObject@@A 1005a30c     moc_bncs_log_edit.obj
 0003:00004318       ?metaObj@bncs_log_edit@@0PAVQMetaObject@@A 1005a318     moc_bncs_log_editimpl.obj
 0003:000043b0       ?iCount@dbConnection@@0HA  1005a3b0     dbConnection.obj
 0003:000043c4       ?pHtmlHelpW@@3P6GPAUHWND__@@PAU1@PBGIK@ZA 1005a3c4     htmlhelp:init.obj
 0003:000043c8       ?pHtmlHelpA@@3P6GPAUHWND__@@PAU1@PBDIK@ZA 1005a3c8     htmlhelp:init.obj
 0003:000043d0       __adjust_fdiv              1005a3d0     <common>
 0003:000043d4       __pRawDllMain              1005a3d4     <common>
 0003:000043d8       ___onexitend               1005a3d8     <common>
 0003:000043dc       ___onexitbegin             1005a3dc     <common>

 entry point at        0001:00034ced

 Static symbols

 0001:00032140       _$E116                     10033140 f   moc_bncs_log_editimpl.obj
 0001:00032150       _$E113                     10033150 f   moc_bncs_log_editimpl.obj
 0001:00032170       _$E115                     10033170 f   moc_bncs_log_editimpl.obj
 0001:00032180       _$E114                     10033180 f   moc_bncs_log_editimpl.obj
 0001:00031f40       _$E100                     10032f40 f   moc_bncs_log_edit.obj
 0001:00031f50       _$E97                      10032f50 f   moc_bncs_log_edit.obj
 0001:00031f70       _$E99                      10032f70 f   moc_bncs_log_edit.obj
 0001:00031f80       _$E98                      10032f80 f   moc_bncs_log_edit.obj
 0001:00031a60       _$E133                     10032a60 f   moc_bncs_log.obj
 0001:00031a70       _$E130                     10032a70 f   moc_bncs_log.obj
 0001:00031a90       _$E132                     10032a90 f   moc_bncs_log.obj
 0001:00031aa0       _$E131                     10032aa0 f   moc_bncs_log.obj
 0001:000318e0       _$E101                     100328e0 f   moc_bncs_data_table_editimpl.obj
 0001:000318f0       _$E98                      100328f0 f   moc_bncs_data_table_editimpl.obj
 0001:00031910       _$E100                     10032910 f   moc_bncs_data_table_editimpl.obj
 0001:00031920       _$E99                      10032920 f   moc_bncs_data_table_editimpl.obj
 0001:000316a0       _$E100                     100326a0 f   moc_bncs_data_table_edit.obj
 0001:000316b0       _$E97                      100326b0 f   moc_bncs_data_table_edit.obj
 0001:000316d0       _$E99                      100326d0 f   moc_bncs_data_table_edit.obj
 0001:000316e0       _$E98                      100326e0 f   moc_bncs_data_table_edit.obj
 0001:000313c0       _$E115                     100323c0 f   moc_bncs_data_Table.obj
 0001:000313d0       _$E112                     100323d0 f   moc_bncs_data_Table.obj
 0001:000313f0       _$E114                     100323f0 f   moc_bncs_data_Table.obj
 0001:00031400       _$E113                     10032400 f   moc_bncs_data_Table.obj
 0001:00031130       _$E101                     10032130 f   moc_bncs_data_form_editimpl.obj
 0001:00031140       _$E98                      10032140 f   moc_bncs_data_form_editimpl.obj
 0001:00031160       _$E100                     10032160 f   moc_bncs_data_form_editimpl.obj
 0001:00031170       _$E99                      10032170 f   moc_bncs_data_form_editimpl.obj
 0001:00030f30       _$E100                     10031f30 f   moc_bncs_data_form_edit.obj
 0001:00030f40       _$E97                      10031f40 f   moc_bncs_data_form_edit.obj
 0001:00030f60       _$E99                      10031f60 f   moc_bncs_data_form_edit.obj
 0001:00030f70       _$E98                      10031f70 f   moc_bncs_data_form_edit.obj
 0001:00030a30       _$E105                     10031a30 f   moc_bncs_data_form.obj
 0001:00030a40       _$E102                     10031a40 f   moc_bncs_data_form.obj
 0001:00030a60       _$E104                     10031a60 f   moc_bncs_data_form.obj
 0001:00030a70       _$E103                     10031a70 f   moc_bncs_data_form.obj
 0001:00030cd0       _$E110                     10031cd0 f   moc_bncs_data_form.obj
 0001:00030ce0       _$E107                     10031ce0 f   moc_bncs_data_form.obj
 0001:00030d00       _$E109                     10031d00 f   moc_bncs_data_form.obj
 0001:00030d10       _$E108                     10031d10 f   moc_bncs_data_form.obj
 0001:000222e0       _$E76                      100232e0 f   logLbi.obj
 0001:000222f0       _$E72                      100232f0 f   logLbi.obj
 0001:00022300       _$E75                      10023300 f   logLbi.obj
 0001:00022310       _$E73                      10023310 f   logLbi.obj
 0001:00019d70       _$E89                      1001ad70 f   logFilter.obj
 0001:00019d80       _$E85                      1001ad80 f   logFilter.obj
 0001:00019da0       _$E88                      1001ada0 f   logFilter.obj
 0001:00019db0       _$E86                      1001adb0 f   logFilter.obj
 0001:00019df0       _$E94                      1001adf0 f   logFilter.obj
 0001:00019e00       _$E91                      1001ae00 f   logFilter.obj
 0001:00019e20       _$E93                      1001ae20 f   logFilter.obj
 0001:00019e30       _$E92                      1001ae30 f   logFilter.obj
 0001:00019e70       _$E99                      1001ae70 f   logFilter.obj
 0001:00019e80       _$E96                      1001ae80 f   logFilter.obj
 0001:00019ea0       _$E98                      1001aea0 f   logFilter.obj
 0001:00019eb0       _$E97                      1001aeb0 f   logFilter.obj
 0001:00019860       ?my_translator@@YAXIPAU_EXCEPTION_POINTERS@@@Z 1001a860 f   except.obj
 0001:00018600       _$E36                      10019600 f   bncs_log_queue.obj
 0001:00018610       _$E33                      10019610 f   bncs_log_queue.obj
 0001:00018620       _$E35                      10019620 f   bncs_log_queue.obj
 0001:00018630       _$E34                      10019630 f   bncs_log_queue.obj
 0001:00018640       _$E42                      10019640 f   bncs_log_queue.obj
 0001:00018650       _$E39                      10019650 f   bncs_log_queue.obj
 0001:00018660       _$E41                      10019660 f   bncs_log_queue.obj
 0001:00018670       _$E40                      10019670 f   bncs_log_queue.obj
 0001:000334c9       ?GetRegisteredLocation@@YGHPAD@Z 100344c9 f   htmlhelp:init.obj
 0001:00034b6c       ?ArrayUnwindFilter@@YAHPAU_EXCEPTION_POINTERS@@@Z 10035b6c f   MSVCRT:ehvecdtr.obj

 1408 bytes saved through ICF

