 bncs_cc02

 Timestamp is 5e9dba58 (Mon Apr 20 16:06:00 2020)

 Preferred load address is 10000000

 Start         Length     Name                   Class
 0001:00000000 000000f8H .text                   CODE
 0001:000000f8 00000063H .text$di                CODE
 0001:00000160 000064daH .text$mn                CODE
 0001:0000663a 000005c7H .text$x                 CODE
 0001:00006c01 00000021H .text$yd                CODE
 0002:00000000 00000864H .idata$5                DATA
 0002:00000864 00000004H .CRT$XCA                DATA
 0002:00000868 0000000cH .CRT$XCU                DATA
 0002:00000874 00000004H .CRT$XCZ                DATA
 0002:00000878 00000004H .CRT$XIA                DATA
 0002:0000087c 00000004H .CRT$XIAA               DATA
 0002:00000880 00000004H .CRT$XIC                DATA
 0002:00000884 00000004H .CRT$XIZ                DATA
 0002:00000890 000f1f58H .rdata                  DATA
 0002:000f27e8 00000944H .rdata$r                DATA
 0002:000f312c 00000004H .rtc$IAA                DATA
 0002:000f3130 00000004H .rtc$IZZ                DATA
 0002:000f3134 00000004H .rtc$TAA                DATA
 0002:000f3138 00000004H .rtc$TZZ                DATA
 0002:000f3140 0000069cH .xdata$x                DATA
 0002:000f37e0 00001c51H .edata                  DATA
 0002:000f5434 0000008cH .idata$2                DATA
 0002:000f54c0 00000014H .idata$3                DATA
 0002:000f54d4 00000864H .idata$4                DATA
 0002:000f5d38 000049e8H .idata$6                DATA
 0003:00000000 00000e04H .data                   DATA
 0003:00000e04 0000030cH .data$r                 DATA
 0003:00001110 000003e4H .bss                    DATA
 0004:00000000 000000a0H .rsrc$01                DATA
 0004:000000a0 00000570H .rsrc$02                DATA

  Address         Publics by Value              Rva+Base       Lib:Object

 0000:00000000       __except_list              00000000     <absolute>
 0000:00000000       ___guard_fids_count        00000000     <absolute>
 0000:00000000       ___safe_se_handler_table   00000000     <absolute>
 0000:00000000       ___guard_flags             00000000     <absolute>
 0000:00000000       ___safe_se_handler_count   00000000     <absolute>
 0000:00000000       ___guard_fids_table        00000000     <absolute>
 0000:00009876       __ldused                   00009876     <absolute>
 0000:00009876       __fltused                  00009876     <absolute>
 0000:00000000       ___ImageBase               10000000     <linker-defined>
 0001:00000000       _HtmlHelpA@16              10001000 f   htmlhelp:init.obj
 0001:00000160       ?Initialise@@YAHPAUHINSTANCE__@@@Z 10001160 f   BNCS_CC02.obj
 0001:00000203       ?Shutdown@@YAXPAX@Z        10001203 f   BNCS_CC02.obj
 0001:00000215       _BBC_CC_WndFn@16           10001215 f   BNCS_CC02.obj
 0001:00000264       _DllMain@12                10001264 f   BNCS_CC02.obj
 0001:000002ae       _CCcomps_DrawAll           100012ae f   CC_COMPS.obj
 0001:000003b4       _CCcomps_DrawBackground    100013b4 f   CC_COMPS.obj
 0001:000003b4       _CCvtclk_DrawBackground    100013b4 f   CC_VTCLK.obj
 0001:00000420       _CCcomps_DrawClock         10001420 f   CC_COMPS.obj
 0001:00000b0d       _CCcomps_DrawHand          10001b0d f   CC_COMPS.obj
 0001:00000da4       _CCcomps_DrawPreset        10001da4 f   CC_COMPS.obj
 0001:00000f7d       _CCcomps_DrawText          10001f7d f   CC_COMPS.obj
 0001:00001056       _CCcomps_DrawTitle         10002056 f   CC_COMPS.obj
 0001:0000127e       _CCcomps_LabelLoad         1000227e f   CC_COMPS.obj
 0001:0000127e       _CCvtclk_LabelLoad         1000227e f   CC_VTCLK.obj
 0001:000012bf       _CCcomps_Message@16        100022bf f   CC_COMPS.obj
 0001:00001727       _CCcomps_PaintText         10002727 f   CC_COMPS.obj
 0001:00001727       _CCvtclk_PaintText         10002727 f   CC_VTCLK.obj
 0001:000017d9       _CCcomps_SetPreset         100027d9 f   CC_COMPS.obj
 0001:0000194e       _CSSufu_DecodeEscapeSeq    1000294e f   CC_SUFU.obj
 0001:00001b5d       _CCvtclk_DrawAll           10002b5d f   CC_VTCLK.obj
 0001:00001c56       _CCvtclk_DrawClock         10002c56 f   CC_VTCLK.obj
 0001:00002209       _CCvtclk_DrawHand          10003209 f   CC_VTCLK.obj
 0001:00002493       _CCvtclk_DrawText          10003493 f   CC_VTCLK.obj
 0001:00002560       _CCvtclk_DrawTitle         10003560 f   CC_VTCLK.obj
 0001:0000283b       _CCcomps_LabelSave         1000383b f   CC_COMPS.obj
 0001:0000283b       _CCvtclk_LabelSave         1000383b f   CC_VTCLK.obj
 0001:0000287c       _CCvtclk_Message@16        1000387c f   CC_VTCLK.obj
 0001:00002b89       _CCSufu_GetColourRef       10003b89 f   Cc_sufu_common.obj
 0001:00002c49       _CCSufu_SetBkColour        10003c49 f   Cc_sufu_common.obj
 0001:00002d15       _CCSufu_SetTextColour      10003d15 f   Cc_sufu_common.obj
 0001:00002de1       _CSSufu_ESValid            10003de1 f   Cc_sufu_common.obj
 0001:00002e08       ??0bncs_cc02_edit@@QAE@PAVQWidget@@PBD_NI@Z 10003e08 f   bncs_cc02_edit.obj
 0001:00003687       ??1bncs_cc02_edit@@UAE@XZ  10004687 f   bncs_cc02_edit.obj
 0001:000036c7       ??_EQFrame@@WCI@AEPAXI@Z   100046c7 f i bncs_cc02_edit.obj
 0001:000036cf       ??_EQHBoxLayout@@WCI@AEPAXI@Z 100046cf f i bncs_cc02_edit.obj
 0001:000036d7       ??_EQLabel@@WCI@AEPAXI@Z   100046d7 f i bncs_cc02_edit.obj
 0001:000036df       ??_EQLineEdit@@WCI@AEPAXI@Z 100046df f i bncs_cc02_edit.obj
 0001:000036e7       ??_EQPushButton@@WCI@AEPAXI@Z 100046e7 f i bncs_cc02_edit.obj
 0001:000036ef       ??_EQVBoxLayout@@WCI@AEPAXI@Z 100046ef f i bncs_cc02_edit.obj
 0001:000036f7       ??_Ebncs_cc02_edit@@WCI@AEPAXI@Z 100046f7 f i bncs_cc02_edit.obj
 0001:000036ff       ??_EQFrame@@UAEPAXI@Z      100046ff f i bncs_cc02_edit.obj
 0001:000036ff       ??_GQFrame@@UAEPAXI@Z      100046ff f i bncs_cc02_edit.obj
 0001:0000371f       ??_EQHBoxLayout@@UAEPAXI@Z 1000471f f i bncs_cc02_edit.obj
 0001:0000371f       ??_GQHBoxLayout@@UAEPAXI@Z 1000471f f i bncs_cc02_edit.obj
 0001:0000373f       ??_GQLabel@@UAEPAXI@Z      1000473f f i bncs_cc02_edit.obj
 0001:0000373f       ??_EQLabel@@UAEPAXI@Z      1000473f f i bncs_cc02_edit.obj
 0001:0000375f       ??_EQLineEdit@@UAEPAXI@Z   1000475f f i bncs_cc02_edit.obj
 0001:0000375f       ??_GQLineEdit@@UAEPAXI@Z   1000475f f i bncs_cc02_edit.obj
 0001:0000377f       ??_GQPushButton@@UAEPAXI@Z 1000477f f i bncs_cc02_edit.obj
 0001:0000377f       ??_EQPushButton@@UAEPAXI@Z 1000477f f i bncs_cc02_edit.obj
 0001:0000379f       ??_EQSpacerItem@@UAEPAXI@Z 1000479f f i bncs_cc02_edit.obj
 0001:0000379f       ??_GQSpacerItem@@UAEPAXI@Z 1000479f f i bncs_cc02_edit.obj
 0001:000037bf       ??_GQVBoxLayout@@UAEPAXI@Z 100047bf f i bncs_cc02_edit.obj
 0001:000037bf       ??_EQVBoxLayout@@UAEPAXI@Z 100047bf f i bncs_cc02_edit.obj
 0001:000037df       ??_Gbncs_cc02_edit@@UAEPAXI@Z 100047df f i bncs_cc02_edit.obj
 0001:000037df       ??_Ebncs_cc02_edit@@UAEPAXI@Z 100047df f i bncs_cc02_edit.obj
 0001:000037fe       ?languageChange@bncs_cc02_edit@@MAEXXZ 100047fe f   bncs_cc02_edit.obj
 0001:000039c3       ?metaObject@bncs_cc02_edit@@UBEPAVQMetaObject@@XZ 100049c3 f i bncs_cc02_edit.obj
 0001:000039c8       ??0bncs_cc02_editImpl@@QAE@PAVQWidget@@PBD_NI@Z 100049c8 f   bncs_cc02_editimpl.obj
 0001:00003a1f       ??1bncs_cc02_editImpl@@UAE@XZ 10004a1f f   bncs_cc02_editimpl.obj
 0001:00003a31       ??_Ebncs_cc02_editImpl@@WCI@AEPAXI@Z 10004a31 f i bncs_cc02_editimpl.obj
 0001:00003a39       ??_Gbncs_cc02_editImpl@@UAEPAXI@Z 10004a39 f i bncs_cc02_editimpl.obj
 0001:00003a39       ??_Ebncs_cc02_editImpl@@UAEPAXI@Z 10004a39 f i bncs_cc02_editimpl.obj
 0001:00003a58       ?doHelp@bncs_cc02_editImpl@@AAEXXZ 10004a58 f   bncs_cc02_editimpl.obj
 0001:00003c03       ?metaObject@bncs_cc02_editImpl@@UBEPAVQMetaObject@@XZ 10004c03 f i bncs_cc02_editimpl.obj
 0001:00003c08       ??0?$QPtrList@VsignalConnection@@@@QAE@ABV0@@Z 10004c08 f i bncs_cc02_qt.obj
 0001:00003c24       ??0?$QPtrList@VsignalConnection@@@@QAE@XZ 10004c24 f i bncs_cc02_qt.obj
 0001:00003c37       ??0?$QPtrListIterator@VsignalConnection@@@@QAE@ABV0@@Z 10004c37 f i bncs_cc02_qt.obj
 0001:00003c37       ??0signalConnectionRefListIt@@QAE@ABV0@@Z 10004c37 f i bncs_cc02_qt.obj
 0001:00003c4d       ??0signalConnectionRefListIt@@QAE@ABVsignalConnectionRefList@@@Z 10004c4d f i bncs_cc02_qt.obj
 0001:00003c4d       ??0?$QPtrListIterator@VsignalConnection@@@@QAE@ABV?$QPtrList@VsignalConnection@@@@@Z 10004c4d f i bncs_cc02_qt.obj
 0001:00003c63       ??0bncs_cc02_qt@@QAE@ABV0@@Z 10004c63 f i bncs_cc02_qt.obj
 0001:00003cc8       ??0bncs_cc02_qt@@QAE@PAVQWidget@@PBD@Z 10004cc8 f   bncs_cc02_qt.obj
 0001:00003d9e       ??0signalConnection@@QAE@ABV0@@Z 10004d9e f i bncs_cc02_qt.obj
 0001:00003df9       ??0signalConnection@@QAE@ABVQString@@0000@Z 10004df9 f i bncs_cc02_qt.obj
 0001:00003e88       ??0signalConnectionRefList@@QAE@ABV0@@Z 10004e88 f i bncs_cc02_qt.obj
 0001:00003ea4       ??0signalConnectionRefList@@QAE@XZ 10004ea4 f i bncs_cc02_qt.obj
 0001:00003eb7       ??1?$QPtrList@VsignalConnection@@@@UAE@XZ 10004eb7 f i bncs_cc02_qt.obj
 0001:00003eea       ??1bncs_cc02_qt@@UAE@XZ    10004eea f   bncs_cc02_qt.obj
 0001:00003f46       ??1signalConnection@@QAE@XZ 10004f46 f i bncs_cc02_qt.obj
 0001:00003fa0       ??1signalConnectionRefList@@UAE@XZ 10004fa0 f i bncs_cc02_qt.obj
 0001:00003fd2       ??1signalConnectionRefListIt@@QAE@XZ 10004fd2 f i bncs_cc02_qt.obj
 0001:00003fd2       ??1?$QPtrListIterator@VsignalConnection@@@@QAE@XZ 10004fd2 f i bncs_cc02_qt.obj
 0001:00003fd8       ??4?$QPtrList@VsignalConnection@@@@QAEAAV0@ABV0@@Z 10004fd8 f i bncs_cc02_qt.obj
 0001:00003fd8       ??4signalConnectionRefList@@QAEAAV0@ABV0@@Z 10004fd8 f i bncs_cc02_qt.obj
 0001:00003fe2       ??4signalConnectionRefListIt@@QAEAAV0@ABV0@@Z 10004fe2 f i bncs_cc02_qt.obj
 0001:00003fe2       ??4?$QPtrListIterator@VsignalConnection@@@@QAEAAV0@ABV0@@Z 10004fe2 f i bncs_cc02_qt.obj
 0001:00003ff8       ??4bncs_cc02_qt@@QAEAAV0@ABV0@@Z 10004ff8 f i bncs_cc02_qt.obj
 0001:0000404c       ??4signalConnection@@QAEAAV0@ABV0@@Z 1000504c f i bncs_cc02_qt.obj
 0001:0000408d       ??8?$QPtrList@VsignalConnection@@@@QBE_NABV0@@Z 1000508d f i bncs_cc02_qt.obj
 0001:00004097       ??9?$QPtrList@VsignalConnection@@@@QBE_NABV0@@Z 10005097 f i bncs_cc02_qt.obj
 0001:000040b0       ??E?$QPtrListIterator@VsignalConnection@@@@QAEPAVsignalConnection@@XZ 100050b0 f i bncs_cc02_qt.obj
 0001:000040b6       ??F?$QPtrListIterator@VsignalConnection@@@@QAEPAVsignalConnection@@XZ 100050b6 f i bncs_cc02_qt.obj
 0001:000040bc       ??R?$QPtrListIterator@VsignalConnection@@@@QAEPAVsignalConnection@@XZ 100050bc f i bncs_cc02_qt.obj
 0001:000040c2       ??Y?$QPtrListIterator@VsignalConnection@@@@QAEPAVsignalConnection@@I@Z 100050c2 f i bncs_cc02_qt.obj
 0001:000040cc       ??Z?$QPtrListIterator@VsignalConnection@@@@QAEPAVsignalConnection@@I@Z 100050cc f i bncs_cc02_qt.obj
 0001:000040d6       ??_E?$QPtrList@VsignalConnection@@@@UAEPAXI@Z 100050d6 f i bncs_cc02_qt.obj
 0001:00004120       ??_Ebncs_cc02_qt@@UAEPAXI@Z 10005120 f i bncs_cc02_qt.obj
 0001:0000416d       ??_Ebncs_cc02_qt@@WCI@AEPAXI@Z 1000516d f i bncs_cc02_qt.obj
 0001:00004175       ??_EsignalConnectionRefList@@UAEPAXI@Z 10005175 f i bncs_cc02_qt.obj
 0001:000041bf       ??_Fbncs_cc02_qt@@QAEXXZ   100051bf f i bncs_cc02_qt.obj
 0001:000041c9       ??_EQPixmap@@UAEPAXI@Z     100051c9 f i bncs_cc02_qt.obj
 0001:000041c9       ??_GQPixmap@@UAEPAXI@Z     100051c9 f i bncs_cc02_qt.obj
 0001:000041e9       ?append@?$QPtrList@VsignalConnection@@@@QAEXPBVsignalConnection@@@Z 100051e9 f i bncs_cc02_qt.obj
 0001:000041f3       ?at@?$QPtrList@VsignalConnection@@@@QAEPAVsignalConnection@@I@Z 100051f3 f i bncs_cc02_qt.obj
 0001:0000420d       ?at@?$QPtrList@VsignalConnection@@@@QBEHXZ 1000520d f i bncs_cc02_qt.obj
 0001:00004211       ?atFirst@?$QPtrListIterator@VsignalConnection@@@@QBE_NXZ 10005211 f i bncs_cc02_qt.obj
 0001:0000421f       ?atLast@?$QPtrListIterator@VsignalConnection@@@@QBE_NXZ 1000521f f i bncs_cc02_qt.obj
 0001:0000422d       ?begin@?$QPtrList@VsignalConnection@@@@QAE?AV?$QPtrListStdIterator@VsignalConnection@@@@XZ 1000522d f i bncs_cc02_qt.obj
 0001:0000422d       ?constBegin@?$QPtrList@VsignalConnection@@@@QBE?AV?$QPtrListStdIterator@VsignalConnection@@@@XZ 1000522d f i bncs_cc02_qt.obj
 0001:0000422d       ?begin@?$QPtrList@VsignalConnection@@@@QBE?AV?$QPtrListStdIterator@VsignalConnection@@@@XZ 1000522d f i bncs_cc02_qt.obj
 0001:0000423c       ?clear@?$QPtrList@VsignalConnection@@@@UAEXXZ 1000523c f i bncs_cc02_qt.obj
 0001:00004242       ?contains@?$QPtrList@VsignalConnection@@@@QBEIPBVsignalConnection@@@Z 10005242 f i bncs_cc02_qt.obj
 0001:0000424c       ?containsRef@?$QPtrList@VsignalConnection@@@@QBEIPBVsignalConnection@@@Z 1000524c f i bncs_cc02_qt.obj
 0001:00004256       ?count@?$QPtrList@VsignalConnection@@@@UBEIXZ 10005256 f i bncs_cc02_qt.obj
 0001:0000425a       ?count@?$QPtrListIterator@VsignalConnection@@@@QBEIXZ 1000525a f i bncs_cc02_qt.obj
 0001:00004260       ?current@?$QPtrList@VsignalConnection@@@@QBEPAVsignalConnection@@XZ 10005260 f i bncs_cc02_qt.obj
 0001:0000426d       ??D?$QPtrListIterator@VsignalConnection@@@@QAEPAVsignalConnection@@XZ 1000526d f i bncs_cc02_qt.obj
 0001:0000426d       ??B?$QPtrListIterator@VsignalConnection@@@@QBEPAVsignalConnection@@XZ 1000526d f i bncs_cc02_qt.obj
 0001:0000426d       ?current@?$QPtrListIterator@VsignalConnection@@@@QBEPAVsignalConnection@@XZ 1000526d f i bncs_cc02_qt.obj
 0001:0000427a       ?currentNode@?$QPtrList@VsignalConnection@@@@QBEPAVQLNode@@XZ 1000527a f i bncs_cc02_qt.obj
 0001:0000427e       ?defaultvalues@bncs_cc02_qt@@AAEXXZ 1000527e f   bncs_cc02_qt.obj
 0001:000042bc       ?deleteItem@?$QPtrList@VsignalConnection@@@@EAEXPAX@Z 100052bc f i bncs_cc02_qt.obj
 0001:000042e0       ?edit@bncs_cc02_qt@@QAEXPA_N0@Z 100052e0 f   bncs_cc02_qt.obj
 0001:00004658       ?end@?$QPtrList@VsignalConnection@@@@QBE?AV?$QPtrListStdIterator@VsignalConnection@@@@XZ 10005658 f i bncs_cc02_qt.obj
 0001:00004658       ?constEnd@?$QPtrList@VsignalConnection@@@@QBE?AV?$QPtrListStdIterator@VsignalConnection@@@@XZ 10005658 f i bncs_cc02_qt.obj
 0001:00004658       ?end@?$QPtrList@VsignalConnection@@@@QAE?AV?$QPtrListStdIterator@VsignalConnection@@@@XZ 10005658 f i bncs_cc02_qt.obj
 0001:00004665       ?erase@?$QPtrList@VsignalConnection@@@@QAE?AV?$QPtrListStdIterator@VsignalConnection@@@@V2@@Z 10005665 f i bncs_cc02_qt.obj
 0001:0000467c       ?find@?$QPtrList@VsignalConnection@@@@QAEHPBVsignalConnection@@@Z 1000567c f i bncs_cc02_qt.obj
 0001:0000468e       ?findNext@?$QPtrList@VsignalConnection@@@@QAEHPBVsignalConnection@@@Z 1000568e f i bncs_cc02_qt.obj
 0001:000046a0       ?findNextRef@?$QPtrList@VsignalConnection@@@@QAEHPBVsignalConnection@@@Z 100056a0 f i bncs_cc02_qt.obj
 0001:000046b2       ?findRef@?$QPtrList@VsignalConnection@@@@QAEHPBVsignalConnection@@@Z 100056b2 f i bncs_cc02_qt.obj
 0001:000046c4       ?first@?$QPtrList@VsignalConnection@@@@QAEPAVsignalConnection@@XZ 100056c4 f i bncs_cc02_qt.obj
 0001:000046ca       ?getFirst@?$QPtrList@VsignalConnection@@@@QBEPAVsignalConnection@@XZ 100056ca f i bncs_cc02_qt.obj
 0001:000046d7       ?getLast@?$QPtrList@VsignalConnection@@@@QBEPAVsignalConnection@@XZ 100056d7 f i bncs_cc02_qt.obj
 0001:000046e4       ?inSort@?$QPtrList@VsignalConnection@@@@QAEXPBVsignalConnection@@@Z 100056e4 f i bncs_cc02_qt.obj
 0001:000046ee       ?insert@?$QPtrList@VsignalConnection@@@@QAE_NIPBVsignalConnection@@@Z 100056ee f i bncs_cc02_qt.obj
 0001:000046f8       ?isEmpty@?$QPtrList@VsignalConnection@@@@QBE_NXZ 100056f8 f i bncs_cc02_qt.obj
 0001:00004701       ?isEmpty@?$QPtrListIterator@VsignalConnection@@@@QBE_NXZ 10005701 f i bncs_cc02_qt.obj
 0001:0000470d       ?last@?$QPtrList@VsignalConnection@@@@QAEPAVsignalConnection@@XZ 1000570d f i bncs_cc02_qt.obj
 0001:00004713       ?metaObject@bncs_cc02_qt@@UBEPAVQMetaObject@@XZ 10005713 f i bncs_cc02_qt.obj
 0001:00004718       ?next@?$QPtrList@VsignalConnection@@@@QAEPAVsignalConnection@@XZ 10005718 f i bncs_cc02_qt.obj
 0001:0000471e       ?paintEvent@bncs_cc02_qt@@MAEXPAVQPaintEvent@@@Z 1000571e f   bncs_cc02_qt.obj
 0001:00004785       ?prepend@?$QPtrList@VsignalConnection@@@@QAEXPBVsignalConnection@@@Z 10005785 f i bncs_cc02_qt.obj
 0001:00004797       ?prev@?$QPtrList@VsignalConnection@@@@QAEPAVsignalConnection@@XZ 10005797 f i bncs_cc02_qt.obj
 0001:0000479d       ?qObject@bncs_cc02_qt@@QAEPAVQObject@@XZ 1000579d f i bncs_cc02_qt.obj
 0001:000047a0       ?remove@?$QPtrList@VsignalConnection@@@@QAE_NI@Z 100057a0 f i bncs_cc02_qt.obj
 0001:000047aa       ?remove@?$QPtrList@VsignalConnection@@@@QAE_NPBVsignalConnection@@@Z 100057aa f i bncs_cc02_qt.obj
 0001:000047b4       ?remove@?$QPtrList@VsignalConnection@@@@QAE_NXZ 100057b4 f i bncs_cc02_qt.obj
 0001:000047bd       ?removeFirst@?$QPtrList@VsignalConnection@@@@QAE_NXZ 100057bd f i bncs_cc02_qt.obj
 0001:000047d2       ?removeLast@?$QPtrList@VsignalConnection@@@@QAE_NXZ 100057d2 f i bncs_cc02_qt.obj
 0001:000047e7       ?removeNode@?$QPtrList@VsignalConnection@@@@QAEXPAVQLNode@@@Z 100057e7 f i bncs_cc02_qt.obj
 0001:000047f1       ?removeRef@?$QPtrList@VsignalConnection@@@@QAE_NPBVsignalConnection@@@Z 100057f1 f i bncs_cc02_qt.obj
 0001:000047fb       ?replace@?$QPtrList@VsignalConnection@@@@QAE_NIPBVsignalConnection@@@Z 100057fb f i bncs_cc02_qt.obj
 0001:00004805       ?resizeEvent@bncs_cc02_qt@@MAEXPAVQResizeEvent@@@Z 10005805 f   bncs_cc02_qt.obj
 0001:00004825       ?setCaption@bncs_cc02_qt@@UAEXABVQString@@@Z 10005825 f   bncs_cc02_qt.obj
 0001:000049c5       ?setTextBlock@bncs_cc02_qt@@AAEXHPBD@Z 100059c5 f   bncs_cc02_qt.obj
 0001:00004a23       ?sort@?$QPtrList@VsignalConnection@@@@QAEXXZ 10005a23 f i bncs_cc02_qt.obj
 0001:00004a29       ?take@?$QPtrList@VsignalConnection@@@@QAEPAVsignalConnection@@I@Z 10005a29 f i bncs_cc02_qt.obj
 0001:00004a33       ?take@?$QPtrList@VsignalConnection@@@@QAEPAVsignalConnection@@XZ 10005a33 f i bncs_cc02_qt.obj
 0001:00004a39       ?takeNode@?$QPtrList@VsignalConnection@@@@QAEPAVsignalConnection@@PAVQLNode@@@Z 10005a39 f i bncs_cc02_qt.obj
 0001:00004a43       ?toFirst@?$QPtrListIterator@VsignalConnection@@@@QAEPAVsignalConnection@@XZ 10005a43 f i bncs_cc02_qt.obj
 0001:00004a49       ?toLast@?$QPtrListIterator@VsignalConnection@@@@QAEPAVsignalConnection@@XZ 10005a49 f i bncs_cc02_qt.obj
 0001:00004a4f       ?toVector@?$QPtrList@VsignalConnection@@@@QBEXPAVQGVector@@@Z 10005a4f f i bncs_cc02_qt.obj
 0001:00004a59       ?className@bncs_cc02_edit@@UBEPBDXZ 10005a59 f   moc_bncs_cc02_edit.obj
 0001:00004a5f       ?qt_cast@bncs_cc02_edit@@UAEPAXPBD@Z 10005a5f f   moc_bncs_cc02_edit.obj
 0001:00004a8d       ?qt_emit@bncs_cc02_edit@@UAE_NHPAUQUObject@@@Z 10005a8d f   moc_bncs_cc02_edit.obj
 0001:00004a97       ?qt_invoke@bncs_cc02_edit@@UAE_NHPAUQUObject@@@Z 10005a97 f   moc_bncs_cc02_edit.obj
 0001:00004ac9       ?qt_property@bncs_cc02_edit@@UAE_NHHPAVQVariant@@@Z 10005ac9 f   moc_bncs_cc02_edit.obj
 0001:00004ad3       ?staticMetaObject@bncs_cc02_edit@@SAPAVQMetaObject@@XZ 10005ad3 f   moc_bncs_cc02_edit.obj
 0001:00004b1d       ?tr@bncs_cc02_edit@@SA?AVQString@@PBD0@Z 10005b1d f   moc_bncs_cc02_edit.obj
 0001:00004b60       ?className@bncs_cc02_editImpl@@UBEPBDXZ 10005b60 f   moc_bncs_cc02_editimpl.obj
 0001:00004b66       ?qt_cast@bncs_cc02_editImpl@@UAEPAXPBD@Z 10005b66 f   moc_bncs_cc02_editimpl.obj
 0001:00004b93       ?qt_emit@bncs_cc02_editImpl@@UAE_NHPAUQUObject@@@Z 10005b93 f   moc_bncs_cc02_editimpl.obj
 0001:00004b9c       ?qt_invoke@bncs_cc02_editImpl@@UAE_NHPAUQUObject@@@Z 10005b9c f   moc_bncs_cc02_editimpl.obj
 0001:00004bca       ?qt_property@bncs_cc02_editImpl@@UAE_NHHPAVQVariant@@@Z 10005bca f   moc_bncs_cc02_editimpl.obj
 0001:00004bd3       ?staticMetaObject@bncs_cc02_editImpl@@SAPAVQMetaObject@@XZ 10005bd3 f   moc_bncs_cc02_editimpl.obj
 0001:00004c1c       ?className@bncs_cc02_qt@@UBEPBDXZ 10005c1c f   moc_bncs_cc02_qt.obj
 0001:00004c22       ?notify@bncs_cc02_qt@@IAEXAAVQString@@@Z 10005c22 f   moc_bncs_cc02_qt.obj
 0001:00004cb8       ?qt_cast@bncs_cc02_qt@@UAEPAXPBD@Z 10005cb8 f   moc_bncs_cc02_qt.obj
 0001:00004ce6       ?qt_emit@bncs_cc02_qt@@UAE_NHPAUQUObject@@@Z 10005ce6 f   moc_bncs_cc02_qt.obj
 0001:00004d1b       ?qt_invoke@bncs_cc02_qt@@UAE_NHPAUQUObject@@@Z 10005d1b f   moc_bncs_cc02_qt.obj
 0001:00004d53       ?qt_property@bncs_cc02_qt@@UAE_NHHPAVQVariant@@@Z 10005d53 f   moc_bncs_cc02_qt.obj
 0001:00004d5d       ?qt_static_property@bncs_cc02_qt@@SA_NPAVQObject@@HHPAVQVariant@@@Z 10005d5d f   moc_bncs_cc02_qt.obj
 0001:00004d60       ?staticMetaObject@bncs_cc02_qt@@SAPAVQMetaObject@@XZ 10005d60 f   moc_bncs_cc02_qt.obj
 0001:00004e2c       ?tr@bncs_cc02_qt@@SA?AVQString@@PBD0@Z 10005e2c f   moc_bncs_cc02_qt.obj
 0001:00004e6f       ?trUtf8@bncs_cc02_qt@@SA?AVQString@@PBD0@Z 10005e6f f   moc_bncs_cc02_qt.obj
 0001:00004eb2       ??_GBNCSWidgetPlugin@@UAEPAXI@Z 10005eb2 f i plugin.obj
 0001:00004eb2       ??_EBNCSWidgetPlugin@@UAEPAXI@Z 10005eb2 f i plugin.obj
 0001:00004ed2       ?create@BNCSWidgetPlugin@@UAEPAVQWidget@@ABVQString@@PAV2@PBD@Z 10005ed2 f   plugin.obj
 0001:00004f22       ?group@BNCSWidgetPlugin@@UBE?AVQString@@ABV2@@Z 10005f22 f   plugin.obj
 0001:00004f63       ?iconSet@BNCSWidgetPlugin@@UBE?AVQIconSet@@ABVQString@@@Z 10005f63 f   plugin.obj
 0001:00004fc8       ?includeFile@BNCSWidgetPlugin@@UBE?AVQString@@ABV2@@Z 10005fc8 f   plugin.obj
 0001:00005009       ?isContainer@BNCSWidgetPlugin@@UBE_NABVQString@@@Z 10006009 f   plugin.obj
 0001:0000500e       ?keys@BNCSWidgetPlugin@@UBE?AVQStringList@@XZ 1000600e f   plugin.obj
 0001:00005069       ?toolTip@BNCSWidgetPlugin@@UBE?AVQString@@ABV2@@Z 10006069 f   plugin.obj
 0001:000050aa       ?whatsThis@BNCSWidgetPlugin@@UBE?AVQString@@ABV2@@Z 100060aa f   plugin.obj
 0001:000050eb       _qt_ucm_query_verification_data 100060eb f   plugin.obj
 0001:000050f1       _ucm_instantiate           100060f1 f   plugin.obj
 0001:0000511c       ?isDesignTime@dCW@@SA_NXZ  1000611c f   dcw:dcw.dll
 0001:00005130       ??0decodeCaptionString@@QAE@PBD@Z 10006130 f   decodecaptionstring:decodecaptionstring.obj
 0001:00005150       ??1decodeCaptionString@@QAE@XZ 10006150 f   decodecaptionstring:decodecaptionstring.obj
 0001:00005170       ?split@decodeCaptionString@@AAEXPBD@Z 10006170 f i decodecaptionstring:decodecaptionstring.obj
 0001:0000536a       ?setName@QWidget@@UAEXPBD@Z 1000636a f   qt-mt323:qt-mt323.dll
 0001:00005370       ?minimumSizeHint@QDialog@@UBE?AVQSize@@XZ 10006370 f   qt-mt323:qt-mt323.dll
 0001:00005376       ?accept@QDialog@@MAEXXZ    10006376 f   qt-mt323:qt-mt323.dll
 0001:0000537c       ?addItem@QBoxLayout@@UAEXPAVQLayoutItem@@@Z 1000637c f   qt-mt323:qt-mt323.dll
 0001:00005382       ?adjustSize@QWidget@@UAEXXZ 10006382 f   qt-mt323:qt-mt323.dll
 0001:00005388       ?checkConnectArgs@QObject@@MAE_NPBDPBV1@0@Z 10006388 f   qt-mt323:qt-mt323.dll
 0001:0000538e       ?childEvent@QLayout@@MAEXPAVQChildEvent@@@Z 1000638e f   qt-mt323:qt-mt323.dll
 0001:00005394       ?childEvent@QObject@@MAEXPAVQChildEvent@@@Z 10006394 f   qt-mt323:qt-mt323.dll
 0001:0000539a       ?className@QFrame@@UBEPBDXZ 1000639a f   qt-mt323:qt-mt323.dll
 0001:000053a0       ?className@QHBoxLayout@@UBEPBDXZ 100063a0 f   qt-mt323:qt-mt323.dll
 0001:000053a6       ?className@QLabel@@UBEPBDXZ 100063a6 f   qt-mt323:qt-mt323.dll
 0001:000053ac       ?className@QLineEdit@@UBEPBDXZ 100063ac f   qt-mt323:qt-mt323.dll
 0001:000053b2       ?className@QPushButton@@UBEPBDXZ 100063b2 f   qt-mt323:qt-mt323.dll
 0001:000053b8       ?className@QVBoxLayout@@UBEPBDXZ 100063b8 f   qt-mt323:qt-mt323.dll
 0001:000053be       ?clear@QLineEdit@@UAEXXZ   100063be f   qt-mt323:qt-mt323.dll
 0001:000053c4       ?clearValidator@QLineEdit@@UAEXXZ 100063c4 f   qt-mt323:qt-mt323.dll
 0001:000053ca       ?close@QWidget@@UAE_N_N@Z  100063ca f   qt-mt323:qt-mt323.dll
 0001:000053d0       ?closeEvent@QDialog@@MAEXPAVQCloseEvent@@@Z 100063d0 f   qt-mt323:qt-mt323.dll
 0001:000053d6       ?closeEvent@QWidget@@MAEXPAVQCloseEvent@@@Z 100063d6 f   qt-mt323:qt-mt323.dll
 0001:000053dc       ?cmd@QPaintDevice@@MAE_NHPAVQPainter@@PATQPDevCmdParam@@@Z 100063dc f   qt-mt323:qt-mt323.dll
 0001:000053e2       ?connectNotify@QObject@@MAEXPBD@Z 100063e2 f   qt-mt323:qt-mt323.dll
 0001:000053e8       ?contextMenuEvent@QDialog@@MAEXPAVQContextMenuEvent@@@Z 100063e8 f   qt-mt323:qt-mt323.dll
 0001:000053ee       ?contextMenuEvent@QLineEdit@@MAEXPAVQContextMenuEvent@@@Z 100063ee f   qt-mt323:qt-mt323.dll
 0001:000053f4       ?contextMenuEvent@QWidget@@MAEXPAVQContextMenuEvent@@@Z 100063f4 f   qt-mt323:qt-mt323.dll
 0001:000053fa       ?copy@QLineEdit@@UBEXXZ    100063fa f   qt-mt323:qt-mt323.dll
 0001:00005400       ?create@QWidget@@MAEXPAUHWND__@@_N1@Z 10006400 f   qt-mt323:qt-mt323.dll
 0001:00005406       ?createPopupMenu@QLineEdit@@MAEPAVQPopupMenu@@XZ 10006406 f   qt-mt323:qt-mt323.dll
 0001:0000540c       ?customEvent@QObject@@MAEXPAVQCustomEvent@@@Z 1000640c f   qt-mt323:qt-mt323.dll
 0001:00005412       ?customWhatsThis@QWidget@@UBE_NXZ 10006412 f   qt-mt323:qt-mt323.dll
 0001:00005418       ?cut@QLineEdit@@UAEXXZ     10006418 f   qt-mt323:qt-mt323.dll
 0001:0000541e       ?deselect@QLineEdit@@UAEXXZ 1000641e f   qt-mt323:qt-mt323.dll
 0001:00005424       ?destroy@QWidget@@MAEX_N0@Z 10006424 f   qt-mt323:qt-mt323.dll
 0001:0000542a       ?disconnectNotify@QObject@@MAEXPBD@Z 1000642a f   qt-mt323:qt-mt323.dll
 0001:00005430       ?done@QDialog@@MAEXH@Z     10006430 f   qt-mt323:qt-mt323.dll
 0001:00005436       ?dragEnterEvent@QLineEdit@@MAEXPAVQDragEnterEvent@@@Z 10006436 f   qt-mt323:qt-mt323.dll
 0001:0000543c       ?dragEnterEvent@QWidget@@MAEXPAVQDragEnterEvent@@@Z 1000643c f   qt-mt323:qt-mt323.dll
 0001:00005442       ?dragLeaveEvent@QLineEdit@@MAEXPAVQDragLeaveEvent@@@Z 10006442 f   qt-mt323:qt-mt323.dll
 0001:00005448       ?dragLeaveEvent@QWidget@@MAEXPAVQDragLeaveEvent@@@Z 10006448 f   qt-mt323:qt-mt323.dll
 0001:0000544e       ?dragMoveEvent@QLineEdit@@MAEXPAVQDragMoveEvent@@@Z 1000644e f   qt-mt323:qt-mt323.dll
 0001:00005454       ?dragMoveEvent@QWidget@@MAEXPAVQDragMoveEvent@@@Z 10006454 f   qt-mt323:qt-mt323.dll
 0001:0000545a       ?drawButton@QPushButton@@MAEXPAVQPainter@@@Z 1000645a f   qt-mt323:qt-mt323.dll
 0001:00005460       ?drawButtonLabel@QPushButton@@MAEXPAVQPainter@@@Z 10006460 f   qt-mt323:qt-mt323.dll
 0001:00005466       ?drawContents@QFrame@@MAEXPAVQPainter@@@Z 10006466 f   qt-mt323:qt-mt323.dll
 0001:0000546c       ?drawContents@QLabel@@MAEXPAVQPainter@@@Z 1000646c f   qt-mt323:qt-mt323.dll
 0001:00005472       ?drawContents@QLineEdit@@MAEXPAVQPainter@@@Z 10006472 f   qt-mt323:qt-mt323.dll
 0001:00005478       ?drawFrame@QFrame@@MAEXPAVQPainter@@@Z 10006478 f   qt-mt323:qt-mt323.dll
 0001:0000547e       ?dropEvent@QLineEdit@@MAEXPAVQDropEvent@@@Z 1000647e f   qt-mt323:qt-mt323.dll
 0001:00005484       ?dropEvent@QWidget@@MAEXPAVQDropEvent@@@Z 10006484 f   qt-mt323:qt-mt323.dll
 0001:0000548a       ?enabledChange@QButton@@MAEX_N@Z 1000648a f   qt-mt323:qt-mt323.dll
 0001:00005490       ?enabledChange@QWidget@@MAEX_N@Z 10006490 f   qt-mt323:qt-mt323.dll
 0001:00005496       ?enterEvent@QWidget@@MAEXPAVQEvent@@@Z 10006496 f   qt-mt323:qt-mt323.dll
 0001:0000549c       ?event@QLineEdit@@MAE_NPAVQEvent@@@Z 1000649c f   qt-mt323:qt-mt323.dll
 0001:000054a2       ?event@QObject@@UAE_NPAVQEvent@@@Z 100064a2 f   qt-mt323:qt-mt323.dll
 0001:000054a8       ?event@QWidget@@MAE_NPAVQEvent@@@Z 100064a8 f   qt-mt323:qt-mt323.dll
 0001:000054ae       ?eventFilter@QDialog@@MAE_NPAVQObject@@PAVQEvent@@@Z 100064ae f   qt-mt323:qt-mt323.dll
 0001:000054b4       ?eventFilter@QLayout@@MAE_NPAVQObject@@PAVQEvent@@@Z 100064b4 f   qt-mt323:qt-mt323.dll
 0001:000054ba       ?eventFilter@QObject@@UAE_NPAV1@PAVQEvent@@@Z 100064ba f   qt-mt323:qt-mt323.dll
 0001:000054c0       ?expanding@QBoxLayout@@UBE?AW4ExpandData@QSizePolicy@@XZ 100064c0 f   qt-mt323:qt-mt323.dll
 0001:000054c6       ?expanding@QSpacerItem@@UBE?AW4ExpandData@QSizePolicy@@XZ 100064c6 f   qt-mt323:qt-mt323.dll
 0001:000054cc       ?focusInEvent@QLineEdit@@MAEXPAVQFocusEvent@@@Z 100064cc f   qt-mt323:qt-mt323.dll
 0001:000054d2       ?focusInEvent@QPushButton@@MAEXPAVQFocusEvent@@@Z 100064d2 f   qt-mt323:qt-mt323.dll
 0001:000054d8       ?focusInEvent@QWidget@@MAEXPAVQFocusEvent@@@Z 100064d8 f   qt-mt323:qt-mt323.dll
 0001:000054de       ?focusNextPrevChild@QWidget@@MAE_N_N@Z 100064de f   qt-mt323:qt-mt323.dll
 0001:000054e4       ?focusOutEvent@QLineEdit@@MAEXPAVQFocusEvent@@@Z 100064e4 f   qt-mt323:qt-mt323.dll
 0001:000054ea       ?focusOutEvent@QPushButton@@MAEXPAVQFocusEvent@@@Z 100064ea f   qt-mt323:qt-mt323.dll
 0001:000054f0       ?focusOutEvent@QWidget@@MAEXPAVQFocusEvent@@@Z 100064f0 f   qt-mt323:qt-mt323.dll
 0001:000054f6       ?fontChange@QLabel@@MAEXABVQFont@@@Z 100064f6 f   qt-mt323:qt-mt323.dll
 0001:000054fc       ?fontChange@QWidget@@MAEXABVQFont@@@Z 100064fc f   qt-mt323:qt-mt323.dll
 0001:00005502       ?fontInf@QPaintDevice@@MBEHPAVQFont@@H@Z 10006502 f   qt-mt323:qt-mt323.dll
 0001:00005508       ?fontMet@QPaintDevice@@MBEHPAVQFont@@HPBDH@Z 10006508 f   qt-mt323:qt-mt323.dll
 0001:0000550e       ?frameChanged@QFrame@@MAEXXZ 1000650e f   qt-mt323:qt-mt323.dll
 0001:00005514       ?geometry@QLayout@@UBE?AVQRect@@XZ 10006514 f   qt-mt323:qt-mt323.dll
 0001:0000551a       ?geometry@QSpacerItem@@UBE?AVQRect@@XZ 1000651a f   qt-mt323:qt-mt323.dll
 0001:00005520       ?handle@QPaintDevice@@UBEPAUHDC__@@XZ 10006520 f   qt-mt323:qt-mt323.dll
 0001:00005526       ?hasHeightForWidth@QBoxLayout@@UBE_NXZ 10006526 f   qt-mt323:qt-mt323.dll
 0001:0000552c       ?hasHeightForWidth@QLayoutItem@@UBE_NXZ 1000652c f   qt-mt323:qt-mt323.dll
 0001:00005532       ?heightForWidth@QBoxLayout@@UBEHH@Z 10006532 f   qt-mt323:qt-mt323.dll
 0001:00005538       ?heightForWidth@QLabel@@UBEHH@Z 10006538 f   qt-mt323:qt-mt323.dll
 0001:0000553e       ?heightForWidth@QLayoutItem@@UBEHH@Z 1000653e f   qt-mt323:qt-mt323.dll
 0001:00005544       ?heightForWidth@QWidget@@UBEHH@Z 10006544 f   qt-mt323:qt-mt323.dll
 0001:0000554a       ?hide@QDialog@@UAEXXZ      1000654a f   qt-mt323:qt-mt323.dll
 0001:00005550       ?hide@QWidget@@UAEXXZ      10006550 f   qt-mt323:qt-mt323.dll
 0001:00005556       ?hideEvent@QWidget@@MAEXPAVQHideEvent@@@Z 10006556 f   qt-mt323:qt-mt323.dll
 0001:0000555c       ?hitButton@QButton@@MBE_NABVQPoint@@@Z 1000655c f   qt-mt323:qt-mt323.dll
 0001:00005562       ?imComposeEvent@QLineEdit@@MAEXPAVQIMEvent@@@Z 10006562 f   qt-mt323:qt-mt323.dll
 0001:00005568       ?imComposeEvent@QWidget@@MAEXPAVQIMEvent@@@Z 10006568 f   qt-mt323:qt-mt323.dll
 0001:0000556e       ?imEndEvent@QLineEdit@@MAEXPAVQIMEvent@@@Z 1000656e f   qt-mt323:qt-mt323.dll
 0001:00005574       ?imEndEvent@QWidget@@MAEXPAVQIMEvent@@@Z 10006574 f   qt-mt323:qt-mt323.dll
 0001:0000557a       ?imStartEvent@QLineEdit@@MAEXPAVQIMEvent@@@Z 1000657a f   qt-mt323:qt-mt323.dll
 0001:00005580       ?imStartEvent@QWidget@@MAEXPAVQIMEvent@@@Z 10006580 f   qt-mt323:qt-mt323.dll
 0001:00005586       ?insert@QLineEdit@@UAEXABVQString@@@Z 10006586 f   qt-mt323:qt-mt323.dll
 0001:0000558c       ?insertChild@QObject@@UAEXPAV1@@Z 1000658c f   qt-mt323:qt-mt323.dll
 0001:00005592       ?invalidate@QBoxLayout@@UAEXXZ 10006592 f   qt-mt323:qt-mt323.dll
 0001:00005598       ?invalidate@QLayoutItem@@UAEXXZ 10006598 f   qt-mt323:qt-mt323.dll
 0001:0000559e       ?isEmpty@QLayout@@UBE_NXZ  1000659e f   qt-mt323:qt-mt323.dll
 0001:000055a4       ?isEmpty@QSpacerItem@@UBE_NXZ 100065a4 f   qt-mt323:qt-mt323.dll
 0001:000055aa       ?iterator@QBoxLayout@@UAE?AVQLayoutIterator@@XZ 100065aa f   qt-mt323:qt-mt323.dll
 0001:000055b0       ?iterator@QLayoutItem@@UAE?AVQLayoutIterator@@XZ 100065b0 f   qt-mt323:qt-mt323.dll
 0001:000055b6       ?keyPressEvent@QButton@@MAEXPAVQKeyEvent@@@Z 100065b6 f   qt-mt323:qt-mt323.dll
 0001:000055bc       ?keyPressEvent@QDialog@@MAEXPAVQKeyEvent@@@Z 100065bc f   qt-mt323:qt-mt323.dll
 0001:000055c2       ?keyPressEvent@QLineEdit@@MAEXPAVQKeyEvent@@@Z 100065c2 f   qt-mt323:qt-mt323.dll
 0001:000055c8       ?keyPressEvent@QWidget@@MAEXPAVQKeyEvent@@@Z 100065c8 f   qt-mt323:qt-mt323.dll
 0001:000055ce       ?keyReleaseEvent@QButton@@MAEXPAVQKeyEvent@@@Z 100065ce f   qt-mt323:qt-mt323.dll
 0001:000055d4       ?keyReleaseEvent@QWidget@@MAEXPAVQKeyEvent@@@Z 100065d4 f   qt-mt323:qt-mt323.dll
 0001:000055da       ?layout@QLayout@@UAEPAV1@XZ 100065da f   qt-mt323:qt-mt323.dll
 0001:000055e0       ?layout@QLayoutItem@@UAEPAVQLayout@@XZ 100065e0 f   qt-mt323:qt-mt323.dll
 0001:000055e6       ?leaveEvent@QWidget@@MAEXPAVQEvent@@@Z 100065e6 f   qt-mt323:qt-mt323.dll
 0001:000055ec       ?maximumSize@QBoxLayout@@UBE?AVQSize@@XZ 100065ec f   qt-mt323:qt-mt323.dll
 0001:000055f2       ?maximumSize@QSpacerItem@@UBE?AVQSize@@XZ 100065f2 f   qt-mt323:qt-mt323.dll
 0001:000055f8       ?metaObject@QFrame@@UBEPAVQMetaObject@@XZ 100065f8 f   qt-mt323:qt-mt323.dll
 0001:000055fe       ?metaObject@QHBoxLayout@@UBEPAVQMetaObject@@XZ 100065fe f   qt-mt323:qt-mt323.dll
 0001:00005604       ?metaObject@QLabel@@UBEPAVQMetaObject@@XZ 10006604 f   qt-mt323:qt-mt323.dll
 0001:0000560a       ?metaObject@QLineEdit@@UBEPAVQMetaObject@@XZ 1000660a f   qt-mt323:qt-mt323.dll
 0001:00005610       ?metaObject@QPushButton@@UBEPAVQMetaObject@@XZ 10006610 f   qt-mt323:qt-mt323.dll
 0001:00005616       ?metaObject@QVBoxLayout@@UBEPAVQMetaObject@@XZ 10006616 f   qt-mt323:qt-mt323.dll
 0001:0000561c       ?metric@QWidget@@MBEHH@Z   1000661c f   qt-mt323:qt-mt323.dll
 0001:00005622       ?minimumSize@QBoxLayout@@UBE?AVQSize@@XZ 10006622 f   qt-mt323:qt-mt323.dll
 0001:00005628       ?minimumSize@QSpacerItem@@UBE?AVQSize@@XZ 10006628 f   qt-mt323:qt-mt323.dll
 0001:0000562e       ?minimumSizeHint@QLabel@@UBE?AVQSize@@XZ 1000662e f   qt-mt323:qt-mt323.dll
 0001:00005634       ?minimumSizeHint@QLineEdit@@UBE?AVQSize@@XZ 10006634 f   qt-mt323:qt-mt323.dll
 0001:0000563a       ?minimumSizeHint@QWidget@@UBE?AVQSize@@XZ 1000663a f   qt-mt323:qt-mt323.dll
 0001:00005640       ?mouseDoubleClickEvent@QLineEdit@@MAEXPAVQMouseEvent@@@Z 10006640 f   qt-mt323:qt-mt323.dll
 0001:00005646       ?mouseDoubleClickEvent@QWidget@@MAEXPAVQMouseEvent@@@Z 10006646 f   qt-mt323:qt-mt323.dll
 0001:0000564c       ?mouseMoveEvent@QButton@@MAEXPAVQMouseEvent@@@Z 1000664c f   qt-mt323:qt-mt323.dll
 0001:00005652       ?mouseMoveEvent@QLineEdit@@MAEXPAVQMouseEvent@@@Z 10006652 f   qt-mt323:qt-mt323.dll
 0001:00005658       ?mouseMoveEvent@QWidget@@MAEXPAVQMouseEvent@@@Z 10006658 f   qt-mt323:qt-mt323.dll
 0001:0000565e       ?mousePressEvent@QButton@@MAEXPAVQMouseEvent@@@Z 1000665e f   qt-mt323:qt-mt323.dll
 0001:00005664       ?mousePressEvent@QLineEdit@@MAEXPAVQMouseEvent@@@Z 10006664 f   qt-mt323:qt-mt323.dll
 0001:0000566a       ?mousePressEvent@QWidget@@MAEXPAVQMouseEvent@@@Z 1000666a f   qt-mt323:qt-mt323.dll
 0001:00005670       ?mouseReleaseEvent@QButton@@MAEXPAVQMouseEvent@@@Z 10006670 f   qt-mt323:qt-mt323.dll
 0001:00005676       ?mouseReleaseEvent@QLineEdit@@MAEXPAVQMouseEvent@@@Z 10006676 f   qt-mt323:qt-mt323.dll
 0001:0000567c       ?mouseReleaseEvent@QWidget@@MAEXPAVQMouseEvent@@@Z 1000667c f   qt-mt323:qt-mt323.dll
 0001:00005682       ?move@QDialog@@UAEXHH@Z    10006682 f   qt-mt323:qt-mt323.dll
 0001:00005688       ?move@QPushButton@@UAEXHH@Z 10006688 f   qt-mt323:qt-mt323.dll
 0001:0000568e       ?move@QWidget@@UAEXHH@Z    1000668e f   qt-mt323:qt-mt323.dll
 0001:00005694       ?moveEvent@QWidget@@MAEXPAVQMoveEvent@@@Z 10006694 f   qt-mt323:qt-mt323.dll
 0001:0000569a       ?paintEvent@QButton@@MAEXPAVQPaintEvent@@@Z 1000669a f   qt-mt323:qt-mt323.dll
 0001:000056a0       ?paintEvent@QFrame@@MAEXPAVQPaintEvent@@@Z 100066a0 f   qt-mt323:qt-mt323.dll
 0001:000056a6       ?paintEvent@QWidget@@MAEXPAVQPaintEvent@@@Z 100066a6 f   qt-mt323:qt-mt323.dll
 0001:000056ac       ?paletteChange@QWidget@@MAEXABVQPalette@@@Z 100066ac f   qt-mt323:qt-mt323.dll
 0001:000056b2       ?paste@QLineEdit@@UAEXXZ   100066b2 f   qt-mt323:qt-mt323.dll
 0001:000056b8       ?polish@QWidget@@UAEXXZ    100066b8 f   qt-mt323:qt-mt323.dll
 0001:000056be       ?property@QObject@@UBE?AVQVariant@@PBD@Z 100066be f   qt-mt323:qt-mt323.dll
 0001:000056c4       ?qt_cast@QFrame@@UAEPAXPBD@Z 100066c4 f   qt-mt323:qt-mt323.dll
 0001:000056ca       ?qt_cast@QHBoxLayout@@UAEPAXPBD@Z 100066ca f   qt-mt323:qt-mt323.dll
 0001:000056d0       ?qt_cast@QLabel@@UAEPAXPBD@Z 100066d0 f   qt-mt323:qt-mt323.dll
 0001:000056d6       ?qt_cast@QLineEdit@@UAEPAXPBD@Z 100066d6 f   qt-mt323:qt-mt323.dll
 0001:000056dc       ?qt_cast@QPushButton@@UAEPAXPBD@Z 100066dc f   qt-mt323:qt-mt323.dll
 0001:000056e2       ?qt_cast@QVBoxLayout@@UAEPAXPBD@Z 100066e2 f   qt-mt323:qt-mt323.dll
 0001:000056e8       ?qt_emit@QFrame@@UAE_NHPAUQUObject@@@Z 100066e8 f   qt-mt323:qt-mt323.dll
 0001:000056ee       ?qt_emit@QHBoxLayout@@UAE_NHPAUQUObject@@@Z 100066ee f   qt-mt323:qt-mt323.dll
 0001:000056f4       ?qt_emit@QLabel@@UAE_NHPAUQUObject@@@Z 100066f4 f   qt-mt323:qt-mt323.dll
 0001:000056fa       ?qt_emit@QLineEdit@@UAE_NHPAUQUObject@@@Z 100066fa f   qt-mt323:qt-mt323.dll
 0001:00005700       ?qt_emit@QPushButton@@UAE_NHPAUQUObject@@@Z 10006700 f   qt-mt323:qt-mt323.dll
 0001:00005706       ?qt_emit@QVBoxLayout@@UAE_NHPAUQUObject@@@Z 10006706 f   qt-mt323:qt-mt323.dll
 0001:0000570c       ?qt_invoke@QFrame@@UAE_NHPAUQUObject@@@Z 1000670c f   qt-mt323:qt-mt323.dll
 0001:00005712       ?qt_invoke@QHBoxLayout@@UAE_NHPAUQUObject@@@Z 10006712 f   qt-mt323:qt-mt323.dll
 0001:00005718       ?qt_invoke@QLabel@@UAE_NHPAUQUObject@@@Z 10006718 f   qt-mt323:qt-mt323.dll
 0001:0000571e       ?qt_invoke@QLineEdit@@UAE_NHPAUQUObject@@@Z 1000671e f   qt-mt323:qt-mt323.dll
 0001:00005724       ?qt_invoke@QPushButton@@UAE_NHPAUQUObject@@@Z 10006724 f   qt-mt323:qt-mt323.dll
 0001:0000572a       ?qt_invoke@QVBoxLayout@@UAE_NHPAUQUObject@@@Z 1000672a f   qt-mt323:qt-mt323.dll
 0001:00005730       ?qt_property@QFrame@@UAE_NHHPAVQVariant@@@Z 10006730 f   qt-mt323:qt-mt323.dll
 0001:00005736       ?qt_property@QHBoxLayout@@UAE_NHHPAVQVariant@@@Z 10006736 f   qt-mt323:qt-mt323.dll
 0001:0000573c       ?qt_property@QLabel@@UAE_NHHPAVQVariant@@@Z 1000673c f   qt-mt323:qt-mt323.dll
 0001:00005742       ?qt_property@QLineEdit@@UAE_NHHPAVQVariant@@@Z 10006742 f   qt-mt323:qt-mt323.dll
 0001:00005748       ?qt_property@QPushButton@@UAE_NHHPAVQVariant@@@Z 10006748 f   qt-mt323:qt-mt323.dll
 0001:0000574e       ?qt_property@QVBoxLayout@@UAE_NHHPAVQVariant@@@Z 1000674e f   qt-mt323:qt-mt323.dll
 0001:00005754       ?redo@QLineEdit@@UAEXXZ    10006754 f   qt-mt323:qt-mt323.dll
 0001:0000575a       ?reject@QDialog@@MAEXXZ    1000675a f   qt-mt323:qt-mt323.dll
 0001:00005760       ?removeChild@QObject@@UAEXPAV1@@Z 10006760 f   qt-mt323:qt-mt323.dll
 0001:00005766       ?reparent@QWidget@@UAEXPAV1@IABVQPoint@@_N@Z 10006766 f   qt-mt323:qt-mt323.dll
 0001:0000576c       ?resize@QDialog@@UAEXHH@Z  1000676c f   qt-mt323:qt-mt323.dll
 0001:00005772       ?resize@QPushButton@@UAEXHH@Z 10006772 f   qt-mt323:qt-mt323.dll
 0001:00005778       ?resize@QWidget@@UAEXHH@Z  10006778 f   qt-mt323:qt-mt323.dll
 0001:0000577e       ?resizeEvent@QDialog@@MAEXPAVQResizeEvent@@@Z 1000677e f   qt-mt323:qt-mt323.dll
 0001:00005784       ?resizeEvent@QFrame@@MAEXPAVQResizeEvent@@@Z 10006784 f   qt-mt323:qt-mt323.dll
 0001:0000578a       ?resizeEvent@QLabel@@MAEXPAVQResizeEvent@@@Z 1000678a f   qt-mt323:qt-mt323.dll
 0001:00005790       ?resizeEvent@QLineEdit@@MAEXPAVQResizeEvent@@@Z 10006790 f   qt-mt323:qt-mt323.dll
 0001:00005796       ?resizeEvent@QPushButton@@MAEXPAVQResizeEvent@@@Z 10006796 f   qt-mt323:qt-mt323.dll
 0001:0000579c       ?resolution@QPaintDevice@@UBEHXZ 1000679c f   qt-mt323:qt-mt323.dll
 0001:000057a2       ?selectAll@QLineEdit@@UAEXXZ 100067a2 f   qt-mt323:qt-mt323.dll
 0001:000057a8       ?setAccel@QButton@@UAEXABVQKeySequence@@@Z 100067a8 f   qt-mt323:qt-mt323.dll
 0001:000057ae       ?setAcceptDrops@QWidget@@UAEX_N@Z 100067ae f   qt-mt323:qt-mt323.dll
 0001:000057b4       ?setActiveWindow@QWidget@@UAEXXZ 100067b4 f   qt-mt323:qt-mt323.dll
 0001:000057ba       ?setAlignment@QLabel@@UAEXH@Z 100067ba f   qt-mt323:qt-mt323.dll
 0001:000057c0       ?setAlignment@QLayoutItem@@UAEXH@Z 100067c0 f   qt-mt323:qt-mt323.dll
 0001:000057c6       ?setAlignment@QLineEdit@@UAEXH@Z 100067c6 f   qt-mt323:qt-mt323.dll
 0001:000057cc       ?setAutoAdd@QLayout@@UAEX_N@Z 100067cc f   qt-mt323:qt-mt323.dll
 0001:000057d2       ?setAutoDefault@QPushButton@@UAEX_N@Z 100067d2 f   qt-mt323:qt-mt323.dll
 0001:000057d8       ?setAutoMask@QWidget@@UAEX_N@Z 100067d8 f   qt-mt323:qt-mt323.dll
 0001:000057de       ?setAutoRepeat@QButton@@UAEX_N@Z 100067de f   qt-mt323:qt-mt323.dll
 0001:000057e4       ?setAutoResize@QLabel@@UAEX_N@Z 100067e4 f   qt-mt323:qt-mt323.dll
 0001:000057ea       ?setBackgroundColor@QWidget@@UAEXABVQColor@@@Z 100067ea f   qt-mt323:qt-mt323.dll
 0001:000057f0       ?setBackgroundMode@QWidget@@UAEXW4BackgroundMode@Qt@@@Z 100067f0 f   qt-mt323:qt-mt323.dll
 0001:000057f6       ?setBackgroundOrigin@QWidget@@UAEXW4BackgroundOrigin@1@@Z 100067f6 f   qt-mt323:qt-mt323.dll
 0001:000057fc       ?setBackgroundPixmap@QWidget@@UAEXABVQPixmap@@@Z 100067fc f   qt-mt323:qt-mt323.dll
 0001:00005802       ?setBuddy@QLabel@@UAEXPAVQWidget@@@Z 10006802 f   qt-mt323:qt-mt323.dll
 0001:00005808       ?setCaption@QWidget@@UAEXABVQString@@@Z 10006808 f   qt-mt323:qt-mt323.dll
 0001:0000580e       ?setCursor@QWidget@@UAEXABVQCursor@@@Z 1000680e f   qt-mt323:qt-mt323.dll
 0001:00005814       ?setCursorPosition@QLineEdit@@UAEXH@Z 10006814 f   qt-mt323:qt-mt323.dll
 0001:0000581a       ?setDefault@QPushButton@@UAEX_N@Z 1000681a f   qt-mt323:qt-mt323.dll
 0001:00005820       ?setDown@QButton@@UAEX_N@Z 10006820 f   qt-mt323:qt-mt323.dll
 0001:00005826       ?setDragEnabled@QLineEdit@@UAEX_N@Z 10006826 f   qt-mt323:qt-mt323.dll
 0001:0000582c       ?setEchoMode@QLineEdit@@UAEXW4EchoMode@1@@Z 1000682c f   qt-mt323:qt-mt323.dll
 0001:00005832       ?setEnabled@QWidget@@UAEX_N@Z 10006832 f   qt-mt323:qt-mt323.dll
 0001:00005838       ?setEraseColor@QWidget@@UAEXABVQColor@@@Z 10006838 f   qt-mt323:qt-mt323.dll
 0001:0000583e       ?setErasePixmap@QWidget@@UAEXABVQPixmap@@@Z 1000683e f   qt-mt323:qt-mt323.dll
 0001:00005844       ?setFocus@QWidget@@UAEXXZ  10006844 f   qt-mt323:qt-mt323.dll
 0001:0000584a       ?setFocusPolicy@QWidget@@UAEXW4FocusPolicy@1@@Z 1000684a f   qt-mt323:qt-mt323.dll
 0001:00005850       ?setFocusProxy@QWidget@@UAEXPAV1@@Z 10006850 f   qt-mt323:qt-mt323.dll
 0001:00005856       ?setFont@QLabel@@UAEXABVQFont@@@Z 10006856 f   qt-mt323:qt-mt323.dll
 0001:0000585c       ?setFont@QLineEdit@@UAEXABVQFont@@@Z 1000685c f   qt-mt323:qt-mt323.dll
 0001:00005862       ?setFont@QWidget@@UAEXABVQFont@@@Z 10006862 f   qt-mt323:qt-mt323.dll
 0001:00005868       ?setFrame@QLineEdit@@UAEX_N@Z 10006868 f   qt-mt323:qt-mt323.dll
 0001:0000586e       ?setFrameRect@QFrame@@UAEXABVQRect@@@Z 1000686e f   qt-mt323:qt-mt323.dll
 0001:00005874       ?setFrameStyle@QFrame@@UAEXH@Z 10006874 f   qt-mt323:qt-mt323.dll
 0001:0000587a       ?setGeometry@QBoxLayout@@UAEXABVQRect@@@Z 1000687a f   qt-mt323:qt-mt323.dll
 0001:00005880       ?setGeometry@QDialog@@UAEXABVQRect@@@Z 10006880 f   qt-mt323:qt-mt323.dll
 0001:00005886       ?setGeometry@QDialog@@UAEXHHHH@Z 10006886 f   qt-mt323:qt-mt323.dll
 0001:0000588c       ?setGeometry@QPushButton@@UAEXABVQRect@@@Z 1000688c f   qt-mt323:qt-mt323.dll
 0001:00005892       ?setGeometry@QPushButton@@UAEXHHHH@Z 10006892 f   qt-mt323:qt-mt323.dll
 0001:00005898       ?setGeometry@QSpacerItem@@UAEXABVQRect@@@Z 10006898 f   qt-mt323:qt-mt323.dll
 0001:0000589e       ?setGeometry@QWidget@@UAEXABVQRect@@@Z 1000689e f   qt-mt323:qt-mt323.dll
 0001:000058a4       ?setGeometry@QWidget@@UAEXHHHH@Z 100068a4 f   qt-mt323:qt-mt323.dll
 0001:000058aa       ?setGroup@QButton@@EAEXPAVQButtonGroup@@@Z 100068aa f   qt-mt323:qt-mt323.dll
 0001:000058b0       ?setIcon@QWidget@@UAEXABVQPixmap@@@Z 100068b0 f   qt-mt323:qt-mt323.dll
 0001:000058b6       ?setIconText@QWidget@@UAEXABVQString@@@Z 100068b6 f   qt-mt323:qt-mt323.dll
 0001:000058bc       ?setIsMenuButton@QPushButton@@UAEX_N@Z 100068bc f   qt-mt323:qt-mt323.dll
 0001:000058c2       ?setKeyCompression@QWidget@@MAEX_N@Z 100068c2 f   qt-mt323:qt-mt323.dll
 0001:000058c8       ?setLineWidth@QFrame@@UAEXH@Z 100068c8 f   qt-mt323:qt-mt323.dll
 0001:000058ce       ?setMargin@QFrame@@UAEXH@Z 100068ce f   qt-mt323:qt-mt323.dll
 0001:000058d4       ?setMargin@QLayout@@UAEXH@Z 100068d4 f   qt-mt323:qt-mt323.dll
 0001:000058da       ?setMask@QWidget@@UAEXABVQBitmap@@@Z 100068da f   qt-mt323:qt-mt323.dll
 0001:000058e0       ?setMask@QWidget@@UAEXABVQRegion@@@Z 100068e0 f   qt-mt323:qt-mt323.dll
 0001:000058e6       ?setMaxLength@QLineEdit@@UAEXH@Z 100068e6 f   qt-mt323:qt-mt323.dll
 0001:000058ec       ?setMaximumSize@QWidget@@UAEXHH@Z 100068ec f   qt-mt323:qt-mt323.dll
 0001:000058f2       ?setMenuBar@QLayout@@UAEXPAVQMenuBar@@@Z 100068f2 f   qt-mt323:qt-mt323.dll
 0001:000058f8       ?setMicroFocusHint@QWidget@@MAEXHHHH_NPAVQFont@@@Z 100068f8 f   qt-mt323:qt-mt323.dll
 0001:000058fe       ?setMidLineWidth@QFrame@@UAEXH@Z 100068fe f   qt-mt323:qt-mt323.dll
 0001:00005904       ?setMinimumSize@QWidget@@UAEXHH@Z 10006904 f   qt-mt323:qt-mt323.dll
 0001:0000590a       ?setMouseTracking@QWidget@@UAEX_N@Z 1000690a f   qt-mt323:qt-mt323.dll
 0001:00005910       ?setMovie@QLabel@@UAEXABVQMovie@@@Z 10006910 f   qt-mt323:qt-mt323.dll
 0001:00005916       ?setName@QObject@@UAEXPBD@Z 10006916 f   qt-mt323:qt-mt323.dll
 0001:0000591c       ?setNum@QLabel@@UAEXH@Z    1000691c f   qt-mt323:qt-mt323.dll
 0001:00005922       ?setNum@QLabel@@UAEXN@Z    10006922 f   qt-mt323:qt-mt323.dll
 0001:00005928       ?setOn@QPushButton@@UAEX_N@Z 10006928 f   qt-mt323:qt-mt323.dll
 0001:0000592e       ?setPalette@QLineEdit@@UAEXABVQPalette@@@Z 1000692e f   qt-mt323:qt-mt323.dll
 0001:00005934       ?setPalette@QWidget@@UAEXABVQPalette@@@Z 10006934 f   qt-mt323:qt-mt323.dll
 0001:0000593a       ?setPaletteBackgroundColor@QWidget@@UAEXABVQColor@@@Z 1000693a f   qt-mt323:qt-mt323.dll
 0001:00005940       ?setPaletteBackgroundPixmap@QWidget@@UAEXABVQPixmap@@@Z 10006940 f   qt-mt323:qt-mt323.dll
 0001:00005946       ?setPicture@QLabel@@UAEXABVQPicture@@@Z 10006946 f   qt-mt323:qt-mt323.dll
 0001:0000594c       ?setPixmap@QButton@@UAEXABVQPixmap@@@Z 1000694c f   qt-mt323:qt-mt323.dll
 0001:00005952       ?setPixmap@QLabel@@UAEXABVQPixmap@@@Z 10006952 f   qt-mt323:qt-mt323.dll
 0001:00005958       ?setProperty@QObject@@UAE_NPBDABVQVariant@@@Z 10006958 f   qt-mt323:qt-mt323.dll
 0001:0000595e       ?setReadOnly@QLineEdit@@UAEX_N@Z 1000695e f   qt-mt323:qt-mt323.dll
 0001:00005964       ?setResolution@QPaintDevice@@UAEXH@Z 10006964 f   qt-mt323:qt-mt323.dll
 0001:0000596a       ?setSelection@QLineEdit@@UAEXHH@Z 1000696a f   qt-mt323:qt-mt323.dll
 0001:00005970       ?setSizeIncrement@QWidget@@UAEXHH@Z 10006970 f   qt-mt323:qt-mt323.dll
 0001:00005976       ?setSizePolicy@QWidget@@UAEXVQSizePolicy@@@Z 10006976 f   qt-mt323:qt-mt323.dll
 0001:0000597c       ?setSpacing@QLayout@@UAEXH@Z 1000697c f   qt-mt323:qt-mt323.dll
 0001:00005982       ?setState@QButton@@MAEXW4ToggleState@1@@Z 10006982 f   qt-mt323:qt-mt323.dll
 0001:00005988       ?setText@QButton@@UAEXABVQString@@@Z 10006988 f   qt-mt323:qt-mt323.dll
 0001:0000598e       ?setText@QLabel@@UAEXABVQString@@@Z 1000698e f   qt-mt323:qt-mt323.dll
 0001:00005994       ?setText@QLineEdit@@UAEXABVQString@@@Z 10006994 f   qt-mt323:qt-mt323.dll
 0001:0000599a       ?setToggleType@QButton@@MAEXW4ToggleType@1@@Z 1000699a f   qt-mt323:qt-mt323.dll
 0001:000059a0       ?setUpdatesEnabled@QWidget@@UAEX_N@Z 100069a0 f   qt-mt323:qt-mt323.dll
 0001:000059a6       ?setValidator@QLineEdit@@UAEXPBVQValidator@@@Z 100069a6 f   qt-mt323:qt-mt323.dll
 0001:000059ac       ?setWFlags@QWidget@@MAEXI@Z 100069ac f   qt-mt323:qt-mt323.dll
 0001:000059b2       ?setWState@QWidget@@MAEXI@Z 100069b2 f   qt-mt323:qt-mt323.dll
 0001:000059b8       ?show@QDialog@@UAEXXZ      100069b8 f   qt-mt323:qt-mt323.dll
 0001:000059be       ?show@QWidget@@UAEXXZ      100069be f   qt-mt323:qt-mt323.dll
 0001:000059c4       ?showEvent@QWidget@@MAEXPAVQShowEvent@@@Z 100069c4 f   qt-mt323:qt-mt323.dll
 0001:000059ca       ?showMaximized@QWidget@@UAEXXZ 100069ca f   qt-mt323:qt-mt323.dll
 0001:000059d0       ?showMinimized@QWidget@@UAEXXZ 100069d0 f   qt-mt323:qt-mt323.dll
 0001:000059d6       ?showNormal@QWidget@@UAEXXZ 100069d6 f   qt-mt323:qt-mt323.dll
 0001:000059dc       ?sizeHint@QBoxLayout@@UBE?AVQSize@@XZ 100069dc f   qt-mt323:qt-mt323.dll
 0001:000059e2       ?sizeHint@QDialog@@UBE?AVQSize@@XZ 100069e2 f   qt-mt323:qt-mt323.dll
 0001:000059e8       ?sizeHint@QFrame@@UBE?AVQSize@@XZ 100069e8 f   qt-mt323:qt-mt323.dll
 0001:000059ee       ?sizeHint@QLabel@@UBE?AVQSize@@XZ 100069ee f   qt-mt323:qt-mt323.dll
 0001:000059f4       ?sizeHint@QLineEdit@@UBE?AVQSize@@XZ 100069f4 f   qt-mt323:qt-mt323.dll
 0001:000059fa       ?sizeHint@QPushButton@@UBE?AVQSize@@XZ 100069fa f   qt-mt323:qt-mt323.dll
 0001:00005a00       ?sizeHint@QSpacerItem@@UBE?AVQSize@@XZ 10006a00 f   qt-mt323:qt-mt323.dll
 0001:00005a06       ?sizePolicy@QWidget@@UBE?AVQSizePolicy@@XZ 10006a06 f   qt-mt323:qt-mt323.dll
 0001:00005a0c       ?spacerItem@QLayoutItem@@UAEPAVQSpacerItem@@XZ 10006a0c f   qt-mt323:qt-mt323.dll
 0001:00005a12       ?spacerItem@QSpacerItem@@UAEPAV1@XZ 10006a12 f   qt-mt323:qt-mt323.dll
 0001:00005a18       ?styleChange@QFrame@@MAEXAAVQStyle@@@Z 10006a18 f   qt-mt323:qt-mt323.dll
 0001:00005a1e       ?styleChange@QWidget@@MAEXAAVQStyle@@@Z 10006a1e f   qt-mt323:qt-mt323.dll
 0001:00005a24       ?tabletEvent@QWidget@@MAEXPAVQTabletEvent@@@Z 10006a24 f   qt-mt323:qt-mt323.dll
 0001:00005a2a       ?timerEvent@QObject@@MAEXPAVQTimerEvent@@@Z 10006a2a f   qt-mt323:qt-mt323.dll
 0001:00005a30       ?undo@QLineEdit@@UAEXXZ    10006a30 f   qt-mt323:qt-mt323.dll
 0001:00005a36       ?unsetCursor@QWidget@@UAEXXZ 10006a36 f   qt-mt323:qt-mt323.dll
 0001:00005a3c       ?updateMask@QPushButton@@MAEXXZ 10006a3c f   qt-mt323:qt-mt323.dll
 0001:00005a42       ?updateMask@QWidget@@MAEXXZ 10006a42 f   qt-mt323:qt-mt323.dll
 0001:00005a48       ?wheelEvent@QWidget@@MAEXPAVQWheelEvent@@@Z 10006a48 f   qt-mt323:qt-mt323.dll
 0001:00005a4e       ?widget@QLayoutItem@@UAEPAVQWidget@@XZ 10006a4e f   qt-mt323:qt-mt323.dll
 0001:00005a54       ?winEvent@QWidget@@MAE_NPAUtagMSG@@@Z 10006a54 f   qt-mt323:qt-mt323.dll
 0001:00005a5a       ?windowActivationChange@QLineEdit@@MAEX_N@Z 10006a5a f   qt-mt323:qt-mt323.dll
 0001:00005a60       ?windowActivationChange@QWidget@@MAEX_N@Z 10006a60 f   qt-mt323:qt-mt323.dll
 0001:00005a66       ?compareItems@QGList@@MAEHPAX0@Z 10006a66 f   qt-mt323:qt-mt323.dll
 0001:00005a6c       ?detach@QPixmap@@UAEXXZ    10006a6c f   qt-mt323:qt-mt323.dll
 0001:00005a72       ?metric@QPixmap@@MBEHH@Z   10006a72 f   qt-mt323:qt-mt323.dll
 0001:00005a78       ?newItem@QPtrCollection@@MAEPAXPAX@Z 10006a78 f   qt-mt323:qt-mt323.dll
 0001:00005a7e       ?read@QGList@@MAEAAVQDataStream@@AAV2@AAPAX@Z 10006a7e f   qt-mt323:qt-mt323.dll
 0001:00005a84       ?sizeHint@QWidget@@UBE?AVQSize@@XZ 10006a84 f   qt-mt323:qt-mt323.dll
 0001:00005a8a       ?write@QGList@@MBEAAVQDataStream@@AAV2@PAX@Z 10006a8a f   qt-mt323:qt-mt323.dll
 0001:00005a90       ?className@QWidgetPlugin@@UBEPBDXZ 10006a90 f   qt-mt323:qt-mt323.dll
 0001:00005a96       ?metaObject@QWidgetPlugin@@UBEPAVQMetaObject@@XZ 10006a96 f   qt-mt323:qt-mt323.dll
 0001:00005a9c       ?qt_cast@QWidgetPlugin@@UAEPAXPBD@Z 10006a9c f   qt-mt323:qt-mt323.dll
 0001:00005aa2       ?qt_emit@QWidgetPlugin@@UAE_NHPAUQUObject@@@Z 10006aa2 f   qt-mt323:qt-mt323.dll
 0001:00005aa8       ?qt_invoke@QWidgetPlugin@@UAE_NHPAUQUObject@@@Z 10006aa8 f   qt-mt323:qt-mt323.dll
 0001:00005aae       ?qt_property@QWidgetPlugin@@UAE_NHHPAVQVariant@@@Z 10006aae f   qt-mt323:qt-mt323.dll
 0001:00005ab4       _strlen                    10006ab4 f   MSVCRT:MSVCR120.dll
 0001:00005aba       _atan                      10006aba f   MSVCRT:MSVCR120.dll
 0001:00005ac0       _cos                       10006ac0 f   MSVCRT:MSVCR120.dll
 0001:00005ac6       _sin                       10006ac6 f   MSVCRT:MSVCR120.dll
 0001:00005acc       @__security_check_cookie@4 10006acc f   MSVCRT:secchk.obj
 0001:00005ae0       ??2@YAPAXI@Z               10006ae0 f   MSVCRT:MSVCR120.dll
 0001:00005ae6       ??3@YAXPAX@Z               10006ae6 f   MSVCRT:MSVCR120.dll
 0001:00005aec       __EH_epilog3               10006aec f   MSVCRT:ehprolg3.obj
 0001:00005b00       __EH_epilog3_GS            10006b00 f   MSVCRT:ehprolg3.obj
 0001:00005b0f       __EH_prolog3               10006b0f f   MSVCRT:ehprolg3.obj
 0001:00005b42       __EH_prolog3_GS            10006b42 f   MSVCRT:ehprolg3.obj
 0001:00005b78       ___CxxFrameHandler3        10006b78 f   MSVCRT:MSVCR120.dll
 0001:00005b7e       ??_Etype_info@@UAEPAXI@Z   10006b7e f i MSVCRT:ti_inst.obj
 0001:00005bc8       ??_L@YGXPAXIHP6EX0@Z1@Z    10006bc8 f   MSVCRT:ehvecctr.obj
 0001:00005c2a       ??__C@YGXPAX0IHP6EX00@ZP6EX0@Z@Z 10006c2a f   MSVCRT:ehvccctr.obj
 0001:00005c92       ??_M@YGXPAXIHP6EX0@Z@Z     10006c92 f   MSVCRT:ehvecdtr.obj
 0001:00005d01       ?__ArrayUnwind@@YGXPAXIHP6EX0@Z@Z 10006d01 f   MSVCRT:ehvecdtr.obj
 0001:00005d60       _strcmp                    10006d60 f   MSVCRT:MSVCR120.dll
 0001:00005d66       ??_V@YAXPAX@Z              10006d66 f   MSVCRT:MSVCR120.dll
 0001:00005d6c       ___atonexitinit            10006d6c f   MSVCRT:atonexit.obj
 0001:00005da8       __onexit                   10006da8 f   MSVCRT:atonexit.obj
 0001:00005e51       _atexit                    10006e51 f   MSVCRT:atonexit.obj
 0001:00005eb2       __CRT_INIT@12              10006eb2 f   MSVCRT:crtdll.obj
 0001:000060a9       __DllMainCRTStartup@12     100070a9 f   MSVCRT:crtdll.obj
 0001:000061ff       ___raise_securityfailure   100071ff f   MSVCRT:gs_report.obj
 0001:0000623c       ___report_gsfailure        1000723c f   MSVCRT:gs_report.obj
 0001:00006338       ??1type_info@@UAE@XZ       10007338 f   MSVCRT:MSVCR120.dll
 0001:00006340       __SEH_prolog4              10007340 f   MSVCRT:sehprolg4.obj
 0001:00006385       __SEH_epilog4              10007385 f   MSVCRT:sehprolg4.obj
 0001:00006399       __except_handler4          10007399 f   MSVCRT:chandler4gs.obj
 0001:000063bc       ?terminate@@YAXXZ          100073bc f   MSVCRT:MSVCR120.dll
 0001:000063c2       __lock                     100073c2 f   MSVCRT:MSVCR120.dll
 0001:000063c8       __unlock                   100073c8 f   MSVCRT:MSVCR120.dll
 0001:000063ce       ___dllonexit               100073ce f   MSVCRT:MSVCR120.dll
 0001:000063d4       ___CppXcptFilter           100073d4 f   MSVCRT:MSVCR120.dll
 0001:000063da       __amsg_exit                100073da f   MSVCRT:MSVCR120.dll
 0001:000063e0       __FindPESection            100073e0 f   MSVCRT:pesect.obj
 0001:00006430       __IsNonwritableInCurrentImage 10007430 f   MSVCRT:pesect.obj
 0001:000064f0       __ValidateImageBase        100074f0 f   MSVCRT:pesect.obj
 0001:00006521       ___security_init_cookie    10007521 f   MSVCRT:gs_support.obj
 0001:000065bd       __RTC_Initialize           100075bd f   MSVCRT:initsect.obj
 0001:000065dd       __RTC_Terminate            100075dd f   MSVCRT:initsect.obj
 0001:000065fe       __initterm                 100075fe f   MSVCRT:MSVCR120.dll
 0001:00006604       __initterm_e               10007604 f   MSVCRT:MSVCR120.dll
 0001:0000660a       ___clean_type_info_names   1000760a f   MSVCRT:tncleanup.obj
 0001:00006616       __crt_debugger_hook        10007616 f   MSVCRT:MSVCR120.dll
 0001:0000661c       ___crtUnhandledException   1000761c f   MSVCRT:MSVCR120.dll
 0001:00006622       ___crtTerminateProcess     10007622 f   MSVCRT:MSVCR120.dll
 0001:00006628       __except_handler4_common   10007628 f   MSVCRT:MSVCR120.dll
 0001:0000662e       ___clean_type_info_names_internal 1000762e f   MSVCRT:MSVCR120.dll
 0001:00006634       _IsProcessorFeaturePresent@4 10007634 f   kernel32:KERNEL32.dll
 0002:00000000       __imp__RegOpenKeyExA@20    10008000     advapi32:ADVAPI32.dll
 0002:00000004       __imp__RegQueryValueExA@24 10008004     advapi32:ADVAPI32.dll
 0002:00000008       __imp__RegCloseKey@4       10008008     advapi32:ADVAPI32.dll
 0002:0000000c       \177ADVAPI32_NULL_THUNK_DATA 1000800c     advapi32:ADVAPI32.dll
 0002:00000010       __imp__SetTextColor@8      10008010     gdi32:GDI32.dll
 0002:00000014       __imp__SetBkColor@8        10008014     gdi32:GDI32.dll
 0002:00000018       __imp__Arc@36              10008018     gdi32:GDI32.dll
 0002:0000001c       __imp__TextOutA@20         1000801c     gdi32:GDI32.dll
 0002:00000020       __imp__MoveToEx@16         10008020     gdi32:GDI32.dll
 0002:00000024       __imp__SetTextAlign@8      10008024     gdi32:GDI32.dll
 0002:00000028       __imp__SetROP2@8           10008028     gdi32:GDI32.dll
 0002:0000002c       __imp__SetBkMode@8         1000802c     gdi32:GDI32.dll
 0002:00000030       __imp__SelectObject@8      10008030     gdi32:GDI32.dll
 0002:00000034       __imp__Rectangle@20        10008034     gdi32:GDI32.dll
 0002:00000038       __imp__CreateFontIndirectA@4 10008038     gdi32:GDI32.dll
 0002:0000003c       __imp__CreatePen@12        1000803c     gdi32:GDI32.dll
 0002:00000040       __imp__CreateSolidBrush@4  10008040     gdi32:GDI32.dll
 0002:00000044       __imp__DeleteObject@4      10008044     gdi32:GDI32.dll
 0002:00000048       __imp__Ellipse@20          10008048     gdi32:GDI32.dll
 0002:0000004c       __imp__GetTextExtentPoint32A@16 1000804c     gdi32:GDI32.dll
 0002:00000050       __imp__LineTo@12           10008050     gdi32:GDI32.dll
 0002:00000054       \177GDI32_NULL_THUNK_DATA  10008054     gdi32:GDI32.dll
 0002:00000058       __imp__LoadLibraryA@4      10008058     kernel32:KERNEL32.dll
 0002:0000005c       __imp__GetProcAddress@8    1000805c     kernel32:KERNEL32.dll
 0002:00000060       __imp__lstrlenA@4          10008060     kernel32:KERNEL32.dll
 0002:00000064       __imp__lstrcpynA@12        10008064     kernel32:KERNEL32.dll
 0002:00000068       __imp__GlobalFree@4        10008068     kernel32:KERNEL32.dll
 0002:0000006c       __imp__GlobalUnlock@4      1000806c     kernel32:KERNEL32.dll
 0002:00000070       __imp__EncodePointer@4     10008070     kernel32:KERNEL32.dll
 0002:00000074       __imp__GetSystemTimeAsFileTime@4 10008074     kernel32:KERNEL32.dll
 0002:00000078       __imp__DecodePointer@4     10008078     kernel32:KERNEL32.dll
 0002:0000007c       __imp__IsDebuggerPresent@0 1000807c     kernel32:KERNEL32.dll
 0002:00000080       __imp__IsProcessorFeaturePresent@4 10008080     kernel32:KERNEL32.dll
 0002:00000084       __imp__QueryPerformanceCounter@4 10008084     kernel32:KERNEL32.dll
 0002:00000088       __imp__GetCurrentProcessId@0 10008088     kernel32:KERNEL32.dll
 0002:0000008c       __imp__GetCurrentThreadId@0 1000808c     kernel32:KERNEL32.dll
 0002:00000090       __imp__GlobalLock@4        10008090     kernel32:KERNEL32.dll
 0002:00000094       __imp__GlobalAlloc@8       10008094     kernel32:KERNEL32.dll
 0002:00000098       \177KERNEL32_NULL_THUNK_DATA 10008098     kernel32:KERNEL32.dll
 0002:0000009c       __imp__strlen              1000809c     MSVCRT:MSVCR120.dll
 0002:000000a0       __imp__atoi                100080a0     MSVCRT:MSVCR120.dll
 0002:000000a4       __imp__calloc              100080a4     MSVCRT:MSVCR120.dll
 0002:000000a8       __imp__sprintf             100080a8     MSVCRT:MSVCR120.dll
 0002:000000ac       __imp__atan                100080ac     MSVCRT:MSVCR120.dll
 0002:000000b0       __imp__cos                 100080b0     MSVCRT:MSVCR120.dll
 0002:000000b4       __imp__sin                 100080b4     MSVCRT:MSVCR120.dll
 0002:000000b8       __imp_??2@YAPAXI@Z         100080b8     MSVCRT:MSVCR120.dll
 0002:000000bc       __imp_??3@YAXPAX@Z         100080bc     MSVCRT:MSVCR120.dll
 0002:000000c0       __imp____CxxFrameHandler3  100080c0     MSVCRT:MSVCR120.dll
 0002:000000c4       __imp__getenv              100080c4     MSVCRT:MSVCR120.dll
 0002:000000c8       __imp__strcmp              100080c8     MSVCRT:MSVCR120.dll
 0002:000000cc       __imp_??_V@YAXPAX@Z        100080cc     MSVCRT:MSVCR120.dll
 0002:000000d0       __imp__strncpy             100080d0     MSVCRT:MSVCR120.dll
 0002:000000d4       __imp_??1type_info@@UAE@XZ 100080d4     MSVCRT:MSVCR120.dll
 0002:000000d8       __imp_?terminate@@YAXXZ    100080d8     MSVCRT:MSVCR120.dll
 0002:000000dc       __imp___lock               100080dc     MSVCRT:MSVCR120.dll
 0002:000000e0       __imp___unlock             100080e0     MSVCRT:MSVCR120.dll
 0002:000000e4       __imp___calloc_crt         100080e4     MSVCRT:MSVCR120.dll
 0002:000000e8       __imp____dllonexit         100080e8     MSVCRT:MSVCR120.dll
 0002:000000ec       __imp___onexit             100080ec     MSVCRT:MSVCR120.dll
 0002:000000f0       __imp____CppXcptFilter     100080f0     MSVCRT:MSVCR120.dll
 0002:000000f4       __imp____clean_type_info_names_internal 100080f4     MSVCRT:MSVCR120.dll
 0002:000000f8       __imp___except_handler4_common 100080f8     MSVCRT:MSVCR120.dll
 0002:000000fc       __imp____crtTerminateProcess 100080fc     MSVCRT:MSVCR120.dll
 0002:00000100       __imp____crtUnhandledException 10008100     MSVCRT:MSVCR120.dll
 0002:00000104       __imp__exit                10008104     MSVCRT:MSVCR120.dll
 0002:00000108       __imp___crt_debugger_hook  10008108     MSVCRT:MSVCR120.dll
 0002:0000010c       __imp___initterm_e         1000810c     MSVCRT:MSVCR120.dll
 0002:00000110       __imp___initterm           10008110     MSVCRT:MSVCR120.dll
 0002:00000114       __imp___malloc_crt         10008114     MSVCRT:MSVCR120.dll
 0002:00000118       __imp__free                10008118     MSVCRT:MSVCR120.dll
 0002:0000011c       __imp___amsg_exit          1000811c     MSVCRT:MSVCR120.dll
 0002:00000120       \177MSVCR120_NULL_THUNK_DATA 10008120     MSVCRT:MSVCR120.dll
 0002:00000124       __imp__ReleaseDC@8         10008124     user32:USER32.dll
 0002:00000128       __imp__GetDC@4             10008128     user32:USER32.dll
 0002:0000012c       __imp__ReleaseCapture@0    1000812c     user32:USER32.dll
 0002:00000130       __imp__SetCapture@4        10008130     user32:USER32.dll
 0002:00000134       __imp__DefWindowProcA@16   10008134     user32:USER32.dll
 0002:00000138       __imp__SendMessageA@16     10008138     user32:USER32.dll
 0002:0000013c       __imp__LoadCursorA@8       1000813c     user32:USER32.dll
 0002:00000140       __imp__GetWindowLongA@8    10008140     user32:USER32.dll
 0002:00000144       __imp__MessageBoxA@16      10008144     user32:USER32.dll
 0002:00000148       __imp__UnregisterClassA@8  10008148     user32:USER32.dll
 0002:0000014c       __imp__RegisterClassA@4    1000814c     user32:USER32.dll
 0002:00000150       __imp__BeginPaint@8        10008150     user32:USER32.dll
 0002:00000154       __imp__EndPaint@8          10008154     user32:USER32.dll
 0002:00000158       __imp__SetWindowLongA@12   10008158     user32:USER32.dll
 0002:0000015c       __imp__GetParent@4         1000815c     user32:USER32.dll
 0002:00000160       __imp__InvalidateRect@12   10008160     user32:USER32.dll
 0002:00000164       __imp__ShowWindow@8        10008164     user32:USER32.dll
 0002:00000168       __imp__SetWindowPos@28     10008168     user32:USER32.dll
 0002:0000016c       __imp__SetWindowTextA@8    1000816c     user32:USER32.dll
 0002:00000170       __imp__CreateWindowExA@48  10008170     user32:USER32.dll
 0002:00000174       \177USER32_NULL_THUNK_DATA 10008174     user32:USER32.dll
 0002:00000178       __imp_?isDesignTime@dCW@@SA_NXZ 10008178     dcw:dcw.dll
 0002:0000017c       \177dcw_NULL_THUNK_DATA    1000817c     dcw:dcw.dll
 0002:00000180       __imp_?hide@QDialog@@UAEXXZ 10008180     qt-mt323:qt-mt323.dll
 0002:00000184       __imp_?hide@QWidget@@UAEXXZ 10008184     qt-mt323:qt-mt323.dll
 0002:00000188       __imp_?hideEvent@QWidget@@MAEXPAVQHideEvent@@@Z 10008188     qt-mt323:qt-mt323.dll
 0002:0000018c       __imp_?hitButton@QButton@@MBE_NABVQPoint@@@Z 1000818c     qt-mt323:qt-mt323.dll
 0002:00000190       __imp_?imComposeEvent@QLineEdit@@MAEXPAVQIMEvent@@@Z 10008190     qt-mt323:qt-mt323.dll
 0002:00000194       __imp_?imComposeEvent@QWidget@@MAEXPAVQIMEvent@@@Z 10008194     qt-mt323:qt-mt323.dll
 0002:00000198       __imp_?imEndEvent@QLineEdit@@MAEXPAVQIMEvent@@@Z 10008198     qt-mt323:qt-mt323.dll
 0002:0000019c       __imp_?imEndEvent@QWidget@@MAEXPAVQIMEvent@@@Z 1000819c     qt-mt323:qt-mt323.dll
 0002:000001a0       __imp_?imStartEvent@QLineEdit@@MAEXPAVQIMEvent@@@Z 100081a0     qt-mt323:qt-mt323.dll
 0002:000001a4       __imp_?imStartEvent@QWidget@@MAEXPAVQIMEvent@@@Z 100081a4     qt-mt323:qt-mt323.dll
 0002:000001a8       __imp_?insert@QLineEdit@@UAEXABVQString@@@Z 100081a8     qt-mt323:qt-mt323.dll
 0002:000001ac       __imp_?insertChild@QObject@@UAEXPAV1@@Z 100081ac     qt-mt323:qt-mt323.dll
 0002:000001b0       __imp_?invalidate@QBoxLayout@@UAEXXZ 100081b0     qt-mt323:qt-mt323.dll
 0002:000001b4       __imp_?invalidate@QLayoutItem@@UAEXXZ 100081b4     qt-mt323:qt-mt323.dll
 0002:000001b8       __imp_?isEmpty@QLayout@@UBE_NXZ 100081b8     qt-mt323:qt-mt323.dll
 0002:000001bc       __imp_?isEmpty@QSpacerItem@@UBE_NXZ 100081bc     qt-mt323:qt-mt323.dll
 0002:000001c0       __imp_?iterator@QBoxLayout@@UAE?AVQLayoutIterator@@XZ 100081c0     qt-mt323:qt-mt323.dll
 0002:000001c4       __imp_?iterator@QLayoutItem@@UAE?AVQLayoutIterator@@XZ 100081c4     qt-mt323:qt-mt323.dll
 0002:000001c8       __imp_?keyPressEvent@QButton@@MAEXPAVQKeyEvent@@@Z 100081c8     qt-mt323:qt-mt323.dll
 0002:000001cc       __imp_?keyPressEvent@QDialog@@MAEXPAVQKeyEvent@@@Z 100081cc     qt-mt323:qt-mt323.dll
 0002:000001d0       __imp_?keyPressEvent@QLineEdit@@MAEXPAVQKeyEvent@@@Z 100081d0     qt-mt323:qt-mt323.dll
 0002:000001d4       __imp_?keyPressEvent@QWidget@@MAEXPAVQKeyEvent@@@Z 100081d4     qt-mt323:qt-mt323.dll
 0002:000001d8       __imp_?keyReleaseEvent@QButton@@MAEXPAVQKeyEvent@@@Z 100081d8     qt-mt323:qt-mt323.dll
 0002:000001dc       __imp_?keyReleaseEvent@QWidget@@MAEXPAVQKeyEvent@@@Z 100081dc     qt-mt323:qt-mt323.dll
 0002:000001e0       __imp_?layout@QLayout@@UAEPAV1@XZ 100081e0     qt-mt323:qt-mt323.dll
 0002:000001e4       __imp_?layout@QLayoutItem@@UAEPAVQLayout@@XZ 100081e4     qt-mt323:qt-mt323.dll
 0002:000001e8       __imp_?leaveEvent@QWidget@@MAEXPAVQEvent@@@Z 100081e8     qt-mt323:qt-mt323.dll
 0002:000001ec       __imp_?maximumSize@QBoxLayout@@UBE?AVQSize@@XZ 100081ec     qt-mt323:qt-mt323.dll
 0002:000001f0       __imp_?maximumSize@QSpacerItem@@UBE?AVQSize@@XZ 100081f0     qt-mt323:qt-mt323.dll
 0002:000001f4       __imp_?metaObject@QFrame@@UBEPAVQMetaObject@@XZ 100081f4     qt-mt323:qt-mt323.dll
 0002:000001f8       __imp_?metaObject@QHBoxLayout@@UBEPAVQMetaObject@@XZ 100081f8     qt-mt323:qt-mt323.dll
 0002:000001fc       __imp_?metaObject@QLabel@@UBEPAVQMetaObject@@XZ 100081fc     qt-mt323:qt-mt323.dll
 0002:00000200       __imp_?metaObject@QLineEdit@@UBEPAVQMetaObject@@XZ 10008200     qt-mt323:qt-mt323.dll
 0002:00000204       __imp_?metaObject@QPushButton@@UBEPAVQMetaObject@@XZ 10008204     qt-mt323:qt-mt323.dll
 0002:00000208       __imp_?metaObject@QVBoxLayout@@UBEPAVQMetaObject@@XZ 10008208     qt-mt323:qt-mt323.dll
 0002:0000020c       __imp_?metric@QWidget@@MBEHH@Z 1000820c     qt-mt323:qt-mt323.dll
 0002:00000210       __imp_?minimumSize@QBoxLayout@@UBE?AVQSize@@XZ 10008210     qt-mt323:qt-mt323.dll
 0002:00000214       __imp_?minimumSize@QSpacerItem@@UBE?AVQSize@@XZ 10008214     qt-mt323:qt-mt323.dll
 0002:00000218       __imp_?minimumSizeHint@QLabel@@UBE?AVQSize@@XZ 10008218     qt-mt323:qt-mt323.dll
 0002:0000021c       __imp_?minimumSizeHint@QLineEdit@@UBE?AVQSize@@XZ 1000821c     qt-mt323:qt-mt323.dll
 0002:00000220       __imp_?minimumSizeHint@QWidget@@UBE?AVQSize@@XZ 10008220     qt-mt323:qt-mt323.dll
 0002:00000224       __imp_?mouseDoubleClickEvent@QLineEdit@@MAEXPAVQMouseEvent@@@Z 10008224     qt-mt323:qt-mt323.dll
 0002:00000228       __imp_?mouseDoubleClickEvent@QWidget@@MAEXPAVQMouseEvent@@@Z 10008228     qt-mt323:qt-mt323.dll
 0002:0000022c       __imp_?mouseMoveEvent@QButton@@MAEXPAVQMouseEvent@@@Z 1000822c     qt-mt323:qt-mt323.dll
 0002:00000230       __imp_?mouseMoveEvent@QLineEdit@@MAEXPAVQMouseEvent@@@Z 10008230     qt-mt323:qt-mt323.dll
 0002:00000234       __imp_?mouseMoveEvent@QWidget@@MAEXPAVQMouseEvent@@@Z 10008234     qt-mt323:qt-mt323.dll
 0002:00000238       __imp_?mousePressEvent@QButton@@MAEXPAVQMouseEvent@@@Z 10008238     qt-mt323:qt-mt323.dll
 0002:0000023c       __imp_?mousePressEvent@QLineEdit@@MAEXPAVQMouseEvent@@@Z 1000823c     qt-mt323:qt-mt323.dll
 0002:00000240       __imp_?mousePressEvent@QWidget@@MAEXPAVQMouseEvent@@@Z 10008240     qt-mt323:qt-mt323.dll
 0002:00000244       __imp_?mouseReleaseEvent@QButton@@MAEXPAVQMouseEvent@@@Z 10008244     qt-mt323:qt-mt323.dll
 0002:00000248       __imp_?mouseReleaseEvent@QLineEdit@@MAEXPAVQMouseEvent@@@Z 10008248     qt-mt323:qt-mt323.dll
 0002:0000024c       __imp_?mouseReleaseEvent@QWidget@@MAEXPAVQMouseEvent@@@Z 1000824c     qt-mt323:qt-mt323.dll
 0002:00000250       __imp_?move@QDialog@@UAEXHH@Z 10008250     qt-mt323:qt-mt323.dll
 0002:00000254       __imp_?move@QPushButton@@UAEXHH@Z 10008254     qt-mt323:qt-mt323.dll
 0002:00000258       __imp_?move@QWidget@@UAEXHH@Z 10008258     qt-mt323:qt-mt323.dll
 0002:0000025c       __imp_?moveEvent@QWidget@@MAEXPAVQMoveEvent@@@Z 1000825c     qt-mt323:qt-mt323.dll
 0002:00000260       __imp_?paintEvent@QButton@@MAEXPAVQPaintEvent@@@Z 10008260     qt-mt323:qt-mt323.dll
 0002:00000264       __imp_?paintEvent@QFrame@@MAEXPAVQPaintEvent@@@Z 10008264     qt-mt323:qt-mt323.dll
 0002:00000268       __imp_?paintEvent@QWidget@@MAEXPAVQPaintEvent@@@Z 10008268     qt-mt323:qt-mt323.dll
 0002:0000026c       __imp_?paletteChange@QWidget@@MAEXABVQPalette@@@Z 1000826c     qt-mt323:qt-mt323.dll
 0002:00000270       __imp_?paste@QLineEdit@@UAEXXZ 10008270     qt-mt323:qt-mt323.dll
 0002:00000274       __imp_?polish@QWidget@@UAEXXZ 10008274     qt-mt323:qt-mt323.dll
 0002:00000278       __imp_?property@QObject@@UBE?AVQVariant@@PBD@Z 10008278     qt-mt323:qt-mt323.dll
 0002:0000027c       __imp_?qt_cast@QFrame@@UAEPAXPBD@Z 1000827c     qt-mt323:qt-mt323.dll
 0002:00000280       __imp_?qt_cast@QHBoxLayout@@UAEPAXPBD@Z 10008280     qt-mt323:qt-mt323.dll
 0002:00000284       __imp_?qt_cast@QLabel@@UAEPAXPBD@Z 10008284     qt-mt323:qt-mt323.dll
 0002:00000288       __imp_?qt_cast@QLineEdit@@UAEPAXPBD@Z 10008288     qt-mt323:qt-mt323.dll
 0002:0000028c       __imp_?qt_cast@QPushButton@@UAEPAXPBD@Z 1000828c     qt-mt323:qt-mt323.dll
 0002:00000290       __imp_?qt_cast@QVBoxLayout@@UAEPAXPBD@Z 10008290     qt-mt323:qt-mt323.dll
 0002:00000294       __imp_?qt_emit@QFrame@@UAE_NHPAUQUObject@@@Z 10008294     qt-mt323:qt-mt323.dll
 0002:00000298       __imp_?qt_emit@QHBoxLayout@@UAE_NHPAUQUObject@@@Z 10008298     qt-mt323:qt-mt323.dll
 0002:0000029c       __imp_?qt_emit@QLabel@@UAE_NHPAUQUObject@@@Z 1000829c     qt-mt323:qt-mt323.dll
 0002:000002a0       __imp_?qt_emit@QLineEdit@@UAE_NHPAUQUObject@@@Z 100082a0     qt-mt323:qt-mt323.dll
 0002:000002a4       __imp_?qt_emit@QPushButton@@UAE_NHPAUQUObject@@@Z 100082a4     qt-mt323:qt-mt323.dll
 0002:000002a8       __imp_?qt_emit@QVBoxLayout@@UAE_NHPAUQUObject@@@Z 100082a8     qt-mt323:qt-mt323.dll
 0002:000002ac       __imp_?qt_invoke@QFrame@@UAE_NHPAUQUObject@@@Z 100082ac     qt-mt323:qt-mt323.dll
 0002:000002b0       __imp_?qt_invoke@QHBoxLayout@@UAE_NHPAUQUObject@@@Z 100082b0     qt-mt323:qt-mt323.dll
 0002:000002b4       __imp_?qt_invoke@QLabel@@UAE_NHPAUQUObject@@@Z 100082b4     qt-mt323:qt-mt323.dll
 0002:000002b8       __imp_?qt_invoke@QLineEdit@@UAE_NHPAUQUObject@@@Z 100082b8     qt-mt323:qt-mt323.dll
 0002:000002bc       __imp_?qt_invoke@QPushButton@@UAE_NHPAUQUObject@@@Z 100082bc     qt-mt323:qt-mt323.dll
 0002:000002c0       __imp_?qt_invoke@QVBoxLayout@@UAE_NHPAUQUObject@@@Z 100082c0     qt-mt323:qt-mt323.dll
 0002:000002c4       __imp_?qt_property@QFrame@@UAE_NHHPAVQVariant@@@Z 100082c4     qt-mt323:qt-mt323.dll
 0002:000002c8       __imp_?qt_property@QHBoxLayout@@UAE_NHHPAVQVariant@@@Z 100082c8     qt-mt323:qt-mt323.dll
 0002:000002cc       __imp_?qt_property@QLabel@@UAE_NHHPAVQVariant@@@Z 100082cc     qt-mt323:qt-mt323.dll
 0002:000002d0       __imp_?qt_property@QLineEdit@@UAE_NHHPAVQVariant@@@Z 100082d0     qt-mt323:qt-mt323.dll
 0002:000002d4       __imp_?qt_property@QPushButton@@UAE_NHHPAVQVariant@@@Z 100082d4     qt-mt323:qt-mt323.dll
 0002:000002d8       __imp_?qt_property@QVBoxLayout@@UAE_NHHPAVQVariant@@@Z 100082d8     qt-mt323:qt-mt323.dll
 0002:000002dc       __imp_?redo@QLineEdit@@UAEXXZ 100082dc     qt-mt323:qt-mt323.dll
 0002:000002e0       __imp_?reject@QDialog@@MAEXXZ 100082e0     qt-mt323:qt-mt323.dll
 0002:000002e4       __imp_?removeChild@QObject@@UAEXPAV1@@Z 100082e4     qt-mt323:qt-mt323.dll
 0002:000002e8       __imp_?reparent@QWidget@@UAEXPAV1@IABVQPoint@@_N@Z 100082e8     qt-mt323:qt-mt323.dll
 0002:000002ec       __imp_?resize@QDialog@@UAEXHH@Z 100082ec     qt-mt323:qt-mt323.dll
 0002:000002f0       __imp_?resize@QPushButton@@UAEXHH@Z 100082f0     qt-mt323:qt-mt323.dll
 0002:000002f4       __imp_?resize@QWidget@@UAEXHH@Z 100082f4     qt-mt323:qt-mt323.dll
 0002:000002f8       __imp_?resizeEvent@QDialog@@MAEXPAVQResizeEvent@@@Z 100082f8     qt-mt323:qt-mt323.dll
 0002:000002fc       __imp_?resizeEvent@QFrame@@MAEXPAVQResizeEvent@@@Z 100082fc     qt-mt323:qt-mt323.dll
 0002:00000300       __imp_?resizeEvent@QLabel@@MAEXPAVQResizeEvent@@@Z 10008300     qt-mt323:qt-mt323.dll
 0002:00000304       __imp_?resizeEvent@QLineEdit@@MAEXPAVQResizeEvent@@@Z 10008304     qt-mt323:qt-mt323.dll
 0002:00000308       __imp_?resizeEvent@QPushButton@@MAEXPAVQResizeEvent@@@Z 10008308     qt-mt323:qt-mt323.dll
 0002:0000030c       __imp_?resolution@QPaintDevice@@UBEHXZ 1000830c     qt-mt323:qt-mt323.dll
 0002:00000310       __imp_?selectAll@QLineEdit@@UAEXXZ 10008310     qt-mt323:qt-mt323.dll
 0002:00000314       __imp_?setAccel@QButton@@UAEXABVQKeySequence@@@Z 10008314     qt-mt323:qt-mt323.dll
 0002:00000318       __imp_?setAcceptDrops@QWidget@@UAEX_N@Z 10008318     qt-mt323:qt-mt323.dll
 0002:0000031c       __imp_?setActiveWindow@QWidget@@UAEXXZ 1000831c     qt-mt323:qt-mt323.dll
 0002:00000320       __imp_?setAlignment@QLabel@@UAEXH@Z 10008320     qt-mt323:qt-mt323.dll
 0002:00000324       __imp_?setAlignment@QLayoutItem@@UAEXH@Z 10008324     qt-mt323:qt-mt323.dll
 0002:00000328       __imp_?setAlignment@QLineEdit@@UAEXH@Z 10008328     qt-mt323:qt-mt323.dll
 0002:0000032c       __imp_?setAutoAdd@QLayout@@UAEX_N@Z 1000832c     qt-mt323:qt-mt323.dll
 0002:00000330       __imp_?setAutoDefault@QPushButton@@UAEX_N@Z 10008330     qt-mt323:qt-mt323.dll
 0002:00000334       __imp_?setAutoMask@QWidget@@UAEX_N@Z 10008334     qt-mt323:qt-mt323.dll
 0002:00000338       __imp_?setAutoRepeat@QButton@@UAEX_N@Z 10008338     qt-mt323:qt-mt323.dll
 0002:0000033c       __imp_?setAutoResize@QLabel@@UAEX_N@Z 1000833c     qt-mt323:qt-mt323.dll
 0002:00000340       __imp_?setBackgroundColor@QWidget@@UAEXABVQColor@@@Z 10008340     qt-mt323:qt-mt323.dll
 0002:00000344       __imp_?setBackgroundMode@QWidget@@UAEXW4BackgroundMode@Qt@@@Z 10008344     qt-mt323:qt-mt323.dll
 0002:00000348       __imp_?setBackgroundOrigin@QWidget@@UAEXW4BackgroundOrigin@1@@Z 10008348     qt-mt323:qt-mt323.dll
 0002:0000034c       __imp_?setBackgroundPixmap@QWidget@@UAEXABVQPixmap@@@Z 1000834c     qt-mt323:qt-mt323.dll
 0002:00000350       __imp_?setBuddy@QLabel@@UAEXPAVQWidget@@@Z 10008350     qt-mt323:qt-mt323.dll
 0002:00000354       __imp_?setCaption@QWidget@@UAEXABVQString@@@Z 10008354     qt-mt323:qt-mt323.dll
 0002:00000358       __imp_?setCursor@QWidget@@UAEXABVQCursor@@@Z 10008358     qt-mt323:qt-mt323.dll
 0002:0000035c       __imp_?setCursorPosition@QLineEdit@@UAEXH@Z 1000835c     qt-mt323:qt-mt323.dll
 0002:00000360       __imp_?setDefault@QPushButton@@UAEX_N@Z 10008360     qt-mt323:qt-mt323.dll
 0002:00000364       __imp_?setDown@QButton@@UAEX_N@Z 10008364     qt-mt323:qt-mt323.dll
 0002:00000368       __imp_?setDragEnabled@QLineEdit@@UAEX_N@Z 10008368     qt-mt323:qt-mt323.dll
 0002:0000036c       __imp_?setEchoMode@QLineEdit@@UAEXW4EchoMode@1@@Z 1000836c     qt-mt323:qt-mt323.dll
 0002:00000370       __imp_?setEnabled@QWidget@@UAEX_N@Z 10008370     qt-mt323:qt-mt323.dll
 0002:00000374       __imp_?setEraseColor@QWidget@@UAEXABVQColor@@@Z 10008374     qt-mt323:qt-mt323.dll
 0002:00000378       __imp_?setErasePixmap@QWidget@@UAEXABVQPixmap@@@Z 10008378     qt-mt323:qt-mt323.dll
 0002:0000037c       __imp_?setFocus@QWidget@@UAEXXZ 1000837c     qt-mt323:qt-mt323.dll
 0002:00000380       __imp_?setFocusPolicy@QWidget@@UAEXW4FocusPolicy@1@@Z 10008380     qt-mt323:qt-mt323.dll
 0002:00000384       __imp_?setFocusProxy@QWidget@@UAEXPAV1@@Z 10008384     qt-mt323:qt-mt323.dll
 0002:00000388       __imp_?setFont@QLabel@@UAEXABVQFont@@@Z 10008388     qt-mt323:qt-mt323.dll
 0002:0000038c       __imp_?setFont@QLineEdit@@UAEXABVQFont@@@Z 1000838c     qt-mt323:qt-mt323.dll
 0002:00000390       __imp_?setFont@QWidget@@UAEXABVQFont@@@Z 10008390     qt-mt323:qt-mt323.dll
 0002:00000394       __imp_?setFrame@QLineEdit@@UAEX_N@Z 10008394     qt-mt323:qt-mt323.dll
 0002:00000398       __imp_?setFrameRect@QFrame@@UAEXABVQRect@@@Z 10008398     qt-mt323:qt-mt323.dll
 0002:0000039c       __imp_?setFrameStyle@QFrame@@UAEXH@Z 1000839c     qt-mt323:qt-mt323.dll
 0002:000003a0       __imp_?setGeometry@QBoxLayout@@UAEXABVQRect@@@Z 100083a0     qt-mt323:qt-mt323.dll
 0002:000003a4       __imp_?setGeometry@QDialog@@UAEXABVQRect@@@Z 100083a4     qt-mt323:qt-mt323.dll
 0002:000003a8       __imp_?setGeometry@QDialog@@UAEXHHHH@Z 100083a8     qt-mt323:qt-mt323.dll
 0002:000003ac       __imp_?setGeometry@QPushButton@@UAEXABVQRect@@@Z 100083ac     qt-mt323:qt-mt323.dll
 0002:000003b0       __imp_?setGeometry@QPushButton@@UAEXHHHH@Z 100083b0     qt-mt323:qt-mt323.dll
 0002:000003b4       __imp_?setGeometry@QSpacerItem@@UAEXABVQRect@@@Z 100083b4     qt-mt323:qt-mt323.dll
 0002:000003b8       __imp_?setGeometry@QWidget@@UAEXABVQRect@@@Z 100083b8     qt-mt323:qt-mt323.dll
 0002:000003bc       __imp_?setGeometry@QWidget@@UAEXHHHH@Z 100083bc     qt-mt323:qt-mt323.dll
 0002:000003c0       __imp_?setGroup@QButton@@EAEXPAVQButtonGroup@@@Z 100083c0     qt-mt323:qt-mt323.dll
 0002:000003c4       __imp_?setIcon@QWidget@@UAEXABVQPixmap@@@Z 100083c4     qt-mt323:qt-mt323.dll
 0002:000003c8       __imp_?setIconText@QWidget@@UAEXABVQString@@@Z 100083c8     qt-mt323:qt-mt323.dll
 0002:000003cc       __imp_?setIsMenuButton@QPushButton@@UAEX_N@Z 100083cc     qt-mt323:qt-mt323.dll
 0002:000003d0       __imp_?setKeyCompression@QWidget@@MAEX_N@Z 100083d0     qt-mt323:qt-mt323.dll
 0002:000003d4       __imp_?setLineWidth@QFrame@@UAEXH@Z 100083d4     qt-mt323:qt-mt323.dll
 0002:000003d8       __imp_?setMargin@QFrame@@UAEXH@Z 100083d8     qt-mt323:qt-mt323.dll
 0002:000003dc       __imp_?setMargin@QLayout@@UAEXH@Z 100083dc     qt-mt323:qt-mt323.dll
 0002:000003e0       __imp_?setMask@QWidget@@UAEXABVQBitmap@@@Z 100083e0     qt-mt323:qt-mt323.dll
 0002:000003e4       __imp_?setMask@QWidget@@UAEXABVQRegion@@@Z 100083e4     qt-mt323:qt-mt323.dll
 0002:000003e8       __imp_?setMaxLength@QLineEdit@@UAEXH@Z 100083e8     qt-mt323:qt-mt323.dll
 0002:000003ec       __imp_?setMaximumSize@QWidget@@UAEXHH@Z 100083ec     qt-mt323:qt-mt323.dll
 0002:000003f0       __imp_?setMenuBar@QLayout@@UAEXPAVQMenuBar@@@Z 100083f0     qt-mt323:qt-mt323.dll
 0002:000003f4       __imp_?setMicroFocusHint@QWidget@@MAEXHHHH_NPAVQFont@@@Z 100083f4     qt-mt323:qt-mt323.dll
 0002:000003f8       __imp_?setMidLineWidth@QFrame@@UAEXH@Z 100083f8     qt-mt323:qt-mt323.dll
 0002:000003fc       __imp_?setMinimumSize@QWidget@@UAEXHH@Z 100083fc     qt-mt323:qt-mt323.dll
 0002:00000400       __imp_?setMouseTracking@QWidget@@UAEX_N@Z 10008400     qt-mt323:qt-mt323.dll
 0002:00000404       __imp_?setMovie@QLabel@@UAEXABVQMovie@@@Z 10008404     qt-mt323:qt-mt323.dll
 0002:00000408       __imp_?setName@QObject@@UAEXPBD@Z 10008408     qt-mt323:qt-mt323.dll
 0002:0000040c       __imp_?setNum@QLabel@@UAEXH@Z 1000840c     qt-mt323:qt-mt323.dll
 0002:00000410       __imp_?heightForWidth@QWidget@@UBEHH@Z 10008410     qt-mt323:qt-mt323.dll
 0002:00000414       __imp_?setOn@QPushButton@@UAEX_N@Z 10008414     qt-mt323:qt-mt323.dll
 0002:00000418       __imp_?setPalette@QLineEdit@@UAEXABVQPalette@@@Z 10008418     qt-mt323:qt-mt323.dll
 0002:0000041c       __imp_?setPalette@QWidget@@UAEXABVQPalette@@@Z 1000841c     qt-mt323:qt-mt323.dll
 0002:00000420       __imp_?setPaletteBackgroundColor@QWidget@@UAEXABVQColor@@@Z 10008420     qt-mt323:qt-mt323.dll
 0002:00000424       __imp_?setPaletteBackgroundPixmap@QWidget@@UAEXABVQPixmap@@@Z 10008424     qt-mt323:qt-mt323.dll
 0002:00000428       __imp_?setPicture@QLabel@@UAEXABVQPicture@@@Z 10008428     qt-mt323:qt-mt323.dll
 0002:0000042c       __imp_?setPixmap@QButton@@UAEXABVQPixmap@@@Z 1000842c     qt-mt323:qt-mt323.dll
 0002:00000430       __imp_?setPixmap@QLabel@@UAEXABVQPixmap@@@Z 10008430     qt-mt323:qt-mt323.dll
 0002:00000434       __imp_?setProperty@QObject@@UAE_NPBDABVQVariant@@@Z 10008434     qt-mt323:qt-mt323.dll
 0002:00000438       __imp_?setReadOnly@QLineEdit@@UAEX_N@Z 10008438     qt-mt323:qt-mt323.dll
 0002:0000043c       __imp_?setResolution@QPaintDevice@@UAEXH@Z 1000843c     qt-mt323:qt-mt323.dll
 0002:00000440       __imp_?setSelection@QLineEdit@@UAEXHH@Z 10008440     qt-mt323:qt-mt323.dll
 0002:00000444       __imp_?setSizeIncrement@QWidget@@UAEXHH@Z 10008444     qt-mt323:qt-mt323.dll
 0002:00000448       __imp_?setSizePolicy@QWidget@@UAEXVQSizePolicy@@@Z 10008448     qt-mt323:qt-mt323.dll
 0002:0000044c       __imp_?setSpacing@QLayout@@UAEXH@Z 1000844c     qt-mt323:qt-mt323.dll
 0002:00000450       __imp_?setState@QButton@@MAEXW4ToggleState@1@@Z 10008450     qt-mt323:qt-mt323.dll
 0002:00000454       __imp_?setText@QButton@@UAEXABVQString@@@Z 10008454     qt-mt323:qt-mt323.dll
 0002:00000458       __imp_?setText@QLabel@@UAEXABVQString@@@Z 10008458     qt-mt323:qt-mt323.dll
 0002:0000045c       __imp_?setText@QLineEdit@@UAEXABVQString@@@Z 1000845c     qt-mt323:qt-mt323.dll
 0002:00000460       __imp_?setToggleType@QButton@@MAEXW4ToggleType@1@@Z 10008460     qt-mt323:qt-mt323.dll
 0002:00000464       __imp_?setUpdatesEnabled@QWidget@@UAEX_N@Z 10008464     qt-mt323:qt-mt323.dll
 0002:00000468       __imp_?setValidator@QLineEdit@@UAEXPBVQValidator@@@Z 10008468     qt-mt323:qt-mt323.dll
 0002:0000046c       __imp_?setWFlags@QWidget@@MAEXI@Z 1000846c     qt-mt323:qt-mt323.dll
 0002:00000470       __imp_?setWState@QWidget@@MAEXI@Z 10008470     qt-mt323:qt-mt323.dll
 0002:00000474       __imp_?show@QDialog@@UAEXXZ 10008474     qt-mt323:qt-mt323.dll
 0002:00000478       __imp_?show@QWidget@@UAEXXZ 10008478     qt-mt323:qt-mt323.dll
 0002:0000047c       __imp_?showEvent@QWidget@@MAEXPAVQShowEvent@@@Z 1000847c     qt-mt323:qt-mt323.dll
 0002:00000480       __imp_?showMaximized@QWidget@@UAEXXZ 10008480     qt-mt323:qt-mt323.dll
 0002:00000484       __imp_?showMinimized@QWidget@@UAEXXZ 10008484     qt-mt323:qt-mt323.dll
 0002:00000488       __imp_?showNormal@QWidget@@UAEXXZ 10008488     qt-mt323:qt-mt323.dll
 0002:0000048c       __imp_?sizeHint@QBoxLayout@@UBE?AVQSize@@XZ 1000848c     qt-mt323:qt-mt323.dll
 0002:00000490       __imp_?sizeHint@QDialog@@UBE?AVQSize@@XZ 10008490     qt-mt323:qt-mt323.dll
 0002:00000494       __imp_?sizeHint@QFrame@@UBE?AVQSize@@XZ 10008494     qt-mt323:qt-mt323.dll
 0002:00000498       __imp_?sizeHint@QLabel@@UBE?AVQSize@@XZ 10008498     qt-mt323:qt-mt323.dll
 0002:0000049c       __imp_?sizeHint@QLineEdit@@UBE?AVQSize@@XZ 1000849c     qt-mt323:qt-mt323.dll
 0002:000004a0       __imp_?sizeHint@QPushButton@@UBE?AVQSize@@XZ 100084a0     qt-mt323:qt-mt323.dll
 0002:000004a4       __imp_?sizeHint@QSpacerItem@@UBE?AVQSize@@XZ 100084a4     qt-mt323:qt-mt323.dll
 0002:000004a8       __imp_?sizePolicy@QWidget@@UBE?AVQSizePolicy@@XZ 100084a8     qt-mt323:qt-mt323.dll
 0002:000004ac       __imp_?spacerItem@QLayoutItem@@UAEPAVQSpacerItem@@XZ 100084ac     qt-mt323:qt-mt323.dll
 0002:000004b0       __imp_?spacerItem@QSpacerItem@@UAEPAV1@XZ 100084b0     qt-mt323:qt-mt323.dll
 0002:000004b4       __imp_?styleChange@QFrame@@MAEXAAVQStyle@@@Z 100084b4     qt-mt323:qt-mt323.dll
 0002:000004b8       __imp_?styleChange@QWidget@@MAEXAAVQStyle@@@Z 100084b8     qt-mt323:qt-mt323.dll
 0002:000004bc       __imp_?tabletEvent@QWidget@@MAEXPAVQTabletEvent@@@Z 100084bc     qt-mt323:qt-mt323.dll
 0002:000004c0       __imp_?timerEvent@QObject@@MAEXPAVQTimerEvent@@@Z 100084c0     qt-mt323:qt-mt323.dll
 0002:000004c4       __imp_?undo@QLineEdit@@UAEXXZ 100084c4     qt-mt323:qt-mt323.dll
 0002:000004c8       __imp_?unsetCursor@QWidget@@UAEXXZ 100084c8     qt-mt323:qt-mt323.dll
 0002:000004cc       __imp_?updateMask@QPushButton@@MAEXXZ 100084cc     qt-mt323:qt-mt323.dll
 0002:000004d0       __imp_?updateMask@QWidget@@MAEXXZ 100084d0     qt-mt323:qt-mt323.dll
 0002:000004d4       __imp_?wheelEvent@QWidget@@MAEXPAVQWheelEvent@@@Z 100084d4     qt-mt323:qt-mt323.dll
 0002:000004d8       __imp_?widget@QLayoutItem@@UAEPAVQWidget@@XZ 100084d8     qt-mt323:qt-mt323.dll
 0002:000004dc       __imp_?winEvent@QWidget@@MAE_NPAUtagMSG@@@Z 100084dc     qt-mt323:qt-mt323.dll
 0002:000004e0       __imp_?windowActivationChange@QLineEdit@@MAEX_N@Z 100084e0     qt-mt323:qt-mt323.dll
 0002:000004e4       __imp_?windowActivationChange@QWidget@@MAEX_N@Z 100084e4     qt-mt323:qt-mt323.dll
 0002:000004e8       __imp_?null@QString@@2V1@A 100084e8     qt-mt323:qt-mt323.dll
 0002:000004ec       __imp_??0QString@@QAE@PBD@Z 100084ec     qt-mt323:qt-mt323.dll
 0002:000004f0       __imp_?arg@QString@@QBE?AV1@ABV1@H@Z 100084f0     qt-mt323:qt-mt323.dll
 0002:000004f4       __imp_?ascii@QString@@QBEPBDXZ 100084f4     qt-mt323:qt-mt323.dll
 0002:000004f8       __imp_??H@YA?BVQString@@ABV0@0@Z 100084f8     qt-mt323:qt-mt323.dll
 0002:000004fc       __imp_??H@YA?BVQString@@PBDABV0@@Z 100084fc     qt-mt323:qt-mt323.dll
 0002:00000500       __imp_?main_widget@QApplication@@0PAVQWidget@@A 10008500     qt-mt323:qt-mt323.dll
 0002:00000504       __imp_??0QString@@QAE@XZ   10008504     qt-mt323:qt-mt323.dll
 0002:00000508       __imp_??0QString@@QAE@ABV0@@Z 10008508     qt-mt323:qt-mt323.dll
 0002:0000050c       __imp_??4QString@@QAEAAV0@ABV0@@Z 1000850c     qt-mt323:qt-mt323.dll
 0002:00000510       __imp_??4QString@@QAEAAV0@PBD@Z 10008510     qt-mt323:qt-mt323.dll
 0002:00000514       __imp_?arg@QString@@QBE?AV1@HHH@Z 10008514     qt-mt323:qt-mt323.dll
 0002:00000518       __imp_??YQString@@QAEAAV0@ABV0@@Z 10008518     qt-mt323:qt-mt323.dll
 0002:0000051c       __imp_??0QGList@@IAE@XZ    1000851c     qt-mt323:qt-mt323.dll
 0002:00000520       __imp_??0QGList@@IAE@ABV0@@Z 10008520     qt-mt323:qt-mt323.dll
 0002:00000524       __imp_??1QGList@@MAE@XZ    10008524     qt-mt323:qt-mt323.dll
 0002:00000528       __imp_??4QGList@@IAEAAV0@ABV0@@Z 10008528     qt-mt323:qt-mt323.dll
 0002:0000052c       __imp_??8QGList@@IBE_NABV0@@Z 1000852c     qt-mt323:qt-mt323.dll
 0002:00000530       __imp_?inSort@QGList@@IAEXPAX@Z 10008530     qt-mt323:qt-mt323.dll
 0002:00000534       __imp_?append@QGList@@IAEXPAX@Z 10008534     qt-mt323:qt-mt323.dll
 0002:00000538       __imp_?insertAt@QGList@@IAE_NIPAX@Z 10008538     qt-mt323:qt-mt323.dll
 0002:0000053c       __imp_?removeNode@QGList@@IAE_NPAVQLNode@@@Z 1000853c     qt-mt323:qt-mt323.dll
 0002:00000540       __imp_?remove@QGList@@IAE_NPAX@Z 10008540     qt-mt323:qt-mt323.dll
 0002:00000544       __imp_?removeRef@QGList@@IAE_NPAX@Z 10008544     qt-mt323:qt-mt323.dll
 0002:00000548       __imp_?removeAt@QGList@@IAE_NI@Z 10008548     qt-mt323:qt-mt323.dll
 0002:0000054c       __imp_?replaceAt@QGList@@IAE_NIPAX@Z 1000854c     qt-mt323:qt-mt323.dll
 0002:00000550       __imp_?takeNode@QGList@@IAEPAXPAVQLNode@@@Z 10008550     qt-mt323:qt-mt323.dll
 0002:00000554       __imp_?take@QGList@@IAEPAXXZ 10008554     qt-mt323:qt-mt323.dll
 0002:00000558       __imp_?takeAt@QGList@@IAEPAXI@Z 10008558     qt-mt323:qt-mt323.dll
 0002:0000055c       __imp_?sort@QGList@@IAEXXZ 1000855c     qt-mt323:qt-mt323.dll
 0002:00000560       __imp_?clear@QGList@@MAEXXZ 10008560     qt-mt323:qt-mt323.dll
 0002:00000564       __imp_?findRef@QGList@@IAEHPAX_N@Z 10008564     qt-mt323:qt-mt323.dll
 0002:00000568       __imp_?find@QGList@@IAEHPAX_N@Z 10008568     qt-mt323:qt-mt323.dll
 0002:0000056c       __imp_?containsRef@QGList@@IBEIPAX@Z 1000856c     qt-mt323:qt-mt323.dll
 0002:00000570       __imp_?contains@QGList@@IBEIPAX@Z 10008570     qt-mt323:qt-mt323.dll
 0002:00000574       __imp_?first@QGList@@IAEPAXXZ 10008574     qt-mt323:qt-mt323.dll
 0002:00000578       __imp_?last@QGList@@IAEPAXXZ 10008578     qt-mt323:qt-mt323.dll
 0002:0000057c       __imp_?next@QGList@@IAEPAXXZ 1000857c     qt-mt323:qt-mt323.dll
 0002:00000580       __imp_?prev@QGList@@IAEPAXXZ 10008580     qt-mt323:qt-mt323.dll
 0002:00000584       __imp_?toVector@QGList@@IBEXPAVQGVector@@@Z 10008584     qt-mt323:qt-mt323.dll
 0002:00000588       __imp_?erase@QGList@@IAEPAVQLNode@@PAV2@@Z 10008588     qt-mt323:qt-mt323.dll
 0002:0000058c       __imp_?locate@QGList@@AAEPAVQLNode@@I@Z 1000858c     qt-mt323:qt-mt323.dll
 0002:00000590       __imp_??0QGListIterator@@IAE@ABVQGList@@@Z 10008590     qt-mt323:qt-mt323.dll
 0002:00000594       __imp_??0QGListIterator@@IAE@ABV0@@Z 10008594     qt-mt323:qt-mt323.dll
 0002:00000598       __imp_??4QGListIterator@@IAEAAV0@ABV0@@Z 10008598     qt-mt323:qt-mt323.dll
 0002:0000059c       __imp_??1QGListIterator@@IAE@XZ 1000859c     qt-mt323:qt-mt323.dll
 0002:000005a0       __imp_?toFirst@QGListIterator@@IAEPAXXZ 100085a0     qt-mt323:qt-mt323.dll
 0002:000005a4       __imp_?toLast@QGListIterator@@IAEPAXXZ 100085a4     qt-mt323:qt-mt323.dll
 0002:000005a8       __imp_??RQGListIterator@@IAEPAXXZ 100085a8     qt-mt323:qt-mt323.dll
 0002:000005ac       __imp_??EQGListIterator@@IAEPAXXZ 100085ac     qt-mt323:qt-mt323.dll
 0002:000005b0       __imp_??YQGListIterator@@IAEPAXI@Z 100085b0     qt-mt323:qt-mt323.dll
 0002:000005b4       __imp_??FQGListIterator@@IAEPAXXZ 100085b4     qt-mt323:qt-mt323.dll
 0002:000005b8       __imp_??ZQGListIterator@@IAEPAXI@Z 100085b8     qt-mt323:qt-mt323.dll
 0002:000005bc       __imp_?name@QObject@@QBEPBDXZ 100085bc     qt-mt323:qt-mt323.dll
 0002:000005c0       __imp_??0QWidget@@QAE@PAV0@PBDI@Z 100085c0     qt-mt323:qt-mt323.dll
 0002:000005c4       __imp_?rect@QWidget@@QBE?AVQRect@@XZ 100085c4     qt-mt323:qt-mt323.dll
 0002:000005c8       __imp_?update@QWidget@@QAEXXZ 100085c8     qt-mt323:qt-mt323.dll
 0002:000005cc       __imp_??0QWidget@@QAE@ABV0@@Z 100085cc     qt-mt323:qt-mt323.dll
 0002:000005d0       __imp_??4QWidget@@QAEAAV0@ABV0@@Z 100085d0     qt-mt323:qt-mt323.dll
 0002:000005d4       __imp_??0QPainter@@QAE@PBVQPaintDevice@@_N@Z 100085d4     qt-mt323:qt-mt323.dll
 0002:000005d8       __imp_??1QPainter@@QAE@XZ  100085d8     qt-mt323:qt-mt323.dll
 0002:000005dc       __imp_?drawPixmap@QPainter@@QAEXABVQRect@@ABVQPixmap@@@Z 100085dc     qt-mt323:qt-mt323.dll
 0002:000005e0       __imp_?exec@QDialog@@QAEHXZ 100085e0     qt-mt323:qt-mt323.dll
 0002:000005e4       __imp_?text@QLineEdit@@QBE?AVQString@@XZ 100085e4     qt-mt323:qt-mt323.dll
 0002:000005e8       __imp_?compareItems@QGList@@MAEHPAX0@Z 100085e8     qt-mt323:qt-mt323.dll
 0002:000005ec       __imp_?detach@QPixmap@@UAEXXZ 100085ec     qt-mt323:qt-mt323.dll
 0002:000005f0       __imp_?metric@QPixmap@@MBEHH@Z 100085f0     qt-mt323:qt-mt323.dll
 0002:000005f4       __imp_?newItem@QPtrCollection@@MAEPAXPAX@Z 100085f4     qt-mt323:qt-mt323.dll
 0002:000005f8       __imp_?read@QGList@@MAEAAVQDataStream@@AAV2@AAPAX@Z 100085f8     qt-mt323:qt-mt323.dll
 0002:000005fc       __imp_?sizeHint@QWidget@@UBE?AVQSize@@XZ 100085fc     qt-mt323:qt-mt323.dll
 0002:00000600       __imp_?write@QGList@@MBEAAVQDataStream@@AAV2@PAX@Z 10008600     qt-mt323:qt-mt323.dll
 0002:00000604       __imp_?qstrcmp@@YAHPBD0@Z  10008604     qt-mt323:qt-mt323.dll
 0002:00000608       __imp_?fromLatin1@QString@@SA?AV1@PBDH@Z 10008608     qt-mt323:qt-mt323.dll
 0002:0000060c       __imp_?fromUtf8@QString@@SA?AV1@PBDH@Z 1000860c     qt-mt323:qt-mt323.dll
 0002:00000610       __imp_?qt_cast@QDialog@@UAEPAXPBD@Z 10008610     qt-mt323:qt-mt323.dll
 0002:00000614       __imp_?qt_invoke@QDialog@@UAE_NHPAUQUObject@@@Z 10008614     qt-mt323:qt-mt323.dll
 0002:00000618       __imp_?qt_emit@QDialog@@UAE_NHPAUQUObject@@@Z 10008618     qt-mt323:qt-mt323.dll
 0002:0000061c       __imp_?qt_property@QDialog@@UAE_NHHPAVQVariant@@@Z 1000861c     qt-mt323:qt-mt323.dll
 0002:00000620       __imp_?staticMetaObject@QDialog@@SAPAVQMetaObject@@XZ 10008620     qt-mt323:qt-mt323.dll
 0002:00000624       __imp_?new_metaobject@QMetaObject@@SAPAV1@PBDPAV1@QBUQMetaData@@H2HQBVQMetaProperty@@HQBUQMetaEnum@@HQBUQClassInfo@@H@Z 10008624     qt-mt323:qt-mt323.dll
 0002:00000628       __imp_??0QMetaObjectCleanUp@@QAE@PBDP6APAVQMetaObject@@XZ@Z 10008628     qt-mt323:qt-mt323.dll
 0002:0000062c       __imp_??1QMetaObjectCleanUp@@QAE@XZ 1000862c     qt-mt323:qt-mt323.dll
 0002:00000630       __imp_?setMetaObject@QMetaObjectCleanUp@@QAEXAAPAVQMetaObject@@@Z 10008630     qt-mt323:qt-mt323.dll
 0002:00000634       __imp_?translate@QApplication@@QBE?AVQString@@PBD00W4Encoding@1@@Z 10008634     qt-mt323:qt-mt323.dll
 0002:00000638       __imp_?qApp@@3PAVQApplication@@A 10008638     qt-mt323:qt-mt323.dll
 0002:0000063c       __imp_?receivers@QObject@@IBEPAVQConnectionList@@H@Z 1000863c     qt-mt323:qt-mt323.dll
 0002:00000640       __imp_?activate_signal@QObject@@IAEXPAVQConnectionList@@PAUQUObject@@@Z 10008640     qt-mt323:qt-mt323.dll
 0002:00000644       __imp_?qt_cast@QWidget@@UAEPAXPBD@Z 10008644     qt-mt323:qt-mt323.dll
 0002:00000648       __imp_?qt_invoke@QWidget@@UAE_NHPAUQUObject@@@Z 10008648     qt-mt323:qt-mt323.dll
 0002:0000064c       __imp_?qt_emit@QWidget@@UAE_NHPAUQUObject@@@Z 1000864c     qt-mt323:qt-mt323.dll
 0002:00000650       __imp_?qt_property@QWidget@@UAE_NHHPAVQVariant@@@Z 10008650     qt-mt323:qt-mt323.dll
 0002:00000654       __imp_?staticMetaObject@QWidget@@SAPAVQMetaObject@@XZ 10008654     qt-mt323:qt-mt323.dll
 0002:00000658       __imp_??0QUObject@@QAE@XZ  10008658     qt-mt323:qt-mt323.dll
 0002:0000065c       __imp_??1QUObject@@QAE@XZ  1000865c     qt-mt323:qt-mt323.dll
 0002:00000660       __imp_?set@QUType_QString@@QAEXPAUQUObject@@ABVQString@@@Z 10008660     qt-mt323:qt-mt323.dll
 0002:00000664       __imp_?static_QUType_QString@@3UQUType_QString@@A 10008664     qt-mt323:qt-mt323.dll
 0002:00000668       __imp_?static_QUType_varptr@@3UQUType_varptr@@A 10008668     qt-mt323:qt-mt323.dll
 0002:0000066c       __imp_??8@YA_NABVQString@@PBD@Z 1000866c     qt-mt323:qt-mt323.dll
 0002:00000670       __imp_??6?$QValueList@VQString@@@@QAEAAV0@ABVQString@@@Z 10008670     qt-mt323:qt-mt323.dll
 0002:00000674       __imp_?iface@QGPlugin@@QAEPAUQUnknownInterface@@XZ 10008674     qt-mt323:qt-mt323.dll
 0002:00000678       __imp_??0QStringList@@QAE@XZ 10008678     qt-mt323:qt-mt323.dll
 0002:0000067c       __imp_??1QStringList@@QAE@XZ 1000867c     qt-mt323:qt-mt323.dll
 0002:00000680       __imp_??0QIconSet@@QAE@XZ  10008680     qt-mt323:qt-mt323.dll
 0002:00000684       __imp_??0QIconSet@@QAE@ABVQPixmap@@W4Size@0@@Z 10008684     qt-mt323:qt-mt323.dll
 0002:00000688       __imp_??0QWidgetPlugin@@QAE@XZ 10008688     qt-mt323:qt-mt323.dll
 0002:0000068c       __imp_??1QWidgetPlugin@@UAE@XZ 1000868c     qt-mt323:qt-mt323.dll
 0002:00000690       __imp_?className@QWidgetPlugin@@UBEPBDXZ 10008690     qt-mt323:qt-mt323.dll
 0002:00000694       __imp_?metaObject@QWidgetPlugin@@UBEPAVQMetaObject@@XZ 10008694     qt-mt323:qt-mt323.dll
 0002:00000698       __imp_?qt_cast@QWidgetPlugin@@UAEPAXPBD@Z 10008698     qt-mt323:qt-mt323.dll
 0002:0000069c       __imp_?qt_emit@QWidgetPlugin@@UAE_NHPAUQUObject@@@Z 1000869c     qt-mt323:qt-mt323.dll
 0002:000006a0       __imp_?qt_invoke@QWidgetPlugin@@UAE_NHPAUQUObject@@@Z 100086a0     qt-mt323:qt-mt323.dll
 0002:000006a4       __imp_?qt_property@QWidgetPlugin@@UAE_NHHPAVQVariant@@@Z 100086a4     qt-mt323:qt-mt323.dll
 0002:000006a8       __imp_?heightForWidth@QLayoutItem@@UBEHH@Z 100086a8     qt-mt323:qt-mt323.dll
 0002:000006ac       __imp_?heightForWidth@QLabel@@UBEHH@Z 100086ac     qt-mt323:qt-mt323.dll
 0002:000006b0       __imp_?heightForWidth@QBoxLayout@@UBEHH@Z 100086b0     qt-mt323:qt-mt323.dll
 0002:000006b4       __imp_?hasHeightForWidth@QLayoutItem@@UBE_NXZ 100086b4     qt-mt323:qt-mt323.dll
 0002:000006b8       __imp_?hasHeightForWidth@QBoxLayout@@UBE_NXZ 100086b8     qt-mt323:qt-mt323.dll
 0002:000006bc       __imp_?handle@QPaintDevice@@UBEPAUHDC__@@XZ 100086bc     qt-mt323:qt-mt323.dll
 0002:000006c0       __imp_?geometry@QSpacerItem@@UBE?AVQRect@@XZ 100086c0     qt-mt323:qt-mt323.dll
 0002:000006c4       __imp_?geometry@QLayout@@UBE?AVQRect@@XZ 100086c4     qt-mt323:qt-mt323.dll
 0002:000006c8       __imp_?frameChanged@QFrame@@MAEXXZ 100086c8     qt-mt323:qt-mt323.dll
 0002:000006cc       __imp_?fontMet@QPaintDevice@@MBEHPAVQFont@@HPBDH@Z 100086cc     qt-mt323:qt-mt323.dll
 0002:000006d0       __imp_?fontInf@QPaintDevice@@MBEHPAVQFont@@H@Z 100086d0     qt-mt323:qt-mt323.dll
 0002:000006d4       __imp_?fontChange@QWidget@@MAEXABVQFont@@@Z 100086d4     qt-mt323:qt-mt323.dll
 0002:000006d8       __imp_?fontChange@QLabel@@MAEXABVQFont@@@Z 100086d8     qt-mt323:qt-mt323.dll
 0002:000006dc       __imp_?focusOutEvent@QWidget@@MAEXPAVQFocusEvent@@@Z 100086dc     qt-mt323:qt-mt323.dll
 0002:000006e0       __imp_?focusOutEvent@QPushButton@@MAEXPAVQFocusEvent@@@Z 100086e0     qt-mt323:qt-mt323.dll
 0002:000006e4       __imp_?focusOutEvent@QLineEdit@@MAEXPAVQFocusEvent@@@Z 100086e4     qt-mt323:qt-mt323.dll
 0002:000006e8       __imp_?focusNextPrevChild@QWidget@@MAE_N_N@Z 100086e8     qt-mt323:qt-mt323.dll
 0002:000006ec       __imp_?focusInEvent@QWidget@@MAEXPAVQFocusEvent@@@Z 100086ec     qt-mt323:qt-mt323.dll
 0002:000006f0       __imp_?focusInEvent@QPushButton@@MAEXPAVQFocusEvent@@@Z 100086f0     qt-mt323:qt-mt323.dll
 0002:000006f4       __imp_?focusInEvent@QLineEdit@@MAEXPAVQFocusEvent@@@Z 100086f4     qt-mt323:qt-mt323.dll
 0002:000006f8       __imp_?expanding@QSpacerItem@@UBE?AW4ExpandData@QSizePolicy@@XZ 100086f8     qt-mt323:qt-mt323.dll
 0002:000006fc       __imp_?expanding@QBoxLayout@@UBE?AW4ExpandData@QSizePolicy@@XZ 100086fc     qt-mt323:qt-mt323.dll
 0002:00000700       __imp_?eventFilter@QObject@@UAE_NPAV1@PAVQEvent@@@Z 10008700     qt-mt323:qt-mt323.dll
 0002:00000704       __imp_?eventFilter@QLayout@@MAE_NPAVQObject@@PAVQEvent@@@Z 10008704     qt-mt323:qt-mt323.dll
 0002:00000708       __imp_?eventFilter@QDialog@@MAE_NPAVQObject@@PAVQEvent@@@Z 10008708     qt-mt323:qt-mt323.dll
 0002:0000070c       __imp_?event@QWidget@@MAE_NPAVQEvent@@@Z 1000870c     qt-mt323:qt-mt323.dll
 0002:00000710       __imp_?event@QObject@@UAE_NPAVQEvent@@@Z 10008710     qt-mt323:qt-mt323.dll
 0002:00000714       __imp_?event@QLineEdit@@MAE_NPAVQEvent@@@Z 10008714     qt-mt323:qt-mt323.dll
 0002:00000718       __imp_?enterEvent@QWidget@@MAEXPAVQEvent@@@Z 10008718     qt-mt323:qt-mt323.dll
 0002:0000071c       __imp_?enabledChange@QWidget@@MAEX_N@Z 1000871c     qt-mt323:qt-mt323.dll
 0002:00000720       __imp_?enabledChange@QButton@@MAEX_N@Z 10008720     qt-mt323:qt-mt323.dll
 0002:00000724       __imp_?dropEvent@QWidget@@MAEXPAVQDropEvent@@@Z 10008724     qt-mt323:qt-mt323.dll
 0002:00000728       __imp_?dropEvent@QLineEdit@@MAEXPAVQDropEvent@@@Z 10008728     qt-mt323:qt-mt323.dll
 0002:0000072c       __imp_?drawFrame@QFrame@@MAEXPAVQPainter@@@Z 1000872c     qt-mt323:qt-mt323.dll
 0002:00000730       __imp_?drawContents@QLineEdit@@MAEXPAVQPainter@@@Z 10008730     qt-mt323:qt-mt323.dll
 0002:00000734       __imp_?drawContents@QLabel@@MAEXPAVQPainter@@@Z 10008734     qt-mt323:qt-mt323.dll
 0002:00000738       __imp_?drawContents@QFrame@@MAEXPAVQPainter@@@Z 10008738     qt-mt323:qt-mt323.dll
 0002:0000073c       __imp_?drawButtonLabel@QPushButton@@MAEXPAVQPainter@@@Z 1000873c     qt-mt323:qt-mt323.dll
 0002:00000740       __imp_?drawButton@QPushButton@@MAEXPAVQPainter@@@Z 10008740     qt-mt323:qt-mt323.dll
 0002:00000744       __imp_?dragMoveEvent@QWidget@@MAEXPAVQDragMoveEvent@@@Z 10008744     qt-mt323:qt-mt323.dll
 0002:00000748       __imp_?dragMoveEvent@QLineEdit@@MAEXPAVQDragMoveEvent@@@Z 10008748     qt-mt323:qt-mt323.dll
 0002:0000074c       __imp_?dragLeaveEvent@QWidget@@MAEXPAVQDragLeaveEvent@@@Z 1000874c     qt-mt323:qt-mt323.dll
 0002:00000750       __imp_?dragLeaveEvent@QLineEdit@@MAEXPAVQDragLeaveEvent@@@Z 10008750     qt-mt323:qt-mt323.dll
 0002:00000754       __imp_?dragEnterEvent@QWidget@@MAEXPAVQDragEnterEvent@@@Z 10008754     qt-mt323:qt-mt323.dll
 0002:00000758       __imp_?dragEnterEvent@QLineEdit@@MAEXPAVQDragEnterEvent@@@Z 10008758     qt-mt323:qt-mt323.dll
 0002:0000075c       __imp_?done@QDialog@@MAEXH@Z 1000875c     qt-mt323:qt-mt323.dll
 0002:00000760       __imp_?disconnectNotify@QObject@@MAEXPBD@Z 10008760     qt-mt323:qt-mt323.dll
 0002:00000764       __imp_?destroy@QWidget@@MAEX_N0@Z 10008764     qt-mt323:qt-mt323.dll
 0002:00000768       __imp_?deselect@QLineEdit@@UAEXXZ 10008768     qt-mt323:qt-mt323.dll
 0002:0000076c       __imp_?cut@QLineEdit@@UAEXXZ 1000876c     qt-mt323:qt-mt323.dll
 0002:00000770       __imp_?customWhatsThis@QWidget@@UBE_NXZ 10008770     qt-mt323:qt-mt323.dll
 0002:00000774       __imp_?customEvent@QObject@@MAEXPAVQCustomEvent@@@Z 10008774     qt-mt323:qt-mt323.dll
 0002:00000778       __imp_?createPopupMenu@QLineEdit@@MAEPAVQPopupMenu@@XZ 10008778     qt-mt323:qt-mt323.dll
 0002:0000077c       __imp_?create@QWidget@@MAEXPAUHWND__@@_N1@Z 1000877c     qt-mt323:qt-mt323.dll
 0002:00000780       __imp_?copy@QLineEdit@@UBEXXZ 10008780     qt-mt323:qt-mt323.dll
 0002:00000784       __imp_?contextMenuEvent@QWidget@@MAEXPAVQContextMenuEvent@@@Z 10008784     qt-mt323:qt-mt323.dll
 0002:00000788       __imp_?contextMenuEvent@QLineEdit@@MAEXPAVQContextMenuEvent@@@Z 10008788     qt-mt323:qt-mt323.dll
 0002:0000078c       __imp_?contextMenuEvent@QDialog@@MAEXPAVQContextMenuEvent@@@Z 1000878c     qt-mt323:qt-mt323.dll
 0002:00000790       __imp_?connectNotify@QObject@@MAEXPBD@Z 10008790     qt-mt323:qt-mt323.dll
 0002:00000794       __imp_?cmd@QPaintDevice@@MAE_NHPAVQPainter@@PATQPDevCmdParam@@@Z 10008794     qt-mt323:qt-mt323.dll
 0002:00000798       __imp_?closeEvent@QWidget@@MAEXPAVQCloseEvent@@@Z 10008798     qt-mt323:qt-mt323.dll
 0002:0000079c       __imp_?closeEvent@QDialog@@MAEXPAVQCloseEvent@@@Z 1000879c     qt-mt323:qt-mt323.dll
 0002:000007a0       __imp_?close@QWidget@@UAE_N_N@Z 100087a0     qt-mt323:qt-mt323.dll
 0002:000007a4       __imp_?clearValidator@QLineEdit@@UAEXXZ 100087a4     qt-mt323:qt-mt323.dll
 0002:000007a8       __imp_?clear@QLineEdit@@UAEXXZ 100087a8     qt-mt323:qt-mt323.dll
 0002:000007ac       __imp_?className@QVBoxLayout@@UBEPBDXZ 100087ac     qt-mt323:qt-mt323.dll
 0002:000007b0       __imp_?className@QPushButton@@UBEPBDXZ 100087b0     qt-mt323:qt-mt323.dll
 0002:000007b4       __imp_?className@QLineEdit@@UBEPBDXZ 100087b4     qt-mt323:qt-mt323.dll
 0002:000007b8       __imp_?className@QLabel@@UBEPBDXZ 100087b8     qt-mt323:qt-mt323.dll
 0002:000007bc       __imp_?className@QHBoxLayout@@UBEPBDXZ 100087bc     qt-mt323:qt-mt323.dll
 0002:000007c0       __imp_?className@QFrame@@UBEPBDXZ 100087c0     qt-mt323:qt-mt323.dll
 0002:000007c4       __imp_?childEvent@QObject@@MAEXPAVQChildEvent@@@Z 100087c4     qt-mt323:qt-mt323.dll
 0002:000007c8       __imp_?childEvent@QLayout@@MAEXPAVQChildEvent@@@Z 100087c8     qt-mt323:qt-mt323.dll
 0002:000007cc       __imp_?checkConnectArgs@QObject@@MAE_NPBDPBV1@0@Z 100087cc     qt-mt323:qt-mt323.dll
 0002:000007d0       __imp_?adjustSize@QWidget@@UAEXXZ 100087d0     qt-mt323:qt-mt323.dll
 0002:000007d4       __imp_?addItem@QBoxLayout@@UAEXPAVQLayoutItem@@@Z 100087d4     qt-mt323:qt-mt323.dll
 0002:000007d8       __imp_?accept@QDialog@@MAEXXZ 100087d8     qt-mt323:qt-mt323.dll
 0002:000007dc       __imp_??1QVBoxLayout@@UAE@XZ 100087dc     qt-mt323:qt-mt323.dll
 0002:000007e0       __imp_??0QVBoxLayout@@QAE@PAVQWidget@@HHPBD@Z 100087e0     qt-mt323:qt-mt323.dll
 0002:000007e4       __imp_??1QHBoxLayout@@UAE@XZ 100087e4     qt-mt323:qt-mt323.dll
 0002:000007e8       __imp_??0QHBoxLayout@@QAE@PAVQWidget@@HHPBD@Z 100087e8     qt-mt323:qt-mt323.dll
 0002:000007ec       __imp_?addLayout@QBoxLayout@@QAEXPAVQLayout@@H@Z 100087ec     qt-mt323:qt-mt323.dll
 0002:000007f0       __imp_?addWidget@QBoxLayout@@QAEXPAVQWidget@@HH@Z 100087f0     qt-mt323:qt-mt323.dll
 0002:000007f4       __imp_??0QSpacerItem@@QAE@HHW4SizeType@QSizePolicy@@0@Z 100087f4     qt-mt323:qt-mt323.dll
 0002:000007f8       __imp_??1QLayoutItem@@UAE@XZ 100087f8     qt-mt323:qt-mt323.dll
 0002:000007fc       __imp_??1QLineEdit@@UAE@XZ 100087fc     qt-mt323:qt-mt323.dll
 0002:00000800       __imp_??0QLineEdit@@QAE@PAVQWidget@@PBD@Z 10008800     qt-mt323:qt-mt323.dll
 0002:00000804       __imp_??1QLabel@@UAE@XZ    10008804     qt-mt323:qt-mt323.dll
 0002:00000808       __imp_??0QLabel@@QAE@PAVQWidget@@PBDI@Z 10008808     qt-mt323:qt-mt323.dll
 0002:0000080c       __imp_?setFrameShadow@QFrame@@QAEXW4Shadow@1@@Z 1000880c     qt-mt323:qt-mt323.dll
 0002:00000810       __imp_?setFrameShape@QFrame@@QAEXW4Shape@1@@Z 10008810     qt-mt323:qt-mt323.dll
 0002:00000814       __imp_??0QFrame@@QAE@PAVQWidget@@PBDI@Z 10008814     qt-mt323:qt-mt323.dll
 0002:00000818       __imp_??1QPushButton@@UAE@XZ 10008818     qt-mt323:qt-mt323.dll
 0002:0000081c       __imp_??0QPushButton@@QAE@PAVQWidget@@PBD@Z 1000881c     qt-mt323:qt-mt323.dll
 0002:00000820       __imp_??1QKeySequence@@QAE@XZ 10008820     qt-mt323:qt-mt323.dll
 0002:00000824       __imp_??0QKeySequence@@QAE@ABVQString@@@Z 10008824     qt-mt323:qt-mt323.dll
 0002:00000828       __imp_?setSizeGripEnabled@QDialog@@QAEX_N@Z 10008828     qt-mt323:qt-mt323.dll
 0002:0000082c       __imp_?minimumSizeHint@QDialog@@UBE?AVQSize@@XZ 1000882c     qt-mt323:qt-mt323.dll
 0002:00000830       __imp_?resize@QDialog@@QAEXABVQSize@@@Z 10008830     qt-mt323:qt-mt323.dll
 0002:00000834       __imp_??1QDialog@@UAE@XZ   10008834     qt-mt323:qt-mt323.dll
 0002:00000838       __imp_??0QDialog@@QAE@PAVQWidget@@PBD_NI@Z 10008838     qt-mt323:qt-mt323.dll
 0002:0000083c       __imp_?setTabOrder@QWidget@@SAXPAV1@0@Z 1000883c     qt-mt323:qt-mt323.dll
 0002:00000840       __imp_?setMinimumSize@QWidget@@QAEXABVQSize@@@Z 10008840     qt-mt323:qt-mt323.dll
 0002:00000844       __imp_?setName@QWidget@@UAEXPBD@Z 10008844     qt-mt323:qt-mt323.dll
 0002:00000848       __imp_??1QWidget@@UAE@XZ   10008848     qt-mt323:qt-mt323.dll
 0002:0000084c       __imp_?connect@QObject@@SA_NPBV1@PBD01@Z 1000884c     qt-mt323:qt-mt323.dll
 0002:00000850       __imp_??1QPixmap@@UAE@XZ   10008850     qt-mt323:qt-mt323.dll
 0002:00000854       __imp_??0QPixmap@@QAE@QAPBD@Z 10008854     qt-mt323:qt-mt323.dll
 0002:00000858       __imp_??1QString@@QAE@XZ   10008858     qt-mt323:qt-mt323.dll
 0002:0000085c       __imp_?setNum@QLabel@@UAEXN@Z 1000885c     qt-mt323:qt-mt323.dll
 0002:00000860       \177qt-mt323_NULL_THUNK_DATA 10008860     qt-mt323:qt-mt323.dll
 0002:00000864       ___xc_a                    10008864     MSVCRT:cinitexe.obj
 0002:00000874       ___xc_z                    10008874     MSVCRT:cinitexe.obj
 0002:00000878       ___xi_a                    10008878     MSVCRT:cinitexe.obj
 0002:00000884       ___xi_z                    10008884     MSVCRT:cinitexe.obj
 0002:00000890       ??_C@_01DCLJPIOD@?$CB?$AA@ 10008890     BNCS_CC02.obj
 0002:00000894       ??_C@_0CB@HCOCDGCJ@BNCS_CC02?4IMPOSSIBLE?5DLL?5VECTOR?$CB@ 10008894     BNCS_CC02.obj
 0002:000008b8       ??_C@_08FFPILECN@BBC_CC02?$AA@ 100088b8     BNCS_CC02.obj
 0002:000008c4       ??_C@_07GLAGEHGE@Title?51?$AA@ 100088c4     CC_COMPS.obj
 0002:000008cc       ??_C@_07EACLBEKH@Title?52?$AA@ 100088cc     CC_COMPS.obj
 0002:000008d4       ??_C@_07FJDACFOG@Title?53?$AA@ 100088d4     CC_COMPS.obj
 0002:000008dc       ??_C@_07BGHBLDCB@Title?54?$AA@ 100088dc     CC_COMPS.obj
 0002:000008e4       ??_C@_03NKJOOJDM@361?$AA@  100088e4     CC_COMPS.obj
 0002:000008e8       ??_C@_03NFLNALCB@000?$AA@  100088e8     CC_COMPS.obj
 0002:000008ec       ??_C@_03NKGMDAKO@090?$AA@  100088ec     CC_COMPS.obj
 0002:000008f0       ??_C@_03GDBCDNPM@180?$AA@  100088f0     CC_COMPS.obj
 0002:000008f4       ??_C@_03HKPLNFCP@270?$AA@  100088f4     CC_COMPS.obj
 0002:000008f8       ??_C@_04OHGLKFFN@?$CF03d?$AA@ 100088f8     CC_COMPS.obj
 0002:00000900       __real@00000000            10008900     CC_COMPS.obj
 0002:00000904       __real@3727c5ac            10008904     CC_COMPS.obj
 0002:00000908       __real@3c8efef4            10008908     CC_COMPS.obj
 0002:0000090c       __real@3e32ca58            1000890c     CC_COMPS.obj
 0002:00000910       __real@3f000000            10008910     CC_COMPS.obj
 0002:00000914       __real@3f4923a3            10008914     CC_COMPS.obj
 0002:00000918       __real@3f91dfde80fa7e3f    10008918     CC_COMPS.obj
 0002:00000920       __real@3f91e108c3f3e037    10008920     CC_COMPS.obj
 0002:00000928       __real@3fc91687            10008928     CC_COMPS.obj
 0002:00000930       __real@3fe0000000000000    10008930     CC_COMPS.obj
 0002:00000938       __real@40c91eb8            10008938     CC_COMPS.obj
 0002:00000940       __real@bfcc28f5c28f5c29    10008940     CC_COMPS.obj
 0002:00000948       __real@bfe0000000000000    10008948     CC_COMPS.obj
 0002:00000950       __real@bfeb333333333333    10008950     CC_COMPS.obj
 0002:00000958       __real@bfeccccccccccccd    10008958     CC_COMPS.obj
 0002:00000960       __real@bfedc28f5c28f5c3    10008960     CC_COMPS.obj
 0002:00000968       __real@bfee666666666666    10008968     CC_COMPS.obj
 0002:00000970       __real@bfeeb851eb851eb8    10008970     CC_COMPS.obj
 0002:00000978       ??_C@_00CNPNBAHC@?$AA@     10008978     CC_DRAW.obj
 0002:0000097c       ??_C@_08KIOEPGEK@?$CFs______?$AA@ 1000897c     CC_SUFU.obj
 0002:00000988       ??_C@_07PGKICGA@Title?55?$AA@ 10008988     CC_VTCLK.obj
 0002:00000990       ??_C@_07CEEHNBKD@Title?56?$AA@ 10008990     CC_VTCLK.obj
 0002:00000998       ??_C@_02LBFBOHNP@0?5?$AA@  10008998     CC_VTCLK.obj
 0002:0000099c       ??_C@_02IHCGGLPM@15?$AA@   1000899c     CC_VTCLK.obj
 0002:000009a0       ??_C@_02PJNFELNH@30?$AA@   100089a0     CC_VTCLK.obj
 0002:000009a4       ??_C@_02IBONKJBH@45?$AA@   100089a4     CC_VTCLK.obj
 0002:000009a8       __real@3fbacfcdc177bd5f    100089a8     CC_VTCLK.obj
 0002:000009b0       __real@3fbad42c3c9eecc0    100089b0     CC_VTCLK.obj
 0002:000009b8       __real@3fc999999999999a    100089b8     CC_VTCLK.obj
 0002:000009c0       __real@3fe0c49ba5e353f8    100089c0     CC_VTCLK.obj
 0002:000009c8       __real@4013333333333333    100089c8     CC_VTCLK.obj
 0002:000009d0       __real@4013666666666666    100089d0     CC_VTCLK.obj
 0002:000009d8       __real@40a00000            100089d8     CC_VTCLK.obj
 0002:000009dc       ??_C@_0N@IIAICGJO@WM_QUEUESYNC?$AA@ 100089dc     Cc_sufu_common.obj
 0002:000009ec       ??_C@_0BB@OONPDHIE@WM_GETMINMAXINFO?$AA@ 100089ec     Cc_sufu_common.obj
 0002:00000a00       ??_C@_09GCFDHNPF@WM_LOGOFF?$AA@ 10008a00     Cc_sufu_common.obj
 0002:00000a0c       ??_C@_0N@MNICHODK@WM_PAINTICON?$AA@ 10008a0c     Cc_sufu_common.obj
 0002:00000a1c       ??_C@_0BC@LNLNDDEJ@WM_ICONERASEBKGND?$AA@ 10008a1c     Cc_sufu_common.obj
 0002:00000a30       ??_C@_0O@KAFCFNAA@WM_NEXTDLGCTL?$AA@ 10008a30     Cc_sufu_common.obj
 0002:00000a40       ??_C@_0BA@ELDFILEP@WM_ALTTABACTIVE?$AA@ 10008a40     Cc_sufu_common.obj
 0002:00000a50       ??_C@_0BB@KMKIOGMF@WM_SPOOLERSTATUS?$AA@ 10008a50     Cc_sufu_common.obj
 0002:00000a64       ??_C@_0M@NMIKDPKC@WM_DRAWITEM?$AA@ 10008a64     Cc_sufu_common.obj
 0002:00000a70       ??_C@_0P@CGKCCAN@WM_MEASUREITEM?$AA@ 10008a70     Cc_sufu_common.obj
 0002:00000a80       ??_C@_0O@DFBAMDAL@WM_DELETEITEM?$AA@ 10008a80     Cc_sufu_common.obj
 0002:00000a90       ??_C@_0O@PLGPDPOL@WM_VKEYTOITEM?$AA@ 10008a90     Cc_sufu_common.obj
 0002:00000aa0       ??_C@_0O@MPHPKBDL@WM_CHARTOITEM?$AA@ 10008aa0     Cc_sufu_common.obj
 0002:00000ab0       ??_C@_0L@OJMALNAB@WM_SETFONT?$AA@ 10008ab0     Cc_sufu_common.obj
 0002:00000abc       ??_C@_0L@BBDBICNA@WM_GETFONT?$AA@ 10008abc     Cc_sufu_common.obj
 0002:00000ac8       ??_C@_0N@MDPGANDB@WM_SETHOTKEY?$AA@ 10008ac8     Cc_sufu_common.obj
 0002:00000ad8       ??_C@_0N@ONLDCMKD@WM_GETHOTKEY?$AA@ 10008ad8     Cc_sufu_common.obj
 0002:00000ae8       ??_C@_0BB@JHLFNCAA@WM_FILESYSCHANGE?$AA@ 10008ae8     Cc_sufu_common.obj
 0002:00000afc       ??_C@_0BA@LNLKHAOB@WM_ISACTIVEICON?$AA@ 10008afc     Cc_sufu_common.obj
 0002:00000b0c       ??_C@_0BB@ENMMFOCL@WM_QUERYPARKICON?$AA@ 10008b0c     Cc_sufu_common.obj
 0002:00000b20       ??_C@_0BB@GPCADNLG@WM_QUERYDRAGICON?$AA@ 10008b20     Cc_sufu_common.obj
 0002:00000b34       ??_C@_0L@LPACLHBN@WM_WINHELP?$AA@ 10008b34     Cc_sufu_common.obj
 0002:00000b40       ??_C@_0P@NCLEEKAN@WM_COMPAREITEM?$AA@ 10008b40     Cc_sufu_common.obj
 0002:00000b50       ??_C@_0O@JCNLPIDA@WM_FULLSCREEN?$AA@ 10008b50     Cc_sufu_common.obj
 0002:00000b60       ??_C@_0BC@MMCEIDPA@WM_CLIENTSHUTDOWN?$AA@ 10008b60     Cc_sufu_common.obj
 0002:00000b74       ??_C@_0O@GMOFKBCC@WM_DDEMLEVENT?$AA@ 10008b74     Cc_sufu_common.obj
 0002:00000b84       ??_C@_0N@BKKGFNNM@WM_GETOBJECT?$AA@ 10008b84     Cc_sufu_common.obj
 0002:00000b94       ??_C@_0O@EGLDNOCF@WM_CALCSCROLL?$AA@ 10008b94     Cc_sufu_common.obj
 0002:00000ba4       ??_C@_0L@KAKEFOAM@WM_TESTING?$AA@ 10008ba4     Cc_sufu_common.obj
 0002:00000bb0       ??_C@_0O@HCPOGCD@WM_COMPACTING?$AA@ 10008bb0     Cc_sufu_common.obj
 0002:00000bc0       ??_C@_0BG@MNLCHKLC@WM_OTHERWINDOWCREATED?$AA@ 10008bc0     Cc_sufu_common.obj
 0002:00000bd8       ??_C@_0BI@BPLCJHHK@WM_OTHERWINDOWDESTROYED?$AA@ 10008bd8     Cc_sufu_common.obj
 0002:00000bf0       ??_C@_0O@LLEJBMCM@WM_COMMNOTIFY?$AA@ 10008bf0     Cc_sufu_common.obj
 0002:00000c00       ??_C@_0BF@DDNIEBKH@WM_MEDIASTATUSCHANGE?$AA@ 10008c00     Cc_sufu_common.obj
 0002:00000c18       ??_C@_0BF@LKGIDMPB@WM_WINDOWPOSCHANGING?$AA@ 10008c18     Cc_sufu_common.obj
 0002:00000c30       ??_C@_0BE@KDEHDBCJ@WM_WINDOWPOSCHANGED?$AA@ 10008c30     Cc_sufu_common.obj
 0002:00000c44       ??_C@_08BGOLAJAF@WM_POWER?$AA@ 10008c44     Cc_sufu_common.obj
 0002:00000c50       ??_C@_0BC@HNABFNO@WM_COPYGLOBALDATA?$AA@ 10008c50     Cc_sufu_common.obj
 0002:00000c64       ??_C@_0M@IKPAGFMM@WM_COPYDATA?$AA@ 10008c64     Cc_sufu_common.obj
 0002:00000c70       ??_C@_0BB@GIGPLGNF@WM_CANCELJOURNAL?$AA@ 10008c70     Cc_sufu_common.obj
 0002:00000c84       ??_C@_0P@KFFLKBI@WM_LOGONNOTIFY?$AA@ 10008c84     Cc_sufu_common.obj
 0002:00000c94       ??_C@_08JJADBCPC@WM_KEYF1?$AA@ 10008c94     Cc_sufu_common.obj
 0002:00000ca0       ??_C@_09DKLNNAMM@WM_NOTIFY?$AA@ 10008ca0     Cc_sufu_common.obj
 0002:00000cac       ??_C@_0BB@LLPFCDOA@WM_ACCESS_WINDOW?$AA@ 10008cac     Cc_sufu_common.obj
 0002:00000cc0       ??_C@_0BK@OICMKOOE@WM_INPUTLANGCHANGEREQUEST?$AA@ 10008cc0     Cc_sufu_common.obj
 0002:00000cdc       ??_C@_0BD@MECHMCEO@WM_INPUTLANGCHANGE?$AA@ 10008cdc     Cc_sufu_common.obj
 0002:00000cf0       ??_C@_08DIAJKOHD@WM_TCARD?$AA@ 10008cf0     Cc_sufu_common.obj
 0002:00000cfc       ??_C@_07BKEIOGKF@WM_HELP?$AA@ 10008cfc     Cc_sufu_common.obj
 0002:00000d04       ??_C@_0P@JDAICFKM@WM_USERCHANGED?$AA@ 10008d04     Cc_sufu_common.obj
 0002:00000d14       ??_C@_0BA@HEMMMMIB@WM_NOTIFYFORMAT?$AA@ 10008d14     Cc_sufu_common.obj
 0002:00000d24       ??_C@_0BA@JBBKPBIA@WM_FINALDESTROY?$AA@ 10008d24     Cc_sufu_common.obj
 0002:00000d34       ??_C@_0BK@BCPMMLPJ@WM_MEASUREITEM_CLIENTDATA?$AA@ 10008d34     Cc_sufu_common.obj
 0002:00000d50       ??_C@_0BB@MOHHFOHF@WM_TASKACTIVATED?$AA@ 10008d50     Cc_sufu_common.obj
 0002:00000d64       ??_C@_0BD@IBPLJODC@WM_TASKDEACTIVATED?$AA@ 10008d64     Cc_sufu_common.obj
 0002:00000d78       ??_C@_0P@EMCHPPHK@WM_TASKCREATED?$AA@ 10008d78     Cc_sufu_common.obj
 0002:00000d88       ??_C@_0BB@IBEDDMAG@WM_TASKDESTROYED?$AA@ 10008d88     Cc_sufu_common.obj
 0002:00000d9c       ??_C@_0BB@HLDKJLHM@WM_TASKUICHANGED?$AA@ 10008d9c     Cc_sufu_common.obj
 0002:00000db0       ??_C@_0P@JLOCKAML@WM_TASKVISIBLE?$AA@ 10008db0     Cc_sufu_common.obj
 0002:00000dc0       ??_C@_0BC@FFMMALOH@WM_TASKNOTVISIBLE?$AA@ 10008dc0     Cc_sufu_common.obj
 0002:00000dd4       ??_C@_0BB@CMEEAENE@WM_SETCURSORINFO?$AA@ 10008dd4     Cc_sufu_common.obj
 0002:00000de8       ??_C@_0P@BPLEMBAK@WM_CONTEXTMENU?$AA@ 10008de8     Cc_sufu_common.obj
 0002:00000df8       ??_C@_0BB@DFEAJANB@WM_STYLECHANGING?$AA@ 10008df8     Cc_sufu_common.obj
 0002:00000e0c       ??_C@_0BA@OOHFOOPF@WM_STYLECHANGED?$AA@ 10008e0c     Cc_sufu_common.obj
 0002:00000e1c       ??_C@_0BB@IHILCKGN@WM_DISPLAYCHANGE?$AA@ 10008e1c     Cc_sufu_common.obj
 0002:00000e30       ??_C@_0L@GIFIDKFF@WM_GETICON?$AA@ 10008e30     Cc_sufu_common.obj
 0002:00000e3c       ??_C@_0L@JAKJAFIE@WM_SETICON?$AA@ 10008e3c     Cc_sufu_common.obj
 0002:00000e48       ??_C@_0M@EJONANPA@WM_NCCREATE?$AA@ 10008e48     Cc_sufu_common.obj
 0002:00000e54       ??_C@_0N@CLECHBCL@WM_NCDESTROY?$AA@ 10008e54     Cc_sufu_common.obj
 0002:00000e64       ??_C@_0O@FELKHFHD@WM_NCCALCSIZE?$AA@ 10008e64     Cc_sufu_common.obj
 0002:00000e74       ??_C@_0N@MLBEHFNH@WM_NCHITTEST?$AA@ 10008e74     Cc_sufu_common.obj
 0002:00000e84       ??_C@_0L@GBHEGNBL@WM_NCPAINT?$AA@ 10008e84     Cc_sufu_common.obj
 0002:00000e90       ??_C@_0O@MKAJCBNC@WM_NCACTIVATE?$AA@ 10008e90     Cc_sufu_common.obj
 0002:00000ea0       ??_C@_0O@GKAKBOFP@WM_GETDLGCODE?$AA@ 10008ea0     Cc_sufu_common.obj
 0002:00000eb0       ??_C@_0N@CPAMDENG@WM_SYNCPAINT?$AA@ 10008eb0     Cc_sufu_common.obj
 0002:00000ec0       ??_C@_0M@JGAILAPC@WM_SYNCTASK?$AA@ 10008ec0     Cc_sufu_common.obj
 0002:00000ecc       ??_C@_0BB@LGGHPHMH@WM_KLUDGEMINRECT?$AA@ 10008ecc     Cc_sufu_common.obj
 0002:00000ee0       ??_C@_0BE@PPHGJPHD@WM_LPKDRAWSWITCHWND?$AA@ 10008ee0     Cc_sufu_common.obj
 0002:00000ef4       ??_C@_0P@MPNPIBJO@WM_NCMOUSEMOVE?$AA@ 10008ef4     Cc_sufu_common.obj
 0002:00000f04       ??_C@_0BB@NPGLDKFN@WM_NCLBUTTONDOWN?$AA@ 10008f04     Cc_sufu_common.obj
 0002:00000f18       ??_C@_0P@CLPAIOAP@WM_NCLBUTTONUP?$AA@ 10008f18     Cc_sufu_common.obj
 0002:00000f28       ??_C@_0BD@PKNAKKDK@WM_NCLBUTTONDBLCLK?$AA@ 10008f28     Cc_sufu_common.obj
 0002:00000f3c       ??_C@_0BB@DKECAELP@WM_NCRBUTTONDOWN?$AA@ 10008f3c     Cc_sufu_common.obj
 0002:00000f50       ??_C@_0P@BCJHDPFE@WM_NCRBUTTONUP?$AA@ 10008f50     Cc_sufu_common.obj
 0002:00000f60       ??_C@_0BD@FHPJMDNG@WM_NCRBUTTONDBLCLK?$AA@ 10008f60     Cc_sufu_common.obj
 0002:00000f74       ??_C@_0BB@EEMOHGDC@WM_NCMBUTTONDOWN?$AA@ 10008f74     Cc_sufu_common.obj
 0002:00000f88       ??_C@_0P@MEDCOFDB@WM_NCMBUTTONUP?$AA@ 10008f88     Cc_sufu_common.obj
 0002:00000f98       ??_C@_0BD@GHNPELEM@WM_NCMBUTTONDBLCLK?$AA@ 10008f98     Cc_sufu_common.obj
 0002:00000fac       ??_C@_0BB@NAHFOMNO@WM_NCXBUTTONDOWN?$AA@ 10008fac     Cc_sufu_common.obj
 0002:00000fc0       ??_C@_0P@FLFKPJN@WM_NCXBUTTONUP?$AA@ 10008fc0     Cc_sufu_common.obj
 0002:00000fd0       ??_C@_0BD@IFMOBJEN@WM_NCXBUTTONDBLCLK?$AA@ 10008fd0     Cc_sufu_common.obj
 0002:00000fe4       ??_C@_0BE@ECHPCBPC@WM_NCUAHDRAWCAPTION?$AA@ 10008fe4     Cc_sufu_common.obj
 0002:00000ff8       ??_C@_0BC@KIJBHNFC@WM_NCUAHDRAWFRAME?$AA@ 10008ff8     Cc_sufu_common.obj
 0002:0000100c       ??_C@_0M@HFKLFKOD@EM_GETSEL32?$AA@ 1000900c     Cc_sufu_common.obj
 0002:00001018       ??_C@_0M@IEIHEJJO@EM_SETSEL32?$AA@ 10009018     Cc_sufu_common.obj
 0002:00001024       ??_C@_0N@FHBCHFAB@EM_GETRECT32?$AA@ 10009024     Cc_sufu_common.obj
 0002:00001034       ??_C@_0N@HJFHFEJD@EM_SETRECT32?$AA@ 10009034     Cc_sufu_common.obj
 0002:00001044       ??_C@_0P@GNFKCBCN@EM_SETRECTNP32?$AA@ 10009044     Cc_sufu_common.obj
 0002:00001054       ??_C@_0M@FIDMNFLC@EM_SCROLL32?$AA@ 10009054     Cc_sufu_common.obj
 0002:00001060       ??_C@_0BA@FHEMBHIP@EM_LINESCROLL32?$AA@ 10009060     Cc_sufu_common.obj
 0002:00001070       ??_C@_0BB@LCJGLNJ@EM_SCROLLCARET32?$AA@ 10009070     Cc_sufu_common.obj
 0002:00001084       ??_C@_0P@LHGKENEG@EM_GETMODIFY32?$AA@ 10009084     Cc_sufu_common.obj
 0002:00001094       ??_C@_0P@LIHEJLMF@EM_SETMODIFY32?$AA@ 10009094     Cc_sufu_common.obj
 0002:000010a4       ??_C@_0BC@DPPCHMGO@EM_GETLINECOUNT32?$AA@ 100090a4     Cc_sufu_common.obj
 0002:000010b8       ??_C@_0P@GGCLJABE@EM_LINEINDEX32?$AA@ 100090b8     Cc_sufu_common.obj
 0002:000010c8       ??_C@_0P@KPPIHAKO@EM_SETHANDLE32?$AA@ 100090c8     Cc_sufu_common.obj
 0002:000010d8       ??_C@_0P@KAOGKGCN@EM_GETHANDLE32?$AA@ 100090d8     Cc_sufu_common.obj
 0002:000010e8       ??_C@_0O@FHKGKHGO@EM_GETTHUMB32?$AA@ 100090e8     Cc_sufu_common.obj
 0002:000010f8       ??_C@_0BA@HBIFKMGL@EM_LINELENGTH32?$AA@ 100090f8     Cc_sufu_common.obj
 0002:00001108       ??_C@_0BA@EFHJFMEF@EM_REPLACESEL32?$AA@ 10009108     Cc_sufu_common.obj
 0002:00001118       ??_C@_0BH@PKPLAMIA@EM_SETFONTEM_GETLINE32?$AA@ 10009118     Cc_sufu_common.obj
 0002:00001130       ??_C@_0P@FGMCAAFH@EM_LIMITTEXT32?$AA@ 10009130     Cc_sufu_common.obj
 0002:00001140       ??_C@_0N@HEDGGLFH@EM_CANUNDO32?$AA@ 10009140     Cc_sufu_common.obj
 0002:00001150       ??_C@_09CGNLEKAB@EM_UNDO32?$AA@ 10009150     Cc_sufu_common.obj
 0002:0000115c       ??_C@_0O@DNBCJABD@EM_FMTLINES32?$AA@ 1000915c     Cc_sufu_common.obj
 0002:0000116c       ??_C@_0BC@CJBPAPOA@EM_LINEFROMCHAR32?$AA@ 1000916c     Cc_sufu_common.obj
 0002:00001180       ??_C@_0BA@OHBGMGGJ@EM_SETWORDBREAK?$AA@ 10009180     Cc_sufu_common.obj
 0002:00001190       ??_C@_0BB@DHNILBAF@EM_SETTABSTOPS32?$AA@ 10009190     Cc_sufu_common.obj
 0002:000011a4       ??_C@_0BF@KJICKFGA@EM_SETPASSWORDCHAR32?$AA@ 100091a4     Cc_sufu_common.obj
 0002:000011bc       ??_C@_0BF@OAMOALAL@EM_EMPTYUNDOBUFFER32?$AA@ 100091bc     Cc_sufu_common.obj
 0002:000011d4       ??_C@_0BJ@NCOPLKDC@EM_GETFIRSTVISIBLELINE32?$AA@ 100091d4     Cc_sufu_common.obj
 0002:000011f0       ??_C@_0BB@PNFNFOLN@EM_SETREADONLY32?$AA@ 100091f0     Cc_sufu_common.obj
 0002:00001204       ??_C@_0BG@GKLNPKDH@EM_SETWORDBREAKPROC32?$AA@ 10009204     Cc_sufu_common.obj
 0002:0000121c       ??_C@_0BG@JAJHMMNP@EM_GETWORDBREAKPROC32?$AA@ 1000921c     Cc_sufu_common.obj
 0002:00001234       ??_C@_0BF@IMIJCOHO@EM_GETPASSWORDCHAR32?$AA@ 10009234     Cc_sufu_common.obj
 0002:0000124c       ??_C@_0BA@DNJNOKMF@EM_SETMARGINS32?$AA@ 1000924c     Cc_sufu_common.obj
 0002:0000125c       ??_C@_0BA@EJCDCGIJ@EM_GETMARGINS32?$AA@ 1000925c     Cc_sufu_common.obj
 0002:0000126c       ??_C@_0BC@MNCAKEMG@EM_GETLIMITTEXT32?$AA@ 1000926c     Cc_sufu_common.obj
 0002:00001280       ??_C@_0BB@PNEDNDHH@EM_POSFROMCHAR32?$AA@ 10009280     Cc_sufu_common.obj
 0002:00001294       ??_C@_0BB@ONDGKJNE@EM_CHARFROMPOS32?$AA@ 10009294     Cc_sufu_common.obj
 0002:000012a8       ??_C@_0BA@KHNOGKBN@EM_SETIMESTATUS?$AA@ 100092a8     Cc_sufu_common.obj
 0002:000012b8       ??_C@_0BA@NDGAKGFB@EM_GETIMESTATUS?$AA@ 100092b8     Cc_sufu_common.obj
 0002:000012c8       ??_C@_09OIGMAEKF@EM_MSGMAX?$AA@ 100092c8     Cc_sufu_common.obj
 0002:000012d4       ??_C@_0N@PEKAFGIF@SBM_SETPOS32?$AA@ 100092d4     Cc_sufu_common.obj
 0002:000012e4       ??_C@_0N@FIMEFPI@SBM_GETPOS32?$AA@ 100092e4     Cc_sufu_common.obj
 0002:000012f4       ??_C@_0P@FIEJNAJI@SBM_SETRANGE32?$AA@ 100092f4     Cc_sufu_common.obj
 0002:00001304       ??_C@_0P@EGGGGHNB@SBM_GETRANGE32?$AA@ 10009304     Cc_sufu_common.obj
 0002:00001314       ??_C@_0BE@NCGLEPOI@SBM_ENABLE_ARROWS32?$AA@ 10009314     Cc_sufu_common.obj
 0002:00001328       ??_C@_0BF@BIOIDPGK@SBM_SETRANGEREDRAW32?$AA@ 10009328     Cc_sufu_common.obj
 0002:00001340       ??_C@_0BE@JBOKNFCJ@SBM_SETSCROLLINFO32?$AA@ 10009340     Cc_sufu_common.obj
 0002:00001354       ??_C@_0BE@KDPMKHDA@SBM_GETSCROLLINFO32?$AA@ 10009354     Cc_sufu_common.obj
 0002:00001368       ??_C@_0O@IFPLMGOM@BM_GETCHECK32?$AA@ 10009368     Cc_sufu_common.obj
 0002:00001378       ??_C@_0O@JLNEHBKF@BM_SETCHECK32?$AA@ 10009378     Cc_sufu_common.obj
 0002:00001388       ??_C@_0O@PALAHPMK@BM_GETSTATE32?$AA@ 10009388     Cc_sufu_common.obj
 0002:00001398       ??_C@_0O@OOJPMIID@BM_SETSTATE32?$AA@ 10009398     Cc_sufu_common.obj
 0002:000013a8       ??_C@_0O@FBIKJEDG@BM_SETSTYLE32?$AA@ 100093a8     Cc_sufu_common.obj
 0002:000013b8       ??_C@_0L@EIAGJPDA@BM_CLICK32?$AA@ 100093b8     Cc_sufu_common.obj
 0002:000013c4       ??_C@_0O@MIMNGGGG@BM_GETIMAGE32?$AA@ 100093c4     Cc_sufu_common.obj
 0002:000013d4       ??_C@_0O@NGOCNBCP@BM_SETIMAGE32?$AA@ 100093d4     Cc_sufu_common.obj
 0002:000013e4       ??_C@_08NIPJEPKJ@WM_INPUT?$AA@ 100093e4     Cc_sufu_common.obj
 0002:000013f0       ??_C@_0L@CDBKLFAF@WM_KEYDOWN?$AA@ 100093f0     Cc_sufu_common.obj
 0002:000013fc       ??_C@_08PLIFFFDN@WM_KEYUP?$AA@ 100093fc     Cc_sufu_common.obj
 0002:00001408       ??_C@_07KFBMPOLI@WM_CHAR?$AA@ 10009408     Cc_sufu_common.obj
 0002:00001410       ??_C@_0M@LFJKCBGB@WM_DEADCHAR?$AA@ 10009410     Cc_sufu_common.obj
 0002:0000141c       ??_C@_0O@BHAGIJNP@WM_SYSKEYDOWN?$AA@ 1000941c     Cc_sufu_common.obj
 0002:0000142c       ??_C@_0M@BJMELJPL@WM_SYSKEYUP?$AA@ 1000942c     Cc_sufu_common.obj
 0002:00001438       ??_C@_0L@FMIKCMHB@WM_SYSCHAR?$AA@ 10009438     Cc_sufu_common.obj
 0002:00001444       ??_C@_0P@NDKIAGJH@WM_SYSDEADCHAR?$AA@ 10009444     Cc_sufu_common.obj
 0002:00001454       ??_C@_0M@COLOBCF@WM_YOMICHAR?$AA@ 10009454     Cc_sufu_common.obj
 0002:00001460       ??_C@_0L@JKNBKGEL@WM_UNICHAR?$AA@ 10009460     Cc_sufu_common.obj
 0002:0000146c       ??_C@_0BC@KDJPCJHK@WM_CONVERTREQUEST?$AA@ 1000946c     Cc_sufu_common.obj
 0002:00001480       ??_C@_0BB@HFHPGFKH@WM_CONVERTRESULT?$AA@ 10009480     Cc_sufu_common.obj
 0002:00001494       ??_C@_0L@HNCAIOBH@WM_INTERIM?$AA@ 10009494     Cc_sufu_common.obj
 0002:000014a0       ??_C@_0BI@FPNBFFHB@WM_IME_STARTCOMPOSITION?$AA@ 100094a0     Cc_sufu_common.obj
 0002:000014b8       ??_C@_0BG@HAEEDOMB@WM_IME_ENDCOMPOSITION?$AA@ 100094b8     Cc_sufu_common.obj
 0002:000014d0       ??_C@_0BD@DFBPHLOJ@WM_IME_COMPOSITION?$AA@ 100094d0     Cc_sufu_common.obj
 0002:000014e4       ??_C@_0O@LOFLAEFJ@WM_INITDIALOG?$AA@ 100094e4     Cc_sufu_common.obj
 0002:000014f4       ??_C@_0L@MIBPNEEE@WM_COMMAND?$AA@ 100094f4     Cc_sufu_common.obj
 0002:00001500       ??_C@_0O@PMADOIJO@WM_SYSCOMMAND?$AA@ 10009500     Cc_sufu_common.obj
 0002:00001510       ??_C@_08DNJOAJEI@WM_TIMER?$AA@ 10009510     Cc_sufu_common.obj
 0002:0000151c       ??_C@_0L@MGDDHGNO@WM_HSCROLL?$AA@ 1000951c     Cc_sufu_common.obj
 0002:00001528       ??_C@_0L@KPACFFMH@WM_VSCROLL?$AA@ 10009528     Cc_sufu_common.obj
 0002:00001534       ??_C@_0M@CAMBCBNK@WM_INITMENU?$AA@ 10009534     Cc_sufu_common.obj
 0002:00001540       ??_C@_0BB@BDMOAOLE@WM_INITMENUPOPUP?$AA@ 10009540     Cc_sufu_common.obj
 0002:00001554       ??_C@_0M@NPNPOFIO@WM_SYSTIMER?$AA@ 10009554     Cc_sufu_common.obj
 0002:00001560       ??_C@_0O@GGHPLAIN@WM_MENUSELECT?$AA@ 10009560     Cc_sufu_common.obj
 0002:00001570       ??_C@_0M@CHPLDGON@WM_MENUCHAR?$AA@ 10009570     Cc_sufu_common.obj
 0002:0000157c       ??_C@_0N@JMDJDHHB@WM_ENTERIDLE?$AA@ 1000957c     Cc_sufu_common.obj
 0002:0000158c       ??_C@_0BB@EGIIPLJM@WM_MENURBUTTONUP?$AA@ 1000958c     Cc_sufu_common.obj
 0002:000015a0       ??_C@_0M@JNMKLLBC@WM_MENUDRAG?$AA@ 100095a0     Cc_sufu_common.obj
 0002:000015ac       ??_C@_0BB@PMLEOHGC@WM_MENUGETOBJECT?$AA@ 100095ac     Cc_sufu_common.obj
 0002:000015c0       ??_C@_0BD@NDMGHPGM@WM_UNINITMENUPOPUP?$AA@ 100095c0     Cc_sufu_common.obj
 0002:000015d4       ??_C@_0P@JPCFBCAA@WM_MENUCOMMAND?$AA@ 100095d4     Cc_sufu_common.obj
 0002:000015e4       ??_C@_0BB@PCLCMCKJ@WM_CHANGEUISTATE?$AA@ 100095e4     Cc_sufu_common.obj
 0002:000015f8       ??_C@_0BB@EFAEHJPJ@WM_UPDATEUISTATE?$AA@ 100095f8     Cc_sufu_common.obj
 0002:0000160c       ??_C@_0BA@JLIKPJJC@WM_QUERYUISTATE?$AA@ 1000960c     Cc_sufu_common.obj
 0002:0000161c       ??_C@_0BA@FDHCBAMG@WM_LBTRACKPOINT?$AA@ 1000961c     Cc_sufu_common.obj
 0002:0000162c       ??_C@_0BC@MLPGDCAA@WM_CTLCOLORMSGBOX?$AA@ 1000962c     Cc_sufu_common.obj
 0002:00001640       ??_C@_0BA@FOIONIGI@WM_CTLCOLOREDIT?$AA@ 10009640     Cc_sufu_common.obj
 0002:00001650       ??_C@_0BD@OBEJKNPH@WM_CTLCOLORLISTBOX?$AA@ 10009650     Cc_sufu_common.obj
 0002:00001664       ??_C@_0P@PCJHPOJL@WM_CTLCOLORBTN?$AA@ 10009664     Cc_sufu_common.obj
 0002:00001674       ??_C@_0P@BEALOIMG@WM_CTLCOLORDLG?$AA@ 10009674     Cc_sufu_common.obj
 0002:00001684       ??_C@_0BF@KCLJKFEN@WM_CTLCOLORSCROLLBAR?$AA@ 10009684     Cc_sufu_common.obj
 0002:0000169c       ??_C@_0BC@LGJLKPOA@WM_CTLCOLORSTATIC?$AA@ 1000969c     Cc_sufu_common.obj
 0002:000016b0       ??_C@_0BA@LNHKHFEA@CB_GETEDITSEL32?$AA@ 100096b0     Cc_sufu_common.obj
 0002:000016c0       ??_C@_0P@CCKMGAFD@CB_LIMITTEXT32?$AA@ 100096c0     Cc_sufu_common.obj
 0002:000016d0       ??_C@_0BA@MJMELJAM@CB_SETEDITSEL32?$AA@ 100096d0     Cc_sufu_common.obj
 0002:000016e0       ??_C@_0P@LHCKAIN@CB_ADDSTRING32?$AA@ 100096e0     Cc_sufu_common.obj
 0002:000016f0       ??_C@_0BC@JBELGAAM@CB_DELETESTRING32?$AA@ 100096f0     Cc_sufu_common.obj
 0002:00001704       ??_C@_08CLLPDCIO@CB_DIR32?$AA@ 10009704     Cc_sufu_common.obj
 0002:00001710       ??_C@_0O@JBPENMC@CB_GETCOUNT32?$AA@ 10009710     Cc_sufu_common.obj
 0002:00001720       ??_C@_0P@GAJJIOEH@CB_GETCURSEL32?$AA@ 10009720     Cc_sufu_common.obj
 0002:00001730       ??_C@_0P@HCNMIBFL@CB_GETLBTEXT32?$AA@ 10009730     Cc_sufu_common.obj
 0002:00001740       ??_C@_0BC@MMAEFFKL@CB_GETLBTEXTLEN32?$AA@ 10009740     Cc_sufu_common.obj
 0002:00001754       ??_C@_0BC@JBNDHKJH@CB_INSERTSTRING32?$AA@ 10009754     Cc_sufu_common.obj
 0002:00001768       ??_C@_0BC@JIILLJKP@CB_RESETCONTENT32?$AA@ 10009768     Cc_sufu_common.obj
 0002:0000177c       ??_C@_0BA@IICOLPKA@CB_FINDSTRING32?$AA@ 1000977c     Cc_sufu_common.obj
 0002:0000178c       ??_C@_0BC@BIJMLMH@CB_SELECTSTRING32?$AA@ 1000978c     Cc_sufu_common.obj
 0002:000017a0       ??_C@_0P@GPIHFIME@CB_SETCURSEL32?$AA@ 100097a0     Cc_sufu_common.obj
 0002:000017b0       ??_C@_0BC@MDKOIOPK@CB_SHOWDROPDOWN32?$AA@ 100097b0     Cc_sufu_common.obj
 0002:000017c4       ??_C@_0BB@JKOJJLJK@CB_GETITEMDATA32?$AA@ 100097c4     Cc_sufu_common.obj
 0002:000017d8       ??_C@_0BB@OFPHCION@CB_SETITEMDATA32?$AA@ 100097d8     Cc_sufu_common.obj
 0002:000017ec       ??_C@_0BL@KAMKNNBF@CB_GETDROPPEDCONTROLRECT32?$AA@ 100097ec     Cc_sufu_common.obj
 0002:00001808       ??_C@_0BD@DHFJFFOI@CB_SETITEMHEIGHT32?$AA@ 10009808     Cc_sufu_common.obj
 0002:0000181c       ??_C@_0BD@FEPCHPB@CB_GETITEMHEIGHT32?$AA@ 1000981c     Cc_sufu_common.obj
 0002:00001830       ??_C@_0BD@BAMBEHNC@CB_SETEXTENDEDUI32?$AA@ 10009830     Cc_sufu_common.obj
 0002:00001844       ??_C@_0BD@CCNHDFML@CB_GETEXTENDEDUI32?$AA@ 10009844     Cc_sufu_common.obj
 0002:00001858       ??_C@_0BF@PMMAHHAM@CB_GETDROPPEDSTATE32?$AA@ 10009858     Cc_sufu_common.obj
 0002:00001870       ??_C@_0BF@OFCDFPFC@CB_FINDSTRINGEXACT32?$AA@ 10009870     Cc_sufu_common.obj
 0002:00001888       ??_C@_0P@KCOKKDOH@CB_SETLOCALE32?$AA@ 10009888     Cc_sufu_common.obj
 0002:00001898       ??_C@_0P@KNPEHFGE@CB_GETLOCALE32?$AA@ 10009898     Cc_sufu_common.obj
 0002:000018a8       ??_C@_0BB@MGPEAJFH@CB_GETTOPINDEX32?$AA@ 100098a8     Cc_sufu_common.obj
 0002:000018bc       ??_C@_0BB@LJOKLKCA@CB_SETTOPINDEX32?$AA@ 100098bc     Cc_sufu_common.obj
 0002:000018d0       ??_C@_0BJ@NKIJKGAN@CB_GETHORIZONTALEXTENT32?$AA@ 100098d0     Cc_sufu_common.obj
 0002:000018ec       ??_C@_0BJ@CPNPHPEM@CB_SETHORIZONTALEXTENT32?$AA@ 100098ec     Cc_sufu_common.obj
 0002:00001908       ??_C@_0BF@NMCEMNJG@CB_GETDROPPEDWIDTH32?$AA@ 10009908     Cc_sufu_common.obj
 0002:00001920       ??_C@_0BF@PJCPEGII@CB_SETDROPPEDWIDTH32?$AA@ 10009920     Cc_sufu_common.obj
 0002:00001938       ??_C@_0BB@PGAAINKA@CB_INITSTORAGE32?$AA@ 10009938     Cc_sufu_common.obj
 0002:0000194c       ??_C@_0BF@GGNCKALM@CB_MULTIPLEADDSTRING?$AA@ 1000994c     Cc_sufu_common.obj
 0002:00001964       ??_C@_0BD@DMMJGAAC@CB_GETCOMBOBOXINFO?$AA@ 10009964     Cc_sufu_common.obj
 0002:00001978       ??_C@_0O@NMLHILBM@STM_SETICON32?$AA@ 10009978     Cc_sufu_common.obj
 0002:00001988       ??_C@_0O@PCPCKKIO@STM_GETICON32?$AA@ 10009988     Cc_sufu_common.obj
 0002:00001998       ??_C@_0P@NBBOFCJO@STM_SETIMAGE32?$AA@ 10009998     Cc_sufu_common.obj
 0002:000019a8       ??_C@_0P@MPDBOFNH@STM_GETIMAGE32?$AA@ 100099a8     Cc_sufu_common.obj
 0002:000019b8       ??_C@_0L@EJFBIMMM@STM_MSGMAX?$AA@ 100099b8     Cc_sufu_common.obj
 0002:000019c4       ??_C@_0P@FPPKGDBA@LB_ADDSTRING32?$AA@ 100099c4     Cc_sufu_common.obj
 0002:000019d4       ??_C@_0BC@GHKMNOPP@LB_INSERTSTRING32?$AA@ 100099d4     Cc_sufu_common.obj
 0002:000019e8       ??_C@_0BC@GHDEMEGE@LB_DELETESTRING32?$AA@ 100099e8     Cc_sufu_common.obj
 0002:000019fc       ??_C@_0BE@NPLMLKGK@LB_SELITEMRANGEEX32?$AA@ 100099fc     Cc_sufu_common.obj
 0002:00001a10       ??_C@_0BC@GOPEBNMH@LB_RESETCONTENT32?$AA@ 10009a10     Cc_sufu_common.obj
 0002:00001a24       ??_C@_0M@IKNGIHMJ@LB_SETSEL32?$AA@ 10009a24     Cc_sufu_common.obj
 0002:00001a30       ??_C@_0P@DLAPJLFJ@LB_SETCURSEL32?$AA@ 10009a30     Cc_sufu_common.obj
 0002:00001a40       ??_C@_0M@HLPKJELE@LB_GETSEL32?$AA@ 10009a40     Cc_sufu_common.obj
 0002:00001a4c       ??_C@_0P@DEBBENNK@LB_GETCURSEL32?$AA@ 10009a4c     Cc_sufu_common.obj
 0002:00001a5c       ??_C@_0N@NGPDHDDB@LB_GETTEXT32?$AA@ 10009a5c     Cc_sufu_common.obj
 0002:00001a6c       ??_C@_0BA@EBPKFJP@LB_GETTEXTLEN32?$AA@ 10009a6c     Cc_sufu_common.obj
 0002:00001a7c       ??_C@_0O@FPILPJDE@LB_GETCOUNT32?$AA@ 10009a7c     Cc_sufu_common.obj
 0002:00001a8c       ??_C@_0BC@PHPGGPKP@LB_SELECTSTRING32?$AA@ 10009a8c     Cc_sufu_common.obj
 0002:00001aa0       ??_C@_08PEAGPNFP@LB_DIR32?$AA@ 10009aa0     Cc_sufu_common.obj
 0002:00001aac       ??_C@_0BB@HGDKIC@LB_GETTOPINDEX32?$AA@ 10009aac     Cc_sufu_common.obj
 0002:00001ac0       ??_C@_0BA@GMENIJK@LB_FINDSTRING32?$AA@ 10009ac0     Cc_sufu_common.obj
 0002:00001ad0       ??_C@_0BB@LGKAEGEG@LB_GETSELCOUNT32?$AA@ 10009ad0     Cc_sufu_common.obj
 0002:00001ae4       ??_C@_0BB@JLBINCEI@LB_GETSELITEMS32?$AA@ 10009ae4     Cc_sufu_common.obj
 0002:00001af8       ??_C@_0BB@NIIEFCOC@LB_SETTABSTOPS32?$AA@ 10009af8     Cc_sufu_common.obj
 0002:00001b0c       ??_C@_0BJ@DINCMJBC@LB_GETHORIZONTALEXTENT32?$AA@ 10009b0c     Cc_sufu_common.obj
 0002:00001b28       ??_C@_0BJ@MNIEBAFD@LB_SETHORIZONTALEXTENT32?$AA@ 10009b28     Cc_sufu_common.obj
 0002:00001b44       ??_C@_0BE@KACAELLO@LB_SETCOLUMNWIDTH32?$AA@ 10009b44     Cc_sufu_common.obj
 0002:00001b58       ??_C@_0N@EKGLGKDK@LB_ADDFILE32?$AA@ 10009b58     Cc_sufu_common.obj
 0002:00001b68       ??_C@_0BB@HPGIIJPF@LB_SETTOPINDEX32?$AA@ 10009b68     Cc_sufu_common.obj
 0002:00001b7c       ??_C@_0BB@HGPDKPJC@LB_GETITEMRECT32?$AA@ 10009b7c     Cc_sufu_common.obj
 0002:00001b90       ??_C@_0BB@FMGLKIEP@LB_GETITEMDATA32?$AA@ 10009b90     Cc_sufu_common.obj
 0002:00001ba4       ??_C@_0BB@CDHFBLDI@LB_SETITEMDATA32?$AA@ 10009ba4     Cc_sufu_common.obj
 0002:00001bb8       ??_C@_0BC@PDBKJFMF@LB_SELITEMRANGE32?$AA@ 10009bb8     Cc_sufu_common.obj
 0002:00001bcc       ??_C@_0BE@GECANFEJ@LB_SETANCHORINDEX32?$AA@ 10009bcc     Cc_sufu_common.obj
 0002:00001be0       ??_C@_0BE@HJGLPL@LB_GETANCHORINDEX32?$AA@ 10009be0     Cc_sufu_common.obj
 0002:00001bf4       ??_C@_0BD@KCBGDNFD@LB_SETCARETINDEX32?$AA@ 10009bf4     Cc_sufu_common.obj
 0002:00001c08       ??_C@_0BD@JAAAEPEK@LB_GETCARETINDEX32?$AA@ 10009c08     Cc_sufu_common.obj
 0002:00001c1c       ??_C@_0BD@HEMGMDCG@LB_SETITEMHEIGHT32?$AA@ 10009c1c     Cc_sufu_common.obj
 0002:00001c30       ??_C@_0BD@EGNALBDP@LB_GETITEMHEIGHT32?$AA@ 10009c30     Cc_sufu_common.obj
 0002:00001c44       ??_C@_0BF@KJDGNAHM@LB_FINDSTRINGEXACT32?$AA@ 10009c44     Cc_sufu_common.obj
 0002:00001c5c       ??_C@_0N@KANMDBON@LB_CARETON32?$AA@ 10009c5c     Cc_sufu_common.obj
 0002:00001c6c       ??_C@_0O@FODIGHNN@LB_CARETOFF32?$AA@ 10009c6c     Cc_sufu_common.obj
 0002:00001c7c       ??_C@_0P@PGGCGAHK@LB_SETLOCALE32?$AA@ 10009c7c     Cc_sufu_common.obj
 0002:00001c8c       ??_C@_0P@PJHMLGPJ@LB_GETLOCALE32?$AA@ 10009c8c     Cc_sufu_common.obj
 0002:00001c9c       ??_C@_0O@EBKEEOHN@LB_SETCOUNT32?$AA@ 10009c9c     Cc_sufu_common.obj
 0002:00001cac       ??_C@_0BB@DAICLOHF@LB_INITSTORAGE32?$AA@ 10009cac     Cc_sufu_common.obj
 0002:00001cc0       ??_C@_0BD@GLICBNED@LB_ITEMFROMPOINT32?$AA@ 10009cc0     Cc_sufu_common.obj
 0002:00001cd4       ??_C@_0BF@HGMNIEON@LB_INSERTSTRINGUPPER?$AA@ 10009cd4     Cc_sufu_common.obj
 0002:00001cec       ??_C@_0BF@CNHDOPFE@LB_INSERTSTRINGLOWER?$AA@ 10009cec     Cc_sufu_common.obj
 0002:00001d04       ??_C@_0BC@HBADHHM@LB_ADDSTRINGUPPER?$AA@ 10009d04     Cc_sufu_common.obj
 0002:00001d18       ??_C@_0BC@FMKOFMMF@LB_ADDSTRINGLOWER?$AA@ 10009d18     Cc_sufu_common.obj
 0002:00001d2c       ??_C@_0BA@JJGFJHMK@LBCB_STARTTRACK?$AA@ 10009d2c     Cc_sufu_common.obj
 0002:00001d3c       ??_C@_0O@JGHMFHFH@LBCB_ENDTRACK?$AA@ 10009d3c     Cc_sufu_common.obj
 0002:00001d4c       ??_C@_0BF@CKMHCPJC@LB_MULTIPLEADDSTRING?$AA@ 10009d4c     Cc_sufu_common.obj
 0002:00001d64       ??_C@_0BC@FNIDNOJH@LB_GETLISTBOXINFO?$AA@ 10009d64     Cc_sufu_common.obj
 0002:00001d78       ??_C@_0M@EJJFKJBB@MN_SETHMENU?$AA@ 10009d78     Cc_sufu_common.obj
 0002:00001d84       ??_C@_0M@LILJLKGM@MN_GETHMENU?$AA@ 10009d84     Cc_sufu_common.obj
 0002:00001d90       ??_C@_0O@GHNNGNGL@MN_SIZEWINDOW?$AA@ 10009d90     Cc_sufu_common.obj
 0002:00001da0       ??_C@_0BB@KPLBCHOO@MN_OPENHIERARCHY?$AA@ 10009da0     Cc_sufu_common.obj
 0002:00001db4       ??_C@_0BC@HNDDPNNJ@MN_CLOSEHIERARCHY?$AA@ 10009db4     Cc_sufu_common.obj
 0002:00001dc8       ??_C@_0O@NBGBOLAE@MN_SELECTITEM?$AA@ 10009dc8     Cc_sufu_common.obj
 0002:00001dd8       ??_C@_0P@MMHPMOGP@MN_CANCELMENUS?$AA@ 10009dd8     Cc_sufu_common.obj
 0002:00001de8       ??_C@_0BI@KFAGDKGD@MN_SELECTFIRSTVALIDITEM?$AA@ 10009de8     Cc_sufu_common.obj
 0002:00001e00       ??_C@_0BL@MENMIIFK@MN_FINDMENUWINDOWFROMPOINT?$AA@ 10009e00     Cc_sufu_common.obj
 0002:00001e1c       ??_C@_0BD@OJEGDMFD@MN_SHOWPOPUPWINDOW?$AA@ 10009e1c     Cc_sufu_common.obj
 0002:00001e30       ??_C@_0M@DKEEGAFN@MN_BUTTONUP?$AA@ 10009e30     Cc_sufu_common.obj
 0002:00001e3c       ??_C@_0BL@NPBJIDAN@MN_SETTIMERTOOPENHIERARCHY?$AA@ 10009e3c     Cc_sufu_common.obj
 0002:00001e58       ??_C@_09GBBMHIJK@MN_DBLCLK?$AA@ 10009e58     Cc_sufu_common.obj
 0002:00001e64       ??_C@_0P@NEDFHLBO@MN_ACTIVEPOPUP?$AA@ 10009e64     Cc_sufu_common.obj
 0002:00001e74       ??_C@_0L@PENNBELE@MN_ENDMENU?$AA@ 10009e74     Cc_sufu_common.obj
 0002:00001e80       ??_C@_0O@LBPFCDBE@MN_DODRAGDROP?$AA@ 10009e80     Cc_sufu_common.obj
 0002:00001e90       ??_C@_0N@HNNCPPOI@WM_MOUSEMOVE?$AA@ 10009e90     Cc_sufu_common.obj
 0002:00001ea0       ??_C@_0P@BBLDAKBL@WM_LBUTTONDOWN?$AA@ 10009ea0     Cc_sufu_common.obj
 0002:00001eb0       ??_C@_0N@JJPNPAHJ@WM_LBUTTONUP?$AA@ 10009eb0     Cc_sufu_common.obj
 0002:00001ec0       ??_C@_0BB@HKCKLMMN@WM_LBUTTONDBLCLK?$AA@ 10009ec0     Cc_sufu_common.obj
 0002:00001ed4       ??_C@_0P@PEJKDEPJ@WM_RBUTTONDOWN?$AA@ 10009ed4     Cc_sufu_common.obj
 0002:00001ee4       ??_C@_0N@KAJKEBCC@WM_RBUTTONUP?$AA@ 10009ee4     Cc_sufu_common.obj
 0002:00001ef4       ??_C@_0BB@NHADNFCB@WM_RBUTTONDBLCLK?$AA@ 10009ef4     Cc_sufu_common.obj
 0002:00001f08       ??_C@_0P@IKBGEGHE@WM_MBUTTONDOWN?$AA@ 10009f08     Cc_sufu_common.obj
 0002:00001f18       ??_C@_0N@HGDPJLEH@WM_MBUTTONUP?$AA@ 10009f18     Cc_sufu_common.obj
 0002:00001f28       ??_C@_0BB@OHCFFNLL@WM_MBUTTONDBLCLK?$AA@ 10009f28     Cc_sufu_common.obj
 0002:00001f3c       ??_C@_0O@KAKBLNCA@WM_MOUSEWHEEL?$AA@ 10009f3c     Cc_sufu_common.obj
 0002:00001f4c       ??_C@_0P@BOKNNMJI@WM_XBUTTONDOWN?$AA@ 10009f4c     Cc_sufu_common.obj
 0002:00001f5c       ??_C@_0N@LHLINBOL@WM_XBUTTONUP?$AA@ 10009f5c     Cc_sufu_common.obj
 0002:00001f6c       ??_C@_0BB@FDEAPLK@WM_XBUTTONDBLCLK?$AA@ 10009f6c     Cc_sufu_common.obj
 0002:00001f80       ??_C@_0BA@ICGEGMKJ@WM_PARENTNOTIFY?$AA@ 10009f80     Cc_sufu_common.obj
 0002:00001f90       ??_C@_0BB@JPJMEOJD@WM_ENTERMENULOOP?$AA@ 10009f90     Cc_sufu_common.obj
 0002:00001fa4       ??_C@_0BA@HPHPCIIA@WM_EXITMENULOOP?$AA@ 10009fa4     Cc_sufu_common.obj
 0002:00001fb4       ??_C@_0M@NIGDMHDP@WM_NEXTMENU?$AA@ 10009fb4     Cc_sufu_common.obj
 0002:00001fc0       ??_C@_09IPIPBONJ@WM_SIZING?$AA@ 10009fc0     Cc_sufu_common.obj
 0002:00001fcc       ??_C@_0BC@OCNDCLJD@WM_CAPTURECHANGED?$AA@ 10009fcc     Cc_sufu_common.obj
 0002:00001fe0       ??_C@_09KLMHPHFG@WM_MOVING?$AA@ 10009fe0     Cc_sufu_common.obj
 0002:00001fec       ??_C@_0BC@ENMFAAOM@WM_POWERBROADCAST?$AA@ 10009fec     Cc_sufu_common.obj
 0002:00002000       ??_C@_0BA@LANHJICN@WM_DEVICECHANGE?$AA@ 1000a000     Cc_sufu_common.obj
 0002:00002010       ??_C@_0N@HOLFADCA@WM_MDICREATE?$AA@ 1000a010     Cc_sufu_common.obj
 0002:00002020       ??_C@_0O@KNKGPLPB@WM_MDIDESTROY?$AA@ 1000a020     Cc_sufu_common.obj
 0002:00002030       ??_C@_0P@KMIJPOJC@WM_MDIACTIVATE?$AA@ 1000a030     Cc_sufu_common.obj
 0002:00002040       ??_C@_0O@EHIICBGB@WM_MDIRESTORE?$AA@ 1000a040     Cc_sufu_common.obj
 0002:00002050       ??_C@_0L@NOKIPAIO@WM_MDINEXT?$AA@ 1000a050     Cc_sufu_common.obj
 0002:0000205c       ??_C@_0P@BHCCMDPJ@WM_MDIMAXIMIZE?$AA@ 1000a05c     Cc_sufu_common.obj
 0002:0000206c       ??_C@_0L@PGNIOIKJ@WM_MDITILE?$AA@ 1000a06c     Cc_sufu_common.obj
 0002:00002078       ??_C@_0O@CJGCNHKE@WM_MDICASCADE?$AA@ 1000a078     Cc_sufu_common.obj
 0002:00002088       ??_C@_0BC@NNGOAOBK@WM_MDIICONARRANGE?$AA@ 1000a088     Cc_sufu_common.obj
 0002:0000209c       ??_C@_0BA@JJEAJOMN@WM_MDIGETACTIVE?$AA@ 1000a09c     Cc_sufu_common.obj
 0002:000020ac       ??_C@_0O@LFOADNBM@WM_DROPOBJECT?$AA@ 1000a0ac     Cc_sufu_common.obj
 0002:000020bc       ??_C@_0BD@EPCNIMII@WM_QUERYDROPOBJECT?$AA@ 1000a0bc     Cc_sufu_common.obj
 0002:000020d0       ??_C@_0N@KDMBBKK@WM_BEGINDRAG?$AA@ 1000a0d0     Cc_sufu_common.obj
 0002:000020e0       ??_C@_0M@GCFPILBN@WM_DRAGLOOP?$AA@ 1000a0e0     Cc_sufu_common.obj
 0002:000020ec       ??_C@_0O@DJGHONBO@WM_DRAGSELECT?$AA@ 1000a0ec     Cc_sufu_common.obj
 0002:000020fc       ??_C@_0M@HLHNNMEG@WM_DRAGMOVE?$AA@ 1000a0fc     Cc_sufu_common.obj
 0002:00002108       ??_C@_0O@MLJEEMJF@WM_MDISETMENU?$AA@ 1000a108     Cc_sufu_common.obj
 0002:00002118       ??_C@_0BB@CFFECPCC@WM_ENTERSIZEMOVE?$AA@ 1000a118     Cc_sufu_common.obj
 0002:0000212c       ??_C@_0BA@MFLHEJDB@WM_EXITSIZEMOVE?$AA@ 1000a12c     Cc_sufu_common.obj
 0002:0000213c       ??_C@_0N@GDICJFAE@WM_DROPFILES?$AA@ 1000a13c     Cc_sufu_common.obj
 0002:0000214c       ??_C@_0BC@CJCCHAGJ@WM_MDIREFRESHMENU?$AA@ 1000a14c     Cc_sufu_common.obj
 0002:00002160       ??_C@_0O@HOIIALDL@WM_KANJIFIRST?$AA@ 1000a160     Cc_sufu_common.obj
 0002:00002170       ??_C@_0BC@BDNAEGMM@WM_IME_SETCONTENT?$AA@ 1000a170     Cc_sufu_common.obj
 0002:00002184       ??_C@_0O@NIFFAANL@WM_IME_NOTIFY?$AA@ 1000a184     Cc_sufu_common.obj
 0002:00002194       ??_C@_0P@CLPNCGEA@WM_IME_CONTROL?$AA@ 1000a194     Cc_sufu_common.obj
 0002:000021a4       ??_C@_0BH@GGBGGFGK@WM_IME_COMPOSITIONFULL?$AA@ 1000a1a4     Cc_sufu_common.obj
 0002:000021bc       ??_C@_0O@NGOEABOO@WM_IME_SELECT?$AA@ 1000a1bc     Cc_sufu_common.obj
 0002:000021cc       ??_C@_0M@KGOALMI@WM_IME_CHAR?$AA@ 1000a1cc     Cc_sufu_common.obj
 0002:000021d8       ??_C@_0O@DHGICGAN@WM_IME_SYSTEM?$AA@ 1000a1d8     Cc_sufu_common.obj
 0002:000021e8       ??_C@_0P@KKJFHMCO@WM_IME_REQUEST?$AA@ 1000a1e8     Cc_sufu_common.obj
 0002:000021f8       ??_C@_0P@KACLNIBC@WM_IME_KEYDOWN?$AA@ 1000a1f8     Cc_sufu_common.obj
 0002:00002208       ??_C@_0N@KLCPFGPE@WM_IME_KEYUP?$AA@ 1000a208     Cc_sufu_common.obj
 0002:00002218       ??_C@_0N@JEPGNPFO@WM_KANJILAST?$AA@ 1000a218     Cc_sufu_common.obj
 0002:00002228       ??_C@_0BA@MPDIMPKH@WM_NCMOUSEHOVER?$AA@ 1000a228     Cc_sufu_common.obj
 0002:00002238       ??_C@_0O@HGOMBGNA@WM_MOUSEHOVER?$AA@ 1000a238     Cc_sufu_common.obj
 0002:00002248       ??_C@_0BA@MIDEGDIJ@WM_NCMOUSELEAVE?$AA@ 1000a248     Cc_sufu_common.obj
 0002:00002258       ??_C@_0O@HBOALKPO@WM_MOUSELEAVE?$AA@ 1000a258     Cc_sufu_common.obj
 0002:00002268       ??_C@_06LAGFDFMI@WM_CUT?$AA@ 1000a268     Cc_sufu_common.obj
 0002:00002270       ??_C@_07MGNLNGIN@WM_COPY?$AA@ 1000a270     Cc_sufu_common.obj
 0002:00002278       ??_C@_08DONOGNOC@WM_PASTE?$AA@ 1000a278     Cc_sufu_common.obj
 0002:00002284       ??_C@_08CJBADECI@WM_CLEAR?$AA@ 1000a284     Cc_sufu_common.obj
 0002:00002290       ??_C@_07JGHAGNLB@WM_UNDO?$AA@ 1000a290     Cc_sufu_common.obj
 0002:00002298       ??_C@_0BA@GNAGAMKN@WM_RENDERFORMAT?$AA@ 1000a298     Cc_sufu_common.obj
 0002:000022a8       ??_C@_0BE@NHKIBKPB@WM_RENDERALLFORMATS?$AA@ 1000a2a8     Cc_sufu_common.obj
 0002:000022bc       ??_C@_0BE@DHEAIAGM@WM_DESTROYCLIPBOARD?$AA@ 1000a2bc     Cc_sufu_common.obj
 0002:000022d0       ??_C@_0BB@HCKKIDNN@WM_DRAWCLIPBOARD?$AA@ 1000a2d0     Cc_sufu_common.obj
 0002:000022e4       ??_C@_0BC@IFDHILBB@WM_PAINTCLIPBOARD?$AA@ 1000a2e4     Cc_sufu_common.obj
 0002:000022f8       ??_C@_0BE@KGCPHGII@WM_VSCROLLCLIPBOARD?$AA@ 1000a2f8     Cc_sufu_common.obj
 0002:0000230c       ??_C@_0BB@KJALDIPA@WM_SIZECLIPBOARD?$AA@ 1000a30c     Cc_sufu_common.obj
 0002:00002320       ??_C@_0BD@MCGIJCNK@WM_ASKCBFORMATNAME?$AA@ 1000a320     Cc_sufu_common.obj
 0002:00002334       ??_C@_0BB@BLKNDPAP@WM_CHANGECBCHAIN?$AA@ 1000a334     Cc_sufu_common.obj
 0002:00002348       ??_C@_0BE@PAFKBHGD@WM_HSCROLLCLIPBOARD?$AA@ 1000a348     Cc_sufu_common.obj
 0002:0000235c       ??_C@_0BD@DFJIIFBH@WM_QUERYNEWPALETTE?$AA@ 1000a35c     Cc_sufu_common.obj
 0002:00002370       ??_C@_0BF@GLEDLMGA@WM_PALETTEISCHANGING?$AA@ 1000a370     Cc_sufu_common.obj
 0002:00002388       ??_C@_0BC@MCFMMPJA@WM_PALETTECHANGED?$AA@ 1000a388     Cc_sufu_common.obj
 0002:0000239c       ??_C@_09PBCCJDCE@WM_HOTKEY?$AA@ 1000a39c     Cc_sufu_common.obj
 0002:000023a8       ??_C@_0L@CCPIEAOB@WM_HOOKMSG?$AA@ 1000a3a8     Cc_sufu_common.obj
 0002:000023b4       ??_C@_0L@FFMNJLDH@WM_SYSMENU?$AA@ 1000a3b4     Cc_sufu_common.obj
 0002:000023c0       ??_C@_0P@JBDGBFEG@WM_EXITPROCESS?$AA@ 1000a3c0     Cc_sufu_common.obj
 0002:000023d0       ??_C@_0O@PKEODKFA@WM_WAKETHREAD?$AA@ 1000a3d0     Cc_sufu_common.obj
 0002:000023e0       ??_C@_08GEFCDCPN@WM_PRINT?$AA@ 1000a3e0     Cc_sufu_common.obj
 0002:000023ec       ??_C@_0P@MLEEKKK@WM_PRINTCLIENT?$AA@ 1000a3ec     Cc_sufu_common.obj
 0002:000023fc       ??_C@_0O@MPABICJL@WM_APPCOMMAND?$AA@ 1000a3fc     Cc_sufu_common.obj
 0002:0000240c       ??_C@_0BA@NBDKHFOC@WM_THEMECHANGED?$AA@ 1000a40c     Cc_sufu_common.obj
 0002:0000241c       ??_C@_0L@JAFHLEEE@WM_UAHINIT?$AA@ 1000a41c     Cc_sufu_common.obj
 0002:00002428       ??_C@_0N@HELLFDEF@WM_NOTIFYWOW?$AA@ 1000a428     Cc_sufu_common.obj
 0002:00002438       ??_C@_0BD@EJHCFCKH@WM_QUERYAFXWNDPROC?$AA@ 1000a438     Cc_sufu_common.obj
 0002:0000244c       ??_C@_0O@HACFHPKD@WM_SIZEPARENT?$AA@ 1000a44c     Cc_sufu_common.obj
 0002:0000245c       ??_C@_0BE@CHBCCDKI@WM_SETMESSAGESTRING?$AA@ 1000a45c     Cc_sufu_common.obj
 0002:00002470       ??_C@_0BD@LPMIGMHD@WM_IDLEUPDATECMDUI?$AA@ 1000a470     Cc_sufu_common.obj
 0002:00002484       ??_C@_0BB@KMOOHFHH@WM_INITIALUPDATE?$AA@ 1000a484     Cc_sufu_common.obj
 0002:00002498       ??_C@_0P@MBGBIEON@WM_COMMANDHELP?$AA@ 1000a498     Cc_sufu_common.obj
 0002:000024a8       ??_C@_0P@OPCJMKIL@WM_HELPHITTEST?$AA@ 1000a4a8     Cc_sufu_common.obj
 0002:000024b8       ??_C@_0BA@PEDKMNBA@WM_EXITHELPMODE?$AA@ 1000a4b8     Cc_sufu_common.obj
 0002:000024c8       ??_C@_0BA@KMOFKKFG@WM_RECALCPARENT?$AA@ 1000a4c8     Cc_sufu_common.obj
 0002:000024d8       ??_C@_0N@NJPJKIDH@WM_SIZECHILD?$AA@ 1000a4d8     Cc_sufu_common.obj
 0002:000024e8       ??_C@_0M@FGHIOINP@WM_KICKIDLE?$AA@ 1000a4e8     Cc_sufu_common.obj
 0002:000024f4       ??_C@_0BC@KMPMBNIC@WM_QUERYCENTERWND?$AA@ 1000a4f4     Cc_sufu_common.obj
 0002:00002508       ??_C@_0BA@OJLGALAF@WM_DISABLEMODAL?$AA@ 1000a508     Cc_sufu_common.obj
 0002:00002518       ??_C@_0P@MOAKOPLI@WM_FLOATSTATUS?$AA@ 1000a518     Cc_sufu_common.obj
 0002:00002528       ??_C@_0BE@IIIHACAF@WM_ACTIVATETOPLEVEL?$AA@ 1000a528     Cc_sufu_common.obj
 0002:0000253c       ??_C@_0BD@PJODONCL@WM_QUERY3DCONTROLS?$AA@ 1000a53c     Cc_sufu_common.obj
 0002:00002550       ??_C@_0BB@NHEDKOEF@WM_SOCKET_NOTIFY?$AA@ 1000a550     Cc_sufu_common.obj
 0002:00002564       ??_C@_0P@GNNJLGAN@WM_SOCKET_DEAD?$AA@ 1000a564     Cc_sufu_common.obj
 0002:00002574       ??_C@_0BE@KEHKHGD@WM_POPMESSAGESTRING?$AA@ 1000a574     Cc_sufu_common.obj
 0002:00002588       ??_C@_0BG@BGJCHHHP@WM_OCC_LOADFROMSTREAM?$AA@ 1000a588     Cc_sufu_common.obj
 0002:000025a0       ??_C@_0BH@CNLNJKJL@WM_OCC_LOADFROMSTORAGE?$AA@ 1000a5a0     Cc_sufu_common.obj
 0002:000025b8       ??_C@_0P@PHEFJEO@WM_OCC_INITNEW?$AA@ 1000a5b8     Cc_sufu_common.obj
 0002:000025c8       ??_C@_0BC@DGCDCNBL@WM_QUEUE_SENTINEL?$AA@ 1000a5c8     Cc_sufu_common.obj
 0002:000025dc       ??_C@_0BJ@LGIPLFKB@WM_OCC_LOADFROMSTREAM_EX?$AA@ 1000a5dc     Cc_sufu_common.obj
 0002:000025f8       ??_C@_0BK@FIGFHNBO@WM_OCC_LOADFROMSTORAGE_EX?$AA@ 1000a5f8     Cc_sufu_common.obj
 0002:00002614       ??_C@_0P@JHAEENOI@WM_PENWINFIRST?$AA@ 1000a614     Cc_sufu_common.obj
 0002:00002624       ??_C@_0M@KNFEGKPO@WM_RCRESULT?$AA@ 1000a624     Cc_sufu_common.obj
 0002:00002630       ??_C@_0BA@NDEDOAFI@WM_HOOKRCRESULT?$AA@ 1000a630     Cc_sufu_common.obj
 0002:00002640       ??_C@_0BC@IACBBELE@WM_GLOBALRCCHANGE?$AA@ 1000a640     Cc_sufu_common.obj
 0002:00002654       ??_C@_06OKFMFJPK@WM_SKB?$AA@ 1000a654     Cc_sufu_common.obj
 0002:0000265c       ??_C@_0M@HGGFHMNL@WM_HEDITCTL?$AA@ 1000a65c     Cc_sufu_common.obj
 0002:00002668       ??_C@_0BC@IGHOGBGA@WM_COALESCE_FIRST?$AA@ 1000a668     Cc_sufu_common.obj
 0002:0000267c       ??_C@_0BB@DCONID@WM_COALESCE_LAST?$AA@ 1000a67c     Cc_sufu_common.obj
 0002:00002690       ??_C@_0M@DLGEBKMG@MM_JOY1MOVE?$AA@ 1000a690     Cc_sufu_common.obj
 0002:0000269c       ??_C@_0M@LNPAGIGI@MM_JOY2MOVE?$AA@ 1000a69c     Cc_sufu_common.obj
 0002:000026a8       ??_C@_0N@KIFANMKA@MM_JOY1ZMOVE?$AA@ 1000a6a8     Cc_sufu_common.obj
 0002:000026b8       ??_C@_0N@JJLIMGDN@MM_JOY2ZMOVE?$AA@ 1000a6b8     Cc_sufu_common.obj
 0002:000026c8       ??_C@_0BC@KCBEGGKL@MM_JOY1BUTTONDOWN?$AA@ 1000a6c8     Cc_sufu_common.obj
 0002:000026dc       ??_C@_0BC@NFIKLEFL@MM_JOY2BUTTONDOWN?$AA@ 1000a6dc     Cc_sufu_common.obj
 0002:000026f0       ??_C@_0BA@OOHOKDEH@MM_JOY1BUTTONUP?$AA@ 1000a6f0     Cc_sufu_common.obj
 0002:00002700       ??_C@_0BA@FEJBIEE@MM_JOY2BUTTONUP?$AA@ 1000a700     Cc_sufu_common.obj
 0002:00002710       ??_C@_0N@CLPCGCAO@MM_MCINOTIFY?$AA@ 1000a710     Cc_sufu_common.obj
 0002:00002720       ??_C@_0M@EIKKLJFM@MM_WOM_OPEN?$AA@ 1000a720     Cc_sufu_common.obj
 0002:0000272c       ??_C@_0N@EGAKGGJJ@MM_WOM_CLOSE?$AA@ 1000a72c     Cc_sufu_common.obj
 0002:0000273c       ??_C@_0M@NIKBPJKO@MM_WOM_DONE?$AA@ 1000a73c     Cc_sufu_common.obj
 0002:00002748       ??_C@_0M@IOMFLANL@MM_WIM_OPEN?$AA@ 1000a748     Cc_sufu_common.obj
 0002:00002754       ??_C@_0N@DFBABPBD@MM_WIM_CLOSE?$AA@ 1000a754     Cc_sufu_common.obj
 0002:00002764       ??_C@_0M@ILMMGELI@MM_WIM_DATA?$AA@ 1000a764     Cc_sufu_common.obj
 0002:00002770       ??_C@_0M@LHCLHIDE@MM_MIM_OPEN?$AA@ 1000a770     Cc_sufu_common.obj
 0002:0000277c       ??_C@_0N@FJMAODC@MM_MIM_CLOSE?$AA@ 1000a77c     Cc_sufu_common.obj
 0002:0000278c       ??_C@_0M@LCCCKMFH@MM_MIM_DATA?$AA@ 1000a78c     Cc_sufu_common.obj
 0002:00002798       ??_C@_0BA@LDMMKONB@MM_MIM_LONGDATA?$AA@ 1000a798     Cc_sufu_common.obj
 0002:000027a8       ??_C@_0N@LONJJFAM@MM_MIM_ERROR?$AA@ 1000a7a8     Cc_sufu_common.obj
 0002:000027b8       ??_C@_0BB@LKADFNBL@MM_MIM_LONGERROR?$AA@ 1000a7b8     Cc_sufu_common.obj
 0002:000027cc       ??_C@_0M@HBEEHBLD@MM_MOM_OPEN?$AA@ 1000a7cc     Cc_sufu_common.obj
 0002:000027d8       ??_C@_0N@HGIGHHLI@MM_MOM_CLOSE?$AA@ 1000a7d8     Cc_sufu_common.obj
 0002:000027e8       ??_C@_0M@OBEPDBEB@MM_MOM_DONE?$AA@ 1000a7e8     Cc_sufu_common.obj
 0002:000027f4       ??_C@_0BE@HKAMLDAH@WM_MM_RESERVED_LAST?$AA@ 1000a7f4     Cc_sufu_common.obj
 0002:00002808       ??_C@_0BA@FIIFMKPP@WM_DDE_INITIATE?$AA@ 1000a808     Cc_sufu_common.obj
 0002:00002818       ??_C@_0BB@NLLFEINJ@WM_DDE_TERMINATE?$AA@ 1000a818     Cc_sufu_common.obj
 0002:0000282c       ??_C@_0O@PFABIJJK@WM_DDE_ADVISE?$AA@ 1000a82c     Cc_sufu_common.obj
 0002:0000283c       ??_C@_0BA@DAJFP@WM_DDE_UNADVISE?$AA@ 1000a83c     Cc_sufu_common.obj
 0002:0000284c       ??_C@_0L@LJOOEALE@WM_DDE_ACK?$AA@ 1000a84c     Cc_sufu_common.obj
 0002:00002858       ??_C@_0M@FAEEEECH@WM_DDE_DATA?$AA@ 1000a858     Cc_sufu_common.obj
 0002:00002864       ??_C@_0P@EPHHEDEF@WM_DDE_REQUEST?$AA@ 1000a864     Cc_sufu_common.obj
 0002:00002874       ??_C@_0M@FGONCDBP@WM_DDE_POKE?$AA@ 1000a874     Cc_sufu_common.obj
 0002:00002880       ??_C@_0P@EOGIMGNM@WM_DDE_EXECUTE?$AA@ 1000a880     Cc_sufu_common.obj
 0002:00002890       ??_C@_0BG@FAFFGOEB@WM_CBT_RESERVED_FIRST?$AA@ 1000a890     Cc_sufu_common.obj
 0002:000038ac       ??_C@_0BF@PNJOCECD@WM_CBT_RESERVED_LAST?$AA@ 1000b8ac     Cc_sufu_common.obj
 0002:000038c4       ??_C@_07MKKNOENI@WM_USER?$AA@ 1000b8c4     Cc_sufu_common.obj
 0002:000038cc       ??_C@_07CDGGBJMH@WM_NULL?$AA@ 1000b8cc     Cc_sufu_common.obj
 0002:000038d4       ??_C@_09IFMDBMNH@WM_CREATE?$AA@ 1000b8d4     Cc_sufu_common.obj
 0002:000038e0       ??_C@_0L@IOIEOKFB@WM_DESTROY?$AA@ 1000b8e0     Cc_sufu_common.obj
 0002:000038ec       ??_C@_07JLBBEJAD@WM_MOVE?$AA@ 1000b8ec     Cc_sufu_common.obj
 0002:000038f4       ??_C@_0M@DEDAIIPB@WM_SIZEWAIT?$AA@ 1000b8f4     Cc_sufu_common.obj
 0002:00003900       ??_C@_07GILAMGFI@WM_SIZE?$AA@ 1000b900     Cc_sufu_common.obj
 0002:00003908       ??_C@_0M@HKHMHPGL@WM_ACTIVATE?$AA@ 1000b908     Cc_sufu_common.obj
 0002:00003914       ??_C@_0M@BFNAEMFG@WM_SETFOCUS?$AA@ 1000b914     Cc_sufu_common.obj
 0002:00003920       ??_C@_0N@FJOIKFPK@WM_KILLFOCUS?$AA@ 1000b920     Cc_sufu_common.obj
 0002:00003930       ??_C@_0O@DGANGBKO@WM_SETVISIBLE?$AA@ 1000b930     Cc_sufu_common.obj
 0002:00003940       ??_C@_09GHAHBAOL@WM_ENABLE?$AA@ 1000b940     Cc_sufu_common.obj
 0002:0000394c       ??_C@_0N@HFLIOHBC@WM_SETREDRAW?$AA@ 1000b94c     Cc_sufu_common.obj
 0002:0000395c       ??_C@_0L@IEPGEGEF@WM_SETTEXT?$AA@ 1000b95c     Cc_sufu_common.obj
 0002:00003968       ??_C@_0L@HMAHHJJE@WM_GETTEXT?$AA@ 1000b968     Cc_sufu_common.obj
 0002:00003974       ??_C@_0BB@NMCCDOHJ@WM_GETTEXTLENGTH?$AA@ 1000b974     Cc_sufu_common.obj
 0002:00003988       ??_C@_08EDBCNPKP@WM_PAINT?$AA@ 1000b988     Cc_sufu_common.obj
 0002:00003994       ??_C@_08FMIMCHME@WM_CLOSE?$AA@ 1000b994     Cc_sufu_common.obj
 0002:000039a0       ??_C@_0BD@ENAAGMJE@WM_QUERYENDSESSION?$AA@ 1000b9a0     Cc_sufu_common.obj
 0002:000039b4       ??_C@_07EFAGEDCG@WM_QUIT?$AA@ 1000b9b4     Cc_sufu_common.obj
 0002:000039bc       ??_C@_0N@FIFIHOFF@WM_QUERYOPEN?$AA@ 1000b9bc     Cc_sufu_common.obj
 0002:000039cc       ??_C@_0O@EDCAABNK@WM_ERASEBKGND?$AA@ 1000b9cc     Cc_sufu_common.obj
 0002:000039dc       ??_C@_0BC@KGNOFAEC@WM_SYSCOLORCHANGE?$AA@ 1000b9dc     Cc_sufu_common.obj
 0002:000039f0       ??_C@_0O@LHMNNNAA@WM_ENDSESSION?$AA@ 1000b9f0     Cc_sufu_common.obj
 0002:00003a00       ??_C@_0P@BLCONJPE@WM_SYSTEMERROR?$AA@ 1000ba00     Cc_sufu_common.obj
 0002:00003a10       ??_C@_0O@FJJJLNAE@WM_SHOWWINDOW?$AA@ 1000ba10     Cc_sufu_common.obj
 0002:00003a20       ??_C@_0M@FNDEHLDJ@WM_CTLCOLOR?$AA@ 1000ba20     Cc_sufu_common.obj
 0002:00003a2c       ??_C@_0BA@OMFMICO@WM_WININICHANGE?$AA@ 1000ba2c     Cc_sufu_common.obj
 0002:00003a3c       ??_C@_0BB@GKEELHGC@WM_DEVMODECHANGE?$AA@ 1000ba3c     Cc_sufu_common.obj
 0002:00003a50       ??_C@_0P@EADJDACJ@WM_ACTIVATEAPP?$AA@ 1000ba50     Cc_sufu_common.obj
 0002:00003a60       ??_C@_0O@DONHOAPC@WM_FONTCHANGE?$AA@ 1000ba60     Cc_sufu_common.obj
 0002:00003a70       ??_C@_0O@EMMPOAMP@WM_TIMECHANGE?$AA@ 1000ba70     Cc_sufu_common.obj
 0002:00003a80       ??_C@_0O@KAHMAHCA@WM_CANCELMODE?$AA@ 1000ba80     Cc_sufu_common.obj
 0002:00003a90       ??_C@_0N@JHDCKOPL@WM_SETCURSOR?$AA@ 1000ba90     Cc_sufu_common.obj
 0002:00003aa0       ??_C@_0BB@BDGPPIDA@WM_MOUSEACTIVATE?$AA@ 1000baa0     Cc_sufu_common.obj
 0002:00003ab4       ??_C@_0BB@HOFJFAKG@WM_CHILDACTIVATE?$AA@ 1000bab4     Cc_sufu_common.obj
 0002:00003ac8       ??_C@_0N@BBFBGJLA@pq?5c?5?$CDcbcbcb?$AA@ 1000bac8     bncs_cc02_edit.obj
 0002:00003ad8       ??_C@_0N@HCGIOEHH@cN?5c?5?$CD221614?$AA@ 1000bad8     bncs_cc02_edit.obj
 0002:00003ae8       ??_C@_0N@BMKHOIDF@aH?5c?5?$CDcbebff?$AA@ 1000bae8     bncs_cc02_edit.obj
 0002:00003af8       ??_C@_0N@HHPHHHAB@ey?5c?5?$CD221711?$AA@ 1000baf8     bncs_cc02_edit.obj
 0002:00003b08       ??_C@_0N@MDJPPGHC@yq?5c?5?$CDcbecff?$AA@ 1000bb08     bncs_cc02_edit.obj
 0002:00003b18       ??_C@_0N@PBHDIEOB@?4A?5c?5?$CD221b13?$AA@ 1000bb18     bncs_cc02_edit.obj
 0002:00003b28       ??_C@_0N@HDJDCICB@mM?5c?5?$CDccb39f?$AA@ 1000bb28     bncs_cc02_edit.obj
 0002:00003b38       ??_C@_0N@HOLCKFHD@?4a?5c?5?$CD222222?$AA@ 1000bb38     bncs_cc02_edit.obj
 0002:00003b48       ??_C@_0N@CBKHFAEL@f?4?5c?5?$CDcccccc?$AA@ 1000bb48     bncs_cc02_edit.obj
 0002:00003b58       ??_C@_0N@MBLNFCML@gg?5c?5?$CD222425?$AA@ 1000bb58     bncs_cc02_edit.obj
 0002:00003b68       ??_C@_0N@OIJKHOCN@bX?5c?5?$CDccd6e1?$AA@ 1000bb68     bncs_cc02_edit.obj
 0002:00003b78       ??_C@_0N@PAMPDJNI@xY?5c?5?$CD222939?$AA@ 1000bb78     bncs_cc02_edit.obj
 0002:00003b88       ??_C@_0N@DKLNCAPA@xZ?5c?5?$CDcce2f1?$AA@ 1000bb88     bncs_cc02_edit.obj
 0002:00003b98       ??_C@_0N@NFCBDANC@ob?5c?5?$CD222a36?$AA@ 1000bb98     bncs_cc02_edit.obj
 0002:00003ba8       ??_C@_0N@EEIGFPCB@vs?5c?5?$CDcdaa87?$AA@ 1000bba8     bncs_cc02_edit.obj
 0002:00003bb8       ??_C@_0N@KMNCKKHM@ck?5c?5?$CD22313d?$AA@ 1000bbb8     bncs_cc02_edit.obj
 0002:00003bc8       ??_C@_0N@NNODGCEA@dG?5c?5?$CDcdb392?$AA@ 1000bbc8     bncs_cc02_edit.obj
 0002:00003bd8       ??_C@_0N@GPDOJEHF@o0?5c?5?$CD223d52?$AA@ 1000bbd8     bncs_cc02_edit.obj
 0002:00003be8       ??_C@_0N@INFJNKAM@i0?5c?5?$CDcdbba4?$AA@ 1000bbe8     bncs_cc02_edit.obj
 0002:00003bf8       ??_C@_0N@EGOGNEPO@rS?5c?5?$CD22476d?$AA@ 1000bbf8     bncs_cc02_edit.obj
 0002:00003c08       ??_C@_0N@CJICOKD@qp?5c?5?$CDcdc6c7?$AA@ 1000bc08     bncs_cc02_edit.obj
 0002:00003c18       ??_C@_0N@DMMKAPGN@uW?5c?5?$CD230900?$AA@ 1000bc18     bncs_cc02_edit.obj
 0002:00003c28       ??_C@_0N@GLHNCKJK@kD?5c?5?$CDcdcdcd?$AA@ 1000bc28     bncs_cc02_edit.obj
 0002:00003c38       ??_C@_0N@OJNCCLKK@od?5c?5?$CD231507?$AA@ 1000bc38     bncs_cc02_edit.obj
 0002:00003c48       ??_C@_0N@KPOGLFGB@qc?5c?5?$CDcdecff?$AA@ 1000bc48     bncs_cc02_edit.obj
 0002:00003c58       ??_C@_0N@EMOBMDNA@?$CDp?5c?5?$CD23190b?$AA@ 1000bc58     bncs_cc02_edit.obj
 0002:00003c68       ??_C@_0N@JPMLJGEJ@v5?5c?5?$CDcdf0ff?$AA@ 1000bc68     bncs_cc02_edit.obj
 0002:00003c78       ??_C@_0N@GIDIOIMF@?4b?5c?5?$CD23211b?$AA@ 1000bc78     bncs_cc02_edit.obj
 0002:00003c88       ??_C@_0N@MJGEOPDJ@aE?5c?5?$CDceac8c?$AA@ 1000bc88     bncs_cc02_edit.obj
 0002:00003c98       ??_C@_0N@LFNCNCBN@sg?5c?5?$CD232323?$AA@ 1000bc98     bncs_cc02_edit.obj
 0002:00003ca8       ??_C@_0N@ONBNAMLM@aG?5c?5?$CDceb08e?$AA@ 1000bca8     bncs_cc02_edit.obj
 0002:00003cb8       ??_C@_0N@NFGNPGAG@c1?5c?5?$CD232f39?$AA@ 1000bcb8     bncs_cc02_edit.obj
 0002:00003cc8       ??_C@_0N@LLGDCPAB@k9?5c?5?$CDcecece?$AA@ 1000bcc8     bncs_cc02_edit.obj
 0002:00003cd8       ??_C@_0N@BNIFFCEA@bR?5c?5?$CD23384b?$AA@ 1000bcd8     bncs_cc02_edit.obj
 0002:00003ce8       ??_C@_0N@FDAOMCEP@kE?5c?5?$CDcecfd1?$AA@ 1000bce8     bncs_cc02_edit.obj
 0002:00003cf8       ??_C@_0N@DOOJAKAD@uv?5c?5?$CD233c54?$AA@ 1000bcf8     bncs_cc02_edit.obj
 0002:00003d08       ??_C@_0N@GGGCMPEE@nb?5c?5?$CDcfb28e?$AA@ 1000bd08     bncs_cc02_edit.obj
 0002:00003d18       ??_C@_0N@PEEOPJME@c9?5c?5?$CD240900?$AA@ 1000bd18     bncs_cc02_edit.obj
 0002:00003d28       ??_C@_0N@OKJBAFHL@kC?5c?5?$CDcfcecd?$AA@ 1000bd28     bncs_cc02_edit.obj
 0002:00003d38       ??_C@_0N@INHJAHMF@hS?5c?5?$CD241503?$AA@ 1000bd38     bncs_cc02_edit.obj
 0002:00003d48       ??_C@_0N@BFKBLAMH@i2?5c?5?$CDcfcfcf?$AA@ 1000bd48     bncs_cc02_edit.obj
 0002:00003d58       ??_C@_0N@KICECJBN@pD?5c?5?$CD242424?$AA@ 1000bd58     bncs_cc02_edit.obj
 0002:00003d68       ??_C@_0N@OPOAGOGH@hm?5c?5?$CDcfd1d4?$AA@ 1000bd68     bncs_cc02_edit.obj
 0002:00003d78       ??_C@_0N@CLDIOBGG@tZ?5c?5?$CD244165?$AA@ 1000bd78     bncs_cc02_edit.obj
 0002:00003d88       ??_C@_0N@IGEOCLLD@tj?5c?5?$CDcfd8e3?$AA@ 1000bd88     bncs_cc02_edit.obj
 0002:00003d98       ??_C@_0N@FGMGGHM@y2?5c?5?$CD250100?$AA@ 1000bd98     bncs_cc02_edit.obj
 0002:00003da8       ??_C@_0N@IOFDNFIE@b9?5c?5?$CDd0b799?$AA@ 1000bda8     bncs_cc02_edit.obj
 0002:00003db8       ??_C@_0N@PECNIEPA@tg?5c?5?$CD250200?$AA@ 1000bdb8     bncs_cc02_edit.obj
 0002:00003dc8       ??_C@_0N@GPGJCFNJ@eu?5c?5?$CDd0c1b0?$AA@ 1000bdc8     bncs_cc02_edit.obj
 0002:00003dd8       ??_C@_0N@GGHAKMEA@t4?5c?5?$CD250a00?$AA@ 1000bdd8     bncs_cc02_edit.obj
 0002:00003de8       ??_C@_0N@FPACJO@z?$CD?5c?5?$CDd0c4c1?$AA@ 1000bde8     bncs_cc02_edit.obj
 0002:00003df8       ??_C@_0N@LFBHKMDI@iM?5c?5?$CD251205?$AA@ 1000bdf8     bncs_cc02_edit.obj
 0002:00003e08       ??_C@_0N@EPHAKFEC@jd?5c?5?$CDd0cfce?$AA@ 1000be08     bncs_cc02_edit.obj
 0002:00003e18       ??_C@_0N@BMJPFHJA@zL?5c?5?$CD25190c?$AA@ 1000be18     bncs_cc02_edit.obj
 0002:00003e28       ??_C@_0N@DAFIBFDB@k4?5c?5?$CDd0d0d0?$AA@ 1000be28     bncs_cc02_edit.obj
 0002:00003e38       ??_C@_0N@FNLHNNOI@zb?5c?5?$CD251d11?$AA@ 1000be38     bncs_cc02_edit.obj
 0002:00003e48       ??_C@_0N@LEACDGLP@jb?5c?5?$CDd0d1d2?$AA@ 1000be48     bncs_cc02_edit.obj
 0002:00003e58       ??_C@_0N@CEJDLCGK@fX?5c?5?$CD25232a?$AA@ 1000be58     bncs_cc02_edit.obj
 0002:00003e68       ??_C@_0N@LMIDKCOJ@yD?5c?5?$CDd0d9e0?$AA@ 1000be68     bncs_cc02_edit.obj
 0002:00003e78       ??_C@_0N@JOCPOJKC@f5?5c?5?$CD252422?$AA@ 1000be78     bncs_cc02_edit.obj
 0002:00003e88       ??_C@_0N@LKGIJLFP@y6?5c?5?$CDd0dee7?$AA@ 1000be88     bncs_cc02_edit.obj
 0002:00003e98       ??_C@_0N@ENKEPGEK@i1?5c?5?$CD252525?$AA@ 1000be98     bncs_cc02_edit.obj
 0002:00003ea8       ??_C@_0N@HCLHCJNG@vL?5c?5?$CDd0eafd?$AA@ 1000bea8     bncs_cc02_edit.obj
 0002:00003eb8       ??_C@_0N@KIMDGJPP@s6?5c?5?$CD252728?$AA@ 1000beb8     bncs_cc02_edit.obj
 0002:00003ec8       ??_C@_0N@OFFOHDN@?$CD?4?5c?5?$CDd0f2ff?$AA@ 1000bec8     bncs_cc02_edit.obj
 0002:00003ed8       ??_C@_0N@GPMENGLO@qI?5c?5?$CD25446a?$AA@ 1000bed8     bncs_cc02_edit.obj
 0002:00003ee8       ??_C@_0N@DMAAIFIN@rg?5c?5?$CDd1ad86?$AA@ 1000bee8     bncs_cc02_edit.obj
 0002:00003ef8       ??_C@_0N@KFDCHFKM@iY?5c?5?$CD260a00?$AA@ 1000bef8     bncs_cc02_edit.obj
 0002:00003f08       ??_C@_0N@IJDLEFBK@dB?5c?5?$CDd1b28d?$AA@ 1000bf08     bncs_cc02_edit.obj
 0002:00003f18       ??_C@_0N@LFHNBBHO@y4?5c?5?$CD260b00?$AA@ 1000bf18     bncs_cc02_edit.obj
 0002:00003f28       ??_C@_0N@CHDGJAMF@wx?5c?5?$CDd1b49a?$AA@ 1000bf28     bncs_cc02_edit.obj
 0002:00003f38       ??_C@_0N@ICHBGDMO@vq?5c?5?$CD260c00?$AA@ 1000bf38     bncs_cc02_edit.obj
 0002:00003f48       ??_C@_0N@KMOIHIGK@m8?5c?5?$CDd1c2af?$AA@ 1000bf48     bncs_cc02_edit.obj
 0002:00003f58       ??_C@_0N@FMFJGPAG@cY?5c?5?$CD261b0f?$AA@ 1000bf58     bncs_cc02_edit.obj
 0002:00003f68       ??_C@_0N@CODLHJDP@k3?5c?5?$CDd1d1d1?$AA@ 1000bf68     bncs_cc02_edit.obj
 0002:00003f78       ??_C@_0N@CHPNJDFN@ix?5c?5?$CD262321?$AA@ 1000bf78     bncs_cc02_edit.obj
 0002:00003f88       ??_C@_0N@DGEEIOAP@bS?5c?5?$CDd1dae4?$AA@ 1000bf88     bncs_cc02_edit.obj
 0002:00003f98       ??_C@_0N@INMOPBAK@gb?5c?5?$CD262422?$AA@ 1000bf98     bncs_cc02_edit.obj
 0002:00003fa8       ??_C@_0N@CECFGGAB@lx?5c?5?$CDd1dce7?$AA@ 1000bfa8     bncs_cc02_edit.obj
 0002:00003fb8       ??_C@_0N@DBOOGGIK@j?4?5c?5?$CD262626?$AA@ 1000bfb8     bncs_cc02_edit.obj
 0002:00003fc8       ??_C@_0N@OAOPAKBM@x4?5c?5?$CDd1e4fa?$AA@ 1000bfc8     bncs_cc02_edit.obj
 0002:00003fd8       ??_C@_0N@MDMHEFJN@iA?5c?5?$CD26282a?$AA@ 1000bfd8     bncs_cc02_edit.obj
 0002:00003fe8       ??_C@_0N@JAPEPGKF@kO?5c?5?$CDd2d1d0?$AA@ 1000bfe8     bncs_cc02_edit.obj
 0002:00003ff8       ??_C@_0N@BMADHCEE@ww?5c?5?$CD263e58?$AA@ 1000bff8     bncs_cc02_edit.obj
 0002:00004008       ??_C@_0N@IDAIPNDL@px?5c?5?$CDd2d2d2?$AA@ 1000c008     bncs_cc02_edit.obj
 0002:00004018       ??_C@_0N@CJIJIJHE@ri?5c?5?$CD270a00?$AA@ 1000c018     bncs_cc02_edit.obj
 0002:00004028       ??_C@_0N@DPNIKCMP@k?$CD?5c?5?$CDd3bba1?$AA@ 1000c028     bncs_cc02_edit.obj
 0002:00004038       ??_C@_0N@PFFBABGN@mm?5c?5?$CD27180e?$AA@ 1000c038     bncs_cc02_edit.obj
 0002:00004048       ??_C@_0N@HBGGMHHJ@?$CDn?5c?5?$CDd3c6c4?$AA@ 1000c048     bncs_cc02_edit.obj
 0002:00004058       ??_C@_0N@JIPNNABL@p?$CD?5c?5?$CD271d10?$AA@ 1000c058     bncs_cc02_edit.obj
 0002:00004068       ??_C@_0N@BKCBPBLE@jc?5c?5?$CDd3d3d3?$AA@ 1000c068     bncs_cc02_edit.obj
 0002:00004078       ??_C@_0N@JHHBEEHF@fQ?5c?5?$CD272727?$AA@ 1000c078     bncs_cc02_edit.obj
 0002:00004088       ??_C@_0N@JNJFFFCD@eA?5c?5?$CDd3e5f4?$AA@ 1000c088     bncs_cc02_edit.obj
 0002:00004098       ??_C@_0N@GHHHIKEK@fR?5c?5?$CD272728?$AA@ 1000c098     bncs_cc02_edit.obj
 0002:000040a8       ??_C@_0N@FLOBLEHD@?46?5c?5?$CDd3eaff?$AA@ 1000c0a8     bncs_cc02_edit.obj
 0002:000040b8       ??_C@_0N@EKCJGFLA@i7?5c?5?$CD273e53?$AA@ 1000c0b8     bncs_cc02_edit.obj
 0002:000040c8       ??_C@_0N@JGCNDNOL@?4E?5c?5?$CDd3f2ff?$AA@ 1000c0c8     bncs_cc02_edit.obj
 0002:000040d8       ??_C@_0N@EBOCONOE@?4c?5c?5?$CD27405c?$AA@ 1000c0d8     bncs_cc02_edit.obj
 0002:000040e8       ??_C@_0N@LKPOFFOP@on?5c?5?$CDd3f4ff?$AA@ 1000c0e8     bncs_cc02_edit.obj
 0002:000040f8       ??_C@_0N@HGINANLM@lC?5c?5?$CD280b00?$AA@ 1000c0f8     bncs_cc02_edit.obj
 0002:00004108       ??_C@_0N@PEFPGJFI@d9?5c?5?$CDd4b898?$AA@ 1000c108     bncs_cc02_edit.obj
 0002:00004118       ??_C@_0N@FKIGBONN@fE?5c?5?$CD281c15?$AA@ 1000c118     bncs_cc02_edit.obj
 0002:00004128       ??_C@_0N@DHFJNHIE@k7?5c?5?$CDd4d4d4?$AA@ 1000c128     bncs_cc02_edit.obj
 0002:00004138       ??_C@_0N@JGHOAONP@r3?5c?5?$CD281e13?$AA@ 1000c138     bncs_cc02_edit.obj
 0002:00004148       ??_C@_0N@NIPLIKKG@aN?5c?5?$CDd4f3ff?$AA@ 1000c148     bncs_cc02_edit.obj
 0002:00004158       ??_C@_0N@KFOBKKJJ@fP?5c?5?$CD282827?$AA@ 1000c158     bncs_cc02_edit.obj
 0002:00004168       ??_C@_0N@GLBLCHA@hf?5c?5?$CDd5d3d1?$AA@ 1000c168     bncs_cc02_edit.obj
 0002:00004178       ??_C@_0N@HMHLPIEE@gq?5c?5?$CD282828?$AA@ 1000c178     bncs_cc02_edit.obj
 0002:00004188       ??_C@_0N@OPHGOIEI@h?$CD?5c?5?$CDd5d5d5?$AA@ 1000c188     bncs_cc02_edit.obj
 0002:00004198       ??_C@_0N@PJEMANJH@iH?5c?5?$CD282a2b?$AA@ 1000c198     bncs_cc02_edit.obj
 0002:000041a8       ??_C@_0N@LFDCACPM@kP?5c?5?$CDd5d6cd?$AA@ 1000c1a8     bncs_cc02_edit.obj
 0002:000041b8       ??_C@_0N@PPGIECMA@fs?5c?5?$CD282b2d?$AA@ 1000c1b8     bncs_cc02_edit.obj
 0002:000041c8       ??_C@_0N@PMHEMDIE@tH?5c?5?$CDd5eeff?$AA@ 1000c1c8     bncs_cc02_edit.obj
 0002:000041d8       ??_C@_0N@KENEPMKH@d5?5c?5?$CD283b60?$AA@ 1000c1d8     bncs_cc02_edit.obj
 0002:000041e8       ??_C@_0N@JNEJIEEJ@vF?5c?5?$CDd6cfc1?$AA@ 1000c1e8     bncs_cc02_edit.obj
 0002:000041f8       ??_C@_0N@EBBAKLAC@dR?5c?5?$CD284667?$AA@ 1000c1f8     bncs_cc02_edit.obj
 0002:00004208       ??_C@_0N@CDDFIFKB@uM?5c?5?$CDd6d0d2?$AA@ 1000c208     bncs_cc02_edit.obj
 0002:00004218       ??_C@_0N@NMKJFIFC@au?5c?5?$CD291203?$AA@ 1000c218     bncs_cc02_edit.obj
 0002:00004228       ??_C@_0N@CDCKOHCH@uZ?5c?5?$CDd6d5d5?$AA@ 1000c228     bncs_cc02_edit.obj
 0002:00004238       ??_C@_0N@CFCMHOJO@fS?5c?5?$CD292723?$AA@ 1000c238     bncs_cc02_edit.obj
 0002:00004248       ??_C@_0N@FJFEKJAI@gK?5c?5?$CDd6d6d6?$AA@ 1000c248     bncs_cc02_edit.obj
 0002:00004258       ??_C@_0N@MBGHEKCF@iI?5c?5?$CD292826?$AA@ 1000c258     bncs_cc02_edit.obj
 0002:00004268       ??_C@_0N@JFELFHNI@u2?5c?5?$CDd6d7d7?$AA@ 1000c268     bncs_cc02_edit.obj
 0002:00004278       ??_C@_0N@NGOGHNDK@pm?5c?5?$CD292929?$AA@ 1000c278     bncs_cc02_edit.obj
 0002:00004288       ??_C@_0N@CLEAFNK@kF?5c?5?$CDd7ccbb?$AA@ 1000c288     bncs_cc02_edit.obj
 0002:00004298       ??_C@_0N@HEKIGBPF@bw?5c?5?$CD292a27?$AA@ 1000c298     bncs_cc02_edit.obj
 0002:000042a8       ??_C@_0N@NDMNNDKL@ja?5c?5?$CDd7cfcd?$AA@ 1000c2a8     bncs_cc02_edit.obj
 0002:000042b8       ??_C@_0N@JMALKODF@bK?5c?5?$CD29486b?$AA@ 1000c2b8     bncs_cc02_edit.obj
 0002:000042c8       ??_C@_0N@PPNBMBIK@pG?5c?5?$CDd7d7d7?$AA@ 1000c2c8     bncs_cc02_edit.obj
 0002:000042d8       ??_C@_0N@LGHNJGBL@rN?5c?5?$CD294b73?$AA@ 1000c2d8     bncs_cc02_edit.obj
 0002:000042e8       ??_C@_0N@FLOCOMH@cL?5c?5?$CDd8c6b2?$AA@ 1000c2e8     bncs_cc02_edit.obj
 0002:000042f8       ??_C@_0N@FLAICAPG@qn?5c?5?$CD2a0300?$AA@ 1000c2f8     bncs_cc02_edit.obj
 0002:00004308       ??_C@_0N@JLLKGNBA@sa?5c?5?$CDd8d8d8?$AA@ 1000c308     bncs_cc02_edit.obj
 0002:00004318       ??_C@_0N@OEPGCCGH@uO?5c?5?$CD2a0f00?$AA@ 1000c318     bncs_cc02_edit.obj
 0002:00004328       ??_C@_0N@IFONPELI@u6?5c?5?$CDd8dadb?$AA@ 1000c328     bncs_cc02_edit.obj
 0002:00004338       ??_C@_0N@HHAEIEON@dv?5c?5?$CD2a1f17?$AA@ 1000c338     bncs_cc02_edit.obj
 0002:00004348       ??_C@_0N@EGIENGMP@aQ?5c?5?$CDd8e5f1?$AA@ 1000c348     bncs_cc02_edit.obj
 0002:00004358       ??_C@_0N@OEONLMEC@mG?5c?5?$CD2a2015?$AA@ 1000c358     bncs_cc02_edit.obj
 0002:00004368       ??_C@_0N@ILBEAEIA@xB?5c?5?$CDd8f0ff?$AA@ 1000c368     bncs_cc02_edit.obj
 0002:00004378       ??_C@_0N@IGPBJMIC@bv?5c?5?$CD2a2928?$AA@ 1000c378     bncs_cc02_edit.obj
 0002:00004388       ??_C@_0N@OJFJHNKL@kb?5c?5?$CDd8faff?$AA@ 1000c388     bncs_cc02_edit.obj
 0002:00004398       ??_C@_0N@BDNHOPAK@iB?5c?5?$CD2a2a2a?$AA@ 1000c398     bncs_cc02_edit.obj
 0002:000043a8       ??_C@_0N@BLHELDFK@aV?5c?5?$CDd9d4d5?$AA@ 1000c3a8     bncs_cc02_edit.obj
 0002:000043b8       ??_C@_0N@BHCCMMCM@fF?5c?5?$CD2a2b2c?$AA@ 1000c3b8     bncs_cc02_edit.obj
 0002:000043c8       ??_C@_0N@ENOPCIGF@bf?5c?5?$CDd9d8d8?$AA@ 1000c3c8     bncs_cc02_edit.obj
 0002:000043d8       ??_C@_0N@PLKDLIHH@yT?5c?5?$CD2a4257?$AA@ 1000c3d8     bncs_cc02_edit.obj
 0002:000043e8       ??_C@_0N@KOLFFPGD@v?$CD?5c?5?$CDd9d9d7?$AA@ 1000c3e8     bncs_cc02_edit.obj
 0002:000043f8       ??_C@_0N@BNPDEDPL@mY?5c?5?$CD2a455d?$AA@ 1000c3f8     bncs_cc02_edit.obj
 0002:00004408       ??_C@_0N@EGJPBPFN@py?5c?5?$CDd9d9d9?$AA@ 1000c408     bncs_cc02_edit.obj
 0002:00004418       ??_C@_0N@NEBFOCNF@?$CDh?5c?5?$CD2b0700?$AA@ 1000c418     bncs_cc02_edit.obj
 0002:00004428       ??_C@_0N@OCAHBBCB@bi?5c?5?$CDd9dada?$AA@ 1000c428     bncs_cc02_edit.obj
 0002:00004438       ??_C@_0N@LNFKOBDI@aX?5c?5?$CD2b1000?$AA@ 1000c438     bncs_cc02_edit.obj
 0002:00004448       ??_C@_0N@LEPFJGNE@je?5c?5?$CDd9e2e7?$AA@ 1000c448     bncs_cc02_edit.obj
 0002:00004458       ??_C@_0N@BPKHGMDE@l6?5c?5?$CD2b2218?$AA@ 1000c458     bncs_cc02_edit.obj
 0002:00004468       ??_C@_0N@DEDLICFI@ni?5c?5?$CDd9eaf9?$AA@ 1000c468     bncs_cc02_edit.obj
 0002:00004478       ??_C@_0N@ECDCHOPO@su?5c?5?$CD2b2b2b?$AA@ 1000c478     bncs_cc02_edit.obj
 0002:00004488       ??_C@_0N@NIMOACAK@nF?5c?5?$CDd9f4ff?$AA@ 1000c488     bncs_cc02_edit.obj
 0002:00004498       ??_C@_0N@FCIMOGOL@fU?5c?5?$CD2b2c2c?$AA@ 1000c498     bncs_cc02_edit.obj
 0002:000044a8       ??_C@_0N@HNADJIO@bx?5c?5?$CDd9f5ff?$AA@ 1000c4a8     bncs_cc02_edit.obj
 0002:000044b8       ??_C@_0N@JJOOJGBN@g?$CD?5c?5?$CD2b2d29?$AA@ 1000c4b8     bncs_cc02_edit.obj
 0002:000044c8       ??_C@_0N@ECFJBLEF@ib?5c?5?$CDd9faff?$AA@ 1000c4c8     bncs_cc02_edit.obj
 0002:000044d8       ??_C@_0N@GMEAHFHO@?$CDk?5c?5?$CD2b3340?$AA@ 1000c4d8     bncs_cc02_edit.obj
 0002:000044e8       ??_C@_0N@IKHPIPCM@bB?5c?5?$CDd9fdff?$AA@ 1000c4e8     bncs_cc02_edit.obj
 0002:000044f8       ??_C@_0N@MPMMBD@g4?5c?5?$CD2b343e?$AA@ 1000c4f8     bncs_cc02_edit.obj
 0002:00004508       ??_C@_0N@ONKDBMDE@vI?5c?5?$CDdab895?$AA@ 1000c508     bncs_cc02_edit.obj
 0002:00004518       ??_C@_0N@LAHLGPG@mt?5c?5?$CD2b3749?$AA@ 1000c518     bncs_cc02_edit.obj
 0002:00004528       ??_C@_0N@DNINCBND@by?5c?5?$CDdabc99?$AA@ 1000c528     bncs_cc02_edit.obj
 0002:00004538       ??_C@_0N@LOEAEOLA@av?5c?5?$CD2b476a?$AA@ 1000c538     bncs_cc02_edit.obj
 0002:00004548       ??_C@_0N@BFJFAFBI@v4?5c?5?$CDdabea4?$AA@ 1000c548     bncs_cc02_edit.obj
 0002:00004558       ??_C@_0N@MOPPBGOH@x6?5c?5?$CD2b486b?$AA@ 1000c558     bncs_cc02_edit.obj
 0002:00004568       ??_C@_0N@HFEEEJEL@bj?5c?5?$CDdadada?$AA@ 1000c568     bncs_cc02_edit.obj
 0002:00004578       ??_C@_0N@IMJPIFOC@oX?5c?5?$CD2c1905?$AA@ 1000c578     bncs_cc02_edit.obj
 0002:00004588       ??_C@_0N@CPPLLOIG@ba?5c?5?$CDdadadb?$AA@ 1000c588     bncs_cc02_edit.obj
 0002:00004598       ??_C@_0N@PAHGENEE@g?4?5c?5?$CD2c1f20?$AA@ 1000c598     bncs_cc02_edit.obj
 0002:000045a8       ??_C@_0N@GICJNMBC@u0?5c?5?$CDdae1e6?$AA@ 1000c5a8     bncs_cc02_edit.obj
 0002:000045b8       ??_C@_0N@DCBCKPJC@cj?5c?5?$CD2c231b?$AA@ 1000c5b8     bncs_cc02_edit.obj
 0002:000045c8       ??_C@_0N@FMNDIMDL@vE?5c?5?$CDdae5ef?$AA@ 1000c5c8     bncs_cc02_edit.obj
 0002:000045d8       ??_C@_0N@EPJALFCO@f2?5c?5?$CD2c2b2a?$AA@ 1000c5d8     bncs_cc02_edit.obj
 0002:000045e8       ??_C@_0N@FFOLIDMH@lu?5c?5?$CDdbb994?$AA@ 1000c5e8     bncs_cc02_edit.obj
 0002:000045f8       ??_C@_0N@CDEAIDON@fq?5c?5?$CD2c2b2b?$AA@ 1000c5f8     bncs_cc02_edit.obj
 0002:00004608       ??_C@_0N@JCKOEFEH@jP?5c?5?$CDdbc9bd?$AA@ 1000c608     bncs_cc02_edit.obj
 0002:00004618       ??_C@_0N@ELMFCEKP@fG?5c?5?$CD2c2c2a?$AA@ 1000c618     bncs_cc02_edit.obj
 0002:00004628       ??_C@_0N@DONOJCOE@bT?5c?5?$CDdbd2c7?$AA@ 1000c628     bncs_cc02_edit.obj
 0002:00004638       ??_C@_0N@BKEEKCNJ@ft?5c?5?$CD2c2c2c?$AA@ 1000c638     bncs_cc02_edit.obj
 0002:00004648       ??_C@_0N@KCLEPDAH@u1?5c?5?$CDdbd5d2?$AA@ 1000c648     bncs_cc02_edit.obj
 0002:00004658       ??_C@_0N@KBAPHBHJ@fV?5c?5?$CD2c2c2d?$AA@ 1000c658     bncs_cc02_edit.obj
 0002:00004668       ??_C@_0N@EMKPBJGK@b?$CD?5c?5?$CDdbdbda?$AA@ 1000c668     bncs_cc02_edit.obj
 0002:00004678       ??_C@_0N@NEJOBIAK@?4y?5c?5?$CD2c3339?$AA@ 1000c678     bncs_cc02_edit.obj
 0002:00004688       ??_C@_0N@LLMOEGKM@gM?5c?5?$CDdbdbdb?$AA@ 1000c688     bncs_cc02_edit.obj
 0002:00004698       ??_C@_0N@EBNHLKLM@?$CD6?5c?5?$CD2c4257?$AA@ 1000c698     bncs_cc02_edit.obj
 0002:000046a8       ??_C@_0N@DPKMOCJI@k?4?5c?5?$CDdbe4f1?$AA@ 1000c6a8     bncs_cc02_edit.obj
 0002:000046b8       ??_C@_0N@GCFOLJOK@tL?5c?5?$CD2d251d?$AA@ 1000c6b8     bncs_cc02_edit.obj
 0002:000046c8       ??_C@_0N@PKPNIEFP@ji?5c?5?$CDdbfbff?$AA@ 1000c6c8     bncs_cc02_edit.obj
 0002:000046d8       ??_C@_0N@IMCDECKP@s1?5c?5?$CD2d2b2a?$AA@ 1000c6d8     bncs_cc02_edit.obj
 0002:000046e8       ??_C@_0N@MCHCCHJD@yY?5c?5?$CDdbfdff?$AA@ 1000c6e8     bncs_cc02_edit.obj
 0002:000046f8       ??_C@_0N@EHJNGNLK@fr?5c?5?$CD2d2d2a?$AA@ 1000c6f8     bncs_cc02_edit.obj
 0002:00004708       ??_C@_0N@GCGDHOFA@uo?5c?5?$CDdcc3a5?$AA@ 1000c708     bncs_cc02_edit.obj
 0002:00004718       ??_C@_0N@KKLDJLLL@s?4?5c?5?$CD2d2d2d?$AA@ 1000c718     bncs_cc02_edit.obj
 0002:00004728       ??_C@_0N@LOHEJFGP@bp?5c?5?$CDdcdbd9?$AA@ 1000c728     bncs_cc02_edit.obj
 0002:00004738       ??_C@_0N@GLDDEMHJ@zu?5c?5?$CD2d363b?$AA@ 1000c738     bncs_cc02_edit.obj
 0002:00004748       ??_C@_0N@DHGIDCI@pi?5c?5?$CDdcdcdc?$AA@ 1000c748     bncs_cc02_edit.obj
 0002:00004758       ??_C@_0N@LOCJHPDF@jZ?5c?5?$CD2d4360?$AA@ 1000c758     bncs_cc02_edit.obj
 0002:00004768       ??_C@_0N@IHFLJJG@tb?5c?5?$CDdcedfb?$AA@ 1000c768     bncs_cc02_edit.obj
 0002:00004778       ??_C@_0N@NBLDBOAK@vD?5c?5?$CD2d465c?$AA@ 1000c778     bncs_cc02_edit.obj
 0002:00004788       ??_C@_0N@KBBAAHEF@iO?5c?5?$CDdceeff?$AA@ 1000c788     bncs_cc02_edit.obj
 0002:00004798       ??_C@_0N@IJFPIHEP@wC?5c?5?$CD2e0900?$AA@ 1000c798     bncs_cc02_edit.obj
 0002:000047a8       ??_C@_0N@FBAGEBOH@nc?5c?5?$CDdcf0fe?$AA@ 1000c7a8     bncs_cc02_edit.obj
 0002:000047b8       ??_C@_0N@FJCCMAK@?$CDJ?5c?5?$CD2e1202?$AA@ 1000c7b8     bncs_cc02_edit.obj
 0002:000047c8       ??_C@_0N@KCCFCNDG@lR?5c?5?$CDdcf5ff?$AA@ 1000c7c8     bncs_cc02_edit.obj
 0002:000047d8       ??_C@_0N@IHOIGJMH@aS?5c?5?$CD2e1903?$AA@ 1000c7d8     bncs_cc02_edit.obj
 0002:000047e8       ??_C@_0N@PDLHDJFA@vS?5c?5?$CDdcfaff?$AA@ 1000c7e8     bncs_cc02_edit.obj
 0002:000047f8       ??_C@_0N@HOKJIHDN@vu?5c?5?$CD2e2215?$AA@ 1000c7f8     bncs_cc02_edit.obj
 0002:00004808       ??_C@_0N@GANKMDNL@j0?5c?5?$CDddc6ab?$AA@ 1000c808     bncs_cc02_edit.obj
 0002:00004818       ??_C@_0N@GEHNFJOG@qL?5c?5?$CD2e2e2e?$AA@ 1000c818     bncs_cc02_edit.obj
 0002:00004828       ??_C@_0N@DLAMBOOL@ju?5c?5?$CDddcdc1?$AA@ 1000c828     bncs_cc02_edit.obj
 0002:00004838       ??_C@_0N@MBHFEPAN@iC?5c?5?$CD2e2f2f?$AA@ 1000c838     bncs_cc02_edit.obj
 0002:00004848       ??_C@_0N@KBGAJOBP@bh?5c?5?$CDddd8d5?$AA@ 1000c848     bncs_cc02_edit.obj
 0002:00004858       ??_C@_0N@GPPIANAH@tC?5c?5?$CD2e343f?$AA@ 1000c858     bncs_cc02_edit.obj
 0002:00004868       ??_C@_0N@DPOGJBJO@g1?5c?5?$CDdddddd?$AA@ 1000c868     bncs_cc02_edit.obj
 0002:00004878       ??_C@_0N@OCOECFDN@dH?5c?5?$CD2e3b47?$AA@ 1000c878     bncs_cc02_edit.obj
 0002:00004888       ??_C@_0N@INPJLLKF@bg?5c?5?$CDdde3e8?$AA@ 1000c888     bncs_cc02_edit.obj
 0002:00004898       ??_C@_0N@JKLCJDMM@lj?5c?5?$CD2e526d?$AA@ 1000c898     bncs_cc02_edit.obj
 0002:000048a8       ??_C@_0N@CMOOAIFP@x1?5c?5?$CDddf4ff?$AA@ 1000c8a8     bncs_cc02_edit.obj
 0002:000048b8       ??_C@_0N@NBNEBFGH@p3?5c?5?$CD2e537a?$AA@ 1000c8b8     bncs_cc02_edit.obj
 0002:000048c8       ??_C@_0N@DPHADPBA@fa?5c?5?$CDddffff?$AA@ 1000c8c8     bncs_cc02_edit.obj
 0002:000048d8       ??_C@_0N@JCNCGBFP@dn?5c?5?$CD2f0d03?$AA@ 1000c8d8     bncs_cc02_edit.obj
 0002:000048e8       ??_C@_0N@HDKLNLFG@fi?5c?5?$CDded5c8?$AA@ 1000c8e8     bncs_cc02_edit.obj
 0002:000048f8       ??_C@_0N@HAENPNLE@iw?5c?5?$CD2f2e2d?$AA@ 1000c8f8     bncs_cc02_edit.obj
 0002:00004908       ??_C@_0N@OJPEOCPL@gD?5c?5?$CDdedede?$AA@ 1000c908     bncs_cc02_edit.obj
 0002:00004918       ??_C@_0N@KKAOBJKL@sp?5c?5?$CD2f2f2f?$AA@ 1000c918     bncs_cc02_edit.obj
 0002:00004928       ??_C@_0N@KNPCHCEO@bs?5c?5?$CDdedfdf?$AA@ 1000c928     bncs_cc02_edit.obj
 0002:00004938       ??_C@_0N@KNCEPMDN@nB?5c?5?$CD2f3032?$AA@ 1000c938     bncs_cc02_edit.obj
 0002:00004948       ??_C@_0N@MEDFLIJP@uL?5c?5?$CDdedfe3?$AA@ 1000c948     bncs_cc02_edit.obj
 0002:00004958       ??_C@_0N@POGONNKP@eR?5c?5?$CD2f3c46?$AA@ 1000c958     bncs_cc02_edit.obj
 0002:00004968       ??_C@_0N@NKDKLKIG@ha?5c?5?$CDdee1e3?$AA@ 1000c968     bncs_cc02_edit.obj
 0002:00004978       ??_C@_0N@FABBMIPO@wG?5c?5?$CD300d01?$AA@ 1000c978     bncs_cc02_edit.obj
 0002:00004988       ??_C@_0N@BEMOKJCH@mQ?5c?5?$CDdee9f3?$AA@ 1000c988     bncs_cc02_edit.obj
 0002:00004998       ??_C@_0N@JJHFGKCO@?$CDD?5c?5?$CD301a04?$AA@ 1000c998     bncs_cc02_edit.obj
 0002:000049a8       ??_C@_0N@MHHOIKPD@vr?5c?5?$CDdef3ff?$AA@ 1000c9a8     bncs_cc02_edit.obj
 0002:000049b8       ??_C@_0N@LNEJHPFJ@hx?5c?5?$CD303030?$AA@ 1000c9b8     bncs_cc02_edit.obj
 0002:000049c8       ??_C@_0N@MDDCNGPD@or?5c?5?$CDdef6ff?$AA@ 1000c9c8     bncs_cc02_edit.obj
 0002:000049d8       ??_C@_0N@FEFOFOEJ@cA?5c?5?$CD30414b?$AA@ 1000c9d8     bncs_cc02_edit.obj
 0002:000049e8       ??_C@_0N@DJGFLOPG@w4?5c?5?$CDdeffff?$AA@ 1000c9e8     bncs_cc02_edit.obj
 0002:000049f8       ??_C@_0N@LGPIILFJ@eW?5c?5?$CD304f75?$AA@ 1000c9f8     bncs_cc02_edit.obj
 0002:00004a08       ??_C@_0N@PIKCENLI@ac?5c?5?$CDdfcec3?$AA@ 1000ca08     bncs_cc02_edit.obj
 0002:00004a18       ??_C@_0N@BLCKGMIE@?$CD4?5c?5?$CD305674?$AA@ 1000ca18     bncs_cc02_edit.obj
 0002:00004a28       ??_C@_0N@ONKNFOED@vY?5c?5?$CDdfd4c8?$AA@ 1000ca28     bncs_cc02_edit.obj
 0002:00004a38       ??_C@_0N@CHJENNOJ@yy?5c?5?$CD305775?$AA@ 1000ca38     bncs_cc02_edit.obj
 0002:00004a48       ??_C@_0N@MBIOICOI@qe?5c?5?$CDdfdfdf?$AA@ 1000ca48     bncs_cc02_edit.obj
 0002:00004a58       ??_C@_0N@NHAHNNAH@d7?5c?5?$CD312418?$AA@ 1000ca58     bncs_cc02_edit.obj
 0002:00004a68       ??_C@_0N@GNDPEGGL@?$CDB?5c?5?$CDdfedf9?$AA@ 1000ca68     bncs_cc02_edit.obj
 0002:00004a78       ??_C@_0N@DNPIODPM@?4L?5c?5?$CD312920?$AA@ 1000ca78     bncs_cc02_edit.obj
 0002:00004a88       ??_C@_0N@GAHFJFAC@mD?5c?5?$CDdfeffd?$AA@ 1000ca88     bncs_cc02_edit.obj
 0002:00004a98       ??_C@_0N@CMDLDMAH@to?5c?5?$CD312f2d?$AA@ 1000ca98     bncs_cc02_edit.obj
 0002:00004aa8       ??_C@_0N@GIHMCCDG@ip?5c?5?$CDdffdff?$AA@ 1000caa8     bncs_cc02_edit.obj
 0002:00004ab8       ??_C@_0N@CKPDJBLC@eG?5c?5?$CD313035?$AA@ 1000cab8     bncs_cc02_edit.obj
 0002:00004ac8       ??_C@_0N@KAIPIGNB@h?4?5c?5?$CDe0dedc?$AA@ 1000cac8     bncs_cc02_edit.obj
 0002:00004ad8       ??_C@_0N@HGFMPFPL@gU?5c?5?$CD313131?$AA@ 1000cad8     bncs_cc02_edit.obj
 0002:00004ae8       ??_C@_0N@CIJEMGND@di?5c?5?$CDe0dede?$AA@ 1000cae8     bncs_cc02_edit.obj
 0002:00004af8       ??_C@_0N@KBCGPGNC@yO?5c?5?$CD315076?$AA@ 1000caf8     bncs_cc02_edit.obj
 0002:00004b08       ??_C@_0N@CMAJMNGJ@pj?5c?5?$CDe0e0e0?$AA@ 1000cb08     bncs_cc02_edit.obj
 0002:00004b18       ??_C@_0N@FICLLLKB@lz?5c?5?$CD315877?$AA@ 1000cb18     bncs_cc02_edit.obj
 0002:00004b28       ??_C@_0N@GCOICPNO@kk?5c?5?$CDe0e7f1?$AA@ 1000cb28     bncs_cc02_edit.obj
 0002:00004b38       ??_C@_0N@HEHDGIA@yG?5c?5?$CD32200e?$AA@ 1000cb38     bncs_cc02_edit.obj
 0002:00004b48       ??_C@_0N@CDBMKFDN@o7?5c?5?$CDe0eaf7?$AA@ 1000cb48     bncs_cc02_edit.obj
 0002:00004b58       ??_C@_0N@GGCCEJKL@ek?5c?5?$CD323230?$AA@ 1000cb58     bncs_cc02_edit.obj
 0002:00004b68       ??_C@_0N@HPLINKOC@wA?5c?5?$CDe0ffff?$AA@ 1000cb68     bncs_cc02_edit.obj
 0002:00004b78       ??_C@_0N@BPPBKDNF@e8?5c?5?$CD323232?$AA@ 1000cb78     bncs_cc02_edit.obj
 0002:00004b88       ??_C@_0N@KFJAOMKA@?$CD?$CD?5c?5?$CDe1bfa0?$AA@ 1000cb88     bncs_cc02_edit.obj
 0002:00004b98       ??_C@_0N@LEPLAIMN@nC?5c?5?$CD323233?$AA@ 1000cb98     bncs_cc02_edit.obj
 0002:00004ba8       ??_C@_0N@IFBBFNN@aO?5c?5?$CDe1c09f?$AA@ 1000cba8     bncs_cc02_edit.obj
 0002:00004bb8       ??_C@_0N@GNDFKEHL@s2?5c?5?$CD323c48?$AA@ 1000cbb8     bncs_cc02_edit.obj
 0002:00004bc8       ??_C@_0N@IJKMLLFH@se?5c?5?$CDe1e1e1?$AA@ 1000cbc8     bncs_cc02_edit.obj
 0002:00004bd8       ??_C@_0N@ENIMACGI@do?5c?5?$CD325275?$AA@ 1000cbd8     bncs_cc02_edit.obj
 0002:00004be8       ??_C@_0N@DPAHPECI@aU?5c?5?$CDe1e2e5?$AA@ 1000cbe8     bncs_cc02_edit.obj
 0002:00004bf8       ??_C@_0N@NFFMMJIJ@ow?5c?5?$CD325a79?$AA@ 1000cbf8     bncs_cc02_edit.obj
 0002:00004c08       ??_C@_0N@MMGPIIED@hu?5c?5?$CDe1f3ff?$AA@ 1000cc08     bncs_cc02_edit.obj
 0002:00004c18       ??_C@_0N@GNFNEHH@oM?5c?5?$CD332415?$AA@ 1000cc18     bncs_cc02_edit.obj
 0002:00004c28       ??_C@_0N@JGEKLGEM@rm?5c?5?$CDe2c29a?$AA@ 1000cc28     bncs_cc02_edit.obj
 0002:00004c38       ??_C@_0N@MKEAGIBK@nA?5c?5?$CD332519?$AA@ 1000cc38     bncs_cc02_edit.obj
 0002:00004c48       ??_C@_0N@JGLAJMKI@d6?5c?5?$CDe2cfbd?$AA@ 1000cc48     bncs_cc02_edit.obj
 0002:00004c58       ??_C@_0N@FHHCODPK@tV?5c?5?$CD333231?$AA@ 1000cc58     bncs_cc02_edit.obj
 0002:00004c68       ??_C@_0N@FJJHKLNA@?$CDZ?5c?5?$CDe2e2e2?$AA@ 1000cc68     bncs_cc02_edit.obj
 0002:00004c78       ??_C@_0N@GFMBIIPI@pA?5c?5?$CD333333?$AA@ 1000cc78     bncs_cc02_edit.obj
 0002:00004c88       ??_C@_0N@OAPHNNBH@dT?5c?5?$CDe3c19c?$AA@ 1000cc88     bncs_cc02_edit.obj
 0002:00004c98       ??_C@_0N@GBOLKLNC@tU?5c?5?$CD333435?$AA@ 1000cc98     bncs_cc02_edit.obj
 0002:00004ca8       ??_C@_0N@OFFFKKIF@?$CDY?5c?5?$CDe3e2e2?$AA@ 1000cca8     bncs_cc02_edit.obj
 0002:00004cb8       ??_C@_0N@IMGGACON@tr?5c?5?$CD333636?$AA@ 1000ccb8     bncs_cc02_edit.obj
 0002:00004cc8       ??_C@_0N@DFFDCDPA@dc?5c?5?$CDe3e3e4?$AA@ 1000ccc8     bncs_cc02_edit.obj
 0002:00004cd8       ??_C@_0N@HEOFJDOE@s8?5c?5?$CD33435b?$AA@ 1000ccd8     bncs_cc02_edit.obj
 0002:00004ce8       ??_C@_0N@GOPPAKLM@u3?5c?5?$CDe3e5e7?$AA@ 1000cce8     bncs_cc02_edit.obj
 0002:00004cf8       ??_C@_0N@GGMOBHPG@wm?5c?5?$CD335777?$AA@ 1000ccf8     bncs_cc02_edit.obj
 0002:00004d08       ??_C@_0N@JCKMBLHD@wa?5c?5?$CDe3f7ff?$AA@ 1000cd08     bncs_cc02_edit.obj
 0002:00004d18       ??_C@_0N@MAAEDNMM@th?5c?5?$CD335c7b?$AA@ 1000cd18     bncs_cc02_edit.obj
 0002:00004d28       ??_C@_0N@HDKJBIFK@uz?5c?5?$CDe3fbff?$AA@ 1000cd28     bncs_cc02_edit.obj
 0002:00004d38       ??_C@_0N@EAMGCMFJ@?47?5c?5?$CD341604?$AA@ 1000cd38     bncs_cc02_edit.obj
 0002:00004d48       ??_C@_0N@HFGNKGFL@aD?5c?5?$CDe3ffff?$AA@ 1000cd48     bncs_cc02_edit.obj
 0002:00004d58       ??_C@_0N@IPBNCICD@gC?5c?5?$CD343434?$AA@ 1000cd58     bncs_cc02_edit.obj
 0002:00004d68       ??_C@_0N@IMMOIDKP@?4F?5c?5?$CDe4bf9f?$AA@ 1000cd68     bncs_cc02_edit.obj
 0002:00004d78       ??_C@_0N@IKPGDNGP@eE?5c?5?$CD343536?$AA@ 1000cd78     bncs_cc02_edit.obj
 0002:00004d88       ??_C@_0N@FKEBFBEC@hI?5c?5?$CDe4d1bf?$AA@ 1000cd88     bncs_cc02_edit.obj
 0002:00004d98       ??_C@_0N@NNCFDJKI@oj?5c?5?$CD344049?$AA@ 1000cd98     bncs_cc02_edit.obj
 0002:00004da8       ??_C@_0N@LDINFNAP@dk?5c?5?$CDe4e4e4?$AA@ 1000cda8     bncs_cc02_edit.obj
 0002:00004db8       ??_C@_0N@JOODNKFC@vp?5c?5?$CD345577?$AA@ 1000cdb8     bncs_cc02_edit.obj
 0002:00004dc8       ??_C@_0N@PFCDNGAC@dl?5c?5?$CDe4e4e6?$AA@ 1000cdc8     bncs_cc02_edit.obj
 0002:00004dd8       ??_C@_0N@IFPLOBKE@kh?5c?5?$CD345d7d?$AA@ 1000cdd8     bncs_cc02_edit.obj
 0002:00004de8       ??_C@_0N@MPGLLDKC@?$CD8?5c?5?$CDe4e5e3?$AA@ 1000cde8     bncs_cc02_edit.obj
 0002:00004df8       ??_C@_0N@OKBPBBCF@b5?5c?5?$CD351c02?$AA@ 1000cdf8     bncs_cc02_edit.obj
 0002:00004e08       ??_C@_0N@IJIPEHEE@dj?5c?5?$CDe4e5e5?$AA@ 1000ce08     bncs_cc02_edit.obj
 0002:00004e18       ??_C@_0N@EFAKFEPA@v0?5c?5?$CD353029?$AA@ 1000ce18     bncs_cc02_edit.obj
 0002:00004e28       ??_C@_0N@GDELAJAP@pd?5c?5?$CDe4eff9?$AA@ 1000ce28     bncs_cc02_edit.obj
 0002:00004e38       ??_C@_0N@NDFIGJNC@jH?5c?5?$CD353535?$AA@ 1000ce38     bncs_cc02_edit.obj
 0002:00004e48       ??_C@_0N@OPMPJMKC@yo?5c?5?$CDe4ffff?$AA@ 1000ce48     bncs_cc02_edit.obj
 0002:00004e58       ??_C@_0N@DILBNFFD@lG?5c?5?$CD353636?$AA@ 1000ce58     bncs_cc02_edit.obj
 0002:00004e68       ??_C@_0N@KLOCEHPP@dd?5c?5?$CDe5e5e5?$AA@ 1000ce68     bncs_cc02_edit.obj
 0002:00004e78       ??_C@_0N@NOLPOKIJ@eP?5c?5?$CD353637?$AA@ 1000ce78     bncs_cc02_edit.obj
 0002:00004e88       ??_C@_0N@NILBDPBL@?$CDm?5c?5?$CDe5effb?$AA@ 1000ce88     bncs_cc02_edit.obj
 0002:00004e98       ??_C@_0N@INOFFHBI@hH?5c?5?$CD354c61?$AA@ 1000ce98     bncs_cc02_edit.obj
 0002:00004ea8       ??_C@_0N@BDMNMCAC@?$CDg?5c?5?$CDe5f0f0?$AA@ 1000cea8     bncs_cc02_edit.obj
 0002:00004eb8       ??_C@_0N@KKLDJGKB@?$CDi?5c?5?$CD355f7f?$AA@ 1000ceb8     bncs_cc02_edit.obj
 0002:00004ec8       ??_C@_0N@DDOGFLAG@?$CDQ?5c?5?$CDe5f5ff?$AA@ 1000cec8     bncs_cc02_edit.obj
 0002:00004ed8       ??_C@_0N@MPALNAPI@bA?5c?5?$CD361d03?$AA@ 1000ced8     bncs_cc02_edit.obj
 0002:00004ee8       ??_C@_0N@EPLFJLIB@nV?5c?5?$CDe5f8ff?$AA@ 1000cee8     bncs_cc02_edit.obj
 0002:00004ef8       ??_C@_0N@OMHPKJFB@bc?5c?5?$CD361f06?$AA@ 1000cef8     bncs_cc02_edit.obj
 0002:00004f08       ??_C@_0N@FOFFMAGP@qs?5c?5?$CDe6bf99?$AA@ 1000cf08     bncs_cc02_edit.obj
 0002:00004f18       ??_C@_0N@JGMAMFLK@tJ?5c?5?$CD362a24?$AA@ 1000cf18     bncs_cc02_edit.obj
 0002:00004f28       ??_C@_0N@NLGNCDOO@vT?5c?5?$CDe6d3b6?$AA@ 1000cf28     bncs_cc02_edit.obj
 0002:00004f38       ??_C@_0N@NFKKAJMN@lH?5c?5?$CD363637?$AA@ 1000cf38     bncs_cc02_edit.obj
 0002:00004f48       ??_C@_0N@BCLBNPIF@uY?5c?5?$CDe6e4e1?$AA@ 1000cf48     bncs_cc02_edit.obj
 0002:00004f58       ??_C@_0N@GJCKIMP@eg?5c?5?$CD36383c?$AA@ 1000cf58     bncs_cc02_edit.obj
 0002:00004f68       ??_C@_0N@OANIODKF@k2?5c?5?$CDe6e6e6?$AA@ 1000cf68     bncs_cc02_edit.obj
 0002:00004f78       ??_C@_0N@MMIGNKEC@rL?5c?5?$CD364f64?$AA@ 1000cf78     bncs_cc02_edit.obj
 0002:00004f88       ??_C@_0N@MCANCJOF@de?5c?5?$CDe6e7ea?$AA@ 1000cf88     bncs_cc02_edit.obj
 0002:00004f98       ??_C@_0N@LAGKMOIH@ff?5c?5?$CD366080?$AA@ 1000cf98     bncs_cc02_edit.obj
 0002:00004fa8       ??_C@_0N@PIJHGGLD@bk?5c?5?$CDe6e8eb?$AA@ 1000cfa8     bncs_cc02_edit.obj
 0002:00004fb8       ??_C@_0N@LGIPHMLG@gn?5c?5?$CD373737?$AA@ 1000cfb8     bncs_cc02_edit.obj
 0002:00004fc8       ??_C@_0N@BMANGMGK@vw?5c?5?$CDe6f9ff?$AA@ 1000cfc8     bncs_cc02_edit.obj
 0002:00004fd8       ??_C@_0N@JIJJBCAJ@ew?5c?5?$CD373838?$AA@ 1000cfd8     bncs_cc02_edit.obj
 0002:00004fe8       ??_C@_0N@DEDHMCLI@vB?5c?5?$CDe6fcff?$AA@ 1000cfe8     bncs_cc02_edit.obj
 0002:00004ff8       ??_C@_0N@OLBFGHGI@ts?5c?5?$CD373839?$AA@ 1000cff8     bncs_cc02_edit.obj
 0002:00005008       ??_C@_0N@LHENKFF@nx?5c?5?$CDe7c5a3?$AA@ 1000d008     bncs_cc02_edit.obj
 0002:00005018       ??_C@_0N@OODICOIK@y7?5c?5?$CD376181?$AA@ 1000d018     bncs_cc02_edit.obj
 0002:00005028       ??_C@_0N@FOEGLFCM@d?$CD?5c?5?$CDe7c7aa?$AA@ 1000d028     bncs_cc02_edit.obj
 0002:00005038       ??_C@_0N@ILPENHCD@g7?5c?5?$CD376182?$AA@ 1000d038     bncs_cc02_edit.obj
 0002:00005048       ??_C@_0N@OEKPPFAG@hd?5c?5?$CDe7e7e7?$AA@ 1000d048     bncs_cc02_edit.obj
 0002:00005058       ??_C@_0N@HHFEAJFH@?$CD1?5c?5?$CD382106?$AA@ 1000d058     bncs_cc02_edit.obj
 0002:00005068       ??_C@_0N@CPKHDGBL@ab?5c?5?$CDe7e7ef?$AA@ 1000d068     bncs_cc02_edit.obj
 0002:00005078       ??_C@_0N@CGAPOKA@km?5c?5?$CD382316?$AA@ 1000d078     bncs_cc02_edit.obj
 0002:00005088       ??_C@_0N@DHKPIFBN@yI?5c?5?$CDe7e8e3?$AA@ 1000d088     bncs_cc02_edit.obj
 0002:00005098       ??_C@_0N@GPHCIAMC@uH?5c?5?$CD382e21?$AA@ 1000d098     bncs_cc02_edit.obj
 0002:000050a8       ??_C@_0N@FABIMPDH@oK?5c?5?$CDe7eaf0?$AA@ 1000d0a8     bncs_cc02_edit.obj
 0002:000050b8       ??_C@_0N@OHMFOPNM@zm?5c?5?$CD383127?$AA@ 1000d0b8     bncs_cc02_edit.obj
 0002:000050c8       ??_C@_0N@JOBMMMBE@b?4?5c?5?$CDe7ecec?$AA@ 1000d0c8     bncs_cc02_edit.obj
 0002:000050d8       ??_C@_0N@PDPNHMJJ@ej?5c?5?$CD383532?$AA@ 1000d0d8     bncs_cc02_edit.obj
 0002:000050e8       ??_C@_0N@DKLIFHMB@iK?5c?5?$CDe7f3ff?$AA@ 1000d0e8     bncs_cc02_edit.obj
 0002:000050f8       ??_C@_0N@EBDINCFN@eQ?5c?5?$CD383737?$AA@ 1000d0f8     bncs_cc02_edit.obj
 0002:00005108       ??_C@_0N@FJOAJNPH@hJ?5c?5?$CDe7f5ff?$AA@ 1000d108     bncs_cc02_edit.obj
 0002:00005118       ??_C@_0N@OGEDNKLH@eF?5c?5?$CD383838?$AA@ 1000d118     bncs_cc02_edit.obj
 0002:00005128       ??_C@_0N@ICJOJJDJ@wS?5c?5?$CDe7ffff?$AA@ 1000d128     bncs_cc02_edit.obj
 0002:00005138       ??_C@_0N@NCJFIACB@nD?5c?5?$CD383937?$AA@ 1000d138     bncs_cc02_edit.obj
 0002:00005148       ??_C@_0N@HBFGJHAN@y1?5c?5?$CDe8c09c?$AA@ 1000d148     bncs_cc02_edit.obj
 0002:00005158       ??_C@_0N@GOOFMKJJ@zc?5c?5?$CD384352?$AA@ 1000d158     bncs_cc02_edit.obj
 0002:00005168       ??_C@_0N@MJEFEPDG@?$CDb?5c?5?$CDe8c49d?$AA@ 1000d168     bncs_cc02_edit.obj
 0002:00005178       ??_C@_0N@FENNEGAA@nw?5c?5?$CD391004?$AA@ 1000d178     bncs_cc02_edit.obj
 0002:00005188       ??_C@_0N@OIMCIJCO@oC?5c?5?$CDe8e7ea?$AA@ 1000d188     bncs_cc02_edit.obj
 0002:00005198       ??_C@_0N@KKBMDAJE@pw?5c?5?$CD393939?$AA@ 1000d198     bncs_cc02_edit.obj
 0002:000051a8       ??_C@_0N@OBEMFGEA@ss?5c?5?$CDe8e8e8?$AA@ 1000d1a8     bncs_cc02_edit.obj
 0002:000051b8       ??_C@_0N@CMHAICFF@tK?5c?5?$CD393a3b?$AA@ 1000d1b8     bncs_cc02_edit.obj
 0002:000051c8       ??_C@_0N@PEGMJOBG@am?5c?5?$CDe9c6a7?$AA@ 1000d1c8     bncs_cc02_edit.obj
 0002:000051d8       ??_C@_0N@CJBLALOE@mi?5c?5?$CD394450?$AA@ 1000d1d8     bncs_cc02_edit.obj
 0002:000051e8       ??_C@_0N@JGDCABJO@yF?5c?5?$CDe9d7ca?$AA@ 1000d1e8     bncs_cc02_edit.obj
 0002:000051f8       ??_C@_0N@KADJKNBC@hT?5c?5?$CD39495f?$AA@ 1000d1f8     bncs_cc02_edit.obj
 0002:00005208       ??_C@_0N@FEHCONPM@be?5c?5?$CDe9e7e4?$AA@ 1000d208     bncs_cc02_edit.obj
 0002:00005218       ??_C@_0N@BIEAKCNK@tt?5c?5?$CD3a342e?$AA@ 1000d218     bncs_cc02_edit.obj
 0002:00005228       ??_C@_0N@KONOMIBP@pv?5c?5?$CDe9e9e9?$AA@ 1000d228     bncs_cc02_edit.obj
 0002:00005238       ??_C@_0N@EDECDMGN@om?5c?5?$CD3a3a3a?$AA@ 1000d238     bncs_cc02_edit.obj
 0002:00005248       ??_C@_0N@HNHABFFJ@oB?5c?5?$CDe9eaeb?$AA@ 1000d248     bncs_cc02_edit.obj
 0002:00005258       ??_C@_0N@NLCAGEKK@jn?5c?5?$CD3b1104?$AA@ 1000d258     bncs_cc02_edit.obj
 0002:00005268       ??_C@_0N@ICPMMIPP@uN?5c?5?$CDe9ece6?$AA@ 1000d268     bncs_cc02_edit.obj
 0002:00005278       ??_C@_0N@POAGJAGM@bC?5c?5?$CD3b1600?$AA@ 1000d278     bncs_cc02_edit.obj
 0002:00005288       ??_C@_0N@HEPHPBFF@yU?5c?5?$CDe9f5ff?$AA@ 1000d288     bncs_cc02_edit.obj
 0002:00005298       ??_C@_0N@LFMEPHHF@eZ?5c?5?$CD3b2105?$AA@ 1000d298     bncs_cc02_edit.obj
 0002:000052a8       ??_C@_0N@CJECJKBO@?$CD7?5c?5?$CDe9f7ff?$AA@ 1000d2a8     bncs_cc02_edit.obj
 0002:000052b8       ??_C@_0N@CAOIGAHO@lg?5c?5?$CD3b2307?$AA@ 1000d2b8     bncs_cc02_edit.obj
 0002:000052c8       ??_C@_0N@DIMNBLKC@aF?5c?5?$CDe9ffff?$AA@ 1000d2c8     bncs_cc02_edit.obj
 0002:000052d8       ??_C@_0N@HGKLMLMN@tG?5c?5?$CD3b3b3a?$AA@ 1000d2d8     bncs_cc02_edit.obj
 0002:000052e8       ??_C@_0N@KHGFBNJN@rF?5c?5?$CDeac59f?$AA@ 1000d2e8     bncs_cc02_edit.obj
 0002:000052f8       ??_C@_0N@LHGOBKAG@gQ?5c?5?$CD3b3b3b?$AA@ 1000d2f8     bncs_cc02_edit.obj
 0002:00005308       ??_C@_0N@DBOPMDEE@zE?5c?5?$CDeacfaf?$AA@ 1000d308     bncs_cc02_edit.obj
 0002:00005318       ??_C@_0N@CBJLLGHO@ex?5c?5?$CD3b3d3d?$AA@ 1000d318     bncs_cc02_edit.obj
 0002:00005328       ??_C@_0N@INMPDKMG@zr?5c?5?$CDeacfb2?$AA@ 1000d328     bncs_cc02_edit.obj
 0002:00005338       ??_C@_0N@JDMECJLH@xd?5c?5?$CD3c1b00?$AA@ 1000d338     bncs_cc02_edit.obj
 0002:00005348       ??_C@_0N@FEJBFAEL@n9?5c?5?$CDeaddce?$AA@ 1000d348     bncs_cc02_edit.obj
 0002:00005358       ??_C@_0N@OGLJIOLB@?40?5c?5?$CD3c2105?$AA@ 1000d358     bncs_cc02_edit.obj
 0002:00005368       ??_C@_0N@KFEMMPKB@uF?5c?5?$CDeae0d7?$AA@ 1000d368     bncs_cc02_edit.obj
 0002:00005378       ??_C@_0N@DOMECCPC@ev?5c?5?$CD3c352c?$AA@ 1000d378     bncs_cc02_edit.obj
 0002:00005388       ??_C@_0N@CPJDMHPD@db?5c?5?$CDeae7e3?$AA@ 1000d388     bncs_cc02_edit.obj
 0002:00005398       ??_C@_0N@BFFAIABI@zw?5c?5?$CD3c3731?$AA@ 1000d398     bncs_cc02_edit.obj
 0002:000053a8       ??_C@_0N@DHBJLABG@fJ?5c?5?$CDeaeaea?$AA@ 1000d3a8     bncs_cc02_edit.obj
 0002:000053b8       ??_C@_0N@IICCANMM@?4r?5c?5?$CD3c3c3c?$AA@ 1000d3b8     bncs_cc02_edit.obj
 0002:000053c8       ??_C@_0N@OMDPDLMN@oI?5c?5?$CDeaeaeb?$AA@ 1000d3c8     bncs_cc02_edit.obj
 0002:000053d8       ??_C@_0N@EEPHAMJM@?4S?5c?5?$CD3c3c3d?$AA@ 1000d3d8     bncs_cc02_edit.obj
 0002:000053e8       ??_C@_0N@LLKMAAFI@vj?5c?5?$CDeaebec?$AA@ 1000d3e8     bncs_cc02_edit.obj
 0002:000053f8       ??_C@_0N@HBJLIHNE@?$CDN?5c?5?$CD3c4c5b?$AA@ 1000d3f8     bncs_cc02_edit.obj
 0002:00005408       ??_C@_0N@GLANHFPN@ai?5c?5?$CDeaf5ff?$AA@ 1000d408     bncs_cc02_edit.obj
 0002:00005418       ??_C@_0N@IEABOFNG@qt?5c?5?$CD3c576c?$AA@ 1000d418     bncs_cc02_edit.obj
 0002:00005428       ??_C@_0N@FICGNNDP@cR?5c?5?$CDebcbae?$AA@ 1000d428     bncs_cc02_edit.obj
 0002:00005438       ??_C@_0N@KPIKFJNF@uu?5c?5?$CD3d2205?$AA@ 1000d438     bncs_cc02_edit.obj
 0002:00005448       ??_C@_0N@PCEPAAMM@in?5c?5?$CDebd4c1?$AA@ 1000d448     bncs_cc02_edit.obj
 0002:00005458       ??_C@_0N@PCOKHNPF@rM?5c?5?$CD3d2207?$AA@ 1000d458     bncs_cc02_edit.obj
 0002:00005468       ??_C@_0N@BJGPEKBA@uQ?5c?5?$CDebdccf?$AA@ 1000d468     bncs_cc02_edit.obj
 0002:00005478       ??_C@_0N@PMMKKEL@ce?5c?5?$CD3d2305?$AA@ 1000d478     bncs_cc02_edit.obj
 0002:00005488       ??_C@_0N@BIEHLKDG@vi?5c?5?$CDebeae9?$AA@ 1000d488     bncs_cc02_edit.obj
 0002:00005498       ??_C@_0N@BEHFJAJI@mB?5c?5?$CD3d3124?$AA@ 1000d498     bncs_cc02_edit.obj
 0002:000054a8       ??_C@_0N@NPAFNAPK@gw?5c?5?$CDebebeb?$AA@ 1000d4a8     bncs_cc02_edit.obj
 0002:000054b8       ??_C@_0N@EGAJGKKN@zv?5c?5?$CD3d3c3b?$AA@ 1000d4b8     bncs_cc02_edit.obj
 0002:000054c8       ??_C@_0N@OLIDOACG@ot?5c?5?$CDebebec?$AA@ 1000d4c8     bncs_cc02_edit.obj
 0002:000054d8       ??_C@_0N@OCLJOPIE@?4q?5c?5?$CD3d3c3c?$AA@ 1000d4d8     bncs_cc02_edit.obj
 0002:000054e8       ??_C@_0N@KMIOHFDL@vX?5c?5?$CDebf1f4?$AA@ 1000d4e8     bncs_cc02_edit.obj
 0002:000054f8       ??_C@_0N@BEOHBNHP@en?5c?5?$CD3d3d3d?$AA@ 1000d4f8     bncs_cc02_edit.obj
 0002:00005508       ??_C@_0N@CDBKIPAO@dq?5c?5?$CDebffff?$AA@ 1000d508     bncs_cc02_edit.obj
 0002:00005518       ??_C@_0N@MFMKAFEF@tn?5c?5?$CD3d3e3d?$AA@ 1000d518     bncs_cc02_edit.obj
 0002:00005528       ??_C@_0N@PDAEPEHJ@e5?5c?5?$CDece2d1?$AA@ 1000d528     bncs_cc02_edit.obj
 0002:00005538       ??_C@_0N@FGJONKIC@?4s?5c?5?$CD3d3e3f?$AA@ 1000d538     bncs_cc02_edit.obj
 0002:00005548       ??_C@_0N@PKCAOKAK@ct?5c?5?$CDece3da?$AA@ 1000d548     bncs_cc02_edit.obj
 0002:00005558       ??_C@_0N@LFLAMACE@?4v?5c?5?$CD3d4144?$AA@ 1000d558     bncs_cc02_edit.obj
 0002:00005568       ??_C@_0N@HMGAIALN@oJ?5c?5?$CDececeb?$AA@ 1000d568     bncs_cc02_edit.obj
 0002:00005578       ??_C@_0N@HJPLKMNN@j8?5c?5?$CD3d464c?$AA@ 1000d578     bncs_cc02_edit.obj
 0002:00005588       ??_C@_0N@JHJAOIKF@mW?5c?5?$CDececec?$AA@ 1000d588     bncs_cc02_edit.obj
 0002:00005598       ??_C@_0N@GPJFCIMI@cn?5c?5?$CD3d4852?$AA@ 1000d598     bncs_cc02_edit.obj
 0002:000055a8       ??_C@_0N@IKNBJDJG@bb?5c?5?$CDeceef0?$AA@ 1000d5a8     bncs_cc02_edit.obj
 0002:000055b8       ??_C@_0N@IMFNIOFA@wf?5c?5?$CD3d5675?$AA@ 1000d5b8     bncs_cc02_edit.obj
 0002:000055c8       ??_C@_0N@NDGGDOBM@aW?5c?5?$CDecf0e9?$AA@ 1000d5c8     bncs_cc02_edit.obj
 0002:000055d8       ??_C@_0N@GKLCCIFD@qr?5c?5?$CD3d6387?$AA@ 1000d5d8     bncs_cc02_edit.obj
 0002:000055e8       ??_C@_0N@MBAFKKCA@vO?5c?5?$CDecffff?$AA@ 1000d5e8     bncs_cc02_edit.obj
 0002:000055f8       ??_C@_0N@HKLNJLAO@bG?5c?5?$CD3e1b0d?$AA@ 1000d5f8     bncs_cc02_edit.obj
 0002:00005608       ??_C@_0N@NPDBJEN@gt?5c?5?$CDededed?$AA@ 1000d608     bncs_cc02_edit.obj
 0002:00005618       ??_C@_0N@DCEILNGB@yr?5c?5?$CD3e2305?$AA@ 1000d618     bncs_cc02_edit.obj
 0002:00005628       ??_C@_0N@KMLPMLKL@kn?5c?5?$CDedffff?$AA@ 1000d628     bncs_cc02_edit.obj
 0002:00005638       ??_C@_0N@LBKIPNCH@fo?5c?5?$CD3e2f20?$AA@ 1000d638     bncs_cc02_edit.obj
 0002:00005648       ??_C@_0N@KBCALILC@ik?5c?5?$CDeee5d7?$AA@ 1000d648     bncs_cc02_edit.obj
 0002:00005658       ??_C@_0N@BEHCJDHE@sq?5c?5?$CD3e3e3e?$AA@ 1000d658     bncs_cc02_edit.obj
 0002:00005668       ??_C@_0N@DHBBLLLE@q3?5c?5?$CDeeeeee?$AA@ 1000d668     bncs_cc02_edit.obj
 0002:00005678       ??_C@_0N@GDNCONED@bO?5c?5?$CD3f2506?$AA@ 1000d678     bncs_cc02_edit.obj
 0002:00005688       ??_C@_0N@MFBKLJI@ze?5c?5?$CDeef7ff?$AA@ 1000d688     bncs_cc02_edit.obj
 0002:00005698       ??_C@_0N@BAPGHODM@vR?5c?5?$CD3f2609?$AA@ 1000d698     bncs_cc02_edit.obj
 0002:000056a8       ??_C@_0N@FIJDIPEE@aR?5c?5?$CDefedec?$AA@ 1000d6a8     bncs_cc02_edit.obj
 0002:000056b8       ??_C@_0N@LJAMFLCP@jS?5c?5?$CD3f2b1b?$AA@ 1000d6b8     bncs_cc02_edit.obj
 0002:000056c8       ??_C@_0N@MADFMJLH@gT?5c?5?$CDefefef?$AA@ 1000d6c8     bncs_cc02_edit.obj
 0002:000056d8       ??_C@_0N@GPNPDOIH@zB?5c?5?$CD3f3e3d?$AA@ 1000d6d8     bncs_cc02_edit.obj
 0002:000056e8       ??_C@_0N@KPOGJLOK@lk?5c?5?$CDefeff0?$AA@ 1000d6e8     bncs_cc02_edit.obj
 0002:000056f8       ??_C@_0N@BMKDCCC@zy?5c?5?$CD3f3f3e?$AA@ 1000d6f8     bncs_cc02_edit.obj
 0002:00005708       ??_C@_0N@EDBJCNNM@mS?5c?5?$CDeff1f2?$AA@ 1000d708     bncs_cc02_edit.obj
 0002:00005718       ??_C@_0N@GBAMIGAK@du?5c?5?$CD3f3f3f?$AA@ 1000d718     bncs_cc02_edit.obj
 0002:00005728       ??_C@_0N@NHPHCDM@?$CDX?5c?5?$CDeff4f5?$AA@ 1000d728     bncs_cc02_edit.obj
 0002:00005738       ??_C@_0N@LHDFMFOF@?4K?5c?5?$CD3f4041?$AA@ 1000d738     bncs_cc02_edit.obj
 0002:00005748       ??_C@_0N@CLOLLNPL@z?4?5c?5?$CDeff9ff?$AA@ 1000d748     bncs_cc02_edit.obj
 0002:00005758       ??_C@_0N@LKPLAEOB@xz?5c?5?$CD3f4042?$AA@ 1000d758     bncs_cc02_edit.obj
 0002:00005768       ??_C@_0N@OGBLCIBM@fm?5c?5?$CDeffcff?$AA@ 1000d768     bncs_cc02_edit.obj
 0002:00005778       ??_C@_0N@MPAMGNA@sM?5c?5?$CD3f4f5f?$AA@ 1000d778     bncs_cc02_edit.obj
 0002:00005788       ??_C@_0N@JFDAOJEG@xu?5c?5?$CDefffff?$AA@ 1000d788     bncs_cc02_edit.obj
 0002:00005798       ??_C@_0N@CKFOICCP@w7?5c?5?$CD402c14?$AA@ 1000d798     bncs_cc02_edit.obj
 0002:000057a8       ??_C@_0N@HKCNIONI@wi?5c?5?$CDf0d7b8?$AA@ 1000d7a8     bncs_cc02_edit.obj
 0002:000057b8       ??_C@_0N@GCBAHBFN@?4i?5c?5?$CD40392f?$AA@ 1000d7b8     bncs_cc02_edit.obj
 0002:000057c8       ??_C@_0N@IBJIHOEC@iF?5c?5?$CDf0e2d1?$AA@ 1000d7c8     bncs_cc02_edit.obj
 0002:000057d8       ??_C@_0N@CPLCGPCI@?4t?5c?5?$CD403932?$AA@ 1000d7d8     bncs_cc02_edit.obj
 0002:000057e8       ??_C@_0N@IJNOEFPN@os?5c?5?$CDf0ece7?$AA@ 1000d7e8     bncs_cc02_edit.obj
 0002:000057f8       ??_C@_0N@BCKCAKLK@zi?5c?5?$CD403f3e?$AA@ 1000d7f8     bncs_cc02_edit.obj
 0002:00005808       ??_C@_0N@DENBCPPI@lf?5c?5?$CDf0efef?$AA@ 1000d808     bncs_cc02_edit.obj
 0002:00005818       ??_C@_0N@HAJJGGGE@qM?5c?5?$CD404040?$AA@ 1000d818     bncs_cc02_edit.obj
 0002:00005828       ??_C@_0N@HCIKIFC@la?5c?5?$CDf0f0f0?$AA@ 1000d828     bncs_cc02_edit.obj
 0002:00005838       ??_C@_0N@FKFOLNJE@zj?5c?5?$CD404141?$AA@ 1000d838     bncs_cc02_edit.obj
 0002:00005848       ??_C@_0N@EIMPNOGJ@uw?5c?5?$CDf0faff?$AA@ 1000d848     bncs_cc02_edit.obj
 0002:00005858       ??_C@_0N@BENBFPKH@oq?5c?5?$CD412507?$AA@ 1000d858     bncs_cc02_edit.obj
 0002:00005868       ??_C@_0N@EGPPHKCL@jO?5c?5?$CDf0feff?$AA@ 1000d868     bncs_cc02_edit.obj
 0002:00005878       ??_C@_0N@KMJFLEJG@ii?5c?5?$CD412607?$AA@ 1000d878     bncs_cc02_edit.obj
 0002:00005888       ??_C@_0N@IKAFFNFG@xW?5c?5?$CDf0ffff?$AA@ 1000d888     bncs_cc02_edit.obj
 0002:00005898       ??_C@_0N@KLFJBBAB@ea?5c?5?$CD412b1c?$AA@ 1000d898     bncs_cc02_edit.obj
 0002:000058a8       ??_C@_0N@CPPMBPOE@i6?5c?5?$CDf1d7b6?$AA@ 1000d8a8     bncs_cc02_edit.obj
 0002:000058b8       ??_C@_0N@PMCHCKDB@fy?5c?5?$CD412e1f?$AA@ 1000d8b8     bncs_cc02_edit.obj
 0002:000058c8       ??_C@_0N@CPNCPKBJ@yg?5c?5?$CDf1dcc0?$AA@ 1000d8c8     bncs_cc02_edit.obj
 0002:000058d8       ??_C@_0N@LBEIOMOB@qz?5c?5?$CD41301d?$AA@ 1000d8d8     bncs_cc02_edit.obj
 0002:000058e8       ??_C@_0N@DIOIANPO@pr?5c?5?$CDf1f1f1?$AA@ 1000d8e8     bncs_cc02_edit.obj
 0002:000058f8       ??_C@_0N@FMHIMMIC@u?4?5c?5?$CD413224?$AA@ 1000d8f8     bncs_cc02_edit.obj
 0002:00005908       ??_C@_0N@EHKJBBHN@nN?5c?5?$CDf1f2f3?$AA@ 1000d908     bncs_cc02_edit.obj
 0002:00005918       ??_C@_0N@IAJFCFN@?4J?5c?5?$CD41403f?$AA@ 1000d918     bncs_cc02_edit.obj
 0002:00005928       ??_C@_0N@OIBIDLIE@jt?5c?5?$CDf1feff?$AA@ 1000d928     bncs_cc02_edit.obj
 0002:00005938       ??_C@_0N@DDPOHPAH@po?5c?5?$CD414141?$AA@ 1000d938     bncs_cc02_edit.obj
 0002:00005948       ??_C@_0N@OFEKOMOM@n2?5c?5?$CDf1ffff?$AA@ 1000d948     bncs_cc02_edit.obj
 0002:00005958       ??_C@_0N@LDFAHGM@kL?5c?5?$CD414c55?$AA@ 1000d958     bncs_cc02_edit.obj
 0002:00005968       ??_C@_0N@PIMPLNIC@xi?5c?5?$CDf2d4b2?$AA@ 1000d968     bncs_cc02_edit.obj
 0002:00005978       ??_C@_0N@MIFLDFHM@dO?5c?5?$CD421f0c?$AA@ 1000d978     bncs_cc02_edit.obj
 0002:00005988       ??_C@_0N@OMPFFNID@eM?5c?5?$CDf2e5d7?$AA@ 1000d988     bncs_cc02_edit.obj
 0002:00005998       ??_C@_0N@PBCGKIOM@jx?5c?5?$CD422d1d?$AA@ 1000d998     bncs_cc02_edit.obj
 0002:000059a8       ??_C@_0N@GLGAMBP@tk?5c?5?$CDf2e7dc?$AA@ 1000d9a8     bncs_cc02_edit.obj
 0002:000059b8       ??_C@_0N@PBCKBEEG@zC?5c?5?$CD42403e?$AA@ 1000d9b8     bncs_cc02_edit.obj
 0002:000059c8       ??_C@_0N@IHCLDGL@k0?5c?5?$CDf2f2f2?$AA@ 1000d9c8     bncs_cc02_edit.obj
 0002:000059d8       ??_C@_0N@GIOCBPDB@hw?5c?5?$CD424242?$AA@ 1000d9d8     bncs_cc02_edit.obj
 0002:000059e8       ??_C@_0N@FHBMBPHC@uE?5c?5?$CDf2fcff?$AA@ 1000d9e8     bncs_cc02_edit.obj
 0002:000059f8       ??_C@_0N@FNKNALPG@?4N?5c?5?$CD424343?$AA@ 1000d9f8     bncs_cc02_edit.obj
 0002:00005a08       ??_C@_0N@FAEMDCHA@w2?5c?5?$CDf2ffff?$AA@ 1000da08     bncs_cc02_edit.obj
 0002:00005a18       ??_C@_0N@DNGCNGFF@?4p?5c?5?$CD424443?$AA@ 1000da18     bncs_cc02_edit.obj
 0002:00005a28       ??_C@_0N@LMBKFCLF@nG?5c?5?$CDf3d3ae?$AA@ 1000da28     bncs_cc02_edit.obj
 0002:00005a38       ??_C@_0N@EJICBPHB@j4?5c?5?$CD425874?$AA@ 1000da38     bncs_cc02_edit.obj
 0002:00005a48       ??_C@_0N@GLBAIGGN@df?5c?5?$CDf3dfc6?$AA@ 1000da48     bncs_cc02_edit.obj
 0002:00005a58       ??_C@_0N@LFFFPGAE@iy?5c?5?$CD42627a?$AA@ 1000da58     bncs_cc02_edit.obj
 0002:00005a68       ??_C@_0N@CMFOCDEG@wb?5c?5?$CDf3e0c8?$AA@ 1000da68     bncs_cc02_edit.obj
 0002:00005a78       ??_C@_0N@PFNGJKHN@cQ?5c?5?$CD42688a?$AA@ 1000da78     bncs_cc02_edit.obj
 0002:00005a88       ??_C@_0N@FDDODLIN@qA?5c?5?$CDf3f3f3?$AA@ 1000da88     bncs_cc02_edit.obj
 0002:00005a98       ??_C@_0N@HNGHACKN@ry?5c?5?$CD431f00?$AA@ 1000da98     bncs_cc02_edit.obj
 0002:00005aa8       ??_C@_0N@MMGPBKIL@ou?5c?5?$CDf3f5f8?$AA@ 1000daa8     bncs_cc02_edit.obj
 0002:00005ab8       ??_C@_0N@DMLHIKDC@ke?5c?5?$CD432707?$AA@ 1000dab8     bncs_cc02_edit.obj
 0002:00005ac8       ??_C@_0N@IPGLLPNH@yM?5c?5?$CDf3f9fe?$AA@ 1000dac8     bncs_cc02_edit.obj
 0002:00005ad8       ??_C@_0N@BFGJHNMJ@?4R?5c?5?$CD434241?$AA@ 1000dad8     bncs_cc02_edit.obj
 0002:00005ae8       ??_C@_0N@OMKIBGOG@c6?5c?5?$CDf3ffff?$AA@ 1000dae8     bncs_cc02_edit.obj
 0002:00005af8       ??_C@_0N@GJMFOMIP@?4T?5c?5?$CD434342?$AA@ 1000daf8     bncs_cc02_edit.obj
 0002:00005b08       ??_C@_0N@DHJADOEA@kg?5c?5?$CDf4d2af?$AA@ 1000db08     bncs_cc02_edit.obj
 0002:00005b18       ??_C@_0N@MMFIJMJL@gy?5c?5?$CD434343?$AA@ 1000db18     bncs_cc02_edit.obj
 0002:00005b28       ??_C@_0N@EKAKCCAC@br?5c?5?$CDf4ede6?$AA@ 1000db28     bncs_cc02_edit.obj
 0002:00005b38       ??_C@_0N@MOJPEDOP@?4z?5c?5?$CD434344?$AA@ 1000db38     bncs_cc02_edit.obj
 0002:00005b48       ??_C@_0N@IPEIHKEM@nd?5c?5?$CDf4f4f4?$AA@ 1000db48     bncs_cc02_edit.obj
 0002:00005b58       ??_C@_0N@HDNFMKOG@zz?5c?5?$CD43443b?$AA@ 1000db58     bncs_cc02_edit.obj
 0002:00005b68       ??_C@_0N@PEJEAKAI@?$CD0?5c?5?$CDf4f7f8?$AA@ 1000db68     bncs_cc02_edit.obj
 0002:00005b78       ??_C@_0N@NPMCDKEC@?4O?5c?5?$CD434444?$AA@ 1000db78     bncs_cc02_edit.obj
 0002:00005b88       ??_C@_0N@GPKBMAAM@mR?5c?5?$CDf4f8fb?$AA@ 1000db88     bncs_cc02_edit.obj
 0002:00005b98       ??_C@_0N@MMMNJAAB@?4W?5c?5?$CD434445?$AA@ 1000db98     bncs_cc02_edit.obj
 0002:00005ba8       ??_C@_0N@LPEPKKFC@yE?5c?5?$CDf4f9ff?$AA@ 1000dba8     bncs_cc02_edit.obj
 0002:00005bb8       ??_C@_0N@IPGNJHFM@cT?5c?5?$CD441f00?$AA@ 1000dbb8     bncs_cc02_edit.obj
 0002:00005bc8       ??_C@_0N@GPFFKMLC@hi?5c?5?$CDf4fcff?$AA@ 1000dbc8     bncs_cc02_edit.obj
 0002:00005bd8       ??_C@_0N@MAADGICA@mh?5c?5?$CD442808?$AA@ 1000dbd8     bncs_cc02_edit.obj
 0002:00005be8       ??_C@_0N@ELNIEJFA@cs?5c?5?$CDf4feff?$AA@ 1000dbe8     bncs_cc02_edit.obj
 0002:00005bf8       ??_C@_0N@BCAIAJOA@vG?5c?5?$CD442d1a?$AA@ 1000dbf8     bncs_cc02_edit.obj
 0002:00005c08       ??_C@_0N@LEODBKBA@?4G?5c?5?$CDf4ffff?$AA@ 1000dc08     bncs_cc02_edit.obj
 0002:00005c18       ??_C@_0N@HCLIBFJF@ws?5c?5?$CD442f1a?$AA@ 1000dc18     bncs_cc02_edit.obj
 0002:00005c28       ??_C@_0N@DOHLCEBM@?$CDM?5c?5?$CDf5d1b3?$AA@ 1000dc28     bncs_cc02_edit.obj
 0002:00005c38       ??_C@_0N@CHEOEHO@?4w?5c?5?$CD444343?$AA@ 1000dc38     bncs_cc02_edit.obj
 0002:00005c48       ??_C@_0N@JCDOIFNE@rJ?5c?5?$CDf5dabf?$AA@ 1000dc48     bncs_cc02_edit.obj
 0002:00005c58       ??_C@_0N@CKJMNBLM@pk?5c?5?$CD444444?$AA@ 1000dc58     bncs_cc02_edit.obj
 0002:00005c68       ??_C@_0N@PDANAHIC@n3?5c?5?$CDf5e1bf?$AA@ 1000dc68     bncs_cc02_edit.obj
 0002:00005c78       ??_C@_0N@LEIEFHFK@o4?5c?5?$CD444d4f?$AA@ 1000dc78     bncs_cc02_edit.obj
 0002:00005c88       ??_C@_0N@OALHNNFL@p7?5c?5?$CDf5f5f5?$AA@ 1000dc88     bncs_cc02_edit.obj
 0002:00005c98       ??_C@_0N@DIFCDOMK@pa?5c?5?$CD444d56?$AA@ 1000dc98     bncs_cc02_edit.obj
 0002:00005ca8       ??_C@_0N@MBBCEGKC@zD?5c?5?$CDf5ffff?$AA@ 1000dca8     bncs_cc02_edit.obj
 0002:00005cb8       ??_C@_0N@CNMFMEGB@v2?5c?5?$CD445059?$AA@ 1000dcb8     bncs_cc02_edit.obj
 0002:00005cc8       ??_C@_0N@FEIGPBGE@ym?5c?5?$CDf6d0a6?$AA@ 1000dcc8     bncs_cc02_edit.obj
 0002:00005cd8       ??_C@_0N@JNAEKACI@fc?5c?5?$CD452808?$AA@ 1000dcd8     bncs_cc02_edit.obj
 0002:00005ce8       ??_C@_0N@GKNAHPKM@wu?5c?5?$CDf6ddbd?$AA@ 1000dce8     bncs_cc02_edit.obj
 0002:00005cf8       ??_C@_0N@JHKMBGMA@iz?5c?5?$CD452b19?$AA@ 1000dcf8     bncs_cc02_edit.obj
 0002:00005d08       ??_C@_0N@FLOGNEFL@tR?5c?5?$CDf6e7dd?$AA@ 1000dd08     bncs_cc02_edit.obj
 0002:00005d18       ??_C@_0N@IJEBLMEN@eV?5c?5?$CD452f1e?$AA@ 1000dd18     bncs_cc02_edit.obj
 0002:00005d28       ??_C@_0N@CMCKHDEA@gJ?5c?5?$CDf6f6f6?$AA@ 1000dd28     bncs_cc02_edit.obj
 0002:00005d38       ??_C@_0N@CLAGFHMF@xl?5c?5?$CD453f36?$AA@ 1000dd38     bncs_cc02_edit.obj
 0002:00005d48       ??_C@_0N@JOPCENOA@xv?5c?5?$CDf7e6cf?$AA@ 1000dd48     bncs_cc02_edit.obj
 0002:00005d58       ??_C@_0N@IDCBEKHO@st?5c?5?$CD454545?$AA@ 1000dd58     bncs_cc02_edit.obj
 0002:00005d68       ??_C@_0N@MBKIKFPE@eB?5c?5?$CDf7ede2?$AA@ 1000dd68     bncs_cc02_edit.obj
 0002:00005d78       ??_C@_0N@LJECLNJF@bH?5c?5?$CD455b76?$AA@ 1000dd78     bncs_cc02_edit.obj
 0002:00005d88       ??_C@_0N@KGPCIFKC@gX?5c?5?$CDf7f7f7?$AA@ 1000dd88     bncs_cc02_edit.obj
 0002:00005d98       ??_C@_0N@GOANEPJF@?$CDd?5c?5?$CD462909?$AA@ 1000dd98     bncs_cc02_edit.obj
 0002:00005da8       ??_C@_0N@MANFLKIN@lb?5c?5?$CDf7fafd?$AA@ 1000dda8     bncs_cc02_edit.obj
 0002:00005db8       ??_C@_0N@DFOOJAFD@hp?5c?5?$CD462a09?$AA@ 1000ddb8     bncs_cc02_edit.obj
 0002:00005dc8       ??_C@_0N@JKDFHFCP@em?5c?5?$CDf7ffff?$AA@ 1000ddc8     bncs_cc02_edit.obj
 0002:00005dd8       ??_C@_0N@MLOOCNGK@rW?5c?5?$CD463e35?$AA@ 1000ddd8     bncs_cc02_edit.obj
 0002:00005de8       ??_C@_0N@HCAOJACH@w?4?5c?5?$CDf8d9bb?$AA@ 1000dde8     bncs_cc02_edit.obj
 0002:00005df8       ??_C@_0N@MPBCCHDD@kX?5c?5?$CD464646?$AA@ 1000ddf8     bncs_cc02_edit.obj
 0002:00005e08       ??_C@_0N@OCJFAMGJ@qb?5c?5?$CDf8dbbc?$AA@ 1000de08     bncs_cc02_edit.obj
 0002:00005e18       ??_C@_0N@FPKFJOJ@r2?5c?5?$CD464c4c?$AA@ 1000de18     bncs_cc02_edit.obj
 0002:00005e28       ??_C@_0N@DCKCOOCI@lL?5c?5?$CDf8e8dd?$AA@ 1000de28     bncs_cc02_edit.obj
 0002:00005e38       ??_C@_0N@FPIMNCNK@tq?5c?5?$CD472928?$AA@ 1000de38     bncs_cc02_edit.obj
 0002:00005e48       ??_C@_0N@KLDNNJBG@t9?5c?5?$CDf8eada?$AA@ 1000de48     bncs_cc02_edit.obj
 0002:00005e58       ??_C@_0N@PFILCNMJ@uB?5c?5?$CD472a09?$AA@ 1000de58     bncs_cc02_edit.obj
 0002:00005e68       ??_C@_0N@NGDOBOPA@?$CDC?5c?5?$CDf8f5f4?$AA@ 1000de68     bncs_cc02_edit.obj
 0002:00005e78       ??_C@_0N@BJDMDLOI@dY?5c?5?$CD474747?$AA@ 1000de78     bncs_cc02_edit.obj
 0002:00005e88       ??_C@_0N@PANPDPJN@gO?5c?5?$CDf8f8f8?$AA@ 1000de88     bncs_cc02_edit.obj
 0002:00005e98       ??_C@_0N@LAGPCGNL@uC?5c?5?$CD475058?$AA@ 1000de98     bncs_cc02_edit.obj
 0002:00005ea8       ??_C@_0N@GNMKBEJP@dm?5c?5?$CDf8fcf0?$AA@ 1000dea8     bncs_cc02_edit.obj
 0002:00005eb8       ??_C@_0N@HJEEAMEA@nh?5c?5?$CD47525c?$AA@ 1000deb8     bncs_cc02_edit.obj
 0002:00005ec8       ??_C@_0N@FHEKLBAP@?4h?5c?5?$CDf9e6d6?$AA@ 1000dec8     bncs_cc02_edit.obj
 0002:00005ed8       ??_C@_0N@EIBOFAHG@xb?5c?5?$CD476a88?$AA@ 1000ded8     bncs_cc02_edit.obj
 0002:00005ee8       ??_C@_0N@KNMDNBIN@nO?5c?5?$CDf9ead3?$AA@ 1000dee8     bncs_cc02_edit.obj
 0002:00005ef8       ??_C@_0N@OKEEIEPD@yW?5c?5?$CD476c8c?$AA@ 1000def8     bncs_cc02_edit.obj
 0002:00005f08       ??_C@_0N@PIHLILMB@r9?5c?5?$CDf9f9f9?$AA@ 1000df08     bncs_cc02_edit.obj
 0002:00005f18       ??_C@_0N@HIHIKGHC@r1?5c?5?$CD484035?$AA@ 1000df18     bncs_cc02_edit.obj
 0002:00005f28       ??_C@_0N@NEFOLCHK@bq?5c?5?$CDf9ffff?$AA@ 1000df28     bncs_cc02_edit.obj
 0002:00005f38       ??_C@_0N@ODCJJDOC@j1?5c?5?$CD484848?$AA@ 1000df38     bncs_cc02_edit.obj
 0002:00005f48       ??_C@_0N@KMKNNC@yc?5c?5?$CDfaece1?$AA@ 1000df48     bncs_cc02_edit.obj
 0002:00005f58       ??_C@_0N@FCEIFCNI@y8?5c?5?$CD484f5e?$AA@ 1000df58     bncs_cc02_edit.obj
 0002:00005f68       ??_C@_0N@JNENKLGL@h5?5c?5?$CDfafaf9?$AA@ 1000df68     bncs_cc02_edit.obj
 0002:00005f78       ??_C@_0N@DJCDANHL@jT?5c?5?$CD494949?$AA@ 1000df78     bncs_cc02_edit.obj
 0002:00005f88       ??_C@_0N@OMPIECDG@er?5c?5?$CDfafafa?$AA@ 1000df88     bncs_cc02_edit.obj
 0002:00005f98       ??_C@_0N@EKHMEDOO@vf?5c?5?$CD495560?$AA@ 1000df98     bncs_cc02_edit.obj
 0002:00005fa8       ??_C@_0N@LOHOJNNB@?48?5c?5?$CDfaffff?$AA@ 1000dfa8     bncs_cc02_edit.obj
 0002:00005fb8       ??_C@_0N@DOGMLFPH@uP?5c?5?$CD496c8c?$AA@ 1000dfb8     bncs_cc02_edit.obj
 0002:00005fc8       ??_C@_0N@FPCCHLCO@cx?5c?5?$CDfbe1c6?$AA@ 1000dfc8     bncs_cc02_edit.obj
 0002:00005fd8       ??_C@_0N@MIEDFAMG@?4C?5c?5?$CD4a4845?$AA@ 1000dfd8     bncs_cc02_edit.obj
 0002:00005fe8       ??_C@_0N@EKMLKHL@t2?5c?5?$CDfbe5cc?$AA@ 1000dfe8     bncs_cc02_edit.obj
 0002:00005ff8       ??_C@_0N@PGMODIIO@l1?5c?5?$CD4a4846?$AA@ 1000dff8     bncs_cc02_edit.obj
 0002:00006008       ??_C@_0N@EIJLAGGG@va?5c?5?$CDfbefe3?$AA@ 1000e008     bncs_cc02_edit.obj
 0002:00006018       ??_C@_0N@LMMABGJP@pE?5c?5?$CD4a4a4a?$AA@ 1000e018     bncs_cc02_edit.obj
 0002:00006028       ??_C@_0N@NEJCLIGE@eU?5c?5?$CDfbf0e0?$AA@ 1000e028     bncs_cc02_edit.obj
 0002:00006038       ??_C@_0N@ODPHMJKK@l4?5c?5?$CD4a4c4e?$AA@ 1000e038     bncs_cc02_edit.obj
 0002:00006048       ??_C@_0N@HCIIGPHO@jz?5c?5?$CDfbfbfb?$AA@ 1000e048     bncs_cc02_edit.obj
 0002:00006058       ??_C@_0N@FLHIGLIN@kW?5c?5?$CD4b3a2e?$AA@ 1000e058     bncs_cc02_edit.obj
 0002:00006068       ??_C@_0N@MJFLOAKH@h6?5c?5?$CDfbfcfd?$AA@ 1000e068     bncs_cc02_edit.obj
 0002:00006078       ??_C@_0N@MPLCHFBP@gI?5c?5?$CD4b4b4b?$AA@ 1000e078     bncs_cc02_edit.obj
 0002:00006088       ??_C@_0N@PHMPIOBL@aC?5c?5?$CDfbffff?$AA@ 1000e088     bncs_cc02_edit.obj
 0002:00006098       ??_C@_0N@OIDEDABE@ue?5c?5?$CD4b4c4d?$AA@ 1000e098     bncs_cc02_edit.obj
 0002:000060a8       ??_C@_0N@EDMIEHL@tA?5c?5?$CDfceede?$AA@ 1000e0a8     bncs_cc02_edit.obj
 0002:000060b8       ??_C@_0N@MLBLMGBC@xj?5c?5?$CD4b6179?$AA@ 1000e0b8     bncs_cc02_edit.obj
 0002:000060c8       ??_C@_0N@CPNCNLBL@kp?5c?5?$CDfcfcfc?$AA@ 1000e0c8     bncs_cc02_edit.obj
 0002:000060d8       ??_C@_0N@KLCDOJEI@yl?5c?5?$CD4b6f8d?$AA@ 1000e0d8     bncs_cc02_edit.obj
 0002:000060e8       ??_C@_0N@IMLDEDNI@le?5c?5?$CDfcffff?$AA@ 1000e0e8     bncs_cc02_edit.obj
 0002:000060f8       ??_C@_0N@HDJEIFDM@wH?5c?5?$CD4c2d05?$AA@ 1000e0f8     bncs_cc02_edit.obj
 0002:00006108       ??_C@_0N@LEOMOFAL@qm?5c?5?$CDfde1c3?$AA@ 1000e108     bncs_cc02_edit.obj
 0002:00006118       ??_C@_0N@NNHKNIDK@i9?5c?5?$CD4c3625?$AA@ 1000e118     bncs_cc02_edit.obj
 0002:00006128       ??_C@_0N@LGHKLKMF@qX?5c?5?$CDfdf4e9?$AA@ 1000e128     bncs_cc02_edit.obj
 0002:00006138       ??_C@_0N@KGMONNFM@rY?5c?5?$CD4c4843?$AA@ 1000e138     bncs_cc02_edit.obj
 0002:00006148       ??_C@_0N@FGKGGCEG@pn?5c?5?$CDfdfdfd?$AA@ 1000e148     bncs_cc02_edit.obj
 0002:00006158       ??_C@_0N@PJCKDIP@uk?5c?5?$CD4c4b4a?$AA@ 1000e158     bncs_cc02_edit.obj
 0002:00006168       ??_C@_0N@MMIOGJLD@b4?5c?5?$CDfdffff?$AA@ 1000e168     bncs_cc02_edit.obj
 0002:00006178       ??_C@_0N@CBMOOEGD@ka?5c?5?$CD4c4c4c?$AA@ 1000e178     bncs_cc02_edit.obj
 0002:00006188       ??_C@_0N@ECDLLBND@?4e?5c?5?$CDfeedde?$AA@ 1000e188     bncs_cc02_edit.obj
 0002:00006198       ??_C@_0N@LDPGMODP@vt?5c?5?$CD4c5253?$AA@ 1000e198     bncs_cc02_edit.obj
 0002:000061a8       ??_C@_0N@LKFHKHJN@yt?5c?5?$CDfef8f1?$AA@ 1000e1a8     bncs_cc02_edit.obj
 0002:000061b8       ??_C@_0N@BGFGELN@lh?5c?5?$CD4c565c?$AA@ 1000e1b8     bncs_cc02_edit.obj
 0002:000061c8       ??_C@_0N@JBPADPDF@oD?5c?5?$CDfef9eb?$AA@ 1000e1c8     bncs_cc02_edit.obj
 0002:000061d8       ??_C@_0N@JPAKBJCJ@xc?5c?5?$CD4c6b90?$AA@ 1000e1d8     bncs_cc02_edit.obj
 0002:000061e8       ??_C@_0N@IPEJADHM@l?$CD?5c?5?$CDfefcf9?$AA@ 1000e1e8     bncs_cc02_edit.obj
 0002:000061f8       ??_C@_0N@LKLKOGCA@t3?5c?5?$CD4c708d?$AA@ 1000e1f8     bncs_cc02_edit.obj
 0002:00006208       ??_C@_0N@CAGDMOFH@g0?5c?5?$CDfefefe?$AA@ 1000e208     bncs_cc02_edit.obj
 0002:00006218       ??_C@_0N@GCOBPKKC@sF?5c?5?$CD4d3e2d?$AA@ 1000e218     bncs_cc02_edit.obj
 0002:00006228       ??_C@_0N@GPFCFPMK@aj?5c?5?$CDfeffff?$AA@ 1000e228     bncs_cc02_edit.obj
 0002:00006238       ??_C@_0N@FNDIEPPL@mO?5c?5?$CD4d4035?$AA@ 1000e238     bncs_cc02_edit.obj
 0002:00006248       ??_C@_0N@DGPKNNBI@p6?5c?5?$CDffdbbc?$AA@ 1000e248     bncs_cc02_edit.obj
 0002:00006258       ??_C@_0N@PDJCDIOA@ud?5c?5?$CD4d4c4b?$AA@ 1000e258     bncs_cc02_edit.obj
 0002:00006268       ??_C@_0N@LKDCKEDI@ro?5c?5?$CDffdcb4?$AA@ 1000e268     bncs_cc02_edit.obj
 0002:00006278       ??_C@_0N@IPPDFALK@gW?5c?5?$CD4d4d4d?$AA@ 1000e278     bncs_cc02_edit.obj
 0002:00006288       ??_C@_0N@OKEGLMOA@qV?5c?5?$CDffe2c7?$AA@ 1000e288     bncs_cc02_edit.obj
 0002:00006298       ??_C@_0N@JPLEIHAF@ul?5c?5?$CD4d4e4e?$AA@ 1000e298     bncs_cc02_edit.obj
 0002:000062a8       ??_C@_0N@GJOMPNLJ@qh?5c?5?$CDffe3bb?$AA@ 1000e2a8     bncs_cc02_edit.obj
 0002:000062b8       ??_C@_0N@JFPHJNOK@?4j?5c?5?$CD4d5a65?$AA@ 1000e2b8     bncs_cc02_edit.obj
 0002:000062c8       ??_C@_0N@ONFAFLML@vM?5c?5?$CDffe6ce?$AA@ 1000e2c8     bncs_cc02_edit.obj
 0002:000062d8       ??_C@_0N@DEBAFDKE@d?4?5c?5?$CD4d6377?$AA@ 1000e2d8     bncs_cc02_edit.obj
 0002:000062e8       ??_C@_0N@CMJJPNND@qq?5c?5?$CDffe9c2?$AA@ 1000e2e8     bncs_cc02_edit.obj
 0002:000062f8       ??_C@_0N@CMBGKJI@lW?5c?5?$CD4e4e4e?$AA@ 1000e2f8     bncs_cc02_edit.obj
 0002:00006308       ??_C@_0N@BABDLJPB@xn?5c?5?$CDffecd6?$AA@ 1000e308     bncs_cc02_edit.obj
 0002:00006318       ??_C@_0N@FOBGJKCM@ux?5c?5?$CD4f3a25?$AA@ 1000e318     bncs_cc02_edit.obj
 0002:00006328       ??_C@_0N@OIGHAJB@wl?5c?5?$CDffeeca?$AA@ 1000e328     bncs_cc02_edit.obj
 0002:00006338       ??_C@_0N@CJGOBKON@l8?5c?5?$CD4f4d4b?$AA@ 1000e338     bncs_cc02_edit.obj
 0002:00006348       ??_C@_0N@LMCLLNBF@qw?5c?5?$CDffefcd?$AA@ 1000e348     bncs_cc02_edit.obj
 0002:00006358       ??_C@_0N@EPNPPCOI@iQ?5c?5?$CD4f4f4f?$AA@ 1000e358     bncs_cc02_edit.obj
 0002:00006368       ??_C@_0N@OEMNGJCN@cV?5c?5?$CDfff0d5?$AA@ 1000e368     bncs_cc02_edit.obj
 0002:00006378       ??_C@_0N@JHIJJDAJ@fB?5c?5?$CD4f5865?$AA@ 1000e378     bncs_cc02_edit.obj
 0002:00006388       ??_C@_0N@EBKNCMII@re?5c?5?$CDfff2c5?$AA@ 1000e388     bncs_cc02_edit.obj
 0002:00006398       ??_C@_0N@OFJJLHNH@gi?5c?5?$CD505050?$AA@ 1000e398     bncs_cc02_edit.obj
 0002:000063a8       ??_C@_0N@FEDADDEF@fe?5c?5?$CDfff2d1?$AA@ 1000e3a8     bncs_cc02_edit.obj
 0002:000063b8       ??_C@_0N@KNMOJDJJ@mc?5c?5?$CD505252?$AA@ 1000e3b8     bncs_cc02_edit.obj
 0002:000063c8       ??_C@_0N@GDLGDPG@lE?5c?5?$CDfff3d9?$AA@ 1000e3c8     bncs_cc02_edit.obj
 0002:000063d8       ??_C@_0N@MEBFHDFI@h0?5c?5?$CD51412f?$AA@ 1000e3d8     bncs_cc02_edit.obj
 0002:000063e8       ??_C@_0N@FHPGNHAP@rH?5c?5?$CDfff4c8?$AA@ 1000e3e8     bncs_cc02_edit.obj
 0002:000063f8       ??_C@_0N@NINFGDDN@dD?5c?5?$CD514639?$AA@ 1000e3f8     bncs_cc02_edit.obj
 0002:00006408       ??_C@_0N@CKDBNNPK@hA?5c?5?$CDfff4da?$AA@ 1000e408     bncs_cc02_edit.obj
 0002:00006418       ??_C@_0N@PIIKDMOA@ph?5c?5?$CD514f46?$AA@ 1000e418     bncs_cc02_edit.obj
 0002:00006428       ??_C@_0N@BGGBCALL@xC?5c?5?$CDfff4de?$AA@ 1000e428     bncs_cc02_edit.obj
 0002:00006438       ??_C@_0N@LJMINDEM@oN?5c?5?$CD515151?$AA@ 1000e438     bncs_cc02_edit.obj
 0002:00006448       ??_C@_0N@MPDFOLFC@ao?5c?5?$CDfff5db?$AA@ 1000e448     bncs_cc02_edit.obj
 0002:00006458       ??_C@_0N@FABGEJEK@qG?5c?5?$CD51606d?$AA@ 1000e458     bncs_cc02_edit.obj
 0002:00006468       ??_C@_0N@HOCLNOIN@xL?5c?5?$CDfff5e4?$AA@ 1000e468     bncs_cc02_edit.obj
 0002:00006478       ??_C@_0N@LGJDIHBA@vz?5c?5?$CD516274?$AA@ 1000e478     bncs_cc02_edit.obj
 0002:00006488       ??_C@_0N@FDDBCMJD@qD?5c?5?$CDfff6cd?$AA@ 1000e488     bncs_cc02_edit.obj
 0002:00006498       ??_C@_0N@IJFMCOOK@aq?5c?5?$CD51718e?$AA@ 1000e498     bncs_cc02_edit.obj
 0002:000064a8       ??_C@_0N@BIIFNKAB@t7?5c?5?$CDfff6dd?$AA@ 1000e4a8     bncs_cc02_edit.obj
 0002:000064b8       ??_C@_0N@EIBJEMPJ@zG?5c?5?$CD523617?$AA@ 1000e4b8     bncs_cc02_edit.obj
 0002:000064c8       ??_C@_0N@DHDJGMLO@iL?5c?5?$CDfff6e6?$AA@ 1000e4c8     bncs_cc02_edit.obj
 0002:000064d8       ??_C@_0N@LPAPKMHO@eo?5c?5?$CD525252?$AA@ 1000e4d8     bncs_cc02_edit.obj
 0002:000064e8       ??_C@_0N@PLFJKNHE@of?5c?5?$CDfff6e8?$AA@ 1000e4e8     bncs_cc02_edit.obj
 0002:000064f8       ??_C@_0N@PKGCMBOE@nZ?5c?5?$CD527195?$AA@ 1000e4f8     bncs_cc02_edit.obj
 0002:00006508       ??_C@_0N@EIEKJHEA@ne?5c?5?$CDfff6e9?$AA@ 1000e508     bncs_cc02_edit.obj
 0002:00006518       ??_C@_0N@POJPLIL@nu?5c?5?$CD533617?$AA@ 1000e518     bncs_cc02_edit.obj
 0002:00006528       ??_C@_0N@PGFMJIMF@aI?5c?5?$CDfff7df?$AA@ 1000e528     bncs_cc02_edit.obj
 0002:00006538       ??_C@_0N@HDHHHELC@vm?5c?5?$CD53473d?$AA@ 1000e538     bncs_cc02_edit.obj
 0002:00006548       ??_C@_0N@MNAGKFGA@m2?5c?5?$CDfff7e1?$AA@ 1000e548     bncs_cc02_edit.obj
 0002:00006558       ??_C@_0N@PCPBMKHD@j6?5c?5?$CD535252?$AA@ 1000e558     bncs_cc02_edit.obj
 0002:00006568       ??_C@_0N@NGDLNION@tI?5c?5?$CDfff7e4?$AA@ 1000e568     bncs_cc02_edit.obj
 0002:00006578       ??_C@_0N@NKAHJFLM@gL?5c?5?$CD535353?$AA@ 1000e578     bncs_cc02_edit.obj
 0002:00006588       ??_C@_0N@JKELHLNI@vx?5c?5?$CDfff7ee?$AA@ 1000e588     bncs_cc02_edit.obj
 0002:00006598       ??_C@_0N@EPKAAOEF@l5?5c?5?$CD535455?$AA@ 1000e598     bncs_cc02_edit.obj
 0002:000065a8       ??_C@_0N@KGONIHBN@qT?5c?5?$CDfff8ce?$AA@ 1000e5a8     bncs_cc02_edit.obj
 0002:000065b8       ??_C@_0N@BFPNJDDI@f6?5c?5?$CD535d6a?$AA@ 1000e5b8     bncs_cc02_edit.obj
 0002:000065c8       ??_C@_0N@CHCABPOI@c7?5c?5?$CDfff8d8?$AA@ 1000e5c8     bncs_cc02_edit.obj
 0002:000065d8       ??_C@_0N@PNPFDLBP@fv?5c?5?$CD535f69?$AA@ 1000e5d8     bncs_cc02_edit.obj
 0002:000065e8       ??_C@_0N@IPIJBPKN@?4k?5c?5?$CDfff8da?$AA@ 1000e5e8     bncs_cc02_edit.obj
 0002:000065f8       ??_C@_0N@KHLDEBNC@uX?5c?5?$CD536a8a?$AA@ 1000e5f8     bncs_cc02_edit.obj
 0002:00006608       ??_C@_0N@BOJMJIKC@pe?5c?5?$CDfff9ec?$AA@ 1000e608     bncs_cc02_edit.obj
 0002:00006618       ??_C@_0N@EICNEFKM@eO?5c?5?$CD544740?$AA@ 1000e618     bncs_cc02_edit.obj
 0002:00006628       ??_C@_0N@LDIINCFG@oH?5c?5?$CDfff9f3?$AA@ 1000e628     bncs_cc02_edit.obj
 0002:00006638       ??_C@_0N@BGDLFLAE@zI?5c?5?$CD54493e?$AA@ 1000e638     bncs_cc02_edit.obj
 0002:00006648       ??_C@_0N@HLMJLLHM@zt?5c?5?$CDfffad6?$AA@ 1000e648     bncs_cc02_edit.obj
 0002:00006658       ??_C@_0N@JOPKOJLJ@r4?5c?5?$CD545454?$AA@ 1000e658     bncs_cc02_edit.obj
 0002:00006668       ??_C@_0N@GDONFNLN@zo?5c?5?$CDfffae2?$AA@ 1000e668     bncs_cc02_edit.obj
 0002:00006678       ??_C@_0N@IMENBLEN@lV?5c?5?$CD545656?$AA@ 1000e678     bncs_cc02_edit.obj
 0002:00006688       ??_C@_0N@OCBOEGE@xE?5c?5?$CDfffbdd?$AA@ 1000e688     bncs_cc02_edit.obj
 0002:00006698       ??_C@_0N@ECGCGHAB@bd?5c?5?$CD546b8c?$AA@ 1000e698     bncs_cc02_edit.obj
 0002:000066a8       ??_C@_0N@COHKMLPC@b1?5c?5?$CDfffbe6?$AA@ 1000e6a8     bncs_cc02_edit.obj
 0002:000066b8       ??_C@_0N@OPLFOKDL@iE?5c?5?$CD546d85?$AA@ 1000e6b8     bncs_cc02_edit.obj
 0002:000066c8       ??_C@_0N@KLBGGAHA@?$CDR?5c?5?$CDfffbef?$AA@ 1000e6c8     bncs_cc02_edit.obj
 0002:000066d8       ??_C@_0N@HNMMKKNE@tY?5c?5?$CD553e2a?$AA@ 1000e6d8     bncs_cc02_edit.obj
 0002:000066e8       ??_C@_0N@FMGELOOO@p4?5c?5?$CDfffcd9?$AA@ 1000e6e8     bncs_cc02_edit.obj
 0002:000066f8       ??_C@_0N@OKKBNHHG@dJ?5c?5?$CD554a3e?$AA@ 1000e6f8     bncs_cc02_edit.obj
 0002:00006708       ??_C@_0N@BEOMFLKH@qj?5c?5?$CDfffcdc?$AA@ 1000e708     bncs_cc02_edit.obj
 0002:00006718       ??_C@_0N@EOBLAMIP@l0?5c?5?$CD555452?$AA@ 1000e718     bncs_cc02_edit.obj
 0002:00006728       ??_C@_0N@PHOGPDEE@oA?5c?5?$CDfffcf6?$AA@ 1000e728     bncs_cc02_edit.obj
 0002:00006738       ??_C@_0N@MKNGPMPD@Qt?5c?5?$CD555555?$AA@ 1000e738     bncs_cc02_edit.obj
 0002:00006748       ??_C@_0N@BLMDMMKD@nW?5c?5?$CDfffdf1?$AA@ 1000e748     bncs_cc02_edit.obj
 0002:00006758       ??_C@_0N@BJFNEOPI@yb?5c?5?$CD557795?$AA@ 1000e758     bncs_cc02_edit.obj
 0002:00006768       ??_C@_0N@HLNMMKH@uq?5c?5?$CDfffef1?$AA@ 1000e768     bncs_cc02_edit.obj
 0002:00006778       ??_C@_0N@NBPDDCJO@nm?5c?5?$CD557896?$AA@ 1000e778     bncs_cc02_edit.obj
 0002:00006788       ??_C@_0N@HCOBEIMI@mk?5c?5?$CDfffef4?$AA@ 1000e788     bncs_cc02_edit.obj
 0002:00006798       ??_C@_0N@HHDOKFCK@lK?5c?5?$CD557a99?$AA@ 1000e798     bncs_cc02_edit.obj
 0002:000067a8       ??_C@_0N@EEAJNNFM@wV?5c?5?$CDfffef6?$AA@ 1000e7a8     bncs_cc02_edit.obj
 0002:000067b8       ??_C@_0N@JAIOPKF@nT?5c?5?$CD563c24?$AA@ 1000e7b8     bncs_cc02_edit.obj
 0002:000067c8       ??_C@_0N@EBMFMJPJ@hj?5c?5?$CDfffef9?$AA@ 1000e7c8     bncs_cc02_edit.obj
 0002:000067d8       ??_C@_0N@LBPBKEHG@gG?5c?5?$CD565656?$AA@ 1000e7d8     bncs_cc02_edit.obj
 0002:000067e8       ??_C@_0N@PPKKHLI@p9?5c?5?$CDffffd3?$AA@ 1000e7e8     bncs_cc02_edit.obj
 0002:000067f8       ??_C@_0N@IJBDDPHM@lX?5c?5?$CD565757?$AA@ 1000e7f8     bncs_cc02_edit.obj
 0002:00006808       ??_C@_0N@FBCLPNHE@rO?5c?5?$CDffffdd?$AA@ 1000e808     bncs_cc02_edit.obj
 0002:00006818       ??_C@_0N@OOAALGEA@fd?5c?5?$CD56708f?$AA@ 1000e818     bncs_cc02_edit.obj
 0002:00006828       ??_C@_0N@LMGLMHDC@xQ?5c?5?$CDffffdf?$AA@ 1000e828     bncs_cc02_edit.obj
 0002:00006838       ??_C@_0N@KGOIBKHE@q?$CD?5c?5?$CD572a16?$AA@ 1000e838     bncs_cc02_edit.obj
 0002:00006848       ??_C@_0N@DOBAHOGC@a6?5c?5?$CDffffe0?$AA@ 1000e848     bncs_cc02_edit.obj
 0002:00006858       ??_C@_0N@BLILGIEF@wB?5c?5?$CD573713?$AA@ 1000e858     bncs_cc02_edit.obj
 0002:00006868       ??_C@_0N@DBLMODFG@wv?5c?5?$CDffffe3?$AA@ 1000e868     bncs_cc02_edit.obj
 0002:00006878       ??_C@_0N@CNLIHLHD@pV?5c?5?$CD57473d?$AA@ 1000e878     bncs_cc02_edit.obj
 0002:00006888       ??_C@_0N@DDHANKNO@q0?5c?5?$CDffffe6?$AA@ 1000e888     bncs_cc02_edit.obj
 0002:00006898       ??_C@_0N@BHHEMMPE@pK?5c?5?$CD575757?$AA@ 1000e898     bncs_cc02_edit.obj
 0002:000068a8       ??_C@_0N@CKGFIEII@oo?5c?5?$CDffffe7?$AA@ 1000e8a8     bncs_cc02_edit.obj
 0002:000068b8       ??_C@_0N@CNDMKFL@kq?5c?5?$CD576571?$AA@ 1000e8b8     bncs_cc02_edit.obj
 0002:000068c8       ??_C@_0N@LKCMMFBC@uJ?5c?5?$CDffffe9?$AA@ 1000e8c8     bncs_cc02_edit.obj
 0002:000068d8       ??_C@_0N@KJAGNNMK@vC?5c?5?$CD583211?$AA@ 1000e8d8     bncs_cc02_edit.obj
 0002:000068e8       ??_C@_0N@GPLNMHBC@?4Y?5c?5?$CDffffec?$AA@ 1000e8e8     bncs_cc02_edit.obj
 0002:000068f8       ??_C@_0N@MMDCPNJF@cJ?5c?5?$CD58361e?$AA@ 1000e8f8     bncs_cc02_edit.obj
 0002:00006908       ??_C@_0N@HOEAKNAI@kc?5c?5?$CDffffed?$AA@ 1000e908     bncs_cc02_edit.obj
 0002:00006918       ??_C@_0N@LDFOBLGB@xA?5c?5?$CD585550?$AA@ 1000e918     bncs_cc02_edit.obj
 0002:00006928       ??_C@_0N@CGGPKPKD@cG?5c?5?$CDffffee?$AA@ 1000e928     bncs_cc02_edit.obj
 0002:00006938       ??_C@_0N@EPJDBKNP@jy?5c?5?$CD585858?$AA@ 1000e938     bncs_cc02_edit.obj
 0002:00006948       ??_C@_0N@GBMDIEMD@i8?5c?5?$CDffffef?$AA@ 1000e948     bncs_cc02_edit.obj
 0002:00006958       ??_C@_0N@GKHJCOOM@gc?5c?5?$CD58636d?$AA@ 1000e958     bncs_cc02_edit.obj
 0002:00006968       ??_C@_0N@IHEGMAPB@rw?5c?5?$CDfffff1?$AA@ 1000e968     bncs_cc02_edit.obj
 0002:00006978       ??_C@_0N@MNNOECFJ@iX?5c?5?$CD587b9a?$AA@ 1000e978     bncs_cc02_edit.obj
 0002:00006988       ??_C@_0N@FKGCFCMD@e?$CD?5c?5?$CDfffff2?$AA@ 1000e988     bncs_cc02_edit.obj
 0002:00006998       ??_C@_0N@BJDJAMIK@dS?5c?5?$CD593e1f?$AA@ 1000e998     bncs_cc02_edit.obj
 0002:000069a8       ??_C@_0N@ODJMLMFP@c?$CD?5c?5?$CDfffff3?$AA@ 1000e9a8     bncs_cc02_edit.obj
 0002:000069b8       ??_C@_0N@LDAFFKEC@bu?5c?5?$CD595044?$AA@ 1000e9b8     bncs_cc02_edit.obj
 0002:000069c8       ??_C@_0N@EKCDCKHL@nz?5c?5?$CDfffff4?$AA@ 1000e9c8     bncs_cc02_edit.obj
 0002:000069d8       ??_C@_0N@EBAIPFJK@cp?5c?5?$CD595757?$AA@ 1000e9d8     bncs_cc02_edit.obj
 0002:000069e8       ??_C@_0N@IBKEDBFG@jB?5c?5?$CDfffff5?$AA@ 1000e9e8     bncs_cc02_edit.obj
 0002:000069f8       ??_C@_0N@MNINPGNH@pF?5c?5?$CD595959?$AA@ 1000e9f8     bncs_cc02_edit.obj
 0002:00006a08       ??_C@_0N@PCKPBAKN@a3?5c?5?$CDfffff6?$AA@ 1000ea08     bncs_cc02_edit.obj
 0002:00006a18       ??_C@_0N@FAFDNACE@n7?5c?5?$CD5a3d1f?$AA@ 1000ea18     bncs_cc02_edit.obj
 0002:00006a28       ??_C@_0N@LHLFOLGI@wd?5c?5?$CDfffff7?$AA@ 1000ea28     bncs_cc02_edit.obj
 0002:00006a38       ??_C@_0N@GKNPDKIE@sk?5c?5?$CD5a5a5a?$AA@ 1000ea38     bncs_cc02_edit.obj
 0002:00006a48       ??_C@_0N@HIOIGBOH@c4?5c?5?$CDfffff8?$AA@ 1000ea48     bncs_cc02_edit.obj
 0002:00006a58       ??_C@_0N@DFCHEBLH@cM?5c?5?$CD5a5d5b?$AA@ 1000ea58     bncs_cc02_edit.obj
 0002:00006a68       ??_C@_0N@MLPLFLND@b7?5c?5?$CDfffff9?$AA@ 1000ea68     bncs_cc02_edit.obj
 0002:00006a78       ??_C@_0N@EAKCIOBJ@tp?5c?5?$CD5a708b?$AA@ 1000ea78     bncs_cc02_edit.obj
 0002:00006a88       ??_C@_0N@NNABIEKP@ay?5c?5?$CDfffffa?$AA@ 1000ea88     bncs_cc02_edit.obj
 0002:00006a98       ??_C@_0N@DAKLODHK@a2?5c?5?$CD5a78a3?$AA@ 1000ea98     bncs_cc02_edit.obj
 0002:00006aa8       ??_C@_0N@OLADGEHP@dy?5c?5?$CDfffffb?$AA@ 1000eaa8     bncs_cc02_edit.obj
 0002:00006ab8       ??_C@_0N@LJNINENK@dr?5c?5?$CD5b3718?$AA@ 1000eab8     bncs_cc02_edit.obj
 0002:00006ac8       ??_C@_0N@GFKFPEKN@dh?5c?5?$CDfffffc?$AA@ 1000eac8     bncs_cc02_edit.obj
 0002:00006ad8       ??_C@_0N@GBNJJLFF@qK?5c?5?$CD5b3722?$AA@ 1000ead8     bncs_cc02_edit.obj
 0002:00006ae8       ??_C@_0N@EFFPEOAI@ag?5c?5?$CDfffffd?$AA@ 1000eae8     bncs_cc02_edit.obj
 0002:00006af8       ??_C@_0N@OIEMFMKD@h9?5c?5?$CD5b5046?$AA@ 1000eaf8     bncs_cc02_edit.obj
 0002:00006b08       ??_C@_0N@GKPKLLDJ@ll?5c?5?$CDfffffe?$AA@ 1000eb08     bncs_cc02_edit.obj
 0002:00006b18       ??_C@_0N@ELAOKLO@pL?5c?5?$CD5b5b5b?$AA@ 1000eb18     bncs_cc02_edit.obj
 0002:00006b28       ??_C@_0N@JKAKLKOE@?4d?5c?5?$CDffffff?$AA@ 1000eb28     bncs_cc02_edit.obj
 0002:00006b38       ??_C@_0N@LFBPHJOP@im?5c?5?$CD5b738b?$AA@ 1000eb38     bncs_cc02_edit.obj
 0002:00006b48       ??_C@_0CLD@NBBGMDIK@Qt?4?$CD?4?$CD?4?$CD?4?$CD?4?$CD?4?$CD?4?$CD?4?$CD?4?$CD?4?$CD?4?$CD?4?$CD?4?$CD?4?$CD?4?$CD@ 1000eb48     bncs_cc02_edit.obj
 0002:00006dfc       ??_C@_0N@MFEOLIEL@ua?5c?5?$CD5c3c23?$AA@ 1000edfc     bncs_cc02_edit.obj
 0002:00006e10       ??_C@_0CLD@KMMBBAHG@Qt?4?$CD?4?$CD?4?$CD?4?$CD?4?$CD?4?$CD?4?$CD?4?$CD?4?$CD?4?$CD?4?$CD?4?$CD?4?$CD?4?$CD?4?$CD@ 1000ee10     bncs_cc02_edit.obj
 0002:000070c4       ??_C@_0N@FMHCNFN@yx?5c?5?$CD5c4837?$AA@ 1000f0c4     bncs_cc02_edit.obj
 0002:000070d8       ??_C@_0CLD@LNFMCMNL@Qt?4?$CD?4?$CD?4?$CD?4?$CD?4?$CD?4?$CD?4?$CD?4?$CD?4?$CD?4?$CD?4?$CD?4?$CD?4?$CD?4?$CD?4?$CD@ 1000f0d8     bncs_cc02_edit.obj
 0002:0000738c       ??_C@_0N@LAPOGDGO@tT?5c?5?$CD5c5347?$AA@ 1000f38c     bncs_cc02_edit.obj
 0002:000073a0       ??_C@_0CLD@DGPEEHDE@Qt?4?$CD?4?$CD?4?$CD?4?$CD?4?$CD?4?$CD?4?$CD?4?$CD?4?$CD?4?$CD?4?$CD?4?$CD?4?$CD?4?$CD?4?$CD@ 1000f3a0     bncs_cc02_edit.obj
 0002:00007654       ??_C@_0N@POPLLJBM@pQ?5c?5?$CD5c5b53?$AA@ 1000f654     bncs_cc02_edit.obj
 0002:00007668       ??_C@_0CLD@CNDJFKCF@Qt?4?$CD?4?$CD?4?$CD?4?$CD?4?$CD?4?$CD?4?$CD?4?$CD?4?$CD?4?$CD?4?$CD?4?$CD?4?$CD?4?$CD?4?$CD@ 1000f668     bncs_cc02_edit.obj
 0002:0000791c       ??_C@_0N@MAGKLDOB@r6?5c?5?$CD5c5c5c?$AA@ 1000f91c     bncs_cc02_edit.obj
 0002:00007930       ??_C@_0CLD@LMJEOFKL@Qt?4?$CD?4?$CD?4?$CD?4?$CD?4?$CD?4o?4p?4q?4r?4r?4r?4r?4r?4r?4r@ 1000f930     bncs_cc02_edit.obj
 0002:00007be4       ??_C@_0N@DAPAJBCP@zH?5c?5?$CD5c6667?$AA@ 1000fbe4     bncs_cc02_edit.obj
 0002:00007bf8       ??_C@_0CLD@IKDEOIMM@Qt?4?$CD?4?$CD?4?$CD?4?$CD?4?$CD?4X?4d?4d?4d?4d?4d?4d?4d?4d?4d@ 1000fbf8     bncs_cc02_edit.obj
 0002:00007eac       ??_C@_0N@BNFLGPDH@ln?5c?5?$CD5c7183?$AA@ 1000feac     bncs_cc02_edit.obj
 0002:00007ec0       ??_C@_0CLD@JFABBALH@Qt?4?$CD?4?$CD?4?$CD?4?$CD?4?$CD?$CDq?$CDr?$CDs?$CDt?$CDt?$CDu?$CDv?4d?4d?$CDw@ 1000fec0     bncs_cc02_edit.obj
 0002:00008174       ??_C@_0N@HFFLPCIB@wT?5c?5?$CD5d331a?$AA@ 10010174     bncs_cc02_edit.obj
 0002:00008188       ??_C@_0CLD@DCAAEHHC@Qt?4?$CD?4?$CD?4?$CD?4?$CD?4?$CD?4?$CD?4?$CD?4?$CD?4?$CD?4?$CD?4?$CDae?4d?4d?4U@ 10010188     bncs_cc02_edit.obj
 0002:0000843c       ??_C@_0N@FGIAOBNF@vb?5c?5?$CD5d4532?$AA@ 1001043c     bncs_cc02_edit.obj
 0002:00008450       ??_C@_0CLD@DLDEONAE@Qt?4?$CD?4?$CD?4?$CD?4?$CD?4?$CD?4?$CD?4?$CD?4?$CD?4?$CD?4?$CD?4?$CDav?4d?4daw@ 10010450     bncs_cc02_edit.obj
 0002:00008704       ??_C@_0N@EIOJCCOH@pB?5c?5?$CD5d5d5d?$AA@ 10010704     bncs_cc02_edit.obj
 0002:00008718       ??_C@_0CLD@PCNGOIKJ@Qt?4?$CD?4?$CD?4?$CD?4?$CD?4?$CD?4?$CD?4?$CD?4?$CD?4?$CD?4?$CD?4?$CDav?4d?4daw@ 10010718     bncs_cc02_edit.obj
 0002:000089cc       ??_C@_0N@EJOCHIOD@pY?5c?5?$CD5d696d?$AA@ 100109cc     bncs_cc02_edit.obj
 0002:000089e0       ??_C@_0CLD@FHNOCPOP@Qt?4?$CD?4?$CD?4?$CD?4?$CD?4?$CD?4?$CD?4?$CD?4?$CD?4?$CD?4?$CD?4?$CDav?4d?4daw@ 100109e0     bncs_cc02_edit.obj
 0002:00008c94       ??_C@_0N@JNLHGKFF@he?5c?5?$CD5d758b?$AA@ 10010c94     bncs_cc02_edit.obj
 0002:00008ca8       ??_C@_0CLD@OPNBFILP@Qt?4?$CD?4?$CD?4?$CD?4?$CD?4?$CD?4?$CD?4?$CD?4?$CD?4?$CD?4?$CD?4?$CDav?4d?4daw@ 10010ca8     bncs_cc02_edit.obj
 0002:00008f5c       ??_C@_0N@LGDMJJMI@rl?5c?5?$CD5d88aa?$AA@ 10010f5c     bncs_cc02_edit.obj
 0002:00008f70       ??_C@_0CLD@PHFEFPCG@Qt?4?$CD?4?$CD?4?$CD?4?$CD?4?$CD?4?$CD?4?$CD?4?$CD?4?$CD?4?$CD?4?$CDav?4d?4daw@ 10010f70     bncs_cc02_edit.obj
 0002:00009224       ??_C@_0N@OANGOLBP@vy?5c?5?$CD5e4b34?$AA@ 10011224     bncs_cc02_edit.obj
 0002:00009238       ??_C@_0CLD@KMKDJCHP@Qt?4?$CD?4?$CD?4?$CD?4?$CD?4?$CD?4?$CD?4?$CD?4?$CD?4?$CD?4?$CD?4?$CDav?4d?4daw@ 10011238     bncs_cc02_edit.obj
 0002:000094ec       ??_C@_0N@EDKHHHIH@co?5c?5?$CD5e5d5c?$AA@ 100114ec     bncs_cc02_edit.obj
 0002:00009500       ??_C@_0CLD@ODMIKIIJ@Qt?4?$CD?4?$CD?4?$CD?4?$CD?4?$CD?4?$CD?4?$CD?4?$CD?4?$CD?4?$CD?4?$CDav?4d?4daw@ 10011500     bncs_cc02_edit.obj
 0002:000097b4       ??_C@_0N@JPPOOOGL@gE?5c?5?$CD5e5e5e?$AA@ 100117b4     bncs_cc02_edit.obj
 0002:000097c8       ??_C@_0CLD@OOMBBCEA@Qt?4?$CD?4?$CD?4?$CD?4?$CD?4?$CD?4?$CD?4?$CD?4?$CD?4?$CD?4?$CD?4?$CDav?4d?4daw@ 100117c8     bncs_cc02_edit.obj
 0002:00009a7c       ??_C@_0N@NMKKCNAN@yp?5c?5?$CD5f361c?$AA@ 10011a7c     bncs_cc02_edit.obj
 0002:00009a90       ??_C@_0CLD@HPGAAJP@Qt?4?$CD?4?$CD?4?$CD?4?$CD?4?$CD?4?$CD?4?$CD?4?$CD?4?$CD?4?$CD?4?$CDav?4d?4daw@ 10011a90     bncs_cc02_edit.obj
 0002:00009d44       ??_C@_0N@BDNONPCL@sK?5c?5?$CD5f564b?$AA@ 10011d44     bncs_cc02_edit.obj
 0002:00009d58       ??_C@_0CLD@EALEADPC@Qt?4?$CD?4?$CD?4?$CD?4?$CD?4?$CD?4?$CD?4?$CD?4?$CD?4?$CD?4?$CD?4?$CDav?4d?4daw@ 10011d58     bncs_cc02_edit.obj
 0002:0000a00c       ??_C@_0N@KBKKLNIK@dI?5c?5?$CD5f5e5e?$AA@ 1001200c     bncs_cc02_edit.obj
 0002:0000a020       ??_C@_0CLD@KIPHJII@Qt?4?$CD?4?$CD?4?$CD?4?$CD?4?$CD?4?$CD?4?$CD?4?$CD?4?$CD?4?$CD?4?$CDav?4d?4daw@ 10012020     bncs_cc02_edit.obj
 0002:0000a2d4       ??_C@_0N@HFACAPMG@mf?5c?5?$CD5f5f5f?$AA@ 100122d4     bncs_cc02_edit.obj
 0002:0000a2e8       ??_C@_0CLD@BLEGNIHC@Qt?4?$CD?4?$CD?4?$CD?4?$CD?4?$CD?4?$CD?4?$CD?4?$CD?4?$CD?4?$CD?4?$CDav?4d?4daw@ 100122e8     bncs_cc02_edit.obj
 0002:0000a59c       ??_C@_0N@NJJKMBME@tW?5c?5?$CD5f6973?$AA@ 1001259c     bncs_cc02_edit.obj
 0002:0000a5b0       ??_C@_0CLD@ONKGKKLG@Qt?4?$CD?4?$CD?4?$CD?4?$CD?4?$CD?4?$CD?4?$CD?4?$CD?4?$CD?4?$CD?4?$CDeW?4d?4deX@ 100125b0     bncs_cc02_edit.obj
 0002:0000a864       ??_C@_0N@HKDHFGNG@kT?5c?5?$CD5f6c78?$AA@ 10012864     bncs_cc02_edit.obj
 0002:0000a878       ??_C@_0CLD@LADMCNJP@Qt?4?$CD?4?$CD?4?$CD?4?$CD?4?$CD?4?$CD?4?$CD?4?$CD?4?$CD?4?$CD?4?$CDfpfqfrc0@ 10012878     bncs_cc02_edit.obj
 0002:0000ab2c       ??_C@_0N@NCJFIIBG@wn?5c?5?$CD60432f?$AA@ 10012b2c     bncs_cc02_edit.obj
 0002:0000ab40       ??_C@_0CLD@DLADEJPC@Qt?4?$CD?4?$CD?4?$CD?4?$CD?4?$CD?4?$CD?4?$CD?4?$CD?4?$CD?4?$CD?4?$CD?4?$CD?4?$CD?4?$CD?4?$CD@ 10012b40     bncs_cc02_edit.obj
 0002:0000adf4       ??_C@_0N@LMEHANKL@iW?5c?5?$CD604933?$AA@ 10012df4     bncs_cc02_edit.obj
 0002:0000ae08       ??_C@_0CLD@LPMGFAPG@Qt?4?$CD?4?$CD?4?$CD?4?$CD?4?$CD?4?$CD?4?$CD?4?$CD?4?$CD?4?$CD?4?$CD?4?$CD?4?$CD?4?$CD?4?$CD@ 10012e08     bncs_cc02_edit.obj
 0002:0000b0bc       ??_C@_0N@IPKKMEMF@gA?5c?5?$CD606060?$AA@ 100130bc     bncs_cc02_edit.obj
 0002:0000b0d0       ??_C@_0CLD@CPKCCBPH@Qt?4?$CD?4?$CD?4?$CD?4?$CD?4?$CD?4?$CD?4?$CD?4?$CD?4?$CD?4?$CD?4?$CD?4?$CD?4?$CD?4?$CD?4?$CD@ 100130d0     bncs_cc02_edit.obj
 0002:0000b384       ??_C@_0N@GBBNKOEM@rC?5c?5?$CD614533?$AA@ 10013384     bncs_cc02_edit.obj
 0002:0000b398       ??_C@_0CLD@MCMAEOHD@Qt?4?$CD?4?$CD?4?$CD?4?$CD?4?$CD?4?$CD?4?$CD?4?$CD?4?$CD?4?$CD?4?$CD?4?$CD?4?$CD?4?$CD?4?$CD@ 10013398     bncs_cc02_edit.obj
 0002:0000b64c       ??_C@_0N@LIJOHLCK@pT?5c?5?$CD616161?$AA@ 1001364c     bncs_cc02_edit.obj
 0002:0000b660       ??_C@_0CLD@EPHNKAAL@Qt?4?$CD?4?$CD?4?$CD?4?$CD?4?$CD?4?$CD?4?$CD?4?$CD?4?$CD?4?$CD?4?$CD?4?$CD?4?$CD?4?$CD?4?$CD@ 10013660     bncs_cc02_edit.obj
 0002:0000b914       ??_C@_0N@LIOHHPJO@p0?5c?5?$CD616162?$AA@ 10013914     bncs_cc02_edit.obj
 0002:0000b928       ??_C@_0CLD@NDCPIJIB@Qt?4?$CD?4?$CD?4?$CD?4?$CD?4?$CD?4?$CD?4?$CD?4?$CD?4?$CD?4?$CD?4?$CD?4?$CD?4?$CD?4?$CD?4?$CD@ 10013928     bncs_cc02_edit.obj
 0002:0000bbdc       ??_C@_0N@BPGPDFAG@l2?5c?5?$CD617c90?$AA@ 10013bdc     bncs_cc02_edit.obj
 0002:0000bbf0       ??_C@_0CLD@HBJMBFOP@Qt?4?$CD?4?$CD?4?$CD?4?$CD?4?$CD?4?$CD?4?$CD?4?$CD?4?$CD?4?$CD?4?$CD?4?$CD?4?$CD?4?$CD?4?$CD@ 10013bf0     bncs_cc02_edit.obj
 0002:0000bea4       ??_C@_0N@EJBKLGDM@jX?5c?5?$CD617ca6?$AA@ 10013ea4     bncs_cc02_edit.obj
 0002:0000beb8       ??_C@_0CLD@DPFNHAGC@Qt?4?$CD?4?$CD?4?$CD?4?$CD?4?$CD?4?$CD?4?$CD?4?$CD?4?$CD?4?$CD?4?$CD?4?$CD?4?$CD?4?$CD?4?$CD@ 10013eb8     bncs_cc02_edit.obj
 0002:0000c16c       ??_C@_0N@BLPNAHFI@iV?5c?5?$CD6183a1?$AA@ 1001416c     bncs_cc02_edit.obj
 0002:0000c180       ??_C@_0CLD@NOMEAEAP@Qt?4?$CD?4?$CD?4?$CD?4?$CD?4?$CD?4?$CD?4?$CD?4?$CD?4?$CD?4?$CD?4?$CD?4?$CD?4?$CD?4?$CD?4?$CD@ 10014180     bncs_cc02_edit.obj
 0002:0000c434       ??_C@_0N@HGJFCBPB@rn?5c?5?$CD6186b0?$AA@ 10014434     bncs_cc02_edit.obj
 0002:0000c448       ??_C@_0CLD@LGJFBFAI@Qt?4?$CD?4?$CD?4?$CD?4?$CD?4?$CD?4?$CD?4?$CD?4?$CD?4?$CD?4?$CD?4?$CD?4?$CD?4?$CD?4?$CD?4?$CD@ 10014448     bncs_cc02_edit.obj
 0002:0000c6fc       ??_C@_0N@PBEHKIGO@wJ?5c?5?$CD623e1e?$AA@ 100146fc     bncs_cc02_edit.obj
 0002:0000c710       ??_C@_0CLD@HNCDDMNN@Qt?4?$CD?4?$CD?4?$CD?4?$CD?4?$CD?4?$CD?4?$CD?4?$CD?4?$CD?4?$CD?4?$CD?4?$CD?4?$CD?4?$CD?4?$CD@ 10014710     bncs_cc02_edit.obj
 0002:0000c9c4       ??_C@_0N@ECACKODL@nJ?5c?5?$CD624321?$AA@ 100149c4     bncs_cc02_edit.obj
 0002:0000c9d8       ??_C@_0CLD@LNGABFHP@Qt?4?$CD?4?$CD?4?$CD?4?$CD?4?$CD?4?$CD?4?$CD?4?$CD?4?$CD?4?$CD?4?$CD?4?$CD?4?$CD?4?$CD?4?$CD@ 100149d8     bncs_cc02_edit.obj
 0002:0000cc8c       ??_C@_0N@MKPDONDO@kY?5c?5?$CD626262?$AA@ 10014c8c     bncs_cc02_edit.obj
 0002:0000cca0       ??_C@_0CLD@PNOJIEFJ@Qt?4?$CD?4?$CD?4?$CD?4?$CD?4?$CD?4?$CD?4?$CD?4?$CD?4?$CD?4?$CD?4?$CD?4?$CD?4?$CD?4?$CD?4?$CD@ 10014ca0     bncs_cc02_edit.obj
 0002:0000cf54       ??_C@_0N@NNCFEMMN@sE?5c?5?$CD62717f?$AA@ 10014f54     bncs_cc02_edit.obj
 0002:0000cf68       ??_C@_0CLD@EAKNELJO@Qt?4?$CD?4?$CD?4?$CD?4?$CD?4?$CD?4?$CD?4?$CD?4?$CD?4?$CD?4?$CD?4?$CD?4?$CD?4?$CD?4?$CD?4?$CD@ 10014f68     bncs_cc02_edit.obj
 0002:0000d21c       ??_C@_0N@OMCNNCBK@ds?5c?5?$CD6284a2?$AA@ 1001521c     bncs_cc02_edit.obj
 0002:0000d230       ??_C@_0CLD@MPMMANFL@Qt?4?$CD?4?$CD?4?$CD?4?$CD?4?$CD?4?$CD?4?$CD?4?$CD?4?$CD?4?$CD?4?$CD?4?$CD?4?$CD?4?$CD?4?$CD@ 10015230     bncs_cc02_edit.obj
 0002:0000d4e4       ??_C@_0N@ONCKGNB@pZ?5c?5?$CD636261?$AA@ 100154e4     bncs_cc02_edit.obj
 0002:0000d4f8       ??_C@_0CLD@PJPDJEOG@Qt?4?$CD?4?$CD?4?$CD?4?$CD?4?$CD?4?$CD?4?$CD?4?$CD?4?$CD?4?$CD?4?$CD?4?$CD?4?$CD?4?$CD?4?$CD@ 100154f8     bncs_cc02_edit.obj
 0002:0000d7ac       ??_C@_0N@PNOBHHBC@hK?5c?5?$CD636363?$AA@ 100157ac     bncs_cc02_edit.obj
 0002:0000d7c0       ??_C@_0CLD@EHKAEKMD@Qt?4?$CD?4?$CD?4?$CD?4?$CD?4?$CD?4?$CD?4?$CD?4?$CD?4?$CD?4?$CD?4?$CD?4?$CD?4?$CD?4?$CD?4?$CD@ 100157c0     bncs_cc02_edit.obj
 0002:0000da74       ??_C@_0N@MCKCEOIO@bn?5c?5?$CD636c74?$AA@ 10015a74     bncs_cc02_edit.obj
 0002:0000da88       ??_C@_0CLD@KFOAHCNP@Qt?4?$CD?4?$CD?4?$CD?4?$CD?4?$CD?4?$CD?4?$CD?4?$CD?4?$CD?4?$CD?4?$CD?4?$CD?4?$CD?4?$CD?4?$CD@ 10015a88     bncs_cc02_edit.obj
 0002:0000dd3c       ??_C@_0N@FHLKLCNC@l3?5c?5?$CD644e3f?$AA@ 10015d3c     bncs_cc02_edit.obj
 0002:0000dd50       ??_C@_0CLD@IGDHLAJF@Qt?4?$CD?4?$CD?4?$CD?4?$CD?4?$CD?4?$CD?4?$CD?4?$CD?4?$CD?4?$CD?4?$CD?4?$CD?4?$CD?4?$CD?4?$CD@ 10015d50     bncs_cc02_edit.obj
 0002:0000e004       ??_C@_0N@LDPDNOM@eD?5c?5?$CD64594d?$AA@ 10016004     bncs_cc02_edit.obj
 0002:0000e018       ??_C@_0CLD@DPENFNDI@Qt?4?$CD?4?$CD?4?$CD?4?$CD?4?$CD?4?$CD?4?$CD?4?$CD?4?$CD?4?$CD?4?$CD?4?$CD?4?$CD?4?$CD?4?$CD@ 10016018     bncs_cc02_edit.obj
 0002:0000e2cc       ??_C@_0N@INKBELPB@gN?5c?5?$CD646464?$AA@ 100162cc     bncs_cc02_edit.obj
 0002:0000e2e0       ??_C@_0CLD@MDMHOBKP@Qt?4?$CD?4?$CD?4?$CD?4?$CD?4?$CD?4?$CD?4?$CD?4?$CD?4?$CD?4?$CD?4?$CD?4?$CD?4?$CD?4?$CD?4?$CD@ 100162e0     bncs_cc02_edit.obj
 0002:0000e594       ??_C@_0N@LDNFKHGG@pU?5c?5?$CD646566?$AA@ 10016594     bncs_cc02_edit.obj
 0002:0000e5a8       ??_C@_0CLD@MHPALHI@Qt?4?$CD?4?$CD?4?$CD?4?$CD?4?$CD?4?$CD?4?$CD?4?$CD?4?$CD?4?$CD?4?$CD?4?$CD?4?$CD?4?$CD?4?$CD@ 100165a8     bncs_cc02_edit.obj
 0002:0000e85c       ??_C@_0N@EHOCLAKD@h2?5c?5?$CD646f78?$AA@ 1001685c     bncs_cc02_edit.obj
 0002:0000e870       ??_C@_0CLD@GCJCMMGF@Qt?4?$CD?4?$CD?4?$CD?4?$CD?4?$CD?4?$CD?4?$CD?4?$CD?4?$CD?4?$CD?4?$CD?4?$CD?4?$CD?4?$CD?4?$CD@ 10016870     bncs_cc02_edit.obj
 0002:0000eb24       ??_C@_0N@NLHCNKML@kj?5c?5?$CD647381?$AA@ 10016b24     bncs_cc02_edit.obj
 0002:0000eb38       ??_C@_0CLD@NJCMMIPO@Qt?4?$CD?4?$CD?4?$CD?4?$CD?4?$CD?4?$CD?4?$CD?4?$CD?4?$CD?4?$CD?4?$CD?4?$CD?4?$CD?4?$CD?4?$CD@ 10016b38     bncs_cc02_edit.obj
 0002:0000edec       ??_C@_0N@EAAEOBHL@tQ?5c?5?$CD64788a?$AA@ 10016dec     bncs_cc02_edit.obj
 0002:0000ee00       ??_C@_0CLD@NKCKPNMF@Qt?4?$CD?4?$CD?4?$CD?4?$CD?4?$CD?4?$CD?4?$CD?4?$CD?4?$CD?4?$CD?4?$CD?4?$CD?4?$CD?4?$CD?4?$CD@ 10016e00     bncs_cc02_edit.obj
 0002:0000f0b4       ??_C@_0N@CCMKAEG@rc?5c?5?$CD653f1a?$AA@ 100170b4     bncs_cc02_edit.obj
 0002:0000f0c8       ??_C@_0CLD@JIPFODO@Qt?4?$CD?4?$CD?4?$CD?4?$CD?4?$CD?4?$CD?4?$CD?4?$CD?4?$CD?4?$CD?4?$CD?4?$CD?4?$CD?4?$CD?4?$CD@ 100170c8     bncs_cc02_edit.obj
 0002:0000f37c       ??_C@_0N@PDHFGODE@a4?5c?5?$CD654739?$AA@ 1001737c     bncs_cc02_edit.obj
 0002:0000f390       ??_C@_0CLD@BEOHEDIJ@Qt?4?$CD?4?$CD?4?$CD?4?$CD?4?$CD?4?$CD?4?$CD?4?$CD?4?$CD?4?$CD?4?$CD?4?$CD?4?$CD?4?$CD?4?$CD@ 10017390     bncs_cc02_edit.obj
 0002:0000f644       ??_C@_0N@GMIJKBII@c2?5c?5?$CD656362?$AA@ 10017644     bncs_cc02_edit.obj
 0002:0000f658       ??_C@_0CLD@IPAJHPFJ@Qt?4?$CD?4?$CD?4?$CD?4?$CD?4?$CD?4?$CD?4?$CD?4?$CD?4?$CD?4?$CD?4?$CD?4?$CD?4?$CD?4?$CD?4?$CD@ 10017658     bncs_cc02_edit.obj
 0002:0000f90c       ??_C@_0N@IIPFMHHI@gm?5c?5?$CD656565?$AA@ 1001790c     bncs_cc02_edit.obj
 0002:0000f920       ??_C@_0CLD@KPIPKLEJ@Qt?4?$CD?4?$CD?4?$CD?4?$CD?4?$CD?4?$CD?4?$CD?4?$CD?4?$CD?4?$CD?4?$CD?4?$CD?4?$CD?4?$CD?4?$CD@ 10017920     bncs_cc02_edit.obj
 0002:0000fbd4       ??_C@_0N@NNFNEHFP@el?5c?5?$CD656f80?$AA@ 10017bd4     bncs_cc02_edit.obj
 0002:0000fbe8       ??_C@_0CLD@HFANIANG@Qt?4?$CD?4?$CD?4?$CD?4?$CD?4?$CD?4?$CD?4?$CD?4?$CD?4?$CD?4?$CD?4?$CD?4?$CD?4?$CD?4?$CD?4?$CD@ 10017be8     bncs_cc02_edit.obj
 0002:0000fe9c       ??_C@_0N@OCGHFBJJ@oY?5c?5?$CD65747d?$AA@ 10017e9c     bncs_cc02_edit.obj
 0002:0000feb0       ??_C@_0CLD@GFGHCMAL@Qt?4?$CD?4?$CD?4?$CD?4?$CD?4?$CD?4?$CD?4?$CD?4?$CD?4?$CD?4?$CD?4?$CD?4?$CD?4?$CD?4?$CD?4?$CD@ 10017eb0     bncs_cc02_edit.obj
 0002:00010164       ??_C@_0N@FNFMANHC@gB?5c?5?$CD666666?$AA@ 10018164     bncs_cc02_edit.obj
 0002:00010178       ??_C@_0CLD@KIJCGNDH@Qt?4?$CD?4?$CD?4?$CD?4?$CD?4?$CD?4?$CD?4?$CD?4?$CD?4?$CD?4?$CD?4?$CD?4?$CD?4?$CD?4?$CD?4?$CD@ 10018178     bncs_cc02_edit.obj
 0002:0001042c       ??_C@_0N@NCECFFEI@cq?5c?5?$CD66747f?$AA@ 1001842c     bncs_cc02_edit.obj
 0002:00010440       ??_C@_0CLD@LOGMCFLD@Qt?4?$CD?4?$CD?4?$CD?4?$CD?4?$CD?4?$CD?4?$CD?4?$CD?4?$CD?4?$CD?4?$CD?4?$CD?4?$CD?4?$CD?4?$CD@ 10018440     bncs_cc02_edit.obj
 0002:000106f4       ??_C@_0N@OKEDNPDH@oe?5c?5?$CD66829f?$AA@ 100186f4     bncs_cc02_edit.obj
 0002:00010708       ??_C@_0CLD@JBEHMICJ@Qt?4?$CD?4?$CD?4?$CD?4?$CD?4?$CD?4?$CD?4?$CD?4?$CD?4?$CD?4?$CD?4?$CD?4?$CD?4?$CD?4?$CD?4?$CD@ 10018708     bncs_cc02_edit.obj
 0002:000109bc       ??_C@_0N@JHOJMNBA@cm?5c?5?$CD674c35?$AA@ 100189bc     bncs_cc02_edit.obj
 0002:000109d0       ??_C@_0CLD@MABDEGLE@Qt?4?$CD?4?$CD?4?$CD?4?$CD?4?$CD?4?$CD?4?$CD?4?$CD?4?$CD?4?$CD?4?$CD?4?$CD?4?$CD?4?$CD?4?$CD@ 100189d0     bncs_cc02_edit.obj
 0002:00010c84       ??_C@_0N@GKEEIJMK@pX?5c?5?$CD675e51?$AA@ 10018c84     bncs_cc02_edit.obj
 0002:00010c98       ??_C@_0CLD@LOPPPAJA@Qt?4?$CD?4?$CD?4?$CD?4?$CD?4?$CD?4?$CD?4?$CD?4?$CD?4?$CD?4?$CD?4?$CD?4?$CD?4?$CD?4?$CD?4?$CD@ 10018c98     bncs_cc02_edit.obj
 0002:00010f4c       ??_C@_0N@OPDLBMPH@fN?5c?5?$CD676767?$AA@ 10018f4c     bncs_cc02_edit.obj
 0002:00010f60       ??_C@_0CLD@BGKNJJF@Qt?4?$CD?4?$CD?4?$CD?4?$CD?4?$CD?4?$CD?4?$CD?4?$CD?4?$CD?4?$CD?4?$CD?4?$CD?4?$CD?4?$CD?4?$CD@ 10018f60     bncs_cc02_edit.obj
 0002:00011214       ??_C@_0N@LBIHJIDB@?$CDV?5c?5?$CD685846?$AA@ 10019214     bncs_cc02_edit.obj
 0002:00011228       ??_C@_0CLD@EGOEHJIG@Qt?4?$CD?4?$CD?4?$CD?4?$CD?4?$CD?4?$CD?4?$CD?4?$CD?4?$CD?4?$CD?4?$CD?4?$CD?4?$CD?4?$CD?4?$CD@ 10019228     bncs_cc02_edit.obj
 0002:000114dc       ??_C@_0N@OAPAELAN@r5?5c?5?$CD686868?$AA@ 100194dc     bncs_cc02_edit.obj
 0002:000114f0       ??_C@_0CLD@KGENJOIE@Qt?4?$CD?4?$CD?4?$CD?4?$CD?4?$CD?4?$CD?4?$CD?4?$CD?4?$CD?4?$CD?4?$CD?4?$CD?4?$CD?4?$CD?4?$CD@ 100194f0     bncs_cc02_edit.obj
 0002:000117a4       ??_C@_0N@NJDNGMKK@ti?5c?5?$CD68707c?$AA@ 100197a4     bncs_cc02_edit.obj
 0002:000117b8       ??_C@_0CLD@CJNICK@Qt?4?$CD?4?$CD?4?$CD?4?$CD?4?$CD?4?$CD?4?$CD?4?$CD?4?$CD?4?$CD?4?$CD?4?$CD?4?$CD?4?$CD?4?$CD@ 100197b8     bncs_cc02_edit.obj
 0002:00011a6c       ??_C@_0N@IBMDBIAC@te?5c?5?$CD68737d?$AA@ 10019a6c     bncs_cc02_edit.obj
 0002:00011a80       ??_C@_0CLD@PFEMAHLK@Qt?4?$CD?4?$CD?4?$CD?4?$CD?4?$CD?4?$CD?4?$CD?4?$CD?4?$CD?4?$CD?4?$CD?4?$CD?4?$CD?4?$CD?4?$CD@ 10019a80     bncs_cc02_edit.obj
 0002:00011d34       ??_C@_0N@NNFEEDEB@yH?5c?5?$CD68778e?$AA@ 10019d34     bncs_cc02_edit.obj
 0002:00011d48       ??_C@_0CLD@HJBMFFKI@Qt?4?$CD?4?$CD?4?$CD?4?$CD?4?$CD?4?$CD?4?$CD?4?$CD?4?$CD?4?$CD?4?$CD?4?$CD?4?$CD?4?$CD?4?$CD@ 10019d48     bncs_cc02_edit.obj
 0002:00011ffc       ??_C@_0N@FFMIJCKP@v9?5c?5?$CD68869f?$AA@ 10019ffc     bncs_cc02_edit.obj
 0002:00012010       ??_C@_0CLD@JPIFDJKE@Qt?4?$CD?4?$CD?4?$CD?4?$CD?4?$CD?4?$CD?4?$CD?4?$CD?4?$CD?4?$CD?4?$CD?4?$CD?4?$CD?4?$CD?4?$CD@ 1001a010     bncs_cc02_edit.obj
 0002:000122c4       ??_C@_0N@KIPKMBF@j?$CD?5c?5?$CD688aa7?$AA@ 1001a2c4     bncs_cc02_edit.obj
 0002:000122d8       ??_C@_0CLD@EHOCANOL@Qt?4?$CD?4?$CD?4?$CD?4?$CD?4?$CD?4?$CD?4?$CD?4?$CD?4?$CD?4?$CD?4?$CD?4?$CD?4?$CD?4?$CD?4?$CD@ 1001a2d8     bncs_cc02_edit.obj
 0002:0001258c       ??_C@_0N@LDBOAFON@wc?5c?5?$CD688db0?$AA@ 1001a58c     bncs_cc02_edit.obj
 0002:000125a0       ??_C@_0CLD@LMNNMNAF@Qt?4?$CD?4?$CD?4?$CD?4?$CD?4?$CD?4?$CD?4?$CD?4?$CD?4?$CD?4?$CD?4?$CD?4?$CD?4?$CD?4?$CD?4?$CD@ 1001a5a0     bncs_cc02_edit.obj
 0002:00012854       ??_C@_0N@EJAFOMFL@vZ?5c?5?$CD696157?$AA@ 1001a854     bncs_cc02_edit.obj
 0002:00012868       ??_C@_0CLD@KNMDDOHG@Qt?4?$CD?4?$CD?4?$CD?4?$CD?4?$CD?4?$CD?4?$CD?4?$CD?4?$CD?4?$CD?4?$CD?4?$CD?4?$CD?4?$CD?4?$CD@ 1001a868     bncs_cc02_edit.obj
 0002:00012b1c       ??_C@_0N@BCBMMJIF@pS?5c?5?$CD696866?$AA@ 1001ab1c     bncs_cc02_edit.obj
 0002:00012b30       ??_C@_0CLD@HHJFANBC@Qt?4?$CD?4?$CD?4?$CD?4?$CD?4?$CD?4?$CD?4?$CD?4?$CD?4?$CD?4?$CD?4?$CD?4?$CD?4?$CD?4?$CD?4?$CD@ 1001ab30     bncs_cc02_edit.obj
 0002:00012de4       ??_C@_0N@BNHDEPAL@zK?5c?5?$CD696969?$AA@ 1001ade4     bncs_cc02_edit.obj
 0002:00012df8       ??_C@_0CLD@CCKFIDLD@Qt?4?$CD?4?$CD?4?$CD?4?$CD?4?$CD?4?$CD?4?$CD?4?$CD?4?$CD?4?$CD?4?$CD?4?$CD?4?$CD?4?$CD?4?$CD@ 1001adf8     bncs_cc02_edit.obj
 0002:000130ac       ??_C@_0N@JHAGLOML@j9?5c?5?$CD69717d?$AA@ 1001b0ac     bncs_cc02_edit.obj
 0002:000130c0       ??_C@_0CLD@OOAPOEFI@Qt?4?$CD?4?$CD?4?$CD?4?$CD?4?$CD?4?$CD?4?$CD?4?$CD?4?$CD?4?$CD?4?$CD?4?$CD?4?$CD?4?$CD?4?$CD@ 1001b0c0     bncs_cc02_edit.obj
 0002:00013374       ??_C@_0N@BEFAICMG@iJ?5c?5?$CD697985?$AA@ 1001b374     bncs_cc02_edit.obj
 0002:00013388       ??_C@_0CLD@CMFKANFG@Qt?4?$CD?4?$CD?4?$CD?4?$CD?4?$CD?4?$CD?4?$CD?4?$CD?4?$CD?4?$CD?4?$CD?4?$CD?4?$CD?4?$CD?4?$CD@ 1001b388     bncs_cc02_edit.obj
 0002:0001363c       ??_C@_0N@JLGDMJLE@cw?5c?5?$CD6989aa?$AA@ 1001b63c     bncs_cc02_edit.obj
 0002:00013650       ??_C@_0CLD@ONJCFBPO@Qt?4?$CD?4?$CD?4?$CD?4?$CD?4?$CD?4?$CD?4?$CD?4?$CD?4?$CD?4?$CD?4?$CD?4?$CD?4?$CD?4?$CD?4?$CD@ 1001b650     bncs_cc02_edit.obj
 0002:00013904       ??_C@_0N@BEBAPEEG@qd?5c?5?$CD6a4928?$AA@ 1001b904     bncs_cc02_edit.obj
 0002:00013918       ??_C@_0CLD@KIKJDLEN@Qt?4?$CD?4?$CD?4?$CD?4?$CD?4?$CD?4?$CD?4?$CD?4?$CD?4?$CD?4?$CD?4?$CD?4?$CD?4?$CD?4?$CD?4?$CD@ 1001b918     bncs_cc02_edit.obj
 0002:00013bcc       ??_C@_0N@FCMOCPMG@p?4?5c?5?$CD6a5d5b?$AA@ 1001bbcc     bncs_cc02_edit.obj
 0002:00013be0       ??_C@_0CLD@ONJMPGLF@Qt?4?$CD?4?$CD?4?$CD?4?$CD?4?$CD?4?$CD?4?$CD?4?$CD?4?$CD?4?$CD?4?$CD?4?$CD?4?$CD?4?$CD?4?$CD@ 1001bbe0     bncs_cc02_edit.obj
 0002:00013e94       ??_C@_0N@BHOFGBCO@gp?5c?5?$CD6a6a6a?$AA@ 1001be94     bncs_cc02_edit.obj
 0002:00013ea8       ??_C@_0CLD@LLECHMG@Qt?4?$CD?4?$CD?4?$CD?4?$CD?4?$CD?4?$CD?4?$CD?4?$CD?4?$CD?4?$CD?4?$CD?4?$CD?4?$CD?4?$CD?4?$CD@ 1001bea8     bncs_cc02_edit.obj
 0002:0001415c       ??_C@_0N@KNDMCFOE@p1?5c?5?$CD6a6c69?$AA@ 1001c15c     bncs_cc02_edit.obj
 0002:00014170       ??_C@_0CLD@FFIAFECA@Qt?4?$CD?4?$CD?4?$CD?4?$CD?4?$CD?4?$CD?4?$CD?4?$CD?4?$CD?4?$CD?4?$CD?4?$CD?4?$CD?4?$CD?4?$CD@ 1001c170     bncs_cc02_edit.obj
 0002:00014424       ??_C@_0N@OMEOOGFP@i4?5c?5?$CD6b4924?$AA@ 1001c424     bncs_cc02_edit.obj
 0002:00014438       ??_C@_0CLD@IDFMCHKF@Qt?4?$CD?4?$CD?4?$CD?4?$CD?4?$CD?4?$CD?4?$CD?4?$CD?4?$CD?4?$CD?4?$CD?4?$CD?4?$CD?4?$CD?4?$CD@ 1001c438     bncs_cc02_edit.obj
 0002:000146ec       ??_C@_0N@CCIDIBLE@o?4?5c?5?$CD6b5d4f?$AA@ 1001c6ec     bncs_cc02_edit.obj
 0002:00014700       ??_C@_0CLD@JCPGIJHI@Qt?4?$CD?4?$CD?4?$CD?4?$CD?4?$CD?4?$CD?4?$CD?4?$CD?4?$CD?4?$CD?4?$CD?4?$CD?4?$CD?4?$CD?4?$CD@ 1001c700     bncs_cc02_edit.obj
 0002:000149b4       ??_C@_0N@DKHICGHM@sj?5c?5?$CD6b6b6b?$AA@ 1001c9b4     bncs_cc02_edit.obj
 0002:000149c8       ??_C@_0CLD@JILFJAKP@Qt?4?$CD?4?$CD?4?$CD?4?$CD?4?$CD?4?$CD?4?$CD?4?$CD?4?$CD?4?$CD?4?$CD?4?$CD?4?$CD?4?$CD?4?$CD@ 1001c9c8     bncs_cc02_edit.obj
 0002:00014c7c       ??_C@_0N@BPHNHODA@g9?5c?5?$CD6b8498?$AA@ 1001cc7c     bncs_cc02_edit.obj
 0002:00014c90       ??_C@_0CLD@NDLEKBCD@Qt?4?$CD?4?$CD?4?$CD?4?$CD?4?$CD?4?$CD?4?$CD?4?$CD?4?$CD?4?$CD?4?$CD?4?$CD?4?$CD?4?$CD?4?$CD@ 1001cc90     bncs_cc02_edit.obj
 0002:00014f44       ??_C@_0N@JFNJDENE@cU?5c?5?$CD6b90b5?$AA@ 1001cf44     bncs_cc02_edit.obj
 0002:00014f58       ??_C@_0CLD@GPDEFCE@Qt?4?$CD?4?$CD?4?$CD?4?$CD?4?$CD?4?$CD?4?$CD?4?$CD?4?$CD?4?$CD?4?$CD?4?$CD?4?$CD?4?$CD?4?$CD@ 1001cf58     bncs_cc02_edit.obj
 0002:0001520c       ??_C@_0N@KGKFOEK@p8?5c?5?$CD6b93b7?$AA@ 1001d20c     bncs_cc02_edit.obj
 0002:00015220       ??_C@_0CLD@MCFOACOK@Qt?4?$CD?4?$CD?4?$CD?4?$CD?4?$CD?4?$CD?4?$CD?4?$CD?4?$CD?4?$CD?4?$CD?4?$CD?4?$CD?4?$CD?4?$CD@ 1001d220     bncs_cc02_edit.obj
 0002:000154d4       ??_C@_0N@IFCCPKOA@?4n?5c?5?$CD6c462b?$AA@ 1001d4d4     bncs_cc02_edit.obj
 0002:000154e8       ??_C@_0CLD@MMEPPFFD@Qt?4?$CD?4?$CD?4?$CD?4?$CD?4?$CD?4?$CD?4?$CD?4?$CD?4?$CD?4?$CD?4?$CD?4?$CD?4?$CD?4?$CD?4?$CD@ 1001d4e8     bncs_cc02_edit.obj
 0002:0001579c       ??_C@_0N@LPOOOMFJ@gf?5c?5?$CD6c5f55?$AA@ 1001d79c     bncs_cc02_edit.obj
 0002:000157b0       ??_C@_0CLD@PNCGGKH@Qt?4?$CD?4?$CD?4?$CD?4?$CD?4?$CD?4?$CD?4?$CD?4?$CD?4?$CD?4?$CD?4?$CD?4?$CD?4?$CD?4?$CD?4?$CD@ 1001d7b0     bncs_cc02_edit.obj
 0002:00015a64       ??_C@_0N@IHPGMBMH@k6?5c?5?$CD6c6c6c?$AA@ 1001da64     bncs_cc02_edit.obj
 0002:00015a78       ??_C@_0CLD@BIINNFDO@Qt?4?$CD?4?$CD?4?$CD?4?$CD?4?$CD?4?$CD?4?$CD?4?$CD?4?$CD?4?$CD?4?$CD?4?$CD?4?$CD?4?$CD?4?$CD@ 1001da78     bncs_cc02_edit.obj
 0002:00015d2c       ??_C@_0N@HEGEFGNH@wN?5c?5?$CD6c85a6?$AA@ 1001dd2c     bncs_cc02_edit.obj
 0002:00015d40       ??_C@_0CLD@CJNNAJBM@Qt?4?$CD?4?$CD?4?$CD?4?$CD?4?$CD?4?$CD?4?$CD?4?$CD?4?$CD?4?$CD?4?$CD?4?$CD?4?$CD?4?$CD?4?$CD@ 1001dd40     bncs_cc02_edit.obj
 0002:00015ff4       ??_C@_0N@GACMDMJF@y0?5c?5?$CD6c90b5?$AA@ 1001dff4     bncs_cc02_edit.obj
 0002:00016008       ??_C@_0CLD@EPPFGJBN@Qt?4?$CD?4?$CD?4?$CD?4?$CD?4?$CD?4?$CD?4?$CD?4?$CD?4?$CD?4?$CD?4?$CD?4?$CD?4?$CD?4?$CD?4?$CD@ 1001e008     bncs_cc02_edit.obj
 0002:000162bc       ??_C@_0N@PFEDBCF@sP?5c?5?$CD6d5b49?$AA@ 1001e2bc     bncs_cc02_edit.obj
 0002:000162d0       ??_C@_0CLD@MPENEADD@Qt?4?$CD?4?$CD?4?$CD?4?$CD?4?$CD?4?$CD?4?$CD?4?$CD?4?$CD?4?$CD?4?$CD?4?$CD?4?$CD?4?$CD?4?$CD@ 1001e2d0     bncs_cc02_edit.obj
 0002:00016584       ??_C@_0N@BPGLFLFL@tB?5c?5?$CD6d6259?$AA@ 1001e584     bncs_cc02_edit.obj
 0002:00016598       ??_C@_0CLD@PBPLDHLE@Qt?4?$CD?4?$CD?4?$CD?4?$CD?4?$CD?4?$CD?4?$CD?4?$CD?4?$CD?4?$CD?4?$CD?4?$CD?4?$CD?4?$CD?4?$CD@ 1001e598     bncs_cc02_edit.obj
 0002:0001684c       ??_C@_0N@DHMDAGDO@kM?5c?5?$CD6d6b69?$AA@ 1001e84c     bncs_cc02_edit.obj
 0002:00016860       ??_C@_0CLD@NPMAFAGI@Qt?4?$CD?4?$CD?4?$CD?4?$CD?4?$CD?4?$CD?4?$CD?4?$CD?4?$CD?4?$CD?4?$CD?4?$CD?4?$CD?4?$CD?4?$CD@ 1001e860     bncs_cc02_edit.obj
 0002:00016b14       ??_C@_0N@NAPPPIED@kA?5c?5?$CD6d6b72?$AA@ 1001eb14     bncs_cc02_edit.obj
 0002:00016b28       ??_C@_0CLD@HILOIHKM@Qt?4?$CD?4?$CD?4?$CD?4?$CD?4?$CD?4?$CD?4?$CD?4?$CD?4?$CD?4?$CD?4?$CD?4?$CD?4?$CD?4?$CD?4?$CD@ 1001eb28     bncs_cc02_edit.obj
 0002:00016ddc       ??_C@_0N@OAKFJPOB@ks?5c?5?$CD6d6d6d?$AA@ 1001eddc     bncs_cc02_edit.obj
 0002:00016df0       ??_C@_0CLD@MPGPJMKD@Qt?4?$CD?4?$CD?4?$CD?4?$CD?4?$CD?4?$CD?4?$CD?4?$CD?4?$CD?4?$CD?4?$CD?4?$CD?4?$CD?4?$CD?4?$CD@ 1001edf0     bncs_cc02_edit.obj
 0002:000170a4       ??_C@_0N@NPGLJCLB@my?5c?5?$CD6d6f70?$AA@ 1001f0a4     bncs_cc02_edit.obj
 0002:000170b8       ??_C@_0CLD@EMMOPGCL@Qt?4?$CD?4?$CD?4?$CD?4?$CD?4?$CD?4?$CD?4?$CD?4?$CD?4?$CD?4?$CD?4?$CD?4?$CD?4?$CD?4?$CD?4?$CD@ 1001f0b8     bncs_cc02_edit.obj
 0002:0001736c       ??_C@_0N@KDJLILEC@il?5c?5?$CD6e5c4c?$AA@ 1001f36c     bncs_cc02_edit.obj
 0002:00017380       ??_C@_0CLD@CDDJKPML@Qt?4?$CD?4?$CD?4?$CD?4?$CD?4?$CD?4?$CD?4?$CD?4?$CD?4?$CD?4?$CD?4?$CD?4?$CD?4?$CD?4?$CD?4?$CD@ 1001f380     bncs_cc02_edit.obj
 0002:00017634       ??_C@_0N@JPCFCALP@mU?5c?5?$CD6e6259?$AA@ 1001f634     bncs_cc02_edit.obj
 0002:00017648       ??_C@_0CLD@JHLAMKMH@Qt?4?$CD?4?$CD?4?$CD?4?$CD?4?$CD?4?$CD?4?$CD?4?$CD?4?$CD?4?$CD?4?$CD?4?$CD?4?$CD?4?$CD?4?$CD@ 1001f648     bncs_cc02_edit.obj
 0002:000178fc       ??_C@_0N@MGLCJNHH@s5?5c?5?$CD6e6356?$AA@ 1001f8fc     bncs_cc02_edit.obj
 0002:00017910       ??_C@_0CLD@LCKJPJGM@Qt?4?$CD?4?$CD?4?$CD?4?$CD?4?$CD?4?$CD?4?$CD?4?$CD?4?$CD?4?$CD?4?$CD?4?$CD?4?$CD?4?$CD?4?$CD@ 1001f910     bncs_cc02_edit.obj
 0002:00017bc4       ??_C@_0N@ELKDEPBA@mv?5c?5?$CD6e6b6a?$AA@ 1001fbc4     bncs_cc02_edit.obj
 0002:00017bd8       ??_C@_0CLD@IICKNAEO@Qt?4?$CD?4?$CD?4?$CD?4?$CD?4?$CD?4?$CD?4?$CD?4?$CD?4?$CD?4?$CD?4?$CD?4?$CD?4?$CD?4?$CD?4?$CD@ 1001fbd8     bncs_cc02_edit.obj
 0002:00017e8c       ??_C@_0N@IBHDFBDF@sm?5c?5?$CD6e6e6e?$AA@ 1001fe8c     bncs_cc02_edit.obj
 0002:00017ea0       ??_C@_0CLD@DCGGMADC@Qt?4?$CD?4?$CD?4?$CD?4?$CD?4?$CD?4?$CD?4?$CD?4?$CD?4?$CD?4?$CD?4?$CD?4?$CD?4?$CD?4?$CD?4?$CD@ 1001fea0     bncs_cc02_edit.obj
 0002:00018154       ??_C@_0N@CKHNJPCH@kt?5c?5?$CD6e6f70?$AA@ 10020154     bncs_cc02_edit.obj
 0002:00018168       ??_C@_0CLD@HDLMICHK@Qt?4?$CD?4?$CD?4?$CD?4?$CD?4?$CD?4?$CD?4?$CD?4?$CD?4?$CD?4?$CD?4?$CD?4?$CD?4?$CD?4?$CD?4?$CD@ 10020168     bncs_cc02_edit.obj
 0002:0001841c       ??_C@_0N@ILGNBEMM@e1?5c?5?$CD6f4d2a?$AA@ 1002041c     bncs_cc02_edit.obj
 0002:00018430       ??_C@_0CLD@BNGJBKKG@Qt?4?$CD?4?$CD?4?$CD?4?$CD?4?$CD?4?$CD?4?$CD?4?$CD?4?$CD?4?$CD?4?$CD?4?$CD?4?$CD?4?$CD?4?$CD@ 10020430     bncs_cc02_edit.obj
 0002:000186e4       ??_C@_0N@EJOBANEG@sn?5c?5?$CD6f6f6f?$AA@ 100206e4     bncs_cc02_edit.obj
 0002:000186f8       ??_C@_0CLD@ODGBGDEE@Qt?4?$CD?4?$CD?4?$CD?4?$CD?4?$CD?4?$CD?4?$CD?4?$CD?4?$CD?4?$CD?4?$CD?4?$CD?4?$CD?4?$CD?4?$CD@ 100206f8     bncs_cc02_edit.obj
 0002:000189ac       ??_C@_0N@MODGDIPM@uS?5c?5?$CD6f7173?$AA@ 100209ac     bncs_cc02_edit.obj
 0002:000189c0       ??_C@_0CLD@ECKLEJKK@Qt?4?$CD?4?$CD?4?$CD?4?$CD?4?$CD?4?$CD?4?$CD?4?$CD?4?$CD?4?$CD?4?$CD?4?$CD?4?$CD?4?$CD?4?$CD@ 100209c0     bncs_cc02_edit.obj
 0002:00018c74       ??_C@_0N@KIEINDCK@l?4?5c?5?$CD6f8ca7?$AA@ 10020c74     bncs_cc02_edit.obj
 0002:00018c88       ??_C@_0CLD@EPKKKMIN@Qt?4?$CD?4?$CD?4?$CD?4?$CD?4?$CD?4?$CD?4?$CD?4?$CD?4?$CD?4?$CD?4?$CD?4?$CD?4?$CD?4?$CD?4?$CD@ 10020c88     bncs_cc02_edit.obj
 0002:00018f3c       ??_C@_0N@KFLIBFIM@m3?5c?5?$CD6f94b4?$AA@ 10020f3c     bncs_cc02_edit.obj
 0002:00018f50       ??_C@_0CLD@EMKCAKOK@Qt?4?$CD?4?$CD?4?$CD?4?$CD?4?$CD?4?$CD?4?$CD?4?$CD?4?$CD?4?$CD?4?$CD?4?$CD?4?$CD?4?$CD?4?$CD@ 10020f50     bncs_cc02_edit.obj
 0002:00019204       ??_C@_0N@KEFMPCKI@xK?5c?5?$CD6f95b6?$AA@ 10021204     bncs_cc02_edit.obj
 0002:00019218       ??_C@_0CLD@JLKKFGEK@Qt?4?$CD?4?$CD?4?$CD?4?$CD?4?$CD?4?$CD?4?$CD?4?$CD?4?$CD?4?$CD?4?$CD?4?$CD?4?$CD?4?$CD?4?$CD@ 10021218     bncs_cc02_edit.obj
 0002:000194cc       ??_C@_0N@KOBADLKJ@cc?5c?5?$CD705435?$AA@ 100214cc     bncs_cc02_edit.obj
 0002:000194e0       ??_C@_0CLD@KOABDOHG@Qt?4?$CD?4?$CD?4?$CD?4?$CD?4?$CD?4?$CD?4?$CD?4?$CD?4?$CD?4?$CD?4?$CD?4?$CD?4?$CD?4?$CD?4?$CD@ 100214e0     bncs_cc02_edit.obj
 0002:00019794       ??_C@_0N@DJFOFHLN@ku?5c?5?$CD706a5f?$AA@ 10021794     bncs_cc02_edit.obj
 0002:000197a8       ??_C@_0CLD@NNKCOANB@Qt?4?$CD?4?$CD?4?$CD?4?$CD?4?$CD?4?$CD?4?$CD?4?$CD?4?$CD?4?$CD?4?$CD?4?$CD?4?$CD?4?$CD?4?$CD@ 100217a8     bncs_cc02_edit.obj
 0002:00019a5c       ??_C@_0N@JOHNMHMJ@kU?5c?5?$CD706e6d?$AA@ 10021a5c     bncs_cc02_edit.obj
 0002:00019a70       ??_C@_0CLD@JMPEFLJD@Qt?4?$CD?4?$CD?4?$CD?4?$CD?4?$CD?4?$CD?4?$CD?4?$CD?4?$CD?4?$CD?4?$CD?4?$CD?4?$CD?4?$CD?4?$CD@ 10021a70     bncs_cc02_edit.obj
 0002:00019d24       ??_C@_0N@DBJMBJH@mK?5c?5?$CD70706e?$AA@ 10021d24     bncs_cc02_edit.obj
 0002:00019d38       ??_C@_0CLD@MLNLJKBG@Qt?4?$CD?4?$CD?4?$CD?4?$CD?4?$CD?4?$CD?4?$CD?4?$CD?4?$CD?4?$CD?4?$CD?4?$CD?4?$CD?4?$CD?4?$CD@ 10021d38     bncs_cc02_edit.obj
 0002:00019fec       ??_C@_0N@BPGLBHPE@gY?5c?5?$CD707070?$AA@ 10021fec     bncs_cc02_edit.obj
 0002:0001a000       ??_C@_0CLD@ENNAJPMO@Qt?4?$CD?4?$CD?4?$CD?4?$CD?4?$CD?4?$CD?4?$CD?4?$CD?4?$CD?4?$CD?4?$CD?4?$CD?4?$CD?4?$CD?4?$CD@ 10022000     bncs_cc02_edit.obj
 0002:0001a2b4       ??_C@_0N@MICJDHPJ@mF?5c?5?$CD707173?$AA@ 100222b4     bncs_cc02_edit.obj
 0002:0001a2c8       ??_C@_0CLD@BDHCEGND@Qt?4?$CD?4?$CD?4?$CD?4?$CD?4?$CD?4?$CD?4?$CD?4?$CD?4?$CD?4?$CD?4?$CD?4?$CD?4?$CD?4?$CD?4?$CD@ 100222c8     bncs_cc02_edit.obj
 0002:0001a57c       ??_C@_0N@JGLLPLJM@w5?5c?5?$CD714d2d?$AA@ 1002257c     bncs_cc02_edit.obj
 0002:0001a590       ??_C@_0CLD@PNHGEOEN@Qt?4?$CD?4?$CD?4?$CD?4?$CD?4?$CD?4?$CD?4?$CD?4?$CD?4?$CD?4?$CD?4?$CD?4?$CD?4?$CD?4?$CD?4?$CD@ 10022590     bncs_cc02_edit.obj
 0002:0001a844       ??_C@_0N@HMBPCJNB@uA?5c?5?$CD715331?$AA@ 10022844     bncs_cc02_edit.obj
 0002:0001a858       ??_C@_0CLD@DNLAGGHM@Qt?4?$CD?4?$CD?4?$CD?4?$CD?4?$CD?4?$CD?4?$CD?4?$CD?4?$CD?4?$CD?4?$CD?4?$CD?4?$CD?4?$CD?4?$CD@ 10022858     bncs_cc02_edit.obj
 0002:0001ab0c       ??_C@_0N@DCCGLILE@kr?5c?5?$CD716f6e?$AA@ 10022b0c     bncs_cc02_edit.obj
 0002:0001ab20       ??_C@_0CLD@BLMJDIHK@Qt?4?$CD?4?$CD?4?$CD?4?$CD?4?$CD?4?$CD?4?$CD?4?$CD?4?$CD?4?$CD?4?$CD?4?$CD?4?$CD?4?$CD?4?$CD@ 10022b20     bncs_cc02_edit.obj
 0002:0001add4       ??_C@_0N@CAGAPNFL@mz?5c?5?$CD717171?$AA@ 10022dd4     bncs_cc02_edit.obj
 0002:0001ade8       ??_C@_0CLD@HABHLHBB@Qt?4?$CD?4?$CD?4?$CD?4?$CD?4?$CD?4?$CD?4?$CD?4?$CD?4?$CD?4?$CD?4?$CD?4?$CD?4?$CD?4?$CD?4?$CD@ 10022de8     bncs_cc02_edit.obj
 0002:0001b09c       ??_C@_0N@JHLCADP@bP?5c?5?$CD7190bb?$AA@ 1002309c     bncs_cc02_edit.obj
 0002:0001b0b0       ??_C@_0CLD@LIOFEHCD@Qt?4?$CD?4?$CD?4?$CD?4?$CD?4?$CD?4?$CD?4?$CD?4?$CD?4?$CD?4?$CD?4?$CD?4?$CD?4?$CD?4?$CD?4?$CD@ 100230b0     bncs_cc02_edit.obj
 0002:0001b364       ??_C@_0N@KFNFLDOD@zq?5c?5?$CD72512d?$AA@ 10023364     bncs_cc02_edit.obj
 0002:0001b378       ??_C@_0CLD@BGJBFEKP@Qt?4?$CD?4?$CD?4?$CD?4?$CD?4?$CD?4?$CD?4?$CD?4?$CD?4?$CD?4?$CD?4?$CD?4?$CD?4?$CD?4?$CD?4?$CD@ 10023378     bncs_cc02_edit.obj
 0002:0001b62c       ??_C@_0N@IINOEFAI@iP?5c?5?$CD725840?$AA@ 1002362c     bncs_cc02_edit.obj
 0002:0001b640       ??_C@_0CLD@BIFIPAOI@Qt?4?$CD?4?$CD?4?$CD?4?$CD?4?$CD?4?$CD?4?$CD?4?$CD?4?$CD?4?$CD?4?$CD?4?$CD?4?$CD?4?$CD?4?$CD@ 10023640     bncs_cc02_edit.obj
 0002:0001b8f4       ??_C@_0N@COJGLIDO@d2?5c?5?$CD727272?$AA@ 100238f4     bncs_cc02_edit.obj
 0002:0001b908       ??_C@_0CLD@DEHOKCIP@Qt?4?$CD?4?$CD?4?$CD?4?$CD?4?$CD?4?$CD?4?$CD?4?$CD?4?$CD?4?$CD?4?$CD?4?$CD?4?$CD?4?$CD?4?$CD@ 10023908     bncs_cc02_edit.obj
 0002:0001bbbc       ??_C@_0N@NFEPMLNO@kV?5c?5?$CD727375?$AA@ 10023bbc     bncs_cc02_edit.obj
 0002:0001bbd0       ??_C@_0CLD@KKCNEMOM@Qt?4?$CD?4?$CD?4?$CD?4?$CD?4?$CD?4?$CD?4?$CD?4?$CD?4?$CD?4?$CD?4?$CD?4?$CD?4?$CD?4?$CD?4?$CD@ 10023bd0     bncs_cc02_edit.obj
 0002:0001be84       ??_C@_0N@NBNMHOAC@nK?5c?5?$CD72828e?$AA@ 10023e84     bncs_cc02_edit.obj
 0002:0001be98       ??_C@_0CLD@HEEICNJP@Qt?4?$CD?4?$CD?4?$CD?4?$CD?4?$CD?4?$CD?4?$CD?4?$CD?4?$CD?4?$CD?4?$CD?4?$CD?4?$CD?4?$CD?4?$CD@ 10023e98     bncs_cc02_edit.obj
 0002:0001c14c       ??_C@_0N@HJMOOGHD@jA?5c?5?$CD7292b1?$AA@ 1002414c     bncs_cc02_edit.obj
 0002:0001c160       ??_C@_0CLD@IMJPPHDC@Qt?4?$CD?4?$CD?4?$CD?4?$CD?4?$CD?4?$CD?4?$CD?4?$CD?4?$CD?4?$CD?4?$CD?4?$CD?4?$CD?4?$CD?4?$CD@ 10024160     bncs_cc02_edit.obj
 0002:0001c414       ??_C@_0N@LJGMHGBL@qZ?5c?5?$CD7293b7?$AA@ 10024414     bncs_cc02_edit.obj
 0002:0001c428       ??_C@_0CLD@GCIFBEIL@Qt?4?$CD?4?$CD?4?$CD?4?$CD?4?$CD?4?$CD?4?$CD?4?$CD?4?$CD?4?$CD?4?$CD?4?$CD?4?$CD?4?$CD?4?$CD@ 10024428     bncs_cc02_edit.obj
 0002:0001c6dc       ??_C@_0N@KNAAGMKN@dp?5c?5?$CD734f2a?$AA@ 100246dc     bncs_cc02_edit.obj
 0002:0001c6f0       ??_C@_0CLD@OFGDMNMA@Qt?4?$CD?4?$CD?4?$CD?4?$CD?4?$CD?4?$CD?4?$CD?4?$CD?4?$CD?4?$CD?4?$CD?4?$CD?4?$CD?4?$CD?4?$CD@ 100246f0     bncs_cc02_edit.obj
 0002:0001c9a4       ??_C@_0N@BIJDBHAH@nf?5c?5?$CD736459?$AA@ 100249a4     bncs_cc02_edit.obj
 0002:0001c9b8       ??_C@_0CLD@ELHHIONP@Qt?4?$CD?4?$CD?4?$CD?4?$CD?4?$CD?4?$CD?4?$CD?4?$CD?4?$CD?4?$CD?4?$CD?4?$CD?4?$CD?4?$CD?4?$CD@ 100249b8     bncs_cc02_edit.obj
 0002:0001cc6c       ??_C@_0N@FIGPLOGM@kQ?5c?5?$CD736566?$AA@ 10024c6c     bncs_cc02_edit.obj
 0002:0001cc80       ??_C@_0CLD@CNKOFIKG@Qt?4?$CD?4?$CD?4?$CD?4?$CD?4?$CD?4?$CD?4?$CD?4?$CD?4?$CD?4?$CD?4?$CD?4?$CD?4?$CD?4?$CD?4?$CD@ 10024c80     bncs_cc02_edit.obj
 0002:0001cf34       ??_C@_0N@NADIENAJ@iG?5c?5?$CD736a61?$AA@ 10024f34     bncs_cc02_edit.obj
 0002:0001cf48       ??_C@_0CLD@FKIKCKPN@Qt?4?$CD?4?$CD?4?$CD?4?$CD?4?$CD?4?$CD?4?$CD?4?$CD?4?$CD?4?$CD?4?$CD?4?$CD?4?$CD?4?$CD?4?$CD@ 10024f48     bncs_cc02_edit.obj
 0002:0001d1fc       ??_C@_0N@OMILNIJM@pp?5c?5?$CD737373?$AA@ 100251fc     bncs_cc02_edit.obj
 0002:0001d210       ??_C@_0CLD@EPMDCNEO@Qt?4?$CD?4?$CD?4?$CD?4?$CD?4?$CD?4?$CD?4?$CD?4?$CD?4?$CD?4?$CD?4?$CD?4?$CD?4?$CD?4?$CD?4?$CD@ 10025210     bncs_cc02_edit.obj
 0002:0001d4c4       ??_C@_0N@EFAJIIJN@kR?5c?5?$CD737570?$AA@ 100254c4     bncs_cc02_edit.obj
 0002:0001d4d8       ??_C@_0CLD@JFJKAJMC@Qt?4?$CD?4?$CD?4?$CD?4?$CD?4?$CD?4?$CD?4?$CD?4?$CD?4?$CD?4?$CD?4?$CD?4?$CD?4?$CD?4?$CD?4?$CD@ 100254d8     bncs_cc02_edit.obj
 0002:0001d78c       ??_C@_0N@FEOOMHN@rP?5c?5?$CD7390b5?$AA@ 1002578c     bncs_cc02_edit.obj
 0002:0001d7a0       ??_C@_0CLD@JPIOIFDL@Qt?4?$CD?4?$CD?4?$CD?4?$CD?4?$CD?4?$CD?4?$CD?4?$CD?4?$CD?4?$CD?4?$CD?4?$CD?4?$CD?4?$CD?4?$CD@ 100257a0     bncs_cc02_edit.obj
 0002:0001da54       ??_C@_0N@KMKCMLLL@uh?5c?5?$CD745633?$AA@ 10025a54     bncs_cc02_edit.obj
 0002:0001da68       ??_C@_0CLD@IFJIKDPI@Qt?4?$CD?4?$CD?4?$CD?4?$CD?4?$CD?4?$CD?4?$CD?4?$CD?4?$CD?4?$CD?4?$CD?4?$CD?4?$CD?4?$CD?4?$CD@ 10025a68     bncs_cc02_edit.obj
 0002:0001dd1c       ??_C@_0N@HKKKMOAF@mb?5c?5?$CD746a5f?$AA@ 10025d1c     bncs_cc02_edit.obj
 0002:0001dd30       ??_C@_0CLD@PMIPKBFP@Qt?4?$CD?4?$CD?4?$CD?4?$CD?4?$CD?4?$CD?4?$CD?4?$CD?4?$CD?4?$CD?4?$CD?4?$CD?4?$CD?4?$CD?4?$CD@ 10025d30     bncs_cc02_edit.obj
 0002:0001dfe4       ??_C@_0N@HBOPIPHE@sv?5c?5?$CD747474?$AA@ 10025fe4     bncs_cc02_edit.obj
 0002:0001dff8       ??_C@_0CLD@NBDMJANG@Qt?4?$CD?4?$CD?4?$CD?4?$CD?4?$CD?4?$CD?4?$CD?4?$CD?4?$CD?4?$CD?4?$CD?4?$CD?4?$CD?4?$CD?4?$CD@ 10025ff8     bncs_cc02_edit.obj
 0002:0001e2ac       ??_C@_0N@DNNGEKIB@kw?5c?5?$CD747777?$AA@ 100262ac     bncs_cc02_edit.obj
 0002:0001e2c0       ??_C@_0CLD@FLHIMFGE@Qt?4?$CD?4?$CD?4?$CD?4?$CD?4?$CD?4?$CD?4?$CD?4?$CD?4?$CD?4?$CD?4?$CD?4?$CD?4?$CD?4?$CD?4?$CD@ 100262c0     bncs_cc02_edit.obj
 0002:0001e574       ??_C@_0N@JPABEOKF@?$CDf?5c?5?$CD747d87?$AA@ 10026574     bncs_cc02_edit.obj
 0002:0001e588       ??_C@_0CLD@IAFHDEGD@Qt?4?$CD?4?$CD?4?$CD?4?$CD?4?$CD?4?$CD?4?$CD?4?$CD?4?$CD?4?$CD?4?$CD?4?$CD?4?$CD?4?$CD?4?$CD@ 10026588     bncs_cc02_edit.obj
 0002:0001e83c       ??_C@_0N@FDABJEDH@sH?5c?5?$CD747f89?$AA@ 1002683c     bncs_cc02_edit.obj
 0002:0001e850       ??_C@_0CLD@NGPOCIJF@Qt?4?$CD?4?$CD?4?$CD?4?$CD?4?$CD?4?$CD?4?$CD?4?$CD?4?$CD?4?$CD?4?$CD?4?$CD?4?$CD?4?$CD?4?$CD@ 10026850     bncs_cc02_edit.obj
 0002:0001eb04       ??_C@_0N@FIFBCNLG@u5?5c?5?$CD748a9d?$AA@ 10026b04     bncs_cc02_edit.obj
 0002:0001eb18       ??_C@_0CLD@MPHNOCOE@Qt?4?$CD?4?$CD?4?$CD?4?$CD?4?$CD?4?$CD?4?$CD?4?$CD?4?$CD?4?$CD?4?$CD?4?$CD?4?$CD?4?$CD?4?$CD@ 10026b18     bncs_cc02_edit.obj
 0002:0001edcc       ??_C@_0N@GNEMJCNI@dN?5c?5?$CD7497b4?$AA@ 10026dcc     bncs_cc02_edit.obj
 0002:0001ede0       ??_C@_0CLD@JCGDPLDA@Qt?4?$CD?4?$CD?4?$CD?4?$CD?4?$CD?4?$CD?4?$CD?4?$CD?4?$CD?4?$CD?4?$CD?4?$CD?4?$CD?4?$CD?4?$CD@ 10026de0     bncs_cc02_edit.obj
 0002:0001f094       ??_C@_0N@DIDDJIGK@xf?5c?5?$CD75532f?$AA@ 10027094     bncs_cc02_edit.obj
 0002:0001f0a8       ??_C@_0CLD@EPDNHLEP@Qt?4?$CD?4?$CD?4?$CD?4?$CD?4?$CD?4?$CD?4?$CD?4?$CD?4?$CD?4?$CD?4?$CD?4?$CD?4?$CD?4?$CD?4?$CD@ 100270a8     bncs_cc02_edit.obj
 0002:0001f35c       ??_C@_0N@NECCBONM@u4?5c?5?$CD755e45?$AA@ 1002735c     bncs_cc02_edit.obj
 0002:0001f370       ??_C@_0CLD@NLOIIPLI@Qt?4?$CD?4?$CD?4?$CD?4?$CD?4?$CD?4?$CD?4?$CD?4?$CD?4?$CD?4?$CD?4?$CD?4?$CD?4?$CD?4?$CD?4?$CD@ 10027370     bncs_cc02_edit.obj
 0002:0001f624       ??_C@_0N@BIBCDBIK@sr?5c?5?$CD757575?$AA@ 10027624     bncs_cc02_edit.obj
 0002:0001f638       ??_C@_0CLD@OJFOKHPH@Qt?4?$CD?4?$CD?4?$CD?4?$CD?4?$CD?4?$CD?4?$CD?4?$CD?4?$CD?4?$CD?4?$CD?4?$CD?4?$CD?4?$CD?4?$CD@ 10027638     bncs_cc02_edit.obj
 0002:0001f8ec       ??_C@_0N@FLDLENOL@u8?5c?5?$CD757676?$AA@ 100278ec     bncs_cc02_edit.obj
 0002:0001f900       ??_C@_0CLD@HEKINHGK@Qt?4?$CD?4?$CD?4?$CD?4?$CD?4?$CD?4?$CD?4?$CD?4?$CD?4?$CD?4?$CD?4?$CD?4?$CD?4?$CD?4?$CD?4?$CD@ 10027900     bncs_cc02_edit.obj
 0002:0001fbb4       ??_C@_0N@FEPLGLFJ@c8?5c?5?$CD7594b2?$AA@ 10027bb4     bncs_cc02_edit.obj
 0002:0001fbc8       ??_C@_0CLD@ILAMPEKJ@Qt?4?$CD?4?$CD?4?$CD?4?$CD?4?$CD?4?$CD?4?$CD?4?$CD?4?$CD?4?$CD?4?$CD?4?$CD?4?$CD?4?$CD?4?$CD@ 10027bc8     bncs_cc02_edit.obj
 0002:0001fe7c       ??_C@_0N@HBENJHKO@lS?5c?5?$CD76562f?$AA@ 10027e7c     bncs_cc02_edit.obj
 0002:0001fe90       ??_C@_0CLD@ICGJFJNM@Qt?4?$CD?4?$CD?4?$CD?4?$CD?4?$CD?4?$CD?4?$CD?4?$CD?4?$CD?4?$CD?4?$CD?4?$CD?4?$CD?4?$CD?4?$CD@ 10027e90     bncs_cc02_edit.obj
 0002:00020144       ??_C@_0N@HCOIGCMH@fj?5c?5?$CD766e5e?$AA@ 10028144     bncs_cc02_edit.obj
 0002:00020158       ??_C@_0CLD@PMLAIPFN@Qt?4?$CD?4?$CD?4?$CD?4?$CD?4?$CD?4?$CD?4?$CD?4?$CD?4?$CD?4?$CD?4?$CD?4?$CD?4?$CD?4?$CD?4?$CD@ 10028158     bncs_cc02_edit.obj
 0002:0002040c       ??_C@_0N@JDGNHMHN@uR?5c?5?$CD76736f?$AA@ 1002840c     bncs_cc02_edit.obj
 0002:00020420       ??_C@_0CLD@DIMDIPAD@Qt?4?$CD?4?$CD?4?$CD?4?$CD?4?$CD?4?$CD?4?$CD?4?$CD?4?$CD?4?$CD?4?$CD?4?$CD?4?$CD?4?$CD?4?$CD@ 10028420     bncs_cc02_edit.obj
 0002:000206d4       ??_C@_0N@GGIJLOEG@u9?5c?5?$CD767574?$AA@ 100286d4     bncs_cc02_edit.obj
 0002:000206e8       ??_C@_0CLD@GHKINMHE@Qt?4?$CD?4?$CD?4?$CD?4?$CD?4?$CD?4?$CD?4?$CD?4?$CD?4?$CD?4?$CD?4?$CD?4?$CD?4?$CD?4?$CD?4?$CD@ 100286e8     bncs_cc02_edit.obj
 0002:0002099c       ??_C@_0N@ECDHIBOL@sl?5c?5?$CD767676?$AA@ 1002899c     bncs_cc02_edit.obj
 0002:000209b0       ??_C@_0CLD@CLGHDCFM@Qt?4?$CD?4?$CD?4?$CD?4?$CD?4?$CD?4?$CD?4?$CD?4?$CD?4?$CD?4?$CD?4?$CD?4?$CD?4?$CD?4?$CD?4?$CD@ 100289b0     bncs_cc02_edit.obj
 0002:00020c64       ??_C@_0N@KONOCMBA@cX?5c?5?$CD767a77?$AA@ 10028c64     bncs_cc02_edit.obj
 0002:00020c78       ??_C@_0CLD@JCNNKDJC@Qt?4?$CD?4?$CD?4?$CD?4?$CD?4?$CD?4?$CD?4?$CD?4?$CD?4?$CD?4?$CD?4?$CD?4?$CD?4?$CD?4?$CD?4?$CD@ 10028c78     bncs_cc02_edit.obj
 0002:00020f2c       ??_C@_0N@MBDLGELJ@e4?5c?5?$CD7692aa?$AA@ 10028f2c     bncs_cc02_edit.obj
 0002:00020f40       ??_C@_0CLD@GDAPMLFP@Qt?4?$CD?4?$CD?4?$CD?4?$CD?4?$CD?4?$CD?4?$CD?4?$CD?4?$CD?4?$CD?4?$CD?4?$CD?4?$CD?4?$CD?4?$CD@ 10028f40     bncs_cc02_edit.obj
 0002:000211f4       ??_C@_0N@PKLHOFCE@bl?5c?5?$CD776046?$AA@ 100291f4     bncs_cc02_edit.obj
 0002:00021208       ??_C@_0CLD@DLKKOPOI@Qt?4?$CD?4?$CD?4?$CD?4?$CD?4?$CD?4?$CD?4?$CD?4?$CD?4?$CD?4?$CD?4?$CD?4?$CD?4?$CD?4?$CD?4?$CD@ 10029208     bncs_cc02_edit.obj
 0002:000214bc       ??_C@_0N@ODIPIMNB@cu?5c?5?$CD776f5f?$AA@ 100294bc     bncs_cc02_edit.obj
 0002:000214d0       ??_C@_0CLD@DDJNHGC@Qt?4?$CD?4?$CD?4?$CD?4?$CD?4?$CD?4?$CD?4?$CD?4?$CD?4?$CD?4?$CD?4?$CD?4?$CD?4?$CD?4?$CD?4?$CD@ 100294d0     bncs_cc02_edit.obj
 0002:00021784       ??_C@_0N@LBEBNDNG@?$CDP?5c?5?$CD777574?$AA@ 10029784     bncs_cc02_edit.obj
 0002:00021798       ??_C@_0CLD@CDAIDGEL@Qt?4?$CD?4?$CD?4?$CD?4?$CD?4?$CD?4?$CD?4?$CD?4?$CD?4?$CD?4?$CD?4?$CD?4?$CD?4?$CD?4?$CD?4?$CD@ 10029798     bncs_cc02_edit.obj
 0002:00021a4c       ??_C@_0N@EOGOKFPM@kH?5c?5?$CD777674?$AA@ 10029a4c     bncs_cc02_edit.obj
 0002:00021a60       ??_C@_0CLD@CDMEDFMA@Qt?4?$CD?4?$CD?4?$CD?4?$CD?4?$CD?4?$CD?4?$CD?4?$CD?4?$CD?4?$CD?4?$CD?4?$CD?4?$CD?4?$CD?4?$CD@ 10029a60     bncs_cc02_edit.obj
 0002:00021d14       ??_C@_0N@OHPNILBB@kI?5c?5?$CD777676?$AA@ 10029d14     bncs_cc02_edit.obj
 0002:00021d28       ??_C@_0CLD@MHHPBMC@Qt?4?$CD?4?$CD?4?$CD?4?$CD?4?$CD?4?$CD?4?$CD?4?$CD?4?$CD?4?$CD?4?$CD?4?$CD?4?$CD?4?$CD?4?$CD@ 10029d28     bncs_cc02_edit.obj
 0002:00021fdc       ??_C@_0N@MNMDBPEL@gu?5c?5?$CD777777?$AA@ 10029fdc     bncs_cc02_edit.obj
 0002:00021ff0       ??_C@_0CLD@HMLAAPJP@Qt?4?$CD?4?$CD?4?$CD?4?$CD?4?$CD?4?$CD?4?$CD?4?$CD?4?$CD?4?$CD?4?$CD?4?$CD?4?$CD?4?$CD?4?$CD@ 10029ff0     bncs_cc02_edit.obj
 0002:000222a4       ??_C@_0N@PDGJKIG@kx?5c?5?$CD777879?$AA@ 1002a2a4     bncs_cc02_edit.obj
 0002:000222b8       ??_C@_0CLD@FAOHLHAF@Qt?4?$CD?4?$CD?4?$CD?4?$CD?4?$CD?4?$CD?4?$CD?4?$CD?4?$CD?4?$CD?4?$CD?4?$CD?4?$CD?4?$CD?4?$CD@ 1002a2b8     bncs_cc02_edit.obj
 0002:0002256c       ??_C@_0N@OMINPJPH@mA?5c?5?$CD77797a?$AA@ 1002a56c     bncs_cc02_edit.obj
 0002:00022580       ??_C@_0CLD@DGONMKNB@Qt?4?$CD?4?$CD?4?$CD?4?$CD?4?$CD?4?$CD?4?$CD?4?$CD?4?$CD?4?$CD?4?$CD?4?$CD?4?$CD?4?$CD?4?$CD@ 1002a580     bncs_cc02_edit.obj
 0002:00022834       ??_C@_0N@EBAKKLLP@xw?5c?5?$CD778b98?$AA@ 1002a834     bncs_cc02_edit.obj
 0002:00022848       ??_C@_0CLD@PCHKPNLJ@Qt?4?$CD?4?$CD?4?$CD?4?$CD?4?$CD?4?$CD?4?$CD?4?$CD?4?$CD?4?$CD?4?$CD?4?$CD?4?$CD?4?$CD?4?$CD@ 1002a848     bncs_cc02_edit.obj
 0002:00022afc       ??_C@_0N@FEHKKGKP@xa?5c?5?$CD78572e?$AA@ 1002aafc     bncs_cc02_edit.obj
 0002:00022b10       ??_C@_0CLD@BBHHHMEM@Qt?4?$CD?4?$CD?4?$CD?4?$CD?4?$CD?4?$CD?4?$CD?4?$CD?4?$CD?4?$CD?4?$CD?4?$CD?4?$CD?4?$CD?4?$CD@ 1002ab10     bncs_cc02_edit.obj
 0002:00022dc4       ??_C@_0N@PGGEANCJ@d0?5c?5?$CD787878?$AA@ 1002adc4     bncs_cc02_edit.obj
 0002:00022dd8       ??_C@_0CLD@FIIALOIK@Qt?4?$CD?4?$CD?4?$CD?4?$CD?4?$CD?4?$CD?4?$CD?4?$CD?4?$CD?4?$CD?4?$CD?4?$CD?4?$CD?4?$CD?4?$CD@ 1002add8     bncs_cc02_edit.obj
 0002:0002308c       ??_C@_0N@FAFPGNFC@fY?5c?5?$CD788187?$AA@ 1002b08c     bncs_cc02_edit.obj
 0002:000230a0       ??_C@_0CLD@KBFJNKKK@Qt?4?$CD?4?$CD?4?$CD?4?$CD?4?$CD?4?$CD?4?$CD?4?$CD?4?$CD?4?$CD?4?$CD?4?$CD?4?$CD?4?$CD?4?$CD@ 1002b0a0     bncs_cc02_edit.obj
 0002:00023354       ??_C@_0N@CPEOFAN@xo?5c?5?$CD788c98?$AA@ 1002b354     bncs_cc02_edit.obj
 0002:00023368       ??_C@_0CLD@HDICBEEC@Qt?4?$CD?4?$CD?4?$CD?4?$CD?4?$CD?4?$CD?4?$CD?4?$CD?4?$CD?4?$CD?4?$CD?4?$CD?4?$CD?4?$CD?4?$CD@ 1002b368     bncs_cc02_edit.obj
 0002:0002361c       ??_C@_0N@BEHKJOAE@xS?5c?5?$CD79582f?$AA@ 1002b61c     bncs_cc02_edit.obj
 0002:00023630       ??_C@_0CLD@MFAMDOMI@Qt?4?$CD?4?$CD?4?$CD?4?$CD?4?$CD?4?$CD?4?$CD?4?$CD?4?$CD?4?$CD?4?$CD?4?$CD?4?$CD?4?$CD?4?$CD@ 1002b630     bncs_cc02_edit.obj
 0002:000238e4       ??_C@_0N@IMOODJAK@mu?5c?5?$CD797876?$AA@ 1002b8e4     bncs_cc02_edit.obj
 0002:000238f8       ??_C@_0CLD@CFKGDIBA@Qt?4?$CD?4?$CD?4?$CD?4?$CD?4?$CD?4?$CD?4?$CD?4?$CD?4?$CD?4?$CD?4?$CD?4?$CD?4?$CD?4?$CD?4?$CD@ 1002b8f8     bncs_cc02_edit.obj
 0002:00023bac       ??_C@_0N@POALPGHG@gv?5c?5?$CD797979?$AA@ 1002bbac     bncs_cc02_edit.obj
 0002:00023bc0       ??_C@_0CLD@EPEKGG@Qt?4?$CD?4?$CD?4?$CD?4?$CD?4?$CD?4?$CD?4?$CD?4?$CD?4?$CD?4?$CD?4?$CD?4?$CD?4?$CD?4?$CD?4?$CD@ 1002bbc0     bncs_cc02_edit.obj
 0002:00023e74       ??_C@_0N@MMBDHLND@jq?5c?5?$CD797a7d?$AA@ 1002be74     bncs_cc02_edit.obj
 0002:00023e88       ??_C@_0CLD@JPNAOBBO@Qt?4?$CD?4?$CD?4?$CD?4?$CD?4?$CD?4?$CD?4?$CD?4?$CD?4?$CD?4?$CD?4?$CD?4?$CD?4?$CD?4?$CD?4?$CD@ 1002be88     bncs_cc02_edit.obj
 0002:0002413c       ??_C@_0N@KOAIIFAL@lw?5c?5?$CD79828a?$AA@ 1002c13c     bncs_cc02_edit.obj
 0002:00024150       ??_C@_0CLD@GPJIKJOH@Qt?4?$CD?4?$CD?4?$CD?4?$CD?4?$CD?4?$CD?4?$CD?4?$CD?4?$CD?4?$CD?4?$CD?4?$CD?4?$CD?4?$CD?4?$CD@ 1002c150     bncs_cc02_edit.obj
 0002:00024404       ??_C@_0N@ECPIIKOD@d8?5c?5?$CD7990aa?$AA@ 1002c404     bncs_cc02_edit.obj
 0002:00024418       ??_C@_0CLD@KKPBPHBJ@Qt?4?$CD?4?$CD?4?$CD?4?$CD?4?$CD?4?$CD?4?$CD?4?$CD?4?$CD?4?$CD?4?$CD?4?$CD?4?$CD?4?$CD?4?$CD@ 1002c418     bncs_cc02_edit.obj
 0002:000246cc       ??_C@_0N@OMPNCKID@yP?5c?5?$CD7997b7?$AA@ 1002c6cc     bncs_cc02_edit.obj
 0002:000246e0       ??_C@_0CLD@BPGIJACG@Qt?4?$CD?4?$CD?4?$CD?4?$CD?4?$CD?4?$CD?4?$CD?4?$CD?4?$CD?4?$CD?4?$CD?4?$CD?4?$CD?4?$CD?4?$CD@ 1002c6e0     bncs_cc02_edit.obj
 0002:00024994       ??_C@_0N@BFGECBHH@og?5c?5?$CD7a685c?$AA@ 1002c994     bncs_cc02_edit.obj
 0002:000249a8       ??_C@_0CLD@COLODLKK@Qt?4?$CD?4?$CD?4?$CD?4?$CD?4?$CD?4?$CD?4?$CD?4?$CD?4?$CD?4?$CD?4?$CD?4?$CD?4?$CD?4?$CD?4?$CD@ 1002c9a8     bncs_cc02_edit.obj
 0002:00024c5c       ??_C@_0N@LHFMAFCL@zg?5c?5?$CD7a6d61?$AA@ 1002cc5c     bncs_cc02_edit.obj
 0002:00024c70       ??_C@_0CLD@HJNMOJML@Qt?4?$CD?4?$CD?4?$CD?4?$CD?4?$CD?4?$CD?4?$CD?4?$CD?4?$CD?4?$CD?4?$CD?4?$CD?4?$CD?4?$CD?4?$CD@ 1002cc70     bncs_cc02_edit.obj
 0002:00024f24       ??_C@_0N@JLDMLOEM@d1?5c?5?$CD7a7a7a?$AA@ 1002cf24     bncs_cc02_edit.obj
 0002:00024f38       ??_C@_0CLD@FIHPBONN@Qt?4?$CD?4?$CD?4?$CD?4?$CD?4?$CD?4?$CD?4?$CD?4?$CD?4?$CD?4?$CD?4?$CD?4?$CD?4?$CD?4?$CD?4?$CD@ 1002cf38     bncs_cc02_edit.obj
 0002:000251ec       ??_C@_0N@LBCJGEKF@l9?5c?5?$CD7a8591?$AA@ 1002d1ec     bncs_cc02_edit.obj
 0002:00025200       ??_C@_0CLD@NHCHMJNO@Qt?4?$CD?4?$CD?4?$CD?4?$CD?4?$CD?4?$CD?4?$CD?4?$CD?4?$CD?4?$CD?4?$CD?4?$CD?4?$CD?4?$CD?4?$CD@ 1002d200     bncs_cc02_edit.obj
 0002:000254b4       ??_C@_0N@LBMPFBPA@ug?5c?5?$CD7b5a38?$AA@ 1002d4b4     bncs_cc02_edit.obj
 0002:000254c8       ??_C@_0CLD@KDMIMAGM@Qt?4?$CD?4?$CD?4?$CD?4?$CD?4?$CD?4?$CD?4?$CD?4?$CD?4?$CD?4?$CD?4?$CD?4?$CD?4?$CD?4?$CD?4?$CD@ 1002d4c8     bncs_cc02_edit.obj
 0002:0002577c       ??_C@_0N@EGNOIF@k5?5c?5?$CD7b7b7b?$AA@ 1002d77c     bncs_cc02_edit.obj
 0002:00025790       ??_C@_0CLD@BIEOFIAL@Qt?4?$CD?4?$CD?4?$CD?4?$CD?4?$CD?4?$CD?4?$CD?4?$CD?4?$CD?4?$CD?4?$CD?4?$CD?4?$CD?4?$CD?4?$CD@ 1002d790     bncs_cc02_edit.obj
 0002:00025a44       ??_C@_0N@HFDNNOCE@zn?5c?5?$CD7ba0c4?$AA@ 1002da44     bncs_cc02_edit.obj
 0002:00025a58       ??_C@_0CLD@KPDEBKHP@Qt?4?$CD?4?$CD?4?$CD?4?$CD?4?$CD?4?$CD?4?$CD?4?$CD?4?$CD?4?$CD?4?$CD?4?$CD?4?$CD?4?$CD?4?$CD@ 1002da58     bncs_cc02_edit.obj
 0002:00025d0c       ??_C@_0N@KNDPPICM@id?5c?5?$CD7c7c7c?$AA@ 1002dd0c     bncs_cc02_edit.obj
 0002:00025d20       ??_C@_0CLD@NPKKIEGL@Qt?4?$CD?4?$CD?4?$CD?4?$CD?4?$CD?4?$CD?4?$CD?4?$CD?4?$CD?4?$CD?4?$CD?4?$CD?4?$CD?4?$CD?4?$CD@ 1002dd20     bncs_cc02_edit.obj
 0002:00025fd4       ??_C@_0N@EDLCOPLA@qE?5c?5?$CD7c9cbe?$AA@ 1002dfd4     bncs_cc02_edit.obj
 0002:00025fe8       ??_C@_0CLD@NCMGEPKF@Qt?4?$CD?4?$CD?4?$CD?4?$CD?4?$CD?4?$CD?4?$CD?4?$CD?4?$CD?4?$CD?4?$CD?4?$CD?4?$CD?4?$CD?4?$CD@ 1002dfe8     bncs_cc02_edit.obj
 0002:0002629c       ??_C@_0N@PCFOBFJD@yC?5c?5?$CD7d7c80?$AA@ 1002e29c     bncs_cc02_edit.obj
 0002:000262b0       ??_C@_0CLD@KHMMHGDP@Qt?4?$CD?4?$CD?4?$CD?4?$CD?4?$CD?4?$CD?4?$CD?4?$CD?4?$CD?4?$CD?4?$CD?4?$CD?4?$CD?4?$CD?4?$CD@ 1002e2b0     bncs_cc02_edit.obj
 0002:00026564       ??_C@_0N@NIJIODIO@dZ?5c?5?$CD7d7d7d?$AA@ 1002e564     bncs_cc02_edit.obj
 0002:00026578       ??_C@_0CLD@HEFHGGH@Qt?4?$CD?4?$CD?4?$CD?4?$CD?4?$CD?4?$CD?4?$CD?4?$CD?4?$CD?4?$CD?4?$CD?4?$CD?4?$CD?4?$CD?4?$CD@ 1002e578     bncs_cc02_edit.obj
 0002:0002682c       ??_C@_0N@JEHCHOHP@aM?5c?5?$CD7e5b34?$AA@ 1002e82c     bncs_cc02_edit.obj
 0002:00026840       ??_C@_0CLD@NIGKOPFH@Qt?4?$CD?4?$CD?4?$CD?4?$CD?4?$CD?4?$CD?4?$CD?4?$CD?4?$CD?4?$CD?4?$CD?4?$CD?4?$CD?4?$CD?4?$CD@ 1002e840     bncs_cc02_edit.obj
 0002:00026af4       ??_C@_0N@LEJLKLJG@qu?5c?5?$CD7e5d3e?$AA@ 1002eaf4     bncs_cc02_edit.obj
 0002:00026b08       ??_C@_0CLD@IAICMNCB@Qt?4?$CD?4?$CD?4?$CD?4?$CD?4?$CD?4?$CD?4?$CD?4?$CD?4?$CD?4?$CD?4?$CD?4?$CD?4?$CD?4?$CD?4?$CD@ 1002eb08     bncs_cc02_edit.obj
 0002:00026dbc       ??_C@_0N@PGPMMCMC@x2?5c?5?$CD7e6a52?$AA@ 1002edbc     bncs_cc02_edit.obj
 0002:00026dd0       ??_C@_0CLD@LACEHDJK@Qt?4?$CD?4?$CD?4?$CD?4?$CD?4?$CD?4?$CD?4?$CD?4?$CD?4?$CD?4?$CD?4?$CD?4?$CD?4?$CD?4?$CD?4?$CD@ 1002edd0     bncs_cc02_edit.obj
 0002:00027084       ??_C@_0N@OFCJJINK@tl?5c?5?$CD7e726b?$AA@ 1002f084     bncs_cc02_edit.obj
 0002:00027098       ??_C@_0CLD@EBBLBNME@Qt?4?$CD?4?$CD?4?$CD?4?$CD?4?$CD?4?$CD?4?$CD?4?$CD?4?$CD?4?$CD?4?$CD?4?$CD?4?$CD?4?$CD?4?$CD@ 1002f098     bncs_cc02_edit.obj
 0002:0002734c       ??_C@_0N@MJBDMJDN@ye?5c?5?$CD7e7d7c?$AA@ 1002f34c     bncs_cc02_edit.obj
 0002:00027360       ??_C@_0CLD@BPPIPNEJ@Qt?4?$CD?4?$CD?4?$CD?4?$CD?4?$CD?4?$CD?4?$CD?4?$CD?4?$CD?4?$CD?4?$CD?4?$CD?4?$CD?4?$CD?4?$CD@ 1002f360     bncs_cc02_edit.obj
 0002:00027614       ??_C@_0N@NOOMHBLL@pz?5c?5?$CD7e7e7e?$AA@ 1002f614     bncs_cc02_edit.obj
 0002:00027628       ??_C@_0CLD@LEDDNLBG@Qt?4?$CD?4?$CD?4?$CD?4?$CD?4?$CD?4?$CD?4?$CD?4?$CD?4?$CD?4?$CD?4?$CD?4?$CD?4?$CD?4?$CD?4?$CD@ 1002f628     bncs_cc02_edit.obj
 0002:000278dc       ??_C@_0N@BCBAIGLI@wq?5c?5?$CD7e9bb7?$AA@ 1002f8dc     bncs_cc02_edit.obj
 0002:000278f0       ??_C@_0CLD@HBJDHJLP@Qt?4?$CD?4?$CD?4?$CD?4?$CD?4?$CD?4?$CD?4?$CD?4?$CD?4?$CD?4?$CD?4?$CD?4?$CD?4?$CD?4?$CD?4?$CD@ 1002f8f0     bncs_cc02_edit.obj
 0002:00027ba4       ??_C@_0N@CNMMOBHN@qo?5c?5?$CD7ea3c7?$AA@ 1002fba4     bncs_cc02_edit.obj
 0002:00027bb8       ??_C@_0CLD@CIJPCPJ@Qt?4?$CD?4?$CD?4?$CD?4?$CD?4?$CD?4?$CD?4?$CD?4?$CD?4?$CD?4?$CD?4?$CD?4?$CD?4?$CD?4?$CD?4?$CD@ 1002fbb8     bncs_cc02_edit.obj
 0002:00027e6c       ??_C@_0N@FCOLAILI@yQ?5c?5?$CD7f5a39?$AA@ 1002fe6c     bncs_cc02_edit.obj
 0002:00027e80       ??_C@_0CLD@ICMLGBOP@Qt?4?$CD?4?$CD?4?$CD?4?$CD?4?$CD?4?$CD?4?$CD?4?$CD?4?$CD?4?$CD?4?$CD?4?$CD?4?$CD?4?$CD?4?$CD@ 1002fe80     bncs_cc02_edit.obj
 0002:00028134       ??_C@_0N@EBLLHNEA@xs?5c?5?$CD7f5e34?$AA@ 10030134     bncs_cc02_edit.obj
 0002:00028148       ??_C@_0CLD@OEALHIIF@Qt?4?$CD?4?$CD?4?$CD?4?$CD?4?$CD?4?$CD?4?$CD?4?$CD?4?$CD?4?$CD?4?$CD?4?$CD?4?$CD?4?$CD?4?$CD@ 10030148     bncs_cc02_edit.obj
 0002:000283fc       ??_C@_0N@LLFLHABI@eJ?5c?5?$CD7f674e?$AA@ 100303fc     bncs_cc02_edit.obj
 0002:00028410       ??_C@_0CLD@ICAFFBIC@Qt?4?$CD?4?$CD?4?$CD?4?$CD?4?$CD?4?$CD?4?$CD?4?$CD?4?$CD?4?$CD?4?$CD?4?$CD?4?$CD?4?$CD?4?$CD@ 10030410     bncs_cc02_edit.obj
 0002:000286c4       ??_C@_0N@HAEKAHDI@?$CDu?5c?5?$CD7f7d7c?$AA@ 100306c4     bncs_cc02_edit.obj
 0002:000286d8       ??_C@_0CLD@OPFBNCLB@Qt?4?$CD?4?$CD?4?$CD?4?$CD?4?$CD?4?$CD?4?$CD?4?$CD?4?$CD?4?$CD?4?$CD?4?$CD?4?$CD?4?$CD?4?$CD@ 100306d8     bncs_cc02_edit.obj
 0002:0002898c       ??_C@_0N@IJCACNJG@a?$CD?5c?5?$CD7f7e7d?$AA@ 1003098c     bncs_cc02_edit.obj
 0002:000289a0       ??_C@_0CLD@CKODDHDG@Qt?4?$CD?4?$CD?4?$CD?4?$CD?4?$CD?4?$CD?4?$CD?4?$CD?4?$CD?4?$CD?4?$CD?4?$CD?4?$CD?4?$CD?4?$CD@ 100309a0     bncs_cc02_edit.obj
 0002:00028c54       ??_C@_0N@JDOGMMKB@pP?5c?5?$CD7f7f7f?$AA@ 10030c54     bncs_cc02_edit.obj
 0002:00028c68       ??_C@_0CLD@MCMELCHJ@Qt?4?$CD?4?$CD?4?$CD?4?$CD?4?$CD?4?$CD?4?$CD?4?$CD?4?$CD?4?$CD?4?$CD?4?$CD?4?$CD?4?$CD?4?$CD@ 10030c68     bncs_cc02_edit.obj
 0002:00028f1c       ??_C@_0N@KFJMKKBF@a?4?5c?5?$CD7f8081?$AA@ 10030f1c     bncs_cc02_edit.obj
 0002:00028f30       ??_C@_0CLD@JAIOFGCB@Qt?4?$CD?4?$CD?4?$CD?4?$CD?4?$CD?4?$CD?4?$CD?4?$CD?4?$CD?4?$CD?4?$CD?4?$CD?4?$CD?4?$CD?4?$CD@ 10030f30     bncs_cc02_edit.obj
 0002:000291e4       ??_C@_0N@CHGFFEDH@jD?5c?5?$CD80583a?$AA@ 100311e4     bncs_cc02_edit.obj
 0002:000291f8       ??_C@_0CLD@EIHMAELE@Qt?4?$CD?4?$CD?4?$CD?4?$CD?4?$CD?4?$CD?4?$CD?4?$CD?4?$CD?4?$CD?4?$CD?4?$CD?4?$CD?4?$CD?4?$CD@ 100311f8     bncs_cc02_edit.obj
 0002:000294ac       ??_C@_0N@PLLDBFOL@cP?5c?5?$CD805937?$AA@ 100314ac     bncs_cc02_edit.obj
 0002:000294c0       ??_C@_0CLD@FLENBMMB@Qt?4?$CD?4?$CD?4?$CD?4?$CD?4?$CD?4?$CD?4?$CD?4?$CD?4?$CD?4?$CD?4?$CD?4?$CD?4?$CD?4?$CD?4?$CD@ 100314c0     bncs_cc02_edit.obj
 0002:00029774       ??_C@_0N@OLBPCODJ@nj?5c?5?$CD806446?$AA@ 10031774     bncs_cc02_edit.obj
 0002:00029788       ??_C@_0CLD@DCBGANLA@Qt?4?$CD?4?$CD?4?$CD?4?$CD?4?$CD?4?$CD?4?$CD?4?$CD?4?$CD?4?$CD?4?$CD?4?$CD?4?$CD?4?$CD?4?$CD@ 10031788     bncs_cc02_edit.obj
 0002:00029a3c       ??_C@_0N@OGDOMLDO@jN?5c?5?$CD807f7d?$AA@ 10031a3c     bncs_cc02_edit.obj
 0002:00029a50       ??_C@_0CLD@OEOLLHBL@Qt?4?$CD?4?$CD?4?$CD?4?$CD?4?$CD?4?$CD?4?$CD?4?$CD?4?$CD?4?$CD?4?$CD?4?$CD?4?$CD?4?$CD?4?$CD@ 10031a50     bncs_cc02_edit.obj
 0002:00029d04       ??_C@_0N@CICBGOLC@e9?5c?5?$CD808080?$AA@ 10031d04     bncs_cc02_edit.obj
 0002:00029d18       ??_C@_0CLD@IFAGOIEC@Qt?4?$CD?4?$CD?4?$CD?4?$CD?4?$CD?4?$CD?4?$CD?4?$CD?4?$CD?4?$CD?4?$CD?4?$CD?4?$CD?4?$CD?4?$CD@ 10031d18     bncs_cc02_edit.obj
 0002:00029fcc       ??_C@_0N@GBHCDGOL@yB?5c?5?$CD808082?$AA@ 10031fcc     bncs_cc02_edit.obj
 0002:00029fe0       ??_C@_0CLD@EIIECJOL@Qt?4?$CD?4?$CD?4?$CD?4?$CD?4?$CD?4?$CD?4?$CD?4?$CD?4?$CD?4?$CD?4?$CD?4?$CD?4?$CD?4?$CD?4?$CD@ 10031fe0     bncs_cc02_edit.obj
 0002:0002a294       ??_C@_0N@GLAHBFC@?$CDx?5c?5?$CD808282?$AA@ 10032294     bncs_cc02_edit.obj
 0002:0002a2a8       ??_C@_0CLD@MOFACCLD@Qt?4?$CD?4?$CD?4?$CD?4?$CD?4?$CD?4?$CD?4?$CD?4?$CD?4?$CD?4?$CD?4?$CD?4?$CD?4?$CD?4?$CD?4?$CD@ 100322a8     bncs_cc02_edit.obj
 0002:0002a55c       ??_C@_0N@JEPJLCAK@mw?5c?5?$CD8095a6?$AA@ 1003255c     bncs_cc02_edit.obj
 0002:0002a570       ??_C@_0CLD@NBMCGKPP@Qt?4?$CD?4?$CD?4?$CD?4?$CD?4?$CD?4?$CD?4?$CD?4?$CD?4?$CD?4?$CD?4?$CD?4?$CD?4?$CD?4?$CD?4?$CD@ 10032570     bncs_cc02_edit.obj
 0002:0002a824       ??_C@_0N@DJHIOEJC@ny?5c?5?$CD809dbd?$AA@ 10032824     bncs_cc02_edit.obj
 0002:0002a838       ??_C@_0CLD@HJBDMACC@Qt?4?$CD?4?$CD?4?$CD?4?$CD?4?$CD?4?$CD?4?$CD?4?$CD?4?$CD?4?$CD?4?$CD?4?$CD?4?$CD?4?$CD?4?$CD@ 10032838     bncs_cc02_edit.obj
 0002:0002aaec       ??_C@_0N@BANEJCP@lt?5c?5?$CD80a1bf?$AA@ 10032aec     bncs_cc02_edit.obj
 0002:0002ab00       ??_C@_0CLD@NELAFNFG@Qt?4?$CD?4?$CD?4?$CD?4?$CD?4?$CDswsxpJpJpJpJpJpJpJpJ@ 10032b00     bncs_cc02_edit.obj
 0002:0002adb4       ??_C@_0N@KHKEFOIP@rf?5c?5?$CD80a3c7?$AA@ 10032db4     bncs_cc02_edit.obj
 0002:0002adc8       ??_C@_0CLD@BDLELHOB@Qt?4?$CD?4?$CD?4?$CD?4?$CD?4?$CD?4X?4d?4d?4d?4d?4d?4d?4d?4d?4d@ 10032dc8     bncs_cc02_edit.obj
 0002:0002b07c       ??_C@_0N@OPLLHJFK@uU?5c?5?$CD815941?$AA@ 1003307c     bncs_cc02_edit.obj
 0002:0002b090       ??_C@_0CLD@MLOIBBJO@Qt?4?$CD?4?$CD?4?$CD?4?$CD?4?$CDtmtngngngntotp?4d?4dtq@ 10033090     bncs_cc02_edit.obj
 0002:0002b344       ??_C@_0N@LCKMCCB@r?4?5c?5?$CD815a3d?$AA@ 10033344     bncs_cc02_edit.obj
 0002:0002b358       ??_C@_0CLD@INPMKEC@Qt?4?$CD?4?$CD?4?$CD?4?$CD?4?$CD?4?$CD?4?$CD?4?$CD?4?$CD?4?$CD?4?$CDtZ?4d?4dqY@ 10033358     bncs_cc02_edit.obj
 0002:0002b60c       ??_C@_0N@LPBIPDMI@oE?5c?5?$CD816b5c?$AA@ 1003360c     bncs_cc02_edit.obj
 0002:0002b620       ??_C@_0CLD@CFPIMGGA@Qt?4?$CD?4?$CD?4?$CD?4?$CD?4?$CD?4?$CD?4?$CD?4?$CD?4?$CD?4?$CD?4?$CDav?4d?4daw@ 10033620     bncs_cc02_edit.obj
 0002:0002b8d4       ??_C@_0N@LDFAELAG@xX?5c?5?$CD817262?$AA@ 100338d4     bncs_cc02_edit.obj
 0002:0002b8e8       ??_C@_0CLD@LPCNFPPI@Qt?4?$CD?4?$CD?4?$CD?4?$CD?4?$CD?4?$CD?4?$CD?4?$CD?4?$CD?4?$CD?4?$CDav?4d?4daw@ 100338e8     bncs_cc02_edit.obj
 0002:0002bb9c       ??_C@_0N@JAJHGIKF@?$CDS?5c?5?$CD817a76?$AA@ 10033b9c     bncs_cc02_edit.obj
 0002:0002bbb0       ??_C@_0CLD@HCMFBMAJ@Qt?4?$CD?4?$CD?4?$CD?4?$CD?4?$CD?4?$CD?4?$CD?4?$CD?4?$CD?4?$CD?4?$CDav?4d?4daw@ 10033bb0     bncs_cc02_edit.obj
 0002:0002be64       ??_C@_0N@EDPJHBBJ@fL?5c?5?$CD818181?$AA@ 10033e64     bncs_cc02_edit.obj
 0002:0002be78       ??_C@_0CLD@MNEKGABB@Qt?4?$CD?4?$CD?4?$CD?4?$CD?4?$CD?4?$CD?4?$CD?4?$CD?4?$CD?4?$CD?4?$CDav?4d?4daw@ 10033e78     bncs_cc02_edit.obj
 0002:0002c12c       ??_C@_0N@NANHDEIO@?$CDT?5c?5?$CD818282?$AA@ 1003412c     bncs_cc02_edit.obj
 0002:0002c140       ??_C@_0CLD@BNOEHMAA@Qt?4?$CD?4?$CD?4?$CD?4?$CD?4?$CD?4?$CD?4?$CD?4?$CD?4?$CD?4?$CD?4?$CDav?4d?4daw@ 10034140     bncs_cc02_edit.obj
 0002:0002c3f4       ??_C@_0N@LNLHEIKJ@v?4?5c?5?$CD818b97?$AA@ 100343f4     bncs_cc02_edit.obj
 0002:0002c408       ??_C@_0CLD@KIJHNKJA@Qt?4?$CD?4?$CD?4?$CD?4?$CD?4?$CD?4?$CD?4?$CD?4?$CD?4?$CD?4?$CD?4?$CDav?4d?4daw@ 10034408     bncs_cc02_edit.obj
 0002:0002c6bc       ??_C@_0N@DPDOKJOK@yz?5c?5?$CD8194a4?$AA@ 100346bc     bncs_cc02_edit.obj
 0002:0002c6d0       ??_C@_0CLD@KKOIOJBH@Qt?4?$CD?4?$CD?4?$CD?4?$CD?4?$CD?4?$CD?4?$CD?4?$CD?4?$CD?4?$CD?4?$CDav?4d?4daw@ 100346d0     bncs_cc02_edit.obj
 0002:0002c984       ??_C@_0N@CNIBDHJH@wF?5c?5?$CD819ebf?$AA@ 10034984     bncs_cc02_edit.obj
 0002:0002c998       ??_C@_0CLD@CPNCABLK@Qt?4?$CD?4?$CD?4?$CD?4?$CD?4?$CD?4?$CD?4?$CD?4?$CD?4?$CD?4?$CD?4?$CDav?4d?4daw@ 10034998     bncs_cc02_edit.obj
 0002:0002cc4c       ??_C@_0N@HIIOJIJE@mx?5c?5?$CD827064?$AA@ 10034c4c     bncs_cc02_edit.obj
 0002:0002cc60       ??_C@_0CLD@POENJENL@Qt?4?$CD?4?$CD?4?$CD?4?$CD?4?$CD?4?$CD?4?$CD?4?$CD?4?$CD?4?$CD?4?$CDav?4d?4daw@ 10034c60     bncs_cc02_edit.obj
 0002:0002cf14       ??_C@_0N@EOHCJNNI@?$CDt?5c?5?$CD828282?$AA@ 10034f14     bncs_cc02_edit.obj
 0002:0002cf28       ??_C@_0CLD@JGBNMIEE@Qt?4?$CD?4?$CD?4?$CD?4?$CD?4?$CD?4?$CD?4?$CD?4?$CD?4?$CD?4?$CD?4?$CDav?4d?4daw@ 10034f28     bncs_cc02_edit.obj
 0002:0002d1dc       ??_C@_0N@LKLNDDNO@yK?5c?5?$CD828383?$AA@ 100351dc     bncs_cc02_edit.obj
 0002:0002d1f0       ??_C@_0CLD@NKEINIBL@Qt?4?$CD?4?$CD?4?$CD?4?$CD?4?$CD?4?$CD?4?$CD?4?$CD?4?$CD?4?$CD?4?$CDav?4d?4daw@ 100351f0     bncs_cc02_edit.obj
 0002:0002d4a4       ??_C@_0N@HPHKJCPD@yv?5c?5?$CD828384?$AA@ 100354a4     bncs_cc02_edit.obj
 0002:0002d4b8       ??_C@_0CLD@MECJFOPJ@Qt?4?$CD?4?$CD?4?$CD?4?$CD?4?$CD?4?$CD?4?$CD?4?$CD?4?$CD?4?$CD?4?$CDx6?4d?4daw@ 100354b8     bncs_cc02_edit.obj
 0002:0002d76c       ??_C@_0N@JONCGDGI@jQ?5c?5?$CD828485?$AA@ 1003576c     bncs_cc02_edit.obj
 0002:0002d780       ??_C@_0CLD@JOJJPFMK@Qt?4?$CD?4?$CD?4?$CD?4?$CD?4?$CD?4?$CD?4?$CD?4?$CD?4?$CD?4?$CD?4?$CDyO?4d?4diU@ 10035780     bncs_cc02_edit.obj
 0002:0002da34       ??_C@_0N@MNKHJIE@mP?5c?5?$CD82868a?$AA@ 10035a34     bncs_cc02_edit.obj
 0002:0002da48       ??_C@_0CLD@JKJOBEHM@Qt?4?$CD?4?$CD?4?$CD?4?$CD?4?$CD?4?$CD?4?$CD?4?$CD?4?$CD?4?$CD?4?$CD?4?$CD?4?$CD?4?$CD?4?$CD@ 10035a48     bncs_cc02_edit.obj
 0002:0002dcfc       ??_C@_0N@PBLGKHPC@?$CDs?5c?5?$CD838282?$AA@ 10035cfc     bncs_cc02_edit.obj
 0002:0002dd10       ??_C@_0CLD@PFNEBGGM@Qt?4?$CD?4?$CD?4?$CD?4?$CD?4?$CD?4?$CD?4?$CD?4?$CD?4?$CD?4?$CD?4?$CD?4?$CD?4?$CD?4?$CD?4?$CD@ 10035d10     bncs_cc02_edit.obj
 0002:0002dfc4       ??_C@_0N@OOELFOHM@n4?5c?5?$CD838383?$AA@ 10035fc4     bncs_cc02_edit.obj
 0002:0002dfd8       ??_C@_0CLD@PHLAPIGJ@Qt?4?$CD?4?$CD?4?$CD?4?$CD?4?$CD?4?$CD?4?$CD?4?$CD?4?$CD?4?$CD?4?$CD?4?$CD?4?$CD?4?$CD?4?$CD@ 10035fd8     bncs_cc02_edit.obj
 0002:0002e28c       ??_C@_0N@OCANEIDP@eH?5c?5?$CD838c93?$AA@ 1003628c     bncs_cc02_edit.obj
 0002:0002e29c       ??_C@_0N@HNFMBFBG@?4l?5c?5?$CD83a5c7?$AA@ 1003629c     bncs_cc02_edit.obj
 0002:0002e2ac       ??_C@_0N@GLMFADGM@t1?5c?5?$CD83a5c8?$AA@ 100362ac     bncs_cc02_edit.obj
 0002:0002e2bc       ??_C@_0N@JPMAMHGG@c5?5c?5?$CD84675a?$AA@ 100362bc     bncs_cc02_edit.obj
 0002:0002e2cc       ??_C@_0N@MPAGODBD@fD?5c?5?$CD847c73?$AA@ 100362cc     bncs_cc02_edit.obj
 0002:0002e2dc       ??_C@_0N@FJEAEOMA@yd?5c?5?$CD84827e?$AA@ 100362dc     bncs_cc02_edit.obj
 0002:0002e2ec       ??_C@_0N@CJBALFEH@jF?5c?5?$CD848484?$AA@ 100362ec     bncs_cc02_edit.obj
 0002:0002e2fc       ??_C@_0N@PPDPICJG@?$CDy?5c?5?$CD848586?$AA@ 100362fc     bncs_cc02_edit.obj
 0002:0002e30c       ??_C@_0N@HJEDFFNM@lM?5c?5?$CD848687?$AA@ 1003630c     bncs_cc02_edit.obj
 0002:0002e31c       ??_C@_0N@DMFOOEBB@ij?5c?5?$CD848e9a?$AA@ 1003631c     bncs_cc02_edit.obj
 0002:0002e32c       ??_C@_0N@KCGNCENC@vH?5c?5?$CD84a4c5?$AA@ 1003632c     bncs_cc02_edit.obj
 0002:0002e33c       ??_C@_0N@GIMCKAJ@x0?5c?5?$CD856b4e?$AA@ 1003633c     bncs_cc02_edit.obj
 0002:0002e34c       ??_C@_0N@PFOBHNJN@so?5c?5?$CD858585?$AA@ 1003634c     bncs_cc02_edit.obj
 0002:0002e35c       ??_C@_0N@MBIPILKP@vl?5c?5?$CD858889?$AA@ 1003635c     bncs_cc02_edit.obj
 0002:0002e36c       ??_C@_0N@JCPEKLI@np?5c?5?$CD868482?$AA@ 1003636c     bncs_cc02_edit.obj
 0002:0002e37c       ??_C@_0N@BHMPKDLA@fM?5c?5?$CD868686?$AA@ 1003637c     bncs_cc02_edit.obj
 0002:0002e38c       ??_C@_0N@LCDNGEBF@f8?5c?5?$CD868687?$AA@ 1003638c     bncs_cc02_edit.obj
 0002:0002e39c       ??_C@_0N@HPLNJBIF@yZ?5c?5?$CD87603b?$AA@ 1003639c     bncs_cc02_edit.obj
 0002:0002e3ac       ??_C@_0N@DHGOMLHF@?$CDz?5c?5?$CD877a6a?$AA@ 100363ac     bncs_cc02_edit.obj
 0002:0002e3bc       ??_C@_0N@EDOCLPJI@qH?5c?5?$CD877c6f?$AA@ 100363bc     bncs_cc02_edit.obj
 0002:0002e3cc       ??_C@_0N@PFFALOPN@vg?5c?5?$CD878583?$AA@ 100363cc     bncs_cc02_edit.obj
 0002:0002e3dc       ??_C@_0N@PBHFCICG@pH?5c?5?$CD878787?$AA@ 100363dc     bncs_cc02_edit.obj
 0002:0002e3ec       ??_C@_0N@FCOFMIPH@fC?5c?5?$CD878889?$AA@ 100363ec     bncs_cc02_edit.obj
 0002:0002e3fc       ??_C@_0N@GDAAHFAP@?$CDU?5c?5?$CD87888a?$AA@ 100363fc     bncs_cc02_edit.obj
 0002:0002e40c       ??_C@_0N@NPADDNNK@no?5c?5?$CD87898a?$AA@ 1003640c     bncs_cc02_edit.obj
 0002:0002e41c       ??_C@_0N@KDGFHMIJ@sA?5c?5?$CD878f97?$AA@ 1003641c     bncs_cc02_edit.obj
 0002:0002e42c       ??_C@_0N@CDLKFIHN@iZ?5c?5?$CD879baf?$AA@ 1003642c     bncs_cc02_edit.obj
 0002:0002e43c       ??_C@_0N@LNEDHLPP@c?4?5c?5?$CD87a5c2?$AA@ 1003643c     bncs_cc02_edit.obj
 0002:0002e44c       ??_C@_0N@NCJIGDPE@p5?5c?5?$CD87acce?$AA@ 1003644c     bncs_cc02_edit.obj
 0002:0002e45c       ??_C@_0N@OJNEAEPK@vo?5c?5?$CD886644?$AA@ 1003645c     bncs_cc02_edit.obj
 0002:0002e46c       ??_C@_0N@GBEKMNOC@js?5c?5?$CD888685?$AA@ 1003646c     bncs_cc02_edit.obj
 0002:0002e47c       ??_C@_0N@KMIBIAMB@fZ?5c?5?$CD888887?$AA@ 1003647c     bncs_cc02_edit.obj
 0002:0002e48c       ??_C@_0N@DDODAIPF@pJ?5c?5?$CD888888?$AA@ 1003648c     bncs_cc02_edit.obj
 0002:0002e49c       ??_C@_0N@OMLEGKHG@sY?5c?5?$CD888889?$AA@ 1003649c     bncs_cc02_edit.obj
 0002:0002e4ac       ??_C@_0N@JBJBEEED@x9?5c?5?$CD888b8e?$AA@ 100364ac     bncs_cc02_edit.obj
 0002:0002e4bc       ??_C@_0N@PMBKECOD@o5?5c?5?$CD88929c?$AA@ 100364bc     bncs_cc02_edit.obj
 0002:0002e4cc       ??_C@_0N@BLMFHDGM@xh?5c?5?$CD88a9ca?$AA@ 100364cc     bncs_cc02_edit.obj
 0002:0002e4dc       ??_C@_0N@FPAOBKEP@?$CDa?5c?5?$CD88abcb?$AA@ 100364dc     bncs_cc02_edit.obj
 0002:0002e4ec       ??_C@_0N@MNMHLPMG@yX?5c?5?$CD896b4b?$AA@ 100364ec     bncs_cc02_edit.obj
 0002:0002e4fc       ??_C@_0N@KDOPHCCA@bI?5c?5?$CD89715e?$AA@ 100364fc     bncs_cc02_edit.obj
 0002:0002e50c       ??_C@_0N@CCEAJGOH@ef?5c?5?$CD89755d?$AA@ 1003650c     bncs_cc02_edit.obj
 0002:0002e51c       ??_C@_0N@NEMEGAPD@sS?5c?5?$CD898888?$AA@ 1003651c     bncs_cc02_edit.obj
 0002:0002e52c       ??_C@_0N@DPKFCEAB@pu?5c?5?$CD898989?$AA@ 1003652c     bncs_cc02_edit.obj
 0002:0002e53c       ??_C@_0N@KNDPMKKN@ge?5c?5?$CD898a8b?$AA@ 1003653c     bncs_cc02_edit.obj
 0002:0002e54c       ??_C@_0N@MJIIJHNN@sy?5c?5?$CD898a8c?$AA@ 1003654c     bncs_cc02_edit.obj
 0002:0002e55c       ??_C@_0N@IFDINAL@yw?5c?5?$CD898b8c?$AA@ 1003655c     bncs_cc02_edit.obj
 0002:0002e56c       ??_C@_0N@LAKGKNBH@fl?5c?5?$CD89939b?$AA@ 1003656c     bncs_cc02_edit.obj
 0002:0002e57c       ??_C@_0N@KGKJFIAK@cb?5c?5?$CD89acc8?$AA@ 1003657c     bncs_cc02_edit.obj
 0002:0002e58c       ??_C@_0N@BKCKCIFC@yi?5c?5?$CD8a6c4b?$AA@ 1003658c     bncs_cc02_edit.obj
 0002:0002e59c       ??_C@_0N@GEAHNIGB@f?$CD?5c?5?$CD8a8a8a?$AA@ 1003659c     bncs_cc02_edit.obj
 0002:0002e5ac       ??_C@_0N@HKOGIBOK@jv?5c?5?$CD8a8b8c?$AA@ 100365ac     bncs_cc02_edit.obj
 0002:0002e5bc       ??_C@_0N@LKJIHBIE@yu?5c?5?$CD8b8379?$AA@ 100365bc     bncs_cc02_edit.obj
 0002:00030554       ??_C@_0N@KKJGIKO@?$CDO?5c?5?$CD8b8988?$AA@ 10038554     bncs_cc02_edit.obj
 0002:00030564       ??_C@_0N@PFAFMLHO@sI?5c?5?$CD8b8989?$AA@ 10038564     bncs_cc02_edit.obj
 0002:00030574       ??_C@_0P@OBMCLPNC@345?5248?51768?52?$AA@ 10038574     bncs_cc02_edit.obj
 0002:00030584       ??_C@_0N@JJMPKGJ@gd?5c?5?$CD8b8a89?$AA@ 10038584     bncs_cc02_edit.obj
 0002:00030594       ??_C@_0N@JJMGBBDJ@?4?$CD?5c?5?$CD000000?$AA@ 10038594     bncs_cc02_edit.obj
 0002:000305a4       ??_C@_0N@INFKAEPO@f7?5c?5?$CD8b8b89?$AA@ 100385a4     bncs_cc02_edit.obj
 0002:000305b4       ??_C@_0N@FDJLNPJE@?4u?5c?5?$CD000001?$AA@ 100385b4     bncs_cc02_edit.obj
 0002:000305c4       ??_C@_0N@OMHFANGP@t5?5c?5?$CD8b8b8b?$AA@ 100385c4     bncs_cc02_edit.obj
 0002:000305d4       ??_C@_0N@DDAOLDLD@vU?5c?5?$CD000002?$AA@ 100385d4     bncs_cc02_edit.obj
 0002:000305e4       ??_C@_0N@OEEFIHLL@s4?5c?5?$CD8b8c8d?$AA@ 100385e4     bncs_cc02_edit.obj
 0002:000305f4       ??_C@_0N@GGBEKJNJ@cK?5c?5?$CD000003?$AA@ 100385f4     bncs_cc02_edit.obj
 0002:00030604       ??_C@_0N@NANEJONC@wU?5c?5?$CD8ba7cb?$AA@ 10038604     bncs_cc02_edit.obj
 0002:00030614       ??_C@_0N@JPHACHBF@m0?5c?5?$CD000005?$AA@ 10038614     bncs_cc02_edit.obj
 0002:00030624       ??_C@_0N@FKNMCLBN@?$CDw?5c?5?$CD8c7978?$AA@ 10038624     bncs_cc02_edit.obj
 0002:00030634       ??_C@_0N@LLFJOICI@vW?5c?5?$CD000006?$AA@ 10038634     bncs_cc02_edit.obj
 0002:00030644       ??_C@_0N@HLGNBIJL@sz?5c?5?$CD8c7f6f?$AA@ 10038644     bncs_cc02_edit.obj
 0002:00030654       ??_C@_0N@INANFJBM@da?5c?5?$CD000007?$AA@ 10038654     bncs_cc02_edit.obj
 0002:00030664       ??_C@_0N@EAHLHPH@fw?5c?5?$CD8c8b8a?$AA@ 10038664     bncs_cc02_edit.obj
 0002:00030674       ??_C@_0N@LEGLBCML@vN?5c?5?$CD000008?$AA@ 10038674     bncs_cc02_edit.obj
 0002:00030684       ??_C@_0N@NMJHBBPO@gF?5c?5?$CD8c8c8c?$AA@ 10038684     bncs_cc02_edit.obj
 0002:00030694       ??_C@_0N@DMBOJOIO@eK?5c?5?$CD000009?$AA@ 10038694     bncs_cc02_edit.obj
 0002:000306a4       ??_C@_0N@GGKOAPAM@sJ?5c?5?$CD8c8d8e?$AA@ 100386a4     bncs_cc02_edit.obj
 0002:000306b4       ??_C@_0N@MDIKLDJL@rh?5c?5?$CD00000b?$AA@ 100386b4     bncs_cc02_edit.obj
 0002:000306c4       ??_C@_0N@IALPNMFP@sO?5c?5?$CD8c8e90?$AA@ 100386c4     bncs_cc02_edit.obj
 0002:000306d4       ??_C@_0N@DPPAFFLM@y3?5c?5?$CD00000d?$AA@ 100386d4     bncs_cc02_edit.obj
 0002:000306e4       ??_C@_0N@CPCDJKAB@?$CDr?5c?5?$CD8c908f?$AA@ 100386e4     bncs_cc02_edit.obj
 0002:000306f4       ??_C@_0N@JGNPFPPB@q9?5c?5?$CD00000e?$AA@ 100386f4     bncs_cc02_edit.obj
 0002:00030704       ??_C@_0N@KOKDDDI@ia?5c?5?$CD8d7760?$AA@ 10038704     bncs_cc02_edit.obj
 0002:00030714       ??_C@_0N@CPJKIKEJ@b8?5c?5?$CD00000f?$AA@ 10038714     bncs_cc02_edit.obj
 0002:00030724       ??_C@_0N@HPKJBG@f0?5c?5?$CD8d857a?$AA@ 10038724     bncs_cc02_edit.obj
 0002:00030734       ??_C@_0N@KPCHJHJL@dF?5c?5?$CD000010?$AA@ 10038734     bncs_cc02_edit.obj
 0002:00030744       ??_C@_0N@FPHGIPNL@nL?5c?5?$CD8d8a88?$AA@ 10038744     bncs_cc02_edit.obj
 0002:00030754       ??_C@_0N@OCLAHCKJ@ys?5c?5?$CD000012?$AA@ 10038754     bncs_cc02_edit.obj
 0002:00030764       ??_C@_0N@CCNHAKP@cB?5c?5?$CD8d8c8c?$AA@ 10038764     bncs_cc02_edit.obj
 0002:00030774       ??_C@_0N@KOLGEGAG@qg?5c?5?$CD000013?$AA@ 10038774     bncs_cc02_edit.obj
 0002:00030784       ??_C@_0N@OOBMGKCC@gx?5c?5?$CD8d8d8d?$AA@ 10038784     bncs_cc02_edit.obj
 0002:00030794       ??_C@_0N@DHKGDHFF@wD?5c?5?$CD000015?$AA@ 10038794     bncs_cc02_edit.obj
 0002:000307a4       ??_C@_0N@NJFNOKLJ@pb?5c?5?$CD8d98a1?$AA@ 100387a4     bncs_cc02_edit.obj
 0002:000307b4       ??_C@_0N@LJGDOJEO@lB?5c?5?$CD000017?$AA@ 100387b4     bncs_cc02_edit.obj
 0002:000307c4       ??_C@_0N@FEIJGPCF@nv?5c?5?$CD8da8cd?$AA@ 100387c4     bncs_cc02_edit.obj
 0002:000307d4       ??_C@_0N@IKCECGLG@rT?5c?5?$CD000019?$AA@ 100387d4     bncs_cc02_edit.obj
 0002:000307e4       ??_C@_0N@FANDNFFE@cC?5c?5?$CD8e8b83?$AA@ 100387e4     bncs_cc02_edit.obj
 0002:000307f4       ??_C@_0N@OJHCECJM@mN?5c?5?$CD00001e?$AA@ 100387f4     bncs_cc02_edit.obj
 0002:00030804       ??_C@_0N@CNCCJAKK@pO?5c?5?$CD8e8e8e?$AA@ 10038804     bncs_cc02_edit.obj
 0002:00030814       ??_C@_0N@MELAGCHG@q?4?5c?5?$CD00001f?$AA@ 10038814     bncs_cc02_edit.obj
 0002:00030824       ??_C@_0N@KDBNJPPP@s3?5c?5?$CD8e8f8e?$AA@ 10038824     bncs_cc02_edit.obj
 0002:00030834       ??_C@_0N@JDAFCOP@tu?5c?5?$CD000108?$AA@ 10038834     bncs_cc02_edit.obj
 0002:00030844       ??_C@_0N@NPBLLGAD@qy?5c?5?$CD8e8f90?$AA@ 10038844     bncs_cc02_edit.obj
 0002:00030854       ??_C@_0N@HNNHMIMA@pW?5c?5?$CD00010b?$AA@ 10038854     bncs_cc02_edit.obj
 0002:00030864       ??_C@_0N@EJPCIKOO@oP?5c?5?$CD8ea5b9?$AA@ 10038864     bncs_cc02_edit.obj
 0002:00030874       ??_C@_0N@JOJLCDNM@nU?5c?5?$CD000118?$AA@ 10038874     bncs_cc02_edit.obj
 0002:00030884       ??_C@_0N@FHCJHJJH@nt?5c?5?$CD8eafc9?$AA@ 10038884     bncs_cc02_edit.obj
 0002:00030894       ??_C@_0N@NILLIMNI@wr?5c?5?$CD000119?$AA@ 10038894     bncs_cc02_edit.obj
 0002:000308a4       ??_C@_0N@NNGEEPJI@a8?5c?5?$CD8f6b4a?$AA@ 100388a4     bncs_cc02_edit.obj
 0002:000308b4       ??_C@_0N@EMEKHJAH@fT?5c?5?$CD000208?$AA@ 100388b4     bncs_cc02_edit.obj
 0002:000308c4       ??_C@_0N@HOEJIHBO@wO?5c?5?$CD8f7051?$AA@ 100388c4     bncs_cc02_edit.obj
 0002:000308d4       ??_C@_0N@IIKFHEC@tm?5c?5?$CD000209?$AA@ 100388d4     bncs_cc02_edit.obj
 0002:000308e4       ??_C@_0N@KDPKOPNI@?$CDo?5c?5?$CD8f857a?$AA@ 100388e4     bncs_cc02_edit.obj
 0002:000308f4       ??_C@_0N@KFAGEPNG@?4o?5c?5?$CD00020a?$AA@ 100388f4     bncs_cc02_edit.obj
 0002:00030904       ??_C@_0N@KEKCNKPA@lo?5c?5?$CD8f8f8f?$AA@ 10038904     bncs_cc02_edit.obj
 0002:00030914       ??_C@_0N@MGDHIEEO@b3?5c?5?$CD00020d?$AA@ 10038914     bncs_cc02_edit.obj
 0002:00030924       ??_C@_0N@DHANDIJI@lp?5c?5?$CD8f8f90?$AA@ 10038924     bncs_cc02_edit.obj
 0002:00030934       ??_C@_0N@HCOGDIGO@bz?5c?5?$CD00020e?$AA@ 10038934     bncs_cc02_edit.obj
 0002:00030944       ??_C@_0N@CEAGGHKA@f9?5c?5?$CD8f9086?$AA@ 10038944     bncs_cc02_edit.obj
 0002:00030954       ??_C@_0N@OABIKCGE@?41?5c?5?$CD000212?$AA@ 10038954     bncs_cc02_edit.obj
 0002:00030964       ??_C@_0N@FCNCFEGJ@fx?5c?5?$CD8f9192?$AA@ 10038964     bncs_cc02_edit.obj
 0002:00030974       ??_C@_0N@ENKAMNEN@aY?5c?5?$CD000213?$AA@ 10038974     bncs_cc02_edit.obj
 0002:00030984       ??_C@_0N@KGHIFFPF@n8?5c?5?$CD8fa9c0?$AA@ 10038984     bncs_cc02_edit.obj
 0002:00030994       ??_C@_0N@JKJJIIJH@yj?5c?5?$CD000308?$AA@ 10038994     bncs_cc02_edit.obj
 0002:000309a4       ??_C@_0N@NEHNGBNB@u7?5c?5?$CD90877c?$AA@ 100389a4     bncs_cc02_edit.obj
 0002:000309b4       ??_C@_0N@EFPDONDK@lF?5c?5?$CD00030a?$AA@ 100389b4     bncs_cc02_edit.obj
 0002:000309c4       ??_C@_0N@ILGIFLMM@gR?5c?5?$CD909090?$AA@ 100389c4     bncs_cc02_edit.obj
 0002:000309d4       ??_C@_0N@NDMMKHNK@aP?5c?5?$CD00030c?$AA@ 100389d4     bncs_cc02_edit.obj
 0002:000309e4       ??_C@_0N@HMKIHFFD@lN?5c?5?$CD909091?$AA@ 100389e4     bncs_cc02_edit.obj
 0002:000309f4       ??_C@_0N@NGOBLEGO@?$CDA?5c?5?$CD00030d?$AA@ 100389f4     bncs_cc02_edit.obj
 0002:00030a04       ??_C@_0N@HFNCLGGO@jr?5c?5?$CD909191?$AA@ 10038a04     bncs_cc02_edit.obj
 0002:00030a14       ??_C@_0N@GCCIDADG@eb?5c?5?$CD000311?$AA@ 10038a14     bncs_cc02_edit.obj
 0002:00030a24       ??_C@_0N@DBCFCPCF@oc?5c?5?$CD9098a8?$AA@ 10038a24     bncs_cc02_edit.obj
 0002:00030a34       ??_C@_0N@DGJIILPL@w?$CD?5c?5?$CD000312?$AA@ 10038a34     bncs_cc02_edit.obj
 0002:00030a44       ??_C@_0N@JAJKAAOF@vV?5c?5?$CD916f4d?$AA@ 10038a44     bncs_cc02_edit.obj
 0002:00030a54       ??_C@_0N@JBAMGFLM@r?$CD?5c?5?$CD00031b?$AA@ 10038a54     bncs_cc02_edit.obj
 0002:00030a64       ??_C@_0N@OOJEMLNK@cz?5c?5?$CD91704e?$AA@ 10038a64     bncs_cc02_edit.obj
 0002:00030a74       ??_C@_0N@HBJGGNJO@qB?5c?5?$CD000324?$AA@ 10038a74     bncs_cc02_edit.obj
 0002:00030a84       ??_C@_0N@IGALGDJP@?$CDH?5c?5?$CD917454?$AA@ 10038a84     bncs_cc02_edit.obj
 0002:00030a94       ??_C@_0N@LOCDBHFM@yn?5c?5?$CD00032f?$AA@ 10038a94     bncs_cc02_edit.obj
 0002:00030aa4       ??_C@_0N@IIPKLEME@ya?5c?5?$CD917554?$AA@ 10038aa4     bncs_cc02_edit.obj
 0002:00030ab4       ??_C@_0N@IDFPKLME@eY?5c?5?$CD000410?$AA@ 10038ab4     bncs_cc02_edit.obj
 0002:00030ac4       ??_C@_0N@LDHEIIPL@za?5c?5?$CD91887c?$AA@ 10038ac4     bncs_cc02_edit.obj
 0002:00030ad4       ??_C@_0N@LHJOGGHN@?4Z?5c?5?$CD000411?$AA@ 10038ad4     bncs_cc02_edit.obj
 0002:00030ae4       ??_C@_0N@CIJAFOLA@sN?5c?5?$CD918f8e?$AA@ 10038ae4     bncs_cc02_edit.obj
 0002:00030af4       ??_C@_0N@ENLIFHJL@tz?5c?5?$CD000418?$AA@ 10038af4     bncs_cc02_edit.obj
 0002:00030b04       ??_C@_0N@PMGDAHDH@qN?5c?5?$CD919191?$AA@ 10038b04     bncs_cc02_edit.obj
 0002:00030b14       ??_C@_0N@NFKFLOP@e?4?5c?5?$CD00041d?$AA@ 10038b14     bncs_cc02_edit.obj
 0002:00030b24       ??_C@_0N@NPIEBGHG@sR?5c?5?$CD919494?$AA@ 10038b24     bncs_cc02_edit.obj
 0002:00030b34       ??_C@_0N@OOABAIMD@xV?5c?5?$CD00041f?$AA@ 10038b34     bncs_cc02_edit.obj
 0002:00030b44       ??_C@_0N@PGPNFOJE@dg?5c?5?$CD91acd2?$AA@ 10038b44     bncs_cc02_edit.obj
 0002:00030b54       ??_C@_0N@IBGHAOKN@x7?5c?5?$CD000422?$AA@ 10038b54     bncs_cc02_edit.obj
 0002:00030b64       ??_C@_0N@PPDHILAE@jm?5c?5?$CD91acd3?$AA@ 10038b64     bncs_cc02_edit.obj
 0002:00030b74       ??_C@_0N@LBKMMGEN@?4M?5c?5?$CD00050d?$AA@ 10038b74     bncs_cc02_edit.obj
 0002:00030b84       ??_C@_0N@GBFHKJKO@hb?5c?5?$CD92725b?$AA@ 10038b84     bncs_cc02_edit.obj
 0002:00030b94       ??_C@_0N@BAGBIBCM@ut?5c?5?$CD000511?$AA@ 10038b94     bncs_cc02_edit.obj
 0002:00030ba4       ??_C@_0N@PPFIEGI@hV?5c?5?$CD92908f?$AA@ 10038ba4     bncs_cc02_edit.obj
 0002:00030bb4       ??_C@_0N@PLAILDNP@a7?5c?5?$CD000629?$AA@ 10038bb4     bncs_cc02_edit.obj
 0002:00030bc4       ??_C@_0N@PHLHEFAH@rR?5c?5?$CD929292?$AA@ 10038bc4     bncs_cc02_edit.obj
 0002:00030bd4       ??_C@_0N@JHHPJOCO@cW?5c?5?$CD000717?$AA@ 10038bd4     bncs_cc02_edit.obj
 0002:00030be4       ??_C@_0N@OGJLOBBG@hY?5c?5?$CD929394?$AA@ 10038be4     bncs_cc02_edit.obj
 0002:00030bf4       ??_C@_0N@BHLJCDEH@b6?5c?5?$CD00072a?$AA@ 10038bf4     bncs_cc02_edit.obj
 0002:00030c04       ??_C@_0N@BIAEKOIL@sx?5c?5?$CD929695?$AA@ 10038c04     bncs_cc02_edit.obj
 0002:00030c14       ??_C@_0N@CAFHNAE@?$CDq?5c?5?$CD000818?$AA@ 10038c14     bncs_cc02_edit.obj
 0002:00030c24       ??_C@_0N@FHNEBNB@w8?5c?5?$CD92acd0?$AA@ 10038c24     bncs_cc02_edit.obj
 0002:00030c34       ??_C@_0N@PNKJNONE@sw?5c?5?$CD000819?$AA@ 10038c34     bncs_cc02_edit.obj
 0002:00030c44       ??_C@_0N@PJKCOHAH@w9?5c?5?$CD936f45?$AA@ 10038c44     bncs_cc02_edit.obj
 0002:00030c54       ??_C@_0N@FIMIKNON@yh?5c?5?$CD000822?$AA@ 10038c54     bncs_cc02_edit.obj
 0002:00030c64       ??_C@_0N@BCOKMNAL@wz?5c?5?$CD936f49?$AA@ 10038c64     bncs_cc02_edit.obj
 0002:00030c74       ??_C@_0N@LLIIBJE@dw?5c?5?$CD00082f?$AA@ 10038c74     bncs_cc02_edit.obj
 0002:00030c84       ??_C@_0N@DMGNOLDJ@ed?5c?5?$CD937553?$AA@ 10038c84     bncs_cc02_edit.obj
 0002:00030c94       ??_C@_0N@GEMNHGGB@?4B?5c?5?$CD000912?$AA@ 10038c94     bncs_cc02_edit.obj
 0002:00030ca4       ??_C@_0N@PGDNDOJI@hL?5c?5?$CD939393?$AA@ 10038ca4     bncs_cc02_edit.obj
 0002:00030cb4       ??_C@_0N@KJBHNCBN@bJ?5c?5?$CD00091d?$AA@ 10038cb4     bncs_cc02_edit.obj
 0002:00030cc4       ??_C@_0N@OHALMJOM@tS?5c?5?$CD939597?$AA@ 10038cc4     bncs_cc02_edit.obj
 0002:00030cd4       ??_C@_0N@KDENBCOD@xe?5c?5?$CD000922?$AA@ 10038cd4     bncs_cc02_edit.obj
 0002:00030ce4       ??_C@_0N@DMLCHAPN@hC?5c?5?$CD93a5bd?$AA@ 10038ce4     bncs_cc02_edit.obj
 0002:00030cf4       ??_C@_0N@EHPGBAAF@wP?5c?5?$CD000925?$AA@ 10038cf4     bncs_cc02_edit.obj
 0002:00030d04       ??_C@_0N@FGCKBNO@qQ?5c?5?$CD93bae2?$AA@ 10038d04     bncs_cc02_edit.obj
 0002:00030d14       ??_C@_0N@KBMIDONG@ax?5c?5?$CD00092c?$AA@ 10038d14     bncs_cc02_edit.obj
 0002:00030d24       ??_C@_0N@KCIJKAOH@qR?5c?5?$CD94683f?$AA@ 10038d24     bncs_cc02_edit.obj
 0002:00030d34       ??_C@_0N@BDJLFDCD@ca?5c?5?$CD000a1d?$AA@ 10038d34     bncs_cc02_edit.obj
 0002:00030d44       ??_C@_0N@ECMIGOAE@sZ?5c?5?$CD949392?$AA@ 10038d44     bncs_cc02_edit.obj
 0002:00030d54       ??_C@_0N@HCKBEGIN@ub?5c?5?$CD000a2d?$AA@ 10038d54     bncs_cc02_edit.obj
 0002:00030d64       ??_C@_0N@FDALOENH@hc?5c?5?$CD949494?$AA@ 10038d64     bncs_cc02_edit.obj
 0002:00030d74       ??_C@_0N@IAAIGLFK@ee?5c?5?$CD000a2f?$AA@ 10038d74     bncs_cc02_edit.obj
 0002:00030d84       ??_C@_0N@OKPOCHMC@sT?5c?5?$CD949596?$AA@ 10038d84     bncs_cc02_edit.obj
 0002:00030d94       ??_C@_0N@LJEBMHKL@e7?5c?5?$CD000d22?$AA@ 10038d94     bncs_cc02_edit.obj
 0002:00030da4       ??_C@_0N@HAMAAGAA@i5?5c?5?$CD94b6d8?$AA@ 10038da4     bncs_cc02_edit.obj
 0002:00030db4       ??_C@_0N@EIODFDIN@qa?5c?5?$CD000d24?$AA@ 10038db4     bncs_cc02_edit.obj
 0002:00030dc4       ??_C@_0N@FKEJEFCN@yJ?5c?5?$CD958784?$AA@ 10038dc4     bncs_cc02_edit.obj
 0002:00030dd4       ??_C@_0N@CPHKBBFE@bZ?5c?5?$CD000f1e?$AA@ 10038dd4     bncs_cc02_edit.obj
 0002:00030de4       ??_C@_0N@OGLCBMOL@wW?5c?5?$CD958e89?$AA@ 10038de4     bncs_cc02_edit.obj
 0002:00030df4       ??_C@_0N@BGCFBNHJ@et?5c?5?$CD00102a?$AA@ 10038df4     bncs_cc02_edit.obj
 0002:00030e04       ??_C@_0N@PGDOBHJI@sX?5c?5?$CD959291?$AA@ 10038e04     bncs_cc02_edit.obj
 0002:00030e14       ??_C@_0N@BABIOMNC@vQ?5c?5?$CD00142a?$AA@ 10038e14     bncs_cc02_edit.obj
 0002:00030e24       ??_C@_0N@EEIMKBIC@h3?5c?5?$CD959391?$AA@ 10038e24     bncs_cc02_edit.obj
 0002:00030e34       ??_C@_0N@CNLNOBIA@i3?5c?5?$CD001438?$AA@ 10038e34     bncs_cc02_edit.obj
 0002:00030e44       ??_C@_0N@GAEFJPOJ@hQ?5c?5?$CD959494?$AA@ 10038e44     bncs_cc02_edit.obj
 0002:00030e54       ??_C@_0N@CDELLNPG@?$CDE?5c?5?$CD001532?$AA@ 10038e54     bncs_cc02_edit.obj
 0002:00030e64       ??_C@_0N@CIMHDPLJ@ms?5c?5?$CD959595?$AA@ 10038e64     bncs_cc02_edit.obj
 0002:00030e74       ??_C@_0N@BFCEOIFB@?4X?5c?5?$CD001539?$AA@ 10038e74     bncs_cc02_edit.obj
 0002:00030e84       ??_C@_0N@MJIHBILA@jR?5c?5?$CD959798?$AA@ 10038e84     bncs_cc02_edit.obj
 0002:00030e94       ??_C@_0N@GMDOPHOC@?4g?5c?5?$CD001734?$AA@ 10038e94     bncs_cc02_edit.obj
 0002:00030ea4       ??_C@_0N@BIGCPGLD@tv?5c?5?$CD959ea7?$AA@ 10038ea4     bncs_cc02_edit.obj
 0002:00030eb4       ??_C@_0N@MLOEEFCE@rp?5c?5?$CD001938?$AA@ 10038eb4     bncs_cc02_edit.obj
 0002:00030ec4       ??_C@_0N@OMPLCFPA@c3?5c?5?$CD959fa8?$AA@ 10038ec4     bncs_cc02_edit.obj
 0002:00030ed4       ??_C@_0N@DMFKDGMF@jI?5c?5?$CD001a36?$AA@ 10038ed4     bncs_cc02_edit.obj
 0002:00030ee4       ??_C@_0N@JINOKGEL@aA?5c?5?$CD95abbc?$AA@ 10038ee4     bncs_cc02_edit.obj
 0002:00030ef4       ??_C@_0N@NAFHMOEH@q5?5c?5?$CD001a38?$AA@ 10038ef4     bncs_cc02_edit.obj
 0002:00030f04       ??_C@_0N@KGAEIIEL@q7?5c?5?$CD95b4d5?$AA@ 10038f04     bncs_cc02_edit.obj
 0002:00030f14       ??_C@_0N@IPFNOEHF@xP?5c?5?$CD00294f?$AA@ 10038f14     bncs_cc02_edit.obj
 0002:00030f24       ??_C@_0N@NDAPONED@zs?5c?5?$CD95b5d4?$AA@ 10038f24     bncs_cc02_edit.obj
 0002:00030f34       ??_C@_0N@NDLNAMEF@c0?5c?5?$CD010000?$AA@ 10038f34     bncs_cc02_edit.obj
 0002:00030f44       ??_C@_0N@FKBHLNBE@nQ?5c?5?$CD967654?$AA@ 10038f44     bncs_cc02_edit.obj
 0002:00030f54       ??_C@_0N@BCJHOKFE@ls?5c?5?$CD010101?$AA@ 10038f54     bncs_cc02_edit.obj
 0002:00030f64       ??_C@_0N@MOJJMLDC@sB?5c?5?$CD969494?$AA@ 10038f64     bncs_cc02_edit.obj
 0002:00030f74       ??_C@_0N@JAPMBDGE@cZ?5c?5?$CD010203?$AA@ 10038f74     bncs_cc02_edit.obj
 0002:00030f84       ??_C@_0N@DPAFBOMN@si?5c?5?$CD969696?$AA@ 10038f84     bncs_cc02_edit.obj
 0002:00030f94       ??_C@_0N@MBDCKBKH@lU?5c?5?$CD010711?$AA@ 10038f94     bncs_cc02_edit.obj
 0002:00030fa4       ??_C@_0N@LOIKBDMP@eN?5c?5?$CD969897?$AA@ 10038fa4     bncs_cc02_edit.obj
 0002:00030fb4       ??_C@_0N@PEJPBAMC@ga?5c?5?$CD010a12?$AA@ 10038fb4     bncs_cc02_edit.obj
 0002:00030fc4       ??_C@_0N@LFEJELGK@h8?5c?5?$CD969898?$AA@ 10038fc4     bncs_cc02_edit.obj
 0002:00030fd4       ??_C@_0N@EJHLMMHN@zJ?5c?5?$CD010f1b?$AA@ 10038fd4     bncs_cc02_edit.obj
 0002:00030fe4       ??_C@_0N@ENCDFPKD@fh?5c?5?$CD969cab?$AA@ 10038fe4     bncs_cc02_edit.obj
 0002:00030ff4       ??_C@_0N@IJDFKDII@wR?5c?5?$CD01133e?$AA@ 10038ff4     bncs_cc02_edit.obj
 0002:00031004       ??_C@_0N@FOLHFCJI@wy?5c?5?$CD96b9db?$AA@ 10039004     bncs_cc02_edit.obj
 0002:00031014       ??_C@_0N@CCIAADDC@t0?5c?5?$CD011c3d?$AA@ 10039014     bncs_cc02_edit.obj
 0002:00031024       ??_C@_0N@FMMKBOPC@gr?5c?5?$CD979797?$AA@ 10039024     bncs_cc02_edit.obj
 0002:00031034       ??_C@_0N@DPJIBPAI@f3?5c?5?$CD020000?$AA@ 10039034     bncs_cc02_edit.obj
 0002:00031044       ??_C@_0N@NMCLLGGJ@wX?5c?5?$CD979899?$AA@ 10039044     bncs_cc02_edit.obj
 0002:00031054       ??_C@_0N@MFONGCEI@wj?5c?5?$CD020002?$AA@ 10039054     bncs_cc02_edit.obj
 0002:00031064       ??_C@_0N@PJGAGCCB@?$CDv?5c?5?$CD97a5b6?$AA@ 10039064     bncs_cc02_edit.obj
 0002:00031074       ??_C@_0N@ELOIAON@xM?5c?5?$CD020100?$AA@ 10039074     bncs_cc02_edit.obj
 0002:00031084       ??_C@_0N@PLDIFBFD@v6?5c?5?$CD987a61?$AA@ 10039084     bncs_cc02_edit.obj
 0002:00031094       ??_C@_0N@BKFBLGHB@jG?5c?5?$CD020202?$AA@ 10039094     bncs_cc02_edit.obj
 0002:000310a4       ??_C@_0N@MINLNKGM@yV?5c?5?$CD988d7c?$AA@ 100390a4     bncs_cc02_edit.obj
 0002:000310b4       ??_C@_0N@BANCLHIG@oa?5c?5?$CD020507?$AA@ 100390b4     bncs_cc02_edit.obj
 0002:000310c4       ??_C@_0N@LOMHEDD@nH?5c?5?$CD989898?$AA@ 100390c4     bncs_cc02_edit.obj
 0002:000310d4       ??_C@_0N@OOMONDAD@zl?5c?5?$CD020b19?$AA@ 100390d4     bncs_cc02_edit.obj
 0002:000310e4       ??_C@_0N@BMNEGGOB@rs?5c?5?$CD98a2ac?$AA@ 100390e4     bncs_cc02_edit.obj
 0002:000310f4       ??_C@_0N@EANANIOH@ah?5c?5?$CD02172f?$AA@ 100390f4     bncs_cc02_edit.obj
 0002:00031104       ??_C@_0N@KKOLKHAC@mo?5c?5?$CD997955?$AA@ 10039104     bncs_cc02_edit.obj
 0002:00031114       ??_C@_0N@EOPBEONN@vn?5c?5?$CD021a33?$AA@ 10039114     bncs_cc02_edit.obj
 0002:00031124       ??_C@_0N@BCIILODN@gj?5c?5?$CD999999?$AA@ 10039124     bncs_cc02_edit.obj
 0002:00031134       ??_C@_0N@CPOJPLLH@cv?5c?5?$CD021d3d?$AA@ 10039134     bncs_cc02_edit.obj
 0002:00031144       ??_C@_0N@LHFKCLEP@wY?5c?5?$CD99999a?$AA@ 10039144     bncs_cc02_edit.obj
 0002:00031154       ??_C@_0N@PCIBHCBM@xg?5c?5?$CD021d3e?$AA@ 10039154     bncs_cc02_edit.obj
 0002:00031164       ??_C@_0N@MHJFENKI@g5?5c?5?$CD99a3a7?$AA@ 10039164     bncs_cc02_edit.obj
 0002:00031174       ??_C@_0N@DJFCPEIH@dz?5c?5?$CD030000?$AA@ 10039174     bncs_cc02_edit.obj
 0002:00031184       ??_C@_0N@NICHMBIO@kN?5c?5?$CD99a4b0?$AA@ 10039184     bncs_cc02_edit.obj
 0002:00031194       ??_C@_0N@DPILAGGH@kZ?5c?5?$CD030303?$AA@ 10039194     bncs_cc02_edit.obj
 0002:000311a4       ??_C@_0N@MAGOFDIP@u?$CD?5c?5?$CD99b8cf?$AA@ 100391a4     bncs_cc02_edit.obj
 0002:000311b4       ??_C@_0N@EGCHFOLC@oh?5c?5?$CD030507?$AA@ 100391b4     bncs_cc02_edit.obj
 0002:000311c4       ??_C@_0N@PMHELMHE@t?$CD?5c?5?$CD9a7b59?$AA@ 100391c4     bncs_cc02_edit.obj
 0002:000311d4       ??_C@_0N@KKCMHKGE@kv?5c?5?$CD030b19?$AA@ 100391d4     bncs_cc02_edit.obj
 0002:000311e4       ??_C@_0N@KCJPFFEI@j3?5c?5?$CD9a846a?$AA@ 100391e4     bncs_cc02_edit.obj
 0002:000311f4       ??_C@_0N@MGLOMGOF@lv?5c?5?$CD030f17?$AA@ 100391f4     bncs_cc02_edit.obj
 0002:00031204       ??_C@_0N@OGPEBNAE@jM?5c?5?$CD9a9896?$AA@ 10039204     bncs_cc02_edit.obj
 0002:00031214       ??_C@_0N@JIGBEBPH@ta?5c?5?$CD031026?$AA@ 10039214     bncs_cc02_edit.obj
 0002:00031224       ??_C@_0N@OIKFBME@eC?5c?5?$CD9a9998?$AA@ 10039224     bncs_cc02_edit.obj
 0002:00031234       ??_C@_0N@LJNDOPKB@n1?5c?5?$CD031125?$AA@ 10039234     bncs_cc02_edit.obj
 0002:00031244       ??_C@_0N@IPNHEGA@ep?5c?5?$CD9a9a9a?$AA@ 10039244     bncs_cc02_edit.obj
 0002:00031254       ??_C@_0N@FINEAAFK@nP?5c?5?$CD031c37?$AA@ 10039254     bncs_cc02_edit.obj
 0002:00031264       ??_C@_0N@KCEHEHNP@wL?5c?5?$CD9a9b9d?$AA@ 10039264     bncs_cc02_edit.obj
 0002:00031274       ??_C@_0N@LKEJDGCO@xF?5c?5?$CD031d3e?$AA@ 10039274     bncs_cc02_edit.obj
 0002:00031284       ??_C@_0N@MLJPAECB@?$CDl?5c?5?$CD9aa2ae?$AA@ 10039284     bncs_cc02_edit.obj
 0002:00031294       ??_C@_0N@CHLHFEC@af?5c?5?$CD031e3f?$AA@ 10039294     bncs_cc02_edit.obj
 0002:000312a4       ??_C@_0N@BJBDFKHC@qU?5c?5?$CD9abcde?$AA@ 100392a4     bncs_cc02_edit.obj
 0002:000312b4       ??_C@_0N@PGPFPKFL@dP?5c?5?$CD031f3f?$AA@ 100392b4     bncs_cc02_edit.obj
 0002:000312c4       ??_C@_0N@JDKENIJK@eS?5c?5?$CD9b9a99?$AA@ 100392c4     bncs_cc02_edit.obj
 0002:000312d4       ??_C@_0N@PFIKCIEJ@?$CDF?5c?5?$CD040000?$AA@ 100392d4     bncs_cc02_edit.obj
 0002:000312e4       ??_C@_0N@OIPGALBI@s?$CD?5c?5?$CD9b9b9b?$AA@ 100392e4     bncs_cc02_edit.obj
 0002:000312f4       ??_C@_0N@BFNMMMID@is?5c?5?$CD040404?$AA@ 100392f4     bncs_cc02_edit.obj
 0002:00031304       ??_C@_0N@CEAKEPHI@xD?5c?5?$CD9bb9d8?$AA@ 10039304     bncs_cc02_edit.obj
 0002:00031314       ??_C@_0N@NJKFNJNA@kK?5c?5?$CD040708?$AA@ 10039314     bncs_cc02_edit.obj
 0002:00031324       ??_C@_0N@HGNGIPBB@jJ?5c?5?$CD9c7d58?$AA@ 10039324     bncs_cc02_edit.obj
 0002:00031334       ??_C@_0N@JFHAHEDO@sQ?5c?5?$CD040e1f?$AA@ 10039334     bncs_cc02_edit.obj
 0002:00031344       ??_C@_0N@GBDCIMPI@hF?5c?5?$CD9c9c9c?$AA@ 10039344     bncs_cc02_edit.obj
 0002:00031354       ??_C@_0N@MIEPPMEJ@rB?5c?5?$CD041d3c?$AA@ 10039354     bncs_cc02_edit.obj
 0002:00031364       ??_C@_0N@FILAGNJL@jw?5c?5?$CD9c9ea0?$AA@ 10039364     bncs_cc02_edit.obj
 0002:00031374       ??_C@_0N@NFGGJMOJ@qJ?5c?5?$CD041d42?$AA@ 10039374     bncs_cc02_edit.obj
 0002:00031384       ??_C@_0N@CKMALL@vc?5c?5?$CD9cbddb?$AA@ 10039384     bncs_cc02_edit.obj
 0002:00031394       ??_C@_0N@DNMNJMOE@cf?5c?5?$CD042e4f?$AA@ 10039394     bncs_cc02_edit.obj
 0002:000313a4       ??_C@_0N@OLOEJKAH@eh?5c?5?$CD9cbeda?$AA@ 100393a4     bncs_cc02_edit.obj
 0002:000313b4       ??_C@_0N@CHMKEJO@?4U?5c?5?$CD050000?$AA@ 100393b4     bncs_cc02_edit.obj
 0002:000313c4       ??_C@_0N@NFJGKNMD@lq?5c?5?$CD9d9a92?$AA@ 100393c4     bncs_cc02_edit.obj
 0002:000313d4       ??_C@_0N@OLJMNDOO@if?5c?5?$CD050505?$AA@ 100393d4     bncs_cc02_edit.obj
 0002:000313e4       ??_C@_0N@KIKNGEMA@hN?5c?5?$CD9d9d9d?$AA@ 100393e4     bncs_cc02_edit.obj
 0002:000313f4       ??_C@_0N@KKNKEOK@dK?5c?5?$CD050607?$AA@ 100393f4     bncs_cc02_edit.obj
 0002:00031404       ??_C@_0N@KDHHDCHO@hZ?5c?5?$CD9d9ea0?$AA@ 10039404     bncs_cc02_edit.obj
 0002:00031414       ??_C@_0N@IDBDANOC@bm?5c?5?$CD050a0e?$AA@ 10039414     bncs_cc02_edit.obj
 0002:00031424       ??_C@_0N@BLJNALHP@kf?5c?5?$CD9db8d4?$AA@ 10039424     bncs_cc02_edit.obj
 0002:00031434       ??_C@_0N@BHBDEIEA@fp?5c?5?$CD050a10?$AA@ 10039434     bncs_cc02_edit.obj
 0002:00031444       ??_C@_0N@PEFHNFKM@un?5c?5?$CD9dc2dc?$AA@ 10039444     bncs_cc02_edit.obj
 0002:00031454       ??_C@_0N@NFFJBEMI@az?5c?5?$CD050f18?$AA@ 10039454     bncs_cc02_edit.obj
 0002:00031464       ??_C@_0N@BELNHOJF@n?$CD?5c?5?$CD9e7f5a?$AA@ 10039464     bncs_cc02_edit.obj
 0002:00031474       ??_C@_0N@PFOJHACJ@hO?5c?5?$CD051022?$AA@ 10039474     bncs_cc02_edit.obj
 0002:00031484       ??_C@_0N@HICDMFKA@?45?5c?5?$CD9e7f5c?$AA@ 10039484     bncs_cc02_edit.obj
 0002:00031494       ??_C@_0N@COHEMANG@tM?5c?5?$CD051023?$AA@ 10039494     bncs_cc02_edit.obj
 0002:000314a4       ??_C@_0N@OJABJAPE@?$CD9?5c?5?$CD9e918a?$AA@ 100394a4     bncs_cc02_edit.obj
 0002:000314b4       ??_C@_0N@BFLEJAGE@ty?5c?5?$CD052346?$AA@ 100394b4     bncs_cc02_edit.obj
 0002:000314c4       ??_C@_0N@OIHMAFND@lO?5c?5?$CD9e9b93?$AA@ 100394c4     bncs_cc02_edit.obj
 0002:000314d4       ??_C@_0N@FNPDCAKM@sD?5c?5?$CD060000?$AA@ 100394d4     bncs_cc02_edit.obj
 0002:000314e4       ??_C@_0N@GKGBABBM@qO?5c?5?$CD9e9e9e?$AA@ 100394e4     bncs_cc02_edit.obj
 0002:000314f4       ??_C@_0N@EJGNBPIB@fH?5c?5?$CD060100?$AA@ 100394f4     bncs_cc02_edit.obj
 0002:00031504       ??_C@_0N@NHALCEAE@hP?5c?5?$CD9ea1a1?$AA@ 10039504     bncs_cc02_edit.obj
 0002:00031514       ??_C@_0N@OAKFPLBO@hM?5c?5?$CD060606?$AA@ 10039514     bncs_cc02_edit.obj
 0002:00031524       ??_C@_0N@GILJGNIO@e3?5c?5?$CD9f805d?$AA@ 10039524     bncs_cc02_edit.obj
 0002:00031534       ??_C@_0N@IJFDDILL@f1?5c?5?$CD060c11?$AA@ 10039534     bncs_cc02_edit.obj
 0002:00031544       ??_C@_0N@FLCJJMKG@bQ?5c?5?$CD9f815f?$AA@ 10039544     bncs_cc02_edit.obj
 0002:00031554       ??_C@_0N@EDCOGFMK@ve?5c?5?$CD060e15?$AA@ 10039554     bncs_cc02_edit.obj
 0002:00031564       ??_C@_0N@LFNJFDAB@jh?5c?5?$CD9f8a71?$AA@ 10039564     bncs_cc02_edit.obj
 0002:00031574       ??_C@_0N@EKEJLLGM@r0?5c?5?$CD061019?$AA@ 10039574     bncs_cc02_edit.obj
 0002:00031584       ??_C@_0N@EGGKOLHI@rx?5c?5?$CD9f988b?$AA@ 10039584     bncs_cc02_edit.obj
 0002:00031594       ??_C@_0N@PAKHOMFE@oT?5c?5?$CD06132a?$AA@ 10039594     bncs_cc02_edit.obj
 0002:000315a4       ??_C@_0N@MOLFCLLP@hU?5c?5?$CD9f9d9b?$AA@ 100395a4     bncs_cc02_edit.obj
 0002:000315b4       ??_C@_0N@JCAGEJCN@rd?5c?5?$CD062d52?$AA@ 100395b4     bncs_cc02_edit.obj
 0002:000315c4       ??_C@_0N@NJJIAIKD@sh?5c?5?$CD9f9f9f?$AA@ 100395c4     bncs_cc02_edit.obj
 0002:000315d4       ??_C@_0N@CBPCFIBI@aJ?5c?5?$CD063050?$AA@ 100395d4     bncs_cc02_edit.obj
 0002:000315e4       ??_C@_0N@PJBGAJLB@hW?5c?5?$CD9fafbc?$AA@ 100395e4     bncs_cc02_edit.obj
 0002:000315f4       ??_C@_0N@MLGAMJGH@dQ?5c?5?$CD070000?$AA@ 100395f4     bncs_cc02_edit.obj
 0002:00031604       ??_C@_0N@EMEDFPCE@uK?5c?5?$CD9fbad0?$AA@ 10039604     bncs_cc02_edit.obj
 0002:00031614       ??_C@_0N@KCLODDEF@fu?5c?5?$CD070300?$AA@ 10039614     bncs_cc02_edit.obj
 0002:00031624       ??_C@_0N@NCEGHBGH@ch?5c?5?$CD9fbcd7?$AA@ 10039624     bncs_cc02_edit.obj
 0002:00031634       ??_C@_0N@GAFFPJEA@g3?5c?5?$CD070707?$AA@ 10039634     bncs_cc02_edit.obj
 0002:00031644       ??_C@_0N@PCEBGIAL@vJ?5c?5?$CD9fc2e5?$AA@ 10039644     bncs_cc02_edit.obj
 0002:00031654       ??_C@_0N@KCDDPKPL@f4?5c?5?$CD070f16?$AA@ 10039654     bncs_cc02_edit.obj
 0002:00031664       ??_C@_0N@MAHBFIPM@cF?5c?5?$CD9fc4de?$AA@ 10039664     bncs_cc02_edit.obj
 0002:00031674       ??_C@_0N@CLLPCHGP@zh?5c?5?$CD07111a?$AA@ 10039674     bncs_cc02_edit.obj
 0002:00031684       ??_C@_0N@NFKDPBPM@rI?5c?5?$CD9fc4e8?$AA@ 10039684     bncs_cc02_edit.obj
 0002:00031694       ??_C@_0N@PHOOBEPG@as?5c?5?$CD07151d?$AA@ 10039694     bncs_cc02_edit.obj
 0002:000316a4       ??_C@_0N@FBMAELJ@yS?5c?5?$CDa0815e?$AA@ 100396a4     bncs_cc02_edit.obj
 0002:000316b4       ??_C@_0N@KGLGAFJF@jo?5c?5?$CD071738?$AA@ 100396b4     bncs_cc02_edit.obj
 0002:000316c4       ??_C@_0N@IOGHDLEO@hn?5c?5?$CDa0876b?$AA@ 100396c4     bncs_cc02_edit.obj
 0002:000316d4       ??_C@_0N@FABIBINN@ui?5c?5?$CD073151?$AA@ 100396d4     bncs_cc02_edit.obj
 0002:000316e4       ??_C@_0N@HEMOANME@xk?5c?5?$CDa09689?$AA@ 100396e4     bncs_cc02_edit.obj
 0002:000316f4       ??_C@_0N@GBPFDHCC@sL?5c?5?$CD080000?$AA@ 100396f4     bncs_cc02_edit.obj
 0002:00031704       ??_C@_0N@OGIPKJPL@xy?5c?5?$CDa0968a?$AA@ 10039704     bncs_cc02_edit.obj
 0002:00031714       ??_C@_0N@LHMLKMHC@nE?5c?5?$CD080100?$AA@ 10039714     bncs_cc02_edit.obj
 0002:00031724       ??_C@_0N@GOGCBDIM@ru?5c?5?$CDa09f9d?$AA@ 10039724     bncs_cc02_edit.obj
 0002:00031734       ??_C@_0N@JFGPJNFB@sV?5c?5?$CD080300?$AA@ 10039734     bncs_cc02_edit.obj
 0002:00031744       ??_C@_0N@PKGMCGCC@lP?5c?5?$CDa0a0a0?$AA@ 10039744     bncs_cc02_edit.obj
 0002:00031754       ??_C@_0N@DKDFPMEO@fW?5c?5?$CD080400?$AA@ 10039754     bncs_cc02_edit.obj
 0002:00031764       ??_C@_0N@IHJIAHJN@tN?5c?5?$CDa0a3a4?$AA@ 10039764     bncs_cc02_edit.obj
 0002:00031774       ??_C@_0N@DIHJGAGI@k1?5c?5?$CD080808?$AA@ 10039774     bncs_cc02_edit.obj
 0002:00031784       ??_C@_0N@MAJBKKIH@dA?5c?5?$CDa0c1e2?$AA@ 10039784     bncs_cc02_edit.obj
 0002:00031794       ??_C@_0N@HKALEBGJ@oi?5c?5?$CD080908?$AA@ 10039794     bncs_cc02_edit.obj
 0002:000317a4       ??_C@_0N@MIOJLKKK@mn?5c?5?$CDa0c3e5?$AA@ 100397a4     bncs_cc02_edit.obj
 0002:000317b4       ??_C@_0N@FGNPPAAO@rV?5c?5?$CD08111b?$AA@ 100397b4     bncs_cc02_edit.obj
 0002:000317c4       ??_C@_0N@IPLPBFCG@rz?5c?5?$CDa0c6ec?$AA@ 100397c4     bncs_cc02_edit.obj
 0002:000317d4       ??_C@_0N@POLNKMCO@fk?5c?5?$CD08111d?$AA@ 100397d4     bncs_cc02_edit.obj
 0002:000317e4       ??_C@_0N@CNJOLLCB@hX?5c?5?$CDa1938a?$AA@ 100397e4     bncs_cc02_edit.obj
 0002:000317f4       ??_C@_0N@NIPIDOJC@a9?5c?5?$CD081833?$AA@ 100397f4     bncs_cc02_edit.obj
 0002:00031804       ??_C@_0N@PBCNJMO@bt?5c?5?$CDa1968c?$AA@ 10039804     bncs_cc02_edit.obj
 0002:00031814       ??_C@_0N@CKKMGFIH@?$CDW?5c?5?$CD081935?$AA@ 10039814     bncs_cc02_edit.obj
 0002:00031824       ??_C@_0N@GDLMGFAH@qP?5c?5?$CDa1a1a1?$AA@ 10039824     bncs_cc02_edit.obj
 0002:00031834       ??_C@_0N@BNGAFDOI@cd?5c?5?$CD081b3b?$AA@ 10039834     bncs_cc02_edit.obj
 0002:00031844       ??_C@_0N@JMJGJKMG@hR?5c?5?$CDa1a2a3?$AA@ 10039844     bncs_cc02_edit.obj
 0002:00031854       ??_C@_0N@NMBGHJBH@bN?5c?5?$CD081c3d?$AA@ 10039854     bncs_cc02_edit.obj
 0002:00031864       ??_C@_0N@ENLDHACI@zd?5c?5?$CDa1a9b0?$AA@ 10039864     bncs_cc02_edit.obj
 0002:00031874       ??_C@_0N@NEGEJOFF@j2?5c?5?$CD081e3b?$AA@ 10039874     bncs_cc02_edit.obj
 0002:00031884       ??_C@_0N@HEDEFGAB@aa?5c?5?$CDa1acb6?$AA@ 10039884     bncs_cc02_edit.obj
 0002:00031894       ??_C@_0N@HHANDNKL@cg?5c?5?$CD090000?$AA@ 10039894     bncs_cc02_edit.obj
 0002:000318a4       ??_C@_0N@DPFHKMIE@nS?5c?5?$CDa1c0e4?$AA@ 100398a4     bncs_cc02_edit.obj
 0002:000318b4       ??_C@_0N@EHMNKGBI@s7?5c?5?$CD090100?$AA@ 100398b4     bncs_cc02_edit.obj
 0002:000318c4       ??_C@_0N@JILEJMPP@dx?5c?5?$CDa28560?$AA@ 100398c4     bncs_cc02_edit.obj
 0002:000318d4       ??_C@_0N@NNBENFPP@ps?5c?5?$CD090909?$AA@ 100398d4     bncs_cc02_edit.obj
 0002:000318e4       ??_C@_0N@JGPFNKMG@tc?5c?5?$CDa2856e?$AA@ 100398e4     bncs_cc02_edit.obj
 0002:000318f4       ??_C@_0N@LBBIOAKG@ld?5c?5?$CD091b38?$AA@ 100398f4     bncs_cc02_edit.obj
 0002:00031904       ??_C@_0N@KICPICD@ar?5c?5?$CDa28b72?$AA@ 10039904     bncs_cc02_edit.obj
 0002:00031914       ??_C@_0N@CJLCCGCO@op?5c?5?$CD091d3e?$AA@ 10039914     bncs_cc02_edit.obj
 0002:00031924       ??_C@_0N@CIJAJKGB@nn?5c?5?$CDa29189?$AA@ 10039924     bncs_cc02_edit.obj
 0002:00031934       ??_C@_0N@KIGODBDC@ih?5c?5?$CD091d3f?$AA@ 10039934     bncs_cc02_edit.obj
 0002:00031944       ??_C@_0N@MIFCJCID@gP?5c?5?$CDa2a2a2?$AA@ 10039944     bncs_cc02_edit.obj
 0002:00031954       ??_C@_0N@OKLHJEAD@aK?5c?5?$CD0a0000?$AA@ 10039954     bncs_cc02_edit.obj
 0002:00031964       ??_C@_0N@JHBLLGKF@aZ?5c?5?$CDa2acb6?$AA@ 10039964     bncs_cc02_edit.obj
 0002:00031974       ??_C@_0N@BAGLOAAC@?4D?5c?5?$CD0a0300?$AA@ 10039974     bncs_cc02_edit.obj
 0002:00031984       ??_C@_0N@BKAIFHPE@ok?5c?5?$CDa2adc2?$AA@ 10039984     bncs_cc02_edit.obj
 0002:00031994       ??_C@_0N@JDOAKNBL@yk?5c?5?$CD0a0400?$AA@ 10039994     bncs_cc02_edit.obj
 0002:000319a4       ??_C@_0N@EAHAJHJM@aT?5c?5?$CDa2bcd3?$AA@ 100399a4     bncs_cc02_edit.obj
 0002:000319b4       ??_C@_0N@HGHOJKNA@lI?5c?5?$CD0a0500?$AA@ 100399b4     bncs_cc02_edit.obj
 0002:000319c4       ??_C@_0N@BGMDJJAC@xN?5c?5?$CDa2c8eb?$AA@ 100399c4     bncs_cc02_edit.obj
 0002:000319d4       ??_C@_0N@LMAKEKGO@pM?5c?5?$CD0a0a0a?$AA@ 100399d4     bncs_cc02_edit.obj
 0002:000319e4       ??_C@_0N@BJOOEMFF@jY?5c?5?$CDa38b74?$AA@ 100399e4     bncs_cc02_edit.obj
 0002:000319f4       ??_C@_0N@KNCIDOAG@?4Q?5c?5?$CD0a141b?$AA@ 100399f4     bncs_cc02_edit.obj
 0002:00031a04       ??_C@_0N@CLNBKOAH@ml?5c?5?$CDa39b8c?$AA@ 10039a04     bncs_cc02_edit.obj
 0002:00031a14       ??_C@_0N@EECNIJMD@td?5c?5?$CD0a141d?$AA@ 10039a14     bncs_cc02_edit.obj
 0002:00031a24       ??_C@_0N@COAFHDNF@sb?5c?5?$CDa3a3a3?$AA@ 10039a24     bncs_cc02_edit.obj
 0002:00031a34       ??_C@_0N@GLEIADAH@zx?5c?5?$CD0a1420?$AA@ 10039a34     bncs_cc02_edit.obj
 0002:00031a44       ??_C@_0N@INPEAEAC@tO?5c?5?$CDa3a5a6?$AA@ 10039a44     bncs_cc02_edit.obj
 0002:00031a54       ??_C@_0N@HMPHMIFA@kd?5c?5?$CD0a1e40?$AA@ 10039a54     bncs_cc02_edit.obj
 0002:00031a64       ??_C@_0N@JLEFAJHB@ec?5c?5?$CDa3b4c8?$AA@ 10039a64     bncs_cc02_edit.obj
 0002:00031a74       ??_C@_0N@KACCFLNC@mg?5c?5?$CD0a1f41?$AA@ 10039a74     bncs_cc02_edit.obj
 0002:00031a84       ??_C@_0N@IJMMIKJA@w3?5c?5?$CDa48865?$AA@ 10039a84     bncs_cc02_edit.obj
 0002:00031a94       ??_C@_0N@MILEGODM@aL?5c?5?$CD0a2946?$AA@ 10039a94     bncs_cc02_edit.obj
 0002:00031aa4       ??_C@_0N@JDJGKLPD@wM?5c?5?$CDa49685?$AA@ 10039aa4     bncs_cc02_edit.obj
 0002:00031ab4       ??_C@_0N@CHNPJDHC@qv?5c?5?$CD0a2c56?$AA@ 10039ab4     bncs_cc02_edit.obj
 0002:00031ac4       ??_C@_0N@BEKIODLF@rt?5c?5?$CDa4a3a2?$AA@ 10039ac4     bncs_cc02_edit.obj
 0002:00031ad4       ??_C@_0N@GOAEGCCC@qS?5c?5?$CD0a3259?$AA@ 10039ad4     bncs_cc02_edit.obj
 0002:00031ae4       ??_C@_0N@OKEMIGPL@r8?5c?5?$CDa4a4a4?$AA@ 10039ae4     bncs_cc02_edit.obj
 0002:00031af4       ??_C@_0N@MNNJMMOE@kJ?5c?5?$CD0b0000?$AA@ 10039af4     bncs_cc02_edit.obj
 0002:00031b04       ??_C@_0N@HCAODDIO@cl?5c?5?$CDa4b5c6?$AA@ 10039b04     bncs_cc02_edit.obj
 0002:00031b14       ??_C@_0N@JFKLLCCC@io?5c?5?$CD0b0100?$AA@ 10039b14     bncs_cc02_edit.obj
 0002:00031b24       ??_C@_0N@KBEAOAJJ@a5?5c?5?$CDa4c5e5?$AA@ 10039b24     bncs_cc02_edit.obj
 0002:00031b34       ??_C@_0N@HGJLBMKK@mV?5c?5?$CD0b0300?$AA@ 10039b34     bncs_cc02_edit.obj
 0002:00031b44       ??_C@_0N@PDAFKLMJ@qF?5c?5?$CDa5876b?$AA@ 10039b44     bncs_cc02_edit.obj
 0002:00031b54       ??_C@_0N@KCLHLGPF@?4x?5c?5?$CD0b0500?$AA@ 10039b54     bncs_cc02_edit.obj
 0002:00031b64       ??_C@_0N@PDGJMDLD@pg?5c?5?$CDa59990?$AA@ 10039b64     bncs_cc02_edit.obj
 0002:00031b74       ??_C@_0N@NEKDFGJ@o?$CD?5c?5?$CD0b0908?$AA@ 10039b74     bncs_cc02_edit.obj
 0002:00031b84       ??_C@_0N@DIHHCCDF@q4?5c?5?$CDa5a5a5?$AA@ 10039b84     bncs_cc02_edit.obj
 0002:00031b94       ??_C@_0N@HNKMJDKD@dU?5c?5?$CD0b0b0b?$AA@ 10039b94     bncs_cc02_edit.obj
 0002:00031ba4       ??_C@_0N@CFMLIHAM@tX?5c?5?$CDa5b2bb?$AA@ 10039ba4     bncs_cc02_edit.obj
 0002:00031bb4       ??_C@_0N@IMBLLONG@ez?5c?5?$CD0b192f?$AA@ 10039bb4     bncs_cc02_edit.obj
 0002:00031bc4       ??_C@_0N@KNHEGGL@tw?5c?5?$CDa6a4a3?$AA@ 10039bc4     bncs_cc02_edit.obj
 0002:00031bd4       ??_C@_0N@HCPBLCAM@fb?5c?5?$CD0b1f42?$AA@ 10039bd4     bncs_cc02_edit.obj
 0002:00031be4       ??_C@_0N@COHLPDKL@nl?5c?5?$CDa6a6a6?$AA@ 10039be4     bncs_cc02_edit.obj
 0002:00031bf4       ??_C@_0N@OFPBEDDG@xG?5c?5?$CD0b203e?$AA@ 10039bf4     bncs_cc02_edit.obj
 0002:00031c04       ??_C@_0N@IFCNIML@uG?5c?5?$CDa79e92?$AA@ 10039c04     bncs_cc02_edit.obj
 0002:00031c14       ??_C@_0N@PJCLMHDE@?$CDc?5c?5?$CD0b2043?$AA@ 10039c14     bncs_cc02_edit.obj
 0002:00031c24       ??_C@_0N@KIECKHBP@iu?5c?5?$CDa7a7a7?$AA@ 10039c24     bncs_cc02_edit.obj
 0002:00031c34       ??_C@_0N@OJCEDCHK@ho?5c?5?$CD0b2044?$AA@ 10039c34     bncs_cc02_edit.obj
 0002:00031c44       ??_C@_0N@DKIDJJEJ@wZ?5c?5?$CDa7a9a1?$AA@ 10039c44     bncs_cc02_edit.obj
 0002:00031c54       ??_C@_0N@PDFLOALB@qY?5c?5?$CD0c0000?$AA@ 10039c54     bncs_cc02_edit.obj
 0002:00031c64       ??_C@_0N@EOGJCGIF@pC?5c?5?$CDa8a8a8?$AA@ 10039c64     bncs_cc02_edit.obj
 0002:00031c74       ??_C@_0N@IGNKKOPB@k8?5c?5?$CD0c0c0c?$AA@ 10039c74     bncs_cc02_edit.obj
 0002:00031c84       ??_C@_0N@IFOEMNKC@oG?5c?5?$CDa8b3c0?$AA@ 10039c84     bncs_cc02_edit.obj
 0002:00031c94       ??_C@_0N@PNFOKFID@uc?5c?5?$CD0c1623?$AA@ 10039c94     bncs_cc02_edit.obj
 0002:00031ca4       ??_C@_0N@JIFGFHBA@jg?5c?5?$CDa8c0d2?$AA@ 10039ca4     bncs_cc02_edit.obj
 0002:00031cb4       ??_C@_0N@LELNDJAC@wt?5c?5?$CD0c2031?$AA@ 10039cb4     bncs_cc02_edit.obj
 0002:00031cc4       ??_C@_0N@FNDFIJEA@w6?5c?5?$CDa8c0da?$AA@ 10039cc4     bncs_cc02_edit.obj
 0002:00031cd4       ??_C@_0N@CMPIAJFL@hq?5c?5?$CD0c2132?$AA@ 10039cd4     bncs_cc02_edit.obj
 0002:00031ce4       ??_C@_0N@HDEGBFPD@wk?5c?5?$CDa8c5e1?$AA@ 10039ce4     bncs_cc02_edit.obj
 0002:00031cf4       ??_C@_0N@DHDJPPGM@hG?5c?5?$CD0c3554?$AA@ 10039cf4     bncs_cc02_edit.obj
 0002:00031d04       ??_C@_0N@PEEFLABO@jj?5c?5?$CDa98063?$AA@ 10039d04     bncs_cc02_edit.obj
 0002:00031d14       ??_C@_0N@LOFDNCBL@b2?5c?5?$CD0d0000?$AA@ 10039d14     bncs_cc02_edit.obj
 0002:00031d24       ??_C@_0N@NKNCHKGK@xH?5c?5?$CDa98a66?$AA@ 10039d24     bncs_cc02_edit.obj
 0002:00031d34       ??_C@_0N@CLHNBIAK@um?5c?5?$CD0d0300?$AA@ 10039d34     bncs_cc02_edit.obj
 0002:00031d44       ??_C@_0N@NGMKJFMA@m7?5c?5?$CDa9a8a7?$AA@ 10039d44     bncs_cc02_edit.obj
 0002:00031d54       ??_C@_0N@KLKCIIMB@jl?5c?5?$CD0d0d0d?$AA@ 10039d54     bncs_cc02_edit.obj
 0002:00031d64       ??_C@_0N@KNNJFNAA@m1?5c?5?$CDa9c2d8?$AA@ 10039d64     bncs_cc02_edit.obj
 0002:00031d74       ??_C@_0N@KKNPBEAI@mp?5c?5?$CD0d0f10?$AA@ 10039d74     bncs_cc02_edit.obj
 0002:00031d84       ??_C@_0N@GJMCCCMP@q8?5c?5?$CDaa8d6c?$AA@ 10039d84     bncs_cc02_edit.obj
 0002:00031d94       ??_C@_0N@MGBHFFBA@zF?5c?5?$CD0d263f?$AA@ 10039d94     bncs_cc02_edit.obj
 0002:00031da4       ??_C@_0N@JADBJFDK@ig?5c?5?$CDaaaaaa?$AA@ 10039da4     bncs_cc02_edit.obj
 0002:00031db4       ??_C@_0N@GNAMNKOP@s9?5c?5?$CD0e0000?$AA@ 10039db4     bncs_cc02_edit.obj
 0002:00031dc4       ??_C@_0N@DPDMJGNM@bo?5c?5?$CDaab5bf?$AA@ 10039dc4     bncs_cc02_edit.obj
 0002:00031dd4       ??_C@_0N@EIBJIHBL@s0?5c?5?$CD0e0100?$AA@ 10039dd4     bncs_cc02_edit.obj
 0002:00031de4       ??_C@_0N@IPFNFNDJ@tD?5c?5?$CDaabac4?$AA@ 10039de4     bncs_cc02_edit.obj
 0002:00031df4       ??_C@_0N@GOAGMKIF@ng?5c?5?$CD0e0600?$AA@ 10039df4     bncs_cc02_edit.obj
 0002:00031e04       ??_C@_0N@BBELPANN@rb?5c?5?$CDaacdea?$AA@ 10039e04     bncs_cc02_edit.obj
 0002:00031e14       ??_C@_0N@LIGODMA@?4P?5c?5?$CD0e0700?$AA@ 10039e14     bncs_cc02_edit.obj
 0002:00031e24       ??_C@_0N@BLIOKEG@xx?5c?5?$CDabaaaa?$AA@ 10039e24     bncs_cc02_edit.obj
 0002:00031e34       ??_C@_0N@COJNOHAK@mq?5c?5?$CD0e0e0e?$AA@ 10039e34     bncs_cc02_edit.obj
 0002:00031e44       ??_C@_0N@NGPLAJLF@sd?5c?5?$CDababab?$AA@ 10039e44     bncs_cc02_edit.obj
 0002:00031e54       ??_C@_0N@HDKGIHFH@mH?5c?5?$CD0e0f10?$AA@ 10039e54     bncs_cc02_edit.obj
 0002:00031e64       ??_C@_0N@BNPAOLMG@vK?5c?5?$CDac8b6a?$AA@ 10039e64     bncs_cc02_edit.obj
 0002:00031e74       ??_C@_0N@OBKDPMDJ@rD?5c?5?$CD0e1215?$AA@ 10039e74     bncs_cc02_edit.obj
 0002:00031e84       ??_C@_0N@INABBBEB@mZ?5c?5?$CDac9884?$AA@ 10039e84     bncs_cc02_edit.obj
 0002:00031e94       ??_C@_0N@BLDKOOLL@oF?5c?5?$CD0e1f2d?$AA@ 10039e94     bncs_cc02_edit.obj
 0002:00031ea4       ??_C@_0N@NGNDCKHH@fn?5c?5?$CDac9d97?$AA@ 10039ea4     bncs_cc02_edit.obj
 0002:00031eb4       ??_C@_0N@OGOGMMFN@rG?5c?5?$CD0e3358?$AA@ 10039eb4     bncs_cc02_edit.obj
 0002:00031ec4       ??_C@_0N@DAGHKHOA@qf?5c?5?$CDacacac?$AA@ 10039ec4     bncs_cc02_edit.obj
 0002:00031ed4       ??_C@_0N@DJMPMNCO@a1?5c?5?$CD0f0000?$AA@ 10039ed4     bncs_cc02_edit.obj
 0002:00031ee4       ??_C@_0N@MIDABDGL@nX?5c?5?$CDacafb2?$AA@ 10039ee4     bncs_cc02_edit.obj
 0002:00031ef4       ??_C@_0N@LOKKOIID@uy?5c?5?$CD0f0800?$AA@ 10039ef4     bncs_cc02_edit.obj
 0002:00031f04       ??_C@_0N@PAHLOLHD@y9?5c?5?$CDacb4b6?$AA@ 10039f04     bncs_cc02_edit.obj
 0002:00031f14       ??_C@_0N@KIJJHKLA@mI?5c?5?$CD0f0f0e?$AA@ 10039f14     bncs_cc02_edit.obj
 0002:00031f24       ??_C@_0N@IAKBNCGN@?42?5c?5?$CDacc9bf?$AA@ 10039f24     bncs_cc02_edit.obj
 0002:00031f34       ??_C@_0N@OMDDGKKP@g2?5c?5?$CD0f0f0f?$AA@ 10039f34     bncs_cc02_edit.obj
 0002:00031f44       ??_C@_0N@LJLGDPBG@?$CDK?5c?5?$CDad8d63?$AA@ 10039f44     bncs_cc02_edit.obj
 0002:00031f54       ??_C@_0N@IHJFFHIC@jL?5c?5?$CD0f1f32?$AA@ 10039f54     bncs_cc02_edit.obj
 0002:00031f64       ??_C@_0N@HCGMAHIK@rU?5c?5?$CDad8d69?$AA@ 10039f64     bncs_cc02_edit.obj
 0002:00031f74       ??_C@_0N@HCHLMMBH@bD?5c?5?$CD0f2b46?$AA@ 10039f74     bncs_cc02_edit.obj
 0002:00031f84       ??_C@_0N@ECBBDEGD@bL?5c?5?$CDad8e75?$AA@ 10039f84     bncs_cc02_edit.obj
 0002:00031f94       ??_C@_0N@JMGIAFEI@mX?5c?5?$CD0f3756?$AA@ 10039f94     bncs_cc02_edit.obj
 0002:00031fa4       ??_C@_0N@BCBKIEA@gl?5c?5?$CDadadad?$AA@ 10039fa4     bncs_cc02_edit.obj
 0002:00031fb4       ??_C@_0N@HJAAFCBG@dM?5c?5?$CD100000?$AA@ 10039fb4     bncs_cc02_edit.obj
 0002:00031fc4       ??_C@_0N@KMEKOIAP@rv?5c?5?$CDadbac7?$AA@ 10039fc4     bncs_cc02_edit.obj
 0002:00031fd4       ??_C@_0N@HAKIMICK@jK?5c?5?$CD100b05?$AA@ 10039fd4     bncs_cc02_edit.obj
 0002:00031fe4       ??_C@_0N@ILIAJACP@vP?5c?5?$CDae8568?$AA@ 10039fe4     bncs_cc02_edit.obj
 0002:00031ff4       ??_C@_0N@BNEBEDLN@gS?5c?5?$CD101010?$AA@ 10039ff4     bncs_cc02_edit.obj
 0002:00032004       ??_C@_0N@BDHCGDGG@m?$CD?5c?5?$CDaeaeae?$AA@ 1003a004     bncs_cc02_edit.obj
 0002:00032014       ??_C@_0N@LNJBIDEN@mr?5c?5?$CD101011?$AA@ 1003a014     bncs_cc02_edit.obj
 0002:00032024       ??_C@_0N@IGLNOMMF@pf?5c?5?$CDaeafb1?$AA@ 1003a024     bncs_cc02_edit.obj
 0002:00032034       ??_C@_0N@FNKPNGKK@nr?5c?5?$CD101316?$AA@ 1003a034     bncs_cc02_edit.obj
 0002:00032044       ??_C@_0N@JCNHBIHF@wh?5c?5?$CDaed1f0?$AA@ 1003a044     bncs_cc02_edit.obj
 0002:00032054       ??_C@_0N@MBHNBNEA@iv?5c?5?$CD10151c?$AA@ 1003a054     bncs_cc02_edit.obj
 0002:00032064       ??_C@_0N@BIBCJIOP@dL?5c?5?$CDaed3f2?$AA@ 1003a064     bncs_cc02_edit.obj
 0002:00032074       ??_C@_0N@KKGBLMHE@?4V?5c?5?$CD101a24?$AA@ 1003a074     bncs_cc02_edit.obj
 0002:00032084       ??_C@_0N@KIIPFEON@hD?5c?5?$CDaf886d?$AA@ 1003a084     bncs_cc02_edit.obj
 0002:00032094       ??_C@_0N@GHGEBIAE@iN?5c?5?$CD101e2f?$AA@ 1003a094     bncs_cc02_edit.obj
 0002:000320a4       ??_C@_0N@JKMMMLCJ@vd?5c?5?$CDaf8f6c?$AA@ 1003a0a4     bncs_cc02_edit.obj
 0002:000320b4       ??_C@_0N@HPDIHJNA@n6?5c?5?$CD102849?$AA@ 1003a0b4     bncs_cc02_edit.obj
 0002:000320c4       ??_C@_0N@OBHKHJCH@oO?5c?5?$CDafafaf?$AA@ 1003a0c4     bncs_cc02_edit.obj
 0002:000320d4       ??_C@_0N@PPHGKFEO@uV?5c?5?$CD102f50?$AA@ 1003a0d4     bncs_cc02_edit.obj
 0002:000320e4       ??_C@_0N@JLJFEAEB@oz?5c?5?$CDafbbc9?$AA@ 1003a0e4     bncs_cc02_edit.obj
 0002:000320f4       ??_C@_0N@NMALJAJM@xq?5c?5?$CD103c60?$AA@ 1003a0f4     bncs_cc02_edit.obj
 0002:00032104       ??_C@_0N@FJEBMJLN@ak?5c?5?$CDb09069?$AA@ 1003a104     bncs_cc02_edit.obj
 0002:00032114       ??_C@_0N@KOJFIIJO@jW?5c?5?$CD110000?$AA@ 1003a114     bncs_cc02_edit.obj
 0002:00032124       ??_C@_0N@KKLFCACD@ci?5c?5?$CDb09c85?$AA@ 1003a124     bncs_cc02_edit.obj
 0002:00032134       ??_C@_0N@CAMOMPJO@rQ?5c?5?$CD110400?$AA@ 1003a134     bncs_cc02_edit.obj
 0002:00032144       ??_C@_0N@GILJINNH@yA?5c?5?$CDb0a598?$AA@ 1003a144     bncs_cc02_edit.obj
 0002:00032154       ??_C@_0N@JOGLDIJB@vv?5c?5?$CD110700?$AA@ 1003a154     bncs_cc02_edit.obj
 0002:00032164       ??_C@_0N@ODAFDKKL@m5?5c?5?$CDb0b0b0?$AA@ 1003a164     bncs_cc02_edit.obj
 0002:00032174       ??_C@_0N@NDLDOOFO@jE?5c?5?$CD111111?$AA@ 1003a174     bncs_cc02_edit.obj
 0002:00032184       ??_C@_0N@NHDPJGHL@uD?5c?5?$CDb0b9c1?$AA@ 1003a184     bncs_cc02_edit.obj
 0002:00032194       ??_C@_0N@NLLOKJDH@?4m?5c?5?$CD112f54?$AA@ 1003a194     bncs_cc02_edit.obj
 0002:000321a4       ??_C@_0N@DBJODPGD@xp?5c?5?$CDb0bed3?$AA@ 1003a1a4     bncs_cc02_edit.obj
 0002:000321b4       ??_C@_0N@MOMLOFL@lQ?5c?5?$CD113959?$AA@ 1003a1b4     bncs_cc02_edit.obj
 0002:000321c4       ??_C@_0N@FFFAENK@nq?5c?5?$CDb0c1cf?$AA@ 1003a1c4     bncs_cc02_edit.obj
 0002:000321d4       ??_C@_0N@INCLEIHI@d4?5c?5?$CD120000?$AA@ 1003a1d4     bncs_cc02_edit.obj
 0002:000321e4       ??_C@_0N@EJGNOKMM@eL?5c?5?$CDb0c1d8?$AA@ 1003a1e4     bncs_cc02_edit.obj
 0002:000321f4       ??_C@_0N@BDKOEHEA@md?5c?5?$CD120600?$AA@ 1003a1f4     bncs_cc02_edit.obj
 0002:00032204       ??_C@_0N@DJCCPEBC@xm?5c?5?$CDb0d3e9?$AA@ 1003a204     bncs_cc02_edit.obj
 0002:00032214       ??_C@_0N@BCGEJODE@lY?5c?5?$CD120a00?$AA@ 1003a214     bncs_cc02_edit.obj
 0002:00032224       ??_C@_0N@POGAGNNK@m6?5c?5?$CDb1b1b1?$AA@ 1003a224     bncs_cc02_edit.obj
 0002:00032234       ??_C@_0N@MGFKABGI@iq?5c?5?$CD121212?$AA@ 1003a234     bncs_cc02_edit.obj
 0002:00032244       ??_C@_0N@CGPDEMAB@mj?5c?5?$CDb1bac2?$AA@ 1003a244     bncs_cc02_edit.obj
 0002:00032254       ??_C@_0N@BMKFENMO@aw?5c?5?$CD130000?$AA@ 1003a254     bncs_cc02_edit.obj
 0002:00032264       ??_C@_0N@MLHDOONJ@mL?5c?5?$CDb1c1cd?$AA@ 1003a264     bncs_cc02_edit.obj
 0002:00032274       ??_C@_0N@HPCPAFHK@o3?5c?5?$CD130200?$AA@ 1003a274     bncs_cc02_edit.obj
 0002:00032284       ??_C@_0N@KDEKJGMI@us?5c?5?$CDb29d86?$AA@ 1003a284     bncs_cc02_edit.obj
 0002:00032294       ??_C@_0N@EMEIMNPH@lr?5c?5?$CD130400?$AA@ 1003a294     bncs_cc02_edit.obj
 0002:000322a4       ??_C@_0N@GAKKAGKO@yN?5c?5?$CDb2a68f?$AA@ 1003a2a4     bncs_cc02_edit.obj
 0002:000322b4       ??_C@_0N@FIKLMBIO@iS?5c?5?$CD131313?$AA@ 1003a2b4     bncs_cc02_edit.obj
 0002:000322c4       ??_C@_0N@GAAHOGGD@pc?5c?5?$CDb2b0af?$AA@ 1003a2c4     bncs_cc02_edit.obj
 0002:000322d4       ??_C@_0N@BCCOCKMK@wI?5c?5?$CD132d4d?$AA@ 1003a2d4     bncs_cc02_edit.obj
 0002:000322e4       ??_C@_0N@FDGBOJHH@gV?5c?5?$CDb2b2b2?$AA@ 1003a2e4     bncs_cc02_edit.obj
 0002:000322f4       ??_C@_0N@NCDPAKEK@cI?5c?5?$CD133350?$AA@ 1003a2f4     bncs_cc02_edit.obj
 0002:00032304       ??_C@_0N@OILMBAIP@eI?5c?5?$CDb2bac7?$AA@ 1003a304     bncs_cc02_edit.obj
 0002:00032314       ??_C@_0N@CNKJFPAK@x?4?5c?5?$CD133a5c?$AA@ 1003a314     bncs_cc02_edit.obj
 0002:00032324       ??_C@_0N@CFJOMOGA@b0?5c?5?$CDb2c8d8?$AA@ 1003a324     bncs_cc02_edit.obj
 0002:00032334       ??_C@_0N@JFPINOBK@rK?5c?5?$CD140d08?$AA@ 1003a334     bncs_cc02_edit.obj
 0002:00032344       ??_C@_0N@FOCPKCGI@j5?5c?5?$CDb3a596?$AA@ 1003a344     bncs_cc02_edit.obj
 0002:00032354       ??_C@_0N@KBIGJLDI@dX?5c?5?$CD141414?$AA@ 1003a354     bncs_cc02_edit.obj
 0002:00032364       ??_C@_0N@CEEIAMFA@o6?5c?5?$CDb3b1af?$AA@ 1003a364     bncs_cc02_edit.obj
 0002:00032374       ??_C@_0N@DIAPBIHO@v1?5c?5?$CD141c28?$AA@ 1003a374     bncs_cc02_edit.obj
 0002:00032384       ??_C@_0N@KLAJPIDN@m?4?5c?5?$CDb3b2b1?$AA@ 1003a384     bncs_cc02_edit.obj
 0002:00032394       ??_C@_0N@KNBDGALA@uj?5c?5?$CD141e2b?$AA@ 1003a394     bncs_cc02_edit.obj
 0002:000323a4       ??_C@_0N@OBMDNIOG@n5?5c?5?$CDb3b3b3?$AA@ 1003a3a4     bncs_cc02_edit.obj
 0002:000323b4       ??_C@_0N@HOCIGJPF@rX?5c?5?$CD141e2d?$AA@ 1003a3b4     bncs_cc02_edit.obj
 0002:000323c4       ??_C@_0N@JKFLEGJC@o2?5c?5?$CDb3b4b4?$AA@ 1003a3c4     bncs_cc02_edit.obj
 0002:000323d4       ??_C@_0N@KIDKOBAC@zA?5c?5?$CD141f29?$AA@ 1003a3d4     bncs_cc02_edit.obj
 0002:000323e4       ??_C@_0N@KIPJEKGE@ma?5c?5?$CDb3b4b5?$AA@ 1003a3e4     bncs_cc02_edit.obj
 0002:000323f4       ??_C@_0N@FCLIFCNN@kG?5c?5?$CD142532?$AA@ 1003a3f4     bncs_cc02_edit.obj
 0002:00032404       ??_C@_0N@NKDEGEKC@ur?5c?5?$CDb3b7bb?$AA@ 1003a404     bncs_cc02_edit.obj
 0002:00032414       ??_C@_0N@HCOOOJDK@qk?5c?5?$CD142e47?$AA@ 1003a414     bncs_cc02_edit.obj
 0002:00032424       ??_C@_0N@OHAEHFJM@v3?5c?5?$CDb3bfc9?$AA@ 1003a424     bncs_cc02_edit.obj
 0002:00032434       ??_C@_0N@CEFCIALC@iT?5c?5?$CD143c5b?$AA@ 1003a434     bncs_cc02_edit.obj
 0002:00032444       ??_C@_0N@ODCKDFND@hv?5c?5?$CDb48c70?$AA@ 1003a444     bncs_cc02_edit.obj
 0002:00032454       ??_C@_0N@GDGEGGMC@?43?5c?5?$CD150000?$AA@ 1003a454     bncs_cc02_edit.obj
 0002:00032464       ??_C@_0N@GPLDCKOK@?49?5c?5?$CDb49570?$AA@ 1003a464     bncs_cc02_edit.obj
 0002:00032474       ??_C@_0N@PBIOIMCO@i?4?5c?5?$CD150c01?$AA@ 1003a474     bncs_cc02_edit.obj
 0002:00032484       ??_C@_0N@HCBLHLKO@nY?5c?5?$CDb4a492?$AA@ 1003a484     bncs_cc02_edit.obj
 0002:00032494       ??_C@_0N@HOFHENFO@ir?5c?5?$CD151515?$AA@ 1003a494     bncs_cc02_edit.obj
 0002:000324a4       ??_C@_0N@CANOHMAM@oZ?5c?5?$CDb4b2b8?$AA@ 1003a4a4     bncs_cc02_edit.obj
 0002:000324b4       ??_C@_0N@NDGPAOIF@dt?5c?5?$CD151f2a?$AA@ 1003a4b4     bncs_cc02_edit.obj
 0002:000324c4       ??_C@_0N@HOJMIPCD@oV?5c?5?$CDb4b3b3?$AA@ 1003a4c4     bncs_cc02_edit.obj
 0002:000324d4       ??_C@_0N@JIBNLOBE@ht?5c?5?$CD152338?$AA@ 1003a4d4     bncs_cc02_edit.obj
 0002:000324e4       ??_C@_0N@POJMFPP@iR?5c?5?$CDb4b4b4?$AA@ 1003a4e4     bncs_cc02_edit.obj
 0002:000324f4       ??_C@_0N@GBIFFHIJ@zp?5c?5?$CD152639?$AA@ 1003a4f4     bncs_cc02_edit.obj
 0002:00032504       ??_C@_0N@LMKBNGJL@yf?5c?5?$CDb4c0ce?$AA@ 1003a504     bncs_cc02_edit.obj
 0002:00032514       ??_C@_0N@EIDBINOG@qW?5c?5?$CD152b42?$AA@ 1003a514     bncs_cc02_edit.obj
 0002:00032524       ??_C@_0N@BHDIBGJG@xJ?5c?5?$CDb5916e?$AA@ 1003a524     bncs_cc02_edit.obj
 0002:00032534       ??_C@_0N@CEMLLFPD@xI?5c?5?$CD152d41?$AA@ 1003a534     bncs_cc02_edit.obj
 0002:00032544       ??_C@_0N@MAKDAOIH@tE?5c?5?$CDb59674?$AA@ 1003a544     bncs_cc02_edit.obj
 0002:00032554       ??_C@_0N@BNODGOBC@?$CD2?5c?5?$CD15364e?$AA@ 1003a554     bncs_cc02_edit.obj
 0002:00032564       ??_C@_0N@NFHGJMIJ@rk?5c?5?$CDb5b3b2?$AA@ 1003a564     bncs_cc02_edit.obj
 0002:00032574       ??_C@_0N@KIHFNKCD@e6?5c?5?$CD160400?$AA@ 1003a574     bncs_cc02_edit.obj
 0002:00032584       ??_C@_0N@MAALECBM@rr?5c?5?$CDb5b4b3?$AA@ 1003a584     bncs_cc02_edit.obj
 0002:00032594       ??_C@_0N@NOEFAJID@fA?5c?5?$CD16110c?$AA@ 1003a594     bncs_cc02_edit.obj
 0002:000325a4       ??_C@_0N@NBCHOGAN@hy?5c?5?$CDb5b5b5?$AA@ 1003a5a4     bncs_cc02_edit.obj
 0002:000325b4       ??_C@_0N@CHINIJOK@ns?5c?5?$CD161616?$AA@ 1003a5b4     bncs_cc02_edit.obj
 0002:000325c4       ??_C@_0N@OFHEFCMP@oR?5c?5?$CDb5b6b7?$AA@ 1003a5c4     bncs_cc02_edit.obj
 0002:000325d4       ??_C@_0N@NPGPMBDO@mC?5c?5?$CD16283a?$AA@ 1003a5d4     bncs_cc02_edit.obj
 0002:000325e4       ??_C@_0N@LKHFCGBE@rA?5c?5?$CDb68e6d?$AA@ 1003a5e4     bncs_cc02_edit.obj
 0002:000325f4       ??_C@_0N@CNCICBMH@eX?5c?5?$CD170000?$AA@ 1003a5f4     bncs_cc02_edit.obj
 0002:00032604       ??_C@_0N@MDDAOAJB@es?5c?5?$CDb6b6b6?$AA@ 1003a604     bncs_cc02_edit.obj
 0002:00032614       ??_C@_0N@KMOEABDA@gh?5c?5?$CD171008?$AA@ 1003a614     bncs_cc02_edit.obj
 0002:00032624       ??_C@_0N@JKABIMCD@ov?5c?5?$CDb7987a?$AA@ 1003a624     bncs_cc02_edit.obj
 0002:00032634       ??_C@_0N@PHDOEBCK@iD?5c?5?$CD17120d?$AA@ 1003a634     bncs_cc02_edit.obj
 0002:00032644       ??_C@_0N@HKBIHEOC@ei?5c?5?$CDb7a497?$AA@ 1003a644     bncs_cc02_edit.obj
 0002:00032654       ??_C@_0N@HHAPEPIO@pt?5c?5?$CD171717?$AA@ 1003a654     bncs_cc02_edit.obj
 0002:00032664       ??_C@_0N@KLIDFLFD@oS?5c?5?$CDb7ad9c?$AA@ 1003a664     bncs_cc02_edit.obj
 0002:00032674       ??_C@_0N@FKKIAEOM@qx?5c?5?$CD171a26?$AA@ 1003a674     bncs_cc02_edit.obj
 0002:00032684       ??_C@_0N@IEKPCLCH@jk?5c?5?$CDb7b7b7?$AA@ 1003a684     bncs_cc02_edit.obj
 0002:00032694       ??_C@_0N@EJJNAGLK@cS?5c?5?$CD173659?$AA@ 1003a694     bncs_cc02_edit.obj
 0002:000326a4       ??_C@_0N@ENPMHGKM@wK?5c?5?$CDb8ada0?$AA@ 1003a6a4     bncs_cc02_edit.obj
 0002:000326b4       ??_C@_0N@MPGMKAGI@xT?5c?5?$CD173758?$AA@ 1003a6b4     bncs_cc02_edit.obj
 0002:000326c4       ??_C@_0N@CIIJPHGI@fK?5c?5?$CDb8b8b8?$AA@ 1003a6c4     bncs_cc02_edit.obj
 0002:000326d4       ??_C@_0N@NIGLCLAH@iU?5c?5?$CD180000?$AA@ 1003a6d4     bncs_cc02_edit.obj
 0002:000326e4       ??_C@_0N@JDGMONPC@yL?5c?5?$CDb8c2ce?$AA@ 1003a6e4     bncs_cc02_edit.obj
 0002:000326f4       ??_C@_0N@IJHEDEGK@jf?5c?5?$CD180400?$AA@ 1003a6f4     bncs_cc02_edit.obj
 0002:00032704       ??_C@_0N@NPDKNPGM@?$CDG?5c?5?$CDb8d3ee?$AA@ 1003a704     bncs_cc02_edit.obj
 0002:00032714       ??_C@_0N@PBAMLMEN@li?5c?5?$CD180600?$AA@ 1003a714     bncs_cc02_edit.obj
 0002:00032724       ??_C@_0N@MPLAPBMP@?$CDI?5c?5?$CDb8d4ea?$AA@ 1003a724     bncs_cc02_edit.obj
 0002:00032734       ??_C@_0N@NFCMFBAJ@wp?5c?5?$CD18130f?$AA@ 1003a734     bncs_cc02_edit.obj
 0002:00032744       ??_C@_0N@HBEBLCDG@y?$CD?5c?5?$CDb8d4ef?$AA@ 1003a744     bncs_cc02_edit.obj
 0002:00032754       ??_C@_0N@MBAPOJMF@n?4?5c?5?$CD181818?$AA@ 1003a754     bncs_cc02_edit.obj
 0002:00032764       ??_C@_0N@IPINNCPB@o8?5c?5?$CDb9abac?$AA@ 1003a764     bncs_cc02_edit.obj
 0002:00032774       ??_C@_0N@MAELGIB@v7?5c?5?$CD181b1d?$AA@ 1003a774     bncs_cc02_edit.obj
 0002:00032784       ??_C@_0N@NHBOCCMG@oQ?5c?5?$CDb9b6b5?$AA@ 1003a784     bncs_cc02_edit.obj
 0002:00032794       ??_C@_0N@HIHABACM@y5?5c?5?$CD182a42?$AA@ 1003a794     bncs_cc02_edit.obj
 0002:000327a4       ??_C@_0N@FBKFKNEH@hE?5c?5?$CDb9b9b9?$AA@ 1003a7a4     bncs_cc02_edit.obj
 0002:000327b4       ??_C@_0N@HDHNJKGB@qi?5c?5?$CD18375b?$AA@ 1003a7b4     bncs_cc02_edit.obj
 0002:000327c4       ??_C@_0N@JGACPDAG@o9?5c?5?$CDb9bbb6?$AA@ 1003a7c4     bncs_cc02_edit.obj
 0002:000327d4       ??_C@_0N@EAEBEEBL@x5?5c?5?$CD190300?$AA@ 1003a7d4     bncs_cc02_edit.obj
 0002:000327e4       ??_C@_0N@LMBLLJMA@nM?5c?5?$CDb9c5cf?$AA@ 1003a7e4     bncs_cc02_edit.obj
 0002:000327f4       ??_C@_0N@DAMHJEL@ad?5c?5?$CD190800?$AA@ 1003a7f4     bncs_cc02_edit.obj
 0002:00032804       ??_C@_0N@ICGOOICH@vA?5c?5?$CDba9e80?$AA@ 1003a804     bncs_cc02_edit.obj
 0002:00032814       ??_C@_0N@CIEILBAH@dW?5c?5?$CD191919?$AA@ 1003a814     bncs_cc02_edit.obj
 0002:00032824       ??_C@_0N@FDGCAOMC@mT?5c?5?$CDbaaea5?$AA@ 1003a824     bncs_cc02_edit.obj
 0002:00032834       ??_C@_0N@KNJPBAMD@tF?5c?5?$CD192027?$AA@ 1003a834     bncs_cc02_edit.obj
 0002:00032844       ??_C@_0N@KKPCIGGJ@h7?5c?5?$CDbab0a5?$AA@ 1003a844     bncs_cc02_edit.obj
 0002:00032854       ??_C@_0N@JKALNDKA@?$CDe?5c?5?$CD19242f?$AA@ 1003a854     bncs_cc02_edit.obj
 0002:00032864       ??_C@_0N@IAENFLB@ie?5c?5?$CDbababa?$AA@ 1003a864     bncs_cc02_edit.obj
 0002:00032874       ??_C@_0N@DOCGNGBN@fg?5c?5?$CD192837?$AA@ 1003a874     bncs_cc02_edit.obj
 0002:00032884       ??_C@_0N@BEGLMBDM@ql?5c?5?$CDbabbbd?$AA@ 1003a884     bncs_cc02_edit.obj
 0002:00032894       ??_C@_0N@DCMNBNHJ@sW?5c?5?$CD192e3e?$AA@ 1003a894     bncs_cc02_edit.obj
 0002:000328a4       ??_C@_0N@CGCANAKI@ko?5c?5?$CDbb9275?$AA@ 1003a8a4     bncs_cc02_edit.obj
 0002:000328b4       ??_C@_0N@DPFKPLLC@uI?5c?5?$CD193555?$AA@ 1003a8b4     bncs_cc02_edit.obj
 0002:000328c4       ??_C@_0N@CDOICIKJ@bY?5c?5?$CDbba999?$AA@ 1003a8c4     bncs_cc02_edit.obj
 0002:000328d4       ??_C@_0N@FCNNGDPG@ky?5c?5?$CD1a0f02?$AA@ 1003a8d4     bncs_cc02_edit.obj
 0002:000328e4       ??_C@_0N@JJKBGBHJ@pI?5c?5?$CDbbbbbb?$AA@ 1003a8e4     bncs_cc02_edit.obj
 0002:000328f4       ??_C@_0N@CBEDHPPG@zk?5c?5?$CD1a110a?$AA@ 1003a8f4     bncs_cc02_edit.obj
 0002:00032904       ??_C@_0N@DBINPOND@i?$CD?5c?5?$CDbbd2dc?$AA@ 1003a904     bncs_cc02_edit.obj
 0002:00032914       ??_C@_0N@CPOLIHOD@dV?5c?5?$CD1a1a1a?$AA@ 1003a914     bncs_cc02_edit.obj
 0002:00032924       ??_C@_0N@EJHCIHLN@e0?5c?5?$CDbbd8f4?$AA@ 1003a924     bncs_cc02_edit.obj
 0002:00032934       ??_C@_0N@JIDJDFDI@wo?5c?5?$CD1a1e21?$AA@ 1003a934     bncs_cc02_edit.obj
 0002:00032944       ??_C@_0N@NEABNFDK@ol?5c?5?$CDbca78e?$AA@ 1003a944     bncs_cc02_edit.obj
 0002:00032954       ??_C@_0N@CIHHHCI@mJ?5c?5?$CD1a2530?$AA@ 1003a954     bncs_cc02_edit.obj
 0002:00032964       ??_C@_0N@OIGEKLAI@a0?5c?5?$CDbcb2a3?$AA@ 1003a964     bncs_cc02_edit.obj
 0002:00032974       ??_C@_0N@LMEHGIIN@oy?5c?5?$CD1a2837?$AA@ 1003a974     bncs_cc02_edit.obj
 0002:00032984       ??_C@_0N@CNMDDNNM@mE?5c?5?$CDbcb2a8?$AA@ 1003a984     bncs_cc02_edit.obj
 0002:00032994       ??_C@_0N@OHDLPFPH@d3?5c?5?$CD1a3d5c?$AA@ 1003a994     bncs_cc02_edit.obj
 0002:000329a4       ??_C@_0N@GMGKPAPC@cr?5c?5?$CDbcbab8?$AA@ 1003a9a4     bncs_cc02_edit.obj
 0002:000329b4       ??_C@_0N@NDJABDM@jV?5c?5?$CD1a405e?$AA@ 1003a9b4     bncs_cc02_edit.obj
 0002:000329c4       ??_C@_0N@OHLIJNPP@fI?5c?5?$CDbcbcbc?$AA@ 1003a9c4     bncs_cc02_edit.obj
 0002:000329d4       ??_C@_0N@GCLLAAHO@cE?5c?5?$CD1a415f?$AA@ 1003a9d4     bncs_cc02_edit.obj
 0002:000329e4       ??_C@_0N@FIBGDEAB@bF?5c?5?$CDbcbdc0?$AA@ 1003a9e4     bncs_cc02_edit.obj
 0002:000329f4       ??_C@_0N@HAPHFDJI@?$CD5?5c?5?$CD1b0200?$AA@ 1003a9f4     bncs_cc02_edit.obj
 0002:00032a04       ??_C@_0N@KBJHOMKE@vh?5c?5?$CDbcc9d5?$AA@ 1003aa04     bncs_cc02_edit.obj
 0002:00032a14       ??_C@_0N@PFBGGECI@lm?5c?5?$CD1b0400?$AA@ 1003aa14     bncs_cc02_edit.obj
 0002:00032a24       ??_C@_0N@BHKHHCJD@at?5c?5?$CDbcd1e5?$AA@ 1003aa24     bncs_cc02_edit.obj
 0002:00032a34       ??_C@_0N@LOOJHNCK@p2?5c?5?$CD1b0c05?$AA@ 1003aa34     bncs_cc02_edit.obj
 0002:00032a44       ??_C@_0N@DPBLMMGA@t8?5c?5?$CDbcd7ef?$AA@ 1003aa44     bncs_cc02_edit.obj
 0002:00032a54       ??_C@_0N@JCFIOLGE@?4f?5c?5?$CD1b0d00?$AA@ 1003aa54     bncs_cc02_edit.obj
 0002:00032a64       ??_C@_0N@CHBDPAHJ@rZ?5c?5?$CDbdbdbd?$AA@ 1003aa64     bncs_cc02_edit.obj
 0002:00032a74       ??_C@_0N@BKEHBLEJ@pl?5c?5?$CD1b1b1b?$AA@ 1003aa74     bncs_cc02_edit.obj
 0002:00032a84       ??_C@_0N@KBPFPMBE@cO?5c?5?$CDbde1ff?$AA@ 1003aa84     bncs_cc02_edit.obj
 0002:00032a94       ??_C@_0N@JLCBIDJF@rj?5c?5?$CD1b1e21?$AA@ 1003aa94     bncs_cc02_edit.obj
 0002:00032aa4       ??_C@_0N@JHKGGABE@ic?5c?5?$CDbebebe?$AA@ 1003aaa4     bncs_cc02_edit.obj
 0002:00032ab4       ??_C@_0N@EHBLCGJE@nI?5c?5?$CD1b3c5d?$AA@ 1003aab4     bncs_cc02_edit.obj
 0002:00032ac4       ??_C@_0N@FDNFJDCC@oU?5c?5?$CDbec2c2?$AA@ 1003aac4     bncs_cc02_edit.obj
 0002:00032ad4       ??_C@_0N@FBNHNEKP@q6?5c?5?$CD1b4064?$AA@ 1003aad4     bncs_cc02_edit.obj
 0002:00032ae4       ??_C@_0N@GILAOHHB@kB?5c?5?$CDbec8cd?$AA@ 1003aae4     bncs_cc02_edit.obj
 0002:00032af4       ??_C@_0N@GFEOJPON@dE?5c?5?$CD1b4260?$AA@ 1003aaf4     bncs_cc02_edit.obj
 0002:00032b04       ??_C@_0N@KJDFEBPL@lc?5c?5?$CDbfa180?$AA@ 1003ab04     bncs_cc02_edit.obj
 0002:00032b14       ??_C@_0N@HMMDJNMC@xt?5c?5?$CD1b4360?$AA@ 1003ab14     bncs_cc02_edit.obj
 0002:00032b24       ??_C@_0N@NOFEAPNL@gs?5c?5?$CDbfbfbf?$AA@ 1003ab24     bncs_cc02_edit.obj
 0002:00032b34       ??_C@_0N@IGDGKLJM@nR?5c?5?$CD1b4361?$AA@ 1003ab34     bncs_cc02_edit.obj
 0002:00032b44       ??_C@_0N@GNBHMNID@?$CDL?5c?5?$CDbfdefd?$AA@ 1003ab44     bncs_cc02_edit.obj
 0002:00032b54       ??_C@_0N@PDMFECCG@wQ?5c?5?$CD1c0000?$AA@ 1003ab54     bncs_cc02_edit.obj
 0002:00032b64       ??_C@_0N@ELGOJCOB@kl?5c?5?$CDc0b8a8?$AA@ 1003ab64     bncs_cc02_edit.obj
 0002:00032b74       ??_C@_0N@LOKGBJEN@lA?5c?5?$CD1c0300?$AA@ 1003ab74     bncs_cc02_edit.obj
 0002:00032b84       ??_C@_0N@CDPFIEDG@q2?5c?5?$CDc0c0c0?$AA@ 1003ab84     bncs_cc02_edit.obj
 0002:00032b94       ??_C@_0N@ILBNGBLO@cH?5c?5?$CD1c0700?$AA@ 1003ab94     bncs_cc02_edit.obj
 0002:00032ba4       ??_C@_0N@KCONMFB@tf?5c?5?$CDc0cad5?$AA@ 1003aba4     bncs_cc02_edit.obj
 0002:00032bb4       ??_C@_0N@DMIBFDBK@m9?5c?5?$CD1c0d03?$AA@ 1003abb4     bncs_cc02_edit.obj
 0002:00032bc4       ??_C@_0N@FEAMKEJA@m4?5c?5?$CDc1bab2?$AA@ 1003abc4     bncs_cc02_edit.obj
 0002:00032bd4       ??_C@_0N@CECCDKOM@sC?5c?5?$CD1c0f01?$AA@ 1003abd4     bncs_cc02_edit.obj
 0002:00032be4       ??_C@_0N@PMDOBICN@gk?5c?5?$CDc1c1c1?$AA@ 1003abe4     bncs_cc02_edit.obj
 0002:00032bf4       ??_C@_0N@LPOCGNHH@sc?5c?5?$CD1c1c1c?$AA@ 1003abf4     bncs_cc02_edit.obj
 0002:00032c04       ??_C@_0N@DHCEBNOH@bU?5c?5?$CDc1c1c2?$AA@ 1003ac04     bncs_cc02_edit.obj
 0002:00032c14       ??_C@_0N@BIHHAIBD@ra?5c?5?$CD1c1f22?$AA@ 1003ac14     bncs_cc02_edit.obj
 0002:00032c24       ??_C@_0N@JIJEAFOF@h4?5c?5?$CDc1cbd8?$AA@ 1003ac24     bncs_cc02_edit.obj
 0002:00032c34       ??_C@_0N@MGNPLMAJ@sG?5c?5?$CD1c2325?$AA@ 1003ac34     bncs_cc02_edit.obj
 0002:00032c44       ??_C@_0N@DDAFLDLN@w1?5c?5?$CDc1dff6?$AA@ 1003ac44     bncs_cc02_edit.obj
 0002:00032c54       ??_C@_0N@LPJPKAEI@?4I?5c?5?$CD1c232a?$AA@ 1003ac54     bncs_cc02_edit.obj
 0002:00032c64       ??_C@_0N@FLDBOADL@xr?5c?5?$CDc1ebff?$AA@ 1003ac64     bncs_cc02_edit.obj
 0002:00032c74       ??_C@_0N@JLCOHGHG@l7?5c?5?$CD1c2731?$AA@ 1003ac74     bncs_cc02_edit.obj
 0002:00032c84       ??_C@_0N@PCAKBKHK@?4H?5c?5?$CDc2a27e?$AA@ 1003ac84     bncs_cc02_edit.obj
 0002:00032c94       ??_C@_0N@IDGDOCMA@kz?5c?5?$CD1c2932?$AA@ 1003ac94     bncs_cc02_edit.obj
 0002:00032ca4       ??_C@_0N@CIFIGLOE@zf?5c?5?$CDc2bab9?$AA@ 1003aca4     bncs_cc02_edit.obj
 0002:00032cb4       ??_C@_0N@FLGHDGJI@qC?5c?5?$CD1c2d49?$AA@ 1003acb4     bncs_cc02_edit.obj
 0002:00032cc4       ??_C@_0N@GPLNJDFE@bW?5c?5?$CDc2c1c0?$AA@ 1003acc4     bncs_cc02_edit.obj
 0002:00032cd4       ??_C@_0N@LFDNLLKI@ap?5c?5?$CD1c4362?$AA@ 1003acd4     bncs_cc02_edit.obj
 0002:00032ce4       ??_C@_0N@DIPBMCKI@hh?5c?5?$CDc2c2c1?$AA@ 1003ace4     bncs_cc02_edit.obj
 0002:00032cf4       ??_C@_0N@BFNEOBHK@wg?5c?5?$CD1d0000?$AA@ 1003acf4     bncs_cc02_edit.obj
 0002:00032d04       ??_C@_0N@NEIPDHDN@gz?5c?5?$CDc2c2c2?$AA@ 1003ad04     bncs_cc02_edit.obj
 0002:00032d14       ??_C@_0N@JHOJEJKO@ox?5c?5?$CD1d0300?$AA@ 1003ad14     bncs_cc02_edit.obj
 0002:00032d24       ??_C@_0N@GCDIPHFN@oW?5c?5?$CDc2c4c5?$AA@ 1003ad24     bncs_cc02_edit.obj
 0002:00032d34       ??_C@_0N@COMGHJMP@cD?5c?5?$CD1d0d04?$AA@ 1003ad34     bncs_cc02_edit.obj
 0002:00032d44       ??_C@_0N@FDNEIG@uT?5c?5?$CDc2d0dd?$AA@ 1003ad44     bncs_cc02_edit.obj
 0002:00032d54       ??_C@_0N@BGHFMMK@v8?5c?5?$CD1d1a18?$AA@ 1003ad54     bncs_cc02_edit.obj
 0002:00032d64       ??_C@_0N@KIAAEHAA@t?4?5c?5?$CDc2dffb?$AA@ 1003ad64     bncs_cc02_edit.obj
 0002:00032d74       ??_C@_0N@IDLHFPNF@lT?5c?5?$CD1d1d1d?$AA@ 1003ad74     bncs_cc02_edit.obj
 0002:00032d84       ??_C@_0N@NLGMKNIK@rE?5c?5?$CDc2e0f9?$AA@ 1003ad84     bncs_cc02_edit.obj
 0002:00032d94       ??_C@_0N@HJFADFNK@fz?5c?5?$CD1d2126?$AA@ 1003ad94     bncs_cc02_edit.obj
 0002:00032da4       ??_C@_0N@HNCICOAI@xR?5c?5?$CDc2ecff?$AA@ 1003ada4     bncs_cc02_edit.obj
 0002:00032db4       ??_C@_0N@MOAGBMLK@h1?5c?5?$CD1d262e?$AA@ 1003adb4     bncs_cc02_edit.obj
 0002:00032dc4       ??_C@_0N@FKBAENCE@o1?5c?5?$CDc3c0be?$AA@ 1003adc4     bncs_cc02_edit.obj
 0002:00032dd4       ??_C@_0N@KDEHBPIO@lZ?5c?5?$CD1d2632?$AA@ 1003add4     bncs_cc02_edit.obj
 0002:00032de4       ??_C@_0N@LOGAJHNG@bV?5c?5?$CDc3c3c3?$AA@ 1003ade4     bncs_cc02_edit.obj
 0002:00032df4       ??_C@_0N@LNJFOAHI@hB?5c?5?$CD1d4565?$AA@ 1003adf4     bncs_cc02_edit.obj
 0002:00032e04       ??_C@_0N@CJFCAGHP@eT?5c?5?$CDc3d0db?$AA@ 1003ae04     bncs_cc02_edit.obj
 0002:00032e14       ??_C@_0N@CIMGAOEL@?$CD3?5c?5?$CD1e0000?$AA@ 1003ae14     bncs_cc02_edit.obj
 0002:00032e24       ??_C@_0N@POEGHDNP@na?5c?5?$CDc3dbf6?$AA@ 1003ae24     bncs_cc02_edit.obj
 0002:00032e34       ??_C@_0N@JGGGGJLH@ki?5c?5?$CD1e0400?$AA@ 1003ae34     bncs_cc02_edit.obj
 0002:00032e44       ??_C@_0N@NNDMIGGN@lD?5c?5?$CDc3e6ff?$AA@ 1003ae44     bncs_cc02_edit.obj
 0002:00032e54       ??_C@_0N@BCKHIIKE@w0?5c?5?$CD1e0701?$AA@ 1003ae54     bncs_cc02_edit.obj
 0002:00032e64       ??_C@_0N@JEEMAIIP@x?$CD?5c?5?$CDc3edff?$AA@ 1003ae64     bncs_cc02_edit.obj
 0002:00032e74       ??_C@_0N@NIKNLJDO@we?5c?5?$CD1e1205?$AA@ 1003ae74     bncs_cc02_edit.obj
 0002:00032e84       ??_C@_0N@IODHCCKH@xO?5c?5?$CDc49d76?$AA@ 1003ae84     bncs_cc02_edit.obj
 0002:00032e94       ??_C@_0N@GIFHIPKP@j7?5c?5?$CD1e1306?$AA@ 1003ae94     bncs_cc02_edit.obj
 0002:00032ea4       ??_C@_0N@GIDEDBKO@bE?5c?5?$CDc4c0bb?$AA@ 1003aea4     bncs_cc02_edit.obj
 0002:00032eb4       ??_C@_0N@NCAMEJOG@jU?5c?5?$CD1e1e1e?$AA@ 1003aeb4     bncs_cc02_edit.obj
 0002:00032ec4       ??_C@_0N@OFFMLGJG@go?5c?5?$CDc4c4c4?$AA@ 1003aec4     bncs_cc02_edit.obj
 0002:00032ed4       ??_C@_0N@KFNPECCI@ae?5c?5?$CD1e3c61?$AA@ 1003aed4     bncs_cc02_edit.obj
 0002:00032ee4       ??_C@_0N@NDFKOHKO@up?5c?5?$CDc4e3ff?$AA@ 1003aee4     bncs_cc02_edit.obj
 0002:00032ef4       ??_C@_0N@CIEDIFLM@lJ?5c?5?$CD1e4767?$AA@ 1003aef4     bncs_cc02_edit.obj
 0002:00032f04       ??_C@_0N@BLDAMICD@n0?5c?5?$CDc5a888?$AA@ 1003af04     bncs_cc02_edit.obj
 0002:00032f14       ??_C@_0N@IHHODNNP@xU?5c?5?$CD1f0000?$AA@ 1003af14     bncs_cc02_edit.obj
 0002:00032f24       ??_C@_0N@PONGCJEN@x8?5c?5?$CDc5b9aa?$AA@ 1003af24     bncs_cc02_edit.obj
 0002:00032f34       ??_C@_0N@DIFOOMEK@?$CDj?5c?5?$CD1f0500?$AA@ 1003af34     bncs_cc02_edit.obj
 0002:00032f44       ??_C@_0N@LDEACIA@nk?5c?5?$CDc5c5c5?$AA@ 1003af44     bncs_cc02_edit.obj
 0002:00032f54       ??_C@_0N@HJNCBKG@tx?5c?5?$CD1f1101?$AA@ 1003af54     bncs_cc02_edit.obj
 0002:00032f64       ??_C@_0N@IOHIINJJ@hz?5c?5?$CDc5e7ff?$AA@ 1003af64     bncs_cc02_edit.obj
 0002:00032f74       ??_C@_0N@FILIDIGK@gZ?5c?5?$CD1f1f1f?$AA@ 1003af74     bncs_cc02_edit.obj
 0002:00032f84       ??_C@_0N@NJLMELEJ@sf?5c?5?$CDc6c6c6?$AA@ 1003af84     bncs_cc02_edit.obj
 0002:00032f94       ??_C@_0N@FFNIDJJH@rq?5c?5?$CD1f2122?$AA@ 1003af94     bncs_cc02_edit.obj
 0002:00032fa4       ??_C@_0N@JPPAKGJE@bM?5c?5?$CDc6def5?$AA@ 1003afa4     bncs_cc02_edit.obj
 0002:00032fb4       ??_C@_0N@KHMNKEGH@dC?5c?5?$CD1f2d39?$AA@ 1003afb4     bncs_cc02_edit.obj
 0002:00032fc4       ??_C@_0N@GALIFEGP@an?5c?5?$CDc6e9ff?$AA@ 1003afc4     bncs_cc02_edit.obj
 0002:00032fd4       ??_C@_0N@CPEKBEGK@hs?5c?5?$CD200000?$AA@ 1003afd4     bncs_cc02_edit.obj
 0002:00032fe4       ??_C@_0N@ENFMJKMN@vk?5c?5?$CDc7b9af?$AA@ 1003afe4     bncs_cc02_edit.obj
 0002:00032ff4       ??_C@_0N@HOBFCCJD@g8?5c?5?$CD200500?$AA@ 1003aff4     bncs_cc02_edit.obj
 0002:00033004       ??_C@_0N@INPLAOMK@aB?5c?5?$CDc7c2bb?$AA@ 1003b004     bncs_cc02_edit.obj
 0002:00033014       ??_C@_0N@GCECKLLN@wE?5c?5?$CD200600?$AA@ 1003b014     bncs_cc02_edit.obj
 0002:00033024       ??_C@_0N@IMDDLFEN@hk?5c?5?$CDc7c3c2?$AA@ 1003b024     bncs_cc02_edit.obj
 0002:00033034       ??_C@_0N@GBNDHOAC@y?4?5c?5?$CD201100?$AA@ 1003b034     bncs_cc02_edit.obj
 0002:00033044       ??_C@_0N@NNDMHNFH@it?5c?5?$CDc7c7c7?$AA@ 1003b044     bncs_cc02_edit.obj
 0002:00033054       ??_C@_0N@BEMFNEFL@gH?5c?5?$CD202020?$AA@ 1003b054     bncs_cc02_edit.obj
 0002:00033064       ??_C@_0N@JJGJHPHA@hr?5c?5?$CDc7cfd7?$AA@ 1003b064     bncs_cc02_edit.obj
 0002:00033074       ??_C@_0N@CJLFHIHG@fO?5c?5?$CD20252a?$AA@ 1003b074     bncs_cc02_edit.obj
 0002:00033084       ??_C@_0N@KNIDMOIB@?44?5c?5?$CDc7e5ff?$AA@ 1003b084     bncs_cc02_edit.obj
 0002:00033094       ??_C@_0N@IOFPFOAD@me?5c?5?$CD203c5e?$AA@ 1003b094     bncs_cc02_edit.obj
 0002:000330a4       ??_C@_0N@PBIIANPA@eq?5c?5?$CDc8c8c8?$AA@ 1003b0a4     bncs_cc02_edit.obj
 0002:000330b4       ??_C@_0N@GPMHBBIP@tP?5c?5?$CD204b6c?$AA@ 1003b0b4     bncs_cc02_edit.obj
 0002:000330c4       ??_C@_0N@DNAILANN@hl?5c?5?$CDc8c8c9?$AA@ 1003b0c4     bncs_cc02_edit.obj
 0002:000330d4       ??_C@_0N@MOJIEFDI@ly?5c?5?$CD210000?$AA@ 1003b0d4     bncs_cc02_edit.obj
 0002:000330e4       ??_C@_0N@MHFECLGJ@t6?5c?5?$CDc8eaff?$AA@ 1003b0e4     bncs_cc02_edit.obj
 0002:000330f4       ??_C@_0N@PGHBOKKD@g6?5c?5?$CD210700?$AA@ 1003b0f4     bncs_cc02_edit.obj
 0002:00033104       ??_C@_0N@FMABOAMJ@jp?5c?5?$CDc9bbab?$AA@ 1003b104     bncs_cc02_edit.obj
 0002:00033114       ??_C@_0N@EECMHFDD@sU?5c?5?$CD211303?$AA@ 1003b114     bncs_cc02_edit.obj
 0002:00033124       ??_C@_0N@DPHKKABD@hg?5c?5?$CDc9c9c9?$AA@ 1003b124     bncs_cc02_edit.obj
 0002:00033134       ??_C@_0N@OLDGJFGI@kS?5c?5?$CD211411?$AA@ 1003b134     bncs_cc02_edit.obj
 0002:00033144       ??_C@_0N@DAEFILPH@e2?5c?5?$CDc9e6ff?$AA@ 1003b144     bncs_cc02_edit.obj
 0002:00033154       ??_C@_0N@FIHHFELI@pN?5c?5?$CD212121?$AA@ 1003b154     bncs_cc02_edit.obj
 0002:00033164       ??_C@_0N@GJONCALB@cy?5c?5?$CDc9e7ff?$AA@ 1003b164     bncs_cc02_edit.obj
 0002:00033174       ??_C@_0N@OKKHGPJF@q1?5c?5?$CD212222?$AA@ 1003b174     bncs_cc02_edit.obj
 0002:00033184       ??_C@_0N@JLLMHFGO@oL?5c?5?$CDcabcb1?$AA@ 1003b184     bncs_cc02_edit.obj
 0002:00033194       ??_C@_0N@FJHDDBJJ@x3?5c?5?$CD212a32?$AA@ 1003b194     bncs_cc02_edit.obj
 0002:000331a4       ??_C@_0N@BBFPEAGI@r7?5c?5?$CDcacaca?$AA@ 1003b1a4     bncs_cc02_edit.obj
 0002:000331b4       ??_C@_0N@ILBIAEIP@pR?5c?5?$CD212c3a?$AA@ 1003b1b4     bncs_cc02_edit.obj
 0002:000331c4       ??_C@_0N@DGKIAFHH@yR?5c?5?$CDcae8ff?$AA@ 1003b1c4     bncs_cc02_edit.obj
 0002:000331d4       ??_C@_0N@BMBJGKLH@jC?5c?5?$CD214065?$AA@ 1003b1d4     bncs_cc02_edit.obj
 0002:000331e4       ??_C@_0N@IBAEHKBM@al?5c?5?$CDcaebff?$AA@ 1003b1e4     bncs_cc02_edit.obj
 0002:000331f4       ??_C@_0N@JFJEKAJD@uf?5c?5?$CD22160b?$AA@ 1003b1f4     bncs_cc02_edit.obj
 0002:00033208       ??_7bncs_cc02_edit@@6BQObject@@@ 1003b208     bncs_cc02_edit.obj
 0002:000333cc       ??_7bncs_cc02_edit@@6BQPaintDevice@@@ 1003b3cc     bncs_cc02_edit.obj
 0002:000333f4       ??_SQPushButton@@6BQObject@@@ 1003b3f4     bncs_cc02_edit.obj
 0002:000335e4       ??_SQPushButton@@6BQPaintDevice@@@ 1003b5e4     bncs_cc02_edit.obj
 0002:0003360c       ??_SQFrame@@6BQObject@@@   1003b60c     bncs_cc02_edit.obj
 0002:000337e0       ??_SQFrame@@6BQPaintDevice@@@ 1003b7e0     bncs_cc02_edit.obj
 0002:00033804       ??_SQLabel@@6BQObject@@@   1003b804     bncs_cc02_edit.obj
 0002:000339fc       ??_SQLabel@@6BQPaintDevice@@@ 1003b9fc     bncs_cc02_edit.obj
 0002:00033a24       ??_SQLineEdit@@6BQObject@@@ 1003ba24     bncs_cc02_edit.obj
 0002:00033c4c       ??_SQLineEdit@@6BQPaintDevice@@@ 1003bc4c     bncs_cc02_edit.obj
 0002:00033c74       ??_SQSpacerItem@@6B@       1003bc74     bncs_cc02_edit.obj
 0002:00033cbc       ??_SQHBoxLayout@@6BQObject@@@ 1003bcbc     bncs_cc02_edit.obj
 0002:00033d24       ??_SQHBoxLayout@@6BQLayoutItem@@@ 1003bd24     bncs_cc02_edit.obj
 0002:00033d6c       ??_SQVBoxLayout@@6BQObject@@@ 1003bd6c     bncs_cc02_edit.obj
 0002:00033dd4       ??_SQVBoxLayout@@6BQLayoutItem@@@ 1003bdd4     bncs_cc02_edit.obj
 0002:00033e14       ??_C@_0P@HPGNJFLH@bncs_cc02_edit?$AA@ 1003be14     bncs_cc02_edit.obj
 0002:00033e24       ??_C@_0BF@EGCFDLEO@bncs_cc02_editLayout?$AA@ 1003be24     bncs_cc02_edit.obj
 0002:00033e3c       ??_C@_07PMGFJLLE@layout3?$AA@ 1003be3c     bncs_cc02_edit.obj
 0002:00033e44       ??_C@_0L@KGLFILOJ@textLabel1?$AA@ 1003be44     bncs_cc02_edit.obj
 0002:00033e50       ??_C@_08LJAGBOCI@buttonId?$AA@ 1003be50     bncs_cc02_edit.obj
 0002:00033e5c       ??_C@_07IBBCGPPB@layout6?$AA@ 1003be5c     bncs_cc02_edit.obj
 0002:00033e64       ??_C@_06BLHGOIEM@frame3?$AA@ 1003be64     bncs_cc02_edit.obj
 0002:00033e6c       ??_C@_09KGFKFEOD@lineEdit4?$AA@ 1003be6c     bncs_cc02_edit.obj
 0002:00033e78       ??_C@_09LPEBGFKC@lineEdit5?$AA@ 1003be78     bncs_cc02_edit.obj
 0002:00033e84       ??_C@_09OJBLMCCE@lineEdit3?$AA@ 1003be84     bncs_cc02_edit.obj
 0002:00033e90       ??_C@_09JEGMDGGB@lineEdit6?$AA@ 1003be90     bncs_cc02_edit.obj
 0002:00033e9c       ??_C@_09NLCNKAKG@lineEdit1?$AA@ 1003be9c     bncs_cc02_edit.obj
 0002:00033ea8       ??_C@_09PAAAPDGF@lineEdit2?$AA@ 1003bea8     bncs_cc02_edit.obj
 0002:00033eb4       ??_C@_07DHCFJLGA@Layout1?$AA@ 1003beb4     bncs_cc02_edit.obj
 0002:00033ebc       ??_C@_0L@EMHMCPKI@buttonHelp?$AA@ 1003bebc     bncs_cc02_edit.obj
 0002:00033ec8       ??_C@_08DKBDHOFF@buttonOk?$AA@ 1003bec8     bncs_cc02_edit.obj
 0002:00033ed4       ??_C@_0N@OLKBNHFJ@buttonCancel?$AA@ 1003bed4     bncs_cc02_edit.obj
 0002:00033ee4       ??_C@_09DMINLBG@1accept?$CI?$CJ?$AA@ 1003bee4     bncs_cc02_edit.obj
 0002:00033ef0       ??_C@_0L@OELOHDKG@2clicked?$CI?$CJ?$AA@ 1003bef0     bncs_cc02_edit.obj
 0002:00033efc       ??_C@_09OCDCAEKE@1reject?$CI?$CJ?$AA@ 1003befc     bncs_cc02_edit.obj
 0002:00033f08       ??_C@_02OLOABKKD@ID?$AA@   1003bf08     bncs_cc02_edit.obj
 0002:00033f0c       ??_C@_05JFEBOHHM@?$CGHelp?$AA@ 1003bf0c     bncs_cc02_edit.obj
 0002:00033f14       ??_C@_03DDKJIMDC@?$CGOK?$AA@ 1003bf14     bncs_cc02_edit.obj
 0002:00033f18       ??_C@_05HBFPNANJ@Alt?$CLO?$AA@ 1003bf18     bncs_cc02_edit.obj
 0002:00033f20       ??_C@_07JLEKEEPN@?$CGCancel?$AA@ 1003bf20     bncs_cc02_edit.obj
 0002:00033f28       ??_C@_05NNOKJPNF@Alt?$CLC?$AA@ 1003bf28     bncs_cc02_edit.obj
 0002:00033f30       __xmm@0000001e0000005a0000000a00000000 1003bf30     bncs_cc02_edit.obj
 0002:00033f40       __xmm@0000001e000001530000000a000000be 1003bf40     bncs_cc02_edit.obj
 0002:00033f50       __xmm@000000370000015300000023000000be 1003bf50     bncs_cc02_edit.obj
 0002:00033f60       __xmm@00000050000001530000003c000000be 1003bf60     bncs_cc02_edit.obj
 0002:00033f70       __xmm@000000e60000005a000000d200000000 1003bf70     bncs_cc02_edit.obj
 0002:00033f80       __xmm@000000e600000153000000d2000000aa 1003bf80     bncs_cc02_edit.obj
 0002:00033f94       ??_7bncs_cc02_editImpl@@6BQObject@@@ 1003bf94     bncs_cc02_editimpl.obj
 0002:00034158       ??_7bncs_cc02_editImpl@@6BQPaintDevice@@@ 1003c158     bncs_cc02_editimpl.obj
 0002:00034178       ??_C@_09PJDIALKE@1doHelp?$CI?$CJ?$AA@ 1003c178     bncs_cc02_editimpl.obj
 0002:00034184       ??_C@_06GLNOLMNC@?$CF1?2?$CF2?2?$AA@ 1003c184     bncs_cc02_editimpl.obj
 0002:0003418c       ??_C@_07JBEBLGDD@CC_ROOT?$AA@ 1003c18c     bncs_cc02_editimpl.obj
 0002:00034194       ??_C@_09DDAHAMBK@CC_SYSTEM?$AA@ 1003c194     bncs_cc02_editimpl.obj
 0002:000341a0       ??_C@_0CO@OGODFHAB@windows?2lib?2qt_plugins?2designer?2@ 1003c1a0     bncs_cc02_editimpl.obj
 0002:000341d0       ??_C@_04KLJNOHCI@?$CF1?$CF2?$AA@ 1003c1d0     bncs_cc02_editimpl.obj
 0002:000341d8       ??_C@_09IHHEHACM@BNCS_CC02?$AA@ 1003c1d8     bncs_cc02_editimpl.obj
 0002:000341e4       ??_C@_0BI@ILHLNGIN@Can?8t?5open?5help?5file?3?5?6?$AA@ 1003c1e4     bncs_cc02_editimpl.obj
 0002:00034200       ??_C@_0EHM@HPOOKHKM@?4?$CDaaaaaaaaaaaaaaaaaaaaaaaaaaaaaa@ 1003c200     bncs_cc02_qt.obj
 0002:00034680       ??_C@_0EHM@BMMKCGDN@?4?$CDaaaaaaaaaaaaaaaaaaaaaaaaaaaaaa@ 1003c680     bncs_cc02_qt.obj
 0002:00034b00       ??_C@_0EHM@JIHOGFFD@?4?$CDaaaaaaaaaaaaaaaaaaaaaaaaaaaaaa@ 1003cb00     bncs_cc02_qt.obj
 0002:00034f80       ??_C@_0EHM@LCGBFDDN@?4?$CDaaaaaaaaaaaaaaaaaaaaaaaaaaaaaa@ 1003cf80     bncs_cc02_qt.obj
 0002:00035400       ??_C@_0EHM@NJBHJKAH@?4?$CDaaaaaaaaaaaaaaaaaaaaaaaaaaaaaa@ 1003d400     bncs_cc02_qt.obj
 0002:00035880       ??_C@_0EHM@BEMJGBDH@?4?$CDaaaaaaaaaaaaaaaaaaaaaaaaaaaaaa@ 1003d880     bncs_cc02_qt.obj
 0002:00035d00       ??_C@_0EHM@LOGOPJBP@?4?$CDaaaaaaaaaaaaaaaaaaaaaaaaaaaaaa@ 1003dd00     bncs_cc02_qt.obj
 0002:00036180       ??_C@_0EHM@JPGCKOLJ@?4?$CDaaaaaaaaaaaaaaaaaaaaaaaaaaaaaa@ 1003e180     bncs_cc02_qt.obj
 0002:00036600       ??_C@_0EHM@IJJKAAMH@?4?$CDaaaaaaaaaaaaaaaaaaaaaaaaaaaaaa@ 1003e600     bncs_cc02_qt.obj
 0002:00036a80       ??_C@_0EHM@PPKIGDJB@?4?$CDaaaaaaaaaaaaaaaaaaaaaaaaaaaaaa@ 1003ea80     bncs_cc02_qt.obj
 0002:00036f00       ??_C@_0EHM@OMCJHKLE@?4?$CDaaaaaaaaaaaaaaaaaaaaaaaaaaaaaa@ 1003ef00     bncs_cc02_qt.obj
 0002:00037380       ??_C@_0EHM@DLFIGMLF@?4?$CDaaaaaaaaaaaaaaaaaaaaaaaaaaaaaa@ 1003f380     bncs_cc02_qt.obj
 0002:00037800       ??_C@_0EHM@NPPIONOD@?4?$CDaaaaaaaaaaaaaaaaaaaaaaaaaaaaaa@ 1003f800     bncs_cc02_qt.obj
 0002:00037c80       ??_C@_0EHM@PEFNOJOK@?4?$CDaaaaaaaaaaaaaaaaaaaaaaaaaaaaaa@ 1003fc80     bncs_cc02_qt.obj
 0002:00038100       ??_C@_0EHM@MMPJBPEE@?4?$CDaaaaaaaaaaaaaaaaaaaaaaaaaaaaaa@ 10040100     bncs_cc02_qt.obj
 0002:00038580       ??_C@_0EHM@FKKFEDOG@?4?$CDaaaaaaaaaaaaaaaaaaaaaaaaaaaaaa@ 10040580     bncs_cc02_qt.obj
 0002:00038a00       ??_C@_0EHM@NFIIKDKO@?4?$CDaaaaaaaaaaaaaaaaaaaaaaaaaaaaaa@ 10040a00     bncs_cc02_qt.obj
 0002:00038e80       ??_C@_0EHM@MEAHCFFC@?4?$CDaaaaaaaaaaaaaaaaaaaaaaaaaaaaaa@ 10040e80     bncs_cc02_qt.obj
 0002:00039300       ??_C@_0EHM@FAGCJHPC@?4?$CDaaaaaaaaaaaaaaaaaaaaaaaaaaaaaa@ 10041300     bncs_cc02_qt.obj
 0002:00039780       ??_C@_0EHM@MGPFAPAM@?4?$CDaaaaaaaaaaaaaaaaaaaaaaaaaaaaaa@ 10041780     bncs_cc02_qt.obj
 0002:00039c00       ??_C@_0EHM@KLBMGDAC@?4?$CDaaaaaaaaaaaaaaaaaaaaaaaaaaaaaa@ 10041c00     bncs_cc02_qt.obj
 0002:0003a080       ??_C@_0EHM@HPNLMJDO@?4?$CDaaaaaaaaaaaaaaaaaaaaaaaaaaaaaa@ 10042080     bncs_cc02_qt.obj
 0002:0003a500       ??_C@_0EHM@PFEJCIKG@?4?$CDaaaaaaaaaaaaaaaaaaaaaaaaaaaaaa@ 10042500     bncs_cc02_qt.obj
 0002:0003a980       ??_C@_0EHM@LGMGMLIN@?4?$CDaaaaaaaaaaaaaaaaaaaaaaaaaaaaaa@ 10042980     bncs_cc02_qt.obj
 0002:0003ae00       ??_C@_0EHM@GJFNNCHC@?4?$CDaaaaaaaaaaaaaaaaaaaaaaaaaaaaaa@ 10042e00     bncs_cc02_qt.obj
 0002:0003b280       ??_C@_0EHM@OKHFPEHK@?4?$CDaaaaaaaaaaaaaaaaaaaaaaaaaaaaaa@ 10043280     bncs_cc02_qt.obj
 0002:0003b700       ??_C@_0EHM@BKMEMJJA@?4?$CDaaaaaaaaaaaaaaaaaaaaaaaaaaaaaa@ 10043700     bncs_cc02_qt.obj
 0002:0003bb80       ??_C@_0EHM@JEFHEGOH@?4?$CDaaaaaaaaaaaaaaaaaaaaaaaaaaaaaa@ 10043b80     bncs_cc02_qt.obj
 0002:0003c000       ??_C@_0EHM@IFPOABNF@?4?$CDaaaaaaaaaaaaaaaaaaaaaaaaaaaaaa@ 10044000     bncs_cc02_qt.obj
 0002:0003c480       ??_C@_0EHM@EIJIMMEC@?4?$CDaaaaaaaaaaaaaaaaaaaaaaaaaaaaaa@ 10044480     bncs_cc02_qt.obj
 0002:0003c900       ??_C@_0EHM@FMILGIJO@?4?$CDaaaaaaaaaaaaaaaaaaaaaaaaaaaaaa@ 10044900     bncs_cc02_qt.obj
 0002:0003cd80       ??_C@_0EHM@BPGDBANN@?4?$CDaaaaaaaaaaaaaaaaaaaaaaaaaaaaaa@ 10044d80     bncs_cc02_qt.obj
 0002:0003d200       ??_C@_0EHM@KOAFIFOE@?4?$CDaaaaaaaaaaaaaaaaaaaaaaaaaaaaaa@ 10045200     bncs_cc02_qt.obj
 0002:0003d680       ??_C@_0EHM@JNLNCAGM@?4?$CDaaaaaaaaaaaaaaaaaaaaaaaaaaaaaa@ 10045680     bncs_cc02_qt.obj
 0002:0003db00       ??_C@_0EHM@GLJDHFCM@?4?$CDaaaaaaaaaaaaaaaaaaaaaaaaaaaaaa@ 10045b00     bncs_cc02_qt.obj
 0002:0003df80       ??_C@_0EHM@PJBOMIOJ@?4?$CDaaaaaaaaaaaaaaaaaaaaaaaaaaaaaa@ 10045f80     bncs_cc02_qt.obj
 0002:0003e400       ??_C@_0EHM@KLGELPNO@?4?$CDaaaaaaaaaaaaaaaaaaaaaaaaaaaaaa@ 10046400     bncs_cc02_qt.obj
 0002:0003e880       ??_C@_0EHM@NONBMHCM@?4?$CDaaaaaaaaaaaaaaaaaaaaaaaaaaaaaa@ 10046880     bncs_cc02_qt.obj
 0002:0003ecfc       ??_C@_0O@KNJNPJGP@1147?5826?529?51?$AA@ 10046cfc     bncs_cc02_qt.obj
 0002:0003ed0c       ??_C@_0M@HIKHPPPO@a?5c?5?$CD000000?$AA@ 10046d0c     bncs_cc02_qt.obj
 0002:0003ed18       ??_C@_0M@KNNJMEDN@f?5c?5?$CD00003a?$AA@ 10046d18     bncs_cc02_qt.obj
 0002:0003ed24       ??_C@_0M@MKFDFHKJ@s?5c?5?$CD000066?$AA@ 10046d24     bncs_cc02_qt.obj
 0002:0003ed30       ??_C@_0M@EGGNJLOH@m?5c?5?$CD003a90?$AA@ 10046d30     bncs_cc02_qt.obj
 0002:0003ed3c       ??_C@_0M@IPEFFIDF@u?5c?5?$CD006666?$AA@ 10046d3c     bncs_cc02_qt.obj
 0002:0003ed48       ??_C@_0M@JKHMKMNE@j?5c?5?$CD0066b6?$AA@ 10046d48     bncs_cc02_qt.obj
 0002:0003ed54       ??_C@_0M@OPEMFLPB@?$CD?5c?5?$CD262626?$AA@ 10046d54     bncs_cc02_qt.obj
 0002:0003ed60       ??_C@_0M@INJLAFEO@e?5c?5?$CD3a0000?$AA@ 10046d60     bncs_cc02_qt.obj
 0002:0003ed6c       ??_C@_0M@BLDDNKPG@r?5c?5?$CD3a90db?$AA@ 10046d6c     bncs_cc02_qt.obj
 0002:0003ed78       ??_C@_0M@MBDGMECF@q?5c?5?$CD660000?$AA@ 10046d78     bncs_cc02_qt.obj
 0002:0003ed84       ??_C@_0M@ILGEEJLD@z?5c?5?$CD663a90?$AA@ 10046d84     bncs_cc02_qt.obj
 0002:0003ed90       ??_C@_0M@FJNIJAIO@b?5c?5?$CD66b6ff?$AA@ 10046d90     bncs_cc02_qt.obj
 0002:0003ed9c       ??_C@_0M@NPCCNOME@i?5c?5?$CD903a00?$AA@ 10046d9c     bncs_cc02_qt.obj
 0002:0003eda8       ??_C@_0M@OADCCJPK@w?5c?5?$CD9090db?$AA@ 10046da8     bncs_cc02_qt.obj
 0002:0003edb4       ??_C@_0M@NKBAKJMG@v?5c?5?$CD90dbdb?$AA@ 10046db4     bncs_cc02_qt.obj
 0002:0003edc0       ??_C@_0M@CKEFBJDP@g?5c?5?$CD90dbff?$AA@ 10046dc0     bncs_cc02_qt.obj
 0002:0003edcc       ??_C@_0M@FJKOJNBP@o?5c?5?$CDb66600?$AA@ 10046dcc     bncs_cc02_qt.obj
 0002:0003edd8       ??_C@_0M@FMFPKBKK@A?5c?5?$CDb6b6b6?$AA@ 10046dd8     bncs_cc02_qt.obj
 0002:0003ede4       ??_C@_0M@FDOKLMFE@t?5c?5?$CDb6ffff?$AA@ 10046de4     bncs_cc02_qt.obj
 0002:0003edf0       ??_C@_0M@OOIEOOPL@?4?5c?5?$CDd6d6d6?$AA@ 10046df0     bncs_cc02_qt.obj
 0002:0003edfc       ??_C@_0M@KILKMDPK@k?5c?5?$CDdb903a?$AA@ 10046dfc     bncs_cc02_qt.obj
 0002:0003ee08       ??_C@_0M@LLKILJOB@y?5c?5?$CDdb9066?$AA@ 10046e08     bncs_cc02_qt.obj
 0002:0003ee14       ??_C@_0M@CBBANCOE@x?5c?5?$CDdbb6b6?$AA@ 10046e14     bncs_cc02_qt.obj
 0002:0003ee20       ??_C@_0M@EBAKMGBC@n?5c?5?$CDdbffff?$AA@ 10046e20     bncs_cc02_qt.obj
 0002:0003ee2c       ??_C@_0M@EJLFNBDE@l?5c?5?$CDffb666?$AA@ 10046e2c     bncs_cc02_qt.obj
 0002:0003ee38       ??_C@_0M@NJJACKCE@d?5c?5?$CDffdb90?$AA@ 10046e38     bncs_cc02_qt.obj
 0002:0003ee44       ??_C@_0M@BFJPFOEH@p?5c?5?$CDffffb6?$AA@ 10046e44     bncs_cc02_qt.obj
 0002:0003ee50       ??_C@_0M@MFNBCBKH@h?5c?5?$CDffffdb?$AA@ 10046e50     bncs_cc02_qt.obj
 0002:0003ee5c       ??_C@_0M@NDKLJEMD@c?5c?5?$CDffffff?$AA@ 10046e5c     bncs_cc02_qt.obj
 0002:0003ee68       ??_C@_0EHM@NKJDDEL@?4?$CDaaaaaaaaaaaaaaaaaaaaaaaaaaaaaa@ 10046e68     bncs_cc02_qt.obj
 0002:0003f2e8       ??_C@_0EHM@JNKELCMH@?4?$CDaaaaaaaaaaaaaaaaaaaaaaaaaaaaaa@ 100472e8     bncs_cc02_qt.obj
 0002:0003f768       ??_C@_0EHM@OBAPJCID@?4?$CDaaaaaaaaaaaaaaaaaaaaaaaaaaaaaa@ 10047768     bncs_cc02_qt.obj
 0002:0003fbe8       ??_C@_0EHM@MCENJDBG@?4?$CDaaaaaaaaaaaaaaaaaaaaaaaaaaaaaa@ 10047be8     bncs_cc02_qt.obj
 0002:00040068       ??_C@_0EHM@CNHBHPGK@?4?$CDaaaaaaaaaaaaaaaaaaaaaaaaaaaaaa@ 10048068     bncs_cc02_qt.obj
 0002:000404e8       ??_C@_0EHM@EOCIJECD@?4?$CDaaaaaaaaaaaaaaaaaaaaaaaaaaaaaa@ 100484e8     bncs_cc02_qt.obj
 0002:00040968       ??_C@_0EHM@MBIOAKAN@?4?$CDaaaaaaaaaaaaaaaaaaaaaaaaaaaaaa@ 10048968     bncs_cc02_qt.obj
 0002:00040de8       ??_C@_0EHM@PAEMLJHP@?4?$CDaaaaaaaaaaaaaaaaaaaaaaaaaaaaaa@ 10048de8     bncs_cc02_qt.obj
 0002:00041268       ??_C@_0EHM@LEAGFCNN@?4?$CDaaaaaaaaaaaaaaaaaaaaaaaaaaaaaa@ 10049268     bncs_cc02_qt.obj
 0002:000416e8       ??_C@_0EHM@OONBNDEL@?4?$CDaaaaaaaaaaaaaaaaaaaaaaaaaaaaaa@ 100496e8     bncs_cc02_qt.obj
 0002:00041b68       ??_C@_0EHM@PBFNAEB@?4?$CDaaaaaaaaaaaaaaaaaaaaaaaaaaaaaa@ 10049b68     bncs_cc02_qt.obj
 0002:00041fe8       ??_C@_0EHM@PLKGABFG@?4?$CDaaaaaaaaaaaaaaaaaaaaaaaaaaaaaa@ 10049fe8     bncs_cc02_qt.obj
 0002:00042468       ??_C@_0EHM@PIFELLNI@?4?$CDaaaaaaaaaaaaaaaaaaaaaaaaaaaaaa@ 1004a468     bncs_cc02_qt.obj
 0002:000428e8       ??_C@_0EHM@PLINHCHL@?4?$CDaaaaaaaaaaaaaaaaaaaaaaaaaaaaaa@ 1004a8e8     bncs_cc02_qt.obj
 0002:00042d68       ??_C@_0EHM@HGFPMNIB@?4?$CDaaaaaaaaaaaaaaaaaaaamncccccccc@ 1004ad68     bncs_cc02_qt.obj
 0002:000431e8       ??_C@_0EHM@PNIMAKFH@?4?$CDaaaaaaaaaaaaaaaaaaaamncccccccc@ 1004b1e8     bncs_cc02_qt.obj
 0002:00043668       ??_C@_0EHM@IDDDJOGH@?4?$CDaaaaaaaaaaaaaaaaaaaamncccccccc@ 1004b668     bncs_cc02_qt.obj
 0002:00043ae8       ??_C@_0EHM@BKGDKDMB@?4?$CDaaaaaaaaaaaaaaaaaaaamncccccccc@ 1004bae8     bncs_cc02_qt.obj
 0002:00043f68       ??_C@_0EHM@LALHCBEI@?4?$CDaaaaaaaaaaaaaaaaaaaamncccccccc@ 1004bf68     bncs_cc02_qt.obj
 0002:000443e8       ??_C@_0EHM@FDMLGPKH@?4?$CDaaaaaaaaaaaaaaaaaaaamncccccccc@ 1004c3e8     bncs_cc02_qt.obj
 0002:00044868       ??_C@_0EHM@IPBNMDJJ@?4?$CDaaaaaaaaaaaaaaaaaaaaaaaaaaaaaa@ 1004c868     bncs_cc02_qt.obj
 0002:00044ce8       ??_C@_0EHM@INMMGDDG@?4?$CDaaaaaaaaaaaaaaaaaaaaaaaaaaaaaa@ 1004cce8     bncs_cc02_qt.obj
 0002:00045168       ??_C@_0EHM@MGEONJMG@?4?$CDaaaaaaaaaaaaaaaaaaaaaaaaaaaaaa@ 1004d168     bncs_cc02_qt.obj
 0002:000455e8       ??_C@_0EHM@NPBMKLKF@?4?$CDaaaaaaaaaaaaaaaaaaaaaaaaaaaaaa@ 1004d5e8     bncs_cc02_qt.obj
 0002:00045a68       ??_C@_0EHM@DKDHJMLO@?4?$CDaaaaaaaaaaaaaaaaaaaaaaaaaaaaaa@ 1004da68     bncs_cc02_qt.obj
 0002:00045ee8       ??_C@_0EHM@HEIOHANI@?4?$CDaaaaaaaaaaaaaaaaaaaaaaaaaaaaaa@ 1004dee8     bncs_cc02_qt.obj
 0002:00046368       ??_C@_0EHM@LNLLMEKA@?4?$CDaaaaaaaaaaaaaaaaaaaaaaaaaaaaaa@ 1004e368     bncs_cc02_qt.obj
 0002:000467e8       ??_C@_0EHM@NBBOANC@?4?$CDaaaaaaaaaaaaaaaaaaaaaaaaaaaaaa@ 1004e7e8     bncs_cc02_qt.obj
 0002:00046c68       ??_C@_0EHM@PCDIKFPE@?4?$CDaaaaaaaaaaaaaaaaaaaaaaaaaaaaaa@ 1004ec68     bncs_cc02_qt.obj
 0002:000470e8       ??_C@_0EHM@BPACFGND@?4?$CDaaaaaaaaaaaaaaaaaaaaaaaaaaaaaa@ 1004f0e8     bncs_cc02_qt.obj
 0002:00047568       ??_C@_0EHM@OLLALABF@?4?$CDaaaaaaaaaaaaaaaaaaaaaaaaaaaaaa@ 1004f568     bncs_cc02_qt.obj
 0002:000479e8       ??_C@_0EHM@NJGFKEIF@?4?$CDaaaaaaaaaaaaaaaaaaaaaaaaaaaaaa@ 1004f9e8     bncs_cc02_qt.obj
 0002:00047e68       ??_C@_0EHM@HLJNKLHJ@?4?$CDaaaaaaaaaaaaaaaaaaaaaaaaaaaaaa@ 1004fe68     bncs_cc02_qt.obj
 0002:000482e8       ??_C@_0EHM@LABIAGJK@?4?$CDaaaaaaaaaaaaaaaaaaaaaaaaaaaaaa@ 100502e8     bncs_cc02_qt.obj
 0002:00048768       ??_C@_0EHM@NOMJNMFA@?4?$CDaaaaaaaaaaaaaaaaaaaaaaaaaaaaaa@ 10050768     bncs_cc02_qt.obj
 0002:00048be8       ??_C@_0EHM@NINAAAHE@?4?$CDaaaaaaaaaaaaaaaaaaaaaaaaaaaaaa@ 10050be8     bncs_cc02_qt.obj
 0002:00049068       ??_C@_0EHM@NIJJKHGP@?4?$CDaaaaaaaaaaaaaaaaaaaaaaaaaaaaaa@ 10051068     bncs_cc02_qt.obj
 0002:000494e8       ??_C@_0EHM@FJGCBPNA@?4?$CDaaaaaaaaaaaaaaaaaaaaaaaaaaaaaa@ 100514e8     bncs_cc02_qt.obj
 0002:00049968       ??_C@_0EHM@JGGJAHDD@?4?$CDaaaaaaaaaaaaaaaaaaaaaaaaaaaaaa@ 10051968     bncs_cc02_qt.obj
 0002:00049de8       ??_C@_0EHM@BJMMCADO@?4?$CDaaaaaaaaaaaaaaaaaaaaaaaaaaaaaa@ 10051de8     bncs_cc02_qt.obj
 0002:0004a268       ??_C@_0EHM@KLCFGCEF@?4?$CDaaaaaaaaaaaaaaaaaaaaaaaaaaaaaa@ 10052268     bncs_cc02_qt.obj
 0002:0004a6e8       ??_C@_0EHM@LBFLJKAC@?4?$CDaaaaaaaaaaaaaaaaaaaaaaaaaaaaaa@ 100526e8     bncs_cc02_qt.obj
 0002:0004ab68       ??_C@_0EHM@PMKIKBOO@?4?$CDaaaaaaaaaaaaaaaaaaaaaaaaaaaaaa@ 10052b68     bncs_cc02_qt.obj
 0002:0004afe8       ??_C@_0EHM@HBMPGDKE@?4?$CDaaaaaaaaaaaaaaaaaaaaaaaaaaaaaa@ 10052fe8     bncs_cc02_qt.obj
 0002:0004b468       ??_C@_0EHM@BHMOOFK@?4?$CDaaaaaaaaaaaaaaaaaaaaaaaaaaaaaa@ 10053468     bncs_cc02_qt.obj
 0002:0004b8e8       ??_C@_0EHM@BPBNJEJP@?4?$CDaaaaaaaaaaaaaaaaaaaaaaaaaaaaaa@ 100538e8     bncs_cc02_qt.obj
 0002:0004bd68       ??_C@_0EHM@MMBEHFGA@?4?$CDaaaaaaaaaaaaaaaaaaaaaaaaaaaaaa@ 10053d68     bncs_cc02_qt.obj
 0002:0004c1e8       ??_C@_0EHM@DKCFMDEP@?4?$CDaaaaaaaaaaaaaaaaaaaaaaaaaaaaaa@ 100541e8     bncs_cc02_qt.obj
 0002:0004c668       ??_C@_0EHM@LOHNDFPK@?4?$CDaaaaaaaaaaaaaaaaaaaaaaaaaaaaaa@ 10054668     bncs_cc02_qt.obj
 0002:0004cae8       ??_C@_0EHM@DMKBOCP@?4?$CDaaaaaaaaaaaaaaaaaaaaaaaaaaaaaa@ 10054ae8     bncs_cc02_qt.obj
 0002:0004cf68       ??_C@_0EHM@LJOCDCEG@?4?$CDaaaaaaaaaaaaaaaaaaaaaaaaaaaaaa@ 10054f68     bncs_cc02_qt.obj
 0002:0004d3e8       ??_C@_0EHM@JANCJNI@?4?$CDaaaaaaaaaaaaaaaaaaaaaaaaaaaaaa@ 100553e8     bncs_cc02_qt.obj
 0002:0004d868       ??_C@_0EHM@OJLCPNLC@?4?$CDaaaaaaaaaaaaaaaaaaaaaaaaaaaaaa@ 10055868     bncs_cc02_qt.obj
 0002:0004dce8       ??_C@_0EHM@DIIJIEMF@?4?$CDaaaaaaaaaaaaaaaaaaaaaaaaaaaaaa@ 10055ce8     bncs_cc02_qt.obj
 0002:0004e168       ??_C@_0EHM@GBIGHIAN@?4?$CDaaaaaaaaaaaaaaaaaaaaaaaaaaaaaa@ 10056168     bncs_cc02_qt.obj
 0002:0004e5e8       ??_C@_0EHM@PLNLDHID@?4?$CDaaaaaaaaaaaaaaaaaaaaaaaaaaaaaa@ 100565e8     bncs_cc02_qt.obj
 0002:0004ea68       ??_C@_0EHM@JBMDJEJJ@?4?$CDaaaaaaaaaaaaaaaaaaaaaaaaaaaaaa@ 10056a68     bncs_cc02_qt.obj
 0002:0004eee8       ??_C@_0EHM@NMPDDKD@?4?$CDaaaaaaaaaaaaaaaaaaaaaaaaaaaaaa@ 10056ee8     bncs_cc02_qt.obj
 0002:0004f368       ??_C@_0EHM@KPFIMCKH@?4?$CDaaaaaaaaaaaaaaaaaaaaaaaaaaaaaa@ 10057368     bncs_cc02_qt.obj
 0002:0004f7e8       ??_C@_0EHM@MACLLOKM@?4?$CDaaaaaaaaaaaaaaaaaaaaaaaaaaaaaa@ 100577e8     bncs_cc02_qt.obj
 0002:0004fc68       ??_C@_0EHM@EPHCMBAP@?4?$CDaaaaaaaaaaaaaaaaaaaaaaaaaaaaaa@ 10057c68     bncs_cc02_qt.obj
 0002:000500e8       ??_C@_0EHM@GFJFBKHA@?4?$CDaaaaaaaaaaaaaaaaaaaaaaaaaaaaaa@ 100580e8     bncs_cc02_qt.obj
 0002:00050568       ??_C@_0EHM@JMGGFNOC@?4?$CDaaaaaaaaaaaaaaaaaaaaaaaaaaaaaa@ 10058568     bncs_cc02_qt.obj
 0002:000509e8       ??_C@_0EHM@LFFGFHLN@?4?$CDaaaaaaaaaaaaaaaaaaaaaaaaaaaaaa@ 100589e8     bncs_cc02_qt.obj
 0002:00050e68       ??_C@_0EHM@CJGJKDNC@?4?$CDaaaaaaaaaaaaaaaaaaaaaaaaaaaaaa@ 10058e68     bncs_cc02_qt.obj
 0002:000512e8       ??_C@_0EHM@KAJKCIGO@?4?$CDaaaaaaaaaaaaaaaaaaaaaaaaaaaaaa@ 100592e8     bncs_cc02_qt.obj
 0002:00051768       ??_C@_0EHM@NDKJFPPG@?4?$CDaaaaaaaaaaaaaaaaaaaaaaaaaaaaaa@ 10059768     bncs_cc02_qt.obj
 0002:00051be8       ??_C@_0EHM@JDCKCABA@?4?$CDaaaaaaaaaaaaaaaaaaaaaaaaaaaaaa@ 10059be8     bncs_cc02_qt.obj
 0002:00052068       ??_C@_0EHM@KKGBKNDG@?4?$CDaaaaaaaaaaaaaaaaaaaaaaaaaaaaaa@ 1005a068     bncs_cc02_qt.obj
 0002:000524e8       ??_C@_0EHM@NDNLJMPB@?4?$CDaaaaaaaaaaaaaaaaaaaaaaaaaaaaaa@ 1005a4e8     bncs_cc02_qt.obj
 0002:00052968       ??_C@_0EHM@PKCIHLIN@?4?$CDaaaaaaaaaaaaaaaaaaaaaaaaaaaaaa@ 1005a968     bncs_cc02_qt.obj
 0002:00052de8       ??_C@_0EHM@LACAGBOB@?4?$CDaaaaaaaaaaaaaaaaaaaaaaaaaaaaaa@ 1005ade8     bncs_cc02_qt.obj
 0002:00053268       ??_C@_0EHM@HLJHNGLK@?4?$CDaaaaaaaaaaaaaaaaaaaaaaaaaaaaaa@ 1005b268     bncs_cc02_qt.obj
 0002:000536e8       ??_C@_0EHM@LGODOFEN@?4?$CDaaaaaaaaaaaaaaaaaaaaaaaaaaaaaa@ 1005b6e8     bncs_cc02_qt.obj
 0002:00053b68       ??_C@_0EHM@LCBFDOGA@?4?$CDaaaaaaaaaaaaaaaaaaaaaaaaaaaaaa@ 1005bb68     bncs_cc02_qt.obj
 0002:00053fe8       ??_C@_0EHM@KGOLFGNL@?4?$CDaaaaaaaaaaaaaaaaaaaaaaaaaaaaaa@ 1005bfe8     bncs_cc02_qt.obj
 0002:00054468       ??_C@_0EHM@HMADFILJ@?4?$CDaaaaaaaaaaaaaaaaaaaaaaaaaaaaaa@ 1005c468     bncs_cc02_qt.obj
 0002:000548e8       ??_C@_0EHM@IPILAHDB@?4?$CDaaaaaaaaaaaaaaaaaaaaaaaaaaaaaa@ 1005c8e8     bncs_cc02_qt.obj
 0002:00054d68       ??_C@_0EHM@HIHPICCO@?4?$CDaaaaaaaaaaaaaaaaaaaaaaaaaaaaaa@ 1005cd68     bncs_cc02_qt.obj
 0002:000551e8       ??_C@_0EHM@MAOJPNJI@?4?$CDaaaaaaaaaaaaaaaaaaaaaaaaaaaaaa@ 1005d1e8     bncs_cc02_qt.obj
 0002:00055668       ??_C@_0EHM@BOFEHFEJ@?4?$CDaaaaaaaaaaaaaaaaaaaaaaaaaaaaaa@ 1005d668     bncs_cc02_qt.obj
 0002:00055ae8       ??_C@_0EHM@BAAMNFGM@?4?$CDaaaaaaaaaaaaaaaaaaaaaaaaaaaaaa@ 1005dae8     bncs_cc02_qt.obj
 0002:00055f68       ??_C@_0EHM@JOFDAAMJ@?4?$CDaaaaaaaaaaaaaaaaaaaaaaaaaaaaaa@ 1005df68     bncs_cc02_qt.obj
 0002:000563e8       ??_C@_0EHM@LNFHFKCO@?4?$CDaaaaaaaaaaaaaaaaaaaaaaaaaaaaaa@ 1005e3e8     bncs_cc02_qt.obj
 0002:00056868       ??_C@_0EHM@KFMCODHP@?4?$CDaaaaaaaaaaaaaaaaaaaaaaaaaaaaaa@ 1005e868     bncs_cc02_qt.obj
 0002:00056ce8       ??_C@_0EHM@NPLNDOKJ@?4?$CDaaaaaaaaaaaaaaaaaaaaaaaaaaaaaa@ 1005ece8     bncs_cc02_qt.obj
 0002:00057168       ??_C@_0EHM@DFDKJFDB@?4?$CDaaaaaaaaaaaaaaaaaaaaaaaaaaaaaa@ 1005f168     bncs_cc02_qt.obj
 0002:000575e8       ??_C@_0EHM@JCNKFLIE@?4?$CDaaaaaaaaaaaaaaaaaaaaaaaaaaaaaa@ 1005f5e8     bncs_cc02_qt.obj
 0002:00057a68       ??_C@_0EHM@ECNDHKOJ@?4?$CDaaaaaaaaaaaaaaaaaaaaaaaaaaaaaa@ 1005fa68     bncs_cc02_qt.obj
 0002:00057ee8       ??_C@_0EHM@BPGIKKME@?4?$CDaaaaaaaaaaaaaaaaaaaaaaaaaaaaaa@ 1005fee8     bncs_cc02_qt.obj
 0002:00058368       ??_C@_0EHM@BKMJCFGM@?4?$CDaaaaaaaaaaaaaaaaaaaaaaaaaaaaaa@ 10060368     bncs_cc02_qt.obj
 0002:000587e8       ??_C@_0EHM@HBHPOMCN@?4?$CDaaaaaaaaaaaaaaaaaaaaaaaaaaaaaa@ 100607e8     bncs_cc02_qt.obj
 0002:00058c68       ??_C@_0EHM@CPJMDFKP@?4?$CDaaaaaaaaaaaaaaaaaaaaaaaaaaaaaa@ 10060c68     bncs_cc02_qt.obj
 0002:000590e8       ??_C@_0EHM@FMIGMNEI@?4?$CDaaaaaaaaaaaaaaaaaaaaaaaaaaaaaa@ 100610e8     bncs_cc02_qt.obj
 0002:00059568       ??_C@_0EHM@HCKCEFJF@?4?$CDaaaaaaaaaaaaaaaaaaaaaaaaaaaaaa@ 10061568     bncs_cc02_qt.obj
 0002:000599e8       ??_C@_0EHM@HLKCEJB@?4?$CDaaaaaaaaaaaaaaaaaaaaaaaaaaaaaa@ 100619e8     bncs_cc02_qt.obj
 0002:00059e68       ??_C@_0EHM@BEHDEJOE@?4?$CDaaaaaaaaaaaaaaaaaaaaaaaaaaaaaa@ 10061e68     bncs_cc02_qt.obj
 0002:0005a2e8       ??_C@_0EHM@MNOFHNLO@?4?$CDaaaaaaaaaaaaaaaaaaaaaaaaaaaaaa@ 100622e8     bncs_cc02_qt.obj
 0002:0005a768       ??_C@_0EHM@NBECDLCE@?4?$CDaaaaaaaaaaaaaaaaaaaaaaaaaaaaaa@ 10062768     bncs_cc02_qt.obj
 0002:0005abe8       ??_C@_0EHM@EPBJPCJI@?4?$CDaaaaaaaaaaaaaaaaaaaaaaaaaaaaaa@ 10062be8     bncs_cc02_qt.obj
 0002:0005b068       ??_C@_0EHM@OHGOKFFI@?4?$CDaaaaaaaaaaaaaaaaaaaaaaaaaaaaaa@ 10063068     bncs_cc02_qt.obj
 0002:0005b4e8       ??_C@_0EHM@PJNLAHBA@?4?$CDaaaaaaaaaaaaaaaaaaaaaaaaaaaaaa@ 100634e8     bncs_cc02_qt.obj
 0002:0005b968       ??_C@_0EHM@LMNMPOGO@?4?$CDaaaaaaaaaaaaaaaaaaaaaaaaaaaaaa@ 10063968     bncs_cc02_qt.obj
 0002:0005bde8       ??_C@_0EHM@JOADJKCM@?4?$CDaaaaaaaaaaaaaaaaaaaaaaaaaaaaaa@ 10063de8     bncs_cc02_qt.obj
 0002:0005c268       ??_C@_0EHM@FDACNNJL@?4?$CDaaaaaaaaaaaaaaaaaaaaaaaaaaaaaa@ 10064268     bncs_cc02_qt.obj
 0002:0005c6e8       ??_C@_0EHM@ENNLJONF@?4?$CDaaaaaaaaaaaaaaaaaaaaaaaaaaaaaa@ 100646e8     bncs_cc02_qt.obj
 0002:0005cb68       ??_C@_0EHM@HFMNPINI@?4?$CDaaaaaaaaaaaaaaaaaaaaaaaaaaaaaa@ 10064b68     bncs_cc02_qt.obj
 0002:0005cfe8       ??_C@_0EHM@HJIKFIDJ@?4?$CDaaaaaaaaaaaaaaaaaaaaaaaaaaaaaa@ 10064fe8     bncs_cc02_qt.obj
 0002:0005d468       ??_C@_0EHM@GCFHIMF@?4?$CDaaaaaaaaaaaaaaaaaaaaaaaaaaaaaa@ 10065468     bncs_cc02_qt.obj
 0002:0005d8e8       ??_C@_0EHM@IEPAKPDE@?4?$CDaaaaaaaaaaaaaaaaaaaaaaaaaaaaaa@ 100658e8     bncs_cc02_qt.obj
 0002:0005dd68       ??_C@_0EHM@NMNNBFBG@?4?$CDaaaaaaaaaaaaaaaaaaaaaaaaaaaaaa@ 10065d68     bncs_cc02_qt.obj
 0002:0005e1e8       ??_C@_0EHM@LMKBCFLF@?4?$CDaaaaaaaaaaaaaaaaaaaaaaaaaaaaaa@ 100661e8     bncs_cc02_qt.obj
 0002:0005e668       ??_C@_0EHM@EBMFONHO@?4?$CDaaaaaaaaaaaaaaaaaaaaaaaaaaaaaa@ 10066668     bncs_cc02_qt.obj
 0002:0005eae8       ??_C@_0EHM@ENAKIAGD@?4?$CDaaaaaaaaaaaaaaaaaaaaaaaaaaaaaa@ 10066ae8     bncs_cc02_qt.obj
 0002:0005ef68       ??_C@_0EHM@PMAODDOF@?4?$CDaaaaaaaaaaaaaaaaaaaaaaaaaaaaaa@ 10066f68     bncs_cc02_qt.obj
 0002:0005f3e8       ??_C@_0EHM@NICJKBI@?4?$CDaaaaaaaaaaaaaaaaaaaaaaaaaaaaaa@ 100673e8     bncs_cc02_qt.obj
 0002:0005f868       ??_C@_0EHM@MBOBKFPK@?4?$CDaaaaaaaaaaaaaaaaaaaaaaaaaaaaaa@ 10067868     bncs_cc02_qt.obj
 0002:0005fce8       ??_C@_0EHM@HBJHKLMA@?4?$CDaaaaaaaaaaaaaaaaaaaaaaaaaaaaaa@ 10067ce8     bncs_cc02_qt.obj
 0002:00060168       ??_C@_0EHM@EJMOMJFI@?4?$CDaaaaaaaaaaaaaaaaaaaaaaaaaaaaaa@ 10068168     bncs_cc02_qt.obj
 0002:000605e8       ??_C@_0EHM@CCOAHPMB@?4?$CDaaaaaaaaaaaaaaaaaaaaaaaaaaaaaa@ 100685e8     bncs_cc02_qt.obj
 0002:00060a68       ??_C@_0EHM@KEIGLAMH@?4?$CDaaaaaaaaaaaaaaaaaaaaaaaaaaaaaa@ 10068a68     bncs_cc02_qt.obj
 0002:00060ee8       ??_C@_0EHM@CBPEKFKM@?4?$CDaaaaaaaaaaaaaaaaaaaaaaaaaaaaaa@ 10068ee8     bncs_cc02_qt.obj
 0002:00061368       ??_C@_0EHM@FPLHJKE@?4?$CDaaaaaaaaaaaaaaaaaaaaaaaaaaaaaa@ 10069368     bncs_cc02_qt.obj
 0002:000617e8       ??_C@_0EHM@INDNPNKA@?4?$CDaaaaaaaaaaaaaaaaaaaaaaaaaaaaaa@ 100697e8     bncs_cc02_qt.obj
 0002:00061c68       ??_C@_0EHM@DODNOCLE@?4?$CDaaaaaaaaaaaaaaaaaaaaaaaaaaaaaa@ 10069c68     bncs_cc02_qt.obj
 0002:000620e8       ??_C@_0EHM@HLPGPCPC@?4?$CDaaaaaaaaaaaaaaaaaaaaaaaaaaaaaa@ 1006a0e8     bncs_cc02_qt.obj
 0002:00062568       ??_C@_0EHM@MFNMGPHG@?4?$CDaaaaaaaaaaaaaaaaaaaaaaaaaaaaaa@ 1006a568     bncs_cc02_qt.obj
 0002:000629e8       ??_C@_0EHM@NBCHFIKM@?4?$CDaaaaaaaaaaaaaaaaaaaaaaaaaaaaaa@ 1006a9e8     bncs_cc02_qt.obj
 0002:00062e68       ??_C@_0EHM@GLEJHEM@?4?$CDaaaaaaaaaaaaaaaaaaaaaaaaaaaaaa@ 1006ae68     bncs_cc02_qt.obj
 0002:000632e8       ??_C@_0EHM@JDJOEPDB@?4?$CDaaaaaaaaaaaaaaaaaaaaaaaaaaaaaa@ 1006b2e8     bncs_cc02_qt.obj
 0002:00063768       ??_C@_0EHM@NCODGPKN@?4?$CDaaaaaaaaaaaaaaaaaaaaaaaaaaaaaa@ 1006b768     bncs_cc02_qt.obj
 0002:00063be8       ??_C@_0EHM@DKJLPLJH@?4?$CDaaaaaaaaaaaaaaaaaaaaaaaaaaaaaa@ 1006bbe8     bncs_cc02_qt.obj
 0002:00064068       ??_C@_0EHM@FNBEBFCM@?4?$CDaaaaaaaaaaaaaaaaaaaaaaaaaaaaaa@ 1006c068     bncs_cc02_qt.obj
 0002:000644e8       ??_C@_0EHM@JNKBDCJE@?4?$CDaaaaaaaaaaaaaaaaaaaaaaaaaaaaaa@ 1006c4e8     bncs_cc02_qt.obj
 0002:00064968       ??_C@_0EHM@JGJFJBKF@?4?$CDaaaaaaaaaaaaaaaaaaaaaaaaaaaaaa@ 1006c968     bncs_cc02_qt.obj
 0002:00064de8       ??_C@_0EHM@DDODPLIK@?4?$CDaaaaaaaaaaaaaaaaaaaaaaaaaaaaaa@ 1006cde8     bncs_cc02_qt.obj
 0002:00065268       ??_C@_0EHM@LOBMEGPD@?4?$CDaaaaaaaaaaaaaaaaaaaaaaaaaaaaaa@ 1006d268     bncs_cc02_qt.obj
 0002:000656e8       ??_C@_0EHM@HHMGFAEF@?4?$CDaaaaaaaaaaaaaaaaaaaaaaaaaaaaaa@ 1006d6e8     bncs_cc02_qt.obj
 0002:00065b68       ??_C@_0EHM@IALPKGIJ@?4?$CDaaaaaaaaaaaaaaaaaaaaaaaaaaaaaa@ 1006db68     bncs_cc02_qt.obj
 0002:00065fe8       ??_C@_0EHM@CNDJJGAC@?4?$CDaaaaaaaaaaaaaaaaaaaaaaaaaaaaaa@ 1006dfe8     bncs_cc02_qt.obj
 0002:00066468       ??_C@_0EHM@EKBGCNED@?4?$CDaaaaaaaaaaaaaaaaaaaaaaaaaaaaaa@ 1006e468     bncs_cc02_qt.obj
 0002:000668e8       ??_C@_0EHM@CINPMEK@?4?$CDaaaaaaaaaaaaaaaaaaaaaaaaaaaaaa@ 1006e8e8     bncs_cc02_qt.obj
 0002:00066d68       ??_C@_0EHM@PIOJJINK@?4?$CDaaaaaaaaaaaaaaaaaaaaaaaaaaaaaa@ 1006ed68     bncs_cc02_qt.obj
 0002:000671e8       ??_C@_0EHM@DMBPPBDG@?4?$CDaaaaaaaaaaaaaaaaaaaaaaaaaaaaaa@ 1006f1e8     bncs_cc02_qt.obj
 0002:00067668       ??_C@_0EHM@ENBGDMC@?4?$CDaaaaaaaaaaaaaaaaaaaaaaaaaaaaaa@ 1006f668     bncs_cc02_qt.obj
 0002:00067ae8       ??_C@_0EHM@BNPGPHMH@?4?$CDaaaaaaaaaaaaaaaaaaaaaaaaaaaaaa@ 1006fae8     bncs_cc02_qt.obj
 0002:00067f68       ??_C@_0EHM@KEICCOGO@?4?$CDaaaaaaaaaaaaaaaaaaaaaaaaaaaaaa@ 1006ff68     bncs_cc02_qt.obj
 0002:000683e8       ??_C@_0EHM@ONNNKHPF@?4?$CDaaaaaaaaaaaaaaaaaaaaaaaaaaaaaa@ 100703e8     bncs_cc02_qt.obj
 0002:00068868       ??_C@_0EHM@LJAOOPHH@?4?$CDaaaaaaaaaaaaaaaaaaaaaaaaaaaaaa@ 10070868     bncs_cc02_qt.obj
 0002:00068ce8       ??_C@_0EHM@ELKFKDLB@?4?$CDaaaaaaaaaaaaaaaaaaaaaaaaaaaaaa@ 10070ce8     bncs_cc02_qt.obj
 0002:00069168       ??_C@_0EHM@PCOPEMLM@?4?$CDaaaaaaaaaaaaaaaaaaaaaaaaaaaaaa@ 10071168     bncs_cc02_qt.obj
 0002:000695e8       ??_C@_0EHM@EOCNBBME@?4?$CDaaaaaaaaaaaaaaaaaaaaaaaaaaaaaa@ 100715e8     bncs_cc02_qt.obj
 0002:00069a68       ??_C@_0EHM@CCAKFELP@?4?$CDaaaaaaaaaaaaaaaaaaaaaaaaaaaaaa@ 10071a68     bncs_cc02_qt.obj
 0002:00069ee8       ??_C@_0EHM@EIMBGOGM@?4?$CDaaaaaaaaaaaaaaaaaaaaaaaaaaaaaa@ 10071ee8     bncs_cc02_qt.obj
 0002:0006a368       ??_C@_0EHM@KOAFPCEM@?4?$CDaaaaaaaaaaaaaaaaaaaaaaaaaaaaaa@ 10072368     bncs_cc02_qt.obj
 0002:0006a7e8       ??_C@_0EHM@BBOEGMNJ@?4?$CDaaaaaaaaaaaaaaaaaaaaaaaaaaaaaa@ 100727e8     bncs_cc02_qt.obj
 0002:0006ac68       ??_C@_0EHM@JKEFLBDP@?4?$CDaaaaaaaaaaaaaaaaaaaaaaaaaaaaaa@ 10072c68     bncs_cc02_qt.obj
 0002:0006b0e8       ??_C@_0EHM@MGBCGDKK@?4?$CDaaaaaaaaaaaaaaaaaaaaaaaaaaaaaa@ 100730e8     bncs_cc02_qt.obj
 0002:0006b568       ??_C@_0EHM@OJGCKGPP@?4?$CDaaaaaaaaaaaaaaaaaaaaaaaaaaaaaa@ 10073568     bncs_cc02_qt.obj
 0002:0006b9e8       ??_C@_0EHM@FFBCMKEE@?4?$CDaaaaaaaaaaaaaaaaaaaaaaaaaaaaaa@ 100739e8     bncs_cc02_qt.obj
 0002:0006be68       ??_C@_0EHM@BEGCLEHF@?4?$CDaaaaaaaaaaaaaaaaaaaaaaaaaaaaaa@ 10073e68     bncs_cc02_qt.obj
 0002:0006c2e8       ??_C@_0EHM@NADFHJN@?4?$CDaaaaaaaaaaaaaaaaaaaaaaaaaaaaaa@ 100742e8     bncs_cc02_qt.obj
 0002:0006c768       ??_C@_0EHM@FIJNFILK@?4?$CDaaaaaaaaaaaaaaaaaaaaaaaaaaaaaa@ 10074768     bncs_cc02_qt.obj
 0002:0006cbe8       ??_C@_0EHM@PNMCHDNO@?4?$CDaaaaaaaaaaaaaaaaaaaaaaaaaaaaaa@ 10074be8     bncs_cc02_qt.obj
 0002:0006d068       ??_C@_0EHM@LHLIIJLE@?4?$CDaaaaaaaaaaaaaaaaaaaaaaaaaaaaaa@ 10075068     bncs_cc02_qt.obj
 0002:0006d4e8       ??_C@_0EHM@BKJFHLAI@?4?$CDaaaaaaaaaaaaaaaaaaaaaaaaaaaaaa@ 100754e8     bncs_cc02_qt.obj
 0002:0006d968       ??_C@_0EHM@NIOPKJFN@?4?$CDaaaaaaaaaaaaaaaaaaaaaaaaaaaaaa@ 10075968     bncs_cc02_qt.obj
 0002:0006dde8       ??_C@_0EHM@MDCMHGPE@?4?$CDaaaaaaaaaaaaaaaaaaaaaaaaaaaaaa@ 10075de8     bncs_cc02_qt.obj
 0002:0006e268       ??_C@_0EHM@GMDNKOGH@?4?$CDaaaaaaaaaaaaaaaaaaaaaaaaaaaaaa@ 10076268     bncs_cc02_qt.obj
 0002:0006e6e8       ??_C@_0EHM@FJEHNEB@?4?$CDaaaaaaaaaaaaaaaaaaaaaaaaaaaaaa@ 100766e8     bncs_cc02_qt.obj
 0002:0006eb68       ??_C@_0EHM@DGGCOMFG@?4?$CDaaaaaaaaaaaaaaaaaaaaaaaaaaaaaa@ 10076b68     bncs_cc02_qt.obj
 0002:0006efe8       ??_C@_0EHM@KKEHMNBN@?4?$CDaaaaaaaaaaaaaaaaaaaaaaaaaaaaaa@ 10076fe8     bncs_cc02_qt.obj
 0002:0006f468       ??_C@_0EHM@PLPMBDDB@?4?$CDaaaaaaaaaaaaaaaaaaaaaaaaaaaaaa@ 10077468     bncs_cc02_qt.obj
 0002:0006f8e8       ??_C@_0EHM@NBCDMPBL@?4?$CDaaaaaaaaaaaaaaaaaaaaaaaaaaaaaa@ 100778e8     bncs_cc02_qt.obj
 0002:0006fd68       ??_C@_0EHM@MHNJFLAC@?4?$CDaaaaaaaaaaaaaaaaaaaaaaaaaaaaaa@ 10077d68     bncs_cc02_qt.obj
 0002:000701e8       ??_C@_0EHM@KPCPJFNO@?4?$CDaaaaaaaaaaaaaaaaaaaaaaaaaaaaaa@ 100781e8     bncs_cc02_qt.obj
 0002:00070668       ??_C@_0EHM@KNKKFBFJ@?4?$CDaaaaaaaaaaaaaaaaaaaaaaaaaaaaaa@ 10078668     bncs_cc02_qt.obj
 0002:00070ae8       ??_C@_0EHM@MINCBCAJ@?4?$CDaaaaaaaaaaaaaaaaaaaaaaaaaaaaaa@ 10078ae8     bncs_cc02_qt.obj
 0002:00070f68       ??_C@_0EHM@GMJEPFNK@?4?$CDaaaaaaaaaaaaaaaaaaaaaaaaaaaaaa@ 10078f68     bncs_cc02_qt.obj
 0002:000713e8       ??_C@_0EHM@EPLADAAN@?4?$CDaaaaaaaaaaaaaaaaaaaaaaaaaaaaaa@ 100793e8     bncs_cc02_qt.obj
 0002:00071868       ??_C@_0EHM@CPPGEAKC@?4?$CDaaaaaaaaaaaaaaaaaaaaaaaaaaaaaa@ 10079868     bncs_cc02_qt.obj
 0002:00071ce8       ??_C@_0EHM@BENFKJJ@?4?$CDaaaaaaaaaaaaaaaaaaaaaaaaaaaaaa@ 10079ce8     bncs_cc02_qt.obj
 0002:00072168       ??_C@_0EHM@LJBEOEAB@?4?$CDaaaaaaaaaaaaaaaaaaaaaaaaaaaaaa@ 1007a168     bncs_cc02_qt.obj
 0002:000725e8       ??_C@_0EHM@BGGABMGA@?4?$CDaaaaaaaaaaaaaaaaaaaaaaaaaaaaaa@ 1007a5e8     bncs_cc02_qt.obj
 0002:00072a68       ??_C@_0EHM@PIBIAAGI@?4?$CDaaaaaaaaaaaaaaaaaaaaaaaaaaaaaa@ 1007aa68     bncs_cc02_qt.obj
 0002:00072ee8       ??_C@_0EHM@PIMLFGBF@?4?$CDaaaaaaaaaaaaaaaaaaaaaaaaaaaaaa@ 1007aee8     bncs_cc02_qt.obj
 0002:00073368       ??_C@_0EHM@LKHGLLDI@?4?$CDaaaaaaaaaaaaaaaaaaaaaaaaaaaaaa@ 1007b368     bncs_cc02_qt.obj
 0002:000737e8       ??_C@_0EHM@HGGGPOCA@?4?$CDaaaaaaaaaaaaaaaaaaaaaaaaaaaaaa@ 1007b7e8     bncs_cc02_qt.obj
 0002:00073c68       ??_C@_0EHM@ONADHJPF@?4?$CDaaaaaaaaaaaaaaaaaaaaaaaaaaaaaa@ 1007bc68     bncs_cc02_qt.obj
 0002:000740e8       ??_C@_0EHM@EOLPGFLA@?4?$CDaaaaaaaaaaaaaaaaaaaaaaaaaaaaaa@ 1007c0e8     bncs_cc02_qt.obj
 0002:00074568       ??_C@_0EHM@DPKKMNCA@?4?$CDaaaaaaaaaaaaaaaaaaaaaaaaaaaaaa@ 1007c568     bncs_cc02_qt.obj
 0002:000749e8       ??_C@_0EHM@LOJBOEOM@?4?$CDaaaaaaaaaaaaaaaaaaaaaaaaaaaaaa@ 1007c9e8     bncs_cc02_qt.obj
 0002:00074e68       ??_C@_0EHM@HNBKCOEI@?4?$CDaaaaaaaaaaaaaaaaaaaaaaaaaaaaaa@ 1007ce68     bncs_cc02_qt.obj
 0002:000752e8       ??_C@_0EHM@PAOGBANO@?4?$CDaaaaaaaaaaaaaaaaaaaaaaaaaaaaaa@ 1007d2e8     bncs_cc02_qt.obj
 0002:00075768       ??_C@_0EHM@IDBNCNKC@?4?$CDaaaaaaaaaaaaaaaaaaaaaaaaaaaaaa@ 1007d768     bncs_cc02_qt.obj
 0002:00075be8       ??_C@_0EHM@BOHJMOKO@?4?$CDaaaaaaaaaaaaaaaaaaaaaaaaaaaaaa@ 1007dbe8     bncs_cc02_qt.obj
 0002:00076068       ??_C@_0EHM@OFKNAPMB@?4?$CDaaaaaaaaaaaaaaaaaaaaaaaaaaaaaa@ 1007e068     bncs_cc02_qt.obj
 0002:000764e8       ??_C@_0EHM@BJEPFFLL@?4?$CDaaaaaaaaaaaaaaaaaaaaaaaaaaaaaa@ 1007e4e8     bncs_cc02_qt.obj
 0002:00076968       ??_C@_0EHM@BIDJOMIF@?4?$CDaaaaaaaaaaaaaaaaaaaaaaaaaaaaaa@ 1007e968     bncs_cc02_qt.obj
 0002:00076de8       ??_C@_0EHM@GHLCBILE@?4?$CDaaaaaaaaaaaaaaaaaaaaaaaaaaaaaa@ 1007ede8     bncs_cc02_qt.obj
 0002:00077268       ??_C@_0EHM@DJIKPPDF@?4?$CDaaaaaaaaaaaaaaaaaaaaaaaaaaaaaa@ 1007f268     bncs_cc02_qt.obj
 0002:000776e8       ??_C@_0EHM@BOJCPEFN@?4?$CDaaaaaaaaaaaaaaaaaaaaaaaaaaaaaa@ 1007f6e8     bncs_cc02_qt.obj
 0002:00077b68       ??_C@_0EHM@NGFGJGOO@?4?$CDaaaaaaaaaaaaaaaaaaaaaaaaaaaaaa@ 1007fb68     bncs_cc02_qt.obj
 0002:00077fe8       ??_C@_0EHM@BJLFNOHB@?4?$CDaaaaaaaaaaaaaaaaaaaaaaaaaaaaaa@ 1007ffe8     bncs_cc02_qt.obj
 0002:00078468       ??_C@_0EHM@GCDNHOHB@?4?$CDaaaaaaaaaaaaaaaaaaaaaaaaaaaaaa@ 10080468     bncs_cc02_qt.obj
 0002:000788e8       ??_C@_0EHM@HOEAAKCP@?4?$CDaaaaaaaaaaaaaaaaaaaaaaaaaaaaaa@ 100808e8     bncs_cc02_qt.obj
 0002:00078d68       ??_C@_0EHM@CAGEHLBF@?4?$CDaaaaaaaaaaaaaaaaaaaaaaaaaaaaaa@ 10080d68     bncs_cc02_qt.obj
 0002:000791e8       ??_C@_0EHM@JKBPINBL@?4?$CDaaaaaaaaaaaaaaaaaaaaaaaaaaaaaa@ 100811e8     bncs_cc02_qt.obj
 0002:00079668       ??_C@_0EHM@BNLKPEBP@?4?$CDaaaaaaaaaaaaaaaaaaaaaaaaaaaaaa@ 10081668     bncs_cc02_qt.obj
 0002:00079ae8       ??_C@_0EHM@DBBBJAFB@?4?$CDaaaaaaaaaaaaaaaaaaaaaaaaaaaaaa@ 10081ae8     bncs_cc02_qt.obj
 0002:00079f68       ??_C@_0EHM@DCFHALIB@?4?$CDaaaaaaaaaaaaaaaaaaaaaaaaaaaaaa@ 10081f68     bncs_cc02_qt.obj
 0002:0007a3e8       ??_C@_0EHM@HDNKJBJA@?4?$CDaaaaaaaaaaaaaaaaaaaaaaaaaaaaaa@ 100823e8     bncs_cc02_qt.obj
 0002:0007a868       ??_C@_0EHM@GNANHPNO@?4?$CDaaaaaaaaaaaaaaaaaaaaaaaaaaaaaa@ 10082868     bncs_cc02_qt.obj
 0002:0007ace8       ??_C@_0EHM@JFMAOPNI@?4?$CDaaaaaaaaaaaaaaaaaaaaaaaaaaaaaa@ 10082ce8     bncs_cc02_qt.obj
 0002:0007b168       ??_C@_0EHM@LECDKDJL@?4?$CDaaaaaaaaaaaaaaaaaaaaaaaaaaaaaa@ 10083168     bncs_cc02_qt.obj
 0002:0007b5e8       ??_C@_0EHM@OCGHBBIG@?4?$CDaaaaaaaaaaaaaaaaaaaaaaaaaaaaaa@ 100835e8     bncs_cc02_qt.obj
 0002:0007ba68       ??_C@_0EHM@PJMOPNLE@?4?$CDaaaaaaaaaaaaaaaaaaaaaaaaaaaaaa@ 10083a68     bncs_cc02_qt.obj
 0002:0007bee8       ??_C@_0EHM@ENNCPNPP@?4?$CDaaaaaaaaaaaaaaaaaaaaaaaaaaaaaa@ 10083ee8     bncs_cc02_qt.obj
 0002:0007c368       ??_C@_0EHM@HNHKMNNI@?4?$CDaaaaaaaaaaaaaaaaaaaaaaaaaaaaaa@ 10084368     bncs_cc02_qt.obj
 0002:0007c7e8       ??_C@_0EHM@GFHMCJDG@?4?$CDaaaaaaaaaaaaaaaaaaaaaaaaaaaaaa@ 100847e8     bncs_cc02_qt.obj
 0002:0007cc68       ??_C@_0EHM@BDCDEEAE@?4?$CDaaaaaaaaaaaaaaaaaaaaaaaaaaaaaa@ 10084c68     bncs_cc02_qt.obj
 0002:0007d0e8       ??_C@_0EHM@NEKNGFHH@?4?$CDaaaaaaaaaaaaaaaaaaaaaaaaaaaaaa@ 100850e8     bncs_cc02_qt.obj
 0002:0007d568       ??_C@_0EHM@JEELKAMM@?4?$CDaaaaaaaaaaaaaaaaaaaaaaaaaaaaaa@ 10085568     bncs_cc02_qt.obj
 0002:0007d9e8       ??_C@_0EHM@IJNIJKG@?4?$CDaaaaaaaaaaaaaaaaaaaaaaaaaaaaaa@ 100859e8     bncs_cc02_qt.obj
 0002:0007de68       ??_C@_0EHM@NCJAADAI@?4?$CDaaaaaaaaaaaaaaaaaaaaaaaaaaaaaa@ 10085e68     bncs_cc02_qt.obj
 0002:0007e2e8       ??_C@_0EHM@DMGOEGLP@?4?$CDaaaaaaaaaaaaaaaaaaaaaaaaaaaaaa@ 100862e8     bncs_cc02_qt.obj
 0002:0007e768       ??_C@_0EHM@HCGFJEBM@?4?$CDaaaaaaaaaaaaaaaaaaaaaaaaaaaaaa@ 10086768     bncs_cc02_qt.obj
 0002:0007ebe8       ??_C@_0EHM@DBJIBHK@?4?$CDaaaaaaaaaaaaaaaaaaaaaaaaaaaaaa@ 10086be8     bncs_cc02_qt.obj
 0002:0007f068       ??_C@_0EHM@LNAMPFDJ@?4?$CDaaaaaaaaaaaaaaaaaaaaaaaaaaaaaa@ 10087068     bncs_cc02_qt.obj
 0002:0007f4e8       ??_C@_0EHM@JDOBCHJF@?4?$CDaaaaaaaaaaaaaaaaaaaaaaaaaaaaaa@ 100874e8     bncs_cc02_qt.obj
 0002:0007f968       ??_C@_0EHM@NAGKBOLF@?4?$CDaaaaaaaaaaaaaaaaaaaaaaaaaaaaaa@ 10087968     bncs_cc02_qt.obj
 0002:0007fde8       ??_C@_0EHM@MDDILMF@?4?$CDaaaaaaaaaaaaaaaaaaaaaaaaaaaaaa@ 10087de8     bncs_cc02_qt.obj
 0002:00080268       ??_C@_0EHM@LMOHJBCL@?4?$CDaaaaaaaaaaaaaaaaaaaaaaaaaaaaaa@ 10088268     bncs_cc02_qt.obj
 0002:000806e8       ??_C@_0EHM@PAEKJOJ@?4?$CDaaaaaaaaaaaaaaaaaaaaaaaaaaaaaa@ 100886e8     bncs_cc02_qt.obj
 0002:00080b68       ??_C@_0EHM@OFPICBGG@?4?$CDaaaaaaaaaaaaaaaaaaaaaaaaaaaaaa@ 10088b68     bncs_cc02_qt.obj
 0002:00080fe8       ??_C@_0EHM@KGIHJMNI@?4?$CDaaaaaaaaaaaaaaaaaaaaaaaaaaaaaa@ 10088fe8     bncs_cc02_qt.obj
 0002:00081468       ??_C@_0EHM@KLNPOLOH@?4?$CDaaaaaaaaaaaaaaaaaaaaaaaaaaaaaa@ 10089468     bncs_cc02_qt.obj
 0002:000818e8       ??_C@_0EHM@LNCEAIBE@?4?$CDaaaaaaaaaaaaaaaaaaaaaaaaaaaaaa@ 100898e8     bncs_cc02_qt.obj
 0002:00081d68       ??_C@_0EHM@KMCLCONN@?4?$CDaaaaaaaaaaaaaaaaaaaaaaaaaaaaaa@ 10089d68     bncs_cc02_qt.obj
 0002:000821e8       ??_C@_0EHM@COAMPOK@?4?$CDaaaaaaaaaaaaaaaaaaaaaaaaaaaaaa@ 1008a1e8     bncs_cc02_qt.obj
 0002:00082668       ??_C@_0EHM@NCNHICLE@?4?$CDaaaaaaaaaaaaaaaaaaaaaaaaaaaaaa@ 1008a668     bncs_cc02_qt.obj
 0002:00082ae8       ??_C@_0EHM@EIPHIEH@?4?$CDaaaaaaaaaaaaaaaaaaaaaaaaaaaaaa@ 1008aae8     bncs_cc02_qt.obj
 0002:00082f68       ??_C@_0EHM@HFILDNKM@?4?$CDaaaaaaaaaaaaaaaaaaaaaaaaaaaaaa@ 1008af68     bncs_cc02_qt.obj
 0002:000833e8       ??_C@_0EHM@DDLGMCPD@?4?$CDaaaaaaaaaaaaaaaaaaaaaaaaaaaaaa@ 1008b3e8     bncs_cc02_qt.obj
 0002:00083868       ??_C@_0EHM@PCKJKBHA@?4?$CDaaaaaaaaaaaaaaaaaaaaaaaaaaaaaa@ 1008b868     bncs_cc02_qt.obj
 0002:00083ce8       ??_C@_0EHM@IGNJGMIJ@?4?$CDaaaaaaaaaaaaaaaaaaaaaaaaaaaaaa@ 1008bce8     bncs_cc02_qt.obj
 0002:00084168       ??_C@_0EHM@ECMMFGPM@?4?$CDaaaaaaaaaaaaaaaaaaaaaaaaaaaaaa@ 1008c168     bncs_cc02_qt.obj
 0002:000845e8       ??_C@_0EHM@LKMGEBHH@?4?$CDaaaaaaaaaaaaaaaaaaaaaaaaaaaaaa@ 1008c5e8     bncs_cc02_qt.obj
 0002:00084a68       ??_C@_0EHM@GELHBPE@?4?$CDaaaaaaaaaaaaaaaaaaaaaaaaaaaaaa@ 1008ca68     bncs_cc02_qt.obj
 0002:00084ee8       ??_C@_0EHM@MBHGKPIO@?4?$CDaaaaaaaaaaaaaaaaaaaaaaaaaaaaaa@ 1008cee8     bncs_cc02_qt.obj
 0002:00085368       ??_C@_0EHM@MECEFMJB@?4?$CDaaaaaaaaaaaaaaaaaaaaaaaaaaaaaa@ 1008d368     bncs_cc02_qt.obj
 0002:000857e8       ??_C@_0EHM@MGKIPOGE@?4?$CDaaaaaaaaaaaaaaaaaaaaaaaaaaaaaa@ 1008d7e8     bncs_cc02_qt.obj
 0002:00085c68       ??_C@_0EHM@HNAGEGGI@?4?$CDaaaaaaaaaaaaaaaaaaaaaaaaaaaaaa@ 1008dc68     bncs_cc02_qt.obj
 0002:000860e8       ??_C@_0EHM@NFHHFGJ@?4?$CDaaaaaaaaaaaaaaaaaaaaaaaaaaaaaa@ 1008e0e8     bncs_cc02_qt.obj
 0002:00086568       ??_C@_0EHM@KHPLPKJG@?4?$CDaaaaaaaaaaaaaaaaaaaaaaaaaaaaaa@ 1008e568     bncs_cc02_qt.obj
 0002:000869e8       ??_C@_0EHM@EMEIGDCH@?4?$CDaaaaaaaaaaaaaaaaaaaaaaaaaaaaaa@ 1008e9e8     bncs_cc02_qt.obj
 0002:00086e68       ??_C@_0EHM@BOCIGDCL@?4?$CDaaaaaaaaaaaaaaaaaaaaaaaaaaaaaa@ 1008ee68     bncs_cc02_qt.obj
 0002:000872e8       ??_C@_0EHM@CJBDBCHC@?4?$CDaaaaaaaaaaaaaaaaaaaaaaaaaaaaaa@ 1008f2e8     bncs_cc02_qt.obj
 0002:00087768       ??_C@_0EHM@GIAMLHBG@?4?$CDaaaaaaaaaaaaaaaaaaaaaaaaaaaaaa@ 1008f768     bncs_cc02_qt.obj
 0002:00087be8       ??_C@_0EHM@CCJCANPC@?4?$CDaaaaaaaaaaaaaaaaaaaaaaaaaaaaaa@ 1008fbe8     bncs_cc02_qt.obj
 0002:00088068       ??_C@_0EHM@IFLPLFCJ@?4?$CDaaaaaaaaaaaaaaaaaaaaaaaaaaaaaa@ 10090068     bncs_cc02_qt.obj
 0002:000884e8       ??_C@_0EHM@JEBJJDMN@?4?$CDaaaaaaaaaaaaaaaaaaaaaaaaaaaaaa@ 100904e8     bncs_cc02_qt.obj
 0002:00088968       ??_C@_0EHM@DDGPBDIK@?4?$CDaaaaaaaaaaaaaaaaaaaaaaaaaaaaaa@ 10090968     bncs_cc02_qt.obj
 0002:00088de8       ??_C@_0EHM@NLHALBDJ@?4?$CDaaaaaaaaaaaaaaaaaaaaaaaaaaaaaa@ 10090de8     bncs_cc02_qt.obj
 0002:00089268       ??_C@_0EHM@IJPAEMKN@?4?$CDaaaaaaaaaaaaaaaaaaaaaaaaaaaaaa@ 10091268     bncs_cc02_qt.obj
 0002:000896e8       ??_C@_0EHM@LGIALJJ@?4?$CDaaaaaaaaaaaaaaaaaaaaaaaaaaaaaa@ 100916e8     bncs_cc02_qt.obj
 0002:00089b68       ??_C@_0EHM@HIAMMJG@?4?$CDaaaaaaaaaaaaaaaaaaaaaaaaaaaaaa@ 10091b68     bncs_cc02_qt.obj
 0002:00089fe8       ??_C@_0EHM@DCMPEHKB@?4?$CDaaaaaaaaaaaaaaaaaaaaaaaaaaaaaa@ 10091fe8     bncs_cc02_qt.obj
 0002:0008a468       ??_C@_0EHM@NENFLAIF@?4?$CDaaaaaaaaaaaaaaaaaaaaaaaaaaaaaa@ 10092468     bncs_cc02_qt.obj
 0002:0008a8e8       ??_C@_0EHM@DKADHACO@?4?$CDaaaaaaaaaaaaaaaaaaaaaaaaaaaaaa@ 100928e8     bncs_cc02_qt.obj
 0002:0008ad68       ??_C@_0EHM@OCKCPHCM@?4?$CDaaaaaaaaaaaaaaaaaaaaaaaaaaaaaa@ 10092d68     bncs_cc02_qt.obj
 0002:0008b1e8       ??_C@_0EHM@BFLFAIOB@?4?$CDaaaaaaaaaaaaaaaaaaaaaaaaaaaaaa@ 100931e8     bncs_cc02_qt.obj
 0002:0008b668       ??_C@_0EHM@IFAGPNLH@?4?$CDaaaaaaaaaaaaaaaaaaaaaaaaaaaaaa@ 10093668     bncs_cc02_qt.obj
 0002:0008bae8       ??_C@_0EHM@DLDIJKBP@?4?$CDaaaaaaaaaaaaaaaaaaaaaaaaaaaaaa@ 10093ae8     bncs_cc02_qt.obj
 0002:0008bf68       ??_C@_0EHM@KIOBAIDC@?4?$CDaaaaaaaaaaaaaaaaaaaaaaaaaaaaaa@ 10093f68     bncs_cc02_qt.obj
 0002:0008c3e8       ??_C@_0EHM@BOFBAEJM@?4?$CDaaaaaaaaaaaaaaaaaaaaaaaaaaaaaa@ 100943e8     bncs_cc02_qt.obj
 0002:0008c868       ??_C@_0EHM@CPIJDKHP@?4?$CDaaaaaaaaaaaaaaaaaaaaaaaaaaaaaa@ 10094868     bncs_cc02_qt.obj
 0002:0008cce8       ??_C@_0EHM@BGLLFBID@?4?$CDaaaaaaaaaaaaaaaaaaaaaaaaaaaaaa@ 10094ce8     bncs_cc02_qt.obj
 0002:0008d168       ??_C@_0EHM@KCIJNNNP@?4?$CDaaaaaaaaaaaaaaaaaaaaaaaaaaaaaa@ 10095168     bncs_cc02_qt.obj
 0002:0008d5e8       ??_C@_0EHM@MAOAPCIM@?4?$CDaaaaaaaaaaaaaaaaaaaaaaaaaaaaaa@ 100955e8     bncs_cc02_qt.obj
 0002:0008da68       ??_C@_0EHM@DINLOJAC@?4?$CDaaaaaaaaaaaaaaaaaaaaaaaaaaaaaa@ 10095a68     bncs_cc02_qt.obj
 0002:0008dee8       ??_C@_0EHM@PHBEILJI@?4?$CDaaaaaaaaaaaaaaaaaaaaaaaaaaaaaa@ 10095ee8     bncs_cc02_qt.obj
 0002:0008e368       ??_C@_0EHM@NNCMFJEE@?4?$CDaaaaaaaaaaaaaaaaaaaaaaaaaaaaaa@ 10096368     bncs_cc02_qt.obj
 0002:0008e7e8       ??_C@_0EHM@GEJPFJPB@?4?$CDaaaaaaaaaaaaaaaaaaaaaaaaaaaaaa@ 100967e8     bncs_cc02_qt.obj
 0002:0008ec68       ??_C@_0EHM@HFJPDLAN@?4?$CDaaaaaaaaaaaaaaaaaaaaaaaaaaaaaa@ 10096c68     bncs_cc02_qt.obj
 0002:0008f0e8       ??_C@_0EHM@BBHDNFGN@?4?$CDaaaaaaaaaaaaaaaaaaaaaaaaaaaaaa@ 100970e8     bncs_cc02_qt.obj
 0002:0008f568       ??_C@_0EHM@OBCJAOLA@?4?$CDaaaaaaaaaaaaaaaaaaaaaaaaaaaaaa@ 10097568     bncs_cc02_qt.obj
 0002:0008f9e8       ??_C@_0EHM@OHBCMMNK@?4?$CDaaaaaaaaaaaaaaaaaaaaaaaaaaaaaa@ 100979e8     bncs_cc02_qt.obj
 0002:0008fe68       ??_C@_0EHM@HDDHHPMJ@?4?$CDaaaaaaaaaaaaaaaaaaaaaaaaaaaaaa@ 10097e68     bncs_cc02_qt.obj
 0002:000902e8       ??_C@_0EHM@IPHPPDOH@?4?$CDaaaaaaaaaaaaaaaaaaaaaaaaaaaaaa@ 100982e8     bncs_cc02_qt.obj
 0002:00090768       ??_C@_0EHM@DDCGBBIN@?4?$CDaaaaaaaaaaaaaaaaaaaaaaaaaaaaaa@ 10098768     bncs_cc02_qt.obj
 0002:00090be8       ??_C@_0EHM@LLBEPJEF@?4?$CDaaaaaaaaaaaaaaaaaaaaaaaaaaaaaa@ 10098be8     bncs_cc02_qt.obj
 0002:00091068       ??_C@_0EHM@GJPKIIIP@?4?$CDaaaaaaaaaaaaaaaaaaaaaaaaaaaaaa@ 10099068     bncs_cc02_qt.obj
 0002:000914e8       ??_C@_0EHM@JFEADKOL@?4?$CDaaaaaaaaaaaaaaaaaaaaaaaaaaaaaa@ 100994e8     bncs_cc02_qt.obj
 0002:00091968       ??_C@_0EHM@OMEADDON@?4?$CDaaaaaaaaaaaaaaaaaaaaaaaaaaaaaa@ 10099968     bncs_cc02_qt.obj
 0002:00091de8       ??_C@_0EHM@GFPCOPAJ@?4?$CDaaaaaaaaaaaaaaaaaaaaaaaaaaaaaa@ 10099de8     bncs_cc02_qt.obj
 0002:00092268       ??_C@_0EHM@LPCMOAHA@?4?$CDaaaaaaaaaaaaaaaaaaaaaaaaaaaaaa@ 1009a268     bncs_cc02_qt.obj
 0002:000926e8       ??_C@_0EHM@NLHKNOEH@?4?$CDaaaaaaaaaaaaaaaaaaaaaaaaaaaaaa@ 1009a6e8     bncs_cc02_qt.obj
 0002:00092b68       ??_C@_0EHM@MBOLFODJ@?4?$CDaaaaaaaaaaaaaaaaaaaaaaaaaaaaaa@ 1009ab68     bncs_cc02_qt.obj
 0002:00092fe8       ??_C@_0EHM@PAIAME@?4?$CDaaaaaaaaaaaaaaaaaaaaaaaaaaaaaa@ 1009afe8     bncs_cc02_qt.obj
 0002:00093468       ??_C@_0EHM@PBEHHIEE@?4?$CDaaaaaaaaaaaaaaaaaaaaaaaaaaaaaa@ 1009b468     bncs_cc02_qt.obj
 0002:000938e8       ??_C@_0EHM@KNHFICLH@?4?$CDaaaaaaaaaaaaaaaaaaaaaaaaaaaaaa@ 1009b8e8     bncs_cc02_qt.obj
 0002:00093d68       ??_C@_0EHM@BHOKLPNM@?4?$CDaaaaaaaaaaaaaaaaaaaaaaaaaaaaaa@ 1009bd68     bncs_cc02_qt.obj
 0002:000941e8       ??_C@_0EHM@PMPAHEOL@?4?$CDaaaaaaaaaaaaaaaaaaaaaaaaaaaaaa@ 1009c1e8     bncs_cc02_qt.obj
 0002:00094668       ??_C@_0EHM@CGGNCFFA@?4?$CDaaaaaaaaaaaaaaaaaaaaaaaaaaaaaa@ 1009c668     bncs_cc02_qt.obj
 0002:00094ae8       ??_C@_0EHM@GMPHHCFJ@?4?$CDaaaaaaaaaaaaaaaaaaaaaaaaaaaaaa@ 1009cae8     bncs_cc02_qt.obj
 0002:00094f68       ??_C@_0EHM@BNCBLKIM@?4?$CDaaaaaaaaaaaaaaaaaaaaaaaaaaaaaa@ 1009cf68     bncs_cc02_qt.obj
 0002:000953e8       ??_C@_0EHM@PPOCFFBC@?4?$CDaaaaaaaaaaaaaaaaaaaaaaaaaaaaaa@ 1009d3e8     bncs_cc02_qt.obj
 0002:00095868       ??_C@_0EHM@HFNLJJFL@?4?$CDaaaaaaaaaaaaaaaaaaaaaaaaaaaaaa@ 1009d868     bncs_cc02_qt.obj
 0002:00095ce8       ??_C@_0EHM@NJJHJIIA@?4?$CDaaaaaaaaaaaaaaaaaaaaaaaaaaaaaa@ 1009dce8     bncs_cc02_qt.obj
 0002:00096168       ??_C@_0EHM@MEJHBDCG@?4?$CDaaaaaaaaaaaaaaaaaaaaaaaaaaaaaa@ 1009e168     bncs_cc02_qt.obj
 0002:000965e8       ??_C@_0EHM@CHMIMHFP@?4?$CDaaaaaaaaaaaaaaaaaaaaaaaaaaaaaa@ 1009e5e8     bncs_cc02_qt.obj
 0002:00096a68       ??_C@_0EHM@IDGBLAOG@?4?$CDaaaaaaaaaaaaaaaaaaaaaaaaaaaaaa@ 1009ea68     bncs_cc02_qt.obj
 0002:00096ee8       ??_C@_0EHM@GOGCHHON@?4?$CDaaaaaaaaaaaaaaaaaaaaaaaaaaaaaa@ 1009eee8     bncs_cc02_qt.obj
 0002:00097368       ??_C@_0EHM@BJKPBI@?4?$CDaaaaaaaaaaaaaaaaaaaaaaaaaaaaaa@ 1009f368     bncs_cc02_qt.obj
 0002:000977e8       ??_C@_0EHM@OLBIKGFN@?4?$CDaaaaaaaaaaaaaaaaaaaaaaaaaaaaaa@ 1009f7e8     bncs_cc02_qt.obj
 0002:00097c68       ??_C@_0EHM@CNHMDAPD@?4?$CDaaaaaaaaaaaaaaaaaaaaaaaaaaaaaa@ 1009fc68     bncs_cc02_qt.obj
 0002:000980e8       ??_C@_0EHM@CJAEBIOD@?4?$CDaaaaaaaaaaaaaaaaaaaaaaaaaaaaaa@ 100a00e8     bncs_cc02_qt.obj
 0002:00098568       ??_C@_0EHM@BPEHKMKI@?4?$CDaaaaaaaaaaaaaaaaaaaaaaaaaaaaaa@ 100a0568     bncs_cc02_qt.obj
 0002:000989e8       ??_C@_0EHM@BJGJGNHL@?4?$CDaaaaaaaaaaaaaaaaaaaaaaaaaaaaaa@ 100a09e8     bncs_cc02_qt.obj
 0002:00098e68       ??_C@_0EHM@FOCCGLNM@?4?$CDaaaaaaaaaaaaaaaaaaaaaaaaaaaaaa@ 100a0e68     bncs_cc02_qt.obj
 0002:000992e8       ??_C@_0EHM@KPFGOLII@?4?$CDaaaaaaaaaaaaaaaaaaaaaaaaaaaaaa@ 100a12e8     bncs_cc02_qt.obj
 0002:00099768       ??_C@_0EHM@NNHOHBPO@?4?$CDaaaaaaaaaaaaaaaaaaaaaaaaaaaaaa@ 100a1768     bncs_cc02_qt.obj
 0002:00099be8       ??_C@_0EHM@NJAGFJOO@?4?$CDaaaaaaaaaaaaaaaaaaaaaaaaaaaaaa@ 100a1be8     bncs_cc02_qt.obj
 0002:0009a068       ??_C@_0EHM@IGOFDCBK@?4?$CDaaaaaaaaaaaaaaaaaaaaaaaaaaaaaa@ 100a2068     bncs_cc02_qt.obj
 0002:0009a4e8       ??_C@_0EHM@NLGPMPIE@?4?$CDaaaaaaaaaaaaaaaaaaaaaaaaaaaaaa@ 100a24e8     bncs_cc02_qt.obj
 0002:0009a968       ??_C@_0EHM@BMPBGHMO@?4?$CDaaaaaaaaaaaaaaaaaaaaaaaaaaaaaa@ 100a2968     bncs_cc02_qt.obj
 0002:0009ade8       ??_C@_0EHM@GMELOHAK@?4?$CDaaaaaaaaaaaaaaaaaaaaaaaaaaaaaa@ 100a2de8     bncs_cc02_qt.obj
 0002:0009b268       ??_C@_0EHM@FPLOACEO@?4?$CDaaaaaaaaaaaaaaaaaaaaaaaaaaaaaa@ 100a3268     bncs_cc02_qt.obj
 0002:0009b6e8       ??_C@_0EHM@NDNNKDKN@?4?$CDaaaaaaaaaaaaaaaaaaaaaaaaaaaaaa@ 100a36e8     bncs_cc02_qt.obj
 0002:0009bb68       ??_C@_0EHM@BGNMCEIM@?4?$CDaaaaaaaaaaaaaaaaaaaaaaaaaaaaaa@ 100a3b68     bncs_cc02_qt.obj
 0002:0009bfe8       ??_C@_0EHM@NKIOGMGE@?4?$CDaaaaaaaaaaaaaaaaaaaaaaaaaaaaaa@ 100a3fe8     bncs_cc02_qt.obj
 0002:0009c468       ??_C@_0EHM@FOMNCECJ@?4?$CDaaaaaaaaaaaaaaaaaaaaaaaaaaaaaa@ 100a4468     bncs_cc02_qt.obj
 0002:0009c8e8       ??_C@_0EHM@LKMIKECG@?4?$CDaaaaaaaaaaaaaaaaaaaaaaaaaaaaaa@ 100a48e8     bncs_cc02_qt.obj
 0002:0009cd68       ??_C@_0EHM@MKBDFNIN@?4?$CDaaaaaaaaaaaaaaaaaaaaaaaaaaaaaa@ 100a4d68     bncs_cc02_qt.obj
 0002:0009d1e8       ??_C@_0EHM@GDGNIFC@?4?$CDaaaaaaaaaaaaaaaaaaaaaaaaaaaaaa@ 100a51e8     bncs_cc02_qt.obj
 0002:0009d668       ??_C@_0EHM@FIBGGNIN@?4?$CDaaaaaaaaaaaaaaaaaaaaaaaaaaaaaa@ 100a5668     bncs_cc02_qt.obj
 0002:0009dae8       ??_C@_0EHM@HNHOHLEL@?4?$CDaaaaaaaaaaaaaaaaaaaaaaaaaaaaaa@ 100a5ae8     bncs_cc02_qt.obj
 0002:0009df68       ??_C@_0EHM@BEIFGAHD@?4?$CDaaaaaaaaaaaaaaaaaaaaaaaaaaaaaa@ 100a5f68     bncs_cc02_qt.obj
 0002:0009e3e8       ??_C@_0EHM@JIKIILHJ@?4?$CDaaaaaaaaaaaaaaaaaaaaaaaaaaaaaa@ 100a63e8     bncs_cc02_qt.obj
 0002:0009e868       ??_C@_0EHM@OPGHEHLN@?4?$CDaaaaaaaaaaaaaaaaaaaaaaaaaaaaaa@ 100a6868     bncs_cc02_qt.obj
 0002:0009ece8       ??_C@_0EHM@CLJMGENK@?4?$CDaaaaaaaaaaaaaaaaaaaaaaaaaaaaaa@ 100a6ce8     bncs_cc02_qt.obj
 0002:0009f168       ??_C@_0EHM@IFAMICCK@?4?$CDaaaaaaaaaaaaaaaaaaaaaaaaaaaaaa@ 100a7168     bncs_cc02_qt.obj
 0002:0009f5e8       ??_C@_0EHM@NINOFFOK@?4?$CDaaaaaaaaaaaaaaaaaaaaaaaaaaaaaa@ 100a75e8     bncs_cc02_qt.obj
 0002:0009fa68       ??_C@_0EHM@BMEJHIDM@?4?$CDaaaaaaaaaaaaaaaaaaaaaaaaaaaaaa@ 100a7a68     bncs_cc02_qt.obj
 0002:0009fee8       ??_C@_0EHM@EBIENMHA@?4?$CDaaaaaaaaaaaaaaaaaaaaaaaaaaaaaa@ 100a7ee8     bncs_cc02_qt.obj
 0002:000a0368       ??_C@_0EHM@FJJBBHOK@?4?$CDaaaaaaaaaaaaaaaaaaaaaaaaaaaaaa@ 100a8368     bncs_cc02_qt.obj
 0002:000a07e8       ??_C@_0EHM@GIIEKPAF@?4?$CDaaaaaaaaaaaaaaaaaaaaaaaaaaaaaa@ 100a87e8     bncs_cc02_qt.obj
 0002:000a0c68       ??_C@_0EHM@MMINIACE@?4?$CDaaaaaaaaaaaaaaaaaaaaaaaaaaaaaa@ 100a8c68     bncs_cc02_qt.obj
 0002:000a10e8       ??_C@_0EHM@CNJNFHHC@?4?$CDaaaaaaaaaaaaaaaaaaaaaaaaaaaaaa@ 100a90e8     bncs_cc02_qt.obj
 0002:000a1568       ??_C@_0EHM@CNBKIOB@?4?$CDaaaaaaaaaaaaaaaaaaaaaaaaaaaaaa@ 100a9568     bncs_cc02_qt.obj
 0002:000a19e8       ??_C@_0EHM@DMGFCKEM@?4?$CDaaaaaaaaaaaaaaaaaaaaaaaaaaaaaa@ 100a99e8     bncs_cc02_qt.obj
 0002:000a1e68       ??_C@_0EHM@DPHEFGGP@?4?$CDaaaaaaaaaaaaaaaaaaaaaaaaaaaaaa@ 100a9e68     bncs_cc02_qt.obj
 0002:000a22e8       ??_C@_0EHM@FLPNHGMK@?4?$CDaaaaaaaaaaaaaaaaaaaaaaaaaaaaaa@ 100aa2e8     bncs_cc02_qt.obj
 0002:000a2768       ??_C@_0EHM@FMBIKMJK@?4?$CDaaaaaaaaaaaaaaaaaaaaaaaaaaaaaa@ 100aa768     bncs_cc02_qt.obj
 0002:000a2be8       ??_C@_0EHM@KKDHAIKK@?4?$CDaaaaaaaaaaaaaaaaaaaaaaaaaaaaaa@ 100aabe8     bncs_cc02_qt.obj
 0002:000a3068       ??_C@_0EHM@IDJHHPBP@?4?$CDaaaaaaaaaaaaaaaaaaaaaaaaaaaaaa@ 100ab068     bncs_cc02_qt.obj
 0002:000a34e8       ??_C@_0EHM@GKNKEPHK@?4?$CDaaaaaaaaaaaaaaaaaaaaaaaaaaaaaa@ 100ab4e8     bncs_cc02_qt.obj
 0002:000a3968       ??_C@_0EHM@BLKDOBO@?4?$CDaaaaaaaaaaaaaaaaaaaaaaaaaaaaaa@ 100ab968     bncs_cc02_qt.obj
 0002:000a3de8       ??_C@_0EHM@BLLENPOL@?4?$CDaaaaaaaaaaaaaaaaaaaaaaaaaaaaaa@ 100abde8     bncs_cc02_qt.obj
 0002:000a4268       ??_C@_0EHM@DPBCJPMK@?4?$CDaaaaaaaaaaaaaaaaaaaaaaaaaaaaaa@ 100ac268     bncs_cc02_qt.obj
 0002:000a46e8       ??_C@_0EHM@KNCJLEDD@?4?$CDaaaaaaaaaaaaaaaaaaaaaaaaaaaaaa@ 100ac6e8     bncs_cc02_qt.obj
 0002:000a4b68       ??_C@_0EHM@HFBHHKOB@?4?$CDaaaaaaaaaaaaaaaaaaaaaaaaaaaaaa@ 100acb68     bncs_cc02_qt.obj
 0002:000a4fe8       ??_C@_0EHM@HDKLDPKL@?4?$CDaaaaaaaaaaaaaaaaaaaaaaaaaaaaaa@ 100acfe8     bncs_cc02_qt.obj
 0002:000a5468       ??_C@_0EHM@HMCCAGIP@?4?$CDaaaaaaaaaaaaaaaaaaaaaaaaaaaaaa@ 100ad468     bncs_cc02_qt.obj
 0002:000a58e8       ??_C@_0EHM@INFGIGNL@?4?$CDaaaaaaaaaaaaaaaaaaaaaaaaaaaaaa@ 100ad8e8     bncs_cc02_qt.obj
 0002:000a5d68       ??_C@_0EHM@EACFKFKO@?4?$CDaaaaaaaaaaaaaaaaaaaaaaaaaaaaaa@ 100add68     bncs_cc02_qt.obj
 0002:000a61e8       ??_C@_0EHM@COBKILNH@?4?$CDaaaaaaaaaaaaaaaaaaaaaaaaaaaaaa@ 100ae1e8     bncs_cc02_qt.obj
 0002:000a6668       ??_C@_0EHM@HDJAHGEJ@?4?$CDaaaaaaaaaaaaaaaaaaaaaaaaaaaaaa@ 100ae668     bncs_cc02_qt.obj
 0002:000a6ae8       ??_C@_0EHM@CMHDBNLN@?4?$CDaaaaaaaaaaaaaaaaaaaaaaaaaaaaaa@ 100aeae8     bncs_cc02_qt.obj
 0002:000a6f68       ??_C@_0EHM@CIALDFKN@?4?$CDaaaaaaaaaaaaaaaaaaaaaaaaaaaaaa@ 100aef68     bncs_cc02_qt.obj
 0002:000a73e8       ??_C@_0EHM@FKCDKPNL@?4?$CDaaaaaaaaaaaaaaaaaaaaaaaaaaaaaa@ 100af3e8     bncs_cc02_qt.obj
 0002:000a7868       ??_C@_0EHM@KLFHCPIP@?4?$CDaaaaaaaaaaaaaaaaaaaaaaaaaaaaaa@ 100af868     bncs_cc02_qt.obj
 0002:000a7ce8       ??_C@_0EHM@CLDAFBEA@?4?$CDaaaaaaaaaaaaaaaaaaaaaaaaaaaaaa@ 100afce8     bncs_cc02_qt.obj
 0002:000a8168       ??_C@_0EHM@KPFNFOFI@?4?$CDaaaaaaaaaaaaaaaaaaaaaaaaaaaaaa@ 100b0168     bncs_cc02_qt.obj
 0002:000a85e8       ??_C@_0EHM@MAKFMGLF@?4?$CDaaaaaaaaaaaaaaaaaaaaaaaaaaaaaa@ 100b05e8     bncs_cc02_qt.obj
 0002:000a8a68       ??_C@_0EHM@MENNOOKF@?4?$CDaaaaaaaaaaaaaaaaaaaaaaaaaaaaaa@ 100b0a68     bncs_cc02_qt.obj
 0002:000a8ee8       ??_C@_0EHM@PJKIGMGJ@?4?$CDaaaaaaaaaaaaaaaaaaaaaaaaaaaaaa@ 100b0ee8     bncs_cc02_qt.obj
 0002:000a9368       ??_C@_0EHM@POPBJHJA@?4?$CDaaaaaaaaaaaaaaaaaaaaaaaaaaaaaa@ 100b1368     bncs_cc02_qt.obj
 0002:000a97e8       ??_C@_0EHM@OIGMGAON@?4?$CDaaaaaaaaaaaaaaaaaaaaaaaaaaaaaa@ 100b17e8     bncs_cc02_qt.obj
 0002:000a9c68       ??_C@_0EHM@DHFCECP@?4?$CDaaaaaaaaaaaaaaaaaaaaaaaaaaaaaa@ 100b1c68     bncs_cc02_qt.obj
 0002:000aa0e8       ??_C@_0EHM@NFFPLCFF@?4?$CDaaaaaaaaaaaaaaaaaaaaaaaaaaaaaa@ 100b20e8     bncs_cc02_qt.obj
 0002:000aa568       ??_C@_0EHM@DGAAGGCM@?4?$CDaaaaaaaaaaaaaaaaaaaaaaaaaaaaaa@ 100b2568     bncs_cc02_qt.obj
 0002:000aa9e8       ??_C@_0EHM@CLAAONIK@?4?$CDaaaaaaaaaaaaaaaaaaaaaaaaaaaaaa@ 100b29e8     bncs_cc02_qt.obj
 0002:000aae68       ??_C@_0EHM@IHEMOMFB@?4?$CDaaaaaaaaaaaaaaaaaaaaaaaaaaaaaa@ 100b2e68     bncs_cc02_qt.obj
 0002:000ab2e8       ??_C@_0EHM@NHFCABI@?4?$CDaaaaaaaaaaaaaaaaaaaaaaaaaaaaaa@ 100b32e8     bncs_cc02_qt.obj
 0002:000ab768       ??_C@_0EHM@OPLGMPIG@?4?$CDaaaaaaaaaaaaaaaaaaaaaaaaaaaaaa@ 100b3768     bncs_cc02_qt.obj
 0002:000abbe8       ??_C@_0EHM@IMNAAMDC@?4?$CDaaaaaaaaaaaaaaaaaaaaaaaaaaaaaa@ 100b3be8     bncs_cc02_qt.obj
 0002:000ac068       ??_C@_0EHM@MGEKFLDL@?4?$CDaaaaaaaaaaaaaaaaaaaaaaaaaaaaaa@ 100b4068     bncs_cc02_qt.obj
 0002:000ac4e8       ??_C@_0EHM@BMNHAKIA@?4?$CDaaaaaaaaaaaaaaaaaaaaaaaaaaaaaa@ 100b44e8     bncs_cc02_qt.obj
 0002:000ac968       ??_C@_0EHM@PHMNMBLH@?4?$CDaaaaaaaaaaaaaaaaaaaaaaaaaaaaaa@ 100b4968     bncs_cc02_qt.obj
 0002:000acde8       ??_C@_0EHM@ENFCPMNM@?4?$CDaaaaaaaaaaaaaaaaaaaaaaaaaaaaaa@ 100b4de8     bncs_cc02_qt.obj
 0002:000ad268       ??_C@_0EHM@BBGAAGCP@?4?$CDaaaaaaaaaaaaaaaaaaaaaaaaaaaaaa@ 100b5268     bncs_cc02_qt.obj
 0002:000ad6e8       ??_C@_0EHM@OANHPOKP@?4?$CDaaaaaaaaaaaaaaaaaaaaaaaaaaaaaa@ 100b56e8     bncs_cc02_qt.obj
 0002:000adb68       ??_C@_0EHM@BLGLMBJH@?4?$CDaaaaaaaaaaaaaaaaaaaaaaaaaaaaaa@ 100b5b68     bncs_cc02_qt.obj
 0002:000adfe8       ??_C@_0EHM@BPKEBOJ@?4?$CDaaaaaaaaaaaaaaaaaaaaaaaaaaaaaa@ 100b5fe8     bncs_cc02_qt.obj
 0002:000ae468       ??_C@_0EHM@GFKMHPNO@?4?$CDaaaaaaaaaaaaaaaaaaaaaaaaaaaaaa@ 100b6468     bncs_cc02_qt.obj
 0002:000ae8e8       ??_C@_0EHM@LPHCHAKH@?4?$CDaaaaaaaaaaaaaaaaaaaaaaaaaaaaaa@ 100b68e8     bncs_cc02_qt.obj
 0002:000aed68       ??_C@_0EHM@DGMAKMED@?4?$CDaaaaaaaaaaaaaaaaaaaaaaaaaaaaaa@ 100b6d68     bncs_cc02_qt.obj
 0002:000af1e8       ??_C@_0EHM@EPMAKFEF@?4?$CDaaaaaaaaaaaaaaaaaaaaaaaaaaaaaa@ 100b71e8     bncs_cc02_qt.obj
 0002:000af668       ??_C@_0EHM@LDHKBHCB@?4?$CDaaaaaaaaaaaaaaaaaaaaaaaaaaaaaa@ 100b7668     bncs_cc02_qt.obj
 0002:000afae8       ??_C@_0EHM@IKKAPHDF@?4?$CDaaaaaaaaaaaaaaaaaaaaaaaaaaaaaa@ 100b7ae8     bncs_cc02_qt.obj
 0002:000aff68       ??_C@_0EHM@CJCBPPN@?4?$CDaaaaaaaaaaaaaaaaaaaaaaaaaaaaaa@ 100b7f68     bncs_cc02_qt.obj
 0002:000b03e8       ??_C@_0EHM@LOMLPNJH@?4?$CDaaaaaaaaaaaaaaaaaaaaaaaaaaaaaa@ 100b83e8     bncs_cc02_qt.obj
 0002:000b0868       ??_C@_0EHM@CIGEMKOL@?4?$CDaaaaaaaaaaaaaaaaaaaaaaaaaaaaaa@ 100b8868     bncs_cc02_qt.obj
 0002:000b0ce8       ??_C@_0EHM@HEFGEOKD@?4?$CDaaaaaaaaaaaaaaaaaaaaaaaaaaaaaa@ 100b8ce8     bncs_cc02_qt.obj
 0002:000b1168       ??_C@_0EHM@HDKPKAC@?4?$CDaaaaaaaaaaaaaaaaaaaaaaaaaaaaaa@ 100b9168     bncs_cc02_qt.obj
 0002:000b15e8       ??_C@_0EHM@FNENPFEL@?4?$CDaaaaaaaaaaaaaaaaaaaaaaaaaaaaaa@ 100b95e8     bncs_cc02_qt.obj
 0002:000b1a68       ??_C@_0EHM@CCEJBNDB@?4?$CDaaaaaaaaaaaaaaaaaaaaaaaaaaaaaa@ 100b9a68     bncs_cc02_qt.obj
 0002:000b1ee8       ??_C@_0EHM@OMPOBJCD@?4?$CDaaaaaaaaaaaaaaaaaaaaaaaaaaaaaa@ 100b9ee8     bncs_cc02_qt.obj
 0002:000b2368       ??_C@_0EHM@MOEPBDLJ@?4?$CDaaaaaaaaaaaaaaaaaaaaaaaaaaaaaa@ 100ba368     bncs_cc02_qt.obj
 0002:000b27e8       ??_C@_0EHM@IFCOAFGH@?4?$CDaaaaaaaaaaaaaaaaaaaaaaaaaaaaaa@ 100ba7e8     bncs_cc02_qt.obj
 0002:000b2c68       ??_C@_0EHM@EPHHOHFO@?4?$CDaaaaaaaaaaaaaaaaaaaaaaaaaaaaaa@ 100bac68     bncs_cc02_qt.obj
 0002:000b30e8       ??_C@_0EHM@CFMOFCG@?4?$CDaaaaaaaaaaaaaaaaaaaaaaaaaaaaaa@ 100bb0e8     bncs_cc02_qt.obj
 0002:000b3568       ??_C@_0EHM@KOMMJNEK@?4?$CDaaaaaaaaaaaaaaaaaaaaaaaaaaaaaa@ 100bb568     bncs_cc02_qt.obj
 0002:000b39e8       ??_C@_0EHM@KMFGMFHM@?4?$CDaaaaaaaaaaaaaaaaaaaaaaaaaaaaaa@ 100bb9e8     bncs_cc02_qt.obj
 0002:000b3e68       ??_C@_0EHM@DILFIOBC@?4?$CDaaaaaaaaaaaaaaaaaaaaaaaaaaaaaa@ 100bbe68     bncs_cc02_qt.obj
 0002:000b42e8       ??_C@_0EHM@BHMBJDLJ@?4?$CDaaaaaaaaaaaaaaaaaaaaaaaaaaaaaa@ 100bc2e8     bncs_cc02_qt.obj
 0002:000b4768       ??_C@_0EHM@NJGIPKJG@?4?$CDaaaaaaaaaaaaaaaaaaaaaaaaaaaaaa@ 100bc768     bncs_cc02_qt.obj
 0002:000b4be8       ??_C@_0EHM@NLBCNMNA@?4?$CDaaaaaaaaaaaaaaaaaaaaaaaaaaaaaa@ 100bcbe8     bncs_cc02_qt.obj
 0002:000b5068       ??_C@_0EHM@DPOCOKIH@?4?$CDaaaaaaaaaaaaaaaaaaaaaaaaaaaaaa@ 100bd068     bncs_cc02_qt.obj
 0002:000b54e8       ??_C@_0EHM@BNGBICPM@?4?$CDaaaaaaaaaaaaaaaaaaaaaaaaaaaaaa@ 100bd4e8     bncs_cc02_qt.obj
 0002:000b5968       ??_C@_0EHM@MPIBILBD@?4?$CDaaaaaaaaaaaaaaaaaaaaaaaaaaaaaa@ 100bd968     bncs_cc02_qt.obj
 0002:000b5de8       ??_C@_0EHM@OBOCLDBN@?4?$CDaaaaaaaaaaaaaaaaaaaaaaaaaaaaaa@ 100bdde8     bncs_cc02_qt.obj
 0002:000b6268       ??_C@_0EHM@CBIEIFIE@?4?$CDaaaaaaaaaaaaaaaaaaaaaaaaaaaaaa@ 100be268     bncs_cc02_qt.obj
 0002:000b66e8       ??_C@_0EHM@CJEEHBEO@?4?$CDaaaaaaaaaaaaaaaaaaaaaaaaaaaaaa@ 100be6e8     bncs_cc02_qt.obj
 0002:000b6b68       ??_C@_0EHM@BBBMAOKD@?4?$CDaaaaaaaaaaaaaaaaaaaaaaaaaaaaaa@ 100beb68     bncs_cc02_qt.obj
 0002:000b6fe8       ??_C@_0EHM@DMJLJCBN@?4?$CDaaaaaaaaaaaaaaaaaaaaaaaaaaaaaa@ 100befe8     bncs_cc02_qt.obj
 0002:000b7468       ??_C@_0EHM@MJADMCDM@?4?$CDaaaaaaaaaaaaaaaaaaaaaaaaaaaaaa@ 100bf468     bncs_cc02_qt.obj
 0002:000b78e8       ??_C@_0EHM@ELGCPMOM@?4?$CDaaaaaaaaaaaaaaaaaaaaaaaaaaaaaa@ 100bf8e8     bncs_cc02_qt.obj
 0002:000b7d68       ??_C@_0EHM@LDGIOLGH@?4?$CDaaaaaaaaaaaaaaaaaaaaaaaaaaaaaa@ 100bfd68     bncs_cc02_qt.obj
 0002:000b81e8       ??_C@_0EHM@IFFAMBFH@?4?$CDaaaaaaaaaaaaaaaaaaaaaaaaaaaaaa@ 100c01e8     bncs_cc02_qt.obj
 0002:000b8668       ??_C@_0EHM@FGEJLEAC@?4?$CDaaaaaaaaaaaaaaaaaaaaaaaaaaaaaa@ 100c0668     bncs_cc02_qt.obj
 0002:000b8ae8       ??_C@_0EHM@LECCIMFL@?4?$CDaaaaaaaaaaaaaaaaaaaaaaaaaaaaaa@ 100c0ae8     bncs_cc02_qt.obj
 0002:000b8f68       ??_C@_0EHM@KGCMDGKP@?4?$CDaaaaaaaaaaaaaaaaaaaaaaaaaaaaaa@ 100c0f68     bncs_cc02_qt.obj
 0002:000b93e8       ??_C@_0EHM@EHNGJCBA@?4?$CDaaaaaaaaaaaaaaaaaaaaaaaaaaaaaa@ 100c13e8     bncs_cc02_qt.obj
 0002:000b9868       ??_C@_0EHM@PKNLNLBG@?4?$CDaaaaaaaaaaaaaaaaaaaaaaaaaaaaaa@ 100c1868     bncs_cc02_qt.obj
 0002:000b9ce8       ??_C@_0EHM@GLCGPJDA@?4?$CDaaaaaaaaaaaaaaaaaaaaaaaaaaaaaa@ 100c1ce8     bncs_cc02_qt.obj
 0002:000ba168       ??_C@_0EHM@HAAINANN@?4?$CDaaaaaaaaaaaaaaaaaaaaaaaaaaaaaa@ 100c2168     bncs_cc02_qt.obj
 0002:000ba5e8       ??_C@_0EHM@OLFCLLFK@?4?$CDaaaaaaaaaaaaaaaaaaaaaaaaaaaaaa@ 100c25e8     bncs_cc02_qt.obj
 0002:000baa68       ??_C@_0EHM@KBBNLNPC@?4?$CDaaaaaaaaaaaaaaaaaaaaaaaaaaaaaa@ 100c2a68     bncs_cc02_qt.obj
 0002:000baee8       ??_C@_0EHM@KLEIIJFM@?4?$CDaaaaaaaaaaaaaaaaaaaaaaaaaaaaaa@ 100c2ee8     bncs_cc02_qt.obj
 0002:000bb368       ??_C@_0EHM@PNFACKLM@?4?$CDaaaaaaaaaaaaaaaaaaaaaaaaaaaaaa@ 100c3368     bncs_cc02_qt.obj
 0002:000bb7e8       ??_C@_0EHM@CJBLNFLL@?4?$CDaaaaaaaaaaaaaaaaaaaaaaaaaaaaaa@ 100c37e8     bncs_cc02_qt.obj
 0002:000bbc68       ??_C@_0EHM@DJEANMBM@?4?$CDaaaaaaaaaaaaaaaaaaaaaaaaaaaaaa@ 100c3c68     bncs_cc02_qt.obj
 0002:000bc0e8       ??_C@_0EHM@LEFJHIGI@?4?$CDaaaaaaaaaaaaaaaaaaaaaaaaaaaaaa@ 100c40e8     bncs_cc02_qt.obj
 0002:000bc568       ??_C@_0EHM@MJJIGBJC@?4?$CDaaaaaaaaaaaaaaaaaaaaaaaaaaaaaa@ 100c4568     bncs_cc02_qt.obj
 0002:000bc9e8       ??_C@_0EHM@BPEHOPFH@?4?$CDaaaaaaaaaaaaaaaaaaaaaaaaaaaaaa@ 100c49e8     bncs_cc02_qt.obj
 0002:000bce68       ??_C@_0EHM@KDMKNPNE@?4?$CDaaaaaaaaaaaaaaaaaaaaaaaaaaaaaa@ 100c4e68     bncs_cc02_qt.obj
 0002:000bd2e8       ??_C@_0EHM@IJAJHEIO@?4?$CDaaaaaaaaaaaaaaaaaaaaaaaaaaaaaa@ 100c52e8     bncs_cc02_qt.obj
 0002:000bd768       ??_C@_0EHM@FGEGFCLP@?4?$CDaaaaaaaaaaaaaaaaaaaaaaaaaaaaaa@ 100c5768     bncs_cc02_qt.obj
 0002:000bdbe8       ??_C@_0EHM@CENEEFF@?4?$CDaaaaaaaaaaaaaaaaaaaaaaaaaaaaaa@ 100c5be8     bncs_cc02_qt.obj
 0002:000be068       ??_C@_0EHM@DHMNCGMM@?4?$CDaaaaaaaaaaaaaaaaaaaaaaaaaaaaaa@ 100c6068     bncs_cc02_qt.obj
 0002:000be4e8       ??_C@_0EHM@BGNCLDCC@?4?$CDaaaaaaaaaaaaaaaaaaaaaaaaaaaaaa@ 100c64e8     bncs_cc02_qt.obj
 0002:000be968       ??_C@_0EHM@KFCCIPC@?4?$CDaaaaaaaaaaaaaaaaaaaaaaaaaaaaaa@ 100c6968     bncs_cc02_qt.obj
 0002:000bede8       ??_C@_0EHM@EECFHHJJ@?4?$CDaaaaaaaaaaaaaaaaaaaaaaaaaaaaaa@ 100c6de8     bncs_cc02_qt.obj
 0002:000bf268       ??_C@_0EHM@NOGGCODH@?4?$CDaaaaaaaaaaaaaaaaaaaaaaaaaaaaaa@ 100c7268     bncs_cc02_qt.obj
 0002:000bf6e8       ??_C@_0EHM@PNOCCFAN@?4?$CDaaaaaaaaaaaaaaaaaaaaaaaaaaaaaa@ 100c76e8     bncs_cc02_qt.obj
 0002:000bfb68       ??_C@_0EHM@CBGKEPEC@?4?$CDaaaaaaaaaaaaaaaaaaaaaaaaaaaaaa@ 100c7b68     bncs_cc02_qt.obj
 0002:000bffe8       ??_C@_0EHM@CDHMKGFP@?4?$CDaaaaaaaaaaaaaaaaaaaaaaaaaaaaaa@ 100c7fe8     bncs_cc02_qt.obj
 0002:000c0468       ??_C@_0EHM@BDMKHKNI@?4?$CDaaaaaaaaaaaaaaaaaaaaaaaaaaaaaa@ 100c8468     bncs_cc02_qt.obj
 0002:000c08e8       ??_C@_0EHM@LOHLAPDM@?4?$CDaaaaaaaaaaaaaaaaaaaaaaaaaaaaaa@ 100c88e8     bncs_cc02_qt.obj
 0002:000c0d68       ??_C@_0EHM@IIDKBNMP@?4?$CDaaaaaaaaaaaaaaaaaaaaaaaaaaaaaa@ 100c8d68     bncs_cc02_qt.obj
 0002:000c11e8       ??_C@_0EHM@DMDNMCGI@?4?$CDaaaaaaaaaaaaaaaaaaaaaaaaaaaaaa@ 100c91e8     bncs_cc02_qt.obj
 0002:000c1668       ??_C@_0EHM@GCPKADGB@?4?$CDaaaaaaaaaaaaaaaaaaaaaaaaaaaaaa@ 100c9668     bncs_cc02_qt.obj
 0002:000c1ae8       ??_C@_0EHM@HDGPEPJJ@?4?$CDaaaaaaaaaaaaaaaaaaaaaaaaaaaaaa@ 100c9ae8     bncs_cc02_qt.obj
 0002:000c1f68       ??_C@_0EHM@GGAHBJCF@?4?$CDaaaaaaaaaaaaaaaaaaaaaaaaaaaaaa@ 100c9f68     bncs_cc02_qt.obj
 0002:000c23e8       ??_C@_0EHM@BGNHLJLB@?4?$CDaaaaaaaaaaaaaaaaaaaaaaaaaaaaaa@ 100ca3e8     bncs_cc02_qt.obj
 0002:000c2868       ??_C@_0EHM@NLKKIPJM@?4?$CDaaaaaaaaaaaaaaaaaaaaaaaaaaaaaa@ 100ca868     bncs_cc02_qt.obj
 0002:000c2ce8       ??_C@_0EHM@KCPMJNO@?4?$CDaaaaaaaaaaaaaaaaaaaaaaaaaaaaaa@ 100cace8     bncs_cc02_qt.obj
 0002:000c3168       ??_C@_0EHM@BLPBLLGE@?4?$CDaaaaaaaaaaaaaaaaaaaaaaaaaaaaaa@ 100cb168     bncs_cc02_qt.obj
 0002:000c35e8       ??_C@_0EHM@DLMCIECO@?4?$CDaaaaaaaaaaaaaaaaaaaaaaaaaaaaaa@ 100cb5e8     bncs_cc02_qt.obj
 0002:000c3a68       ??_C@_0EHM@ODFGAMJ@?4?$CDaaaaaaaaaaaaaaaaaaaaaaaaaaaaaa@ 100cba68     bncs_cc02_qt.obj
 0002:000c3ee8       ??_C@_0EHM@PAKLKNBA@?4?$CDaaaaaaaaaaaaaaaaaaaaaaaaaaaaaa@ 100cbee8     bncs_cc02_qt.obj
 0002:000c4368       ??_C@_0EHM@NKJIKCNE@?4?$CDaaaaaaaaaaaaaaaaaaaaaaaaaaaaaa@ 100cc368     bncs_cc02_qt.obj
 0002:000c47e8       ??_C@_0EHM@ODJBGAFJ@?4?$CDaaaaaaaaaaaaaaaaaaaaaaaaaaaaaa@ 100cc7e8     bncs_cc02_qt.obj
 0002:000c4c68       ??_C@_0EHM@IDNOOAGL@?4?$CDaaaaaaaaaaaaaaaaaaaaaaaaaaaaaa@ 100ccc68     bncs_cc02_qt.obj
 0002:000c50e8       ??_C@_0EHM@BBENOONP@?4?$CDaaaaaaaaaaaaaaaaaaaaaaaaaaaaaa@ 100cd0e8     bncs_cc02_qt.obj
 0002:000c5568       ??_C@_0EHM@PMBMKFLK@?4?$CDaaaaaaaaaaaaaaaaaaaaaaaaaaaaaa@ 100cd568     bncs_cc02_qt.obj
 0002:000c59e8       ??_C@_0EHM@LKHCCKBC@?4?$CDaaaaaaaaaaaaaaaaaaaaaaaaaaaaaa@ 100cd9e8     bncs_cc02_qt.obj
 0002:000c5e68       ??_C@_0EHM@IIFJPFIN@?4?$CDaaaaaaaaaaaaaaaaaaaaaaaaaaaaaa@ 100cde68     bncs_cc02_qt.obj
 0002:000c62e8       ??_C@_0EHM@FNAGKDAD@?4?$CDaaaaaaaaaaaaaaaaaaaaaaaaaaaaaa@ 100ce2e8     bncs_cc02_qt.obj
 0002:000c6768       ??_C@_0EHM@FKOPOHMP@?4?$CDaaaaaaaaaaaaaaaaaaaaaaaaaaaaaa@ 100ce768     bncs_cc02_qt.obj
 0002:000c6be8       ??_C@_0EHM@DNMKKHJM@?4?$CDaaaaaaaaaaaaaaaaaaaaaaaaaaaaaa@ 100cebe8     bncs_cc02_qt.obj
 0002:000c7068       ??_C@_0EHM@NCLKKEGC@?4?$CDaaaaaaaaaaaaaaaaaaaaaaaaaaaaaa@ 100cf068     bncs_cc02_qt.obj
 0002:000c74e8       ??_C@_0EHM@BNIBEHKO@?4?$CDaaaaaaaaaaaaaaaaaaaaaaaaaaaaaa@ 100cf4e8     bncs_cc02_qt.obj
 0002:000c7968       ??_C@_0EHM@DMHILCDG@?4?$CDaaaaaaaaaaaaaaaaaaaaaaaaaaaaaa@ 100cf968     bncs_cc02_qt.obj
 0002:000c7de8       ??_C@_0EHM@PCACNGEG@?4?$CDaaaaaaaaaaaaaaaaaaaaaaaaaaaaaa@ 100cfde8     bncs_cc02_qt.obj
 0002:000c8268       ??_C@_0EHM@LPDLMJOB@?4?$CDaaaaaaaaaaaaaaaaaaaaaaaaaaaaaa@ 100d0268     bncs_cc02_qt.obj
 0002:000c86e8       ??_C@_0EHM@NILBAHEN@?4?$CDaaaaaaaaaaaaaaaaaaaaaaaaaaaaaa@ 100d06e8     bncs_cc02_qt.obj
 0002:000c8b68       ??_C@_0EHM@GGPBPC@?4?$CDaaaaaaaaaaaaaaaaaaaaaaaaaaaaaa@ 100d0b68     bncs_cc02_qt.obj
 0002:000c8fe8       ??_C@_0EHM@ELLGEPLB@?4?$CDaaaaaaaaaaaaaaaaaaaaaaaaaaaaaa@ 100d0fe8     bncs_cc02_qt.obj
 0002:000c9468       ??_C@_0EHM@JPMKOKPM@?4?$CDaaaaaaaaaaaaaaaaaaaaaaaaaaaaaa@ 100d1468     bncs_cc02_qt.obj
 0002:000c98e8       ??_C@_0EHM@MLLKCKDM@?4?$CDaaaaaaaaaaaaaaaaaaaaaaaaaaaaaa@ 100d18e8     bncs_cc02_qt.obj
 0002:000c9d68       ??_C@_0EHM@DODLILJA@?4?$CDaaaaaaaaaaaaaaaaaaaaaaaaaaaaaa@ 100d1d68     bncs_cc02_qt.obj
 0002:000ca1e8       ??_C@_0EHM@GDIHGGBP@?4?$CDaaaaaaaaaaaaaaaaaaaaaaaaaaaaaa@ 100d21e8     bncs_cc02_qt.obj
 0002:000ca668       ??_C@_0EHM@PBJJMBBO@?4?$CDaaaaaaaaaaaaaaaaaaaaaaaaaaaaaa@ 100d2668     bncs_cc02_qt.obj
 0002:000caae8       ??_C@_0EHM@IFBOCELO@?4?$CDaaaaaaaaaaaaaaaaaaaaaaaaaaaaaa@ 100d2ae8     bncs_cc02_qt.obj
 0002:000caf68       ??_C@_0EHM@IDILGDEC@?4?$CDaaaaaaaaaaaaaaaaaaaaaaaaaaaaaa@ 100d2f68     bncs_cc02_qt.obj
 0002:000cb3e8       ??_C@_0EHM@KDCCCNNK@?4?$CDaaaaaaaaaaaaaaaaaaaaaaaaaaaaaa@ 100d33e8     bncs_cc02_qt.obj
 0002:000cb868       ??_C@_0EHM@GAPDEONH@?4?$CDaaaaaaaaaaaaaaaaaaaaaaaaaaaaaa@ 100d3868     bncs_cc02_qt.obj
 0002:000cbce8       ??_C@_0EHM@PNMGJBEF@?4?$CDaaaaaaaaaaaaaaaaaaaaaaaaaaaaaa@ 100d3ce8     bncs_cc02_qt.obj
 0002:000cc168       ??_C@_0EHM@OHIKEGOC@?4?$CDaaaaaaaaaaaaaaaaaaaaaaaaaaaaaa@ 100d4168     bncs_cc02_qt.obj
 0002:000cc5e8       ??_C@_0EHM@KEBEDJPI@?4?$CDaaaaaaaaaaaaaaaaaaaaaaaaaaaaaa@ 100d45e8     bncs_cc02_qt.obj
 0002:000cca68       ??_C@_0EHM@LEOPPJDC@?4?$CDaaaaaaaaaaaaaaaaaaaaaaaaaaaaaa@ 100d4a68     bncs_cc02_qt.obj
 0002:000ccee8       ??_C@_0EHM@KNGKMGNM@?4?$CDaaaaaaaaaaaaaaaaaaaaaaaaaaaaaa@ 100d4ee8     bncs_cc02_qt.obj
 0002:000cd368       ??_C@_0EHM@MACELKNK@?4?$CDaaaaaaaaaaaaaaaaaaaaaaaaaaaaaa@ 100d5368     bncs_cc02_qt.obj
 0002:000cd7e8       ??_C@_0EHM@HBOKNJOF@?4?$CDaaaaaaaaaaaaaaaaaaaaaaaaaaaaaa@ 100d57e8     bncs_cc02_qt.obj
 0002:000cdc68       ??_C@_0EHM@HMMJFAEK@?4?$CDaaaaaaaaaaaaaaaaaaaaaaaaaaaaaa@ 100d5c68     bncs_cc02_qt.obj
 0002:000ce0e8       ??_C@_0EHM@GDFFOFLC@?4?$CDaaaaaaaaaaaaaaaaaaaaaaaaaaaaaa@ 100d60e8     bncs_cc02_qt.obj
 0002:000ce568       ??_C@_0EHM@FKKFEGFJ@?4?$CDaaaaaaaaaaaaaaaaaaaaaaaaaaaaaa@ 100d6568     bncs_cc02_qt.obj
 0002:000ce9e8       ??_C@_0EHM@DPEIKCMM@?4?$CDaaaaaaaaaaaaaaaaaaaaaaaaaaaaaa@ 100d69e8     bncs_cc02_qt.obj
 0002:000cee68       ??_C@_0EHM@FBAIBLEL@?4?$CDaaaaaaaaaaaaaaaaaaaaaaaaaaaaaa@ 100d6e68     bncs_cc02_qt.obj
 0002:000cf2e8       ??_C@_0EHM@CNFGAHFP@?4?$CDaaaaaaaaaaaaaaaaaaaaaaaaaaaaaa@ 100d72e8     bncs_cc02_qt.obj
 0002:000cf768       ??_C@_0EHM@FDGMFBF@?4?$CDaaaaaaaaaaaaaaaaaaaaaaaaaaaaaa@ 100d7768     bncs_cc02_qt.obj
 0002:000cfbe8       ??_C@_0EHM@IMMCMIGN@?4?$CDaaaaaaaaaaaaaaaaaaaaaaaaaaaaaa@ 100d7be8     bncs_cc02_qt.obj
 0002:000d0068       ??_C@_0EHM@CFHMAMH@?4?$CDaaaaaaaaaaaaaaaaaaaaaaaaaaaaaa@ 100d8068     bncs_cc02_qt.obj
 0002:000d04e8       ??_C@_0EHM@GFHGLHEM@?4?$CDaaaaaaaaaaaaaaaaaaaaaaaaaaaaaa@ 100d84e8     bncs_cc02_qt.obj
 0002:000d0968       ??_C@_0EHM@LKOOKDBI@?4?$CDaaaaaaaaaaaaaaaaaaaaaaaaaaaaaa@ 100d8968     bncs_cc02_qt.obj
 0002:000d0de8       ??_C@_0EHM@KFCDDGKE@?4?$CDaaaaaaaaaaaaaaaaaaaaaaaaaaaaaa@ 100d8de8     bncs_cc02_qt.obj
 0002:000d1268       ??_C@_0EHM@PLAMENBC@?4?$CDaaaaaaaaaaaaaaaaaaaaaaaaaaaaaa@ 100d9268     bncs_cc02_qt.obj
 0002:000d16e8       ??_C@_0EHM@KLDKHIFP@?4?$CDaaaaaaaaaaaaaaaaaaaaaaaaaaaaaa@ 100d96e8     bncs_cc02_qt.obj
 0002:000d1b68       ??_C@_0EHM@MOGMHJIB@?4?$CDaaaaaaaaaaaaaaaaaaaaaaaaaaaaaa@ 100d9b68     bncs_cc02_qt.obj
 0002:000d1fe8       ??_C@_0EHM@BJIMPNEG@?4?$CDaaaaaaaaaaaaaaaaaaaaaaaaaaaaaa@ 100d9fe8     bncs_cc02_qt.obj
 0002:000d2468       ??_C@_0EHM@JEFLGCOO@?4?$CDaaaaaaaaaaaaaaaaaaaaaaaaaaaaaa@ 100da468     bncs_cc02_qt.obj
 0002:000d28e8       ??_C@_0EHM@EEKJEHHD@?4?$CDaaaaaaaaaaaaaaaaaaaaaaaaaaaaaa@ 100da8e8     bncs_cc02_qt.obj
 0002:000d2d68       ??_C@_0EHM@NFCDKPOC@?4?$CDaaaaaaaaaaaaaaaaaaaaaaaaaaaaaa@ 100dad68     bncs_cc02_qt.obj
 0002:000d31e8       ??_C@_0EHM@LIBJAFNP@?4?$CDaaaaaaaaaaaaaaaaaaaaaaaaaaaaaa@ 100db1e8     bncs_cc02_qt.obj
 0002:000d3668       ??_C@_0EHM@PCKFNGIG@?4?$CDaaaaaaaaaaaaaaaaaaaaaaaaaaaaaa@ 100db668     bncs_cc02_qt.obj
 0002:000d3ae8       ??_C@_0EHM@OLAPGGDO@?4?$CDaaaaaaaaaaaaaaaaaaaaaaaaaaaaaa@ 100dbae8     bncs_cc02_qt.obj
 0002:000d3f68       ??_C@_0EHM@KHCDBOJF@?4?$CDaaaaaaaaaaaaaaaaaaaaaaaaaaaaaa@ 100dbf68     bncs_cc02_qt.obj
 0002:000d43e8       ??_C@_0EHM@PHLDEJDI@?4?$CDaaaaaaaaaaaaaaaaaaaaaaaaaaaaaa@ 100dc3e8     bncs_cc02_qt.obj
 0002:000d4868       ??_C@_0EHM@DFKPOMBD@?4?$CDaaaaaaaaaaaaaaaaaaaaaaaaaaaaaa@ 100dc868     bncs_cc02_qt.obj
 0002:000d4ce8       ??_C@_0EHM@PJBHKMEJ@?4?$CDaaaaaaaaaaaaaaaaaaaaaaaaaaaaaa@ 100dcce8     bncs_cc02_qt.obj
 0002:000d5168       ??_C@_0EHM@MHCIEHOB@?4?$CDaaaaaaaaaaaaaaaaaaaaaaaaaaaaaa@ 100dd168     bncs_cc02_qt.obj
 0002:000d55e8       ??_C@_0EHM@EBANNGHK@?4?$CDaaaaaaaaaaaaaaaaaaaaaaaaaaaaaa@ 100dd5e8     bncs_cc02_qt.obj
 0002:000d5a68       ??_C@_0EHM@GFHHDKOC@?4?$CDaaaaaaaaaaaaaaaaaaaaaaaaaaaaaa@ 100dda68     bncs_cc02_qt.obj
 0002:000d5ee8       ??_C@_0EHM@GMAMAMFK@?4?$CDaaaaaaaaaaaaaaaaaaaaaaaaaaaaaa@ 100ddee8     bncs_cc02_qt.obj
 0002:000d6368       ??_C@_0EHM@EHCFENCG@?4?$CDaaaaaaaaaaaaaaaaaaaaaaaaaaaaaa@ 100de368     bncs_cc02_qt.obj
 0002:000d67e8       ??_C@_0EHM@HLCANCFM@?4?$CDaaaaaaaaaaaaaaaaaaaaaaaaaaaaaa@ 100de7e8     bncs_cc02_qt.obj
 0002:000d6c68       ??_C@_0EHM@PAFNPANF@?4?$CDaaaaaaaaaaaaaaaaaaaaaaaaaaaaaa@ 100dec68     bncs_cc02_qt.obj
 0002:000d70e8       ??_C@_0EHM@FHEFGHAL@?4?$CDaaaaaaaaaaaaaaaaaaaaaaaaaaaaaa@ 100df0e8     bncs_cc02_qt.obj
 0002:000d7568       ??_C@_0EHM@MIBAGEPG@?4?$CDaaaaaaaaaaaaaaaaaaaaaaaaaaaaaa@ 100df568     bncs_cc02_qt.obj
 0002:000d79e8       ??_C@_0EHM@OBDMBCNF@?4?$CDaaaaaaaaaaaaaaaaaaaaaaaaaaaaaa@ 100df9e8     bncs_cc02_qt.obj
 0002:000d7e68       ??_C@_0EHM@CJJIPHFF@?4?$CDaaaaaaaaaaaaaaaaaaaaaaaaaaaaaa@ 100dfe68     bncs_cc02_qt.obj
 0002:000d82e8       ??_C@_0EHM@JOHAKGIB@?4?$CDaaaaaaaaaaaaaaaaaaaaaaaaaaaaaa@ 100e02e8     bncs_cc02_qt.obj
 0002:000d8768       ??_C@_0EHM@ICNAFCOD@?4?$CDaaaaaaaaaaaaaaaaaaaaaaaaaaaaaa@ 100e0768     bncs_cc02_qt.obj
 0002:000d8be8       ??_C@_0EHM@GCLIJJLI@?4?$CDaaaaaaaaaaaaaaaaaaaaaaaaaaaaaa@ 100e0be8     bncs_cc02_qt.obj
 0002:000d9068       ??_C@_0EHM@KDLKAELA@?4?$CDaaaaaaaaaaaaaaaaaaaaaaaaaaaaaa@ 100e1068     bncs_cc02_qt.obj
 0002:000d94e8       ??_C@_0EHM@EMEIGCPH@?4?$CDaaaaaaaaaaaaaaaaaaaaaaaaaaaaaa@ 100e14e8     bncs_cc02_qt.obj
 0002:000d9968       ??_C@_0EHM@OGPIFKBJ@?4?$CDaaaaaaaaaaaaaaaaaaaaaaaaaaaaaa@ 100e1968     bncs_cc02_qt.obj
 0002:000d9de8       ??_C@_0EHM@EFIEAOJ@?4?$CDaaaaaaaaaaaaaaaaaaaaaaaaaaaaaa@ 100e1de8     bncs_cc02_qt.obj
 0002:000da268       ??_C@_0EHM@CGKHKNO@?4?$CDaaaaaaaaaaaaaaaaaaaaaaaaaaaaaa@ 100e2268     bncs_cc02_qt.obj
 0002:000da6e8       ??_C@_0EHM@IFHAGBLB@?4?$CDaaaaaaaaaaaaaaaaaaaaaaaaaaaaaa@ 100e26e8     bncs_cc02_qt.obj
 0002:000dab68       ??_C@_0EHM@KKGHCJDP@?4?$CDaaaaaaaaaaaaaaaaaaaaaaaaaaaaaa@ 100e2b68     bncs_cc02_qt.obj
 0002:000dafe8       ??_C@_0EHM@CNIDIDKH@?4?$CDaaaaaaaaaaaaaaaaaaaaaaaaaaaaaa@ 100e2fe8     bncs_cc02_qt.obj
 0002:000db468       ??_C@_0EHM@EOPIJKKG@?4?$CDaaaaaaaaaaaaaaaaaaaaaaaaaaaaaa@ 100e3468     bncs_cc02_qt.obj
 0002:000db8e8       ??_C@_0EHM@LAAAHEKH@?4?$CDaaaaaaaaaaaaaaaaaaaaaaaaaaaaaa@ 100e38e8     bncs_cc02_qt.obj
 0002:000dbd68       ??_C@_0EHM@ECEHLMMB@?4?$CDaaaaaaaaaaaaaaaaaaaaaaaaaaaaaa@ 100e3d68     bncs_cc02_qt.obj
 0002:000dc1e8       ??_C@_0EHM@GOCGHGIF@?4?$CDaaaaaaaaaaaaaaaaaaaaaaaaaaaaaa@ 100e41e8     bncs_cc02_qt.obj
 0002:000dc668       ??_C@_0EHM@DEPMNOJD@?4?$CDaaaaaaaaaaaaaaaaaaaaaaaaaaaaaa@ 100e4668     bncs_cc02_qt.obj
 0002:000dcae8       ??_C@_0EHM@DCBBJNDE@?4?$CDaaaaaaaaaaaaaaaaaaaaaaaaaaaaaa@ 100e4ae8     bncs_cc02_qt.obj
 0002:000dcf68       ??_C@_0EHM@PAKIGOHL@?4?$CDaaaaaaaaaaaaaaaaaaaaaaaaaaaaaa@ 100e4f68     bncs_cc02_qt.obj
 0002:000dd3e8       ??_C@_0EHM@LKGCNPIF@?4?$CDaaaaaaaaaaaaaaaaaaaaaaaaaaaaaa@ 100e53e8     bncs_cc02_qt.obj
 0002:000dd868       ??_C@_0EHM@JLFBJLJP@?4?$CDaaaaaaaaaaaaaaaaaaaaaaaaaaaaaa@ 100e5868     bncs_cc02_qt.obj
 0002:000ddce8       ??_C@_0EHM@MEOMOELA@?4?$CDaaaaaaaaaaaaaaaaaaaaaaaaaaaaaa@ 100e5ce8     bncs_cc02_qt.obj
 0002:000de168       ??_C@_0EHM@IAAGLJFJ@?4?$CDaaaaaaaaaaaaaaaaaaaaaaaaaaaaaa@ 100e6168     bncs_cc02_qt.obj
 0002:000de5e8       ??_C@_0EHM@DJGDALO@?4?$CDaaaaaaaaaaaaaaaaaaaaaaaaaaaaaa@ 100e65e8     bncs_cc02_qt.obj
 0002:000dea68       ??_C@_0EHM@JGGIEHDK@?4?$CDaaaaaaaaaaaaaaaaaaaaaaaaaaaaaa@ 100e6a68     bncs_cc02_qt.obj
 0002:000deee8       ??_C@_0EHM@HHHHCPAA@?4?$CDaaaaaaaaaaaaaaaaaaaaaaaaaaaaaa@ 100e6ee8     bncs_cc02_qt.obj
 0002:000df368       ??_C@_0EHM@EPFIJDFO@?4?$CDaaaaaaaaaaaaaaaaaaaaaaaaaaaaaa@ 100e7368     bncs_cc02_qt.obj
 0002:000df7e8       ??_C@_0EHM@EIKDJAJD@?4?$CDaaaaaaaaaaaaaaaaaaaaaaaaaaaaaa@ 100e77e8     bncs_cc02_qt.obj
 0002:000dfc68       ??_C@_0EHM@OMBHOPJK@?4?$CDaaaaaaaaaaaaaaaaaaaaaaaaaaaaaa@ 100e7c68     bncs_cc02_qt.obj
 0002:000e00e8       ??_C@_0EHM@MDFJEOFL@?4?$CDaaaaaaaaaaaaaaaaaaaaaaaaaaaaaa@ 100e80e8     bncs_cc02_qt.obj
 0002:000e0568       ??_C@_0EHM@BNHHLAMC@?4?$CDaaaaaaaaaaaaaaaaaaaaaaaaaaaaaa@ 100e8568     bncs_cc02_qt.obj
 0002:000e09e8       ??_C@_0EHM@OCEAHCII@?4?$CDaaaaaaaaaaaaaaaaaaaaaaaaaaaaaa@ 100e89e8     bncs_cc02_qt.obj
 0002:000e0e68       ??_C@_0EHM@DNNFOHLG@?4?$CDaaaaaaaaaaaaaaaaaaaaaaaaaaaaaa@ 100e8e68     bncs_cc02_qt.obj
 0002:000e12e8       ??_C@_0EHM@JGHMNPMH@?4?$CDaaaaaaaaaaaaaaaaaaaaaaaaaaaaaa@ 100e92e8     bncs_cc02_qt.obj
 0002:000e1768       ??_C@_0EHM@MLGOGEEC@?4?$CDaaaaaaaaaaaaaaaaaaaaaaaaaaaaaa@ 100e9768     bncs_cc02_qt.obj
 0002:000e1be8       ??_C@_0EHM@BOMOMGEF@?4?$CDaaaaaaaaaaaaaaaaaaaaaaaaaaaaaa@ 100e9be8     bncs_cc02_qt.obj
 0002:000e2068       ??_C@_0EHM@CFMKNOJI@?4?$CDaaaaaaaaaaaaaaaaaaaaaaaaaaaaaa@ 100ea068     bncs_cc02_qt.obj
 0002:000e24e8       ??_C@_0EHM@NCIMMMHG@?4?$CDaaaaaaaaaaaaaaaaaaaaaaaaaaaaaa@ 100ea4e8     bncs_cc02_qt.obj
 0002:000e2968       ??_C@_0EHM@IGELKKAA@?4?$CDaaaaaaaaaaaaaaaaaaaaaaaaaaaaaa@ 100ea968     bncs_cc02_qt.obj
 0002:000e2de8       ??_C@_0EHM@IHFAIKAG@?4?$CDaaaaaaaaaaaaaaaaaaaaaaaaaaaaaa@ 100eade8     bncs_cc02_qt.obj
 0002:000e3268       ??_C@_0EHM@GABAAJKH@?4?$CDaaaaaaaaaaaaaaaaaaaaaaaaaaaaaa@ 100eb268     bncs_cc02_qt.obj
 0002:000e36e8       ??_C@_0EHM@DEOBEJNK@?4?$CDaaaaaaaaaaaaaaaaaaaaaaaaaaaaaa@ 100eb6e8     bncs_cc02_qt.obj
 0002:000e3b68       ??_C@_0EHM@IBENGAEN@?4?$CDaaaaaaaaaaaaaaaaaaaaaaaaaaaaaa@ 100ebb68     bncs_cc02_qt.obj
 0002:000e3fe8       ??_C@_0EHM@GCELKNJJ@?4?$CDaaaaaaaaaaaaaaaaaaaaaaaaaaaaaa@ 100ebfe8     bncs_cc02_qt.obj
 0002:000e4468       ??_C@_0EHM@ECLJDIBH@?4?$CDaaaaaaaaaaaaaaaaaaaaaaaaaaaaaa@ 100ec468     bncs_cc02_qt.obj
 0002:000e48e8       ??_C@_0EHM@JPDDCCBP@?4?$CDaaaaaaaaaaaaaaaaaaaaaaaaaaaaaa@ 100ec8e8     bncs_cc02_qt.obj
 0002:000e4d68       ??_C@_0EHM@MOEPDJJK@?4?$CDaaaaaaaaaaaaaaaaaaaaaaaaaaaaaa@ 100ecd68     bncs_cc02_qt.obj
 0002:000e51e8       ??_C@_0EHM@OFJLDKBG@?4?$CDaaaaaaaaaaaaaaaaaaaaaaaaaaaaaa@ 100ed1e8     bncs_cc02_qt.obj
 0002:000e5668       ??_C@_0EHM@PHNDAAFD@?4?$CDaaaaaaaaaaaaaaaaaaaaaaaaaaaaaa@ 100ed668     bncs_cc02_qt.obj
 0002:000e5ae8       ??_C@_0EHM@IJLAMBEF@?4?$CDaaaaaaaaaaaaaaaaaaaaaaaaaaaaaa@ 100edae8     bncs_cc02_qt.obj
 0002:000e5f68       ??_C@_0EHM@NPNAJJH@?4?$CDaaaaaaaaaaaaaaaaaaaaaaaaaaaaaa@ 100edf68     bncs_cc02_qt.obj
 0002:000e63e8       ??_C@_0EHM@FKJEIOE@?4?$CDaaaaaaaaaaaaaaaaaaaaaaaaaaaaaa@ 100ee3e8     bncs_cc02_qt.obj
 0002:000e6868       ??_C@_0EHM@DMKJIEMB@?4?$CDaaaaaaaaaaaaaaaaaaaaaaaaaaaaaa@ 100ee868     bncs_cc02_qt.obj
 0002:000e6ce8       ??_C@_0EHM@JEDDOGMK@?4?$CDaaaaaaaaaaaaaaaaaaaaaaaaaaaaaa@ 100eece8     bncs_cc02_qt.obj
 0002:000e7168       ??_C@_0EHM@PMCHHMDJ@?4?$CDaaaaaaaaaaaaaaaaaaaaaaaaaaaaaa@ 100ef168     bncs_cc02_qt.obj
 0002:000e75e8       ??_C@_0EHM@LGFHKOPI@?4?$CDaaaaaaaaaaaaaaaaaaaaaaaaaaaaaa@ 100ef5e8     bncs_cc02_qt.obj
 0002:000e7a68       ??_C@_0EHM@BAMJDILO@?4?$CDaaaaaaaaaaaaaaaaaaaaaaaaaaaaaa@ 100efa68     bncs_cc02_qt.obj
 0002:000e7ee8       ??_C@_0EHM@KOLHAGO@?4?$CDaaaaaaaaaaaaaaaaaaaaaaaaaaaaaa@ 100efee8     bncs_cc02_qt.obj
 0002:000e8368       ??_C@_0EHM@BFEFAIKA@?4?$CDaaaaaaaaaaaaaaaaaaaaaaaaaaaaaa@ 100f0368     bncs_cc02_qt.obj
 0002:000e87e8       ??_C@_0EHM@FLIJJAAC@?4?$CDaaaaaaaaaaaaaaaaaaaaaaaaaaaaaa@ 100f07e8     bncs_cc02_qt.obj
 0002:000e8c68       ??_C@_0EHM@BEMKFNHH@?4?$CDaaaaaaaaaaaaaaaaaaaaaaaaaaaaaa@ 100f0c68     bncs_cc02_qt.obj
 0002:000e90e8       ??_C@_0EHM@FLMDNNEC@?4?$CDaaaaaaaaaaaaaaaaaaaaaaaaaaaaaa@ 100f10e8     bncs_cc02_qt.obj
 0002:000e9568       ??_C@_0EHM@FFPMHJMJ@?4?$CDaaaaaaaaaaaaaaaaaaaaaaaaaaaaaa@ 100f1568     bncs_cc02_qt.obj
 0002:000e99e8       ??_C@_0EHM@IEAKNJAF@?4?$CDaaaaaaaaaaaaaaaaaaaaaaaaaaaaaa@ 100f19e8     bncs_cc02_qt.obj
 0002:000e9e68       ??_C@_0EHM@HIDGIHCA@?4?$CDaaaaaaaaaaaaaaaaaaaaaaaaaaaaaa@ 100f1e68     bncs_cc02_qt.obj
 0002:000ea2e8       ??_C@_0EHM@MGPDCHKN@?4?$CDaaaaaaaaaaaaaaaaaaaaaaaaaaaaaa@ 100f22e8     bncs_cc02_qt.obj
 0002:000ea768       ??_C@_0EHM@CMEPANKP@?4?$CDaaaaaaaaaaaaaaaaaaaaaaaaaaaaaa@ 100f2768     bncs_cc02_qt.obj
 0002:000eabe8       ??_C@_0EHM@ENKGHALH@?4?$CDaaaaaaaaaaaaaaaaaaaaaaaaaaaaaa@ 100f2be8     bncs_cc02_qt.obj
 0002:000eb068       ??_C@_0EHM@NKMPLOIA@?4?$CDaaaaaaaaaaaaaaaaaaaamncccccccc@ 100f3068     bncs_cc02_qt.obj
 0002:000eb4e8       ??_C@_0EHM@GJNDDHDG@?4?$CDaaaaaaaaaaaaaaaaaaaamncccccccc@ 100f34e8     bncs_cc02_qt.obj
 0002:000eb968       ??_C@_0EHM@ELMLMJOA@?4?$CDaaaaaaaaaaaaaaaaaaaamncccccccc@ 100f3968     bncs_cc02_qt.obj
 0002:000ebde8       ??_C@_0EHM@EDHFPNIC@?4?$CDaaaaaaaaaaaaaaaaaaaamncccccccc@ 100f3de8     bncs_cc02_qt.obj
 0002:000ec268       ??_C@_0EHM@HLALBBA@?4?$CDaaaaaaaaaaaaaaaaaaaamncccccccc@ 100f4268     bncs_cc02_qt.obj
 0002:000ec6e8       ??_C@_0EHM@EMMNHIAA@?4?$CDaaaaaaaaaaaaaaaaaaaamncccccccc@ 100f46e8     bncs_cc02_qt.obj
 0002:000ecb68       ??_C@_0EHM@FONLGGOC@?4?$CDaaaaaaaaaaaaaaaaaaaaaaaaaaaaaa@ 100f4b68     bncs_cc02_qt.obj
 0002:000ecfe8       ??_C@_0EHM@MMGLMAPC@?4?$CDaaaaaaaaaaaaaaaaaaaaaaaaaaaaaa@ 100f4fe8     bncs_cc02_qt.obj
 0002:000ed468       ??_C@_0EHM@OEPLALCA@?4?$CDaaaaaaaaaaaaaaaaaaaaaaaaaaaaaa@ 100f5468     bncs_cc02_qt.obj
 0002:000ed8e8       ??_C@_0EHM@HAOJDDFI@?4?$CDaaaaaaaaaaaaaaaaaaaaaaaaaaaaaa@ 100f58e8     bncs_cc02_qt.obj
 0002:000edd68       ??_C@_0EHM@MHDMKLPK@?4?$CDaaaaaaaaaaaaaaaaaaaaaaaaaaaaaa@ 100f5d68     bncs_cc02_qt.obj
 0002:000ee1e8       ??_C@_0EHM@JNLDBDLP@?4?$CDaaaaaaaaaaaaaaaaaaaaaaaaaaaaaa@ 100f61e8     bncs_cc02_qt.obj
 0002:000ee668       ??_C@_0EHM@KIMJGFNP@?4?$CDaaaaaaaaaaaaaaaaaaaaaaaaaaaaaa@ 100f6668     bncs_cc02_qt.obj
 0002:000eeae8       ??_C@_0EHM@DJINFOBF@?4?$CDaaaaaaaaaaaaaaaaaaaaaaaaaaaaaa@ 100f6ae8     bncs_cc02_qt.obj
 0002:000eef68       ??_C@_0EHM@MFOEDJNF@?4?$CDaaaaaaaaaaaaaaaaaaaaaaaaaaaaaa@ 100f6f68     bncs_cc02_qt.obj
 0002:000ef3e8       ??_C@_0EHM@IGDMADDJ@?4?$CDaaaaaaaaaaaaaaaaaaaaaaaaaaaaaa@ 100f73e8     bncs_cc02_qt.obj
 0002:000ef868       ??_C@_0EHM@HLBLDBEB@?4?$CDaaaaaaaaaaaaaaaaaaaaaaaaaaaaaa@ 100f7868     bncs_cc02_qt.obj
 0002:000efce8       ??_C@_0EHM@ECCENIJN@?4?$CDaaaaaaaaaaaaaaaaaaaaaaaaaaaaaa@ 100f7ce8     bncs_cc02_qt.obj
 0002:000f0168       ??_C@_0EHM@MFFCHIOO@?4?$CDaaaaaaaaaaaaaaaaaaaaaaaaaaaaaa@ 100f8168     bncs_cc02_qt.obj
 0002:000f05e8       ??_C@_0EHM@MKBCJFDK@?4?$CDaaaaaaaaaaaaaaaaaaaaaaaaaaaaaa@ 100f85e8     bncs_cc02_qt.obj
 0002:000f0a68       ??_C@_0EHM@LBFAOGHB@?4?$CDaaaaaaaaaaaaaaaaaaaaaaaaaaaaaa@ 100f8a68     bncs_cc02_qt.obj
 0002:000f0ee8       ??_C@_0EHM@OMEHMDEI@?4?$CDaaaaaaaaaaaaaaaaaaaaaaaaaaaaaa@ 100f8ee8     bncs_cc02_qt.obj
 0002:000f1368       ??_C@_0EHM@GBAFAFOO@?4?$CDaaaaaaaaaaaaaaaaaaaaaaaaaaaaaa@ 100f9368     bncs_cc02_qt.obj
 0002:000f17e8       ??_C@_0EHM@GECBEPFF@?4?$CDaaaaaaaaaaaaaaaaaaaaaaaaaaaaaa@ 100f97e8     bncs_cc02_qt.obj
 0002:000f1c68       ??_C@_0EHM@LGKDBLLB@?4?$CDaaaaaaaaaaaaaaaaaaaaaaaaaaaaaa@ 100f9c68     bncs_cc02_qt.obj
 0002:000f20e8       ??_SQPixmap@@6B@           100fa0e8     bncs_cc02_qt.obj
 0002:000f2110       ??_7bncs_cc02_qt@@6BQObject@@@ 100fa110     bncs_cc02_qt.obj
 0002:000f22c4       ??_7bncs_cc02_qt@@6BQPaintDevice@@@ 100fa2c4     bncs_cc02_qt.obj
 0002:000f22e8       ??_7?$QPtrList@VsignalConnection@@@@6B@ 100fa2e8     bncs_cc02_qt.obj
 0002:000f230c       ??_7signalConnectionRefList@@6B@ 100fa30c     bncs_cc02_qt.obj
 0002:000f232c       ??_C@_06LNOFJDNM@return?$AA@ 100fa32c     bncs_cc02_qt.obj
 0002:000f2334       ??_C@_03NFKEKGGK@all?$AA@  100fa334     bncs_cc02_qt.obj
 0002:000f2338       ??_C@_0M@GHDGKGMM@text?4?$CF1?$DN?$CF2?6?$AA@ 100fa338     bncs_cc02_qt.obj
 0002:000f2344       ??_C@_05CFMALAOA@reset?$AA@ 100fa344     bncs_cc02_qt.obj
 0002:000f234c       ??_C@_04CIMGMMMG@text?$AA@ 100fa34c     bncs_cc02_qt.obj
 0002:000f2354       ??_C@_04CLCEDBPF@time?$AA@ 100fa354     bncs_cc02_qt.obj
 0002:000f235c       ??_C@_09MJMMFOCI@text?41?$DN?$CF1?$AA@ 100fa35c     bncs_cc02_qt.obj
 0002:000f2368       ??_C@_09IOGMCEPI@text?42?$DN?$CF1?$AA@ 100fa368     bncs_cc02_qt.obj
 0002:000f2374       ??_C@_09LDAMANEI@text?43?$DN?$CF1?$AA@ 100fa374     bncs_cc02_qt.obj
 0002:000f2380       ??_C@_09BCMNBFI@text?44?$DN?$CF1?$AA@ 100fa380     bncs_cc02_qt.obj
 0002:000f238c       ??_C@_09DMEMPIOI@text?45?$DN?$CF1?$AA@ 100fa38c     bncs_cc02_qt.obj
 0002:000f2398       ??_C@_09HLOMICDI@text?46?$DN?$CF1?$AA@ 100fa398     bncs_cc02_qt.obj
 0002:000f23a4       ??_C@_01GBGANLPD@0?$AA@    100fa3a4     bncs_cc02_qt.obj
 0002:000f23a8       ??_C@_08PGMHAJHD@?1_____?$CFd?$AA@ 100fa3a8     bncs_cc02_qt.obj
 0002:000f23c0       ??_C@_0P@DMEOIADN@languageChange?$AA@ 100fa3c0     moc_bncs_cc02_edit.obj
 0002:000f23dc       ??_C@_0BB@PFEIHPGD@languageChange?$CI?$CJ?$AA@ 100fa3dc     moc_bncs_cc02_edit.obj
 0002:000f23f0       ??_C@_0BD@GKICCMGC@bncs_cc02_editImpl?$AA@ 100fa3f0     moc_bncs_cc02_editimpl.obj
 0002:000f2410       ??_C@_06OOEBKKPD@doHelp?$AA@ 100fa410     moc_bncs_cc02_editimpl.obj
 0002:000f2424       ??_C@_08HLIKJOHK@doHelp?$CI?$CJ?$AA@ 100fa424     moc_bncs_cc02_editimpl.obj
 0002:000f2430       ??_C@_0N@JAELJFHB@bncs_cc02_qt?$AA@ 100fa430     moc_bncs_cc02_qt.obj
 0002:000f2440       ??_C@_07HADGPIEN@changed?$AA@ 100fa440     moc_bncs_cc02_qt.obj
 0002:000f2448       ??_C@_01MGNCJNND@?$BC?$AA@ 100fa448     moc_bncs_cc02_qt.obj
 0002:000f244c       ??_C@_0BK@CPBEKFGO@suppressInsertEventFilter?$AA@ 100fa44c     moc_bncs_cc02_qt.obj
 0002:000f2474       ??_C@_04NABONMNG@edit?$AA@ 100fa474     moc_bncs_cc02_qt.obj
 0002:000f2488       ??_C@_0BC@HGACMCEN@edit?$CIbool?$CK?0bool?$CK?$CJ?$AA@ 100fa488     moc_bncs_cc02_qt.obj
 0002:000f24a8       ??_C@_06LIGDCBBN@notify?$AA@ 100fa4a8     moc_bncs_cc02_qt.obj
 0002:000f24bc       ??_C@_0BB@KPBBGHKF@notify?$CIQString?$CG?$CJ?$AA@ 100fa4bc     moc_bncs_cc02_qt.obj
 0002:000f24d0       ??_C@_09GFLBNKLA@22?518?58?51?$AA@ 100fa4d0     plugin.obj
 0002:000f24dc       ??_C@_0M@HONJEIHP@?5?5c?5Gray100?$AA@ 100fa4dc     plugin.obj
 0002:000f24e8       ??_C@_0L@FNMJBONI@?4?5c?5Gray97?$AA@ 100fa4e8     plugin.obj
 0002:000f24f4       ??_C@_0M@PMLHOBOM@X?5c?5?$CD4f504f?$AA@ 100fa4f4     plugin.obj
 0002:000f2500       ??_C@_0M@HIDIMALH@o?5c?5?$CD00007f?$AA@ 100fa500     plugin.obj
 0002:000f250c       ??_C@_09PGFPKLPC@O?5c?5Gray0?$AA@ 100fa50c     plugin.obj
 0002:000f2518       ??_C@_08ECFCJBIG@?$CL?5c?5none?$AA@ 100fa518     plugin.obj
 0002:000f2524       ??_C@_09HFEPAHP@?$EA?5c?5Gray0?$AA@ 100fa524     plugin.obj
 0002:000f2530       ??_C@_09DNIEEPAM@?$CD?5c?5Gray0?$AA@ 100fa530     plugin.obj
 0002:000f253c       ??_C@_0BH@JGJNLJCN@?$CL?$CL?$CL?$CL?$CL?$CL?$CL?$CL?$CL?$CL?$CL?$CL?$CL?$CL?$CL?$CL?$CL?$CL?$CL?$CL?$CL?$CL?$AA@ 100fa53c     plugin.obj
 0002:000f2554       ??_C@_0BH@LFHINKHN@?$CLOOOOOOOOOOOOOOOOOOOO?$CL?$AA@ 100fa554     plugin.obj
 0002:000f256c       ??_C@_0BH@BINLNGIL@OOXXXXXXXXXXXXXXXXXXOO?$AA@ 100fa56c     plugin.obj
 0002:000f2584       ??_C@_0BH@EFCEIPCC@OXX?4?5?5?5?5?5?5?5?5?5?5?5?5?5?5?5?5?5O?$AA@ 100fa584     plugin.obj
 0002:000f259c       ??_C@_0BH@ICCMLLEG@OX?4?5?5?5?5?5?5?5?5?5?5?5?5?5?5?5?5?5?5O?$AA@ 100fa59c     plugin.obj
 0002:000f25b4       ??_C@_0BH@IILCJGEM@OX?4?5?5?5?5?5?5?5?5?5?5?5?5?5?5?5?5?5?4O?$AA@ 100fa5b4     plugin.obj
 0002:000f25cc       ??_C@_0BH@FBODLHPG@OX?5?5?5?5?5?5?5?5?5?5?5?5?5?5?5?5?5?5?5O?$AA@ 100fa5cc     plugin.obj
 0002:000f25e4       ??_C@_0BH@GJJFJBCO@OO?4?4?4?4?4?4?4?4?4?4?4?4?4?4?4?4?4?4OO?$AA@ 100fa5e4     plugin.obj
 0002:000f2600       ??_C@_0EO@DOHHELLP@pattern?$DNQT_UCM_VERIFICATION_DATA@ 100fa600     plugin.obj
 0002:000f2654       ??_7BNCSWidgetPlugin@@6B@  100fa654     plugin.obj
 0002:000f26c4       ??_C@_04IDGPBBML@BNCS?$AA@ 100fa6c4     plugin.obj
 0002:000f26cc       ??_C@_0P@CJLGDFHC@bncs_cc02_qt?4h?$AA@ 100fa6cc     plugin.obj
 0002:000f26dc       ??_C@_0CK@NIEPEBEB@Simple?5Qt?5Plugin?5Widget?5Example?5@ 100fa6dc     plugin.obj
 0002:000f2708       ??_C@_0CO@FPDALKAB@Simple?5Qt?5Plugin?5Widget?5Example?5@ 100fa708     plugin.obj
 0002:000f2784       ??_C@_00A@?$AA@            100fa784     htmlhelp:init.obj
 0002:000f278c       ??_7type_info@@6B@         100fa78c     MSVCRT:ti_inst.obj
 0002:000f2790       __pRawDllMain              100fa790     MSVCRT:crtdll.obj
 0002:000f2790       __pDefaultRawDllMain       100fa790     MSVCRT:crtdll.obj
 0002:000f27a0       __load_config_used         100fa7a0     MSVCRT:loadcfg.obj
 0002:000f27e8       ??_R4QPushButton@@6BQObject@@@ 100fa7e8     bncs_cc02_edit.obj
 0002:000f27fc       ??_R3QPushButton@@8        100fa7fc     bncs_cc02_edit.obj
 0002:000f280c       ??_R2QPushButton@@8        100fa80c     bncs_cc02_edit.obj
 0002:000f2828       ??_R1A@?0A@EA@QPushButton@@8 100fa828     bncs_cc02_edit.obj
 0002:000f2844       ??_R1A@?0A@EA@QButton@@8   100fa844     bncs_cc02_edit.obj
 0002:000f2860       ??_R3QButton@@8            100fa860     bncs_cc02_edit.obj
 0002:000f2870       ??_R2QButton@@8            100fa870     bncs_cc02_edit.obj
 0002:000f2888       ??_R1A@?0A@EA@QWidget@@8   100fa888     bncs_cc02_edit.obj
 0002:000f28a4       ??_R3QWidget@@8            100fa8a4     bncs_cc02_edit.obj
 0002:000f28b4       ??_R2QWidget@@8            100fa8b4     bncs_cc02_edit.obj
 0002:000f28c8       ??_R1A@?0A@EA@QObject@@8   100fa8c8     bncs_cc02_edit.obj
 0002:000f28e4       ??_R3QObject@@8            100fa8e4     bncs_cc02_edit.obj
 0002:000f28f4       ??_R2QObject@@8            100fa8f4     bncs_cc02_edit.obj
 0002:000f2900       ??_R13?0A@EA@Qt@@8         100fa900     bncs_cc02_edit.obj
 0002:000f291c       ??_R3Qt@@8                 100fa91c     bncs_cc02_edit.obj
 0002:000f292c       ??_R2Qt@@8                 100fa92c     bncs_cc02_edit.obj
 0002:000f2934       ??_R1A@?0A@EA@Qt@@8        100fa934     bncs_cc02_edit.obj
 0002:000f2950       ??_R1CI@?0A@EA@QPaintDevice@@8 100fa950     bncs_cc02_edit.obj
 0002:000f296c       ??_R3QPaintDevice@@8       100fa96c     bncs_cc02_edit.obj
 0002:000f297c       ??_R2QPaintDevice@@8       100fa97c     bncs_cc02_edit.obj
 0002:000f2984       ??_R1A@?0A@EA@QPaintDevice@@8 100fa984     bncs_cc02_edit.obj
 0002:000f29a0       ??_R4QPushButton@@6BQPaintDevice@@@ 100fa9a0     bncs_cc02_edit.obj
 0002:000f29b4       ??_R4QVBoxLayout@@6BQObject@@@ 100fa9b4     bncs_cc02_edit.obj
 0002:000f29c8       ??_R3QVBoxLayout@@8        100fa9c8     bncs_cc02_edit.obj
 0002:000f29d8       ??_R2QVBoxLayout@@8        100fa9d8     bncs_cc02_edit.obj
 0002:000f29f4       ??_R1A@?0A@EA@QVBoxLayout@@8 100fa9f4     bncs_cc02_edit.obj
 0002:000f2a10       ??_R1A@?0A@EA@QBoxLayout@@8 100faa10     bncs_cc02_edit.obj
 0002:000f2a2c       ??_R3QBoxLayout@@8         100faa2c     bncs_cc02_edit.obj
 0002:000f2a3c       ??_R2QBoxLayout@@8         100faa3c     bncs_cc02_edit.obj
 0002:000f2a54       ??_R1A@?0A@EA@QLayout@@8   100faa54     bncs_cc02_edit.obj
 0002:000f2a70       ??_R3QLayout@@8            100faa70     bncs_cc02_edit.obj
 0002:000f2a80       ??_R2QLayout@@8            100faa80     bncs_cc02_edit.obj
 0002:000f2a94       ??_R1CI@?0A@EA@QLayoutItem@@8 100faa94     bncs_cc02_edit.obj
 0002:000f2ab0       ??_R3QLayoutItem@@8        100faab0     bncs_cc02_edit.obj
 0002:000f2ac0       ??_R2QLayoutItem@@8        100faac0     bncs_cc02_edit.obj
 0002:000f2ac8       ??_R1A@?0A@EA@QLayoutItem@@8 100faac8     bncs_cc02_edit.obj
 0002:000f2ae4       ??_R4QVBoxLayout@@6BQLayoutItem@@@ 100faae4     bncs_cc02_edit.obj
 0002:000f2af8       ??_R4QHBoxLayout@@6BQObject@@@ 100faaf8     bncs_cc02_edit.obj
 0002:000f2b0c       ??_R3QHBoxLayout@@8        100fab0c     bncs_cc02_edit.obj
 0002:000f2b1c       ??_R2QHBoxLayout@@8        100fab1c     bncs_cc02_edit.obj
 0002:000f2b38       ??_R1A@?0A@EA@QHBoxLayout@@8 100fab38     bncs_cc02_edit.obj
 0002:000f2b54       ??_R4QHBoxLayout@@6BQLayoutItem@@@ 100fab54     bncs_cc02_edit.obj
 0002:000f2b68       ??_R4QLabel@@6BQObject@@@  100fab68     bncs_cc02_edit.obj
 0002:000f2b7c       ??_R3QLabel@@8             100fab7c     bncs_cc02_edit.obj
 0002:000f2b8c       ??_R2QLabel@@8             100fab8c     bncs_cc02_edit.obj
 0002:000f2ba8       ??_R1A@?0A@EA@QLabel@@8    100faba8     bncs_cc02_edit.obj
 0002:000f2bc4       ??_R1A@?0A@EA@QFrame@@8    100fabc4     bncs_cc02_edit.obj
 0002:000f2be0       ??_R3QFrame@@8             100fabe0     bncs_cc02_edit.obj
 0002:000f2bf0       ??_R2QFrame@@8             100fabf0     bncs_cc02_edit.obj
 0002:000f2c08       ??_R4QLabel@@6BQPaintDevice@@@ 100fac08     bncs_cc02_edit.obj
 0002:000f2c1c       ??_R4QLineEdit@@6BQObject@@@ 100fac1c     bncs_cc02_edit.obj
 0002:000f2c30       ??_R3QLineEdit@@8          100fac30     bncs_cc02_edit.obj
 0002:000f2c40       ??_R2QLineEdit@@8          100fac40     bncs_cc02_edit.obj
 0002:000f2c5c       ??_R1A@?0A@EA@QLineEdit@@8 100fac5c     bncs_cc02_edit.obj
 0002:000f2c78       ??_R4QLineEdit@@6BQPaintDevice@@@ 100fac78     bncs_cc02_edit.obj
 0002:000f2c8c       ??_R4QFrame@@6BQObject@@@  100fac8c     bncs_cc02_edit.obj
 0002:000f2ca0       ??_R4QFrame@@6BQPaintDevice@@@ 100faca0     bncs_cc02_edit.obj
 0002:000f2cb4       ??_R4bncs_cc02_edit@@6BQObject@@@ 100facb4     bncs_cc02_edit.obj
 0002:000f2cc8       ??_R3bncs_cc02_edit@@8     100facc8     bncs_cc02_edit.obj
 0002:000f2cd8       ??_R2bncs_cc02_edit@@8     100facd8     bncs_cc02_edit.obj
 0002:000f2cf4       ??_R1A@?0A@EA@bncs_cc02_edit@@8 100facf4     bncs_cc02_edit.obj
 0002:000f2d10       ??_R1A@?0A@EA@QDialog@@8   100fad10     bncs_cc02_edit.obj
 0002:000f2d2c       ??_R3QDialog@@8            100fad2c     bncs_cc02_edit.obj
 0002:000f2d3c       ??_R2QDialog@@8            100fad3c     bncs_cc02_edit.obj
 0002:000f2d54       ??_R4bncs_cc02_edit@@6BQPaintDevice@@@ 100fad54     bncs_cc02_edit.obj
 0002:000f2d68       ??_R4QSpacerItem@@6B@      100fad68     bncs_cc02_edit.obj
 0002:000f2d7c       ??_R3QSpacerItem@@8        100fad7c     bncs_cc02_edit.obj
 0002:000f2d8c       ??_R2QSpacerItem@@8        100fad8c     bncs_cc02_edit.obj
 0002:000f2d98       ??_R1A@?0A@EA@QSpacerItem@@8 100fad98     bncs_cc02_edit.obj
 0002:000f2db4       ??_R4bncs_cc02_editImpl@@6BQObject@@@ 100fadb4     bncs_cc02_editimpl.obj
 0002:000f2dc8       ??_R3bncs_cc02_editImpl@@8 100fadc8     bncs_cc02_editimpl.obj
 0002:000f2dd8       ??_R2bncs_cc02_editImpl@@8 100fadd8     bncs_cc02_editimpl.obj
 0002:000f2df8       ??_R1A@?0A@EA@bncs_cc02_editImpl@@8 100fadf8     bncs_cc02_editimpl.obj
 0002:000f2e14       ??_R4bncs_cc02_editImpl@@6BQPaintDevice@@@ 100fae14     bncs_cc02_editimpl.obj
 0002:000f2e28       ??_R4QPixmap@@6B@          100fae28     bncs_cc02_qt.obj
 0002:000f2e3c       ??_R3QPixmap@@8            100fae3c     bncs_cc02_qt.obj
 0002:000f2e4c       ??_R2QPixmap@@8            100fae4c     bncs_cc02_qt.obj
 0002:000f2e5c       ??_R1A@?0A@EA@QPixmap@@8   100fae5c     bncs_cc02_qt.obj
 0002:000f2e78       ??_R1M@?0A@EA@Qt@@8        100fae78     bncs_cc02_qt.obj
 0002:000f2e94       ??_R1A@?0A@EA@QGList@@8    100fae94     bncs_cc02_qt.obj
 0002:000f2eb0       ??_R3QGList@@8             100faeb0     bncs_cc02_qt.obj
 0002:000f2ec0       ??_R2QGList@@8             100faec0     bncs_cc02_qt.obj
 0002:000f2ecc       ??_R1A@?0A@EA@QPtrCollection@@8 100faecc     bncs_cc02_qt.obj
 0002:000f2ee8       ??_R3QPtrCollection@@8     100faee8     bncs_cc02_qt.obj
 0002:000f2ef8       ??_R2QPtrCollection@@8     100faef8     bncs_cc02_qt.obj
 0002:000f2f00       ??_R4bncs_cc02_qt@@6BQObject@@@ 100faf00     bncs_cc02_qt.obj
 0002:000f2f14       ??_R3bncs_cc02_qt@@8       100faf14     bncs_cc02_qt.obj
 0002:000f2f24       ??_R2bncs_cc02_qt@@8       100faf24     bncs_cc02_qt.obj
 0002:000f2f3c       ??_R1A@?0A@EA@bncs_cc02_qt@@8 100faf3c     bncs_cc02_qt.obj
 0002:000f2f58       ??_R4bncs_cc02_qt@@6BQPaintDevice@@@ 100faf58     bncs_cc02_qt.obj
 0002:000f2f6c       ??_R4signalConnectionRefList@@6B@ 100faf6c     bncs_cc02_qt.obj
 0002:000f2f80       ??_R3signalConnectionRefList@@8 100faf80     bncs_cc02_qt.obj
 0002:000f2f90       ??_R2signalConnectionRefList@@8 100faf90     bncs_cc02_qt.obj
 0002:000f2fa4       ??_R1A@?0A@EA@signalConnectionRefList@@8 100fafa4     bncs_cc02_qt.obj
 0002:000f2fc0       ??_R1A@?0A@EA@?$QPtrList@VsignalConnection@@@@8 100fafc0     bncs_cc02_qt.obj
 0002:000f2fdc       ??_R3?$QPtrList@VsignalConnection@@@@8 100fafdc     bncs_cc02_qt.obj
 0002:000f2fec       ??_R2?$QPtrList@VsignalConnection@@@@8 100fafec     bncs_cc02_qt.obj
 0002:000f2ffc       ??_R4?$QPtrList@VsignalConnection@@@@6B@ 100faffc     bncs_cc02_qt.obj
 0002:000f3010       ??_R4BNCSWidgetPlugin@@6B@ 100fb010     plugin.obj
 0002:000f3024       ??_R3BNCSWidgetPlugin@@8   100fb024     plugin.obj
 0002:000f3034       ??_R2BNCSWidgetPlugin@@8   100fb034     plugin.obj
 0002:000f304c       ??_R1A@?0A@EA@BNCSWidgetPlugin@@8 100fb04c     plugin.obj
 0002:000f3068       ??_R1A@?0A@EA@QWidgetPlugin@@8 100fb068     plugin.obj
 0002:000f3084       ??_R3QWidgetPlugin@@8      100fb084     plugin.obj
 0002:000f3094       ??_R2QWidgetPlugin@@8      100fb094     plugin.obj
 0002:000f30a8       ??_R1A@?0A@EA@QGPlugin@@8  100fb0a8     plugin.obj
 0002:000f30c4       ??_R3QGPlugin@@8           100fb0c4     plugin.obj
 0002:000f30d4       ??_R2QGPlugin@@8           100fb0d4     plugin.obj
 0002:000f30e4       ??_R4type_info@@6B@        100fb0e4     MSVCRT:ti_inst.obj
 0002:000f30f8       ??_R3type_info@@8          100fb0f8     MSVCRT:ti_inst.obj
 0002:000f3108       ??_R2type_info@@8          100fb108     MSVCRT:ti_inst.obj
 0002:000f3110       ??_R1A@?0A@EA@type_info@@8 100fb110     MSVCRT:ti_inst.obj
 0002:000f312c       ___rtc_iaa                 100fb12c     MSVCRT:initsect.obj
 0002:000f3130       ___rtc_izz                 100fb130     MSVCRT:initsect.obj
 0002:000f3134       ___rtc_taa                 100fb134     MSVCRT:initsect.obj
 0002:000f3138       ___rtc_tzz                 100fb138     MSVCRT:initsect.obj
 0002:000f5434       __IMPORT_DESCRIPTOR_dcw    100fd434     dcw:dcw.dll
 0002:000f5448       __IMPORT_DESCRIPTOR_qt-mt323 100fd448     qt-mt323:qt-mt323.dll
 0002:000f545c       __IMPORT_DESCRIPTOR_KERNEL32 100fd45c     kernel32:KERNEL32.dll
 0002:000f5470       __IMPORT_DESCRIPTOR_USER32 100fd470     user32:USER32.dll
 0002:000f5484       __IMPORT_DESCRIPTOR_GDI32  100fd484     gdi32:GDI32.dll
 0002:000f5498       __IMPORT_DESCRIPTOR_ADVAPI32 100fd498     advapi32:ADVAPI32.dll
 0002:000f54ac       __IMPORT_DESCRIPTOR_MSVCR120 100fd4ac     MSVCRT:MSVCR120.dll
 0002:000f54c0       __NULL_IMPORT_DESCRIPTOR   100fd4c0     dcw:dcw.dll
 0003:00000df0       ___security_cookie         10103df0     MSVCRT:gs_cookie.obj
 0003:00000df4       ___security_cookie_complement 10103df4     MSVCRT:gs_cookie.obj
 0003:00000e00       ___native_dllmain_reason   10103e00     MSVCRT:natstart.obj
 0003:00000e04       ??_R0?AVQPushButton@@@8    10103e04     bncs_cc02_edit.obj
 0003:00000e20       ??_R0?AVQButton@@@8        10103e20     bncs_cc02_edit.obj
 0003:00000e38       ??_R0?AVQWidget@@@8        10103e38     bncs_cc02_edit.obj
 0003:00000e50       ??_R0?AVQObject@@@8        10103e50     bncs_cc02_edit.obj
 0003:00000e68       ??_R0?AVQt@@@8             10103e68     bncs_cc02_edit.obj
 0003:00000e7c       ??_R0?AVQPaintDevice@@@8   10103e7c     bncs_cc02_edit.obj
 0003:00000e98       ??_R0?AVQVBoxLayout@@@8    10103e98     bncs_cc02_edit.obj
 0003:00000eb4       ??_R0?AVQBoxLayout@@@8     10103eb4     bncs_cc02_edit.obj
 0003:00000ed0       ??_R0?AVQLayout@@@8        10103ed0     bncs_cc02_edit.obj
 0003:00000ee8       ??_R0?AVQLayoutItem@@@8    10103ee8     bncs_cc02_edit.obj
 0003:00000f04       ??_R0?AVQHBoxLayout@@@8    10103f04     bncs_cc02_edit.obj
 0003:00000f20       ??_R0?AVQLabel@@@8         10103f20     bncs_cc02_edit.obj
 0003:00000f38       ??_R0?AVQFrame@@@8         10103f38     bncs_cc02_edit.obj
 0003:00000f50       ??_R0?AVQLineEdit@@@8      10103f50     bncs_cc02_edit.obj
 0003:00000f68       ??_R0?AVbncs_cc02_edit@@@8 10103f68     bncs_cc02_edit.obj
 0003:00000f88       ??_R0?AVQDialog@@@8        10103f88     bncs_cc02_edit.obj
 0003:00000fa0       ??_R0?AVQSpacerItem@@@8    10103fa0     bncs_cc02_edit.obj
 0003:00000fbc       ??_R0?AVbncs_cc02_editImpl@@@8 10103fbc     bncs_cc02_editimpl.obj
 0003:00000fe0       ??_R0?AVQPixmap@@@8        10103fe0     bncs_cc02_qt.obj
 0003:00000ff8       ??_R0?AVQGList@@@8         10103ff8     bncs_cc02_qt.obj
 0003:00001010       ??_R0?AVQPtrCollection@@@8 10104010     bncs_cc02_qt.obj
 0003:00001030       ??_R0?AVbncs_cc02_qt@@@8   10104030     bncs_cc02_qt.obj
 0003:0000104c       ??_R0?AVsignalConnectionRefList@@@8 1010404c     bncs_cc02_qt.obj
 0003:00001074       ??_R0?AV?$QPtrList@VsignalConnection@@@@@8 10104074     bncs_cc02_qt.obj
 0003:000010a4       ??_R0?AVBNCSWidgetPlugin@@@8 101040a4     plugin.obj
 0003:000010c4       ??_R0?AVQWidgetPlugin@@@8  101040c4     plugin.obj
 0003:000010e0       ??_R0?AVQGPlugin@@@8       101040e0     plugin.obj
 0003:000010f8       ??_R0?AVtype_info@@@8      101040f8     MSVCRT:ti_inst.obj
 0003:00001110       _hLibData                  10104110     BNCS_CC02.obj
 0003:00001114       _hLibInstance              10104114     BNCS_CC02.obj
 0003:00001118       _hWndMain                  10104118     BNCS_CC02.obj
 0003:0000111c       _lf                        1010411c     BNCS_CC02.obj
 0003:0000115c       ?metaObj@bncs_cc02_edit@@0PAVQMetaObject@@A 1010415c     moc_bncs_cc02_edit.obj
 0003:00001164       ?metaObj@bncs_cc02_editImpl@@0PAVQMetaObject@@A 10104164     moc_bncs_cc02_editimpl.obj
 0003:0000116c       ?metaObj@bncs_cc02_qt@@0PAVQMetaObject@@A 1010416c     moc_bncs_cc02_qt.obj
 0003:00001198       ?pHtmlHelpW@@3P6GPAUHWND__@@PAU1@PBGIK@ZA 10104198     htmlhelp:init.obj
 0003:0000119c       ?pHtmlHelpA@@3P6GPAUHWND__@@PAU1@PBDIK@ZA 1010419c     htmlhelp:init.obj
 0003:000014c8       ?__type_info_root_node@@3U__type_info_node@@A 101044c8     MSVCRT:tncleanup.obj
 0003:000014d0       _iLastpresetY              101044d0     <common>
 0003:000014d4       _iLastpresetX              101044d4     <common>
 0003:000014d8       _iCapture                  101044d8     <common>
 0003:000014dc       _hCapture                  101044dc     <common>
 0003:000014e0       ___native_startup_lock     101044e0     <common>
 0003:000014e4       ___native_startup_state    101044e4     <common>
 0003:000014e8       ___dyn_tls_init_callback   101044e8     <common>
 0003:000014ec       ___onexitend               101044ec     <common>
 0003:000014f0       ___onexitbegin             101044f0     <common>

 entry point at        0001:000060a9

 Static symbols

 0001:000000f8       ??__EcleanUp_bncs_cc02_edit@@YAXXZ 100010f8 f   moc_bncs_cc02_edit.obj
 0001:00000119       ??__EcleanUp_bncs_cc02_editImpl@@YAXXZ 10001119 f   moc_bncs_cc02_editimpl.obj
 0001:0000013a       ??__EcleanUp_bncs_cc02_qt@@YAXXZ 1000113a f   moc_bncs_cc02_qt.obj
 0001:00001ac6       _GetMemLongValue           10002ac6 f   CC_SUFU.obj
 0001:00001ac6       _GetMemLongValue           10002ac6 f   CC_SUFU.obj
 0001:00001ac6       _GetMemLongValue           10002ac6 f   CC_SUFU.obj
 0001:00001b13       _SetMemLongValue           10002b13 f   CC_SUFU.obj
 0001:00001b13       _SetMemLongValue           10002b13 f   CC_SUFU.obj
 0001:00001b13       _SetMemLongValue           10002b13 f   CC_SUFU.obj
 0001:00002c09       $LN22                      10003c09     Cc_sufu_common.obj
 0001:00002cd5       $LN23                      10003cd5     Cc_sufu_common.obj
 0001:00002da1       $LN23                      10003da1     Cc_sufu_common.obj
 0001:00005e66       _pre_c_init                10006e66 f   MSVCRT:crtdll.obj
 0001:000060cc       ___DllMainCRTStartup       100070cc f   MSVCRT:crtdll.obj
 0001:00006340       $$000000                   10007340     MSVCRT:sehprolg4.obj
 0001:0000663a       __unwindfunclet$??0bncs_cc02_edit@@QAE@PAVQWidget@@PBD_NI@Z$0 1000763a f   bncs_cc02_edit.obj
 0001:00006643       __unwindfunclet$??0bncs_cc02_edit@@QAE@PAVQWidget@@PBD_NI@Z$1 10007643 f   bncs_cc02_edit.obj
 0001:00006652       __unwindfunclet$??0bncs_cc02_edit@@QAE@PAVQWidget@@PBD_NI@Z$2 10007652 f   bncs_cc02_edit.obj
 0001:0000665c       __unwindfunclet$??0bncs_cc02_edit@@QAE@PAVQWidget@@PBD_NI@Z$3 1000765c f   bncs_cc02_edit.obj
 0001:00006666       __unwindfunclet$??0bncs_cc02_edit@@QAE@PAVQWidget@@PBD_NI@Z$4 10007666 f   bncs_cc02_edit.obj
 0001:00006670       __unwindfunclet$??0bncs_cc02_edit@@QAE@PAVQWidget@@PBD_NI@Z$5 10007670 f   bncs_cc02_edit.obj
 0001:0000667a       __unwindfunclet$??0bncs_cc02_edit@@QAE@PAVQWidget@@PBD_NI@Z$6 1000767a f   bncs_cc02_edit.obj
 0001:00006684       __unwindfunclet$??0bncs_cc02_edit@@QAE@PAVQWidget@@PBD_NI@Z$7 10007684 f   bncs_cc02_edit.obj
 0001:0000668e       __unwindfunclet$??0bncs_cc02_edit@@QAE@PAVQWidget@@PBD_NI@Z$8 1000768e f   bncs_cc02_edit.obj
 0001:00006698       __unwindfunclet$??0bncs_cc02_edit@@QAE@PAVQWidget@@PBD_NI@Z$9 10007698 f   bncs_cc02_edit.obj
 0001:000066a2       __unwindfunclet$??0bncs_cc02_edit@@QAE@PAVQWidget@@PBD_NI@Z$10 100076a2 f   bncs_cc02_edit.obj
 0001:000066ac       __unwindfunclet$??0bncs_cc02_edit@@QAE@PAVQWidget@@PBD_NI@Z$11 100076ac f   bncs_cc02_edit.obj
 0001:000066b6       __unwindfunclet$??0bncs_cc02_edit@@QAE@PAVQWidget@@PBD_NI@Z$12 100076b6 f   bncs_cc02_edit.obj
 0001:000066c0       __unwindfunclet$??0bncs_cc02_edit@@QAE@PAVQWidget@@PBD_NI@Z$13 100076c0 f   bncs_cc02_edit.obj
 0001:000066ca       __unwindfunclet$??0bncs_cc02_edit@@QAE@PAVQWidget@@PBD_NI@Z$14 100076ca f   bncs_cc02_edit.obj
 0001:000066d4       __unwindfunclet$??0bncs_cc02_edit@@QAE@PAVQWidget@@PBD_NI@Z$15 100076d4 f   bncs_cc02_edit.obj
 0001:000066de       __unwindfunclet$??0bncs_cc02_edit@@QAE@PAVQWidget@@PBD_NI@Z$16 100076de f   bncs_cc02_edit.obj
 0001:000066e8       __unwindfunclet$??0bncs_cc02_edit@@QAE@PAVQWidget@@PBD_NI@Z$17 100076e8 f   bncs_cc02_edit.obj
 0001:000066f2       __unwindfunclet$??0bncs_cc02_edit@@QAE@PAVQWidget@@PBD_NI@Z$18 100076f2 f   bncs_cc02_edit.obj
 0001:000066fc       __unwindfunclet$??0bncs_cc02_edit@@QAE@PAVQWidget@@PBD_NI@Z$19 100076fc f   bncs_cc02_edit.obj
 0001:00006706       __unwindfunclet$??0bncs_cc02_edit@@QAE@PAVQWidget@@PBD_NI@Z$20 10007706 f   bncs_cc02_edit.obj
 0001:00006710       __unwindfunclet$??0bncs_cc02_edit@@QAE@PAVQWidget@@PBD_NI@Z$21 10007710 f   bncs_cc02_edit.obj
 0001:0000671a       __ehhandler$??0bncs_cc02_edit@@QAE@PAVQWidget@@PBD_NI@Z 1000771a f   bncs_cc02_edit.obj
 0001:00006735       __unwindfunclet$??1bncs_cc02_edit@@UAE@XZ$0 10007735 f   bncs_cc02_edit.obj
 0001:0000673e       __ehhandler$??1bncs_cc02_edit@@UAE@XZ 1000773e f   bncs_cc02_edit.obj
 0001:00006759       __unwindfunclet$?languageChange@bncs_cc02_edit@@MAEXXZ$0 10007759 f   bncs_cc02_edit.obj
 0001:00006762       __unwindfunclet$?languageChange@bncs_cc02_edit@@MAEXXZ$1 10007762 f   bncs_cc02_edit.obj
 0001:0000676b       __unwindfunclet$?languageChange@bncs_cc02_edit@@MAEXXZ$2 1000776b f   bncs_cc02_edit.obj
 0001:00006774       __unwindfunclet$?languageChange@bncs_cc02_edit@@MAEXXZ$3 10007774 f   bncs_cc02_edit.obj
 0001:0000677d       __unwindfunclet$?languageChange@bncs_cc02_edit@@MAEXXZ$4 1000777d f   bncs_cc02_edit.obj
 0001:00006786       __unwindfunclet$?languageChange@bncs_cc02_edit@@MAEXXZ$5 10007786 f   bncs_cc02_edit.obj
 0001:0000678f       __unwindfunclet$?languageChange@bncs_cc02_edit@@MAEXXZ$6 1000778f f   bncs_cc02_edit.obj
 0001:00006798       __unwindfunclet$?languageChange@bncs_cc02_edit@@MAEXXZ$7 10007798 f   bncs_cc02_edit.obj
 0001:000067a1       __unwindfunclet$?languageChange@bncs_cc02_edit@@MAEXXZ$8 100077a1 f   bncs_cc02_edit.obj
 0001:000067aa       __ehhandler$?languageChange@bncs_cc02_edit@@MAEXXZ 100077aa f   bncs_cc02_edit.obj
 0001:000067c5       __unwindfunclet$??0bncs_cc02_editImpl@@QAE@PAVQWidget@@PBD_NI@Z$0 100077c5 f   bncs_cc02_editimpl.obj
 0001:000067cd       __ehhandler$??0bncs_cc02_editImpl@@QAE@PAVQWidget@@PBD_NI@Z 100077cd f   bncs_cc02_editimpl.obj
 0001:000067e8       __unwindfunclet$?doHelp@bncs_cc02_editImpl@@AAEXXZ$0 100077e8 f   bncs_cc02_editimpl.obj
 0001:000067f1       __unwindfunclet$?doHelp@bncs_cc02_editImpl@@AAEXXZ$1 100077f1 f   bncs_cc02_editimpl.obj
 0001:000067fa       __unwindfunclet$?doHelp@bncs_cc02_editImpl@@AAEXXZ$2 100077fa f   bncs_cc02_editimpl.obj
 0001:00006803       __unwindfunclet$?doHelp@bncs_cc02_editImpl@@AAEXXZ$3 10007803 f   bncs_cc02_editimpl.obj
 0001:0000680c       __unwindfunclet$?doHelp@bncs_cc02_editImpl@@AAEXXZ$4 1000780c f   bncs_cc02_editimpl.obj
 0001:00006815       __unwindfunclet$?doHelp@bncs_cc02_editImpl@@AAEXXZ$5 10007815 f   bncs_cc02_editimpl.obj
 0001:0000681e       __unwindfunclet$?doHelp@bncs_cc02_editImpl@@AAEXXZ$6 1000781e f   bncs_cc02_editimpl.obj
 0001:00006827       __unwindfunclet$?doHelp@bncs_cc02_editImpl@@AAEXXZ$7 10007827 f   bncs_cc02_editimpl.obj
 0001:00006830       __unwindfunclet$?doHelp@bncs_cc02_editImpl@@AAEXXZ$8 10007830 f   bncs_cc02_editimpl.obj
 0001:00006839       __unwindfunclet$?doHelp@bncs_cc02_editImpl@@AAEXXZ$9 10007839 f   bncs_cc02_editimpl.obj
 0001:00006842       __unwindfunclet$?doHelp@bncs_cc02_editImpl@@AAEXXZ$10 10007842 f   bncs_cc02_editimpl.obj
 0001:0000684b       __ehhandler$?doHelp@bncs_cc02_editImpl@@AAEXXZ 1000784b f   bncs_cc02_editimpl.obj
 0001:00006866       __unwindfunclet$??0bncs_cc02_qt@@QAE@ABV0@@Z$0 10007866 f   bncs_cc02_qt.obj
 0001:0000686f       __ehhandler$??0bncs_cc02_qt@@QAE@ABV0@@Z 1000786f f   bncs_cc02_qt.obj
 0001:0000688a       __unwindfunclet$??0bncs_cc02_qt@@QAE@PAVQWidget@@PBD@Z$0 1000788a f   bncs_cc02_qt.obj
 0001:00006893       __unwindfunclet$??0bncs_cc02_qt@@QAE@PAVQWidget@@PBD@Z$1 10007893 f   bncs_cc02_qt.obj
 0001:000068aa       __unwindfunclet$??0bncs_cc02_qt@@QAE@PAVQWidget@@PBD@Z$2 100078aa f   bncs_cc02_qt.obj
 0001:000068b4       __ehhandler$??0bncs_cc02_qt@@QAE@PAVQWidget@@PBD@Z 100078b4 f   bncs_cc02_qt.obj
 0001:000068cf       __unwindfunclet$??0signalConnection@@QAE@ABV0@@Z$0 100078cf f   bncs_cc02_qt.obj
 0001:000068cf       __unwindfunclet$??1signalConnection@@QAE@XZ$0 100078cf f   bncs_cc02_qt.obj
 0001:000068d8       __unwindfunclet$??0signalConnection@@QAE@ABV0@@Z$1 100078d8 f   bncs_cc02_qt.obj
 0001:000068d8       __unwindfunclet$??1signalConnection@@QAE@XZ$1 100078d8 f   bncs_cc02_qt.obj
 0001:000068e4       __unwindfunclet$??1signalConnection@@QAE@XZ$2 100078e4 f   bncs_cc02_qt.obj
 0001:000068e4       __unwindfunclet$??0signalConnection@@QAE@ABV0@@Z$2 100078e4 f   bncs_cc02_qt.obj
 0001:000068f0       __unwindfunclet$??0signalConnection@@QAE@ABV0@@Z$3 100078f0 f   bncs_cc02_qt.obj
 0001:000068f0       __unwindfunclet$??1signalConnection@@QAE@XZ$3 100078f0 f   bncs_cc02_qt.obj
 0001:000068fc       __ehhandler$??1signalConnection@@QAE@XZ 100078fc f   bncs_cc02_qt.obj
 0001:000068fc       __ehhandler$??0signalConnection@@QAE@ABV0@@Z 100078fc f   bncs_cc02_qt.obj
 0001:00006917       __unwindfunclet$??0signalConnection@@QAE@ABVQString@@0000@Z$0 10007917 f   bncs_cc02_qt.obj
 0001:00006920       __unwindfunclet$??0signalConnection@@QAE@ABVQString@@0000@Z$1 10007920 f   bncs_cc02_qt.obj
 0001:0000692c       __unwindfunclet$??0signalConnection@@QAE@ABVQString@@0000@Z$2 1000792c f   bncs_cc02_qt.obj
 0001:00006938       __unwindfunclet$??0signalConnection@@QAE@ABVQString@@0000@Z$3 10007938 f   bncs_cc02_qt.obj
 0001:00006944       __unwindfunclet$??0signalConnection@@QAE@ABVQString@@0000@Z$4 10007944 f   bncs_cc02_qt.obj
 0001:00006950       __ehhandler$??0signalConnection@@QAE@ABVQString@@0000@Z 10007950 f   bncs_cc02_qt.obj
 0001:0000696b       __unwindfunclet$??1?$QPtrList@VsignalConnection@@@@UAE@XZ$0 1000796b f   bncs_cc02_qt.obj
 0001:00006974       __ehhandler$??1?$QPtrList@VsignalConnection@@@@UAE@XZ 10007974 f   bncs_cc02_qt.obj
 0001:0000698f       __unwindfunclet$??1bncs_cc02_qt@@UAE@XZ$0 1000798f f   bncs_cc02_qt.obj
 0001:00006998       __unwindfunclet$??1bncs_cc02_qt@@UAE@XZ$1 10007998 f   bncs_cc02_qt.obj
 0001:000069af       __ehhandler$??1bncs_cc02_qt@@UAE@XZ 100079af f   bncs_cc02_qt.obj
 0001:000069ca       __unwindfunclet$??1signalConnectionRefList@@UAE@XZ$0 100079ca f   bncs_cc02_qt.obj
 0001:000069d2       __ehhandler$??1signalConnectionRefList@@UAE@XZ 100079d2 f   bncs_cc02_qt.obj
 0001:000069ed       __unwindfunclet$?edit@bncs_cc02_qt@@QAEXPA_N0@Z$0 100079ed f   bncs_cc02_qt.obj
 0001:000069f8       __unwindfunclet$?edit@bncs_cc02_qt@@QAEXPA_N0@Z$1 100079f8 f   bncs_cc02_qt.obj
 0001:00006a01       __unwindfunclet$?edit@bncs_cc02_qt@@QAEXPA_N0@Z$2 10007a01 f   bncs_cc02_qt.obj
 0001:00006a0a       __unwindfunclet$?edit@bncs_cc02_qt@@QAEXPA_N0@Z$3 10007a0a f   bncs_cc02_qt.obj
 0001:00006a13       __unwindfunclet$?edit@bncs_cc02_qt@@QAEXPA_N0@Z$4 10007a13 f   bncs_cc02_qt.obj
 0001:00006a1c       __unwindfunclet$?edit@bncs_cc02_qt@@QAEXPA_N0@Z$5 10007a1c f   bncs_cc02_qt.obj
 0001:00006a25       __unwindfunclet$?edit@bncs_cc02_qt@@QAEXPA_N0@Z$6 10007a25 f   bncs_cc02_qt.obj
 0001:00006a2e       __unwindfunclet$?edit@bncs_cc02_qt@@QAEXPA_N0@Z$7 10007a2e f   bncs_cc02_qt.obj
 0001:00006a37       __unwindfunclet$?edit@bncs_cc02_qt@@QAEXPA_N0@Z$8 10007a37 f   bncs_cc02_qt.obj
 0001:00006a40       __unwindfunclet$?edit@bncs_cc02_qt@@QAEXPA_N0@Z$9 10007a40 f   bncs_cc02_qt.obj
 0001:00006a49       __unwindfunclet$?edit@bncs_cc02_qt@@QAEXPA_N0@Z$10 10007a49 f   bncs_cc02_qt.obj
 0001:00006a52       __unwindfunclet$?edit@bncs_cc02_qt@@QAEXPA_N0@Z$11 10007a52 f   bncs_cc02_qt.obj
 0001:00006a5b       __unwindfunclet$?edit@bncs_cc02_qt@@QAEXPA_N0@Z$12 10007a5b f   bncs_cc02_qt.obj
 0001:00006a64       __unwindfunclet$?edit@bncs_cc02_qt@@QAEXPA_N0@Z$13 10007a64 f   bncs_cc02_qt.obj
 0001:00006a6d       __unwindfunclet$?edit@bncs_cc02_qt@@QAEXPA_N0@Z$14 10007a6d f   bncs_cc02_qt.obj
 0001:00006a76       __unwindfunclet$?edit@bncs_cc02_qt@@QAEXPA_N0@Z$15 10007a76 f   bncs_cc02_qt.obj
 0001:00006a7f       __unwindfunclet$?edit@bncs_cc02_qt@@QAEXPA_N0@Z$16 10007a7f f   bncs_cc02_qt.obj
 0001:00006a88       __unwindfunclet$?edit@bncs_cc02_qt@@QAEXPA_N0@Z$17 10007a88 f   bncs_cc02_qt.obj
 0001:00006a91       __unwindfunclet$?edit@bncs_cc02_qt@@QAEXPA_N0@Z$18 10007a91 f   bncs_cc02_qt.obj
 0001:00006a9a       __unwindfunclet$?edit@bncs_cc02_qt@@QAEXPA_N0@Z$19 10007a9a f   bncs_cc02_qt.obj
 0001:00006aa3       __unwindfunclet$?edit@bncs_cc02_qt@@QAEXPA_N0@Z$20 10007aa3 f   bncs_cc02_qt.obj
 0001:00006aac       __ehhandler$?edit@bncs_cc02_qt@@QAEXPA_N0@Z 10007aac f   bncs_cc02_qt.obj
 0001:00006aca       __unwindfunclet$?paintEvent@bncs_cc02_qt@@MAEXPAVQPaintEvent@@@Z$0 10007aca f   bncs_cc02_qt.obj
 0001:00006ad6       __ehhandler$?paintEvent@bncs_cc02_qt@@MAEXPAVQPaintEvent@@@Z 10007ad6 f   bncs_cc02_qt.obj
 0001:00006af4       __unwindfunclet$?setCaption@bncs_cc02_qt@@UAEXABVQString@@@Z$0 10007af4 f   bncs_cc02_qt.obj
 0001:00006aff       __unwindfunclet$?setCaption@bncs_cc02_qt@@UAEXABVQString@@@Z$1 10007aff f   bncs_cc02_qt.obj
 0001:00006b08       __unwindfunclet$?setCaption@bncs_cc02_qt@@UAEXABVQString@@@Z$2 10007b08 f   bncs_cc02_qt.obj
 0001:00006b11       __unwindfunclet$?setCaption@bncs_cc02_qt@@UAEXABVQString@@@Z$3 10007b11 f   bncs_cc02_qt.obj
 0001:00006b1a       __unwindfunclet$?setCaption@bncs_cc02_qt@@UAEXABVQString@@@Z$4 10007b1a f   bncs_cc02_qt.obj
 0001:00006b23       __ehhandler$?setCaption@bncs_cc02_qt@@UAEXABVQString@@@Z 10007b23 f   bncs_cc02_qt.obj
 0001:00006b41       __unwindfunclet$?notify@bncs_cc02_qt@@IAEXAAVQString@@@Z$0 10007b41 f   moc_bncs_cc02_qt.obj
 0001:00006b55       __ehhandler$?notify@bncs_cc02_qt@@IAEXAAVQString@@@Z 10007b55 f   moc_bncs_cc02_qt.obj
 0001:00006b7a       __unwindfunclet$?create@BNCSWidgetPlugin@@UAEPAVQWidget@@ABVQString@@PAV2@PBD@Z$0 10007b7a f   plugin.obj
 0001:00006b84       __ehhandler$?create@BNCSWidgetPlugin@@UAEPAVQWidget@@ABVQString@@PAV2@PBD@Z 10007b84 f   plugin.obj
 0001:00006b9f       __unwindfunclet$?iconSet@BNCSWidgetPlugin@@UBE?AVQIconSet@@ABVQString@@@Z$0 10007b9f f   plugin.obj
 0001:00006ba8       __ehhandler$?iconSet@BNCSWidgetPlugin@@UBE?AVQIconSet@@ABVQString@@@Z 10007ba8 f   plugin.obj
 0001:00006bc3       __unwindfunclet$?keys@BNCSWidgetPlugin@@UBE?AVQStringList@@XZ$0 10007bc3 f   plugin.obj
 0001:00006bdd       __unwindfunclet$?keys@BNCSWidgetPlugin@@UBE?AVQStringList@@XZ$1 10007bdd f   plugin.obj
 0001:00006be6       __ehhandler$?keys@BNCSWidgetPlugin@@UBE?AVQStringList@@XZ 10007be6 f   plugin.obj
 0001:00006c01       ??__FcleanUp_bncs_cc02_edit@@YAXXZ 10007c01 f   moc_bncs_cc02_edit.obj
 0001:00006c0c       ??__FcleanUp_bncs_cc02_editImpl@@YAXXZ 10007c0c f   moc_bncs_cc02_editimpl.obj
 0001:00006c17       ??__FcleanUp_bncs_cc02_qt@@YAXXZ 10007c17 f   moc_bncs_cc02_qt.obj
 0002:00000868       _cleanUp_bncs_cc02_edit$initializer$ 10008868     moc_bncs_cc02_edit.obj
 0002:0000086c       _cleanUp_bncs_cc02_editImpl$initializer$ 1000886c     moc_bncs_cc02_editimpl.obj
 0002:00000870       _cleanUp_bncs_cc02_qt$initializer$ 10008870     moc_bncs_cc02_qt.obj
 0002:0000087c       _pcinit                    1000887c     MSVCRT:crtdll.obj
 0002:00000880       _pinit                     10008880     MSVCRT:atonexit.obj
 0002:000028a8       _MessageTypeNames          1000a8a8     Cc_sufu_common.obj
 0002:0002e5d0       _image0_data               100365d0     bncs_cc02_edit.obj
 0002:000f23b4       ?slot_0@?3??staticMetaObject@bncs_cc02_edit@@SAPAVQMetaObject@@XZ@4UQUMethod@@B 100fa3b4     moc_bncs_cc02_edit.obj
 0002:000f23d0       ?slot_tbl@?3??staticMetaObject@bncs_cc02_edit@@SAPAVQMetaObject@@XZ@4QBUQMetaData@@B 100fa3d0     moc_bncs_cc02_edit.obj
 0002:000f2404       ?slot_0@?3??staticMetaObject@bncs_cc02_editImpl@@SAPAVQMetaObject@@XZ@4UQUMethod@@B 100fa404     moc_bncs_cc02_editimpl.obj
 0002:000f2418       ?slot_tbl@?3??staticMetaObject@bncs_cc02_editImpl@@SAPAVQMetaObject@@XZ@4QBUQMetaData@@B 100fa418     moc_bncs_cc02_editimpl.obj
 0002:000f2468       ?slot_0@?3??staticMetaObject@bncs_cc02_qt@@SAPAVQMetaObject@@XZ@4UQUMethod@@B 100fa468     moc_bncs_cc02_qt.obj
 0002:000f247c       ?slot_tbl@?3??staticMetaObject@bncs_cc02_qt@@SAPAVQMetaObject@@XZ@4QBUQMetaData@@B 100fa47c     moc_bncs_cc02_qt.obj
 0002:000f249c       ?signal_0@?3??staticMetaObject@bncs_cc02_qt@@SAPAVQMetaObject@@XZ@4UQUMethod@@B 100fa49c     moc_bncs_cc02_qt.obj
 0002:000f24b0       ?signal_tbl@?3??staticMetaObject@bncs_cc02_qt@@SAPAVQMetaObject@@XZ@4QBUQMetaData@@B 100fa4b0     moc_bncs_cc02_qt.obj
 0002:000f2738       _txtHHCtrl$S28268          100fa738     htmlhelp:init.obj
 0002:000f2748       _txtInProc$S28269          100fa748     htmlhelp:init.obj
 0002:000f2794       _GS_ExceptionPointers      100fa794     MSVCRT:gs_report.obj
 0002:000f3140       __ehfuncinfo$??0bncs_cc02_edit@@QAE@PAVQWidget@@PBD_NI@Z 100fb140     bncs_cc02_edit.obj
 0002:000f3164       __unwindtable$??0bncs_cc02_edit@@QAE@PAVQWidget@@PBD_NI@Z 100fb164     bncs_cc02_edit.obj
 0002:000f3214       __unwindtable$??1bncs_cc02_edit@@UAE@XZ 100fb214     bncs_cc02_edit.obj
 0002:000f321c       __ehfuncinfo$??1bncs_cc02_edit@@UAE@XZ 100fb21c     bncs_cc02_edit.obj
 0002:000f3240       __ehfuncinfo$?languageChange@bncs_cc02_edit@@MAEXXZ 100fb240     bncs_cc02_edit.obj
 0002:000f3264       __unwindtable$?languageChange@bncs_cc02_edit@@MAEXXZ 100fb264     bncs_cc02_edit.obj
 0002:000f32ac       __unwindtable$??0bncs_cc02_editImpl@@QAE@PAVQWidget@@PBD_NI@Z 100fb2ac     bncs_cc02_editimpl.obj
 0002:000f32b4       __ehfuncinfo$??0bncs_cc02_editImpl@@QAE@PAVQWidget@@PBD_NI@Z 100fb2b4     bncs_cc02_editimpl.obj
 0002:000f32d8       __ehfuncinfo$?doHelp@bncs_cc02_editImpl@@AAEXXZ 100fb2d8     bncs_cc02_editimpl.obj
 0002:000f32fc       __unwindtable$?doHelp@bncs_cc02_editImpl@@AAEXXZ 100fb2fc     bncs_cc02_editimpl.obj
 0002:000f3374       __unwindtable$??0bncs_cc02_qt@@QAE@PAVQWidget@@PBD@Z 100fb374     bncs_cc02_qt.obj
 0002:000f338c       __ehfuncinfo$??0bncs_cc02_qt@@QAE@PAVQWidget@@PBD@Z 100fb38c     bncs_cc02_qt.obj
 0002:000f33b0       __unwindtable$??1bncs_cc02_qt@@UAE@XZ 100fb3b0     bncs_cc02_qt.obj
 0002:000f33c0       __ehfuncinfo$??1bncs_cc02_qt@@UAE@XZ 100fb3c0     bncs_cc02_qt.obj
 0002:000f33e4       __ehfuncinfo$?setCaption@bncs_cc02_qt@@UAEXABVQString@@@Z 100fb3e4     bncs_cc02_qt.obj
 0002:000f3408       __unwindtable$?setCaption@bncs_cc02_qt@@UAEXABVQString@@@Z 100fb408     bncs_cc02_qt.obj
 0002:000f3430       __unwindtable$?paintEvent@bncs_cc02_qt@@MAEXPAVQPaintEvent@@@Z 100fb430     bncs_cc02_qt.obj
 0002:000f3438       __ehfuncinfo$?paintEvent@bncs_cc02_qt@@MAEXPAVQPaintEvent@@@Z 100fb438     bncs_cc02_qt.obj
 0002:000f345c       __ehfuncinfo$?edit@bncs_cc02_qt@@QAEXPA_N0@Z 100fb45c     bncs_cc02_qt.obj
 0002:000f3480       __unwindtable$?edit@bncs_cc02_qt@@QAEXPA_N0@Z 100fb480     bncs_cc02_qt.obj
 0002:000f3528       __unwindtable$??0bncs_cc02_qt@@QAE@ABV0@@Z 100fb528     bncs_cc02_qt.obj
 0002:000f3530       __ehfuncinfo$??0bncs_cc02_qt@@QAE@ABV0@@Z 100fb530     bncs_cc02_qt.obj
 0002:000f3554       __ehfuncinfo$??0signalConnection@@QAE@ABVQString@@0000@Z 100fb554     bncs_cc02_qt.obj
 0002:000f3578       __unwindtable$??0signalConnection@@QAE@ABVQString@@0000@Z 100fb578     bncs_cc02_qt.obj
 0002:000f35a0       __unwindtable$??0signalConnection@@QAE@ABV0@@Z 100fb5a0     bncs_cc02_qt.obj
 0002:000f35a0       __unwindtable$??1signalConnection@@QAE@XZ 100fb5a0     bncs_cc02_qt.obj
 0002:000f35c0       __ehfuncinfo$??0signalConnection@@QAE@ABV0@@Z 100fb5c0     bncs_cc02_qt.obj
 0002:000f35c0       __ehfuncinfo$??1signalConnection@@QAE@XZ 100fb5c0     bncs_cc02_qt.obj
 0002:000f35e4       __unwindtable$??1?$QPtrList@VsignalConnection@@@@UAE@XZ 100fb5e4     bncs_cc02_qt.obj
 0002:000f35ec       __ehfuncinfo$??1?$QPtrList@VsignalConnection@@@@UAE@XZ 100fb5ec     bncs_cc02_qt.obj
 0002:000f3610       __unwindtable$??1signalConnectionRefList@@UAE@XZ 100fb610     bncs_cc02_qt.obj
 0002:000f3618       __ehfuncinfo$??1signalConnectionRefList@@UAE@XZ 100fb618     bncs_cc02_qt.obj
 0002:000f363c       __unwindtable$?notify@bncs_cc02_qt@@IAEXAAVQString@@@Z 100fb63c     moc_bncs_cc02_qt.obj
 0002:000f3644       __ehfuncinfo$?notify@bncs_cc02_qt@@IAEXAAVQString@@@Z 100fb644     moc_bncs_cc02_qt.obj
 0002:000f3668       __unwindtable$?keys@BNCSWidgetPlugin@@UBE?AVQStringList@@XZ 100fb668     plugin.obj
 0002:000f3678       __ehfuncinfo$?keys@BNCSWidgetPlugin@@UBE?AVQStringList@@XZ 100fb678     plugin.obj
 0002:000f369c       __unwindtable$?create@BNCSWidgetPlugin@@UAEPAVQWidget@@ABVQString@@PAV2@PBD@Z 100fb69c     plugin.obj
 0002:000f36a4       __ehfuncinfo$?create@BNCSWidgetPlugin@@UAEPAVQWidget@@ABVQString@@PAV2@PBD@Z 100fb6a4     plugin.obj
 0002:000f36c8       __unwindtable$?iconSet@BNCSWidgetPlugin@@UBE?AVQIconSet@@ABVQString@@@Z 100fb6c8     plugin.obj
 0002:000f36d0       __ehfuncinfo$?iconSet@BNCSWidgetPlugin@@UBE?AVQIconSet@@ABVQString@@@Z 100fb6d0     plugin.obj
 0002:000f36f8       __sehtable$??_L@YGXPAXIHP6EX0@Z1@Z 100fb6f8     MSVCRT:ehvecctr.obj
 0002:000f3718       __sehtable$??__C@YGXPAX0IHP6EX00@ZP6EX0@Z@Z 100fb718     MSVCRT:ehvccctr.obj
 0002:000f3738       __sehtable$??_M@YGXPAXIHP6EX0@Z@Z 100fb738     MSVCRT:ehvecdtr.obj
 0002:000f3758       __sehtable$?__ArrayUnwind@@YGXPAXIHP6EX0@Z@Z 100fb758     MSVCRT:ehvecdtr.obj
 0002:000f3778       __sehtable$__onexit        100fb778     MSVCRT:atonexit.obj
 0002:000f3798       __sehtable$___DllMainCRTStartup 100fb798     MSVCRT:crtdll.obj
 0002:000f37c0       __sehtable$__IsNonwritableInCurrentImage 100fb7c0     MSVCRT:pesect.obj
 0002:000f37e0       .edata                     100fb7e0     bncs_cc02.exp
 0002:000f3808       rgpv                       100fb808     bncs_cc02.exp
 0002:000f39c0       rgszName                   100fb9c0     bncs_cc02.exp
 0002:000f3b78       rgwOrd                     100fbb78     bncs_cc02.exp
 0002:000f3c54       szName                     100fbc54     bncs_cc02.exp
 0002:000f3c62       $N00001                    100fbc62     bncs_cc02.exp
 0002:000f3c91       $N00002                    100fbc91     bncs_cc02.exp
 0002:000f3cbb       $N00003                    100fbcbb     bncs_cc02.exp
 0002:000f3cf2       $N00004                    100fbcf2     bncs_cc02.exp
 0002:000f3d47       $N00005                    100fbd47     bncs_cc02.exp
 0002:000f3d64       $N00006                    100fbd64     bncs_cc02.exp
 0002:000f3d8b       $N00007                    100fbd8b     bncs_cc02.exp
 0002:000f3dac       $N00008                    100fbdac     bncs_cc02.exp
 0002:000f3dd8       $N00009                    100fbdd8     bncs_cc02.exp
 0002:000f3e00       $N00010                    100fbe00     bncs_cc02.exp
 0002:000f3e23       $N00011                    100fbe23     bncs_cc02.exp
 0002:000f3e4d       $N00012                    100fbe4d     bncs_cc02.exp
 0002:000f3e8e       $N00013                    100fbe8e     bncs_cc02.exp
 0002:000f3eb8       $N00014                    100fbeb8     bncs_cc02.exp
 0002:000f3eea       $N00015                    100fbeea     bncs_cc02.exp
 0002:000f3f02       $N00016                    100fbf02     bncs_cc02.exp
 0002:000f3f1e       $N00017                    100fbf1e     bncs_cc02.exp
 0002:000f3f41       $N00018                    100fbf41     bncs_cc02.exp
 0002:000f3f66       $N00019                    100fbf66     bncs_cc02.exp
 0002:000f3f99       $N00020                    100fbf99     bncs_cc02.exp
 0002:000f3fd4       $N00021                    100fbfd4     bncs_cc02.exp
 0002:000f3ff5       $N00022                    100fbff5     bncs_cc02.exp
 0002:000f401a       $N00023                    100fc01a     bncs_cc02.exp
 0002:000f4046       $N00024                    100fc046     bncs_cc02.exp
 0002:000f4074       $N00025                    100fc074     bncs_cc02.exp
 0002:000f40a4       $N00026                    100fc0a4     bncs_cc02.exp
 0002:000f40d4       $N00027                    100fc0d4     bncs_cc02.exp
 0002:000f411a       $N00028                    100fc11a     bncs_cc02.exp
 0002:000f4160       $N00029                    100fc160     bncs_cc02.exp
 0002:000f41a6       $N00030                    100fc1a6     bncs_cc02.exp
 0002:000f41ec       $N00031                    100fc1ec     bncs_cc02.exp
 0002:000f4232       $N00032                    100fc232     bncs_cc02.exp
 0002:000f4279       $N00033                    100fc279     bncs_cc02.exp
 0002:000f42c0       $N00034                    100fc2c0     bncs_cc02.exp
 0002:000f42e8       $N00035                    100fc2e8     bncs_cc02.exp
 0002:000f4307       $N00036                    100fc307     bncs_cc02.exp
 0002:000f432b       $N00037                    100fc32b     bncs_cc02.exp
 0002:000f434c       $N00038                    100fc34c     bncs_cc02.exp
 0002:000f4365       $N00039                    100fc365     bncs_cc02.exp
 0002:000f43a9       $N00040                    100fc3a9     bncs_cc02.exp
 0002:000f43e9       $N00041                    100fc3e9     bncs_cc02.exp
 0002:000f4414       $N00042                    100fc414     bncs_cc02.exp
 0002:000f444d       $N00043                    100fc44d     bncs_cc02.exp
 0002:000f4485       $N00044                    100fc485     bncs_cc02.exp
 0002:000f44e0       $N00045                    100fc4e0     bncs_cc02.exp
 0002:000f453b       $N00046                    100fc53b     bncs_cc02.exp
 0002:000f455d       $N00047                    100fc55d     bncs_cc02.exp
 0002:000f458b       $N00048                    100fc58b     bncs_cc02.exp
 0002:000f45eb       $N00049                    100fc5eb     bncs_cc02.exp
 0002:000f4649       $N00050                    100fc649     bncs_cc02.exp
 0002:000f468f       $N00051                    100fc68f     bncs_cc02.exp
 0002:000f46d8       $N00052                    100fc6d8     bncs_cc02.exp
 0002:000f4706       $N00053                    100fc706     bncs_cc02.exp
 0002:000f473c       $N00054                    100fc73c     bncs_cc02.exp
 0002:000f4780       $N00055                    100fc780     bncs_cc02.exp
 0002:000f47cc       $N00056                    100fc7cc     bncs_cc02.exp
 0002:000f480a       $N00057                    100fc80a     bncs_cc02.exp
 0002:000f482e       $N00058                    100fc82e     bncs_cc02.exp
 0002:000f4864       $N00059                    100fc864     bncs_cc02.exp
 0002:000f4884       $N00060                    100fc884     bncs_cc02.exp
 0002:000f48dd       $N00061                    100fc8dd     bncs_cc02.exp
 0002:000f4936       $N00062                    100fc936     bncs_cc02.exp
 0002:000f4994       $N00063                    100fc994     bncs_cc02.exp
 0002:000f49d6       $N00064                    100fc9d6     bncs_cc02.exp
 0002:000f4a1c       $N00065                    100fca1c     bncs_cc02.exp
 0002:000f4a65       $N00066                    100fca65     bncs_cc02.exp
 0002:000f4aaa       $N00067                    100fcaaa     bncs_cc02.exp
 0002:000f4aec       $N00068                    100fcaec     bncs_cc02.exp
 0002:000f4b31       $N00069                    100fcb31     bncs_cc02.exp
 0002:000f4b75       $N00070                    100fcb75     bncs_cc02.exp
 0002:000f4bb9       $N00071                    100fcbb9     bncs_cc02.exp
 0002:000f4bff       $N00072                    100fcbff     bncs_cc02.exp
 0002:000f4c30       $N00073                    100fcc30     bncs_cc02.exp
 0002:000f4c69       $N00074                    100fcc69     bncs_cc02.exp
 0002:000f4caa       $N00075                    100fccaa     bncs_cc02.exp
 0002:000f4cd4       $N00076                    100fccd4     bncs_cc02.exp
 0002:000f4d04       $N00077                    100fcd04     bncs_cc02.exp
 0002:000f4d45       $N00078                    100fcd45     bncs_cc02.exp
 0002:000f4d6e       $N00079                    100fcd6e     bncs_cc02.exp
 0002:000f4d9f       $N00080                    100fcd9f     bncs_cc02.exp
 0002:000f4de4       $N00081                    100fcde4     bncs_cc02.exp
 0002:000f4e25       $N00082                    100fce25     bncs_cc02.exp
 0002:000f4e4e       $N00083                    100fce4e     bncs_cc02.exp
 0002:000f4e71       $N00084                    100fce71     bncs_cc02.exp
 0002:000f4e9e       $N00085                    100fce9e     bncs_cc02.exp
 0002:000f4ecd       $N00086                    100fcecd     bncs_cc02.exp
 0002:000f4eff       $N00087                    100fceff     bncs_cc02.exp
 0002:000f4f43       $N00088                    100fcf43     bncs_cc02.exp
 0002:000f4f74       $N00089                    100fcf74     bncs_cc02.exp
 0002:000f4fb9       $N00090                    100fcfb9     bncs_cc02.exp
 0002:000f4fe9       $N00091                    100fcfe9     bncs_cc02.exp
 0002:000f501e       $N00092                    100fd01e     bncs_cc02.exp
 0002:000f5052       $N00093                    100fd052     bncs_cc02.exp
 0002:000f5090       $N00094                    100fd090     bncs_cc02.exp
 0002:000f50d8       $N00095                    100fd0d8     bncs_cc02.exp
 0002:000f511f       $N00096                    100fd11f     bncs_cc02.exp
 0002:000f5152       $N00097                    100fd152     bncs_cc02.exp
 0002:000f517f       $N00098                    100fd17f     bncs_cc02.exp
 0002:000f51a6       $N00099                    100fd1a6     bncs_cc02.exp
 0002:000f51d3       $N00100                    100fd1d3     bncs_cc02.exp
 0002:000f5208       $N00101                    100fd208     bncs_cc02.exp
 0002:000f524a       $N00102                    100fd24a     bncs_cc02.exp
 0002:000f528b       $N00103                    100fd28b     bncs_cc02.exp
 0002:000f52db       $N00104                    100fd2db     bncs_cc02.exp
 0002:000f5327       $N00105                    100fd327     bncs_cc02.exp
 0002:000f5372       $N00106                    100fd372     bncs_cc02.exp
 0002:000f53b0       $N00107                    100fd3b0     bncs_cc02.exp
 0002:000f53d7       $N00108                    100fd3d7     bncs_cc02.exp
 0002:000f5402       $N00109                    100fd402     bncs_cc02.exp
 0002:000f5421       $N00110                    100fd421     bncs_cc02.exp
 0002:000f5d54       .idata$6                   100fdd54     dcw:dcw.dll
 0002:000fa176       .idata$6                   10102176     qt-mt323:qt-mt323.dll
 0002:000fa1f8       .idata$6                   101021f8     kernel32:KERNEL32.dll
 0002:000fa33c       .idata$6                   1010233c     user32:USER32.dll
 0002:000fa438       .idata$6                   10102438     gdi32:GDI32.dll
 0002:000fa474       .idata$6                   10102474     advapi32:ADVAPI32.dll
 0002:000fa528       .idata$6                   10102528     MSVCRT:MSVCR120.dll
 0003:00000000       _bncs_cc02                 10103000     bncs_cc02_qt.obj
 0003:00000d60       ?param_slot_0@?3??staticMetaObject@bncs_cc02_qt@@SAPAVQMetaObject@@XZ@4QBUQUParameter@@B 10103d60     moc_bncs_cc02_qt.obj
 0003:00000d80       _bncs_cc02_pixmap          10103d80     plugin.obj
 0003:00000dec       _qt_ucm_verification_data  10103dec     plugin.obj
 0003:00001158       _allocator_arg             10104158     bncs_cc02_qt.obj
 0003:00001159       _piecewise_construct       10104159     bncs_cc02_qt.obj
 0003:00001160       _cleanUp_bncs_cc02_edit    10104160     moc_bncs_cc02_edit.obj
 0003:00001168       _cleanUp_bncs_cc02_editImpl 10104168     moc_bncs_cc02_editimpl.obj
 0003:00001170       _cleanUp_bncs_cc02_qt      10104170     moc_bncs_cc02_qt.obj
 0003:00001174       ?$S2@?3??staticMetaObject@bncs_cc02_qt@@SAPAVQMetaObject@@XZ@4IA 10104174     moc_bncs_cc02_qt.obj
 0003:00001178       ?param_signal_0@?3??staticMetaObject@bncs_cc02_qt@@SAPAVQMetaObject@@XZ@4QBUQUParameter@@B 10104178     moc_bncs_cc02_qt.obj
 0003:00001188       _?g_fTriedAndFailed@?1??HtmlHelpW@@9@16@4HA$S28322 10104188     htmlhelp:init.obj
 0003:0000118c       _?g_hmodHHCtrl@?1??HtmlHelpA@@9@16@4PAUHINSTANCE__@@A$S28294 1010418c     htmlhelp:init.obj
 0003:00001190       _?g_hmodHHCtrl@?1??HtmlHelpW@@9@16@4PAUHINSTANCE__@@A$S28320 10104190     htmlhelp:init.obj
 0003:00001194       _?g_fTriedAndFailed@?1??HtmlHelpA@@9@16@4HA$S28296 10104194     htmlhelp:init.obj
 0003:000011a0       ___proc_attached           101041a0     MSVCRT:crtdll.obj
 0003:000011a8       _GS_ExceptionRecord        101041a8     MSVCRT:gs_report.obj
 0003:000011f8       _GS_ContextRecord          101041f8     MSVCRT:gs_report.obj
 0003:000014c4       _DebuggerWasPresent        101044c4     MSVCRT:gs_report.obj
 0004:000000a0       $R000000                   101050a0     Script1.res
 0004:00000490       $R0003F0                   10105490     Script1.res
