 alm_bncs_acq

 Timestamp is 56de0044 (Mon Mar 07 22:27:16 2016)

 Preferred load address is 10000000

 Start         Length     Name                   Class
 0001:00000000 00012dacH .text                   CODE
 0001:00012db0 000012e0H .text$x                 CODE
 0002:00000000 00000388H .idata$5                DATA
 0002:00000388 00000334H .rdata                  DATA
 0002:000006c0 0000064cH .rdata$r                DATA
 0002:00000d10 00001920H .xdata$x                DATA
 0002:00002630 0000008cH .idata$2                DATA
 0002:000026bc 00000014H .idata$3                DATA
 0002:000026d0 00000388H .idata$4                DATA
 0002:00002a58 00001abaH .idata$6                DATA
 0002:00004520 00000052H .edata                  DATA
 0003:00000000 00000004H .CRT$XCA                DATA
 0003:00000004 0000003cH .CRT$XCU                DATA
 0003:00000040 00000004H .CRT$XCZ                DATA
 0003:00000044 00000004H .CRT$XIA                DATA
 0003:00000048 00000004H .CRT$XIZ                DATA
 0003:00000050 00002760H .data                   DATA
 0003:000027b0 00000194H .bss                    DATA
 0004:00000000 00000058H .rsrc$01                DATA
 0004:00000060 000004c0H .rsrc$02                DATA

  Address         Publics by Value              Rva+Base     Lib:Object

 0001:00000080       ??0bncs_input@@QAE@PAUIDebug@@PAD@Z 10001080 f   bncs_input.obj
 0001:00000390       ?getTxCount@alarms_base@@UAEJXZ 10001390 f i bncs_input.obj
 0001:000003a0       ?getRxCount@alarms_base@@UAEJXZ 100013a0 f i bncs_input.obj
 0001:000003b0       ??1alarms_input_base@@UAE@XZ 100013b0 f i bncs_input.obj
 0001:000003c0       ??_Ealarms_base@@UAEPAXI@Z 100013c0 f i bncs_input.obj
 0001:000003c0       ??_Galarms_base@@UAEPAXI@Z 100013c0 f i bncs_input.obj
 0001:000003e0       ??_Ealarms_input_base@@UAEPAXI@Z 100013e0 f i bncs_input.obj
 0001:000003e0       ??_Galarms_input_base@@UAEPAXI@Z 100013e0 f i bncs_input.obj
 0001:00000400       ??_Gbncs_input@@UAEPAXI@Z  10001400 f i bncs_input.obj
 0001:00000400       ??_Ebncs_input@@UAEPAXI@Z  10001400 f i bncs_input.obj
 0001:00000420       ??1?$map@HPAVBncsStore@@U?$less@H@std@@V?$allocator@PAVBncsStore@@@3@@std@@QAE@XZ 10001420 f i bncs_input.obj
 0001:00000510       ??1?$map@HPAVHoldoff@@U?$less@H@std@@V?$allocator@PAVHoldoff@@@3@@std@@QAE@XZ 10001510 f i bncs_input.obj
 0001:00000600       ??1?$map@HPAVCPulseStretch@@U?$less@H@std@@V?$allocator@PAVCPulseStretch@@@3@@std@@QAE@XZ 10001600 f i bncs_input.obj
 0001:000006f0       ?AppendLog@bncs_input@@QAEXVQString@@@Z 100016f0 f   bncs_input.obj
 0001:00000760       ?CSIRegister@bncs_input@@AAE_NXZ 10001760 f   bncs_input.obj
 0001:000007f0       ??1bncs_input@@UAE@XZ      100017f0 f   bncs_input.obj
 0001:00000d10       ?getTxCount@bncs_input@@UAEJXZ 10001d10 f   bncs_input.obj
 0001:00000d20       ?getRxCount@bncs_input@@UAEJXZ 10001d20 f   bncs_input.obj
 0001:00000d30       ?getData@bncs_input@@UAE_NPAPAHPAH@Z 10001d30 f   bncs_input.obj
 0001:00000e30       ?getStatusOk@bncs_input@@UAE_NXZ 10001e30 f   bncs_input.obj
 0001:00000e40       ?getStartupProgress@bncs_input@@UAEXAAH0@Z 10001e40 f   bncs_input.obj
 0001:00000e60       ?aboutToClose@bncs_input@@UAEXXZ 10001e60 f   bncs_input.obj
 0001:00000e70       ?getConfigFileDate@bncs_input@@UAE?AVQDateTime@@XZ 10001e70 f   bncs_input.obj
 0001:00000e80       ?getClassName@bncs_input@@UAEPBDXZ 10001e80 f   bncs_input.obj
 0001:00000e90       ?setDebugMode@bncs_input@@UAE_N_N@Z 10001e90 f   bncs_input.obj
 0001:00000ea0       ?getDebugMode@bncs_input@@UAE_NXZ 10001ea0 f   bncs_input.obj
 0001:00000eb0       ?setLogMode@bncs_input@@UAEHH@Z 10001eb0 f   bncs_input.obj
 0001:00000ec0       ?getLogMode@bncs_input@@UAEHXZ 10001ec0 f   bncs_input.obj
 0001:00000ed0       ?init@bncs_input@@UAE_NABVQString@@0HW4EAlarmTestMode@alarms_input_base@@_NQAUIAlarmEvent@@@Z 10001ed0 f   bncs_input.obj
 0001:00001a00       ??8@YA_NVQChar@@D@Z        10002a00 f i bncs_input.obj
 0001:00001a20       ??1?$map@VQString@@V1@U?$less@VQString@@@std@@V?$allocator@VQString@@@3@@std@@QAE@XZ 10002a20 f i bncs_input.obj
 0001:00001b20       ??1?$pair@VQString@@V1@@std@@QAE@XZ 10002b20 f i bncs_input.obj
 0001:00001ba0       ??1?$pair@$$CBVQString@@V1@@std@@QAE@XZ 10002ba0 f i bncs_input.obj
 0001:00001c20       ?AddOneInput@bncs_input@@AAEXAAV?$map@VQString@@V1@U?$less@VQString@@@std@@V?$allocator@VQString@@@3@@std@@AAVQRegExp@@ABVQString@@@Z 10002c20 f   bncs_input.obj
 0001:00001e10       ?ProcRevertive@bncs_input@@AAEXH@Z 10002e10 f   bncs_input.obj
 0001:000023a0       ?SetHoldoff@bncs_input@@AAEXHPAVBncsStore@@H@Z 100033a0 f   bncs_input.obj
 0001:00002580       ?SetPulseStretch@bncs_input@@AAEXHPAVBncsStore@@H@Z 10003580 f   bncs_input.obj
 0001:000029c0       ?SetChatter@bncs_input@@AAEXPAVBncsStore@@@Z 100039c0 f   bncs_input.obj
 0001:000029e0       ?SetNormal@bncs_input@@AAEXPAVBncsStore@@H@Z 100039e0 f   bncs_input.obj
 0001:00002a00       ?CheckStatus@bncs_input@@QAEXXZ 10003a00 f   bncs_input.obj
 0001:00002c50       ?procPulseStretch@bncs_input@@QAEXXZ 10003c50 f   bncs_input.obj
 0001:00002f70       ?procHoldoffs@bncs_input@@QAEXXZ 10003f70 f   bncs_input.obj
 0001:00003210       ?recycleChatBins@bncs_input@@QAEXXZ 10004210 f   bncs_input.obj
 0001:00003350       ?timerEvent@bncs_input@@UAEXPAVQTimerEvent@@@Z 10004350 f   bncs_input.obj
 0001:000033e0       ?notify@bncs_input@@EAEJPAVcPanel@@PBD@Z 100043e0 f   bncs_input.obj
 0001:00003840       ?MapPrint@bncs_input@@QAEXXZ 10004840 f   bncs_input.obj
 0001:00003910       ?Debug@bncs_input@@QAAXPADZZ 10004910 f   bncs_input.obj
 0001:00003a60       ?registerInputs@bncs_input@@AAE_NXZ 10004a60 f   bncs_input.obj
 0001:00003df0       ?setAlarmTestMode@bncs_input@@UAEXW4EAlarmTestMode@alarms_input_base@@_N@Z 10004df0 f   bncs_input.obj
 0001:00003e30       ?startGreening@bncs_input@@AAEXXZ 10004e30 f   bncs_input.obj
 0001:00003ff0       ?startRedding@bncs_input@@AAEXXZ 10004ff0 f   bncs_input.obj
 0001:000041b0       ?stopColouring@bncs_input@@AAEXXZ 100051b0 f   bncs_input.obj
 0001:00004430       ?sendColouringCommand@bncs_input@@AAEXPAVBncsStore@@ABVQString@@1@Z 10005430 f   bncs_input.obj
 0001:00004850       ?sendGreeningCommandIfActive@bncs_input@@AAEXHPAVBncsStore@@ABVQString@@@Z 10005850 f   bncs_input.obj
 0001:00004ad0       ?sendReddingCommandIfActive@bncs_input@@AAEXHPAVBncsStore@@ABVQString@@@Z 10005ad0 f   bncs_input.obj
 0001:00004d50       ?regtally@bncs_input@@QAEXHH@Z 10005d50 f   bncs_input.obj
 0001:00004d70       ?changeEvent@bncs_input@@QAEXXZ 10005d70 f   bncs_input.obj
 0001:00004d80       ?restartPoll@bncs_input@@UAEXXZ 10005d80 f   bncs_input.obj
 0001:00004e20       ?nextPollNow@bncs_input@@UAEXXZ 10005e20 f   bncs_input.obj
 0001:00004ec0       ??_G?$QMemArray@H@@UAEPAXI@Z 10005ec0 f i bncs_input.obj
 0001:00004ee0       ??_G?$QMemArray@_N@@UAEPAXI@Z 10005ee0 f i bncs_input.obj
 0001:00004f00       ??_G?$QMemArray@D@@UAEPAXI@Z 10005f00 f i bncs_input.obj
 0001:00004f20       ??_G?$QPtrList@D@@UAEPAXI@Z 10005f20 f i bncs_input.obj
 0001:00004f40       ??_G?$QMemArray@VQPoint@@@@UAEPAXI@Z 10005f40 f i bncs_input.obj
 0001:00004f60       ??_G?$QPtrList@VQObject@@@@UAEPAXI@Z 10005f60 f i bncs_input.obj
 0001:00004f80       ?begin@?$_Tree@HU?$pair@$$CBHPAVBncsStore@@@std@@U_Kfn@?$map@HPAVBncsStore@@U?$less@H@std@@V?$allocator@PAVBncsStore@@@3@@2@U?$less@H@2@V?$allocator@PAVBncsStore@@@2@@std@@QAE?AViterator@12@XZ 10005f80 f i bncs_input.obj
 0001:00004f90       ?erase@?$_Tree@HU?$pair@$$CBHPAVBncsStore@@@std@@U_Kfn@?$map@HPAVBncsStore@@U?$less@H@std@@V?$allocator@PAVBncsStore@@@3@@2@U?$less@H@2@V?$allocator@PAVBncsStore@@@2@@std@@QAE?AViterator@12@V312@0@Z 10005f90 f i bncs_input.obj
 0001:00005060       ?begin@?$_Tree@HU?$pair@$$CBHPAVHoldoff@@@std@@U_Kfn@?$map@HPAVHoldoff@@U?$less@H@std@@V?$allocator@PAVHoldoff@@@3@@2@U?$less@H@2@V?$allocator@PAVHoldoff@@@2@@std@@QAE?AViterator@12@XZ 10006060 f i bncs_input.obj
 0001:00005070       ?insert@?$_Tree@HU?$pair@$$CBHPAVHoldoff@@@std@@U_Kfn@?$map@HPAVHoldoff@@U?$less@H@std@@V?$allocator@PAVHoldoff@@@3@@2@U?$less@H@2@V?$allocator@PAVHoldoff@@@2@@std@@QAE?AU?$pair@Viterator@?$_Tree@HU?$pair@$$CBHPAVHoldoff@@@std@@U_Kfn@?$map@HPAVHoldoff@@U?$less@H@std@@V?$allocator@PAVHoldoff@@@3@@2@U?$less@H@2@V?$allocator@PAVHoldoff@@@2@@std@@_N@2@ABU?$pair@$$CBHPAVHoldoff@@@2@@Z 10006070 f i bncs_input.obj
 0001:000052b0       ?erase@?$_Tree@HU?$pair@$$CBHPAVHoldoff@@@std@@U_Kfn@?$map@HPAVHoldoff@@U?$less@H@std@@V?$allocator@PAVHoldoff@@@3@@2@U?$less@H@2@V?$allocator@PAVHoldoff@@@2@@std@@QAE?AViterator@12@V312@@Z 100062b0 f i bncs_input.obj
 0001:000056b0       ?erase@?$_Tree@HU?$pair@$$CBHPAVHoldoff@@@std@@U_Kfn@?$map@HPAVHoldoff@@U?$less@H@std@@V?$allocator@PAVHoldoff@@@3@@2@U?$less@H@2@V?$allocator@PAVHoldoff@@@2@@std@@QAE?AViterator@12@V312@0@Z 100066b0 f i bncs_input.obj
 0001:00005780       ?find@?$_Tree@HU?$pair@$$CBHPAVHoldoff@@@std@@U_Kfn@?$map@HPAVHoldoff@@U?$less@H@std@@V?$allocator@PAVHoldoff@@@3@@2@U?$less@H@2@V?$allocator@PAVHoldoff@@@2@@std@@QAE?AViterator@12@ABH@Z 10006780 f i bncs_input.obj
 0001:000057f0       ?begin@?$_Tree@HU?$pair@$$CBHPAVCPulseStretch@@@std@@U_Kfn@?$map@HPAVCPulseStretch@@U?$less@H@std@@V?$allocator@PAVCPulseStretch@@@3@@2@U?$less@H@2@V?$allocator@PAVCPulseStretch@@@2@@std@@QAE?AViterator@12@XZ 100067f0 f i bncs_input.obj
 0001:00005800       ?insert@?$_Tree@HU?$pair@$$CBHPAVCPulseStretch@@@std@@U_Kfn@?$map@HPAVCPulseStretch@@U?$less@H@std@@V?$allocator@PAVCPulseStretch@@@3@@2@U?$less@H@2@V?$allocator@PAVCPulseStretch@@@2@@std@@QAE?AU?$pair@Viterator@?$_Tree@HU?$pair@$$CBHPAVCPulseStretch@@@std@@U_Kfn@?$map@HPAVCPulseStretch@@U?$less@H@std@@V?$allocator@PAVCPulseStretch@@@3@@2@U?$less@H@2@V?$allocator@PAVCPulseStretch@@@2@@std@@_N@2@ABU?$pair@$$CBHPAVCPulseStretch@@@2@@Z 10006800 f i bncs_input.obj
 0001:00005a40       ?erase@?$_Tree@HU?$pair@$$CBHPAVCPulseStretch@@@std@@U_Kfn@?$map@HPAVCPulseStretch@@U?$less@H@std@@V?$allocator@PAVCPulseStretch@@@3@@2@U?$less@H@2@V?$allocator@PAVCPulseStretch@@@2@@std@@QAE?AViterator@12@V312@@Z 10006a40 f i bncs_input.obj
 0001:00005e40       ?erase@?$_Tree@HU?$pair@$$CBHPAVCPulseStretch@@@std@@U_Kfn@?$map@HPAVCPulseStretch@@U?$less@H@std@@V?$allocator@PAVCPulseStretch@@@3@@2@U?$less@H@2@V?$allocator@PAVCPulseStretch@@@2@@std@@QAE?AViterator@12@V312@0@Z 10006e40 f i bncs_input.obj
 0001:00005f10       ?find@?$_Tree@HU?$pair@$$CBHPAVCPulseStretch@@@std@@U_Kfn@?$map@HPAVCPulseStretch@@U?$less@H@std@@V?$allocator@PAVCPulseStretch@@@3@@2@U?$less@H@2@V?$allocator@PAVCPulseStretch@@@2@@std@@QAE?AViterator@12@ABH@Z 10006f10 f i bncs_input.obj
 0001:00005f80       ?_Inc@const_iterator@?$_Tree@HU?$pair@$$CBHPAVCPulseStretch@@@std@@U_Kfn@?$map@HPAVCPulseStretch@@U?$less@H@std@@V?$allocator@PAVCPulseStretch@@@3@@2@U?$less@H@2@V?$allocator@PAVCPulseStretch@@@2@@std@@QAEXXZ 10006f80 f i bncs_input.obj
 0001:00005fd0       ?begin@?$_Tree@VQString@@U?$pair@$$CBVQString@@V1@@std@@U_Kfn@?$map@VQString@@V1@U?$less@VQString@@@std@@V?$allocator@VQString@@@3@@3@U?$less@VQString@@@3@V?$allocator@VQString@@@3@@std@@QAE?AViterator@12@XZ 10006fd0 f i bncs_input.obj
 0001:00005fe0       ?insert@?$_Tree@VQString@@U?$pair@$$CBVQString@@V1@@std@@U_Kfn@?$map@VQString@@V1@U?$less@VQString@@@std@@V?$allocator@VQString@@@3@@3@U?$less@VQString@@@3@V?$allocator@VQString@@@3@@std@@QAE?AU?$pair@Viterator@?$_Tree@VQString@@U?$pair@$$CBVQString@@V1@@std@@U_Kfn@?$map@VQString@@V1@U?$less@VQString@@@std@@V?$allocator@VQString@@@3@@3@U?$less@VQString@@@3@V?$allocator@VQString@@@3@@std@@_N@2@ABU?$pair@$$CBVQString@@V1@@2@@Z 10006fe0 f i bncs_input.obj
 0001:00006230       ?erase@?$_Tree@VQString@@U?$pair@$$CBVQString@@V1@@std@@U_Kfn@?$map@VQString@@V1@U?$less@VQString@@@std@@V?$allocator@VQString@@@3@@3@U?$less@VQString@@@3@V?$allocator@VQString@@@3@@std@@QAE?AViterator@12@V312@0@Z 10007230 f i bncs_input.obj
 0001:00006310       ??0?$pair@Viterator@?$_Tree@HU?$pair@$$CBHPAVBncsStore@@@std@@U_Kfn@?$map@HPAVBncsStore@@U?$less@H@std@@V?$allocator@PAVBncsStore@@@3@@2@U?$less@H@2@V?$allocator@PAVBncsStore@@@2@@std@@_N@std@@QAE@ABViterator@?$_Tree@HU?$pair@$$CBHPAVBncsStore@@@std@@U_Kfn@?$map@HPAVBncsStore@@U?$less@H@std@@V?$allocator@PAVBncsStore@@@3@@2@U?$less@H@2@V?$allocator@PAVBncsStore@@@2@@1@AB_N@Z 10007310 f i bncs_input.obj
 0001:00006330       ??_G?$QValueListNode@VQString@@@@UAEPAXI@Z 10007330 f i bncs_input.obj
 0001:00006330       ??_E?$QValueListNode@VQString@@@@UAEPAXI@Z 10007330 f i bncs_input.obj
 0001:00006350       ??1?$QValueListNode@VQString@@@@UAE@XZ 10007350 f i bncs_input.obj
 0001:00006380       ?erase@?$_Tree@HU?$pair@$$CBHPAVBncsStore@@@std@@U_Kfn@?$map@HPAVBncsStore@@U?$less@H@std@@V?$allocator@PAVBncsStore@@@3@@2@U?$less@H@2@V?$allocator@PAVBncsStore@@@2@@std@@QAE?AViterator@12@V312@@Z 10007380 f i bncs_input.obj
 0001:00006780       ?_Erase@?$_Tree@HU?$pair@$$CBHPAVBncsStore@@@std@@U_Kfn@?$map@HPAVBncsStore@@U?$less@H@std@@V?$allocator@PAVBncsStore@@@3@@2@U?$less@H@2@V?$allocator@PAVBncsStore@@@2@@std@@IAEXPAU_Node@12@@Z 10007780 f i bncs_input.obj
 0001:000067c0       ?_Init@?$_Tree@HU?$pair@$$CBHPAVBncsStore@@@std@@U_Kfn@?$map@HPAVBncsStore@@U?$less@H@std@@V?$allocator@PAVBncsStore@@@3@@2@U?$less@H@2@V?$allocator@PAVBncsStore@@@2@@std@@IAEXXZ 100077c0 f i bncs_input.obj
 0001:00006860       ?_Insert@?$_Tree@HU?$pair@$$CBHPAVBncsStore@@@std@@U_Kfn@?$map@HPAVBncsStore@@U?$less@H@std@@V?$allocator@PAVBncsStore@@@3@@2@U?$less@H@2@V?$allocator@PAVBncsStore@@@2@@std@@IAE?AViterator@12@PAU_Node@12@0ABU?$pair@$$CBHPAVBncsStore@@@2@@Z 10007860 f i bncs_input.obj
 0001:00006ad0       ?_Dec@const_iterator@?$_Tree@HU?$pair@$$CBHPAVBncsStore@@@std@@U_Kfn@?$map@HPAVBncsStore@@U?$less@H@std@@V?$allocator@PAVBncsStore@@@3@@2@U?$less@H@2@V?$allocator@PAVBncsStore@@@2@@std@@QAEXXZ 10007ad0 f i bncs_input.obj
 0001:00006b30       ?_Inc@const_iterator@?$_Tree@HU?$pair@$$CBHPAVBncsStore@@@std@@U_Kfn@?$map@HPAVBncsStore@@U?$less@H@std@@V?$allocator@PAVBncsStore@@@3@@2@U?$less@H@2@V?$allocator@PAVBncsStore@@@2@@std@@QAEXXZ 10007b30 f i bncs_input.obj
 0001:00006b80       ?lower_bound@?$_Tree@HU?$pair@$$CBHPAVHoldoff@@@std@@U_Kfn@?$map@HPAVHoldoff@@U?$less@H@std@@V?$allocator@PAVHoldoff@@@3@@2@U?$less@H@2@V?$allocator@PAVHoldoff@@@2@@std@@QAE?AViterator@12@ABH@Z 10007b80 f i bncs_input.obj
 0001:00006bc0       ?_Erase@?$_Tree@HU?$pair@$$CBHPAVHoldoff@@@std@@U_Kfn@?$map@HPAVHoldoff@@U?$less@H@std@@V?$allocator@PAVHoldoff@@@3@@2@U?$less@H@2@V?$allocator@PAVHoldoff@@@2@@std@@IAEXPAU_Node@12@@Z 10007bc0 f i bncs_input.obj
 0001:00006c00       ?_Init@?$_Tree@HU?$pair@$$CBHPAVHoldoff@@@std@@U_Kfn@?$map@HPAVHoldoff@@U?$less@H@std@@V?$allocator@PAVHoldoff@@@3@@2@U?$less@H@2@V?$allocator@PAVHoldoff@@@2@@std@@IAEXXZ 10007c00 f i bncs_input.obj
 0001:00006ca0       ?_Insert@?$_Tree@HU?$pair@$$CBHPAVHoldoff@@@std@@U_Kfn@?$map@HPAVHoldoff@@U?$less@H@std@@V?$allocator@PAVHoldoff@@@3@@2@U?$less@H@2@V?$allocator@PAVHoldoff@@@2@@std@@IAE?AViterator@12@PAU_Node@12@0ABU?$pair@$$CBHPAVHoldoff@@@2@@Z 10007ca0 f i bncs_input.obj
 0001:00006f10       ?_Lrotate@?$_Tree@HU?$pair@$$CBHPAVHoldoff@@@std@@U_Kfn@?$map@HPAVHoldoff@@U?$less@H@std@@V?$allocator@PAVHoldoff@@@3@@2@U?$less@H@2@V?$allocator@PAVHoldoff@@@2@@std@@IAEXPAU_Node@12@@Z 10007f10 f i bncs_input.obj
 0001:00006f70       ?_Min@?$_Tree@HU?$pair@$$CBHPAVHoldoff@@@std@@U_Kfn@?$map@HPAVHoldoff@@U?$less@H@std@@V?$allocator@PAVHoldoff@@@3@@2@U?$less@H@2@V?$allocator@PAVHoldoff@@@2@@std@@KAPAU_Node@12@PAU312@@Z 10007f70 f i bncs_input.obj
 0001:00006f90       ?_Rrotate@?$_Tree@HU?$pair@$$CBHPAVHoldoff@@@std@@U_Kfn@?$map@HPAVHoldoff@@U?$less@H@std@@V?$allocator@PAVHoldoff@@@3@@2@U?$less@H@2@V?$allocator@PAVHoldoff@@@2@@std@@IAEXPAU_Node@12@@Z 10007f90 f i bncs_input.obj
 0001:00006ff0       ?_Inc@const_iterator@?$_Tree@HU?$pair@$$CBHPAVHoldoff@@@std@@U_Kfn@?$map@HPAVHoldoff@@U?$less@H@std@@V?$allocator@PAVHoldoff@@@3@@2@U?$less@H@2@V?$allocator@PAVHoldoff@@@2@@std@@QAEXXZ 10007ff0 f i bncs_input.obj
 0001:00007040       ?_Erase@?$_Tree@HU?$pair@$$CBHPAVCPulseStretch@@@std@@U_Kfn@?$map@HPAVCPulseStretch@@U?$less@H@std@@V?$allocator@PAVCPulseStretch@@@3@@2@U?$less@H@2@V?$allocator@PAVCPulseStretch@@@2@@std@@IAEXPAU_Node@12@@Z 10008040 f i bncs_input.obj
 0001:00007080       ?_Init@?$_Tree@HU?$pair@$$CBHPAVCPulseStretch@@@std@@U_Kfn@?$map@HPAVCPulseStretch@@U?$less@H@std@@V?$allocator@PAVCPulseStretch@@@3@@2@U?$less@H@2@V?$allocator@PAVCPulseStretch@@@2@@std@@IAEXXZ 10008080 f i bncs_input.obj
 0001:00007120       ?_Insert@?$_Tree@HU?$pair@$$CBHPAVCPulseStretch@@@std@@U_Kfn@?$map@HPAVCPulseStretch@@U?$less@H@std@@V?$allocator@PAVCPulseStretch@@@3@@2@U?$less@H@2@V?$allocator@PAVCPulseStretch@@@2@@std@@IAE?AViterator@12@PAU_Node@12@0ABU?$pair@$$CBHPAVCPulseStretch@@@2@@Z 10008120 f i bncs_input.obj
 0001:00007390       ?_Lrotate@?$_Tree@HU?$pair@$$CBHPAVCPulseStretch@@@std@@U_Kfn@?$map@HPAVCPulseStretch@@U?$less@H@std@@V?$allocator@PAVCPulseStretch@@@3@@2@U?$less@H@2@V?$allocator@PAVCPulseStretch@@@2@@std@@IAEXPAU_Node@12@@Z 10008390 f i bncs_input.obj
 0001:000073f0       ?_Min@?$_Tree@HU?$pair@$$CBHPAVCPulseStretch@@@std@@U_Kfn@?$map@HPAVCPulseStretch@@U?$less@H@std@@V?$allocator@PAVCPulseStretch@@@3@@2@U?$less@H@2@V?$allocator@PAVCPulseStretch@@@2@@std@@KAPAU_Node@12@PAU312@@Z 100083f0 f i bncs_input.obj
 0001:00007410       ?_Rrotate@?$_Tree@HU?$pair@$$CBHPAVCPulseStretch@@@std@@U_Kfn@?$map@HPAVCPulseStretch@@U?$less@H@std@@V?$allocator@PAVCPulseStretch@@@3@@2@U?$less@H@2@V?$allocator@PAVCPulseStretch@@@2@@std@@IAEXPAU_Node@12@@Z 10008410 f i bncs_input.obj
 0001:00007470       ?erase@?$_Tree@VQString@@U?$pair@$$CBVQString@@V1@@std@@U_Kfn@?$map@VQString@@V1@U?$less@VQString@@@std@@V?$allocator@VQString@@@3@@3@U?$less@VQString@@@3@V?$allocator@VQString@@@3@@std@@QAE?AViterator@12@V312@@Z 10008470 f i bncs_input.obj
 0001:000078e0       ?_Erase@?$_Tree@VQString@@U?$pair@$$CBVQString@@V1@@std@@U_Kfn@?$map@VQString@@V1@U?$less@VQString@@@std@@V?$allocator@VQString@@@3@@3@U?$less@VQString@@@3@V?$allocator@VQString@@@3@@std@@IAEXPAU_Node@12@@Z 100088e0 f i bncs_input.obj
 0001:00007930       ?_Init@?$_Tree@VQString@@U?$pair@$$CBVQString@@V1@@std@@U_Kfn@?$map@VQString@@V1@U?$less@VQString@@@std@@V?$allocator@VQString@@@3@@3@U?$less@VQString@@@3@V?$allocator@VQString@@@3@@std@@IAEXXZ 10008930 f i bncs_input.obj
 0001:000079d0       ?_Insert@?$_Tree@VQString@@U?$pair@$$CBVQString@@V1@@std@@U_Kfn@?$map@VQString@@V1@U?$less@VQString@@@std@@V?$allocator@VQString@@@3@@3@U?$less@VQString@@@3@V?$allocator@VQString@@@3@@std@@IAE?AViterator@12@PAU_Node@12@0ABU?$pair@$$CBVQString@@V1@@2@@Z 100089d0 f i bncs_input.obj
 0001:00007c40       ?_Lbound@?$_Tree@HU?$pair@$$CBHPAVBncsStore@@@std@@U_Kfn@?$map@HPAVBncsStore@@U?$less@H@std@@V?$allocator@PAVBncsStore@@@3@@2@U?$less@H@2@V?$allocator@PAVBncsStore@@@2@@std@@IBEPAU_Node@12@ABH@Z 10008c40 f i bncs_input.obj
 0001:00007c70       ?_Max@?$_Tree@HU?$pair@$$CBHPAVBncsStore@@@std@@U_Kfn@?$map@HPAVBncsStore@@U?$less@H@std@@V?$allocator@PAVBncsStore@@@3@@2@U?$less@H@2@V?$allocator@PAVBncsStore@@@2@@std@@KAPAU_Node@12@PAU312@@Z 10008c70 f i bncs_input.obj
 0001:00007c90       ?_Min@?$_Tree@HU?$pair@$$CBHPAVBncsStore@@@std@@U_Kfn@?$map@HPAVBncsStore@@U?$less@H@std@@V?$allocator@PAVBncsStore@@@3@@2@U?$less@H@2@V?$allocator@PAVBncsStore@@@2@@std@@KAPAU_Node@12@PAU312@@Z 10008c90 f i bncs_input.obj
 0001:00007cb0       ?_Buynode@?$_Tree@HU?$pair@$$CBHPAVHoldoff@@@std@@U_Kfn@?$map@HPAVHoldoff@@U?$less@H@std@@V?$allocator@PAVHoldoff@@@3@@2@U?$less@H@2@V?$allocator@PAVHoldoff@@@2@@std@@IAEPAU_Node@12@PAU312@W4_Redbl@12@@Z 10008cb0 f i bncs_input.obj
 0001:00007cd0       ?_Dec@const_iterator@?$_Tree@HU?$pair@$$CBHPAVHoldoff@@@std@@U_Kfn@?$map@HPAVHoldoff@@U?$less@H@std@@V?$allocator@PAVHoldoff@@@3@@2@U?$less@H@2@V?$allocator@PAVHoldoff@@@2@@std@@QAEXXZ 10008cd0 f i bncs_input.obj
 0001:00007d30       ?_Lbound@?$_Tree@HU?$pair@$$CBHPAVCPulseStretch@@@std@@U_Kfn@?$map@HPAVCPulseStretch@@U?$less@H@std@@V?$allocator@PAVCPulseStretch@@@3@@2@U?$less@H@2@V?$allocator@PAVCPulseStretch@@@2@@std@@IBEPAU_Node@12@ABH@Z 10008d30 f i bncs_input.obj
 0001:00007d60       ?_Buynode@?$_Tree@HU?$pair@$$CBHPAVCPulseStretch@@@std@@U_Kfn@?$map@HPAVCPulseStretch@@U?$less@H@std@@V?$allocator@PAVCPulseStretch@@@3@@2@U?$less@H@2@V?$allocator@PAVCPulseStretch@@@2@@std@@IAEPAU_Node@12@PAU312@W4_Redbl@12@@Z 10008d60 f i bncs_input.obj
 0001:00007d80       ?_Dec@const_iterator@?$_Tree@HU?$pair@$$CBHPAVCPulseStretch@@@std@@U_Kfn@?$map@HPAVCPulseStretch@@U?$less@H@std@@V?$allocator@PAVCPulseStretch@@@3@@2@U?$less@H@2@V?$allocator@PAVCPulseStretch@@@2@@std@@QAEXXZ 10008d80 f i bncs_input.obj
 0001:00007de0       ?_Lrotate@?$_Tree@VQString@@U?$pair@$$CBVQString@@V1@@std@@U_Kfn@?$map@VQString@@V1@U?$less@VQString@@@std@@V?$allocator@VQString@@@3@@3@U?$less@VQString@@@3@V?$allocator@VQString@@@3@@std@@IAEXPAU_Node@12@@Z 10008de0 f i bncs_input.obj
 0001:00007e40       ?_Min@?$_Tree@VQString@@U?$pair@$$CBVQString@@V1@@std@@U_Kfn@?$map@VQString@@V1@U?$less@VQString@@@std@@V?$allocator@VQString@@@3@@3@U?$less@VQString@@@3@V?$allocator@VQString@@@3@@std@@KAPAU_Node@12@PAU312@@Z 10008e40 f i bncs_input.obj
 0001:00007e60       ?_Rrotate@?$_Tree@VQString@@U?$pair@$$CBVQString@@V1@@std@@U_Kfn@?$map@VQString@@V1@U?$less@VQString@@@std@@V?$allocator@VQString@@@3@@3@U?$less@VQString@@@3@V?$allocator@VQString@@@3@@std@@IAEXPAU_Node@12@@Z 10008e60 f i bncs_input.obj
 0001:00007ec0       ?_Buynode@?$_Tree@VQString@@U?$pair@$$CBVQString@@V1@@std@@U_Kfn@?$map@VQString@@V1@U?$less@VQString@@@std@@V?$allocator@VQString@@@3@@3@U?$less@VQString@@@3@V?$allocator@VQString@@@3@@std@@IAEPAU_Node@12@PAU312@W4_Redbl@12@@Z 10008ec0 f i bncs_input.obj
 0001:00007ee0       ?_Dec@const_iterator@?$_Tree@VQString@@U?$pair@$$CBVQString@@V1@@std@@U_Kfn@?$map@VQString@@V1@U?$less@VQString@@@std@@V?$allocator@VQString@@@3@@3@U?$less@VQString@@@3@V?$allocator@VQString@@@3@@std@@QAEXXZ 10008ee0 f i bncs_input.obj
 0001:00007f40       ?_Inc@const_iterator@?$_Tree@VQString@@U?$pair@$$CBVQString@@V1@@std@@U_Kfn@?$map@VQString@@V1@U?$less@VQString@@@std@@V?$allocator@VQString@@@3@@3@U?$less@VQString@@@3@V?$allocator@VQString@@@3@@std@@QAEXXZ 10008f40 f i bncs_input.obj
 0001:00007f90       ?make_pair@std@@YA?AU?$pair@VQString@@V1@@1@ABVQString@@0@Z 10008f90 f i bncs_input.obj
 0001:00007ff0       ?insert@?$QValueListPrivate@VQString@@@@QAE?AV?$QValueListIterator@VQString@@@@V2@ABVQString@@@Z 10008ff0 f i bncs_input.obj
 0001:00008070       ?remove@?$QValueListPrivate@VQString@@@@QAEIABVQString@@@Z 10009070 f i bncs_input.obj
 0001:000080c0       ?remove@?$QValueListPrivate@VQString@@@@QAE?AV?$QValueListIterator@VQString@@@@V2@@Z 100090c0 f i bncs_input.obj
 0001:00008120       ?at@?$QValueListPrivate@VQString@@@@QBEPAV?$QValueListNode@VQString@@@@I@Z 10009120 f i bncs_input.obj
 0001:00008160       ?_Construct@std@@YAXPAU?$pair@$$CBHPAVBncsStore@@@1@ABU21@@Z 10009160 f i bncs_input.obj
 0001:00008180       ?_Construct@std@@YAXPAU?$pair@$$CBHPAVHoldoff@@@1@ABU21@@Z 10009180 f i bncs_input.obj
 0001:000081a0       ?_Construct@std@@YAXPAU?$pair@$$CBHPAVCPulseStretch@@@1@ABU21@@Z 100091a0 f i bncs_input.obj
 0001:000081c0       ?_Construct@std@@YAXPAU?$pair@$$CBVQString@@V1@@1@ABU21@@Z 100091c0 f i bncs_input.obj
 0001:00008220       ??3@YAXPAX0@Z              10009220 f i bncs_input.obj
 0001:00008230       ??_E?$QValueListPrivate@VQString@@@@UAEPAXI@Z 10009230 f i bncs_input.obj
 0001:00008230       ??_G?$QValueListPrivate@VQString@@@@UAEPAXI@Z 10009230 f i bncs_input.obj
 0001:00008280       ??_G?$pair@$$CBVQString@@V1@@std@@QAEPAXI@Z 10009280 f i bncs_input.obj
 0001:000082a0       ??_Ebncs_input@@W3AEPAXI@Z 100092a0 f i bncs_input.obj
 0001:000082b0       ??_Ebncs_input@@WHI@AEPAXI@Z 100092b0 f i bncs_input.obj
 0001:00008340       ??0BncsStore@@QAE@AAV?$map@VQString@@V1@U?$less@VQString@@@std@@V?$allocator@VQString@@@3@@std@@PAVbncs_input@@PAUIDebug@@ABVQString@@@Z 10009340 f   BncsStore.obj
 0001:00008590       ??_GBncsStore@@UAEPAXI@Z   10009590 f i BncsStore.obj
 0001:00008590       ??_EBncsStore@@UAEPAXI@Z   10009590 f i BncsStore.obj
 0001:000085b0       ??1BncsStore@@UAE@XZ       100095b0 f   BncsStore.obj
 0001:000086c0       ?Debug@BncsStore@@AAAXPADZZ 100096c0 f   BncsStore.obj
 0001:00008740       ?LoadSettings@BncsStore@@AAE_NABV?$map@VQString@@V1@U?$less@VQString@@@std@@V?$allocator@VQString@@@3@@std@@@Z 10009740 f   BncsStore.obj
 0001:00009700       ?LoadDiscreteAlarmStates@BncsStore@@AAE_NABV?$map@VQString@@V1@U?$less@VQString@@@std@@V?$allocator@VQString@@@3@@std@@@Z 1000a700 f   BncsStore.obj
 0001:00009980       ?LoadAnalogueAlarmStates@BncsStore@@AAE_NABV?$map@VQString@@V1@U?$less@VQString@@@std@@V?$allocator@VQString@@@3@@std@@@Z 1000a980 f   BncsStore.obj
 0001:00009f80       ?FindEntry@BncsStore@@AAE_NABV?$map@VQString@@V1@U?$less@VQString@@@std@@V?$allocator@VQString@@@3@@std@@ABVQString@@AAV4@@Z 1000af80 f   BncsStore.obj
 0001:0000a060       ?GetTrueState@BncsStore@@QAEHABVQString@@@Z 1000b060 f   BncsStore.obj
 0001:0000a2a0       ?GetChatterState@BncsStore@@QAEHH@Z 1000b2a0 f   BncsStore.obj
 0001:0000a2f0       ?getChatsum@BncsStore@@AAEHXZ 1000b2f0 f   BncsStore.obj
 0001:0000a310       ?RecycleChatBin@BncsStore@@QAE_NXZ 1000b310 f   BncsStore.obj
 0001:0000a3d0       ?Show@BncsStore@@QAEXH@Z   1000b3d0 f   BncsStore.obj
 0001:0000a4a0       ?UpdateOutput@BncsStore@@QAEXPAH@Z 1000b4a0 f   BncsStore.obj
 0001:0000a510       ?getAnOKState@BncsStore@@QAE?AVQString@@XZ 1000b510 f   BncsStore.obj
 0001:0000acb0       ?getAFailState@BncsStore@@QAE?AVQString@@XZ 1000bcb0 f   BncsStore.obj
 0001:0000b420       ?getName@BncsStore@@QBE?AVQString@@XZ 1000c420 f   BncsStore.obj
 0001:0000b450       ?checkChange@BncsStore@@QAEXAA_N@Z 1000c450 f   BncsStore.obj
 0001:0000b480       ?derefAndDelete@?$QValueListPrivate@VQString@@@@QAEXXZ 1000c480 f i BncsStore.obj
 0001:0000b4a0       ?_Lbound@?$_Tree@VQString@@U?$pair@$$CBVQString@@V1@@std@@U_Kfn@?$map@VQString@@V1@U?$less@VQString@@@std@@V?$allocator@VQString@@@3@@3@U?$less@VQString@@@3@V?$allocator@VQString@@@3@@std@@IBEPAU_Node@12@ABVQString@@@Z 1000c4a0 f i BncsStore.obj
 0001:0000b4f0       ?find@?$QValueListPrivate@VQString@@@@QBEPAV?$QValueListNode@VQString@@@@PAV2@ABVQString@@@Z 1000c4f0 f i BncsStore.obj
 0001:0000b530       ??0?$QValueListPrivate@VQString@@@@QAE@ABV0@@Z 1000c530 f i BncsStore.obj
 0001:0000b690       ??0cBNCSPoll@@QAE@PAVbncs_input@@@Z 1000c690 f   cBNCSPoll.obj
 0001:0000b810       ??_GcBNCSPoll@@UAEPAXI@Z   1000c810 f i cBNCSPoll.obj
 0001:0000b810       ??_EcBNCSPoll@@UAEPAXI@Z   1000c810 f i cBNCSPoll.obj
 0001:0000b830       ?start@cBNCSPoll@@QAEXXZ   1000c830 f   cBNCSPoll.obj
 0001:0000b8f0       ??1cBNCSPoll@@UAE@XZ       1000c8f0 f   cBNCSPoll.obj
 0001:0000bb20       ??1?$map@HPAVcPollStore@@U?$less@H@std@@V?$allocator@PAVcPollStore@@@3@@std@@QAE@XZ 1000cb20 f i cBNCSPoll.obj
 0001:0000bc10       ?Debug@cBNCSPoll@@AAAXPADZZ 1000cc10 f   cBNCSPoll.obj
 0001:0000bc90       ?addToPollList@cBNCSPoll@@QAE_NDHH@Z 1000cc90 f   cBNCSPoll.obj
 0001:0000bf40       ?CSIRegister@cBNCSPoll@@AAE_NXZ 1000cf40 f   cBNCSPoll.obj
 0001:0000bfa0       ?notify@cBNCSPoll@@EAEJPAVcPanel@@PBD@Z 1000cfa0 f   cBNCSPoll.obj
 0001:0000c1d0       ?timerEvent@cBNCSPoll@@EAEXPAVQTimerEvent@@@Z 1000d1d0 f   cBNCSPoll.obj
 0001:0000c2b0       ?PrintStoreMap@cBNCSPoll@@AAEXXZ 1000d2b0 f   cBNCSPoll.obj
 0001:0000c350       ?getFirstDeviceAndRange@cBNCSPoll@@AAEHH@Z 1000d350 f   cBNCSPoll.obj
 0001:0000c3f0       ?getFirstValidRange@cBNCSPoll@@AAE_NAAHAAUstRange@@AAD@Z 1000d3f0 f   cBNCSPoll.obj
 0001:0000c490       ?getNextRange@cBNCSPoll@@AAEHXZ 1000d490 f   cBNCSPoll.obj
 0001:0000cb40       ?pollCurrentDeviceRange@cBNCSPoll@@AAEXXZ 1000db40 f   cBNCSPoll.obj
 0001:0000cc50       ?createInitialMissedLists@cBNCSPoll@@AAEXXZ 1000dc50 f   cBNCSPoll.obj
 0001:0000cd30       ?calculateRanges@cBNCSPoll@@AAE_NXZ 1000dd30 f   cBNCSPoll.obj
 0001:0000ce10       ?checkRangeCompleted@cBNCSPoll@@AAE_NHABUstRange@@@Z 1000de10 f   cBNCSPoll.obj
 0001:0000ce80       ?addToMissedList@cBNCSPoll@@QAE_NDHH@Z 1000de80 f   cBNCSPoll.obj
 0001:0000d050       ?restartPoll@cBNCSPoll@@QAEXXZ 1000e050 f   cBNCSPoll.obj
 0001:0000d0a0       ?nextPollNow@cBNCSPoll@@QAEXXZ 1000e0a0 f   cBNCSPoll.obj
 0001:0000d0f0       ?getPollProgress@cBNCSPoll@@QAEXAAH0AA_N@Z 1000e0f0 f   cBNCSPoll.obj
 0001:0000d210       ?begin@?$_Tree@HU?$pair@$$CBHPAVcPollStore@@@std@@U_Kfn@?$map@HPAVcPollStore@@U?$less@H@std@@V?$allocator@PAVcPollStore@@@3@@2@U?$less@H@2@V?$allocator@PAVcPollStore@@@2@@std@@QAE?AViterator@12@XZ 1000e210 f i cBNCSPoll.obj
 0001:0000d220       ?erase@?$_Tree@HU?$pair@$$CBHPAVcPollStore@@@std@@U_Kfn@?$map@HPAVcPollStore@@U?$less@H@std@@V?$allocator@PAVcPollStore@@@3@@2@U?$less@H@2@V?$allocator@PAVcPollStore@@@2@@std@@QAE?AViterator@12@V312@0@Z 1000e220 f i cBNCSPoll.obj
 0001:0000d2f0       ?_Inc@const_iterator@?$_Tree@HU?$pair@$$CBHPAVcPollStore@@@std@@U_Kfn@?$map@HPAVcPollStore@@U?$less@H@std@@V?$allocator@PAVcPollStore@@@3@@2@U?$less@H@2@V?$allocator@PAVcPollStore@@@2@@std@@QAEXXZ 1000e2f0 f i cBNCSPoll.obj
 0001:0000d340       ??0?$pair@Viterator@?$_Tree@HU?$pair@$$CBHPAVcPollStore@@@std@@U_Kfn@?$map@HPAVcPollStore@@U?$less@H@std@@V?$allocator@PAVcPollStore@@@3@@2@U?$less@H@2@V?$allocator@PAVcPollStore@@@2@@std@@_N@std@@QAE@ABViterator@?$_Tree@HU?$pair@$$CBHPAVcPollStore@@@std@@U_Kfn@?$map@HPAVcPollStore@@U?$less@H@std@@V?$allocator@PAVcPollStore@@@3@@2@U?$less@H@2@V?$allocator@PAVcPollStore@@@2@@1@AB_N@Z 1000e340 f i cBNCSPoll.obj
 0001:0000d360       ?erase@?$_Tree@HU?$pair@$$CBHPAVcPollStore@@@std@@U_Kfn@?$map@HPAVcPollStore@@U?$less@H@std@@V?$allocator@PAVcPollStore@@@3@@2@U?$less@H@2@V?$allocator@PAVcPollStore@@@2@@std@@QAE?AViterator@12@V312@@Z 1000e360 f i cBNCSPoll.obj
 0001:0000d760       ?lower_bound@?$_Tree@HU?$pair@$$CBHPAVcPollStore@@@std@@U_Kfn@?$map@HPAVcPollStore@@U?$less@H@std@@V?$allocator@PAVcPollStore@@@3@@2@U?$less@H@2@V?$allocator@PAVcPollStore@@@2@@std@@QAE?AViterator@12@ABH@Z 1000e760 f i cBNCSPoll.obj
 0001:0000d7a0       ?_Erase@?$_Tree@HU?$pair@$$CBHPAVcPollStore@@@std@@U_Kfn@?$map@HPAVcPollStore@@U?$less@H@std@@V?$allocator@PAVcPollStore@@@3@@2@U?$less@H@2@V?$allocator@PAVcPollStore@@@2@@std@@IAEXPAU_Node@12@@Z 1000e7a0 f i cBNCSPoll.obj
 0001:0000d7e0       ?_Insert@?$_Tree@HU?$pair@$$CBHPAVcPollStore@@@std@@U_Kfn@?$map@HPAVcPollStore@@U?$less@H@std@@V?$allocator@PAVcPollStore@@@3@@2@U?$less@H@2@V?$allocator@PAVcPollStore@@@2@@std@@IAE?AViterator@12@PAU_Node@12@0ABU?$pair@$$CBHPAVcPollStore@@@2@@Z 1000e7e0 f i cBNCSPoll.obj
 0001:0000da50       ?_Min@?$_Tree@HU?$pair@$$CBHPAVcPollStore@@@std@@U_Kfn@?$map@HPAVcPollStore@@U?$less@H@std@@V?$allocator@PAVcPollStore@@@3@@2@U?$less@H@2@V?$allocator@PAVcPollStore@@@2@@std@@KAPAU_Node@12@PAU312@@Z 1000ea50 f i cBNCSPoll.obj
 0001:0000da70       ?_Lbound@?$_Tree@HU?$pair@$$CBHPAVcPollStore@@@std@@U_Kfn@?$map@HPAVcPollStore@@U?$less@H@std@@V?$allocator@PAVcPollStore@@@3@@2@U?$less@H@2@V?$allocator@PAVcPollStore@@@2@@std@@IBEPAU_Node@12@ABH@Z 1000ea70 f i cBNCSPoll.obj
 0001:0000daa0       ?_Dec@const_iterator@?$_Tree@HU?$pair@$$CBHPAVcPollStore@@@std@@U_Kfn@?$map@HPAVcPollStore@@U?$less@H@std@@V?$allocator@PAVcPollStore@@@3@@2@U?$less@H@2@V?$allocator@PAVcPollStore@@@2@@std@@QAEXXZ 1000eaa0 f i cBNCSPoll.obj
 0001:0000db00       ?_Construct@std@@YAXPAU?$pair@$$CBHPAVcPollStore@@@1@ABU21@@Z 1000eb00 f i cBNCSPoll.obj
 0001:0000db20       ??_EcBNCSPoll@@WHE@AEPAXI@Z 1000eb20 f i cBNCSPoll.obj
 0001:0000dc30       ?setLocalConfig@cDocument@@SAX_NABVQString@@@Z 1000ec30 f   cDocument.obj
 0001:0000dc50       ??0cDocument@@QAE@PAUIDebug@@ABVQString@@@Z 1000ec50 f   cDocument.obj
 0001:0000dda0       ??_EcDocument@@UAEPAXI@Z   1000eda0 f i cDocument.obj
 0001:0000dda0       ??_GcDocument@@UAEPAXI@Z   1000eda0 f i cDocument.obj
 0001:0000ddc0       ??1cDocument@@UAE@XZ       1000edc0 f   cDocument.obj
 0001:0000dea0       ?Debug@cDocument@@AAAXPADZZ 1000eea0 f   cDocument.obj
 0001:0000df80       ?readDomDoc@cDocument@@AAE_NABVQString@@AAVQDomDocument@@@Z 1000ef80 f   cDocument.obj
 0001:0000e040       ?loadInstances@cDocument@@AAE_NABVQString@@@Z 1000f040 f   cDocument.obj
 0001:0000eae0       ??_GQDomElement@@UAEPAXI@Z 1000fae0 f i cDocument.obj
 0001:0000eae0       ??_EQDomElement@@UAEPAXI@Z 1000fae0 f i cDocument.obj
 0001:0000eb00       ?getDeviceAndSlot@cDocument@@QAE_NPAH0PADABVQString@@2@Z 1000fb00 f   cDocument.obj
 0001:0000edf0       ?loadDeviceFile@cDocument@@AAEPAVQDomElement@@ABVQString@@@Z 1000fdf0 f   cDocument.obj
 0001:0000efa0       ?doInstanceSearch@cDocument@@QAE_NABVQString@@PAH1PAV2@@Z 1000ffa0 f   cDocument.obj
 0001:0000f0a0       ?getComplex@cDocument@@AAE?AVQString@@ABV2@@Z 100100a0 f   cDocument.obj
 0001:0000f0f0       ?doDeviceTypeSearch@cDocument@@AAE_NABVQString@@0PAHPAD@Z 100100f0 f   cDocument.obj
 0001:0000f630       ?doComplexSearch@cDocument@@AAE_NABVQString@@00PAV2@1@Z 10010630 f   cDocument.obj
 0001:0000fdd0       ?loadComplexFile@cDocument@@AAEPAVQDomElement@@ABVQString@@@Z 10010dd0 f   cDocument.obj
 0001:0000fef0       ??1?$QDict@VQDomElement@@@@UAE@XZ 10010ef0 f i cDocument.obj
 0001:0000ff50       ?count@?$QDict@VQDomElement@@@@UBEIXZ 10010f50 f i cDocument.obj
 0001:0000ff60       ?clear@?$QDict@VQDomElement@@@@UAEXXZ 10010f60 f i cDocument.obj
 0001:0000ff70       ??1?$QDict@VcInstanceInfo@@@@UAE@XZ 10010f70 f i cDocument.obj
 0001:0000ffd0       ?count@?$QDict@VcInstanceInfo@@@@UBEIXZ 10010fd0 f i cDocument.obj
 0001:0000ffe0       ?clear@?$QDict@VcInstanceInfo@@@@UAEXXZ 10010fe0 f i cDocument.obj
 0001:0000fff0       ??_E?$QDict@VQDomElement@@@@UAEPAXI@Z 10010ff0 f i cDocument.obj
 0001:0000fff0       ??_G?$QDict@VQDomElement@@@@UAEPAXI@Z 10010ff0 f i cDocument.obj
 0001:00010010       ??_E?$QDict@VcInstanceInfo@@@@UAEPAXI@Z 10011010 f i cDocument.obj
 0001:00010010       ??_G?$QDict@VcInstanceInfo@@@@UAEPAXI@Z 10011010 f i cDocument.obj
 0001:00010030       ?deleteItem@?$QDict@VQDomElement@@@@EAEXPAX@Z 10011030 f i cDocument.obj
 0001:00010050       ?deleteItem@?$QDict@VcInstanceInfo@@@@EAEXPAX@Z 10011050 f i cDocument.obj
 0001:00010070       ??0cInstanceInfo@@QAE@XZ   10011070 f   cInstanceInfo.obj
 0001:000100f0       ??_GcInstanceInfo@@UAEPAXI@Z 100110f0 f i cInstanceInfo.obj
 0001:000100f0       ??_EcInstanceInfo@@UAEPAXI@Z 100110f0 f i cInstanceInfo.obj
 0001:00010110       ??1cInstanceInfo@@UAE@XZ   10011110 f   cInstanceInfo.obj
 0001:00010210       ??1cPollStore@@UAE@XZ      10011210 f   cPollStore.obj
 0001:00010300       ??_EcPollStore@@UAEPAXI@Z  10011300 f i cPollStore.obj
 0001:00010300       ??_GcPollStore@@UAEPAXI@Z  10011300 f i cPollStore.obj
 0001:00010320       ??0cPollStore@@QAE@QAVbncs_input@@DHH@Z 10011320 f   cPollStore.obj
 0001:00010420       ?Debug@cPollStore@@AAAXPADZZ 10011420 f   cPollStore.obj
 0001:000104a0       ?Print@cPollStore@@QAEXH@Z 100114a0 f   cPollStore.obj
 0001:000104d0       ?addRawSlot@cPollStore@@QAEXH@Z 100114d0 f   cPollStore.obj
 0001:00010520       ?addMissedSlot@cPollStore@@QAEXH@Z 10011520 f   cPollStore.obj
 0001:00010570       ?removeSlotFromMissedList@cPollStore@@QAE_NH@Z 10011570 f   cPollStore.obj
 0001:000105c0       ?getFirstRange@cPollStore@@QAE_NAAUstRange@@AAD@Z 100115c0 f   cPollStore.obj
 0001:00010600       ?getFirstValidRange@cPollStore@@QAE_NAAHAADAAUstRange@@@Z 10011600 f   cPollStore.obj
 0001:00010660       ?findCurrentRange@cPollStore@@AAEXABUstRange@@AAVconst_iterator@?$list@PAUstRange@@V?$allocator@PAUstRange@@@std@@@std@@@Z 10011660 f   cPollStore.obj
 0001:000106a0       ?moreRangesOnThisDevice@cPollStore@@QAE_NABUstRange@@AAU2@@Z 100116a0 f   cPollStore.obj
 0001:000106f0       ?copyRawToMissed@cPollStore@@QAEXXZ 100116f0 f   cPollStore.obj
 0001:000107d0       ?calculateRange@cPollStore@@QAEXAA_N@Z 100117d0 f   cPollStore.obj
 0001:00010b00       ?checkRangeCompleted@cPollStore@@QAE_NABUstRange@@@Z 10011b00 f   cPollStore.obj
 0001:00010b40       ?getRange@cPollStore@@QAE_NAAUstRange@@AAD@Z 10011b40 f   cPollStore.obj
 0001:00010b80       ?getPollProgress@cPollStore@@QAEXAAH0AA_N@Z 10011b80 f   cPollStore.obj
 0001:00010ba0       ?getDevice@cPollStore@@QAEXAAHAAD@Z 10011ba0 f   cPollStore.obj
 0001:00010bc0       ??1?$list@PAUstRange@@V?$allocator@PAUstRange@@@std@@@std@@QAE@XZ 10011bc0 f i cPollStore.obj
 0001:00010c10       ??0?$list@HV?$allocator@H@std@@@std@@QAE@ABV?$allocator@H@1@@Z 10011c10 f i cPollStore.obj
 0001:00010c40       ??1?$list@HV?$allocator@H@std@@@std@@QAE@XZ 10011c40 f i cPollStore.obj
 0001:00010c90       ?begin@?$list@HV?$allocator@H@std@@@std@@QAE?AViterator@12@XZ 10011c90 f i cPollStore.obj
 0001:00010ca0       ?erase@?$list@HV?$allocator@H@std@@@std@@QAE?AViterator@12@V312@@Z 10011ca0 f i cPollStore.obj
 0001:00010ce0       ?sort@?$list@HV?$allocator@H@std@@@std@@QAEXXZ 10011ce0 f i cPollStore.obj
 0001:00010fb0       ??_F?$list@HV?$allocator@H@std@@@std@@QAEXXZ 10011fb0 f i cPollStore.obj
 0001:00010fe0       ?insert@?$list@PAUstRange@@V?$allocator@PAUstRange@@@std@@@std@@QAE?AViterator@12@V312@ABQAUstRange@@@Z 10011fe0 f i cPollStore.obj
 0001:00011040       ?erase@?$list@PAUstRange@@V?$allocator@PAUstRange@@@std@@@std@@QAE?AViterator@12@V312@0@Z 10012040 f i cPollStore.obj
 0001:00011090       ?erase@?$list@HV?$allocator@H@std@@@std@@QAE?AViterator@12@V312@0@Z 10012090 f i cPollStore.obj
 0001:000110e0       ?swap@?$list@HV?$allocator@H@std@@@std@@QAEXAAV12@@Z 100120e0 f i cPollStore.obj
 0001:00011110       ?splice@?$list@HV?$allocator@H@std@@@std@@QAEXViterator@12@AAV12@0@Z 10012110 f i cPollStore.obj
 0001:00011170       ?merge@?$list@HV?$allocator@H@std@@@std@@QAEXAAV12@@Z 10012170 f i cPollStore.obj
 0001:00011240       ?erase@?$list@PAUstRange@@V?$allocator@PAUstRange@@@std@@@std@@QAE?AViterator@12@V312@@Z 10012240 f i cPollStore.obj
 0001:00011280       ?_Splice@?$list@HV?$allocator@H@std@@@std@@IAEXViterator@12@AAV12@00@Z 10012280 f i cPollStore.obj
 0001:00011340       ??0structured_exception@@QAE@ABU_EXCEPTION_POINTERS@@@Z 10012340 f   except.obj
 0001:00011360       ?install@structured_exception@@SAXXZ 10012360 f   except.obj
 0001:000113a0       ?what@structured_exception@@QBEIXZ 100123a0 f   except.obj
 0001:000113b0       ?where@structured_exception@@QBEPBXXZ 100123b0 f   except.obj
 0001:000113c0       ??0Holdoff@@QAE@XZ         100123c0 f   Holdoff.obj
 0001:000113e0       ??_GHoldoff@@UAEPAXI@Z     100123e0 f i Holdoff.obj
 0001:000113e0       ??_EHoldoff@@UAEPAXI@Z     100123e0 f i Holdoff.obj
 0001:00011400       ??1Holdoff@@UAE@XZ         10012400 f   Holdoff.obj
 0001:00011490       _DllMain@12                10012490 f   newbncs_acq.obj
 0001:000114c0       _createNewInput            100124c0 f   newbncs_acq.obj
 0001:000114f0       ??0CPollRange@@QAE@XZ      100124f0 f   PollRange.obj
 0001:00011510       ??_GCPollRange@@UAEPAXI@Z  10012510 f i PollRange.obj
 0001:00011510       ??_ECPollRange@@UAEPAXI@Z  10012510 f i PollRange.obj
 0001:00011530       ??1CPollRange@@UAE@XZ      10012530 f   PollRange.obj
 0001:00011540       ??0CPulseStretch@@QAE@XZ   10012540 f   PulseStretch.obj
 0001:00011560       ??_GCPulseStretch@@UAEPAXI@Z 10012560 f i PulseStretch.obj
 0001:00011560       ??_ECPulseStretch@@UAEPAXI@Z 10012560 f i PulseStretch.obj
 0001:00011580       ??1CPulseStretch@@UAE@XZ   10012580 f   PulseStretch.obj
 0001:00011590       ?checkConnectArgs@QObject@@MAE_NPBDPBV1@0@Z 10012590 f   qt-mt323:qt-mt323.dll
 0001:00011596       ?disconnectNotify@QObject@@MAEXPBD@Z 10012596 f   qt-mt323:qt-mt323.dll
 0001:0001159c       ?connectNotify@QObject@@MAEXPBD@Z 1001259c f   qt-mt323:qt-mt323.dll
 0001:000115a2       ?customEvent@QObject@@MAEXPAVQCustomEvent@@@Z 100125a2 f   qt-mt323:qt-mt323.dll
 0001:000115a8       ?childEvent@QObject@@MAEXPAVQChildEvent@@@Z 100125a8 f   qt-mt323:qt-mt323.dll
 0001:000115ae       ?property@QObject@@UBE?AVQVariant@@PBD@Z 100125ae f   qt-mt323:qt-mt323.dll
 0001:000115b4       ?setProperty@QObject@@UAE_NPBDABVQVariant@@@Z 100125b4 f   qt-mt323:qt-mt323.dll
 0001:000115ba       ?removeChild@QObject@@UAEXPAV1@@Z 100125ba f   qt-mt323:qt-mt323.dll
 0001:000115c0       ?insertChild@QObject@@UAEXPAV1@@Z 100125c0 f   qt-mt323:qt-mt323.dll
 0001:000115c6       ?setName@QObject@@UAEXPBD@Z 100125c6 f   qt-mt323:qt-mt323.dll
 0001:000115cc       ?eventFilter@QObject@@UAE_NPAV1@PAVQEvent@@@Z 100125cc f   qt-mt323:qt-mt323.dll
 0001:000115d2       ?event@QObject@@UAE_NPAVQEvent@@@Z 100125d2 f   qt-mt323:qt-mt323.dll
 0001:000115d8       ?qt_property@QObject@@UAE_NHHPAVQVariant@@@Z 100125d8 f   qt-mt323:qt-mt323.dll
 0001:000115de       ?qt_emit@QObject@@UAE_NHPAUQUObject@@@Z 100125de f   qt-mt323:qt-mt323.dll
 0001:000115e4       ?qt_invoke@QObject@@UAE_NHPAUQUObject@@@Z 100125e4 f   qt-mt323:qt-mt323.dll
 0001:000115ea       ?qt_cast@QObject@@UAEPAXPBD@Z 100125ea f   qt-mt323:qt-mt323.dll
 0001:000115f0       ?className@QObject@@UBEPBDXZ 100125f0 f   qt-mt323:qt-mt323.dll
 0001:000115f6       ?metaObject@QObject@@UBEPAVQMetaObject@@XZ 100125f6 f   qt-mt323:qt-mt323.dll
 0001:000115fc       ??1QStringList@@QAE@XZ     100125fc f   qt-mt323:qt-mt323.dll
 0001:00011602       ??1QString@@QAE@XZ         10012602 f   qt-mt323:qt-mt323.dll
 0001:00011608       ??1QObject@@UAE@XZ         10012608 f   qt-mt323:qt-mt323.dll
 0001:0001160e       ?latin1@QString@@QBEPBDXZ  1001260e f   qt-mt323:qt-mt323.dll
 0001:00011614       ??0QString@@QAE@PBD@Z      10012614 f   qt-mt323:qt-mt323.dll
 0001:0001161a       ?makeSharedNull@QString@@CAPAUQStringData@@XZ 1001261a f   qt-mt323:qt-mt323.dll
 0001:00011620       ??0QObject@@QAE@PAV0@PBD@Z 10012620 f   qt-mt323:qt-mt323.dll
 0001:00011626       ?deleteSelf@QStringData@@QAEXXZ 10012626 f   qt-mt323:qt-mt323.dll
 0001:0001162c       ?killTimer@QObject@@QAEXH@Z 1001262c f   qt-mt323:qt-mt323.dll
 0001:00011632       ?startTimer@QObject@@QAEHH@Z 10012632 f   qt-mt323:qt-mt323.dll
 0001:00011638       ??1QRegExp@@QAE@XZ         10012638 f   qt-mt323:qt-mt323.dll
 0001:0001163e       ??1QTextStream@@UAE@XZ     1001263e f   qt-mt323:qt-mt323.dll
 0001:00011644       ?close@QFile@@UAEXXZ       10012644 f   qt-mt323:qt-mt323.dll
 0001:0001164a       ??0QString@@QAE@ABV0@@Z    1001264a f   qt-mt323:qt-mt323.dll
 0001:00011650       ?detachInternal@?$QValueList@VQString@@@@AAEXXZ 10012650 f   qt-mt323:qt-mt323.dll
 0001:00011656       ?split@QStringList@@SA?AV1@ABVQString@@0_N@Z 10012656 f   qt-mt323:qt-mt323.dll
 0001:0001165c       ?cap@QRegExp@@QAE?AVQString@@H@Z 1001265c f   qt-mt323:qt-mt323.dll
 0001:00011662       ?search@QRegExp@@QBEHABVQString@@H@Z 10012662 f   qt-mt323:qt-mt323.dll
 0001:00011668       ??BQCharRef@@QBE?AVQChar@@XZ 10012668 f   qt-mt323:qt-mt323.dll
 0001:0001166e       ??AQString@@QAE?AVQCharRef@@H@Z 1001266e f   qt-mt323:qt-mt323.dll
 0001:00011674       ?readLine@QTextStream@@QAE?AVQString@@XZ 10012674 f   qt-mt323:qt-mt323.dll
 0001:0001167a       ??0QTextStream@@QAE@PAVQIODevice@@@Z 1001267a f   qt-mt323:qt-mt323.dll
 0001:00011680       ??0QRegExp@@QAE@ABVQString@@_N1@Z 10012680 f   qt-mt323:qt-mt323.dll
 0001:00011686       ?open@QFile@@UAE_NH@Z      10012686 f   qt-mt323:qt-mt323.dll
 0001:0001168c       ??1QFileInfo@@QAE@XZ       1001268c f   qt-mt323:qt-mt323.dll
 0001:00011692       ??1QDir@@UAE@XZ            10012692 f   qt-mt323:qt-mt323.dll
 0001:00011698       ??1QFile@@UAE@XZ           10012698 f   qt-mt323:qt-mt323.dll
 0001:0001169e       ?exists@QFile@@QBE_NXZ     1001269e f   qt-mt323:qt-mt323.dll
 0001:000116a4       ?debug@@YAXPBDZZ           100126a4 f   qt-mt323:qt-mt323.dll
 0001:000116aa       ??0QFile@@QAE@ABVQString@@@Z 100126aa f   qt-mt323:qt-mt323.dll
 0001:000116b0       ?dirName@QDir@@UBE?AVQString@@XZ 100126b0 f   qt-mt323:qt-mt323.dll
 0001:000116b6       ??0QDir@@QAE@ABVQString@@0HH@Z 100126b6 f   qt-mt323:qt-mt323.dll
 0001:000116bc       ??YQString@@QAEAAV0@PBD@Z  100126bc f   qt-mt323:qt-mt323.dll
 0001:000116c2       ?dirPath@QFileInfo@@QBE?AVQString@@_N@Z 100126c2 f   qt-mt323:qt-mt323.dll
 0001:000116c8       ??0QFileInfo@@QAE@ABVQString@@@Z 100126c8 f   qt-mt323:qt-mt323.dll
 0001:000116ce       ??H@YA?BVQString@@ABV0@PBD@Z 100126ce f   qt-mt323:qt-mt323.dll
 0001:000116d4       ?mid@QString@@QBE?AV1@II@Z 100126d4 f   qt-mt323:qt-mt323.dll
 0001:000116da       ?right@QString@@QBE?AV1@I@Z 100126da f   qt-mt323:qt-mt323.dll
 0001:000116e0       ??4QString@@QAEAAV0@ABV0@@Z 100126e0 f   qt-mt323:qt-mt323.dll
 0001:000116e6       ?toInt@QString@@QBEHPA_NH@Z 100126e6 f   qt-mt323:qt-mt323.dll
 0001:000116ec       ??8@YA_NABVQString@@PBD@Z  100126ec f   qt-mt323:qt-mt323.dll
 0001:000116f2       ?section@QString@@QBE?AV1@DHHH@Z 100126f2 f   qt-mt323:qt-mt323.dll
 0001:000116f8       ??4QString@@QAEAAV0@PBD@Z  100126f8 f   qt-mt323:qt-mt323.dll
 0001:000116fe       ?start@QTime@@QAEXXZ       100126fe f   qt-mt323:qt-mt323.dll
 0001:00011704       ?toString@QTime@@QBE?AVQString@@ABV2@@Z 10012704 f   qt-mt323:qt-mt323.dll
 0001:0001170a       ?addMSecs@QTime@@QBE?AV1@H@Z 1001270a f   qt-mt323:qt-mt323.dll
 0001:00011710       ?addSecs@QTime@@QBE?AV1@H@Z 10012710 f   qt-mt323:qt-mt323.dll
 0001:00011716       ?currentTime@QTime@@SA?AV1@XZ 10012716 f   qt-mt323:qt-mt323.dll
 0001:0001171c       ?elapsed@QTime@@QBEHXZ     1001271c f   qt-mt323:qt-mt323.dll
 0001:00011722       ?arg@QString@@QBE?AV1@IHH@Z 10012722 f   qt-mt323:qt-mt323.dll
 0001:00011728       ?arg@QString@@QBE?AV1@HHH@Z 10012728 f   qt-mt323:qt-mt323.dll
 0001:0001172e       ?arg@QString@@QBE?AV1@ABV1@H@Z 1001272e f   qt-mt323:qt-mt323.dll
 0001:00011734       ?qDebug@@YAXPBDZZ          10012734 f   qt-mt323:qt-mt323.dll
 0001:0001173a       ?ascii@QString@@QBEPBDXZ   1001273a f   qt-mt323:qt-mt323.dll
 0001:00011740       ??H@YA?BVQString@@PBDABV0@@Z 10012740 f   qt-mt323:qt-mt323.dll
 0001:00011746       ?end@?$QValueList@VQString@@@@QAE?AV?$QValueListIterator@VQString@@@@XZ 10012746 f   qt-mt323:qt-mt323.dll
 0001:0001174c       ?arg@QString@@QBE?AV1@DH@Z 1001274c f   qt-mt323:qt-mt323.dll
 0001:00011752       ??1?$QMemArray@H@@UAE@XZ   10012752 f   qt-mt323:qt-mt323.dll
 0001:00011758       ??1?$QMemArray@_N@@UAE@XZ  10012758 f   qt-mt323:qt-mt323.dll
 0001:0001175e       ??1?$QMemArray@D@@UAE@XZ   1001275e f   qt-mt323:qt-mt323.dll
 0001:00011764       ??1?$QPtrList@D@@UAE@XZ    10012764 f   qt-mt323:qt-mt323.dll
 0001:0001176a       ??1?$QMemArray@VQPoint@@@@UAE@XZ 1001276a f   qt-mt323:qt-mt323.dll
 0001:00011770       ??1?$QPtrList@VQObject@@@@UAE@XZ 10012770 f   qt-mt323:qt-mt323.dll
 0001:00011776       ??M@YA_NABVQString@@0@Z    10012776 f   qt-mt323:qt-mt323.dll
 0001:0001177c       ??8@YA_NABVQString@@0@Z    1001277c f   qt-mt323:qt-mt323.dll
 0001:00011782       ?qWarning@@YAXPBDZZ        10012782 f   qt-mt323:qt-mt323.dll
 0001:00011788       ??0QString@@QAE@XZ         10012788 f   qt-mt323:qt-mt323.dll
 0001:0001178e       ?left@QString@@QBE?AV1@I@Z 1001278e f   qt-mt323:qt-mt323.dll
 0001:00011794       ?toDouble@QString@@QBENPA_N@Z 10012794 f   qt-mt323:qt-mt323.dll
 0001:0001179a       ?split@QStringList@@SA?AV1@ABVQChar@@ABVQString@@_N@Z 1001279a f   qt-mt323:qt-mt323.dll
 0001:000117a0       ?remove@QString@@QAEAAV1@VQChar@@@Z 100127a0 f   qt-mt323:qt-mt323.dll
 0001:000117a6       ?find@QString@@QBEHVQChar@@H_N@Z 100127a6 f   qt-mt323:qt-mt323.dll
 0001:000117ac       ??0QChar@@QAE@D@Z          100127ac f   qt-mt323:qt-mt323.dll
 0001:000117b2       ?arg@QString@@QBE?AV1@NHDH@Z 100127b2 f   qt-mt323:qt-mt323.dll
 0001:000117b8       ??0?$QValueListIterator@VQString@@@@QAE@ABV0@@Z 100127b8 f   qt-mt323:qt-mt323.dll
 0001:000117be       ?write@QGDict@@MBEAAVQDataStream@@AAV2@PAX@Z 100127be f   qt-mt323:qt-mt323.dll
 0001:000117c4       ?read@QGDict@@MAEAAVQDataStream@@AAV2@AAPAX@Z 100127c4 f   qt-mt323:qt-mt323.dll
 0001:000117ca       ?newItem@QPtrCollection@@MAEPAXPAX@Z 100127ca f   qt-mt323:qt-mt323.dll
 0001:000117d0       ??YQString@@QAEAAV0@ABV0@@Z 100127d0 f   qt-mt323:qt-mt323.dll
 0001:000117d6       ??0QGDict@@IAE@IW4KeyType@0@_N1@Z 100127d6 f   qt-mt323:qt-mt323.dll
 0001:000117dc       ??1QGDict@@MAE@XZ          100127dc f   qt-mt323:qt-mt323.dll
 0001:000117e2       ?clear@QGDict@@MAEXXZ      100127e2 f   qt-mt323:qt-mt323.dll
 0001:000117e8       ?setContent@QDomDocument@@QAE_NPAVQIODevice@@PAVQString@@PAH2@Z 100127e8 f   qt-mt323:qt-mt323.dll
 0001:000117ee       ?elementsByTagNameNS@QDomElement@@UBE?AVQDomNodeList@@ABVQString@@0@Z 100127ee f   qt-mt323:qt-mt323.dll
 0001:000117f4       ?elementsByTagName@QDomElement@@UBE?AVQDomNodeList@@ABVQString@@@Z 100127f4 f   qt-mt323:qt-mt323.dll
 0001:000117fa       ?isComment@QDomNode@@UBE_NXZ 100127fa f   qt-mt323:qt-mt323.dll
 0001:00011800       ?isCharacterData@QDomNode@@UBE_NXZ 10012800 f   qt-mt323:qt-mt323.dll
 0001:00011806       ?isProcessingInstruction@QDomNode@@UBE_NXZ 10012806 f   qt-mt323:qt-mt323.dll
 0001:0001180c       ?isNotation@QDomNode@@UBE_NXZ 1001280c f   qt-mt323:qt-mt323.dll
 0001:00011812       ?isEntity@QDomNode@@UBE_NXZ 10012812 f   qt-mt323:qt-mt323.dll
 0001:00011818       ?isText@QDomNode@@UBE_NXZ  10012818 f   qt-mt323:qt-mt323.dll
 0001:0001181e       ?isEntityReference@QDomNode@@UBE_NXZ 1001281e f   qt-mt323:qt-mt323.dll
 0001:00011824       ?isElement@QDomElement@@UBE_NXZ 10012824 f   qt-mt323:qt-mt323.dll
 0001:0001182a       ?isDocumentType@QDomNode@@UBE_NXZ 1001282a f   qt-mt323:qt-mt323.dll
 0001:00011830       ?isDocument@QDomNode@@UBE_NXZ 10012830 f   qt-mt323:qt-mt323.dll
 0001:00011836       ?isDocumentFragment@QDomNode@@UBE_NXZ 10012836 f   qt-mt323:qt-mt323.dll
 0001:0001183c       ?isCDATASection@QDomNode@@UBE_NXZ 1001283c f   qt-mt323:qt-mt323.dll
 0001:00011842       ?isAttr@QDomNode@@UBE_NXZ  10012842 f   qt-mt323:qt-mt323.dll
 0001:00011848       ?setPrefix@QDomNode@@UAEXABVQString@@@Z 10012848 f   qt-mt323:qt-mt323.dll
 0001:0001184e       ?prefix@QDomNode@@UBE?AVQString@@XZ 1001284e f   qt-mt323:qt-mt323.dll
 0001:00011854       ?setNodeValue@QDomNode@@UAEXABVQString@@@Z 10012854 f   qt-mt323:qt-mt323.dll
 0001:0001185a       ?nodeValue@QDomNode@@UBE?AVQString@@XZ 1001285a f   qt-mt323:qt-mt323.dll
 0001:00011860       ?hasAttributes@QDomNode@@UBE_NXZ 10012860 f   qt-mt323:qt-mt323.dll
 0001:00011866       ?localName@QDomNode@@UBE?AVQString@@XZ 10012866 f   qt-mt323:qt-mt323.dll
 0001:0001186c       ?namespaceURI@QDomNode@@UBE?AVQString@@XZ 1001286c f   qt-mt323:qt-mt323.dll
 0001:00011872       ?ownerDocument@QDomNode@@UBE?AVQDomDocument@@XZ 10012872 f   qt-mt323:qt-mt323.dll
 0001:00011878       ?attributes@QDomElement@@UBE?AVQDomNamedNodeMap@@XZ 10012878 f   qt-mt323:qt-mt323.dll
 0001:0001187e       ?nextSibling@QDomNode@@UBE?AV1@XZ 1001287e f   qt-mt323:qt-mt323.dll
 0001:00011884       ?previousSibling@QDomNode@@UBE?AV1@XZ 10012884 f   qt-mt323:qt-mt323.dll
 0001:0001188a       ?lastChild@QDomNode@@UBE?AV1@XZ 1001288a f   qt-mt323:qt-mt323.dll
 0001:00011890       ?firstChild@QDomNode@@UBE?AV1@XZ 10012890 f   qt-mt323:qt-mt323.dll
 0001:00011896       ?childNodes@QDomNode@@UBE?AVQDomNodeList@@XZ 10012896 f   qt-mt323:qt-mt323.dll
 0001:0001189c       ?parentNode@QDomNode@@UBE?AV1@XZ 1001289c f   qt-mt323:qt-mt323.dll
 0001:000118a2       ?nodeType@QDomElement@@UBE?AW4NodeType@QDomNode@@XZ 100128a2 f   qt-mt323:qt-mt323.dll
 0001:000118a8       ?nodeName@QDomNode@@UBE?AVQString@@XZ 100128a8 f   qt-mt323:qt-mt323.dll
 0001:000118ae       ?isSupported@QDomNode@@UBE_NABVQString@@0@Z 100128ae f   qt-mt323:qt-mt323.dll
 0001:000118b4       ?normalize@QDomNode@@UAEXXZ 100128b4 f   qt-mt323:qt-mt323.dll
 0001:000118ba       ?cloneNode@QDomNode@@UBE?AV1@_N@Z 100128ba f   qt-mt323:qt-mt323.dll
 0001:000118c0       ?hasChildNodes@QDomNode@@UBE_NXZ 100128c0 f   qt-mt323:qt-mt323.dll
 0001:000118c6       ?appendChild@QDomNode@@UAE?AV1@ABV1@@Z 100128c6 f   qt-mt323:qt-mt323.dll
 0001:000118cc       ?removeChild@QDomNode@@UAE?AV1@ABV1@@Z 100128cc f   qt-mt323:qt-mt323.dll
 0001:000118d2       ?replaceChild@QDomNode@@UAE?AV1@ABV1@0@Z 100128d2 f   qt-mt323:qt-mt323.dll
 0001:000118d8       ?insertAfter@QDomNode@@UAE?AV1@ABV1@0@Z 100128d8 f   qt-mt323:qt-mt323.dll
 0001:000118de       ?insertBefore@QDomNode@@UAE?AV1@ABV1@0@Z 100128de f   qt-mt323:qt-mt323.dll
 0001:000118e4       ??1QDomNode@@UAE@XZ        100128e4 f   qt-mt323:qt-mt323.dll
 0001:000118ea       ??4QDomNode@@QAEAAV0@ABV0@@Z 100128ea f   qt-mt323:qt-mt323.dll
 0001:000118f0       ?look_string@QGDict@@QAEPAXABVQString@@PAXH@Z 100128f0 f   qt-mt323:qt-mt323.dll
 0001:000118f6       ?section@QString@@QBE?AV1@PBDHHH@Z 100128f6 f   qt-mt323:qt-mt323.dll
 0001:000118fc       ?startsWith@QString@@QBE_NABV1@@Z 100128fc f   qt-mt323:qt-mt323.dll
 0001:00011902       ??1QDomElement@@UAE@XZ     10012902 f   qt-mt323:qt-mt323.dll
 0001:00011908       ?attribute@QDomElement@@QBE?AVQString@@ABV2@0@Z 10012908 f   qt-mt323:qt-mt323.dll
 0001:0001190e       ?toElement@QDomNode@@QAE?AVQDomElement@@XZ 1001290e f   qt-mt323:qt-mt323.dll
 0001:00011914       ?isNull@QDomNode@@QBE_NXZ  10012914 f   qt-mt323:qt-mt323.dll
 0001:0001191a       ??1QDomDocument@@UAE@XZ    1001291a f   qt-mt323:qt-mt323.dll
 0001:00011920       ??9@YA_NABVQString@@PBD@Z  10012920 f   qt-mt323:qt-mt323.dll
 0001:00011926       ?tagName@QDomElement@@QBE?AVQString@@XZ 10012926 f   qt-mt323:qt-mt323.dll
 0001:0001192c       ?documentElement@QDomDocument@@QBE?AVQDomElement@@XZ 1001292c f   qt-mt323:qt-mt323.dll
 0001:00011932       ??0?$QValueList@VQString@@@@QAE@XZ 10012932 f   qt-mt323:qt-mt323.dll
 0001:00011938       ??0QDomDocument@@QAE@XZ    10012938 f   qt-mt323:qt-mt323.dll
 0001:0001193e       ??9@YA_NABVQString@@0@Z    1001293e f   qt-mt323:qt-mt323.dll
 0001:00011944       ?upper@QString@@QBE?AV1@XZ 10012944 f   qt-mt323:qt-mt323.dll
 0001:0001194a       ??H@YA?BVQString@@ABV0@0@Z 1001294a f   qt-mt323:qt-mt323.dll
 0001:00011950       ??0cPanel@@QAE@XZ          10012950 f   panel:panelif.obj
 0001:000119b0       ??_GcPanel@@UAEPAXI@Z      100129b0 f i panel:panelif.obj
 0001:000119b0       ??_EcPanel@@UAEPAXI@Z      100129b0 f i panel:panelif.obj
 0001:000119d0       ?connect@cPanel@@QAEIPBD@Z 100129d0 f   panel:panelif.obj
 0001:00011b10       ??1cPanel@@UAE@XZ          10012b10 f   panel:panelif.obj
 0001:00011b60       ?showError@cPanel@@AAEXKQBD@Z 10012b60 f   panel:panelif.obj
 0001:00011be0       ?getstate@cPanel@@QAEIXZ   10012be0 f   panel:panelif.obj
 0001:00011bf0       ?setstate@cPanel@@QAEII@Z  10012bf0 f   panel:panelif.obj
 0001:00011c00       ?incrx@cPanel@@AAEXXZ      10012c00 f   panel:panelif.obj
 0001:00011c10       ?setcounters@cPanel@@QAEXPAK0@Z 10012c10 f   panel:panelif.obj
 0001:00011c30       ?tokenize@cPanel@@AAEIXZ   10012c30 f   panel:panelif.obj
 0001:00011d10       ?setcachestate@cPanel@@QAEXI@Z 10012d10 f   panel:panelif.obj
 0001:00011d30       ?getcachestate@cPanel@@QAEIXZ 10012d30 f   panel:panelif.obj
 0001:00011d50       ?cachetest@cPanel@@QAEHIII@Z 10012d50 f   panel:panelif.obj
 0001:00011d90       ?cacheflush@cPanel@@QAEXI@Z 10012d90 f   panel:panelif.obj
 0001:00011db0       ?getdbname@cPanel@@QAEXGGGPADH@Z 10012db0 f   panel:panelif.obj
 0001:00011df0       ?getdbindex@cPanel@@QAEHGGPBD@Z 10012df0 f   panel:panelif.obj
 0001:00011e40       ?setdbname@cPanel@@QAEXGGGPBDH@Z 10012e40 f   panel:panelif.obj
 0001:00011ee0       ?regtallyrange@cPanel@@QAEJIIIH@Z 10012ee0 f   panel:panelif.obj
 0001:00011f40       ?unregtallyrange@cPanel@@QAEJIII@Z 10012f40 f   panel:panelif.obj
 0001:00011fd0       ?txrtrcmd@cPanel@@QAEJPBDH@Z 10012fd0 f   panel:panelif.obj
 0001:000120b0       ?txinfocmd@cPanel@@QAEJPBDH@Z 100130b0 f   panel:panelif.obj
 0001:00012170       ?txgpicmd@cPanel@@QAEJPBDH@Z 10013170 f   panel:panelif.obj
 0001:00012220       ?getparamcount@cPanel@@QAEIXZ 10013220 f   panel:panelif.obj
 0001:00012230       ?getparam@cPanel@@QAEPADI@Z 10013230 f   panel:panelif.obj
 0001:00012240       ?ClientWndProcInt@cPanel@@EAGJPAUHWND__@@IIJ@Z 10013240 f   panel:panelif.obj
 0001:00012690       ?ClientWndProc@cPanel@@CGJPAUHWND__@@IIJ@Z 10013690 f   panel:panelif.obj
 0001:000126f0       ?getcachedata@cPanel@@QAEHIIPADI@Z 100136f0 f   panel:panelif.obj
 0001:00012760       ?getcacheindex@cPanel@@QAEHIIIPBD@Z 10013760 f   panel:panelif.obj
 0001:000127d0       ?txnetcmd@cPanel@@QAEJPBD@Z 100137d0 f   panel:panelif.obj
 0001:00012840       _BNCS32TxMessage           10013840 f   bncsif32:BNCSIF32.dll
 0001:00012846       _BNCS32RxMessage           10013846 f   bncsif32:BNCSIF32.dll
 0001:00012850       ??0asyncPost@@QAE@IJH@Z    10013850 f   asyncpost:asyncPost.obj
 0001:000128a0       ??_EasyncPost@@UAEPAXI@Z   100138a0 f i asyncpost:asyncPost.obj
 0001:000128a0       ??_GasyncPost@@UAEPAXI@Z   100138a0 f i asyncpost:asyncPost.obj
 0001:000128c0       ??1asyncPost@@UAE@XZ       100138c0 f   asyncpost:asyncPost.obj
 0001:000128e0       ?lParam@asyncPost@@QAEJXZ  100138e0 f   asyncpost:asyncPost.obj
 0001:000128f0       ?wParam@asyncPost@@QAEIXZ  100138f0 f   asyncpost:asyncPost.obj
 0001:00012900       ??0Init@ios_base@std@@QAE@XZ 10013900 f   msvcprt:MSVCP60.dll
 0001:00012906       ??1Init@ios_base@std@@QAE@XZ 10013906 f   msvcprt:MSVCP60.dll
 0001:0001290c       ??0_Winit@std@@QAE@XZ      1001390c f   msvcprt:MSVCP60.dll
 0001:00012912       ??1_Winit@std@@QAE@XZ      10013912 f   msvcprt:MSVCP60.dll
 0001:00012918       ??3@YAXPAX@Z               10013918 f   msvcprt:delop_s.obj
 0001:00012924       ??1_Lockit@std@@QAE@XZ     10013924 f   msvcprt:MSVCP60.dll
 0001:0001292a       ??0_Lockit@std@@QAE@XZ     1001392a f   msvcprt:MSVCP60.dll
 0001:00012930       __onexit                   10013930 f   MSVCRT:atonexit.obj
 0001:0001295c       _atexit                    1001395c f   MSVCRT:atonexit.obj
 0001:0001296e       __purecall                 1001396e f   MSVCRT:MSVCRT.dll
 0001:00012974       ??0type_info@@AAE@ABV0@@Z  10013974 f   MSVCRT:ti_inst.obj
 0001:0001297f       ??_Gtype_info@@UAEPAXI@Z   1001397f f i MSVCRT:ti_inst.obj
 0001:0001297f       ??_Etype_info@@UAEPAXI@Z   1001397f f i MSVCRT:ti_inst.obj
 0001:0001299b       ??4type_info@@AAEAAV0@ABV0@@Z 1001399b f   MSVCRT:ti_inst.obj
 0001:000129a0       _clock                     100139a0 f   MSVCRT:MSVCRT.dll
 0001:000129a6       _time                      100139a6 f   MSVCRT:MSVCRT.dll
 0001:000129ac       ??2@YAPAXI@Z               100139ac f   MSVCRT:MSVCRT.dll
 0001:000129b2       ___CxxFrameHandler         100139b2 f   MSVCRT:MSVCRT.dll
 0001:000129c0       __CxxThrowException@8      100139c0 f   MSVCRT:MSVCRT.dll
 0001:000129c6       _sprintf                   100139c6 f   MSVCRT:MSVCRT.dll
 0001:000129cc       _atoi                      100139cc f   MSVCRT:MSVCRT.dll
 0001:000129d2       _vsprintf                  100139d2 f   MSVCRT:MSVCRT.dll
 0001:000129e0       __alloca_probe             100139e0 f   MSVCRT:chkstk.obj
 0001:000129e0       __chkstk                   100139e0 f   MSVCRT:chkstk.obj
 0001:00012a10       _atof                      10013a10 f   MSVCRT:MSVCRT.dll
 0001:00012a16       ??_M@YGXPAXIHP6EX0@Z@Z     10013a16 f   MSVCRT:ehvecdtr.obj
 0001:00012a96       ?__ArrayUnwind@@YGXPAXIHP6EX0@Z@Z 10013a96 f   MSVCRT:ehvecdtr.obj
 0001:00012b0a       ??_L@YGXPAXIHP6EX0@Z1@Z    10013b0a f   MSVCRT:ehvecctr.obj
 0001:00012b8c       ?_set_se_translator@@YAP6AXIPAU_EXCEPTION_POINTERS@@@ZP6AXI0@Z@Z 10013b8c f   MSVCRT:MSVCRT.dll
 0001:00012b92       __CRT_INIT@12              10013b92 f   MSVCRT:crtdll.obj
 0001:00012c3d       __DllMainCRTStartup@12     10013c3d f   MSVCRT:crtdll.obj
 0001:00012cda       _getenv                    10013cda f   MSVCRT:MSVCRT.dll
 0001:00012ce0       _free                      10013ce0 f   MSVCRT:MSVCRT.dll
 0001:00012ce6       ___dllonexit               10013ce6 f   MSVCRT:MSVCRT.dll
 0001:00012cec       ??1type_info@@UAE@XZ       10013cec f   MSVCRT:MSVCRT.dll
 0001:00012cf2       __except_handler3          10013cf2 f   MSVCRT:MSVCRT.dll
 0001:00012cf8       ?terminate@@YAXXZ          10013cf8 f   MSVCRT:MSVCRT.dll
 0001:00012cfe       __initterm                 10013cfe f   MSVCRT:MSVCRT.dll
 0001:00012d04       _malloc                    10013d04 f   MSVCRT:MSVCRT.dll
 0001:00012d0a       _CreateMutexA@12           10013d0a f   kernel32:KERNEL32.dll
 0001:00012d10       _CloseHandle@4             10013d10 f   kernel32:KERNEL32.dll
 0001:00012d16       _ReleaseMutex@4            10013d16 f   kernel32:KERNEL32.dll
 0001:00012d1c       _WaitForSingleObject@8     10013d1c f   kernel32:KERNEL32.dll
 0001:00012d22       _GetModuleFileNameA@12     10013d22 f   kernel32:KERNEL32.dll
 0001:00012d28       _GetPrivateProfileIntA@16  10013d28 f   kernel32:KERNEL32.dll
 0001:00012d2e       _GetLastError@0            10013d2e f   kernel32:KERNEL32.dll
 0001:00012d34       _lstrcpynA@12              10013d34 f   kernel32:KERNEL32.dll
 0001:00012d3a       _LocalFree@4               10013d3a f   kernel32:KERNEL32.dll
 0001:00012d40       _OutputDebugStringA@4      10013d40 f   kernel32:KERNEL32.dll
 0001:00012d46       _FormatMessageA@28         10013d46 f   kernel32:KERNEL32.dll
 0001:00012d4c       _lstrlenA@4                10013d4c f   kernel32:KERNEL32.dll
 0001:00012d52       _lstrcatA@8                10013d52 f   kernel32:KERNEL32.dll
 0001:00012d58       _lstrcpyA@8                10013d58 f   kernel32:KERNEL32.dll
 0001:00012d5e       _lstrcmpA@8                10013d5e f   kernel32:KERNEL32.dll
 0001:00012d64       _CreateWindowExA@48        10013d64 f   user32:USER32.dll
 0001:00012d6a       _RegisterClassA@4          10013d6a f   user32:USER32.dll
 0001:00012d70       _DestroyWindow@4           10013d70 f   user32:USER32.dll
 0001:00012d76       _IsWindow@4                10013d76 f   user32:USER32.dll
 0001:00012d7c       _SendMessageA@16           10013d7c f   user32:USER32.dll
 0001:00012d82       _wsprintfA                 10013d82 f   user32:USER32.dll
 0001:00012d88       _DefWindowProcA@16         10013d88 f   user32:USER32.dll
 0001:00012d8e       _PostMessageA@16           10013d8e f   user32:USER32.dll
 0001:00012d94       _FindWindowA@8             10013d94 f   user32:USER32.dll
 0001:00012d9a       _SetWindowLongA@12         10013d9a f   user32:USER32.dll
 0001:00012da0       _GetWindowLongA@8          10013da0 f   user32:USER32.dll
 0001:00012da6       _GetStockObject@4          10013da6 f   gdi32:GDI32.dll
 0002:00000000       __imp__BNCS32RxMessage     10016000     bncsif32:BNCSIF32.dll
 0002:00000004       __imp__BNCS32TxMessage     10016004     bncsif32:BNCSIF32.dll
 0002:00000008       \177BNCSIF32_NULL_THUNK_DATA 10016008     bncsif32:BNCSIF32.dll
 0002:0000000c       __imp__GetStockObject@4    1001600c     gdi32:GDI32.dll
 0002:00000010       \177GDI32_NULL_THUNK_DATA  10016010     gdi32:GDI32.dll
 0002:00000014       __imp__lstrcpyA@8          10016014     kernel32:KERNEL32.dll
 0002:00000018       __imp__CloseHandle@4       10016018     kernel32:KERNEL32.dll
 0002:0000001c       __imp__ReleaseMutex@4      1001601c     kernel32:KERNEL32.dll
 0002:00000020       __imp__WaitForSingleObject@8 10016020     kernel32:KERNEL32.dll
 0002:00000024       __imp__GetModuleFileNameA@12 10016024     kernel32:KERNEL32.dll
 0002:00000028       __imp__GetPrivateProfileIntA@16 10016028     kernel32:KERNEL32.dll
 0002:0000002c       __imp__GetLastError@0      1001602c     kernel32:KERNEL32.dll
 0002:00000030       __imp__lstrcpynA@12        10016030     kernel32:KERNEL32.dll
 0002:00000034       __imp__LocalFree@4         10016034     kernel32:KERNEL32.dll
 0002:00000038       __imp__OutputDebugStringA@4 10016038     kernel32:KERNEL32.dll
 0002:0000003c       __imp__FormatMessageA@28   1001603c     kernel32:KERNEL32.dll
 0002:00000040       __imp__lstrcmpA@8          10016040     kernel32:KERNEL32.dll
 0002:00000044       __imp__CreateMutexA@12     10016044     kernel32:KERNEL32.dll
 0002:00000048       __imp__lstrcatA@8          10016048     kernel32:KERNEL32.dll
 0002:0000004c       __imp__lstrlenA@4          1001604c     kernel32:KERNEL32.dll
 0002:00000050       \177KERNEL32_NULL_THUNK_DATA 10016050     kernel32:KERNEL32.dll
 0002:00000054       __imp_??0_Lockit@std@@QAE@XZ 10016054     msvcprt:MSVCP60.dll
 0002:00000058       __imp_??1Init@ios_base@std@@QAE@XZ 10016058     msvcprt:MSVCP60.dll
 0002:0000005c       __imp_??0_Winit@std@@QAE@XZ 1001605c     msvcprt:MSVCP60.dll
 0002:00000060       __imp_??1_Winit@std@@QAE@XZ 10016060     msvcprt:MSVCP60.dll
 0002:00000064       __imp_??0Init@ios_base@std@@QAE@XZ 10016064     msvcprt:MSVCP60.dll
 0002:00000068       __imp_??1_Lockit@std@@QAE@XZ 10016068     msvcprt:MSVCP60.dll
 0002:0000006c       \177MSVCP60_NULL_THUNK_DATA 1001606c     msvcprt:MSVCP60.dll
 0002:00000070       __imp__clock               10016070     MSVCRT:MSVCRT.dll
 0002:00000074       __imp__time                10016074     MSVCRT:MSVCRT.dll
 0002:00000078       __imp_??2@YAPAXI@Z         10016078     MSVCRT:MSVCRT.dll
 0002:0000007c       __imp___purecall           1001607c     MSVCRT:MSVCRT.dll
 0002:00000080       __imp___adjust_fdiv        10016080     MSVCRT:MSVCRT.dll
 0002:00000084       __imp__malloc              10016084     MSVCRT:MSVCRT.dll
 0002:00000088       __imp___initterm           10016088     MSVCRT:MSVCRT.dll
 0002:0000008c       __imp_?terminate@@YAXXZ    1001608c     MSVCRT:MSVCRT.dll
 0002:00000090       __imp___except_handler3    10016090     MSVCRT:MSVCRT.dll
 0002:00000094       __imp_??1type_info@@UAE@XZ 10016094     MSVCRT:MSVCRT.dll
 0002:00000098       __imp___onexit             10016098     MSVCRT:MSVCRT.dll
 0002:0000009c       __imp____dllonexit         1001609c     MSVCRT:MSVCRT.dll
 0002:000000a0       __imp__free                100160a0     MSVCRT:MSVCRT.dll
 0002:000000a4       __imp__getenv              100160a4     MSVCRT:MSVCRT.dll
 0002:000000a8       __imp_?_set_se_translator@@YAP6AXIPAU_EXCEPTION_POINTERS@@@ZP6AXI0@Z@Z 100160a8     MSVCRT:MSVCRT.dll
 0002:000000ac       __imp__atof                100160ac     MSVCRT:MSVCRT.dll
 0002:000000b0       __imp__vsprintf            100160b0     MSVCRT:MSVCRT.dll
 0002:000000b4       __imp__atoi                100160b4     MSVCRT:MSVCRT.dll
 0002:000000b8       __imp__sprintf             100160b8     MSVCRT:MSVCRT.dll
 0002:000000bc       __imp___CxxThrowException@8 100160bc     MSVCRT:MSVCRT.dll
 0002:000000c0       __imp____CxxFrameHandler   100160c0     MSVCRT:MSVCRT.dll
 0002:000000c4       \177MSVCRT_NULL_THUNK_DATA 100160c4     MSVCRT:MSVCRT.dll
 0002:000000c8       __imp__CreateWindowExA@48  100160c8     user32:USER32.dll
 0002:000000cc       __imp__RegisterClassA@4    100160cc     user32:USER32.dll
 0002:000000d0       __imp__DestroyWindow@4     100160d0     user32:USER32.dll
 0002:000000d4       __imp__IsWindow@4          100160d4     user32:USER32.dll
 0002:000000d8       __imp__SendMessageA@16     100160d8     user32:USER32.dll
 0002:000000dc       __imp__wsprintfA           100160dc     user32:USER32.dll
 0002:000000e0       __imp__DefWindowProcA@16   100160e0     user32:USER32.dll
 0002:000000e4       __imp__PostMessageA@16     100160e4     user32:USER32.dll
 0002:000000e8       __imp__FindWindowA@8       100160e8     user32:USER32.dll
 0002:000000ec       __imp__SetWindowLongA@12   100160ec     user32:USER32.dll
 0002:000000f0       __imp__GetWindowLongA@8    100160f0     user32:USER32.dll
 0002:000000f4       \177USER32_NULL_THUNK_DATA 100160f4     user32:USER32.dll
 0002:000000f8       __imp_??4QString@@QAEAAV0@PBD@Z 100160f8     qt-mt323:qt-mt323.dll
 0002:000000fc       __imp_?start@QTime@@QAEXXZ 100160fc     qt-mt323:qt-mt323.dll
 0002:00000100       __imp_?toString@QTime@@QBE?AVQString@@ABV2@@Z 10016100     qt-mt323:qt-mt323.dll
 0002:00000104       __imp_?addMSecs@QTime@@QBE?AV1@H@Z 10016104     qt-mt323:qt-mt323.dll
 0002:00000108       __imp_?addSecs@QTime@@QBE?AV1@H@Z 10016108     qt-mt323:qt-mt323.dll
 0002:0000010c       __imp_?currentTime@QTime@@SA?AV1@XZ 1001610c     qt-mt323:qt-mt323.dll
 0002:00000110       __imp_?elapsed@QTime@@QBEHXZ 10016110     qt-mt323:qt-mt323.dll
 0002:00000114       __imp_?arg@QString@@QBE?AV1@IHH@Z 10016114     qt-mt323:qt-mt323.dll
 0002:00000118       __imp_?arg@QString@@QBE?AV1@HHH@Z 10016118     qt-mt323:qt-mt323.dll
 0002:0000011c       __imp_?arg@QString@@QBE?AV1@ABV1@H@Z 1001611c     qt-mt323:qt-mt323.dll
 0002:00000120       __imp_?qDebug@@YAXPBDZZ    10016120     qt-mt323:qt-mt323.dll
 0002:00000124       __imp_?ascii@QString@@QBEPBDXZ 10016124     qt-mt323:qt-mt323.dll
 0002:00000128       __imp_??H@YA?BVQString@@PBDABV0@@Z 10016128     qt-mt323:qt-mt323.dll
 0002:0000012c       __imp_?end@?$QValueList@VQString@@@@QAE?AV?$QValueListIterator@VQString@@@@XZ 1001612c     qt-mt323:qt-mt323.dll
 0002:00000130       __imp_?arg@QString@@QBE?AV1@DH@Z 10016130     qt-mt323:qt-mt323.dll
 0002:00000134       __imp_??1?$QMemArray@H@@UAE@XZ 10016134     qt-mt323:qt-mt323.dll
 0002:00000138       __imp_??1?$QMemArray@_N@@UAE@XZ 10016138     qt-mt323:qt-mt323.dll
 0002:0000013c       __imp_??1?$QMemArray@D@@UAE@XZ 1001613c     qt-mt323:qt-mt323.dll
 0002:00000140       __imp_??1?$QPtrList@D@@UAE@XZ 10016140     qt-mt323:qt-mt323.dll
 0002:00000144       __imp_??1?$QMemArray@VQPoint@@@@UAE@XZ 10016144     qt-mt323:qt-mt323.dll
 0002:00000148       __imp_??1?$QPtrList@VQObject@@@@UAE@XZ 10016148     qt-mt323:qt-mt323.dll
 0002:0000014c       __imp_??M@YA_NABVQString@@0@Z 1001614c     qt-mt323:qt-mt323.dll
 0002:00000150       __imp_??8@YA_NABVQString@@0@Z 10016150     qt-mt323:qt-mt323.dll
 0002:00000154       __imp_?qWarning@@YAXPBDZZ  10016154     qt-mt323:qt-mt323.dll
 0002:00000158       __imp_??0QString@@QAE@XZ   10016158     qt-mt323:qt-mt323.dll
 0002:0000015c       __imp_?left@QString@@QBE?AV1@I@Z 1001615c     qt-mt323:qt-mt323.dll
 0002:00000160       __imp_?toDouble@QString@@QBENPA_N@Z 10016160     qt-mt323:qt-mt323.dll
 0002:00000164       __imp_?null@QChar@@2V1@A   10016164     qt-mt323:qt-mt323.dll
 0002:00000168       __imp_?split@QStringList@@SA?AV1@ABVQChar@@ABVQString@@_N@Z 10016168     qt-mt323:qt-mt323.dll
 0002:0000016c       __imp_?remove@QString@@QAEAAV1@VQChar@@@Z 1001616c     qt-mt323:qt-mt323.dll
 0002:00000170       __imp_?find@QString@@QBEHVQChar@@H_N@Z 10016170     qt-mt323:qt-mt323.dll
 0002:00000174       __imp_??0QChar@@QAE@D@Z    10016174     qt-mt323:qt-mt323.dll
 0002:00000178       __imp_?arg@QString@@QBE?AV1@NHDH@Z 10016178     qt-mt323:qt-mt323.dll
 0002:0000017c       __imp_??0?$QValueListIterator@VQString@@@@QAE@ABV0@@Z 1001617c     qt-mt323:qt-mt323.dll
 0002:00000180       __imp_?write@QGDict@@MBEAAVQDataStream@@AAV2@PAX@Z 10016180     qt-mt323:qt-mt323.dll
 0002:00000184       __imp_?read@QGDict@@MAEAAVQDataStream@@AAV2@AAPAX@Z 10016184     qt-mt323:qt-mt323.dll
 0002:00000188       __imp_?newItem@QPtrCollection@@MAEPAXPAX@Z 10016188     qt-mt323:qt-mt323.dll
 0002:0000018c       __imp_??YQString@@QAEAAV0@ABV0@@Z 1001618c     qt-mt323:qt-mt323.dll
 0002:00000190       __imp_??0QGDict@@IAE@IW4KeyType@0@_N1@Z 10016190     qt-mt323:qt-mt323.dll
 0002:00000194       __imp_??1QGDict@@MAE@XZ    10016194     qt-mt323:qt-mt323.dll
 0002:00000198       __imp_?clear@QGDict@@MAEXXZ 10016198     qt-mt323:qt-mt323.dll
 0002:0000019c       __imp_?setContent@QDomDocument@@QAE_NPAVQIODevice@@PAVQString@@PAH2@Z 1001619c     qt-mt323:qt-mt323.dll
 0002:000001a0       __imp_?elementsByTagNameNS@QDomElement@@UBE?AVQDomNodeList@@ABVQString@@0@Z 100161a0     qt-mt323:qt-mt323.dll
 0002:000001a4       __imp_?elementsByTagName@QDomElement@@UBE?AVQDomNodeList@@ABVQString@@@Z 100161a4     qt-mt323:qt-mt323.dll
 0002:000001a8       __imp_?isComment@QDomNode@@UBE_NXZ 100161a8     qt-mt323:qt-mt323.dll
 0002:000001ac       __imp_?isCharacterData@QDomNode@@UBE_NXZ 100161ac     qt-mt323:qt-mt323.dll
 0002:000001b0       __imp_?isProcessingInstruction@QDomNode@@UBE_NXZ 100161b0     qt-mt323:qt-mt323.dll
 0002:000001b4       __imp_?isNotation@QDomNode@@UBE_NXZ 100161b4     qt-mt323:qt-mt323.dll
 0002:000001b8       __imp_?isEntity@QDomNode@@UBE_NXZ 100161b8     qt-mt323:qt-mt323.dll
 0002:000001bc       __imp_?isText@QDomNode@@UBE_NXZ 100161bc     qt-mt323:qt-mt323.dll
 0002:000001c0       __imp_?childEvent@QObject@@MAEXPAVQChildEvent@@@Z 100161c0     qt-mt323:qt-mt323.dll
 0002:000001c4       __imp_?isElement@QDomElement@@UBE_NXZ 100161c4     qt-mt323:qt-mt323.dll
 0002:000001c8       __imp_?section@QString@@QBE?AV1@DHHH@Z 100161c8     qt-mt323:qt-mt323.dll
 0002:000001cc       __imp_?isDocument@QDomNode@@UBE_NXZ 100161cc     qt-mt323:qt-mt323.dll
 0002:000001d0       __imp_?isDocumentFragment@QDomNode@@UBE_NXZ 100161d0     qt-mt323:qt-mt323.dll
 0002:000001d4       __imp_?isCDATASection@QDomNode@@UBE_NXZ 100161d4     qt-mt323:qt-mt323.dll
 0002:000001d8       __imp_?isAttr@QDomNode@@UBE_NXZ 100161d8     qt-mt323:qt-mt323.dll
 0002:000001dc       __imp_?setPrefix@QDomNode@@UAEXABVQString@@@Z 100161dc     qt-mt323:qt-mt323.dll
 0002:000001e0       __imp_?prefix@QDomNode@@UBE?AVQString@@XZ 100161e0     qt-mt323:qt-mt323.dll
 0002:000001e4       __imp_?setNodeValue@QDomNode@@UAEXABVQString@@@Z 100161e4     qt-mt323:qt-mt323.dll
 0002:000001e8       __imp_?nodeValue@QDomNode@@UBE?AVQString@@XZ 100161e8     qt-mt323:qt-mt323.dll
 0002:000001ec       __imp_?hasAttributes@QDomNode@@UBE_NXZ 100161ec     qt-mt323:qt-mt323.dll
 0002:000001f0       __imp_?localName@QDomNode@@UBE?AVQString@@XZ 100161f0     qt-mt323:qt-mt323.dll
 0002:000001f4       __imp_?namespaceURI@QDomNode@@UBE?AVQString@@XZ 100161f4     qt-mt323:qt-mt323.dll
 0002:000001f8       __imp_?ownerDocument@QDomNode@@UBE?AVQDomDocument@@XZ 100161f8     qt-mt323:qt-mt323.dll
 0002:000001fc       __imp_?attributes@QDomElement@@UBE?AVQDomNamedNodeMap@@XZ 100161fc     qt-mt323:qt-mt323.dll
 0002:00000200       __imp_?nextSibling@QDomNode@@UBE?AV1@XZ 10016200     qt-mt323:qt-mt323.dll
 0002:00000204       __imp_?previousSibling@QDomNode@@UBE?AV1@XZ 10016204     qt-mt323:qt-mt323.dll
 0002:00000208       __imp_?lastChild@QDomNode@@UBE?AV1@XZ 10016208     qt-mt323:qt-mt323.dll
 0002:0000020c       __imp_?firstChild@QDomNode@@UBE?AV1@XZ 1001620c     qt-mt323:qt-mt323.dll
 0002:00000210       __imp_?childNodes@QDomNode@@UBE?AVQDomNodeList@@XZ 10016210     qt-mt323:qt-mt323.dll
 0002:00000214       __imp_?parentNode@QDomNode@@UBE?AV1@XZ 10016214     qt-mt323:qt-mt323.dll
 0002:00000218       __imp_?nodeType@QDomElement@@UBE?AW4NodeType@QDomNode@@XZ 10016218     qt-mt323:qt-mt323.dll
 0002:0000021c       __imp_?nodeName@QDomNode@@UBE?AVQString@@XZ 1001621c     qt-mt323:qt-mt323.dll
 0002:00000220       __imp_?isSupported@QDomNode@@UBE_NABVQString@@0@Z 10016220     qt-mt323:qt-mt323.dll
 0002:00000224       __imp_?normalize@QDomNode@@UAEXXZ 10016224     qt-mt323:qt-mt323.dll
 0002:00000228       __imp_?cloneNode@QDomNode@@UBE?AV1@_N@Z 10016228     qt-mt323:qt-mt323.dll
 0002:0000022c       __imp_?hasChildNodes@QDomNode@@UBE_NXZ 1001622c     qt-mt323:qt-mt323.dll
 0002:00000230       __imp_?appendChild@QDomNode@@UAE?AV1@ABV1@@Z 10016230     qt-mt323:qt-mt323.dll
 0002:00000234       __imp_?removeChild@QDomNode@@UAE?AV1@ABV1@@Z 10016234     qt-mt323:qt-mt323.dll
 0002:00000238       __imp_?replaceChild@QDomNode@@UAE?AV1@ABV1@0@Z 10016238     qt-mt323:qt-mt323.dll
 0002:0000023c       __imp_?insertAfter@QDomNode@@UAE?AV1@ABV1@0@Z 1001623c     qt-mt323:qt-mt323.dll
 0002:00000240       __imp_?insertBefore@QDomNode@@UAE?AV1@ABV1@0@Z 10016240     qt-mt323:qt-mt323.dll
 0002:00000244       __imp_??1QDomNode@@UAE@XZ  10016244     qt-mt323:qt-mt323.dll
 0002:00000248       __imp_??4QDomNode@@QAEAAV0@ABV0@@Z 10016248     qt-mt323:qt-mt323.dll
 0002:0000024c       __imp_?look_string@QGDict@@QAEPAXABVQString@@PAXH@Z 1001624c     qt-mt323:qt-mt323.dll
 0002:00000250       __imp_?section@QString@@QBE?AV1@PBDHHH@Z 10016250     qt-mt323:qt-mt323.dll
 0002:00000254       __imp_?startsWith@QString@@QBE_NABV1@@Z 10016254     qt-mt323:qt-mt323.dll
 0002:00000258       __imp_??1QDomElement@@UAE@XZ 10016258     qt-mt323:qt-mt323.dll
 0002:0000025c       __imp_?attribute@QDomElement@@QBE?AVQString@@ABV2@0@Z 1001625c     qt-mt323:qt-mt323.dll
 0002:00000260       __imp_?toElement@QDomNode@@QAE?AVQDomElement@@XZ 10016260     qt-mt323:qt-mt323.dll
 0002:00000264       __imp_?isNull@QDomNode@@QBE_NXZ 10016264     qt-mt323:qt-mt323.dll
 0002:00000268       __imp_??1QDomDocument@@UAE@XZ 10016268     qt-mt323:qt-mt323.dll
 0002:0000026c       __imp_??9@YA_NABVQString@@PBD@Z 1001626c     qt-mt323:qt-mt323.dll
 0002:00000270       __imp_?tagName@QDomElement@@QBE?AVQString@@XZ 10016270     qt-mt323:qt-mt323.dll
 0002:00000274       __imp_?documentElement@QDomDocument@@QBE?AVQDomElement@@XZ 10016274     qt-mt323:qt-mt323.dll
 0002:00000278       __imp_??0?$QValueList@VQString@@@@QAE@XZ 10016278     qt-mt323:qt-mt323.dll
 0002:0000027c       __imp_??0QDomDocument@@QAE@XZ 1001627c     qt-mt323:qt-mt323.dll
 0002:00000280       __imp_??9@YA_NABVQString@@0@Z 10016280     qt-mt323:qt-mt323.dll
 0002:00000284       __imp_?upper@QString@@QBE?AV1@XZ 10016284     qt-mt323:qt-mt323.dll
 0002:00000288       __imp_??H@YA?BVQString@@ABV0@0@Z 10016288     qt-mt323:qt-mt323.dll
 0002:0000028c       __imp_?customEvent@QObject@@MAEXPAVQCustomEvent@@@Z 1001628c     qt-mt323:qt-mt323.dll
 0002:00000290       __imp_?connectNotify@QObject@@MAEXPBD@Z 10016290     qt-mt323:qt-mt323.dll
 0002:00000294       __imp_?disconnectNotify@QObject@@MAEXPBD@Z 10016294     qt-mt323:qt-mt323.dll
 0002:00000298       __imp_??8@YA_NABVQString@@PBD@Z 10016298     qt-mt323:qt-mt323.dll
 0002:0000029c       __imp_?toInt@QString@@QBEHPA_NH@Z 1001629c     qt-mt323:qt-mt323.dll
 0002:000002a0       __imp_??4QString@@QAEAAV0@ABV0@@Z 100162a0     qt-mt323:qt-mt323.dll
 0002:000002a4       __imp_?right@QString@@QBE?AV1@I@Z 100162a4     qt-mt323:qt-mt323.dll
 0002:000002a8       __imp_?mid@QString@@QBE?AV1@II@Z 100162a8     qt-mt323:qt-mt323.dll
 0002:000002ac       __imp_??H@YA?BVQString@@ABV0@PBD@Z 100162ac     qt-mt323:qt-mt323.dll
 0002:000002b0       __imp_??0QFileInfo@@QAE@ABVQString@@@Z 100162b0     qt-mt323:qt-mt323.dll
 0002:000002b4       __imp_?dirPath@QFileInfo@@QBE?AVQString@@_N@Z 100162b4     qt-mt323:qt-mt323.dll
 0002:000002b8       __imp_??YQString@@QAEAAV0@PBD@Z 100162b8     qt-mt323:qt-mt323.dll
 0002:000002bc       __imp_?null@QString@@2V1@A 100162bc     qt-mt323:qt-mt323.dll
 0002:000002c0       __imp_??0QDir@@QAE@ABVQString@@0HH@Z 100162c0     qt-mt323:qt-mt323.dll
 0002:000002c4       __imp_?dirName@QDir@@UBE?AVQString@@XZ 100162c4     qt-mt323:qt-mt323.dll
 0002:000002c8       __imp_??0QFile@@QAE@ABVQString@@@Z 100162c8     qt-mt323:qt-mt323.dll
 0002:000002cc       __imp_?debug@@YAXPBDZZ     100162cc     qt-mt323:qt-mt323.dll
 0002:000002d0       __imp_?exists@QFile@@QBE_NXZ 100162d0     qt-mt323:qt-mt323.dll
 0002:000002d4       __imp_??1QFile@@UAE@XZ     100162d4     qt-mt323:qt-mt323.dll
 0002:000002d8       __imp_??1QDir@@UAE@XZ      100162d8     qt-mt323:qt-mt323.dll
 0002:000002dc       __imp_??1QFileInfo@@QAE@XZ 100162dc     qt-mt323:qt-mt323.dll
 0002:000002e0       __imp_?open@QFile@@UAE_NH@Z 100162e0     qt-mt323:qt-mt323.dll
 0002:000002e4       __imp_??0QRegExp@@QAE@ABVQString@@_N1@Z 100162e4     qt-mt323:qt-mt323.dll
 0002:000002e8       __imp_??0QTextStream@@QAE@PAVQIODevice@@@Z 100162e8     qt-mt323:qt-mt323.dll
 0002:000002ec       __imp_?readLine@QTextStream@@QAE?AVQString@@XZ 100162ec     qt-mt323:qt-mt323.dll
 0002:000002f0       __imp_??AQString@@QAE?AVQCharRef@@H@Z 100162f0     qt-mt323:qt-mt323.dll
 0002:000002f4       __imp_??BQCharRef@@QBE?AVQChar@@XZ 100162f4     qt-mt323:qt-mt323.dll
 0002:000002f8       __imp_?search@QRegExp@@QBEHABVQString@@H@Z 100162f8     qt-mt323:qt-mt323.dll
 0002:000002fc       __imp_?cap@QRegExp@@QAE?AVQString@@H@Z 100162fc     qt-mt323:qt-mt323.dll
 0002:00000300       __imp_?split@QStringList@@SA?AV1@ABVQString@@0_N@Z 10016300     qt-mt323:qt-mt323.dll
 0002:00000304       __imp_?detachInternal@?$QValueList@VQString@@@@AAEXXZ 10016304     qt-mt323:qt-mt323.dll
 0002:00000308       __imp_??0QString@@QAE@ABV0@@Z 10016308     qt-mt323:qt-mt323.dll
 0002:0000030c       __imp_?close@QFile@@UAEXXZ 1001630c     qt-mt323:qt-mt323.dll
 0002:00000310       __imp_??1QTextStream@@UAE@XZ 10016310     qt-mt323:qt-mt323.dll
 0002:00000314       __imp_??1QRegExp@@QAE@XZ   10016314     qt-mt323:qt-mt323.dll
 0002:00000318       __imp_?startTimer@QObject@@QAEHH@Z 10016318     qt-mt323:qt-mt323.dll
 0002:0000031c       __imp_?killTimer@QObject@@QAEXH@Z 1001631c     qt-mt323:qt-mt323.dll
 0002:00000320       __imp_?deleteSelf@QStringData@@QAEXXZ 10016320     qt-mt323:qt-mt323.dll
 0002:00000324       __imp_??0QObject@@QAE@PAV0@PBD@Z 10016324     qt-mt323:qt-mt323.dll
 0002:00000328       __imp_?makeSharedNull@QString@@CAPAUQStringData@@XZ 10016328     qt-mt323:qt-mt323.dll
 0002:0000032c       __imp_?shared_null@QString@@0PAUQStringData@@A 1001632c     qt-mt323:qt-mt323.dll
 0002:00000330       __imp_??0QString@@QAE@PBD@Z 10016330     qt-mt323:qt-mt323.dll
 0002:00000334       __imp_?latin1@QString@@QBEPBDXZ 10016334     qt-mt323:qt-mt323.dll
 0002:00000338       __imp_??1QObject@@UAE@XZ   10016338     qt-mt323:qt-mt323.dll
 0002:0000033c       __imp_??1QString@@QAE@XZ   1001633c     qt-mt323:qt-mt323.dll
 0002:00000340       __imp_??1QStringList@@QAE@XZ 10016340     qt-mt323:qt-mt323.dll
 0002:00000344       __imp_?metaObject@QObject@@UBEPAVQMetaObject@@XZ 10016344     qt-mt323:qt-mt323.dll
 0002:00000348       __imp_?className@QObject@@UBEPBDXZ 10016348     qt-mt323:qt-mt323.dll
 0002:0000034c       __imp_?qt_cast@QObject@@UAEPAXPBD@Z 1001634c     qt-mt323:qt-mt323.dll
 0002:00000350       __imp_?qt_invoke@QObject@@UAE_NHPAUQUObject@@@Z 10016350     qt-mt323:qt-mt323.dll
 0002:00000354       __imp_?qt_emit@QObject@@UAE_NHPAUQUObject@@@Z 10016354     qt-mt323:qt-mt323.dll
 0002:00000358       __imp_?qt_property@QObject@@UAE_NHHPAVQVariant@@@Z 10016358     qt-mt323:qt-mt323.dll
 0002:0000035c       __imp_?event@QObject@@UAE_NPAVQEvent@@@Z 1001635c     qt-mt323:qt-mt323.dll
 0002:00000360       __imp_?eventFilter@QObject@@UAE_NPAV1@PAVQEvent@@@Z 10016360     qt-mt323:qt-mt323.dll
 0002:00000364       __imp_?setName@QObject@@UAEXPBD@Z 10016364     qt-mt323:qt-mt323.dll
 0002:00000368       __imp_?insertChild@QObject@@UAEXPAV1@@Z 10016368     qt-mt323:qt-mt323.dll
 0002:0000036c       __imp_?removeChild@QObject@@UAEXPAV1@@Z 1001636c     qt-mt323:qt-mt323.dll
 0002:00000370       __imp_?setProperty@QObject@@UAE_NPBDABVQVariant@@@Z 10016370     qt-mt323:qt-mt323.dll
 0002:00000374       __imp_?isDocumentType@QDomNode@@UBE_NXZ 10016374     qt-mt323:qt-mt323.dll
 0002:00000378       __imp_?property@QObject@@UBE?AVQVariant@@PBD@Z 10016378     qt-mt323:qt-mt323.dll
 0002:0000037c       __imp_?isEntityReference@QDomNode@@UBE_NXZ 1001637c     qt-mt323:qt-mt323.dll
 0002:00000380       __imp_?checkConnectArgs@QObject@@MAE_NPBDPBV1@0@Z 10016380     qt-mt323:qt-mt323.dll
 0002:00000384       \177qt-mt323_NULL_THUNK_DATA 10016384     qt-mt323:qt-mt323.dll
 0002:000003b0       ??_7bncs_input@@6BQObject@@@ 100163b0     bncs_input.obj
 0002:00000404       ??_7bncs_input@@6BcPanel@@@ 10016404     bncs_input.obj
 0002:00000414       ??_7bncs_input@@6Balarms_input_base@@@ 10016414     bncs_input.obj
 0002:0000045c       ??_7?$QValueListNode@VQString@@@@6B@ 1001645c     bncs_input.obj
 0002:00000464       ??_7?$QValueListPrivate@VQString@@@@6B@ 10016464     bncs_input.obj
 0002:0000046c       ??_7alarms_input_base@@6B@ 1001646c     bncs_input.obj
 0002:000004b4       ??_7alarms_base@@6B@       100164b4     bncs_input.obj
 0002:000004e4       ??_7BncsStore@@6B@         100164e4     BncsStore.obj
 0002:000004e8       __real@8@3ffe8000000000000000 100164e8     BncsStore.obj
 0002:000004f0       __real@8@3fff8000000000000000 100164f0     BncsStore.obj
 0002:000004fc       ??_7cBNCSPoll@@6BQObject@@@ 100164fc     cBNCSPoll.obj
 0002:00000550       ??_7cBNCSPoll@@6BcPanel@@@ 10016550     cBNCSPoll.obj
 0002:00000560       ??_7cDocument@@6B@         10016560     cDocument.obj
 0002:00000568       ??_7?$QDict@VcInstanceInfo@@@@6B@ 10016568     cDocument.obj
 0002:00000588       ??_7?$QDict@VQDomElement@@@@6B@ 10016588     cDocument.obj
 0002:000005a8       ??_SQDomElement@@6B@       100165a8     cDocument.obj
 0002:00000654       ??_7cInstanceInfo@@6B@     10016654     cInstanceInfo.obj
 0002:0000065c       ??_7cPollStore@@6B@        1001665c     cPollStore.obj
 0002:00000664       ??_7Holdoff@@6B@           10016664     Holdoff.obj
 0002:0000066c       ??_7CPollRange@@6B@        1001666c     PollRange.obj
 0002:00000674       ??_7CPulseStretch@@6B@     10016674     PulseStretch.obj
 0002:00000678       ??_7cPanel@@6B@            10016678     panel:panelif.obj
 0002:00000684       ??_7asyncPost@@6B@         10016684     asyncpost:asyncPost.obj
 0002:0000068c       ??_7type_info@@6B@         1001668c     MSVCRT:ti_inst.obj
 0002:000006c0       ??_R13?0A@A@QShared@@8     100166c0     bncs_input.obj
 0002:000006d8       ??_R1A@?0A@A@?$QValueListPrivate@VQString@@@@8 100166d8     bncs_input.obj
 0002:000006f0       ??_R2?$QValueListPrivate@VQString@@@@8 100166f0     bncs_input.obj
 0002:00000700       ??_R3?$QValueListPrivate@VQString@@@@8 10016700     bncs_input.obj
 0002:00000710       ??_R4?$QValueListPrivate@VQString@@@@6B@ 10016710     bncs_input.obj
 0002:00000728       ??_R4bncs_input@@6BQObject@@@ 10016728     bncs_input.obj
 0002:00000740       ??_R4bncs_input@@6BcPanel@@@ 10016740     bncs_input.obj
 0002:00000758       ??_R1HM@?0A@8Qt@@8         10016758     bncs_input.obj
 0002:00000770       ??_R1HI@?0A@8QObject@@8    10016770     bncs_input.obj
 0002:00000788       ??_R13?0A@8cPanel@@8       10016788     bncs_input.obj
 0002:000007a0       ??_R1A@?0A@A@bncs_input@@8 100167a0     bncs_input.obj
 0002:000007b8       ??_R2bncs_input@@8         100167b8     bncs_input.obj
 0002:000007d8       ??_R3bncs_input@@8         100167d8     bncs_input.obj
 0002:000007e8       ??_R4bncs_input@@6Balarms_input_base@@@ 100167e8     bncs_input.obj
 0002:00000800       ??_R1A@?0A@A@?$QValueListNode@VQString@@@@8 10016800     bncs_input.obj
 0002:00000818       ??_R2?$QValueListNode@VQString@@@@8 10016818     bncs_input.obj
 0002:00000820       ??_R3?$QValueListNode@VQString@@@@8 10016820     bncs_input.obj
 0002:00000830       ??_R4?$QValueListNode@VQString@@@@6B@ 10016830     bncs_input.obj
 0002:00000848       ??_R1A@?0A@A@alarms_base@@8 10016848     bncs_input.obj
 0002:00000860       ??_R1A@?0A@A@alarms_input_base@@8 10016860     bncs_input.obj
 0002:00000878       ??_R2alarms_input_base@@8  10016878     bncs_input.obj
 0002:00000888       ??_R3alarms_input_base@@8  10016888     bncs_input.obj
 0002:00000898       ??_R4alarms_input_base@@6B@ 10016898     bncs_input.obj
 0002:000008ac       ??_R2alarms_base@@8        100168ac     bncs_input.obj
 0002:000008b8       ??_R3alarms_base@@8        100168b8     bncs_input.obj
 0002:000008c8       ??_R4alarms_base@@6B@      100168c8     bncs_input.obj
 0002:000008e0       ??_R1A@?0A@A@BncsStore@@8  100168e0     BncsStore.obj
 0002:000008f8       ??_R2BncsStore@@8          100168f8     BncsStore.obj
 0002:00000900       ??_R3BncsStore@@8          10016900     BncsStore.obj
 0002:00000910       ??_R4BncsStore@@6B@        10016910     BncsStore.obj
 0002:00000928       ??_R4cBNCSPoll@@6BQObject@@@ 10016928     cBNCSPoll.obj
 0002:00000940       ??_R1HI@?0A@8Qt@@8         10016940     cBNCSPoll.obj
 0002:00000958       ??_R1HE@?0A@8QObject@@8    10016958     cBNCSPoll.obj
 0002:00000970       ??_R1A@?0A@8cPanel@@8      10016970     cBNCSPoll.obj
 0002:00000988       ??_R1A@?0A@A@cBNCSPoll@@8  10016988     cBNCSPoll.obj
 0002:000009a0       ??_R2cBNCSPoll@@8          100169a0     cBNCSPoll.obj
 0002:000009b8       ??_R3cBNCSPoll@@8          100169b8     cBNCSPoll.obj
 0002:000009c8       ??_R4cBNCSPoll@@6BcPanel@@@ 100169c8     cBNCSPoll.obj
 0002:000009e0       ??_R1A@?0A@A@?$QDict@VcInstanceInfo@@@@8 100169e0     cDocument.obj
 0002:000009f8       ??_R2?$QDict@VcInstanceInfo@@@@8 100169f8     cDocument.obj
 0002:00000a08       ??_R3?$QDict@VcInstanceInfo@@@@8 10016a08     cDocument.obj
 0002:00000a18       ??_R4?$QDict@VcInstanceInfo@@@@6B@ 10016a18     cDocument.obj
 0002:00000a30       ??_R1A@?0A@A@cDocument@@8  10016a30     cDocument.obj
 0002:00000a48       ??_R2cDocument@@8          10016a48     cDocument.obj
 0002:00000a50       ??_R3cDocument@@8          10016a50     cDocument.obj
 0002:00000a60       ??_R4cDocument@@6B@        10016a60     cDocument.obj
 0002:00000a78       ??_R1A@?0A@A@QPtrCollection@@8 10016a78     cDocument.obj
 0002:00000a90       ??_R1A@?0A@A@QGDict@@8     10016a90     cDocument.obj
 0002:00000aa8       ??_R1A@?0A@A@?$QDict@VQDomElement@@@@8 10016aa8     cDocument.obj
 0002:00000ac0       ??_R2?$QDict@VQDomElement@@@@8 10016ac0     cDocument.obj
 0002:00000ad0       ??_R3?$QDict@VQDomElement@@@@8 10016ad0     cDocument.obj
 0002:00000ae0       ??_R4?$QDict@VQDomElement@@@@6B@ 10016ae0     cDocument.obj
 0002:00000af8       ??_R1A@?0A@A@QDomNode@@8   10016af8     cDocument.obj
 0002:00000b10       ??_R1A@?0A@A@QDomElement@@8 10016b10     cDocument.obj
 0002:00000b28       ??_R2QDomElement@@8        10016b28     cDocument.obj
 0002:00000b38       ??_R3QDomElement@@8        10016b38     cDocument.obj
 0002:00000b48       ??_R4QDomElement@@6B@      10016b48     cDocument.obj
 0002:00000b60       ??_R1A@?0A@A@cInstanceInfo@@8 10016b60     cInstanceInfo.obj
 0002:00000b78       ??_R2cInstanceInfo@@8      10016b78     cInstanceInfo.obj
 0002:00000b80       ??_R3cInstanceInfo@@8      10016b80     cInstanceInfo.obj
 0002:00000b90       ??_R4cInstanceInfo@@6B@    10016b90     cInstanceInfo.obj
 0002:00000ba8       ??_R1A@?0A@A@cPollStore@@8 10016ba8     cPollStore.obj
 0002:00000bc0       ??_R2cPollStore@@8         10016bc0     cPollStore.obj
 0002:00000bc8       ??_R3cPollStore@@8         10016bc8     cPollStore.obj
 0002:00000bd8       ??_R4cPollStore@@6B@       10016bd8     cPollStore.obj
 0002:00000bf0       ??_R1A@?0A@A@Holdoff@@8    10016bf0     Holdoff.obj
 0002:00000c08       ??_R2Holdoff@@8            10016c08     Holdoff.obj
 0002:00000c10       ??_R3Holdoff@@8            10016c10     Holdoff.obj
 0002:00000c20       ??_R4Holdoff@@6B@          10016c20     Holdoff.obj
 0002:00000c38       ??_R1A@?0A@A@CPollRange@@8 10016c38     PollRange.obj
 0002:00000c50       ??_R2CPollRange@@8         10016c50     PollRange.obj
 0002:00000c58       ??_R3CPollRange@@8         10016c58     PollRange.obj
 0002:00000c68       ??_R4CPollRange@@6B@       10016c68     PollRange.obj
 0002:00000c80       ??_R1A@?0A@A@CPulseStretch@@8 10016c80     PulseStretch.obj
 0002:00000c98       ??_R2CPulseStretch@@8      10016c98     PulseStretch.obj
 0002:00000ca0       ??_R3CPulseStretch@@8      10016ca0     PulseStretch.obj
 0002:00000cb0       ??_R4CPulseStretch@@6B@    10016cb0     PulseStretch.obj
 0002:00000cc8       ??_R1A@?0A@A@type_info@@8  10016cc8     MSVCRT:ti_inst.obj
 0002:00000ce0       ??_R2type_info@@8          10016ce0     MSVCRT:ti_inst.obj
 0002:00000ce8       ??_R3type_info@@8          10016ce8     MSVCRT:ti_inst.obj
 0002:00000cf8       ??_R4type_info@@6B@        10016cf8     MSVCRT:ti_inst.obj
 0002:000025c8       __CT??_R0?AVstructured_exception@@@88 100185c8     except.obj
 0002:000025e8       __CTA1?AVstructured_exception@@ 100185e8     except.obj
 0002:000025f0       __TI1?AVstructured_exception@@ 100185f0     except.obj
 0002:00002630       __IMPORT_DESCRIPTOR_qt-mt323 10018630     qt-mt323:qt-mt323.dll
 0002:00002644       __IMPORT_DESCRIPTOR_BNCSIF32 10018644     bncsif32:BNCSIF32.dll
 0002:00002658       __IMPORT_DESCRIPTOR_MSVCP60 10018658     msvcprt:MSVCP60.dll
 0002:0000266c       __IMPORT_DESCRIPTOR_MSVCRT 1001866c     MSVCRT:MSVCRT.dll
 0002:00002680       __IMPORT_DESCRIPTOR_KERNEL32 10018680     kernel32:KERNEL32.dll
 0002:00002694       __IMPORT_DESCRIPTOR_USER32 10018694     user32:USER32.dll
 0002:000026a8       __IMPORT_DESCRIPTOR_GDI32  100186a8     gdi32:GDI32.dll
 0002:000026bc       __NULL_IMPORT_DESCRIPTOR   100186bc     qt-mt323:qt-mt323.dll
 0003:00000000       ___xc_a                    1001b000     MSVCRT:cinitexe.obj
 0003:00000040       ___xc_z                    1001b040     MSVCRT:cinitexe.obj
 0003:00000044       ___xi_a                    1001b044     MSVCRT:cinitexe.obj
 0003:00000048       ___xi_z                    1001b048     MSVCRT:cinitexe.obj
 0003:00000050       ??_R0?AUQShared@@@8        1001b050     bncs_input.obj
 0003:00000068       ??_R0?AV?$QValueListPrivate@VQString@@@@@8 1001b068     bncs_input.obj
 0003:00000098       ??_R0?AVQt@@@8             1001b098     bncs_input.obj
 0003:000000b0       ??_R0?AVQObject@@@8        1001b0b0     bncs_input.obj
 0003:000000c8       ??_R0?AVcPanel@@@8         1001b0c8     bncs_input.obj
 0003:000000e0       ??_R0?AVbncs_input@@@8     1001b0e0     bncs_input.obj
 0003:00000100       ??_R0?AV?$QValueListNode@VQString@@@@@8 1001b100     bncs_input.obj
 0003:00000130       ??_R0?AValarms_base@@@8    1001b130     bncs_input.obj
 0003:00000150       ??_R0?AValarms_input_base@@@8 1001b150     bncs_input.obj
 0003:00000170       ??_C@_0CJ@NFJD@bncs_input?3?3constructor?5?9?5this?5d@ 1001b170     bncs_input.obj
 0003:0000019c       ??_C@_0BK@HOBH@bncs_input?5constructor?5?$CFx?$AA@ 1001b19c     bncs_input.obj
 0003:000001b8       ??_C@_0P@FPHM@CSI?5HAS?5CLOSED?$AA@ 1001b1b8     bncs_input.obj
 0003:000001c8       ??_C@_0BF@GLNE@Can?8t?5connect?5to?5CSI?$AA@ 1001b1c8     bncs_input.obj
 0003:000001e0       ??_C@_0P@DKGD@Can?8t?5find?5CSI?$AA@ 1001b1e0     bncs_input.obj
 0003:000001f0       ??_C@_0BL@MGAP@CSI?5status?5default?5?9?5error?$AA@ 1001b1f0     bncs_input.obj
 0003:0000020c       ??_C@_0BC@KJPF@End?5of?5destructor?$AA@ 1001b20c     bncs_input.obj
 0003:00000220       ??_C@_0CD@EAKJ@failed?5to?5get?5PMutex?5in?5destruct@ 1001b220     bncs_input.obj
 0003:00000244       ??_C@_0CK@HJKO@failed?5to?5get?5hHoldoffMutex?5in?5d@ 1001b244     bncs_input.obj
 0003:00000270       ??_C@_0CD@CDEG@failed?5to?5get?5IMutex?5in?5destruct@ 1001b270     bncs_input.obj
 0003:00000294       ??_C@_0BG@MMCD@bncs_input?5Destructor?$AA@ 1001b294     bncs_input.obj
 0003:000002ac       ??_C@_0P@BILM@CAN?8T?5GET?5DATA?$AA@ 1001b2ac     bncs_input.obj
 0003:000002bc       ??_C@_0CC@MGH@Failed?5to?5get?5IMutex?5in?5getData?$CI@ 1001b2bc     bncs_input.obj
 0003:000002e0       ??_C@_07EIBN@BNCS_IP?$AA@  1001b2e0     bncs_input.obj
 0003:000002e8       ??_R0?AVstructured_exception@@@8 1001b2e8     bncs_input.obj
 0003:0000030c       ??_C@_0BJ@PHLO@init?$CI?$CJ?3Unknown?5Exception?$AA@ 1001b30c     bncs_input.obj
 0003:00000328       ??_C@_0CE@PPJI@init?$CI?$CJ?3thrown?5exception?5?$CFx?5from?5@ 1001b328     bncs_input.obj
 0003:0000034c       ??_C@_0CH@NGCJ@bncs_input?3?3init?5?9?5finished?5load@ 1001b34c     bncs_input.obj
 0003:00000374       ??_C@_0BG@HBPN@No?5Inputs?5in?5Config?$CB?$CB?$AA@ 1001b374     bncs_input.obj
 0003:0000038c       ??_C@_0CA@JJAH@FAILED?5TO?5REGISTER?5WITH?5CSI?$CB?$CB?$CB?$CB?$AA@ 1001b38c     bncs_input.obj
 0003:000003ac       ??_C@_0BO@LHAB@Failed?5to?5get?5hIMutex?5in?5init?$AA@ 1001b3ac     bncs_input.obj
 0003:000003cc       ??_C@_01KPOD@?$DN?$AA@     1001b3cc     bncs_input.obj
 0003:000003d0       ??_C@_0M@MAJG@Input_?$CI?2d?$CL?$CJ?$AA@ 1001b3d0     bncs_input.obj
 0003:000003dc       ??_C@_0BA@JAA@?2?$FLInput_?$CI?2d?$CL?$CJ?2?$FN?$AA@ 1001b3dc     bncs_input.obj
 0003:000003ec       ??_C@_08ECMI@?2?$FL?$CI?4?$CK?$CJ?2?$FN?$AA@ 1001b3ec     bncs_input.obj
 0003:000003f8       ??_C@_0BJ@IDGM@File?5?8?$CFs?8?5does?5not?5exist?$AA@ 1001b3f8     bncs_input.obj
 0003:00000414       ??_C@_0CM@CMHD@Failed?5to?5get?5hImutex?5in?5first?5p@ 1001b414     bncs_input.obj
 0003:00000440       ??_C@_0CJ@FAH@init?$CI?$CJ?5?9?5Set?5initial?5test?5mode?5?$CF@ 1001b440     bncs_input.obj
 0003:0000046c       ??_C@_03ICNC@?1?4?4?$AA@   1001b46c     bncs_input.obj
 0003:00000470       ??_C@_0BC@IMIM@init?5?9?5loading?5?$CFs?$AA@ 1001b470     bncs_input.obj
 0003:00000484       ??_C@_07DPEN@?1config?$AA@ 1001b484     bncs_input.obj
 0003:0000048c       ??_C@_0CC@CAEE@ProcRevertive?$CI?$CJ?3Unknown?5Exceptio@ 1001b48c     bncs_input.obj
 0003:000004b0       ??_C@_0CN@CFC@ProcRevertive?$CI?$CJ?3thrown?5exception@ 1001b4b0     bncs_input.obj
 0003:000004e0       ??_C@_0CI@FGHH@failed?5to?5get?5hIMutex?5in?5Proc?5Re@ 1001b4e0     bncs_input.obj
 0003:00000508       ??_C@_02MECO@?$CFd?$AA@    1001b508     bncs_input.obj
 0003:0000050c       ??_C@_0CK@HPFM@failed?5to?5get?5hHoldoffMutex?5in?5s@ 1001b50c     bncs_input.obj
 0003:00000538       ??_C@_0DF@CNPB@failed?5to?5get?5hPulseStretchMutex@ 1001b538     bncs_input.obj
 0003:00000570       ??_C@_0O@HHNF@input?5Unknown?$AA@ 1001b570     bncs_input.obj
 0003:00000580       ??_C@_08LEHD@hh?3mm?3ss?$AA@ 1001b580     bncs_input.obj
 0003:0000058c       ??_C@_0N@NEPC@hh?3mm?3ss?4zzz?$AA@ 1001b58c     bncs_input.obj
 0003:0000059c       ??_C@_0CA@MJMP@CheckStatus?$CI?$CJ?3Unknown?5Exception?$AA@ 1001b59c     bncs_input.obj
 0003:000005bc       ??_C@_0CL@EEHN@CheckStatus?$CI?$CJ?3thrown?5exception?5?$CF@ 1001b5bc     bncs_input.obj
 0003:000005e8       ??_C@_0CE@GNNF@failed?5to?5get?5IMutex?5in?5CheckSta@ 1001b5e8     bncs_input.obj
 0003:0000060c       ??_C@_0CF@NFAL@failed?5to?5get?5hRMutex?5in?5CheckSt@ 1001b60c     bncs_input.obj
 0003:00000634       ??_C@_0BM@GFLI@There?5are?5?$CFd?5missed?5from?5?$CFd?$AA@ 1001b634     bncs_input.obj
 0003:00000650       ??_C@_0BP@DPBF@All?5Valid?5Inputs?5Received?5?9?5?$CFd?$AA@ 1001b650     bncs_input.obj
 0003:00000670       ??_C@_0BK@JEGH@All?5Valid?5Inputs?5Received?$AA@ 1001b670     bncs_input.obj
 0003:0000068c       ??_C@_0CF@JMLG@procPulsestretch?$CI?$CJ?3Unknown?5Excep@ 1001b68c     bncs_input.obj
 0003:000006b4       ??_C@_0DA@MEBI@procPulsestretch?$CI?$CJ?3thrown?5except@ 1001b6b4     bncs_input.obj
 0003:000006e4       ??_C@_0CL@HDDA@Failed?5to?5get?5hImutex?5in?5procPul@ 1001b6e4     bncs_input.obj
 0003:00000710       ??_C@_0DF@MCCL@Failed?5to?5get?5hPulseStretchMutex@ 1001b710     bncs_input.obj
 0003:00000748       ??_C@_0CK@KBCB@?5ERROR?5?9?5INPUT?5?$CFd?5not?5found?5in?5i@ 1001b748     bncs_input.obj
 0003:00000774       ??_C@_0CB@BDD@procHoldoffs?$CI?$CJ?3Unknown?5Exception@ 1001b774     bncs_input.obj
 0003:00000798       ??_C@_0CM@PLGA@procHoldoffs?$CI?$CJ?3thrown?5exception?5@ 1001b798     bncs_input.obj
 0003:000007c4       ??_C@_0CF@HGPB@failed?5to?5get?5IMutex?5in?5procHold@ 1001b7c4     bncs_input.obj
 0003:000007ec       ??_C@_0CF@KMGB@failed?5to?5get?5HMutex?5in?5procHold@ 1001b7ec     bncs_input.obj
 0003:00000814       ??_C@_0CE@HIAK@recyclechatbins?$CI?$CJ?3Unknown?5Except@ 1001b814     bncs_input.obj
 0003:00000838       ??_C@_0CP@IAMN@recyclechatbins?$CI?$CJ?3thrown?5excepti@ 1001b838     bncs_input.obj
 0003:00000868       ??_C@_0CL@MLBK@failed?5to?5get?5hIMutex?5in?5Recycle@ 1001b868     bncs_input.obj
 0003:00000894       ??_C@_0BH@FPOA@Unknown?5timer?5event?5?$CFd?$AA@ 1001b894     bncs_input.obj
 0003:000008ac       ??_C@_0BL@DMBO@notify?$CI?$CJ?3Unknown?5Exception?$AA@ 1001b8ac     bncs_input.obj
 0003:000008c8       ??_C@_0CK@EDKD@notify?$CI?$CJ?3thrown?5exception?5?$CFx?5fro@ 1001b8c8     bncs_input.obj
 0003:000008f4       ??_C@_0CA@DGDO@CSI?5Error?5?9?5incomplete?5message?5?$AA@ 1001b8f4     bncs_input.obj
 0003:00000914       ??_C@_0CP@KMAI@?$CK?$CK?$CK?$CK?$CK?$CK?$CK?$CK?$CK?$CK?$CK?$CK?$CK?$CK?$CK?$CKCSI?5ERROR?5?9?5INCO@ 1001b914     bncs_input.obj
 0003:00000944       ??_C@_0CM@JLBJ@LPCSTR?5?3?5?$CF1?5?$CGLPCSTR?3?5?$CF2?5strlen?3?5@ 1001b944     bncs_input.obj
 0003:00000970       ??_C@_0N@GDLF@revertive?5?$CF1?$AA@ 1001b970     bncs_input.obj
 0003:00000980       ??_C@_0BE@CCI@unknown?5csi?5message?$AA@ 1001b980     bncs_input.obj
 0003:00000994       ??_C@_09NND@status?5?$CFs?$AA@ 1001b994     bncs_input.obj
 0003:000009a0       ??_C@_0BE@ONJO@CSI?5has?5Closed?5Down?$AA@ 1001b9a0     bncs_input.obj
 0003:000009b4       ??_C@_0BE@BGCE@CSI?5has?5closed?5down?$AA@ 1001b9b4     bncs_input.obj
 0003:000009c8       ??_C@_0BL@ONFL@?9?9?9?9End?5of?5Inputs?5Map?9?9?9?9?9?$AA@ 1001b9c8     bncs_input.obj
 0003:000009e4       ??_C@_0BJ@OAOE@Number?5of?5unknowns?5is?5?$CFd?$AA@ 1001b9e4     bncs_input.obj
 0003:00000a00       ??_C@_0BO@MBMO@?9?9?9?9Inputs?5Map?5?$CIsize?5?$CFd?$CJ?9?9?9?9?9?$AA@ 1001ba00     bncs_input.obj
 0003:00000a20       ??_C@_0BD@IIC@No?5entries?5in?5map?$CB?$AA@ 1001ba20     bncs_input.obj
 0003:00000a34       ??_C@_09MHBI@?3BNCS_IP?3?$AA@ 1001ba34     bncs_input.obj
 0003:00000a40       ??_C@_0CK@IPGI@failed?5to?5get?5hIMutex?5in?5Registe@ 1001ba40     bncs_input.obj
 0003:00000a6c       ??_C@_0CM@NBF@?8?5has?5invalid?5device?5or?5slot?5num@ 1001ba6c     bncs_input.obj
 0003:00000a98       ??_C@_0BH@PAML@Invalid?5Config?3Input?5?8?$AA@ 1001ba98     bncs_input.obj
 0003:00000ab0       ??_C@_05EDND@?$CF1_?$CF2?$AA@ 1001bab0     bncs_input.obj
 0003:00000ab8       ??_C@_0DP@LOLD@bncs_input?3?3registerInputs?$CI?$CJ?5?9?5s@ 1001bab8     bncs_input.obj
 0003:00000af8       ??_C@_0EB@IGKM@bncs_input?3?3registerInputs?$CI?$CJ?5?9?5d@ 1001baf8     bncs_input.obj
 0003:00000b3c       ??_C@_0HK@GBAP@bncs_input?3?3startGreening?$CI?$CJ?5?9?5de@ 1001bb3c     bncs_input.obj
 0003:00000bb8       ??_C@_0EB@MMGN@bncs_input?3?3startGreening?$CI?$CJ?5?9?5se@ 1001bbb8     bncs_input.obj
 0003:00000bfc       ??_C@_0DN@KJBL@bncs_input?3?3startGreening?$CI?$CJ?5?9?5no@ 1001bbfc     bncs_input.obj
 0003:00000c3c       ??_C@_0EJ@MHDJ@bncs_input?3?3startGreening?$CI?$CJ?5?9?5th@ 1001bc3c     bncs_input.obj
 0003:00000c88       ??_C@_0BM@GCHI@bncs_input?3?3startGreening?$CI?$CJ?$AA@ 1001bc88     bncs_input.obj
 0003:00000ca4       ??_C@_0HJ@OECE@bncs_input?3?3startRedding?$CI?$CJ?5?9?5dev@ 1001bca4     bncs_input.obj
 0003:00000d20       ??_C@_0EA@KOPJ@bncs_input?3?3startRedding?$CI?$CJ?5?9?5set@ 1001bd20     bncs_input.obj
 0003:00000d60       ??_C@_0DO@FMHA@bncs_input?3?3startRedding?$CI?$CJ?5?9?5no?5@ 1001bd60     bncs_input.obj
 0003:00000da0       ??_C@_0EF@KAMG@bncs_input?3?3startRedding?$CI?$CJ?5?9?5the@ 1001bda0     bncs_input.obj
 0003:00000de8       ??_C@_0BL@BFBJ@bncs_input?3?3startRedding?$CI?$CJ?$AA@ 1001bde8     bncs_input.obj
 0003:00000e04       ??_C@_0CF@BBIA@Colouring?5Timeout?5event?5?9?5device@ 1001be04     bncs_input.obj
 0003:00000e2c       ??_C@_0CL@KOMO@bncs_input?3?3stopColouring?$CI?$CJ?5?9?5de@ 1001be2c     bncs_input.obj
 0003:00000e58       ??_C@_0BM@BNNN@bncs_input?3?3stopColouring?$CI?$CJ?$AA@ 1001be58     bncs_input.obj
 0003:00000e74       ??_C@_0M@OOCF@GS?5?$CF1?5?$CF3?5?$CF2?$AA@ 1001be74     bncs_input.obj
 0003:00000e80       ??_C@_0O@DCBO@IW?5?$CF1?5?8?$CF2?8?5?$CF3?$AA@ 1001be80     bncs_input.obj
 0003:00000e90       ??_C@_0M@PKEN@RC?5?$CF1?5?$CF3?5?$CF2?$AA@ 1001be90     bncs_input.obj
 0003:00000e9c       ??_C@_0CP@LKJE@Colouring?5?9?5setting?5?$CI?$CF1?$CI?$CF5?$CJ?1?$CF2?5?$CF@ 1001be9c     bncs_input.obj
 0003:00000ecc       ??_C@_0EF@PJAM@bncs_input?3?3ProcRevertive?$CI?$CJ?5?9?5Gr@ 1001becc     bncs_input.obj
 0003:00000f14       ??_C@_0EB@GPKO@bncs_input?3?3ProcRevertive?$CI?$CJ?5?9?5se@ 1001bf14     bncs_input.obj
 0003:00000f58       ??_C@_0DN@NLHK@bncs_input?3?3ProcRevertive?$CI?$CJ?5?9?5no@ 1001bf58     bncs_input.obj
 0003:00000f98       ??_C@_0GC@DNKJ@bncs_input?3?3ProcRevertive?$CI?$CJ?5?9?5th@ 1001bf98     bncs_input.obj
 0003:00000ffc       ??_C@_0EE@JOIE@bncs_input?3?3ProcRevertive?$CI?$CJ?5?9?5Re@ 1001bffc     bncs_input.obj
 0003:00001040       ??_C@_0DP@GFFP@bncs_input?3?3ProcRevertive?$CI?$CJ?5?9?5no@ 1001c040     bncs_input.obj
 0003:00001080       ??_C@_0GB@IOHK@bncs_input?3?3ProcRevertive?$CI?$CJ?5?9?5th@ 1001c080     bncs_input.obj
 0003:000010e4       ??_C@_0N@HPGA@Restart?5Poll?$AA@ 1001c0e4     bncs_input.obj
 0003:000010f4       ??_C@_09CENF@Next?5Poll?$AA@ 1001c0f4     bncs_input.obj
 0003:00001100       ??_C@_0BI@PHJO@ASSERT?3?5?$CC?$CFs?$CC?5in?5?$CFs?5?$CI?$CFd?$CJ?$AA@ 1001c100     bncs_input.obj
 0003:00001118       ??_C@_0BA@GNEL@it?4node?5?$CB?$DN?5node?$AA@ 1001c118     bncs_input.obj
 0003:00001128       ??_C@_0CB@GILJ@C?3?2Qt?23?42?43?2include?2qvaluelist?4h@ 1001c128     bncs_input.obj
 0003:0000114c       ??_C@_0L@MGKG@i?5?$DM?$DN?5nodes?$AA@ 1001c14c     bncs_input.obj
 0003:00001158       ??_R0?AVBncsStore@@@8      1001c158     BncsStore.obj
 0003:00001170       ??_C@_0BF@FBLI@Load?5Settings?5Failed?$AA@ 1001c170     BncsStore.obj
 0003:00001188       ??_C@_0N@LHDE@section?5NULL?$AA@ 1001c188     BncsStore.obj
 0003:00001198       ??_C@_06KGPF@Store?3?$AA@  1001c198     BncsStore.obj
 0003:000011a0       ??_C@_08CLHF@negative?$AA@ 1001c1a0     BncsStore.obj
 0003:000011ac       ??_C@_0BE@EKJH@PulseStretchTrigger?$AA@ 1001c1ac     BncsStore.obj
 0003:000011c0       ??_C@_0DG@FFGE@Pulse?5Period?5?$DO?524?5hours?5?9?5no?5pul@ 1001c1c0     BncsStore.obj
 0003:000011f8       ??_C@_0BD@KOFD@PulseStretchPeriod?$AA@ 1001c1f8     BncsStore.obj
 0003:0000120c       ??_C@_0DK@OGIL@Chatter?5period?5?$DO?524?5hours?5?9?5no?5c@ 1001c20c     BncsStore.obj
 0003:00001248       ??_C@_0BB@KECO@ChatterThreshold?$AA@ 1001c248     BncsStore.obj
 0003:0000125c       ??_C@_0O@INKI@ChatterPeriod?$AA@ 1001c25c     BncsStore.obj
 0003:0000126c       ??_C@_0DK@FDFM@Holdoff?5Period?5?$DO?524?5hours?5?9?5no?5H@ 1001c26c     BncsStore.obj
 0003:000012a8       ??_C@_07EGJG@Holdoff?$AA@  1001c2a8     BncsStore.obj
 0003:000012b0       ??_C@_0DJ@HMIN@FAILED?5to?5get?5device?5?$CG?5slot?5for?5@ 1001c2b0     BncsStore.obj
 0003:000012ec       ??_C@_0BA@PFNB@SourceParameter?$AA@ 1001c2ec     BncsStore.obj
 0003:000012fc       ??_C@_0BC@JKOA@No?5SourceInstance?$AA@ 1001c2fc     BncsStore.obj
 0003:00001310       ??_C@_0P@PMPE@SourceInstance?$AA@ 1001c310     BncsStore.obj
 0003:00001320       ??_C@_0BM@JBHI@Indeterminate?5Input?5Type?5?$CFs?$AA@ 1001c320     BncsStore.obj
 0003:0000133c       ??_C@_0BP@EPIK@LoadDiscreteAlarmStates?5failed?$AA@ 1001c33c     BncsStore.obj
 0003:0000135c       ??_C@_08FHOL@Discrete?$AA@ 1001c35c     BncsStore.obj
 0003:00001368       ??_C@_0BP@IOFH@LoadAnalogueAlarmStates?5failed?$AA@ 1001c368     BncsStore.obj
 0003:00001388       ??_C@_08JLCJ@Analogue?$AA@ 1001c388     BncsStore.obj
 0003:00001394       ??_C@_06KOC@Source?$AA@    1001c394     BncsStore.obj
 0003:0000139c       ??_C@_0L@GAEA@AlarmInput?$AA@ 1001c39c     BncsStore.obj
 0003:000013a8       ??_C@_0L@CAKM@SourceType?$AA@ 1001c3a8     BncsStore.obj
 0003:000013b4       ??_C@_07OOKG@No?5Name?$AA@ 1001c3b4     BncsStore.obj
 0003:000013bc       ??_C@_04EFNI@Name?$AA@     1001c3bc     BncsStore.obj
 0003:000013c4       ??_C@_0CN@OPEG@discrete?5ERROR?5?9?5NO?5ALARM?5or?5OK?5@ 1001c3c4     BncsStore.obj
 0003:000013f4       ??_C@_02HAGF@OK?$AA@       1001c3f4     BncsStore.obj
 0003:000013f8       ??_C@_05OGFP@Alarm?$AA@    1001c3f8     BncsStore.obj
 0003:00001400       ??_C@_0BF@NKHE@?$CFs?5no?5?$DM?5or?5?$DO?5found?$CB?$CB?$AA@ 1001c400     BncsStore.obj
 0003:00001418       ??_C@_0CL@LHEK@ERROR?5?9?5NO?5ALARM?5or?5OK?5Key?5in?5cf@ 1001c418     BncsStore.obj
 0003:00001444       ??_C@_0BM@GKKL@analog?5?$CFs?5no?5?$DM?5or?5?$DO?5found?$CB?$CB?$AA@ 1001c444     BncsStore.obj
 0003:00001460       ??_C@_0HK@IILI@?$CFd?5name?5?8?$CFs?8?0Device?5?$CFd?$CI?$CFc?$CJ?0slot?5@ 1001c460     BncsStore.obj
 0003:000014dc       ??_C@_0EL@PKPH@BncsStore?3?3getAnOKState?$CI?$CJ?5?$CFs?5is?5@ 1001c4dc     BncsStore.obj
 0003:00001528       ??_C@_0EG@EHKA@BncsStore?3?3getAnOKState?$CI?$CJ?5?9?5?$CFs?5i@ 1001c528     BncsStore.obj
 0003:00001570       ??_C@_0CP@BKJN@BncsStore?3?3getAnOKState?$CI?$CJ?5?9?5Inpu@ 1001c570     BncsStore.obj
 0003:000015a0       ??_C@_0DN@KIHA@BncsStore?3?3getAnOKState?$CI?$CJ?5?9?5?$CFs?5i@ 1001c5a0     BncsStore.obj
 0003:000015e0       ??_C@_0EF@NINF@BncsStore?3?3getAnOKState?$CI?$CJ?5?9?5?$CFs?5i@ 1001c5e0     BncsStore.obj
 0003:00001628       ??_C@_0DN@CFJD@BncsStore?3?3getAnOKState?$CI?$CJ?5?9?5?$CFs?5i@ 1001c628     BncsStore.obj
 0003:00001668       ??_C@_0DC@PAOB@getAnOKState?$CI?$CJ?5?9?5?$CFs?5is?5a?5possibl@ 1001c668     BncsStore.obj
 0003:0000169c       ??_C@_0DK@CJPD@getAnOKState?$CI?$CJ?5?9?5?$CFs?5is?5a?5possibl@ 1001c69c     BncsStore.obj
 0003:000016d8       ??_C@_0DC@HNAC@getAnOKState?$CI?$CJ?5?9?5?$CFs?5is?5a?5possibl@ 1001c6d8     BncsStore.obj
 0003:0000170c       ??_C@_02MIFF@?$CF1?$AA@    1001c70c     BncsStore.obj
 0003:00001710       ??_C@_0CP@NGFP@BncsStore?3?3getAnOKState?$CI?$CJ?5?9?5Inpu@ 1001c710     BncsStore.obj
 0003:00001740       ??_C@_0EN@OOEC@BncsStore?3?3getAFailState?$CI?$CJ?5?9?5?$CFs?5@ 1001c740     BncsStore.obj
 0003:00001790       ??_C@_0EM@EICK@BncsStore?3?3getAFailState?$CI?$CJ?5?$CFs?5is@ 1001c790     BncsStore.obj
 0003:000017dc       ??_C@_0DA@KEKB@BncsStore?3?3getAFailState?$CI?$CJ?5?9?5Inp@ 1001c7dc     BncsStore.obj
 0003:0000180c       ??_C@_0DD@LHNG@getAFailState?$CI?$CJ?5?9?5?$CFs?5is?5a?5possib@ 1001c80c     BncsStore.obj
 0003:00001840       ??_C@_0DN@DOFK@getAFailState?$CI?$CJ?5?9?5?$CFs?5is?5a?5possib@ 1001c840     BncsStore.obj
 0003:00001880       ??_C@_0DF@NEMP@getAFailState?$CI?$CJ?5?9?5?$CFs?5is?5a?5possib@ 1001c880     BncsStore.obj
 0003:000018b8       ??_C@_0EA@NHFM@BncsStore?3?3getAFailState?$CI?$CJ?5?9?5?$CFs?5@ 1001c8b8     BncsStore.obj
 0003:000018f8       ??_C@_0EI@NLLK@BncsStore?3?3getAFailState?$CI?$CJ?5?9?5?$CFs?5@ 1001c8f8     BncsStore.obj
 0003:00001940       ??_C@_0EA@FKLP@BncsStore?3?3getAFailState?$CI?$CJ?5?9?5?$CFs?5@ 1001c940     BncsStore.obj
 0003:00001980       ??_C@_0DA@GIGD@BncsStore?3?3getAFailState?$CI?$CJ?5?9?5Inp@ 1001c980     BncsStore.obj
 0003:000019b0       ??_R0?AVcBNCSPoll@@@8      1001c9b0     cBNCSPoll.obj
 0003:000019c8       ??_C@_0CA@LDPA@constructor?$CI?$CJ?3Unknown?5Exception?$AA@ 1001c9c8     cBNCSPoll.obj
 0003:000019e8       ??_C@_0CL@DDCJ@constructor?$CI?$CJ?3thrown?5exception?5?$CF@ 1001c9e8     cBNCSPoll.obj
 0003:00001a14       ??_C@_05FAHH@Poll?3?$AA@   1001ca14     cBNCSPoll.obj
 0003:00001a1c       ??_C@_0CC@NFHB@addToPollList?$CI?$CJ?3Unknown?5Exceptio@ 1001ca1c     cBNCSPoll.obj
 0003:00001a40       ??_C@_0CN@CAIB@addToPollList?$CI?$CJ?3thrown?5exception@ 1001ca40     cBNCSPoll.obj
 0003:00001a70       ??_C@_0DD@JPMG@POLL?5?$DN?5failed?5to?5get?5hPollMutex?5@ 1001ca70     cBNCSPoll.obj
 0003:00001aa4       ??_C@_0BI@IIKP@Device?5or?5Slot?5ZERO?$CB?$CB?$CB?$CB?$AA@ 1001caa4     cBNCSPoll.obj
 0003:00001abc       ??_C@_0BI@KJJI@ONE?5INPUT?5HAS?5NO?5DEVICE?$AA@ 1001cabc     cBNCSPoll.obj
 0003:00001ad4       ??_C@_0CG@HGFK@notify?$CI?$CJ?3thrown?5exception?5?$CFx?5fro@ 1001cad4     cBNCSPoll.obj
 0003:00001afc       ??_C@_0CM@PEHG@?$CK?$CKPOLL?5CLASS?5CSI?5ERROR?5?9?5INCOMPL@ 1001cafc     cBNCSPoll.obj
 0003:00001b28       ??_C@_0CL@PBDJ@poll?5failed?5to?5get?5hPollMutex?5on@ 1001cb28     cBNCSPoll.obj
 0003:00001b54       ??_C@_0BP@EGBJ@timerEvent?$CI?$CJ?3Unknown?5Exception?$AA@ 1001cb54     cBNCSPoll.obj
 0003:00001b74       ??_C@_0CK@GJAB@timerEvent?$CI?$CJ?3thrown?5exception?5?$CFx@ 1001cb74     cBNCSPoll.obj
 0003:00001ba0       ??_C@_0BF@GKFN@?$CK?$CK?$CK?$CK?$CK?$CKEND?5of?5MAP?$CK?$CK?$CK?$CK?$AA@ 1001cba0     cBNCSPoll.obj
 0003:00001bb8       ??_C@_0CE@BKOO@?$CK?$CK?$CK?$CK?$CKPOLL?5PRINTING?5MAP?5TO?5DEBUG?$CK@ 1001cbb8     cBNCSPoll.obj
 0003:00001bdc       ??_C@_0BF@HLM@POLL?5STORE?5MAP?5EMPTY?$AA@ 1001cbdc     cBNCSPoll.obj
 0003:00001bf4       ??_C@_0CD@MCKB@getFirstDeviceAndRange?4?5No?5store@ 1001cbf4     cBNCSPoll.obj
 0003:00001c18       ??_C@_0CG@JMGG@Got?5first?5device?5?$CFd?5?$CI?$CFc?$CJ?0?5range?5@ 1001cc18     cBNCSPoll.obj
 0003:00001c40       ??_C@_0CN@BAH@no?5ranges?5for?5device?5?$CFd?5?9?5go?5to?5@ 1001cc40     cBNCSPoll.obj
 0003:00001c70       ??_C@_0CB@MKB@getNextRange?$CI?$CJ?3Unknown?5Exception@ 1001cc70     cBNCSPoll.obj
 0003:00001c94       ??_C@_0DH@LDLF@getNextRange?$CI?$CJ?3thrown?5exception?5@ 1001cc94     cBNCSPoll.obj
 0003:00001ccc       ??_C@_0CE@KIHO@?$CK?$CK?$CK?5No?5current?5device?5or?5range?4?5@ 1001cccc     cBNCSPoll.obj
 0003:00001cf0       ??_C@_0CH@ILMF@New?5?9?5device?5is?5?$CFd?$CI?$CFc?$CJ?5range?5?$CFd?9@ 1001ccf0     cBNCSPoll.obj
 0003:00001d18       ??_C@_0CP@KAEA@poll?5failed?5to?5get?5hPoll?5Mutex?5i@ 1001cd18     cBNCSPoll.obj
 0003:00001d48       ??_C@_0EL@DIHD@Subsequent?4?5Registering?5for?5curr@ 1001cd48     cBNCSPoll.obj
 0003:00001d94       ??_C@_0DO@HBCM@Got?5first?5valid?5range?5?9?5device?5i@ 1001cd94     cBNCSPoll.obj
 0003:00001dd4       ??_C@_0GI@COMK@Device?5zero?5?$DN?5subsequent?5pass?0?5r@ 1001cdd4     cBNCSPoll.obj
 0003:00001e3c       ??_C@_0CL@NCBF@?$CK?$CK?$CK?5Error?5?$CK?$CK?$CK?5Current?5device?5?$CFd?5@ 1001ce3c     cBNCSPoll.obj
 0003:00001e68       ??_C@_0P@MBBE@Poll?5Completed?$AA@ 1001ce68     cBNCSPoll.obj
 0003:00001e78       ??_C@_0BB@PKLE@We?5have?5finished?$AA@ 1001ce78     cBNCSPoll.obj
 0003:00001e8c       ??_C@_0DF@IHM@We?5have?5missed?5inputs?5?9?5go?5aroun@ 1001ce8c     cBNCSPoll.obj
 0003:00001ec4       ??_C@_0BI@FIAK@End?5of?5the?5device?5list?4?$AA@ 1001cec4     cBNCSPoll.obj
 0003:00001edc       ??_C@_0BM@BDAN@No?5ranges?5on?5device?5?$CFd?$CI?$CFc?$CJ?4?$AA@ 1001cedc     cBNCSPoll.obj
 0003:00001ef8       ??_C@_0DD@IOML@There?5is?5another?5device?5?$CFd?$CI?$CFc?$CJ?4?5@ 1001cef8     cBNCSPoll.obj
 0003:00001f2c       ??_C@_0CN@NGMM@ranges?5for?5dev?5?$CFd?5exhausted?4?5nee@ 1001cf2c     cBNCSPoll.obj
 0003:00001f5c       ??_C@_0DE@GHCJ@Old?5?9?5device?5is?5?$CFd?$CI?$CFc?$CJ?0?5range?5is@ 1001cf5c     cBNCSPoll.obj
 0003:00001f90       ??_C@_0L@OEDK@Subsequent?$AA@ 1001cf90     cBNCSPoll.obj
 0003:00001f9c       ??_C@_0EN@OLBK@First?5time?4?5Registering?5for?5curr@ 1001cf9c     cBNCSPoll.obj
 0003:00001fec       ??_C@_0CF@HFGE@calculateRanges?5returned?5true?5?9?5@ 1001cfec     cBNCSPoll.obj
 0003:00002014       ??_C@_0L@LEPM@First?5time?$AA@ 1001d014     cBNCSPoll.obj
 0003:00002020       ??_C@_0DA@HPDO@get?5next?5range?3?5first?5time?4?5dev?5@ 1001d020     cBNCSPoll.obj
 0003:00002050       ??_C@_05COLM@error?$AA@    1001d050     cBNCSPoll.obj
 0003:00002058       ??_C@_0O@NCCF@GP?5?$CF03d?5?$CFd?5?$CFd?$AA@ 1001d058     cBNCSPoll.obj
 0003:00002068       ??_C@_0O@LOCG@IP?5?$CF03d?5?$CFd?5?$CFd?$AA@ 1001d068     cBNCSPoll.obj
 0003:00002078       ??_C@_0O@NACB@RP?5?$CF03d?5?$CFd?5?$CFd?$AA@ 1001d078     cBNCSPoll.obj
 0003:00002088       ??_C@_0DE@HEPL@poll?5current?5device?5?$CFd?$CI?$CFc?$CJ?0?5curr@ 1001d088     cBNCSPoll.obj
 0003:000020bc       ??_C@_0CN@NDBG@createInitialMissedLists?$CI?$CJ?3Unkno@ 1001d0bc     cBNCSPoll.obj
 0003:000020ec       ??_C@_0DI@KFIC@createInitialMissedLists?$CI?$CJ?3throw@ 1001d0ec     cBNCSPoll.obj
 0003:00002124       ??_C@_0CF@KLLB@createInitialMissedLists?4?5?$CFd?5dev@ 1001d124     cBNCSPoll.obj
 0003:0000214c       ??_C@_0CE@HNKP@calculateRanges?$CI?$CJ?3Unknown?5Except@ 1001d14c     cBNCSPoll.obj
 0003:00002170       ??_C@_0CP@CCKH@calculateRanges?$CI?$CJ?3thrown?5excepti@ 1001d170     cBNCSPoll.obj
 0003:000021a0       ??_C@_0CE@IOGI@addToMissedList?$CI?$CJ?3Unknown?5Except@ 1001d1a0     cBNCSPoll.obj
 0003:000021c4       ??_C@_0CP@EFJM@addToMissedList?$CI?$CJ?3thrown?5excepti@ 1001d1c4     cBNCSPoll.obj
 0003:000021f4       ??_C@_0CP@PEFE@failed?5to?5get?5poll?5mutex?5in?5add?5@ 1001d1f4     cBNCSPoll.obj
 0003:00002224       ??_C@_0CB@NOHD@NOT?5?9?5create?5new?5instance?5for?5?$CFd@ 1001d224     cBNCSPoll.obj
 0003:00002248       ??_C@_0BK@PKFM@ERROR?5INPUT?5HAS?5NO?5DEVICE?$AA@ 1001d248     cBNCSPoll.obj
 0003:00002264       ??_C@_0CE@PIMC@getPollProgress?$CI?$CJ?3Unknown?5Except@ 1001d264     cBNCSPoll.obj
 0003:00002288       ??_C@_0CP@COI@getPollProgress?$CI?$CJ?3thrown?5excepti@ 1001d288     cBNCSPoll.obj
 0003:000022b8       ??_R0?AV?$QDict@VcInstanceInfo@@@@@8 1001d2b8     cDocument.obj
 0003:000022e0       ??_R0?AVcDocument@@@8      1001d2e0     cDocument.obj
 0003:000022f8       ??_R0?AVQPtrCollection@@@8 1001d2f8     cDocument.obj
 0003:00002318       ??_R0?AVQGDict@@@8         1001d318     cDocument.obj
 0003:00002330       ??_R0?AV?$QDict@VQDomElement@@@@@8 1001d330     cDocument.obj
 0003:00002358       ??_C@_0O@HDKP@?1local_config?$AA@ 1001d358     cDocument.obj
 0003:00002368       ??_C@_08LOKJ@?1alarms?1?$AA@ 1001d368     cDocument.obj
 0003:00002374       ??_C@_04JGGI@Doc?3?$AA@    1001d374     cDocument.obj
 0003:00002380       ??_R0?AVQDomNode@@@8       1001d380     cDocument.obj
 0003:00002398       ??_R0?AVQDomElement@@@8    1001d398     cDocument.obj
 0003:000023b4       ??_C@_08DCNP@complex?$DN?$AA@ 1001d3b4     cDocument.obj
 0003:000023c0       ??_C@_07FPEB@offset?$DN?$AA@ 1001d3c0     cDocument.obj
 0003:000023c8       ??_C@_07EBIG@device?$DN?$AA@ 1001d3c8     cDocument.obj
 0003:000023d0       ??_C@_01KMAE@?0?$AA@       1001d3d0     cDocument.obj
 0003:000023d4       ??_C@_03HJJN@ref?$AA@      1001d3d4     cDocument.obj
 0003:000023d8       ??_C@_04PIKN@type?$AA@     1001d3d8     cDocument.obj
 0003:000023e0       ??_C@_02IBHF@id?$AA@       1001d3e0     cDocument.obj
 0003:000023e4       ??_C@_02ELCB@no?$AA@       1001d3e4     cDocument.obj
 0003:000023e8       ??_C@_09COFM@composite?$AA@ 1001d3e8     cDocument.obj
 0003:000023f4       ??_C@_08IHDL@instance?$AA@ 1001d3f4     cDocument.obj
 0003:00002400       ??_C@_09MMGO@instances?$AA@ 1001d400     cDocument.obj
 0003:0000240c       ??_C@_0CD@OOBH@GetDeviceAndSlot?3GOT?5STUCK?5IN?5LO@ 1001d40c     cDocument.obj
 0003:00002430       ??_C@_0BP@HKGA@?$CB?$CB?5it?8s?5not?5device?5description?$AA@ 1001d430     cDocument.obj
 0003:00002450       ??_C@_0BD@LKLG@device_description?$AA@ 1001d450     cDocument.obj
 0003:00002464       ??_C@_0BN@KLP@Failed?5to?5load?5instances?4xml?$AA@ 1001d464     cDocument.obj
 0003:00002484       ??_C@_0P@BLEO@?1instances?4xml?$AA@ 1001d484     cDocument.obj
 0003:00002494       ??_C@_04IEHK@slot?$AA@     1001d494     cDocument.obj
 0003:0000249c       ??_C@_04OPJK@name?$AA@     1001d49c     cDocument.obj
 0003:000024a4       ??_C@_05FMAI@param?$AA@    1001d4a4     cDocument.obj
 0003:000024ac       ??_C@_03NJAO@GRD?$AA@      1001d4ac     cDocument.obj
 0003:000024b0       ??_C@_06JDNA@ROUTER?$AA@   1001d4b0     cDocument.obj
 0003:000024b8       ??_C@_03KACI@GPI?$AA@      1001d4b8     cDocument.obj
 0003:000024bc       ??_C@_0L@JKHJ@drivertype?$AA@ 1001d4bc     cDocument.obj
 0003:000024c8       ??_C@_04KGPJ@?4xml?$AA@    1001d4c8     cDocument.obj
 0003:000024d0       ??_C@_0O@ENLP@?1devicetypes?1?$AA@ 1001d4d0     cDocument.obj
 0003:000024e0       ??_C@_06GFPG@device?$AA@   1001d4e0     cDocument.obj
 0003:000024e8       ??_C@_0BE@NIHG@?1complex_instances?1?$AA@ 1001d4e8     cDocument.obj
 0003:00002500       ??_R0?AVcInstanceInfo@@@8  1001d500     cInstanceInfo.obj
 0003:00002520       ??_R0?AVcPollStore@@@8     1001d520     cPollStore.obj
 0003:0000253c       ??_C@_0M@FNHH@Poll?9store?3?$AA@ 1001d53c     cPollStore.obj
 0003:00002548       ??_C@_0EA@MIF@Device?5is?5?$CFd?0?5type?5is?5?$CFc?0?5raw?5li@ 1001d548     cPollStore.obj
 0003:00002588       ??_C@_0DO@MBFJ@ERROR?5?9?5getFirstValidRange?5?9?5not@ 1001d588     cPollStore.obj
 0003:000025c8       ??_C@_0BL@DFAC@?$CBPANIC?5NOTHING?5IN?5RAW?5LIST?$AA@ 1001d5c8     cPollStore.obj
 0003:000025e4       ??_C@_0FN@PHJG@calc?5range?4?5Device?5?$CFd?$CI?$CFc?$CJ?5has?5?$CFd@ 1001d5e4     cPollStore.obj
 0003:00002644       ??_C@_0CL@NHIA@Device?5?$CFd?$CI?$CFc?$CJ?5has?5no?5missed?5inpu@ 1001d644     cPollStore.obj
 0003:00002670       ??_R0?AVHoldoff@@@8        1001d670     Holdoff.obj
 0003:00002688       ??_R0?AVCPollRange@@@8     1001d688     PollRange.obj
 0003:000026a8       ??_R0?AVCPulseStretch@@@8  1001d6a8     PulseStretch.obj
 0003:000026c4       ??_C@_07HKHC@Network?$AA@  1001d6c4     panel:panelif.obj
 0003:000026cc       ??_C@_0M@PHEL@Workstation?$AA@ 1001d6cc     panel:panelif.obj
 0003:000026d8       ??_C@_07NJLA@CSI?4INI?$AA@ 1001d6d8     panel:panelif.obj
 0003:000026e0       ??_C@_0P@NIEE@CC_WORKSTATION?$AA@ 1001d6e0     panel:panelif.obj
 0003:000026f0       ??_C@_0BD@DGL@Registering?5class?3?$AA@ 1001d6f0     panel:panelif.obj
 0003:00002704       ??_C@_07JODG@panelif?$AA@  1001d704     panel:panelif.obj
 0003:0000270c       ??_C@_04DCMN@?$CFs?$CFs?$AA@ 1001d70c     panel:panelif.obj
 0003:00002714       ??_C@_0BH@MNJL@RM?5?$CFd?5?$CFd?5?$CFd?5?8?$CFs?8?5?$CFd?5?$CFd?$AA@ 1001d714     panel:panelif.obj
 0003:0000272c       ??_C@_07NICC@?5?8?0?9?9?9?8?$AA@ 1001d72c     panel:panelif.obj
 0003:00002734       ??_C@_03IGPL@?5?$CFd?$AA@  1001d734     panel:panelif.obj
 0003:00002738       ??_C@_0BF@PBKI@_?$CL_?$CL_?$CL_?$CL_?$CL_?$CL_?$CL?5NO?5P?6?$AA@ 1001d738     panel:panelif.obj
 0003:00002750       ??_C@_0M@HEPL@RM?5?$CFd?5?$CFd?5?$CFd?$AA@ 1001d750     panel:panelif.obj
 0003:0000275c       ??_C@_0M@NGNF@CSI?5closing?$AA@ 1001d75c     panel:panelif.obj
 0003:00002768       ??_C@_0N@GAKB@DG?5?$CF03d?5?$CF03d?$AA@ 1001d768     panel:panelif.obj
 0003:00002778       ??_C@_0BF@EIHN@DI?5?$CF03d?5?$CF03d?5?$CF03d?5?$CFs?$AA@ 1001d778     panel:panelif.obj
 0003:00002790       ??_R0?AVtype_info@@@8      1001d790     MSVCRT:ti_inst.obj
 0003:000027b4       ?sm_pPoll@bncs_input@@0PAVcBNCSPoll@@A 1001d7b4     bncs_input.obj
 0003:000027b8       ?sm_iPollClassCount@bncs_input@@0HA 1001d7b8     bncs_input.obj
 0003:000027bc       ?_Nilrefs@?$_Tree@HU?$pair@$$CBHPAVBncsStore@@@std@@U_Kfn@?$map@HPAVBncsStore@@U?$less@H@std@@V?$allocator@PAVBncsStore@@@3@@2@U?$less@H@2@V?$allocator@PAVBncsStore@@@2@@std@@1IA 1001d7bc     bncs_input.obj
 0003:000027c0       ?_Nil@?$_Tree@HU?$pair@$$CBHPAVBncsStore@@@std@@U_Kfn@?$map@HPAVBncsStore@@U?$less@H@std@@V?$allocator@PAVBncsStore@@@3@@2@U?$less@H@2@V?$allocator@PAVBncsStore@@@2@@std@@1PAU_Node@12@A 1001d7c0     bncs_input.obj
 0003:000027c4       ?_Nilrefs@?$_Tree@HU?$pair@$$CBHPAVHoldoff@@@std@@U_Kfn@?$map@HPAVHoldoff@@U?$less@H@std@@V?$allocator@PAVHoldoff@@@3@@2@U?$less@H@2@V?$allocator@PAVHoldoff@@@2@@std@@1IA 1001d7c4     bncs_input.obj
 0003:000027c8       ?_Nil@?$_Tree@HU?$pair@$$CBHPAVHoldoff@@@std@@U_Kfn@?$map@HPAVHoldoff@@U?$less@H@std@@V?$allocator@PAVHoldoff@@@3@@2@U?$less@H@2@V?$allocator@PAVHoldoff@@@2@@std@@1PAU_Node@12@A 1001d7c8     bncs_input.obj
 0003:000027cc       ?_Nilrefs@?$_Tree@HU?$pair@$$CBHPAVCPulseStretch@@@std@@U_Kfn@?$map@HPAVCPulseStretch@@U?$less@H@std@@V?$allocator@PAVCPulseStretch@@@3@@2@U?$less@H@2@V?$allocator@PAVCPulseStretch@@@2@@std@@1IA 1001d7cc     bncs_input.obj
 0003:000027d0       ?_Nil@?$_Tree@HU?$pair@$$CBHPAVCPulseStretch@@@std@@U_Kfn@?$map@HPAVCPulseStretch@@U?$less@H@std@@V?$allocator@PAVCPulseStretch@@@3@@2@U?$less@H@2@V?$allocator@PAVCPulseStretch@@@2@@std@@1PAU_Node@12@A 1001d7d0     bncs_input.obj
 0003:000027d4       ??_C@_00A@?$AA@            1001d7d4     bncs_input.obj
 0003:000027d8       ?_Nil@?$_Tree@VQString@@U?$pair@$$CBVQString@@V1@@std@@U_Kfn@?$map@VQString@@V1@U?$less@VQString@@@std@@V?$allocator@VQString@@@3@@3@U?$less@VQString@@@3@V?$allocator@VQString@@@3@@std@@1PAU_Node@12@A 1001d7d8     bncs_input.obj
 0003:000027dc       ?_Nilrefs@?$_Tree@VQString@@U?$pair@$$CBVQString@@V1@@std@@U_Kfn@?$map@VQString@@V1@U?$less@VQString@@@std@@V?$allocator@VQString@@@3@@3@U?$less@VQString@@@3@V?$allocator@VQString@@@3@@std@@1IA 1001d7dc     bncs_input.obj
 0003:000027e4       ?pDocument@BncsStore@@0PAVcDocument@@A 1001d7e4     BncsStore.obj
 0003:000027e8       ?iDocClassCount@BncsStore@@0HA 1001d7e8     BncsStore.obj
 0003:000027f0       ?_Nilrefs@?$_Tree@HU?$pair@$$CBHPAVcPollStore@@@std@@U_Kfn@?$map@HPAVcPollStore@@U?$less@H@std@@V?$allocator@PAVcPollStore@@@3@@2@U?$less@H@2@V?$allocator@PAVcPollStore@@@2@@std@@1IA 1001d7f0     cBNCSPoll.obj
 0003:000027f4       ?_Nil@?$_Tree@HU?$pair@$$CBHPAVcPollStore@@@std@@U_Kfn@?$map@HPAVcPollStore@@U?$less@H@std@@V?$allocator@PAVcPollStore@@@3@@2@U?$less@H@2@V?$allocator@PAVcPollStore@@@2@@std@@1PAU_Node@12@A 1001d7f4     cBNCSPoll.obj
 0003:000027f8       ?sm_sAlarmSystem@cDocument@@0VQString@@A 1001d7f8     cDocument.obj
 0003:000027ff       ?sm_bLocalConfig@cDocument@@0_NA 1001d7ff     cDocument.obj
 0003:0000280c       ?g_szModFileName@@3PADA    1001d80c     newbncs_acq.obj
 0003:00002934       __adjust_fdiv              1001d934     <common>
 0003:00002938       __pRawDllMain              1001d938     <common>
 0003:0000293c       ___onexitend               1001d93c     <common>
 0003:00002940       ___onexitbegin             1001d940     <common>

 entry point at        0001:00012c3d

 Static symbols

 0001:00011410       _$E75                      10012410 f   newbncs_acq.obj
 0001:00011420       _$E72                      10012420 f   newbncs_acq.obj
 0001:00011430       _$E74                      10012430 f   newbncs_acq.obj
 0001:00011440       _$E73                      10012440 f   newbncs_acq.obj
 0001:00011450       _$E81                      10012450 f   newbncs_acq.obj
 0001:00011460       _$E78                      10012460 f   newbncs_acq.obj
 0001:00011470       _$E80                      10012470 f   newbncs_acq.obj
 0001:00011480       _$E79                      10012480 f   newbncs_acq.obj
 0001:000112c0       _$E25                      100122c0 f   except.obj
 0001:000112d0       _$E22                      100122d0 f   except.obj
 0001:000112e0       _$E24                      100122e0 f   except.obj
 0001:000112f0       _$E23                      100122f0 f   except.obj
 0001:00011300       _$E31                      10012300 f   except.obj
 0001:00011310       _$E28                      10012310 f   except.obj
 0001:00011320       _$E30                      10012320 f   except.obj
 0001:00011330       _$E29                      10012330 f   except.obj
 0001:00011370       ?my_translator@@YAXIPAU_EXCEPTION_POINTERS@@@Z 10012370 f   except.obj
 0001:00010190       _$E75                      10011190 f   cPollStore.obj
 0001:000101a0       _$E72                      100111a0 f   cPollStore.obj
 0001:000101b0       _$E74                      100111b0 f   cPollStore.obj
 0001:000101c0       _$E73                      100111c0 f   cPollStore.obj
 0001:000101d0       _$E81                      100111d0 f   cPollStore.obj
 0001:000101e0       _$E78                      100111e0 f   cPollStore.obj
 0001:000101f0       _$E80                      100111f0 f   cPollStore.obj
 0001:00010200       _$E79                      10011200 f   cPollStore.obj
 0001:0000db30       _$E77                      1000eb30 f   cDocument.obj
 0001:0000db40       _$E74                      1000eb40 f   cDocument.obj
 0001:0000db50       _$E76                      1000eb50 f   cDocument.obj
 0001:0000db60       _$E75                      1000eb60 f   cDocument.obj
 0001:0000db70       _$E83                      1000eb70 f   cDocument.obj
 0001:0000db80       _$E80                      1000eb80 f   cDocument.obj
 0001:0000db90       _$E82                      1000eb90 f   cDocument.obj
 0001:0000dba0       _$E81                      1000eba0 f   cDocument.obj
 0001:0000dbb0       _$E99                      1000ebb0 f   cDocument.obj
 0001:0000dbc0       _$E95                      1000ebc0 f   cDocument.obj
 0001:0000dbe0       _$E98                      1000ebe0 f   cDocument.obj
 0001:0000dbf0       _$E96                      1000ebf0 f   cDocument.obj
 0001:0000b610       _$E75                      1000c610 f   cBNCSPoll.obj
 0001:0000b620       _$E72                      1000c620 f   cBNCSPoll.obj
 0001:0000b630       _$E74                      1000c630 f   cBNCSPoll.obj
 0001:0000b640       _$E73                      1000c640 f   cBNCSPoll.obj
 0001:0000b650       _$E81                      1000c650 f   cBNCSPoll.obj
 0001:0000b660       _$E78                      1000c660 f   cBNCSPoll.obj
 0001:0000b670       _$E80                      1000c670 f   cBNCSPoll.obj
 0001:0000b680       _$E79                      1000c680 f   cBNCSPoll.obj
 0001:000082c0       _$E77                      100092c0 f   BncsStore.obj
 0001:000082d0       _$E74                      100092d0 f   BncsStore.obj
 0001:000082e0       _$E76                      100092e0 f   BncsStore.obj
 0001:000082f0       _$E75                      100092f0 f   BncsStore.obj
 0001:00008300       _$E83                      10009300 f   BncsStore.obj
 0001:00008310       _$E80                      10009310 f   BncsStore.obj
 0001:00008320       _$E82                      10009320 f   BncsStore.obj
 0001:00008330       _$E81                      10009330 f   BncsStore.obj
 0001:00000000       _$E75                      10001000 f   bncs_input.obj
 0001:00000010       _$E72                      10001010 f   bncs_input.obj
 0001:00000020       _$E74                      10001020 f   bncs_input.obj
 0001:00000030       _$E73                      10001030 f   bncs_input.obj
 0001:00000040       _$E81                      10001040 f   bncs_input.obj
 0001:00000050       _$E78                      10001050 f   bncs_input.obj
 0001:00000060       _$E80                      10001060 f   bncs_input.obj
 0001:00000070       _$E79                      10001070 f   bncs_input.obj
 0001:00012af4       ?ArrayUnwindFilter@@YAHPAU_EXCEPTION_POINTERS@@@Z 10013af4 f   MSVCRT:ehvecdtr.obj

Line numbers for .\Release\PulseStretch.obj(w:\core_svn\Source\windows\lib\alarms\alm_bncs_acq\PulseStretch.cpp) segment .text

    12 0001:00011540    13 0001:00011550    14 0001:00011553    15 0001:00011556
    18 0001:00011580    20 0001:00011586

Line numbers for .\Release\PollRange.obj(w:\core_svn\Source\windows\lib\alarms\alm_bncs_acq\PollRange.cpp) segment .text

    12 0001:000114f0    13 0001:000114f2    14 0001:000114fd    15 0001:00011500
    18 0001:00011530    20 0001:00011536

Line numbers for .\Release\newbncs_acq.obj(w:\core_svn\Source\windows\lib\alarms\alm_bncs_acq\newbncs_acq.cpp) segment .text

    53 0001:00011490    58 0001:00011497    66 0001:000114ac    67 0001:000114b1
    72 0001:000114c0    74 0001:000114e2    73 0001:000114e3    74 0001:000114e5

Line numbers for .\Release\newbncs_acq.obj(C:\Program Files\Microsoft Visual Studio\VC98\INCLUDE\iostream) segment .text

    16 0001:00011420    29 0001:00011460

Line numbers for .\Release\Holdoff.obj(w:\core_svn\Source\windows\lib\alarms\alm_bncs_acq\Holdoff.cpp) segment .text

    12 0001:000113c0    13 0001:000113d0    14 0001:000113d3    15 0001:000113d6
    18 0001:00011400    20 0001:00011406

Line numbers for .\Release\except.obj(w:\core_svn\Source\windows\lib\alarms\alm_bncs_acq\except.cpp) segment .text

    14 0001:00011340    15 0001:00011342    16 0001:00011348    17 0001:0001134d
    18 0001:00011352    21 0001:00011360    23 0001:0001136c     5 0001:00011370
     6 0001:00011373    26 0001:000113a0    28 0001:000113a3    31 0001:000113b0
    33 0001:000113b2

Line numbers for .\Release\except.obj(C:\Program Files\Microsoft Visual Studio\VC98\INCLUDE\iostream) segment .text

    16 0001:000112d0    29 0001:00011310

Line numbers for .\Release\cPollStore.obj(C:\Program Files\Microsoft Visual Studio\VC98\INCLUDE\list) segment .text

   151 0001:00010bc0   152 0001:00010bf5   153 0001:00010c01   131 0001:00010c10
   151 0001:00010c40   152 0001:00010c75   153 0001:00010c81   166 0001:00010c90
   235 0001:00010ca0   236 0001:00010ca8   239 0001:00010caf   240 0001:00010cbf
   241 0001:00010cc9   341 0001:00010ce0   343 0001:00010d0c   345 0001:00010d4c
   346 0001:00010d63   348 0001:00010d9b   349 0001:00010db8   350 0001:00010e48
   351 0001:00010e70   352 0001:00010e79   353 0001:00010f0c   354 0001:00010f25
   355 0001:00010f36   356 0001:00010f3a   345 0001:00010f43   357 0001:00010f4e
   358 0001:00010f59   218 0001:00010fe0   221 0001:0001100e   222 0001:00011013
   223 0001:00011022   224 0001:0001102b   243 0001:00011040   244 0001:00011051
   245 0001:00011078   243 0001:00011090   244 0001:000110a1   245 0001:000110c8
   249 0001:000110e0   251 0001:000110f1   255 0001:000110fe   264 0001:00011110
   266 0001:00011123   268 0001:00011152   310 0001:00011170   312 0001:00011185
   313 0001:00011191   314 0001:0001119d   316 0001:000111a5   318 0001:000111d5
   319 0001:000111e4   313 0001:000111e6   320 0001:000111ea   321 0001:000111ee
   322 0001:0001121f   323 0001:0001122c   235 0001:00011240   236 0001:00011248
   239 0001:0001124f   240 0001:0001125f   241 0001:00011269   394 0001:00011280
   398 0001:0001128e   400 0001:00011297   403 0001:000112a0   405 0001:000112a9
   406 0001:000112b3   409 0001:000112b7

Line numbers for .\Release\cPollStore.obj(w:\core_svn\Source\windows\lib\alarms\alm_bncs_acq\cPollStore.cpp) segment .text

    25 0001:00010210    27 0001:00010238    33 0001:00010320    34 0001:000103b7
    37 0001:000103f7    40 0001:00010420    43 0001:00010426    47 0001:00010442
    48 0001:00010477    50 0001:00010494    53 0001:000104a0    58 0001:000104c0
    61 0001:000104d0    62 0001:000104d5    66 0001:00010519    69 0001:00010520
    70 0001:00010525    74 0001:00010569    78 0001:00010570    79 0001:00010573
    86 0001:00010576    87 0001:0001057b    89 0001:00010583   103 0001:00010590
    93 0001:00010593    94 0001:000105b2   103 0001:000105b6   107 0001:000105c0
   114 0001:000105c9   115 0001:000105ce   117 0001:000105d2   118 0001:000105e9
   124 0001:000105eb   122 0001:000105ee   124 0001:000105f0   127 0001:00010600
   136 0001:00010607   154 0001:00010609   139 0001:0001060c   140 0001:00010611
   143 0001:00010615   144 0001:0001062a   154 0001:0001062c   147 0001:0001062f
   148 0001:00010639   149 0001:00010643   153 0001:0001065a   154 0001:0001065c
   158 0001:00010660   160 0001:0001066d   162 0001:00010672   165 0001:00010676
   172 0001:0001068d   168 0001:00010690   172 0001:00010694   177 0001:000106a0
   181 0001:000106a3   183 0001:000106b4   185 0001:000106b8   187 0001:000106c6
   194 0001:000106c8   191 0001:000106cb   193 0001:000106e2   194 0001:000106e4
   197 0001:000106f0   204 0001:000106fd   205 0001:00010704   207 0001:00010712
   208 0001:0001071c   209 0001:0001074c   213 0001:00010762   215 0001:00010767
   218 0001:0001076b   223 0001:000107c0   226 0001:000107d0   227 0001:000107f4
   229 0001:000107f9   231 0001:000107fd   233 0001:00010812   236 0001:00010826
   240 0001:0001082a   243 0001:00010835   244 0001:00010969   248 0001:000109af
   249 0001:000109b2   255 0001:000109b9   257 0001:000109c4   261 0001:000109cc
   263 0001:000109d5   267 0001:000109f5   269 0001:000109fd   272 0001:00010a0d
   312 0001:00010a0f   313 0001:00010a23   315 0001:00010a2a   319 0001:00010a34
   321 0001:00010a36   322 0001:00010a56   324 0001:00010a5e   257 0001:00010a78
   332 0001:00010a85   335 0001:00010a87   336 0001:00010a9e   339 0001:00010aa2
   342 0001:00010ab0   348 0001:00010ab3   349 0001:00010ade   354 0001:00010b00
   359 0001:00010b0a   362 0001:00010b0e   359 0001:00010b20   371 0001:00010b29
   365 0001:00010b2c   371 0001:00010b31   374 0001:00010b40   380 0001:00010b49
   381 0001:00010b4e   383 0001:00010b52   387 0001:00010b69   392 0001:00010b6b
   391 0001:00010b6e   392 0001:00010b70   395 0001:00010b80   397 0001:00010b89
   398 0001:00010b92   402 0001:00010b9b   405 0001:00010ba0   407 0001:00010ba9
   408 0001:00010bb2

Line numbers for .\Release\cPollStore.obj(C:\Program Files\Microsoft Visual Studio\VC98\INCLUDE\iostream) segment .text

    16 0001:000101a0    29 0001:000101e0

Line numbers for .\Release\cInstanceInfo.obj(w:\core_svn\Source\windows\lib\alarms\alm_bncs_acq\cInstanceInfo.cpp) segment .text

    14 0001:00010070    15 0001:000100d5    18 0001:00010110    20 0001:00010134

Line numbers for .\Release\cDocument.obj(C:\Qt\3.2.3\include\qdict.h) segment .text

    57 0001:0000fef0    60 0001:0000ff50    75 0001:0000ff60    57 0001:0000ff70
    60 0001:0000ffd0    75 0001:0000ffe0    96 0001:00010030    98 0001:00010045
    96 0001:00010050    98 0001:00010065

Line numbers for .\Release\cDocument.obj(w:\core_svn\Source\windows\lib\alarms\alm_bncs_acq\cDocument.cpp) segment .text

    19 0001:0000dbc0    26 0001:0000dc30    29 0001:0000dc49    33 0001:0000dc50
    42 0001:0000dce4    44 0001:0000dcf6    51 0001:0000dd7f    54 0001:0000ddc0
    55 0001:0000ddf0    58 0001:0000dea0    61 0001:0000debd    65 0001:0000ded7
    66 0001:0000df0f    68 0001:0000df6b    71 0001:0000df80    72 0001:0000df98
    73 0001:0000dfa7    74 0001:0000dfbd    75 0001:0000dfbf    77 0001:0000dfd6
    78 0001:0000dfe2    83 0001:0000dff6    80 0001:0000e007    82 0001:0000e00d
    83 0001:0000e01f    86 0001:0000e040    89 0001:0000e061    91 0001:0000e06e
    92 0001:0000e0d3    94 0001:0000e0e5    96 0001:0000e0fd    98 0001:0000e11c
   101 0001:0000e1c4   103 0001:0000e1f8   105 0001:0000e261   106 0001:0000e26d
   109 0001:0000e320   111 0001:0000e32c   113 0001:0000e34c   114 0001:0000e35b
   116 0001:0000e36f   119 0001:0000e375   121 0001:0000e3c5   124 0001:0000e3cb
   126 0001:0000e467   129 0001:0000e47e   130 0001:0000e4a5   131 0001:0000e547
   133 0001:0000e5d4   137 0001:0000e668   138 0001:0000e6ff   140 0001:0000e746
   142 0001:0000e756   143 0001:0000e7ab   144 0001:0000e7fb   145 0001:0000e84f
   147 0001:0000e8ad   146 0001:0000e8bc   147 0001:0000e90b   138 0001:0000e962
   149 0001:0000e96b   150 0001:0000e97d   151 0001:0000e9e5   152 0001:0000e9f1
   153 0001:0000eac0   157 0001:0000eb00   168 0001:0000eb18   169 0001:0000eb4d
   170 0001:0000eb62   171 0001:0000eb72   172 0001:0000eb8d   173 0001:0000eba9
   176 0001:0000ebc5   178 0001:0000ebdf   184 0001:0000ebfa   188 0001:0000ec3e
   194 0001:0000ec59   207 0001:0000ec61   219 0001:0000ec85   220 0001:0000ec90
   221 0001:0000ec9b   222 0001:0000eca6   196 0001:0000ecb7   229 0001:0000ecbf
   235 0001:0000ecdc   236 0001:0000ece1   238 0001:0000ecef   239 0001:0000edd5
   242 0001:0000edf0   243 0001:0000ee0d   244 0001:0000ee1b   246 0001:0000ee3f
   248 0001:0000ee59   251 0001:0000ee82   252 0001:0000eeb0   254 0001:0000ef08
   255 0001:0000ef17   259 0001:0000ef4b   258 0001:0000ef5c   259 0001:0000ef88
   262 0001:0000efa0   263 0001:0000efba   265 0001:0000efc2   266 0001:0000f01e
   269 0001:0000f02c   270 0001:0000f040   271 0001:0000f042   272 0001:0000f044
   274 0001:0000f04b   277 0001:0000f064   279 0001:0000f075   280 0001:0000f078
   283 0001:0000f0a0   284 0001:0000f0a1   285 0001:0000f0bc   286 0001:0000f0c0
   287 0001:0000f0d1   288 0001:0000f0d4   287 0001:0000f0d8   288 0001:0000f0eb
   292 0001:0000f0f0   295 0001:0000f109   296 0001:0000f124   303 0001:0000f12c
   304 0001:0000f140   305 0001:0000f1d2   306 0001:0000f1d6   307 0001:0000f1e2
   308 0001:0000f209   310 0001:0000f20d   308 0001:0000f214   314 0001:0000f21a
   318 0001:0000f26e   320 0001:0000f2c9   322 0001:0000f325   326 0001:0000f388
   331 0001:0000f38c   333 0001:0000f3c4   334 0001:0000f3d3   336 0001:0000f3e0
   339 0001:0000f3e6   341 0001:0000f430   344 0001:0000f436   346 0001:0000f4c2
   349 0001:0000f4c8   351 0001:0000f54b   352 0001:0000f550   353 0001:0000f5a1
   356 0001:0000f5a9   358 0001:0000f5ed   359 0001:0000f61b   364 0001:0000f630
   365 0001:0000f64e   366 0001:0000f665   367 0001:0000f68a   370 0001:0000f6a5
   371 0001:0000f6c6   378 0001:0000f6ce   379 0001:0000f75e   380 0001:0000f766
   392 0001:0000f772   394 0001:0000f7c4   395 0001:0000f7d3   397 0001:0000f7e4
   400 0001:0000f7ea   402 0001:0000f83c   405 0001:0000f842   407 0001:0000f8d5
   411 0001:0000f8db   413 0001:0000f912   414 0001:0000f921   416 0001:0000f92e
   419 0001:0000f934   421 0001:0000f986   424 0001:0000f98c   426 0001:0000fa1f
   430 0001:0000fa25   384 0001:0000fa8e   430 0001:0000fb03   431 0001:0000fb2c
   432 0001:0000fbac   433 0001:0000fbba   434 0001:0000fbc8   436 0001:0000fbd0
   437 0001:0000fc24   438 0001:0000fc87   441 0001:0000fc96   444 0001:0000fd24
   445 0001:0000fdac   448 0001:0000fdd0   450 0001:0000fdec   451 0001:0000fdf6
   453 0001:0000fe1a   455 0001:0000fe34   461 0001:0000fe66   458 0001:0000fe77
   460 0001:0000fea5   461 0001:0000fed5

Line numbers for .\Release\cDocument.obj(C:\Program Files\Microsoft Visual Studio\VC98\INCLUDE\iostream) segment .text

    16 0001:0000db40    29 0001:0000db80

Line numbers for .\Release\cBNCSPoll.obj(C:\Program Files\Microsoft Visual Studio\VC98\INCLUDE\xmemory) segment .text

    34 0001:0000db00

Line numbers for .\Release\cBNCSPoll.obj(C:\Program Files\Microsoft Visual Studio\VC98\INCLUDE\utility) segment .text

    21 0001:0000d340

Line numbers for .\Release\cBNCSPoll.obj(C:\Program Files\Microsoft Visual Studio\VC98\INCLUDE\xtree) segment .text

   191 0001:0000d210   363 0001:0000d220   368 0001:0000d240   369 0001:0000d26f
   370 0001:0000d275   371 0001:0000d287   364 0001:0000d299   365 0001:0000d29d
   366 0001:0000d2e1   371 0001:0000d2eb   103 0001:0000d2f0   104 0001:0000d300
   110 0001:0000d311   107 0001:0000d312   108 0001:0000d31c   109 0001:0000d328
   110 0001:0000d32f   261 0001:0000d360   262 0001:0000d36b   264 0001:0000d378
   265 0001:0000d380   266 0001:0000d38f   268 0001:0000d395   269 0001:0000d397
   270 0001:0000d3af   271 0001:0000d3b9   272 0001:0000d3c1   273 0001:0000d3c6
   274 0001:0000d3ca   275 0001:0000d3d0   276 0001:0000d3d3   277 0001:0000d3d5
   278 0001:0000d3db   279 0001:0000d3e0   280 0001:0000d3e5   281 0001:0000d3ea
   282 0001:0000d3f6   283 0001:0000d3f9   284 0001:0000d402   285 0001:0000d404
   286 0001:0000d406   287 0001:0000d409   289 0001:0000d40c   290 0001:0000d41f
   291 0001:0000d426   292 0001:0000d429   293 0001:0000d438   294 0001:0000d43b
   295 0001:0000d444   296 0001:0000d446   297 0001:0000d448   298 0001:0000d44b
   300 0001:0000d456   301 0001:0000d460   302 0001:0000d465   303 0001:0000d467
   304 0001:0000d483   306 0001:0000d48b   307 0001:0000d497   308 0001:0000d49a
   309 0001:0000d49c   290 0001:0000d4b1   310 0001:0000d4b5   311 0001:0000d4c5
   312 0001:0000d4dc   313 0001:0000d4e5   314 0001:0000d4e8   315 0001:0000d4ed
   316 0001:0000d4f0   317 0001:0000d4f6   318 0001:0000d534   320 0001:0000d53a
   334 0001:0000d551   336 0001:0000d553   337 0001:0000d558   338 0001:0000d55b
   339 0001:0000d561   340 0001:0000d5a1   342 0001:0000d5a6   343 0001:0000d5bd
   344 0001:0000d5c3   324 0001:0000d5d4   325 0001:0000d5dc   327 0001:0000d5e1
   328 0001:0000d621   329 0001:0000d627   330 0001:0000d630   331 0001:0000d636
   332 0001:0000d63c   333 0001:0000d667   332 0001:0000d66c   333 0001:0000d677
   332 0001:0000d67c   333 0001:0000d681   346 0001:0000d686   347 0001:0000d68d
   349 0001:0000d693   350 0001:0000d6d1   351 0001:0000d6d6   352 0001:0000d6df
   353 0001:0000d6e5   354 0001:0000d6ea   356 0001:0000d72a   357 0001:0000d72d
   359 0001:0000d737   360 0001:0000d741   361 0001:0000d744   399 0001:0000d760
   444 0001:0000d7a0   445 0001:0000d7b4   446 0001:0000d7bf   448 0001:0000d7c1
   462 0001:0000d7e0   464 0001:0000d7f1   465 0001:0000d81c   467 0001:0000d81f
   475 0001:0000d844   476 0001:0000d847   477 0001:0000d84f   468 0001:0000d854
   469 0001:0000d856   470 0001:0000d85d   471 0001:0000d860   472 0001:0000d866
   473 0001:0000d86c   479 0001:0000d86e   480 0001:0000d88a   481 0001:0000d897
   482 0001:0000d89a   483 0001:0000d89f   484 0001:0000d8a7   485 0001:0000d8aa
   486 0001:0000d8b3   487 0001:0000d8b9   488 0001:0000d8be   489 0001:0000d8c3
   490 0001:0000d8c5   491 0001:0000d900   492 0001:0000d90a   493 0001:0000d913
   494 0001:0000d942   493 0001:0000d947   494 0001:0000d955   493 0001:0000d95a
   494 0001:0000d95f   496 0001:0000d964   497 0001:0000d969   498 0001:0000d971
   499 0001:0000d974   500 0001:0000d97d   501 0001:0000d983   502 0001:0000d988
   503 0001:0000d98c   504 0001:0000d98e   505 0001:0000d9cb   506 0001:0000d9d5
   507 0001:0000d9de   508 0001:0000da2b   509 0001:0000da3a   542 0001:0000da50
   543 0001:0000da60   544 0001:0000da68   511 0001:0000da70   513 0001:0000da73
   514 0001:0000da81   515 0001:0000da8c   516 0001:0000da8f   517 0001:0000da91
   513 0001:0000da95   518 0001:0000da9a    92 0001:0000daa0    94 0001:0000dab2
   101 0001:0000dab6    95 0001:0000dab9    96 0001:0000dac5   101 0001:0000dad8
    99 0001:0000dad9   100 0001:0000dae2   101 0001:0000daed

Line numbers for .\Release\cBNCSPoll.obj(w:\core_svn\Source\windows\lib\alarms\alm_bncs_acq\cBNCSPoll.cpp) segment .text

    31 0001:0000b690    32 0001:0000b7c4    34 0001:0000b7e6    37 0001:0000b830
    42 0001:0000b856    44 0001:0000b867    45 0001:0000b870    46 0001:0000b884
    59 0001:0000b88b    51 0001:0000b89c    52 0001:0000b8c0    56 0001:0000b8c9
    57 0001:0000b8da    62 0001:0000b8f0    66 0001:0000b921    68 0001:0000b933
    69 0001:0000b943    70 0001:0000b948    71 0001:0000b952    72 0001:0000b957
    73 0001:0000b961    76 0001:0000b966    77 0001:0000b975    79 0001:0000b97d
    83 0001:0000b989    85 0001:0000b991    87 0001:0000b995    88 0001:0000b998
    89 0001:0000b99c    85 0001:0000b9ba    91 0001:0000b9db    94 0001:0000ba5b
    96 0001:0000ba68    97 0001:0000ba72    99 0001:0000ba79   102 0001:0000bc10
   105 0001:0000bc16   109 0001:0000bc32   110 0001:0000bc67   112 0001:0000bc87
   115 0001:0000bc90   131 0001:0000bcb3   132 0001:0000bcd0   136 0001:0000bcd8
   145 0001:0000bcf2   146 0001:0000bd26   149 0001:0000bd30   150 0001:0000bd33
   167 0001:0000bd3b   189 0001:0000bd48   190 0001:0000bd4a   155 0001:0000bd5d
   158 0001:0000bd64   141 0001:0000bd72   190 0001:0000bd74   162 0001:0000bd87
   164 0001:0000bdb7   167 0001:0000be65   189 0001:0000be72   190 0001:0000be74
   138 0001:0000be87   139 0001:0000be92   141 0001:0000bea2   171 0001:0000bea7
   190 0001:0000beb2   175 0001:0000beca   177 0001:0000beeb   178 0001:0000bef5
   179 0001:0000bf02   183 0001:0000bf0b   185 0001:0000bf19   186 0001:0000bf23
   187 0001:0000bf30   193 0001:0000bf40   197 0001:0000bf44   199 0001:0000bf50
   216 0001:0000bf66   219 0001:0000bf74   220 0001:0000bf78   203 0001:0000bf7a
   220 0001:0000bf7d   208 0001:0000bf7f   220 0001:0000bf82   212 0001:0000bf83
   219 0001:0000bf91   220 0001:0000bf95   223 0001:0000bfa0   224 0001:0000bfc6
   228 0001:0000bfca   229 0001:0000bfd1   231 0001:0000bfd6   240 0001:0000bfef
   242 0001:0000bffa   244 0001:0000c039   245 0001:0000c04e   248 0001:0000c062
   249 0001:0000c071   254 0001:0000c079   255 0001:0000c0af   260 0001:0000c0b9
   262 0001:0000c0bc   268 0001:0000c0c8   276 0001:0000c0dd   279 0001:0000c0f0
   280 0001:0000c100   284 0001:0000c10d   306 0001:0000c118   307 0001:0000c11a
   309 0001:0000c127   310 0001:0000c129   312 0001:0000c12e   314 0001:0000c130
   351 0001:0000c13e   335 0001:0000c156   337 0001:0000c177   338 0001:0000c181
   339 0001:0000c18e   343 0001:0000c197   345 0001:0000c1a5   346 0001:0000c1af
   347 0001:0000c1bc   354 0001:0000c1d0   357 0001:0000c1eb   361 0001:0000c208
   362 0001:0000c211   365 0001:0000c214   399 0001:0000c21c   367 0001:0000c22f
   374 0001:0000c236   375 0001:0000c23f   379 0001:0000c242   383 0001:0000c24b
   384 0001:0000c254   386 0001:0000c257   391 0001:0000c259   392 0001:0000c280
   396 0001:0000c289   397 0001:0000c29d   402 0001:0000c2b0   403 0001:0000c2b3
   405 0001:0000c2bd   416 0001:0000c2cc   409 0001:0000c2ce   410 0001:0000c2d9
   413 0001:0000c2e8   410 0001:0000c309   415 0001:0000c334   416 0001:0000c344
   419 0001:0000c350   420 0001:0000c356   421 0001:0000c35e   423 0001:0000c362
   428 0001:0000c365   430 0001:0000c387   442 0001:0000c39c   443 0001:0000c3a2
   435 0001:0000c3a5   442 0001:0000c3c9   443 0001:0000c3cf   440 0001:0000c3d2
   442 0001:0000c3dd   443 0001:0000c3e8   446 0001:0000c3f0   447 0001:0000c3f5
   449 0001:0000c403   451 0001:0000c417   452 0001:0000c41a   449 0001:0000c43b
   458 0001:0000c46a   459 0001:0000c473   460 0001:0000c476   454 0001:0000c47d
   460 0001:0000c480   480 0001:0000c490   488 0001:0000c4b3   493 0001:0000c4cc
   494 0001:0000c4e4   503 0001:0000c4ec   508 0001:0000c524   509 0001:0000c532
   511 0001:0000c540   513 0001:0000c548   516 0001:0000c54f   518 0001:0000c55a
   519 0001:0000c565   521 0001:0000c575   525 0001:0000c5a2   527 0001:0000c5b0
   532 0001:0000c5d6   533 0001:0000c5f9   538 0001:0000c616   543 0001:0000c61b
   546 0001:0000c629   547 0001:0000c62b   551 0001:0000c636   556 0001:0000c669
   557 0001:0000c697   562 0001:0000c6a5   567 0001:0000c6a8   577 0001:0000c6c0
   579 0001:0000c6cf   582 0001:0000c6e0   583 0001:0000c70a   590 0001:0000c716
   593 0001:0000c719   594 0001:0000c72f   597 0001:0000c736   599 0001:0000c754
   602 0001:0000c756   604 0001:0000c769   605 0001:0000c796   611 0001:0000c79c
   613 0001:0000c7ad   616 0001:0000c7b2   621 0001:0000c7bd   625 0001:0000c7c9
   627 0001:0000c7ea   630 0001:0000c7fc   631 0001:0000c811   634 0001:0000c817
   635 0001:0000c81d   636 0001:0000c824   639 0001:0000c836   640 0001:0000c84b
   641 0001:0000c858   645 0001:0000c861   646 0001:0000c86e   647 0001:0000c872
   651 0001:0000c877   654 0001:0000c885   655 0001:0000c897   656 0001:0000c8b6
   661 0001:0000c8e2   663 0001:0000c8e4   666 0001:0000c8f5   671 0001:0000c8f7
   672 0001:0000c90d   675 0001:0000c923   678 0001:0000c945   680 0001:0000c950
   681 0001:0000c953   683 0001:0000c974   689 0001:0000c992   690 0001:0000c9b5
   696 0001:0000c9d6   698 0001:0000c9df   699 0001:0000c9ec   702 0001:0000c9f0
   703 0001:0000c9f2   702 0001:0000ca02   705 0001:0000ca04   708 0001:0000ca0b
   711 0001:0000ca3a   713 0001:0000ca4f   717 0001:0000ca56   719 0001:0000ca6a
   721 0001:0000ca6c   722 0001:0000ca7a   746 0001:0000ca81   747 0001:0000caa8
   731 0001:0000cabb   733 0001:0000cae6   734 0001:0000caf0   735 0001:0000cafd
   739 0001:0000cb06   741 0001:0000cb14   742 0001:0000cb1e   743 0001:0000cb2b
   750 0001:0000cb40   753 0001:0000cb46   756 0001:0000cb75   776 0001:0000cb96
   778 0001:0000cbbe   782 0001:0000cbcd   768 0001:0000cbd1   770 0001:0000cbf9
   782 0001:0000cc08   760 0001:0000cc0c   762 0001:0000cc34   782 0001:0000cc43
   785 0001:0000cc50   790 0001:0000cc76   794 0001:0000cc8f   798 0001:0000cca2
   794 0001:0000ccb7   804 0001:0000ccd6   806 0001:0000ccfa   810 0001:0000cd03
   812 0001:0000cd14   814 0001:0000cd1d   817 0001:0000cd30   823 0001:0000cd50
   830 0001:0000cd57   833 0001:0000cd71   834 0001:0000cd74   830 0001:0000cd8a
   839 0001:0000cda9   841 0001:0000cdcd   845 0001:0000cdd6   847 0001:0000cde7
   855 0001:0000cdf0   858 0001:0000ce10   869 0001:0000ce18   870 0001:0000ce52
   872 0001:0000ce5c   873 0001:0000ce5f   877 0001:0000ce6e   876 0001:0000ce75
   877 0001:0000ce79   880 0001:0000ce80   888 0001:0000cea3   889 0001:0000cebc
   893 0001:0000cec4   903 0001:0000ceda   905 0001:0000cf0a   908 0001:0000cf14
   909 0001:0000cf17   927 0001:0000cf1f   950 0001:0000cf2c   951 0001:0000cf2e
   914 0001:0000cf41   916 0001:0000cf45   918 0001:0000cf50   897 0001:0000cf5a
   899 0001:0000cf60   951 0001:0000cf62   924 0001:0000cf75   927 0001:0000cf81
   950 0001:0000cf91   951 0001:0000cf93   895 0001:0000cfa6   897 0001:0000cfb1
   899 0001:0000cfbb   930 0001:0000cfbd   951 0001:0000cfc8   935 0001:0000cfe0
   938 0001:0000d001   939 0001:0000d011   943 0001:0000d01a   946 0001:0000d028
   947 0001:0000d038   954 0001:0000d050   959 0001:0000d053   960 0001:0000d05b
   961 0001:0000d061   964 0001:0000d073   966 0001:0000d07d   967 0001:0000d082
   969 0001:0000d089   970 0001:0000d091   973 0001:0000d0a0   977 0001:0000d0a4
   979 0001:0000d0c0   980 0001:0000d0e1   983 0001:0000d0f0   993 0001:0000d10b
   995 0001:0000d136   997 0001:0000d139  1001 0001:0000d13b  1011 0001:0000d155
  1012 0001:0000d158  1013 0001:0000d15b  1015 0001:0000d166   993 0001:0000d16a
  1028 0001:0000d196  1030 0001:0000d1ba  1034 0001:0000d1c3  1036 0001:0000d1d4
  1019 0001:0000d1dd  1020 0001:0000d1e0  1021 0001:0000d1e3  1038 0001:0000d1ef

Line numbers for .\Release\cBNCSPoll.obj(C:\Program Files\Microsoft Visual Studio\VC98\INCLUDE\iostream) segment .text

    16 0001:0000b620    29 0001:0000b660

Line numbers for .\Release\BncsStore.obj(C:\Program Files\Microsoft Visual Studio\VC98\INCLUDE\xtree) segment .text

   511 0001:0000b4a0   512 0001:0000b4a5   513 0001:0000b4aa   514 0001:0000b4bf
   515 0001:0000b4cd   516 0001:0000b4d0   517 0001:0000b4d2   518 0001:0000b4df

Line numbers for .\Release\BncsStore.obj(C:\Qt\3.2.3\include\qvaluelist.h) segment .text

   233 0001:0000b480   235 0001:0000b489   236 0001:0000b493   313 0001:0000b4f0
   315 0001:0000b4f8   316 0001:0000b4fb   317 0001:0000b509   319 0001:0000b517
   321 0001:0000b51e   322 0001:0000b524   318 0001:0000b527   322 0001:0000b52d
   266 0001:0000b530   267 0001:0000b54d   268 0001:0000b599   270 0001:0000b5b4
   271 0001:0000b5c4   272 0001:0000b5c8   273 0001:0000b5f3

Line numbers for .\Release\BncsStore.obj(w:\core_svn\Source\windows\lib\alarms\alm_bncs_acq\BncsStore.cpp) segment .text

    60 0001:00008340    62 0001:000084da    63 0001:0000850a    66 0001:00008518
    67 0001:00008520    68 0001:0000854c    69 0001:0000855a    71 0001:00008560
    72 0001:0000856c    73 0001:0000857a    76 0001:000085b0    77 0001:000085d4
    78 0001:000085e3    80 0001:000085ec    81 0001:000085f7    83 0001:000085f9
    84 0001:00008609    86 0001:00008613    89 0001:000086c0    92 0001:000086c6
    96 0001:000086e2    97 0001:00008717    99 0001:00008737   102 0001:00008740
   114 0001:0000875c   116 0001:0000876b   219 0001:00008779   120 0001:00008780
   122 0001:0000879a   125 0001:000087f2   127 0001:000087f4   129 0001:00008801
   130 0001:0000880c   132 0001:00008849   142 0001:00008857   147 0001:000088a6
   149 0001:000088b7   152 0001:000088d2   196 0001:000088d8   200 0001:00008922
   202 0001:00008933   204 0001:00008942   205 0001:0000895b   154 0001:0000897a
   159 0001:00008991   161 0001:000089ab   162 0001:000089b6   165 0001:000089f3
   170 0001:00008a0a   172 0001:00008a24   173 0001:00008a2f   178 0001:00008a6c
   179 0001:00008a82   205 0001:00008abe   206 0001:00008ad3   207 0001:00008b28
   208 0001:00008b74   209 0001:00008bc5   212 0001:00008bca   216 0001:00008c14
   218 0001:00008c21   219 0001:00008c2c   222 0001:00008c61   224 0001:00008c9b
   226 0001:00008caf   230 0001:00008cf9   232 0001:00008d06   236 0001:00008d15
   243 0001:00008d3a   244 0001:00008d5e   245 0001:00008d60   247 0001:00008d62
   254 0001:00008db1   258 0001:00008e03   261 0001:00008e14   265 0001:00008e28
   266 0001:00008e64   267 0001:00008e7b   268 0001:00008ec1   269 0001:00008ece
   271 0001:00008ed8   274 0001:00008eed   276 0001:00008efc   278 0001:00008f45
   279 0001:00008f4e   280 0001:00008f51   282 0001:00008f53   283 0001:00008f97
   285 0001:00008fb4   291 0001:00008fc9   294 0001:0000901e   298 0001:0000906f
   301 0001:00009080   305 0001:00009094   306 0001:000090d0   307 0001:000090e1
   308 0001:00009128   309 0001:00009135   310 0001:00009181   311 0001:0000918a
   312 0001:0000918d   314 0001:0000918f   315 0001:000091d3   320 0001:000091f0
   321 0001:0000923b   325 0001:0000928d   327 0001:0000929a   329 0001:000092aa
   337 0001:000092cd   339 0001:000092d6   341 0001:000092e5   343 0001:000092fc
   345 0001:00009309   346 0001:0000930f   347 0001:00009319   349 0001:0000931c
   351 0001:00009329   352 0001:0000932e   353 0001:0000933f   355 0001:0000934f
   358 0001:00009359   359 0001:0000935e   360 0001:0000936c   362 0001:00009381
   364 0001:00009383   365 0001:0000939b   366 0001:0000939f   367 0001:000093a2
   368 0001:000093a5   371 0001:000093a8   373 0001:000093bd   375 0001:000093cf
   381 0001:000093e1   385 0001:00009433   388 0001:00009444   392 0001:00009458
   393 0001:00009494   394 0001:000094ab   395 0001:000094f1   396 0001:000094fe
   398 0001:00009508   399 0001:00009520   401 0001:00009523   403 0001:00009528
   405 0001:00009571   406 0001:0000957a   407 0001:0000957d   409 0001:0000957f
   410 0001:000095c3   416 0001:000095e0   417 0001:0000962b   421 0001:0000967d
   423 0001:0000968a   424 0001:000096a1   425 0001:000096a5   426 0001:000096a7
   430 0001:000096af   431 0001:000096b2   432 0001:000096b9   434 0001:000096bc
   435 0001:000096e1   438 0001:00009700   439 0001:0000970e   440 0001:0000973a
   441 0001:00009794   444 0001:0000979a   445 0001:000097b0   448 0001:0000980d
   450 0001:00009812   451 0001:0000985f   454 0001:00009865   455 0001:00009884
   460 0001:000098b8   461 0001:000098d2   465 0001:00009937   466 0001:00009963
   469 0001:00009980   482 0001:0000998e   483 0001:000099ba   487 0001:00009a10
   490 0001:00009a21   494 0001:00009a37   498 0001:00009a58   500 0001:00009a77
   506 0001:00009a92   507 0001:00009aa8   509 0001:00009ac1   510 0001:00009ae5
   511 0001:00009aff   512 0001:00009b1a   514 0001:00009b34   515 0001:00009b4d
   516 0001:00009b67   517 0001:00009b82   521 0001:00009b9c   523 0001:00009bf2
   525 0001:00009bf7   529 0001:00009c13   533 0001:00009c2f   536 0001:00009c4f
   537 0001:00009c54   606 0001:00009c63   609 0001:00009c68   613 0001:00009cb0
   616 0001:00009cbd   617 0001:00009cdc   622 0001:00009d11   626 0001:00009d2b
   630 0001:00009d4c   632 0001:00009d6b   638 0001:00009d86   639 0001:00009d9c
   641 0001:00009db5   642 0001:00009dd9   643 0001:00009df3   644 0001:00009e0e
   646 0001:00009e28   647 0001:00009e41   648 0001:00009e5b   649 0001:00009e76
   653 0001:00009e90   655 0001:00009ede   661 0001:00009ee0   664 0001:00009ef7
   667 0001:00009f17   668 0001:00009f19   671 0001:00009f31   672 0001:00009f5d
   675 0001:00009f80   677 0001:00009f99   679 0001:00009faa   680 0001:00009ff2
   682 0001:00009fff   683 0001:0000a009   686 0001:0000a00b   688 0001:0000a016
   689 0001:0000a041   692 0001:0000a060   701 0001:0000a065   704 0001:0000a068
   709 0001:0000a07c   745 0001:0000a092   747 0001:0000a0a3   749 0001:0000a0b4
   751 0001:0000a0c5   752 0001:0000a0d9   826 0001:0000a0db   827 0001:0000a0e0
   751 0001:0000a0e3   754 0001:0000a0e5   826 0001:0000a0ea   827 0001:0000a0ef
   758 0001:0000a0f2   760 0001:0000a0f6   761 0001:0000a104   826 0001:0000a106
   827 0001:0000a10b   767 0001:0000a10e   769 0001:0000a119   770 0001:0000a123
   826 0001:0000a125   827 0001:0000a12a   712 0001:0000a12d   714 0001:0000a13e
   716 0001:0000a14f   718 0001:0000a160   719 0001:0000a174   826 0001:0000a179
   827 0001:0000a17e   718 0001:0000a181   721 0001:0000a183   826 0001:0000a185
   827 0001:0000a18a   725 0001:0000a18d   727 0001:0000a191   728 0001:0000a19b
   826 0001:0000a1a0   827 0001:0000a1a5   733 0001:0000a1a8   735 0001:0000a1b3
   736 0001:0000a1c1   826 0001:0000a1c6   827 0001:0000a1cb   785 0001:0000a1ce
   803 0001:0000a1e0   804 0001:0000a220   826 0001:0000a23d   827 0001:0000a242
   788 0001:0000a245   789 0001:0000a272   826 0001:0000a28d   827 0001:0000a292
   760 0001:0000a295   826 0001:0000a297   827 0001:0000a29c   830 0001:0000a2a0
   846 0001:0000a2ad   853 0001:0000a2be   856 0001:0000a2c6   860 0001:0000a2cd
   877 0001:0000a2da   873 0001:0000a2dd   877 0001:0000a2e7   880 0001:0000a2f0
   895 0001:0000a300   899 0001:0000a30b   902 0001:0000a310   903 0001:0000a314
   905 0001:0000a316   921 0001:0000a325   923 0001:0000a32b   927 0001:0000a33e
   930 0001:0000a349   932 0001:0000a351   935 0001:0000a35f   938 0001:0000a368
   940 0001:0000a36c   941 0001:0000a375   946 0001:0000a37f   949 0001:0000a386
   951 0001:0000a38b   954 0001:0000a391   957 0001:0000a39f   955 0001:0000a3a8
   960 0001:0000a3ae   964 0001:0000a3ba   965 0001:0000a3bf   968 0001:0000a3d0
   978 0001:0000a3d5   979 0001:0000a498   982 0001:0000a4a0   993 0001:0000a4ab
   997 0001:0000a4b6  1000 0001:0000a4b8  1010 0001:0000a4ce  1006 0001:0000a4d0
  1007 0001:0000a4da  1002 0001:0000a4dc  1019 0001:0000a4e2  1021 0001:0000a4e6
  1025 0001:0000a4ea  1026 0001:0000a4f0  1025 0001:0000a4f3  1026 0001:0000a4f9
  1025 0001:0000a4fc  1026 0001:0000a506  1031 0001:0000a510  1032 0001:0000a528
  1035 0001:0000a550  1087 0001:0000a573  1090 0001:0000a580  1127 0001:0000a599
  1129 0001:0000a5af  1131 0001:0000a63f  1133 0001:0000a654  1135 0001:0000a66a
  1138 0001:0000a67b  1140 0001:0000a681  1142 0001:0000a716  1145 0001:0000a72b
  1147 0001:0000a742  1149 0001:0000a7d2  1152 0001:0000a7e7  1096 0001:0000a7ec
  1098 0001:0000a802  1100 0001:0000a892  1102 0001:0000a8a7  1104 0001:0000a8bd
  1107 0001:0000a8ce  1111 0001:0000a95e  1114 0001:0000a973  1116 0001:0000a98a
  1118 0001:0000aa1a  1157 0001:0000aa2f  1039 0001:0000aa34  1042 0001:0000aa41
  1071 0001:0000aa5a  1073 0001:0000aa68  1075 0001:0000aaba  1078 0001:0000aacf
  1048 0001:0000aad4  1051 0001:0000aadc  1053 0001:0000aaea  1060 0001:0000aba2
  1056 0001:0000abab  1064 0001:0000ac34  1160 0001:0000ac53  1161 0001:0000ac90
  1166 0001:0000acb0  1167 0001:0000acc8  1170 0001:0000acf0  1223 0001:0000ad13
  1226 0001:0000ad20  1232 0001:0000ad39  1234 0001:0000ad4f  1236 0001:0000addf
  1238 0001:0000adef  1240 0001:0000ae05  1243 0001:0000ae16  1247 0001:0000aea6
  1250 0001:0000aeb6  1252 0001:0000aecd  1254 0001:0000af5d  1257 0001:0000af6d
  1263 0001:0000af72  1265 0001:0000af88  1267 0001:0000b018  1269 0001:0000b028
  1271 0001:0000b03e  1274 0001:0000b04f  1276 0001:0000b055  1278 0001:0000b0ea
  1281 0001:0000b0fa  1283 0001:0000b111  1285 0001:0000b1a1  1293 0001:0000b1b1
  1174 0001:0000b1b6  1177 0001:0000b1c3  1184 0001:0000b1dc  1187 0001:0000b1e4
  1189 0001:0000b1f2  1196 0001:0000b2aa  1192 0001:0000b2b3  1200 0001:0000b33c
  1202 0001:0000b352  1207 0001:0000b35d  1209 0001:0000b367  1211 0001:0000b3b7
  1296 0001:0000b3cc  1297 0001:0000b408  1301 0001:0000b420  1302 0001:0000b422
  1303 0001:0000b43d  1306 0001:0000b450  1317 0001:0000b45a  1320 0001:0000b465
  1322 0001:0000b470

Line numbers for .\Release\BncsStore.obj(C:\Program Files\Microsoft Visual Studio\VC98\INCLUDE\iostream) segment .text

    16 0001:000082d0    29 0001:00008310

Line numbers for .\Release\bncs_input.obj(C:\Program Files\Microsoft Visual Studio\VC98\INCLUDE\new) segment .text

    45 0001:00008220

Line numbers for .\Release\bncs_input.obj(C:\Program Files\Microsoft Visual Studio\VC98\INCLUDE\xmemory) segment .text

    34 0001:00008160    34 0001:00008180    34 0001:000081a0    34 0001:000081c0

Line numbers for .\Release\bncs_input.obj(C:\Qt\3.2.3\include\qvaluelist.h) segment .text

    66 0001:00006350   288 0001:00007ff0   289 0001:0000800a   290 0001:0000803a
   291 0001:00008041   292 0001:00008047   293 0001:0000804d   294 0001:00008050
   295 0001:00008057   296 0001:0000805f   355 0001:00008070   356 0001:00008077
   357 0001:00008079   359 0001:0000807f   360 0001:00008083   361 0001:00008099
   362 0001:000080ac   363 0001:000080ad   364 0001:000080af   359 0001:000080b2
   367 0001:000080b6   300 0001:000080c0   301 0001:000080c4   303 0001:000080ed
   306 0001:000080f3   307 0001:00008105   308 0001:0000810c   309 0001:00008115
   371 0001:00008120   372 0001:00008124   373 0001:0000814a   374 0001:0000814d
   375 0001:00008154   377 0001:0000815c

Line numbers for .\Release\bncs_input.obj(C:\Program Files\Microsoft Visual Studio\VC98\INCLUDE\utility) segment .text

    21 0001:00006310    55 0001:00007f90

Line numbers for .\Release\bncs_input.obj(C:\Program Files\Microsoft Visual Studio\VC98\INCLUDE\xtree) segment .text

   191 0001:00004f80   363 0001:00004f90   368 0001:00004fb0   369 0001:00004fdf
   370 0001:00004fe5   371 0001:00004ff7   364 0001:00005009   365 0001:0000500d
   366 0001:00005051   371 0001:0000505b   191 0001:00005060   217 0001:00005070
   220 0001:00005074   222 0001:0000508f   223 0001:00005099   220 0001:000050a5
   224 0001:000050a9   225 0001:000050b4   235 0001:0000522e   226 0001:00005232
   227 0001:00005234   229 0001:0000523c   230 0001:00005240   235 0001:0000525f
   232 0001:00005263   233 0001:00005270   234 0001:00005279   235 0001:00005298
   261 0001:000052b0   262 0001:000052bb   264 0001:000052c8   265 0001:000052d0
   266 0001:000052df   268 0001:000052e5   269 0001:000052e7   270 0001:000052ff
   271 0001:00005309   272 0001:00005311   273 0001:00005316   274 0001:0000531a
   275 0001:00005320   276 0001:00005323   277 0001:00005325   278 0001:0000532b
   279 0001:00005330   280 0001:00005335   281 0001:0000533a   282 0001:00005346
   283 0001:00005349   284 0001:00005352   285 0001:00005354   286 0001:00005356
   287 0001:00005359   289 0001:0000535c   290 0001:0000536f   291 0001:00005376
   292 0001:00005379   293 0001:00005388   294 0001:0000538b   295 0001:00005394
   296 0001:00005396   297 0001:00005398   298 0001:0000539b   300 0001:000053a6
   301 0001:000053b0   302 0001:000053b5   303 0001:000053b7   304 0001:000053d3
   306 0001:000053db   307 0001:000053e7   308 0001:000053ea   309 0001:000053ec
   290 0001:00005401   310 0001:00005405   311 0001:00005415   312 0001:0000542c
   313 0001:00005435   314 0001:00005438   315 0001:0000543d   316 0001:00005440
   317 0001:00005446   318 0001:00005484   320 0001:0000548a   334 0001:000054a1
   336 0001:000054a3   337 0001:000054a8   338 0001:000054ab   339 0001:000054b1
   340 0001:000054f1   342 0001:000054f6   343 0001:0000550d   344 0001:00005513
   324 0001:00005524   325 0001:0000552c   327 0001:00005531   328 0001:00005571
   329 0001:00005577   330 0001:00005580   331 0001:00005586   332 0001:0000558c
   333 0001:000055b7   332 0001:000055bc   333 0001:000055c7   332 0001:000055cc
   333 0001:000055d1   346 0001:000055d6   347 0001:000055dd   349 0001:000055e3
   350 0001:00005621   351 0001:00005626   352 0001:0000562f   353 0001:00005635
   354 0001:0000563a   356 0001:0000567a   357 0001:0000567d   359 0001:00005687
   360 0001:00005691   361 0001:00005694   363 0001:000056b0   368 0001:000056d0
   369 0001:000056ff   370 0001:00005705   371 0001:00005717   364 0001:00005729
   365 0001:0000572d   366 0001:00005771   371 0001:0000577b   384 0001:00005780
   387 0001:000057af   191 0001:000057f0   217 0001:00005800   220 0001:00005804
   222 0001:0000581f   223 0001:00005829   220 0001:00005835   224 0001:00005839
   225 0001:00005844   235 0001:000059be   226 0001:000059c2   227 0001:000059c4
   229 0001:000059cc   230 0001:000059d0   235 0001:000059ef   232 0001:000059f3
   233 0001:00005a00   234 0001:00005a09   235 0001:00005a28   261 0001:00005a40
   262 0001:00005a4b   264 0001:00005a58   265 0001:00005a60   266 0001:00005a6f
   268 0001:00005a75   269 0001:00005a77   270 0001:00005a8f   271 0001:00005a99
   272 0001:00005aa1   273 0001:00005aa6   274 0001:00005aaa   275 0001:00005ab0
   276 0001:00005ab3   277 0001:00005ab5   278 0001:00005abb   279 0001:00005ac0
   280 0001:00005ac5   281 0001:00005aca   282 0001:00005ad6   283 0001:00005ad9
   284 0001:00005ae2   285 0001:00005ae4   286 0001:00005ae6   287 0001:00005ae9
   289 0001:00005aec   290 0001:00005aff   291 0001:00005b06   292 0001:00005b09
   293 0001:00005b18   294 0001:00005b1b   295 0001:00005b24   296 0001:00005b26
   297 0001:00005b28   298 0001:00005b2b   300 0001:00005b36   301 0001:00005b40
   302 0001:00005b45   303 0001:00005b47   304 0001:00005b63   306 0001:00005b6b
   307 0001:00005b77   308 0001:00005b7a   309 0001:00005b7c   290 0001:00005b91
   310 0001:00005b95   311 0001:00005ba5   312 0001:00005bbc   313 0001:00005bc5
   314 0001:00005bc8   315 0001:00005bcd   316 0001:00005bd0   317 0001:00005bd6
   318 0001:00005c14   320 0001:00005c1a   334 0001:00005c31   336 0001:00005c33
   337 0001:00005c38   338 0001:00005c3b   339 0001:00005c41   340 0001:00005c81
   342 0001:00005c86   343 0001:00005c9d   344 0001:00005ca3   324 0001:00005cb4
   325 0001:00005cbc   327 0001:00005cc1   328 0001:00005d01   329 0001:00005d07
   330 0001:00005d10   331 0001:00005d16   332 0001:00005d1c   333 0001:00005d47
   332 0001:00005d4c   333 0001:00005d57   332 0001:00005d5c   333 0001:00005d61
   346 0001:00005d66   347 0001:00005d6d   349 0001:00005d73   350 0001:00005db1
   351 0001:00005db6   352 0001:00005dbf   353 0001:00005dc5   354 0001:00005dca
   356 0001:00005e0a   357 0001:00005e0d   359 0001:00005e17   360 0001:00005e21
   361 0001:00005e24   363 0001:00005e40   368 0001:00005e60   369 0001:00005e8f
   370 0001:00005e95   371 0001:00005ea7   364 0001:00005eb9   365 0001:00005ebd
   366 0001:00005f01   371 0001:00005f0b   384 0001:00005f10   387 0001:00005f3f
   103 0001:00005f80   104 0001:00005f90   110 0001:00005fa1   107 0001:00005fa2
   108 0001:00005fac   109 0001:00005fb8   110 0001:00005fbf   191 0001:00005fd0
   217 0001:00005fe0   220 0001:00005fe7   222 0001:00005ffd   223 0001:0000600d
   220 0001:00006019   224 0001:00006021   225 0001:0000602c   234 0001:000061aa
   235 0001:000061af   227 0001:000061b3   229 0001:000061bb   230 0001:000061c2
   232 0001:000061cc   233 0001:000061d5   234 0001:000061eb   235 0001:0000620a
   363 0001:00006230   368 0001:00006250   369 0001:00006287   370 0001:0000628d
   371 0001:0000629f   364 0001:000062b1   365 0001:000062b5   366 0001:000062f9
   371 0001:00006303   261 0001:00006380   262 0001:0000638b   264 0001:00006398
   265 0001:000063a0   266 0001:000063af   268 0001:000063b5   269 0001:000063b7
   270 0001:000063cf   271 0001:000063d9   272 0001:000063e1   273 0001:000063e6
   274 0001:000063ea   275 0001:000063f0   276 0001:000063f3   277 0001:000063f5
   278 0001:000063fb   279 0001:00006400   280 0001:00006405   281 0001:0000640a
   282 0001:00006416   283 0001:00006419   284 0001:00006422   285 0001:00006424
   286 0001:00006426   287 0001:00006429   289 0001:0000642c   290 0001:0000643f
   291 0001:00006446   292 0001:00006449   293 0001:00006458   294 0001:0000645b
   295 0001:00006464   296 0001:00006466   297 0001:00006468   298 0001:0000646b
   300 0001:00006476   301 0001:00006480   302 0001:00006485   303 0001:00006487
   304 0001:000064a3   306 0001:000064ab   307 0001:000064b7   308 0001:000064ba
   309 0001:000064bc   290 0001:000064d1   310 0001:000064d5   311 0001:000064e5
   312 0001:000064fc   313 0001:00006505   314 0001:00006508   315 0001:0000650d
   316 0001:00006510   317 0001:00006516   318 0001:00006554   320 0001:0000655a
   334 0001:00006571   336 0001:00006573   337 0001:00006578   338 0001:0000657b
   339 0001:00006581   340 0001:000065c1   342 0001:000065c6   343 0001:000065dd
   344 0001:000065e3   324 0001:000065f4   325 0001:000065fc   327 0001:00006601
   328 0001:00006641   329 0001:00006647   330 0001:00006650   331 0001:00006656
   332 0001:0000665c   333 0001:00006687   332 0001:0000668c   333 0001:00006697
   332 0001:0000669c   333 0001:000066a1   346 0001:000066a6   347 0001:000066ad
   349 0001:000066b3   350 0001:000066f1   351 0001:000066f6   352 0001:000066ff
   353 0001:00006705   354 0001:0000670a   356 0001:0000674a   357 0001:0000674d
   359 0001:00006757   360 0001:00006761   361 0001:00006764   444 0001:00006780
   445 0001:00006794   446 0001:0000679f   448 0001:000067a1   450 0001:000067c0
   451 0001:000067d5   452 0001:000067eb   453 0001:000067f3   455 0001:000067f9
   456 0001:00006805   457 0001:0000681c   458 0001:00006820   459 0001:00006829
   460 0001:00006842   462 0001:00006860   464 0001:00006871   465 0001:0000689c
   467 0001:0000689f   475 0001:000068c4   476 0001:000068c7   477 0001:000068cf
   468 0001:000068d4   469 0001:000068d6   470 0001:000068dd   471 0001:000068e0
   472 0001:000068e6   473 0001:000068ec   479 0001:000068ee   480 0001:0000690a
   481 0001:00006917   482 0001:0000691a   483 0001:0000691f   484 0001:00006927
   485 0001:0000692a   486 0001:00006933   487 0001:00006939   488 0001:0000693e
   489 0001:00006943   490 0001:00006945   491 0001:00006980   492 0001:0000698a
   493 0001:00006993   494 0001:000069c2   493 0001:000069c7   494 0001:000069d5
   493 0001:000069da   494 0001:000069df   496 0001:000069e4   497 0001:000069e9
   498 0001:000069f1   499 0001:000069f4   500 0001:000069fd   501 0001:00006a03
   502 0001:00006a08   503 0001:00006a0c   504 0001:00006a0e   505 0001:00006a4b
   506 0001:00006a55   507 0001:00006a5e   508 0001:00006aab   509 0001:00006aba
    92 0001:00006ad0    94 0001:00006ae2   101 0001:00006ae6    95 0001:00006ae9
    96 0001:00006af5   101 0001:00006b08    99 0001:00006b09   100 0001:00006b12
   101 0001:00006b1d   103 0001:00006b30   104 0001:00006b40   110 0001:00006b51
   107 0001:00006b52   108 0001:00006b5c   109 0001:00006b68   110 0001:00006b6f
   399 0001:00006b80   444 0001:00006bc0   445 0001:00006bd4   446 0001:00006bdf
   448 0001:00006be1   450 0001:00006c00   451 0001:00006c15   452 0001:00006c2b
   453 0001:00006c33   455 0001:00006c39   456 0001:00006c45   457 0001:00006c5c
   458 0001:00006c60   459 0001:00006c69   460 0001:00006c82   462 0001:00006ca0
   464 0001:00006cb1   465 0001:00006cdc   467 0001:00006cdf   475 0001:00006d04
   476 0001:00006d07   477 0001:00006d0f   468 0001:00006d14   469 0001:00006d16
   470 0001:00006d1d   471 0001:00006d20   472 0001:00006d26   473 0001:00006d2c
   479 0001:00006d2e   480 0001:00006d4a   481 0001:00006d57   482 0001:00006d5a
   483 0001:00006d5f   484 0001:00006d67   485 0001:00006d6a   486 0001:00006d73
   487 0001:00006d79   488 0001:00006d7e   489 0001:00006d83   490 0001:00006d85
   491 0001:00006dc0   492 0001:00006dca   493 0001:00006dd3   494 0001:00006e02
   493 0001:00006e07   494 0001:00006e15   493 0001:00006e1a   494 0001:00006e1f
   496 0001:00006e24   497 0001:00006e29   498 0001:00006e31   499 0001:00006e34
   500 0001:00006e3d   501 0001:00006e43   502 0001:00006e48   503 0001:00006e4c
   504 0001:00006e4e   505 0001:00006e8b   506 0001:00006e95   507 0001:00006e9e
   508 0001:00006eeb   509 0001:00006efa   524 0001:00006f10   525 0001:00006f18
   526 0001:00006f1d   527 0001:00006f27   528 0001:00006f2a   529 0001:00006f30
   530 0001:00006f38   535 0001:00006f3b   536 0001:00006f3d   531 0001:00006f44
   532 0001:00006f4b   535 0001:00006f4d   536 0001:00006f4f   534 0001:00006f56
   535 0001:00006f59   536 0001:00006f5b   542 0001:00006f70   543 0001:00006f80
   544 0001:00006f88   554 0001:00006f90   555 0001:00006f97   556 0001:00006f9c
   557 0001:00006fa7   558 0001:00006faa   559 0001:00006fb0   560 0001:00006fb8
   565 0001:00006fbb   566 0001:00006fbe   561 0001:00006fc5   562 0001:00006fcd
   565 0001:00006fd0   566 0001:00006fd3   564 0001:00006fda   565 0001:00006fdc
   566 0001:00006fdf   103 0001:00006ff0   104 0001:00007000   110 0001:00007011
   107 0001:00007012   108 0001:0000701c   109 0001:00007028   110 0001:0000702f
   444 0001:00007040   445 0001:00007054   446 0001:0000705f   448 0001:00007061
   450 0001:00007080   451 0001:00007095   452 0001:000070ab   453 0001:000070b3
   455 0001:000070b9   456 0001:000070c5   457 0001:000070dc   458 0001:000070e0
   459 0001:000070e9   460 0001:00007102   462 0001:00007120   464 0001:00007131
   465 0001:0000715c   467 0001:0000715f   475 0001:00007184   476 0001:00007187
   477 0001:0000718f   468 0001:00007194   469 0001:00007196   470 0001:0000719d
   471 0001:000071a0   472 0001:000071a6   473 0001:000071ac   479 0001:000071ae
   480 0001:000071ca   481 0001:000071d7   482 0001:000071da   483 0001:000071df
   484 0001:000071e7   485 0001:000071ea   486 0001:000071f3   487 0001:000071f9
   488 0001:000071fe   489 0001:00007203   490 0001:00007205   491 0001:00007240
   492 0001:0000724a   493 0001:00007253   494 0001:00007282   493 0001:00007287
   494 0001:00007295   493 0001:0000729a   494 0001:0000729f   496 0001:000072a4
   497 0001:000072a9   498 0001:000072b1   499 0001:000072b4   500 0001:000072bd
   501 0001:000072c3   502 0001:000072c8   503 0001:000072cc   504 0001:000072ce
   505 0001:0000730b   506 0001:00007315   507 0001:0000731e   508 0001:0000736b
   509 0001:0000737a   524 0001:00007390   525 0001:00007398   526 0001:0000739d
   527 0001:000073a7   528 0001:000073aa   529 0001:000073b0   530 0001:000073b8
   535 0001:000073bb   536 0001:000073bd   531 0001:000073c4   532 0001:000073cb
   535 0001:000073cd   536 0001:000073cf   534 0001:000073d6   535 0001:000073d9
   536 0001:000073db   542 0001:000073f0   543 0001:00007400   544 0001:00007408
   554 0001:00007410   555 0001:00007417   556 0001:0000741c   557 0001:00007427
   558 0001:0000742a   559 0001:00007430   560 0001:00007438   565 0001:0000743b
   566 0001:0000743e   561 0001:00007445   562 0001:0000744d   565 0001:00007450
   566 0001:00007453   564 0001:0000745a   565 0001:0000745c   566 0001:0000745f
   261 0001:00007470   262 0001:00007490   264 0001:0000749d   265 0001:000074a5
   266 0001:000074b4   268 0001:000074ba   269 0001:000074bc   270 0001:000074d4
   271 0001:000074de   272 0001:000074e6   273 0001:000074eb   274 0001:000074ef
   275 0001:000074f5   276 0001:000074f8   277 0001:000074fa   278 0001:00007500
   279 0001:00007505   280 0001:0000750a   281 0001:0000750f   282 0001:0000751b
   283 0001:0000751e   284 0001:00007527   285 0001:00007529   286 0001:0000752b
   287 0001:0000752e   289 0001:00007531   290 0001:00007544   291 0001:0000754b
   292 0001:0000754e   293 0001:0000755d   294 0001:00007560   295 0001:00007569
   296 0001:0000756b   297 0001:0000756d   298 0001:00007570   300 0001:0000757b
   301 0001:00007585   302 0001:0000758a   303 0001:0000758c   304 0001:000075a8
   306 0001:000075b0   307 0001:000075bc   308 0001:000075bf   309 0001:000075c1
   290 0001:000075d6   310 0001:000075da   311 0001:000075ec   312 0001:00007601
   313 0001:00007608   314 0001:0000760b   315 0001:00007610   316 0001:00007613
   317 0001:00007619   318 0001:00007657   320 0001:0000765d   334 0001:00007674
   335 0001:00007676   336 0001:00007678   337 0001:0000767d   338 0001:00007680
   339 0001:00007686   340 0001:000076c6   342 0001:000076cb   343 0001:000076e2
   344 0001:000076e8   324 0001:000076f9   325 0001:00007701   327 0001:00007706
   328 0001:00007746   329 0001:0000774c   330 0001:00007755   331 0001:0000775b
   332 0001:00007761   333 0001:0000778c   332 0001:00007791   333 0001:0000779c
   332 0001:000077a1   333 0001:000077a6   346 0001:000077ab   347 0001:000077b2
   349 0001:000077b8   350 0001:000077f6   351 0001:000077fb   352 0001:00007804
   353 0001:0000780a   354 0001:0000780f   356 0001:0000784f   357 0001:00007852
   358 0001:0000785c   359 0001:000078a8   360 0001:000078ae   361 0001:000078b1
   444 0001:000078e0   445 0001:000078f4   446 0001:000078ff   447 0001:00007901
   448 0001:00007909   450 0001:00007930   451 0001:00007945   452 0001:0000795b
   453 0001:00007963   455 0001:00007969   456 0001:00007975   457 0001:0000798c
   458 0001:00007990   459 0001:00007999   460 0001:000079b2   462 0001:000079d0
   464 0001:000079e1   465 0001:00007a0c   467 0001:00007a0f   475 0001:00007a3d
   476 0001:00007a40   477 0001:00007a48   468 0001:00007a4d   469 0001:00007a4f
   470 0001:00007a56   471 0001:00007a59   472 0001:00007a5f   473 0001:00007a65
   479 0001:00007a67   480 0001:00007a83   481 0001:00007a90   482 0001:00007a93
   483 0001:00007a98   484 0001:00007aa0   485 0001:00007aa3   486 0001:00007aac
   487 0001:00007ab2   488 0001:00007ab7   489 0001:00007abc   490 0001:00007abe
   491 0001:00007af9   492 0001:00007b03   493 0001:00007b0c   494 0001:00007b3b
   493 0001:00007b40   494 0001:00007b4e   493 0001:00007b53   494 0001:00007b58
   496 0001:00007b5d   497 0001:00007b62   498 0001:00007b6a   499 0001:00007b6d
   500 0001:00007b76   501 0001:00007b7c   502 0001:00007b81   503 0001:00007b85
   504 0001:00007b87   505 0001:00007bc4   506 0001:00007bce   507 0001:00007bd7
   508 0001:00007c24   509 0001:00007c33   511 0001:00007c40   513 0001:00007c43
   514 0001:00007c51   515 0001:00007c5c   516 0001:00007c5f   517 0001:00007c61
   513 0001:00007c65   518 0001:00007c6a   538 0001:00007c70   539 0001:00007c81
   540 0001:00007c8a   542 0001:00007c90   543 0001:00007ca0   544 0001:00007ca8
   577 0001:00007cb0   579 0001:00007cb7   580 0001:00007cbb   581 0001:00007cc8
    92 0001:00007cd0    94 0001:00007ce2   101 0001:00007ce6    95 0001:00007ce9
    96 0001:00007cf5   101 0001:00007d08    99 0001:00007d09   100 0001:00007d12
   101 0001:00007d1d   511 0001:00007d30   513 0001:00007d33   514 0001:00007d41
   515 0001:00007d4c   516 0001:00007d4f   517 0001:00007d51   513 0001:00007d55
   518 0001:00007d5a   577 0001:00007d60   579 0001:00007d67   580 0001:00007d6b
   581 0001:00007d78    92 0001:00007d80    94 0001:00007d92   101 0001:00007d96
    95 0001:00007d99    96 0001:00007da5   101 0001:00007db8    99 0001:00007db9
   100 0001:00007dc2   101 0001:00007dcd   524 0001:00007de0   525 0001:00007de8
   526 0001:00007ded   527 0001:00007df7   528 0001:00007dfa   529 0001:00007e00
   530 0001:00007e08   535 0001:00007e0b   536 0001:00007e0d   531 0001:00007e14
   532 0001:00007e1b   535 0001:00007e1d   536 0001:00007e1f   534 0001:00007e26
   535 0001:00007e29   536 0001:00007e2b   542 0001:00007e40   543 0001:00007e50
   544 0001:00007e58   554 0001:00007e60   555 0001:00007e67   556 0001:00007e6c
   557 0001:00007e77   558 0001:00007e7a   559 0001:00007e80   560 0001:00007e88
   565 0001:00007e8b   566 0001:00007e8e   561 0001:00007e95   562 0001:00007e9d
   565 0001:00007ea0   566 0001:00007ea3   564 0001:00007eaa   565 0001:00007eac
   566 0001:00007eaf   577 0001:00007ec0   579 0001:00007ec7   580 0001:00007ecb
   581 0001:00007ed8    92 0001:00007ee0    94 0001:00007ef2   101 0001:00007ef6
    95 0001:00007ef9    96 0001:00007f05   101 0001:00007f18    99 0001:00007f19
   100 0001:00007f22   101 0001:00007f2d   103 0001:00007f40   104 0001:00007f50
   110 0001:00007f61   107 0001:00007f62   108 0001:00007f6c   109 0001:00007f78
   110 0001:00007f7f

Line numbers for .\Release\bncs_input.obj(C:\Qt\3.2.3\include\qstring.h) segment .text

   304 0001:00001a00   306 0001:00001a12

Line numbers for .\Release\bncs_input.obj(..\..\..\..\include\alarms_input_base.h) segment .text

    30 0001:000003b0

Line numbers for .\Release\bncs_input.obj(..\..\..\..\include\alarms_base.h) segment .text

    38 0001:00000390    40 0001:000003a0

Line numbers for .\Release\bncs_input.obj(w:\core_svn\Source\windows\lib\alarms\alm_bncs_acq\bncs_input.cpp) segment .text

    46 0001:00000080    48 0001:0000029f    49 0001:000002d0    50 0001:000002dd
    51 0001:00000303    52 0001:00000311    55 0001:00000317    56 0001:00000327
    58 0001:0000032d    59 0001:00000338    60 0001:00000343    61 0001:0000034e
    64 0001:00000359    65 0001:00000377    68 0001:000006f0    69 0001:00000705
    71 0001:00000717    73 0001:00000721    76 0001:00000760    79 0001:00000766
    82 0001:00000777    99 0001:0000078d   102 0001:0000079b   103 0001:0000079d
    85 0001:000007a2   103 0001:000007a4    89 0001:000007a9    90 0001:000007b4
    91 0001:000007cf   103 0001:000007d1    95 0001:000007d6   102 0001:000007e4
   103 0001:000007e6   106 0001:000007f0   107 0001:0000082b   110 0001:00000841
   113 0001:0000084e   114 0001:0000085e   115 0001:00000863   116 0001:0000086d
   117 0001:00000872   118 0001:0000087c   122 0001:00000881   123 0001:00000892
   125 0001:0000089c   128 0001:000008a6   130 0001:000008b6   131 0001:000008b9
   132 0001:000008bd   134 0001:000008da   137 0001:00000902   139 0001:0000090b
   140 0001:0000090d   143 0001:0000091b   144 0001:00000928   146 0001:0000092c
   149 0001:00000936   151 0001:00000946   152 0001:00000949   153 0001:0000094d
   155 0001:0000096a   158 0001:00000984   160 0001:0000098d   161 0001:0000098f
   164 0001:0000099d   165 0001:000009a8   167 0001:000009ae   170 0001:000009b6
   172 0001:000009c6   173 0001:000009c9   174 0001:000009cd   176 0001:000009ea
   178 0001:00000a04   180 0001:00000a0d   181 0001:00000a0f   183 0001:00000a1d
   184 0001:00000a2d   185 0001:00000a30   186 0001:00000a3a   187 0001:00000a3d
   188 0001:00000a47   189 0001:00000a4a   190 0001:00000a54   195 0001:00000a57
   198 0001:00000a62   199 0001:00000a64   200 0001:00000a74   201 0001:00000a7f
   204 0001:00000d10   207 0001:00000d16   210 0001:00000d20   213 0001:00000d26
   222 0001:00000d30   227 0001:00000d33   229 0001:00000d4f   230 0001:00000d5e
   234 0001:00000d66   258 0001:00000d73   234 0001:00000d9e   242 0001:00000dc9
   245 0001:00000dd5   251 0001:00000de2   253 0001:00000ded   262 0001:00000df2
   248 0001:00000df5   251 0001:00000e00   253 0001:00000e0d   262 0001:00000e12
   257 0001:00000e15   258 0001:00000e23   262 0001:00000e26   265 0001:00000e30
   267 0001:00000e36   270 0001:00000e40   274 0001:00000e4c   275 0001:00000e58
   278 0001:00000e60   282 0001:00000e70   285 0001:00000e7d   288 0001:00000e80
   291 0001:00000e85   294 0001:00000e90   297 0001:00000e9a   300 0001:00000ea0
   302 0001:00000ea6   305 0001:00000eb0   308 0001:00000eba   311 0001:00000ec0
   313 0001:00000ec6   321 0001:00000ed0   324 0001:00000eee   327 0001:00000ef5
   328 0001:00000f14   329 0001:00000f5f   331 0001:00000fab   334 0001:00000ffd
   336 0001:00001014   339 0001:0000101a   340 0001:0000102a   342 0001:00001040
   344 0001:00001052   345 0001:0000106d   346 0001:00001081   353 0001:00001095
   358 0001:000010a2   360 0001:000010a9   362 0001:000010b7   366 0001:000010d5
   367 0001:000010e6   370 0001:000010ea   373 0001:000010f4   375 0001:00001103
   376 0001:00001106   377 0001:0000110a   379 0001:00001125   382 0001:0000113e
   383 0001:0000114b   385 0001:0000114f   386 0001:00001151   388 0001:0000115f
   390 0001:00001169   393 0001:00001172   395 0001:00001186   396 0001:0000119d
   536 0001:00001218   400 0001:0000122b   402 0001:00001245   403 0001:00001256
   404 0001:00001261   406 0001:00001269   407 0001:00001283   410 0001:0000129f
   411 0001:000012fd   412 0001:00001339   415 0001:00001375   416 0001:00001397
   418 0001:000013b3   419 0001:000013cc   421 0001:0000140f   424 0001:0000143e
   427 0001:00001470   429 0001:0000147f   432 0001:00001484   436 0001:00001498
   437 0001:000014d5   439 0001:000014de   441 0001:000014f1   444 0001:000014f6
   446 0001:00001544   447 0001:00001656   448 0001:00001671   451 0001:000016a2
   453 0001:000016b6   456 0001:000016c2   458 0001:000016cf   459 0001:000016d5
   460 0001:0000170e   463 0001:00001717   465 0001:00001724   466 0001:000017e5
   467 0001:000017e7   473 0001:000017f5   475 0001:00001806   477 0001:00001818
   479 0001:00001822   482 0001:00001833   485 0001:0000183e   488 0001:00001849
   491 0001:00001850   494 0001:0000185b   497 0001:0000186c   499 0001:00001874
   501 0001:00001876   502 0001:00001881   504 0001:00001887   507 0001:00001890
   510 0001:00001892   511 0001:000018a0   514 0001:000018bb   533 0001:000018e1
   535 0001:00001903   536 0001:0000197c   518 0001:00001991   520 0001:000019b2
   521 0001:000019bc   522 0001:000019c9   526 0001:000019d2   528 0001:000019e0
   529 0001:000019ea   530 0001:000019f7   539 0001:00001c20   542 0001:00001c3b
   549 0001:00001c4c   551 0001:00001c5f   558 0001:00001c68   560 0001:00001ca3
   561 0001:00001cbe   563 0001:00001cd0   564 0001:00001dc5   567 0001:00001e10
   572 0001:00001e2e   577 0001:00001e5a   579 0001:00001e74   593 0001:00001e8b
   594 0001:00001ea3   597 0001:00001eb5   598 0001:00001ee6   600 0001:00001ef6
   602 0001:00001f3d   604 0001:00001f4d   606 0001:00001f54   614 0001:00001f59
   615 0001:00001f71   616 0001:00001f83   617 0001:00001fb4   619 0001:00001fc4
   620 0001:0000200b   623 0001:00002039   583 0001:0000203b   584 0001:00002053
   585 0001:00002065   587 0001:0000208d   629 0001:0000209d   630 0001:000020ac
   635 0001:000020b4   638 0001:000020db   639 0001:000020de   642 0001:000020ea
   647 0001:000020f8   649 0001:00002106   651 0001:0000211a   654 0001:0000211c
   655 0001:0000212e   658 0001:00002135   660 0001:00002138   663 0001:0000213a
   668 0001:00002141   670 0001:00002151   672 0001:00002156   677 0001:00002159
   679 0001:000021a2   680 0001:000021a9   685 0001:000021b4   689 0001:000021c2
   693 0001:000021d0   695 0001:000021d7   697 0001:000021e0   699 0001:000021e2
   691 0001:000021ee   693 0001:000021f9   687 0001:000021fb   702 0001:00002206
   703 0001:0000224d   635 0001:0000229a   710 0001:000022d6   713 0001:000022e3
   714 0001:000022e5   737 0001:000022f3   720 0001:0000232e   722 0001:0000234f
   723 0001:00002359   724 0001:00002366   728 0001:0000236f   730 0001:0000237d
   731 0001:00002387   732 0001:00002394   740 0001:000023a0   743 0001:000023bc
   744 0001:000023cb   746 0001:000023d5   748 0001:000023e4   749 0001:000023fb
   752 0001:0000240d   753 0001:0000242c   754 0001:0000243e   755 0001:00002444
   758 0001:00002447   762 0001:00002453   763 0001:00002470   793 0001:00002477
   797 0001:00002488   770 0001:00002499   773 0001:000024a1   774 0001:000024a5
   775 0001:000024af   776 0001:000024bc   777 0001:000024be   780 0001:000024c1
   781 0001:000024cd   782 0001:0000250a   789 0001:00002514   790 0001:00002521
   793 0001:0000252e   797 0001:0000253f   796 0001:00002550   797 0001:0000255b
   800 0001:00002580   803 0001:00002599   805 0001:000025a9   806 0001:000025bc
   808 0001:000025c6   812 0001:000025cf   813 0001:000025e4   815 0001:000025f6
   816 0001:00002615   819 0001:00002618   820 0001:00002639   821 0001:00002654
   823 0001:00002669   825 0001:00002690   827 0001:00002695   829 0001:000026e7
   830 0001:00002713   832 0001:00002718   834 0001:00002723   836 0001:00002726
   837 0001:00002736   838 0001:00002751   842 0001:00002766   844 0001:000027c2
   830 0001:000027e8   846 0001:000027ec   881 0001:000027fa   883 0001:00002807
   848 0001:0000280c   851 0001:00002814   852 0001:0000281a   854 0001:0000281d
   855 0001:00002855   875 0001:0000285f   881 0001:00002870   883 0001:0000287d
   861 0001:00002882   863 0001:0000288d   865 0001:00002890   866 0001:0000289e
   867 0001:000028b9   871 0001:000028d0   873 0001:0000292b   875 0001:00002956
   881 0001:00002964   883 0001:00002971   879 0001:00002973   881 0001:0000297e
   883 0001:0000298e   884 0001:00002990   886 0001:0000299e   889 0001:000029c0
   892 0001:000029c4   893 0001:000029d8   896 0001:000029e0   899 0001:000029ea
   900 0001:000029f8   951 0001:00002a00   960 0001:00002a20   961 0001:00002a46
   965 0001:00002a4e   966 0001:00002a5d   985 0001:00002a65   991 0001:00002a83
   995 0001:00002a8c   985 0001:00002a8d  1025 0001:00002ab3  1027 0001:00002ab7
  1028 0001:00002ac5  1029 0001:00002ae0  1030 0001:00002aec  1031 0001:00002b13
  1033 0001:00002b15  1034 0001:00002b25  1040 0001:00002b39  1041 0001:00002b52
  1043 0001:00002b56  1044 0001:00002b58  1046 0001:00002b66  1047 0001:00002b73
  1049 0001:00002b77  1050 0001:00002b79  1052 0001:00002b87  1054 0001:00002b91
  1079 0001:00002ba2  1059 0001:00002bb3  1061 0001:00002bd4  1062 0001:00002bde
  1064 0001:00002beb  1065 0001:00002bf2  1066 0001:00002bff  1070 0001:00002c08
  1072 0001:00002c16  1073 0001:00002c20  1075 0001:00002c2d  1076 0001:00002c34
  1077 0001:00002c41  1082 0001:00002c50  1093 0001:00002c6d  1094 0001:00002c96
  1098 0001:00002c9e  1099 0001:00002cad  1104 0001:00002cb5  1106 0001:00002cbb
  1107 0001:00002cc9  1109 0001:00002cd9  1111 0001:00002ce8  1112 0001:00002cf2
  1113 0001:00002cf5  1115 0001:00002d0b  1116 0001:00002d3b  1118 0001:00002d48
  1119 0001:00002d53  1134 0001:00002d7c  1119 0001:00002d85  1121 0001:00002d87
  1123 0001:00002d8c  1124 0001:00002d8f  1128 0001:00002d9c  1129 0001:00002da8
  1130 0001:00002dc3  1132 0001:00002dda  1134 0001:00002de1  1142 0001:00002e0b
  1143 0001:00002e21  1144 0001:00002e2d  1148 0001:00002e43  1149 0001:00002e48
  1152 0001:00002e72  1155 0001:00002e7f  1156 0001:00002e81  1158 0001:00002e8f
  1186 0001:00002e9c  1162 0001:00002ead  1186 0001:00002eb8  1166 0001:00002ecc
  1168 0001:00002eed  1169 0001:00002ef7  1171 0001:00002f04  1172 0001:00002f0b
  1173 0001:00002f18  1177 0001:00002f21  1179 0001:00002f2f  1180 0001:00002f39
  1182 0001:00002f46  1183 0001:00002f4d  1184 0001:00002f5a  1189 0001:00002f70
  1205 0001:00002f8d  1206 0001:00002fb6  1209 0001:00002fbe  1210 0001:00002fcd
  1214 0001:00002fd5  1218 0001:00002fe3  1220 0001:00002ff2  1289 0001:00002ffb
  1226 0001:0000300c  1228 0001:00003014  1230 0001:00003020  1235 0001:00003038
  1236 0001:0000306a  1237 0001:00003074  1238 0001:00003082  1240 0001:00003084
  1241 0001:00003087  1242 0001:0000308f  1245 0001:00003092  1249 0001:0000309e
  1250 0001:000030ab  1252 0001:000030be  1253 0001:000030c3  1254 0001:000030f4
  1255 0001:000030f9  1260 0001:00003106  1289 0001:00003113  1259 0001:00003124
  1260 0001:0000312f  1289 0001:0000313f  1264 0001:00003150  1289 0001:0000315b
  1269 0001:0000316f  1271 0001:00003190  1272 0001:0000319a  1274 0001:000031a7
  1275 0001:000031ae  1276 0001:000031bb  1280 0001:000031c4  1282 0001:000031d2
  1283 0001:000031dc  1285 0001:000031e9  1286 0001:000031f0  1287 0001:000031fd
  1297 0001:00003210  1305 0001:00003233  1306 0001:00003250  1309 0001:00003254
  1311 0001:0000325e  1314 0001:0000326a  1315 0001:00003272  1311 0001:00003287
  1315 0001:0000328a  1311 0001:0000329d  1317 0001:000032a0  1339 0001:000032ad
  1321 0001:000032be  1339 0001:000032c9  1325 0001:000032dd  1327 0001:000032fe
  1328 0001:00003308  1329 0001:00003315  1333 0001:0000331e  1335 0001:0000332c
  1336 0001:00003336  1337 0001:00003343  1342 0001:00003350  1347 0001:00003364
  1348 0001:0000336d  1365 0001:00003378  1350 0001:0000337b  1353 0001:00003385
  1355 0001:0000338e  1365 0001:000033a1  1357 0001:000033a4  1359 0001:000033ac
  1360 0001:000033b6  1361 0001:000033bd  1365 0001:000033c5  1364 0001:000033c8
  1365 0001:000033db  1368 0001:000033e0  1370 0001:00003406  1371 0001:0000340d
  1372 0001:0000342f  1377 0001:00003450  1406 0001:00003468  1407 0001:00003476
  1408 0001:00003490  1409 0001:00003497  1402 0001:0000349c  1403 0001:000034b1
  1377 0001:000034b6  1411 0001:000034c6  1412 0001:000034d7  1381 0001:000034dc
  1386 0001:0000358a  1388 0001:00003592  1390 0001:000035d4  1391 0001:000035da
  1392 0001:0000374d  1394 0001:00003758  1396 0001:0000375d  1397 0001:0000376b
  1394 0001:00003785  1426 0001:00003788  1427 0001:000037cf  1417 0001:000037e7
  1418 0001:00003818  1422 0001:00003821  1423 0001:00003835  1430 0001:00003840
  1435 0001:00003845  1437 0001:00003851  1456 0001:00003861  1442 0001:00003864
  1443 0001:00003874  1444 0001:0000387f  1447 0001:0000388a  1449 0001:00003898
  1450 0001:0000389e  1451 0001:000038a2  1453 0001:000038e6  1455 0001:000038f9
  1456 0001:0000390a  1485 0001:00003910  1486 0001:00003930  1494 0001:0000394f
  1497 0001:0000396a  1499 0001:000039cd  1503 0001:000039d7  1505 0001:000039e1
  1507 0001:000039ea  1509 0001:000039ec  1512 0001:00003a00  1515 0001:00003a09
  1517 0001:00003a13  1520 0001:00003a1d  1523 0001:00003a60  1524 0001:00003a7e
  1527 0001:00003a80  1528 0001:00003a93  1531 0001:00003a9b  1538 0001:00003aaf
  1540 0001:00003abc  1542 0001:00003ac1  1546 0001:00003ac6  1544 0001:00003acf
  1558 0001:00003ad5  1562 0001:00003aeb  1564 0001:00003af4  1567 0001:00003b0b
  1544 0001:00003b10  1546 0001:00003b15  1548 0001:00003b1a  1552 0001:00003b1c
  1553 0001:00003bab  1554 0001:00003be0  1569 0001:00003c19  1570 0001:00003c9e
  1571 0001:00003d24  1572 0001:00003d3d  1574 0001:00003d64  1577 0001:00003d8c
  1578 0001:00003d94  1579 0001:00003d9c  1585 0001:00003da9  1586 0001:00003dab
  1582 0001:00003dbe  1586 0001:00003dc9  1589 0001:00003df0  1603 0001:00003dfa
  1605 0001:00003e02  1615 0001:00003e07  1593 0001:00003e0a  1595 0001:00003e12
  1615 0001:00003e17  1599 0001:00003e1a  1615 0001:00003e1f  1620 0001:00003e30
  1621 0001:00003e49  1624 0001:00003e5e  1626 0001:00003e78  1628 0001:00003e7b
  1635 0001:00003e91  1637 0001:00003e9c  1640 0001:00003ea8  1642 0001:00003ec9
  1644 0001:00003ed5  1646 0001:00003ee7  1648 0001:00003ef8  1651 0001:00003efa
  1653 0001:00003f1c  1655 0001:00003f33  1631 0001:00003f87  1624 0001:00003fa9
  1658 0001:00003fd3  1663 0001:00003ff0  1664 0001:00004009  1667 0001:0000401e
  1669 0001:00004038  1671 0001:0000403b  1678 0001:00004051  1680 0001:0000405c
  1683 0001:00004068  1685 0001:00004089  1687 0001:00004095  1689 0001:000040a7
  1691 0001:000040b8  1694 0001:000040ba  1696 0001:000040dc  1698 0001:000040f3
  1674 0001:00004147  1667 0001:00004169  1701 0001:00004193  1708 0001:000041b0
  1709 0001:000041ce  1711 0001:000041dd  1713 0001:000041ee  1715 0001:000041f8
  1717 0001:00004247  1718 0001:0000425d  1719 0001:000042e9  1720 0001:00004304
  1715 0001:0000432a  1722 0001:00004336  1724 0001:00004377  1722 0001:0000438a
  1724 0001:00004415  1727 0001:00004430  1733 0001:0000444a  1734 0001:000045ab
  1736 0001:000045c4  1738 0001:000045de  1743 0001:00004604  1744 0001:00004641
  1740 0001:00004643  1741 0001:0000467b  1746 0001:0000467d  1749 0001:000046bc
  1752 0001:00004787  1757 0001:0000479a  1758 0001:000047b3  1754 0001:000047b5
  1755 0001:000047ce  1760 0001:000047d0  1763 0001:000047e9  1766 0001:00004850
  1769 0001:0000486c  1774 0001:0000489c  1776 0001:00004935  1780 0001:00004958
  1787 0001:00004970  1790 0001:0000497c  1792 0001:000049a7  1794 0001:000049b3
  1797 0001:000049c5  1799 0001:000049d6  1802 0001:000049d8  1804 0001:000049fa
  1806 0001:00004a11  1808 0001:00004a63  1810 0001:00004a70  1811 0001:00004a83
  1818 0001:00004a8d  1819 0001:00004ab9  1822 0001:00004ad0  1825 0001:00004af0
  1830 0001:00004b16  1832 0001:00004baf  1836 0001:00004bd7  1843 0001:00004bef
  1846 0001:00004bfb  1848 0001:00004c26  1850 0001:00004c32  1853 0001:00004c44
  1855 0001:00004c55  1858 0001:00004c57  1860 0001:00004c79  1862 0001:00004c90
  1864 0001:00004ce2  1866 0001:00004cef  1867 0001:00004d02  1874 0001:00004d0c
  1875 0001:00004d39  1884 0001:00004d50  1886 0001:00004d65  1889 0001:00004d70
  1892 0001:00004d7a  1894 0001:00004d7e  1903 0001:00004d80  1904 0001:00004d8e
  1906 0001:00004da4  1907 0001:00004db3  1909 0001:00004dd4  1910 0001:00004ddf
  1911 0001:00004e0a  1914 0001:00004e20  1915 0001:00004e2e  1917 0001:00004e44
  1918 0001:00004e53  1920 0001:00004e74  1921 0001:00004e7f  1922 0001:00004eaa

Line numbers for .\Release\bncs_input.obj(C:\Program Files\Microsoft Visual Studio\VC98\INCLUDE\iostream) segment .text

    16 0001:00000010    29 0001:00000050

 Exports

  ordinal    name

        1    _createNewInput
               exported name: createNewInput
