 alm_db_output

 Timestamp is 56de005e (Mon Mar 07 22:27:42 2016)

 Preferred load address is 10000000

 Start         Length     Name                   Class
 0001:00000000 0001feaeH .text                   CODE
 0001:0001feb0 00001dc2H .text$x                 CODE
 0002:00000000 000004c4H .idata$5                DATA
 0002:000004c8 000013a0H .rdata                  DATA
 0002:00001868 00000d6cH .rdata$r                DATA
 0002:000025d8 000021d8H .xdata$x                DATA
 0002:000047b0 00000064H .idata$2                DATA
 0002:00004814 00000014H .idata$3                DATA
 0002:00004828 000004c4H .idata$4                DATA
 0002:00004cec 000021d4H .idata$6                DATA
 0002:00006ec0 00000054H .edata                  DATA
 0003:00000000 00000004H .CRT$XCA                DATA
 0003:00000004 00000078H .CRT$XCU                DATA
 0003:0000007c 00000004H .CRT$XCZ                DATA
 0003:00000080 00000004H .CRT$XIA                DATA
 0003:00000084 0000000cH .CRT$XIC                DATA
 0003:00000090 00000004H .CRT$XIY                DATA
 0003:00000094 00000004H .CRT$XIZ                DATA
 0003:00000098 00000004H .CRT$XPA                DATA
 0003:0000009c 00000004H .CRT$XPX                DATA
 0003:000000a0 00000004H .CRT$XPZ                DATA
 0003:000000a4 00000004H .CRT$XTA                DATA
 0003:000000a8 00000004H .CRT$XTB                DATA
 0003:000000ac 00000004H .CRT$XTZ                DATA
 0003:000000b0 00005cecH .data                   DATA
 0003:00005da0 000020ecH .bss                    DATA
 0004:00000000 00000058H .rsrc$01                DATA
 0004:00000060 000004b8H .rsrc$02                DATA

  Address         Publics by Value              Rva+Base     Lib:Object

 0001:00000000       _DllMain@12                10001000 f   alm_db_output.obj
 0001:00000030       _createNewOutput           10001030 f   alm_db_output.obj
 0001:000000b0       ??_G?$QMemArray@H@@UAEPAXI@Z 100010b0 f i alm_db_output.obj
 0001:000000d0       ??_G?$QMemArray@_N@@UAEPAXI@Z 100010d0 f i alm_db_output.obj
 0001:000000f0       ??_G?$QMemArray@D@@UAEPAXI@Z 100010f0 f i alm_db_output.obj
 0001:00000110       ??_G?$QPtrList@D@@UAEPAXI@Z 10001110 f i alm_db_output.obj
 0001:000001b0       ??0alm_db_outputif@@QAE@PAUIDebug@@ABVQString@@@Z 100011b0 f   alm_db_output_if.obj
 0001:00000460       ?getTxCount@alarms_base@@UAEJXZ 10001460 f i alm_db_output_if.obj
 0001:00000470       ?getRxCount@alarms_base@@UAEJXZ 10001470 f i alm_db_output_if.obj
 0001:00000480       ??1alarms_output_base@@UAE@XZ 10001480 f i alm_db_output_if.obj
 0001:00000490       ??_Ealarms_base@@UAEPAXI@Z 10001490 f i alm_db_output_if.obj
 0001:00000490       ??_Galarms_base@@UAEPAXI@Z 10001490 f i alm_db_output_if.obj
 0001:000004b0       ?setIntialStates@alarms_output_base@@UAEXPBHH@Z 100014b0 f i alm_db_output_if.obj
 0001:000004c0       ??_Galarms_output_base@@UAEPAXI@Z 100014c0 f i alm_db_output_if.obj
 0001:000004c0       ??_Ealarms_output_base@@UAEPAXI@Z 100014c0 f i alm_db_output_if.obj
 0001:000004e0       ??_Galm_db_outputif@@UAEPAXI@Z 100014e0 f i alm_db_output_if.obj
 0001:000004e0       ??_Ealm_db_outputif@@UAEPAXI@Z 100014e0 f i alm_db_output_if.obj
 0001:00000500       ??1alm_db_outputif@@UAE@XZ 10001500 f   alm_db_output_if.obj
 0001:000007c0       ?AppendLog@alm_db_outputif@@AAEXABVQString@@@Z 100017c0 f   alm_db_output_if.obj
 0001:000007e0       ?init@alm_db_outputif@@UAE_NABVQString@@00ABVQStringList@@H_NQAUIAlarmEvent@@@Z 100017e0 f   alm_db_output_if.obj
 0001:00001450       ?addProcess@alm_db_outputif@@AAEXAAPAVcLogData@@ABVQStringList@@AA_N@Z 10002450 f   alm_db_output_if.obj
 0001:000015e0       ?DataChange@alm_db_outputif@@AAEXHH@Z 100025e0 f   alm_db_output_if.obj
 0001:00001650       ?Debug@alm_db_outputif@@AAAXPADZZ 10002650 f   alm_db_output_if.obj
 0001:000017e0       ?dataReady@alm_db_outputif@@UAE_NPAHH@Z 100027e0 f   alm_db_output_if.obj
 0001:00001950       ?getTxMode@alm_db_outputif@@UAE_NXZ 10002950 f   alm_db_output_if.obj
 0001:00001960       ?setTxMode@alm_db_outputif@@QAE_N_N0@Z 10002960 f   alm_db_output_if.obj
 0001:00001a60       ?setRxOnly@alm_db_outputif@@UAE_NXZ 10002a60 f   alm_db_output_if.obj
 0001:00001a70       ?setTxRx@alm_db_outputif@@UAE_NXZ 10002a70 f   alm_db_output_if.obj
 0001:00001a80       ?forceTxRx@alm_db_outputif@@UAE_NXZ 10002a80 f   alm_db_output_if.obj
 0001:00001a90       ?setOverrideList@alm_db_outputif@@UAEXQAV?$list@PAVCalarm_Process@@V?$allocator@PAVCalarm_Process@@@std@@@std@@QAVQSemaphore@@@Z 10002a90 f   alm_db_output_if.obj
 0001:00001ab0       ?LogEntry@alm_db_outputif@@AAEXHHABVQString@@000@Z 10002ab0 f   alm_db_output_if.obj
 0001:00001ed0       ?UpdateBncs@alm_db_outputif@@AAEXABVQString@@@Z 10002ed0 f   alm_db_output_if.obj
 0001:00001f30       ?notify@alm_db_outputif@@EAEJPAVcDriver@@PBD@Z 10002f30 f   alm_db_output_if.obj
 0001:00002140       ?DecodeBncsMsg@alm_db_outputif@@AAEXABVQString@@@Z 10003140 f   alm_db_output_if.obj
 0001:000023d0       ?UpdateDatabase@alm_db_outputif@@AAEXPAVcLogData@@H@Z 100033d0 f   alm_db_output_if.obj
 0001:000024f0       ?sendTestMessage@alm_db_outputif@@AAEXXZ 100034f0 f   alm_db_output_if.obj
 0001:000026c0       ?getTxCount@alm_db_outputif@@UAEJXZ 100036c0 f   alm_db_output_if.obj
 0001:000026f0       ?getStatusOk@alm_db_outputif@@UAE_NXZ 100036f0 f   alm_db_output_if.obj
 0001:000027f0       ?decodeSystem@alm_db_outputif@@AAEXABVQString@@@Z 100037f0 f   alm_db_output_if.obj
 0001:00002d90       ?addProcSetting@alm_db_outputif@@AAE_NPAVcLogData@@ABVQString@@@Z 10003d90 f   alm_db_output_if.obj
 0001:000030a0       ?setIntialStates@alm_db_outputif@@QAEXPAHH@Z 100040a0 f   alm_db_output_if.obj
 0001:00003110       ?loadInstanceData@alm_db_outputif@@AAEX_NABVQString@@1@Z 10004110 f   alm_db_output_if.obj
 0001:00003c80       ??_EQDomElement@@UAEPAXI@Z 10004c80 f i alm_db_output_if.obj
 0001:00003c80       ??_GQDomElement@@UAEPAXI@Z 10004c80 f i alm_db_output_if.obj
 0001:00003ca0       ?SetNetworkOutput@alm_db_outputif@@UAEX_N@Z 10004ca0 f   alm_db_output_if.obj
 0001:00003d80       ?aboutToClose@alm_db_outputif@@UAEXXZ 10004d80 f   alm_db_output_if.obj
 0001:00003d90       ?getConfigFileDate@alm_db_outputif@@UAE?AVQDateTime@@XZ 10004d90 f   alm_db_output_if.obj
 0001:00003db0       ?getClassName@alm_db_outputif@@UAEPBDXZ 10004db0 f   alm_db_output_if.obj
 0001:00003dc0       ?setDebugMode@alm_db_outputif@@UAE_N_N@Z 10004dc0 f   alm_db_output_if.obj
 0001:00003e00       ?getDebugMode@alm_db_outputif@@UAE_NXZ 10004e00 f   alm_db_output_if.obj
 0001:00003e10       ?setLogMode@alm_db_outputif@@UAEHH@Z 10004e10 f   alm_db_output_if.obj
 0001:00003e50       ?getLogMode@alm_db_outputif@@UAEHXZ 10004e50 f   alm_db_output_if.obj
 0001:00003e60       ?retryConnnection@alm_db_outputif@@UAEXXZ 10004e60 f   alm_db_output_if.obj
 0001:00003e90       ??1?$_Tree@HU?$pair@$$CBHPAVcLogData@@@std@@U_Kfn@?$map@HPAVcLogData@@U?$less@H@std@@V?$allocator@PAVcLogData@@@3@@2@U?$less@H@2@V?$allocator@PAVcLogData@@@2@@std@@QAE@XZ 10004e90 f i alm_db_output_if.obj
 0001:00003f70       ?count@?$QDict@UInstanceData@@@@UBEIXZ 10004f70 f i alm_db_output_if.obj
 0001:00003f80       ?clear@?$QDict@UInstanceData@@@@UAEXXZ 10004f80 f i alm_db_output_if.obj
 0001:00003f90       ??_G?$QMemArray@VQPoint@@@@UAEPAXI@Z 10004f90 f i alm_db_output_if.obj
 0001:00003fb0       ??_G?$QPtrList@VQObject@@@@UAEPAXI@Z 10004fb0 f i alm_db_output_if.obj
 0001:00003fd0       ??_G?$QPtrList@VQWidget@@@@UAEPAXI@Z 10004fd0 f i alm_db_output_if.obj
 0001:00003ff0       ??_E?$QDict@UInstanceData@@@@UAEPAXI@Z 10004ff0 f i alm_db_output_if.obj
 0001:00003ff0       ??_G?$QDict@UInstanceData@@@@UAEPAXI@Z 10004ff0 f i alm_db_output_if.obj
 0001:00004010       ??1?$QDict@UInstanceData@@@@UAE@XZ 10005010 f i alm_db_output_if.obj
 0001:00004070       ??0?$pair@Viterator@?$_Tree@HU?$pair@$$CBHPAVcLogData@@@std@@U_Kfn@?$map@HPAVcLogData@@U?$less@H@std@@V?$allocator@PAVcLogData@@@3@@2@U?$less@H@2@V?$allocator@PAVcLogData@@@2@@std@@_N@std@@QAE@ABViterator@?$_Tree@HU?$pair@$$CBHPAVcLogData@@@std@@U_Kfn@?$map@HPAVcLogData@@U?$less@H@std@@V?$allocator@PAVcLogData@@@3@@2@U?$less@H@2@V?$allocator@PAVcLogData@@@2@@1@AB_N@Z 10005070 f i alm_db_output_if.obj
 0001:00004090       ?derefAndDelete@?$QValueListPrivate@VQString@@@@QAEXXZ 10005090 f i alm_db_output_if.obj
 0001:000040b0       ??_E?$QValueListNode@VQString@@@@UAEPAXI@Z 100050b0 f i alm_db_output_if.obj
 0001:000040b0       ??_G?$QValueListNode@VQString@@@@UAEPAXI@Z 100050b0 f i alm_db_output_if.obj
 0001:000040d0       ??1?$QValueListNode@VQString@@@@UAE@XZ 100050d0 f i alm_db_output_if.obj
 0001:00004100       ?erase@?$_Tree@HU?$pair@$$CBHPAVcLogData@@@std@@U_Kfn@?$map@HPAVcLogData@@U?$less@H@std@@V?$allocator@PAVcLogData@@@3@@2@U?$less@H@2@V?$allocator@PAVcLogData@@@2@@std@@QAE?AViterator@12@V312@@Z 10005100 f i alm_db_output_if.obj
 0001:00004500       ?_Erase@?$_Tree@HU?$pair@$$CBHPAVcLogData@@@std@@U_Kfn@?$map@HPAVcLogData@@U?$less@H@std@@V?$allocator@PAVcLogData@@@3@@2@U?$less@H@2@V?$allocator@PAVcLogData@@@2@@std@@IAEXPAU_Node@12@@Z 10005500 f i alm_db_output_if.obj
 0001:00004540       ?_Insert@?$_Tree@HU?$pair@$$CBHPAVcLogData@@@std@@U_Kfn@?$map@HPAVcLogData@@U?$less@H@std@@V?$allocator@PAVcLogData@@@3@@2@U?$less@H@2@V?$allocator@PAVcLogData@@@2@@std@@IAE?AViterator@12@PAU_Node@12@0ABU?$pair@$$CBHPAVcLogData@@@2@@Z 10005540 f i alm_db_output_if.obj
 0001:000047b0       ?_Inc@const_iterator@?$_Tree@HU?$pair@$$CBHPAVcLogData@@@std@@U_Kfn@?$map@HPAVcLogData@@U?$less@H@std@@V?$allocator@PAVcLogData@@@3@@2@U?$less@H@2@V?$allocator@PAVcLogData@@@2@@std@@QAEXXZ 100057b0 f i alm_db_output_if.obj
 0001:00004800       ?_Lbound@?$_Tree@HU?$pair@$$CBHPAVcLogData@@@std@@U_Kfn@?$map@HPAVcLogData@@U?$less@H@std@@V?$allocator@PAVcLogData@@@3@@2@U?$less@H@2@V?$allocator@PAVcLogData@@@2@@std@@IBEPAU_Node@12@ABH@Z 10005800 f i alm_db_output_if.obj
 0001:00004830       ?_Min@?$_Tree@HU?$pair@$$CBHPAVcLogData@@@std@@U_Kfn@?$map@HPAVcLogData@@U?$less@H@std@@V?$allocator@PAVcLogData@@@3@@2@U?$less@H@2@V?$allocator@PAVcLogData@@@2@@std@@KAPAU_Node@12@PAU312@@Z 10005830 f i alm_db_output_if.obj
 0001:00004850       ?_Dec@const_iterator@?$_Tree@HU?$pair@$$CBHPAVcLogData@@@std@@U_Kfn@?$map@HPAVcLogData@@U?$less@H@std@@V?$allocator@PAVcLogData@@@3@@2@U?$less@H@2@V?$allocator@PAVcLogData@@@2@@std@@QAEXXZ 10005850 f i alm_db_output_if.obj
 0001:000048b0       ?deleteItem@?$QDict@UInstanceData@@@@EAEXPAX@Z 100058b0 f i alm_db_output_if.obj
 0001:000048e0       ?at@?$QValueListPrivate@VQString@@@@QBEPAV?$QValueListNode@VQString@@@@I@Z 100058e0 f i alm_db_output_if.obj
 0001:00004920       ?_Construct@std@@YAXPAU?$pair@$$CBHPAVcLogData@@@1@ABU21@@Z 10005920 f i alm_db_output_if.obj
 0001:00004940       ??_G?$QValueListPrivate@VQString@@@@UAEPAXI@Z 10005940 f i alm_db_output_if.obj
 0001:00004940       ??_E?$QValueListPrivate@VQString@@@@UAEPAXI@Z 10005940 f i alm_db_output_if.obj
 0001:00004990       ??1InstanceData@@QAE@XZ    10005990 f i alm_db_output_if.obj
 0001:00004b10       ?id@?$ctype@G@std@@$E      10005b10 f i alm_db_output_if.obj
 0001:00004b20       ??0Cio@@QAE@PAVIDiagnostics@@ABVQString@@1H_N@Z 10005b20 f   Cio.obj
 0001:00004bc0       ??_GCio@@UAEPAXI@Z         10005bc0 f i Cio.obj
 0001:00004bc0       ??_ECio@@UAEPAXI@Z         10005bc0 f i Cio.obj
 0001:00004be0       ?Debug@Cio@@AAAXPADZZ      10005be0 f   Cio.obj
 0001:00004c20       ??6Cio@@QAEXABVdbItem@@@Z  10005c20 f   Cio.obj
 0001:00004c30       ??5Cio@@QAEXAAVdbItem@@@Z  10005c30 f   Cio.obj
 0001:00004c40       ?isEmpty@Cio@@QBE_NXZ      10005c40 f   Cio.obj
 0001:00004c50       ?updateFileOffset@Cio@@QAEXXZ 10005c50 f   Cio.obj
 0001:00004c60       ?updateFileOffsetReadOnly@Cio@@QAEXXZ 10005c60 f   Cio.obj
 0001:00004c70       ?resetFileOffsetReadOnly@Cio@@QAEXXZ 10005c70 f   Cio.obj
 0001:00004c80       ?getSavedOffset@Cio@@QAEXAAH000@Z 10005c80 f   Cio.obj
 0001:00004ca0       ?emptyLogFiles@Cio@@QAE_NXZ 10005ca0 f   Cio.obj
 0001:00004cd0       ??1Cio@@UAE@XZ             10005cd0 f   Cio.obj
 0001:00004ce0       ?getOffset@Cio@@QBEHXZ     10005ce0 f   Cio.obj
 0001:00004cf0       ?getDetails@Cio@@QBEXAAVQString@@AAH111@Z 10005cf0 f   Cio.obj
 0001:00004d20       ??0FilePair@Cio@@QAE@PAVIDiagnostics@@ABVQString@@H_N@Z 10005d20 f   Cio.obj
 0001:00005000       ??_EFilePair@Cio@@UAEPAXI@Z 10006000 f i Cio.obj
 0001:00005000       ??_GFilePair@Cio@@UAEPAXI@Z 10006000 f i Cio.obj
 0001:00005020       ??1FilePair@Cio@@UAE@XZ    10006020 f   Cio.obj
 0001:000050f0       ?ok@FilePair@Cio@@QBE_NXZ  100060f0 f   Cio.obj
 0001:00005100       ?getOffset@FilePair@Cio@@QBEHXZ 10006100 f   Cio.obj
 0001:00005110       ?getDetails@FilePair@Cio@@QBEXAAVQString@@AAH111@Z 10006110 f   Cio.obj
 0001:00005160       ??6FilePair@Cio@@QAEXABVdbItem@@@Z 10006160 f   Cio.obj
 0001:000051f0       ??5FilePair@Cio@@QAEXAAVdbItem@@@Z 100061f0 f   Cio.obj
 0001:00005270       ?hasData@FilePair@Cio@@QBE_NXZ 10006270 f   Cio.obj
 0001:000052a0       ?updateFileOffset@FilePair@Cio@@QAEXXZ 100062a0 f   Cio.obj
 0001:00005360       ?updateFileOffsetReadOnly@FilePair@Cio@@QAEXXZ 10006360 f   Cio.obj
 0001:00005370       ?resetFileOffsetReadOnly@FilePair@Cio@@QAEXXZ 10006370 f   Cio.obj
 0001:00005380       ?getSavedOffset@FilePair@Cio@@QAEXAAH000@Z 10006380 f   Cio.obj
 0001:00005460       ?deleteFiles@FilePair@Cio@@QAEXXZ 10006460 f   Cio.obj
 0001:00005540       ?openFiles@FilePair@Cio@@QAE_N_N@Z 10006540 f   Cio.obj
 0001:000056f0       ??_EQFile@@UAEPAXI@Z       100066f0 f i Cio.obj
 0001:000056f0       ??_GQFile@@UAEPAXI@Z       100066f0 f i Cio.obj
 0001:00005710       ??0cLogData@@QAE@VQString@@@Z 10006710 f   cLogData.obj
 0001:00005810       ??_EcLogData@@UAEPAXI@Z    10006810 f i cLogData.obj
 0001:00005810       ??_GcLogData@@UAEPAXI@Z    10006810 f i cLogData.obj
 0001:00005830       ??1cLogData@@UAE@XZ        10006830 f   cLogData.obj
 0001:000058f0       ?setNamedItems@cLogData@@QAEXPAV?$QDict@UInstanceData@@@@@Z 100068f0 f   cLogData.obj
 0001:00005fa0       ?replaceNamedItem@cLogData@@AAEXABVQString@@0@Z 10006fa0 f   cLogData.obj
 0001:00006050       ??0db_interface@@QAE@PAUIDebug@@ABVQString@@1H1H@Z 10007050 f   db_interface.obj
 0001:00006450       ??_Edb_interface@@UAEPAXI@Z 10007450 f i db_interface.obj
 0001:00006450       ??_Gdb_interface@@UAEPAXI@Z 10007450 f i db_interface.obj
 0001:00006470       ??_EQSemaphore@@UAEPAXI@Z  10007470 f i db_interface.obj
 0001:00006470       ??_GQSemaphore@@UAEPAXI@Z  10007470 f i db_interface.obj
 0001:00006490       ??1db_interface@@UAE@XZ    10007490 f   db_interface.obj
 0001:00006f00       ?Stop@db_interface@@QAEXXZ 10007f00 f   db_interface.obj
 0001:00007070       ?run@db_interface@@EAEXXZ  10008070 f   db_interface.obj
 0001:00007620       ?TransferLogioToDb@DbConnect@@AAEXAAVQString@@@Z 10008620 f   db_interface.obj
 0001:00007810       ?TransferListToDb@db_interface@@AAEXAAVQString@@@Z 10008810 f   db_interface.obj
 0001:00007930       ?TransferListToLogio@db_interface@@AAEXAAVQString@@@Z 10008930 f   db_interface.obj
 0001:00007a20       ?startConnect@db_interface@@QAE_NXZ 10008a20 f   db_interface.obj
 0001:00007ba0       ?isOpen@db_interface@@QBE_NXZ 10008ba0 f   db_interface.obj
 0001:00007bb0       ?updateDatabase@db_interface@@QAE_NABVQDateTime@@HABVQString@@H111@Z 10008bb0 f   db_interface.obj
 0001:00007eb0       ?Debug@db_interface@@EAEXABVQString@@@Z 10008eb0 f   db_interface.obj
 0001:00007ff0       ?Debug@db_interface@@EAAXPADZZ 10008ff0 f   db_interface.obj
 0001:000081b0       ?getLastError@db_interface@@AAE?AVQString@@ABVQSqlError@@@Z 100091b0 f   db_interface.obj
 0001:00008330       ?logData@db_interface@@EAEXABVQString@@@Z 10009330 f   db_interface.obj
 0001:00008420       ?writeToDatabase@db_interface@@QAE_NPAVdbItem@@AAVQString@@@Z 10009420 f   db_interface.obj
 0001:00008510       ?checkBufferSize@db_interface@@AAE_NAAVQString@@@Z 10009510 f   db_interface.obj
 0001:00008790       ?setLogMode@db_interface@@QAEHH@Z 10009790 f   db_interface.obj
 0001:000087a0       ?getLogMode@db_interface@@QBEHXZ 100097a0 f   db_interface.obj
 0001:000087b0       ?getBufferFull@db_interface@@QBE_NXZ 100097b0 f   db_interface.obj
 0001:000087c0       ?setDebugMode@db_interface@@QAE_N_N@Z 100097c0 f   db_interface.obj
 0001:000087f0       ?getDebugMode@db_interface@@QBE_NXZ 100097f0 f   db_interface.obj
 0001:00008800       ?getDbTxCount@db_interface@@QBEKXZ 10009800 f   db_interface.obj
 0001:00008810       ??0DbConnect@@QAE@PAUIDebug@@ABVQString@@HQAVCio@@QAVdb_interface@@@Z 10009810 f   db_interface.obj
 0001:00008ad0       ??_EDbConnect@@UAEPAXI@Z   10009ad0 f i db_interface.obj
 0001:00008ad0       ??_GDbConnect@@UAEPAXI@Z   10009ad0 f i db_interface.obj
 0001:00008af0       ??1DbConnect@@UAE@XZ       10009af0 f   db_interface.obj
 0001:00009420       ?run@DbConnect@@EAEXXZ     1000a420 f   db_interface.obj
 0001:00009b70       ?stop@DbConnect@@QAEXXZ    1000ab70 f   db_interface.obj
 0001:00009cd0       ?Debug@DbConnect@@EAEXABVQString@@@Z 1000acd0 f   db_interface.obj
 0001:00009e00       ?Debug@DbConnect@@EAAXPADZZ 1000ae00 f   db_interface.obj
 0001:00009fb0       ?connect_db@DbConnect@@AAE_NXZ 1000afb0 f   db_interface.obj
 0001:0000a570       ?startConnect@DbConnect@@QAE_NXZ 1000b570 f   db_interface.obj
 0001:0000a810       ?getLastError@DbConnect@@AAE?AVQString@@ABVQSqlError@@@Z 1000b810 f   db_interface.obj
 0001:0000a990       ?logData@DbConnect@@EAEXABVQString@@@Z 1000b990 f   db_interface.obj
 0001:0000aa70       ?isOpen@DbConnect@@QBE_NXZ 1000ba70 f   db_interface.obj
 0001:0000aa80       ?connected@DbConnect@@QBE_NXZ 1000ba80 f   db_interface.obj
 0001:0000aaa0       ?setParams@DbConnect@@QAEXABVQString@@0000@Z 1000baa0 f   db_interface.obj
 0001:0000aaf0       ?getDb@DbConnect@@QBEPAVQSqlDatabase@@XZ 1000baf0 f   db_interface.obj
 0001:0000ab00       ?uploadInProgress@DbConnect@@QBE_NXZ 1000bb00 f   db_interface.obj
 0001:0000ab10       ?retryConnnection@DbConnect@@QAEXXZ 1000bb10 f   db_interface.obj
 0001:0000aba0       ?retryConnnection@db_interface@@QAEXXZ 1000bba0 f   db_interface.obj
 0001:0000abb0       ?setDebugMode@DbConnect@@QAE_N_N@Z 1000bbb0 f   db_interface.obj
 0001:0000abc0       ?getDebugMode@DbConnect@@QBE_NXZ 1000bbc0 f   db_interface.obj
 0001:0000abd0       ?count@?$QPtrList@VdbItem@@@@UBEIXZ 1000bbd0 f i db_interface.obj
 0001:0000abe0       ?clear@?$QPtrList@VdbItem@@@@UAEXXZ 1000bbe0 f i db_interface.obj
 0001:0000abf0       ??_G?$QPtrList@VdbItem@@@@UAEPAXI@Z 1000bbf0 f i db_interface.obj
 0001:0000abf0       ??_E?$QPtrList@VdbItem@@@@UAEPAXI@Z 1000bbf0 f i db_interface.obj
 0001:0000ac10       ??1?$QPtrList@VdbItem@@@@UAE@XZ 1000bc10 f i db_interface.obj
 0001:0000ac70       ?deleteItem@?$QPtrList@VdbItem@@@@EAEXPAX@Z 1000bc70 f i db_interface.obj
 0001:0000acc0       ??0dbItem@@QAE@QAVIDiagnostics@@@Z 1000bcc0 f   dbItem.obj
 0001:0000ad60       ??_EdbItem@@UAEPAXI@Z      1000bd60 f i dbItem.obj
 0001:0000ad60       ??_GdbItem@@UAEPAXI@Z      1000bd60 f i dbItem.obj
 0001:0000ad80       ??0dbItem@@QAE@HVQDateTime@@HVQString@@111QAVIDiagnostics@@@Z 1000bd80 f   dbItem.obj
 0001:0000af10       ??1dbItem@@UAE@XZ          1000bf10 f   dbItem.obj
 0001:0000aff0       ??6@YAAAVQDataStream@@AAV0@ABVdbItem@@@Z 1000bff0 f   dbItem.obj
 0001:0000b060       ?readString@dbItem@@AAE_NAAVQDataStream@@AAVQString@@HABV3@PAVIValidate@@@Z 1000c060 f   dbItem.obj
 0001:0000b190       ?readInteger@dbItem@@AAE_NAAVQDataStream@@AAHHABVQString@@@Z 1000c190 f   dbItem.obj
 0001:0000b250       ?showFailure@dbItem@@AAEXPAVQIODevice@@H@Z 1000c250 f   dbItem.obj
 0001:0000b290       ??5@YAAAVQDataStream@@AAV0@AAVdbItem@@@Z 1000c290 f   dbItem.obj
 0001:0000b6d0       ?writeToDatabase@dbItem@@QAE_NAAVQString@@ABV2@1PAVQSqlDatabase@@1AAKPAVIDiagnostics@@@Z 1000c6d0 f   dbItem.obj
 0001:0000cec0       ?get@dbItem@@QAEXAAVQString@@AAH101000@Z 1000dec0 f   dbItem.obj
 0001:0000cf20       ?setDebugBasic@dbItem@@SAX_N@Z 1000df20 f   dbItem.obj
 0001:0000cf30       ?setDebugValidate@dbItem@@SAX_N@Z 1000df30 f   dbItem.obj
 0001:0000cf40       ?validate@Validate_Date@@UAE_NHAAHAAVQDataStream@@QAVdbItem@@@Z 1000df40 f   dbItem.obj
 0001:0000d250       ??0structured_exception@@QAE@ABU_EXCEPTION_POINTERS@@@Z 1000e250 f   except.obj
 0001:0000d270       ?install@structured_exception@@SAXXZ 1000e270 f   except.obj
 0001:0000d2b0       ?what@structured_exception@@QBEIXZ 1000e2b0 f   except.obj
 0001:0000d2c0       ?where@structured_exception@@QBEPBXXZ 1000e2c0 f   except.obj
 0001:0000d300       ??0cDriver@@QAE@I@Z        1000e300 f   cdriver:extdrv.obj
 0001:0000d370       ?connectx@cDriver@@QAEII@Z 1000e370 f   cdriver:extdrv.obj
 0001:0000d400       ?connect@cDriver@@QAEIIPBDI@Z 1000e400 f   cdriver:extdrv.obj
 0001:0000d4f0       ??1cDriver@@QAE@XZ         1000e4f0 f   cdriver:extdrv.obj
 0001:0000d540       ?disconnect@cDriver@@QAEXXZ 1000e540 f   cdriver:extdrv.obj
 0001:0000d560       ?getstate@cDriver@@QAEIXZ  1000e560 f   cdriver:extdrv.obj
 0001:0000d570       ?setstate@cDriver@@QAEII@Z 1000e570 f   cdriver:extdrv.obj
 0001:0000d580       ?incrx@cDriver@@QAEXXZ     1000e580 f   cdriver:extdrv.obj
 0001:0000d590       ?setcounters@cDriver@@QAEXPAK0@Z 1000e590 f   cdriver:extdrv.obj
 0001:0000d5b0       ?txquerymsg@cDriver@@QAEJPADIH@Z 1000e5b0 f   cdriver:extdrv.obj
 0001:0000d610       ?txrevmsg@cDriver@@QAEJPADIH@Z 1000e610 f   cdriver:extdrv.obj
 0001:0000d670       ?setifmode@cDriver@@QAEJG@Z 1000e670 f   cdriver:extdrv.obj
 0001:0000d6a0       ?getifmode@cDriver@@QAEGXZ 1000e6a0 f   cdriver:extdrv.obj
 0001:0000d6c0       ?gettype@cDriver@@QAEIXZ   1000e6c0 f   cdriver:extdrv.obj
 0001:0000d6d0       ?getdbname@cDriver@@QAEXGGGPADH@Z 1000e6d0 f   cdriver:extdrv.obj
 0001:0000d710       ?getdbindex@cDriver@@QAEHGGPBD@Z 1000e710 f   cdriver:extdrv.obj
 0001:0000d760       ?tokenize@cDriver@@QAEIXZ  1000e760 f   cdriver:extdrv.obj
 0001:0000d880       ?DriverWndProc@cDriver@@CGJPAUHWND__@@IIJ@Z 1000e880 f   cdriver:extdrv.obj
 0001:0000dc50       ?getServerName@cDriver@@QAEPBDXZ 1000ec50 f   cdriver:extdrv.obj
 0001:0000dc60       ?txrevqueue@cDriver@@QAEJXZ 1000ec60 f   cdriver:extdrv.obj
 0001:0000dc90       _BNCS32TxMessage           1000ec90 f   bncsif32:BNCSIF32.dll
 0001:0000dc96       _BNCS32RxMessage           1000ec96 f   bncsif32:BNCSIF32.dll
 0001:0000dc9c       ?deleteSelf@QStringData@@QAEXXZ 1000ec9c f   qt-mt323:qt-mt323.dll
 0001:0000dca2       ??0QString@@QAE@PBD@Z      1000eca2 f   qt-mt323:qt-mt323.dll
 0001:0000dca8       ??1?$QMemArray@H@@UAE@XZ   1000eca8 f   qt-mt323:qt-mt323.dll
 0001:0000dcae       ??1?$QMemArray@_N@@UAE@XZ  1000ecae f   qt-mt323:qt-mt323.dll
 0001:0000dcb4       ??1?$QMemArray@D@@UAE@XZ   1000ecb4 f   qt-mt323:qt-mt323.dll
 0001:0000dcba       ??1?$QPtrList@D@@UAE@XZ    1000ecba f   qt-mt323:qt-mt323.dll
 0001:0000dcc0       ??1QStringList@@QAE@XZ     1000ecc0 f   qt-mt323:qt-mt323.dll
 0001:0000dcc6       ??1QString@@QAE@XZ         1000ecc6 f   qt-mt323:qt-mt323.dll
 0001:0000dccc       ?latin1@QString@@QBEPBDXZ  1000eccc f   qt-mt323:qt-mt323.dll
 0001:0000dcd2       ??4QString@@QAEAAV0@PBD@Z  1000ecd2 f   qt-mt323:qt-mt323.dll
 0001:0000dcd8       ??0QString@@QAE@XZ         1000ecd8 f   qt-mt323:qt-mt323.dll
 0001:0000dcde       ??0QString@@QAE@ABV0@@Z    1000ecde f   qt-mt323:qt-mt323.dll
 0001:0000dce4       ?makeSharedNull@QString@@CAPAUQStringData@@XZ 1000ece4 f   qt-mt323:qt-mt323.dll
 0001:0000dcea       ??H@YA?BVQString@@PBDABV0@@Z 1000ecea f   qt-mt323:qt-mt323.dll
 0001:0000dcf0       ?number@QString@@SA?AV1@IH@Z 1000ecf0 f   qt-mt323:qt-mt323.dll
 0001:0000dcf6       ??1QDir@@UAE@XZ            1000ecf6 f   qt-mt323:qt-mt323.dll
 0001:0000dcfc       ?msecsTo@QTime@@QBEHABV1@@Z 1000ecfc f   qt-mt323:qt-mt323.dll
 0001:0000dd02       ??1QTextStream@@UAE@XZ     1000ed02 f   qt-mt323:qt-mt323.dll
 0001:0000dd08       ??8@YA_NABVQString@@PBD@Z  1000ed08 f   qt-mt323:qt-mt323.dll
 0001:0000dd0e       ?remove@QString@@QAEAAV1@II@Z 1000ed0e f   qt-mt323:qt-mt323.dll
 0001:0000dd14       ??9@YA_NABVQString@@PBD@Z  1000ed14 f   qt-mt323:qt-mt323.dll
 0001:0000dd1a       ?endsWith@QString@@QBE_NABV1@@Z 1000ed1a f   qt-mt323:qt-mt323.dll
 0001:0000dd20       ?startsWith@QString@@QBE_NABV1@@Z 1000ed20 f   qt-mt323:qt-mt323.dll
 0001:0000dd26       ??4QString@@QAEAAV0@ABV0@@Z 1000ed26 f   qt-mt323:qt-mt323.dll
 0001:0000dd2c       ?readLine@QTextStream@@QAE?AVQString@@XZ 1000ed2c f   qt-mt323:qt-mt323.dll
 0001:0000dd32       ??0QTextStream@@QAE@PAVQIODevice@@@Z 1000ed32 f   qt-mt323:qt-mt323.dll
 0001:0000dd38       ?open@QFile@@UAE_NH@Z      1000ed38 f   qt-mt323:qt-mt323.dll
 0001:0000dd3e       ?currentTime@QTime@@SA?AV1@XZ 1000ed3e f   qt-mt323:qt-mt323.dll
 0001:0000dd44       ??H@YA?BVQString@@ABV0@PBD@Z 1000ed44 f   qt-mt323:qt-mt323.dll
 0001:0000dd4a       ?dirName@QDir@@UBE?AVQString@@XZ 1000ed4a f   qt-mt323:qt-mt323.dll
 0001:0000dd50       ??0QDir@@QAE@ABVQString@@0HH@Z 1000ed50 f   qt-mt323:qt-mt323.dll
 0001:0000dd56       ??YQString@@QAEAAV0@PBD@Z  1000ed56 f   qt-mt323:qt-mt323.dll
 0001:0000dd5c       ?dirPath@QFileInfo@@QBE?AVQString@@_N@Z 1000ed5c f   qt-mt323:qt-mt323.dll
 0001:0000dd62       ??1QFileInfo@@QAE@XZ       1000ed62 f   qt-mt323:qt-mt323.dll
 0001:0000dd68       ??1QFile@@UAE@XZ           1000ed68 f   qt-mt323:qt-mt323.dll
 0001:0000dd6e       ?isFile@QFileInfo@@QBE_NXZ 1000ed6e f   qt-mt323:qt-mt323.dll
 0001:0000dd74       ??0QFile@@QAE@ABVQString@@@Z 1000ed74 f   qt-mt323:qt-mt323.dll
 0001:0000dd7a       ??0QFileInfo@@QAE@ABVQString@@@Z 1000ed7a f   qt-mt323:qt-mt323.dll
 0001:0000dd80       ??8@YA_NABVQString@@0@Z    1000ed80 f   qt-mt323:qt-mt323.dll
 0001:0000dd86       ?qDebug@@YAXPBDZZ          1000ed86 f   qt-mt323:qt-mt323.dll
 0001:0000dd8c       ?ascii@QString@@QBEPBDXZ   1000ed8c f   qt-mt323:qt-mt323.dll
 0001:0000dd92       ??YQString@@QAEAAV0@ABV0@@Z 1000ed92 f   qt-mt323:qt-mt323.dll
 0001:0000dd98       ?msec@QTime@@QBEHXZ        1000ed98 f   qt-mt323:qt-mt323.dll
 0001:0000dd9e       ?toString@QDateTime@@QBE?AVQString@@ABV2@@Z 1000ed9e f   qt-mt323:qt-mt323.dll
 0001:0000dda4       ?number@QString@@SA?AV1@HH@Z 1000eda4 f   qt-mt323:qt-mt323.dll
 0001:0000ddaa       ?currentDateTime@QDateTime@@SA?AV1@XZ 1000edaa f   qt-mt323:qt-mt323.dll
 0001:0000ddb0       ?toInt@QString@@QBEHPA_NH@Z 1000edb0 f   qt-mt323:qt-mt323.dll
 0001:0000ddb6       ?detachInternal@?$QValueList@VQString@@@@AAEXXZ 1000edb6 f   qt-mt323:qt-mt323.dll
 0001:0000ddbc       ?split@QStringList@@SA?AV1@ABVQChar@@ABVQString@@_N@Z 1000edbc f   qt-mt323:qt-mt323.dll
 0001:0000ddc2       ?remove@QString@@QAEAAV1@VQChar@@@Z 1000edc2 f   qt-mt323:qt-mt323.dll
 0001:0000ddc8       ??0?$QValueList@VQString@@@@QAE@XZ 1000edc8 f   qt-mt323:qt-mt323.dll
 0001:0000ddce       ?drivers@QSqlDatabase@@SA?AVQStringList@@XZ 1000edce f   qt-mt323:qt-mt323.dll
 0001:0000ddd4       ?section@QString@@QBE?AV1@PBDHHH@Z 1000edd4 f   qt-mt323:qt-mt323.dll
 0001:0000ddda       ?contains@QString@@QBEHPBD_N@Z 1000edda f   qt-mt323:qt-mt323.dll
 0001:0000dde0       ?elementsByTagNameNS@QDomElement@@UBE?AVQDomNodeList@@ABVQString@@0@Z 1000ede0 f   qt-mt323:qt-mt323.dll
 0001:0000dde6       ?elementsByTagName@QDomElement@@UBE?AVQDomNodeList@@ABVQString@@@Z 1000ede6 f   qt-mt323:qt-mt323.dll
 0001:0000ddec       ?isComment@QDomNode@@UBE_NXZ 1000edec f   qt-mt323:qt-mt323.dll
 0001:0000ddf2       ?isCharacterData@QDomNode@@UBE_NXZ 1000edf2 f   qt-mt323:qt-mt323.dll
 0001:0000ddf8       ?isProcessingInstruction@QDomNode@@UBE_NXZ 1000edf8 f   qt-mt323:qt-mt323.dll
 0001:0000ddfe       ?isNotation@QDomNode@@UBE_NXZ 1000edfe f   qt-mt323:qt-mt323.dll
 0001:0000de04       ?isEntity@QDomNode@@UBE_NXZ 1000ee04 f   qt-mt323:qt-mt323.dll
 0001:0000de0a       ?isText@QDomNode@@UBE_NXZ  1000ee0a f   qt-mt323:qt-mt323.dll
 0001:0000de10       ?isEntityReference@QDomNode@@UBE_NXZ 1000ee10 f   qt-mt323:qt-mt323.dll
 0001:0000de16       ?isElement@QDomElement@@UBE_NXZ 1000ee16 f   qt-mt323:qt-mt323.dll
 0001:0000de1c       ?isDocumentType@QDomNode@@UBE_NXZ 1000ee1c f   qt-mt323:qt-mt323.dll
 0001:0000de22       ?isDocument@QDomNode@@UBE_NXZ 1000ee22 f   qt-mt323:qt-mt323.dll
 0001:0000de28       ?isDocumentFragment@QDomNode@@UBE_NXZ 1000ee28 f   qt-mt323:qt-mt323.dll
 0001:0000de2e       ?isCDATASection@QDomNode@@UBE_NXZ 1000ee2e f   qt-mt323:qt-mt323.dll
 0001:0000de34       ?isAttr@QDomNode@@UBE_NXZ  1000ee34 f   qt-mt323:qt-mt323.dll
 0001:0000de3a       ?setPrefix@QDomNode@@UAEXABVQString@@@Z 1000ee3a f   qt-mt323:qt-mt323.dll
 0001:0000de40       ?prefix@QDomNode@@UBE?AVQString@@XZ 1000ee40 f   qt-mt323:qt-mt323.dll
 0001:0000de46       ?setNodeValue@QDomNode@@UAEXABVQString@@@Z 1000ee46 f   qt-mt323:qt-mt323.dll
 0001:0000de4c       ?nodeValue@QDomNode@@UBE?AVQString@@XZ 1000ee4c f   qt-mt323:qt-mt323.dll
 0001:0000de52       ?hasAttributes@QDomNode@@UBE_NXZ 1000ee52 f   qt-mt323:qt-mt323.dll
 0001:0000de58       ?localName@QDomNode@@UBE?AVQString@@XZ 1000ee58 f   qt-mt323:qt-mt323.dll
 0001:0000de5e       ?namespaceURI@QDomNode@@UBE?AVQString@@XZ 1000ee5e f   qt-mt323:qt-mt323.dll
 0001:0000de64       ?ownerDocument@QDomNode@@UBE?AVQDomDocument@@XZ 1000ee64 f   qt-mt323:qt-mt323.dll
 0001:0000de6a       ?attributes@QDomElement@@UBE?AVQDomNamedNodeMap@@XZ 1000ee6a f   qt-mt323:qt-mt323.dll
 0001:0000de70       ?nextSibling@QDomNode@@UBE?AV1@XZ 1000ee70 f   qt-mt323:qt-mt323.dll
 0001:0000de76       ?previousSibling@QDomNode@@UBE?AV1@XZ 1000ee76 f   qt-mt323:qt-mt323.dll
 0001:0000de7c       ?lastChild@QDomNode@@UBE?AV1@XZ 1000ee7c f   qt-mt323:qt-mt323.dll
 0001:0000de82       ?firstChild@QDomNode@@UBE?AV1@XZ 1000ee82 f   qt-mt323:qt-mt323.dll
 0001:0000de88       ?childNodes@QDomNode@@UBE?AVQDomNodeList@@XZ 1000ee88 f   qt-mt323:qt-mt323.dll
 0001:0000de8e       ?parentNode@QDomNode@@UBE?AV1@XZ 1000ee8e f   qt-mt323:qt-mt323.dll
 0001:0000de94       ?nodeType@QDomElement@@UBE?AW4NodeType@QDomNode@@XZ 1000ee94 f   qt-mt323:qt-mt323.dll
 0001:0000de9a       ?nodeName@QDomNode@@UBE?AVQString@@XZ 1000ee9a f   qt-mt323:qt-mt323.dll
 0001:0000dea0       ?isSupported@QDomNode@@UBE_NABVQString@@0@Z 1000eea0 f   qt-mt323:qt-mt323.dll
 0001:0000dea6       ?normalize@QDomNode@@UAEXXZ 1000eea6 f   qt-mt323:qt-mt323.dll
 0001:0000deac       ?cloneNode@QDomNode@@UBE?AV1@_N@Z 1000eeac f   qt-mt323:qt-mt323.dll
 0001:0000deb2       ?hasChildNodes@QDomNode@@UBE_NXZ 1000eeb2 f   qt-mt323:qt-mt323.dll
 0001:0000deb8       ?appendChild@QDomNode@@UAE?AV1@ABV1@@Z 1000eeb8 f   qt-mt323:qt-mt323.dll
 0001:0000debe       ?removeChild@QDomNode@@UAE?AV1@ABV1@@Z 1000eebe f   qt-mt323:qt-mt323.dll
 0001:0000dec4       ?replaceChild@QDomNode@@UAE?AV1@ABV1@0@Z 1000eec4 f   qt-mt323:qt-mt323.dll
 0001:0000deca       ?insertAfter@QDomNode@@UAE?AV1@ABV1@0@Z 1000eeca f   qt-mt323:qt-mt323.dll
 0001:0000ded0       ?insertBefore@QDomNode@@UAE?AV1@ABV1@0@Z 1000eed0 f   qt-mt323:qt-mt323.dll
 0001:0000ded6       ?write@QGDict@@MBEAAVQDataStream@@AAV2@PAX@Z 1000eed6 f   qt-mt323:qt-mt323.dll
 0001:0000dedc       ?read@QGDict@@MAEAAVQDataStream@@AAV2@AAPAX@Z 1000eedc f   qt-mt323:qt-mt323.dll
 0001:0000dee2       ?newItem@QPtrCollection@@MAEPAXPAX@Z 1000eee2 f   qt-mt323:qt-mt323.dll
 0001:0000dee8       ??1QDomNode@@UAE@XZ        1000eee8 f   qt-mt323:qt-mt323.dll
 0001:0000deee       ??4QDomNode@@QAEAAV0@ABV0@@Z 1000eeee f   qt-mt323:qt-mt323.dll
 0001:0000def4       ?look_string@QGDict@@QAEPAXABVQString@@PAXH@Z 1000eef4 f   qt-mt323:qt-mt323.dll
 0001:0000defa       ?mid@QString@@QBE?AV1@II@Z 1000eefa f   qt-mt323:qt-mt323.dll
 0001:0000df00       ?left@QString@@QBE?AV1@I@Z 1000ef00 f   qt-mt323:qt-mt323.dll
 0001:0000df06       ?find@QString@@QBEHVQChar@@H_N@Z 1000ef06 f   qt-mt323:qt-mt323.dll
 0001:0000df0c       ??0QChar@@QAE@D@Z          1000ef0c f   qt-mt323:qt-mt323.dll
 0001:0000df12       ??1QDomElement@@UAE@XZ     1000ef12 f   qt-mt323:qt-mt323.dll
 0001:0000df18       ?toElement@QDomNode@@QAE?AVQDomElement@@XZ 1000ef18 f   qt-mt323:qt-mt323.dll
 0001:0000df1e       ?attribute@QDomElement@@QBE?AVQString@@ABV2@0@Z 1000ef1e f   qt-mt323:qt-mt323.dll
 0001:0000df24       ?isNull@QDomNode@@QBE_NXZ  1000ef24 f   qt-mt323:qt-mt323.dll
 0001:0000df2a       ??1QDomDocument@@UAE@XZ    1000ef2a f   qt-mt323:qt-mt323.dll
 0001:0000df30       ?tagName@QDomElement@@QBE?AVQString@@XZ 1000ef30 f   qt-mt323:qt-mt323.dll
 0001:0000df36       ?documentElement@QDomDocument@@QBE?AVQDomElement@@XZ 1000ef36 f   qt-mt323:qt-mt323.dll
 0001:0000df3c       ?close@QFile@@UAEXXZ       1000ef3c f   qt-mt323:qt-mt323.dll
 0001:0000df42       ?setContent@QDomDocument@@QAE_NPAVQIODevice@@PAVQString@@PAH2@Z 1000ef42 f   qt-mt323:qt-mt323.dll
 0001:0000df48       ??0QDomDocument@@QAE@XZ    1000ef48 f   qt-mt323:qt-mt323.dll
 0001:0000df4e       ??0QGDict@@IAE@IW4KeyType@0@_N1@Z 1000ef4e f   qt-mt323:qt-mt323.dll
 0001:0000df54       ?arg@QString@@QBE?AV1@HHH@Z 1000ef54 f   qt-mt323:qt-mt323.dll
 0001:0000df5a       ?clear@QGDict@@MAEXXZ      1000ef5a f   qt-mt323:qt-mt323.dll
 0001:0000df60       ??1?$QMemArray@VQPoint@@@@UAE@XZ 1000ef60 f   qt-mt323:qt-mt323.dll
 0001:0000df66       ??1?$QPtrList@VQObject@@@@UAE@XZ 1000ef66 f   qt-mt323:qt-mt323.dll
 0001:0000df6c       ??1?$QPtrList@VQWidget@@@@UAE@XZ 1000ef6c f   qt-mt323:qt-mt323.dll
 0001:0000df72       ??1QGDict@@MAE@XZ          1000ef72 f   qt-mt323:qt-mt323.dll
 0001:0000df78       ?qWarning@@YAXPBDZZ        1000ef78 f   qt-mt323:qt-mt323.dll
 0001:0000df7e       ??1QMutex@@UAE@XZ          1000ef7e f   qt-mt323:qt-mt323.dll
 0001:0000df84       ??1QDataStream@@UAE@XZ     1000ef84 f   qt-mt323:qt-mt323.dll
 0001:0000df8a       ??H@YA?BVQString@@ABV0@D@Z 1000ef8a f   qt-mt323:qt-mt323.dll
 0001:0000df90       ?arg@QString@@QBE?AV1@ABV1@H@Z 1000ef90 f   qt-mt323:qt-mt323.dll
 0001:0000df96       ?mkdir@QDir@@UBE_NABVQString@@_N@Z 1000ef96 f   qt-mt323:qt-mt323.dll
 0001:0000df9c       ?exists@QDir@@UBE_NXZ      1000ef9c f   qt-mt323:qt-mt323.dll
 0001:0000dfa2       ??0QMutex@@QAE@_N@Z        1000efa2 f   qt-mt323:qt-mt323.dll
 0001:0000dfa8       ??0QDataStream@@QAE@XZ     1000efa8 f   qt-mt323:qt-mt323.dll
 0001:0000dfae       ??1QMutexLocker@@QAE@XZ    1000efae f   qt-mt323:qt-mt323.dll
 0001:0000dfb4       ?unlock@QMutex@@QAEXXZ     1000efb4 f   qt-mt323:qt-mt323.dll
 0001:0000dfba       ?lock@QMutex@@QAEXXZ       1000efba f   qt-mt323:qt-mt323.dll
 0001:0000dfc0       ?exists@QFile@@QBE_NXZ     1000efc0 f   qt-mt323:qt-mt323.dll
 0001:0000dfc6       ?remove@QFile@@QAE_NXZ     1000efc6 f   qt-mt323:qt-mt323.dll
 0001:0000dfcc       ?ungetch@QFile@@UAEHH@Z    1000efcc f   qt-mt323:qt-mt323.dll
 0001:0000dfd2       ?putch@QFile@@UAEHH@Z      1000efd2 f   qt-mt323:qt-mt323.dll
 0001:0000dfd8       ?getch@QFile@@UAEHXZ       1000efd8 f   qt-mt323:qt-mt323.dll
 0001:0000dfde       ?readAll@QIODevice@@UAE?AV?$QMemArray@D@@XZ 1000efde f   qt-mt323:qt-mt323.dll
 0001:0000dfe4       ?readLine@QFile@@UAEJPADK@Z 1000efe4 f   qt-mt323:qt-mt323.dll
 0001:0000dfea       ?writeBlock@QFile@@UAEJPBDK@Z 1000efea f   qt-mt323:qt-mt323.dll
 0001:0000dff0       ?readBlock@QFile@@UAEJPADK@Z 1000eff0 f   qt-mt323:qt-mt323.dll
 0001:0000dff6       ?atEnd@QFile@@UBE_NXZ      1000eff6 f   qt-mt323:qt-mt323.dll
 0001:0000dffc       ?at@QFile@@UBEKXZ          1000effc f   qt-mt323:qt-mt323.dll
 0001:0000e002       ?at@QFile@@UAE_NK@Z        1000f002 f   qt-mt323:qt-mt323.dll
 0001:0000e008       ?size@QFile@@UBEKXZ        1000f008 f   qt-mt323:qt-mt323.dll
 0001:0000e00e       ?flush@QFile@@UAEXXZ       1000f00e f   qt-mt323:qt-mt323.dll
 0001:0000e014       ?setDevice@QDataStream@@QAEXPAVQIODevice@@@Z 1000f014 f   qt-mt323:qt-mt323.dll
 0001:0000e01a       ?replace@QString@@QAEAAV1@ABV1@0@Z 1000f01a f   qt-mt323:qt-mt323.dll
 0001:0000e020       ?compareItems@QGList@@MAEHPAX0@Z 1000f020 f   qt-mt323:qt-mt323.dll
 0001:0000e026       ?write@QGList@@MBEAAVQDataStream@@AAV2@PAX@Z 1000f026 f   qt-mt323:qt-mt323.dll
 0001:0000e02c       ?read@QGList@@MAEAAVQDataStream@@AAV2@AAPAX@Z 1000f02c f   qt-mt323:qt-mt323.dll
 0001:0000e032       ??1QWaitCondition@@UAE@XZ  1000f032 f   qt-mt323:qt-mt323.dll
 0001:0000e038       ??1QThread@@UAE@XZ         1000f038 f   qt-mt323:qt-mt323.dll
 0001:0000e03e       ??0QGList@@IAE@XZ          1000f03e f   qt-mt323:qt-mt323.dll
 0001:0000e044       ??0QSemaphore@@QAE@H@Z     1000f044 f   qt-mt323:qt-mt323.dll
 0001:0000e04a       ?finished@QThread@@QBE_NXZ 1000f04a f   qt-mt323:qt-mt323.dll
 0001:0000e050       ?running@QThread@@QBE_NXZ  1000f050 f   qt-mt323:qt-mt323.dll
 0001:0000e056       ??0QWaitCondition@@QAE@XZ  1000f056 f   qt-mt323:qt-mt323.dll
 0001:0000e05c       ??0QThread@@QAE@XZ         1000f05c f   qt-mt323:qt-mt323.dll
 0001:0000e062       ??1QSemaphore@@UAE@XZ      1000f062 f   qt-mt323:qt-mt323.dll
 0001:0000e068       ??FQSemaphore@@QAEHH@Z     1000f068 f   qt-mt323:qt-mt323.dll
 0001:0000e06e       ?remove@QGList@@IAE_NPAX@Z 1000f06e f   qt-mt323:qt-mt323.dll
 0001:0000e074       ?first@QGList@@IAEPAXXZ    1000f074 f   qt-mt323:qt-mt323.dll
 0001:0000e07a       ??EQSemaphore@@QAEHH@Z     1000f07a f   qt-mt323:qt-mt323.dll
 0001:0000e080       ?arg@QString@@QBE?AV1@IHH@Z 1000f080 f   qt-mt323:qt-mt323.dll
 0001:0000e086       ?terminate@QThread@@QAEXXZ 1000f086 f   qt-mt323:qt-mt323.dll
 0001:0000e08c       ?wait@QThread@@QAE_NK@Z    1000f08c f   qt-mt323:qt-mt323.dll
 0001:0000e092       ?wakeOne@QWaitCondition@@QAEXXZ 1000f092 f   qt-mt323:qt-mt323.dll
 0001:0000e098       ?available@QSemaphore@@QBEHXZ 1000f098 f   qt-mt323:qt-mt323.dll
 0001:0000e09e       ?wait@QWaitCondition@@QAE_NK@Z 1000f09e f   qt-mt323:qt-mt323.dll
 0001:0000e0a4       ?start@QThread@@QAEXXZ     1000f0a4 f   qt-mt323:qt-mt323.dll
 0001:0000e0aa       ??H@YA?BVQString@@ABV0@0@Z 1000f0aa f   qt-mt323:qt-mt323.dll
 0001:0000e0b0       ?append@QGList@@IAEXPAX@Z  1000f0b0 f   qt-mt323:qt-mt323.dll
 0001:0000e0b6       ?databaseText@QSqlError@@QBE?AVQString@@XZ 1000f0b6 f   qt-mt323:qt-mt323.dll
 0001:0000e0bc       ?driverText@QSqlError@@QBE?AVQString@@XZ 1000f0bc f   qt-mt323:qt-mt323.dll
 0001:0000e0c2       ?type@QSqlError@@QBEHXZ    1000f0c2 f   qt-mt323:qt-mt323.dll
 0001:0000e0c8       ?secsTo@QTime@@QBEHABV1@@Z 1000f0c8 f   qt-mt323:qt-mt323.dll
 0001:0000e0ce       ?isOpen@QSqlDatabase@@QBE_NXZ 1000f0ce f   qt-mt323:qt-mt323.dll
 0001:0000e0d4       ??1QSqlError@@UAE@XZ       1000f0d4 f   qt-mt323:qt-mt323.dll
 0001:0000e0da       ?lastError@QSqlDatabase@@QBE?AVQSqlError@@XZ 1000f0da f   qt-mt323:qt-mt323.dll
 0001:0000e0e0       ?open@QSqlDatabase@@QAE_NXZ 1000f0e0 f   qt-mt323:qt-mt323.dll
 0001:0000e0e6       ?addDatabase@QSqlDatabase@@SAPAV1@ABVQString@@0@Z 1000f0e6 f   qt-mt323:qt-mt323.dll
 0001:0000e0ec       ?libraryPaths@QApplication@@SA?AVQStringList@@XZ 1000f0ec f   qt-mt323:qt-mt323.dll
 0001:0000e0f2       ?clear@QGList@@MAEXXZ      1000f0f2 f   qt-mt323:qt-mt323.dll
 0001:0000e0f8       ??1QGList@@MAE@XZ          1000f0f8 f   qt-mt323:qt-mt323.dll
 0001:0000e0fe       ??6QDataStream@@QAEAAV0@H@Z 1000f0fe f   qt-mt323:qt-mt323.dll
 0001:0000e104       ??6@YAAAVQDataStream@@AAV0@ABVQString@@@Z 1000f104 f   qt-mt323:qt-mt323.dll
 0001:0000e10a       ??5@YAAAVQDataStream@@AAV0@AAVQString@@@Z 1000f10a f   qt-mt323:qt-mt323.dll
 0001:0000e110       ??5QDataStream@@QAEAAV0@AAH@Z 1000f110 f   qt-mt323:qt-mt323.dll
 0001:0000e116       ??1QSqlQuery@@UAE@XZ       1000f116 f   qt-mt323:qt-mt323.dll
 0001:0000e11c       ?close@QSqlDatabase@@QAEXXZ 1000f11c f   qt-mt323:qt-mt323.dll
 0001:0000e122       ?lastError@QSqlQuery@@QBE?AVQSqlError@@XZ 1000f122 f   qt-mt323:qt-mt323.dll
 0001:0000e128       ?exec@QSqlQuery@@UAE_NABVQString@@@Z 1000f128 f   qt-mt323:qt-mt323.dll
 0001:0000e12e       ?numRowsAffected@QSqlQuery@@QBEHXZ 1000f12e f   qt-mt323:qt-mt323.dll
 0001:0000e134       ??0QSqlQuery@@QAE@ABVQString@@PAVQSqlDatabase@@@Z 1000f134 f   qt-mt323:qt-mt323.dll
 0001:0000e13a       ??1QRegExp@@QAE@XZ         1000f13a f   qt-mt323:qt-mt323.dll
 0001:0000e140       ?search@QRegExp@@QBEHABVQString@@H@Z 1000f140 f   qt-mt323:qt-mt323.dll
 0001:0000e146       ??0QRegExp@@QAE@ABVQString@@_N1@Z 1000f146 f   qt-mt323:qt-mt323.dll
 0001:0000e14c       ??YQString@@QAEAAV0@VQChar@@@Z 1000f14c f   qt-mt323:qt-mt323.dll
 0001:0000e152       ?readRawBytes@QDataStream@@QAEAAV1@PADI@Z 1000f152 f   qt-mt323:qt-mt323.dll
 0001:0000e158       ??3@YAXPAX@Z               1000f158 f   libcpmt:delop.obj
 0001:0000e1ec       ??_D?$basic_istream@DU?$char_traits@D@std@@@std@@QAEXXZ 1000f1ec f i libcpmt:iostream.obj
 0001:0000e230       ??_D?$basic_ostream@DU?$char_traits@D@std@@@std@@QAEXXZ 1000f230 f i libcpmt:iostream.obj
 0001:0000e2d0       ??0Init@ios_base@std@@QAE@XZ 1000f2d0 f   libcpmt:iostream.obj
 0001:0000e44f       ??3@YAXPAX0@Z              1000f44f f i libcpmt:iostream.obj
 0001:0000e450       ??1Init@ios_base@std@@QAE@XZ 1000f450 f   libcpmt:iostream.obj
 0001:0000e493       ??0?$basic_ostream@DU?$char_traits@D@std@@@std@@QAE@PAV?$basic_streambuf@DU?$char_traits@D@std@@@1@_N1@Z 1000f493 f i libcpmt:iostream.obj
 0001:0000e4fd       ??0?$basic_ostream@DU?$char_traits@D@std@@@std@@QAE@W4_Uninitialized@1@@Z 1000f4fd f i libcpmt:iostream.obj
 0001:0000e55c       ?flush@?$basic_ostream@DU?$char_traits@D@std@@@std@@QAEAAV12@XZ 1000f55c f i libcpmt:iostream.obj
 0001:0000e5a6       ??1?$basic_ios@DU?$char_traits@D@std@@@std@@UAE@XZ 1000f5a6 f i libcpmt:iostream.obj
 0001:0000e5b1       ??0?$basic_istream@DU?$char_traits@D@std@@@std@@QAE@PAV?$basic_streambuf@DU?$char_traits@D@std@@@1@_N@Z 1000f5b1 f i libcpmt:iostream.obj
 0001:0000e619       ??0?$basic_istream@DU?$char_traits@D@std@@@std@@QAE@W4_Uninitialized@1@@Z 1000f619 f i libcpmt:iostream.obj
 0001:0000e678       ??0?$basic_filebuf@DU?$char_traits@D@std@@@std@@QAE@PAU_iobuf@@@Z 1000f678 f i libcpmt:iostream.obj
 0001:0000e6d8       ??0locale@std@@QAE@XZ      1000f6d8 f i libcpmt:iostream.obj
 0001:0000e706       ?_Incref@facet@locale@std@@QAEXXZ 1000f706 f i libcpmt:iostream.obj
 0001:0000e72c       ??1locale@std@@QAE@XZ      1000f72c f i libcpmt:iostream.obj
 0001:0000e744       ?_Decref@facet@locale@std@@QAEPAV123@XZ 1000f744 f i libcpmt:iostream.obj
 0001:0000e77d       ??1?$basic_streambuf@DU?$char_traits@D@std@@@std@@UAE@XZ 1000f77d f i libcpmt:iostream.obj
 0001:0000e78b       ?overflow@?$basic_streambuf@DU?$char_traits@D@std@@@std@@MAEHH@Z 1000f78b f i libcpmt:iostream.obj
 0001:0000e791       ?pbackfail@?$basic_streambuf@DU?$char_traits@D@std@@@std@@MAEHH@Z 1000f791 f i libcpmt:iostream.obj
 0001:0000e797       ?showmanyc@?$basic_streambuf@DU?$char_traits@D@std@@@std@@MAEHXZ 1000f797 f i libcpmt:iostream.obj
 0001:0000e79a       ?underflow@?$basic_streambuf@DU?$char_traits@D@std@@@std@@MAEHXZ 1000f79a f i libcpmt:iostream.obj
 0001:0000e79e       ?uflow@?$basic_streambuf@DU?$char_traits@D@std@@@std@@MAEHXZ 1000f79e f i libcpmt:iostream.obj
 0001:0000e7bb       ?xsgetn@?$basic_streambuf@DU?$char_traits@D@std@@@std@@MAEHPADH@Z 1000f7bb f i libcpmt:iostream.obj
 0001:0000e82f       ?xsputn@?$basic_streambuf@DU?$char_traits@D@std@@@std@@MAEHPBDH@Z 1000f82f f i libcpmt:iostream.obj
 0001:0000e8a5       ?seekoff@?$basic_streambuf@DU?$char_traits@D@std@@@std@@MAE?AV?$fpos@H@2@JW4seekdir@ios_base@2@H@Z 1000f8a5 f i libcpmt:iostream.obj
 0001:0000e8c9       ?seekpos@?$basic_streambuf@DU?$char_traits@D@std@@@std@@MAE?AV?$fpos@H@2@V32@H@Z 1000f8c9 f i libcpmt:iostream.obj
 0001:0000e8ed       ?setbuf@?$basic_streambuf@DU?$char_traits@D@std@@@std@@MAEPAV12@PADH@Z 1000f8ed f i libcpmt:iostream.obj
 0001:0000e8f2       ?sync@?$basic_streambuf@DU?$char_traits@D@std@@@std@@MAEHXZ 1000f8f2 f i libcpmt:iostream.obj
 0001:0000e8f5       ?imbue@?$basic_streambuf@DU?$char_traits@D@std@@@std@@MAEXABVlocale@2@@Z 1000f8f5 f i libcpmt:iostream.obj
 0001:0000e8f8       ??0?$basic_filebuf@DU?$char_traits@D@std@@@std@@QAE@W4_Uninitialized@1@@Z 1000f8f8 f i libcpmt:iostream.obj
 0001:0000e903       ??1?$basic_filebuf@DU?$char_traits@D@std@@@std@@UAE@XZ 1000f903 f i libcpmt:iostream.obj
 0001:0000e968       ?overflow@?$basic_filebuf@DU?$char_traits@D@std@@@std@@MAEHH@Z 1000f968 f i libcpmt:iostream.obj
 0001:0000ea9e       ?pbackfail@?$basic_filebuf@DU?$char_traits@D@std@@@std@@MAEHH@Z 1000fa9e f i libcpmt:iostream.obj
 0001:0000eb4b       ?underflow@?$basic_filebuf@DU?$char_traits@D@std@@@std@@MAEHXZ 1000fb4b f i libcpmt:iostream.obj
 0001:0000eb78       ?uflow@?$basic_filebuf@DU?$char_traits@D@std@@@std@@MAEHXZ 1000fb78 f i libcpmt:iostream.obj
 0001:0000ec8d       ?seekoff@?$basic_filebuf@DU?$char_traits@D@std@@@std@@MAE?AV?$fpos@H@2@JW4seekdir@ios_base@2@H@Z 1000fc8d f i libcpmt:iostream.obj
 0001:0000ecfc       ?seekpos@?$basic_filebuf@DU?$char_traits@D@std@@@std@@MAE?AV?$fpos@H@2@V32@H@Z 1000fcfc f i libcpmt:iostream.obj
 0001:0000edab       ?setbuf@?$basic_filebuf@DU?$char_traits@D@std@@@std@@MAEPAV?$basic_streambuf@DU?$char_traits@D@std@@@2@PADH@Z 1000fdab f i libcpmt:iostream.obj
 0001:0000edd6       ?sync@?$basic_filebuf@DU?$char_traits@D@std@@@std@@MAEHXZ 1000fdd6 f i libcpmt:iostream.obj
 0001:0000edef       ??_E?$basic_ostream@DU?$char_traits@D@std@@@std@@UAEPAXI@Z 1000fdef f i libcpmt:iostream.obj
 0001:0000edef       ??_G?$basic_ostream@DU?$char_traits@D@std@@@std@@UAEPAXI@Z 1000fdef f i libcpmt:iostream.obj
 0001:0000ee0e       ??_G?$basic_ios@DU?$char_traits@D@std@@@std@@UAEPAXI@Z 1000fe0e f i libcpmt:iostream.obj
 0001:0000ee0e       ??_E?$basic_ios@DU?$char_traits@D@std@@@std@@UAEPAXI@Z 1000fe0e f i libcpmt:iostream.obj
 0001:0000ee2a       ??_G?$basic_istream@DU?$char_traits@D@std@@@std@@UAEPAXI@Z 1000fe2a f i libcpmt:iostream.obj
 0001:0000ee2a       ??_E?$basic_istream@DU?$char_traits@D@std@@@std@@UAEPAXI@Z 1000fe2a f i libcpmt:iostream.obj
 0001:0000ee49       ??_E?$basic_streambuf@DU?$char_traits@D@std@@@std@@UAEPAXI@Z 1000fe49 f i libcpmt:iostream.obj
 0001:0000ee49       ??_G?$basic_streambuf@DU?$char_traits@D@std@@@std@@UAEPAXI@Z 1000fe49 f i libcpmt:iostream.obj
 0001:0000ee65       ??_E?$basic_filebuf@DU?$char_traits@D@std@@@std@@UAEPAXI@Z 1000fe65 f i libcpmt:iostream.obj
 0001:0000ee65       ??_G?$basic_filebuf@DU?$char_traits@D@std@@@std@@UAEPAXI@Z 1000fe65 f i libcpmt:iostream.obj
 0001:0000ee81       ?append@?$basic_string@DU?$char_traits@D@std@@V?$allocator@D@2@@std@@QAEAAV12@ID@Z 1000fe81 f i libcpmt:iostream.obj
 0001:0000eeda       ?erase@?$basic_string@DU?$char_traits@D@std@@V?$allocator@D@2@@std@@QAEAAV12@II@Z 1000feda f i libcpmt:iostream.obj
 0001:0000ef41       ?_Tidy@?$basic_string@DU?$char_traits@D@std@@V?$allocator@D@2@@std@@AAEX_N@Z 1000ff41 f i libcpmt:iostream.obj
 0001:0000ef7d       ?init@?$basic_ios@DU?$char_traits@D@std@@@std@@IAEXPAV?$basic_streambuf@DU?$char_traits@D@std@@@2@_N@Z 1000ff7d f i libcpmt:iostream.obj
 0001:0000efbd       ??0?$fpos@H@std@@QAE@J@Z   1000ffbd f i libcpmt:iostream.obj
 0001:0000eff7       ?_Gndec@?$basic_streambuf@DU?$char_traits@D@std@@@std@@IAEPADXZ 1000fff7 f i libcpmt:iostream.obj
 0001:0000f007       ?_Gninc@?$basic_streambuf@DU?$char_traits@D@std@@@std@@IAEPADXZ 10010007 f i libcpmt:iostream.obj
 0001:0000f017       ?_Pninc@?$basic_streambuf@DU?$char_traits@D@std@@@std@@IAEPADXZ 10010017 f i libcpmt:iostream.obj
 0001:0000f027       ?close@?$basic_filebuf@DU?$char_traits@D@std@@@std@@QAEPAV12@XZ 10010027 f i libcpmt:iostream.obj
 0001:0000f04e       ?_Init@?$basic_filebuf@DU?$char_traits@D@std@@@std@@IAEXPAU_iobuf@@W4_Initfl@12@@Z 1001004e f i libcpmt:iostream.obj
 0001:0000f0c6       ?_Freeze@?$basic_string@DU?$char_traits@D@std@@V?$allocator@D@2@@std@@AAEXXZ 100100c6 f i libcpmt:iostream.obj
 0001:0000f0f2       ?_Grow@?$basic_string@DU?$char_traits@D@std@@V?$allocator@D@2@@std@@AAE_NI_N@Z 100100f2 f i libcpmt:iostream.obj
 0001:0000f177       ?_Split@?$basic_string@DU?$char_traits@D@std@@V?$allocator@D@2@@std@@AAEXXZ 10010177 f i libcpmt:iostream.obj
 0001:0000f1a7       ?assign@?$basic_string@DU?$char_traits@D@std@@V?$allocator@D@2@@std@@QAEAAV12@PBDI@Z 100101a7 f i libcpmt:iostream.obj
 0001:0000f1dc       ?_Init@?$basic_streambuf@DU?$char_traits@D@std@@@std@@IAEXXZ 100101dc f i libcpmt:iostream.obj
 0001:0000f21e       ?_Copy@?$basic_string@DU?$char_traits@D@std@@V?$allocator@D@2@@std@@AAEXI@Z 1001021e f i libcpmt:iostream.obj
 0001:0000f2db       ?_Ungetc@std@@YA_NABDPAU_iobuf@@I@Z 100102db f i libcpmt:iostream.obj
 0001:0000f36a       ?id@?$collate@D@std@@$E    1001036a f i libcpmt:iostream.obj
 0001:0000f475       ??_D?$basic_istream@GU?$char_traits@G@std@@@std@@QAEXXZ 10010475 f i libcpmt:wiostrea.obj
 0001:0000f4b9       ??_D?$basic_ostream@GU?$char_traits@G@std@@@std@@QAEXXZ 100104b9 f i libcpmt:wiostrea.obj
 0001:0000f52c       ??0_Winit@std@@QAE@XZ      1001052c f   libcpmt:wiostrea.obj
 0001:0000f6ad       ??1_Winit@std@@QAE@XZ      100106ad f   libcpmt:wiostrea.obj
 0001:0000f6f0       ??0?$basic_ostream@GU?$char_traits@G@std@@@std@@QAE@PAV?$basic_streambuf@GU?$char_traits@G@std@@@1@_N1@Z 100106f0 f i libcpmt:wiostrea.obj
 0001:0000f75a       ??0?$basic_ostream@GU?$char_traits@G@std@@@std@@QAE@W4_Uninitialized@1@@Z 1001075a f i libcpmt:wiostrea.obj
 0001:0000f7b9       ?flush@?$basic_ostream@GU?$char_traits@G@std@@@std@@QAEAAV12@XZ 100107b9 f i libcpmt:wiostrea.obj
 0001:0000f803       ??1?$basic_ios@GU?$char_traits@G@std@@@std@@UAE@XZ 10010803 f i libcpmt:wiostrea.obj
 0001:0000f80e       ??0?$basic_istream@GU?$char_traits@G@std@@@std@@QAE@PAV?$basic_streambuf@GU?$char_traits@G@std@@@1@_N@Z 1001080e f i libcpmt:wiostrea.obj
 0001:0000f876       ??0?$basic_istream@GU?$char_traits@G@std@@@std@@QAE@W4_Uninitialized@1@@Z 10010876 f i libcpmt:wiostrea.obj
 0001:0000f8d5       ??0?$basic_filebuf@GU?$char_traits@G@std@@@std@@QAE@PAU_iobuf@@@Z 100108d5 f i libcpmt:wiostrea.obj
 0001:0000f935       ??1?$basic_streambuf@GU?$char_traits@G@std@@@std@@UAE@XZ 10010935 f i libcpmt:wiostrea.obj
 0001:0000f943       ?overflow@?$basic_streambuf@GU?$char_traits@G@std@@@std@@MAEGG@Z 10010943 f i libcpmt:wiostrea.obj
 0001:0000f94a       ?pbackfail@?$basic_streambuf@GU?$char_traits@G@std@@@std@@MAEGG@Z 1001094a f i libcpmt:wiostrea.obj
 0001:0000f951       ?showmanyc@?$basic_streambuf@GU?$char_traits@G@std@@@std@@MAEHXZ 10010951 f i libcpmt:wiostrea.obj
 0001:0000f954       ?underflow@?$basic_streambuf@GU?$char_traits@G@std@@@std@@MAEGXZ 10010954 f i libcpmt:wiostrea.obj
 0001:0000f959       ?uflow@?$basic_streambuf@GU?$char_traits@G@std@@@std@@MAEGXZ 10010959 f i libcpmt:wiostrea.obj
 0001:0000f97a       ?xsgetn@?$basic_streambuf@GU?$char_traits@G@std@@@std@@MAEHPAGH@Z 1001097a f i libcpmt:wiostrea.obj
 0001:0000fa01       ?xsputn@?$basic_streambuf@GU?$char_traits@G@std@@@std@@MAEHPBGH@Z 10010a01 f i libcpmt:wiostrea.obj
 0001:0000fa89       ?seekoff@?$basic_streambuf@GU?$char_traits@G@std@@@std@@MAE?AV?$fpos@H@2@JW4seekdir@ios_base@2@H@Z 10010a89 f i libcpmt:wiostrea.obj
 0001:0000faad       ?seekpos@?$basic_streambuf@GU?$char_traits@G@std@@@std@@MAE?AV?$fpos@H@2@V32@H@Z 10010aad f i libcpmt:wiostrea.obj
 0001:0000fad1       ?setbuf@?$basic_streambuf@GU?$char_traits@G@std@@@std@@MAEPAV12@PAGH@Z 10010ad1 f i libcpmt:wiostrea.obj
 0001:0000fad6       ?sync@?$basic_streambuf@GU?$char_traits@G@std@@@std@@MAEHXZ 10010ad6 f i libcpmt:wiostrea.obj
 0001:0000fad9       ?imbue@?$basic_streambuf@GU?$char_traits@G@std@@@std@@MAEXABVlocale@2@@Z 10010ad9 f i libcpmt:wiostrea.obj
 0001:0000fadc       ??0?$basic_filebuf@GU?$char_traits@G@std@@@std@@QAE@W4_Uninitialized@1@@Z 10010adc f i libcpmt:wiostrea.obj
 0001:0000fae7       ??1?$basic_filebuf@GU?$char_traits@G@std@@@std@@UAE@XZ 10010ae7 f i libcpmt:wiostrea.obj
 0001:0000fb4c       ?overflow@?$basic_filebuf@GU?$char_traits@G@std@@@std@@MAEGG@Z 10010b4c f i libcpmt:wiostrea.obj
 0001:0000fc94       ?pbackfail@?$basic_filebuf@GU?$char_traits@G@std@@@std@@MAEGG@Z 10010c94 f i libcpmt:wiostrea.obj
 0001:0000fd4b       ?underflow@?$basic_filebuf@GU?$char_traits@G@std@@@std@@MAEGXZ 10010d4b f i libcpmt:wiostrea.obj
 0001:0000fd79       ?uflow@?$basic_filebuf@GU?$char_traits@G@std@@@std@@MAEGXZ 10010d79 f i libcpmt:wiostrea.obj
 0001:0000fe97       ?seekoff@?$basic_filebuf@GU?$char_traits@G@std@@@std@@MAE?AV?$fpos@H@2@JW4seekdir@ios_base@2@H@Z 10010e97 f i libcpmt:wiostrea.obj
 0001:0000ff06       ?seekpos@?$basic_filebuf@GU?$char_traits@G@std@@@std@@MAE?AV?$fpos@H@2@V32@H@Z 10010f06 f i libcpmt:wiostrea.obj
 0001:0000ffb5       ?setbuf@?$basic_filebuf@GU?$char_traits@G@std@@@std@@MAEPAV?$basic_streambuf@GU?$char_traits@G@std@@@2@PAGH@Z 10010fb5 f i libcpmt:wiostrea.obj
 0001:0000ffe3       ?sync@?$basic_filebuf@GU?$char_traits@G@std@@@std@@MAEHXZ 10010fe3 f i libcpmt:wiostrea.obj
 0001:0000fffc       ??_G?$basic_ostream@GU?$char_traits@G@std@@@std@@UAEPAXI@Z 10010ffc f i libcpmt:wiostrea.obj
 0001:0000fffc       ??_E?$basic_ostream@GU?$char_traits@G@std@@@std@@UAEPAXI@Z 10010ffc f i libcpmt:wiostrea.obj
 0001:0001001b       ??_G?$basic_ios@GU?$char_traits@G@std@@@std@@UAEPAXI@Z 1001101b f i libcpmt:wiostrea.obj
 0001:0001001b       ??_E?$basic_ios@GU?$char_traits@G@std@@@std@@UAEPAXI@Z 1001101b f i libcpmt:wiostrea.obj
 0001:00010037       ??_G?$basic_istream@GU?$char_traits@G@std@@@std@@UAEPAXI@Z 10011037 f i libcpmt:wiostrea.obj
 0001:00010037       ??_E?$basic_istream@GU?$char_traits@G@std@@@std@@UAEPAXI@Z 10011037 f i libcpmt:wiostrea.obj
 0001:00010056       ??_E?$basic_streambuf@GU?$char_traits@G@std@@@std@@UAEPAXI@Z 10011056 f i libcpmt:wiostrea.obj
 0001:00010056       ??_G?$basic_streambuf@GU?$char_traits@G@std@@@std@@UAEPAXI@Z 10011056 f i libcpmt:wiostrea.obj
 0001:00010072       ??_G?$basic_filebuf@GU?$char_traits@G@std@@@std@@UAEPAXI@Z 10011072 f i libcpmt:wiostrea.obj
 0001:00010072       ??_E?$basic_filebuf@GU?$char_traits@G@std@@@std@@UAEPAXI@Z 10011072 f i libcpmt:wiostrea.obj
 0001:0001008e       ?init@?$basic_ios@GU?$char_traits@G@std@@@std@@IAEXPAV?$basic_streambuf@GU?$char_traits@G@std@@@2@_N@Z 1001108e f i libcpmt:wiostrea.obj
 0001:000100d8       ?gbump@?$basic_streambuf@GU?$char_traits@G@std@@@std@@IAEXH@Z 100110d8 f i libcpmt:wiostrea.obj
 0001:000100ec       ?_Gndec@?$basic_streambuf@GU?$char_traits@G@std@@@std@@IAEPAGXZ 100110ec f i libcpmt:wiostrea.obj
 0001:000100fd       ?_Gninc@?$basic_streambuf@GU?$char_traits@G@std@@@std@@IAEPAGXZ 100110fd f i libcpmt:wiostrea.obj
 0001:0001010d       ?pbump@?$basic_streambuf@GU?$char_traits@G@std@@@std@@IAEXH@Z 1001110d f i libcpmt:wiostrea.obj
 0001:00010121       ?_Pninc@?$basic_streambuf@GU?$char_traits@G@std@@@std@@IAEPAGXZ 10011121 f i libcpmt:wiostrea.obj
 0001:00010131       ?close@?$basic_filebuf@GU?$char_traits@G@std@@@std@@QAEPAV12@XZ 10011131 f i libcpmt:wiostrea.obj
 0001:00010158       ?_Init@?$basic_filebuf@GU?$char_traits@G@std@@@std@@IAEXPAU_iobuf@@W4_Initfl@12@@Z 10011158 f i libcpmt:wiostrea.obj
 0001:000101ae       ?_Init@?$basic_streambuf@GU?$char_traits@G@std@@@std@@IAEXXZ 100111ae f i libcpmt:wiostrea.obj
 0001:00010232       ??0_Lockit@std@@QAE@XZ     10011232 f   libcpmt:xlock.obj
 0001:000102ce       ??1_Lockit@std@@QAE@XZ     100112ce f   libcpmt:xlock.obj
 0001:000102e3       ?clear@ios_base@std@@QAEXH_N@Z 100112e3 f   libcpmt:ios.obj
 0001:0001037f       ??0runtime_error@std@@QAE@ABV?$basic_string@DU?$char_traits@D@std@@V?$allocator@D@2@@1@@Z 1001137f f i libcpmt:ios.obj
 0001:000103e3       ?what@runtime_error@std@@UBEPBDXZ 100113e3 f i libcpmt:ios.obj
 0001:000103f0       ?_Doraise@runtime_error@std@@MBEXXZ 100113f0 f i libcpmt:ios.obj
 0001:0001040d       ??1runtime_error@std@@UAE@XZ 1001140d f i libcpmt:ios.obj
 0001:0001044a       ??_Gruntime_error@std@@UAEPAXI@Z 1001144a f i libcpmt:ios.obj
 0001:0001044a       ??_Eruntime_error@std@@UAEPAXI@Z 1001144a f i libcpmt:ios.obj
 0001:00010466       ??0runtime_error@std@@QAE@ABV01@@Z 10011466 f i libcpmt:ios.obj
 0001:000104c3       ??1failure@ios_base@std@@UAE@XZ 100114c3 f i libcpmt:ios.obj
 0001:00010500       ?_Doraise@failure@ios_base@std@@MBEXXZ 10011500 f i libcpmt:ios.obj
 0001:0001051d       ??_Gfailure@ios_base@std@@UAEPAXI@Z 1001151d f i libcpmt:ios.obj
 0001:0001051d       ??_Efailure@ios_base@std@@UAEPAXI@Z 1001151d f i libcpmt:ios.obj
 0001:00010539       ??0failure@ios_base@std@@QAE@ABV012@@Z 10011539 f i libcpmt:ios.obj
 0001:00010551       ?copyfmt@ios_base@std@@QAEAAV12@ABV12@@Z 10011551 f   libcpmt:ios.obj
 0001:000105e2       ??4locale@std@@QAEAAV01@ABV01@@Z 100115e2 f i libcpmt:ios.obj
 0001:00010611       ?imbue@ios_base@std@@QAE?AVlocale@2@ABV32@@Z 10011611 f   libcpmt:ios.obj
 0001:00010670       ?register_callback@ios_base@std@@QAEXP6AXW4event@12@AAV12@H@ZH@Z 10011670 f   libcpmt:ios.obj
 0001:000106a6       ??1ios_base@std@@UAE@XZ    100116a6 f   libcpmt:ios.obj
 0001:000106f6       ??_Gios_base@std@@UAEPAXI@Z 100116f6 f i libcpmt:ios.obj
 0001:000106f6       ??_Eios_base@std@@UAEPAXI@Z 100116f6 f i libcpmt:ios.obj
 0001:00010712       ?_Callfns@ios_base@std@@AAEXW4event@12@@Z 10011712 f   libcpmt:ios.obj
 0001:00010734       ?_Findarr@ios_base@std@@AAEAAU_Iosarray@12@H@Z 10011734 f   libcpmt:ios.obj
 0001:00010805       ?_Addstd@ios_base@std@@IAEXXZ 10011805 f   libcpmt:ios.obj
 0001:00010853       ?_Init@ios_base@std@@IAEXXZ 10011853 f   libcpmt:ios.obj
 0001:0001088b       ?_Tidy@ios_base@std@@AAEXXZ 1001188b f   libcpmt:ios.obj
 0001:000108cd       ??1?$basic_string@DU?$char_traits@D@std@@V?$allocator@D@2@@std@@QAE@XZ 100118cd f i libcpmt:ios.obj
 0001:000108d5       ?assign@?$basic_string@DU?$char_traits@D@std@@V?$allocator@D@2@@std@@QAEAAV12@ABV12@II@Z 100118d5 f i libcpmt:ios.obj
 0001:000109c4       ?classic@locale@std@@SAABV12@XZ 100119c4 f   libcpmt:locale0.obj
 0001:000109e4       ?empty@locale@std@@SA?AV12@XZ 100119e4 f   libcpmt:locale0.obj
 0001:00010a2b       ?_Getfacet@locale@std@@QBEPBVfacet@12@I_N@Z 10011a2b f   libcpmt:locale0.obj
 0001:00010a81       ?_Iscloc@locale@std@@QBE_NXZ 10011a81 f   libcpmt:locale0.obj
 0001:00010abc       ??8locale@std@@QBE_NABV01@@Z 10011abc f   libcpmt:locale0.obj
 0001:00010b8b       ?name@locale@std@@QBE?AV?$basic_string@DU?$char_traits@D@std@@V?$allocator@D@2@@2@XZ 10011b8b f i libcpmt:locale0.obj
 0001:00010bc2       ?_Init@locale@std@@CAPAV_Locimp@12@XZ 10011bc2 f   libcpmt:locale0.obj
 0001:00010c8c       ?_Tidy@locale@std@@CAXXZ   10011c8c f   libcpmt:locale0.obj
 0001:00010cd6       ??0_Locimp@locale@std@@AAE@_N@Z 10011cd6 f   libcpmt:locale0.obj
 0001:00010d48       ??1facet@locale@std@@UAE@XZ 10011d48 f i libcpmt:locale0.obj
 0001:00010d4f       ??_Gfacet@locale@std@@UAEPAXI@Z 10011d4f f i libcpmt:locale0.obj
 0001:00010d4f       ??_Efacet@locale@std@@UAEPAXI@Z 10011d4f f i libcpmt:locale0.obj
 0001:00010d6c       ??_G_Locimp@locale@std@@UAEPAXI@Z 10011d6c f i libcpmt:locale0.obj
 0001:00010d6c       ??_E_Locimp@locale@std@@UAEPAXI@Z 10011d6c f i libcpmt:locale0.obj
 0001:00010d88       ??1_Locimp@locale@std@@UAE@XZ 10011d88 f   libcpmt:locale0.obj
 0001:00010e10       ?compare@?$basic_string@DU?$char_traits@D@std@@V?$allocator@D@2@@std@@QBEHABV12@@Z 10011e10 f i libcpmt:locale0.obj
 0001:00010e32       ?compare@?$basic_string@DU?$char_traits@D@std@@V?$allocator@D@2@@std@@QBEHIIPBDI@Z 10011e32 f i libcpmt:locale0.obj
 0001:00010ed7       ?_Xlen@std@@YAXXZ          10011ed7 f   libcpmt:string.obj
 0001:00010f31       ??0logic_error@std@@QAE@ABV?$basic_string@DU?$char_traits@D@std@@V?$allocator@D@2@@1@@Z 10011f31 f i libcpmt:string.obj
 0001:00010f95       ?what@logic_error@std@@UBEPBDXZ 10011f95 f i libcpmt:string.obj
 0001:00010fa2       ?_Doraise@logic_error@std@@MBEXXZ 10011fa2 f i libcpmt:string.obj
 0001:00010fbf       ??1logic_error@std@@UAE@XZ 10011fbf f i libcpmt:string.obj
 0001:00010ffc       ??_Glogic_error@std@@UAEPAXI@Z 10011ffc f i libcpmt:string.obj
 0001:00010ffc       ??_Elogic_error@std@@UAEPAXI@Z 10011ffc f i libcpmt:string.obj
 0001:00011018       ??0logic_error@std@@QAE@ABV01@@Z 10012018 f i libcpmt:string.obj
 0001:00011075       ??1length_error@std@@UAE@XZ 10012075 f i libcpmt:string.obj
 0001:000110b2       ?_Doraise@length_error@std@@MBEXXZ 100120b2 f i libcpmt:string.obj
 0001:000110cf       ??_Elength_error@std@@UAEPAXI@Z 100120cf f i libcpmt:string.obj
 0001:000110cf       ??_Glength_error@std@@UAEPAXI@Z 100120cf f i libcpmt:string.obj
 0001:000110eb       ??0length_error@std@@QAE@ABV01@@Z 100120eb f i libcpmt:string.obj
 0001:00011103       ?_Xran@std@@YAXXZ          10012103 f   libcpmt:string.obj
 0001:0001115d       ??1out_of_range@std@@UAE@XZ 1001215d f i libcpmt:string.obj
 0001:0001119a       ?_Doraise@out_of_range@std@@MBEXXZ 1001219a f i libcpmt:string.obj
 0001:000111b7       ??_Eout_of_range@std@@UAEPAXI@Z 100121b7 f i libcpmt:string.obj
 0001:000111b7       ??_Gout_of_range@std@@UAEPAXI@Z 100121b7 f i libcpmt:string.obj
 0001:000111d3       ??0out_of_range@std@@QAE@ABV01@@Z 100121d3 f i libcpmt:string.obj
 0001:0001122d       __Mbrtowc                  1001222d f   libcpmt:xmbtowc.obj
 0001:000113a3       _btowc                     100123a3 f   libcpmt:xmbtowc.obj
 0001:000113e4       _mbrlen                    100123e4 f   libcpmt:xmbtowc.obj
 0001:0001144f       _mbrtowc                   1001244f f   libcpmt:xmbtowc.obj
 0001:000114e0       _mbsrtowcs                 100124e0 f   libcpmt:xmbtowc.obj
 0001:000115d5       ?_Nomemory@std@@YAXXZ      100125d5 f   libcpmt:nomemory.obj
 0001:00011620       ??0bad_alloc@std@@QAE@PBD@Z 10012620 f i libcpmt:nomemory.obj
 0001:00011639       ??1bad_alloc@std@@UAE@XZ   10012639 f i libcpmt:nomemory.obj
 0001:00011644       ?_Doraise@bad_alloc@std@@MBEXXZ 10012644 f i libcpmt:nomemory.obj
 0001:00011661       ??_Gbad_alloc@std@@UAEPAXI@Z 10012661 f i libcpmt:nomemory.obj
 0001:00011661       ??_Ebad_alloc@std@@UAEPAXI@Z 10012661 f i libcpmt:nomemory.obj
 0001:0001167d       ??0bad_alloc@std@@QAE@ABV01@@Z 1001267d f i libcpmt:nomemory.obj
 0001:0001169f       ??2@YAPAXI@Z               1001269f f   LIBCMT:new.obj
 0001:000116ad       __onexit                   100126ad f   LIBCMT:onexit.obj
 0001:0001172b       _atexit                    1001272b f   LIBCMT:onexit.obj
 0001:0001173d       ___onexitinit              1001273d f   LIBCMT:onexit.obj
 0001:0001176c       __purecall                 1001276c f   LIBCMT:purevirt.obj
 0001:00011775       ??1type_info@@UAE@XZ       10012775 f   LIBCMT:typinfo.obj
 0001:0001179e       ??_Etype_info@@UAEPAXI@Z   1001279e f i LIBCMT:typinfo.obj
 0001:0001179e       ??_Gtype_info@@UAEPAXI@Z   1001279e f i LIBCMT:typinfo.obj
 0001:000117ba       ??8type_info@@QBEHABV0@@Z  100127ba f   LIBCMT:typinfo.obj
 0001:000117d5       ??9type_info@@QBEHABV0@@Z  100127d5 f   LIBCMT:typinfo.obj
 0001:000117f1       ?before@type_info@@QBEHABV1@@Z 100127f1 f   LIBCMT:typinfo.obj
 0001:00011810       ?raw_name@type_info@@QBEPBDXZ 10012810 f   LIBCMT:typinfo.obj
 0001:00011814       ??0type_info@@AAE@ABV0@@Z  10012814 f   LIBCMT:typinfo.obj
 0001:0001181f       ??4type_info@@AAEAAV0@ABV0@@Z 1001281f f   LIBCMT:typinfo.obj
 0001:00011824       ?_JumpToContinuation@@YGXPAXPAUEHRegistrationNode@@@Z 10012824 f   LIBCMT:trnsctrl.obj
 0001:00011858       ?_CallMemberFunction0@@YGXPAX0@Z 10012858 f   LIBCMT:trnsctrl.obj
 0001:0001185f       ?_CallMemberFunction1@@YGXPAX00@Z 1001285f f   LIBCMT:trnsctrl.obj
 0001:00011866       ?_CallMemberFunction2@@YGXPAX00H@Z 10012866 f   LIBCMT:trnsctrl.obj
 0001:0001186d       ?_UnwindNestedFrames@@YGXPAUEHRegistrationNode@@PAUEHExceptionRecord@@@Z 1001286d f   LIBCMT:trnsctrl.obj
 0001:000118bc       ___CxxFrameHandler         100128bc f   LIBCMT:trnsctrl.obj
 0001:000118f2       ___CxxLongjmpUnwind@4      100128f2 f   LIBCMT:trnsctrl.obj
 0001:0001190c       ?_CallCatchBlock2@@YAPAXPAUEHRegistrationNode@@PBU_s_FuncInfo@@PAXHK@Z 1001290c f   LIBCMT:trnsctrl.obj
 0001:00011985       ?_CallSETranslator@@YAHPAUEHExceptionRecord@@PAUEHRegistrationNode@@PAX2PBU_s_FuncInfo@@H1@Z 10012985 f   LIBCMT:trnsctrl.obj
 0001:00011ab0       ?_GetRangeOfTrysToCheck@@YAPBU_s_TryBlockMapEntry@@PBU_s_FuncInfo@@HHPAI1@Z 10012ab0 f   LIBCMT:trnsctrl.obj
 0001:00011b2c       __global_unwind2           10012b2c f   LIBCMT:exsup.obj
 0001:00011b6e       __local_unwind2            10012b6e f   LIBCMT:exsup.obj
 0001:00011bc6       __NLG_Return2              10012bc6 f   LIBCMT:exsup.obj
 0001:00011bd6       __abnormal_termination     10012bd6 f   LIBCMT:exsup.obj
 0001:00011bf9       __NLG_Notify1              10012bf9 f   LIBCMT:exsup.obj
 0001:00011c02       __NLG_Notify               10012c02 f   LIBCMT:exsup.obj
 0001:00011c15       __NLG_Dispatch             10012c15 f   LIBCMT:exsup.obj
 0001:00011c1a       _free                      10012c1a f   LIBCMT:free.obj
 0001:00011d03       __fpmath                   10012d03 f   LIBCMT:fpinit.obj
 0001:00011d1a       __fpclear                  10012d1a f   LIBCMT:fpinit.obj
 0001:00011d1b       __cfltcvt_init             10012d1b f   LIBCMT:fpinit.obj
 0001:00011d53       ___setfflag                10012d53 f   LIBCMT:fpinit.obj
 0001:00011d63       _vsprintf                  10012d63 f   LIBCMT:vsprintf.obj
 0001:00011db4       _malloc                    10012db4 f   LIBCMT:malloc.obj
 0001:00011dc6       __nh_malloc                10012dc6 f   LIBCMT:malloc.obj
 0001:00011df2       __heap_alloc               10012df2 f   LIBCMT:malloc.obj
 0001:00011eee       __CxxThrowException@8      10012eee f   LIBCMT:throw.obj
 0001:00011f28       _sprintf                   10012f28 f   LIBCMT:sprintf.obj
 0001:00011f7a       _atol                      10012f7a f   LIBCMT:atox.obj
 0001:00012005       _atoi                      10013005 f   LIBCMT:atox.obj
 0001:00012010       __atoi64                   10013010 f   LIBCMT:atox.obj
 0001:000120ca       ??_M@YGXPAXIHP6EX0@Z@Z     100130ca f   LIBCMT:ehvecdtr.obj
 0001:0001214a       ?__ArrayUnwind@@YGXPAXIHP6EX0@Z@Z 1001314a f   LIBCMT:ehvecdtr.obj
 0001:000121be       ??_L@YGXPAXIHP6EX0@Z1@Z    100131be f   LIBCMT:ehvecctr.obj
 0001:00012240       __chkstk                   10013240 f   LIBCMT:chkstk.obj
 0001:00012240       __alloca_probe             10013240 f   LIBCMT:chkstk.obj
 0001:0001226f       ?set_terminate@@YAP6AXXZP6AXXZ@Z 1001326f f   LIBCMT:user.obj
 0001:00012288       ?set_unexpected@@YAP6AXXZP6AXXZ@Z 10013288 f   LIBCMT:user.obj
 0001:000122a1       ?_set_se_translator@@YAP6AXIPAU_EXCEPTION_POINTERS@@@ZP6AXI0@Z@Z 100132a1 f   LIBCMT:user.obj
 0001:000122ba       ?__set_inconsistency@@YAP6AXXZP6AXXZ@Z 100132ba f   LIBCMT:user.obj
 0001:000122ca       __CRT_INIT@12              100132ca f   LIBCMT:dllcrt0.obj
 0001:000123a3       __DllMainCRTStartup@12     100133a3 f   LIBCMT:dllcrt0.obj
 0001:00012440       __amsg_exit                10013440 f   LIBCMT:dllcrt0.obj
 0001:00012473       ___initstdio               10013473 f   LIBCMT:_file.obj
 0001:0001251b       ___endstdio                1001351b f   LIBCMT:_file.obj
 0001:0001252f       __lock_file                1001352f f   LIBCMT:_file.obj
 0001:0001255e       __lock_file2               1001355e f   LIBCMT:_file.obj
 0001:00012581       __unlock_file              10013581 f   LIBCMT:_file.obj
 0001:000125b0       __unlock_file2             100135b0 f   LIBCMT:_file.obj
 0001:000125d4       __EH_prolog                100135d4 f   LIBCMT:ehprolog.obj
 0001:00012600       _memcpy                    10013600 f   LIBCMT:memcpy.obj
 0001:00012935       _fwrite                    10013935 f   LIBCMT:fwrite.obj
 0001:00012964       __fwrite_lk                10013964 f   LIBCMT:fwrite.obj
 0001:00012a6e       _fputc                     10013a6e f   LIBCMT:fputc.obj
 0001:00012aa9       _putc                      10013aa9 f   LIBCMT:fputc.obj
 0001:00012ab9       _ungetc                    10013ab9 f   LIBCMT:ungetc.obj
 0001:00012ae2       __ungetc_lk                10013ae2 f   LIBCMT:ungetc.obj
 0001:00012b50       _fgetc                     10013b50 f   LIBCMT:fgetc.obj
 0001:00012b81       _getc                      10013b81 f   LIBCMT:fgetc.obj
 0001:00012b8c       _fgetpos                   10013b8c f   LIBCMT:fgetpos.obj
 0001:00012bae       _fseek                     10013bae f   LIBCMT:fseek.obj
 0001:00012bda       __fseek_lk                 10013bda f   LIBCMT:fseek.obj
 0001:00012c67       _fsetpos                   10013c67 f   LIBCMT:fsetpos.obj
 0001:00012c7f       _setvbuf                   10013c7f f   LIBCMT:setvbuf.obj
 0001:00012d2e       _fflush                    10013d2e f   LIBCMT:fflush.obj
 0001:00012d5d       __fflush_lk                10013d5d f   LIBCMT:fflush.obj
 0001:00012d8b       __flush                    10013d8b f   LIBCMT:fflush.obj
 0001:00012de7       __flushall                 10013de7 f   LIBCMT:fflush.obj
 0001:00012ea0       _memset                    10013ea0 f   LIBCMT:memset.obj
 0001:00012f00       _memmove                   10013f00 f   LIBCMT:memmove.obj
 0001:00013235       _fclose                    10014235 f   LIBCMT:fclose.obj
 0001:00013266       __fclose_lk                10014266 f   LIBCMT:fclose.obj
 0001:000132c0       _strlen                    100142c0 f   LIBCMT:strlen.obj
 0001:0001333b       _fputwc                    1001433b f   LIBCMT:fputwc.obj
 0001:00013365       __putwc_lk                 10014365 f   LIBCMT:fputwc.obj
 0001:0001345e       _putwc                     1001445e f   LIBCMT:fputwc.obj
 0001:0001346e       _ungetwc                   1001446e f   LIBCMT:ungetwc.obj
 0001:00013498       __ungetwc_lk               10014498 f   LIBCMT:ungetwc.obj
 0001:00013585       _fgetwc                    10014585 f   LIBCMT:fgetwc.obj
 0001:000135a8       __getwc_lk                 100145a8 f   LIBCMT:fgetwc.obj
 0001:00013699       _getwc                     10014699 f   LIBCMT:fgetwc.obj
 0001:000136a4       ??0exception@@QAE@XZ       100146a4 f   LIBCMT:stdexcpt.obj
 0001:000136b5       ??_Gexception@@UAEPAXI@Z   100146b5 f i LIBCMT:stdexcpt.obj
 0001:000136b5       ??_Eexception@@UAEPAXI@Z   100146b5 f i LIBCMT:stdexcpt.obj
 0001:000136d1       ??0exception@@QAE@ABQBD@Z  100146d1 f   LIBCMT:stdexcpt.obj
 0001:0001370e       ??0exception@@QAE@ABV0@@Z  1001470e f   LIBCMT:stdexcpt.obj
 0001:00013758       ??4exception@@QAEAAV0@ABV0@@Z 10014758 f   LIBCMT:stdexcpt.obj
 0001:00013777       ??1exception@@UAE@XZ       10014777 f   LIBCMT:stdexcpt.obj
 0001:0001378d       ?what@exception@@UBEPBDXZ  1001478d f   LIBCMT:stdexcpt.obj
 0001:000137a0       _memcmp                    100147a0 f   LIBCMT:memcmp.obj
 0001:0001384c       __mtinitlocks              1001484c f   LIBCMT:mlock.obj
 0001:00013875       __mtdeletelocks            10014875 f   LIBCMT:mlock.obj
 0001:000138e1       __lock                     100148e1 f   LIBCMT:mlock.obj
 0001:00013942       __unlock                   10014942 f   LIBCMT:mlock.obj
 0001:00013957       __lockerr_exit             10014957 f   LIBCMT:mlock.obj
 0001:0001396f       _setlocale                 1001496f f   LIBCMT:setlocal.obj
 0001:00013d89       __expandlocale             10014d89 f   LIBCMT:setlocal.obj
 0001:00013ea1       ___init_dummy              10014ea1 f   LIBCMT:setlocal.obj
 0001:00013ea4       __strcats                  10014ea4 f   LIBCMT:setlocal.obj
 0001:00013ec9       ___lc_strtolc              10014ec9 f   LIBCMT:setlocal.obj
 0001:00013f95       ___lc_lctostr              10014f95 f   LIBCMT:setlocal.obj
 0001:00013fe8       __dosmaperr                10014fe8 f   LIBCMT:dosmap.obj
 0001:0001405b       __errno                    1001505b f   LIBCMT:dosmap.obj
 0001:00014064       ___doserrno                10015064 f   LIBCMT:dosmap.obj
 0001:0001406d       __cinit                    1001506d f   LIBCMT:crt0dat.obj
 0001:0001409a       _exit                      1001509a f   LIBCMT:crt0dat.obj
 0001:000140ab       __exit                     100150ab f   LIBCMT:crt0dat.obj
 0001:000140bc       __cexit                    100150bc f   LIBCMT:crt0dat.obj
 0001:000140cb       __c_exit                   100150cb f   LIBCMT:crt0dat.obj
 0001:0001417f       __lockexit                 1001517f f   LIBCMT:crt0dat.obj
 0001:00014188       __unlockexit               10015188 f   LIBCMT:crt0dat.obj
 0001:000141ab       _realloc                   100151ab f   LIBCMT:realloc.obj
 0001:000144da       __msize                    100154da f   LIBCMT:msize.obj
 0001:000145d0       _strcmp                    100155d0 f   LIBCMT:strcmp.obj
 0001:00014654       ___InternalCxxFrameHandler 10015654 f   LIBCMT:frame.obj
 0001:000149a9       ___FrameUnwindToState      100159a9 f   LIBCMT:frame.obj
 0001:00014de1       ?_DestructExceptionObject@@YAXPAUEHExceptionRecord@@E@Z 10015de1 f   LIBCMT:frame.obj
 0001:00014e70       __CallSettingFrame@12      10015e70 f   LIBCMT:lowhelpr.obj
 0001:00014e97       __NLG_Return               10015e97 f   LIBCMT:lowhelpr.obj
 0001:00014ebc       __mtinit                   10015ebc f   LIBCMT:tidtable.obj
 0001:00014f10       __mtterm                   10015f10 f   LIBCMT:tidtable.obj
 0001:00014f2e       __initptd                  10015f2e f   LIBCMT:tidtable.obj
 0001:00014f41       __getptd                   10015f41 f   LIBCMT:tidtable.obj
 0001:00014fa8       __freeptd                  10015fa8 f   LIBCMT:tidtable.obj
 0001:00015048       ___threadid                10016048 f   LIBCMT:tidtable.obj
 0001:0001504e       ___threadhandle            1001604e f   LIBCMT:tidtable.obj
 0001:00015054       ?terminate@@YAXXZ          10016054 f   LIBCMT:hooks.obj
 0001:000150b5       ?unexpected@@YAXXZ         100160b5 f   LIBCMT:hooks.obj
 0001:000150cd       ?_inconsistency@@YAXXZ     100160cd f   LIBCMT:hooks.obj
 0001:00015123       __GetLinkerVersion         10016123 f   LIBCMT:heapinit.obj
 0001:00015150       ___heap_select             10016150 f   LIBCMT:heapinit.obj
 0001:00015298       __heap_init                10016298 f   LIBCMT:heapinit.obj
 0001:000152f5       __heap_term                100162f5 f   LIBCMT:heapinit.obj
 0001:0001539d       __get_sbh_threshold        1001639d f   LIBCMT:sbheap.obj
 0001:000153bc       __set_sbh_threshold        100163bc f   LIBCMT:sbheap.obj
 0001:0001546f       ___sbh_heap_init           1001646f f   LIBCMT:sbheap.obj
 0001:000154b7       ___sbh_find_block          100164b7 f   LIBCMT:sbheap.obj
 0001:000154e2       ___sbh_free_block          100164e2 f   LIBCMT:sbheap.obj
 0001:0001580b       ___sbh_alloc_block         1001680b f   LIBCMT:sbheap.obj
 0001:00015b14       ___sbh_alloc_new_region    10016b14 f   LIBCMT:sbheap.obj
 0001:00015bc5       ___sbh_alloc_new_group     10016bc5 f   LIBCMT:sbheap.obj
 0001:00015cc0       ___sbh_resize_block        10016cc0 f   LIBCMT:sbheap.obj
 0001:00015fb6       ___sbh_heapmin             10016fb6 f   LIBCMT:sbheap.obj
 0001:00016087       ___sbh_heap_check          10017087 f   LIBCMT:sbheap.obj
 0001:000163b6       __get_old_sbh_threshold    100173b6 f   LIBCMT:sbheap.obj
 0001:000163bc       __set_old_sbh_threshold    100173bc f   LIBCMT:sbheap.obj
 0001:000163d8       ___old_sbh_new_region      100173d8 f   LIBCMT:sbheap.obj
 0001:0001651c       ___old_sbh_release_region  1001751c f   LIBCMT:sbheap.obj
 0001:00016572       ___old_sbh_decommit_pages  10017572 f   LIBCMT:sbheap.obj
 0001:00016634       ___old_sbh_find_block      10017634 f   LIBCMT:sbheap.obj
 0001:0001668b       ___old_sbh_free_block      1001768b f   LIBCMT:sbheap.obj
 0001:000166d0       ___old_sbh_alloc_block     100176d0 f   LIBCMT:sbheap.obj
 0001:000168d8       ___old_sbh_alloc_block_from_page 100178d8 f   LIBCMT:sbheap.obj
 0001:000169fc       ___old_sbh_resize_block    100179fc f   LIBCMT:sbheap.obj
 0001:00016aa5       ___old_sbh_heap_check      10017aa5 f   LIBCMT:sbheap.obj
 0001:00016c0c       __except_handler3          10017c0c f   LIBCMT:exsup3.obj
 0001:00016cc9       __seh_longjmp_unwind@4     10017cc9 f   LIBCMT:exsup3.obj
 0001:00016ce4       __setdefaultprecision      10017ce4 f   LIBCMT:fp8.obj
 0001:00016cf6       __ms_p5_test_fdiv          10017cf6 f   LIBCMT:testfdiv.obj
 0001:00016d34       __ms_p5_mp_test_fdiv       10017d34 f   LIBCMT:testfdiv.obj
 0001:00016d5d       __forcdecpt                10017d5d f   LIBCMT:cvt.obj
 0001:00016db7       __cropzeros                10017db7 f   LIBCMT:cvt.obj
 0001:00016e05       __positive                 10017e05 f   LIBCMT:cvt.obj
 0001:00016e1d       __fassign                  10017e1d f   LIBCMT:cvt.obj
 0001:00016e5b       __cftoe                    10017e5b f   LIBCMT:cvt.obj
 0001:00016f7e       __cftof                    10017f7e f   LIBCMT:cvt.obj
 0001:0001707a       __cftog                    1001807a f   LIBCMT:cvt.obj
 0001:0001710d       __cfltcvt                  1001810d f   LIBCMT:cvt.obj
 0001:00017183       __flsbuf                   10018183 f   LIBCMT:_flsbuf.obj
 0001:0001729b       __output                   1001829b f   LIBCMT:output.obj
 0001:00017b02       ?_set_new_handler@@YAP6AHI@ZP6AHI@Z@Z 10018b02 f   LIBCMT:handler.obj
 0001:00017b26       ?_query_new_handler@@YAP6AHI@ZXZ 10018b26 f   LIBCMT:handler.obj
 0001:00017b2c       __callnewh                 10018b2c f   LIBCMT:handler.obj
 0001:00017b47       ?__CxxUnhandledExceptionFilter@@YGJPAU_EXCEPTION_POINTERS@@@Z 10018b47 f   LIBCMT:unhandld.obj
 0001:00017b8d       ?__CxxSetUnhandledExceptionFilter@@YAXXZ 10018b8d f   LIBCMT:unhandld.obj
 0001:00017b9e       ?__CxxRestoreUnhandledExceptionFilter@@YAXXZ 10018b9e f   LIBCMT:unhandld.obj
 0001:00017bab       __isctype                  10018bab f   LIBCMT:isctype.obj
 0001:00017c20       __allmul                   10018c20 f   LIBCMT:llmul.obj
 0001:00017c54       __ioinit                   10018c54 f   LIBCMT:ioinit.obj
 0001:00017e10       __ioterm                   10018e10 f   LIBCMT:ioinit.obj
 0001:00017e64       __setenvp                  10018e64 f   LIBCMT:stdenvp.obj
 0001:00017f1d       __setargv                  10018f1d f   LIBCMT:stdargv.obj
 0001:0001816a       ___crtGetEnvironmentStringsA 1001916a f   LIBCMT:a_env.obj
 0001:0001829c       __FF_MSGBANNER             1001929c f   LIBCMT:crt0msg.obj
 0001:000182d5       __NMSG_WRITE               100192d5 f   LIBCMT:crt0msg.obj
 0001:00018428       __GET_RTERRMSG             10019428 f   LIBCMT:crt0msg.obj
 0001:00018459       _calloc                    10019459 f   LIBCMT:calloc.obj
 0001:00018596       __fcloseall                10019596 f   LIBCMT:closeall.obj
 0001:00018617       __write                    10019617 f   LIBCMT:write.obj
 0001:0001867c       __write_lk                 1001967c f   LIBCMT:write.obj
 0001:00018807       __getbuf                   10019807 f   LIBCMT:_getbuf.obj
 0001:0001884b       __filbuf                   1001984b f   LIBCMT:_filbuf.obj
 0001:00018927       __ftelli64                 10019927 f   LIBCMT:ftelli64.obj
 0001:0001894f       __ftelli64_lk              1001994f f   LIBCMT:ftelli64.obj
 0001:00018adf       __lseek                    10019adf f   LIBCMT:lseek.obj
 0001:00018b44       __lseek_lk                 10019b44 f   LIBCMT:lseek.obj
 0001:00018bb7       _ftell                     10019bb7 f   LIBCMT:ftell.obj
 0001:00018bd9       __ftell_lk                 10019bd9 f   LIBCMT:ftell.obj
 0001:00018d3a       __fseeki64                 10019d3a f   LIBCMT:fseeki64.obj
 0001:00018d69       __fseeki64_lk              10019d69 f   LIBCMT:fseeki64.obj
 0001:00018dfa       __freebuf                  10019dfa f   LIBCMT:_freebuf.obj
 0001:00018e25       __commit                   10019e25 f   LIBCMT:commit.obj
 0001:00018eb8       __close                    10019eb8 f   LIBCMT:close.obj
 0001:00018f15       __close_lk                 10019f15 f   LIBCMT:close.obj
 0001:00018f98       __flswbuf                  10019f98 f   LIBCMT:_flswbuf.obj
 0001:000190bf       _wctomb                    1001a0bf f   LIBCMT:wctomb.obj
 0001:00019118       __wctomb_lk                1001a118 f   LIBCMT:wctomb.obj
 0001:00019181       __filwbuf                  1001a181 f   LIBCMT:_filwbuf.obj
 0001:00019268       _mbtowc                    1001a268 f   LIBCMT:mbtowc.obj
 0001:000192c5       __mbtowc_lk                1001a2c5 f   LIBCMT:mbtowc.obj
 0001:00019390       _strcpy                    1001a390 f   LIBCMT:strcat.obj
 0001:000193a0       _strcat                    1001a3a0 f   LIBCMT:strcat.obj
 0001:00019480       ___init_time               1001a480 f   LIBCMT:inittime.obj
 0001:000199ef       ___init_numeric            1001a9ef f   LIBCMT:initnum.obj
 0001:00019bfb       ___init_monetary           1001abfb f   LIBCMT:initmon.obj
 0001:00019e6d       ___init_ctype              1001ae6d f   LIBCMT:initctyp.obj
 0001:0001a0b2       ___init_collate            1001b0b2 f   LIBCMT:initcoll.obj
 0001:0001a0c0       _strncpy                   1001b0c0 f   LIBCMT:strncpy.obj
 0001:0001a1c0       _strcspn                   1001b1c0 f   LIBCMT:strcspn.obj
 0001:0001a200       _strncmp                   1001b200 f   LIBCMT:strncmp.obj
 0001:0001a240       _strpbrk                   1001b240 f   LIBCMT:strpbrk.obj
 0001:0001a27a       ___get_qualified_locale    1001b27a f   LIBCMT:getqloc.obj
 0001:0001ab21       ?_ValidateRead@@YAHPBXI@Z  1001bb21 f   LIBCMT:validate.obj
 0001:0001ab3d       ?_ValidateWrite@@YAHPAXI@Z 1001bb3d f   LIBCMT:validate.obj
 0001:0001ab59       ?_ValidateExecute@@YAHP6GHXZ@Z 1001bb59 f   LIBCMT:validate.obj
 0001:0001ab71       __XcptFilter               1001bb71 f   LIBCMT:winxfltr.obj
 0001:0001ace9       _abort                     1001bce9 f   LIBCMT:abort.obj
 0001:0001ad00       _strtol                    1001bd00 f   LIBCMT:strtol.obj
 0001:0001af1c       _strtoul                   1001bf1c f   LIBCMT:strtol.obj
 0001:0001af50       _strchr                    1001bf50 f   LIBCMT:strchr.obj
 0001:0001af56       ___from_strstr_to_strchr   1001bf56 f   LIBCMT:strchr.obj
 0001:0001b010       _strstr                    1001c010 f   LIBCMT:strstr.obj
 0001:0001b090       __statusfp                 1001c090 f   LIBCMT:ieee87.obj
 0001:0001b0a3       __clearfp                  1001c0a3 f   LIBCMT:ieee87.obj
 0001:0001b0b7       __control87                1001c0b7 f   LIBCMT:ieee87.obj
 0001:0001b0ec       __controlfp                1001c0ec f   LIBCMT:ieee87.obj
 0001:0001b102       __fpreset                  1001c102 f   LIBCMT:ieee87.obj
 0001:0001b27d       __tolower                  1001c27d f   LIBCMT:tolower.obj
 0001:0001b285       _tolower                   1001c285 f   LIBCMT:tolower.obj
 0001:0001b2f4       __tolower_lk               1001c2f4 f   LIBCMT:tolower.obj
 0001:0001b3bf       __ZeroTail                 1001c3bf f   LIBCMT:intrncvt.obj
 0001:0001b408       __IncMan                   1001c408 f   LIBCMT:intrncvt.obj
 0001:0001b45e       __RoundMan                 1001c45e f   LIBCMT:intrncvt.obj
 0001:0001b4ea       __CopyMan                  1001c4ea f   LIBCMT:intrncvt.obj
 0001:0001b505       __FillZeroMan              1001c505 f   LIBCMT:intrncvt.obj
 0001:0001b511       __IsZeroMan                1001c511 f   LIBCMT:intrncvt.obj
 0001:0001b52c       __ShrMan                   1001c52c f   LIBCMT:intrncvt.obj
 0001:0001b5b9       __ld12cvt                  1001c5b9 f   LIBCMT:intrncvt.obj
 0001:0001b725       __ld12tod                  1001c725 f   LIBCMT:intrncvt.obj
 0001:0001b73b       __ld12tof                  1001c73b f   LIBCMT:intrncvt.obj
 0001:0001b751       __ld12told                 1001c751 f   LIBCMT:intrncvt.obj
 0001:0001b7cb       __atodbl                   1001c7cb f   LIBCMT:intrncvt.obj
 0001:0001b7f8       __atoldbl                  1001c7f8 f   LIBCMT:intrncvt.obj
 0001:0001b826       __atoflt                   1001c826 f   LIBCMT:intrncvt.obj
 0001:0001b853       __fptostr                  1001c853 f   LIBCMT:_fptostr.obj
 0001:0001b8ca       __fltout2                  1001c8ca f   LIBCMT:cfout.obj
 0001:0001b926       ___dtold                   1001c926 f   LIBCMT:cfout.obj
 0001:0001b9dc       __fptrap                   1001c9dc f   LIBCMT:crt0fp.obj
 0001:0001b9e5       __isatty                   1001c9e5 f   LIBCMT:isatty.obj
 0001:0001ba10       __aulldiv                  1001ca10 f   LIBCMT:ulldiv.obj
 0001:0001ba80       __aullrem                  1001ca80 f   LIBCMT:ullrem.obj
 0001:0001baf5       ___crtGetStringTypeA       1001caf5 f   LIBCMT:a_str.obj
 0001:0001bc3e       __setmbcp                  1001cc3e f   LIBCMT:mbctype.obj
 0001:0001c016       __getmbcp                  1001d016 f   LIBCMT:mbctype.obj
 0001:0001c026       ___initmbctable            1001d026 f   LIBCMT:mbctype.obj
 0001:0001c042       ___crtMessageBoxA          1001d042 f   LIBCMT:crtmbox.obj
 0001:0001c0cb       __alloc_osfhnd             1001d0cb f   LIBCMT:osfinfo.obj
 0001:0001c1ee       __set_osfhnd               1001d1ee f   LIBCMT:osfinfo.obj
 0001:0001c26a       __free_osfhnd              1001d26a f   LIBCMT:osfinfo.obj
 0001:0001c2e9       __get_osfhandle            1001d2e9 f   LIBCMT:osfinfo.obj
 0001:0001c32b       __open_osfhandle           1001d32b f   LIBCMT:osfinfo.obj
 0001:0001c3d2       __lock_fhandle             1001d3d2 f   LIBCMT:osfinfo.obj
 0001:0001c431       __unlock_fhandle           1001d431 f   LIBCMT:osfinfo.obj
 0001:0001c453       __read                     1001d453 f   LIBCMT:read.obj
 0001:0001c4b8       __read_lk                  1001d4b8 f   LIBCMT:read.obj
 0001:0001c691       __lseeki64                 1001d691 f   LIBCMT:lseeki64.obj
 0001:0001c702       __lseeki64_lk              1001d702 f   LIBCMT:lseeki64.obj
 0001:0001c787       __Getdays                  1001d787 f   LIBCMT:strftime.obj
 0001:0001c816       __Getmonths                1001d816 f   LIBCMT:strftime.obj
 0001:0001c8ab       __Gettnames                1001d8ab f   LIBCMT:strftime.obj
 0001:0001cadd       _strftime                  1001dadd f   LIBCMT:strftime.obj
 0001:0001caf8       __Strftime                 1001daf8 f   LIBCMT:strftime.obj
 0001:0001d3ce       ___getlocaleinfo           1001e3ce f   LIBCMT:inithelp.obj
 0001:0001d506       _localeconv                1001e506 f   LIBCMT:lconv.obj
 0001:0001d50c       ___crtGetStringTypeW       1001e50c f   LIBCMT:w_str.obj
 0001:0001d6d1       _itoa                      1001e6d1 f   LIBCMT:xtoa.obj
 0001:0001d6d1       __itoa                     1001e6d1 f   LIBCMT:xtoa.obj
 0001:0001d75a       __ltoa                     1001e75a f   LIBCMT:xtoa.obj
 0001:0001d784       __ultoa                    1001e784 f   LIBCMT:xtoa.obj
 0001:0001d79f       __i64toa                   1001e79f f   LIBCMT:xtoa.obj
 0001:0001d856       __ui64toa                  1001e856 f   LIBCMT:xtoa.obj
 0001:0001d880       __strcmpi                  1001e880 f   LIBCMT:stricmp.obj
 0001:0001d880       __stricmp                  1001e880 f   LIBCMT:stricmp.obj
 0001:0001d950       __strnicmp                 1001e950 f   LIBCMT:strnicmp.obj
 0001:0001da51       _signal                    1001ea51 f   LIBCMT:winsig.obj
 0001:0001dc35       _raise                     1001ec35 f   LIBCMT:winsig.obj
 0001:0001ddf4       ___fpecode                 1001edf4 f   LIBCMT:winsig.obj
 0001:0001ddfd       ___pxcptinfoptrs           1001edfd f   LIBCMT:winsig.obj
 0001:0001de06       __toupper                  1001ee06 f   LIBCMT:toupper.obj
 0001:0001de0e       _toupper                   1001ee0e f   LIBCMT:toupper.obj
 0001:0001de7d       __toupper_lk               1001ee7d f   LIBCMT:toupper.obj
 0001:0001df49       ___crtLCMapStringA         1001ef49 f   LIBCMT:a_map.obj
 0001:0001e198       ___addl                    1001f198 f   LIBCMT:mantold.obj
 0001:0001e1b9       ___add_12                  1001f1b9 f   LIBCMT:mantold.obj
 0001:0001e217       ___shl_12                  1001f217 f   LIBCMT:mantold.obj
 0001:0001e245       ___shr_12                  1001f245 f   LIBCMT:mantold.obj
 0001:0001e272       ___mtold12                 1001f272 f   LIBCMT:mantold.obj
 0001:0001e339       ___strgtold12              1001f339 f   LIBCMT:strgtold.obj
 0001:0001e80a       ___STRINGTOLD              1001f80a f   LIBCMT:strgtold.obj
 0001:0001e846       _$I10_OUTPUT               1001f846 f   LIBCMT:x10fout.obj
 0001:0001ead9       ___tzset                   1001fad9 f   LIBCMT:tzset.obj
 0001:0001eb07       __tzset                    1001fb07 f   LIBCMT:tzset.obj
 0001:0001eda4       __isindst                  1001fda4 f   LIBCMT:tzset.obj
 0001:0001f0b1       ___crtGetLocaleInfoW       100200b1 f   LIBCMT:w_loc.obj
 0001:0001f1c4       ___crtGetLocaleInfoA       100201c4 f   LIBCMT:a_loc.obj
 0001:0001f2e2       ___ld12mul                 100202e2 f   LIBCMT:tenpow.obj
 0001:0001f502       ___multtenpow12            10020502 f   LIBCMT:tenpow.obj
 0001:0001f57e       _getenv                    1002057e f   LIBCMT:getenv.obj
 0001:0001f59f       __getenv_lk                1002059f f   LIBCMT:getenv.obj
 0001:0001f61c       __mbsnbicoll               1002061c f   LIBCMT:mbsnbico.obj
 0001:0001f65b       ___wtomb_environ           1002065b f   LIBCMT:wtombenv.obj
 0001:0001f6c9       ___crtCompareStringA       100206c9 f   LIBCMT:a_cmp.obj
 0001:0001f971       ___crtsetenv               10020971 f   LIBCMT:setenv.obj
 0001:0001fbb7       __mbschr                   10020bb7 f   LIBCMT:mbschr.obj
 0001:0001fc4e       __strdup                   10020c4e f   LIBCMT:strdup.obj
 0001:0001fc80       _GetModuleFileNameA@12     10020c80 f   kernel32:KERNEL32.dll
 0001:0001fc86       _lstrcpynA@12              10020c86 f   kernel32:KERNEL32.dll
 0001:0001fc8c       _lstrlenA@4                10020c8c f   kernel32:KERNEL32.dll
 0001:0001fc92       _lstrcpyA@8                10020c92 f   kernel32:KERNEL32.dll
 0001:0001fc98       _lstrcmpA@8                10020c98 f   kernel32:KERNEL32.dll
 0001:0001fc9e       _EnterCriticalSection@4    10020c9e f   kernel32:KERNEL32.dll
 0001:0001fca4       _Sleep@4                   10020ca4 f   kernel32:KERNEL32.dll
 0001:0001fcaa       _InitializeCriticalSection@4 10020caa f   kernel32:KERNEL32.dll
 0001:0001fcb0       _InterlockedExchange@8     10020cb0 f   kernel32:KERNEL32.dll
 0001:0001fcb6       _DeleteCriticalSection@4   10020cb6 f   kernel32:KERNEL32.dll
 0001:0001fcbc       _LeaveCriticalSection@4    10020cbc f   kernel32:KERNEL32.dll
 0001:0001fcc2       _InterlockedDecrement@4    10020cc2 f   kernel32:KERNEL32.dll
 0001:0001fcc8       _InterlockedIncrement@4    10020cc8 f   kernel32:KERNEL32.dll
 0001:0001fcce       _MultiByteToWideChar@24    10020cce f   kernel32:KERNEL32.dll
 0001:0001fcd4       _RtlUnwind@16              10020cd4 f   kernel32:KERNEL32.dll
 0001:0001fcda       _HeapFree@12               10020cda f   kernel32:KERNEL32.dll
 0001:0001fce0       _HeapAlloc@12              10020ce0 f   kernel32:KERNEL32.dll
 0001:0001fce6       _RaiseException@16         10020ce6 f   kernel32:KERNEL32.dll
 0001:0001fcec       _GetCommandLineA@0         10020cec f   kernel32:KERNEL32.dll
 0001:0001fcf2       _GetVersion@0              10020cf2 f   kernel32:KERNEL32.dll
 0001:0001fcf8       _ExitProcess@4             10020cf8 f   kernel32:KERNEL32.dll
 0001:0001fcfe       _FatalAppExitA@8           10020cfe f   kernel32:KERNEL32.dll
 0001:0001fd04       _TerminateProcess@8        10020d04 f   kernel32:KERNEL32.dll
 0001:0001fd0a       _GetCurrentProcess@0       10020d0a f   kernel32:KERNEL32.dll
 0001:0001fd10       _HeapReAlloc@16            10020d10 f   kernel32:KERNEL32.dll
 0001:0001fd16       _HeapSize@12               10020d16 f   kernel32:KERNEL32.dll
 0001:0001fd1c       _GetCurrentThreadId@0      10020d1c f   kernel32:KERNEL32.dll
 0001:0001fd22       _TlsSetValue@8             10020d22 f   kernel32:KERNEL32.dll
 0001:0001fd28       _TlsAlloc@0                10020d28 f   kernel32:KERNEL32.dll
 0001:0001fd2e       _TlsFree@4                 10020d2e f   kernel32:KERNEL32.dll
 0001:0001fd34       _SetLastError@4            10020d34 f   kernel32:KERNEL32.dll
 0001:0001fd3a       _TlsGetValue@4             10020d3a f   kernel32:KERNEL32.dll
 0001:0001fd40       _GetLastError@0            10020d40 f   kernel32:KERNEL32.dll
 0001:0001fd46       _GetCurrentThread@0        10020d46 f   kernel32:KERNEL32.dll
 0001:0001fd4c       _GetModuleHandleA@4        10020d4c f   kernel32:KERNEL32.dll
 0001:0001fd52       _GetEnvironmentVariableA@12 10020d52 f   kernel32:KERNEL32.dll
 0001:0001fd58       _GetVersionExA@4           10020d58 f   kernel32:KERNEL32.dll
 0001:0001fd5e       _HeapDestroy@4             10020d5e f   kernel32:KERNEL32.dll
 0001:0001fd64       _HeapCreate@12             10020d64 f   kernel32:KERNEL32.dll
 0001:0001fd6a       _VirtualFree@12            10020d6a f   kernel32:KERNEL32.dll
 0001:0001fd70       _VirtualAlloc@16           10020d70 f   kernel32:KERNEL32.dll
 0001:0001fd76       _IsBadWritePtr@8           10020d76 f   kernel32:KERNEL32.dll
 0001:0001fd7c       _GetProcAddress@8          10020d7c f   kernel32:KERNEL32.dll
 0001:0001fd82       _SetUnhandledExceptionFilter@4 10020d82 f   kernel32:KERNEL32.dll
 0001:0001fd88       _SetHandleCount@4          10020d88 f   kernel32:KERNEL32.dll
 0001:0001fd8e       _GetStdHandle@4            10020d8e f   kernel32:KERNEL32.dll
 0001:0001fd94       _GetFileType@4             10020d94 f   kernel32:KERNEL32.dll
 0001:0001fd9a       _GetStartupInfoA@4         10020d9a f   kernel32:KERNEL32.dll
 0001:0001fda0       _FreeEnvironmentStringsA@4 10020da0 f   kernel32:KERNEL32.dll
 0001:0001fda6       _FreeEnvironmentStringsW@4 10020da6 f   kernel32:KERNEL32.dll
 0001:0001fdac       _WideCharToMultiByte@32    10020dac f   kernel32:KERNEL32.dll
 0001:0001fdb2       _GetEnvironmentStrings@0   10020db2 f   kernel32:KERNEL32.dll
 0001:0001fdb8       _GetEnvironmentStringsW@0  10020db8 f   kernel32:KERNEL32.dll
 0001:0001fdbe       _WriteFile@20              10020dbe f   kernel32:KERNEL32.dll
 0001:0001fdc4       _SetFilePointer@16         10020dc4 f   kernel32:KERNEL32.dll
 0001:0001fdca       _FlushFileBuffers@4        10020dca f   kernel32:KERNEL32.dll
 0001:0001fdd0       _CloseHandle@4             10020dd0 f   kernel32:KERNEL32.dll
 0001:0001fdd6       _GetCPInfo@8               10020dd6 f   kernel32:KERNEL32.dll
 0001:0001fddc       _IsValidLocale@8           10020ddc f   kernel32:KERNEL32.dll
 0001:0001fde2       _IsValidCodePage@4         10020de2 f   kernel32:KERNEL32.dll
 0001:0001fde8       _GetLocaleInfoA@16         10020de8 f   kernel32:KERNEL32.dll
 0001:0001fdee       _EnumSystemLocalesA@8      10020dee f   kernel32:KERNEL32.dll
 0001:0001fdf4       _GetUserDefaultLCID@0      10020df4 f   kernel32:KERNEL32.dll
 0001:0001fdfa       _IsBadReadPtr@8            10020dfa f   kernel32:KERNEL32.dll
 0001:0001fe00       _IsBadCodePtr@4            10020e00 f   kernel32:KERNEL32.dll
 0001:0001fe06       _UnhandledExceptionFilter@4 10020e06 f   kernel32:KERNEL32.dll
 0001:0001fe0c       _GetStringTypeA@20         10020e0c f   kernel32:KERNEL32.dll
 0001:0001fe12       _GetStringTypeW@16         10020e12 f   kernel32:KERNEL32.dll
 0001:0001fe18       _GetACP@0                  10020e18 f   kernel32:KERNEL32.dll
 0001:0001fe1e       _GetOEMCP@0                10020e1e f   kernel32:KERNEL32.dll
 0001:0001fe24       _LoadLibraryA@4            10020e24 f   kernel32:KERNEL32.dll
 0001:0001fe2a       _SetStdHandle@8            10020e2a f   kernel32:KERNEL32.dll
 0001:0001fe30       _ReadFile@20               10020e30 f   kernel32:KERNEL32.dll
 0001:0001fe36       _SetConsoleCtrlHandler@8   10020e36 f   kernel32:KERNEL32.dll
 0001:0001fe3c       _LCMapStringA@24           10020e3c f   kernel32:KERNEL32.dll
 0001:0001fe42       _LCMapStringW@24           10020e42 f   kernel32:KERNEL32.dll
 0001:0001fe48       _GetTimeZoneInformation@4  10020e48 f   kernel32:KERNEL32.dll
 0001:0001fe4e       _GetLocaleInfoW@16         10020e4e f   kernel32:KERNEL32.dll
 0001:0001fe54       _CompareStringA@24         10020e54 f   kernel32:KERNEL32.dll
 0001:0001fe5a       _CompareStringW@24         10020e5a f   kernel32:KERNEL32.dll
 0001:0001fe60       _SetEnvironmentVariableA@8 10020e60 f   kernel32:KERNEL32.dll
 0001:0001fe66       _MessageBoxA@16            10020e66 f   user32:USER32.dll
 0001:0001fe6c       _SendMessageA@16           10020e6c f   user32:USER32.dll
 0001:0001fe72       _CreateWindowExA@48        10020e72 f   user32:USER32.dll
 0001:0001fe78       _RegisterClassA@4          10020e78 f   user32:USER32.dll
 0001:0001fe7e       _DestroyWindow@4           10020e7e f   user32:USER32.dll
 0001:0001fe84       _IsWindow@4                10020e84 f   user32:USER32.dll
 0001:0001fe8a       _DefWindowProcA@16         10020e8a f   user32:USER32.dll
 0001:0001fe90       _wsprintfA                 10020e90 f   user32:USER32.dll
 0001:0001fe96       _FindWindowA@8             10020e96 f   user32:USER32.dll
 0001:0001fe9c       _SetWindowLongA@12         10020e9c f   user32:USER32.dll
 0001:0001fea2       _GetWindowLongA@8          10020ea2 f   user32:USER32.dll
 0001:0001fea8       _GetStockObject@4          10020ea8 f   gdi32:GDI32.dll
 0002:00000000       __imp__BNCS32RxMessage     10023000     bncsif32:BNCSIF32.dll
 0002:00000004       __imp__BNCS32TxMessage     10023004     bncsif32:BNCSIF32.dll
 0002:00000008       \177BNCSIF32_NULL_THUNK_DATA 10023008     bncsif32:BNCSIF32.dll
 0002:0000000c       __imp__GetStockObject@4    1002300c     gdi32:GDI32.dll
 0002:00000010       \177GDI32_NULL_THUNK_DATA  10023010     gdi32:GDI32.dll
 0002:00000014       __imp__GetFileType@4       10023014     kernel32:KERNEL32.dll
 0002:00000018       __imp__lstrcpynA@12        10023018     kernel32:KERNEL32.dll
 0002:0000001c       __imp__lstrlenA@4          1002301c     kernel32:KERNEL32.dll
 0002:00000020       __imp__lstrcpyA@8          10023020     kernel32:KERNEL32.dll
 0002:00000024       __imp__lstrcmpA@8          10023024     kernel32:KERNEL32.dll
 0002:00000028       __imp__EnterCriticalSection@4 10023028     kernel32:KERNEL32.dll
 0002:0000002c       __imp__Sleep@4             1002302c     kernel32:KERNEL32.dll
 0002:00000030       __imp__InitializeCriticalSection@4 10023030     kernel32:KERNEL32.dll
 0002:00000034       __imp__InterlockedExchange@8 10023034     kernel32:KERNEL32.dll
 0002:00000038       __imp__DeleteCriticalSection@4 10023038     kernel32:KERNEL32.dll
 0002:0000003c       __imp__LeaveCriticalSection@4 1002303c     kernel32:KERNEL32.dll
 0002:00000040       __imp__SetEnvironmentVariableA@8 10023040     kernel32:KERNEL32.dll
 0002:00000044       __imp__CompareStringW@24   10023044     kernel32:KERNEL32.dll
 0002:00000048       __imp__CompareStringA@24   10023048     kernel32:KERNEL32.dll
 0002:0000004c       __imp__GetLocaleInfoW@16   1002304c     kernel32:KERNEL32.dll
 0002:00000050       __imp__GetTimeZoneInformation@4 10023050     kernel32:KERNEL32.dll
 0002:00000054       __imp__LCMapStringW@24     10023054     kernel32:KERNEL32.dll
 0002:00000058       __imp__LCMapStringA@24     10023058     kernel32:KERNEL32.dll
 0002:0000005c       __imp__SetConsoleCtrlHandler@8 1002305c     kernel32:KERNEL32.dll
 0002:00000060       __imp__ReadFile@20         10023060     kernel32:KERNEL32.dll
 0002:00000064       __imp__SetStdHandle@8      10023064     kernel32:KERNEL32.dll
 0002:00000068       __imp__LoadLibraryA@4      10023068     kernel32:KERNEL32.dll
 0002:0000006c       __imp__GetOEMCP@0          1002306c     kernel32:KERNEL32.dll
 0002:00000070       __imp__GetACP@0            10023070     kernel32:KERNEL32.dll
 0002:00000074       __imp__GetStringTypeW@16   10023074     kernel32:KERNEL32.dll
 0002:00000078       __imp__GetStringTypeA@20   10023078     kernel32:KERNEL32.dll
 0002:0000007c       __imp__UnhandledExceptionFilter@4 1002307c     kernel32:KERNEL32.dll
 0002:00000080       __imp__IsBadCodePtr@4      10023080     kernel32:KERNEL32.dll
 0002:00000084       __imp__IsBadReadPtr@8      10023084     kernel32:KERNEL32.dll
 0002:00000088       __imp__GetUserDefaultLCID@0 10023088     kernel32:KERNEL32.dll
 0002:0000008c       __imp__EnumSystemLocalesA@8 1002308c     kernel32:KERNEL32.dll
 0002:00000090       __imp__GetLocaleInfoA@16   10023090     kernel32:KERNEL32.dll
 0002:00000094       __imp__IsValidCodePage@4   10023094     kernel32:KERNEL32.dll
 0002:00000098       __imp__IsValidLocale@8     10023098     kernel32:KERNEL32.dll
 0002:0000009c       __imp__GetCPInfo@8         1002309c     kernel32:KERNEL32.dll
 0002:000000a0       __imp__CloseHandle@4       100230a0     kernel32:KERNEL32.dll
 0002:000000a4       __imp__FlushFileBuffers@4  100230a4     kernel32:KERNEL32.dll
 0002:000000a8       __imp__SetFilePointer@16   100230a8     kernel32:KERNEL32.dll
 0002:000000ac       __imp__WriteFile@20        100230ac     kernel32:KERNEL32.dll
 0002:000000b0       __imp__GetEnvironmentStringsW@0 100230b0     kernel32:KERNEL32.dll
 0002:000000b4       __imp__GetEnvironmentStrings@0 100230b4     kernel32:KERNEL32.dll
 0002:000000b8       __imp__WideCharToMultiByte@32 100230b8     kernel32:KERNEL32.dll
 0002:000000bc       __imp__FreeEnvironmentStringsW@4 100230bc     kernel32:KERNEL32.dll
 0002:000000c0       __imp__FreeEnvironmentStringsA@4 100230c0     kernel32:KERNEL32.dll
 0002:000000c4       __imp__GetStartupInfoA@4   100230c4     kernel32:KERNEL32.dll
 0002:000000c8       __imp__GetModuleFileNameA@12 100230c8     kernel32:KERNEL32.dll
 0002:000000cc       __imp__GetStdHandle@4      100230cc     kernel32:KERNEL32.dll
 0002:000000d0       __imp__SetHandleCount@4    100230d0     kernel32:KERNEL32.dll
 0002:000000d4       __imp__SetUnhandledExceptionFilter@4 100230d4     kernel32:KERNEL32.dll
 0002:000000d8       __imp__GetProcAddress@8    100230d8     kernel32:KERNEL32.dll
 0002:000000dc       __imp__IsBadWritePtr@8     100230dc     kernel32:KERNEL32.dll
 0002:000000e0       __imp__VirtualAlloc@16     100230e0     kernel32:KERNEL32.dll
 0002:000000e4       __imp__VirtualFree@12      100230e4     kernel32:KERNEL32.dll
 0002:000000e8       __imp__HeapCreate@12       100230e8     kernel32:KERNEL32.dll
 0002:000000ec       __imp__HeapDestroy@4       100230ec     kernel32:KERNEL32.dll
 0002:000000f0       __imp__GetVersionExA@4     100230f0     kernel32:KERNEL32.dll
 0002:000000f4       __imp__GetEnvironmentVariableA@12 100230f4     kernel32:KERNEL32.dll
 0002:000000f8       __imp__GetModuleHandleA@4  100230f8     kernel32:KERNEL32.dll
 0002:000000fc       __imp__GetCurrentThread@0  100230fc     kernel32:KERNEL32.dll
 0002:00000100       __imp__GetLastError@0      10023100     kernel32:KERNEL32.dll
 0002:00000104       __imp__TlsGetValue@4       10023104     kernel32:KERNEL32.dll
 0002:00000108       __imp__SetLastError@4      10023108     kernel32:KERNEL32.dll
 0002:0000010c       __imp__TlsFree@4           1002310c     kernel32:KERNEL32.dll
 0002:00000110       __imp__TlsAlloc@0          10023110     kernel32:KERNEL32.dll
 0002:00000114       __imp__TlsSetValue@8       10023114     kernel32:KERNEL32.dll
 0002:00000118       __imp__GetCurrentThreadId@0 10023118     kernel32:KERNEL32.dll
 0002:0000011c       __imp__HeapSize@12         1002311c     kernel32:KERNEL32.dll
 0002:00000120       __imp__HeapReAlloc@16      10023120     kernel32:KERNEL32.dll
 0002:00000124       __imp__GetCurrentProcess@0 10023124     kernel32:KERNEL32.dll
 0002:00000128       __imp__TerminateProcess@8  10023128     kernel32:KERNEL32.dll
 0002:0000012c       __imp__FatalAppExitA@8     1002312c     kernel32:KERNEL32.dll
 0002:00000130       __imp__ExitProcess@4       10023130     kernel32:KERNEL32.dll
 0002:00000134       __imp__GetVersion@0        10023134     kernel32:KERNEL32.dll
 0002:00000138       __imp__GetCommandLineA@0   10023138     kernel32:KERNEL32.dll
 0002:0000013c       __imp__RaiseException@16   1002313c     kernel32:KERNEL32.dll
 0002:00000140       __imp__HeapAlloc@12        10023140     kernel32:KERNEL32.dll
 0002:00000144       __imp__HeapFree@12         10023144     kernel32:KERNEL32.dll
 0002:00000148       __imp__RtlUnwind@16        10023148     kernel32:KERNEL32.dll
 0002:0000014c       __imp__MultiByteToWideChar@24 1002314c     kernel32:KERNEL32.dll
 0002:00000150       __imp__InterlockedIncrement@4 10023150     kernel32:KERNEL32.dll
 0002:00000154       __imp__InterlockedDecrement@4 10023154     kernel32:KERNEL32.dll
 0002:00000158       \177KERNEL32_NULL_THUNK_DATA 10023158     kernel32:KERNEL32.dll
 0002:0000015c       __imp__MessageBoxA@16      1002315c     user32:USER32.dll
 0002:00000160       __imp__SendMessageA@16     10023160     user32:USER32.dll
 0002:00000164       __imp__CreateWindowExA@48  10023164     user32:USER32.dll
 0002:00000168       __imp__RegisterClassA@4    10023168     user32:USER32.dll
 0002:0000016c       __imp__DestroyWindow@4     1002316c     user32:USER32.dll
 0002:00000170       __imp__IsWindow@4          10023170     user32:USER32.dll
 0002:00000174       __imp__DefWindowProcA@16   10023174     user32:USER32.dll
 0002:00000178       __imp__wsprintfA           10023178     user32:USER32.dll
 0002:0000017c       __imp__FindWindowA@8       1002317c     user32:USER32.dll
 0002:00000180       __imp__SetWindowLongA@12   10023180     user32:USER32.dll
 0002:00000184       __imp__GetWindowLongA@8    10023184     user32:USER32.dll
 0002:00000188       \177USER32_NULL_THUNK_DATA 10023188     user32:USER32.dll
 0002:0000018c       __imp_?insertAfter@QDomNode@@UAE?AV1@ABV1@0@Z 1002318c     qt-mt323:qt-mt323.dll
 0002:00000190       __imp_?insertBefore@QDomNode@@UAE?AV1@ABV1@0@Z 10023190     qt-mt323:qt-mt323.dll
 0002:00000194       __imp_?write@QGDict@@MBEAAVQDataStream@@AAV2@PAX@Z 10023194     qt-mt323:qt-mt323.dll
 0002:00000198       __imp_?read@QGDict@@MAEAAVQDataStream@@AAV2@AAPAX@Z 10023198     qt-mt323:qt-mt323.dll
 0002:0000019c       __imp_?newItem@QPtrCollection@@MAEPAXPAX@Z 1002319c     qt-mt323:qt-mt323.dll
 0002:000001a0       __imp_??1QDomNode@@UAE@XZ  100231a0     qt-mt323:qt-mt323.dll
 0002:000001a4       __imp_??4QDomNode@@QAEAAV0@ABV0@@Z 100231a4     qt-mt323:qt-mt323.dll
 0002:000001a8       __imp_?look_string@QGDict@@QAEPAXABVQString@@PAXH@Z 100231a8     qt-mt323:qt-mt323.dll
 0002:000001ac       __imp_?mid@QString@@QBE?AV1@II@Z 100231ac     qt-mt323:qt-mt323.dll
 0002:000001b0       __imp_?left@QString@@QBE?AV1@I@Z 100231b0     qt-mt323:qt-mt323.dll
 0002:000001b4       __imp_?find@QString@@QBEHVQChar@@H_N@Z 100231b4     qt-mt323:qt-mt323.dll
 0002:000001b8       __imp_??0QChar@@QAE@D@Z    100231b8     qt-mt323:qt-mt323.dll
 0002:000001bc       __imp_??1QDomElement@@UAE@XZ 100231bc     qt-mt323:qt-mt323.dll
 0002:000001c0       __imp_?toElement@QDomNode@@QAE?AVQDomElement@@XZ 100231c0     qt-mt323:qt-mt323.dll
 0002:000001c4       __imp_?attribute@QDomElement@@QBE?AVQString@@ABV2@0@Z 100231c4     qt-mt323:qt-mt323.dll
 0002:000001c8       __imp_?isNull@QDomNode@@QBE_NXZ 100231c8     qt-mt323:qt-mt323.dll
 0002:000001cc       __imp_??1QDomDocument@@UAE@XZ 100231cc     qt-mt323:qt-mt323.dll
 0002:000001d0       __imp_?tagName@QDomElement@@QBE?AVQString@@XZ 100231d0     qt-mt323:qt-mt323.dll
 0002:000001d4       __imp_?documentElement@QDomDocument@@QBE?AVQDomElement@@XZ 100231d4     qt-mt323:qt-mt323.dll
 0002:000001d8       __imp_?close@QFile@@UAEXXZ 100231d8     qt-mt323:qt-mt323.dll
 0002:000001dc       __imp_?setContent@QDomDocument@@QAE_NPAVQIODevice@@PAVQString@@PAH2@Z 100231dc     qt-mt323:qt-mt323.dll
 0002:000001e0       __imp_??0QDomDocument@@QAE@XZ 100231e0     qt-mt323:qt-mt323.dll
 0002:000001e4       __imp_??0QGDict@@IAE@IW4KeyType@0@_N1@Z 100231e4     qt-mt323:qt-mt323.dll
 0002:000001e8       __imp_?arg@QString@@QBE?AV1@HHH@Z 100231e8     qt-mt323:qt-mt323.dll
 0002:000001ec       __imp_?clear@QGDict@@MAEXXZ 100231ec     qt-mt323:qt-mt323.dll
 0002:000001f0       __imp_??1?$QMemArray@VQPoint@@@@UAE@XZ 100231f0     qt-mt323:qt-mt323.dll
 0002:000001f4       __imp_??1?$QPtrList@VQObject@@@@UAE@XZ 100231f4     qt-mt323:qt-mt323.dll
 0002:000001f8       __imp_??1?$QPtrList@VQWidget@@@@UAE@XZ 100231f8     qt-mt323:qt-mt323.dll
 0002:000001fc       __imp_??1QGDict@@MAE@XZ    100231fc     qt-mt323:qt-mt323.dll
 0002:00000200       __imp_?qWarning@@YAXPBDZZ  10023200     qt-mt323:qt-mt323.dll
 0002:00000204       __imp_??1QMutex@@UAE@XZ    10023204     qt-mt323:qt-mt323.dll
 0002:00000208       __imp_??1QDataStream@@UAE@XZ 10023208     qt-mt323:qt-mt323.dll
 0002:0000020c       __imp_??H@YA?BVQString@@ABV0@D@Z 1002320c     qt-mt323:qt-mt323.dll
 0002:00000210       __imp_?arg@QString@@QBE?AV1@ABV1@H@Z 10023210     qt-mt323:qt-mt323.dll
 0002:00000214       __imp_?mkdir@QDir@@UBE_NABVQString@@_N@Z 10023214     qt-mt323:qt-mt323.dll
 0002:00000218       __imp_?exists@QDir@@UBE_NXZ 10023218     qt-mt323:qt-mt323.dll
 0002:0000021c       __imp_??0QMutex@@QAE@_N@Z  1002321c     qt-mt323:qt-mt323.dll
 0002:00000220       __imp_??0QDataStream@@QAE@XZ 10023220     qt-mt323:qt-mt323.dll
 0002:00000224       __imp_??1QMutexLocker@@QAE@XZ 10023224     qt-mt323:qt-mt323.dll
 0002:00000228       __imp_?unlock@QMutex@@QAEXXZ 10023228     qt-mt323:qt-mt323.dll
 0002:0000022c       __imp_?lock@QMutex@@QAEXXZ 1002322c     qt-mt323:qt-mt323.dll
 0002:00000230       __imp_?exists@QFile@@QBE_NXZ 10023230     qt-mt323:qt-mt323.dll
 0002:00000234       __imp_?remove@QFile@@QAE_NXZ 10023234     qt-mt323:qt-mt323.dll
 0002:00000238       __imp_?ungetch@QFile@@UAEHH@Z 10023238     qt-mt323:qt-mt323.dll
 0002:0000023c       __imp_?putch@QFile@@UAEHH@Z 1002323c     qt-mt323:qt-mt323.dll
 0002:00000240       __imp_?getch@QFile@@UAEHXZ 10023240     qt-mt323:qt-mt323.dll
 0002:00000244       __imp_?readAll@QIODevice@@UAE?AV?$QMemArray@D@@XZ 10023244     qt-mt323:qt-mt323.dll
 0002:00000248       __imp_?readLine@QFile@@UAEJPADK@Z 10023248     qt-mt323:qt-mt323.dll
 0002:0000024c       __imp_?writeBlock@QFile@@UAEJPBDK@Z 1002324c     qt-mt323:qt-mt323.dll
 0002:00000250       __imp_?readBlock@QFile@@UAEJPADK@Z 10023250     qt-mt323:qt-mt323.dll
 0002:00000254       __imp_?atEnd@QFile@@UBE_NXZ 10023254     qt-mt323:qt-mt323.dll
 0002:00000258       __imp_?at@QFile@@UBEKXZ    10023258     qt-mt323:qt-mt323.dll
 0002:0000025c       __imp_?at@QFile@@UAE_NK@Z  1002325c     qt-mt323:qt-mt323.dll
 0002:00000260       __imp_?shared_null@QString@@0PAUQStringData@@A 10023260     qt-mt323:qt-mt323.dll
 0002:00000264       __imp_?replaceChild@QDomNode@@UAE?AV1@ABV1@0@Z 10023264     qt-mt323:qt-mt323.dll
 0002:00000268       __imp_?setDevice@QDataStream@@QAEXPAVQIODevice@@@Z 10023268     qt-mt323:qt-mt323.dll
 0002:0000026c       __imp_?replace@QString@@QAEAAV1@ABV1@0@Z 1002326c     qt-mt323:qt-mt323.dll
 0002:00000270       __imp_?compareItems@QGList@@MAEHPAX0@Z 10023270     qt-mt323:qt-mt323.dll
 0002:00000274       __imp_?write@QGList@@MBEAAVQDataStream@@AAV2@PAX@Z 10023274     qt-mt323:qt-mt323.dll
 0002:00000278       __imp_?read@QGList@@MAEAAVQDataStream@@AAV2@AAPAX@Z 10023278     qt-mt323:qt-mt323.dll
 0002:0000027c       __imp_??1QWaitCondition@@UAE@XZ 1002327c     qt-mt323:qt-mt323.dll
 0002:00000280       __imp_??1QThread@@UAE@XZ   10023280     qt-mt323:qt-mt323.dll
 0002:00000284       __imp_??0QGList@@IAE@XZ    10023284     qt-mt323:qt-mt323.dll
 0002:00000288       __imp_??0QSemaphore@@QAE@H@Z 10023288     qt-mt323:qt-mt323.dll
 0002:0000028c       __imp_?finished@QThread@@QBE_NXZ 1002328c     qt-mt323:qt-mt323.dll
 0002:00000290       __imp_?running@QThread@@QBE_NXZ 10023290     qt-mt323:qt-mt323.dll
 0002:00000294       __imp_??0QWaitCondition@@QAE@XZ 10023294     qt-mt323:qt-mt323.dll
 0002:00000298       __imp_??0QThread@@QAE@XZ   10023298     qt-mt323:qt-mt323.dll
 0002:0000029c       __imp_??1QSemaphore@@UAE@XZ 1002329c     qt-mt323:qt-mt323.dll
 0002:000002a0       __imp_??FQSemaphore@@QAEHH@Z 100232a0     qt-mt323:qt-mt323.dll
 0002:000002a4       __imp_?remove@QGList@@IAE_NPAX@Z 100232a4     qt-mt323:qt-mt323.dll
 0002:000002a8       __imp_?first@QGList@@IAEPAXXZ 100232a8     qt-mt323:qt-mt323.dll
 0002:000002ac       __imp_??EQSemaphore@@QAEHH@Z 100232ac     qt-mt323:qt-mt323.dll
 0002:000002b0       __imp_?arg@QString@@QBE?AV1@IHH@Z 100232b0     qt-mt323:qt-mt323.dll
 0002:000002b4       __imp_?terminate@QThread@@QAEXXZ 100232b4     qt-mt323:qt-mt323.dll
 0002:000002b8       __imp_?wait@QThread@@QAE_NK@Z 100232b8     qt-mt323:qt-mt323.dll
 0002:000002bc       __imp_?wakeOne@QWaitCondition@@QAEXXZ 100232bc     qt-mt323:qt-mt323.dll
 0002:000002c0       __imp_?available@QSemaphore@@QBEHXZ 100232c0     qt-mt323:qt-mt323.dll
 0002:000002c4       __imp_?wait@QWaitCondition@@QAE_NK@Z 100232c4     qt-mt323:qt-mt323.dll
 0002:000002c8       __imp_?start@QThread@@QAEXXZ 100232c8     qt-mt323:qt-mt323.dll
 0002:000002cc       __imp_??H@YA?BVQString@@ABV0@0@Z 100232cc     qt-mt323:qt-mt323.dll
 0002:000002d0       __imp_?append@QGList@@IAEXPAX@Z 100232d0     qt-mt323:qt-mt323.dll
 0002:000002d4       __imp_?databaseText@QSqlError@@QBE?AVQString@@XZ 100232d4     qt-mt323:qt-mt323.dll
 0002:000002d8       __imp_?driverText@QSqlError@@QBE?AVQString@@XZ 100232d8     qt-mt323:qt-mt323.dll
 0002:000002dc       __imp_?type@QSqlError@@QBEHXZ 100232dc     qt-mt323:qt-mt323.dll
 0002:000002e0       __imp_?secsTo@QTime@@QBEHABV1@@Z 100232e0     qt-mt323:qt-mt323.dll
 0002:000002e4       __imp_?isOpen@QSqlDatabase@@QBE_NXZ 100232e4     qt-mt323:qt-mt323.dll
 0002:000002e8       __imp_??1QSqlError@@UAE@XZ 100232e8     qt-mt323:qt-mt323.dll
 0002:000002ec       __imp_?lastError@QSqlDatabase@@QBE?AVQSqlError@@XZ 100232ec     qt-mt323:qt-mt323.dll
 0002:000002f0       __imp_?open@QSqlDatabase@@QAE_NXZ 100232f0     qt-mt323:qt-mt323.dll
 0002:000002f4       __imp_?addDatabase@QSqlDatabase@@SAPAV1@ABVQString@@0@Z 100232f4     qt-mt323:qt-mt323.dll
 0002:000002f8       __imp_?libraryPaths@QApplication@@SA?AVQStringList@@XZ 100232f8     qt-mt323:qt-mt323.dll
 0002:000002fc       __imp_?clear@QGList@@MAEXXZ 100232fc     qt-mt323:qt-mt323.dll
 0002:00000300       __imp_??1QGList@@MAE@XZ    10023300     qt-mt323:qt-mt323.dll
 0002:00000304       __imp_??6QDataStream@@QAEAAV0@H@Z 10023304     qt-mt323:qt-mt323.dll
 0002:00000308       __imp_??6@YAAAVQDataStream@@AAV0@ABVQString@@@Z 10023308     qt-mt323:qt-mt323.dll
 0002:0000030c       __imp_??5@YAAAVQDataStream@@AAV0@AAVQString@@@Z 1002330c     qt-mt323:qt-mt323.dll
 0002:00000310       __imp_??5QDataStream@@QAEAAV0@AAH@Z 10023310     qt-mt323:qt-mt323.dll
 0002:00000314       __imp_??1QSqlQuery@@UAE@XZ 10023314     qt-mt323:qt-mt323.dll
 0002:00000318       __imp_?close@QSqlDatabase@@QAEXXZ 10023318     qt-mt323:qt-mt323.dll
 0002:0000031c       __imp_?lastError@QSqlQuery@@QBE?AVQSqlError@@XZ 1002331c     qt-mt323:qt-mt323.dll
 0002:00000320       __imp_?exec@QSqlQuery@@UAE_NABVQString@@@Z 10023320     qt-mt323:qt-mt323.dll
 0002:00000324       __imp_?numRowsAffected@QSqlQuery@@QBEHXZ 10023324     qt-mt323:qt-mt323.dll
 0002:00000328       __imp_??0QSqlQuery@@QAE@ABVQString@@PAVQSqlDatabase@@@Z 10023328     qt-mt323:qt-mt323.dll
 0002:0000032c       __imp_??1QRegExp@@QAE@XZ   1002332c     qt-mt323:qt-mt323.dll
 0002:00000330       __imp_?search@QRegExp@@QBEHABVQString@@H@Z 10023330     qt-mt323:qt-mt323.dll
 0002:00000334       __imp_??0QRegExp@@QAE@ABVQString@@_N1@Z 10023334     qt-mt323:qt-mt323.dll
 0002:00000338       __imp_??YQString@@QAEAAV0@VQChar@@@Z 10023338     qt-mt323:qt-mt323.dll
 0002:0000033c       __imp_?readRawBytes@QDataStream@@QAEAAV1@PADI@Z 1002333c     qt-mt323:qt-mt323.dll
 0002:00000340       __imp_?removeChild@QDomNode@@UAE?AV1@ABV1@@Z 10023340     qt-mt323:qt-mt323.dll
 0002:00000344       __imp_?appendChild@QDomNode@@UAE?AV1@ABV1@@Z 10023344     qt-mt323:qt-mt323.dll
 0002:00000348       __imp_?hasChildNodes@QDomNode@@UBE_NXZ 10023348     qt-mt323:qt-mt323.dll
 0002:0000034c       __imp_?cloneNode@QDomNode@@UBE?AV1@_N@Z 1002334c     qt-mt323:qt-mt323.dll
 0002:00000350       __imp_?normalize@QDomNode@@UAEXXZ 10023350     qt-mt323:qt-mt323.dll
 0002:00000354       __imp_?isSupported@QDomNode@@UBE_NABVQString@@0@Z 10023354     qt-mt323:qt-mt323.dll
 0002:00000358       __imp_?nodeName@QDomNode@@UBE?AVQString@@XZ 10023358     qt-mt323:qt-mt323.dll
 0002:0000035c       __imp_?nodeType@QDomElement@@UBE?AW4NodeType@QDomNode@@XZ 1002335c     qt-mt323:qt-mt323.dll
 0002:00000360       __imp_?parentNode@QDomNode@@UBE?AV1@XZ 10023360     qt-mt323:qt-mt323.dll
 0002:00000364       __imp_?childNodes@QDomNode@@UBE?AVQDomNodeList@@XZ 10023364     qt-mt323:qt-mt323.dll
 0002:00000368       __imp_?firstChild@QDomNode@@UBE?AV1@XZ 10023368     qt-mt323:qt-mt323.dll
 0002:0000036c       __imp_?lastChild@QDomNode@@UBE?AV1@XZ 1002336c     qt-mt323:qt-mt323.dll
 0002:00000370       __imp_?previousSibling@QDomNode@@UBE?AV1@XZ 10023370     qt-mt323:qt-mt323.dll
 0002:00000374       __imp_?nextSibling@QDomNode@@UBE?AV1@XZ 10023374     qt-mt323:qt-mt323.dll
 0002:00000378       __imp_?attributes@QDomElement@@UBE?AVQDomNamedNodeMap@@XZ 10023378     qt-mt323:qt-mt323.dll
 0002:0000037c       __imp_?ownerDocument@QDomNode@@UBE?AVQDomDocument@@XZ 1002337c     qt-mt323:qt-mt323.dll
 0002:00000380       __imp_?namespaceURI@QDomNode@@UBE?AVQString@@XZ 10023380     qt-mt323:qt-mt323.dll
 0002:00000384       __imp_?localName@QDomNode@@UBE?AVQString@@XZ 10023384     qt-mt323:qt-mt323.dll
 0002:00000388       __imp_?hasAttributes@QDomNode@@UBE_NXZ 10023388     qt-mt323:qt-mt323.dll
 0002:0000038c       __imp_?nodeValue@QDomNode@@UBE?AVQString@@XZ 1002338c     qt-mt323:qt-mt323.dll
 0002:00000390       __imp_?setNodeValue@QDomNode@@UAEXABVQString@@@Z 10023390     qt-mt323:qt-mt323.dll
 0002:00000394       __imp_?prefix@QDomNode@@UBE?AVQString@@XZ 10023394     qt-mt323:qt-mt323.dll
 0002:00000398       __imp_?setPrefix@QDomNode@@UAEXABVQString@@@Z 10023398     qt-mt323:qt-mt323.dll
 0002:0000039c       __imp_?isAttr@QDomNode@@UBE_NXZ 1002339c     qt-mt323:qt-mt323.dll
 0002:000003a0       __imp_?isCDATASection@QDomNode@@UBE_NXZ 100233a0     qt-mt323:qt-mt323.dll
 0002:000003a4       __imp_?isDocumentFragment@QDomNode@@UBE_NXZ 100233a4     qt-mt323:qt-mt323.dll
 0002:000003a8       __imp_?isDocument@QDomNode@@UBE_NXZ 100233a8     qt-mt323:qt-mt323.dll
 0002:000003ac       __imp_?isDocumentType@QDomNode@@UBE_NXZ 100233ac     qt-mt323:qt-mt323.dll
 0002:000003b0       __imp_?isElement@QDomElement@@UBE_NXZ 100233b0     qt-mt323:qt-mt323.dll
 0002:000003b4       __imp_?isEntityReference@QDomNode@@UBE_NXZ 100233b4     qt-mt323:qt-mt323.dll
 0002:000003b8       __imp_?isText@QDomNode@@UBE_NXZ 100233b8     qt-mt323:qt-mt323.dll
 0002:000003bc       __imp_?isEntity@QDomNode@@UBE_NXZ 100233bc     qt-mt323:qt-mt323.dll
 0002:000003c0       __imp_?isNotation@QDomNode@@UBE_NXZ 100233c0     qt-mt323:qt-mt323.dll
 0002:000003c4       __imp_?isProcessingInstruction@QDomNode@@UBE_NXZ 100233c4     qt-mt323:qt-mt323.dll
 0002:000003c8       __imp_?isCharacterData@QDomNode@@UBE_NXZ 100233c8     qt-mt323:qt-mt323.dll
 0002:000003cc       __imp_?isComment@QDomNode@@UBE_NXZ 100233cc     qt-mt323:qt-mt323.dll
 0002:000003d0       __imp_?elementsByTagName@QDomElement@@UBE?AVQDomNodeList@@ABVQString@@@Z 100233d0     qt-mt323:qt-mt323.dll
 0002:000003d4       __imp_?elementsByTagNameNS@QDomElement@@UBE?AVQDomNodeList@@ABVQString@@0@Z 100233d4     qt-mt323:qt-mt323.dll
 0002:000003d8       __imp_?contains@QString@@QBEHPBD_N@Z 100233d8     qt-mt323:qt-mt323.dll
 0002:000003dc       __imp_?section@QString@@QBE?AV1@PBDHHH@Z 100233dc     qt-mt323:qt-mt323.dll
 0002:000003e0       __imp_?drivers@QSqlDatabase@@SA?AVQStringList@@XZ 100233e0     qt-mt323:qt-mt323.dll
 0002:000003e4       __imp_?qApp@@3PAVQApplication@@A 100233e4     qt-mt323:qt-mt323.dll
 0002:000003e8       __imp_??0?$QValueList@VQString@@@@QAE@XZ 100233e8     qt-mt323:qt-mt323.dll
 0002:000003ec       __imp_?remove@QString@@QAEAAV1@VQChar@@@Z 100233ec     qt-mt323:qt-mt323.dll
 0002:000003f0       __imp_?split@QStringList@@SA?AV1@ABVQChar@@ABVQString@@_N@Z 100233f0     qt-mt323:qt-mt323.dll
 0002:000003f4       __imp_?detachInternal@?$QValueList@VQString@@@@AAEXXZ 100233f4     qt-mt323:qt-mt323.dll
 0002:000003f8       __imp_?toInt@QString@@QBEHPA_NH@Z 100233f8     qt-mt323:qt-mt323.dll
 0002:000003fc       __imp_?currentDateTime@QDateTime@@SA?AV1@XZ 100233fc     qt-mt323:qt-mt323.dll
 0002:00000400       __imp_?number@QString@@SA?AV1@HH@Z 10023400     qt-mt323:qt-mt323.dll
 0002:00000404       __imp_?toString@QDateTime@@QBE?AVQString@@ABV2@@Z 10023404     qt-mt323:qt-mt323.dll
 0002:00000408       __imp_?msec@QTime@@QBEHXZ  10023408     qt-mt323:qt-mt323.dll
 0002:0000040c       __imp_??YQString@@QAEAAV0@ABV0@@Z 1002340c     qt-mt323:qt-mt323.dll
 0002:00000410       __imp_?ascii@QString@@QBEPBDXZ 10023410     qt-mt323:qt-mt323.dll
 0002:00000414       __imp_?qDebug@@YAXPBDZZ    10023414     qt-mt323:qt-mt323.dll
 0002:00000418       __imp_??8@YA_NABVQString@@0@Z 10023418     qt-mt323:qt-mt323.dll
 0002:0000041c       __imp_??0QFileInfo@@QAE@ABVQString@@@Z 1002341c     qt-mt323:qt-mt323.dll
 0002:00000420       __imp_??0QFile@@QAE@ABVQString@@@Z 10023420     qt-mt323:qt-mt323.dll
 0002:00000424       __imp_?isFile@QFileInfo@@QBE_NXZ 10023424     qt-mt323:qt-mt323.dll
 0002:00000428       __imp_??1QFile@@UAE@XZ     10023428     qt-mt323:qt-mt323.dll
 0002:0000042c       __imp_??1QFileInfo@@QAE@XZ 1002342c     qt-mt323:qt-mt323.dll
 0002:00000430       __imp_?dirPath@QFileInfo@@QBE?AVQString@@_N@Z 10023430     qt-mt323:qt-mt323.dll
 0002:00000434       __imp_??YQString@@QAEAAV0@PBD@Z 10023434     qt-mt323:qt-mt323.dll
 0002:00000438       __imp_?null@QString@@2V1@A 10023438     qt-mt323:qt-mt323.dll
 0002:0000043c       __imp_??0QDir@@QAE@ABVQString@@0HH@Z 1002343c     qt-mt323:qt-mt323.dll
 0002:00000440       __imp_?dirName@QDir@@UBE?AVQString@@XZ 10023440     qt-mt323:qt-mt323.dll
 0002:00000444       __imp_??H@YA?BVQString@@ABV0@PBD@Z 10023444     qt-mt323:qt-mt323.dll
 0002:00000448       __imp_?currentTime@QTime@@SA?AV1@XZ 10023448     qt-mt323:qt-mt323.dll
 0002:0000044c       __imp_?open@QFile@@UAE_NH@Z 1002344c     qt-mt323:qt-mt323.dll
 0002:00000450       __imp_??0QTextStream@@QAE@PAVQIODevice@@@Z 10023450     qt-mt323:qt-mt323.dll
 0002:00000454       __imp_?readLine@QTextStream@@QAE?AVQString@@XZ 10023454     qt-mt323:qt-mt323.dll
 0002:00000458       __imp_??4QString@@QAEAAV0@ABV0@@Z 10023458     qt-mt323:qt-mt323.dll
 0002:0000045c       __imp_?startsWith@QString@@QBE_NABV1@@Z 1002345c     qt-mt323:qt-mt323.dll
 0002:00000460       __imp_?endsWith@QString@@QBE_NABV1@@Z 10023460     qt-mt323:qt-mt323.dll
 0002:00000464       __imp_??9@YA_NABVQString@@PBD@Z 10023464     qt-mt323:qt-mt323.dll
 0002:00000468       __imp_?remove@QString@@QAEAAV1@II@Z 10023468     qt-mt323:qt-mt323.dll
 0002:0000046c       __imp_??8@YA_NABVQString@@PBD@Z 1002346c     qt-mt323:qt-mt323.dll
 0002:00000470       __imp_??1QTextStream@@UAE@XZ 10023470     qt-mt323:qt-mt323.dll
 0002:00000474       __imp_?msecsTo@QTime@@QBEHABV1@@Z 10023474     qt-mt323:qt-mt323.dll
 0002:00000478       __imp_??1QDir@@UAE@XZ      10023478     qt-mt323:qt-mt323.dll
 0002:0000047c       __imp_?number@QString@@SA?AV1@IH@Z 1002347c     qt-mt323:qt-mt323.dll
 0002:00000480       __imp_??H@YA?BVQString@@PBDABV0@@Z 10023480     qt-mt323:qt-mt323.dll
 0002:00000484       __imp_?makeSharedNull@QString@@CAPAUQStringData@@XZ 10023484     qt-mt323:qt-mt323.dll
 0002:00000488       __imp_??0QString@@QAE@ABV0@@Z 10023488     qt-mt323:qt-mt323.dll
 0002:0000048c       __imp_??0QString@@QAE@XZ   1002348c     qt-mt323:qt-mt323.dll
 0002:00000490       __imp_??4QString@@QAEAAV0@PBD@Z 10023490     qt-mt323:qt-mt323.dll
 0002:00000494       __imp_?latin1@QString@@QBEPBDXZ 10023494     qt-mt323:qt-mt323.dll
 0002:00000498       __imp_??1QString@@QAE@XZ   10023498     qt-mt323:qt-mt323.dll
 0002:0000049c       __imp_??1QStringList@@QAE@XZ 1002349c     qt-mt323:qt-mt323.dll
 0002:000004a0       __imp_??1?$QPtrList@D@@UAE@XZ 100234a0     qt-mt323:qt-mt323.dll
 0002:000004a4       __imp_??1?$QMemArray@D@@UAE@XZ 100234a4     qt-mt323:qt-mt323.dll
 0002:000004a8       __imp_??1?$QMemArray@_N@@UAE@XZ 100234a8     qt-mt323:qt-mt323.dll
 0002:000004ac       __imp_??1?$QMemArray@H@@UAE@XZ 100234ac     qt-mt323:qt-mt323.dll
 0002:000004b0       __imp_?flush@QFile@@UAEXXZ 100234b0     qt-mt323:qt-mt323.dll
 0002:000004b4       __imp_??0QString@@QAE@PBD@Z 100234b4     qt-mt323:qt-mt323.dll
 0002:000004b8       __imp_?deleteSelf@QStringData@@QAEXXZ 100234b8     qt-mt323:qt-mt323.dll
 0002:000004bc       __imp_?size@QFile@@UBEKXZ  100234bc     qt-mt323:qt-mt323.dll
 0002:000004c0       \177qt-mt323_NULL_THUNK_DATA 100234c0     qt-mt323:qt-mt323.dll
 0002:000004f0       ??_7alm_db_outputif@@6BcDriver@@@ 100234f0     alm_db_output_if.obj
 0002:000004f8       ??_7alm_db_outputif@@6Balarms_output_base@@@ 100234f8     alm_db_output_if.obj
 0002:00000550       ??_7?$QValueListNode@VQString@@@@6B@ 10023550     alm_db_output_if.obj
 0002:00000558       ??_7?$QValueListPrivate@VQString@@@@6B@ 10023558     alm_db_output_if.obj
 0002:00000560       ??_7alarms_output_base@@6B@ 10023560     alm_db_output_if.obj
 0002:000005b8       ??_7alarms_base@@6B@       100235b8     alm_db_output_if.obj
 0002:000005e8       __real@8@3ff583126e978d4fe000 100235e8     alm_db_output_if.obj
 0002:000005f4       ??_SQDomElement@@6B@       100235f4     alm_db_output_if.obj
 0002:000006a0       ??_7?$QDict@UInstanceData@@@@6B@ 100236a0     alm_db_output_if.obj
 0002:000006c0       ??_7Cio@@6B@               100236c0     Cio.obj
 0002:000006c8       ??_7FilePair@Cio@@6B@      100236c8     Cio.obj
 0002:000006d0       ??_SQFile@@6B@             100236d0     Cio.obj
 0002:00000710       ??_7cLogData@@6B@          10023710     cLogData.obj
 0002:00000718       ??_7?$QPtrList@VdbItem@@@@6B@ 10023718     db_interface.obj
 0002:0000073c       ??_SQSemaphore@@6B@        1002373c     db_interface.obj
 0002:00000744       ??_7db_interface@@6BIDiagnostics@@@ 10023744     db_interface.obj
 0002:00000754       ??_7db_interface@@6BQThread@@@ 10023754     db_interface.obj
 0002:00000760       ??_7IDiagnostics@@6B@      10023760     db_interface.obj
 0002:00000770       ??_7DbConnect@@6BIDiagnostics@@@ 10023770     db_interface.obj
 0002:00000780       ??_7DbConnect@@6BQThread@@@ 10023780     db_interface.obj
 0002:0000078c       ??_7dbItem@@6B@            1002378c     dbItem.obj
 0002:00000794       ??_7Validate_Date@@6B@     10023794     dbItem.obj
 0002:00000798       ??_7cDriver@@6B@           10023798     cdriver:extdrv.obj
 0002:000007a0       ??_7?$basic_istream@DU?$char_traits@D@std@@@std@@6B@ 100237a0     libcpmt:iostream.obj
 0002:000007a8       ??_7?$basic_ostream@DU?$char_traits@D@std@@@std@@6B@ 100237a8     libcpmt:iostream.obj
 0002:000007b0       ??_7?$basic_ios@DU?$char_traits@D@std@@@std@@6B@ 100237b0     libcpmt:iostream.obj
 0002:000007b4       ??_8?$basic_ostream@DU?$char_traits@D@std@@@std@@7B@ 100237b4     libcpmt:iostream.obj
 0002:000007bc       ??_8?$basic_istream@DU?$char_traits@D@std@@@std@@7B@ 100237bc     libcpmt:iostream.obj
 0002:000007c8       ??_7?$basic_filebuf@DU?$char_traits@D@std@@@std@@6B@ 100237c8     libcpmt:iostream.obj
 0002:00000800       ??_7?$basic_streambuf@DU?$char_traits@D@std@@@std@@6B@ 10023800     libcpmt:iostream.obj
 0002:00000834       ?npos@?$basic_string@DU?$char_traits@D@std@@V?$allocator@D@2@@std@@2IB 10023834     libcpmt:iostream.obj
 0002:0000083c       ??_7?$basic_istream@GU?$char_traits@G@std@@@std@@6B@ 1002383c     libcpmt:wiostrea.obj
 0002:00000844       ??_7?$basic_ostream@GU?$char_traits@G@std@@@std@@6B@ 10023844     libcpmt:wiostrea.obj
 0002:0000084c       ??_7?$basic_ios@GU?$char_traits@G@std@@@std@@6B@ 1002384c     libcpmt:wiostrea.obj
 0002:00000850       ??_8?$basic_ostream@GU?$char_traits@G@std@@@std@@7B@ 10023850     libcpmt:wiostrea.obj
 0002:00000858       ??_8?$basic_istream@GU?$char_traits@G@std@@@std@@7B@ 10023858     libcpmt:wiostrea.obj
 0002:00000864       ??_7?$basic_filebuf@GU?$char_traits@G@std@@@std@@6B@ 10023864     libcpmt:wiostrea.obj
 0002:0000089c       ??_7?$basic_streambuf@GU?$char_traits@G@std@@@std@@6B@ 1002389c     libcpmt:wiostrea.obj
 0002:000008d0       ?_Fpz@std@@3_JB            100238d0     libcpmt:ios.obj
 0002:000008dc       ??_7failure@ios_base@std@@6B@ 100238dc     libcpmt:ios.obj
 0002:000008e8       ??_C@_0BA@NGIA@ios?3?3eofbit?5set?$AA@ 100238e8     libcpmt:ios.obj
 0002:000008f8       ??_C@_0BB@KPBH@ios?3?3failbit?5set?$AA@ 100238f8     libcpmt:ios.obj
 0002:0000090c       ??_C@_0BA@HGGD@ios?3?3badbit?5set?$AA@ 1002390c     libcpmt:ios.obj
 0002:00000920       ??_7runtime_error@std@@6B@ 10023920     libcpmt:ios.obj
 0002:0000092c       ?_C@?1??_Nullstr@?$basic_string@DU?$char_traits@D@std@@V?$allocator@D@2@@std@@CAPBDXZ@4DB 1002392c     libcpmt:ios.obj
 0002:00000934       ??_7ios_base@std@@6B@      10023934     libcpmt:ios.obj
 0002:00000938       ??_C@_0BP@INPK@invalid?5ios?3?3iword?1pword?5index?$AA@ 10023938     libcpmt:ios.obj
 0002:00000958       ?table_size@?$ctype@D@std@@2IB 10023958     libcpmt:locale0.obj
 0002:0000095c       ??_C@_01FDHG@?$CK?$AA@     1002395c     libcpmt:locale0.obj
 0002:00000960       ??_C@_01FKHJ@C?$AA@        10023960     libcpmt:locale0.obj
 0002:00000968       ??_7_Locimp@locale@std@@6B@ 10023968     libcpmt:locale0.obj
 0002:00000970       ??_7facet@locale@std@@6B@  10023970     libcpmt:locale0.obj
 0002:00000978       ??_7length_error@std@@6B@  10023978     libcpmt:string.obj
 0002:00000984       ??_C@_0BA@HHMB@string?5too?5long?$AA@ 10023984     libcpmt:string.obj
 0002:00000998       ??_7logic_error@std@@6B@   10023998     libcpmt:string.obj
 0002:000009a8       ??_7out_of_range@std@@6B@  100239a8     libcpmt:string.obj
 0002:000009b4       ??_C@_0BI@EEBE@invalid?5string?5position?$AA@ 100239b4     libcpmt:string.obj
 0002:000009cc       ?nothrow@std@@3Unothrow_t@1@B 100239cc     libcpmt:nomemory.obj
 0002:000009d0       ??_C@_0P@LJNA@bad?5allocation?$AA@ 100239d0     libcpmt:nomemory.obj
 0002:000009e4       ??_7bad_alloc@std@@6B@     100239e4     libcpmt:nomemory.obj
 0002:000009f4       ??_7type_info@@6B@         100239f4     LIBCMT:typinfo.obj
 0002:00000a78       ??_7exception@@6B@         10023a78     LIBCMT:stdexcpt.obj
 0002:00000a80       ??_C@_0BC@OIDF@Unknown?5exception?$AA@ 10023a80     LIBCMT:stdexcpt.obj
 0002:00000a94       ??_C@_07PCLE@LC_TIME?$AA@  10023a94     LIBCMT:setlocal.obj
 0002:00000a9c       ??_C@_0L@NKG@LC_NUMERIC?$AA@ 10023a9c     LIBCMT:setlocal.obj
 0002:00000aa8       ??_C@_0M@CBIH@LC_MONETARY?$AA@ 10023aa8     LIBCMT:setlocal.obj
 0002:00000ab4       ??_C@_08LFGE@LC_CTYPE?$AA@ 10023ab4     LIBCMT:setlocal.obj
 0002:00000ac0       ??_C@_0L@CFLC@LC_COLLATE?$AA@ 10023ac0     LIBCMT:setlocal.obj
 0002:00000acc       ??_C@_06GCPK@LC_ALL?$AA@   10023acc     LIBCMT:setlocal.obj
 0002:00000ad4       ??_C@_01FAJB@?$DL?$AA@     10023ad4     LIBCMT:setlocal.obj
 0002:00000ad8       ??_C@_02BGDO@?$DN?$DL?$AA@ 10023ad8     LIBCMT:setlocal.obj
 0002:00000adc       ??_C@_03DBOJ@_?4?0?$AA@    10023adc     LIBCMT:setlocal.obj
 0002:00000ae0       ??_C@_01PJCK@?4?$AA@       10023ae0     LIBCMT:setlocal.obj
 0002:00000ae4       ??_C@_01NON@_?$AA@         10023ae4     LIBCMT:setlocal.obj
 0002:00000b90       ??_C@_0BH@PHHF@__GLOBAL_HEAP_SELECTED?$AA@ 10023b90     LIBCMT:heapinit.obj
 0002:00000ba8       ??_C@_0BF@BBGL@__MSVCRT_HEAP_SELECT?$AA@ 10023ba8     LIBCMT:heapinit.obj
 0002:00000bc0       __real@8@3fff8000000000000000 10023bc0     LIBCMT:testfdiv.obj
 0002:00000bc8       __real@8@4015800bf60000000000 10023bc8     LIBCMT:testfdiv.obj
 0002:00000bd0       __real@8@4014bffffc0000000000 10023bd0     LIBCMT:testfdiv.obj
 0002:00000bd8       ??_C@_0BK@JEGK@IsProcessorFeaturePresent?$AA@ 10023bd8     LIBCMT:testfdiv.obj
 0002:00000bf4       ??_C@_08OBID@KERNEL32?$AA@ 10023bf4     LIBCMT:testfdiv.obj
 0002:00000c00       __real@8@00000000000000000000 10023c00     LIBCMT:cvt.obj
 0002:00000c08       ??_C@_05OFLO@e?$CL000?$AA@ 10023c08     LIBCMT:cvt.obj
 0002:00000c10       ___lookuptable             10023c10     LIBCMT:output.obj
 0002:00000c6c       ??_C@_1O@POHA@?$AA?$CI?$AAn?$AAu?$AAl?$AAl?$AA?$CJ?$AA?$AA@ 10023c6c     LIBCMT:output.obj
 0002:00000c7c       ??_C@_06ONKE@?$CInull?$CJ?$AA@ 10023c7c     LIBCMT:output.obj
 0002:00000c84       ??_C@_0P@GGKG@runtime?5error?5?$AA@ 10023c84     LIBCMT:crt0msg.obj
 0002:00000c94       ??_C@_02PIMC@?$AN?6?$AA@   10023c94     LIBCMT:crt0msg.obj
 0002:00000c98       ??_C@_0O@DELO@TLOSS?5error?$AN?6?$AA@ 10023c98     LIBCMT:crt0msg.obj
 0002:00000ca8       ??_C@_0N@OMLL@SING?5error?$AN?6?$AA@ 10023ca8     LIBCMT:crt0msg.obj
 0002:00000cb8       ??_C@_0P@OJAK@DOMAIN?5error?$AN?6?$AA@ 10023cb8     LIBCMT:crt0msg.obj
 0002:00000cc8       ??_C@_0CF@EANP@R6028?$AN?6?9?5unable?5to?5initialize?5he@ 10023cc8     LIBCMT:crt0msg.obj
 0002:00000cf0       ??_C@_0DF@ECGN@R6027?$AN?6?9?5not?5enough?5space?5for?5lo@ 10023cf0     LIBCMT:crt0msg.obj
 0002:00000d28       ??_C@_0DF@FKAC@R6026?$AN?6?9?5not?5enough?5space?5for?5st@ 10023d28     LIBCMT:crt0msg.obj
 0002:00000d60       ??_C@_0CG@DPMN@R6025?$AN?6?9?5pure?5virtual?5function?5c@ 10023d60     LIBCMT:crt0msg.obj
 0002:00000d88       ??_C@_0DF@CKIP@R6024?$AN?6?9?5not?5enough?5space?5for?5_o@ 10023d88     LIBCMT:crt0msg.obj
 0002:00000dc0       ??_C@_0CJ@GGOE@R6019?$AN?6?9?5unable?5to?5open?5console?5@ 10023dc0     LIBCMT:crt0msg.obj
 0002:00000dec       ??_C@_0CB@LBOB@R6018?$AN?6?9?5unexpected?5heap?5error?$AN?6@ 10023dec     LIBCMT:crt0msg.obj
 0002:00000e10       ??_C@_0CN@FPEG@R6017?$AN?6?9?5unexpected?5multithread?5@ 10023e10     LIBCMT:crt0msg.obj
 0002:00000e40       ??_C@_0CM@OBIC@R6016?$AN?6?9?5not?5enough?5space?5for?5th@ 10023e40     LIBCMT:crt0msg.obj
 0002:00000e6c       ??_C@_0CB@HPAL@?$AN?6abnormal?5program?5termination?$AN?6@ 10023e6c     LIBCMT:crt0msg.obj
 0002:00000e90       ??_C@_0CM@JOOB@R6009?$AN?6?9?5not?5enough?5space?5for?5en@ 10023e90     LIBCMT:crt0msg.obj
 0002:00000ebc       ??_C@_0CK@OIBL@R6008?$AN?6?9?5not?5enough?5space?5for?5ar@ 10023ebc     LIBCMT:crt0msg.obj
 0002:00000ee8       ??_C@_0CF@LKPB@R6002?$AN?6?9?5floating?5point?5not?5load@ 10023ee8     LIBCMT:crt0msg.obj
 0002:00000f10       ??_C@_0CF@JPDF@Microsoft?5Visual?5C?$CL?$CL?5Runtime?5Lib@ 10023f10     LIBCMT:crt0msg.obj
 0002:00000f38       ??_C@_02JJJH@?6?6?$AA@     10023f38     LIBCMT:crt0msg.obj
 0002:00000f3c       ??_C@_0BK@DEOK@Runtime?5Error?$CB?6?6Program?3?5?$AA@ 10023f3c     LIBCMT:crt0msg.obj
 0002:00000f58       ??_C@_03NAME@?4?4?4?$AA@   10023f58     LIBCMT:crt0msg.obj
 0002:00000f5c       ??_C@_0BH@NNCD@?$DMprogram?5name?5unknown?$DO?$AA@ 10023f5c     LIBCMT:crt0msg.obj
 0002:00000f90       ??_C@_08OBJD@Paraguay?$AA@ 10023f90     LIBCMT:getqloc.obj
 0002:00000f9c       ??_C@_07GLKH@Uruguay?$AA@  10023f9c     LIBCMT:getqloc.obj
 0002:00000fa4       ??_C@_05FPFC@Chile?$AA@    10023fa4     LIBCMT:getqloc.obj
 0002:00000fac       ??_C@_07IIGF@Ecuador?$AA@  10023fac     LIBCMT:getqloc.obj
 0002:00000fb4       ??_C@_09PKAL@Argentina?$AA@ 10023fb4     LIBCMT:getqloc.obj
 0002:00000fc0       ??_C@_04LKAH@Peru?$AA@     10023fc0     LIBCMT:getqloc.obj
 0002:00000fc8       ??_C@_08NEEM@Colombia?$AA@ 10023fc8     LIBCMT:getqloc.obj
 0002:00000fd4       ??_C@_09ODEB@Venezuela?$AA@ 10023fd4     LIBCMT:getqloc.obj
 0002:00000fe0       ??_C@_0BD@CLEL@Dominican?5Republic?$AA@ 10023fe0     LIBCMT:getqloc.obj
 0002:00000ff4       ??_C@_0N@MDGL@South?5Africa?$AA@ 10023ff4     LIBCMT:getqloc.obj
 0002:00001004       ??_C@_06NKBG@Panama?$AA@   10024004     LIBCMT:getqloc.obj
 0002:0000100c       ??_C@_0L@BMHO@Luxembourg?$AA@ 1002400c     LIBCMT:getqloc.obj
 0002:00001018       ??_C@_0L@IMDK@Costa?5Rica?$AA@ 10024018     LIBCMT:getqloc.obj
 0002:00001024       ??_C@_0M@BLJF@Switzerland?$AA@ 10024024     LIBCMT:getqloc.obj
 0002:00001030       ??_C@_09KBOL@Guatemala?$AA@ 10024030     LIBCMT:getqloc.obj
 0002:0000103c       ??_C@_06JNAK@Canada?$AA@   1002403c     LIBCMT:getqloc.obj
 0002:00001044       ??_C@_0BG@OLLP@Spanish?5?9?5Modern?5Sort?$AA@ 10024044     LIBCMT:getqloc.obj
 0002:0000105c       ??_C@_09IDKE@Australia?$AA@ 1002405c     LIBCMT:getqloc.obj
 0002:00001068       ??_C@_07JJJJ@English?$AA@  10024068     LIBCMT:getqloc.obj
 0002:00001070       ??_C@_07NMDO@Austria?$AA@  10024070     LIBCMT:getqloc.obj
 0002:00001078       ??_C@_06DEFE@German?$AA@   10024078     LIBCMT:getqloc.obj
 0002:00001080       ??_C@_07JAIH@Belgium?$AA@  10024080     LIBCMT:getqloc.obj
 0002:00001088       ??_C@_06BNLJ@Mexico?$AA@   10024088     LIBCMT:getqloc.obj
 0002:00001090       ??_C@_07JHAG@Spanish?$AA@  10024090     LIBCMT:getqloc.obj
 0002:00001098       ??_C@_06DADE@Basque?$AA@   10024098     LIBCMT:getqloc.obj
 0002:000010a0       ??_C@_06ENFP@Sweden?$AA@   100240a0     LIBCMT:getqloc.obj
 0002:000010a8       ??_C@_07JPMH@Swedish?$AA@  100240a8     LIBCMT:getqloc.obj
 0002:000010b0       ??_C@_07IEKF@Iceland?$AA@  100240b0     LIBCMT:getqloc.obj
 0002:000010b8       ??_C@_09KNEA@Icelandic?$AA@ 100240b8     LIBCMT:getqloc.obj
 0002:000010c4       ??_C@_06IJOD@France?$AA@   100240c4     LIBCMT:getqloc.obj
 0002:000010cc       ??_C@_06EINI@French?$AA@   100240cc     LIBCMT:getqloc.obj
 0002:000010d4       ??_C@_07FOOE@Finland?$AA@  100240d4     LIBCMT:getqloc.obj
 0002:000010dc       ??_C@_07OJOM@Finnish?$AA@  100240dc     LIBCMT:getqloc.obj
 0002:000010e4       ??_C@_05FFAC@Spain?$AA@    100240e4     LIBCMT:getqloc.obj
 0002:000010ec       ??_C@_0BL@BIHM@Spanish?5?9?5Traditional?5Sort?$AA@ 100240ec     LIBCMT:getqloc.obj
 0002:00001108       ??_C@_0O@GLHB@united?9states?$AA@ 10024108     LIBCMT:getqloc.obj
 0002:00001118       ??_C@_0P@IIKK@united?9kingdom?$AA@ 10024118     LIBCMT:getqloc.obj
 0002:00001128       ??_C@_0BC@FHBO@trinidad?5?$CG?5tobago?$AA@ 10024128     LIBCMT:getqloc.obj
 0002:0000113c       ??_C@_0M@BDFM@south?9korea?$AA@ 1002413c     LIBCMT:getqloc.obj
 0002:00001148       ??_C@_0N@CKFA@south?9africa?$AA@ 10024148     LIBCMT:getqloc.obj
 0002:00001158       ??_C@_0M@HNHN@south?5korea?$AA@ 10024158     LIBCMT:getqloc.obj
 0002:00001164       ??_C@_0N@MKDO@south?5africa?$AA@ 10024164     LIBCMT:getqloc.obj
 0002:00001174       ??_C@_06KFFJ@slovak?$AA@   10024174     LIBCMT:getqloc.obj
 0002:0000117c       ??_C@_0M@NMAC@puerto?9rico?$AA@ 1002417c     LIBCMT:getqloc.obj
 0002:00001188       ??_C@_08EJOH@pr?9china?$AA@ 10024188     LIBCMT:getqloc.obj
 0002:00001194       ??_C@_08CHMG@pr?5china?$AA@ 10024194     LIBCMT:getqloc.obj
 0002:000011a0       ??_C@_02OCJK@nz?$AA@       100241a0     LIBCMT:getqloc.obj
 0002:000011a4       ??_C@_0M@MMKA@new?9zealand?$AA@ 100241a4     LIBCMT:getqloc.obj
 0002:000011b0       ??_C@_09MGEH@hong?9kong?$AA@ 100241b0     LIBCMT:getqloc.obj
 0002:000011bc       ??_C@_07CCAK@holland?$AA@  100241bc     LIBCMT:getqloc.obj
 0002:000011c4       ??_C@_0O@MEPL@great?5britain?$AA@ 100241c4     LIBCMT:getqloc.obj
 0002:000011d4       ??_C@_07LGIB@england?$AA@  100241d4     LIBCMT:getqloc.obj
 0002:000011dc       ??_C@_05BMOA@czech?$AA@    100241dc     LIBCMT:getqloc.obj
 0002:000011e4       ??_C@_05NMPB@china?$AA@    100241e4     LIBCMT:getqloc.obj
 0002:000011ec       ??_C@_07GN@britain?$AA@    100241ec     LIBCMT:getqloc.obj
 0002:000011f4       ??_C@_07DLAK@america?$AA@  100241f4     LIBCMT:getqloc.obj
 0002:000011fc       ??_C@_03IPEP@usa?$AA@      100241fc     LIBCMT:getqloc.obj
 0002:00001200       ??_C@_02PILH@us?$AA@       10024200     LIBCMT:getqloc.obj
 0002:00001204       ??_C@_02FHP@uk?$AA@        10024204     LIBCMT:getqloc.obj
 0002:00001208       ??_C@_05DEAI@swiss?$AA@    10024208     LIBCMT:getqloc.obj
 0002:00001210       ??_C@_0BA@LIAF@swedish?9finland?$AA@ 10024210     LIBCMT:getqloc.obj
 0002:00001220       ??_C@_0BC@FMEG@spanish?9venezuela?$AA@ 10024220     LIBCMT:getqloc.obj
 0002:00001234       ??_C@_0BA@BNMG@spanish?9uruguay?$AA@ 10024234     LIBCMT:getqloc.obj
 0002:00001244       ??_C@_0BE@BKDJ@spanish?9puerto?5rico?$AA@ 10024244     LIBCMT:getqloc.obj
 0002:00001258       ??_C@_0N@JIBL@spanish?9peru?$AA@ 10024258     LIBCMT:getqloc.obj
 0002:00001268       ??_C@_0BB@OGOF@spanish?9paraguay?$AA@ 10024268     LIBCMT:getqloc.obj
 0002:0000127c       ??_C@_0P@LLFA@spanish?9panama?$AA@ 1002427c     LIBCMT:getqloc.obj
 0002:0000128c       ??_C@_0BC@BBJM@spanish?9nicaragua?$AA@ 1002428c     LIBCMT:getqloc.obj
 0002:000012a0       ??_C@_0P@NJBN@spanish?9modern?$AA@ 100242a0     LIBCMT:getqloc.obj
 0002:000012b0       ??_C@_0BA@NHDN@spanish?9mexican?$AA@ 100242b0     LIBCMT:getqloc.obj
 0002:000012c0       ??_C@_0BB@JHOJ@spanish?9honduras?$AA@ 100242c0     LIBCMT:getqloc.obj
 0002:000012d4       ??_C@_0BC@BOOM@spanish?9guatemala?$AA@ 100242d4     LIBCMT:getqloc.obj
 0002:000012e8       ??_C@_0BE@EELI@spanish?9el?5salvador?$AA@ 100242e8     LIBCMT:getqloc.obj
 0002:000012fc       ??_C@_0BA@POAE@spanish?9ecuador?$AA@ 100242fc     LIBCMT:getqloc.obj
 0002:0000130c       ??_C@_0BL@LDKN@spanish?9dominican?5republic?$AA@ 1002430c     LIBCMT:getqloc.obj
 0002:00001328       ??_C@_0BD@HPMH@spanish?9costa?5rica?$AA@ 10024328     LIBCMT:getqloc.obj
 0002:0000133c       ??_C@_0BB@NDDK@spanish?9colombia?$AA@ 1002433c     LIBCMT:getqloc.obj
 0002:00001350       ??_C@_0O@BJHA@spanish?9chile?$AA@ 10024350     LIBCMT:getqloc.obj
 0002:00001360       ??_C@_0BA@OBNG@spanish?9bolivia?$AA@ 10024360     LIBCMT:getqloc.obj
 0002:00001370       ??_C@_0BC@EFAM@spanish?9argentina?$AA@ 10024370     LIBCMT:getqloc.obj
 0002:00001384       ??_C@_0BF@KMMM@portuguese?9brazilian?$AA@ 10024384     LIBCMT:getqloc.obj
 0002:0000139c       ??_C@_0BC@BAAE@norwegian?9nynorsk?$AA@ 1002439c     LIBCMT:getqloc.obj
 0002:000013b0       ??_C@_0BB@PBHK@norwegian?9bokmal?$AA@ 100243b0     LIBCMT:getqloc.obj
 0002:000013c4       ??_C@_09EHKL@norwegian?$AA@ 100243c4     LIBCMT:getqloc.obj
 0002:000013d0       ??_C@_0O@BEAN@italian?9swiss?$AA@ 100243d0     LIBCMT:getqloc.obj
 0002:000013e0       ??_C@_0O@OIFK@irish?9english?$AA@ 100243e0     LIBCMT:getqloc.obj
 0002:000013f0       ??_C@_0N@NBPL@german?9swiss?$AA@ 100243f0     LIBCMT:getqloc.obj
 0002:00001400       ??_C@_0BC@ICFJ@german?9luxembourg?$AA@ 10024400     LIBCMT:getqloc.obj
 0002:00001414       ??_C@_0BE@GGPC@german?9lichtenstein?$AA@ 10024414     LIBCMT:getqloc.obj
 0002:00001428       ??_C@_0BA@MKDC@german?9austrian?$AA@ 10024428     LIBCMT:getqloc.obj
 0002:00001438       ??_C@_0N@ODNB@french?9swiss?$AA@ 10024438     LIBCMT:getqloc.obj
 0002:00001448       ??_C@_0BC@MGCM@french?9luxembourg?$AA@ 10024448     LIBCMT:getqloc.obj
 0002:0000145c       ??_C@_0BA@NABK@french?9canadian?$AA@ 1002445c     LIBCMT:getqloc.obj
 0002:0000146c       ??_C@_0P@CJNO@french?9belgian?$AA@ 1002446c     LIBCMT:getqloc.obj
 0002:0000147c       ??_C@_0M@LJOL@english?9usa?$AA@ 1002447c     LIBCMT:getqloc.obj
 0002:00001488       ??_C@_0L@FMNC@english?9us?$AA@ 10024488     LIBCMT:getqloc.obj
 0002:00001494       ??_C@_0L@KBBK@english?9uk?$AA@ 10024494     LIBCMT:getqloc.obj
 0002:000014a0       ??_C@_0BK@NDDE@english?9trinidad?5y?5tobago?$AA@ 100244a0     LIBCMT:getqloc.obj
 0002:000014bc       ??_C@_0BF@LKML@english?9south?5africa?$AA@ 100244bc     LIBCMT:getqloc.obj
 0002:000014d4       ??_C@_0L@EGPP@english?9nz?$AA@ 100244d4     LIBCMT:getqloc.obj
 0002:000014e0       ??_C@_0BA@HLH@english?9jamaica?$AA@ 100244e0     LIBCMT:getqloc.obj
 0002:000014f0       ??_C@_0M@PMJI@english?9ire?$AA@ 100244f0     LIBCMT:getqloc.obj
 0002:000014fc       ??_C@_0BC@HINE@english?9caribbean?$AA@ 100244fc     LIBCMT:getqloc.obj
 0002:00001510       ??_C@_0M@DCFH@english?9can?$AA@ 10024510     LIBCMT:getqloc.obj
 0002:0000151c       ??_C@_0P@DGHK@english?9belize?$AA@ 1002451c     LIBCMT:getqloc.obj
 0002:0000152c       ??_C@_0M@FLHK@english?9aus?$AA@ 1002452c     LIBCMT:getqloc.obj
 0002:00001538       ??_C@_0BB@HNCK@english?9american?$AA@ 10024538     LIBCMT:getqloc.obj
 0002:0000154c       ??_C@_0O@PAMI@dutch?9belgian?$AA@ 1002454c     LIBCMT:getqloc.obj
 0002:0000155c       ??_C@_0BE@FPEJ@chinese?9traditional?$AA@ 1002455c     LIBCMT:getqloc.obj
 0002:00001570       ??_C@_0BC@CHFL@chinese?9singapore?$AA@ 10024570     LIBCMT:getqloc.obj
 0002:00001584       ??_C@_0BD@DCMH@chinese?9simplified?$AA@ 10024584     LIBCMT:getqloc.obj
 0002:00001598       ??_C@_0BB@JMOE@chinese?9hongkong?$AA@ 10024598     LIBCMT:getqloc.obj
 0002:000015ac       ??_C@_07NGFN@chinese?$AA@  100245ac     LIBCMT:getqloc.obj
 0002:000015b4       ??_C@_03PCOI@chi?$AA@      100245b4     LIBCMT:getqloc.obj
 0002:000015b8       ??_C@_03FIHP@chh?$AA@      100245b8     LIBCMT:getqloc.obj
 0002:000015bc       ??_C@_08HFLO@canadian?$AA@ 100245bc     LIBCMT:getqloc.obj
 0002:000015c8       ??_C@_07INIJ@belgian?$AA@  100245c8     LIBCMT:getqloc.obj
 0002:000015d0       ??_C@_0L@LCCA@australian?$AA@ 100245d0     LIBCMT:getqloc.obj
 0002:000015dc       ??_C@_0BB@BJIO@american?9english?$AA@ 100245dc     LIBCMT:getqloc.obj
 0002:000015f0       ??_C@_0BB@DAGO@american?5english?$AA@ 100245f0     LIBCMT:getqloc.obj
 0002:00001604       ??_C@_08HENB@american?$AA@ 10024604     LIBCMT:getqloc.obj
 0002:00001610       ??_C@_03DGJE@OCP?$AA@      10024610     LIBCMT:getqloc.obj
 0002:00001614       ??_C@_03EKFG@ACP?$AA@      10024614     LIBCMT:getqloc.obj
 0002:00001618       ??_C@_01A@?$AA?$AA@        10024618     LIBCMT:a_str.obj
 0002:0000161c       ??_C@_13A@?$AA?$AA?$AA?$AA@ 1002461c     LIBCMT:a_str.obj
 0002:0000162c       ??_C@_0BD@NJFP@GetLastActivePopup?$AA@ 1002462c     LIBCMT:crtmbox.obj
 0002:00001640       ??_C@_0BA@GILI@GetActiveWindow?$AA@ 10024640     LIBCMT:crtmbox.obj
 0002:00001650       ??_C@_0M@PKCK@MessageBoxA?$AA@ 10024650     LIBCMT:crtmbox.obj
 0002:0000165c       ??_C@_0L@HKL@user32?4dll?$AA@ 1002465c     LIBCMT:crtmbox.obj
 0002:00001668       ??_C@_07CJME@H?3mm?3ss?$AA@ 10024668     LIBCMT:strftime.obj
 0002:00001670       ??_C@_0BE@MHI@dddd?0?5MMMM?5dd?0?5yyyy?$AA@ 10024670     LIBCMT:strftime.obj
 0002:00001684       ??_C@_06HCAD@M?1d?1yy?$AA@ 10024684     LIBCMT:strftime.obj
 0002:0000168c       ??_C@_02DBLP@PM?$AA@       1002468c     LIBCMT:strftime.obj
 0002:00001690       ??_C@_02ENLM@AM?$AA@       10024690     LIBCMT:strftime.obj
 0002:00001694       ??_C@_08LIDF@December?$AA@ 10024694     LIBCMT:strftime.obj
 0002:000016a0       ??_C@_08NJLI@November?$AA@ 100246a0     LIBCMT:strftime.obj
 0002:000016ac       ??_C@_07IAMM@October?$AA@  100246ac     LIBCMT:strftime.obj
 0002:000016b4       ??_C@_09MKGD@September?$AA@ 100246b4     LIBCMT:strftime.obj
 0002:000016c0       ??_C@_06PADP@August?$AA@   100246c0     LIBCMT:strftime.obj
 0002:000016c8       ??_C@_04PIJO@July?$AA@     100246c8     LIBCMT:strftime.obj
 0002:000016d0       ??_C@_04ICFP@June?$AA@     100246d0     LIBCMT:strftime.obj
 0002:000016d8       ??_C@_05JFGC@April?$AA@    100246d8     LIBCMT:strftime.obj
 0002:000016e0       ??_C@_05FGPD@March?$AA@    100246e0     LIBCMT:strftime.obj
 0002:000016e8       ??_C@_08PGBA@February?$AA@ 100246e8     LIBCMT:strftime.obj
 0002:000016f4       ??_C@_07BPKJ@January?$AA@  100246f4     LIBCMT:strftime.obj
 0002:000016fc       ??_C@_03PGJO@Dec?$AA@      100246fc     LIBCMT:strftime.obj
 0002:00001700       ??_C@_03PDLM@Nov?$AA@      10024700     LIBCMT:strftime.obj
 0002:00001704       ??_C@_03BLHK@Oct?$AA@      10024704     LIBCMT:strftime.obj
 0002:00001708       ??_C@_03DPFM@Sep?$AA@      10024708     LIBCMT:strftime.obj
 0002:0000170c       ??_C@_03CMCH@Aug?$AA@      1002470c     LIBCMT:strftime.obj
 0002:00001710       ??_C@_03OBKI@Jul?$AA@      10024710     LIBCMT:strftime.obj
 0002:00001714       ??_C@_03LEIG@Jun?$AA@      10024714     LIBCMT:strftime.obj
 0002:00001718       ??_C@_03MGHB@May?$AA@      10024718     LIBCMT:strftime.obj
 0002:0000171c       ??_C@_03MJJM@Apr?$AA@      1002471c     LIBCMT:strftime.obj
 0002:00001720       ??_C@_03GNHA@Mar?$AA@      10024720     LIBCMT:strftime.obj
 0002:00001724       ??_C@_03PICE@Feb?$AA@      10024724     LIBCMT:strftime.obj
 0002:00001728       ??_C@_03IEIF@Jan?$AA@      10024728     LIBCMT:strftime.obj
 0002:0000172c       ??_C@_08FAKH@Saturday?$AA@ 1002472c     LIBCMT:strftime.obj
 0002:00001738       ??_C@_06ONCK@Friday?$AA@   10024738     LIBCMT:strftime.obj
 0002:00001740       ??_C@_08CCFO@Thursday?$AA@ 10024740     LIBCMT:strftime.obj
 0002:0000174c       ??_C@_09PBIN@Wednesday?$AA@ 1002474c     LIBCMT:strftime.obj
 0002:00001758       ??_C@_07BMBC@Tuesday?$AA@  10024758     LIBCMT:strftime.obj
 0002:00001760       ??_C@_06CHLK@Monday?$AA@   10024760     LIBCMT:strftime.obj
 0002:00001768       ??_C@_06OOEM@Sunday?$AA@   10024768     LIBCMT:strftime.obj
 0002:00001770       ??_C@_03MPKK@Sat?$AA@      10024770     LIBCMT:strftime.obj
 0002:00001774       ??_C@_03FINJ@Fri?$AA@      10024774     LIBCMT:strftime.obj
 0002:00001778       ??_C@_03HIKC@Thu?$AA@      10024778     LIBCMT:strftime.obj
 0002:0000177c       ??_C@_03HECK@Wed?$AA@      1002477c     LIBCMT:strftime.obj
 0002:00001780       ??_C@_03ECCP@Tue?$AA@      10024780     LIBCMT:strftime.obj
 0002:00001784       ??_C@_03PIEP@Mon?$AA@      10024784     LIBCMT:strftime.obj
 0002:00001788       ??_C@_03FHEP@Sun?$AA@      10024788     LIBCMT:strftime.obj
 0002:0000178c       ??_C@_03MKGK@a?1p?$AA@     1002478c     LIBCMT:strftime.obj
 0002:00001790       ??_C@_05BDJK@am?1pm?$AA@   10024790     LIBCMT:strftime.obj
 0002:000017c8       ??_C@_06PAPI@1?$CDQNAN?$AA@ 100247c8     LIBCMT:x10fout.obj
 0002:000017d0       ??_C@_05BGNL@1?$CDINF?$AA@ 100247d0     LIBCMT:x10fout.obj
 0002:000017d8       ??_C@_05EDPF@1?$CDIND?$AA@ 100247d8     LIBCMT:x10fout.obj
 0002:000017e0       ??_C@_06LKFM@1?$CDSNAN?$AA@ 100247e0     LIBCMT:x10fout.obj
 0002:000017e8       ___dnames                  100247e8     LIBCMT:timeset.obj
 0002:00001800       ___mnames                  10024800     LIBCMT:timeset.obj
 0002:00001828       ??_C@_02JHIA@TZ?$AA@       10024828     LIBCMT:tzset.obj
 0002:00001868       ??_R4alm_db_outputif@@6BcDriver@@@ 10024868     alm_db_output_if.obj
 0002:00001880       ??_R13?0A@A@cDriver@@8     10024880     alm_db_output_if.obj
 0002:00001898       ??_R1A@?0A@A@alm_db_outputif@@8 10024898     alm_db_output_if.obj
 0002:000018b0       ??_R2alm_db_outputif@@8    100248b0     alm_db_output_if.obj
 0002:000018c8       ??_R3alm_db_outputif@@8    100248c8     alm_db_output_if.obj
 0002:000018d8       ??_R4alm_db_outputif@@6Balarms_output_base@@@ 100248d8     alm_db_output_if.obj
 0002:000018f0       ??_R13?0A@A@QShared@@8     100248f0     alm_db_output_if.obj
 0002:00001908       ??_R1A@?0A@A@?$QValueListPrivate@VQString@@@@8 10024908     alm_db_output_if.obj
 0002:00001920       ??_R2?$QValueListPrivate@VQString@@@@8 10024920     alm_db_output_if.obj
 0002:00001930       ??_R3?$QValueListPrivate@VQString@@@@8 10024930     alm_db_output_if.obj
 0002:00001940       ??_R4?$QValueListPrivate@VQString@@@@6B@ 10024940     alm_db_output_if.obj
 0002:00001958       ??_R1A@?0A@A@?$QValueListNode@VQString@@@@8 10024958     alm_db_output_if.obj
 0002:00001970       ??_R2?$QValueListNode@VQString@@@@8 10024970     alm_db_output_if.obj
 0002:00001978       ??_R3?$QValueListNode@VQString@@@@8 10024978     alm_db_output_if.obj
 0002:00001988       ??_R4?$QValueListNode@VQString@@@@6B@ 10024988     alm_db_output_if.obj
 0002:000019a0       ??_R1A@?0A@A@alarms_base@@8 100249a0     alm_db_output_if.obj
 0002:000019b8       ??_R1A@?0A@A@alarms_output_base@@8 100249b8     alm_db_output_if.obj
 0002:000019d0       ??_R2alarms_output_base@@8 100249d0     alm_db_output_if.obj
 0002:000019e0       ??_R3alarms_output_base@@8 100249e0     alm_db_output_if.obj
 0002:000019f0       ??_R4alarms_output_base@@6B@ 100249f0     alm_db_output_if.obj
 0002:00001a04       ??_R2alarms_base@@8        10024a04     alm_db_output_if.obj
 0002:00001a10       ??_R3alarms_base@@8        10024a10     alm_db_output_if.obj
 0002:00001a20       ??_R4alarms_base@@6B@      10024a20     alm_db_output_if.obj
 0002:00001a38       ??_R1A@?0A@A@QDomNode@@8   10024a38     alm_db_output_if.obj
 0002:00001a50       ??_R1A@?0A@A@QDomElement@@8 10024a50     alm_db_output_if.obj
 0002:00001a68       ??_R2QDomElement@@8        10024a68     alm_db_output_if.obj
 0002:00001a78       ??_R3QDomElement@@8        10024a78     alm_db_output_if.obj
 0002:00001a88       ??_R4QDomElement@@6B@      10024a88     alm_db_output_if.obj
 0002:00001aa0       ??_R1A@?0A@A@QPtrCollection@@8 10024aa0     alm_db_output_if.obj
 0002:00001ab8       ??_R1A@?0A@A@QGDict@@8     10024ab8     alm_db_output_if.obj
 0002:00001ad0       ??_R1A@?0A@A@?$QDict@UInstanceData@@@@8 10024ad0     alm_db_output_if.obj
 0002:00001ae8       ??_R2?$QDict@UInstanceData@@@@8 10024ae8     alm_db_output_if.obj
 0002:00001af8       ??_R3?$QDict@UInstanceData@@@@8 10024af8     alm_db_output_if.obj
 0002:00001b08       ??_R4?$QDict@UInstanceData@@@@6B@ 10024b08     alm_db_output_if.obj
 0002:00001b20       ??_R1A@?0A@A@Cio@@8        10024b20     Cio.obj
 0002:00001b38       ??_R2Cio@@8                10024b38     Cio.obj
 0002:00001b40       ??_R3Cio@@8                10024b40     Cio.obj
 0002:00001b50       ??_R4Cio@@6B@              10024b50     Cio.obj
 0002:00001b68       ??_R1A@?0A@A@FilePair@Cio@@8 10024b68     Cio.obj
 0002:00001b80       ??_R2FilePair@Cio@@8       10024b80     Cio.obj
 0002:00001b88       ??_R3FilePair@Cio@@8       10024b88     Cio.obj
 0002:00001b98       ??_R4FilePair@Cio@@6B@     10024b98     Cio.obj
 0002:00001bb0       ??_R1A@?0A@A@QIODevice@@8  10024bb0     Cio.obj
 0002:00001bc8       ??_R1A@?0A@A@QFile@@8      10024bc8     Cio.obj
 0002:00001be0       ??_R2QFile@@8              10024be0     Cio.obj
 0002:00001bf0       ??_R3QFile@@8              10024bf0     Cio.obj
 0002:00001c00       ??_R4QFile@@6B@            10024c00     Cio.obj
 0002:00001c18       ??_R1A@?0A@A@cLogData@@8   10024c18     cLogData.obj
 0002:00001c30       ??_R2cLogData@@8           10024c30     cLogData.obj
 0002:00001c38       ??_R3cLogData@@8           10024c38     cLogData.obj
 0002:00001c48       ??_R4cLogData@@6B@         10024c48     cLogData.obj
 0002:00001c60       ??_R1A@?0A@A@QGList@@8     10024c60     db_interface.obj
 0002:00001c78       ??_R1A@?0A@A@?$QPtrList@VdbItem@@@@8 10024c78     db_interface.obj
 0002:00001c90       ??_R2?$QPtrList@VdbItem@@@@8 10024c90     db_interface.obj
 0002:00001ca0       ??_R3?$QPtrList@VdbItem@@@@8 10024ca0     db_interface.obj
 0002:00001cb0       ??_R4?$QPtrList@VdbItem@@@@6B@ 10024cb0     db_interface.obj
 0002:00001cc8       ??_R1A@?0A@A@IDiagnostics@@8 10024cc8     db_interface.obj
 0002:00001ce0       ??_R2IDiagnostics@@8       10024ce0     db_interface.obj
 0002:00001ce8       ??_R3IDiagnostics@@8       10024ce8     db_interface.obj
 0002:00001cf8       ??_R4IDiagnostics@@6B@     10024cf8     db_interface.obj
 0002:00001d10       ??_R1A@?0A@A@QSemaphore@@8 10024d10     db_interface.obj
 0002:00001d28       ??_R2QSemaphore@@8         10024d28     db_interface.obj
 0002:00001d30       ??_R3QSemaphore@@8         10024d30     db_interface.obj
 0002:00001d40       ??_R4QSemaphore@@6B@       10024d40     db_interface.obj
 0002:00001d58       ??_R4db_interface@@6BIDiagnostics@@@ 10024d58     db_interface.obj
 0002:00001d70       ??_R17?0A@A@IDiagnostics@@8 10024d70     db_interface.obj
 0002:00001d88       ??_R13?0A@A@Qt@@8          10024d88     db_interface.obj
 0002:00001da0       ??_R1A@?0A@A@QThread@@8    10024da0     db_interface.obj
 0002:00001db8       ??_R1A@?0A@A@db_interface@@8 10024db8     db_interface.obj
 0002:00001dd0       ??_R2db_interface@@8       10024dd0     db_interface.obj
 0002:00001de8       ??_R3db_interface@@8       10024de8     db_interface.obj
 0002:00001df8       ??_R4db_interface@@6BQThread@@@ 10024df8     db_interface.obj
 0002:00001e10       ??_R4DbConnect@@6BIDiagnostics@@@ 10024e10     db_interface.obj
 0002:00001e28       ??_R1A@?0A@A@DbConnect@@8  10024e28     db_interface.obj
 0002:00001e40       ??_R2DbConnect@@8          10024e40     db_interface.obj
 0002:00001e58       ??_R3DbConnect@@8          10024e58     db_interface.obj
 0002:00001e68       ??_R4DbConnect@@6BQThread@@@ 10024e68     db_interface.obj
 0002:00001e80       ??_R1A@?0A@A@dbItem@@8     10024e80     dbItem.obj
 0002:00001e98       ??_R2dbItem@@8             10024e98     dbItem.obj
 0002:00001ea0       ??_R3dbItem@@8             10024ea0     dbItem.obj
 0002:00001eb0       ??_R4dbItem@@6B@           10024eb0     dbItem.obj
 0002:00001ec8       ??_R1A@?0A@A@IValidate@@8  10024ec8     dbItem.obj
 0002:00001ee0       ??_R1A@?0A@A@Validate_Date@@8 10024ee0     dbItem.obj
 0002:00001ef8       ??_R2Validate_Date@@8      10024ef8     dbItem.obj
 0002:00001f08       ??_R3Validate_Date@@8      10024f08     dbItem.obj
 0002:00001f18       ??_R4Validate_Date@@6B@    10024f18     dbItem.obj
 0002:00001f30       ??_R1A@A@3A@ios_base@std@@8 10024f30     libcpmt:iostream.obj
 0002:00001f48       ??_R1A@A@3BA@?$basic_ios@DU?$char_traits@D@std@@@std@@8 10024f48     libcpmt:iostream.obj
 0002:00001f60       ??_R1A@?0A@A@?$basic_istream@DU?$char_traits@D@std@@@std@@8 10024f60     libcpmt:iostream.obj
 0002:00001f78       ??_R2?$basic_istream@DU?$char_traits@D@std@@@std@@8 10024f78     libcpmt:iostream.obj
 0002:00001f88       ??_R3?$basic_istream@DU?$char_traits@D@std@@@std@@8 10024f88     libcpmt:iostream.obj
 0002:00001f98       ??_R4?$basic_istream@DU?$char_traits@D@std@@@std@@6B@ 10024f98     libcpmt:iostream.obj
 0002:00001fb0       ??_R1A@?0A@A@?$basic_ostream@DU?$char_traits@D@std@@@std@@8 10024fb0     libcpmt:iostream.obj
 0002:00001fc8       ??_R2?$basic_ostream@DU?$char_traits@D@std@@@std@@8 10024fc8     libcpmt:iostream.obj
 0002:00001fd8       ??_R3?$basic_ostream@DU?$char_traits@D@std@@@std@@8 10024fd8     libcpmt:iostream.obj
 0002:00001fe8       ??_R4?$basic_ostream@DU?$char_traits@D@std@@@std@@6B@ 10024fe8     libcpmt:iostream.obj
 0002:00002000       ??_R1A@?0A@A@ios_base@std@@8 10025000     libcpmt:iostream.obj
 0002:00002018       ??_R1A@?0A@A@?$basic_ios@DU?$char_traits@D@std@@@std@@8 10025018     libcpmt:iostream.obj
 0002:00002030       ??_R2?$basic_ios@DU?$char_traits@D@std@@@std@@8 10025030     libcpmt:iostream.obj
 0002:00002040       ??_R3?$basic_ios@DU?$char_traits@D@std@@@std@@8 10025040     libcpmt:iostream.obj
 0002:00002050       ??_R4?$basic_ios@DU?$char_traits@D@std@@@std@@6B@ 10025050     libcpmt:iostream.obj
 0002:00002064       ??_R2?$basic_streambuf@DU?$char_traits@D@std@@@std@@8 10025064     libcpmt:iostream.obj
 0002:00002070       ??_R3?$basic_streambuf@DU?$char_traits@D@std@@@std@@8 10025070     libcpmt:iostream.obj
 0002:00002080       ??_R4?$basic_streambuf@DU?$char_traits@D@std@@@std@@6B@ 10025080     libcpmt:iostream.obj
 0002:00002098       ??_R1A@?0A@A@?$basic_streambuf@DU?$char_traits@D@std@@@std@@8 10025098     libcpmt:iostream.obj
 0002:000020b0       ??_R1A@?0A@A@?$basic_filebuf@DU?$char_traits@D@std@@@std@@8 100250b0     libcpmt:iostream.obj
 0002:000020c8       ??_R2?$basic_filebuf@DU?$char_traits@D@std@@@std@@8 100250c8     libcpmt:iostream.obj
 0002:000020d8       ??_R3?$basic_filebuf@DU?$char_traits@D@std@@@std@@8 100250d8     libcpmt:iostream.obj
 0002:000020e8       ??_R4?$basic_filebuf@DU?$char_traits@D@std@@@std@@6B@ 100250e8     libcpmt:iostream.obj
 0002:00002100       ??_R1A@A@3BA@?$basic_ios@GU?$char_traits@G@std@@@std@@8 10025100     libcpmt:wiostrea.obj
 0002:00002118       ??_R1A@?0A@A@?$basic_istream@GU?$char_traits@G@std@@@std@@8 10025118     libcpmt:wiostrea.obj
 0002:00002130       ??_R2?$basic_istream@GU?$char_traits@G@std@@@std@@8 10025130     libcpmt:wiostrea.obj
 0002:00002140       ??_R3?$basic_istream@GU?$char_traits@G@std@@@std@@8 10025140     libcpmt:wiostrea.obj
 0002:00002150       ??_R4?$basic_istream@GU?$char_traits@G@std@@@std@@6B@ 10025150     libcpmt:wiostrea.obj
 0002:00002168       ??_R1A@?0A@A@?$basic_ostream@GU?$char_traits@G@std@@@std@@8 10025168     libcpmt:wiostrea.obj
 0002:00002180       ??_R2?$basic_ostream@GU?$char_traits@G@std@@@std@@8 10025180     libcpmt:wiostrea.obj
 0002:00002190       ??_R3?$basic_ostream@GU?$char_traits@G@std@@@std@@8 10025190     libcpmt:wiostrea.obj
 0002:000021a0       ??_R4?$basic_ostream@GU?$char_traits@G@std@@@std@@6B@ 100251a0     libcpmt:wiostrea.obj
 0002:000021b8       ??_R1A@?0A@A@?$basic_ios@GU?$char_traits@G@std@@@std@@8 100251b8     libcpmt:wiostrea.obj
 0002:000021d0       ??_R2?$basic_ios@GU?$char_traits@G@std@@@std@@8 100251d0     libcpmt:wiostrea.obj
 0002:000021e0       ??_R3?$basic_ios@GU?$char_traits@G@std@@@std@@8 100251e0     libcpmt:wiostrea.obj
 0002:000021f0       ??_R4?$basic_ios@GU?$char_traits@G@std@@@std@@6B@ 100251f0     libcpmt:wiostrea.obj
 0002:00002208       ??_R1A@?0A@A@?$basic_filebuf@GU?$char_traits@G@std@@@std@@8 10025208     libcpmt:wiostrea.obj
 0002:00002220       ??_R2?$basic_filebuf@GU?$char_traits@G@std@@@std@@8 10025220     libcpmt:wiostrea.obj
 0002:00002230       ??_R3?$basic_filebuf@GU?$char_traits@G@std@@@std@@8 10025230     libcpmt:wiostrea.obj
 0002:00002240       ??_R4?$basic_filebuf@GU?$char_traits@G@std@@@std@@6B@ 10025240     libcpmt:wiostrea.obj
 0002:00002258       ??_R1A@?0A@A@?$basic_streambuf@GU?$char_traits@G@std@@@std@@8 10025258     libcpmt:wiostrea.obj
 0002:00002270       ??_R2?$basic_streambuf@GU?$char_traits@G@std@@@std@@8 10025270     libcpmt:wiostrea.obj
 0002:00002278       ??_R3?$basic_streambuf@GU?$char_traits@G@std@@@std@@8 10025278     libcpmt:wiostrea.obj
 0002:00002288       ??_R4?$basic_streambuf@GU?$char_traits@G@std@@@std@@6B@ 10025288     libcpmt:wiostrea.obj
 0002:000022a0       ??_R1A@?0A@A@exception@@8  100252a0     libcpmt:ios.obj
 0002:000022b8       ??_R1A@?0A@A@runtime_error@std@@8 100252b8     libcpmt:ios.obj
 0002:000022d0       ??_R1A@?0A@A@failure@ios_base@std@@8 100252d0     libcpmt:ios.obj
 0002:000022e8       ??_R2failure@ios_base@std@@8 100252e8     libcpmt:ios.obj
 0002:000022f8       ??_R3failure@ios_base@std@@8 100252f8     libcpmt:ios.obj
 0002:00002308       ??_R4failure@ios_base@std@@6B@ 10025308     libcpmt:ios.obj
 0002:00002320       ??_R2runtime_error@std@@8  10025320     libcpmt:ios.obj
 0002:00002330       ??_R3runtime_error@std@@8  10025330     libcpmt:ios.obj
 0002:00002340       ??_R4runtime_error@std@@6B@ 10025340     libcpmt:ios.obj
 0002:00002354       ??_R2ios_base@std@@8       10025354     libcpmt:ios.obj
 0002:00002360       ??_R3ios_base@std@@8       10025360     libcpmt:ios.obj
 0002:00002370       ??_R4ios_base@std@@6B@     10025370     libcpmt:ios.obj
 0002:00002384       ??_R2facet@locale@std@@8   10025384     libcpmt:locale0.obj
 0002:00002390       ??_R3facet@locale@std@@8   10025390     libcpmt:locale0.obj
 0002:000023a0       ??_R4facet@locale@std@@6B@ 100253a0     libcpmt:locale0.obj
 0002:000023b8       ??_R1A@?0A@A@facet@locale@std@@8 100253b8     libcpmt:locale0.obj
 0002:000023d0       ??_R1A@?0A@A@_Locimp@locale@std@@8 100253d0     libcpmt:locale0.obj
 0002:000023e8       ??_R2_Locimp@locale@std@@8 100253e8     libcpmt:locale0.obj
 0002:000023f8       ??_R3_Locimp@locale@std@@8 100253f8     libcpmt:locale0.obj
 0002:00002408       ??_R4_Locimp@locale@std@@6B@ 10025408     libcpmt:locale0.obj
 0002:00002420       ??_R1A@?0A@A@logic_error@std@@8 10025420     libcpmt:string.obj
 0002:00002438       ??_R1A@?0A@A@length_error@std@@8 10025438     libcpmt:string.obj
 0002:00002450       ??_R2length_error@std@@8   10025450     libcpmt:string.obj
 0002:00002460       ??_R3length_error@std@@8   10025460     libcpmt:string.obj
 0002:00002470       ??_R4length_error@std@@6B@ 10025470     libcpmt:string.obj
 0002:00002488       ??_R2logic_error@std@@8    10025488     libcpmt:string.obj
 0002:00002498       ??_R3logic_error@std@@8    10025498     libcpmt:string.obj
 0002:000024a8       ??_R4logic_error@std@@6B@  100254a8     libcpmt:string.obj
 0002:000024c0       ??_R1A@?0A@A@out_of_range@std@@8 100254c0     libcpmt:string.obj
 0002:000024d8       ??_R2out_of_range@std@@8   100254d8     libcpmt:string.obj
 0002:000024e8       ??_R3out_of_range@std@@8   100254e8     libcpmt:string.obj
 0002:000024f8       ??_R4out_of_range@std@@6B@ 100254f8     libcpmt:string.obj
 0002:00002510       ??_R1A@?0A@A@bad_alloc@std@@8 10025510     libcpmt:nomemory.obj
 0002:00002528       ??_R2bad_alloc@std@@8      10025528     libcpmt:nomemory.obj
 0002:00002538       ??_R3bad_alloc@std@@8      10025538     libcpmt:nomemory.obj
 0002:00002548       ??_R4bad_alloc@std@@6B@    10025548     libcpmt:nomemory.obj
 0002:00002560       ??_R1A@?0A@A@type_info@@8  10025560     LIBCMT:typinfo.obj
 0002:00002578       ??_R2type_info@@8          10025578     LIBCMT:typinfo.obj
 0002:00002580       ??_R3type_info@@8          10025580     LIBCMT:typinfo.obj
 0002:00002590       ??_R4type_info@@6B@        10025590     LIBCMT:typinfo.obj
 0002:000025a4       ??_R2exception@@8          100255a4     LIBCMT:stdexcpt.obj
 0002:000025b0       ??_R3exception@@8          100255b0     LIBCMT:stdexcpt.obj
 0002:000025c0       ??_R4exception@@6B@        100255c0     LIBCMT:stdexcpt.obj
 0002:00003f50       __CT??_R0?AVstructured_exception@@@88 10026f50     except.obj
 0002:00003f70       __CTA1?AVstructured_exception@@ 10026f70     except.obj
 0002:00003f78       __TI1?AVstructured_exception@@ 10026f78     except.obj
 0002:000042a0       __CT??_R0?AVexception@@@8??0exception@@QAE@ABV0@@Z12 100272a0     libcpmt:ios.obj
 0002:000042c0       __CT??_R0?AVruntime_error@std@@@8??0runtime_error@std@@QAE@ABV01@@Z28 100272c0     libcpmt:ios.obj
 0002:000042e0       __CT??_R0?AVfailure@ios_base@std@@@8??0failure@ios_base@std@@QAE@ABV012@@Z28 100272e0     libcpmt:ios.obj
 0002:00004300       __CTA3?AVfailure@ios_base@std@@ 10027300     libcpmt:ios.obj
 0002:00004310       __TI3?AVfailure@ios_base@std@@ 10027310     libcpmt:ios.obj
 0002:00004370       __CTA2?AVruntime_error@std@@ 10027370     libcpmt:ios.obj
 0002:00004380       __TI2?AVruntime_error@std@@ 10027380     libcpmt:ios.obj
 0002:00004598       __CT??_R0?AVlogic_error@std@@@8??0logic_error@std@@QAE@ABV01@@Z28 10027598     libcpmt:string.obj
 0002:000045b8       __CT??_R0?AVlength_error@std@@@8??0length_error@std@@QAE@ABV01@@Z28 100275b8     libcpmt:string.obj
 0002:000045d8       __CTA3?AVlength_error@std@@ 100275d8     libcpmt:string.obj
 0002:000045e8       __TI3?AVlength_error@std@@ 100275e8     libcpmt:string.obj
 0002:00004648       __CTA2?AVlogic_error@std@@ 10027648     libcpmt:string.obj
 0002:00004658       __TI2?AVlogic_error@std@@  10027658     libcpmt:string.obj
 0002:000046e0       __CT??_R0?AVout_of_range@std@@@8??0out_of_range@std@@QAE@ABV01@@Z28 100276e0     libcpmt:string.obj
 0002:00004700       __CTA3?AVout_of_range@std@@ 10027700     libcpmt:string.obj
 0002:00004710       __TI3?AVout_of_range@std@@ 10027710     libcpmt:string.obj
 0002:00004770       __CT??_R0?AVbad_alloc@std@@@8??0bad_alloc@std@@QAE@ABV01@@Z12 10027770     libcpmt:nomemory.obj
 0002:00004790       __CTA2?AVbad_alloc@std@@   10027790     libcpmt:nomemory.obj
 0002:000047a0       __TI2?AVbad_alloc@std@@    100277a0     libcpmt:nomemory.obj
 0002:000047b0       __IMPORT_DESCRIPTOR_BNCSIF32 100277b0     bncsif32:BNCSIF32.dll
 0002:000047c4       __IMPORT_DESCRIPTOR_qt-mt323 100277c4     qt-mt323:qt-mt323.dll
 0002:000047d8       __IMPORT_DESCRIPTOR_KERNEL32 100277d8     kernel32:KERNEL32.dll
 0002:000047ec       __IMPORT_DESCRIPTOR_USER32 100277ec     user32:USER32.dll
 0002:00004800       __IMPORT_DESCRIPTOR_GDI32  10027800     gdi32:GDI32.dll
 0002:00004814       __NULL_IMPORT_DESCRIPTOR   10027814     bncsif32:BNCSIF32.dll
 0003:00000000       ___xc_a                    1002a000     LIBCMT:crt0init.obj
 0003:0000007c       ___xc_z                    1002a07c     LIBCMT:crt0init.obj
 0003:00000080       ___xi_a                    1002a080     LIBCMT:crt0init.obj
 0003:00000094       ___xi_z                    1002a094     LIBCMT:crt0init.obj
 0003:00000098       ___xp_a                    1002a098     LIBCMT:crt0init.obj
 0003:000000a0       ___xp_z                    1002a0a0     LIBCMT:crt0init.obj
 0003:000000a4       ___xt_a                    1002a0a4     LIBCMT:crt0init.obj
 0003:000000ac       ___xt_z                    1002a0ac     LIBCMT:crt0init.obj
 0003:000000b0       ??_R0?AVcDriver@@@8        1002a0b0     alm_db_output_if.obj
 0003:000000c8       ??_R0?AValm_db_outputif@@@8 1002a0c8     alm_db_output_if.obj
 0003:000000e8       ??_R0?AUQShared@@@8        1002a0e8     alm_db_output_if.obj
 0003:00000100       ??_R0?AV?$QValueListPrivate@VQString@@@@@8 1002a100     alm_db_output_if.obj
 0003:00000130       ??_R0?AV?$QValueListNode@VQString@@@@@8 1002a130     alm_db_output_if.obj
 0003:00000160       ??_R0?AValarms_base@@@8    1002a160     alm_db_output_if.obj
 0003:00000180       ??_R0?AValarms_output_base@@@8 1002a180     alm_db_output_if.obj
 0003:000001a4       ??_C@_0BN@LPKO@constructor?5?9?5this?5dll?5is?5?$CFs?$AA@ 1002a1a4     alm_db_output_if.obj
 0003:000001c4       ??_C@_0BD@BKOD@database?5interface?$AA@ 1002a1c4     alm_db_output_if.obj
 0003:000001d8       ??_C@_0BF@JNC@db?5Interface?5Closing?$AA@ 1002a1d8     alm_db_output_if.obj
 0003:000001f0       ??_C@_0BI@HBJL@Close?5db?5output?5module?4?$AA@ 1002a1f0     alm_db_output_if.obj
 0003:00000208       ??_C@_0BO@CJL@Other?5error?5connecting?5to?5CSI?$AA@ 1002a208     alm_db_output_if.obj
 0003:00000228       ??_C@_0BN@NHOJ@Invalid?5BNCS?5driver?5number?3?5?$AA@ 1002a228     alm_db_output_if.obj
 0003:00000248       ??_C@_0BN@EJIH@BNCS?5driver?5already?5exists?3?5?$AA@ 1002a248     alm_db_output_if.obj
 0003:00000268       ??_C@_0BP@BEMM@CSI?5not?5enabled?5in?5driver?5mode?$AA@ 1002a268     alm_db_output_if.obj
 0003:00000288       ??_C@_0P@DKGD@Can?8t?5find?5CSI?$AA@ 1002a288     alm_db_output_if.obj
 0003:00000298       ??_C@_0P@FCFP@init?5completed?$AA@ 1002a298     alm_db_output_if.obj
 0003:000002a8       ??_C@_0BG@KHNA@db?5Interface?5starting?$AA@ 1002a2a8     alm_db_output_if.obj
 0003:000002c0       ??_C@_0BB@EDOB@Connected?5to?5CSI?$AA@ 1002a2c0     alm_db_output_if.obj
 0003:000002d4       ??_C@_0DC@DPFI@Failed?5to?5start?5the?5secondary?5da@ 1002a2d4     alm_db_output_if.obj
 0003:00000308       ??_C@_0BP@OKKF@There?5is?5no?5secondary?5database?$AA@ 1002a308     alm_db_output_if.obj
 0003:00000328       ??_C@_0DA@CGKH@Failed?5to?5start?5the?5primary?5data@ 1002a328     alm_db_output_if.obj
 0003:00000358       ??_C@_0BN@HNPG@There?5is?5no?5primary?5database?$AA@ 1002a358     alm_db_output_if.obj
 0003:00000378       ??_C@_0P@NDAI@Load?5took?5?$CFf?5s?$AA@ 1002a378     alm_db_output_if.obj
 0003:00000388       ??_C@_06NILE@System?$AA@   1002a388     alm_db_output_if.obj
 0003:00000390       ??_C@_01FIMD@?$FN?$AA@     1002a390     alm_db_output_if.obj
 0003:00000394       ??_C@_01KHLB@?$FL?$AA@     1002a394     alm_db_output_if.obj
 0003:00000398       ??_C@_07DPEN@?1config?$AA@ 1002a398     alm_db_output_if.obj
 0003:000003a0       ??_C@_03ICNC@?1?4?4?$AA@   1002a3a0     alm_db_output_if.obj
 0003:000003a4       ??_C@_09KBCF@Secondary?$AA@ 1002a3a4     alm_db_output_if.obj
 0003:000003b0       ??_C@_07CENM@Primary?$AA@  1002a3b0     alm_db_output_if.obj
 0003:000003b8       ??_C@_0BE@JNHE@File?5not?5valid?5?9?5?$CFs?$AA@ 1002a3b8     alm_db_output_if.obj
 0003:000003cc       ??_C@_0CA@OFEN@Initialising?5Output?5module?5?9?5?$CFs?$AA@ 1002a3cc     alm_db_output_if.obj
 0003:000003ec       ??_C@_01PKAG@?3?$AA@       1002a3ec     alm_db_output_if.obj
 0003:000003f0       ??_C@_0BB@GLCB@alm_db_outputif?3?$AA@ 1002a3f0     alm_db_output_if.obj
 0003:00000408       ??_R0?AVstructured_exception@@@8 1002a408     alm_db_output_if.obj
 0003:0000042c       ??_C@_0DF@DHMA@alm_db_outputif?3?3newData?5thrown?5@ 1002a42c     alm_db_output_if.obj
 0003:00000464       ??_C@_06BIKK@RxOnly?$AA@   1002a464     alm_db_output_if.obj
 0003:0000046c       ??_C@_0CJ@IGEF@setTxMode?$CI?$CJ?5setMode?$DN?$CFs?$CFs?5current@ 1002a46c     alm_db_output_if.obj
 0003:00000498       ??_C@_06PBJJ@FORCE?5?$AA@  1002a498     alm_db_output_if.obj
 0003:000004a0       ??_C@_04FPN@TxRx?$AA@      1002a4a0     alm_db_output_if.obj
 0003:000004a8       ??_C@_01KMAE@?0?$AA@       1002a4a8     alm_db_output_if.obj
 0003:000004ac       ??_C@_0BE@IODD@yyyy?9MM?9dd?5hh?3mm?3ss?$AA@ 1002a4ac     alm_db_output_if.obj
 0003:000004c0       ??_C@_04BAK@NULL?$AA@      1002a4c0     alm_db_output_if.obj
 0003:000004c8       ??_C@_0N@HOJO@IR?5?$CFd?51?5?8?$CFs?8?$AA@ 1002a4c8     alm_db_output_if.obj
 0003:000004d8       ??_C@_0BF@PHPL@Other?5State?5?$CFd?0?5?$CC?$CFs?$CC?$AA@ 1002a4d8     alm_db_output_if.obj
 0003:000004f0       ??_C@_0CF@FGPA@?5?$CK?$CK?$CK?$CK?$CK?$CK?$CK?$CK?$CK?$CK?$CK?$CK?$CK?5Request?5to?5go?5to?5@ 1002a4f0     alm_db_output_if.obj
 0003:00000518       ??_C@_0CI@OEFK@?5?$CK?$CK?$CK?$CK?$CK?$CK?$CK?$CK?$CK?$CK?$CK?$CK?$CK?5Request?5to?5go?5to?5@ 1002a518     alm_db_output_if.obj
 0003:00000540       ??_C@_0BP@DOOO@?5?$CK?$CK?$CK?$CK?$CK?$CK?$CK?$CK?$CK?$CK?$CK?$CK?$CK?5Sent?5to?5RX?5Only?$AA@ 1002a540     alm_db_output_if.obj
 0003:00000560       ??_C@_0M@NGNF@CSI?5closing?$AA@ 1002a560     alm_db_output_if.obj
 0003:0000056c       ??_C@_0CE@LDDF@?5?$CK?$CK?$CK?$CK?$CK?$CK?$CK?$CK?$CK?$CK?$CK?$CK?$CK?5Status?5message?5is@ 1002a56c     alm_db_output_if.obj
 0003:00000590       ??_C@_0N@GCMJ@Message?5?8?$CFs?8?$AA@ 1002a590     alm_db_output_if.obj
 0003:000005a0       ??_C@_0BL@BKCH@db?5Interface?5alive?5message?$AA@ 1002a5a0     alm_db_output_if.obj
 0003:000005bc       ??_C@_07DCJF@dB?5I?1F?5?$AA@ 1002a5bc     alm_db_output_if.obj
 0003:000005c4       ??_C@_0BH@CNHP@Database?5interface?5Ok?4?$AA@ 1002a5c4     alm_db_output_if.obj
 0003:000005dc       ??_C@_0CP@GPFB@Not?5Ok?5because?5secondary?5databas@ 1002a5dc     alm_db_output_if.obj
 0003:0000060c       ??_C@_0CO@GGJJ@Not?5Ok?5because?5secondary?5databas@ 1002a60c     alm_db_output_if.obj
 0003:0000063c       ??_C@_0CN@HKBF@Not?5Ok?5because?5primary?5database?5@ 1002a63c     alm_db_output_if.obj
 0003:0000066c       ??_C@_0CM@CCON@Not?5Ok?5because?5primary?5database?5@ 1002a66c     alm_db_output_if.obj
 0003:00000698       ??_C@_0CD@PGDG@Not?5Ok?5because?5no?5BNCS?5connectio@ 1002a698     alm_db_output_if.obj
 0003:000006bc       ??_C@_0BM@GJNA@Secondary?5database?5driver?5?8?$AA@ 1002a6bc     alm_db_output_if.obj
 0003:000006d8       ??_C@_09GNAI@dbDriver2?$AA@ 1002a6d8     alm_db_output_if.obj
 0003:000006e4       ??_C@_0M@OCAM@dbPassword2?$AA@ 1002a6e4     alm_db_output_if.obj
 0003:000006f0       ??_C@_07JOOA@dbUser2?$AA@  1002a6f0     alm_db_output_if.obj
 0003:000006f8       ??_C@_0M@OECB@dbDatabase2?$AA@ 1002a6f8     alm_db_output_if.obj
 0003:00000704       ??_C@_07ONDE@dbHost2?$AA@  1002a704     alm_db_output_if.obj
 0003:0000070c       ??_C@_02DILL@?$CFs?$AA@    1002a70c     alm_db_output_if.obj
 0003:00000710       ??_C@_0BA@GDIN@?8?5not?5available?$AA@ 1002a710     alm_db_output_if.obj
 0003:00000720       ??_C@_0BK@EDFK@Primary?5database?5driver?5?8?$AA@ 1002a720     alm_db_output_if.obj
 0003:0000073c       ??_C@_08LGLM@dbDriver?$AA@ 1002a73c     alm_db_output_if.obj
 0003:00000748       ??_C@_0L@LCOG@dbPassword?$AA@ 1002a748     alm_db_output_if.obj
 0003:00000754       ??_C@_06FOCA@dbUser?$AA@   1002a754     alm_db_output_if.obj
 0003:0000075c       ??_C@_0L@JPAO@dbDatabase?$AA@ 1002a75c     alm_db_output_if.obj
 0003:00000768       ??_C@_06IKCK@dbHost?$AA@   1002a768     alm_db_output_if.obj
 0003:00000770       ??_C@_09HAPM@AlmSystem?$AA@ 1002a770     alm_db_output_if.obj
 0003:0000077c       ??_C@_04EFNI@Name?$AA@     1002a77c     alm_db_output_if.obj
 0003:00000784       ??_C@_0BA@IKLB@bncs_log_driver?$AA@ 1002a784     alm_db_output_if.obj
 0003:00000794       ??_C@_01KPOD@?$DN?$AA@     1002a794     alm_db_output_if.obj
 0003:00000798       ??_C@_05PGGH@Level?$AA@    1002a798     alm_db_output_if.obj
 0003:000007a0       ??_C@_09BBF@UserGroup?$AA@ 1002a7a0     alm_db_output_if.obj
 0003:000007ac       ??_C@_06NBPC@Device?$AA@   1002a7ac     alm_db_output_if.obj
 0003:000007b4       ??_C@_07FHA@Latched?$AA@   1002a7b4     alm_db_output_if.obj
 0003:000007bc       ??_C@_07PCHH@Unknown?$AA@  1002a7bc     alm_db_output_if.obj
 0003:000007c4       ??_C@_06BAFM@Ignore?$AA@   1002a7c4     alm_db_output_if.obj
 0003:000007cc       ??_C@_03MPJF@Ack?$AA@      1002a7cc     alm_db_output_if.obj
 0003:000007d0       ??_C@_04MLMN@Fail?$AA@     1002a7d0     alm_db_output_if.obj
 0003:000007d8       ??_C@_02HAGF@OK?$AA@       1002a7d8     alm_db_output_if.obj
 0003:000007e0       ??_R0?AVQDomNode@@@8       1002a7e0     alm_db_output_if.obj
 0003:000007f8       ??_R0?AVQDomElement@@@8    1002a7f8     alm_db_output_if.obj
 0003:00000818       ??_R0?AVQPtrCollection@@@8 1002a818     alm_db_output_if.obj
 0003:00000838       ??_R0?AVQGDict@@@8         1002a838     alm_db_output_if.obj
 0003:00000850       ??_R0?AV?$QDict@UInstanceData@@@@@8 1002a850     alm_db_output_if.obj
 0003:00000878       ??_C@_0DD@FMDI@Instance?5file?5read?5took?5?$CFf?5s?4?5Bu@ 1002a878     alm_db_output_if.obj
 0003:000008ac       ??_C@_07DMAD@complex?$AA@  1002a8ac     alm_db_output_if.obj
 0003:000008b4       ??_C@_06KCLD@offset?$AA@   1002a8b4     alm_db_output_if.obj
 0003:000008bc       ??_C@_06GFPG@device?$AA@   1002a8bc     alm_db_output_if.obj
 0003:000008c4       ??_C@_03HJJN@ref?$AA@      1002a8c4     alm_db_output_if.obj
 0003:000008c8       ??_C@_04PIKN@type?$AA@     1002a8c8     alm_db_output_if.obj
 0003:000008d0       ??_C@_09COFM@composite?$AA@ 1002a8d0     alm_db_output_if.obj
 0003:000008dc       ??_C@_08KGHI@location?$AA@ 1002a8dc     alm_db_output_if.obj
 0003:000008e8       ??_C@_06PACD@alt_id?$AA@   1002a8e8     alm_db_output_if.obj
 0003:000008f0       ??_C@_02IBHF@id?$AA@       1002a8f0     alm_db_output_if.obj
 0003:000008f4       ??_C@_08IHDL@instance?$AA@ 1002a8f4     alm_db_output_if.obj
 0003:00000900       ??_C@_09MMGO@instances?$AA@ 1002a900     alm_db_output_if.obj
 0003:0000090c       ??_C@_0P@BLEO@?1instances?4xml?$AA@ 1002a90c     alm_db_output_if.obj
 0003:0000091c       ??_C@_0O@HDKP@?1local_config?$AA@ 1002a91c     alm_db_output_if.obj
 0003:0000092c       ??_C@_08LOKJ@?1alarms?1?$AA@ 1002a92c     alm_db_output_if.obj
 0003:00000938       ??_C@_0BK@GJMN@Setting?5network?5output?5?$CF1?$AA@ 1002a938     alm_db_output_if.obj
 0003:00000954       ??_C@_0BK@GFLG@Setting?5network?5output?5?$CFd?$AA@ 1002a954     alm_db_output_if.obj
 0003:00000970       ??_C@_0CO@BJGH@alm_db_outputif?3?3aboutToClose?5?9?5@ 1002a970     alm_db_output_if.obj
 0003:000009a0       ??_C@_0BA@CHKF@alm_db_outputif?$AA@ 1002a9a0     alm_db_output_if.obj
 0003:000009b0       ??_C@_0BI@PHJO@ASSERT?3?5?$CC?$CFs?$CC?5in?5?$CFs?5?$CI?$CFd?$CJ?$AA@ 1002a9b0     alm_db_output_if.obj
 0003:000009c8       ??_C@_0L@MGKG@i?5?$DM?$DN?5nodes?$AA@ 1002a9c8     alm_db_output_if.obj
 0003:000009d4       ??_C@_0CB@GILJ@C?3?2Qt?23?42?43?2include?2qvaluelist?4h@ 1002a9d4     alm_db_output_if.obj
 0003:000009f8       ??_R0?AVCio@@@8            1002a9f8     Cio.obj
 0003:00000a0c       ??_C@_05IJNP@?1data?$AA@   1002aa0c     Cio.obj
 0003:00000a14       ??_C@_0BG@IPCL@Cio?3?3emptyLogFiles?$CI?$CJ?5?$AA@ 1002aa14     Cio.obj
 0003:00000a30       ??_R0?AVFilePair@Cio@@@8   1002aa30     Cio.obj
 0003:00000a4c       ??_C@_0BG@CDAO@Failed?5to?5open?5files?4?$AA@ 1002aa4c     Cio.obj
 0003:00000a64       ??_C@_0BD@CMJP@?$CF1?1logioNode?$CF2?4dat?$AA@ 1002aa64     Cio.obj
 0003:00000a78       ??_C@_0BL@GFEA@Failed?5to?5create?5data?5dir?4?$AA@ 1002aa78     Cio.obj
 0003:00000a94       ??_C@_0BP@EGIO@?8?$CFs?8?5Doesn?8t?5exist?4?5Create?5it?4?$AA@ 1002aa94     Cio.obj
 0003:00000ab4       ??_C@_0DL@HGBJ@Cio?3?3FilePair?3?3deleteFiles?$CI?$CJ?5fai@ 1002aab4     Cio.obj
 0003:00000af0       ??_C@_0DJ@MJJG@Cio?3?3FilePair?3?3deleteFiles?$CI?$CJ?5fai@ 1002aaf0     Cio.obj
 0003:00000b2c       ??_C@_0BN@FJMA@Cio?3?3FilePair?3?3deleteFiles?$CI?$CJ?$AA@ 1002ab2c     Cio.obj
 0003:00000b50       ??_R0?AVQIODevice@@@8      1002ab50     Cio.obj
 0003:00000b68       ??_R0?AVQFile@@@8          1002ab68     Cio.obj
 0003:00000b7c       ??_C@_0EK@NJEN@Cio?3?3FilePair?3?3openFiles?5?9?5END?5m@ 1002ab7c     Cio.obj
 0003:00000bc8       ??_C@_0CF@MGE@Failed?5to?5open?5logio?5dat1?5file?4?5@ 1002abc8     Cio.obj
 0003:00000bf0       ??_C@_0CE@GJOK@Failed?5to?5open?5logio?5dat?5file?4?5?8@ 1002abf0     Cio.obj
 0003:00000c18       ??_R0?AVcLogData@@@8       1002ac18     cLogData.obj
 0003:00000c30       ??_C@_09ENHK@?$CFcomplex?$CF?$AA@ 1002ac30     cLogData.obj
 0003:00000c3c       ??_C@_08MPMP@?$CFoffset?$CF?$AA@ 1002ac3c     cLogData.obj
 0003:00000c48       ??_C@_08NBAI@?$CFdevice?$CF?$AA@ 1002ac48     cLogData.obj
 0003:00000c54       ??_C@_05ECEI@?$CFref?$CF?$AA@ 1002ac54     cLogData.obj
 0003:00000c5c       ??_C@_06NLPH@?$CFtype?$CF?$AA@ 1002ac5c     cLogData.obj
 0003:00000c64       ??_C@_0M@POEN@?$CFcomposite?$CF?$AA@ 1002ac64     cLogData.obj
 0003:00000c70       ??_C@_0L@KAP@?$CFlocation?$CF?$AA@ 1002ac70     cLogData.obj
 0003:00000c7c       ??_C@_08DPJN@?$CFalt_id?$CF?$AA@ 1002ac7c     cLogData.obj
 0003:00000c88       ??_C@_0BB@LBJN@Unknown?5Instance?$AA@ 1002ac88     cLogData.obj
 0003:00000ca0       ??_R0?AVQGList@@@8         1002aca0     db_interface.obj
 0003:00000cb8       ??_R0?AV?$QPtrList@VdbItem@@@@@8 1002acb8     db_interface.obj
 0003:00000ce0       ??_R0?AVQSemaphore@@@8     1002ace0     db_interface.obj
 0003:00000d00       ??_R0?AVIDiagnostics@@@8   1002ad00     db_interface.obj
 0003:00000d20       ??_R0?AVQt@@@8             1002ad20     db_interface.obj
 0003:00000d38       ??_R0?AVQThread@@@8        1002ad38     db_interface.obj
 0003:00000d50       ??_R0?AVdb_interface@@@8   1002ad50     db_interface.obj
 0003:00000d6c       ??_C@_0FC@LOOH@Offset?5file?5contains?5?$CFd?5bytes?0?5o@ 1002ad6c     db_interface.obj
 0003:00000dc0       ??_C@_0DE@JOIO@Construct?4?5running?5flag?5?$CF1?4?5runn@ 1002adc0     db_interface.obj
 0003:00000df4       ??_C@_07MMGG@Thread?3?$AA@ 1002adf4     db_interface.obj
 0003:00000dfc       ??_C@_0DK@NBEK@List?5not?5empty?5during?5close?4?5?$CF1?5@ 1002adfc     db_interface.obj
 0003:00000e38       ??_C@_0EH@IMNO@Thread?5finished?5at?5test?5?$CF1?4?5runn@ 1002ae38     db_interface.obj
 0003:00000e80       ??_C@_0EH@GIBO@Unable?5to?5terminate?5thread?4?5runn@ 1002ae80     db_interface.obj
 0003:00000ec8       ??_C@_0CE@LKGD@Thread?5didn?8t?5finish?4?5Terminate?5@ 1002aec8     db_interface.obj
 0003:00000eec       ??_C@_0FB@DEIB@Thread?5still?5not?5finished?5at?5tes@ 1002aeec     db_interface.obj
 0003:00000f40       ??_C@_0EL@MFFI@Thread?5has?5finished?5at?5test?5?$CF1?4?5@ 1002af40     db_interface.obj
 0003:00000f8c       ??_C@_0CI@JMCG@Waiting?5for?5thread?5to?5exit?4?5fini@ 1002af8c     db_interface.obj
 0003:00000fb4       ??_C@_0CO@CFAJ@Destruct?4?5Request?5thread?5to?5stop@ 1002afb4     db_interface.obj
 0003:00000fe4       ??_C@_0BO@NDP@Destruct?4?5Thread?5not?5running?4?$AA@ 1002afe4     db_interface.obj
 0003:00001004       ??_C@_0DM@CKNF@Destruct?4?5Thread?5running?5?$CF1?4?5fin@ 1002b004     db_interface.obj
 0003:00001040       ??_C@_0CP@NKDF@Stop?4?5running?5flag?5?$CF1?4?5running?5?$CF@ 1002b040     db_interface.obj
 0003:00001070       ??_C@_0CE@HFFP@run?5thrown?5exception?5?$CFx?5from?5?$CFx?0@ 1002b070     db_interface.obj
 0003:00001094       ??_C@_0DJ@NADO@?$CK?$CK?$CK?$CK?$CK?$CK?5Database?5interface?5thread@ 1002b094     db_interface.obj
 0003:000010d0       ??_C@_0DC@LAGB@?$CK?$CK?$CK?$CK?$CK?$CK?5Database?5interface?5thread@ 1002b0d0     db_interface.obj
 0003:00001104       ??_C@_06LFNM@run?5?9?5?$AA@ 1002b104     db_interface.obj
 0003:0000110c       ??_C@_0CH@OEIA@Don?8t?5go?5back?5to?5sleep?5because?5c@ 1002b10c     db_interface.obj
 0003:00001134       ??_C@_0BD@ILBE@Woke?5up?5after?5ages?$AA@ 1002b134     db_interface.obj
 0003:00001148       ??_C@_0BJ@ILKI@Woke?5up?5because?5signaled?$AA@ 1002b148     db_interface.obj
 0003:00001164       ??_C@_0EA@HDLN@Sleeping?5for?5ages?4?5list?5empty?4?5l@ 1002b164     db_interface.obj
 0003:000011a4       ??_C@_0ED@BHCL@Db?5open?1connected?5?$CF1?4?5Logio?5empt@ 1002b1a4     db_interface.obj
 0003:000011e8       ??_C@_0BG@JPDD@bDataBaseConnected?4?4?4?$AA@ 1002b1e8     db_interface.obj
 0003:00001200       ??_C@_0BB@BDML@bListNotEmpty?4?4?4?$AA@ 1002b200     db_interface.obj
 0003:00001214       ??_C@_0BC@GNCB@bLogioNotEmpty?4?4?4?$AA@ 1002b214     db_interface.obj
 0003:00001228       ??_C@_0DK@MCC@?$CK?$CK?$CK?$CK?$CK?$CK?5Database?5interface?5thread@ 1002b228     db_interface.obj
 0003:00001264       ??_C@_0BI@NLIK@TransferLogioToDb?5?9?5end?$AA@ 1002b264     db_interface.obj
 0003:0000127c       ??_C@_0BH@DDMG@run?5?9?5empty?5log?5files?4?$AA@ 1002b27c     db_interface.obj
 0003:00001294       ??_C@_0BA@BHEM@empty?5log?5files?$AA@ 1002b294     db_interface.obj
 0003:000012a4       ??_C@_0BP@BJCM@writeToDatabase?5returned?5false?$AA@ 1002b2a4     db_interface.obj
 0003:000012c4       ??_C@_0BI@LPDF@before?5updateFileOffset?$AA@ 1002b2c4     db_interface.obj
 0003:000012dc       ??_C@_0BH@NKFB@before?5writeToDatabase?$AA@ 1002b2dc     db_interface.obj
 0003:000012f4       ??_C@_0CO@JOMD@Get?5first?5item?5from?5Cio?5and?5put?5@ 1002b2f4     db_interface.obj
 0003:00001324       ??_C@_0BK@DOLA@TransferLogioToDb?5?9?5start?$AA@ 1002b324     db_interface.obj
 0003:00001340       ??_C@_0CA@BHKK@TransferListToDb?5?9?5end?4?5size?5?$CFd?$AA@ 1002b340     db_interface.obj
 0003:00001360       ??_C@_0M@OHOK@Delete?5item?$AA@ 1002b360     db_interface.obj
 0003:0000136c       ??_C@_0BM@DLMB@Remove?5first?5item?5from?5list?$AA@ 1002b36c     db_interface.obj
 0003:00001388       ??_C@_0CF@JDPF@TransferListToDb?5?9?5data?5is?5not?5v@ 1002b388     db_interface.obj
 0003:000013b0       ??_C@_0CP@JLDF@Get?5first?5item?5from?5list?5and?5put@ 1002b3b0     db_interface.obj
 0003:000013e0       ??_C@_0CC@JHAM@TransferListToDb?5?9?5start?4?5size?5?$CF@ 1002b3e0     db_interface.obj
 0003:00001404       ??_C@_0CD@JIEJ@TransferListToLogio?5?9?5end?4?5size?5@ 1002b404     db_interface.obj
 0003:00001428       ??_C@_0CI@BOCM@TransferListToLogio?5?9?5data?5is?5no@ 1002b428     db_interface.obj
 0003:00001450       ??_C@_0CK@LPOL@Get?5first?5item?5from?5list?5and?5put@ 1002b450     db_interface.obj
 0003:0000147c       ??_C@_0CF@BLN@TransferListToLogio?5?9?5start?4?5siz@ 1002b47c     db_interface.obj
 0003:000014a4       ??_C@_0CG@DEPD@?$CFs?4?5Interface?5thread?5already?5run@ 1002b4a4     db_interface.obj
 0003:000014cc       ??_C@_0BM@NPEO@?$CFs?4?5Start?5interface?5thread?4?$AA@ 1002b4cc     db_interface.obj
 0003:000014e8       ??_C@_0BO@JBDB@startConnect?4?5db?5?8?$CF1?8?5on?5?8?$CF2?8?$AA@ 1002b4e8     db_interface.obj
 0003:00001508       ??_C@_04BMII@?5?9?9?5?$AA@ 1002b508     db_interface.obj
 0003:00001510       ??_C@_0L@BFBP@Database?3?5?$AA@ 1002b510     db_interface.obj
 0003:0000151c       ??_C@_0CO@NICD@Database?5output?5buffer?5full?0?5dat@ 1002b51c     db_interface.obj
 0003:0000154c       ??_C@_0BE@JHJF@db_interface?$CI?$CF1?$CJ?9?$CF2?$AA@ 1002b54c     db_interface.obj
 0003:00001560       ??_C@_03DMDD@?5?9?5?$AA@   1002b560     db_interface.obj
 0003:00001564       ??_C@_0BD@FGHN@SQL?5other?5error?5?9?5?$AA@ 1002b564     db_interface.obj
 0003:00001578       ??_C@_0BJ@MOML@SQL?5Transaction?5error?5?9?5?$AA@ 1002b578     db_interface.obj
 0003:00001594       ??_C@_0BH@FFGM@SQL?5Statement?5error?5?9?5?$AA@ 1002b594     db_interface.obj
 0003:000015ac       ??_C@_0BI@DOBD@SQL?5Connection?5error?5?9?5?$AA@ 1002b5ac     db_interface.obj
 0003:000015c4       ??_C@_0BA@NAEE@No?5SQL?5error?5?9?5?$AA@ 1002b5c4     db_interface.obj
 0003:000015d4       ??_C@_01FCOA@?5?$AA@       1002b5d4     db_interface.obj
 0003:000015d8       ??_C@_0N@OHKB@process_data?$AA@ 1002b5d8     db_interface.obj
 0003:000015e8       ??_C@_0P@EMIG@historical_log?$AA@ 1002b5e8     db_interface.obj
 0003:000015f8       ??_C@_0DD@KEPL@Database?5output?5buffer?5back?5in?5u@ 1002b5f8     db_interface.obj
 0003:0000162c       ??_C@_0BC@IIMB@checkBufferSize?$CI?$CJ?$AA@ 1002b62c     db_interface.obj
 0003:00001640       ??_R0?AVDbConnect@@@8      1002b640     db_interface.obj
 0003:00001658       ??_C@_0DK@IOEJ@?$CK?$CK?$CK?$CK?$CK?$CK?5Database?5connection?5threa@ 1002b658     db_interface.obj
 0003:00001694       ??_C@_0DD@JCCH@?$CK?$CK?$CK?$CK?$CK?$CK?5Database?5connection?5threa@ 1002b694     db_interface.obj
 0003:000016c8       ??_C@_0CL@IBLK@Not?5connected?4?5Timed?9out?5after?5?$CF@ 1002b6c8     db_interface.obj
 0003:000016f4       ??_C@_0CK@KAGO@Not?5connected?4?5Signaled?5after?5?$CF1@ 1002b6f4     db_interface.obj
 0003:00001720       ??_C@_0CA@FCAB@Wait?5?$CF1?5seconds?5for?5connection?4?$AA@ 1002b720     db_interface.obj
 0003:00001740       ??_C@_0CL@NHCL@Was?5connected?4?5Timed?9out?5after?5?$CF@ 1002b740     db_interface.obj
 0003:0000176c       ??_C@_0CK@DBEE@Was?5connected?4?5Signaled?5after?5?$CF1@ 1002b76c     db_interface.obj
 0003:00001798       ??_C@_0BB@KKOE@Wait?5?$CF1?5seconds?4?$AA@ 1002b798     db_interface.obj
 0003:000017ac       ??_C@_0CL@BGPD@Database?5not?5open?4?5Connecting?5an@ 1002b7ac     db_interface.obj
 0003:000017d8       ??_C@_0CF@NJHL@No?5Database?4?5Connecting?5and?5Open@ 1002b7d8     db_interface.obj
 0003:00001800       ??_C@_0DL@IJHM@?$CK?$CK?$CK?$CK?$CK?$CK?5Database?5connection?5threa@ 1002b800     db_interface.obj
 0003:0000183c       ??_C@_0BB@IIDH@DbConnect?$CI?$CF1?$CJ?9?$CF2?$AA@ 1002b83c     db_interface.obj
 0003:00001850       ??_C@_0CP@MFOP@connect_db?4?5Connection?5thread?5al@ 1002b850     db_interface.obj
 0003:00001880       ??_C@_0CF@MFBN@connect_db?4?5Start?5connection?5thr@ 1002b880     db_interface.obj
 0003:000018a8       ??_C@_0BG@BOB@?8?5opened?5successfully?$AA@ 1002b8a8     db_interface.obj
 0003:000018c0       ??_C@_0CC@OLCL@connect_db?4?5Database?5?8?$CF1?8?5opened@ 1002b8c0     db_interface.obj
 0003:000018e4       ??_C@_0CG@MPFD@connect_db?4?5Database?5not?5opened?4@ 1002b8e4     db_interface.obj
 0003:0000190c       ??_C@_0BE@DEKD@?8?5Failed?5to?5open?5?9?5?$AA@ 1002b90c     db_interface.obj
 0003:00001920       ??_C@_0M@BLOD@?5database?5?8?$AA@ 1002b920     db_interface.obj
 0003:0000192c       ??_C@_0BL@BOJC@connect_db?4?5Open?5database?4?$AA@ 1002b92c     db_interface.obj
 0003:00001948       ??_C@_0DB@MMIF@connect_db?4?5No?5database?4?5Thread?5@ 1002b948     db_interface.obj
 0003:0000197c       ??_C@_0CL@GEL@connect_db?4?5No?5database?4?5Start?5t@ 1002b97c     db_interface.obj
 0003:000019a8       ??_C@_0CA@PCLA@connect_db?4?5Adding?5database?4?5?$CFs?$AA@ 1002b9a8     db_interface.obj
 0003:000019c8       ??_C@_0BI@ELJG@connect_db?4?5Library?3?5?$CFs?$AA@ 1002b9c8     db_interface.obj
 0003:000019e0       ??_C@_0BF@NFPL@connect_db?4?5?$CF1?5on?5?$CF2?$AA@ 1002b9e0     db_interface.obj
 0003:000019f8       ??_C@_0DB@PEGD@startConnect?4?5Connection?5thread?5@ 1002b9f8     db_interface.obj
 0003:00001a2c       ??_C@_0CH@GHGF@startConnect?4?5Start?5connection?5t@ 1002ba2c     db_interface.obj
 0003:00001a54       ??_C@_0DD@GOHG@startConnect?4?5No?5database?4?5Threa@ 1002ba54     db_interface.obj
 0003:00001a88       ??_C@_0CN@GFKC@startConnect?4?5No?5database?4?5Start@ 1002ba88     db_interface.obj
 0003:00001ab8       ??_C@_0CC@FGBG@startConnect?4?5Adding?5database?4?5?$CF@ 1002bab8     db_interface.obj
 0003:00001adc       ??_C@_0BK@DMIL@startConnect?4?5Library?3?5?$CFs?$AA@ 1002badc     db_interface.obj
 0003:00001af8       ??_C@_0BH@OBCA@startConnect?4?5?$CF1?5on?5?$CF2?$AA@ 1002baf8     db_interface.obj
 0003:00001b10       ??_C@_0BC@GAOA@Retry?5Connection?4?$AA@ 1002bb10     db_interface.obj
 0003:00001b28       ??_R0?AVdbItem@@@8         1002bb28     dbItem.obj
 0003:00001b40       ??_C@_0DB@JFL@dbItem?3?3operator?$DO?$DO?$CIstring?$CJ?5?9?5?$CFd?4@ 1002bb40     dbItem.obj
 0003:00001b74       ??_C@_0CJ@NPKF@dbItem?3?3operator?$DO?$DO?$CIstring?$CJ?5test?5@ 1002bb74     dbItem.obj
 0003:00001ba0       ??_C@_0CI@JFJJ@dbItem?3?3operator?$DO?$DO?$CIstring?$CJ?5?9?5?$CFd?4@ 1002bba0     dbItem.obj
 0003:00001bc8       ??_C@_0CM@DGNM@dbItem?3?3operator?$DO?$DO?$CIint?$CJ?5?9?5?$CFd?4?5at@ 1002bbc8     dbItem.obj
 0003:00001bf4       ??_C@_0CF@LBDE@dbItem?3?3operator?$DO?$DO?$CIint?$CJ?5?9?5?$CFd?4?5at@ 1002bbf4     dbItem.obj
 0003:00001c1c       ??_C@_0DM@FHNE@dbItem?3?3showFailure?5?9?5At?5end?5of?5@ 1002bc1c     dbItem.obj
 0003:00001c58       ??_R0?AVIValidate@@@8      1002bc58     dbItem.obj
 0003:00001c70       ??_R0?AVValidate_Date@@@8  1002bc70     dbItem.obj
 0003:00001c8c       ??_C@_0EK@CNPP@dbItem?3?3operator?$DO?$DO?$CI?$CJ?5?9?5stream?3?50@ 1002bc8c     dbItem.obj
 0003:00001cd8       ??_C@_04EKLB@proc?$AA@     1002bcd8     dbItem.obj
 0003:00001ce0       ??_C@_05GCOD@group?$AA@    1002bce0     dbItem.obj
 0003:00001ce8       ??_C@_04LHJL@text?$AA@     1002bce8     dbItem.obj
 0003:00001cf0       ??_C@_05PMBM@state?$AA@    1002bcf0     dbItem.obj
 0003:00001cf8       ??_C@_05PCMN@level?$AA@    1002bcf8     dbItem.obj
 0003:00001d00       ??_C@_02CHEK@ms?$AA@       1002bd00     dbItem.obj
 0003:00001d04       ??_C@_04EGPJ@date?$AA@     1002bd04     dbItem.obj
 0003:00001d0c       ??_C@_0DF@PKHB@dbItem?3?3operator?$DO?$DO?$CI?$CJ?5?9?5stream?3?50@ 1002bd0c     dbItem.obj
 0003:00001d44       ??_C@_0CI@PNOC@Failed?5to?5update?5historical?5log?4@ 1002bd44     dbItem.obj
 0003:00001d6c       ??_C@_0BP@FPEG@DB?3?5?$CF1?5?9?9?5SQL?5Failed?5?$CIlog?$CJ?3?5?$CF2?$AA@ 1002bd6c     dbItem.obj
 0003:00001d8c       ??_C@_0FE@BILL@?$CIdate_time?0?5mSec?0?5device_name?0?5t@ 1002bd8c     dbItem.obj
 0003:00001de0       ??_C@_0L@FBEH@Add?5to?5log?$AA@ 1002bde0     dbItem.obj
 0003:00001dec       ??_C@_0CF@LOGC@Failed?5to?5update?5process?5log?3?5?$CF1@ 1002bdec     dbItem.obj
 0003:00001e14       ??_C@_0CD@MMBH@DB?3?5?$CF1?5?9?9?5SQL?5Failed?5?$CIprocess?$CJ?3?5@ 1002be14     dbItem.obj
 0003:00001e38       ??_C@_0BA@MBCH@Duplicate?5entry?$AA@ 1002be38     dbItem.obj
 0003:00001e48       ??_C@_0BE@KOJN@No?5rows?5affected?$CB?$CB?$CB?$AA@ 1002be48     dbItem.obj
 0003:00001e5c       ??_C@_0CA@LHDI@execute?5INSERT?5SQL?5string?5done?$CB?$AA@ 1002be5c     dbItem.obj
 0003:00001e7c       ??_C@_0BK@FDBI@execute?5INSERT?5SQL?5string?$AA@ 1002be7c     dbItem.obj
 0003:00001e98       ??_C@_03NKIJ@?8?$CJ?$DL?$AA@ 1002be98     dbItem.obj
 0003:00001e9c       ??_C@_03EIGN@?0?5?8?$AA@   1002be9c     dbItem.obj
 0003:00001ea0       ??_C@_02GIEM@?0?5?$AA@     1002bea0     dbItem.obj
 0003:00001ea4       ??_C@_03JEPI@?8?0?5?$AA@   1002bea4     dbItem.obj
 0003:00001ea8       ??_C@_04BIJB@?8?0?5?8?$AA@ 1002bea8     dbItem.obj
 0003:00001eb0       ??_C@_0GM@BPGC@?$CIprocess_id?0?5date_time?0?5mSec?0?5cu@ 1002beb0     dbItem.obj
 0003:00001f1c       ??_C@_0N@KHCN@INSERT?5INTO?5?$AA@ 1002bf1c     dbItem.obj
 0003:00001f2c       ??_C@_0BJ@DNP@create?5INSERT?5SQL?5string?$AA@ 1002bf2c     dbItem.obj
 0003:00001f48       ??_C@_0CA@CPND@execute?5update?5SQL?5string?5done?$CB?$AA@ 1002bf48     dbItem.obj
 0003:00001f68       ??_C@_0BK@HGJF@execute?5update?5SQL?5string?$AA@ 1002bf68     dbItem.obj
 0003:00001f84       ??_C@_02OEJG@?8?$DL?$AA@   1002bf84     dbItem.obj
 0003:00001f88       ??_C@_0BF@GJDD@?8?5WHERE?5process_id?$DN?8?$AA@ 1002bf88     dbItem.obj
 0003:00001fa0       ??_C@_0O@OPHK@?0?5usergroup?$DN?8?$AA@ 1002bfa0     dbItem.obj
 0003:00001fb0       ??_C@_0BC@FHBD@?8?0?5current_level?$DN?$AA@ 1002bfb0     dbItem.obj
 0003:00001fc4       ??_C@_0BB@BAIN@?0?5current_text?$DN?8?$AA@ 1002bfc4     dbItem.obj
 0003:00001fd8       ??_C@_0BB@NNMA@?0?5current_state?$DN?$AA@ 1002bfd8     dbItem.obj
 0003:00001fec       ??_C@_08CBLO@?8?0?5mSec?$DN?$AA@ 1002bfec     dbItem.obj
 0003:00001ff8       ??_C@_0P@PBD@?8?0?5date_time?$DN?8?$AA@ 1002bff8     dbItem.obj
 0003:00002008       ??_C@_0CI@GKOD@datetime?5OK?5?9?5create?5UPDATE?5SQL?5@ 1002c008     dbItem.obj
 0003:00002030       ??_C@_0CF@CAOD@db_interface?3?3run?$CI?$CJ?5?9?5m_sDate?4is@ 1002c030     dbItem.obj
 0003:00002058       ??_C@_0P@KLLB@?5device_name?$DN?8?$AA@ 1002c058     dbItem.obj
 0003:00002068       ??_C@_05DNFI@?5SET?5?$AA@  1002c068     dbItem.obj
 0003:00002070       ??_C@_0BK@CKMH@create?5UPDATE?5SQL?5string?9?$AA@ 1002c070     dbItem.obj
 0003:0000208c       ??_C@_07EKDD@UPDATE?5?$AA@ 1002c08c     dbItem.obj
 0003:00002094       ??_C@_0BJ@CGFC@create?5update?5SQL?5string?$AA@ 1002c094     dbItem.obj
 0003:000020b0       ??_C@_0BL@IMDA@Start?5update?5process?5table?$AA@ 1002c0b0     dbItem.obj
 0003:000020cc       ??_C@_08CCDO@Got?5item?$AA@ 1002c0cc     dbItem.obj
 0003:000020d8       ??_C@_0CE@BDHE@matched?5at?5?$CFd?4?5returning?5offset?5@ 1002c0d8     dbItem.obj
 0003:000020fc       ??_C@_0CC@NBFD@?2d?2d?2d?2d?9?2d?2d?9?2d?2d?5?2d?2d?3?2d?2d?3?2d?2@ 1002c0fc     dbItem.obj
 0003:00002120       ??_C@_0CB@OLOP@attempt?5recovery?5on?5string?5?8?$CFs?8?4@ 1002c120     dbItem.obj
 0003:00002144       ??_C@_0BI@NIAL@attempt?5recovery?5at?5?$CFd?4?$AA@ 1002c144     dbItem.obj
 0003:0000215c       ??_C@_0CJ@MMDA@failed?5date?5validation?5at?5?$CFd?4?5le@ 1002c15c     dbItem.obj
 0003:00002188       ??_C@_0CC@BEOJ@Header?5doesn?8t?5tally?5with?5librar@ 1002c188     cdriver:extdrv.obj
 0003:000021ac       ??_C@_05CKBG@Error?$AA@    1002c1ac     cdriver:extdrv.obj
 0003:000021b4       ??_C@_0L@FMKM@extdrvspwn?$AA@ 1002c1b4     cdriver:extdrv.obj
 0003:000021c0       ??_C@_0BB@OKBJ@Inquire?5go?5TXRX?$DP?$AA@ 1002c1c0     cdriver:extdrv.obj
 0003:000021d4       ??_C@_0BD@OHAO@Request?5to?5go?5TXRX?$AA@ 1002c1d4     cdriver:extdrv.obj
 0003:000021e8       ??_C@_0DC@HICP@RX?5Only?0?5driver?5already?5running?5@ 1002c1e8     cdriver:extdrv.obj
 0003:0000221c       ??_C@_0L@OJAL@Wrong?5Type?$AA@ 1002c21c     cdriver:extdrv.obj
 0003:00002228       ??_C@_0BG@OAKC@Request?5to?5go?5RX?5only?$AA@ 1002c228     cdriver:extdrv.obj
 0003:00002240       ?_Init_cnt@Init@ios_base@std@@0HA 1002c240     libcpmt:iostream.obj
 0003:00002248       ??_R0?AVios_base@std@@@8   1002c248     libcpmt:iostream.obj
 0003:00002268       ??_R0?AV?$basic_ios@DU?$char_traits@D@std@@@std@@@8 1002c268     libcpmt:iostream.obj
 0003:000022a0       ??_R0?AV?$basic_istream@DU?$char_traits@D@std@@@std@@@8 1002c2a0     libcpmt:iostream.obj
 0003:000022e0       ??_R0?AV?$basic_ostream@DU?$char_traits@D@std@@@std@@@8 1002c2e0     libcpmt:iostream.obj
 0003:00002320       ??_R0?AV?$basic_streambuf@DU?$char_traits@D@std@@@std@@@8 1002c320     libcpmt:iostream.obj
 0003:00002360       ??_R0?AV?$basic_filebuf@DU?$char_traits@D@std@@@std@@@8 1002c360     libcpmt:iostream.obj
 0003:0000239c       ?_Init_cnt@_Winit@std@@0HA 1002c39c     libcpmt:wiostrea.obj
 0003:000023a0       ??_R0?AV?$basic_ios@GU?$char_traits@G@std@@@std@@@8 1002c3a0     libcpmt:wiostrea.obj
 0003:000023d8       ??_R0?AV?$basic_istream@GU?$char_traits@G@std@@@std@@@8 1002c3d8     libcpmt:wiostrea.obj
 0003:00002418       ??_R0?AV?$basic_ostream@GU?$char_traits@G@std@@@std@@@8 1002c418     libcpmt:wiostrea.obj
 0003:00002458       ??_R0?AV?$basic_filebuf@GU?$char_traits@G@std@@@std@@@8 1002c458     libcpmt:wiostrea.obj
 0003:00002498       ??_R0?AV?$basic_streambuf@GU?$char_traits@G@std@@@std@@@8 1002c498     libcpmt:wiostrea.obj
 0003:000024d4       ?_Sync@ios_base@std@@0_NA  1002c4d4     libcpmt:ios.obj
 0003:000024d8       ??_R0?AVexception@@@8      1002c4d8     libcpmt:ios.obj
 0003:000024f0       ??_R0?AVruntime_error@std@@@8 1002c4f0     libcpmt:ios.obj
 0003:00002510       ??_R0?AVfailure@ios_base@std@@@8 1002c510     libcpmt:ios.obj
 0003:00002538       ??_R0?AVfacet@locale@std@@@8 1002c538     libcpmt:locale0.obj
 0003:00002558       ??_R0?AV_Locimp@locale@std@@@8 1002c558     libcpmt:locale0.obj
 0003:00002580       ??_R0?AVlogic_error@std@@@8 1002c580     libcpmt:string.obj
 0003:000025a0       ??_R0?AVlength_error@std@@@8 1002c5a0     libcpmt:string.obj
 0003:000025c0       ??_R0?AVout_of_range@std@@@8 1002c5c0     libcpmt:string.obj
 0003:000025e0       ??_R0?AVbad_alloc@std@@@8  1002c5e0     libcpmt:nomemory.obj
 0003:00002600       ??_R0?AVtype_info@@@8      1002c600     LIBCMT:typinfo.obj
 0003:00002618       __NLG_Destination          1002c618     LIBCMT:exsup.obj
 0003:00002628       __fltused                  1002c628     LIBCMT:fpinit.obj
 0003:0000262c       __ldused                   1002c62c     LIBCMT:fpinit.obj
 0003:00002630       __FPinit                   1002c630     LIBCMT:fpinit.obj
 0003:00002634       __FPmtinit                 1002c634     LIBCMT:fpinit.obj
 0003:00002638       __FPmtterm                 1002c638     LIBCMT:fpinit.obj
 0003:0000263c       ?__pMyUnhandledExceptionFilter@@3PAXA 1002c63c     LIBCMT:throw.obj
 0003:00002640       __aexit_rtn                1002c640     LIBCMT:dllcrt0.obj
 0003:00002648       __iob                      1002c648     LIBCMT:_file.obj
 0003:000028d0       __locktable                1002c8d0     LIBCMT:mlock.obj
 0003:00002aa0       ___lc_category             1002caa0     LIBCMT:setlocal.obj
 0003:00002ae8       __pctype                   1002cae8     LIBCMT:ctype.obj
 0003:00002aec       __pwctype                  1002caec     LIBCMT:ctype.obj
 0003:00002af0       __ctype                    1002caf0     LIBCMT:ctype.obj
 0003:00002e60       ___mb_cur_max              1002ce60     LIBCMT:nlsdata1.obj
 0003:00002e64       ___decimal_point           1002ce64     LIBCMT:nlsdata1.obj
 0003:00002e68       ___decimal_point_length    1002ce68     LIBCMT:nlsdata1.obj
 0003:00002e80       ___tlsindex                1002ce80     LIBCMT:tidtable.obj
 0003:00002e84       ?__pInconsistency@@3P6AXXZA 1002ce84     LIBCMT:hooks.obj
 0003:00002e88       __amblksiz                 1002ce88     LIBCMT:heapinit.obj
 0003:00002e90       ___old_small_block_heap    1002ce90     LIBCMT:sbheap.obj
 0003:00004eb4       ___old_sbh_threshold       1002eeb4     LIBCMT:sbheap.obj
 0003:00004eb8       __cfltcvt_tab              1002eeb8     LIBCMT:cmiscdat.obj
 0003:00004ed0       ___nullstring              1002eed0     LIBCMT:output.obj
 0003:00004ed4       ___wnullstring             1002eed4     LIBCMT:output.obj
 0003:00004ee0       ___badioinfo               1002eee0     LIBCMT:ioinit.obj
 0003:00004fa0       ___rgLocInfo               1002efa0     LIBCMT:getqloc.obj
 0003:00005444       ___rglangidNotDefault      1002f444     LIBCMT:getqloc.obj
 0003:00005458       ___rg_country              1002f458     LIBCMT:getqloc.obj
 0003:00005510       ___rg_language             1002f510     LIBCMT:getqloc.obj
 0003:00005718       __XcptActTab               1002f718     LIBCMT:winxfltr.obj
 0003:00005790       __First_FPE_Indx           1002f790     LIBCMT:winxfltr.obj
 0003:00005794       __Num_FPE                  1002f794     LIBCMT:winxfltr.obj
 0003:00005798       __XcptActTabSize           1002f798     LIBCMT:winxfltr.obj
 0003:0000579c       __XcptActTabCount          1002f79c     LIBCMT:winxfltr.obj
 0003:000058c8       ___lc_time_curr            1002f8c8     LIBCMT:strftime.obj
 0003:000058d0       ___lc_time_c               1002f8d0     LIBCMT:strftime.obj
 0003:00005980       ___lconv_static_decimal    1002f980     LIBCMT:lconv.obj
 0003:00005988       ___lconv_c                 1002f988     LIBCMT:lconv.obj
 0003:000059b8       ___lconv                   1002f9b8     LIBCMT:lconv.obj
 0003:000059c0       __timezone                 1002f9c0     LIBCMT:timeset.obj
 0003:000059c4       __daylight                 1002f9c4     LIBCMT:timeset.obj
 0003:000059c8       __dstbias                  1002f9c8     LIBCMT:timeset.obj
 0003:00005a4c       __tzname                   1002fa4c     LIBCMT:timeset.obj
 0003:00005a74       __lpdays                   1002fa74     LIBCMT:days.obj
 0003:00005aa8       __days                     1002faa8     LIBCMT:days.obj
 0003:00005ae0       __pow10pos                 1002fae0     LIBCMT:constpow.obj
 0003:00005c40       __pow10neg                 1002fc40     LIBCMT:constpow.obj
 0003:00005da0       ?g_szModFileName@@3PADA    1002fda0     alm_db_output.obj
 0003:00005ea0       ?dbIfSecFlag@@3_NA         1002fea0     alm_db_output_if.obj
 0003:00005ea3       ?dbIfPrimFlag@@3_NA        1002fea3     alm_db_output_if.obj
 0003:00005ea4       ?_Nilrefs@?$_Tree@HU?$pair@$$CBHPAVcLogData@@@std@@U_Kfn@?$map@HPAVcLogData@@U?$less@H@std@@V?$allocator@PAVcLogData@@@3@@2@U?$less@H@2@V?$allocator@PAVcLogData@@@2@@std@@1IA 1002fea4     alm_db_output_if.obj
 0003:00005ea8       ?_Nil@?$_Tree@HU?$pair@$$CBHPAVcLogData@@@std@@U_Kfn@?$map@HPAVcLogData@@U?$less@H@std@@V?$allocator@PAVcLogData@@@3@@2@U?$less@H@2@V?$allocator@PAVcLogData@@@2@@std@@1PAU_Node@12@A 1002fea8     alm_db_output_if.obj
 0003:00005eac       ??_C@_00A@?$AA@            1002feac     alm_db_output_if.obj
 0003:00005eb4       ?sm_bDebugBasic@dbItem@@0_NA 1002feb4     dbItem.obj
 0003:00005eb5       ?sm_bDebugValidate@dbItem@@0_NA 1002feb5     dbItem.obj
 0003:000062e0       ?hWndCSI_Dr@@3PAUHWND__@@A 100302e0     cdriver:extdrv.obj
 0003:000062e8       ?clog@std@@3V?$basic_ostream@DU?$char_traits@D@std@@@1@A 100302e8     libcpmt:iostream.obj
 0003:00006378       ?cout@std@@3V?$basic_ostream@DU?$char_traits@D@std@@@1@A 10030378     libcpmt:iostream.obj
 0003:00006408       ?cin@std@@3V?$basic_istream@DU?$char_traits@D@std@@@1@A 10030408     libcpmt:iostream.obj
 0003:000064a0       ?cerr@std@@3V?$basic_ostream@DU?$char_traits@D@std@@@1@A 100304a0     libcpmt:iostream.obj
 0003:000064d8       ?wcerr@std@@3V?$basic_ostream@GU?$char_traits@G@std@@@1@A 100304d8     libcpmt:wiostrea.obj
 0003:00006518       ?wclog@std@@3V?$basic_ostream@GU?$char_traits@G@std@@@1@A 10030518     libcpmt:wiostrea.obj
 0003:00006550       ?wcin@std@@3V?$basic_istream@GU?$char_traits@G@std@@@1@A 10030550     libcpmt:wiostrea.obj
 0003:00006640       ?wcout@std@@3V?$basic_ostream@GU?$char_traits@G@std@@@1@A 10030640     libcpmt:wiostrea.obj
 0003:000066ec       ?_Index@ios_base@std@@0HA  100306ec     libcpmt:ios.obj
 0003:00006724       ?_Clocptr@_Locimp@locale@std@@0PAV123@A 10030724     libcpmt:locale0.obj
 0003:00006728       ?_Global@_Locimp@locale@std@@0PAV123@A 10030728     libcpmt:locale0.obj
 0003:0000672c       ?_Id_cnt@id@locale@std@@0HA 1003072c     libcpmt:locale0.obj
 0003:00006730       ?_Cltab@?$ctype@D@std@@0PBFB 10030730     libcpmt:locale0.obj
 0003:00006754       ___fastflag                10030754     LIBCMT:fpinit.obj
 0003:00006758       __adjust_fdiv              10030758     LIBCMT:fpinit.obj
 0003:00006760       __aenvptr                  10030760     LIBCMT:dllcrt0.obj
 0003:00006764       __wenvptr                  10030764     LIBCMT:dllcrt0.obj
 0003:00006768       ___error_mode              10030768     LIBCMT:dllcrt0.obj
 0003:0000676c       ___app_type                1003076c     LIBCMT:dllcrt0.obj
 0003:00006770       __cflush                   10030770     LIBCMT:_file.obj
 0003:000067e4       ___lc_handle               100307e4     LIBCMT:nlsdata2.obj
 0003:000067fc       ___lc_codepage             100307fc     LIBCMT:nlsdata2.obj
 0003:00006800       ___lc_collate_cp           10030800     LIBCMT:nlsdata2.obj
 0003:00006804       __umaskval                 10030804     LIBCMT:crt0dat.obj
 0003:00006808       __osver                    10030808     LIBCMT:crt0dat.obj
 0003:0000680c       __winver                   1003080c     LIBCMT:crt0dat.obj
 0003:00006810       __winmajor                 10030810     LIBCMT:crt0dat.obj
 0003:00006814       __winminor                 10030814     LIBCMT:crt0dat.obj
 0003:00006818       ___argc                    10030818     LIBCMT:crt0dat.obj
 0003:0000681c       ___argv                    1003081c     LIBCMT:crt0dat.obj
 0003:00006820       ___wargv                   10030820     LIBCMT:crt0dat.obj
 0003:00006824       __environ                  10030824     LIBCMT:crt0dat.obj
 0003:00006828       ___initenv                 10030828     LIBCMT:crt0dat.obj
 0003:0000682c       __wenviron                 1003082c     LIBCMT:crt0dat.obj
 0003:00006830       ___winitenv                10030830     LIBCMT:crt0dat.obj
 0003:00006834       __pgmptr                   10030834     LIBCMT:crt0dat.obj
 0003:00006838       __wpgmptr                  10030838     LIBCMT:crt0dat.obj
 0003:0000683c       __exitflag                 1003083c     LIBCMT:crt0dat.obj
 0003:00006840       __C_Termination_Done       10030840     LIBCMT:crt0dat.obj
 0003:00006844       __C_Exit_Done              10030844     LIBCMT:crt0dat.obj
 0003:0000684c       __newmode                  1003084c     LIBCMT:_newmode.obj
 0003:00006850       ?_pnhHeap@@3P6AHI@ZA       10030850     LIBCMT:handler.obj
 0003:00006960       __adbgmsg                  10030960     LIBCMT:crt0msg.obj
 0003:00006964       ___lc_time_intl            10030964     LIBCMT:inittime.obj
 0003:00006980       ___lc_id                   10030980     LIBCMT:nlsdata3.obj
 0003:000069e4       ___lconv_static_null       100309e4     LIBCMT:lconv.obj
 0003:00006ad0       ??_B?1???id@?$ctype@G@std@@$D@@9@51 10030ad0     <common>
 0003:00006ad4       ?_Stinit@?1??_Init@?$basic_filebuf@GU?$char_traits@G@std@@@std@@IAEXPAU_iobuf@@W4_Initfl@23@@Z@4HA 10030ad4     <common>
 0003:00006ad8       ??_B?1???id@?$collate@D@std@@$D@@9@51 10030ad8     <common>
 0003:00006adc       ?_Stinit@?1??_Init@?$basic_filebuf@DU?$char_traits@D@std@@@std@@IAEXPAU_iobuf@@W4_Initfl@23@@Z@4HA 10030adc     <common>
 0003:00006ae0       ?_Stz@?$fpos@H@std@@0HA    10030ae0     <common>
 0003:00006ae4       ___alternate_form          10030ae4     <common>
 0003:00006ae8       ___no_lead_zeros           10030ae8     <common>
 0003:00006aec       ___mbcodepage              10030aec     <common>
 0003:00006af0       ___mbulinfo                10030af0     <common>
 0003:00006afc       ___ismbcodepage            10030afc     <common>
 0003:00006b00       __mbcasemap                10030b00     <common>
 0003:00006c00       __mbctype                  10030c00     <common>
 0003:00006d04       ___mblcid                  10030d04     <common>
 0003:00006d20       ___pioinfo                 10030d20     <common>
 0003:00006e20       __nhandle                  10030e20     <common>
 0003:00006e24       ___sbh_sizeHeaderList      10030e24     <common>
 0003:00006e28       ___sbh_indGroupDefer       10030e28     <common>
 0003:00006e2c       ___sbh_pHeaderScan         10030e2c     <common>
 0003:00006e30       ___sbh_initialized         10030e30     <common>
 0003:00006e34       ___sbh_pHeaderDefer        10030e34     <common>
 0003:00006e38       ___sbh_cntHeaderList       10030e38     <common>
 0003:00006e3c       ___sbh_pHeaderList         10030e3c     <common>
 0003:00006e40       ___sbh_threshold           10030e40     <common>
 0003:00006e44       __crtheap                  10030e44     <common>
 0003:00006e48       ___active_heap             10030e48     <common>
 0003:00006e4c       ___env_initialized         10030e4c     <common>
 0003:00006e50       ___mbctype_initialized     10030e50     <common>
 0003:00006e54       ___onexitend               10030e54     <common>
 0003:00006e58       ___onexitbegin             10030e58     <common>
 0003:00006e5c       ___setlc_active            10030e5c     <common>
 0003:00006e60       ___unguarded_readlc_active 10030e60     <common>
 0003:00006e64       ___piob                    10030e64     <common>
 0003:00006e80       __bufin                    10030e80     <common>
 0003:00007e80       __nstream                  10031e80     <common>
 0003:00007e84       __acmdln                   10031e84     <common>
 0003:00007e88       __pRawDllMain              10031e88     <common>

 entry point at        0001:000123a3

 Static symbols

 0001:0000d1d0       _$E17                      1000e1d0 f   except.obj
 0001:0000d1e0       _$E14                      1000e1e0 f   except.obj
 0001:0000d1f0       _$E16                      1000e1f0 f   except.obj
 0001:0000d200       _$E15                      1000e200 f   except.obj
 0001:0000d210       _$E23                      1000e210 f   except.obj
 0001:0000d220       _$E20                      1000e220 f   except.obj
 0001:0000d230       _$E22                      1000e230 f   except.obj
 0001:0000d240       _$E21                      1000e240 f   except.obj
 0001:0000d280       ?my_translator@@YAXIPAU_EXCEPTION_POINTERS@@@Z 1000e280 f   except.obj
 0001:0000d2d0       _$E30                      1000e2d0 f   except.obj
 0001:0000d2f0       _$E29                      1000e2f0 f   except.obj
 0001:00005fd0       _$E116                     10006fd0 f   db_interface.obj
 0001:00005fe0       _$E113                     10006fe0 f   db_interface.obj
 0001:00005ff0       _$E115                     10006ff0 f   db_interface.obj
 0001:00006000       _$E114                     10007000 f   db_interface.obj
 0001:00006010       _$E122                     10007010 f   db_interface.obj
 0001:00006020       _$E119                     10007020 f   db_interface.obj
 0001:00006030       _$E121                     10007030 f   db_interface.obj
 0001:00006040       _$E120                     10007040 f   db_interface.obj
 0001:0000ac90       _$E129                     1000bc90 f   db_interface.obj
 0001:0000acb0       _$E128                     1000bcb0 f   db_interface.obj
 0001:00000130       _$E120                     10001130 f   alm_db_output_if.obj
 0001:00000140       _$E117                     10001140 f   alm_db_output_if.obj
 0001:00000150       _$E119                     10001150 f   alm_db_output_if.obj
 0001:00000160       _$E118                     10001160 f   alm_db_output_if.obj
 0001:00000170       _$E126                     10001170 f   alm_db_output_if.obj
 0001:00000180       _$E123                     10001180 f   alm_db_output_if.obj
 0001:00000190       _$E125                     10001190 f   alm_db_output_if.obj
 0001:000001a0       _$E124                     100011a0 f   alm_db_output_if.obj
 0001:00004ae0       _$E135                     10005ae0 f   alm_db_output_if.obj
 0001:00004b00       _$E134                     10005b00 f   alm_db_output_if.obj
 0001:00011695       _$E2                       10012695 f   libcpmt:nomemory.obj
 0001:00011290       __Mbrtowc_lk               10012290 f   libcpmt:xmbtowc.obj
 0001:000111eb       _$E24                      100121eb f   libcpmt:string.obj
 0001:00011215       _$E20                      10012215 f   libcpmt:string.obj
 0001:00011221       _$E23                      10012221 f   libcpmt:string.obj
 0001:000109a3       _$E18                      100119a3 f   libcpmt:locale0.obj
 0001:000109ad       _$E15                      100119ad f   libcpmt:locale0.obj
 0001:000109ae       _$E17                      100119ae f   libcpmt:locale0.obj
 0001:000109ba       _$E16                      100119ba f   libcpmt:locale0.obj
 0001:00010e95       _$E29                      10011e95 f   libcpmt:locale0.obj
 0001:00010ebf       _$E25                      10011ebf f   libcpmt:locale0.obj
 0001:00010ecb       _$E28                      10011ecb f   libcpmt:locale0.obj
 0001:000102b0       ?_CleanUp@std@@YAXXZ       100112b0 f   libcpmt:xlock.obj
 0001:0000f36b       _$E18                      1001036b f   libcpmt:wiostrea.obj
 0001:0000f375       _$E15                      10010375 f   libcpmt:wiostrea.obj
 0001:0000f37f       _$E17                      1001037f f   libcpmt:wiostrea.obj
 0001:0000f38b       _$E16                      1001038b f   libcpmt:wiostrea.obj
 0001:0000f395       _$E24                      10010395 f   libcpmt:wiostrea.obj
 0001:0000f39f       _$E21                      1001039f f   libcpmt:wiostrea.obj
 0001:0000f3a9       _$E23                      100103a9 f   libcpmt:wiostrea.obj
 0001:0000f3b5       _$E22                      100103b5 f   libcpmt:wiostrea.obj
 0001:0000f3bf       _$E29                      100103bf f   libcpmt:wiostrea.obj
 0001:0000f3c9       _$E26                      100103c9 f   libcpmt:wiostrea.obj
 0001:0000f3d6       _$E28                      100103d6 f   libcpmt:wiostrea.obj
 0001:0000f3e2       _$E27                      100103e2 f   libcpmt:wiostrea.obj
 0001:0000f3ec       _$E34                      100103ec f   libcpmt:wiostrea.obj
 0001:0000f3f6       _$E31                      100103f6 f   libcpmt:wiostrea.obj
 0001:0000f403       _$E33                      10010403 f   libcpmt:wiostrea.obj
 0001:0000f40f       _$E32                      1001040f f   libcpmt:wiostrea.obj
 0001:0000f419       _$E39                      10010419 f   libcpmt:wiostrea.obj
 0001:0000f423       _$E36                      10010423 f   libcpmt:wiostrea.obj
 0001:0000f430       _$E38                      10010430 f   libcpmt:wiostrea.obj
 0001:0000f43c       _$E37                      1001043c f   libcpmt:wiostrea.obj
 0001:0000f446       _$E44                      10010446 f   libcpmt:wiostrea.obj
 0001:0000f450       _$E41                      10010450 f   libcpmt:wiostrea.obj
 0001:0000f45f       _$E43                      1001045f f   libcpmt:wiostrea.obj
 0001:0000f46b       _$E42                      1001046b f   libcpmt:wiostrea.obj
 0001:0000f48a       _$E49                      1001048a f   libcpmt:wiostrea.obj
 0001:0000f494       _$E46                      10010494 f   libcpmt:wiostrea.obj
 0001:0000f4a3       _$E48                      100104a3 f   libcpmt:wiostrea.obj
 0001:0000f4af       _$E47                      100104af f   libcpmt:wiostrea.obj
 0001:0000f4ce       _$E54                      100104ce f   libcpmt:wiostrea.obj
 0001:0000f4d8       _$E51                      100104d8 f   libcpmt:wiostrea.obj
 0001:0000f4e7       _$E53                      100104e7 f   libcpmt:wiostrea.obj
 0001:0000f4f3       _$E52                      100104f3 f   libcpmt:wiostrea.obj
 0001:0000f4fd       _$E59                      100104fd f   libcpmt:wiostrea.obj
 0001:0000f507       _$E56                      10010507 f   libcpmt:wiostrea.obj
 0001:0000f516       _$E58                      10010516 f   libcpmt:wiostrea.obj
 0001:0000f522       _$E57                      10010522 f   libcpmt:wiostrea.obj
 0001:000101f0       _$E70                      100111f0 f   libcpmt:wiostrea.obj
 0001:0001021a       _$E66                      1001121a f   libcpmt:wiostrea.obj
 0001:00010226       _$E69                      10011226 f   libcpmt:wiostrea.obj
 0001:0000e163       _$E18                      1000f163 f   libcpmt:iostream.obj
 0001:0000e16d       _$E15                      1000f16d f   libcpmt:iostream.obj
 0001:0000e17a       _$E17                      1000f17a f   libcpmt:iostream.obj
 0001:0000e186       _$E16                      1000f186 f   libcpmt:iostream.obj
 0001:0000e190       _$E23                      1000f190 f   libcpmt:iostream.obj
 0001:0000e19a       _$E20                      1000f19a f   libcpmt:iostream.obj
 0001:0000e1a7       _$E22                      1000f1a7 f   libcpmt:iostream.obj
 0001:0000e1b3       _$E21                      1000f1b3 f   libcpmt:iostream.obj
 0001:0000e1bd       _$E28                      1000f1bd f   libcpmt:iostream.obj
 0001:0000e1c7       _$E25                      1000f1c7 f   libcpmt:iostream.obj
 0001:0000e1d6       _$E27                      1000f1d6 f   libcpmt:iostream.obj
 0001:0000e1e2       _$E26                      1000f1e2 f   libcpmt:iostream.obj
 0001:0000e201       _$E33                      1000f201 f   libcpmt:iostream.obj
 0001:0000e20b       _$E30                      1000f20b f   libcpmt:iostream.obj
 0001:0000e21a       _$E32                      1000f21a f   libcpmt:iostream.obj
 0001:0000e226       _$E31                      1000f226 f   libcpmt:iostream.obj
 0001:0000e245       _$E38                      1000f245 f   libcpmt:iostream.obj
 0001:0000e24f       _$E35                      1000f24f f   libcpmt:iostream.obj
 0001:0000e25c       _$E37                      1000f25c f   libcpmt:iostream.obj
 0001:0000e268       _$E36                      1000f268 f   libcpmt:iostream.obj
 0001:0000e272       _$E43                      1000f272 f   libcpmt:iostream.obj
 0001:0000e27c       _$E40                      1000f27c f   libcpmt:iostream.obj
 0001:0000e28b       _$E42                      1000f28b f   libcpmt:iostream.obj
 0001:0000e297       _$E41                      1000f297 f   libcpmt:iostream.obj
 0001:0000e2a1       _$E48                      1000f2a1 f   libcpmt:iostream.obj
 0001:0000e2ab       _$E45                      1000f2ab f   libcpmt:iostream.obj
 0001:0000e2ba       _$E47                      1000f2ba f   libcpmt:iostream.obj
 0001:0000e2c6       _$E46                      1000f2c6 f   libcpmt:iostream.obj
 0001:0000f328       _$E60                      10010328 f   libcpmt:iostream.obj
 0001:0000f352       _$E56                      10010352 f   libcpmt:iostream.obj
 0001:0000f35e       _$E59                      1001035e f   libcpmt:iostream.obj
 0001:0001faf8       _findenv                   10020af8 f   LIBCMT:setenv.obj
 0001:0001fb50       _copy_environ              10020b50 f   LIBCMT:setenv.obj
 0001:0001f946       _strncnt                   10020946 f   LIBCMT:a_cmp.obj
 0001:0001eb1d       __tzset_lk                 1001fb1d f   LIBCMT:tzset.obj
 0001:0001edc5       __isindst_lk               1001fdc5 f   LIBCMT:tzset.obj
 0001:0001ef71       _cvtdate                   1001ff71 f   LIBCMT:tzset.obj
 0001:0001e16d       _strncnt                   1001f16d f   LIBCMT:a_map.obj
 0001:0001dbd3       _ctrlevent_capture@4       1001ebd3 f   LIBCMT:winsig.obj
 0001:0001ddb7       _siglookup                 1001edb7 f   LIBCMT:winsig.obj
 0001:0001d6fe       _xtoa                      1001e6fe f   LIBCMT:xtoa.obj
 0001:0001d7d0       _x64toa@20                 1001e7d0 f   LIBCMT:xtoa.obj
 0001:0001cbf2       __expandtime               1001dbf2 f   LIBCMT:strftime.obj
 0001:0001cfe1       __store_str                1001dfe1 f   LIBCMT:strftime.obj
 0001:0001d008       __store_num                1001e008 f   LIBCMT:strftime.obj
 0001:0001d077       __store_number             1001e077 f   LIBCMT:strftime.obj
 0001:0001d0c0       __store_winword            1001e0c0 f   LIBCMT:strftime.obj
 0001:0001bdeb       _getSystemCP               1001cdeb f   LIBCMT:mbctype.obj
 0001:0001be35       _CPtoLCID                  1001ce35 f   LIBCMT:mbctype.obj
 0001:0001be68       _setSBCS                   1001ce68 f   LIBCMT:mbctype.obj
 0001:0001be91       _setSBUpLow                1001ce91 f   LIBCMT:mbctype.obj
 0001:0001b12d       __abstract_cw              1001c12d f   LIBCMT:ieee87.obj
 0001:0001b1bf       __hw_cw                    1001c1bf f   LIBCMT:ieee87.obj
 0001:0001b248       __abstract_sw              1001c248 f   LIBCMT:ieee87.obj
 0001:0001ad17       _strtoxl                   1001bd17 f   LIBCMT:strtol.obj
 0001:0001acaf       _xcptlookup                1001bcaf f   LIBCMT:winxfltr.obj
 0001:0001a3f7       _TranslateName             1001b3f7 f   LIBCMT:getqloc.obj
 0001:0001a44f       _GetLcidFromLangCountry    1001b44f f   LIBCMT:getqloc.obj
 0001:0001a4d6       _LangCountryEnumProc@4     1001b4d6 f   LIBCMT:getqloc.obj
 0001:0001a6da       _GetLcidFromLanguage       1001b6da f   LIBCMT:getqloc.obj
 0001:0001a730       _LanguageEnumProc@4        1001b730 f   LIBCMT:getqloc.obj
 0001:0001a7ed       _GetLcidFromCountry        1001b7ed f   LIBCMT:getqloc.obj
 0001:0001a824       _CountryEnumProc@4         1001b824 f   LIBCMT:getqloc.obj
 0001:0001a8aa       _GetLcidFromDefault        1001b8aa f   LIBCMT:getqloc.obj
 0001:0001a8c4       _ProcessCodePage           1001b8c4 f   LIBCMT:getqloc.obj
 0001:0001a92a       _TestDefaultCountry        1001b92a f   LIBCMT:getqloc.obj
 0001:0001a949       _TestDefaultLanguage       1001b949 f   LIBCMT:getqloc.obj
 0001:0001a9ab       _IsThisWindowsNT           1001b9ab f   LIBCMT:getqloc.obj
 0001:0001a9e1       _crtGetLocaleInfoA@16      1001b9e1 f   LIBCMT:getqloc.obj
 0001:0001aac7       _LcidFromHexString         1001bac7 f   LIBCMT:getqloc.obj
 0001:0001ab00       _GetPrimaryLen             1001bb00 f   LIBCMT:getqloc.obj
 0001:00019cc6       __get_lc_lconv             1001acc6 f   LIBCMT:initmon.obj
 0001:00019de8       _fix_grouping              1001ade8 f   LIBCMT:initmon.obj
 0001:00019e1f       __free_lc_lconv            1001ae1f f   LIBCMT:initmon.obj
 0001:00019bc4       _fix_grouping              1001abc4 f   LIBCMT:initnum.obj
 0001:00019511       __get_lc_time              1001a511 f   LIBCMT:inittime.obj
 0001:0001985f       __free_lc_time             1001a85f f   LIBCMT:inittime.obj
 0001:00017fb6       _parse_cmdline             10018fb6 f   LIBCMT:stdargv.obj
 0001:00017a39       _write_char                10018a39 f   LIBCMT:output.obj
 0001:00017a6e       _write_multi_char          10018a6e f   LIBCMT:output.obj
 0001:00017a9f       _write_string              10018a9f f   LIBCMT:output.obj
 0001:00017ad7       _get_int_arg               10018ad7 f   LIBCMT:output.obj
 0001:00017ae4       _get_int64_arg             10018ae4 f   LIBCMT:output.obj
 0001:00017af4       _get_short_arg             10018af4 f   LIBCMT:output.obj
 0001:00016ebc       __cftoe2                   10017ebc f   LIBCMT:cvt.obj
 0001:00016fd3       __cftof2                   10017fd3 f   LIBCMT:cvt.obj
 0001:0001715e       __shift                    1001815e f   LIBCMT:cvt.obj
 0001:000146ef       ?FindHandler@@YAXPAUEHExceptionRecord@@PAUEHRegistrationNode@@PAU_CONTEXT@@PAXPBU_s_FuncInfo@@EH1@Z 100156ef f   LIBCMT:frame.obj
 0001:000148a2       ?FindHandlerForForeignException@@YAXPAUEHExceptionRecord@@PAUEHRegistrationNode@@PAU_CONTEXT@@PAXPBU_s_FuncInfo@@HH1@Z 100158a2 f   LIBCMT:frame.obj
 0001:0001494c       ?TypeMatch@@YAHPBU_s_HandlerType@@PBU_s_CatchableType@@PBU_s_ThrowInfo@@@Z 1001594c f   LIBCMT:frame.obj
 0001:00014a47       ?FrameUnwindFilter@@YAHPAU_EXCEPTION_POINTERS@@@Z 10015a47 f   LIBCMT:frame.obj
 0001:00014a5d       ?CatchIt@@YAXPAUEHExceptionRecord@@PAUEHRegistrationNode@@PAU_CONTEXT@@PAXPBU_s_FuncInfo@@PBU_s_HandlerType@@PBU_s_CatchableType@@PBU_s_TryBlockMapEntry@@H1E@Z 10015a5d f   LIBCMT:frame.obj
 0001:00014ad8       ?CallCatchBlock@@YAPAXPAUEHExceptionRecord@@PAUEHRegistrationNode@@PAU_CONTEXT@@PBU_s_FuncInfo@@PAXHK@Z 10015ad8 f   LIBCMT:frame.obj
 0001:00014bf3       ?ExFilterRethrow@@YAHPAU_EXCEPTION_POINTERS@@@Z 10015bf3 f   LIBCMT:frame.obj
 0001:00014c1d       ?BuildCatchObject@@YAXPAUEHExceptionRecord@@PAUEHRegistrationNode@@PBU_s_HandlerType@@PBU_s_CatchableType@@@Z 10015c1d f   LIBCMT:frame.obj
 0001:00014e48       ?AdjustPointer@@YAPAXPAXABUPMD@@@Z 10015e48 f   LIBCMT:frame.obj
 0001:000140da       _doexit                    100150da f   LIBCMT:crt0dat.obj
 0001:00014191       __initterm                 10015191 f   LIBCMT:crt0dat.obj
 0001:00013bb5       __setlocale_set_cat        10014bb5 f   LIBCMT:setlocal.obj
 0001:00013cd0       __setlocale_get_all        10014cd0 f   LIBCMT:setlocal.obj
 0001:00012f70       LeadUp1                    10013f70 f   LIBCMT:memmove.obj
 0001:00012f9c       LeadUp2                    10013f9c f   LIBCMT:memmove.obj
 0001:00012fc0       LeadUp3                    10013fc0 f   LIBCMT:memmove.obj
 0001:0001303f       UnwindUp0                  1001403f f   LIBCMT:memmove.obj
 0001:0001302c       UnwindUp1                  1001402c f   LIBCMT:memmove.obj
 0001:00013024       UnwindUp2                  10014024 f   LIBCMT:memmove.obj
 0001:0001301c       UnwindUp3                  1001401c f   LIBCMT:memmove.obj
 0001:00013014       UnwindUp4                  10014014 f   LIBCMT:memmove.obj
 0001:0001300c       UnwindUp5                  1001400c f   LIBCMT:memmove.obj
 0001:00013004       UnwindUp6                  10014004 f   LIBCMT:memmove.obj
 0001:00012ffc       UnwindUp7                  10013ffc f   LIBCMT:memmove.obj
 0001:00013058       TrailUp0                   10014058 f   LIBCMT:memmove.obj
 0001:00013060       TrailUp1                   10014060 f   LIBCMT:memmove.obj
 0001:0001306c       TrailUp2                   1001406c f   LIBCMT:memmove.obj
 0001:00013080       TrailUp3                   10014080 f   LIBCMT:memmove.obj
 0001:000130f8       LeadDown1                  100140f8 f   LIBCMT:memmove.obj
 0001:00013118       LeadDown2                  10014118 f   LIBCMT:memmove.obj
 0001:00013140       LeadDown3                  10014140 f   LIBCMT:memmove.obj
 0001:00013194       UnwindDown7                10014194 f   LIBCMT:memmove.obj
 0001:0001319c       UnwindDown6                1001419c f   LIBCMT:memmove.obj
 0001:000131a4       UnwindDown5                100141a4 f   LIBCMT:memmove.obj
 0001:000131ac       UnwindDown4                100141ac f   LIBCMT:memmove.obj
 0001:000131b4       UnwindDown3                100141b4 f   LIBCMT:memmove.obj
 0001:000131bc       UnwindDown2                100141bc f   LIBCMT:memmove.obj
 0001:000131c4       UnwindDown1                100141c4 f   LIBCMT:memmove.obj
 0001:000131d7       UnwindDown0                100141d7 f   LIBCMT:memmove.obj
 0001:000131f0       TrailDown0                 100141f0 f   LIBCMT:memmove.obj
 0001:000131f8       TrailDown1                 100141f8 f   LIBCMT:memmove.obj
 0001:00013208       TrailDown2                 10014208 f   LIBCMT:memmove.obj
 0001:0001321c       TrailDown3                 1001421c f   LIBCMT:memmove.obj
 0001:00012df0       _flsall                    10013df0 f   LIBCMT:fflush.obj
 0001:00012670       LeadUp1                    10013670 f   LIBCMT:memcpy.obj
 0001:0001269c       LeadUp2                    1001369c f   LIBCMT:memcpy.obj
 0001:000126c0       LeadUp3                    100136c0 f   LIBCMT:memcpy.obj
 0001:0001273f       UnwindUp0                  1001373f f   LIBCMT:memcpy.obj
 0001:0001272c       UnwindUp1                  1001372c f   LIBCMT:memcpy.obj
 0001:00012724       UnwindUp2                  10013724 f   LIBCMT:memcpy.obj
 0001:0001271c       UnwindUp3                  1001371c f   LIBCMT:memcpy.obj
 0001:00012714       UnwindUp4                  10013714 f   LIBCMT:memcpy.obj
 0001:0001270c       UnwindUp5                  1001370c f   LIBCMT:memcpy.obj
 0001:00012704       UnwindUp6                  10013704 f   LIBCMT:memcpy.obj
 0001:000126fc       UnwindUp7                  100136fc f   LIBCMT:memcpy.obj
 0001:00012758       TrailUp0                   10013758 f   LIBCMT:memcpy.obj
 0001:00012760       TrailUp1                   10013760 f   LIBCMT:memcpy.obj
 0001:0001276c       TrailUp2                   1001376c f   LIBCMT:memcpy.obj
 0001:00012780       TrailUp3                   10013780 f   LIBCMT:memcpy.obj
 0001:000127f8       LeadDown1                  100137f8 f   LIBCMT:memcpy.obj
 0001:00012818       LeadDown2                  10013818 f   LIBCMT:memcpy.obj
 0001:00012840       LeadDown3                  10013840 f   LIBCMT:memcpy.obj
 0001:00012894       UnwindDown7                10013894 f   LIBCMT:memcpy.obj
 0001:0001289c       UnwindDown6                1001389c f   LIBCMT:memcpy.obj
 0001:000128a4       UnwindDown5                100138a4 f   LIBCMT:memcpy.obj
 0001:000128ac       UnwindDown4                100138ac f   LIBCMT:memcpy.obj
 0001:000128b4       UnwindDown3                100138b4 f   LIBCMT:memcpy.obj
 0001:000128bc       UnwindDown2                100138bc f   LIBCMT:memcpy.obj
 0001:000128c4       UnwindDown1                100138c4 f   LIBCMT:memcpy.obj
 0001:000128d7       UnwindDown0                100138d7 f   LIBCMT:memcpy.obj
 0001:000128f0       TrailDown0                 100138f0 f   LIBCMT:memcpy.obj
 0001:000128f8       TrailDown1                 100138f8 f   LIBCMT:memcpy.obj
 0001:00012908       TrailDown2                 10013908 f   LIBCMT:memcpy.obj
 0001:0001291c       TrailDown3                 1001391c f   LIBCMT:memcpy.obj
 0001:000121a8       ?ArrayUnwindFilter@@YAHPAU_EXCEPTION_POINTERS@@@Z 100131a8 f   LIBCMT:ehvecdtr.obj
 0001:00011b44       _gu_return                 10012b44 f   LIBCMT:exsup.obj
 0001:00011b4c       __unwind_handler           10012b4c f   LIBCMT:exsup.obj
 0001:00011960       ?CatchGuardHandler@@YA?AW4_EXCEPTION_DISPOSITION@@PAUEHExceptionRecord@@PAUCatchGuardRN@@PAX2@Z 10012960 f   LIBCMT:trnsctrl.obj
 0001:00011a3b       ?TranslatorGuardHandler@@YA?AW4_EXCEPTION_DISPOSITION@@PAUEHExceptionRecord@@PAUTranslatorGuardRN@@PAX2@Z 10012a3b f   LIBCMT:trnsctrl.obj
