 bncs_config

 Timestamp is 5e9db7d4 (Mon Apr 20 15:55:16 2020)

 Preferred load address is 10000000

 Start         Length     Name                   Class
 0001:00000000 00000171H .text$di                CODE
 0001:00000180 0001bc9cH .text$mn                CODE
 0001:0001be20 00003434H .text$x                 CODE
 0001:0001f260 0000009bH .text$yd                CODE
 0002:00000000 0000037cH .idata$5                DATA
 0002:0000037c 00000004H .CRT$XCA                DATA
 0002:00000380 00000028H .CRT$XCU                DATA
 0002:000003a8 00000004H .CRT$XCZ                DATA
 0002:000003ac 00000004H .CRT$XIA                DATA
 0002:000003b0 00000004H .CRT$XIAA               DATA
 0002:000003b4 00000004H .CRT$XIC                DATA
 0002:000003b8 00000004H .CRT$XIZ                DATA
 0002:000003c0 00001608H .rdata                  DATA
 0002:000019c8 00000d2cH .rdata$r                DATA
 0002:000026f4 00000004H .rtc$IAA                DATA
 0002:000026f8 00000004H .rtc$IZZ                DATA
 0002:000026fc 00000004H .rtc$TAA                DATA
 0002:00002700 00000004H .rtc$TZZ                DATA
 0002:00002708 0000308cH .xdata$x                DATA
 0002:000057a0 00009353H .edata                  DATA
 0002:0000eaf4 00000078H .idata$2                DATA
 0002:0000eb6c 00000014H .idata$3                DATA
 0002:0000eb80 0000037cH .idata$4                DATA
 0002:0000eefc 00001d32H .idata$6                DATA
 0003:00000000 00000684H .data                   DATA
 0003:00000688 00000974H .data$r                 DATA
 0003:00001000 00000454H .bss                    DATA
 0004:00000000 000000e8H .rsrc$01                DATA
 0004:000000f0 00000630H .rsrc$02                DATA

  Address         Publics by Value              Rva+Base       Lib:Object

 0000:00000000       ___safe_se_handler_table   00000000     <absolute>
 0000:00000000       ___guard_flags             00000000     <absolute>
 0000:00000000       ___safe_se_handler_count   00000000     <absolute>
 0000:00000000       __except_list              00000000     <absolute>
 0000:00000000       ___guard_fids_table        00000000     <absolute>
 0000:00000000       ___guard_fids_count        00000000     <absolute>
 0000:00009876       __fltused                  00009876     <absolute>
 0000:00009876       __ldused                   00009876     <absolute>
 0000:00000000       ___ImageBase               10000000     <linker-defined>
 0001:00000180       ??0applicationsAccessor@@QAE@ABV0@@Z 10001180 f i applicationsAccessor.obj
 0001:000001c0       ??0applicationsAccessor@@QAE@XZ 100011c0 f   applicationsAccessor.obj
 0001:000002d0       ??1applicationsAccessor@@UAE@XZ 100012d0 f   applicationsAccessor.obj
 0001:00000340       ??3@YAXPAX0@Z              10001340 f i applicationsAccessor.obj
 0001:00000350       ??4workstationsAccessor@@QAEAAV0@ABV0@@Z 10001350 f i workstationsAccessor.obj
 0001:00000350       ??4applicationsAccessor@@QAEAAV0@ABV0@@Z 10001350 f i applicationsAccessor.obj
 0001:00000350       ??4panelsetsAccessor@@QAEAAV0@ABV0@@Z 10001350 f i panelsetsAccessor.obj
 0001:00000350       ??4usersAccessor@@QAEAAV0@ABV0@@Z 10001350 f i usersAccessor.obj
 0001:00000350       ??4workstationSettingsAccessor@@QAEAAV0@ABV0@@Z 10001350 f i workstationSettingsAccessor.obj
 0001:00000350       ??4launchAccessor@@QAEAAV0@ABV0@@Z 10001350 f i launchAccessor.obj
 0001:00000390       ??_EapplicationsAccessor@@UAEPAXI@Z 10001390 f i applicationsAccessor.obj
 0001:000003f0       ??_EQDomNode@@UAEPAXI@Z    100013f0 f i applicationsAccessor.obj
 0001:000003f0       ??_GQDomNode@@UAEPAXI@Z    100013f0 f i applicationsAccessor.obj
 0001:00000420       ??_E_Generic_error_category@std@@UAEPAXI@Z 10001420 f i applicationsAccessor.obj
 0001:00000420       ??_G_Generic_error_category@std@@UAEPAXI@Z 10001420 f i applicationsAccessor.obj
 0001:00000420       ??_G_System_error_category@std@@UAEPAXI@Z 10001420 f i applicationsAccessor.obj
 0001:00000420       ??_Eerror_category@std@@UAEPAXI@Z 10001420 f i applicationsAccessor.obj
 0001:00000420       ??_G_Iostream_error_category@std@@UAEPAXI@Z 10001420 f i applicationsAccessor.obj
 0001:00000420       ??_E_Iostream_error_category@std@@UAEPAXI@Z 10001420 f i applicationsAccessor.obj
 0001:00000420       ??_E_System_error_category@std@@UAEPAXI@Z 10001420 f i applicationsAccessor.obj
 0001:00000420       ??_Gerror_category@std@@UAEPAXI@Z 10001420 f i applicationsAccessor.obj
 0001:00000450       ?_Copy@?$basic_string@DU?$char_traits@D@std@@V?$allocator@D@2@@std@@QAEXII@Z 10001450 f i applicationsAccessor.obj
 0001:000005a0       ?addItem@applicationsAccessor@@QAE_NABVQString@@0000@Z 100015a0 f   applicationsAccessor.obj
 0001:00000770       ?allocate@?$_Wrap_alloc@V?$allocator@D@std@@@std@@QAEPADI@Z 10001770 f i applicationsAccessor.obj
 0001:000007a0       ?assign@?$basic_string@DU?$char_traits@D@std@@V?$allocator@D@2@@std@@QAEAAV12@ABV12@II@Z 100017a0 f i applicationsAccessor.obj
 0001:000008c0       ?assign@?$basic_string@DU?$char_traits@D@std@@V?$allocator@D@2@@std@@QAEAAV12@PBDI@Z 100018c0 f i applicationsAccessor.obj
 0001:000009c0       ?caption@applicationsAccessor@@QAE?AVQString@@ABV2@@Z 100019c0 f   applicationsAccessor.obj
 0001:00000a40       ?default_error_condition@_System_error_category@std@@UBE?AVerror_condition@2@H@Z 10001a40 f i applicationsAccessor.obj
 0001:00000a80       ?default_error_condition@error_category@std@@UBE?AVerror_condition@2@H@Z 10001a80 f i applicationsAccessor.obj
 0001:00000aa0       ?deleteItem@applicationsAccessor@@QAE_NABVQString@@@Z 10001aa0 f   applicationsAccessor.obj
 0001:00000c30       ?equivalent@error_category@std@@UBE_NABVerror_code@2@H@Z 10001c30 f i applicationsAccessor.obj
 0001:00000c50       ?equivalent@error_category@std@@UBE_NHABVerror_condition@2@@Z 10001c50 f i applicationsAccessor.obj
 0001:00000c90       ?erase@?$basic_string@DU?$char_traits@D@std@@V?$allocator@D@2@@std@@QAEAAV12@II@Z 10001c90 f i applicationsAccessor.obj
 0001:00000d30       ?icon@applicationsAccessor@@QAE?AVQString@@ABV2@@Z 10001d30 f   applicationsAccessor.obj
 0001:00000db0       ?isDirty@applicationsAccessor@@QAE_NXZ 10001db0 f   applicationsAccessor.obj
 0001:00000e20       ?item@applicationsAccessor@@QAE_NABVQString@@AAV2@111@Z 10001e20 f   applicationsAccessor.obj
 0001:000010b0       ?load@applicationsAccessor@@SAPAV1@XZ 100020b0 f i applicationsAccessor.obj
 0001:00001130       ?message@_Generic_error_category@std@@UBE?AV?$basic_string@DU?$char_traits@D@std@@V?$allocator@D@2@@2@H@Z 10002130 f i applicationsAccessor.obj
 0001:000011b0       ?message@_Iostream_error_category@std@@UBE?AV?$basic_string@DU?$char_traits@D@std@@V?$allocator@D@2@@2@H@Z 100021b0 f i applicationsAccessor.obj
 0001:00001200       ?message@_System_error_category@std@@UBE?AV?$basic_string@DU?$char_traits@D@std@@V?$allocator@D@2@@2@H@Z 10002200 f i applicationsAccessor.obj
 0001:00001280       ?metaObject@applicationsAccessor@@UBEPAVQMetaObject@@XZ 10002280 f i applicationsAccessor.obj
 0001:00001290       ?name@_Generic_error_category@std@@UBEPBDXZ 10002290 f i applicationsAccessor.obj
 0001:000012a0       ?name@_Iostream_error_category@std@@UBEPBDXZ 100022a0 f i applicationsAccessor.obj
 0001:000012b0       ?name@_System_error_category@std@@UBEPBDXZ 100022b0 f i applicationsAccessor.obj
 0001:000012c0       ?nextItem@applicationsAccessor@@QAE_NAAVQString@@0000@Z 100022c0 f   applicationsAccessor.obj
 0001:00001500       ?setAttribute@applicationsAccessor@@AAE_NABVQString@@00@Z 10002500 f   applicationsAccessor.obj
 0001:00001680       ?setCaption@applicationsAccessor@@QAE_NABVQString@@0@Z 10002680 f   applicationsAccessor.obj
 0001:00001720       ?setDirty@applicationsAccessor@@AAEXXZ 10002720 f   applicationsAccessor.obj
 0001:000017e0       ?setIcon@applicationsAccessor@@QAE_NABVQString@@0@Z 100027e0 f   applicationsAccessor.obj
 0001:00001880       ?setTitle@applicationsAccessor@@QAE_NABVQString@@0@Z 10002880 f   applicationsAccessor.obj
 0001:00001920       ?setType@applicationsAccessor@@QAE_NABVQString@@0@Z 10002920 f   applicationsAccessor.obj
 0001:000019c0       ?title@applicationsAccessor@@QAE?AVQString@@ABV2@@Z 100029c0 f   applicationsAccessor.obj
 0001:00001a40       ?type@applicationsAccessor@@QAE?AVQString@@ABV2@@Z 10002a40 f   applicationsAccessor.obj
 0001:00001ac0       ?unload@applicationsAccessor@@SA_NXZ 10002ac0 f i applicationsAccessor.obj
 0001:00001b00       ??$_Buynode@U?$pair@VQString@@PAVcachedData@@@std@@@?$_Tree_buy@U?$pair@$$CBVQString@@PAVcachedData@@@std@@V?$allocator@U?$pair@$$CBVQString@@PAVcachedData@@@std@@@2@@std@@QAEPAU?$_Tree_node@U?$pair@$$CBVQString@@PAVcachedData@@@std@@PAX@1@$$QAU?$pair@VQString@@PAVcachedData@@@1@@Z 10002b00 f i bncs_config.obj
 0001:00001b90       ??$_Insert_at@AAU?$pair@$$CBVQString@@PAVcachedData@@@std@@PAU?$_Tree_node@U?$pair@$$CBVQString@@PAVcachedData@@@std@@PAX@2@@?$_Tree@V?$_Tmap_traits@VQString@@PAVcachedData@@U?$less@VQString@@@std@@V?$allocator@U?$pair@$$CBVQString@@PAVcachedData@@@std@@@4@$0A@@std@@@std@@IAE?AV?$_Tree_iterator@V?$_Tree_val@U?$_Tree_simple_types@U?$pair@$$CBVQString@@PAVcachedData@@@std@@@std@@@std@@@1@_NPAU?$_Tree_node@U?$pair@$$CBVQString@@PAVcachedData@@@std@@PAX@1@AAU?$pair@$$CBVQString@@PAVcachedData@@@1@1@Z 10002b90 f i bncs_config.obj
 0001:00001da0       ??$_Insert_nohint@AAU?$pair@$$CBVQString@@PAVcachedData@@@std@@PAU?$_Tree_node@U?$pair@$$CBVQString@@PAVcachedData@@@std@@PAX@2@@?$_Tree@V?$_Tmap_traits@VQString@@PAVcachedData@@U?$less@VQString@@@std@@V?$allocator@U?$pair@$$CBVQString@@PAVcachedData@@@std@@@4@$0A@@std@@@std@@IAE?AU?$pair@V?$_Tree_iterator@V?$_Tree_val@U?$_Tree_simple_types@U?$pair@$$CBVQString@@PAVcachedData@@@std@@@std@@@std@@@std@@_N@1@_NAAU?$pair@$$CBVQString@@PAVcachedData@@@1@PAU?$_Tree_node@U?$pair@$$CBVQString@@PAVcachedData@@@std@@PAX@1@@Z 10002da0 f i bncs_config.obj
 0001:00001ef0       ??0bncs_config@@QAE@ABV0@@Z 10002ef0 f   bncs_config.obj
 0001:00001fc0       ??0bncs_config@@QAE@ABVbncs_string@@@Z 10002fc0 f   bncs_config.obj
 0001:000023d0       ??0bncs_config@@QAE@XZ     100033d0 f   bncs_config.obj
 0001:000023f0       ??1?$map@VQString@@PAVcachedData@@U?$less@VQString@@@std@@V?$allocator@U?$pair@$$CBVQString@@PAVcachedData@@@std@@@4@@std@@QAE@XZ 100033f0 f i bncs_config.obj
 0001:00002420       ??1?$pair@VQString@@PAVcachedData@@@std@@QAE@XZ 10003420 f i bncs_config.obj
 0001:00002430       ??1bncs_config@@UAE@XZ     10003430 f   bncs_config.obj
 0001:00002460       ??1docCache@@UAE@XZ        10003460 f i bncs_config.obj
 0001:00002550       ??4bncs_config@@QAEAAV0@ABV0@@Z 10003550 f   bncs_config.obj
 0001:00002620       ??E?$_Tree_unchecked_const_iterator@V?$_Tree_val@U?$_Tree_simple_types@U?$pair@$$CBVQString@@PAVcachedData@@@std@@@std@@@std@@U_Iterator_base0@2@@std@@QAEAAV01@XZ 10003620 f i bncs_config.obj
 0001:00002670       ??F?$_Tree_unchecked_const_iterator@V?$_Tree_val@U?$_Tree_simple_types@U?$pair@$$CBVQString@@PAVcachedData@@@std@@@std@@@std@@U_Iterator_base0@2@@std@@QAEAAV01@XZ 10003670 f i bncs_config.obj
 0001:000026d0       ??_Ebncs_config@@UAEPAXI@Z 100036d0 f i bncs_config.obj
 0001:00002730       ??_EQDomDocument@@UAEPAXI@Z 10003730 f i bncs_config.obj
 0001:00002730       ??_GQDomDocument@@UAEPAXI@Z 10003730 f i bncs_config.obj
 0001:00002760       ??_GdocCache@@UAEPAXI@Z    10003760 f i bncs_config.obj
 0001:00002760       ??_EdocCache@@UAEPAXI@Z    10003760 f i bncs_config.obj
 0001:00002790       ?_Buyheadnode@?$_Tree_alloc@$0A@U?$_Tree_base_types@U?$pair@$$CBVQString@@PAVcachedData@@@std@@V?$allocator@U?$pair@$$CBVQString@@PAVcachedData@@@std@@@2@@std@@@std@@QAEPAU?$_Tree_node@U?$pair@$$CBVQString@@PAVcachedData@@@std@@PAX@2@XZ 10003790 f i bncs_config.obj
 0001:000027c0       ?_Buynode0@?$_Tree_buy@U?$pair@$$CBVQString@@PAVcachedData@@@std@@V?$allocator@U?$pair@$$CBVQString@@PAVcachedData@@@std@@@2@@std@@QAEPAU?$_Tree_node@U?$pair@$$CBVQString@@PAVcachedData@@@std@@PAX@2@XZ 100037c0 f i bncs_config.obj
 0001:00002800       ?_Destroy_if_not_nil@?$_Tree@V?$_Tmap_traits@VQString@@PAVcachedData@@U?$less@VQString@@@std@@V?$allocator@U?$pair@$$CBVQString@@PAVcachedData@@@std@@@4@$0A@@std@@@std@@IAEXPAU?$_Tree_node@U?$pair@$$CBVQString@@PAVcachedData@@@std@@PAX@2@@Z 10003800 f i bncs_config.obj
 0001:00002820       ?_Erase@?$_Tree@V?$_Tmap_traits@VQString@@PAVcachedData@@U?$less@VQString@@@std@@V?$allocator@U?$pair@$$CBVQString@@PAVcachedData@@@std@@@4@$0A@@std@@@std@@IAEXPAU?$_Tree_node@U?$pair@$$CBVQString@@PAVcachedData@@@std@@PAX@2@@Z 10003820 f i bncs_config.obj
 0001:00002860       ?_Lbound@?$_Tree@V?$_Tmap_traits@VQString@@PAVcachedData@@U?$less@VQString@@@std@@V?$allocator@U?$pair@$$CBVQString@@PAVcachedData@@@std@@@4@$0A@@std@@@std@@IAEPAU?$_Tree_node@U?$pair@$$CBVQString@@PAVcachedData@@@std@@PAX@2@ABVQString@@@Z 10003860 f i bncs_config.obj
 0001:000028a0       ?_Lrotate@?$_Tree@V?$_Tmap_traits@VQString@@PAVcachedData@@U?$less@VQString@@@std@@V?$allocator@U?$pair@$$CBVQString@@PAVcachedData@@@std@@@4@$0A@@std@@@std@@IAEXPAU?$_Tree_node@U?$pair@$$CBVQString@@PAVcachedData@@@std@@PAX@2@@Z 100038a0 f i bncs_config.obj
 0001:00002900       ?_Rrotate@?$_Tree@V?$_Tmap_traits@VQString@@PAVcachedData@@U?$less@VQString@@@std@@V?$allocator@U?$pair@$$CBVQString@@PAVcachedData@@@std@@@4@$0A@@std@@@std@@IAEXPAU?$_Tree_node@U?$pair@$$CBVQString@@PAVcachedData@@@std@@PAX@2@@Z 10003900 f i bncs_config.obj
 0001:00002960       ?attr@bncs_config@@QAE?AVbncs_string@@ABV2@@Z 10003960 f   bncs_config.obj
 0001:00002a80       ?cachedDoc@bncs_config@@SAPAVQDomDocument@@ABVbncs_string@@@Z 10003a80 f   bncs_config.obj
 0001:00002b70       ?changeSerial@bncs_config@@SAHABVbncs_string@@@Z 10003b70 f   bncs_config.obj
 0001:00002c70       ?childAttr@bncs_config@@QAE?AVbncs_string@@ABV2@@Z 10003c70 f   bncs_config.obj
 0001:00002d90       ?childTag@bncs_config@@QAE?AVbncs_string@@XZ 10003d90 f   bncs_config.obj
 0001:00002e80       ?clearCache@bncs_config@@SAXXZ 10003e80 f   bncs_config.obj
 0001:00002f60       ?correctNodeForComments@bncs_config@@AAE_NAAVQDomNode@@@Z 10003f60 f i bncs_config.obj
 0001:00003040       ?data@bncs_config@@QAE?AVbncs_string@@XZ 10004040 f   bncs_config.obj
 0001:00003170       ?decSerial@bncs_config@@SAHABVbncs_string@@@Z 10004170 f   bncs_config.obj
 0001:00003270       ?drillDown@bncs_config@@QAEXXZ 10004270 f   bncs_config.obj
 0001:000032f0       ?erase@?$_Tree@V?$_Tmap_traits@VQString@@PAVcachedData@@U?$less@VQString@@@std@@V?$allocator@U?$pair@$$CBVQString@@PAVcachedData@@@std@@@4@$0A@@std@@@std@@QAE?AV?$_Tree_iterator@V?$_Tree_val@U?$_Tree_simple_types@U?$pair@$$CBVQString@@PAVcachedData@@@std@@@std@@@std@@@2@V?$_Tree_const_iterator@V?$_Tree_val@U?$_Tree_simple_types@U?$pair@$$CBVQString@@PAVcachedData@@@std@@@std@@@std@@@2@0@Z 100042f0 f i bncs_config.obj
 0001:000033b0       ?erase@?$_Tree@V?$_Tmap_traits@VQString@@PAVcachedData@@U?$less@VQString@@@std@@V?$allocator@U?$pair@$$CBVQString@@PAVcachedData@@@std@@@4@$0A@@std@@@std@@QAE?AV?$_Tree_iterator@V?$_Tree_val@U?$_Tree_simple_types@U?$pair@$$CBVQString@@PAVcachedData@@@std@@@std@@@std@@@2@V?$_Tree_const_iterator@V?$_Tree_val@U?$_Tree_simple_types@U?$pair@$$CBVQString@@PAVcachedData@@@std@@@std@@@std@@@2@@Z 100043b0 f i bncs_config.obj
 0001:00003630       ?incSerial@bncs_config@@SAHABVbncs_string@@@Z 10004630 f   bncs_config.obj
 0001:00003730       ?insert@docCache@@QAEXABVQString@@PAVcachedData@@@Z 10004730 f i bncs_config.obj
 0001:00003800       ?isChildValid@bncs_config@@QAE_NXZ 10004800 f   bncs_config.obj
 0001:00003870       ?isDirty@bncs_config@@SA_NABVbncs_string@@@Z 10004870 f   bncs_config.obj
 0001:00003970       ?isValid@bncs_config@@QAE_NXZ 10004970 f   bncs_config.obj
 0001:000039e0       ?loadDoc@bncs_config@@CAPAVQDomDocument@@ABVbncs_string@@@Z 100049e0 f   bncs_config.obj
 0001:00003c00       ?nextChild@bncs_config@@QAE_NXZ 10004c00 f   bncs_config.obj
 0001:00003c90       ?save@bncs_config@@SA_NXZ  10004c90 f   bncs_config.obj
 0001:00003eb0       ?setEnv@bncs_config@@SAXABVbncs_string@@@Z 10004eb0 f   bncs_config.obj
 0001:00003ed0       ?tag@bncs_config@@QAE?AVbncs_string@@XZ 10004ed0 f   bncs_config.obj
 0001:00003fc0       ??0?$QMap@VQString@@VcomplexInstance@@@@QAE@XZ 10004fc0 f i instanceLookup.obj
 0001:00004040       ??0?$QMap@VQString@@VcomplexParam@@@@QAE@XZ 10005040 f i instanceLookup.obj
 0001:000040c0       ??0?$QMap@VQString@@VcomplexType@@@@QAE@XZ 100050c0 f i instanceLookup.obj
 0001:00004140       ??0?$QMap@VQString@@VdeviceTypeInfo@@@@QAE@XZ 10005140 f i instanceLookup.obj
 0001:000041c0       ??0?$QMap@VQString@@VinstanceInfo@@@@QAE@XZ 100051c0 f i instanceLookup.obj
 0001:00004240       ??0?$QMap@VQString@@VcomplexType@@@@QAE@ABV0@@Z 10005240 f i instanceLookup.obj
 0001:00004240       ??0?$QMap@VQString@@VparamInfo@@@@QAE@ABV0@@Z 10005240 f i instanceLookup.obj
 0001:00004240       ??0?$QMap@VQString@@VinstanceInfo@@@@QAE@ABV0@@Z 10005240 f i instanceLookup.obj
 0001:00004240       ??0?$QMap@VQString@@VcomplexInstance@@@@QAE@ABV0@@Z 10005240 f i instanceLookup.obj
 0001:00004240       ??0?$QMap@VQString@@VcomplexParam@@@@QAE@ABV0@@Z 10005240 f i instanceLookup.obj
 0001:00004240       ??0?$QMap@VQString@@VdeviceTypeInfo@@@@QAE@ABV0@@Z 10005240 f i instanceLookup.obj
 0001:00004260       ??0?$QMap@VQString@@VparamInfo@@@@QAE@XZ 10005260 f i instanceLookup.obj
 0001:000042e0       ??0?$QMapNode@VQString@@VcomplexInstance@@@@QAE@ABU0@@Z 100052e0 f i instanceLookup.obj
 0001:00004360       ??0?$QMapNode@VQString@@VcomplexParam@@@@QAE@ABU0@@Z 10005360 f i instanceLookup.obj
 0001:000043f0       ??0?$QMapNode@VQString@@VcomplexType@@@@QAE@ABU0@@Z 100053f0 f i instanceLookup.obj
 0001:00004470       ??0?$QMapNode@VQString@@VdeviceTypeInfo@@@@QAE@ABU0@@Z 10005470 f i instanceLookup.obj
 0001:000044f0       ??0?$QMapNode@VQString@@VinstanceInfo@@@@QAE@ABU0@@Z 100054f0 f i instanceLookup.obj
 0001:00004570       ??0?$QMapPrivate@VQString@@VcomplexInstance@@@@QAE@PBV0@@Z 10005570 f i instanceLookup.obj
 0001:00004680       ??0?$QMapPrivate@VQString@@VcomplexInstance@@@@QAE@XZ 10005680 f i instanceLookup.obj
 0001:00004720       ??0?$QMapPrivate@VQString@@VcomplexParam@@@@QAE@PBV0@@Z 10005720 f i instanceLookup.obj
 0001:00004830       ??0?$QMapPrivate@VQString@@VcomplexParam@@@@QAE@XZ 10005830 f i instanceLookup.obj
 0001:000048d0       ??0?$QMapPrivate@VQString@@VcomplexType@@@@QAE@PBV0@@Z 100058d0 f i instanceLookup.obj
 0001:000049e0       ??0?$QMapPrivate@VQString@@VcomplexType@@@@QAE@XZ 100059e0 f i instanceLookup.obj
 0001:00004a80       ??0?$QMapPrivate@VQString@@VdeviceTypeInfo@@@@QAE@PBV0@@Z 10005a80 f i instanceLookup.obj
 0001:00004b90       ??0?$QMapPrivate@VQString@@VdeviceTypeInfo@@@@QAE@XZ 10005b90 f i instanceLookup.obj
 0001:00004c30       ??0?$QMapPrivate@VQString@@VinstanceInfo@@@@QAE@PBV0@@Z 10005c30 f i instanceLookup.obj
 0001:00004d40       ??0?$QMapPrivate@VQString@@VinstanceInfo@@@@QAE@XZ 10005d40 f i instanceLookup.obj
 0001:00004de0       ??0?$QMapPrivate@VQString@@VparamInfo@@@@QAE@PBV0@@Z 10005de0 f i instanceLookup.obj
 0001:00004ef0       ??0?$QMapPrivate@VQString@@VparamInfo@@@@QAE@XZ 10005ef0 f i instanceLookup.obj
 0001:00004f90       ??0?$QValueListPrivate@VcomplexInstance@@@@QAE@ABV0@@Z 10005f90 f i instanceLookup.obj
 0001:00005060       ??0?$QValueListPrivate@VcomplexInstance@@@@QAE@XZ 10006060 f i instanceLookup.obj
 0001:000050f0       ??0?$QValueListPrivate@VcomplexParam@@@@QAE@ABV0@@Z 100060f0 f i instanceLookup.obj
 0001:000051c0       ??0?$QValueListPrivate@VcomplexParam@@@@QAE@XZ 100061c0 f i instanceLookup.obj
 0001:00005250       ??0?$QValueListPrivate@VcomplexType@@@@QAE@ABV0@@Z 10006250 f i instanceLookup.obj
 0001:00005320       ??0?$QValueListPrivate@VcomplexType@@@@QAE@XZ 10006320 f i instanceLookup.obj
 0001:000053b0       ??0?$QValueListPrivate@VdeviceTypeInfo@@@@QAE@ABV0@@Z 100063b0 f i instanceLookup.obj
 0001:00005480       ??0?$QValueListPrivate@VdeviceTypeInfo@@@@QAE@XZ 10006480 f i instanceLookup.obj
 0001:00005510       ??0?$QValueListPrivate@VinstanceInfo@@@@QAE@ABV0@@Z 10006510 f i instanceLookup.obj
 0001:000055e0       ??0?$QValueListPrivate@VinstanceInfo@@@@QAE@XZ 100065e0 f i instanceLookup.obj
 0001:00005670       ??0?$QValueListPrivate@VparamInfo@@@@QAE@ABV0@@Z 10006670 f i instanceLookup.obj
 0001:00005740       ??0?$QValueListPrivate@VparamInfo@@@@QAE@XZ 10006740 f i instanceLookup.obj
 0001:000057d0       ??1?$QMap@VQString@@VcomplexInstance@@@@QAE@XZ 100067d0 f i instanceLookup.obj
 0001:000057f0       ??1?$QMap@VQString@@VcomplexParam@@@@QAE@XZ 100067f0 f i instanceLookup.obj
 0001:00005810       ??1?$QMap@VQString@@VcomplexType@@@@QAE@XZ 10006810 f i instanceLookup.obj
 0001:00005830       ??1?$QMap@VQString@@VdeviceTypeInfo@@@@QAE@XZ 10006830 f i instanceLookup.obj
 0001:00005850       ??1?$QMap@VQString@@VinstanceInfo@@@@QAE@XZ 10006850 f i instanceLookup.obj
 0001:00005870       ??1?$QMap@VQString@@VparamInfo@@@@QAE@XZ 10006870 f i instanceLookup.obj
 0001:00005890       ??1?$QMapPrivate@VQString@@VcomplexInstance@@@@QAE@XZ 10006890 f i instanceLookup.obj
 0001:00005930       ??1?$QMapPrivate@VQString@@VcomplexParam@@@@QAE@XZ 10006930 f i instanceLookup.obj
 0001:000059d0       ??1?$QMapPrivate@VQString@@VcomplexType@@@@QAE@XZ 100069d0 f i instanceLookup.obj
 0001:00005a70       ??1?$QMapPrivate@VQString@@VdeviceTypeInfo@@@@QAE@XZ 10006a70 f i instanceLookup.obj
 0001:00005b10       ??1?$QMapPrivate@VQString@@VinstanceInfo@@@@QAE@XZ 10006b10 f i instanceLookup.obj
 0001:00005bb0       ??1?$QMapPrivate@VQString@@VparamInfo@@@@QAE@XZ 10006bb0 f i instanceLookup.obj
 0001:00005c50       ??1?$QValueList@VdeviceTypeInfo@@@@QAE@XZ 10006c50 f i instanceLookup.obj
 0001:00005c50       ??1?$QValueList@VcomplexParam@@@@QAE@XZ 10006c50 f i instanceLookup.obj
 0001:00005c50       ??1?$QValueList@VinstanceInfo@@@@QAE@XZ 10006c50 f i instanceLookup.obj
 0001:00005c50       ??1?$QValueList@VcomplexInstance@@@@QAE@XZ 10006c50 f i instanceLookup.obj
 0001:00005c50       ??1?$QValueList@VpanelsetItem@@@@QAE@XZ 10006c50 f i panelsetsAccessor.obj
 0001:00005c50       ??1?$QValueList@VcomplexType@@@@QAE@XZ 10006c50 f i instanceLookup.obj
 0001:00005c50       ??1?$QValueList@VparamInfo@@@@QAE@XZ 10006c50 f i instanceLookup.obj
 0001:00005c50       ??1?$QValueList@VlaunchItem@@@@QAE@XZ 10006c50 f i launchAccessor.obj
 0001:00005c50       ??1?$QValueList@VworkstationSettingsItem@@@@QAE@XZ 10006c50 f i workstationSettingsAccessor.obj
 0001:00005c70       ??4?$QMap@VQString@@VcomplexInstance@@@@QAEAAV0@ABV0@@Z 10006c70 f i instanceLookup.obj
 0001:00005cb0       ??4?$QMap@VQString@@VcomplexParam@@@@QAEAAV0@ABV0@@Z 10006cb0 f i instanceLookup.obj
 0001:00005cf0       ??4?$QMap@VQString@@VcomplexType@@@@QAEAAV0@ABV0@@Z 10006cf0 f i instanceLookup.obj
 0001:00005d30       ??4?$QMap@VQString@@VdeviceTypeInfo@@@@QAEAAV0@ABV0@@Z 10006d30 f i instanceLookup.obj
 0001:00005d70       ??4?$QMap@VQString@@VinstanceInfo@@@@QAEAAV0@ABV0@@Z 10006d70 f i instanceLookup.obj
 0001:00005db0       ??4?$QMap@VQString@@VparamInfo@@@@QAEAAV0@ABV0@@Z 10006db0 f i instanceLookup.obj
 0001:00005df0       ??A?$QMap@VQString@@VcomplexInstance@@@@QAEAAVcomplexInstance@@ABVQString@@@Z 10006df0 f i instanceLookup.obj
 0001:00005f10       ??A?$QMap@VQString@@VcomplexParam@@@@QAEAAVcomplexParam@@ABVQString@@@Z 10006f10 f i instanceLookup.obj
 0001:00005ff0       ??A?$QMap@VQString@@VcomplexParam@@@@QBEABVcomplexParam@@ABVQString@@@Z 10006ff0 f i instanceLookup.obj
 0001:00006010       ??A?$QMap@VQString@@VcomplexType@@@@QAEAAVcomplexType@@ABVQString@@@Z 10007010 f i instanceLookup.obj
 0001:00006130       ??A?$QMap@VQString@@VcomplexInstance@@@@QBEABVcomplexInstance@@ABVQString@@@Z 10007130 f i instanceLookup.obj
 0001:00006130       ??A?$QMap@VQString@@VcomplexType@@@@QBEABVcomplexType@@ABVQString@@@Z 10007130 f i instanceLookup.obj
 0001:00006130       ??A?$QMap@VQString@@VparamInfo@@@@QBEABVparamInfo@@ABVQString@@@Z 10007130 f i instanceLookup.obj
 0001:00006150       ??A?$QMap@VQString@@VdeviceTypeInfo@@@@QAEAAVdeviceTypeInfo@@ABVQString@@@Z 10007150 f i instanceLookup.obj
 0001:00006270       ??A?$QMap@VQString@@VdeviceTypeInfo@@@@QBEABVdeviceTypeInfo@@ABVQString@@@Z 10007270 f i instanceLookup.obj
 0001:00006290       ??A?$QMap@VQString@@VinstanceInfo@@@@QAEAAVinstanceInfo@@ABVQString@@@Z 10007290 f i instanceLookup.obj
 0001:000063b0       ??A?$QMap@VQString@@VinstanceInfo@@@@QBEABVinstanceInfo@@ABVQString@@@Z 100073b0 f i instanceLookup.obj
 0001:000063d0       ??A?$QMap@VQString@@VparamInfo@@@@QAEAAVparamInfo@@ABVQString@@@Z 100073d0 f i instanceLookup.obj
 0001:000064e0       ??_G?$QValueListNode@VcomplexInstance@@@@UAEPAXI@Z 100074e0 f i instanceLookup.obj
 0001:000064e0       ??_E?$QValueListNode@VcomplexInstance@@@@UAEPAXI@Z 100074e0 f i instanceLookup.obj
 0001:00006510       ??_E?$QValueListNode@VcomplexParam@@@@UAEPAXI@Z 10007510 f i instanceLookup.obj
 0001:00006510       ??_G?$QValueListNode@VcomplexParam@@@@UAEPAXI@Z 10007510 f i instanceLookup.obj
 0001:00006540       ??_G?$QValueListNode@VcomplexType@@@@UAEPAXI@Z 10007540 f i instanceLookup.obj
 0001:00006540       ??_E?$QValueListNode@VcomplexType@@@@UAEPAXI@Z 10007540 f i instanceLookup.obj
 0001:00006570       ??_G?$QValueListNode@VdeviceTypeInfo@@@@UAEPAXI@Z 10007570 f i instanceLookup.obj
 0001:00006570       ??_E?$QValueListNode@VdeviceTypeInfo@@@@UAEPAXI@Z 10007570 f i instanceLookup.obj
 0001:000065a0       ??_E?$QValueListNode@VinstanceInfo@@@@UAEPAXI@Z 100075a0 f i instanceLookup.obj
 0001:000065a0       ??_G?$QValueListNode@VinstanceInfo@@@@UAEPAXI@Z 100075a0 f i instanceLookup.obj
 0001:000065d0       ??_E?$QValueListNode@VparamInfo@@@@UAEPAXI@Z 100075d0 f i instanceLookup.obj
 0001:000065d0       ??_G?$QValueListNode@VparamInfo@@@@UAEPAXI@Z 100075d0 f i instanceLookup.obj
 0001:00006600       ??_E?$QValueListPrivate@VcomplexInstance@@@@UAEPAXI@Z 10007600 f i instanceLookup.obj
 0001:00006600       ??_G?$QValueListPrivate@VcomplexInstance@@@@UAEPAXI@Z 10007600 f i instanceLookup.obj
 0001:00006650       ??_G?$QValueListPrivate@VcomplexParam@@@@UAEPAXI@Z 10007650 f i instanceLookup.obj
 0001:00006650       ??_E?$QValueListPrivate@VcomplexParam@@@@UAEPAXI@Z 10007650 f i instanceLookup.obj
 0001:000066a0       ??_G?$QValueListPrivate@VcomplexType@@@@UAEPAXI@Z 100076a0 f i instanceLookup.obj
 0001:000066a0       ??_E?$QValueListPrivate@VcomplexType@@@@UAEPAXI@Z 100076a0 f i instanceLookup.obj
 0001:000066f0       ??_G?$QValueListPrivate@VdeviceTypeInfo@@@@UAEPAXI@Z 100076f0 f i instanceLookup.obj
 0001:000066f0       ??_E?$QValueListPrivate@VdeviceTypeInfo@@@@UAEPAXI@Z 100076f0 f i instanceLookup.obj
 0001:00006740       ??_E?$QValueListPrivate@VinstanceInfo@@@@UAEPAXI@Z 10007740 f i instanceLookup.obj
 0001:00006740       ??_G?$QValueListPrivate@VinstanceInfo@@@@UAEPAXI@Z 10007740 f i instanceLookup.obj
 0001:00006790       ??_G?$QValueListPrivate@VparamInfo@@@@UAEPAXI@Z 10007790 f i instanceLookup.obj
 0001:00006790       ??_E?$QValueListPrivate@VparamInfo@@@@UAEPAXI@Z 10007790 f i instanceLookup.obj
 0001:000067e0       ?append@?$QValueList@VcomplexInstance@@@@QAE?AV?$QValueListIterator@VcomplexInstance@@@@ABVcomplexInstance@@@Z 100077e0 f i instanceLookup.obj
 0001:000068b0       ?append@?$QValueList@VcomplexParam@@@@QAE?AV?$QValueListIterator@VcomplexParam@@@@ABVcomplexParam@@@Z 100078b0 f i instanceLookup.obj
 0001:00006980       ?append@?$QValueList@VcomplexType@@@@QAE?AV?$QValueListIterator@VcomplexType@@@@ABVcomplexType@@@Z 10007980 f i instanceLookup.obj
 0001:00006a50       ?append@?$QValueList@VdeviceTypeInfo@@@@QAE?AV?$QValueListIterator@VdeviceTypeInfo@@@@ABVdeviceTypeInfo@@@Z 10007a50 f i instanceLookup.obj
 0001:00006b20       ?append@?$QValueList@VinstanceInfo@@@@QAE?AV?$QValueListIterator@VinstanceInfo@@@@ABVinstanceInfo@@@Z 10007b20 f i instanceLookup.obj
 0001:00006bf0       ?append@?$QValueList@VparamInfo@@@@QAE?AV?$QValueListIterator@VparamInfo@@@@ABVparamInfo@@@Z 10007bf0 f i instanceLookup.obj
 0001:00006cc0       ?begin@?$QMap@VQString@@VcomplexInstance@@@@QAE?AV?$QMapIterator@VQString@@VcomplexInstance@@@@XZ 10007cc0 f i instanceLookup.obj
 0001:00006d40       ?begin@?$QMap@VQString@@VcomplexParam@@@@QAE?AV?$QMapIterator@VQString@@VcomplexParam@@@@XZ 10007d40 f i instanceLookup.obj
 0001:00006dc0       ?begin@?$QMap@VQString@@VcomplexType@@@@QAE?AV?$QMapIterator@VQString@@VcomplexType@@@@XZ 10007dc0 f i instanceLookup.obj
 0001:00006e40       ?begin@?$QMap@VQString@@VdeviceTypeInfo@@@@QAE?AV?$QMapIterator@VQString@@VdeviceTypeInfo@@@@XZ 10007e40 f i instanceLookup.obj
 0001:00006ec0       ?begin@?$QMap@VQString@@VinstanceInfo@@@@QAE?AV?$QMapIterator@VQString@@VinstanceInfo@@@@XZ 10007ec0 f i instanceLookup.obj
 0001:00006f40       ?constBegin@?$QMap@VQString@@VcomplexType@@@@QBE?AV?$QMapConstIterator@VQString@@VcomplexType@@@@XZ 10007f40 f i instanceLookup.obj
 0001:00006f40       ?constBegin@?$QMap@VQString@@VcomplexInstance@@@@QBE?AV?$QMapConstIterator@VQString@@VcomplexInstance@@@@XZ 10007f40 f i instanceLookup.obj
 0001:00006f40       ?constBegin@?$QMap@VQString@@VdeviceTypeInfo@@@@QBE?AV?$QMapConstIterator@VQString@@VdeviceTypeInfo@@@@XZ 10007f40 f i instanceLookup.obj
 0001:00006f40       ?constBegin@?$QMap@VQString@@VparamInfo@@@@QBE?AV?$QMapConstIterator@VQString@@VparamInfo@@@@XZ 10007f40 f i instanceLookup.obj
 0001:00006f40       ?begin@?$QMap@VQString@@VcomplexType@@@@QBE?AV?$QMapConstIterator@VQString@@VcomplexType@@@@XZ 10007f40 f i instanceLookup.obj
 0001:00006f40       ?begin@?$QMap@VQString@@VinstanceInfo@@@@QBE?AV?$QMapConstIterator@VQString@@VinstanceInfo@@@@XZ 10007f40 f i instanceLookup.obj
 0001:00006f40       ?constBegin@?$QMap@VQString@@VcomplexParam@@@@QBE?AV?$QMapConstIterator@VQString@@VcomplexParam@@@@XZ 10007f40 f i instanceLookup.obj
 0001:00006f40       ?begin@?$QMap@VQString@@VdeviceTypeInfo@@@@QBE?AV?$QMapConstIterator@VQString@@VdeviceTypeInfo@@@@XZ 10007f40 f i instanceLookup.obj
 0001:00006f40       ?constBegin@?$QMap@VQString@@VinstanceInfo@@@@QBE?AV?$QMapConstIterator@VQString@@VinstanceInfo@@@@XZ 10007f40 f i instanceLookup.obj
 0001:00006f40       ?begin@?$QMap@VQString@@VparamInfo@@@@QBE?AV?$QMapConstIterator@VQString@@VparamInfo@@@@XZ 10007f40 f i instanceLookup.obj
 0001:00006f40       ?begin@?$QMap@VQString@@VcomplexParam@@@@QBE?AV?$QMapConstIterator@VQString@@VcomplexParam@@@@XZ 10007f40 f i instanceLookup.obj
 0001:00006f40       ?begin@?$QMap@VQString@@VcomplexInstance@@@@QBE?AV?$QMapConstIterator@VQString@@VcomplexInstance@@@@XZ 10007f40 f i instanceLookup.obj
 0001:00006f60       ?begin@?$QMap@VQString@@VparamInfo@@@@QAE?AV?$QMapIterator@VQString@@VparamInfo@@@@XZ 10007f60 f i instanceLookup.obj
 0001:00006fe0       ?clear@?$QMap@VQString@@VcomplexInstance@@@@QAEXXZ 10007fe0 f i instanceLookup.obj
 0001:000070a0       ?clear@?$QMap@VQString@@VcomplexParam@@@@QAEXXZ 100080a0 f i instanceLookup.obj
 0001:00007160       ?clear@?$QMap@VQString@@VcomplexType@@@@QAEXXZ 10008160 f i instanceLookup.obj
 0001:00007220       ?clear@?$QMap@VQString@@VdeviceTypeInfo@@@@QAEXXZ 10008220 f i instanceLookup.obj
 0001:000072e0       ?clear@?$QMap@VQString@@VinstanceInfo@@@@QAEXXZ 100082e0 f i instanceLookup.obj
 0001:000073a0       ?clear@?$QMap@VQString@@VparamInfo@@@@QAEXXZ 100083a0 f i instanceLookup.obj
 0001:00007460       ?clear@?$QMapPrivate@VQString@@VcomplexInstance@@@@QAEXPAU?$QMapNode@VQString@@VcomplexInstance@@@@@Z 10008460 f i instanceLookup.obj
 0001:00007500       ?clear@?$QMapPrivate@VQString@@VcomplexParam@@@@QAEXPAU?$QMapNode@VQString@@VcomplexParam@@@@@Z 10008500 f i instanceLookup.obj
 0001:000075a0       ?clear@?$QMapPrivate@VQString@@VcomplexType@@@@QAEXPAU?$QMapNode@VQString@@VcomplexType@@@@@Z 100085a0 f i instanceLookup.obj
 0001:00007640       ?clear@?$QMapPrivate@VQString@@VdeviceTypeInfo@@@@QAEXPAU?$QMapNode@VQString@@VdeviceTypeInfo@@@@@Z 10008640 f i instanceLookup.obj
 0001:000076e0       ?clear@?$QMapPrivate@VQString@@VinstanceInfo@@@@QAEXPAU?$QMapNode@VQString@@VinstanceInfo@@@@@Z 100086e0 f i instanceLookup.obj
 0001:00007780       ?clear@?$QMapPrivate@VQString@@VparamInfo@@@@QAEXPAU?$QMapNode@VQString@@VparamInfo@@@@@Z 10008780 f i instanceLookup.obj
 0001:00007820       ?contains@?$QMap@VQString@@VcomplexParam@@@@QBE_NABVQString@@@Z 10008820 f i instanceLookup.obj
 0001:00007850       ?contains@?$QMap@VQString@@VparamInfo@@@@QBE_NABVQString@@@Z 10008850 f i instanceLookup.obj
 0001:00007850       ?contains@?$QMap@VQString@@VcomplexInstance@@@@QBE_NABVQString@@@Z 10008850 f i instanceLookup.obj
 0001:00007850       ?contains@?$QMap@VQString@@VcomplexType@@@@QBE_NABVQString@@@Z 10008850 f i instanceLookup.obj
 0001:00007880       ?contains@?$QMap@VQString@@VdeviceTypeInfo@@@@QBE_NABVQString@@@Z 10008880 f i instanceLookup.obj
 0001:000078b0       ?contains@?$QMap@VQString@@VinstanceInfo@@@@QBE_NABVQString@@@Z 100088b0 f i instanceLookup.obj
 0001:000078e0       ?copy@?$QMapPrivate@VQString@@VcomplexInstance@@@@QAEPAU?$QMapNode@VQString@@VcomplexInstance@@@@PAU2@@Z 100088e0 f i instanceLookup.obj
 0001:000079b0       ?copy@?$QMapPrivate@VQString@@VcomplexParam@@@@QAEPAU?$QMapNode@VQString@@VcomplexParam@@@@PAU2@@Z 100089b0 f i instanceLookup.obj
 0001:00007a80       ?copy@?$QMapPrivate@VQString@@VcomplexType@@@@QAEPAU?$QMapNode@VQString@@VcomplexType@@@@PAU2@@Z 10008a80 f i instanceLookup.obj
 0001:00007b50       ?copy@?$QMapPrivate@VQString@@VdeviceTypeInfo@@@@QAEPAU?$QMapNode@VQString@@VdeviceTypeInfo@@@@PAU2@@Z 10008b50 f i instanceLookup.obj
 0001:00007c20       ?copy@?$QMapPrivate@VQString@@VinstanceInfo@@@@QAEPAU?$QMapNode@VQString@@VinstanceInfo@@@@PAU2@@Z 10008c20 f i instanceLookup.obj
 0001:00007cf0       ?copy@?$QMapPrivate@VQString@@VparamInfo@@@@QAEPAU?$QMapNode@VQString@@VparamInfo@@@@PAU2@@Z 10008cf0 f i instanceLookup.obj
 0001:00007df0       ?count@?$QMap@VQString@@VcomplexParam@@@@QBEIABVQString@@@Z 10008df0 f i instanceLookup.obj
 0001:00007e60       ?count@?$QMap@VQString@@VdeviceTypeInfo@@@@QBEIABVQString@@@Z 10008e60 f i instanceLookup.obj
 0001:00007ed0       ?count@?$QMap@VQString@@VinstanceInfo@@@@QBEIABVQString@@@Z 10008ed0 f i instanceLookup.obj
 0001:00007f40       ?count@?$QMap@VQString@@VparamInfo@@@@QBEIABVQString@@@Z 10008f40 f i instanceLookup.obj
 0001:00007f40       ?count@?$QMap@VQString@@VcomplexType@@@@QBEIABVQString@@@Z 10008f40 f i instanceLookup.obj
 0001:00007f40       ?count@?$QMap@VQString@@VcomplexInstance@@@@QBEIABVQString@@@Z 10008f40 f i instanceLookup.obj
 0001:00007fb0       ?dec@?$QMapIterator@VQString@@VcomplexInstance@@@@AAEHXZ 10008fb0 f i instanceLookup.obj
 0001:00007fb0       ?dec@?$QMapIterator@VQString@@VcomplexParam@@@@AAEHXZ 10008fb0 f i instanceLookup.obj
 0001:00007fb0       ?dec@?$QMapIterator@VQString@@VparamInfo@@@@AAEHXZ 10008fb0 f i instanceLookup.obj
 0001:00007fb0       ?dec@?$QMapIterator@VQString@@VdeviceTypeInfo@@@@AAEHXZ 10008fb0 f i instanceLookup.obj
 0001:00007fb0       ?dec@?$QMapIterator@VQString@@VinstanceInfo@@@@AAEHXZ 10008fb0 f i instanceLookup.obj
 0001:00007fb0       ?dec@?$QMapIterator@VQString@@VcomplexType@@@@AAEHXZ 10008fb0 f i instanceLookup.obj
 0001:00008010       ?detach@?$QMap@VQString@@VcomplexInstance@@@@IAEXXZ 10009010 f i instanceLookup.obj
 0001:00008090       ?detach@?$QMap@VQString@@VcomplexParam@@@@IAEXXZ 10009090 f i instanceLookup.obj
 0001:00008110       ?detach@?$QMap@VQString@@VcomplexType@@@@IAEXXZ 10009110 f i instanceLookup.obj
 0001:00008190       ?detach@?$QMap@VQString@@VdeviceTypeInfo@@@@IAEXXZ 10009190 f i instanceLookup.obj
 0001:00008210       ?detach@?$QMap@VQString@@VinstanceInfo@@@@IAEXXZ 10009210 f i instanceLookup.obj
 0001:00008290       ?detach@?$QMap@VQString@@VparamInfo@@@@IAEXXZ 10009290 f i instanceLookup.obj
 0001:00008310       ?detachInternal@?$QMap@VQString@@VcomplexInstance@@@@AAEXXZ 10009310 f i instanceLookup.obj
 0001:00008390       ?detachInternal@?$QMap@VQString@@VcomplexParam@@@@AAEXXZ 10009390 f i instanceLookup.obj
 0001:00008410       ?detachInternal@?$QMap@VQString@@VcomplexType@@@@AAEXXZ 10009410 f i instanceLookup.obj
 0001:00008490       ?detachInternal@?$QMap@VQString@@VdeviceTypeInfo@@@@AAEXXZ 10009490 f i instanceLookup.obj
 0001:00008510       ?detachInternal@?$QMap@VQString@@VinstanceInfo@@@@AAEXXZ 10009510 f i instanceLookup.obj
 0001:00008590       ?detachInternal@?$QMap@VQString@@VparamInfo@@@@AAEXXZ 10009590 f i instanceLookup.obj
 0001:00008610       ?end@?$QMap@VQString@@VcomplexInstance@@@@QAE?AV?$QMapIterator@VQString@@VcomplexInstance@@@@XZ 10009610 f i instanceLookup.obj
 0001:00008690       ?constEnd@?$QMap@VQString@@VdeviceTypeInfo@@@@QBE?AV?$QMapConstIterator@VQString@@VdeviceTypeInfo@@@@XZ 10009690 f i instanceLookup.obj
 0001:00008690       ?end@?$QMap@VQString@@VcomplexInstance@@@@QBE?AV?$QMapConstIterator@VQString@@VcomplexInstance@@@@XZ 10009690 f i instanceLookup.obj
 0001:00008690       ?end@?$QMap@VQString@@VcomplexType@@@@QBE?AV?$QMapConstIterator@VQString@@VcomplexType@@@@XZ 10009690 f i instanceLookup.obj
 0001:00008690       ?constEnd@?$QMap@VQString@@VcomplexType@@@@QBE?AV?$QMapConstIterator@VQString@@VcomplexType@@@@XZ 10009690 f i instanceLookup.obj
 0001:00008690       ?constEnd@?$QMap@VQString@@VparamInfo@@@@QBE?AV?$QMapConstIterator@VQString@@VparamInfo@@@@XZ 10009690 f i instanceLookup.obj
 0001:00008690       ?end@?$QMap@VQString@@VdeviceTypeInfo@@@@QBE?AV?$QMapConstIterator@VQString@@VdeviceTypeInfo@@@@XZ 10009690 f i instanceLookup.obj
 0001:00008690       ?end@?$QMap@VQString@@VinstanceInfo@@@@QBE?AV?$QMapConstIterator@VQString@@VinstanceInfo@@@@XZ 10009690 f i instanceLookup.obj
 0001:00008690       ?constEnd@?$QMap@VQString@@VcomplexInstance@@@@QBE?AV?$QMapConstIterator@VQString@@VcomplexInstance@@@@XZ 10009690 f i instanceLookup.obj
 0001:00008690       ?constEnd@?$QMap@VQString@@VinstanceInfo@@@@QBE?AV?$QMapConstIterator@VQString@@VinstanceInfo@@@@XZ 10009690 f i instanceLookup.obj
 0001:00008690       ?constEnd@?$QMap@VQString@@VcomplexParam@@@@QBE?AV?$QMapConstIterator@VQString@@VcomplexParam@@@@XZ 10009690 f i instanceLookup.obj
 0001:00008690       ?end@?$QMap@VQString@@VcomplexParam@@@@QBE?AV?$QMapConstIterator@VQString@@VcomplexParam@@@@XZ 10009690 f i instanceLookup.obj
 0001:00008690       ?end@?$QMap@VQString@@VparamInfo@@@@QBE?AV?$QMapConstIterator@VQString@@VparamInfo@@@@XZ 10009690 f i instanceLookup.obj
 0001:000086b0       ?end@?$QMap@VQString@@VcomplexParam@@@@QAE?AV?$QMapIterator@VQString@@VcomplexParam@@@@XZ 100096b0 f i instanceLookup.obj
 0001:00008730       ?end@?$QMap@VQString@@VcomplexType@@@@QAE?AV?$QMapIterator@VQString@@VcomplexType@@@@XZ 10009730 f i instanceLookup.obj
 0001:000087b0       ?end@?$QMap@VQString@@VdeviceTypeInfo@@@@QAE?AV?$QMapIterator@VQString@@VdeviceTypeInfo@@@@XZ 100097b0 f i instanceLookup.obj
 0001:00008830       ?end@?$QMap@VQString@@VinstanceInfo@@@@QAE?AV?$QMapIterator@VQString@@VinstanceInfo@@@@XZ 10009830 f i instanceLookup.obj
 0001:000088b0       ?end@?$QMap@VQString@@VparamInfo@@@@QAE?AV?$QMapIterator@VQString@@VparamInfo@@@@XZ 100098b0 f i instanceLookup.obj
 0001:00008930       ?remove@?$QMap@VQString@@VcomplexInstance@@@@QAEXABVQString@@@Z 10009930 f i instanceLookup.obj
 0001:00008930       ?erase@?$QMap@VQString@@VcomplexInstance@@@@QAEXABVQString@@@Z 10009930 f i instanceLookup.obj
 0001:00008a40       ?erase@?$QMap@VQString@@VcomplexInstance@@@@QAEXV?$QMapIterator@VQString@@VcomplexInstance@@@@@Z 10009a40 f i instanceLookup.obj
 0001:00008a40       ?remove@?$QMap@VQString@@VcomplexInstance@@@@QAEXV?$QMapIterator@VQString@@VcomplexInstance@@@@@Z 10009a40 f i instanceLookup.obj
 0001:00008b00       ?erase@?$QMap@VQString@@VcomplexParam@@@@QAEXABVQString@@@Z 10009b00 f i instanceLookup.obj
 0001:00008b00       ?remove@?$QMap@VQString@@VcomplexParam@@@@QAEXABVQString@@@Z 10009b00 f i instanceLookup.obj
 0001:00008c10       ?remove@?$QMap@VQString@@VcomplexType@@@@QAEXABVQString@@@Z 10009c10 f i instanceLookup.obj
 0001:00008c10       ?erase@?$QMap@VQString@@VcomplexType@@@@QAEXABVQString@@@Z 10009c10 f i instanceLookup.obj
 0001:00008d20       ?remove@?$QMap@VQString@@VinstanceInfo@@@@QAEXABVQString@@@Z 10009d20 f i instanceLookup.obj
 0001:00008d20       ?erase@?$QMap@VQString@@VinstanceInfo@@@@QAEXABVQString@@@Z 10009d20 f i instanceLookup.obj
 0001:00008e30       ?erase@?$QMap@VQString@@VinstanceInfo@@@@QAEXV?$QMapIterator@VQString@@VinstanceInfo@@@@@Z 10009e30 f i instanceLookup.obj
 0001:00008e30       ?remove@?$QMap@VQString@@VinstanceInfo@@@@QAEXV?$QMapIterator@VQString@@VinstanceInfo@@@@@Z 10009e30 f i instanceLookup.obj
 0001:00008ef0       ?remove@?$QMap@VQString@@VparamInfo@@@@QAEXV?$QMapIterator@VQString@@VparamInfo@@@@@Z 10009ef0 f i instanceLookup.obj
 0001:00008ef0       ?erase@?$QMap@VQString@@VparamInfo@@@@QAEXV?$QMapIterator@VQString@@VparamInfo@@@@@Z 10009ef0 f i instanceLookup.obj
 0001:00008fb0       ?find@?$QMap@VQString@@VcomplexInstance@@@@QAE?AV?$QMapIterator@VQString@@VcomplexInstance@@@@ABVQString@@@Z 10009fb0 f i instanceLookup.obj
 0001:00009040       ?find@?$QMap@VQString@@VcomplexParam@@@@QAE?AV?$QMapIterator@VQString@@VcomplexParam@@@@ABVQString@@@Z 1000a040 f i instanceLookup.obj
 0001:000090d0       ?find@?$QMap@VQString@@VcomplexParam@@@@QBE?AV?$QMapConstIterator@VQString@@VcomplexParam@@@@ABVQString@@@Z 1000a0d0 f i instanceLookup.obj
 0001:000090f0       ?find@?$QMap@VQString@@VcomplexType@@@@QAE?AV?$QMapIterator@VQString@@VcomplexType@@@@ABVQString@@@Z 1000a0f0 f i instanceLookup.obj
 0001:00009180       ?find@?$QMap@VQString@@VcomplexInstance@@@@QBE?AV?$QMapConstIterator@VQString@@VcomplexInstance@@@@ABVQString@@@Z 1000a180 f i instanceLookup.obj
 0001:00009180       ?find@?$QMap@VQString@@VcomplexType@@@@QBE?AV?$QMapConstIterator@VQString@@VcomplexType@@@@ABVQString@@@Z 1000a180 f i instanceLookup.obj
 0001:00009180       ?find@?$QMap@VQString@@VparamInfo@@@@QBE?AV?$QMapConstIterator@VQString@@VparamInfo@@@@ABVQString@@@Z 1000a180 f i instanceLookup.obj
 0001:000091a0       ?find@?$QMap@VQString@@VdeviceTypeInfo@@@@QAE?AV?$QMapIterator@VQString@@VdeviceTypeInfo@@@@ABVQString@@@Z 1000a1a0 f i instanceLookup.obj
 0001:00009230       ?find@?$QMap@VQString@@VdeviceTypeInfo@@@@QBE?AV?$QMapConstIterator@VQString@@VdeviceTypeInfo@@@@ABVQString@@@Z 1000a230 f i instanceLookup.obj
 0001:00009250       ?find@?$QMap@VQString@@VinstanceInfo@@@@QAE?AV?$QMapIterator@VQString@@VinstanceInfo@@@@ABVQString@@@Z 1000a250 f i instanceLookup.obj
 0001:000092e0       ?find@?$QMap@VQString@@VinstanceInfo@@@@QBE?AV?$QMapConstIterator@VQString@@VinstanceInfo@@@@ABVQString@@@Z 1000a2e0 f i instanceLookup.obj
 0001:00009300       ?find@?$QMap@VQString@@VparamInfo@@@@QAE?AV?$QMapIterator@VQString@@VparamInfo@@@@ABVQString@@@Z 1000a300 f i instanceLookup.obj
 0001:00009390       ?find@?$QMapPrivate@VQString@@VcomplexParam@@@@QBE?AV?$QMapConstIterator@VQString@@VcomplexParam@@@@ABVQString@@@Z 1000a390 f i instanceLookup.obj
 0001:00009410       ?find@?$QMapPrivate@VQString@@VparamInfo@@@@QBE?AV?$QMapConstIterator@VQString@@VparamInfo@@@@ABVQString@@@Z 1000a410 f i instanceLookup.obj
 0001:00009410       ?find@?$QMapPrivate@VQString@@VcomplexInstance@@@@QBE?AV?$QMapConstIterator@VQString@@VcomplexInstance@@@@ABVQString@@@Z 1000a410 f i instanceLookup.obj
 0001:00009410       ?find@?$QMapPrivate@VQString@@VcomplexType@@@@QBE?AV?$QMapConstIterator@VQString@@VcomplexType@@@@ABVQString@@@Z 1000a410 f i instanceLookup.obj
 0001:00009490       ?find@?$QMapPrivate@VQString@@VdeviceTypeInfo@@@@QBE?AV?$QMapConstIterator@VQString@@VdeviceTypeInfo@@@@ABVQString@@@Z 1000a490 f i instanceLookup.obj
 0001:00009510       ?find@?$QMapPrivate@VQString@@VinstanceInfo@@@@QBE?AV?$QMapConstIterator@VQString@@VinstanceInfo@@@@ABVQString@@@Z 1000a510 f i instanceLookup.obj
 0001:00009590       ?insert@?$QMap@VQString@@VcomplexInstance@@@@QAE?AU?$QPair@V?$QMapIterator@VQString@@VcomplexInstance@@@@_N@@ABU?$QPair@$$CBVQString@@VcomplexInstance@@@@@Z 1000a590 f i instanceLookup.obj
 0001:00009640       ?insert@?$QMap@VQString@@VcomplexInstance@@@@QAE?AV?$QMapIterator@VQString@@VcomplexInstance@@@@ABVQString@@ABVcomplexInstance@@_N@Z 1000a640 f i instanceLookup.obj
 0001:000096f0       ?insert@?$QMap@VQString@@VcomplexParam@@@@QAE?AU?$QPair@V?$QMapIterator@VQString@@VcomplexParam@@@@_N@@ABU?$QPair@$$CBVQString@@VcomplexParam@@@@@Z 1000a6f0 f i instanceLookup.obj
 0001:000097b0       ?insert@?$QMap@VQString@@VcomplexParam@@@@QAE?AV?$QMapIterator@VQString@@VcomplexParam@@@@ABVQString@@ABVcomplexParam@@_N@Z 1000a7b0 f i instanceLookup.obj
 0001:00009880       ?insert@?$QMap@VQString@@VcomplexType@@@@QAE?AU?$QPair@V?$QMapIterator@VQString@@VcomplexType@@@@_N@@ABU?$QPair@$$CBVQString@@VcomplexType@@@@@Z 1000a880 f i instanceLookup.obj
 0001:00009930       ?insert@?$QMap@VQString@@VcomplexType@@@@QAE?AV?$QMapIterator@VQString@@VcomplexType@@@@ABVQString@@ABVcomplexType@@_N@Z 1000a930 f i instanceLookup.obj
 0001:000099e0       ?insert@?$QMap@VQString@@VdeviceTypeInfo@@@@QAE?AU?$QPair@V?$QMapIterator@VQString@@VdeviceTypeInfo@@@@_N@@ABU?$QPair@$$CBVQString@@VdeviceTypeInfo@@@@@Z 1000a9e0 f i instanceLookup.obj
 0001:00009a90       ?insert@?$QMap@VQString@@VdeviceTypeInfo@@@@QAE?AV?$QMapIterator@VQString@@VdeviceTypeInfo@@@@ABVQString@@ABVdeviceTypeInfo@@_N@Z 1000aa90 f i instanceLookup.obj
 0001:00009b40       ?insert@?$QMap@VQString@@VinstanceInfo@@@@QAE?AU?$QPair@V?$QMapIterator@VQString@@VinstanceInfo@@@@_N@@ABU?$QPair@$$CBVQString@@VinstanceInfo@@@@@Z 1000ab40 f i instanceLookup.obj
 0001:00009bf0       ?insert@?$QMap@VQString@@VinstanceInfo@@@@QAE?AV?$QMapIterator@VQString@@VinstanceInfo@@@@ABVQString@@ABVinstanceInfo@@_N@Z 1000abf0 f i instanceLookup.obj
 0001:00009ca0       ?insert@?$QMap@VQString@@VparamInfo@@@@QAE?AU?$QPair@V?$QMapIterator@VQString@@VparamInfo@@@@_N@@ABU?$QPair@$$CBVQString@@VparamInfo@@@@@Z 1000aca0 f i instanceLookup.obj
 0001:00009d50       ?insert@?$QMap@VQString@@VparamInfo@@@@QAE?AV?$QMapIterator@VQString@@VparamInfo@@@@ABVQString@@ABVparamInfo@@_N@Z 1000ad50 f i instanceLookup.obj
 0001:00009df0       ?insert@?$QMapPrivate@VQString@@VcomplexInstance@@@@QAE?AV?$QMapIterator@VQString@@VcomplexInstance@@@@PAUQMapNodeBase@@0ABVQString@@@Z 1000adf0 f i instanceLookup.obj
 0001:00009ef0       ?insert@?$QMapPrivate@VQString@@VcomplexParam@@@@QAE?AV?$QMapIterator@VQString@@VcomplexParam@@@@PAUQMapNodeBase@@0ABVQString@@@Z 1000aef0 f i instanceLookup.obj
 0001:00009ff0       ?insert@?$QMapPrivate@VQString@@VcomplexType@@@@QAE?AV?$QMapIterator@VQString@@VcomplexType@@@@PAUQMapNodeBase@@0ABVQString@@@Z 1000aff0 f i instanceLookup.obj
 0001:0000a0f0       ?insert@?$QMapPrivate@VQString@@VdeviceTypeInfo@@@@QAE?AV?$QMapIterator@VQString@@VdeviceTypeInfo@@@@PAUQMapNodeBase@@0ABVQString@@@Z 1000b0f0 f i instanceLookup.obj
 0001:0000a1f0       ?insert@?$QMapPrivate@VQString@@VinstanceInfo@@@@QAE?AV?$QMapIterator@VQString@@VinstanceInfo@@@@PAUQMapNodeBase@@0ABVQString@@@Z 1000b1f0 f i instanceLookup.obj
 0001:0000a2f0       ?insert@?$QMapPrivate@VQString@@VparamInfo@@@@QAE?AV?$QMapIterator@VQString@@VparamInfo@@@@PAUQMapNodeBase@@0ABVQString@@@Z 1000b2f0 f i instanceLookup.obj
 0001:0000a3f0       ?insert@?$QValueListPrivate@VcomplexInstance@@@@QAE?AV?$QValueListIterator@VcomplexInstance@@@@V2@ABVcomplexInstance@@@Z 1000b3f0 f i instanceLookup.obj
 0001:0000a480       ?insert@?$QValueListPrivate@VcomplexParam@@@@QAE?AV?$QValueListIterator@VcomplexParam@@@@V2@ABVcomplexParam@@@Z 1000b480 f i instanceLookup.obj
 0001:0000a540       ?insert@?$QValueListPrivate@VcomplexType@@@@QAE?AV?$QValueListIterator@VcomplexType@@@@V2@ABVcomplexType@@@Z 1000b540 f i instanceLookup.obj
 0001:0000a5d0       ?insert@?$QValueListPrivate@VdeviceTypeInfo@@@@QAE?AV?$QValueListIterator@VdeviceTypeInfo@@@@V2@ABVdeviceTypeInfo@@@Z 1000b5d0 f i instanceLookup.obj
 0001:0000a660       ?insert@?$QValueListPrivate@VinstanceInfo@@@@QAE?AV?$QValueListIterator@VinstanceInfo@@@@V2@ABVinstanceInfo@@@Z 1000b660 f i instanceLookup.obj
 0001:0000a6f0       ?insert@?$QValueListPrivate@VparamInfo@@@@QAE?AV?$QValueListIterator@VparamInfo@@@@V2@ABVparamInfo@@@Z 1000b6f0 f i instanceLookup.obj
 0001:0000a750       ?insertSingle@?$QMapPrivate@VQString@@VcomplexInstance@@@@QAE?AV?$QMapIterator@VQString@@VcomplexInstance@@@@ABVQString@@@Z 1000b750 f i instanceLookup.obj
 0001:0000a810       ?insertSingle@?$QMapPrivate@VQString@@VcomplexParam@@@@QAE?AV?$QMapIterator@VQString@@VcomplexParam@@@@ABVQString@@@Z 1000b810 f i instanceLookup.obj
 0001:0000a8d0       ?insertSingle@?$QMapPrivate@VQString@@VcomplexType@@@@QAE?AV?$QMapIterator@VQString@@VcomplexType@@@@ABVQString@@@Z 1000b8d0 f i instanceLookup.obj
 0001:0000a990       ?insertSingle@?$QMapPrivate@VQString@@VdeviceTypeInfo@@@@QAE?AV?$QMapIterator@VQString@@VdeviceTypeInfo@@@@ABVQString@@@Z 1000b990 f i instanceLookup.obj
 0001:0000aa50       ?insertSingle@?$QMapPrivate@VQString@@VinstanceInfo@@@@QAE?AV?$QMapIterator@VQString@@VinstanceInfo@@@@ABVQString@@@Z 1000ba50 f i instanceLookup.obj
 0001:0000ab10       ?insertSingle@?$QMapPrivate@VQString@@VparamInfo@@@@QAE?AV?$QMapIterator@VQString@@VparamInfo@@@@ABVQString@@@Z 1000bb10 f i instanceLookup.obj
 0001:0000abd0       ?empty@?$QMap@VQString@@VdeviceTypeInfo@@@@QBE_NXZ 1000bbd0 f i instanceLookup.obj
 0001:0000abd0       ?isEmpty@?$QMap@VQString@@VinstanceInfo@@@@QBE_NXZ 1000bbd0 f i instanceLookup.obj
 0001:0000abd0       ?isEmpty@?$QMap@VQString@@VdeviceTypeInfo@@@@QBE_NXZ 1000bbd0 f i instanceLookup.obj
 0001:0000abd0       ?empty@?$QMap@VQString@@VinstanceInfo@@@@QBE_NXZ 1000bbd0 f i instanceLookup.obj
 0001:0000abd0       ?empty@?$QMap@VQString@@VcomplexType@@@@QBE_NXZ 1000bbd0 f i instanceLookup.obj
 0001:0000abd0       ?isEmpty@?$QMap@VQString@@VcomplexInstance@@@@QBE_NXZ 1000bbd0 f i instanceLookup.obj
 0001:0000abd0       ?isEmpty@?$QMap@VQString@@VcomplexType@@@@QBE_NXZ 1000bbd0 f i instanceLookup.obj
 0001:0000abd0       ?empty@?$QMap@VQString@@VcomplexInstance@@@@QBE_NXZ 1000bbd0 f i instanceLookup.obj
 0001:0000abd0       ?empty@?$QMap@VQString@@VcomplexParam@@@@QBE_NXZ 1000bbd0 f i instanceLookup.obj
 0001:0000abd0       ?empty@?$QMap@VQString@@VparamInfo@@@@QBE_NXZ 1000bbd0 f i instanceLookup.obj
 0001:0000abd0       ?isEmpty@?$QMap@VQString@@VparamInfo@@@@QBE_NXZ 1000bbd0 f i instanceLookup.obj
 0001:0000abd0       ?isEmpty@?$QMap@VQString@@VcomplexParam@@@@QBE_NXZ 1000bbd0 f i instanceLookup.obj
 0001:0000abe0       ?keys@?$QMap@VQString@@VcomplexType@@@@QBE?AV?$QValueList@VQString@@@@XZ 1000bbe0 f i instanceLookup.obj
 0001:0000abe0       ?keys@?$QMap@VQString@@VparamInfo@@@@QBE?AV?$QValueList@VQString@@@@XZ 1000bbe0 f i instanceLookup.obj
 0001:0000abe0       ?keys@?$QMap@VQString@@VcomplexInstance@@@@QBE?AV?$QValueList@VQString@@@@XZ 1000bbe0 f i instanceLookup.obj
 0001:0000acb0       ?keys@?$QMap@VQString@@VcomplexParam@@@@QBE?AV?$QValueList@VQString@@@@XZ 1000bcb0 f i instanceLookup.obj
 0001:0000ad80       ?keys@?$QMap@VQString@@VdeviceTypeInfo@@@@QBE?AV?$QValueList@VQString@@@@XZ 1000bd80 f i instanceLookup.obj
 0001:0000ae50       ?keys@?$QMap@VQString@@VinstanceInfo@@@@QBE?AV?$QValueList@VQString@@@@XZ 1000be50 f i instanceLookup.obj
 0001:0000af20       ?remove@?$QMap@VQString@@VcomplexParam@@@@QAEXV?$QMapIterator@VQString@@VcomplexParam@@@@@Z 1000bf20 f i instanceLookup.obj
 0001:0000af20       ?erase@?$QMap@VQString@@VcomplexParam@@@@QAEXV?$QMapIterator@VQString@@VcomplexParam@@@@@Z 1000bf20 f i instanceLookup.obj
 0001:0000afe0       ?erase@?$QMap@VQString@@VcomplexType@@@@QAEXV?$QMapIterator@VQString@@VcomplexType@@@@@Z 1000bfe0 f i instanceLookup.obj
 0001:0000afe0       ?remove@?$QMap@VQString@@VcomplexType@@@@QAEXV?$QMapIterator@VQString@@VcomplexType@@@@@Z 1000bfe0 f i instanceLookup.obj
 0001:0000b0a0       ?remove@?$QMap@VQString@@VdeviceTypeInfo@@@@QAEXABVQString@@@Z 1000c0a0 f i instanceLookup.obj
 0001:0000b0a0       ?erase@?$QMap@VQString@@VdeviceTypeInfo@@@@QAEXABVQString@@@Z 1000c0a0 f i instanceLookup.obj
 0001:0000b1b0       ?remove@?$QMap@VQString@@VdeviceTypeInfo@@@@QAEXV?$QMapIterator@VQString@@VdeviceTypeInfo@@@@@Z 1000c1b0 f i instanceLookup.obj
 0001:0000b1b0       ?erase@?$QMap@VQString@@VdeviceTypeInfo@@@@QAEXV?$QMapIterator@VQString@@VdeviceTypeInfo@@@@@Z 1000c1b0 f i instanceLookup.obj
 0001:0000b270       ?remove@?$QMap@VQString@@VparamInfo@@@@QAEXABVQString@@@Z 1000c270 f i instanceLookup.obj
 0001:0000b270       ?erase@?$QMap@VQString@@VparamInfo@@@@QAEXABVQString@@@Z 1000c270 f i instanceLookup.obj
 0001:0000b380       ?replace@?$QMap@VQString@@VcomplexInstance@@@@QAE?AV?$QMapIterator@VQString@@VcomplexInstance@@@@ABVQString@@ABVcomplexInstance@@@Z 1000c380 f i instanceLookup.obj
 0001:0000b420       ?replace@?$QMap@VQString@@VcomplexParam@@@@QAE?AV?$QMapIterator@VQString@@VcomplexParam@@@@ABVQString@@ABVcomplexParam@@@Z 1000c420 f i instanceLookup.obj
 0001:0000b4d0       ?replace@?$QMap@VQString@@VcomplexType@@@@QAE?AV?$QMapIterator@VQString@@VcomplexType@@@@ABVQString@@ABVcomplexType@@@Z 1000c4d0 f i instanceLookup.obj
 0001:0000b570       ?replace@?$QMap@VQString@@VdeviceTypeInfo@@@@QAE?AV?$QMapIterator@VQString@@VdeviceTypeInfo@@@@ABVQString@@ABVdeviceTypeInfo@@@Z 1000c570 f i instanceLookup.obj
 0001:0000b610       ?replace@?$QMap@VQString@@VinstanceInfo@@@@QAE?AV?$QMapIterator@VQString@@VinstanceInfo@@@@ABVQString@@ABVinstanceInfo@@@Z 1000c610 f i instanceLookup.obj
 0001:0000b6b0       ?replace@?$QMap@VQString@@VparamInfo@@@@QAE?AV?$QMapIterator@VQString@@VparamInfo@@@@ABVQString@@ABVparamInfo@@@Z 1000c6b0 f i instanceLookup.obj
 0001:0000b750       ?size@?$QMap@VQString@@VdeviceTypeInfo@@@@QBEIXZ 1000c750 f i instanceLookup.obj
 0001:0000b750       ?count@?$QMap@VQString@@VdeviceTypeInfo@@@@QBEIXZ 1000c750 f i instanceLookup.obj
 0001:0000b750       ?count@?$QMap@VQString@@VinstanceInfo@@@@QBEIXZ 1000c750 f i instanceLookup.obj
 0001:0000b750       ?count@?$QMap@VQString@@VcomplexParam@@@@QBEIXZ 1000c750 f i instanceLookup.obj
 0001:0000b750       ?count@?$QMap@VQString@@VcomplexInstance@@@@QBEIXZ 1000c750 f i instanceLookup.obj
 0001:0000b750       ?size@?$QMap@VQString@@VcomplexInstance@@@@QBEIXZ 1000c750 f i instanceLookup.obj
 0001:0000b750       ?size@?$QMap@VQString@@VinstanceInfo@@@@QBEIXZ 1000c750 f i instanceLookup.obj
 0001:0000b750       ?count@?$QMap@VQString@@VcomplexType@@@@QBEIXZ 1000c750 f i instanceLookup.obj
 0001:0000b750       ?size@?$QMap@VQString@@VparamInfo@@@@QBEIXZ 1000c750 f i instanceLookup.obj
 0001:0000b750       ?size@?$QMap@VQString@@VcomplexParam@@@@QBEIXZ 1000c750 f i instanceLookup.obj
 0001:0000b750       ?count@?$QMap@VQString@@VparamInfo@@@@QBEIXZ 1000c750 f i instanceLookup.obj
 0001:0000b750       ?size@?$QMap@VQString@@VcomplexType@@@@QBEIXZ 1000c750 f i instanceLookup.obj
 0001:0000b760       ?values@?$QMap@VQString@@VcomplexInstance@@@@QBE?AV?$QValueList@VcomplexInstance@@@@XZ 1000c760 f i instanceLookup.obj
 0001:0000b850       ?values@?$QMap@VQString@@VcomplexParam@@@@QBE?AV?$QValueList@VcomplexParam@@@@XZ 1000c850 f i instanceLookup.obj
 0001:0000b940       ?values@?$QMap@VQString@@VcomplexType@@@@QBE?AV?$QValueList@VcomplexType@@@@XZ 1000c940 f i instanceLookup.obj
 0001:0000ba30       ?values@?$QMap@VQString@@VdeviceTypeInfo@@@@QBE?AV?$QValueList@VdeviceTypeInfo@@@@XZ 1000ca30 f i instanceLookup.obj
 0001:0000bb20       ?values@?$QMap@VQString@@VinstanceInfo@@@@QBE?AV?$QValueList@VinstanceInfo@@@@XZ 1000cb20 f i instanceLookup.obj
 0001:0000bc10       ?values@?$QMap@VQString@@VparamInfo@@@@QBE?AV?$QValueList@VparamInfo@@@@XZ 1000cc10 f i instanceLookup.obj
 0001:0000bd00       _instanceLookup            1000cd00 f   instanceLookup.obj
 0001:0000bd90       _instanceLookupComposite   1000cd90 f   instanceLookup.obj
 0001:0000be10       _instanceLookupType        1000ce10 f   instanceLookup.obj
 0001:0000be80       ??0?$QValueList@VlaunchItem@@@@QAE@XZ 1000ce80 f i launchAccessor.obj
 0001:0000bf40       ??0?$QValueListNode@VlaunchItem@@@@QAE@XZ 1000cf40 f i launchAccessor.obj
 0001:0000bff0       ??0?$QValueListPrivate@VlaunchItem@@@@QAE@ABV0@@Z 1000cff0 f i launchAccessor.obj
 0001:0000c0c0       ??0launchAccessor@@QAE@ABV0@@Z 1000d0c0 f i launchAccessor.obj
 0001:0000c100       ??0launchAccessor@@QAE@XZ  1000d100 f   launchAccessor.obj
 0001:0000c210       ??0launchItem@@QAE@ABV0@@Z 1000d210 f i launchAccessor.obj
 0001:0000c290       ??0launchItem@@QAE@ABVQString@@00_NH@Z 1000d290 f i launchAccessor.obj
 0001:0000c330       ??1launchAccessor@@UAE@XZ  1000d330 f   launchAccessor.obj
 0001:0000c3a0       ??1panelsetItem@@QAE@XZ    1000d3a0 f i panelsetsAccessor.obj
 0001:0000c3a0       ??1launchItem@@QAE@XZ      1000d3a0 f i launchAccessor.obj
 0001:0000c410       ??4launchItem@@QAEAAV0@ABV0@@Z 1000d410 f i launchAccessor.obj
 0001:0000c450       ??_ElaunchAccessor@@UAEPAXI@Z 1000d450 f i launchAccessor.obj
 0001:0000c4b0       ??_FlaunchItem@@QAEXXZ     1000d4b0 f i launchAccessor.obj
 0001:0000c550       ??_G?$QValueListNode@VlaunchItem@@@@UAEPAXI@Z 1000d550 f i launchAccessor.obj
 0001:0000c550       ??_E?$QValueListNode@VlaunchItem@@@@UAEPAXI@Z 1000d550 f i launchAccessor.obj
 0001:0000c5e0       ??_G?$QValueListPrivate@VlaunchItem@@@@UAEPAXI@Z 1000d5e0 f i launchAccessor.obj
 0001:0000c5e0       ??_E?$QValueListPrivate@VlaunchItem@@@@UAEPAXI@Z 1000d5e0 f i launchAccessor.obj
 0001:0000c630       ?addWorkstation@launchAccessor@@QAE_NABVQString@@0_NABV?$QValueList@VlaunchItem@@@@@Z 1000d630 f   launchAccessor.obj
 0001:0000caf0       ?append@?$QValueList@VlaunchItem@@@@QAE?AV?$QValueListIterator@VlaunchItem@@@@ABVlaunchItem@@@Z 1000daf0 f i launchAccessor.obj
 0001:0000cbc0       ?application@launchAccessor@@QAE?AVQString@@ABV2@H@Z 1000dbc0 f   launchAccessor.obj
 0001:0000cc50       ?arguments@launchAccessor@@QAE?AVQString@@ABV2@H@Z 1000dc50 f   launchAccessor.obj
 0001:0000cce0       ?attribute@launchAccessor@@AAE?AVQString@@ABV2@0@Z 1000dce0 f   launchAccessor.obj
 0001:0000cf60       ?childAttribute@launchAccessor@@QAE?AVQString@@ABV2@H0@Z 1000df60 f   launchAccessor.obj
 0001:0000d1d0       ?csi@launchAccessor@@QAE?AVQString@@ABV2@@Z 1000e1d0 f   launchAccessor.obj
 0001:0000d250       ?delay@launchAccessor@@QAEHABVQString@@H@Z 1000e250 f   launchAccessor.obj
 0001:0000d2f0       ?deleteItem@launchAccessor@@QAE_NABVQString@@ABVlaunchItem@@H@Z 1000e2f0 f   launchAccessor.obj
 0001:0000d560       ?deleteWorkstation@launchAccessor@@QAE_NABVQString@@@Z 1000e560 f   launchAccessor.obj
 0001:0000da80       ?demoteItem@launchAccessor@@QAE_NABVQString@@H_N@Z 1000ea80 f   launchAccessor.obj
 0001:0000dd50       ?exists@launchAccessor@@QAE_NABVQString@@@Z 1000ed50 f   launchAccessor.obj
 0001:0000dd50       ?exists@usersAccessor@@QAE_NABVQString@@@Z 1000ed50 f   usersAccessor.obj
 0001:0000dd50       ?exists@applicationsAccessor@@QAE_NABVQString@@@Z 1000ed50 f   applicationsAccessor.obj
 0001:0000dd50       ?exists@workstationsAccessor@@QAE_NABVQString@@@Z 1000ed50 f   workstationsAccessor.obj
 0001:0000dd50       ?exists@workstationSettingsAccessor@@QAE_NABVQString@@@Z 1000ed50 f   workstationSettingsAccessor.obj
 0001:0000dd50       ?exists@panelsetsAccessor@@QAE_NABVQString@@@Z 1000ed50 f   panelsetsAccessor.obj
 0001:0000deb0       ?getLaunchItem@launchAccessor@@QAE_NABVQString@@HAAVlaunchItem@@@Z 1000eeb0 f   launchAccessor.obj
 0001:0000e380       ?insert@?$QValueListPrivate@VlaunchItem@@@@QAE?AV?$QValueListIterator@VlaunchItem@@@@V2@ABVlaunchItem@@@Z 1000f380 f i launchAccessor.obj
 0001:0000e450       ?insertItem@launchAccessor@@QAE_NABVQString@@ABVlaunchItem@@H@Z 1000f450 f   launchAccessor.obj
 0001:0000e7c0       ?isDirty@launchAccessor@@QAE_NXZ 1000f7c0 f   launchAccessor.obj
 0001:0000e830       ?item@launchAccessor@@QAE_NABVQString@@AAV2@AA_NAAV?$QValueList@VlaunchItem@@@@AAH@Z 1000f830 f   launchAccessor.obj
 0001:0000ece0       ?itemPos@launchAccessor@@QAEHABVQString@@ABVlaunchItem@@@Z 1000fce0 f   launchAccessor.obj
 0001:0000ed10       ?load@launchAccessor@@SAPAV1@XZ 1000fd10 f i launchAccessor.obj
 0001:0000ed90       ?metaObject@launchAccessor@@UBEPAVQMetaObject@@XZ 1000fd90 f i launchAccessor.obj
 0001:0000eda0       ?promoteItem@launchAccessor@@QAE_NABVQString@@H@Z 1000fda0 f   launchAccessor.obj
 0001:0000edc0       ?qObject@panelsetsAccessor@@QAEPAVQObject@@XZ 1000fdc0 f i panelsetsAccessor.obj
 0001:0000edc0       ?qObject@workstationSettingsAccessor@@QAEPAVQObject@@XZ 1000fdc0 f i workstationSettingsAccessor.obj
 0001:0000edc0       ?qObject@workstationsAccessor@@QAEPAVQObject@@XZ 1000fdc0 f i workstationsAccessor.obj
 0001:0000edc0       ?qObject@applicationsAccessor@@QAEPAVQObject@@XZ 1000fdc0 f i applicationsAccessor.obj
 0001:0000edc0       ?qObject@usersAccessor@@QAEPAVQObject@@XZ 1000fdc0 f i usersAccessor.obj
 0001:0000edc0       ?qObject@launchAccessor@@QAEPAVQObject@@XZ 1000fdc0 f i launchAccessor.obj
 0001:0000edd0       ?renamelaunch@launchAccessor@@QAE_NABVQString@@0@Z 1000fdd0 f   launchAccessor.obj
 0001:0000efa0       ?roc@launchAccessor@@QAE_NABVQString@@@Z 1000ffa0 f   launchAccessor.obj
 0001:0000f040       ?roc@launchAccessor@@QAE_NABVQString@@H@Z 10010040 f   launchAccessor.obj
 0001:0000f0e0       ?setApplication@launchAccessor@@QAE_NABVQString@@H0@Z 100100e0 f   launchAccessor.obj
 0001:0000f180       ?setArguments@launchAccessor@@QAE_NABVQString@@H0@Z 10010180 f   launchAccessor.obj
 0001:0000f220       ?setAttribute@launchAccessor@@AAE_NABVQString@@00@Z 10010220 f   launchAccessor.obj
 0001:0000f3a0       ?setCSI@launchAccessor@@QAE_NABVQString@@0@Z 100103a0 f   launchAccessor.obj
 0001:0000f440       ?setChildAttribute@launchAccessor@@QAE_NABVQString@@H00@Z 10010440 f   launchAccessor.obj
 0001:0000f660       ?setCurrent@panelsetsAccessor@@QAE_NABVQString@@@Z 10010660 f   panelsetsAccessor.obj
 0001:0000f660       ?setCurrent@applicationsAccessor@@QAE_NABVQString@@@Z 10010660 f   applicationsAccessor.obj
 0001:0000f660       ?setCurrent@workstationsAccessor@@QAE_NABVQString@@@Z 10010660 f   workstationsAccessor.obj
 0001:0000f660       ?setCurrent@workstationSettingsAccessor@@QAE_NABVQString@@@Z 10010660 f   workstationSettingsAccessor.obj
 0001:0000f660       ?setCurrent@launchAccessor@@QAE_NABVQString@@@Z 10010660 f   launchAccessor.obj
 0001:0000f7b0       ?setDelay@launchAccessor@@QAE_NABVQString@@HH@Z 100107b0 f   launchAccessor.obj
 0001:0000f8a0       ?setDirty@launchAccessor@@AAEXXZ 100108a0 f   launchAccessor.obj
 0001:0000f960       ?setROC@launchAccessor@@QAE_NABVQString@@_N@Z 10010960 f   launchAccessor.obj
 0001:0000fa30       ?setRoc@launchAccessor@@QAE_NABVQString@@H_N@Z 10010a30 f   launchAccessor.obj
 0001:0000fb00       ?setVersion@launchAccessor@@QAEXN@Z 10010b00 f   launchAccessor.obj
 0001:0000fb00       ?setVersion@workstationSettingsAccessor@@QAEXN@Z 10010b00 f   workstationSettingsAccessor.obj
 0001:0000fb00       ?setVersion@workstationsAccessor@@QAEXN@Z 10010b00 f   workstationsAccessor.obj
 0001:0000fb00       ?setVersion@panelsetsAccessor@@QAEXN@Z 10010b00 f   panelsetsAccessor.obj
 0001:0000fb00       ?setVersion@usersAccessor@@QAEXN@Z 10010b00 f   usersAccessor.obj
 0001:0000fb00       ?setVersion@applicationsAccessor@@QAEXN@Z 10010b00 f   applicationsAccessor.obj
 0001:0000fbe0       ?setWorkingdir@launchAccessor@@QAE_NABVQString@@H0@Z 10010be0 f   launchAccessor.obj
 0001:0000fc80       ?unload@launchAccessor@@SA_NXZ 10010c80 f i launchAccessor.obj
 0001:0000fcc0       ?workingdir@launchAccessor@@QAE?AVQString@@ABV2@H@Z 10010cc0 f   launchAccessor.obj
 0001:0000fd50       ??0?$QValueList@VpanelsetItem@@@@QAE@XZ 10010d50 f i panelsetsAccessor.obj
 0001:0000fe10       ??0?$QValueListNode@VpanelsetItem@@@@QAE@XZ 10010e10 f i panelsetsAccessor.obj
 0001:0000feb0       ??0?$QValueListPrivate@VpanelsetItem@@@@QAE@ABV0@@Z 10010eb0 f i panelsetsAccessor.obj
 0001:0000ff80       ??0panelsetItem@@QAE@ABV0@@Z 10010f80 f i panelsetsAccessor.obj
 0001:0000fff0       ??0panelsetItem@@QAE@ABVQString@@00@Z 10010ff0 f i panelsetsAccessor.obj
 0001:00010080       ??0panelsetsAccessor@@QAE@ABV0@@Z 10011080 f i panelsetsAccessor.obj
 0001:000100c0       ??0panelsetsAccessor@@QAE@XZ 100110c0 f   panelsetsAccessor.obj
 0001:000101d0       ??1panelsetsAccessor@@UAE@XZ 100111d0 f   panelsetsAccessor.obj
 0001:00010240       ??4panelsetItem@@QAEAAV0@ABV0@@Z 10011240 f i panelsetsAccessor.obj
 0001:00010270       ??_EpanelsetsAccessor@@UAEPAXI@Z 10011270 f i panelsetsAccessor.obj
 0001:000102d0       ??_FpanelsetItem@@QAEXXZ   100112d0 f i panelsetsAccessor.obj
 0001:00010360       ??_E?$QValueListNode@VpanelsetItem@@@@UAEPAXI@Z 10011360 f i panelsetsAccessor.obj
 0001:00010360       ??_G?$QValueListNode@VpanelsetItem@@@@UAEPAXI@Z 10011360 f i panelsetsAccessor.obj
 0001:000103f0       ??_G?$QValueListPrivate@VpanelsetItem@@@@UAEPAXI@Z 100113f0 f i panelsetsAccessor.obj
 0001:000103f0       ??_E?$QValueListPrivate@VpanelsetItem@@@@UAEPAXI@Z 100113f0 f i panelsetsAccessor.obj
 0001:00010440       ?addPanelset@panelsetsAccessor@@QAE_NABVQString@@0ABV?$QValueList@VpanelsetItem@@@@@Z 10011440 f   panelsetsAccessor.obj
 0001:000107c0       ?append@?$QValueList@VpanelsetItem@@@@QAE?AV?$QValueListIterator@VpanelsetItem@@@@ABVpanelsetItem@@@Z 100117c0 f i panelsetsAccessor.obj
 0001:00010890       ?attribute@panelsetsAccessor@@AAE?AVQString@@ABV2@0@Z 10011890 f   panelsetsAccessor.obj
 0001:00010890       ?attribute@workstationsAccessor@@AAE?AVQString@@ABV2@0@Z 10011890 f   workstationsAccessor.obj
 0001:00010890       ?attribute@applicationsAccessor@@AAE?AVQString@@ABV2@0@Z 10011890 f   applicationsAccessor.obj
 0001:00010890       ?attribute@workstationSettingsAccessor@@AAE?AVQString@@ABV2@0@Z 10011890 f   workstationSettingsAccessor.obj
 0001:00010890       ?attribute@usersAccessor@@AAE?AVQString@@ABV2@0@Z 10011890 f   usersAccessor.obj
 0001:00010ae0       ?deleteItem@panelsetsAccessor@@QAE_NABVQString@@ABVpanelsetItem@@H@Z 10011ae0 f   panelsetsAccessor.obj
 0001:00010ec0       ?deletePanelset@panelsetsAccessor@@QAE_NABVQString@@@Z 10011ec0 f   panelsetsAccessor.obj
 0001:000112b0       ?demoteItem@panelsetsAccessor@@QAE_NABVQString@@ABVpanelsetItem@@H_N@Z 100122b0 f   panelsetsAccessor.obj
 0001:00011700       ?insert@?$QValueListPrivate@VpanelsetItem@@@@QAE?AV?$QValueListIterator@VpanelsetItem@@@@V2@ABVpanelsetItem@@@Z 10012700 f i panelsetsAccessor.obj
 0001:000117c0       ?insertItem@panelsetsAccessor@@QAE_NABVQString@@ABVpanelsetItem@@H@Z 100127c0 f   panelsetsAccessor.obj
 0001:00011b00       ?isDirty@panelsetsAccessor@@QAE_NXZ 10012b00 f   panelsetsAccessor.obj
 0001:00011b70       ?item@panelsetsAccessor@@QAE_NABVQString@@AAV2@AAV?$QValueList@VpanelsetItem@@@@AAH@Z 10012b70 f   panelsetsAccessor.obj
 0001:00011f10       ?itemPos@panelsetsAccessor@@QAEHABVQString@@ABVpanelsetItem@@@Z 10012f10 f   panelsetsAccessor.obj
 0001:00012260       ?load@panelsetsAccessor@@SAPAV1@XZ 10013260 f i panelsetsAccessor.obj
 0001:000122e0       ?lock@workstationSettingsAccessor@@QAEXXZ 100132e0 f   workstationSettingsAccessor.obj
 0001:000122e0       ?lock@usersAccessor@@QAEXXZ 100132e0 f   usersAccessor.obj
 0001:000122e0       ?lock@panelsetsAccessor@@QAEXXZ 100132e0 f   panelsetsAccessor.obj
 0001:000122e0       ?lock@applicationsAccessor@@QAEXXZ 100132e0 f   applicationsAccessor.obj
 0001:000122e0       ?lock@workstationsAccessor@@QAEXXZ 100132e0 f   workstationsAccessor.obj
 0001:000122e0       ?lock@launchAccessor@@QAEXXZ 100132e0 f   launchAccessor.obj
 0001:000122f0       ?metaObject@panelsetsAccessor@@UBEPAVQMetaObject@@XZ 100132f0 f i panelsetsAccessor.obj
 0001:00012300       ?nextItem@panelsetsAccessor@@QAE_NAAVQString@@0AAV?$QValueList@VpanelsetItem@@@@@Z 10013300 f   panelsetsAccessor.obj
 0001:00012660       ?promoteItem@panelsetsAccessor@@QAE_NABVQString@@ABVpanelsetItem@@H@Z 10013660 f   panelsetsAccessor.obj
 0001:00012680       ?renamePanelset@panelsetsAccessor@@QAE_NABVQString@@0@Z 10013680 f   panelsetsAccessor.obj
 0001:00012830       ?setAttribute@panelsetsAccessor@@AAE_NABVQString@@00@Z 10013830 f   panelsetsAccessor.obj
 0001:00012830       ?setAttribute@workstationSettingsAccessor@@AAE_NABVQString@@00@Z 10013830 f   workstationSettingsAccessor.obj
 0001:000129a0       ?setDirty@panelsetsAccessor@@AAEXXZ 100139a0 f   panelsetsAccessor.obj
 0001:00012a60       ?unload@panelsetsAccessor@@SA_NXZ 10013a60 f i panelsetsAccessor.obj
 0001:00012aa0       ??0usersAccessor@@QAE@ABV0@@Z 10013aa0 f i usersAccessor.obj
 0001:00012ae0       ??0usersAccessor@@QAE@XZ   10013ae0 f   usersAccessor.obj
 0001:00012bf0       ??1usersAccessor@@UAE@XZ   10013bf0 f   usersAccessor.obj
 0001:00012c60       ??_EusersAccessor@@UAEPAXI@Z 10013c60 f i usersAccessor.obj
 0001:00012cc0       ?engset@usersAccessor@@QAE?AVQString@@ABV2@@Z 10013cc0 f   usersAccessor.obj
 0001:00012d40       ?isDirty@usersAccessor@@QAE_NXZ 10013d40 f   usersAccessor.obj
 0001:00012db0       ?load@usersAccessor@@SAPAV1@XZ 10013db0 f i usersAccessor.obj
 0001:00012e30       ?metaObject@usersAccessor@@UBEPAVQMetaObject@@XZ 10013e30 f i usersAccessor.obj
 0001:00012e40       ?nextItem@usersAccessor@@QAE_NAAVQString@@00@Z 10013e40 f   usersAccessor.obj
 0001:00012ff0       ?panelset@usersAccessor@@QAE?AVQString@@ABV2@@Z 10013ff0 f   usersAccessor.obj
 0001:00013070       ?setAttribute@usersAccessor@@AAE_NABVQString@@00@Z 10014070 f   usersAccessor.obj
 0001:000131f0       ?setDirty@usersAccessor@@AAEXXZ 100141f0 f   usersAccessor.obj
 0001:000132b0       ?setEngset@usersAccessor@@QAE_NABVQString@@0@Z 100142b0 f   usersAccessor.obj
 0001:00013350       ?setPanelset@usersAccessor@@QAE_NABVQString@@0@Z 10014350 f   usersAccessor.obj
 0001:000133f0       ?unload@usersAccessor@@SA_NXZ 100143f0 f i usersAccessor.obj
 0001:00013430       ??0workstationsAccessor@@QAE@ABV0@@Z 10014430 f i workstationsAccessor.obj
 0001:00013470       ??0workstationsAccessor@@QAE@XZ 10014470 f   workstationsAccessor.obj
 0001:00013580       ??1workstationsAccessor@@UAE@XZ 10014580 f   workstationsAccessor.obj
 0001:000135f0       ??_EworkstationsAccessor@@UAEPAXI@Z 100145f0 f i workstationsAccessor.obj
 0001:00013650       ?addWorkstation@workstationsAccessor@@QAE_NABVQString@@00@Z 10014650 f   workstationsAccessor.obj
 0001:000137d0       ?deleteWorkstation@workstationsAccessor@@QAE_NABVQString@@@Z 100147d0 f   workstationsAccessor.obj
 0001:00013960       ?isDirty@workstationsAccessor@@QAE_NXZ 10014960 f   workstationsAccessor.obj
 0001:000139d0       ?item@workstationsAccessor@@QAE_NABVQString@@AAV2@1@Z 100149d0 f   workstationsAccessor.obj
 0001:00013bd0       ?load@workstationsAccessor@@SAPAV1@XZ 10014bd0 f i workstationsAccessor.obj
 0001:00013c50       ?metaObject@workstationsAccessor@@UBEPAVQMetaObject@@XZ 10014c50 f i workstationsAccessor.obj
 0001:00013c60       ?name@workstationsAccessor@@QAE?AVQString@@ABV2@@Z 10014c60 f   workstationsAccessor.obj
 0001:00013ce0       ?nextItem@workstationsAccessor@@QAE_NAAVQString@@00@Z 10014ce0 f   workstationsAccessor.obj
 0001:00013e90       ?rename@workstationsAccessor@@QAE_NABVQString@@V2@@Z 10014e90 f   workstationsAccessor.obj
 0001:00013e90       ?rename@applicationsAccessor@@QAE_NABVQString@@V2@@Z 10014e90 f   applicationsAccessor.obj
 0001:00013f00       ?setAttribute@workstationsAccessor@@AAE_NABVQString@@00@Z 10014f00 f   workstationsAccessor.obj
 0001:00014080       ?setDirty@workstationsAccessor@@AAEXXZ 10015080 f   workstationsAccessor.obj
 0001:00014140       ?setName@workstationsAccessor@@QAE_NABVQString@@0@Z 10015140 f   workstationsAccessor.obj
 0001:000141e0       ?setUser@workstationsAccessor@@QAE_NABVQString@@0@Z 100151e0 f   workstationsAccessor.obj
 0001:00014280       ?unload@workstationsAccessor@@SA_NXZ 10015280 f i workstationsAccessor.obj
 0001:000142c0       ?user@workstationsAccessor@@QAE?AVQString@@ABV2@@Z 100152c0 f   workstationsAccessor.obj
 0001:00014340       ?version@applicationsAccessor@@QAENXZ 10015340 f   applicationsAccessor.obj
 0001:00014340       ?version@workstationsAccessor@@QAENXZ 10015340 f   workstationsAccessor.obj
 0001:00014340       ?version@launchAccessor@@QAENXZ 10015340 f   launchAccessor.obj
 0001:00014340       ?version@workstationSettingsAccessor@@QAENXZ 10015340 f   workstationSettingsAccessor.obj
 0001:00014340       ?version@panelsetsAccessor@@QAENXZ 10015340 f   panelsetsAccessor.obj
 0001:00014340       ?version@usersAccessor@@QAENXZ 10015340 f   usersAccessor.obj
 0001:00014410       ??0?$QValueListPrivate@VworkstationSettingsItem@@@@QAE@ABV0@@Z 10015410 f i workstationSettingsAccessor.obj
 0001:00014510       ??0?$QValueListPrivate@VworkstationSettingsItem@@@@QAE@XZ 10015510 f i workstationSettingsAccessor.obj
 0001:000145e0       ??0workstationSettingsAccessor@@QAE@ABV0@@Z 100155e0 f i workstationSettingsAccessor.obj
 0001:00014620       ??0workstationSettingsAccessor@@QAE@XZ 10015620 f   workstationSettingsAccessor.obj
 0001:00014730       ??0workstationSettingsItem@@QAE@ABV0@@Z 10015730 f i workstationSettingsAccessor.obj
 0001:00014790       ??0workstationSettingsItem@@QAE@ABVQString@@0@Z 10015790 f i workstationSettingsAccessor.obj
 0001:00014800       ??1workstationSettingsAccessor@@UAE@XZ 10015800 f   workstationSettingsAccessor.obj
 0001:00014870       ??1workstationSettingsItem@@QAE@XZ 10015870 f i workstationSettingsAccessor.obj
 0001:000148d0       ??4workstationSettingsItem@@QAEAAV0@ABV0@@Z 100158d0 f i workstationSettingsAccessor.obj
 0001:00014900       ??_EworkstationSettingsAccessor@@UAEPAXI@Z 10015900 f i workstationSettingsAccessor.obj
 0001:00014960       ??_FworkstationSettingsItem@@QAEXXZ 10015960 f i workstationSettingsAccessor.obj
 0001:000149d0       ??_E?$QValueListNode@VworkstationSettingsItem@@@@UAEPAXI@Z 100159d0 f i workstationSettingsAccessor.obj
 0001:000149d0       ??_G?$QValueListNode@VworkstationSettingsItem@@@@UAEPAXI@Z 100159d0 f i workstationSettingsAccessor.obj
 0001:00014a50       ??_G?$QValueListPrivate@VworkstationSettingsItem@@@@UAEPAXI@Z 10015a50 f i workstationSettingsAccessor.obj
 0001:00014a50       ??_E?$QValueListPrivate@VworkstationSettingsItem@@@@UAEPAXI@Z 10015a50 f i workstationSettingsAccessor.obj
 0001:00014aa0       ?addWorkstation@workstationSettingsAccessor@@QAE_NABVQString@@ABV?$QValueList@VworkstationSettingsItem@@@@@Z 10015aa0 f   workstationSettingsAccessor.obj
 0001:00014e00       ?append@?$QValueList@VworkstationSettingsItem@@@@QAE?AV?$QValueListIterator@VworkstationSettingsItem@@@@ABVworkstationSettingsItem@@@Z 10015e00 f i workstationSettingsAccessor.obj
 0001:00014ed0       ?deleteItem@workstationSettingsAccessor@@QAE_NABVQString@@ABVworkstationSettingsItem@@@Z 10015ed0 f   workstationSettingsAccessor.obj
 0001:00015160       ?deleteWorkstation@workstationSettingsAccessor@@QAE_NABVQString@@@Z 10016160 f   workstationSettingsAccessor.obj
 0001:000154b0       ?exists@workstationSettingsAccessor@@QAE_NABVQString@@0@Z 100164b0 f   workstationSettingsAccessor.obj
 0001:00015720       ?insert@?$QValueListPrivate@VworkstationSettingsItem@@@@QAE?AV?$QValueListIterator@VworkstationSettingsItem@@@@V2@ABVworkstationSettingsItem@@@Z 10016720 f i workstationSettingsAccessor.obj
 0001:000157d0       ?insertItem@workstationSettingsAccessor@@QAE_NABVQString@@ABVworkstationSettingsItem@@@Z 100167d0 f   workstationSettingsAccessor.obj
 0001:00015a10       ?isDirty@workstationSettingsAccessor@@QAE_NXZ 10016a10 f   workstationSettingsAccessor.obj
 0001:00015a80       ?item@workstationSettingsAccessor@@QAE_NABVQString@@AAV?$QValueList@VworkstationSettingsItem@@@@@Z 10016a80 f   workstationSettingsAccessor.obj
 0001:00015d60       ?load@workstationSettingsAccessor@@SAPAV1@XZ 10016d60 f i workstationSettingsAccessor.obj
 0001:00015de0       ?metaObject@workstationSettingsAccessor@@UBEPAVQMetaObject@@XZ 10016de0 f i workstationSettingsAccessor.obj
 0001:00015df0       ?nextItem@workstationSettingsAccessor@@QAE_NAAVQString@@AAV?$QValueList@VworkstationSettingsItem@@@@@Z 10016df0 f   workstationSettingsAccessor.obj
 0001:00016080       ?renameWorkstation@workstationSettingsAccessor@@QAE_NABVQString@@0@Z 10017080 f   workstationSettingsAccessor.obj
 0001:00016230       ?setDirty@workstationSettingsAccessor@@AAEXXZ 10017230 f   workstationSettingsAccessor.obj
 0001:000162f0       ?setFirst@launchAccessor@@QAE_NXZ 100172f0 f   launchAccessor.obj
 0001:000162f0       ?setFirst@applicationsAccessor@@QAE_NXZ 100172f0 f   applicationsAccessor.obj
 0001:000162f0       ?setFirst@usersAccessor@@QAE_NXZ 100172f0 f   usersAccessor.obj
 0001:000162f0       ?setFirst@panelsetsAccessor@@QAE_NXZ 100172f0 f   panelsetsAccessor.obj
 0001:000162f0       ?setFirst@workstationsAccessor@@QAE_NXZ 100172f0 f   workstationsAccessor.obj
 0001:000162f0       ?setFirst@workstationSettingsAccessor@@QAE_NXZ 100172f0 f   workstationSettingsAccessor.obj
 0001:00016380       ?setUndo@panelsetsAccessor@@QAEX_N@Z 10017380 f   panelsetsAccessor.obj
 0001:00016380       ?setUndo@workstationsAccessor@@QAEX_N@Z 10017380 f   workstationsAccessor.obj
 0001:00016380       ?setUndo@applicationsAccessor@@QAEX_N@Z 10017380 f   applicationsAccessor.obj
 0001:00016380       ?setUndo@launchAccessor@@QAEX_N@Z 10017380 f   launchAccessor.obj
 0001:00016380       ?setUndo@workstationSettingsAccessor@@QAEX_N@Z 10017380 f   workstationSettingsAccessor.obj
 0001:00016380       ?setUndo@usersAccessor@@QAEX_N@Z 10017380 f   usersAccessor.obj
 0001:00016390       ?setValue@workstationSettingsAccessor@@QAE_NABVQString@@00@Z 10017390 f   workstationSettingsAccessor.obj
 0001:00016640       ?unload@workstationSettingsAccessor@@SA_NXZ 10017640 f i workstationSettingsAccessor.obj
 0001:00016680       ?unlock@launchAccessor@@QAEXXZ 10017680 f   launchAccessor.obj
 0001:00016680       ?unlock@workstationsAccessor@@QAEXXZ 10017680 f   workstationsAccessor.obj
 0001:00016680       ?unlock@applicationsAccessor@@QAEXXZ 10017680 f   applicationsAccessor.obj
 0001:00016680       ?unlock@panelsetsAccessor@@QAEXXZ 10017680 f   panelsetsAccessor.obj
 0001:00016680       ?unlock@workstationSettingsAccessor@@QAEXXZ 10017680 f   workstationSettingsAccessor.obj
 0001:00016680       ?unlock@usersAccessor@@QAEXXZ 10017680 f   usersAccessor.obj
 0001:00016690       ?value@workstationSettingsAccessor@@QAE?AVQString@@ABV2@0@Z 10017690 f   workstationSettingsAccessor.obj
 0001:00016970       ?captionChanged@applicationsAccessor@@IAEXABVQString@@0@Z 10017970 f   moc_applicationsAccessor.obj
 0001:00016a50       ?className@applicationsAccessor@@UBEPBDXZ 10017a50 f   moc_applicationsAccessor.obj
 0001:00016a60       ?dirty@applicationsAccessor@@IAEX_N@Z 10017a60 f   moc_applicationsAccessor.obj
 0001:00016a90       ?iconChanged@applicationsAccessor@@IAEXABVQString@@0@Z 10017a90 f   moc_applicationsAccessor.obj
 0001:00016b80       ?itemAdded@applicationsAccessor@@IAEXABVQString@@0000@Z 10017b80 f   moc_applicationsAccessor.obj
 0001:00016cd0       ?itemDeleted@applicationsAccessor@@IAEXABVQString@@@Z 10017cd0 f   moc_applicationsAccessor.obj
 0001:00016d40       ?itemRenamed@applicationsAccessor@@IAEXABVQString@@0@Z 10017d40 f   moc_applicationsAccessor.obj
 0001:00016e30       ?qt_cast@applicationsAccessor@@UAEPAXPBD@Z 10017e30 f   moc_applicationsAccessor.obj
 0001:00016e90       ?qt_emit@applicationsAccessor@@UAE_NHPAUQUObject@@@Z 10017e90 f   moc_applicationsAccessor.obj
 0001:00016fb0       ?staticMetaObject@applicationsAccessor@@SAPAVQMetaObject@@XZ 10017fb0 f   moc_applicationsAccessor.obj
 0001:000172b0       ?titleChanged@applicationsAccessor@@IAEXABVQString@@0@Z 100182b0 f   moc_applicationsAccessor.obj
 0001:000173a0       ?tr@applicationsAccessor@@SA?AVQString@@PBD0@Z 100183a0 f   moc_applicationsAccessor.obj
 0001:000173f0       ?trUtf8@applicationsAccessor@@SA?AVQString@@PBD0@Z 100183f0 f   moc_applicationsAccessor.obj
 0001:00017440       ?typeChanged@applicationsAccessor@@IAEXABVQString@@0@Z 10018440 f   moc_applicationsAccessor.obj
 0001:00017530       ?applicationChanged@launchAccessor@@IAEXABVQString@@H0@Z 10018530 f   moc_launchAccessor.obj
 0001:00017630       ?argumentsChanged@launchAccessor@@IAEXABVQString@@H0@Z 10018630 f   moc_launchAccessor.obj
 0001:00017730       ?className@launchAccessor@@UBEPBDXZ 10018730 f   moc_launchAccessor.obj
 0001:00017740       ?csiChanged@launchAccessor@@IAEXABVQString@@0@Z 10018740 f   moc_launchAccessor.obj
 0001:00017830       ?delayChanged@launchAccessor@@IAEXABVQString@@HH@Z 10018830 f   moc_launchAccessor.obj
 0001:00017930       ?dirty@launchAccessor@@IAEX_N@Z 10018930 f   moc_launchAccessor.obj
 0001:00017960       ?itemAdded@launchAccessor@@IAEXABVQString@@ABVlaunchItem@@H@Z 10018960 f   moc_launchAccessor.obj
 0001:00017a60       ?itemDeleted@launchAccessor@@IAEXABVQString@@ABVlaunchItem@@H@Z 10018a60 f   moc_launchAccessor.obj
 0001:00017b60       ?itemDemoted@launchAccessor@@IAEXABVQString@@H@Z 10018b60 f   moc_launchAccessor.obj
 0001:00017c50       ?itemPromoted@launchAccessor@@IAEXABVQString@@H@Z 10018c50 f   moc_launchAccessor.obj
 0001:00017d40       ?launchAdded@launchAccessor@@IAEXABVQString@@0_NABV?$QValueList@VlaunchItem@@@@@Z 10018d40 f   moc_launchAccessor.obj
 0001:00017e70       ?launchDeleted@launchAccessor@@IAEXABVQString@@0_NABV?$QValueList@VlaunchItem@@@@@Z 10018e70 f   moc_launchAccessor.obj
 0001:00017fb0       ?launchRenamed@launchAccessor@@IAEXABVQString@@0@Z 10018fb0 f   moc_launchAccessor.obj
 0001:000180a0       ?qt_cast@launchAccessor@@UAEPAXPBD@Z 100190a0 f   moc_launchAccessor.obj
 0001:00018100       ?qt_emit@launchAccessor@@UAE_NHPAUQUObject@@@Z 10019100 f   moc_launchAccessor.obj
 0001:000182e0       ?qt_property@applicationsAccessor@@UAE_NHHPAVQVariant@@@Z 100192e0 f   moc_applicationsAccessor.obj
 0001:000182e0       ?qt_property@launchAccessor@@UAE_NHHPAVQVariant@@@Z 100192e0 f   moc_launchAccessor.obj
 0001:000182e0       ?qt_property@workstationsAccessor@@UAE_NHHPAVQVariant@@@Z 100192e0 f   moc_workstationsAccessor.obj
 0001:000182e0       ?qt_property@usersAccessor@@UAE_NHHPAVQVariant@@@Z 100192e0 f   moc_usersAccessor.obj
 0001:000182e0       ?qt_property@workstationSettingsAccessor@@UAE_NHHPAVQVariant@@@Z 100192e0 f   moc_workstationSettingsAccessor.obj
 0001:000182e0       ?qt_property@panelsetsAccessor@@UAE_NHHPAVQVariant@@@Z 100192e0 f   moc_panelsetsAccessor.obj
 0001:000182f0       ?rocChanged@launchAccessor@@IAEXABVQString@@_N@Z 100192f0 f   moc_launchAccessor.obj
 0001:000183e0       ?staticMetaObject@launchAccessor@@SAPAVQMetaObject@@XZ 100193e0 f   moc_launchAccessor.obj
 0001:000189f0       ?tr@launchAccessor@@SA?AVQString@@PBD0@Z 100199f0 f   moc_launchAccessor.obj
 0001:00018a40       ?trUtf8@launchAccessor@@SA?AVQString@@PBD0@Z 10019a40 f   moc_launchAccessor.obj
 0001:00018a90       ?workingdirChanged@launchAccessor@@IAEXABVQString@@H0@Z 10019a90 f   moc_launchAccessor.obj
 0001:00018b90       ?className@panelsetsAccessor@@UBEPBDXZ 10019b90 f   moc_panelsetsAccessor.obj
 0001:00018ba0       ?dirty@panelsetsAccessor@@IAEX_N@Z 10019ba0 f   moc_panelsetsAccessor.obj
 0001:00018bd0       ?itemAdded@panelsetsAccessor@@IAEXABVQString@@ABVpanelsetItem@@H@Z 10019bd0 f   moc_panelsetsAccessor.obj
 0001:00018cd0       ?itemDeleted@panelsetsAccessor@@IAEXABVQString@@ABVpanelsetItem@@H@Z 10019cd0 f   moc_panelsetsAccessor.obj
 0001:00018dd0       ?itemDemoted@panelsetsAccessor@@IAEXABVQString@@ABVpanelsetItem@@H@Z 10019dd0 f   moc_panelsetsAccessor.obj
 0001:00018ed0       ?itemPromoted@panelsetsAccessor@@IAEXABVQString@@ABVpanelsetItem@@H@Z 10019ed0 f   moc_panelsetsAccessor.obj
 0001:00018fd0       ?panelsetAdded@panelsetsAccessor@@IAEXABVQString@@0ABV?$QValueList@VpanelsetItem@@@@@Z 10019fd0 f   moc_panelsetsAccessor.obj
 0001:000190d0       ?panelsetDeleted@panelsetsAccessor@@IAEXABVQString@@0ABV?$QValueList@VpanelsetItem@@@@@Z 1001a0d0 f   moc_panelsetsAccessor.obj
 0001:000191d0       ?panelsetRenamed@panelsetsAccessor@@IAEXABVQString@@0@Z 1001a1d0 f   moc_panelsetsAccessor.obj
 0001:000192c0       ?qt_cast@panelsetsAccessor@@UAEPAXPBD@Z 1001a2c0 f   moc_panelsetsAccessor.obj
 0001:00019320       ?qt_emit@panelsetsAccessor@@UAE_NHPAUQUObject@@@Z 1001a320 f   moc_panelsetsAccessor.obj
 0001:00019440       ?staticMetaObject@panelsetsAccessor@@SAPAVQMetaObject@@XZ 1001a440 f   moc_panelsetsAccessor.obj
 0001:000197d0       ?tr@panelsetsAccessor@@SA?AVQString@@PBD0@Z 1001a7d0 f   moc_panelsetsAccessor.obj
 0001:00019820       ?trUtf8@panelsetsAccessor@@SA?AVQString@@PBD0@Z 1001a820 f   moc_panelsetsAccessor.obj
 0001:00019870       ?className@usersAccessor@@UBEPBDXZ 1001a870 f   moc_usersAccessor.obj
 0001:00019880       ?dirty@usersAccessor@@IAEX_N@Z 1001a880 f   moc_usersAccessor.obj
 0001:000198b0       ?engsetChanged@usersAccessor@@IAEXABVQString@@0@Z 1001a8b0 f   moc_usersAccessor.obj
 0001:000199a0       ?itemAdded@usersAccessor@@IAEXABVQString@@00@Z 1001a9a0 f   moc_usersAccessor.obj
 0001:00019aa0       ?itemDeleted@usersAccessor@@IAEXABVQString@@@Z 1001aaa0 f   moc_usersAccessor.obj
 0001:00019b10       ?itemRenamed@usersAccessor@@IAEXABVQString@@0@Z 1001ab10 f   moc_usersAccessor.obj
 0001:00019c00       ?panelsetChanged@usersAccessor@@IAEXABVQString@@0@Z 1001ac00 f   moc_usersAccessor.obj
 0001:00019ce0       ?qt_cast@usersAccessor@@UAEPAXPBD@Z 1001ace0 f   moc_usersAccessor.obj
 0001:00019d40       ?qt_emit@usersAccessor@@UAE_NHPAUQUObject@@@Z 1001ad40 f   moc_usersAccessor.obj
 0001:00019e20       ?qt_invoke@workstationSettingsAccessor@@UAE_NHPAUQUObject@@@Z 1001ae20 f   moc_workstationSettingsAccessor.obj
 0001:00019e20       ?qt_invoke@panelsetsAccessor@@UAE_NHPAUQUObject@@@Z 1001ae20 f   moc_panelsetsAccessor.obj
 0001:00019e20       ?qt_invoke@applicationsAccessor@@UAE_NHPAUQUObject@@@Z 1001ae20 f   moc_applicationsAccessor.obj
 0001:00019e20       ?qt_invoke@usersAccessor@@UAE_NHPAUQUObject@@@Z 1001ae20 f   moc_usersAccessor.obj
 0001:00019e20       ?qt_invoke@workstationsAccessor@@UAE_NHPAUQUObject@@@Z 1001ae20 f   moc_workstationsAccessor.obj
 0001:00019e20       ?qt_invoke@launchAccessor@@UAE_NHPAUQUObject@@@Z 1001ae20 f   moc_launchAccessor.obj
 0001:00019e30       ?staticMetaObject@usersAccessor@@SAPAVQMetaObject@@XZ 1001ae30 f   moc_usersAccessor.obj
 0001:0001a040       ?tr@usersAccessor@@SA?AVQString@@PBD0@Z 1001b040 f   moc_usersAccessor.obj
 0001:0001a090       ?trUtf8@usersAccessor@@SA?AVQString@@PBD0@Z 1001b090 f   moc_usersAccessor.obj
 0001:0001a0e0       ?className@workstationsAccessor@@UBEPBDXZ 1001b0e0 f   moc_workstationsAccessor.obj
 0001:0001a0f0       ?dirty@workstationsAccessor@@IAEX_N@Z 1001b0f0 f   moc_workstationsAccessor.obj
 0001:0001a120       ?itemAdded@workstationsAccessor@@IAEXABVQString@@00@Z 1001b120 f   moc_workstationsAccessor.obj
 0001:0001a220       ?itemDeleted@workstationsAccessor@@IAEXABVQString@@@Z 1001b220 f   moc_workstationsAccessor.obj
 0001:0001a290       ?itemRenamed@workstationsAccessor@@IAEXABVQString@@0@Z 1001b290 f   moc_workstationsAccessor.obj
 0001:0001a380       ?nameChanged@workstationsAccessor@@IAEXABVQString@@0@Z 1001b380 f   moc_workstationsAccessor.obj
 0001:0001a460       ?qt_cast@workstationsAccessor@@UAEPAXPBD@Z 1001b460 f   moc_workstationsAccessor.obj
 0001:0001a4c0       ?qt_emit@workstationsAccessor@@UAE_NHPAUQUObject@@@Z 1001b4c0 f   moc_workstationsAccessor.obj
 0001:0001a5a0       ?staticMetaObject@workstationsAccessor@@SAPAVQMetaObject@@XZ 1001b5a0 f   moc_workstationsAccessor.obj
 0001:0001a7b0       ?tr@workstationsAccessor@@SA?AVQString@@PBD0@Z 1001b7b0 f   moc_workstationsAccessor.obj
 0001:0001a800       ?trUtf8@workstationsAccessor@@SA?AVQString@@PBD0@Z 1001b800 f   moc_workstationsAccessor.obj
 0001:0001a850       ?userChanged@workstationsAccessor@@IAEXABVQString@@0@Z 1001b850 f   moc_workstationsAccessor.obj
 0001:0001a940       ?className@workstationSettingsAccessor@@UBEPBDXZ 1001b940 f   moc_workstationSettingsAccessor.obj
 0001:0001a950       ?dirty@workstationSettingsAccessor@@IAEX_N@Z 1001b950 f   moc_workstationSettingsAccessor.obj
 0001:0001a980       ?itemAdded@workstationSettingsAccessor@@IAEXABVQString@@ABVworkstationSettingsItem@@@Z 1001b980 f   moc_workstationSettingsAccessor.obj
 0001:0001aa70       ?itemDeleted@workstationSettingsAccessor@@IAEXABVQString@@ABVworkstationSettingsItem@@@Z 1001ba70 f   moc_workstationSettingsAccessor.obj
 0001:0001ab60       ?qt_cast@workstationSettingsAccessor@@UAEPAXPBD@Z 1001bb60 f   moc_workstationSettingsAccessor.obj
 0001:0001abc0       ?qt_emit@workstationSettingsAccessor@@UAE_NHPAUQUObject@@@Z 1001bbc0 f   moc_workstationSettingsAccessor.obj
 0001:0001aca0       ?qt_static_property@launchAccessor@@SA_NPAVQObject@@HHPAVQVariant@@@Z 1001bca0 f   moc_launchAccessor.obj
 0001:0001aca0       ?qt_static_property@workstationsAccessor@@SA_NPAVQObject@@HHPAVQVariant@@@Z 1001bca0 f   moc_workstationsAccessor.obj
 0001:0001aca0       ?qt_static_property@applicationsAccessor@@SA_NPAVQObject@@HHPAVQVariant@@@Z 1001bca0 f   moc_applicationsAccessor.obj
 0001:0001aca0       ?qt_static_property@panelsetsAccessor@@SA_NPAVQObject@@HHPAVQVariant@@@Z 1001bca0 f   moc_panelsetsAccessor.obj
 0001:0001aca0       ?qt_static_property@workstationSettingsAccessor@@SA_NPAVQObject@@HHPAVQVariant@@@Z 1001bca0 f   moc_workstationSettingsAccessor.obj
 0001:0001aca0       ?qt_static_property@usersAccessor@@SA_NPAVQObject@@HHPAVQVariant@@@Z 1001bca0 f   moc_usersAccessor.obj
 0001:0001acb0       ?staticMetaObject@workstationSettingsAccessor@@SAPAVQMetaObject@@XZ 1001bcb0 f   moc_workstationSettingsAccessor.obj
 0001:0001aec0       ?tr@workstationSettingsAccessor@@SA?AVQString@@PBD0@Z 1001bec0 f   moc_workstationSettingsAccessor.obj
 0001:0001af10       ?trUtf8@workstationSettingsAccessor@@SA?AVQString@@PBD0@Z 1001bf10 f   moc_workstationSettingsAccessor.obj
 0001:0001af60       ?workstationAdded@workstationSettingsAccessor@@IAEXABVQString@@ABV?$QValueList@VworkstationSettingsItem@@@@@Z 1001bf60 f   moc_workstationSettingsAccessor.obj
 0001:0001b050       ?workstationDeleted@workstationSettingsAccessor@@IAEXABVQString@@ABV?$QValueList@VworkstationSettingsItem@@@@@Z 1001c050 f   moc_workstationSettingsAccessor.obj
 0001:0001b140       ?workstationRenamed@workstationSettingsAccessor@@IAEXABVQString@@0@Z 1001c140 f   moc_workstationSettingsAccessor.obj
 0001:0001b224       ?removeChild@QDomNode@@UAE?AV1@ABV1@@Z 1001c224 f   qt-mt323:qt-mt323.dll
 0001:0001b22a       ?appendChild@QDomNode@@UAE?AV1@ABV1@@Z 1001c22a f   qt-mt323:qt-mt323.dll
 0001:0001b230       ?firstChild@QDomNode@@UBE?AV1@XZ 1001c230 f   qt-mt323:qt-mt323.dll
 0001:0001b236       ?nextSibling@QDomNode@@UBE?AV1@XZ 1001c236 f   qt-mt323:qt-mt323.dll
 0001:0001b23c       ?attributes@QDomNode@@UBE?AVQDomNamedNodeMap@@XZ 1001c23c f   qt-mt323:qt-mt323.dll
 0001:0001b242       ?checkConnectArgs@QObject@@MAE_NPBDPBV1@0@Z 1001c242 f   qt-mt323:qt-mt323.dll
 0001:0001b248       ?childEvent@QObject@@MAEXPAVQChildEvent@@@Z 1001c248 f   qt-mt323:qt-mt323.dll
 0001:0001b24e       ?childNodes@QDomNode@@UBE?AVQDomNodeList@@XZ 1001c24e f   qt-mt323:qt-mt323.dll
 0001:0001b254       ?cloneNode@QDomNode@@UBE?AV1@_N@Z 1001c254 f   qt-mt323:qt-mt323.dll
 0001:0001b25a       ?connectNotify@QObject@@MAEXPBD@Z 1001c25a f   qt-mt323:qt-mt323.dll
 0001:0001b260       ?customEvent@QObject@@MAEXPAVQCustomEvent@@@Z 1001c260 f   qt-mt323:qt-mt323.dll
 0001:0001b266       ?disconnectNotify@QObject@@MAEXPBD@Z 1001c266 f   qt-mt323:qt-mt323.dll
 0001:0001b26c       ?event@QObject@@UAE_NPAVQEvent@@@Z 1001c26c f   qt-mt323:qt-mt323.dll
 0001:0001b272       ?eventFilter@QObject@@UAE_NPAV1@PAVQEvent@@@Z 1001c272 f   qt-mt323:qt-mt323.dll
 0001:0001b278       ?hasAttributes@QDomNode@@UBE_NXZ 1001c278 f   qt-mt323:qt-mt323.dll
 0001:0001b27e       ?hasChildNodes@QDomNode@@UBE_NXZ 1001c27e f   qt-mt323:qt-mt323.dll
 0001:0001b284       ?insertAfter@QDomNode@@UAE?AV1@ABV1@0@Z 1001c284 f   qt-mt323:qt-mt323.dll
 0001:0001b28a       ?insertBefore@QDomNode@@UAE?AV1@ABV1@0@Z 1001c28a f   qt-mt323:qt-mt323.dll
 0001:0001b290       ?insertChild@QObject@@UAEXPAV1@@Z 1001c290 f   qt-mt323:qt-mt323.dll
 0001:0001b296       ?isAttr@QDomNode@@UBE_NXZ  1001c296 f   qt-mt323:qt-mt323.dll
 0001:0001b29c       ?isCDATASection@QDomNode@@UBE_NXZ 1001c29c f   qt-mt323:qt-mt323.dll
 0001:0001b2a2       ?isCharacterData@QDomNode@@UBE_NXZ 1001c2a2 f   qt-mt323:qt-mt323.dll
 0001:0001b2a8       ?isComment@QDomNode@@UBE_NXZ 1001c2a8 f   qt-mt323:qt-mt323.dll
 0001:0001b2ae       ?isDocument@QDomNode@@UBE_NXZ 1001c2ae f   qt-mt323:qt-mt323.dll
 0001:0001b2b4       ?isDocumentFragment@QDomNode@@UBE_NXZ 1001c2b4 f   qt-mt323:qt-mt323.dll
 0001:0001b2ba       ?isDocumentType@QDomNode@@UBE_NXZ 1001c2ba f   qt-mt323:qt-mt323.dll
 0001:0001b2c0       ?isElement@QDomNode@@UBE_NXZ 1001c2c0 f   qt-mt323:qt-mt323.dll
 0001:0001b2c6       ?isEntity@QDomNode@@UBE_NXZ 1001c2c6 f   qt-mt323:qt-mt323.dll
 0001:0001b2cc       ?isEntityReference@QDomNode@@UBE_NXZ 1001c2cc f   qt-mt323:qt-mt323.dll
 0001:0001b2d2       ?isNotation@QDomNode@@UBE_NXZ 1001c2d2 f   qt-mt323:qt-mt323.dll
 0001:0001b2d8       ?isProcessingInstruction@QDomNode@@UBE_NXZ 1001c2d8 f   qt-mt323:qt-mt323.dll
 0001:0001b2de       ?isSupported@QDomNode@@UBE_NABVQString@@0@Z 1001c2de f   qt-mt323:qt-mt323.dll
 0001:0001b2e4       ?isText@QDomNode@@UBE_NXZ  1001c2e4 f   qt-mt323:qt-mt323.dll
 0001:0001b2ea       ?lastChild@QDomNode@@UBE?AV1@XZ 1001c2ea f   qt-mt323:qt-mt323.dll
 0001:0001b2f0       ?localName@QDomNode@@UBE?AVQString@@XZ 1001c2f0 f   qt-mt323:qt-mt323.dll
 0001:0001b2f6       ?namespaceURI@QDomNode@@UBE?AVQString@@XZ 1001c2f6 f   qt-mt323:qt-mt323.dll
 0001:0001b2fc       ?nodeName@QDomNode@@UBE?AVQString@@XZ 1001c2fc f   qt-mt323:qt-mt323.dll
 0001:0001b302       ?nodeType@QDomNode@@UBE?AW4NodeType@1@XZ 1001c302 f   qt-mt323:qt-mt323.dll
 0001:0001b308       ?nodeValue@QDomNode@@UBE?AVQString@@XZ 1001c308 f   qt-mt323:qt-mt323.dll
 0001:0001b30e       ?normalize@QDomNode@@UAEXXZ 1001c30e f   qt-mt323:qt-mt323.dll
 0001:0001b314       ?ownerDocument@QDomNode@@UBE?AVQDomDocument@@XZ 1001c314 f   qt-mt323:qt-mt323.dll
 0001:0001b31a       ?parentNode@QDomNode@@UBE?AV1@XZ 1001c31a f   qt-mt323:qt-mt323.dll
 0001:0001b320       ?prefix@QDomNode@@UBE?AVQString@@XZ 1001c320 f   qt-mt323:qt-mt323.dll
 0001:0001b326       ?previousSibling@QDomNode@@UBE?AV1@XZ 1001c326 f   qt-mt323:qt-mt323.dll
 0001:0001b32c       ?property@QObject@@UBE?AVQVariant@@PBD@Z 1001c32c f   qt-mt323:qt-mt323.dll
 0001:0001b332       ?removeChild@QObject@@UAEXPAV1@@Z 1001c332 f   qt-mt323:qt-mt323.dll
 0001:0001b338       ?replaceChild@QDomNode@@UAE?AV1@ABV1@0@Z 1001c338 f   qt-mt323:qt-mt323.dll
 0001:0001b33e       ?setName@QObject@@UAEXPBD@Z 1001c33e f   qt-mt323:qt-mt323.dll
 0001:0001b344       ?setNodeValue@QDomNode@@UAEXABVQString@@@Z 1001c344 f   qt-mt323:qt-mt323.dll
 0001:0001b34a       ?setPrefix@QDomNode@@UAEXABVQString@@@Z 1001c34a f   qt-mt323:qt-mt323.dll
 0001:0001b350       ?setProperty@QObject@@UAE_NPBDABVQVariant@@@Z 1001c350 f   qt-mt323:qt-mt323.dll
 0001:0001b356       ?timerEvent@QObject@@MAEXPAVQTimerEvent@@@Z 1001c356 f   qt-mt323:qt-mt323.dll
 0001:0001b35c       ?isDocument@QDomDocument@@UBE_NXZ 1001c35c f   qt-mt323:qt-mt323.dll
 0001:0001b362       ?nodeType@QDomDocument@@UBE?AW4NodeType@QDomNode@@XZ 1001c362 f   qt-mt323:qt-mt323.dll
 0001:0001b368       ??_M@YGXPAXIHP6EX0@Z@Z     1001c368 f   MSVCRT:ehvecdtr.obj
 0001:0001b3d7       ?__ArrayUnwind@@YGXPAXIHP6EX0@Z@Z 1001c3d7 f   MSVCRT:ehvecdtr.obj
 0001:0001b436       __purecall                 1001c436 f   MSVCRT:MSVCR120.dll
 0001:0001b43c       ??2@YAPAXI@Z               1001c43c f   MSVCRT:MSVCR120.dll
 0001:0001b442       ??3@YAXPAX@Z               1001c442 f   MSVCRT:MSVCR120.dll
 0001:0001b448       ___atonexitinit            1001c448 f   MSVCRT:atonexit.obj
 0001:0001b484       __onexit                   1001c484 f   MSVCRT:atonexit.obj
 0001:0001b52d       _atexit                    1001c52d f   MSVCRT:atonexit.obj
 0001:0001b542       @__security_check_cookie@4 1001c542 f   MSVCRT:secchk.obj
 0001:0001b552       __CxxThrowException@8      1001c552 f   MSVCRT:MSVCR120.dll
 0001:0001b558       ___CxxFrameHandler3        1001c558 f   MSVCRT:MSVCR120.dll
 0001:0001b55e       _memcpy                    1001c55e f   MSVCRT:MSVCR120.dll
 0001:0001b564       ??_Etype_info@@UAEPAXI@Z   1001c564 f i MSVCRT:ti_inst.obj
 0001:0001b5b0       ??_V@YAXPAX@Z              1001c5b0 f   MSVCRT:MSVCR120.dll
 0001:0001b5b6       ??_L@YGXPAXIHP6EX0@Z1@Z    1001c5b6 f   MSVCRT:ehvecctr.obj
 0001:0001b664       __CRT_INIT@12              1001c664 f   MSVCRT:crtdll.obj
 0001:0001b85b       __DllMainCRTStartup@12     1001c85b f   MSVCRT:crtdll.obj
 0001:0001b9b2       ?terminate@@YAXXZ          1001c9b2 f   MSVCRT:MSVCR120.dll
 0001:0001b9c0       __SEH_prolog4              1001c9c0 f   MSVCRT:sehprolg4.obj
 0001:0001ba05       __SEH_epilog4              1001ca05 f   MSVCRT:sehprolg4.obj
 0001:0001ba19       __except_handler4          1001ca19 f   MSVCRT:chandler4gs.obj
 0001:0001ba3c       __lock                     1001ca3c f   MSVCRT:MSVCR120.dll
 0001:0001ba42       __unlock                   1001ca42 f   MSVCRT:MSVCR120.dll
 0001:0001ba48       ___dllonexit               1001ca48 f   MSVCRT:MSVCR120.dll
 0001:0001ba4e       ___raise_securityfailure   1001ca4e f   MSVCRT:gs_report.obj
 0001:0001ba8b       ___report_gsfailure        1001ca8b f   MSVCRT:gs_report.obj
 0001:0001bb86       ??1type_info@@UAE@XZ       1001cb86 f   MSVCRT:MSVCR120.dll
 0001:0001bb8c       ___CppXcptFilter           1001cb8c f   MSVCRT:MSVCR120.dll
 0001:0001bb92       __amsg_exit                1001cb92 f   MSVCRT:MSVCR120.dll
 0001:0001bba0       __FindPESection            1001cba0 f   MSVCRT:pesect.obj
 0001:0001bbf0       __IsNonwritableInCurrentImage 1001cbf0 f   MSVCRT:pesect.obj
 0001:0001bcb0       __ValidateImageBase        1001ccb0 f   MSVCRT:pesect.obj
 0001:0001bce1       ___security_init_cookie    1001cce1 f   MSVCRT:gs_support.obj
 0001:0001bd7d       _DllMain@12                1001cd7d f   MSVCRT:dllmain.obj
 0001:0001bd9f       __RTC_Initialize           1001cd9f f   MSVCRT:initsect.obj
 0001:0001bdbf       __RTC_Terminate            1001cdbf f   MSVCRT:initsect.obj
 0001:0001bde0       __initterm                 1001cde0 f   MSVCRT:MSVCR120.dll
 0001:0001bde6       __initterm_e               1001cde6 f   MSVCRT:MSVCR120.dll
 0001:0001bdec       ___clean_type_info_names   1001cdec f   MSVCRT:tncleanup.obj
 0001:0001bdf8       __except_handler4_common   1001cdf8 f   MSVCRT:MSVCR120.dll
 0001:0001bdfe       __crt_debugger_hook        1001cdfe f   MSVCRT:MSVCR120.dll
 0001:0001be04       ___crtUnhandledException   1001ce04 f   MSVCRT:MSVCR120.dll
 0001:0001be0a       ___crtTerminateProcess     1001ce0a f   MSVCRT:MSVCR120.dll
 0001:0001be10       ___clean_type_info_names_internal 1001ce10 f   MSVCRT:MSVCR120.dll
 0001:0001be16       _IsProcessorFeaturePresent@4 1001ce16 f   kernel32:KERNEL32.dll
 0002:00000000       __imp__DisableThreadLibraryCalls@4 10021000     kernel32:KERNEL32.dll
 0002:00000004       __imp__GetSystemTimeAsFileTime@4 10021004     kernel32:KERNEL32.dll
 0002:00000008       __imp__GetCurrentThreadId@0 10021008     kernel32:KERNEL32.dll
 0002:0000000c       __imp__GetCurrentProcessId@0 1002100c     kernel32:KERNEL32.dll
 0002:00000010       __imp__QueryPerformanceCounter@4 10021010     kernel32:KERNEL32.dll
 0002:00000014       __imp__IsProcessorFeaturePresent@4 10021014     kernel32:KERNEL32.dll
 0002:00000018       __imp__IsDebuggerPresent@0 10021018     kernel32:KERNEL32.dll
 0002:0000001c       __imp__DecodePointer@4     1002101c     kernel32:KERNEL32.dll
 0002:00000020       __imp__EncodePointer@4     10021020     kernel32:KERNEL32.dll
 0002:00000024       \177KERNEL32_NULL_THUNK_DATA 10021024     kernel32:KERNEL32.dll
 0002:00000028       __imp_?_Xlength_error@std@@YAXPBD@Z 10021028     msvcprt:MSVCP120.dll
 0002:0000002c       __imp_?_Xout_of_range@std@@YAXPBD@Z 1002102c     msvcprt:MSVCP120.dll
 0002:00000030       __imp_?_Syserror_map@std@@YAPBDH@Z 10021030     msvcprt:MSVCP120.dll
 0002:00000034       __imp_?_Winerror_map@std@@YAPBDH@Z 10021034     msvcprt:MSVCP120.dll
 0002:00000038       __imp_?_Xbad_alloc@std@@YAXXZ 10021038     msvcprt:MSVCP120.dll
 0002:0000003c       \177MSVCP120_NULL_THUNK_DATA 1002103c     msvcprt:MSVCP120.dll
 0002:00000040       __imp___initterm_e         10021040     MSVCRT:MSVCR120.dll
 0002:00000044       __imp___initterm           10021044     MSVCRT:MSVCR120.dll
 0002:00000048       __imp___malloc_crt         10021048     MSVCRT:MSVCR120.dll
 0002:0000004c       __imp__free                1002104c     MSVCRT:MSVCR120.dll
 0002:00000050       __imp___amsg_exit          10021050     MSVCRT:MSVCR120.dll
 0002:00000054       __imp____CppXcptFilter     10021054     MSVCRT:MSVCR120.dll
 0002:00000058       __imp___except_handler4_common 10021058     MSVCRT:MSVCR120.dll
 0002:0000005c       __imp___onexit             1002105c     MSVCRT:MSVCR120.dll
 0002:00000060       __imp____dllonexit         10021060     MSVCRT:MSVCR120.dll
 0002:00000064       __imp___calloc_crt         10021064     MSVCRT:MSVCR120.dll
 0002:00000068       __imp___unlock             10021068     MSVCRT:MSVCR120.dll
 0002:0000006c       __imp___lock               1002106c     MSVCRT:MSVCR120.dll
 0002:00000070       __imp_?terminate@@YAXXZ    10021070     MSVCRT:MSVCR120.dll
 0002:00000074       __imp_??_V@YAXPAX@Z        10021074     MSVCRT:MSVCR120.dll
 0002:00000078       __imp__getenv              10021078     MSVCRT:MSVCR120.dll
 0002:0000007c       __imp__memcpy              1002107c     MSVCRT:MSVCR120.dll
 0002:00000080       __imp____CxxFrameHandler3  10021080     MSVCRT:MSVCR120.dll
 0002:00000084       __imp___CxxThrowException@8 10021084     MSVCRT:MSVCR120.dll
 0002:00000088       __imp__memmove             10021088     MSVCRT:MSVCR120.dll
 0002:0000008c       __imp_??3@YAXPAX@Z         1002108c     MSVCRT:MSVCR120.dll
 0002:00000090       __imp_??2@YAPAXI@Z         10021090     MSVCRT:MSVCR120.dll
 0002:00000094       __imp___purecall           10021094     MSVCRT:MSVCR120.dll
 0002:00000098       __imp___crt_debugger_hook  10021098     MSVCRT:MSVCR120.dll
 0002:0000009c       __imp____crtUnhandledException 1002109c     MSVCRT:MSVCR120.dll
 0002:000000a0       __imp____crtTerminateProcess 100210a0     MSVCRT:MSVCR120.dll
 0002:000000a4       __imp____clean_type_info_names_internal 100210a4     MSVCRT:MSVCR120.dll
 0002:000000a8       __imp_??1type_info@@UAE@XZ 100210a8     MSVCRT:MSVCR120.dll
 0002:000000ac       __imp___putenv             100210ac     MSVCRT:MSVCR120.dll
 0002:000000ac       __imp__putenv              100210ac     MSVCRT:MSVCR120.dll
 0002:000000b0       \177MSVCR120_NULL_THUNK_DATA 100210b0     MSVCRT:MSVCR120.dll
 0002:000000b4       __imp_??_7paramInfo@@6B@   100210b4     bncs_cachedData:bncs_cachedData.dll
 0002:000000b8       __imp_?lookupType@bncs_instance_lookup@@SA_NABVQString@@AAV2@@Z 100210b8     bncs_cachedData:bncs_cachedData.dll
 0002:000000bc       __imp_?lookupComposite@bncs_instance_lookup@@SA_NABVQString@@0AAV2@@Z 100210bc     bncs_cachedData:bncs_cachedData.dll
 0002:000000c0       __imp_?lookup@bncs_instance_lookup@@SA_NABVQString@@0AAV2@PAH22PAD@Z 100210c0     bncs_cachedData:bncs_cachedData.dll
 0002:000000c4       __imp_??4complexType@@QAEAAV0@ABV0@@Z 100210c4     bncs_cachedData:bncs_cachedData.dll
 0002:000000c8       __imp_??0complexType@@QAE@ABV0@@Z 100210c8     bncs_cachedData:bncs_cachedData.dll
 0002:000000cc       __imp_??1complexType@@UAE@XZ 100210cc     bncs_cachedData:bncs_cachedData.dll
 0002:000000d0       __imp_??0complexType@@QAE@XZ 100210d0     bncs_cachedData:bncs_cachedData.dll
 0002:000000d4       __imp_??4complexInstance@@QAEAAV0@ABV0@@Z 100210d4     bncs_cachedData:bncs_cachedData.dll
 0002:000000d8       __imp_??0complexInstance@@QAE@ABV0@@Z 100210d8     bncs_cachedData:bncs_cachedData.dll
 0002:000000dc       __imp_??1complexInstance@@UAE@XZ 100210dc     bncs_cachedData:bncs_cachedData.dll
 0002:000000e0       __imp_??0complexInstance@@QAE@XZ 100210e0     bncs_cachedData:bncs_cachedData.dll
 0002:000000e4       __imp_??1complexParam@@UAE@XZ 100210e4     bncs_cachedData:bncs_cachedData.dll
 0002:000000e8       __imp_??0complexParam@@QAE@XZ 100210e8     bncs_cachedData:bncs_cachedData.dll
 0002:000000ec       __imp_??4deviceTypeInfo@@QAEAAV0@ABV0@@Z 100210ec     bncs_cachedData:bncs_cachedData.dll
 0002:000000f0       __imp_??0deviceTypeInfo@@QAE@ABV0@@Z 100210f0     bncs_cachedData:bncs_cachedData.dll
 0002:000000f4       __imp_??1deviceTypeInfo@@UAE@XZ 100210f4     bncs_cachedData:bncs_cachedData.dll
 0002:000000f8       __imp_??0deviceTypeInfo@@QAE@XZ 100210f8     bncs_cachedData:bncs_cachedData.dll
 0002:000000fc       __imp_??1paramInfo@@UAE@XZ 100210fc     bncs_cachedData:bncs_cachedData.dll
 0002:00000100       __imp_??0paramInfo@@QAE@XZ 10021100     bncs_cachedData:bncs_cachedData.dll
 0002:00000104       __imp_??4instanceInfo@@QAEAAV0@ABV0@@Z 10021104     bncs_cachedData:bncs_cachedData.dll
 0002:00000108       __imp_??0instanceInfo@@QAE@ABV0@@Z 10021108     bncs_cachedData:bncs_cachedData.dll
 0002:0000010c       __imp_??1instanceInfo@@UAE@XZ 1002110c     bncs_cachedData:bncs_cachedData.dll
 0002:00000110       __imp_??0instanceInfo@@QAE@XZ 10021110     bncs_cachedData:bncs_cachedData.dll
 0002:00000114       __imp_??_7complexParam@@6B@ 10021114     bncs_cachedData:bncs_cachedData.dll
 0002:00000118       \177bncs_cachedData_NULL_THUNK_DATA 10021118     bncs_cachedData:bncs_cachedData.dll
 0002:0000011c       __imp_??Bbncs_string@@QBEPBDXZ 1002111c     bncs_string:bncs_string.dll
 0002:00000120       __imp_??1bncs_string@@UAE@XZ 10021120     bncs_string:bncs_string.dll
 0002:00000124       __imp_??0bncs_string@@QAE@PBD@Z 10021124     bncs_string:bncs_string.dll
 0002:00000128       __imp_??4bncs_string@@QAEAAV0@PBD@Z 10021128     bncs_string:bncs_string.dll
 0002:0000012c       \177bncs_string_NULL_THUNK_DATA 1002112c     bncs_string:bncs_string.dll
 0002:00000130       __imp_?null@QString@@2V1@A 10021130     qt-mt323:qt-mt323.dll
 0002:00000134       __imp_??_7QMutex@@6B@      10021134     qt-mt323:qt-mt323.dll
 0002:00000138       __imp_?qDebug@@YAXPBDZZ    10021138     qt-mt323:qt-mt323.dll
 0002:0000013c       __imp_?ascii@QString@@QBEPBDXZ 1002113c     qt-mt323:qt-mt323.dll
 0002:00000140       __imp_?latin1@QString@@QBEPBDXZ 10021140     qt-mt323:qt-mt323.dll
 0002:00000144       __imp_??M@YA_NABVQString@@0@Z 10021144     qt-mt323:qt-mt323.dll
 0002:00000148       __imp_??H@YA?BVQString@@ABV0@0@Z 10021148     qt-mt323:qt-mt323.dll
 0002:0000014c       __imp_??H@YA?BVQString@@ABV0@PBD@Z 1002114c     qt-mt323:qt-mt323.dll
 0002:00000150       __imp_?toText@QDomNode@@QAE?AVQDomText@@XZ 10021150     qt-mt323:qt-mt323.dll
 0002:00000154       __imp_??0QDomDocument@@QAE@XZ 10021154     qt-mt323:qt-mt323.dll
 0002:00000158       __imp_??1QDomDocument@@UAE@XZ 10021158     qt-mt323:qt-mt323.dll
 0002:0000015c       __imp_?setContent@QDomDocument@@QAE_NPAVQIODevice@@PAVQString@@PAH2@Z 1002115c     qt-mt323:qt-mt323.dll
 0002:00000160       __imp_?toString@QDomDocument@@QBE?AVQString@@XZ 10021160     qt-mt323:qt-mt323.dll
 0002:00000164       __imp_?data@QDomCharacterData@@UBE?AVQString@@XZ 10021164     qt-mt323:qt-mt323.dll
 0002:00000168       __imp_?tagName@QDomElement@@QBE?AVQString@@XZ 10021168     qt-mt323:qt-mt323.dll
 0002:0000016c       __imp_??1QDomText@@UAE@XZ  1002116c     qt-mt323:qt-mt323.dll
 0002:00000170       __imp_??0QTextStream@@QAE@PAVQIODevice@@@Z 10021170     qt-mt323:qt-mt323.dll
 0002:00000174       __imp_??1QTextStream@@UAE@XZ 10021174     qt-mt323:qt-mt323.dll
 0002:00000178       __imp_??6QTextStream@@QAEAAV0@ABVQString@@@Z 10021178     qt-mt323:qt-mt323.dll
 0002:0000017c       __imp_??A?$QValueList@VQString@@@@QAEAAVQString@@I@Z 1002117c     qt-mt323:qt-mt323.dll
 0002:00000180       __imp_?split@QStringList@@SA?AV1@ABVQString@@0_N@Z 10021180     qt-mt323:qt-mt323.dll
 0002:00000184       __imp_??1QStringList@@QAE@XZ 10021184     qt-mt323:qt-mt323.dll
 0002:00000188       __imp_??0QFile@@QAE@ABVQString@@@Z 10021188     qt-mt323:qt-mt323.dll
 0002:0000018c       __imp_??1QFile@@UAE@XZ     1002118c     qt-mt323:qt-mt323.dll
 0002:00000190       __imp_?open@QFile@@UAE_NH@Z 10021190     qt-mt323:qt-mt323.dll
 0002:00000194       __imp_?close@QFile@@UAEXXZ 10021194     qt-mt323:qt-mt323.dll
 0002:00000198       __imp_?isDocument@QDomDocument@@UBE_NXZ 10021198     qt-mt323:qt-mt323.dll
 0002:0000019c       __imp_?nodeType@QDomDocument@@UBE?AW4NodeType@QDomNode@@XZ 1002119c     qt-mt323:qt-mt323.dll
 0002:000001a0       __imp_??0QString@@QAE@XZ   100211a0     qt-mt323:qt-mt323.dll
 0002:000001a4       __imp_??0?$QValueList@VQString@@@@QAE@XZ 100211a4     qt-mt323:qt-mt323.dll
 0002:000001a8       __imp_??1?$QValueList@VQString@@@@QAE@XZ 100211a8     qt-mt323:qt-mt323.dll
 0002:000001ac       __imp_?append@?$QValueList@VQString@@@@QAE?AV?$QValueListIterator@VQString@@@@ABVQString@@@Z 100211ac     qt-mt323:qt-mt323.dll
 0002:000001b0       __imp_?rebalance@QMapPrivateBase@@QAEXPAUQMapNodeBase@@AAPAU2@@Z 100211b0     qt-mt323:qt-mt323.dll
 0002:000001b4       __imp_?removeAndRebalance@QMapPrivateBase@@QAEPAUQMapNodeBase@@PAU2@AAPAU2@11@Z 100211b4     qt-mt323:qt-mt323.dll
 0002:000001b8       __imp_?timerEvent@QObject@@MAEXPAVQTimerEvent@@@Z 100211b8     qt-mt323:qt-mt323.dll
 0002:000001bc       __imp_?toInt@QString@@QBEHPA_NH@Z 100211bc     qt-mt323:qt-mt323.dll
 0002:000001c0       __imp_??8@YA_NABVQString@@PBD@Z 100211c0     qt-mt323:qt-mt323.dll
 0002:000001c4       __imp_??H@YA?BVQString@@PBDABV0@@Z 100211c4     qt-mt323:qt-mt323.dll
 0002:000001c8       __imp_?setAttribute@QDomElement@@QAEXABVQString@@H@Z 100211c8     qt-mt323:qt-mt323.dll
 0002:000001cc       __imp_??4QString@@QAEAAV0@PBD@Z 100211cc     qt-mt323:qt-mt323.dll
 0002:000001d0       __imp_?lower@QString@@QBE?AV1@XZ 100211d0     qt-mt323:qt-mt323.dll
 0002:000001d4       __imp_??9@YA_NABVQString@@PBD@Z 100211d4     qt-mt323:qt-mt323.dll
 0002:000001d8       __imp_?fromLatin1@QString@@SA?AV1@PBDH@Z 100211d8     qt-mt323:qt-mt323.dll
 0002:000001dc       __imp_?fromUtf8@QString@@SA?AV1@PBDH@Z 100211dc     qt-mt323:qt-mt323.dll
 0002:000001e0       __imp_?qt_cast@QObject@@UAEPAXPBD@Z 100211e0     qt-mt323:qt-mt323.dll
 0002:000001e4       __imp_?qt_invoke@QObject@@UAE_NHPAUQUObject@@@Z 100211e4     qt-mt323:qt-mt323.dll
 0002:000001e8       __imp_?qt_emit@QObject@@UAE_NHPAUQUObject@@@Z 100211e8     qt-mt323:qt-mt323.dll
 0002:000001ec       __imp_?qt_property@QObject@@UAE_NHHPAVQVariant@@@Z 100211ec     qt-mt323:qt-mt323.dll
 0002:000001f0       __imp_?staticMetaObject@QObject@@SAPAVQMetaObject@@XZ 100211f0     qt-mt323:qt-mt323.dll
 0002:000001f4       __imp_?receivers@QObject@@IBEPAVQConnectionList@@H@Z 100211f4     qt-mt323:qt-mt323.dll
 0002:000001f8       __imp_?activate_signal@QObject@@IAEXHVQString@@@Z 100211f8     qt-mt323:qt-mt323.dll
 0002:000001fc       __imp_?activate_signal_bool@QObject@@IAEXH_N@Z 100211fc     qt-mt323:qt-mt323.dll
 0002:00000200       __imp_?activate_signal@QObject@@IAEXPAVQConnectionList@@PAUQUObject@@@Z 10021200     qt-mt323:qt-mt323.dll
 0002:00000204       __imp_?new_metaobject@QMetaObject@@SAPAV1@PBDPAV1@QBUQMetaData@@H2HQBVQMetaProperty@@HQBUQMetaEnum@@HQBUQClassInfo@@H@Z 10021204     qt-mt323:qt-mt323.dll
 0002:00000208       __imp_??0QMetaObjectCleanUp@@QAE@PBDP6APAVQMetaObject@@XZ@Z 10021208     qt-mt323:qt-mt323.dll
 0002:0000020c       __imp_??1QMetaObjectCleanUp@@QAE@XZ 1002120c     qt-mt323:qt-mt323.dll
 0002:00000210       __imp_?setMetaObject@QMetaObjectCleanUp@@QAEXAAPAVQMetaObject@@@Z 10021210     qt-mt323:qt-mt323.dll
 0002:00000214       __imp_?translate@QApplication@@QBE?AVQString@@PBD00W4Encoding@1@@Z 10021214     qt-mt323:qt-mt323.dll
 0002:00000218       __imp_??0QUObject@@QAE@XZ  10021218     qt-mt323:qt-mt323.dll
 0002:0000021c       __imp_??1QUObject@@QAE@XZ  1002121c     qt-mt323:qt-mt323.dll
 0002:00000220       __imp_?set@QUType_QString@@QAEXPAUQUObject@@ABVQString@@@Z 10021220     qt-mt323:qt-mt323.dll
 0002:00000224       __imp_?qApp@@3PAVQApplication@@A 10021224     qt-mt323:qt-mt323.dll
 0002:00000228       __imp_?static_QUType_bool@@3UQUType_bool@@A 10021228     qt-mt323:qt-mt323.dll
 0002:0000022c       __imp_?static_QUType_QString@@3UQUType_QString@@A 1002122c     qt-mt323:qt-mt323.dll
 0002:00000230       __imp_?set@QUType_ptr@@QAEXPAUQUObject@@PBX@Z 10021230     qt-mt323:qt-mt323.dll
 0002:00000234       __imp_?set@QUType_bool@@QAEXPAUQUObject@@_N@Z 10021234     qt-mt323:qt-mt323.dll
 0002:00000238       __imp_?set@QUType_int@@QAEXPAUQUObject@@H@Z 10021238     qt-mt323:qt-mt323.dll
 0002:0000023c       __imp_?static_QUType_ptr@@3UQUType_ptr@@A 1002123c     qt-mt323:qt-mt323.dll
 0002:00000240       __imp_?static_QUType_int@@3UQUType_int@@A 10021240     qt-mt323:qt-mt323.dll
 0002:00000244       __imp_?setProperty@QObject@@UAE_NPBDABVQVariant@@@Z 10021244     qt-mt323:qt-mt323.dll
 0002:00000248       __imp_?setPrefix@QDomNode@@UAEXABVQString@@@Z 10021248     qt-mt323:qt-mt323.dll
 0002:0000024c       __imp_?setNodeValue@QDomNode@@UAEXABVQString@@@Z 1002124c     qt-mt323:qt-mt323.dll
 0002:00000250       __imp_?replaceChild@QDomNode@@UAE?AV1@ABV1@0@Z 10021250     qt-mt323:qt-mt323.dll
 0002:00000254       __imp_?setName@QObject@@UAEXPBD@Z 10021254     qt-mt323:qt-mt323.dll
 0002:00000258       __imp_?removeChild@QObject@@UAEXPAV1@@Z 10021258     qt-mt323:qt-mt323.dll
 0002:0000025c       __imp_?property@QObject@@UBE?AVQVariant@@PBD@Z 1002125c     qt-mt323:qt-mt323.dll
 0002:00000260       __imp_?previousSibling@QDomNode@@UBE?AV1@XZ 10021260     qt-mt323:qt-mt323.dll
 0002:00000264       __imp_?prefix@QDomNode@@UBE?AVQString@@XZ 10021264     qt-mt323:qt-mt323.dll
 0002:00000268       __imp_?parentNode@QDomNode@@UBE?AV1@XZ 10021268     qt-mt323:qt-mt323.dll
 0002:0000026c       __imp_?ownerDocument@QDomNode@@UBE?AVQDomDocument@@XZ 1002126c     qt-mt323:qt-mt323.dll
 0002:00000270       __imp_?normalize@QDomNode@@UAEXXZ 10021270     qt-mt323:qt-mt323.dll
 0002:00000274       __imp_?nodeValue@QDomNode@@UBE?AVQString@@XZ 10021274     qt-mt323:qt-mt323.dll
 0002:00000278       __imp_?nodeType@QDomNode@@UBE?AW4NodeType@1@XZ 10021278     qt-mt323:qt-mt323.dll
 0002:0000027c       __imp_?nodeName@QDomNode@@UBE?AVQString@@XZ 1002127c     qt-mt323:qt-mt323.dll
 0002:00000280       __imp_?namespaceURI@QDomNode@@UBE?AVQString@@XZ 10021280     qt-mt323:qt-mt323.dll
 0002:00000284       __imp_?localName@QDomNode@@UBE?AVQString@@XZ 10021284     qt-mt323:qt-mt323.dll
 0002:00000288       __imp_?lastChild@QDomNode@@UBE?AV1@XZ 10021288     qt-mt323:qt-mt323.dll
 0002:0000028c       __imp_?isText@QDomNode@@UBE_NXZ 1002128c     qt-mt323:qt-mt323.dll
 0002:00000290       __imp_?isSupported@QDomNode@@UBE_NABVQString@@0@Z 10021290     qt-mt323:qt-mt323.dll
 0002:00000294       __imp_?isProcessingInstruction@QDomNode@@UBE_NXZ 10021294     qt-mt323:qt-mt323.dll
 0002:00000298       __imp_?isNotation@QDomNode@@UBE_NXZ 10021298     qt-mt323:qt-mt323.dll
 0002:0000029c       __imp_?isEntityReference@QDomNode@@UBE_NXZ 1002129c     qt-mt323:qt-mt323.dll
 0002:000002a0       __imp_?isEntity@QDomNode@@UBE_NXZ 100212a0     qt-mt323:qt-mt323.dll
 0002:000002a4       __imp_?isElement@QDomNode@@UBE_NXZ 100212a4     qt-mt323:qt-mt323.dll
 0002:000002a8       __imp_?isDocumentType@QDomNode@@UBE_NXZ 100212a8     qt-mt323:qt-mt323.dll
 0002:000002ac       __imp_?isDocumentFragment@QDomNode@@UBE_NXZ 100212ac     qt-mt323:qt-mt323.dll
 0002:000002b0       __imp_?isDocument@QDomNode@@UBE_NXZ 100212b0     qt-mt323:qt-mt323.dll
 0002:000002b4       __imp_?isComment@QDomNode@@UBE_NXZ 100212b4     qt-mt323:qt-mt323.dll
 0002:000002b8       __imp_?isCDATASection@QDomNode@@UBE_NXZ 100212b8     qt-mt323:qt-mt323.dll
 0002:000002bc       __imp_?isCharacterData@QDomNode@@UBE_NXZ 100212bc     qt-mt323:qt-mt323.dll
 0002:000002c0       __imp_?isAttr@QDomNode@@UBE_NXZ 100212c0     qt-mt323:qt-mt323.dll
 0002:000002c4       __imp_?insertChild@QObject@@UAEXPAV1@@Z 100212c4     qt-mt323:qt-mt323.dll
 0002:000002c8       __imp_?insertBefore@QDomNode@@UAE?AV1@ABV1@0@Z 100212c8     qt-mt323:qt-mt323.dll
 0002:000002cc       __imp_?insertAfter@QDomNode@@UAE?AV1@ABV1@0@Z 100212cc     qt-mt323:qt-mt323.dll
 0002:000002d0       __imp_?hasChildNodes@QDomNode@@UBE_NXZ 100212d0     qt-mt323:qt-mt323.dll
 0002:000002d4       __imp_?hasAttributes@QDomNode@@UBE_NXZ 100212d4     qt-mt323:qt-mt323.dll
 0002:000002d8       __imp_?eventFilter@QObject@@UAE_NPAV1@PAVQEvent@@@Z 100212d8     qt-mt323:qt-mt323.dll
 0002:000002dc       __imp_?event@QObject@@UAE_NPAVQEvent@@@Z 100212dc     qt-mt323:qt-mt323.dll
 0002:000002e0       __imp_?disconnectNotify@QObject@@MAEXPBD@Z 100212e0     qt-mt323:qt-mt323.dll
 0002:000002e4       __imp_?customEvent@QObject@@MAEXPAVQCustomEvent@@@Z 100212e4     qt-mt323:qt-mt323.dll
 0002:000002e8       __imp_?connectNotify@QObject@@MAEXPBD@Z 100212e8     qt-mt323:qt-mt323.dll
 0002:000002ec       __imp_?cloneNode@QDomNode@@UBE?AV1@_N@Z 100212ec     qt-mt323:qt-mt323.dll
 0002:000002f0       __imp_?childNodes@QDomNode@@UBE?AVQDomNodeList@@XZ 100212f0     qt-mt323:qt-mt323.dll
 0002:000002f4       __imp_?childEvent@QObject@@MAEXPAVQChildEvent@@@Z 100212f4     qt-mt323:qt-mt323.dll
 0002:000002f8       __imp_?checkConnectArgs@QObject@@MAE_NPBDPBV1@0@Z 100212f8     qt-mt323:qt-mt323.dll
 0002:000002fc       __imp_?attributes@QDomNode@@UBE?AVQDomNamedNodeMap@@XZ 100212fc     qt-mt323:qt-mt323.dll
 0002:00000300       __imp_?setAttribute@QDomElement@@QAEXABVQString@@0@Z 10021300     qt-mt323:qt-mt323.dll
 0002:00000304       __imp_?attribute@QDomElement@@QBE?AVQString@@ABV2@0@Z 10021304     qt-mt323:qt-mt323.dll
 0002:00000308       __imp_??1QDomElement@@UAE@XZ 10021308     qt-mt323:qt-mt323.dll
 0002:0000030c       __imp_?documentElement@QDomDocument@@QBE?AVQDomElement@@XZ 1002130c     qt-mt323:qt-mt323.dll
 0002:00000310       __imp_?createElement@QDomDocument@@QAE?AVQDomElement@@ABVQString@@@Z 10021310     qt-mt323:qt-mt323.dll
 0002:00000314       __imp_?toElement@QDomNode@@QAE?AVQDomElement@@XZ 10021314     qt-mt323:qt-mt323.dll
 0002:00000318       __imp_?isNull@QDomNode@@QBE_NXZ 10021318     qt-mt323:qt-mt323.dll
 0002:0000031c       __imp_?nextSibling@QDomNode@@UBE?AV1@XZ 1002131c     qt-mt323:qt-mt323.dll
 0002:00000320       __imp_?firstChild@QDomNode@@UBE?AV1@XZ 10021320     qt-mt323:qt-mt323.dll
 0002:00000324       __imp_?appendChild@QDomNode@@UAE?AV1@ABV1@@Z 10021324     qt-mt323:qt-mt323.dll
 0002:00000328       __imp_?removeChild@QDomNode@@UAE?AV1@ABV1@@Z 10021328     qt-mt323:qt-mt323.dll
 0002:0000032c       __imp_??1QDomNode@@UAE@XZ  1002132c     qt-mt323:qt-mt323.dll
 0002:00000330       __imp_??4QDomNode@@QAEAAV0@ABV0@@Z 10021330     qt-mt323:qt-mt323.dll
 0002:00000334       __imp_??0QDomNode@@QAE@XZ  10021334     qt-mt323:qt-mt323.dll
 0002:00000338       __imp_?unlock@QMutex@@QAEXXZ 10021338     qt-mt323:qt-mt323.dll
 0002:0000033c       __imp_?lock@QMutex@@QAEXXZ 1002133c     qt-mt323:qt-mt323.dll
 0002:00000340       __imp_??1QMutex@@UAE@XZ    10021340     qt-mt323:qt-mt323.dll
 0002:00000344       __imp_??0QMutex@@QAE@_N@Z  10021344     qt-mt323:qt-mt323.dll
 0002:00000348       __imp_??4QObject@@QAEAAV0@ABV0@@Z 10021348     qt-mt323:qt-mt323.dll
 0002:0000034c       __imp_??0QObject@@QAE@ABV0@@Z 1002134c     qt-mt323:qt-mt323.dll
 0002:00000350       __imp_??1QObject@@UAE@XZ   10021350     qt-mt323:qt-mt323.dll
 0002:00000354       __imp_??0QObject@@QAE@PAV0@PBD@Z 10021354     qt-mt323:qt-mt323.dll
 0002:00000358       __imp_??8@YA_NABVQString@@0@Z 10021358     qt-mt323:qt-mt323.dll
 0002:0000035c       __imp_?toDouble@QString@@QBENPA_N@Z 1002135c     qt-mt323:qt-mt323.dll
 0002:00000360       __imp_?arg@QString@@QBE?AV1@NHDH@Z 10021360     qt-mt323:qt-mt323.dll
 0002:00000364       __imp_??4QString@@QAEAAV0@ABV0@@Z 10021364     qt-mt323:qt-mt323.dll
 0002:00000368       __imp_??1QString@@QAE@XZ   10021368     qt-mt323:qt-mt323.dll
 0002:0000036c       __imp_??0QString@@QAE@PBD@Z 1002136c     qt-mt323:qt-mt323.dll
 0002:00000370       __imp_?arg@QString@@QBE?AV1@HHH@Z 10021370     qt-mt323:qt-mt323.dll
 0002:00000374       __imp_??0QString@@QAE@ABV0@@Z 10021374     qt-mt323:qt-mt323.dll
 0002:00000378       \177qt-mt323_NULL_THUNK_DATA 10021378     qt-mt323:qt-mt323.dll
 0002:0000037c       ___xc_a                    1002137c     MSVCRT:cinitexe.obj
 0002:000003a8       ___xc_z                    100213a8     MSVCRT:cinitexe.obj
 0002:000003ac       ___xi_a                    100213ac     MSVCRT:cinitexe.obj
 0002:000003b8       ___xi_z                    100213b8     MSVCRT:cinitexe.obj
 0002:000003c4       ??_7applicationsAccessor@@6B@ 100213c4     applicationsAccessor.obj
 0002:00000414       ??_C@_00CNPNBAHC@?$AA@     10021414     applicationsAccessor.obj
 0002:0000041c       ??_7error_category@std@@6B@ 1002141c     applicationsAccessor.obj
 0002:00000438       ??_7_Generic_error_category@std@@6B@ 10021438     applicationsAccessor.obj
 0002:00000450       ??_C@_07DCLBNMLN@generic?$AA@ 10021450     applicationsAccessor.obj
 0002:00000458       ??_C@_0O@BFJCFAAK@unknown?5error?$AA@ 10021458     applicationsAccessor.obj
 0002:0000046c       ??_7_Iostream_error_category@std@@6B@ 1002146c     applicationsAccessor.obj
 0002:00000484       ??_C@_08LLGCOLLL@iostream?$AA@ 10021484     applicationsAccessor.obj
 0002:00000490       ??_C@_0BG@PADBLCHM@iostream?5stream?5error?$AA@ 10021490     applicationsAccessor.obj
 0002:000004ac       ??_7_System_error_category@std@@6B@ 100214ac     applicationsAccessor.obj
 0002:000004c4       ??_C@_06FHFOAHML@system?$AA@ 100214c4     applicationsAccessor.obj
 0002:000004d4       ??_SQDomNode@@6B@          100214d4     applicationsAccessor.obj
 0002:00000574       ??_C@_0N@JALHCLAI@applications?$AA@ 10021574     applicationsAccessor.obj
 0002:00000584       ??_C@_02EGCJHIOB@id?$AA@   10021584     applicationsAccessor.obj
 0002:00000588       ??_C@_04GPMDFGEJ@type?$AA@ 10021588     applicationsAccessor.obj
 0002:00000590       ??_C@_07BANDPJOM@caption?$AA@ 10021590     applicationsAccessor.obj
 0002:00000598       ??_C@_05PHLGJONK@title?$AA@ 10021598     applicationsAccessor.obj
 0002:000005a0       ??_C@_04DMJJIPAH@icon?$AA@ 100215a0     applicationsAccessor.obj
 0002:000005a8       ??_C@_07CPCPJPKL@version?$AA@ 100215a8     applicationsAccessor.obj
 0002:000005b0       ??_C@_02PIGFKFFE@?$CF1?$AA@ 100215b0     applicationsAccessor.obj
 0002:000005b4       ??_C@_03CGOPKBCD@app?$AA@  100215b4     applicationsAccessor.obj
 0002:000005b8       ??_C@_0BA@JFNIOLAK@string?5too?5long?$AA@ 100215b8     applicationsAccessor.obj
 0002:000005c8       ??_C@_0BI@CFPLBAOH@invalid?5string?5position?$AA@ 100215c8     applicationsAccessor.obj
 0002:000005e4       ??_SQDomDocument@@6B@      100215e4     bncs_config.obj
 0002:00000688       ??_7bncs_config@@6B@       10021688     bncs_config.obj
 0002:00000690       ??_7docCache@@6B@          10021690     bncs_config.obj
 0002:00000694       ??_C@_01LFCBOECM@?4?$AA@   10021694     bncs_config.obj
 0002:00000698       ??_C@_04GAOAGNCM@?4xml?$AA@ 10021698     bncs_config.obj
 0002:000006a0       ??_C@_08FKACIMPB@?1config?1?$AA@ 100216a0     bncs_config.obj
 0002:000006ac       ??_C@_09DDAHAMBK@CC_SYSTEM?$AA@ 100216ac     bncs_config.obj
 0002:000006b8       ??_C@_01KMDKNFGN@?1?$AA@   100216b8     bncs_config.obj
 0002:000006bc       ??_C@_07JBEBLGDD@CC_ROOT?$AA@ 100216bc     bncs_config.obj
 0002:000006c4       ??_C@_0BE@JONHPENG@map?1set?$DMT?$DO?5too?5long?$AA@ 100216c4     bncs_config.obj
 0002:000006dc       ??_7?$QValueListPrivate@VparamInfo@@@@6B@ 100216dc     instanceLookup.obj
 0002:000006e4       ??_7?$QValueListPrivate@VcomplexParam@@@@6B@ 100216e4     instanceLookup.obj
 0002:000006ec       ??_7?$QValueListPrivate@VcomplexInstance@@@@6B@ 100216ec     instanceLookup.obj
 0002:000006f4       ??_7?$QValueListPrivate@VinstanceInfo@@@@6B@ 100216f4     instanceLookup.obj
 0002:000006fc       ??_7?$QValueListPrivate@VdeviceTypeInfo@@@@6B@ 100216fc     instanceLookup.obj
 0002:00000704       ??_7?$QValueListPrivate@VcomplexType@@@@6B@ 10021704     instanceLookup.obj
 0002:0000070c       ??_7?$QValueListNode@VparamInfo@@@@6B@ 1002170c     instanceLookup.obj
 0002:00000714       ??_7?$QValueListNode@VcomplexParam@@@@6B@ 10021714     instanceLookup.obj
 0002:0000071c       ??_7?$QValueListNode@VcomplexInstance@@@@6B@ 1002171c     instanceLookup.obj
 0002:00000724       ??_7?$QValueListNode@VinstanceInfo@@@@6B@ 10021724     instanceLookup.obj
 0002:0000072c       ??_7?$QValueListNode@VdeviceTypeInfo@@@@6B@ 1002172c     instanceLookup.obj
 0002:00000734       ??_7?$QValueListNode@VcomplexType@@@@6B@ 10021734     instanceLookup.obj
 0002:0000073c       ??_7launchAccessor@@6B@    1002173c     launchAccessor.obj
 0002:0000078c       ??_C@_05LAPONLG@false?$AA@ 1002178c     launchAccessor.obj
 0002:00000794       ??_C@_04LOAJBDKD@true?$AA@ 10021794     launchAccessor.obj
 0002:0000079c       ??_C@_06OAFDKBLG@launch?$AA@ 1002179c     launchAccessor.obj
 0002:000007a4       ??_C@_03BFKAHOOJ@csi?$AA@  100217a4     launchAccessor.obj
 0002:000007a8       ??_C@_0O@BLEGCJOE@rebootoncrash?$AA@ 100217a8     launchAccessor.obj
 0002:000007b8       ??_C@_05EKJCMADO@delay?$AA@ 100217b8     launchAccessor.obj
 0002:000007c0       ??_C@_0P@MHGKLOBA@restartoncrash?$AA@ 100217c0     launchAccessor.obj
 0002:000007d0       ??_C@_0L@NJNAEGOO@workingdir?$AA@ 100217d0     launchAccessor.obj
 0002:000007dc       ??_C@_09PBNAMLIK@arguments?$AA@ 100217dc     launchAccessor.obj
 0002:000007e8       ??_C@_04MEMAJGDJ@name?$AA@ 100217e8     launchAccessor.obj
 0002:000007f0       ??_C@_0M@MBDKLJIJ@application?$AA@ 100217f0     launchAccessor.obj
 0002:000007fc       ??_C@_0M@DAIHPDMP@workstation?$AA@ 100217fc     launchAccessor.obj
 0002:00000808       ??_C@_07CFAKDIHP@app?5is?5?$AA@ 10021808     launchAccessor.obj
 0002:00000814       ??_7?$QValueListPrivate@VlaunchItem@@@@6B@ 10021814     launchAccessor.obj
 0002:0000081c       ??_7?$QValueListNode@VlaunchItem@@@@6B@ 1002181c     launchAccessor.obj
 0002:00000824       ??_7panelsetsAccessor@@6B@ 10021824     panelsetsAccessor.obj
 0002:00000874       ??_C@_09CHJNOOIL@panelsets?$AA@ 10021874     panelsetsAccessor.obj
 0002:00000880       ??_C@_05KJNJLLGA@level?$AA@ 10021880     panelsetsAccessor.obj
 0002:00000888       ??_C@_05ENKANFLO@class?$AA@ 10021888     panelsetsAccessor.obj
 0002:00000890       ??_C@_04OHJIHAFH@None?$AA@ 10021890     panelsetsAccessor.obj
 0002:00000898       ??_C@_05LJDNNBIK@param?$AA@ 10021898     panelsetsAccessor.obj
 0002:000008a0       ??_C@_04NHONDGDE@item?$AA@ 100218a0     panelsetsAccessor.obj
 0002:000008a8       ??_C@_04CGFJFPFD@none?$AA@ 100218a8     panelsetsAccessor.obj
 0002:000008b0       ??_C@_03KCHOJKKI@set?$AA@  100218b0     panelsetsAccessor.obj
 0002:000008b8       ??_7?$QValueListPrivate@VpanelsetItem@@@@6B@ 100218b8     panelsetsAccessor.obj
 0002:000008c0       ??_7?$QValueListNode@VpanelsetItem@@@@6B@ 100218c0     panelsetsAccessor.obj
 0002:000008c8       ??_7usersAccessor@@6B@     100218c8     usersAccessor.obj
 0002:00000918       ??_C@_05PEDPMJAL@users?$AA@ 10021918     usersAccessor.obj
 0002:00000920       ??_C@_08FGKDABPH@panelset?$AA@ 10021920     usersAccessor.obj
 0002:0000092c       ??_C@_06NODEDMPP@engset?$AA@ 1002192c     usersAccessor.obj
 0002:00000938       ??_7workstationsAccessor@@6B@ 10021938     workstationsAccessor.obj
 0002:00000988       ??_C@_0N@PPJHCOH@workstations?$AA@ 10021988     workstationsAccessor.obj
 0002:00000998       ??_C@_04CCHAHKJA@user?$AA@ 10021998     workstationsAccessor.obj
 0002:000009a4       ??_7workstationSettingsAccessor@@6B@ 100219a4     workstationSettingsAccessor.obj
 0002:000009f4       ??_C@_0BF@MIKOFJJI@workstation_settings?$AA@ 100219f4     workstationSettingsAccessor.obj
 0002:00000a0c       ??_C@_05MFEJDJP@value?$AA@ 10021a0c     workstationSettingsAccessor.obj
 0002:00000a14       ??_C@_07NDLGHPLM@setting?$AA@ 10021a14     workstationSettingsAccessor.obj
 0002:00000a20       ??_7?$QValueListPrivate@VworkstationSettingsItem@@@@6B@ 10021a20     workstationSettingsAccessor.obj
 0002:00000a28       ??_7?$QValueListNode@VworkstationSettingsItem@@@@6B@ 10021a28     workstationSettingsAccessor.obj
 0002:00000a2c       ??_C@_0BF@CEAGAIIH@applicationsAccessor?$AA@ 10021a2c     moc_applicationsAccessor.obj
 0002:00000a44       ??_C@_03ICHNJLJF@key?$AA@  10021a44     moc_applicationsAccessor.obj
 0002:00000a54       ??_C@_0P@HLEMGMCJ@captionChanged?$AA@ 10021a54     moc_applicationsAccessor.obj
 0002:00000a70       ??_C@_0N@LPHEECBP@titleChanged?$AA@ 10021a70     moc_applicationsAccessor.obj
 0002:00000a8c       ??_C@_0M@NFCJBEJD@typeChanged?$AA@ 10021a8c     moc_applicationsAccessor.obj
 0002:00000aa4       ??_C@_0M@FPDHCAHG@iconChanged?$AA@ 10021aa4     moc_applicationsAccessor.obj
 0002:00000abc       ??_C@_09LNNNGGGI@itemAdded?$AA@ 10021abc     moc_applicationsAccessor.obj
 0002:00000ad4       ??_C@_0M@BEKFOPFF@itemDeleted?$AA@ 10021ad4     moc_applicationsAccessor.obj
 0002:00000ae0       ??_C@_07LBHIGHIH@oldname?$AA@ 10021ae0     moc_applicationsAccessor.obj
 0002:00000ae8       ??_C@_07GNAIFCPP@newname?$AA@ 10021ae8     moc_applicationsAccessor.obj
 0002:00000afc       ??_C@_0M@DLCIMICH@itemRenamed?$AA@ 10021afc     moc_applicationsAccessor.obj
 0002:00000b14       ??_C@_05CFEJGMAI@dirty?$AA@ 10021b14     moc_applicationsAccessor.obj
 0002:00000b80       ??_C@_0CO@JHFJMNHO@captionChanged?$CIconst?5QString?$CG?0co@ 10021b80     moc_applicationsAccessor.obj
 0002:00000bb0       ??_C@_0CM@EHLFGLIE@titleChanged?$CIconst?5QString?$CG?0cons@ 10021bb0     moc_applicationsAccessor.obj
 0002:00000bdc       ??_C@_0CL@MLICEEAA@typeChanged?$CIconst?5QString?$CG?0const@ 10021bdc     moc_applicationsAccessor.obj
 0002:00000c08       ??_C@_0CL@OFKGJGPI@iconChanged?$CIconst?5QString?$CG?0const@ 10021c08     moc_applicationsAccessor.obj
 0002:00000c38       ??_C@_0FG@IGAGOLLE@itemAdded?$CIconst?5QString?$CG?0const?5Q@ 10021c38     moc_applicationsAccessor.obj
 0002:00000c90       ??_C@_0BM@OCHFFIGM@itemDeleted?$CIconst?5QString?$CG?$CJ?$AA@ 10021c90     moc_applicationsAccessor.obj
 0002:00000cac       ??_C@_0CL@HNKOOGKL@itemRenamed?$CIconst?5QString?$CG?0const@ 10021cac     moc_applicationsAccessor.obj
 0002:00000cd8       ??_C@_0M@KMMJPIFB@dirty?$CIbool?$CJ?$AA@ 10021cd8     moc_applicationsAccessor.obj
 0002:00000ce4       ??_C@_0P@LPBLMAPF@launchAccessor?$AA@ 10021ce4     moc_launchAccessor.obj
 0002:00000cf4       ??_C@_02FFBCHCAN@ws?$AA@   10021cf4     moc_launchAccessor.obj
 0002:00000cf8       ??_C@_03BCNGPMIN@roc?$AA@  10021cf8     moc_launchAccessor.obj
 0002:00000cfc       ??_C@_04DONFEANM@list?$AA@ 10021cfc     moc_launchAccessor.obj
 0002:00000d04       ??_C@_0P@KCINIILG@launchItemList?$AA@ 10021d04     moc_launchAccessor.obj
 0002:00000d20       ??_C@_0M@JKLCPKJ@launchAdded?$AA@ 10021d20     moc_launchAccessor.obj
 0002:00000d2c       ??_C@_05GFEDCNLG@wsOld?$AA@ 10021d2c     moc_launchAccessor.obj
 0002:00000d34       ??_C@_05LDMBDAMO@wsNew?$AA@ 10021d34     moc_launchAccessor.obj
 0002:00000d48       ??_C@_0O@OGMJGDGK@launchRenamed?$AA@ 10021d48     moc_launchAccessor.obj
 0002:00000d64       ??_C@_0O@MJEEEEBI@launchDeleted?$AA@ 10021d64     moc_launchAccessor.obj
 0002:00000d74       ??_C@_0L@POMONLCM@launchItem?$AA@ 10021d74     moc_launchAccessor.obj
 0002:00000d80       ??_C@_03PCBNCGFH@pos?$AA@  10021d80     moc_launchAccessor.obj
 0002:00000da8       ??_C@_0N@LODKOBNG@itemPromoted?$AA@ 10021da8     moc_launchAccessor.obj
 0002:00000dc4       ??_C@_0M@JFEJCEFB@itemDemoted?$AA@ 10021dc4     moc_launchAccessor.obj
 0002:00000de8       ??_C@_0L@KDGNANMD@csiChanged?$AA@ 10021de8     moc_launchAccessor.obj
 0002:00000e00       ??_C@_0L@GEKJPNDA@rocChanged?$AA@ 10021e00     moc_launchAccessor.obj
 0002:00000e0c       ??_C@_03DMHICLNI@row?$AA@  10021e0c     moc_launchAccessor.obj
 0002:00000e1c       ??_C@_0BD@BGLGHOFF@applicationChanged?$AA@ 10021e1c     moc_launchAccessor.obj
 0002:00000e3c       ??_C@_0BC@ELKKAHPM@workingdirChanged?$AA@ 10021e3c     moc_launchAccessor.obj
 0002:00000e5c       ??_C@_0BB@PDPLOPNN@argumentsChanged?$AA@ 10021e5c     moc_launchAccessor.obj
 0002:00000e7c       ??_C@_0N@KFEGLGBP@delayChanged?$AA@ 10021e7c     moc_launchAccessor.obj
 0002:00000f38       ??_C@_0EG@DFBPOOC@launchAdded?$CIconst?5QString?$CG?0const@ 10021f38     moc_launchAccessor.obj
 0002:00000f80       ??_C@_0CN@BEFKADHM@launchRenamed?$CIconst?5QString?$CG?0con@ 10021f80     moc_launchAccessor.obj
 0002:00000fb0       ??_C@_0EI@EDKJBFHH@launchDeleted?$CIconst?5QString?$CG?0con@ 10021fb0     moc_launchAccessor.obj
 0002:00000ff8       ??_C@_0DA@POKNPMKA@itemAdded?$CIconst?5QString?$CG?0const?5l@ 10021ff8     moc_launchAccessor.obj
 0002:00001028       ??_C@_0DC@FCJPMENL@itemDeleted?$CIconst?5QString?$CG?0const@ 10022028     moc_launchAccessor.obj
 0002:0000105c       ??_C@_0CB@IHCKEBEG@itemPromoted?$CIconst?5QString?$CG?0int?$CJ@ 1002205c     moc_launchAccessor.obj
 0002:00001080       ??_C@_0CA@FMMLHBPB@itemDemoted?$CIconst?5QString?$CG?0int?$CJ?$AA@ 10022080     moc_launchAccessor.obj
 0002:000010a0       ??_C@_0CK@DKOCFHKB@csiChanged?$CIconst?5QString?$CG?0const?5@ 100220a0     moc_launchAccessor.obj
 0002:000010cc       ??_C@_0CA@OLACBLMO@rocChanged?$CIconst?5QString?$CG?0bool?$CJ?$AA@ 100220cc     moc_launchAccessor.obj
 0002:000010ec       ??_C@_0DG@JFDMCPJJ@applicationChanged?$CIconst?5QString@ 100220ec     moc_launchAccessor.obj
 0002:00001124       ??_C@_0DF@FLCNJEMJ@workingdirChanged?$CIconst?5QString?$CG@ 10022124     moc_launchAccessor.obj
 0002:0000115c       ??_C@_0DE@MPJCHLNJ@argumentsChanged?$CIconst?5QString?$CG?0@ 1002215c     moc_launchAccessor.obj
 0002:00001190       ??_C@_0CF@IKLIOHMN@delayChanged?$CIconst?5QString?$CG?0int?0@ 10022190     moc_launchAccessor.obj
 0002:000011b8       ??_C@_0BC@GDEHMIMG@panelsetsAccessor?$AA@ 100221b8     moc_panelsetsAccessor.obj
 0002:000011cc       ??_C@_0BB@IKAEHNAG@panelsetItemList?$AA@ 100221cc     moc_panelsetsAccessor.obj
 0002:000011ec       ??_C@_0O@CGAIDNLL@panelsetAdded?$AA@ 100221ec     moc_panelsetsAccessor.obj
 0002:000011fc       ??_C@_0M@GFGEHCJM@panelsetOld?$AA@ 100221fc     moc_panelsetsAccessor.obj
 0002:00001208       ??_C@_0M@LDOGGPOE@panelsetNew?$AA@ 10022208     moc_panelsetsAccessor.obj
 0002:00001220       ??_C@_0BA@GNIEENFC@panelsetRenamed?$AA@ 10022220     moc_panelsetsAccessor.obj
 0002:0000123c       ??_C@_0BA@ECAJGKCA@panelsetDeleted?$AA@ 1002223c     moc_panelsetsAccessor.obj
 0002:0000124c       ??_C@_0N@DCKAEOBA@panelsetItem?$AA@ 1002224c     moc_panelsetsAccessor.obj
 0002:0000125c       ??_C@_08OAGMDKAF@position?$AA@ 1002225c     moc_panelsetsAccessor.obj
 0002:00001308       ??_C@_0EF@CBBIIPAA@panelsetAdded?$CIconst?5QString?$CG?0con@ 10022308     moc_panelsetsAccessor.obj
 0002:00001350       ??_C@_0CP@ODPANJHP@panelsetRenamed?$CIconst?5QString?$CG?0c@ 10022350     moc_panelsetsAccessor.obj
 0002:00001380       ??_C@_0EH@EJMGAGEB@panelsetDeleted?$CIconst?5QString?$CG?0c@ 10022380     moc_panelsetsAccessor.obj
 0002:000013c8       ??_C@_0DC@GJIKMPHC@itemAdded?$CIconst?5QString?$CG?0const?5p@ 100223c8     moc_panelsetsAccessor.obj
 0002:000013fc       ??_C@_0DE@INEDHLOD@itemDeleted?$CIconst?5QString?$CG?0const@ 100223fc     moc_panelsetsAccessor.obj
 0002:00001430       ??_C@_0DF@NEJLAMMK@itemPromoted?$CIconst?5QString?$CG?0cons@ 10022430     moc_panelsetsAccessor.obj
 0002:00001468       ??_C@_0DE@HCDBOHAO@itemDemoted?$CIconst?5QString?$CG?0const@ 10022468     moc_panelsetsAccessor.obj
 0002:0000149c       ??_C@_0O@KAOHPPGC@usersAccessor?$AA@ 1002249c     moc_usersAccessor.obj
 0002:000014b8       ??_C@_0BA@KAPJNIEH@panelsetChanged?$AA@ 100224b8     moc_usersAccessor.obj
 0002:000014d4       ??_C@_0O@GADJOHIH@engsetChanged?$AA@ 100224d4     moc_usersAccessor.obj
 0002:00001560       ??_C@_0CP@LFBKFJMN@panelsetChanged?$CIconst?5QString?$CG?0c@ 10022560     moc_usersAccessor.obj
 0002:00001590       ??_C@_0CN@JEAAGJAN@engsetChanged?$CIconst?5QString?$CG?0con@ 10022590     moc_usersAccessor.obj
 0002:000015c0       ??_C@_0DI@KCPJKJKG@itemAdded?$CIconst?5QString?$CG?0const?5Q@ 100225c0     moc_usersAccessor.obj
 0002:000015f8       ??_C@_0BF@KOLPEIPD@workstationsAccessor?$AA@ 100225f8     moc_workstationsAccessor.obj
 0002:0000161c       ??_C@_0M@PFGDDONI@nameChanged?$AA@ 1002261c     moc_workstationsAccessor.obj
 0002:00001634       ??_C@_0M@KFAFGFGM@userChanged?$AA@ 10022634     moc_workstationsAccessor.obj
 0002:000016b8       ??_C@_0CL@CJDPEJLB@nameChanged?$CIconst?5QString?$CG?0const@ 100226b8     moc_workstationsAccessor.obj
 0002:000016e4       ??_C@_0CL@LGIIJPMH@userChanged?$CIconst?5QString?$CG?0const@ 100226e4     moc_workstationsAccessor.obj
 0002:00001710       ??_C@_0BM@KBHKEIFD@workstationSettingsAccessor?$AA@ 10022710     moc_workstationSettingsAccessor.obj
 0002:0000172c       ??_C@_0BM@LMOMAABA@workstationSettingsItemList?$AA@ 1002272c     moc_workstationSettingsAccessor.obj
 0002:00001754       ??_C@_0BB@JHNFDCMN@workstationAdded?$AA@ 10022754     moc_workstationSettingsAccessor.obj
 0002:00001774       ??_C@_0BD@IEFODPGO@workstationRenamed?$AA@ 10022774     moc_workstationSettingsAccessor.obj
 0002:00001794       ??_C@_0BD@KLNDBIBM@workstationDeleted?$AA@ 10022794     moc_workstationSettingsAccessor.obj
 0002:000017a8       ??_C@_0BI@HEOGEJDC@workstationSettingsItem?$AA@ 100227a8     moc_workstationSettingsAccessor.obj
 0002:00001830       ??_C@_0EE@NMMNNDAH@workstationAdded?$CIconst?5QString?$CG?0@ 10022830     moc_workstationSettingsAccessor.obj
 0002:00001874       ??_C@_0DC@EPHKBPJO@workstationRenamed?$CIconst?5QString@ 10022874     moc_workstationSettingsAccessor.obj
 0002:000018a8       ??_C@_0EG@GNJNNMLD@workstationDeleted?$CIconst?5QString@ 100228a8     moc_workstationSettingsAccessor.obj
 0002:000018f0       ??_C@_0DJ@DGCCBAGH@itemAdded?$CIconst?5QString?$CG?0const?5w@ 100228f0     moc_workstationSettingsAccessor.obj
 0002:0000192c       ??_C@_0DL@EDNOGAEJ@itemDeleted?$CIconst?5QString?$CG?0const@ 1002292c     moc_workstationSettingsAccessor.obj
 0002:0000196c       ??_7type_info@@6B@         1002296c     MSVCRT:ti_inst.obj
 0002:00001970       __pRawDllMain              10022970     MSVCRT:crtdll.obj
 0002:00001970       __pDefaultRawDllMain       10022970     MSVCRT:crtdll.obj
 0002:00001980       __load_config_used         10022980     MSVCRT:loadcfg.obj
 0002:000019c8       ??_R4QDomNode@@6B@         100229c8     applicationsAccessor.obj
 0002:000019dc       ??_R3QDomNode@@8           100229dc     applicationsAccessor.obj
 0002:000019ec       ??_R2QDomNode@@8           100229ec     applicationsAccessor.obj
 0002:000019f4       ??_R1A@?0A@EA@QDomNode@@8  100229f4     applicationsAccessor.obj
 0002:00001a10       ??_R4applicationsAccessor@@6B@ 10022a10     applicationsAccessor.obj
 0002:00001a24       ??_R3applicationsAccessor@@8 10022a24     applicationsAccessor.obj
 0002:00001a34       ??_R2applicationsAccessor@@8 10022a34     applicationsAccessor.obj
 0002:00001a44       ??_R1A@?0A@EA@applicationsAccessor@@8 10022a44     applicationsAccessor.obj
 0002:00001a60       ??_R1A@?0A@EA@QObject@@8   10022a60     applicationsAccessor.obj
 0002:00001a7c       ??_R3QObject@@8            10022a7c     applicationsAccessor.obj
 0002:00001a8c       ??_R2QObject@@8            10022a8c     applicationsAccessor.obj
 0002:00001a98       ??_R13?0A@EA@Qt@@8         10022a98     applicationsAccessor.obj
 0002:00001ab4       ??_R3Qt@@8                 10022ab4     applicationsAccessor.obj
 0002:00001ac4       ??_R2Qt@@8                 10022ac4     applicationsAccessor.obj
 0002:00001acc       ??_R1A@?0A@EA@Qt@@8        10022acc     applicationsAccessor.obj
 0002:00001ae8       ??_R4error_category@std@@6B@ 10022ae8     applicationsAccessor.obj
 0002:00001afc       ??_R3error_category@std@@8 10022afc     applicationsAccessor.obj
 0002:00001b0c       ??_R2error_category@std@@8 10022b0c     applicationsAccessor.obj
 0002:00001b14       ??_R1A@?0A@EA@error_category@std@@8 10022b14     applicationsAccessor.obj
 0002:00001b30       ??_R4_Generic_error_category@std@@6B@ 10022b30     applicationsAccessor.obj
 0002:00001b44       ??_R3_Generic_error_category@std@@8 10022b44     applicationsAccessor.obj
 0002:00001b54       ??_R2_Generic_error_category@std@@8 10022b54     applicationsAccessor.obj
 0002:00001b60       ??_R1A@?0A@EA@_Generic_error_category@std@@8 10022b60     applicationsAccessor.obj
 0002:00001b7c       ??_R4_Iostream_error_category@std@@6B@ 10022b7c     applicationsAccessor.obj
 0002:00001b90       ??_R3_Iostream_error_category@std@@8 10022b90     applicationsAccessor.obj
 0002:00001ba0       ??_R2_Iostream_error_category@std@@8 10022ba0     applicationsAccessor.obj
 0002:00001bb0       ??_R1A@?0A@EA@_Iostream_error_category@std@@8 10022bb0     applicationsAccessor.obj
 0002:00001bcc       ??_R4_System_error_category@std@@6B@ 10022bcc     applicationsAccessor.obj
 0002:00001be0       ??_R3_System_error_category@std@@8 10022be0     applicationsAccessor.obj
 0002:00001bf0       ??_R2_System_error_category@std@@8 10022bf0     applicationsAccessor.obj
 0002:00001c00       ??_R1A@?0A@EA@_System_error_category@std@@8 10022c00     applicationsAccessor.obj
 0002:00001c1c       ??_R4QDomDocument@@6B@     10022c1c     bncs_config.obj
 0002:00001c30       ??_R3QDomDocument@@8       10022c30     bncs_config.obj
 0002:00001c40       ??_R2QDomDocument@@8       10022c40     bncs_config.obj
 0002:00001c4c       ??_R1A@?0A@EA@QDomDocument@@8 10022c4c     bncs_config.obj
 0002:00001c68       ??_R4bncs_config@@6B@      10022c68     bncs_config.obj
 0002:00001c7c       ??_R3bncs_config@@8        10022c7c     bncs_config.obj
 0002:00001c8c       ??_R2bncs_config@@8        10022c8c     bncs_config.obj
 0002:00001c94       ??_R1A@?0A@EA@bncs_config@@8 10022c94     bncs_config.obj
 0002:00001cb0       ??_R4docCache@@6B@         10022cb0     bncs_config.obj
 0002:00001cc4       ??_R3docCache@@8           10022cc4     bncs_config.obj
 0002:00001cd4       ??_R2docCache@@8           10022cd4     bncs_config.obj
 0002:00001cf8       ??_R1A@?0A@EA@docCache@@8  10022cf8     bncs_config.obj
 0002:00001d14       ??_R13?0A@EA@?$map@VQString@@PAVcachedData@@U?$less@VQString@@@std@@V?$allocator@U?$pair@$$CBVQString@@PAVcachedData@@@std@@@4@@std@@8 10022d14     bncs_config.obj
 0002:00001d30       ??_R3?$map@VQString@@PAVcachedData@@U?$less@VQString@@@std@@V?$allocator@U?$pair@$$CBVQString@@PAVcachedData@@@std@@@4@@std@@8 10022d30     bncs_config.obj
 0002:00001d40       ??_R2?$map@VQString@@PAVcachedData@@U?$less@VQString@@@std@@V?$allocator@U?$pair@$$CBVQString@@PAVcachedData@@@std@@@4@@std@@8 10022d40     bncs_config.obj
 0002:00001d60       ??_R1A@?0A@EA@?$map@VQString@@PAVcachedData@@U?$less@VQString@@@std@@V?$allocator@U?$pair@$$CBVQString@@PAVcachedData@@@std@@@4@@std@@8 10022d60     bncs_config.obj
 0002:00001d7c       ??_R1A@?0A@EA@?$_Tree@V?$_Tmap_traits@VQString@@PAVcachedData@@U?$less@VQString@@@std@@V?$allocator@U?$pair@$$CBVQString@@PAVcachedData@@@std@@@4@$0A@@std@@@std@@8 10022d7c     bncs_config.obj
 0002:00001d98       ??_R3?$_Tree@V?$_Tmap_traits@VQString@@PAVcachedData@@U?$less@VQString@@@std@@V?$allocator@U?$pair@$$CBVQString@@PAVcachedData@@@std@@@4@$0A@@std@@@std@@8 10022d98     bncs_config.obj
 0002:00001da8       ??_R2?$_Tree@V?$_Tmap_traits@VQString@@PAVcachedData@@U?$less@VQString@@@std@@V?$allocator@U?$pair@$$CBVQString@@PAVcachedData@@@std@@@4@$0A@@std@@@std@@8 10022da8     bncs_config.obj
 0002:00001dc4       ??_R1A@?0A@EA@?$_Tree_comp@$0A@V?$_Tmap_traits@VQString@@PAVcachedData@@U?$less@VQString@@@std@@V?$allocator@U?$pair@$$CBVQString@@PAVcachedData@@@std@@@4@$0A@@std@@@std@@8 10022dc4     bncs_config.obj
 0002:00001de0       ??_R3?$_Tree_comp@$0A@V?$_Tmap_traits@VQString@@PAVcachedData@@U?$less@VQString@@@std@@V?$allocator@U?$pair@$$CBVQString@@PAVcachedData@@@std@@@4@$0A@@std@@@std@@8 10022de0     bncs_config.obj
 0002:00001df0       ??_R2?$_Tree_comp@$0A@V?$_Tmap_traits@VQString@@PAVcachedData@@U?$less@VQString@@@std@@V?$allocator@U?$pair@$$CBVQString@@PAVcachedData@@@std@@@4@$0A@@std@@@std@@8 10022df0     bncs_config.obj
 0002:00001e08       ??_R1A@?0A@EA@?$_Tree_buy@U?$pair@$$CBVQString@@PAVcachedData@@@std@@V?$allocator@U?$pair@$$CBVQString@@PAVcachedData@@@std@@@2@@std@@8 10022e08     bncs_config.obj
 0002:00001e24       ??_R3?$_Tree_buy@U?$pair@$$CBVQString@@PAVcachedData@@@std@@V?$allocator@U?$pair@$$CBVQString@@PAVcachedData@@@std@@@2@@std@@8 10022e24     bncs_config.obj
 0002:00001e34       ??_R2?$_Tree_buy@U?$pair@$$CBVQString@@PAVcachedData@@@std@@V?$allocator@U?$pair@$$CBVQString@@PAVcachedData@@@std@@@2@@std@@8 10022e34     bncs_config.obj
 0002:00001e48       ??_R1A@?0A@EA@?$_Tree_alloc@$0A@U?$_Tree_base_types@U?$pair@$$CBVQString@@PAVcachedData@@@std@@V?$allocator@U?$pair@$$CBVQString@@PAVcachedData@@@std@@@2@@std@@@std@@8 10022e48     bncs_config.obj
 0002:00001e64       ??_R3?$_Tree_alloc@$0A@U?$_Tree_base_types@U?$pair@$$CBVQString@@PAVcachedData@@@std@@V?$allocator@U?$pair@$$CBVQString@@PAVcachedData@@@std@@@2@@std@@@std@@8 10022e64     bncs_config.obj
 0002:00001e74       ??_R2?$_Tree_alloc@$0A@U?$_Tree_base_types@U?$pair@$$CBVQString@@PAVcachedData@@@std@@V?$allocator@U?$pair@$$CBVQString@@PAVcachedData@@@std@@@2@@std@@@std@@8 10022e74     bncs_config.obj
 0002:00001e84       ??_R1A@?0A@EA@?$_Tree_val@U?$_Tree_simple_types@U?$pair@$$CBVQString@@PAVcachedData@@@std@@@std@@@std@@8 10022e84     bncs_config.obj
 0002:00001ea0       ??_R3?$_Tree_val@U?$_Tree_simple_types@U?$pair@$$CBVQString@@PAVcachedData@@@std@@@std@@@std@@8 10022ea0     bncs_config.obj
 0002:00001eb0       ??_R2?$_Tree_val@U?$_Tree_simple_types@U?$pair@$$CBVQString@@PAVcachedData@@@std@@@std@@@std@@8 10022eb0     bncs_config.obj
 0002:00001ebc       ??_R1A@?0A@EA@_Container_base0@std@@8 10022ebc     bncs_config.obj
 0002:00001ed8       ??_R3_Container_base0@std@@8 10022ed8     bncs_config.obj
 0002:00001ee8       ??_R2_Container_base0@std@@8 10022ee8     bncs_config.obj
 0002:00001ef0       ??_R13?0A@EA@?$_Tree@V?$_Tmap_traits@VQString@@PAVcachedData@@U?$less@VQString@@@std@@V?$allocator@U?$pair@$$CBVQString@@PAVcachedData@@@std@@@4@$0A@@std@@@std@@8 10022ef0     bncs_config.obj
 0002:00001f0c       ??_R13?0A@EA@?$_Tree_comp@$0A@V?$_Tmap_traits@VQString@@PAVcachedData@@U?$less@VQString@@@std@@V?$allocator@U?$pair@$$CBVQString@@PAVcachedData@@@std@@@4@$0A@@std@@@std@@8 10022f0c     bncs_config.obj
 0002:00001f28       ??_R13?0A@EA@?$_Tree_buy@U?$pair@$$CBVQString@@PAVcachedData@@@std@@V?$allocator@U?$pair@$$CBVQString@@PAVcachedData@@@std@@@2@@std@@8 10022f28     bncs_config.obj
 0002:00001f44       ??_R13?0A@EA@?$_Tree_alloc@$0A@U?$_Tree_base_types@U?$pair@$$CBVQString@@PAVcachedData@@@std@@V?$allocator@U?$pair@$$CBVQString@@PAVcachedData@@@std@@@2@@std@@@std@@8 10022f44     bncs_config.obj
 0002:00001f60       ??_R13?0A@EA@?$_Tree_val@U?$_Tree_simple_types@U?$pair@$$CBVQString@@PAVcachedData@@@std@@@std@@@std@@8 10022f60     bncs_config.obj
 0002:00001f7c       ??_R13?0A@EA@_Container_base0@std@@8 10022f7c     bncs_config.obj
 0002:00001f98       ??_R13?0A@EA@QShared@@8    10022f98     instanceLookup.obj
 0002:00001fb4       ??_R3QShared@@8            10022fb4     instanceLookup.obj
 0002:00001fc4       ??_R2QShared@@8            10022fc4     instanceLookup.obj
 0002:00001fcc       ??_R1A@?0A@EA@QShared@@8   10022fcc     instanceLookup.obj
 0002:00001fe8       ??_R4?$QValueListPrivate@VparamInfo@@@@6B@ 10022fe8     instanceLookup.obj
 0002:00001ffc       ??_R3?$QValueListPrivate@VparamInfo@@@@8 10022ffc     instanceLookup.obj
 0002:0000200c       ??_R2?$QValueListPrivate@VparamInfo@@@@8 1002300c     instanceLookup.obj
 0002:00002018       ??_R1A@?0A@EA@?$QValueListPrivate@VparamInfo@@@@8 10023018     instanceLookup.obj
 0002:00002034       ??_R4?$QValueListNode@VparamInfo@@@@6B@ 10023034     instanceLookup.obj
 0002:00002048       ??_R3?$QValueListNode@VparamInfo@@@@8 10023048     instanceLookup.obj
 0002:00002058       ??_R2?$QValueListNode@VparamInfo@@@@8 10023058     instanceLookup.obj
 0002:00002060       ??_R1A@?0A@EA@?$QValueListNode@VparamInfo@@@@8 10023060     instanceLookup.obj
 0002:0000207c       ??_R4?$QValueListPrivate@VcomplexParam@@@@6B@ 1002307c     instanceLookup.obj
 0002:00002090       ??_R3?$QValueListPrivate@VcomplexParam@@@@8 10023090     instanceLookup.obj
 0002:000020a0       ??_R2?$QValueListPrivate@VcomplexParam@@@@8 100230a0     instanceLookup.obj
 0002:000020ac       ??_R1A@?0A@EA@?$QValueListPrivate@VcomplexParam@@@@8 100230ac     instanceLookup.obj
 0002:000020c8       ??_R4?$QValueListNode@VcomplexParam@@@@6B@ 100230c8     instanceLookup.obj
 0002:000020dc       ??_R3?$QValueListNode@VcomplexParam@@@@8 100230dc     instanceLookup.obj
 0002:000020ec       ??_R2?$QValueListNode@VcomplexParam@@@@8 100230ec     instanceLookup.obj
 0002:000020f4       ??_R1A@?0A@EA@?$QValueListNode@VcomplexParam@@@@8 100230f4     instanceLookup.obj
 0002:00002110       ??_R4?$QValueListPrivate@VcomplexInstance@@@@6B@ 10023110     instanceLookup.obj
 0002:00002124       ??_R3?$QValueListPrivate@VcomplexInstance@@@@8 10023124     instanceLookup.obj
 0002:00002134       ??_R2?$QValueListPrivate@VcomplexInstance@@@@8 10023134     instanceLookup.obj
 0002:00002140       ??_R1A@?0A@EA@?$QValueListPrivate@VcomplexInstance@@@@8 10023140     instanceLookup.obj
 0002:0000215c       ??_R4?$QValueListNode@VcomplexInstance@@@@6B@ 1002315c     instanceLookup.obj
 0002:00002170       ??_R3?$QValueListNode@VcomplexInstance@@@@8 10023170     instanceLookup.obj
 0002:00002180       ??_R2?$QValueListNode@VcomplexInstance@@@@8 10023180     instanceLookup.obj
 0002:00002188       ??_R1A@?0A@EA@?$QValueListNode@VcomplexInstance@@@@8 10023188     instanceLookup.obj
 0002:000021a4       ??_R4?$QValueListPrivate@VinstanceInfo@@@@6B@ 100231a4     instanceLookup.obj
 0002:000021b8       ??_R3?$QValueListPrivate@VinstanceInfo@@@@8 100231b8     instanceLookup.obj
 0002:000021c8       ??_R2?$QValueListPrivate@VinstanceInfo@@@@8 100231c8     instanceLookup.obj
 0002:000021d4       ??_R1A@?0A@EA@?$QValueListPrivate@VinstanceInfo@@@@8 100231d4     instanceLookup.obj
 0002:000021f0       ??_R4?$QValueListNode@VinstanceInfo@@@@6B@ 100231f0     instanceLookup.obj
 0002:00002204       ??_R3?$QValueListNode@VinstanceInfo@@@@8 10023204     instanceLookup.obj
 0002:00002214       ??_R2?$QValueListNode@VinstanceInfo@@@@8 10023214     instanceLookup.obj
 0002:0000221c       ??_R1A@?0A@EA@?$QValueListNode@VinstanceInfo@@@@8 1002321c     instanceLookup.obj
 0002:00002238       ??_R4?$QValueListPrivate@VdeviceTypeInfo@@@@6B@ 10023238     instanceLookup.obj
 0002:0000224c       ??_R3?$QValueListPrivate@VdeviceTypeInfo@@@@8 1002324c     instanceLookup.obj
 0002:0000225c       ??_R2?$QValueListPrivate@VdeviceTypeInfo@@@@8 1002325c     instanceLookup.obj
 0002:00002268       ??_R1A@?0A@EA@?$QValueListPrivate@VdeviceTypeInfo@@@@8 10023268     instanceLookup.obj
 0002:00002284       ??_R4?$QValueListNode@VdeviceTypeInfo@@@@6B@ 10023284     instanceLookup.obj
 0002:00002298       ??_R3?$QValueListNode@VdeviceTypeInfo@@@@8 10023298     instanceLookup.obj
 0002:000022a8       ??_R2?$QValueListNode@VdeviceTypeInfo@@@@8 100232a8     instanceLookup.obj
 0002:000022b0       ??_R1A@?0A@EA@?$QValueListNode@VdeviceTypeInfo@@@@8 100232b0     instanceLookup.obj
 0002:000022cc       ??_R4?$QValueListPrivate@VcomplexType@@@@6B@ 100232cc     instanceLookup.obj
 0002:000022e0       ??_R3?$QValueListPrivate@VcomplexType@@@@8 100232e0     instanceLookup.obj
 0002:000022f0       ??_R2?$QValueListPrivate@VcomplexType@@@@8 100232f0     instanceLookup.obj
 0002:000022fc       ??_R1A@?0A@EA@?$QValueListPrivate@VcomplexType@@@@8 100232fc     instanceLookup.obj
 0002:00002318       ??_R4?$QValueListNode@VcomplexType@@@@6B@ 10023318     instanceLookup.obj
 0002:0000232c       ??_R3?$QValueListNode@VcomplexType@@@@8 1002332c     instanceLookup.obj
 0002:0000233c       ??_R2?$QValueListNode@VcomplexType@@@@8 1002333c     instanceLookup.obj
 0002:00002344       ??_R1A@?0A@EA@?$QValueListNode@VcomplexType@@@@8 10023344     instanceLookup.obj
 0002:00002360       ??_R4launchAccessor@@6B@   10023360     launchAccessor.obj
 0002:00002374       ??_R3launchAccessor@@8     10023374     launchAccessor.obj
 0002:00002384       ??_R2launchAccessor@@8     10023384     launchAccessor.obj
 0002:00002394       ??_R1A@?0A@EA@launchAccessor@@8 10023394     launchAccessor.obj
 0002:000023b0       ??_R4?$QValueListPrivate@VlaunchItem@@@@6B@ 100233b0     launchAccessor.obj
 0002:000023c4       ??_R3?$QValueListPrivate@VlaunchItem@@@@8 100233c4     launchAccessor.obj
 0002:000023d4       ??_R2?$QValueListPrivate@VlaunchItem@@@@8 100233d4     launchAccessor.obj
 0002:000023e0       ??_R1A@?0A@EA@?$QValueListPrivate@VlaunchItem@@@@8 100233e0     launchAccessor.obj
 0002:000023fc       ??_R4?$QValueListNode@VlaunchItem@@@@6B@ 100233fc     launchAccessor.obj
 0002:00002410       ??_R3?$QValueListNode@VlaunchItem@@@@8 10023410     launchAccessor.obj
 0002:00002420       ??_R2?$QValueListNode@VlaunchItem@@@@8 10023420     launchAccessor.obj
 0002:00002428       ??_R1A@?0A@EA@?$QValueListNode@VlaunchItem@@@@8 10023428     launchAccessor.obj
 0002:00002444       ??_R4panelsetsAccessor@@6B@ 10023444     panelsetsAccessor.obj
 0002:00002458       ??_R3panelsetsAccessor@@8  10023458     panelsetsAccessor.obj
 0002:00002468       ??_R2panelsetsAccessor@@8  10023468     panelsetsAccessor.obj
 0002:00002478       ??_R1A@?0A@EA@panelsetsAccessor@@8 10023478     panelsetsAccessor.obj
 0002:00002494       ??_R4?$QValueListPrivate@VpanelsetItem@@@@6B@ 10023494     panelsetsAccessor.obj
 0002:000024a8       ??_R3?$QValueListPrivate@VpanelsetItem@@@@8 100234a8     panelsetsAccessor.obj
 0002:000024b8       ??_R2?$QValueListPrivate@VpanelsetItem@@@@8 100234b8     panelsetsAccessor.obj
 0002:000024c4       ??_R1A@?0A@EA@?$QValueListPrivate@VpanelsetItem@@@@8 100234c4     panelsetsAccessor.obj
 0002:000024e0       ??_R4?$QValueListNode@VpanelsetItem@@@@6B@ 100234e0     panelsetsAccessor.obj
 0002:000024f4       ??_R3?$QValueListNode@VpanelsetItem@@@@8 100234f4     panelsetsAccessor.obj
 0002:00002504       ??_R2?$QValueListNode@VpanelsetItem@@@@8 10023504     panelsetsAccessor.obj
 0002:0000250c       ??_R1A@?0A@EA@?$QValueListNode@VpanelsetItem@@@@8 1002350c     panelsetsAccessor.obj
 0002:00002528       ??_R4usersAccessor@@6B@    10023528     usersAccessor.obj
 0002:0000253c       ??_R3usersAccessor@@8      1002353c     usersAccessor.obj
 0002:0000254c       ??_R2usersAccessor@@8      1002354c     usersAccessor.obj
 0002:0000255c       ??_R1A@?0A@EA@usersAccessor@@8 1002355c     usersAccessor.obj
 0002:00002578       ??_R4workstationsAccessor@@6B@ 10023578     workstationsAccessor.obj
 0002:0000258c       ??_R3workstationsAccessor@@8 1002358c     workstationsAccessor.obj
 0002:0000259c       ??_R2workstationsAccessor@@8 1002359c     workstationsAccessor.obj
 0002:000025ac       ??_R1A@?0A@EA@workstationsAccessor@@8 100235ac     workstationsAccessor.obj
 0002:000025c8       ??_R4workstationSettingsAccessor@@6B@ 100235c8     workstationSettingsAccessor.obj
 0002:000025dc       ??_R3workstationSettingsAccessor@@8 100235dc     workstationSettingsAccessor.obj
 0002:000025ec       ??_R2workstationSettingsAccessor@@8 100235ec     workstationSettingsAccessor.obj
 0002:000025fc       ??_R1A@?0A@EA@workstationSettingsAccessor@@8 100235fc     workstationSettingsAccessor.obj
 0002:00002618       ??_R4?$QValueListPrivate@VworkstationSettingsItem@@@@6B@ 10023618     workstationSettingsAccessor.obj
 0002:0000262c       ??_R3?$QValueListPrivate@VworkstationSettingsItem@@@@8 1002362c     workstationSettingsAccessor.obj
 0002:0000263c       ??_R2?$QValueListPrivate@VworkstationSettingsItem@@@@8 1002363c     workstationSettingsAccessor.obj
 0002:00002648       ??_R1A@?0A@EA@?$QValueListPrivate@VworkstationSettingsItem@@@@8 10023648     workstationSettingsAccessor.obj
 0002:00002664       ??_R4?$QValueListNode@VworkstationSettingsItem@@@@6B@ 10023664     workstationSettingsAccessor.obj
 0002:00002678       ??_R3?$QValueListNode@VworkstationSettingsItem@@@@8 10023678     workstationSettingsAccessor.obj
 0002:00002688       ??_R2?$QValueListNode@VworkstationSettingsItem@@@@8 10023688     workstationSettingsAccessor.obj
 0002:00002690       ??_R1A@?0A@EA@?$QValueListNode@VworkstationSettingsItem@@@@8 10023690     workstationSettingsAccessor.obj
 0002:000026ac       ??_R4type_info@@6B@        100236ac     MSVCRT:ti_inst.obj
 0002:000026c0       ??_R3type_info@@8          100236c0     MSVCRT:ti_inst.obj
 0002:000026d0       ??_R2type_info@@8          100236d0     MSVCRT:ti_inst.obj
 0002:000026d8       ??_R1A@?0A@EA@type_info@@8 100236d8     MSVCRT:ti_inst.obj
 0002:000026f4       ___rtc_iaa                 100236f4     MSVCRT:initsect.obj
 0002:000026f8       ___rtc_izz                 100236f8     MSVCRT:initsect.obj
 0002:000026fc       ___rtc_taa                 100236fc     MSVCRT:initsect.obj
 0002:00002700       ___rtc_tzz                 10023700     MSVCRT:initsect.obj
 0002:0000eaf4       __IMPORT_DESCRIPTOR_qt-mt323 1002faf4     qt-mt323:qt-mt323.dll
 0002:0000eb08       __IMPORT_DESCRIPTOR_bncs_string 1002fb08     bncs_string:bncs_string.dll
 0002:0000eb1c       __IMPORT_DESCRIPTOR_bncs_cachedData 1002fb1c     bncs_cachedData:bncs_cachedData.dll
 0002:0000eb30       __IMPORT_DESCRIPTOR_MSVCP120 1002fb30     msvcprt:MSVCP120.dll
 0002:0000eb44       __IMPORT_DESCRIPTOR_MSVCR120 1002fb44     MSVCRT:MSVCR120.dll
 0002:0000eb58       __IMPORT_DESCRIPTOR_KERNEL32 1002fb58     kernel32:KERNEL32.dll
 0002:0000eb6c       __NULL_IMPORT_DESCRIPTOR   1002fb6c     qt-mt323:qt-mt323.dll
 0003:00000000       ?_Generic_object@?$_Error_objects@H@std@@2V_Generic_error_category@2@A 10032000     applicationsAccessor.obj
 0003:00000004       ?_Iostream_object@?$_Error_objects@H@std@@2V_Iostream_error_category@2@A 10032004     applicationsAccessor.obj
 0003:00000008       ?_System_object@?$_Error_objects@H@std@@2V_System_error_category@2@A 10032008     applicationsAccessor.obj
 0003:00000670       ___security_cookie         10032670     MSVCRT:gs_cookie.obj
 0003:00000674       ___security_cookie_complement 10032674     MSVCRT:gs_cookie.obj
 0003:00000680       ___native_dllmain_reason   10032680     MSVCRT:natstart.obj
 0003:00000688       ??_R0?AVQDomNode@@@8       10032688     applicationsAccessor.obj
 0003:000006a0       ??_R0?AVapplicationsAccessor@@@8 100326a0     applicationsAccessor.obj
 0003:000006c4       ??_R0?AVQObject@@@8        100326c4     applicationsAccessor.obj
 0003:000006dc       ??_R0?AVQt@@@8             100326dc     applicationsAccessor.obj
 0003:000006f0       ??_R0?AVerror_category@std@@@8 100326f0     applicationsAccessor.obj
 0003:00000714       ??_R0?AV_Generic_error_category@std@@@8 10032714     applicationsAccessor.obj
 0003:00000740       ??_R0?AV_Iostream_error_category@std@@@8 10032740     applicationsAccessor.obj
 0003:0000076c       ??_R0?AV_System_error_category@std@@@8 1003276c     applicationsAccessor.obj
 0003:00000798       ??_R0?AVQDomDocument@@@8   10032798     bncs_config.obj
 0003:000007b4       ??_R0?AVbncs_config@@@8    100327b4     bncs_config.obj
 0003:000007d0       ??_R0?AVdocCache@@@8       100327d0     bncs_config.obj
 0003:000007e8       ??_R0?AV?$map@VQString@@PAVcachedData@@U?$less@VQString@@@std@@V?$allocator@U?$pair@$$CBVQString@@PAVcachedData@@@std@@@4@@std@@@8 100327e8     bncs_config.obj
 0003:00000870       ??_R0?AV?$_Tree@V?$_Tmap_traits@VQString@@PAVcachedData@@U?$less@VQString@@@std@@V?$allocator@U?$pair@$$CBVQString@@PAVcachedData@@@std@@@4@$0A@@std@@@std@@@8 10032870     bncs_config.obj
 0003:00000918       ??_R0?AV?$_Tree_comp@$0A@V?$_Tmap_traits@VQString@@PAVcachedData@@U?$less@VQString@@@std@@V?$allocator@U?$pair@$$CBVQString@@PAVcachedData@@@std@@@4@$0A@@std@@@std@@@8 10032918     bncs_config.obj
 0003:000009c8       ??_R0?AV?$_Tree_buy@U?$pair@$$CBVQString@@PAVcachedData@@@std@@V?$allocator@U?$pair@$$CBVQString@@PAVcachedData@@@std@@@2@@std@@@8 100329c8     bncs_config.obj
 0003:00000a50       ??_R0?AV?$_Tree_alloc@$0A@U?$_Tree_base_types@U?$pair@$$CBVQString@@PAVcachedData@@@std@@V?$allocator@U?$pair@$$CBVQString@@PAVcachedData@@@std@@@2@@std@@@std@@@8 10032a50     bncs_config.obj
 0003:00000af8       ??_R0?AV?$_Tree_val@U?$_Tree_simple_types@U?$pair@$$CBVQString@@PAVcachedData@@@std@@@std@@@std@@@8 10032af8     bncs_config.obj
 0003:00000b60       ??_R0?AU_Container_base0@std@@@8 10032b60     bncs_config.obj
 0003:00000b84       ??_R0?AUQShared@@@8        10032b84     instanceLookup.obj
 0003:00000b9c       ??_R0?AV?$QValueListPrivate@VparamInfo@@@@@8 10032b9c     instanceLookup.obj
 0003:00000bcc       ??_R0?AV?$QValueListNode@VparamInfo@@@@@8 10032bcc     instanceLookup.obj
 0003:00000bf8       ??_R0?AV?$QValueListPrivate@VcomplexParam@@@@@8 10032bf8     instanceLookup.obj
 0003:00000c2c       ??_R0?AV?$QValueListNode@VcomplexParam@@@@@8 10032c2c     instanceLookup.obj
 0003:00000c5c       ??_R0?AV?$QValueListPrivate@VcomplexInstance@@@@@8 10032c5c     instanceLookup.obj
 0003:00000c94       ??_R0?AV?$QValueListNode@VcomplexInstance@@@@@8 10032c94     instanceLookup.obj
 0003:00000cc8       ??_R0?AV?$QValueListPrivate@VinstanceInfo@@@@@8 10032cc8     instanceLookup.obj
 0003:00000cfc       ??_R0?AV?$QValueListNode@VinstanceInfo@@@@@8 10032cfc     instanceLookup.obj
 0003:00000d2c       ??_R0?AV?$QValueListPrivate@VdeviceTypeInfo@@@@@8 10032d2c     instanceLookup.obj
 0003:00000d60       ??_R0?AV?$QValueListNode@VdeviceTypeInfo@@@@@8 10032d60     instanceLookup.obj
 0003:00000d94       ??_R0?AV?$QValueListPrivate@VcomplexType@@@@@8 10032d94     instanceLookup.obj
 0003:00000dc8       ??_R0?AV?$QValueListNode@VcomplexType@@@@@8 10032dc8     instanceLookup.obj
 0003:00000df8       ??_R0?AVlaunchAccessor@@@8 10032df8     launchAccessor.obj
 0003:00000e18       ??_R0?AV?$QValueListPrivate@VlaunchItem@@@@@8 10032e18     launchAccessor.obj
 0003:00000e48       ??_R0?AV?$QValueListNode@VlaunchItem@@@@@8 10032e48     launchAccessor.obj
 0003:00000e78       ??_R0?AVpanelsetsAccessor@@@8 10032e78     panelsetsAccessor.obj
 0003:00000e98       ??_R0?AV?$QValueListPrivate@VpanelsetItem@@@@@8 10032e98     panelsetsAccessor.obj
 0003:00000ecc       ??_R0?AV?$QValueListNode@VpanelsetItem@@@@@8 10032ecc     panelsetsAccessor.obj
 0003:00000efc       ??_R0?AVusersAccessor@@@8  10032efc     usersAccessor.obj
 0003:00000f18       ??_R0?AVworkstationsAccessor@@@8 10032f18     workstationsAccessor.obj
 0003:00000f3c       ??_R0?AVworkstationSettingsAccessor@@@8 10032f3c     workstationSettingsAccessor.obj
 0003:00000f68       ??_R0?AV?$QValueListPrivate@VworkstationSettingsItem@@@@@8 10032f68     workstationSettingsAccessor.obj
 0003:00000fa8       ??_R0?AV?$QValueListNode@VworkstationSettingsItem@@@@@8 10032fa8     workstationSettingsAccessor.obj
 0003:00000fe4       ??_R0?AVtype_info@@@8      10032fe4     MSVCRT:ti_inst.obj
 0003:00001000       ?applicationsAcc@applicationsAccessor@@0PAV1@A 10033000     applicationsAccessor.obj
 0003:00001004       ?loadLock@applicationsAccessor@@0HA 10033004     applicationsAccessor.obj
 0003:0000100c       ?id@?$num_put@DV?$back_insert_iterator@V?$basic_string@DU?$char_traits@D@std@@V?$allocator@D@2@@std@@@std@@@std@@2V0locale@2@A 1003300c     applicationsAccessor.obj
 0003:00001010       ?id@?$num_put@_WV?$back_insert_iterator@V?$basic_string@_WU?$char_traits@_W@std@@V?$allocator@_W@2@@std@@@std@@@std@@2V0locale@2@A 10033010     applicationsAccessor.obj
 0003:00001018       ?docs@@3VdocCache@@A       10033018     bncs_config.obj
 0003:0000102c       ?launchAcc@launchAccessor@@0PAV1@A 1003302c     launchAccessor.obj
 0003:00001030       ?loadLock@launchAccessor@@0HA 10033030     launchAccessor.obj
 0003:00001038       ?panelsetsAcc@panelsetsAccessor@@0PAV1@A 10033038     panelsetsAccessor.obj
 0003:0000103c       ?loadLock@panelsetsAccessor@@0HA 1003303c     panelsetsAccessor.obj
 0003:00001044       ?usersAcc@usersAccessor@@0PAV1@A 10033044     usersAccessor.obj
 0003:00001048       ?loadLock@usersAccessor@@0HA 10033048     usersAccessor.obj
 0003:00001050       ?workstationsAcc@workstationsAccessor@@0PAV1@A 10033050     workstationsAccessor.obj
 0003:00001054       ?loadLock@workstationsAccessor@@0HA 10033054     workstationsAccessor.obj
 0003:0000105c       ?workstationSettingsAcc@workstationSettingsAccessor@@0PAV1@A 1003305c     workstationSettingsAccessor.obj
 0003:00001060       ?loadLock@workstationSettingsAccessor@@0HA 10033060     workstationSettingsAccessor.obj
 0003:00001068       ?metaObj@applicationsAccessor@@0PAVQMetaObject@@A 10033068     moc_applicationsAccessor.obj
 0003:00001084       ?metaObj@launchAccessor@@0PAVQMetaObject@@A 10033084     moc_launchAccessor.obj
 0003:000010a0       ?metaObj@panelsetsAccessor@@0PAVQMetaObject@@A 100330a0     moc_panelsetsAccessor.obj
 0003:000010bc       ?metaObj@usersAccessor@@0PAVQMetaObject@@A 100330bc     moc_usersAccessor.obj
 0003:000010d8       ?metaObj@workstationsAccessor@@0PAVQMetaObject@@A 100330d8     moc_workstationsAccessor.obj
 0003:000010f4       ?metaObj@workstationSettingsAccessor@@0PAVQMetaObject@@A 100330f4     moc_workstationSettingsAccessor.obj
 0003:00001438       ?__type_info_root_node@@3U__type_info_node@@A 10033438     MSVCRT:tncleanup.obj
 0003:00001440       ___native_startup_lock     10033440     <common>
 0003:00001444       ___native_startup_state    10033444     <common>
 0003:00001448       ___dyn_tls_init_callback   10033448     <common>
 0003:0000144c       ___onexitend               1003344c     <common>
 0003:00001450       ___onexitbegin             10033450     <common>

 entry point at        0001:0001b85b

 Static symbols

 0001:00000000       ??__E?_Generic_object@?$_Error_objects@H@std@@2V_Generic_error_category@2@A@@YAXXZ 10001000 f   applicationsAccessor.obj
 0001:00000010       ??__E?_Iostream_object@?$_Error_objects@H@std@@2V_Iostream_error_category@2@A@@YAXXZ 10001010 f   applicationsAccessor.obj
 0001:00000020       ??__E?_System_object@?$_Error_objects@H@std@@2V_System_error_category@2@A@@YAXXZ 10001020 f   applicationsAccessor.obj
 0001:00000030       ??__Edocs@@YAXXZ           10001030 f   bncs_config.obj
 0001:00000060       ??__EcleanUp_applicationsAccessor@@YAXXZ 10001060 f   moc_applicationsAccessor.obj
 0001:00000090       ??__EcleanUp_launchAccessor@@YAXXZ 10001090 f   moc_launchAccessor.obj
 0001:000000c0       ??__EcleanUp_panelsetsAccessor@@YAXXZ 100010c0 f   moc_panelsetsAccessor.obj
 0001:000000f0       ??__EcleanUp_usersAccessor@@YAXXZ 100010f0 f   moc_usersAccessor.obj
 0001:00000120       ??__EcleanUp_workstationsAccessor@@YAXXZ 10001120 f   moc_workstationsAccessor.obj
 0001:00000150       ??__EcleanUp_workstationSettingsAccessor@@YAXXZ 10001150 f   moc_workstationSettingsAccessor.obj
 0001:000004e6       __catch$?_Copy@?$basic_string@DU?$char_traits@D@std@@V?$allocator@D@2@@std@@QAEXII@Z$0 100014e6 f i applicationsAccessor.obj
 0001:00000523       __catch$?_Copy@?$basic_string@DU?$char_traits@D@std@@V?$allocator@D@2@@std@@QAEXII@Z$1 10001523 f i applicationsAccessor.obj
 0001:00001b7b       __catch$??$_Buynode@U?$pair@VQString@@PAVcachedData@@@std@@@?$_Tree_buy@U?$pair@$$CBVQString@@PAVcachedData@@@std@@V?$allocator@U?$pair@$$CBVQString@@PAVcachedData@@@std@@@2@@std@@QAEPAU?$_Tree_node@U?$pair@$$CBVQString@@PAVcachedData@@@std@@PAX@1@$$QAU?$pair@VQString@@PAVcachedData@@@1@@Z$0 10002b7b f i bncs_config.obj
 0001:00001ecd       __catch$??$_Insert_nohint@AAU?$pair@$$CBVQString@@PAVcachedData@@@std@@PAU?$_Tree_node@U?$pair@$$CBVQString@@PAVcachedData@@@std@@PAX@2@@?$_Tree@V?$_Tmap_traits@VQString@@PAVcachedData@@U?$less@VQString@@@std@@V?$allocator@U?$pair@$$CBVQString@@PAVcachedData@@@std@@@4@$0A@@std@@@std@@IAE?AU?$pair@V?$_Tree_iterator@V?$_Tree_val@U?$_Tree_simple_types@U?$pair@$$CBVQString@@PAVcachedData@@@std@@@std@@@std@@@std@@_N@1@_NAAU?$pair@$$CBVQString@@PAVcachedData@@@1@PAU?$_Tree_node@U?$pair@$$CBVQString@@PAVcachedData@@@std@@PAX@1@@Z$0 10002ecd f i bncs_config.obj
 0001:00016f84       $LN51                      10017f84     moc_applicationsAccessor.obj
 0001:0001829c       $LN97                      1001929c     moc_launchAccessor.obj
 0001:00019420       $LN59                      1001a420     moc_panelsetsAccessor.obj
 0001:00019e00       $LN37                      1001ae00     moc_usersAccessor.obj
 0001:0001a580       $LN37                      1001b580     moc_workstationsAccessor.obj
 0001:0001ac80       $LN37                      1001bc80     moc_workstationSettingsAccessor.obj
 0001:0001b618       _pre_c_init                1001c618 f   MSVCRT:crtdll.obj
 0001:0001b87e       ___DllMainCRTStartup       1001c87e f   MSVCRT:crtdll.obj
 0001:0001b9c0       $$000000                   1001c9c0     MSVCRT:sehprolg4.obj
 0001:0001be20       __ehhandler$?_Copy@?$basic_string@DU?$char_traits@D@std@@V?$allocator@D@2@@std@@QAEXII@Z 1001ce20 f   applicationsAccessor.obj
 0001:0001be40       __unwindfunclet$?addItem@applicationsAccessor@@QAE_NABVQString@@0000@Z$0 1001ce40 f   applicationsAccessor.obj
 0001:0001be49       __unwindfunclet$?addItem@applicationsAccessor@@QAE_NABVQString@@0000@Z$1 1001ce49 f   applicationsAccessor.obj
 0001:0001be52       __unwindfunclet$?addItem@applicationsAccessor@@QAE_NABVQString@@0000@Z$2 1001ce52 f   applicationsAccessor.obj
 0001:0001be5b       __unwindfunclet$?addItem@applicationsAccessor@@QAE_NABVQString@@0000@Z$3 1001ce5b f   applicationsAccessor.obj
 0001:0001be64       __unwindfunclet$?addItem@applicationsAccessor@@QAE_NABVQString@@0000@Z$4 1001ce64 f   applicationsAccessor.obj
 0001:0001be6d       __unwindfunclet$?addItem@applicationsAccessor@@QAE_NABVQString@@0000@Z$5 1001ce6d f   applicationsAccessor.obj
 0001:0001be76       __unwindfunclet$?addItem@applicationsAccessor@@QAE_NABVQString@@0000@Z$6 1001ce76 f   applicationsAccessor.obj
 0001:0001be7f       __unwindfunclet$?addItem@applicationsAccessor@@QAE_NABVQString@@0000@Z$7 1001ce7f f   applicationsAccessor.obj
 0001:0001be88       __ehhandler$?addItem@applicationsAccessor@@QAE_NABVQString@@0000@Z 1001ce88 f   applicationsAccessor.obj
 0001:0001beb0       __unwindfunclet$?deleteItem@applicationsAccessor@@QAE_NABVQString@@@Z$0 1001ceb0 f   applicationsAccessor.obj
 0001:0001beb0       __unwindfunclet$?deleteWorkstation@workstationsAccessor@@QAE_NABVQString@@@Z$0 1001ceb0 f   applicationsAccessor.obj
 0001:0001beb9       __unwindfunclet$?deleteItem@applicationsAccessor@@QAE_NABVQString@@@Z$1 1001ceb9 f   applicationsAccessor.obj
 0001:0001beb9       __unwindfunclet$?deleteWorkstation@workstationsAccessor@@QAE_NABVQString@@@Z$1 1001ceb9 f   applicationsAccessor.obj
 0001:0001bec2       __unwindfunclet$?deleteItem@applicationsAccessor@@QAE_NABVQString@@@Z$2 1001cec2 f   applicationsAccessor.obj
 0001:0001bec2       __unwindfunclet$?deleteWorkstation@workstationsAccessor@@QAE_NABVQString@@@Z$2 1001cec2 f   applicationsAccessor.obj
 0001:0001becb       __unwindfunclet$?deleteWorkstation@workstationsAccessor@@QAE_NABVQString@@@Z$3 1001cecb f   applicationsAccessor.obj
 0001:0001becb       __unwindfunclet$?deleteItem@applicationsAccessor@@QAE_NABVQString@@@Z$3 1001cecb f   applicationsAccessor.obj
 0001:0001bed4       __unwindfunclet$?deleteWorkstation@workstationsAccessor@@QAE_NABVQString@@@Z$4 1001ced4 f   applicationsAccessor.obj
 0001:0001bed4       __unwindfunclet$?deleteItem@applicationsAccessor@@QAE_NABVQString@@@Z$4 1001ced4 f   applicationsAccessor.obj
 0001:0001bedd       __unwindfunclet$?deleteItem@applicationsAccessor@@QAE_NABVQString@@@Z$6 1001cedd f   applicationsAccessor.obj
 0001:0001bedd       __unwindfunclet$?deleteWorkstation@workstationsAccessor@@QAE_NABVQString@@@Z$6 1001cedd f   applicationsAccessor.obj
 0001:0001bee6       __ehhandler$?deleteItem@applicationsAccessor@@QAE_NABVQString@@@Z 1001cee6 f   applicationsAccessor.obj
 0001:0001bee6       __ehhandler$?deleteWorkstation@workstationsAccessor@@QAE_NABVQString@@@Z 1001cee6 f   applicationsAccessor.obj
 0001:0001bf10       __unwindfunclet$?exists@panelsetsAccessor@@QAE_NABVQString@@@Z$0 1001cf10 f   applicationsAccessor.obj
 0001:0001bf10       __unwindfunclet$?setAttribute@panelsetsAccessor@@AAE_NABVQString@@00@Z$0 1001cf10 f   applicationsAccessor.obj
 0001:0001bf10       __unwindfunclet$?exists@workstationsAccessor@@QAE_NABVQString@@@Z$0 1001cf10 f   applicationsAccessor.obj
 0001:0001bf10       __unwindfunclet$?exists@applicationsAccessor@@QAE_NABVQString@@@Z$0 1001cf10 f   applicationsAccessor.obj
 0001:0001bf10       __unwindfunclet$?exists@usersAccessor@@QAE_NABVQString@@@Z$0 1001cf10 f   applicationsAccessor.obj
 0001:0001bf10       __unwindfunclet$?setAttribute@workstationSettingsAccessor@@AAE_NABVQString@@00@Z$0 1001cf10 f   applicationsAccessor.obj
 0001:0001bf10       __unwindfunclet$?exists@launchAccessor@@QAE_NABVQString@@@Z$0 1001cf10 f   applicationsAccessor.obj
 0001:0001bf10       __unwindfunclet$?exists@workstationSettingsAccessor@@QAE_NABVQString@@@Z$0 1001cf10 f   applicationsAccessor.obj
 0001:0001bf19       __unwindfunclet$?exists@panelsetsAccessor@@QAE_NABVQString@@@Z$1 1001cf19 f   applicationsAccessor.obj
 0001:0001bf19       __unwindfunclet$?exists@workstationSettingsAccessor@@QAE_NABVQString@@@Z$1 1001cf19 f   applicationsAccessor.obj
 0001:0001bf19       __unwindfunclet$?setAttribute@workstationSettingsAccessor@@AAE_NABVQString@@00@Z$1 1001cf19 f   applicationsAccessor.obj
 0001:0001bf19       __unwindfunclet$?exists@launchAccessor@@QAE_NABVQString@@@Z$1 1001cf19 f   applicationsAccessor.obj
 0001:0001bf19       __unwindfunclet$?exists@applicationsAccessor@@QAE_NABVQString@@@Z$1 1001cf19 f   applicationsAccessor.obj
 0001:0001bf19       __unwindfunclet$?exists@usersAccessor@@QAE_NABVQString@@@Z$1 1001cf19 f   applicationsAccessor.obj
 0001:0001bf19       __unwindfunclet$?setAttribute@panelsetsAccessor@@AAE_NABVQString@@00@Z$1 1001cf19 f   applicationsAccessor.obj
 0001:0001bf19       __unwindfunclet$?exists@workstationsAccessor@@QAE_NABVQString@@@Z$1 1001cf19 f   applicationsAccessor.obj
 0001:0001bf22       __unwindfunclet$?exists@workstationsAccessor@@QAE_NABVQString@@@Z$2 1001cf22 f   applicationsAccessor.obj
 0001:0001bf22       __unwindfunclet$?exists@launchAccessor@@QAE_NABVQString@@@Z$2 1001cf22 f   applicationsAccessor.obj
 0001:0001bf22       __unwindfunclet$?setAttribute@workstationSettingsAccessor@@AAE_NABVQString@@00@Z$2 1001cf22 f   applicationsAccessor.obj
 0001:0001bf22       __unwindfunclet$?exists@workstationSettingsAccessor@@QAE_NABVQString@@@Z$2 1001cf22 f   applicationsAccessor.obj
 0001:0001bf22       __unwindfunclet$?exists@panelsetsAccessor@@QAE_NABVQString@@@Z$2 1001cf22 f   applicationsAccessor.obj
 0001:0001bf22       __unwindfunclet$?exists@usersAccessor@@QAE_NABVQString@@@Z$2 1001cf22 f   applicationsAccessor.obj
 0001:0001bf22       __unwindfunclet$?setAttribute@panelsetsAccessor@@AAE_NABVQString@@00@Z$2 1001cf22 f   applicationsAccessor.obj
 0001:0001bf22       __unwindfunclet$?exists@applicationsAccessor@@QAE_NABVQString@@@Z$2 1001cf22 f   applicationsAccessor.obj
 0001:0001bf2b       __unwindfunclet$?exists@applicationsAccessor@@QAE_NABVQString@@@Z$3 1001cf2b f   applicationsAccessor.obj
 0001:0001bf2b       __unwindfunclet$?setAttribute@workstationSettingsAccessor@@AAE_NABVQString@@00@Z$3 1001cf2b f   applicationsAccessor.obj
 0001:0001bf2b       __unwindfunclet$?exists@launchAccessor@@QAE_NABVQString@@@Z$3 1001cf2b f   applicationsAccessor.obj
 0001:0001bf2b       __unwindfunclet$?exists@workstationSettingsAccessor@@QAE_NABVQString@@@Z$3 1001cf2b f   applicationsAccessor.obj
 0001:0001bf2b       __unwindfunclet$?exists@panelsetsAccessor@@QAE_NABVQString@@@Z$3 1001cf2b f   applicationsAccessor.obj
 0001:0001bf2b       __unwindfunclet$?exists@workstationsAccessor@@QAE_NABVQString@@@Z$3 1001cf2b f   applicationsAccessor.obj
 0001:0001bf2b       __unwindfunclet$?exists@usersAccessor@@QAE_NABVQString@@@Z$3 1001cf2b f   applicationsAccessor.obj
 0001:0001bf2b       __unwindfunclet$?setAttribute@panelsetsAccessor@@AAE_NABVQString@@00@Z$3 1001cf2b f   applicationsAccessor.obj
 0001:0001bf34       __unwindfunclet$?setAttribute@panelsetsAccessor@@AAE_NABVQString@@00@Z$4 1001cf34 f   applicationsAccessor.obj
 0001:0001bf34       __unwindfunclet$?exists@applicationsAccessor@@QAE_NABVQString@@@Z$4 1001cf34 f   applicationsAccessor.obj
 0001:0001bf34       __unwindfunclet$?exists@usersAccessor@@QAE_NABVQString@@@Z$4 1001cf34 f   applicationsAccessor.obj
 0001:0001bf34       __unwindfunclet$?exists@workstationSettingsAccessor@@QAE_NABVQString@@@Z$4 1001cf34 f   applicationsAccessor.obj
 0001:0001bf34       __unwindfunclet$?setAttribute@workstationSettingsAccessor@@AAE_NABVQString@@00@Z$4 1001cf34 f   applicationsAccessor.obj
 0001:0001bf34       __unwindfunclet$?exists@panelsetsAccessor@@QAE_NABVQString@@@Z$4 1001cf34 f   applicationsAccessor.obj
 0001:0001bf34       __unwindfunclet$?exists@launchAccessor@@QAE_NABVQString@@@Z$4 1001cf34 f   applicationsAccessor.obj
 0001:0001bf34       __unwindfunclet$?exists@workstationsAccessor@@QAE_NABVQString@@@Z$4 1001cf34 f   applicationsAccessor.obj
 0001:0001bf3d       __unwindfunclet$?setAttribute@workstationSettingsAccessor@@AAE_NABVQString@@00@Z$5 1001cf3d f   applicationsAccessor.obj
 0001:0001bf3d       __unwindfunclet$?exists@panelsetsAccessor@@QAE_NABVQString@@@Z$5 1001cf3d f   applicationsAccessor.obj
 0001:0001bf3d       __unwindfunclet$?exists@applicationsAccessor@@QAE_NABVQString@@@Z$5 1001cf3d f   applicationsAccessor.obj
 0001:0001bf3d       __unwindfunclet$?setAttribute@panelsetsAccessor@@AAE_NABVQString@@00@Z$5 1001cf3d f   applicationsAccessor.obj
 0001:0001bf3d       __unwindfunclet$?exists@launchAccessor@@QAE_NABVQString@@@Z$5 1001cf3d f   applicationsAccessor.obj
 0001:0001bf3d       __unwindfunclet$?exists@workstationsAccessor@@QAE_NABVQString@@@Z$5 1001cf3d f   applicationsAccessor.obj
 0001:0001bf3d       __unwindfunclet$?exists@usersAccessor@@QAE_NABVQString@@@Z$5 1001cf3d f   applicationsAccessor.obj
 0001:0001bf3d       __unwindfunclet$?exists@workstationSettingsAccessor@@QAE_NABVQString@@@Z$5 1001cf3d f   applicationsAccessor.obj
 0001:0001bf46       __ehhandler$?exists@applicationsAccessor@@QAE_NABVQString@@@Z 1001cf46 f   applicationsAccessor.obj
 0001:0001bf46       __ehhandler$?setAttribute@workstationSettingsAccessor@@AAE_NABVQString@@00@Z 1001cf46 f   applicationsAccessor.obj
 0001:0001bf46       __ehhandler$?exists@usersAccessor@@QAE_NABVQString@@@Z 1001cf46 f   applicationsAccessor.obj
 0001:0001bf46       __ehhandler$?exists@panelsetsAccessor@@QAE_NABVQString@@@Z 1001cf46 f   applicationsAccessor.obj
 0001:0001bf46       __ehhandler$?setAttribute@panelsetsAccessor@@AAE_NABVQString@@00@Z 1001cf46 f   applicationsAccessor.obj
 0001:0001bf46       __ehhandler$?exists@workstationsAccessor@@QAE_NABVQString@@@Z 1001cf46 f   applicationsAccessor.obj
 0001:0001bf46       __ehhandler$?exists@launchAccessor@@QAE_NABVQString@@@Z 1001cf46 f   applicationsAccessor.obj
 0001:0001bf46       __ehhandler$?exists@workstationSettingsAccessor@@QAE_NABVQString@@@Z 1001cf46 f   applicationsAccessor.obj
 0001:0001bf70       __unwindfunclet$?item@applicationsAccessor@@QAE_NABVQString@@AAV2@111@Z$0 1001cf70 f   applicationsAccessor.obj
 0001:0001bf79       __unwindfunclet$?item@applicationsAccessor@@QAE_NABVQString@@AAV2@111@Z$1 1001cf79 f   applicationsAccessor.obj
 0001:0001bf82       __unwindfunclet$?item@applicationsAccessor@@QAE_NABVQString@@AAV2@111@Z$2 1001cf82 f   applicationsAccessor.obj
 0001:0001bf8b       __unwindfunclet$?item@applicationsAccessor@@QAE_NABVQString@@AAV2@111@Z$3 1001cf8b f   applicationsAccessor.obj
 0001:0001bf94       __unwindfunclet$?item@applicationsAccessor@@QAE_NABVQString@@AAV2@111@Z$4 1001cf94 f   applicationsAccessor.obj
 0001:0001bf9d       __unwindfunclet$?item@applicationsAccessor@@QAE_NABVQString@@AAV2@111@Z$13 1001cf9d f   applicationsAccessor.obj
 0001:0001bfa6       __unwindfunclet$?item@applicationsAccessor@@QAE_NABVQString@@AAV2@111@Z$5 1001cfa6 f   applicationsAccessor.obj
 0001:0001bfaf       __unwindfunclet$?item@applicationsAccessor@@QAE_NABVQString@@AAV2@111@Z$6 1001cfaf f   applicationsAccessor.obj
 0001:0001bfb8       __unwindfunclet$?item@applicationsAccessor@@QAE_NABVQString@@AAV2@111@Z$7 1001cfb8 f   applicationsAccessor.obj
 0001:0001bfc1       __unwindfunclet$?item@applicationsAccessor@@QAE_NABVQString@@AAV2@111@Z$8 1001cfc1 f   applicationsAccessor.obj
 0001:0001bfca       __unwindfunclet$?item@applicationsAccessor@@QAE_NABVQString@@AAV2@111@Z$9 1001cfca f   applicationsAccessor.obj
 0001:0001bfd3       __unwindfunclet$?item@applicationsAccessor@@QAE_NABVQString@@AAV2@111@Z$10 1001cfd3 f   applicationsAccessor.obj
 0001:0001bfdc       __unwindfunclet$?item@applicationsAccessor@@QAE_NABVQString@@AAV2@111@Z$11 1001cfdc f   applicationsAccessor.obj
 0001:0001bfe5       __unwindfunclet$?item@applicationsAccessor@@QAE_NABVQString@@AAV2@111@Z$12 1001cfe5 f   applicationsAccessor.obj
 0001:0001bfee       __ehhandler$?item@applicationsAccessor@@QAE_NABVQString@@AAV2@111@Z 1001cfee f   applicationsAccessor.obj
 0001:0001c010       __unwindfunclet$?nextItem@applicationsAccessor@@QAE_NAAVQString@@0000@Z$0 1001d010 f   applicationsAccessor.obj
 0001:0001c019       __unwindfunclet$?nextItem@applicationsAccessor@@QAE_NAAVQString@@0000@Z$1 1001d019 f   applicationsAccessor.obj
 0001:0001c022       __unwindfunclet$?nextItem@applicationsAccessor@@QAE_NAAVQString@@0000@Z$2 1001d022 f   applicationsAccessor.obj
 0001:0001c02b       __unwindfunclet$?nextItem@applicationsAccessor@@QAE_NAAVQString@@0000@Z$3 1001d02b f   applicationsAccessor.obj
 0001:0001c034       __unwindfunclet$?nextItem@applicationsAccessor@@QAE_NAAVQString@@0000@Z$4 1001d034 f   applicationsAccessor.obj
 0001:0001c03d       __unwindfunclet$?nextItem@applicationsAccessor@@QAE_NAAVQString@@0000@Z$5 1001d03d f   applicationsAccessor.obj
 0001:0001c046       __unwindfunclet$?nextItem@applicationsAccessor@@QAE_NAAVQString@@0000@Z$6 1001d046 f   applicationsAccessor.obj
 0001:0001c04f       __unwindfunclet$?nextItem@applicationsAccessor@@QAE_NAAVQString@@0000@Z$7 1001d04f f   applicationsAccessor.obj
 0001:0001c058       __unwindfunclet$?nextItem@applicationsAccessor@@QAE_NAAVQString@@0000@Z$8 1001d058 f   applicationsAccessor.obj
 0001:0001c061       __unwindfunclet$?nextItem@applicationsAccessor@@QAE_NAAVQString@@0000@Z$9 1001d061 f   applicationsAccessor.obj
 0001:0001c06a       __unwindfunclet$?nextItem@applicationsAccessor@@QAE_NAAVQString@@0000@Z$10 1001d06a f   applicationsAccessor.obj
 0001:0001c073       __unwindfunclet$?nextItem@applicationsAccessor@@QAE_NAAVQString@@0000@Z$11 1001d073 f   applicationsAccessor.obj
 0001:0001c07c       __ehhandler$?nextItem@applicationsAccessor@@QAE_NAAVQString@@0000@Z 1001d07c f   applicationsAccessor.obj
 0001:0001c0a0       __unwindfunclet$?setAttribute@applicationsAccessor@@AAE_NABVQString@@00@Z$0 1001d0a0 f   applicationsAccessor.obj
 0001:0001c0a0       __unwindfunclet$?setAttribute@usersAccessor@@AAE_NABVQString@@00@Z$0 1001d0a0 f   applicationsAccessor.obj
 0001:0001c0a0       __unwindfunclet$?setAttribute@launchAccessor@@AAE_NABVQString@@00@Z$0 1001d0a0 f   applicationsAccessor.obj
 0001:0001c0a0       __unwindfunclet$?setAttribute@workstationsAccessor@@AAE_NABVQString@@00@Z$0 1001d0a0 f   applicationsAccessor.obj
 0001:0001c0a9       __unwindfunclet$?setAttribute@usersAccessor@@AAE_NABVQString@@00@Z$1 1001d0a9 f   applicationsAccessor.obj
 0001:0001c0a9       __unwindfunclet$?setAttribute@launchAccessor@@AAE_NABVQString@@00@Z$1 1001d0a9 f   applicationsAccessor.obj
 0001:0001c0a9       __unwindfunclet$?setAttribute@applicationsAccessor@@AAE_NABVQString@@00@Z$1 1001d0a9 f   applicationsAccessor.obj
 0001:0001c0a9       __unwindfunclet$?setAttribute@workstationsAccessor@@AAE_NABVQString@@00@Z$1 1001d0a9 f   applicationsAccessor.obj
 0001:0001c0b2       __unwindfunclet$?setAttribute@launchAccessor@@AAE_NABVQString@@00@Z$2 1001d0b2 f   applicationsAccessor.obj
 0001:0001c0b2       __unwindfunclet$?setAttribute@applicationsAccessor@@AAE_NABVQString@@00@Z$2 1001d0b2 f   applicationsAccessor.obj
 0001:0001c0b2       __unwindfunclet$?setAttribute@workstationsAccessor@@AAE_NABVQString@@00@Z$2 1001d0b2 f   applicationsAccessor.obj
 0001:0001c0b2       __unwindfunclet$?setAttribute@usersAccessor@@AAE_NABVQString@@00@Z$2 1001d0b2 f   applicationsAccessor.obj
 0001:0001c0bb       __unwindfunclet$?setAttribute@launchAccessor@@AAE_NABVQString@@00@Z$3 1001d0bb f   applicationsAccessor.obj
 0001:0001c0bb       __unwindfunclet$?setAttribute@applicationsAccessor@@AAE_NABVQString@@00@Z$3 1001d0bb f   applicationsAccessor.obj
 0001:0001c0bb       __unwindfunclet$?setAttribute@workstationsAccessor@@AAE_NABVQString@@00@Z$3 1001d0bb f   applicationsAccessor.obj
 0001:0001c0bb       __unwindfunclet$?setAttribute@usersAccessor@@AAE_NABVQString@@00@Z$3 1001d0bb f   applicationsAccessor.obj
 0001:0001c0c4       __unwindfunclet$?setAttribute@workstationsAccessor@@AAE_NABVQString@@00@Z$4 1001d0c4 f   applicationsAccessor.obj
 0001:0001c0c4       __unwindfunclet$?setAttribute@launchAccessor@@AAE_NABVQString@@00@Z$4 1001d0c4 f   applicationsAccessor.obj
 0001:0001c0c4       __unwindfunclet$?setAttribute@applicationsAccessor@@AAE_NABVQString@@00@Z$4 1001d0c4 f   applicationsAccessor.obj
 0001:0001c0c4       __unwindfunclet$?setAttribute@usersAccessor@@AAE_NABVQString@@00@Z$4 1001d0c4 f   applicationsAccessor.obj
 0001:0001c0cd       __unwindfunclet$?setAttribute@launchAccessor@@AAE_NABVQString@@00@Z$5 1001d0cd f   applicationsAccessor.obj
 0001:0001c0cd       __unwindfunclet$?setAttribute@applicationsAccessor@@AAE_NABVQString@@00@Z$5 1001d0cd f   applicationsAccessor.obj
 0001:0001c0cd       __unwindfunclet$?setAttribute@workstationsAccessor@@AAE_NABVQString@@00@Z$5 1001d0cd f   applicationsAccessor.obj
 0001:0001c0cd       __unwindfunclet$?setAttribute@usersAccessor@@AAE_NABVQString@@00@Z$5 1001d0cd f   applicationsAccessor.obj
 0001:0001c0d6       __ehhandler$?setAttribute@workstationsAccessor@@AAE_NABVQString@@00@Z 1001d0d6 f   applicationsAccessor.obj
 0001:0001c0d6       __ehhandler$?setAttribute@usersAccessor@@AAE_NABVQString@@00@Z 1001d0d6 f   applicationsAccessor.obj
 0001:0001c0d6       __ehhandler$?setAttribute@launchAccessor@@AAE_NABVQString@@00@Z 1001d0d6 f   applicationsAccessor.obj
 0001:0001c0d6       __ehhandler$?setAttribute@applicationsAccessor@@AAE_NABVQString@@00@Z 1001d0d6 f   applicationsAccessor.obj
 0001:0001c100       __unwindfunclet$?setWorkingdir@launchAccessor@@QAE_NABVQString@@H0@Z$0 1001d100 f   applicationsAccessor.obj
 0001:0001c100       __unwindfunclet$?setCSI@launchAccessor@@QAE_NABVQString@@0@Z$0 1001d100 f   applicationsAccessor.obj
 0001:0001c100       __unwindfunclet$?setPanelset@usersAccessor@@QAE_NABVQString@@0@Z$0 1001d100 f   applicationsAccessor.obj
 0001:0001c100       __unwindfunclet$?setCaption@applicationsAccessor@@QAE_NABVQString@@0@Z$0 1001d100 f   applicationsAccessor.obj
 0001:0001c100       __unwindfunclet$?setName@workstationsAccessor@@QAE_NABVQString@@0@Z$0 1001d100 f   applicationsAccessor.obj
 0001:0001c100       __unwindfunclet$?setTitle@applicationsAccessor@@QAE_NABVQString@@0@Z$0 1001d100 f   applicationsAccessor.obj
 0001:0001c100       __unwindfunclet$?setUser@workstationsAccessor@@QAE_NABVQString@@0@Z$0 1001d100 f   applicationsAccessor.obj
 0001:0001c100       __unwindfunclet$?setType@applicationsAccessor@@QAE_NABVQString@@0@Z$0 1001d100 f   applicationsAccessor.obj
 0001:0001c100       __unwindfunclet$?setArguments@launchAccessor@@QAE_NABVQString@@H0@Z$0 1001d100 f   applicationsAccessor.obj
 0001:0001c100       __unwindfunclet$?setApplication@launchAccessor@@QAE_NABVQString@@H0@Z$0 1001d100 f   applicationsAccessor.obj
 0001:0001c100       __unwindfunclet$?setEngset@usersAccessor@@QAE_NABVQString@@0@Z$0 1001d100 f   applicationsAccessor.obj
 0001:0001c100       __unwindfunclet$?setIcon@applicationsAccessor@@QAE_NABVQString@@0@Z$0 1001d100 f   applicationsAccessor.obj
 0001:0001c109       __ehhandler$?setIcon@applicationsAccessor@@QAE_NABVQString@@0@Z 1001d109 f   applicationsAccessor.obj
 0001:0001c109       __ehhandler$?setType@applicationsAccessor@@QAE_NABVQString@@0@Z 1001d109 f   applicationsAccessor.obj
 0001:0001c109       __ehhandler$?setTitle@applicationsAccessor@@QAE_NABVQString@@0@Z 1001d109 f   applicationsAccessor.obj
 0001:0001c109       __ehhandler$?setCaption@applicationsAccessor@@QAE_NABVQString@@0@Z 1001d109 f   applicationsAccessor.obj
 0001:0001c109       __ehhandler$?setUser@workstationsAccessor@@QAE_NABVQString@@0@Z 1001d109 f   applicationsAccessor.obj
 0001:0001c109       __ehhandler$?setEngset@usersAccessor@@QAE_NABVQString@@0@Z 1001d109 f   applicationsAccessor.obj
 0001:0001c109       __ehhandler$?setName@workstationsAccessor@@QAE_NABVQString@@0@Z 1001d109 f   applicationsAccessor.obj
 0001:0001c109       __ehhandler$?setApplication@launchAccessor@@QAE_NABVQString@@H0@Z 1001d109 f   applicationsAccessor.obj
 0001:0001c109       __ehhandler$?setPanelset@usersAccessor@@QAE_NABVQString@@0@Z 1001d109 f   applicationsAccessor.obj
 0001:0001c109       __ehhandler$?setWorkingdir@launchAccessor@@QAE_NABVQString@@H0@Z 1001d109 f   applicationsAccessor.obj
 0001:0001c109       __ehhandler$?setArguments@launchAccessor@@QAE_NABVQString@@H0@Z 1001d109 f   applicationsAccessor.obj
 0001:0001c109       __ehhandler$?setCSI@launchAccessor@@QAE_NABVQString@@0@Z 1001d109 f   applicationsAccessor.obj
 0001:0001c130       __unwindfunclet$??$_Buynode@U?$pair@VQString@@PAVcachedData@@@std@@@?$_Tree_buy@U?$pair@$$CBVQString@@PAVcachedData@@@std@@V?$allocator@U?$pair@$$CBVQString@@PAVcachedData@@@std@@@2@@std@@QAEPAU?$_Tree_node@U?$pair@$$CBVQString@@PAVcachedData@@@std@@PAX@1@$$QAU?$pair@VQString@@PAVcachedData@@@1@@Z$2 1001d130 f   bncs_config.obj
 0001:0001c141       __ehhandler$??$_Buynode@U?$pair@VQString@@PAVcachedData@@@std@@@?$_Tree_buy@U?$pair@$$CBVQString@@PAVcachedData@@@std@@V?$allocator@U?$pair@$$CBVQString@@PAVcachedData@@@std@@@2@@std@@QAEPAU?$_Tree_node@U?$pair@$$CBVQString@@PAVcachedData@@@std@@PAX@1@$$QAU?$pair@VQString@@PAVcachedData@@@1@@Z 1001d141 f   bncs_config.obj
 0001:0001c160       __ehhandler$??$_Insert_nohint@AAU?$pair@$$CBVQString@@PAVcachedData@@@std@@PAU?$_Tree_node@U?$pair@$$CBVQString@@PAVcachedData@@@std@@PAX@2@@?$_Tree@V?$_Tmap_traits@VQString@@PAVcachedData@@U?$less@VQString@@@std@@V?$allocator@U?$pair@$$CBVQString@@PAVcachedData@@@std@@@4@$0A@@std@@@std@@IAE?AU?$pair@V?$_Tree_iterator@V?$_Tree_val@U?$_Tree_simple_types@U?$pair@$$CBVQString@@PAVcachedData@@@std@@@std@@@std@@@std@@_N@1@_NAAU?$pair@$$CBVQString@@PAVcachedData@@@1@PAU?$_Tree_node@U?$pair@$$CBVQString@@PAVcachedData@@@std@@PAX@1@@Z 1001d160 f   bncs_config.obj
 0001:0001c180       __unwindfunclet$??0bncs_config@@QAE@ABVbncs_string@@@Z$0 1001d180 f   bncs_config.obj
 0001:0001c18b       __unwindfunclet$??0bncs_config@@QAE@ABVbncs_string@@@Z$1 1001d18b f   bncs_config.obj
 0001:0001c196       __unwindfunclet$??0bncs_config@@QAE@ABVbncs_string@@@Z$2 1001d196 f   bncs_config.obj
 0001:0001c19f       __unwindfunclet$??0bncs_config@@QAE@ABVbncs_string@@@Z$3 1001d19f f   bncs_config.obj
 0001:0001c1a8       __unwindfunclet$??0bncs_config@@QAE@ABVbncs_string@@@Z$4 1001d1a8 f   bncs_config.obj
 0001:0001c1b1       __unwindfunclet$??0bncs_config@@QAE@ABVbncs_string@@@Z$5 1001d1b1 f   bncs_config.obj
 0001:0001c1ba       __unwindfunclet$??0bncs_config@@QAE@ABVbncs_string@@@Z$6 1001d1ba f   bncs_config.obj
 0001:0001c1c3       __unwindfunclet$??0bncs_config@@QAE@ABVbncs_string@@@Z$7 1001d1c3 f   bncs_config.obj
 0001:0001c1cc       __unwindfunclet$??0bncs_config@@QAE@ABVbncs_string@@@Z$8 1001d1cc f   bncs_config.obj
 0001:0001c1d5       __unwindfunclet$??0bncs_config@@QAE@ABVbncs_string@@@Z$9 1001d1d5 f   bncs_config.obj
 0001:0001c1de       __unwindfunclet$??0bncs_config@@QAE@ABVbncs_string@@@Z$10 1001d1de f   bncs_config.obj
 0001:0001c1e7       __unwindfunclet$??0bncs_config@@QAE@ABVbncs_string@@@Z$11 1001d1e7 f   bncs_config.obj
 0001:0001c1f0       __unwindfunclet$??0bncs_config@@QAE@ABVbncs_string@@@Z$12 1001d1f0 f   bncs_config.obj
 0001:0001c1f9       __unwindfunclet$??0bncs_config@@QAE@ABVbncs_string@@@Z$13 1001d1f9 f   bncs_config.obj
 0001:0001c202       __unwindfunclet$??0bncs_config@@QAE@ABVbncs_string@@@Z$14 1001d202 f   bncs_config.obj
 0001:0001c20b       __unwindfunclet$??0bncs_config@@QAE@ABVbncs_string@@@Z$15 1001d20b f   bncs_config.obj
 0001:0001c214       __unwindfunclet$??0bncs_config@@QAE@ABVbncs_string@@@Z$16 1001d214 f   bncs_config.obj
 0001:0001c21d       __ehhandler$??0bncs_config@@QAE@ABVbncs_string@@@Z 1001d21d f   bncs_config.obj
 0001:0001c240       __unwindfunclet$??1docCache@@UAE@XZ$0 1001d240 f   bncs_config.obj
 0001:0001c24b       __ehhandler$??1docCache@@UAE@XZ 1001d24b f   bncs_config.obj
 0001:0001c270       __unwindfunclet$??0bncs_config@@QAE@ABV0@@Z$0 1001d270 f   bncs_config.obj
 0001:0001c270       __unwindfunclet$??4bncs_config@@QAEAAV0@ABV0@@Z$0 1001d270 f   bncs_config.obj
 0001:0001c27b       __unwindfunclet$??4bncs_config@@QAEAAV0@ABV0@@Z$1 1001d27b f   bncs_config.obj
 0001:0001c27b       __unwindfunclet$??0bncs_config@@QAE@ABV0@@Z$1 1001d27b f   bncs_config.obj
 0001:0001c286       __ehhandler$??0bncs_config@@QAE@ABV0@@Z 1001d286 f   bncs_config.obj
 0001:0001c286       __ehhandler$??4bncs_config@@QAEAAV0@ABV0@@Z 1001d286 f   bncs_config.obj
 0001:0001c2b0       __unwindfunclet$?attr@bncs_config@@QAE?AVbncs_string@@ABV2@@Z$0 1001d2b0 f   bncs_config.obj
 0001:0001c2b0       __unwindfunclet$?childAttr@bncs_config@@QAE?AVbncs_string@@ABV2@@Z$0 1001d2b0 f   bncs_config.obj
 0001:0001c2b9       __unwindfunclet$?childAttr@bncs_config@@QAE?AVbncs_string@@ABV2@@Z$1 1001d2b9 f   bncs_config.obj
 0001:0001c2b9       __unwindfunclet$?attr@bncs_config@@QAE?AVbncs_string@@ABV2@@Z$1 1001d2b9 f   bncs_config.obj
 0001:0001c2c2       __unwindfunclet$?attr@bncs_config@@QAE?AVbncs_string@@ABV2@@Z$2 1001d2c2 f   bncs_config.obj
 0001:0001c2c2       __unwindfunclet$?childAttr@bncs_config@@QAE?AVbncs_string@@ABV2@@Z$2 1001d2c2 f   bncs_config.obj
 0001:0001c2cb       __unwindfunclet$?childAttr@bncs_config@@QAE?AVbncs_string@@ABV2@@Z$3 1001d2cb f   bncs_config.obj
 0001:0001c2cb       __unwindfunclet$?attr@bncs_config@@QAE?AVbncs_string@@ABV2@@Z$3 1001d2cb f   bncs_config.obj
 0001:0001c2e5       __ehhandler$?childAttr@bncs_config@@QAE?AVbncs_string@@ABV2@@Z 1001d2e5 f   bncs_config.obj
 0001:0001c2e5       __ehhandler$?attr@bncs_config@@QAE?AVbncs_string@@ABV2@@Z 1001d2e5 f   bncs_config.obj
 0001:0001c300       __unwindfunclet$?tag@bncs_config@@QAE?AVbncs_string@@XZ$0 1001d300 f   bncs_config.obj
 0001:0001c300       __unwindfunclet$?childTag@bncs_config@@QAE?AVbncs_string@@XZ$0 1001d300 f   bncs_config.obj
 0001:0001c309       __unwindfunclet$?childTag@bncs_config@@QAE?AVbncs_string@@XZ$1 1001d309 f   bncs_config.obj
 0001:0001c309       __unwindfunclet$?tag@bncs_config@@QAE?AVbncs_string@@XZ$1 1001d309 f   bncs_config.obj
 0001:0001c312       __unwindfunclet$?tag@bncs_config@@QAE?AVbncs_string@@XZ$2 1001d312 f   bncs_config.obj
 0001:0001c312       __unwindfunclet$?childTag@bncs_config@@QAE?AVbncs_string@@XZ$2 1001d312 f   bncs_config.obj
 0001:0001c32c       __ehhandler$?childTag@bncs_config@@QAE?AVbncs_string@@XZ 1001d32c f   bncs_config.obj
 0001:0001c32c       __ehhandler$?tag@bncs_config@@QAE?AVbncs_string@@XZ 1001d32c f   bncs_config.obj
 0001:0001c350       __unwindfunclet$?correctNodeForComments@bncs_config@@AAE_NAAVQDomNode@@@Z$0 1001d350 f   bncs_config.obj
 0001:0001c359       __unwindfunclet$?correctNodeForComments@bncs_config@@AAE_NAAVQDomNode@@@Z$1 1001d359 f   bncs_config.obj
 0001:0001c362       __ehhandler$?correctNodeForComments@bncs_config@@AAE_NAAVQDomNode@@@Z 1001d362 f   bncs_config.obj
 0001:0001c380       __unwindfunclet$?data@bncs_config@@QAE?AVbncs_string@@XZ$0 1001d380 f   bncs_config.obj
 0001:0001c389       __unwindfunclet$?data@bncs_config@@QAE?AVbncs_string@@XZ$2 1001d389 f   bncs_config.obj
 0001:0001c392       __unwindfunclet$?data@bncs_config@@QAE?AVbncs_string@@XZ$1 1001d392 f   bncs_config.obj
 0001:0001c39b       __unwindfunclet$?data@bncs_config@@QAE?AVbncs_string@@XZ$3 1001d39b f   bncs_config.obj
 0001:0001c3a4       __ehhandler$?data@bncs_config@@QAE?AVbncs_string@@XZ 1001d3a4 f   bncs_config.obj
 0001:0001c3c0       __unwindfunclet$?changeSerial@bncs_config@@SAHABVbncs_string@@@Z$0 1001d3c0 f   bncs_config.obj
 0001:0001c3c0       __unwindfunclet$?isDirty@bncs_config@@SA_NABVbncs_string@@@Z$0 1001d3c0 f   bncs_config.obj
 0001:0001c3c0       __unwindfunclet$?decSerial@bncs_config@@SAHABVbncs_string@@@Z$0 1001d3c0 f   bncs_config.obj
 0001:0001c3c0       __unwindfunclet$?cachedDoc@bncs_config@@SAPAVQDomDocument@@ABVbncs_string@@@Z$0 1001d3c0 f   bncs_config.obj
 0001:0001c3c0       __unwindfunclet$?incSerial@bncs_config@@SAHABVbncs_string@@@Z$0 1001d3c0 f   bncs_config.obj
 0001:0001c3c9       __ehhandler$?isDirty@bncs_config@@SA_NABVbncs_string@@@Z 1001d3c9 f   bncs_config.obj
 0001:0001c3c9       __ehhandler$?cachedDoc@bncs_config@@SAPAVQDomDocument@@ABVbncs_string@@@Z 1001d3c9 f   bncs_config.obj
 0001:0001c3c9       __ehhandler$?incSerial@bncs_config@@SAHABVbncs_string@@@Z 1001d3c9 f   bncs_config.obj
 0001:0001c3c9       __ehhandler$?changeSerial@bncs_config@@SAHABVbncs_string@@@Z 1001d3c9 f   bncs_config.obj
 0001:0001c3c9       __ehhandler$?decSerial@bncs_config@@SAHABVbncs_string@@@Z 1001d3c9 f   bncs_config.obj
 0001:0001c3f0       __unwindfunclet$?drillDown@bncs_config@@QAEXXZ$0 1001d3f0 f   bncs_config.obj
 0001:0001c3f0       __unwindfunclet$?nextChild@bncs_config@@QAE_NXZ$0 1001d3f0 f   bncs_config.obj
 0001:0001c3f9       __ehhandler$?nextChild@bncs_config@@QAE_NXZ 1001d3f9 f   bncs_config.obj
 0001:0001c3f9       __ehhandler$?drillDown@bncs_config@@QAEXXZ 1001d3f9 f   bncs_config.obj
 0001:0001c420       __unwindfunclet$?insert@docCache@@QAEXABVQString@@PAVcachedData@@@Z$0 1001d420 f   bncs_config.obj
 0001:0001c428       __ehhandler$?insert@docCache@@QAEXABVQString@@PAVcachedData@@@Z 1001d428 f   bncs_config.obj
 0001:0001c450       __unwindfunclet$?isValid@bncs_config@@QAE_NXZ$0 1001d450 f   bncs_config.obj
 0001:0001c450       __unwindfunclet$?isChildValid@bncs_config@@QAE_NXZ$0 1001d450 f   bncs_config.obj
 0001:0001c459       __ehhandler$?isChildValid@bncs_config@@QAE_NXZ 1001d459 f   bncs_config.obj
 0001:0001c459       __ehhandler$?isValid@bncs_config@@QAE_NXZ 1001d459 f   bncs_config.obj
 0001:0001c480       __unwindfunclet$?loadDoc@bncs_config@@CAPAVQDomDocument@@ABVbncs_string@@@Z$0 1001d480 f   bncs_config.obj
 0001:0001c48b       __unwindfunclet$?loadDoc@bncs_config@@CAPAVQDomDocument@@ABVbncs_string@@@Z$1 1001d48b f   bncs_config.obj
 0001:0001c494       __unwindfunclet$?loadDoc@bncs_config@@CAPAVQDomDocument@@ABVbncs_string@@@Z$2 1001d494 f   bncs_config.obj
 0001:0001c49d       __unwindfunclet$?loadDoc@bncs_config@@CAPAVQDomDocument@@ABVbncs_string@@@Z$3 1001d49d f   bncs_config.obj
 0001:0001c4a6       __unwindfunclet$?loadDoc@bncs_config@@CAPAVQDomDocument@@ABVbncs_string@@@Z$4 1001d4a6 f   bncs_config.obj
 0001:0001c4af       __unwindfunclet$?loadDoc@bncs_config@@CAPAVQDomDocument@@ABVbncs_string@@@Z$5 1001d4af f   bncs_config.obj
 0001:0001c4b8       __unwindfunclet$?loadDoc@bncs_config@@CAPAVQDomDocument@@ABVbncs_string@@@Z$6 1001d4b8 f   bncs_config.obj
 0001:0001c4c1       __unwindfunclet$?loadDoc@bncs_config@@CAPAVQDomDocument@@ABVbncs_string@@@Z$7 1001d4c1 f   bncs_config.obj
 0001:0001c4ca       __unwindfunclet$?loadDoc@bncs_config@@CAPAVQDomDocument@@ABVbncs_string@@@Z$9 1001d4ca f   bncs_config.obj
 0001:0001c4d3       __ehhandler$?loadDoc@bncs_config@@CAPAVQDomDocument@@ABVbncs_string@@@Z 1001d4d3 f   bncs_config.obj
 0001:0001c4f0       __unwindfunclet$?save@bncs_config@@SA_NXZ$0 1001d4f0 f   bncs_config.obj
 0001:0001c4f9       __unwindfunclet$?save@bncs_config@@SA_NXZ$1 1001d4f9 f   bncs_config.obj
 0001:0001c502       __unwindfunclet$?save@bncs_config@@SA_NXZ$2 1001d502 f   bncs_config.obj
 0001:0001c50b       __unwindfunclet$?save@bncs_config@@SA_NXZ$3 1001d50b f   bncs_config.obj
 0001:0001c514       __unwindfunclet$?save@bncs_config@@SA_NXZ$4 1001d514 f   bncs_config.obj
 0001:0001c51d       __unwindfunclet$?save@bncs_config@@SA_NXZ$5 1001d51d f   bncs_config.obj
 0001:0001c526       __unwindfunclet$?save@bncs_config@@SA_NXZ$6 1001d526 f   bncs_config.obj
 0001:0001c52f       __unwindfunclet$?save@bncs_config@@SA_NXZ$7 1001d52f f   bncs_config.obj
 0001:0001c53b       __unwindfunclet$?save@bncs_config@@SA_NXZ$8 1001d53b f   bncs_config.obj
 0001:0001c544       __ehhandler$?save@bncs_config@@SA_NXZ 1001d544 f   bncs_config.obj
 0001:0001c570       __unwindfunclet$??0?$QMapNode@VQString@@VcomplexInstance@@@@QAE@ABU0@@Z$0 1001d570 f   instanceLookup.obj
 0001:0001c57c       __unwindfunclet$??0?$QMapNode@VQString@@VcomplexInstance@@@@QAE@ABU0@@Z$1 1001d57c f   instanceLookup.obj
 0001:0001c588       __ehhandler$??0?$QMapNode@VQString@@VcomplexInstance@@@@QAE@ABU0@@Z 1001d588 f   instanceLookup.obj
 0001:0001c5b0       __unwindfunclet$??0?$QMapNode@VQString@@VcomplexParam@@@@QAE@ABU0@@Z$0 1001d5b0 f   instanceLookup.obj
 0001:0001c5bc       __unwindfunclet$??0?$QMapNode@VQString@@VcomplexParam@@@@QAE@ABU0@@Z$1 1001d5bc f   instanceLookup.obj
 0001:0001c5c8       __ehhandler$??0?$QMapNode@VQString@@VcomplexParam@@@@QAE@ABU0@@Z 1001d5c8 f   instanceLookup.obj
 0001:0001c5f0       __unwindfunclet$??0?$QMapNode@VQString@@VcomplexType@@@@QAE@ABU0@@Z$0 1001d5f0 f   instanceLookup.obj
 0001:0001c5fc       __unwindfunclet$??0?$QMapNode@VQString@@VcomplexType@@@@QAE@ABU0@@Z$1 1001d5fc f   instanceLookup.obj
 0001:0001c608       __ehhandler$??0?$QMapNode@VQString@@VcomplexType@@@@QAE@ABU0@@Z 1001d608 f   instanceLookup.obj
 0001:0001c630       __unwindfunclet$??0?$QMapNode@VQString@@VdeviceTypeInfo@@@@QAE@ABU0@@Z$0 1001d630 f   instanceLookup.obj
 0001:0001c63c       __unwindfunclet$??0?$QMapNode@VQString@@VdeviceTypeInfo@@@@QAE@ABU0@@Z$1 1001d63c f   instanceLookup.obj
 0001:0001c648       __ehhandler$??0?$QMapNode@VQString@@VdeviceTypeInfo@@@@QAE@ABU0@@Z 1001d648 f   instanceLookup.obj
 0001:0001c670       __unwindfunclet$??0?$QMapNode@VQString@@VinstanceInfo@@@@QAE@ABU0@@Z$0 1001d670 f   instanceLookup.obj
 0001:0001c67c       __unwindfunclet$??0?$QMapNode@VQString@@VinstanceInfo@@@@QAE@ABU0@@Z$1 1001d67c f   instanceLookup.obj
 0001:0001c688       __ehhandler$??0?$QMapNode@VQString@@VinstanceInfo@@@@QAE@ABU0@@Z 1001d688 f   instanceLookup.obj
 0001:0001c6b0       __unwindfunclet$??0?$QMapPrivate@VQString@@VcomplexInstance@@@@QAE@PBV0@@Z$0 1001d6b0 f   instanceLookup.obj
 0001:0001c6bb       __unwindfunclet$??0?$QMapPrivate@VQString@@VcomplexInstance@@@@QAE@PBV0@@Z$1 1001d6bb f   instanceLookup.obj
 0001:0001c6c7       __ehhandler$??0?$QMapPrivate@VQString@@VcomplexInstance@@@@QAE@PBV0@@Z 1001d6c7 f   instanceLookup.obj
 0001:0001c6f0       __unwindfunclet$??0?$QMapPrivate@VQString@@VcomplexInstance@@@@QAE@XZ$0 1001d6f0 f   instanceLookup.obj
 0001:0001c6fb       __unwindfunclet$??0?$QMapPrivate@VQString@@VcomplexInstance@@@@QAE@XZ$1 1001d6fb f   instanceLookup.obj
 0001:0001c707       __ehhandler$??0?$QMapPrivate@VQString@@VcomplexInstance@@@@QAE@XZ 1001d707 f   instanceLookup.obj
 0001:0001c730       __unwindfunclet$??0?$QMapPrivate@VQString@@VcomplexParam@@@@QAE@PBV0@@Z$0 1001d730 f   instanceLookup.obj
 0001:0001c73b       __unwindfunclet$??0?$QMapPrivate@VQString@@VcomplexParam@@@@QAE@PBV0@@Z$1 1001d73b f   instanceLookup.obj
 0001:0001c747       __ehhandler$??0?$QMapPrivate@VQString@@VcomplexParam@@@@QAE@PBV0@@Z 1001d747 f   instanceLookup.obj
 0001:0001c770       __unwindfunclet$??0?$QMapPrivate@VQString@@VcomplexParam@@@@QAE@XZ$0 1001d770 f   instanceLookup.obj
 0001:0001c77b       __unwindfunclet$??0?$QMapPrivate@VQString@@VcomplexParam@@@@QAE@XZ$1 1001d77b f   instanceLookup.obj
 0001:0001c787       __ehhandler$??0?$QMapPrivate@VQString@@VcomplexParam@@@@QAE@XZ 1001d787 f   instanceLookup.obj
 0001:0001c7b0       __unwindfunclet$??0?$QMapPrivate@VQString@@VcomplexType@@@@QAE@PBV0@@Z$0 1001d7b0 f   instanceLookup.obj
 0001:0001c7bb       __unwindfunclet$??0?$QMapPrivate@VQString@@VcomplexType@@@@QAE@PBV0@@Z$1 1001d7bb f   instanceLookup.obj
 0001:0001c7c7       __ehhandler$??0?$QMapPrivate@VQString@@VcomplexType@@@@QAE@PBV0@@Z 1001d7c7 f   instanceLookup.obj
 0001:0001c7f0       __unwindfunclet$??0?$QMapPrivate@VQString@@VcomplexType@@@@QAE@XZ$0 1001d7f0 f   instanceLookup.obj
 0001:0001c7fb       __unwindfunclet$??0?$QMapPrivate@VQString@@VcomplexType@@@@QAE@XZ$1 1001d7fb f   instanceLookup.obj
 0001:0001c807       __ehhandler$??0?$QMapPrivate@VQString@@VcomplexType@@@@QAE@XZ 1001d807 f   instanceLookup.obj
 0001:0001c830       __unwindfunclet$??0?$QMapPrivate@VQString@@VdeviceTypeInfo@@@@QAE@PBV0@@Z$0 1001d830 f   instanceLookup.obj
 0001:0001c83b       __unwindfunclet$??0?$QMapPrivate@VQString@@VdeviceTypeInfo@@@@QAE@PBV0@@Z$1 1001d83b f   instanceLookup.obj
 0001:0001c847       __ehhandler$??0?$QMapPrivate@VQString@@VdeviceTypeInfo@@@@QAE@PBV0@@Z 1001d847 f   instanceLookup.obj
 0001:0001c870       __unwindfunclet$??0?$QMapPrivate@VQString@@VdeviceTypeInfo@@@@QAE@XZ$0 1001d870 f   instanceLookup.obj
 0001:0001c87b       __unwindfunclet$??0?$QMapPrivate@VQString@@VdeviceTypeInfo@@@@QAE@XZ$1 1001d87b f   instanceLookup.obj
 0001:0001c887       __ehhandler$??0?$QMapPrivate@VQString@@VdeviceTypeInfo@@@@QAE@XZ 1001d887 f   instanceLookup.obj
 0001:0001c8b0       __unwindfunclet$??0?$QMapPrivate@VQString@@VinstanceInfo@@@@QAE@PBV0@@Z$0 1001d8b0 f   instanceLookup.obj
 0001:0001c8bb       __unwindfunclet$??0?$QMapPrivate@VQString@@VinstanceInfo@@@@QAE@PBV0@@Z$1 1001d8bb f   instanceLookup.obj
 0001:0001c8c7       __ehhandler$??0?$QMapPrivate@VQString@@VinstanceInfo@@@@QAE@PBV0@@Z 1001d8c7 f   instanceLookup.obj
 0001:0001c8f0       __unwindfunclet$??0?$QMapPrivate@VQString@@VinstanceInfo@@@@QAE@XZ$0 1001d8f0 f   instanceLookup.obj
 0001:0001c8fb       __unwindfunclet$??0?$QMapPrivate@VQString@@VinstanceInfo@@@@QAE@XZ$1 1001d8fb f   instanceLookup.obj
 0001:0001c907       __ehhandler$??0?$QMapPrivate@VQString@@VinstanceInfo@@@@QAE@XZ 1001d907 f   instanceLookup.obj
 0001:0001c930       __unwindfunclet$??0?$QMapPrivate@VQString@@VparamInfo@@@@QAE@PBV0@@Z$0 1001d930 f   instanceLookup.obj
 0001:0001c93b       __unwindfunclet$??0?$QMapPrivate@VQString@@VparamInfo@@@@QAE@PBV0@@Z$1 1001d93b f   instanceLookup.obj
 0001:0001c947       __ehhandler$??0?$QMapPrivate@VQString@@VparamInfo@@@@QAE@PBV0@@Z 1001d947 f   instanceLookup.obj
 0001:0001c970       __unwindfunclet$??0?$QMapPrivate@VQString@@VparamInfo@@@@QAE@XZ$0 1001d970 f   instanceLookup.obj
 0001:0001c97b       __unwindfunclet$??0?$QMapPrivate@VQString@@VparamInfo@@@@QAE@XZ$1 1001d97b f   instanceLookup.obj
 0001:0001c987       __ehhandler$??0?$QMapPrivate@VQString@@VparamInfo@@@@QAE@XZ 1001d987 f   instanceLookup.obj
 0001:0001c9b0       __unwindfunclet$?insert@?$QValueListPrivate@VcomplexInstance@@@@QAE?AV?$QValueListIterator@VcomplexInstance@@@@V2@ABVcomplexInstance@@@Z$0 1001d9b0 f   instanceLookup.obj
 0001:0001c9b0       __unwindfunclet$??0?$QValueListPrivate@VinstanceInfo@@@@QAE@XZ$0 1001d9b0 f   instanceLookup.obj
 0001:0001c9b0       __unwindfunclet$?insert@?$QValueListPrivate@VinstanceInfo@@@@QAE?AV?$QValueListIterator@VinstanceInfo@@@@V2@ABVinstanceInfo@@@Z$0 1001d9b0 f   instanceLookup.obj
 0001:0001c9b0       __unwindfunclet$?clear@?$QMap@VQString@@VcomplexType@@@@QAEXXZ$0 1001d9b0 f   instanceLookup.obj
 0001:0001c9b0       __unwindfunclet$?insert@?$QValueListPrivate@VcomplexType@@@@QAE?AV?$QValueListIterator@VcomplexType@@@@V2@ABVcomplexType@@@Z$0 1001d9b0 f   instanceLookup.obj
 0001:0001c9b0       __unwindfunclet$?insert@?$QValueListPrivate@VdeviceTypeInfo@@@@QAE?AV?$QValueListIterator@VdeviceTypeInfo@@@@V2@ABVdeviceTypeInfo@@@Z$0 1001d9b0 f   instanceLookup.obj
 0001:0001c9b0       __unwindfunclet$??0?$QValueListPrivate@VparamInfo@@@@QAE@XZ$0 1001d9b0 f   instanceLookup.obj
 0001:0001c9b0       __unwindfunclet$??0?$QValueListPrivate@VdeviceTypeInfo@@@@QAE@XZ$0 1001d9b0 f   instanceLookup.obj
 0001:0001c9b0       __unwindfunclet$?clear@?$QMap@VQString@@VdeviceTypeInfo@@@@QAEXXZ$0 1001d9b0 f   instanceLookup.obj
 0001:0001c9b0       __unwindfunclet$??0?$QValueListPrivate@VcomplexParam@@@@QAE@XZ$0 1001d9b0 f   instanceLookup.obj
 0001:0001c9b0       __unwindfunclet$?clear@?$QMap@VQString@@VcomplexParam@@@@QAEXXZ$0 1001d9b0 f   instanceLookup.obj
 0001:0001c9b0       __unwindfunclet$??0?$QValueListPrivate@VcomplexInstance@@@@QAE@XZ$0 1001d9b0 f   instanceLookup.obj
 0001:0001c9b0       __unwindfunclet$??0?$QValueListPrivate@VcomplexType@@@@QAE@XZ$0 1001d9b0 f   instanceLookup.obj
 0001:0001c9b0       __unwindfunclet$?clear@?$QMap@VQString@@VparamInfo@@@@QAEXXZ$0 1001d9b0 f   instanceLookup.obj
 0001:0001c9b0       __unwindfunclet$?clear@?$QMap@VQString@@VcomplexInstance@@@@QAEXXZ$0 1001d9b0 f   instanceLookup.obj
 0001:0001c9b0       __unwindfunclet$?clear@?$QMap@VQString@@VinstanceInfo@@@@QAEXXZ$0 1001d9b0 f   instanceLookup.obj
 0001:0001c9bb       __ehhandler$?clear@?$QMap@VQString@@VinstanceInfo@@@@QAEXXZ 1001d9bb f   instanceLookup.obj
 0001:0001c9bb       __ehhandler$?clear@?$QMap@VQString@@VcomplexInstance@@@@QAEXXZ 1001d9bb f   instanceLookup.obj
 0001:0001c9bb       __ehhandler$??0?$QValueListPrivate@VcomplexInstance@@@@QAE@XZ 1001d9bb f   instanceLookup.obj
 0001:0001c9bb       __ehhandler$??0?$QValueListPrivate@VdeviceTypeInfo@@@@QAE@XZ 1001d9bb f   instanceLookup.obj
 0001:0001c9bb       __ehhandler$?clear@?$QMap@VQString@@VparamInfo@@@@QAEXXZ 1001d9bb f   instanceLookup.obj
 0001:0001c9bb       __ehhandler$?insert@?$QValueListPrivate@VdeviceTypeInfo@@@@QAE?AV?$QValueListIterator@VdeviceTypeInfo@@@@V2@ABVdeviceTypeInfo@@@Z 1001d9bb f   instanceLookup.obj
 0001:0001c9bb       __ehhandler$?insert@?$QValueListPrivate@VcomplexType@@@@QAE?AV?$QValueListIterator@VcomplexType@@@@V2@ABVcomplexType@@@Z 1001d9bb f   instanceLookup.obj
 0001:0001c9bb       __ehhandler$?clear@?$QMap@VQString@@VcomplexParam@@@@QAEXXZ 1001d9bb f   instanceLookup.obj
 0001:0001c9bb       __ehhandler$?clear@?$QMap@VQString@@VcomplexType@@@@QAEXXZ 1001d9bb f   instanceLookup.obj
 0001:0001c9bb       __ehhandler$?insert@?$QValueListPrivate@VinstanceInfo@@@@QAE?AV?$QValueListIterator@VinstanceInfo@@@@V2@ABVinstanceInfo@@@Z 1001d9bb f   instanceLookup.obj
 0001:0001c9bb       __ehhandler$??0?$QValueListPrivate@VparamInfo@@@@QAE@XZ 1001d9bb f   instanceLookup.obj
 0001:0001c9bb       __ehhandler$??0?$QValueListPrivate@VinstanceInfo@@@@QAE@XZ 1001d9bb f   instanceLookup.obj
 0001:0001c9bb       __ehhandler$??0?$QValueListPrivate@VcomplexType@@@@QAE@XZ 1001d9bb f   instanceLookup.obj
 0001:0001c9bb       __ehhandler$?insert@?$QValueListPrivate@VcomplexInstance@@@@QAE?AV?$QValueListIterator@VcomplexInstance@@@@V2@ABVcomplexInstance@@@Z 1001d9bb f   instanceLookup.obj
 0001:0001c9bb       __ehhandler$?clear@?$QMap@VQString@@VdeviceTypeInfo@@@@QAEXXZ 1001d9bb f   instanceLookup.obj
 0001:0001c9bb       __ehhandler$??0?$QValueListPrivate@VcomplexParam@@@@QAE@XZ 1001d9bb f   instanceLookup.obj
 0001:0001c9e0       __unwindfunclet$??1?$QMapPrivate@VQString@@VcomplexInstance@@@@QAE@XZ$0 1001d9e0 f   instanceLookup.obj
 0001:0001c9ec       __ehhandler$??1?$QMapPrivate@VQString@@VcomplexInstance@@@@QAE@XZ 1001d9ec f   instanceLookup.obj
 0001:0001ca10       __unwindfunclet$??1?$QMapPrivate@VQString@@VcomplexParam@@@@QAE@XZ$0 1001da10 f   instanceLookup.obj
 0001:0001ca1c       __ehhandler$??1?$QMapPrivate@VQString@@VcomplexParam@@@@QAE@XZ 1001da1c f   instanceLookup.obj
 0001:0001ca40       __unwindfunclet$??1?$QMapPrivate@VQString@@VcomplexType@@@@QAE@XZ$0 1001da40 f   instanceLookup.obj
 0001:0001ca4c       __ehhandler$??1?$QMapPrivate@VQString@@VcomplexType@@@@QAE@XZ 1001da4c f   instanceLookup.obj
 0001:0001ca70       __unwindfunclet$??1?$QMapPrivate@VQString@@VdeviceTypeInfo@@@@QAE@XZ$0 1001da70 f   instanceLookup.obj
 0001:0001ca7c       __ehhandler$??1?$QMapPrivate@VQString@@VdeviceTypeInfo@@@@QAE@XZ 1001da7c f   instanceLookup.obj
 0001:0001caa0       __unwindfunclet$??1?$QMapPrivate@VQString@@VinstanceInfo@@@@QAE@XZ$0 1001daa0 f   instanceLookup.obj
 0001:0001caac       __ehhandler$??1?$QMapPrivate@VQString@@VinstanceInfo@@@@QAE@XZ 1001daac f   instanceLookup.obj
 0001:0001cad0       __unwindfunclet$??1?$QMapPrivate@VQString@@VparamInfo@@@@QAE@XZ$0 1001dad0 f   instanceLookup.obj
 0001:0001cadc       __ehhandler$??1?$QMapPrivate@VQString@@VparamInfo@@@@QAE@XZ 1001dadc f   instanceLookup.obj
 0001:0001cb00       __unwindfunclet$??A?$QMap@VQString@@VcomplexInstance@@@@QAEAAVcomplexInstance@@ABVQString@@@Z$1 1001db00 f   instanceLookup.obj
 0001:0001cb0b       __unwindfunclet$??A?$QMap@VQString@@VcomplexInstance@@@@QAEAAVcomplexInstance@@ABVQString@@@Z$0 1001db0b f   instanceLookup.obj
 0001:0001cb14       __unwindfunclet$??A?$QMap@VQString@@VcomplexInstance@@@@QAEAAVcomplexInstance@@ABVQString@@@Z$2 1001db14 f   instanceLookup.obj
 0001:0001cb1f       __ehhandler$??A?$QMap@VQString@@VcomplexInstance@@@@QAEAAVcomplexInstance@@ABVQString@@@Z 1001db1f f   instanceLookup.obj
 0001:0001cb40       __unwindfunclet$??A?$QMap@VQString@@VcomplexParam@@@@QAEAAVcomplexParam@@ABVQString@@@Z$1 1001db40 f   instanceLookup.obj
 0001:0001cb4b       __unwindfunclet$??A?$QMap@VQString@@VcomplexParam@@@@QAEAAVcomplexParam@@ABVQString@@@Z$0 1001db4b f   instanceLookup.obj
 0001:0001cb54       __ehhandler$??A?$QMap@VQString@@VcomplexParam@@@@QAEAAVcomplexParam@@ABVQString@@@Z 1001db54 f   instanceLookup.obj
 0001:0001cb70       __unwindfunclet$??A?$QMap@VQString@@VcomplexType@@@@QAEAAVcomplexType@@ABVQString@@@Z$1 1001db70 f   instanceLookup.obj
 0001:0001cb7b       __unwindfunclet$??A?$QMap@VQString@@VcomplexType@@@@QAEAAVcomplexType@@ABVQString@@@Z$0 1001db7b f   instanceLookup.obj
 0001:0001cb84       __unwindfunclet$??A?$QMap@VQString@@VcomplexType@@@@QAEAAVcomplexType@@ABVQString@@@Z$2 1001db84 f   instanceLookup.obj
 0001:0001cb8f       __ehhandler$??A?$QMap@VQString@@VcomplexType@@@@QAEAAVcomplexType@@ABVQString@@@Z 1001db8f f   instanceLookup.obj
 0001:0001cbb0       __unwindfunclet$??A?$QMap@VQString@@VdeviceTypeInfo@@@@QAEAAVdeviceTypeInfo@@ABVQString@@@Z$1 1001dbb0 f   instanceLookup.obj
 0001:0001cbbb       __unwindfunclet$??A?$QMap@VQString@@VdeviceTypeInfo@@@@QAEAAVdeviceTypeInfo@@ABVQString@@@Z$0 1001dbbb f   instanceLookup.obj
 0001:0001cbc4       __unwindfunclet$??A?$QMap@VQString@@VdeviceTypeInfo@@@@QAEAAVdeviceTypeInfo@@ABVQString@@@Z$2 1001dbc4 f   instanceLookup.obj
 0001:0001cbcf       __ehhandler$??A?$QMap@VQString@@VdeviceTypeInfo@@@@QAEAAVdeviceTypeInfo@@ABVQString@@@Z 1001dbcf f   instanceLookup.obj
 0001:0001cbf0       __unwindfunclet$??A?$QMap@VQString@@VinstanceInfo@@@@QAEAAVinstanceInfo@@ABVQString@@@Z$1 1001dbf0 f   instanceLookup.obj
 0001:0001cbfb       __unwindfunclet$??A?$QMap@VQString@@VinstanceInfo@@@@QAEAAVinstanceInfo@@ABVQString@@@Z$0 1001dbfb f   instanceLookup.obj
 0001:0001cc04       __unwindfunclet$??A?$QMap@VQString@@VinstanceInfo@@@@QAEAAVinstanceInfo@@ABVQString@@@Z$2 1001dc04 f   instanceLookup.obj
 0001:0001cc0f       __ehhandler$??A?$QMap@VQString@@VinstanceInfo@@@@QAEAAVinstanceInfo@@ABVQString@@@Z 1001dc0f f   instanceLookup.obj
 0001:0001cc30       __unwindfunclet$??A?$QMap@VQString@@VparamInfo@@@@QAEAAVparamInfo@@ABVQString@@@Z$1 1001dc30 f   instanceLookup.obj
 0001:0001cc3b       __unwindfunclet$??A?$QMap@VQString@@VparamInfo@@@@QAEAAVparamInfo@@ABVQString@@@Z$0 1001dc3b f   instanceLookup.obj
 0001:0001cc44       __unwindfunclet$??A?$QMap@VQString@@VparamInfo@@@@QAEAAVparamInfo@@ABVQString@@@Z$2 1001dc44 f   instanceLookup.obj
 0001:0001cc4f       __ehhandler$??A?$QMap@VQString@@VparamInfo@@@@QAEAAVparamInfo@@ABVQString@@@Z 1001dc4f f   instanceLookup.obj
 0001:0001cc70       __unwindfunclet$?clear@?$QMapPrivate@VQString@@VcomplexInstance@@@@QAEXPAU?$QMapNode@VQString@@VcomplexInstance@@@@@Z$0 1001dc70 f   instanceLookup.obj
 0001:0001cc7c       __ehhandler$?clear@?$QMapPrivate@VQString@@VcomplexInstance@@@@QAEXPAU?$QMapNode@VQString@@VcomplexInstance@@@@@Z 1001dc7c f   instanceLookup.obj
 0001:0001cca0       __unwindfunclet$?clear@?$QMapPrivate@VQString@@VcomplexParam@@@@QAEXPAU?$QMapNode@VQString@@VcomplexParam@@@@@Z$0 1001dca0 f   instanceLookup.obj
 0001:0001ccac       __ehhandler$?clear@?$QMapPrivate@VQString@@VcomplexParam@@@@QAEXPAU?$QMapNode@VQString@@VcomplexParam@@@@@Z 1001dcac f   instanceLookup.obj
 0001:0001ccd0       __unwindfunclet$?clear@?$QMapPrivate@VQString@@VcomplexType@@@@QAEXPAU?$QMapNode@VQString@@VcomplexType@@@@@Z$0 1001dcd0 f   instanceLookup.obj
 0001:0001ccdc       __ehhandler$?clear@?$QMapPrivate@VQString@@VcomplexType@@@@QAEXPAU?$QMapNode@VQString@@VcomplexType@@@@@Z 1001dcdc f   instanceLookup.obj
 0001:0001cd00       __unwindfunclet$?clear@?$QMapPrivate@VQString@@VdeviceTypeInfo@@@@QAEXPAU?$QMapNode@VQString@@VdeviceTypeInfo@@@@@Z$0 1001dd00 f   instanceLookup.obj
 0001:0001cd0c       __ehhandler$?clear@?$QMapPrivate@VQString@@VdeviceTypeInfo@@@@QAEXPAU?$QMapNode@VQString@@VdeviceTypeInfo@@@@@Z 1001dd0c f   instanceLookup.obj
 0001:0001cd30       __unwindfunclet$?clear@?$QMapPrivate@VQString@@VinstanceInfo@@@@QAEXPAU?$QMapNode@VQString@@VinstanceInfo@@@@@Z$0 1001dd30 f   instanceLookup.obj
 0001:0001cd3c       __ehhandler$?clear@?$QMapPrivate@VQString@@VinstanceInfo@@@@QAEXPAU?$QMapNode@VQString@@VinstanceInfo@@@@@Z 1001dd3c f   instanceLookup.obj
 0001:0001cd60       __unwindfunclet$?clear@?$QMapPrivate@VQString@@VparamInfo@@@@QAEXPAU?$QMapNode@VQString@@VparamInfo@@@@@Z$0 1001dd60 f   instanceLookup.obj
 0001:0001cd6c       __ehhandler$?clear@?$QMapPrivate@VQString@@VparamInfo@@@@QAEXPAU?$QMapNode@VQString@@VparamInfo@@@@@Z 1001dd6c f   instanceLookup.obj
 0001:0001cd90       __unwindfunclet$?copy@?$QMapPrivate@VQString@@VinstanceInfo@@@@QAEPAU?$QMapNode@VQString@@VinstanceInfo@@@@PAU2@@Z$0 1001dd90 f   instanceLookup.obj
 0001:0001cd90       __unwindfunclet$?copy@?$QMapPrivate@VQString@@VcomplexInstance@@@@QAEPAU?$QMapNode@VQString@@VcomplexInstance@@@@PAU2@@Z$0 1001dd90 f   instanceLookup.obj
 0001:0001cd90       __unwindfunclet$?copy@?$QMapPrivate@VQString@@VcomplexType@@@@QAEPAU?$QMapNode@VQString@@VcomplexType@@@@PAU2@@Z$0 1001dd90 f   instanceLookup.obj
 0001:0001cd90       __unwindfunclet$?copy@?$QMapPrivate@VQString@@VdeviceTypeInfo@@@@QAEPAU?$QMapNode@VQString@@VdeviceTypeInfo@@@@PAU2@@Z$0 1001dd90 f   instanceLookup.obj
 0001:0001cd90       __unwindfunclet$?copy@?$QMapPrivate@VQString@@VcomplexParam@@@@QAEPAU?$QMapNode@VQString@@VcomplexParam@@@@PAU2@@Z$0 1001dd90 f   instanceLookup.obj
 0001:0001cd9b       __ehhandler$?copy@?$QMapPrivate@VQString@@VcomplexInstance@@@@QAEPAU?$QMapNode@VQString@@VcomplexInstance@@@@PAU2@@Z 1001dd9b f   instanceLookup.obj
 0001:0001cd9b       __ehhandler$?copy@?$QMapPrivate@VQString@@VcomplexParam@@@@QAEPAU?$QMapNode@VQString@@VcomplexParam@@@@PAU2@@Z 1001dd9b f   instanceLookup.obj
 0001:0001cd9b       __ehhandler$?copy@?$QMapPrivate@VQString@@VinstanceInfo@@@@QAEPAU?$QMapNode@VQString@@VinstanceInfo@@@@PAU2@@Z 1001dd9b f   instanceLookup.obj
 0001:0001cd9b       __ehhandler$?copy@?$QMapPrivate@VQString@@VdeviceTypeInfo@@@@QAEPAU?$QMapNode@VQString@@VdeviceTypeInfo@@@@PAU2@@Z 1001dd9b f   instanceLookup.obj
 0001:0001cd9b       __ehhandler$?copy@?$QMapPrivate@VQString@@VcomplexType@@@@QAEPAU?$QMapNode@VQString@@VcomplexType@@@@PAU2@@Z 1001dd9b f   instanceLookup.obj
 0001:0001cdc0       __unwindfunclet$?copy@?$QMapPrivate@VQString@@VparamInfo@@@@QAEPAU?$QMapNode@VQString@@VparamInfo@@@@PAU2@@Z$0 1001ddc0 f   instanceLookup.obj
 0001:0001cdcb       __unwindfunclet$?copy@?$QMapPrivate@VQString@@VparamInfo@@@@QAEPAU?$QMapNode@VQString@@VparamInfo@@@@PAU2@@Z$1 1001ddcb f   instanceLookup.obj
 0001:0001cdd7       __unwindfunclet$?copy@?$QMapPrivate@VQString@@VparamInfo@@@@QAEPAU?$QMapNode@VQString@@VparamInfo@@@@PAU2@@Z$2 1001ddd7 f   instanceLookup.obj
 0001:0001cde3       __ehhandler$?copy@?$QMapPrivate@VQString@@VparamInfo@@@@QAEPAU?$QMapNode@VQString@@VparamInfo@@@@PAU2@@Z 1001dde3 f   instanceLookup.obj
 0001:0001ce00       __unwindfunclet$?remove@?$QMap@VQString@@VcomplexInstance@@@@QAEXV?$QMapIterator@VQString@@VcomplexInstance@@@@@Z$0 1001de00 f   instanceLookup.obj
 0001:0001ce00       __unwindfunclet$?erase@?$QMap@VQString@@VcomplexInstance@@@@QAEXV?$QMapIterator@VQString@@VcomplexInstance@@@@@Z$0 1001de00 f   instanceLookup.obj
 0001:0001ce0b       __unwindfunclet$?erase@?$QMap@VQString@@VcomplexInstance@@@@QAEXV?$QMapIterator@VQString@@VcomplexInstance@@@@@Z$1 1001de0b f   instanceLookup.obj
 0001:0001ce0b       __unwindfunclet$?remove@?$QMap@VQString@@VcomplexInstance@@@@QAEXV?$QMapIterator@VQString@@VcomplexInstance@@@@@Z$1 1001de0b f   instanceLookup.obj
 0001:0001ce17       __ehhandler$?remove@?$QMap@VQString@@VcomplexInstance@@@@QAEXV?$QMapIterator@VQString@@VcomplexInstance@@@@@Z 1001de17 f   instanceLookup.obj
 0001:0001ce17       __ehhandler$?erase@?$QMap@VQString@@VcomplexInstance@@@@QAEXV?$QMapIterator@VQString@@VcomplexInstance@@@@@Z 1001de17 f   instanceLookup.obj
 0001:0001ce40       __unwindfunclet$?erase@?$QMap@VQString@@VcomplexParam@@@@QAEXV?$QMapIterator@VQString@@VcomplexParam@@@@@Z$0 1001de40 f   instanceLookup.obj
 0001:0001ce40       __unwindfunclet$?remove@?$QMap@VQString@@VcomplexParam@@@@QAEXV?$QMapIterator@VQString@@VcomplexParam@@@@@Z$0 1001de40 f   instanceLookup.obj
 0001:0001ce4b       __unwindfunclet$?remove@?$QMap@VQString@@VcomplexParam@@@@QAEXV?$QMapIterator@VQString@@VcomplexParam@@@@@Z$1 1001de4b f   instanceLookup.obj
 0001:0001ce4b       __unwindfunclet$?erase@?$QMap@VQString@@VcomplexParam@@@@QAEXV?$QMapIterator@VQString@@VcomplexParam@@@@@Z$1 1001de4b f   instanceLookup.obj
 0001:0001ce57       __ehhandler$?erase@?$QMap@VQString@@VcomplexParam@@@@QAEXV?$QMapIterator@VQString@@VcomplexParam@@@@@Z 1001de57 f   instanceLookup.obj
 0001:0001ce57       __ehhandler$?remove@?$QMap@VQString@@VcomplexParam@@@@QAEXV?$QMapIterator@VQString@@VcomplexParam@@@@@Z 1001de57 f   instanceLookup.obj
 0001:0001ce80       __unwindfunclet$?erase@?$QMap@VQString@@VdeviceTypeInfo@@@@QAEXABVQString@@@Z$0 1001de80 f   instanceLookup.obj
 0001:0001ce80       __unwindfunclet$?remove@?$QMap@VQString@@VdeviceTypeInfo@@@@QAEXABVQString@@@Z$0 1001de80 f   instanceLookup.obj
 0001:0001ce8b       __unwindfunclet$?remove@?$QMap@VQString@@VdeviceTypeInfo@@@@QAEXABVQString@@@Z$1 1001de8b f   instanceLookup.obj
 0001:0001ce8b       __unwindfunclet$?erase@?$QMap@VQString@@VdeviceTypeInfo@@@@QAEXABVQString@@@Z$1 1001de8b f   instanceLookup.obj
 0001:0001ce96       __unwindfunclet$?erase@?$QMap@VQString@@VdeviceTypeInfo@@@@QAEXABVQString@@@Z$2 1001de96 f   instanceLookup.obj
 0001:0001ce96       __unwindfunclet$?remove@?$QMap@VQString@@VdeviceTypeInfo@@@@QAEXABVQString@@@Z$2 1001de96 f   instanceLookup.obj
 0001:0001cea2       __ehhandler$?erase@?$QMap@VQString@@VdeviceTypeInfo@@@@QAEXABVQString@@@Z 1001dea2 f   instanceLookup.obj
 0001:0001cea2       __ehhandler$?remove@?$QMap@VQString@@VdeviceTypeInfo@@@@QAEXABVQString@@@Z 1001dea2 f   instanceLookup.obj
 0001:0001cec0       __unwindfunclet$?remove@?$QMap@VQString@@VinstanceInfo@@@@QAEXV?$QMapIterator@VQString@@VinstanceInfo@@@@@Z$0 1001dec0 f   instanceLookup.obj
 0001:0001cec0       __unwindfunclet$?erase@?$QMap@VQString@@VinstanceInfo@@@@QAEXV?$QMapIterator@VQString@@VinstanceInfo@@@@@Z$0 1001dec0 f   instanceLookup.obj
 0001:0001cecb       __unwindfunclet$?remove@?$QMap@VQString@@VinstanceInfo@@@@QAEXV?$QMapIterator@VQString@@VinstanceInfo@@@@@Z$1 1001decb f   instanceLookup.obj
 0001:0001cecb       __unwindfunclet$?erase@?$QMap@VQString@@VinstanceInfo@@@@QAEXV?$QMapIterator@VQString@@VinstanceInfo@@@@@Z$1 1001decb f   instanceLookup.obj
 0001:0001ced7       __ehhandler$?remove@?$QMap@VQString@@VinstanceInfo@@@@QAEXV?$QMapIterator@VQString@@VinstanceInfo@@@@@Z 1001ded7 f   instanceLookup.obj
 0001:0001ced7       __ehhandler$?erase@?$QMap@VQString@@VinstanceInfo@@@@QAEXV?$QMapIterator@VQString@@VinstanceInfo@@@@@Z 1001ded7 f   instanceLookup.obj
 0001:0001cf00       __unwindfunclet$?remove@?$QMap@VQString@@VparamInfo@@@@QAEXABVQString@@@Z$0 1001df00 f   instanceLookup.obj
 0001:0001cf00       __unwindfunclet$?erase@?$QMap@VQString@@VparamInfo@@@@QAEXABVQString@@@Z$0 1001df00 f   instanceLookup.obj
 0001:0001cf0b       __unwindfunclet$?erase@?$QMap@VQString@@VparamInfo@@@@QAEXABVQString@@@Z$1 1001df0b f   instanceLookup.obj
 0001:0001cf0b       __unwindfunclet$?remove@?$QMap@VQString@@VparamInfo@@@@QAEXABVQString@@@Z$1 1001df0b f   instanceLookup.obj
 0001:0001cf16       __unwindfunclet$?erase@?$QMap@VQString@@VparamInfo@@@@QAEXABVQString@@@Z$2 1001df16 f   instanceLookup.obj
 0001:0001cf16       __unwindfunclet$?remove@?$QMap@VQString@@VparamInfo@@@@QAEXABVQString@@@Z$2 1001df16 f   instanceLookup.obj
 0001:0001cf22       __ehhandler$?erase@?$QMap@VQString@@VparamInfo@@@@QAEXABVQString@@@Z 1001df22 f   instanceLookup.obj
 0001:0001cf22       __ehhandler$?remove@?$QMap@VQString@@VparamInfo@@@@QAEXABVQString@@@Z 1001df22 f   instanceLookup.obj
 0001:0001cf40       __unwindfunclet$?begin@?$QMap@VQString@@VcomplexParam@@@@QAE?AV?$QMapIterator@VQString@@VcomplexParam@@@@XZ$0 1001df40 f   instanceLookup.obj
 0001:0001cf40       __unwindfunclet$?end@?$QMap@VQString@@VcomplexType@@@@QAE?AV?$QMapIterator@VQString@@VcomplexType@@@@XZ$0 1001df40 f   instanceLookup.obj
 0001:0001cf40       __unwindfunclet$?begin@?$QMap@VQString@@VdeviceTypeInfo@@@@QAE?AV?$QMapIterator@VQString@@VdeviceTypeInfo@@@@XZ$0 1001df40 f   instanceLookup.obj
 0001:0001cf40       __unwindfunclet$?end@?$QMap@VQString@@VcomplexParam@@@@QAE?AV?$QMapIterator@VQString@@VcomplexParam@@@@XZ$0 1001df40 f   instanceLookup.obj
 0001:0001cf40       __unwindfunclet$?find@?$QMap@VQString@@VcomplexType@@@@QAE?AV?$QMapIterator@VQString@@VcomplexType@@@@ABVQString@@@Z$0 1001df40 f   instanceLookup.obj
 0001:0001cf40       __unwindfunclet$?detach@?$QMap@VQString@@VinstanceInfo@@@@IAEXXZ$0 1001df40 f   instanceLookup.obj
 0001:0001cf40       __unwindfunclet$?end@?$QMap@VQString@@VdeviceTypeInfo@@@@QAE?AV?$QMapIterator@VQString@@VdeviceTypeInfo@@@@XZ$0 1001df40 f   instanceLookup.obj
 0001:0001cf40       __unwindfunclet$?find@?$QMap@VQString@@VdeviceTypeInfo@@@@QAE?AV?$QMapIterator@VQString@@VdeviceTypeInfo@@@@ABVQString@@@Z$0 1001df40 f   instanceLookup.obj
 0001:0001cf40       __unwindfunclet$?detachInternal@?$QMap@VQString@@VcomplexParam@@@@AAEXXZ$0 1001df40 f   instanceLookup.obj
 0001:0001cf40       __unwindfunclet$?detachInternal@?$QMap@VQString@@VinstanceInfo@@@@AAEXXZ$0 1001df40 f   instanceLookup.obj
 0001:0001cf40       __unwindfunclet$?begin@?$QMap@VQString@@VcomplexType@@@@QAE?AV?$QMapIterator@VQString@@VcomplexType@@@@XZ$0 1001df40 f   instanceLookup.obj
 0001:0001cf40       __unwindfunclet$?detachInternal@?$QMap@VQString@@VparamInfo@@@@AAEXXZ$0 1001df40 f   instanceLookup.obj
 0001:0001cf40       __unwindfunclet$?detach@?$QMap@VQString@@VparamInfo@@@@IAEXXZ$0 1001df40 f   instanceLookup.obj
 0001:0001cf40       __unwindfunclet$??0?$QMap@VQString@@VcomplexInstance@@@@QAE@XZ$0 1001df40 f   instanceLookup.obj
 0001:0001cf40       __unwindfunclet$??0?$QMap@VQString@@VdeviceTypeInfo@@@@QAE@XZ$0 1001df40 f   instanceLookup.obj
 0001:0001cf40       __unwindfunclet$?find@?$QMap@VQString@@VinstanceInfo@@@@QAE?AV?$QMapIterator@VQString@@VinstanceInfo@@@@ABVQString@@@Z$0 1001df40 f   instanceLookup.obj
 0001:0001cf40       __unwindfunclet$??0?$QMap@VQString@@VcomplexParam@@@@QAE@XZ$0 1001df40 f   instanceLookup.obj
 0001:0001cf40       __unwindfunclet$?detach@?$QMap@VQString@@VcomplexType@@@@IAEXXZ$0 1001df40 f   instanceLookup.obj
 0001:0001cf40       __unwindfunclet$?detach@?$QMap@VQString@@VdeviceTypeInfo@@@@IAEXXZ$0 1001df40 f   instanceLookup.obj
 0001:0001cf40       __unwindfunclet$?detachInternal@?$QMap@VQString@@VcomplexType@@@@AAEXXZ$0 1001df40 f   instanceLookup.obj
 0001:0001cf40       __unwindfunclet$?detach@?$QMap@VQString@@VcomplexParam@@@@IAEXXZ$0 1001df40 f   instanceLookup.obj
 0001:0001cf40       __unwindfunclet$?find@?$QMap@VQString@@VcomplexParam@@@@QAE?AV?$QMapIterator@VQString@@VcomplexParam@@@@ABVQString@@@Z$0 1001df40 f   instanceLookup.obj
 0001:0001cf40       __unwindfunclet$?detachInternal@?$QMap@VQString@@VdeviceTypeInfo@@@@AAEXXZ$0 1001df40 f   instanceLookup.obj
 0001:0001cf40       __unwindfunclet$?find@?$QMap@VQString@@VcomplexInstance@@@@QAE?AV?$QMapIterator@VQString@@VcomplexInstance@@@@ABVQString@@@Z$0 1001df40 f   instanceLookup.obj
 0001:0001cf40       __unwindfunclet$?begin@?$QMap@VQString@@VparamInfo@@@@QAE?AV?$QMapIterator@VQString@@VparamInfo@@@@XZ$0 1001df40 f   instanceLookup.obj
 0001:0001cf40       __unwindfunclet$?end@?$QMap@VQString@@VcomplexInstance@@@@QAE?AV?$QMapIterator@VQString@@VcomplexInstance@@@@XZ$0 1001df40 f   instanceLookup.obj
 0001:0001cf40       __unwindfunclet$??0?$QMap@VQString@@VparamInfo@@@@QAE@XZ$0 1001df40 f   instanceLookup.obj
 0001:0001cf40       __unwindfunclet$?end@?$QMap@VQString@@VparamInfo@@@@QAE?AV?$QMapIterator@VQString@@VparamInfo@@@@XZ$0 1001df40 f   instanceLookup.obj
 0001:0001cf40       __unwindfunclet$??0?$QMap@VQString@@VcomplexType@@@@QAE@XZ$0 1001df40 f   instanceLookup.obj
 0001:0001cf40       __unwindfunclet$?detach@?$QMap@VQString@@VcomplexInstance@@@@IAEXXZ$0 1001df40 f   instanceLookup.obj
 0001:0001cf40       __unwindfunclet$?detachInternal@?$QMap@VQString@@VcomplexInstance@@@@AAEXXZ$0 1001df40 f   instanceLookup.obj
 0001:0001cf40       __unwindfunclet$?begin@?$QMap@VQString@@VcomplexInstance@@@@QAE?AV?$QMapIterator@VQString@@VcomplexInstance@@@@XZ$0 1001df40 f   instanceLookup.obj
 0001:0001cf40       __unwindfunclet$??0?$QMap@VQString@@VinstanceInfo@@@@QAE@XZ$0 1001df40 f   instanceLookup.obj
 0001:0001cf40       __unwindfunclet$?find@?$QMap@VQString@@VparamInfo@@@@QAE?AV?$QMapIterator@VQString@@VparamInfo@@@@ABVQString@@@Z$0 1001df40 f   instanceLookup.obj
 0001:0001cf40       __unwindfunclet$?end@?$QMap@VQString@@VinstanceInfo@@@@QAE?AV?$QMapIterator@VQString@@VinstanceInfo@@@@XZ$0 1001df40 f   instanceLookup.obj
 0001:0001cf40       __unwindfunclet$?begin@?$QMap@VQString@@VinstanceInfo@@@@QAE?AV?$QMapIterator@VQString@@VinstanceInfo@@@@XZ$0 1001df40 f   instanceLookup.obj
 0001:0001cf4b       __ehhandler$?end@?$QMap@VQString@@VinstanceInfo@@@@QAE?AV?$QMapIterator@VQString@@VinstanceInfo@@@@XZ 1001df4b f   instanceLookup.obj
 0001:0001cf4b       __ehhandler$?begin@?$QMap@VQString@@VinstanceInfo@@@@QAE?AV?$QMapIterator@VQString@@VinstanceInfo@@@@XZ 1001df4b f   instanceLookup.obj
 0001:0001cf4b       __ehhandler$?begin@?$QMap@VQString@@VparamInfo@@@@QAE?AV?$QMapIterator@VQString@@VparamInfo@@@@XZ 1001df4b f   instanceLookup.obj
 0001:0001cf4b       __ehhandler$??0?$QMap@VQString@@VinstanceInfo@@@@QAE@XZ 1001df4b f   instanceLookup.obj
 0001:0001cf4b       __ehhandler$?begin@?$QMap@VQString@@VcomplexInstance@@@@QAE?AV?$QMapIterator@VQString@@VcomplexInstance@@@@XZ 1001df4b f   instanceLookup.obj
 0001:0001cf4b       __ehhandler$?detachInternal@?$QMap@VQString@@VcomplexInstance@@@@AAEXXZ 1001df4b f   instanceLookup.obj
 0001:0001cf4b       __ehhandler$??0?$QMap@VQString@@VcomplexType@@@@QAE@XZ 1001df4b f   instanceLookup.obj
 0001:0001cf4b       __ehhandler$?detach@?$QMap@VQString@@VcomplexInstance@@@@IAEXXZ 1001df4b f   instanceLookup.obj
 0001:0001cf4b       __ehhandler$?end@?$QMap@VQString@@VparamInfo@@@@QAE?AV?$QMapIterator@VQString@@VparamInfo@@@@XZ 1001df4b f   instanceLookup.obj
 0001:0001cf4b       __ehhandler$?begin@?$QMap@VQString@@VcomplexType@@@@QAE?AV?$QMapIterator@VQString@@VcomplexType@@@@XZ 1001df4b f   instanceLookup.obj
 0001:0001cf4b       __ehhandler$?end@?$QMap@VQString@@VcomplexInstance@@@@QAE?AV?$QMapIterator@VQString@@VcomplexInstance@@@@XZ 1001df4b f   instanceLookup.obj
 0001:0001cf4b       __ehhandler$??0?$QMap@VQString@@VparamInfo@@@@QAE@XZ 1001df4b f   instanceLookup.obj
 0001:0001cf4b       __ehhandler$?find@?$QMap@VQString@@VcomplexParam@@@@QAE?AV?$QMapIterator@VQString@@VcomplexParam@@@@ABVQString@@@Z 1001df4b f   instanceLookup.obj
 0001:0001cf4b       __ehhandler$?detach@?$QMap@VQString@@VparamInfo@@@@IAEXXZ 1001df4b f   instanceLookup.obj
 0001:0001cf4b       __ehhandler$?detachInternal@?$QMap@VQString@@VdeviceTypeInfo@@@@AAEXXZ 1001df4b f   instanceLookup.obj
 0001:0001cf4b       __ehhandler$?find@?$QMap@VQString@@VparamInfo@@@@QAE?AV?$QMapIterator@VQString@@VparamInfo@@@@ABVQString@@@Z 1001df4b f   instanceLookup.obj
 0001:0001cf4b       __ehhandler$?detachInternal@?$QMap@VQString@@VcomplexType@@@@AAEXXZ 1001df4b f   instanceLookup.obj
 0001:0001cf4b       __ehhandler$?find@?$QMap@VQString@@VinstanceInfo@@@@QAE?AV?$QMapIterator@VQString@@VinstanceInfo@@@@ABVQString@@@Z 1001df4b f   instanceLookup.obj
 0001:0001cf4b       __ehhandler$?detach@?$QMap@VQString@@VcomplexType@@@@IAEXXZ 1001df4b f   instanceLookup.obj
 0001:0001cf4b       __ehhandler$?detachInternal@?$QMap@VQString@@VcomplexParam@@@@AAEXXZ 1001df4b f   instanceLookup.obj
 0001:0001cf4b       __ehhandler$?detach@?$QMap@VQString@@VdeviceTypeInfo@@@@IAEXXZ 1001df4b f   instanceLookup.obj
 0001:0001cf4b       __ehhandler$?detachInternal@?$QMap@VQString@@VparamInfo@@@@AAEXXZ 1001df4b f   instanceLookup.obj
 0001:0001cf4b       __ehhandler$??0?$QMap@VQString@@VcomplexInstance@@@@QAE@XZ 1001df4b f   instanceLookup.obj
 0001:0001cf4b       __ehhandler$?find@?$QMap@VQString@@VcomplexInstance@@@@QAE?AV?$QMapIterator@VQString@@VcomplexInstance@@@@ABVQString@@@Z 1001df4b f   instanceLookup.obj
 0001:0001cf4b       __ehhandler$?find@?$QMap@VQString@@VdeviceTypeInfo@@@@QAE?AV?$QMapIterator@VQString@@VdeviceTypeInfo@@@@ABVQString@@@Z 1001df4b f   instanceLookup.obj
 0001:0001cf4b       __ehhandler$?end@?$QMap@VQString@@VcomplexType@@@@QAE?AV?$QMapIterator@VQString@@VcomplexType@@@@XZ 1001df4b f   instanceLookup.obj
 0001:0001cf4b       __ehhandler$?end@?$QMap@VQString@@VdeviceTypeInfo@@@@QAE?AV?$QMapIterator@VQString@@VdeviceTypeInfo@@@@XZ 1001df4b f   instanceLookup.obj
 0001:0001cf4b       __ehhandler$?find@?$QMap@VQString@@VcomplexType@@@@QAE?AV?$QMapIterator@VQString@@VcomplexType@@@@ABVQString@@@Z 1001df4b f   instanceLookup.obj
 0001:0001cf4b       __ehhandler$?end@?$QMap@VQString@@VcomplexParam@@@@QAE?AV?$QMapIterator@VQString@@VcomplexParam@@@@XZ 1001df4b f   instanceLookup.obj
 0001:0001cf4b       __ehhandler$?detach@?$QMap@VQString@@VinstanceInfo@@@@IAEXXZ 1001df4b f   instanceLookup.obj
 0001:0001cf4b       __ehhandler$?begin@?$QMap@VQString@@VcomplexParam@@@@QAE?AV?$QMapIterator@VQString@@VcomplexParam@@@@XZ 1001df4b f   instanceLookup.obj
 0001:0001cf4b       __ehhandler$?detachInternal@?$QMap@VQString@@VinstanceInfo@@@@AAEXXZ 1001df4b f   instanceLookup.obj
 0001:0001cf4b       __ehhandler$??0?$QMap@VQString@@VcomplexParam@@@@QAE@XZ 1001df4b f   instanceLookup.obj
 0001:0001cf4b       __ehhandler$??0?$QMap@VQString@@VdeviceTypeInfo@@@@QAE@XZ 1001df4b f   instanceLookup.obj
 0001:0001cf4b       __ehhandler$?detach@?$QMap@VQString@@VcomplexParam@@@@IAEXXZ 1001df4b f   instanceLookup.obj
 0001:0001cf4b       __ehhandler$?begin@?$QMap@VQString@@VdeviceTypeInfo@@@@QAE?AV?$QMapIterator@VQString@@VdeviceTypeInfo@@@@XZ 1001df4b f   instanceLookup.obj
 0001:0001cf70       __unwindfunclet$?insert@?$QMap@VQString@@VcomplexType@@@@QAE?AU?$QPair@V?$QMapIterator@VQString@@VcomplexType@@@@_N@@ABU?$QPair@$$CBVQString@@VcomplexType@@@@@Z$0 1001df70 f   instanceLookup.obj
 0001:0001cf70       __unwindfunclet$?insert@?$QMap@VQString@@VcomplexInstance@@@@QAE?AU?$QPair@V?$QMapIterator@VQString@@VcomplexInstance@@@@_N@@ABU?$QPair@$$CBVQString@@VcomplexInstance@@@@@Z$0 1001df70 f   instanceLookup.obj
 0001:0001cf70       __unwindfunclet$?insert@?$QMap@VQString@@VparamInfo@@@@QAE?AV?$QMapIterator@VQString@@VparamInfo@@@@ABVQString@@ABVparamInfo@@_N@Z$0 1001df70 f   instanceLookup.obj
 0001:0001cf70       __unwindfunclet$?insert@?$QMap@VQString@@VdeviceTypeInfo@@@@QAE?AV?$QMapIterator@VQString@@VdeviceTypeInfo@@@@ABVQString@@ABVdeviceTypeInfo@@_N@Z$0 1001df70 f   instanceLookup.obj
 0001:0001cf70       __unwindfunclet$?insert@?$QMap@VQString@@VcomplexInstance@@@@QAE?AV?$QMapIterator@VQString@@VcomplexInstance@@@@ABVQString@@ABVcomplexInstance@@_N@Z$0 1001df70 f   instanceLookup.obj
 0001:0001cf70       __unwindfunclet$?insert@?$QMap@VQString@@VparamInfo@@@@QAE?AU?$QPair@V?$QMapIterator@VQString@@VparamInfo@@@@_N@@ABU?$QPair@$$CBVQString@@VparamInfo@@@@@Z$0 1001df70 f   instanceLookup.obj
 0001:0001cf70       __unwindfunclet$?insert@?$QMap@VQString@@VcomplexType@@@@QAE?AV?$QMapIterator@VQString@@VcomplexType@@@@ABVQString@@ABVcomplexType@@_N@Z$0 1001df70 f   instanceLookup.obj
 0001:0001cf70       __unwindfunclet$?insert@?$QMap@VQString@@VdeviceTypeInfo@@@@QAE?AU?$QPair@V?$QMapIterator@VQString@@VdeviceTypeInfo@@@@_N@@ABU?$QPair@$$CBVQString@@VdeviceTypeInfo@@@@@Z$0 1001df70 f   instanceLookup.obj
 0001:0001cf70       __unwindfunclet$?insert@?$QMap@VQString@@VinstanceInfo@@@@QAE?AU?$QPair@V?$QMapIterator@VQString@@VinstanceInfo@@@@_N@@ABU?$QPair@$$CBVQString@@VinstanceInfo@@@@@Z$0 1001df70 f   instanceLookup.obj
 0001:0001cf70       __unwindfunclet$?insert@?$QMap@VQString@@VcomplexParam@@@@QAE?AU?$QPair@V?$QMapIterator@VQString@@VcomplexParam@@@@_N@@ABU?$QPair@$$CBVQString@@VcomplexParam@@@@@Z$0 1001df70 f   instanceLookup.obj
 0001:0001cf70       __unwindfunclet$?insert@?$QMap@VQString@@VinstanceInfo@@@@QAE?AV?$QMapIterator@VQString@@VinstanceInfo@@@@ABVQString@@ABVinstanceInfo@@_N@Z$0 1001df70 f   instanceLookup.obj
 0001:0001cf70       __unwindfunclet$?insert@?$QMap@VQString@@VcomplexParam@@@@QAE?AV?$QMapIterator@VQString@@VcomplexParam@@@@ABVQString@@ABVcomplexParam@@_N@Z$0 1001df70 f   instanceLookup.obj
 0001:0001cf7b       __ehhandler$?insert@?$QMap@VQString@@VdeviceTypeInfo@@@@QAE?AU?$QPair@V?$QMapIterator@VQString@@VdeviceTypeInfo@@@@_N@@ABU?$QPair@$$CBVQString@@VdeviceTypeInfo@@@@@Z 1001df7b f   instanceLookup.obj
 0001:0001cf7b       __ehhandler$?insert@?$QMap@VQString@@VinstanceInfo@@@@QAE?AU?$QPair@V?$QMapIterator@VQString@@VinstanceInfo@@@@_N@@ABU?$QPair@$$CBVQString@@VinstanceInfo@@@@@Z 1001df7b f   instanceLookup.obj
 0001:0001cf7b       __ehhandler$?insert@?$QMap@VQString@@VcomplexParam@@@@QAE?AU?$QPair@V?$QMapIterator@VQString@@VcomplexParam@@@@_N@@ABU?$QPair@$$CBVQString@@VcomplexParam@@@@@Z 1001df7b f   instanceLookup.obj
 0001:0001cf7b       __ehhandler$?insert@?$QMap@VQString@@VdeviceTypeInfo@@@@QAE?AV?$QMapIterator@VQString@@VdeviceTypeInfo@@@@ABVQString@@ABVdeviceTypeInfo@@_N@Z 1001df7b f   instanceLookup.obj
 0001:0001cf7b       __ehhandler$?insert@?$QMap@VQString@@VparamInfo@@@@QAE?AU?$QPair@V?$QMapIterator@VQString@@VparamInfo@@@@_N@@ABU?$QPair@$$CBVQString@@VparamInfo@@@@@Z 1001df7b f   instanceLookup.obj
 0001:0001cf7b       __ehhandler$?insert@?$QMap@VQString@@VcomplexInstance@@@@QAE?AV?$QMapIterator@VQString@@VcomplexInstance@@@@ABVQString@@ABVcomplexInstance@@_N@Z 1001df7b f   instanceLookup.obj
 0001:0001cf7b       __ehhandler$?insert@?$QMap@VQString@@VcomplexType@@@@QAE?AU?$QPair@V?$QMapIterator@VQString@@VcomplexType@@@@_N@@ABU?$QPair@$$CBVQString@@VcomplexType@@@@@Z 1001df7b f   instanceLookup.obj
 0001:0001cf7b       __ehhandler$?insert@?$QMap@VQString@@VparamInfo@@@@QAE?AV?$QMapIterator@VQString@@VparamInfo@@@@ABVQString@@ABVparamInfo@@_N@Z 1001df7b f   instanceLookup.obj
 0001:0001cf7b       __ehhandler$?insert@?$QMap@VQString@@VcomplexInstance@@@@QAE?AU?$QPair@V?$QMapIterator@VQString@@VcomplexInstance@@@@_N@@ABU?$QPair@$$CBVQString@@VcomplexInstance@@@@@Z 1001df7b f   instanceLookup.obj
 0001:0001cf7b       __ehhandler$?insert@?$QMap@VQString@@VcomplexType@@@@QAE?AV?$QMapIterator@VQString@@VcomplexType@@@@ABVQString@@ABVcomplexType@@_N@Z 1001df7b f   instanceLookup.obj
 0001:0001cf7b       __ehhandler$?insert@?$QMap@VQString@@VinstanceInfo@@@@QAE?AV?$QMapIterator@VQString@@VinstanceInfo@@@@ABVQString@@ABVinstanceInfo@@_N@Z 1001df7b f   instanceLookup.obj
 0001:0001cf7b       __ehhandler$?insert@?$QMap@VQString@@VcomplexParam@@@@QAE?AV?$QMapIterator@VQString@@VcomplexParam@@@@ABVQString@@ABVcomplexParam@@_N@Z 1001df7b f   instanceLookup.obj
 0001:0001cfa0       __unwindfunclet$?insert@?$QMapPrivate@VQString@@VcomplexInstance@@@@QAE?AV?$QMapIterator@VQString@@VcomplexInstance@@@@PAUQMapNodeBase@@0ABVQString@@@Z$0 1001dfa0 f   instanceLookup.obj
 0001:0001cfab       __unwindfunclet$?insert@?$QMapPrivate@VQString@@VcomplexInstance@@@@QAE?AV?$QMapIterator@VQString@@VcomplexInstance@@@@PAUQMapNodeBase@@0ABVQString@@@Z$1 1001dfab f   instanceLookup.obj
 0001:0001cfb7       __unwindfunclet$?insert@?$QMapPrivate@VQString@@VcomplexInstance@@@@QAE?AV?$QMapIterator@VQString@@VcomplexInstance@@@@PAUQMapNodeBase@@0ABVQString@@@Z$2 1001dfb7 f   instanceLookup.obj
 0001:0001cfc3       __ehhandler$?insert@?$QMapPrivate@VQString@@VcomplexInstance@@@@QAE?AV?$QMapIterator@VQString@@VcomplexInstance@@@@PAUQMapNodeBase@@0ABVQString@@@Z 1001dfc3 f   instanceLookup.obj
 0001:0001cff0       __unwindfunclet$?insert@?$QMapPrivate@VQString@@VcomplexParam@@@@QAE?AV?$QMapIterator@VQString@@VcomplexParam@@@@PAUQMapNodeBase@@0ABVQString@@@Z$0 1001dff0 f   instanceLookup.obj
 0001:0001cffb       __unwindfunclet$?insert@?$QMapPrivate@VQString@@VcomplexParam@@@@QAE?AV?$QMapIterator@VQString@@VcomplexParam@@@@PAUQMapNodeBase@@0ABVQString@@@Z$1 1001dffb f   instanceLookup.obj
 0001:0001d007       __unwindfunclet$?insert@?$QMapPrivate@VQString@@VcomplexParam@@@@QAE?AV?$QMapIterator@VQString@@VcomplexParam@@@@PAUQMapNodeBase@@0ABVQString@@@Z$2 1001e007 f   instanceLookup.obj
 0001:0001d013       __ehhandler$?insert@?$QMapPrivate@VQString@@VcomplexParam@@@@QAE?AV?$QMapIterator@VQString@@VcomplexParam@@@@PAUQMapNodeBase@@0ABVQString@@@Z 1001e013 f   instanceLookup.obj
 0001:0001d030       __unwindfunclet$?insert@?$QMapPrivate@VQString@@VcomplexType@@@@QAE?AV?$QMapIterator@VQString@@VcomplexType@@@@PAUQMapNodeBase@@0ABVQString@@@Z$0 1001e030 f   instanceLookup.obj
 0001:0001d03b       __unwindfunclet$?insert@?$QMapPrivate@VQString@@VcomplexType@@@@QAE?AV?$QMapIterator@VQString@@VcomplexType@@@@PAUQMapNodeBase@@0ABVQString@@@Z$1 1001e03b f   instanceLookup.obj
 0001:0001d047       __unwindfunclet$?insert@?$QMapPrivate@VQString@@VcomplexType@@@@QAE?AV?$QMapIterator@VQString@@VcomplexType@@@@PAUQMapNodeBase@@0ABVQString@@@Z$2 1001e047 f   instanceLookup.obj
 0001:0001d053       __ehhandler$?insert@?$QMapPrivate@VQString@@VcomplexType@@@@QAE?AV?$QMapIterator@VQString@@VcomplexType@@@@PAUQMapNodeBase@@0ABVQString@@@Z 1001e053 f   instanceLookup.obj
 0001:0001d070       __unwindfunclet$?insert@?$QMapPrivate@VQString@@VdeviceTypeInfo@@@@QAE?AV?$QMapIterator@VQString@@VdeviceTypeInfo@@@@PAUQMapNodeBase@@0ABVQString@@@Z$0 1001e070 f   instanceLookup.obj
 0001:0001d07b       __unwindfunclet$?insert@?$QMapPrivate@VQString@@VdeviceTypeInfo@@@@QAE?AV?$QMapIterator@VQString@@VdeviceTypeInfo@@@@PAUQMapNodeBase@@0ABVQString@@@Z$1 1001e07b f   instanceLookup.obj
 0001:0001d087       __unwindfunclet$?insert@?$QMapPrivate@VQString@@VdeviceTypeInfo@@@@QAE?AV?$QMapIterator@VQString@@VdeviceTypeInfo@@@@PAUQMapNodeBase@@0ABVQString@@@Z$2 1001e087 f   instanceLookup.obj
 0001:0001d093       __ehhandler$?insert@?$QMapPrivate@VQString@@VdeviceTypeInfo@@@@QAE?AV?$QMapIterator@VQString@@VdeviceTypeInfo@@@@PAUQMapNodeBase@@0ABVQString@@@Z 1001e093 f   instanceLookup.obj
 0001:0001d0b0       __unwindfunclet$?insert@?$QMapPrivate@VQString@@VinstanceInfo@@@@QAE?AV?$QMapIterator@VQString@@VinstanceInfo@@@@PAUQMapNodeBase@@0ABVQString@@@Z$0 1001e0b0 f   instanceLookup.obj
 0001:0001d0bb       __unwindfunclet$?insert@?$QMapPrivate@VQString@@VinstanceInfo@@@@QAE?AV?$QMapIterator@VQString@@VinstanceInfo@@@@PAUQMapNodeBase@@0ABVQString@@@Z$1 1001e0bb f   instanceLookup.obj
 0001:0001d0c7       __unwindfunclet$?insert@?$QMapPrivate@VQString@@VinstanceInfo@@@@QAE?AV?$QMapIterator@VQString@@VinstanceInfo@@@@PAUQMapNodeBase@@0ABVQString@@@Z$2 1001e0c7 f   instanceLookup.obj
 0001:0001d0d3       __ehhandler$?insert@?$QMapPrivate@VQString@@VinstanceInfo@@@@QAE?AV?$QMapIterator@VQString@@VinstanceInfo@@@@PAUQMapNodeBase@@0ABVQString@@@Z 1001e0d3 f   instanceLookup.obj
 0001:0001d0f0       __unwindfunclet$?insert@?$QMapPrivate@VQString@@VparamInfo@@@@QAE?AV?$QMapIterator@VQString@@VparamInfo@@@@PAUQMapNodeBase@@0ABVQString@@@Z$0 1001e0f0 f   instanceLookup.obj
 0001:0001d0fb       __unwindfunclet$?insert@?$QMapPrivate@VQString@@VparamInfo@@@@QAE?AV?$QMapIterator@VQString@@VparamInfo@@@@PAUQMapNodeBase@@0ABVQString@@@Z$1 1001e0fb f   instanceLookup.obj
 0001:0001d107       __unwindfunclet$?insert@?$QMapPrivate@VQString@@VparamInfo@@@@QAE?AV?$QMapIterator@VQString@@VparamInfo@@@@PAUQMapNodeBase@@0ABVQString@@@Z$2 1001e107 f   instanceLookup.obj
 0001:0001d113       __ehhandler$?insert@?$QMapPrivate@VQString@@VparamInfo@@@@QAE?AV?$QMapIterator@VQString@@VparamInfo@@@@PAUQMapNodeBase@@0ABVQString@@@Z 1001e113 f   instanceLookup.obj
 0001:0001d130       __unwindfunclet$?insert@?$QValueListPrivate@VcomplexParam@@@@QAE?AV?$QValueListIterator@VcomplexParam@@@@V2@ABVcomplexParam@@@Z$0 1001e130 f   instanceLookup.obj
 0001:0001d13b       __unwindfunclet$?insert@?$QValueListPrivate@VcomplexParam@@@@QAE?AV?$QValueListIterator@VcomplexParam@@@@V2@ABVcomplexParam@@@Z$2 1001e13b f   instanceLookup.obj
 0001:0001d147       __ehhandler$?insert@?$QValueListPrivate@VcomplexParam@@@@QAE?AV?$QValueListIterator@VcomplexParam@@@@V2@ABVcomplexParam@@@Z 1001e147 f   instanceLookup.obj
 0001:0001d170       __unwindfunclet$?keys@?$QMap@VQString@@VinstanceInfo@@@@QBE?AV?$QValueList@VQString@@@@XZ$0 1001e170 f   instanceLookup.obj
 0001:0001d170       __unwindfunclet$?keys@?$QMap@VQString@@VdeviceTypeInfo@@@@QBE?AV?$QValueList@VQString@@@@XZ$0 1001e170 f   instanceLookup.obj
 0001:0001d170       __unwindfunclet$?keys@?$QMap@VQString@@VparamInfo@@@@QBE?AV?$QValueList@VQString@@@@XZ$0 1001e170 f   instanceLookup.obj
 0001:0001d170       __unwindfunclet$?keys@?$QMap@VQString@@VcomplexType@@@@QBE?AV?$QValueList@VQString@@@@XZ$0 1001e170 f   instanceLookup.obj
 0001:0001d170       __unwindfunclet$?keys@?$QMap@VQString@@VcomplexParam@@@@QBE?AV?$QValueList@VQString@@@@XZ$0 1001e170 f   instanceLookup.obj
 0001:0001d170       __unwindfunclet$?keys@?$QMap@VQString@@VcomplexInstance@@@@QBE?AV?$QValueList@VQString@@@@XZ$0 1001e170 f   instanceLookup.obj
 0001:0001d18a       __ehhandler$?keys@?$QMap@VQString@@VparamInfo@@@@QBE?AV?$QValueList@VQString@@@@XZ 1001e18a f   instanceLookup.obj
 0001:0001d18a       __ehhandler$?keys@?$QMap@VQString@@VinstanceInfo@@@@QBE?AV?$QValueList@VQString@@@@XZ 1001e18a f   instanceLookup.obj
 0001:0001d18a       __ehhandler$?keys@?$QMap@VQString@@VcomplexInstance@@@@QBE?AV?$QValueList@VQString@@@@XZ 1001e18a f   instanceLookup.obj
 0001:0001d18a       __ehhandler$?keys@?$QMap@VQString@@VcomplexType@@@@QBE?AV?$QValueList@VQString@@@@XZ 1001e18a f   instanceLookup.obj
 0001:0001d18a       __ehhandler$?keys@?$QMap@VQString@@VdeviceTypeInfo@@@@QBE?AV?$QValueList@VQString@@@@XZ 1001e18a f   instanceLookup.obj
 0001:0001d18a       __ehhandler$?keys@?$QMap@VQString@@VcomplexParam@@@@QBE?AV?$QValueList@VQString@@@@XZ 1001e18a f   instanceLookup.obj
 0001:0001d1b0       __unwindfunclet$?erase@?$QMap@VQString@@VcomplexInstance@@@@QAEXABVQString@@@Z$0 1001e1b0 f   instanceLookup.obj
 0001:0001d1b0       __unwindfunclet$?remove@?$QMap@VQString@@VcomplexInstance@@@@QAEXABVQString@@@Z$0 1001e1b0 f   instanceLookup.obj
 0001:0001d1bb       __unwindfunclet$?erase@?$QMap@VQString@@VcomplexInstance@@@@QAEXABVQString@@@Z$1 1001e1bb f   instanceLookup.obj
 0001:0001d1bb       __unwindfunclet$?remove@?$QMap@VQString@@VcomplexInstance@@@@QAEXABVQString@@@Z$1 1001e1bb f   instanceLookup.obj
 0001:0001d1c6       __unwindfunclet$?remove@?$QMap@VQString@@VcomplexInstance@@@@QAEXABVQString@@@Z$2 1001e1c6 f   instanceLookup.obj
 0001:0001d1c6       __unwindfunclet$?erase@?$QMap@VQString@@VcomplexInstance@@@@QAEXABVQString@@@Z$2 1001e1c6 f   instanceLookup.obj
 0001:0001d1d2       __ehhandler$?erase@?$QMap@VQString@@VcomplexInstance@@@@QAEXABVQString@@@Z 1001e1d2 f   instanceLookup.obj
 0001:0001d1d2       __ehhandler$?remove@?$QMap@VQString@@VcomplexInstance@@@@QAEXABVQString@@@Z 1001e1d2 f   instanceLookup.obj
 0001:0001d1f0       __unwindfunclet$?erase@?$QMap@VQString@@VcomplexParam@@@@QAEXABVQString@@@Z$0 1001e1f0 f   instanceLookup.obj
 0001:0001d1f0       __unwindfunclet$?remove@?$QMap@VQString@@VcomplexParam@@@@QAEXABVQString@@@Z$0 1001e1f0 f   instanceLookup.obj
 0001:0001d1fb       __unwindfunclet$?remove@?$QMap@VQString@@VcomplexParam@@@@QAEXABVQString@@@Z$1 1001e1fb f   instanceLookup.obj
 0001:0001d1fb       __unwindfunclet$?erase@?$QMap@VQString@@VcomplexParam@@@@QAEXABVQString@@@Z$1 1001e1fb f   instanceLookup.obj
 0001:0001d206       __unwindfunclet$?remove@?$QMap@VQString@@VcomplexParam@@@@QAEXABVQString@@@Z$2 1001e206 f   instanceLookup.obj
 0001:0001d206       __unwindfunclet$?erase@?$QMap@VQString@@VcomplexParam@@@@QAEXABVQString@@@Z$2 1001e206 f   instanceLookup.obj
 0001:0001d212       __ehhandler$?erase@?$QMap@VQString@@VcomplexParam@@@@QAEXABVQString@@@Z 1001e212 f   instanceLookup.obj
 0001:0001d212       __ehhandler$?remove@?$QMap@VQString@@VcomplexParam@@@@QAEXABVQString@@@Z 1001e212 f   instanceLookup.obj
 0001:0001d230       __unwindfunclet$?remove@?$QMap@VQString@@VcomplexType@@@@QAEXABVQString@@@Z$0 1001e230 f   instanceLookup.obj
 0001:0001d230       __unwindfunclet$?erase@?$QMap@VQString@@VcomplexType@@@@QAEXABVQString@@@Z$0 1001e230 f   instanceLookup.obj
 0001:0001d23b       __unwindfunclet$?remove@?$QMap@VQString@@VcomplexType@@@@QAEXABVQString@@@Z$1 1001e23b f   instanceLookup.obj
 0001:0001d23b       __unwindfunclet$?erase@?$QMap@VQString@@VcomplexType@@@@QAEXABVQString@@@Z$1 1001e23b f   instanceLookup.obj
 0001:0001d246       __unwindfunclet$?erase@?$QMap@VQString@@VcomplexType@@@@QAEXABVQString@@@Z$2 1001e246 f   instanceLookup.obj
 0001:0001d246       __unwindfunclet$?remove@?$QMap@VQString@@VcomplexType@@@@QAEXABVQString@@@Z$2 1001e246 f   instanceLookup.obj
 0001:0001d252       __ehhandler$?erase@?$QMap@VQString@@VcomplexType@@@@QAEXABVQString@@@Z 1001e252 f   instanceLookup.obj
 0001:0001d252       __ehhandler$?remove@?$QMap@VQString@@VcomplexType@@@@QAEXABVQString@@@Z 1001e252 f   instanceLookup.obj
 0001:0001d270       __unwindfunclet$?erase@?$QMap@VQString@@VcomplexType@@@@QAEXV?$QMapIterator@VQString@@VcomplexType@@@@@Z$0 1001e270 f   instanceLookup.obj
 0001:0001d270       __unwindfunclet$?remove@?$QMap@VQString@@VcomplexType@@@@QAEXV?$QMapIterator@VQString@@VcomplexType@@@@@Z$0 1001e270 f   instanceLookup.obj
 0001:0001d27b       __unwindfunclet$?remove@?$QMap@VQString@@VcomplexType@@@@QAEXV?$QMapIterator@VQString@@VcomplexType@@@@@Z$1 1001e27b f   instanceLookup.obj
 0001:0001d27b       __unwindfunclet$?erase@?$QMap@VQString@@VcomplexType@@@@QAEXV?$QMapIterator@VQString@@VcomplexType@@@@@Z$1 1001e27b f   instanceLookup.obj
 0001:0001d287       __ehhandler$?erase@?$QMap@VQString@@VcomplexType@@@@QAEXV?$QMapIterator@VQString@@VcomplexType@@@@@Z 1001e287 f   instanceLookup.obj
 0001:0001d287       __ehhandler$?remove@?$QMap@VQString@@VcomplexType@@@@QAEXV?$QMapIterator@VQString@@VcomplexType@@@@@Z 1001e287 f   instanceLookup.obj
 0001:0001d2b0       __unwindfunclet$?erase@?$QMap@VQString@@VdeviceTypeInfo@@@@QAEXV?$QMapIterator@VQString@@VdeviceTypeInfo@@@@@Z$0 1001e2b0 f   instanceLookup.obj
 0001:0001d2b0       __unwindfunclet$?remove@?$QMap@VQString@@VdeviceTypeInfo@@@@QAEXV?$QMapIterator@VQString@@VdeviceTypeInfo@@@@@Z$0 1001e2b0 f   instanceLookup.obj
 0001:0001d2bb       __unwindfunclet$?erase@?$QMap@VQString@@VdeviceTypeInfo@@@@QAEXV?$QMapIterator@VQString@@VdeviceTypeInfo@@@@@Z$1 1001e2bb f   instanceLookup.obj
 0001:0001d2bb       __unwindfunclet$?remove@?$QMap@VQString@@VdeviceTypeInfo@@@@QAEXV?$QMapIterator@VQString@@VdeviceTypeInfo@@@@@Z$1 1001e2bb f   instanceLookup.obj
 0001:0001d2c7       __ehhandler$?remove@?$QMap@VQString@@VdeviceTypeInfo@@@@QAEXV?$QMapIterator@VQString@@VdeviceTypeInfo@@@@@Z 1001e2c7 f   instanceLookup.obj
 0001:0001d2c7       __ehhandler$?erase@?$QMap@VQString@@VdeviceTypeInfo@@@@QAEXV?$QMapIterator@VQString@@VdeviceTypeInfo@@@@@Z 1001e2c7 f   instanceLookup.obj
 0001:0001d2f0       __unwindfunclet$?erase@?$QMap@VQString@@VinstanceInfo@@@@QAEXABVQString@@@Z$0 1001e2f0 f   instanceLookup.obj
 0001:0001d2f0       __unwindfunclet$?remove@?$QMap@VQString@@VinstanceInfo@@@@QAEXABVQString@@@Z$0 1001e2f0 f   instanceLookup.obj
 0001:0001d2fb       __unwindfunclet$?erase@?$QMap@VQString@@VinstanceInfo@@@@QAEXABVQString@@@Z$1 1001e2fb f   instanceLookup.obj
 0001:0001d2fb       __unwindfunclet$?remove@?$QMap@VQString@@VinstanceInfo@@@@QAEXABVQString@@@Z$1 1001e2fb f   instanceLookup.obj
 0001:0001d306       __unwindfunclet$?erase@?$QMap@VQString@@VinstanceInfo@@@@QAEXABVQString@@@Z$2 1001e306 f   instanceLookup.obj
 0001:0001d306       __unwindfunclet$?remove@?$QMap@VQString@@VinstanceInfo@@@@QAEXABVQString@@@Z$2 1001e306 f   instanceLookup.obj
 0001:0001d312       __ehhandler$?erase@?$QMap@VQString@@VinstanceInfo@@@@QAEXABVQString@@@Z 1001e312 f   instanceLookup.obj
 0001:0001d312       __ehhandler$?remove@?$QMap@VQString@@VinstanceInfo@@@@QAEXABVQString@@@Z 1001e312 f   instanceLookup.obj
 0001:0001d330       __unwindfunclet$?erase@?$QMap@VQString@@VparamInfo@@@@QAEXV?$QMapIterator@VQString@@VparamInfo@@@@@Z$0 1001e330 f   instanceLookup.obj
 0001:0001d330       __unwindfunclet$?remove@?$QMap@VQString@@VparamInfo@@@@QAEXV?$QMapIterator@VQString@@VparamInfo@@@@@Z$0 1001e330 f   instanceLookup.obj
 0001:0001d33b       __unwindfunclet$?remove@?$QMap@VQString@@VparamInfo@@@@QAEXV?$QMapIterator@VQString@@VparamInfo@@@@@Z$1 1001e33b f   instanceLookup.obj
 0001:0001d33b       __unwindfunclet$?erase@?$QMap@VQString@@VparamInfo@@@@QAEXV?$QMapIterator@VQString@@VparamInfo@@@@@Z$1 1001e33b f   instanceLookup.obj
 0001:0001d347       __ehhandler$?remove@?$QMap@VQString@@VparamInfo@@@@QAEXV?$QMapIterator@VQString@@VparamInfo@@@@@Z 1001e347 f   instanceLookup.obj
 0001:0001d347       __ehhandler$?erase@?$QMap@VQString@@VparamInfo@@@@QAEXV?$QMapIterator@VQString@@VparamInfo@@@@@Z 1001e347 f   instanceLookup.obj
 0001:0001d370       __unwindfunclet$?replace@?$QMap@VQString@@VcomplexParam@@@@QAE?AV?$QMapIterator@VQString@@VcomplexParam@@@@ABVQString@@ABVcomplexParam@@@Z$0 1001e370 f   instanceLookup.obj
 0001:0001d37b       __ehhandler$?replace@?$QMap@VQString@@VcomplexParam@@@@QAE?AV?$QMapIterator@VQString@@VcomplexParam@@@@ABVQString@@ABVcomplexParam@@@Z 1001e37b f   instanceLookup.obj
 0001:0001d3a0       __unwindfunclet$?replace@?$QMap@VQString@@VinstanceInfo@@@@QAE?AV?$QMapIterator@VQString@@VinstanceInfo@@@@ABVQString@@ABVinstanceInfo@@@Z$0 1001e3a0 f   instanceLookup.obj
 0001:0001d3a0       __unwindfunclet$?replace@?$QMap@VQString@@VcomplexInstance@@@@QAE?AV?$QMapIterator@VQString@@VcomplexInstance@@@@ABVQString@@ABVcomplexInstance@@@Z$0 1001e3a0 f   instanceLookup.obj
 0001:0001d3a0       __unwindfunclet$?replace@?$QMap@VQString@@VcomplexType@@@@QAE?AV?$QMapIterator@VQString@@VcomplexType@@@@ABVQString@@ABVcomplexType@@@Z$0 1001e3a0 f   instanceLookup.obj
 0001:0001d3a0       __unwindfunclet$?replace@?$QMap@VQString@@VdeviceTypeInfo@@@@QAE?AV?$QMapIterator@VQString@@VdeviceTypeInfo@@@@ABVQString@@ABVdeviceTypeInfo@@@Z$0 1001e3a0 f   instanceLookup.obj
 0001:0001d3a0       __unwindfunclet$?replace@?$QMap@VQString@@VparamInfo@@@@QAE?AV?$QMapIterator@VQString@@VparamInfo@@@@ABVQString@@ABVparamInfo@@@Z$0 1001e3a0 f   instanceLookup.obj
 0001:0001d3ab       __ehhandler$?replace@?$QMap@VQString@@VdeviceTypeInfo@@@@QAE?AV?$QMapIterator@VQString@@VdeviceTypeInfo@@@@ABVQString@@ABVdeviceTypeInfo@@@Z 1001e3ab f   instanceLookup.obj
 0001:0001d3ab       __ehhandler$?replace@?$QMap@VQString@@VinstanceInfo@@@@QAE?AV?$QMapIterator@VQString@@VinstanceInfo@@@@ABVQString@@ABVinstanceInfo@@@Z 1001e3ab f   instanceLookup.obj
 0001:0001d3ab       __ehhandler$?replace@?$QMap@VQString@@VparamInfo@@@@QAE?AV?$QMapIterator@VQString@@VparamInfo@@@@ABVQString@@ABVparamInfo@@@Z 1001e3ab f   instanceLookup.obj
 0001:0001d3ab       __ehhandler$?replace@?$QMap@VQString@@VcomplexInstance@@@@QAE?AV?$QMapIterator@VQString@@VcomplexInstance@@@@ABVQString@@ABVcomplexInstance@@@Z 1001e3ab f   instanceLookup.obj
 0001:0001d3ab       __ehhandler$?replace@?$QMap@VQString@@VcomplexType@@@@QAE?AV?$QMapIterator@VQString@@VcomplexType@@@@ABVQString@@ABVcomplexType@@@Z 1001e3ab f   instanceLookup.obj
 0001:0001d3d0       __unwindfunclet$?values@?$QMap@VQString@@VcomplexParam@@@@QBE?AV?$QValueList@VcomplexParam@@@@XZ$1 1001e3d0 f   instanceLookup.obj
 0001:0001d3d0       __unwindfunclet$?values@?$QMap@VQString@@VcomplexInstance@@@@QBE?AV?$QValueList@VcomplexInstance@@@@XZ$1 1001e3d0 f   instanceLookup.obj
 0001:0001d3d0       __unwindfunclet$?values@?$QMap@VQString@@VdeviceTypeInfo@@@@QBE?AV?$QValueList@VdeviceTypeInfo@@@@XZ$1 1001e3d0 f   instanceLookup.obj
 0001:0001d3d0       __unwindfunclet$?values@?$QMap@VQString@@VcomplexType@@@@QBE?AV?$QValueList@VcomplexType@@@@XZ$1 1001e3d0 f   instanceLookup.obj
 0001:0001d3d0       __unwindfunclet$?values@?$QMap@VQString@@VinstanceInfo@@@@QBE?AV?$QValueList@VinstanceInfo@@@@XZ$1 1001e3d0 f   instanceLookup.obj
 0001:0001d3d0       __unwindfunclet$?values@?$QMap@VQString@@VparamInfo@@@@QBE?AV?$QValueList@VparamInfo@@@@XZ$1 1001e3d0 f   instanceLookup.obj
 0001:0001d3db       __unwindfunclet$?values@?$QMap@VQString@@VcomplexParam@@@@QBE?AV?$QValueList@VcomplexParam@@@@XZ$0 1001e3db f   instanceLookup.obj
 0001:0001d3db       __unwindfunclet$?values@?$QMap@VQString@@VcomplexType@@@@QBE?AV?$QValueList@VcomplexType@@@@XZ$0 1001e3db f   instanceLookup.obj
 0001:0001d3db       __unwindfunclet$?values@?$QMap@VQString@@VcomplexInstance@@@@QBE?AV?$QValueList@VcomplexInstance@@@@XZ$0 1001e3db f   instanceLookup.obj
 0001:0001d3db       __unwindfunclet$?values@?$QMap@VQString@@VdeviceTypeInfo@@@@QBE?AV?$QValueList@VdeviceTypeInfo@@@@XZ$0 1001e3db f   instanceLookup.obj
 0001:0001d3db       __unwindfunclet$?values@?$QMap@VQString@@VinstanceInfo@@@@QBE?AV?$QValueList@VinstanceInfo@@@@XZ$0 1001e3db f   instanceLookup.obj
 0001:0001d3db       __unwindfunclet$?values@?$QMap@VQString@@VparamInfo@@@@QBE?AV?$QValueList@VparamInfo@@@@XZ$0 1001e3db f   instanceLookup.obj
 0001:0001d3f4       __ehhandler$?values@?$QMap@VQString@@VdeviceTypeInfo@@@@QBE?AV?$QValueList@VdeviceTypeInfo@@@@XZ 1001e3f4 f   instanceLookup.obj
 0001:0001d3f4       __ehhandler$?values@?$QMap@VQString@@VcomplexParam@@@@QBE?AV?$QValueList@VcomplexParam@@@@XZ 1001e3f4 f   instanceLookup.obj
 0001:0001d3f4       __ehhandler$?values@?$QMap@VQString@@VinstanceInfo@@@@QBE?AV?$QValueList@VinstanceInfo@@@@XZ 1001e3f4 f   instanceLookup.obj
 0001:0001d3f4       __ehhandler$?values@?$QMap@VQString@@VcomplexType@@@@QBE?AV?$QValueList@VcomplexType@@@@XZ 1001e3f4 f   instanceLookup.obj
 0001:0001d3f4       __ehhandler$?values@?$QMap@VQString@@VparamInfo@@@@QBE?AV?$QValueList@VparamInfo@@@@XZ 1001e3f4 f   instanceLookup.obj
 0001:0001d3f4       __ehhandler$?values@?$QMap@VQString@@VcomplexInstance@@@@QBE?AV?$QValueList@VcomplexInstance@@@@XZ 1001e3f4 f   instanceLookup.obj
 0001:0001d410       __unwindfunclet$??0?$QValueList@VpanelsetItem@@@@QAE@XZ$0 1001e410 f   launchAccessor.obj
 0001:0001d410       __unwindfunclet$??0?$QValueList@VlaunchItem@@@@QAE@XZ$0 1001e410 f   launchAccessor.obj
 0001:0001d41b       __unwindfunclet$??0?$QValueList@VlaunchItem@@@@QAE@XZ$1 1001e41b f   launchAccessor.obj
 0001:0001d41b       __unwindfunclet$??0?$QValueList@VpanelsetItem@@@@QAE@XZ$1 1001e41b f   launchAccessor.obj
 0001:0001d426       __ehhandler$??0?$QValueList@VpanelsetItem@@@@QAE@XZ 1001e426 f   launchAccessor.obj
 0001:0001d426       __ehhandler$??0?$QValueList@VlaunchItem@@@@QAE@XZ 1001e426 f   launchAccessor.obj
 0001:0001d450       __unwindfunclet$??0?$QValueListPrivate@VcomplexType@@@@QAE@ABV0@@Z$0 1001e450 f   launchAccessor.obj
 0001:0001d450       __unwindfunclet$??0?$QValueListPrivate@VcomplexParam@@@@QAE@ABV0@@Z$0 1001e450 f   launchAccessor.obj
 0001:0001d450       __unwindfunclet$??0?$QValueListPrivate@VparamInfo@@@@QAE@ABV0@@Z$0 1001e450 f   launchAccessor.obj
 0001:0001d450       __unwindfunclet$??0?$QValueListPrivate@VcomplexInstance@@@@QAE@ABV0@@Z$0 1001e450 f   launchAccessor.obj
 0001:0001d450       __unwindfunclet$??0?$QValueListPrivate@VpanelsetItem@@@@QAE@ABV0@@Z$0 1001e450 f   launchAccessor.obj
 0001:0001d450       __unwindfunclet$??0?$QValueListPrivate@VdeviceTypeInfo@@@@QAE@ABV0@@Z$0 1001e450 f   launchAccessor.obj
 0001:0001d450       __unwindfunclet$??0?$QValueListPrivate@VinstanceInfo@@@@QAE@ABV0@@Z$0 1001e450 f   launchAccessor.obj
 0001:0001d450       __unwindfunclet$??0?$QValueListPrivate@VlaunchItem@@@@QAE@ABV0@@Z$0 1001e450 f   launchAccessor.obj
 0001:0001d45b       __ehhandler$??0?$QValueListPrivate@VparamInfo@@@@QAE@ABV0@@Z 1001e45b f   launchAccessor.obj
 0001:0001d45b       __ehhandler$??0?$QValueListPrivate@VcomplexParam@@@@QAE@ABV0@@Z 1001e45b f   launchAccessor.obj
 0001:0001d45b       __ehhandler$??0?$QValueListPrivate@VcomplexInstance@@@@QAE@ABV0@@Z 1001e45b f   launchAccessor.obj
 0001:0001d45b       __ehhandler$??0?$QValueListPrivate@VlaunchItem@@@@QAE@ABV0@@Z 1001e45b f   launchAccessor.obj
 0001:0001d45b       __ehhandler$??0?$QValueListPrivate@VinstanceInfo@@@@QAE@ABV0@@Z 1001e45b f   launchAccessor.obj
 0001:0001d45b       __ehhandler$??0?$QValueListPrivate@VdeviceTypeInfo@@@@QAE@ABV0@@Z 1001e45b f   launchAccessor.obj
 0001:0001d45b       __ehhandler$??0?$QValueListPrivate@VpanelsetItem@@@@QAE@ABV0@@Z 1001e45b f   launchAccessor.obj
 0001:0001d45b       __ehhandler$??0?$QValueListPrivate@VcomplexType@@@@QAE@ABV0@@Z 1001e45b f   launchAccessor.obj
 0001:0001d480       __unwindfunclet$??0panelsetItem@@QAE@ABVQString@@00@Z$0 1001e480 f   launchAccessor.obj
 0001:0001d480       __unwindfunclet$??0launchItem@@QAE@ABVQString@@00_NH@Z$0 1001e480 f   launchAccessor.obj
 0001:0001d489       __unwindfunclet$??0launchItem@@QAE@ABVQString@@00_NH@Z$1 1001e489 f   launchAccessor.obj
 0001:0001d489       __unwindfunclet$??0panelsetItem@@QAE@ABVQString@@00@Z$1 1001e489 f   launchAccessor.obj
 0001:0001d495       __unwindfunclet$??0panelsetItem@@QAE@ABVQString@@00@Z$2 1001e495 f   launchAccessor.obj
 0001:0001d495       __unwindfunclet$??0launchItem@@QAE@ABVQString@@00_NH@Z$2 1001e495 f   launchAccessor.obj
 0001:0001d4a1       __ehhandler$??0launchItem@@QAE@ABVQString@@00_NH@Z 1001e4a1 f   launchAccessor.obj
 0001:0001d4a1       __ehhandler$??0panelsetItem@@QAE@ABVQString@@00@Z 1001e4a1 f   launchAccessor.obj
 0001:0001d4c0       __unwindfunclet$??1launchItem@@QAE@XZ$0 1001e4c0 f   launchAccessor.obj
 0001:0001d4c0       __unwindfunclet$??1panelsetItem@@QAE@XZ$0 1001e4c0 f   launchAccessor.obj
 0001:0001d4c9       __unwindfunclet$??1panelsetItem@@QAE@XZ$1 1001e4c9 f   launchAccessor.obj
 0001:0001d4c9       __unwindfunclet$??1launchItem@@QAE@XZ$1 1001e4c9 f   launchAccessor.obj
 0001:0001d4d5       __ehhandler$??1panelsetItem@@QAE@XZ 1001e4d5 f   launchAccessor.obj
 0001:0001d4d5       __ehhandler$??1launchItem@@QAE@XZ 1001e4d5 f   launchAccessor.obj
 0001:0001d4f0       __unwindfunclet$??_FlaunchItem@@QAEXXZ$0 1001e4f0 f   launchAccessor.obj
 0001:0001d4f0       __unwindfunclet$??_FpanelsetItem@@QAEXXZ$0 1001e4f0 f   launchAccessor.obj
 0001:0001d4f9       __unwindfunclet$??_FpanelsetItem@@QAEXXZ$1 1001e4f9 f   launchAccessor.obj
 0001:0001d4f9       __unwindfunclet$??_FlaunchItem@@QAEXXZ$1 1001e4f9 f   launchAccessor.obj
 0001:0001d505       __unwindfunclet$??_FlaunchItem@@QAEXXZ$2 1001e505 f   launchAccessor.obj
 0001:0001d505       __unwindfunclet$??_FpanelsetItem@@QAEXXZ$2 1001e505 f   launchAccessor.obj
 0001:0001d511       __ehhandler$??_FlaunchItem@@QAEXXZ 1001e511 f   launchAccessor.obj
 0001:0001d511       __ehhandler$??_FpanelsetItem@@QAEXXZ 1001e511 f   launchAccessor.obj
 0001:0001d530       __unwindfunclet$?addWorkstation@launchAccessor@@QAE_NABVQString@@0_NABV?$QValueList@VlaunchItem@@@@@Z$0 1001e530 f   launchAccessor.obj
 0001:0001d538       __unwindfunclet$?addWorkstation@launchAccessor@@QAE_NABVQString@@0_NABV?$QValueList@VlaunchItem@@@@@Z$1 1001e538 f   launchAccessor.obj
 0001:0001d541       __unwindfunclet$?addWorkstation@launchAccessor@@QAE_NABVQString@@0_NABV?$QValueList@VlaunchItem@@@@@Z$2 1001e541 f   launchAccessor.obj
 0001:0001d54a       __unwindfunclet$?addWorkstation@launchAccessor@@QAE_NABVQString@@0_NABV?$QValueList@VlaunchItem@@@@@Z$3 1001e54a f   launchAccessor.obj
 0001:0001d553       __unwindfunclet$?addWorkstation@launchAccessor@@QAE_NABVQString@@0_NABV?$QValueList@VlaunchItem@@@@@Z$4 1001e553 f   launchAccessor.obj
 0001:0001d55c       __unwindfunclet$?addWorkstation@launchAccessor@@QAE_NABVQString@@0_NABV?$QValueList@VlaunchItem@@@@@Z$5 1001e55c f   launchAccessor.obj
 0001:0001d565       __unwindfunclet$?addWorkstation@launchAccessor@@QAE_NABVQString@@0_NABV?$QValueList@VlaunchItem@@@@@Z$6 1001e565 f   launchAccessor.obj
 0001:0001d56e       __unwindfunclet$?addWorkstation@launchAccessor@@QAE_NABVQString@@0_NABV?$QValueList@VlaunchItem@@@@@Z$7 1001e56e f   launchAccessor.obj
 0001:0001d577       __unwindfunclet$?addWorkstation@launchAccessor@@QAE_NABVQString@@0_NABV?$QValueList@VlaunchItem@@@@@Z$8 1001e577 f   launchAccessor.obj
 0001:0001d580       __unwindfunclet$?addWorkstation@launchAccessor@@QAE_NABVQString@@0_NABV?$QValueList@VlaunchItem@@@@@Z$9 1001e580 f   launchAccessor.obj
 0001:0001d589       __unwindfunclet$?addWorkstation@launchAccessor@@QAE_NABVQString@@0_NABV?$QValueList@VlaunchItem@@@@@Z$10 1001e589 f   launchAccessor.obj
 0001:0001d592       __unwindfunclet$?addWorkstation@launchAccessor@@QAE_NABVQString@@0_NABV?$QValueList@VlaunchItem@@@@@Z$11 1001e592 f   launchAccessor.obj
 0001:0001d59b       __unwindfunclet$?addWorkstation@launchAccessor@@QAE_NABVQString@@0_NABV?$QValueList@VlaunchItem@@@@@Z$24 1001e59b f   launchAccessor.obj
 0001:0001d5a6       __unwindfunclet$?addWorkstation@launchAccessor@@QAE_NABVQString@@0_NABV?$QValueList@VlaunchItem@@@@@Z$25 1001e5a6 f   launchAccessor.obj
 0001:0001d5b1       __unwindfunclet$?addWorkstation@launchAccessor@@QAE_NABVQString@@0_NABV?$QValueList@VlaunchItem@@@@@Z$12 1001e5b1 f   launchAccessor.obj
 0001:0001d5ba       __unwindfunclet$?addWorkstation@launchAccessor@@QAE_NABVQString@@0_NABV?$QValueList@VlaunchItem@@@@@Z$13 1001e5ba f   launchAccessor.obj
 0001:0001d5c3       __unwindfunclet$?addWorkstation@launchAccessor@@QAE_NABVQString@@0_NABV?$QValueList@VlaunchItem@@@@@Z$14 1001e5c3 f   launchAccessor.obj
 0001:0001d5cc       __unwindfunclet$?addWorkstation@launchAccessor@@QAE_NABVQString@@0_NABV?$QValueList@VlaunchItem@@@@@Z$15 1001e5cc f   launchAccessor.obj
 0001:0001d5d5       __unwindfunclet$?addWorkstation@launchAccessor@@QAE_NABVQString@@0_NABV?$QValueList@VlaunchItem@@@@@Z$16 1001e5d5 f   launchAccessor.obj
 0001:0001d5de       __unwindfunclet$?addWorkstation@launchAccessor@@QAE_NABVQString@@0_NABV?$QValueList@VlaunchItem@@@@@Z$17 1001e5de f   launchAccessor.obj
 0001:0001d5e7       __unwindfunclet$?addWorkstation@launchAccessor@@QAE_NABVQString@@0_NABV?$QValueList@VlaunchItem@@@@@Z$18 1001e5e7 f   launchAccessor.obj
 0001:0001d5f0       __unwindfunclet$?addWorkstation@launchAccessor@@QAE_NABVQString@@0_NABV?$QValueList@VlaunchItem@@@@@Z$19 1001e5f0 f   launchAccessor.obj
 0001:0001d5f9       __unwindfunclet$?addWorkstation@launchAccessor@@QAE_NABVQString@@0_NABV?$QValueList@VlaunchItem@@@@@Z$20 1001e5f9 f   launchAccessor.obj
 0001:0001d602       __unwindfunclet$?addWorkstation@launchAccessor@@QAE_NABVQString@@0_NABV?$QValueList@VlaunchItem@@@@@Z$21 1001e602 f   launchAccessor.obj
 0001:0001d60b       __ehhandler$?addWorkstation@launchAccessor@@QAE_NABVQString@@0_NABV?$QValueList@VlaunchItem@@@@@Z 1001e60b f   launchAccessor.obj
 0001:0001d630       __unwindfunclet$?application@launchAccessor@@QAE?AVQString@@ABV2@H@Z$0 1001e630 f   launchAccessor.obj
 0001:0001d630       __unwindfunclet$?user@workstationsAccessor@@QAE?AVQString@@ABV2@@Z$0 1001e630 f   launchAccessor.obj
 0001:0001d630       __unwindfunclet$?icon@applicationsAccessor@@QAE?AVQString@@ABV2@@Z$0 1001e630 f   launchAccessor.obj
 0001:0001d630       __unwindfunclet$?workingdir@launchAccessor@@QAE?AVQString@@ABV2@H@Z$0 1001e630 f   launchAccessor.obj
 0001:0001d630       __unwindfunclet$?csi@launchAccessor@@QAE?AVQString@@ABV2@@Z$0 1001e630 f   launchAccessor.obj
 0001:0001d630       __unwindfunclet$?arguments@launchAccessor@@QAE?AVQString@@ABV2@H@Z$0 1001e630 f   launchAccessor.obj
 0001:0001d630       __unwindfunclet$?caption@applicationsAccessor@@QAE?AVQString@@ABV2@@Z$0 1001e630 f   launchAccessor.obj
 0001:0001d630       __unwindfunclet$?name@workstationsAccessor@@QAE?AVQString@@ABV2@@Z$0 1001e630 f   launchAccessor.obj
 0001:0001d630       __unwindfunclet$?type@applicationsAccessor@@QAE?AVQString@@ABV2@@Z$0 1001e630 f   launchAccessor.obj
 0001:0001d630       __unwindfunclet$?panelset@usersAccessor@@QAE?AVQString@@ABV2@@Z$0 1001e630 f   launchAccessor.obj
 0001:0001d630       __unwindfunclet$?title@applicationsAccessor@@QAE?AVQString@@ABV2@@Z$0 1001e630 f   launchAccessor.obj
 0001:0001d630       __unwindfunclet$?engset@usersAccessor@@QAE?AVQString@@ABV2@@Z$0 1001e630 f   launchAccessor.obj
 0001:0001d639       __unwindfunclet$?name@workstationsAccessor@@QAE?AVQString@@ABV2@@Z$1 1001e639 f   launchAccessor.obj
 0001:0001d639       __unwindfunclet$?panelset@usersAccessor@@QAE?AVQString@@ABV2@@Z$1 1001e639 f   launchAccessor.obj
 0001:0001d639       __unwindfunclet$?arguments@launchAccessor@@QAE?AVQString@@ABV2@H@Z$1 1001e639 f   launchAccessor.obj
 0001:0001d639       __unwindfunclet$?workingdir@launchAccessor@@QAE?AVQString@@ABV2@H@Z$1 1001e639 f   launchAccessor.obj
 0001:0001d639       __unwindfunclet$?user@workstationsAccessor@@QAE?AVQString@@ABV2@@Z$1 1001e639 f   launchAccessor.obj
 0001:0001d639       __unwindfunclet$?csi@launchAccessor@@QAE?AVQString@@ABV2@@Z$1 1001e639 f   launchAccessor.obj
 0001:0001d639       __unwindfunclet$?engset@usersAccessor@@QAE?AVQString@@ABV2@@Z$1 1001e639 f   launchAccessor.obj
 0001:0001d639       __unwindfunclet$?application@launchAccessor@@QAE?AVQString@@ABV2@H@Z$1 1001e639 f   launchAccessor.obj
 0001:0001d639       __unwindfunclet$?type@applicationsAccessor@@QAE?AVQString@@ABV2@@Z$1 1001e639 f   launchAccessor.obj
 0001:0001d639       __unwindfunclet$?icon@applicationsAccessor@@QAE?AVQString@@ABV2@@Z$1 1001e639 f   launchAccessor.obj
 0001:0001d639       __unwindfunclet$?caption@applicationsAccessor@@QAE?AVQString@@ABV2@@Z$1 1001e639 f   launchAccessor.obj
 0001:0001d639       __unwindfunclet$?title@applicationsAccessor@@QAE?AVQString@@ABV2@@Z$1 1001e639 f   launchAccessor.obj
 0001:0001d653       __ehhandler$?type@applicationsAccessor@@QAE?AVQString@@ABV2@@Z 1001e653 f   launchAccessor.obj
 0001:0001d653       __ehhandler$?title@applicationsAccessor@@QAE?AVQString@@ABV2@@Z 1001e653 f   launchAccessor.obj
 0001:0001d653       __ehhandler$?engset@usersAccessor@@QAE?AVQString@@ABV2@@Z 1001e653 f   launchAccessor.obj
 0001:0001d653       __ehhandler$?icon@applicationsAccessor@@QAE?AVQString@@ABV2@@Z 1001e653 f   launchAccessor.obj
 0001:0001d653       __ehhandler$?caption@applicationsAccessor@@QAE?AVQString@@ABV2@@Z 1001e653 f   launchAccessor.obj
 0001:0001d653       __ehhandler$?name@workstationsAccessor@@QAE?AVQString@@ABV2@@Z 1001e653 f   launchAccessor.obj
 0001:0001d653       __ehhandler$?arguments@launchAccessor@@QAE?AVQString@@ABV2@H@Z 1001e653 f   launchAccessor.obj
 0001:0001d653       __ehhandler$?user@workstationsAccessor@@QAE?AVQString@@ABV2@@Z 1001e653 f   launchAccessor.obj
 0001:0001d653       __ehhandler$?panelset@usersAccessor@@QAE?AVQString@@ABV2@@Z 1001e653 f   launchAccessor.obj
 0001:0001d653       __ehhandler$?csi@launchAccessor@@QAE?AVQString@@ABV2@@Z 1001e653 f   launchAccessor.obj
 0001:0001d653       __ehhandler$?workingdir@launchAccessor@@QAE?AVQString@@ABV2@H@Z 1001e653 f   launchAccessor.obj
 0001:0001d653       __ehhandler$?application@launchAccessor@@QAE?AVQString@@ABV2@H@Z 1001e653 f   launchAccessor.obj
 0001:0001d670       __unwindfunclet$?attribute@workstationsAccessor@@AAE?AVQString@@ABV2@0@Z$0 1001e670 f   launchAccessor.obj
 0001:0001d670       __unwindfunclet$?attribute@applicationsAccessor@@AAE?AVQString@@ABV2@0@Z$0 1001e670 f   launchAccessor.obj
 0001:0001d670       __unwindfunclet$?attribute@launchAccessor@@AAE?AVQString@@ABV2@0@Z$0 1001e670 f   launchAccessor.obj
 0001:0001d670       __unwindfunclet$?attribute@panelsetsAccessor@@AAE?AVQString@@ABV2@0@Z$0 1001e670 f   launchAccessor.obj
 0001:0001d670       __unwindfunclet$?attribute@workstationSettingsAccessor@@AAE?AVQString@@ABV2@0@Z$0 1001e670 f   launchAccessor.obj
 0001:0001d670       __unwindfunclet$?attribute@usersAccessor@@AAE?AVQString@@ABV2@0@Z$0 1001e670 f   launchAccessor.obj
 0001:0001d679       __unwindfunclet$?attribute@usersAccessor@@AAE?AVQString@@ABV2@0@Z$2 1001e679 f   launchAccessor.obj
 0001:0001d679       __unwindfunclet$?attribute@applicationsAccessor@@AAE?AVQString@@ABV2@0@Z$2 1001e679 f   launchAccessor.obj
 0001:0001d679       __unwindfunclet$?attribute@launchAccessor@@AAE?AVQString@@ABV2@0@Z$2 1001e679 f   launchAccessor.obj
 0001:0001d679       __unwindfunclet$?attribute@workstationsAccessor@@AAE?AVQString@@ABV2@0@Z$2 1001e679 f   launchAccessor.obj
 0001:0001d679       __unwindfunclet$?attribute@panelsetsAccessor@@AAE?AVQString@@ABV2@0@Z$2 1001e679 f   launchAccessor.obj
 0001:0001d679       __unwindfunclet$?attribute@workstationSettingsAccessor@@AAE?AVQString@@ABV2@0@Z$2 1001e679 f   launchAccessor.obj
 0001:0001d682       __unwindfunclet$?attribute@launchAccessor@@AAE?AVQString@@ABV2@0@Z$3 1001e682 f   launchAccessor.obj
 0001:0001d682       __unwindfunclet$?attribute@workstationSettingsAccessor@@AAE?AVQString@@ABV2@0@Z$3 1001e682 f   launchAccessor.obj
 0001:0001d682       __unwindfunclet$?attribute@usersAccessor@@AAE?AVQString@@ABV2@0@Z$3 1001e682 f   launchAccessor.obj
 0001:0001d682       __unwindfunclet$?attribute@workstationsAccessor@@AAE?AVQString@@ABV2@0@Z$3 1001e682 f   launchAccessor.obj
 0001:0001d682       __unwindfunclet$?attribute@applicationsAccessor@@AAE?AVQString@@ABV2@0@Z$3 1001e682 f   launchAccessor.obj
 0001:0001d682       __unwindfunclet$?attribute@panelsetsAccessor@@AAE?AVQString@@ABV2@0@Z$3 1001e682 f   launchAccessor.obj
 0001:0001d68b       __unwindfunclet$?attribute@applicationsAccessor@@AAE?AVQString@@ABV2@0@Z$4 1001e68b f   launchAccessor.obj
 0001:0001d68b       __unwindfunclet$?attribute@panelsetsAccessor@@AAE?AVQString@@ABV2@0@Z$4 1001e68b f   launchAccessor.obj
 0001:0001d68b       __unwindfunclet$?attribute@workstationSettingsAccessor@@AAE?AVQString@@ABV2@0@Z$4 1001e68b f   launchAccessor.obj
 0001:0001d68b       __unwindfunclet$?attribute@usersAccessor@@AAE?AVQString@@ABV2@0@Z$4 1001e68b f   launchAccessor.obj
 0001:0001d68b       __unwindfunclet$?attribute@launchAccessor@@AAE?AVQString@@ABV2@0@Z$4 1001e68b f   launchAccessor.obj
 0001:0001d68b       __unwindfunclet$?attribute@workstationsAccessor@@AAE?AVQString@@ABV2@0@Z$4 1001e68b f   launchAccessor.obj
 0001:0001d694       __unwindfunclet$?attribute@panelsetsAccessor@@AAE?AVQString@@ABV2@0@Z$5 1001e694 f   launchAccessor.obj
 0001:0001d694       __unwindfunclet$?attribute@workstationsAccessor@@AAE?AVQString@@ABV2@0@Z$5 1001e694 f   launchAccessor.obj
 0001:0001d694       __unwindfunclet$?attribute@applicationsAccessor@@AAE?AVQString@@ABV2@0@Z$5 1001e694 f   launchAccessor.obj
 0001:0001d694       __unwindfunclet$?attribute@launchAccessor@@AAE?AVQString@@ABV2@0@Z$5 1001e694 f   launchAccessor.obj
 0001:0001d694       __unwindfunclet$?attribute@workstationSettingsAccessor@@AAE?AVQString@@ABV2@0@Z$5 1001e694 f   launchAccessor.obj
 0001:0001d694       __unwindfunclet$?attribute@usersAccessor@@AAE?AVQString@@ABV2@0@Z$5 1001e694 f   launchAccessor.obj
 0001:0001d69d       __unwindfunclet$?attribute@workstationsAccessor@@AAE?AVQString@@ABV2@0@Z$6 1001e69d f   launchAccessor.obj
 0001:0001d69d       __unwindfunclet$?attribute@panelsetsAccessor@@AAE?AVQString@@ABV2@0@Z$6 1001e69d f   launchAccessor.obj
 0001:0001d69d       __unwindfunclet$?attribute@applicationsAccessor@@AAE?AVQString@@ABV2@0@Z$6 1001e69d f   launchAccessor.obj
 0001:0001d69d       __unwindfunclet$?attribute@launchAccessor@@AAE?AVQString@@ABV2@0@Z$6 1001e69d f   launchAccessor.obj
 0001:0001d69d       __unwindfunclet$?attribute@workstationSettingsAccessor@@AAE?AVQString@@ABV2@0@Z$6 1001e69d f   launchAccessor.obj
 0001:0001d69d       __unwindfunclet$?attribute@usersAccessor@@AAE?AVQString@@ABV2@0@Z$6 1001e69d f   launchAccessor.obj
 0001:0001d6a6       __unwindfunclet$?attribute@workstationsAccessor@@AAE?AVQString@@ABV2@0@Z$7 1001e6a6 f   launchAccessor.obj
 0001:0001d6a6       __unwindfunclet$?attribute@usersAccessor@@AAE?AVQString@@ABV2@0@Z$7 1001e6a6 f   launchAccessor.obj
 0001:0001d6a6       __unwindfunclet$?attribute@launchAccessor@@AAE?AVQString@@ABV2@0@Z$7 1001e6a6 f   launchAccessor.obj
 0001:0001d6a6       __unwindfunclet$?attribute@panelsetsAccessor@@AAE?AVQString@@ABV2@0@Z$7 1001e6a6 f   launchAccessor.obj
 0001:0001d6a6       __unwindfunclet$?attribute@workstationSettingsAccessor@@AAE?AVQString@@ABV2@0@Z$7 1001e6a6 f   launchAccessor.obj
 0001:0001d6a6       __unwindfunclet$?attribute@applicationsAccessor@@AAE?AVQString@@ABV2@0@Z$7 1001e6a6 f   launchAccessor.obj
 0001:0001d6af       __ehhandler$?attribute@applicationsAccessor@@AAE?AVQString@@ABV2@0@Z 1001e6af f   launchAccessor.obj
 0001:0001d6af       __ehhandler$?attribute@workstationSettingsAccessor@@AAE?AVQString@@ABV2@0@Z 1001e6af f   launchAccessor.obj
 0001:0001d6af       __ehhandler$?attribute@panelsetsAccessor@@AAE?AVQString@@ABV2@0@Z 1001e6af f   launchAccessor.obj
 0001:0001d6af       __ehhandler$?attribute@workstationsAccessor@@AAE?AVQString@@ABV2@0@Z 1001e6af f   launchAccessor.obj
 0001:0001d6af       __ehhandler$?attribute@usersAccessor@@AAE?AVQString@@ABV2@0@Z 1001e6af f   launchAccessor.obj
 0001:0001d6af       __ehhandler$?attribute@launchAccessor@@AAE?AVQString@@ABV2@0@Z 1001e6af f   launchAccessor.obj
 0001:0001d6d0       __unwindfunclet$?childAttribute@launchAccessor@@QAE?AVQString@@ABV2@H0@Z$0 1001e6d0 f   launchAccessor.obj
 0001:0001d6d9       __unwindfunclet$?childAttribute@launchAccessor@@QAE?AVQString@@ABV2@H0@Z$1 1001e6d9 f   launchAccessor.obj
 0001:0001d6e2       __unwindfunclet$?childAttribute@launchAccessor@@QAE?AVQString@@ABV2@H0@Z$2 1001e6e2 f   launchAccessor.obj
 0001:0001d6eb       __unwindfunclet$?childAttribute@launchAccessor@@QAE?AVQString@@ABV2@H0@Z$3 1001e6eb f   launchAccessor.obj
 0001:0001d6f4       __unwindfunclet$?childAttribute@launchAccessor@@QAE?AVQString@@ABV2@H0@Z$4 1001e6f4 f   launchAccessor.obj
 0001:0001d6fd       __unwindfunclet$?childAttribute@launchAccessor@@QAE?AVQString@@ABV2@H0@Z$5 1001e6fd f   launchAccessor.obj
 0001:0001d706       __unwindfunclet$?childAttribute@launchAccessor@@QAE?AVQString@@ABV2@H0@Z$6 1001e706 f   launchAccessor.obj
 0001:0001d70f       __unwindfunclet$?childAttribute@launchAccessor@@QAE?AVQString@@ABV2@H0@Z$8 1001e70f f   launchAccessor.obj
 0001:0001d718       __unwindfunclet$?childAttribute@launchAccessor@@QAE?AVQString@@ABV2@H0@Z$9 1001e718 f   launchAccessor.obj
 0001:0001d721       __unwindfunclet$?childAttribute@launchAccessor@@QAE?AVQString@@ABV2@H0@Z$7 1001e721 f   launchAccessor.obj
 0001:0001d73b       __ehhandler$?childAttribute@launchAccessor@@QAE?AVQString@@ABV2@H0@Z 1001e73b f   launchAccessor.obj
 0001:0001d760       __unwindfunclet$?delay@launchAccessor@@QAEHABVQString@@H@Z$0 1001e760 f   launchAccessor.obj
 0001:0001d769       __unwindfunclet$?delay@launchAccessor@@QAEHABVQString@@H@Z$1 1001e769 f   launchAccessor.obj
 0001:0001d772       __ehhandler$?delay@launchAccessor@@QAEHABVQString@@H@Z 1001e772 f   launchAccessor.obj
 0001:0001d790       __unwindfunclet$?deleteItem@launchAccessor@@QAE_NABVQString@@ABVlaunchItem@@H@Z$0 1001e790 f   launchAccessor.obj
 0001:0001d799       __unwindfunclet$?deleteItem@launchAccessor@@QAE_NABVQString@@ABVlaunchItem@@H@Z$1 1001e799 f   launchAccessor.obj
 0001:0001d7a2       __unwindfunclet$?deleteItem@launchAccessor@@QAE_NABVQString@@ABVlaunchItem@@H@Z$2 1001e7a2 f   launchAccessor.obj
 0001:0001d7ab       __unwindfunclet$?deleteItem@launchAccessor@@QAE_NABVQString@@ABVlaunchItem@@H@Z$3 1001e7ab f   launchAccessor.obj
 0001:0001d7b4       __unwindfunclet$?deleteItem@launchAccessor@@QAE_NABVQString@@ABVlaunchItem@@H@Z$4 1001e7b4 f   launchAccessor.obj
 0001:0001d7bd       __unwindfunclet$?deleteItem@launchAccessor@@QAE_NABVQString@@ABVlaunchItem@@H@Z$5 1001e7bd f   launchAccessor.obj
 0001:0001d7c6       __unwindfunclet$?deleteItem@launchAccessor@@QAE_NABVQString@@ABVlaunchItem@@H@Z$6 1001e7c6 f   launchAccessor.obj
 0001:0001d7cf       __unwindfunclet$?deleteItem@launchAccessor@@QAE_NABVQString@@ABVlaunchItem@@H@Z$8 1001e7cf f   launchAccessor.obj
 0001:0001d7d8       __unwindfunclet$?deleteItem@launchAccessor@@QAE_NABVQString@@ABVlaunchItem@@H@Z$9 1001e7d8 f   launchAccessor.obj
 0001:0001d7e1       __ehhandler$?deleteItem@launchAccessor@@QAE_NABVQString@@ABVlaunchItem@@H@Z 1001e7e1 f   launchAccessor.obj
 0001:0001d800       __unwindfunclet$?deleteWorkstation@launchAccessor@@QAE_NABVQString@@@Z$0 1001e800 f   launchAccessor.obj
 0001:0001d80c       __unwindfunclet$?deleteWorkstation@launchAccessor@@QAE_NABVQString@@@Z$1 1001e80c f   launchAccessor.obj
 0001:0001d815       __unwindfunclet$?deleteWorkstation@launchAccessor@@QAE_NABVQString@@@Z$2 1001e815 f   launchAccessor.obj
 0001:0001d81e       __unwindfunclet$?deleteWorkstation@launchAccessor@@QAE_NABVQString@@@Z$3 1001e81e f   launchAccessor.obj
 0001:0001d827       __unwindfunclet$?deleteWorkstation@launchAccessor@@QAE_NABVQString@@@Z$4 1001e827 f   launchAccessor.obj
 0001:0001d830       __unwindfunclet$?deleteWorkstation@launchAccessor@@QAE_NABVQString@@@Z$25 1001e830 f   launchAccessor.obj
 0001:0001d83c       __unwindfunclet$?deleteWorkstation@launchAccessor@@QAE_NABVQString@@@Z$5 1001e83c f   launchAccessor.obj
 0001:0001d844       __unwindfunclet$?deleteWorkstation@launchAccessor@@QAE_NABVQString@@@Z$6 1001e844 f   launchAccessor.obj
 0001:0001d84d       __unwindfunclet$?deleteWorkstation@launchAccessor@@QAE_NABVQString@@@Z$7 1001e84d f   launchAccessor.obj
 0001:0001d856       __unwindfunclet$?deleteWorkstation@launchAccessor@@QAE_NABVQString@@@Z$8 1001e856 f   launchAccessor.obj
 0001:0001d85f       __unwindfunclet$?deleteWorkstation@launchAccessor@@QAE_NABVQString@@@Z$9 1001e85f f   launchAccessor.obj
 0001:0001d868       __unwindfunclet$?deleteWorkstation@launchAccessor@@QAE_NABVQString@@@Z$10 1001e868 f   launchAccessor.obj
 0001:0001d871       __unwindfunclet$?deleteWorkstation@launchAccessor@@QAE_NABVQString@@@Z$11 1001e871 f   launchAccessor.obj
 0001:0001d87a       __unwindfunclet$?deleteWorkstation@launchAccessor@@QAE_NABVQString@@@Z$12 1001e87a f   launchAccessor.obj
 0001:0001d883       __unwindfunclet$?deleteWorkstation@launchAccessor@@QAE_NABVQString@@@Z$13 1001e883 f   launchAccessor.obj
 0001:0001d88c       __unwindfunclet$?deleteWorkstation@launchAccessor@@QAE_NABVQString@@@Z$14 1001e88c f   launchAccessor.obj
 0001:0001d895       __unwindfunclet$?deleteWorkstation@launchAccessor@@QAE_NABVQString@@@Z$15 1001e895 f   launchAccessor.obj
 0001:0001d89e       __unwindfunclet$?deleteWorkstation@launchAccessor@@QAE_NABVQString@@@Z$16 1001e89e f   launchAccessor.obj
 0001:0001d8a7       __unwindfunclet$?deleteWorkstation@launchAccessor@@QAE_NABVQString@@@Z$17 1001e8a7 f   launchAccessor.obj
 0001:0001d8b3       __unwindfunclet$?deleteWorkstation@launchAccessor@@QAE_NABVQString@@@Z$18 1001e8b3 f   launchAccessor.obj
 0001:0001d8bf       __unwindfunclet$?deleteWorkstation@launchAccessor@@QAE_NABVQString@@@Z$19 1001e8bf f   launchAccessor.obj
 0001:0001d8c8       __unwindfunclet$?deleteWorkstation@launchAccessor@@QAE_NABVQString@@@Z$20 1001e8c8 f   launchAccessor.obj
 0001:0001d8d1       __unwindfunclet$?deleteWorkstation@launchAccessor@@QAE_NABVQString@@@Z$21 1001e8d1 f   launchAccessor.obj
 0001:0001d8da       __unwindfunclet$?deleteWorkstation@launchAccessor@@QAE_NABVQString@@@Z$26 1001e8da f   launchAccessor.obj
 0001:0001d8e3       __unwindfunclet$?deleteWorkstation@launchAccessor@@QAE_NABVQString@@@Z$27 1001e8e3 f   launchAccessor.obj
 0001:0001d8ec       __unwindfunclet$?deleteWorkstation@launchAccessor@@QAE_NABVQString@@@Z$28 1001e8ec f   launchAccessor.obj
 0001:0001d8f5       __unwindfunclet$?deleteWorkstation@launchAccessor@@QAE_NABVQString@@@Z$22 1001e8f5 f   launchAccessor.obj
 0001:0001d8fd       __unwindfunclet$?deleteWorkstation@launchAccessor@@QAE_NABVQString@@@Z$29 1001e8fd f   launchAccessor.obj
 0001:0001d906       __unwindfunclet$?deleteWorkstation@launchAccessor@@QAE_NABVQString@@@Z$30 1001e906 f   launchAccessor.obj
 0001:0001d90f       __unwindfunclet$?deleteWorkstation@launchAccessor@@QAE_NABVQString@@@Z$23 1001e90f f   launchAccessor.obj
 0001:0001d91b       __ehhandler$?deleteWorkstation@launchAccessor@@QAE_NABVQString@@@Z 1001e91b f   launchAccessor.obj
 0001:0001d940       __unwindfunclet$?demoteItem@launchAccessor@@QAE_NABVQString@@H_N@Z$0 1001e940 f   launchAccessor.obj
 0001:0001d949       __unwindfunclet$?demoteItem@launchAccessor@@QAE_NABVQString@@H_N@Z$1 1001e949 f   launchAccessor.obj
 0001:0001d952       __unwindfunclet$?demoteItem@launchAccessor@@QAE_NABVQString@@H_N@Z$2 1001e952 f   launchAccessor.obj
 0001:0001d95b       __unwindfunclet$?demoteItem@launchAccessor@@QAE_NABVQString@@H_N@Z$3 1001e95b f   launchAccessor.obj
 0001:0001d964       __unwindfunclet$?demoteItem@launchAccessor@@QAE_NABVQString@@H_N@Z$4 1001e964 f   launchAccessor.obj
 0001:0001d96d       __unwindfunclet$?demoteItem@launchAccessor@@QAE_NABVQString@@H_N@Z$5 1001e96d f   launchAccessor.obj
 0001:0001d976       __unwindfunclet$?demoteItem@launchAccessor@@QAE_NABVQString@@H_N@Z$6 1001e976 f   launchAccessor.obj
 0001:0001d97f       __unwindfunclet$?demoteItem@launchAccessor@@QAE_NABVQString@@H_N@Z$11 1001e97f f   launchAccessor.obj
 0001:0001d988       __unwindfunclet$?demoteItem@launchAccessor@@QAE_NABVQString@@H_N@Z$12 1001e988 f   launchAccessor.obj
 0001:0001d991       __unwindfunclet$?demoteItem@launchAccessor@@QAE_NABVQString@@H_N@Z$7 1001e991 f   launchAccessor.obj
 0001:0001d99a       __unwindfunclet$?demoteItem@launchAccessor@@QAE_NABVQString@@H_N@Z$9 1001e99a f   launchAccessor.obj
 0001:0001d9a3       __ehhandler$?demoteItem@launchAccessor@@QAE_NABVQString@@H_N@Z 1001e9a3 f   launchAccessor.obj
 0001:0001d9c0       __unwindfunclet$?getLaunchItem@launchAccessor@@QAE_NABVQString@@HAAVlaunchItem@@@Z$0 1001e9c0 f   launchAccessor.obj
 0001:0001d9c9       __unwindfunclet$?getLaunchItem@launchAccessor@@QAE_NABVQString@@HAAVlaunchItem@@@Z$1 1001e9c9 f   launchAccessor.obj
 0001:0001d9d2       __unwindfunclet$?getLaunchItem@launchAccessor@@QAE_NABVQString@@HAAVlaunchItem@@@Z$2 1001e9d2 f   launchAccessor.obj
 0001:0001d9db       __unwindfunclet$?getLaunchItem@launchAccessor@@QAE_NABVQString@@HAAVlaunchItem@@@Z$3 1001e9db f   launchAccessor.obj
 0001:0001d9e4       __unwindfunclet$?getLaunchItem@launchAccessor@@QAE_NABVQString@@HAAVlaunchItem@@@Z$4 1001e9e4 f   launchAccessor.obj
 0001:0001d9ed       __unwindfunclet$?getLaunchItem@launchAccessor@@QAE_NABVQString@@HAAVlaunchItem@@@Z$5 1001e9ed f   launchAccessor.obj
 0001:0001d9f5       __unwindfunclet$?getLaunchItem@launchAccessor@@QAE_NABVQString@@HAAVlaunchItem@@@Z$6 1001e9f5 f   launchAccessor.obj
 0001:0001d9fe       __unwindfunclet$?getLaunchItem@launchAccessor@@QAE_NABVQString@@HAAVlaunchItem@@@Z$22 1001e9fe f   launchAccessor.obj
 0001:0001da07       __unwindfunclet$?getLaunchItem@launchAccessor@@QAE_NABVQString@@HAAVlaunchItem@@@Z$23 1001ea07 f   launchAccessor.obj
 0001:0001da10       __unwindfunclet$?getLaunchItem@launchAccessor@@QAE_NABVQString@@HAAVlaunchItem@@@Z$7 1001ea10 f   launchAccessor.obj
 0001:0001da19       __unwindfunclet$?getLaunchItem@launchAccessor@@QAE_NABVQString@@HAAVlaunchItem@@@Z$8 1001ea19 f   launchAccessor.obj
 0001:0001da22       __unwindfunclet$?getLaunchItem@launchAccessor@@QAE_NABVQString@@HAAVlaunchItem@@@Z$9 1001ea22 f   launchAccessor.obj
 0001:0001da2b       __unwindfunclet$?getLaunchItem@launchAccessor@@QAE_NABVQString@@HAAVlaunchItem@@@Z$10 1001ea2b f   launchAccessor.obj
 0001:0001da34       __unwindfunclet$?getLaunchItem@launchAccessor@@QAE_NABVQString@@HAAVlaunchItem@@@Z$11 1001ea34 f   launchAccessor.obj
 0001:0001da3d       __unwindfunclet$?getLaunchItem@launchAccessor@@QAE_NABVQString@@HAAVlaunchItem@@@Z$12 1001ea3d f   launchAccessor.obj
 0001:0001da46       __unwindfunclet$?getLaunchItem@launchAccessor@@QAE_NABVQString@@HAAVlaunchItem@@@Z$13 1001ea46 f   launchAccessor.obj
 0001:0001da4f       __unwindfunclet$?getLaunchItem@launchAccessor@@QAE_NABVQString@@HAAVlaunchItem@@@Z$14 1001ea4f f   launchAccessor.obj
 0001:0001da58       __unwindfunclet$?getLaunchItem@launchAccessor@@QAE_NABVQString@@HAAVlaunchItem@@@Z$15 1001ea58 f   launchAccessor.obj
 0001:0001da61       __unwindfunclet$?getLaunchItem@launchAccessor@@QAE_NABVQString@@HAAVlaunchItem@@@Z$16 1001ea61 f   launchAccessor.obj
 0001:0001da6a       __unwindfunclet$?getLaunchItem@launchAccessor@@QAE_NABVQString@@HAAVlaunchItem@@@Z$17 1001ea6a f   launchAccessor.obj
 0001:0001da73       __unwindfunclet$?getLaunchItem@launchAccessor@@QAE_NABVQString@@HAAVlaunchItem@@@Z$18 1001ea73 f   launchAccessor.obj
 0001:0001da7c       __unwindfunclet$?getLaunchItem@launchAccessor@@QAE_NABVQString@@HAAVlaunchItem@@@Z$19 1001ea7c f   launchAccessor.obj
 0001:0001da85       __unwindfunclet$?getLaunchItem@launchAccessor@@QAE_NABVQString@@HAAVlaunchItem@@@Z$20 1001ea85 f   launchAccessor.obj
 0001:0001da8e       __unwindfunclet$?getLaunchItem@launchAccessor@@QAE_NABVQString@@HAAVlaunchItem@@@Z$24 1001ea8e f   launchAccessor.obj
 0001:0001da97       __unwindfunclet$?getLaunchItem@launchAccessor@@QAE_NABVQString@@HAAVlaunchItem@@@Z$25 1001ea97 f   launchAccessor.obj
 0001:0001daa0       __unwindfunclet$?getLaunchItem@launchAccessor@@QAE_NABVQString@@HAAVlaunchItem@@@Z$26 1001eaa0 f   launchAccessor.obj
 0001:0001daa9       __unwindfunclet$?getLaunchItem@launchAccessor@@QAE_NABVQString@@HAAVlaunchItem@@@Z$21 1001eaa9 f   launchAccessor.obj
 0001:0001dab1       __unwindfunclet$?getLaunchItem@launchAccessor@@QAE_NABVQString@@HAAVlaunchItem@@@Z$27 1001eab1 f   launchAccessor.obj
 0001:0001daba       __unwindfunclet$?getLaunchItem@launchAccessor@@QAE_NABVQString@@HAAVlaunchItem@@@Z$28 1001eaba f   launchAccessor.obj
 0001:0001dac3       __ehhandler$?getLaunchItem@launchAccessor@@QAE_NABVQString@@HAAVlaunchItem@@@Z 1001eac3 f   launchAccessor.obj
 0001:0001daf0       __unwindfunclet$??0?$QValueListPrivate@VworkstationSettingsItem@@@@QAE@XZ$0 1001eaf0 f   launchAccessor.obj
 0001:0001daf0       __unwindfunclet$?insert@?$QValueListPrivate@VpanelsetItem@@@@QAE?AV?$QValueListIterator@VpanelsetItem@@@@V2@ABVpanelsetItem@@@Z$0 1001eaf0 f   launchAccessor.obj
 0001:0001daf0       __unwindfunclet$?insert@?$QValueListPrivate@VlaunchItem@@@@QAE?AV?$QValueListIterator@VlaunchItem@@@@V2@ABVlaunchItem@@@Z$0 1001eaf0 f   launchAccessor.obj
 0001:0001dafb       __unwindfunclet$?insert@?$QValueListPrivate@VpanelsetItem@@@@QAE?AV?$QValueListIterator@VpanelsetItem@@@@V2@ABVpanelsetItem@@@Z$2 1001eafb f   launchAccessor.obj
 0001:0001dafb       __unwindfunclet$??0?$QValueListPrivate@VworkstationSettingsItem@@@@QAE@XZ$2 1001eafb f   launchAccessor.obj
 0001:0001dafb       __unwindfunclet$?insert@?$QValueListPrivate@VlaunchItem@@@@QAE?AV?$QValueListIterator@VlaunchItem@@@@V2@ABVlaunchItem@@@Z$2 1001eafb f   launchAccessor.obj
 0001:0001db04       __unwindfunclet$?insert@?$QValueListPrivate@VpanelsetItem@@@@QAE?AV?$QValueListIterator@VpanelsetItem@@@@V2@ABVpanelsetItem@@@Z$3 1001eb04 f   launchAccessor.obj
 0001:0001db04       __unwindfunclet$??0?$QValueListPrivate@VworkstationSettingsItem@@@@QAE@XZ$3 1001eb04 f   launchAccessor.obj
 0001:0001db04       __unwindfunclet$?insert@?$QValueListPrivate@VlaunchItem@@@@QAE?AV?$QValueListIterator@VlaunchItem@@@@V2@ABVlaunchItem@@@Z$3 1001eb04 f   launchAccessor.obj
 0001:0001db10       __ehhandler$??0?$QValueListPrivate@VworkstationSettingsItem@@@@QAE@XZ 1001eb10 f   launchAccessor.obj
 0001:0001db10       __ehhandler$?insert@?$QValueListPrivate@VpanelsetItem@@@@QAE?AV?$QValueListIterator@VpanelsetItem@@@@V2@ABVpanelsetItem@@@Z 1001eb10 f   launchAccessor.obj
 0001:0001db10       __ehhandler$?insert@?$QValueListPrivate@VlaunchItem@@@@QAE?AV?$QValueListIterator@VlaunchItem@@@@V2@ABVlaunchItem@@@Z 1001eb10 f   launchAccessor.obj
 0001:0001db30       __unwindfunclet$?insertItem@launchAccessor@@QAE_NABVQString@@ABVlaunchItem@@H@Z$0 1001eb30 f   launchAccessor.obj
 0001:0001db39       __unwindfunclet$?insertItem@launchAccessor@@QAE_NABVQString@@ABVlaunchItem@@H@Z$1 1001eb39 f   launchAccessor.obj
 0001:0001db42       __unwindfunclet$?insertItem@launchAccessor@@QAE_NABVQString@@ABVlaunchItem@@H@Z$2 1001eb42 f   launchAccessor.obj
 0001:0001db4b       __unwindfunclet$?insertItem@launchAccessor@@QAE_NABVQString@@ABVlaunchItem@@H@Z$3 1001eb4b f   launchAccessor.obj
 0001:0001db54       __unwindfunclet$?insertItem@launchAccessor@@QAE_NABVQString@@ABVlaunchItem@@H@Z$4 1001eb54 f   launchAccessor.obj
 0001:0001db5d       __unwindfunclet$?insertItem@launchAccessor@@QAE_NABVQString@@ABVlaunchItem@@H@Z$17 1001eb5d f   launchAccessor.obj
 0001:0001db66       __unwindfunclet$?insertItem@launchAccessor@@QAE_NABVQString@@ABVlaunchItem@@H@Z$5 1001eb66 f   launchAccessor.obj
 0001:0001db6f       __unwindfunclet$?insertItem@launchAccessor@@QAE_NABVQString@@ABVlaunchItem@@H@Z$6 1001eb6f f   launchAccessor.obj
 0001:0001db78       __unwindfunclet$?insertItem@launchAccessor@@QAE_NABVQString@@ABVlaunchItem@@H@Z$7 1001eb78 f   launchAccessor.obj
 0001:0001db81       __unwindfunclet$?insertItem@launchAccessor@@QAE_NABVQString@@ABVlaunchItem@@H@Z$8 1001eb81 f   launchAccessor.obj
 0001:0001db8a       __unwindfunclet$?insertItem@launchAccessor@@QAE_NABVQString@@ABVlaunchItem@@H@Z$9 1001eb8a f   launchAccessor.obj
 0001:0001db93       __unwindfunclet$?insertItem@launchAccessor@@QAE_NABVQString@@ABVlaunchItem@@H@Z$10 1001eb93 f   launchAccessor.obj
 0001:0001db9c       __unwindfunclet$?insertItem@launchAccessor@@QAE_NABVQString@@ABVlaunchItem@@H@Z$11 1001eb9c f   launchAccessor.obj
 0001:0001dba5       __unwindfunclet$?insertItem@launchAccessor@@QAE_NABVQString@@ABVlaunchItem@@H@Z$13 1001eba5 f   launchAccessor.obj
 0001:0001dbae       __unwindfunclet$?insertItem@launchAccessor@@QAE_NABVQString@@ABVlaunchItem@@H@Z$15 1001ebae f   launchAccessor.obj
 0001:0001dbb7       __ehhandler$?insertItem@launchAccessor@@QAE_NABVQString@@ABVlaunchItem@@H@Z 1001ebb7 f   launchAccessor.obj
 0001:0001dbe0       __unwindfunclet$?item@launchAccessor@@QAE_NABVQString@@AAV2@AA_NAAV?$QValueList@VlaunchItem@@@@AAH@Z$0 1001ebe0 f   launchAccessor.obj
 0001:0001dbe9       __unwindfunclet$?item@launchAccessor@@QAE_NABVQString@@AAV2@AA_NAAV?$QValueList@VlaunchItem@@@@AAH@Z$1 1001ebe9 f   launchAccessor.obj
 0001:0001dbf2       __unwindfunclet$?item@launchAccessor@@QAE_NABVQString@@AAV2@AA_NAAV?$QValueList@VlaunchItem@@@@AAH@Z$2 1001ebf2 f   launchAccessor.obj
 0001:0001dbfb       __unwindfunclet$?item@launchAccessor@@QAE_NABVQString@@AAV2@AA_NAAV?$QValueList@VlaunchItem@@@@AAH@Z$3 1001ebfb f   launchAccessor.obj
 0001:0001dc04       __unwindfunclet$?item@launchAccessor@@QAE_NABVQString@@AAV2@AA_NAAV?$QValueList@VlaunchItem@@@@AAH@Z$4 1001ec04 f   launchAccessor.obj
 0001:0001dc0d       __unwindfunclet$?item@launchAccessor@@QAE_NABVQString@@AAV2@AA_NAAV?$QValueList@VlaunchItem@@@@AAH@Z$23 1001ec0d f   launchAccessor.obj
 0001:0001dc16       __unwindfunclet$?item@launchAccessor@@QAE_NABVQString@@AAV2@AA_NAAV?$QValueList@VlaunchItem@@@@AAH@Z$5 1001ec16 f   launchAccessor.obj
 0001:0001dc1f       __unwindfunclet$?item@launchAccessor@@QAE_NABVQString@@AAV2@AA_NAAV?$QValueList@VlaunchItem@@@@AAH@Z$6 1001ec1f f   launchAccessor.obj
 0001:0001dc28       __unwindfunclet$?item@launchAccessor@@QAE_NABVQString@@AAV2@AA_NAAV?$QValueList@VlaunchItem@@@@AAH@Z$7 1001ec28 f   launchAccessor.obj
 0001:0001dc31       __unwindfunclet$?item@launchAccessor@@QAE_NABVQString@@AAV2@AA_NAAV?$QValueList@VlaunchItem@@@@AAH@Z$8 1001ec31 f   launchAccessor.obj
 0001:0001dc3a       __unwindfunclet$?item@launchAccessor@@QAE_NABVQString@@AAV2@AA_NAAV?$QValueList@VlaunchItem@@@@AAH@Z$9 1001ec3a f   launchAccessor.obj
 0001:0001dc43       __unwindfunclet$?item@launchAccessor@@QAE_NABVQString@@AAV2@AA_NAAV?$QValueList@VlaunchItem@@@@AAH@Z$10 1001ec43 f   launchAccessor.obj
 0001:0001dc4c       __unwindfunclet$?item@launchAccessor@@QAE_NABVQString@@AAV2@AA_NAAV?$QValueList@VlaunchItem@@@@AAH@Z$11 1001ec4c f   launchAccessor.obj
 0001:0001dc55       __unwindfunclet$?item@launchAccessor@@QAE_NABVQString@@AAV2@AA_NAAV?$QValueList@VlaunchItem@@@@AAH@Z$12 1001ec55 f   launchAccessor.obj
 0001:0001dc5e       __unwindfunclet$?item@launchAccessor@@QAE_NABVQString@@AAV2@AA_NAAV?$QValueList@VlaunchItem@@@@AAH@Z$13 1001ec5e f   launchAccessor.obj
 0001:0001dc67       __unwindfunclet$?item@launchAccessor@@QAE_NABVQString@@AAV2@AA_NAAV?$QValueList@VlaunchItem@@@@AAH@Z$14 1001ec67 f   launchAccessor.obj
 0001:0001dc70       __unwindfunclet$?item@launchAccessor@@QAE_NABVQString@@AAV2@AA_NAAV?$QValueList@VlaunchItem@@@@AAH@Z$15 1001ec70 f   launchAccessor.obj
 0001:0001dc79       __unwindfunclet$?item@launchAccessor@@QAE_NABVQString@@AAV2@AA_NAAV?$QValueList@VlaunchItem@@@@AAH@Z$16 1001ec79 f   launchAccessor.obj
 0001:0001dc82       __unwindfunclet$?item@launchAccessor@@QAE_NABVQString@@AAV2@AA_NAAV?$QValueList@VlaunchItem@@@@AAH@Z$17 1001ec82 f   launchAccessor.obj
 0001:0001dc8b       __unwindfunclet$?item@launchAccessor@@QAE_NABVQString@@AAV2@AA_NAAV?$QValueList@VlaunchItem@@@@AAH@Z$18 1001ec8b f   launchAccessor.obj
 0001:0001dc94       __unwindfunclet$?item@launchAccessor@@QAE_NABVQString@@AAV2@AA_NAAV?$QValueList@VlaunchItem@@@@AAH@Z$19 1001ec94 f   launchAccessor.obj
 0001:0001dc9d       __unwindfunclet$?item@launchAccessor@@QAE_NABVQString@@AAV2@AA_NAAV?$QValueList@VlaunchItem@@@@AAH@Z$20 1001ec9d f   launchAccessor.obj
 0001:0001dca6       __unwindfunclet$?item@launchAccessor@@QAE_NABVQString@@AAV2@AA_NAAV?$QValueList@VlaunchItem@@@@AAH@Z$24 1001eca6 f   launchAccessor.obj
 0001:0001dcb2       __unwindfunclet$?item@launchAccessor@@QAE_NABVQString@@AAV2@AA_NAAV?$QValueList@VlaunchItem@@@@AAH@Z$25 1001ecb2 f   launchAccessor.obj
 0001:0001dcbb       __unwindfunclet$?item@launchAccessor@@QAE_NABVQString@@AAV2@AA_NAAV?$QValueList@VlaunchItem@@@@AAH@Z$26 1001ecbb f   launchAccessor.obj
 0001:0001dcc4       __unwindfunclet$?item@launchAccessor@@QAE_NABVQString@@AAV2@AA_NAAV?$QValueList@VlaunchItem@@@@AAH@Z$21 1001ecc4 f   launchAccessor.obj
 0001:0001dccf       __unwindfunclet$?item@launchAccessor@@QAE_NABVQString@@AAV2@AA_NAAV?$QValueList@VlaunchItem@@@@AAH@Z$27 1001eccf f   launchAccessor.obj
 0001:0001dcdb       __unwindfunclet$?item@launchAccessor@@QAE_NABVQString@@AAV2@AA_NAAV?$QValueList@VlaunchItem@@@@AAH@Z$28 1001ecdb f   launchAccessor.obj
 0001:0001dce4       __unwindfunclet$?item@launchAccessor@@QAE_NABVQString@@AAV2@AA_NAAV?$QValueList@VlaunchItem@@@@AAH@Z$22 1001ece4 f   launchAccessor.obj
 0001:0001dced       __ehhandler$?item@launchAccessor@@QAE_NABVQString@@AAV2@AA_NAAV?$QValueList@VlaunchItem@@@@AAH@Z 1001eced f   launchAccessor.obj
 0001:0001dd10       __unwindfunclet$?roc@launchAccessor@@QAE_NABVQString@@H@Z$0 1001ed10 f   launchAccessor.obj
 0001:0001dd10       __unwindfunclet$?roc@launchAccessor@@QAE_NABVQString@@@Z$0 1001ed10 f   launchAccessor.obj
 0001:0001dd19       __unwindfunclet$?roc@launchAccessor@@QAE_NABVQString@@H@Z$1 1001ed19 f   launchAccessor.obj
 0001:0001dd19       __unwindfunclet$?roc@launchAccessor@@QAE_NABVQString@@@Z$1 1001ed19 f   launchAccessor.obj
 0001:0001dd22       __ehhandler$?roc@launchAccessor@@QAE_NABVQString@@@Z 1001ed22 f   launchAccessor.obj
 0001:0001dd22       __ehhandler$?roc@launchAccessor@@QAE_NABVQString@@H@Z 1001ed22 f   launchAccessor.obj
 0001:0001dd40       __unwindfunclet$?setChildAttribute@launchAccessor@@QAE_NABVQString@@H00@Z$0 1001ed40 f   launchAccessor.obj
 0001:0001dd49       __unwindfunclet$?setChildAttribute@launchAccessor@@QAE_NABVQString@@H00@Z$1 1001ed49 f   launchAccessor.obj
 0001:0001dd52       __unwindfunclet$?setChildAttribute@launchAccessor@@QAE_NABVQString@@H00@Z$2 1001ed52 f   launchAccessor.obj
 0001:0001dd5b       __unwindfunclet$?setChildAttribute@launchAccessor@@QAE_NABVQString@@H00@Z$3 1001ed5b f   launchAccessor.obj
 0001:0001dd64       __unwindfunclet$?setChildAttribute@launchAccessor@@QAE_NABVQString@@H00@Z$4 1001ed64 f   launchAccessor.obj
 0001:0001dd6d       __unwindfunclet$?setChildAttribute@launchAccessor@@QAE_NABVQString@@H00@Z$5 1001ed6d f   launchAccessor.obj
 0001:0001dd76       __unwindfunclet$?setChildAttribute@launchAccessor@@QAE_NABVQString@@H00@Z$6 1001ed76 f   launchAccessor.obj
 0001:0001dd7f       __unwindfunclet$?setChildAttribute@launchAccessor@@QAE_NABVQString@@H00@Z$7 1001ed7f f   launchAccessor.obj
 0001:0001dd88       __unwindfunclet$?setChildAttribute@launchAccessor@@QAE_NABVQString@@H00@Z$8 1001ed88 f   launchAccessor.obj
 0001:0001dd91       __ehhandler$?setChildAttribute@launchAccessor@@QAE_NABVQString@@H00@Z 1001ed91 f   launchAccessor.obj
 0001:0001ddb0       __unwindfunclet$?setCurrent@workstationsAccessor@@QAE_NABVQString@@@Z$0 1001edb0 f   launchAccessor.obj
 0001:0001ddb0       __unwindfunclet$?setCurrent@applicationsAccessor@@QAE_NABVQString@@@Z$0 1001edb0 f   launchAccessor.obj
 0001:0001ddb0       __unwindfunclet$?setCurrent@panelsetsAccessor@@QAE_NABVQString@@@Z$0 1001edb0 f   launchAccessor.obj
 0001:0001ddb0       __unwindfunclet$?setCurrent@workstationSettingsAccessor@@QAE_NABVQString@@@Z$0 1001edb0 f   launchAccessor.obj
 0001:0001ddb0       __unwindfunclet$?setCurrent@launchAccessor@@QAE_NABVQString@@@Z$0 1001edb0 f   launchAccessor.obj
 0001:0001ddb9       __unwindfunclet$?setCurrent@panelsetsAccessor@@QAE_NABVQString@@@Z$1 1001edb9 f   launchAccessor.obj
 0001:0001ddb9       __unwindfunclet$?setCurrent@workstationSettingsAccessor@@QAE_NABVQString@@@Z$1 1001edb9 f   launchAccessor.obj
 0001:0001ddb9       __unwindfunclet$?setCurrent@applicationsAccessor@@QAE_NABVQString@@@Z$1 1001edb9 f   launchAccessor.obj
 0001:0001ddb9       __unwindfunclet$?setCurrent@launchAccessor@@QAE_NABVQString@@@Z$1 1001edb9 f   launchAccessor.obj
 0001:0001ddb9       __unwindfunclet$?setCurrent@workstationsAccessor@@QAE_NABVQString@@@Z$1 1001edb9 f   launchAccessor.obj
 0001:0001ddc2       __unwindfunclet$?setCurrent@workstationSettingsAccessor@@QAE_NABVQString@@@Z$2 1001edc2 f   launchAccessor.obj
 0001:0001ddc2       __unwindfunclet$?setCurrent@applicationsAccessor@@QAE_NABVQString@@@Z$2 1001edc2 f   launchAccessor.obj
 0001:0001ddc2       __unwindfunclet$?setCurrent@panelsetsAccessor@@QAE_NABVQString@@@Z$2 1001edc2 f   launchAccessor.obj
 0001:0001ddc2       __unwindfunclet$?setCurrent@launchAccessor@@QAE_NABVQString@@@Z$2 1001edc2 f   launchAccessor.obj
 0001:0001ddc2       __unwindfunclet$?setCurrent@workstationsAccessor@@QAE_NABVQString@@@Z$2 1001edc2 f   launchAccessor.obj
 0001:0001ddcb       __unwindfunclet$?setCurrent@applicationsAccessor@@QAE_NABVQString@@@Z$3 1001edcb f   launchAccessor.obj
 0001:0001ddcb       __unwindfunclet$?setCurrent@launchAccessor@@QAE_NABVQString@@@Z$3 1001edcb f   launchAccessor.obj
 0001:0001ddcb       __unwindfunclet$?setCurrent@panelsetsAccessor@@QAE_NABVQString@@@Z$3 1001edcb f   launchAccessor.obj
 0001:0001ddcb       __unwindfunclet$?setCurrent@workstationSettingsAccessor@@QAE_NABVQString@@@Z$3 1001edcb f   launchAccessor.obj
 0001:0001ddcb       __unwindfunclet$?setCurrent@workstationsAccessor@@QAE_NABVQString@@@Z$3 1001edcb f   launchAccessor.obj
 0001:0001ddd4       __unwindfunclet$?setCurrent@panelsetsAccessor@@QAE_NABVQString@@@Z$4 1001edd4 f   launchAccessor.obj
 0001:0001ddd4       __unwindfunclet$?setCurrent@launchAccessor@@QAE_NABVQString@@@Z$4 1001edd4 f   launchAccessor.obj
 0001:0001ddd4       __unwindfunclet$?setCurrent@workstationsAccessor@@QAE_NABVQString@@@Z$4 1001edd4 f   launchAccessor.obj
 0001:0001ddd4       __unwindfunclet$?setCurrent@applicationsAccessor@@QAE_NABVQString@@@Z$4 1001edd4 f   launchAccessor.obj
 0001:0001ddd4       __unwindfunclet$?setCurrent@workstationSettingsAccessor@@QAE_NABVQString@@@Z$4 1001edd4 f   launchAccessor.obj
 0001:0001dddd       __ehhandler$?setCurrent@applicationsAccessor@@QAE_NABVQString@@@Z 1001eddd f   launchAccessor.obj
 0001:0001dddd       __ehhandler$?setCurrent@launchAccessor@@QAE_NABVQString@@@Z 1001eddd f   launchAccessor.obj
 0001:0001dddd       __ehhandler$?setCurrent@workstationsAccessor@@QAE_NABVQString@@@Z 1001eddd f   launchAccessor.obj
 0001:0001dddd       __ehhandler$?setCurrent@panelsetsAccessor@@QAE_NABVQString@@@Z 1001eddd f   launchAccessor.obj
 0001:0001dddd       __ehhandler$?setCurrent@workstationSettingsAccessor@@QAE_NABVQString@@@Z 1001eddd f   launchAccessor.obj
 0001:0001de00       __unwindfunclet$?setDelay@launchAccessor@@QAE_NABVQString@@HH@Z$0 1001ee00 f   launchAccessor.obj
 0001:0001de09       __unwindfunclet$?setDelay@launchAccessor@@QAE_NABVQString@@HH@Z$1 1001ee09 f   launchAccessor.obj
 0001:0001de12       __unwindfunclet$?setDelay@launchAccessor@@QAE_NABVQString@@HH@Z$2 1001ee12 f   launchAccessor.obj
 0001:0001de1b       __ehhandler$?setDelay@launchAccessor@@QAE_NABVQString@@HH@Z 1001ee1b f   launchAccessor.obj
 0001:0001de40       __unwindfunclet$?setROC@launchAccessor@@QAE_NABVQString@@_N@Z$0 1001ee40 f   launchAccessor.obj
 0001:0001de49       __unwindfunclet$?setROC@launchAccessor@@QAE_NABVQString@@_N@Z$1 1001ee49 f   launchAccessor.obj
 0001:0001de52       __ehhandler$?setROC@launchAccessor@@QAE_NABVQString@@_N@Z 1001ee52 f   launchAccessor.obj
 0001:0001de70       __unwindfunclet$?setRoc@launchAccessor@@QAE_NABVQString@@H_N@Z$0 1001ee70 f   launchAccessor.obj
 0001:0001de79       __unwindfunclet$?setRoc@launchAccessor@@QAE_NABVQString@@H_N@Z$1 1001ee79 f   launchAccessor.obj
 0001:0001de82       __ehhandler$?setRoc@launchAccessor@@QAE_NABVQString@@H_N@Z 1001ee82 f   launchAccessor.obj
 0001:0001dea0       __unwindfunclet$??0?$QValueListNode@VlaunchItem@@@@QAE@XZ$1 1001eea0 f   panelsetsAccessor.obj
 0001:0001dea0       __unwindfunclet$??0?$QValueListNode@VpanelsetItem@@@@QAE@XZ$1 1001eea0 f   panelsetsAccessor.obj
 0001:0001dea9       __unwindfunclet$??0?$QValueListNode@VlaunchItem@@@@QAE@XZ$2 1001eea9 f   panelsetsAccessor.obj
 0001:0001dea9       __unwindfunclet$??0?$QValueListNode@VpanelsetItem@@@@QAE@XZ$2 1001eea9 f   panelsetsAccessor.obj
 0001:0001deb5       __unwindfunclet$??0?$QValueListNode@VpanelsetItem@@@@QAE@XZ$3 1001eeb5 f   panelsetsAccessor.obj
 0001:0001deb5       __unwindfunclet$??0?$QValueListNode@VlaunchItem@@@@QAE@XZ$3 1001eeb5 f   panelsetsAccessor.obj
 0001:0001dec1       __ehhandler$??0?$QValueListNode@VpanelsetItem@@@@QAE@XZ 1001eec1 f   panelsetsAccessor.obj
 0001:0001dec1       __ehhandler$??0?$QValueListNode@VlaunchItem@@@@QAE@XZ 1001eec1 f   panelsetsAccessor.obj
 0001:0001dee0       __unwindfunclet$??_FworkstationSettingsItem@@QAEXXZ$0 1001eee0 f   panelsetsAccessor.obj
 0001:0001dee0       __unwindfunclet$??0launchItem@@QAE@ABV0@@Z$0 1001eee0 f   panelsetsAccessor.obj
 0001:0001dee0       __unwindfunclet$??0panelsetItem@@QAE@ABV0@@Z$0 1001eee0 f   panelsetsAccessor.obj
 0001:0001dee9       __unwindfunclet$??0launchItem@@QAE@ABV0@@Z$1 1001eee9 f   panelsetsAccessor.obj
 0001:0001dee9       __unwindfunclet$??0panelsetItem@@QAE@ABV0@@Z$1 1001eee9 f   panelsetsAccessor.obj
 0001:0001dee9       __unwindfunclet$??_FworkstationSettingsItem@@QAEXXZ$1 1001eee9 f   panelsetsAccessor.obj
 0001:0001def5       __ehhandler$??_FworkstationSettingsItem@@QAEXXZ 1001eef5 f   panelsetsAccessor.obj
 0001:0001def5       __ehhandler$??0launchItem@@QAE@ABV0@@Z 1001eef5 f   panelsetsAccessor.obj
 0001:0001def5       __ehhandler$??0panelsetItem@@QAE@ABV0@@Z 1001eef5 f   panelsetsAccessor.obj
 0001:0001df10       __unwindfunclet$??1applicationsAccessor@@UAE@XZ$0 1001ef10 f   panelsetsAccessor.obj
 0001:0001df10       __unwindfunclet$??1workstationsAccessor@@UAE@XZ$0 1001ef10 f   panelsetsAccessor.obj
 0001:0001df10       __unwindfunclet$??1workstationSettingsAccessor@@UAE@XZ$0 1001ef10 f   panelsetsAccessor.obj
 0001:0001df10       __unwindfunclet$??1usersAccessor@@UAE@XZ$0 1001ef10 f   panelsetsAccessor.obj
 0001:0001df10       __unwindfunclet$??1launchAccessor@@UAE@XZ$0 1001ef10 f   panelsetsAccessor.obj
 0001:0001df10       __unwindfunclet$??1panelsetsAccessor@@UAE@XZ$0 1001ef10 f   panelsetsAccessor.obj
 0001:0001df19       __unwindfunclet$??1workstationsAccessor@@UAE@XZ$1 1001ef19 f   panelsetsAccessor.obj
 0001:0001df19       __unwindfunclet$??1applicationsAccessor@@UAE@XZ$1 1001ef19 f   panelsetsAccessor.obj
 0001:0001df19       __unwindfunclet$??1panelsetsAccessor@@UAE@XZ$1 1001ef19 f   panelsetsAccessor.obj
 0001:0001df19       __unwindfunclet$??1workstationSettingsAccessor@@UAE@XZ$1 1001ef19 f   panelsetsAccessor.obj
 0001:0001df19       __unwindfunclet$??1launchAccessor@@UAE@XZ$1 1001ef19 f   panelsetsAccessor.obj
 0001:0001df19       __unwindfunclet$??1usersAccessor@@UAE@XZ$1 1001ef19 f   panelsetsAccessor.obj
 0001:0001df25       __ehhandler$??1applicationsAccessor@@UAE@XZ 1001ef25 f   panelsetsAccessor.obj
 0001:0001df25       __ehhandler$??1workstationsAccessor@@UAE@XZ 1001ef25 f   panelsetsAccessor.obj
 0001:0001df25       __ehhandler$??1panelsetsAccessor@@UAE@XZ 1001ef25 f   panelsetsAccessor.obj
 0001:0001df25       __ehhandler$??1workstationSettingsAccessor@@UAE@XZ 1001ef25 f   panelsetsAccessor.obj
 0001:0001df25       __ehhandler$??1launchAccessor@@UAE@XZ 1001ef25 f   panelsetsAccessor.obj
 0001:0001df25       __ehhandler$??1usersAccessor@@UAE@XZ 1001ef25 f   panelsetsAccessor.obj
 0001:0001df40       __unwindfunclet$??_G?$QValueListNode@VpanelsetItem@@@@UAEPAXI@Z$1 1001ef40 f   panelsetsAccessor.obj
 0001:0001df40       __unwindfunclet$??_G?$QValueListNode@VlaunchItem@@@@UAEPAXI@Z$1 1001ef40 f   panelsetsAccessor.obj
 0001:0001df40       __unwindfunclet$??0workstationSettingsItem@@QAE@ABVQString@@0@Z$0 1001ef40 f   panelsetsAccessor.obj
 0001:0001df49       __unwindfunclet$??0workstationSettingsItem@@QAE@ABVQString@@0@Z$1 1001ef49 f   panelsetsAccessor.obj
 0001:0001df49       __unwindfunclet$??_G?$QValueListNode@VlaunchItem@@@@UAEPAXI@Z$2 1001ef49 f   panelsetsAccessor.obj
 0001:0001df49       __unwindfunclet$??_G?$QValueListNode@VpanelsetItem@@@@UAEPAXI@Z$2 1001ef49 f   panelsetsAccessor.obj
 0001:0001df55       __ehhandler$??_G?$QValueListNode@VlaunchItem@@@@UAEPAXI@Z 1001ef55 f   panelsetsAccessor.obj
 0001:0001df55       __ehhandler$??0workstationSettingsItem@@QAE@ABVQString@@0@Z 1001ef55 f   panelsetsAccessor.obj
 0001:0001df55       __ehhandler$??_G?$QValueListNode@VpanelsetItem@@@@UAEPAXI@Z 1001ef55 f   panelsetsAccessor.obj
 0001:0001df90       __unwindfunclet$?addPanelset@panelsetsAccessor@@QAE_NABVQString@@0ABV?$QValueList@VpanelsetItem@@@@@Z$0 1001ef90 f   panelsetsAccessor.obj
 0001:0001df98       __unwindfunclet$?addPanelset@panelsetsAccessor@@QAE_NABVQString@@0ABV?$QValueList@VpanelsetItem@@@@@Z$1 1001ef98 f   panelsetsAccessor.obj
 0001:0001dfa1       __unwindfunclet$?addPanelset@panelsetsAccessor@@QAE_NABVQString@@0ABV?$QValueList@VpanelsetItem@@@@@Z$2 1001efa1 f   panelsetsAccessor.obj
 0001:0001dfaa       __unwindfunclet$?addPanelset@panelsetsAccessor@@QAE_NABVQString@@0ABV?$QValueList@VpanelsetItem@@@@@Z$3 1001efaa f   panelsetsAccessor.obj
 0001:0001dfb3       __unwindfunclet$?addPanelset@panelsetsAccessor@@QAE_NABVQString@@0ABV?$QValueList@VpanelsetItem@@@@@Z$4 1001efb3 f   panelsetsAccessor.obj
 0001:0001dfbc       __unwindfunclet$?addPanelset@panelsetsAccessor@@QAE_NABVQString@@0ABV?$QValueList@VpanelsetItem@@@@@Z$5 1001efbc f   panelsetsAccessor.obj
 0001:0001dfc5       __unwindfunclet$?addPanelset@panelsetsAccessor@@QAE_NABVQString@@0ABV?$QValueList@VpanelsetItem@@@@@Z$6 1001efc5 f   panelsetsAccessor.obj
 0001:0001dfce       __unwindfunclet$?addPanelset@panelsetsAccessor@@QAE_NABVQString@@0ABV?$QValueList@VpanelsetItem@@@@@Z$7 1001efce f   panelsetsAccessor.obj
 0001:0001dfd7       __unwindfunclet$?addPanelset@panelsetsAccessor@@QAE_NABVQString@@0ABV?$QValueList@VpanelsetItem@@@@@Z$8 1001efd7 f   panelsetsAccessor.obj
 0001:0001dfe0       __unwindfunclet$?addPanelset@panelsetsAccessor@@QAE_NABVQString@@0ABV?$QValueList@VpanelsetItem@@@@@Z$9 1001efe0 f   panelsetsAccessor.obj
 0001:0001dfe9       __unwindfunclet$?addPanelset@panelsetsAccessor@@QAE_NABVQString@@0ABV?$QValueList@VpanelsetItem@@@@@Z$10 1001efe9 f   panelsetsAccessor.obj
 0001:0001dff2       __unwindfunclet$?addPanelset@panelsetsAccessor@@QAE_NABVQString@@0ABV?$QValueList@VpanelsetItem@@@@@Z$17 1001eff2 f   panelsetsAccessor.obj
 0001:0001dffd       __unwindfunclet$?addPanelset@panelsetsAccessor@@QAE_NABVQString@@0ABV?$QValueList@VpanelsetItem@@@@@Z$18 1001effd f   panelsetsAccessor.obj
 0001:0001e008       __unwindfunclet$?addPanelset@panelsetsAccessor@@QAE_NABVQString@@0ABV?$QValueList@VpanelsetItem@@@@@Z$11 1001f008 f   panelsetsAccessor.obj
 0001:0001e011       __unwindfunclet$?addPanelset@panelsetsAccessor@@QAE_NABVQString@@0ABV?$QValueList@VpanelsetItem@@@@@Z$12 1001f011 f   panelsetsAccessor.obj
 0001:0001e01a       __unwindfunclet$?addPanelset@panelsetsAccessor@@QAE_NABVQString@@0ABV?$QValueList@VpanelsetItem@@@@@Z$13 1001f01a f   panelsetsAccessor.obj
 0001:0001e023       __unwindfunclet$?addPanelset@panelsetsAccessor@@QAE_NABVQString@@0ABV?$QValueList@VpanelsetItem@@@@@Z$14 1001f023 f   panelsetsAccessor.obj
 0001:0001e02c       __ehhandler$?addPanelset@panelsetsAccessor@@QAE_NABVQString@@0ABV?$QValueList@VpanelsetItem@@@@@Z 1001f02c f   panelsetsAccessor.obj
 0001:0001e050       __unwindfunclet$?append@?$QValueList@VcomplexInstance@@@@QAE?AV?$QValueListIterator@VcomplexInstance@@@@ABVcomplexInstance@@@Z$0 1001f050 f   panelsetsAccessor.obj
 0001:0001e050       __unwindfunclet$?append@?$QValueList@VparamInfo@@@@QAE?AV?$QValueListIterator@VparamInfo@@@@ABVparamInfo@@@Z$0 1001f050 f   panelsetsAccessor.obj
 0001:0001e050       __unwindfunclet$?append@?$QValueList@VcomplexParam@@@@QAE?AV?$QValueListIterator@VcomplexParam@@@@ABVcomplexParam@@@Z$0 1001f050 f   panelsetsAccessor.obj
 0001:0001e050       __unwindfunclet$?append@?$QValueList@VpanelsetItem@@@@QAE?AV?$QValueListIterator@VpanelsetItem@@@@ABVpanelsetItem@@@Z$0 1001f050 f   panelsetsAccessor.obj
 0001:0001e050       __unwindfunclet$?append@?$QValueList@VworkstationSettingsItem@@@@QAE?AV?$QValueListIterator@VworkstationSettingsItem@@@@ABVworkstationSettingsItem@@@Z$0 1001f050 f   panelsetsAccessor.obj
 0001:0001e050       __unwindfunclet$?append@?$QValueList@VcomplexType@@@@QAE?AV?$QValueListIterator@VcomplexType@@@@ABVcomplexType@@@Z$0 1001f050 f   panelsetsAccessor.obj
 0001:0001e050       __unwindfunclet$?append@?$QValueList@VlaunchItem@@@@QAE?AV?$QValueListIterator@VlaunchItem@@@@ABVlaunchItem@@@Z$0 1001f050 f   panelsetsAccessor.obj
 0001:0001e050       __unwindfunclet$?append@?$QValueList@VdeviceTypeInfo@@@@QAE?AV?$QValueListIterator@VdeviceTypeInfo@@@@ABVdeviceTypeInfo@@@Z$0 1001f050 f   panelsetsAccessor.obj
 0001:0001e050       __unwindfunclet$?append@?$QValueList@VinstanceInfo@@@@QAE?AV?$QValueListIterator@VinstanceInfo@@@@ABVinstanceInfo@@@Z$0 1001f050 f   panelsetsAccessor.obj
 0001:0001e05b       __unwindfunclet$?append@?$QValueList@VparamInfo@@@@QAE?AV?$QValueListIterator@VparamInfo@@@@ABVparamInfo@@@Z$1 1001f05b f   panelsetsAccessor.obj
 0001:0001e05b       __unwindfunclet$?append@?$QValueList@VpanelsetItem@@@@QAE?AV?$QValueListIterator@VpanelsetItem@@@@ABVpanelsetItem@@@Z$1 1001f05b f   panelsetsAccessor.obj
 0001:0001e05b       __unwindfunclet$?append@?$QValueList@VworkstationSettingsItem@@@@QAE?AV?$QValueListIterator@VworkstationSettingsItem@@@@ABVworkstationSettingsItem@@@Z$1 1001f05b f   panelsetsAccessor.obj
 0001:0001e05b       __unwindfunclet$?append@?$QValueList@VcomplexParam@@@@QAE?AV?$QValueListIterator@VcomplexParam@@@@ABVcomplexParam@@@Z$1 1001f05b f   panelsetsAccessor.obj
 0001:0001e05b       __unwindfunclet$?append@?$QValueList@VinstanceInfo@@@@QAE?AV?$QValueListIterator@VinstanceInfo@@@@ABVinstanceInfo@@@Z$1 1001f05b f   panelsetsAccessor.obj
 0001:0001e05b       __unwindfunclet$?append@?$QValueList@VlaunchItem@@@@QAE?AV?$QValueListIterator@VlaunchItem@@@@ABVlaunchItem@@@Z$1 1001f05b f   panelsetsAccessor.obj
 0001:0001e05b       __unwindfunclet$?append@?$QValueList@VcomplexInstance@@@@QAE?AV?$QValueListIterator@VcomplexInstance@@@@ABVcomplexInstance@@@Z$1 1001f05b f   panelsetsAccessor.obj
 0001:0001e05b       __unwindfunclet$?append@?$QValueList@VcomplexType@@@@QAE?AV?$QValueListIterator@VcomplexType@@@@ABVcomplexType@@@Z$1 1001f05b f   panelsetsAccessor.obj
 0001:0001e05b       __unwindfunclet$?append@?$QValueList@VdeviceTypeInfo@@@@QAE?AV?$QValueListIterator@VdeviceTypeInfo@@@@ABVdeviceTypeInfo@@@Z$1 1001f05b f   panelsetsAccessor.obj
 0001:0001e066       __ehhandler$?append@?$QValueList@VinstanceInfo@@@@QAE?AV?$QValueListIterator@VinstanceInfo@@@@ABVinstanceInfo@@@Z 1001f066 f   panelsetsAccessor.obj
 0001:0001e066       __ehhandler$?append@?$QValueList@VcomplexInstance@@@@QAE?AV?$QValueListIterator@VcomplexInstance@@@@ABVcomplexInstance@@@Z 1001f066 f   panelsetsAccessor.obj
 0001:0001e066       __ehhandler$?append@?$QValueList@VdeviceTypeInfo@@@@QAE?AV?$QValueListIterator@VdeviceTypeInfo@@@@ABVdeviceTypeInfo@@@Z 1001f066 f   panelsetsAccessor.obj
 0001:0001e066       __ehhandler$?append@?$QValueList@VcomplexParam@@@@QAE?AV?$QValueListIterator@VcomplexParam@@@@ABVcomplexParam@@@Z 1001f066 f   panelsetsAccessor.obj
 0001:0001e066       __ehhandler$?append@?$QValueList@VworkstationSettingsItem@@@@QAE?AV?$QValueListIterator@VworkstationSettingsItem@@@@ABVworkstationSettingsItem@@@Z 1001f066 f   panelsetsAccessor.obj
 0001:0001e066       __ehhandler$?append@?$QValueList@VcomplexType@@@@QAE?AV?$QValueListIterator@VcomplexType@@@@ABVcomplexType@@@Z 1001f066 f   panelsetsAccessor.obj
 0001:0001e066       __ehhandler$?append@?$QValueList@VlaunchItem@@@@QAE?AV?$QValueListIterator@VlaunchItem@@@@ABVlaunchItem@@@Z 1001f066 f   panelsetsAccessor.obj
 0001:0001e066       __ehhandler$?append@?$QValueList@VpanelsetItem@@@@QAE?AV?$QValueListIterator@VpanelsetItem@@@@ABVpanelsetItem@@@Z 1001f066 f   panelsetsAccessor.obj
 0001:0001e066       __ehhandler$?append@?$QValueList@VparamInfo@@@@QAE?AV?$QValueListIterator@VparamInfo@@@@ABVparamInfo@@@Z 1001f066 f   panelsetsAccessor.obj
 0001:0001e090       __unwindfunclet$?deleteItem@panelsetsAccessor@@QAE_NABVQString@@ABVpanelsetItem@@H@Z$0 1001f090 f   panelsetsAccessor.obj
 0001:0001e099       __unwindfunclet$?deleteItem@panelsetsAccessor@@QAE_NABVQString@@ABVpanelsetItem@@H@Z$1 1001f099 f   panelsetsAccessor.obj
 0001:0001e0a2       __unwindfunclet$?deleteItem@panelsetsAccessor@@QAE_NABVQString@@ABVpanelsetItem@@H@Z$2 1001f0a2 f   panelsetsAccessor.obj
 0001:0001e0ab       __unwindfunclet$?deleteItem@panelsetsAccessor@@QAE_NABVQString@@ABVpanelsetItem@@H@Z$3 1001f0ab f   panelsetsAccessor.obj
 0001:0001e0b4       __unwindfunclet$?deleteItem@panelsetsAccessor@@QAE_NABVQString@@ABVpanelsetItem@@H@Z$4 1001f0b4 f   panelsetsAccessor.obj
 0001:0001e0bd       __unwindfunclet$?deleteItem@panelsetsAccessor@@QAE_NABVQString@@ABVpanelsetItem@@H@Z$5 1001f0bd f   panelsetsAccessor.obj
 0001:0001e0c6       __unwindfunclet$?deleteItem@panelsetsAccessor@@QAE_NABVQString@@ABVpanelsetItem@@H@Z$6 1001f0c6 f   panelsetsAccessor.obj
 0001:0001e0cf       __unwindfunclet$?deleteItem@panelsetsAccessor@@QAE_NABVQString@@ABVpanelsetItem@@H@Z$7 1001f0cf f   panelsetsAccessor.obj
 0001:0001e0d8       __unwindfunclet$?deleteItem@panelsetsAccessor@@QAE_NABVQString@@ABVpanelsetItem@@H@Z$8 1001f0d8 f   panelsetsAccessor.obj
 0001:0001e0e1       __unwindfunclet$?deleteItem@panelsetsAccessor@@QAE_NABVQString@@ABVpanelsetItem@@H@Z$9 1001f0e1 f   panelsetsAccessor.obj
 0001:0001e0fb       __unwindfunclet$?deleteItem@panelsetsAccessor@@QAE_NABVQString@@ABVpanelsetItem@@H@Z$10 1001f0fb f   panelsetsAccessor.obj
 0001:0001e115       __unwindfunclet$?deleteItem@panelsetsAccessor@@QAE_NABVQString@@ABVpanelsetItem@@H@Z$11 1001f115 f   panelsetsAccessor.obj
 0001:0001e12f       __unwindfunclet$?deleteItem@panelsetsAccessor@@QAE_NABVQString@@ABVpanelsetItem@@H@Z$13 1001f12f f   panelsetsAccessor.obj
 0001:0001e138       __unwindfunclet$?deleteItem@panelsetsAccessor@@QAE_NABVQString@@ABVpanelsetItem@@H@Z$14 1001f138 f   panelsetsAccessor.obj
 0001:0001e141       __ehhandler$?deleteItem@panelsetsAccessor@@QAE_NABVQString@@ABVpanelsetItem@@H@Z 1001f141 f   panelsetsAccessor.obj
 0001:0001e160       __unwindfunclet$?deletePanelset@panelsetsAccessor@@QAE_NABVQString@@@Z$0 1001f160 f   panelsetsAccessor.obj
 0001:0001e169       __unwindfunclet$?deletePanelset@panelsetsAccessor@@QAE_NABVQString@@@Z$1 1001f169 f   panelsetsAccessor.obj
 0001:0001e172       __unwindfunclet$?deletePanelset@panelsetsAccessor@@QAE_NABVQString@@@Z$2 1001f172 f   panelsetsAccessor.obj
 0001:0001e17b       __unwindfunclet$?deletePanelset@panelsetsAccessor@@QAE_NABVQString@@@Z$3 1001f17b f   panelsetsAccessor.obj
 0001:0001e184       __unwindfunclet$?deletePanelset@panelsetsAccessor@@QAE_NABVQString@@@Z$4 1001f184 f   panelsetsAccessor.obj
 0001:0001e18d       __unwindfunclet$?deletePanelset@panelsetsAccessor@@QAE_NABVQString@@@Z$19 1001f18d f   panelsetsAccessor.obj
 0001:0001e196       __unwindfunclet$?deletePanelset@panelsetsAccessor@@QAE_NABVQString@@@Z$5 1001f196 f   panelsetsAccessor.obj
 0001:0001e19e       __unwindfunclet$?deletePanelset@panelsetsAccessor@@QAE_NABVQString@@@Z$6 1001f19e f   panelsetsAccessor.obj
 0001:0001e1a7       __unwindfunclet$?deletePanelset@panelsetsAccessor@@QAE_NABVQString@@@Z$7 1001f1a7 f   panelsetsAccessor.obj
 0001:0001e1b0       __unwindfunclet$?deletePanelset@panelsetsAccessor@@QAE_NABVQString@@@Z$8 1001f1b0 f   panelsetsAccessor.obj
 0001:0001e1b9       __unwindfunclet$?deletePanelset@panelsetsAccessor@@QAE_NABVQString@@@Z$9 1001f1b9 f   panelsetsAccessor.obj
 0001:0001e1c2       __unwindfunclet$?deletePanelset@panelsetsAccessor@@QAE_NABVQString@@@Z$10 1001f1c2 f   panelsetsAccessor.obj
 0001:0001e1cb       __unwindfunclet$?deletePanelset@panelsetsAccessor@@QAE_NABVQString@@@Z$11 1001f1cb f   panelsetsAccessor.obj
 0001:0001e1d4       __unwindfunclet$?deletePanelset@panelsetsAccessor@@QAE_NABVQString@@@Z$12 1001f1d4 f   panelsetsAccessor.obj
 0001:0001e1dd       __unwindfunclet$?deletePanelset@panelsetsAccessor@@QAE_NABVQString@@@Z$13 1001f1dd f   panelsetsAccessor.obj
 0001:0001e1e6       __unwindfunclet$?deletePanelset@panelsetsAccessor@@QAE_NABVQString@@@Z$14 1001f1e6 f   panelsetsAccessor.obj
 0001:0001e1ef       __unwindfunclet$?deletePanelset@panelsetsAccessor@@QAE_NABVQString@@@Z$15 1001f1ef f   panelsetsAccessor.obj
 0001:0001e1f8       __unwindfunclet$?deletePanelset@panelsetsAccessor@@QAE_NABVQString@@@Z$20 1001f1f8 f   panelsetsAccessor.obj
 0001:0001e201       __unwindfunclet$?deletePanelset@panelsetsAccessor@@QAE_NABVQString@@@Z$21 1001f201 f   panelsetsAccessor.obj
 0001:0001e20a       __unwindfunclet$?deletePanelset@panelsetsAccessor@@QAE_NABVQString@@@Z$22 1001f20a f   panelsetsAccessor.obj
 0001:0001e213       __unwindfunclet$?deletePanelset@panelsetsAccessor@@QAE_NABVQString@@@Z$16 1001f213 f   panelsetsAccessor.obj
 0001:0001e21b       __unwindfunclet$?deletePanelset@panelsetsAccessor@@QAE_NABVQString@@@Z$23 1001f21b f   panelsetsAccessor.obj
 0001:0001e224       __unwindfunclet$?deletePanelset@panelsetsAccessor@@QAE_NABVQString@@@Z$24 1001f224 f   panelsetsAccessor.obj
 0001:0001e22d       __unwindfunclet$?deletePanelset@panelsetsAccessor@@QAE_NABVQString@@@Z$17 1001f22d f   panelsetsAccessor.obj
 0001:0001e236       __ehhandler$?deletePanelset@panelsetsAccessor@@QAE_NABVQString@@@Z 1001f236 f   panelsetsAccessor.obj
 0001:0001e260       __unwindfunclet$?demoteItem@panelsetsAccessor@@QAE_NABVQString@@ABVpanelsetItem@@H_N@Z$0 1001f260 f   panelsetsAccessor.obj
 0001:0001e269       __unwindfunclet$?demoteItem@panelsetsAccessor@@QAE_NABVQString@@ABVpanelsetItem@@H_N@Z$1 1001f269 f   panelsetsAccessor.obj
 0001:0001e272       __unwindfunclet$?demoteItem@panelsetsAccessor@@QAE_NABVQString@@ABVpanelsetItem@@H_N@Z$2 1001f272 f   panelsetsAccessor.obj
 0001:0001e27b       __unwindfunclet$?demoteItem@panelsetsAccessor@@QAE_NABVQString@@ABVpanelsetItem@@H_N@Z$3 1001f27b f   panelsetsAccessor.obj
 0001:0001e284       __unwindfunclet$?demoteItem@panelsetsAccessor@@QAE_NABVQString@@ABVpanelsetItem@@H_N@Z$4 1001f284 f   panelsetsAccessor.obj
 0001:0001e28d       __unwindfunclet$?demoteItem@panelsetsAccessor@@QAE_NABVQString@@ABVpanelsetItem@@H_N@Z$5 1001f28d f   panelsetsAccessor.obj
 0001:0001e296       __unwindfunclet$?demoteItem@panelsetsAccessor@@QAE_NABVQString@@ABVpanelsetItem@@H_N@Z$6 1001f296 f   panelsetsAccessor.obj
 0001:0001e29f       __unwindfunclet$?demoteItem@panelsetsAccessor@@QAE_NABVQString@@ABVpanelsetItem@@H_N@Z$7 1001f29f f   panelsetsAccessor.obj
 0001:0001e2a8       __unwindfunclet$?demoteItem@panelsetsAccessor@@QAE_NABVQString@@ABVpanelsetItem@@H_N@Z$8 1001f2a8 f   panelsetsAccessor.obj
 0001:0001e2b1       __unwindfunclet$?demoteItem@panelsetsAccessor@@QAE_NABVQString@@ABVpanelsetItem@@H_N@Z$9 1001f2b1 f   panelsetsAccessor.obj
 0001:0001e2cb       __unwindfunclet$?demoteItem@panelsetsAccessor@@QAE_NABVQString@@ABVpanelsetItem@@H_N@Z$10 1001f2cb f   panelsetsAccessor.obj
 0001:0001e2e5       __unwindfunclet$?demoteItem@panelsetsAccessor@@QAE_NABVQString@@ABVpanelsetItem@@H_N@Z$11 1001f2e5 f   panelsetsAccessor.obj
 0001:0001e2ff       __unwindfunclet$?demoteItem@panelsetsAccessor@@QAE_NABVQString@@ABVpanelsetItem@@H_N@Z$16 1001f2ff f   panelsetsAccessor.obj
 0001:0001e308       __unwindfunclet$?demoteItem@panelsetsAccessor@@QAE_NABVQString@@ABVpanelsetItem@@H_N@Z$17 1001f308 f   panelsetsAccessor.obj
 0001:0001e311       __unwindfunclet$?demoteItem@panelsetsAccessor@@QAE_NABVQString@@ABVpanelsetItem@@H_N@Z$12 1001f311 f   panelsetsAccessor.obj
 0001:0001e31a       __unwindfunclet$?demoteItem@panelsetsAccessor@@QAE_NABVQString@@ABVpanelsetItem@@H_N@Z$14 1001f31a f   panelsetsAccessor.obj
 0001:0001e323       __ehhandler$?demoteItem@panelsetsAccessor@@QAE_NABVQString@@ABVpanelsetItem@@H_N@Z 1001f323 f   panelsetsAccessor.obj
 0001:0001e340       __unwindfunclet$?insertItem@panelsetsAccessor@@QAE_NABVQString@@ABVpanelsetItem@@H@Z$0 1001f340 f   panelsetsAccessor.obj
 0001:0001e349       __unwindfunclet$?insertItem@panelsetsAccessor@@QAE_NABVQString@@ABVpanelsetItem@@H@Z$1 1001f349 f   panelsetsAccessor.obj
 0001:0001e352       __unwindfunclet$?insertItem@panelsetsAccessor@@QAE_NABVQString@@ABVpanelsetItem@@H@Z$2 1001f352 f   panelsetsAccessor.obj
 0001:0001e35b       __unwindfunclet$?insertItem@panelsetsAccessor@@QAE_NABVQString@@ABVpanelsetItem@@H@Z$3 1001f35b f   panelsetsAccessor.obj
 0001:0001e364       __unwindfunclet$?insertItem@panelsetsAccessor@@QAE_NABVQString@@ABVpanelsetItem@@H@Z$4 1001f364 f   panelsetsAccessor.obj
 0001:0001e36d       __unwindfunclet$?insertItem@panelsetsAccessor@@QAE_NABVQString@@ABVpanelsetItem@@H@Z$15 1001f36d f   panelsetsAccessor.obj
 0001:0001e376       __unwindfunclet$?insertItem@panelsetsAccessor@@QAE_NABVQString@@ABVpanelsetItem@@H@Z$5 1001f376 f   panelsetsAccessor.obj
 0001:0001e37f       __unwindfunclet$?insertItem@panelsetsAccessor@@QAE_NABVQString@@ABVpanelsetItem@@H@Z$6 1001f37f f   panelsetsAccessor.obj
 0001:0001e388       __unwindfunclet$?insertItem@panelsetsAccessor@@QAE_NABVQString@@ABVpanelsetItem@@H@Z$7 1001f388 f   panelsetsAccessor.obj
 0001:0001e391       __unwindfunclet$?insertItem@panelsetsAccessor@@QAE_NABVQString@@ABVpanelsetItem@@H@Z$8 1001f391 f   panelsetsAccessor.obj
 0001:0001e39a       __unwindfunclet$?insertItem@panelsetsAccessor@@QAE_NABVQString@@ABVpanelsetItem@@H@Z$9 1001f39a f   panelsetsAccessor.obj
 0001:0001e3a3       __unwindfunclet$?insertItem@panelsetsAccessor@@QAE_NABVQString@@ABVpanelsetItem@@H@Z$11 1001f3a3 f   panelsetsAccessor.obj
 0001:0001e3ac       __unwindfunclet$?insertItem@panelsetsAccessor@@QAE_NABVQString@@ABVpanelsetItem@@H@Z$13 1001f3ac f   panelsetsAccessor.obj
 0001:0001e3b5       __ehhandler$?insertItem@panelsetsAccessor@@QAE_NABVQString@@ABVpanelsetItem@@H@Z 1001f3b5 f   panelsetsAccessor.obj
 0001:0001e3d0       __unwindfunclet$?item@panelsetsAccessor@@QAE_NABVQString@@AAV2@AAV?$QValueList@VpanelsetItem@@@@AAH@Z$0 1001f3d0 f   panelsetsAccessor.obj
 0001:0001e3d9       __unwindfunclet$?item@panelsetsAccessor@@QAE_NABVQString@@AAV2@AAV?$QValueList@VpanelsetItem@@@@AAH@Z$1 1001f3d9 f   panelsetsAccessor.obj
 0001:0001e3e2       __unwindfunclet$?item@panelsetsAccessor@@QAE_NABVQString@@AAV2@AAV?$QValueList@VpanelsetItem@@@@AAH@Z$2 1001f3e2 f   panelsetsAccessor.obj
 0001:0001e3eb       __unwindfunclet$?item@panelsetsAccessor@@QAE_NABVQString@@AAV2@AAV?$QValueList@VpanelsetItem@@@@AAH@Z$3 1001f3eb f   panelsetsAccessor.obj
 0001:0001e3f4       __unwindfunclet$?item@panelsetsAccessor@@QAE_NABVQString@@AAV2@AAV?$QValueList@VpanelsetItem@@@@AAH@Z$4 1001f3f4 f   panelsetsAccessor.obj
 0001:0001e3fd       __unwindfunclet$?item@panelsetsAccessor@@QAE_NABVQString@@AAV2@AAV?$QValueList@VpanelsetItem@@@@AAH@Z$17 1001f3fd f   panelsetsAccessor.obj
 0001:0001e406       __unwindfunclet$?item@panelsetsAccessor@@QAE_NABVQString@@AAV2@AAV?$QValueList@VpanelsetItem@@@@AAH@Z$5 1001f406 f   panelsetsAccessor.obj
 0001:0001e40f       __unwindfunclet$?item@panelsetsAccessor@@QAE_NABVQString@@AAV2@AAV?$QValueList@VpanelsetItem@@@@AAH@Z$6 1001f40f f   panelsetsAccessor.obj
 0001:0001e418       __unwindfunclet$?item@panelsetsAccessor@@QAE_NABVQString@@AAV2@AAV?$QValueList@VpanelsetItem@@@@AAH@Z$7 1001f418 f   panelsetsAccessor.obj
 0001:0001e421       __unwindfunclet$?item@panelsetsAccessor@@QAE_NABVQString@@AAV2@AAV?$QValueList@VpanelsetItem@@@@AAH@Z$8 1001f421 f   panelsetsAccessor.obj
 0001:0001e42a       __unwindfunclet$?item@panelsetsAccessor@@QAE_NABVQString@@AAV2@AAV?$QValueList@VpanelsetItem@@@@AAH@Z$9 1001f42a f   panelsetsAccessor.obj
 0001:0001e433       __unwindfunclet$?item@panelsetsAccessor@@QAE_NABVQString@@AAV2@AAV?$QValueList@VpanelsetItem@@@@AAH@Z$10 1001f433 f   panelsetsAccessor.obj
 0001:0001e43c       __unwindfunclet$?item@panelsetsAccessor@@QAE_NABVQString@@AAV2@AAV?$QValueList@VpanelsetItem@@@@AAH@Z$11 1001f43c f   panelsetsAccessor.obj
 0001:0001e445       __unwindfunclet$?item@panelsetsAccessor@@QAE_NABVQString@@AAV2@AAV?$QValueList@VpanelsetItem@@@@AAH@Z$12 1001f445 f   panelsetsAccessor.obj
 0001:0001e44e       __unwindfunclet$?item@panelsetsAccessor@@QAE_NABVQString@@AAV2@AAV?$QValueList@VpanelsetItem@@@@AAH@Z$13 1001f44e f   panelsetsAccessor.obj
 0001:0001e457       __unwindfunclet$?item@panelsetsAccessor@@QAE_NABVQString@@AAV2@AAV?$QValueList@VpanelsetItem@@@@AAH@Z$14 1001f457 f   panelsetsAccessor.obj
 0001:0001e460       __unwindfunclet$?item@panelsetsAccessor@@QAE_NABVQString@@AAV2@AAV?$QValueList@VpanelsetItem@@@@AAH@Z$18 1001f460 f   panelsetsAccessor.obj
 0001:0001e469       __unwindfunclet$?item@panelsetsAccessor@@QAE_NABVQString@@AAV2@AAV?$QValueList@VpanelsetItem@@@@AAH@Z$19 1001f469 f   panelsetsAccessor.obj
 0001:0001e472       __unwindfunclet$?item@panelsetsAccessor@@QAE_NABVQString@@AAV2@AAV?$QValueList@VpanelsetItem@@@@AAH@Z$20 1001f472 f   panelsetsAccessor.obj
 0001:0001e47b       __unwindfunclet$?item@panelsetsAccessor@@QAE_NABVQString@@AAV2@AAV?$QValueList@VpanelsetItem@@@@AAH@Z$15 1001f47b f   panelsetsAccessor.obj
 0001:0001e483       __unwindfunclet$?item@panelsetsAccessor@@QAE_NABVQString@@AAV2@AAV?$QValueList@VpanelsetItem@@@@AAH@Z$21 1001f483 f   panelsetsAccessor.obj
 0001:0001e48c       __unwindfunclet$?item@panelsetsAccessor@@QAE_NABVQString@@AAV2@AAV?$QValueList@VpanelsetItem@@@@AAH@Z$22 1001f48c f   panelsetsAccessor.obj
 0001:0001e495       __unwindfunclet$?item@panelsetsAccessor@@QAE_NABVQString@@AAV2@AAV?$QValueList@VpanelsetItem@@@@AAH@Z$16 1001f495 f   panelsetsAccessor.obj
 0001:0001e49e       __ehhandler$?item@panelsetsAccessor@@QAE_NABVQString@@AAV2@AAV?$QValueList@VpanelsetItem@@@@AAH@Z 1001f49e f   panelsetsAccessor.obj
 0001:0001e4c0       __unwindfunclet$?itemPos@panelsetsAccessor@@QAEHABVQString@@ABVpanelsetItem@@@Z$0 1001f4c0 f   panelsetsAccessor.obj
 0001:0001e4c9       __unwindfunclet$?itemPos@panelsetsAccessor@@QAEHABVQString@@ABVpanelsetItem@@@Z$1 1001f4c9 f   panelsetsAccessor.obj
 0001:0001e4d2       __unwindfunclet$?itemPos@panelsetsAccessor@@QAEHABVQString@@ABVpanelsetItem@@@Z$2 1001f4d2 f   panelsetsAccessor.obj
 0001:0001e4db       __unwindfunclet$?itemPos@panelsetsAccessor@@QAEHABVQString@@ABVpanelsetItem@@@Z$3 1001f4db f   panelsetsAccessor.obj
 0001:0001e4e4       __unwindfunclet$?itemPos@panelsetsAccessor@@QAEHABVQString@@ABVpanelsetItem@@@Z$4 1001f4e4 f   panelsetsAccessor.obj
 0001:0001e4ed       __unwindfunclet$?itemPos@panelsetsAccessor@@QAEHABVQString@@ABVpanelsetItem@@@Z$5 1001f4ed f   panelsetsAccessor.obj
 0001:0001e4f6       __unwindfunclet$?itemPos@panelsetsAccessor@@QAEHABVQString@@ABVpanelsetItem@@@Z$6 1001f4f6 f   panelsetsAccessor.obj
 0001:0001e4ff       __unwindfunclet$?itemPos@panelsetsAccessor@@QAEHABVQString@@ABVpanelsetItem@@@Z$7 1001f4ff f   panelsetsAccessor.obj
 0001:0001e519       __unwindfunclet$?itemPos@panelsetsAccessor@@QAEHABVQString@@ABVpanelsetItem@@@Z$8 1001f519 f   panelsetsAccessor.obj
 0001:0001e533       __unwindfunclet$?itemPos@panelsetsAccessor@@QAEHABVQString@@ABVpanelsetItem@@@Z$9 1001f533 f   panelsetsAccessor.obj
 0001:0001e54d       __unwindfunclet$?itemPos@panelsetsAccessor@@QAEHABVQString@@ABVpanelsetItem@@@Z$10 1001f54d f   panelsetsAccessor.obj
 0001:0001e567       __unwindfunclet$?itemPos@panelsetsAccessor@@QAEHABVQString@@ABVpanelsetItem@@@Z$11 1001f567 f   panelsetsAccessor.obj
 0001:0001e570       __unwindfunclet$?itemPos@panelsetsAccessor@@QAEHABVQString@@ABVpanelsetItem@@@Z$12 1001f570 f   panelsetsAccessor.obj
 0001:0001e579       __ehhandler$?itemPos@panelsetsAccessor@@QAEHABVQString@@ABVpanelsetItem@@@Z 1001f579 f   panelsetsAccessor.obj
 0001:0001e5a0       __unwindfunclet$?load@workstationSettingsAccessor@@SAPAV1@XZ$0 1001f5a0 f   panelsetsAccessor.obj
 0001:0001e5a0       __unwindfunclet$?load@applicationsAccessor@@SAPAV1@XZ$0 1001f5a0 f   panelsetsAccessor.obj
 0001:0001e5a0       __unwindfunclet$?load@usersAccessor@@SAPAV1@XZ$0 1001f5a0 f   panelsetsAccessor.obj
 0001:0001e5a0       __unwindfunclet$?load@launchAccessor@@SAPAV1@XZ$0 1001f5a0 f   panelsetsAccessor.obj
 0001:0001e5a0       __unwindfunclet$?load@panelsetsAccessor@@SAPAV1@XZ$0 1001f5a0 f   panelsetsAccessor.obj
 0001:0001e5a0       __unwindfunclet$?load@workstationsAccessor@@SAPAV1@XZ$0 1001f5a0 f   panelsetsAccessor.obj
 0001:0001e5ab       __ehhandler$?load@panelsetsAccessor@@SAPAV1@XZ 1001f5ab f   panelsetsAccessor.obj
 0001:0001e5ab       __ehhandler$?load@workstationSettingsAccessor@@SAPAV1@XZ 1001f5ab f   panelsetsAccessor.obj
 0001:0001e5ab       __ehhandler$?load@workstationsAccessor@@SAPAV1@XZ 1001f5ab f   panelsetsAccessor.obj
 0001:0001e5ab       __ehhandler$?load@applicationsAccessor@@SAPAV1@XZ 1001f5ab f   panelsetsAccessor.obj
 0001:0001e5ab       __ehhandler$?load@launchAccessor@@SAPAV1@XZ 1001f5ab f   panelsetsAccessor.obj
 0001:0001e5ab       __ehhandler$?load@usersAccessor@@SAPAV1@XZ 1001f5ab f   panelsetsAccessor.obj
 0001:0001e5d0       __unwindfunclet$?nextItem@panelsetsAccessor@@QAE_NAAVQString@@0AAV?$QValueList@VpanelsetItem@@@@@Z$0 1001f5d0 f   panelsetsAccessor.obj
 0001:0001e5d9       __unwindfunclet$?nextItem@panelsetsAccessor@@QAE_NAAVQString@@0AAV?$QValueList@VpanelsetItem@@@@@Z$1 1001f5d9 f   panelsetsAccessor.obj
 0001:0001e5e2       __unwindfunclet$?nextItem@panelsetsAccessor@@QAE_NAAVQString@@0AAV?$QValueList@VpanelsetItem@@@@@Z$2 1001f5e2 f   panelsetsAccessor.obj
 0001:0001e5eb       __unwindfunclet$?nextItem@panelsetsAccessor@@QAE_NAAVQString@@0AAV?$QValueList@VpanelsetItem@@@@@Z$3 1001f5eb f   panelsetsAccessor.obj
 0001:0001e5f4       __unwindfunclet$?nextItem@panelsetsAccessor@@QAE_NAAVQString@@0AAV?$QValueList@VpanelsetItem@@@@@Z$4 1001f5f4 f   panelsetsAccessor.obj
 0001:0001e5fd       __unwindfunclet$?nextItem@panelsetsAccessor@@QAE_NAAVQString@@0AAV?$QValueList@VpanelsetItem@@@@@Z$5 1001f5fd f   panelsetsAccessor.obj
 0001:0001e606       __unwindfunclet$?nextItem@panelsetsAccessor@@QAE_NAAVQString@@0AAV?$QValueList@VpanelsetItem@@@@@Z$6 1001f606 f   panelsetsAccessor.obj
 0001:0001e60f       __unwindfunclet$?nextItem@panelsetsAccessor@@QAE_NAAVQString@@0AAV?$QValueList@VpanelsetItem@@@@@Z$7 1001f60f f   panelsetsAccessor.obj
 0001:0001e618       __unwindfunclet$?nextItem@panelsetsAccessor@@QAE_NAAVQString@@0AAV?$QValueList@VpanelsetItem@@@@@Z$8 1001f618 f   panelsetsAccessor.obj
 0001:0001e621       __unwindfunclet$?nextItem@panelsetsAccessor@@QAE_NAAVQString@@0AAV?$QValueList@VpanelsetItem@@@@@Z$9 1001f621 f   panelsetsAccessor.obj
 0001:0001e62a       __unwindfunclet$?nextItem@panelsetsAccessor@@QAE_NAAVQString@@0AAV?$QValueList@VpanelsetItem@@@@@Z$10 1001f62a f   panelsetsAccessor.obj
 0001:0001e633       __unwindfunclet$?nextItem@panelsetsAccessor@@QAE_NAAVQString@@0AAV?$QValueList@VpanelsetItem@@@@@Z$11 1001f633 f   panelsetsAccessor.obj
 0001:0001e63c       __unwindfunclet$?nextItem@panelsetsAccessor@@QAE_NAAVQString@@0AAV?$QValueList@VpanelsetItem@@@@@Z$12 1001f63c f   panelsetsAccessor.obj
 0001:0001e645       __unwindfunclet$?nextItem@panelsetsAccessor@@QAE_NAAVQString@@0AAV?$QValueList@VpanelsetItem@@@@@Z$16 1001f645 f   panelsetsAccessor.obj
 0001:0001e64e       __unwindfunclet$?nextItem@panelsetsAccessor@@QAE_NAAVQString@@0AAV?$QValueList@VpanelsetItem@@@@@Z$17 1001f64e f   panelsetsAccessor.obj
 0001:0001e657       __unwindfunclet$?nextItem@panelsetsAccessor@@QAE_NAAVQString@@0AAV?$QValueList@VpanelsetItem@@@@@Z$18 1001f657 f   panelsetsAccessor.obj
 0001:0001e660       __unwindfunclet$?nextItem@panelsetsAccessor@@QAE_NAAVQString@@0AAV?$QValueList@VpanelsetItem@@@@@Z$13 1001f660 f   panelsetsAccessor.obj
 0001:0001e668       __unwindfunclet$?nextItem@panelsetsAccessor@@QAE_NAAVQString@@0AAV?$QValueList@VpanelsetItem@@@@@Z$19 1001f668 f   panelsetsAccessor.obj
 0001:0001e671       __unwindfunclet$?nextItem@panelsetsAccessor@@QAE_NAAVQString@@0AAV?$QValueList@VpanelsetItem@@@@@Z$20 1001f671 f   panelsetsAccessor.obj
 0001:0001e67a       __unwindfunclet$?nextItem@panelsetsAccessor@@QAE_NAAVQString@@0AAV?$QValueList@VpanelsetItem@@@@@Z$14 1001f67a f   panelsetsAccessor.obj
 0001:0001e683       __unwindfunclet$?nextItem@panelsetsAccessor@@QAE_NAAVQString@@0AAV?$QValueList@VpanelsetItem@@@@@Z$15 1001f683 f   panelsetsAccessor.obj
 0001:0001e68c       __ehhandler$?nextItem@panelsetsAccessor@@QAE_NAAVQString@@0AAV?$QValueList@VpanelsetItem@@@@@Z 1001f68c f   panelsetsAccessor.obj
 0001:0001e6b0       __unwindfunclet$?renameWorkstation@workstationSettingsAccessor@@QAE_NABVQString@@0@Z$0 1001f6b0 f   panelsetsAccessor.obj
 0001:0001e6b0       __unwindfunclet$?renamePanelset@panelsetsAccessor@@QAE_NABVQString@@0@Z$0 1001f6b0 f   panelsetsAccessor.obj
 0001:0001e6b0       __unwindfunclet$?renamelaunch@launchAccessor@@QAE_NABVQString@@0@Z$0 1001f6b0 f   panelsetsAccessor.obj
 0001:0001e6b9       __unwindfunclet$?renamePanelset@panelsetsAccessor@@QAE_NABVQString@@0@Z$1 1001f6b9 f   panelsetsAccessor.obj
 0001:0001e6b9       __unwindfunclet$?renameWorkstation@workstationSettingsAccessor@@QAE_NABVQString@@0@Z$1 1001f6b9 f   panelsetsAccessor.obj
 0001:0001e6b9       __unwindfunclet$?renamelaunch@launchAccessor@@QAE_NABVQString@@0@Z$1 1001f6b9 f   panelsetsAccessor.obj
 0001:0001e6c2       __unwindfunclet$?renameWorkstation@workstationSettingsAccessor@@QAE_NABVQString@@0@Z$2 1001f6c2 f   panelsetsAccessor.obj
 0001:0001e6c2       __unwindfunclet$?renamelaunch@launchAccessor@@QAE_NABVQString@@0@Z$2 1001f6c2 f   panelsetsAccessor.obj
 0001:0001e6c2       __unwindfunclet$?renamePanelset@panelsetsAccessor@@QAE_NABVQString@@0@Z$2 1001f6c2 f   panelsetsAccessor.obj
 0001:0001e6cb       __unwindfunclet$?renamePanelset@panelsetsAccessor@@QAE_NABVQString@@0@Z$3 1001f6cb f   panelsetsAccessor.obj
 0001:0001e6cb       __unwindfunclet$?renameWorkstation@workstationSettingsAccessor@@QAE_NABVQString@@0@Z$3 1001f6cb f   panelsetsAccessor.obj
 0001:0001e6cb       __unwindfunclet$?renamelaunch@launchAccessor@@QAE_NABVQString@@0@Z$3 1001f6cb f   panelsetsAccessor.obj
 0001:0001e6d4       __unwindfunclet$?renamelaunch@launchAccessor@@QAE_NABVQString@@0@Z$4 1001f6d4 f   panelsetsAccessor.obj
 0001:0001e6d4       __unwindfunclet$?renamePanelset@panelsetsAccessor@@QAE_NABVQString@@0@Z$4 1001f6d4 f   panelsetsAccessor.obj
 0001:0001e6d4       __unwindfunclet$?renameWorkstation@workstationSettingsAccessor@@QAE_NABVQString@@0@Z$4 1001f6d4 f   panelsetsAccessor.obj
 0001:0001e6dd       __unwindfunclet$?renameWorkstation@workstationSettingsAccessor@@QAE_NABVQString@@0@Z$6 1001f6dd f   panelsetsAccessor.obj
 0001:0001e6dd       __unwindfunclet$?renamePanelset@panelsetsAccessor@@QAE_NABVQString@@0@Z$6 1001f6dd f   panelsetsAccessor.obj
 0001:0001e6dd       __unwindfunclet$?renamelaunch@launchAccessor@@QAE_NABVQString@@0@Z$6 1001f6dd f   panelsetsAccessor.obj
 0001:0001e6e6       __unwindfunclet$?renamelaunch@launchAccessor@@QAE_NABVQString@@0@Z$5 1001f6e6 f   panelsetsAccessor.obj
 0001:0001e6e6       __unwindfunclet$?renameWorkstation@workstationSettingsAccessor@@QAE_NABVQString@@0@Z$5 1001f6e6 f   panelsetsAccessor.obj
 0001:0001e6e6       __unwindfunclet$?renamePanelset@panelsetsAccessor@@QAE_NABVQString@@0@Z$5 1001f6e6 f   panelsetsAccessor.obj
 0001:0001e6ef       __ehhandler$?renamelaunch@launchAccessor@@QAE_NABVQString@@0@Z 1001f6ef f   panelsetsAccessor.obj
 0001:0001e6ef       __ehhandler$?renamePanelset@panelsetsAccessor@@QAE_NABVQString@@0@Z 1001f6ef f   panelsetsAccessor.obj
 0001:0001e6ef       __ehhandler$?renameWorkstation@workstationSettingsAccessor@@QAE_NABVQString@@0@Z 1001f6ef f   panelsetsAccessor.obj
 0001:0001e710       __unwindfunclet$?nextItem@usersAccessor@@QAE_NAAVQString@@00@Z$0 1001f710 f   usersAccessor.obj
 0001:0001e710       __unwindfunclet$?nextItem@workstationsAccessor@@QAE_NAAVQString@@00@Z$0 1001f710 f   usersAccessor.obj
 0001:0001e719       __unwindfunclet$?nextItem@usersAccessor@@QAE_NAAVQString@@00@Z$1 1001f719 f   usersAccessor.obj
 0001:0001e719       __unwindfunclet$?nextItem@workstationsAccessor@@QAE_NAAVQString@@00@Z$1 1001f719 f   usersAccessor.obj
 0001:0001e722       __unwindfunclet$?nextItem@workstationsAccessor@@QAE_NAAVQString@@00@Z$2 1001f722 f   usersAccessor.obj
 0001:0001e722       __unwindfunclet$?nextItem@usersAccessor@@QAE_NAAVQString@@00@Z$2 1001f722 f   usersAccessor.obj
 0001:0001e72b       __unwindfunclet$?nextItem@workstationsAccessor@@QAE_NAAVQString@@00@Z$3 1001f72b f   usersAccessor.obj
 0001:0001e72b       __unwindfunclet$?nextItem@usersAccessor@@QAE_NAAVQString@@00@Z$3 1001f72b f   usersAccessor.obj
 0001:0001e734       __unwindfunclet$?nextItem@usersAccessor@@QAE_NAAVQString@@00@Z$4 1001f734 f   usersAccessor.obj
 0001:0001e734       __unwindfunclet$?nextItem@workstationsAccessor@@QAE_NAAVQString@@00@Z$4 1001f734 f   usersAccessor.obj
 0001:0001e73d       __unwindfunclet$?nextItem@usersAccessor@@QAE_NAAVQString@@00@Z$5 1001f73d f   usersAccessor.obj
 0001:0001e73d       __unwindfunclet$?nextItem@workstationsAccessor@@QAE_NAAVQString@@00@Z$5 1001f73d f   usersAccessor.obj
 0001:0001e746       __unwindfunclet$?nextItem@workstationsAccessor@@QAE_NAAVQString@@00@Z$6 1001f746 f   usersAccessor.obj
 0001:0001e746       __unwindfunclet$?nextItem@usersAccessor@@QAE_NAAVQString@@00@Z$6 1001f746 f   usersAccessor.obj
 0001:0001e74f       __unwindfunclet$?nextItem@workstationsAccessor@@QAE_NAAVQString@@00@Z$7 1001f74f f   usersAccessor.obj
 0001:0001e74f       __unwindfunclet$?nextItem@usersAccessor@@QAE_NAAVQString@@00@Z$7 1001f74f f   usersAccessor.obj
 0001:0001e758       __ehhandler$?nextItem@usersAccessor@@QAE_NAAVQString@@00@Z 1001f758 f   usersAccessor.obj
 0001:0001e758       __ehhandler$?nextItem@workstationsAccessor@@QAE_NAAVQString@@00@Z 1001f758 f   usersAccessor.obj
 0001:0001e780       __unwindfunclet$??0launchAccessor@@QAE@XZ$0 1001f780 f   workstationsAccessor.obj
 0001:0001e780       __unwindfunclet$??0workstationSettingsAccessor@@QAE@XZ$0 1001f780 f   workstationsAccessor.obj
 0001:0001e780       __unwindfunclet$??0workstationsAccessor@@QAE@XZ$0 1001f780 f   workstationsAccessor.obj
 0001:0001e780       __unwindfunclet$??0applicationsAccessor@@QAE@XZ$0 1001f780 f   workstationsAccessor.obj
 0001:0001e780       __unwindfunclet$??0panelsetsAccessor@@QAE@XZ$0 1001f780 f   workstationsAccessor.obj
 0001:0001e780       __unwindfunclet$??0usersAccessor@@QAE@XZ$0 1001f780 f   workstationsAccessor.obj
 0001:0001e789       __unwindfunclet$??0panelsetsAccessor@@QAE@XZ$1 1001f789 f   workstationsAccessor.obj
 0001:0001e789       __unwindfunclet$??0applicationsAccessor@@QAE@XZ$1 1001f789 f   workstationsAccessor.obj
 0001:0001e789       __unwindfunclet$??0launchAccessor@@QAE@XZ$1 1001f789 f   workstationsAccessor.obj
 0001:0001e789       __unwindfunclet$??0workstationSettingsAccessor@@QAE@XZ$1 1001f789 f   workstationsAccessor.obj
 0001:0001e789       __unwindfunclet$??0workstationsAccessor@@QAE@XZ$1 1001f789 f   workstationsAccessor.obj
 0001:0001e789       __unwindfunclet$??0usersAccessor@@QAE@XZ$1 1001f789 f   workstationsAccessor.obj
 0001:0001e795       __unwindfunclet$??0workstationSettingsAccessor@@QAE@XZ$2 1001f795 f   workstationsAccessor.obj
 0001:0001e795       __unwindfunclet$??0workstationsAccessor@@QAE@XZ$2 1001f795 f   workstationsAccessor.obj
 0001:0001e795       __unwindfunclet$??0applicationsAccessor@@QAE@XZ$2 1001f795 f   workstationsAccessor.obj
 0001:0001e795       __unwindfunclet$??0panelsetsAccessor@@QAE@XZ$2 1001f795 f   workstationsAccessor.obj
 0001:0001e795       __unwindfunclet$??0usersAccessor@@QAE@XZ$2 1001f795 f   workstationsAccessor.obj
 0001:0001e795       __unwindfunclet$??0launchAccessor@@QAE@XZ$2 1001f795 f   workstationsAccessor.obj
 0001:0001e79e       __unwindfunclet$??0panelsetsAccessor@@QAE@XZ$3 1001f79e f   workstationsAccessor.obj
 0001:0001e79e       __unwindfunclet$??0workstationsAccessor@@QAE@XZ$3 1001f79e f   workstationsAccessor.obj
 0001:0001e79e       __unwindfunclet$??0launchAccessor@@QAE@XZ$3 1001f79e f   workstationsAccessor.obj
 0001:0001e79e       __unwindfunclet$??0usersAccessor@@QAE@XZ$3 1001f79e f   workstationsAccessor.obj
 0001:0001e79e       __unwindfunclet$??0workstationSettingsAccessor@@QAE@XZ$3 1001f79e f   workstationsAccessor.obj
 0001:0001e79e       __unwindfunclet$??0applicationsAccessor@@QAE@XZ$3 1001f79e f   workstationsAccessor.obj
 0001:0001e7a9       __unwindfunclet$??0panelsetsAccessor@@QAE@XZ$4 1001f7a9 f   workstationsAccessor.obj
 0001:0001e7a9       __unwindfunclet$??0launchAccessor@@QAE@XZ$4 1001f7a9 f   workstationsAccessor.obj
 0001:0001e7a9       __unwindfunclet$??0workstationsAccessor@@QAE@XZ$4 1001f7a9 f   workstationsAccessor.obj
 0001:0001e7a9       __unwindfunclet$??0applicationsAccessor@@QAE@XZ$4 1001f7a9 f   workstationsAccessor.obj
 0001:0001e7a9       __unwindfunclet$??0workstationSettingsAccessor@@QAE@XZ$4 1001f7a9 f   workstationsAccessor.obj
 0001:0001e7a9       __unwindfunclet$??0usersAccessor@@QAE@XZ$4 1001f7a9 f   workstationsAccessor.obj
 0001:0001e7b2       __unwindfunclet$??0workstationSettingsAccessor@@QAE@XZ$5 1001f7b2 f   workstationsAccessor.obj
 0001:0001e7b2       __unwindfunclet$??0applicationsAccessor@@QAE@XZ$5 1001f7b2 f   workstationsAccessor.obj
 0001:0001e7b2       __unwindfunclet$??0panelsetsAccessor@@QAE@XZ$5 1001f7b2 f   workstationsAccessor.obj
 0001:0001e7b2       __unwindfunclet$??0launchAccessor@@QAE@XZ$5 1001f7b2 f   workstationsAccessor.obj
 0001:0001e7b2       __unwindfunclet$??0workstationsAccessor@@QAE@XZ$5 1001f7b2 f   workstationsAccessor.obj
 0001:0001e7b2       __unwindfunclet$??0usersAccessor@@QAE@XZ$5 1001f7b2 f   workstationsAccessor.obj
 0001:0001e7bb       __ehhandler$??0workstationSettingsAccessor@@QAE@XZ 1001f7bb f   workstationsAccessor.obj
 0001:0001e7bb       __ehhandler$??0panelsetsAccessor@@QAE@XZ 1001f7bb f   workstationsAccessor.obj
 0001:0001e7bb       __ehhandler$??0launchAccessor@@QAE@XZ 1001f7bb f   workstationsAccessor.obj
 0001:0001e7bb       __ehhandler$??0applicationsAccessor@@QAE@XZ 1001f7bb f   workstationsAccessor.obj
 0001:0001e7bb       __ehhandler$??0workstationsAccessor@@QAE@XZ 1001f7bb f   workstationsAccessor.obj
 0001:0001e7bb       __ehhandler$??0usersAccessor@@QAE@XZ 1001f7bb f   workstationsAccessor.obj
 0001:0001e7e0       __unwindfunclet$?addWorkstation@workstationsAccessor@@QAE_NABVQString@@00@Z$0 1001f7e0 f   workstationsAccessor.obj
 0001:0001e7e9       __unwindfunclet$?addWorkstation@workstationsAccessor@@QAE_NABVQString@@00@Z$1 1001f7e9 f   workstationsAccessor.obj
 0001:0001e7f2       __unwindfunclet$?addWorkstation@workstationsAccessor@@QAE_NABVQString@@00@Z$2 1001f7f2 f   workstationsAccessor.obj
 0001:0001e7fb       __unwindfunclet$?addWorkstation@workstationsAccessor@@QAE_NABVQString@@00@Z$3 1001f7fb f   workstationsAccessor.obj
 0001:0001e804       __unwindfunclet$?addWorkstation@workstationsAccessor@@QAE_NABVQString@@00@Z$4 1001f804 f   workstationsAccessor.obj
 0001:0001e80d       __unwindfunclet$?addWorkstation@workstationsAccessor@@QAE_NABVQString@@00@Z$5 1001f80d f   workstationsAccessor.obj
 0001:0001e816       __ehhandler$?addWorkstation@workstationsAccessor@@QAE_NABVQString@@00@Z 1001f816 f   workstationsAccessor.obj
 0001:0001e840       __unwindfunclet$?isDirty@launchAccessor@@QAE_NXZ$0 1001f840 f   workstationsAccessor.obj
 0001:0001e840       __unwindfunclet$?isDirty@usersAccessor@@QAE_NXZ$0 1001f840 f   workstationsAccessor.obj
 0001:0001e840       __unwindfunclet$?isDirty@applicationsAccessor@@QAE_NXZ$0 1001f840 f   workstationsAccessor.obj
 0001:0001e840       __unwindfunclet$?isDirty@workstationsAccessor@@QAE_NXZ$0 1001f840 f   workstationsAccessor.obj
 0001:0001e840       __unwindfunclet$?isDirty@panelsetsAccessor@@QAE_NXZ$0 1001f840 f   workstationsAccessor.obj
 0001:0001e840       __unwindfunclet$?isDirty@workstationSettingsAccessor@@QAE_NXZ$0 1001f840 f   workstationsAccessor.obj
 0001:0001e849       __ehhandler$?isDirty@workstationsAccessor@@QAE_NXZ 1001f849 f   workstationsAccessor.obj
 0001:0001e849       __ehhandler$?isDirty@panelsetsAccessor@@QAE_NXZ 1001f849 f   workstationsAccessor.obj
 0001:0001e849       __ehhandler$?isDirty@launchAccessor@@QAE_NXZ 1001f849 f   workstationsAccessor.obj
 0001:0001e849       __ehhandler$?isDirty@workstationSettingsAccessor@@QAE_NXZ 1001f849 f   workstationsAccessor.obj
 0001:0001e849       __ehhandler$?isDirty@applicationsAccessor@@QAE_NXZ 1001f849 f   workstationsAccessor.obj
 0001:0001e849       __ehhandler$?isDirty@usersAccessor@@QAE_NXZ 1001f849 f   workstationsAccessor.obj
 0001:0001e870       __unwindfunclet$?item@workstationsAccessor@@QAE_NABVQString@@AAV2@1@Z$0 1001f870 f   workstationsAccessor.obj
 0001:0001e879       __unwindfunclet$?item@workstationsAccessor@@QAE_NABVQString@@AAV2@1@Z$1 1001f879 f   workstationsAccessor.obj
 0001:0001e882       __unwindfunclet$?item@workstationsAccessor@@QAE_NABVQString@@AAV2@1@Z$2 1001f882 f   workstationsAccessor.obj
 0001:0001e88b       __unwindfunclet$?item@workstationsAccessor@@QAE_NABVQString@@AAV2@1@Z$3 1001f88b f   workstationsAccessor.obj
 0001:0001e894       __unwindfunclet$?item@workstationsAccessor@@QAE_NABVQString@@AAV2@1@Z$4 1001f894 f   workstationsAccessor.obj
 0001:0001e89d       __unwindfunclet$?item@workstationsAccessor@@QAE_NABVQString@@AAV2@1@Z$9 1001f89d f   workstationsAccessor.obj
 0001:0001e8a6       __unwindfunclet$?item@workstationsAccessor@@QAE_NABVQString@@AAV2@1@Z$5 1001f8a6 f   workstationsAccessor.obj
 0001:0001e8af       __unwindfunclet$?item@workstationsAccessor@@QAE_NABVQString@@AAV2@1@Z$6 1001f8af f   workstationsAccessor.obj
 0001:0001e8b8       __unwindfunclet$?item@workstationsAccessor@@QAE_NABVQString@@AAV2@1@Z$7 1001f8b8 f   workstationsAccessor.obj
 0001:0001e8c1       __unwindfunclet$?item@workstationsAccessor@@QAE_NABVQString@@AAV2@1@Z$8 1001f8c1 f   workstationsAccessor.obj
 0001:0001e8ca       __ehhandler$?item@workstationsAccessor@@QAE_NABVQString@@AAV2@1@Z 1001f8ca f   workstationsAccessor.obj
 0001:0001e8f0       __unwindfunclet$?rename@workstationsAccessor@@QAE_NABVQString@@V2@@Z$0 1001f8f0 f   workstationsAccessor.obj
 0001:0001e8f0       __unwindfunclet$?rename@applicationsAccessor@@QAE_NABVQString@@V2@@Z$0 1001f8f0 f   workstationsAccessor.obj
 0001:0001e8f9       __ehhandler$?rename@applicationsAccessor@@QAE_NABVQString@@V2@@Z 1001f8f9 f   workstationsAccessor.obj
 0001:0001e8f9       __ehhandler$?rename@workstationsAccessor@@QAE_NABVQString@@V2@@Z 1001f8f9 f   workstationsAccessor.obj
 0001:0001e920       __unwindfunclet$?setDirty@workstationsAccessor@@AAEXXZ$0 1001f920 f   workstationsAccessor.obj
 0001:0001e920       __unwindfunclet$?setDirty@panelsetsAccessor@@AAEXXZ$0 1001f920 f   workstationsAccessor.obj
 0001:0001e920       __unwindfunclet$?setDirty@usersAccessor@@AAEXXZ$0 1001f920 f   workstationsAccessor.obj
 0001:0001e920       __unwindfunclet$?setDirty@launchAccessor@@AAEXXZ$0 1001f920 f   workstationsAccessor.obj
 0001:0001e920       __unwindfunclet$?setDirty@workstationSettingsAccessor@@AAEXXZ$0 1001f920 f   workstationsAccessor.obj
 0001:0001e920       __unwindfunclet$?setDirty@applicationsAccessor@@AAEXXZ$0 1001f920 f   workstationsAccessor.obj
 0001:0001e929       __unwindfunclet$?setDirty@panelsetsAccessor@@AAEXXZ$1 1001f929 f   workstationsAccessor.obj
 0001:0001e929       __unwindfunclet$?setDirty@applicationsAccessor@@AAEXXZ$1 1001f929 f   workstationsAccessor.obj
 0001:0001e929       __unwindfunclet$?setDirty@workstationSettingsAccessor@@AAEXXZ$1 1001f929 f   workstationsAccessor.obj
 0001:0001e929       __unwindfunclet$?setDirty@launchAccessor@@AAEXXZ$1 1001f929 f   workstationsAccessor.obj
 0001:0001e929       __unwindfunclet$?setDirty@usersAccessor@@AAEXXZ$1 1001f929 f   workstationsAccessor.obj
 0001:0001e929       __unwindfunclet$?setDirty@workstationsAccessor@@AAEXXZ$1 1001f929 f   workstationsAccessor.obj
 0001:0001e932       __unwindfunclet$?setDirty@launchAccessor@@AAEXXZ$2 1001f932 f   workstationsAccessor.obj
 0001:0001e932       __unwindfunclet$?setDirty@workstationSettingsAccessor@@AAEXXZ$2 1001f932 f   workstationsAccessor.obj
 0001:0001e932       __unwindfunclet$?setDirty@applicationsAccessor@@AAEXXZ$2 1001f932 f   workstationsAccessor.obj
 0001:0001e932       __unwindfunclet$?setDirty@panelsetsAccessor@@AAEXXZ$2 1001f932 f   workstationsAccessor.obj
 0001:0001e932       __unwindfunclet$?setDirty@usersAccessor@@AAEXXZ$2 1001f932 f   workstationsAccessor.obj
 0001:0001e932       __unwindfunclet$?setDirty@workstationsAccessor@@AAEXXZ$2 1001f932 f   workstationsAccessor.obj
 0001:0001e93b       __ehhandler$?setDirty@workstationSettingsAccessor@@AAEXXZ 1001f93b f   workstationsAccessor.obj
 0001:0001e93b       __ehhandler$?setDirty@panelsetsAccessor@@AAEXXZ 1001f93b f   workstationsAccessor.obj
 0001:0001e93b       __ehhandler$?setDirty@applicationsAccessor@@AAEXXZ 1001f93b f   workstationsAccessor.obj
 0001:0001e93b       __ehhandler$?setDirty@launchAccessor@@AAEXXZ 1001f93b f   workstationsAccessor.obj
 0001:0001e93b       __ehhandler$?setDirty@usersAccessor@@AAEXXZ 1001f93b f   workstationsAccessor.obj
 0001:0001e93b       __ehhandler$?setDirty@workstationsAccessor@@AAEXXZ 1001f93b f   workstationsAccessor.obj
 0001:0001e960       __unwindfunclet$?version@usersAccessor@@QAENXZ$0 1001f960 f   workstationsAccessor.obj
 0001:0001e960       __unwindfunclet$?version@launchAccessor@@QAENXZ$0 1001f960 f   workstationsAccessor.obj
 0001:0001e960       __unwindfunclet$?version@workstationsAccessor@@QAENXZ$0 1001f960 f   workstationsAccessor.obj
 0001:0001e960       __unwindfunclet$?version@workstationSettingsAccessor@@QAENXZ$0 1001f960 f   workstationsAccessor.obj
 0001:0001e960       __unwindfunclet$?version@applicationsAccessor@@QAENXZ$0 1001f960 f   workstationsAccessor.obj
 0001:0001e960       __unwindfunclet$?version@panelsetsAccessor@@QAENXZ$0 1001f960 f   workstationsAccessor.obj
 0001:0001e969       __unwindfunclet$?version@applicationsAccessor@@QAENXZ$1 1001f969 f   workstationsAccessor.obj
 0001:0001e969       __unwindfunclet$?version@launchAccessor@@QAENXZ$1 1001f969 f   workstationsAccessor.obj
 0001:0001e969       __unwindfunclet$?version@usersAccessor@@QAENXZ$1 1001f969 f   workstationsAccessor.obj
 0001:0001e969       __unwindfunclet$?version@workstationsAccessor@@QAENXZ$1 1001f969 f   workstationsAccessor.obj
 0001:0001e969       __unwindfunclet$?version@workstationSettingsAccessor@@QAENXZ$1 1001f969 f   workstationsAccessor.obj
 0001:0001e969       __unwindfunclet$?version@panelsetsAccessor@@QAENXZ$1 1001f969 f   workstationsAccessor.obj
 0001:0001e972       __unwindfunclet$?version@launchAccessor@@QAENXZ$2 1001f972 f   workstationsAccessor.obj
 0001:0001e972       __unwindfunclet$?version@panelsetsAccessor@@QAENXZ$2 1001f972 f   workstationsAccessor.obj
 0001:0001e972       __unwindfunclet$?version@applicationsAccessor@@QAENXZ$2 1001f972 f   workstationsAccessor.obj
 0001:0001e972       __unwindfunclet$?version@workstationSettingsAccessor@@QAENXZ$2 1001f972 f   workstationsAccessor.obj
 0001:0001e972       __unwindfunclet$?version@usersAccessor@@QAENXZ$2 1001f972 f   workstationsAccessor.obj
 0001:0001e972       __unwindfunclet$?version@workstationsAccessor@@QAENXZ$2 1001f972 f   workstationsAccessor.obj
 0001:0001e97b       __ehhandler$?version@workstationsAccessor@@QAENXZ 1001f97b f   workstationsAccessor.obj
 0001:0001e97b       __ehhandler$?version@panelsetsAccessor@@QAENXZ 1001f97b f   workstationsAccessor.obj
 0001:0001e97b       __ehhandler$?version@applicationsAccessor@@QAENXZ 1001f97b f   workstationsAccessor.obj
 0001:0001e97b       __ehhandler$?version@workstationSettingsAccessor@@QAENXZ 1001f97b f   workstationsAccessor.obj
 0001:0001e97b       __ehhandler$?version@launchAccessor@@QAENXZ 1001f97b f   workstationsAccessor.obj
 0001:0001e97b       __ehhandler$?version@usersAccessor@@QAENXZ 1001f97b f   workstationsAccessor.obj
 0001:0001e9a0       __unwindfunclet$??0?$QValueListPrivate@VworkstationSettingsItem@@@@QAE@ABV0@@Z$0 1001f9a0 f   workstationSettingsAccessor.obj
 0001:0001e9ab       __unwindfunclet$??0?$QValueListPrivate@VworkstationSettingsItem@@@@QAE@ABV0@@Z$2 1001f9ab f   workstationSettingsAccessor.obj
 0001:0001e9b4       __unwindfunclet$??0?$QValueListPrivate@VworkstationSettingsItem@@@@QAE@ABV0@@Z$3 1001f9b4 f   workstationSettingsAccessor.obj
 0001:0001e9c0       __ehhandler$??0?$QValueListPrivate@VworkstationSettingsItem@@@@QAE@ABV0@@Z 1001f9c0 f   workstationSettingsAccessor.obj
 0001:0001e9e0       __unwindfunclet$??_G?$QValueListNode@VworkstationSettingsItem@@@@UAEPAXI@Z$1 1001f9e0 f   workstationSettingsAccessor.obj
 0001:0001e9e0       __unwindfunclet$??0workstationSettingsItem@@QAE@ABV0@@Z$0 1001f9e0 f   workstationSettingsAccessor.obj
 0001:0001e9e9       __ehhandler$??0workstationSettingsItem@@QAE@ABV0@@Z 1001f9e9 f   workstationSettingsAccessor.obj
 0001:0001e9e9       __ehhandler$??_G?$QValueListNode@VworkstationSettingsItem@@@@UAEPAXI@Z 1001f9e9 f   workstationSettingsAccessor.obj
 0001:0001ea10       __unwindfunclet$?addWorkstation@workstationSettingsAccessor@@QAE_NABVQString@@ABV?$QValueList@VworkstationSettingsItem@@@@@Z$0 1001fa10 f   workstationSettingsAccessor.obj
 0001:0001ea18       __unwindfunclet$?addWorkstation@workstationSettingsAccessor@@QAE_NABVQString@@ABV?$QValueList@VworkstationSettingsItem@@@@@Z$1 1001fa18 f   workstationSettingsAccessor.obj
 0001:0001ea21       __unwindfunclet$?addWorkstation@workstationSettingsAccessor@@QAE_NABVQString@@ABV?$QValueList@VworkstationSettingsItem@@@@@Z$2 1001fa21 f   workstationSettingsAccessor.obj
 0001:0001ea2a       __unwindfunclet$?addWorkstation@workstationSettingsAccessor@@QAE_NABVQString@@ABV?$QValueList@VworkstationSettingsItem@@@@@Z$3 1001fa2a f   workstationSettingsAccessor.obj
 0001:0001ea33       __unwindfunclet$?addWorkstation@workstationSettingsAccessor@@QAE_NABVQString@@ABV?$QValueList@VworkstationSettingsItem@@@@@Z$4 1001fa33 f   workstationSettingsAccessor.obj
 0001:0001ea3c       __unwindfunclet$?addWorkstation@workstationSettingsAccessor@@QAE_NABVQString@@ABV?$QValueList@VworkstationSettingsItem@@@@@Z$5 1001fa3c f   workstationSettingsAccessor.obj
 0001:0001ea45       __unwindfunclet$?addWorkstation@workstationSettingsAccessor@@QAE_NABVQString@@ABV?$QValueList@VworkstationSettingsItem@@@@@Z$6 1001fa45 f   workstationSettingsAccessor.obj
 0001:0001ea4e       __unwindfunclet$?addWorkstation@workstationSettingsAccessor@@QAE_NABVQString@@ABV?$QValueList@VworkstationSettingsItem@@@@@Z$7 1001fa4e f   workstationSettingsAccessor.obj
 0001:0001ea57       __unwindfunclet$?addWorkstation@workstationSettingsAccessor@@QAE_NABVQString@@ABV?$QValueList@VworkstationSettingsItem@@@@@Z$8 1001fa57 f   workstationSettingsAccessor.obj
 0001:0001ea60       __unwindfunclet$?addWorkstation@workstationSettingsAccessor@@QAE_NABVQString@@ABV?$QValueList@VworkstationSettingsItem@@@@@Z$9 1001fa60 f   workstationSettingsAccessor.obj
 0001:0001ea69       __unwindfunclet$?addWorkstation@workstationSettingsAccessor@@QAE_NABVQString@@ABV?$QValueList@VworkstationSettingsItem@@@@@Z$16 1001fa69 f   workstationSettingsAccessor.obj
 0001:0001ea74       __unwindfunclet$?addWorkstation@workstationSettingsAccessor@@QAE_NABVQString@@ABV?$QValueList@VworkstationSettingsItem@@@@@Z$17 1001fa74 f   workstationSettingsAccessor.obj
 0001:0001ea7f       __unwindfunclet$?addWorkstation@workstationSettingsAccessor@@QAE_NABVQString@@ABV?$QValueList@VworkstationSettingsItem@@@@@Z$10 1001fa7f f   workstationSettingsAccessor.obj
 0001:0001ea88       __unwindfunclet$?addWorkstation@workstationSettingsAccessor@@QAE_NABVQString@@ABV?$QValueList@VworkstationSettingsItem@@@@@Z$11 1001fa88 f   workstationSettingsAccessor.obj
 0001:0001ea91       __unwindfunclet$?addWorkstation@workstationSettingsAccessor@@QAE_NABVQString@@ABV?$QValueList@VworkstationSettingsItem@@@@@Z$12 1001fa91 f   workstationSettingsAccessor.obj
 0001:0001ea9a       __unwindfunclet$?addWorkstation@workstationSettingsAccessor@@QAE_NABVQString@@ABV?$QValueList@VworkstationSettingsItem@@@@@Z$13 1001fa9a f   workstationSettingsAccessor.obj
 0001:0001eaa3       __ehhandler$?addWorkstation@workstationSettingsAccessor@@QAE_NABVQString@@ABV?$QValueList@VworkstationSettingsItem@@@@@Z 1001faa3 f   workstationSettingsAccessor.obj
 0001:0001eac0       __unwindfunclet$?deleteItem@workstationSettingsAccessor@@QAE_NABVQString@@ABVworkstationSettingsItem@@@Z$0 1001fac0 f   workstationSettingsAccessor.obj
 0001:0001eac9       __unwindfunclet$?deleteItem@workstationSettingsAccessor@@QAE_NABVQString@@ABVworkstationSettingsItem@@@Z$1 1001fac9 f   workstationSettingsAccessor.obj
 0001:0001ead2       __unwindfunclet$?deleteItem@workstationSettingsAccessor@@QAE_NABVQString@@ABVworkstationSettingsItem@@@Z$2 1001fad2 f   workstationSettingsAccessor.obj
 0001:0001eadb       __unwindfunclet$?deleteItem@workstationSettingsAccessor@@QAE_NABVQString@@ABVworkstationSettingsItem@@@Z$3 1001fadb f   workstationSettingsAccessor.obj
 0001:0001eae4       __unwindfunclet$?deleteItem@workstationSettingsAccessor@@QAE_NABVQString@@ABVworkstationSettingsItem@@@Z$4 1001fae4 f   workstationSettingsAccessor.obj
 0001:0001eaed       __unwindfunclet$?deleteItem@workstationSettingsAccessor@@QAE_NABVQString@@ABVworkstationSettingsItem@@@Z$5 1001faed f   workstationSettingsAccessor.obj
 0001:0001eaf6       __unwindfunclet$?deleteItem@workstationSettingsAccessor@@QAE_NABVQString@@ABVworkstationSettingsItem@@@Z$6 1001faf6 f   workstationSettingsAccessor.obj
 0001:0001eaff       __unwindfunclet$?deleteItem@workstationSettingsAccessor@@QAE_NABVQString@@ABVworkstationSettingsItem@@@Z$7 1001faff f   workstationSettingsAccessor.obj
 0001:0001eb08       __unwindfunclet$?deleteItem@workstationSettingsAccessor@@QAE_NABVQString@@ABVworkstationSettingsItem@@@Z$8 1001fb08 f   workstationSettingsAccessor.obj
 0001:0001eb11       __unwindfunclet$?deleteItem@workstationSettingsAccessor@@QAE_NABVQString@@ABVworkstationSettingsItem@@@Z$10 1001fb11 f   workstationSettingsAccessor.obj
 0001:0001eb1a       __unwindfunclet$?deleteItem@workstationSettingsAccessor@@QAE_NABVQString@@ABVworkstationSettingsItem@@@Z$11 1001fb1a f   workstationSettingsAccessor.obj
 0001:0001eb23       __ehhandler$?deleteItem@workstationSettingsAccessor@@QAE_NABVQString@@ABVworkstationSettingsItem@@@Z 1001fb23 f   workstationSettingsAccessor.obj
 0001:0001eb40       __unwindfunclet$?deleteWorkstation@workstationSettingsAccessor@@QAE_NABVQString@@@Z$0 1001fb40 f   workstationSettingsAccessor.obj
 0001:0001eb49       __unwindfunclet$?deleteWorkstation@workstationSettingsAccessor@@QAE_NABVQString@@@Z$1 1001fb49 f   workstationSettingsAccessor.obj
 0001:0001eb52       __unwindfunclet$?deleteWorkstation@workstationSettingsAccessor@@QAE_NABVQString@@@Z$2 1001fb52 f   workstationSettingsAccessor.obj
 0001:0001eb5b       __unwindfunclet$?deleteWorkstation@workstationSettingsAccessor@@QAE_NABVQString@@@Z$3 1001fb5b f   workstationSettingsAccessor.obj
 0001:0001eb64       __unwindfunclet$?deleteWorkstation@workstationSettingsAccessor@@QAE_NABVQString@@@Z$4 1001fb64 f   workstationSettingsAccessor.obj
 0001:0001eb6d       __unwindfunclet$?deleteWorkstation@workstationSettingsAccessor@@QAE_NABVQString@@@Z$15 1001fb6d f   workstationSettingsAccessor.obj
 0001:0001eb76       __unwindfunclet$?deleteWorkstation@workstationSettingsAccessor@@QAE_NABVQString@@@Z$16 1001fb76 f   workstationSettingsAccessor.obj
 0001:0001eb81       __unwindfunclet$?deleteWorkstation@workstationSettingsAccessor@@QAE_NABVQString@@@Z$5 1001fb81 f   workstationSettingsAccessor.obj
 0001:0001eb89       __unwindfunclet$?deleteWorkstation@workstationSettingsAccessor@@QAE_NABVQString@@@Z$6 1001fb89 f   workstationSettingsAccessor.obj
 0001:0001eb92       __unwindfunclet$?deleteWorkstation@workstationSettingsAccessor@@QAE_NABVQString@@@Z$7 1001fb92 f   workstationSettingsAccessor.obj
 0001:0001eb9b       __unwindfunclet$?deleteWorkstation@workstationSettingsAccessor@@QAE_NABVQString@@@Z$8 1001fb9b f   workstationSettingsAccessor.obj
 0001:0001eba4       __unwindfunclet$?deleteWorkstation@workstationSettingsAccessor@@QAE_NABVQString@@@Z$9 1001fba4 f   workstationSettingsAccessor.obj
 0001:0001ebad       __unwindfunclet$?deleteWorkstation@workstationSettingsAccessor@@QAE_NABVQString@@@Z$10 1001fbad f   workstationSettingsAccessor.obj
 0001:0001ebb6       __unwindfunclet$?deleteWorkstation@workstationSettingsAccessor@@QAE_NABVQString@@@Z$11 1001fbb6 f   workstationSettingsAccessor.obj
 0001:0001ebbf       __unwindfunclet$?deleteWorkstation@workstationSettingsAccessor@@QAE_NABVQString@@@Z$17 1001fbbf f   workstationSettingsAccessor.obj
 0001:0001ebc8       __unwindfunclet$?deleteWorkstation@workstationSettingsAccessor@@QAE_NABVQString@@@Z$18 1001fbc8 f   workstationSettingsAccessor.obj
 0001:0001ebd1       __unwindfunclet$?deleteWorkstation@workstationSettingsAccessor@@QAE_NABVQString@@@Z$12 1001fbd1 f   workstationSettingsAccessor.obj
 0001:0001ebd9       __unwindfunclet$?deleteWorkstation@workstationSettingsAccessor@@QAE_NABVQString@@@Z$19 1001fbd9 f   workstationSettingsAccessor.obj
 0001:0001ebe2       __unwindfunclet$?deleteWorkstation@workstationSettingsAccessor@@QAE_NABVQString@@@Z$13 1001fbe2 f   workstationSettingsAccessor.obj
 0001:0001ebeb       __ehhandler$?deleteWorkstation@workstationSettingsAccessor@@QAE_NABVQString@@@Z 1001fbeb f   workstationSettingsAccessor.obj
 0001:0001ec10       __unwindfunclet$?exists@workstationSettingsAccessor@@QAE_NABVQString@@0@Z$0 1001fc10 f   workstationSettingsAccessor.obj
 0001:0001ec19       __unwindfunclet$?exists@workstationSettingsAccessor@@QAE_NABVQString@@0@Z$1 1001fc19 f   workstationSettingsAccessor.obj
 0001:0001ec22       __unwindfunclet$?exists@workstationSettingsAccessor@@QAE_NABVQString@@0@Z$2 1001fc22 f   workstationSettingsAccessor.obj
 0001:0001ec2b       __unwindfunclet$?exists@workstationSettingsAccessor@@QAE_NABVQString@@0@Z$3 1001fc2b f   workstationSettingsAccessor.obj
 0001:0001ec34       __unwindfunclet$?exists@workstationSettingsAccessor@@QAE_NABVQString@@0@Z$4 1001fc34 f   workstationSettingsAccessor.obj
 0001:0001ec3d       __unwindfunclet$?exists@workstationSettingsAccessor@@QAE_NABVQString@@0@Z$5 1001fc3d f   workstationSettingsAccessor.obj
 0001:0001ec46       __unwindfunclet$?exists@workstationSettingsAccessor@@QAE_NABVQString@@0@Z$6 1001fc46 f   workstationSettingsAccessor.obj
 0001:0001ec4f       __unwindfunclet$?exists@workstationSettingsAccessor@@QAE_NABVQString@@0@Z$7 1001fc4f f   workstationSettingsAccessor.obj
 0001:0001ec58       __unwindfunclet$?exists@workstationSettingsAccessor@@QAE_NABVQString@@0@Z$8 1001fc58 f   workstationSettingsAccessor.obj
 0001:0001ec61       __unwindfunclet$?exists@workstationSettingsAccessor@@QAE_NABVQString@@0@Z$9 1001fc61 f   workstationSettingsAccessor.obj
 0001:0001ec6a       __unwindfunclet$?exists@workstationSettingsAccessor@@QAE_NABVQString@@0@Z$10 1001fc6a f   workstationSettingsAccessor.obj
 0001:0001ec73       __ehhandler$?exists@workstationSettingsAccessor@@QAE_NABVQString@@0@Z 1001fc73 f   workstationSettingsAccessor.obj
 0001:0001ec90       __unwindfunclet$?insert@?$QValueListPrivate@VworkstationSettingsItem@@@@QAE?AV?$QValueListIterator@VworkstationSettingsItem@@@@V2@ABVworkstationSettingsItem@@@Z$0 1001fc90 f   workstationSettingsAccessor.obj
 0001:0001ec9b       __unwindfunclet$?insert@?$QValueListPrivate@VworkstationSettingsItem@@@@QAE?AV?$QValueListIterator@VworkstationSettingsItem@@@@V2@ABVworkstationSettingsItem@@@Z$2 1001fc9b f   workstationSettingsAccessor.obj
 0001:0001eca4       __ehhandler$?insert@?$QValueListPrivate@VworkstationSettingsItem@@@@QAE?AV?$QValueListIterator@VworkstationSettingsItem@@@@V2@ABVworkstationSettingsItem@@@Z 1001fca4 f   workstationSettingsAccessor.obj
 0001:0001ecc0       __unwindfunclet$?insertItem@workstationSettingsAccessor@@QAE_NABVQString@@ABVworkstationSettingsItem@@@Z$0 1001fcc0 f   workstationSettingsAccessor.obj
 0001:0001ecc9       __unwindfunclet$?insertItem@workstationSettingsAccessor@@QAE_NABVQString@@ABVworkstationSettingsItem@@@Z$1 1001fcc9 f   workstationSettingsAccessor.obj
 0001:0001ecd2       __unwindfunclet$?insertItem@workstationSettingsAccessor@@QAE_NABVQString@@ABVworkstationSettingsItem@@@Z$2 1001fcd2 f   workstationSettingsAccessor.obj
 0001:0001ecdb       __unwindfunclet$?insertItem@workstationSettingsAccessor@@QAE_NABVQString@@ABVworkstationSettingsItem@@@Z$3 1001fcdb f   workstationSettingsAccessor.obj
 0001:0001ece4       __unwindfunclet$?insertItem@workstationSettingsAccessor@@QAE_NABVQString@@ABVworkstationSettingsItem@@@Z$4 1001fce4 f   workstationSettingsAccessor.obj
 0001:0001eced       __unwindfunclet$?insertItem@workstationSettingsAccessor@@QAE_NABVQString@@ABVworkstationSettingsItem@@@Z$10 1001fced f   workstationSettingsAccessor.obj
 0001:0001ecf6       __unwindfunclet$?insertItem@workstationSettingsAccessor@@QAE_NABVQString@@ABVworkstationSettingsItem@@@Z$5 1001fcf6 f   workstationSettingsAccessor.obj
 0001:0001ecff       __unwindfunclet$?insertItem@workstationSettingsAccessor@@QAE_NABVQString@@ABVworkstationSettingsItem@@@Z$6 1001fcff f   workstationSettingsAccessor.obj
 0001:0001ed08       __unwindfunclet$?insertItem@workstationSettingsAccessor@@QAE_NABVQString@@ABVworkstationSettingsItem@@@Z$7 1001fd08 f   workstationSettingsAccessor.obj
 0001:0001ed11       __unwindfunclet$?insertItem@workstationSettingsAccessor@@QAE_NABVQString@@ABVworkstationSettingsItem@@@Z$8 1001fd11 f   workstationSettingsAccessor.obj
 0001:0001ed1a       __ehhandler$?insertItem@workstationSettingsAccessor@@QAE_NABVQString@@ABVworkstationSettingsItem@@@Z 1001fd1a f   workstationSettingsAccessor.obj
 0001:0001ed40       __unwindfunclet$?item@workstationSettingsAccessor@@QAE_NABVQString@@AAV?$QValueList@VworkstationSettingsItem@@@@@Z$0 1001fd40 f   workstationSettingsAccessor.obj
 0001:0001ed49       __unwindfunclet$?item@workstationSettingsAccessor@@QAE_NABVQString@@AAV?$QValueList@VworkstationSettingsItem@@@@@Z$1 1001fd49 f   workstationSettingsAccessor.obj
 0001:0001ed52       __unwindfunclet$?item@workstationSettingsAccessor@@QAE_NABVQString@@AAV?$QValueList@VworkstationSettingsItem@@@@@Z$2 1001fd52 f   workstationSettingsAccessor.obj
 0001:0001ed5b       __unwindfunclet$?item@workstationSettingsAccessor@@QAE_NABVQString@@AAV?$QValueList@VworkstationSettingsItem@@@@@Z$3 1001fd5b f   workstationSettingsAccessor.obj
 0001:0001ed64       __unwindfunclet$?item@workstationSettingsAccessor@@QAE_NABVQString@@AAV?$QValueList@VworkstationSettingsItem@@@@@Z$4 1001fd64 f   workstationSettingsAccessor.obj
 0001:0001ed6d       __unwindfunclet$?item@workstationSettingsAccessor@@QAE_NABVQString@@AAV?$QValueList@VworkstationSettingsItem@@@@@Z$13 1001fd6d f   workstationSettingsAccessor.obj
 0001:0001ed76       __unwindfunclet$?item@workstationSettingsAccessor@@QAE_NABVQString@@AAV?$QValueList@VworkstationSettingsItem@@@@@Z$5 1001fd76 f   workstationSettingsAccessor.obj
 0001:0001ed7f       __unwindfunclet$?item@workstationSettingsAccessor@@QAE_NABVQString@@AAV?$QValueList@VworkstationSettingsItem@@@@@Z$6 1001fd7f f   workstationSettingsAccessor.obj
 0001:0001ed88       __unwindfunclet$?item@workstationSettingsAccessor@@QAE_NABVQString@@AAV?$QValueList@VworkstationSettingsItem@@@@@Z$7 1001fd88 f   workstationSettingsAccessor.obj
 0001:0001ed91       __unwindfunclet$?item@workstationSettingsAccessor@@QAE_NABVQString@@AAV?$QValueList@VworkstationSettingsItem@@@@@Z$8 1001fd91 f   workstationSettingsAccessor.obj
 0001:0001ed9a       __unwindfunclet$?item@workstationSettingsAccessor@@QAE_NABVQString@@AAV?$QValueList@VworkstationSettingsItem@@@@@Z$9 1001fd9a f   workstationSettingsAccessor.obj
 0001:0001eda3       __unwindfunclet$?item@workstationSettingsAccessor@@QAE_NABVQString@@AAV?$QValueList@VworkstationSettingsItem@@@@@Z$10 1001fda3 f   workstationSettingsAccessor.obj
 0001:0001edac       __unwindfunclet$?item@workstationSettingsAccessor@@QAE_NABVQString@@AAV?$QValueList@VworkstationSettingsItem@@@@@Z$14 1001fdac f   workstationSettingsAccessor.obj
 0001:0001edb5       __unwindfunclet$?item@workstationSettingsAccessor@@QAE_NABVQString@@AAV?$QValueList@VworkstationSettingsItem@@@@@Z$15 1001fdb5 f   workstationSettingsAccessor.obj
 0001:0001edbe       __unwindfunclet$?item@workstationSettingsAccessor@@QAE_NABVQString@@AAV?$QValueList@VworkstationSettingsItem@@@@@Z$11 1001fdbe f   workstationSettingsAccessor.obj
 0001:0001edc6       __unwindfunclet$?item@workstationSettingsAccessor@@QAE_NABVQString@@AAV?$QValueList@VworkstationSettingsItem@@@@@Z$16 1001fdc6 f   workstationSettingsAccessor.obj
 0001:0001edcf       __unwindfunclet$?item@workstationSettingsAccessor@@QAE_NABVQString@@AAV?$QValueList@VworkstationSettingsItem@@@@@Z$12 1001fdcf f   workstationSettingsAccessor.obj
 0001:0001edd8       __ehhandler$?item@workstationSettingsAccessor@@QAE_NABVQString@@AAV?$QValueList@VworkstationSettingsItem@@@@@Z 1001fdd8 f   workstationSettingsAccessor.obj
 0001:0001ee00       __unwindfunclet$?nextItem@workstationSettingsAccessor@@QAE_NAAVQString@@AAV?$QValueList@VworkstationSettingsItem@@@@@Z$0 1001fe00 f   workstationSettingsAccessor.obj
 0001:0001ee09       __unwindfunclet$?nextItem@workstationSettingsAccessor@@QAE_NAAVQString@@AAV?$QValueList@VworkstationSettingsItem@@@@@Z$1 1001fe09 f   workstationSettingsAccessor.obj
 0001:0001ee12       __unwindfunclet$?nextItem@workstationSettingsAccessor@@QAE_NAAVQString@@AAV?$QValueList@VworkstationSettingsItem@@@@@Z$2 1001fe12 f   workstationSettingsAccessor.obj
 0001:0001ee1b       __unwindfunclet$?nextItem@workstationSettingsAccessor@@QAE_NAAVQString@@AAV?$QValueList@VworkstationSettingsItem@@@@@Z$3 1001fe1b f   workstationSettingsAccessor.obj
 0001:0001ee24       __unwindfunclet$?nextItem@workstationSettingsAccessor@@QAE_NAAVQString@@AAV?$QValueList@VworkstationSettingsItem@@@@@Z$4 1001fe24 f   workstationSettingsAccessor.obj
 0001:0001ee2d       __unwindfunclet$?nextItem@workstationSettingsAccessor@@QAE_NAAVQString@@AAV?$QValueList@VworkstationSettingsItem@@@@@Z$5 1001fe2d f   workstationSettingsAccessor.obj
 0001:0001ee36       __unwindfunclet$?nextItem@workstationSettingsAccessor@@QAE_NAAVQString@@AAV?$QValueList@VworkstationSettingsItem@@@@@Z$6 1001fe36 f   workstationSettingsAccessor.obj
 0001:0001ee3f       __unwindfunclet$?nextItem@workstationSettingsAccessor@@QAE_NAAVQString@@AAV?$QValueList@VworkstationSettingsItem@@@@@Z$7 1001fe3f f   workstationSettingsAccessor.obj
 0001:0001ee48       __unwindfunclet$?nextItem@workstationSettingsAccessor@@QAE_NAAVQString@@AAV?$QValueList@VworkstationSettingsItem@@@@@Z$8 1001fe48 f   workstationSettingsAccessor.obj
 0001:0001ee51       __unwindfunclet$?nextItem@workstationSettingsAccessor@@QAE_NAAVQString@@AAV?$QValueList@VworkstationSettingsItem@@@@@Z$12 1001fe51 f   workstationSettingsAccessor.obj
 0001:0001ee5a       __unwindfunclet$?nextItem@workstationSettingsAccessor@@QAE_NAAVQString@@AAV?$QValueList@VworkstationSettingsItem@@@@@Z$13 1001fe5a f   workstationSettingsAccessor.obj
 0001:0001ee63       __unwindfunclet$?nextItem@workstationSettingsAccessor@@QAE_NAAVQString@@AAV?$QValueList@VworkstationSettingsItem@@@@@Z$9 1001fe63 f   workstationSettingsAccessor.obj
 0001:0001ee6b       __unwindfunclet$?nextItem@workstationSettingsAccessor@@QAE_NAAVQString@@AAV?$QValueList@VworkstationSettingsItem@@@@@Z$14 1001fe6b f   workstationSettingsAccessor.obj
 0001:0001ee74       __unwindfunclet$?nextItem@workstationSettingsAccessor@@QAE_NAAVQString@@AAV?$QValueList@VworkstationSettingsItem@@@@@Z$10 1001fe74 f   workstationSettingsAccessor.obj
 0001:0001ee7d       __unwindfunclet$?nextItem@workstationSettingsAccessor@@QAE_NAAVQString@@AAV?$QValueList@VworkstationSettingsItem@@@@@Z$11 1001fe7d f   workstationSettingsAccessor.obj
 0001:0001ee86       __ehhandler$?nextItem@workstationSettingsAccessor@@QAE_NAAVQString@@AAV?$QValueList@VworkstationSettingsItem@@@@@Z 1001fe86 f   workstationSettingsAccessor.obj
 0001:0001eeb0       __unwindfunclet$?setFirst@workstationSettingsAccessor@@QAE_NXZ$0 1001feb0 f   workstationSettingsAccessor.obj
 0001:0001eeb0       __unwindfunclet$?setFirst@launchAccessor@@QAE_NXZ$0 1001feb0 f   workstationSettingsAccessor.obj
 0001:0001eeb0       __unwindfunclet$?setFirst@applicationsAccessor@@QAE_NXZ$0 1001feb0 f   workstationSettingsAccessor.obj
 0001:0001eeb0       __unwindfunclet$?setFirst@workstationsAccessor@@QAE_NXZ$0 1001feb0 f   workstationSettingsAccessor.obj
 0001:0001eeb0       __unwindfunclet$?setFirst@panelsetsAccessor@@QAE_NXZ$0 1001feb0 f   workstationSettingsAccessor.obj
 0001:0001eeb0       __unwindfunclet$?setFirst@usersAccessor@@QAE_NXZ$0 1001feb0 f   workstationSettingsAccessor.obj
 0001:0001eeb9       __unwindfunclet$?setFirst@launchAccessor@@QAE_NXZ$1 1001feb9 f   workstationSettingsAccessor.obj
 0001:0001eeb9       __unwindfunclet$?setFirst@panelsetsAccessor@@QAE_NXZ$1 1001feb9 f   workstationSettingsAccessor.obj
 0001:0001eeb9       __unwindfunclet$?setFirst@usersAccessor@@QAE_NXZ$1 1001feb9 f   workstationSettingsAccessor.obj
 0001:0001eeb9       __unwindfunclet$?setFirst@workstationsAccessor@@QAE_NXZ$1 1001feb9 f   workstationSettingsAccessor.obj
 0001:0001eeb9       __unwindfunclet$?setFirst@workstationSettingsAccessor@@QAE_NXZ$1 1001feb9 f   workstationSettingsAccessor.obj
 0001:0001eeb9       __unwindfunclet$?setFirst@applicationsAccessor@@QAE_NXZ$1 1001feb9 f   workstationSettingsAccessor.obj
 0001:0001eec2       __ehhandler$?setFirst@launchAccessor@@QAE_NXZ 1001fec2 f   workstationSettingsAccessor.obj
 0001:0001eec2       __ehhandler$?setFirst@panelsetsAccessor@@QAE_NXZ 1001fec2 f   workstationSettingsAccessor.obj
 0001:0001eec2       __ehhandler$?setFirst@workstationSettingsAccessor@@QAE_NXZ 1001fec2 f   workstationSettingsAccessor.obj
 0001:0001eec2       __ehhandler$?setFirst@applicationsAccessor@@QAE_NXZ 1001fec2 f   workstationSettingsAccessor.obj
 0001:0001eec2       __ehhandler$?setFirst@usersAccessor@@QAE_NXZ 1001fec2 f   workstationSettingsAccessor.obj
 0001:0001eec2       __ehhandler$?setFirst@workstationsAccessor@@QAE_NXZ 1001fec2 f   workstationSettingsAccessor.obj
 0001:0001eee0       __unwindfunclet$?setValue@workstationSettingsAccessor@@QAE_NABVQString@@00@Z$0 1001fee0 f   workstationSettingsAccessor.obj
 0001:0001eee9       __unwindfunclet$?setValue@workstationSettingsAccessor@@QAE_NABVQString@@00@Z$1 1001fee9 f   workstationSettingsAccessor.obj
 0001:0001eef2       __unwindfunclet$?setValue@workstationSettingsAccessor@@QAE_NABVQString@@00@Z$2 1001fef2 f   workstationSettingsAccessor.obj
 0001:0001eefb       __unwindfunclet$?setValue@workstationSettingsAccessor@@QAE_NABVQString@@00@Z$3 1001fefb f   workstationSettingsAccessor.obj
 0001:0001ef04       __unwindfunclet$?setValue@workstationSettingsAccessor@@QAE_NABVQString@@00@Z$4 1001ff04 f   workstationSettingsAccessor.obj
 0001:0001ef0d       __unwindfunclet$?setValue@workstationSettingsAccessor@@QAE_NABVQString@@00@Z$11 1001ff0d f   workstationSettingsAccessor.obj
 0001:0001ef16       __unwindfunclet$?setValue@workstationSettingsAccessor@@QAE_NABVQString@@00@Z$5 1001ff16 f   workstationSettingsAccessor.obj
 0001:0001ef1f       __unwindfunclet$?setValue@workstationSettingsAccessor@@QAE_NABVQString@@00@Z$6 1001ff1f f   workstationSettingsAccessor.obj
 0001:0001ef28       __unwindfunclet$?setValue@workstationSettingsAccessor@@QAE_NABVQString@@00@Z$7 1001ff28 f   workstationSettingsAccessor.obj
 0001:0001ef31       __unwindfunclet$?setValue@workstationSettingsAccessor@@QAE_NABVQString@@00@Z$8 1001ff31 f   workstationSettingsAccessor.obj
 0001:0001ef3a       __unwindfunclet$?setValue@workstationSettingsAccessor@@QAE_NABVQString@@00@Z$10 1001ff3a f   workstationSettingsAccessor.obj
 0001:0001ef43       __unwindfunclet$?setValue@workstationSettingsAccessor@@QAE_NABVQString@@00@Z$9 1001ff43 f   workstationSettingsAccessor.obj
 0001:0001ef4c       __ehhandler$?setValue@workstationSettingsAccessor@@QAE_NABVQString@@00@Z 1001ff4c f   workstationSettingsAccessor.obj
 0001:0001ef70       __unwindfunclet$?setVersion@launchAccessor@@QAEXN@Z$0 1001ff70 f   workstationSettingsAccessor.obj
 0001:0001ef70       __unwindfunclet$?setVersion@workstationsAccessor@@QAEXN@Z$0 1001ff70 f   workstationSettingsAccessor.obj
 0001:0001ef70       __unwindfunclet$?setVersion@workstationSettingsAccessor@@QAEXN@Z$0 1001ff70 f   workstationSettingsAccessor.obj
 0001:0001ef70       __unwindfunclet$?setVersion@usersAccessor@@QAEXN@Z$0 1001ff70 f   workstationSettingsAccessor.obj
 0001:0001ef70       __unwindfunclet$?setVersion@panelsetsAccessor@@QAEXN@Z$0 1001ff70 f   workstationSettingsAccessor.obj
 0001:0001ef70       __unwindfunclet$?setVersion@applicationsAccessor@@QAEXN@Z$0 1001ff70 f   workstationSettingsAccessor.obj
 0001:0001ef79       __unwindfunclet$?setVersion@usersAccessor@@QAEXN@Z$1 1001ff79 f   workstationSettingsAccessor.obj
 0001:0001ef79       __unwindfunclet$?setVersion@launchAccessor@@QAEXN@Z$1 1001ff79 f   workstationSettingsAccessor.obj
 0001:0001ef79       __unwindfunclet$?setVersion@workstationSettingsAccessor@@QAEXN@Z$1 1001ff79 f   workstationSettingsAccessor.obj
 0001:0001ef79       __unwindfunclet$?setVersion@applicationsAccessor@@QAEXN@Z$1 1001ff79 f   workstationSettingsAccessor.obj
 0001:0001ef79       __unwindfunclet$?setVersion@workstationsAccessor@@QAEXN@Z$1 1001ff79 f   workstationSettingsAccessor.obj
 0001:0001ef79       __unwindfunclet$?setVersion@panelsetsAccessor@@QAEXN@Z$1 1001ff79 f   workstationSettingsAccessor.obj
 0001:0001ef82       __unwindfunclet$?setVersion@launchAccessor@@QAEXN@Z$2 1001ff82 f   workstationSettingsAccessor.obj
 0001:0001ef82       __unwindfunclet$?setVersion@usersAccessor@@QAEXN@Z$2 1001ff82 f   workstationSettingsAccessor.obj
 0001:0001ef82       __unwindfunclet$?setVersion@applicationsAccessor@@QAEXN@Z$2 1001ff82 f   workstationSettingsAccessor.obj
 0001:0001ef82       __unwindfunclet$?setVersion@workstationsAccessor@@QAEXN@Z$2 1001ff82 f   workstationSettingsAccessor.obj
 0001:0001ef82       __unwindfunclet$?setVersion@panelsetsAccessor@@QAEXN@Z$2 1001ff82 f   workstationSettingsAccessor.obj
 0001:0001ef82       __unwindfunclet$?setVersion@workstationSettingsAccessor@@QAEXN@Z$2 1001ff82 f   workstationSettingsAccessor.obj
 0001:0001ef8b       __unwindfunclet$?setVersion@usersAccessor@@QAEXN@Z$3 1001ff8b f   workstationSettingsAccessor.obj
 0001:0001ef8b       __unwindfunclet$?setVersion@applicationsAccessor@@QAEXN@Z$3 1001ff8b f   workstationSettingsAccessor.obj
 0001:0001ef8b       __unwindfunclet$?setVersion@workstationSettingsAccessor@@QAEXN@Z$3 1001ff8b f   workstationSettingsAccessor.obj
 0001:0001ef8b       __unwindfunclet$?setVersion@workstationsAccessor@@QAEXN@Z$3 1001ff8b f   workstationSettingsAccessor.obj
 0001:0001ef8b       __unwindfunclet$?setVersion@panelsetsAccessor@@QAEXN@Z$3 1001ff8b f   workstationSettingsAccessor.obj
 0001:0001ef8b       __unwindfunclet$?setVersion@launchAccessor@@QAEXN@Z$3 1001ff8b f   workstationSettingsAccessor.obj
 0001:0001ef94       __ehhandler$?setVersion@workstationsAccessor@@QAEXN@Z 1001ff94 f   workstationSettingsAccessor.obj
 0001:0001ef94       __ehhandler$?setVersion@applicationsAccessor@@QAEXN@Z 1001ff94 f   workstationSettingsAccessor.obj
 0001:0001ef94       __ehhandler$?setVersion@usersAccessor@@QAEXN@Z 1001ff94 f   workstationSettingsAccessor.obj
 0001:0001ef94       __ehhandler$?setVersion@workstationSettingsAccessor@@QAEXN@Z 1001ff94 f   workstationSettingsAccessor.obj
 0001:0001ef94       __ehhandler$?setVersion@launchAccessor@@QAEXN@Z 1001ff94 f   workstationSettingsAccessor.obj
 0001:0001ef94       __ehhandler$?setVersion@panelsetsAccessor@@QAEXN@Z 1001ff94 f   workstationSettingsAccessor.obj
 0001:0001efc0       __unwindfunclet$?value@workstationSettingsAccessor@@QAE?AVQString@@ABV2@0@Z$0 1001ffc0 f   workstationSettingsAccessor.obj
 0001:0001efc9       __unwindfunclet$?value@workstationSettingsAccessor@@QAE?AVQString@@ABV2@0@Z$1 1001ffc9 f   workstationSettingsAccessor.obj
 0001:0001efd2       __unwindfunclet$?value@workstationSettingsAccessor@@QAE?AVQString@@ABV2@0@Z$2 1001ffd2 f   workstationSettingsAccessor.obj
 0001:0001efdb       __unwindfunclet$?value@workstationSettingsAccessor@@QAE?AVQString@@ABV2@0@Z$3 1001ffdb f   workstationSettingsAccessor.obj
 0001:0001efe4       __unwindfunclet$?value@workstationSettingsAccessor@@QAE?AVQString@@ABV2@0@Z$4 1001ffe4 f   workstationSettingsAccessor.obj
 0001:0001efed       __unwindfunclet$?value@workstationSettingsAccessor@@QAE?AVQString@@ABV2@0@Z$5 1001ffed f   workstationSettingsAccessor.obj
 0001:0001eff6       __unwindfunclet$?value@workstationSettingsAccessor@@QAE?AVQString@@ABV2@0@Z$6 1001fff6 f   workstationSettingsAccessor.obj
 0001:0001efff       __unwindfunclet$?value@workstationSettingsAccessor@@QAE?AVQString@@ABV2@0@Z$7 1001ffff f   workstationSettingsAccessor.obj
 0001:0001f008       __unwindfunclet$?value@workstationSettingsAccessor@@QAE?AVQString@@ABV2@0@Z$8 10020008 f   workstationSettingsAccessor.obj
 0001:0001f011       __unwindfunclet$?value@workstationSettingsAccessor@@QAE?AVQString@@ABV2@0@Z$11 10020011 f   workstationSettingsAccessor.obj
 0001:0001f01a       __unwindfunclet$?value@workstationSettingsAccessor@@QAE?AVQString@@ABV2@0@Z$12 1002001a f   workstationSettingsAccessor.obj
 0001:0001f023       __unwindfunclet$?value@workstationSettingsAccessor@@QAE?AVQString@@ABV2@0@Z$9 10020023 f   workstationSettingsAccessor.obj
 0001:0001f02c       __unwindfunclet$?value@workstationSettingsAccessor@@QAE?AVQString@@ABV2@0@Z$10 1002002c f   workstationSettingsAccessor.obj
 0001:0001f046       __ehhandler$?value@workstationSettingsAccessor@@QAE?AVQString@@ABV2@0@Z 10020046 f   workstationSettingsAccessor.obj
 0001:0001f070       __unwindfunclet$?itemAdded@applicationsAccessor@@IAEXABVQString@@0000@Z$0 10020070 f   moc_applicationsAccessor.obj
 0001:0001f087       __ehhandler$?itemAdded@applicationsAccessor@@IAEXABVQString@@0000@Z 10020087 f   moc_applicationsAccessor.obj
 0001:0001f0b0       __unwindfunclet$?itemDeleted@launchAccessor@@IAEXABVQString@@ABVlaunchItem@@H@Z$0 100200b0 f   moc_launchAccessor.obj
 0001:0001f0b0       __unwindfunclet$?itemAdded@launchAccessor@@IAEXABVQString@@ABVlaunchItem@@H@Z$0 100200b0 f   moc_launchAccessor.obj
 0001:0001f0b0       __unwindfunclet$?itemDemoted@panelsetsAccessor@@IAEXABVQString@@ABVpanelsetItem@@H@Z$0 100200b0 f   moc_launchAccessor.obj
 0001:0001f0b0       __unwindfunclet$?applicationChanged@launchAccessor@@IAEXABVQString@@H0@Z$0 100200b0 f   moc_launchAccessor.obj
 0001:0001f0b0       __unwindfunclet$?itemAdded@panelsetsAccessor@@IAEXABVQString@@ABVpanelsetItem@@H@Z$0 100200b0 f   moc_launchAccessor.obj
 0001:0001f0b0       __unwindfunclet$?workingdirChanged@launchAccessor@@IAEXABVQString@@H0@Z$0 100200b0 f   moc_launchAccessor.obj
 0001:0001f0b0       __unwindfunclet$?argumentsChanged@launchAccessor@@IAEXABVQString@@H0@Z$0 100200b0 f   moc_launchAccessor.obj
 0001:0001f0b0       __unwindfunclet$?itemDeleted@panelsetsAccessor@@IAEXABVQString@@ABVpanelsetItem@@H@Z$0 100200b0 f   moc_launchAccessor.obj
 0001:0001f0b0       __unwindfunclet$?itemPromoted@panelsetsAccessor@@IAEXABVQString@@ABVpanelsetItem@@H@Z$0 100200b0 f   moc_launchAccessor.obj
 0001:0001f0c4       __ehhandler$?argumentsChanged@launchAccessor@@IAEXABVQString@@H0@Z 100200c4 f   moc_launchAccessor.obj
 0001:0001f0c4       __ehhandler$?itemAdded@launchAccessor@@IAEXABVQString@@ABVlaunchItem@@H@Z 100200c4 f   moc_launchAccessor.obj
 0001:0001f0c4       __ehhandler$?workingdirChanged@launchAccessor@@IAEXABVQString@@H0@Z 100200c4 f   moc_launchAccessor.obj
 0001:0001f0c4       __ehhandler$?itemDeleted@launchAccessor@@IAEXABVQString@@ABVlaunchItem@@H@Z 100200c4 f   moc_launchAccessor.obj
 0001:0001f0c4       __ehhandler$?applicationChanged@launchAccessor@@IAEXABVQString@@H0@Z 100200c4 f   moc_launchAccessor.obj
 0001:0001f0c4       __ehhandler$?itemAdded@panelsetsAccessor@@IAEXABVQString@@ABVpanelsetItem@@H@Z 100200c4 f   moc_launchAccessor.obj
 0001:0001f0c4       __ehhandler$?itemDemoted@panelsetsAccessor@@IAEXABVQString@@ABVpanelsetItem@@H@Z 100200c4 f   moc_launchAccessor.obj
 0001:0001f0c4       __ehhandler$?itemDeleted@panelsetsAccessor@@IAEXABVQString@@ABVpanelsetItem@@H@Z 100200c4 f   moc_launchAccessor.obj
 0001:0001f0c4       __ehhandler$?itemPromoted@panelsetsAccessor@@IAEXABVQString@@ABVpanelsetItem@@H@Z 100200c4 f   moc_launchAccessor.obj
 0001:0001f0f0       __unwindfunclet$?delayChanged@launchAccessor@@IAEXABVQString@@HH@Z$0 100200f0 f   moc_launchAccessor.obj
 0001:0001f104       __ehhandler$?delayChanged@launchAccessor@@IAEXABVQString@@HH@Z 10020104 f   moc_launchAccessor.obj
 0001:0001f130       __unwindfunclet$?itemPromoted@launchAccessor@@IAEXABVQString@@H@Z$0 10020130 f   moc_launchAccessor.obj
 0001:0001f130       __unwindfunclet$?rocChanged@launchAccessor@@IAEXABVQString@@_N@Z$0 10020130 f   moc_launchAccessor.obj
 0001:0001f130       __unwindfunclet$?itemDemoted@launchAccessor@@IAEXABVQString@@H@Z$0 10020130 f   moc_launchAccessor.obj
 0001:0001f144       __ehhandler$?rocChanged@launchAccessor@@IAEXABVQString@@_N@Z 10020144 f   moc_launchAccessor.obj
 0001:0001f144       __ehhandler$?itemPromoted@launchAccessor@@IAEXABVQString@@H@Z 10020144 f   moc_launchAccessor.obj
 0001:0001f144       __ehhandler$?itemDemoted@launchAccessor@@IAEXABVQString@@H@Z 10020144 f   moc_launchAccessor.obj
 0001:0001f170       __unwindfunclet$?launchAdded@launchAccessor@@IAEXABVQString@@0_NABV?$QValueList@VlaunchItem@@@@@Z$0 10020170 f   moc_launchAccessor.obj
 0001:0001f170       __unwindfunclet$?launchDeleted@launchAccessor@@IAEXABVQString@@0_NABV?$QValueList@VlaunchItem@@@@@Z$0 10020170 f   moc_launchAccessor.obj
 0001:0001f187       __ehhandler$?launchAdded@launchAccessor@@IAEXABVQString@@0_NABV?$QValueList@VlaunchItem@@@@@Z 10020187 f   moc_launchAccessor.obj
 0001:0001f187       __ehhandler$?launchDeleted@launchAccessor@@IAEXABVQString@@0_NABV?$QValueList@VlaunchItem@@@@@Z 10020187 f   moc_launchAccessor.obj
 0001:0001f1b0       __unwindfunclet$?workstationAdded@workstationSettingsAccessor@@IAEXABVQString@@ABV?$QValueList@VworkstationSettingsItem@@@@@Z$0 100201b0 f   moc_panelsetsAccessor.obj
 0001:0001f1b0       __unwindfunclet$?engsetChanged@usersAccessor@@IAEXABVQString@@0@Z$0 100201b0 f   moc_panelsetsAccessor.obj
 0001:0001f1b0       __unwindfunclet$?panelsetRenamed@panelsetsAccessor@@IAEXABVQString@@0@Z$0 100201b0 f   moc_panelsetsAccessor.obj
 0001:0001f1b0       __unwindfunclet$?nameChanged@workstationsAccessor@@IAEXABVQString@@0@Z$0 100201b0 f   moc_panelsetsAccessor.obj
 0001:0001f1b0       __unwindfunclet$?launchRenamed@launchAccessor@@IAEXABVQString@@0@Z$0 100201b0 f   moc_panelsetsAccessor.obj
 0001:0001f1b0       __unwindfunclet$?itemRenamed@workstationsAccessor@@IAEXABVQString@@0@Z$0 100201b0 f   moc_panelsetsAccessor.obj
 0001:0001f1b0       __unwindfunclet$?itemRenamed@applicationsAccessor@@IAEXABVQString@@0@Z$0 100201b0 f   moc_panelsetsAccessor.obj
 0001:0001f1b0       __unwindfunclet$?userChanged@workstationsAccessor@@IAEXABVQString@@0@Z$0 100201b0 f   moc_panelsetsAccessor.obj
 0001:0001f1b0       __unwindfunclet$?csiChanged@launchAccessor@@IAEXABVQString@@0@Z$0 100201b0 f   moc_panelsetsAccessor.obj
 0001:0001f1b0       __unwindfunclet$?workstationRenamed@workstationSettingsAccessor@@IAEXABVQString@@0@Z$0 100201b0 f   moc_panelsetsAccessor.obj
 0001:0001f1b0       __unwindfunclet$?iconChanged@applicationsAccessor@@IAEXABVQString@@0@Z$0 100201b0 f   moc_panelsetsAccessor.obj
 0001:0001f1b0       __unwindfunclet$?workstationDeleted@workstationSettingsAccessor@@IAEXABVQString@@ABV?$QValueList@VworkstationSettingsItem@@@@@Z$0 100201b0 f   moc_panelsetsAccessor.obj
 0001:0001f1b0       __unwindfunclet$?panelsetChanged@usersAccessor@@IAEXABVQString@@0@Z$0 100201b0 f   moc_panelsetsAccessor.obj
 0001:0001f1b0       __unwindfunclet$?typeChanged@applicationsAccessor@@IAEXABVQString@@0@Z$0 100201b0 f   moc_panelsetsAccessor.obj
 0001:0001f1b0       __unwindfunclet$?itemAdded@workstationSettingsAccessor@@IAEXABVQString@@ABVworkstationSettingsItem@@@Z$0 100201b0 f   moc_panelsetsAccessor.obj
 0001:0001f1b0       __unwindfunclet$?titleChanged@applicationsAccessor@@IAEXABVQString@@0@Z$0 100201b0 f   moc_panelsetsAccessor.obj
 0001:0001f1b0       __unwindfunclet$?itemDeleted@workstationSettingsAccessor@@IAEXABVQString@@ABVworkstationSettingsItem@@@Z$0 100201b0 f   moc_panelsetsAccessor.obj
 0001:0001f1b0       __unwindfunclet$?captionChanged@applicationsAccessor@@IAEXABVQString@@0@Z$0 100201b0 f   moc_panelsetsAccessor.obj
 0001:0001f1b0       __unwindfunclet$?itemRenamed@usersAccessor@@IAEXABVQString@@0@Z$0 100201b0 f   moc_panelsetsAccessor.obj
 0001:0001f1c4       __ehhandler$?captionChanged@applicationsAccessor@@IAEXABVQString@@0@Z 100201c4 f   moc_panelsetsAccessor.obj
 0001:0001f1c4       __ehhandler$?nameChanged@workstationsAccessor@@IAEXABVQString@@0@Z 100201c4 f   moc_panelsetsAccessor.obj
 0001:0001f1c4       __ehhandler$?itemDeleted@workstationSettingsAccessor@@IAEXABVQString@@ABVworkstationSettingsItem@@@Z 100201c4 f   moc_panelsetsAccessor.obj
 0001:0001f1c4       __ehhandler$?typeChanged@applicationsAccessor@@IAEXABVQString@@0@Z 100201c4 f   moc_panelsetsAccessor.obj
 0001:0001f1c4       __ehhandler$?itemAdded@workstationSettingsAccessor@@IAEXABVQString@@ABVworkstationSettingsItem@@@Z 100201c4 f   moc_panelsetsAccessor.obj
 0001:0001f1c4       __ehhandler$?iconChanged@applicationsAccessor@@IAEXABVQString@@0@Z 100201c4 f   moc_panelsetsAccessor.obj
 0001:0001f1c4       __ehhandler$?workstationDeleted@workstationSettingsAccessor@@IAEXABVQString@@ABV?$QValueList@VworkstationSettingsItem@@@@@Z 100201c4 f   moc_panelsetsAccessor.obj
 0001:0001f1c4       __ehhandler$?workstationRenamed@workstationSettingsAccessor@@IAEXABVQString@@0@Z 100201c4 f   moc_panelsetsAccessor.obj
 0001:0001f1c4       __ehhandler$?csiChanged@launchAccessor@@IAEXABVQString@@0@Z 100201c4 f   moc_panelsetsAccessor.obj
 0001:0001f1c4       __ehhandler$?launchRenamed@launchAccessor@@IAEXABVQString@@0@Z 100201c4 f   moc_panelsetsAccessor.obj
 0001:0001f1c4       __ehhandler$?userChanged@workstationsAccessor@@IAEXABVQString@@0@Z 100201c4 f   moc_panelsetsAccessor.obj
 0001:0001f1c4       __ehhandler$?itemRenamed@applicationsAccessor@@IAEXABVQString@@0@Z 100201c4 f   moc_panelsetsAccessor.obj
 0001:0001f1c4       __ehhandler$?workstationAdded@workstationSettingsAccessor@@IAEXABVQString@@ABV?$QValueList@VworkstationSettingsItem@@@@@Z 100201c4 f   moc_panelsetsAccessor.obj
 0001:0001f1c4       __ehhandler$?titleChanged@applicationsAccessor@@IAEXABVQString@@0@Z 100201c4 f   moc_panelsetsAccessor.obj
 0001:0001f1c4       __ehhandler$?itemRenamed@usersAccessor@@IAEXABVQString@@0@Z 100201c4 f   moc_panelsetsAccessor.obj
 0001:0001f1c4       __ehhandler$?panelsetRenamed@panelsetsAccessor@@IAEXABVQString@@0@Z 100201c4 f   moc_panelsetsAccessor.obj
 0001:0001f1c4       __ehhandler$?itemRenamed@workstationsAccessor@@IAEXABVQString@@0@Z 100201c4 f   moc_panelsetsAccessor.obj
 0001:0001f1c4       __ehhandler$?engsetChanged@usersAccessor@@IAEXABVQString@@0@Z 100201c4 f   moc_panelsetsAccessor.obj
 0001:0001f1c4       __ehhandler$?panelsetChanged@usersAccessor@@IAEXABVQString@@0@Z 100201c4 f   moc_panelsetsAccessor.obj
 0001:0001f1f0       __unwindfunclet$?panelsetDeleted@panelsetsAccessor@@IAEXABVQString@@0ABV?$QValueList@VpanelsetItem@@@@@Z$0 100201f0 f   moc_workstationsAccessor.obj
 0001:0001f1f0       __unwindfunclet$?itemAdded@workstationsAccessor@@IAEXABVQString@@00@Z$0 100201f0 f   moc_workstationsAccessor.obj
 0001:0001f1f0       __unwindfunclet$?itemAdded@usersAccessor@@IAEXABVQString@@00@Z$0 100201f0 f   moc_workstationsAccessor.obj
 0001:0001f1f0       __unwindfunclet$?panelsetAdded@panelsetsAccessor@@IAEXABVQString@@0ABV?$QValueList@VpanelsetItem@@@@@Z$0 100201f0 f   moc_workstationsAccessor.obj
 0001:0001f204       __ehhandler$?panelsetDeleted@panelsetsAccessor@@IAEXABVQString@@0ABV?$QValueList@VpanelsetItem@@@@@Z 10020204 f   moc_workstationsAccessor.obj
 0001:0001f204       __ehhandler$?itemAdded@workstationsAccessor@@IAEXABVQString@@00@Z 10020204 f   moc_workstationsAccessor.obj
 0001:0001f204       __ehhandler$?panelsetAdded@panelsetsAccessor@@IAEXABVQString@@0ABV?$QValueList@VpanelsetItem@@@@@Z 10020204 f   moc_workstationsAccessor.obj
 0001:0001f204       __ehhandler$?itemAdded@usersAccessor@@IAEXABVQString@@00@Z 10020204 f   moc_workstationsAccessor.obj
 0001:0001f230       __unwindfunclet$?itemDeleted@workstationsAccessor@@IAEXABVQString@@@Z$0 10020230 f   moc_workstationsAccessor.obj
 0001:0001f230       __unwindfunclet$?itemDeleted@usersAccessor@@IAEXABVQString@@@Z$0 10020230 f   moc_workstationsAccessor.obj
 0001:0001f230       __unwindfunclet$?itemDeleted@applicationsAccessor@@IAEXABVQString@@@Z$0 10020230 f   moc_workstationsAccessor.obj
 0001:0001f230       __unwindfunclet$??1workstationSettingsItem@@QAE@XZ$0 10020230 f   moc_workstationsAccessor.obj
 0001:0001f239       __ehhandler$??1workstationSettingsItem@@QAE@XZ 10020239 f   moc_workstationsAccessor.obj
 0001:0001f239       __ehhandler$?itemDeleted@workstationsAccessor@@IAEXABVQString@@@Z 10020239 f   moc_workstationsAccessor.obj
 0001:0001f239       __ehhandler$?itemDeleted@usersAccessor@@IAEXABVQString@@@Z 10020239 f   moc_workstationsAccessor.obj
 0001:0001f239       __ehhandler$?itemDeleted@applicationsAccessor@@IAEXABVQString@@@Z 10020239 f   moc_workstationsAccessor.obj
 0001:0001f260       ??__F?_Generic_object@?$_Error_objects@H@std@@2V_Generic_error_category@2@A@@YAXXZ 10020260 f   applicationsAccessor.obj
 0001:0001f270       ??__F?_Iostream_object@?$_Error_objects@H@std@@2V_Iostream_error_category@2@A@@YAXXZ 10020270 f   applicationsAccessor.obj
 0001:0001f280       ??__F?_System_object@?$_Error_objects@H@std@@2V_System_error_category@2@A@@YAXXZ 10020280 f   applicationsAccessor.obj
 0001:0001f290       ??__Fdocs@@YAXXZ           10020290 f   bncs_config.obj
 0001:0001f2a0       ??__FcleanUp_applicationsAccessor@@YAXXZ 100202a0 f   moc_applicationsAccessor.obj
 0001:0001f2b0       ??__FcleanUp_launchAccessor@@YAXXZ 100202b0 f   moc_launchAccessor.obj
 0001:0001f2c0       ??__FcleanUp_panelsetsAccessor@@YAXXZ 100202c0 f   moc_panelsetsAccessor.obj
 0001:0001f2d0       ??__FcleanUp_usersAccessor@@YAXXZ 100202d0 f   moc_usersAccessor.obj
 0001:0001f2e0       ??__FcleanUp_workstationsAccessor@@YAXXZ 100202e0 f   moc_workstationsAccessor.obj
 0001:0001f2f0       ??__FcleanUp_workstationSettingsAccessor@@YAXXZ 100202f0 f   moc_workstationSettingsAccessor.obj
 0002:00000380       ?_Generic_object$initializer$@?$_Error_objects@H@std@@2P6AXXZA 10021380     applicationsAccessor.obj
 0002:00000384       ?_Iostream_object$initializer$@?$_Error_objects@H@std@@2P6AXXZA 10021384     applicationsAccessor.obj
 0002:00000388       ?_System_object$initializer$@?$_Error_objects@H@std@@2P6AXXZA 10021388     applicationsAccessor.obj
 0002:0000038c       _docs$initializer$         1002138c     bncs_config.obj
 0002:00000390       _cleanUp_applicationsAccessor$initializer$ 10021390     moc_applicationsAccessor.obj
 0002:00000394       _cleanUp_launchAccessor$initializer$ 10021394     moc_launchAccessor.obj
 0002:00000398       _cleanUp_panelsetsAccessor$initializer$ 10021398     moc_panelsetsAccessor.obj
 0002:0000039c       _cleanUp_usersAccessor$initializer$ 1002139c     moc_usersAccessor.obj
 0002:000003a0       _cleanUp_workstationsAccessor$initializer$ 100213a0     moc_workstationsAccessor.obj
 0002:000003a4       _cleanUp_workstationSettingsAccessor$initializer$ 100213a4     moc_workstationSettingsAccessor.obj
 0002:000003b0       _pcinit                    100213b0     MSVCRT:crtdll.obj
 0002:000003b4       _pinit                     100213b4     MSVCRT:atonexit.obj
 0002:00000a48       ?signal_0@?3??staticMetaObject@applicationsAccessor@@SAPAVQMetaObject@@XZ@4UQUMethod@@B 10021a48     moc_applicationsAccessor.obj
 0002:00000a64       ?signal_1@?3??staticMetaObject@applicationsAccessor@@SAPAVQMetaObject@@XZ@4UQUMethod@@B 10021a64     moc_applicationsAccessor.obj
 0002:00000a80       ?signal_2@?3??staticMetaObject@applicationsAccessor@@SAPAVQMetaObject@@XZ@4UQUMethod@@B 10021a80     moc_applicationsAccessor.obj
 0002:00000a98       ?signal_3@?3??staticMetaObject@applicationsAccessor@@SAPAVQMetaObject@@XZ@4UQUMethod@@B 10021a98     moc_applicationsAccessor.obj
 0002:00000ab0       ?signal_4@?3??staticMetaObject@applicationsAccessor@@SAPAVQMetaObject@@XZ@4UQUMethod@@B 10021ab0     moc_applicationsAccessor.obj
 0002:00000ac8       ?signal_5@?3??staticMetaObject@applicationsAccessor@@SAPAVQMetaObject@@XZ@4UQUMethod@@B 10021ac8     moc_applicationsAccessor.obj
 0002:00000af0       ?signal_6@?3??staticMetaObject@applicationsAccessor@@SAPAVQMetaObject@@XZ@4UQUMethod@@B 10021af0     moc_applicationsAccessor.obj
 0002:00000b08       ?signal_7@?3??staticMetaObject@applicationsAccessor@@SAPAVQMetaObject@@XZ@4UQUMethod@@B 10021b08     moc_applicationsAccessor.obj
 0002:00000b20       ?signal_tbl@?3??staticMetaObject@applicationsAccessor@@SAPAVQMetaObject@@XZ@4QBUQMetaData@@B 10021b20     moc_applicationsAccessor.obj
 0002:00000d14       ?signal_0@?3??staticMetaObject@launchAccessor@@SAPAVQMetaObject@@XZ@4UQUMethod@@B 10021d14     moc_launchAccessor.obj
 0002:00000d3c       ?signal_1@?3??staticMetaObject@launchAccessor@@SAPAVQMetaObject@@XZ@4UQUMethod@@B 10021d3c     moc_launchAccessor.obj
 0002:00000d58       ?signal_2@?3??staticMetaObject@launchAccessor@@SAPAVQMetaObject@@XZ@4UQUMethod@@B 10021d58     moc_launchAccessor.obj
 0002:00000d84       ?signal_3@?3??staticMetaObject@launchAccessor@@SAPAVQMetaObject@@XZ@4UQUMethod@@B 10021d84     moc_launchAccessor.obj
 0002:00000d90       ?signal_4@?3??staticMetaObject@launchAccessor@@SAPAVQMetaObject@@XZ@4UQUMethod@@B 10021d90     moc_launchAccessor.obj
 0002:00000d9c       ?signal_5@?3??staticMetaObject@launchAccessor@@SAPAVQMetaObject@@XZ@4UQUMethod@@B 10021d9c     moc_launchAccessor.obj
 0002:00000db8       ?signal_6@?3??staticMetaObject@launchAccessor@@SAPAVQMetaObject@@XZ@4UQUMethod@@B 10021db8     moc_launchAccessor.obj
 0002:00000dd0       ?signal_7@?3??staticMetaObject@launchAccessor@@SAPAVQMetaObject@@XZ@4UQUMethod@@B 10021dd0     moc_launchAccessor.obj
 0002:00000ddc       ?signal_8@?3??staticMetaObject@launchAccessor@@SAPAVQMetaObject@@XZ@4UQUMethod@@B 10021ddc     moc_launchAccessor.obj
 0002:00000df4       ?signal_9@?3??staticMetaObject@launchAccessor@@SAPAVQMetaObject@@XZ@4UQUMethod@@B 10021df4     moc_launchAccessor.obj
 0002:00000e10       ?signal_10@?3??staticMetaObject@launchAccessor@@SAPAVQMetaObject@@XZ@4UQUMethod@@B 10021e10     moc_launchAccessor.obj
 0002:00000e30       ?signal_11@?3??staticMetaObject@launchAccessor@@SAPAVQMetaObject@@XZ@4UQUMethod@@B 10021e30     moc_launchAccessor.obj
 0002:00000e50       ?signal_12@?3??staticMetaObject@launchAccessor@@SAPAVQMetaObject@@XZ@4UQUMethod@@B 10021e50     moc_launchAccessor.obj
 0002:00000e70       ?signal_13@?3??staticMetaObject@launchAccessor@@SAPAVQMetaObject@@XZ@4UQUMethod@@B 10021e70     moc_launchAccessor.obj
 0002:00000e90       ?signal_tbl@?3??staticMetaObject@launchAccessor@@SAPAVQMetaObject@@XZ@4QBUQMetaData@@B 10021e90     moc_launchAccessor.obj
 0002:000011e0       ?signal_0@?3??staticMetaObject@panelsetsAccessor@@SAPAVQMetaObject@@XZ@4UQUMethod@@B 100221e0     moc_panelsetsAccessor.obj
 0002:00001214       ?signal_1@?3??staticMetaObject@panelsetsAccessor@@SAPAVQMetaObject@@XZ@4UQUMethod@@B 10022214     moc_panelsetsAccessor.obj
 0002:00001230       ?signal_2@?3??staticMetaObject@panelsetsAccessor@@SAPAVQMetaObject@@XZ@4UQUMethod@@B 10022230     moc_panelsetsAccessor.obj
 0002:00001268       ?signal_3@?3??staticMetaObject@panelsetsAccessor@@SAPAVQMetaObject@@XZ@4UQUMethod@@B 10022268     moc_panelsetsAccessor.obj
 0002:00001274       ?signal_4@?3??staticMetaObject@panelsetsAccessor@@SAPAVQMetaObject@@XZ@4UQUMethod@@B 10022274     moc_panelsetsAccessor.obj
 0002:00001280       ?signal_5@?3??staticMetaObject@panelsetsAccessor@@SAPAVQMetaObject@@XZ@4UQUMethod@@B 10022280     moc_panelsetsAccessor.obj
 0002:0000128c       ?signal_6@?3??staticMetaObject@panelsetsAccessor@@SAPAVQMetaObject@@XZ@4UQUMethod@@B 1002228c     moc_panelsetsAccessor.obj
 0002:00001298       ?signal_7@?3??staticMetaObject@panelsetsAccessor@@SAPAVQMetaObject@@XZ@4UQUMethod@@B 10022298     moc_panelsetsAccessor.obj
 0002:000012a8       ?signal_tbl@?3??staticMetaObject@panelsetsAccessor@@SAPAVQMetaObject@@XZ@4QBUQMetaData@@B 100222a8     moc_panelsetsAccessor.obj
 0002:000014ac       ?signal_0@?3??staticMetaObject@usersAccessor@@SAPAVQMetaObject@@XZ@4UQUMethod@@B 100224ac     moc_usersAccessor.obj
 0002:000014c8       ?signal_1@?3??staticMetaObject@usersAccessor@@SAPAVQMetaObject@@XZ@4UQUMethod@@B 100224c8     moc_usersAccessor.obj
 0002:000014e4       ?signal_2@?3??staticMetaObject@usersAccessor@@SAPAVQMetaObject@@XZ@4UQUMethod@@B 100224e4     moc_usersAccessor.obj
 0002:000014f0       ?signal_3@?3??staticMetaObject@usersAccessor@@SAPAVQMetaObject@@XZ@4UQUMethod@@B 100224f0     moc_usersAccessor.obj
 0002:000014fc       ?signal_4@?3??staticMetaObject@usersAccessor@@SAPAVQMetaObject@@XZ@4UQUMethod@@B 100224fc     moc_usersAccessor.obj
 0002:00001508       ?signal_5@?3??staticMetaObject@usersAccessor@@SAPAVQMetaObject@@XZ@4UQUMethod@@B 10022508     moc_usersAccessor.obj
 0002:00001518       ?signal_tbl@?3??staticMetaObject@usersAccessor@@SAPAVQMetaObject@@XZ@4QBUQMetaData@@B 10022518     moc_usersAccessor.obj
 0002:00001610       ?signal_0@?3??staticMetaObject@workstationsAccessor@@SAPAVQMetaObject@@XZ@4UQUMethod@@B 10022610     moc_workstationsAccessor.obj
 0002:00001628       ?signal_1@?3??staticMetaObject@workstationsAccessor@@SAPAVQMetaObject@@XZ@4UQUMethod@@B 10022628     moc_workstationsAccessor.obj
 0002:00001640       ?signal_2@?3??staticMetaObject@workstationsAccessor@@SAPAVQMetaObject@@XZ@4UQUMethod@@B 10022640     moc_workstationsAccessor.obj
 0002:0000164c       ?signal_3@?3??staticMetaObject@workstationsAccessor@@SAPAVQMetaObject@@XZ@4UQUMethod@@B 1002264c     moc_workstationsAccessor.obj
 0002:00001658       ?signal_4@?3??staticMetaObject@workstationsAccessor@@SAPAVQMetaObject@@XZ@4UQUMethod@@B 10022658     moc_workstationsAccessor.obj
 0002:00001664       ?signal_5@?3??staticMetaObject@workstationsAccessor@@SAPAVQMetaObject@@XZ@4UQUMethod@@B 10022664     moc_workstationsAccessor.obj
 0002:00001670       ?signal_tbl@?3??staticMetaObject@workstationsAccessor@@SAPAVQMetaObject@@XZ@4QBUQMetaData@@B 10022670     moc_workstationsAccessor.obj
 0002:00001748       ?signal_0@?3??staticMetaObject@workstationSettingsAccessor@@SAPAVQMetaObject@@XZ@4UQUMethod@@B 10022748     moc_workstationSettingsAccessor.obj
 0002:00001768       ?signal_1@?3??staticMetaObject@workstationSettingsAccessor@@SAPAVQMetaObject@@XZ@4UQUMethod@@B 10022768     moc_workstationSettingsAccessor.obj
 0002:00001788       ?signal_2@?3??staticMetaObject@workstationSettingsAccessor@@SAPAVQMetaObject@@XZ@4UQUMethod@@B 10022788     moc_workstationSettingsAccessor.obj
 0002:000017c0       ?signal_3@?3??staticMetaObject@workstationSettingsAccessor@@SAPAVQMetaObject@@XZ@4UQUMethod@@B 100227c0     moc_workstationSettingsAccessor.obj
 0002:000017cc       ?signal_4@?3??staticMetaObject@workstationSettingsAccessor@@SAPAVQMetaObject@@XZ@4UQUMethod@@B 100227cc     moc_workstationSettingsAccessor.obj
 0002:000017d8       ?signal_5@?3??staticMetaObject@workstationSettingsAccessor@@SAPAVQMetaObject@@XZ@4UQUMethod@@B 100227d8     moc_workstationSettingsAccessor.obj
 0002:000017e8       ?signal_tbl@?3??staticMetaObject@workstationSettingsAccessor@@SAPAVQMetaObject@@XZ@4QBUQMetaData@@B 100227e8     moc_workstationSettingsAccessor.obj
 0002:00001974       _GS_ExceptionPointers      10022974     MSVCRT:gs_report.obj
 0002:00002708       __ehfuncinfo$?setAttribute@workstationsAccessor@@AAE_NABVQString@@00@Z 10023708     applicationsAccessor.obj
 0002:00002708       __ehfuncinfo$?setAttribute@launchAccessor@@AAE_NABVQString@@00@Z 10023708     applicationsAccessor.obj
 0002:00002708       __ehfuncinfo$?setAttribute@applicationsAccessor@@AAE_NABVQString@@00@Z 10023708     applicationsAccessor.obj
 0002:00002708       __ehfuncinfo$?setAttribute@usersAccessor@@AAE_NABVQString@@00@Z 10023708     applicationsAccessor.obj
 0002:0000272c       __unwindtable$?setAttribute@launchAccessor@@AAE_NABVQString@@00@Z 1002372c     applicationsAccessor.obj
 0002:0000272c       __unwindtable$?setAttribute@workstationsAccessor@@AAE_NABVQString@@00@Z 1002372c     applicationsAccessor.obj
 0002:0000272c       __unwindtable$?setAttribute@applicationsAccessor@@AAE_NABVQString@@00@Z 1002372c     applicationsAccessor.obj
 0002:0000272c       __unwindtable$?setAttribute@usersAccessor@@AAE_NABVQString@@00@Z 1002372c     applicationsAccessor.obj
 0002:0000275c       __unwindtable$?setArguments@launchAccessor@@QAE_NABVQString@@H0@Z 1002375c     applicationsAccessor.obj
 0002:0000275c       __unwindtable$?setApplication@launchAccessor@@QAE_NABVQString@@H0@Z 1002375c     applicationsAccessor.obj
 0002:0000275c       __unwindtable$?setPanelset@usersAccessor@@QAE_NABVQString@@0@Z 1002375c     applicationsAccessor.obj
 0002:0000275c       __unwindtable$?setName@workstationsAccessor@@QAE_NABVQString@@0@Z 1002375c     applicationsAccessor.obj
 0002:0000275c       __unwindtable$?setIcon@applicationsAccessor@@QAE_NABVQString@@0@Z 1002375c     applicationsAccessor.obj
 0002:0000275c       __unwindtable$?setEngset@usersAccessor@@QAE_NABVQString@@0@Z 1002375c     applicationsAccessor.obj
 0002:0000275c       __unwindtable$?setType@applicationsAccessor@@QAE_NABVQString@@0@Z 1002375c     applicationsAccessor.obj
 0002:0000275c       __unwindtable$?setWorkingdir@launchAccessor@@QAE_NABVQString@@H0@Z 1002375c     applicationsAccessor.obj
 0002:0000275c       __unwindtable$?setTitle@applicationsAccessor@@QAE_NABVQString@@0@Z 1002375c     applicationsAccessor.obj
 0002:0000275c       __unwindtable$?setCSI@launchAccessor@@QAE_NABVQString@@0@Z 1002375c     applicationsAccessor.obj
 0002:0000275c       __unwindtable$?setCaption@applicationsAccessor@@QAE_NABVQString@@0@Z 1002375c     applicationsAccessor.obj
 0002:0000275c       __unwindtable$?setUser@workstationsAccessor@@QAE_NABVQString@@0@Z 1002375c     applicationsAccessor.obj
 0002:00002764       __ehfuncinfo$?setCSI@launchAccessor@@QAE_NABVQString@@0@Z 10023764     applicationsAccessor.obj
 0002:00002764       __ehfuncinfo$?setTitle@applicationsAccessor@@QAE_NABVQString@@0@Z 10023764     applicationsAccessor.obj
 0002:00002764       __ehfuncinfo$?setType@applicationsAccessor@@QAE_NABVQString@@0@Z 10023764     applicationsAccessor.obj
 0002:00002764       __ehfuncinfo$?setUser@workstationsAccessor@@QAE_NABVQString@@0@Z 10023764     applicationsAccessor.obj
 0002:00002764       __ehfuncinfo$?setIcon@applicationsAccessor@@QAE_NABVQString@@0@Z 10023764     applicationsAccessor.obj
 0002:00002764       __ehfuncinfo$?setArguments@launchAccessor@@QAE_NABVQString@@H0@Z 10023764     applicationsAccessor.obj
 0002:00002764       __ehfuncinfo$?setEngset@usersAccessor@@QAE_NABVQString@@0@Z 10023764     applicationsAccessor.obj
 0002:00002764       __ehfuncinfo$?setName@workstationsAccessor@@QAE_NABVQString@@0@Z 10023764     applicationsAccessor.obj
 0002:00002764       __ehfuncinfo$?setCaption@applicationsAccessor@@QAE_NABVQString@@0@Z 10023764     applicationsAccessor.obj
 0002:00002764       __ehfuncinfo$?setPanelset@usersAccessor@@QAE_NABVQString@@0@Z 10023764     applicationsAccessor.obj
 0002:00002764       __ehfuncinfo$?setWorkingdir@launchAccessor@@QAE_NABVQString@@H0@Z 10023764     applicationsAccessor.obj
 0002:00002764       __ehfuncinfo$?setApplication@launchAccessor@@QAE_NABVQString@@H0@Z 10023764     applicationsAccessor.obj
 0002:00002788       __ehfuncinfo$?addItem@applicationsAccessor@@QAE_NABVQString@@0000@Z 10023788     applicationsAccessor.obj
 0002:000027ac       __unwindtable$?addItem@applicationsAccessor@@QAE_NABVQString@@0000@Z 100237ac     applicationsAccessor.obj
 0002:000027f4       __ehfuncinfo$?deleteWorkstation@workstationsAccessor@@QAE_NABVQString@@@Z 100237f4     applicationsAccessor.obj
 0002:000027f4       __ehfuncinfo$?deleteItem@applicationsAccessor@@QAE_NABVQString@@@Z 100237f4     applicationsAccessor.obj
 0002:00002818       __unwindtable$?deleteWorkstation@workstationsAccessor@@QAE_NABVQString@@@Z 10023818     applicationsAccessor.obj
 0002:00002818       __unwindtable$?deleteItem@applicationsAccessor@@QAE_NABVQString@@@Z 10023818     applicationsAccessor.obj
 0002:00002848       __ehfuncinfo$?item@applicationsAccessor@@QAE_NABVQString@@AAV2@111@Z 10023848     applicationsAccessor.obj
 0002:0000286c       __unwindtable$?item@applicationsAccessor@@QAE_NABVQString@@AAV2@111@Z 1002386c     applicationsAccessor.obj
 0002:000028dc       __ehfuncinfo$?nextItem@applicationsAccessor@@QAE_NAAVQString@@0000@Z 100238dc     applicationsAccessor.obj
 0002:00002900       __unwindtable$?nextItem@applicationsAccessor@@QAE_NAAVQString@@0000@Z 10023900     applicationsAccessor.obj
 0002:00002960       __ehfuncinfo$?setAttribute@panelsetsAccessor@@AAE_NABVQString@@00@Z 10023960     applicationsAccessor.obj
 0002:00002960       __ehfuncinfo$?exists@usersAccessor@@QAE_NABVQString@@@Z 10023960     applicationsAccessor.obj
 0002:00002960       __ehfuncinfo$?exists@workstationSettingsAccessor@@QAE_NABVQString@@@Z 10023960     applicationsAccessor.obj
 0002:00002960       __ehfuncinfo$?exists@panelsetsAccessor@@QAE_NABVQString@@@Z 10023960     applicationsAccessor.obj
 0002:00002960       __ehfuncinfo$?exists@launchAccessor@@QAE_NABVQString@@@Z 10023960     applicationsAccessor.obj
 0002:00002960       __ehfuncinfo$?exists@applicationsAccessor@@QAE_NABVQString@@@Z 10023960     applicationsAccessor.obj
 0002:00002960       __ehfuncinfo$?exists@workstationsAccessor@@QAE_NABVQString@@@Z 10023960     applicationsAccessor.obj
 0002:00002960       __ehfuncinfo$?setAttribute@workstationSettingsAccessor@@AAE_NABVQString@@00@Z 10023960     applicationsAccessor.obj
 0002:00002984       __unwindtable$?exists@launchAccessor@@QAE_NABVQString@@@Z 10023984     applicationsAccessor.obj
 0002:00002984       __unwindtable$?exists@usersAccessor@@QAE_NABVQString@@@Z 10023984     applicationsAccessor.obj
 0002:00002984       __unwindtable$?setAttribute@workstationSettingsAccessor@@AAE_NABVQString@@00@Z 10023984     applicationsAccessor.obj
 0002:00002984       __unwindtable$?setAttribute@panelsetsAccessor@@AAE_NABVQString@@00@Z 10023984     applicationsAccessor.obj
 0002:00002984       __unwindtable$?exists@workstationSettingsAccessor@@QAE_NABVQString@@@Z 10023984     applicationsAccessor.obj
 0002:00002984       __unwindtable$?exists@workstationsAccessor@@QAE_NABVQString@@@Z 10023984     applicationsAccessor.obj
 0002:00002984       __unwindtable$?exists@panelsetsAccessor@@QAE_NABVQString@@@Z 10023984     applicationsAccessor.obj
 0002:00002984       __unwindtable$?exists@applicationsAccessor@@QAE_NABVQString@@@Z 10023984     applicationsAccessor.obj
 0002:000029b4       __catchsym$?_Copy@?$basic_string@DU?$char_traits@D@std@@V?$allocator@D@2@@std@@QAEXII@Z$5 100239b4     applicationsAccessor.obj
 0002:000029c4       __catchsym$?_Copy@?$basic_string@DU?$char_traits@D@std@@V?$allocator@D@2@@std@@QAEXII@Z$4 100239c4     applicationsAccessor.obj
 0002:000029d4       __unwindtable$?_Copy@?$basic_string@DU?$char_traits@D@std@@V?$allocator@D@2@@std@@QAEXII@Z 100239d4     applicationsAccessor.obj
 0002:000029f4       __ehfuncinfo$?_Copy@?$basic_string@DU?$char_traits@D@std@@V?$allocator@D@2@@std@@QAEXII@Z 100239f4     applicationsAccessor.obj
 0002:00002a18       __tryblocktable$?_Copy@?$basic_string@DU?$char_traits@D@std@@V?$allocator@D@2@@std@@QAEXII@Z 10023a18     applicationsAccessor.obj
 0002:00002a40       __ehfuncinfo$??0bncs_config@@QAE@ABVbncs_string@@@Z 10023a40     bncs_config.obj
 0002:00002a64       __unwindtable$??0bncs_config@@QAE@ABVbncs_string@@@Z 10023a64     bncs_config.obj
 0002:00002afc       __unwindtable$??4bncs_config@@QAEAAV0@ABV0@@Z 10023afc     bncs_config.obj
 0002:00002afc       __unwindtable$??0bncs_config@@QAE@ABV0@@Z 10023afc     bncs_config.obj
 0002:00002b0c       __ehfuncinfo$??4bncs_config@@QAEAAV0@ABV0@@Z 10023b0c     bncs_config.obj
 0002:00002b0c       __ehfuncinfo$??0bncs_config@@QAE@ABV0@@Z 10023b0c     bncs_config.obj
 0002:00002b30       __unwindtable$?isValid@bncs_config@@QAE_NXZ 10023b30     bncs_config.obj
 0002:00002b30       __unwindtable$?isChildValid@bncs_config@@QAE_NXZ 10023b30     bncs_config.obj
 0002:00002b38       __ehfuncinfo$?isValid@bncs_config@@QAE_NXZ 10023b38     bncs_config.obj
 0002:00002b38       __ehfuncinfo$?isChildValid@bncs_config@@QAE_NXZ 10023b38     bncs_config.obj
 0002:00002b5c       __ehfuncinfo$?childAttr@bncs_config@@QAE?AVbncs_string@@ABV2@@Z 10023b5c     bncs_config.obj
 0002:00002b5c       __ehfuncinfo$?attr@bncs_config@@QAE?AVbncs_string@@ABV2@@Z 10023b5c     bncs_config.obj
 0002:00002b80       __unwindtable$?attr@bncs_config@@QAE?AVbncs_string@@ABV2@@Z 10023b80     bncs_config.obj
 0002:00002b80       __unwindtable$?childAttr@bncs_config@@QAE?AVbncs_string@@ABV2@@Z 10023b80     bncs_config.obj
 0002:00002ba8       __unwindtable$?tag@bncs_config@@QAE?AVbncs_string@@XZ 10023ba8     bncs_config.obj
 0002:00002ba8       __unwindtable$?childTag@bncs_config@@QAE?AVbncs_string@@XZ 10023ba8     bncs_config.obj
 0002:00002bc0       __ehfuncinfo$?tag@bncs_config@@QAE?AVbncs_string@@XZ 10023bc0     bncs_config.obj
 0002:00002bc0       __ehfuncinfo$?childTag@bncs_config@@QAE?AVbncs_string@@XZ 10023bc0     bncs_config.obj
 0002:00002be4       __unwindtable$?nextChild@bncs_config@@QAE_NXZ 10023be4     bncs_config.obj
 0002:00002be4       __unwindtable$?drillDown@bncs_config@@QAEXXZ 10023be4     bncs_config.obj
 0002:00002bec       __ehfuncinfo$?nextChild@bncs_config@@QAE_NXZ 10023bec     bncs_config.obj
 0002:00002bec       __ehfuncinfo$?drillDown@bncs_config@@QAEXXZ 10023bec     bncs_config.obj
 0002:00002c10       __unwindtable$?data@bncs_config@@QAE?AVbncs_string@@XZ 10023c10     bncs_config.obj
 0002:00002c30       __ehfuncinfo$?data@bncs_config@@QAE?AVbncs_string@@XZ 10023c30     bncs_config.obj
 0002:00002c54       __ehfuncinfo$?save@bncs_config@@SA_NXZ 10023c54     bncs_config.obj
 0002:00002c78       __unwindtable$?save@bncs_config@@SA_NXZ 10023c78     bncs_config.obj
 0002:00002ce8       __unwindtable$?cachedDoc@bncs_config@@SAPAVQDomDocument@@ABVbncs_string@@@Z 10023ce8     bncs_config.obj
 0002:00002ce8       __unwindtable$?decSerial@bncs_config@@SAHABVbncs_string@@@Z 10023ce8     bncs_config.obj
 0002:00002ce8       __unwindtable$?isDirty@bncs_config@@SA_NABVbncs_string@@@Z 10023ce8     bncs_config.obj
 0002:00002ce8       __unwindtable$?incSerial@bncs_config@@SAHABVbncs_string@@@Z 10023ce8     bncs_config.obj
 0002:00002ce8       __unwindtable$?changeSerial@bncs_config@@SAHABVbncs_string@@@Z 10023ce8     bncs_config.obj
 0002:00002cf0       __ehfuncinfo$?isDirty@bncs_config@@SA_NABVbncs_string@@@Z 10023cf0     bncs_config.obj
 0002:00002cf0       __ehfuncinfo$?changeSerial@bncs_config@@SAHABVbncs_string@@@Z 10023cf0     bncs_config.obj
 0002:00002cf0       __ehfuncinfo$?cachedDoc@bncs_config@@SAPAVQDomDocument@@ABVbncs_string@@@Z 10023cf0     bncs_config.obj
 0002:00002cf0       __ehfuncinfo$?incSerial@bncs_config@@SAHABVbncs_string@@@Z 10023cf0     bncs_config.obj
 0002:00002cf0       __ehfuncinfo$?decSerial@bncs_config@@SAHABVbncs_string@@@Z 10023cf0     bncs_config.obj
 0002:00002d14       __ehfuncinfo$?loadDoc@bncs_config@@CAPAVQDomDocument@@ABVbncs_string@@@Z 10023d14     bncs_config.obj
 0002:00002d38       __unwindtable$?loadDoc@bncs_config@@CAPAVQDomDocument@@ABVbncs_string@@@Z 10023d38     bncs_config.obj
 0002:00002da8       __unwindtable$?correctNodeForComments@bncs_config@@AAE_NAAVQDomNode@@@Z 10023da8     bncs_config.obj
 0002:00002db8       __ehfuncinfo$?correctNodeForComments@bncs_config@@AAE_NAAVQDomNode@@@Z 10023db8     bncs_config.obj
 0002:00002ddc       __unwindtable$??1docCache@@UAE@XZ 10023ddc     bncs_config.obj
 0002:00002de4       __ehfuncinfo$??1docCache@@UAE@XZ 10023de4     bncs_config.obj
 0002:00002e08       __unwindtable$?insert@docCache@@QAEXABVQString@@PAVcachedData@@@Z 10023e08     bncs_config.obj
 0002:00002e10       __ehfuncinfo$?insert@docCache@@QAEXABVQString@@PAVcachedData@@@Z 10023e10     bncs_config.obj
 0002:00002e34       __catchsym$??$_Buynode@U?$pair@VQString@@PAVcachedData@@@std@@@?$_Tree_buy@U?$pair@$$CBVQString@@PAVcachedData@@@std@@V?$allocator@U?$pair@$$CBVQString@@PAVcachedData@@@std@@@2@@std@@QAEPAU?$_Tree_node@U?$pair@$$CBVQString@@PAVcachedData@@@std@@PAX@1@$$QAU?$pair@VQString@@PAVcachedData@@@1@@Z$4 10023e34     bncs_config.obj
 0002:00002e44       __tryblocktable$??$_Buynode@U?$pair@VQString@@PAVcachedData@@@std@@@?$_Tree_buy@U?$pair@$$CBVQString@@PAVcachedData@@@std@@V?$allocator@U?$pair@$$CBVQString@@PAVcachedData@@@std@@@2@@std@@QAEPAU?$_Tree_node@U?$pair@$$CBVQString@@PAVcachedData@@@std@@PAX@1@$$QAU?$pair@VQString@@PAVcachedData@@@1@@Z 10023e44     bncs_config.obj
 0002:00002e58       __unwindtable$??$_Buynode@U?$pair@VQString@@PAVcachedData@@@std@@@?$_Tree_buy@U?$pair@$$CBVQString@@PAVcachedData@@@std@@V?$allocator@U?$pair@$$CBVQString@@PAVcachedData@@@std@@@2@@std@@QAEPAU?$_Tree_node@U?$pair@$$CBVQString@@PAVcachedData@@@std@@PAX@1@$$QAU?$pair@VQString@@PAVcachedData@@@1@@Z 10023e58     bncs_config.obj
 0002:00002e70       __ehfuncinfo$??$_Buynode@U?$pair@VQString@@PAVcachedData@@@std@@@?$_Tree_buy@U?$pair@$$CBVQString@@PAVcachedData@@@std@@V?$allocator@U?$pair@$$CBVQString@@PAVcachedData@@@std@@@2@@std@@QAEPAU?$_Tree_node@U?$pair@$$CBVQString@@PAVcachedData@@@std@@PAX@1@$$QAU?$pair@VQString@@PAVcachedData@@@1@@Z 10023e70     bncs_config.obj
 0002:00002e94       __catchsym$??$_Insert_nohint@AAU?$pair@$$CBVQString@@PAVcachedData@@@std@@PAU?$_Tree_node@U?$pair@$$CBVQString@@PAVcachedData@@@std@@PAX@2@@?$_Tree@V?$_Tmap_traits@VQString@@PAVcachedData@@U?$less@VQString@@@std@@V?$allocator@U?$pair@$$CBVQString@@PAVcachedData@@@std@@@4@$0A@@std@@@std@@IAE?AU?$pair@V?$_Tree_iterator@V?$_Tree_val@U?$_Tree_simple_types@U?$pair@$$CBVQString@@PAVcachedData@@@std@@@std@@@std@@@std@@_N@1@_NAAU?$pair@$$CBVQString@@PAVcachedData@@@1@PAU?$_Tree_node@U?$pair@$$CBVQString@@PAVcachedData@@@std@@PAX@1@@Z$3 10023e94     bncs_config.obj
 0002:00002ea4       __unwindtable$??$_Insert_nohint@AAU?$pair@$$CBVQString@@PAVcachedData@@@std@@PAU?$_Tree_node@U?$pair@$$CBVQString@@PAVcachedData@@@std@@PAX@2@@?$_Tree@V?$_Tmap_traits@VQString@@PAVcachedData@@U?$less@VQString@@@std@@V?$allocator@U?$pair@$$CBVQString@@PAVcachedData@@@std@@@4@$0A@@std@@@std@@IAE?AU?$pair@V?$_Tree_iterator@V?$_Tree_val@U?$_Tree_simple_types@U?$pair@$$CBVQString@@PAVcachedData@@@std@@@std@@@std@@@std@@_N@1@_NAAU?$pair@$$CBVQString@@PAVcachedData@@@1@PAU?$_Tree_node@U?$pair@$$CBVQString@@PAVcachedData@@@std@@PAX@1@@Z 10023ea4     bncs_config.obj
 0002:00002eb4       __tryblocktable$??$_Insert_nohint@AAU?$pair@$$CBVQString@@PAVcachedData@@@std@@PAU?$_Tree_node@U?$pair@$$CBVQString@@PAVcachedData@@@std@@PAX@2@@?$_Tree@V?$_Tmap_traits@VQString@@PAVcachedData@@U?$less@VQString@@@std@@V?$allocator@U?$pair@$$CBVQString@@PAVcachedData@@@std@@@4@$0A@@std@@@std@@IAE?AU?$pair@V?$_Tree_iterator@V?$_Tree_val@U?$_Tree_simple_types@U?$pair@$$CBVQString@@PAVcachedData@@@std@@@std@@@std@@@std@@_N@1@_NAAU?$pair@$$CBVQString@@PAVcachedData@@@1@PAU?$_Tree_node@U?$pair@$$CBVQString@@PAVcachedData@@@std@@PAX@1@@Z 10023eb4     bncs_config.obj
 0002:00002ec8       __ehfuncinfo$??$_Insert_nohint@AAU?$pair@$$CBVQString@@PAVcachedData@@@std@@PAU?$_Tree_node@U?$pair@$$CBVQString@@PAVcachedData@@@std@@PAX@2@@?$_Tree@V?$_Tmap_traits@VQString@@PAVcachedData@@U?$less@VQString@@@std@@V?$allocator@U?$pair@$$CBVQString@@PAVcachedData@@@std@@@4@$0A@@std@@@std@@IAE?AU?$pair@V?$_Tree_iterator@V?$_Tree_val@U?$_Tree_simple_types@U?$pair@$$CBVQString@@PAVcachedData@@@std@@@std@@@std@@@std@@_N@1@_NAAU?$pair@$$CBVQString@@PAVcachedData@@@1@PAU?$_Tree_node@U?$pair@$$CBVQString@@PAVcachedData@@@std@@PAX@1@@Z 10023ec8     bncs_config.obj
 0002:00002eec       __unwindtable$?insert@?$QMap@VQString@@VparamInfo@@@@QAE?AU?$QPair@V?$QMapIterator@VQString@@VparamInfo@@@@_N@@ABU?$QPair@$$CBVQString@@VparamInfo@@@@@Z 10023eec     instanceLookup.obj
 0002:00002eec       __unwindtable$?insert@?$QMap@VQString@@VdeviceTypeInfo@@@@QAE?AU?$QPair@V?$QMapIterator@VQString@@VdeviceTypeInfo@@@@_N@@ABU?$QPair@$$CBVQString@@VdeviceTypeInfo@@@@@Z 10023eec     instanceLookup.obj
 0002:00002eec       __unwindtable$?insert@?$QMap@VQString@@VinstanceInfo@@@@QAE?AU?$QPair@V?$QMapIterator@VQString@@VinstanceInfo@@@@_N@@ABU?$QPair@$$CBVQString@@VinstanceInfo@@@@@Z 10023eec     instanceLookup.obj
 0002:00002eec       __unwindtable$?insert@?$QMap@VQString@@VcomplexType@@@@QAE?AU?$QPair@V?$QMapIterator@VQString@@VcomplexType@@@@_N@@ABU?$QPair@$$CBVQString@@VcomplexType@@@@@Z 10023eec     instanceLookup.obj
 0002:00002eec       __unwindtable$?insert@?$QMap@VQString@@VdeviceTypeInfo@@@@QAE?AV?$QMapIterator@VQString@@VdeviceTypeInfo@@@@ABVQString@@ABVdeviceTypeInfo@@_N@Z 10023eec     instanceLookup.obj
 0002:00002eec       __unwindtable$?insert@?$QMap@VQString@@VparamInfo@@@@QAE?AV?$QMapIterator@VQString@@VparamInfo@@@@ABVQString@@ABVparamInfo@@_N@Z 10023eec     instanceLookup.obj
 0002:00002eec       __unwindtable$?insert@?$QMap@VQString@@VcomplexType@@@@QAE?AV?$QMapIterator@VQString@@VcomplexType@@@@ABVQString@@ABVcomplexType@@_N@Z 10023eec     instanceLookup.obj
 0002:00002eec       __unwindtable$?insert@?$QMap@VQString@@VcomplexInstance@@@@QAE?AU?$QPair@V?$QMapIterator@VQString@@VcomplexInstance@@@@_N@@ABU?$QPair@$$CBVQString@@VcomplexInstance@@@@@Z 10023eec     instanceLookup.obj
 0002:00002eec       __unwindtable$?insert@?$QMap@VQString@@VinstanceInfo@@@@QAE?AV?$QMapIterator@VQString@@VinstanceInfo@@@@ABVQString@@ABVinstanceInfo@@_N@Z 10023eec     instanceLookup.obj
 0002:00002eec       __unwindtable$?insert@?$QMap@VQString@@VcomplexParam@@@@QAE?AV?$QMapIterator@VQString@@VcomplexParam@@@@ABVQString@@ABVcomplexParam@@_N@Z 10023eec     instanceLookup.obj
 0002:00002eec       __unwindtable$?insert@?$QMap@VQString@@VcomplexParam@@@@QAE?AU?$QPair@V?$QMapIterator@VQString@@VcomplexParam@@@@_N@@ABU?$QPair@$$CBVQString@@VcomplexParam@@@@@Z 10023eec     instanceLookup.obj
 0002:00002eec       __unwindtable$?insert@?$QMap@VQString@@VcomplexInstance@@@@QAE?AV?$QMapIterator@VQString@@VcomplexInstance@@@@ABVQString@@ABVcomplexInstance@@_N@Z 10023eec     instanceLookup.obj
 0002:00002ef4       __ehfuncinfo$?insert@?$QMap@VQString@@VinstanceInfo@@@@QAE?AV?$QMapIterator@VQString@@VinstanceInfo@@@@ABVQString@@ABVinstanceInfo@@_N@Z 10023ef4     instanceLookup.obj
 0002:00002ef4       __ehfuncinfo$?insert@?$QMap@VQString@@VparamInfo@@@@QAE?AV?$QMapIterator@VQString@@VparamInfo@@@@ABVQString@@ABVparamInfo@@_N@Z 10023ef4     instanceLookup.obj
 0002:00002ef4       __ehfuncinfo$?insert@?$QMap@VQString@@VcomplexType@@@@QAE?AU?$QPair@V?$QMapIterator@VQString@@VcomplexType@@@@_N@@ABU?$QPair@$$CBVQString@@VcomplexType@@@@@Z 10023ef4     instanceLookup.obj
 0002:00002ef4       __ehfuncinfo$?insert@?$QMap@VQString@@VdeviceTypeInfo@@@@QAE?AV?$QMapIterator@VQString@@VdeviceTypeInfo@@@@ABVQString@@ABVdeviceTypeInfo@@_N@Z 10023ef4     instanceLookup.obj
 0002:00002ef4       __ehfuncinfo$?insert@?$QMap@VQString@@VinstanceInfo@@@@QAE?AU?$QPair@V?$QMapIterator@VQString@@VinstanceInfo@@@@_N@@ABU?$QPair@$$CBVQString@@VinstanceInfo@@@@@Z 10023ef4     instanceLookup.obj
 0002:00002ef4       __ehfuncinfo$?insert@?$QMap@VQString@@VcomplexParam@@@@QAE?AV?$QMapIterator@VQString@@VcomplexParam@@@@ABVQString@@ABVcomplexParam@@_N@Z 10023ef4     instanceLookup.obj
 0002:00002ef4       __ehfuncinfo$?insert@?$QMap@VQString@@VparamInfo@@@@QAE?AU?$QPair@V?$QMapIterator@VQString@@VparamInfo@@@@_N@@ABU?$QPair@$$CBVQString@@VparamInfo@@@@@Z 10023ef4     instanceLookup.obj
 0002:00002ef4       __ehfuncinfo$?insert@?$QMap@VQString@@VdeviceTypeInfo@@@@QAE?AU?$QPair@V?$QMapIterator@VQString@@VdeviceTypeInfo@@@@_N@@ABU?$QPair@$$CBVQString@@VdeviceTypeInfo@@@@@Z 10023ef4     instanceLookup.obj
 0002:00002ef4       __ehfuncinfo$?insert@?$QMap@VQString@@VcomplexInstance@@@@QAE?AU?$QPair@V?$QMapIterator@VQString@@VcomplexInstance@@@@_N@@ABU?$QPair@$$CBVQString@@VcomplexInstance@@@@@Z 10023ef4     instanceLookup.obj
 0002:00002ef4       __ehfuncinfo$?insert@?$QMap@VQString@@VcomplexType@@@@QAE?AV?$QMapIterator@VQString@@VcomplexType@@@@ABVQString@@ABVcomplexType@@_N@Z 10023ef4     instanceLookup.obj
 0002:00002ef4       __ehfuncinfo$?insert@?$QMap@VQString@@VcomplexInstance@@@@QAE?AV?$QMapIterator@VQString@@VcomplexInstance@@@@ABVQString@@ABVcomplexInstance@@_N@Z 10023ef4     instanceLookup.obj
 0002:00002ef4       __ehfuncinfo$?insert@?$QMap@VQString@@VcomplexParam@@@@QAE?AU?$QPair@V?$QMapIterator@VQString@@VcomplexParam@@@@_N@@ABU?$QPair@$$CBVQString@@VcomplexParam@@@@@Z 10023ef4     instanceLookup.obj
 0002:00002f18       __unwindtable$?erase@?$QMap@VQString@@VparamInfo@@@@QAEXABVQString@@@Z 10023f18     instanceLookup.obj
 0002:00002f18       __unwindtable$?remove@?$QMap@VQString@@VparamInfo@@@@QAEXABVQString@@@Z 10023f18     instanceLookup.obj
 0002:00002f30       __ehfuncinfo$?erase@?$QMap@VQString@@VparamInfo@@@@QAEXABVQString@@@Z 10023f30     instanceLookup.obj
 0002:00002f30       __ehfuncinfo$?remove@?$QMap@VQString@@VparamInfo@@@@QAEXABVQString@@@Z 10023f30     instanceLookup.obj
 0002:00002f54       __unwindtable$??A?$QMap@VQString@@VparamInfo@@@@QAEAAVparamInfo@@ABVQString@@@Z 10023f54     instanceLookup.obj
 0002:00002f6c       __ehfuncinfo$??A?$QMap@VQString@@VparamInfo@@@@QAEAAVparamInfo@@ABVQString@@@Z 10023f6c     instanceLookup.obj
 0002:00002f90       __unwindtable$?remove@?$QMap@VQString@@VparamInfo@@@@QAEXV?$QMapIterator@VQString@@VparamInfo@@@@@Z 10023f90     instanceLookup.obj
 0002:00002f90       __unwindtable$?erase@?$QMap@VQString@@VparamInfo@@@@QAEXV?$QMapIterator@VQString@@VparamInfo@@@@@Z 10023f90     instanceLookup.obj
 0002:00002fa0       __ehfuncinfo$?erase@?$QMap@VQString@@VparamInfo@@@@QAEXV?$QMapIterator@VQString@@VparamInfo@@@@@Z 10023fa0     instanceLookup.obj
 0002:00002fa0       __ehfuncinfo$?remove@?$QMap@VQString@@VparamInfo@@@@QAEXV?$QMapIterator@VQString@@VparamInfo@@@@@Z 10023fa0     instanceLookup.obj
 0002:00002fc4       __unwindtable$?replace@?$QMap@VQString@@VcomplexParam@@@@QAE?AV?$QMapIterator@VQString@@VcomplexParam@@@@ABVQString@@ABVcomplexParam@@@Z 10023fc4     instanceLookup.obj
 0002:00002fcc       __ehfuncinfo$?replace@?$QMap@VQString@@VcomplexParam@@@@QAE?AV?$QMapIterator@VQString@@VcomplexParam@@@@ABVQString@@ABVcomplexParam@@@Z 10023fcc     instanceLookup.obj
 0002:00002ff0       __unwindtable$?remove@?$QMap@VQString@@VcomplexParam@@@@QAEXV?$QMapIterator@VQString@@VcomplexParam@@@@@Z 10023ff0     instanceLookup.obj
 0002:00002ff0       __unwindtable$?erase@?$QMap@VQString@@VcomplexParam@@@@QAEXV?$QMapIterator@VQString@@VcomplexParam@@@@@Z 10023ff0     instanceLookup.obj
 0002:00003000       __ehfuncinfo$?remove@?$QMap@VQString@@VcomplexParam@@@@QAEXV?$QMapIterator@VQString@@VcomplexParam@@@@@Z 10024000     instanceLookup.obj
 0002:00003000       __ehfuncinfo$?erase@?$QMap@VQString@@VcomplexParam@@@@QAEXV?$QMapIterator@VQString@@VcomplexParam@@@@@Z 10024000     instanceLookup.obj
 0002:00003024       __unwindtable$??A?$QMap@VQString@@VcomplexParam@@@@QAEAAVcomplexParam@@ABVQString@@@Z 10024024     instanceLookup.obj
 0002:00003034       __ehfuncinfo$??A?$QMap@VQString@@VcomplexParam@@@@QAEAAVcomplexParam@@ABVQString@@@Z 10024034     instanceLookup.obj
 0002:00003058       __unwindtable$??0?$QMap@VQString@@VdeviceTypeInfo@@@@QAE@XZ 10024058     instanceLookup.obj
 0002:00003058       __unwindtable$?detach@?$QMap@VQString@@VcomplexParam@@@@IAEXXZ 10024058     instanceLookup.obj
 0002:00003058       __unwindtable$?end@?$QMap@VQString@@VcomplexInstance@@@@QAE?AV?$QMapIterator@VQString@@VcomplexInstance@@@@XZ 10024058     instanceLookup.obj
 0002:00003058       __unwindtable$?end@?$QMap@VQString@@VparamInfo@@@@QAE?AV?$QMapIterator@VQString@@VparamInfo@@@@XZ 10024058     instanceLookup.obj
 0002:00003058       __unwindtable$?begin@?$QMap@VQString@@VinstanceInfo@@@@QAE?AV?$QMapIterator@VQString@@VinstanceInfo@@@@XZ 10024058     instanceLookup.obj
 0002:00003058       __unwindtable$??0?$QMap@VQString@@VcomplexInstance@@@@QAE@XZ 10024058     instanceLookup.obj
 0002:00003058       __unwindtable$?detachInternal@?$QMap@VQString@@VcomplexParam@@@@AAEXXZ 10024058     instanceLookup.obj
 0002:00003058       __unwindtable$?begin@?$QMap@VQString@@VdeviceTypeInfo@@@@QAE?AV?$QMapIterator@VQString@@VdeviceTypeInfo@@@@XZ 10024058     instanceLookup.obj
 0002:00003058       __unwindtable$??0?$QMap@VQString@@VparamInfo@@@@QAE@XZ 10024058     instanceLookup.obj
 0002:00003058       __unwindtable$?end@?$QMap@VQString@@VinstanceInfo@@@@QAE?AV?$QMapIterator@VQString@@VinstanceInfo@@@@XZ 10024058     instanceLookup.obj
 0002:00003058       __unwindtable$?find@?$QMap@VQString@@VcomplexParam@@@@QAE?AV?$QMapIterator@VQString@@VcomplexParam@@@@ABVQString@@@Z 10024058     instanceLookup.obj
 0002:00003058       __unwindtable$?end@?$QMap@VQString@@VcomplexType@@@@QAE?AV?$QMapIterator@VQString@@VcomplexType@@@@XZ 10024058     instanceLookup.obj
 0002:00003058       __unwindtable$??0?$QMap@VQString@@VinstanceInfo@@@@QAE@XZ 10024058     instanceLookup.obj
 0002:00003058       __unwindtable$?detachInternal@?$QMap@VQString@@VinstanceInfo@@@@AAEXXZ 10024058     instanceLookup.obj
 0002:00003058       __unwindtable$?find@?$QMap@VQString@@VdeviceTypeInfo@@@@QAE?AV?$QMapIterator@VQString@@VdeviceTypeInfo@@@@ABVQString@@@Z 10024058     instanceLookup.obj
 0002:00003058       __unwindtable$?find@?$QMap@VQString@@VinstanceInfo@@@@QAE?AV?$QMapIterator@VQString@@VinstanceInfo@@@@ABVQString@@@Z 10024058     instanceLookup.obj
 0002:00003058       __unwindtable$??0?$QMap@VQString@@VcomplexType@@@@QAE@XZ 10024058     instanceLookup.obj
 0002:00003058       __unwindtable$?begin@?$QMap@VQString@@VcomplexType@@@@QAE?AV?$QMapIterator@VQString@@VcomplexType@@@@XZ 10024058     instanceLookup.obj
 0002:00003058       __unwindtable$?find@?$QMap@VQString@@VparamInfo@@@@QAE?AV?$QMapIterator@VQString@@VparamInfo@@@@ABVQString@@@Z 10024058     instanceLookup.obj
 0002:00003058       __unwindtable$?begin@?$QMap@VQString@@VcomplexInstance@@@@QAE?AV?$QMapIterator@VQString@@VcomplexInstance@@@@XZ 10024058     instanceLookup.obj
 0002:00003058       __unwindtable$?detach@?$QMap@VQString@@VinstanceInfo@@@@IAEXXZ 10024058     instanceLookup.obj
 0002:00003058       __unwindtable$?detachInternal@?$QMap@VQString@@VdeviceTypeInfo@@@@AAEXXZ 10024058     instanceLookup.obj
 0002:00003058       __unwindtable$?begin@?$QMap@VQString@@VparamInfo@@@@QAE?AV?$QMapIterator@VQString@@VparamInfo@@@@XZ 10024058     instanceLookup.obj
 0002:00003058       __unwindtable$?detach@?$QMap@VQString@@VdeviceTypeInfo@@@@IAEXXZ 10024058     instanceLookup.obj
 0002:00003058       __unwindtable$?detachInternal@?$QMap@VQString@@VcomplexType@@@@AAEXXZ 10024058     instanceLookup.obj
 0002:00003058       __unwindtable$?find@?$QMap@VQString@@VcomplexInstance@@@@QAE?AV?$QMapIterator@VQString@@VcomplexInstance@@@@ABVQString@@@Z 10024058     instanceLookup.obj
 0002:00003058       __unwindtable$?end@?$QMap@VQString@@VdeviceTypeInfo@@@@QAE?AV?$QMapIterator@VQString@@VdeviceTypeInfo@@@@XZ 10024058     instanceLookup.obj
 0002:00003058       __unwindtable$?find@?$QMap@VQString@@VcomplexType@@@@QAE?AV?$QMapIterator@VQString@@VcomplexType@@@@ABVQString@@@Z 10024058     instanceLookup.obj
 0002:00003058       __unwindtable$?detachInternal@?$QMap@VQString@@VcomplexInstance@@@@AAEXXZ 10024058     instanceLookup.obj
 0002:00003058       __unwindtable$?detach@?$QMap@VQString@@VcomplexInstance@@@@IAEXXZ 10024058     instanceLookup.obj
 0002:00003058       __unwindtable$?end@?$QMap@VQString@@VcomplexParam@@@@QAE?AV?$QMapIterator@VQString@@VcomplexParam@@@@XZ 10024058     instanceLookup.obj
 0002:00003058       __unwindtable$?detach@?$QMap@VQString@@VcomplexType@@@@IAEXXZ 10024058     instanceLookup.obj
 0002:00003058       __unwindtable$?begin@?$QMap@VQString@@VcomplexParam@@@@QAE?AV?$QMapIterator@VQString@@VcomplexParam@@@@XZ 10024058     instanceLookup.obj
 0002:00003058       __unwindtable$?detach@?$QMap@VQString@@VparamInfo@@@@IAEXXZ 10024058     instanceLookup.obj
 0002:00003058       __unwindtable$?detachInternal@?$QMap@VQString@@VparamInfo@@@@AAEXXZ 10024058     instanceLookup.obj
 0002:00003058       __unwindtable$??0?$QMap@VQString@@VcomplexParam@@@@QAE@XZ 10024058     instanceLookup.obj
 0002:00003060       __ehfuncinfo$??0?$QMap@VQString@@VcomplexParam@@@@QAE@XZ 10024060     instanceLookup.obj
 0002:00003060       __ehfuncinfo$?begin@?$QMap@VQString@@VcomplexParam@@@@QAE?AV?$QMapIterator@VQString@@VcomplexParam@@@@XZ 10024060     instanceLookup.obj
 0002:00003060       __ehfuncinfo$?detachInternal@?$QMap@VQString@@VparamInfo@@@@AAEXXZ 10024060     instanceLookup.obj
 0002:00003060       __ehfuncinfo$?detach@?$QMap@VQString@@VdeviceTypeInfo@@@@IAEXXZ 10024060     instanceLookup.obj
 0002:00003060       __ehfuncinfo$?detach@?$QMap@VQString@@VparamInfo@@@@IAEXXZ 10024060     instanceLookup.obj
 0002:00003060       __ehfuncinfo$?end@?$QMap@VQString@@VcomplexParam@@@@QAE?AV?$QMapIterator@VQString@@VcomplexParam@@@@XZ 10024060     instanceLookup.obj
 0002:00003060       __ehfuncinfo$?detach@?$QMap@VQString@@VcomplexType@@@@IAEXXZ 10024060     instanceLookup.obj
 0002:00003060       __ehfuncinfo$?detachInternal@?$QMap@VQString@@VcomplexType@@@@AAEXXZ 10024060     instanceLookup.obj
 0002:00003060       __ehfuncinfo$?detachInternal@?$QMap@VQString@@VdeviceTypeInfo@@@@AAEXXZ 10024060     instanceLookup.obj
 0002:00003060       __ehfuncinfo$?detach@?$QMap@VQString@@VinstanceInfo@@@@IAEXXZ 10024060     instanceLookup.obj
 0002:00003060       __ehfuncinfo$?detachInternal@?$QMap@VQString@@VinstanceInfo@@@@AAEXXZ 10024060     instanceLookup.obj
 0002:00003060       __ehfuncinfo$??0?$QMap@VQString@@VparamInfo@@@@QAE@XZ 10024060     instanceLookup.obj
 0002:00003060       __ehfuncinfo$?find@?$QMap@VQString@@VinstanceInfo@@@@QAE?AV?$QMapIterator@VQString@@VinstanceInfo@@@@ABVQString@@@Z 10024060     instanceLookup.obj
 0002:00003060       __ehfuncinfo$?find@?$QMap@VQString@@VparamInfo@@@@QAE?AV?$QMapIterator@VQString@@VparamInfo@@@@ABVQString@@@Z 10024060     instanceLookup.obj
 0002:00003060       __ehfuncinfo$?find@?$QMap@VQString@@VcomplexParam@@@@QAE?AV?$QMapIterator@VQString@@VcomplexParam@@@@ABVQString@@@Z 10024060     instanceLookup.obj
 0002:00003060       __ehfuncinfo$?end@?$QMap@VQString@@VcomplexType@@@@QAE?AV?$QMapIterator@VQString@@VcomplexType@@@@XZ 10024060     instanceLookup.obj
 0002:00003060       __ehfuncinfo$?end@?$QMap@VQString@@VinstanceInfo@@@@QAE?AV?$QMapIterator@VQString@@VinstanceInfo@@@@XZ 10024060     instanceLookup.obj
 0002:00003060       __ehfuncinfo$?detach@?$QMap@VQString@@VcomplexParam@@@@IAEXXZ 10024060     instanceLookup.obj
 0002:00003060       __ehfuncinfo$?detachInternal@?$QMap@VQString@@VcomplexParam@@@@AAEXXZ 10024060     instanceLookup.obj
 0002:00003060       __ehfuncinfo$??0?$QMap@VQString@@VcomplexInstance@@@@QAE@XZ 10024060     instanceLookup.obj
 0002:00003060       __ehfuncinfo$?find@?$QMap@VQString@@VdeviceTypeInfo@@@@QAE?AV?$QMapIterator@VQString@@VdeviceTypeInfo@@@@ABVQString@@@Z 10024060     instanceLookup.obj
 0002:00003060       __ehfuncinfo$?begin@?$QMap@VQString@@VcomplexInstance@@@@QAE?AV?$QMapIterator@VQString@@VcomplexInstance@@@@XZ 10024060     instanceLookup.obj
 0002:00003060       __ehfuncinfo$??0?$QMap@VQString@@VdeviceTypeInfo@@@@QAE@XZ 10024060     instanceLookup.obj
 0002:00003060       __ehfuncinfo$??0?$QMap@VQString@@VcomplexType@@@@QAE@XZ 10024060     instanceLookup.obj
 0002:00003060       __ehfuncinfo$?end@?$QMap@VQString@@VcomplexInstance@@@@QAE?AV?$QMapIterator@VQString@@VcomplexInstance@@@@XZ 10024060     instanceLookup.obj
 0002:00003060       __ehfuncinfo$?begin@?$QMap@VQString@@VdeviceTypeInfo@@@@QAE?AV?$QMapIterator@VQString@@VdeviceTypeInfo@@@@XZ 10024060     instanceLookup.obj
 0002:00003060       __ehfuncinfo$?begin@?$QMap@VQString@@VinstanceInfo@@@@QAE?AV?$QMapIterator@VQString@@VinstanceInfo@@@@XZ 10024060     instanceLookup.obj
 0002:00003060       __ehfuncinfo$?end@?$QMap@VQString@@VparamInfo@@@@QAE?AV?$QMapIterator@VQString@@VparamInfo@@@@XZ 10024060     instanceLookup.obj
 0002:00003060       __ehfuncinfo$?find@?$QMap@VQString@@VcomplexInstance@@@@QAE?AV?$QMapIterator@VQString@@VcomplexInstance@@@@ABVQString@@@Z 10024060     instanceLookup.obj
 0002:00003060       __ehfuncinfo$?begin@?$QMap@VQString@@VparamInfo@@@@QAE?AV?$QMapIterator@VQString@@VparamInfo@@@@XZ 10024060     instanceLookup.obj
 0002:00003060       __ehfuncinfo$?end@?$QMap@VQString@@VdeviceTypeInfo@@@@QAE?AV?$QMapIterator@VQString@@VdeviceTypeInfo@@@@XZ 10024060     instanceLookup.obj
 0002:00003060       __ehfuncinfo$??0?$QMap@VQString@@VinstanceInfo@@@@QAE@XZ 10024060     instanceLookup.obj
 0002:00003060       __ehfuncinfo$?find@?$QMap@VQString@@VcomplexType@@@@QAE?AV?$QMapIterator@VQString@@VcomplexType@@@@ABVQString@@@Z 10024060     instanceLookup.obj
 0002:00003060       __ehfuncinfo$?detach@?$QMap@VQString@@VcomplexInstance@@@@IAEXXZ 10024060     instanceLookup.obj
 0002:00003060       __ehfuncinfo$?detachInternal@?$QMap@VQString@@VcomplexInstance@@@@AAEXXZ 10024060     instanceLookup.obj
 0002:00003060       __ehfuncinfo$?begin@?$QMap@VQString@@VcomplexType@@@@QAE?AV?$QMapIterator@VQString@@VcomplexType@@@@XZ 10024060     instanceLookup.obj
 0002:00003084       __unwindtable$?values@?$QMap@VQString@@VcomplexInstance@@@@QBE?AV?$QValueList@VcomplexInstance@@@@XZ 10024084     instanceLookup.obj
 0002:00003084       __unwindtable$?values@?$QMap@VQString@@VcomplexParam@@@@QBE?AV?$QValueList@VcomplexParam@@@@XZ 10024084     instanceLookup.obj
 0002:00003084       __unwindtable$?values@?$QMap@VQString@@VdeviceTypeInfo@@@@QBE?AV?$QValueList@VdeviceTypeInfo@@@@XZ 10024084     instanceLookup.obj
 0002:00003084       __unwindtable$?values@?$QMap@VQString@@VcomplexType@@@@QBE?AV?$QValueList@VcomplexType@@@@XZ 10024084     instanceLookup.obj
 0002:00003084       __unwindtable$?values@?$QMap@VQString@@VinstanceInfo@@@@QBE?AV?$QValueList@VinstanceInfo@@@@XZ 10024084     instanceLookup.obj
 0002:00003084       __unwindtable$?values@?$QMap@VQString@@VparamInfo@@@@QBE?AV?$QValueList@VparamInfo@@@@XZ 10024084     instanceLookup.obj
 0002:00003094       __ehfuncinfo$?values@?$QMap@VQString@@VcomplexInstance@@@@QBE?AV?$QValueList@VcomplexInstance@@@@XZ 10024094     instanceLookup.obj
 0002:00003094       __ehfuncinfo$?values@?$QMap@VQString@@VparamInfo@@@@QBE?AV?$QValueList@VparamInfo@@@@XZ 10024094     instanceLookup.obj
 0002:00003094       __ehfuncinfo$?values@?$QMap@VQString@@VdeviceTypeInfo@@@@QBE?AV?$QValueList@VdeviceTypeInfo@@@@XZ 10024094     instanceLookup.obj
 0002:00003094       __ehfuncinfo$?values@?$QMap@VQString@@VinstanceInfo@@@@QBE?AV?$QValueList@VinstanceInfo@@@@XZ 10024094     instanceLookup.obj
 0002:00003094       __ehfuncinfo$?values@?$QMap@VQString@@VcomplexParam@@@@QBE?AV?$QValueList@VcomplexParam@@@@XZ 10024094     instanceLookup.obj
 0002:00003094       __ehfuncinfo$?values@?$QMap@VQString@@VcomplexType@@@@QBE?AV?$QValueList@VcomplexType@@@@XZ 10024094     instanceLookup.obj
 0002:000030b8       __unwindtable$?erase@?$QMap@VQString@@VcomplexParam@@@@QAEXABVQString@@@Z 100240b8     instanceLookup.obj
 0002:000030b8       __unwindtable$?remove@?$QMap@VQString@@VcomplexParam@@@@QAEXABVQString@@@Z 100240b8     instanceLookup.obj
 0002:000030d0       __ehfuncinfo$?erase@?$QMap@VQString@@VcomplexParam@@@@QAEXABVQString@@@Z 100240d0     instanceLookup.obj
 0002:000030d0       __ehfuncinfo$?remove@?$QMap@VQString@@VcomplexParam@@@@QAEXABVQString@@@Z 100240d0     instanceLookup.obj
 0002:000030f4       __unwindtable$?erase@?$QMap@VQString@@VcomplexInstance@@@@QAEXV?$QMapIterator@VQString@@VcomplexInstance@@@@@Z 100240f4     instanceLookup.obj
 0002:000030f4       __unwindtable$?remove@?$QMap@VQString@@VcomplexInstance@@@@QAEXV?$QMapIterator@VQString@@VcomplexInstance@@@@@Z 100240f4     instanceLookup.obj
 0002:00003104       __ehfuncinfo$?erase@?$QMap@VQString@@VcomplexInstance@@@@QAEXV?$QMapIterator@VQString@@VcomplexInstance@@@@@Z 10024104     instanceLookup.obj
 0002:00003104       __ehfuncinfo$?remove@?$QMap@VQString@@VcomplexInstance@@@@QAEXV?$QMapIterator@VQString@@VcomplexInstance@@@@@Z 10024104     instanceLookup.obj
 0002:00003128       __unwindtable$??A?$QMap@VQString@@VcomplexInstance@@@@QAEAAVcomplexInstance@@ABVQString@@@Z 10024128     instanceLookup.obj
 0002:00003140       __ehfuncinfo$??A?$QMap@VQString@@VcomplexInstance@@@@QAEAAVcomplexInstance@@ABVQString@@@Z 10024140     instanceLookup.obj
 0002:00003164       __unwindtable$?erase@?$QMap@VQString@@VcomplexInstance@@@@QAEXABVQString@@@Z 10024164     instanceLookup.obj
 0002:00003164       __unwindtable$?remove@?$QMap@VQString@@VcomplexInstance@@@@QAEXABVQString@@@Z 10024164     instanceLookup.obj
 0002:0000317c       __ehfuncinfo$?erase@?$QMap@VQString@@VcomplexInstance@@@@QAEXABVQString@@@Z 1002417c     instanceLookup.obj
 0002:0000317c       __ehfuncinfo$?remove@?$QMap@VQString@@VcomplexInstance@@@@QAEXABVQString@@@Z 1002417c     instanceLookup.obj
 0002:000031a0       __unwindtable$?erase@?$QMap@VQString@@VinstanceInfo@@@@QAEXV?$QMapIterator@VQString@@VinstanceInfo@@@@@Z 100241a0     instanceLookup.obj
 0002:000031a0       __unwindtable$?remove@?$QMap@VQString@@VinstanceInfo@@@@QAEXV?$QMapIterator@VQString@@VinstanceInfo@@@@@Z 100241a0     instanceLookup.obj
 0002:000031b0       __ehfuncinfo$?erase@?$QMap@VQString@@VinstanceInfo@@@@QAEXV?$QMapIterator@VQString@@VinstanceInfo@@@@@Z 100241b0     instanceLookup.obj
 0002:000031b0       __ehfuncinfo$?remove@?$QMap@VQString@@VinstanceInfo@@@@QAEXV?$QMapIterator@VQString@@VinstanceInfo@@@@@Z 100241b0     instanceLookup.obj
 0002:000031d4       __unwindtable$??A?$QMap@VQString@@VinstanceInfo@@@@QAEAAVinstanceInfo@@ABVQString@@@Z 100241d4     instanceLookup.obj
 0002:000031ec       __ehfuncinfo$??A?$QMap@VQString@@VinstanceInfo@@@@QAEAAVinstanceInfo@@ABVQString@@@Z 100241ec     instanceLookup.obj
 0002:00003210       __unwindtable$?keys@?$QMap@VQString@@VinstanceInfo@@@@QBE?AV?$QValueList@VQString@@@@XZ 10024210     instanceLookup.obj
 0002:00003210       __unwindtable$?keys@?$QMap@VQString@@VparamInfo@@@@QBE?AV?$QValueList@VQString@@@@XZ 10024210     instanceLookup.obj
 0002:00003210       __unwindtable$?keys@?$QMap@VQString@@VdeviceTypeInfo@@@@QBE?AV?$QValueList@VQString@@@@XZ 10024210     instanceLookup.obj
 0002:00003210       __unwindtable$?keys@?$QMap@VQString@@VcomplexInstance@@@@QBE?AV?$QValueList@VQString@@@@XZ 10024210     instanceLookup.obj
 0002:00003210       __unwindtable$?keys@?$QMap@VQString@@VcomplexType@@@@QBE?AV?$QValueList@VQString@@@@XZ 10024210     instanceLookup.obj
 0002:00003210       __unwindtable$?keys@?$QMap@VQString@@VcomplexParam@@@@QBE?AV?$QValueList@VQString@@@@XZ 10024210     instanceLookup.obj
 0002:00003218       __ehfuncinfo$?keys@?$QMap@VQString@@VcomplexInstance@@@@QBE?AV?$QValueList@VQString@@@@XZ 10024218     instanceLookup.obj
 0002:00003218       __ehfuncinfo$?keys@?$QMap@VQString@@VcomplexType@@@@QBE?AV?$QValueList@VQString@@@@XZ 10024218     instanceLookup.obj
 0002:00003218       __ehfuncinfo$?keys@?$QMap@VQString@@VinstanceInfo@@@@QBE?AV?$QValueList@VQString@@@@XZ 10024218     instanceLookup.obj
 0002:00003218       __ehfuncinfo$?keys@?$QMap@VQString@@VcomplexParam@@@@QBE?AV?$QValueList@VQString@@@@XZ 10024218     instanceLookup.obj
 0002:00003218       __ehfuncinfo$?keys@?$QMap@VQString@@VparamInfo@@@@QBE?AV?$QValueList@VQString@@@@XZ 10024218     instanceLookup.obj
 0002:00003218       __ehfuncinfo$?keys@?$QMap@VQString@@VdeviceTypeInfo@@@@QBE?AV?$QValueList@VQString@@@@XZ 10024218     instanceLookup.obj
 0002:0000323c       __unwindtable$?remove@?$QMap@VQString@@VinstanceInfo@@@@QAEXABVQString@@@Z 1002423c     instanceLookup.obj
 0002:0000323c       __unwindtable$?erase@?$QMap@VQString@@VinstanceInfo@@@@QAEXABVQString@@@Z 1002423c     instanceLookup.obj
 0002:00003254       __ehfuncinfo$?erase@?$QMap@VQString@@VinstanceInfo@@@@QAEXABVQString@@@Z 10024254     instanceLookup.obj
 0002:00003254       __ehfuncinfo$?remove@?$QMap@VQString@@VinstanceInfo@@@@QAEXABVQString@@@Z 10024254     instanceLookup.obj
 0002:00003278       __unwindtable$?replace@?$QMap@VQString@@VcomplexInstance@@@@QAE?AV?$QMapIterator@VQString@@VcomplexInstance@@@@ABVQString@@ABVcomplexInstance@@@Z 10024278     instanceLookup.obj
 0002:00003278       __unwindtable$?replace@?$QMap@VQString@@VcomplexType@@@@QAE?AV?$QMapIterator@VQString@@VcomplexType@@@@ABVQString@@ABVcomplexType@@@Z 10024278     instanceLookup.obj
 0002:00003278       __unwindtable$?replace@?$QMap@VQString@@VdeviceTypeInfo@@@@QAE?AV?$QMapIterator@VQString@@VdeviceTypeInfo@@@@ABVQString@@ABVdeviceTypeInfo@@@Z 10024278     instanceLookup.obj
 0002:00003278       __unwindtable$?replace@?$QMap@VQString@@VinstanceInfo@@@@QAE?AV?$QMapIterator@VQString@@VinstanceInfo@@@@ABVQString@@ABVinstanceInfo@@@Z 10024278     instanceLookup.obj
 0002:00003278       __unwindtable$?replace@?$QMap@VQString@@VparamInfo@@@@QAE?AV?$QMapIterator@VQString@@VparamInfo@@@@ABVQString@@ABVparamInfo@@@Z 10024278     instanceLookup.obj
 0002:00003280       __ehfuncinfo$?replace@?$QMap@VQString@@VdeviceTypeInfo@@@@QAE?AV?$QMapIterator@VQString@@VdeviceTypeInfo@@@@ABVQString@@ABVdeviceTypeInfo@@@Z 10024280     instanceLookup.obj
 0002:00003280       __ehfuncinfo$?replace@?$QMap@VQString@@VcomplexType@@@@QAE?AV?$QMapIterator@VQString@@VcomplexType@@@@ABVQString@@ABVcomplexType@@@Z 10024280     instanceLookup.obj
 0002:00003280       __ehfuncinfo$?replace@?$QMap@VQString@@VinstanceInfo@@@@QAE?AV?$QMapIterator@VQString@@VinstanceInfo@@@@ABVQString@@ABVinstanceInfo@@@Z 10024280     instanceLookup.obj
 0002:00003280       __ehfuncinfo$?replace@?$QMap@VQString@@VparamInfo@@@@QAE?AV?$QMapIterator@VQString@@VparamInfo@@@@ABVQString@@ABVparamInfo@@@Z 10024280     instanceLookup.obj
 0002:00003280       __ehfuncinfo$?replace@?$QMap@VQString@@VcomplexInstance@@@@QAE?AV?$QMapIterator@VQString@@VcomplexInstance@@@@ABVQString@@ABVcomplexInstance@@@Z 10024280     instanceLookup.obj
 0002:000032a4       __unwindtable$?erase@?$QMap@VQString@@VdeviceTypeInfo@@@@QAEXABVQString@@@Z 100242a4     instanceLookup.obj
 0002:000032a4       __unwindtable$?remove@?$QMap@VQString@@VdeviceTypeInfo@@@@QAEXABVQString@@@Z 100242a4     instanceLookup.obj
 0002:000032bc       __ehfuncinfo$?erase@?$QMap@VQString@@VdeviceTypeInfo@@@@QAEXABVQString@@@Z 100242bc     instanceLookup.obj
 0002:000032bc       __ehfuncinfo$?remove@?$QMap@VQString@@VdeviceTypeInfo@@@@QAEXABVQString@@@Z 100242bc     instanceLookup.obj
 0002:000032e0       __unwindtable$??A?$QMap@VQString@@VdeviceTypeInfo@@@@QAEAAVdeviceTypeInfo@@ABVQString@@@Z 100242e0     instanceLookup.obj
 0002:000032f8       __ehfuncinfo$??A?$QMap@VQString@@VdeviceTypeInfo@@@@QAEAAVdeviceTypeInfo@@ABVQString@@@Z 100242f8     instanceLookup.obj
 0002:0000331c       __unwindtable$?remove@?$QMap@VQString@@VdeviceTypeInfo@@@@QAEXV?$QMapIterator@VQString@@VdeviceTypeInfo@@@@@Z 1002431c     instanceLookup.obj
 0002:0000331c       __unwindtable$?erase@?$QMap@VQString@@VdeviceTypeInfo@@@@QAEXV?$QMapIterator@VQString@@VdeviceTypeInfo@@@@@Z 1002431c     instanceLookup.obj
 0002:0000332c       __ehfuncinfo$?remove@?$QMap@VQString@@VdeviceTypeInfo@@@@QAEXV?$QMapIterator@VQString@@VdeviceTypeInfo@@@@@Z 1002432c     instanceLookup.obj
 0002:0000332c       __ehfuncinfo$?erase@?$QMap@VQString@@VdeviceTypeInfo@@@@QAEXV?$QMapIterator@VQString@@VdeviceTypeInfo@@@@@Z 1002432c     instanceLookup.obj
 0002:00003350       __unwindtable$??A?$QMap@VQString@@VcomplexType@@@@QAEAAVcomplexType@@ABVQString@@@Z 10024350     instanceLookup.obj
 0002:00003368       __ehfuncinfo$??A?$QMap@VQString@@VcomplexType@@@@QAEAAVcomplexType@@ABVQString@@@Z 10024368     instanceLookup.obj
 0002:0000338c       __unwindtable$?remove@?$QMap@VQString@@VcomplexType@@@@QAEXV?$QMapIterator@VQString@@VcomplexType@@@@@Z 1002438c     instanceLookup.obj
 0002:0000338c       __unwindtable$?erase@?$QMap@VQString@@VcomplexType@@@@QAEXV?$QMapIterator@VQString@@VcomplexType@@@@@Z 1002438c     instanceLookup.obj
 0002:0000339c       __ehfuncinfo$?remove@?$QMap@VQString@@VcomplexType@@@@QAEXV?$QMapIterator@VQString@@VcomplexType@@@@@Z 1002439c     instanceLookup.obj
 0002:0000339c       __ehfuncinfo$?erase@?$QMap@VQString@@VcomplexType@@@@QAEXV?$QMapIterator@VQString@@VcomplexType@@@@@Z 1002439c     instanceLookup.obj
 0002:000033c0       __unwindtable$?erase@?$QMap@VQString@@VcomplexType@@@@QAEXABVQString@@@Z 100243c0     instanceLookup.obj
 0002:000033c0       __unwindtable$?remove@?$QMap@VQString@@VcomplexType@@@@QAEXABVQString@@@Z 100243c0     instanceLookup.obj
 0002:000033d8       __ehfuncinfo$?remove@?$QMap@VQString@@VcomplexType@@@@QAEXABVQString@@@Z 100243d8     instanceLookup.obj
 0002:000033d8       __ehfuncinfo$?erase@?$QMap@VQString@@VcomplexType@@@@QAEXABVQString@@@Z 100243d8     instanceLookup.obj
 0002:000033fc       __unwindtable$??0?$QMapPrivate@VQString@@VparamInfo@@@@QAE@XZ 100243fc     instanceLookup.obj
 0002:0000340c       __ehfuncinfo$??0?$QMapPrivate@VQString@@VparamInfo@@@@QAE@XZ 1002440c     instanceLookup.obj
 0002:00003430       __unwindtable$??0?$QMapPrivate@VQString@@VparamInfo@@@@QAE@PBV0@@Z 10024430     instanceLookup.obj
 0002:00003440       __ehfuncinfo$??0?$QMapPrivate@VQString@@VparamInfo@@@@QAE@PBV0@@Z 10024440     instanceLookup.obj
 0002:00003464       __unwindtable$??1?$QMapPrivate@VQString@@VparamInfo@@@@QAE@XZ 10024464     instanceLookup.obj
 0002:0000346c       __ehfuncinfo$??1?$QMapPrivate@VQString@@VparamInfo@@@@QAE@XZ 1002446c     instanceLookup.obj
 0002:00003490       __unwindtable$?copy@?$QMapPrivate@VQString@@VparamInfo@@@@QAEPAU?$QMapNode@VQString@@VparamInfo@@@@PAU2@@Z 10024490     instanceLookup.obj
 0002:000034a8       __ehfuncinfo$?copy@?$QMapPrivate@VQString@@VparamInfo@@@@QAEPAU?$QMapNode@VQString@@VparamInfo@@@@PAU2@@Z 100244a8     instanceLookup.obj
 0002:000034cc       __unwindtable$?clear@?$QMapPrivate@VQString@@VparamInfo@@@@QAEXPAU?$QMapNode@VQString@@VparamInfo@@@@@Z 100244cc     instanceLookup.obj
 0002:000034d4       __ehfuncinfo$?clear@?$QMapPrivate@VQString@@VparamInfo@@@@QAEXPAU?$QMapNode@VQString@@VparamInfo@@@@@Z 100244d4     instanceLookup.obj
 0002:000034f8       __unwindtable$?insert@?$QMapPrivate@VQString@@VparamInfo@@@@QAE?AV?$QMapIterator@VQString@@VparamInfo@@@@PAUQMapNodeBase@@0ABVQString@@@Z 100244f8     instanceLookup.obj
 0002:00003510       __ehfuncinfo$?insert@?$QMapPrivate@VQString@@VparamInfo@@@@QAE?AV?$QMapIterator@VQString@@VparamInfo@@@@PAUQMapNodeBase@@0ABVQString@@@Z 10024510     instanceLookup.obj
 0002:00003534       __unwindtable$??0?$QMapPrivate@VQString@@VcomplexParam@@@@QAE@XZ 10024534     instanceLookup.obj
 0002:00003544       __ehfuncinfo$??0?$QMapPrivate@VQString@@VcomplexParam@@@@QAE@XZ 10024544     instanceLookup.obj
 0002:00003568       __unwindtable$??0?$QMapPrivate@VQString@@VcomplexParam@@@@QAE@PBV0@@Z 10024568     instanceLookup.obj
 0002:00003578       __ehfuncinfo$??0?$QMapPrivate@VQString@@VcomplexParam@@@@QAE@PBV0@@Z 10024578     instanceLookup.obj
 0002:0000359c       __unwindtable$??1?$QMapPrivate@VQString@@VcomplexParam@@@@QAE@XZ 1002459c     instanceLookup.obj
 0002:000035a4       __ehfuncinfo$??1?$QMapPrivate@VQString@@VcomplexParam@@@@QAE@XZ 100245a4     instanceLookup.obj
 0002:000035c8       __unwindtable$?clear@?$QMapPrivate@VQString@@VcomplexParam@@@@QAEXPAU?$QMapNode@VQString@@VcomplexParam@@@@@Z 100245c8     instanceLookup.obj
 0002:000035d0       __ehfuncinfo$?clear@?$QMapPrivate@VQString@@VcomplexParam@@@@QAEXPAU?$QMapNode@VQString@@VcomplexParam@@@@@Z 100245d0     instanceLookup.obj
 0002:000035f4       __unwindtable$?insert@?$QMapPrivate@VQString@@VcomplexParam@@@@QAE?AV?$QMapIterator@VQString@@VcomplexParam@@@@PAUQMapNodeBase@@0ABVQString@@@Z 100245f4     instanceLookup.obj
 0002:0000360c       __ehfuncinfo$?insert@?$QMapPrivate@VQString@@VcomplexParam@@@@QAE?AV?$QMapIterator@VQString@@VcomplexParam@@@@PAUQMapNodeBase@@0ABVQString@@@Z 1002460c     instanceLookup.obj
 0002:00003630       __unwindtable$??0?$QMapPrivate@VQString@@VcomplexInstance@@@@QAE@XZ 10024630     instanceLookup.obj
 0002:00003640       __ehfuncinfo$??0?$QMapPrivate@VQString@@VcomplexInstance@@@@QAE@XZ 10024640     instanceLookup.obj
 0002:00003664       __unwindtable$??0?$QMapPrivate@VQString@@VcomplexInstance@@@@QAE@PBV0@@Z 10024664     instanceLookup.obj
 0002:00003674       __ehfuncinfo$??0?$QMapPrivate@VQString@@VcomplexInstance@@@@QAE@PBV0@@Z 10024674     instanceLookup.obj
 0002:00003698       __unwindtable$??1?$QMapPrivate@VQString@@VcomplexInstance@@@@QAE@XZ 10024698     instanceLookup.obj
 0002:000036a0       __ehfuncinfo$??1?$QMapPrivate@VQString@@VcomplexInstance@@@@QAE@XZ 100246a0     instanceLookup.obj
 0002:000036c4       __unwindtable$?clear@?$QMapPrivate@VQString@@VcomplexInstance@@@@QAEXPAU?$QMapNode@VQString@@VcomplexInstance@@@@@Z 100246c4     instanceLookup.obj
 0002:000036cc       __ehfuncinfo$?clear@?$QMapPrivate@VQString@@VcomplexInstance@@@@QAEXPAU?$QMapNode@VQString@@VcomplexInstance@@@@@Z 100246cc     instanceLookup.obj
 0002:000036f0       __unwindtable$?insert@?$QMapPrivate@VQString@@VcomplexInstance@@@@QAE?AV?$QMapIterator@VQString@@VcomplexInstance@@@@PAUQMapNodeBase@@0ABVQString@@@Z 100246f0     instanceLookup.obj
 0002:00003708       __ehfuncinfo$?insert@?$QMapPrivate@VQString@@VcomplexInstance@@@@QAE?AV?$QMapIterator@VQString@@VcomplexInstance@@@@PAUQMapNodeBase@@0ABVQString@@@Z 10024708     instanceLookup.obj
 0002:0000372c       __unwindtable$??0?$QMapPrivate@VQString@@VinstanceInfo@@@@QAE@XZ 1002472c     instanceLookup.obj
 0002:0000373c       __ehfuncinfo$??0?$QMapPrivate@VQString@@VinstanceInfo@@@@QAE@XZ 1002473c     instanceLookup.obj
 0002:00003760       __unwindtable$??0?$QMapPrivate@VQString@@VinstanceInfo@@@@QAE@PBV0@@Z 10024760     instanceLookup.obj
 0002:00003770       __ehfuncinfo$??0?$QMapPrivate@VQString@@VinstanceInfo@@@@QAE@PBV0@@Z 10024770     instanceLookup.obj
 0002:00003794       __unwindtable$??1?$QMapPrivate@VQString@@VinstanceInfo@@@@QAE@XZ 10024794     instanceLookup.obj
 0002:0000379c       __ehfuncinfo$??1?$QMapPrivate@VQString@@VinstanceInfo@@@@QAE@XZ 1002479c     instanceLookup.obj
 0002:000037c0       __unwindtable$?clear@?$QMapPrivate@VQString@@VinstanceInfo@@@@QAEXPAU?$QMapNode@VQString@@VinstanceInfo@@@@@Z 100247c0     instanceLookup.obj
 0002:000037c8       __ehfuncinfo$?clear@?$QMapPrivate@VQString@@VinstanceInfo@@@@QAEXPAU?$QMapNode@VQString@@VinstanceInfo@@@@@Z 100247c8     instanceLookup.obj
 0002:000037ec       __unwindtable$?insert@?$QMapPrivate@VQString@@VinstanceInfo@@@@QAE?AV?$QMapIterator@VQString@@VinstanceInfo@@@@PAUQMapNodeBase@@0ABVQString@@@Z 100247ec     instanceLookup.obj
 0002:00003804       __ehfuncinfo$?insert@?$QMapPrivate@VQString@@VinstanceInfo@@@@QAE?AV?$QMapIterator@VQString@@VinstanceInfo@@@@PAUQMapNodeBase@@0ABVQString@@@Z 10024804     instanceLookup.obj
 0002:00003828       __unwindtable$??0?$QMapPrivate@VQString@@VdeviceTypeInfo@@@@QAE@XZ 10024828     instanceLookup.obj
 0002:00003838       __ehfuncinfo$??0?$QMapPrivate@VQString@@VdeviceTypeInfo@@@@QAE@XZ 10024838     instanceLookup.obj
 0002:0000385c       __unwindtable$??0?$QMapPrivate@VQString@@VdeviceTypeInfo@@@@QAE@PBV0@@Z 1002485c     instanceLookup.obj
 0002:0000386c       __ehfuncinfo$??0?$QMapPrivate@VQString@@VdeviceTypeInfo@@@@QAE@PBV0@@Z 1002486c     instanceLookup.obj
 0002:00003890       __unwindtable$??1?$QMapPrivate@VQString@@VdeviceTypeInfo@@@@QAE@XZ 10024890     instanceLookup.obj
 0002:00003898       __ehfuncinfo$??1?$QMapPrivate@VQString@@VdeviceTypeInfo@@@@QAE@XZ 10024898     instanceLookup.obj
 0002:000038bc       __unwindtable$?copy@?$QMapPrivate@VQString@@VinstanceInfo@@@@QAEPAU?$QMapNode@VQString@@VinstanceInfo@@@@PAU2@@Z 100248bc     instanceLookup.obj
 0002:000038bc       __unwindtable$?copy@?$QMapPrivate@VQString@@VcomplexType@@@@QAEPAU?$QMapNode@VQString@@VcomplexType@@@@PAU2@@Z 100248bc     instanceLookup.obj
 0002:000038bc       __unwindtable$?copy@?$QMapPrivate@VQString@@VdeviceTypeInfo@@@@QAEPAU?$QMapNode@VQString@@VdeviceTypeInfo@@@@PAU2@@Z 100248bc     instanceLookup.obj
 0002:000038bc       __unwindtable$?copy@?$QMapPrivate@VQString@@VcomplexParam@@@@QAEPAU?$QMapNode@VQString@@VcomplexParam@@@@PAU2@@Z 100248bc     instanceLookup.obj
 0002:000038bc       __unwindtable$?copy@?$QMapPrivate@VQString@@VcomplexInstance@@@@QAEPAU?$QMapNode@VQString@@VcomplexInstance@@@@PAU2@@Z 100248bc     instanceLookup.obj
 0002:000038c4       __ehfuncinfo$?copy@?$QMapPrivate@VQString@@VcomplexType@@@@QAEPAU?$QMapNode@VQString@@VcomplexType@@@@PAU2@@Z 100248c4     instanceLookup.obj
 0002:000038c4       __ehfuncinfo$?copy@?$QMapPrivate@VQString@@VinstanceInfo@@@@QAEPAU?$QMapNode@VQString@@VinstanceInfo@@@@PAU2@@Z 100248c4     instanceLookup.obj
 0002:000038c4       __ehfuncinfo$?copy@?$QMapPrivate@VQString@@VcomplexInstance@@@@QAEPAU?$QMapNode@VQString@@VcomplexInstance@@@@PAU2@@Z 100248c4     instanceLookup.obj
 0002:000038c4       __ehfuncinfo$?copy@?$QMapPrivate@VQString@@VcomplexParam@@@@QAEPAU?$QMapNode@VQString@@VcomplexParam@@@@PAU2@@Z 100248c4     instanceLookup.obj
 0002:000038c4       __ehfuncinfo$?copy@?$QMapPrivate@VQString@@VdeviceTypeInfo@@@@QAEPAU?$QMapNode@VQString@@VdeviceTypeInfo@@@@PAU2@@Z 100248c4     instanceLookup.obj
 0002:000038e8       __unwindtable$?clear@?$QMapPrivate@VQString@@VdeviceTypeInfo@@@@QAEXPAU?$QMapNode@VQString@@VdeviceTypeInfo@@@@@Z 100248e8     instanceLookup.obj
 0002:000038f0       __ehfuncinfo$?clear@?$QMapPrivate@VQString@@VdeviceTypeInfo@@@@QAEXPAU?$QMapNode@VQString@@VdeviceTypeInfo@@@@@Z 100248f0     instanceLookup.obj
 0002:00003914       __unwindtable$?insert@?$QMapPrivate@VQString@@VdeviceTypeInfo@@@@QAE?AV?$QMapIterator@VQString@@VdeviceTypeInfo@@@@PAUQMapNodeBase@@0ABVQString@@@Z 10024914     instanceLookup.obj
 0002:0000392c       __ehfuncinfo$?insert@?$QMapPrivate@VQString@@VdeviceTypeInfo@@@@QAE?AV?$QMapIterator@VQString@@VdeviceTypeInfo@@@@PAUQMapNodeBase@@0ABVQString@@@Z 1002492c     instanceLookup.obj
 0002:00003950       __unwindtable$??0?$QMapPrivate@VQString@@VcomplexType@@@@QAE@XZ 10024950     instanceLookup.obj
 0002:00003960       __ehfuncinfo$??0?$QMapPrivate@VQString@@VcomplexType@@@@QAE@XZ 10024960     instanceLookup.obj
 0002:00003984       __unwindtable$??0?$QMapPrivate@VQString@@VcomplexType@@@@QAE@PBV0@@Z 10024984     instanceLookup.obj
 0002:00003994       __ehfuncinfo$??0?$QMapPrivate@VQString@@VcomplexType@@@@QAE@PBV0@@Z 10024994     instanceLookup.obj
 0002:000039b8       __unwindtable$??1?$QMapPrivate@VQString@@VcomplexType@@@@QAE@XZ 100249b8     instanceLookup.obj
 0002:000039c0       __ehfuncinfo$??1?$QMapPrivate@VQString@@VcomplexType@@@@QAE@XZ 100249c0     instanceLookup.obj
 0002:000039e4       __unwindtable$?clear@?$QMapPrivate@VQString@@VcomplexType@@@@QAEXPAU?$QMapNode@VQString@@VcomplexType@@@@@Z 100249e4     instanceLookup.obj
 0002:000039ec       __ehfuncinfo$?clear@?$QMapPrivate@VQString@@VcomplexType@@@@QAEXPAU?$QMapNode@VQString@@VcomplexType@@@@@Z 100249ec     instanceLookup.obj
 0002:00003a10       __unwindtable$?insert@?$QMapPrivate@VQString@@VcomplexType@@@@QAE?AV?$QMapIterator@VQString@@VcomplexType@@@@PAUQMapNodeBase@@0ABVQString@@@Z 10024a10     instanceLookup.obj
 0002:00003a28       __ehfuncinfo$?insert@?$QMapPrivate@VQString@@VcomplexType@@@@QAE?AV?$QMapIterator@VQString@@VcomplexType@@@@PAUQMapNodeBase@@0ABVQString@@@Z 10024a28     instanceLookup.obj
 0002:00003a4c       __unwindtable$??0?$QMapNode@VQString@@VcomplexParam@@@@QAE@ABU0@@Z 10024a4c     instanceLookup.obj
 0002:00003a5c       __ehfuncinfo$??0?$QMapNode@VQString@@VcomplexParam@@@@QAE@ABU0@@Z 10024a5c     instanceLookup.obj
 0002:00003a80       __unwindtable$??0?$QValueListPrivate@VcomplexInstance@@@@QAE@XZ 10024a80     instanceLookup.obj
 0002:00003a80       __unwindtable$?clear@?$QMap@VQString@@VcomplexType@@@@QAEXXZ 10024a80     instanceLookup.obj
 0002:00003a80       __unwindtable$?clear@?$QMap@VQString@@VparamInfo@@@@QAEXXZ 10024a80     instanceLookup.obj
 0002:00003a80       __unwindtable$?clear@?$QMap@VQString@@VcomplexParam@@@@QAEXXZ 10024a80     instanceLookup.obj
 0002:00003a80       __unwindtable$?clear@?$QMap@VQString@@VcomplexInstance@@@@QAEXXZ 10024a80     instanceLookup.obj
 0002:00003a80       __unwindtable$?insert@?$QValueListPrivate@VinstanceInfo@@@@QAE?AV?$QValueListIterator@VinstanceInfo@@@@V2@ABVinstanceInfo@@@Z 10024a80     instanceLookup.obj
 0002:00003a80       __unwindtable$?insert@?$QValueListPrivate@VcomplexInstance@@@@QAE?AV?$QValueListIterator@VcomplexInstance@@@@V2@ABVcomplexInstance@@@Z 10024a80     instanceLookup.obj
 0002:00003a80       __unwindtable$?insert@?$QValueListPrivate@VcomplexType@@@@QAE?AV?$QValueListIterator@VcomplexType@@@@V2@ABVcomplexType@@@Z 10024a80     instanceLookup.obj
 0002:00003a80       __unwindtable$?insert@?$QValueListPrivate@VdeviceTypeInfo@@@@QAE?AV?$QValueListIterator@VdeviceTypeInfo@@@@V2@ABVdeviceTypeInfo@@@Z 10024a80     instanceLookup.obj
 0002:00003a80       __unwindtable$??0?$QValueListPrivate@VinstanceInfo@@@@QAE@XZ 10024a80     instanceLookup.obj
 0002:00003a80       __unwindtable$??0?$QValueListPrivate@VcomplexType@@@@QAE@XZ 10024a80     instanceLookup.obj
 0002:00003a80       __unwindtable$?clear@?$QMap@VQString@@VdeviceTypeInfo@@@@QAEXXZ 10024a80     instanceLookup.obj
 0002:00003a80       __unwindtable$??0?$QValueListPrivate@VcomplexParam@@@@QAE@XZ 10024a80     instanceLookup.obj
 0002:00003a80       __unwindtable$??0?$QValueListPrivate@VparamInfo@@@@QAE@XZ 10024a80     instanceLookup.obj
 0002:00003a80       __unwindtable$??0?$QValueListPrivate@VdeviceTypeInfo@@@@QAE@XZ 10024a80     instanceLookup.obj
 0002:00003a80       __unwindtable$?clear@?$QMap@VQString@@VinstanceInfo@@@@QAEXXZ 10024a80     instanceLookup.obj
 0002:00003a88       __ehfuncinfo$?insert@?$QValueListPrivate@VcomplexType@@@@QAE?AV?$QValueListIterator@VcomplexType@@@@V2@ABVcomplexType@@@Z 10024a88     instanceLookup.obj
 0002:00003a88       __ehfuncinfo$?clear@?$QMap@VQString@@VdeviceTypeInfo@@@@QAEXXZ 10024a88     instanceLookup.obj
 0002:00003a88       __ehfuncinfo$??0?$QValueListPrivate@VcomplexType@@@@QAE@XZ 10024a88     instanceLookup.obj
 0002:00003a88       __ehfuncinfo$?insert@?$QValueListPrivate@VinstanceInfo@@@@QAE?AV?$QValueListIterator@VinstanceInfo@@@@V2@ABVinstanceInfo@@@Z 10024a88     instanceLookup.obj
 0002:00003a88       __ehfuncinfo$?clear@?$QMap@VQString@@VcomplexType@@@@QAEXXZ 10024a88     instanceLookup.obj
 0002:00003a88       __ehfuncinfo$?clear@?$QMap@VQString@@VcomplexInstance@@@@QAEXXZ 10024a88     instanceLookup.obj
 0002:00003a88       __ehfuncinfo$??0?$QValueListPrivate@VinstanceInfo@@@@QAE@XZ 10024a88     instanceLookup.obj
 0002:00003a88       __ehfuncinfo$?clear@?$QMap@VQString@@VparamInfo@@@@QAEXXZ 10024a88     instanceLookup.obj
 0002:00003a88       __ehfuncinfo$?insert@?$QValueListPrivate@VdeviceTypeInfo@@@@QAE?AV?$QValueListIterator@VdeviceTypeInfo@@@@V2@ABVdeviceTypeInfo@@@Z 10024a88     instanceLookup.obj
 0002:00003a88       __ehfuncinfo$?insert@?$QValueListPrivate@VcomplexInstance@@@@QAE?AV?$QValueListIterator@VcomplexInstance@@@@V2@ABVcomplexInstance@@@Z 10024a88     instanceLookup.obj
 0002:00003a88       __ehfuncinfo$?clear@?$QMap@VQString@@VcomplexParam@@@@QAEXXZ 10024a88     instanceLookup.obj
 0002:00003a88       __ehfuncinfo$??0?$QValueListPrivate@VcomplexInstance@@@@QAE@XZ 10024a88     instanceLookup.obj
 0002:00003a88       __ehfuncinfo$??0?$QValueListPrivate@VparamInfo@@@@QAE@XZ 10024a88     instanceLookup.obj
 0002:00003a88       __ehfuncinfo$??0?$QValueListPrivate@VcomplexParam@@@@QAE@XZ 10024a88     instanceLookup.obj
 0002:00003a88       __ehfuncinfo$?clear@?$QMap@VQString@@VinstanceInfo@@@@QAEXXZ 10024a88     instanceLookup.obj
 0002:00003a88       __ehfuncinfo$??0?$QValueListPrivate@VdeviceTypeInfo@@@@QAE@XZ 10024a88     instanceLookup.obj
 0002:00003aac       __unwindtable$?insert@?$QValueListPrivate@VcomplexParam@@@@QAE?AV?$QValueListIterator@VcomplexParam@@@@V2@ABVcomplexParam@@@Z 10024aac     instanceLookup.obj
 0002:00003abc       __ehfuncinfo$?insert@?$QValueListPrivate@VcomplexParam@@@@QAE?AV?$QValueListIterator@VcomplexParam@@@@V2@ABVcomplexParam@@@Z 10024abc     instanceLookup.obj
 0002:00003ae0       __unwindtable$??0?$QMapNode@VQString@@VcomplexInstance@@@@QAE@ABU0@@Z 10024ae0     instanceLookup.obj
 0002:00003af0       __ehfuncinfo$??0?$QMapNode@VQString@@VcomplexInstance@@@@QAE@ABU0@@Z 10024af0     instanceLookup.obj
 0002:00003b14       __unwindtable$??0?$QMapNode@VQString@@VinstanceInfo@@@@QAE@ABU0@@Z 10024b14     instanceLookup.obj
 0002:00003b24       __ehfuncinfo$??0?$QMapNode@VQString@@VinstanceInfo@@@@QAE@ABU0@@Z 10024b24     instanceLookup.obj
 0002:00003b48       __unwindtable$??0?$QMapNode@VQString@@VdeviceTypeInfo@@@@QAE@ABU0@@Z 10024b48     instanceLookup.obj
 0002:00003b58       __ehfuncinfo$??0?$QMapNode@VQString@@VdeviceTypeInfo@@@@QAE@ABU0@@Z 10024b58     instanceLookup.obj
 0002:00003b7c       __unwindtable$??0?$QMapNode@VQString@@VcomplexType@@@@QAE@ABU0@@Z 10024b7c     instanceLookup.obj
 0002:00003b8c       __ehfuncinfo$??0?$QMapNode@VQString@@VcomplexType@@@@QAE@ABU0@@Z 10024b8c     instanceLookup.obj
 0002:00003bb0       __unwindtable$??0launchItem@@QAE@ABVQString@@00_NH@Z 10024bb0     launchAccessor.obj
 0002:00003bb0       __unwindtable$??0panelsetItem@@QAE@ABVQString@@00@Z 10024bb0     launchAccessor.obj
 0002:00003bc8       __ehfuncinfo$??0launchItem@@QAE@ABVQString@@00_NH@Z 10024bc8     launchAccessor.obj
 0002:00003bc8       __ehfuncinfo$??0panelsetItem@@QAE@ABVQString@@00@Z 10024bc8     launchAccessor.obj
 0002:00003bec       __unwindtable$??1launchItem@@QAE@XZ 10024bec     launchAccessor.obj
 0002:00003bec       __unwindtable$??1panelsetItem@@QAE@XZ 10024bec     launchAccessor.obj
 0002:00003bfc       __ehfuncinfo$??1panelsetItem@@QAE@XZ 10024bfc     launchAccessor.obj
 0002:00003bfc       __ehfuncinfo$??1launchItem@@QAE@XZ 10024bfc     launchAccessor.obj
 0002:00003c20       __unwindtable$??_FpanelsetItem@@QAEXXZ 10024c20     launchAccessor.obj
 0002:00003c20       __unwindtable$??_FlaunchItem@@QAEXXZ 10024c20     launchAccessor.obj
 0002:00003c38       __ehfuncinfo$??_FpanelsetItem@@QAEXXZ 10024c38     launchAccessor.obj
 0002:00003c38       __ehfuncinfo$??_FlaunchItem@@QAEXXZ 10024c38     launchAccessor.obj
 0002:00003c5c       __ehfuncinfo$?attribute@usersAccessor@@AAE?AVQString@@ABV2@0@Z 10024c5c     launchAccessor.obj
 0002:00003c5c       __ehfuncinfo$?attribute@applicationsAccessor@@AAE?AVQString@@ABV2@0@Z 10024c5c     launchAccessor.obj
 0002:00003c5c       __ehfuncinfo$?attribute@workstationSettingsAccessor@@AAE?AVQString@@ABV2@0@Z 10024c5c     launchAccessor.obj
 0002:00003c5c       __ehfuncinfo$?attribute@panelsetsAccessor@@AAE?AVQString@@ABV2@0@Z 10024c5c     launchAccessor.obj
 0002:00003c5c       __ehfuncinfo$?attribute@workstationsAccessor@@AAE?AVQString@@ABV2@0@Z 10024c5c     launchAccessor.obj
 0002:00003c5c       __ehfuncinfo$?attribute@launchAccessor@@AAE?AVQString@@ABV2@0@Z 10024c5c     launchAccessor.obj
 0002:00003c80       __unwindtable$?attribute@workstationSettingsAccessor@@AAE?AVQString@@ABV2@0@Z 10024c80     launchAccessor.obj
 0002:00003c80       __unwindtable$?attribute@workstationsAccessor@@AAE?AVQString@@ABV2@0@Z 10024c80     launchAccessor.obj
 0002:00003c80       __unwindtable$?attribute@usersAccessor@@AAE?AVQString@@ABV2@0@Z 10024c80     launchAccessor.obj
 0002:00003c80       __unwindtable$?attribute@panelsetsAccessor@@AAE?AVQString@@ABV2@0@Z 10024c80     launchAccessor.obj
 0002:00003c80       __unwindtable$?attribute@applicationsAccessor@@AAE?AVQString@@ABV2@0@Z 10024c80     launchAccessor.obj
 0002:00003c80       __unwindtable$?attribute@launchAccessor@@AAE?AVQString@@ABV2@0@Z 10024c80     launchAccessor.obj
 0002:00003cb8       __ehfuncinfo$?item@launchAccessor@@QAE_NABVQString@@AAV2@AA_NAAV?$QValueList@VlaunchItem@@@@AAH@Z 10024cb8     launchAccessor.obj
 0002:00003cdc       __unwindtable$?item@launchAccessor@@QAE_NABVQString@@AAV2@AA_NAAV?$QValueList@VlaunchItem@@@@AAH@Z 10024cdc     launchAccessor.obj
 0002:00003dc4       __ehfuncinfo$?insertItem@launchAccessor@@QAE_NABVQString@@ABVlaunchItem@@H@Z 10024dc4     launchAccessor.obj
 0002:00003de8       __unwindtable$?insertItem@launchAccessor@@QAE_NABVQString@@ABVlaunchItem@@H@Z 10024de8     launchAccessor.obj
 0002:00003e68       __ehfuncinfo$?deleteItem@launchAccessor@@QAE_NABVQString@@ABVlaunchItem@@H@Z 10024e68     launchAccessor.obj
 0002:00003e8c       __unwindtable$?deleteItem@launchAccessor@@QAE_NABVQString@@ABVlaunchItem@@H@Z 10024e8c     launchAccessor.obj
 0002:00003ed4       __ehfuncinfo$?getLaunchItem@launchAccessor@@QAE_NABVQString@@HAAVlaunchItem@@@Z 10024ed4     launchAccessor.obj
 0002:00003ef8       __unwindtable$?getLaunchItem@launchAccessor@@QAE_NABVQString@@HAAVlaunchItem@@@Z 10024ef8     launchAccessor.obj
 0002:00003fe0       __ehfuncinfo$?demoteItem@launchAccessor@@QAE_NABVQString@@H_N@Z 10024fe0     launchAccessor.obj
 0002:00004004       __unwindtable$?demoteItem@launchAccessor@@QAE_NABVQString@@H_N@Z 10025004     launchAccessor.obj
 0002:0000405c       __ehfuncinfo$?addWorkstation@launchAccessor@@QAE_NABVQString@@0_NABV?$QValueList@VlaunchItem@@@@@Z 1002505c     launchAccessor.obj
 0002:00004080       __unwindtable$?addWorkstation@launchAccessor@@QAE_NABVQString@@0_NABV?$QValueList@VlaunchItem@@@@@Z 10025080     launchAccessor.obj
 0002:00004150       __ehfuncinfo$?deleteWorkstation@launchAccessor@@QAE_NABVQString@@@Z 10025150     launchAccessor.obj
 0002:00004174       __unwindtable$?deleteWorkstation@launchAccessor@@QAE_NABVQString@@@Z 10025174     launchAccessor.obj
 0002:0000426c       __unwindtable$?roc@launchAccessor@@QAE_NABVQString@@H@Z 1002526c     launchAccessor.obj
 0002:0000426c       __unwindtable$?roc@launchAccessor@@QAE_NABVQString@@@Z 1002526c     launchAccessor.obj
 0002:0000427c       __ehfuncinfo$?roc@launchAccessor@@QAE_NABVQString@@@Z 1002527c     launchAccessor.obj
 0002:0000427c       __ehfuncinfo$?roc@launchAccessor@@QAE_NABVQString@@H@Z 1002527c     launchAccessor.obj
 0002:000042a0       __unwindtable$?setROC@launchAccessor@@QAE_NABVQString@@_N@Z 100252a0     launchAccessor.obj
 0002:000042b0       __ehfuncinfo$?setROC@launchAccessor@@QAE_NABVQString@@_N@Z 100252b0     launchAccessor.obj
 0002:000042d4       __ehfuncinfo$?setCurrent@workstationsAccessor@@QAE_NABVQString@@@Z 100252d4     launchAccessor.obj
 0002:000042d4       __ehfuncinfo$?setCurrent@applicationsAccessor@@QAE_NABVQString@@@Z 100252d4     launchAccessor.obj
 0002:000042d4       __ehfuncinfo$?setCurrent@panelsetsAccessor@@QAE_NABVQString@@@Z 100252d4     launchAccessor.obj
 0002:000042d4       __ehfuncinfo$?setCurrent@launchAccessor@@QAE_NABVQString@@@Z 100252d4     launchAccessor.obj
 0002:000042d4       __ehfuncinfo$?setCurrent@workstationSettingsAccessor@@QAE_NABVQString@@@Z 100252d4     launchAccessor.obj
 0002:000042f8       __unwindtable$?setCurrent@workstationsAccessor@@QAE_NABVQString@@@Z 100252f8     launchAccessor.obj
 0002:000042f8       __unwindtable$?setCurrent@panelsetsAccessor@@QAE_NABVQString@@@Z 100252f8     launchAccessor.obj
 0002:000042f8       __unwindtable$?setCurrent@workstationSettingsAccessor@@QAE_NABVQString@@@Z 100252f8     launchAccessor.obj
 0002:000042f8       __unwindtable$?setCurrent@applicationsAccessor@@QAE_NABVQString@@@Z 100252f8     launchAccessor.obj
 0002:000042f8       __unwindtable$?setCurrent@launchAccessor@@QAE_NABVQString@@@Z 100252f8     launchAccessor.obj
 0002:00004320       __ehfuncinfo$?setChildAttribute@launchAccessor@@QAE_NABVQString@@H00@Z 10025320     launchAccessor.obj
 0002:00004344       __unwindtable$?setChildAttribute@launchAccessor@@QAE_NABVQString@@H00@Z 10025344     launchAccessor.obj
 0002:0000438c       __ehfuncinfo$?childAttribute@launchAccessor@@QAE?AVQString@@ABV2@H0@Z 1002538c     launchAccessor.obj
 0002:000043b0       __unwindtable$?childAttribute@launchAccessor@@QAE?AVQString@@ABV2@H0@Z 100253b0     launchAccessor.obj
 0002:00004400       __unwindtable$?user@workstationsAccessor@@QAE?AVQString@@ABV2@@Z 10025400     launchAccessor.obj
 0002:00004400       __unwindtable$?type@applicationsAccessor@@QAE?AVQString@@ABV2@@Z 10025400     launchAccessor.obj
 0002:00004400       __unwindtable$?workingdir@launchAccessor@@QAE?AVQString@@ABV2@H@Z 10025400     launchAccessor.obj
 0002:00004400       __unwindtable$?title@applicationsAccessor@@QAE?AVQString@@ABV2@@Z 10025400     launchAccessor.obj
 0002:00004400       __unwindtable$?application@launchAccessor@@QAE?AVQString@@ABV2@H@Z 10025400     launchAccessor.obj
 0002:00004400       __unwindtable$?engset@usersAccessor@@QAE?AVQString@@ABV2@@Z 10025400     launchAccessor.obj
 0002:00004400       __unwindtable$?csi@launchAccessor@@QAE?AVQString@@ABV2@@Z 10025400     launchAccessor.obj
 0002:00004400       __unwindtable$?panelset@usersAccessor@@QAE?AVQString@@ABV2@@Z 10025400     launchAccessor.obj
 0002:00004400       __unwindtable$?caption@applicationsAccessor@@QAE?AVQString@@ABV2@@Z 10025400     launchAccessor.obj
 0002:00004400       __unwindtable$?icon@applicationsAccessor@@QAE?AVQString@@ABV2@@Z 10025400     launchAccessor.obj
 0002:00004400       __unwindtable$?name@workstationsAccessor@@QAE?AVQString@@ABV2@@Z 10025400     launchAccessor.obj
 0002:00004400       __unwindtable$?arguments@launchAccessor@@QAE?AVQString@@ABV2@H@Z 10025400     launchAccessor.obj
 0002:00004410       __ehfuncinfo$?icon@applicationsAccessor@@QAE?AVQString@@ABV2@@Z 10025410     launchAccessor.obj
 0002:00004410       __ehfuncinfo$?type@applicationsAccessor@@QAE?AVQString@@ABV2@@Z 10025410     launchAccessor.obj
 0002:00004410       __ehfuncinfo$?name@workstationsAccessor@@QAE?AVQString@@ABV2@@Z 10025410     launchAccessor.obj
 0002:00004410       __ehfuncinfo$?user@workstationsAccessor@@QAE?AVQString@@ABV2@@Z 10025410     launchAccessor.obj
 0002:00004410       __ehfuncinfo$?panelset@usersAccessor@@QAE?AVQString@@ABV2@@Z 10025410     launchAccessor.obj
 0002:00004410       __ehfuncinfo$?caption@applicationsAccessor@@QAE?AVQString@@ABV2@@Z 10025410     launchAccessor.obj
 0002:00004410       __ehfuncinfo$?csi@launchAccessor@@QAE?AVQString@@ABV2@@Z 10025410     launchAccessor.obj
 0002:00004410       __ehfuncinfo$?title@applicationsAccessor@@QAE?AVQString@@ABV2@@Z 10025410     launchAccessor.obj
 0002:00004410       __ehfuncinfo$?engset@usersAccessor@@QAE?AVQString@@ABV2@@Z 10025410     launchAccessor.obj
 0002:00004410       __ehfuncinfo$?arguments@launchAccessor@@QAE?AVQString@@ABV2@H@Z 10025410     launchAccessor.obj
 0002:00004410       __ehfuncinfo$?workingdir@launchAccessor@@QAE?AVQString@@ABV2@H@Z 10025410     launchAccessor.obj
 0002:00004410       __ehfuncinfo$?application@launchAccessor@@QAE?AVQString@@ABV2@H@Z 10025410     launchAccessor.obj
 0002:00004434       __unwindtable$?delay@launchAccessor@@QAEHABVQString@@H@Z 10025434     launchAccessor.obj
 0002:00004444       __ehfuncinfo$?delay@launchAccessor@@QAEHABVQString@@H@Z 10025444     launchAccessor.obj
 0002:00004468       __unwindtable$?setDelay@launchAccessor@@QAE_NABVQString@@HH@Z 10025468     launchAccessor.obj
 0002:00004480       __ehfuncinfo$?setDelay@launchAccessor@@QAE_NABVQString@@HH@Z 10025480     launchAccessor.obj
 0002:000044a4       __unwindtable$?setRoc@launchAccessor@@QAE_NABVQString@@H_N@Z 100254a4     launchAccessor.obj
 0002:000044b4       __ehfuncinfo$?setRoc@launchAccessor@@QAE_NABVQString@@H_N@Z 100254b4     launchAccessor.obj
 0002:000044d8       __unwindtable$??0?$QValueList@VlaunchItem@@@@QAE@XZ 100254d8     launchAccessor.obj
 0002:000044d8       __unwindtable$??0?$QValueList@VpanelsetItem@@@@QAE@XZ 100254d8     launchAccessor.obj
 0002:000044e8       __ehfuncinfo$??0?$QValueList@VlaunchItem@@@@QAE@XZ 100254e8     launchAccessor.obj
 0002:000044e8       __ehfuncinfo$??0?$QValueList@VpanelsetItem@@@@QAE@XZ 100254e8     launchAccessor.obj
 0002:0000450c       __unwindtable$??0?$QValueListPrivate@VdeviceTypeInfo@@@@QAE@ABV0@@Z 1002550c     launchAccessor.obj
 0002:0000450c       __unwindtable$??0?$QValueListPrivate@VinstanceInfo@@@@QAE@ABV0@@Z 1002550c     launchAccessor.obj
 0002:0000450c       __unwindtable$??0?$QValueListPrivate@VcomplexParam@@@@QAE@ABV0@@Z 1002550c     launchAccessor.obj
 0002:0000450c       __unwindtable$??0?$QValueListPrivate@VcomplexInstance@@@@QAE@ABV0@@Z 1002550c     launchAccessor.obj
 0002:0000450c       __unwindtable$??0?$QValueListPrivate@VpanelsetItem@@@@QAE@ABV0@@Z 1002550c     launchAccessor.obj
 0002:0000450c       __unwindtable$??0?$QValueListPrivate@VlaunchItem@@@@QAE@ABV0@@Z 1002550c     launchAccessor.obj
 0002:0000450c       __unwindtable$??0?$QValueListPrivate@VparamInfo@@@@QAE@ABV0@@Z 1002550c     launchAccessor.obj
 0002:0000450c       __unwindtable$??0?$QValueListPrivate@VcomplexType@@@@QAE@ABV0@@Z 1002550c     launchAccessor.obj
 0002:00004514       __ehfuncinfo$??0?$QValueListPrivate@VcomplexInstance@@@@QAE@ABV0@@Z 10025514     launchAccessor.obj
 0002:00004514       __ehfuncinfo$??0?$QValueListPrivate@VcomplexParam@@@@QAE@ABV0@@Z 10025514     launchAccessor.obj
 0002:00004514       __ehfuncinfo$??0?$QValueListPrivate@VparamInfo@@@@QAE@ABV0@@Z 10025514     launchAccessor.obj
 0002:00004514       __ehfuncinfo$??0?$QValueListPrivate@VlaunchItem@@@@QAE@ABV0@@Z 10025514     launchAccessor.obj
 0002:00004514       __ehfuncinfo$??0?$QValueListPrivate@VdeviceTypeInfo@@@@QAE@ABV0@@Z 10025514     launchAccessor.obj
 0002:00004514       __ehfuncinfo$??0?$QValueListPrivate@VcomplexType@@@@QAE@ABV0@@Z 10025514     launchAccessor.obj
 0002:00004514       __ehfuncinfo$??0?$QValueListPrivate@VpanelsetItem@@@@QAE@ABV0@@Z 10025514     launchAccessor.obj
 0002:00004514       __ehfuncinfo$??0?$QValueListPrivate@VinstanceInfo@@@@QAE@ABV0@@Z 10025514     launchAccessor.obj
 0002:00004538       __unwindtable$?insert@?$QValueListPrivate@VpanelsetItem@@@@QAE?AV?$QValueListIterator@VpanelsetItem@@@@V2@ABVpanelsetItem@@@Z 10025538     launchAccessor.obj
 0002:00004538       __unwindtable$?insert@?$QValueListPrivate@VlaunchItem@@@@QAE?AV?$QValueListIterator@VlaunchItem@@@@V2@ABVlaunchItem@@@Z 10025538     launchAccessor.obj
 0002:00004538       __unwindtable$??0?$QValueListPrivate@VworkstationSettingsItem@@@@QAE@XZ 10025538     launchAccessor.obj
 0002:00004550       __ehfuncinfo$??0?$QValueListPrivate@VworkstationSettingsItem@@@@QAE@XZ 10025550     launchAccessor.obj
 0002:00004550       __ehfuncinfo$?insert@?$QValueListPrivate@VlaunchItem@@@@QAE?AV?$QValueListIterator@VlaunchItem@@@@V2@ABVlaunchItem@@@Z 10025550     launchAccessor.obj
 0002:00004550       __ehfuncinfo$?insert@?$QValueListPrivate@VpanelsetItem@@@@QAE?AV?$QValueListIterator@VpanelsetItem@@@@V2@ABVpanelsetItem@@@Z 10025550     launchAccessor.obj
 0002:00004574       __unwindtable$??_FworkstationSettingsItem@@QAEXXZ 10025574     panelsetsAccessor.obj
 0002:00004574       __unwindtable$??0panelsetItem@@QAE@ABV0@@Z 10025574     panelsetsAccessor.obj
 0002:00004574       __unwindtable$??0launchItem@@QAE@ABV0@@Z 10025574     panelsetsAccessor.obj
 0002:00004584       __ehfuncinfo$??0panelsetItem@@QAE@ABV0@@Z 10025584     panelsetsAccessor.obj
 0002:00004584       __ehfuncinfo$??0launchItem@@QAE@ABV0@@Z 10025584     panelsetsAccessor.obj
 0002:00004584       __ehfuncinfo$??_FworkstationSettingsItem@@QAEXXZ 10025584     panelsetsAccessor.obj
 0002:000045a8       __unwindtable$??1panelsetsAccessor@@UAE@XZ 100255a8     panelsetsAccessor.obj
 0002:000045a8       __unwindtable$??1usersAccessor@@UAE@XZ 100255a8     panelsetsAccessor.obj
 0002:000045a8       __unwindtable$??1applicationsAccessor@@UAE@XZ 100255a8     panelsetsAccessor.obj
 0002:000045a8       __unwindtable$??1workstationSettingsAccessor@@UAE@XZ 100255a8     panelsetsAccessor.obj
 0002:000045a8       __unwindtable$??1launchAccessor@@UAE@XZ 100255a8     panelsetsAccessor.obj
 0002:000045a8       __unwindtable$??1workstationsAccessor@@UAE@XZ 100255a8     panelsetsAccessor.obj
 0002:000045b8       __ehfuncinfo$??1workstationsAccessor@@UAE@XZ 100255b8     panelsetsAccessor.obj
 0002:000045b8       __ehfuncinfo$??1launchAccessor@@UAE@XZ 100255b8     panelsetsAccessor.obj
 0002:000045b8       __ehfuncinfo$??1usersAccessor@@UAE@XZ 100255b8     panelsetsAccessor.obj
 0002:000045b8       __ehfuncinfo$??1panelsetsAccessor@@UAE@XZ 100255b8     panelsetsAccessor.obj
 0002:000045b8       __ehfuncinfo$??1applicationsAccessor@@UAE@XZ 100255b8     panelsetsAccessor.obj
 0002:000045b8       __ehfuncinfo$??1workstationSettingsAccessor@@UAE@XZ 100255b8     panelsetsAccessor.obj
 0002:000045dc       __unwindtable$?load@workstationSettingsAccessor@@SAPAV1@XZ 100255dc     panelsetsAccessor.obj
 0002:000045dc       __unwindtable$?load@applicationsAccessor@@SAPAV1@XZ 100255dc     panelsetsAccessor.obj
 0002:000045dc       __unwindtable$?load@launchAccessor@@SAPAV1@XZ 100255dc     panelsetsAccessor.obj
 0002:000045dc       __unwindtable$?load@usersAccessor@@SAPAV1@XZ 100255dc     panelsetsAccessor.obj
 0002:000045dc       __unwindtable$?load@panelsetsAccessor@@SAPAV1@XZ 100255dc     panelsetsAccessor.obj
 0002:000045dc       __unwindtable$?load@workstationsAccessor@@SAPAV1@XZ 100255dc     panelsetsAccessor.obj
 0002:000045e4       __ehfuncinfo$?load@usersAccessor@@SAPAV1@XZ 100255e4     panelsetsAccessor.obj
 0002:000045e4       __ehfuncinfo$?load@workstationSettingsAccessor@@SAPAV1@XZ 100255e4     panelsetsAccessor.obj
 0002:000045e4       __ehfuncinfo$?load@applicationsAccessor@@SAPAV1@XZ 100255e4     panelsetsAccessor.obj
 0002:000045e4       __ehfuncinfo$?load@workstationsAccessor@@SAPAV1@XZ 100255e4     panelsetsAccessor.obj
 0002:000045e4       __ehfuncinfo$?load@panelsetsAccessor@@SAPAV1@XZ 100255e4     panelsetsAccessor.obj
 0002:000045e4       __ehfuncinfo$?load@launchAccessor@@SAPAV1@XZ 100255e4     panelsetsAccessor.obj
 0002:00004608       __ehfuncinfo$?item@panelsetsAccessor@@QAE_NABVQString@@AAV2@AAV?$QValueList@VpanelsetItem@@@@AAH@Z 10025608     panelsetsAccessor.obj
 0002:0000462c       __unwindtable$?item@panelsetsAccessor@@QAE_NABVQString@@AAV2@AAV?$QValueList@VpanelsetItem@@@@AAH@Z 1002562c     panelsetsAccessor.obj
 0002:000046e4       __ehfuncinfo$?nextItem@panelsetsAccessor@@QAE_NAAVQString@@0AAV?$QValueList@VpanelsetItem@@@@@Z 100256e4     panelsetsAccessor.obj
 0002:00004708       __unwindtable$?nextItem@panelsetsAccessor@@QAE_NAAVQString@@0AAV?$QValueList@VpanelsetItem@@@@@Z 10025708     panelsetsAccessor.obj
 0002:000047b8       __ehfuncinfo$?insertItem@panelsetsAccessor@@QAE_NABVQString@@ABVpanelsetItem@@H@Z 100257b8     panelsetsAccessor.obj
 0002:000047dc       __unwindtable$?insertItem@panelsetsAccessor@@QAE_NABVQString@@ABVpanelsetItem@@H@Z 100257dc     panelsetsAccessor.obj
 0002:0000484c       __ehfuncinfo$?deleteItem@panelsetsAccessor@@QAE_NABVQString@@ABVpanelsetItem@@H@Z 1002584c     panelsetsAccessor.obj
 0002:00004870       __unwindtable$?deleteItem@panelsetsAccessor@@QAE_NABVQString@@ABVpanelsetItem@@H@Z 10025870     panelsetsAccessor.obj
 0002:000048e8       __ehfuncinfo$?demoteItem@panelsetsAccessor@@QAE_NABVQString@@ABVpanelsetItem@@H_N@Z 100258e8     panelsetsAccessor.obj
 0002:0000490c       __unwindtable$?demoteItem@panelsetsAccessor@@QAE_NABVQString@@ABVpanelsetItem@@H_N@Z 1002590c     panelsetsAccessor.obj
 0002:00004994       __ehfuncinfo$?addPanelset@panelsetsAccessor@@QAE_NABVQString@@0ABV?$QValueList@VpanelsetItem@@@@@Z 10025994     panelsetsAccessor.obj
 0002:000049b8       __unwindtable$?addPanelset@panelsetsAccessor@@QAE_NABVQString@@0ABV?$QValueList@VpanelsetItem@@@@@Z 100259b8     panelsetsAccessor.obj
 0002:00004a50       __ehfuncinfo$?deletePanelset@panelsetsAccessor@@QAE_NABVQString@@@Z 10025a50     panelsetsAccessor.obj
 0002:00004a74       __unwindtable$?deletePanelset@panelsetsAccessor@@QAE_NABVQString@@@Z 10025a74     panelsetsAccessor.obj
 0002:00004b3c       __ehfuncinfo$?renamePanelset@panelsetsAccessor@@QAE_NABVQString@@0@Z 10025b3c     panelsetsAccessor.obj
 0002:00004b3c       __ehfuncinfo$?renamelaunch@launchAccessor@@QAE_NABVQString@@0@Z 10025b3c     panelsetsAccessor.obj
 0002:00004b3c       __ehfuncinfo$?renameWorkstation@workstationSettingsAccessor@@QAE_NABVQString@@0@Z 10025b3c     panelsetsAccessor.obj
 0002:00004b60       __unwindtable$?renamePanelset@panelsetsAccessor@@QAE_NABVQString@@0@Z 10025b60     panelsetsAccessor.obj
 0002:00004b60       __unwindtable$?renamelaunch@launchAccessor@@QAE_NABVQString@@0@Z 10025b60     panelsetsAccessor.obj
 0002:00004b60       __unwindtable$?renameWorkstation@workstationSettingsAccessor@@QAE_NABVQString@@0@Z 10025b60     panelsetsAccessor.obj
 0002:00004b98       __ehfuncinfo$?itemPos@panelsetsAccessor@@QAEHABVQString@@ABVpanelsetItem@@@Z 10025b98     panelsetsAccessor.obj
 0002:00004bbc       __unwindtable$?itemPos@panelsetsAccessor@@QAEHABVQString@@ABVpanelsetItem@@@Z 10025bbc     panelsetsAccessor.obj
 0002:00004c24       __unwindtable$?append@?$QValueList@VcomplexParam@@@@QAE?AV?$QValueListIterator@VcomplexParam@@@@ABVcomplexParam@@@Z 10025c24     panelsetsAccessor.obj
 0002:00004c24       __unwindtable$?append@?$QValueList@VlaunchItem@@@@QAE?AV?$QValueListIterator@VlaunchItem@@@@ABVlaunchItem@@@Z 10025c24     panelsetsAccessor.obj
 0002:00004c24       __unwindtable$?append@?$QValueList@VpanelsetItem@@@@QAE?AV?$QValueListIterator@VpanelsetItem@@@@ABVpanelsetItem@@@Z 10025c24     panelsetsAccessor.obj
 0002:00004c24       __unwindtable$?append@?$QValueList@VworkstationSettingsItem@@@@QAE?AV?$QValueListIterator@VworkstationSettingsItem@@@@ABVworkstationSettingsItem@@@Z 10025c24     panelsetsAccessor.obj
 0002:00004c24       __unwindtable$?append@?$QValueList@VcomplexType@@@@QAE?AV?$QValueListIterator@VcomplexType@@@@ABVcomplexType@@@Z 10025c24     panelsetsAccessor.obj
 0002:00004c24       __unwindtable$?append@?$QValueList@VparamInfo@@@@QAE?AV?$QValueListIterator@VparamInfo@@@@ABVparamInfo@@@Z 10025c24     panelsetsAccessor.obj
 0002:00004c24       __unwindtable$?append@?$QValueList@VcomplexInstance@@@@QAE?AV?$QValueListIterator@VcomplexInstance@@@@ABVcomplexInstance@@@Z 10025c24     panelsetsAccessor.obj
 0002:00004c24       __unwindtable$?append@?$QValueList@VdeviceTypeInfo@@@@QAE?AV?$QValueListIterator@VdeviceTypeInfo@@@@ABVdeviceTypeInfo@@@Z 10025c24     panelsetsAccessor.obj
 0002:00004c24       __unwindtable$?append@?$QValueList@VinstanceInfo@@@@QAE?AV?$QValueListIterator@VinstanceInfo@@@@ABVinstanceInfo@@@Z 10025c24     panelsetsAccessor.obj
 0002:00004c34       __ehfuncinfo$?append@?$QValueList@VcomplexParam@@@@QAE?AV?$QValueListIterator@VcomplexParam@@@@ABVcomplexParam@@@Z 10025c34     panelsetsAccessor.obj
 0002:00004c34       __ehfuncinfo$?append@?$QValueList@VcomplexType@@@@QAE?AV?$QValueListIterator@VcomplexType@@@@ABVcomplexType@@@Z 10025c34     panelsetsAccessor.obj
 0002:00004c34       __ehfuncinfo$?append@?$QValueList@VparamInfo@@@@QAE?AV?$QValueListIterator@VparamInfo@@@@ABVparamInfo@@@Z 10025c34     panelsetsAccessor.obj
 0002:00004c34       __ehfuncinfo$?append@?$QValueList@VpanelsetItem@@@@QAE?AV?$QValueListIterator@VpanelsetItem@@@@ABVpanelsetItem@@@Z 10025c34     panelsetsAccessor.obj
 0002:00004c34       __ehfuncinfo$?append@?$QValueList@VlaunchItem@@@@QAE?AV?$QValueListIterator@VlaunchItem@@@@ABVlaunchItem@@@Z 10025c34     panelsetsAccessor.obj
 0002:00004c34       __ehfuncinfo$?append@?$QValueList@VdeviceTypeInfo@@@@QAE?AV?$QValueListIterator@VdeviceTypeInfo@@@@ABVdeviceTypeInfo@@@Z 10025c34     panelsetsAccessor.obj
 0002:00004c34       __ehfuncinfo$?append@?$QValueList@VcomplexInstance@@@@QAE?AV?$QValueListIterator@VcomplexInstance@@@@ABVcomplexInstance@@@Z 10025c34     panelsetsAccessor.obj
 0002:00004c34       __ehfuncinfo$?append@?$QValueList@VinstanceInfo@@@@QAE?AV?$QValueListIterator@VinstanceInfo@@@@ABVinstanceInfo@@@Z 10025c34     panelsetsAccessor.obj
 0002:00004c34       __ehfuncinfo$?append@?$QValueList@VworkstationSettingsItem@@@@QAE?AV?$QValueListIterator@VworkstationSettingsItem@@@@ABVworkstationSettingsItem@@@Z 10025c34     panelsetsAccessor.obj
 0002:00004c58       __unwindtable$??0?$QValueListNode@VpanelsetItem@@@@QAE@XZ 10025c58     panelsetsAccessor.obj
 0002:00004c58       __unwindtable$??0?$QValueListNode@VlaunchItem@@@@QAE@XZ 10025c58     panelsetsAccessor.obj
 0002:00004c70       __ehfuncinfo$??0?$QValueListNode@VpanelsetItem@@@@QAE@XZ 10025c70     panelsetsAccessor.obj
 0002:00004c70       __ehfuncinfo$??0?$QValueListNode@VlaunchItem@@@@QAE@XZ 10025c70     panelsetsAccessor.obj
 0002:00004c94       __unwindtable$??_G?$QValueListNode@VpanelsetItem@@@@UAEPAXI@Z 10025c94     panelsetsAccessor.obj
 0002:00004c94       __unwindtable$??0workstationSettingsItem@@QAE@ABVQString@@0@Z 10025c94     panelsetsAccessor.obj
 0002:00004c94       __unwindtable$??_G?$QValueListNode@VlaunchItem@@@@UAEPAXI@Z 10025c94     panelsetsAccessor.obj
 0002:00004ca4       __ehfuncinfo$??_G?$QValueListNode@VpanelsetItem@@@@UAEPAXI@Z 10025ca4     panelsetsAccessor.obj
 0002:00004ca4       __ehfuncinfo$??0workstationSettingsItem@@QAE@ABVQString@@0@Z 10025ca4     panelsetsAccessor.obj
 0002:00004ca4       __ehfuncinfo$??_G?$QValueListNode@VlaunchItem@@@@UAEPAXI@Z 10025ca4     panelsetsAccessor.obj
 0002:00004cc8       __ehfuncinfo$?nextItem@workstationsAccessor@@QAE_NAAVQString@@00@Z 10025cc8     usersAccessor.obj
 0002:00004cc8       __ehfuncinfo$?nextItem@usersAccessor@@QAE_NAAVQString@@00@Z 10025cc8     usersAccessor.obj
 0002:00004cec       __unwindtable$?nextItem@workstationsAccessor@@QAE_NAAVQString@@00@Z 10025cec     usersAccessor.obj
 0002:00004cec       __unwindtable$?nextItem@usersAccessor@@QAE_NAAVQString@@00@Z 10025cec     usersAccessor.obj
 0002:00004d2c       __ehfuncinfo$??0usersAccessor@@QAE@XZ 10025d2c     workstationsAccessor.obj
 0002:00004d2c       __ehfuncinfo$??0panelsetsAccessor@@QAE@XZ 10025d2c     workstationsAccessor.obj
 0002:00004d2c       __ehfuncinfo$??0applicationsAccessor@@QAE@XZ 10025d2c     workstationsAccessor.obj
 0002:00004d2c       __ehfuncinfo$??0workstationSettingsAccessor@@QAE@XZ 10025d2c     workstationsAccessor.obj
 0002:00004d2c       __ehfuncinfo$??0launchAccessor@@QAE@XZ 10025d2c     workstationsAccessor.obj
 0002:00004d2c       __ehfuncinfo$??0workstationsAccessor@@QAE@XZ 10025d2c     workstationsAccessor.obj
 0002:00004d50       __unwindtable$??0usersAccessor@@QAE@XZ 10025d50     workstationsAccessor.obj
 0002:00004d50       __unwindtable$??0applicationsAccessor@@QAE@XZ 10025d50     workstationsAccessor.obj
 0002:00004d50       __unwindtable$??0workstationsAccessor@@QAE@XZ 10025d50     workstationsAccessor.obj
 0002:00004d50       __unwindtable$??0panelsetsAccessor@@QAE@XZ 10025d50     workstationsAccessor.obj
 0002:00004d50       __unwindtable$??0workstationSettingsAccessor@@QAE@XZ 10025d50     workstationsAccessor.obj
 0002:00004d50       __unwindtable$??0launchAccessor@@QAE@XZ 10025d50     workstationsAccessor.obj
 0002:00004d80       __unwindtable$?setDirty@workstationSettingsAccessor@@AAEXXZ 10025d80     workstationsAccessor.obj
 0002:00004d80       __unwindtable$?setDirty@panelsetsAccessor@@AAEXXZ 10025d80     workstationsAccessor.obj
 0002:00004d80       __unwindtable$?setDirty@usersAccessor@@AAEXXZ 10025d80     workstationsAccessor.obj
 0002:00004d80       __unwindtable$?setDirty@launchAccessor@@AAEXXZ 10025d80     workstationsAccessor.obj
 0002:00004d80       __unwindtable$?setDirty@workstationsAccessor@@AAEXXZ 10025d80     workstationsAccessor.obj
 0002:00004d80       __unwindtable$?setDirty@applicationsAccessor@@AAEXXZ 10025d80     workstationsAccessor.obj
 0002:00004d98       __ehfuncinfo$?setDirty@workstationSettingsAccessor@@AAEXXZ 10025d98     workstationsAccessor.obj
 0002:00004d98       __ehfuncinfo$?setDirty@launchAccessor@@AAEXXZ 10025d98     workstationsAccessor.obj
 0002:00004d98       __ehfuncinfo$?setDirty@applicationsAccessor@@AAEXXZ 10025d98     workstationsAccessor.obj
 0002:00004d98       __ehfuncinfo$?setDirty@usersAccessor@@AAEXXZ 10025d98     workstationsAccessor.obj
 0002:00004d98       __ehfuncinfo$?setDirty@workstationsAccessor@@AAEXXZ 10025d98     workstationsAccessor.obj
