 bncs_configdb

 Timestamp is 5e9db7cb (Mon Apr 20 15:55:07 2020)

 Preferred load address is 10000000

 Start         Length     Name                   Class
 0001:00000000 00032053H .textbss                DATA
 0002:00000000 00005304H .text$di                CODE
 0002:00005310 00058f0dH .text$mn                CODE
 0002:0005e220 0000bb88H .text$x                 CODE
 0002:00069db0 00001a34H .text$yd                CODE
 0003:00000000 00000104H .CRT$XCA                DATA
 0003:00000104 000001a9H .CRT$XCU                DATA
 0003:000002b0 00000104H .CRT$XCZ                DATA
 0003:000003b4 00000104H .CRT$XIA                DATA
 0003:000004b8 00000104H .CRT$XIAA               DATA
 0003:000005bc 00000104H .CRT$XIC                DATA
 0003:000006c0 00000104H .CRT$XIZ                DATA
 0003:000007d0 00003361H .rdata                  DATA
 0003:00003b34 00000173H .rdata$debug            DATA
 0003:00003ca8 00001178H .rdata$r                DATA
 0003:00004e20 00000104H .rtc$IAA                DATA
 0003:00004f24 00000143H .rtc$IMZ                DATA
 0003:00005068 00000104H .rtc$IZZ                DATA
 0003:0000516c 00000104H .rtc$TAA                DATA
 0003:00005270 00000143H .rtc$TMZ                DATA
 0003:000053b4 00000104H .rtc$TZZ                DATA
 0003:000054b8 00006eb3H .xdata$x                DATA
 0003:0000c370 0000b1ccH .edata                  DATA
 0004:00000000 000008e2H .data                   DATA
 0004:000008e8 00000c41H .data$r                 DATA
 0004:00001530 00000574H .bss                    DATA
 0005:00000000 00000604H .idata$5                DATA
 0005:00000604 00000078H .idata$2                DATA
 0005:0000067c 00000014H .idata$3                DATA
 0005:00000690 00000604H .idata$4                DATA
 0005:00000c94 00002737H .idata$6                DATA
 0006:00000000 00000216H .rsrc$01                DATA
 0006:00000220 0000086cH .rsrc$02                DATA

  Address         Publics by Value              Rva+Base       Lib:Object

 0000:00000000       ___safe_se_handler_table   00000000     <absolute>
 0000:00000000       ___guard_fids_table        00000000     <absolute>
 0000:00000000       ___safe_se_handler_count   00000000     <absolute>
 0000:00000000       ___guard_fids_count        00000000     <absolute>
 0000:00000000       __except_list              00000000     <absolute>
 0000:00000000       ___guard_flags             00000000     <absolute>
 0000:00009876       __fltused                  00009876     <absolute>
 0000:00009876       __ldused                   00009876     <absolute>
 0000:00000000       ___ImageBase               10000000     <linker-defined>
 0001:00000000       __enc$textbss$begin        10001000     <linker-defined>
 0001:00032053       __enc$textbss$end          10033053     <linker-defined>
 0002:00005310       ??0applicationsAccessor@@QAE@XZ 10039310 f   applicationsAccessor.obj
 0002:00005550       ??1applicationsAccessor@@UAE@XZ 10039550 f   applicationsAccessor.obj
 0002:00005650       ?setAttribute@applicationsAccessor@@AAE_NABVQString@@00@Z 10039650 f   applicationsAccessor.obj
 0002:00005980       ?attribute@applicationsAccessor@@AAE?AVQString@@ABV2@0@Z 10039980 f   applicationsAccessor.obj
 0002:00005de0       ?setDirty@applicationsAccessor@@AAEXXZ 10039de0 f   applicationsAccessor.obj
 0002:00005f40       ?lock@applicationsAccessor@@QAEXXZ 10039f40 f   applicationsAccessor.obj
 0002:00005f90       ?unlock@applicationsAccessor@@QAEXXZ 10039f90 f   applicationsAccessor.obj
 0002:00005fe0       ?version@applicationsAccessor@@QAENXZ 10039fe0 f   applicationsAccessor.obj
 0002:00006170       ?setVersion@applicationsAccessor@@QAEXN@Z 1003a170 f   applicationsAccessor.obj
 0002:00006340       ?type@applicationsAccessor@@QAE?AVQString@@ABV2@@Z 1003a340 f   applicationsAccessor.obj
 0002:00006410       ?caption@applicationsAccessor@@QAE?AVQString@@ABV2@@Z 1003a410 f   applicationsAccessor.obj
 0002:000064e0       ?title@applicationsAccessor@@QAE?AVQString@@ABV2@@Z 1003a4e0 f   applicationsAccessor.obj
 0002:000065b0       ?icon@applicationsAccessor@@QAE?AVQString@@ABV2@@Z 1003a5b0 f   applicationsAccessor.obj
 0002:00006680       ?setCaption@applicationsAccessor@@QAE_NABVQString@@0@Z 1003a680 f   applicationsAccessor.obj
 0002:00006760       ?setTitle@applicationsAccessor@@QAE_NABVQString@@0@Z 1003a760 f   applicationsAccessor.obj
 0002:00006840       ?setType@applicationsAccessor@@QAE_NABVQString@@0@Z 1003a840 f   applicationsAccessor.obj
 0002:00006920       ?setIcon@applicationsAccessor@@QAE_NABVQString@@0@Z 1003a920 f   applicationsAccessor.obj
 0002:00006a00       ?addItem@applicationsAccessor@@QAE_NABVQString@@0000@Z 1003aa00 f   applicationsAccessor.obj
 0002:00006d70       ?deleteItem@applicationsAccessor@@QAE_NABVQString@@@Z 1003ad70 f   applicationsAccessor.obj
 0002:000070c0       ?item@applicationsAccessor@@QAE_NABVQString@@AAV2@111@Z 1003b0c0 f   applicationsAccessor.obj
 0002:00007670       ?nextItem@applicationsAccessor@@QAE_NAAVQString@@0000@Z 1003b670 f   applicationsAccessor.obj
 0002:00007b30       ?rename@applicationsAccessor@@QAE_NABVQString@@V2@@Z 1003bb30 f   applicationsAccessor.obj
 0002:00007bf0       ?setCurrent@applicationsAccessor@@QAE_NABVQString@@@Z 1003bbf0 f   applicationsAccessor.obj
 0002:00007eb0       ?setFirst@applicationsAccessor@@QAE_NXZ 1003beb0 f   applicationsAccessor.obj
 0002:00007ff0       ?exists@applicationsAccessor@@QAE_NABVQString@@@Z 1003bff0 f   applicationsAccessor.obj
 0002:00008300       ?isDirty@applicationsAccessor@@QAE_NXZ 1003c300 f   applicationsAccessor.obj
 0002:000083c0       ?setUndo@applicationsAccessor@@QAEX_N@Z 1003c3c0 f   applicationsAccessor.obj
 0002:00009030       ??$_Allocate@D@std@@YAPADIPAD@Z 1003d030 f i applicationsAccessor.obj
 0002:000090c0       ??$_Allocate@U_Container_proxy@std@@@std@@YAPAU_Container_proxy@0@IPAU10@@Z 1003d0c0 f i applicationsAccessor.obj
 0002:00009160       ??$_Debug_pointer@D@std@@YAXPBDPB_WI@Z 1003d160 f i applicationsAccessor.obj
 0002:000091d0       ??$addressof@D@std@@YAPADAAD@Z 1003d1d0 f i applicationsAccessor.obj
 0002:00009210       ??$construct@PADAAPAD@?$_Wrap_alloc@V?$allocator@D@std@@@std@@QAEXPAPADAAPAD@Z 1003d210 f i applicationsAccessor.obj
 0002:00009280       ??$construct@PADAAPAD@?$allocator@D@std@@QAEXPAPADAAPAD@Z 1003d280 f i applicationsAccessor.obj
 0002:00009380       ??$construct@PADAAPAD@?$allocator_traits@V?$allocator@D@std@@@std@@SAXAAV?$allocator@D@1@PAPADAAPAD@Z 1003d380 f i applicationsAccessor.obj
 0002:000093e0       ??$construct@U_Container_proxy@std@@U12@@?$allocator@U_Container_proxy@std@@@std@@QAEXPAU_Container_proxy@1@$$QAU21@@Z 1003d3e0 f i applicationsAccessor.obj
 0002:000094f0       ??$destroy@PAD@?$_Wrap_alloc@V?$allocator@D@std@@@std@@QAEXPAPAD@Z 1003d4f0 f i applicationsAccessor.obj
 0002:00009550       ??$destroy@PAD@?$allocator@D@std@@QAEXPAPAD@Z 1003d550 f i applicationsAccessor.obj
 0002:00009590       ??$destroy@PAD@?$allocator_traits@V?$allocator@D@std@@@std@@SAXAAV?$allocator@D@1@PAPAD@Z 1003d590 f i applicationsAccessor.obj
 0002:000095e0       ??$destroy@U_Container_proxy@std@@@?$allocator@U_Container_proxy@std@@@std@@QAEXPAU_Container_proxy@1@@Z 1003d5e0 f i applicationsAccessor.obj
 0002:00009620       ??$forward@AAPAD@std@@YAAAPADAAPAD@Z 1003d620 f i applicationsAccessor.obj
 0002:00009660       ??$forward@U_Container_proxy@std@@@std@@YA$$QAU_Container_proxy@0@AAU10@@Z 1003d660 f i applicationsAccessor.obj
 0002:000096a0       ??0?$_String_alloc@$0A@U?$_String_base_types@DV?$allocator@D@std@@@std@@@std@@QAE@ABV?$allocator@D@1@@Z 1003d6a0 f i applicationsAccessor.obj
 0002:00009750       ??0?$_String_val@U?$_Simple_types@D@std@@@std@@QAE@XZ 1003d750 f i applicationsAccessor.obj
 0002:000097d0       ??0?$_Wrap_alloc@V?$allocator@D@std@@@std@@QAE@XZ 1003d7d0 f i applicationsAccessor.obj
 0002:00009830       ??0?$allocator@D@std@@QAE@XZ 1003d830 f i applicationsAccessor.obj
 0002:00009870       ??0?$allocator@U_Container_proxy@std@@@std@@QAE@XZ 1003d870 f i applicationsAccessor.obj
 0002:000098b0       ??0?$basic_string@DU?$char_traits@D@std@@V?$allocator@D@2@@std@@QAE@PBD@Z 1003d8b0 f i applicationsAccessor.obj
 0002:00009980       ??0_Container_proxy@std@@QAE@XZ 1003d980 f i applicationsAccessor.obj
 0002:000099d0       ??0_Generic_error_category@std@@QAE@XZ 1003d9d0 f i applicationsAccessor.obj
 0002:00009a30       ??0_Iostream_error_category@std@@QAE@XZ 1003da30 f i applicationsAccessor.obj
 0002:00009a90       ??0_System_error_category@std@@QAE@XZ 1003da90 f i applicationsAccessor.obj
 0002:00009af0       ??0applicationsAccessor@@QAE@ABV0@@Z 1003daf0 f i applicationsAccessor.obj
 0002:00009bc0       ??0error_category@std@@QAE@XZ 1003dbc0 f i applicationsAccessor.obj
 0002:00009c10       ??0error_condition@std@@QAE@HABVerror_category@1@@Z 1003dc10 f i applicationsAccessor.obj
 0002:00009c60       ??1?$_String_alloc@$0A@U?$_String_base_types@DV?$allocator@D@std@@@std@@@std@@QAE@XZ 1003dc60 f i applicationsAccessor.obj
 0002:00009cc0       ??1?$_String_val@U?$_Simple_types@D@std@@@std@@QAE@XZ 1003dcc0 f i applicationsAccessor.obj
 0002:00009d20       ??1_Generic_error_category@std@@UAE@XZ 1003dd20 f i applicationsAccessor.obj
 0002:00009d70       ??1_Iostream_error_category@std@@UAE@XZ 1003dd70 f i applicationsAccessor.obj
 0002:00009dc0       ??1_System_error_category@std@@UAE@XZ 1003ddc0 f i applicationsAccessor.obj
 0002:00009e10       ??1error_category@std@@UAE@XZ 1003de10 f i applicationsAccessor.obj
 0002:00009e50       ??2@YAPAXIPAX@Z            1003de50 f i applicationsAccessor.obj
 0002:00009e90       ??3@YAXPAX0@Z              1003de90 f i applicationsAccessor.obj
 0002:00009ec0       ??4applicationsAccessor@@QAEAAV0@ABV0@@Z 1003dec0 f i applicationsAccessor.obj
 0002:00009f80       ??8error_category@std@@QBE_NABV01@@Z 1003df80 f i applicationsAccessor.obj
 0002:00009ff0       ??8error_condition@std@@QBE_NABV01@@Z 1003dff0 f i applicationsAccessor.obj
 0002:0000a0a0       ??_EapplicationsAccessor@@UAEPAXI@Z 1003e0a0 f i applicationsAccessor.obj
 0002:0000a160       ??_GQDomNode@@UAEPAXI@Z    1003e160 f i applicationsAccessor.obj
 0002:0000a160       ??_EQDomNode@@UAEPAXI@Z    1003e160 f i applicationsAccessor.obj
 0002:0000a1e0       ??_G_Generic_error_category@std@@UAEPAXI@Z 1003e1e0 f i applicationsAccessor.obj
 0002:0000a1e0       ??_E_Generic_error_category@std@@UAEPAXI@Z 1003e1e0 f i applicationsAccessor.obj
 0002:0000a250       ??_G_Iostream_error_category@std@@UAEPAXI@Z 1003e250 f i applicationsAccessor.obj
 0002:0000a250       ??_E_Iostream_error_category@std@@UAEPAXI@Z 1003e250 f i applicationsAccessor.obj
 0002:0000a2c0       ??_G_System_error_category@std@@UAEPAXI@Z 1003e2c0 f i applicationsAccessor.obj
 0002:0000a2c0       ??_E_System_error_category@std@@UAEPAXI@Z 1003e2c0 f i applicationsAccessor.obj
 0002:0000a330       ??_GapplicationsAccessor@@UAEPAXI@Z 1003e330 f i applicationsAccessor.obj
 0002:0000a3a0       ??_Gerror_category@std@@UAEPAXI@Z 1003e3a0 f i applicationsAccessor.obj
 0002:0000a3a0       ??_Eerror_category@std@@UAEPAXI@Z 1003e3a0 f i applicationsAccessor.obj
 0002:0000a410       ?_Alloc_proxy@?$_String_alloc@$0A@U?$_String_base_types@DV?$allocator@D@std@@@std@@@std@@QAEXXZ 1003e410 f i applicationsAccessor.obj
 0002:0000a4e0       ?_Copy@?$basic_string@DU?$char_traits@D@std@@V?$allocator@D@2@@std@@QAEXII@Z 1003e4e0 f i applicationsAccessor.obj
 0002:0000a7a0       ?_Eos@?$basic_string@DU?$char_traits@D@std@@V?$allocator@D@2@@std@@QAEXI@Z 1003e7a0 f i applicationsAccessor.obj
 0002:0000a820       ?_Free_proxy@?$_String_alloc@$0A@U?$_String_base_types@DV?$allocator@D@std@@@std@@@std@@QAEXXZ 1003e820 f i applicationsAccessor.obj
 0002:0000a900       ?_Getal@?$_String_alloc@$0A@U?$_String_base_types@DV?$allocator@D@std@@@std@@@std@@QBE?AU?$_Wrap_alloc@V?$allocator@D@std@@@2@XZ 1003e900 f i applicationsAccessor.obj
 0002:0000a960       ?_Grow@?$basic_string@DU?$char_traits@D@std@@V?$allocator@D@2@@std@@QAE_NI_N@Z 1003e960 f i applicationsAccessor.obj
 0002:0000aa80       ?_Inside@?$basic_string@DU?$char_traits@D@std@@V?$allocator@D@2@@std@@QAE_NPBD@Z 1003ea80 f i applicationsAccessor.obj
 0002:0000ab00       ?_Myptr@?$_String_val@U?$_Simple_types@D@std@@@std@@QAEPADXZ 1003eb00 f i applicationsAccessor.obj
 0002:0000ab90       ?_Myptr@?$_String_val@U?$_Simple_types@D@std@@@std@@QBEPBDXZ 1003eb90 f i applicationsAccessor.obj
 0002:0000ac20       ?_Tidy@?$basic_string@DU?$char_traits@D@std@@V?$allocator@D@2@@std@@QAEX_NI@Z 1003ec20 f i applicationsAccessor.obj
 0002:0000ad30       ?_Xlen@?$basic_string@DU?$char_traits@D@std@@V?$allocator@D@2@@std@@QBEXXZ 1003ed30 f i applicationsAccessor.obj
 0002:0000ad90       ?_Xran@?$basic_string@DU?$char_traits@D@std@@V?$allocator@D@2@@std@@QBEXXZ 1003ed90 f i applicationsAccessor.obj
 0002:0000adf0       ?allocate@?$_Wrap_alloc@V?$allocator@D@std@@@std@@QAEPADI@Z 1003edf0 f i applicationsAccessor.obj
 0002:0000ae50       ?allocate@?$allocator@D@std@@QAEPADI@Z 1003ee50 f i applicationsAccessor.obj
 0002:0000aeb0       ?allocate@?$allocator@U_Container_proxy@std@@@std@@QAEPAU_Container_proxy@2@I@Z 1003eeb0 f i applicationsAccessor.obj
 0002:0000af10       ?assign@?$basic_string@DU?$char_traits@D@std@@V?$allocator@D@2@@std@@QAEAAV12@ABV12@II@Z 1003ef10 f i applicationsAccessor.obj
 0002:0000b020       ?assign@?$basic_string@DU?$char_traits@D@std@@V?$allocator@D@2@@std@@QAEAAV12@PBD@Z 1003f020 f i applicationsAccessor.obj
 0002:0000b0b0       ?assign@?$basic_string@DU?$char_traits@D@std@@V?$allocator@D@2@@std@@QAEAAV12@PBDI@Z 1003f0b0 f i applicationsAccessor.obj
 0002:0000b1b0       ?assign@?$char_traits@D@std@@SAXAADABD@Z 1003f1b0 f i applicationsAccessor.obj
 0002:0000b1f0       ?category@error_code@std@@QBEABVerror_category@2@XZ 1003f1f0 f i applicationsAccessor.obj
 0002:0000b230       ?category@error_condition@std@@QBEABVerror_category@2@XZ 1003f230 f i applicationsAccessor.obj
 0002:0000b270       ?copy@?$char_traits@D@std@@SAPADPADPBDI@Z 1003f270 f i applicationsAccessor.obj
 0002:0000b2f0       ?deallocate@?$_Wrap_alloc@V?$allocator@D@std@@@std@@QAEXPADI@Z 1003f2f0 f i applicationsAccessor.obj
 0002:0000b350       ?deallocate@?$allocator@D@std@@QAEXPADI@Z 1003f350 f i applicationsAccessor.obj
 0002:0000b3b0       ?deallocate@?$allocator@U_Container_proxy@std@@@std@@QAEXPAU_Container_proxy@2@I@Z 1003f3b0 f i applicationsAccessor.obj
 0002:0000b410       ?default_error_condition@_System_error_category@std@@UBE?AVerror_condition@2@H@Z 1003f410 f i applicationsAccessor.obj
 0002:0000b4c0       ?default_error_condition@error_category@std@@UBE?AVerror_condition@2@H@Z 1003f4c0 f i applicationsAccessor.obj
 0002:0000b520       ?equivalent@error_category@std@@UBE_NABVerror_code@2@H@Z 1003f520 f i applicationsAccessor.obj
 0002:0000b5c0       ?equivalent@error_category@std@@UBE_NHABVerror_condition@2@@Z 1003f5c0 f i applicationsAccessor.obj
 0002:0000b640       ?erase@?$basic_string@DU?$char_traits@D@std@@V?$allocator@D@2@@std@@QAEAAV12@I@Z 1003f640 f i applicationsAccessor.obj
 0002:0000b6c0       ?erase@?$basic_string@DU?$char_traits@D@std@@V?$allocator@D@2@@std@@QAEAAV12@II@Z 1003f6c0 f i applicationsAccessor.obj
 0002:0000b7a0       ?generic_category@std@@YAABVerror_category@1@XZ 1003f7a0 f i applicationsAccessor.obj
 0002:0000b7e0       ?length@?$char_traits@D@std@@SAIPBD@Z 1003f7e0 f i applicationsAccessor.obj
 0002:0000b860       ?load@applicationsAccessor@@SAPAV1@XZ 1003f860 f i applicationsAccessor.obj
 0002:0000b970       ?max_size@?$_Wrap_alloc@V?$allocator@D@std@@@std@@QBEIXZ 1003f970 f i applicationsAccessor.obj
 0002:0000b9d0       ?max_size@?$allocator@D@std@@QBEIXZ 1003f9d0 f i applicationsAccessor.obj
 0002:0000ba10       ?max_size@?$allocator_traits@V?$allocator@D@std@@@std@@SAIABV?$allocator@D@2@@Z 1003fa10 f i applicationsAccessor.obj
 0002:0000ba60       ?max_size@?$basic_string@DU?$char_traits@D@std@@V?$allocator@D@2@@std@@QBEIXZ 1003fa60 f i applicationsAccessor.obj
 0002:0000bb00       ?message@_Generic_error_category@std@@UBE?AV?$basic_string@DU?$char_traits@D@std@@V?$allocator@D@2@@2@H@Z 1003fb00 f i applicationsAccessor.obj
 0002:0000bbc0       ?message@_Iostream_error_category@std@@UBE?AV?$basic_string@DU?$char_traits@D@std@@V?$allocator@D@2@@2@H@Z 1003fbc0 f i applicationsAccessor.obj
 0002:0000bc80       ?message@_System_error_category@std@@UBE?AV?$basic_string@DU?$char_traits@D@std@@V?$allocator@D@2@@2@H@Z 1003fc80 f i applicationsAccessor.obj
 0002:0000bd40       ?metaObject@applicationsAccessor@@UBEPAVQMetaObject@@XZ 1003fd40 f i applicationsAccessor.obj
 0002:0000bd90       ?move@?$char_traits@D@std@@SAPADPADPBDI@Z 1003fd90 f i applicationsAccessor.obj
 0002:0000be20       ?name@_Generic_error_category@std@@UBEPBDXZ 1003fe20 f i applicationsAccessor.obj
 0002:0000be60       ?name@_Iostream_error_category@std@@UBEPBDXZ 1003fe60 f i applicationsAccessor.obj
 0002:0000bea0       ?name@_System_error_category@std@@UBEPBDXZ 1003fea0 f i applicationsAccessor.obj
 0002:0000bee0       ?qObject@applicationsAccessor@@QAEPAVQObject@@XZ 1003fee0 f i applicationsAccessor.obj
 0002:0000bf20       ?size@?$basic_string@DU?$char_traits@D@std@@V?$allocator@D@2@@std@@QBEIXZ 1003ff20 f i applicationsAccessor.obj
 0002:0000bf60       ?system_category@std@@YAABVerror_category@1@XZ 1003ff60 f i applicationsAccessor.obj
 0002:0000bfa0       ?unload@applicationsAccessor@@SA_NXZ 1003ffa0 f i applicationsAccessor.obj
 0002:0000c090       ?value@error_code@std@@QBEHXZ 10040090 f i applicationsAccessor.obj
 0002:0000c0d0       ?value@error_condition@std@@QBEHXZ 100400d0 f i applicationsAccessor.obj
 0002:0000c110       _hypot                     10040110 f i applicationsAccessor.obj
 0002:0000c190       ??0bncs_config@@QAE@ABVbncs_string@@@Z 10040190 f   bncs_config.obj
 0002:0000ca50       ??0bncs_config@@QAE@ABV0@@Z 10040a50 f   bncs_config.obj
 0002:0000cbf0       ??0bncs_config@@QAE@XZ     10040bf0 f   bncs_config.obj
 0002:0000cc40       ??4bncs_config@@QAEAAV0@ABV0@@Z 10040c40 f   bncs_config.obj
 0002:0000cde0       ??1bncs_config@@UAE@XZ     10040de0 f   bncs_config.obj
 0002:0000cee0       ?isValid@bncs_config@@QAE_NXZ 10040ee0 f   bncs_config.obj
 0002:0000cff0       ?isChildValid@bncs_config@@QAE_NXZ 10040ff0 f   bncs_config.obj
 0002:0000d100       ?nextChild@bncs_config@@QAE_NXZ 10041100 f   bncs_config.obj
 0002:0000d220       ?childAttr@bncs_config@@QAE?AVbncs_string@@ABV2@@Z 10041220 f   bncs_config.obj
 0002:0000d4b0       ?childTag@bncs_config@@QAE?AVbncs_string@@XZ 100414b0 f   bncs_config.obj
 0002:0000d700       ?attr@bncs_config@@QAE?AVbncs_string@@ABV2@@Z 10041700 f   bncs_config.obj
 0002:0000d990       ?tag@bncs_config@@QAE?AVbncs_string@@XZ 10041990 f   bncs_config.obj
 0002:0000dbe0       ?drillDown@bncs_config@@QAEXXZ 10041be0 f   bncs_config.obj
 0002:0000dce0       ?data@bncs_config@@QAE?AVbncs_string@@XZ 10041ce0 f   bncs_config.obj
 0002:0000df70       ?cachedDoc@bncs_config@@SAPAVQDomDocument@@ABVbncs_string@@@Z 10041f70 f   bncs_config.obj
 0002:0000e060       ?isDirty@bncs_config@@SA_NABVbncs_string@@@Z 10042060 f   bncs_config.obj
 0002:0000e150       ?changeSerial@bncs_config@@SAHABVbncs_string@@@Z 10042150 f   bncs_config.obj
 0002:0000e220       ?save@bncs_config@@SA_NXZ  10042220 f   bncs_config.obj
 0002:0000e6f0       ?incSerial@bncs_config@@SAHABVbncs_string@@@Z 100426f0 f   bncs_config.obj
 0002:0000e7e0       ?decSerial@bncs_config@@SAHABVbncs_string@@@Z 100427e0 f   bncs_config.obj
 0002:0000e8d0       ?setEnv@bncs_config@@SAXABVbncs_string@@@Z 100428d0 f   bncs_config.obj
 0002:0000e930       ?clearCache@bncs_config@@SAXXZ 10042930 f   bncs_config.obj
 0002:0000ea90       ?loadDoc@bncs_config@@CAPAVQDomDocument@@ABVbncs_string@@@Z 10042a90 f   bncs_config.obj
 0002:0000fc70       ??$?0AAV?$_Tree_iterator@V?$_Tree_val@U?$_Tree_simple_types@U?$pair@$$CBVQString@@PAVcachedData@@@std@@@std@@@std@@@std@@_NX@?$pair@V?$_Tree_iterator@V?$_Tree_val@U?$_Tree_simple_types@U?$pair@$$CBVQString@@PAVcachedData@@@std@@@std@@@std@@@std@@_N@std@@QAE@AAV?$_Tree_iterator@V?$_Tree_val@U?$_Tree_simple_types@U?$pair@$$CBVQString@@PAVcachedData@@@std@@@std@@@std@@@1@$$QA_N@Z 10043c70 f i bncs_config.obj
 0002:0000fd40       ??$?0ABVQString@@AAPAVcachedData@@X@?$pair@VQString@@PAVcachedData@@@std@@QAE@ABVQString@@AAPAVcachedData@@@Z 10043d40 f i bncs_config.obj
 0002:0000fe10       ??$?0U?$_Tree_node@U?$pair@$$CBVQString@@PAVcachedData@@@std@@PAX@std@@@?$allocator@U_Container_proxy@std@@@std@@QAE@ABV?$allocator@U?$_Tree_node@U?$pair@$$CBVQString@@PAVcachedData@@@std@@PAX@std@@@1@@Z 10043e10 f i bncs_config.obj
 0002:0000fe50       ??$?0U?$_Wrap_alloc@V?$allocator@U?$_Tree_node@U?$pair@$$CBVQString@@PAVcachedData@@@std@@PAX@std@@@std@@@std@@@?$_Wrap_alloc@V?$allocator@U_Container_proxy@std@@@std@@@std@@QAE@ABU?$_Wrap_alloc@V?$allocator@U?$_Tree_node@U?$pair@$$CBVQString@@PAVcachedData@@@std@@PAX@std@@@std@@@1@@Z 10043e50 f i bncs_config.obj
 0002:0000feb0       ??$?0V?$_Tree_iterator@V?$_Tree_val@U?$_Tree_simple_types@U?$pair@$$CBVQString@@PAVcachedData@@@std@@@std@@@std@@@std@@_NX@?$pair@V?$_Tree_iterator@V?$_Tree_val@U?$_Tree_simple_types@U?$pair@$$CBVQString@@PAVcachedData@@@std@@@std@@@std@@@std@@_N@std@@QAE@$$QAV?$_Tree_iterator@V?$_Tree_val@U?$_Tree_simple_types@U?$pair@$$CBVQString@@PAVcachedData@@@std@@@std@@@std@@@1@$$QA_N@Z 10043eb0 f i bncs_config.obj
 0002:0000ff80       ??$?0VQString@@PAVcachedData@@X@?$pair@$$CBVQString@@PAVcachedData@@@std@@QAE@$$QAU?$pair@VQString@@PAVcachedData@@@1@@Z 10043f80 f i bncs_config.obj
 0002:00010060       ??$_Allocate@U?$_Tree_node@U?$pair@$$CBVQString@@PAVcachedData@@@std@@PAX@std@@@std@@YAPAU?$_Tree_node@U?$pair@$$CBVQString@@PAVcachedData@@@std@@PAX@0@IPAU10@@Z 10044060 f i bncs_config.obj
 0002:000100f0       ??$_Buynode@U?$pair@VQString@@PAVcachedData@@@std@@@?$_Tree_buy@U?$pair@$$CBVQString@@PAVcachedData@@@std@@V?$allocator@U?$pair@$$CBVQString@@PAVcachedData@@@std@@@2@@std@@QAEPAU?$_Tree_node@U?$pair@$$CBVQString@@PAVcachedData@@@std@@PAX@1@$$QAU?$pair@VQString@@PAVcachedData@@@1@@Z 100440f0 f i bncs_config.obj
 0002:00010260       ??$_Buynode_if_nil@AAU?$pair@$$CBVQString@@PAVcachedData@@@std@@@?$_Tree@V?$_Tmap_traits@VQString@@PAVcachedData@@U?$less@VQString@@@std@@V?$allocator@U?$pair@$$CBVQString@@PAVcachedData@@@std@@@4@$0A@@std@@@std@@IAEPAU?$_Tree_node@U?$pair@$$CBVQString@@PAVcachedData@@@std@@PAX@1@PAU21@AAU?$pair@$$CBVQString@@PAVcachedData@@@1@@Z 10044260 f i bncs_config.obj
 0002:000102a0       ??$_Debug_lt_pred@U?$less@VQString@@@std@@ABVQString@@ABV3@@std@@YA_NU?$less@VQString@@@0@ABVQString@@1PB_WI@Z 100442a0 f i bncs_config.obj
 0002:00010380       ??$_Insert_at@AAU?$pair@$$CBVQString@@PAVcachedData@@@std@@PAU?$_Tree_node@U?$pair@$$CBVQString@@PAVcachedData@@@std@@PAX@2@@?$_Tree@V?$_Tmap_traits@VQString@@PAVcachedData@@U?$less@VQString@@@std@@V?$allocator@U?$pair@$$CBVQString@@PAVcachedData@@@std@@@4@$0A@@std@@@std@@IAE?AV?$_Tree_iterator@V?$_Tree_val@U?$_Tree_simple_types@U?$pair@$$CBVQString@@PAVcachedData@@@std@@@std@@@std@@@1@_NPAU?$_Tree_node@U?$pair@$$CBVQString@@PAVcachedData@@@std@@PAX@1@AAU?$pair@$$CBVQString@@PAVcachedData@@@1@1@Z 10044380 f i bncs_config.obj
 0002:00010910       ??$_Insert_nohint@AAU?$pair@$$CBVQString@@PAVcachedData@@@std@@PAU?$_Tree_node@U?$pair@$$CBVQString@@PAVcachedData@@@std@@PAX@2@@?$_Tree@V?$_Tmap_traits@VQString@@PAVcachedData@@U?$less@VQString@@@std@@V?$allocator@U?$pair@$$CBVQString@@PAVcachedData@@@std@@@4@$0A@@std@@@std@@IAE?AU?$pair@V?$_Tree_iterator@V?$_Tree_val@U?$_Tree_simple_types@U?$pair@$$CBVQString@@PAVcachedData@@@std@@@std@@@std@@@std@@_N@1@_NAAU?$pair@$$CBVQString@@PAVcachedData@@@1@PAU?$_Tree_node@U?$pair@$$CBVQString@@PAVcachedData@@@std@@PAX@1@@Z 10044910 f i bncs_config.obj
 0002:00011050       ??$_Kfn@$$CBVQString@@PAVcachedData@@@?$_Tmap_traits@VQString@@PAVcachedData@@U?$less@VQString@@@std@@V?$allocator@U?$pair@$$CBVQString@@PAVcachedData@@@std@@@4@$0A@@std@@SAABVQString@@ABU?$pair@$$CBVQString@@PAVcachedData@@@1@@Z 10045050 f i bncs_config.obj
 0002:00011090       ??$_Move@AAD@std@@YA$$QADAAD@Z 10045090 f i bncs_config.obj
 0002:000110d0       ??$addressof@PAU?$_Tree_node@U?$pair@$$CBVQString@@PAVcachedData@@@std@@PAX@std@@@std@@YAPAPAU?$_Tree_node@U?$pair@$$CBVQString@@PAVcachedData@@@std@@PAX@0@AAPAU10@@Z 100450d0 f i bncs_config.obj
 0002:00011110       ??$addressof@U?$pair@$$CBVQString@@PAVcachedData@@@std@@@std@@YAPAU?$pair@$$CBVQString@@PAVcachedData@@@0@AAU10@@Z 10045110 f i bncs_config.obj
 0002:00011150       ??$construct@PAU?$_Tree_node@U?$pair@$$CBVQString@@PAVcachedData@@@std@@PAX@std@@AAPAU12@@?$_Wrap_alloc@V?$allocator@U?$_Tree_node@U?$pair@$$CBVQString@@PAVcachedData@@@std@@PAX@std@@@std@@@std@@QAEXPAPAU?$_Tree_node@U?$pair@$$CBVQString@@PAVcachedData@@@std@@PAX@1@AAPAU21@@Z 10045150 f i bncs_config.obj
 0002:000111c0       ??$construct@PAU?$_Tree_node@U?$pair@$$CBVQString@@PAVcachedData@@@std@@PAX@std@@AAPAU12@@?$allocator@U?$_Tree_node@U?$pair@$$CBVQString@@PAVcachedData@@@std@@PAX@std@@@std@@QAEXPAPAU?$_Tree_node@U?$pair@$$CBVQString@@PAVcachedData@@@std@@PAX@1@AAPAU21@@Z 100451c0 f i bncs_config.obj
 0002:000112c0       ??$construct@PAU?$_Tree_node@U?$pair@$$CBVQString@@PAVcachedData@@@std@@PAX@std@@AAPAU12@@?$allocator_traits@V?$allocator@U?$_Tree_node@U?$pair@$$CBVQString@@PAVcachedData@@@std@@PAX@std@@@std@@@std@@SAXAAV?$allocator@U?$_Tree_node@U?$pair@$$CBVQString@@PAVcachedData@@@std@@PAX@std@@@1@PAPAU?$_Tree_node@U?$pair@$$CBVQString@@PAVcachedData@@@std@@PAX@1@AAPAU31@@Z 100452c0 f i bncs_config.obj
 0002:00011320       ??$construct@U?$pair@$$CBVQString@@PAVcachedData@@@std@@U?$pair@VQString@@PAVcachedData@@@2@@?$_Wrap_alloc@V?$allocator@U?$_Tree_node@U?$pair@$$CBVQString@@PAVcachedData@@@std@@PAX@std@@@std@@@std@@QAEXPAU?$pair@$$CBVQString@@PAVcachedData@@@1@$$QAU?$pair@VQString@@PAVcachedData@@@1@@Z 10045320 f i bncs_config.obj
 0002:00011390       ??$construct@U?$pair@$$CBVQString@@PAVcachedData@@@std@@U?$pair@VQString@@PAVcachedData@@@2@@?$allocator@U?$_Tree_node@U?$pair@$$CBVQString@@PAVcachedData@@@std@@PAX@std@@@std@@QAEXPAU?$pair@$$CBVQString@@PAVcachedData@@@1@$$QAU?$pair@VQString@@PAVcachedData@@@1@@Z 10045390 f i bncs_config.obj
 0002:00011490       ??$construct@U?$pair@$$CBVQString@@PAVcachedData@@@std@@U?$pair@VQString@@PAVcachedData@@@2@@?$allocator_traits@V?$allocator@U?$_Tree_node@U?$pair@$$CBVQString@@PAVcachedData@@@std@@PAX@std@@@std@@@std@@SAXAAV?$allocator@U?$_Tree_node@U?$pair@$$CBVQString@@PAVcachedData@@@std@@PAX@std@@@1@PAU?$pair@$$CBVQString@@PAVcachedData@@@1@$$QAU?$pair@VQString@@PAVcachedData@@@1@@Z 10045490 f i bncs_config.obj
 0002:000114f0       ??$construct@U_Container_proxy@std@@U12@@?$_Wrap_alloc@V?$allocator@U_Container_proxy@std@@@std@@@std@@QAEXPAU_Container_proxy@1@$$QAU21@@Z 100454f0 f i bncs_config.obj
 0002:00011560       ??$construct@U_Container_proxy@std@@U12@@?$allocator_traits@V?$allocator@U_Container_proxy@std@@@std@@@std@@SAXAAV?$allocator@U_Container_proxy@std@@@1@PAU_Container_proxy@1@$$QAU31@@Z 10045560 f i bncs_config.obj
 0002:000115c0       ??$destroy@PAU?$_Tree_node@U?$pair@$$CBVQString@@PAVcachedData@@@std@@PAX@std@@@?$_Wrap_alloc@V?$allocator@U?$_Tree_node@U?$pair@$$CBVQString@@PAVcachedData@@@std@@PAX@std@@@std@@@std@@QAEXPAPAU?$_Tree_node@U?$pair@$$CBVQString@@PAVcachedData@@@std@@PAX@1@@Z 100455c0 f i bncs_config.obj
 0002:00011620       ??$destroy@PAU?$_Tree_node@U?$pair@$$CBVQString@@PAVcachedData@@@std@@PAX@std@@@?$allocator@U?$_Tree_node@U?$pair@$$CBVQString@@PAVcachedData@@@std@@PAX@std@@@std@@QAEXPAPAU?$_Tree_node@U?$pair@$$CBVQString@@PAVcachedData@@@std@@PAX@1@@Z 10045620 f i bncs_config.obj
 0002:00011660       ??$destroy@PAU?$_Tree_node@U?$pair@$$CBVQString@@PAVcachedData@@@std@@PAX@std@@@?$allocator_traits@V?$allocator@U?$_Tree_node@U?$pair@$$CBVQString@@PAVcachedData@@@std@@PAX@std@@@std@@@std@@SAXAAV?$allocator@U?$_Tree_node@U?$pair@$$CBVQString@@PAVcachedData@@@std@@PAX@std@@@1@PAPAU?$_Tree_node@U?$pair@$$CBVQString@@PAVcachedData@@@std@@PAX@1@@Z 10045660 f i bncs_config.obj
 0002:000116b0       ??$destroy@U?$pair@$$CBVQString@@PAVcachedData@@@std@@@?$_Wrap_alloc@V?$allocator@U?$_Tree_node@U?$pair@$$CBVQString@@PAVcachedData@@@std@@PAX@std@@@std@@@std@@QAEXPAU?$pair@$$CBVQString@@PAVcachedData@@@1@@Z 100456b0 f i bncs_config.obj
 0002:00011710       ??$destroy@U?$pair@$$CBVQString@@PAVcachedData@@@std@@@?$allocator@U?$_Tree_node@U?$pair@$$CBVQString@@PAVcachedData@@@std@@PAX@std@@@std@@QAEXPAU?$pair@$$CBVQString@@PAVcachedData@@@1@@Z 10045710 f i bncs_config.obj
 0002:00011770       ??$destroy@U?$pair@$$CBVQString@@PAVcachedData@@@std@@@?$allocator_traits@V?$allocator@U?$_Tree_node@U?$pair@$$CBVQString@@PAVcachedData@@@std@@PAX@std@@@std@@@std@@SAXAAV?$allocator@U?$_Tree_node@U?$pair@$$CBVQString@@PAVcachedData@@@std@@PAX@std@@@1@PAU?$pair@$$CBVQString@@PAVcachedData@@@1@@Z 10045770 f i bncs_config.obj
 0002:000117c0       ??$destroy@U_Container_proxy@std@@@?$_Wrap_alloc@V?$allocator@U_Container_proxy@std@@@std@@@std@@QAEXPAU_Container_proxy@1@@Z 100457c0 f i bncs_config.obj
 0002:00011820       ??$destroy@U_Container_proxy@std@@@?$allocator_traits@V?$allocator@U_Container_proxy@std@@@std@@@std@@SAXAAV?$allocator@U_Container_proxy@std@@@1@PAU_Container_proxy@1@@Z 10045820 f i bncs_config.obj
 0002:00011870       ??$forward@AAPAU?$_Tree_node@U?$pair@$$CBVQString@@PAVcachedData@@@std@@PAX@std@@@std@@YAAAPAU?$_Tree_node@U?$pair@$$CBVQString@@PAVcachedData@@@std@@PAX@0@AAPAU10@@Z 10045870 f i bncs_config.obj
 0002:000118b0       ??$forward@AAPAVcachedData@@@std@@YAAAPAVcachedData@@AAPAV1@@Z 100458b0 f i bncs_config.obj
 0002:000118f0       ??$forward@AAU?$pair@$$CBVQString@@PAVcachedData@@@std@@@std@@YAAAU?$pair@$$CBVQString@@PAVcachedData@@@0@AAU10@@Z 100458f0 f i bncs_config.obj
 0002:00011930       ??$forward@AAV?$_Tree_iterator@V?$_Tree_val@U?$_Tree_simple_types@U?$pair@$$CBVQString@@PAVcachedData@@@std@@@std@@@std@@@std@@@std@@YAAAV?$_Tree_iterator@V?$_Tree_val@U?$_Tree_simple_types@U?$pair@$$CBVQString@@PAVcachedData@@@std@@@std@@@std@@@0@AAV10@@Z 10045930 f i bncs_config.obj
 0002:00011970       ??$forward@ABVQString@@@std@@YAABVQString@@ABV1@@Z 10045970 f i bncs_config.obj
 0002:000119b0       ??$forward@PAVcachedData@@@std@@YA$$QAPAVcachedData@@AAPAV1@@Z 100459b0 f i bncs_config.obj
 0002:000119f0       ??$forward@U?$pair@VQString@@PAVcachedData@@@std@@@std@@YA$$QAU?$pair@VQString@@PAVcachedData@@@0@AAU10@@Z 100459f0 f i bncs_config.obj
 0002:00011a30       ??$forward@V?$_Tree_iterator@V?$_Tree_val@U?$_Tree_simple_types@U?$pair@$$CBVQString@@PAVcachedData@@@std@@@std@@@std@@@std@@@std@@YA$$QAV?$_Tree_iterator@V?$_Tree_val@U?$_Tree_simple_types@U?$pair@$$CBVQString@@PAVcachedData@@@std@@@std@@@std@@@0@AAV10@@Z 10045a30 f i bncs_config.obj
 0002:00011a70       ??$forward@VQString@@@std@@YA$$QAVQString@@AAV1@@Z 10045a70 f i bncs_config.obj
 0002:00011ab0       ??$forward@_N@std@@YA$$QA_NAA_N@Z 10045ab0 f i bncs_config.obj
 0002:00011af0       ??$insert@U?$pair@VQString@@PAVcachedData@@@std@@@?$_Tree@V?$_Tmap_traits@VQString@@PAVcachedData@@U?$less@VQString@@@std@@V?$allocator@U?$pair@$$CBVQString@@PAVcachedData@@@std@@@4@$0A@@std@@@std@@QAE?AU?$pair@V?$_Tree_iterator@V?$_Tree_val@U?$_Tree_simple_types@U?$pair@$$CBVQString@@PAVcachedData@@@std@@@std@@@std@@@std@@_N@1@$$QAU?$pair@VQString@@PAVcachedData@@@1@@Z 10045af0 f i bncs_config.obj
 0002:00011ba0       ??$swap@D@std@@YAXAAD0@Z   10045ba0 f i bncs_config.obj
 0002:00011c60       ??0?$_Iterator012@Ubidirectional_iterator_tag@std@@U?$pair@$$CBVQString@@PAVcachedData@@@2@HPBU32@ABU32@U_Iterator_base12@2@@std@@QAE@ABU01@@Z 10045c60 f i bncs_config.obj
 0002:00011cc0       ??0?$_Iterator012@Ubidirectional_iterator_tag@std@@U?$pair@$$CBVQString@@PAVcachedData@@@2@HPBU32@ABU32@U_Iterator_base12@2@@std@@QAE@XZ 10045cc0 f i bncs_config.obj
 0002:00011d20       ??0?$_Tree@V?$_Tmap_traits@VQString@@PAVcachedData@@U?$less@VQString@@@std@@V?$allocator@U?$pair@$$CBVQString@@PAVcachedData@@@std@@@4@$0A@@std@@@std@@QAE@ABU?$less@VQString@@@1@ABV?$allocator@U?$pair@$$CBVQString@@PAVcachedData@@@std@@@1@@Z 10045d20 f i bncs_config.obj
 0002:00011d80       ??0?$_Tree_alloc@$0A@U?$_Tree_base_types@U?$pair@$$CBVQString@@PAVcachedData@@@std@@V?$allocator@U?$pair@$$CBVQString@@PAVcachedData@@@std@@@2@@std@@@std@@QAE@ABV?$allocator@U?$pair@$$CBVQString@@PAVcachedData@@@std@@@1@@Z 10045d80 f i bncs_config.obj
 0002:00011e80       ??0?$_Tree_buy@U?$pair@$$CBVQString@@PAVcachedData@@@std@@V?$allocator@U?$pair@$$CBVQString@@PAVcachedData@@@std@@@2@@std@@QAE@ABV?$allocator@U?$pair@$$CBVQString@@PAVcachedData@@@std@@@1@@Z 10045e80 f i bncs_config.obj
 0002:00011ee0       ??0?$_Tree_comp@$0A@V?$_Tmap_traits@VQString@@PAVcachedData@@U?$less@VQString@@@std@@V?$allocator@U?$pair@$$CBVQString@@PAVcachedData@@@std@@@4@$0A@@std@@@std@@QAE@ABU?$less@VQString@@@1@ABV?$allocator@U?$pair@$$CBVQString@@PAVcachedData@@@std@@@1@@Z 10045ee0 f i bncs_config.obj
 0002:00011f40       ??0?$_Tree_const_iterator@V?$_Tree_val@U?$_Tree_simple_types@U?$pair@$$CBVQString@@PAVcachedData@@@std@@@std@@@std@@@std@@QAE@ABV01@@Z 10045f40 f i bncs_config.obj
 0002:00011fa0       ??0?$_Tree_const_iterator@V?$_Tree_val@U?$_Tree_simple_types@U?$pair@$$CBVQString@@PAVcachedData@@@std@@@std@@@std@@@std@@QAE@PAU?$_Tree_node@U?$pair@$$CBVQString@@PAVcachedData@@@std@@PAX@1@PBV?$_Tree_val@U?$_Tree_simple_types@U?$pair@$$CBVQString@@PAVcachedData@@@std@@@std@@@1@@Z 10045fa0 f i bncs_config.obj
 0002:00012000       ??0?$_Tree_iterator@V?$_Tree_val@U?$_Tree_simple_types@U?$pair@$$CBVQString@@PAVcachedData@@@std@@@std@@@std@@@std@@QAE@ABV01@@Z 10046000 f i bncs_config.obj
 0002:00012060       ??0?$_Tree_iterator@V?$_Tree_val@U?$_Tree_simple_types@U?$pair@$$CBVQString@@PAVcachedData@@@std@@@std@@@std@@@std@@QAE@PAU?$_Tree_node@U?$pair@$$CBVQString@@PAVcachedData@@@std@@PAX@1@PBV?$_Tree_val@U?$_Tree_simple_types@U?$pair@$$CBVQString@@PAVcachedData@@@std@@@std@@@1@@Z 10046060 f i bncs_config.obj
 0002:000120c0       ??0?$_Tree_unchecked_const_iterator@V?$_Tree_val@U?$_Tree_simple_types@U?$pair@$$CBVQString@@PAVcachedData@@@std@@@std@@@std@@U_Iterator_base12@2@@std@@QAE@ABV01@@Z 100460c0 f i bncs_config.obj
 0002:00012130       ??0?$_Tree_unchecked_const_iterator@V?$_Tree_val@U?$_Tree_simple_types@U?$pair@$$CBVQString@@PAVcachedData@@@std@@@std@@@std@@U_Iterator_base12@2@@std@@QAE@PAU?$_Tree_node@U?$pair@$$CBVQString@@PAVcachedData@@@std@@PAX@1@PBV?$_Tree_val@U?$_Tree_simple_types@U?$pair@$$CBVQString@@PAVcachedData@@@std@@@std@@@1@@Z 10046130 f i bncs_config.obj
 0002:000121f0       ??0?$_Tree_val@U?$_Tree_simple_types@U?$pair@$$CBVQString@@PAVcachedData@@@std@@@std@@@std@@QAE@XZ 100461f0 f i bncs_config.obj
 0002:00012270       ??0?$_Wrap_alloc@V?$allocator@U?$_Tree_node@U?$pair@$$CBVQString@@PAVcachedData@@@std@@PAX@std@@@std@@@std@@QAE@XZ 10046270 f i bncs_config.obj
 0002:000122d0       ??0?$allocator@U?$_Tree_node@U?$pair@$$CBVQString@@PAVcachedData@@@std@@PAX@std@@@std@@QAE@XZ 100462d0 f i bncs_config.obj
 0002:00012310       ??0?$allocator@U?$pair@$$CBVQString@@PAVcachedData@@@std@@@std@@QAE@XZ 10046310 f i bncs_config.obj
 0002:00012350       ??0?$map@VQString@@PAVcachedData@@U?$less@VQString@@@std@@V?$allocator@U?$pair@$$CBVQString@@PAVcachedData@@@std@@@4@@std@@QAE@XZ 10046350 f i bncs_config.obj
 0002:000123c0       ??0_Ignore@std@@QAE@XZ     100463c0 f i bncs_config.obj
 0002:00012400       ??0_Iterator_base12@std@@QAE@ABU01@@Z 10046400 f i bncs_config.obj
 0002:00012480       ??0_Iterator_base12@std@@QAE@XZ 10046480 f i bncs_config.obj
 0002:000124d0       ??0cachedData@@QAE@XZ      100464d0 f i bncs_config.obj
 0002:00012510       ??0docCache@@QAE@XZ        10046510 f i bncs_config.obj
 0002:00012580       ??1?$_Iterator012@Ubidirectional_iterator_tag@std@@U?$pair@$$CBVQString@@PAVcachedData@@@2@HPBU32@ABU32@U_Iterator_base12@2@@std@@QAE@XZ 10046580 f i bncs_config.obj
 0002:000125d0       ??1?$_Tree@V?$_Tmap_traits@VQString@@PAVcachedData@@U?$less@VQString@@@std@@V?$allocator@U?$pair@$$CBVQString@@PAVcachedData@@@std@@@4@$0A@@std@@@std@@QAE@XZ 100465d0 f i bncs_config.obj
 0002:00012630       ??1?$_Tree_alloc@$0A@U?$_Tree_base_types@U?$pair@$$CBVQString@@PAVcachedData@@@std@@V?$allocator@U?$pair@$$CBVQString@@PAVcachedData@@@std@@@2@@std@@@std@@QAE@XZ 10046630 f i bncs_config.obj
 0002:000126a0       ??1?$_Tree_buy@U?$pair@$$CBVQString@@PAVcachedData@@@std@@V?$allocator@U?$pair@$$CBVQString@@PAVcachedData@@@std@@@2@@std@@QAE@XZ 100466a0 f i bncs_config.obj
 0002:000126f0       ??1?$_Tree_comp@$0A@V?$_Tmap_traits@VQString@@PAVcachedData@@U?$less@VQString@@@std@@V?$allocator@U?$pair@$$CBVQString@@PAVcachedData@@@std@@@4@$0A@@std@@@std@@QAE@XZ 100466f0 f i bncs_config.obj
 0002:00012740       ??1?$_Tree_const_iterator@V?$_Tree_val@U?$_Tree_simple_types@U?$pair@$$CBVQString@@PAVcachedData@@@std@@@std@@@std@@@std@@QAE@XZ 10046740 f i bncs_config.obj
 0002:00012790       ??1?$_Tree_iterator@V?$_Tree_val@U?$_Tree_simple_types@U?$pair@$$CBVQString@@PAVcachedData@@@std@@@std@@@std@@@std@@QAE@XZ 10046790 f i bncs_config.obj
 0002:000127e0       ??1?$_Tree_unchecked_const_iterator@V?$_Tree_val@U?$_Tree_simple_types@U?$pair@$$CBVQString@@PAVcachedData@@@std@@@std@@@std@@U_Iterator_base12@2@@std@@QAE@XZ 100467e0 f i bncs_config.obj
 0002:00012830       ??1?$_Tree_val@U?$_Tree_simple_types@U?$pair@$$CBVQString@@PAVcachedData@@@std@@@std@@@std@@QAE@XZ 10046830 f i bncs_config.obj
 0002:00012890       ??1?$map@VQString@@PAVcachedData@@U?$less@VQString@@@std@@V?$allocator@U?$pair@$$CBVQString@@PAVcachedData@@@std@@@4@@std@@QAE@XZ 10046890 f i bncs_config.obj
 0002:000128e0       ??1?$pair@$$CBVQString@@PAVcachedData@@@std@@QAE@XZ 100468e0 f i bncs_config.obj
 0002:00012940       ??1?$pair@V?$_Tree_iterator@V?$_Tree_val@U?$_Tree_simple_types@U?$pair@$$CBVQString@@PAVcachedData@@@std@@@std@@@std@@@std@@_N@std@@QAE@XZ 10046940 f i bncs_config.obj
 0002:00012990       ??1?$pair@VQString@@PAVcachedData@@@std@@QAE@XZ 10046990 f i bncs_config.obj
 0002:000129f0       ??1_Iterator_base12@std@@QAE@XZ 100469f0 f i bncs_config.obj
 0002:00012ab0       ??1cachedData@@QAE@XZ      10046ab0 f i bncs_config.obj
 0002:00012b60       ??1docCache@@UAE@XZ        10046b60 f i bncs_config.obj
 0002:00012d50       ??4_Iterator_base12@std@@QAEAAU01@ABU01@@Z 10046d50 f i bncs_config.obj
 0002:00012e90       ??8?$_Tree_const_iterator@V?$_Tree_val@U?$_Tree_simple_types@U?$pair@$$CBVQString@@PAVcachedData@@@std@@@std@@@std@@@std@@QBE_NABV01@@Z 10046e90 f i bncs_config.obj
 0002:00012ff0       ??9?$_Tree_const_iterator@V?$_Tree_val@U?$_Tree_simple_types@U?$pair@$$CBVQString@@PAVcachedData@@@std@@@std@@@std@@@std@@QBE_NABV01@@Z 10046ff0 f i bncs_config.obj
 0002:00013080       ??AdocCache@@QAEPAVcachedData@@ABVQString@@@Z 10047080 f i bncs_config.obj
 0002:00013220       ??C?$_Tree_iterator@V?$_Tree_val@U?$_Tree_simple_types@U?$pair@$$CBVQString@@PAVcachedData@@@std@@@std@@@std@@@std@@QBEPAU?$pair@$$CBVQString@@PAVcachedData@@@1@XZ 10047220 f i bncs_config.obj
 0002:00013280       ??D?$_Tree_const_iterator@V?$_Tree_val@U?$_Tree_simple_types@U?$pair@$$CBVQString@@PAVcachedData@@@std@@@std@@@std@@@std@@QBEABU?$pair@$$CBVQString@@PAVcachedData@@@1@XZ 10047280 f i bncs_config.obj
 0002:000133c0       ??D?$_Tree_iterator@V?$_Tree_val@U?$_Tree_simple_types@U?$pair@$$CBVQString@@PAVcachedData@@@std@@@std@@@std@@@std@@QBEAAU?$pair@$$CBVQString@@PAVcachedData@@@1@XZ 100473c0 f i bncs_config.obj
 0002:00013410       ??E?$_Tree_const_iterator@V?$_Tree_val@U?$_Tree_simple_types@U?$pair@$$CBVQString@@PAVcachedData@@@std@@@std@@@std@@@std@@QAE?AV01@H@Z 10047410 f i bncs_config.obj
 0002:00013530       ??E?$_Tree_const_iterator@V?$_Tree_val@U?$_Tree_simple_types@U?$pair@$$CBVQString@@PAVcachedData@@@std@@@std@@@std@@@std@@QAEAAV01@XZ 10047530 f i bncs_config.obj
 0002:00013670       ??E?$_Tree_iterator@V?$_Tree_val@U?$_Tree_simple_types@U?$pair@$$CBVQString@@PAVcachedData@@@std@@@std@@@std@@@std@@QAEAAV01@XZ 10047670 f i bncs_config.obj
 0002:000136d0       ??E?$_Tree_unchecked_const_iterator@V?$_Tree_val@U?$_Tree_simple_types@U?$pair@$$CBVQString@@PAVcachedData@@@std@@@std@@@std@@U_Iterator_base12@2@@std@@QAEAAV01@XZ 100476d0 f i bncs_config.obj
 0002:00013800       ??F?$_Tree_const_iterator@V?$_Tree_val@U?$_Tree_simple_types@U?$pair@$$CBVQString@@PAVcachedData@@@std@@@std@@@std@@@std@@QAEAAV01@XZ 10047800 f i bncs_config.obj
 0002:000139e0       ??F?$_Tree_iterator@V?$_Tree_val@U?$_Tree_simple_types@U?$pair@$$CBVQString@@PAVcachedData@@@std@@@std@@@std@@@std@@QAEAAV01@XZ 100479e0 f i bncs_config.obj
 0002:00013a40       ??F?$_Tree_unchecked_const_iterator@V?$_Tree_val@U?$_Tree_simple_types@U?$pair@$$CBVQString@@PAVcachedData@@@std@@@std@@@std@@U_Iterator_base12@2@@std@@QAEAAV01@XZ 10047a40 f i bncs_config.obj
 0002:00013ba0       ??R?$less@VQString@@@std@@QBE_NABVQString@@0@Z 10047ba0 f i bncs_config.obj
 0002:00013c10       ??_Ebncs_config@@UAEPAXI@Z 10047c10 f i bncs_config.obj
 0002:00013cd0       ??_G?$pair@$$CBVQString@@PAVcachedData@@@std@@QAEPAXI@Z 10047cd0 f i bncs_config.obj
 0002:00013d40       ??_EQDomDocument@@UAEPAXI@Z 10047d40 f i bncs_config.obj
 0002:00013d40       ??_GQDomDocument@@UAEPAXI@Z 10047d40 f i bncs_config.obj
 0002:00013dc0       ??_Gbncs_config@@UAEPAXI@Z 10047dc0 f i bncs_config.obj
 0002:00013e30       ??_GcachedData@@QAEPAXI@Z  10047e30 f i bncs_config.obj
 0002:00013ea0       ??_EdocCache@@UAEPAXI@Z    10047ea0 f i bncs_config.obj
 0002:00013ea0       ??_GdocCache@@UAEPAXI@Z    10047ea0 f i bncs_config.obj
 0002:00013f10       ?_Adopt@_Iterator_base12@std@@QAEXPBU_Container_base12@2@@Z 10047f10 f i bncs_config.obj
 0002:000140c0       ?_Alloc_proxy@?$_Tree_alloc@$0A@U?$_Tree_base_types@U?$pair@$$CBVQString@@PAVcachedData@@@std@@V?$allocator@U?$pair@$$CBVQString@@PAVcachedData@@@std@@@2@@std@@@std@@QAEXXZ 100480c0 f i bncs_config.obj
 0002:000141a0       ?_Buyheadnode@?$_Tree_alloc@$0A@U?$_Tree_base_types@U?$pair@$$CBVQString@@PAVcachedData@@@std@@V?$allocator@U?$pair@$$CBVQString@@PAVcachedData@@@std@@@2@@std@@@std@@QAEPAU?$_Tree_node@U?$pair@$$CBVQString@@PAVcachedData@@@std@@PAX@2@XZ 100481a0 f i bncs_config.obj
 0002:00014400       ?_Buynode0@?$_Tree_buy@U?$pair@$$CBVQString@@PAVcachedData@@@std@@V?$allocator@U?$pair@$$CBVQString@@PAVcachedData@@@std@@@2@@std@@QAEPAU?$_Tree_node@U?$pair@$$CBVQString@@PAVcachedData@@@std@@PAX@2@XZ 10048400 f i bncs_config.obj
 0002:00014610       ?_Clrcont@_Iterator_base12@std@@QAEXXZ 10048610 f i bncs_config.obj
 0002:00014650       ?_Color@?$_Tree_val@U?$_Tree_simple_types@U?$pair@$$CBVQString@@PAVcachedData@@@std@@@std@@@std@@SAAADPAU?$_Tree_node@U?$pair@$$CBVQString@@PAVcachedData@@@std@@PAX@2@@Z 10048650 f i bncs_config.obj
 0002:00014690       ?_Destroy_if_not_nil@?$_Tree@V?$_Tmap_traits@VQString@@PAVcachedData@@U?$less@VQString@@@std@@V?$allocator@U?$pair@$$CBVQString@@PAVcachedData@@@std@@@4@$0A@@std@@@std@@IAEXPAU?$_Tree_node@U?$pair@$$CBVQString@@PAVcachedData@@@std@@PAX@2@@Z 10048690 f i bncs_config.obj
 0002:00014740       ?_Erase@?$_Tree@V?$_Tmap_traits@VQString@@PAVcachedData@@U?$less@VQString@@@std@@V?$allocator@U?$pair@$$CBVQString@@PAVcachedData@@@std@@@4@$0A@@std@@@std@@IAEXPAU?$_Tree_node@U?$pair@$$CBVQString@@PAVcachedData@@@std@@PAX@2@@Z 10048740 f i bncs_config.obj
 0002:00014850       ?_Free_proxy@?$_Tree_alloc@$0A@U?$_Tree_base_types@U?$pair@$$CBVQString@@PAVcachedData@@@std@@V?$allocator@U?$pair@$$CBVQString@@PAVcachedData@@@std@@@2@@std@@@std@@QAEXXZ 10048850 f i bncs_config.obj
 0002:00014940       ?_Freeheadnode@?$_Tree_alloc@$0A@U?$_Tree_base_types@U?$pair@$$CBVQString@@PAVcachedData@@@std@@V?$allocator@U?$pair@$$CBVQString@@PAVcachedData@@@std@@@2@@std@@@std@@QAEXPAU?$_Tree_node@U?$pair@$$CBVQString@@PAVcachedData@@@std@@PAX@2@@Z 10048940 f i bncs_config.obj
 0002:00014a50       ?_Freenode0@?$_Tree_buy@U?$pair@$$CBVQString@@PAVcachedData@@@std@@V?$allocator@U?$pair@$$CBVQString@@PAVcachedData@@@std@@@2@@std@@QAEXPAU?$_Tree_node@U?$pair@$$CBVQString@@PAVcachedData@@@std@@PAX@2@@Z 10048a50 f i bncs_config.obj
 0002:00014b60       ?_Getal@?$_Tree_alloc@$0A@U?$_Tree_base_types@U?$pair@$$CBVQString@@PAVcachedData@@@std@@V?$allocator@U?$pair@$$CBVQString@@PAVcachedData@@@std@@@2@@std@@@std@@QBE?AU?$_Wrap_alloc@V?$allocator@U?$_Tree_node@U?$pair@$$CBVQString@@PAVcachedData@@@std@@PAX@std@@@std@@@2@XZ 10048b60 f i bncs_config.obj
 0002:00014bc0       ?_Getcomp@?$_Tree_comp@$0A@V?$_Tmap_traits@VQString@@PAVcachedData@@U?$less@VQString@@@std@@V?$allocator@U?$pair@$$CBVQString@@PAVcachedData@@@std@@@4@$0A@@std@@@std@@QBE?AU?$less@VQString@@@2@XZ 10048bc0 f i bncs_config.obj
 0002:00014c00       ?_Getcont@_Iterator_base12@std@@QBEPBU_Container_base12@2@XZ 10048c00 f i bncs_config.obj
 0002:00014c70       ?_Getpnext@_Iterator_base12@std@@QAEPAPAU12@XZ 10048c70 f i bncs_config.obj
 0002:00014cb0       ?_Isnil@?$_Tree_val@U?$_Tree_simple_types@U?$pair@$$CBVQString@@PAVcachedData@@@std@@@std@@@std@@SAAADPAU?$_Tree_node@U?$pair@$$CBVQString@@PAVcachedData@@@std@@PAX@2@@Z 10048cb0 f i bncs_config.obj
 0002:00014cf0       ?_Key@?$_Tree@V?$_Tmap_traits@VQString@@PAVcachedData@@U?$less@VQString@@@std@@V?$allocator@U?$pair@$$CBVQString@@PAVcachedData@@@std@@@4@$0A@@std@@@std@@IBEABVQString@@PAU?$_Tree_node@U?$pair@$$CBVQString@@PAVcachedData@@@std@@PAX@2@@Z 10048cf0 f i bncs_config.obj
 0002:00014d60       ?_Kfn@?$_Tree@V?$_Tmap_traits@VQString@@PAVcachedData@@U?$less@VQString@@@std@@V?$allocator@U?$pair@$$CBVQString@@PAVcachedData@@@std@@@4@$0A@@std@@@std@@IBEABVQString@@ABU?$pair@$$CBVQString@@PAVcachedData@@@2@@Z 10048d60 f i bncs_config.obj
 0002:00014dc0       ?_Lbound@?$_Tree@V?$_Tmap_traits@VQString@@PAVcachedData@@U?$less@VQString@@@std@@V?$allocator@U?$pair@$$CBVQString@@PAVcachedData@@@std@@@4@$0A@@std@@@std@@IAEPAU?$_Tree_node@U?$pair@$$CBVQString@@PAVcachedData@@@std@@PAX@2@ABVQString@@@Z 10048dc0 f i bncs_config.obj
 0002:00014ed0       ?_Left@?$_Tree_val@U?$_Tree_simple_types@U?$pair@$$CBVQString@@PAVcachedData@@@std@@@std@@@std@@SAAAPAU?$_Tree_node@U?$pair@$$CBVQString@@PAVcachedData@@@std@@PAX@2@PAU32@@Z 10048ed0 f i bncs_config.obj
 0002:00014f10       ?_Lmost@?$_Tree@V?$_Tmap_traits@VQString@@PAVcachedData@@U?$less@VQString@@@std@@V?$allocator@U?$pair@$$CBVQString@@PAVcachedData@@@std@@@4@$0A@@std@@@std@@IBEAAPAU?$_Tree_node@U?$pair@$$CBVQString@@PAVcachedData@@@std@@PAX@2@XZ 10048f10 f i bncs_config.obj
 0002:00014f70       ?_Lrotate@?$_Tree@V?$_Tmap_traits@VQString@@PAVcachedData@@U?$less@VQString@@@std@@V?$allocator@U?$pair@$$CBVQString@@PAVcachedData@@@std@@@4@$0A@@std@@@std@@IAEXPAU?$_Tree_node@U?$pair@$$CBVQString@@PAVcachedData@@@std@@PAX@2@@Z 10048f70 f i bncs_config.obj
 0002:00015120       ?_Max@?$_Tree_val@U?$_Tree_simple_types@U?$pair@$$CBVQString@@PAVcachedData@@@std@@@std@@@std@@SAPAU?$_Tree_node@U?$pair@$$CBVQString@@PAVcachedData@@@std@@PAX@2@PAU32@@Z 10049120 f i bncs_config.obj
 0002:000151a0       ?_Min@?$_Tree_val@U?$_Tree_simple_types@U?$pair@$$CBVQString@@PAVcachedData@@@std@@@std@@@std@@SAPAU?$_Tree_node@U?$pair@$$CBVQString@@PAVcachedData@@@std@@PAX@2@PAU32@@Z 100491a0 f i bncs_config.obj
 0002:00015220       ?_Mynode@?$_Tree_unchecked_const_iterator@V?$_Tree_val@U?$_Tree_simple_types@U?$pair@$$CBVQString@@PAVcachedData@@@std@@@std@@@std@@U_Iterator_base12@2@@std@@QBEPAU?$_Tree_node@U?$pair@$$CBVQString@@PAVcachedData@@@std@@PAX@2@XZ 10049220 f i bncs_config.obj
 0002:00015260       ?_Myval@?$_Tree_val@U?$_Tree_simple_types@U?$pair@$$CBVQString@@PAVcachedData@@@std@@@std@@@std@@SAAAU?$pair@$$CBVQString@@PAVcachedData@@@2@PAU?$_Tree_node@U?$pair@$$CBVQString@@PAVcachedData@@@std@@PAX@2@@Z 10049260 f i bncs_config.obj
 0002:000152a0       ?_Orphan_me@_Iterator_base12@std@@QAEXXZ 100492a0 f i bncs_config.obj
 0002:00015370       ?_Orphan_ptr@?$_Tree@V?$_Tmap_traits@VQString@@PAVcachedData@@U?$less@VQString@@@std@@V?$allocator@U?$pair@$$CBVQString@@PAVcachedData@@@std@@@4@$0A@@std@@@std@@IBEXAAV12@PAU?$_Tree_node@U?$pair@$$CBVQString@@PAVcachedData@@@std@@PAX@2@@Z 10049370 f i bncs_config.obj
 0002:00015500       ?_Parent@?$_Tree_val@U?$_Tree_simple_types@U?$pair@$$CBVQString@@PAVcachedData@@@std@@@std@@@std@@SAAAPAU?$_Tree_node@U?$pair@$$CBVQString@@PAVcachedData@@@std@@PAX@2@PAU32@@Z 10049500 f i bncs_config.obj
 0002:00015540       ?_Right@?$_Tree_val@U?$_Tree_simple_types@U?$pair@$$CBVQString@@PAVcachedData@@@std@@@std@@@std@@SAAAPAU?$_Tree_node@U?$pair@$$CBVQString@@PAVcachedData@@@std@@PAX@2@PAU32@@Z 10049540 f i bncs_config.obj
 0002:00015580       ?_Rmost@?$_Tree@V?$_Tmap_traits@VQString@@PAVcachedData@@U?$less@VQString@@@std@@V?$allocator@U?$pair@$$CBVQString@@PAVcachedData@@@std@@@4@$0A@@std@@@std@@IBEAAPAU?$_Tree_node@U?$pair@$$CBVQString@@PAVcachedData@@@std@@PAX@2@XZ 10049580 f i bncs_config.obj
 0002:000155e0       ?_Root@?$_Tree@V?$_Tmap_traits@VQString@@PAVcachedData@@U?$less@VQString@@@std@@V?$allocator@U?$pair@$$CBVQString@@PAVcachedData@@@std@@@4@$0A@@std@@@std@@IBEAAPAU?$_Tree_node@U?$pair@$$CBVQString@@PAVcachedData@@@std@@PAX@2@XZ 100495e0 f i bncs_config.obj
 0002:00015640       ?_Rrotate@?$_Tree@V?$_Tmap_traits@VQString@@PAVcachedData@@U?$less@VQString@@@std@@V?$allocator@U?$pair@$$CBVQString@@PAVcachedData@@@std@@@4@$0A@@std@@@std@@IAEXPAU?$_Tree_node@U?$pair@$$CBVQString@@PAVcachedData@@@std@@PAX@2@@Z 10049640 f i bncs_config.obj
 0002:000157f0       ?_Tidy@?$_Tree@V?$_Tmap_traits@VQString@@PAVcachedData@@U?$less@VQString@@@std@@V?$allocator@U?$pair@$$CBVQString@@PAVcachedData@@@std@@@4@$0A@@std@@@std@@IAEXXZ 100497f0 f i bncs_config.obj
 0002:00015980       ?allocate@?$_Wrap_alloc@V?$allocator@U?$_Tree_node@U?$pair@$$CBVQString@@PAVcachedData@@@std@@PAX@std@@@std@@@std@@QAEPAU?$_Tree_node@U?$pair@$$CBVQString@@PAVcachedData@@@std@@PAX@2@I@Z 10049980 f i bncs_config.obj
 0002:000159e0       ?allocate@?$_Wrap_alloc@V?$allocator@U_Container_proxy@std@@@std@@@std@@QAEPAU_Container_proxy@2@I@Z 100499e0 f i bncs_config.obj
 0002:00015a40       ?allocate@?$allocator@U?$_Tree_node@U?$pair@$$CBVQString@@PAVcachedData@@@std@@PAX@std@@@std@@QAEPAU?$_Tree_node@U?$pair@$$CBVQString@@PAVcachedData@@@std@@PAX@2@I@Z 10049a40 f i bncs_config.obj
 0002:00015aa0       ?begin@?$_Tree@V?$_Tmap_traits@VQString@@PAVcachedData@@U?$less@VQString@@@std@@V?$allocator@U?$pair@$$CBVQString@@PAVcachedData@@@std@@@4@$0A@@std@@@std@@QAE?AV?$_Tree_iterator@V?$_Tree_val@U?$_Tree_simple_types@U?$pair@$$CBVQString@@PAVcachedData@@@std@@@std@@@std@@@2@XZ 10049aa0 f i bncs_config.obj
 0002:00015b10       ?clear@?$_Tree@V?$_Tmap_traits@VQString@@PAVcachedData@@U?$less@VQString@@@std@@V?$allocator@U?$pair@$$CBVQString@@PAVcachedData@@@std@@@4@$0A@@std@@@std@@QAEXXZ 10049b10 f i bncs_config.obj
 0002:00015bd0       ?correctNodeForComments@bncs_config@@AAE_NAAVQDomNode@@@Z 10049bd0 f i bncs_config.obj
 0002:00015df0       ?deallocate@?$_Wrap_alloc@V?$allocator@U?$_Tree_node@U?$pair@$$CBVQString@@PAVcachedData@@@std@@PAX@std@@@std@@@std@@QAEXPAU?$_Tree_node@U?$pair@$$CBVQString@@PAVcachedData@@@std@@PAX@2@I@Z 10049df0 f i bncs_config.obj
 0002:00015e50       ?deallocate@?$_Wrap_alloc@V?$allocator@U_Container_proxy@std@@@std@@@std@@QAEXPAU_Container_proxy@2@I@Z 10049e50 f i bncs_config.obj
 0002:00015eb0       ?deallocate@?$allocator@U?$_Tree_node@U?$pair@$$CBVQString@@PAVcachedData@@@std@@PAX@std@@@std@@QAEXPAU?$_Tree_node@U?$pair@$$CBVQString@@PAVcachedData@@@std@@PAX@2@I@Z 10049eb0 f i bncs_config.obj
 0002:00015f10       ?end@?$_Tree@V?$_Tmap_traits@VQString@@PAVcachedData@@U?$less@VQString@@@std@@V?$allocator@U?$pair@$$CBVQString@@PAVcachedData@@@std@@@4@$0A@@std@@@std@@QAE?AV?$_Tree_iterator@V?$_Tree_val@U?$_Tree_simple_types@U?$pair@$$CBVQString@@PAVcachedData@@@std@@@std@@@std@@@2@XZ 10049f10 f i bncs_config.obj
 0002:00015f80       ?erase@?$_Tree@V?$_Tmap_traits@VQString@@PAVcachedData@@U?$less@VQString@@@std@@V?$allocator@U?$pair@$$CBVQString@@PAVcachedData@@@std@@@4@$0A@@std@@@std@@QAE?AV?$_Tree_iterator@V?$_Tree_val@U?$_Tree_simple_types@U?$pair@$$CBVQString@@PAVcachedData@@@std@@@std@@@std@@@2@V?$_Tree_const_iterator@V?$_Tree_val@U?$_Tree_simple_types@U?$pair@$$CBVQString@@PAVcachedData@@@std@@@std@@@std@@@2@0@Z 10049f80 f i bncs_config.obj
 0002:000162a0       ?erase@?$_Tree@V?$_Tmap_traits@VQString@@PAVcachedData@@U?$less@VQString@@@std@@V?$allocator@U?$pair@$$CBVQString@@PAVcachedData@@@std@@@4@$0A@@std@@@std@@QAE?AV?$_Tree_iterator@V?$_Tree_val@U?$_Tree_simple_types@U?$pair@$$CBVQString@@PAVcachedData@@@std@@@std@@@std@@@2@V?$_Tree_const_iterator@V?$_Tree_val@U?$_Tree_simple_types@U?$pair@$$CBVQString@@PAVcachedData@@@std@@@std@@@std@@@2@@Z 1004a2a0 f i bncs_config.obj
 0002:00016d20       ?find@?$_Tree@V?$_Tmap_traits@VQString@@PAVcachedData@@U?$less@VQString@@@std@@V?$allocator@U?$pair@$$CBVQString@@PAVcachedData@@@std@@@4@$0A@@std@@@std@@QAE?AV?$_Tree_iterator@V?$_Tree_val@U?$_Tree_simple_types@U?$pair@$$CBVQString@@PAVcachedData@@@std@@@std@@@std@@@2@ABVQString@@@Z 1004ad20 f i bncs_config.obj
 0002:00017030       ?insert@docCache@@QAEXABVQString@@PAVcachedData@@@Z 1004b030 f i bncs_config.obj
 0002:00017240       ?lower_bound@?$_Tree@V?$_Tmap_traits@VQString@@PAVcachedData@@U?$less@VQString@@@std@@V?$allocator@U?$pair@$$CBVQString@@PAVcachedData@@@std@@@4@$0A@@std@@@std@@QAE?AV?$_Tree_iterator@V?$_Tree_val@U?$_Tree_simple_types@U?$pair@$$CBVQString@@PAVcachedData@@@std@@@std@@@std@@@2@ABVQString@@@Z 1004b240 f i bncs_config.obj
 0002:000172d0       ?max_size@?$_Tree@V?$_Tmap_traits@VQString@@PAVcachedData@@U?$less@VQString@@@std@@V?$allocator@U?$pair@$$CBVQString@@PAVcachedData@@@std@@@4@$0A@@std@@@std@@QBEIXZ 1004b2d0 f i bncs_config.obj
 0002:00017330       ?max_size@?$_Wrap_alloc@V?$allocator@U?$_Tree_node@U?$pair@$$CBVQString@@PAVcachedData@@@std@@PAX@std@@@std@@@std@@QBEIXZ 1004b330 f i bncs_config.obj
 0002:00017390       ?max_size@?$allocator@U?$_Tree_node@U?$pair@$$CBVQString@@PAVcachedData@@@std@@PAX@std@@@std@@QBEIXZ 1004b390 f i bncs_config.obj
 0002:000173d0       ?max_size@?$allocator_traits@V?$allocator@U?$_Tree_node@U?$pair@$$CBVQString@@PAVcachedData@@@std@@PAX@std@@@std@@@std@@SAIABV?$allocator@U?$_Tree_node@U?$pair@$$CBVQString@@PAVcachedData@@@std@@PAX@std@@@2@@Z 1004b3d0 f i bncs_config.obj
 0002:00017420       ?pointer_to@?$pointer_traits@PAU?$pair@$$CBVQString@@PAVcachedData@@@std@@@std@@SAPAU?$pair@$$CBVQString@@PAVcachedData@@@2@AAU32@@Z 1004b420 f i bncs_config.obj
 0002:00017470       ?setAutoDelete@docCache@@QAEX_N@Z 1004b470 f i bncs_config.obj
 0002:000174c0       _instanceLookup            1004b4c0 f   instanceLookup.obj
 0002:00017620       _instanceLookupComposite   1004b620 f   instanceLookup.obj
 0002:00017770       _instanceLookupType        1004b770 f   instanceLookup.obj
 0002:00017980       ??0?$QMap@VQString@@VcomplexInstance@@@@QAE@ABV0@@Z 1004b980 f i instanceLookup.obj
 0002:000179f0       ??0?$QMap@VQString@@VcomplexInstance@@@@QAE@XZ 1004b9f0 f i instanceLookup.obj
 0002:00017ae0       ??0?$QMap@VQString@@VcomplexParam@@@@QAE@ABV0@@Z 1004bae0 f i instanceLookup.obj
 0002:00017b50       ??0?$QMap@VQString@@VcomplexParam@@@@QAE@XZ 1004bb50 f i instanceLookup.obj
 0002:00017c40       ??0?$QMap@VQString@@VcomplexType@@@@QAE@ABV0@@Z 1004bc40 f i instanceLookup.obj
 0002:00017cb0       ??0?$QMap@VQString@@VcomplexType@@@@QAE@XZ 1004bcb0 f i instanceLookup.obj
 0002:00017da0       ??0?$QMap@VQString@@VdeviceTypeInfo@@@@QAE@ABV0@@Z 1004bda0 f i instanceLookup.obj
 0002:00017e10       ??0?$QMap@VQString@@VdeviceTypeInfo@@@@QAE@XZ 1004be10 f i instanceLookup.obj
 0002:00017f00       ??0?$QMap@VQString@@VinstanceInfo@@@@QAE@ABV0@@Z 1004bf00 f i instanceLookup.obj
 0002:00017f70       ??0?$QMap@VQString@@VinstanceInfo@@@@QAE@XZ 1004bf70 f i instanceLookup.obj
 0002:00018060       ??0?$QMap@VQString@@VparamInfo@@@@QAE@ABV0@@Z 1004c060 f i instanceLookup.obj
 0002:000180d0       ??0?$QMap@VQString@@VparamInfo@@@@QAE@XZ 1004c0d0 f i instanceLookup.obj
 0002:000181c0       ??0?$QMapConstIterator@VQString@@VcomplexInstance@@@@QAE@PAU?$QMapNode@VQString@@VcomplexInstance@@@@@Z 1004c1c0 f i instanceLookup.obj
 0002:00018210       ??0?$QMapConstIterator@VQString@@VcomplexParam@@@@QAE@PAU?$QMapNode@VQString@@VcomplexParam@@@@@Z 1004c210 f i instanceLookup.obj
 0002:00018260       ??0?$QMapConstIterator@VQString@@VcomplexType@@@@QAE@PAU?$QMapNode@VQString@@VcomplexType@@@@@Z 1004c260 f i instanceLookup.obj
 0002:000182b0       ??0?$QMapConstIterator@VQString@@VdeviceTypeInfo@@@@QAE@PAU?$QMapNode@VQString@@VdeviceTypeInfo@@@@@Z 1004c2b0 f i instanceLookup.obj
 0002:00018300       ??0?$QMapConstIterator@VQString@@VinstanceInfo@@@@QAE@PAU?$QMapNode@VQString@@VinstanceInfo@@@@@Z 1004c300 f i instanceLookup.obj
 0002:00018350       ??0?$QMapConstIterator@VQString@@VparamInfo@@@@QAE@PAU?$QMapNode@VQString@@VparamInfo@@@@@Z 1004c350 f i instanceLookup.obj
 0002:000183a0       ??0?$QMapIterator@VQString@@VcomplexInstance@@@@QAE@ABV0@@Z 1004c3a0 f i instanceLookup.obj
 0002:000183f0       ??0?$QMapIterator@VQString@@VcomplexInstance@@@@QAE@PAU?$QMapNode@VQString@@VcomplexInstance@@@@@Z 1004c3f0 f i instanceLookup.obj
 0002:00018440       ??0?$QMapIterator@VQString@@VcomplexParam@@@@QAE@ABV0@@Z 1004c440 f i instanceLookup.obj
 0002:00018490       ??0?$QMapIterator@VQString@@VcomplexParam@@@@QAE@PAU?$QMapNode@VQString@@VcomplexParam@@@@@Z 1004c490 f i instanceLookup.obj
 0002:000184e0       ??0?$QMapIterator@VQString@@VcomplexType@@@@QAE@ABV0@@Z 1004c4e0 f i instanceLookup.obj
 0002:00018530       ??0?$QMapIterator@VQString@@VcomplexType@@@@QAE@PAU?$QMapNode@VQString@@VcomplexType@@@@@Z 1004c530 f i instanceLookup.obj
 0002:00018580       ??0?$QMapIterator@VQString@@VdeviceTypeInfo@@@@QAE@ABV0@@Z 1004c580 f i instanceLookup.obj
 0002:000185d0       ??0?$QMapIterator@VQString@@VdeviceTypeInfo@@@@QAE@PAU?$QMapNode@VQString@@VdeviceTypeInfo@@@@@Z 1004c5d0 f i instanceLookup.obj
 0002:00018620       ??0?$QMapIterator@VQString@@VinstanceInfo@@@@QAE@ABV0@@Z 1004c620 f i instanceLookup.obj
 0002:00018670       ??0?$QMapIterator@VQString@@VinstanceInfo@@@@QAE@PAU?$QMapNode@VQString@@VinstanceInfo@@@@@Z 1004c670 f i instanceLookup.obj
 0002:000186c0       ??0?$QMapIterator@VQString@@VparamInfo@@@@QAE@ABV0@@Z 1004c6c0 f i instanceLookup.obj
 0002:00018710       ??0?$QMapIterator@VQString@@VparamInfo@@@@QAE@PAU?$QMapNode@VQString@@VparamInfo@@@@@Z 1004c710 f i instanceLookup.obj
 0002:00018760       ??0?$QMapNode@VQString@@VcomplexInstance@@@@QAE@ABU0@@Z 1004c760 f i instanceLookup.obj
 0002:00018870       ??0?$QMapNode@VQString@@VcomplexInstance@@@@QAE@ABVQString@@@Z 1004c870 f i instanceLookup.obj
 0002:00018960       ??0?$QMapNode@VQString@@VcomplexInstance@@@@QAE@XZ 1004c960 f i instanceLookup.obj
 0002:00018a30       ??0?$QMapNode@VQString@@VcomplexParam@@@@QAE@ABU0@@Z 1004ca30 f i instanceLookup.obj
 0002:00018b40       ??0?$QMapNode@VQString@@VcomplexParam@@@@QAE@ABVQString@@@Z 1004cb40 f i instanceLookup.obj
 0002:00018c30       ??0?$QMapNode@VQString@@VcomplexParam@@@@QAE@XZ 1004cc30 f i instanceLookup.obj
 0002:00018d00       ??0?$QMapNode@VQString@@VcomplexType@@@@QAE@ABU0@@Z 1004cd00 f i instanceLookup.obj
 0002:00018e10       ??0?$QMapNode@VQString@@VcomplexType@@@@QAE@ABVQString@@@Z 1004ce10 f i instanceLookup.obj
 0002:00018f00       ??0?$QMapNode@VQString@@VcomplexType@@@@QAE@XZ 1004cf00 f i instanceLookup.obj
 0002:00018fd0       ??0?$QMapNode@VQString@@VdeviceTypeInfo@@@@QAE@ABU0@@Z 1004cfd0 f i instanceLookup.obj
 0002:000190e0       ??0?$QMapNode@VQString@@VdeviceTypeInfo@@@@QAE@ABVQString@@@Z 1004d0e0 f i instanceLookup.obj
 0002:000191d0       ??0?$QMapNode@VQString@@VdeviceTypeInfo@@@@QAE@XZ 1004d1d0 f i instanceLookup.obj
 0002:000192a0       ??0?$QMapNode@VQString@@VinstanceInfo@@@@QAE@ABU0@@Z 1004d2a0 f i instanceLookup.obj
 0002:000193b0       ??0?$QMapNode@VQString@@VinstanceInfo@@@@QAE@ABVQString@@@Z 1004d3b0 f i instanceLookup.obj
 0002:000194a0       ??0?$QMapNode@VQString@@VinstanceInfo@@@@QAE@XZ 1004d4a0 f i instanceLookup.obj
 0002:00019570       ??0?$QMapNode@VQString@@VparamInfo@@@@QAE@ABU0@@Z 1004d570 f i instanceLookup.obj
 0002:00019680       ??0?$QMapNode@VQString@@VparamInfo@@@@QAE@ABVQString@@@Z 1004d680 f i instanceLookup.obj
 0002:00019770       ??0?$QMapNode@VQString@@VparamInfo@@@@QAE@XZ 1004d770 f i instanceLookup.obj
 0002:00019840       ??0?$QMapPrivate@VQString@@VcomplexInstance@@@@QAE@PBV0@@Z 1004d840 f i instanceLookup.obj
 0002:00019a40       ??0?$QMapPrivate@VQString@@VcomplexInstance@@@@QAE@XZ 1004da40 f i instanceLookup.obj
 0002:00019b90       ??0?$QMapPrivate@VQString@@VcomplexParam@@@@QAE@PBV0@@Z 1004db90 f i instanceLookup.obj
 0002:00019d90       ??0?$QMapPrivate@VQString@@VcomplexParam@@@@QAE@XZ 1004dd90 f i instanceLookup.obj
 0002:00019ee0       ??0?$QMapPrivate@VQString@@VcomplexType@@@@QAE@PBV0@@Z 1004dee0 f i instanceLookup.obj
 0002:0001a0e0       ??0?$QMapPrivate@VQString@@VcomplexType@@@@QAE@XZ 1004e0e0 f i instanceLookup.obj
 0002:0001a230       ??0?$QMapPrivate@VQString@@VdeviceTypeInfo@@@@QAE@PBV0@@Z 1004e230 f i instanceLookup.obj
 0002:0001a430       ??0?$QMapPrivate@VQString@@VdeviceTypeInfo@@@@QAE@XZ 1004e430 f i instanceLookup.obj
 0002:0001a580       ??0?$QMapPrivate@VQString@@VinstanceInfo@@@@QAE@PBV0@@Z 1004e580 f i instanceLookup.obj
 0002:0001a780       ??0?$QMapPrivate@VQString@@VinstanceInfo@@@@QAE@XZ 1004e780 f i instanceLookup.obj
 0002:0001a8d0       ??0?$QMapPrivate@VQString@@VparamInfo@@@@QAE@PBV0@@Z 1004e8d0 f i instanceLookup.obj
 0002:0001aad0       ??0?$QMapPrivate@VQString@@VparamInfo@@@@QAE@XZ 1004ead0 f i instanceLookup.obj
 0002:0001ac20       ??0?$QPair@V?$QMapIterator@VQString@@VcomplexInstance@@@@_N@@QAE@ABV?$QMapIterator@VQString@@VcomplexInstance@@@@AB_N@Z 1004ec20 f i instanceLookup.obj
 0002:0001ac90       ??0?$QPair@V?$QMapIterator@VQString@@VcomplexParam@@@@_N@@QAE@ABV?$QMapIterator@VQString@@VcomplexParam@@@@AB_N@Z 1004ec90 f i instanceLookup.obj
 0002:0001ad00       ??0?$QPair@V?$QMapIterator@VQString@@VcomplexType@@@@_N@@QAE@ABV?$QMapIterator@VQString@@VcomplexType@@@@AB_N@Z 1004ed00 f i instanceLookup.obj
 0002:0001ad70       ??0?$QPair@V?$QMapIterator@VQString@@VdeviceTypeInfo@@@@_N@@QAE@ABV?$QMapIterator@VQString@@VdeviceTypeInfo@@@@AB_N@Z 1004ed70 f i instanceLookup.obj
 0002:0001ade0       ??0?$QPair@V?$QMapIterator@VQString@@VinstanceInfo@@@@_N@@QAE@ABV?$QMapIterator@VQString@@VinstanceInfo@@@@AB_N@Z 1004ede0 f i instanceLookup.obj
 0002:0001ae50       ??0?$QPair@V?$QMapIterator@VQString@@VparamInfo@@@@_N@@QAE@ABV?$QMapIterator@VQString@@VparamInfo@@@@AB_N@Z 1004ee50 f i instanceLookup.obj
 0002:0001aec0       ??0?$QValueList@VcomplexInstance@@@@QAE@ABV0@@Z 1004eec0 f i instanceLookup.obj
 0002:0001af40       ??0?$QValueList@VcomplexInstance@@@@QAE@XZ 1004ef40 f i instanceLookup.obj
 0002:0001b030       ??0?$QValueList@VcomplexParam@@@@QAE@ABV0@@Z 1004f030 f i instanceLookup.obj
 0002:0001b0b0       ??0?$QValueList@VcomplexParam@@@@QAE@XZ 1004f0b0 f i instanceLookup.obj
 0002:0001b1a0       ??0?$QValueList@VcomplexType@@@@QAE@ABV0@@Z 1004f1a0 f i instanceLookup.obj
 0002:0001b220       ??0?$QValueList@VcomplexType@@@@QAE@XZ 1004f220 f i instanceLookup.obj
 0002:0001b310       ??0?$QValueList@VdeviceTypeInfo@@@@QAE@ABV0@@Z 1004f310 f i instanceLookup.obj
 0002:0001b390       ??0?$QValueList@VdeviceTypeInfo@@@@QAE@XZ 1004f390 f i instanceLookup.obj
 0002:0001b480       ??0?$QValueList@VinstanceInfo@@@@QAE@ABV0@@Z 1004f480 f i instanceLookup.obj
 0002:0001b500       ??0?$QValueList@VinstanceInfo@@@@QAE@XZ 1004f500 f i instanceLookup.obj
 0002:0001b5f0       ??0?$QValueList@VparamInfo@@@@QAE@ABV0@@Z 1004f5f0 f i instanceLookup.obj
 0002:0001b670       ??0?$QValueList@VparamInfo@@@@QAE@XZ 1004f670 f i instanceLookup.obj
 0002:0001b760       ??0?$QValueListIterator@VcomplexInstance@@@@QAE@ABV0@@Z 1004f760 f i instanceLookup.obj
 0002:0001b7b0       ??0?$QValueListIterator@VcomplexInstance@@@@QAE@PAV?$QValueListNode@VcomplexInstance@@@@@Z 1004f7b0 f i instanceLookup.obj
 0002:0001b800       ??0?$QValueListIterator@VcomplexParam@@@@QAE@ABV0@@Z 1004f800 f i instanceLookup.obj
 0002:0001b850       ??0?$QValueListIterator@VcomplexParam@@@@QAE@PAV?$QValueListNode@VcomplexParam@@@@@Z 1004f850 f i instanceLookup.obj
 0002:0001b8a0       ??0?$QValueListIterator@VcomplexType@@@@QAE@ABV0@@Z 1004f8a0 f i instanceLookup.obj
 0002:0001b8f0       ??0?$QValueListIterator@VcomplexType@@@@QAE@PAV?$QValueListNode@VcomplexType@@@@@Z 1004f8f0 f i instanceLookup.obj
 0002:0001b940       ??0?$QValueListIterator@VdeviceTypeInfo@@@@QAE@ABV0@@Z 1004f940 f i instanceLookup.obj
 0002:0001b990       ??0?$QValueListIterator@VdeviceTypeInfo@@@@QAE@PAV?$QValueListNode@VdeviceTypeInfo@@@@@Z 1004f990 f i instanceLookup.obj
 0002:0001b9e0       ??0?$QValueListIterator@VinstanceInfo@@@@QAE@ABV0@@Z 1004f9e0 f i instanceLookup.obj
 0002:0001ba30       ??0?$QValueListIterator@VinstanceInfo@@@@QAE@PAV?$QValueListNode@VinstanceInfo@@@@@Z 1004fa30 f i instanceLookup.obj
 0002:0001ba80       ??0?$QValueListIterator@VparamInfo@@@@QAE@ABV0@@Z 1004fa80 f i instanceLookup.obj
 0002:0001bad0       ??0?$QValueListIterator@VparamInfo@@@@QAE@PAV?$QValueListNode@VparamInfo@@@@@Z 1004fad0 f i instanceLookup.obj
 0002:0001bb20       ??0?$QValueListNode@VcomplexInstance@@@@QAE@ABVcomplexInstance@@@Z 1004fb20 f i instanceLookup.obj
 0002:0001bba0       ??0?$QValueListNode@VcomplexInstance@@@@QAE@XZ 1004fba0 f i instanceLookup.obj
 0002:0001bc10       ??0?$QValueListNode@VcomplexParam@@@@QAE@ABVcomplexParam@@@Z 1004fc10 f i instanceLookup.obj
 0002:0001bc90       ??0?$QValueListNode@VcomplexParam@@@@QAE@XZ 1004fc90 f i instanceLookup.obj
 0002:0001bd00       ??0?$QValueListNode@VcomplexType@@@@QAE@ABVcomplexType@@@Z 1004fd00 f i instanceLookup.obj
 0002:0001bd80       ??0?$QValueListNode@VcomplexType@@@@QAE@XZ 1004fd80 f i instanceLookup.obj
 0002:0001bdf0       ??0?$QValueListNode@VdeviceTypeInfo@@@@QAE@ABVdeviceTypeInfo@@@Z 1004fdf0 f i instanceLookup.obj
 0002:0001be70       ??0?$QValueListNode@VdeviceTypeInfo@@@@QAE@XZ 1004fe70 f i instanceLookup.obj
 0002:0001bee0       ??0?$QValueListNode@VinstanceInfo@@@@QAE@ABVinstanceInfo@@@Z 1004fee0 f i instanceLookup.obj
 0002:0001bf60       ??0?$QValueListNode@VinstanceInfo@@@@QAE@XZ 1004ff60 f i instanceLookup.obj
 0002:0001bfd0       ??0?$QValueListNode@VparamInfo@@@@QAE@ABVparamInfo@@@Z 1004ffd0 f i instanceLookup.obj
 0002:0001c050       ??0?$QValueListNode@VparamInfo@@@@QAE@XZ 10050050 f i instanceLookup.obj
 0002:0001c0c0       ??0?$QValueListPrivate@VcomplexInstance@@@@QAE@ABV0@@Z 100500c0 f i instanceLookup.obj
 0002:0001c310       ??0?$QValueListPrivate@VcomplexInstance@@@@QAE@XZ 10050310 f i instanceLookup.obj
 0002:0001c460       ??0?$QValueListPrivate@VcomplexParam@@@@QAE@ABV0@@Z 10050460 f i instanceLookup.obj
 0002:0001c6b0       ??0?$QValueListPrivate@VcomplexParam@@@@QAE@XZ 100506b0 f i instanceLookup.obj
 0002:0001c800       ??0?$QValueListPrivate@VcomplexType@@@@QAE@ABV0@@Z 10050800 f i instanceLookup.obj
 0002:0001ca50       ??0?$QValueListPrivate@VcomplexType@@@@QAE@XZ 10050a50 f i instanceLookup.obj
 0002:0001cba0       ??0?$QValueListPrivate@VdeviceTypeInfo@@@@QAE@ABV0@@Z 10050ba0 f i instanceLookup.obj
 0002:0001cdf0       ??0?$QValueListPrivate@VdeviceTypeInfo@@@@QAE@XZ 10050df0 f i instanceLookup.obj
 0002:0001cf40       ??0?$QValueListPrivate@VinstanceInfo@@@@QAE@ABV0@@Z 10050f40 f i instanceLookup.obj
 0002:0001d190       ??0?$QValueListPrivate@VinstanceInfo@@@@QAE@XZ 10051190 f i instanceLookup.obj
 0002:0001d2e0       ??0?$QValueListPrivate@VparamInfo@@@@QAE@ABV0@@Z 100512e0 f i instanceLookup.obj
 0002:0001d530       ??0?$QValueListPrivate@VparamInfo@@@@QAE@XZ 10051530 f i instanceLookup.obj
 0002:0001d680       ??1?$QMap@VQString@@VcomplexInstance@@@@QAE@XZ 10051680 f i instanceLookup.obj
 0002:0001d740       ??1?$QMap@VQString@@VcomplexParam@@@@QAE@XZ 10051740 f i instanceLookup.obj
 0002:0001d800       ??1?$QMap@VQString@@VcomplexType@@@@QAE@XZ 10051800 f i instanceLookup.obj
 0002:0001d8c0       ??1?$QMap@VQString@@VdeviceTypeInfo@@@@QAE@XZ 100518c0 f i instanceLookup.obj
 0002:0001d980       ??1?$QMap@VQString@@VinstanceInfo@@@@QAE@XZ 10051980 f i instanceLookup.obj
 0002:0001da40       ??1?$QMap@VQString@@VparamInfo@@@@QAE@XZ 10051a40 f i instanceLookup.obj
 0002:0001db00       ??1?$QMapNode@VQString@@VcomplexInstance@@@@QAE@XZ 10051b00 f i instanceLookup.obj
 0002:0001dbc0       ??1?$QMapNode@VQString@@VcomplexParam@@@@QAE@XZ 10051bc0 f i instanceLookup.obj
 0002:0001dc80       ??1?$QMapNode@VQString@@VcomplexType@@@@QAE@XZ 10051c80 f i instanceLookup.obj
 0002:0001dd40       ??1?$QMapNode@VQString@@VdeviceTypeInfo@@@@QAE@XZ 10051d40 f i instanceLookup.obj
 0002:0001de00       ??1?$QMapNode@VQString@@VinstanceInfo@@@@QAE@XZ 10051e00 f i instanceLookup.obj
 0002:0001dec0       ??1?$QMapNode@VQString@@VparamInfo@@@@QAE@XZ 10051ec0 f i instanceLookup.obj
 0002:0001df80       ??1?$QMapPrivate@VQString@@VcomplexInstance@@@@QAE@XZ 10051f80 f i instanceLookup.obj
 0002:0001e020       ??1?$QMapPrivate@VQString@@VcomplexParam@@@@QAE@XZ 10052020 f i instanceLookup.obj
 0002:0001e0c0       ??1?$QMapPrivate@VQString@@VcomplexType@@@@QAE@XZ 100520c0 f i instanceLookup.obj
 0002:0001e160       ??1?$QMapPrivate@VQString@@VdeviceTypeInfo@@@@QAE@XZ 10052160 f i instanceLookup.obj
 0002:0001e200       ??1?$QMapPrivate@VQString@@VinstanceInfo@@@@QAE@XZ 10052200 f i instanceLookup.obj
 0002:0001e2a0       ??1?$QMapPrivate@VQString@@VparamInfo@@@@QAE@XZ 100522a0 f i instanceLookup.obj
 0002:0001e340       ??1?$QValueList@VcomplexInstance@@@@QAE@XZ 10052340 f i instanceLookup.obj
 0002:0001e3a0       ??1?$QValueList@VcomplexParam@@@@QAE@XZ 100523a0 f i instanceLookup.obj
 0002:0001e400       ??1?$QValueList@VcomplexType@@@@QAE@XZ 10052400 f i instanceLookup.obj
 0002:0001e460       ??1?$QValueList@VdeviceTypeInfo@@@@QAE@XZ 10052460 f i instanceLookup.obj
 0002:0001e4c0       ??1?$QValueList@VinstanceInfo@@@@QAE@XZ 100524c0 f i instanceLookup.obj
 0002:0001e520       ??1?$QValueList@VparamInfo@@@@QAE@XZ 10052520 f i instanceLookup.obj
 0002:0001e580       ??1?$QValueListNode@VcomplexInstance@@@@UAE@XZ 10052580 f i instanceLookup.obj
 0002:0001e5f0       ??1?$QValueListNode@VcomplexParam@@@@UAE@XZ 100525f0 f i instanceLookup.obj
 0002:0001e660       ??1?$QValueListNode@VcomplexType@@@@UAE@XZ 10052660 f i instanceLookup.obj
 0002:0001e6d0       ??1?$QValueListNode@VdeviceTypeInfo@@@@UAE@XZ 100526d0 f i instanceLookup.obj
 0002:0001e740       ??1?$QValueListNode@VinstanceInfo@@@@UAE@XZ 10052740 f i instanceLookup.obj
 0002:0001e7b0       ??1?$QValueListNode@VparamInfo@@@@UAE@XZ 100527b0 f i instanceLookup.obj
 0002:0001e820       ??1?$QValueListPrivate@VcomplexInstance@@@@UAE@XZ 10052820 f i instanceLookup.obj
 0002:0001e970       ??1?$QValueListPrivate@VcomplexParam@@@@UAE@XZ 10052970 f i instanceLookup.obj
 0002:0001eac0       ??1?$QValueListPrivate@VcomplexType@@@@UAE@XZ 10052ac0 f i instanceLookup.obj
 0002:0001ec10       ??1?$QValueListPrivate@VdeviceTypeInfo@@@@UAE@XZ 10052c10 f i instanceLookup.obj
 0002:0001ed60       ??1?$QValueListPrivate@VinstanceInfo@@@@UAE@XZ 10052d60 f i instanceLookup.obj
 0002:0001eeb0       ??1?$QValueListPrivate@VparamInfo@@@@UAE@XZ 10052eb0 f i instanceLookup.obj
 0002:0001f000       ??4?$QMap@VQString@@VcomplexInstance@@@@QAEAAV0@ABV0@@Z 10053000 f i instanceLookup.obj
 0002:0001f0f0       ??4?$QMap@VQString@@VcomplexParam@@@@QAEAAV0@ABV0@@Z 100530f0 f i instanceLookup.obj
 0002:0001f1e0       ??4?$QMap@VQString@@VcomplexType@@@@QAEAAV0@ABV0@@Z 100531e0 f i instanceLookup.obj
 0002:0001f2d0       ??4?$QMap@VQString@@VdeviceTypeInfo@@@@QAEAAV0@ABV0@@Z 100532d0 f i instanceLookup.obj
 0002:0001f3c0       ??4?$QMap@VQString@@VinstanceInfo@@@@QAEAAV0@ABV0@@Z 100533c0 f i instanceLookup.obj
 0002:0001f4b0       ??4?$QMap@VQString@@VparamInfo@@@@QAEAAV0@ABV0@@Z 100534b0 f i instanceLookup.obj
 0002:0001f5a0       ??8?$QMapIterator@VQString@@VcomplexInstance@@@@QBE_NABV0@@Z 100535a0 f i instanceLookup.obj
 0002:0001f610       ??8?$QMapIterator@VQString@@VcomplexParam@@@@QBE_NABV0@@Z 10053610 f i instanceLookup.obj
 0002:0001f680       ??8?$QMapIterator@VQString@@VcomplexType@@@@QBE_NABV0@@Z 10053680 f i instanceLookup.obj
 0002:0001f6f0       ??8?$QMapIterator@VQString@@VdeviceTypeInfo@@@@QBE_NABV0@@Z 100536f0 f i instanceLookup.obj
 0002:0001f760       ??8?$QMapIterator@VQString@@VinstanceInfo@@@@QBE_NABV0@@Z 10053760 f i instanceLookup.obj
 0002:0001f7d0       ??8?$QMapIterator@VQString@@VparamInfo@@@@QBE_NABV0@@Z 100537d0 f i instanceLookup.obj
 0002:0001f840       ??9?$QMapConstIterator@VQString@@VcomplexInstance@@@@QBE_NABV0@@Z 10053840 f i instanceLookup.obj
 0002:0001f8b0       ??9?$QMapConstIterator@VQString@@VcomplexParam@@@@QBE_NABV0@@Z 100538b0 f i instanceLookup.obj
 0002:0001f920       ??9?$QMapConstIterator@VQString@@VcomplexType@@@@QBE_NABV0@@Z 10053920 f i instanceLookup.obj
 0002:0001f990       ??9?$QMapConstIterator@VQString@@VdeviceTypeInfo@@@@QBE_NABV0@@Z 10053990 f i instanceLookup.obj
 0002:0001fa00       ??9?$QMapConstIterator@VQString@@VinstanceInfo@@@@QBE_NABV0@@Z 10053a00 f i instanceLookup.obj
 0002:0001fa70       ??9?$QMapConstIterator@VQString@@VparamInfo@@@@QBE_NABV0@@Z 10053a70 f i instanceLookup.obj
 0002:0001fae0       ??9?$QMapIterator@VQString@@VcomplexInstance@@@@QBE_NABV0@@Z 10053ae0 f i instanceLookup.obj
 0002:0001fb50       ??9?$QMapIterator@VQString@@VcomplexParam@@@@QBE_NABV0@@Z 10053b50 f i instanceLookup.obj
 0002:0001fbc0       ??9?$QMapIterator@VQString@@VcomplexType@@@@QBE_NABV0@@Z 10053bc0 f i instanceLookup.obj
 0002:0001fc30       ??9?$QMapIterator@VQString@@VdeviceTypeInfo@@@@QBE_NABV0@@Z 10053c30 f i instanceLookup.obj
 0002:0001fca0       ??9?$QMapIterator@VQString@@VinstanceInfo@@@@QBE_NABV0@@Z 10053ca0 f i instanceLookup.obj
 0002:0001fd10       ??9?$QMapIterator@VQString@@VparamInfo@@@@QBE_NABV0@@Z 10053d10 f i instanceLookup.obj
 0002:0001fd80       ??9?$QValueListIterator@VcomplexInstance@@@@QBE_NABV0@@Z 10053d80 f i instanceLookup.obj
 0002:0001fdf0       ??9?$QValueListIterator@VcomplexParam@@@@QBE_NABV0@@Z 10053df0 f i instanceLookup.obj
 0002:0001fe60       ??9?$QValueListIterator@VcomplexType@@@@QBE_NABV0@@Z 10053e60 f i instanceLookup.obj
 0002:0001fed0       ??9?$QValueListIterator@VdeviceTypeInfo@@@@QBE_NABV0@@Z 10053ed0 f i instanceLookup.obj
 0002:0001ff40       ??9?$QValueListIterator@VinstanceInfo@@@@QBE_NABV0@@Z 10053f40 f i instanceLookup.obj
 0002:0001ffb0       ??9?$QValueListIterator@VparamInfo@@@@QBE_NABV0@@Z 10053fb0 f i instanceLookup.obj
 0002:00020020       ??A?$QMap@VQString@@VcomplexInstance@@@@QAEAAVcomplexInstance@@ABVQString@@@Z 10054020 f i instanceLookup.obj
 0002:00020190       ??A?$QMap@VQString@@VcomplexInstance@@@@QBEABVcomplexInstance@@ABVQString@@@Z 10054190 f i instanceLookup.obj
 0002:00020200       ??A?$QMap@VQString@@VcomplexParam@@@@QAEAAVcomplexParam@@ABVQString@@@Z 10054200 f i instanceLookup.obj
 0002:00020370       ??A?$QMap@VQString@@VcomplexParam@@@@QBEABVcomplexParam@@ABVQString@@@Z 10054370 f i instanceLookup.obj
 0002:000203e0       ??A?$QMap@VQString@@VcomplexType@@@@QAEAAVcomplexType@@ABVQString@@@Z 100543e0 f i instanceLookup.obj
 0002:00020550       ??A?$QMap@VQString@@VcomplexType@@@@QBEABVcomplexType@@ABVQString@@@Z 10054550 f i instanceLookup.obj
 0002:000205c0       ??A?$QMap@VQString@@VdeviceTypeInfo@@@@QAEAAVdeviceTypeInfo@@ABVQString@@@Z 100545c0 f i instanceLookup.obj
 0002:00020730       ??A?$QMap@VQString@@VdeviceTypeInfo@@@@QBEABVdeviceTypeInfo@@ABVQString@@@Z 10054730 f i instanceLookup.obj
 0002:000207a0       ??A?$QMap@VQString@@VinstanceInfo@@@@QAEAAVinstanceInfo@@ABVQString@@@Z 100547a0 f i instanceLookup.obj
 0002:00020910       ??A?$QMap@VQString@@VinstanceInfo@@@@QBEABVinstanceInfo@@ABVQString@@@Z 10054910 f i instanceLookup.obj
 0002:00020980       ??A?$QMap@VQString@@VparamInfo@@@@QAEAAVparamInfo@@ABVQString@@@Z 10054980 f i instanceLookup.obj
 0002:00020af0       ??A?$QMap@VQString@@VparamInfo@@@@QBEABVparamInfo@@ABVQString@@@Z 10054af0 f i instanceLookup.obj
 0002:00020b60       ??D?$QMapConstIterator@VQString@@VcomplexInstance@@@@QBEABVcomplexInstance@@XZ 10054b60 f i instanceLookup.obj
 0002:00020ba0       ??D?$QMapConstIterator@VQString@@VcomplexParam@@@@QBEABVcomplexParam@@XZ 10054ba0 f i instanceLookup.obj
 0002:00020be0       ??D?$QMapConstIterator@VQString@@VcomplexType@@@@QBEABVcomplexType@@XZ 10054be0 f i instanceLookup.obj
 0002:00020c20       ??D?$QMapConstIterator@VQString@@VdeviceTypeInfo@@@@QBEABVdeviceTypeInfo@@XZ 10054c20 f i instanceLookup.obj
 0002:00020c60       ??D?$QMapConstIterator@VQString@@VinstanceInfo@@@@QBEABVinstanceInfo@@XZ 10054c60 f i instanceLookup.obj
 0002:00020ca0       ??D?$QMapConstIterator@VQString@@VparamInfo@@@@QBEABVparamInfo@@XZ 10054ca0 f i instanceLookup.obj
 0002:00020ce0       ??D?$QValueListIterator@VcomplexInstance@@@@QAEAAVcomplexInstance@@XZ 10054ce0 f i instanceLookup.obj
 0002:00020d20       ??D?$QValueListIterator@VcomplexParam@@@@QAEAAVcomplexParam@@XZ 10054d20 f i instanceLookup.obj
 0002:00020d60       ??D?$QValueListIterator@VcomplexType@@@@QAEAAVcomplexType@@XZ 10054d60 f i instanceLookup.obj
 0002:00020da0       ??D?$QValueListIterator@VdeviceTypeInfo@@@@QAEAAVdeviceTypeInfo@@XZ 10054da0 f i instanceLookup.obj
 0002:00020de0       ??D?$QValueListIterator@VinstanceInfo@@@@QAEAAVinstanceInfo@@XZ 10054de0 f i instanceLookup.obj
 0002:00020e20       ??D?$QValueListIterator@VparamInfo@@@@QAEAAVparamInfo@@XZ 10054e20 f i instanceLookup.obj
 0002:00020e60       ??E?$QMapConstIterator@VQString@@VcomplexInstance@@@@QAEAAV0@XZ 10054e60 f i instanceLookup.obj
 0002:00020ec0       ??E?$QMapConstIterator@VQString@@VcomplexParam@@@@QAEAAV0@XZ 10054ec0 f i instanceLookup.obj
 0002:00020f20       ??E?$QMapConstIterator@VQString@@VcomplexType@@@@QAEAAV0@XZ 10054f20 f i instanceLookup.obj
 0002:00020f80       ??E?$QMapConstIterator@VQString@@VdeviceTypeInfo@@@@QAEAAV0@XZ 10054f80 f i instanceLookup.obj
 0002:00020fe0       ??E?$QMapConstIterator@VQString@@VinstanceInfo@@@@QAEAAV0@XZ 10054fe0 f i instanceLookup.obj
 0002:00021040       ??E?$QMapConstIterator@VQString@@VparamInfo@@@@QAEAAV0@XZ 10055040 f i instanceLookup.obj
 0002:000210a0       ??E?$QValueListIterator@VcomplexInstance@@@@QAE?AV0@H@Z 100550a0 f i instanceLookup.obj
 0002:00021150       ??E?$QValueListIterator@VcomplexParam@@@@QAE?AV0@H@Z 10055150 f i instanceLookup.obj
 0002:00021200       ??E?$QValueListIterator@VcomplexType@@@@QAE?AV0@H@Z 10055200 f i instanceLookup.obj
 0002:000212b0       ??E?$QValueListIterator@VdeviceTypeInfo@@@@QAE?AV0@H@Z 100552b0 f i instanceLookup.obj
 0002:00021360       ??E?$QValueListIterator@VinstanceInfo@@@@QAE?AV0@H@Z 10055360 f i instanceLookup.obj
 0002:00021410       ??E?$QValueListIterator@VparamInfo@@@@QAE?AV0@H@Z 10055410 f i instanceLookup.obj
 0002:000214c0       ??F?$QMapIterator@VQString@@VcomplexInstance@@@@QAEAAV0@XZ 100554c0 f i instanceLookup.obj
 0002:00021520       ??F?$QMapIterator@VQString@@VcomplexParam@@@@QAEAAV0@XZ 10055520 f i instanceLookup.obj
 0002:00021580       ??F?$QMapIterator@VQString@@VcomplexType@@@@QAEAAV0@XZ 10055580 f i instanceLookup.obj
 0002:000215e0       ??F?$QMapIterator@VQString@@VdeviceTypeInfo@@@@QAEAAV0@XZ 100555e0 f i instanceLookup.obj
 0002:00021640       ??F?$QMapIterator@VQString@@VinstanceInfo@@@@QAEAAV0@XZ 10055640 f i instanceLookup.obj
 0002:000216a0       ??F?$QMapIterator@VQString@@VparamInfo@@@@QAEAAV0@XZ 100556a0 f i instanceLookup.obj
 0002:00021700       ??_G?$QMapNode@VQString@@VcomplexInstance@@@@QAEPAXI@Z 10055700 f i instanceLookup.obj
 0002:00021770       ??_G?$QMapNode@VQString@@VcomplexParam@@@@QAEPAXI@Z 10055770 f i instanceLookup.obj
 0002:000217e0       ??_G?$QMapNode@VQString@@VcomplexType@@@@QAEPAXI@Z 100557e0 f i instanceLookup.obj
 0002:00021850       ??_G?$QMapNode@VQString@@VdeviceTypeInfo@@@@QAEPAXI@Z 10055850 f i instanceLookup.obj
 0002:000218c0       ??_G?$QMapNode@VQString@@VinstanceInfo@@@@QAEPAXI@Z 100558c0 f i instanceLookup.obj
 0002:00021930       ??_G?$QMapNode@VQString@@VparamInfo@@@@QAEPAXI@Z 10055930 f i instanceLookup.obj
 0002:000219a0       ??_G?$QMapPrivate@VQString@@VcomplexInstance@@@@QAEPAXI@Z 100559a0 f i instanceLookup.obj
 0002:00021a10       ??_G?$QMapPrivate@VQString@@VcomplexParam@@@@QAEPAXI@Z 10055a10 f i instanceLookup.obj
 0002:00021a80       ??_G?$QMapPrivate@VQString@@VcomplexType@@@@QAEPAXI@Z 10055a80 f i instanceLookup.obj
 0002:00021af0       ??_G?$QMapPrivate@VQString@@VdeviceTypeInfo@@@@QAEPAXI@Z 10055af0 f i instanceLookup.obj
 0002:00021b60       ??_G?$QMapPrivate@VQString@@VinstanceInfo@@@@QAEPAXI@Z 10055b60 f i instanceLookup.obj
 0002:00021bd0       ??_G?$QMapPrivate@VQString@@VparamInfo@@@@QAEPAXI@Z 10055bd0 f i instanceLookup.obj
 0002:00021c40       ??_G?$QValueListNode@VcomplexInstance@@@@UAEPAXI@Z 10055c40 f i instanceLookup.obj
 0002:00021c40       ??_E?$QValueListNode@VcomplexInstance@@@@UAEPAXI@Z 10055c40 f i instanceLookup.obj
 0002:00021cb0       ??_G?$QValueListNode@VcomplexParam@@@@UAEPAXI@Z 10055cb0 f i instanceLookup.obj
 0002:00021cb0       ??_E?$QValueListNode@VcomplexParam@@@@UAEPAXI@Z 10055cb0 f i instanceLookup.obj
 0002:00021d20       ??_E?$QValueListNode@VcomplexType@@@@UAEPAXI@Z 10055d20 f i instanceLookup.obj
 0002:00021d20       ??_G?$QValueListNode@VcomplexType@@@@UAEPAXI@Z 10055d20 f i instanceLookup.obj
 0002:00021d90       ??_E?$QValueListNode@VdeviceTypeInfo@@@@UAEPAXI@Z 10055d90 f i instanceLookup.obj
 0002:00021d90       ??_G?$QValueListNode@VdeviceTypeInfo@@@@UAEPAXI@Z 10055d90 f i instanceLookup.obj
 0002:00021e00       ??_E?$QValueListNode@VinstanceInfo@@@@UAEPAXI@Z 10055e00 f i instanceLookup.obj
 0002:00021e00       ??_G?$QValueListNode@VinstanceInfo@@@@UAEPAXI@Z 10055e00 f i instanceLookup.obj
 0002:00021e70       ??_E?$QValueListNode@VparamInfo@@@@UAEPAXI@Z 10055e70 f i instanceLookup.obj
 0002:00021e70       ??_G?$QValueListNode@VparamInfo@@@@UAEPAXI@Z 10055e70 f i instanceLookup.obj
 0002:00021ee0       ??_G?$QValueListPrivate@VcomplexInstance@@@@UAEPAXI@Z 10055ee0 f i instanceLookup.obj
 0002:00021ee0       ??_E?$QValueListPrivate@VcomplexInstance@@@@UAEPAXI@Z 10055ee0 f i instanceLookup.obj
 0002:00021f50       ??_E?$QValueListPrivate@VcomplexParam@@@@UAEPAXI@Z 10055f50 f i instanceLookup.obj
 0002:00021f50       ??_G?$QValueListPrivate@VcomplexParam@@@@UAEPAXI@Z 10055f50 f i instanceLookup.obj
 0002:00021fc0       ??_E?$QValueListPrivate@VcomplexType@@@@UAEPAXI@Z 10055fc0 f i instanceLookup.obj
 0002:00021fc0       ??_G?$QValueListPrivate@VcomplexType@@@@UAEPAXI@Z 10055fc0 f i instanceLookup.obj
 0002:00022030       ??_G?$QValueListPrivate@VdeviceTypeInfo@@@@UAEPAXI@Z 10056030 f i instanceLookup.obj
 0002:00022030       ??_E?$QValueListPrivate@VdeviceTypeInfo@@@@UAEPAXI@Z 10056030 f i instanceLookup.obj
 0002:000220a0       ??_E?$QValueListPrivate@VinstanceInfo@@@@UAEPAXI@Z 100560a0 f i instanceLookup.obj
 0002:000220a0       ??_G?$QValueListPrivate@VinstanceInfo@@@@UAEPAXI@Z 100560a0 f i instanceLookup.obj
 0002:00022110       ??_G?$QValueListPrivate@VparamInfo@@@@UAEPAXI@Z 10056110 f i instanceLookup.obj
 0002:00022110       ??_E?$QValueListPrivate@VparamInfo@@@@UAEPAXI@Z 10056110 f i instanceLookup.obj
 0002:00022180       ?append@?$QValueList@VcomplexInstance@@@@QAE?AV?$QValueListIterator@VcomplexInstance@@@@ABVcomplexInstance@@@Z 10056180 f i instanceLookup.obj
 0002:00022200       ?append@?$QValueList@VcomplexParam@@@@QAE?AV?$QValueListIterator@VcomplexParam@@@@ABVcomplexParam@@@Z 10056200 f i instanceLookup.obj
 0002:00022280       ?append@?$QValueList@VcomplexType@@@@QAE?AV?$QValueListIterator@VcomplexType@@@@ABVcomplexType@@@Z 10056280 f i instanceLookup.obj
 0002:00022300       ?append@?$QValueList@VdeviceTypeInfo@@@@QAE?AV?$QValueListIterator@VdeviceTypeInfo@@@@ABVdeviceTypeInfo@@@Z 10056300 f i instanceLookup.obj
 0002:00022380       ?append@?$QValueList@VinstanceInfo@@@@QAE?AV?$QValueListIterator@VinstanceInfo@@@@ABVinstanceInfo@@@Z 10056380 f i instanceLookup.obj
 0002:00022400       ?append@?$QValueList@VparamInfo@@@@QAE?AV?$QValueListIterator@VparamInfo@@@@ABVparamInfo@@@Z 10056400 f i instanceLookup.obj
 0002:00022480       ?begin@?$QMap@VQString@@VcomplexInstance@@@@QAE?AV?$QMapIterator@VQString@@VcomplexInstance@@@@XZ 10056480 f i instanceLookup.obj
 0002:000224f0       ?begin@?$QMap@VQString@@VcomplexInstance@@@@QBE?AV?$QMapConstIterator@VQString@@VcomplexInstance@@@@XZ 100564f0 f i instanceLookup.obj
 0002:00022550       ?begin@?$QMap@VQString@@VcomplexParam@@@@QAE?AV?$QMapIterator@VQString@@VcomplexParam@@@@XZ 10056550 f i instanceLookup.obj
 0002:000225c0       ?begin@?$QMap@VQString@@VcomplexParam@@@@QBE?AV?$QMapConstIterator@VQString@@VcomplexParam@@@@XZ 100565c0 f i instanceLookup.obj
 0002:00022620       ?begin@?$QMap@VQString@@VcomplexType@@@@QAE?AV?$QMapIterator@VQString@@VcomplexType@@@@XZ 10056620 f i instanceLookup.obj
 0002:00022690       ?begin@?$QMap@VQString@@VcomplexType@@@@QBE?AV?$QMapConstIterator@VQString@@VcomplexType@@@@XZ 10056690 f i instanceLookup.obj
 0002:000226f0       ?begin@?$QMap@VQString@@VdeviceTypeInfo@@@@QAE?AV?$QMapIterator@VQString@@VdeviceTypeInfo@@@@XZ 100566f0 f i instanceLookup.obj
 0002:00022760       ?begin@?$QMap@VQString@@VdeviceTypeInfo@@@@QBE?AV?$QMapConstIterator@VQString@@VdeviceTypeInfo@@@@XZ 10056760 f i instanceLookup.obj
 0002:000227c0       ?begin@?$QMap@VQString@@VinstanceInfo@@@@QAE?AV?$QMapIterator@VQString@@VinstanceInfo@@@@XZ 100567c0 f i instanceLookup.obj
 0002:00022830       ?begin@?$QMap@VQString@@VinstanceInfo@@@@QBE?AV?$QMapConstIterator@VQString@@VinstanceInfo@@@@XZ 10056830 f i instanceLookup.obj
 0002:00022890       ?begin@?$QMap@VQString@@VparamInfo@@@@QAE?AV?$QMapIterator@VQString@@VparamInfo@@@@XZ 10056890 f i instanceLookup.obj
 0002:00022900       ?begin@?$QMap@VQString@@VparamInfo@@@@QBE?AV?$QMapConstIterator@VQString@@VparamInfo@@@@XZ 10056900 f i instanceLookup.obj
 0002:00022960       ?begin@?$QMapPrivate@VQString@@VcomplexInstance@@@@QAE?AV?$QMapIterator@VQString@@VcomplexInstance@@@@XZ 10056960 f i instanceLookup.obj
 0002:000229c0       ?begin@?$QMapPrivate@VQString@@VcomplexInstance@@@@QBE?AV?$QMapConstIterator@VQString@@VcomplexInstance@@@@XZ 100569c0 f i instanceLookup.obj
 0002:00022a20       ?begin@?$QMapPrivate@VQString@@VcomplexParam@@@@QAE?AV?$QMapIterator@VQString@@VcomplexParam@@@@XZ 10056a20 f i instanceLookup.obj
 0002:00022a80       ?begin@?$QMapPrivate@VQString@@VcomplexParam@@@@QBE?AV?$QMapConstIterator@VQString@@VcomplexParam@@@@XZ 10056a80 f i instanceLookup.obj
 0002:00022ae0       ?begin@?$QMapPrivate@VQString@@VcomplexType@@@@QAE?AV?$QMapIterator@VQString@@VcomplexType@@@@XZ 10056ae0 f i instanceLookup.obj
 0002:00022b40       ?begin@?$QMapPrivate@VQString@@VcomplexType@@@@QBE?AV?$QMapConstIterator@VQString@@VcomplexType@@@@XZ 10056b40 f i instanceLookup.obj
 0002:00022ba0       ?begin@?$QMapPrivate@VQString@@VdeviceTypeInfo@@@@QAE?AV?$QMapIterator@VQString@@VdeviceTypeInfo@@@@XZ 10056ba0 f i instanceLookup.obj
 0002:00022c00       ?begin@?$QMapPrivate@VQString@@VdeviceTypeInfo@@@@QBE?AV?$QMapConstIterator@VQString@@VdeviceTypeInfo@@@@XZ 10056c00 f i instanceLookup.obj
 0002:00022c60       ?begin@?$QMapPrivate@VQString@@VinstanceInfo@@@@QAE?AV?$QMapIterator@VQString@@VinstanceInfo@@@@XZ 10056c60 f i instanceLookup.obj
 0002:00022cc0       ?begin@?$QMapPrivate@VQString@@VinstanceInfo@@@@QBE?AV?$QMapConstIterator@VQString@@VinstanceInfo@@@@XZ 10056cc0 f i instanceLookup.obj
 0002:00022d20       ?begin@?$QMapPrivate@VQString@@VparamInfo@@@@QAE?AV?$QMapIterator@VQString@@VparamInfo@@@@XZ 10056d20 f i instanceLookup.obj
 0002:00022d80       ?begin@?$QMapPrivate@VQString@@VparamInfo@@@@QBE?AV?$QMapConstIterator@VQString@@VparamInfo@@@@XZ 10056d80 f i instanceLookup.obj
 0002:00022de0       ?clear@?$QMap@VQString@@VcomplexInstance@@@@QAEXXZ 10056de0 f i instanceLookup.obj
 0002:00022f00       ?clear@?$QMap@VQString@@VcomplexParam@@@@QAEXXZ 10056f00 f i instanceLookup.obj
 0002:00023020       ?clear@?$QMap@VQString@@VcomplexType@@@@QAEXXZ 10057020 f i instanceLookup.obj
 0002:00023140       ?clear@?$QMap@VQString@@VdeviceTypeInfo@@@@QAEXXZ 10057140 f i instanceLookup.obj
 0002:00023260       ?clear@?$QMap@VQString@@VinstanceInfo@@@@QAEXXZ 10057260 f i instanceLookup.obj
 0002:00023380       ?clear@?$QMap@VQString@@VparamInfo@@@@QAEXXZ 10057380 f i instanceLookup.obj
 0002:000234a0       ?clear@?$QMapPrivate@VQString@@VcomplexInstance@@@@QAEXPAU?$QMapNode@VQString@@VcomplexInstance@@@@@Z 100574a0 f i instanceLookup.obj
 0002:00023570       ?clear@?$QMapPrivate@VQString@@VcomplexInstance@@@@QAEXXZ 10057570 f i instanceLookup.obj
 0002:00023620       ?clear@?$QMapPrivate@VQString@@VcomplexParam@@@@QAEXPAU?$QMapNode@VQString@@VcomplexParam@@@@@Z 10057620 f i instanceLookup.obj
 0002:000236f0       ?clear@?$QMapPrivate@VQString@@VcomplexParam@@@@QAEXXZ 100576f0 f i instanceLookup.obj
 0002:000237a0       ?clear@?$QMapPrivate@VQString@@VcomplexType@@@@QAEXPAU?$QMapNode@VQString@@VcomplexType@@@@@Z 100577a0 f i instanceLookup.obj
 0002:00023870       ?clear@?$QMapPrivate@VQString@@VcomplexType@@@@QAEXXZ 10057870 f i instanceLookup.obj
 0002:00023920       ?clear@?$QMapPrivate@VQString@@VdeviceTypeInfo@@@@QAEXPAU?$QMapNode@VQString@@VdeviceTypeInfo@@@@@Z 10057920 f i instanceLookup.obj
 0002:000239f0       ?clear@?$QMapPrivate@VQString@@VdeviceTypeInfo@@@@QAEXXZ 100579f0 f i instanceLookup.obj
 0002:00023aa0       ?clear@?$QMapPrivate@VQString@@VinstanceInfo@@@@QAEXPAU?$QMapNode@VQString@@VinstanceInfo@@@@@Z 10057aa0 f i instanceLookup.obj
 0002:00023b70       ?clear@?$QMapPrivate@VQString@@VinstanceInfo@@@@QAEXXZ 10057b70 f i instanceLookup.obj
 0002:00023c20       ?clear@?$QMapPrivate@VQString@@VparamInfo@@@@QAEXPAU?$QMapNode@VQString@@VparamInfo@@@@@Z 10057c20 f i instanceLookup.obj
 0002:00023cf0       ?clear@?$QMapPrivate@VQString@@VparamInfo@@@@QAEXXZ 10057cf0 f i instanceLookup.obj
 0002:00023da0       ?constBegin@?$QMap@VQString@@VcomplexInstance@@@@QBE?AV?$QMapConstIterator@VQString@@VcomplexInstance@@@@XZ 10057da0 f i instanceLookup.obj
 0002:00023e00       ?constBegin@?$QMap@VQString@@VcomplexParam@@@@QBE?AV?$QMapConstIterator@VQString@@VcomplexParam@@@@XZ 10057e00 f i instanceLookup.obj
 0002:00023e60       ?constBegin@?$QMap@VQString@@VcomplexType@@@@QBE?AV?$QMapConstIterator@VQString@@VcomplexType@@@@XZ 10057e60 f i instanceLookup.obj
 0002:00023ec0       ?constBegin@?$QMap@VQString@@VdeviceTypeInfo@@@@QBE?AV?$QMapConstIterator@VQString@@VdeviceTypeInfo@@@@XZ 10057ec0 f i instanceLookup.obj
 0002:00023f20       ?constBegin@?$QMap@VQString@@VinstanceInfo@@@@QBE?AV?$QMapConstIterator@VQString@@VinstanceInfo@@@@XZ 10057f20 f i instanceLookup.obj
 0002:00023f80       ?constBegin@?$QMap@VQString@@VparamInfo@@@@QBE?AV?$QMapConstIterator@VQString@@VparamInfo@@@@XZ 10057f80 f i instanceLookup.obj
 0002:00023fe0       ?constEnd@?$QMap@VQString@@VcomplexInstance@@@@QBE?AV?$QMapConstIterator@VQString@@VcomplexInstance@@@@XZ 10057fe0 f i instanceLookup.obj
 0002:00024040       ?constEnd@?$QMap@VQString@@VcomplexParam@@@@QBE?AV?$QMapConstIterator@VQString@@VcomplexParam@@@@XZ 10058040 f i instanceLookup.obj
 0002:000240a0       ?constEnd@?$QMap@VQString@@VcomplexType@@@@QBE?AV?$QMapConstIterator@VQString@@VcomplexType@@@@XZ 100580a0 f i instanceLookup.obj
 0002:00024100       ?constEnd@?$QMap@VQString@@VdeviceTypeInfo@@@@QBE?AV?$QMapConstIterator@VQString@@VdeviceTypeInfo@@@@XZ 10058100 f i instanceLookup.obj
 0002:00024160       ?constEnd@?$QMap@VQString@@VinstanceInfo@@@@QBE?AV?$QMapConstIterator@VQString@@VinstanceInfo@@@@XZ 10058160 f i instanceLookup.obj
 0002:000241c0       ?constEnd@?$QMap@VQString@@VparamInfo@@@@QBE?AV?$QMapConstIterator@VQString@@VparamInfo@@@@XZ 100581c0 f i instanceLookup.obj
 0002:00024220       ?contains@?$QMap@VQString@@VcomplexInstance@@@@QBE_NABVQString@@@Z 10058220 f i instanceLookup.obj
 0002:000242a0       ?contains@?$QMap@VQString@@VcomplexParam@@@@QBE_NABVQString@@@Z 100582a0 f i instanceLookup.obj
 0002:00024320       ?contains@?$QMap@VQString@@VcomplexType@@@@QBE_NABVQString@@@Z 10058320 f i instanceLookup.obj
 0002:000243a0       ?contains@?$QMap@VQString@@VdeviceTypeInfo@@@@QBE_NABVQString@@@Z 100583a0 f i instanceLookup.obj
 0002:00024420       ?contains@?$QMap@VQString@@VinstanceInfo@@@@QBE_NABVQString@@@Z 10058420 f i instanceLookup.obj
 0002:000244a0       ?contains@?$QMap@VQString@@VparamInfo@@@@QBE_NABVQString@@@Z 100584a0 f i instanceLookup.obj
 0002:00024520       ?copy@?$QMapPrivate@VQString@@VcomplexInstance@@@@QAEPAU?$QMapNode@VQString@@VcomplexInstance@@@@PAU2@@Z 10058520 f i instanceLookup.obj
 0002:000246c0       ?copy@?$QMapPrivate@VQString@@VcomplexParam@@@@QAEPAU?$QMapNode@VQString@@VcomplexParam@@@@PAU2@@Z 100586c0 f i instanceLookup.obj
 0002:00024860       ?copy@?$QMapPrivate@VQString@@VcomplexType@@@@QAEPAU?$QMapNode@VQString@@VcomplexType@@@@PAU2@@Z 10058860 f i instanceLookup.obj
 0002:00024a00       ?copy@?$QMapPrivate@VQString@@VdeviceTypeInfo@@@@QAEPAU?$QMapNode@VQString@@VdeviceTypeInfo@@@@PAU2@@Z 10058a00 f i instanceLookup.obj
 0002:00024ba0       ?copy@?$QMapPrivate@VQString@@VinstanceInfo@@@@QAEPAU?$QMapNode@VQString@@VinstanceInfo@@@@PAU2@@Z 10058ba0 f i instanceLookup.obj
 0002:00024d40       ?copy@?$QMapPrivate@VQString@@VparamInfo@@@@QAEPAU?$QMapNode@VQString@@VparamInfo@@@@PAU2@@Z 10058d40 f i instanceLookup.obj
 0002:00024ee0       ?count@?$QMap@VQString@@VcomplexInstance@@@@QBEIABVQString@@@Z 10058ee0 f i instanceLookup.obj
 0002:00025000       ?count@?$QMap@VQString@@VcomplexInstance@@@@QBEIXZ 10059000 f i instanceLookup.obj
 0002:00025040       ?count@?$QMap@VQString@@VcomplexParam@@@@QBEIABVQString@@@Z 10059040 f i instanceLookup.obj
 0002:00025160       ?count@?$QMap@VQString@@VcomplexParam@@@@QBEIXZ 10059160 f i instanceLookup.obj
 0002:000251a0       ?count@?$QMap@VQString@@VcomplexType@@@@QBEIABVQString@@@Z 100591a0 f i instanceLookup.obj
 0002:000252c0       ?count@?$QMap@VQString@@VcomplexType@@@@QBEIXZ 100592c0 f i instanceLookup.obj
 0002:00025300       ?count@?$QMap@VQString@@VdeviceTypeInfo@@@@QBEIABVQString@@@Z 10059300 f i instanceLookup.obj
 0002:00025420       ?count@?$QMap@VQString@@VdeviceTypeInfo@@@@QBEIXZ 10059420 f i instanceLookup.obj
 0002:00025460       ?count@?$QMap@VQString@@VinstanceInfo@@@@QBEIABVQString@@@Z 10059460 f i instanceLookup.obj
 0002:00025580       ?count@?$QMap@VQString@@VinstanceInfo@@@@QBEIXZ 10059580 f i instanceLookup.obj
 0002:000255c0       ?count@?$QMap@VQString@@VparamInfo@@@@QBEIABVQString@@@Z 100595c0 f i instanceLookup.obj
 0002:000256e0       ?count@?$QMap@VQString@@VparamInfo@@@@QBEIXZ 100596e0 f i instanceLookup.obj
 0002:00025720       ?data@?$QMapConstIterator@VQString@@VcomplexInstance@@@@QBEABVcomplexInstance@@XZ 10059720 f i instanceLookup.obj
 0002:00025760       ?data@?$QMapConstIterator@VQString@@VcomplexParam@@@@QBEABVcomplexParam@@XZ 10059760 f i instanceLookup.obj
 0002:000257a0       ?data@?$QMapConstIterator@VQString@@VcomplexType@@@@QBEABVcomplexType@@XZ 100597a0 f i instanceLookup.obj
 0002:000257e0       ?data@?$QMapConstIterator@VQString@@VdeviceTypeInfo@@@@QBEABVdeviceTypeInfo@@XZ 100597e0 f i instanceLookup.obj
 0002:00025820       ?data@?$QMapConstIterator@VQString@@VinstanceInfo@@@@QBEABVinstanceInfo@@XZ 10059820 f i instanceLookup.obj
 0002:00025860       ?data@?$QMapConstIterator@VQString@@VparamInfo@@@@QBEABVparamInfo@@XZ 10059860 f i instanceLookup.obj
 0002:000258a0       ?data@?$QMapIterator@VQString@@VcomplexInstance@@@@QAEAAVcomplexInstance@@XZ 100598a0 f i instanceLookup.obj
 0002:000258e0       ?data@?$QMapIterator@VQString@@VcomplexParam@@@@QAEAAVcomplexParam@@XZ 100598e0 f i instanceLookup.obj
 0002:00025920       ?data@?$QMapIterator@VQString@@VcomplexType@@@@QAEAAVcomplexType@@XZ 10059920 f i instanceLookup.obj
 0002:00025960       ?data@?$QMapIterator@VQString@@VdeviceTypeInfo@@@@QAEAAVdeviceTypeInfo@@XZ 10059960 f i instanceLookup.obj
 0002:000259a0       ?data@?$QMapIterator@VQString@@VinstanceInfo@@@@QAEAAVinstanceInfo@@XZ 100599a0 f i instanceLookup.obj
 0002:000259e0       ?data@?$QMapIterator@VQString@@VparamInfo@@@@QAEAAVparamInfo@@XZ 100599e0 f i instanceLookup.obj
 0002:00025a20       ?dec@?$QMapIterator@VQString@@VcomplexInstance@@@@AAEHXZ 10059a20 f i instanceLookup.obj
 0002:00025b10       ?dec@?$QMapIterator@VQString@@VcomplexParam@@@@AAEHXZ 10059b10 f i instanceLookup.obj
 0002:00025c00       ?dec@?$QMapIterator@VQString@@VcomplexType@@@@AAEHXZ 10059c00 f i instanceLookup.obj
 0002:00025cf0       ?dec@?$QMapIterator@VQString@@VdeviceTypeInfo@@@@AAEHXZ 10059cf0 f i instanceLookup.obj
 0002:00025de0       ?dec@?$QMapIterator@VQString@@VinstanceInfo@@@@AAEHXZ 10059de0 f i instanceLookup.obj
 0002:00025ed0       ?dec@?$QMapIterator@VQString@@VparamInfo@@@@AAEHXZ 10059ed0 f i instanceLookup.obj
 0002:00025fc0       ?derefAndDelete@?$QValueListPrivate@VcomplexInstance@@@@QAEXXZ 10059fc0 f i instanceLookup.obj
 0002:00026090       ?derefAndDelete@?$QValueListPrivate@VcomplexParam@@@@QAEXXZ 1005a090 f i instanceLookup.obj
 0002:00026160       ?derefAndDelete@?$QValueListPrivate@VcomplexType@@@@QAEXXZ 1005a160 f i instanceLookup.obj
 0002:00026230       ?derefAndDelete@?$QValueListPrivate@VdeviceTypeInfo@@@@QAEXXZ 1005a230 f i instanceLookup.obj
 0002:00026300       ?derefAndDelete@?$QValueListPrivate@VinstanceInfo@@@@QAEXXZ 1005a300 f i instanceLookup.obj
 0002:000263d0       ?derefAndDelete@?$QValueListPrivate@VparamInfo@@@@QAEXXZ 1005a3d0 f i instanceLookup.obj
 0002:000264a0       ?detach@?$QMap@VQString@@VcomplexInstance@@@@IAEXXZ 1005a4a0 f i instanceLookup.obj
 0002:00026500       ?detach@?$QMap@VQString@@VcomplexParam@@@@IAEXXZ 1005a500 f i instanceLookup.obj
 0002:00026560       ?detach@?$QMap@VQString@@VcomplexType@@@@IAEXXZ 1005a560 f i instanceLookup.obj
 0002:000265c0       ?detach@?$QMap@VQString@@VdeviceTypeInfo@@@@IAEXXZ 1005a5c0 f i instanceLookup.obj
 0002:00026620       ?detach@?$QMap@VQString@@VinstanceInfo@@@@IAEXXZ 1005a620 f i instanceLookup.obj
 0002:00026680       ?detach@?$QMap@VQString@@VparamInfo@@@@IAEXXZ 1005a680 f i instanceLookup.obj
 0002:000266e0       ?detach@?$QValueList@VcomplexInstance@@@@IAEXXZ 1005a6e0 f i instanceLookup.obj
 0002:00026740       ?detach@?$QValueList@VcomplexParam@@@@IAEXXZ 1005a740 f i instanceLookup.obj
 0002:000267a0       ?detach@?$QValueList@VcomplexType@@@@IAEXXZ 1005a7a0 f i instanceLookup.obj
 0002:00026800       ?detach@?$QValueList@VdeviceTypeInfo@@@@IAEXXZ 1005a800 f i instanceLookup.obj
 0002:00026860       ?detach@?$QValueList@VinstanceInfo@@@@IAEXXZ 1005a860 f i instanceLookup.obj
 0002:000268c0       ?detach@?$QValueList@VparamInfo@@@@IAEXXZ 1005a8c0 f i instanceLookup.obj
 0002:00026920       ?detachInternal@?$QMap@VQString@@VcomplexInstance@@@@AAEXXZ 1005a920 f i instanceLookup.obj
 0002:00026a30       ?detachInternal@?$QMap@VQString@@VcomplexParam@@@@AAEXXZ 1005aa30 f i instanceLookup.obj
 0002:00026b40       ?detachInternal@?$QMap@VQString@@VcomplexType@@@@AAEXXZ 1005ab40 f i instanceLookup.obj
 0002:00026c50       ?detachInternal@?$QMap@VQString@@VdeviceTypeInfo@@@@AAEXXZ 1005ac50 f i instanceLookup.obj
 0002:00026d60       ?detachInternal@?$QMap@VQString@@VinstanceInfo@@@@AAEXXZ 1005ad60 f i instanceLookup.obj
 0002:00026e70       ?detachInternal@?$QMap@VQString@@VparamInfo@@@@AAEXXZ 1005ae70 f i instanceLookup.obj
 0002:00026f80       ?detachInternal@?$QValueList@VcomplexInstance@@@@AAEXXZ 1005af80 f i instanceLookup.obj
 0002:00027090       ?detachInternal@?$QValueList@VcomplexParam@@@@AAEXXZ 1005b090 f i instanceLookup.obj
 0002:000271a0       ?detachInternal@?$QValueList@VcomplexType@@@@AAEXXZ 1005b1a0 f i instanceLookup.obj
 0002:000272b0       ?detachInternal@?$QValueList@VdeviceTypeInfo@@@@AAEXXZ 1005b2b0 f i instanceLookup.obj
 0002:000273c0       ?detachInternal@?$QValueList@VinstanceInfo@@@@AAEXXZ 1005b3c0 f i instanceLookup.obj
 0002:000274d0       ?detachInternal@?$QValueList@VparamInfo@@@@AAEXXZ 1005b4d0 f i instanceLookup.obj
 0002:000275e0       ?empty@?$QMap@VQString@@VcomplexInstance@@@@QBE_NXZ 1005b5e0 f i instanceLookup.obj
 0002:00027650       ?empty@?$QMap@VQString@@VcomplexParam@@@@QBE_NXZ 1005b650 f i instanceLookup.obj
 0002:000276c0       ?empty@?$QMap@VQString@@VcomplexType@@@@QBE_NXZ 1005b6c0 f i instanceLookup.obj
 0002:00027730       ?empty@?$QMap@VQString@@VdeviceTypeInfo@@@@QBE_NXZ 1005b730 f i instanceLookup.obj
 0002:000277a0       ?empty@?$QMap@VQString@@VinstanceInfo@@@@QBE_NXZ 1005b7a0 f i instanceLookup.obj
 0002:00027810       ?empty@?$QMap@VQString@@VparamInfo@@@@QBE_NXZ 1005b810 f i instanceLookup.obj
 0002:00027880       ?end@?$QMap@VQString@@VcomplexInstance@@@@QAE?AV?$QMapIterator@VQString@@VcomplexInstance@@@@XZ 1005b880 f i instanceLookup.obj
 0002:000278f0       ?end@?$QMap@VQString@@VcomplexInstance@@@@QBE?AV?$QMapConstIterator@VQString@@VcomplexInstance@@@@XZ 1005b8f0 f i instanceLookup.obj
 0002:00027950       ?end@?$QMap@VQString@@VcomplexParam@@@@QAE?AV?$QMapIterator@VQString@@VcomplexParam@@@@XZ 1005b950 f i instanceLookup.obj
 0002:000279c0       ?end@?$QMap@VQString@@VcomplexParam@@@@QBE?AV?$QMapConstIterator@VQString@@VcomplexParam@@@@XZ 1005b9c0 f i instanceLookup.obj
 0002:00027a20       ?end@?$QMap@VQString@@VcomplexType@@@@QAE?AV?$QMapIterator@VQString@@VcomplexType@@@@XZ 1005ba20 f i instanceLookup.obj
 0002:00027a90       ?end@?$QMap@VQString@@VcomplexType@@@@QBE?AV?$QMapConstIterator@VQString@@VcomplexType@@@@XZ 1005ba90 f i instanceLookup.obj
 0002:00027af0       ?end@?$QMap@VQString@@VdeviceTypeInfo@@@@QAE?AV?$QMapIterator@VQString@@VdeviceTypeInfo@@@@XZ 1005baf0 f i instanceLookup.obj
 0002:00027b60       ?end@?$QMap@VQString@@VdeviceTypeInfo@@@@QBE?AV?$QMapConstIterator@VQString@@VdeviceTypeInfo@@@@XZ 1005bb60 f i instanceLookup.obj
 0002:00027bc0       ?end@?$QMap@VQString@@VinstanceInfo@@@@QAE?AV?$QMapIterator@VQString@@VinstanceInfo@@@@XZ 1005bbc0 f i instanceLookup.obj
 0002:00027c30       ?end@?$QMap@VQString@@VinstanceInfo@@@@QBE?AV?$QMapConstIterator@VQString@@VinstanceInfo@@@@XZ 1005bc30 f i instanceLookup.obj
 0002:00027c90       ?end@?$QMap@VQString@@VparamInfo@@@@QAE?AV?$QMapIterator@VQString@@VparamInfo@@@@XZ 1005bc90 f i instanceLookup.obj
 0002:00027d00       ?end@?$QMap@VQString@@VparamInfo@@@@QBE?AV?$QMapConstIterator@VQString@@VparamInfo@@@@XZ 1005bd00 f i instanceLookup.obj
 0002:00027d60       ?end@?$QMapPrivate@VQString@@VcomplexInstance@@@@QAE?AV?$QMapIterator@VQString@@VcomplexInstance@@@@XZ 1005bd60 f i instanceLookup.obj
 0002:00027dc0       ?end@?$QMapPrivate@VQString@@VcomplexInstance@@@@QBE?AV?$QMapConstIterator@VQString@@VcomplexInstance@@@@XZ 1005bdc0 f i instanceLookup.obj
 0002:00027e20       ?end@?$QMapPrivate@VQString@@VcomplexParam@@@@QAE?AV?$QMapIterator@VQString@@VcomplexParam@@@@XZ 1005be20 f i instanceLookup.obj
 0002:00027e80       ?end@?$QMapPrivate@VQString@@VcomplexParam@@@@QBE?AV?$QMapConstIterator@VQString@@VcomplexParam@@@@XZ 1005be80 f i instanceLookup.obj
 0002:00027ee0       ?end@?$QMapPrivate@VQString@@VcomplexType@@@@QAE?AV?$QMapIterator@VQString@@VcomplexType@@@@XZ 1005bee0 f i instanceLookup.obj
 0002:00027f40       ?end@?$QMapPrivate@VQString@@VcomplexType@@@@QBE?AV?$QMapConstIterator@VQString@@VcomplexType@@@@XZ 1005bf40 f i instanceLookup.obj
 0002:00027fa0       ?end@?$QMapPrivate@VQString@@VdeviceTypeInfo@@@@QAE?AV?$QMapIterator@VQString@@VdeviceTypeInfo@@@@XZ 1005bfa0 f i instanceLookup.obj
 0002:00028000       ?end@?$QMapPrivate@VQString@@VdeviceTypeInfo@@@@QBE?AV?$QMapConstIterator@VQString@@VdeviceTypeInfo@@@@XZ 1005c000 f i instanceLookup.obj
 0002:00028060       ?end@?$QMapPrivate@VQString@@VinstanceInfo@@@@QAE?AV?$QMapIterator@VQString@@VinstanceInfo@@@@XZ 1005c060 f i instanceLookup.obj
 0002:000280c0       ?end@?$QMapPrivate@VQString@@VinstanceInfo@@@@QBE?AV?$QMapConstIterator@VQString@@VinstanceInfo@@@@XZ 1005c0c0 f i instanceLookup.obj
 0002:00028120       ?end@?$QMapPrivate@VQString@@VparamInfo@@@@QAE?AV?$QMapIterator@VQString@@VparamInfo@@@@XZ 1005c120 f i instanceLookup.obj
 0002:00028180       ?end@?$QMapPrivate@VQString@@VparamInfo@@@@QBE?AV?$QMapConstIterator@VQString@@VparamInfo@@@@XZ 1005c180 f i instanceLookup.obj
 0002:000281e0       ?end@?$QValueList@VcomplexInstance@@@@QAE?AV?$QValueListIterator@VcomplexInstance@@@@XZ 1005c1e0 f i instanceLookup.obj
 0002:00028250       ?end@?$QValueList@VcomplexParam@@@@QAE?AV?$QValueListIterator@VcomplexParam@@@@XZ 1005c250 f i instanceLookup.obj
 0002:000282c0       ?end@?$QValueList@VcomplexType@@@@QAE?AV?$QValueListIterator@VcomplexType@@@@XZ 1005c2c0 f i instanceLookup.obj
 0002:00028330       ?end@?$QValueList@VdeviceTypeInfo@@@@QAE?AV?$QValueListIterator@VdeviceTypeInfo@@@@XZ 1005c330 f i instanceLookup.obj
 0002:000283a0       ?end@?$QValueList@VinstanceInfo@@@@QAE?AV?$QValueListIterator@VinstanceInfo@@@@XZ 1005c3a0 f i instanceLookup.obj
 0002:00028410       ?end@?$QValueList@VparamInfo@@@@QAE?AV?$QValueListIterator@VparamInfo@@@@XZ 1005c410 f i instanceLookup.obj
 0002:00028480       ?erase@?$QMap@VQString@@VcomplexInstance@@@@QAEXABVQString@@@Z 1005c480 f i instanceLookup.obj
 0002:00028570       ?erase@?$QMap@VQString@@VcomplexInstance@@@@QAEXV?$QMapIterator@VQString@@VcomplexInstance@@@@@Z 1005c570 f i instanceLookup.obj
 0002:000285e0       ?erase@?$QMap@VQString@@VcomplexParam@@@@QAEXABVQString@@@Z 1005c5e0 f i instanceLookup.obj
 0002:000286d0       ?erase@?$QMap@VQString@@VcomplexParam@@@@QAEXV?$QMapIterator@VQString@@VcomplexParam@@@@@Z 1005c6d0 f i instanceLookup.obj
 0002:00028740       ?erase@?$QMap@VQString@@VcomplexType@@@@QAEXABVQString@@@Z 1005c740 f i instanceLookup.obj
 0002:00028830       ?erase@?$QMap@VQString@@VcomplexType@@@@QAEXV?$QMapIterator@VQString@@VcomplexType@@@@@Z 1005c830 f i instanceLookup.obj
 0002:000288a0       ?erase@?$QMap@VQString@@VdeviceTypeInfo@@@@QAEXABVQString@@@Z 1005c8a0 f i instanceLookup.obj
 0002:00028990       ?erase@?$QMap@VQString@@VdeviceTypeInfo@@@@QAEXV?$QMapIterator@VQString@@VdeviceTypeInfo@@@@@Z 1005c990 f i instanceLookup.obj
 0002:00028a00       ?erase@?$QMap@VQString@@VinstanceInfo@@@@QAEXABVQString@@@Z 1005ca00 f i instanceLookup.obj
 0002:00028af0       ?erase@?$QMap@VQString@@VinstanceInfo@@@@QAEXV?$QMapIterator@VQString@@VinstanceInfo@@@@@Z 1005caf0 f i instanceLookup.obj
 0002:00028b60       ?erase@?$QMap@VQString@@VparamInfo@@@@QAEXABVQString@@@Z 1005cb60 f i instanceLookup.obj
 0002:00028c50       ?erase@?$QMap@VQString@@VparamInfo@@@@QAEXV?$QMapIterator@VQString@@VparamInfo@@@@@Z 1005cc50 f i instanceLookup.obj
 0002:00028cc0       ?find@?$QMap@VQString@@VcomplexInstance@@@@QAE?AV?$QMapIterator@VQString@@VcomplexInstance@@@@ABVQString@@@Z 1005ccc0 f i instanceLookup.obj
 0002:00028d40       ?find@?$QMap@VQString@@VcomplexInstance@@@@QBE?AV?$QMapConstIterator@VQString@@VcomplexInstance@@@@ABVQString@@@Z 1005cd40 f i instanceLookup.obj
 0002:00028db0       ?find@?$QMap@VQString@@VcomplexParam@@@@QAE?AV?$QMapIterator@VQString@@VcomplexParam@@@@ABVQString@@@Z 1005cdb0 f i instanceLookup.obj
 0002:00028e30       ?find@?$QMap@VQString@@VcomplexParam@@@@QBE?AV?$QMapConstIterator@VQString@@VcomplexParam@@@@ABVQString@@@Z 1005ce30 f i instanceLookup.obj
 0002:00028ea0       ?find@?$QMap@VQString@@VcomplexType@@@@QAE?AV?$QMapIterator@VQString@@VcomplexType@@@@ABVQString@@@Z 1005cea0 f i instanceLookup.obj
 0002:00028f20       ?find@?$QMap@VQString@@VcomplexType@@@@QBE?AV?$QMapConstIterator@VQString@@VcomplexType@@@@ABVQString@@@Z 1005cf20 f i instanceLookup.obj
 0002:00028f90       ?find@?$QMap@VQString@@VdeviceTypeInfo@@@@QAE?AV?$QMapIterator@VQString@@VdeviceTypeInfo@@@@ABVQString@@@Z 1005cf90 f i instanceLookup.obj
 0002:00029010       ?find@?$QMap@VQString@@VdeviceTypeInfo@@@@QBE?AV?$QMapConstIterator@VQString@@VdeviceTypeInfo@@@@ABVQString@@@Z 1005d010 f i instanceLookup.obj
 0002:00029080       ?find@?$QMap@VQString@@VinstanceInfo@@@@QAE?AV?$QMapIterator@VQString@@VinstanceInfo@@@@ABVQString@@@Z 1005d080 f i instanceLookup.obj
 0002:00029100       ?find@?$QMap@VQString@@VinstanceInfo@@@@QBE?AV?$QMapConstIterator@VQString@@VinstanceInfo@@@@ABVQString@@@Z 1005d100 f i instanceLookup.obj
 0002:00029170       ?find@?$QMap@VQString@@VparamInfo@@@@QAE?AV?$QMapIterator@VQString@@VparamInfo@@@@ABVQString@@@Z 1005d170 f i instanceLookup.obj
 0002:000291f0       ?find@?$QMap@VQString@@VparamInfo@@@@QBE?AV?$QMapConstIterator@VQString@@VparamInfo@@@@ABVQString@@@Z 1005d1f0 f i instanceLookup.obj
 0002:00029260       ?find@?$QMapPrivate@VQString@@VcomplexInstance@@@@QBE?AV?$QMapConstIterator@VQString@@VcomplexInstance@@@@ABVQString@@@Z 1005d260 f i instanceLookup.obj
 0002:00029390       ?find@?$QMapPrivate@VQString@@VcomplexParam@@@@QBE?AV?$QMapConstIterator@VQString@@VcomplexParam@@@@ABVQString@@@Z 1005d390 f i instanceLookup.obj
 0002:000294c0       ?find@?$QMapPrivate@VQString@@VcomplexType@@@@QBE?AV?$QMapConstIterator@VQString@@VcomplexType@@@@ABVQString@@@Z 1005d4c0 f i instanceLookup.obj
 0002:000295f0       ?find@?$QMapPrivate@VQString@@VdeviceTypeInfo@@@@QBE?AV?$QMapConstIterator@VQString@@VdeviceTypeInfo@@@@ABVQString@@@Z 1005d5f0 f i instanceLookup.obj
 0002:00029720       ?find@?$QMapPrivate@VQString@@VinstanceInfo@@@@QBE?AV?$QMapConstIterator@VQString@@VinstanceInfo@@@@ABVQString@@@Z 1005d720 f i instanceLookup.obj
 0002:00029850       ?find@?$QMapPrivate@VQString@@VparamInfo@@@@QBE?AV?$QMapConstIterator@VQString@@VparamInfo@@@@ABVQString@@@Z 1005d850 f i instanceLookup.obj
 0002:00029980       ?inc@?$QMapConstIterator@VQString@@VcomplexInstance@@@@AAEHXZ 1005d980 f i instanceLookup.obj
 0002:00029a40       ?inc@?$QMapConstIterator@VQString@@VcomplexParam@@@@AAEHXZ 1005da40 f i instanceLookup.obj
 0002:00029b00       ?inc@?$QMapConstIterator@VQString@@VcomplexType@@@@AAEHXZ 1005db00 f i instanceLookup.obj
 0002:00029bc0       ?inc@?$QMapConstIterator@VQString@@VdeviceTypeInfo@@@@AAEHXZ 1005dbc0 f i instanceLookup.obj
 0002:00029c80       ?inc@?$QMapConstIterator@VQString@@VinstanceInfo@@@@AAEHXZ 1005dc80 f i instanceLookup.obj
 0002:00029d40       ?inc@?$QMapConstIterator@VQString@@VparamInfo@@@@AAEHXZ 1005dd40 f i instanceLookup.obj
 0002:00029e00       ?insert@?$QMap@VQString@@VcomplexInstance@@@@QAE?AU?$QPair@V?$QMapIterator@VQString@@VcomplexInstance@@@@_N@@ABU?$QPair@$$CBVQString@@VcomplexInstance@@@@@Z 1005de00 f i instanceLookup.obj
 0002:00029f20       ?insert@?$QMap@VQString@@VcomplexInstance@@@@QAE?AV?$QMapIterator@VQString@@VcomplexInstance@@@@ABVQString@@ABVcomplexInstance@@_N@Z 1005df20 f i instanceLookup.obj
 0002:0002a020       ?insert@?$QMap@VQString@@VcomplexParam@@@@QAE?AU?$QPair@V?$QMapIterator@VQString@@VcomplexParam@@@@_N@@ABU?$QPair@$$CBVQString@@VcomplexParam@@@@@Z 1005e020 f i instanceLookup.obj
 0002:0002a140       ?insert@?$QMap@VQString@@VcomplexParam@@@@QAE?AV?$QMapIterator@VQString@@VcomplexParam@@@@ABVQString@@ABVcomplexParam@@_N@Z 1005e140 f i instanceLookup.obj
 0002:0002a240       ?insert@?$QMap@VQString@@VcomplexType@@@@QAE?AU?$QPair@V?$QMapIterator@VQString@@VcomplexType@@@@_N@@ABU?$QPair@$$CBVQString@@VcomplexType@@@@@Z 1005e240 f i instanceLookup.obj
 0002:0002a360       ?insert@?$QMap@VQString@@VcomplexType@@@@QAE?AV?$QMapIterator@VQString@@VcomplexType@@@@ABVQString@@ABVcomplexType@@_N@Z 1005e360 f i instanceLookup.obj
 0002:0002a460       ?insert@?$QMap@VQString@@VdeviceTypeInfo@@@@QAE?AU?$QPair@V?$QMapIterator@VQString@@VdeviceTypeInfo@@@@_N@@ABU?$QPair@$$CBVQString@@VdeviceTypeInfo@@@@@Z 1005e460 f i instanceLookup.obj
 0002:0002a580       ?insert@?$QMap@VQString@@VdeviceTypeInfo@@@@QAE?AV?$QMapIterator@VQString@@VdeviceTypeInfo@@@@ABVQString@@ABVdeviceTypeInfo@@_N@Z 1005e580 f i instanceLookup.obj
 0002:0002a680       ?insert@?$QMap@VQString@@VinstanceInfo@@@@QAE?AU?$QPair@V?$QMapIterator@VQString@@VinstanceInfo@@@@_N@@ABU?$QPair@$$CBVQString@@VinstanceInfo@@@@@Z 1005e680 f i instanceLookup.obj
 0002:0002a7a0       ?insert@?$QMap@VQString@@VinstanceInfo@@@@QAE?AV?$QMapIterator@VQString@@VinstanceInfo@@@@ABVQString@@ABVinstanceInfo@@_N@Z 1005e7a0 f i instanceLookup.obj
 0002:0002a8a0       ?insert@?$QMap@VQString@@VparamInfo@@@@QAE?AU?$QPair@V?$QMapIterator@VQString@@VparamInfo@@@@_N@@ABU?$QPair@$$CBVQString@@VparamInfo@@@@@Z 1005e8a0 f i instanceLookup.obj
 0002:0002a9c0       ?insert@?$QMap@VQString@@VparamInfo@@@@QAE?AV?$QMapIterator@VQString@@VparamInfo@@@@ABVQString@@ABVparamInfo@@_N@Z 1005e9c0 f i instanceLookup.obj
 0002:0002aac0       ?insert@?$QMapPrivate@VQString@@VcomplexInstance@@@@QAE?AV?$QMapIterator@VQString@@VcomplexInstance@@@@PAUQMapNodeBase@@0ABVQString@@@Z 1005eac0 f i instanceLookup.obj
 0002:0002acf0       ?insert@?$QMapPrivate@VQString@@VcomplexParam@@@@QAE?AV?$QMapIterator@VQString@@VcomplexParam@@@@PAUQMapNodeBase@@0ABVQString@@@Z 1005ecf0 f i instanceLookup.obj
 0002:0002af20       ?insert@?$QMapPrivate@VQString@@VcomplexType@@@@QAE?AV?$QMapIterator@VQString@@VcomplexType@@@@PAUQMapNodeBase@@0ABVQString@@@Z 1005ef20 f i instanceLookup.obj
 0002:0002b150       ?insert@?$QMapPrivate@VQString@@VdeviceTypeInfo@@@@QAE?AV?$QMapIterator@VQString@@VdeviceTypeInfo@@@@PAUQMapNodeBase@@0ABVQString@@@Z 1005f150 f i instanceLookup.obj
 0002:0002b380       ?insert@?$QMapPrivate@VQString@@VinstanceInfo@@@@QAE?AV?$QMapIterator@VQString@@VinstanceInfo@@@@PAUQMapNodeBase@@0ABVQString@@@Z 1005f380 f i instanceLookup.obj
 0002:0002b5b0       ?insert@?$QMapPrivate@VQString@@VparamInfo@@@@QAE?AV?$QMapIterator@VQString@@VparamInfo@@@@PAUQMapNodeBase@@0ABVQString@@@Z 1005f5b0 f i instanceLookup.obj
 0002:0002b7e0       ?insert@?$QValueListPrivate@VcomplexInstance@@@@QAE?AV?$QValueListIterator@VcomplexInstance@@@@V2@ABVcomplexInstance@@@Z 1005f7e0 f i instanceLookup.obj
 0002:0002b930       ?insert@?$QValueListPrivate@VcomplexParam@@@@QAE?AV?$QValueListIterator@VcomplexParam@@@@V2@ABVcomplexParam@@@Z 1005f930 f i instanceLookup.obj
 0002:0002ba80       ?insert@?$QValueListPrivate@VcomplexType@@@@QAE?AV?$QValueListIterator@VcomplexType@@@@V2@ABVcomplexType@@@Z 1005fa80 f i instanceLookup.obj
 0002:0002bbd0       ?insert@?$QValueListPrivate@VdeviceTypeInfo@@@@QAE?AV?$QValueListIterator@VdeviceTypeInfo@@@@V2@ABVdeviceTypeInfo@@@Z 1005fbd0 f i instanceLookup.obj
 0002:0002bd20       ?insert@?$QValueListPrivate@VinstanceInfo@@@@QAE?AV?$QValueListIterator@VinstanceInfo@@@@V2@ABVinstanceInfo@@@Z 1005fd20 f i instanceLookup.obj
 0002:0002be70       ?insert@?$QValueListPrivate@VparamInfo@@@@QAE?AV?$QValueListIterator@VparamInfo@@@@V2@ABVparamInfo@@@Z 1005fe70 f i instanceLookup.obj
 0002:0002bfc0       ?insertSingle@?$QMapPrivate@VQString@@VcomplexInstance@@@@QAE?AV?$QMapIterator@VQString@@VcomplexInstance@@@@ABVQString@@@Z 1005ffc0 f i instanceLookup.obj
 0002:0002c1b0       ?insertSingle@?$QMapPrivate@VQString@@VcomplexParam@@@@QAE?AV?$QMapIterator@VQString@@VcomplexParam@@@@ABVQString@@@Z 100601b0 f i instanceLookup.obj
 0002:0002c3a0       ?insertSingle@?$QMapPrivate@VQString@@VcomplexType@@@@QAE?AV?$QMapIterator@VQString@@VcomplexType@@@@ABVQString@@@Z 100603a0 f i instanceLookup.obj
 0002:0002c590       ?insertSingle@?$QMapPrivate@VQString@@VdeviceTypeInfo@@@@QAE?AV?$QMapIterator@VQString@@VdeviceTypeInfo@@@@ABVQString@@@Z 10060590 f i instanceLookup.obj
 0002:0002c780       ?insertSingle@?$QMapPrivate@VQString@@VinstanceInfo@@@@QAE?AV?$QMapIterator@VQString@@VinstanceInfo@@@@ABVQString@@@Z 10060780 f i instanceLookup.obj
 0002:0002c970       ?insertSingle@?$QMapPrivate@VQString@@VparamInfo@@@@QAE?AV?$QMapIterator@VQString@@VparamInfo@@@@ABVQString@@@Z 10060970 f i instanceLookup.obj
 0002:0002cb60       ?isEmpty@?$QMap@VQString@@VcomplexInstance@@@@QBE_NXZ 10060b60 f i instanceLookup.obj
 0002:0002cbd0       ?isEmpty@?$QMap@VQString@@VcomplexParam@@@@QBE_NXZ 10060bd0 f i instanceLookup.obj
 0002:0002cc40       ?isEmpty@?$QMap@VQString@@VcomplexType@@@@QBE_NXZ 10060c40 f i instanceLookup.obj
 0002:0002ccb0       ?isEmpty@?$QMap@VQString@@VdeviceTypeInfo@@@@QBE_NXZ 10060cb0 f i instanceLookup.obj
 0002:0002cd20       ?isEmpty@?$QMap@VQString@@VinstanceInfo@@@@QBE_NXZ 10060d20 f i instanceLookup.obj
 0002:0002cd90       ?isEmpty@?$QMap@VQString@@VparamInfo@@@@QBE_NXZ 10060d90 f i instanceLookup.obj
 0002:0002ce00       ?key@?$QMapConstIterator@VQString@@VcomplexInstance@@@@QBEABVQString@@XZ 10060e00 f i instanceLookup.obj
 0002:0002ce40       ?key@?$QMapConstIterator@VQString@@VcomplexParam@@@@QBEABVQString@@XZ 10060e40 f i instanceLookup.obj
 0002:0002ce80       ?key@?$QMapConstIterator@VQString@@VcomplexType@@@@QBEABVQString@@XZ 10060e80 f i instanceLookup.obj
 0002:0002cec0       ?key@?$QMapConstIterator@VQString@@VdeviceTypeInfo@@@@QBEABVQString@@XZ 10060ec0 f i instanceLookup.obj
 0002:0002cf00       ?key@?$QMapConstIterator@VQString@@VinstanceInfo@@@@QBEABVQString@@XZ 10060f00 f i instanceLookup.obj
 0002:0002cf40       ?key@?$QMapConstIterator@VQString@@VparamInfo@@@@QBEABVQString@@XZ 10060f40 f i instanceLookup.obj
 0002:0002cf80       ?key@?$QMapPrivate@VQString@@VcomplexInstance@@@@IBEABVQString@@PAUQMapNodeBase@@@Z 10060f80 f i instanceLookup.obj
 0002:0002cfc0       ?key@?$QMapPrivate@VQString@@VcomplexParam@@@@IBEABVQString@@PAUQMapNodeBase@@@Z 10060fc0 f i instanceLookup.obj
 0002:0002d000       ?key@?$QMapPrivate@VQString@@VcomplexType@@@@IBEABVQString@@PAUQMapNodeBase@@@Z 10061000 f i instanceLookup.obj
 0002:0002d040       ?key@?$QMapPrivate@VQString@@VdeviceTypeInfo@@@@IBEABVQString@@PAUQMapNodeBase@@@Z 10061040 f i instanceLookup.obj
 0002:0002d080       ?key@?$QMapPrivate@VQString@@VinstanceInfo@@@@IBEABVQString@@PAUQMapNodeBase@@@Z 10061080 f i instanceLookup.obj
 0002:0002d0c0       ?key@?$QMapPrivate@VQString@@VparamInfo@@@@IBEABVQString@@PAUQMapNodeBase@@@Z 100610c0 f i instanceLookup.obj
 0002:0002d100       ?keys@?$QMap@VQString@@VcomplexInstance@@@@QBE?AV?$QValueList@VQString@@@@XZ 10061100 f i instanceLookup.obj
 0002:0002d2b0       ?keys@?$QMap@VQString@@VcomplexParam@@@@QBE?AV?$QValueList@VQString@@@@XZ 100612b0 f i instanceLookup.obj
 0002:0002d460       ?keys@?$QMap@VQString@@VcomplexType@@@@QBE?AV?$QValueList@VQString@@@@XZ 10061460 f i instanceLookup.obj
 0002:0002d610       ?keys@?$QMap@VQString@@VdeviceTypeInfo@@@@QBE?AV?$QValueList@VQString@@@@XZ 10061610 f i instanceLookup.obj
 0002:0002d7c0       ?keys@?$QMap@VQString@@VinstanceInfo@@@@QBE?AV?$QValueList@VQString@@@@XZ 100617c0 f i instanceLookup.obj
 0002:0002d970       ?keys@?$QMap@VQString@@VparamInfo@@@@QBE?AV?$QValueList@VQString@@@@XZ 10061970 f i instanceLookup.obj
 0002:0002db20       ?remove@?$QMap@VQString@@VcomplexInstance@@@@QAEXABVQString@@@Z 10061b20 f i instanceLookup.obj
 0002:0002dc10       ?remove@?$QMap@VQString@@VcomplexInstance@@@@QAEXV?$QMapIterator@VQString@@VcomplexInstance@@@@@Z 10061c10 f i instanceLookup.obj
 0002:0002dc80       ?remove@?$QMap@VQString@@VcomplexParam@@@@QAEXABVQString@@@Z 10061c80 f i instanceLookup.obj
 0002:0002dd70       ?remove@?$QMap@VQString@@VcomplexParam@@@@QAEXV?$QMapIterator@VQString@@VcomplexParam@@@@@Z 10061d70 f i instanceLookup.obj
 0002:0002dde0       ?remove@?$QMap@VQString@@VcomplexType@@@@QAEXABVQString@@@Z 10061de0 f i instanceLookup.obj
 0002:0002ded0       ?remove@?$QMap@VQString@@VcomplexType@@@@QAEXV?$QMapIterator@VQString@@VcomplexType@@@@@Z 10061ed0 f i instanceLookup.obj
 0002:0002df40       ?remove@?$QMap@VQString@@VdeviceTypeInfo@@@@QAEXABVQString@@@Z 10061f40 f i instanceLookup.obj
 0002:0002e030       ?remove@?$QMap@VQString@@VdeviceTypeInfo@@@@QAEXV?$QMapIterator@VQString@@VdeviceTypeInfo@@@@@Z 10062030 f i instanceLookup.obj
 0002:0002e0a0       ?remove@?$QMap@VQString@@VinstanceInfo@@@@QAEXABVQString@@@Z 100620a0 f i instanceLookup.obj
 0002:0002e190       ?remove@?$QMap@VQString@@VinstanceInfo@@@@QAEXV?$QMapIterator@VQString@@VinstanceInfo@@@@@Z 10062190 f i instanceLookup.obj
 0002:0002e200       ?remove@?$QMap@VQString@@VparamInfo@@@@QAEXABVQString@@@Z 10062200 f i instanceLookup.obj
 0002:0002e2f0       ?remove@?$QMap@VQString@@VparamInfo@@@@QAEXV?$QMapIterator@VQString@@VparamInfo@@@@@Z 100622f0 f i instanceLookup.obj
 0002:0002e360       ?remove@?$QMapPrivate@VQString@@VcomplexInstance@@@@QAEXV?$QMapIterator@VQString@@VcomplexInstance@@@@@Z 10062360 f i instanceLookup.obj
 0002:0002e450       ?remove@?$QMapPrivate@VQString@@VcomplexParam@@@@QAEXV?$QMapIterator@VQString@@VcomplexParam@@@@@Z 10062450 f i instanceLookup.obj
 0002:0002e540       ?remove@?$QMapPrivate@VQString@@VcomplexType@@@@QAEXV?$QMapIterator@VQString@@VcomplexType@@@@@Z 10062540 f i instanceLookup.obj
 0002:0002e630       ?remove@?$QMapPrivate@VQString@@VdeviceTypeInfo@@@@QAEXV?$QMapIterator@VQString@@VdeviceTypeInfo@@@@@Z 10062630 f i instanceLookup.obj
 0002:0002e720       ?remove@?$QMapPrivate@VQString@@VinstanceInfo@@@@QAEXV?$QMapIterator@VQString@@VinstanceInfo@@@@@Z 10062720 f i instanceLookup.obj
 0002:0002e810       ?remove@?$QMapPrivate@VQString@@VparamInfo@@@@QAEXV?$QMapIterator@VQString@@VparamInfo@@@@@Z 10062810 f i instanceLookup.obj
 0002:0002e900       ?replace@?$QMap@VQString@@VcomplexInstance@@@@QAE?AV?$QMapIterator@VQString@@VcomplexInstance@@@@ABVQString@@ABVcomplexInstance@@@Z 10062900 f i instanceLookup.obj
 0002:0002e980       ?replace@?$QMap@VQString@@VcomplexParam@@@@QAE?AV?$QMapIterator@VQString@@VcomplexParam@@@@ABVQString@@ABVcomplexParam@@@Z 10062980 f i instanceLookup.obj
 0002:0002ea00       ?replace@?$QMap@VQString@@VcomplexType@@@@QAE?AV?$QMapIterator@VQString@@VcomplexType@@@@ABVQString@@ABVcomplexType@@@Z 10062a00 f i instanceLookup.obj
 0002:0002ea80       ?replace@?$QMap@VQString@@VdeviceTypeInfo@@@@QAE?AV?$QMapIterator@VQString@@VdeviceTypeInfo@@@@ABVQString@@ABVdeviceTypeInfo@@@Z 10062a80 f i instanceLookup.obj
 0002:0002eb00       ?replace@?$QMap@VQString@@VinstanceInfo@@@@QAE?AV?$QMapIterator@VQString@@VinstanceInfo@@@@ABVQString@@ABVinstanceInfo@@@Z 10062b00 f i instanceLookup.obj
 0002:0002eb80       ?replace@?$QMap@VQString@@VparamInfo@@@@QAE?AV?$QMapIterator@VQString@@VparamInfo@@@@ABVQString@@ABVparamInfo@@@Z 10062b80 f i instanceLookup.obj
 0002:0002ec00       ?size@?$QMap@VQString@@VcomplexInstance@@@@QBEIXZ 10062c00 f i instanceLookup.obj
 0002:0002ec40       ?size@?$QMap@VQString@@VcomplexParam@@@@QBEIXZ 10062c40 f i instanceLookup.obj
 0002:0002ec80       ?size@?$QMap@VQString@@VcomplexType@@@@QBEIXZ 10062c80 f i instanceLookup.obj
 0002:0002ecc0       ?size@?$QMap@VQString@@VdeviceTypeInfo@@@@QBEIXZ 10062cc0 f i instanceLookup.obj
 0002:0002ed00       ?size@?$QMap@VQString@@VinstanceInfo@@@@QBEIXZ 10062d00 f i instanceLookup.obj
 0002:0002ed40       ?size@?$QMap@VQString@@VparamInfo@@@@QBEIXZ 10062d40 f i instanceLookup.obj
 0002:0002ed80       ?values@?$QMap@VQString@@VcomplexInstance@@@@QBE?AV?$QValueList@VcomplexInstance@@@@XZ 10062d80 f i instanceLookup.obj
 0002:0002ef00       ?values@?$QMap@VQString@@VcomplexParam@@@@QBE?AV?$QValueList@VcomplexParam@@@@XZ 10062f00 f i instanceLookup.obj
 0002:0002f080       ?values@?$QMap@VQString@@VcomplexType@@@@QBE?AV?$QValueList@VcomplexType@@@@XZ 10063080 f i instanceLookup.obj
 0002:0002f200       ?values@?$QMap@VQString@@VdeviceTypeInfo@@@@QBE?AV?$QValueList@VdeviceTypeInfo@@@@XZ 10063200 f i instanceLookup.obj
 0002:0002f380       ?values@?$QMap@VQString@@VinstanceInfo@@@@QBE?AV?$QValueList@VinstanceInfo@@@@XZ 10063380 f i instanceLookup.obj
 0002:0002f500       ?values@?$QMap@VQString@@VparamInfo@@@@QBE?AV?$QValueList@VparamInfo@@@@XZ 10063500 f i instanceLookup.obj
 0002:0002f680       ??0launchAccessor@@QAE@XZ  10063680 f   launchAccessor.obj
 0002:0002f8c0       ??1launchAccessor@@UAE@XZ  100638c0 f   launchAccessor.obj
 0002:0002f9c0       ?setAttribute@launchAccessor@@AAE_NABVQString@@00@Z 100639c0 f   launchAccessor.obj
 0002:0002fcf0       ?attribute@launchAccessor@@AAE?AVQString@@ABV2@0@Z 10063cf0 f   launchAccessor.obj
 0002:00030150       ?setDirty@launchAccessor@@AAEXXZ 10064150 f   launchAccessor.obj
 0002:000302b0       ?isDirty@launchAccessor@@QAE_NXZ 100642b0 f   launchAccessor.obj
 0002:00030370       ?lock@launchAccessor@@QAEXXZ 10064370 f   launchAccessor.obj
 0002:000303c0       ?unlock@launchAccessor@@QAEXXZ 100643c0 f   launchAccessor.obj
 0002:00030410       ?version@launchAccessor@@QAENXZ 10064410 f   launchAccessor.obj
 0002:000305a0       ?setVersion@launchAccessor@@QAEXN@Z 100645a0 f   launchAccessor.obj
 0002:00030770       ?item@launchAccessor@@QAE_NABVQString@@AAV2@AA_NAAV?$QValueList@VlaunchItem@@@@AAH@Z 10064770 f   launchAccessor.obj
 0002:00031070       ?insertItem@launchAccessor@@QAE_NABVQString@@ABVlaunchItem@@H@Z 10065070 f   launchAccessor.obj
 0002:00031790       ?deleteItem@launchAccessor@@QAE_NABVQString@@ABVlaunchItem@@H@Z 10065790 f   launchAccessor.obj
 0002:00031c70       ?getLaunchItem@launchAccessor@@QAE_NABVQString@@HAAVlaunchItem@@@Z 10065c70 f   launchAccessor.obj
 0002:00032570       ?promoteItem@launchAccessor@@QAE_NABVQString@@H@Z 10066570 f   launchAccessor.obj
 0002:000325c0       ?demoteItem@launchAccessor@@QAE_NABVQString@@H_N@Z 100665c0 f   launchAccessor.obj
 0002:00032b90       ?addWorkstation@launchAccessor@@QAE_NABVQString@@0_NABV?$QValueList@VlaunchItem@@@@@Z 10066b90 f   launchAccessor.obj
 0002:000334b0       ?deleteWorkstation@launchAccessor@@QAE_NABVQString@@@Z 100674b0 f   launchAccessor.obj
 0002:00033e10       ?renamelaunch@launchAccessor@@QAE_NABVQString@@0@Z 10067e10 f   launchAccessor.obj
 0002:00034190       ?csi@launchAccessor@@QAE?AVQString@@ABV2@@Z 10068190 f   launchAccessor.obj
 0002:00034260       ?roc@launchAccessor@@QAE_NABVQString@@@Z 10068260 f   launchAccessor.obj
 0002:00034380       ?setCSI@launchAccessor@@QAE_NABVQString@@0@Z 10068380 f   launchAccessor.obj
 0002:00034460       ?setROC@launchAccessor@@QAE_NABVQString@@_N@Z 10068460 f   launchAccessor.obj
 0002:000345a0       ?setCurrent@launchAccessor@@QAE_NABVQString@@@Z 100685a0 f   launchAccessor.obj
 0002:00034860       ?setFirst@launchAccessor@@QAE_NXZ 10068860 f   launchAccessor.obj
 0002:000349a0       ?itemPos@launchAccessor@@QAEHABVQString@@ABVlaunchItem@@@Z 100689a0 f   launchAccessor.obj
 0002:00034a50       ?exists@launchAccessor@@QAE_NABVQString@@@Z 10068a50 f   launchAccessor.obj
 0002:00034d60       ?setUndo@launchAccessor@@QAEX_N@Z 10068d60 f   launchAccessor.obj
 0002:00034da0       ?setChildAttribute@launchAccessor@@QAE_NABVQString@@H00@Z 10068da0 f   launchAccessor.obj
 0002:00035250       ?childAttribute@launchAccessor@@QAE?AVQString@@ABV2@H0@Z 10069250 f   launchAccessor.obj
 0002:00035720       ?application@launchAccessor@@QAE?AVQString@@ABV2@H@Z 10069720 f   launchAccessor.obj
 0002:00035800       ?setApplication@launchAccessor@@QAE_NABVQString@@H0@Z 10069800 f   launchAccessor.obj
 0002:000358f0       ?workingdir@launchAccessor@@QAE?AVQString@@ABV2@H@Z 100698f0 f   launchAccessor.obj
 0002:000359d0       ?setWorkingdir@launchAccessor@@QAE_NABVQString@@H0@Z 100699d0 f   launchAccessor.obj
 0002:00035ac0       ?arguments@launchAccessor@@QAE?AVQString@@ABV2@H@Z 10069ac0 f   launchAccessor.obj
 0002:00035ba0       ?setArguments@launchAccessor@@QAE_NABVQString@@H0@Z 10069ba0 f   launchAccessor.obj
 0002:00035c90       ?delay@launchAccessor@@QAEHABVQString@@H@Z 10069c90 f   launchAccessor.obj
 0002:00035db0       ?setDelay@launchAccessor@@QAE_NABVQString@@HH@Z 10069db0 f   launchAccessor.obj
 0002:00035f40       ?roc@launchAccessor@@QAE_NABVQString@@H@Z 10069f40 f   launchAccessor.obj
 0002:00036070       ?setRoc@launchAccessor@@QAE_NABVQString@@H_N@Z 1006a070 f   launchAccessor.obj
 0002:00037c80       ??0?$QValueList@VlaunchItem@@@@QAE@ABV0@@Z 1006bc80 f i launchAccessor.obj
 0002:00037d00       ??0?$QValueList@VlaunchItem@@@@QAE@XZ 1006bd00 f i launchAccessor.obj
 0002:00037df0       ??0?$QValueListIterator@VlaunchItem@@@@QAE@ABV0@@Z 1006bdf0 f i launchAccessor.obj
 0002:00037e40       ??0?$QValueListIterator@VlaunchItem@@@@QAE@PAV?$QValueListNode@VlaunchItem@@@@@Z 1006be40 f i launchAccessor.obj
 0002:00037e90       ??0?$QValueListNode@VlaunchItem@@@@QAE@ABVlaunchItem@@@Z 1006be90 f i launchAccessor.obj
 0002:00037f00       ??0?$QValueListNode@VlaunchItem@@@@QAE@XZ 1006bf00 f i launchAccessor.obj
 0002:00037f80       ??0?$QValueListPrivate@VlaunchItem@@@@QAE@ABV0@@Z 1006bf80 f i launchAccessor.obj
 0002:000381d0       ??0?$QValueListPrivate@VlaunchItem@@@@QAE@XZ 1006c1d0 f i launchAccessor.obj
 0002:00038320       ??0launchAccessor@@QAE@ABV0@@Z 1006c320 f i launchAccessor.obj
 0002:000383f0       ??0launchItem@@QAE@ABV0@@Z 1006c3f0 f i launchAccessor.obj
 0002:00038510       ??0launchItem@@QAE@ABVQString@@00_NH@Z 1006c510 f i launchAccessor.obj
 0002:00038670       ??1?$QValueList@VlaunchItem@@@@QAE@XZ 1006c670 f i launchAccessor.obj
 0002:000386d0       ??1?$QValueListNode@VlaunchItem@@@@UAE@XZ 1006c6d0 f i launchAccessor.obj
 0002:00038730       ??1?$QValueListPrivate@VlaunchItem@@@@UAE@XZ 1006c730 f i launchAccessor.obj
 0002:00038880       ??1launchItem@@QAE@XZ      1006c880 f i launchAccessor.obj
 0002:00038960       ??4launchAccessor@@QAEAAV0@ABV0@@Z 1006c960 f i launchAccessor.obj
 0002:00038a20       ??4launchItem@@QAEAAV0@ABV0@@Z 1006ca20 f i launchAccessor.obj
 0002:00038af0       ??9?$QValueListIterator@VlaunchItem@@@@QBE_NABV0@@Z 1006caf0 f i launchAccessor.obj
 0002:00038b60       ??D?$QValueListIterator@VlaunchItem@@@@QAEAAVlaunchItem@@XZ 1006cb60 f i launchAccessor.obj
 0002:00038ba0       ??E?$QValueListIterator@VlaunchItem@@@@QAE?AV0@H@Z 1006cba0 f i launchAccessor.obj
 0002:00038c50       ??E?$QValueListIterator@VlaunchItem@@@@QAEAAV0@XZ 1006cc50 f i launchAccessor.obj
 0002:00038ca0       ??_ElaunchAccessor@@UAEPAXI@Z 1006cca0 f i launchAccessor.obj
 0002:00038d60       ??_FlaunchItem@@QAEXXZ     1006cd60 f i launchAccessor.obj
 0002:00038dd0       ??_E?$QValueListNode@VlaunchItem@@@@UAEPAXI@Z 1006cdd0 f i launchAccessor.obj
 0002:00038dd0       ??_G?$QValueListNode@VlaunchItem@@@@UAEPAXI@Z 1006cdd0 f i launchAccessor.obj
 0002:00038e40       ??_E?$QValueListPrivate@VlaunchItem@@@@UAEPAXI@Z 1006ce40 f i launchAccessor.obj
 0002:00038e40       ??_G?$QValueListPrivate@VlaunchItem@@@@UAEPAXI@Z 1006ce40 f i launchAccessor.obj
 0002:00038eb0       ??_GlaunchAccessor@@UAEPAXI@Z 1006ceb0 f i launchAccessor.obj
 0002:00038f20       ?append@?$QValueList@VlaunchItem@@@@QAE?AV?$QValueListIterator@VlaunchItem@@@@ABVlaunchItem@@@Z 1006cf20 f i launchAccessor.obj
 0002:00038fa0       ?begin@?$QValueList@VlaunchItem@@@@QAE?AV?$QValueListIterator@VlaunchItem@@@@XZ 1006cfa0 f i launchAccessor.obj
 0002:00039010       ?derefAndDelete@?$QValueListPrivate@VlaunchItem@@@@QAEXXZ 1006d010 f i launchAccessor.obj
 0002:000390e0       ?detach@?$QValueList@VlaunchItem@@@@IAEXXZ 1006d0e0 f i launchAccessor.obj
 0002:00039140       ?detachInternal@?$QValueList@VlaunchItem@@@@AAEXXZ 1006d140 f i launchAccessor.obj
 0002:00039250       ?end@?$QValueList@VlaunchItem@@@@QAE?AV?$QValueListIterator@VlaunchItem@@@@XZ 1006d250 f i launchAccessor.obj
 0002:000392c0       ?insert@?$QValueListPrivate@VlaunchItem@@@@QAE?AV?$QValueListIterator@VlaunchItem@@@@V2@ABVlaunchItem@@@Z 1006d2c0 f i launchAccessor.obj
 0002:00039410       ?load@launchAccessor@@SAPAV1@XZ 1006d410 f i launchAccessor.obj
 0002:00039520       ?metaObject@launchAccessor@@UBEPAVQMetaObject@@XZ 1006d520 f i launchAccessor.obj
 0002:00039570       ?qObject@launchAccessor@@QAEPAVQObject@@XZ 1006d570 f i launchAccessor.obj
 0002:000395b0       ?unload@launchAccessor@@SA_NXZ 1006d5b0 f i launchAccessor.obj
 0002:000396a0       ??0panelsetsAccessor@@QAE@XZ 1006d6a0 f   panelsetsAccessor.obj
 0002:000398e0       ??1panelsetsAccessor@@UAE@XZ 1006d8e0 f   panelsetsAccessor.obj
 0002:000399e0       ?setAttribute@panelsetsAccessor@@AAE_NABVQString@@00@Z 1006d9e0 f   panelsetsAccessor.obj
 0002:00039d10       ?attribute@panelsetsAccessor@@AAE?AVQString@@ABV2@0@Z 1006dd10 f   panelsetsAccessor.obj
 0002:0003a170       ?setDirty@panelsetsAccessor@@AAEXXZ 1006e170 f   panelsetsAccessor.obj
 0002:0003a2d0       ?isDirty@panelsetsAccessor@@QAE_NXZ 1006e2d0 f   panelsetsAccessor.obj
 0002:0003a390       ?lock@panelsetsAccessor@@QAEXXZ 1006e390 f   panelsetsAccessor.obj
 0002:0003a3e0       ?unlock@panelsetsAccessor@@QAEXXZ 1006e3e0 f   panelsetsAccessor.obj
 0002:0003a430       ?version@panelsetsAccessor@@QAENXZ 1006e430 f   panelsetsAccessor.obj
 0002:0003a5c0       ?setVersion@panelsetsAccessor@@QAEXN@Z 1006e5c0 f   panelsetsAccessor.obj
 0002:0003a790       ?item@panelsetsAccessor@@QAE_NABVQString@@AAV2@AAV?$QValueList@VpanelsetItem@@@@AAH@Z 1006e790 f   panelsetsAccessor.obj
 0002:0003ae70       ?nextItem@panelsetsAccessor@@QAE_NAAVQString@@0AAV?$QValueList@VpanelsetItem@@@@@Z 1006ee70 f   panelsetsAccessor.obj
 0002:0003b480       ?insertItem@panelsetsAccessor@@QAE_NABVQString@@ABVpanelsetItem@@H@Z 1006f480 f   panelsetsAccessor.obj
 0002:0003bb10       ?deleteItem@panelsetsAccessor@@QAE_NABVQString@@ABVpanelsetItem@@H@Z 1006fb10 f   panelsetsAccessor.obj
 0002:0003c2d0       ?promoteItem@panelsetsAccessor@@QAE_NABVQString@@ABVpanelsetItem@@H@Z 100702d0 f   panelsetsAccessor.obj
 0002:0003c330       ?demoteItem@panelsetsAccessor@@QAE_NABVQString@@ABVpanelsetItem@@H_N@Z 10070330 f   panelsetsAccessor.obj
 0002:0003cbe0       ?addPanelset@panelsetsAccessor@@QAE_NABVQString@@0ABV?$QValueList@VpanelsetItem@@@@@Z 10070be0 f   panelsetsAccessor.obj
 0002:0003d260       ?deletePanelset@panelsetsAccessor@@QAE_NABVQString@@@Z 10071260 f   panelsetsAccessor.obj
 0002:0003d9a0       ?renamePanelset@panelsetsAccessor@@QAE_NABVQString@@0@Z 100719a0 f   panelsetsAccessor.obj
 0002:0003dd20       ?setCurrent@panelsetsAccessor@@QAE_NABVQString@@@Z 10071d20 f   panelsetsAccessor.obj
 0002:0003dfe0       ?setFirst@panelsetsAccessor@@QAE_NXZ 10071fe0 f   panelsetsAccessor.obj
 0002:0003e120       ?itemPos@panelsetsAccessor@@QAEHABVQString@@ABVpanelsetItem@@@Z 10072120 f   panelsetsAccessor.obj
 0002:0003e7e0       ?exists@panelsetsAccessor@@QAE_NABVQString@@@Z 100727e0 f   panelsetsAccessor.obj
 0002:0003eaf0       ?setUndo@panelsetsAccessor@@QAEX_N@Z 10072af0 f   panelsetsAccessor.obj
 0002:00040050       ??0?$QValueList@VpanelsetItem@@@@QAE@ABV0@@Z 10074050 f i panelsetsAccessor.obj
 0002:000400d0       ??0?$QValueList@VpanelsetItem@@@@QAE@XZ 100740d0 f i panelsetsAccessor.obj
 0002:000401c0       ??0?$QValueListIterator@VpanelsetItem@@@@QAE@ABV0@@Z 100741c0 f i panelsetsAccessor.obj
 0002:00040210       ??0?$QValueListIterator@VpanelsetItem@@@@QAE@PAV?$QValueListNode@VpanelsetItem@@@@@Z 10074210 f i panelsetsAccessor.obj
 0002:00040260       ??0?$QValueListNode@VpanelsetItem@@@@QAE@ABVpanelsetItem@@@Z 10074260 f i panelsetsAccessor.obj
 0002:000402d0       ??0?$QValueListNode@VpanelsetItem@@@@QAE@XZ 100742d0 f i panelsetsAccessor.obj
 0002:00040350       ??0?$QValueListPrivate@VpanelsetItem@@@@QAE@ABV0@@Z 10074350 f i panelsetsAccessor.obj
 0002:000405a0       ??0?$QValueListPrivate@VpanelsetItem@@@@QAE@XZ 100745a0 f i panelsetsAccessor.obj
 0002:000406f0       ??0panelsetItem@@QAE@ABV0@@Z 100746f0 f i panelsetsAccessor.obj
 0002:000407f0       ??0panelsetItem@@QAE@ABVQString@@00@Z 100747f0 f i panelsetsAccessor.obj
 0002:00040930       ??0panelsetsAccessor@@QAE@ABV0@@Z 10074930 f i panelsetsAccessor.obj
 0002:00040a00       ??1?$QValueList@VpanelsetItem@@@@QAE@XZ 10074a00 f i panelsetsAccessor.obj
 0002:00040a60       ??1?$QValueListNode@VpanelsetItem@@@@UAE@XZ 10074a60 f i panelsetsAccessor.obj
 0002:00040ac0       ??1?$QValueListPrivate@VpanelsetItem@@@@UAE@XZ 10074ac0 f i panelsetsAccessor.obj
 0002:00040c10       ??1panelsetItem@@QAE@XZ    10074c10 f i panelsetsAccessor.obj
 0002:00040cf0       ??4panelsetItem@@QAEAAV0@ABV0@@Z 10074cf0 f i panelsetsAccessor.obj
 0002:00040da0       ??4panelsetsAccessor@@QAEAAV0@ABV0@@Z 10074da0 f i panelsetsAccessor.obj
 0002:00040e60       ??9?$QValueListIterator@VpanelsetItem@@@@QBE_NABV0@@Z 10074e60 f i panelsetsAccessor.obj
 0002:00040ed0       ??D?$QValueListIterator@VpanelsetItem@@@@QAEAAVpanelsetItem@@XZ 10074ed0 f i panelsetsAccessor.obj
 0002:00040f10       ??E?$QValueListIterator@VpanelsetItem@@@@QAE?AV0@H@Z 10074f10 f i panelsetsAccessor.obj
 0002:00040fc0       ??E?$QValueListIterator@VpanelsetItem@@@@QAEAAV0@XZ 10074fc0 f i panelsetsAccessor.obj
 0002:00041010       ??_EpanelsetsAccessor@@UAEPAXI@Z 10075010 f i panelsetsAccessor.obj
 0002:000410d0       ??_FpanelsetItem@@QAEXXZ   100750d0 f i panelsetsAccessor.obj
 0002:00041140       ??_E?$QValueListNode@VpanelsetItem@@@@UAEPAXI@Z 10075140 f i panelsetsAccessor.obj
 0002:00041140       ??_G?$QValueListNode@VpanelsetItem@@@@UAEPAXI@Z 10075140 f i panelsetsAccessor.obj
 0002:000411b0       ??_G?$QValueListPrivate@VpanelsetItem@@@@UAEPAXI@Z 100751b0 f i panelsetsAccessor.obj
 0002:000411b0       ??_E?$QValueListPrivate@VpanelsetItem@@@@UAEPAXI@Z 100751b0 f i panelsetsAccessor.obj
 0002:00041220       ??_GpanelsetsAccessor@@UAEPAXI@Z 10075220 f i panelsetsAccessor.obj
 0002:00041290       ?append@?$QValueList@VpanelsetItem@@@@QAE?AV?$QValueListIterator@VpanelsetItem@@@@ABVpanelsetItem@@@Z 10075290 f i panelsetsAccessor.obj
 0002:00041310       ?begin@?$QValueList@VpanelsetItem@@@@QAE?AV?$QValueListIterator@VpanelsetItem@@@@XZ 10075310 f i panelsetsAccessor.obj
 0002:00041380       ?derefAndDelete@?$QValueListPrivate@VpanelsetItem@@@@QAEXXZ 10075380 f i panelsetsAccessor.obj
 0002:00041450       ?detach@?$QValueList@VpanelsetItem@@@@IAEXXZ 10075450 f i panelsetsAccessor.obj
 0002:000414b0       ?detachInternal@?$QValueList@VpanelsetItem@@@@AAEXXZ 100754b0 f i panelsetsAccessor.obj
 0002:000415c0       ?end@?$QValueList@VpanelsetItem@@@@QAE?AV?$QValueListIterator@VpanelsetItem@@@@XZ 100755c0 f i panelsetsAccessor.obj
 0002:00041630       ?insert@?$QValueListPrivate@VpanelsetItem@@@@QAE?AV?$QValueListIterator@VpanelsetItem@@@@V2@ABVpanelsetItem@@@Z 10075630 f i panelsetsAccessor.obj
 0002:00041780       ?load@panelsetsAccessor@@SAPAV1@XZ 10075780 f i panelsetsAccessor.obj
 0002:00041890       ?metaObject@panelsetsAccessor@@UBEPAVQMetaObject@@XZ 10075890 f i panelsetsAccessor.obj
 0002:000418e0       ?qObject@panelsetsAccessor@@QAEPAVQObject@@XZ 100758e0 f i panelsetsAccessor.obj
 0002:00041920       ?unload@panelsetsAccessor@@SA_NXZ 10075920 f i panelsetsAccessor.obj
 0002:00041a10       ??0usersAccessor@@QAE@XZ   10075a10 f   usersAccessor.obj
 0002:00041c50       ??1usersAccessor@@UAE@XZ   10075c50 f   usersAccessor.obj
 0002:00041d50       ?setAttribute@usersAccessor@@AAE_NABVQString@@00@Z 10075d50 f   usersAccessor.obj
 0002:00042080       ?attribute@usersAccessor@@AAE?AVQString@@ABV2@0@Z 10076080 f   usersAccessor.obj
 0002:000424e0       ?setDirty@usersAccessor@@AAEXXZ 100764e0 f   usersAccessor.obj
 0002:00042640       ?lock@usersAccessor@@QAEXXZ 10076640 f   usersAccessor.obj
 0002:00042690       ?unlock@usersAccessor@@QAEXXZ 10076690 f   usersAccessor.obj
 0002:000426e0       ?version@usersAccessor@@QAENXZ 100766e0 f   usersAccessor.obj
 0002:00042870       ?setVersion@usersAccessor@@QAEXN@Z 10076870 f   usersAccessor.obj
 0002:00042a40       ?panelset@usersAccessor@@QAE?AVQString@@ABV2@@Z 10076a40 f   usersAccessor.obj
 0002:00042b10       ?engset@usersAccessor@@QAE?AVQString@@ABV2@@Z 10076b10 f   usersAccessor.obj
 0002:00042be0       ?setPanelset@usersAccessor@@QAE_NABVQString@@0@Z 10076be0 f   usersAccessor.obj
 0002:00042cc0       ?setEngset@usersAccessor@@QAE_NABVQString@@0@Z 10076cc0 f   usersAccessor.obj
 0002:00042da0       ?nextItem@usersAccessor@@QAE_NAAVQString@@00@Z 10076da0 f   usersAccessor.obj
 0002:00043120       ?setFirst@usersAccessor@@QAE_NXZ 10077120 f   usersAccessor.obj
 0002:00043260       ?exists@usersAccessor@@QAE_NABVQString@@@Z 10077260 f   usersAccessor.obj
 0002:00043570       ?isDirty@usersAccessor@@QAE_NXZ 10077570 f   usersAccessor.obj
 0002:00043630       ?setUndo@usersAccessor@@QAEX_N@Z 10077630 f   usersAccessor.obj
 0002:00043d80       ??0usersAccessor@@QAE@ABV0@@Z 10077d80 f i usersAccessor.obj
 0002:00043e50       ??4usersAccessor@@QAEAAV0@ABV0@@Z 10077e50 f i usersAccessor.obj
 0002:00043f10       ??_EusersAccessor@@UAEPAXI@Z 10077f10 f i usersAccessor.obj
 0002:00043fd0       ??_GusersAccessor@@UAEPAXI@Z 10077fd0 f i usersAccessor.obj
 0002:00044040       ?load@usersAccessor@@SAPAV1@XZ 10078040 f i usersAccessor.obj
 0002:00044150       ?metaObject@usersAccessor@@UBEPAVQMetaObject@@XZ 10078150 f i usersAccessor.obj
 0002:000441a0       ?qObject@usersAccessor@@QAEPAVQObject@@XZ 100781a0 f i usersAccessor.obj
 0002:000441e0       ?unload@usersAccessor@@SA_NXZ 100781e0 f i usersAccessor.obj
 0002:000442d0       ??0workstationsAccessor@@QAE@XZ 100782d0 f   workstationsAccessor.obj
 0002:00044510       ??1workstationsAccessor@@UAE@XZ 10078510 f   workstationsAccessor.obj
 0002:00044610       ?setAttribute@workstationsAccessor@@AAE_NABVQString@@00@Z 10078610 f   workstationsAccessor.obj
 0002:00044940       ?attribute@workstationsAccessor@@AAE?AVQString@@ABV2@0@Z 10078940 f   workstationsAccessor.obj
 0002:00044da0       ?setDirty@workstationsAccessor@@AAEXXZ 10078da0 f   workstationsAccessor.obj
 0002:00044f00       ?lock@workstationsAccessor@@QAEXXZ 10078f00 f   workstationsAccessor.obj
 0002:00044f50       ?unlock@workstationsAccessor@@QAEXXZ 10078f50 f   workstationsAccessor.obj
 0002:00044fa0       ?version@workstationsAccessor@@QAENXZ 10078fa0 f   workstationsAccessor.obj
 0002:00045130       ?setVersion@workstationsAccessor@@QAEXN@Z 10079130 f   workstationsAccessor.obj
 0002:00045300       ?name@workstationsAccessor@@QAE?AVQString@@ABV2@@Z 10079300 f   workstationsAccessor.obj
 0002:000453d0       ?user@workstationsAccessor@@QAE?AVQString@@ABV2@@Z 100793d0 f   workstationsAccessor.obj
 0002:000454a0       ?setName@workstationsAccessor@@QAE_NABVQString@@0@Z 100794a0 f   workstationsAccessor.obj
 0002:00045580       ?setUser@workstationsAccessor@@QAE_NABVQString@@0@Z 10079580 f   workstationsAccessor.obj
 0002:00045660       ?addWorkstation@workstationsAccessor@@QAE_NABVQString@@00@Z 10079660 f   workstationsAccessor.obj
 0002:00045920       ?deleteWorkstation@workstationsAccessor@@QAE_NABVQString@@@Z 10079920 f   workstationsAccessor.obj
 0002:00045c70       ?rename@workstationsAccessor@@QAE_NABVQString@@V2@@Z 10079c70 f   workstationsAccessor.obj
 0002:00045d30       ?item@workstationsAccessor@@QAE_NABVQString@@AAV2@1@Z 10079d30 f   workstationsAccessor.obj
 0002:00046190       ?nextItem@workstationsAccessor@@QAE_NAAVQString@@00@Z 1007a190 f   workstationsAccessor.obj
 0002:00046510       ?setCurrent@workstationsAccessor@@QAE_NABVQString@@@Z 1007a510 f   workstationsAccessor.obj
 0002:000467d0       ?setFirst@workstationsAccessor@@QAE_NXZ 1007a7d0 f   workstationsAccessor.obj
 0002:00046910       ?exists@workstationsAccessor@@QAE_NABVQString@@@Z 1007a910 f   workstationsAccessor.obj
 0002:00046c20       ?isDirty@workstationsAccessor@@QAE_NXZ 1007ac20 f   workstationsAccessor.obj
 0002:00046ce0       ?setUndo@workstationsAccessor@@QAEX_N@Z 1007ace0 f   workstationsAccessor.obj
 0002:000477b0       ??0workstationsAccessor@@QAE@ABV0@@Z 1007b7b0 f i workstationsAccessor.obj
 0002:00047880       ??4workstationsAccessor@@QAEAAV0@ABV0@@Z 1007b880 f i workstationsAccessor.obj
 0002:00047940       ??_EworkstationsAccessor@@UAEPAXI@Z 1007b940 f i workstationsAccessor.obj
 0002:00047a00       ??_GworkstationsAccessor@@UAEPAXI@Z 1007ba00 f i workstationsAccessor.obj
 0002:00047a70       ?load@workstationsAccessor@@SAPAV1@XZ 1007ba70 f i workstationsAccessor.obj
 0002:00047b80       ?metaObject@workstationsAccessor@@UBEPAVQMetaObject@@XZ 1007bb80 f i workstationsAccessor.obj
 0002:00047bd0       ?qObject@workstationsAccessor@@QAEPAVQObject@@XZ 1007bbd0 f i workstationsAccessor.obj
 0002:00047c10       ?unload@workstationsAccessor@@SA_NXZ 1007bc10 f i workstationsAccessor.obj
 0002:00047d00       ??0workstationSettingsAccessor@@QAE@XZ 1007bd00 f   workstationSettingsAccessor.obj
 0002:00047f40       ??1workstationSettingsAccessor@@UAE@XZ 1007bf40 f   workstationSettingsAccessor.obj
 0002:00048040       ?setAttribute@workstationSettingsAccessor@@AAE_NABVQString@@00@Z 1007c040 f   workstationSettingsAccessor.obj
 0002:00048370       ?attribute@workstationSettingsAccessor@@AAE?AVQString@@ABV2@0@Z 1007c370 f   workstationSettingsAccessor.obj
 0002:000487d0       ?setDirty@workstationSettingsAccessor@@AAEXXZ 1007c7d0 f   workstationSettingsAccessor.obj
 0002:00048930       ?isDirty@workstationSettingsAccessor@@QAE_NXZ 1007c930 f   workstationSettingsAccessor.obj
 0002:000489f0       ?lock@workstationSettingsAccessor@@QAEXXZ 1007c9f0 f   workstationSettingsAccessor.obj
 0002:00048a40       ?unlock@workstationSettingsAccessor@@QAEXXZ 1007ca40 f   workstationSettingsAccessor.obj
 0002:00048a90       ?version@workstationSettingsAccessor@@QAENXZ 1007ca90 f   workstationSettingsAccessor.obj
 0002:00048c20       ?setVersion@workstationSettingsAccessor@@QAEXN@Z 1007cc20 f   workstationSettingsAccessor.obj
 0002:00048df0       ?item@workstationSettingsAccessor@@QAE_NABVQString@@AAV?$QValueList@VworkstationSettingsItem@@@@@Z 1007cdf0 f   workstationSettingsAccessor.obj
 0002:00049390       ?nextItem@workstationSettingsAccessor@@QAE_NAAVQString@@AAV?$QValueList@VworkstationSettingsItem@@@@@Z 1007d390 f   workstationSettingsAccessor.obj
 0002:00049850       ?insertItem@workstationSettingsAccessor@@QAE_NABVQString@@ABVworkstationSettingsItem@@@Z 1007d850 f   workstationSettingsAccessor.obj
 0002:00049cf0       ?deleteItem@workstationSettingsAccessor@@QAE_NABVQString@@ABVworkstationSettingsItem@@@Z 1007dcf0 f   workstationSettingsAccessor.obj
 0002:0004a260       ?addWorkstation@workstationSettingsAccessor@@QAE_NABVQString@@ABV?$QValueList@VworkstationSettingsItem@@@@@Z 1007e260 f   workstationSettingsAccessor.obj
 0002:0004a8a0       ?deleteWorkstation@workstationSettingsAccessor@@QAE_NABVQString@@@Z 1007e8a0 f   workstationSettingsAccessor.obj
 0002:0004aec0       ?renameWorkstation@workstationSettingsAccessor@@QAE_NABVQString@@0@Z 1007eec0 f   workstationSettingsAccessor.obj
 0002:0004b240       ?value@workstationSettingsAccessor@@QAE?AVQString@@ABV2@0@Z 1007f240 f   workstationSettingsAccessor.obj
 0002:0004b7f0       ?setValue@workstationSettingsAccessor@@QAE_NABVQString@@00@Z 1007f7f0 f   workstationSettingsAccessor.obj
 0002:0004bd90       ?setCurrent@workstationSettingsAccessor@@QAE_NABVQString@@@Z 1007fd90 f   workstationSettingsAccessor.obj
 0002:0004c050       ?setFirst@workstationSettingsAccessor@@QAE_NXZ 10080050 f   workstationSettingsAccessor.obj
 0002:0004c190       ?exists@workstationSettingsAccessor@@QAE_NABVQString@@@Z 10080190 f   workstationSettingsAccessor.obj
 0002:0004c4a0       ?exists@workstationSettingsAccessor@@QAE_NABVQString@@0@Z 100804a0 f   workstationSettingsAccessor.obj
 0002:0004c9d0       ?setUndo@workstationSettingsAccessor@@QAEX_N@Z 100809d0 f   workstationSettingsAccessor.obj
 0002:0004dd50       ??0?$QValueList@VworkstationSettingsItem@@@@QAE@ABV0@@Z 10081d50 f i workstationSettingsAccessor.obj
 0002:0004ddd0       ??0?$QValueList@VworkstationSettingsItem@@@@QAE@XZ 10081dd0 f i workstationSettingsAccessor.obj
 0002:0004dec0       ??0?$QValueListIterator@VworkstationSettingsItem@@@@QAE@ABV0@@Z 10081ec0 f i workstationSettingsAccessor.obj
 0002:0004df10       ??0?$QValueListIterator@VworkstationSettingsItem@@@@QAE@PAV?$QValueListNode@VworkstationSettingsItem@@@@@Z 10081f10 f i workstationSettingsAccessor.obj
 0002:0004df60       ??0?$QValueListNode@VworkstationSettingsItem@@@@QAE@ABVworkstationSettingsItem@@@Z 10081f60 f i workstationSettingsAccessor.obj
 0002:0004dfd0       ??0?$QValueListNode@VworkstationSettingsItem@@@@QAE@XZ 10081fd0 f i workstationSettingsAccessor.obj
 0002:0004e050       ??0?$QValueListPrivate@VworkstationSettingsItem@@@@QAE@ABV0@@Z 10082050 f i workstationSettingsAccessor.obj
 0002:0004e2a0       ??0?$QValueListPrivate@VworkstationSettingsItem@@@@QAE@XZ 100822a0 f i workstationSettingsAccessor.obj
 0002:0004e3f0       ??0workstationSettingsAccessor@@QAE@ABV0@@Z 100823f0 f i workstationSettingsAccessor.obj
 0002:0004e4c0       ??0workstationSettingsItem@@QAE@ABV0@@Z 100824c0 f i workstationSettingsAccessor.obj
 0002:0004e590       ??0workstationSettingsItem@@QAE@ABVQString@@0@Z 10082590 f i workstationSettingsAccessor.obj
 0002:0004e6a0       ??1?$QValueList@VworkstationSettingsItem@@@@QAE@XZ 100826a0 f i workstationSettingsAccessor.obj
 0002:0004e700       ??1?$QValueListNode@VworkstationSettingsItem@@@@UAE@XZ 10082700 f i workstationSettingsAccessor.obj
 0002:0004e760       ??1?$QValueListPrivate@VworkstationSettingsItem@@@@UAE@XZ 10082760 f i workstationSettingsAccessor.obj
 0002:0004e8b0       ??1workstationSettingsItem@@QAE@XZ 100828b0 f i workstationSettingsAccessor.obj
 0002:0004e970       ??4workstationSettingsAccessor@@QAEAAV0@ABV0@@Z 10082970 f i workstationSettingsAccessor.obj
 0002:0004ea30       ??4workstationSettingsItem@@QAEAAV0@ABV0@@Z 10082a30 f i workstationSettingsAccessor.obj
 0002:0004eac0       ??9?$QValueListIterator@VworkstationSettingsItem@@@@QBE_NABV0@@Z 10082ac0 f i workstationSettingsAccessor.obj
 0002:0004eb30       ??D?$QValueListIterator@VworkstationSettingsItem@@@@QAEAAVworkstationSettingsItem@@XZ 10082b30 f i workstationSettingsAccessor.obj
 0002:0004eb70       ??E?$QValueListIterator@VworkstationSettingsItem@@@@QAE?AV0@H@Z 10082b70 f i workstationSettingsAccessor.obj
 0002:0004ec20       ??E?$QValueListIterator@VworkstationSettingsItem@@@@QAEAAV0@XZ 10082c20 f i workstationSettingsAccessor.obj
 0002:0004ec70       ??_EworkstationSettingsAccessor@@UAEPAXI@Z 10082c70 f i workstationSettingsAccessor.obj
 0002:0004ed30       ??_FworkstationSettingsItem@@QAEXXZ 10082d30 f i workstationSettingsAccessor.obj
 0002:0004ed90       ??_E?$QValueListNode@VworkstationSettingsItem@@@@UAEPAXI@Z 10082d90 f i workstationSettingsAccessor.obj
 0002:0004ed90       ??_G?$QValueListNode@VworkstationSettingsItem@@@@UAEPAXI@Z 10082d90 f i workstationSettingsAccessor.obj
 0002:0004ee00       ??_G?$QValueListPrivate@VworkstationSettingsItem@@@@UAEPAXI@Z 10082e00 f i workstationSettingsAccessor.obj
 0002:0004ee00       ??_E?$QValueListPrivate@VworkstationSettingsItem@@@@UAEPAXI@Z 10082e00 f i workstationSettingsAccessor.obj
 0002:0004ee70       ??_GworkstationSettingsAccessor@@UAEPAXI@Z 10082e70 f i workstationSettingsAccessor.obj
 0002:0004eee0       ?append@?$QValueList@VworkstationSettingsItem@@@@QAE?AV?$QValueListIterator@VworkstationSettingsItem@@@@ABVworkstationSettingsItem@@@Z 10082ee0 f i workstationSettingsAccessor.obj
 0002:0004ef60       ?begin@?$QValueList@VworkstationSettingsItem@@@@QAE?AV?$QValueListIterator@VworkstationSettingsItem@@@@XZ 10082f60 f i workstationSettingsAccessor.obj
 0002:0004efd0       ?derefAndDelete@?$QValueListPrivate@VworkstationSettingsItem@@@@QAEXXZ 10082fd0 f i workstationSettingsAccessor.obj
 0002:0004f0a0       ?detach@?$QValueList@VworkstationSettingsItem@@@@IAEXXZ 100830a0 f i workstationSettingsAccessor.obj
 0002:0004f100       ?detachInternal@?$QValueList@VworkstationSettingsItem@@@@AAEXXZ 10083100 f i workstationSettingsAccessor.obj
 0002:0004f210       ?end@?$QValueList@VworkstationSettingsItem@@@@QAE?AV?$QValueListIterator@VworkstationSettingsItem@@@@XZ 10083210 f i workstationSettingsAccessor.obj
 0002:0004f280       ?insert@?$QValueListPrivate@VworkstationSettingsItem@@@@QAE?AV?$QValueListIterator@VworkstationSettingsItem@@@@V2@ABVworkstationSettingsItem@@@Z 10083280 f i workstationSettingsAccessor.obj
 0002:0004f3d0       ?load@workstationSettingsAccessor@@SAPAV1@XZ 100833d0 f i workstationSettingsAccessor.obj
 0002:0004f4e0       ?metaObject@workstationSettingsAccessor@@UBEPAVQMetaObject@@XZ 100834e0 f i workstationSettingsAccessor.obj
 0002:0004f530       ?qObject@workstationSettingsAccessor@@QAEPAVQObject@@XZ 10083530 f i workstationSettingsAccessor.obj
 0002:0004f570       ?unload@workstationSettingsAccessor@@SA_NXZ 10083570 f i workstationSettingsAccessor.obj
 0002:0004f660       ?className@applicationsAccessor@@UBEPBDXZ 10083660 f   moc_applicationsAccessor.obj
 0002:0004f690       ?qt_cast@applicationsAccessor@@UAEPAXPBD@Z 10083690 f   moc_applicationsAccessor.obj
 0002:0004f710       ?qt_invoke@applicationsAccessor@@UAE_NHPAUQUObject@@@Z 10083710 f   moc_applicationsAccessor.obj
 0002:0004f770       ?qt_emit@applicationsAccessor@@UAE_NHPAUQUObject@@@Z 10083770 f   moc_applicationsAccessor.obj
 0002:0004fa80       ?qt_property@applicationsAccessor@@UAE_NHHPAVQVariant@@@Z 10083a80 f   moc_applicationsAccessor.obj
 0002:0004fae0       ?qt_static_property@applicationsAccessor@@SA_NPAVQObject@@HHPAVQVariant@@@Z 10083ae0 f   moc_applicationsAccessor.obj
 0002:0004fb10       ?staticMetaObject@applicationsAccessor@@SAPAVQMetaObject@@XZ 10083b10 f   moc_applicationsAccessor.obj
 0002:0004fee0       ?tr@applicationsAccessor@@SA?AVQString@@PBD0@Z 10083ee0 f   moc_applicationsAccessor.obj
 0002:0004ffa0       ?trUtf8@applicationsAccessor@@SA?AVQString@@PBD0@Z 10083fa0 f   moc_applicationsAccessor.obj
 0002:00050060       ?captionChanged@applicationsAccessor@@IAEXABVQString@@0@Z 10084060 f   moc_applicationsAccessor.obj
 0002:000501e0       ?titleChanged@applicationsAccessor@@IAEXABVQString@@0@Z 100841e0 f   moc_applicationsAccessor.obj
 0002:00050360       ?typeChanged@applicationsAccessor@@IAEXABVQString@@0@Z 10084360 f   moc_applicationsAccessor.obj
 0002:000504e0       ?iconChanged@applicationsAccessor@@IAEXABVQString@@0@Z 100844e0 f   moc_applicationsAccessor.obj
 0002:00050660       ?itemAdded@applicationsAccessor@@IAEXABVQString@@0000@Z 10084660 f   moc_applicationsAccessor.obj
 0002:00050850       ?itemDeleted@applicationsAccessor@@IAEXABVQString@@@Z 10084850 f   moc_applicationsAccessor.obj
 0002:00050920       ?itemRenamed@applicationsAccessor@@IAEXABVQString@@0@Z 10084920 f   moc_applicationsAccessor.obj
 0002:00050aa0       ?dirty@applicationsAccessor@@IAEX_N@Z 10084aa0 f   moc_applicationsAccessor.obj
 0002:00051040       ?className@launchAccessor@@UBEPBDXZ 10085040 f   moc_launchAccessor.obj
 0002:00051070       ?qt_cast@launchAccessor@@UAEPAXPBD@Z 10085070 f   moc_launchAccessor.obj
 0002:000510f0       ?qt_invoke@launchAccessor@@UAE_NHPAUQUObject@@@Z 100850f0 f   moc_launchAccessor.obj
 0002:00051150       ?qt_emit@launchAccessor@@UAE_NHPAUQUObject@@@Z 10085150 f   moc_launchAccessor.obj
 0002:00051730       ?qt_property@launchAccessor@@UAE_NHHPAVQVariant@@@Z 10085730 f   moc_launchAccessor.obj
 0002:00051790       ?qt_static_property@launchAccessor@@SA_NPAVQObject@@HHPAVQVariant@@@Z 10085790 f   moc_launchAccessor.obj
 0002:000517c0       ?staticMetaObject@launchAccessor@@SAPAVQMetaObject@@XZ 100857c0 f   moc_launchAccessor.obj
 0002:00051f10       ?tr@launchAccessor@@SA?AVQString@@PBD0@Z 10085f10 f   moc_launchAccessor.obj
 0002:00051fd0       ?trUtf8@launchAccessor@@SA?AVQString@@PBD0@Z 10085fd0 f   moc_launchAccessor.obj
 0002:00052090       ?launchAdded@launchAccessor@@IAEXABVQString@@0_NABV?$QValueList@VlaunchItem@@@@@Z 10086090 f   moc_launchAccessor.obj
 0002:00052260       ?launchRenamed@launchAccessor@@IAEXABVQString@@0@Z 10086260 f   moc_launchAccessor.obj
 0002:000523e0       ?launchDeleted@launchAccessor@@IAEXABVQString@@0_NABV?$QValueList@VlaunchItem@@@@@Z 100863e0 f   moc_launchAccessor.obj
 0002:000525b0       ?itemAdded@launchAccessor@@IAEXABVQString@@ABVlaunchItem@@H@Z 100865b0 f   moc_launchAccessor.obj
 0002:00052760       ?itemDeleted@launchAccessor@@IAEXABVQString@@ABVlaunchItem@@H@Z 10086760 f   moc_launchAccessor.obj
 0002:00052910       ?itemPromoted@launchAccessor@@IAEXABVQString@@H@Z 10086910 f   moc_launchAccessor.obj
 0002:00052a90       ?itemDemoted@launchAccessor@@IAEXABVQString@@H@Z 10086a90 f   moc_launchAccessor.obj
 0002:00052c10       ?dirty@launchAccessor@@IAEX_N@Z 10086c10 f   moc_launchAccessor.obj
 0002:00052c80       ?csiChanged@launchAccessor@@IAEXABVQString@@0@Z 10086c80 f   moc_launchAccessor.obj
 0002:00052e00       ?rocChanged@launchAccessor@@IAEXABVQString@@_N@Z 10086e00 f   moc_launchAccessor.obj
 0002:00052f90       ?applicationChanged@launchAccessor@@IAEXABVQString@@H0@Z 10086f90 f   moc_launchAccessor.obj
 0002:00053140       ?workingdirChanged@launchAccessor@@IAEXABVQString@@H0@Z 10087140 f   moc_launchAccessor.obj
 0002:000532f0       ?argumentsChanged@launchAccessor@@IAEXABVQString@@H0@Z 100872f0 f   moc_launchAccessor.obj
 0002:000534a0       ?delayChanged@launchAccessor@@IAEXABVQString@@HH@Z 100874a0 f   moc_launchAccessor.obj
 0002:00053fd0       ?className@panelsetsAccessor@@UBEPBDXZ 10087fd0 f   moc_panelsetsAccessor.obj
 0002:00054000       ?qt_cast@panelsetsAccessor@@UAEPAXPBD@Z 10088000 f   moc_panelsetsAccessor.obj
 0002:00054080       ?qt_invoke@panelsetsAccessor@@UAE_NHPAUQUObject@@@Z 10088080 f   moc_panelsetsAccessor.obj
 0002:000540e0       ?qt_emit@panelsetsAccessor@@UAE_NHPAUQUObject@@@Z 100880e0 f   moc_panelsetsAccessor.obj
 0002:00054470       ?qt_property@panelsetsAccessor@@UAE_NHHPAVQVariant@@@Z 10088470 f   moc_panelsetsAccessor.obj
 0002:000544d0       ?qt_static_property@panelsetsAccessor@@SA_NPAVQObject@@HHPAVQVariant@@@Z 100884d0 f   moc_panelsetsAccessor.obj
 0002:00054500       ?staticMetaObject@panelsetsAccessor@@SAPAVQMetaObject@@XZ 10088500 f   moc_panelsetsAccessor.obj
 0002:00054960       ?tr@panelsetsAccessor@@SA?AVQString@@PBD0@Z 10088960 f   moc_panelsetsAccessor.obj
 0002:00054a20       ?trUtf8@panelsetsAccessor@@SA?AVQString@@PBD0@Z 10088a20 f   moc_panelsetsAccessor.obj
 0002:00054ae0       ?panelsetAdded@panelsetsAccessor@@IAEXABVQString@@0ABV?$QValueList@VpanelsetItem@@@@@Z 10088ae0 f   moc_panelsetsAccessor.obj
 0002:00054c90       ?panelsetRenamed@panelsetsAccessor@@IAEXABVQString@@0@Z 10088c90 f   moc_panelsetsAccessor.obj
 0002:00054e10       ?panelsetDeleted@panelsetsAccessor@@IAEXABVQString@@0ABV?$QValueList@VpanelsetItem@@@@@Z 10088e10 f   moc_panelsetsAccessor.obj
 0002:00054fc0       ?itemAdded@panelsetsAccessor@@IAEXABVQString@@ABVpanelsetItem@@H@Z 10088fc0 f   moc_panelsetsAccessor.obj
 0002:00055170       ?itemDeleted@panelsetsAccessor@@IAEXABVQString@@ABVpanelsetItem@@H@Z 10089170 f   moc_panelsetsAccessor.obj
 0002:00055320       ?itemPromoted@panelsetsAccessor@@IAEXABVQString@@ABVpanelsetItem@@H@Z 10089320 f   moc_panelsetsAccessor.obj
 0002:000554d0       ?itemDemoted@panelsetsAccessor@@IAEXABVQString@@ABVpanelsetItem@@H@Z 100894d0 f   moc_panelsetsAccessor.obj
 0002:00055680       ?dirty@panelsetsAccessor@@IAEX_N@Z 10089680 f   moc_panelsetsAccessor.obj
 0002:00055cb0       ?className@usersAccessor@@UBEPBDXZ 10089cb0 f   moc_usersAccessor.obj
 0002:00055ce0       ?qt_cast@usersAccessor@@UAEPAXPBD@Z 10089ce0 f   moc_usersAccessor.obj
 0002:00055d60       ?qt_invoke@usersAccessor@@UAE_NHPAUQUObject@@@Z 10089d60 f   moc_usersAccessor.obj
 0002:00055dc0       ?qt_emit@usersAccessor@@UAE_NHPAUQUObject@@@Z 10089dc0 f   moc_usersAccessor.obj
 0002:00056000       ?qt_property@usersAccessor@@UAE_NHHPAVQVariant@@@Z 1008a000 f   moc_usersAccessor.obj
 0002:00056060       ?qt_static_property@usersAccessor@@SA_NPAVQObject@@HHPAVQVariant@@@Z 1008a060 f   moc_usersAccessor.obj
 0002:00056090       ?staticMetaObject@usersAccessor@@SAPAVQMetaObject@@XZ 1008a090 f   moc_usersAccessor.obj
 0002:00056350       ?tr@usersAccessor@@SA?AVQString@@PBD0@Z 1008a350 f   moc_usersAccessor.obj
 0002:00056410       ?trUtf8@usersAccessor@@SA?AVQString@@PBD0@Z 1008a410 f   moc_usersAccessor.obj
 0002:000564d0       ?panelsetChanged@usersAccessor@@IAEXABVQString@@0@Z 1008a4d0 f   moc_usersAccessor.obj
 0002:00056650       ?engsetChanged@usersAccessor@@IAEXABVQString@@0@Z 1008a650 f   moc_usersAccessor.obj
 0002:000567d0       ?itemAdded@usersAccessor@@IAEXABVQString@@00@Z 1008a7d0 f   moc_usersAccessor.obj
 0002:00056980       ?itemDeleted@usersAccessor@@IAEXABVQString@@@Z 1008a980 f   moc_usersAccessor.obj
 0002:00056a50       ?itemRenamed@usersAccessor@@IAEXABVQString@@0@Z 1008aa50 f   moc_usersAccessor.obj
 0002:00056bd0       ?dirty@usersAccessor@@IAEX_N@Z 1008abd0 f   moc_usersAccessor.obj
 0002:00057020       ?className@workstationsAccessor@@UBEPBDXZ 1008b020 f   moc_workstationsAccessor.obj
 0002:00057050       ?qt_cast@workstationsAccessor@@UAEPAXPBD@Z 1008b050 f   moc_workstationsAccessor.obj
 0002:000570d0       ?qt_invoke@workstationsAccessor@@UAE_NHPAUQUObject@@@Z 1008b0d0 f   moc_workstationsAccessor.obj
 0002:00057130       ?qt_emit@workstationsAccessor@@UAE_NHPAUQUObject@@@Z 1008b130 f   moc_workstationsAccessor.obj
 0002:00057370       ?qt_property@workstationsAccessor@@UAE_NHHPAVQVariant@@@Z 1008b370 f   moc_workstationsAccessor.obj
 0002:000573d0       ?qt_static_property@workstationsAccessor@@SA_NPAVQObject@@HHPAVQVariant@@@Z 1008b3d0 f   moc_workstationsAccessor.obj
 0002:00057400       ?staticMetaObject@workstationsAccessor@@SAPAVQMetaObject@@XZ 1008b400 f   moc_workstationsAccessor.obj
 0002:000576c0       ?tr@workstationsAccessor@@SA?AVQString@@PBD0@Z 1008b6c0 f   moc_workstationsAccessor.obj
 0002:00057780       ?trUtf8@workstationsAccessor@@SA?AVQString@@PBD0@Z 1008b780 f   moc_workstationsAccessor.obj
 0002:00057840       ?nameChanged@workstationsAccessor@@IAEXABVQString@@0@Z 1008b840 f   moc_workstationsAccessor.obj
 0002:000579c0       ?userChanged@workstationsAccessor@@IAEXABVQString@@0@Z 1008b9c0 f   moc_workstationsAccessor.obj
 0002:00057b40       ?itemAdded@workstationsAccessor@@IAEXABVQString@@00@Z 1008bb40 f   moc_workstationsAccessor.obj
 0002:00057cf0       ?itemDeleted@workstationsAccessor@@IAEXABVQString@@@Z 1008bcf0 f   moc_workstationsAccessor.obj
 0002:00057dc0       ?itemRenamed@workstationsAccessor@@IAEXABVQString@@0@Z 1008bdc0 f   moc_workstationsAccessor.obj
 0002:00057f40       ?dirty@workstationsAccessor@@IAEX_N@Z 1008bf40 f   moc_workstationsAccessor.obj
 0002:00058390       ?className@workstationSettingsAccessor@@UBEPBDXZ 1008c390 f   moc_workstationSettingsAccessor.obj
 0002:000583c0       ?qt_cast@workstationSettingsAccessor@@UAEPAXPBD@Z 1008c3c0 f   moc_workstationSettingsAccessor.obj
 0002:00058440       ?qt_invoke@workstationSettingsAccessor@@UAE_NHPAUQUObject@@@Z 1008c440 f   moc_workstationSettingsAccessor.obj
 0002:000584a0       ?qt_emit@workstationSettingsAccessor@@UAE_NHPAUQUObject@@@Z 1008c4a0 f   moc_workstationSettingsAccessor.obj
 0002:000586e0       ?qt_property@workstationSettingsAccessor@@UAE_NHHPAVQVariant@@@Z 1008c6e0 f   moc_workstationSettingsAccessor.obj
 0002:00058740       ?qt_static_property@workstationSettingsAccessor@@SA_NPAVQObject@@HHPAVQVariant@@@Z 1008c740 f   moc_workstationSettingsAccessor.obj
 0002:00058770       ?staticMetaObject@workstationSettingsAccessor@@SAPAVQMetaObject@@XZ 1008c770 f   moc_workstationSettingsAccessor.obj
 0002:00058a30       ?tr@workstationSettingsAccessor@@SA?AVQString@@PBD0@Z 1008ca30 f   moc_workstationSettingsAccessor.obj
 0002:00058af0       ?trUtf8@workstationSettingsAccessor@@SA?AVQString@@PBD0@Z 1008caf0 f   moc_workstationSettingsAccessor.obj
 0002:00058bb0       ?workstationAdded@workstationSettingsAccessor@@IAEXABVQString@@ABV?$QValueList@VworkstationSettingsItem@@@@@Z 1008cbb0 f   moc_workstationSettingsAccessor.obj
 0002:00058d30       ?workstationRenamed@workstationSettingsAccessor@@IAEXABVQString@@0@Z 1008cd30 f   moc_workstationSettingsAccessor.obj
 0002:00058eb0       ?workstationDeleted@workstationSettingsAccessor@@IAEXABVQString@@ABV?$QValueList@VworkstationSettingsItem@@@@@Z 1008ceb0 f   moc_workstationSettingsAccessor.obj
 0002:00059030       ?itemAdded@workstationSettingsAccessor@@IAEXABVQString@@ABVworkstationSettingsItem@@@Z 1008d030 f   moc_workstationSettingsAccessor.obj
 0002:000591b0       ?itemDeleted@workstationSettingsAccessor@@IAEXABVQString@@ABVworkstationSettingsItem@@@Z 1008d1b0 f   moc_workstationSettingsAccessor.obj
 0002:00059330       ?dirty@workstationSettingsAccessor@@IAEX_N@Z 1008d330 f   moc_workstationSettingsAccessor.obj
 0002:0005979c       ??0QString@@QAE@ABV0@@Z    1008d79c f   qt-mt323:qt-mt323.dll
 0002:000597a2       ??0QString@@QAE@PBD@Z      1008d7a2 f   qt-mt323:qt-mt323.dll
 0002:000597a8       ??1QString@@QAE@XZ         1008d7a8 f   qt-mt323:qt-mt323.dll
 0002:000597ae       ??4QString@@QAEAAV0@ABV0@@Z 1008d7ae f   qt-mt323:qt-mt323.dll
 0002:000597b4       ?arg@QString@@QBE?AV1@NHDH@Z 1008d7b4 f   qt-mt323:qt-mt323.dll
 0002:000597ba       ?toDouble@QString@@QBENPA_N@Z 1008d7ba f   qt-mt323:qt-mt323.dll
 0002:000597c0       ??8@YA_NABVQString@@0@Z    1008d7c0 f   qt-mt323:qt-mt323.dll
 0002:000597c6       ??0QObject@@QAE@PAV0@PBD@Z 1008d7c6 f   qt-mt323:qt-mt323.dll
 0002:000597cc       ??1QObject@@UAE@XZ         1008d7cc f   qt-mt323:qt-mt323.dll
 0002:000597d2       ??0QObject@@QAE@ABV0@@Z    1008d7d2 f   qt-mt323:qt-mt323.dll
 0002:000597d8       ??4QObject@@QAEAAV0@ABV0@@Z 1008d7d8 f   qt-mt323:qt-mt323.dll
 0002:000597de       ??0QMutex@@QAE@_N@Z        1008d7de f   qt-mt323:qt-mt323.dll
 0002:000597e4       ??1QMutex@@UAE@XZ          1008d7e4 f   qt-mt323:qt-mt323.dll
 0002:000597ea       ?lock@QMutex@@QAEXXZ       1008d7ea f   qt-mt323:qt-mt323.dll
 0002:000597f0       ?unlock@QMutex@@QAEXXZ     1008d7f0 f   qt-mt323:qt-mt323.dll
 0002:000597f6       ??0QMutex@@QAE@ABV0@@Z     1008d7f6 f   qt-mt323:qt-mt323.dll
 0002:000597fc       ??4QMutex@@QAEAAV0@ABV0@@Z 1008d7fc f   qt-mt323:qt-mt323.dll
 0002:00059802       ??0QDomNode@@QAE@XZ        1008d802 f   qt-mt323:qt-mt323.dll
 0002:00059808       ??4QDomNode@@QAEAAV0@ABV0@@Z 1008d808 f   qt-mt323:qt-mt323.dll
 0002:0005980e       ??1QDomNode@@UAE@XZ        1008d80e f   qt-mt323:qt-mt323.dll
 0002:00059814       ?removeChild@QDomNode@@UAE?AV1@ABV1@@Z 1008d814 f   qt-mt323:qt-mt323.dll
 0002:0005981a       ?appendChild@QDomNode@@UAE?AV1@ABV1@@Z 1008d81a f   qt-mt323:qt-mt323.dll
 0002:00059820       ?firstChild@QDomNode@@UBE?AV1@XZ 1008d820 f   qt-mt323:qt-mt323.dll
 0002:00059826       ?nextSibling@QDomNode@@UBE?AV1@XZ 1008d826 f   qt-mt323:qt-mt323.dll
 0002:0005982c       ?isNull@QDomNode@@QBE_NXZ  1008d82c f   qt-mt323:qt-mt323.dll
 0002:00059832       ?toElement@QDomNode@@QAE?AVQDomElement@@XZ 1008d832 f   qt-mt323:qt-mt323.dll
 0002:00059838       ?createElement@QDomDocument@@QAE?AVQDomElement@@ABVQString@@@Z 1008d838 f   qt-mt323:qt-mt323.dll
 0002:0005983e       ?documentElement@QDomDocument@@QBE?AVQDomElement@@XZ 1008d83e f   qt-mt323:qt-mt323.dll
 0002:00059844       ??1QDomElement@@UAE@XZ     1008d844 f   qt-mt323:qt-mt323.dll
 0002:0005984a       ?attribute@QDomElement@@QBE?AVQString@@ABV2@0@Z 1008d84a f   qt-mt323:qt-mt323.dll
 0002:00059850       ?setAttribute@QDomElement@@QAEXABVQString@@0@Z 1008d850 f   qt-mt323:qt-mt323.dll
 0002:00059856       ?attributes@QDomNode@@UBE?AVQDomNamedNodeMap@@XZ 1008d856 f   qt-mt323:qt-mt323.dll
 0002:0005985c       ?checkConnectArgs@QObject@@MAE_NPBDPBV1@0@Z 1008d85c f   qt-mt323:qt-mt323.dll
 0002:00059862       ?childEvent@QObject@@MAEXPAVQChildEvent@@@Z 1008d862 f   qt-mt323:qt-mt323.dll
 0002:00059868       ?childNodes@QDomNode@@UBE?AVQDomNodeList@@XZ 1008d868 f   qt-mt323:qt-mt323.dll
 0002:0005986e       ?cloneNode@QDomNode@@UBE?AV1@_N@Z 1008d86e f   qt-mt323:qt-mt323.dll
 0002:00059874       ?connectNotify@QObject@@MAEXPBD@Z 1008d874 f   qt-mt323:qt-mt323.dll
 0002:0005987a       ?customEvent@QObject@@MAEXPAVQCustomEvent@@@Z 1008d87a f   qt-mt323:qt-mt323.dll
 0002:00059880       ?disconnectNotify@QObject@@MAEXPBD@Z 1008d880 f   qt-mt323:qt-mt323.dll
 0002:00059886       ?event@QObject@@UAE_NPAVQEvent@@@Z 1008d886 f   qt-mt323:qt-mt323.dll
 0002:0005988c       ?eventFilter@QObject@@UAE_NPAV1@PAVQEvent@@@Z 1008d88c f   qt-mt323:qt-mt323.dll
 0002:00059892       ?hasAttributes@QDomNode@@UBE_NXZ 1008d892 f   qt-mt323:qt-mt323.dll
 0002:00059898       ?hasChildNodes@QDomNode@@UBE_NXZ 1008d898 f   qt-mt323:qt-mt323.dll
 0002:0005989e       ?insertAfter@QDomNode@@UAE?AV1@ABV1@0@Z 1008d89e f   qt-mt323:qt-mt323.dll
 0002:000598a4       ?insertBefore@QDomNode@@UAE?AV1@ABV1@0@Z 1008d8a4 f   qt-mt323:qt-mt323.dll
 0002:000598aa       ?insertChild@QObject@@UAEXPAV1@@Z 1008d8aa f   qt-mt323:qt-mt323.dll
 0002:000598b0       ?isAttr@QDomNode@@UBE_NXZ  1008d8b0 f   qt-mt323:qt-mt323.dll
 0002:000598b6       ?isCDATASection@QDomNode@@UBE_NXZ 1008d8b6 f   qt-mt323:qt-mt323.dll
 0002:000598bc       ?isCharacterData@QDomNode@@UBE_NXZ 1008d8bc f   qt-mt323:qt-mt323.dll
 0002:000598c2       ?isComment@QDomNode@@UBE_NXZ 1008d8c2 f   qt-mt323:qt-mt323.dll
 0002:000598c8       ?isDocument@QDomNode@@UBE_NXZ 1008d8c8 f   qt-mt323:qt-mt323.dll
 0002:000598ce       ?isDocumentFragment@QDomNode@@UBE_NXZ 1008d8ce f   qt-mt323:qt-mt323.dll
 0002:000598d4       ?isDocumentType@QDomNode@@UBE_NXZ 1008d8d4 f   qt-mt323:qt-mt323.dll
 0002:000598da       ?isElement@QDomNode@@UBE_NXZ 1008d8da f   qt-mt323:qt-mt323.dll
 0002:000598e0       ?isEntity@QDomNode@@UBE_NXZ 1008d8e0 f   qt-mt323:qt-mt323.dll
 0002:000598e6       ?isEntityReference@QDomNode@@UBE_NXZ 1008d8e6 f   qt-mt323:qt-mt323.dll
 0002:000598ec       ?isNotation@QDomNode@@UBE_NXZ 1008d8ec f   qt-mt323:qt-mt323.dll
 0002:000598f2       ?isProcessingInstruction@QDomNode@@UBE_NXZ 1008d8f2 f   qt-mt323:qt-mt323.dll
 0002:000598f8       ?isSupported@QDomNode@@UBE_NABVQString@@0@Z 1008d8f8 f   qt-mt323:qt-mt323.dll
 0002:000598fe       ?isText@QDomNode@@UBE_NXZ  1008d8fe f   qt-mt323:qt-mt323.dll
 0002:00059904       ?lastChild@QDomNode@@UBE?AV1@XZ 1008d904 f   qt-mt323:qt-mt323.dll
 0002:0005990a       ?localName@QDomNode@@UBE?AVQString@@XZ 1008d90a f   qt-mt323:qt-mt323.dll
 0002:00059910       ?namespaceURI@QDomNode@@UBE?AVQString@@XZ 1008d910 f   qt-mt323:qt-mt323.dll
 0002:00059916       ?nodeName@QDomNode@@UBE?AVQString@@XZ 1008d916 f   qt-mt323:qt-mt323.dll
 0002:0005991c       ?nodeType@QDomNode@@UBE?AW4NodeType@1@XZ 1008d91c f   qt-mt323:qt-mt323.dll
 0002:00059922       ?nodeValue@QDomNode@@UBE?AVQString@@XZ 1008d922 f   qt-mt323:qt-mt323.dll
 0002:00059928       ?normalize@QDomNode@@UAEXXZ 1008d928 f   qt-mt323:qt-mt323.dll
 0002:0005992e       ?ownerDocument@QDomNode@@UBE?AVQDomDocument@@XZ 1008d92e f   qt-mt323:qt-mt323.dll
 0002:00059934       ?parentNode@QDomNode@@UBE?AV1@XZ 1008d934 f   qt-mt323:qt-mt323.dll
 0002:0005993a       ?prefix@QDomNode@@UBE?AVQString@@XZ 1008d93a f   qt-mt323:qt-mt323.dll
 0002:00059940       ?previousSibling@QDomNode@@UBE?AV1@XZ 1008d940 f   qt-mt323:qt-mt323.dll
 0002:00059946       ?property@QObject@@UBE?AVQVariant@@PBD@Z 1008d946 f   qt-mt323:qt-mt323.dll
 0002:0005994c       ?removeChild@QObject@@UAEXPAV1@@Z 1008d94c f   qt-mt323:qt-mt323.dll
 0002:00059952       ?replaceChild@QDomNode@@UAE?AV1@ABV1@0@Z 1008d952 f   qt-mt323:qt-mt323.dll
 0002:00059958       ?setName@QObject@@UAEXPBD@Z 1008d958 f   qt-mt323:qt-mt323.dll
 0002:0005995e       ?setNodeValue@QDomNode@@UAEXABVQString@@@Z 1008d95e f   qt-mt323:qt-mt323.dll
 0002:00059964       ?setPrefix@QDomNode@@UAEXABVQString@@@Z 1008d964 f   qt-mt323:qt-mt323.dll
 0002:0005996a       ?setProperty@QObject@@UAE_NPBDABVQVariant@@@Z 1008d96a f   qt-mt323:qt-mt323.dll
 0002:00059970       ?timerEvent@QObject@@MAEXPAVQTimerEvent@@@Z 1008d970 f   qt-mt323:qt-mt323.dll
 0002:00059976       ?qDebug@@YAXPBDZZ          1008d976 f   qt-mt323:qt-mt323.dll
 0002:0005997c       ?isNull@QString@@QBE_NXZ   1008d97c f   qt-mt323:qt-mt323.dll
 0002:00059982       ?latin1@QString@@QBEPBDXZ  1008d982 f   qt-mt323:qt-mt323.dll
 0002:00059988       ??BQString@@QBEPBDXZ       1008d988 f   qt-mt323:qt-mt323.dll
 0002:0005998e       ??M@YA_NABVQString@@0@Z    1008d98e f   qt-mt323:qt-mt323.dll
 0002:00059994       ??H@YA?BVQString@@ABV0@0@Z 1008d994 f   qt-mt323:qt-mt323.dll
 0002:0005999a       ??H@YA?BVQString@@ABV0@PBD@Z 1008d99a f   qt-mt323:qt-mt323.dll
 0002:000599a0       ?toText@QDomNode@@QAE?AVQDomText@@XZ 1008d9a0 f   qt-mt323:qt-mt323.dll
 0002:000599a6       ??0QDomDocument@@QAE@XZ    1008d9a6 f   qt-mt323:qt-mt323.dll
 0002:000599ac       ??1QDomDocument@@UAE@XZ    1008d9ac f   qt-mt323:qt-mt323.dll
 0002:000599b2       ?setContent@QDomDocument@@QAE_NPAVQIODevice@@PAVQString@@PAH2@Z 1008d9b2 f   qt-mt323:qt-mt323.dll
 0002:000599b8       ?toString@QDomDocument@@QBE?AVQString@@XZ 1008d9b8 f   qt-mt323:qt-mt323.dll
 0002:000599be       ?data@QDomCharacterData@@UBE?AVQString@@XZ 1008d9be f   qt-mt323:qt-mt323.dll
 0002:000599c4       ?tagName@QDomElement@@QBE?AVQString@@XZ 1008d9c4 f   qt-mt323:qt-mt323.dll
 0002:000599ca       ??1QDomText@@UAE@XZ        1008d9ca f   qt-mt323:qt-mt323.dll
 0002:000599d0       ??0QTextStream@@QAE@PAVQIODevice@@@Z 1008d9d0 f   qt-mt323:qt-mt323.dll
 0002:000599d6       ??1QTextStream@@UAE@XZ     1008d9d6 f   qt-mt323:qt-mt323.dll
 0002:000599dc       ??6QTextStream@@QAEAAV0@ABVQString@@@Z 1008d9dc f   qt-mt323:qt-mt323.dll
 0002:000599e2       ??A?$QValueList@VQString@@@@QAEAAVQString@@I@Z 1008d9e2 f   qt-mt323:qt-mt323.dll
 0002:000599e8       ?count@?$QValueList@VQString@@@@QBEIXZ 1008d9e8 f   qt-mt323:qt-mt323.dll
 0002:000599ee       ?split@QStringList@@SA?AV1@ABVQString@@0_N@Z 1008d9ee f   qt-mt323:qt-mt323.dll
 0002:000599f4       ??1QStringList@@QAE@XZ     1008d9f4 f   qt-mt323:qt-mt323.dll
 0002:000599fa       ??0QFile@@QAE@ABVQString@@@Z 1008d9fa f   qt-mt323:qt-mt323.dll
 0002:00059a00       ??1QFile@@UAE@XZ           1008da00 f   qt-mt323:qt-mt323.dll
 0002:00059a06       ?open@QFile@@UAE_NH@Z      1008da06 f   qt-mt323:qt-mt323.dll
 0002:00059a0c       ?close@QFile@@UAEXXZ       1008da0c f   qt-mt323:qt-mt323.dll
 0002:00059a12       ?isDocument@QDomDocument@@UBE_NXZ 1008da12 f   qt-mt323:qt-mt323.dll
 0002:00059a18       ?nodeType@QDomDocument@@UBE?AW4NodeType@QDomNode@@XZ 1008da18 f   qt-mt323:qt-mt323.dll
 0002:00059a1e       ??0QShared@@QAE@XZ         1008da1e f   qt-mt323:qt-mt323.dll
 0002:00059a24       ?ref@QShared@@QAEXXZ       1008da24 f   qt-mt323:qt-mt323.dll
 0002:00059a2a       ?deref@QShared@@QAE_NXZ    1008da2a f   qt-mt323:qt-mt323.dll
 0002:00059a30       ??0QString@@QAE@XZ         1008da30 f   qt-mt323:qt-mt323.dll
 0002:00059a36       ?length@QString@@QBEIXZ    1008da36 f   qt-mt323:qt-mt323.dll
 0002:00059a3c       ??0?$QValueList@VQString@@@@QAE@XZ 1008da3c f   qt-mt323:qt-mt323.dll
 0002:00059a42       ??0?$QValueList@VQString@@@@QAE@ABV0@@Z 1008da42 f   qt-mt323:qt-mt323.dll
 0002:00059a48       ??1?$QValueList@VQString@@@@QAE@XZ 1008da48 f   qt-mt323:qt-mt323.dll
 0002:00059a4e       ?append@?$QValueList@VQString@@@@QAE?AV?$QValueListIterator@VQString@@@@ABVQString@@@Z 1008da4e f   qt-mt323:qt-mt323.dll
 0002:00059a54       ?minimum@QMapNodeBase@@QAEPAU1@XZ 1008da54 f   qt-mt323:qt-mt323.dll
 0002:00059a5a       ?maximum@QMapNodeBase@@QAEPAU1@XZ 1008da5a f   qt-mt323:qt-mt323.dll
 0002:00059a60       ??0QMapPrivateBase@@QAE@XZ 1008da60 f   qt-mt323:qt-mt323.dll
 0002:00059a66       ??0QMapPrivateBase@@QAE@PBV0@@Z 1008da66 f   qt-mt323:qt-mt323.dll
 0002:00059a6c       ?rebalance@QMapPrivateBase@@QAEXPAUQMapNodeBase@@AAPAU2@@Z 1008da6c f   qt-mt323:qt-mt323.dll
 0002:00059a72       ?removeAndRebalance@QMapPrivateBase@@QAEPAUQMapNodeBase@@PAU2@AAPAU2@11@Z 1008da72 f   qt-mt323:qt-mt323.dll
 0002:00059a78       ?arg@QString@@QBE?AV1@HHH@Z 1008da78 f   qt-mt323:qt-mt323.dll
 0002:00059a7e       ?toInt@QString@@QBEHPA_NH@Z 1008da7e f   qt-mt323:qt-mt323.dll
 0002:00059a84       ??8@YA_NABVQString@@PBD@Z  1008da84 f   qt-mt323:qt-mt323.dll
 0002:00059a8a       ??H@YA?BVQString@@PBDABV0@@Z 1008da8a f   qt-mt323:qt-mt323.dll
 0002:00059a90       ?setAttribute@QDomElement@@QAEXABVQString@@H@Z 1008da90 f   qt-mt323:qt-mt323.dll
 0002:00059a96       ??4QString@@QAEAAV0@PBD@Z  1008da96 f   qt-mt323:qt-mt323.dll
 0002:00059a9c       ?lower@QString@@QBE?AV1@XZ 1008da9c f   qt-mt323:qt-mt323.dll
 0002:00059aa2       ??9@YA_NABVQString@@PBD@Z  1008daa2 f   qt-mt323:qt-mt323.dll
 0002:00059aa8       ?qstrcmp@@YAHPBD0@Z        1008daa8 f   qt-mt323:qt-mt323.dll
 0002:00059aae       ?fromLatin1@QString@@SA?AV1@PBDH@Z 1008daae f   qt-mt323:qt-mt323.dll
 0002:00059ab4       ?fromUtf8@QString@@SA?AV1@PBDH@Z 1008dab4 f   qt-mt323:qt-mt323.dll
 0002:00059aba       ?qt_cast@QObject@@UAEPAXPBD@Z 1008daba f   qt-mt323:qt-mt323.dll
 0002:00059ac0       ?qt_invoke@QObject@@UAE_NHPAUQUObject@@@Z 1008dac0 f   qt-mt323:qt-mt323.dll
 0002:00059ac6       ?qt_emit@QObject@@UAE_NHPAUQUObject@@@Z 1008dac6 f   qt-mt323:qt-mt323.dll
 0002:00059acc       ?qt_property@QObject@@UAE_NHHPAVQVariant@@@Z 1008dacc f   qt-mt323:qt-mt323.dll
 0002:00059ad2       ?staticMetaObject@QObject@@SAPAVQMetaObject@@XZ 1008dad2 f   qt-mt323:qt-mt323.dll
 0002:00059ad8       ?signalsBlocked@QObject@@QBE_NXZ 1008dad8 f   qt-mt323:qt-mt323.dll
 0002:00059ade       ?receivers@QObject@@IBEPAVQConnectionList@@H@Z 1008dade f   qt-mt323:qt-mt323.dll
 0002:00059ae4       ?activate_signal@QObject@@IAEXHVQString@@@Z 1008dae4 f   qt-mt323:qt-mt323.dll
 0002:00059aea       ?activate_signal_bool@QObject@@IAEXH_N@Z 1008daea f   qt-mt323:qt-mt323.dll
 0002:00059af0       ?activate_signal@QObject@@IAEXPAVQConnectionList@@PAUQUObject@@@Z 1008daf0 f   qt-mt323:qt-mt323.dll
 0002:00059af6       ?signalOffset@QMetaObject@@QBEHXZ 1008daf6 f   qt-mt323:qt-mt323.dll
 0002:00059afc       ?new_metaobject@QMetaObject@@SAPAV1@PBDPAV1@QBUQMetaData@@H2HQBVQMetaProperty@@HQBUQMetaEnum@@HQBUQClassInfo@@H@Z 1008dafc f   qt-mt323:qt-mt323.dll
 0002:00059b02       ??0QMetaObjectCleanUp@@QAE@PBDP6APAVQMetaObject@@XZ@Z 1008db02 f   qt-mt323:qt-mt323.dll
 0002:00059b08       ??1QMetaObjectCleanUp@@QAE@XZ 1008db08 f   qt-mt323:qt-mt323.dll
 0002:00059b0e       ?setMetaObject@QMetaObjectCleanUp@@QAEXAAPAVQMetaObject@@@Z 1008db0e f   qt-mt323:qt-mt323.dll
 0002:00059b14       ?translate@QApplication@@QBE?AVQString@@PBD00W4Encoding@1@@Z 1008db14 f   qt-mt323:qt-mt323.dll
 0002:00059b1a       ??0QUObject@@QAE@XZ        1008db1a f   qt-mt323:qt-mt323.dll
 0002:00059b20       ??1QUObject@@QAE@XZ        1008db20 f   qt-mt323:qt-mt323.dll
 0002:00059b26       ?get@QUType_bool@@QAEAA_NPAUQUObject@@@Z 1008db26 f   qt-mt323:qt-mt323.dll
 0002:00059b2c       ?set@QUType_QString@@QAEXPAUQUObject@@ABVQString@@@Z 1008db2c f   qt-mt323:qt-mt323.dll
 0002:00059b32       ?get@QUType_QString@@QAEAAVQString@@PAUQUObject@@@Z 1008db32 f   qt-mt323:qt-mt323.dll
 0002:00059b38       ?set@QUType_ptr@@QAEXPAUQUObject@@PBX@Z 1008db38 f   qt-mt323:qt-mt323.dll
 0002:00059b3e       ?get@QUType_ptr@@QAEAAPAXPAUQUObject@@@Z 1008db3e f   qt-mt323:qt-mt323.dll
 0002:00059b44       ?set@QUType_bool@@QAEXPAUQUObject@@_N@Z 1008db44 f   qt-mt323:qt-mt323.dll
 0002:00059b4a       ?set@QUType_int@@QAEXPAUQUObject@@H@Z 1008db4a f   qt-mt323:qt-mt323.dll
 0002:00059b50       ?get@QUType_int@@QAEAAHPAUQUObject@@@Z 1008db50 f   qt-mt323:qt-mt323.dll
 0002:00059b56       ??0bncs_string@@QAE@PBD@Z  1008db56 f   bncs_stringdb:bncs_stringdb.dll
 0002:00059b5c       ??1bncs_string@@UAE@XZ     1008db5c f   bncs_stringdb:bncs_stringdb.dll
 0002:00059b62       ??Bbncs_string@@QBEPBDXZ   1008db62 f   bncs_stringdb:bncs_stringdb.dll
 0002:00059b68       ??4bncs_string@@QAEAAV0@PBD@Z 1008db68 f   bncs_stringdb:bncs_stringdb.dll
 0002:00059b6e       ??0instanceInfo@@QAE@XZ    1008db6e f   bncs_cachedDatadb:bncs_cachedDatadb.dll
 0002:00059b74       ??1instanceInfo@@UAE@XZ    1008db74 f   bncs_cachedDatadb:bncs_cachedDatadb.dll
 0002:00059b7a       ??0instanceInfo@@QAE@ABV0@@Z 1008db7a f   bncs_cachedDatadb:bncs_cachedDatadb.dll
 0002:00059b80       ??4instanceInfo@@QAEAAV0@ABV0@@Z 1008db80 f   bncs_cachedDatadb:bncs_cachedDatadb.dll
 0002:00059b86       ??0paramInfo@@QAE@XZ       1008db86 f   bncs_cachedDatadb:bncs_cachedDatadb.dll
 0002:00059b8c       ??1paramInfo@@UAE@XZ       1008db8c f   bncs_cachedDatadb:bncs_cachedDatadb.dll
 0002:00059b92       ??0paramInfo@@QAE@ABV0@@Z  1008db92 f   bncs_cachedDatadb:bncs_cachedDatadb.dll
 0002:00059b98       ??4paramInfo@@QAEAAV0@ABV0@@Z 1008db98 f   bncs_cachedDatadb:bncs_cachedDatadb.dll
 0002:00059b9e       ??0deviceTypeInfo@@QAE@XZ  1008db9e f   bncs_cachedDatadb:bncs_cachedDatadb.dll
 0002:00059ba4       ??1deviceTypeInfo@@UAE@XZ  1008dba4 f   bncs_cachedDatadb:bncs_cachedDatadb.dll
 0002:00059baa       ??0deviceTypeInfo@@QAE@ABV0@@Z 1008dbaa f   bncs_cachedDatadb:bncs_cachedDatadb.dll
 0002:00059bb0       ??4deviceTypeInfo@@QAEAAV0@ABV0@@Z 1008dbb0 f   bncs_cachedDatadb:bncs_cachedDatadb.dll
 0002:00059bb6       ??0complexParam@@QAE@XZ    1008dbb6 f   bncs_cachedDatadb:bncs_cachedDatadb.dll
 0002:00059bbc       ??1complexParam@@UAE@XZ    1008dbbc f   bncs_cachedDatadb:bncs_cachedDatadb.dll
 0002:00059bc2       ??0complexParam@@QAE@ABV0@@Z 1008dbc2 f   bncs_cachedDatadb:bncs_cachedDatadb.dll
 0002:00059bc8       ??4complexParam@@QAEAAV0@ABV0@@Z 1008dbc8 f   bncs_cachedDatadb:bncs_cachedDatadb.dll
 0002:00059bce       ??0complexInstance@@QAE@XZ 1008dbce f   bncs_cachedDatadb:bncs_cachedDatadb.dll
 0002:00059bd4       ??1complexInstance@@UAE@XZ 1008dbd4 f   bncs_cachedDatadb:bncs_cachedDatadb.dll
 0002:00059bda       ??0complexInstance@@QAE@ABV0@@Z 1008dbda f   bncs_cachedDatadb:bncs_cachedDatadb.dll
 0002:00059be0       ??4complexInstance@@QAEAAV0@ABV0@@Z 1008dbe0 f   bncs_cachedDatadb:bncs_cachedDatadb.dll
 0002:00059be6       ??0complexType@@QAE@XZ     1008dbe6 f   bncs_cachedDatadb:bncs_cachedDatadb.dll
 0002:00059bec       ??1complexType@@UAE@XZ     1008dbec f   bncs_cachedDatadb:bncs_cachedDatadb.dll
 0002:00059bf2       ??0complexType@@QAE@ABV0@@Z 1008dbf2 f   bncs_cachedDatadb:bncs_cachedDatadb.dll
 0002:00059bf8       ??4complexType@@QAEAAV0@ABV0@@Z 1008dbf8 f   bncs_cachedDatadb:bncs_cachedDatadb.dll
 0002:00059bfe       ?lookup@bncs_instance_lookup@@SA_NABVQString@@0AAV2@PAH22PAD@Z 1008dbfe f   bncs_cachedDatadb:bncs_cachedDatadb.dll
 0002:00059c04       ?lookupComposite@bncs_instance_lookup@@SA_NABVQString@@0AAV2@@Z 1008dc04 f   bncs_cachedDatadb:bncs_cachedDatadb.dll
 0002:00059c0a       ?lookupType@bncs_instance_lookup@@SA_NABVQString@@AAV2@@Z 1008dc0a f   bncs_cachedDatadb:bncs_cachedDatadb.dll
 0002:00059c10       ?_Debug_message@std@@YAXPB_W0I@Z 1008dc10 f   msvcprtd:MSVCP120D.dll
 0002:00059c16       ??0_Container_base12@std@@QAE@XZ 1008dc16 f   msvcprtd:MSVCP120D.dll
 0002:00059c1c       ??1_Container_base12@std@@QAE@XZ 1008dc1c f   msvcprtd:MSVCP120D.dll
 0002:00059c22       ?_Orphan_all@_Container_base12@std@@QAEXXZ 1008dc22 f   msvcprtd:MSVCP120D.dll
 0002:00059c28       ?_Xbad_alloc@std@@YAXXZ    1008dc28 f   msvcprtd:MSVCP120D.dll
 0002:00059c2e       ?_Xlength_error@std@@YAXPBD@Z 1008dc2e f   msvcprtd:MSVCP120D.dll
 0002:00059c34       ?_Xout_of_range@std@@YAXPBD@Z 1008dc34 f   msvcprtd:MSVCP120D.dll
 0002:00059c3a       ??0id@locale@std@@QAE@I@Z  1008dc3a f   msvcprtd:MSVCP120D.dll
 0002:00059c40       ?_Syserror_map@std@@YAPBDH@Z 1008dc40 f   msvcprtd:MSVCP120D.dll
 0002:00059c46       ?_Winerror_map@std@@YAPBDH@Z 1008dc46 f   msvcprtd:MSVCP120D.dll
 0002:00059c4c       ??0_Lockit@std@@QAE@H@Z    1008dc4c f   msvcprtd:MSVCP120D.dll
 0002:00059c52       ??1_Lockit@std@@QAE@XZ     1008dc52 f   msvcprtd:MSVCP120D.dll
 0002:00059c58       ?_Getpfirst@_Container_base12@std@@QBEPAPAU_Iterator_base12@2@XZ 1008dc58 f   msvcprtd:MSVCP120D.dll
 0002:00059c60       ??_M@YGXPAXIHP6EX0@Z@Z     1008dc60 f   MSVCRTD:ehvecdtr.obj
 0002:00059d80       ?__ArrayUnwind@@YGXPAXIHP6EX0@Z@Z 1008dd80 f   MSVCRTD:ehvecdtr.obj
 0002:00059e2c       __purecall                 1008de2c f   MSVCRTD:MSVCR120D.dll
 0002:00059e32       ??2@YAPAXI@Z               1008de32 f   MSVCRTD:MSVCR120D.dll
 0002:00059e38       ??3@YAXPAX@Z               1008de38 f   MSVCRTD:MSVCR120D.dll
 0002:00059e40       ___atonexitinit            1008de40 f   MSVCRTD:atonexit.obj
 0002:00059f20       __onexit                   1008df20 f   MSVCRTD:atonexit.obj
 0002:0005a060       _atexit                    1008e060 f   MSVCRTD:atonexit.obj
 0002:0005a096       _memcpy                    1008e096 f   MSVCRTD:MSVCR120D.dll
 0002:0005a09c       _strlen                    1008e09c f   MSVCRTD:MSVCR120D.dll
 0002:0005a0a2       _memmove                   1008e0a2 f   MSVCRTD:MSVCR120D.dll
 0002:0005a0a8       __hypot                    1008e0a8 f   MSVCRTD:MSVCR120D.dll
 0002:0005a0b0       @_RTC_AllocaHelper@12      1008e0b0 f   MSVCRTD:stack.obj
 0002:0005a0f0       @_RTC_CheckStackVars2@12   1008e0f0 f   MSVCRTD:stack.obj
 0002:0005a200       @_RTC_CheckStackVars@8     1008e200 f   MSVCRTD:stack.obj
 0002:0005a270       __RTC_CheckEsp             1008e270 f   MSVCRTD:stack.obj
 0002:0005a2a0       @__security_check_cookie@4 1008e2a0 f   MSVCRTD:secchk.obj
 0002:0005a2b2       __CxxThrowException@8      1008e2b2 f   MSVCRTD:MSVCR120D.dll
 0002:0005a2c0       __RTC_InitBase             1008e2c0 f   MSVCRTD:init.obj
 0002:0005a300       __RTC_Shutdown             1008e300 f   MSVCRTD:init.obj
 0002:0005a318       ___CxxFrameHandler3        1008e318 f   MSVCRTD:MSVCR120D.dll
 0002:0005a320       ??0type_info@@AAE@ABV0@@Z  1008e320 f   MSVCRTD:ti_inst.obj
 0002:0005a340       ??4type_info@@AAEAAV0@ABV0@@Z 1008e340 f   MSVCRTD:ti_inst.obj
 0002:0005a360       ??_Etype_info@@UAEPAXI@Z   1008e360 f i MSVCRTD:ti_inst.obj
 0002:0005a3f0       __invalid_parameter        1008e3f0 f   MSVCRTD:MSVCR120D.dll
 0002:0005a3f6       _getenv                    1008e3f6 f   MSVCRTD:MSVCR120D.dll
 0002:0005a3fc       ??_V@YAXPAX@Z              1008e3fc f   MSVCRTD:MSVCR120D.dll
 0002:0005a402       __CrtDbgReportW            1008e402 f   MSVCRTD:MSVCR120D.dll
 0002:0005a410       ??_L@YGXPAXIHP6EX0@Z1@Z    1008e410 f   MSVCRTD:ehvecctr.obj
 0002:0005a590       _NtCurrentTeb              1008e590 f i MSVCRTD:crtdll.obj
 0002:0005a5a0       __CRT_INIT@12              1008e5a0 f   MSVCRTD:crtdll.obj
 0002:0005a930       __DllMainCRTStartup@12     1008e930 f   MSVCRTD:crtdll.obj
 0002:0005ab90       ?terminate@@YAXXZ          1008eb90 f   MSVCRTD:MSVCR120D.dll
 0002:0005aba0       __except_handler4          1008eba0 f   MSVCRTD:chandler4gs.obj
 0002:0005abd0       __lock                     1008ebd0 f   MSVCRTD:MSVCR120D.dll
 0002:0005abd6       __unlock                   1008ebd6 f   MSVCRTD:MSVCR120D.dll
 0002:0005abdc       __calloc_dbg               1008ebdc f   MSVCRTD:MSVCR120D.dll
 0002:0005abe2       ___dllonexit               1008ebe2 f   MSVCRTD:MSVCR120D.dll
 0002:0005ad90       ?_RTC_AllocaFailure@@YAXPAXPAU_RTC_ALLOCA_NODE@@H@Z 1008ed90 f   MSVCRTD:error.obj
 0002:0005af70       ?_RTC_Failure@@YAXPAXH@Z   1008ef70 f   MSVCRTD:error.obj
 0002:0005afe0       ?_RTC_StackFailure@@YAXPAXPBD@Z 1008efe0 f   MSVCRTD:error.obj
 0002:0005b440       __RTC_UninitUse            1008f440 f   MSVCRTD:error.obj
 0002:0005b570       ___raise_securityfailure   1008f570 f   MSVCRTD:gs_report.obj
 0002:0005b5d0       ___report_gsfailure        1008f5d0 f   MSVCRTD:gs_report.obj
 0002:0005b720       ___report_rangecheckfailure 1008f720 f   MSVCRTD:gs_report.obj
 0002:0005b730       ___report_securityfailure  1008f730 f   MSVCRTD:gs_report.obj
 0002:0005b840       ___report_securityfailureEx 1008f840 f   MSVCRTD:gs_report.obj
 0002:0005b9b0       ?_RTC_GetErrorFunc@@YAP6AHHPBDH00ZZPBX@Z 1008f9b0 f   MSVCRTD:userapi.obj
 0002:0005b9c0       ?_RTC_GetErrorFuncW@@YAP6AHHPB_WH00ZZPBX@Z 1008f9c0 f   MSVCRTD:userapi.obj
 0002:0005b9d0       __RTC_GetErrDesc           1008f9d0 f   MSVCRTD:userapi.obj
 0002:0005b9f0       __RTC_NumErrors            1008f9f0 f   MSVCRTD:userapi.obj
 0002:0005ba00       __RTC_SetErrorFunc         1008fa00 f   MSVCRTD:userapi.obj
 0002:0005ba30       __RTC_SetErrorFuncW        1008fa30 f   MSVCRTD:userapi.obj
 0002:0005ba60       __RTC_SetErrorType         1008fa60 f   MSVCRTD:userapi.obj
 0002:0005ba8c       __CRT_RTC_INITW            1008fa8c f   MSVCRTD:MSVCR120D.dll
 0002:0005ba92       ??1type_info@@UAE@XZ       1008fa92 f   MSVCRTD:MSVCR120D.dll
 0002:0005ba98       ___CppXcptFilter           1008fa98 f   MSVCRTD:MSVCR120D.dll
 0002:0005ba9e       __amsg_exit                1008fa9e f   MSVCRTD:MSVCR120D.dll
 0002:0005baa4       __malloc_dbg               1008faa4 f   MSVCRTD:MSVCR120D.dll
 0002:0005baaa       __free_dbg                 1008faaa f   MSVCRTD:MSVCR120D.dll
 0002:0005bab0       __CrtSetCheckCount         1008fab0 f   MSVCRTD:MSVCR120D.dll
 0002:0005bac0       __FindPESection            1008fac0 f   MSVCRTD:pesect.obj
 0002:0005bb50       __IsNonwritableInCurrentImage 1008fb50 f   MSVCRTD:pesect.obj
 0002:0005bcd0       __ValidateImageBase        1008fcd0 f   MSVCRTD:pesect.obj
 0002:0005bd50       ___security_init_cookie    1008fd50 f   MSVCRTD:gs_support.obj
 0002:0005be70       _DllMain@12                1008fe70 f   MSVCRTD:dllmain.obj
 0002:0005bea0       __RTC_Initialize           1008fea0 f   MSVCRTD:initsect.obj
 0002:0005bed0       __RTC_Terminate            1008fed0 f   MSVCRTD:initsect.obj
 0002:0005befe       __initterm                 1008fefe f   MSVCRTD:MSVCR120D.dll
 0002:0005bf04       __initterm_e               1008ff04 f   MSVCRTD:MSVCR120D.dll
 0002:0005bf10       ___clean_type_info_names   1008ff10 f   MSVCRTD:tncleanup.obj
 0002:0005bf26       __except_handler4_common   1008ff26 f   MSVCRTD:MSVCR120D.dll
 0002:0005c490       ?_RTC_GetSrcLine@@YAHPAEPA_WKPAH1K@Z 10090490 f   MSVCRTD:pdblkup.obj
 0002:0005c7ea       __crt_debugger_hook        100907ea f   MSVCRTD:MSVCR120D.dll
 0002:0005c7f0       ___crtUnhandledException   100907f0 f   MSVCRTD:MSVCR120D.dll
 0002:0005c7f6       ___crtTerminateProcess     100907f6 f   MSVCRTD:MSVCR120D.dll
 0002:0005c7fc       ___clean_type_info_names_internal 100907fc f   MSVCRTD:MSVCR120D.dll
 0002:0005c802       _wcscpy_s                  10090802 f   MSVCRTD:MSVCR120D.dll
 0002:0005c808       __wmakepath_s              10090808 f   MSVCRTD:MSVCR120D.dll
 0002:0005c80e       __wsplitpath_s             1009080e f   MSVCRTD:MSVCR120D.dll
 0002:0005c814       _EncodePointer@4           10090814 f   kernel32:KERNEL32.dll
 0002:0005c81a       _DecodePointer@4           1009081a f   kernel32:KERNEL32.dll
 0002:0005c820       _IsDebuggerPresent@0       10090820 f   kernel32:KERNEL32.dll
 0002:0005c826       _RaiseException@16         10090826 f   kernel32:KERNEL32.dll
 0002:0005c82c       _GetLastError@0            1009082c f   kernel32:KERNEL32.dll
 0002:0005c832       _GetProcAddress@8          10090832 f   kernel32:KERNEL32.dll
 0002:0005c838       _LoadLibraryExW@12         10090838 f   kernel32:KERNEL32.dll
 0002:0005c83e       _MultiByteToWideChar@24    1009083e f   kernel32:KERNEL32.dll
 0002:0005c844       _WideCharToMultiByte@32    10090844 f   kernel32:KERNEL32.dll
 0002:0005c84a       _IsProcessorFeaturePresent@4 1009084a f   kernel32:KERNEL32.dll
 0002:0005c850       _QueryPerformanceCounter@4 10090850 f   kernel32:KERNEL32.dll
 0002:0005c856       _GetCurrentProcessId@0     10090856 f   kernel32:KERNEL32.dll
 0002:0005c85c       _GetCurrentThreadId@0      1009085c f   kernel32:KERNEL32.dll
 0002:0005c862       _GetSystemTimeAsFileTime@4 10090862 f   kernel32:KERNEL32.dll
 0002:0005c868       _DisableThreadLibraryCalls@4 10090868 f   kernel32:KERNEL32.dll
 0002:0005c86e       _HeapAlloc@12              1009086e f   kernel32:KERNEL32.dll
 0002:0005c874       _HeapFree@12               10090874 f   kernel32:KERNEL32.dll
 0002:0005c87a       _GetProcessHeap@0          1009087a f   kernel32:KERNEL32.dll
 0002:0005c880       _VirtualQuery@12           10090880 f   kernel32:KERNEL32.dll
 0002:0005c886       _FreeLibrary@4             10090886 f   kernel32:KERNEL32.dll
 0002:0005c88c       _GetModuleFileNameW@12     1009088c f   kernel32:KERNEL32.dll
 0002:0005c892       _GetModuleHandleW@4        10090892 f   kernel32:KERNEL32.dll
 0002:0005c898       __putenv                   10090898 f   MSVCRTD:MSVCR120D.dll
 0003:00000000       ___xc_a                    100a0000     MSVCRTD:cinitexe.obj
 0003:000002b0       ___xc_z                    100a02b0     MSVCRTD:cinitexe.obj
 0003:000003b4       ___xi_a                    100a03b4     MSVCRTD:cinitexe.obj
 0003:000006c0       ___xi_z                    100a06c0     MSVCRTD:cinitexe.obj
 0003:0000080c       ??_7applicationsAccessor@@6B@ 100a080c     applicationsAccessor.obj
 0003:0000086c       ??_C@_00CNPNBAHC@?$AA@     100a086c     applicationsAccessor.obj
 0003:00000874       ??_7error_category@std@@6B@ 100a0874     applicationsAccessor.obj
 0003:00000898       ??_7_Generic_error_category@std@@6B@ 100a0898     applicationsAccessor.obj
 0003:000008b8       ??_C@_07DCLBNMLN@generic?$AA@ 100a08b8     applicationsAccessor.obj
 0003:000008c4       ??_C@_0O@BFJCFAAK@unknown?5error?$AA@ 100a08c4     applicationsAccessor.obj
 0003:000008d8       ??_7_Iostream_error_category@std@@6B@ 100a08d8     applicationsAccessor.obj
 0003:000008f8       ??_C@_08LLGCOLLL@iostream?$AA@ 100a08f8     applicationsAccessor.obj
 0003:00000904       ??_C@_0BG@PADBLCHM@iostream?5stream?5error?$AA@ 100a0904     applicationsAccessor.obj
 0003:00000924       ??_7_System_error_category@std@@6B@ 100a0924     applicationsAccessor.obj
 0003:00000944       ??_C@_06FHFOAHML@system?$AA@ 100a0944     applicationsAccessor.obj
 0003:00000954       ??_SQDomNode@@6B@          100a0954     applicationsAccessor.obj
 0003:00000a14       ??_C@_0N@JALHCLAI@applications?$AA@ 100a0a14     applicationsAccessor.obj
 0003:00000a24       ??_C@_02EGCJHIOB@id?$AA@   100a0a24     applicationsAccessor.obj
 0003:00000a28       ??_C@_04GPMDFGEJ@type?$AA@ 100a0a28     applicationsAccessor.obj
 0003:00000a30       ??_C@_07BANDPJOM@caption?$AA@ 100a0a30     applicationsAccessor.obj
 0003:00000a3c       ??_C@_05PHLGJONK@title?$AA@ 100a0a3c     applicationsAccessor.obj
 0003:00000a44       ??_C@_04DMJJIPAH@icon?$AA@ 100a0a44     applicationsAccessor.obj
 0003:00000a4c       ??_C@_07CPCPJPKL@version?$AA@ 100a0a4c     applicationsAccessor.obj
 0003:00000a58       ??_C@_02PIGFKFFE@?$CF1?$AA@ 100a0a58     applicationsAccessor.obj
 0003:00000a5c       ??_C@_03CGOPKBCD@app?$AA@  100a0a5c     applicationsAccessor.obj
 0003:00000a60       ??_C@_1IO@JLPDPDPD@?$AAc?$AA?3?$AA?2?$AAp?$AAr?$AAo?$AAg?$AAr?$AAa?$AAm?$AA?5?$AAf?$AAi?$AAl?$AAe?$AAs?$AA?5?$AA?$CI?$AAx?$AA8?$AA6?$AA?$CJ?$AA?2?$AAm?$AAi?$AAc?$AAr?$AAo?$AAs?$AAo?$AAf?$AAt@ 100a0a60     applicationsAccessor.obj
 0003:00000b0c       ??_C@_0BA@JFNIOLAK@string?5too?5long?$AA@ 100a0b0c     applicationsAccessor.obj
 0003:00000b20       ??_C@_0BI@CFPLBAOH@invalid?5string?5position?$AA@ 100a0b20     applicationsAccessor.obj
 0003:00000b3c       ??_C@_1CK@EOPGIILJ@?$AAi?$AAn?$AAv?$AAa?$AAl?$AAi?$AAd?$AA?5?$AAn?$AAu?$AAl?$AAl?$AA?5?$AAp?$AAo?$AAi?$AAn?$AAt?$AAe?$AAr?$AA?$AA@ 100a0b3c     applicationsAccessor.obj
 0003:00000b70       __real@0000000000000000    100a0b70     applicationsAccessor.obj
 0003:00000b84       ??_SQDomDocument@@6B@      100a0b84     bncs_config.obj
 0003:00000c48       ??_C@_1JA@EKKHPHED@?$AAc?$AA?3?$AA?2?$AAp?$AAr?$AAo?$AAg?$AAr?$AAa?$AAm?$AA?5?$AAf?$AAi?$AAl?$AAe?$AAs?$AA?5?$AA?$CI?$AAx?$AA8?$AA6?$AA?$CJ?$AA?2?$AAm?$AAi?$AAc?$AAr?$AAo?$AAs?$AAo?$AAf?$AAt@ 100a0c48     bncs_config.obj
 0003:00000cf4       ??_C@_1DC@POOIKBAO@?$AAI?$AAT?$AAE?$AAR?$AAA?$AAT?$AAO?$AAR?$AA?5?$AAL?$AAI?$AAS?$AAT?$AA?5?$AAC?$AAO?$AAR?$AAR?$AAU?$AAP?$AAT?$AAE?$AAD?$AA?$CB?$AA?$AA@ 100a0cf4     bncs_config.obj
 0003:00000d34       ??_7bncs_config@@6B@       100a0d34     bncs_config.obj
 0003:00000d40       ??_7docCache@@6B@          100a0d40     bncs_config.obj
 0003:00000d48       ??_C@_01LFCBOECM@?4?$AA@   100a0d48     bncs_config.obj
 0003:00000d4c       ??_C@_04GAOAGNCM@?4xml?$AA@ 100a0d4c     bncs_config.obj
 0003:00000d54       ??_C@_08FKACIMPB@?1config?1?$AA@ 100a0d54     bncs_config.obj
 0003:00000d60       ??_C@_09DDAHAMBK@CC_SYSTEM?$AA@ 100a0d60     bncs_config.obj
 0003:00000d6c       ??_C@_01KMDKNFGN@?1?$AA@   100a0d6c     bncs_config.obj
 0003:00000d70       ??_C@_07JBEBLGDD@CC_ROOT?$AA@ 100a0d70     bncs_config.obj
 0003:00000d80       ??_C@_1IK@HBAODOLH@?$AAc?$AA?3?$AA?2?$AAp?$AAr?$AAo?$AAg?$AAr?$AAa?$AAm?$AA?5?$AAf?$AAi?$AAl?$AAe?$AAs?$AA?5?$AA?$CI?$AAx?$AA8?$AA6?$AA?$CJ?$AA?2?$AAm?$AAi?$AAc?$AAr?$AAo?$AAs?$AAo?$AAf?$AAt@ 100a0d80     bncs_config.obj
 0003:00000e28       ??_C@_1EK@PPDBPCAN@?$AAm?$AAa?$AAp?$AA?1?$AAs?$AAe?$AAt?$AA?5?$AAe?$AAr?$AAa?$AAs?$AAe?$AA?5?$AAi?$AAt?$AAe?$AAr?$AAa?$AAt?$AAo?$AAr?$AA?5?$AAo?$AAu?$AAt?$AAs?$AAi?$AAd?$AAe?$AA?5?$AAr@ 100a0e28     bncs_config.obj
 0003:00000e80       ??_C@_1DO@CFEEPGGJ@?$AAm?$AAa?$AAp?$AA?1?$AAs?$AAe?$AAt?$AA?5?$AAi?$AAt?$AAe?$AAr?$AAa?$AAt?$AAo?$AAr?$AAs?$AA?5?$AAi?$AAn?$AAc?$AAo?$AAm?$AAp?$AAa?$AAt?$AAi?$AAb?$AAl?$AAe?$AA?$AA@ 100a0e80     bncs_config.obj
 0003:00000ecc       ??_C@_0CI@FNPHFCCM@Standard?5C?$CL?$CL?5Libraries?5Invalid?5A@ 100a0ecc     bncs_config.obj
 0003:00000f00       ??_C@_1FO@GJIHNDLM@?$AA?$CC?$AAS?$AAt?$AAa?$AAn?$AAd?$AAa?$AAr?$AAd?$AA?5?$AAC?$AA?$CL?$AA?$CL?$AA?5?$AAL?$AAi?$AAb?$AAr?$AAa?$AAr?$AAi?$AAe?$AAs?$AA?5?$AAI?$AAn?$AAv?$AAa?$AAl?$AAi?$AAd?$AA?5@ 100a0f00     bncs_config.obj
 0003:00000f70       ??_C@_15GANGMFKL@?$AA?$CF?$AAs?$AA?$AA@ 100a0f70     bncs_config.obj
 0003:00000f78       ??_C@_1BDG@CICGDDBN@?$AAs?$AAt?$AAd?$AA?3?$AA?3?$AA_?$AAT?$AAr?$AAe?$AAe?$AA_?$AAc?$AAo?$AAn?$AAs?$AAt?$AA_?$AAi?$AAt?$AAe?$AAr?$AAa?$AAt?$AAo?$AAr?$AA?$DM?$AAc?$AAl?$AAa?$AAs?$AAs?$AA?5@ 100a0f78     bncs_config.obj
 0003:000010ec       ??_C@_1CG@JNLFBNGN@?$AA?$CC?$AAi?$AAn?$AAv?$AAa?$AAl?$AAi?$AAd?$AA?5?$AAa?$AAr?$AAg?$AAu?$AAm?$AAe?$AAn?$AAt?$AA?$CC?$AA?$AA@ 100a10ec     bncs_config.obj
 0003:00001120       ??_C@_1EG@EHJFMBHJ@?$AAm?$AAa?$AAp?$AA?1?$AAs?$AAe?$AAt?$AA?5?$AAi?$AAt?$AAe?$AAr?$AAa?$AAt?$AAo?$AAr?$AA?5?$AAn?$AAo?$AAt?$AA?5?$AAi?$AAn?$AAc?$AAr?$AAe?$AAm?$AAe?$AAn?$AAt?$AAa?$AAb@ 100a1120     bncs_config.obj
 0003:00001174       ??_C@_0CE@OFMIGAMM@Standard?5C?$CL?$CL?5Libraries?5Out?5of?5Ra@ 100a1174     bncs_config.obj
 0003:000011a0       ??_C@_1FG@IBPIFFN@?$AA?$CC?$AAS?$AAt?$AAa?$AAn?$AAd?$AAa?$AAr?$AAd?$AA?5?$AAC?$AA?$CL?$AA?$CL?$AA?5?$AAL?$AAi?$AAb?$AAr?$AAa?$AAr?$AAi?$AAe?$AAs?$AA?5?$AAO?$AAu?$AAt?$AA?5?$AAo?$AAf?$AA?5?$AAR@ 100a11a0     bncs_config.obj
 0003:00001208       ??_C@_1BDG@IINLNKNI@?$AAs?$AAt?$AAd?$AA?3?$AA?3?$AA_?$AAT?$AAr?$AAe?$AAe?$AA_?$AAc?$AAo?$AAn?$AAs?$AAt?$AA_?$AAi?$AAt?$AAe?$AAr?$AAa?$AAt?$AAo?$AAr?$AA?$DM?$AAc?$AAl?$AAa?$AAs?$AAs?$AA?5@ 100a1208     bncs_config.obj
 0003:0000137c       ??_C@_1BO@MEPPHOO@?$AA?$CC?$AAo?$AAu?$AAt?$AA?5?$AAo?$AAf?$AA?5?$AAr?$AAa?$AAn?$AAg?$AAe?$AA?$CC?$AA?$AA@ 100a137c     bncs_config.obj
 0003:000013a0       ??_C@_1EI@FHEHNNNM@?$AAm?$AAa?$AAp?$AA?1?$AAs?$AAe?$AAt?$AA?5?$AAi?$AAt?$AAe?$AAr?$AAa?$AAt?$AAo?$AAr?$AA?5?$AAn?$AAo?$AAt?$AA?5?$AAd?$AAe?$AAr?$AAe?$AAf?$AAe?$AAr?$AAe?$AAn?$AAc?$AAa@ 100a13a0     bncs_config.obj
 0003:000013f8       ??_C@_1BDE@JIAGLJGL@?$AAs?$AAt?$AAd?$AA?3?$AA?3?$AA_?$AAT?$AAr?$AAe?$AAe?$AA_?$AAc?$AAo?$AAn?$AAs?$AAt?$AA_?$AAi?$AAt?$AAe?$AAr?$AAa?$AAt?$AAo?$AAr?$AA?$DM?$AAc?$AAl?$AAa?$AAs?$AAs?$AA?5@ 100a13f8     bncs_config.obj
 0003:0000156c       ??_C@_1CE@IGJMOCCK@?$AAi?$AAn?$AAv?$AAa?$AAl?$AAi?$AAd?$AA?5?$AAo?$AAp?$AAe?$AAr?$AAa?$AAt?$AAo?$AAr?$AA?$DM?$AA?$AA@ 100a156c     bncs_config.obj
 0003:00001598       ??_C@_1EG@OKCGOALM@?$AAm?$AAa?$AAp?$AA?1?$AAs?$AAe?$AAt?$AA?5?$AAi?$AAt?$AAe?$AAr?$AAa?$AAt?$AAo?$AAr?$AA?5?$AAn?$AAo?$AAt?$AA?5?$AAd?$AAe?$AAc?$AAr?$AAe?$AAm?$AAe?$AAn?$AAt?$AAa?$AAb@ 100a1598     bncs_config.obj
 0003:000015f0       ??_C@_1BDG@HLOJGGBJ@?$AAs?$AAt?$AAd?$AA?3?$AA?3?$AA_?$AAT?$AAr?$AAe?$AAe?$AA_?$AAc?$AAo?$AAn?$AAs?$AAt?$AA_?$AAi?$AAt?$AAe?$AAr?$AAa?$AAt?$AAo?$AAr?$AA?$DM?$AAc?$AAl?$AAa?$AAs?$AAs?$AA?5@ 100a15f0     bncs_config.obj
 0003:00001764       ??_C@_0BE@JONHPENG@map?1set?$DMT?$DO?5too?5long?$AA@ 100a1764     bncs_config.obj
 0003:00001780       ??_7?$QValueListPrivate@VparamInfo@@@@6B@ 100a1780     instanceLookup.obj
 0003:0000178c       ??_7?$QValueListPrivate@VcomplexParam@@@@6B@ 100a178c     instanceLookup.obj
 0003:00001798       ??_7?$QValueListPrivate@VcomplexInstance@@@@6B@ 100a1798     instanceLookup.obj
 0003:000017a4       ??_7?$QValueListPrivate@VinstanceInfo@@@@6B@ 100a17a4     instanceLookup.obj
 0003:000017b0       ??_7?$QValueListPrivate@VdeviceTypeInfo@@@@6B@ 100a17b0     instanceLookup.obj
 0003:000017bc       ??_7?$QValueListPrivate@VcomplexType@@@@6B@ 100a17bc     instanceLookup.obj
 0003:000017c8       ??_7?$QValueListNode@VparamInfo@@@@6B@ 100a17c8     instanceLookup.obj
 0003:000017d4       ??_7?$QValueListNode@VcomplexParam@@@@6B@ 100a17d4     instanceLookup.obj
 0003:000017e0       ??_7?$QValueListNode@VcomplexInstance@@@@6B@ 100a17e0     instanceLookup.obj
 0003:000017ec       ??_7?$QValueListNode@VinstanceInfo@@@@6B@ 100a17ec     instanceLookup.obj
 0003:000017f8       ??_7?$QValueListNode@VdeviceTypeInfo@@@@6B@ 100a17f8     instanceLookup.obj
 0003:00001804       ??_7?$QValueListNode@VcomplexType@@@@6B@ 100a1804     instanceLookup.obj
 0003:00001810       ??_7launchAccessor@@6B@    100a1810     launchAccessor.obj
 0003:00001870       ??_C@_05LAPONLG@false?$AA@ 100a1870     launchAccessor.obj
 0003:00001878       ??_C@_04LOAJBDKD@true?$AA@ 100a1878     launchAccessor.obj
 0003:00001880       ??_C@_06OAFDKBLG@launch?$AA@ 100a1880     launchAccessor.obj
 0003:00001888       ??_C@_03BFKAHOOJ@csi?$AA@  100a1888     launchAccessor.obj
 0003:0000188c       ??_C@_0O@BLEGCJOE@rebootoncrash?$AA@ 100a188c     launchAccessor.obj
 0003:0000189c       ??_C@_05EKJCMADO@delay?$AA@ 100a189c     launchAccessor.obj
 0003:000018a4       ??_C@_0P@MHGKLOBA@restartoncrash?$AA@ 100a18a4     launchAccessor.obj
 0003:000018b8       ??_C@_0L@NJNAEGOO@workingdir?$AA@ 100a18b8     launchAccessor.obj
 0003:000018c8       ??_C@_09PBNAMLIK@arguments?$AA@ 100a18c8     launchAccessor.obj
 0003:000018d4       ??_C@_04MEMAJGDJ@name?$AA@ 100a18d4     launchAccessor.obj
 0003:000018dc       ??_C@_0M@MBDKLJIJ@application?$AA@ 100a18dc     launchAccessor.obj
 0003:000018ec       ??_C@_0M@DAIHPDMP@workstation?$AA@ 100a18ec     launchAccessor.obj
 0003:000018fc       ??_C@_07CFAKDIHP@app?5is?5?$AA@ 100a18fc     launchAccessor.obj
 0003:0000190c       ??_7?$QValueListPrivate@VlaunchItem@@@@6B@ 100a190c     launchAccessor.obj
 0003:00001918       ??_7?$QValueListNode@VlaunchItem@@@@6B@ 100a1918     launchAccessor.obj
 0003:00001924       ??_7panelsetsAccessor@@6B@ 100a1924     panelsetsAccessor.obj
 0003:00001984       ??_C@_09CHJNOOIL@panelsets?$AA@ 100a1984     panelsetsAccessor.obj
 0003:00001990       ??_C@_05KJNJLLGA@level?$AA@ 100a1990     panelsetsAccessor.obj
 0003:00001998       ??_C@_05ENKANFLO@class?$AA@ 100a1998     panelsetsAccessor.obj
 0003:000019a0       ??_C@_04OHJIHAFH@None?$AA@ 100a19a0     panelsetsAccessor.obj
 0003:000019a8       ??_C@_05LJDNNBIK@param?$AA@ 100a19a8     panelsetsAccessor.obj
 0003:000019b0       ??_C@_04NHONDGDE@item?$AA@ 100a19b0     panelsetsAccessor.obj
 0003:000019b8       ??_C@_04CGFJFPFD@none?$AA@ 100a19b8     panelsetsAccessor.obj
 0003:000019c0       ??_C@_03KCHOJKKI@set?$AA@  100a19c0     panelsetsAccessor.obj
 0003:000019c8       ??_7?$QValueListPrivate@VpanelsetItem@@@@6B@ 100a19c8     panelsetsAccessor.obj
 0003:000019d4       ??_7?$QValueListNode@VpanelsetItem@@@@6B@ 100a19d4     panelsetsAccessor.obj
 0003:000019e0       ??_7usersAccessor@@6B@     100a19e0     usersAccessor.obj
 0003:00001a40       ??_C@_05PEDPMJAL@users?$AA@ 100a1a40     usersAccessor.obj
 0003:00001a48       ??_C@_08FGKDABPH@panelset?$AA@ 100a1a48     usersAccessor.obj
 0003:00001a54       ??_C@_06NODEDMPP@engset?$AA@ 100a1a54     usersAccessor.obj
 0003:00001a60       ??_7workstationsAccessor@@6B@ 100a1a60     workstationsAccessor.obj
 0003:00001ac0       ??_C@_0N@PPJHCOH@workstations?$AA@ 100a1ac0     workstationsAccessor.obj
 0003:00001ad0       ??_C@_04CCHAHKJA@user?$AA@ 100a1ad0     workstationsAccessor.obj
 0003:00001adc       ??_7workstationSettingsAccessor@@6B@ 100a1adc     workstationSettingsAccessor.obj
 0003:00001b3c       ??_C@_0BF@MIKOFJJI@workstation_settings?$AA@ 100a1b3c     workstationSettingsAccessor.obj
 0003:00001b58       ??_C@_05MFEJDJP@value?$AA@ 100a1b58     workstationSettingsAccessor.obj
 0003:00001b60       ??_C@_07NDLGHPLM@setting?$AA@ 100a1b60     workstationSettingsAccessor.obj
 0003:00001b70       ??_7?$QValueListPrivate@VworkstationSettingsItem@@@@6B@ 100a1b70     workstationSettingsAccessor.obj
 0003:00001b7c       ??_7?$QValueListNode@VworkstationSettingsItem@@@@6B@ 100a1b7c     workstationSettingsAccessor.obj
 0003:00001b84       ??_C@_03ICHNJLJF@key?$AA@  100a1b84     moc_applicationsAccessor.obj
 0003:00001c70       ??_C@_0P@HLEMGMCJ@captionChanged?$AA@ 100a1c70     moc_applicationsAccessor.obj
 0003:00001c84       ??_C@_0N@LPHEECBP@titleChanged?$AA@ 100a1c84     moc_applicationsAccessor.obj
 0003:00001c94       ??_C@_0M@NFCJBEJD@typeChanged?$AA@ 100a1c94     moc_applicationsAccessor.obj
 0003:00001ca4       ??_C@_0M@FPDHCAHG@iconChanged?$AA@ 100a1ca4     moc_applicationsAccessor.obj
 0003:00001cb4       ??_C@_09LNNNGGGI@itemAdded?$AA@ 100a1cb4     moc_applicationsAccessor.obj
 0003:00001cc0       ??_C@_0M@BEKFOPFF@itemDeleted?$AA@ 100a1cc0     moc_applicationsAccessor.obj
 0003:00001cd0       ??_C@_07LBHIGHIH@oldname?$AA@ 100a1cd0     moc_applicationsAccessor.obj
 0003:00001cdc       ??_C@_0M@DLCIMICH@itemRenamed?$AA@ 100a1cdc     moc_applicationsAccessor.obj
 0003:00001cec       ??_C@_05CFEJGMAI@dirty?$AA@ 100a1cec     moc_applicationsAccessor.obj
 0003:00001cf4       ??_C@_0CO@JHFJMNHO@captionChanged?$CIconst?5QString?$CG?0co@ 100a1cf4     moc_applicationsAccessor.obj
 0003:00001d2c       ??_C@_0CM@EHLFGLIE@titleChanged?$CIconst?5QString?$CG?0cons@ 100a1d2c     moc_applicationsAccessor.obj
 0003:00001d60       ??_C@_0CL@MLICEEAA@typeChanged?$CIconst?5QString?$CG?0const@ 100a1d60     moc_applicationsAccessor.obj
 0003:00001d94       ??_C@_0CL@OFKGJGPI@iconChanged?$CIconst?5QString?$CG?0const@ 100a1d94     moc_applicationsAccessor.obj
 0003:00001dc8       ??_C@_0FG@IGAGOLLE@itemAdded?$CIconst?5QString?$CG?0const?5Q@ 100a1dc8     moc_applicationsAccessor.obj
 0003:00001e30       ??_C@_0BM@OCHFFIGM@itemDeleted?$CIconst?5QString?$CG?$CJ?$AA@ 100a1e30     moc_applicationsAccessor.obj
 0003:00001e54       ??_C@_0CL@HNKOOGKL@itemRenamed?$CIconst?5QString?$CG?0const@ 100a1e54     moc_applicationsAccessor.obj
 0003:00001e88       ??_C@_0M@KMMJPIFB@dirty?$CIbool?$CJ?$AA@ 100a1e88     moc_applicationsAccessor.obj
 0003:00001e98       ??_C@_0BF@CEAGAIIH@applicationsAccessor?$AA@ 100a1e98     moc_applicationsAccessor.obj
 0003:00001eb4       ??_C@_07GNAIFCPP@newname?$AA@ 100a1eb4     moc_applicationsAccessor.obj
 0003:00001ec0       ??_C@_02FFBCHCAN@ws?$AA@   100a1ec0     moc_launchAccessor.obj
 0003:0000205c       ??_C@_0M@JKLCPKJ@launchAdded?$AA@ 100a205c     moc_launchAccessor.obj
 0003:0000206c       ??_C@_05GFEDCNLG@wsOld?$AA@ 100a206c     moc_launchAccessor.obj
 0003:00002074       ??_C@_0O@OGMJGDGK@launchRenamed?$AA@ 100a2074     moc_launchAccessor.obj
 0003:00002084       ??_C@_0O@MJEEEEBI@launchDeleted?$AA@ 100a2084     moc_launchAccessor.obj
 0003:00002094       ??_C@_0N@LODKOBNG@itemPromoted?$AA@ 100a2094     moc_launchAccessor.obj
 0003:000020a4       ??_C@_0M@JFEJCEFB@itemDemoted?$AA@ 100a20a4     moc_launchAccessor.obj
 0003:000020b4       ??_C@_0L@KDGNANMD@csiChanged?$AA@ 100a20b4     moc_launchAccessor.obj
 0003:000020c4       ??_C@_0L@GEKJPNDA@rocChanged?$AA@ 100a20c4     moc_launchAccessor.obj
 0003:000020d4       ??_C@_0BD@BGLGHOFF@applicationChanged?$AA@ 100a20d4     moc_launchAccessor.obj
 0003:000020ec       ??_C@_0BC@ELKKAHPM@workingdirChanged?$AA@ 100a20ec     moc_launchAccessor.obj
 0003:00002104       ??_C@_0BB@PDPLOPNN@argumentsChanged?$AA@ 100a2104     moc_launchAccessor.obj
 0003:00002118       ??_C@_0N@KFEGLGBP@delayChanged?$AA@ 100a2118     moc_launchAccessor.obj
 0003:00002128       ??_C@_0EG@DFBPOOC@launchAdded?$CIconst?5QString?$CG?0const@ 100a2128     moc_launchAccessor.obj
 0003:0000217c       ??_C@_0CN@BEFKADHM@launchRenamed?$CIconst?5QString?$CG?0con@ 100a217c     moc_launchAccessor.obj
 0003:000021b8       ??_C@_0EI@EDKJBFHH@launchDeleted?$CIconst?5QString?$CG?0con@ 100a21b8     moc_launchAccessor.obj
 0003:00002210       ??_C@_0DA@POKNPMKA@itemAdded?$CIconst?5QString?$CG?0const?5l@ 100a2210     moc_launchAccessor.obj
 0003:0000224c       ??_C@_0DC@FCJPMENL@itemDeleted?$CIconst?5QString?$CG?0const@ 100a224c     moc_launchAccessor.obj
 0003:00002288       ??_C@_0CB@IHCKEBEG@itemPromoted?$CIconst?5QString?$CG?0int?$CJ@ 100a2288     moc_launchAccessor.obj
 0003:000022b0       ??_C@_0CA@FMMLHBPB@itemDemoted?$CIconst?5QString?$CG?0int?$CJ?$AA@ 100a22b0     moc_launchAccessor.obj
 0003:000022d8       ??_C@_0CK@DKOCFHKB@csiChanged?$CIconst?5QString?$CG?0const?5@ 100a22d8     moc_launchAccessor.obj
 0003:0000230c       ??_C@_0CA@OLACBLMO@rocChanged?$CIconst?5QString?$CG?0bool?$CJ?$AA@ 100a230c     moc_launchAccessor.obj
 0003:00002334       ??_C@_0DG@JFDMCPJJ@applicationChanged?$CIconst?5QString@ 100a2334     moc_launchAccessor.obj
 0003:00002374       ??_C@_0DF@FLCNJEMJ@workingdirChanged?$CIconst?5QString?$CG@ 100a2374     moc_launchAccessor.obj
 0003:000023b4       ??_C@_0DE@MPJCHLNJ@argumentsChanged?$CIconst?5QString?$CG?0@ 100a23b4     moc_launchAccessor.obj
 0003:000023f4       ??_C@_0CF@IKLIOHMN@delayChanged?$CIconst?5QString?$CG?0int?0@ 100a23f4     moc_launchAccessor.obj
 0003:00002420       ??_C@_0P@LPBLMAPF@launchAccessor?$AA@ 100a2420     moc_launchAccessor.obj
 0003:00002434       ??_C@_03BCNGPMIN@roc?$AA@  100a2434     moc_launchAccessor.obj
 0003:00002438       ??_C@_04DONFEANM@list?$AA@ 100a2438     moc_launchAccessor.obj
 0003:00002440       ??_C@_0P@KCINIILG@launchItemList?$AA@ 100a2440     moc_launchAccessor.obj
 0003:00002454       ??_C@_05LDMBDAMO@wsNew?$AA@ 100a2454     moc_launchAccessor.obj
 0003:0000245c       ??_C@_0L@POMONLCM@launchItem?$AA@ 100a245c     moc_launchAccessor.obj
 0003:0000246c       ??_C@_03PCBNCGFH@pos?$AA@  100a246c     moc_launchAccessor.obj
 0003:00002470       ??_C@_03DMHICLNI@row?$AA@  100a2470     moc_launchAccessor.obj
 0003:00002560       ??_C@_0EF@CBBIIPAA@panelsetAdded?$CIconst?5QString?$CG?0con@ 100a2560     moc_panelsetsAccessor.obj
 0003:000025b4       ??_C@_0CP@ODPANJHP@panelsetRenamed?$CIconst?5QString?$CG?0c@ 100a25b4     moc_panelsetsAccessor.obj
 0003:000025f0       ??_C@_0EH@EJMGAGEB@panelsetDeleted?$CIconst?5QString?$CG?0c@ 100a25f0     moc_panelsetsAccessor.obj
 0003:00002648       ??_C@_0DC@GJIKMPHC@itemAdded?$CIconst?5QString?$CG?0const?5p@ 100a2648     moc_panelsetsAccessor.obj
 0003:00002684       ??_C@_0DE@INEDHLOD@itemDeleted?$CIconst?5QString?$CG?0const@ 100a2684     moc_panelsetsAccessor.obj
 0003:000026c4       ??_C@_0DF@NEJLAMMK@itemPromoted?$CIconst?5QString?$CG?0cons@ 100a26c4     moc_panelsetsAccessor.obj
 0003:00002704       ??_C@_0DE@HCDBOHAO@itemDemoted?$CIconst?5QString?$CG?0const@ 100a2704     moc_panelsetsAccessor.obj
 0003:00002744       ??_C@_0O@CGAIDNLL@panelsetAdded?$AA@ 100a2744     moc_panelsetsAccessor.obj
 0003:00002754       ??_C@_0M@GFGEHCJM@panelsetOld?$AA@ 100a2754     moc_panelsetsAccessor.obj
 0003:00002764       ??_C@_0BA@GNIEENFC@panelsetRenamed?$AA@ 100a2764     moc_panelsetsAccessor.obj
 0003:00002778       ??_C@_0BA@ECAJGKCA@panelsetDeleted?$AA@ 100a2778     moc_panelsetsAccessor.obj
 0003:0000278c       ??_C@_0BC@GDEHMIMG@panelsetsAccessor?$AA@ 100a278c     moc_panelsetsAccessor.obj
 0003:000027a4       ??_C@_0BB@IKAEHNAG@panelsetItemList?$AA@ 100a27a4     moc_panelsetsAccessor.obj
 0003:000027b8       ??_C@_0M@LDOGGPOE@panelsetNew?$AA@ 100a27b8     moc_panelsetsAccessor.obj
 0003:000027c8       ??_C@_0N@DCKAEOBA@panelsetItem?$AA@ 100a27c8     moc_panelsetsAccessor.obj
 0003:000027d8       ??_C@_08OAGMDKAF@position?$AA@ 100a27d8     moc_panelsetsAccessor.obj
 0003:00002894       ??_C@_0BA@KAPJNIEH@panelsetChanged?$AA@ 100a2894     moc_usersAccessor.obj
 0003:000028a8       ??_C@_0O@GADJOHIH@engsetChanged?$AA@ 100a28a8     moc_usersAccessor.obj
 0003:000028b8       ??_C@_0CP@LFBKFJMN@panelsetChanged?$CIconst?5QString?$CG?0c@ 100a28b8     moc_usersAccessor.obj
 0003:000028f0       ??_C@_0CN@JEAAGJAN@engsetChanged?$CIconst?5QString?$CG?0con@ 100a28f0     moc_usersAccessor.obj
 0003:00002928       ??_C@_0DI@KCPJKJKG@itemAdded?$CIconst?5QString?$CG?0const?5Q@ 100a2928     moc_usersAccessor.obj
 0003:0000296c       ??_C@_0O@KAOHPPGC@usersAccessor?$AA@ 100a296c     moc_usersAccessor.obj
 0003:00002a2c       ??_C@_0M@PFGDDONI@nameChanged?$AA@ 100a2a2c     moc_workstationsAccessor.obj
 0003:00002a3c       ??_C@_0M@KFAFGFGM@userChanged?$AA@ 100a2a3c     moc_workstationsAccessor.obj
 0003:00002a4c       ??_C@_0CL@CJDPEJLB@nameChanged?$CIconst?5QString?$CG?0const@ 100a2a4c     moc_workstationsAccessor.obj
 0003:00002a80       ??_C@_0CL@LGIIJPMH@userChanged?$CIconst?5QString?$CG?0const@ 100a2a80     moc_workstationsAccessor.obj
 0003:00002ab4       ??_C@_0BF@KOLPEIPD@workstationsAccessor?$AA@ 100a2ab4     moc_workstationsAccessor.obj
 0003:00002b7c       ??_C@_0BB@JHNFDCMN@workstationAdded?$AA@ 100a2b7c     moc_workstationSettingsAccessor.obj
 0003:00002b90       ??_C@_0BD@IEFODPGO@workstationRenamed?$AA@ 100a2b90     moc_workstationSettingsAccessor.obj
 0003:00002ba8       ??_C@_0BD@KLNDBIBM@workstationDeleted?$AA@ 100a2ba8     moc_workstationSettingsAccessor.obj
 0003:00002bc0       ??_C@_0EE@NMMNNDAH@workstationAdded?$CIconst?5QString?$CG?0@ 100a2bc0     moc_workstationSettingsAccessor.obj
 0003:00002c14       ??_C@_0DC@EPHKBPJO@workstationRenamed?$CIconst?5QString@ 100a2c14     moc_workstationSettingsAccessor.obj
 0003:00002c50       ??_C@_0EG@GNJNNMLD@workstationDeleted?$CIconst?5QString@ 100a2c50     moc_workstationSettingsAccessor.obj
 0003:00002ca4       ??_C@_0DJ@DGCCBAGH@itemAdded?$CIconst?5QString?$CG?0const?5w@ 100a2ca4     moc_workstationSettingsAccessor.obj
 0003:00002ce8       ??_C@_0DL@EDNOGAEJ@itemDeleted?$CIconst?5QString?$CG?0const@ 100a2ce8     moc_workstationSettingsAccessor.obj
 0003:00002d30       ??_C@_0BM@KBHKEIFD@workstationSettingsAccessor?$AA@ 100a2d30     moc_workstationSettingsAccessor.obj
 0003:00002d54       ??_C@_0BM@LMOMAABA@workstationSettingsItemList?$AA@ 100a2d54     moc_workstationSettingsAccessor.obj
 0003:00002d78       ??_C@_0BI@HEOGEJDC@workstationSettingsItem?$AA@ 100a2d78     moc_workstationSettingsAccessor.obj
 0003:00002d98       ??_C@_1MC@KPMPFEII@?$AA?$CI?$AA_?$AA_?$AAo?$AAn?$AAe?$AAx?$AAi?$AAt?$AAb?$AAe?$AAg?$AAi?$AAn?$AA?5?$AA?$CB?$AA?$DN?$AA?5?$AAN?$AAU?$AAL?$AAL?$AA?5?$AA?$CG?$AA?$CG?$AA?5?$AA_?$AA_?$AAo?$AAn?$AAe?$AAx@ 100a2d98     MSVCRTD:atonexit.obj
 0003:00002e80       ??_C@_1FK@IGIDCAPD@?$AAf?$AA?3?$AA?2?$AAd?$AAd?$AA?2?$AAv?$AAc?$AAt?$AAo?$AAo?$AAl?$AAs?$AA?2?$AAc?$AAr?$AAt?$AA?2?$AAc?$AAr?$AAt?$AAw?$AA3?$AA2?$AA?2?$AAd?$AAl?$AAl?$AAs?$AAt?$AAu?$AAf@ 100a2e80     MSVCRTD:atonexit.obj
 0003:00002eec       ??_C@_0CN@LMJJPMEG@f?3?2dd?2vctools?2crt?2crtw32?2dllstuf@ 100a2eec     MSVCRTD:atonexit.obj
 0003:00002f22       ?value@?$integral_constant@_N$0A@@std@@2_NB 100a2f22     MSVCRTD:ti_inst.obj
 0003:00002f23       ?value@?$integral_constant@_N$00@std@@2_NB 100a2f23     MSVCRTD:ti_inst.obj
 0003:00002f28       ??_7type_info@@6B@         100a2f28     MSVCRTD:ti_inst.obj
 0003:00002f30       __pDefaultRawDllMain       100a2f30     MSVCRTD:crtdll.obj
 0003:00002f30       __pRawDllMain              100a2f30     MSVCRTD:crtdll.obj
 0003:00002f34       ??_C@_0CL@CCAGLLEM@f?3?2dd?2vctools?2crt?2crtw32?2dllstuf@ 100a2f34     MSVCRTD:crtdll.obj
 0003:00003028       ??_C@_0NN@NGPKDKPD@The?5value?5of?5ESP?5was?5not?5properl@ 100a3028     MSVCRTD:error.obj
 0003:00003138       ??_C@_0BBN@GPMLNJCF@A?5cast?5to?5a?5smaller?5data?5type?5ha@ 100a3138     MSVCRTD:error.obj
 0003:00003290       ??_C@_0BN@FFOINMNJ@Stack?5memory?5was?5corrupted?6?$AN?$AA@ 100a3290     MSVCRTD:error.obj
 0003:000032b4       ??_C@_0DG@HKJMLLLP@A?5local?5variable?5was?5used?5before@ 100a32b4     MSVCRTD:error.obj
 0003:000032f4       ??_C@_0CM@NGINOKPC@Stack?5memory?5around?5_alloca?5was?5@ 100a32f4     MSVCRTD:error.obj
 0003:00003328       ??_C@_0BO@GNIAFIKK@Unknown?5Runtime?5Check?5Error?6?$AN?$AA@ 100a3328     MSVCRTD:error.obj
 0003:00003350       ??_C@_1GM@OLMCBDMB@?$AAR?$AAu?$AAn?$AAt?$AAi?$AAm?$AAe?$AA?5?$AAC?$AAh?$AAe?$AAc?$AAk?$AA?5?$AAE?$AAr?$AAr?$AAo?$AAr?$AA?4?$AA?6?$AA?$AN?$AA?5?$AAU?$AAn?$AAa?$AAb?$AAl?$AAe?$AA?5?$AAt?$AAo@ 100a3350     MSVCRTD:error.obj
 0003:000033d8       ??_C@_1EA@NFKNIFJP@?$AAR?$AAu?$AAn?$AA?9?$AAT?$AAi?$AAm?$AAe?$AA?5?$AAC?$AAh?$AAe?$AAc?$AAk?$AA?5?$AAF?$AAa?$AAi?$AAl?$AAu?$AAr?$AAe?$AA?5?$AA?$CD?$AA?$CF?$AAd?$AA?5?$AA?9?$AA?5?$AA?$CF?$AAs?$AA?$AA@ 100a33d8     MSVCRTD:error.obj
 0003:00003424       ??_C@_0BB@PFFGGCJP@Unknown?5Filename?$AA@ 100a3424     MSVCRTD:error.obj
 0003:00003438       ??_C@_0BE@GNBOBNCK@Unknown?5Module?5Name?$AA@ 100a3438     MSVCRTD:error.obj
 0003:00003450       ??_C@_0CA@IODNCDPG@Run?9Time?5Check?5Failure?5?$CD?$CFd?5?9?5?$CFs?$AA@ 100a3450     MSVCRTD:error.obj
 0003:00003478       ??_C@_0CG@IAFNJNEE@Stack?5corrupted?5near?5unknown?5var@ 100a3478     MSVCRTD:error.obj
 0003:000034a8       ??_C@_05MKKEDADM@?$CF?42X?5?$AA@ 100a34a8     MSVCRTD:error.obj
 0003:000034b0       ??_C@_1BG@OILDLIOJ@?$AAu?$AAs?$AAe?$AAr?$AA3?$AA2?$AA?4?$AAd?$AAl?$AAl?$AA?$AA@ 100a34b0     MSVCRTD:error.obj
 0003:000034cc       ??_C@_09FOPFMPEJ@wsprintfA?$AA@ 100a34cc     MSVCRTD:error.obj
 0003:000034d8       ??_C@_0EJ@LJKNEOLN@Stack?5area?5around?5_alloca?5memory@ 100a34d8     MSVCRTD:error.obj
 0003:00003530       ??_C@_08OMAHNMHJ@?6Data?3?5?$DM?$AA@ 100a3530     MSVCRTD:error.obj
 0003:0000353c       ??_C@_0CK@DKGBICFE@?6Allocation?5number?5within?5this?5f@ 100a353c     MSVCRTD:error.obj
 0003:00003570       ??_C@_07DFDJCKFN@?6Size?3?5?$AA@ 100a3570     MSVCRTD:error.obj
 0003:0000357c       ??_C@_0N@MHFFIMFG@?6Address?3?50x?$AA@ 100a357c     MSVCRTD:error.obj
 0003:00003590       ??_C@_0EI@CLEPFNGI@Stack?5area?5around?5_alloca?5memory@ 100a3590     MSVCRTD:error.obj
 0003:000035e8       ??_C@_0BC@KIBAILCI@?$CFs?$CFs?$CFp?$CFs?$CFld?$CFs?$CFd?$CFs?$AA@ 100a35e8     MSVCRTD:error.obj
 0003:00003600       ??_C@_01EEMJAFIK@?6?$AA@   100a3600     MSVCRTD:error.obj
 0003:00003604       ??_C@_02LLMPMKNF@?$DO?5?$AA@ 100a3604     MSVCRTD:error.obj
 0003:00003608       ??_C@_08KJEDNCKC@?$CFs?$CFs?$CFs?$CFs?$AA@ 100a3608     MSVCRTD:error.obj
 0003:00003614       ??_C@_0DE@OHJBPMBP@A?5variable?5is?5being?5used?5without@ 100a3614     MSVCRTD:error.obj
 0003:00003678       ??_C@_0BJ@HEGAHDFO@Stack?5pointer?5corruption?$AA@ 100a3678     MSVCRTD:userapi.obj
 0003:00003698       ??_C@_0CK@FEGOIOPB@Cast?5to?5smaller?5type?5causing?5los@ 100a3698     MSVCRTD:userapi.obj
 0003:000036cc       ??_C@_0BI@CIGMDCBH@Stack?5memory?5corruption?$AA@ 100a36cc     MSVCRTD:userapi.obj
 0003:000036e8       ??_C@_0CK@CNLNOEPB@Local?5variable?5used?5before?5initi@ 100a36e8     MSVCRTD:userapi.obj
 0003:0000371c       ??_C@_0BP@OGBCLIBO@Stack?5around?5_alloca?5corrupted?$AA@ 100a371c     MSVCRTD:userapi.obj
 0003:00003744       ?ProcessDetach@NativeDll@<CrtImplementationDetails>@@0IB 100a3744     MSVCRTD:initsect.obj
 0003:00003748       ?ProcessAttach@NativeDll@<CrtImplementationDetails>@@0IB 100a3748     MSVCRTD:initsect.obj
 0003:0000374c       ?ThreadAttach@NativeDll@<CrtImplementationDetails>@@0IB 100a374c     MSVCRTD:initsect.obj
 0003:00003750       ?ThreadDetach@NativeDll@<CrtImplementationDetails>@@0IB 100a3750     MSVCRTD:initsect.obj
 0003:00003754       ?ProcessVerifier@NativeDll@<CrtImplementationDetails>@@0IB 100a3754     MSVCRTD:initsect.obj
 0003:000037a4       ?LocalIdBitWidth@CrossScopeId@CodeViewInfo@@2IB 100a37a4     MSVCRTD:pdblkup.obj
 0003:000037a8       ?IdScopeBitWidth@CrossScopeId@CodeViewInfo@@2IB 100a37a8     MSVCRTD:pdblkup.obj
 0003:000037ac       ?StartCrossScopeId@CrossScopeId@CodeViewInfo@@2IB 100a37ac     MSVCRTD:pdblkup.obj
 0003:000037b0       ?LocalIdMask@CrossScopeId@CodeViewInfo@@2IB 100a37b0     MSVCRTD:pdblkup.obj
 0003:000037b4       ?ScopeIdMask@CrossScopeId@CodeViewInfo@@2IB 100a37b4     MSVCRTD:pdblkup.obj
 0003:000037b8       ?MaxLocalId@CrossScopeId@CodeViewInfo@@2IB 100a37b8     MSVCRTD:pdblkup.obj
 0003:000037bc       ?MaxScopeId@CrossScopeId@CodeViewInfo@@2IB 100a37bc     MSVCRTD:pdblkup.obj
 0003:000037c0       ??_C@_1BK@GAEMIDIL@?$AAA?$AAD?$AAV?$AAA?$AAP?$AAI?$AA3?$AA2?$AA?4?$AAD?$AAL?$AAL?$AA?$AA@ 100a37c0     MSVCRTD:pdblkup.obj
 0003:000037e0       ??_C@_0O@COHOBMLB@RegOpenKeyExW?$AA@ 100a37e0     MSVCRTD:pdblkup.obj
 0003:000037f0       ??_C@_0BB@GLNAEDBD@RegQueryValueExW?$AA@ 100a37f0     MSVCRTD:pdblkup.obj
 0003:00003804       ??_C@_0M@HLOHPNFA@RegCloseKey?$AA@ 100a3804     MSVCRTD:pdblkup.obj
 0003:00003818       ??_C@_1FM@EGIBBNPP@?$AAS?$AAO?$AAF?$AAT?$AAW?$AAA?$AAR?$AAE?$AA?2?$AAM?$AAi?$AAc?$AAr?$AAo?$AAs?$AAo?$AAf?$AAt?$AA?2?$AAV?$AAi?$AAs?$AAu?$AAa?$AAl?$AAS?$AAt?$AAu?$AAd?$AAi?$AAo?$AA?2@ 100a3818     MSVCRTD:pdblkup.obj
 0003:00003888       ??_C@_1BG@EABPBLLF@?$AAP?$AAr?$AAo?$AAd?$AAu?$AAc?$AAt?$AAD?$AAi?$AAr?$AA?$AA@ 100a3888     MSVCRTD:pdblkup.obj
 0003:000038c8       ??_C@_1BC@EOIMGOME@?$AAM?$AAS?$AAP?$AAD?$AAB?$AA1?$AA2?$AA0?$AA?$AA@ 100a38c8     MSVCRTD:pdblkup.obj
 0003:000038e0       ??_C@_0BB@KCIACLNC@PDBOpenValidate5?$AA@ 100a38e0     MSVCRTD:pdblkup.obj
 0003:000038f4       ??_C@_01KDCPPGHE@r?$AA@    100a38f4     MSVCRTD:pdblkup.obj
 0003:000038f8       __load_config_used         100a38f8     MSVCRTD:loadcfg.obj
 0003:00003ca8       ??_R4QDomNode@@6B@         100a3ca8     applicationsAccessor.obj
 0003:00003cc0       ??_R3QDomNode@@8           100a3cc0     applicationsAccessor.obj
 0003:00003cd4       ??_R2QDomNode@@8           100a3cd4     applicationsAccessor.obj
 0003:00003cdc       ??_R1A@?0A@EA@QDomNode@@8  100a3cdc     applicationsAccessor.obj
 0003:00003d00       ??_R4applicationsAccessor@@6B@ 100a3d00     applicationsAccessor.obj
 0003:00003d18       ??_R3applicationsAccessor@@8 100a3d18     applicationsAccessor.obj
 0003:00003d2c       ??_R2applicationsAccessor@@8 100a3d2c     applicationsAccessor.obj
 0003:00003d3c       ??_R1A@?0A@EA@applicationsAccessor@@8 100a3d3c     applicationsAccessor.obj
 0003:00003d60       ??_R1A@?0A@EA@QObject@@8   100a3d60     applicationsAccessor.obj
 0003:00003d84       ??_R3QObject@@8            100a3d84     applicationsAccessor.obj
 0003:00003d98       ??_R2QObject@@8            100a3d98     applicationsAccessor.obj
 0003:00003da4       ??_R13?0A@EA@Qt@@8         100a3da4     applicationsAccessor.obj
 0003:00003dc8       ??_R3Qt@@8                 100a3dc8     applicationsAccessor.obj
 0003:00003ddc       ??_R2Qt@@8                 100a3ddc     applicationsAccessor.obj
 0003:00003de4       ??_R1A@?0A@EA@Qt@@8        100a3de4     applicationsAccessor.obj
 0003:00003e08       ??_R4error_category@std@@6B@ 100a3e08     applicationsAccessor.obj
 0003:00003e20       ??_R3error_category@std@@8 100a3e20     applicationsAccessor.obj
 0003:00003e34       ??_R2error_category@std@@8 100a3e34     applicationsAccessor.obj
 0003:00003e3c       ??_R1A@?0A@EA@error_category@std@@8 100a3e3c     applicationsAccessor.obj
 0003:00003e60       ??_R4_Generic_error_category@std@@6B@ 100a3e60     applicationsAccessor.obj
 0003:00003e78       ??_R3_Generic_error_category@std@@8 100a3e78     applicationsAccessor.obj
 0003:00003e8c       ??_R2_Generic_error_category@std@@8 100a3e8c     applicationsAccessor.obj
 0003:00003e98       ??_R1A@?0A@EA@_Generic_error_category@std@@8 100a3e98     applicationsAccessor.obj
 0003:00003ebc       ??_R4_Iostream_error_category@std@@6B@ 100a3ebc     applicationsAccessor.obj
 0003:00003ed4       ??_R3_Iostream_error_category@std@@8 100a3ed4     applicationsAccessor.obj
 0003:00003ee8       ??_R2_Iostream_error_category@std@@8 100a3ee8     applicationsAccessor.obj
 0003:00003ef8       ??_R1A@?0A@EA@_Iostream_error_category@std@@8 100a3ef8     applicationsAccessor.obj
 0003:00003f1c       ??_R4_System_error_category@std@@6B@ 100a3f1c     applicationsAccessor.obj
 0003:00003f34       ??_R3_System_error_category@std@@8 100a3f34     applicationsAccessor.obj
 0003:00003f48       ??_R2_System_error_category@std@@8 100a3f48     applicationsAccessor.obj
 0003:00003f58       ??_R1A@?0A@EA@_System_error_category@std@@8 100a3f58     applicationsAccessor.obj
 0003:00003f7c       ??_R4QDomDocument@@6B@     100a3f7c     bncs_config.obj
 0003:00003f94       ??_R3QDomDocument@@8       100a3f94     bncs_config.obj
 0003:00003fa8       ??_R2QDomDocument@@8       100a3fa8     bncs_config.obj
 0003:00003fb4       ??_R1A@?0A@EA@QDomDocument@@8 100a3fb4     bncs_config.obj
 0003:00003fd8       ??_R4bncs_config@@6B@      100a3fd8     bncs_config.obj
 0003:00003ff0       ??_R3bncs_config@@8        100a3ff0     bncs_config.obj
 0003:00004004       ??_R2bncs_config@@8        100a4004     bncs_config.obj
 0003:0000400c       ??_R1A@?0A@EA@bncs_config@@8 100a400c     bncs_config.obj
 0003:00004030       ??_R4docCache@@6B@         100a4030     bncs_config.obj
 0003:00004048       ??_R3docCache@@8           100a4048     bncs_config.obj
 0003:0000405c       ??_R2docCache@@8           100a405c     bncs_config.obj
 0003:00004084       ??_R1A@?0A@EA@docCache@@8  100a4084     bncs_config.obj
 0003:000040a8       ??_R13?0A@EA@?$map@VQString@@PAVcachedData@@U?$less@VQString@@@std@@V?$allocator@U?$pair@$$CBVQString@@PAVcachedData@@@std@@@4@@std@@8 100a40a8     bncs_config.obj
 0003:000040cc       ??_R3?$map@VQString@@PAVcachedData@@U?$less@VQString@@@std@@V?$allocator@U?$pair@$$CBVQString@@PAVcachedData@@@std@@@4@@std@@8 100a40cc     bncs_config.obj
 0003:000040e0       ??_R2?$map@VQString@@PAVcachedData@@U?$less@VQString@@@std@@V?$allocator@U?$pair@$$CBVQString@@PAVcachedData@@@std@@@4@@std@@8 100a40e0     bncs_config.obj
 0003:00004104       ??_R1A@?0A@EA@?$map@VQString@@PAVcachedData@@U?$less@VQString@@@std@@V?$allocator@U?$pair@$$CBVQString@@PAVcachedData@@@std@@@4@@std@@8 100a4104     bncs_config.obj
 0003:00004128       ??_R1A@?0A@EA@?$_Tree@V?$_Tmap_traits@VQString@@PAVcachedData@@U?$less@VQString@@@std@@V?$allocator@U?$pair@$$CBVQString@@PAVcachedData@@@std@@@4@$0A@@std@@@std@@8 100a4128     bncs_config.obj
 0003:0000414c       ??_R3?$_Tree@V?$_Tmap_traits@VQString@@PAVcachedData@@U?$less@VQString@@@std@@V?$allocator@U?$pair@$$CBVQString@@PAVcachedData@@@std@@@4@$0A@@std@@@std@@8 100a414c     bncs_config.obj
 0003:00004160       ??_R2?$_Tree@V?$_Tmap_traits@VQString@@PAVcachedData@@U?$less@VQString@@@std@@V?$allocator@U?$pair@$$CBVQString@@PAVcachedData@@@std@@@4@$0A@@std@@@std@@8 100a4160     bncs_config.obj
 0003:00004180       ??_R1A@?0A@EA@?$_Tree_comp@$0A@V?$_Tmap_traits@VQString@@PAVcachedData@@U?$less@VQString@@@std@@V?$allocator@U?$pair@$$CBVQString@@PAVcachedData@@@std@@@4@$0A@@std@@@std@@8 100a4180     bncs_config.obj
 0003:000041a4       ??_R3?$_Tree_comp@$0A@V?$_Tmap_traits@VQString@@PAVcachedData@@U?$less@VQString@@@std@@V?$allocator@U?$pair@$$CBVQString@@PAVcachedData@@@std@@@4@$0A@@std@@@std@@8 100a41a4     bncs_config.obj
 0003:000041b8       ??_R2?$_Tree_comp@$0A@V?$_Tmap_traits@VQString@@PAVcachedData@@U?$less@VQString@@@std@@V?$allocator@U?$pair@$$CBVQString@@PAVcachedData@@@std@@@4@$0A@@std@@@std@@8 100a41b8     bncs_config.obj
 0003:000041d4       ??_R1A@?0A@EA@?$_Tree_buy@U?$pair@$$CBVQString@@PAVcachedData@@@std@@V?$allocator@U?$pair@$$CBVQString@@PAVcachedData@@@std@@@2@@std@@8 100a41d4     bncs_config.obj
 0003:000041f8       ??_R3?$_Tree_buy@U?$pair@$$CBVQString@@PAVcachedData@@@std@@V?$allocator@U?$pair@$$CBVQString@@PAVcachedData@@@std@@@2@@std@@8 100a41f8     bncs_config.obj
 0003:0000420c       ??_R2?$_Tree_buy@U?$pair@$$CBVQString@@PAVcachedData@@@std@@V?$allocator@U?$pair@$$CBVQString@@PAVcachedData@@@std@@@2@@std@@8 100a420c     bncs_config.obj
 0003:00004220       ??_R1A@?0A@EA@?$_Tree_alloc@$0A@U?$_Tree_base_types@U?$pair@$$CBVQString@@PAVcachedData@@@std@@V?$allocator@U?$pair@$$CBVQString@@PAVcachedData@@@std@@@2@@std@@@std@@8 100a4220     bncs_config.obj
 0003:00004244       ??_R3?$_Tree_alloc@$0A@U?$_Tree_base_types@U?$pair@$$CBVQString@@PAVcachedData@@@std@@V?$allocator@U?$pair@$$CBVQString@@PAVcachedData@@@std@@@2@@std@@@std@@8 100a4244     bncs_config.obj
 0003:00004258       ??_R2?$_Tree_alloc@$0A@U?$_Tree_base_types@U?$pair@$$CBVQString@@PAVcachedData@@@std@@V?$allocator@U?$pair@$$CBVQString@@PAVcachedData@@@std@@@2@@std@@@std@@8 100a4258     bncs_config.obj
 0003:00004268       ??_R1A@?0A@EA@?$_Tree_val@U?$_Tree_simple_types@U?$pair@$$CBVQString@@PAVcachedData@@@std@@@std@@@std@@8 100a4268     bncs_config.obj
 0003:0000428c       ??_R3?$_Tree_val@U?$_Tree_simple_types@U?$pair@$$CBVQString@@PAVcachedData@@@std@@@std@@@std@@8 100a428c     bncs_config.obj
 0003:000042a0       ??_R2?$_Tree_val@U?$_Tree_simple_types@U?$pair@$$CBVQString@@PAVcachedData@@@std@@@std@@@std@@8 100a42a0     bncs_config.obj
 0003:000042ac       ??_R1A@?0A@EA@_Container_base12@std@@8 100a42ac     bncs_config.obj
 0003:000042d0       ??_R3_Container_base12@std@@8 100a42d0     bncs_config.obj
 0003:000042e4       ??_R2_Container_base12@std@@8 100a42e4     bncs_config.obj
 0003:000042ec       ??_R13?0A@EA@?$_Tree@V?$_Tmap_traits@VQString@@PAVcachedData@@U?$less@VQString@@@std@@V?$allocator@U?$pair@$$CBVQString@@PAVcachedData@@@std@@@4@$0A@@std@@@std@@8 100a42ec     bncs_config.obj
 0003:00004310       ??_R13?0A@EA@?$_Tree_comp@$0A@V?$_Tmap_traits@VQString@@PAVcachedData@@U?$less@VQString@@@std@@V?$allocator@U?$pair@$$CBVQString@@PAVcachedData@@@std@@@4@$0A@@std@@@std@@8 100a4310     bncs_config.obj
 0003:00004334       ??_R13?0A@EA@?$_Tree_buy@U?$pair@$$CBVQString@@PAVcachedData@@@std@@V?$allocator@U?$pair@$$CBVQString@@PAVcachedData@@@std@@@2@@std@@8 100a4334     bncs_config.obj
 0003:00004358       ??_R13?0A@EA@?$_Tree_alloc@$0A@U?$_Tree_base_types@U?$pair@$$CBVQString@@PAVcachedData@@@std@@V?$allocator@U?$pair@$$CBVQString@@PAVcachedData@@@std@@@2@@std@@@std@@8 100a4358     bncs_config.obj
 0003:0000437c       ??_R13?0A@EA@?$_Tree_val@U?$_Tree_simple_types@U?$pair@$$CBVQString@@PAVcachedData@@@std@@@std@@@std@@8 100a437c     bncs_config.obj
 0003:000043a0       ??_R13?0A@EA@_Container_base12@std@@8 100a43a0     bncs_config.obj
 0003:000043c4       ??_R13?0A@EA@QShared@@8    100a43c4     instanceLookup.obj
 0003:000043e8       ??_R3QShared@@8            100a43e8     instanceLookup.obj
 0003:000043fc       ??_R2QShared@@8            100a43fc     instanceLookup.obj
 0003:00004404       ??_R1A@?0A@EA@QShared@@8   100a4404     instanceLookup.obj
 0003:00004428       ??_R4?$QValueListPrivate@VparamInfo@@@@6B@ 100a4428     instanceLookup.obj
 0003:00004440       ??_R3?$QValueListPrivate@VparamInfo@@@@8 100a4440     instanceLookup.obj
 0003:00004454       ??_R2?$QValueListPrivate@VparamInfo@@@@8 100a4454     instanceLookup.obj
 0003:00004460       ??_R1A@?0A@EA@?$QValueListPrivate@VparamInfo@@@@8 100a4460     instanceLookup.obj
 0003:00004484       ??_R4?$QValueListNode@VparamInfo@@@@6B@ 100a4484     instanceLookup.obj
 0003:0000449c       ??_R3?$QValueListNode@VparamInfo@@@@8 100a449c     instanceLookup.obj
 0003:000044b0       ??_R2?$QValueListNode@VparamInfo@@@@8 100a44b0     instanceLookup.obj
 0003:000044b8       ??_R1A@?0A@EA@?$QValueListNode@VparamInfo@@@@8 100a44b8     instanceLookup.obj
 0003:000044dc       ??_R4?$QValueListPrivate@VcomplexParam@@@@6B@ 100a44dc     instanceLookup.obj
 0003:000044f4       ??_R3?$QValueListPrivate@VcomplexParam@@@@8 100a44f4     instanceLookup.obj
 0003:00004508       ??_R2?$QValueListPrivate@VcomplexParam@@@@8 100a4508     instanceLookup.obj
 0003:00004514       ??_R1A@?0A@EA@?$QValueListPrivate@VcomplexParam@@@@8 100a4514     instanceLookup.obj
 0003:00004538       ??_R4?$QValueListNode@VcomplexParam@@@@6B@ 100a4538     instanceLookup.obj
 0003:00004550       ??_R3?$QValueListNode@VcomplexParam@@@@8 100a4550     instanceLookup.obj
 0003:00004564       ??_R2?$QValueListNode@VcomplexParam@@@@8 100a4564     instanceLookup.obj
 0003:0000456c       ??_R1A@?0A@EA@?$QValueListNode@VcomplexParam@@@@8 100a456c     instanceLookup.obj
 0003:00004590       ??_R4?$QValueListPrivate@VcomplexInstance@@@@6B@ 100a4590     instanceLookup.obj
 0003:000045a8       ??_R3?$QValueListPrivate@VcomplexInstance@@@@8 100a45a8     instanceLookup.obj
 0003:000045bc       ??_R2?$QValueListPrivate@VcomplexInstance@@@@8 100a45bc     instanceLookup.obj
 0003:000045c8       ??_R1A@?0A@EA@?$QValueListPrivate@VcomplexInstance@@@@8 100a45c8     instanceLookup.obj
 0003:000045ec       ??_R4?$QValueListNode@VcomplexInstance@@@@6B@ 100a45ec     instanceLookup.obj
 0003:00004604       ??_R3?$QValueListNode@VcomplexInstance@@@@8 100a4604     instanceLookup.obj
 0003:00004618       ??_R2?$QValueListNode@VcomplexInstance@@@@8 100a4618     instanceLookup.obj
 0003:00004620       ??_R1A@?0A@EA@?$QValueListNode@VcomplexInstance@@@@8 100a4620     instanceLookup.obj
 0003:00004644       ??_R4?$QValueListPrivate@VinstanceInfo@@@@6B@ 100a4644     instanceLookup.obj
 0003:0000465c       ??_R3?$QValueListPrivate@VinstanceInfo@@@@8 100a465c     instanceLookup.obj
 0003:00004670       ??_R2?$QValueListPrivate@VinstanceInfo@@@@8 100a4670     instanceLookup.obj
 0003:0000467c       ??_R1A@?0A@EA@?$QValueListPrivate@VinstanceInfo@@@@8 100a467c     instanceLookup.obj
 0003:000046a0       ??_R4?$QValueListNode@VinstanceInfo@@@@6B@ 100a46a0     instanceLookup.obj
 0003:000046b8       ??_R3?$QValueListNode@VinstanceInfo@@@@8 100a46b8     instanceLookup.obj
 0003:000046cc       ??_R2?$QValueListNode@VinstanceInfo@@@@8 100a46cc     instanceLookup.obj
 0003:000046d4       ??_R1A@?0A@EA@?$QValueListNode@VinstanceInfo@@@@8 100a46d4     instanceLookup.obj
 0003:000046f8       ??_R4?$QValueListPrivate@VdeviceTypeInfo@@@@6B@ 100a46f8     instanceLookup.obj
 0003:00004710       ??_R3?$QValueListPrivate@VdeviceTypeInfo@@@@8 100a4710     instanceLookup.obj
 0003:00004724       ??_R2?$QValueListPrivate@VdeviceTypeInfo@@@@8 100a4724     instanceLookup.obj
 0003:00004730       ??_R1A@?0A@EA@?$QValueListPrivate@VdeviceTypeInfo@@@@8 100a4730     instanceLookup.obj
 0003:00004754       ??_R4?$QValueListNode@VdeviceTypeInfo@@@@6B@ 100a4754     instanceLookup.obj
 0003:0000476c       ??_R3?$QValueListNode@VdeviceTypeInfo@@@@8 100a476c     instanceLookup.obj
 0003:00004780       ??_R2?$QValueListNode@VdeviceTypeInfo@@@@8 100a4780     instanceLookup.obj
 0003:00004788       ??_R1A@?0A@EA@?$QValueListNode@VdeviceTypeInfo@@@@8 100a4788     instanceLookup.obj
 0003:000047ac       ??_R4?$QValueListPrivate@VcomplexType@@@@6B@ 100a47ac     instanceLookup.obj
 0003:000047c4       ??_R3?$QValueListPrivate@VcomplexType@@@@8 100a47c4     instanceLookup.obj
 0003:000047d8       ??_R2?$QValueListPrivate@VcomplexType@@@@8 100a47d8     instanceLookup.obj
 0003:000047e4       ??_R1A@?0A@EA@?$QValueListPrivate@VcomplexType@@@@8 100a47e4     instanceLookup.obj
 0003:00004808       ??_R4?$QValueListNode@VcomplexType@@@@6B@ 100a4808     instanceLookup.obj
 0003:00004820       ??_R3?$QValueListNode@VcomplexType@@@@8 100a4820     instanceLookup.obj
 0003:00004834       ??_R2?$QValueListNode@VcomplexType@@@@8 100a4834     instanceLookup.obj
 0003:0000483c       ??_R1A@?0A@EA@?$QValueListNode@VcomplexType@@@@8 100a483c     instanceLookup.obj
 0003:00004860       ??_R4launchAccessor@@6B@   100a4860     launchAccessor.obj
 0003:00004878       ??_R3launchAccessor@@8     100a4878     launchAccessor.obj
 0003:0000488c       ??_R2launchAccessor@@8     100a488c     launchAccessor.obj
 0003:0000489c       ??_R1A@?0A@EA@launchAccessor@@8 100a489c     launchAccessor.obj
 0003:000048c0       ??_R4?$QValueListPrivate@VlaunchItem@@@@6B@ 100a48c0     launchAccessor.obj
 0003:000048d8       ??_R3?$QValueListPrivate@VlaunchItem@@@@8 100a48d8     launchAccessor.obj
 0003:000048ec       ??_R2?$QValueListPrivate@VlaunchItem@@@@8 100a48ec     launchAccessor.obj
 0003:000048f8       ??_R1A@?0A@EA@?$QValueListPrivate@VlaunchItem@@@@8 100a48f8     launchAccessor.obj
 0003:0000491c       ??_R4?$QValueListNode@VlaunchItem@@@@6B@ 100a491c     launchAccessor.obj
 0003:00004934       ??_R3?$QValueListNode@VlaunchItem@@@@8 100a4934     launchAccessor.obj
 0003:00004948       ??_R2?$QValueListNode@VlaunchItem@@@@8 100a4948     launchAccessor.obj
 0003:00004950       ??_R1A@?0A@EA@?$QValueListNode@VlaunchItem@@@@8 100a4950     launchAccessor.obj
 0003:00004974       ??_R4panelsetsAccessor@@6B@ 100a4974     panelsetsAccessor.obj
 0003:0000498c       ??_R3panelsetsAccessor@@8  100a498c     panelsetsAccessor.obj
 0003:000049a0       ??_R2panelsetsAccessor@@8  100a49a0     panelsetsAccessor.obj
 0003:000049b0       ??_R1A@?0A@EA@panelsetsAccessor@@8 100a49b0     panelsetsAccessor.obj
 0003:000049d4       ??_R4?$QValueListPrivate@VpanelsetItem@@@@6B@ 100a49d4     panelsetsAccessor.obj
 0003:000049ec       ??_R3?$QValueListPrivate@VpanelsetItem@@@@8 100a49ec     panelsetsAccessor.obj
 0003:00004a00       ??_R2?$QValueListPrivate@VpanelsetItem@@@@8 100a4a00     panelsetsAccessor.obj
 0003:00004a0c       ??_R1A@?0A@EA@?$QValueListPrivate@VpanelsetItem@@@@8 100a4a0c     panelsetsAccessor.obj
 0003:00004a30       ??_R4?$QValueListNode@VpanelsetItem@@@@6B@ 100a4a30     panelsetsAccessor.obj
 0003:00004a48       ??_R3?$QValueListNode@VpanelsetItem@@@@8 100a4a48     panelsetsAccessor.obj
 0003:00004a5c       ??_R2?$QValueListNode@VpanelsetItem@@@@8 100a4a5c     panelsetsAccessor.obj
 0003:00004a64       ??_R1A@?0A@EA@?$QValueListNode@VpanelsetItem@@@@8 100a4a64     panelsetsAccessor.obj
 0003:00004a88       ??_R4usersAccessor@@6B@    100a4a88     usersAccessor.obj
 0003:00004aa0       ??_R3usersAccessor@@8      100a4aa0     usersAccessor.obj
 0003:00004ab4       ??_R2usersAccessor@@8      100a4ab4     usersAccessor.obj
 0003:00004ac4       ??_R1A@?0A@EA@usersAccessor@@8 100a4ac4     usersAccessor.obj
 0003:00004ae8       ??_R4workstationsAccessor@@6B@ 100a4ae8     workstationsAccessor.obj
 0003:00004b00       ??_R3workstationsAccessor@@8 100a4b00     workstationsAccessor.obj
 0003:00004b14       ??_R2workstationsAccessor@@8 100a4b14     workstationsAccessor.obj
 0003:00004b24       ??_R1A@?0A@EA@workstationsAccessor@@8 100a4b24     workstationsAccessor.obj
 0003:00004b48       ??_R4workstationSettingsAccessor@@6B@ 100a4b48     workstationSettingsAccessor.obj
 0003:00004b60       ??_R3workstationSettingsAccessor@@8 100a4b60     workstationSettingsAccessor.obj
 0003:00004b74       ??_R2workstationSettingsAccessor@@8 100a4b74     workstationSettingsAccessor.obj
 0003:00004b84       ??_R1A@?0A@EA@workstationSettingsAccessor@@8 100a4b84     workstationSettingsAccessor.obj
 0003:00004ba8       ??_R4?$QValueListPrivate@VworkstationSettingsItem@@@@6B@ 100a4ba8     workstationSettingsAccessor.obj
 0003:00004bc0       ??_R3?$QValueListPrivate@VworkstationSettingsItem@@@@8 100a4bc0     workstationSettingsAccessor.obj
 0003:00004bd4       ??_R2?$QValueListPrivate@VworkstationSettingsItem@@@@8 100a4bd4     workstationSettingsAccessor.obj
 0003:00004be0       ??_R1A@?0A@EA@?$QValueListPrivate@VworkstationSettingsItem@@@@8 100a4be0     workstationSettingsAccessor.obj
 0003:00004c04       ??_R4?$QValueListNode@VworkstationSettingsItem@@@@6B@ 100a4c04     workstationSettingsAccessor.obj
 0003:00004c1c       ??_R3?$QValueListNode@VworkstationSettingsItem@@@@8 100a4c1c     workstationSettingsAccessor.obj
 0003:00004c30       ??_R2?$QValueListNode@VworkstationSettingsItem@@@@8 100a4c30     workstationSettingsAccessor.obj
 0003:00004c38       ??_R1A@?0A@EA@?$QValueListNode@VworkstationSettingsItem@@@@8 100a4c38     workstationSettingsAccessor.obj
 0003:00004c5c       ??_R4type_info@@6B@        100a4c5c     MSVCRTD:ti_inst.obj
 0003:00004c74       ??_R3type_info@@8          100a4c74     MSVCRTD:ti_inst.obj
 0003:00004c88       ??_R2type_info@@8          100a4c88     MSVCRTD:ti_inst.obj
 0003:00004c90       ??_R1A@?0A@EA@type_info@@8 100a4c90     MSVCRTD:ti_inst.obj
 0003:00004e20       ___rtc_iaa                 100a4e20     MSVCRTD:initsect.obj
 0003:00005068       ___rtc_izz                 100a5068     MSVCRTD:initsect.obj
 0003:0000516c       ___rtc_taa                 100a516c     MSVCRTD:initsect.obj
 0003:000053b4       ___rtc_tzz                 100a53b4     MSVCRTD:initsect.obj
 0004:000007ac       ___security_cookie         100b87ac     MSVCRTD:gs_cookie.obj
 0004:000007b0       ___security_cookie_complement 100b87b0     MSVCRTD:gs_cookie.obj
 0004:000007c0       ?_RTC_ErrorLevels@@3PAHA   100b87c0     MSVCRTD:error.obj
 0004:000007d8       ___native_dllmain_reason   100b87d8     MSVCRTD:natstart.obj
 0004:000008e8       ??_R0?AVQDomNode@@@8       100b88e8     applicationsAccessor.obj
 0004:00000904       ??_R0?AVapplicationsAccessor@@@8 100b8904     applicationsAccessor.obj
 0004:00000930       ??_R0?AVQObject@@@8        100b8930     applicationsAccessor.obj
 0004:0000094c       ??_R0?AVQt@@@8             100b894c     applicationsAccessor.obj
 0004:00000960       ??_R0?AVerror_category@std@@@8 100b8960     applicationsAccessor.obj
 0004:00000988       ??_R0?AV_Generic_error_category@std@@@8 100b8988     applicationsAccessor.obj
 0004:000009bc       ??_R0?AV_Iostream_error_category@std@@@8 100b89bc     applicationsAccessor.obj
 0004:000009f0       ??_R0?AV_System_error_category@std@@@8 100b89f0     applicationsAccessor.obj
 0004:00000a24       ??_R0?AVQDomDocument@@@8   100b8a24     bncs_config.obj
 0004:00000a44       ??_R0?AVbncs_config@@@8    100b8a44     bncs_config.obj
 0004:00000a64       ??_R0?AVdocCache@@@8       100b8a64     bncs_config.obj
 0004:00000a80       ??_R0?AV?$map@VQString@@PAVcachedData@@U?$less@VQString@@@std@@V?$allocator@U?$pair@$$CBVQString@@PAVcachedData@@@std@@@4@@std@@@8 100b8a80     bncs_config.obj
 0004:00000b20       ??_R0?AV?$_Tree@V?$_Tmap_traits@VQString@@PAVcachedData@@U?$less@VQString@@@std@@V?$allocator@U?$pair@$$CBVQString@@PAVcachedData@@@std@@@4@$0A@@std@@@std@@@8 100b8b20     bncs_config.obj
 0004:00000be8       ??_R0?AV?$_Tree_comp@$0A@V?$_Tmap_traits@VQString@@PAVcachedData@@U?$less@VQString@@@std@@V?$allocator@U?$pair@$$CBVQString@@PAVcachedData@@@std@@@4@$0A@@std@@@std@@@8 100b8be8     bncs_config.obj
 0004:00000cb8       ??_R0?AV?$_Tree_buy@U?$pair@$$CBVQString@@PAVcachedData@@@std@@V?$allocator@U?$pair@$$CBVQString@@PAVcachedData@@@std@@@2@@std@@@8 100b8cb8     bncs_config.obj
 0004:00000d58       ??_R0?AV?$_Tree_alloc@$0A@U?$_Tree_base_types@U?$pair@$$CBVQString@@PAVcachedData@@@std@@V?$allocator@U?$pair@$$CBVQString@@PAVcachedData@@@std@@@2@@std@@@std@@@8 100b8d58     bncs_config.obj
 0004:00000e20       ??_R0?AV?$_Tree_val@U?$_Tree_simple_types@U?$pair@$$CBVQString@@PAVcachedData@@@std@@@std@@@std@@@8 100b8e20     bncs_config.obj
 0004:00000e9c       ??_R0?AU_Container_base12@std@@@8 100b8e9c     bncs_config.obj
 0004:00000ec8       ??_R0?AUQShared@@@8        100b8ec8     instanceLookup.obj
 0004:00000ee4       ??_R0?AV?$QValueListPrivate@VparamInfo@@@@@8 100b8ee4     instanceLookup.obj
 0004:00000f1c       ??_R0?AV?$QValueListNode@VparamInfo@@@@@8 100b8f1c     instanceLookup.obj
 0004:00000f50       ??_R0?AV?$QValueListPrivate@VcomplexParam@@@@@8 100b8f50     instanceLookup.obj
 0004:00000f8c       ??_R0?AV?$QValueListNode@VcomplexParam@@@@@8 100b8f8c     instanceLookup.obj
 0004:00000fc4       ??_R0?AV?$QValueListPrivate@VcomplexInstance@@@@@8 100b8fc4     instanceLookup.obj
 0004:00001004       ??_R0?AV?$QValueListNode@VcomplexInstance@@@@@8 100b9004     instanceLookup.obj
 0004:00001040       ??_R0?AV?$QValueListPrivate@VinstanceInfo@@@@@8 100b9040     instanceLookup.obj
 0004:0000107c       ??_R0?AV?$QValueListNode@VinstanceInfo@@@@@8 100b907c     instanceLookup.obj
 0004:000010b4       ??_R0?AV?$QValueListPrivate@VdeviceTypeInfo@@@@@8 100b90b4     instanceLookup.obj
 0004:000010f4       ??_R0?AV?$QValueListNode@VdeviceTypeInfo@@@@@8 100b90f4     instanceLookup.obj
 0004:00001130       ??_R0?AV?$QValueListPrivate@VcomplexType@@@@@8 100b9130     instanceLookup.obj
 0004:0000116c       ??_R0?AV?$QValueListNode@VcomplexType@@@@@8 100b916c     instanceLookup.obj
 0004:000011a4       ??_R0?AVlaunchAccessor@@@8 100b91a4     launchAccessor.obj
 0004:000011c8       ??_R0?AV?$QValueListPrivate@VlaunchItem@@@@@8 100b91c8     launchAccessor.obj
 0004:00001204       ??_R0?AV?$QValueListNode@VlaunchItem@@@@@8 100b9204     launchAccessor.obj
 0004:0000123c       ??_R0?AVpanelsetsAccessor@@@8 100b923c     panelsetsAccessor.obj
 0004:00001264       ??_R0?AV?$QValueListPrivate@VpanelsetItem@@@@@8 100b9264     panelsetsAccessor.obj
 0004:000012a0       ??_R0?AV?$QValueListNode@VpanelsetItem@@@@@8 100b92a0     panelsetsAccessor.obj
 0004:000012d8       ??_R0?AVusersAccessor@@@8  100b92d8     usersAccessor.obj
 0004:000012fc       ??_R0?AVworkstationsAccessor@@@8 100b92fc     workstationsAccessor.obj
 0004:00001328       ??_R0?AVworkstationSettingsAccessor@@@8 100b9328     workstationSettingsAccessor.obj
 0004:0000135c       ??_R0?AV?$QValueListPrivate@VworkstationSettingsItem@@@@@8 100b935c     workstationSettingsAccessor.obj
 0004:000013a8       ??_R0?AV?$QValueListNode@VworkstationSettingsItem@@@@@8 100b93a8     workstationSettingsAccessor.obj
 0004:000013f0       ??_R0?AVtype_info@@@8      100b93f0     MSVCRTD:ti_inst.obj
 0004:00001530       ?applicationsAcc@applicationsAccessor@@0PAV1@A 100b9530     applicationsAccessor.obj
 0004:00001534       ?loadLock@applicationsAccessor@@0HA 100b9534     applicationsAccessor.obj
 0004:0000153c       ?_Generic_object@?$_Error_objects@H@std@@2V_Generic_error_category@2@A 100b953c     applicationsAccessor.obj
 0004:00001540       ?_Iostream_object@?$_Error_objects@H@std@@2V_Iostream_error_category@2@A 100b9540     applicationsAccessor.obj
 0004:00001544       ?_System_object@?$_Error_objects@H@std@@2V_System_error_category@2@A 100b9544     applicationsAccessor.obj
 0004:00001548       ?id@?$num_put@DV?$back_insert_iterator@V?$basic_string@DU?$char_traits@D@std@@V?$allocator@D@2@@std@@@std@@@std@@2V0locale@2@A 100b9548     applicationsAccessor.obj
 0004:0000154c       ?id@?$num_put@_WV?$back_insert_iterator@V?$basic_string@_WU?$char_traits@_W@std@@V?$allocator@_W@2@@std@@@std@@@std@@2V0locale@2@A 100b954c     applicationsAccessor.obj
 0004:00001554       ?docs@@3VdocCache@@A       100b9554     bncs_config.obj
 0004:00001570       ?launchAcc@launchAccessor@@0PAV1@A 100b9570     launchAccessor.obj
 0004:00001574       ?loadLock@launchAccessor@@0HA 100b9574     launchAccessor.obj
 0004:0000157c       ?panelsetsAcc@panelsetsAccessor@@0PAV1@A 100b957c     panelsetsAccessor.obj
 0004:00001580       ?loadLock@panelsetsAccessor@@0HA 100b9580     panelsetsAccessor.obj
 0004:00001588       ?usersAcc@usersAccessor@@0PAV1@A 100b9588     usersAccessor.obj
 0004:0000158c       ?loadLock@usersAccessor@@0HA 100b958c     usersAccessor.obj
 0004:00001594       ?workstationsAcc@workstationsAccessor@@0PAV1@A 100b9594     workstationsAccessor.obj
 0004:00001598       ?loadLock@workstationsAccessor@@0HA 100b9598     workstationsAccessor.obj
 0004:000015a0       ?workstationSettingsAcc@workstationSettingsAccessor@@0PAV1@A 100b95a0     workstationSettingsAccessor.obj
 0004:000015a4       ?loadLock@workstationSettingsAccessor@@0HA 100b95a4     workstationSettingsAccessor.obj
 0004:000015ac       ?metaObj@applicationsAccessor@@0PAVQMetaObject@@A 100b95ac     moc_applicationsAccessor.obj
 0004:000015e0       ?metaObj@launchAccessor@@0PAVQMetaObject@@A 100b95e0     moc_launchAccessor.obj
 0004:00001604       ?metaObj@panelsetsAccessor@@0PAVQMetaObject@@A 100b9604     moc_panelsetsAccessor.obj
 0004:00001628       ?metaObj@usersAccessor@@0PAVQMetaObject@@A 100b9628     moc_usersAccessor.obj
 0004:0000164c       ?metaObj@workstationsAccessor@@0PAVQMetaObject@@A 100b964c     moc_workstationsAccessor.obj
 0004:00001660       ?metaObj@workstationSettingsAccessor@@0PAVQMetaObject@@A 100b9660     moc_workstationSettingsAccessor.obj
 0004:00001688       ?wsprintffp@@3P6AHPADPBDZZA 100b9688     MSVCRTD:error.obj
 0004:00001a5c       ?__type_info_root_node@@3U__type_info_node@@A 100b9a5c     MSVCRTD:tncleanup.obj
 0004:00001a70       ___native_startup_lock     100b9a70     <common>
 0004:00001a80       ___native_startup_state    100b9a80     <common>
 0004:00001a84       ___dyn_tls_init_callback   100b9a84     <common>
 0004:00001a90       ___onexitend               100b9a90     <common>
 0004:00001aa0       ___onexitbegin             100b9aa0     <common>
 0005:00000000       __imp__GetModuleHandleW@4  100ba000     kernel32:KERNEL32.dll
 0005:00000004       __imp__GetModuleFileNameW@12 100ba004     kernel32:KERNEL32.dll
 0005:00000008       __imp__FreeLibrary@4       100ba008     kernel32:KERNEL32.dll
 0005:0000000c       __imp__VirtualQuery@12     100ba00c     kernel32:KERNEL32.dll
 0005:00000010       __imp__GetProcessHeap@0    100ba010     kernel32:KERNEL32.dll
 0005:00000014       __imp__HeapFree@12         100ba014     kernel32:KERNEL32.dll
 0005:00000018       __imp__HeapAlloc@12        100ba018     kernel32:KERNEL32.dll
 0005:0000001c       __imp__DisableThreadLibraryCalls@4 100ba01c     kernel32:KERNEL32.dll
 0005:00000020       __imp__GetSystemTimeAsFileTime@4 100ba020     kernel32:KERNEL32.dll
 0005:00000024       __imp__GetCurrentThreadId@0 100ba024     kernel32:KERNEL32.dll
 0005:00000028       __imp__GetCurrentProcessId@0 100ba028     kernel32:KERNEL32.dll
 0005:0000002c       __imp__QueryPerformanceCounter@4 100ba02c     kernel32:KERNEL32.dll
 0005:00000030       __imp__IsProcessorFeaturePresent@4 100ba030     kernel32:KERNEL32.dll
 0005:00000034       __imp__WideCharToMultiByte@32 100ba034     kernel32:KERNEL32.dll
 0005:00000038       __imp__MultiByteToWideChar@24 100ba038     kernel32:KERNEL32.dll
 0005:0000003c       __imp__LoadLibraryExW@12   100ba03c     kernel32:KERNEL32.dll
 0005:00000040       __imp__GetProcAddress@8    100ba040     kernel32:KERNEL32.dll
 0005:00000044       __imp__GetLastError@0      100ba044     kernel32:KERNEL32.dll
 0005:00000048       __imp__RaiseException@16   100ba048     kernel32:KERNEL32.dll
 0005:0000004c       __imp__IsDebuggerPresent@0 100ba04c     kernel32:KERNEL32.dll
 0005:00000050       __imp__DecodePointer@4     100ba050     kernel32:KERNEL32.dll
 0005:00000054       __imp__EncodePointer@4     100ba054     kernel32:KERNEL32.dll
 0005:00000058       \177KERNEL32_NULL_THUNK_DATA 100ba058     kernel32:KERNEL32.dll
 0005:00000094       __imp_??0_Container_base12@std@@QAE@XZ 100ba094     msvcprtd:MSVCP120D.dll
 0005:00000098       __imp_??1_Container_base12@std@@QAE@XZ 100ba098     msvcprtd:MSVCP120D.dll
 0005:0000009c       __imp_?_Orphan_all@_Container_base12@std@@QAEXXZ 100ba09c     msvcprtd:MSVCP120D.dll
 0005:000000a0       __imp_?_Xbad_alloc@std@@YAXXZ 100ba0a0     msvcprtd:MSVCP120D.dll
 0005:000000a4       __imp_?_Xlength_error@std@@YAXPBD@Z 100ba0a4     msvcprtd:MSVCP120D.dll
 0005:000000a8       __imp_?_Xout_of_range@std@@YAXPBD@Z 100ba0a8     msvcprtd:MSVCP120D.dll
 0005:000000ac       __imp_??0id@locale@std@@QAE@I@Z 100ba0ac     msvcprtd:MSVCP120D.dll
 0005:000000b0       __imp_?_Syserror_map@std@@YAPBDH@Z 100ba0b0     msvcprtd:MSVCP120D.dll
 0005:000000b4       __imp_?_Winerror_map@std@@YAPBDH@Z 100ba0b4     msvcprtd:MSVCP120D.dll
 0005:000000b8       __imp_??0_Lockit@std@@QAE@H@Z 100ba0b8     msvcprtd:MSVCP120D.dll
 0005:000000bc       __imp_??1_Lockit@std@@QAE@XZ 100ba0bc     msvcprtd:MSVCP120D.dll
 0005:000000c0       __imp_?_Getpfirst@_Container_base12@std@@QBEPAPAU_Iterator_base12@2@XZ 100ba0c0     msvcprtd:MSVCP120D.dll
 0005:000000c4       __imp_?_Debug_message@std@@YAXPB_W0I@Z 100ba0c4     msvcprtd:MSVCP120D.dll
 0005:000000c8       \177MSVCP120D_NULL_THUNK_DATA 100ba0c8     msvcprtd:MSVCP120D.dll
 0005:000000fc       __imp___malloc_dbg         100ba0fc     MSVCRTD:MSVCR120D.dll
 0005:00000100       __imp____CppXcptFilter     100ba100     MSVCRTD:MSVCR120D.dll
 0005:00000104       __imp_??1type_info@@UAE@XZ 100ba104     MSVCRTD:MSVCR120D.dll
 0005:00000108       __imp___CRT_RTC_INITW      100ba108     MSVCRTD:MSVCR120D.dll
 0005:0000010c       __imp___onexit             100ba10c     MSVCRTD:MSVCR120D.dll
 0005:00000110       __imp____dllonexit         100ba110     MSVCRTD:MSVCR120D.dll
 0005:00000114       __imp___calloc_dbg         100ba114     MSVCRTD:MSVCR120D.dll
 0005:00000118       __imp___unlock             100ba118     MSVCRTD:MSVCR120D.dll
 0005:0000011c       __imp___lock               100ba11c     MSVCRTD:MSVCR120D.dll
 0005:00000120       __imp_?terminate@@YAXXZ    100ba120     MSVCRTD:MSVCR120D.dll
 0005:00000124       __imp___CrtDbgReportW      100ba124     MSVCRTD:MSVCR120D.dll
 0005:00000128       __imp_??_V@YAXPAX@Z        100ba128     MSVCRTD:MSVCR120D.dll
 0005:0000012c       __imp__getenv              100ba12c     MSVCRTD:MSVCR120D.dll
 0005:00000130       __imp___invalid_parameter  100ba130     MSVCRTD:MSVCR120D.dll
 0005:00000134       __imp____CxxFrameHandler3  100ba134     MSVCRTD:MSVCR120D.dll
 0005:00000138       __imp___CxxThrowException@8 100ba138     MSVCRTD:MSVCR120D.dll
 0005:0000013c       __imp___hypot              100ba13c     MSVCRTD:MSVCR120D.dll
 0005:00000140       __imp__memmove             100ba140     MSVCRTD:MSVCR120D.dll
 0005:00000144       __imp__strlen              100ba144     MSVCRTD:MSVCR120D.dll
 0005:00000148       __imp__memcpy              100ba148     MSVCRTD:MSVCR120D.dll
 0005:0000014c       __imp_??3@YAXPAX@Z         100ba14c     MSVCRTD:MSVCR120D.dll
 0005:00000150       __imp_??2@YAPAXI@Z         100ba150     MSVCRTD:MSVCR120D.dll
 0005:00000154       __imp___purecall           100ba154     MSVCRTD:MSVCR120D.dll
 0005:00000158       __imp___free_dbg           100ba158     MSVCRTD:MSVCR120D.dll
 0005:0000015c       __imp___CrtSetCheckCount   100ba15c     MSVCRTD:MSVCR120D.dll
 0005:00000160       __imp___initterm           100ba160     MSVCRTD:MSVCR120D.dll
 0005:00000164       __imp___initterm_e         100ba164     MSVCRTD:MSVCR120D.dll
 0005:00000168       __imp___except_handler4_common 100ba168     MSVCRTD:MSVCR120D.dll
 0005:0000016c       __imp___crt_debugger_hook  100ba16c     MSVCRTD:MSVCR120D.dll
 0005:00000170       __imp____crtUnhandledException 100ba170     MSVCRTD:MSVCR120D.dll
 0005:00000174       __imp____crtTerminateProcess 100ba174     MSVCRTD:MSVCR120D.dll
 0005:00000178       __imp____clean_type_info_names_internal 100ba178     MSVCRTD:MSVCR120D.dll
 0005:0000017c       __imp__wcscpy_s            100ba17c     MSVCRTD:MSVCR120D.dll
 0005:00000180       __imp___wmakepath_s        100ba180     MSVCRTD:MSVCR120D.dll
 0005:00000184       __imp___wsplitpath_s       100ba184     MSVCRTD:MSVCR120D.dll
 0005:00000188       __imp___amsg_exit          100ba188     MSVCRTD:MSVCR120D.dll
 0005:0000018c       __imp___putenv             100ba18c     MSVCRTD:MSVCR120D.dll
 0005:0000018c       __imp__putenv              100ba18c     MSVCRTD:MSVCR120D.dll
 0005:00000190       \177MSVCR120D_NULL_THUNK_DATA 100ba190     MSVCRTD:MSVCR120D.dll
 0005:000001d8       __imp_??4instanceInfo@@QAEAAV0@ABV0@@Z 100ba1d8     bncs_cachedDatadb:bncs_cachedDatadb.dll
 0005:000001dc       __imp_?lookupType@bncs_instance_lookup@@SA_NABVQString@@AAV2@@Z 100ba1dc     bncs_cachedDatadb:bncs_cachedDatadb.dll
 0005:000001e0       __imp_?lookupComposite@bncs_instance_lookup@@SA_NABVQString@@0AAV2@@Z 100ba1e0     bncs_cachedDatadb:bncs_cachedDatadb.dll
 0005:000001e4       __imp_?lookup@bncs_instance_lookup@@SA_NABVQString@@0AAV2@PAH22PAD@Z 100ba1e4     bncs_cachedDatadb:bncs_cachedDatadb.dll
 0005:000001e8       __imp_??4complexType@@QAEAAV0@ABV0@@Z 100ba1e8     bncs_cachedDatadb:bncs_cachedDatadb.dll
 0005:000001ec       __imp_??0complexType@@QAE@ABV0@@Z 100ba1ec     bncs_cachedDatadb:bncs_cachedDatadb.dll
 0005:000001f0       __imp_??1complexType@@UAE@XZ 100ba1f0     bncs_cachedDatadb:bncs_cachedDatadb.dll
 0005:000001f4       __imp_??0complexType@@QAE@XZ 100ba1f4     bncs_cachedDatadb:bncs_cachedDatadb.dll
 0005:000001f8       __imp_??4complexInstance@@QAEAAV0@ABV0@@Z 100ba1f8     bncs_cachedDatadb:bncs_cachedDatadb.dll
 0005:000001fc       __imp_??0complexInstance@@QAE@ABV0@@Z 100ba1fc     bncs_cachedDatadb:bncs_cachedDatadb.dll
 0005:00000200       __imp_??1complexInstance@@UAE@XZ 100ba200     bncs_cachedDatadb:bncs_cachedDatadb.dll
 0005:00000204       __imp_??0complexInstance@@QAE@XZ 100ba204     bncs_cachedDatadb:bncs_cachedDatadb.dll
 0005:00000208       __imp_??4complexParam@@QAEAAV0@ABV0@@Z 100ba208     bncs_cachedDatadb:bncs_cachedDatadb.dll
 0005:0000020c       __imp_??0complexParam@@QAE@ABV0@@Z 100ba20c     bncs_cachedDatadb:bncs_cachedDatadb.dll
 0005:00000210       __imp_??1complexParam@@UAE@XZ 100ba210     bncs_cachedDatadb:bncs_cachedDatadb.dll
 0005:00000214       __imp_??0complexParam@@QAE@XZ 100ba214     bncs_cachedDatadb:bncs_cachedDatadb.dll
 0005:00000218       __imp_??4deviceTypeInfo@@QAEAAV0@ABV0@@Z 100ba218     bncs_cachedDatadb:bncs_cachedDatadb.dll
 0005:0000021c       __imp_??0deviceTypeInfo@@QAE@ABV0@@Z 100ba21c     bncs_cachedDatadb:bncs_cachedDatadb.dll
 0005:00000220       __imp_??1deviceTypeInfo@@UAE@XZ 100ba220     bncs_cachedDatadb:bncs_cachedDatadb.dll
 0005:00000224       __imp_??0deviceTypeInfo@@QAE@XZ 100ba224     bncs_cachedDatadb:bncs_cachedDatadb.dll
 0005:00000228       __imp_??4paramInfo@@QAEAAV0@ABV0@@Z 100ba228     bncs_cachedDatadb:bncs_cachedDatadb.dll
 0005:0000022c       __imp_??0paramInfo@@QAE@ABV0@@Z 100ba22c     bncs_cachedDatadb:bncs_cachedDatadb.dll
 0005:00000230       __imp_??1paramInfo@@UAE@XZ 100ba230     bncs_cachedDatadb:bncs_cachedDatadb.dll
 0005:00000234       __imp_??0paramInfo@@QAE@XZ 100ba234     bncs_cachedDatadb:bncs_cachedDatadb.dll
 0005:00000238       __imp_??0instanceInfo@@QAE@ABV0@@Z 100ba238     bncs_cachedDatadb:bncs_cachedDatadb.dll
 0005:0000023c       __imp_??1instanceInfo@@UAE@XZ 100ba23c     bncs_cachedDatadb:bncs_cachedDatadb.dll
 0005:00000240       __imp_??0instanceInfo@@QAE@XZ 100ba240     bncs_cachedDatadb:bncs_cachedDatadb.dll
 0005:00000244       \177bncs_cachedDatadb_NULL_THUNK_DATA 100ba244     bncs_cachedDatadb:bncs_cachedDatadb.dll
 0005:00000284       __imp_??Bbncs_string@@QBEPBDXZ 100ba284     bncs_stringdb:bncs_stringdb.dll
 0005:00000288       __imp_??1bncs_string@@UAE@XZ 100ba288     bncs_stringdb:bncs_stringdb.dll
 0005:0000028c       __imp_??0bncs_string@@QAE@PBD@Z 100ba28c     bncs_stringdb:bncs_stringdb.dll
 0005:00000290       __imp_??4bncs_string@@QAEAAV0@PBD@Z 100ba290     bncs_stringdb:bncs_stringdb.dll
 0005:00000294       \177bncs_stringdb_NULL_THUNK_DATA 100ba294     bncs_stringdb:bncs_stringdb.dll
 0005:000002c0       __imp_??0QShared@@QAE@XZ   100ba2c0     qt-mt323:qt-mt323.dll
 0005:000002c4       __imp_?ref@QShared@@QAEXXZ 100ba2c4     qt-mt323:qt-mt323.dll
 0005:000002c8       __imp_?deref@QShared@@QAE_NXZ 100ba2c8     qt-mt323:qt-mt323.dll
 0005:000002cc       __imp_??0QString@@QAE@XZ   100ba2cc     qt-mt323:qt-mt323.dll
 0005:000002d0       __imp_?length@QString@@QBEIXZ 100ba2d0     qt-mt323:qt-mt323.dll
 0005:000002d4       __imp_??0?$QValueList@VQString@@@@QAE@XZ 100ba2d4     qt-mt323:qt-mt323.dll
 0005:000002d8       __imp_??0?$QValueList@VQString@@@@QAE@ABV0@@Z 100ba2d8     qt-mt323:qt-mt323.dll
 0005:000002dc       __imp_??1?$QValueList@VQString@@@@QAE@XZ 100ba2dc     qt-mt323:qt-mt323.dll
 0005:000002e0       __imp_?append@?$QValueList@VQString@@@@QAE?AV?$QValueListIterator@VQString@@@@ABVQString@@@Z 100ba2e0     qt-mt323:qt-mt323.dll
 0005:000002e4       __imp_?minimum@QMapNodeBase@@QAEPAU1@XZ 100ba2e4     qt-mt323:qt-mt323.dll
 0005:000002e8       __imp_?maximum@QMapNodeBase@@QAEPAU1@XZ 100ba2e8     qt-mt323:qt-mt323.dll
 0005:000002ec       __imp_??0QMapPrivateBase@@QAE@XZ 100ba2ec     qt-mt323:qt-mt323.dll
 0005:000002f0       __imp_??0QMapPrivateBase@@QAE@PBV0@@Z 100ba2f0     qt-mt323:qt-mt323.dll
 0005:000002f4       __imp_?rebalance@QMapPrivateBase@@QAEXPAUQMapNodeBase@@AAPAU2@@Z 100ba2f4     qt-mt323:qt-mt323.dll
 0005:000002f8       __imp_?removeAndRebalance@QMapPrivateBase@@QAEPAUQMapNodeBase@@PAU2@AAPAU2@11@Z 100ba2f8     qt-mt323:qt-mt323.dll
 0005:000002fc       __imp_?arg@QString@@QBE?AV1@HHH@Z 100ba2fc     qt-mt323:qt-mt323.dll
 0005:00000300       __imp_?toInt@QString@@QBEHPA_NH@Z 100ba300     qt-mt323:qt-mt323.dll
 0005:00000304       __imp_??8@YA_NABVQString@@PBD@Z 100ba304     qt-mt323:qt-mt323.dll
 0005:00000308       __imp_??H@YA?BVQString@@PBDABV0@@Z 100ba308     qt-mt323:qt-mt323.dll
 0005:0000030c       __imp_?setAttribute@QDomElement@@QAEXABVQString@@H@Z 100ba30c     qt-mt323:qt-mt323.dll
 0005:00000310       __imp_??4QString@@QAEAAV0@PBD@Z 100ba310     qt-mt323:qt-mt323.dll
 0005:00000314       __imp_?lower@QString@@QBE?AV1@XZ 100ba314     qt-mt323:qt-mt323.dll
 0005:00000318       __imp_??9@YA_NABVQString@@PBD@Z 100ba318     qt-mt323:qt-mt323.dll
 0005:0000031c       __imp_?qstrcmp@@YAHPBD0@Z  100ba31c     qt-mt323:qt-mt323.dll
 0005:00000320       __imp_?fromLatin1@QString@@SA?AV1@PBDH@Z 100ba320     qt-mt323:qt-mt323.dll
 0005:00000324       __imp_?fromUtf8@QString@@SA?AV1@PBDH@Z 100ba324     qt-mt323:qt-mt323.dll
 0005:00000328       __imp_?qt_cast@QObject@@UAEPAXPBD@Z 100ba328     qt-mt323:qt-mt323.dll
 0005:0000032c       __imp_?qt_invoke@QObject@@UAE_NHPAUQUObject@@@Z 100ba32c     qt-mt323:qt-mt323.dll
 0005:00000330       __imp_?nodeType@QDomDocument@@UBE?AW4NodeType@QDomNode@@XZ 100ba330     qt-mt323:qt-mt323.dll
 0005:00000334       __imp_??0QFile@@QAE@ABVQString@@@Z 100ba334     qt-mt323:qt-mt323.dll
 0005:00000338       __imp_?staticMetaObject@QObject@@SAPAVQMetaObject@@XZ 100ba338     qt-mt323:qt-mt323.dll
 0005:0000033c       __imp_?signalsBlocked@QObject@@QBE_NXZ 100ba33c     qt-mt323:qt-mt323.dll
 0005:00000340       __imp_?receivers@QObject@@IBEPAVQConnectionList@@H@Z 100ba340     qt-mt323:qt-mt323.dll
 0005:00000344       __imp_?activate_signal@QObject@@IAEXHVQString@@@Z 100ba344     qt-mt323:qt-mt323.dll
 0005:00000348       __imp_?activate_signal_bool@QObject@@IAEXH_N@Z 100ba348     qt-mt323:qt-mt323.dll
 0005:0000034c       __imp_?activate_signal@QObject@@IAEXPAVQConnectionList@@PAUQUObject@@@Z 100ba34c     qt-mt323:qt-mt323.dll
 0005:00000350       __imp_?signalOffset@QMetaObject@@QBEHXZ 100ba350     qt-mt323:qt-mt323.dll
 0005:00000354       __imp_?new_metaobject@QMetaObject@@SAPAV1@PBDPAV1@QBUQMetaData@@H2HQBVQMetaProperty@@HQBUQMetaEnum@@HQBUQClassInfo@@H@Z 100ba354     qt-mt323:qt-mt323.dll
 0005:00000358       __imp_??0QMetaObjectCleanUp@@QAE@PBDP6APAVQMetaObject@@XZ@Z 100ba358     qt-mt323:qt-mt323.dll
 0005:0000035c       __imp_??1QMetaObjectCleanUp@@QAE@XZ 100ba35c     qt-mt323:qt-mt323.dll
 0005:00000360       __imp_?setMetaObject@QMetaObjectCleanUp@@QAEXAAPAVQMetaObject@@@Z 100ba360     qt-mt323:qt-mt323.dll
 0005:00000364       __imp_?translate@QApplication@@QBE?AVQString@@PBD00W4Encoding@1@@Z 100ba364     qt-mt323:qt-mt323.dll
 0005:00000368       __imp_??0QUObject@@QAE@XZ  100ba368     qt-mt323:qt-mt323.dll
 0005:0000036c       __imp_??1QUObject@@QAE@XZ  100ba36c     qt-mt323:qt-mt323.dll
 0005:00000370       __imp_?get@QUType_bool@@QAEAA_NPAUQUObject@@@Z 100ba370     qt-mt323:qt-mt323.dll
 0005:00000374       __imp_?set@QUType_QString@@QAEXPAUQUObject@@ABVQString@@@Z 100ba374     qt-mt323:qt-mt323.dll
 0005:00000378       __imp_?get@QUType_QString@@QAEAAVQString@@PAUQUObject@@@Z 100ba378     qt-mt323:qt-mt323.dll
 0005:0000037c       __imp_?qApp@@3PAVQApplication@@A 100ba37c     qt-mt323:qt-mt323.dll
 0005:00000380       __imp_?static_QUType_bool@@3UQUType_bool@@A 100ba380     qt-mt323:qt-mt323.dll
 0005:00000384       __imp_?static_QUType_QString@@3UQUType_QString@@A 100ba384     qt-mt323:qt-mt323.dll
 0005:00000388       __imp_?set@QUType_ptr@@QAEXPAUQUObject@@PBX@Z 100ba388     qt-mt323:qt-mt323.dll
 0005:0000038c       __imp_?get@QUType_ptr@@QAEAAPAXPAUQUObject@@@Z 100ba38c     qt-mt323:qt-mt323.dll
 0005:00000390       __imp_?set@QUType_bool@@QAEXPAUQUObject@@_N@Z 100ba390     qt-mt323:qt-mt323.dll
 0005:00000394       __imp_?set@QUType_int@@QAEXPAUQUObject@@H@Z 100ba394     qt-mt323:qt-mt323.dll
 0005:00000398       __imp_?get@QUType_int@@QAEAAHPAUQUObject@@@Z 100ba398     qt-mt323:qt-mt323.dll
 0005:0000039c       __imp_?static_QUType_ptr@@3UQUType_ptr@@A 100ba39c     qt-mt323:qt-mt323.dll
 0005:000003a0       __imp_?static_QUType_int@@3UQUType_int@@A 100ba3a0     qt-mt323:qt-mt323.dll
 0005:000003a4       __imp_?isDocument@QDomDocument@@UBE_NXZ 100ba3a4     qt-mt323:qt-mt323.dll
 0005:000003a8       __imp_?close@QFile@@UAEXXZ 100ba3a8     qt-mt323:qt-mt323.dll
 0005:000003ac       __imp_?open@QFile@@UAE_NH@Z 100ba3ac     qt-mt323:qt-mt323.dll
 0005:000003b0       __imp_?setName@QObject@@UAEXPBD@Z 100ba3b0     qt-mt323:qt-mt323.dll
 0005:000003b4       __imp_??1QFile@@UAE@XZ     100ba3b4     qt-mt323:qt-mt323.dll
 0005:000003b8       __imp_??1QStringList@@QAE@XZ 100ba3b8     qt-mt323:qt-mt323.dll
 0005:000003bc       __imp_?split@QStringList@@SA?AV1@ABVQString@@0_N@Z 100ba3bc     qt-mt323:qt-mt323.dll
 0005:000003c0       __imp_?count@?$QValueList@VQString@@@@QBEIXZ 100ba3c0     qt-mt323:qt-mt323.dll
 0005:000003c4       __imp_?setNodeValue@QDomNode@@UAEXABVQString@@@Z 100ba3c4     qt-mt323:qt-mt323.dll
 0005:000003c8       __imp_??A?$QValueList@VQString@@@@QAEAAVQString@@I@Z 100ba3c8     qt-mt323:qt-mt323.dll
 0005:000003cc       __imp_??6QTextStream@@QAEAAV0@ABVQString@@@Z 100ba3cc     qt-mt323:qt-mt323.dll
 0005:000003d0       __imp_??1QTextStream@@UAE@XZ 100ba3d0     qt-mt323:qt-mt323.dll
 0005:000003d4       __imp_??0QTextStream@@QAE@PAVQIODevice@@@Z 100ba3d4     qt-mt323:qt-mt323.dll
 0005:000003d8       __imp_??1QDomText@@UAE@XZ  100ba3d8     qt-mt323:qt-mt323.dll
 0005:000003dc       __imp_?tagName@QDomElement@@QBE?AVQString@@XZ 100ba3dc     qt-mt323:qt-mt323.dll
 0005:000003e0       __imp_?data@QDomCharacterData@@UBE?AVQString@@XZ 100ba3e0     qt-mt323:qt-mt323.dll
 0005:000003e4       __imp_?toString@QDomDocument@@QBE?AVQString@@XZ 100ba3e4     qt-mt323:qt-mt323.dll
 0005:000003e8       __imp_?setContent@QDomDocument@@QAE_NPAVQIODevice@@PAVQString@@PAH2@Z 100ba3e8     qt-mt323:qt-mt323.dll
 0005:000003ec       __imp_??1QDomDocument@@UAE@XZ 100ba3ec     qt-mt323:qt-mt323.dll
 0005:000003f0       __imp_??0QDomDocument@@QAE@XZ 100ba3f0     qt-mt323:qt-mt323.dll
 0005:000003f4       __imp_?toText@QDomNode@@QAE?AVQDomText@@XZ 100ba3f4     qt-mt323:qt-mt323.dll
 0005:000003f8       __imp_??H@YA?BVQString@@ABV0@PBD@Z 100ba3f8     qt-mt323:qt-mt323.dll
 0005:000003fc       __imp_??H@YA?BVQString@@ABV0@0@Z 100ba3fc     qt-mt323:qt-mt323.dll
 0005:00000400       __imp_??M@YA_NABVQString@@0@Z 100ba400     qt-mt323:qt-mt323.dll
 0005:00000404       __imp_??BQString@@QBEPBDXZ 100ba404     qt-mt323:qt-mt323.dll
 0005:00000408       __imp_?latin1@QString@@QBEPBDXZ 100ba408     qt-mt323:qt-mt323.dll
 0005:0000040c       __imp_?isNull@QString@@QBE_NXZ 100ba40c     qt-mt323:qt-mt323.dll
 0005:00000410       __imp_?qDebug@@YAXPBDZZ    100ba410     qt-mt323:qt-mt323.dll
 0005:00000414       __imp_?null@QString@@2V1@A 100ba414     qt-mt323:qt-mt323.dll
 0005:00000418       __imp_?timerEvent@QObject@@MAEXPAVQTimerEvent@@@Z 100ba418     qt-mt323:qt-mt323.dll
 0005:0000041c       __imp_?setProperty@QObject@@UAE_NPBDABVQVariant@@@Z 100ba41c     qt-mt323:qt-mt323.dll
 0005:00000420       __imp_?setPrefix@QDomNode@@UAEXABVQString@@@Z 100ba420     qt-mt323:qt-mt323.dll
 0005:00000424       __imp_?qt_property@QObject@@UAE_NHHPAVQVariant@@@Z 100ba424     qt-mt323:qt-mt323.dll
 0005:00000428       __imp_?replaceChild@QDomNode@@UAE?AV1@ABV1@0@Z 100ba428     qt-mt323:qt-mt323.dll
 0005:0000042c       __imp_?removeChild@QObject@@UAEXPAV1@@Z 100ba42c     qt-mt323:qt-mt323.dll
 0005:00000430       __imp_?property@QObject@@UBE?AVQVariant@@PBD@Z 100ba430     qt-mt323:qt-mt323.dll
 0005:00000434       __imp_?previousSibling@QDomNode@@UBE?AV1@XZ 100ba434     qt-mt323:qt-mt323.dll
 0005:00000438       __imp_?prefix@QDomNode@@UBE?AVQString@@XZ 100ba438     qt-mt323:qt-mt323.dll
 0005:0000043c       __imp_?parentNode@QDomNode@@UBE?AV1@XZ 100ba43c     qt-mt323:qt-mt323.dll
 0005:00000440       __imp_?ownerDocument@QDomNode@@UBE?AVQDomDocument@@XZ 100ba440     qt-mt323:qt-mt323.dll
 0005:00000444       __imp_?normalize@QDomNode@@UAEXXZ 100ba444     qt-mt323:qt-mt323.dll
 0005:00000448       __imp_?nodeValue@QDomNode@@UBE?AVQString@@XZ 100ba448     qt-mt323:qt-mt323.dll
 0005:0000044c       __imp_?nodeType@QDomNode@@UBE?AW4NodeType@1@XZ 100ba44c     qt-mt323:qt-mt323.dll
 0005:00000450       __imp_?nodeName@QDomNode@@UBE?AVQString@@XZ 100ba450     qt-mt323:qt-mt323.dll
 0005:00000454       __imp_?namespaceURI@QDomNode@@UBE?AVQString@@XZ 100ba454     qt-mt323:qt-mt323.dll
 0005:00000458       __imp_?localName@QDomNode@@UBE?AVQString@@XZ 100ba458     qt-mt323:qt-mt323.dll
 0005:0000045c       __imp_?lastChild@QDomNode@@UBE?AV1@XZ 100ba45c     qt-mt323:qt-mt323.dll
 0005:00000460       __imp_?isText@QDomNode@@UBE_NXZ 100ba460     qt-mt323:qt-mt323.dll
 0005:00000464       __imp_?isSupported@QDomNode@@UBE_NABVQString@@0@Z 100ba464     qt-mt323:qt-mt323.dll
 0005:00000468       __imp_?isProcessingInstruction@QDomNode@@UBE_NXZ 100ba468     qt-mt323:qt-mt323.dll
 0005:0000046c       __imp_?isNotation@QDomNode@@UBE_NXZ 100ba46c     qt-mt323:qt-mt323.dll
 0005:00000470       __imp_?isEntityReference@QDomNode@@UBE_NXZ 100ba470     qt-mt323:qt-mt323.dll
 0005:00000474       __imp_?isEntity@QDomNode@@UBE_NXZ 100ba474     qt-mt323:qt-mt323.dll
 0005:00000478       __imp_?isElement@QDomNode@@UBE_NXZ 100ba478     qt-mt323:qt-mt323.dll
 0005:0000047c       __imp_?isDocumentType@QDomNode@@UBE_NXZ 100ba47c     qt-mt323:qt-mt323.dll
 0005:00000480       __imp_?isDocumentFragment@QDomNode@@UBE_NXZ 100ba480     qt-mt323:qt-mt323.dll
 0005:00000484       __imp_?isDocument@QDomNode@@UBE_NXZ 100ba484     qt-mt323:qt-mt323.dll
 0005:00000488       __imp_?isComment@QDomNode@@UBE_NXZ 100ba488     qt-mt323:qt-mt323.dll
 0005:0000048c       __imp_?isCharacterData@QDomNode@@UBE_NXZ 100ba48c     qt-mt323:qt-mt323.dll
 0005:00000490       __imp_?isCDATASection@QDomNode@@UBE_NXZ 100ba490     qt-mt323:qt-mt323.dll
 0005:00000494       __imp_?isAttr@QDomNode@@UBE_NXZ 100ba494     qt-mt323:qt-mt323.dll
 0005:00000498       __imp_?insertChild@QObject@@UAEXPAV1@@Z 100ba498     qt-mt323:qt-mt323.dll
 0005:0000049c       __imp_?insertBefore@QDomNode@@UAE?AV1@ABV1@0@Z 100ba49c     qt-mt323:qt-mt323.dll
 0005:000004a0       __imp_?insertAfter@QDomNode@@UAE?AV1@ABV1@0@Z 100ba4a0     qt-mt323:qt-mt323.dll
 0005:000004a4       __imp_?hasChildNodes@QDomNode@@UBE_NXZ 100ba4a4     qt-mt323:qt-mt323.dll
 0005:000004a8       __imp_?hasAttributes@QDomNode@@UBE_NXZ 100ba4a8     qt-mt323:qt-mt323.dll
 0005:000004ac       __imp_?eventFilter@QObject@@UAE_NPAV1@PAVQEvent@@@Z 100ba4ac     qt-mt323:qt-mt323.dll
 0005:000004b0       __imp_?event@QObject@@UAE_NPAVQEvent@@@Z 100ba4b0     qt-mt323:qt-mt323.dll
 0005:000004b4       __imp_?disconnectNotify@QObject@@MAEXPBD@Z 100ba4b4     qt-mt323:qt-mt323.dll
 0005:000004b8       __imp_?customEvent@QObject@@MAEXPAVQCustomEvent@@@Z 100ba4b8     qt-mt323:qt-mt323.dll
 0005:000004bc       __imp_?connectNotify@QObject@@MAEXPBD@Z 100ba4bc     qt-mt323:qt-mt323.dll
 0005:000004c0       __imp_?cloneNode@QDomNode@@UBE?AV1@_N@Z 100ba4c0     qt-mt323:qt-mt323.dll
 0005:000004c4       __imp_?childNodes@QDomNode@@UBE?AVQDomNodeList@@XZ 100ba4c4     qt-mt323:qt-mt323.dll
 0005:000004c8       __imp_?childEvent@QObject@@MAEXPAVQChildEvent@@@Z 100ba4c8     qt-mt323:qt-mt323.dll
 0005:000004cc       __imp_?checkConnectArgs@QObject@@MAE_NPBDPBV1@0@Z 100ba4cc     qt-mt323:qt-mt323.dll
 0005:000004d0       __imp_?attributes@QDomNode@@UBE?AVQDomNamedNodeMap@@XZ 100ba4d0     qt-mt323:qt-mt323.dll
 0005:000004d4       __imp_?setAttribute@QDomElement@@QAEXABVQString@@0@Z 100ba4d4     qt-mt323:qt-mt323.dll
 0005:000004d8       __imp_?attribute@QDomElement@@QBE?AVQString@@ABV2@0@Z 100ba4d8     qt-mt323:qt-mt323.dll
 0005:000004dc       __imp_??1QDomElement@@UAE@XZ 100ba4dc     qt-mt323:qt-mt323.dll
 0005:000004e0       __imp_?documentElement@QDomDocument@@QBE?AVQDomElement@@XZ 100ba4e0     qt-mt323:qt-mt323.dll
 0005:000004e4       __imp_?createElement@QDomDocument@@QAE?AVQDomElement@@ABVQString@@@Z 100ba4e4     qt-mt323:qt-mt323.dll
 0005:000004e8       __imp_?toElement@QDomNode@@QAE?AVQDomElement@@XZ 100ba4e8     qt-mt323:qt-mt323.dll
 0005:000004ec       __imp_?isNull@QDomNode@@QBE_NXZ 100ba4ec     qt-mt323:qt-mt323.dll
 0005:000004f0       __imp_?nextSibling@QDomNode@@UBE?AV1@XZ 100ba4f0     qt-mt323:qt-mt323.dll
 0005:000004f4       __imp_?firstChild@QDomNode@@UBE?AV1@XZ 100ba4f4     qt-mt323:qt-mt323.dll
 0005:000004f8       __imp_?appendChild@QDomNode@@UAE?AV1@ABV1@@Z 100ba4f8     qt-mt323:qt-mt323.dll
 0005:000004fc       __imp_?removeChild@QDomNode@@UAE?AV1@ABV1@@Z 100ba4fc     qt-mt323:qt-mt323.dll
 0005:00000500       __imp_??1QDomNode@@UAE@XZ  100ba500     qt-mt323:qt-mt323.dll
 0005:00000504       __imp_??4QDomNode@@QAEAAV0@ABV0@@Z 100ba504     qt-mt323:qt-mt323.dll
 0005:00000508       __imp_??0QDomNode@@QAE@XZ  100ba508     qt-mt323:qt-mt323.dll
 0005:0000050c       __imp_??4QMutex@@QAEAAV0@ABV0@@Z 100ba50c     qt-mt323:qt-mt323.dll
 0005:00000510       __imp_??0QMutex@@QAE@ABV0@@Z 100ba510     qt-mt323:qt-mt323.dll
 0005:00000514       __imp_?unlock@QMutex@@QAEXXZ 100ba514     qt-mt323:qt-mt323.dll
 0005:00000518       __imp_?lock@QMutex@@QAEXXZ 100ba518     qt-mt323:qt-mt323.dll
 0005:0000051c       __imp_??1QMutex@@UAE@XZ    100ba51c     qt-mt323:qt-mt323.dll
 0005:00000520       __imp_??0QMutex@@QAE@_N@Z  100ba520     qt-mt323:qt-mt323.dll
 0005:00000524       __imp_??4QObject@@QAEAAV0@ABV0@@Z 100ba524     qt-mt323:qt-mt323.dll
 0005:00000528       __imp_??0QObject@@QAE@ABV0@@Z 100ba528     qt-mt323:qt-mt323.dll
 0005:0000052c       __imp_??1QObject@@UAE@XZ   100ba52c     qt-mt323:qt-mt323.dll
 0005:00000530       __imp_??0QObject@@QAE@PAV0@PBD@Z 100ba530     qt-mt323:qt-mt323.dll
 0005:00000534       __imp_??8@YA_NABVQString@@0@Z 100ba534     qt-mt323:qt-mt323.dll
 0005:00000538       __imp_?toDouble@QString@@QBENPA_N@Z 100ba538     qt-mt323:qt-mt323.dll
 0005:0000053c       __imp_?arg@QString@@QBE?AV1@NHDH@Z 100ba53c     qt-mt323:qt-mt323.dll
 0005:00000540       __imp_??4QString@@QAEAAV0@ABV0@@Z 100ba540     qt-mt323:qt-mt323.dll
 0005:00000544       __imp_??1QString@@QAE@XZ   100ba544     qt-mt323:qt-mt323.dll
 0005:00000548       __imp_??0QString@@QAE@PBD@Z 100ba548     qt-mt323:qt-mt323.dll
 0005:0000054c       __imp_?qt_emit@QObject@@UAE_NHPAUQUObject@@@Z 100ba54c     qt-mt323:qt-mt323.dll
 0005:00000550       __imp_??0QString@@QAE@ABV0@@Z 100ba550     qt-mt323:qt-mt323.dll
 0005:00000554       \177qt-mt323_NULL_THUNK_DATA 100ba554     qt-mt323:qt-mt323.dll
 0005:00000604       __IMPORT_DESCRIPTOR_qt-mt323 100ba604     qt-mt323:qt-mt323.dll
 0005:00000618       __IMPORT_DESCRIPTOR_bncs_stringdb 100ba618     bncs_stringdb:bncs_stringdb.dll
 0005:0000062c       __IMPORT_DESCRIPTOR_bncs_cachedDatadb 100ba62c     bncs_cachedDatadb:bncs_cachedDatadb.dll
 0005:00000640       __IMPORT_DESCRIPTOR_MSVCP120D 100ba640     msvcprtd:MSVCP120D.dll
 0005:00000654       __IMPORT_DESCRIPTOR_MSVCR120D 100ba654     MSVCRTD:MSVCR120D.dll
 0005:00000668       __IMPORT_DESCRIPTOR_KERNEL32 100ba668     kernel32:KERNEL32.dll
 0005:0000067c       __NULL_IMPORT_DESCRIPTOR   100ba67c     qt-mt323:qt-mt323.dll
