 bncs_cachedDatadb

 Timestamp is 5e9db7b8 (Mon Apr 20 15:54:48 2020)

 Preferred load address is 10000000

 Start         Length     Name                   Class
 0001:00000000 00018a7dH .textbss                DATA
 0002:00000000 00002e33H .text$di                CODE
 0002:00002e40 0002e206H .text$mn                CODE
 0002:00031050 00005491H .text$x                 CODE
 0002:000364f0 00001295H .text$yd                CODE
 0003:00000000 00000104H .CRT$XCA                DATA
 0003:00000104 0000013eH .CRT$XCU                DATA
 0003:00000244 00000104H .CRT$XCZ                DATA
 0003:00000348 00000104H .CRT$XIA                DATA
 0003:0000044c 00000104H .CRT$XIAA               DATA
 0003:00000550 00000104H .CRT$XIC                DATA
 0003:00000654 00000104H .CRT$XIZ                DATA
 0003:00000760 0000197cH .rdata                  DATA
 0003:000020dc 00000178H .rdata$debug            DATA
 0003:00002254 00000abeH .rdata$r                DATA
 0003:00002d14 00000104H .rtc$IAA                DATA
 0003:00002e18 00000130H .rtc$IMZ                DATA
 0003:00002f48 00000104H .rtc$IZZ                DATA
 0003:0000304c 00000104H .rtc$TAA                DATA
 0003:00003150 00000130H .rtc$TMZ                DATA
 0003:00003280 00000104H .rtc$TZZ                DATA
 0003:00003388 00002f8dH .xdata$x                DATA
 0003:00006320 00006eb3H .edata                  DATA
 0004:00000000 00000130H .data                   DATA
 0004:00000130 00000630H .data$r                 DATA
 0004:00000760 0000045cH .bss                    DATA
 0005:00000000 00000408H .idata$5                DATA
 0005:00000408 00000064H .idata$2                DATA
 0005:0000046c 00000014H .idata$3                DATA
 0005:00000480 00000408H .idata$4                DATA
 0005:00000888 000017b4H .idata$6                DATA
 0006:00000000 000001c0H .rsrc$01                DATA
 0006:000001c0 000007a3H .rsrc$02                DATA

  Address         Publics by Value              Rva+Base       Lib:Object

 0000:00000000       ___guard_fids_count        00000000     <absolute>
 0000:00000000       ___safe_se_handler_table   00000000     <absolute>
 0000:00000000       __except_list              00000000     <absolute>
 0000:00000000       ___guard_flags             00000000     <absolute>
 0000:00000000       ___guard_fids_table        00000000     <absolute>
 0000:00000000       ___safe_se_handler_count   00000000     <absolute>
 0000:00009876       __fltused                  00009876     <absolute>
 0000:00009876       __ldused                   00009876     <absolute>
 0000:00000000       ___ImageBase               10000000     <linker-defined>
 0001:00000000       __enc$textbss$begin        10001000     <linker-defined>
 0001:00018a7d       __enc$textbss$end          10019a7d     <linker-defined>
 0002:00002e40       ??0bncs_instance_lookup@@QAE@XZ 1001ce40 f   bncs_instance_lookup.obj
 0002:00002e80       ??1bncs_instance_lookup@@UAE@XZ 1001ce80 f   bncs_instance_lookup.obj
 0002:00002ec0       ?lookup@bncs_instance_lookup@@SA_NABVQString@@AAV2@PAH2PAD@Z 1001cec0 f   bncs_instance_lookup.obj
 0002:00003130       ?lookup@bncs_instance_lookup@@SA_NABVQString@@0AAV2@PAH22PAD@Z 1001d130 f   bncs_instance_lookup.obj
 0002:00003520       ?lookupComplex@bncs_instance_lookup@@SA_NABVQString@@00AAV2@PAH22PAD@Z 1001d520 f   bncs_instance_lookup.obj
 0002:000036a0       ?lookup@bncs_instance_lookup@@SA_NABVQString@@AAV2@111AA_N@Z 1001d6a0 f   bncs_instance_lookup.obj
 0002:00003960       ?lookupComposite@bncs_instance_lookup@@SA_NABVQString@@0AAV2@@Z 1001d960 f   bncs_instance_lookup.obj
 0002:00003a80       ?lookupComposite@bncs_instance_lookup@@SA_NABVQString@@AA_NAAV?$QMap@VQString@@V1@@@@Z 1001da80 f   bncs_instance_lookup.obj
 0002:00003b50       ?lookupType@bncs_instance_lookup@@SA_NABVQString@@AAV2@@Z 1001db50 f   bncs_instance_lookup.obj
 0002:00003c20       ?lookupInstanceOfType@bncs_instance_lookup@@SA_NABVQString@@AAVQStringList@@@Z 1001dc20 f   bncs_instance_lookup.obj
 0002:00003d40       ?loadInstances@bncs_instance_lookup@@SA_NXZ 1001dd40 f   bncs_instance_lookup.obj
 0002:00005320       ?loadDeviceTypes@bncs_instance_lookup@@SA_NXZ 1001f320 f   bncs_instance_lookup.obj
 0002:00005770       ?loadComplexTypes@bncs_instance_lookup@@SA_NXZ 1001f770 f   bncs_instance_lookup.obj
 0002:00005b70       ?dump@bncs_instance_lookup@@SAXXZ 1001fb70 f   bncs_instance_lookup.obj
 0002:00005c80       ?countInstances@bncs_instance_lookup@@SAHXZ 1001fc80 f   bncs_instance_lookup.obj
 0002:00005cc0       ?countDeviceTypes@bncs_instance_lookup@@SAHXZ 1001fcc0 f   bncs_instance_lookup.obj
 0002:00005d00       ?countComplexTypes@bncs_instance_lookup@@SAHXZ 1001fd00 f   bncs_instance_lookup.obj
 0002:00005d40       ?loadDeviceParams@bncs_instance_lookup@@SA_NABVQString@@AAVdeviceTypeInfo@@@Z 1001fd40 f   bncs_instance_lookup.obj
 0002:00006870       ?loadComplexType@bncs_instance_lookup@@SA_NABVQString@@AAVcomplexType@@@Z 10020870 f   bncs_instance_lookup.obj
 0002:00007460       ?getInstanceInfo@bncs_instance_lookup@@SA_NABVQString@@PAPAVinstanceInfo@@@Z 10021460 f   bncs_instance_lookup.obj
 0002:00008800       ??$_Allocate@D@std@@YAPADIPAD@Z 10022800 f i bncs_instance_lookup.obj
 0002:00008890       ??$_Allocate@U_Container_proxy@std@@@std@@YAPAU_Container_proxy@0@IPAU10@@Z 10022890 f i bncs_instance_lookup.obj
 0002:00008930       ??$_Debug_pointer@D@std@@YAXPBDPB_WI@Z 10022930 f i bncs_instance_lookup.obj
 0002:000089a0       ??$addressof@D@std@@YAPADAAD@Z 100229a0 f i bncs_instance_lookup.obj
 0002:000089e0       ??$construct@PADAAPAD@?$_Wrap_alloc@V?$allocator@D@std@@@std@@QAEXPAPADAAPAD@Z 100229e0 f i bncs_instance_lookup.obj
 0002:00008a50       ??$construct@PADAAPAD@?$allocator@D@std@@QAEXPAPADAAPAD@Z 10022a50 f i bncs_instance_lookup.obj
 0002:00008b50       ??$construct@PADAAPAD@?$allocator_traits@V?$allocator@D@std@@@std@@SAXAAV?$allocator@D@1@PAPADAAPAD@Z 10022b50 f i bncs_instance_lookup.obj
 0002:00008bb0       ??$construct@U_Container_proxy@std@@U12@@?$allocator@U_Container_proxy@std@@@std@@QAEXPAU_Container_proxy@1@$$QAU21@@Z 10022bb0 f i bncs_instance_lookup.obj
 0002:00008cc0       ??$destroy@PAD@?$_Wrap_alloc@V?$allocator@D@std@@@std@@QAEXPAPAD@Z 10022cc0 f i bncs_instance_lookup.obj
 0002:00008d20       ??$destroy@PAD@?$allocator@D@std@@QAEXPAPAD@Z 10022d20 f i bncs_instance_lookup.obj
 0002:00008d60       ??$destroy@PAD@?$allocator_traits@V?$allocator@D@std@@@std@@SAXAAV?$allocator@D@1@PAPAD@Z 10022d60 f i bncs_instance_lookup.obj
 0002:00008db0       ??$destroy@U_Container_proxy@std@@@?$allocator@U_Container_proxy@std@@@std@@QAEXPAU_Container_proxy@1@@Z 10022db0 f i bncs_instance_lookup.obj
 0002:00008df0       ??$forward@AAPAD@std@@YAAAPADAAPAD@Z 10022df0 f i bncs_instance_lookup.obj
 0002:00008e30       ??$forward@U_Container_proxy@std@@@std@@YA$$QAU_Container_proxy@0@AAU10@@Z 10022e30 f i bncs_instance_lookup.obj
 0002:00008e70       ??0?$QMap@VQString@@VcomplexInstance@@@@QAE@ABV0@@Z 10022e70 f i bncs_instance_lookup.obj
 0002:00008ee0       ??0?$QMap@VQString@@VcomplexInstance@@@@QAE@XZ 10022ee0 f i bncs_instance_lookup.obj
 0002:00008fd0       ??0?$QMap@VQString@@VcomplexParam@@@@QAE@ABV0@@Z 10022fd0 f i bncs_instance_lookup.obj
 0002:00009040       ??0?$QMap@VQString@@VcomplexParam@@@@QAE@XZ 10023040 f i bncs_instance_lookup.obj
 0002:00009130       ??0?$QMap@VQString@@VcomplexType@@@@QAE@ABV0@@Z 10023130 f i bncs_instance_lookup.obj
 0002:000091a0       ??0?$QMap@VQString@@VcomplexType@@@@QAE@XZ 100231a0 f i bncs_instance_lookup.obj
 0002:00009290       ??0?$QMap@VQString@@VdeviceTypeInfo@@@@QAE@ABV0@@Z 10023290 f i bncs_instance_lookup.obj
 0002:00009300       ??0?$QMap@VQString@@VdeviceTypeInfo@@@@QAE@XZ 10023300 f i bncs_instance_lookup.obj
 0002:000093f0       ??0?$QMap@VQString@@VinstanceInfo@@@@QAE@ABV0@@Z 100233f0 f i bncs_instance_lookup.obj
 0002:00009460       ??0?$QMap@VQString@@VinstanceInfo@@@@QAE@XZ 10023460 f i bncs_instance_lookup.obj
 0002:00009550       ??0?$QMap@VQString@@VparamInfo@@@@QAE@ABV0@@Z 10023550 f i bncs_instance_lookup.obj
 0002:000095c0       ??0?$QMap@VQString@@VparamInfo@@@@QAE@XZ 100235c0 f i bncs_instance_lookup.obj
 0002:000096b0       ??0?$QMapConstIterator@VQString@@VcomplexInstance@@@@QAE@PAU?$QMapNode@VQString@@VcomplexInstance@@@@@Z 100236b0 f i bncs_instance_lookup.obj
 0002:00009700       ??0?$QMapConstIterator@VQString@@VcomplexParam@@@@QAE@PAU?$QMapNode@VQString@@VcomplexParam@@@@@Z 10023700 f i bncs_instance_lookup.obj
 0002:00009750       ??0?$QMapConstIterator@VQString@@VcomplexType@@@@QAE@PAU?$QMapNode@VQString@@VcomplexType@@@@@Z 10023750 f i bncs_instance_lookup.obj
 0002:000097a0       ??0?$QMapConstIterator@VQString@@VdeviceTypeInfo@@@@QAE@PAU?$QMapNode@VQString@@VdeviceTypeInfo@@@@@Z 100237a0 f i bncs_instance_lookup.obj
 0002:000097f0       ??0?$QMapConstIterator@VQString@@VinstanceInfo@@@@QAE@PAU?$QMapNode@VQString@@VinstanceInfo@@@@@Z 100237f0 f i bncs_instance_lookup.obj
 0002:00009840       ??0?$QMapConstIterator@VQString@@VparamInfo@@@@QAE@PAU?$QMapNode@VQString@@VparamInfo@@@@@Z 10023840 f i bncs_instance_lookup.obj
 0002:00009890       ??0?$QMapIterator@VQString@@VcomplexInstance@@@@QAE@ABV0@@Z 10023890 f i bncs_instance_lookup.obj
 0002:000098e0       ??0?$QMapIterator@VQString@@VcomplexInstance@@@@QAE@PAU?$QMapNode@VQString@@VcomplexInstance@@@@@Z 100238e0 f i bncs_instance_lookup.obj
 0002:00009930       ??0?$QMapIterator@VQString@@VcomplexParam@@@@QAE@ABV0@@Z 10023930 f i bncs_instance_lookup.obj
 0002:00009980       ??0?$QMapIterator@VQString@@VcomplexParam@@@@QAE@PAU?$QMapNode@VQString@@VcomplexParam@@@@@Z 10023980 f i bncs_instance_lookup.obj
 0002:000099d0       ??0?$QMapIterator@VQString@@VcomplexType@@@@QAE@ABV0@@Z 100239d0 f i bncs_instance_lookup.obj
 0002:00009a20       ??0?$QMapIterator@VQString@@VcomplexType@@@@QAE@PAU?$QMapNode@VQString@@VcomplexType@@@@@Z 10023a20 f i bncs_instance_lookup.obj
 0002:00009a70       ??0?$QMapIterator@VQString@@VdeviceTypeInfo@@@@QAE@ABV0@@Z 10023a70 f i bncs_instance_lookup.obj
 0002:00009ac0       ??0?$QMapIterator@VQString@@VdeviceTypeInfo@@@@QAE@PAU?$QMapNode@VQString@@VdeviceTypeInfo@@@@@Z 10023ac0 f i bncs_instance_lookup.obj
 0002:00009b10       ??0?$QMapIterator@VQString@@VinstanceInfo@@@@QAE@ABV0@@Z 10023b10 f i bncs_instance_lookup.obj
 0002:00009b60       ??0?$QMapIterator@VQString@@VinstanceInfo@@@@QAE@PAU?$QMapNode@VQString@@VinstanceInfo@@@@@Z 10023b60 f i bncs_instance_lookup.obj
 0002:00009bb0       ??0?$QMapIterator@VQString@@VinstanceInfo@@@@QAE@XZ 10023bb0 f i bncs_instance_lookup.obj
 0002:00009c00       ??0?$QMapIterator@VQString@@VparamInfo@@@@QAE@ABV0@@Z 10023c00 f i bncs_instance_lookup.obj
 0002:00009c50       ??0?$QMapIterator@VQString@@VparamInfo@@@@QAE@PAU?$QMapNode@VQString@@VparamInfo@@@@@Z 10023c50 f i bncs_instance_lookup.obj
 0002:00009ca0       ??0?$QMapNode@VQString@@VcomplexInstance@@@@QAE@ABU0@@Z 10023ca0 f i bncs_instance_lookup.obj
 0002:00009da0       ??0?$QMapNode@VQString@@VcomplexInstance@@@@QAE@ABVQString@@@Z 10023da0 f i bncs_instance_lookup.obj
 0002:00009e80       ??0?$QMapNode@VQString@@VcomplexInstance@@@@QAE@XZ 10023e80 f i bncs_instance_lookup.obj
 0002:00009f40       ??0?$QMapNode@VQString@@VcomplexParam@@@@QAE@ABU0@@Z 10023f40 f i bncs_instance_lookup.obj
 0002:0000a040       ??0?$QMapNode@VQString@@VcomplexParam@@@@QAE@ABVQString@@@Z 10024040 f i bncs_instance_lookup.obj
 0002:0000a120       ??0?$QMapNode@VQString@@VcomplexParam@@@@QAE@XZ 10024120 f i bncs_instance_lookup.obj
 0002:0000a1e0       ??0?$QMapNode@VQString@@VcomplexType@@@@QAE@ABU0@@Z 100241e0 f i bncs_instance_lookup.obj
 0002:0000a2e0       ??0?$QMapNode@VQString@@VcomplexType@@@@QAE@ABVQString@@@Z 100242e0 f i bncs_instance_lookup.obj
 0002:0000a3c0       ??0?$QMapNode@VQString@@VcomplexType@@@@QAE@XZ 100243c0 f i bncs_instance_lookup.obj
 0002:0000a480       ??0?$QMapNode@VQString@@VdeviceTypeInfo@@@@QAE@ABU0@@Z 10024480 f i bncs_instance_lookup.obj
 0002:0000a580       ??0?$QMapNode@VQString@@VdeviceTypeInfo@@@@QAE@ABVQString@@@Z 10024580 f i bncs_instance_lookup.obj
 0002:0000a660       ??0?$QMapNode@VQString@@VdeviceTypeInfo@@@@QAE@XZ 10024660 f i bncs_instance_lookup.obj
 0002:0000a720       ??0?$QMapNode@VQString@@VinstanceInfo@@@@QAE@ABU0@@Z 10024720 f i bncs_instance_lookup.obj
 0002:0000a820       ??0?$QMapNode@VQString@@VinstanceInfo@@@@QAE@ABVQString@@@Z 10024820 f i bncs_instance_lookup.obj
 0002:0000a900       ??0?$QMapNode@VQString@@VinstanceInfo@@@@QAE@XZ 10024900 f i bncs_instance_lookup.obj
 0002:0000a9c0       ??0?$QMapNode@VQString@@VparamInfo@@@@QAE@ABU0@@Z 100249c0 f i bncs_instance_lookup.obj
 0002:0000aac0       ??0?$QMapNode@VQString@@VparamInfo@@@@QAE@ABVQString@@@Z 10024ac0 f i bncs_instance_lookup.obj
 0002:0000aba0       ??0?$QMapNode@VQString@@VparamInfo@@@@QAE@XZ 10024ba0 f i bncs_instance_lookup.obj
 0002:0000ac60       ??0?$QMapPrivate@VQString@@VcomplexInstance@@@@QAE@PBV0@@Z 10024c60 f i bncs_instance_lookup.obj
 0002:0000ae60       ??0?$QMapPrivate@VQString@@VcomplexInstance@@@@QAE@XZ 10024e60 f i bncs_instance_lookup.obj
 0002:0000afb0       ??0?$QMapPrivate@VQString@@VcomplexParam@@@@QAE@PBV0@@Z 10024fb0 f i bncs_instance_lookup.obj
 0002:0000b1b0       ??0?$QMapPrivate@VQString@@VcomplexParam@@@@QAE@XZ 100251b0 f i bncs_instance_lookup.obj
 0002:0000b300       ??0?$QMapPrivate@VQString@@VcomplexType@@@@QAE@PBV0@@Z 10025300 f i bncs_instance_lookup.obj
 0002:0000b500       ??0?$QMapPrivate@VQString@@VcomplexType@@@@QAE@XZ 10025500 f i bncs_instance_lookup.obj
 0002:0000b650       ??0?$QMapPrivate@VQString@@VdeviceTypeInfo@@@@QAE@PBV0@@Z 10025650 f i bncs_instance_lookup.obj
 0002:0000b850       ??0?$QMapPrivate@VQString@@VdeviceTypeInfo@@@@QAE@XZ 10025850 f i bncs_instance_lookup.obj
 0002:0000b9a0       ??0?$QMapPrivate@VQString@@VinstanceInfo@@@@QAE@PBV0@@Z 100259a0 f i bncs_instance_lookup.obj
 0002:0000bba0       ??0?$QMapPrivate@VQString@@VinstanceInfo@@@@QAE@XZ 10025ba0 f i bncs_instance_lookup.obj
 0002:0000bcf0       ??0?$QMapPrivate@VQString@@VparamInfo@@@@QAE@PBV0@@Z 10025cf0 f i bncs_instance_lookup.obj
 0002:0000bef0       ??0?$QMapPrivate@VQString@@VparamInfo@@@@QAE@XZ 10025ef0 f i bncs_instance_lookup.obj
 0002:0000c040       ??0?$QPair@V?$QMapIterator@VQString@@VcomplexInstance@@@@_N@@QAE@ABV?$QMapIterator@VQString@@VcomplexInstance@@@@AB_N@Z 10026040 f i bncs_instance_lookup.obj
 0002:0000c0b0       ??0?$QPair@V?$QMapIterator@VQString@@VcomplexParam@@@@_N@@QAE@ABV?$QMapIterator@VQString@@VcomplexParam@@@@AB_N@Z 100260b0 f i bncs_instance_lookup.obj
 0002:0000c120       ??0?$QPair@V?$QMapIterator@VQString@@VcomplexType@@@@_N@@QAE@ABV?$QMapIterator@VQString@@VcomplexType@@@@AB_N@Z 10026120 f i bncs_instance_lookup.obj
 0002:0000c190       ??0?$QPair@V?$QMapIterator@VQString@@VdeviceTypeInfo@@@@_N@@QAE@ABV?$QMapIterator@VQString@@VdeviceTypeInfo@@@@AB_N@Z 10026190 f i bncs_instance_lookup.obj
 0002:0000c200       ??0?$QPair@V?$QMapIterator@VQString@@VinstanceInfo@@@@_N@@QAE@ABV?$QMapIterator@VQString@@VinstanceInfo@@@@AB_N@Z 10026200 f i bncs_instance_lookup.obj
 0002:0000c270       ??0?$QPair@V?$QMapIterator@VQString@@VparamInfo@@@@_N@@QAE@ABV?$QMapIterator@VQString@@VparamInfo@@@@AB_N@Z 10026270 f i bncs_instance_lookup.obj
 0002:0000c2e0       ??0?$QValueList@VcomplexInstance@@@@QAE@ABV0@@Z 100262e0 f i bncs_instance_lookup.obj
 0002:0000c360       ??0?$QValueList@VcomplexInstance@@@@QAE@XZ 10026360 f i bncs_instance_lookup.obj
 0002:0000c450       ??0?$QValueList@VcomplexParam@@@@QAE@ABV0@@Z 10026450 f i bncs_instance_lookup.obj
 0002:0000c4d0       ??0?$QValueList@VcomplexParam@@@@QAE@XZ 100264d0 f i bncs_instance_lookup.obj
 0002:0000c5c0       ??0?$QValueList@VcomplexType@@@@QAE@ABV0@@Z 100265c0 f i bncs_instance_lookup.obj
 0002:0000c640       ??0?$QValueList@VcomplexType@@@@QAE@XZ 10026640 f i bncs_instance_lookup.obj
 0002:0000c730       ??0?$QValueList@VdeviceTypeInfo@@@@QAE@ABV0@@Z 10026730 f i bncs_instance_lookup.obj
 0002:0000c7b0       ??0?$QValueList@VdeviceTypeInfo@@@@QAE@XZ 100267b0 f i bncs_instance_lookup.obj
 0002:0000c8a0       ??0?$QValueList@VinstanceInfo@@@@QAE@ABV0@@Z 100268a0 f i bncs_instance_lookup.obj
 0002:0000c920       ??0?$QValueList@VinstanceInfo@@@@QAE@XZ 10026920 f i bncs_instance_lookup.obj
 0002:0000ca10       ??0?$QValueList@VparamInfo@@@@QAE@ABV0@@Z 10026a10 f i bncs_instance_lookup.obj
 0002:0000ca90       ??0?$QValueList@VparamInfo@@@@QAE@XZ 10026a90 f i bncs_instance_lookup.obj
 0002:0000cb80       ??0?$QValueListIterator@VcomplexInstance@@@@QAE@ABV0@@Z 10026b80 f i bncs_instance_lookup.obj
 0002:0000cbd0       ??0?$QValueListIterator@VcomplexInstance@@@@QAE@PAV?$QValueListNode@VcomplexInstance@@@@@Z 10026bd0 f i bncs_instance_lookup.obj
 0002:0000cc20       ??0?$QValueListIterator@VcomplexParam@@@@QAE@ABV0@@Z 10026c20 f i bncs_instance_lookup.obj
 0002:0000cc70       ??0?$QValueListIterator@VcomplexParam@@@@QAE@PAV?$QValueListNode@VcomplexParam@@@@@Z 10026c70 f i bncs_instance_lookup.obj
 0002:0000ccc0       ??0?$QValueListIterator@VcomplexType@@@@QAE@ABV0@@Z 10026cc0 f i bncs_instance_lookup.obj
 0002:0000cd10       ??0?$QValueListIterator@VcomplexType@@@@QAE@PAV?$QValueListNode@VcomplexType@@@@@Z 10026d10 f i bncs_instance_lookup.obj
 0002:0000cd60       ??0?$QValueListIterator@VdeviceTypeInfo@@@@QAE@ABV0@@Z 10026d60 f i bncs_instance_lookup.obj
 0002:0000cdb0       ??0?$QValueListIterator@VdeviceTypeInfo@@@@QAE@PAV?$QValueListNode@VdeviceTypeInfo@@@@@Z 10026db0 f i bncs_instance_lookup.obj
 0002:0000ce00       ??0?$QValueListIterator@VinstanceInfo@@@@QAE@ABV0@@Z 10026e00 f i bncs_instance_lookup.obj
 0002:0000ce50       ??0?$QValueListIterator@VinstanceInfo@@@@QAE@PAV?$QValueListNode@VinstanceInfo@@@@@Z 10026e50 f i bncs_instance_lookup.obj
 0002:0000cea0       ??0?$QValueListIterator@VparamInfo@@@@QAE@ABV0@@Z 10026ea0 f i bncs_instance_lookup.obj
 0002:0000cef0       ??0?$QValueListIterator@VparamInfo@@@@QAE@PAV?$QValueListNode@VparamInfo@@@@@Z 10026ef0 f i bncs_instance_lookup.obj
 0002:0000cf40       ??0?$QValueListNode@VcomplexInstance@@@@QAE@ABVcomplexInstance@@@Z 10026f40 f i bncs_instance_lookup.obj
 0002:0000cfb0       ??0?$QValueListNode@VcomplexInstance@@@@QAE@XZ 10026fb0 f i bncs_instance_lookup.obj
 0002:0000d020       ??0?$QValueListNode@VcomplexParam@@@@QAE@ABVcomplexParam@@@Z 10027020 f i bncs_instance_lookup.obj
 0002:0000d090       ??0?$QValueListNode@VcomplexParam@@@@QAE@XZ 10027090 f i bncs_instance_lookup.obj
 0002:0000d100       ??0?$QValueListNode@VcomplexType@@@@QAE@ABVcomplexType@@@Z 10027100 f i bncs_instance_lookup.obj
 0002:0000d170       ??0?$QValueListNode@VcomplexType@@@@QAE@XZ 10027170 f i bncs_instance_lookup.obj
 0002:0000d1e0       ??0?$QValueListNode@VdeviceTypeInfo@@@@QAE@ABVdeviceTypeInfo@@@Z 100271e0 f i bncs_instance_lookup.obj
 0002:0000d250       ??0?$QValueListNode@VdeviceTypeInfo@@@@QAE@XZ 10027250 f i bncs_instance_lookup.obj
 0002:0000d2c0       ??0?$QValueListNode@VinstanceInfo@@@@QAE@ABVinstanceInfo@@@Z 100272c0 f i bncs_instance_lookup.obj
 0002:0000d330       ??0?$QValueListNode@VinstanceInfo@@@@QAE@XZ 10027330 f i bncs_instance_lookup.obj
 0002:0000d3a0       ??0?$QValueListNode@VparamInfo@@@@QAE@ABVparamInfo@@@Z 100273a0 f i bncs_instance_lookup.obj
 0002:0000d410       ??0?$QValueListNode@VparamInfo@@@@QAE@XZ 10027410 f i bncs_instance_lookup.obj
 0002:0000d480       ??0?$QValueListPrivate@VcomplexInstance@@@@QAE@ABV0@@Z 10027480 f i bncs_instance_lookup.obj
 0002:0000d6d0       ??0?$QValueListPrivate@VcomplexInstance@@@@QAE@XZ 100276d0 f i bncs_instance_lookup.obj
 0002:0000d820       ??0?$QValueListPrivate@VcomplexParam@@@@QAE@ABV0@@Z 10027820 f i bncs_instance_lookup.obj
 0002:0000da70       ??0?$QValueListPrivate@VcomplexParam@@@@QAE@XZ 10027a70 f i bncs_instance_lookup.obj
 0002:0000dbc0       ??0?$QValueListPrivate@VcomplexType@@@@QAE@ABV0@@Z 10027bc0 f i bncs_instance_lookup.obj
 0002:0000de10       ??0?$QValueListPrivate@VcomplexType@@@@QAE@XZ 10027e10 f i bncs_instance_lookup.obj
 0002:0000df60       ??0?$QValueListPrivate@VdeviceTypeInfo@@@@QAE@ABV0@@Z 10027f60 f i bncs_instance_lookup.obj
 0002:0000e1b0       ??0?$QValueListPrivate@VdeviceTypeInfo@@@@QAE@XZ 100281b0 f i bncs_instance_lookup.obj
 0002:0000e300       ??0?$QValueListPrivate@VinstanceInfo@@@@QAE@ABV0@@Z 10028300 f i bncs_instance_lookup.obj
 0002:0000e550       ??0?$QValueListPrivate@VinstanceInfo@@@@QAE@XZ 10028550 f i bncs_instance_lookup.obj
 0002:0000e6a0       ??0?$QValueListPrivate@VparamInfo@@@@QAE@ABV0@@Z 100286a0 f i bncs_instance_lookup.obj
 0002:0000e8f0       ??0?$QValueListPrivate@VparamInfo@@@@QAE@XZ 100288f0 f i bncs_instance_lookup.obj
 0002:0000ea40       ??0?$_String_alloc@$0A@U?$_String_base_types@DV?$allocator@D@std@@@std@@@std@@QAE@ABV?$allocator@D@1@@Z 10028a40 f i bncs_instance_lookup.obj
 0002:0000eaf0       ??0?$_String_val@U?$_Simple_types@D@std@@@std@@QAE@XZ 10028af0 f i bncs_instance_lookup.obj
 0002:0000eb70       ??0?$_Wrap_alloc@V?$allocator@D@std@@@std@@QAE@XZ 10028b70 f i bncs_instance_lookup.obj
 0002:0000ebd0       ??0?$allocator@D@std@@QAE@XZ 10028bd0 f i bncs_instance_lookup.obj
 0002:0000ec10       ??0?$allocator@U_Container_proxy@std@@@std@@QAE@XZ 10028c10 f i bncs_instance_lookup.obj
 0002:0000ec50       ??0?$basic_string@DU?$char_traits@D@std@@V?$allocator@D@2@@std@@QAE@PBD@Z 10028c50 f i bncs_instance_lookup.obj
 0002:0000ed20       ??0_Container_proxy@std@@QAE@XZ 10028d20 f i bncs_instance_lookup.obj
 0002:0000ed70       ??0_Generic_error_category@std@@QAE@XZ 10028d70 f i bncs_instance_lookup.obj
 0002:0000edd0       ??0_Iostream_error_category@std@@QAE@XZ 10028dd0 f i bncs_instance_lookup.obj
 0002:0000ee30       ??0_System_error_category@std@@QAE@XZ 10028e30 f i bncs_instance_lookup.obj
 0002:0000ee90       ??0bncs_instance_lookup@@QAE@ABV0@@Z 10028e90 f i bncs_instance_lookup.obj
 0002:0000eee0       ??0complexInstance@@QAE@ABV0@@Z 10028ee0 f i bncs_instance_lookup.obj
 0002:0000ef50       ??0complexParam@@QAE@ABV0@@Z 10028f50 f i bncs_instance_lookup.obj
 0002:0000f040       ??0complexType@@QAE@ABV0@@Z 10029040 f i bncs_instance_lookup.obj
 0002:0000f0b0       ??0deviceTypeInfo@@QAE@ABV0@@Z 100290b0 f i bncs_instance_lookup.obj
 0002:0000f140       ??0error_category@std@@QAE@XZ 10029140 f i bncs_instance_lookup.obj
 0002:0000f190       ??0error_condition@std@@QAE@HABVerror_category@1@@Z 10029190 f i bncs_instance_lookup.obj
 0002:0000f1e0       ??0instanceInfo@@QAE@ABV0@@Z 100291e0 f i bncs_instance_lookup.obj
 0002:0000f370       ??0paramInfo@@QAE@ABV0@@Z  10029370 f i bncs_instance_lookup.obj
 0002:0000f3d0       ??1?$QMap@VQString@@VcomplexInstance@@@@QAE@XZ 100293d0 f i bncs_instance_lookup.obj
 0002:0000f490       ??1?$QMap@VQString@@VcomplexParam@@@@QAE@XZ 10029490 f i bncs_instance_lookup.obj
 0002:0000f550       ??1?$QMap@VQString@@VcomplexType@@@@QAE@XZ 10029550 f i bncs_instance_lookup.obj
 0002:0000f610       ??1?$QMap@VQString@@VdeviceTypeInfo@@@@QAE@XZ 10029610 f i bncs_instance_lookup.obj
 0002:0000f6d0       ??1?$QMap@VQString@@VinstanceInfo@@@@QAE@XZ 100296d0 f i bncs_instance_lookup.obj
 0002:0000f790       ??1?$QMap@VQString@@VparamInfo@@@@QAE@XZ 10029790 f i bncs_instance_lookup.obj
 0002:0000f850       ??1?$QMapNode@VQString@@VcomplexInstance@@@@QAE@XZ 10029850 f i bncs_instance_lookup.obj
 0002:0000f910       ??1?$QMapNode@VQString@@VcomplexParam@@@@QAE@XZ 10029910 f i bncs_instance_lookup.obj
 0002:0000f9d0       ??1?$QMapNode@VQString@@VcomplexType@@@@QAE@XZ 100299d0 f i bncs_instance_lookup.obj
 0002:0000fa90       ??1?$QMapNode@VQString@@VdeviceTypeInfo@@@@QAE@XZ 10029a90 f i bncs_instance_lookup.obj
 0002:0000fb50       ??1?$QMapNode@VQString@@VinstanceInfo@@@@QAE@XZ 10029b50 f i bncs_instance_lookup.obj
 0002:0000fc10       ??1?$QMapNode@VQString@@VparamInfo@@@@QAE@XZ 10029c10 f i bncs_instance_lookup.obj
 0002:0000fcd0       ??1?$QMapPrivate@VQString@@VcomplexInstance@@@@QAE@XZ 10029cd0 f i bncs_instance_lookup.obj
 0002:0000fd70       ??1?$QMapPrivate@VQString@@VcomplexParam@@@@QAE@XZ 10029d70 f i bncs_instance_lookup.obj
 0002:0000fe10       ??1?$QMapPrivate@VQString@@VcomplexType@@@@QAE@XZ 10029e10 f i bncs_instance_lookup.obj
 0002:0000feb0       ??1?$QMapPrivate@VQString@@VdeviceTypeInfo@@@@QAE@XZ 10029eb0 f i bncs_instance_lookup.obj
 0002:0000ff50       ??1?$QMapPrivate@VQString@@VinstanceInfo@@@@QAE@XZ 10029f50 f i bncs_instance_lookup.obj
 0002:0000fff0       ??1?$QMapPrivate@VQString@@VparamInfo@@@@QAE@XZ 10029ff0 f i bncs_instance_lookup.obj
 0002:00010090       ??1?$QValueList@VcomplexInstance@@@@QAE@XZ 1002a090 f i bncs_instance_lookup.obj
 0002:000100f0       ??1?$QValueList@VcomplexParam@@@@QAE@XZ 1002a0f0 f i bncs_instance_lookup.obj
 0002:00010150       ??1?$QValueList@VcomplexType@@@@QAE@XZ 1002a150 f i bncs_instance_lookup.obj
 0002:000101b0       ??1?$QValueList@VdeviceTypeInfo@@@@QAE@XZ 1002a1b0 f i bncs_instance_lookup.obj
 0002:00010210       ??1?$QValueList@VinstanceInfo@@@@QAE@XZ 1002a210 f i bncs_instance_lookup.obj
 0002:00010270       ??1?$QValueList@VparamInfo@@@@QAE@XZ 1002a270 f i bncs_instance_lookup.obj
 0002:000102d0       ??1?$QValueListNode@VcomplexInstance@@@@UAE@XZ 1002a2d0 f i bncs_instance_lookup.obj
 0002:00010330       ??1?$QValueListNode@VcomplexParam@@@@UAE@XZ 1002a330 f i bncs_instance_lookup.obj
 0002:00010390       ??1?$QValueListNode@VcomplexType@@@@UAE@XZ 1002a390 f i bncs_instance_lookup.obj
 0002:000103f0       ??1?$QValueListNode@VdeviceTypeInfo@@@@UAE@XZ 1002a3f0 f i bncs_instance_lookup.obj
 0002:00010450       ??1?$QValueListNode@VinstanceInfo@@@@UAE@XZ 1002a450 f i bncs_instance_lookup.obj
 0002:000104b0       ??1?$QValueListNode@VparamInfo@@@@UAE@XZ 1002a4b0 f i bncs_instance_lookup.obj
 0002:00010510       ??1?$QValueListPrivate@VcomplexInstance@@@@UAE@XZ 1002a510 f i bncs_instance_lookup.obj
 0002:00010660       ??1?$QValueListPrivate@VcomplexParam@@@@UAE@XZ 1002a660 f i bncs_instance_lookup.obj
 0002:000107b0       ??1?$QValueListPrivate@VcomplexType@@@@UAE@XZ 1002a7b0 f i bncs_instance_lookup.obj
 0002:00010900       ??1?$QValueListPrivate@VdeviceTypeInfo@@@@UAE@XZ 1002a900 f i bncs_instance_lookup.obj
 0002:00010a50       ??1?$QValueListPrivate@VinstanceInfo@@@@UAE@XZ 1002aa50 f i bncs_instance_lookup.obj
 0002:00010ba0       ??1?$QValueListPrivate@VparamInfo@@@@UAE@XZ 1002aba0 f i bncs_instance_lookup.obj
 0002:00010cf0       ??1?$_String_alloc@$0A@U?$_String_base_types@DV?$allocator@D@std@@@std@@@std@@QAE@XZ 1002acf0 f i bncs_instance_lookup.obj
 0002:00010d50       ??1?$_String_val@U?$_Simple_types@D@std@@@std@@QAE@XZ 1002ad50 f i bncs_instance_lookup.obj
 0002:00010db0       ??1_Generic_error_category@std@@UAE@XZ 1002adb0 f i bncs_instance_lookup.obj
 0002:00010e00       ??1_Iostream_error_category@std@@UAE@XZ 1002ae00 f i bncs_instance_lookup.obj
 0002:00010e50       ??1_System_error_category@std@@UAE@XZ 1002ae50 f i bncs_instance_lookup.obj
 0002:00010ea0       ??1error_category@std@@UAE@XZ 1002aea0 f i bncs_instance_lookup.obj
 0002:00010ee0       ??2@YAPAXIPAX@Z            1002aee0 f i bncs_instance_lookup.obj
 0002:00010f20       ??3@YAXPAX0@Z              1002af20 f i bncs_instance_lookup.obj
 0002:00010f50       ??4?$QMap@VQString@@VcomplexInstance@@@@QAEAAV0@ABV0@@Z 1002af50 f i bncs_instance_lookup.obj
 0002:00011040       ??4?$QMap@VQString@@VcomplexParam@@@@QAEAAV0@ABV0@@Z 1002b040 f i bncs_instance_lookup.obj
 0002:00011130       ??4?$QMap@VQString@@VcomplexType@@@@QAEAAV0@ABV0@@Z 1002b130 f i bncs_instance_lookup.obj
 0002:00011220       ??4?$QMap@VQString@@VdeviceTypeInfo@@@@QAEAAV0@ABV0@@Z 1002b220 f i bncs_instance_lookup.obj
 0002:00011310       ??4?$QMap@VQString@@VinstanceInfo@@@@QAEAAV0@ABV0@@Z 1002b310 f i bncs_instance_lookup.obj
 0002:00011400       ??4?$QMap@VQString@@VparamInfo@@@@QAEAAV0@ABV0@@Z 1002b400 f i bncs_instance_lookup.obj
 0002:000114f0       ??4bncs_instance_lookup@@QAEAAV0@ABV0@@Z 1002b4f0 f i bncs_instance_lookup.obj
 0002:00011530       ??4complexInstance@@QAEAAV0@ABV0@@Z 1002b530 f i bncs_instance_lookup.obj
 0002:000115a0       ??4complexParam@@QAEAAV0@ABV0@@Z 1002b5a0 f i bncs_instance_lookup.obj
 0002:00011640       ??4complexType@@QAEAAV0@ABV0@@Z 1002b640 f i bncs_instance_lookup.obj
 0002:000116b0       ??4deviceTypeInfo@@QAEAAV0@ABV0@@Z 1002b6b0 f i bncs_instance_lookup.obj
 0002:00011730       ??4instanceInfo@@QAEAAV0@ABV0@@Z 1002b730 f i bncs_instance_lookup.obj
 0002:00011860       ??4paramInfo@@QAEAAV0@ABV0@@Z 1002b860 f i bncs_instance_lookup.obj
 0002:000118b0       ??8?$QMapIterator@VQString@@VcomplexInstance@@@@QBE_NABV0@@Z 1002b8b0 f i bncs_instance_lookup.obj
 0002:00011920       ??8?$QMapIterator@VQString@@VcomplexParam@@@@QBE_NABV0@@Z 1002b920 f i bncs_instance_lookup.obj
 0002:00011990       ??8?$QMapIterator@VQString@@VcomplexType@@@@QBE_NABV0@@Z 1002b990 f i bncs_instance_lookup.obj
 0002:00011a00       ??8?$QMapIterator@VQString@@VdeviceTypeInfo@@@@QBE_NABV0@@Z 1002ba00 f i bncs_instance_lookup.obj
 0002:00011a70       ??8?$QMapIterator@VQString@@VinstanceInfo@@@@QBE_NABV0@@Z 1002ba70 f i bncs_instance_lookup.obj
 0002:00011ae0       ??8?$QMapIterator@VQString@@VparamInfo@@@@QBE_NABV0@@Z 1002bae0 f i bncs_instance_lookup.obj
 0002:00011b50       ??8error_category@std@@QBE_NABV01@@Z 1002bb50 f i bncs_instance_lookup.obj
 0002:00011bc0       ??8error_condition@std@@QBE_NABV01@@Z 1002bbc0 f i bncs_instance_lookup.obj
 0002:00011c70       ??9?$QMapConstIterator@VQString@@VcomplexInstance@@@@QBE_NABV0@@Z 1002bc70 f i bncs_instance_lookup.obj
 0002:00011ce0       ??9?$QMapConstIterator@VQString@@VcomplexParam@@@@QBE_NABV0@@Z 1002bce0 f i bncs_instance_lookup.obj
 0002:00011d50       ??9?$QMapConstIterator@VQString@@VcomplexType@@@@QBE_NABV0@@Z 1002bd50 f i bncs_instance_lookup.obj
 0002:00011dc0       ??9?$QMapConstIterator@VQString@@VdeviceTypeInfo@@@@QBE_NABV0@@Z 1002bdc0 f i bncs_instance_lookup.obj
 0002:00011e30       ??9?$QMapConstIterator@VQString@@VinstanceInfo@@@@QBE_NABV0@@Z 1002be30 f i bncs_instance_lookup.obj
 0002:00011ea0       ??9?$QMapConstIterator@VQString@@VparamInfo@@@@QBE_NABV0@@Z 1002bea0 f i bncs_instance_lookup.obj
 0002:00011f10       ??9?$QMapIterator@VQString@@V1@@@QBE_NABV0@@Z 1002bf10 f i bncs_instance_lookup.obj
 0002:00011f80       ??9?$QMapIterator@VQString@@VcomplexInstance@@@@QBE_NABV0@@Z 1002bf80 f i bncs_instance_lookup.obj
 0002:00011ff0       ??9?$QMapIterator@VQString@@VcomplexParam@@@@QBE_NABV0@@Z 1002bff0 f i bncs_instance_lookup.obj
 0002:00012060       ??9?$QMapIterator@VQString@@VcomplexType@@@@QBE_NABV0@@Z 1002c060 f i bncs_instance_lookup.obj
 0002:000120d0       ??9?$QMapIterator@VQString@@VdeviceTypeInfo@@@@QBE_NABV0@@Z 1002c0d0 f i bncs_instance_lookup.obj
 0002:00012140       ??9?$QMapIterator@VQString@@VinstanceInfo@@@@QBE_NABV0@@Z 1002c140 f i bncs_instance_lookup.obj
 0002:000121b0       ??9?$QMapIterator@VQString@@VparamInfo@@@@QBE_NABV0@@Z 1002c1b0 f i bncs_instance_lookup.obj
 0002:00012220       ??9?$QValueListIterator@VcomplexInstance@@@@QBE_NABV0@@Z 1002c220 f i bncs_instance_lookup.obj
 0002:00012290       ??9?$QValueListIterator@VcomplexParam@@@@QBE_NABV0@@Z 1002c290 f i bncs_instance_lookup.obj
 0002:00012300       ??9?$QValueListIterator@VcomplexType@@@@QBE_NABV0@@Z 1002c300 f i bncs_instance_lookup.obj
 0002:00012370       ??9?$QValueListIterator@VdeviceTypeInfo@@@@QBE_NABV0@@Z 1002c370 f i bncs_instance_lookup.obj
 0002:000123e0       ??9?$QValueListIterator@VinstanceInfo@@@@QBE_NABV0@@Z 1002c3e0 f i bncs_instance_lookup.obj
 0002:00012450       ??9?$QValueListIterator@VparamInfo@@@@QBE_NABV0@@Z 1002c450 f i bncs_instance_lookup.obj
 0002:000124c0       ??A?$QMap@VQString@@VcomplexInstance@@@@QAEAAVcomplexInstance@@ABVQString@@@Z 1002c4c0 f i bncs_instance_lookup.obj
 0002:00012610       ??A?$QMap@VQString@@VcomplexInstance@@@@QBEABVcomplexInstance@@ABVQString@@@Z 1002c610 f i bncs_instance_lookup.obj
 0002:00012680       ??A?$QMap@VQString@@VcomplexParam@@@@QAEAAVcomplexParam@@ABVQString@@@Z 1002c680 f i bncs_instance_lookup.obj
 0002:000127d0       ??A?$QMap@VQString@@VcomplexParam@@@@QBEABVcomplexParam@@ABVQString@@@Z 1002c7d0 f i bncs_instance_lookup.obj
 0002:00012840       ??A?$QMap@VQString@@VcomplexType@@@@QAEAAVcomplexType@@ABVQString@@@Z 1002c840 f i bncs_instance_lookup.obj
 0002:00012990       ??A?$QMap@VQString@@VcomplexType@@@@QBEABVcomplexType@@ABVQString@@@Z 1002c990 f i bncs_instance_lookup.obj
 0002:00012a00       ??A?$QMap@VQString@@VdeviceTypeInfo@@@@QAEAAVdeviceTypeInfo@@ABVQString@@@Z 1002ca00 f i bncs_instance_lookup.obj
 0002:00012b50       ??A?$QMap@VQString@@VdeviceTypeInfo@@@@QBEABVdeviceTypeInfo@@ABVQString@@@Z 1002cb50 f i bncs_instance_lookup.obj
 0002:00012bc0       ??A?$QMap@VQString@@VinstanceInfo@@@@QAEAAVinstanceInfo@@ABVQString@@@Z 1002cbc0 f i bncs_instance_lookup.obj
 0002:00012d10       ??A?$QMap@VQString@@VinstanceInfo@@@@QBEABVinstanceInfo@@ABVQString@@@Z 1002cd10 f i bncs_instance_lookup.obj
 0002:00012d80       ??A?$QMap@VQString@@VparamInfo@@@@QAEAAVparamInfo@@ABVQString@@@Z 1002cd80 f i bncs_instance_lookup.obj
 0002:00012ed0       ??A?$QMap@VQString@@VparamInfo@@@@QBEABVparamInfo@@ABVQString@@@Z 1002ced0 f i bncs_instance_lookup.obj
 0002:00012f40       ??D?$QMapConstIterator@VQString@@VcomplexInstance@@@@QBEABVcomplexInstance@@XZ 1002cf40 f i bncs_instance_lookup.obj
 0002:00012f80       ??D?$QMapConstIterator@VQString@@VcomplexParam@@@@QBEABVcomplexParam@@XZ 1002cf80 f i bncs_instance_lookup.obj
 0002:00012fc0       ??D?$QMapConstIterator@VQString@@VcomplexType@@@@QBEABVcomplexType@@XZ 1002cfc0 f i bncs_instance_lookup.obj
 0002:00013000       ??D?$QMapConstIterator@VQString@@VdeviceTypeInfo@@@@QBEABVdeviceTypeInfo@@XZ 1002d000 f i bncs_instance_lookup.obj
 0002:00013040       ??D?$QMapConstIterator@VQString@@VinstanceInfo@@@@QBEABVinstanceInfo@@XZ 1002d040 f i bncs_instance_lookup.obj
 0002:00013080       ??D?$QMapConstIterator@VQString@@VparamInfo@@@@QBEABVparamInfo@@XZ 1002d080 f i bncs_instance_lookup.obj
 0002:000130c0       ??D?$QMapIterator@VQString@@VinstanceInfo@@@@QAEAAVinstanceInfo@@XZ 1002d0c0 f i bncs_instance_lookup.obj
 0002:00013100       ??D?$QValueListIterator@VcomplexInstance@@@@QAEAAVcomplexInstance@@XZ 1002d100 f i bncs_instance_lookup.obj
 0002:00013140       ??D?$QValueListIterator@VcomplexParam@@@@QAEAAVcomplexParam@@XZ 1002d140 f i bncs_instance_lookup.obj
 0002:00013180       ??D?$QValueListIterator@VcomplexType@@@@QAEAAVcomplexType@@XZ 1002d180 f i bncs_instance_lookup.obj
 0002:000131c0       ??D?$QValueListIterator@VdeviceTypeInfo@@@@QAEAAVdeviceTypeInfo@@XZ 1002d1c0 f i bncs_instance_lookup.obj
 0002:00013200       ??D?$QValueListIterator@VinstanceInfo@@@@QAEAAVinstanceInfo@@XZ 1002d200 f i bncs_instance_lookup.obj
 0002:00013240       ??D?$QValueListIterator@VparamInfo@@@@QAEAAVparamInfo@@XZ 1002d240 f i bncs_instance_lookup.obj
 0002:00013280       ??E?$QMapConstIterator@VQString@@VcomplexInstance@@@@QAEAAV0@XZ 1002d280 f i bncs_instance_lookup.obj
 0002:000132e0       ??E?$QMapConstIterator@VQString@@VcomplexParam@@@@QAEAAV0@XZ 1002d2e0 f i bncs_instance_lookup.obj
 0002:00013340       ??E?$QMapConstIterator@VQString@@VcomplexType@@@@QAEAAV0@XZ 1002d340 f i bncs_instance_lookup.obj
 0002:000133a0       ??E?$QMapConstIterator@VQString@@VdeviceTypeInfo@@@@QAEAAV0@XZ 1002d3a0 f i bncs_instance_lookup.obj
 0002:00013400       ??E?$QMapConstIterator@VQString@@VinstanceInfo@@@@QAEAAV0@XZ 1002d400 f i bncs_instance_lookup.obj
 0002:00013460       ??E?$QMapConstIterator@VQString@@VparamInfo@@@@QAEAAV0@XZ 1002d460 f i bncs_instance_lookup.obj
 0002:000134c0       ??E?$QMapIterator@VQString@@VinstanceInfo@@@@QAEAAV0@XZ 1002d4c0 f i bncs_instance_lookup.obj
 0002:00013520       ??E?$QValueListIterator@VcomplexInstance@@@@QAE?AV0@H@Z 1002d520 f i bncs_instance_lookup.obj
 0002:000135d0       ??E?$QValueListIterator@VcomplexParam@@@@QAE?AV0@H@Z 1002d5d0 f i bncs_instance_lookup.obj
 0002:00013680       ??E?$QValueListIterator@VcomplexType@@@@QAE?AV0@H@Z 1002d680 f i bncs_instance_lookup.obj
 0002:00013730       ??E?$QValueListIterator@VdeviceTypeInfo@@@@QAE?AV0@H@Z 1002d730 f i bncs_instance_lookup.obj
 0002:000137e0       ??E?$QValueListIterator@VinstanceInfo@@@@QAE?AV0@H@Z 1002d7e0 f i bncs_instance_lookup.obj
 0002:00013890       ??E?$QValueListIterator@VparamInfo@@@@QAE?AV0@H@Z 1002d890 f i bncs_instance_lookup.obj
 0002:00013940       ??F?$QMapIterator@VQString@@VcomplexInstance@@@@QAEAAV0@XZ 1002d940 f i bncs_instance_lookup.obj
 0002:000139a0       ??F?$QMapIterator@VQString@@VcomplexParam@@@@QAEAAV0@XZ 1002d9a0 f i bncs_instance_lookup.obj
 0002:00013a00       ??F?$QMapIterator@VQString@@VcomplexType@@@@QAEAAV0@XZ 1002da00 f i bncs_instance_lookup.obj
 0002:00013a60       ??F?$QMapIterator@VQString@@VdeviceTypeInfo@@@@QAEAAV0@XZ 1002da60 f i bncs_instance_lookup.obj
 0002:00013ac0       ??F?$QMapIterator@VQString@@VinstanceInfo@@@@QAEAAV0@XZ 1002dac0 f i bncs_instance_lookup.obj
 0002:00013b20       ??F?$QMapIterator@VQString@@VparamInfo@@@@QAEAAV0@XZ 1002db20 f i bncs_instance_lookup.obj
 0002:00013b80       ??_Ebncs_instance_lookup@@UAEPAXI@Z 1002db80 f i bncs_instance_lookup.obj
 0002:00013c40       ??_EcomplexInstance@@UAEPAXI@Z 1002dc40 f i bncs_instance_lookup.obj
 0002:00013d00       ??_EcomplexParam@@UAEPAXI@Z 1002dd00 f i bncs_instance_lookup.obj
 0002:00013dc0       ??_EcomplexType@@UAEPAXI@Z 1002ddc0 f i bncs_instance_lookup.obj
 0002:00013e80       ??_EdeviceTypeInfo@@UAEPAXI@Z 1002de80 f i bncs_instance_lookup.obj
 0002:00013f40       ??_EinstanceInfo@@UAEPAXI@Z 1002df40 f i bncs_instance_lookup.obj
 0002:00014000       ??_EparamInfo@@UAEPAXI@Z   1002e000 f i bncs_instance_lookup.obj
 0002:000140c0       ??_G?$QMapNode@VQString@@VcomplexInstance@@@@QAEPAXI@Z 1002e0c0 f i bncs_instance_lookup.obj
 0002:00014130       ??_G?$QMapNode@VQString@@VcomplexParam@@@@QAEPAXI@Z 1002e130 f i bncs_instance_lookup.obj
 0002:000141a0       ??_G?$QMapNode@VQString@@VcomplexType@@@@QAEPAXI@Z 1002e1a0 f i bncs_instance_lookup.obj
 0002:00014210       ??_G?$QMapNode@VQString@@VdeviceTypeInfo@@@@QAEPAXI@Z 1002e210 f i bncs_instance_lookup.obj
 0002:00014280       ??_G?$QMapNode@VQString@@VinstanceInfo@@@@QAEPAXI@Z 1002e280 f i bncs_instance_lookup.obj
 0002:000142f0       ??_G?$QMapNode@VQString@@VparamInfo@@@@QAEPAXI@Z 1002e2f0 f i bncs_instance_lookup.obj
 0002:00014360       ??_G?$QMapPrivate@VQString@@VcomplexInstance@@@@QAEPAXI@Z 1002e360 f i bncs_instance_lookup.obj
 0002:000143d0       ??_G?$QMapPrivate@VQString@@VcomplexParam@@@@QAEPAXI@Z 1002e3d0 f i bncs_instance_lookup.obj
 0002:00014440       ??_G?$QMapPrivate@VQString@@VcomplexType@@@@QAEPAXI@Z 1002e440 f i bncs_instance_lookup.obj
 0002:000144b0       ??_G?$QMapPrivate@VQString@@VdeviceTypeInfo@@@@QAEPAXI@Z 1002e4b0 f i bncs_instance_lookup.obj
 0002:00014520       ??_G?$QMapPrivate@VQString@@VinstanceInfo@@@@QAEPAXI@Z 1002e520 f i bncs_instance_lookup.obj
 0002:00014590       ??_G?$QMapPrivate@VQString@@VparamInfo@@@@QAEPAXI@Z 1002e590 f i bncs_instance_lookup.obj
 0002:00014600       ??_G?$QValueListNode@VcomplexInstance@@@@UAEPAXI@Z 1002e600 f i bncs_instance_lookup.obj
 0002:00014600       ??_E?$QValueListNode@VcomplexInstance@@@@UAEPAXI@Z 1002e600 f i bncs_instance_lookup.obj
 0002:00014670       ??_G?$QValueListNode@VcomplexParam@@@@UAEPAXI@Z 1002e670 f i bncs_instance_lookup.obj
 0002:00014670       ??_E?$QValueListNode@VcomplexParam@@@@UAEPAXI@Z 1002e670 f i bncs_instance_lookup.obj
 0002:000146e0       ??_E?$QValueListNode@VcomplexType@@@@UAEPAXI@Z 1002e6e0 f i bncs_instance_lookup.obj
 0002:000146e0       ??_G?$QValueListNode@VcomplexType@@@@UAEPAXI@Z 1002e6e0 f i bncs_instance_lookup.obj
 0002:00014750       ??_E?$QValueListNode@VdeviceTypeInfo@@@@UAEPAXI@Z 1002e750 f i bncs_instance_lookup.obj
 0002:00014750       ??_G?$QValueListNode@VdeviceTypeInfo@@@@UAEPAXI@Z 1002e750 f i bncs_instance_lookup.obj
 0002:000147c0       ??_E?$QValueListNode@VinstanceInfo@@@@UAEPAXI@Z 1002e7c0 f i bncs_instance_lookup.obj
 0002:000147c0       ??_G?$QValueListNode@VinstanceInfo@@@@UAEPAXI@Z 1002e7c0 f i bncs_instance_lookup.obj
 0002:00014830       ??_G?$QValueListNode@VparamInfo@@@@UAEPAXI@Z 1002e830 f i bncs_instance_lookup.obj
 0002:00014830       ??_E?$QValueListNode@VparamInfo@@@@UAEPAXI@Z 1002e830 f i bncs_instance_lookup.obj
 0002:000148a0       ??_G?$QValueListPrivate@VcomplexInstance@@@@UAEPAXI@Z 1002e8a0 f i bncs_instance_lookup.obj
 0002:000148a0       ??_E?$QValueListPrivate@VcomplexInstance@@@@UAEPAXI@Z 1002e8a0 f i bncs_instance_lookup.obj
 0002:00014910       ??_G?$QValueListPrivate@VcomplexParam@@@@UAEPAXI@Z 1002e910 f i bncs_instance_lookup.obj
 0002:00014910       ??_E?$QValueListPrivate@VcomplexParam@@@@UAEPAXI@Z 1002e910 f i bncs_instance_lookup.obj
 0002:00014980       ??_E?$QValueListPrivate@VcomplexType@@@@UAEPAXI@Z 1002e980 f i bncs_instance_lookup.obj
 0002:00014980       ??_G?$QValueListPrivate@VcomplexType@@@@UAEPAXI@Z 1002e980 f i bncs_instance_lookup.obj
 0002:000149f0       ??_E?$QValueListPrivate@VdeviceTypeInfo@@@@UAEPAXI@Z 1002e9f0 f i bncs_instance_lookup.obj
 0002:000149f0       ??_G?$QValueListPrivate@VdeviceTypeInfo@@@@UAEPAXI@Z 1002e9f0 f i bncs_instance_lookup.obj
 0002:00014a60       ??_G?$QValueListPrivate@VinstanceInfo@@@@UAEPAXI@Z 1002ea60 f i bncs_instance_lookup.obj
 0002:00014a60       ??_E?$QValueListPrivate@VinstanceInfo@@@@UAEPAXI@Z 1002ea60 f i bncs_instance_lookup.obj
 0002:00014ad0       ??_E?$QValueListPrivate@VparamInfo@@@@UAEPAXI@Z 1002ead0 f i bncs_instance_lookup.obj
 0002:00014ad0       ??_G?$QValueListPrivate@VparamInfo@@@@UAEPAXI@Z 1002ead0 f i bncs_instance_lookup.obj
 0002:00014b40       ??_E_Generic_error_category@std@@UAEPAXI@Z 1002eb40 f i bncs_instance_lookup.obj
 0002:00014b40       ??_G_Generic_error_category@std@@UAEPAXI@Z 1002eb40 f i bncs_instance_lookup.obj
 0002:00014bb0       ??_G_Iostream_error_category@std@@UAEPAXI@Z 1002ebb0 f i bncs_instance_lookup.obj
 0002:00014bb0       ??_E_Iostream_error_category@std@@UAEPAXI@Z 1002ebb0 f i bncs_instance_lookup.obj
 0002:00014c20       ??_G_System_error_category@std@@UAEPAXI@Z 1002ec20 f i bncs_instance_lookup.obj
 0002:00014c20       ??_E_System_error_category@std@@UAEPAXI@Z 1002ec20 f i bncs_instance_lookup.obj
 0002:00014c90       ??_Gbncs_instance_lookup@@UAEPAXI@Z 1002ec90 f i bncs_instance_lookup.obj
 0002:00014d00       ??_GcomplexInstance@@UAEPAXI@Z 1002ed00 f i bncs_instance_lookup.obj
 0002:00014d70       ??_GcomplexParam@@UAEPAXI@Z 1002ed70 f i bncs_instance_lookup.obj
 0002:00014de0       ??_GcomplexType@@UAEPAXI@Z 1002ede0 f i bncs_instance_lookup.obj
 0002:00014e50       ??_GdeviceTypeInfo@@UAEPAXI@Z 1002ee50 f i bncs_instance_lookup.obj
 0002:00014ec0       ??_Eerror_category@std@@UAEPAXI@Z 1002eec0 f i bncs_instance_lookup.obj
 0002:00014ec0       ??_Gerror_category@std@@UAEPAXI@Z 1002eec0 f i bncs_instance_lookup.obj
 0002:00014f30       ??_GinstanceInfo@@UAEPAXI@Z 1002ef30 f i bncs_instance_lookup.obj
 0002:00014fa0       ??_GparamInfo@@UAEPAXI@Z   1002efa0 f i bncs_instance_lookup.obj
 0002:00015010       ?_Alloc_proxy@?$_String_alloc@$0A@U?$_String_base_types@DV?$allocator@D@std@@@std@@@std@@QAEXXZ 1002f010 f i bncs_instance_lookup.obj
 0002:000150e0       ?_Copy@?$basic_string@DU?$char_traits@D@std@@V?$allocator@D@2@@std@@QAEXII@Z 1002f0e0 f i bncs_instance_lookup.obj
 0002:000153a0       ?_Eos@?$basic_string@DU?$char_traits@D@std@@V?$allocator@D@2@@std@@QAEXI@Z 1002f3a0 f i bncs_instance_lookup.obj
 0002:00015420       ?_Free_proxy@?$_String_alloc@$0A@U?$_String_base_types@DV?$allocator@D@std@@@std@@@std@@QAEXXZ 1002f420 f i bncs_instance_lookup.obj
 0002:00015500       ?_Getal@?$_String_alloc@$0A@U?$_String_base_types@DV?$allocator@D@std@@@std@@@std@@QBE?AU?$_Wrap_alloc@V?$allocator@D@std@@@2@XZ 1002f500 f i bncs_instance_lookup.obj
 0002:00015560       ?_Grow@?$basic_string@DU?$char_traits@D@std@@V?$allocator@D@2@@std@@QAE_NI_N@Z 1002f560 f i bncs_instance_lookup.obj
 0002:00015680       ?_Inside@?$basic_string@DU?$char_traits@D@std@@V?$allocator@D@2@@std@@QAE_NPBD@Z 1002f680 f i bncs_instance_lookup.obj
 0002:00015700       ?_Myptr@?$_String_val@U?$_Simple_types@D@std@@@std@@QAEPADXZ 1002f700 f i bncs_instance_lookup.obj
 0002:00015790       ?_Myptr@?$_String_val@U?$_Simple_types@D@std@@@std@@QBEPBDXZ 1002f790 f i bncs_instance_lookup.obj
 0002:00015820       ?_Tidy@?$basic_string@DU?$char_traits@D@std@@V?$allocator@D@2@@std@@QAEX_NI@Z 1002f820 f i bncs_instance_lookup.obj
 0002:00015930       ?_Xlen@?$basic_string@DU?$char_traits@D@std@@V?$allocator@D@2@@std@@QBEXXZ 1002f930 f i bncs_instance_lookup.obj
 0002:00015990       ?_Xran@?$basic_string@DU?$char_traits@D@std@@V?$allocator@D@2@@std@@QBEXXZ 1002f990 f i bncs_instance_lookup.obj
 0002:000159f0       ?allocate@?$_Wrap_alloc@V?$allocator@D@std@@@std@@QAEPADI@Z 1002f9f0 f i bncs_instance_lookup.obj
 0002:00015a50       ?allocate@?$allocator@D@std@@QAEPADI@Z 1002fa50 f i bncs_instance_lookup.obj
 0002:00015ab0       ?allocate@?$allocator@U_Container_proxy@std@@@std@@QAEPAU_Container_proxy@2@I@Z 1002fab0 f i bncs_instance_lookup.obj
 0002:00015b10       ?append@?$QValueList@VcomplexInstance@@@@QAE?AV?$QValueListIterator@VcomplexInstance@@@@ABVcomplexInstance@@@Z 1002fb10 f i bncs_instance_lookup.obj
 0002:00015b90       ?append@?$QValueList@VcomplexParam@@@@QAE?AV?$QValueListIterator@VcomplexParam@@@@ABVcomplexParam@@@Z 1002fb90 f i bncs_instance_lookup.obj
 0002:00015c10       ?append@?$QValueList@VcomplexType@@@@QAE?AV?$QValueListIterator@VcomplexType@@@@ABVcomplexType@@@Z 1002fc10 f i bncs_instance_lookup.obj
 0002:00015c90       ?append@?$QValueList@VdeviceTypeInfo@@@@QAE?AV?$QValueListIterator@VdeviceTypeInfo@@@@ABVdeviceTypeInfo@@@Z 1002fc90 f i bncs_instance_lookup.obj
 0002:00015d10       ?append@?$QValueList@VinstanceInfo@@@@QAE?AV?$QValueListIterator@VinstanceInfo@@@@ABVinstanceInfo@@@Z 1002fd10 f i bncs_instance_lookup.obj
 0002:00015d90       ?append@?$QValueList@VparamInfo@@@@QAE?AV?$QValueListIterator@VparamInfo@@@@ABVparamInfo@@@Z 1002fd90 f i bncs_instance_lookup.obj
 0002:00015e10       ?assign@?$basic_string@DU?$char_traits@D@std@@V?$allocator@D@2@@std@@QAEAAV12@ABV12@II@Z 1002fe10 f i bncs_instance_lookup.obj
 0002:00015f20       ?assign@?$basic_string@DU?$char_traits@D@std@@V?$allocator@D@2@@std@@QAEAAV12@PBD@Z 1002ff20 f i bncs_instance_lookup.obj
 0002:00015fb0       ?assign@?$basic_string@DU?$char_traits@D@std@@V?$allocator@D@2@@std@@QAEAAV12@PBDI@Z 1002ffb0 f i bncs_instance_lookup.obj
 0002:000160b0       ?assign@?$char_traits@D@std@@SAXAADABD@Z 100300b0 f i bncs_instance_lookup.obj
 0002:000160f0       ?begin@?$QMap@VQString@@VcomplexInstance@@@@QAE?AV?$QMapIterator@VQString@@VcomplexInstance@@@@XZ 100300f0 f i bncs_instance_lookup.obj
 0002:00016160       ?begin@?$QMap@VQString@@VcomplexInstance@@@@QBE?AV?$QMapConstIterator@VQString@@VcomplexInstance@@@@XZ 10030160 f i bncs_instance_lookup.obj
 0002:000161c0       ?begin@?$QMap@VQString@@VcomplexParam@@@@QAE?AV?$QMapIterator@VQString@@VcomplexParam@@@@XZ 100301c0 f i bncs_instance_lookup.obj
 0002:00016230       ?begin@?$QMap@VQString@@VcomplexParam@@@@QBE?AV?$QMapConstIterator@VQString@@VcomplexParam@@@@XZ 10030230 f i bncs_instance_lookup.obj
 0002:00016290       ?begin@?$QMap@VQString@@VcomplexType@@@@QAE?AV?$QMapIterator@VQString@@VcomplexType@@@@XZ 10030290 f i bncs_instance_lookup.obj
 0002:00016300       ?begin@?$QMap@VQString@@VcomplexType@@@@QBE?AV?$QMapConstIterator@VQString@@VcomplexType@@@@XZ 10030300 f i bncs_instance_lookup.obj
 0002:00016360       ?begin@?$QMap@VQString@@VdeviceTypeInfo@@@@QAE?AV?$QMapIterator@VQString@@VdeviceTypeInfo@@@@XZ 10030360 f i bncs_instance_lookup.obj
 0002:000163d0       ?begin@?$QMap@VQString@@VdeviceTypeInfo@@@@QBE?AV?$QMapConstIterator@VQString@@VdeviceTypeInfo@@@@XZ 100303d0 f i bncs_instance_lookup.obj
 0002:00016430       ?begin@?$QMap@VQString@@VinstanceInfo@@@@QAE?AV?$QMapIterator@VQString@@VinstanceInfo@@@@XZ 10030430 f i bncs_instance_lookup.obj
 0002:000164a0       ?begin@?$QMap@VQString@@VinstanceInfo@@@@QBE?AV?$QMapConstIterator@VQString@@VinstanceInfo@@@@XZ 100304a0 f i bncs_instance_lookup.obj
 0002:00016500       ?begin@?$QMap@VQString@@VparamInfo@@@@QAE?AV?$QMapIterator@VQString@@VparamInfo@@@@XZ 10030500 f i bncs_instance_lookup.obj
 0002:00016570       ?begin@?$QMap@VQString@@VparamInfo@@@@QBE?AV?$QMapConstIterator@VQString@@VparamInfo@@@@XZ 10030570 f i bncs_instance_lookup.obj
 0002:000165d0       ?begin@?$QMapPrivate@VQString@@VcomplexInstance@@@@QAE?AV?$QMapIterator@VQString@@VcomplexInstance@@@@XZ 100305d0 f i bncs_instance_lookup.obj
 0002:00016630       ?begin@?$QMapPrivate@VQString@@VcomplexInstance@@@@QBE?AV?$QMapConstIterator@VQString@@VcomplexInstance@@@@XZ 10030630 f i bncs_instance_lookup.obj
 0002:00016690       ?begin@?$QMapPrivate@VQString@@VcomplexParam@@@@QAE?AV?$QMapIterator@VQString@@VcomplexParam@@@@XZ 10030690 f i bncs_instance_lookup.obj
 0002:000166f0       ?begin@?$QMapPrivate@VQString@@VcomplexParam@@@@QBE?AV?$QMapConstIterator@VQString@@VcomplexParam@@@@XZ 100306f0 f i bncs_instance_lookup.obj
 0002:00016750       ?begin@?$QMapPrivate@VQString@@VcomplexType@@@@QAE?AV?$QMapIterator@VQString@@VcomplexType@@@@XZ 10030750 f i bncs_instance_lookup.obj
 0002:000167b0       ?begin@?$QMapPrivate@VQString@@VcomplexType@@@@QBE?AV?$QMapConstIterator@VQString@@VcomplexType@@@@XZ 100307b0 f i bncs_instance_lookup.obj
 0002:00016810       ?begin@?$QMapPrivate@VQString@@VdeviceTypeInfo@@@@QAE?AV?$QMapIterator@VQString@@VdeviceTypeInfo@@@@XZ 10030810 f i bncs_instance_lookup.obj
 0002:00016870       ?begin@?$QMapPrivate@VQString@@VdeviceTypeInfo@@@@QBE?AV?$QMapConstIterator@VQString@@VdeviceTypeInfo@@@@XZ 10030870 f i bncs_instance_lookup.obj
 0002:000168d0       ?begin@?$QMapPrivate@VQString@@VinstanceInfo@@@@QAE?AV?$QMapIterator@VQString@@VinstanceInfo@@@@XZ 100308d0 f i bncs_instance_lookup.obj
 0002:00016930       ?begin@?$QMapPrivate@VQString@@VinstanceInfo@@@@QBE?AV?$QMapConstIterator@VQString@@VinstanceInfo@@@@XZ 10030930 f i bncs_instance_lookup.obj
 0002:00016990       ?begin@?$QMapPrivate@VQString@@VparamInfo@@@@QAE?AV?$QMapIterator@VQString@@VparamInfo@@@@XZ 10030990 f i bncs_instance_lookup.obj
 0002:000169f0       ?begin@?$QMapPrivate@VQString@@VparamInfo@@@@QBE?AV?$QMapConstIterator@VQString@@VparamInfo@@@@XZ 100309f0 f i bncs_instance_lookup.obj
 0002:00016a50       ?category@error_code@std@@QBEABVerror_category@2@XZ 10030a50 f i bncs_instance_lookup.obj
 0002:00016a90       ?category@error_condition@std@@QBEABVerror_category@2@XZ 10030a90 f i bncs_instance_lookup.obj
 0002:00016ad0       ?clear@?$QMap@VQString@@VcomplexInstance@@@@QAEXXZ 10030ad0 f i bncs_instance_lookup.obj
 0002:00016bf0       ?clear@?$QMap@VQString@@VcomplexParam@@@@QAEXXZ 10030bf0 f i bncs_instance_lookup.obj
 0002:00016d10       ?clear@?$QMap@VQString@@VcomplexType@@@@QAEXXZ 10030d10 f i bncs_instance_lookup.obj
 0002:00016e30       ?clear@?$QMap@VQString@@VdeviceTypeInfo@@@@QAEXXZ 10030e30 f i bncs_instance_lookup.obj
 0002:00016f50       ?clear@?$QMap@VQString@@VinstanceInfo@@@@QAEXXZ 10030f50 f i bncs_instance_lookup.obj
 0002:00017070       ?clear@?$QMap@VQString@@VparamInfo@@@@QAEXXZ 10031070 f i bncs_instance_lookup.obj
 0002:00017190       ?clear@?$QMapPrivate@VQString@@VcomplexInstance@@@@QAEXPAU?$QMapNode@VQString@@VcomplexInstance@@@@@Z 10031190 f i bncs_instance_lookup.obj
 0002:00017260       ?clear@?$QMapPrivate@VQString@@VcomplexInstance@@@@QAEXXZ 10031260 f i bncs_instance_lookup.obj
 0002:00017310       ?clear@?$QMapPrivate@VQString@@VcomplexParam@@@@QAEXPAU?$QMapNode@VQString@@VcomplexParam@@@@@Z 10031310 f i bncs_instance_lookup.obj
 0002:000173e0       ?clear@?$QMapPrivate@VQString@@VcomplexParam@@@@QAEXXZ 100313e0 f i bncs_instance_lookup.obj
 0002:00017490       ?clear@?$QMapPrivate@VQString@@VcomplexType@@@@QAEXPAU?$QMapNode@VQString@@VcomplexType@@@@@Z 10031490 f i bncs_instance_lookup.obj
 0002:00017560       ?clear@?$QMapPrivate@VQString@@VcomplexType@@@@QAEXXZ 10031560 f i bncs_instance_lookup.obj
 0002:00017610       ?clear@?$QMapPrivate@VQString@@VdeviceTypeInfo@@@@QAEXPAU?$QMapNode@VQString@@VdeviceTypeInfo@@@@@Z 10031610 f i bncs_instance_lookup.obj
 0002:000176e0       ?clear@?$QMapPrivate@VQString@@VdeviceTypeInfo@@@@QAEXXZ 100316e0 f i bncs_instance_lookup.obj
 0002:00017790       ?clear@?$QMapPrivate@VQString@@VinstanceInfo@@@@QAEXPAU?$QMapNode@VQString@@VinstanceInfo@@@@@Z 10031790 f i bncs_instance_lookup.obj
 0002:00017860       ?clear@?$QMapPrivate@VQString@@VinstanceInfo@@@@QAEXXZ 10031860 f i bncs_instance_lookup.obj
 0002:00017910       ?clear@?$QMapPrivate@VQString@@VparamInfo@@@@QAEXPAU?$QMapNode@VQString@@VparamInfo@@@@@Z 10031910 f i bncs_instance_lookup.obj
 0002:000179e0       ?clear@?$QMapPrivate@VQString@@VparamInfo@@@@QAEXXZ 100319e0 f i bncs_instance_lookup.obj
 0002:00017a90       ?constBegin@?$QMap@VQString@@VcomplexInstance@@@@QBE?AV?$QMapConstIterator@VQString@@VcomplexInstance@@@@XZ 10031a90 f i bncs_instance_lookup.obj
 0002:00017af0       ?constBegin@?$QMap@VQString@@VcomplexParam@@@@QBE?AV?$QMapConstIterator@VQString@@VcomplexParam@@@@XZ 10031af0 f i bncs_instance_lookup.obj
 0002:00017b50       ?constBegin@?$QMap@VQString@@VcomplexType@@@@QBE?AV?$QMapConstIterator@VQString@@VcomplexType@@@@XZ 10031b50 f i bncs_instance_lookup.obj
 0002:00017bb0       ?constBegin@?$QMap@VQString@@VdeviceTypeInfo@@@@QBE?AV?$QMapConstIterator@VQString@@VdeviceTypeInfo@@@@XZ 10031bb0 f i bncs_instance_lookup.obj
 0002:00017c10       ?constBegin@?$QMap@VQString@@VinstanceInfo@@@@QBE?AV?$QMapConstIterator@VQString@@VinstanceInfo@@@@XZ 10031c10 f i bncs_instance_lookup.obj
 0002:00017c70       ?constBegin@?$QMap@VQString@@VparamInfo@@@@QBE?AV?$QMapConstIterator@VQString@@VparamInfo@@@@XZ 10031c70 f i bncs_instance_lookup.obj
 0002:00017cd0       ?constEnd@?$QMap@VQString@@VcomplexInstance@@@@QBE?AV?$QMapConstIterator@VQString@@VcomplexInstance@@@@XZ 10031cd0 f i bncs_instance_lookup.obj
 0002:00017d30       ?constEnd@?$QMap@VQString@@VcomplexParam@@@@QBE?AV?$QMapConstIterator@VQString@@VcomplexParam@@@@XZ 10031d30 f i bncs_instance_lookup.obj
 0002:00017d90       ?constEnd@?$QMap@VQString@@VcomplexType@@@@QBE?AV?$QMapConstIterator@VQString@@VcomplexType@@@@XZ 10031d90 f i bncs_instance_lookup.obj
 0002:00017df0       ?constEnd@?$QMap@VQString@@VdeviceTypeInfo@@@@QBE?AV?$QMapConstIterator@VQString@@VdeviceTypeInfo@@@@XZ 10031df0 f i bncs_instance_lookup.obj
 0002:00017e50       ?constEnd@?$QMap@VQString@@VinstanceInfo@@@@QBE?AV?$QMapConstIterator@VQString@@VinstanceInfo@@@@XZ 10031e50 f i bncs_instance_lookup.obj
 0002:00017eb0       ?constEnd@?$QMap@VQString@@VparamInfo@@@@QBE?AV?$QMapConstIterator@VQString@@VparamInfo@@@@XZ 10031eb0 f i bncs_instance_lookup.obj
 0002:00017f10       ?contains@?$QMap@VQString@@VcomplexInstance@@@@QBE_NABVQString@@@Z 10031f10 f i bncs_instance_lookup.obj
 0002:00017f90       ?contains@?$QMap@VQString@@VcomplexParam@@@@QBE_NABVQString@@@Z 10031f90 f i bncs_instance_lookup.obj
 0002:00018010       ?contains@?$QMap@VQString@@VcomplexType@@@@QBE_NABVQString@@@Z 10032010 f i bncs_instance_lookup.obj
 0002:00018090       ?contains@?$QMap@VQString@@VdeviceTypeInfo@@@@QBE_NABVQString@@@Z 10032090 f i bncs_instance_lookup.obj
 0002:00018110       ?contains@?$QMap@VQString@@VinstanceInfo@@@@QBE_NABVQString@@@Z 10032110 f i bncs_instance_lookup.obj
 0002:00018190       ?contains@?$QMap@VQString@@VparamInfo@@@@QBE_NABVQString@@@Z 10032190 f i bncs_instance_lookup.obj
 0002:00018210       ?copy@?$QMapPrivate@VQString@@VcomplexInstance@@@@QAEPAU?$QMapNode@VQString@@VcomplexInstance@@@@PAU2@@Z 10032210 f i bncs_instance_lookup.obj
 0002:000183b0       ?copy@?$QMapPrivate@VQString@@VcomplexParam@@@@QAEPAU?$QMapNode@VQString@@VcomplexParam@@@@PAU2@@Z 100323b0 f i bncs_instance_lookup.obj
 0002:00018550       ?copy@?$QMapPrivate@VQString@@VcomplexType@@@@QAEPAU?$QMapNode@VQString@@VcomplexType@@@@PAU2@@Z 10032550 f i bncs_instance_lookup.obj
 0002:000186f0       ?copy@?$QMapPrivate@VQString@@VdeviceTypeInfo@@@@QAEPAU?$QMapNode@VQString@@VdeviceTypeInfo@@@@PAU2@@Z 100326f0 f i bncs_instance_lookup.obj
 0002:00018890       ?copy@?$QMapPrivate@VQString@@VinstanceInfo@@@@QAEPAU?$QMapNode@VQString@@VinstanceInfo@@@@PAU2@@Z 10032890 f i bncs_instance_lookup.obj
 0002:00018a30       ?copy@?$QMapPrivate@VQString@@VparamInfo@@@@QAEPAU?$QMapNode@VQString@@VparamInfo@@@@PAU2@@Z 10032a30 f i bncs_instance_lookup.obj
 0002:00018bd0       ?copy@?$char_traits@D@std@@SAPADPADPBDI@Z 10032bd0 f i bncs_instance_lookup.obj
 0002:00018c50       ?count@?$QMap@VQString@@VcomplexInstance@@@@QBEIABVQString@@@Z 10032c50 f i bncs_instance_lookup.obj
 0002:00018d70       ?count@?$QMap@VQString@@VcomplexInstance@@@@QBEIXZ 10032d70 f i bncs_instance_lookup.obj
 0002:00018db0       ?count@?$QMap@VQString@@VcomplexParam@@@@QBEIABVQString@@@Z 10032db0 f i bncs_instance_lookup.obj
 0002:00018ed0       ?count@?$QMap@VQString@@VcomplexParam@@@@QBEIXZ 10032ed0 f i bncs_instance_lookup.obj
 0002:00018f10       ?count@?$QMap@VQString@@VcomplexType@@@@QBEIABVQString@@@Z 10032f10 f i bncs_instance_lookup.obj
 0002:00019030       ?count@?$QMap@VQString@@VcomplexType@@@@QBEIXZ 10033030 f i bncs_instance_lookup.obj
 0002:00019070       ?count@?$QMap@VQString@@VdeviceTypeInfo@@@@QBEIABVQString@@@Z 10033070 f i bncs_instance_lookup.obj
 0002:00019190       ?count@?$QMap@VQString@@VdeviceTypeInfo@@@@QBEIXZ 10033190 f i bncs_instance_lookup.obj
 0002:000191d0       ?count@?$QMap@VQString@@VinstanceInfo@@@@QBEIABVQString@@@Z 100331d0 f i bncs_instance_lookup.obj
 0002:000192f0       ?count@?$QMap@VQString@@VinstanceInfo@@@@QBEIXZ 100332f0 f i bncs_instance_lookup.obj
 0002:00019330       ?count@?$QMap@VQString@@VparamInfo@@@@QBEIABVQString@@@Z 10033330 f i bncs_instance_lookup.obj
 0002:00019450       ?count@?$QMap@VQString@@VparamInfo@@@@QBEIXZ 10033450 f i bncs_instance_lookup.obj
 0002:00019490       ?data@?$QMapConstIterator@VQString@@VcomplexInstance@@@@QBEABVcomplexInstance@@XZ 10033490 f i bncs_instance_lookup.obj
 0002:000194d0       ?data@?$QMapConstIterator@VQString@@VcomplexParam@@@@QBEABVcomplexParam@@XZ 100334d0 f i bncs_instance_lookup.obj
 0002:00019510       ?data@?$QMapConstIterator@VQString@@VcomplexType@@@@QBEABVcomplexType@@XZ 10033510 f i bncs_instance_lookup.obj
 0002:00019550       ?data@?$QMapConstIterator@VQString@@VdeviceTypeInfo@@@@QBEABVdeviceTypeInfo@@XZ 10033550 f i bncs_instance_lookup.obj
 0002:00019590       ?data@?$QMapConstIterator@VQString@@VinstanceInfo@@@@QBEABVinstanceInfo@@XZ 10033590 f i bncs_instance_lookup.obj
 0002:000195d0       ?data@?$QMapConstIterator@VQString@@VparamInfo@@@@QBEABVparamInfo@@XZ 100335d0 f i bncs_instance_lookup.obj
 0002:00019610       ?data@?$QMapIterator@VQString@@V1@@@QAEAAVQString@@XZ 10033610 f i bncs_instance_lookup.obj
 0002:00019650       ?data@?$QMapIterator@VQString@@VcomplexInstance@@@@QAEAAVcomplexInstance@@XZ 10033650 f i bncs_instance_lookup.obj
 0002:00019690       ?data@?$QMapIterator@VQString@@VcomplexParam@@@@QAEAAVcomplexParam@@XZ 10033690 f i bncs_instance_lookup.obj
 0002:000196d0       ?data@?$QMapIterator@VQString@@VcomplexType@@@@QAEAAVcomplexType@@XZ 100336d0 f i bncs_instance_lookup.obj
 0002:00019710       ?data@?$QMapIterator@VQString@@VdeviceTypeInfo@@@@QAEAAVdeviceTypeInfo@@XZ 10033710 f i bncs_instance_lookup.obj
 0002:00019750       ?data@?$QMapIterator@VQString@@VinstanceInfo@@@@QAEAAVinstanceInfo@@XZ 10033750 f i bncs_instance_lookup.obj
 0002:00019790       ?data@?$QMapIterator@VQString@@VparamInfo@@@@QAEAAVparamInfo@@XZ 10033790 f i bncs_instance_lookup.obj
 0002:000197d0       ?deallocate@?$_Wrap_alloc@V?$allocator@D@std@@@std@@QAEXPADI@Z 100337d0 f i bncs_instance_lookup.obj
 0002:00019830       ?deallocate@?$allocator@D@std@@QAEXPADI@Z 10033830 f i bncs_instance_lookup.obj
 0002:00019890       ?deallocate@?$allocator@U_Container_proxy@std@@@std@@QAEXPAU_Container_proxy@2@I@Z 10033890 f i bncs_instance_lookup.obj
 0002:000198f0       ?dec@?$QMapIterator@VQString@@VcomplexInstance@@@@AAEHXZ 100338f0 f i bncs_instance_lookup.obj
 0002:000199e0       ?dec@?$QMapIterator@VQString@@VcomplexParam@@@@AAEHXZ 100339e0 f i bncs_instance_lookup.obj
 0002:00019ad0       ?dec@?$QMapIterator@VQString@@VcomplexType@@@@AAEHXZ 10033ad0 f i bncs_instance_lookup.obj
 0002:00019bc0       ?dec@?$QMapIterator@VQString@@VdeviceTypeInfo@@@@AAEHXZ 10033bc0 f i bncs_instance_lookup.obj
 0002:00019cb0       ?dec@?$QMapIterator@VQString@@VinstanceInfo@@@@AAEHXZ 10033cb0 f i bncs_instance_lookup.obj
 0002:00019da0       ?dec@?$QMapIterator@VQString@@VparamInfo@@@@AAEHXZ 10033da0 f i bncs_instance_lookup.obj
 0002:00019e90       ?default_error_condition@_System_error_category@std@@UBE?AVerror_condition@2@H@Z 10033e90 f i bncs_instance_lookup.obj
 0002:00019f40       ?default_error_condition@error_category@std@@UBE?AVerror_condition@2@H@Z 10033f40 f i bncs_instance_lookup.obj
 0002:00019fa0       ?derefAndDelete@?$QValueListPrivate@VcomplexInstance@@@@QAEXXZ 10033fa0 f i bncs_instance_lookup.obj
 0002:0001a070       ?derefAndDelete@?$QValueListPrivate@VcomplexParam@@@@QAEXXZ 10034070 f i bncs_instance_lookup.obj
 0002:0001a140       ?derefAndDelete@?$QValueListPrivate@VcomplexType@@@@QAEXXZ 10034140 f i bncs_instance_lookup.obj
 0002:0001a210       ?derefAndDelete@?$QValueListPrivate@VdeviceTypeInfo@@@@QAEXXZ 10034210 f i bncs_instance_lookup.obj
 0002:0001a2e0       ?derefAndDelete@?$QValueListPrivate@VinstanceInfo@@@@QAEXXZ 100342e0 f i bncs_instance_lookup.obj
 0002:0001a3b0       ?derefAndDelete@?$QValueListPrivate@VparamInfo@@@@QAEXXZ 100343b0 f i bncs_instance_lookup.obj
 0002:0001a480       ?detach@?$QMap@VQString@@VcomplexInstance@@@@IAEXXZ 10034480 f i bncs_instance_lookup.obj
 0002:0001a4e0       ?detach@?$QMap@VQString@@VcomplexParam@@@@IAEXXZ 100344e0 f i bncs_instance_lookup.obj
 0002:0001a540       ?detach@?$QMap@VQString@@VcomplexType@@@@IAEXXZ 10034540 f i bncs_instance_lookup.obj
 0002:0001a5a0       ?detach@?$QMap@VQString@@VdeviceTypeInfo@@@@IAEXXZ 100345a0 f i bncs_instance_lookup.obj
 0002:0001a600       ?detach@?$QMap@VQString@@VinstanceInfo@@@@IAEXXZ 10034600 f i bncs_instance_lookup.obj
 0002:0001a660       ?detach@?$QMap@VQString@@VparamInfo@@@@IAEXXZ 10034660 f i bncs_instance_lookup.obj
 0002:0001a6c0       ?detach@?$QValueList@VcomplexInstance@@@@IAEXXZ 100346c0 f i bncs_instance_lookup.obj
 0002:0001a720       ?detach@?$QValueList@VcomplexParam@@@@IAEXXZ 10034720 f i bncs_instance_lookup.obj
 0002:0001a780       ?detach@?$QValueList@VcomplexType@@@@IAEXXZ 10034780 f i bncs_instance_lookup.obj
 0002:0001a7e0       ?detach@?$QValueList@VdeviceTypeInfo@@@@IAEXXZ 100347e0 f i bncs_instance_lookup.obj
 0002:0001a840       ?detach@?$QValueList@VinstanceInfo@@@@IAEXXZ 10034840 f i bncs_instance_lookup.obj
 0002:0001a8a0       ?detach@?$QValueList@VparamInfo@@@@IAEXXZ 100348a0 f i bncs_instance_lookup.obj
 0002:0001a900       ?detachInternal@?$QMap@VQString@@VcomplexInstance@@@@AAEXXZ 10034900 f i bncs_instance_lookup.obj
 0002:0001aa10       ?detachInternal@?$QMap@VQString@@VcomplexParam@@@@AAEXXZ 10034a10 f i bncs_instance_lookup.obj
 0002:0001ab20       ?detachInternal@?$QMap@VQString@@VcomplexType@@@@AAEXXZ 10034b20 f i bncs_instance_lookup.obj
 0002:0001ac30       ?detachInternal@?$QMap@VQString@@VdeviceTypeInfo@@@@AAEXXZ 10034c30 f i bncs_instance_lookup.obj
 0002:0001ad40       ?detachInternal@?$QMap@VQString@@VinstanceInfo@@@@AAEXXZ 10034d40 f i bncs_instance_lookup.obj
 0002:0001ae50       ?detachInternal@?$QMap@VQString@@VparamInfo@@@@AAEXXZ 10034e50 f i bncs_instance_lookup.obj
 0002:0001af60       ?detachInternal@?$QValueList@VcomplexInstance@@@@AAEXXZ 10034f60 f i bncs_instance_lookup.obj
 0002:0001b070       ?detachInternal@?$QValueList@VcomplexParam@@@@AAEXXZ 10035070 f i bncs_instance_lookup.obj
 0002:0001b180       ?detachInternal@?$QValueList@VcomplexType@@@@AAEXXZ 10035180 f i bncs_instance_lookup.obj
 0002:0001b290       ?detachInternal@?$QValueList@VdeviceTypeInfo@@@@AAEXXZ 10035290 f i bncs_instance_lookup.obj
 0002:0001b3a0       ?detachInternal@?$QValueList@VinstanceInfo@@@@AAEXXZ 100353a0 f i bncs_instance_lookup.obj
 0002:0001b4b0       ?detachInternal@?$QValueList@VparamInfo@@@@AAEXXZ 100354b0 f i bncs_instance_lookup.obj
 0002:0001b5c0       ?empty@?$QMap@VQString@@VcomplexInstance@@@@QBE_NXZ 100355c0 f i bncs_instance_lookup.obj
 0002:0001b630       ?empty@?$QMap@VQString@@VcomplexParam@@@@QBE_NXZ 10035630 f i bncs_instance_lookup.obj
 0002:0001b6a0       ?empty@?$QMap@VQString@@VcomplexType@@@@QBE_NXZ 100356a0 f i bncs_instance_lookup.obj
 0002:0001b710       ?empty@?$QMap@VQString@@VdeviceTypeInfo@@@@QBE_NXZ 10035710 f i bncs_instance_lookup.obj
 0002:0001b780       ?empty@?$QMap@VQString@@VinstanceInfo@@@@QBE_NXZ 10035780 f i bncs_instance_lookup.obj
 0002:0001b7f0       ?empty@?$QMap@VQString@@VparamInfo@@@@QBE_NXZ 100357f0 f i bncs_instance_lookup.obj
 0002:0001b860       ?end@?$QMap@VQString@@VcomplexInstance@@@@QAE?AV?$QMapIterator@VQString@@VcomplexInstance@@@@XZ 10035860 f i bncs_instance_lookup.obj
 0002:0001b8d0       ?end@?$QMap@VQString@@VcomplexInstance@@@@QBE?AV?$QMapConstIterator@VQString@@VcomplexInstance@@@@XZ 100358d0 f i bncs_instance_lookup.obj
 0002:0001b930       ?end@?$QMap@VQString@@VcomplexParam@@@@QAE?AV?$QMapIterator@VQString@@VcomplexParam@@@@XZ 10035930 f i bncs_instance_lookup.obj
 0002:0001b9a0       ?end@?$QMap@VQString@@VcomplexParam@@@@QBE?AV?$QMapConstIterator@VQString@@VcomplexParam@@@@XZ 100359a0 f i bncs_instance_lookup.obj
 0002:0001ba00       ?end@?$QMap@VQString@@VcomplexType@@@@QAE?AV?$QMapIterator@VQString@@VcomplexType@@@@XZ 10035a00 f i bncs_instance_lookup.obj
 0002:0001ba70       ?end@?$QMap@VQString@@VcomplexType@@@@QBE?AV?$QMapConstIterator@VQString@@VcomplexType@@@@XZ 10035a70 f i bncs_instance_lookup.obj
 0002:0001bad0       ?end@?$QMap@VQString@@VdeviceTypeInfo@@@@QAE?AV?$QMapIterator@VQString@@VdeviceTypeInfo@@@@XZ 10035ad0 f i bncs_instance_lookup.obj
 0002:0001bb40       ?end@?$QMap@VQString@@VdeviceTypeInfo@@@@QBE?AV?$QMapConstIterator@VQString@@VdeviceTypeInfo@@@@XZ 10035b40 f i bncs_instance_lookup.obj
 0002:0001bba0       ?end@?$QMap@VQString@@VinstanceInfo@@@@QAE?AV?$QMapIterator@VQString@@VinstanceInfo@@@@XZ 10035ba0 f i bncs_instance_lookup.obj
 0002:0001bc10       ?end@?$QMap@VQString@@VinstanceInfo@@@@QBE?AV?$QMapConstIterator@VQString@@VinstanceInfo@@@@XZ 10035c10 f i bncs_instance_lookup.obj
 0002:0001bc70       ?end@?$QMap@VQString@@VparamInfo@@@@QAE?AV?$QMapIterator@VQString@@VparamInfo@@@@XZ 10035c70 f i bncs_instance_lookup.obj
 0002:0001bce0       ?end@?$QMap@VQString@@VparamInfo@@@@QBE?AV?$QMapConstIterator@VQString@@VparamInfo@@@@XZ 10035ce0 f i bncs_instance_lookup.obj
 0002:0001bd40       ?end@?$QMapPrivate@VQString@@VcomplexInstance@@@@QAE?AV?$QMapIterator@VQString@@VcomplexInstance@@@@XZ 10035d40 f i bncs_instance_lookup.obj
 0002:0001bda0       ?end@?$QMapPrivate@VQString@@VcomplexInstance@@@@QBE?AV?$QMapConstIterator@VQString@@VcomplexInstance@@@@XZ 10035da0 f i bncs_instance_lookup.obj
 0002:0001be00       ?end@?$QMapPrivate@VQString@@VcomplexParam@@@@QAE?AV?$QMapIterator@VQString@@VcomplexParam@@@@XZ 10035e00 f i bncs_instance_lookup.obj
 0002:0001be60       ?end@?$QMapPrivate@VQString@@VcomplexParam@@@@QBE?AV?$QMapConstIterator@VQString@@VcomplexParam@@@@XZ 10035e60 f i bncs_instance_lookup.obj
 0002:0001bec0       ?end@?$QMapPrivate@VQString@@VcomplexType@@@@QAE?AV?$QMapIterator@VQString@@VcomplexType@@@@XZ 10035ec0 f i bncs_instance_lookup.obj
 0002:0001bf20       ?end@?$QMapPrivate@VQString@@VcomplexType@@@@QBE?AV?$QMapConstIterator@VQString@@VcomplexType@@@@XZ 10035f20 f i bncs_instance_lookup.obj
 0002:0001bf80       ?end@?$QMapPrivate@VQString@@VdeviceTypeInfo@@@@QAE?AV?$QMapIterator@VQString@@VdeviceTypeInfo@@@@XZ 10035f80 f i bncs_instance_lookup.obj
 0002:0001bfe0       ?end@?$QMapPrivate@VQString@@VdeviceTypeInfo@@@@QBE?AV?$QMapConstIterator@VQString@@VdeviceTypeInfo@@@@XZ 10035fe0 f i bncs_instance_lookup.obj
 0002:0001c040       ?end@?$QMapPrivate@VQString@@VinstanceInfo@@@@QAE?AV?$QMapIterator@VQString@@VinstanceInfo@@@@XZ 10036040 f i bncs_instance_lookup.obj
 0002:0001c0a0       ?end@?$QMapPrivate@VQString@@VinstanceInfo@@@@QBE?AV?$QMapConstIterator@VQString@@VinstanceInfo@@@@XZ 100360a0 f i bncs_instance_lookup.obj
 0002:0001c100       ?end@?$QMapPrivate@VQString@@VparamInfo@@@@QAE?AV?$QMapIterator@VQString@@VparamInfo@@@@XZ 10036100 f i bncs_instance_lookup.obj
 0002:0001c160       ?end@?$QMapPrivate@VQString@@VparamInfo@@@@QBE?AV?$QMapConstIterator@VQString@@VparamInfo@@@@XZ 10036160 f i bncs_instance_lookup.obj
 0002:0001c1c0       ?end@?$QValueList@VcomplexInstance@@@@QAE?AV?$QValueListIterator@VcomplexInstance@@@@XZ 100361c0 f i bncs_instance_lookup.obj
 0002:0001c230       ?end@?$QValueList@VcomplexParam@@@@QAE?AV?$QValueListIterator@VcomplexParam@@@@XZ 10036230 f i bncs_instance_lookup.obj
 0002:0001c2a0       ?end@?$QValueList@VcomplexType@@@@QAE?AV?$QValueListIterator@VcomplexType@@@@XZ 100362a0 f i bncs_instance_lookup.obj
 0002:0001c310       ?end@?$QValueList@VdeviceTypeInfo@@@@QAE?AV?$QValueListIterator@VdeviceTypeInfo@@@@XZ 10036310 f i bncs_instance_lookup.obj
 0002:0001c380       ?end@?$QValueList@VinstanceInfo@@@@QAE?AV?$QValueListIterator@VinstanceInfo@@@@XZ 10036380 f i bncs_instance_lookup.obj
 0002:0001c3f0       ?end@?$QValueList@VparamInfo@@@@QAE?AV?$QValueListIterator@VparamInfo@@@@XZ 100363f0 f i bncs_instance_lookup.obj
 0002:0001c460       ?equivalent@error_category@std@@UBE_NABVerror_code@2@H@Z 10036460 f i bncs_instance_lookup.obj
 0002:0001c500       ?equivalent@error_category@std@@UBE_NHABVerror_condition@2@@Z 10036500 f i bncs_instance_lookup.obj
 0002:0001c580       ?erase@?$QMap@VQString@@VcomplexInstance@@@@QAEXABVQString@@@Z 10036580 f i bncs_instance_lookup.obj
 0002:0001c670       ?erase@?$QMap@VQString@@VcomplexInstance@@@@QAEXV?$QMapIterator@VQString@@VcomplexInstance@@@@@Z 10036670 f i bncs_instance_lookup.obj
 0002:0001c6e0       ?erase@?$QMap@VQString@@VcomplexParam@@@@QAEXABVQString@@@Z 100366e0 f i bncs_instance_lookup.obj
 0002:0001c7d0       ?erase@?$QMap@VQString@@VcomplexParam@@@@QAEXV?$QMapIterator@VQString@@VcomplexParam@@@@@Z 100367d0 f i bncs_instance_lookup.obj
 0002:0001c840       ?erase@?$QMap@VQString@@VcomplexType@@@@QAEXABVQString@@@Z 10036840 f i bncs_instance_lookup.obj
 0002:0001c930       ?erase@?$QMap@VQString@@VcomplexType@@@@QAEXV?$QMapIterator@VQString@@VcomplexType@@@@@Z 10036930 f i bncs_instance_lookup.obj
 0002:0001c9a0       ?erase@?$QMap@VQString@@VdeviceTypeInfo@@@@QAEXABVQString@@@Z 100369a0 f i bncs_instance_lookup.obj
 0002:0001ca90       ?erase@?$QMap@VQString@@VdeviceTypeInfo@@@@QAEXV?$QMapIterator@VQString@@VdeviceTypeInfo@@@@@Z 10036a90 f i bncs_instance_lookup.obj
 0002:0001cb00       ?erase@?$QMap@VQString@@VinstanceInfo@@@@QAEXABVQString@@@Z 10036b00 f i bncs_instance_lookup.obj
 0002:0001cbf0       ?erase@?$QMap@VQString@@VinstanceInfo@@@@QAEXV?$QMapIterator@VQString@@VinstanceInfo@@@@@Z 10036bf0 f i bncs_instance_lookup.obj
 0002:0001cc60       ?erase@?$QMap@VQString@@VparamInfo@@@@QAEXABVQString@@@Z 10036c60 f i bncs_instance_lookup.obj
 0002:0001cd50       ?erase@?$QMap@VQString@@VparamInfo@@@@QAEXV?$QMapIterator@VQString@@VparamInfo@@@@@Z 10036d50 f i bncs_instance_lookup.obj
 0002:0001cdc0       ?erase@?$basic_string@DU?$char_traits@D@std@@V?$allocator@D@2@@std@@QAEAAV12@I@Z 10036dc0 f i bncs_instance_lookup.obj
 0002:0001ce40       ?erase@?$basic_string@DU?$char_traits@D@std@@V?$allocator@D@2@@std@@QAEAAV12@II@Z 10036e40 f i bncs_instance_lookup.obj
 0002:0001cf20       ?find@?$QMap@VQString@@VcomplexInstance@@@@QAE?AV?$QMapIterator@VQString@@VcomplexInstance@@@@ABVQString@@@Z 10036f20 f i bncs_instance_lookup.obj
 0002:0001cfa0       ?find@?$QMap@VQString@@VcomplexInstance@@@@QBE?AV?$QMapConstIterator@VQString@@VcomplexInstance@@@@ABVQString@@@Z 10036fa0 f i bncs_instance_lookup.obj
 0002:0001d010       ?find@?$QMap@VQString@@VcomplexParam@@@@QAE?AV?$QMapIterator@VQString@@VcomplexParam@@@@ABVQString@@@Z 10037010 f i bncs_instance_lookup.obj
 0002:0001d090       ?find@?$QMap@VQString@@VcomplexParam@@@@QBE?AV?$QMapConstIterator@VQString@@VcomplexParam@@@@ABVQString@@@Z 10037090 f i bncs_instance_lookup.obj
 0002:0001d100       ?find@?$QMap@VQString@@VcomplexType@@@@QAE?AV?$QMapIterator@VQString@@VcomplexType@@@@ABVQString@@@Z 10037100 f i bncs_instance_lookup.obj
 0002:0001d180       ?find@?$QMap@VQString@@VcomplexType@@@@QBE?AV?$QMapConstIterator@VQString@@VcomplexType@@@@ABVQString@@@Z 10037180 f i bncs_instance_lookup.obj
 0002:0001d1f0       ?find@?$QMap@VQString@@VdeviceTypeInfo@@@@QAE?AV?$QMapIterator@VQString@@VdeviceTypeInfo@@@@ABVQString@@@Z 100371f0 f i bncs_instance_lookup.obj
 0002:0001d270       ?find@?$QMap@VQString@@VdeviceTypeInfo@@@@QBE?AV?$QMapConstIterator@VQString@@VdeviceTypeInfo@@@@ABVQString@@@Z 10037270 f i bncs_instance_lookup.obj
 0002:0001d2e0       ?find@?$QMap@VQString@@VinstanceInfo@@@@QAE?AV?$QMapIterator@VQString@@VinstanceInfo@@@@ABVQString@@@Z 100372e0 f i bncs_instance_lookup.obj
 0002:0001d360       ?find@?$QMap@VQString@@VinstanceInfo@@@@QBE?AV?$QMapConstIterator@VQString@@VinstanceInfo@@@@ABVQString@@@Z 10037360 f i bncs_instance_lookup.obj
 0002:0001d3d0       ?find@?$QMap@VQString@@VparamInfo@@@@QAE?AV?$QMapIterator@VQString@@VparamInfo@@@@ABVQString@@@Z 100373d0 f i bncs_instance_lookup.obj
 0002:0001d450       ?find@?$QMap@VQString@@VparamInfo@@@@QBE?AV?$QMapConstIterator@VQString@@VparamInfo@@@@ABVQString@@@Z 10037450 f i bncs_instance_lookup.obj
 0002:0001d4c0       ?find@?$QMapPrivate@VQString@@VcomplexInstance@@@@QBE?AV?$QMapConstIterator@VQString@@VcomplexInstance@@@@ABVQString@@@Z 100374c0 f i bncs_instance_lookup.obj
 0002:0001d5f0       ?find@?$QMapPrivate@VQString@@VcomplexParam@@@@QBE?AV?$QMapConstIterator@VQString@@VcomplexParam@@@@ABVQString@@@Z 100375f0 f i bncs_instance_lookup.obj
 0002:0001d720       ?find@?$QMapPrivate@VQString@@VcomplexType@@@@QBE?AV?$QMapConstIterator@VQString@@VcomplexType@@@@ABVQString@@@Z 10037720 f i bncs_instance_lookup.obj
 0002:0001d850       ?find@?$QMapPrivate@VQString@@VdeviceTypeInfo@@@@QBE?AV?$QMapConstIterator@VQString@@VdeviceTypeInfo@@@@ABVQString@@@Z 10037850 f i bncs_instance_lookup.obj
 0002:0001d980       ?find@?$QMapPrivate@VQString@@VinstanceInfo@@@@QBE?AV?$QMapConstIterator@VQString@@VinstanceInfo@@@@ABVQString@@@Z 10037980 f i bncs_instance_lookup.obj
 0002:0001dab0       ?find@?$QMapPrivate@VQString@@VparamInfo@@@@QBE?AV?$QMapConstIterator@VQString@@VparamInfo@@@@ABVQString@@@Z 10037ab0 f i bncs_instance_lookup.obj
 0002:0001dbe0       ?generic_category@std@@YAABVerror_category@1@XZ 10037be0 f i bncs_instance_lookup.obj
 0002:0001dc20       ?inc@?$QMapConstIterator@VQString@@VcomplexInstance@@@@AAEHXZ 10037c20 f i bncs_instance_lookup.obj
 0002:0001dce0       ?inc@?$QMapConstIterator@VQString@@VcomplexParam@@@@AAEHXZ 10037ce0 f i bncs_instance_lookup.obj
 0002:0001dda0       ?inc@?$QMapConstIterator@VQString@@VcomplexType@@@@AAEHXZ 10037da0 f i bncs_instance_lookup.obj
 0002:0001de60       ?inc@?$QMapConstIterator@VQString@@VdeviceTypeInfo@@@@AAEHXZ 10037e60 f i bncs_instance_lookup.obj
 0002:0001df20       ?inc@?$QMapConstIterator@VQString@@VinstanceInfo@@@@AAEHXZ 10037f20 f i bncs_instance_lookup.obj
 0002:0001dfe0       ?inc@?$QMapConstIterator@VQString@@VparamInfo@@@@AAEHXZ 10037fe0 f i bncs_instance_lookup.obj
 0002:0001e0a0       ?inc@?$QMapIterator@VQString@@VinstanceInfo@@@@AAEHXZ 100380a0 f i bncs_instance_lookup.obj
 0002:0001e160       ?insert@?$QMap@VQString@@VcomplexInstance@@@@QAE?AU?$QPair@V?$QMapIterator@VQString@@VcomplexInstance@@@@_N@@ABU?$QPair@$$CBVQString@@VcomplexInstance@@@@@Z 10038160 f i bncs_instance_lookup.obj
 0002:0001e280       ?insert@?$QMap@VQString@@VcomplexInstance@@@@QAE?AV?$QMapIterator@VQString@@VcomplexInstance@@@@ABVQString@@ABVcomplexInstance@@_N@Z 10038280 f i bncs_instance_lookup.obj
 0002:0001e370       ?insert@?$QMap@VQString@@VcomplexParam@@@@QAE?AU?$QPair@V?$QMapIterator@VQString@@VcomplexParam@@@@_N@@ABU?$QPair@$$CBVQString@@VcomplexParam@@@@@Z 10038370 f i bncs_instance_lookup.obj
 0002:0001e490       ?insert@?$QMap@VQString@@VcomplexParam@@@@QAE?AV?$QMapIterator@VQString@@VcomplexParam@@@@ABVQString@@ABVcomplexParam@@_N@Z 10038490 f i bncs_instance_lookup.obj
 0002:0001e580       ?insert@?$QMap@VQString@@VcomplexType@@@@QAE?AU?$QPair@V?$QMapIterator@VQString@@VcomplexType@@@@_N@@ABU?$QPair@$$CBVQString@@VcomplexType@@@@@Z 10038580 f i bncs_instance_lookup.obj
 0002:0001e6a0       ?insert@?$QMap@VQString@@VcomplexType@@@@QAE?AV?$QMapIterator@VQString@@VcomplexType@@@@ABVQString@@ABVcomplexType@@_N@Z 100386a0 f i bncs_instance_lookup.obj
 0002:0001e790       ?insert@?$QMap@VQString@@VdeviceTypeInfo@@@@QAE?AU?$QPair@V?$QMapIterator@VQString@@VdeviceTypeInfo@@@@_N@@ABU?$QPair@$$CBVQString@@VdeviceTypeInfo@@@@@Z 10038790 f i bncs_instance_lookup.obj
 0002:0001e8b0       ?insert@?$QMap@VQString@@VdeviceTypeInfo@@@@QAE?AV?$QMapIterator@VQString@@VdeviceTypeInfo@@@@ABVQString@@ABVdeviceTypeInfo@@_N@Z 100388b0 f i bncs_instance_lookup.obj
 0002:0001e9a0       ?insert@?$QMap@VQString@@VinstanceInfo@@@@QAE?AU?$QPair@V?$QMapIterator@VQString@@VinstanceInfo@@@@_N@@ABU?$QPair@$$CBVQString@@VinstanceInfo@@@@@Z 100389a0 f i bncs_instance_lookup.obj
 0002:0001eac0       ?insert@?$QMap@VQString@@VinstanceInfo@@@@QAE?AV?$QMapIterator@VQString@@VinstanceInfo@@@@ABVQString@@ABVinstanceInfo@@_N@Z 10038ac0 f i bncs_instance_lookup.obj
 0002:0001ebb0       ?insert@?$QMap@VQString@@VparamInfo@@@@QAE?AU?$QPair@V?$QMapIterator@VQString@@VparamInfo@@@@_N@@ABU?$QPair@$$CBVQString@@VparamInfo@@@@@Z 10038bb0 f i bncs_instance_lookup.obj
 0002:0001ecd0       ?insert@?$QMap@VQString@@VparamInfo@@@@QAE?AV?$QMapIterator@VQString@@VparamInfo@@@@ABVQString@@ABVparamInfo@@_N@Z 10038cd0 f i bncs_instance_lookup.obj
 0002:0001edc0       ?insert@?$QMapPrivate@VQString@@VcomplexInstance@@@@QAE?AV?$QMapIterator@VQString@@VcomplexInstance@@@@PAUQMapNodeBase@@0ABVQString@@@Z 10038dc0 f i bncs_instance_lookup.obj
 0002:0001eff0       ?insert@?$QMapPrivate@VQString@@VcomplexParam@@@@QAE?AV?$QMapIterator@VQString@@VcomplexParam@@@@PAUQMapNodeBase@@0ABVQString@@@Z 10038ff0 f i bncs_instance_lookup.obj
 0002:0001f220       ?insert@?$QMapPrivate@VQString@@VcomplexType@@@@QAE?AV?$QMapIterator@VQString@@VcomplexType@@@@PAUQMapNodeBase@@0ABVQString@@@Z 10039220 f i bncs_instance_lookup.obj
 0002:0001f450       ?insert@?$QMapPrivate@VQString@@VdeviceTypeInfo@@@@QAE?AV?$QMapIterator@VQString@@VdeviceTypeInfo@@@@PAUQMapNodeBase@@0ABVQString@@@Z 10039450 f i bncs_instance_lookup.obj
 0002:0001f680       ?insert@?$QMapPrivate@VQString@@VinstanceInfo@@@@QAE?AV?$QMapIterator@VQString@@VinstanceInfo@@@@PAUQMapNodeBase@@0ABVQString@@@Z 10039680 f i bncs_instance_lookup.obj
 0002:0001f8b0       ?insert@?$QMapPrivate@VQString@@VparamInfo@@@@QAE?AV?$QMapIterator@VQString@@VparamInfo@@@@PAUQMapNodeBase@@0ABVQString@@@Z 100398b0 f i bncs_instance_lookup.obj
 0002:0001fae0       ?insert@?$QValueListPrivate@VcomplexInstance@@@@QAE?AV?$QValueListIterator@VcomplexInstance@@@@V2@ABVcomplexInstance@@@Z 10039ae0 f i bncs_instance_lookup.obj
 0002:0001fc30       ?insert@?$QValueListPrivate@VcomplexParam@@@@QAE?AV?$QValueListIterator@VcomplexParam@@@@V2@ABVcomplexParam@@@Z 10039c30 f i bncs_instance_lookup.obj
 0002:0001fd80       ?insert@?$QValueListPrivate@VcomplexType@@@@QAE?AV?$QValueListIterator@VcomplexType@@@@V2@ABVcomplexType@@@Z 10039d80 f i bncs_instance_lookup.obj
 0002:0001fed0       ?insert@?$QValueListPrivate@VdeviceTypeInfo@@@@QAE?AV?$QValueListIterator@VdeviceTypeInfo@@@@V2@ABVdeviceTypeInfo@@@Z 10039ed0 f i bncs_instance_lookup.obj
 0002:00020020       ?insert@?$QValueListPrivate@VinstanceInfo@@@@QAE?AV?$QValueListIterator@VinstanceInfo@@@@V2@ABVinstanceInfo@@@Z 1003a020 f i bncs_instance_lookup.obj
 0002:00020170       ?insert@?$QValueListPrivate@VparamInfo@@@@QAE?AV?$QValueListIterator@VparamInfo@@@@V2@ABVparamInfo@@@Z 1003a170 f i bncs_instance_lookup.obj
 0002:000202c0       ?insertSingle@?$QMapPrivate@VQString@@VcomplexInstance@@@@QAE?AV?$QMapIterator@VQString@@VcomplexInstance@@@@ABVQString@@@Z 1003a2c0 f i bncs_instance_lookup.obj
 0002:000204b0       ?insertSingle@?$QMapPrivate@VQString@@VcomplexParam@@@@QAE?AV?$QMapIterator@VQString@@VcomplexParam@@@@ABVQString@@@Z 1003a4b0 f i bncs_instance_lookup.obj
 0002:000206a0       ?insertSingle@?$QMapPrivate@VQString@@VcomplexType@@@@QAE?AV?$QMapIterator@VQString@@VcomplexType@@@@ABVQString@@@Z 1003a6a0 f i bncs_instance_lookup.obj
 0002:00020890       ?insertSingle@?$QMapPrivate@VQString@@VdeviceTypeInfo@@@@QAE?AV?$QMapIterator@VQString@@VdeviceTypeInfo@@@@ABVQString@@@Z 1003a890 f i bncs_instance_lookup.obj
 0002:00020a80       ?insertSingle@?$QMapPrivate@VQString@@VinstanceInfo@@@@QAE?AV?$QMapIterator@VQString@@VinstanceInfo@@@@ABVQString@@@Z 1003aa80 f i bncs_instance_lookup.obj
 0002:00020c70       ?insertSingle@?$QMapPrivate@VQString@@VparamInfo@@@@QAE?AV?$QMapIterator@VQString@@VparamInfo@@@@ABVQString@@@Z 1003ac70 f i bncs_instance_lookup.obj
 0002:00020e60       ?isEmpty@?$QMap@VQString@@VcomplexInstance@@@@QBE_NXZ 1003ae60 f i bncs_instance_lookup.obj
 0002:00020ed0       ?isEmpty@?$QMap@VQString@@VcomplexParam@@@@QBE_NXZ 1003aed0 f i bncs_instance_lookup.obj
 0002:00020f40       ?isEmpty@?$QMap@VQString@@VcomplexType@@@@QBE_NXZ 1003af40 f i bncs_instance_lookup.obj
 0002:00020fb0       ?isEmpty@?$QMap@VQString@@VdeviceTypeInfo@@@@QBE_NXZ 1003afb0 f i bncs_instance_lookup.obj
 0002:00021020       ?isEmpty@?$QMap@VQString@@VinstanceInfo@@@@QBE_NXZ 1003b020 f i bncs_instance_lookup.obj
 0002:00021090       ?isEmpty@?$QMap@VQString@@VparamInfo@@@@QBE_NXZ 1003b090 f i bncs_instance_lookup.obj
 0002:00021100       ?key@?$QMapConstIterator@VQString@@VcomplexInstance@@@@QBEABVQString@@XZ 1003b100 f i bncs_instance_lookup.obj
 0002:00021140       ?key@?$QMapConstIterator@VQString@@VcomplexParam@@@@QBEABVQString@@XZ 1003b140 f i bncs_instance_lookup.obj
 0002:00021180       ?key@?$QMapConstIterator@VQString@@VcomplexType@@@@QBEABVQString@@XZ 1003b180 f i bncs_instance_lookup.obj
 0002:000211c0       ?key@?$QMapConstIterator@VQString@@VdeviceTypeInfo@@@@QBEABVQString@@XZ 1003b1c0 f i bncs_instance_lookup.obj
 0002:00021200       ?key@?$QMapConstIterator@VQString@@VinstanceInfo@@@@QBEABVQString@@XZ 1003b200 f i bncs_instance_lookup.obj
 0002:00021240       ?key@?$QMapConstIterator@VQString@@VparamInfo@@@@QBEABVQString@@XZ 1003b240 f i bncs_instance_lookup.obj
 0002:00021280       ?key@?$QMapIterator@VQString@@VinstanceInfo@@@@QBEABVQString@@XZ 1003b280 f i bncs_instance_lookup.obj
 0002:000212c0       ?key@?$QMapPrivate@VQString@@VcomplexInstance@@@@IBEABVQString@@PAUQMapNodeBase@@@Z 1003b2c0 f i bncs_instance_lookup.obj
 0002:00021300       ?key@?$QMapPrivate@VQString@@VcomplexParam@@@@IBEABVQString@@PAUQMapNodeBase@@@Z 1003b300 f i bncs_instance_lookup.obj
 0002:00021340       ?key@?$QMapPrivate@VQString@@VcomplexType@@@@IBEABVQString@@PAUQMapNodeBase@@@Z 1003b340 f i bncs_instance_lookup.obj
 0002:00021380       ?key@?$QMapPrivate@VQString@@VdeviceTypeInfo@@@@IBEABVQString@@PAUQMapNodeBase@@@Z 1003b380 f i bncs_instance_lookup.obj
 0002:000213c0       ?key@?$QMapPrivate@VQString@@VinstanceInfo@@@@IBEABVQString@@PAUQMapNodeBase@@@Z 1003b3c0 f i bncs_instance_lookup.obj
 0002:00021400       ?key@?$QMapPrivate@VQString@@VparamInfo@@@@IBEABVQString@@PAUQMapNodeBase@@@Z 1003b400 f i bncs_instance_lookup.obj
 0002:00021440       ?keys@?$QMap@VQString@@VcomplexInstance@@@@QBE?AV?$QValueList@VQString@@@@XZ 1003b440 f i bncs_instance_lookup.obj
 0002:000215f0       ?keys@?$QMap@VQString@@VcomplexParam@@@@QBE?AV?$QValueList@VQString@@@@XZ 1003b5f0 f i bncs_instance_lookup.obj
 0002:000217a0       ?keys@?$QMap@VQString@@VcomplexType@@@@QBE?AV?$QValueList@VQString@@@@XZ 1003b7a0 f i bncs_instance_lookup.obj
 0002:00021950       ?keys@?$QMap@VQString@@VdeviceTypeInfo@@@@QBE?AV?$QValueList@VQString@@@@XZ 1003b950 f i bncs_instance_lookup.obj
 0002:00021b00       ?keys@?$QMap@VQString@@VinstanceInfo@@@@QBE?AV?$QValueList@VQString@@@@XZ 1003bb00 f i bncs_instance_lookup.obj
 0002:00021cb0       ?keys@?$QMap@VQString@@VparamInfo@@@@QBE?AV?$QValueList@VQString@@@@XZ 1003bcb0 f i bncs_instance_lookup.obj
 0002:00021e60       ?length@?$char_traits@D@std@@SAIPBD@Z 1003be60 f i bncs_instance_lookup.obj
 0002:00021ee0       ?max_size@?$_Wrap_alloc@V?$allocator@D@std@@@std@@QBEIXZ 1003bee0 f i bncs_instance_lookup.obj
 0002:00021f40       ?max_size@?$allocator@D@std@@QBEIXZ 1003bf40 f i bncs_instance_lookup.obj
 0002:00021f80       ?max_size@?$allocator_traits@V?$allocator@D@std@@@std@@SAIABV?$allocator@D@2@@Z 1003bf80 f i bncs_instance_lookup.obj
 0002:00021fd0       ?max_size@?$basic_string@DU?$char_traits@D@std@@V?$allocator@D@2@@std@@QBEIXZ 1003bfd0 f i bncs_instance_lookup.obj
 0002:00022070       ?message@_Generic_error_category@std@@UBE?AV?$basic_string@DU?$char_traits@D@std@@V?$allocator@D@2@@2@H@Z 1003c070 f i bncs_instance_lookup.obj
 0002:00022130       ?message@_Iostream_error_category@std@@UBE?AV?$basic_string@DU?$char_traits@D@std@@V?$allocator@D@2@@2@H@Z 1003c130 f i bncs_instance_lookup.obj
 0002:000221f0       ?message@_System_error_category@std@@UBE?AV?$basic_string@DU?$char_traits@D@std@@V?$allocator@D@2@@2@H@Z 1003c1f0 f i bncs_instance_lookup.obj
 0002:000222b0       ?move@?$char_traits@D@std@@SAPADPADPBDI@Z 1003c2b0 f i bncs_instance_lookup.obj
 0002:00022340       ?name@_Generic_error_category@std@@UBEPBDXZ 1003c340 f i bncs_instance_lookup.obj
 0002:00022380       ?name@_Iostream_error_category@std@@UBEPBDXZ 1003c380 f i bncs_instance_lookup.obj
 0002:000223c0       ?name@_System_error_category@std@@UBEPBDXZ 1003c3c0 f i bncs_instance_lookup.obj
 0002:00022400       ?path@global@@SA?AVQString@@XZ 1003c400 f i bncs_instance_lookup.obj
 0002:000225c0       ?remove@?$QMap@VQString@@VcomplexInstance@@@@QAEXABVQString@@@Z 1003c5c0 f i bncs_instance_lookup.obj
 0002:000226b0       ?remove@?$QMap@VQString@@VcomplexInstance@@@@QAEXV?$QMapIterator@VQString@@VcomplexInstance@@@@@Z 1003c6b0 f i bncs_instance_lookup.obj
 0002:00022720       ?remove@?$QMap@VQString@@VcomplexParam@@@@QAEXABVQString@@@Z 1003c720 f i bncs_instance_lookup.obj
 0002:00022810       ?remove@?$QMap@VQString@@VcomplexParam@@@@QAEXV?$QMapIterator@VQString@@VcomplexParam@@@@@Z 1003c810 f i bncs_instance_lookup.obj
 0002:00022880       ?remove@?$QMap@VQString@@VcomplexType@@@@QAEXABVQString@@@Z 1003c880 f i bncs_instance_lookup.obj
 0002:00022970       ?remove@?$QMap@VQString@@VcomplexType@@@@QAEXV?$QMapIterator@VQString@@VcomplexType@@@@@Z 1003c970 f i bncs_instance_lookup.obj
 0002:000229e0       ?remove@?$QMap@VQString@@VdeviceTypeInfo@@@@QAEXABVQString@@@Z 1003c9e0 f i bncs_instance_lookup.obj
 0002:00022ad0       ?remove@?$QMap@VQString@@VdeviceTypeInfo@@@@QAEXV?$QMapIterator@VQString@@VdeviceTypeInfo@@@@@Z 1003cad0 f i bncs_instance_lookup.obj
 0002:00022b40       ?remove@?$QMap@VQString@@VinstanceInfo@@@@QAEXABVQString@@@Z 1003cb40 f i bncs_instance_lookup.obj
 0002:00022c30       ?remove@?$QMap@VQString@@VinstanceInfo@@@@QAEXV?$QMapIterator@VQString@@VinstanceInfo@@@@@Z 1003cc30 f i bncs_instance_lookup.obj
 0002:00022ca0       ?remove@?$QMap@VQString@@VparamInfo@@@@QAEXABVQString@@@Z 1003cca0 f i bncs_instance_lookup.obj
 0002:00022d90       ?remove@?$QMap@VQString@@VparamInfo@@@@QAEXV?$QMapIterator@VQString@@VparamInfo@@@@@Z 1003cd90 f i bncs_instance_lookup.obj
 0002:00022e00       ?remove@?$QMapPrivate@VQString@@VcomplexInstance@@@@QAEXV?$QMapIterator@VQString@@VcomplexInstance@@@@@Z 1003ce00 f i bncs_instance_lookup.obj
 0002:00022ef0       ?remove@?$QMapPrivate@VQString@@VcomplexParam@@@@QAEXV?$QMapIterator@VQString@@VcomplexParam@@@@@Z 1003cef0 f i bncs_instance_lookup.obj
 0002:00022fe0       ?remove@?$QMapPrivate@VQString@@VcomplexType@@@@QAEXV?$QMapIterator@VQString@@VcomplexType@@@@@Z 1003cfe0 f i bncs_instance_lookup.obj
 0002:000230d0       ?remove@?$QMapPrivate@VQString@@VdeviceTypeInfo@@@@QAEXV?$QMapIterator@VQString@@VdeviceTypeInfo@@@@@Z 1003d0d0 f i bncs_instance_lookup.obj
 0002:000231c0       ?remove@?$QMapPrivate@VQString@@VinstanceInfo@@@@QAEXV?$QMapIterator@VQString@@VinstanceInfo@@@@@Z 1003d1c0 f i bncs_instance_lookup.obj
 0002:000232b0       ?remove@?$QMapPrivate@VQString@@VparamInfo@@@@QAEXV?$QMapIterator@VQString@@VparamInfo@@@@@Z 1003d2b0 f i bncs_instance_lookup.obj
 0002:000233a0       ?replace@?$QMap@VQString@@VcomplexInstance@@@@QAE?AV?$QMapIterator@VQString@@VcomplexInstance@@@@ABVQString@@ABVcomplexInstance@@@Z 1003d3a0 f i bncs_instance_lookup.obj
 0002:00023420       ?replace@?$QMap@VQString@@VcomplexParam@@@@QAE?AV?$QMapIterator@VQString@@VcomplexParam@@@@ABVQString@@ABVcomplexParam@@@Z 1003d420 f i bncs_instance_lookup.obj
 0002:000234a0       ?replace@?$QMap@VQString@@VcomplexType@@@@QAE?AV?$QMapIterator@VQString@@VcomplexType@@@@ABVQString@@ABVcomplexType@@@Z 1003d4a0 f i bncs_instance_lookup.obj
 0002:00023520       ?replace@?$QMap@VQString@@VdeviceTypeInfo@@@@QAE?AV?$QMapIterator@VQString@@VdeviceTypeInfo@@@@ABVQString@@ABVdeviceTypeInfo@@@Z 1003d520 f i bncs_instance_lookup.obj
 0002:000235a0       ?replace@?$QMap@VQString@@VinstanceInfo@@@@QAE?AV?$QMapIterator@VQString@@VinstanceInfo@@@@ABVQString@@ABVinstanceInfo@@@Z 1003d5a0 f i bncs_instance_lookup.obj
 0002:00023620       ?replace@?$QMap@VQString@@VparamInfo@@@@QAE?AV?$QMapIterator@VQString@@VparamInfo@@@@ABVQString@@ABVparamInfo@@@Z 1003d620 f i bncs_instance_lookup.obj
 0002:000236a0       ?size@?$QMap@VQString@@VcomplexInstance@@@@QBEIXZ 1003d6a0 f i bncs_instance_lookup.obj
 0002:000236e0       ?size@?$QMap@VQString@@VcomplexParam@@@@QBEIXZ 1003d6e0 f i bncs_instance_lookup.obj
 0002:00023720       ?size@?$QMap@VQString@@VcomplexType@@@@QBEIXZ 1003d720 f i bncs_instance_lookup.obj
 0002:00023760       ?size@?$QMap@VQString@@VdeviceTypeInfo@@@@QBEIXZ 1003d760 f i bncs_instance_lookup.obj
 0002:000237a0       ?size@?$QMap@VQString@@VinstanceInfo@@@@QBEIXZ 1003d7a0 f i bncs_instance_lookup.obj
 0002:000237e0       ?size@?$QMap@VQString@@VparamInfo@@@@QBEIXZ 1003d7e0 f i bncs_instance_lookup.obj
 0002:00023820       ?size@?$basic_string@DU?$char_traits@D@std@@V?$allocator@D@2@@std@@QBEIXZ 1003d820 f i bncs_instance_lookup.obj
 0002:00023860       ?system_category@std@@YAABVerror_category@1@XZ 1003d860 f i bncs_instance_lookup.obj
 0002:000238a0       ?value@error_code@std@@QBEHXZ 1003d8a0 f i bncs_instance_lookup.obj
 0002:000238e0       ?value@error_condition@std@@QBEHXZ 1003d8e0 f i bncs_instance_lookup.obj
 0002:00023920       ?values@?$QMap@VQString@@VcomplexInstance@@@@QBE?AV?$QValueList@VcomplexInstance@@@@XZ 1003d920 f i bncs_instance_lookup.obj
 0002:00023aa0       ?values@?$QMap@VQString@@VcomplexParam@@@@QBE?AV?$QValueList@VcomplexParam@@@@XZ 1003daa0 f i bncs_instance_lookup.obj
 0002:00023c20       ?values@?$QMap@VQString@@VcomplexType@@@@QBE?AV?$QValueList@VcomplexType@@@@XZ 1003dc20 f i bncs_instance_lookup.obj
 0002:00023da0       ?values@?$QMap@VQString@@VdeviceTypeInfo@@@@QBE?AV?$QValueList@VdeviceTypeInfo@@@@XZ 1003dda0 f i bncs_instance_lookup.obj
 0002:00023f20       ?values@?$QMap@VQString@@VinstanceInfo@@@@QBE?AV?$QValueList@VinstanceInfo@@@@XZ 1003df20 f i bncs_instance_lookup.obj
 0002:000240a0       ?values@?$QMap@VQString@@VparamInfo@@@@QBE?AV?$QValueList@VparamInfo@@@@XZ 1003e0a0 f i bncs_instance_lookup.obj
 0002:00024220       _hypot                     1003e220 f i bncs_instance_lookup.obj
 0002:000242a0       ??0bncs_stylesheet@@QAE@XZ 1003e2a0 f   bncs_stylesheet.obj
 0002:000242d0       ??1bncs_stylesheet@@QAE@XZ 1003e2d0 f   bncs_stylesheet.obj
 0002:00024300       ?get@bncs_stylesheet@@QAEXAAVQString@@PAVQWidget@@@Z 1003e300 f   bncs_stylesheet.obj
 0002:00024350       ?getStyle@bncs_stylesheet@@SAXAAVQString@@PAVQWidget@@@Z 1003e350 f   bncs_stylesheet.obj
 0002:00024490       ?stylelist@bncs_stylesheet@@QAE?BV?$QMap@VQString@@Vstyleentry@@@@XZ 1003e490 f   bncs_stylesheet.obj
 0002:00024500       ?settingslist@bncs_stylesheet@@QAE?BVQStringList@@AAVQString@@@Z 1003e500 f   bncs_stylesheet.obj
 0002:00024680       ?load@bncs_stylesheet@@SA_NXZ 1003e680 f   bncs_stylesheet.obj
 0002:00024920       ?doLoad@bncs_stylesheet@@SA_NXZ 1003e920 f   bncs_stylesheet.obj
 0002:00025ce0       ?count@bncs_stylesheet@@SAHXZ 1003fce0 f   bncs_stylesheet.obj
 0002:00025d20       ?reLoad@bncs_stylesheet@@SA_NXZ 1003fd20 f   bncs_stylesheet.obj
 0002:00025d70       ?set@bncs_stylesheet@@QAEXAAVQString@@AAVstyleentry@@@Z 1003fd70 f   bncs_stylesheet.obj
 0002:00025dd0       ?deleteStyle@bncs_stylesheet@@QAEXVQString@@@Z 1003fdd0 f   bncs_stylesheet.obj
 0002:00025fe0       ?getStyleEntry@bncs_stylesheet@@QAEPAVstyleentry@@VQString@@@Z 1003ffe0 f   bncs_stylesheet.obj
 0002:000260e0       ?save@bncs_stylesheet@@QAE_NXZ 100400e0 f   bncs_stylesheet.obj
 0002:000270e0       ?styleExist@bncs_stylesheet@@QAE_NVQString@@@Z 100410e0 f   bncs_stylesheet.obj
 0002:00027d40       ??0?$QMap@VQString@@Vstyleentry@@@@QAE@ABV0@@Z 10041d40 f i bncs_stylesheet.obj
 0002:00027db0       ??0?$QMap@VQString@@Vstyleentry@@@@QAE@XZ 10041db0 f i bncs_stylesheet.obj
 0002:00027ea0       ??0?$QMapConstIterator@VQString@@Vstyleentry@@@@QAE@PAU?$QMapNode@VQString@@Vstyleentry@@@@@Z 10041ea0 f i bncs_stylesheet.obj
 0002:00027ef0       ??0?$QMapIterator@VQString@@Vstyleentry@@@@QAE@ABV0@@Z 10041ef0 f i bncs_stylesheet.obj
 0002:00027f40       ??0?$QMapIterator@VQString@@Vstyleentry@@@@QAE@PAU?$QMapNode@VQString@@Vstyleentry@@@@@Z 10041f40 f i bncs_stylesheet.obj
 0002:00027f90       ??0?$QMapNode@VQString@@Vstyleentry@@@@QAE@ABU0@@Z 10041f90 f i bncs_stylesheet.obj
 0002:00028090       ??0?$QMapNode@VQString@@Vstyleentry@@@@QAE@ABVQString@@@Z 10042090 f i bncs_stylesheet.obj
 0002:00028170       ??0?$QMapNode@VQString@@Vstyleentry@@@@QAE@XZ 10042170 f i bncs_stylesheet.obj
 0002:00028230       ??0?$QMapPrivate@VQString@@Vstyleentry@@@@QAE@PBV0@@Z 10042230 f i bncs_stylesheet.obj
 0002:00028430       ??0?$QMapPrivate@VQString@@Vstyleentry@@@@QAE@XZ 10042430 f i bncs_stylesheet.obj
 0002:00028580       ??0?$QPair@V?$QMapIterator@VQString@@Vstyleentry@@@@_N@@QAE@ABV?$QMapIterator@VQString@@Vstyleentry@@@@AB_N@Z 10042580 f i bncs_stylesheet.obj
 0002:000285f0       ??0?$QValueList@Vstyleentry@@@@QAE@ABV0@@Z 100425f0 f i bncs_stylesheet.obj
 0002:00028670       ??0?$QValueList@Vstyleentry@@@@QAE@XZ 10042670 f i bncs_stylesheet.obj
 0002:00028760       ??0?$QValueListIterator@Vstyleentry@@@@QAE@ABV0@@Z 10042760 f i bncs_stylesheet.obj
 0002:000287b0       ??0?$QValueListIterator@Vstyleentry@@@@QAE@PAV?$QValueListNode@Vstyleentry@@@@@Z 100427b0 f i bncs_stylesheet.obj
 0002:00028800       ??0?$QValueListNode@Vstyleentry@@@@QAE@ABVstyleentry@@@Z 10042800 f i bncs_stylesheet.obj
 0002:00028870       ??0?$QValueListNode@Vstyleentry@@@@QAE@XZ 10042870 f i bncs_stylesheet.obj
 0002:000288e0       ??0?$QValueListPrivate@Vstyleentry@@@@QAE@ABV0@@Z 100428e0 f i bncs_stylesheet.obj
 0002:00028b30       ??0?$QValueListPrivate@Vstyleentry@@@@QAE@XZ 10042b30 f i bncs_stylesheet.obj
 0002:00028c80       ??0styleentry@@QAE@ABV0@@Z 10042c80 f i bncs_stylesheet.obj
 0002:00028d90       ??0styleentry@@QAE@XZ      10042d90 f i bncs_stylesheet.obj
 0002:00028e70       ??1?$QMap@VQString@@Vstyleentry@@@@QAE@XZ 10042e70 f i bncs_stylesheet.obj
 0002:00028f30       ??1?$QMapNode@VQString@@Vstyleentry@@@@QAE@XZ 10042f30 f i bncs_stylesheet.obj
 0002:00028ff0       ??1?$QMapPrivate@VQString@@Vstyleentry@@@@QAE@XZ 10042ff0 f i bncs_stylesheet.obj
 0002:00029090       ??1?$QValueList@Vstyleentry@@@@QAE@XZ 10043090 f i bncs_stylesheet.obj
 0002:000290f0       ??1?$QValueListNode@Vstyleentry@@@@UAE@XZ 100430f0 f i bncs_stylesheet.obj
 0002:00029150       ??1?$QValueListPrivate@Vstyleentry@@@@UAE@XZ 10043150 f i bncs_stylesheet.obj
 0002:000292a0       ??1styleentry@@QAE@XZ      100432a0 f i bncs_stylesheet.obj
 0002:00029380       ??4?$QMap@VQString@@Vstyleentry@@@@QAEAAV0@ABV0@@Z 10043380 f i bncs_stylesheet.obj
 0002:00029470       ??4bncs_stylesheet@@QAEAAV0@ABV0@@Z 10043470 f i bncs_stylesheet.obj
 0002:000294b0       ??4styleentry@@QAEAAV0@ABV0@@Z 100434b0 f i bncs_stylesheet.obj
 0002:00029570       ??8?$QMapIterator@VQString@@Vstyleentry@@@@QBE_NABV0@@Z 10043570 f i bncs_stylesheet.obj
 0002:000295e0       ??9?$QMapConstIterator@VQString@@Vstyleentry@@@@QBE_NABV0@@Z 100435e0 f i bncs_stylesheet.obj
 0002:00029650       ??9?$QMapIterator@VQString@@Vstyleentry@@@@QBE_NABV0@@Z 10043650 f i bncs_stylesheet.obj
 0002:000296c0       ??9?$QValueListIterator@Vstyleentry@@@@QBE_NABV0@@Z 100436c0 f i bncs_stylesheet.obj
 0002:00029730       ??A?$QMap@VQString@@Vstyleentry@@@@QAEAAVstyleentry@@ABVQString@@@Z 10043730 f i bncs_stylesheet.obj
 0002:00029880       ??A?$QMap@VQString@@Vstyleentry@@@@QBEABVstyleentry@@ABVQString@@@Z 10043880 f i bncs_stylesheet.obj
 0002:000298f0       ??D?$QMapConstIterator@VQString@@Vstyleentry@@@@QBEABVstyleentry@@XZ 100438f0 f i bncs_stylesheet.obj
 0002:00029930       ??D?$QValueListIterator@Vstyleentry@@@@QAEAAVstyleentry@@XZ 10043930 f i bncs_stylesheet.obj
 0002:00029970       ??E?$QMapConstIterator@VQString@@Vstyleentry@@@@QAEAAV0@XZ 10043970 f i bncs_stylesheet.obj
 0002:000299d0       ??E?$QMapIterator@VQString@@Vstyleentry@@@@QAE?AV0@H@Z 100439d0 f i bncs_stylesheet.obj
 0002:00029a80       ??E?$QValueListIterator@Vstyleentry@@@@QAE?AV0@H@Z 10043a80 f i bncs_stylesheet.obj
 0002:00029b30       ??F?$QMapIterator@VQString@@Vstyleentry@@@@QAEAAV0@XZ 10043b30 f i bncs_stylesheet.obj
 0002:00029b90       ??_G?$QMapNode@VQString@@Vstyleentry@@@@QAEPAXI@Z 10043b90 f i bncs_stylesheet.obj
 0002:00029c00       ??_G?$QMapPrivate@VQString@@Vstyleentry@@@@QAEPAXI@Z 10043c00 f i bncs_stylesheet.obj
 0002:00029c70       ??_E?$QValueListNode@Vstyleentry@@@@UAEPAXI@Z 10043c70 f i bncs_stylesheet.obj
 0002:00029c70       ??_G?$QValueListNode@Vstyleentry@@@@UAEPAXI@Z 10043c70 f i bncs_stylesheet.obj
 0002:00029ce0       ??_E?$QValueListPrivate@Vstyleentry@@@@UAEPAXI@Z 10043ce0 f i bncs_stylesheet.obj
 0002:00029ce0       ??_G?$QValueListPrivate@Vstyleentry@@@@UAEPAXI@Z 10043ce0 f i bncs_stylesheet.obj
 0002:00029d50       ?append@?$QValueList@Vstyleentry@@@@QAE?AV?$QValueListIterator@Vstyleentry@@@@ABVstyleentry@@@Z 10043d50 f i bncs_stylesheet.obj
 0002:00029dd0       ?begin@?$QMap@VQString@@Vstyleentry@@@@QAE?AV?$QMapIterator@VQString@@Vstyleentry@@@@XZ 10043dd0 f i bncs_stylesheet.obj
 0002:00029e40       ?begin@?$QMap@VQString@@Vstyleentry@@@@QBE?AV?$QMapConstIterator@VQString@@Vstyleentry@@@@XZ 10043e40 f i bncs_stylesheet.obj
 0002:00029ea0       ?begin@?$QMapPrivate@VQString@@Vstyleentry@@@@QAE?AV?$QMapIterator@VQString@@Vstyleentry@@@@XZ 10043ea0 f i bncs_stylesheet.obj
 0002:00029f00       ?begin@?$QMapPrivate@VQString@@Vstyleentry@@@@QBE?AV?$QMapConstIterator@VQString@@Vstyleentry@@@@XZ 10043f00 f i bncs_stylesheet.obj
 0002:00029f60       ?clear@?$QMap@VQString@@Vstyleentry@@@@QAEXXZ 10043f60 f i bncs_stylesheet.obj
 0002:0002a080       ?clear@?$QMapPrivate@VQString@@Vstyleentry@@@@QAEXPAU?$QMapNode@VQString@@Vstyleentry@@@@@Z 10044080 f i bncs_stylesheet.obj
 0002:0002a150       ?clear@?$QMapPrivate@VQString@@Vstyleentry@@@@QAEXXZ 10044150 f i bncs_stylesheet.obj
 0002:0002a200       ?constBegin@?$QMap@VQString@@Vstyleentry@@@@QBE?AV?$QMapConstIterator@VQString@@Vstyleentry@@@@XZ 10044200 f i bncs_stylesheet.obj
 0002:0002a260       ?constEnd@?$QMap@VQString@@Vstyleentry@@@@QBE?AV?$QMapConstIterator@VQString@@Vstyleentry@@@@XZ 10044260 f i bncs_stylesheet.obj
 0002:0002a2c0       ?contains@?$QMap@VQString@@Vstyleentry@@@@QBE_NABVQString@@@Z 100442c0 f i bncs_stylesheet.obj
 0002:0002a340       ?copy@?$QMapPrivate@VQString@@Vstyleentry@@@@QAEPAU?$QMapNode@VQString@@Vstyleentry@@@@PAU2@@Z 10044340 f i bncs_stylesheet.obj
 0002:0002a4e0       ?count@?$QMap@VQString@@Vstyleentry@@@@QBEIABVQString@@@Z 100444e0 f i bncs_stylesheet.obj
 0002:0002a600       ?count@?$QMap@VQString@@Vstyleentry@@@@QBEIXZ 10044600 f i bncs_stylesheet.obj
 0002:0002a640       ?data@?$QMapConstIterator@VQString@@Vstyleentry@@@@QBEABVstyleentry@@XZ 10044640 f i bncs_stylesheet.obj
 0002:0002a680       ?data@?$QMapIterator@VQString@@Vstyleentry@@@@QAEAAVstyleentry@@XZ 10044680 f i bncs_stylesheet.obj
 0002:0002a6c0       ?dec@?$QMapIterator@VQString@@Vstyleentry@@@@AAEHXZ 100446c0 f i bncs_stylesheet.obj
 0002:0002a7b0       ?derefAndDelete@?$QValueListPrivate@Vstyleentry@@@@QAEXXZ 100447b0 f i bncs_stylesheet.obj
 0002:0002a880       ?detach@?$QMap@VQString@@Vstyleentry@@@@IAEXXZ 10044880 f i bncs_stylesheet.obj
 0002:0002a8e0       ?detach@?$QValueList@Vstyleentry@@@@IAEXXZ 100448e0 f i bncs_stylesheet.obj
 0002:0002a940       ?detachInternal@?$QMap@VQString@@Vstyleentry@@@@AAEXXZ 10044940 f i bncs_stylesheet.obj
 0002:0002aa50       ?detachInternal@?$QValueList@Vstyleentry@@@@AAEXXZ 10044a50 f i bncs_stylesheet.obj
 0002:0002ab60       ?empty@?$QMap@VQString@@Vstyleentry@@@@QBE_NXZ 10044b60 f i bncs_stylesheet.obj
 0002:0002abd0       ?end@?$QMap@VQString@@Vstyleentry@@@@QAE?AV?$QMapIterator@VQString@@Vstyleentry@@@@XZ 10044bd0 f i bncs_stylesheet.obj
 0002:0002ac40       ?end@?$QMap@VQString@@Vstyleentry@@@@QBE?AV?$QMapConstIterator@VQString@@Vstyleentry@@@@XZ 10044c40 f i bncs_stylesheet.obj
 0002:0002aca0       ?end@?$QMapPrivate@VQString@@Vstyleentry@@@@QAE?AV?$QMapIterator@VQString@@Vstyleentry@@@@XZ 10044ca0 f i bncs_stylesheet.obj
 0002:0002ad00       ?end@?$QMapPrivate@VQString@@Vstyleentry@@@@QBE?AV?$QMapConstIterator@VQString@@Vstyleentry@@@@XZ 10044d00 f i bncs_stylesheet.obj
 0002:0002ad60       ?end@?$QValueList@Vstyleentry@@@@QAE?AV?$QValueListIterator@Vstyleentry@@@@XZ 10044d60 f i bncs_stylesheet.obj
 0002:0002add0       ?erase@?$QMap@VQString@@Vstyleentry@@@@QAEXABVQString@@@Z 10044dd0 f i bncs_stylesheet.obj
 0002:0002aec0       ?erase@?$QMap@VQString@@Vstyleentry@@@@QAEXV?$QMapIterator@VQString@@Vstyleentry@@@@@Z 10044ec0 f i bncs_stylesheet.obj
 0002:0002af30       ?find@?$QMap@VQString@@Vstyleentry@@@@QAE?AV?$QMapIterator@VQString@@Vstyleentry@@@@ABVQString@@@Z 10044f30 f i bncs_stylesheet.obj
 0002:0002afb0       ?find@?$QMap@VQString@@Vstyleentry@@@@QBE?AV?$QMapConstIterator@VQString@@Vstyleentry@@@@ABVQString@@@Z 10044fb0 f i bncs_stylesheet.obj
 0002:0002b020       ?find@?$QMapPrivate@VQString@@Vstyleentry@@@@QBE?AV?$QMapConstIterator@VQString@@Vstyleentry@@@@ABVQString@@@Z 10045020 f i bncs_stylesheet.obj
 0002:0002b150       ?inc@?$QMapConstIterator@VQString@@Vstyleentry@@@@AAEHXZ 10045150 f i bncs_stylesheet.obj
 0002:0002b210       ?inc@?$QMapIterator@VQString@@Vstyleentry@@@@AAEHXZ 10045210 f i bncs_stylesheet.obj
 0002:0002b2d0       ?insert@?$QMap@VQString@@Vstyleentry@@@@QAE?AU?$QPair@V?$QMapIterator@VQString@@Vstyleentry@@@@_N@@ABU?$QPair@$$CBVQString@@Vstyleentry@@@@@Z 100452d0 f i bncs_stylesheet.obj
 0002:0002b3f0       ?insert@?$QMap@VQString@@Vstyleentry@@@@QAE?AV?$QMapIterator@VQString@@Vstyleentry@@@@ABVQString@@ABVstyleentry@@_N@Z 100453f0 f i bncs_stylesheet.obj
 0002:0002b4e0       ?insert@?$QMapPrivate@VQString@@Vstyleentry@@@@QAE?AV?$QMapIterator@VQString@@Vstyleentry@@@@PAUQMapNodeBase@@0ABVQString@@@Z 100454e0 f i bncs_stylesheet.obj
 0002:0002b710       ?insert@?$QValueListPrivate@Vstyleentry@@@@QAE?AV?$QValueListIterator@Vstyleentry@@@@V2@ABVstyleentry@@@Z 10045710 f i bncs_stylesheet.obj
 0002:0002b860       ?insertSingle@?$QMapPrivate@VQString@@Vstyleentry@@@@QAE?AV?$QMapIterator@VQString@@Vstyleentry@@@@ABVQString@@@Z 10045860 f i bncs_stylesheet.obj
 0002:0002ba50       ?isEmpty@?$QMap@VQString@@Vstyleentry@@@@QBE_NXZ 10045a50 f i bncs_stylesheet.obj
 0002:0002bac0       ?key@?$QMapConstIterator@VQString@@Vstyleentry@@@@QBEABVQString@@XZ 10045ac0 f i bncs_stylesheet.obj
 0002:0002bb00       ?key@?$QMapIterator@VQString@@Vstyleentry@@@@QBEABVQString@@XZ 10045b00 f i bncs_stylesheet.obj
 0002:0002bb40       ?key@?$QMapPrivate@VQString@@Vstyleentry@@@@IBEABVQString@@PAUQMapNodeBase@@@Z 10045b40 f i bncs_stylesheet.obj
 0002:0002bb80       ?keys@?$QMap@VQString@@Vstyleentry@@@@QBE?AV?$QValueList@VQString@@@@XZ 10045b80 f i bncs_stylesheet.obj
 0002:0002bd30       ?remove@?$QMap@VQString@@Vstyleentry@@@@QAEXABVQString@@@Z 10045d30 f i bncs_stylesheet.obj
 0002:0002be20       ?remove@?$QMap@VQString@@Vstyleentry@@@@QAEXV?$QMapIterator@VQString@@Vstyleentry@@@@@Z 10045e20 f i bncs_stylesheet.obj
 0002:0002be90       ?remove@?$QMapPrivate@VQString@@Vstyleentry@@@@QAEXV?$QMapIterator@VQString@@Vstyleentry@@@@@Z 10045e90 f i bncs_stylesheet.obj
 0002:0002bf80       ?replace@?$QMap@VQString@@Vstyleentry@@@@QAE?AV?$QMapIterator@VQString@@Vstyleentry@@@@ABVQString@@ABVstyleentry@@@Z 10045f80 f i bncs_stylesheet.obj
 0002:0002c000       ?size@?$QMap@VQString@@Vstyleentry@@@@QBEIXZ 10046000 f i bncs_stylesheet.obj
 0002:0002c040       ?values@?$QMap@VQString@@Vstyleentry@@@@QBE?AV?$QValueList@Vstyleentry@@@@XZ 10046040 f i bncs_stylesheet.obj
 0002:0002c1c0       ??0complexInstance@@QAE@XZ 100461c0 f   complexInstance.obj
 0002:0002c210       ??1complexInstance@@UAE@XZ 10046210 f   complexInstance.obj
 0002:0002c290       ??0complexParam@@QAE@XZ    10046290 f   complexParamInfo.obj
 0002:0002c340       ??1complexParam@@UAE@XZ    10046340 f   complexParamInfo.obj
 0002:0002c440       ??0complexType@@QAE@XZ     10046440 f   complexType.obj
 0002:0002c490       ??1complexType@@UAE@XZ     10046490 f   complexType.obj
 0002:0002c510       ??0deviceTypeInfo@@QAE@XZ  10046510 f   deviceTypeInfo.obj
 0002:0002c580       ??1deviceTypeInfo@@UAE@XZ  10046580 f   deviceTypeInfo.obj
 0002:0002c600       ?developerMode@@YA_NXZ     10046600 f   env.obj
 0002:0002c6c0       ??0instanceInfo@@QAE@XZ    100466c0 f   instanceInfo.obj
 0002:0002c7d0       ??1instanceInfo@@UAE@XZ    100467d0 f   instanceInfo.obj
 0002:0002c940       _DllMain@12                10046940 f   main.obj
 0002:0002ca50       ??0paramInfo@@QAE@XZ       10046a50 f   paramInfo.obj
 0002:0002ca90       ??1paramInfo@@UAE@XZ       10046a90 f   paramInfo.obj
 0002:0002cae0       ?qDebug@@YAXPBDZZ          10046ae0 f   qt-mt323:qt-mt323.dll
 0002:0002cae6       ??0QShared@@QAE@XZ         10046ae6 f   qt-mt323:qt-mt323.dll
 0002:0002caec       ?ref@QShared@@QAEXXZ       10046aec f   qt-mt323:qt-mt323.dll
 0002:0002caf2       ?deref@QShared@@QAE_NXZ    10046af2 f   qt-mt323:qt-mt323.dll
 0002:0002caf8       ??0QString@@QAE@XZ         10046af8 f   qt-mt323:qt-mt323.dll
 0002:0002cafe       ??0QString@@QAE@ABV0@@Z    10046afe f   qt-mt323:qt-mt323.dll
 0002:0002cb04       ??0QString@@QAE@PBD@Z      10046b04 f   qt-mt323:qt-mt323.dll
 0002:0002cb0a       ??1QString@@QAE@XZ         10046b0a f   qt-mt323:qt-mt323.dll
 0002:0002cb10       ??4QString@@QAEAAV0@ABV0@@Z 10046b10 f   qt-mt323:qt-mt323.dll
 0002:0002cb16       ??4QString@@QAEAAV0@PBD@Z  10046b16 f   qt-mt323:qt-mt323.dll
 0002:0002cb1c       ?length@QString@@QBEIXZ    10046b1c f   qt-mt323:qt-mt323.dll
 0002:0002cb22       ?arg@QString@@QBE?AV1@HHH@Z 10046b22 f   qt-mt323:qt-mt323.dll
 0002:0002cb28       ?arg@QString@@QBE?AV1@ABV1@H@Z 10046b28 f   qt-mt323:qt-mt323.dll
 0002:0002cb2e       ?left@QString@@QBE?AV1@I@Z 10046b2e f   qt-mt323:qt-mt323.dll
 0002:0002cb34       ?lower@QString@@QBE?AV1@XZ 10046b34 f   qt-mt323:qt-mt323.dll
 0002:0002cb3a       ?toInt@QString@@QBEHPA_NH@Z 10046b3a f   qt-mt323:qt-mt323.dll
 0002:0002cb40       ??YQString@@QAEAAV0@ABV0@@Z 10046b40 f   qt-mt323:qt-mt323.dll
 0002:0002cb46       ??AQString@@QAE?AVQCharRef@@H@Z 10046b46 f   qt-mt323:qt-mt323.dll
 0002:0002cb4c       ??BQString@@QBEPBDXZ       10046b4c f   qt-mt323:qt-mt323.dll
 0002:0002cb52       ?latin1@QCharRef@@QBEDXZ   10046b52 f   qt-mt323:qt-mt323.dll
 0002:0002cb58       ??9@YA_NABVQString@@0@Z    10046b58 f   qt-mt323:qt-mt323.dll
 0002:0002cb5e       ??M@YA_NABVQString@@0@Z    10046b5e f   qt-mt323:qt-mt323.dll
 0002:0002cb64       ??8@YA_NABVQString@@0@Z    10046b64 f   qt-mt323:qt-mt323.dll
 0002:0002cb6a       ??9@YA_NABVQString@@PBD@Z  10046b6a f   qt-mt323:qt-mt323.dll
 0002:0002cb70       ??8@YA_NABVQString@@PBD@Z  10046b70 f   qt-mt323:qt-mt323.dll
 0002:0002cb76       ??H@YA?BVQString@@ABV0@PBD@Z 10046b76 f   qt-mt323:qt-mt323.dll
 0002:0002cb7c       ??H@YA?BVQString@@PBDABV0@@Z 10046b7c f   qt-mt323:qt-mt323.dll
 0002:0002cb82       ??9?$QValueListIterator@VQString@@@@QBE_NABV0@@Z 10046b82 f   qt-mt323:qt-mt323.dll
 0002:0002cb88       ??D?$QValueListIterator@VQString@@@@QAEAAVQString@@XZ 10046b88 f   qt-mt323:qt-mt323.dll
 0002:0002cb8e       ??E?$QValueListIterator@VQString@@@@QAEAAV0@XZ 10046b8e f   qt-mt323:qt-mt323.dll
 0002:0002cb94       ??0?$QValueList@VQString@@@@QAE@XZ 10046b94 f   qt-mt323:qt-mt323.dll
 0002:0002cb9a       ??0?$QValueList@VQString@@@@QAE@ABV0@@Z 10046b9a f   qt-mt323:qt-mt323.dll
 0002:0002cba0       ??1?$QValueList@VQString@@@@QAE@XZ 10046ba0 f   qt-mt323:qt-mt323.dll
 0002:0002cba6       ?begin@?$QValueList@VQString@@@@QAE?AV?$QValueListIterator@VQString@@@@XZ 10046ba6 f   qt-mt323:qt-mt323.dll
 0002:0002cbac       ?end@?$QValueList@VQString@@@@QAE?AV?$QValueListIterator@VQString@@@@XZ 10046bac f   qt-mt323:qt-mt323.dll
 0002:0002cbb2       ??6?$QValueList@VQString@@@@QAEAAV0@ABVQString@@@Z 10046bb2 f   qt-mt323:qt-mt323.dll
 0002:0002cbb8       ?size@?$QValueList@VQString@@@@QBEIXZ 10046bb8 f   qt-mt323:qt-mt323.dll
 0002:0002cbbe       ?append@?$QValueList@VQString@@@@QAE?AV?$QValueListIterator@VQString@@@@ABVQString@@@Z 10046bbe f   qt-mt323:qt-mt323.dll
 0002:0002cbc4       ??A?$QValueList@VQString@@@@QAEAAVQString@@I@Z 10046bc4 f   qt-mt323:qt-mt323.dll
 0002:0002cbca       ?count@?$QValueList@VQString@@@@QBEIXZ 10046bca f   qt-mt323:qt-mt323.dll
 0002:0002cbd0       ?minimum@QMapNodeBase@@QAEPAU1@XZ 10046bd0 f   qt-mt323:qt-mt323.dll
 0002:0002cbd6       ?maximum@QMapNodeBase@@QAEPAU1@XZ 10046bd6 f   qt-mt323:qt-mt323.dll
 0002:0002cbdc       ??0QMapPrivateBase@@QAE@XZ 10046bdc f   qt-mt323:qt-mt323.dll
 0002:0002cbe2       ??0QMapPrivateBase@@QAE@PBV0@@Z 10046be2 f   qt-mt323:qt-mt323.dll
 0002:0002cbe8       ?rebalance@QMapPrivateBase@@QAEXPAUQMapNodeBase@@AAPAU2@@Z 10046be8 f   qt-mt323:qt-mt323.dll
 0002:0002cbee       ?removeAndRebalance@QMapPrivateBase@@QAEPAUQMapNodeBase@@PAU2@AAPAU2@11@Z 10046bee f   qt-mt323:qt-mt323.dll
 0002:0002cbf4       ??0?$QMap@VQString@@V1@@@QAE@ABV0@@Z 10046bf4 f   qt-mt323:qt-mt323.dll
 0002:0002cbfa       ??4?$QMap@VQString@@V1@@@QAEAAV0@ABV0@@Z 10046bfa f   qt-mt323:qt-mt323.dll
 0002:0002cc00       ?end@?$QMap@VQString@@V1@@@QAE?AV?$QMapIterator@VQString@@V1@@@XZ 10046c00 f   qt-mt323:qt-mt323.dll
 0002:0002cc06       ?find@?$QMap@VQString@@V1@@@QAE?AV?$QMapIterator@VQString@@V1@@@ABVQString@@@Z 10046c06 f   qt-mt323:qt-mt323.dll
 0002:0002cc0c       ?insert@?$QMap@VQString@@V1@@@QAE?AV?$QMapIterator@VQString@@V1@@@ABVQString@@0_N@Z 10046c0c f   qt-mt323:qt-mt323.dll
 0002:0002cc12       ?split@QStringList@@SA?AV1@ABVQString@@0_N@Z 10046c12 f   qt-mt323:qt-mt323.dll
 0002:0002cc18       ??1QStringList@@QAE@XZ     10046c18 f   qt-mt323:qt-mt323.dll
 0002:0002cc1e       ??4QDomNode@@QAEAAV0@ABV0@@Z 10046c1e f   qt-mt323:qt-mt323.dll
 0002:0002cc24       ??1QDomNode@@UAE@XZ        10046c24 f   qt-mt323:qt-mt323.dll
 0002:0002cc2a       ?firstChild@QDomNode@@UBE?AV1@XZ 10046c2a f   qt-mt323:qt-mt323.dll
 0002:0002cc30       ?nextSibling@QDomNode@@UBE?AV1@XZ 10046c30 f   qt-mt323:qt-mt323.dll
 0002:0002cc36       ?isNull@QDomNode@@QBE_NXZ  10046c36 f   qt-mt323:qt-mt323.dll
 0002:0002cc3c       ?toElement@QDomNode@@QAE?AVQDomElement@@XZ 10046c3c f   qt-mt323:qt-mt323.dll
 0002:0002cc42       ??0QDomDocument@@QAE@ABVQString@@@Z 10046c42 f   qt-mt323:qt-mt323.dll
 0002:0002cc48       ??1QDomDocument@@UAE@XZ    10046c48 f   qt-mt323:qt-mt323.dll
 0002:0002cc4e       ?documentElement@QDomDocument@@QBE?AVQDomElement@@XZ 10046c4e f   qt-mt323:qt-mt323.dll
 0002:0002cc54       ?setContent@QDomDocument@@QAE_NPAVQIODevice@@_NPAVQString@@PAH3@Z 10046c54 f   qt-mt323:qt-mt323.dll
 0002:0002cc5a       ??1QDomElement@@UAE@XZ     10046c5a f   qt-mt323:qt-mt323.dll
 0002:0002cc60       ?attribute@QDomElement@@QBE?AVQString@@ABV2@0@Z 10046c60 f   qt-mt323:qt-mt323.dll
 0002:0002cc66       ?tagName@QDomElement@@QBE?AVQString@@XZ 10046c66 f   qt-mt323:qt-mt323.dll
 0002:0002cc6c       ??0QFile@@QAE@ABVQString@@@Z 10046c6c f   qt-mt323:qt-mt323.dll
 0002:0002cc72       ??1QFile@@UAE@XZ           10046c72 f   qt-mt323:qt-mt323.dll
 0002:0002cc78       ?open@QFile@@UAE_NH@Z      10046c78 f   qt-mt323:qt-mt323.dll
 0002:0002cc7e       ??0QDir@@QAE@ABVQString@@0HH@Z 10046c7e f   qt-mt323:qt-mt323.dll
 0002:0002cc84       ??1QDir@@UAE@XZ            10046c84 f   qt-mt323:qt-mt323.dll
 0002:0002cc8a       ?entryList@QDir@@UBE?AVQStringList@@ABVQString@@HH@Z 10046c8a f   qt-mt323:qt-mt323.dll
 0002:0002cc90       ?exists@QDir@@UBE_NXZ      10046c90 f   qt-mt323:qt-mt323.dll
 0002:0002cc96       ??H@YA?BVQString@@ABV0@0@Z 10046c96 f   qt-mt323:qt-mt323.dll
 0002:0002cc9c       ?appendChild@QDomNode@@UAE?AV1@ABV1@@Z 10046c9c f   qt-mt323:qt-mt323.dll
 0002:0002cca2       ?save@QDomNode@@QBEXAAVQTextStream@@H@Z 10046ca2 f   qt-mt323:qt-mt323.dll
 0002:0002cca8       ?createElement@QDomDocument@@QAE?AVQDomElement@@ABVQString@@@Z 10046ca8 f   qt-mt323:qt-mt323.dll
 0002:0002ccae       ?isDocument@QDomDocument@@UBE_NXZ 10046cae f   qt-mt323:qt-mt323.dll
 0002:0002ccb4       ??0QDomElement@@QAE@XZ     10046cb4 f   qt-mt323:qt-mt323.dll
 0002:0002ccba       ??4QDomElement@@QAEAAV0@ABV0@@Z 10046cba f   qt-mt323:qt-mt323.dll
 0002:0002ccc0       ?setAttribute@QDomElement@@QAEXABVQString@@0@Z 10046cc0 f   qt-mt323:qt-mt323.dll
 0002:0002ccc6       ??0QDomText@@QAE@XZ        10046cc6 f   qt-mt323:qt-mt323.dll
 0002:0002cccc       ??1QDomText@@UAE@XZ        10046ccc f   qt-mt323:qt-mt323.dll
 0002:0002ccd2       ?exists@QFile@@QBE_NXZ     10046cd2 f   qt-mt323:qt-mt323.dll
 0002:0002ccd8       ?close@QFile@@UAEXXZ       10046cd8 f   qt-mt323:qt-mt323.dll
 0002:0002ccde       ??0QTextStream@@QAE@PAVQIODevice@@@Z 10046cde f   qt-mt323:qt-mt323.dll
 0002:0002cce4       ??1QTextStream@@UAE@XZ     10046ce4 f   qt-mt323:qt-mt323.dll
 0002:0002ccea       ??0?$QValueListIterator@VQString@@@@QAE@XZ 10046cea f   qt-mt323:qt-mt323.dll
 0002:0002ccf0       ??Y?$QValueList@VQString@@@@QAEAAV0@ABVQString@@@Z 10046cf0 f   qt-mt323:qt-mt323.dll
 0002:0002ccf6       ??0QStringList@@QAE@XZ     10046cf6 f   qt-mt323:qt-mt323.dll
 0002:0002ccfc       ??0QStringList@@QAE@ABV0@@Z 10046cfc f   qt-mt323:qt-mt323.dll
 0002:0002cd02       ??4QStringList@@QAEAAV0@ABV0@@Z 10046d02 f   qt-mt323:qt-mt323.dll
 0002:0002cd08       ?question@QMessageBox@@SAHPAVQWidget@@ABVQString@@1HHH@Z 10046d08 f   qt-mt323:qt-mt323.dll
 0002:0002cd0e       ?warning@QMessageBox@@SAHPAVQWidget@@ABVQString@@1111HH@Z 10046d0e f   qt-mt323:qt-mt323.dll
 0002:0002cd14       ??0QDateTime@@QAE@XZ       10046d14 f   qt-mt323:qt-mt323.dll
 0002:0002cd1a       ??9QDateTime@@QBE_NABV0@@Z 10046d1a f   qt-mt323:qt-mt323.dll
 0002:0002cd20       ??0QFileInfo@@QAE@ABVQString@@@Z 10046d20 f   qt-mt323:qt-mt323.dll
 0002:0002cd26       ??1QFileInfo@@QAE@XZ       10046d26 f   qt-mt323:qt-mt323.dll
 0002:0002cd2c       ?lastModified@QFileInfo@@QBE?AVQDateTime@@XZ 10046d2c f   qt-mt323:qt-mt323.dll
 0002:0002cd32       ??0?$QMap@VQString@@V1@@@QAE@XZ 10046d32 f   qt-mt323:qt-mt323.dll
 0002:0002cd38       ??1?$QMap@VQString@@V1@@@QAE@XZ 10046d38 f   qt-mt323:qt-mt323.dll
 0002:0002cd3e       _OutputDebugStringA@4      10046d3e f   kernel32:KERNEL32.dll
 0002:0002cd44       _MessageBoxA@16            10046d44 f   user32:USER32.dll
 0002:0002cd4a       ?_Debug_message@std@@YAXPB_W0I@Z 10046d4a f   msvcprtd:MSVCP120D.dll
 0002:0002cd50       ??0_Container_base12@std@@QAE@XZ 10046d50 f   msvcprtd:MSVCP120D.dll
 0002:0002cd56       ??1_Container_base12@std@@QAE@XZ 10046d56 f   msvcprtd:MSVCP120D.dll
 0002:0002cd5c       ?_Orphan_all@_Container_base12@std@@QAEXXZ 10046d5c f   msvcprtd:MSVCP120D.dll
 0002:0002cd62       ?_Xbad_alloc@std@@YAXXZ    10046d62 f   msvcprtd:MSVCP120D.dll
 0002:0002cd68       ?_Xlength_error@std@@YAXPBD@Z 10046d68 f   msvcprtd:MSVCP120D.dll
 0002:0002cd6e       ?_Xout_of_range@std@@YAXPBD@Z 10046d6e f   msvcprtd:MSVCP120D.dll
 0002:0002cd74       ??0id@locale@std@@QAE@I@Z  10046d74 f   msvcprtd:MSVCP120D.dll
 0002:0002cd7a       ?_Syserror_map@std@@YAPBDH@Z 10046d7a f   msvcprtd:MSVCP120D.dll
 0002:0002cd80       ?_Winerror_map@std@@YAPBDH@Z 10046d80 f   msvcprtd:MSVCP120D.dll
 0002:0002cd90       ??_M@YGXPAXIHP6EX0@Z@Z     10046d90 f   MSVCRTD:ehvecdtr.obj
 0002:0002ceb0       ?__ArrayUnwind@@YGXPAXIHP6EX0@Z@Z 10046eb0 f   MSVCRTD:ehvecdtr.obj
 0002:0002cf5c       __purecall                 10046f5c f   MSVCRTD:MSVCR120D.dll
 0002:0002cf62       ??2@YAPAXI@Z               10046f62 f   MSVCRTD:MSVCR120D.dll
 0002:0002cf68       ??3@YAXPAX@Z               10046f68 f   MSVCRTD:MSVCR120D.dll
 0002:0002cf70       ___atonexitinit            10046f70 f   MSVCRTD:atonexit.obj
 0002:0002d050       __onexit                   10047050 f   MSVCRTD:atonexit.obj
 0002:0002d190       _atexit                    10047190 f   MSVCRTD:atonexit.obj
 0002:0002d1c6       _memcpy                    100471c6 f   MSVCRTD:MSVCR120D.dll
 0002:0002d1cc       _strlen                    100471cc f   MSVCRTD:MSVCR120D.dll
 0002:0002d1d2       _memmove                   100471d2 f   MSVCRTD:MSVCR120D.dll
 0002:0002d1d8       __hypot                    100471d8 f   MSVCRTD:MSVCR120D.dll
 0002:0002d1de       _getenv                    100471de f   MSVCRTD:MSVCR120D.dll
 0002:0002d1f0       @_RTC_AllocaHelper@12      100471f0 f   MSVCRTD:stack.obj
 0002:0002d230       @_RTC_CheckStackVars2@12   10047230 f   MSVCRTD:stack.obj
 0002:0002d340       @_RTC_CheckStackVars@8     10047340 f   MSVCRTD:stack.obj
 0002:0002d3b0       __RTC_CheckEsp             100473b0 f   MSVCRTD:stack.obj
 0002:0002d3e0       @__security_check_cookie@4 100473e0 f   MSVCRTD:secchk.obj
 0002:0002d3f2       __CxxThrowException@8      100473f2 f   MSVCRTD:MSVCR120D.dll
 0002:0002d400       __RTC_InitBase             10047400 f   MSVCRTD:init.obj
 0002:0002d440       __RTC_Shutdown             10047440 f   MSVCRTD:init.obj
 0002:0002d458       ___CxxFrameHandler3        10047458 f   MSVCRTD:MSVCR120D.dll
 0002:0002d460       ??0type_info@@AAE@ABV0@@Z  10047460 f   MSVCRTD:ti_inst.obj
 0002:0002d480       ??4type_info@@AAEAAV0@ABV0@@Z 10047480 f   MSVCRTD:ti_inst.obj
 0002:0002d4a0       ??_Etype_info@@UAEPAXI@Z   100474a0 f i MSVCRTD:ti_inst.obj
 0002:0002d5d0       _NtCurrentTeb              100475d0 f i MSVCRTD:crtdll.obj
 0002:0002d5e0       __CRT_INIT@12              100475e0 f   MSVCRTD:crtdll.obj
 0002:0002d970       __DllMainCRTStartup@12     10047970 f   MSVCRTD:crtdll.obj
 0002:0002dbd0       ?terminate@@YAXXZ          10047bd0 f   MSVCRTD:MSVCR120D.dll
 0002:0002dbe0       __except_handler4          10047be0 f   MSVCRTD:chandler4gs.obj
 0002:0002dc10       __lock                     10047c10 f   MSVCRTD:MSVCR120D.dll
 0002:0002dc16       __unlock                   10047c16 f   MSVCRTD:MSVCR120D.dll
 0002:0002dc1c       __CrtDbgReportW            10047c1c f   MSVCRTD:MSVCR120D.dll
 0002:0002dc22       __calloc_dbg               10047c22 f   MSVCRTD:MSVCR120D.dll
 0002:0002dc28       ___dllonexit               10047c28 f   MSVCRTD:MSVCR120D.dll
 0002:0002ddd0       ?_RTC_AllocaFailure@@YAXPAXPAU_RTC_ALLOCA_NODE@@H@Z 10047dd0 f   MSVCRTD:error.obj
 0002:0002dfb0       ?_RTC_Failure@@YAXPAXH@Z   10047fb0 f   MSVCRTD:error.obj
 0002:0002e020       ?_RTC_StackFailure@@YAXPAXPBD@Z 10048020 f   MSVCRTD:error.obj
 0002:0002e480       __RTC_UninitUse            10048480 f   MSVCRTD:error.obj
 0002:0002e5b0       ___raise_securityfailure   100485b0 f   MSVCRTD:gs_report.obj
 0002:0002e610       ___report_gsfailure        10048610 f   MSVCRTD:gs_report.obj
 0002:0002e760       ___report_rangecheckfailure 10048760 f   MSVCRTD:gs_report.obj
 0002:0002e770       ___report_securityfailure  10048770 f   MSVCRTD:gs_report.obj
 0002:0002e880       ___report_securityfailureEx 10048880 f   MSVCRTD:gs_report.obj
 0002:0002e9f0       ?_RTC_GetErrorFunc@@YAP6AHHPBDH00ZZPBX@Z 100489f0 f   MSVCRTD:userapi.obj
 0002:0002ea00       ?_RTC_GetErrorFuncW@@YAP6AHHPB_WH00ZZPBX@Z 10048a00 f   MSVCRTD:userapi.obj
 0002:0002ea10       __RTC_GetErrDesc           10048a10 f   MSVCRTD:userapi.obj
 0002:0002ea30       __RTC_NumErrors            10048a30 f   MSVCRTD:userapi.obj
 0002:0002ea40       __RTC_SetErrorFunc         10048a40 f   MSVCRTD:userapi.obj
 0002:0002ea70       __RTC_SetErrorFuncW        10048a70 f   MSVCRTD:userapi.obj
 0002:0002eaa0       __RTC_SetErrorType         10048aa0 f   MSVCRTD:userapi.obj
 0002:0002eacc       __CRT_RTC_INITW            10048acc f   MSVCRTD:MSVCR120D.dll
 0002:0002ead2       ??1type_info@@UAE@XZ       10048ad2 f   MSVCRTD:MSVCR120D.dll
 0002:0002ead8       ___CppXcptFilter           10048ad8 f   MSVCRTD:MSVCR120D.dll
 0002:0002eade       __amsg_exit                10048ade f   MSVCRTD:MSVCR120D.dll
 0002:0002eae4       __malloc_dbg               10048ae4 f   MSVCRTD:MSVCR120D.dll
 0002:0002eaea       __free_dbg                 10048aea f   MSVCRTD:MSVCR120D.dll
 0002:0002eaf0       __CrtSetCheckCount         10048af0 f   MSVCRTD:MSVCR120D.dll
 0002:0002eb00       __FindPESection            10048b00 f   MSVCRTD:pesect.obj
 0002:0002eb90       __IsNonwritableInCurrentImage 10048b90 f   MSVCRTD:pesect.obj
 0002:0002ed10       __ValidateImageBase        10048d10 f   MSVCRTD:pesect.obj
 0002:0002ed90       ___security_init_cookie    10048d90 f   MSVCRTD:gs_support.obj
 0002:0002eeb0       __RTC_Initialize           10048eb0 f   MSVCRTD:initsect.obj
 0002:0002eee0       __RTC_Terminate            10048ee0 f   MSVCRTD:initsect.obj
 0002:0002ef0e       __initterm                 10048f0e f   MSVCRTD:MSVCR120D.dll
 0002:0002ef14       __initterm_e               10048f14 f   MSVCRTD:MSVCR120D.dll
 0002:0002ef20       ___clean_type_info_names   10048f20 f   MSVCRTD:tncleanup.obj
 0002:0002ef36       __except_handler4_common   10048f36 f   MSVCRTD:MSVCR120D.dll
 0002:0002f4a0       ?_RTC_GetSrcLine@@YAHPAEPA_WKPAH1K@Z 100494a0 f   MSVCRTD:pdblkup.obj
 0002:0002f7fa       __crt_debugger_hook        100497fa f   MSVCRTD:MSVCR120D.dll
 0002:0002f800       ___crtUnhandledException   10049800 f   MSVCRTD:MSVCR120D.dll
 0002:0002f806       ___crtTerminateProcess     10049806 f   MSVCRTD:MSVCR120D.dll
 0002:0002f80c       ___clean_type_info_names_internal 1004980c f   MSVCRTD:MSVCR120D.dll
 0002:0002f812       _wcscpy_s                  10049812 f   MSVCRTD:MSVCR120D.dll
 0002:0002f818       __wmakepath_s              10049818 f   MSVCRTD:MSVCR120D.dll
 0002:0002f81e       __wsplitpath_s             1004981e f   MSVCRTD:MSVCR120D.dll
 0002:0002f824       _EncodePointer@4           10049824 f   kernel32:KERNEL32.dll
 0002:0002f82a       _DecodePointer@4           1004982a f   kernel32:KERNEL32.dll
 0002:0002f830       _IsDebuggerPresent@0       10049830 f   kernel32:KERNEL32.dll
 0002:0002f836       _RaiseException@16         10049836 f   kernel32:KERNEL32.dll
 0002:0002f83c       _GetLastError@0            1004983c f   kernel32:KERNEL32.dll
 0002:0002f842       _GetProcAddress@8          10049842 f   kernel32:KERNEL32.dll
 0002:0002f848       _LoadLibraryExW@12         10049848 f   kernel32:KERNEL32.dll
 0002:0002f84e       _MultiByteToWideChar@24    1004984e f   kernel32:KERNEL32.dll
 0002:0002f854       _WideCharToMultiByte@32    10049854 f   kernel32:KERNEL32.dll
 0002:0002f85a       _IsProcessorFeaturePresent@4 1004985a f   kernel32:KERNEL32.dll
 0002:0002f860       _QueryPerformanceCounter@4 10049860 f   kernel32:KERNEL32.dll
 0002:0002f866       _GetCurrentProcessId@0     10049866 f   kernel32:KERNEL32.dll
 0002:0002f86c       _GetCurrentThreadId@0      1004986c f   kernel32:KERNEL32.dll
 0002:0002f872       _GetSystemTimeAsFileTime@4 10049872 f   kernel32:KERNEL32.dll
 0002:0002f878       _HeapAlloc@12              10049878 f   kernel32:KERNEL32.dll
 0002:0002f87e       _HeapFree@12               1004987e f   kernel32:KERNEL32.dll
 0002:0002f884       _GetProcessHeap@0          10049884 f   kernel32:KERNEL32.dll
 0002:0002f88a       _VirtualQuery@12           1004988a f   kernel32:KERNEL32.dll
 0002:0002f890       _FreeLibrary@4             10049890 f   kernel32:KERNEL32.dll
 0002:0002f896       _GetModuleFileNameW@12     10049896 f   kernel32:KERNEL32.dll
 0002:0002f89c       _GetModuleHandleW@4        1004989c f   kernel32:KERNEL32.dll
 0002:0002f8a2       __stricmp                  100498a2 f   MSVCRTD:MSVCR120D.dll
 0003:00000000       ___xc_a                    10052000     MSVCRTD:cinitexe.obj
 0003:00000244       ___xc_z                    10052244     MSVCRTD:cinitexe.obj
 0003:00000348       ___xi_a                    10052348     MSVCRTD:cinitexe.obj
 0003:00000654       ___xi_z                    10052654     MSVCRTD:cinitexe.obj
 0003:0000079c       ??_7instanceInfo@@6B@      1005279c     bncs_instance_lookup.obj
 0003:000007a8       ??_7paramInfo@@6B@         100527a8     bncs_instance_lookup.obj
 0003:000007b4       ??_7deviceTypeInfo@@6B@    100527b4     bncs_instance_lookup.obj
 0003:000007c0       ??_7complexParam@@6B@      100527c0     bncs_instance_lookup.obj
 0003:000007cc       ??_7complexInstance@@6B@   100527cc     bncs_instance_lookup.obj
 0003:000007d8       ??_7complexType@@6B@       100527d8     bncs_instance_lookup.obj
 0003:000007e4       ??_7bncs_instance_lookup@@6B@ 100527e4     bncs_instance_lookup.obj
 0003:000007e9       ??_C@_00CNPNBAHC@?$AA@     100527e9     bncs_instance_lookup.obj
 0003:000007f0       ??_7error_category@std@@6B@ 100527f0     bncs_instance_lookup.obj
 0003:00000814       ??_7_Generic_error_category@std@@6B@ 10052814     bncs_instance_lookup.obj
 0003:00000834       ??_C@_07DCLBNMLN@generic?$AA@ 10052834     bncs_instance_lookup.obj
 0003:00000840       ??_C@_0O@BFJCFAAK@unknown?5error?$AA@ 10052840     bncs_instance_lookup.obj
 0003:00000854       ??_7_Iostream_error_category@std@@6B@ 10052854     bncs_instance_lookup.obj
 0003:00000874       ??_C@_08LLGCOLLL@iostream?$AA@ 10052874     bncs_instance_lookup.obj
 0003:00000880       ??_C@_0BG@PADBLCHM@iostream?5stream?5error?$AA@ 10052880     bncs_instance_lookup.obj
 0003:000008a0       ??_7_System_error_category@std@@6B@ 100528a0     bncs_instance_lookup.obj
 0003:000008c0       ??_C@_06FHFOAHML@system?$AA@ 100528c0     bncs_instance_lookup.obj
 0003:000008c8       ??_C@_09DDAHAMBK@CC_SYSTEM?$AA@ 100528c8     bncs_instance_lookup.obj
 0003:000008d4       ??_C@_01KICIPPFI@?2?$AA@   100528d4     bncs_instance_lookup.obj
 0003:000008d8       ??_C@_07JBEBLGDD@CC_ROOT?$AA@ 100528d8     bncs_instance_lookup.obj
 0003:000008e4       ??_C@_0DE@IJLPPKKB@bncs_instance_lookup?3?3lookup?3?5Ca@ 100528e4     bncs_instance_lookup.obj
 0003:00000924       ??_C@_0DF@NFBNELM@bncs_instance_lookup?3?3lookup?3?5no@ 10052924     bncs_instance_lookup.obj
 0003:00000964       ??_C@_0DF@DJKDPOBC@bncs_instance_lookup?3?3lookup?3?5no@ 10052964     bncs_instance_lookup.obj
 0003:000009a4       ??_C@_0DD@BPDBHCHK@bncs_instance_lookup?3?3lookup?3?5ca@ 100529a4     bncs_instance_lookup.obj
 0003:000009e4       ??_C@_0BG@KDLENENG@?2config?2instances?4xml?$AA@ 100529e4     bncs_instance_lookup.obj
 0003:00000a00       ??_C@_09BJOJOOIO@instances?$AA@ 10052a00     bncs_instance_lookup.obj
 0003:00000a0c       ??_C@_0DD@HBFNHPKC@bncs_instance_lookup?3?5Could?5not?5@ 10052a0c     bncs_instance_lookup.obj
 0003:00000a4c       ??_C@_0CO@KHKBCDAE@bncs_instance_lookup?3?5Error?5in?5i@ 10052a4c     bncs_instance_lookup.obj
 0003:00000a84       ??_C@_0DG@JPDANKLE@bncs_instance_lookup?3?5The?5instan@ 10052a84     bncs_instance_lookup.obj
 0003:00000ac4       ??_C@_08EMNENPBA@instance?$AA@ 10052ac4     bncs_instance_lookup.obj
 0003:00000ad0       ??_C@_04GPMDFGEJ@type?$AA@ 10052ad0     bncs_instance_lookup.obj
 0003:00000ad8       ??_C@_06OJMPKPAG@alt_id?$AA@ 10052ad8     bncs_instance_lookup.obj
 0003:00000ae0       ??_C@_08CBBFJFMD@location?$AA@ 10052ae0     bncs_instance_lookup.obj
 0003:00000aec       ??_C@_03GCDGINBO@ref?$AA@  10052aec     bncs_instance_lookup.obj
 0003:00000af0       ??_C@_03ICICOMAL@yes?$AA@  10052af0     bncs_instance_lookup.obj
 0003:00000af4       ??_C@_09EIHFMDLJ@composite?$AA@ 10052af4     bncs_instance_lookup.obj
 0003:00000b00       ??_C@_05MGJOOGAJ@group?$AA@ 10052b00     bncs_instance_lookup.obj
 0003:00000b08       ??_C@_02EGCJHIOB@id?$AA@   10052b08     bncs_instance_lookup.obj
 0003:00000b0c       ??_C@_01IHBHIGKO@?0?$AA@   10052b0c     bncs_instance_lookup.obj
 0003:00000b10       ??_C@_01NEMOKFLO@?$DN?$AA@ 10052b10     bncs_instance_lookup.obj
 0003:00000b14       ??_C@_06CHPEJBOD@device?$AA@ 10052b14     bncs_instance_lookup.obj
 0003:00000b1c       ??_C@_06KLHHMIGM@offset?$AA@ 10052b1c     bncs_instance_lookup.obj
 0003:00000b24       ??_C@_07CMPFPFAH@complex?$AA@ 10052b24     bncs_instance_lookup.obj
 0003:00000b30       ??_C@_01EEMJAFIK@?6?$AA@   10052b30     bncs_instance_lookup.obj
 0003:00000b34       ??_C@_01GPOEFGEJ@?7?$AA@   10052b34     bncs_instance_lookup.obj
 0003:00000b38       ??_C@_0FA@PICAIIIA@tag?5name?5in?5instances?4xml?5does?5n@ 10052b38     bncs_instance_lookup.obj
 0003:00000b98       ??_C@_0CP@KNHLEBLA@Duplicate?5instances?3?6?6?$CF1?6?5check?5@ 10052b98     bncs_instance_lookup.obj
 0003:00000bd0       ??_C@_0BO@BNKKJAJE@BNCS?5V4?45?5configuration?5error?$AA@ 10052bd0     bncs_instance_lookup.obj
 0003:00000bf4       ??_C@_0M@KNNHAKMH@?$CFs?5?$CFs?5?$CFd?5?$CFd?$AA@ 10052bf4     bncs_instance_lookup.obj
 0003:00000c04       ??_C@_0BE@PKNLLFCP@?2config?2devicetypes?$AA@ 10052c04     bncs_instance_lookup.obj
 0003:00000c1c       ??_C@_05LBDHBNMC@?$CK?4xml?$AA@ 10052c1c     bncs_instance_lookup.obj
 0003:00000c24       ??_C@_0DK@LMEADBK@bncs_instance_lookup?3?5devijjcety@ 10052c24     bncs_instance_lookup.obj
 0003:00000c6c       ??_C@_0BK@MAHMKCMD@?2config?2complex_instances?$AA@ 10052c6c     bncs_instance_lookup.obj
 0003:00000c8c       ??_C@_0DO@HCIJIFLM@bncs_instance_lookup?3?5complex_in@ 10052c8c     bncs_instance_lookup.obj
 0003:00000cd8       ??_C@_0BL@GNBLDCEM@?2config?2devicetypes?2?$CF1?4xml?$AA@ 10052cd8     bncs_instance_lookup.obj
 0003:00000cf8       ??_C@_0BD@INOIJGBO@device_description?$AA@ 10052cf8     bncs_instance_lookup.obj
 0003:00000d10       ??_C@_0DP@KONJPDDP@bncs_instance_lookup?3?5Could?5not?5@ 10052d10     bncs_instance_lookup.obj
 0003:00000d5c       ??_C@_0DD@PIHNHHBN@bncs_instance_lookup?3?5Error?5in?5d@ 10052d5c     bncs_instance_lookup.obj
 0003:00000da0       ??_C@_0EC@JGFKAFJC@bncs_instance_lookup?3?5The?5device@ 10052da0     bncs_instance_lookup.obj
 0003:00000df0       ??_C@_0L@NFEMMAMH@drivertype?$AA@ 10052df0     bncs_instance_lookup.obj
 0003:00000e00       ??_C@_0M@PNMFJHLG@slotspacing?$AA@ 10052e00     bncs_instance_lookup.obj
 0003:00000e10       ??_C@_04POIHOKKJ@slot?$AA@ 10052e10     bncs_instance_lookup.obj
 0003:00000e18       ??_C@_04MEMAJGDJ@name?$AA@ 10052e18     bncs_instance_lookup.obj
 0003:00000e20       ??_C@_0CB@OKFJJHEP@?2config?2complex_instances?2?$CF1?4xml@ 10052e20     bncs_instance_lookup.obj
 0003:00000e48       ??_C@_0BC@GPPBIEIP@complex_instances?$AA@ 10052e48     bncs_instance_lookup.obj
 0003:00000e60       ??_C@_0DO@HCINEOND@bncs_instance_lookup?3?5Could?5not?5@ 10052e60     bncs_instance_lookup.obj
 0003:00000eac       ??_C@_05LJDNNBIK@param?$AA@ 10052eac     bncs_instance_lookup.obj
 0003:00000eb4       ??_C@_0BE@IAIIBGHI@device?$DN?$CF1?0offset?$DN?$CF2?$AA@ 10052eb4     bncs_instance_lookup.obj
 0003:00000ecc       ??_C@_0L@BJBPFNKP@?$CI?$CKit?$CJ?4type?$AA@ 10052ecc     bncs_instance_lookup.obj
 0003:00000ee0       ??_C@_1IO@JLPDPDPD@?$AAc?$AA?3?$AA?2?$AAp?$AAr?$AAo?$AAg?$AAr?$AAa?$AAm?$AA?5?$AAf?$AAi?$AAl?$AAe?$AAs?$AA?5?$AA?$CI?$AAx?$AA8?$AA6?$AA?$CJ?$AA?2?$AAm?$AAi?$AAc?$AAr?$AAo?$AAs?$AAo?$AAf?$AAt@ 10052ee0     bncs_instance_lookup.obj
 0003:00000f90       ??_7?$QValueListPrivate@VparamInfo@@@@6B@ 10052f90     bncs_instance_lookup.obj
 0003:00000f9c       ??_7?$QValueListPrivate@VcomplexParam@@@@6B@ 10052f9c     bncs_instance_lookup.obj
 0003:00000fa8       ??_7?$QValueListPrivate@VcomplexInstance@@@@6B@ 10052fa8     bncs_instance_lookup.obj
 0003:00000fb4       ??_7?$QValueListPrivate@VinstanceInfo@@@@6B@ 10052fb4     bncs_instance_lookup.obj
 0003:00000fc0       ??_7?$QValueListPrivate@VdeviceTypeInfo@@@@6B@ 10052fc0     bncs_instance_lookup.obj
 0003:00000fcc       ??_7?$QValueListPrivate@VcomplexType@@@@6B@ 10052fcc     bncs_instance_lookup.obj
 0003:00000fd4       ??_C@_0BA@JFNIOLAK@string?5too?5long?$AA@ 10052fd4     bncs_instance_lookup.obj
 0003:00000fe8       ??_C@_0BI@CFPLBAOH@invalid?5string?5position?$AA@ 10052fe8     bncs_instance_lookup.obj
 0003:00001004       ??_C@_1CK@EOPGIILJ@?$AAi?$AAn?$AAv?$AAa?$AAl?$AAi?$AAd?$AA?5?$AAn?$AAu?$AAl?$AAl?$AA?5?$AAp?$AAo?$AAi?$AAn?$AAt?$AAe?$AAr?$AA?$AA@ 10053004     bncs_instance_lookup.obj
 0003:0000103c       ??_7?$QValueListNode@VparamInfo@@@@6B@ 1005303c     bncs_instance_lookup.obj
 0003:00001048       ??_7?$QValueListNode@VcomplexParam@@@@6B@ 10053048     bncs_instance_lookup.obj
 0003:00001054       ??_7?$QValueListNode@VcomplexInstance@@@@6B@ 10053054     bncs_instance_lookup.obj
 0003:00001060       ??_7?$QValueListNode@VinstanceInfo@@@@6B@ 10053060     bncs_instance_lookup.obj
 0003:0000106c       ??_7?$QValueListNode@VdeviceTypeInfo@@@@6B@ 1005306c     bncs_instance_lookup.obj
 0003:00001078       ??_7?$QValueListNode@VcomplexType@@@@6B@ 10053078     bncs_instance_lookup.obj
 0003:00001080       ??_C@_0P@MAEFOFPK@bncs_style?4xml?$AA@ 10053080     bncs_stylesheet.obj
 0003:00001094       ??_C@_0BE@CNOFPKAC@?2config?2stylesheet?2?$AA@ 10053094     bncs_stylesheet.obj
 0003:000010ac       ??_C@_0BI@JAKMPDAE@bncs_stylesheet?5loading?$AA@ 100530ac     bncs_stylesheet.obj
 0003:000010c8       ??_C@_0L@CDJDANNA@stylesheet?$AA@ 100530c8     bncs_stylesheet.obj
 0003:000010d8       ??_C@_0CI@NNHMFIJD@Could?5not?5find?5the?5Stylesheet?5fi@ 100530d8     bncs_stylesheet.obj
 0003:00001108       ??_C@_0CB@KLHAIGPG@Error?5in?5Stylesheet?5file?3?6?7?$CF1?6?$CF2@ 10053108     bncs_stylesheet.obj
 0003:00001130       ??_C@_0EO@FPPFIBGO@The?5Stylesheet?5file?3?6?7?$CF1?6?5is?5not@ 10053130     bncs_stylesheet.obj
 0003:00001190       ??_C@_05MFEJDJP@value?$AA@ 10053190     bncs_stylesheet.obj
 0003:00001198       ??_C@_0M@LGHFNMAF@suitablefor?$AA@ 10053198     bncs_stylesheet.obj
 0003:000011a8       ??_C@_0M@PPJNHBMP@description?$AA@ 100531a8     bncs_stylesheet.obj
 0003:000011b8       ??_C@_05HDBKIDE@state?$AA@ 100531b8     bncs_stylesheet.obj
 0003:000011c0       ??_C@_05IAKJCFIM@style?$AA@ 100531c0     bncs_stylesheet.obj
 0003:000011c8       ??_C@_07NDLGHPLM@setting?$AA@ 100531c8     bncs_stylesheet.obj
 0003:000011d4       ??_C@_0DJ@PPKIMDOF@Duplicate?5stylesheet?5entries?3?6?6?$CF@ 100531d4     bncs_stylesheet.obj
 0003:00001218       ??_C@_02PIGFKFFE@?$CF1?$AA@ 10053218     bncs_stylesheet.obj
 0003:0000121c       ??_C@_0BE@KAMCMBNM@Saving?5to?5?$CF1?5failed?$AA@ 1005321c     bncs_stylesheet.obj
 0003:00001234       ??_C@_0M@EGMMNKF@Save?5Failed?$AA@ 10053234     bncs_stylesheet.obj
 0003:00001244       ??_C@_0CO@OAMGNCPC@Are?5you?5sure?5you?5want?5to?5delete?5@ 10053244     bncs_stylesheet.obj
 0003:0000127c       ??_C@_0P@GPGOMBNK@Deleting?5Style?$AA@ 1005327c     bncs_stylesheet.obj
 0003:00001294       ??_7?$QValueListPrivate@Vstyleentry@@@@6B@ 10053294     bncs_stylesheet.obj
 0003:000012a0       ??_7?$QValueListNode@Vstyleentry@@@@6B@ 100532a0     bncs_stylesheet.obj
 0003:000012a8       ??_C@_0N@ENLBDDCH@CC_DEVELOPER?$AA@ 100532a8     env.obj
 0003:000012b8       ??_C@_04LOAJBDKD@true?$AA@ 100532b8     env.obj
 0003:000012c0       ??_C@_0CG@ENDOGMLN@bncs_cachedData?3?5loading?5stylesh@ 100532c0     main.obj
 0003:000012f0       ??_C@_0CE@MEPABBEB@bncs_cachedData?3?5loading?5instanc@ 100532f0     main.obj
 0003:0000131c       ??_C@_0CG@DLCHAPFK@bncs_cachedData?3?5loading?5devicet@ 1005331c     main.obj
 0003:0000134c       ??_C@_0DJ@JAKHBEGE@bncs_cachedData?3?5doing?5the?5loadi@ 1005334c     main.obj
 0003:00001390       ??_C@_1MC@KPMPFEII@?$AA?$CI?$AA_?$AA_?$AAo?$AAn?$AAe?$AAx?$AAi?$AAt?$AAb?$AAe?$AAg?$AAi?$AAn?$AA?5?$AA?$CB?$AA?$DN?$AA?5?$AAN?$AAU?$AAL?$AAL?$AA?5?$AA?$CG?$AA?$CG?$AA?5?$AA_?$AA_?$AAo?$AAn?$AAe?$AAx@ 10053390     MSVCRTD:atonexit.obj
 0003:00001478       ??_C@_15GANGMFKL@?$AA?$CF?$AAs?$AA?$AA@ 10053478     MSVCRTD:atonexit.obj
 0003:00001480       ??_C@_1FK@IGIDCAPD@?$AAf?$AA?3?$AA?2?$AAd?$AAd?$AA?2?$AAv?$AAc?$AAt?$AAo?$AAo?$AAl?$AAs?$AA?2?$AAc?$AAr?$AAt?$AA?2?$AAc?$AAr?$AAt?$AAw?$AA3?$AA2?$AA?2?$AAd?$AAl?$AAl?$AAs?$AAt?$AAu?$AAf@ 10053480     MSVCRTD:atonexit.obj
 0003:000014ec       ??_C@_0CN@LMJJPMEG@f?3?2dd?2vctools?2crt?2crtw32?2dllstuf@ 100534ec     MSVCRTD:atonexit.obj
 0003:00001522       ?value@?$integral_constant@_N$0A@@std@@2_NB 10053522     MSVCRTD:ti_inst.obj
 0003:00001523       ?value@?$integral_constant@_N$00@std@@2_NB 10053523     MSVCRTD:ti_inst.obj
 0003:00001528       ??_7type_info@@6B@         10053528     MSVCRTD:ti_inst.obj
 0003:00001530       __pDefaultRawDllMain       10053530     MSVCRTD:crtdll.obj
 0003:00001530       __pRawDllMain              10053530     MSVCRTD:crtdll.obj
 0003:00001534       ??_C@_0CL@CCAGLLEM@f?3?2dd?2vctools?2crt?2crtw32?2dllstuf@ 10053534     MSVCRTD:crtdll.obj
 0003:00001628       ??_C@_0NN@NGPKDKPD@The?5value?5of?5ESP?5was?5not?5properl@ 10053628     MSVCRTD:error.obj
 0003:00001738       ??_C@_0BBN@GPMLNJCF@A?5cast?5to?5a?5smaller?5data?5type?5ha@ 10053738     MSVCRTD:error.obj
 0003:00001890       ??_C@_0BN@FFOINMNJ@Stack?5memory?5was?5corrupted?6?$AN?$AA@ 10053890     MSVCRTD:error.obj
 0003:000018b4       ??_C@_0DG@HKJMLLLP@A?5local?5variable?5was?5used?5before@ 100538b4     MSVCRTD:error.obj
 0003:000018f4       ??_C@_0CM@NGINOKPC@Stack?5memory?5around?5_alloca?5was?5@ 100538f4     MSVCRTD:error.obj
 0003:00001928       ??_C@_0BO@GNIAFIKK@Unknown?5Runtime?5Check?5Error?6?$AN?$AA@ 10053928     MSVCRTD:error.obj
 0003:00001950       ??_C@_1GM@OLMCBDMB@?$AAR?$AAu?$AAn?$AAt?$AAi?$AAm?$AAe?$AA?5?$AAC?$AAh?$AAe?$AAc?$AAk?$AA?5?$AAE?$AAr?$AAr?$AAo?$AAr?$AA?4?$AA?6?$AA?$AN?$AA?5?$AAU?$AAn?$AAa?$AAb?$AAl?$AAe?$AA?5?$AAt?$AAo@ 10053950     MSVCRTD:error.obj
 0003:000019d8       ??_C@_1EA@NFKNIFJP@?$AAR?$AAu?$AAn?$AA?9?$AAT?$AAi?$AAm?$AAe?$AA?5?$AAC?$AAh?$AAe?$AAc?$AAk?$AA?5?$AAF?$AAa?$AAi?$AAl?$AAu?$AAr?$AAe?$AA?5?$AA?$CD?$AA?$CF?$AAd?$AA?5?$AA?9?$AA?5?$AA?$CF?$AAs?$AA?$AA@ 100539d8     MSVCRTD:error.obj
 0003:00001a24       ??_C@_0BB@PFFGGCJP@Unknown?5Filename?$AA@ 10053a24     MSVCRTD:error.obj
 0003:00001a38       ??_C@_0BE@GNBOBNCK@Unknown?5Module?5Name?$AA@ 10053a38     MSVCRTD:error.obj
 0003:00001a50       ??_C@_0CA@IODNCDPG@Run?9Time?5Check?5Failure?5?$CD?$CFd?5?9?5?$CFs?$AA@ 10053a50     MSVCRTD:error.obj
 0003:00001a78       ??_C@_0CG@IAFNJNEE@Stack?5corrupted?5near?5unknown?5var@ 10053a78     MSVCRTD:error.obj
 0003:00001aa8       ??_C@_05MKKEDADM@?$CF?42X?5?$AA@ 10053aa8     MSVCRTD:error.obj
 0003:00001ab0       ??_C@_1BG@OILDLIOJ@?$AAu?$AAs?$AAe?$AAr?$AA3?$AA2?$AA?4?$AAd?$AAl?$AAl?$AA?$AA@ 10053ab0     MSVCRTD:error.obj
 0003:00001acc       ??_C@_09FOPFMPEJ@wsprintfA?$AA@ 10053acc     MSVCRTD:error.obj
 0003:00001ad8       ??_C@_0EJ@LJKNEOLN@Stack?5area?5around?5_alloca?5memory@ 10053ad8     MSVCRTD:error.obj
 0003:00001b30       ??_C@_08OMAHNMHJ@?6Data?3?5?$DM?$AA@ 10053b30     MSVCRTD:error.obj
 0003:00001b3c       ??_C@_0CK@DKGBICFE@?6Allocation?5number?5within?5this?5f@ 10053b3c     MSVCRTD:error.obj
 0003:00001b70       ??_C@_07DFDJCKFN@?6Size?3?5?$AA@ 10053b70     MSVCRTD:error.obj
 0003:00001b7c       ??_C@_0N@MHFFIMFG@?6Address?3?50x?$AA@ 10053b7c     MSVCRTD:error.obj
 0003:00001b90       ??_C@_0EI@CLEPFNGI@Stack?5area?5around?5_alloca?5memory@ 10053b90     MSVCRTD:error.obj
 0003:00001be8       ??_C@_0BC@KIBAILCI@?$CFs?$CFs?$CFp?$CFs?$CFld?$CFs?$CFd?$CFs?$AA@ 10053be8     MSVCRTD:error.obj
 0003:00001c00       ??_C@_02LLMPMKNF@?$DO?5?$AA@ 10053c00     MSVCRTD:error.obj
 0003:00001c04       ??_C@_08KJEDNCKC@?$CFs?$CFs?$CFs?$CFs?$AA@ 10053c04     MSVCRTD:error.obj
 0003:00001c10       ??_C@_0DE@OHJBPMBP@A?5variable?5is?5being?5used?5without@ 10053c10     MSVCRTD:error.obj
 0003:00001c74       ??_C@_0BJ@HEGAHDFO@Stack?5pointer?5corruption?$AA@ 10053c74     MSVCRTD:userapi.obj
 0003:00001c94       ??_C@_0CK@FEGOIOPB@Cast?5to?5smaller?5type?5causing?5los@ 10053c94     MSVCRTD:userapi.obj
 0003:00001cc8       ??_C@_0BI@CIGMDCBH@Stack?5memory?5corruption?$AA@ 10053cc8     MSVCRTD:userapi.obj
 0003:00001ce4       ??_C@_0CK@CNLNOEPB@Local?5variable?5used?5before?5initi@ 10053ce4     MSVCRTD:userapi.obj
 0003:00001d18       ??_C@_0BP@OGBCLIBO@Stack?5around?5_alloca?5corrupted?$AA@ 10053d18     MSVCRTD:userapi.obj
 0003:00001d40       ?ProcessDetach@NativeDll@<CrtImplementationDetails>@@0IB 10053d40     MSVCRTD:initsect.obj
 0003:00001d44       ?ProcessAttach@NativeDll@<CrtImplementationDetails>@@0IB 10053d44     MSVCRTD:initsect.obj
 0003:00001d48       ?ThreadAttach@NativeDll@<CrtImplementationDetails>@@0IB 10053d48     MSVCRTD:initsect.obj
 0003:00001d4c       ?ThreadDetach@NativeDll@<CrtImplementationDetails>@@0IB 10053d4c     MSVCRTD:initsect.obj
 0003:00001d50       ?ProcessVerifier@NativeDll@<CrtImplementationDetails>@@0IB 10053d50     MSVCRTD:initsect.obj
 0003:00001da0       ?LocalIdBitWidth@CrossScopeId@CodeViewInfo@@2IB 10053da0     MSVCRTD:pdblkup.obj
 0003:00001da4       ?IdScopeBitWidth@CrossScopeId@CodeViewInfo@@2IB 10053da4     MSVCRTD:pdblkup.obj
 0003:00001da8       ?StartCrossScopeId@CrossScopeId@CodeViewInfo@@2IB 10053da8     MSVCRTD:pdblkup.obj
 0003:00001dac       ?LocalIdMask@CrossScopeId@CodeViewInfo@@2IB 10053dac     MSVCRTD:pdblkup.obj
 0003:00001db0       ?ScopeIdMask@CrossScopeId@CodeViewInfo@@2IB 10053db0     MSVCRTD:pdblkup.obj
 0003:00001db4       ?MaxLocalId@CrossScopeId@CodeViewInfo@@2IB 10053db4     MSVCRTD:pdblkup.obj
 0003:00001db8       ?MaxScopeId@CrossScopeId@CodeViewInfo@@2IB 10053db8     MSVCRTD:pdblkup.obj
 0003:00001dbc       ??_C@_1BK@GAEMIDIL@?$AAA?$AAD?$AAV?$AAA?$AAP?$AAI?$AA3?$AA2?$AA?4?$AAD?$AAL?$AAL?$AA?$AA@ 10053dbc     MSVCRTD:pdblkup.obj
 0003:00001ddc       ??_C@_0O@COHOBMLB@RegOpenKeyExW?$AA@ 10053ddc     MSVCRTD:pdblkup.obj
 0003:00001dec       ??_C@_0BB@GLNAEDBD@RegQueryValueExW?$AA@ 10053dec     MSVCRTD:pdblkup.obj
 0003:00001e00       ??_C@_0M@HLOHPNFA@RegCloseKey?$AA@ 10053e00     MSVCRTD:pdblkup.obj
 0003:00001e10       ??_C@_1FM@EGIBBNPP@?$AAS?$AAO?$AAF?$AAT?$AAW?$AAA?$AAR?$AAE?$AA?2?$AAM?$AAi?$AAc?$AAr?$AAo?$AAs?$AAo?$AAf?$AAt?$AA?2?$AAV?$AAi?$AAs?$AAu?$AAa?$AAl?$AAS?$AAt?$AAu?$AAd?$AAi?$AAo?$AA?2@ 10053e10     MSVCRTD:pdblkup.obj
 0003:00001e80       ??_C@_1BG@EABPBLLF@?$AAP?$AAr?$AAo?$AAd?$AAu?$AAc?$AAt?$AAD?$AAi?$AAr?$AA?$AA@ 10053e80     MSVCRTD:pdblkup.obj
 0003:00001ec0       ??_C@_1BC@EOIMGOME@?$AAM?$AAS?$AAP?$AAD?$AAB?$AA1?$AA2?$AA0?$AA?$AA@ 10053ec0     MSVCRTD:pdblkup.obj
 0003:00001ed8       ??_C@_0BB@KCIACLNC@PDBOpenValidate5?$AA@ 10053ed8     MSVCRTD:pdblkup.obj
 0003:00001eec       ??_C@_01KDCPPGHE@r?$AA@    10053eec     MSVCRTD:pdblkup.obj
 0003:00001ef0       __load_config_used         10053ef0     MSVCRTD:loadcfg.obj
 0003:00002254       ??_R13?0A@EA@QShared@@8    10054254     bncs_instance_lookup.obj
 0003:00002278       ??_R3QShared@@8            10054278     bncs_instance_lookup.obj
 0003:0000228c       ??_R2QShared@@8            1005428c     bncs_instance_lookup.obj
 0003:00002294       ??_R1A@?0A@EA@QShared@@8   10054294     bncs_instance_lookup.obj
 0003:000022b8       ??_R4instanceInfo@@6B@     100542b8     bncs_instance_lookup.obj
 0003:000022d0       ??_R3instanceInfo@@8       100542d0     bncs_instance_lookup.obj
 0003:000022e4       ??_R2instanceInfo@@8       100542e4     bncs_instance_lookup.obj
 0003:000022ec       ??_R1A@?0A@EA@instanceInfo@@8 100542ec     bncs_instance_lookup.obj
 0003:00002310       ??_R4paramInfo@@6B@        10054310     bncs_instance_lookup.obj
 0003:00002328       ??_R3paramInfo@@8          10054328     bncs_instance_lookup.obj
 0003:0000233c       ??_R2paramInfo@@8          1005433c     bncs_instance_lookup.obj
 0003:00002344       ??_R1A@?0A@EA@paramInfo@@8 10054344     bncs_instance_lookup.obj
 0003:00002368       ??_R4deviceTypeInfo@@6B@   10054368     bncs_instance_lookup.obj
 0003:00002380       ??_R3deviceTypeInfo@@8     10054380     bncs_instance_lookup.obj
 0003:00002394       ??_R2deviceTypeInfo@@8     10054394     bncs_instance_lookup.obj
 0003:0000239c       ??_R1A@?0A@EA@deviceTypeInfo@@8 1005439c     bncs_instance_lookup.obj
 0003:000023c0       ??_R4complexParam@@6B@     100543c0     bncs_instance_lookup.obj
 0003:000023d8       ??_R3complexParam@@8       100543d8     bncs_instance_lookup.obj
 0003:000023ec       ??_R2complexParam@@8       100543ec     bncs_instance_lookup.obj
 0003:000023f4       ??_R1A@?0A@EA@complexParam@@8 100543f4     bncs_instance_lookup.obj
 0003:00002418       ??_R4complexInstance@@6B@  10054418     bncs_instance_lookup.obj
 0003:00002430       ??_R3complexInstance@@8    10054430     bncs_instance_lookup.obj
 0003:00002444       ??_R2complexInstance@@8    10054444     bncs_instance_lookup.obj
 0003:0000244c       ??_R1A@?0A@EA@complexInstance@@8 1005444c     bncs_instance_lookup.obj
 0003:00002470       ??_R4complexType@@6B@      10054470     bncs_instance_lookup.obj
 0003:00002488       ??_R3complexType@@8        10054488     bncs_instance_lookup.obj
 0003:0000249c       ??_R2complexType@@8        1005449c     bncs_instance_lookup.obj
 0003:000024a4       ??_R1A@?0A@EA@complexType@@8 100544a4     bncs_instance_lookup.obj
 0003:000024c8       ??_R4bncs_instance_lookup@@6B@ 100544c8     bncs_instance_lookup.obj
 0003:000024e0       ??_R3bncs_instance_lookup@@8 100544e0     bncs_instance_lookup.obj
 0003:000024f4       ??_R2bncs_instance_lookup@@8 100544f4     bncs_instance_lookup.obj
 0003:000024fc       ??_R1A@?0A@EA@bncs_instance_lookup@@8 100544fc     bncs_instance_lookup.obj
 0003:00002520       ??_R4error_category@std@@6B@ 10054520     bncs_instance_lookup.obj
 0003:00002538       ??_R3error_category@std@@8 10054538     bncs_instance_lookup.obj
 0003:0000254c       ??_R2error_category@std@@8 1005454c     bncs_instance_lookup.obj
 0003:00002554       ??_R1A@?0A@EA@error_category@std@@8 10054554     bncs_instance_lookup.obj
 0003:00002578       ??_R4_Generic_error_category@std@@6B@ 10054578     bncs_instance_lookup.obj
 0003:00002590       ??_R3_Generic_error_category@std@@8 10054590     bncs_instance_lookup.obj
 0003:000025a4       ??_R2_Generic_error_category@std@@8 100545a4     bncs_instance_lookup.obj
 0003:000025b0       ??_R1A@?0A@EA@_Generic_error_category@std@@8 100545b0     bncs_instance_lookup.obj
 0003:000025d4       ??_R4_Iostream_error_category@std@@6B@ 100545d4     bncs_instance_lookup.obj
 0003:000025ec       ??_R3_Iostream_error_category@std@@8 100545ec     bncs_instance_lookup.obj
 0003:00002600       ??_R2_Iostream_error_category@std@@8 10054600     bncs_instance_lookup.obj
 0003:00002610       ??_R1A@?0A@EA@_Iostream_error_category@std@@8 10054610     bncs_instance_lookup.obj
 0003:00002634       ??_R4_System_error_category@std@@6B@ 10054634     bncs_instance_lookup.obj
 0003:0000264c       ??_R3_System_error_category@std@@8 1005464c     bncs_instance_lookup.obj
 0003:00002660       ??_R2_System_error_category@std@@8 10054660     bncs_instance_lookup.obj
 0003:00002670       ??_R1A@?0A@EA@_System_error_category@std@@8 10054670     bncs_instance_lookup.obj
 0003:00002694       ??_R4?$QValueListPrivate@VparamInfo@@@@6B@ 10054694     bncs_instance_lookup.obj
 0003:000026ac       ??_R3?$QValueListPrivate@VparamInfo@@@@8 100546ac     bncs_instance_lookup.obj
 0003:000026c0       ??_R2?$QValueListPrivate@VparamInfo@@@@8 100546c0     bncs_instance_lookup.obj
 0003:000026cc       ??_R1A@?0A@EA@?$QValueListPrivate@VparamInfo@@@@8 100546cc     bncs_instance_lookup.obj
 0003:000026f0       ??_R4?$QValueListNode@VparamInfo@@@@6B@ 100546f0     bncs_instance_lookup.obj
 0003:00002708       ??_R3?$QValueListNode@VparamInfo@@@@8 10054708     bncs_instance_lookup.obj
 0003:0000271c       ??_R2?$QValueListNode@VparamInfo@@@@8 1005471c     bncs_instance_lookup.obj
 0003:00002724       ??_R1A@?0A@EA@?$QValueListNode@VparamInfo@@@@8 10054724     bncs_instance_lookup.obj
 0003:00002748       ??_R4?$QValueListPrivate@VcomplexParam@@@@6B@ 10054748     bncs_instance_lookup.obj
 0003:00002760       ??_R3?$QValueListPrivate@VcomplexParam@@@@8 10054760     bncs_instance_lookup.obj
 0003:00002774       ??_R2?$QValueListPrivate@VcomplexParam@@@@8 10054774     bncs_instance_lookup.obj
 0003:00002780       ??_R1A@?0A@EA@?$QValueListPrivate@VcomplexParam@@@@8 10054780     bncs_instance_lookup.obj
 0003:000027a4       ??_R4?$QValueListNode@VcomplexParam@@@@6B@ 100547a4     bncs_instance_lookup.obj
 0003:000027bc       ??_R3?$QValueListNode@VcomplexParam@@@@8 100547bc     bncs_instance_lookup.obj
 0003:000027d0       ??_R2?$QValueListNode@VcomplexParam@@@@8 100547d0     bncs_instance_lookup.obj
 0003:000027d8       ??_R1A@?0A@EA@?$QValueListNode@VcomplexParam@@@@8 100547d8     bncs_instance_lookup.obj
 0003:000027fc       ??_R4?$QValueListPrivate@VcomplexInstance@@@@6B@ 100547fc     bncs_instance_lookup.obj
 0003:00002814       ??_R3?$QValueListPrivate@VcomplexInstance@@@@8 10054814     bncs_instance_lookup.obj
 0003:00002828       ??_R2?$QValueListPrivate@VcomplexInstance@@@@8 10054828     bncs_instance_lookup.obj
 0003:00002834       ??_R1A@?0A@EA@?$QValueListPrivate@VcomplexInstance@@@@8 10054834     bncs_instance_lookup.obj
 0003:00002858       ??_R4?$QValueListNode@VcomplexInstance@@@@6B@ 10054858     bncs_instance_lookup.obj
 0003:00002870       ??_R3?$QValueListNode@VcomplexInstance@@@@8 10054870     bncs_instance_lookup.obj
 0003:00002884       ??_R2?$QValueListNode@VcomplexInstance@@@@8 10054884     bncs_instance_lookup.obj
 0003:0000288c       ??_R1A@?0A@EA@?$QValueListNode@VcomplexInstance@@@@8 1005488c     bncs_instance_lookup.obj
 0003:000028b0       ??_R4?$QValueListPrivate@VinstanceInfo@@@@6B@ 100548b0     bncs_instance_lookup.obj
 0003:000028c8       ??_R3?$QValueListPrivate@VinstanceInfo@@@@8 100548c8     bncs_instance_lookup.obj
 0003:000028dc       ??_R2?$QValueListPrivate@VinstanceInfo@@@@8 100548dc     bncs_instance_lookup.obj
 0003:000028e8       ??_R1A@?0A@EA@?$QValueListPrivate@VinstanceInfo@@@@8 100548e8     bncs_instance_lookup.obj
 0003:0000290c       ??_R4?$QValueListNode@VinstanceInfo@@@@6B@ 1005490c     bncs_instance_lookup.obj
 0003:00002924       ??_R3?$QValueListNode@VinstanceInfo@@@@8 10054924     bncs_instance_lookup.obj
 0003:00002938       ??_R2?$QValueListNode@VinstanceInfo@@@@8 10054938     bncs_instance_lookup.obj
 0003:00002940       ??_R1A@?0A@EA@?$QValueListNode@VinstanceInfo@@@@8 10054940     bncs_instance_lookup.obj
 0003:00002964       ??_R4?$QValueListPrivate@VdeviceTypeInfo@@@@6B@ 10054964     bncs_instance_lookup.obj
 0003:0000297c       ??_R3?$QValueListPrivate@VdeviceTypeInfo@@@@8 1005497c     bncs_instance_lookup.obj
 0003:00002990       ??_R2?$QValueListPrivate@VdeviceTypeInfo@@@@8 10054990     bncs_instance_lookup.obj
 0003:0000299c       ??_R1A@?0A@EA@?$QValueListPrivate@VdeviceTypeInfo@@@@8 1005499c     bncs_instance_lookup.obj
 0003:000029c0       ??_R4?$QValueListNode@VdeviceTypeInfo@@@@6B@ 100549c0     bncs_instance_lookup.obj
 0003:000029d8       ??_R3?$QValueListNode@VdeviceTypeInfo@@@@8 100549d8     bncs_instance_lookup.obj
 0003:000029ec       ??_R2?$QValueListNode@VdeviceTypeInfo@@@@8 100549ec     bncs_instance_lookup.obj
 0003:000029f4       ??_R1A@?0A@EA@?$QValueListNode@VdeviceTypeInfo@@@@8 100549f4     bncs_instance_lookup.obj
 0003:00002a18       ??_R4?$QValueListPrivate@VcomplexType@@@@6B@ 10054a18     bncs_instance_lookup.obj
 0003:00002a30       ??_R3?$QValueListPrivate@VcomplexType@@@@8 10054a30     bncs_instance_lookup.obj
 0003:00002a44       ??_R2?$QValueListPrivate@VcomplexType@@@@8 10054a44     bncs_instance_lookup.obj
 0003:00002a50       ??_R1A@?0A@EA@?$QValueListPrivate@VcomplexType@@@@8 10054a50     bncs_instance_lookup.obj
 0003:00002a74       ??_R4?$QValueListNode@VcomplexType@@@@6B@ 10054a74     bncs_instance_lookup.obj
 0003:00002a8c       ??_R3?$QValueListNode@VcomplexType@@@@8 10054a8c     bncs_instance_lookup.obj
 0003:00002aa0       ??_R2?$QValueListNode@VcomplexType@@@@8 10054aa0     bncs_instance_lookup.obj
 0003:00002aa8       ??_R1A@?0A@EA@?$QValueListNode@VcomplexType@@@@8 10054aa8     bncs_instance_lookup.obj
 0003:00002acc       ??_R4?$QValueListPrivate@Vstyleentry@@@@6B@ 10054acc     bncs_stylesheet.obj
 0003:00002ae4       ??_R3?$QValueListPrivate@Vstyleentry@@@@8 10054ae4     bncs_stylesheet.obj
 0003:00002af8       ??_R2?$QValueListPrivate@Vstyleentry@@@@8 10054af8     bncs_stylesheet.obj
 0003:00002b04       ??_R1A@?0A@EA@?$QValueListPrivate@Vstyleentry@@@@8 10054b04     bncs_stylesheet.obj
 0003:00002b28       ??_R4?$QValueListNode@Vstyleentry@@@@6B@ 10054b28     bncs_stylesheet.obj
 0003:00002b40       ??_R3?$QValueListNode@Vstyleentry@@@@8 10054b40     bncs_stylesheet.obj
 0003:00002b54       ??_R2?$QValueListNode@Vstyleentry@@@@8 10054b54     bncs_stylesheet.obj
 0003:00002b5c       ??_R1A@?0A@EA@?$QValueListNode@Vstyleentry@@@@8 10054b5c     bncs_stylesheet.obj
 0003:00002b80       ??_R4type_info@@6B@        10054b80     MSVCRTD:ti_inst.obj
 0003:00002b98       ??_R3type_info@@8          10054b98     MSVCRTD:ti_inst.obj
 0003:00002bac       ??_R2type_info@@8          10054bac     MSVCRTD:ti_inst.obj
 0003:00002bb4       ??_R1A@?0A@EA@type_info@@8 10054bb4     MSVCRTD:ti_inst.obj
 0003:00002d14       ___rtc_iaa                 10054d14     MSVCRTD:initsect.obj
 0003:00002f48       ___rtc_izz                 10054f48     MSVCRTD:initsect.obj
 0003:0000304c       ___rtc_taa                 1005504c     MSVCRTD:initsect.obj
 0003:00003280       ___rtc_tzz                 10055280     MSVCRTD:initsect.obj
 0004:00000000       ___security_cookie         10060000     MSVCRTD:gs_cookie.obj
 0004:00000004       ___security_cookie_complement 10060004     MSVCRTD:gs_cookie.obj
 0004:00000010       ?_RTC_ErrorLevels@@3PAHA   10060010     MSVCRTD:error.obj
 0004:00000028       ___native_dllmain_reason   10060028     MSVCRTD:natstart.obj
 0004:00000130       ??_R0?AUQShared@@@8        10060130     bncs_instance_lookup.obj
 0004:0000014c       ??_R0?AVinstanceInfo@@@8   1006014c     bncs_instance_lookup.obj
 0004:0000016c       ??_R0?AVparamInfo@@@8      1006016c     bncs_instance_lookup.obj
 0004:00000188       ??_R0?AVdeviceTypeInfo@@@8 10060188     bncs_instance_lookup.obj
 0004:000001ac       ??_R0?AVcomplexParam@@@8   100601ac     bncs_instance_lookup.obj
 0004:000001cc       ??_R0?AVcomplexInstance@@@8 100601cc     bncs_instance_lookup.obj
 0004:000001f0       ??_R0?AVcomplexType@@@8    100601f0     bncs_instance_lookup.obj
 0004:00000210       ??_R0?AVbncs_instance_lookup@@@8 10060210     bncs_instance_lookup.obj
 0004:0000023c       ??_R0?AVerror_category@std@@@8 1006023c     bncs_instance_lookup.obj
 0004:00000264       ??_R0?AV_Generic_error_category@std@@@8 10060264     bncs_instance_lookup.obj
 0004:00000298       ??_R0?AV_Iostream_error_category@std@@@8 10060298     bncs_instance_lookup.obj
 0004:000002cc       ??_R0?AV_System_error_category@std@@@8 100602cc     bncs_instance_lookup.obj
 0004:00000300       ??_R0?AV?$QValueListPrivate@VparamInfo@@@@@8 10060300     bncs_instance_lookup.obj
 0004:00000338       ??_R0?AV?$QValueListNode@VparamInfo@@@@@8 10060338     bncs_instance_lookup.obj
 0004:0000036c       ??_R0?AV?$QValueListPrivate@VcomplexParam@@@@@8 1006036c     bncs_instance_lookup.obj
 0004:000003a8       ??_R0?AV?$QValueListNode@VcomplexParam@@@@@8 100603a8     bncs_instance_lookup.obj
 0004:000003e0       ??_R0?AV?$QValueListPrivate@VcomplexInstance@@@@@8 100603e0     bncs_instance_lookup.obj
 0004:00000420       ??_R0?AV?$QValueListNode@VcomplexInstance@@@@@8 10060420     bncs_instance_lookup.obj
 0004:0000045c       ??_R0?AV?$QValueListPrivate@VinstanceInfo@@@@@8 1006045c     bncs_instance_lookup.obj
 0004:00000498       ??_R0?AV?$QValueListNode@VinstanceInfo@@@@@8 10060498     bncs_instance_lookup.obj
 0004:000004d0       ??_R0?AV?$QValueListPrivate@VdeviceTypeInfo@@@@@8 100604d0     bncs_instance_lookup.obj
 0004:00000510       ??_R0?AV?$QValueListNode@VdeviceTypeInfo@@@@@8 10060510     bncs_instance_lookup.obj
 0004:0000054c       ??_R0?AV?$QValueListPrivate@VcomplexType@@@@@8 1006054c     bncs_instance_lookup.obj
 0004:00000588       ??_R0?AV?$QValueListNode@VcomplexType@@@@@8 10060588     bncs_instance_lookup.obj
 0004:000005c0       ??_R0?AV?$QValueListPrivate@Vstyleentry@@@@@8 100605c0     bncs_stylesheet.obj
 0004:000005fc       ??_R0?AV?$QValueListNode@Vstyleentry@@@@@8 100605fc     bncs_stylesheet.obj
 0004:00000634       ??_R0?AVtype_info@@@8      10060634     MSVCRTD:ti_inst.obj
 0004:00000760       ?instances@bncs_instance_lookup@@2V?$QMap@VQString@@VinstanceInfo@@@@A 10060760     bncs_instance_lookup.obj
 0004:00000768       ?complexTypes@bncs_instance_lookup@@2V?$QMap@VQString@@VcomplexType@@@@A 10060768     bncs_instance_lookup.obj
 0004:0000076c       ?deviceTypes@bncs_instance_lookup@@2V?$QMap@VQString@@VdeviceTypeInfo@@@@A 1006076c     bncs_instance_lookup.obj
 0004:00000774       ?_Generic_object@?$_Error_objects@H@std@@2V_Generic_error_category@2@A 10060774     bncs_instance_lookup.obj
 0004:00000778       ?_Iostream_object@?$_Error_objects@H@std@@2V_Iostream_error_category@2@A 10060778     bncs_instance_lookup.obj
 0004:0000077c       ?_System_object@?$_Error_objects@H@std@@2V_System_error_category@2@A 1006077c     bncs_instance_lookup.obj
 0004:00000780       ?id@?$num_put@DV?$back_insert_iterator@V?$basic_string@DU?$char_traits@D@std@@V?$allocator@D@2@@std@@@std@@@std@@2V0locale@2@A 10060780     bncs_instance_lookup.obj
 0004:00000784       ?id@?$num_put@_WV?$back_insert_iterator@V?$basic_string@_WU?$char_traits@_W@std@@V?$allocator@_W@2@@std@@@std@@@std@@2V0locale@2@A 10060784     bncs_instance_lookup.obj
 0004:00000788       ?m_sLastModified@bncs_stylesheet@@0VQDateTime@@A 10060788     bncs_stylesheet.obj
 0004:00000790       ?styles@bncs_stylesheet@@0V?$QMap@VQString@@Vstyleentry@@@@A 10060790     bncs_stylesheet.obj
 0004:00000794       ?m_sFilename@bncs_stylesheet@@0VQString@@A 10060794     bncs_stylesheet.obj
 0004:000007a0       ?wsprintffp@@3P6AHPADPBDZZA 100607a0     MSVCRTD:error.obj
 0004:00000b74       ?__type_info_root_node@@3U__type_info_node@@A 10060b74     MSVCRTD:tncleanup.obj
 0004:00000b88       ___native_startup_lock     10060b88     <common>
 0004:00000b98       ___native_startup_state    10060b98     <common>
 0004:00000b9c       ___dyn_tls_init_callback   10060b9c     <common>
 0004:00000ba8       ___onexitend               10060ba8     <common>
 0004:00000bb8       ___onexitbegin             10060bb8     <common>
 0005:00000000       __imp__GetModuleHandleW@4  10061000     kernel32:KERNEL32.dll
 0005:00000004       __imp__GetModuleFileNameW@12 10061004     kernel32:KERNEL32.dll
 0005:00000008       __imp__FreeLibrary@4       10061008     kernel32:KERNEL32.dll
 0005:0000000c       __imp__VirtualQuery@12     1006100c     kernel32:KERNEL32.dll
 0005:00000010       __imp__GetProcessHeap@0    10061010     kernel32:KERNEL32.dll
 0005:00000014       __imp__HeapFree@12         10061014     kernel32:KERNEL32.dll
 0005:00000018       __imp__HeapAlloc@12        10061018     kernel32:KERNEL32.dll
 0005:0000001c       __imp__GetSystemTimeAsFileTime@4 1006101c     kernel32:KERNEL32.dll
 0005:00000020       __imp__GetCurrentThreadId@0 10061020     kernel32:KERNEL32.dll
 0005:00000024       __imp__GetCurrentProcessId@0 10061024     kernel32:KERNEL32.dll
 0005:00000028       __imp__QueryPerformanceCounter@4 10061028     kernel32:KERNEL32.dll
 0005:0000002c       __imp__IsProcessorFeaturePresent@4 1006102c     kernel32:KERNEL32.dll
 0005:00000030       __imp__WideCharToMultiByte@32 10061030     kernel32:KERNEL32.dll
 0005:00000034       __imp__MultiByteToWideChar@24 10061034     kernel32:KERNEL32.dll
 0005:00000038       __imp__LoadLibraryExW@12   10061038     kernel32:KERNEL32.dll
 0005:0000003c       __imp__GetProcAddress@8    1006103c     kernel32:KERNEL32.dll
 0005:00000040       __imp__GetLastError@0      10061040     kernel32:KERNEL32.dll
 0005:00000044       __imp__RaiseException@16   10061044     kernel32:KERNEL32.dll
 0005:00000048       __imp__IsDebuggerPresent@0 10061048     kernel32:KERNEL32.dll
 0005:0000004c       __imp__DecodePointer@4     1006104c     kernel32:KERNEL32.dll
 0005:00000050       __imp__EncodePointer@4     10061050     kernel32:KERNEL32.dll
 0005:00000054       __imp__OutputDebugStringA@4 10061054     kernel32:KERNEL32.dll
 0005:00000058       \177KERNEL32_NULL_THUNK_DATA 10061058     kernel32:KERNEL32.dll
 0005:00000094       __imp_?_Debug_message@std@@YAXPB_W0I@Z 10061094     msvcprtd:MSVCP120D.dll
 0005:00000098       __imp_??1_Container_base12@std@@QAE@XZ 10061098     msvcprtd:MSVCP120D.dll
 0005:0000009c       __imp_?_Orphan_all@_Container_base12@std@@QAEXXZ 1006109c     msvcprtd:MSVCP120D.dll
 0005:000000a0       __imp_?_Xbad_alloc@std@@YAXXZ 100610a0     msvcprtd:MSVCP120D.dll
 0005:000000a4       __imp_?_Xlength_error@std@@YAXPBD@Z 100610a4     msvcprtd:MSVCP120D.dll
 0005:000000a8       __imp_?_Xout_of_range@std@@YAXPBD@Z 100610a8     msvcprtd:MSVCP120D.dll
 0005:000000ac       __imp_??0id@locale@std@@QAE@I@Z 100610ac     msvcprtd:MSVCP120D.dll
 0005:000000b0       __imp_?_Syserror_map@std@@YAPBDH@Z 100610b0     msvcprtd:MSVCP120D.dll
 0005:000000b4       __imp_?_Winerror_map@std@@YAPBDH@Z 100610b4     msvcprtd:MSVCP120D.dll
 0005:000000b8       __imp_??0_Container_base12@std@@QAE@XZ 100610b8     msvcprtd:MSVCP120D.dll
 0005:000000bc       \177MSVCP120D_NULL_THUNK_DATA 100610bc     msvcprtd:MSVCP120D.dll
 0005:000000f0       __imp___wmakepath_s        100610f0     MSVCRTD:MSVCR120D.dll
 0005:000000f4       __imp___amsg_exit          100610f4     MSVCRTD:MSVCR120D.dll
 0005:000000f8       __imp____CppXcptFilter     100610f8     MSVCRTD:MSVCR120D.dll
 0005:000000fc       __imp_??1type_info@@UAE@XZ 100610fc     MSVCRTD:MSVCR120D.dll
 0005:00000100       __imp___CRT_RTC_INITW      10061100     MSVCRTD:MSVCR120D.dll
 0005:00000104       __imp___onexit             10061104     MSVCRTD:MSVCR120D.dll
 0005:00000108       __imp____dllonexit         10061108     MSVCRTD:MSVCR120D.dll
 0005:0000010c       __imp___calloc_dbg         1006110c     MSVCRTD:MSVCR120D.dll
 0005:00000110       __imp___CrtDbgReportW      10061110     MSVCRTD:MSVCR120D.dll
 0005:00000114       __imp___unlock             10061114     MSVCRTD:MSVCR120D.dll
 0005:00000118       __imp___free_dbg           10061118     MSVCRTD:MSVCR120D.dll
 0005:0000011c       __imp_?terminate@@YAXXZ    1006111c     MSVCRTD:MSVCR120D.dll
 0005:00000120       __imp____CxxFrameHandler3  10061120     MSVCRTD:MSVCR120D.dll
 0005:00000124       __imp___CxxThrowException@8 10061124     MSVCRTD:MSVCR120D.dll
 0005:00000128       __imp__getenv              10061128     MSVCRTD:MSVCR120D.dll
 0005:0000012c       __imp___hypot              1006112c     MSVCRTD:MSVCR120D.dll
 0005:00000130       __imp__memmove             10061130     MSVCRTD:MSVCR120D.dll
 0005:00000134       __imp__strlen              10061134     MSVCRTD:MSVCR120D.dll
 0005:00000138       __imp__memcpy              10061138     MSVCRTD:MSVCR120D.dll
 0005:0000013c       __imp_??3@YAXPAX@Z         1006113c     MSVCRTD:MSVCR120D.dll
 0005:00000140       __imp_??2@YAPAXI@Z         10061140     MSVCRTD:MSVCR120D.dll
 0005:00000144       __imp___purecall           10061144     MSVCRTD:MSVCR120D.dll
 0005:00000148       __imp___CrtSetCheckCount   10061148     MSVCRTD:MSVCR120D.dll
 0005:0000014c       __imp___initterm           1006114c     MSVCRTD:MSVCR120D.dll
 0005:00000150       __imp___initterm_e         10061150     MSVCRTD:MSVCR120D.dll
 0005:00000154       __imp___except_handler4_common 10061154     MSVCRTD:MSVCR120D.dll
 0005:00000158       __imp___crt_debugger_hook  10061158     MSVCRTD:MSVCR120D.dll
 0005:0000015c       __imp____crtUnhandledException 1006115c     MSVCRTD:MSVCR120D.dll
 0005:00000160       __imp____crtTerminateProcess 10061160     MSVCRTD:MSVCR120D.dll
 0005:00000164       __imp____clean_type_info_names_internal 10061164     MSVCRTD:MSVCR120D.dll
 0005:00000168       __imp___lock               10061168     MSVCRTD:MSVCR120D.dll
 0005:0000016c       __imp__wcscpy_s            1006116c     MSVCRTD:MSVCR120D.dll
 0005:00000170       __imp___wsplitpath_s       10061170     MSVCRTD:MSVCR120D.dll
 0005:00000174       __imp___malloc_dbg         10061174     MSVCRTD:MSVCR120D.dll
 0005:00000178       __imp__stricmp             10061178     MSVCRTD:MSVCR120D.dll
 0005:00000178       __imp___stricmp            10061178     MSVCRTD:MSVCR120D.dll
 0005:0000017c       \177MSVCR120D_NULL_THUNK_DATA 1006117c     MSVCRTD:MSVCR120D.dll
 0005:000001c4       __imp__MessageBoxA@16      100611c4     user32:USER32.dll
 0005:000001c8       \177USER32_NULL_THUNK_DATA 100611c8     user32:USER32.dll
 0005:000001f4       __imp_?exists@QDir@@UBE_NXZ 100611f4     qt-mt323:qt-mt323.dll
 0005:000001f8       __imp_?null@QString@@2V1@A 100611f8     qt-mt323:qt-mt323.dll
 0005:000001fc       __imp_??H@YA?BVQString@@ABV0@0@Z 100611fc     qt-mt323:qt-mt323.dll
 0005:00000200       __imp_?appendChild@QDomNode@@UAE?AV1@ABV1@@Z 10061200     qt-mt323:qt-mt323.dll
 0005:00000204       __imp_?save@QDomNode@@QBEXAAVQTextStream@@H@Z 10061204     qt-mt323:qt-mt323.dll
 0005:00000208       __imp_?createElement@QDomDocument@@QAE?AVQDomElement@@ABVQString@@@Z 10061208     qt-mt323:qt-mt323.dll
 0005:0000020c       __imp_?isDocument@QDomDocument@@UBE_NXZ 1006120c     qt-mt323:qt-mt323.dll
 0005:00000210       __imp_??0QDomElement@@QAE@XZ 10061210     qt-mt323:qt-mt323.dll
 0005:00000214       __imp_??4QDomElement@@QAEAAV0@ABV0@@Z 10061214     qt-mt323:qt-mt323.dll
 0005:00000218       __imp_?setAttribute@QDomElement@@QAEXABVQString@@0@Z 10061218     qt-mt323:qt-mt323.dll
 0005:0000021c       __imp_??0QDomText@@QAE@XZ  1006121c     qt-mt323:qt-mt323.dll
 0005:00000220       __imp_??1QDomText@@UAE@XZ  10061220     qt-mt323:qt-mt323.dll
 0005:00000224       __imp_?exists@QFile@@QBE_NXZ 10061224     qt-mt323:qt-mt323.dll
 0005:00000228       __imp_?close@QFile@@UAEXXZ 10061228     qt-mt323:qt-mt323.dll
 0005:0000022c       __imp_??0QTextStream@@QAE@PAVQIODevice@@@Z 1006122c     qt-mt323:qt-mt323.dll
 0005:00000230       __imp_??0QDir@@QAE@ABVQString@@0HH@Z 10061230     qt-mt323:qt-mt323.dll
 0005:00000234       __imp_?entryList@QDir@@UBE?AVQStringList@@ABVQString@@HH@Z 10061234     qt-mt323:qt-mt323.dll
 0005:00000238       __imp_??Y?$QValueList@VQString@@@@QAEAAV0@ABVQString@@@Z 10061238     qt-mt323:qt-mt323.dll
 0005:0000023c       __imp_??0QStringList@@QAE@XZ 1006123c     qt-mt323:qt-mt323.dll
 0005:00000240       __imp_??0QStringList@@QAE@ABV0@@Z 10061240     qt-mt323:qt-mt323.dll
 0005:00000244       __imp_??4QStringList@@QAEAAV0@ABV0@@Z 10061244     qt-mt323:qt-mt323.dll
 0005:00000248       __imp_?question@QMessageBox@@SAHPAVQWidget@@ABVQString@@1HHH@Z 10061248     qt-mt323:qt-mt323.dll
 0005:0000024c       __imp_?warning@QMessageBox@@SAHPAVQWidget@@ABVQString@@1111HH@Z 1006124c     qt-mt323:qt-mt323.dll
 0005:00000250       __imp_??0QDateTime@@QAE@XZ 10061250     qt-mt323:qt-mt323.dll
 0005:00000254       __imp_??9QDateTime@@QBE_NABV0@@Z 10061254     qt-mt323:qt-mt323.dll
 0005:00000258       __imp_??0QFileInfo@@QAE@ABVQString@@@Z 10061258     qt-mt323:qt-mt323.dll
 0005:0000025c       __imp_??1QFileInfo@@QAE@XZ 1006125c     qt-mt323:qt-mt323.dll
 0005:00000260       __imp_?lastModified@QFileInfo@@QBE?AVQDateTime@@XZ 10061260     qt-mt323:qt-mt323.dll
 0005:00000264       __imp_??0?$QMap@VQString@@V1@@@QAE@XZ 10061264     qt-mt323:qt-mt323.dll
 0005:00000268       __imp_??1?$QMap@VQString@@V1@@@QAE@XZ 10061268     qt-mt323:qt-mt323.dll
 0005:0000026c       __imp_?open@QFile@@UAE_NH@Z 1006126c     qt-mt323:qt-mt323.dll
 0005:00000270       __imp_??1QFile@@UAE@XZ     10061270     qt-mt323:qt-mt323.dll
 0005:00000274       __imp_??0?$QValueListIterator@VQString@@@@QAE@XZ 10061274     qt-mt323:qt-mt323.dll
 0005:00000278       __imp_??1QDir@@UAE@XZ      10061278     qt-mt323:qt-mt323.dll
 0005:0000027c       __imp_??0QFile@@QAE@ABVQString@@@Z 1006127c     qt-mt323:qt-mt323.dll
 0005:00000280       __imp_?tagName@QDomElement@@QBE?AVQString@@XZ 10061280     qt-mt323:qt-mt323.dll
 0005:00000284       __imp_?attribute@QDomElement@@QBE?AVQString@@ABV2@0@Z 10061284     qt-mt323:qt-mt323.dll
 0005:00000288       __imp_??1QDomElement@@UAE@XZ 10061288     qt-mt323:qt-mt323.dll
 0005:0000028c       __imp_?setContent@QDomDocument@@QAE_NPAVQIODevice@@_NPAVQString@@PAH3@Z 1006128c     qt-mt323:qt-mt323.dll
 0005:00000290       __imp_?documentElement@QDomDocument@@QBE?AVQDomElement@@XZ 10061290     qt-mt323:qt-mt323.dll
 0005:00000294       __imp_??1QDomDocument@@UAE@XZ 10061294     qt-mt323:qt-mt323.dll
 0005:00000298       __imp_??0QDomDocument@@QAE@ABVQString@@@Z 10061298     qt-mt323:qt-mt323.dll
 0005:0000029c       __imp_?toElement@QDomNode@@QAE?AVQDomElement@@XZ 1006129c     qt-mt323:qt-mt323.dll
 0005:000002a0       __imp_?isNull@QDomNode@@QBE_NXZ 100612a0     qt-mt323:qt-mt323.dll
 0005:000002a4       __imp_?nextSibling@QDomNode@@UBE?AV1@XZ 100612a4     qt-mt323:qt-mt323.dll
 0005:000002a8       __imp_?firstChild@QDomNode@@UBE?AV1@XZ 100612a8     qt-mt323:qt-mt323.dll
 0005:000002ac       __imp_??1QDomNode@@UAE@XZ  100612ac     qt-mt323:qt-mt323.dll
 0005:000002b0       __imp_??4QDomNode@@QAEAAV0@ABV0@@Z 100612b0     qt-mt323:qt-mt323.dll
 0005:000002b4       __imp_??1QStringList@@QAE@XZ 100612b4     qt-mt323:qt-mt323.dll
 0005:000002b8       __imp_?split@QStringList@@SA?AV1@ABVQString@@0_N@Z 100612b8     qt-mt323:qt-mt323.dll
 0005:000002bc       __imp_?insert@?$QMap@VQString@@V1@@@QAE?AV?$QMapIterator@VQString@@V1@@@ABVQString@@0_N@Z 100612bc     qt-mt323:qt-mt323.dll
 0005:000002c0       __imp_?find@?$QMap@VQString@@V1@@@QAE?AV?$QMapIterator@VQString@@V1@@@ABVQString@@@Z 100612c0     qt-mt323:qt-mt323.dll
 0005:000002c4       __imp_?end@?$QMap@VQString@@V1@@@QAE?AV?$QMapIterator@VQString@@V1@@@XZ 100612c4     qt-mt323:qt-mt323.dll
 0005:000002c8       __imp_??4?$QMap@VQString@@V1@@@QAEAAV0@ABV0@@Z 100612c8     qt-mt323:qt-mt323.dll
 0005:000002cc       __imp_??0?$QMap@VQString@@V1@@@QAE@ABV0@@Z 100612cc     qt-mt323:qt-mt323.dll
 0005:000002d0       __imp_?removeAndRebalance@QMapPrivateBase@@QAEPAUQMapNodeBase@@PAU2@AAPAU2@11@Z 100612d0     qt-mt323:qt-mt323.dll
 0005:000002d4       __imp_?rebalance@QMapPrivateBase@@QAEXPAUQMapNodeBase@@AAPAU2@@Z 100612d4     qt-mt323:qt-mt323.dll
 0005:000002d8       __imp_??0QMapPrivateBase@@QAE@PBV0@@Z 100612d8     qt-mt323:qt-mt323.dll
 0005:000002dc       __imp_??0QMapPrivateBase@@QAE@XZ 100612dc     qt-mt323:qt-mt323.dll
 0005:000002e0       __imp_?maximum@QMapNodeBase@@QAEPAU1@XZ 100612e0     qt-mt323:qt-mt323.dll
 0005:000002e4       __imp_?minimum@QMapNodeBase@@QAEPAU1@XZ 100612e4     qt-mt323:qt-mt323.dll
 0005:000002e8       __imp_?count@?$QValueList@VQString@@@@QBEIXZ 100612e8     qt-mt323:qt-mt323.dll
 0005:000002ec       __imp_??A?$QValueList@VQString@@@@QAEAAVQString@@I@Z 100612ec     qt-mt323:qt-mt323.dll
 0005:000002f0       __imp_?append@?$QValueList@VQString@@@@QAE?AV?$QValueListIterator@VQString@@@@ABVQString@@@Z 100612f0     qt-mt323:qt-mt323.dll
 0005:000002f4       __imp_?size@?$QValueList@VQString@@@@QBEIXZ 100612f4     qt-mt323:qt-mt323.dll
 0005:000002f8       __imp_??6?$QValueList@VQString@@@@QAEAAV0@ABVQString@@@Z 100612f8     qt-mt323:qt-mt323.dll
 0005:000002fc       __imp_?end@?$QValueList@VQString@@@@QAE?AV?$QValueListIterator@VQString@@@@XZ 100612fc     qt-mt323:qt-mt323.dll
 0005:00000300       __imp_?begin@?$QValueList@VQString@@@@QAE?AV?$QValueListIterator@VQString@@@@XZ 10061300     qt-mt323:qt-mt323.dll
 0005:00000304       __imp_??1?$QValueList@VQString@@@@QAE@XZ 10061304     qt-mt323:qt-mt323.dll
 0005:00000308       __imp_??0?$QValueList@VQString@@@@QAE@ABV0@@Z 10061308     qt-mt323:qt-mt323.dll
 0005:0000030c       __imp_??0?$QValueList@VQString@@@@QAE@XZ 1006130c     qt-mt323:qt-mt323.dll
 0005:00000310       __imp_??E?$QValueListIterator@VQString@@@@QAEAAV0@XZ 10061310     qt-mt323:qt-mt323.dll
 0005:00000314       __imp_??D?$QValueListIterator@VQString@@@@QAEAAVQString@@XZ 10061314     qt-mt323:qt-mt323.dll
 0005:00000318       __imp_??9?$QValueListIterator@VQString@@@@QBE_NABV0@@Z 10061318     qt-mt323:qt-mt323.dll
 0005:0000031c       __imp_??H@YA?BVQString@@PBDABV0@@Z 1006131c     qt-mt323:qt-mt323.dll
 0005:00000320       __imp_??H@YA?BVQString@@ABV0@PBD@Z 10061320     qt-mt323:qt-mt323.dll
 0005:00000324       __imp_??8@YA_NABVQString@@PBD@Z 10061324     qt-mt323:qt-mt323.dll
 0005:00000328       __imp_??9@YA_NABVQString@@PBD@Z 10061328     qt-mt323:qt-mt323.dll
 0005:0000032c       __imp_??8@YA_NABVQString@@0@Z 1006132c     qt-mt323:qt-mt323.dll
 0005:00000330       __imp_??M@YA_NABVQString@@0@Z 10061330     qt-mt323:qt-mt323.dll
 0005:00000334       __imp_??9@YA_NABVQString@@0@Z 10061334     qt-mt323:qt-mt323.dll
 0005:00000338       __imp_?latin1@QCharRef@@QBEDXZ 10061338     qt-mt323:qt-mt323.dll
 0005:0000033c       __imp_??BQString@@QBEPBDXZ 1006133c     qt-mt323:qt-mt323.dll
 0005:00000340       __imp_??AQString@@QAE?AVQCharRef@@H@Z 10061340     qt-mt323:qt-mt323.dll
 0005:00000344       __imp_??YQString@@QAEAAV0@ABV0@@Z 10061344     qt-mt323:qt-mt323.dll
 0005:00000348       __imp_?toInt@QString@@QBEHPA_NH@Z 10061348     qt-mt323:qt-mt323.dll
 0005:0000034c       __imp_?lower@QString@@QBE?AV1@XZ 1006134c     qt-mt323:qt-mt323.dll
 0005:00000350       __imp_?left@QString@@QBE?AV1@I@Z 10061350     qt-mt323:qt-mt323.dll
 0005:00000354       __imp_?arg@QString@@QBE?AV1@ABV1@H@Z 10061354     qt-mt323:qt-mt323.dll
 0005:00000358       __imp_?arg@QString@@QBE?AV1@HHH@Z 10061358     qt-mt323:qt-mt323.dll
 0005:0000035c       __imp_?length@QString@@QBEIXZ 1006135c     qt-mt323:qt-mt323.dll
 0005:00000360       __imp_??4QString@@QAEAAV0@PBD@Z 10061360     qt-mt323:qt-mt323.dll
 0005:00000364       __imp_??4QString@@QAEAAV0@ABV0@@Z 10061364     qt-mt323:qt-mt323.dll
 0005:00000368       __imp_??1QString@@QAE@XZ   10061368     qt-mt323:qt-mt323.dll
 0005:0000036c       __imp_??0QString@@QAE@PBD@Z 1006136c     qt-mt323:qt-mt323.dll
 0005:00000370       __imp_??0QString@@QAE@ABV0@@Z 10061370     qt-mt323:qt-mt323.dll
 0005:00000374       __imp_??0QString@@QAE@XZ   10061374     qt-mt323:qt-mt323.dll
 0005:00000378       __imp_?deref@QShared@@QAE_NXZ 10061378     qt-mt323:qt-mt323.dll
 0005:0000037c       __imp_?ref@QShared@@QAEXXZ 1006137c     qt-mt323:qt-mt323.dll
 0005:00000380       __imp_??0QShared@@QAE@XZ   10061380     qt-mt323:qt-mt323.dll
 0005:00000384       __imp_??1QTextStream@@UAE@XZ 10061384     qt-mt323:qt-mt323.dll
 0005:00000388       __imp_?qDebug@@YAXPBDZZ    10061388     qt-mt323:qt-mt323.dll
 0005:0000038c       \177qt-mt323_NULL_THUNK_DATA 1006138c     qt-mt323:qt-mt323.dll
 0005:00000408       __IMPORT_DESCRIPTOR_qt-mt323 10061408     qt-mt323:qt-mt323.dll
 0005:0000041c       __IMPORT_DESCRIPTOR_KERNEL32 1006141c     kernel32:KERNEL32.dll
 0005:00000430       __IMPORT_DESCRIPTOR_USER32 10061430     user32:USER32.dll
 0005:00000444       __IMPORT_DESCRIPTOR_MSVCP120D 10061444     msvcprtd:MSVCP120D.dll
 0005:00000458       __IMPORT_DESCRIPTOR_MSVCR120D 10061458     MSVCRTD:MSVCR120D.dll
 0005:0000046c       __NULL_IMPORT_DESCRIPTOR   1006146c     qt-mt323:qt-mt323.dll

 Exports

  ordinal    name

        1    ??0?$QMap@VQString@@VcomplexInstance@@@@QAE@ABV0@@Z (public: __thiscall QMap<class QString,class complexInstance>::QMap<class QString,class complexInstance>(class QMap<class QString,class complexInstance> const &))
        2    ??0?$QMap@VQString@@VcomplexInstance@@@@QAE@XZ (public: __thiscall QMap<class QString,class complexInstance>::QMap<class QString,class complexInstance>(void))
        3    ??0?$QMap@VQString@@VcomplexParam@@@@QAE@ABV0@@Z (public: __thiscall QMap<class QString,class complexParam>::QMap<class QString,class complexParam>(class QMap<class QString,class complexParam> const &))
        4    ??0?$QMap@VQString@@VcomplexParam@@@@QAE@XZ (public: __thiscall QMap<class QString,class complexParam>::QMap<class QString,class complexParam>(void))
        5    ??0?$QMap@VQString@@VcomplexType@@@@QAE@ABV0@@Z (public: __thiscall QMap<class QString,class complexType>::QMap<class QString,class complexType>(class QMap<class QString,class complexType> const &))
        6    ??0?$QMap@VQString@@VcomplexType@@@@QAE@XZ (public: __thiscall QMap<class QString,class complexType>::QMap<class QString,class complexType>(void))
        7    ??0?$QMap@VQString@@VdeviceTypeInfo@@@@QAE@ABV0@@Z (public: __thiscall QMap<class QString,class deviceTypeInfo>::QMap<class QString,class deviceTypeInfo>(class QMap<class QString,class deviceTypeInfo> const &))
        8    ??0?$QMap@VQString@@VdeviceTypeInfo@@@@QAE@XZ (public: __thiscall QMap<class QString,class deviceTypeInfo>::QMap<class QString,class deviceTypeInfo>(void))
        9    ??0?$QMap@VQString@@VinstanceInfo@@@@QAE@ABV0@@Z (public: __thiscall QMap<class QString,class instanceInfo>::QMap<class QString,class instanceInfo>(class QMap<class QString,class instanceInfo> const &))
       10    ??0?$QMap@VQString@@VinstanceInfo@@@@QAE@XZ (public: __thiscall QMap<class QString,class instanceInfo>::QMap<class QString,class instanceInfo>(void))
       11    ??0?$QMap@VQString@@VparamInfo@@@@QAE@ABV0@@Z (public: __thiscall QMap<class QString,class paramInfo>::QMap<class QString,class paramInfo>(class QMap<class QString,class paramInfo> const &))
       12    ??0?$QMap@VQString@@VparamInfo@@@@QAE@XZ (public: __thiscall QMap<class QString,class paramInfo>::QMap<class QString,class paramInfo>(void))
       13    ??0?$QMap@VQString@@Vstyleentry@@@@QAE@ABV0@@Z (public: __thiscall QMap<class QString,class styleentry>::QMap<class QString,class styleentry>(class QMap<class QString,class styleentry> const &))
       14    ??0?$QMap@VQString@@Vstyleentry@@@@QAE@XZ (public: __thiscall QMap<class QString,class styleentry>::QMap<class QString,class styleentry>(void))
       15    ??0bncs_instance_lookup@@QAE@ABV0@@Z (public: __thiscall bncs_instance_lookup::bncs_instance_lookup(class bncs_instance_lookup const &))
       16    ??0bncs_instance_lookup@@QAE@XZ (public: __thiscall bncs_instance_lookup::bncs_instance_lookup(void))
       17    ??0bncs_stylesheet@@QAE@XZ (public: __thiscall bncs_stylesheet::bncs_stylesheet(void))
       18    ??0complexInstance@@QAE@ABV0@@Z (public: __thiscall complexInstance::complexInstance(class complexInstance const &))
       19    ??0complexInstance@@QAE@XZ (public: __thiscall complexInstance::complexInstance(void))
       20    ??0complexParam@@QAE@ABV0@@Z (public: __thiscall complexParam::complexParam(class complexParam const &))
       21    ??0complexParam@@QAE@XZ (public: __thiscall complexParam::complexParam(void))
       22    ??0complexType@@QAE@ABV0@@Z (public: __thiscall complexType::complexType(class complexType const &))
       23    ??0complexType@@QAE@XZ (public: __thiscall complexType::complexType(void))
       24    ??0deviceTypeInfo@@QAE@ABV0@@Z (public: __thiscall deviceTypeInfo::deviceTypeInfo(class deviceTypeInfo const &))
       25    ??0deviceTypeInfo@@QAE@XZ (public: __thiscall deviceTypeInfo::deviceTypeInfo(void))
       26    ??0instanceInfo@@QAE@ABV0@@Z (public: __thiscall instanceInfo::instanceInfo(class instanceInfo const &))
       27    ??0instanceInfo@@QAE@XZ (public: __thiscall instanceInfo::instanceInfo(void))
       28    ??0paramInfo@@QAE@ABV0@@Z (public: __thiscall paramInfo::paramInfo(class paramInfo const &))
       29    ??0paramInfo@@QAE@XZ (public: __thiscall paramInfo::paramInfo(void))
       30    ??0styleentry@@QAE@ABV0@@Z (public: __thiscall styleentry::styleentry(class styleentry const &))
       31    ??0styleentry@@QAE@XZ (public: __thiscall styleentry::styleentry(void))
       32    ??1?$QMap@VQString@@VcomplexInstance@@@@QAE@XZ (public: __thiscall QMap<class QString,class complexInstance>::~QMap<class QString,class complexInstance>(void))
       33    ??1?$QMap@VQString@@VcomplexParam@@@@QAE@XZ (public: __thiscall QMap<class QString,class complexParam>::~QMap<class QString,class complexParam>(void))
       34    ??1?$QMap@VQString@@VcomplexType@@@@QAE@XZ (public: __thiscall QMap<class QString,class complexType>::~QMap<class QString,class complexType>(void))
       35    ??1?$QMap@VQString@@VdeviceTypeInfo@@@@QAE@XZ (public: __thiscall QMap<class QString,class deviceTypeInfo>::~QMap<class QString,class deviceTypeInfo>(void))
       36    ??1?$QMap@VQString@@VinstanceInfo@@@@QAE@XZ (public: __thiscall QMap<class QString,class instanceInfo>::~QMap<class QString,class instanceInfo>(void))
       37    ??1?$QMap@VQString@@VparamInfo@@@@QAE@XZ (public: __thiscall QMap<class QString,class paramInfo>::~QMap<class QString,class paramInfo>(void))
       38    ??1?$QMap@VQString@@Vstyleentry@@@@QAE@XZ (public: __thiscall QMap<class QString,class styleentry>::~QMap<class QString,class styleentry>(void))
       39    ??1bncs_instance_lookup@@UAE@XZ (public: virtual __thiscall bncs_instance_lookup::~bncs_instance_lookup(void))
       40    ??1bncs_stylesheet@@QAE@XZ (public: __thiscall bncs_stylesheet::~bncs_stylesheet(void))
       41    ??1complexInstance@@UAE@XZ (public: virtual __thiscall complexInstance::~complexInstance(void))
       42    ??1complexParam@@UAE@XZ (public: virtual __thiscall complexParam::~complexParam(void))
       43    ??1complexType@@UAE@XZ (public: virtual __thiscall complexType::~complexType(void))
       44    ??1deviceTypeInfo@@UAE@XZ (public: virtual __thiscall deviceTypeInfo::~deviceTypeInfo(void))
       45    ??1instanceInfo@@UAE@XZ (public: virtual __thiscall instanceInfo::~instanceInfo(void))
       46    ??1paramInfo@@UAE@XZ (public: virtual __thiscall paramInfo::~paramInfo(void))
       47    ??1styleentry@@QAE@XZ (public: __thiscall styleentry::~styleentry(void))
       48    ??4?$QMap@VQString@@VcomplexInstance@@@@QAEAAV0@ABV0@@Z (public: class QMap<class QString,class complexInstance> & __thiscall QMap<class QString,class complexInstance>::operator=(class QMap<class QString,class complexInstance> const &))
       49    ??4?$QMap@VQString@@VcomplexParam@@@@QAEAAV0@ABV0@@Z (public: class QMap<class QString,class complexParam> & __thiscall QMap<class QString,class complexParam>::operator=(class QMap<class QString,class complexParam> const &))
       50    ??4?$QMap@VQString@@VcomplexType@@@@QAEAAV0@ABV0@@Z (public: class QMap<class QString,class complexType> & __thiscall QMap<class QString,class complexType>::operator=(class QMap<class QString,class complexType> const &))
       51    ??4?$QMap@VQString@@VdeviceTypeInfo@@@@QAEAAV0@ABV0@@Z (public: class QMap<class QString,class deviceTypeInfo> & __thiscall QMap<class QString,class deviceTypeInfo>::operator=(class QMap<class QString,class deviceTypeInfo> const &))
       52    ??4?$QMap@VQString@@VinstanceInfo@@@@QAEAAV0@ABV0@@Z (public: class QMap<class QString,class instanceInfo> & __thiscall QMap<class QString,class instanceInfo>::operator=(class QMap<class QString,class instanceInfo> const &))
       53    ??4?$QMap@VQString@@VparamInfo@@@@QAEAAV0@ABV0@@Z (public: class QMap<class QString,class paramInfo> & __thiscall QMap<class QString,class paramInfo>::operator=(class QMap<class QString,class paramInfo> const &))
       54    ??4?$QMap@VQString@@Vstyleentry@@@@QAEAAV0@ABV0@@Z (public: class QMap<class QString,class styleentry> & __thiscall QMap<class QString,class styleentry>::operator=(class QMap<class QString,class styleentry> const &))
       55    ??4bncs_instance_lookup@@QAEAAV0@ABV0@@Z (public: class bncs_instance_lookup & __thiscall bncs_instance_lookup::operator=(class bncs_instance_lookup const &))
       56    ??4bncs_stylesheet@@QAEAAV0@ABV0@@Z (public: class bncs_stylesheet & __thiscall bncs_stylesheet::operator=(class bncs_stylesheet const &))
       57    ??4complexInstance@@QAEAAV0@ABV0@@Z (public: class complexInstance & __thiscall complexInstance::operator=(class complexInstance const &))
       58    ??4complexParam@@QAEAAV0@ABV0@@Z (public: class complexParam & __thiscall complexParam::operator=(class complexParam const &))
       59    ??4complexType@@QAEAAV0@ABV0@@Z (public: class complexType & __thiscall complexType::operator=(class complexType const &))
       60    ??4deviceTypeInfo@@QAEAAV0@ABV0@@Z (public: class deviceTypeInfo & __thiscall deviceTypeInfo::operator=(class deviceTypeInfo const &))
       61    ??4instanceInfo@@QAEAAV0@ABV0@@Z (public: class instanceInfo & __thiscall instanceInfo::operator=(class instanceInfo const &))
       62    ??4paramInfo@@QAEAAV0@ABV0@@Z (public: class paramInfo & __thiscall paramInfo::operator=(class paramInfo const &))
       63    ??4styleentry@@QAEAAV0@ABV0@@Z (public: class styleentry & __thiscall styleentry::operator=(class styleentry const &))
       64    ??A?$QMap@VQString@@VcomplexInstance@@@@QAEAAVcomplexInstance@@ABVQString@@@Z (public: class complexInstance & __thiscall QMap<class QString,class complexInstance>::operator[](class QString const &))
       65    ??A?$QMap@VQString@@VcomplexInstance@@@@QBEABVcomplexInstance@@ABVQString@@@Z (public: class complexInstance const & __thiscall QMap<class QString,class complexInstance>::operator[](class QString const &)const )
       66    ??A?$QMap@VQString@@VcomplexParam@@@@QAEAAVcomplexParam@@ABVQString@@@Z (public: class complexParam & __thiscall QMap<class QString,class complexParam>::operator[](class QString const &))
       67    ??A?$QMap@VQString@@VcomplexParam@@@@QBEABVcomplexParam@@ABVQString@@@Z (public: class complexParam const & __thiscall QMap<class QString,class complexParam>::operator[](class QString const &)const )
       68    ??A?$QMap@VQString@@VcomplexType@@@@QAEAAVcomplexType@@ABVQString@@@Z (public: class complexType & __thiscall QMap<class QString,class complexType>::operator[](class QString const &))
       69    ??A?$QMap@VQString@@VcomplexType@@@@QBEABVcomplexType@@ABVQString@@@Z (public: class complexType const & __thiscall QMap<class QString,class complexType>::operator[](class QString const &)const )
       70    ??A?$QMap@VQString@@VdeviceTypeInfo@@@@QAEAAVdeviceTypeInfo@@ABVQString@@@Z (public: class deviceTypeInfo & __thiscall QMap<class QString,class deviceTypeInfo>::operator[](class QString const &))
       71    ??A?$QMap@VQString@@VdeviceTypeInfo@@@@QBEABVdeviceTypeInfo@@ABVQString@@@Z (public: class deviceTypeInfo const & __thiscall QMap<class QString,class deviceTypeInfo>::operator[](class QString const &)const )
       72    ??A?$QMap@VQString@@VinstanceInfo@@@@QAEAAVinstanceInfo@@ABVQString@@@Z (public: class instanceInfo & __thiscall QMap<class QString,class instanceInfo>::operator[](class QString const &))
       73    ??A?$QMap@VQString@@VinstanceInfo@@@@QBEABVinstanceInfo@@ABVQString@@@Z (public: class instanceInfo const & __thiscall QMap<class QString,class instanceInfo>::operator[](class QString const &)const )
       74    ??A?$QMap@VQString@@VparamInfo@@@@QAEAAVparamInfo@@ABVQString@@@Z (public: class paramInfo & __thiscall QMap<class QString,class paramInfo>::operator[](class QString const &))
       75    ??A?$QMap@VQString@@VparamInfo@@@@QBEABVparamInfo@@ABVQString@@@Z (public: class paramInfo const & __thiscall QMap<class QString,class paramInfo>::operator[](class QString const &)const )
       76    ??A?$QMap@VQString@@Vstyleentry@@@@QAEAAVstyleentry@@ABVQString@@@Z (public: class styleentry & __thiscall QMap<class QString,class styleentry>::operator[](class QString const &))
       77    ??A?$QMap@VQString@@Vstyleentry@@@@QBEABVstyleentry@@ABVQString@@@Z (public: class styleentry const & __thiscall QMap<class QString,class styleentry>::operator[](class QString const &)const )
       78    ??_7bncs_instance_lookup@@6B@ (const bncs_instance_lookup::`vftable')
       79    ??_7complexInstance@@6B@ (const complexInstance::`vftable')
       80    ??_7complexParam@@6B@ (const complexParam::`vftable')
       81    ??_7complexType@@6B@ (const complexType::`vftable')
       82    ??_7deviceTypeInfo@@6B@ (const deviceTypeInfo::`vftable')
       83    ??_7instanceInfo@@6B@ (const instanceInfo::`vftable')
       84    ??_7paramInfo@@6B@ (const paramInfo::`vftable')
       85    ?begin@?$QMap@VQString@@VcomplexInstance@@@@QAE?AV?$QMapIterator@VQString@@VcomplexInstance@@@@XZ (public: class QMapIterator<class QString,class complexInstance> __thiscall QMap<class QString,class complexInstance>::begin(void))
       86    ?begin@?$QMap@VQString@@VcomplexInstance@@@@QBE?AV?$QMapConstIterator@VQString@@VcomplexInstance@@@@XZ (public: class QMapConstIterator<class QString,class complexInstance> __thiscall QMap<class QString,class complexInstance>::begin(void)const )
       87    ?begin@?$QMap@VQString@@VcomplexParam@@@@QAE?AV?$QMapIterator@VQString@@VcomplexParam@@@@XZ (public: class QMapIterator<class QString,class complexParam> __thiscall QMap<class QString,class complexParam>::begin(void))
       88    ?begin@?$QMap@VQString@@VcomplexParam@@@@QBE?AV?$QMapConstIterator@VQString@@VcomplexParam@@@@XZ (public: class QMapConstIterator<class QString,class complexParam> __thiscall QMap<class QString,class complexParam>::begin(void)const )
       89    ?begin@?$QMap@VQString@@VcomplexType@@@@QAE?AV?$QMapIterator@VQString@@VcomplexType@@@@XZ (public: class QMapIterator<class QString,class complexType> __thiscall QMap<class QString,class complexType>::begin(void))
       90    ?begin@?$QMap@VQString@@VcomplexType@@@@QBE?AV?$QMapConstIterator@VQString@@VcomplexType@@@@XZ (public: class QMapConstIterator<class QString,class complexType> __thiscall QMap<class QString,class complexType>::begin(void)const )
       91    ?begin@?$QMap@VQString@@VdeviceTypeInfo@@@@QAE?AV?$QMapIterator@VQString@@VdeviceTypeInfo@@@@XZ (public: class QMapIterator<class QString,class deviceTypeInfo> __thiscall QMap<class QString,class deviceTypeInfo>::begin(void))
       92    ?begin@?$QMap@VQString@@VdeviceTypeInfo@@@@QBE?AV?$QMapConstIterator@VQString@@VdeviceTypeInfo@@@@XZ (public: class QMapConstIterator<class QString,class deviceTypeInfo> __thiscall QMap<class QString,class deviceTypeInfo>::begin(void)const )
       93    ?begin@?$QMap@VQString@@VinstanceInfo@@@@QAE?AV?$QMapIterator@VQString@@VinstanceInfo@@@@XZ (public: class QMapIterator<class QString,class instanceInfo> __thiscall QMap<class QString,class instanceInfo>::begin(void))
       94    ?begin@?$QMap@VQString@@VinstanceInfo@@@@QBE?AV?$QMapConstIterator@VQString@@VinstanceInfo@@@@XZ (public: class QMapConstIterator<class QString,class instanceInfo> __thiscall QMap<class QString,class instanceInfo>::begin(void)const )
       95    ?begin@?$QMap@VQString@@VparamInfo@@@@QAE?AV?$QMapIterator@VQString@@VparamInfo@@@@XZ (public: class QMapIterator<class QString,class paramInfo> __thiscall QMap<class QString,class paramInfo>::begin(void))
       96    ?begin@?$QMap@VQString@@VparamInfo@@@@QBE?AV?$QMapConstIterator@VQString@@VparamInfo@@@@XZ (public: class QMapConstIterator<class QString,class paramInfo> __thiscall QMap<class QString,class paramInfo>::begin(void)const )
       97    ?begin@?$QMap@VQString@@Vstyleentry@@@@QAE?AV?$QMapIterator@VQString@@Vstyleentry@@@@XZ (public: class QMapIterator<class QString,class styleentry> __thiscall QMap<class QString,class styleentry>::begin(void))
       98    ?begin@?$QMap@VQString@@Vstyleentry@@@@QBE?AV?$QMapConstIterator@VQString@@Vstyleentry@@@@XZ (public: class QMapConstIterator<class QString,class styleentry> __thiscall QMap<class QString,class styleentry>::begin(void)const )
       99    ?clear@?$QMap@VQString@@VcomplexInstance@@@@QAEXXZ (public: void __thiscall QMap<class QString,class complexInstance>::clear(void))
      100    ?clear@?$QMap@VQString@@VcomplexParam@@@@QAEXXZ (public: void __thiscall QMap<class QString,class complexParam>::clear(void))
      101    ?clear@?$QMap@VQString@@VcomplexType@@@@QAEXXZ (public: void __thiscall QMap<class QString,class complexType>::clear(void))
      102    ?clear@?$QMap@VQString@@VdeviceTypeInfo@@@@QAEXXZ (public: void __thiscall QMap<class QString,class deviceTypeInfo>::clear(void))
      103    ?clear@?$QMap@VQString@@VinstanceInfo@@@@QAEXXZ (public: void __thiscall QMap<class QString,class instanceInfo>::clear(void))
      104    ?clear@?$QMap@VQString@@VparamInfo@@@@QAEXXZ (public: void __thiscall QMap<class QString,class paramInfo>::clear(void))
      105    ?clear@?$QMap@VQString@@Vstyleentry@@@@QAEXXZ (public: void __thiscall QMap<class QString,class styleentry>::clear(void))
      106    ?complexTypes@bncs_instance_lookup@@2V?$QMap@VQString@@VcomplexType@@@@A (public: static class QMap<class QString,class complexType> bncs_instance_lookup::complexTypes)
      107    ?constBegin@?$QMap@VQString@@VcomplexInstance@@@@QBE?AV?$QMapConstIterator@VQString@@VcomplexInstance@@@@XZ (public: class QMapConstIterator<class QString,class complexInstance> __thiscall QMap<class QString,class complexInstance>::constBegin(void)const )
      108    ?constBegin@?$QMap@VQString@@VcomplexParam@@@@QBE?AV?$QMapConstIterator@VQString@@VcomplexParam@@@@XZ (public: class QMapConstIterator<class QString,class complexParam> __thiscall QMap<class QString,class complexParam>::constBegin(void)const )
      109    ?constBegin@?$QMap@VQString@@VcomplexType@@@@QBE?AV?$QMapConstIterator@VQString@@VcomplexType@@@@XZ (public: class QMapConstIterator<class QString,class complexType> __thiscall QMap<class QString,class complexType>::constBegin(void)const )
      110    ?constBegin@?$QMap@VQString@@VdeviceTypeInfo@@@@QBE?AV?$QMapConstIterator@VQString@@VdeviceTypeInfo@@@@XZ (public: class QMapConstIterator<class QString,class deviceTypeInfo> __thiscall QMap<class QString,class deviceTypeInfo>::constBegin(void)const )
      111    ?constBegin@?$QMap@VQString@@VinstanceInfo@@@@QBE?AV?$QMapConstIterator@VQString@@VinstanceInfo@@@@XZ (public: class QMapConstIterator<class QString,class instanceInfo> __thiscall QMap<class QString,class instanceInfo>::constBegin(void)const )
      112    ?constBegin@?$QMap@VQString@@VparamInfo@@@@QBE?AV?$QMapConstIterator@VQString@@VparamInfo@@@@XZ (public: class QMapConstIterator<class QString,class paramInfo> __thiscall QMap<class QString,class paramInfo>::constBegin(void)const )
      113    ?constBegin@?$QMap@VQString@@Vstyleentry@@@@QBE?AV?$QMapConstIterator@VQString@@Vstyleentry@@@@XZ (public: class QMapConstIterator<class QString,class styleentry> __thiscall QMap<class QString,class styleentry>::constBegin(void)const )
      114    ?constEnd@?$QMap@VQString@@VcomplexInstance@@@@QBE?AV?$QMapConstIterator@VQString@@VcomplexInstance@@@@XZ (public: class QMapConstIterator<class QString,class complexInstance> __thiscall QMap<class QString,class complexInstance>::constEnd(void)const )
      115    ?constEnd@?$QMap@VQString@@VcomplexParam@@@@QBE?AV?$QMapConstIterator@VQString@@VcomplexParam@@@@XZ (public: class QMapConstIterator<class QString,class complexParam> __thiscall QMap<class QString,class complexParam>::constEnd(void)const )
      116    ?constEnd@?$QMap@VQString@@VcomplexType@@@@QBE?AV?$QMapConstIterator@VQString@@VcomplexType@@@@XZ (public: class QMapConstIterator<class QString,class complexType> __thiscall QMap<class QString,class complexType>::constEnd(void)const )
      117    ?constEnd@?$QMap@VQString@@VdeviceTypeInfo@@@@QBE?AV?$QMapConstIterator@VQString@@VdeviceTypeInfo@@@@XZ (public: class QMapConstIterator<class QString,class deviceTypeInfo> __thiscall QMap<class QString,class deviceTypeInfo>::constEnd(void)const )
      118    ?constEnd@?$QMap@VQString@@VinstanceInfo@@@@QBE?AV?$QMapConstIterator@VQString@@VinstanceInfo@@@@XZ (public: class QMapConstIterator<class QString,class instanceInfo> __thiscall QMap<class QString,class instanceInfo>::constEnd(void)const )
      119    ?constEnd@?$QMap@VQString@@VparamInfo@@@@QBE?AV?$QMapConstIterator@VQString@@VparamInfo@@@@XZ (public: class QMapConstIterator<class QString,class paramInfo> __thiscall QMap<class QString,class paramInfo>::constEnd(void)const )
      120    ?constEnd@?$QMap@VQString@@Vstyleentry@@@@QBE?AV?$QMapConstIterator@VQString@@Vstyleentry@@@@XZ (public: class QMapConstIterator<class QString,class styleentry> __thiscall QMap<class QString,class styleentry>::constEnd(void)const )
      121    ?contains@?$QMap@VQString@@VcomplexInstance@@@@QBE_NABVQString@@@Z (public: bool __thiscall QMap<class QString,class complexInstance>::contains(class QString const &)const )
      122    ?contains@?$QMap@VQString@@VcomplexParam@@@@QBE_NABVQString@@@Z (public: bool __thiscall QMap<class QString,class complexParam>::contains(class QString const &)const )
      123    ?contains@?$QMap@VQString@@VcomplexType@@@@QBE_NABVQString@@@Z (public: bool __thiscall QMap<class QString,class complexType>::contains(class QString const &)const )
      124    ?contains@?$QMap@VQString@@VdeviceTypeInfo@@@@QBE_NABVQString@@@Z (public: bool __thiscall QMap<class QString,class deviceTypeInfo>::contains(class QString const &)const )
      125    ?contains@?$QMap@VQString@@VinstanceInfo@@@@QBE_NABVQString@@@Z (public: bool __thiscall QMap<class QString,class instanceInfo>::contains(class QString const &)const )
      126    ?contains@?$QMap@VQString@@VparamInfo@@@@QBE_NABVQString@@@Z (public: bool __thiscall QMap<class QString,class paramInfo>::contains(class QString const &)const )
      127    ?contains@?$QMap@VQString@@Vstyleentry@@@@QBE_NABVQString@@@Z (public: bool __thiscall QMap<class QString,class styleentry>::contains(class QString const &)const )
      128    ?count@?$QMap@VQString@@VcomplexInstance@@@@QBEIABVQString@@@Z (public: unsigned int __thiscall QMap<class QString,class complexInstance>::count(class QString const &)const )
      129    ?count@?$QMap@VQString@@VcomplexInstance@@@@QBEIXZ (public: unsigned int __thiscall QMap<class QString,class complexInstance>::count(void)const )
      130    ?count@?$QMap@VQString@@VcomplexParam@@@@QBEIABVQString@@@Z (public: unsigned int __thiscall QMap<class QString,class complexParam>::count(class QString const &)const )
      131    ?count@?$QMap@VQString@@VcomplexParam@@@@QBEIXZ (public: unsigned int __thiscall QMap<class QString,class complexParam>::count(void)const )
      132    ?count@?$QMap@VQString@@VcomplexType@@@@QBEIABVQString@@@Z (public: unsigned int __thiscall QMap<class QString,class complexType>::count(class QString const &)const )
      133    ?count@?$QMap@VQString@@VcomplexType@@@@QBEIXZ (public: unsigned int __thiscall QMap<class QString,class complexType>::count(void)const )
      134    ?count@?$QMap@VQString@@VdeviceTypeInfo@@@@QBEIABVQString@@@Z (public: unsigned int __thiscall QMap<class QString,class deviceTypeInfo>::count(class QString const &)const )
      135    ?count@?$QMap@VQString@@VdeviceTypeInfo@@@@QBEIXZ (public: unsigned int __thiscall QMap<class QString,class deviceTypeInfo>::count(void)const )
      136    ?count@?$QMap@VQString@@VinstanceInfo@@@@QBEIABVQString@@@Z (public: unsigned int __thiscall QMap<class QString,class instanceInfo>::count(class QString const &)const )
      137    ?count@?$QMap@VQString@@VinstanceInfo@@@@QBEIXZ (public: unsigned int __thiscall QMap<class QString,class instanceInfo>::count(void)const )
      138    ?count@?$QMap@VQString@@VparamInfo@@@@QBEIABVQString@@@Z (public: unsigned int __thiscall QMap<class QString,class paramInfo>::count(class QString const &)const )
      139    ?count@?$QMap@VQString@@VparamInfo@@@@QBEIXZ (public: unsigned int __thiscall QMap<class QString,class paramInfo>::count(void)const )
      140    ?count@?$QMap@VQString@@Vstyleentry@@@@QBEIABVQString@@@Z (public: unsigned int __thiscall QMap<class QString,class styleentry>::count(class QString const &)const )
      141    ?count@?$QMap@VQString@@Vstyleentry@@@@QBEIXZ (public: unsigned int __thiscall QMap<class QString,class styleentry>::count(void)const )
      142    ?count@bncs_stylesheet@@SAHXZ (public: static int __cdecl bncs_stylesheet::count(void))
      143    ?countComplexTypes@bncs_instance_lookup@@SAHXZ (public: static int __cdecl bncs_instance_lookup::countComplexTypes(void))
      144    ?countDeviceTypes@bncs_instance_lookup@@SAHXZ (public: static int __cdecl bncs_instance_lookup::countDeviceTypes(void))
      145    ?countInstances@bncs_instance_lookup@@SAHXZ (public: static int __cdecl bncs_instance_lookup::countInstances(void))
      146    ?deleteStyle@bncs_stylesheet@@QAEXVQString@@@Z (public: void __thiscall bncs_stylesheet::deleteStyle(class QString))
      147    ?detach@?$QMap@VQString@@VcomplexInstance@@@@IAEXXZ (protected: void __thiscall QMap<class QString,class complexInstance>::detach(void))
      148    ?detach@?$QMap@VQString@@VcomplexParam@@@@IAEXXZ (protected: void __thiscall QMap<class QString,class complexParam>::detach(void))
      149    ?detach@?$QMap@VQString@@VcomplexType@@@@IAEXXZ (protected: void __thiscall QMap<class QString,class complexType>::detach(void))
      150    ?detach@?$QMap@VQString@@VdeviceTypeInfo@@@@IAEXXZ (protected: void __thiscall QMap<class QString,class deviceTypeInfo>::detach(void))
      151    ?detach@?$QMap@VQString@@VinstanceInfo@@@@IAEXXZ (protected: void __thiscall QMap<class QString,class instanceInfo>::detach(void))
      152    ?detach@?$QMap@VQString@@VparamInfo@@@@IAEXXZ (protected: void __thiscall QMap<class QString,class paramInfo>::detach(void))
      153    ?detach@?$QMap@VQString@@Vstyleentry@@@@IAEXXZ (protected: void __thiscall QMap<class QString,class styleentry>::detach(void))
      154    ?detachInternal@?$QMap@VQString@@VcomplexInstance@@@@AAEXXZ (private: void __thiscall QMap<class QString,class complexInstance>::detachInternal(void))
      155    ?detachInternal@?$QMap@VQString@@VcomplexParam@@@@AAEXXZ (private: void __thiscall QMap<class QString,class complexParam>::detachInternal(void))
      156    ?detachInternal@?$QMap@VQString@@VcomplexType@@@@AAEXXZ (private: void __thiscall QMap<class QString,class complexType>::detachInternal(void))
      157    ?detachInternal@?$QMap@VQString@@VdeviceTypeInfo@@@@AAEXXZ (private: void __thiscall QMap<class QString,class deviceTypeInfo>::detachInternal(void))
      158    ?detachInternal@?$QMap@VQString@@VinstanceInfo@@@@AAEXXZ (private: void __thiscall QMap<class QString,class instanceInfo>::detachInternal(void))
      159    ?detachInternal@?$QMap@VQString@@VparamInfo@@@@AAEXXZ (private: void __thiscall QMap<class QString,class paramInfo>::detachInternal(void))
      160    ?detachInternal@?$QMap@VQString@@Vstyleentry@@@@AAEXXZ (private: void __thiscall QMap<class QString,class styleentry>::detachInternal(void))
      161    ?deviceTypes@bncs_instance_lookup@@2V?$QMap@VQString@@VdeviceTypeInfo@@@@A (public: static class QMap<class QString,class deviceTypeInfo> bncs_instance_lookup::deviceTypes)
      162    ?doLoad@bncs_stylesheet@@SA_NXZ (public: static bool __cdecl bncs_stylesheet::doLoad(void))
      163    ?dump@bncs_instance_lookup@@SAXXZ (public: static void __cdecl bncs_instance_lookup::dump(void))
      164    ?empty@?$QMap@VQString@@VcomplexInstance@@@@QBE_NXZ (public: bool __thiscall QMap<class QString,class complexInstance>::empty(void)const )
      165    ?empty@?$QMap@VQString@@VcomplexParam@@@@QBE_NXZ (public: bool __thiscall QMap<class QString,class complexParam>::empty(void)const )
      166    ?empty@?$QMap@VQString@@VcomplexType@@@@QBE_NXZ (public: bool __thiscall QMap<class QString,class complexType>::empty(void)const )
      167    ?empty@?$QMap@VQString@@VdeviceTypeInfo@@@@QBE_NXZ (public: bool __thiscall QMap<class QString,class deviceTypeInfo>::empty(void)const )
      168    ?empty@?$QMap@VQString@@VinstanceInfo@@@@QBE_NXZ (public: bool __thiscall QMap<class QString,class instanceInfo>::empty(void)const )
      169    ?empty@?$QMap@VQString@@VparamInfo@@@@QBE_NXZ (public: bool __thiscall QMap<class QString,class paramInfo>::empty(void)const )
      170    ?empty@?$QMap@VQString@@Vstyleentry@@@@QBE_NXZ (public: bool __thiscall QMap<class QString,class styleentry>::empty(void)const )
      171    ?end@?$QMap@VQString@@VcomplexInstance@@@@QAE?AV?$QMapIterator@VQString@@VcomplexInstance@@@@XZ (public: class QMapIterator<class QString,class complexInstance> __thiscall QMap<class QString,class complexInstance>::end(void))
      172    ?end@?$QMap@VQString@@VcomplexInstance@@@@QBE?AV?$QMapConstIterator@VQString@@VcomplexInstance@@@@XZ (public: class QMapConstIterator<class QString,class complexInstance> __thiscall QMap<class QString,class complexInstance>::end(void)const )
      173    ?end@?$QMap@VQString@@VcomplexParam@@@@QAE?AV?$QMapIterator@VQString@@VcomplexParam@@@@XZ (public: class QMapIterator<class QString,class complexParam> __thiscall QMap<class QString,class complexParam>::end(void))
      174    ?end@?$QMap@VQString@@VcomplexParam@@@@QBE?AV?$QMapConstIterator@VQString@@VcomplexParam@@@@XZ (public: class QMapConstIterator<class QString,class complexParam> __thiscall QMap<class QString,class complexParam>::end(void)const )
      175    ?end@?$QMap@VQString@@VcomplexType@@@@QAE?AV?$QMapIterator@VQString@@VcomplexType@@@@XZ (public: class QMapIterator<class QString,class complexType> __thiscall QMap<class QString,class complexType>::end(void))
      176    ?end@?$QMap@VQString@@VcomplexType@@@@QBE?AV?$QMapConstIterator@VQString@@VcomplexType@@@@XZ (public: class QMapConstIterator<class QString,class complexType> __thiscall QMap<class QString,class complexType>::end(void)const )
      177    ?end@?$QMap@VQString@@VdeviceTypeInfo@@@@QAE?AV?$QMapIterator@VQString@@VdeviceTypeInfo@@@@XZ (public: class QMapIterator<class QString,class deviceTypeInfo> __thiscall QMap<class QString,class deviceTypeInfo>::end(void))
      178    ?end@?$QMap@VQString@@VdeviceTypeInfo@@@@QBE?AV?$QMapConstIterator@VQString@@VdeviceTypeInfo@@@@XZ (public: class QMapConstIterator<class QString,class deviceTypeInfo> __thiscall QMap<class QString,class deviceTypeInfo>::end(void)const )
      179    ?end@?$QMap@VQString@@VinstanceInfo@@@@QAE?AV?$QMapIterator@VQString@@VinstanceInfo@@@@XZ (public: class QMapIterator<class QString,class instanceInfo> __thiscall QMap<class QString,class instanceInfo>::end(void))
      180    ?end@?$QMap@VQString@@VinstanceInfo@@@@QBE?AV?$QMapConstIterator@VQString@@VinstanceInfo@@@@XZ (public: class QMapConstIterator<class QString,class instanceInfo> __thiscall QMap<class QString,class instanceInfo>::end(void)const )
      181    ?end@?$QMap@VQString@@VparamInfo@@@@QAE?AV?$QMapIterator@VQString@@VparamInfo@@@@XZ (public: class QMapIterator<class QString,class paramInfo> __thiscall QMap<class QString,class paramInfo>::end(void))
      182    ?end@?$QMap@VQString@@VparamInfo@@@@QBE?AV?$QMapConstIterator@VQString@@VparamInfo@@@@XZ (public: class QMapConstIterator<class QString,class paramInfo> __thiscall QMap<class QString,class paramInfo>::end(void)const )
      183    ?end@?$QMap@VQString@@Vstyleentry@@@@QAE?AV?$QMapIterator@VQString@@Vstyleentry@@@@XZ (public: class QMapIterator<class QString,class styleentry> __thiscall QMap<class QString,class styleentry>::end(void))
      184    ?end@?$QMap@VQString@@Vstyleentry@@@@QBE?AV?$QMapConstIterator@VQString@@Vstyleentry@@@@XZ (public: class QMapConstIterator<class QString,class styleentry> __thiscall QMap<class QString,class styleentry>::end(void)const )
      185    ?erase@?$QMap@VQString@@VcomplexInstance@@@@QAEXABVQString@@@Z (public: void __thiscall QMap<class QString,class complexInstance>::erase(class QString const &))
      186    ?erase@?$QMap@VQString@@VcomplexInstance@@@@QAEXV?$QMapIterator@VQString@@VcomplexInstance@@@@@Z (public: void __thiscall QMap<class QString,class complexInstance>::erase(class QMapIterator<class QString,class complexInstance>))
      187    ?erase@?$QMap@VQString@@VcomplexParam@@@@QAEXABVQString@@@Z (public: void __thiscall QMap<class QString,class complexParam>::erase(class QString const &))
      188    ?erase@?$QMap@VQString@@VcomplexParam@@@@QAEXV?$QMapIterator@VQString@@VcomplexParam@@@@@Z (public: void __thiscall QMap<class QString,class complexParam>::erase(class QMapIterator<class QString,class complexParam>))
      189    ?erase@?$QMap@VQString@@VcomplexType@@@@QAEXABVQString@@@Z (public: void __thiscall QMap<class QString,class complexType>::erase(class QString const &))
      190    ?erase@?$QMap@VQString@@VcomplexType@@@@QAEXV?$QMapIterator@VQString@@VcomplexType@@@@@Z (public: void __thiscall QMap<class QString,class complexType>::erase(class QMapIterator<class QString,class complexType>))
      191    ?erase@?$QMap@VQString@@VdeviceTypeInfo@@@@QAEXABVQString@@@Z (public: void __thiscall QMap<class QString,class deviceTypeInfo>::erase(class QString const &))
      192    ?erase@?$QMap@VQString@@VdeviceTypeInfo@@@@QAEXV?$QMapIterator@VQString@@VdeviceTypeInfo@@@@@Z (public: void __thiscall QMap<class QString,class deviceTypeInfo>::erase(class QMapIterator<class QString,class deviceTypeInfo>))
      193    ?erase@?$QMap@VQString@@VinstanceInfo@@@@QAEXABVQString@@@Z (public: void __thiscall QMap<class QString,class instanceInfo>::erase(class QString const &))
      194    ?erase@?$QMap@VQString@@VinstanceInfo@@@@QAEXV?$QMapIterator@VQString@@VinstanceInfo@@@@@Z (public: void __thiscall QMap<class QString,class instanceInfo>::erase(class QMapIterator<class QString,class instanceInfo>))
      195    ?erase@?$QMap@VQString@@VparamInfo@@@@QAEXABVQString@@@Z (public: void __thiscall QMap<class QString,class paramInfo>::erase(class QString const &))
      196    ?erase@?$QMap@VQString@@VparamInfo@@@@QAEXV?$QMapIterator@VQString@@VparamInfo@@@@@Z (public: void __thiscall QMap<class QString,class paramInfo>::erase(class QMapIterator<class QString,class paramInfo>))
      197    ?erase@?$QMap@VQString@@Vstyleentry@@@@QAEXABVQString@@@Z (public: void __thiscall QMap<class QString,class styleentry>::erase(class QString const &))
      198    ?erase@?$QMap@VQString@@Vstyleentry@@@@QAEXV?$QMapIterator@VQString@@Vstyleentry@@@@@Z (public: void __thiscall QMap<class QString,class styleentry>::erase(class QMapIterator<class QString,class styleentry>))
      199    ?find@?$QMap@VQString@@VcomplexInstance@@@@QAE?AV?$QMapIterator@VQString@@VcomplexInstance@@@@ABVQString@@@Z (public: class QMapIterator<class QString,class complexInstance> __thiscall QMap<class QString,class complexInstance>::find(class QString const &))
      200    ?find@?$QMap@VQString@@VcomplexInstance@@@@QBE?AV?$QMapConstIterator@VQString@@VcomplexInstance@@@@ABVQString@@@Z (public: class QMapConstIterator<class QString,class complexInstance> __thiscall QMap<class QString,class complexInstance>::find(class QString const &)const )
      201    ?find@?$QMap@VQString@@VcomplexParam@@@@QAE?AV?$QMapIterator@VQString@@VcomplexParam@@@@ABVQString@@@Z (public: class QMapIterator<class QString,class complexParam> __thiscall QMap<class QString,class complexParam>::find(class QString const &))
      202    ?find@?$QMap@VQString@@VcomplexParam@@@@QBE?AV?$QMapConstIterator@VQString@@VcomplexParam@@@@ABVQString@@@Z (public: class QMapConstIterator<class QString,class complexParam> __thiscall QMap<class QString,class complexParam>::find(class QString const &)const )
      203    ?find@?$QMap@VQString@@VcomplexType@@@@QAE?AV?$QMapIterator@VQString@@VcomplexType@@@@ABVQString@@@Z (public: class QMapIterator<class QString,class complexType> __thiscall QMap<class QString,class complexType>::find(class QString const &))
      204    ?find@?$QMap@VQString@@VcomplexType@@@@QBE?AV?$QMapConstIterator@VQString@@VcomplexType@@@@ABVQString@@@Z (public: class QMapConstIterator<class QString,class complexType> __thiscall QMap<class QString,class complexType>::find(class QString const &)const )
      205    ?find@?$QMap@VQString@@VdeviceTypeInfo@@@@QAE?AV?$QMapIterator@VQString@@VdeviceTypeInfo@@@@ABVQString@@@Z (public: class QMapIterator<class QString,class deviceTypeInfo> __thiscall QMap<class QString,class deviceTypeInfo>::find(class QString const &))
      206    ?find@?$QMap@VQString@@VdeviceTypeInfo@@@@QBE?AV?$QMapConstIterator@VQString@@VdeviceTypeInfo@@@@ABVQString@@@Z (public: class QMapConstIterator<class QString,class deviceTypeInfo> __thiscall QMap<class QString,class deviceTypeInfo>::find(class QString const &)const )
      207    ?find@?$QMap@VQString@@VinstanceInfo@@@@QAE?AV?$QMapIterator@VQString@@VinstanceInfo@@@@ABVQString@@@Z (public: class QMapIterator<class QString,class instanceInfo> __thiscall QMap<class QString,class instanceInfo>::find(class QString const &))
      208    ?find@?$QMap@VQString@@VinstanceInfo@@@@QBE?AV?$QMapConstIterator@VQString@@VinstanceInfo@@@@ABVQString@@@Z (public: class QMapConstIterator<class QString,class instanceInfo> __thiscall QMap<class QString,class instanceInfo>::find(class QString const &)const )
      209    ?find@?$QMap@VQString@@VparamInfo@@@@QAE?AV?$QMapIterator@VQString@@VparamInfo@@@@ABVQString@@@Z (public: class QMapIterator<class QString,class paramInfo> __thiscall QMap<class QString,class paramInfo>::find(class QString const &))
      210    ?find@?$QMap@VQString@@VparamInfo@@@@QBE?AV?$QMapConstIterator@VQString@@VparamInfo@@@@ABVQString@@@Z (public: class QMapConstIterator<class QString,class paramInfo> __thiscall QMap<class QString,class paramInfo>::find(class QString const &)const )
      211    ?find@?$QMap@VQString@@Vstyleentry@@@@QAE?AV?$QMapIterator@VQString@@Vstyleentry@@@@ABVQString@@@Z (public: class QMapIterator<class QString,class styleentry> __thiscall QMap<class QString,class styleentry>::find(class QString const &))
      212    ?find@?$QMap@VQString@@Vstyleentry@@@@QBE?AV?$QMapConstIterator@VQString@@Vstyleentry@@@@ABVQString@@@Z (public: class QMapConstIterator<class QString,class styleentry> __thiscall QMap<class QString,class styleentry>::find(class QString const &)const )
      213    ?get@bncs_stylesheet@@QAEXAAVQString@@PAVQWidget@@@Z (public: void __thiscall bncs_stylesheet::get(class QString &,class QWidget *))
      214    ?getInstanceInfo@bncs_instance_lookup@@SA_NABVQString@@PAPAVinstanceInfo@@@Z (public: static bool __cdecl bncs_instance_lookup::getInstanceInfo(class QString const &,class instanceInfo * *))
      215    ?getStyle@bncs_stylesheet@@SAXAAVQString@@PAVQWidget@@@Z (public: static void __cdecl bncs_stylesheet::getStyle(class QString &,class QWidget *))
      216    ?getStyleEntry@bncs_stylesheet@@QAEPAVstyleentry@@VQString@@@Z (public: class styleentry * __thiscall bncs_stylesheet::getStyleEntry(class QString))
      217    ?insert@?$QMap@VQString@@VcomplexInstance@@@@QAE?AU?$QPair@V?$QMapIterator@VQString@@VcomplexInstance@@@@_N@@ABU?$QPair@$$CBVQString@@VcomplexInstance@@@@@Z (public: struct QPair<class QMapIterator<class QString,class complexInstance>,bool> __thiscall QMap<class QString,class complexInstance>::insert(struct QPair<class QString const ,class complexInstance> const &))
      218    ?insert@?$QMap@VQString@@VcomplexInstance@@@@QAE?AV?$QMapIterator@VQString@@VcomplexInstance@@@@ABVQString@@ABVcomplexInstance@@_N@Z (public: class QMapIterator<class QString,class complexInstance> __thiscall QMap<class QString,class complexInstance>::insert(class QString const &,class complexInstance const &,bool))
      219    ?insert@?$QMap@VQString@@VcomplexParam@@@@QAE?AU?$QPair@V?$QMapIterator@VQString@@VcomplexParam@@@@_N@@ABU?$QPair@$$CBVQString@@VcomplexParam@@@@@Z (public: struct QPair<class QMapIterator<class QString,class complexParam>,bool> __thiscall QMap<class QString,class complexParam>::insert(struct QPair<class QString const ,class complexParam> const &))
      220    ?insert@?$QMap@VQString@@VcomplexParam@@@@QAE?AV?$QMapIterator@VQString@@VcomplexParam@@@@ABVQString@@ABVcomplexParam@@_N@Z (public: class QMapIterator<class QString,class complexParam> __thiscall QMap<class QString,class complexParam>::insert(class QString const &,class complexParam const &,bool))
      221    ?insert@?$QMap@VQString@@VcomplexType@@@@QAE?AU?$QPair@V?$QMapIterator@VQString@@VcomplexType@@@@_N@@ABU?$QPair@$$CBVQString@@VcomplexType@@@@@Z (public: struct QPair<class QMapIterator<class QString,class complexType>,bool> __thiscall QMap<class QString,class complexType>::insert(struct QPair<class QString const ,class complexType> const &))
      222    ?insert@?$QMap@VQString@@VcomplexType@@@@QAE?AV?$QMapIterator@VQString@@VcomplexType@@@@ABVQString@@ABVcomplexType@@_N@Z (public: class QMapIterator<class QString,class complexType> __thiscall QMap<class QString,class complexType>::insert(class QString const &,class complexType const &,bool))
      223    ?insert@?$QMap@VQString@@VdeviceTypeInfo@@@@QAE?AU?$QPair@V?$QMapIterator@VQString@@VdeviceTypeInfo@@@@_N@@ABU?$QPair@$$CBVQString@@VdeviceTypeInfo@@@@@Z (public: struct QPair<class QMapIterator<class QString,class deviceTypeInfo>,bool> __thiscall QMap<class QString,class deviceTypeInfo>::insert(struct QPair<class QString const ,class deviceTypeInfo> const &))
      224    ?insert@?$QMap@VQString@@VdeviceTypeInfo@@@@QAE?AV?$QMapIterator@VQString@@VdeviceTypeInfo@@@@ABVQString@@ABVdeviceTypeInfo@@_N@Z (public: class QMapIterator<class QString,class deviceTypeInfo> __thiscall QMap<class QString,class deviceTypeInfo>::insert(class QString const &,class deviceTypeInfo const &,bool))
      225    ?insert@?$QMap@VQString@@VinstanceInfo@@@@QAE?AU?$QPair@V?$QMapIterator@VQString@@VinstanceInfo@@@@_N@@ABU?$QPair@$$CBVQString@@VinstanceInfo@@@@@Z (public: struct QPair<class QMapIterator<class QString,class instanceInfo>,bool> __thiscall QMap<class QString,class instanceInfo>::insert(struct QPair<class QString const ,class instanceInfo> const &))
      226    ?insert@?$QMap@VQString@@VinstanceInfo@@@@QAE?AV?$QMapIterator@VQString@@VinstanceInfo@@@@ABVQString@@ABVinstanceInfo@@_N@Z (public: class QMapIterator<class QString,class instanceInfo> __thiscall QMap<class QString,class instanceInfo>::insert(class QString const &,class instanceInfo const &,bool))
      227    ?insert@?$QMap@VQString@@VparamInfo@@@@QAE?AU?$QPair@V?$QMapIterator@VQString@@VparamInfo@@@@_N@@ABU?$QPair@$$CBVQString@@VparamInfo@@@@@Z (public: struct QPair<class QMapIterator<class QString,class paramInfo>,bool> __thiscall QMap<class QString,class paramInfo>::insert(struct QPair<class QString const ,class paramInfo> const &))
      228    ?insert@?$QMap@VQString@@VparamInfo@@@@QAE?AV?$QMapIterator@VQString@@VparamInfo@@@@ABVQString@@ABVparamInfo@@_N@Z (public: class QMapIterator<class QString,class paramInfo> __thiscall QMap<class QString,class paramInfo>::insert(class QString const &,class paramInfo const &,bool))
      229    ?insert@?$QMap@VQString@@Vstyleentry@@@@QAE?AU?$QPair@V?$QMapIterator@VQString@@Vstyleentry@@@@_N@@ABU?$QPair@$$CBVQString@@Vstyleentry@@@@@Z (public: struct QPair<class QMapIterator<class QString,class styleentry>,bool> __thiscall QMap<class QString,class styleentry>::insert(struct QPair<class QString const ,class styleentry> const &))
      230    ?insert@?$QMap@VQString@@Vstyleentry@@@@QAE?AV?$QMapIterator@VQString@@Vstyleentry@@@@ABVQString@@ABVstyleentry@@_N@Z (public: class QMapIterator<class QString,class styleentry> __thiscall QMap<class QString,class styleentry>::insert(class QString const &,class styleentry const &,bool))
      231    ?instances@bncs_instance_lookup@@2V?$QMap@VQString@@VinstanceInfo@@@@A (public: static class QMap<class QString,class instanceInfo> bncs_instance_lookup::instances)
      232    ?isEmpty@?$QMap@VQString@@VcomplexInstance@@@@QBE_NXZ (public: bool __thiscall QMap<class QString,class complexInstance>::isEmpty(void)const )
      233    ?isEmpty@?$QMap@VQString@@VcomplexParam@@@@QBE_NXZ (public: bool __thiscall QMap<class QString,class complexParam>::isEmpty(void)const )
      234    ?isEmpty@?$QMap@VQString@@VcomplexType@@@@QBE_NXZ (public: bool __thiscall QMap<class QString,class complexType>::isEmpty(void)const )
      235    ?isEmpty@?$QMap@VQString@@VdeviceTypeInfo@@@@QBE_NXZ (public: bool __thiscall QMap<class QString,class deviceTypeInfo>::isEmpty(void)const )
      236    ?isEmpty@?$QMap@VQString@@VinstanceInfo@@@@QBE_NXZ (public: bool __thiscall QMap<class QString,class instanceInfo>::isEmpty(void)const )
      237    ?isEmpty@?$QMap@VQString@@VparamInfo@@@@QBE_NXZ (public: bool __thiscall QMap<class QString,class paramInfo>::isEmpty(void)const )
      238    ?isEmpty@?$QMap@VQString@@Vstyleentry@@@@QBE_NXZ (public: bool __thiscall QMap<class QString,class styleentry>::isEmpty(void)const )
      239    ?keys@?$QMap@VQString@@VcomplexInstance@@@@QBE?AV?$QValueList@VQString@@@@XZ (public: class QValueList<class QString> __thiscall QMap<class QString,class complexInstance>::keys(void)const )
      240    ?keys@?$QMap@VQString@@VcomplexParam@@@@QBE?AV?$QValueList@VQString@@@@XZ (public: class QValueList<class QString> __thiscall QMap<class QString,class complexParam>::keys(void)const )
      241    ?keys@?$QMap@VQString@@VcomplexType@@@@QBE?AV?$QValueList@VQString@@@@XZ (public: class QValueList<class QString> __thiscall QMap<class QString,class complexType>::keys(void)const )
      242    ?keys@?$QMap@VQString@@VdeviceTypeInfo@@@@QBE?AV?$QValueList@VQString@@@@XZ (public: class QValueList<class QString> __thiscall QMap<class QString,class deviceTypeInfo>::keys(void)const )
      243    ?keys@?$QMap@VQString@@VinstanceInfo@@@@QBE?AV?$QValueList@VQString@@@@XZ (public: class QValueList<class QString> __thiscall QMap<class QString,class instanceInfo>::keys(void)const )
      244    ?keys@?$QMap@VQString@@VparamInfo@@@@QBE?AV?$QValueList@VQString@@@@XZ (public: class QValueList<class QString> __thiscall QMap<class QString,class paramInfo>::keys(void)const )
      245    ?keys@?$QMap@VQString@@Vstyleentry@@@@QBE?AV?$QValueList@VQString@@@@XZ (public: class QValueList<class QString> __thiscall QMap<class QString,class styleentry>::keys(void)const )
      246    ?load@bncs_stylesheet@@SA_NXZ (public: static bool __cdecl bncs_stylesheet::load(void))
      247    ?loadComplexType@bncs_instance_lookup@@SA_NABVQString@@AAVcomplexType@@@Z (public: static bool __cdecl bncs_instance_lookup::loadComplexType(class QString const &,class complexType &))
      248    ?loadComplexTypes@bncs_instance_lookup@@SA_NXZ (public: static bool __cdecl bncs_instance_lookup::loadComplexTypes(void))
      249    ?loadDeviceParams@bncs_instance_lookup@@SA_NABVQString@@AAVdeviceTypeInfo@@@Z (public: static bool __cdecl bncs_instance_lookup::loadDeviceParams(class QString const &,class deviceTypeInfo &))
      250    ?loadDeviceTypes@bncs_instance_lookup@@SA_NXZ (public: static bool __cdecl bncs_instance_lookup::loadDeviceTypes(void))
      251    ?loadInstances@bncs_instance_lookup@@SA_NXZ (public: static bool __cdecl bncs_instance_lookup::loadInstances(void))
      252    ?lookup@bncs_instance_lookup@@SA_NABVQString@@0AAV2@PAH22PAD@Z (public: static bool __cdecl bncs_instance_lookup::lookup(class QString const &,class QString const &,class QString &,int *,int *,int *,char *))
      253    ?lookup@bncs_instance_lookup@@SA_NABVQString@@AAV2@111AA_N@Z (public: static bool __cdecl bncs_instance_lookup::lookup(class QString const &,class QString &,class QString &,class QString &,class QString &,bool &))
      254    ?lookup@bncs_instance_lookup@@SA_NABVQString@@AAV2@PAH2PAD@Z (public: static bool __cdecl bncs_instance_lookup::lookup(class QString const &,class QString &,int *,int *,char *))
      255    ?lookupComplex@bncs_instance_lookup@@SA_NABVQString@@00AAV2@PAH22PAD@Z (public: static bool __cdecl bncs_instance_lookup::lookupComplex(class QString const &,class QString const &,class QString const &,class QString &,int *,int *,int *,char *))
      256    ?lookupComposite@bncs_instance_lookup@@SA_NABVQString@@0AAV2@@Z (public: static bool __cdecl bncs_instance_lookup::lookupComposite(class QString const &,class QString const &,class QString &))
      257    ?lookupComposite@bncs_instance_lookup@@SA_NABVQString@@AA_NAAV?$QMap@VQString@@V1@@@@Z (public: static bool __cdecl bncs_instance_lookup::lookupComposite(class QString const &,bool &,class QMap<class QString,class QString> &))
      258    ?lookupInstanceOfType@bncs_instance_lookup@@SA_NABVQString@@AAVQStringList@@@Z (public: static bool __cdecl bncs_instance_lookup::lookupInstanceOfType(class QString const &,class QStringList &))
      259    ?lookupType@bncs_instance_lookup@@SA_NABVQString@@AAV2@@Z (public: static bool __cdecl bncs_instance_lookup::lookupType(class QString const &,class QString &))
      260    ?m_sFilename@bncs_stylesheet@@0VQString@@A (private: static class QString bncs_stylesheet::m_sFilename)
      261    ?m_sLastModified@bncs_stylesheet@@0VQDateTime@@A (private: static class QDateTime bncs_stylesheet::m_sLastModified)
      262    ?reLoad@bncs_stylesheet@@SA_NXZ (public: static bool __cdecl bncs_stylesheet::reLoad(void))
      263    ?remove@?$QMap@VQString@@VcomplexInstance@@@@QAEXABVQString@@@Z (public: void __thiscall QMap<class QString,class complexInstance>::remove(class QString const &))
      264    ?remove@?$QMap@VQString@@VcomplexInstance@@@@QAEXV?$QMapIterator@VQString@@VcomplexInstance@@@@@Z (public: void __thiscall QMap<class QString,class complexInstance>::remove(class QMapIterator<class QString,class complexInstance>))
      265    ?remove@?$QMap@VQString@@VcomplexParam@@@@QAEXABVQString@@@Z (public: void __thiscall QMap<class QString,class complexParam>::remove(class QString const &))
      266    ?remove@?$QMap@VQString@@VcomplexParam@@@@QAEXV?$QMapIterator@VQString@@VcomplexParam@@@@@Z (public: void __thiscall QMap<class QString,class complexParam>::remove(class QMapIterator<class QString,class complexParam>))
      267    ?remove@?$QMap@VQString@@VcomplexType@@@@QAEXABVQString@@@Z (public: void __thiscall QMap<class QString,class complexType>::remove(class QString const &))
      268    ?remove@?$QMap@VQString@@VcomplexType@@@@QAEXV?$QMapIterator@VQString@@VcomplexType@@@@@Z (public: void __thiscall QMap<class QString,class complexType>::remove(class QMapIterator<class QString,class complexType>))
      269    ?remove@?$QMap@VQString@@VdeviceTypeInfo@@@@QAEXABVQString@@@Z (public: void __thiscall QMap<class QString,class deviceTypeInfo>::remove(class QString const &))
      270    ?remove@?$QMap@VQString@@VdeviceTypeInfo@@@@QAEXV?$QMapIterator@VQString@@VdeviceTypeInfo@@@@@Z (public: void __thiscall QMap<class QString,class deviceTypeInfo>::remove(class QMapIterator<class QString,class deviceTypeInfo>))
      271    ?remove@?$QMap@VQString@@VinstanceInfo@@@@QAEXABVQString@@@Z (public: void __thiscall QMap<class QString,class instanceInfo>::remove(class QString const &))
      272    ?remove@?$QMap@VQString@@VinstanceInfo@@@@QAEXV?$QMapIterator@VQString@@VinstanceInfo@@@@@Z (public: void __thiscall QMap<class QString,class instanceInfo>::remove(class QMapIterator<class QString,class instanceInfo>))
      273    ?remove@?$QMap@VQString@@VparamInfo@@@@QAEXABVQString@@@Z (public: void __thiscall QMap<class QString,class paramInfo>::remove(class QString const &))
      274    ?remove@?$QMap@VQString@@VparamInfo@@@@QAEXV?$QMapIterator@VQString@@VparamInfo@@@@@Z (public: void __thiscall QMap<class QString,class paramInfo>::remove(class QMapIterator<class QString,class paramInfo>))
      275    ?remove@?$QMap@VQString@@Vstyleentry@@@@QAEXABVQString@@@Z (public: void __thiscall QMap<class QString,class styleentry>::remove(class QString const &))
      276    ?remove@?$QMap@VQString@@Vstyleentry@@@@QAEXV?$QMapIterator@VQString@@Vstyleentry@@@@@Z (public: void __thiscall QMap<class QString,class styleentry>::remove(class QMapIterator<class QString,class styleentry>))
      277    ?replace@?$QMap@VQString@@VcomplexInstance@@@@QAE?AV?$QMapIterator@VQString@@VcomplexInstance@@@@ABVQString@@ABVcomplexInstance@@@Z (public: class QMapIterator<class QString,class complexInstance> __thiscall QMap<class QString,class complexInstance>::replace(class QString const &,class complexInstance const &))
      278    ?replace@?$QMap@VQString@@VcomplexParam@@@@QAE?AV?$QMapIterator@VQString@@VcomplexParam@@@@ABVQString@@ABVcomplexParam@@@Z (public: class QMapIterator<class QString,class complexParam> __thiscall QMap<class QString,class complexParam>::replace(class QString const &,class complexParam const &))
      279    ?replace@?$QMap@VQString@@VcomplexType@@@@QAE?AV?$QMapIterator@VQString@@VcomplexType@@@@ABVQString@@ABVcomplexType@@@Z (public: class QMapIterator<class QString,class complexType> __thiscall QMap<class QString,class complexType>::replace(class QString const &,class complexType const &))
      280    ?replace@?$QMap@VQString@@VdeviceTypeInfo@@@@QAE?AV?$QMapIterator@VQString@@VdeviceTypeInfo@@@@ABVQString@@ABVdeviceTypeInfo@@@Z (public: class QMapIterator<class QString,class deviceTypeInfo> __thiscall QMap<class QString,class deviceTypeInfo>::replace(class QString const &,class deviceTypeInfo const &))
      281    ?replace@?$QMap@VQString@@VinstanceInfo@@@@QAE?AV?$QMapIterator@VQString@@VinstanceInfo@@@@ABVQString@@ABVinstanceInfo@@@Z (public: class QMapIterator<class QString,class instanceInfo> __thiscall QMap<class QString,class instanceInfo>::replace(class QString const &,class instanceInfo const &))
      282    ?replace@?$QMap@VQString@@VparamInfo@@@@QAE?AV?$QMapIterator@VQString@@VparamInfo@@@@ABVQString@@ABVparamInfo@@@Z (public: class QMapIterator<class QString,class paramInfo> __thiscall QMap<class QString,class paramInfo>::replace(class QString const &,class paramInfo const &))
      283    ?replace@?$QMap@VQString@@Vstyleentry@@@@QAE?AV?$QMapIterator@VQString@@Vstyleentry@@@@ABVQString@@ABVstyleentry@@@Z (public: class QMapIterator<class QString,class styleentry> __thiscall QMap<class QString,class styleentry>::replace(class QString const &,class styleentry const &))
      284    ?save@bncs_stylesheet@@QAE_NXZ (public: bool __thiscall bncs_stylesheet::save(void))
      285    ?set@bncs_stylesheet@@QAEXAAVQString@@AAVstyleentry@@@Z (public: void __thiscall bncs_stylesheet::set(class QString &,class styleentry &))
      286    ?settingslist@bncs_stylesheet@@QAE?BVQStringList@@AAVQString@@@Z (public: class QStringList const __thiscall bncs_stylesheet::settingslist(class QString &))
      287    ?size@?$QMap@VQString@@VcomplexInstance@@@@QBEIXZ (public: unsigned int __thiscall QMap<class QString,class complexInstance>::size(void)const )
      288    ?size@?$QMap@VQString@@VcomplexParam@@@@QBEIXZ (public: unsigned int __thiscall QMap<class QString,class complexParam>::size(void)const )
      289    ?size@?$QMap@VQString@@VcomplexType@@@@QBEIXZ (public: unsigned int __thiscall QMap<class QString,class complexType>::size(void)const )
      290    ?size@?$QMap@VQString@@VdeviceTypeInfo@@@@QBEIXZ (public: unsigned int __thiscall QMap<class QString,class deviceTypeInfo>::size(void)const )
      291    ?size@?$QMap@VQString@@VinstanceInfo@@@@QBEIXZ (public: unsigned int __thiscall QMap<class QString,class instanceInfo>::size(void)const )
      292    ?size@?$QMap@VQString@@VparamInfo@@@@QBEIXZ (public: unsigned int __thiscall QMap<class QString,class paramInfo>::size(void)const )
      293    ?size@?$QMap@VQString@@Vstyleentry@@@@QBEIXZ (public: unsigned int __thiscall QMap<class QString,class styleentry>::size(void)const )
      294    ?styleExist@bncs_stylesheet@@QAE_NVQString@@@Z (public: bool __thiscall bncs_stylesheet::styleExist(class QString))
      295    ?stylelist@bncs_stylesheet@@QAE?BV?$QMap@VQString@@Vstyleentry@@@@XZ (public: class QMap<class QString,class styleentry> const __thiscall bncs_stylesheet::stylelist(void))
      296    ?styles@bncs_stylesheet@@0V?$QMap@VQString@@Vstyleentry@@@@A (private: static class QMap<class QString,class styleentry> bncs_stylesheet::styles)
      297    ?values@?$QMap@VQString@@VcomplexInstance@@@@QBE?AV?$QValueList@VcomplexInstance@@@@XZ (public: class QValueList<class complexInstance> __thiscall QMap<class QString,class complexInstance>::values(void)const )
      298    ?values@?$QMap@VQString@@VcomplexParam@@@@QBE?AV?$QValueList@VcomplexParam@@@@XZ (public: class QValueList<class complexParam> __thiscall QMap<class QString,class complexParam>::values(void)const )
      299    ?values@?$QMap@VQString@@VcomplexType@@@@QBE?AV?$QValueList@VcomplexType@@@@XZ (public: class QValueList<class complexType> __thiscall QMap<class QString,class complexType>::values(void)const )
      300    ?values@?$QMap@VQString@@VdeviceTypeInfo@@@@QBE?AV?$QValueList@VdeviceTypeInfo@@@@XZ (public: class QValueList<class deviceTypeInfo> __thiscall QMap<class QString,class deviceTypeInfo>::values(void)const )
      301    ?values@?$QMap@VQString@@VinstanceInfo@@@@QBE?AV?$QValueList@VinstanceInfo@@@@XZ (public: class QValueList<class instanceInfo> __thiscall QMap<class QString,class instanceInfo>::values(void)const )
      302    ?values@?$QMap@VQString@@VparamInfo@@@@QBE?AV?$QValueList@VparamInfo@@@@XZ (public: class QValueList<class paramInfo> __thiscall QMap<class QString,class paramInfo>::values(void)const )
      303    ?values@?$QMap@VQString@@Vstyleentry@@@@QBE?AV?$QValueList@Vstyleentry@@@@XZ (public: class QValueList<class styleentry> __thiscall QMap<class QString,class styleentry>::values(void)const )
