 bncs_cachedData

 Timestamp is 5e9db7c0 (Mon Apr 20 15:54:56 2020)

 Preferred load address is 10000000

 Start         Length     Name                   Class
 0001:00000000 00000217H .text$di                CODE
 0001:00000220 0000ee5aH .text$mn                CODE
 0001:0000f080 0000210bH .text$x                 CODE
 0001:00011190 00000106H .text$yd                CODE
 0002:00000000 00000214H .idata$5                DATA
 0002:00000214 00000004H .CRT$XCA                DATA
 0002:00000218 00000020H .CRT$XCU                DATA
 0002:00000238 00000004H .CRT$XCZ                DATA
 0002:0000023c 00000004H .CRT$XIA                DATA
 0002:00000240 00000004H .CRT$XIAA               DATA
 0002:00000244 00000004H .CRT$XIC                DATA
 0002:00000248 00000004H .CRT$XIZ                DATA
 0002:00000250 000009a0H .rdata                  DATA
 0002:00000bf0 000007d0H .rdata$r                DATA
 0002:000013c0 00000004H .rtc$IAA                DATA
 0002:000013c4 00000004H .rtc$IZZ                DATA
 0002:000013c8 00000004H .rtc$TAA                DATA
 0002:000013cc 00000004H .rtc$TZZ                DATA
 0002:000013d0 00001e9cH .xdata$x                DATA
 0002:00003270 00005b69H .edata                  DATA
 0002:00008ddc 00000064H .idata$2                DATA
 0002:00008e40 00000014H .idata$3                DATA
 0002:00008e54 00000214H .idata$4                DATA
 0002:00009068 00001018H .idata$6                DATA
 0003:00000000 00000024H .data                   DATA
 0003:00000024 00000464H .data$r                 DATA
 0003:00000488 0000036cH .bss                    DATA
 0004:00000000 000000a0H .rsrc$01                DATA
 0004:000000a0 00000588H .rsrc$02                DATA

  Address         Publics by Value              Rva+Base       Lib:Object

 0000:00000000       ___safe_se_handler_count   00000000     <absolute>
 0000:00000000       ___guard_fids_table        00000000     <absolute>
 0000:00000000       ___safe_se_handler_table   00000000     <absolute>
 0000:00000000       ___guard_flags             00000000     <absolute>
 0000:00000000       __except_list              00000000     <absolute>
 0000:00000000       ___guard_fids_count        00000000     <absolute>
 0000:00009876       __ldused                   00009876     <absolute>
 0000:00009876       __fltused                  00009876     <absolute>
 0000:00000000       ___ImageBase               10000000     <linker-defined>
 0001:00000220       ??0?$QMap@VQString@@VcomplexParam@@@@QAE@ABV0@@Z 10001220 f i bncs_instance_lookup.obj
 0001:00000220       ??0?$QMap@VQString@@VparamInfo@@@@QAE@ABV0@@Z 10001220 f i bncs_instance_lookup.obj
 0001:00000220       ??0?$QMap@VQString@@Vstyleentry@@@@QAE@ABV0@@Z 10001220 f i bncs_stylesheet.obj
 0001:00000220       ??0?$QMap@VQString@@VcomplexInstance@@@@QAE@ABV0@@Z 10001220 f i bncs_instance_lookup.obj
 0001:00000220       ??0?$QMap@VQString@@VinstanceInfo@@@@QAE@ABV0@@Z 10001220 f i bncs_instance_lookup.obj
 0001:00000220       ??0?$QMap@VQString@@VcomplexType@@@@QAE@ABV0@@Z 10001220 f i bncs_instance_lookup.obj
 0001:00000220       ??0?$QMap@VQString@@VdeviceTypeInfo@@@@QAE@ABV0@@Z 10001220 f i bncs_instance_lookup.obj
 0001:00000240       ??0?$QMap@VQString@@VcomplexInstance@@@@QAE@XZ 10001240 f i bncs_instance_lookup.obj
 0001:000002c0       ??0?$QMap@VQString@@VcomplexParam@@@@QAE@XZ 100012c0 f i bncs_instance_lookup.obj
 0001:00000340       ??0?$QMap@VQString@@VcomplexType@@@@QAE@XZ 10001340 f i bncs_instance_lookup.obj
 0001:000003c0       ??0?$QMap@VQString@@VdeviceTypeInfo@@@@QAE@XZ 100013c0 f i bncs_instance_lookup.obj
 0001:00000440       ??0?$QMap@VQString@@VinstanceInfo@@@@QAE@XZ 10001440 f i bncs_instance_lookup.obj
 0001:000004c0       ??0?$QMap@VQString@@VparamInfo@@@@QAE@XZ 100014c0 f i bncs_instance_lookup.obj
 0001:00000540       ??0?$QMapNode@VQString@@VcomplexInstance@@@@QAE@ABU0@@Z 10001540 f i bncs_instance_lookup.obj
 0001:000005e0       ??0?$QMapNode@VQString@@VcomplexParam@@@@QAE@ABU0@@Z 100015e0 f i bncs_instance_lookup.obj
 0001:00000670       ??0?$QMapNode@VQString@@VcomplexType@@@@QAE@ABU0@@Z 10001670 f i bncs_instance_lookup.obj
 0001:00000710       ??0?$QMapNode@VQString@@VdeviceTypeInfo@@@@QAE@ABU0@@Z 10001710 f i bncs_instance_lookup.obj
 0001:000007c0       ??0?$QMapNode@VQString@@VinstanceInfo@@@@QAE@ABU0@@Z 100017c0 f i bncs_instance_lookup.obj
 0001:00000880       ??0?$QMapPrivate@VQString@@VcomplexInstance@@@@QAE@PBV0@@Z 10001880 f i bncs_instance_lookup.obj
 0001:00000980       ??0?$QMapPrivate@VQString@@VcomplexInstance@@@@QAE@XZ 10001980 f i bncs_instance_lookup.obj
 0001:00000a20       ??0?$QMapPrivate@VQString@@VcomplexParam@@@@QAE@PBV0@@Z 10001a20 f i bncs_instance_lookup.obj
 0001:00000b20       ??0?$QMapPrivate@VQString@@VcomplexParam@@@@QAE@XZ 10001b20 f i bncs_instance_lookup.obj
 0001:00000bc0       ??0?$QMapPrivate@VQString@@VcomplexType@@@@QAE@PBV0@@Z 10001bc0 f i bncs_instance_lookup.obj
 0001:00000cc0       ??0?$QMapPrivate@VQString@@VcomplexType@@@@QAE@XZ 10001cc0 f i bncs_instance_lookup.obj
 0001:00000d60       ??0?$QMapPrivate@VQString@@VdeviceTypeInfo@@@@QAE@PBV0@@Z 10001d60 f i bncs_instance_lookup.obj
 0001:00000e60       ??0?$QMapPrivate@VQString@@VdeviceTypeInfo@@@@QAE@XZ 10001e60 f i bncs_instance_lookup.obj
 0001:00000f00       ??0?$QMapPrivate@VQString@@VinstanceInfo@@@@QAE@PBV0@@Z 10001f00 f i bncs_instance_lookup.obj
 0001:00001000       ??0?$QMapPrivate@VQString@@VinstanceInfo@@@@QAE@XZ 10002000 f i bncs_instance_lookup.obj
 0001:000010a0       ??0?$QMapPrivate@VQString@@VparamInfo@@@@QAE@PBV0@@Z 100020a0 f i bncs_instance_lookup.obj
 0001:000011a0       ??0?$QMapPrivate@VQString@@VparamInfo@@@@QAE@XZ 100021a0 f i bncs_instance_lookup.obj
 0001:00001240       ??0?$QValueListPrivate@VcomplexInstance@@@@QAE@ABV0@@Z 10002240 f i bncs_instance_lookup.obj
 0001:00001310       ??0?$QValueListPrivate@VcomplexInstance@@@@QAE@XZ 10002310 f i bncs_instance_lookup.obj
 0001:000013a0       ??0?$QValueListPrivate@VcomplexParam@@@@QAE@ABV0@@Z 100023a0 f i bncs_instance_lookup.obj
 0001:00001470       ??0?$QValueListPrivate@VcomplexParam@@@@QAE@XZ 10002470 f i bncs_instance_lookup.obj
 0001:00001500       ??0?$QValueListPrivate@VcomplexType@@@@QAE@ABV0@@Z 10002500 f i bncs_instance_lookup.obj
 0001:000015d0       ??0?$QValueListPrivate@VcomplexType@@@@QAE@XZ 100025d0 f i bncs_instance_lookup.obj
 0001:00001660       ??0?$QValueListPrivate@VdeviceTypeInfo@@@@QAE@ABV0@@Z 10002660 f i bncs_instance_lookup.obj
 0001:00001730       ??0?$QValueListPrivate@VdeviceTypeInfo@@@@QAE@XZ 10002730 f i bncs_instance_lookup.obj
 0001:000017c0       ??0?$QValueListPrivate@VinstanceInfo@@@@QAE@ABV0@@Z 100027c0 f i bncs_instance_lookup.obj
 0001:00001890       ??0?$QValueListPrivate@VinstanceInfo@@@@QAE@XZ 10002890 f i bncs_instance_lookup.obj
 0001:00001920       ??0?$QValueListPrivate@VparamInfo@@@@QAE@ABV0@@Z 10002920 f i bncs_instance_lookup.obj
 0001:000019f0       ??0?$QValueListPrivate@VparamInfo@@@@QAE@XZ 100029f0 f i bncs_instance_lookup.obj
 0001:00001a80       ??0bncs_instance_lookup@@QAE@ABV0@@Z 10002a80 f i bncs_instance_lookup.obj
 0001:00001a90       ??0bncs_instance_lookup@@QAE@XZ 10002a90 f   bncs_instance_lookup.obj
 0001:00001aa0       ??0complexInstance@@QAE@ABV0@@Z 10002aa0 f i bncs_instance_lookup.obj
 0001:00001ac0       ??0complexParam@@QAE@ABV0@@Z 10002ac0 f i bncs_instance_lookup.obj
 0001:00001b30       ??0complexType@@QAE@ABV0@@Z 10002b30 f i bncs_instance_lookup.obj
 0001:00001b50       ??0deviceTypeInfo@@QAE@ABV0@@Z 10002b50 f i bncs_instance_lookup.obj
 0001:00001b80       ??0instanceInfo@@QAE@ABV0@@Z 10002b80 f i bncs_instance_lookup.obj
 0001:00001c20       ??0paramInfo@@QAE@ABV0@@Z  10002c20 f i bncs_instance_lookup.obj
 0001:00001c40       ??1?$QMap@VQString@@VcomplexInstance@@@@QAE@XZ 10002c40 f i bncs_instance_lookup.obj
 0001:00001c60       ??1?$QMap@VQString@@VcomplexParam@@@@QAE@XZ 10002c60 f i bncs_instance_lookup.obj
 0001:00001c80       ??1?$QMap@VQString@@VcomplexType@@@@QAE@XZ 10002c80 f i bncs_instance_lookup.obj
 0001:00001ca0       ??1?$QMap@VQString@@VdeviceTypeInfo@@@@QAE@XZ 10002ca0 f i bncs_instance_lookup.obj
 0001:00001cc0       ??1?$QMap@VQString@@VinstanceInfo@@@@QAE@XZ 10002cc0 f i bncs_instance_lookup.obj
 0001:00001ce0       ??1?$QMap@VQString@@VparamInfo@@@@QAE@XZ 10002ce0 f i bncs_instance_lookup.obj
 0001:00001d00       ??1?$QMapPrivate@VQString@@VcomplexInstance@@@@QAE@XZ 10002d00 f i bncs_instance_lookup.obj
 0001:00001da0       ??1?$QMapPrivate@VQString@@VcomplexParam@@@@QAE@XZ 10002da0 f i bncs_instance_lookup.obj
 0001:00001e40       ??1?$QMapPrivate@VQString@@VcomplexType@@@@QAE@XZ 10002e40 f i bncs_instance_lookup.obj
 0001:00001ee0       ??1?$QMapPrivate@VQString@@VdeviceTypeInfo@@@@QAE@XZ 10002ee0 f i bncs_instance_lookup.obj
 0001:00001f80       ??1?$QMapPrivate@VQString@@VinstanceInfo@@@@QAE@XZ 10002f80 f i bncs_instance_lookup.obj
 0001:00002020       ??1?$QMapPrivate@VQString@@VparamInfo@@@@QAE@XZ 10003020 f i bncs_instance_lookup.obj
 0001:000020c0       ??1?$QValueList@Vstyleentry@@@@QAE@XZ 100030c0 f i bncs_stylesheet.obj
 0001:000020c0       ??1?$QValueList@VdeviceTypeInfo@@@@QAE@XZ 100030c0 f i bncs_instance_lookup.obj
 0001:000020c0       ??1?$QValueList@VcomplexInstance@@@@QAE@XZ 100030c0 f i bncs_instance_lookup.obj
 0001:000020c0       ??1?$QValueList@VcomplexParam@@@@QAE@XZ 100030c0 f i bncs_instance_lookup.obj
 0001:000020c0       ??1?$QValueList@VcomplexType@@@@QAE@XZ 100030c0 f i bncs_instance_lookup.obj
 0001:000020c0       ??1?$QValueList@VparamInfo@@@@QAE@XZ 100030c0 f i bncs_instance_lookup.obj
 0001:000020c0       ??1?$QValueList@VinstanceInfo@@@@QAE@XZ 100030c0 f i bncs_instance_lookup.obj
 0001:000020e0       ??1bncs_instance_lookup@@UAE@XZ 100030e0 f   bncs_instance_lookup.obj
 0001:000020f0       ??4?$QMap@VQString@@VcomplexInstance@@@@QAEAAV0@ABV0@@Z 100030f0 f i bncs_instance_lookup.obj
 0001:00002130       ??4?$QMap@VQString@@VcomplexParam@@@@QAEAAV0@ABV0@@Z 10003130 f i bncs_instance_lookup.obj
 0001:00002170       ??4?$QMap@VQString@@VcomplexType@@@@QAEAAV0@ABV0@@Z 10003170 f i bncs_instance_lookup.obj
 0001:000021b0       ??4?$QMap@VQString@@VdeviceTypeInfo@@@@QAEAAV0@ABV0@@Z 100031b0 f i bncs_instance_lookup.obj
 0001:000021f0       ??4?$QMap@VQString@@VinstanceInfo@@@@QAEAAV0@ABV0@@Z 100031f0 f i bncs_instance_lookup.obj
 0001:00002230       ??4?$QMap@VQString@@VparamInfo@@@@QAEAAV0@ABV0@@Z 10003230 f i bncs_instance_lookup.obj
 0001:00002270       ??4bncs_stylesheet@@QAEAAV0@ABV0@@Z 10003270 f i bncs_stylesheet.obj
 0001:00002270       ??4bncs_instance_lookup@@QAEAAV0@ABV0@@Z 10003270 f i bncs_instance_lookup.obj
 0001:00002280       ??4complexInstance@@QAEAAV0@ABV0@@Z 10003280 f i bncs_instance_lookup.obj
 0001:000022c0       ??4complexParam@@QAEAAV0@ABV0@@Z 100032c0 f i bncs_instance_lookup.obj
 0001:000022f0       ??4complexType@@QAEAAV0@ABV0@@Z 100032f0 f i bncs_instance_lookup.obj
 0001:00002330       ??4deviceTypeInfo@@QAEAAV0@ABV0@@Z 10003330 f i bncs_instance_lookup.obj
 0001:00002380       ??4instanceInfo@@QAEAAV0@ABV0@@Z 10003380 f i bncs_instance_lookup.obj
 0001:000023e0       ??4paramInfo@@QAEAAV0@ABV0@@Z 100033e0 f i bncs_instance_lookup.obj
 0001:00002400       ??A?$QMap@VQString@@VcomplexInstance@@@@QAEAAVcomplexInstance@@ABVQString@@@Z 10003400 f i bncs_instance_lookup.obj
 0001:000024e0       ??A?$QMap@VQString@@VcomplexParam@@@@QAEAAVcomplexParam@@ABVQString@@@Z 100034e0 f i bncs_instance_lookup.obj
 0001:000025c0       ??A?$QMap@VQString@@VcomplexParam@@@@QBEABVcomplexParam@@ABVQString@@@Z 100035c0 f i bncs_instance_lookup.obj
 0001:000025e0       ??A?$QMap@VQString@@VcomplexType@@@@QAEAAVcomplexType@@ABVQString@@@Z 100035e0 f i bncs_instance_lookup.obj
 0001:000026c0       ??A?$QMap@VQString@@VcomplexInstance@@@@QBEABVcomplexInstance@@ABVQString@@@Z 100036c0 f i bncs_instance_lookup.obj
 0001:000026c0       ??A?$QMap@VQString@@VparamInfo@@@@QBEABVparamInfo@@ABVQString@@@Z 100036c0 f i bncs_instance_lookup.obj
 0001:000026c0       ??A?$QMap@VQString@@VcomplexType@@@@QBEABVcomplexType@@ABVQString@@@Z 100036c0 f i bncs_instance_lookup.obj
 0001:000026e0       ??A?$QMap@VQString@@VdeviceTypeInfo@@@@QAEAAVdeviceTypeInfo@@ABVQString@@@Z 100036e0 f i bncs_instance_lookup.obj
 0001:000027c0       ??A?$QMap@VQString@@Vstyleentry@@@@QBEABVstyleentry@@ABVQString@@@Z 100037c0 f i bncs_stylesheet.obj
 0001:000027c0       ??A?$QMap@VQString@@VdeviceTypeInfo@@@@QBEABVdeviceTypeInfo@@ABVQString@@@Z 100037c0 f i bncs_instance_lookup.obj
 0001:000027e0       ??A?$QMap@VQString@@VinstanceInfo@@@@QAEAAVinstanceInfo@@ABVQString@@@Z 100037e0 f i bncs_instance_lookup.obj
 0001:000028c0       ??A?$QMap@VQString@@VinstanceInfo@@@@QBEABVinstanceInfo@@ABVQString@@@Z 100038c0 f i bncs_instance_lookup.obj
 0001:000028e0       ??A?$QMap@VQString@@VparamInfo@@@@QAEAAVparamInfo@@ABVQString@@@Z 100038e0 f i bncs_instance_lookup.obj
 0001:000029f0       ??_Ebncs_instance_lookup@@UAEPAXI@Z 100039f0 f i bncs_instance_lookup.obj
 0001:00002a50       ??_EcomplexInstance@@UAEPAXI@Z 10003a50 f i bncs_instance_lookup.obj
 0001:00002ab0       ??_EcomplexParam@@UAEPAXI@Z 10003ab0 f i bncs_instance_lookup.obj
 0001:00002b10       ??_EcomplexType@@UAEPAXI@Z 10003b10 f i bncs_instance_lookup.obj
 0001:00002b70       ??_EdeviceTypeInfo@@UAEPAXI@Z 10003b70 f i bncs_instance_lookup.obj
 0001:00002bd0       ??_EinstanceInfo@@UAEPAXI@Z 10003bd0 f i bncs_instance_lookup.obj
 0001:00002c30       ??_EparamInfo@@UAEPAXI@Z   10003c30 f i bncs_instance_lookup.obj
 0001:00002c90       ??_G?$QValueListNode@VcomplexInstance@@@@UAEPAXI@Z 10003c90 f i bncs_instance_lookup.obj
 0001:00002c90       ??_E?$QValueListNode@VcomplexInstance@@@@UAEPAXI@Z 10003c90 f i bncs_instance_lookup.obj
 0001:00002cc0       ??_E?$QValueListNode@VcomplexParam@@@@UAEPAXI@Z 10003cc0 f i bncs_instance_lookup.obj
 0001:00002cc0       ??_G?$QValueListNode@VcomplexParam@@@@UAEPAXI@Z 10003cc0 f i bncs_instance_lookup.obj
 0001:00002cf0       ??_E?$QValueListNode@VcomplexType@@@@UAEPAXI@Z 10003cf0 f i bncs_instance_lookup.obj
 0001:00002cf0       ??_G?$QValueListNode@VcomplexType@@@@UAEPAXI@Z 10003cf0 f i bncs_instance_lookup.obj
 0001:00002d20       ??_E?$QValueListNode@VdeviceTypeInfo@@@@UAEPAXI@Z 10003d20 f i bncs_instance_lookup.obj
 0001:00002d20       ??_G?$QValueListNode@VdeviceTypeInfo@@@@UAEPAXI@Z 10003d20 f i bncs_instance_lookup.obj
 0001:00002d50       ??_E?$QValueListNode@VinstanceInfo@@@@UAEPAXI@Z 10003d50 f i bncs_instance_lookup.obj
 0001:00002d50       ??_G?$QValueListNode@VinstanceInfo@@@@UAEPAXI@Z 10003d50 f i bncs_instance_lookup.obj
 0001:00002d80       ??_E?$QValueListNode@VparamInfo@@@@UAEPAXI@Z 10003d80 f i bncs_instance_lookup.obj
 0001:00002d80       ??_G?$QValueListNode@VparamInfo@@@@UAEPAXI@Z 10003d80 f i bncs_instance_lookup.obj
 0001:00002db0       ??_E?$QValueListPrivate@VcomplexInstance@@@@UAEPAXI@Z 10003db0 f i bncs_instance_lookup.obj
 0001:00002db0       ??_G?$QValueListPrivate@VcomplexInstance@@@@UAEPAXI@Z 10003db0 f i bncs_instance_lookup.obj
 0001:00002e00       ??_E?$QValueListPrivate@VcomplexParam@@@@UAEPAXI@Z 10003e00 f i bncs_instance_lookup.obj
 0001:00002e00       ??_G?$QValueListPrivate@VcomplexParam@@@@UAEPAXI@Z 10003e00 f i bncs_instance_lookup.obj
 0001:00002e50       ??_E?$QValueListPrivate@VcomplexType@@@@UAEPAXI@Z 10003e50 f i bncs_instance_lookup.obj
 0001:00002e50       ??_G?$QValueListPrivate@VcomplexType@@@@UAEPAXI@Z 10003e50 f i bncs_instance_lookup.obj
 0001:00002ea0       ??_G?$QValueListPrivate@VdeviceTypeInfo@@@@UAEPAXI@Z 10003ea0 f i bncs_instance_lookup.obj
 0001:00002ea0       ??_E?$QValueListPrivate@VdeviceTypeInfo@@@@UAEPAXI@Z 10003ea0 f i bncs_instance_lookup.obj
 0001:00002ef0       ??_E?$QValueListPrivate@VinstanceInfo@@@@UAEPAXI@Z 10003ef0 f i bncs_instance_lookup.obj
 0001:00002ef0       ??_G?$QValueListPrivate@VinstanceInfo@@@@UAEPAXI@Z 10003ef0 f i bncs_instance_lookup.obj
 0001:00002f40       ??_G?$QValueListPrivate@VparamInfo@@@@UAEPAXI@Z 10003f40 f i bncs_instance_lookup.obj
 0001:00002f40       ??_E?$QValueListPrivate@VparamInfo@@@@UAEPAXI@Z 10003f40 f i bncs_instance_lookup.obj
 0001:00002f90       ??_E_System_error_category@std@@UAEPAXI@Z 10003f90 f i bncs_instance_lookup.obj
 0001:00002f90       ??_G_Iostream_error_category@std@@UAEPAXI@Z 10003f90 f i bncs_instance_lookup.obj
 0001:00002f90       ??_E_Iostream_error_category@std@@UAEPAXI@Z 10003f90 f i bncs_instance_lookup.obj
 0001:00002f90       ??_G_Generic_error_category@std@@UAEPAXI@Z 10003f90 f i bncs_instance_lookup.obj
 0001:00002f90       ??_G_System_error_category@std@@UAEPAXI@Z 10003f90 f i bncs_instance_lookup.obj
 0001:00002f90       ??_Eerror_category@std@@UAEPAXI@Z 10003f90 f i bncs_instance_lookup.obj
 0001:00002f90       ??_Gerror_category@std@@UAEPAXI@Z 10003f90 f i bncs_instance_lookup.obj
 0001:00002f90       ??_E_Generic_error_category@std@@UAEPAXI@Z 10003f90 f i bncs_instance_lookup.obj
 0001:00002fc0       ?_Copy@?$basic_string@DU?$char_traits@D@std@@V?$allocator@D@2@@std@@QAEXII@Z 10003fc0 f i bncs_instance_lookup.obj
 0001:00003110       ?allocate@?$_Wrap_alloc@V?$allocator@D@std@@@std@@QAEPADI@Z 10004110 f i bncs_instance_lookup.obj
 0001:00003140       ?append@?$QValueList@VcomplexInstance@@@@QAE?AV?$QValueListIterator@VcomplexInstance@@@@ABVcomplexInstance@@@Z 10004140 f i bncs_instance_lookup.obj
 0001:00003210       ?append@?$QValueList@VcomplexParam@@@@QAE?AV?$QValueListIterator@VcomplexParam@@@@ABVcomplexParam@@@Z 10004210 f i bncs_instance_lookup.obj
 0001:000032e0       ?append@?$QValueList@VcomplexType@@@@QAE?AV?$QValueListIterator@VcomplexType@@@@ABVcomplexType@@@Z 100042e0 f i bncs_instance_lookup.obj
 0001:000033b0       ?append@?$QValueList@VdeviceTypeInfo@@@@QAE?AV?$QValueListIterator@VdeviceTypeInfo@@@@ABVdeviceTypeInfo@@@Z 100043b0 f i bncs_instance_lookup.obj
 0001:00003480       ?append@?$QValueList@VinstanceInfo@@@@QAE?AV?$QValueListIterator@VinstanceInfo@@@@ABVinstanceInfo@@@Z 10004480 f i bncs_instance_lookup.obj
 0001:00003550       ?append@?$QValueList@VparamInfo@@@@QAE?AV?$QValueListIterator@VparamInfo@@@@ABVparamInfo@@@Z 10004550 f i bncs_instance_lookup.obj
 0001:00003620       ?assign@?$basic_string@DU?$char_traits@D@std@@V?$allocator@D@2@@std@@QAEAAV12@ABV12@II@Z 10004620 f i bncs_instance_lookup.obj
 0001:00003740       ?assign@?$basic_string@DU?$char_traits@D@std@@V?$allocator@D@2@@std@@QAEAAV12@PBDI@Z 10004740 f i bncs_instance_lookup.obj
 0001:00003840       ?begin@?$QMap@VQString@@VcomplexInstance@@@@QAE?AV?$QMapIterator@VQString@@VcomplexInstance@@@@XZ 10004840 f i bncs_instance_lookup.obj
 0001:000038c0       ?begin@?$QMap@VQString@@VcomplexParam@@@@QAE?AV?$QMapIterator@VQString@@VcomplexParam@@@@XZ 100048c0 f i bncs_instance_lookup.obj
 0001:00003940       ?begin@?$QMap@VQString@@VcomplexType@@@@QAE?AV?$QMapIterator@VQString@@VcomplexType@@@@XZ 10004940 f i bncs_instance_lookup.obj
 0001:000039c0       ?begin@?$QMap@VQString@@VdeviceTypeInfo@@@@QAE?AV?$QMapIterator@VQString@@VdeviceTypeInfo@@@@XZ 100049c0 f i bncs_instance_lookup.obj
 0001:00003a40       ?begin@?$QMap@VQString@@VinstanceInfo@@@@QAE?AV?$QMapIterator@VQString@@VinstanceInfo@@@@XZ 10004a40 f i bncs_instance_lookup.obj
 0001:00003ac0       ?begin@?$QMap@VQString@@VparamInfo@@@@QAE?AV?$QMapIterator@VQString@@VparamInfo@@@@XZ 10004ac0 f i bncs_instance_lookup.obj
 0001:00003b40       ?clear@?$QMap@VQString@@VcomplexInstance@@@@QAEXXZ 10004b40 f i bncs_instance_lookup.obj
 0001:00003c00       ?clear@?$QMap@VQString@@VcomplexParam@@@@QAEXXZ 10004c00 f i bncs_instance_lookup.obj
 0001:00003cc0       ?clear@?$QMap@VQString@@VcomplexType@@@@QAEXXZ 10004cc0 f i bncs_instance_lookup.obj
 0001:00003d80       ?clear@?$QMap@VQString@@VdeviceTypeInfo@@@@QAEXXZ 10004d80 f i bncs_instance_lookup.obj
 0001:00003e40       ?clear@?$QMap@VQString@@VinstanceInfo@@@@QAEXXZ 10004e40 f i bncs_instance_lookup.obj
 0001:00003f00       ?clear@?$QMap@VQString@@VparamInfo@@@@QAEXXZ 10004f00 f i bncs_instance_lookup.obj
 0001:00003fc0       ?clear@?$QMapPrivate@VQString@@VcomplexInstance@@@@QAEXPAU?$QMapNode@VQString@@VcomplexInstance@@@@@Z 10004fc0 f i bncs_instance_lookup.obj
 0001:00004050       ?clear@?$QMapPrivate@VQString@@VcomplexParam@@@@QAEXPAU?$QMapNode@VQString@@VcomplexParam@@@@@Z 10005050 f i bncs_instance_lookup.obj
 0001:000040e0       ?clear@?$QMapPrivate@VQString@@VcomplexType@@@@QAEXPAU?$QMapNode@VQString@@VcomplexType@@@@@Z 100050e0 f i bncs_instance_lookup.obj
 0001:00004170       ?clear@?$QMapPrivate@VQString@@VdeviceTypeInfo@@@@QAEXPAU?$QMapNode@VQString@@VdeviceTypeInfo@@@@@Z 10005170 f i bncs_instance_lookup.obj
 0001:00004200       ?clear@?$QMapPrivate@VQString@@VinstanceInfo@@@@QAEXPAU?$QMapNode@VQString@@VinstanceInfo@@@@@Z 10005200 f i bncs_instance_lookup.obj
 0001:00004290       ?clear@?$QMapPrivate@VQString@@VparamInfo@@@@QAEXPAU?$QMapNode@VQString@@VparamInfo@@@@@Z 10005290 f i bncs_instance_lookup.obj
 0001:00004320       ?contains@?$QMap@VQString@@VcomplexParam@@@@QBE_NABVQString@@@Z 10005320 f i bncs_instance_lookup.obj
 0001:00004350       ?contains@?$QMap@VQString@@VparamInfo@@@@QBE_NABVQString@@@Z 10005350 f i bncs_instance_lookup.obj
 0001:00004350       ?contains@?$QMap@VQString@@VcomplexType@@@@QBE_NABVQString@@@Z 10005350 f i bncs_instance_lookup.obj
 0001:00004350       ?contains@?$QMap@VQString@@VcomplexInstance@@@@QBE_NABVQString@@@Z 10005350 f i bncs_instance_lookup.obj
 0001:00004380       ?contains@?$QMap@VQString@@Vstyleentry@@@@QBE_NABVQString@@@Z 10005380 f i bncs_stylesheet.obj
 0001:00004380       ?contains@?$QMap@VQString@@VdeviceTypeInfo@@@@QBE_NABVQString@@@Z 10005380 f i bncs_instance_lookup.obj
 0001:000043b0       ?contains@?$QMap@VQString@@VinstanceInfo@@@@QBE_NABVQString@@@Z 100053b0 f i bncs_instance_lookup.obj
 0001:000043e0       ?copy@?$QMapPrivate@VQString@@VcomplexInstance@@@@QAEPAU?$QMapNode@VQString@@VcomplexInstance@@@@PAU2@@Z 100053e0 f i bncs_instance_lookup.obj
 0001:000044b0       ?copy@?$QMapPrivate@VQString@@VcomplexParam@@@@QAEPAU?$QMapNode@VQString@@VcomplexParam@@@@PAU2@@Z 100054b0 f i bncs_instance_lookup.obj
 0001:00004580       ?copy@?$QMapPrivate@VQString@@VcomplexType@@@@QAEPAU?$QMapNode@VQString@@VcomplexType@@@@PAU2@@Z 10005580 f i bncs_instance_lookup.obj
 0001:00004650       ?copy@?$QMapPrivate@VQString@@VdeviceTypeInfo@@@@QAEPAU?$QMapNode@VQString@@VdeviceTypeInfo@@@@PAU2@@Z 10005650 f i bncs_instance_lookup.obj
 0001:00004720       ?copy@?$QMapPrivate@VQString@@VinstanceInfo@@@@QAEPAU?$QMapNode@VQString@@VinstanceInfo@@@@PAU2@@Z 10005720 f i bncs_instance_lookup.obj
 0001:000047f0       ?copy@?$QMapPrivate@VQString@@VparamInfo@@@@QAEPAU?$QMapNode@VQString@@VparamInfo@@@@PAU2@@Z 100057f0 f i bncs_instance_lookup.obj
 0001:000048f0       ?count@?$QMap@VQString@@VcomplexType@@@@QBEIABVQString@@@Z 100058f0 f i bncs_instance_lookup.obj
 0001:000048f0       ?count@?$QMap@VQString@@VcomplexInstance@@@@QBEIABVQString@@@Z 100058f0 f i bncs_instance_lookup.obj
 0001:000048f0       ?count@?$QMap@VQString@@VparamInfo@@@@QBEIABVQString@@@Z 100058f0 f i bncs_instance_lookup.obj
 0001:00004960       ?count@?$QMap@VQString@@VcomplexParam@@@@QBEIABVQString@@@Z 10005960 f i bncs_instance_lookup.obj
 0001:000049d0       ?count@?$QMap@VQString@@VinstanceInfo@@@@QBEIABVQString@@@Z 100059d0 f i bncs_instance_lookup.obj
 0001:00004a40       ?countComplexTypes@bncs_instance_lookup@@SAHXZ 10005a40 f   bncs_instance_lookup.obj
 0001:00004a50       ?countDeviceTypes@bncs_instance_lookup@@SAHXZ 10005a50 f   bncs_instance_lookup.obj
 0001:00004a60       ?countInstances@bncs_instance_lookup@@SAHXZ 10005a60 f   bncs_instance_lookup.obj
 0001:00004a70       ?dec@?$QMapIterator@VQString@@VcomplexParam@@@@AAEHXZ 10005a70 f i bncs_instance_lookup.obj
 0001:00004a70       ?dec@?$QMapIterator@VQString@@VdeviceTypeInfo@@@@AAEHXZ 10005a70 f i bncs_instance_lookup.obj
 0001:00004a70       ?dec@?$QMapIterator@VQString@@VparamInfo@@@@AAEHXZ 10005a70 f i bncs_instance_lookup.obj
 0001:00004a70       ?dec@?$QMapIterator@VQString@@VinstanceInfo@@@@AAEHXZ 10005a70 f i bncs_instance_lookup.obj
 0001:00004a70       ?dec@?$QMapIterator@VQString@@VcomplexType@@@@AAEHXZ 10005a70 f i bncs_instance_lookup.obj
 0001:00004a70       ?dec@?$QMapIterator@VQString@@Vstyleentry@@@@AAEHXZ 10005a70 f i bncs_stylesheet.obj
 0001:00004a70       ?dec@?$QMapIterator@VQString@@VcomplexInstance@@@@AAEHXZ 10005a70 f i bncs_instance_lookup.obj
 0001:00004ad0       ?default_error_condition@_System_error_category@std@@UBE?AVerror_condition@2@H@Z 10005ad0 f i bncs_instance_lookup.obj
 0001:00004b10       ?default_error_condition@error_category@std@@UBE?AVerror_condition@2@H@Z 10005b10 f i bncs_instance_lookup.obj
 0001:00004b30       ?detach@?$QMap@VQString@@VcomplexInstance@@@@IAEXXZ 10005b30 f i bncs_instance_lookup.obj
 0001:00004bb0       ?detach@?$QMap@VQString@@VcomplexParam@@@@IAEXXZ 10005bb0 f i bncs_instance_lookup.obj
 0001:00004c30       ?detach@?$QMap@VQString@@VcomplexType@@@@IAEXXZ 10005c30 f i bncs_instance_lookup.obj
 0001:00004cb0       ?detach@?$QMap@VQString@@VdeviceTypeInfo@@@@IAEXXZ 10005cb0 f i bncs_instance_lookup.obj
 0001:00004d30       ?detach@?$QMap@VQString@@VinstanceInfo@@@@IAEXXZ 10005d30 f i bncs_instance_lookup.obj
 0001:00004db0       ?detach@?$QMap@VQString@@VparamInfo@@@@IAEXXZ 10005db0 f i bncs_instance_lookup.obj
 0001:00004e30       ?detachInternal@?$QMap@VQString@@VcomplexInstance@@@@AAEXXZ 10005e30 f i bncs_instance_lookup.obj
 0001:00004eb0       ?detachInternal@?$QMap@VQString@@VcomplexParam@@@@AAEXXZ 10005eb0 f i bncs_instance_lookup.obj
 0001:00004f30       ?detachInternal@?$QMap@VQString@@VcomplexType@@@@AAEXXZ 10005f30 f i bncs_instance_lookup.obj
 0001:00004fb0       ?detachInternal@?$QMap@VQString@@VdeviceTypeInfo@@@@AAEXXZ 10005fb0 f i bncs_instance_lookup.obj
 0001:00005030       ?detachInternal@?$QMap@VQString@@VinstanceInfo@@@@AAEXXZ 10006030 f i bncs_instance_lookup.obj
 0001:000050b0       ?detachInternal@?$QMap@VQString@@VparamInfo@@@@AAEXXZ 100060b0 f i bncs_instance_lookup.obj
 0001:00005130       ?dump@bncs_instance_lookup@@SAXXZ 10006130 f   bncs_instance_lookup.obj
 0001:00005260       ?end@?$QMap@VQString@@VcomplexInstance@@@@QAE?AV?$QMapIterator@VQString@@VcomplexInstance@@@@XZ 10006260 f i bncs_instance_lookup.obj
 0001:000052e0       ?end@?$QMap@VQString@@VcomplexParam@@@@QAE?AV?$QMapIterator@VQString@@VcomplexParam@@@@XZ 100062e0 f i bncs_instance_lookup.obj
 0001:00005360       ?end@?$QMap@VQString@@VcomplexType@@@@QAE?AV?$QMapIterator@VQString@@VcomplexType@@@@XZ 10006360 f i bncs_instance_lookup.obj
 0001:000053e0       ?end@?$QMap@VQString@@VdeviceTypeInfo@@@@QAE?AV?$QMapIterator@VQString@@VdeviceTypeInfo@@@@XZ 100063e0 f i bncs_instance_lookup.obj
 0001:00005460       ?constEnd@?$QMap@VQString@@VcomplexType@@@@QBE?AV?$QMapConstIterator@VQString@@VcomplexType@@@@XZ 10006460 f i bncs_instance_lookup.obj
 0001:00005460       ?constEnd@?$QMap@VQString@@VdeviceTypeInfo@@@@QBE?AV?$QMapConstIterator@VQString@@VdeviceTypeInfo@@@@XZ 10006460 f i bncs_instance_lookup.obj
 0001:00005460       ?end@?$QMap@VQString@@Vstyleentry@@@@QBE?AV?$QMapConstIterator@VQString@@Vstyleentry@@@@XZ 10006460 f i bncs_stylesheet.obj
 0001:00005460       ?end@?$QMap@VQString@@VcomplexParam@@@@QBE?AV?$QMapConstIterator@VQString@@VcomplexParam@@@@XZ 10006460 f i bncs_instance_lookup.obj
 0001:00005460       ?end@?$QMap@VQString@@VcomplexType@@@@QBE?AV?$QMapConstIterator@VQString@@VcomplexType@@@@XZ 10006460 f i bncs_instance_lookup.obj
 0001:00005460       ?constEnd@?$QMap@VQString@@VcomplexParam@@@@QBE?AV?$QMapConstIterator@VQString@@VcomplexParam@@@@XZ 10006460 f i bncs_instance_lookup.obj
 0001:00005460       ?end@?$QMap@VQString@@VparamInfo@@@@QBE?AV?$QMapConstIterator@VQString@@VparamInfo@@@@XZ 10006460 f i bncs_instance_lookup.obj
 0001:00005460       ?end@?$QMap@VQString@@VdeviceTypeInfo@@@@QBE?AV?$QMapConstIterator@VQString@@VdeviceTypeInfo@@@@XZ 10006460 f i bncs_instance_lookup.obj
 0001:00005460       ?constEnd@?$QMap@VQString@@VparamInfo@@@@QBE?AV?$QMapConstIterator@VQString@@VparamInfo@@@@XZ 10006460 f i bncs_instance_lookup.obj
 0001:00005460       ?end@?$QMap@VQString@@VinstanceInfo@@@@QBE?AV?$QMapConstIterator@VQString@@VinstanceInfo@@@@XZ 10006460 f i bncs_instance_lookup.obj
 0001:00005460       ?constEnd@?$QMap@VQString@@Vstyleentry@@@@QBE?AV?$QMapConstIterator@VQString@@Vstyleentry@@@@XZ 10006460 f i bncs_stylesheet.obj
 0001:00005460       ?end@?$QMap@VQString@@VcomplexInstance@@@@QBE?AV?$QMapConstIterator@VQString@@VcomplexInstance@@@@XZ 10006460 f i bncs_instance_lookup.obj
 0001:00005460       ?constEnd@?$QMap@VQString@@VcomplexInstance@@@@QBE?AV?$QMapConstIterator@VQString@@VcomplexInstance@@@@XZ 10006460 f i bncs_instance_lookup.obj
 0001:00005460       ?constEnd@?$QMap@VQString@@VinstanceInfo@@@@QBE?AV?$QMapConstIterator@VQString@@VinstanceInfo@@@@XZ 10006460 f i bncs_instance_lookup.obj
 0001:00005480       ?end@?$QMap@VQString@@VinstanceInfo@@@@QAE?AV?$QMapIterator@VQString@@VinstanceInfo@@@@XZ 10006480 f i bncs_instance_lookup.obj
 0001:00005500       ?end@?$QMap@VQString@@VparamInfo@@@@QAE?AV?$QMapIterator@VQString@@VparamInfo@@@@XZ 10006500 f i bncs_instance_lookup.obj
 0001:00005580       ?equivalent@error_category@std@@UBE_NABVerror_code@2@H@Z 10006580 f i bncs_instance_lookup.obj
 0001:000055a0       ?equivalent@error_category@std@@UBE_NHABVerror_condition@2@@Z 100065a0 f i bncs_instance_lookup.obj
 0001:000055e0       ?erase@?$QMap@VQString@@VcomplexInstance@@@@QAEXV?$QMapIterator@VQString@@VcomplexInstance@@@@@Z 100065e0 f i bncs_instance_lookup.obj
 0001:000055e0       ?remove@?$QMap@VQString@@VcomplexInstance@@@@QAEXV?$QMapIterator@VQString@@VcomplexInstance@@@@@Z 100065e0 f i bncs_instance_lookup.obj
 0001:000056a0       ?erase@?$QMap@VQString@@VcomplexParam@@@@QAEXABVQString@@@Z 100066a0 f i bncs_instance_lookup.obj
 0001:000056a0       ?remove@?$QMap@VQString@@VcomplexParam@@@@QAEXABVQString@@@Z 100066a0 f i bncs_instance_lookup.obj
 0001:000057b0       ?remove@?$QMap@VQString@@VcomplexType@@@@QAEXABVQString@@@Z 100067b0 f i bncs_instance_lookup.obj
 0001:000057b0       ?erase@?$QMap@VQString@@VcomplexType@@@@QAEXABVQString@@@Z 100067b0 f i bncs_instance_lookup.obj
 0001:000058c0       ?remove@?$QMap@VQString@@VcomplexType@@@@QAEXV?$QMapIterator@VQString@@VcomplexType@@@@@Z 100068c0 f i bncs_instance_lookup.obj
 0001:000058c0       ?erase@?$QMap@VQString@@VcomplexType@@@@QAEXV?$QMapIterator@VQString@@VcomplexType@@@@@Z 100068c0 f i bncs_instance_lookup.obj
 0001:00005980       ?erase@?$QMap@VQString@@VdeviceTypeInfo@@@@QAEXV?$QMapIterator@VQString@@VdeviceTypeInfo@@@@@Z 10006980 f i bncs_instance_lookup.obj
 0001:00005980       ?remove@?$QMap@VQString@@VdeviceTypeInfo@@@@QAEXV?$QMapIterator@VQString@@VdeviceTypeInfo@@@@@Z 10006980 f i bncs_instance_lookup.obj
 0001:00005a40       ?erase@?$basic_string@DU?$char_traits@D@std@@V?$allocator@D@2@@std@@QAEAAV12@II@Z 10006a40 f i bncs_instance_lookup.obj
 0001:00005ae0       ?find@?$QMap@VQString@@VcomplexInstance@@@@QAE?AV?$QMapIterator@VQString@@VcomplexInstance@@@@ABVQString@@@Z 10006ae0 f i bncs_instance_lookup.obj
 0001:00005b70       ?find@?$QMap@VQString@@VcomplexParam@@@@QAE?AV?$QMapIterator@VQString@@VcomplexParam@@@@ABVQString@@@Z 10006b70 f i bncs_instance_lookup.obj
 0001:00005c00       ?find@?$QMap@VQString@@VcomplexParam@@@@QBE?AV?$QMapConstIterator@VQString@@VcomplexParam@@@@ABVQString@@@Z 10006c00 f i bncs_instance_lookup.obj
 0001:00005c20       ?find@?$QMap@VQString@@VcomplexType@@@@QAE?AV?$QMapIterator@VQString@@VcomplexType@@@@ABVQString@@@Z 10006c20 f i bncs_instance_lookup.obj
 0001:00005cb0       ?find@?$QMap@VQString@@VdeviceTypeInfo@@@@QAE?AV?$QMapIterator@VQString@@VdeviceTypeInfo@@@@ABVQString@@@Z 10006cb0 f i bncs_instance_lookup.obj
 0001:00005d40       ?find@?$QMap@VQString@@Vstyleentry@@@@QBE?AV?$QMapConstIterator@VQString@@Vstyleentry@@@@ABVQString@@@Z 10006d40 f i bncs_stylesheet.obj
 0001:00005d40       ?find@?$QMap@VQString@@VdeviceTypeInfo@@@@QBE?AV?$QMapConstIterator@VQString@@VdeviceTypeInfo@@@@ABVQString@@@Z 10006d40 f i bncs_instance_lookup.obj
 0001:00005d60       ?find@?$QMap@VQString@@VinstanceInfo@@@@QAE?AV?$QMapIterator@VQString@@VinstanceInfo@@@@ABVQString@@@Z 10006d60 f i bncs_instance_lookup.obj
 0001:00005df0       ?find@?$QMap@VQString@@VinstanceInfo@@@@QBE?AV?$QMapConstIterator@VQString@@VinstanceInfo@@@@ABVQString@@@Z 10006df0 f i bncs_instance_lookup.obj
 0001:00005e10       ?find@?$QMap@VQString@@VparamInfo@@@@QAE?AV?$QMapIterator@VQString@@VparamInfo@@@@ABVQString@@@Z 10006e10 f i bncs_instance_lookup.obj
 0001:00005ea0       ?find@?$QMap@VQString@@VcomplexInstance@@@@QBE?AV?$QMapConstIterator@VQString@@VcomplexInstance@@@@ABVQString@@@Z 10006ea0 f i bncs_instance_lookup.obj
 0001:00005ea0       ?find@?$QMap@VQString@@VcomplexType@@@@QBE?AV?$QMapConstIterator@VQString@@VcomplexType@@@@ABVQString@@@Z 10006ea0 f i bncs_instance_lookup.obj
 0001:00005ea0       ?find@?$QMap@VQString@@VparamInfo@@@@QBE?AV?$QMapConstIterator@VQString@@VparamInfo@@@@ABVQString@@@Z 10006ea0 f i bncs_instance_lookup.obj
 0001:00005ec0       ?find@?$QMapPrivate@VQString@@VcomplexParam@@@@QBE?AV?$QMapConstIterator@VQString@@VcomplexParam@@@@ABVQString@@@Z 10006ec0 f i bncs_instance_lookup.obj
 0001:00005f40       ?find@?$QMapPrivate@VQString@@VdeviceTypeInfo@@@@QBE?AV?$QMapConstIterator@VQString@@VdeviceTypeInfo@@@@ABVQString@@@Z 10006f40 f i bncs_instance_lookup.obj
 0001:00005f40       ?find@?$QMapPrivate@VQString@@Vstyleentry@@@@QBE?AV?$QMapConstIterator@VQString@@Vstyleentry@@@@ABVQString@@@Z 10006f40 f i bncs_stylesheet.obj
 0001:00005fc0       ?find@?$QMapPrivate@VQString@@VinstanceInfo@@@@QBE?AV?$QMapConstIterator@VQString@@VinstanceInfo@@@@ABVQString@@@Z 10006fc0 f i bncs_instance_lookup.obj
 0001:00006040       ?find@?$QMapPrivate@VQString@@VparamInfo@@@@QBE?AV?$QMapConstIterator@VQString@@VparamInfo@@@@ABVQString@@@Z 10007040 f i bncs_instance_lookup.obj
 0001:00006040       ?find@?$QMapPrivate@VQString@@VcomplexInstance@@@@QBE?AV?$QMapConstIterator@VQString@@VcomplexInstance@@@@ABVQString@@@Z 10007040 f i bncs_instance_lookup.obj
 0001:00006040       ?find@?$QMapPrivate@VQString@@VcomplexType@@@@QBE?AV?$QMapConstIterator@VQString@@VcomplexType@@@@ABVQString@@@Z 10007040 f i bncs_instance_lookup.obj
 0001:000060c0       ?getInstanceInfo@bncs_instance_lookup@@SA_NABVQString@@PAPAVinstanceInfo@@@Z 100070c0 f   bncs_instance_lookup.obj
 0001:00006210       ?insert@?$QMap@VQString@@VcomplexInstance@@@@QAE?AU?$QPair@V?$QMapIterator@VQString@@VcomplexInstance@@@@_N@@ABU?$QPair@$$CBVQString@@VcomplexInstance@@@@@Z 10007210 f i bncs_instance_lookup.obj
 0001:000062e0       ?insert@?$QMap@VQString@@VcomplexInstance@@@@QAE?AV?$QMapIterator@VQString@@VcomplexInstance@@@@ABVQString@@ABVcomplexInstance@@_N@Z 100072e0 f i bncs_instance_lookup.obj
 0001:000063b0       ?insert@?$QMap@VQString@@VcomplexParam@@@@QAE?AU?$QPair@V?$QMapIterator@VQString@@VcomplexParam@@@@_N@@ABU?$QPair@$$CBVQString@@VcomplexParam@@@@@Z 100073b0 f i bncs_instance_lookup.obj
 0001:00006470       ?insert@?$QMap@VQString@@VcomplexParam@@@@QAE?AV?$QMapIterator@VQString@@VcomplexParam@@@@ABVQString@@ABVcomplexParam@@_N@Z 10007470 f i bncs_instance_lookup.obj
 0001:00006540       ?insert@?$QMap@VQString@@VcomplexType@@@@QAE?AU?$QPair@V?$QMapIterator@VQString@@VcomplexType@@@@_N@@ABU?$QPair@$$CBVQString@@VcomplexType@@@@@Z 10007540 f i bncs_instance_lookup.obj
 0001:00006610       ?insert@?$QMap@VQString@@VcomplexType@@@@QAE?AV?$QMapIterator@VQString@@VcomplexType@@@@ABVQString@@ABVcomplexType@@_N@Z 10007610 f i bncs_instance_lookup.obj
 0001:000066e0       ?insert@?$QMap@VQString@@VdeviceTypeInfo@@@@QAE?AU?$QPair@V?$QMapIterator@VQString@@VdeviceTypeInfo@@@@_N@@ABU?$QPair@$$CBVQString@@VdeviceTypeInfo@@@@@Z 100076e0 f i bncs_instance_lookup.obj
 0001:000067c0       ?insert@?$QMap@VQString@@VdeviceTypeInfo@@@@QAE?AV?$QMapIterator@VQString@@VdeviceTypeInfo@@@@ABVQString@@ABVdeviceTypeInfo@@_N@Z 100077c0 f i bncs_instance_lookup.obj
 0001:00006890       ?insert@?$QMap@VQString@@VinstanceInfo@@@@QAE?AU?$QPair@V?$QMapIterator@VQString@@VinstanceInfo@@@@_N@@ABU?$QPair@$$CBVQString@@VinstanceInfo@@@@@Z 10007890 f i bncs_instance_lookup.obj
 0001:00006980       ?insert@?$QMap@VQString@@VinstanceInfo@@@@QAE?AV?$QMapIterator@VQString@@VinstanceInfo@@@@ABVQString@@ABVinstanceInfo@@_N@Z 10007980 f i bncs_instance_lookup.obj
 0001:00006a80       ?insert@?$QMap@VQString@@VparamInfo@@@@QAE?AU?$QPair@V?$QMapIterator@VQString@@VparamInfo@@@@_N@@ABU?$QPair@$$CBVQString@@VparamInfo@@@@@Z 10007a80 f i bncs_instance_lookup.obj
 0001:00006b30       ?insert@?$QMap@VQString@@VparamInfo@@@@QAE?AV?$QMapIterator@VQString@@VparamInfo@@@@ABVQString@@ABVparamInfo@@_N@Z 10007b30 f i bncs_instance_lookup.obj
 0001:00006bd0       ?insert@?$QMapPrivate@VQString@@VcomplexInstance@@@@QAE?AV?$QMapIterator@VQString@@VcomplexInstance@@@@PAUQMapNodeBase@@0ABVQString@@@Z 10007bd0 f i bncs_instance_lookup.obj
 0001:00006cd0       ?insert@?$QMapPrivate@VQString@@VcomplexParam@@@@QAE?AV?$QMapIterator@VQString@@VcomplexParam@@@@PAUQMapNodeBase@@0ABVQString@@@Z 10007cd0 f i bncs_instance_lookup.obj
 0001:00006dd0       ?insert@?$QMapPrivate@VQString@@VcomplexType@@@@QAE?AV?$QMapIterator@VQString@@VcomplexType@@@@PAUQMapNodeBase@@0ABVQString@@@Z 10007dd0 f i bncs_instance_lookup.obj
 0001:00006ed0       ?insert@?$QMapPrivate@VQString@@VdeviceTypeInfo@@@@QAE?AV?$QMapIterator@VQString@@VdeviceTypeInfo@@@@PAUQMapNodeBase@@0ABVQString@@@Z 10007ed0 f i bncs_instance_lookup.obj
 0001:00006fd0       ?insert@?$QMapPrivate@VQString@@VinstanceInfo@@@@QAE?AV?$QMapIterator@VQString@@VinstanceInfo@@@@PAUQMapNodeBase@@0ABVQString@@@Z 10007fd0 f i bncs_instance_lookup.obj
 0001:000070d0       ?insert@?$QMapPrivate@VQString@@VparamInfo@@@@QAE?AV?$QMapIterator@VQString@@VparamInfo@@@@PAUQMapNodeBase@@0ABVQString@@@Z 100080d0 f i bncs_instance_lookup.obj
 0001:000071d0       ?insert@?$QValueListPrivate@VcomplexInstance@@@@QAE?AV?$QValueListIterator@VcomplexInstance@@@@V2@ABVcomplexInstance@@@Z 100081d0 f i bncs_instance_lookup.obj
 0001:00007230       ?insert@?$QValueListPrivate@VcomplexParam@@@@QAE?AV?$QValueListIterator@VcomplexParam@@@@V2@ABVcomplexParam@@@Z 10008230 f i bncs_instance_lookup.obj
 0001:000072f0       ?insert@?$QValueListPrivate@VcomplexType@@@@QAE?AV?$QValueListIterator@VcomplexType@@@@V2@ABVcomplexType@@@Z 100082f0 f i bncs_instance_lookup.obj
 0001:00007350       ?insert@?$QValueListPrivate@VdeviceTypeInfo@@@@QAE?AV?$QValueListIterator@VdeviceTypeInfo@@@@V2@ABVdeviceTypeInfo@@@Z 10008350 f i bncs_instance_lookup.obj
 0001:000073c0       ?insert@?$QValueListPrivate@VinstanceInfo@@@@QAE?AV?$QValueListIterator@VinstanceInfo@@@@V2@ABVinstanceInfo@@@Z 100083c0 f i bncs_instance_lookup.obj
 0001:00007450       ?insert@?$QValueListPrivate@VparamInfo@@@@QAE?AV?$QValueListIterator@VparamInfo@@@@V2@ABVparamInfo@@@Z 10008450 f i bncs_instance_lookup.obj
 0001:000074b0       ?insertSingle@?$QMapPrivate@VQString@@VcomplexInstance@@@@QAE?AV?$QMapIterator@VQString@@VcomplexInstance@@@@ABVQString@@@Z 100084b0 f i bncs_instance_lookup.obj
 0001:00007570       ?insertSingle@?$QMapPrivate@VQString@@VcomplexParam@@@@QAE?AV?$QMapIterator@VQString@@VcomplexParam@@@@ABVQString@@@Z 10008570 f i bncs_instance_lookup.obj
 0001:00007630       ?insertSingle@?$QMapPrivate@VQString@@VcomplexType@@@@QAE?AV?$QMapIterator@VQString@@VcomplexType@@@@ABVQString@@@Z 10008630 f i bncs_instance_lookup.obj
 0001:000076f0       ?insertSingle@?$QMapPrivate@VQString@@VdeviceTypeInfo@@@@QAE?AV?$QMapIterator@VQString@@VdeviceTypeInfo@@@@ABVQString@@@Z 100086f0 f i bncs_instance_lookup.obj
 0001:000077b0       ?insertSingle@?$QMapPrivate@VQString@@VinstanceInfo@@@@QAE?AV?$QMapIterator@VQString@@VinstanceInfo@@@@ABVQString@@@Z 100087b0 f i bncs_instance_lookup.obj
 0001:00007870       ?insertSingle@?$QMapPrivate@VQString@@VparamInfo@@@@QAE?AV?$QMapIterator@VQString@@VparamInfo@@@@ABVQString@@@Z 10008870 f i bncs_instance_lookup.obj
 0001:00007930       ?isEmpty@?$QMap@VQString@@Vstyleentry@@@@QBE_NXZ 10008930 f i bncs_stylesheet.obj
 0001:00007930       ?isEmpty@?$QMap@VQString@@VcomplexParam@@@@QBE_NXZ 10008930 f i bncs_instance_lookup.obj
 0001:00007930       ?empty@?$QMap@VQString@@VcomplexInstance@@@@QBE_NXZ 10008930 f i bncs_instance_lookup.obj
 0001:00007930       ?empty@?$QMap@VQString@@VdeviceTypeInfo@@@@QBE_NXZ 10008930 f i bncs_instance_lookup.obj
 0001:00007930       ?isEmpty@?$QMap@VQString@@VcomplexType@@@@QBE_NXZ 10008930 f i bncs_instance_lookup.obj
 0001:00007930       ?empty@?$QMap@VQString@@VinstanceInfo@@@@QBE_NXZ 10008930 f i bncs_instance_lookup.obj
 0001:00007930       ?isEmpty@?$QMap@VQString@@VcomplexInstance@@@@QBE_NXZ 10008930 f i bncs_instance_lookup.obj
 0001:00007930       ?isEmpty@?$QMap@VQString@@VparamInfo@@@@QBE_NXZ 10008930 f i bncs_instance_lookup.obj
 0001:00007930       ?empty@?$QMap@VQString@@VcomplexType@@@@QBE_NXZ 10008930 f i bncs_instance_lookup.obj
 0001:00007930       ?empty@?$QMap@VQString@@VparamInfo@@@@QBE_NXZ 10008930 f i bncs_instance_lookup.obj
 0001:00007930       ?isEmpty@?$QMap@VQString@@VdeviceTypeInfo@@@@QBE_NXZ 10008930 f i bncs_instance_lookup.obj
 0001:00007930       ?empty@?$QMap@VQString@@Vstyleentry@@@@QBE_NXZ 10008930 f i bncs_stylesheet.obj
 0001:00007930       ?empty@?$QMap@VQString@@VcomplexParam@@@@QBE_NXZ 10008930 f i bncs_instance_lookup.obj
 0001:00007930       ?isEmpty@?$QMap@VQString@@VinstanceInfo@@@@QBE_NXZ 10008930 f i bncs_instance_lookup.obj
 0001:00007940       ?keys@?$QMap@VQString@@VcomplexInstance@@@@QBE?AV?$QValueList@VQString@@@@XZ 10008940 f i bncs_instance_lookup.obj
 0001:00007940       ?keys@?$QMap@VQString@@VparamInfo@@@@QBE?AV?$QValueList@VQString@@@@XZ 10008940 f i bncs_instance_lookup.obj
 0001:00007940       ?keys@?$QMap@VQString@@VcomplexType@@@@QBE?AV?$QValueList@VQString@@@@XZ 10008940 f i bncs_instance_lookup.obj
 0001:00007a10       ?keys@?$QMap@VQString@@VcomplexParam@@@@QBE?AV?$QValueList@VQString@@@@XZ 10008a10 f i bncs_instance_lookup.obj
 0001:00007ae0       ?keys@?$QMap@VQString@@VdeviceTypeInfo@@@@QBE?AV?$QValueList@VQString@@@@XZ 10008ae0 f i bncs_instance_lookup.obj
 0001:00007ae0       ?keys@?$QMap@VQString@@Vstyleentry@@@@QBE?AV?$QValueList@VQString@@@@XZ 10008ae0 f i bncs_stylesheet.obj
 0001:00007bb0       ?keys@?$QMap@VQString@@VinstanceInfo@@@@QBE?AV?$QValueList@VQString@@@@XZ 10008bb0 f i bncs_instance_lookup.obj
 0001:00007c90       ?loadComplexType@bncs_instance_lookup@@SA_NABVQString@@AAVcomplexType@@@Z 10008c90 f   bncs_instance_lookup.obj
 0001:00008200       ?loadComplexTypes@bncs_instance_lookup@@SA_NXZ 10009200 f   bncs_instance_lookup.obj
 0001:00008430       ?loadDeviceParams@bncs_instance_lookup@@SA_NABVQString@@AAVdeviceTypeInfo@@@Z 10009430 f   bncs_instance_lookup.obj
 0001:000088f0       ?loadDeviceTypes@bncs_instance_lookup@@SA_NXZ 100098f0 f   bncs_instance_lookup.obj
 0001:00008b40       ?loadInstances@bncs_instance_lookup@@SA_NXZ 10009b40 f   bncs_instance_lookup.obj
 0001:000095d0       ?lookup@bncs_instance_lookup@@SA_NABVQString@@0AAV2@PAH22PAD@Z 1000a5d0 f   bncs_instance_lookup.obj
 0001:00009850       ?lookup@bncs_instance_lookup@@SA_NABVQString@@AAV2@111AA_N@Z 1000a850 f   bncs_instance_lookup.obj
 0001:00009a10       ?lookup@bncs_instance_lookup@@SA_NABVQString@@AAV2@PAH2PAD@Z 1000aa10 f   bncs_instance_lookup.obj
 0001:00009ba0       ?lookupComplex@bncs_instance_lookup@@SA_NABVQString@@00AAV2@PAH22PAD@Z 1000aba0 f   bncs_instance_lookup.obj
 0001:00009d90       ?lookupComposite@bncs_instance_lookup@@SA_NABVQString@@0AAV2@@Z 1000ad90 f   bncs_instance_lookup.obj
 0001:00009eb0       ?lookupComposite@bncs_instance_lookup@@SA_NABVQString@@AA_NAAV?$QMap@VQString@@V1@@@@Z 1000aeb0 f   bncs_instance_lookup.obj
 0001:00009fb0       ?lookupInstanceOfType@bncs_instance_lookup@@SA_NABVQString@@AAVQStringList@@@Z 1000afb0 f   bncs_instance_lookup.obj
 0001:0000a0f0       ?lookupType@bncs_instance_lookup@@SA_NABVQString@@AAV2@@Z 1000b0f0 f   bncs_instance_lookup.obj
 0001:0000a1f0       ?message@_Generic_error_category@std@@UBE?AV?$basic_string@DU?$char_traits@D@std@@V?$allocator@D@2@@2@H@Z 1000b1f0 f i bncs_instance_lookup.obj
 0001:0000a270       ?message@_Iostream_error_category@std@@UBE?AV?$basic_string@DU?$char_traits@D@std@@V?$allocator@D@2@@2@H@Z 1000b270 f i bncs_instance_lookup.obj
 0001:0000a2c0       ?message@_System_error_category@std@@UBE?AV?$basic_string@DU?$char_traits@D@std@@V?$allocator@D@2@@2@H@Z 1000b2c0 f i bncs_instance_lookup.obj
 0001:0000a340       ?name@_Generic_error_category@std@@UBEPBDXZ 1000b340 f i bncs_instance_lookup.obj
 0001:0000a350       ?name@_Iostream_error_category@std@@UBEPBDXZ 1000b350 f i bncs_instance_lookup.obj
 0001:0000a360       ?name@_System_error_category@std@@UBEPBDXZ 1000b360 f i bncs_instance_lookup.obj
 0001:0000a370       ?path@global@@SA?AVQString@@XZ 1000b370 f i bncs_instance_lookup.obj
 0001:0000a420       ?erase@?$QMap@VQString@@VcomplexInstance@@@@QAEXABVQString@@@Z 1000b420 f i bncs_instance_lookup.obj
 0001:0000a420       ?remove@?$QMap@VQString@@VcomplexInstance@@@@QAEXABVQString@@@Z 1000b420 f i bncs_instance_lookup.obj
 0001:0000a530       ?remove@?$QMap@VQString@@VcomplexParam@@@@QAEXV?$QMapIterator@VQString@@VcomplexParam@@@@@Z 1000b530 f i bncs_instance_lookup.obj
 0001:0000a530       ?erase@?$QMap@VQString@@VcomplexParam@@@@QAEXV?$QMapIterator@VQString@@VcomplexParam@@@@@Z 1000b530 f i bncs_instance_lookup.obj
 0001:0000a5f0       ?remove@?$QMap@VQString@@VdeviceTypeInfo@@@@QAEXABVQString@@@Z 1000b5f0 f i bncs_instance_lookup.obj
 0001:0000a5f0       ?erase@?$QMap@VQString@@VdeviceTypeInfo@@@@QAEXABVQString@@@Z 1000b5f0 f i bncs_instance_lookup.obj
 0001:0000a700       ?erase@?$QMap@VQString@@VinstanceInfo@@@@QAEXABVQString@@@Z 1000b700 f i bncs_instance_lookup.obj
 0001:0000a700       ?remove@?$QMap@VQString@@VinstanceInfo@@@@QAEXABVQString@@@Z 1000b700 f i bncs_instance_lookup.obj
 0001:0000a810       ?erase@?$QMap@VQString@@VinstanceInfo@@@@QAEXV?$QMapIterator@VQString@@VinstanceInfo@@@@@Z 1000b810 f i bncs_instance_lookup.obj
 0001:0000a810       ?remove@?$QMap@VQString@@VinstanceInfo@@@@QAEXV?$QMapIterator@VQString@@VinstanceInfo@@@@@Z 1000b810 f i bncs_instance_lookup.obj
 0001:0000a8d0       ?remove@?$QMap@VQString@@VparamInfo@@@@QAEXABVQString@@@Z 1000b8d0 f i bncs_instance_lookup.obj
 0001:0000a8d0       ?erase@?$QMap@VQString@@VparamInfo@@@@QAEXABVQString@@@Z 1000b8d0 f i bncs_instance_lookup.obj
 0001:0000a9e0       ?remove@?$QMap@VQString@@VparamInfo@@@@QAEXV?$QMapIterator@VQString@@VparamInfo@@@@@Z 1000b9e0 f i bncs_instance_lookup.obj
 0001:0000a9e0       ?erase@?$QMap@VQString@@VparamInfo@@@@QAEXV?$QMapIterator@VQString@@VparamInfo@@@@@Z 1000b9e0 f i bncs_instance_lookup.obj
 0001:0000aaa0       ?replace@?$QMap@VQString@@VcomplexInstance@@@@QAE?AV?$QMapIterator@VQString@@VcomplexInstance@@@@ABVQString@@ABVcomplexInstance@@@Z 1000baa0 f i bncs_instance_lookup.obj
 0001:0000ab60       ?replace@?$QMap@VQString@@VcomplexParam@@@@QAE?AV?$QMapIterator@VQString@@VcomplexParam@@@@ABVQString@@ABVcomplexParam@@@Z 1000bb60 f i bncs_instance_lookup.obj
 0001:0000ac10       ?replace@?$QMap@VQString@@VcomplexType@@@@QAE?AV?$QMapIterator@VQString@@VcomplexType@@@@ABVQString@@ABVcomplexType@@@Z 1000bc10 f i bncs_instance_lookup.obj
 0001:0000acd0       ?replace@?$QMap@VQString@@VdeviceTypeInfo@@@@QAE?AV?$QMapIterator@VQString@@VdeviceTypeInfo@@@@ABVQString@@ABVdeviceTypeInfo@@@Z 1000bcd0 f i bncs_instance_lookup.obj
 0001:0000ad00       ?replace@?$QMap@VQString@@VinstanceInfo@@@@QAE?AV?$QMapIterator@VQString@@VinstanceInfo@@@@ABVQString@@ABVinstanceInfo@@@Z 1000bd00 f i bncs_instance_lookup.obj
 0001:0000ad30       ?replace@?$QMap@VQString@@VparamInfo@@@@QAE?AV?$QMapIterator@VQString@@VparamInfo@@@@ABVQString@@ABVparamInfo@@@Z 1000bd30 f i bncs_instance_lookup.obj
 0001:0000add0       ?size@?$QMap@VQString@@VdeviceTypeInfo@@@@QBEIXZ 1000bdd0 f i bncs_instance_lookup.obj
 0001:0000add0       ?count@?$QMap@VQString@@VcomplexParam@@@@QBEIXZ 1000bdd0 f i bncs_instance_lookup.obj
 0001:0000add0       ?size@?$QMap@VQString@@VparamInfo@@@@QBEIXZ 1000bdd0 f i bncs_instance_lookup.obj
 0001:0000add0       ?size@?$QMap@VQString@@VcomplexParam@@@@QBEIXZ 1000bdd0 f i bncs_instance_lookup.obj
 0001:0000add0       ?count@?$QMap@VQString@@VcomplexType@@@@QBEIXZ 1000bdd0 f i bncs_instance_lookup.obj
 0001:0000add0       ?size@?$QMap@VQString@@Vstyleentry@@@@QBEIXZ 1000bdd0 f i bncs_stylesheet.obj
 0001:0000add0       ?size@?$QMap@VQString@@VcomplexType@@@@QBEIXZ 1000bdd0 f i bncs_instance_lookup.obj
 0001:0000add0       ?count@?$QMap@VQString@@VinstanceInfo@@@@QBEIXZ 1000bdd0 f i bncs_instance_lookup.obj
 0001:0000add0       ?count@?$QMap@VQString@@VcomplexInstance@@@@QBEIXZ 1000bdd0 f i bncs_instance_lookup.obj
 0001:0000add0       ?count@?$QMap@VQString@@Vstyleentry@@@@QBEIXZ 1000bdd0 f i bncs_stylesheet.obj
 0001:0000add0       ?size@?$QMap@VQString@@VcomplexInstance@@@@QBEIXZ 1000bdd0 f i bncs_instance_lookup.obj
 0001:0000add0       ?count@?$QMap@VQString@@VdeviceTypeInfo@@@@QBEIXZ 1000bdd0 f i bncs_instance_lookup.obj
 0001:0000add0       ?size@?$QMap@VQString@@VinstanceInfo@@@@QBEIXZ 1000bdd0 f i bncs_instance_lookup.obj
 0001:0000add0       ?count@?$QMap@VQString@@VparamInfo@@@@QBEIXZ 1000bdd0 f i bncs_instance_lookup.obj
 0001:0000ade0       ?values@?$QMap@VQString@@VcomplexInstance@@@@QBE?AV?$QValueList@VcomplexInstance@@@@XZ 1000bde0 f i bncs_instance_lookup.obj
 0001:0000aed0       ?values@?$QMap@VQString@@VcomplexParam@@@@QBE?AV?$QValueList@VcomplexParam@@@@XZ 1000bed0 f i bncs_instance_lookup.obj
 0001:0000afc0       ?values@?$QMap@VQString@@VcomplexType@@@@QBE?AV?$QValueList@VcomplexType@@@@XZ 1000bfc0 f i bncs_instance_lookup.obj
 0001:0000b0b0       ?values@?$QMap@VQString@@VdeviceTypeInfo@@@@QBE?AV?$QValueList@VdeviceTypeInfo@@@@XZ 1000c0b0 f i bncs_instance_lookup.obj
 0001:0000b1a0       ?values@?$QMap@VQString@@VinstanceInfo@@@@QBE?AV?$QValueList@VinstanceInfo@@@@XZ 1000c1a0 f i bncs_instance_lookup.obj
 0001:0000b290       ?values@?$QMap@VQString@@VparamInfo@@@@QBE?AV?$QValueList@VparamInfo@@@@XZ 1000c290 f i bncs_instance_lookup.obj
 0001:0000b380       ??0?$QMap@VQString@@Vstyleentry@@@@QAE@XZ 1000c380 f i bncs_stylesheet.obj
 0001:0000b400       ??0?$QMapNode@VQString@@Vstyleentry@@@@QAE@ABU0@@Z 1000c400 f i bncs_stylesheet.obj
 0001:0000b4c0       ??0?$QMapNode@VQString@@Vstyleentry@@@@QAE@ABVQString@@@Z 1000c4c0 f i bncs_stylesheet.obj
 0001:0000b550       ??0?$QMapPrivate@VQString@@Vstyleentry@@@@QAE@PBV0@@Z 1000c550 f i bncs_stylesheet.obj
 0001:0000b680       ??0?$QMapPrivate@VQString@@Vstyleentry@@@@QAE@XZ 1000c680 f i bncs_stylesheet.obj
 0001:0000b740       ??0?$QValueListPrivate@Vstyleentry@@@@QAE@ABV0@@Z 1000c740 f i bncs_stylesheet.obj
 0001:0000b830       ??0?$QValueListPrivate@Vstyleentry@@@@QAE@XZ 1000c830 f i bncs_stylesheet.obj
 0001:0000b8e0       ??0bncs_stylesheet@@QAE@XZ 1000c8e0 f   bncs_stylesheet.obj
 0001:0000b8f0       ??0styleentry@@QAE@ABV0@@Z 1000c8f0 f i bncs_stylesheet.obj
 0001:0000b970       ??0styleentry@@QAE@XZ      1000c970 f i bncs_stylesheet.obj
 0001:0000b9d0       ??1?$QMap@VQString@@Vstyleentry@@@@QAE@XZ 1000c9d0 f i bncs_stylesheet.obj
 0001:0000b9f0       ??1?$QMapPrivate@VQString@@Vstyleentry@@@@QAE@XZ 1000c9f0 f i bncs_stylesheet.obj
 0001:0000bac0       ??1bncs_stylesheet@@QAE@XZ 1000cac0 f   bncs_stylesheet.obj
 0001:0000bad0       ??1styleentry@@QAE@XZ      1000cad0 f i bncs_stylesheet.obj
 0001:0000bb40       ??4?$QMap@VQString@@Vstyleentry@@@@QAEAAV0@ABV0@@Z 1000cb40 f i bncs_stylesheet.obj
 0001:0000bb80       ??4styleentry@@QAEAAV0@ABV0@@Z 1000cb80 f i bncs_stylesheet.obj
 0001:0000bbc0       ??A?$QMap@VQString@@Vstyleentry@@@@QAEAAVstyleentry@@ABVQString@@@Z 1000cbc0 f i bncs_stylesheet.obj
 0001:0000bcd0       ??_G?$QValueListNode@Vstyleentry@@@@UAEPAXI@Z 1000ccd0 f i bncs_stylesheet.obj
 0001:0000bcd0       ??_E?$QValueListNode@Vstyleentry@@@@UAEPAXI@Z 1000ccd0 f i bncs_stylesheet.obj
 0001:0000bd60       ??_E?$QValueListPrivate@Vstyleentry@@@@UAEPAXI@Z 1000cd60 f i bncs_stylesheet.obj
 0001:0000bd60       ??_G?$QValueListPrivate@Vstyleentry@@@@UAEPAXI@Z 1000cd60 f i bncs_stylesheet.obj
 0001:0000bdb0       ?append@?$QValueList@Vstyleentry@@@@QAE?AV?$QValueListIterator@Vstyleentry@@@@ABVstyleentry@@@Z 1000cdb0 f i bncs_stylesheet.obj
 0001:0000be80       ?begin@?$QMap@VQString@@Vstyleentry@@@@QAE?AV?$QMapIterator@VQString@@Vstyleentry@@@@XZ 1000ce80 f i bncs_stylesheet.obj
 0001:0000bf00       ?clear@?$QMap@VQString@@Vstyleentry@@@@QAEXXZ 1000cf00 f i bncs_stylesheet.obj
 0001:0000bfc0       ?clear@?$QMapPrivate@VQString@@Vstyleentry@@@@QAEXPAU?$QMapNode@VQString@@Vstyleentry@@@@@Z 1000cfc0 f i bncs_stylesheet.obj
 0001:0000c070       ?constBegin@?$QMap@VQString@@VcomplexInstance@@@@QBE?AV?$QMapConstIterator@VQString@@VcomplexInstance@@@@XZ 1000d070 f i bncs_instance_lookup.obj
 0001:0000c070       ?constBegin@?$QMap@VQString@@VinstanceInfo@@@@QBE?AV?$QMapConstIterator@VQString@@VinstanceInfo@@@@XZ 1000d070 f i bncs_instance_lookup.obj
 0001:0000c070       ?begin@?$QMap@VQString@@VdeviceTypeInfo@@@@QBE?AV?$QMapConstIterator@VQString@@VdeviceTypeInfo@@@@XZ 1000d070 f i bncs_instance_lookup.obj
 0001:0000c070       ?constBegin@?$QMap@VQString@@VcomplexParam@@@@QBE?AV?$QMapConstIterator@VQString@@VcomplexParam@@@@XZ 1000d070 f i bncs_instance_lookup.obj
 0001:0000c070       ?begin@?$QMap@VQString@@Vstyleentry@@@@QBE?AV?$QMapConstIterator@VQString@@Vstyleentry@@@@XZ 1000d070 f i bncs_stylesheet.obj
 0001:0000c070       ?begin@?$QMap@VQString@@VcomplexParam@@@@QBE?AV?$QMapConstIterator@VQString@@VcomplexParam@@@@XZ 1000d070 f i bncs_instance_lookup.obj
 0001:0000c070       ?constBegin@?$QMap@VQString@@VparamInfo@@@@QBE?AV?$QMapConstIterator@VQString@@VparamInfo@@@@XZ 1000d070 f i bncs_instance_lookup.obj
 0001:0000c070       ?begin@?$QMap@VQString@@VcomplexInstance@@@@QBE?AV?$QMapConstIterator@VQString@@VcomplexInstance@@@@XZ 1000d070 f i bncs_instance_lookup.obj
 0001:0000c070       ?begin@?$QMap@VQString@@VinstanceInfo@@@@QBE?AV?$QMapConstIterator@VQString@@VinstanceInfo@@@@XZ 1000d070 f i bncs_instance_lookup.obj
 0001:0000c070       ?constBegin@?$QMap@VQString@@VcomplexType@@@@QBE?AV?$QMapConstIterator@VQString@@VcomplexType@@@@XZ 1000d070 f i bncs_instance_lookup.obj
 0001:0000c070       ?begin@?$QMap@VQString@@VcomplexType@@@@QBE?AV?$QMapConstIterator@VQString@@VcomplexType@@@@XZ 1000d070 f i bncs_instance_lookup.obj
 0001:0000c070       ?begin@?$QMap@VQString@@VparamInfo@@@@QBE?AV?$QMapConstIterator@VQString@@VparamInfo@@@@XZ 1000d070 f i bncs_instance_lookup.obj
 0001:0000c070       ?constBegin@?$QMap@VQString@@VdeviceTypeInfo@@@@QBE?AV?$QMapConstIterator@VQString@@VdeviceTypeInfo@@@@XZ 1000d070 f i bncs_instance_lookup.obj
 0001:0000c070       ?constBegin@?$QMap@VQString@@Vstyleentry@@@@QBE?AV?$QMapConstIterator@VQString@@Vstyleentry@@@@XZ 1000d070 f i bncs_stylesheet.obj
 0001:0000c090       ?copy@?$QMapPrivate@VQString@@Vstyleentry@@@@QAEPAU?$QMapNode@VQString@@Vstyleentry@@@@PAU2@@Z 1000d090 f i bncs_stylesheet.obj
 0001:0000c160       ?count@?$QMap@VQString@@VdeviceTypeInfo@@@@QBEIABVQString@@@Z 1000d160 f i bncs_instance_lookup.obj
 0001:0000c160       ?count@?$QMap@VQString@@Vstyleentry@@@@QBEIABVQString@@@Z 1000d160 f i bncs_stylesheet.obj
 0001:0000c1d0       ?count@bncs_stylesheet@@SAHXZ 1000d1d0 f   bncs_stylesheet.obj
 0001:0000c1e0       ?deleteStyle@bncs_stylesheet@@QAEXVQString@@@Z 1000d1e0 f   bncs_stylesheet.obj
 0001:0000c2e0       ?detach@?$QMap@VQString@@Vstyleentry@@@@IAEXXZ 1000d2e0 f i bncs_stylesheet.obj
 0001:0000c360       ?detachInternal@?$QMap@VQString@@Vstyleentry@@@@AAEXXZ 1000d360 f i bncs_stylesheet.obj
 0001:0000c3e0       ?doLoad@bncs_stylesheet@@SA_NXZ 1000d3e0 f   bncs_stylesheet.obj
 0001:0000ccf0       ?end@?$QMap@VQString@@Vstyleentry@@@@QAE?AV?$QMapIterator@VQString@@Vstyleentry@@@@XZ 1000dcf0 f i bncs_stylesheet.obj
 0001:0000cd70       ?find@?$QMap@VQString@@Vstyleentry@@@@QAE?AV?$QMapIterator@VQString@@Vstyleentry@@@@ABVQString@@@Z 1000dd70 f i bncs_stylesheet.obj
 0001:0000ce00       ?get@bncs_stylesheet@@QAEXAAVQString@@PAVQWidget@@@Z 1000de00 f   bncs_stylesheet.obj
 0001:0000ce20       ?getStyle@bncs_stylesheet@@SAXAAVQString@@PAVQWidget@@@Z 1000de20 f   bncs_stylesheet.obj
 0001:0000cf40       ?getStyleEntry@bncs_stylesheet@@QAEPAVstyleentry@@VQString@@@Z 1000df40 f   bncs_stylesheet.obj
 0001:0000cfc0       ?insert@?$QMap@VQString@@Vstyleentry@@@@QAE?AU?$QPair@V?$QMapIterator@VQString@@Vstyleentry@@@@_N@@ABU?$QPair@$$CBVQString@@Vstyleentry@@@@@Z 1000dfc0 f i bncs_stylesheet.obj
 0001:0000d0a0       ?insert@?$QMap@VQString@@Vstyleentry@@@@QAE?AV?$QMapIterator@VQString@@Vstyleentry@@@@ABVQString@@ABVstyleentry@@_N@Z 1000e0a0 f i bncs_stylesheet.obj
 0001:0000d180       ?insert@?$QMapPrivate@VQString@@Vstyleentry@@@@QAE?AV?$QMapIterator@VQString@@Vstyleentry@@@@PAUQMapNodeBase@@0ABVQString@@@Z 1000e180 f i bncs_stylesheet.obj
 0001:0000d270       ?insert@?$QValueListPrivate@Vstyleentry@@@@QAE?AV?$QValueListIterator@Vstyleentry@@@@V2@ABVstyleentry@@@Z 1000e270 f i bncs_stylesheet.obj
 0001:0000d340       ?insertSingle@?$QMapPrivate@VQString@@Vstyleentry@@@@QAE?AV?$QMapIterator@VQString@@Vstyleentry@@@@ABVQString@@@Z 1000e340 f i bncs_stylesheet.obj
 0001:0000d400       ?load@bncs_stylesheet@@SA_NXZ 1000e400 f   bncs_stylesheet.obj
 0001:0000d540       ?reLoad@bncs_stylesheet@@SA_NXZ 1000e540 f   bncs_stylesheet.obj
 0001:0000d550       ?erase@?$QMap@VQString@@Vstyleentry@@@@QAEXABVQString@@@Z 1000e550 f i bncs_stylesheet.obj
 0001:0000d550       ?remove@?$QMap@VQString@@Vstyleentry@@@@QAEXABVQString@@@Z 1000e550 f i bncs_stylesheet.obj
 0001:0000d620       ?remove@?$QMap@VQString@@Vstyleentry@@@@QAEXV?$QMapIterator@VQString@@Vstyleentry@@@@@Z 1000e620 f i bncs_stylesheet.obj
 0001:0000d620       ?erase@?$QMap@VQString@@Vstyleentry@@@@QAEXV?$QMapIterator@VQString@@Vstyleentry@@@@@Z 1000e620 f i bncs_stylesheet.obj
 0001:0000d6a0       ?remove@?$QMapPrivate@VQString@@Vstyleentry@@@@QAEXV?$QMapIterator@VQString@@Vstyleentry@@@@@Z 1000e6a0 f i bncs_stylesheet.obj
 0001:0000d750       ?replace@?$QMap@VQString@@Vstyleentry@@@@QAE?AV?$QMapIterator@VQString@@Vstyleentry@@@@ABVQString@@ABVstyleentry@@@Z 1000e750 f i bncs_stylesheet.obj
 0001:0000d780       ?save@bncs_stylesheet@@QAE_NXZ 1000e780 f   bncs_stylesheet.obj
 0001:0000dec0       ?set@bncs_stylesheet@@QAEXAAVQString@@AAVstyleentry@@@Z 1000eec0 f   bncs_stylesheet.obj
 0001:0000df10       ?settingslist@bncs_stylesheet@@QAE?BVQStringList@@AAVQString@@@Z 1000ef10 f   bncs_stylesheet.obj
 0001:0000e020       ?styleExist@bncs_stylesheet@@QAE_NVQString@@@Z 1000f020 f   bncs_stylesheet.obj
 0001:0000e090       ?stylelist@bncs_stylesheet@@QAE?BV?$QMap@VQString@@Vstyleentry@@@@XZ 1000f090 f   bncs_stylesheet.obj
 0001:0000e0b0       ?values@?$QMap@VQString@@Vstyleentry@@@@QBE?AV?$QValueList@Vstyleentry@@@@XZ 1000f0b0 f i bncs_stylesheet.obj
 0001:0000e1a0       ??0complexInstance@@QAE@XZ 1000f1a0 f   complexInstance.obj
 0001:0000e220       ??1complexInstance@@UAE@XZ 1000f220 f   complexInstance.obj
 0001:0000e250       ??0complexParam@@QAE@XZ    1000f250 f   complexParamInfo.obj
 0001:0000e2b0       ??1complexParam@@UAE@XZ    1000f2b0 f   complexParamInfo.obj
 0001:0000e310       ??0complexType@@QAE@XZ     1000f310 f   complexType.obj
 0001:0000e390       ??1complexType@@UAE@XZ     1000f390 f   complexType.obj
 0001:0000e3c0       ??0deviceTypeInfo@@QAE@XZ  1000f3c0 f   deviceTypeInfo.obj
 0001:0000e440       ??1deviceTypeInfo@@UAE@XZ  1000f440 f   deviceTypeInfo.obj
 0001:0000e470       ?developerMode@@YA_NXZ     1000f470 f   env.obj
 0001:0000e4a0       ??0instanceInfo@@QAE@XZ    1000f4a0 f   instanceInfo.obj
 0001:0000e540       ??1instanceInfo@@UAE@XZ    1000f540 f   instanceInfo.obj
 0001:0000e5d0       _DllMain@12                1000f5d0 f   main.obj
 0001:0000e640       ??0paramInfo@@QAE@XZ       1000f640 f   paramInfo.obj
 0001:0000e650       ??1paramInfo@@UAE@XZ       1000f650 f   paramInfo.obj
 0001:0000e657       ??_M@YGXPAXIHP6EX0@Z@Z     1000f657 f   MSVCRT:ehvecdtr.obj
 0001:0000e6c6       ?__ArrayUnwind@@YGXPAXIHP6EX0@Z@Z 1000f6c6 f   MSVCRT:ehvecdtr.obj
 0001:0000e724       __purecall                 1000f724 f   MSVCRT:MSVCR120.dll
 0001:0000e72a       ??2@YAPAXI@Z               1000f72a f   MSVCRT:MSVCR120.dll
 0001:0000e730       ??3@YAXPAX@Z               1000f730 f   MSVCRT:MSVCR120.dll
 0001:0000e736       ___atonexitinit            1000f736 f   MSVCRT:atonexit.obj
 0001:0000e772       __onexit                   1000f772 f   MSVCRT:atonexit.obj
 0001:0000e81b       _atexit                    1000f81b f   MSVCRT:atonexit.obj
 0001:0000e830       @__security_check_cookie@4 1000f830 f   MSVCRT:secchk.obj
 0001:0000e840       __CxxThrowException@8      1000f840 f   MSVCRT:MSVCR120.dll
 0001:0000e846       ___CxxFrameHandler3        1000f846 f   MSVCRT:MSVCR120.dll
 0001:0000e84c       _memcpy                    1000f84c f   MSVCRT:MSVCR120.dll
 0001:0000e852       ??_Etype_info@@UAEPAXI@Z   1000f852 f i MSVCRT:ti_inst.obj
 0001:0000e8ec       __CRT_INIT@12              1000f8ec f   MSVCRT:crtdll.obj
 0001:0000eae3       __DllMainCRTStartup@12     1000fae3 f   MSVCRT:crtdll.obj
 0001:0000ec3a       ?terminate@@YAXXZ          1000fc3a f   MSVCRT:MSVCR120.dll
 0001:0000ec40       __SEH_prolog4              1000fc40 f   MSVCRT:sehprolg4.obj
 0001:0000ec85       __SEH_epilog4              1000fc85 f   MSVCRT:sehprolg4.obj
 0001:0000ec99       __except_handler4          1000fc99 f   MSVCRT:chandler4gs.obj
 0001:0000ecbc       __lock                     1000fcbc f   MSVCRT:MSVCR120.dll
 0001:0000ecc2       __unlock                   1000fcc2 f   MSVCRT:MSVCR120.dll
 0001:0000ecc8       ___dllonexit               1000fcc8 f   MSVCRT:MSVCR120.dll
 0001:0000ecce       ___raise_securityfailure   1000fcce f   MSVCRT:gs_report.obj
 0001:0000ed0b       ___report_gsfailure        1000fd0b f   MSVCRT:gs_report.obj
 0001:0000ee06       ??1type_info@@UAE@XZ       1000fe06 f   MSVCRT:MSVCR120.dll
 0001:0000ee0c       ___CppXcptFilter           1000fe0c f   MSVCRT:MSVCR120.dll
 0001:0000ee12       __amsg_exit                1000fe12 f   MSVCRT:MSVCR120.dll
 0001:0000ee20       __FindPESection            1000fe20 f   MSVCRT:pesect.obj
 0001:0000ee70       __IsNonwritableInCurrentImage 1000fe70 f   MSVCRT:pesect.obj
 0001:0000ef30       __ValidateImageBase        1000ff30 f   MSVCRT:pesect.obj
 0001:0000ef61       ___security_init_cookie    1000ff61 f   MSVCRT:gs_support.obj
 0001:0000effd       __RTC_Initialize           1000fffd f   MSVCRT:initsect.obj
 0001:0000f01d       __RTC_Terminate            1001001d f   MSVCRT:initsect.obj
 0001:0000f03e       __initterm                 1001003e f   MSVCRT:MSVCR120.dll
 0001:0000f044       __initterm_e               10010044 f   MSVCRT:MSVCR120.dll
 0001:0000f04a       ___clean_type_info_names   1001004a f   MSVCRT:tncleanup.obj
 0001:0000f056       __except_handler4_common   10010056 f   MSVCRT:MSVCR120.dll
 0001:0000f05c       __crt_debugger_hook        1001005c f   MSVCRT:MSVCR120.dll
 0001:0000f062       ___crtUnhandledException   10010062 f   MSVCRT:MSVCR120.dll
 0001:0000f068       ___crtTerminateProcess     10010068 f   MSVCRT:MSVCR120.dll
 0001:0000f06e       ___clean_type_info_names_internal 1001006e f   MSVCRT:MSVCR120.dll
 0001:0000f074       _IsProcessorFeaturePresent@4 10010074 f   kernel32:KERNEL32.dll
 0002:00000000       __imp__GetSystemTimeAsFileTime@4 10013000     kernel32:KERNEL32.dll
 0002:00000004       __imp__GetCurrentThreadId@0 10013004     kernel32:KERNEL32.dll
 0002:00000008       __imp__GetCurrentProcessId@0 10013008     kernel32:KERNEL32.dll
 0002:0000000c       __imp__QueryPerformanceCounter@4 1001300c     kernel32:KERNEL32.dll
 0002:00000010       __imp__IsProcessorFeaturePresent@4 10013010     kernel32:KERNEL32.dll
 0002:00000014       __imp__IsDebuggerPresent@0 10013014     kernel32:KERNEL32.dll
 0002:00000018       __imp__DecodePointer@4     10013018     kernel32:KERNEL32.dll
 0002:0000001c       __imp__EncodePointer@4     1001301c     kernel32:KERNEL32.dll
 0002:00000020       __imp__OutputDebugStringA@4 10013020     kernel32:KERNEL32.dll
 0002:00000024       \177KERNEL32_NULL_THUNK_DATA 10013024     kernel32:KERNEL32.dll
 0002:00000028       __imp_?_Xbad_alloc@std@@YAXXZ 10013028     msvcprt:MSVCP120.dll
 0002:0000002c       __imp_?_Xout_of_range@std@@YAXPBD@Z 1001302c     msvcprt:MSVCP120.dll
 0002:00000030       __imp_?_Syserror_map@std@@YAPBDH@Z 10013030     msvcprt:MSVCP120.dll
 0002:00000034       __imp_?_Winerror_map@std@@YAPBDH@Z 10013034     msvcprt:MSVCP120.dll
 0002:00000038       __imp_?_Xlength_error@std@@YAXPBD@Z 10013038     msvcprt:MSVCP120.dll
 0002:0000003c       \177MSVCP120_NULL_THUNK_DATA 1001303c     msvcprt:MSVCP120.dll
 0002:00000040       __imp___malloc_crt         10013040     MSVCRT:MSVCR120.dll
 0002:00000044       __imp__free                10013044     MSVCRT:MSVCR120.dll
 0002:00000048       __imp___amsg_exit          10013048     MSVCRT:MSVCR120.dll
 0002:0000004c       __imp____CppXcptFilter     1001304c     MSVCRT:MSVCR120.dll
 0002:00000050       __imp_??1type_info@@UAE@XZ 10013050     MSVCRT:MSVCR120.dll
 0002:00000054       __imp___onexit             10013054     MSVCRT:MSVCR120.dll
 0002:00000058       __imp____crtTerminateProcess 10013058     MSVCRT:MSVCR120.dll
 0002:0000005c       __imp___calloc_crt         1001305c     MSVCRT:MSVCR120.dll
 0002:00000060       __imp___unlock             10013060     MSVCRT:MSVCR120.dll
 0002:00000064       __imp___initterm           10013064     MSVCRT:MSVCR120.dll
 0002:00000068       __imp_?terminate@@YAXXZ    10013068     MSVCRT:MSVCR120.dll
 0002:0000006c       __imp__memcpy              1001306c     MSVCRT:MSVCR120.dll
 0002:00000070       __imp____CxxFrameHandler3  10013070     MSVCRT:MSVCR120.dll
 0002:00000074       __imp___CxxThrowException@8 10013074     MSVCRT:MSVCR120.dll
 0002:00000078       __imp__getenv              10013078     MSVCRT:MSVCR120.dll
 0002:0000007c       __imp__memmove             1001307c     MSVCRT:MSVCR120.dll
 0002:00000080       __imp_??3@YAXPAX@Z         10013080     MSVCRT:MSVCR120.dll
 0002:00000084       __imp_??2@YAPAXI@Z         10013084     MSVCRT:MSVCR120.dll
 0002:00000088       __imp___purecall           10013088     MSVCRT:MSVCR120.dll
 0002:0000008c       __imp___initterm_e         1001308c     MSVCRT:MSVCR120.dll
 0002:00000090       __imp___except_handler4_common 10013090     MSVCRT:MSVCR120.dll
 0002:00000094       __imp___crt_debugger_hook  10013094     MSVCRT:MSVCR120.dll
 0002:00000098       __imp___lock               10013098     MSVCRT:MSVCR120.dll
 0002:0000009c       __imp____crtUnhandledException 1001309c     MSVCRT:MSVCR120.dll
 0002:000000a0       __imp____clean_type_info_names_internal 100130a0     MSVCRT:MSVCR120.dll
 0002:000000a4       __imp____dllonexit         100130a4     MSVCRT:MSVCR120.dll
 0002:000000a8       __imp___stricmp            100130a8     MSVCRT:MSVCR120.dll
 0002:000000a8       __imp__stricmp             100130a8     MSVCRT:MSVCR120.dll
 0002:000000ac       \177MSVCR120_NULL_THUNK_DATA 100130ac     MSVCRT:MSVCR120.dll
 0002:000000b0       __imp__MessageBoxA@16      100130b0     user32:USER32.dll
 0002:000000b4       \177USER32_NULL_THUNK_DATA 100130b4     user32:USER32.dll
 0002:000000b8       __imp_?attribute@QDomElement@@QBE?AVQString@@ABV2@0@Z 100130b8     qt-mt323:qt-mt323.dll
 0002:000000bc       __imp_?tagName@QDomElement@@QBE?AVQString@@XZ 100130bc     qt-mt323:qt-mt323.dll
 0002:000000c0       __imp_??0QFile@@QAE@ABVQString@@@Z 100130c0     qt-mt323:qt-mt323.dll
 0002:000000c4       __imp_??1QFile@@UAE@XZ     100130c4     qt-mt323:qt-mt323.dll
 0002:000000c8       __imp_?open@QFile@@UAE_NH@Z 100130c8     qt-mt323:qt-mt323.dll
 0002:000000cc       __imp_??0QDir@@QAE@ABVQString@@0HH@Z 100130cc     qt-mt323:qt-mt323.dll
 0002:000000d0       __imp_??1QDir@@UAE@XZ      100130d0     qt-mt323:qt-mt323.dll
 0002:000000d4       __imp_?entryList@QDir@@UBE?AVQStringList@@ABVQString@@HH@Z 100130d4     qt-mt323:qt-mt323.dll
 0002:000000d8       __imp_?exists@QDir@@UBE_NXZ 100130d8     qt-mt323:qt-mt323.dll
 0002:000000dc       __imp_?null@QString@@2V1@A 100130dc     qt-mt323:qt-mt323.dll
 0002:000000e0       __imp_?deleteSelf@QStringData@@QAEXXZ 100130e0     qt-mt323:qt-mt323.dll
 0002:000000e4       __imp_?makeSharedNull@QString@@CAPAUQStringData@@XZ 100130e4     qt-mt323:qt-mt323.dll
 0002:000000e8       __imp_??H@YA?BVQString@@ABV0@0@Z 100130e8     qt-mt323:qt-mt323.dll
 0002:000000ec       __imp_?appendChild@QDomNode@@UAE?AV1@ABV1@@Z 100130ec     qt-mt323:qt-mt323.dll
 0002:000000f0       __imp_?save@QDomNode@@QBEXAAVQTextStream@@H@Z 100130f0     qt-mt323:qt-mt323.dll
 0002:000000f4       __imp_?createElement@QDomDocument@@QAE?AVQDomElement@@ABVQString@@@Z 100130f4     qt-mt323:qt-mt323.dll
 0002:000000f8       __imp_?isDocument@QDomDocument@@UBE_NXZ 100130f8     qt-mt323:qt-mt323.dll
 0002:000000fc       __imp_??0QDomElement@@QAE@XZ 100130fc     qt-mt323:qt-mt323.dll
 0002:00000100       __imp_??4QDomElement@@QAEAAV0@ABV0@@Z 10013100     qt-mt323:qt-mt323.dll
 0002:00000104       __imp_?documentElement@QDomDocument@@QBE?AVQDomElement@@XZ 10013104     qt-mt323:qt-mt323.dll
 0002:00000108       __imp_??0QDomText@@QAE@XZ  10013108     qt-mt323:qt-mt323.dll
 0002:0000010c       __imp_??1QDomElement@@UAE@XZ 1001310c     qt-mt323:qt-mt323.dll
 0002:00000110       __imp_?exists@QFile@@QBE_NXZ 10013110     qt-mt323:qt-mt323.dll
 0002:00000114       __imp_?close@QFile@@UAEXXZ 10013114     qt-mt323:qt-mt323.dll
 0002:00000118       __imp_??0QTextStream@@QAE@PAVQIODevice@@@Z 10013118     qt-mt323:qt-mt323.dll
 0002:0000011c       __imp_??1QTextStream@@UAE@XZ 1001311c     qt-mt323:qt-mt323.dll
 0002:00000120       __imp_??Y?$QValueList@VQString@@@@QAEAAV0@ABVQString@@@Z 10013120     qt-mt323:qt-mt323.dll
 0002:00000124       __imp_??0QStringList@@QAE@XZ 10013124     qt-mt323:qt-mt323.dll
 0002:00000128       __imp_??0QStringList@@QAE@ABV0@@Z 10013128     qt-mt323:qt-mt323.dll
 0002:0000012c       __imp_??4QStringList@@QAEAAV0@ABV0@@Z 1001312c     qt-mt323:qt-mt323.dll
 0002:00000130       __imp_?question@QMessageBox@@SAHPAVQWidget@@ABVQString@@1HHH@Z 10013130     qt-mt323:qt-mt323.dll
 0002:00000134       __imp_?warning@QMessageBox@@SAHPAVQWidget@@ABVQString@@1111HH@Z 10013134     qt-mt323:qt-mt323.dll
 0002:00000138       __imp_??9QDateTime@@QBE_NABV0@@Z 10013138     qt-mt323:qt-mt323.dll
 0002:0000013c       __imp_??0QFileInfo@@QAE@ABVQString@@@Z 1001313c     qt-mt323:qt-mt323.dll
 0002:00000140       __imp_??1QFileInfo@@QAE@XZ 10013140     qt-mt323:qt-mt323.dll
 0002:00000144       __imp_?lastModified@QFileInfo@@QBE?AVQDateTime@@XZ 10013144     qt-mt323:qt-mt323.dll
 0002:00000148       __imp_?shared_null@QString@@0PAUQStringData@@A 10013148     qt-mt323:qt-mt323.dll
 0002:0000014c       __imp_??0?$QMap@VQString@@V1@@@QAE@XZ 1001314c     qt-mt323:qt-mt323.dll
 0002:00000150       __imp_??1?$QMap@VQString@@V1@@@QAE@XZ 10013150     qt-mt323:qt-mt323.dll
 0002:00000154       __imp_??1QDomDocument@@UAE@XZ 10013154     qt-mt323:qt-mt323.dll
 0002:00000158       __imp_??0QDomDocument@@QAE@ABVQString@@@Z 10013158     qt-mt323:qt-mt323.dll
 0002:0000015c       __imp_?setContent@QDomDocument@@QAE_NPAVQIODevice@@_NPAVQString@@PAH3@Z 1001315c     qt-mt323:qt-mt323.dll
 0002:00000160       __imp_??1QDomText@@UAE@XZ  10013160     qt-mt323:qt-mt323.dll
 0002:00000164       __imp_?toElement@QDomNode@@QAE?AVQDomElement@@XZ 10013164     qt-mt323:qt-mt323.dll
 0002:00000168       __imp_?isNull@QDomNode@@QBE_NXZ 10013168     qt-mt323:qt-mt323.dll
 0002:0000016c       __imp_?nextSibling@QDomNode@@UBE?AV1@XZ 1001316c     qt-mt323:qt-mt323.dll
 0002:00000170       __imp_?firstChild@QDomNode@@UBE?AV1@XZ 10013170     qt-mt323:qt-mt323.dll
 0002:00000174       __imp_??1QDomNode@@UAE@XZ  10013174     qt-mt323:qt-mt323.dll
 0002:00000178       __imp_??4QDomNode@@QAEAAV0@ABV0@@Z 10013178     qt-mt323:qt-mt323.dll
 0002:0000017c       __imp_??1QStringList@@QAE@XZ 1001317c     qt-mt323:qt-mt323.dll
 0002:00000180       __imp_?split@QStringList@@SA?AV1@ABVQString@@0_N@Z 10013180     qt-mt323:qt-mt323.dll
 0002:00000184       __imp_?insert@?$QMap@VQString@@V1@@@QAE?AV?$QMapIterator@VQString@@V1@@@ABVQString@@0_N@Z 10013184     qt-mt323:qt-mt323.dll
 0002:00000188       __imp_?find@?$QMap@VQString@@V1@@@QAE?AV?$QMapIterator@VQString@@V1@@@ABVQString@@@Z 10013188     qt-mt323:qt-mt323.dll
 0002:0000018c       __imp_?end@?$QMap@VQString@@V1@@@QAE?AV?$QMapIterator@VQString@@V1@@@XZ 1001318c     qt-mt323:qt-mt323.dll
 0002:00000190       __imp_??4?$QMap@VQString@@V1@@@QAEAAV0@ABV0@@Z 10013190     qt-mt323:qt-mt323.dll
 0002:00000194       __imp_?removeAndRebalance@QMapPrivateBase@@QAEPAUQMapNodeBase@@PAU2@AAPAU2@11@Z 10013194     qt-mt323:qt-mt323.dll
 0002:00000198       __imp_?rebalance@QMapPrivateBase@@QAEXPAUQMapNodeBase@@AAPAU2@@Z 10013198     qt-mt323:qt-mt323.dll
 0002:0000019c       __imp_?detachInternal@?$QValueList@VQString@@@@AAEXXZ 1001319c     qt-mt323:qt-mt323.dll
 0002:000001a0       __imp_??A?$QValueList@VQString@@@@QAEAAVQString@@I@Z 100131a0     qt-mt323:qt-mt323.dll
 0002:000001a4       __imp_?append@?$QValueList@VQString@@@@QAE?AV?$QValueListIterator@VQString@@@@ABVQString@@@Z 100131a4     qt-mt323:qt-mt323.dll
 0002:000001a8       __imp_??6?$QValueList@VQString@@@@QAEAAV0@ABVQString@@@Z 100131a8     qt-mt323:qt-mt323.dll
 0002:000001ac       __imp_??1?$QValueList@VQString@@@@QAE@XZ 100131ac     qt-mt323:qt-mt323.dll
 0002:000001b0       __imp_??0?$QValueList@VQString@@@@QAE@XZ 100131b0     qt-mt323:qt-mt323.dll
 0002:000001b4       __imp_??H@YA?BVQString@@PBDABV0@@Z 100131b4     qt-mt323:qt-mt323.dll
 0002:000001b8       __imp_??H@YA?BVQString@@ABV0@PBD@Z 100131b8     qt-mt323:qt-mt323.dll
 0002:000001bc       __imp_??8@YA_NABVQString@@PBD@Z 100131bc     qt-mt323:qt-mt323.dll
 0002:000001c0       __imp_??9@YA_NABVQString@@PBD@Z 100131c0     qt-mt323:qt-mt323.dll
 0002:000001c4       __imp_??8@YA_NABVQString@@0@Z 100131c4     qt-mt323:qt-mt323.dll
 0002:000001c8       __imp_??M@YA_NABVQString@@0@Z 100131c8     qt-mt323:qt-mt323.dll
 0002:000001cc       __imp_??9@YA_NABVQString@@0@Z 100131cc     qt-mt323:qt-mt323.dll
 0002:000001d0       __imp_?latin1@QCharRef@@QBEDXZ 100131d0     qt-mt323:qt-mt323.dll
 0002:000001d4       __imp_?ascii@QString@@QBEPBDXZ 100131d4     qt-mt323:qt-mt323.dll
 0002:000001d8       __imp_??YQString@@QAEAAV0@ABV0@@Z 100131d8     qt-mt323:qt-mt323.dll
 0002:000001dc       __imp_?toInt@QString@@QBEHPA_NH@Z 100131dc     qt-mt323:qt-mt323.dll
 0002:000001e0       __imp_?lower@QString@@QBE?AV1@XZ 100131e0     qt-mt323:qt-mt323.dll
 0002:000001e4       __imp_?left@QString@@QBE?AV1@I@Z 100131e4     qt-mt323:qt-mt323.dll
 0002:000001e8       __imp_?arg@QString@@QBE?AV1@ABV1@H@Z 100131e8     qt-mt323:qt-mt323.dll
 0002:000001ec       __imp_?arg@QString@@QBE?AV1@HHH@Z 100131ec     qt-mt323:qt-mt323.dll
 0002:000001f0       __imp_??4QString@@QAEAAV0@PBD@Z 100131f0     qt-mt323:qt-mt323.dll
 0002:000001f4       __imp_??4QString@@QAEAAV0@ABV0@@Z 100131f4     qt-mt323:qt-mt323.dll
 0002:000001f8       __imp_??1QString@@QAE@XZ   100131f8     qt-mt323:qt-mt323.dll
 0002:000001fc       __imp_??0QString@@QAE@PBD@Z 100131fc     qt-mt323:qt-mt323.dll
 0002:00000200       __imp_??0QString@@QAE@ABV0@@Z 10013200     qt-mt323:qt-mt323.dll
 0002:00000204       __imp_??0QString@@QAE@XZ   10013204     qt-mt323:qt-mt323.dll
 0002:00000208       __imp_?setAttribute@QDomElement@@QAEXABVQString@@0@Z 10013208     qt-mt323:qt-mt323.dll
 0002:0000020c       __imp_?qDebug@@YAXPBDZZ    1001320c     qt-mt323:qt-mt323.dll
 0002:00000210       \177qt-mt323_NULL_THUNK_DATA 10013210     qt-mt323:qt-mt323.dll
 0002:00000214       ___xc_a                    10013214     MSVCRT:cinitexe.obj
 0002:00000238       ___xc_z                    10013238     MSVCRT:cinitexe.obj
 0002:0000023c       ___xi_a                    1001323c     MSVCRT:cinitexe.obj
 0002:00000248       ___xi_z                    10013248     MSVCRT:cinitexe.obj
 0002:00000254       ??_7instanceInfo@@6B@      10013254     bncs_instance_lookup.obj
 0002:0000025c       ??_7paramInfo@@6B@         1001325c     bncs_instance_lookup.obj
 0002:00000264       ??_7deviceTypeInfo@@6B@    10013264     bncs_instance_lookup.obj
 0002:0000026c       ??_7complexParam@@6B@      1001326c     bncs_instance_lookup.obj
 0002:00000274       ??_7complexInstance@@6B@   10013274     bncs_instance_lookup.obj
 0002:0000027c       ??_7complexType@@6B@       1001327c     bncs_instance_lookup.obj
 0002:00000284       ??_7bncs_instance_lookup@@6B@ 10013284     bncs_instance_lookup.obj
 0002:00000288       ??_C@_00CNPNBAHC@?$AA@     10013288     bncs_instance_lookup.obj
 0002:00000290       ??_7error_category@std@@6B@ 10013290     bncs_instance_lookup.obj
 0002:000002ac       ??_7_Generic_error_category@std@@6B@ 100132ac     bncs_instance_lookup.obj
 0002:000002c4       ??_C@_07DCLBNMLN@generic?$AA@ 100132c4     bncs_instance_lookup.obj
 0002:000002cc       ??_C@_0O@BFJCFAAK@unknown?5error?$AA@ 100132cc     bncs_instance_lookup.obj
 0002:000002e0       ??_7_Iostream_error_category@std@@6B@ 100132e0     bncs_instance_lookup.obj
 0002:000002f8       ??_C@_08LLGCOLLL@iostream?$AA@ 100132f8     bncs_instance_lookup.obj
 0002:00000304       ??_C@_0BG@PADBLCHM@iostream?5stream?5error?$AA@ 10013304     bncs_instance_lookup.obj
 0002:00000320       ??_7_System_error_category@std@@6B@ 10013320     bncs_instance_lookup.obj
 0002:00000338       ??_C@_06FHFOAHML@system?$AA@ 10013338     bncs_instance_lookup.obj
 0002:00000340       ??_C@_09DDAHAMBK@CC_SYSTEM?$AA@ 10013340     bncs_instance_lookup.obj
 0002:0000034c       ??_C@_01KICIPPFI@?2?$AA@   1001334c     bncs_instance_lookup.obj
 0002:00000350       ??_C@_07JBEBLGDD@CC_ROOT?$AA@ 10013350     bncs_instance_lookup.obj
 0002:00000358       ??_C@_0DE@IJLPPKKB@bncs_instance_lookup?3?3lookup?3?5Ca@ 10013358     bncs_instance_lookup.obj
 0002:0000038c       ??_C@_0DF@NFBNELM@bncs_instance_lookup?3?3lookup?3?5no@ 1001338c     bncs_instance_lookup.obj
 0002:000003c4       ??_C@_0DF@DJKDPOBC@bncs_instance_lookup?3?3lookup?3?5no@ 100133c4     bncs_instance_lookup.obj
 0002:000003fc       ??_C@_0DD@BPDBHCHK@bncs_instance_lookup?3?3lookup?3?5ca@ 100133fc     bncs_instance_lookup.obj
 0002:00000430       ??_C@_0BG@KDLENENG@?2config?2instances?4xml?$AA@ 10013430     bncs_instance_lookup.obj
 0002:00000448       ??_C@_09BJOJOOIO@instances?$AA@ 10013448     bncs_instance_lookup.obj
 0002:00000454       ??_C@_0DD@HBFNHPKC@bncs_instance_lookup?3?5Could?5not?5@ 10013454     bncs_instance_lookup.obj
 0002:00000488       ??_C@_0CO@KHKBCDAE@bncs_instance_lookup?3?5Error?5in?5i@ 10013488     bncs_instance_lookup.obj
 0002:000004b8       ??_C@_0DG@JPDANKLE@bncs_instance_lookup?3?5The?5instan@ 100134b8     bncs_instance_lookup.obj
 0002:000004f0       ??_C@_08EMNENPBA@instance?$AA@ 100134f0     bncs_instance_lookup.obj
 0002:000004fc       ??_C@_04GPMDFGEJ@type?$AA@ 100134fc     bncs_instance_lookup.obj
 0002:00000504       ??_C@_06OJMPKPAG@alt_id?$AA@ 10013504     bncs_instance_lookup.obj
 0002:0000050c       ??_C@_08CBBFJFMD@location?$AA@ 1001350c     bncs_instance_lookup.obj
 0002:00000518       ??_C@_03GCDGINBO@ref?$AA@  10013518     bncs_instance_lookup.obj
 0002:0000051c       ??_C@_03ICICOMAL@yes?$AA@  1001351c     bncs_instance_lookup.obj
 0002:00000520       ??_C@_09EIHFMDLJ@composite?$AA@ 10013520     bncs_instance_lookup.obj
 0002:0000052c       ??_C@_05MGJOOGAJ@group?$AA@ 1001352c     bncs_instance_lookup.obj
 0002:00000534       ??_C@_02EGCJHIOB@id?$AA@   10013534     bncs_instance_lookup.obj
 0002:00000538       ??_C@_01IHBHIGKO@?0?$AA@   10013538     bncs_instance_lookup.obj
 0002:0000053c       ??_C@_01NEMOKFLO@?$DN?$AA@ 1001353c     bncs_instance_lookup.obj
 0002:00000540       ??_C@_06CHPEJBOD@device?$AA@ 10013540     bncs_instance_lookup.obj
 0002:00000548       ??_C@_06KLHHMIGM@offset?$AA@ 10013548     bncs_instance_lookup.obj
 0002:00000550       ??_C@_07CMPFPFAH@complex?$AA@ 10013550     bncs_instance_lookup.obj
 0002:00000558       ??_C@_01EEMJAFIK@?6?$AA@   10013558     bncs_instance_lookup.obj
 0002:0000055c       ??_C@_01GPOEFGEJ@?7?$AA@   1001355c     bncs_instance_lookup.obj
 0002:00000560       ??_C@_0FA@PICAIIIA@tag?5name?5in?5instances?4xml?5does?5n@ 10013560     bncs_instance_lookup.obj
 0002:000005b0       ??_C@_0CP@KNHLEBLA@Duplicate?5instances?3?6?6?$CF1?6?5check?5@ 100135b0     bncs_instance_lookup.obj
 0002:000005e0       ??_C@_0BO@BNKKJAJE@BNCS?5V4?45?5configuration?5error?$AA@ 100135e0     bncs_instance_lookup.obj
 0002:00000600       ??_C@_0M@KNNHAKMH@?$CFs?5?$CFs?5?$CFd?5?$CFd?$AA@ 10013600     bncs_instance_lookup.obj
 0002:0000060c       ??_C@_0BE@PKNLLFCP@?2config?2devicetypes?$AA@ 1001360c     bncs_instance_lookup.obj
 0002:00000620       ??_C@_05LBDHBNMC@?$CK?4xml?$AA@ 10013620     bncs_instance_lookup.obj
 0002:00000628       ??_C@_0DK@LMEADBK@bncs_instance_lookup?3?5devijjcety@ 10013628     bncs_instance_lookup.obj
 0002:00000664       ??_C@_0BK@MAHMKCMD@?2config?2complex_instances?$AA@ 10013664     bncs_instance_lookup.obj
 0002:00000680       ??_C@_0DO@HCIJIFLM@bncs_instance_lookup?3?5complex_in@ 10013680     bncs_instance_lookup.obj
 0002:000006c0       ??_C@_0BL@GNBLDCEM@?2config?2devicetypes?2?$CF1?4xml?$AA@ 100136c0     bncs_instance_lookup.obj
 0002:000006dc       ??_C@_0BD@INOIJGBO@device_description?$AA@ 100136dc     bncs_instance_lookup.obj
 0002:000006f0       ??_C@_0DP@KONJPDDP@bncs_instance_lookup?3?5Could?5not?5@ 100136f0     bncs_instance_lookup.obj
 0002:00000730       ??_C@_0DD@PIHNHHBN@bncs_instance_lookup?3?5Error?5in?5d@ 10013730     bncs_instance_lookup.obj
 0002:00000768       ??_C@_0EC@JGFKAFJC@bncs_instance_lookup?3?5The?5device@ 10013768     bncs_instance_lookup.obj
 0002:000007ac       ??_C@_0L@NFEMMAMH@drivertype?$AA@ 100137ac     bncs_instance_lookup.obj
 0002:000007b8       ??_C@_0M@PNMFJHLG@slotspacing?$AA@ 100137b8     bncs_instance_lookup.obj
 0002:000007c4       ??_C@_04POIHOKKJ@slot?$AA@ 100137c4     bncs_instance_lookup.obj
 0002:000007cc       ??_C@_04MEMAJGDJ@name?$AA@ 100137cc     bncs_instance_lookup.obj
 0002:000007d4       ??_C@_0CB@OKFJJHEP@?2config?2complex_instances?2?$CF1?4xml@ 100137d4     bncs_instance_lookup.obj
 0002:000007f8       ??_C@_0BC@GPPBIEIP@complex_instances?$AA@ 100137f8     bncs_instance_lookup.obj
 0002:0000080c       ??_C@_0DO@HCINEOND@bncs_instance_lookup?3?5Could?5not?5@ 1001380c     bncs_instance_lookup.obj
 0002:0000084c       ??_C@_05LJDNNBIK@param?$AA@ 1001384c     bncs_instance_lookup.obj
 0002:00000854       ??_C@_0BE@IAIIBGHI@device?$DN?$CF1?0offset?$DN?$CF2?$AA@ 10013854     bncs_instance_lookup.obj
 0002:00000868       ??_C@_0L@BJBPFNKP@?$CI?$CKit?$CJ?4type?$AA@ 10013868     bncs_instance_lookup.obj
 0002:00000878       ??_7?$QValueListPrivate@VparamInfo@@@@6B@ 10013878     bncs_instance_lookup.obj
 0002:00000880       ??_7?$QValueListPrivate@VcomplexParam@@@@6B@ 10013880     bncs_instance_lookup.obj
 0002:00000888       ??_7?$QValueListPrivate@VcomplexInstance@@@@6B@ 10013888     bncs_instance_lookup.obj
 0002:00000890       ??_7?$QValueListPrivate@VinstanceInfo@@@@6B@ 10013890     bncs_instance_lookup.obj
 0002:00000898       ??_7?$QValueListPrivate@VdeviceTypeInfo@@@@6B@ 10013898     bncs_instance_lookup.obj
 0002:000008a0       ??_7?$QValueListPrivate@VcomplexType@@@@6B@ 100138a0     bncs_instance_lookup.obj
 0002:000008a4       ??_C@_0BA@JFNIOLAK@string?5too?5long?$AA@ 100138a4     bncs_instance_lookup.obj
 0002:000008b4       ??_C@_0BI@CFPLBAOH@invalid?5string?5position?$AA@ 100138b4     bncs_instance_lookup.obj
 0002:000008d0       ??_7?$QValueListNode@VparamInfo@@@@6B@ 100138d0     bncs_instance_lookup.obj
 0002:000008d8       ??_7?$QValueListNode@VcomplexParam@@@@6B@ 100138d8     bncs_instance_lookup.obj
 0002:000008e0       ??_7?$QValueListNode@VcomplexInstance@@@@6B@ 100138e0     bncs_instance_lookup.obj
 0002:000008e8       ??_7?$QValueListNode@VinstanceInfo@@@@6B@ 100138e8     bncs_instance_lookup.obj
 0002:000008f0       ??_7?$QValueListNode@VdeviceTypeInfo@@@@6B@ 100138f0     bncs_instance_lookup.obj
 0002:000008f8       ??_7?$QValueListNode@VcomplexType@@@@6B@ 100138f8     bncs_instance_lookup.obj
 0002:000008fc       ??_C@_0P@MAEFOFPK@bncs_style?4xml?$AA@ 100138fc     bncs_stylesheet.obj
 0002:0000090c       ??_C@_0BE@CNOFPKAC@?2config?2stylesheet?2?$AA@ 1001390c     bncs_stylesheet.obj
 0002:00000920       ??_C@_0BI@JAKMPDAE@bncs_stylesheet?5loading?$AA@ 10013920     bncs_stylesheet.obj
 0002:00000938       ??_C@_0L@CDJDANNA@stylesheet?$AA@ 10013938     bncs_stylesheet.obj
 0002:00000944       ??_C@_0CI@NNHMFIJD@Could?5not?5find?5the?5Stylesheet?5fi@ 10013944     bncs_stylesheet.obj
 0002:0000096c       ??_C@_0CB@KLHAIGPG@Error?5in?5Stylesheet?5file?3?6?7?$CF1?6?$CF2@ 1001396c     bncs_stylesheet.obj
 0002:00000990       ??_C@_0EO@FPPFIBGO@The?5Stylesheet?5file?3?6?7?$CF1?6?5is?5not@ 10013990     bncs_stylesheet.obj
 0002:000009e0       ??_C@_05MFEJDJP@value?$AA@ 100139e0     bncs_stylesheet.obj
 0002:000009e8       ??_C@_0M@LGHFNMAF@suitablefor?$AA@ 100139e8     bncs_stylesheet.obj
 0002:000009f4       ??_C@_0M@PPJNHBMP@description?$AA@ 100139f4     bncs_stylesheet.obj
 0002:00000a00       ??_C@_05HDBKIDE@state?$AA@ 10013a00     bncs_stylesheet.obj
 0002:00000a08       ??_C@_05IAKJCFIM@style?$AA@ 10013a08     bncs_stylesheet.obj
 0002:00000a10       ??_C@_07NDLGHPLM@setting?$AA@ 10013a10     bncs_stylesheet.obj
 0002:00000a18       ??_C@_0DJ@PPKIMDOF@Duplicate?5stylesheet?5entries?3?6?6?$CF@ 10013a18     bncs_stylesheet.obj
 0002:00000a54       ??_C@_02PIGFKFFE@?$CF1?$AA@ 10013a54     bncs_stylesheet.obj
 0002:00000a58       ??_C@_0BE@KAMCMBNM@Saving?5to?5?$CF1?5failed?$AA@ 10013a58     bncs_stylesheet.obj
 0002:00000a6c       ??_C@_0M@EGMMNKF@Save?5Failed?$AA@ 10013a6c     bncs_stylesheet.obj
 0002:00000a78       ??_C@_0CO@OAMGNCPC@Are?5you?5sure?5you?5want?5to?5delete?5@ 10013a78     bncs_stylesheet.obj
 0002:00000aa8       ??_C@_0P@GPGOMBNK@Deleting?5Style?$AA@ 10013aa8     bncs_stylesheet.obj
 0002:00000abc       ??_7?$QValueListPrivate@Vstyleentry@@@@6B@ 10013abc     bncs_stylesheet.obj
 0002:00000ac4       ??_7?$QValueListNode@Vstyleentry@@@@6B@ 10013ac4     bncs_stylesheet.obj
 0002:00000ac8       ??_C@_0N@ENLBDDCH@CC_DEVELOPER?$AA@ 10013ac8     env.obj
 0002:00000ad8       ??_C@_04LOAJBDKD@true?$AA@ 10013ad8     env.obj
 0002:00000ae0       ??_C@_0CG@ENDOGMLN@bncs_cachedData?3?5loading?5stylesh@ 10013ae0     main.obj
 0002:00000b08       ??_C@_0CE@MEPABBEB@bncs_cachedData?3?5loading?5instanc@ 10013b08     main.obj
 0002:00000b2c       ??_C@_0CG@DLCHAPFK@bncs_cachedData?3?5loading?5devicet@ 10013b2c     main.obj
 0002:00000b54       ??_C@_0DJ@JAKHBEGE@bncs_cachedData?3?5doing?5the?5loadi@ 10013b54     main.obj
 0002:00000b94       ??_7type_info@@6B@         10013b94     MSVCRT:ti_inst.obj
 0002:00000b98       __pRawDllMain              10013b98     MSVCRT:crtdll.obj
 0002:00000b98       __pDefaultRawDllMain       10013b98     MSVCRT:crtdll.obj
 0002:00000ba8       __load_config_used         10013ba8     MSVCRT:loadcfg.obj
 0002:00000bf0       ??_R13?0A@EA@QShared@@8    10013bf0     bncs_instance_lookup.obj
 0002:00000c0c       ??_R3QShared@@8            10013c0c     bncs_instance_lookup.obj
 0002:00000c1c       ??_R2QShared@@8            10013c1c     bncs_instance_lookup.obj
 0002:00000c24       ??_R1A@?0A@EA@QShared@@8   10013c24     bncs_instance_lookup.obj
 0002:00000c40       ??_R4instanceInfo@@6B@     10013c40     bncs_instance_lookup.obj
 0002:00000c54       ??_R3instanceInfo@@8       10013c54     bncs_instance_lookup.obj
 0002:00000c64       ??_R2instanceInfo@@8       10013c64     bncs_instance_lookup.obj
 0002:00000c6c       ??_R1A@?0A@EA@instanceInfo@@8 10013c6c     bncs_instance_lookup.obj
 0002:00000c88       ??_R4paramInfo@@6B@        10013c88     bncs_instance_lookup.obj
 0002:00000c9c       ??_R3paramInfo@@8          10013c9c     bncs_instance_lookup.obj
 0002:00000cac       ??_R2paramInfo@@8          10013cac     bncs_instance_lookup.obj
 0002:00000cb4       ??_R1A@?0A@EA@paramInfo@@8 10013cb4     bncs_instance_lookup.obj
 0002:00000cd0       ??_R4deviceTypeInfo@@6B@   10013cd0     bncs_instance_lookup.obj
 0002:00000ce4       ??_R3deviceTypeInfo@@8     10013ce4     bncs_instance_lookup.obj
 0002:00000cf4       ??_R2deviceTypeInfo@@8     10013cf4     bncs_instance_lookup.obj
 0002:00000cfc       ??_R1A@?0A@EA@deviceTypeInfo@@8 10013cfc     bncs_instance_lookup.obj
 0002:00000d18       ??_R4complexParam@@6B@     10013d18     bncs_instance_lookup.obj
 0002:00000d2c       ??_R3complexParam@@8       10013d2c     bncs_instance_lookup.obj
 0002:00000d3c       ??_R2complexParam@@8       10013d3c     bncs_instance_lookup.obj
 0002:00000d44       ??_R1A@?0A@EA@complexParam@@8 10013d44     bncs_instance_lookup.obj
 0002:00000d60       ??_R4complexInstance@@6B@  10013d60     bncs_instance_lookup.obj
 0002:00000d74       ??_R3complexInstance@@8    10013d74     bncs_instance_lookup.obj
 0002:00000d84       ??_R2complexInstance@@8    10013d84     bncs_instance_lookup.obj
 0002:00000d8c       ??_R1A@?0A@EA@complexInstance@@8 10013d8c     bncs_instance_lookup.obj
 0002:00000da8       ??_R4complexType@@6B@      10013da8     bncs_instance_lookup.obj
 0002:00000dbc       ??_R3complexType@@8        10013dbc     bncs_instance_lookup.obj
 0002:00000dcc       ??_R2complexType@@8        10013dcc     bncs_instance_lookup.obj
 0002:00000dd4       ??_R1A@?0A@EA@complexType@@8 10013dd4     bncs_instance_lookup.obj
 0002:00000df0       ??_R4bncs_instance_lookup@@6B@ 10013df0     bncs_instance_lookup.obj
 0002:00000e04       ??_R3bncs_instance_lookup@@8 10013e04     bncs_instance_lookup.obj
 0002:00000e14       ??_R2bncs_instance_lookup@@8 10013e14     bncs_instance_lookup.obj
 0002:00000e1c       ??_R1A@?0A@EA@bncs_instance_lookup@@8 10013e1c     bncs_instance_lookup.obj
 0002:00000e38       ??_R4error_category@std@@6B@ 10013e38     bncs_instance_lookup.obj
 0002:00000e4c       ??_R3error_category@std@@8 10013e4c     bncs_instance_lookup.obj
 0002:00000e5c       ??_R2error_category@std@@8 10013e5c     bncs_instance_lookup.obj
 0002:00000e64       ??_R1A@?0A@EA@error_category@std@@8 10013e64     bncs_instance_lookup.obj
 0002:00000e80       ??_R4_Generic_error_category@std@@6B@ 10013e80     bncs_instance_lookup.obj
 0002:00000e94       ??_R3_Generic_error_category@std@@8 10013e94     bncs_instance_lookup.obj
 0002:00000ea4       ??_R2_Generic_error_category@std@@8 10013ea4     bncs_instance_lookup.obj
 0002:00000eb0       ??_R1A@?0A@EA@_Generic_error_category@std@@8 10013eb0     bncs_instance_lookup.obj
 0002:00000ecc       ??_R4_Iostream_error_category@std@@6B@ 10013ecc     bncs_instance_lookup.obj
 0002:00000ee0       ??_R3_Iostream_error_category@std@@8 10013ee0     bncs_instance_lookup.obj
 0002:00000ef0       ??_R2_Iostream_error_category@std@@8 10013ef0     bncs_instance_lookup.obj
 0002:00000f00       ??_R1A@?0A@EA@_Iostream_error_category@std@@8 10013f00     bncs_instance_lookup.obj
 0002:00000f1c       ??_R4_System_error_category@std@@6B@ 10013f1c     bncs_instance_lookup.obj
 0002:00000f30       ??_R3_System_error_category@std@@8 10013f30     bncs_instance_lookup.obj
 0002:00000f40       ??_R2_System_error_category@std@@8 10013f40     bncs_instance_lookup.obj
 0002:00000f50       ??_R1A@?0A@EA@_System_error_category@std@@8 10013f50     bncs_instance_lookup.obj
 0002:00000f6c       ??_R4?$QValueListPrivate@VparamInfo@@@@6B@ 10013f6c     bncs_instance_lookup.obj
 0002:00000f80       ??_R3?$QValueListPrivate@VparamInfo@@@@8 10013f80     bncs_instance_lookup.obj
 0002:00000f90       ??_R2?$QValueListPrivate@VparamInfo@@@@8 10013f90     bncs_instance_lookup.obj
 0002:00000f9c       ??_R1A@?0A@EA@?$QValueListPrivate@VparamInfo@@@@8 10013f9c     bncs_instance_lookup.obj
 0002:00000fb8       ??_R4?$QValueListNode@VparamInfo@@@@6B@ 10013fb8     bncs_instance_lookup.obj
 0002:00000fcc       ??_R3?$QValueListNode@VparamInfo@@@@8 10013fcc     bncs_instance_lookup.obj
 0002:00000fdc       ??_R2?$QValueListNode@VparamInfo@@@@8 10013fdc     bncs_instance_lookup.obj
 0002:00000fe4       ??_R1A@?0A@EA@?$QValueListNode@VparamInfo@@@@8 10013fe4     bncs_instance_lookup.obj
 0002:00001000       ??_R4?$QValueListPrivate@VcomplexParam@@@@6B@ 10014000     bncs_instance_lookup.obj
 0002:00001014       ??_R3?$QValueListPrivate@VcomplexParam@@@@8 10014014     bncs_instance_lookup.obj
 0002:00001024       ??_R2?$QValueListPrivate@VcomplexParam@@@@8 10014024     bncs_instance_lookup.obj
 0002:00001030       ??_R1A@?0A@EA@?$QValueListPrivate@VcomplexParam@@@@8 10014030     bncs_instance_lookup.obj
 0002:0000104c       ??_R4?$QValueListNode@VcomplexParam@@@@6B@ 1001404c     bncs_instance_lookup.obj
 0002:00001060       ??_R3?$QValueListNode@VcomplexParam@@@@8 10014060     bncs_instance_lookup.obj
 0002:00001070       ??_R2?$QValueListNode@VcomplexParam@@@@8 10014070     bncs_instance_lookup.obj
 0002:00001078       ??_R1A@?0A@EA@?$QValueListNode@VcomplexParam@@@@8 10014078     bncs_instance_lookup.obj
 0002:00001094       ??_R4?$QValueListPrivate@VcomplexInstance@@@@6B@ 10014094     bncs_instance_lookup.obj
 0002:000010a8       ??_R3?$QValueListPrivate@VcomplexInstance@@@@8 100140a8     bncs_instance_lookup.obj
 0002:000010b8       ??_R2?$QValueListPrivate@VcomplexInstance@@@@8 100140b8     bncs_instance_lookup.obj
 0002:000010c4       ??_R1A@?0A@EA@?$QValueListPrivate@VcomplexInstance@@@@8 100140c4     bncs_instance_lookup.obj
 0002:000010e0       ??_R4?$QValueListNode@VcomplexInstance@@@@6B@ 100140e0     bncs_instance_lookup.obj
 0002:000010f4       ??_R3?$QValueListNode@VcomplexInstance@@@@8 100140f4     bncs_instance_lookup.obj
 0002:00001104       ??_R2?$QValueListNode@VcomplexInstance@@@@8 10014104     bncs_instance_lookup.obj
 0002:0000110c       ??_R1A@?0A@EA@?$QValueListNode@VcomplexInstance@@@@8 1001410c     bncs_instance_lookup.obj
 0002:00001128       ??_R4?$QValueListPrivate@VinstanceInfo@@@@6B@ 10014128     bncs_instance_lookup.obj
 0002:0000113c       ??_R3?$QValueListPrivate@VinstanceInfo@@@@8 1001413c     bncs_instance_lookup.obj
 0002:0000114c       ??_R2?$QValueListPrivate@VinstanceInfo@@@@8 1001414c     bncs_instance_lookup.obj
 0002:00001158       ??_R1A@?0A@EA@?$QValueListPrivate@VinstanceInfo@@@@8 10014158     bncs_instance_lookup.obj
 0002:00001174       ??_R4?$QValueListNode@VinstanceInfo@@@@6B@ 10014174     bncs_instance_lookup.obj
 0002:00001188       ??_R3?$QValueListNode@VinstanceInfo@@@@8 10014188     bncs_instance_lookup.obj
 0002:00001198       ??_R2?$QValueListNode@VinstanceInfo@@@@8 10014198     bncs_instance_lookup.obj
 0002:000011a0       ??_R1A@?0A@EA@?$QValueListNode@VinstanceInfo@@@@8 100141a0     bncs_instance_lookup.obj
 0002:000011bc       ??_R4?$QValueListPrivate@VdeviceTypeInfo@@@@6B@ 100141bc     bncs_instance_lookup.obj
 0002:000011d0       ??_R3?$QValueListPrivate@VdeviceTypeInfo@@@@8 100141d0     bncs_instance_lookup.obj
 0002:000011e0       ??_R2?$QValueListPrivate@VdeviceTypeInfo@@@@8 100141e0     bncs_instance_lookup.obj
 0002:000011ec       ??_R1A@?0A@EA@?$QValueListPrivate@VdeviceTypeInfo@@@@8 100141ec     bncs_instance_lookup.obj
 0002:00001208       ??_R4?$QValueListNode@VdeviceTypeInfo@@@@6B@ 10014208     bncs_instance_lookup.obj
 0002:0000121c       ??_R3?$QValueListNode@VdeviceTypeInfo@@@@8 1001421c     bncs_instance_lookup.obj
 0002:0000122c       ??_R2?$QValueListNode@VdeviceTypeInfo@@@@8 1001422c     bncs_instance_lookup.obj
 0002:00001234       ??_R1A@?0A@EA@?$QValueListNode@VdeviceTypeInfo@@@@8 10014234     bncs_instance_lookup.obj
 0002:00001250       ??_R4?$QValueListPrivate@VcomplexType@@@@6B@ 10014250     bncs_instance_lookup.obj
 0002:00001264       ??_R3?$QValueListPrivate@VcomplexType@@@@8 10014264     bncs_instance_lookup.obj
 0002:00001274       ??_R2?$QValueListPrivate@VcomplexType@@@@8 10014274     bncs_instance_lookup.obj
 0002:00001280       ??_R1A@?0A@EA@?$QValueListPrivate@VcomplexType@@@@8 10014280     bncs_instance_lookup.obj
 0002:0000129c       ??_R4?$QValueListNode@VcomplexType@@@@6B@ 1001429c     bncs_instance_lookup.obj
 0002:000012b0       ??_R3?$QValueListNode@VcomplexType@@@@8 100142b0     bncs_instance_lookup.obj
 0002:000012c0       ??_R2?$QValueListNode@VcomplexType@@@@8 100142c0     bncs_instance_lookup.obj
 0002:000012c8       ??_R1A@?0A@EA@?$QValueListNode@VcomplexType@@@@8 100142c8     bncs_instance_lookup.obj
 0002:000012e4       ??_R4?$QValueListPrivate@Vstyleentry@@@@6B@ 100142e4     bncs_stylesheet.obj
 0002:000012f8       ??_R3?$QValueListPrivate@Vstyleentry@@@@8 100142f8     bncs_stylesheet.obj
 0002:00001308       ??_R2?$QValueListPrivate@Vstyleentry@@@@8 10014308     bncs_stylesheet.obj
 0002:00001314       ??_R1A@?0A@EA@?$QValueListPrivate@Vstyleentry@@@@8 10014314     bncs_stylesheet.obj
 0002:00001330       ??_R4?$QValueListNode@Vstyleentry@@@@6B@ 10014330     bncs_stylesheet.obj
 0002:00001344       ??_R3?$QValueListNode@Vstyleentry@@@@8 10014344     bncs_stylesheet.obj
 0002:00001354       ??_R2?$QValueListNode@Vstyleentry@@@@8 10014354     bncs_stylesheet.obj
 0002:0000135c       ??_R1A@?0A@EA@?$QValueListNode@Vstyleentry@@@@8 1001435c     bncs_stylesheet.obj
 0002:00001378       ??_R4type_info@@6B@        10014378     MSVCRT:ti_inst.obj
 0002:0000138c       ??_R3type_info@@8          1001438c     MSVCRT:ti_inst.obj
 0002:0000139c       ??_R2type_info@@8          1001439c     MSVCRT:ti_inst.obj
 0002:000013a4       ??_R1A@?0A@EA@type_info@@8 100143a4     MSVCRT:ti_inst.obj
 0002:000013c0       ___rtc_iaa                 100143c0     MSVCRT:initsect.obj
 0002:000013c4       ___rtc_izz                 100143c4     MSVCRT:initsect.obj
 0002:000013c8       ___rtc_taa                 100143c8     MSVCRT:initsect.obj
 0002:000013cc       ___rtc_tzz                 100143cc     MSVCRT:initsect.obj
 0002:00008ddc       __IMPORT_DESCRIPTOR_qt-mt323 1001bddc     qt-mt323:qt-mt323.dll
 0002:00008df0       __IMPORT_DESCRIPTOR_KERNEL32 1001bdf0     kernel32:KERNEL32.dll
 0002:00008e04       __IMPORT_DESCRIPTOR_USER32 1001be04     user32:USER32.dll
 0002:00008e18       __IMPORT_DESCRIPTOR_MSVCP120 1001be18     msvcprt:MSVCP120.dll
 0002:00008e2c       __IMPORT_DESCRIPTOR_MSVCR120 1001be2c     MSVCRT:MSVCR120.dll
 0002:00008e40       __NULL_IMPORT_DESCRIPTOR   1001be40     qt-mt323:qt-mt323.dll
 0003:00000000       ?_Generic_object@?$_Error_objects@H@std@@2V_Generic_error_category@2@A 1001e000     bncs_instance_lookup.obj
 0003:00000004       ?_Iostream_object@?$_Error_objects@H@std@@2V_Iostream_error_category@2@A 1001e004     bncs_instance_lookup.obj
 0003:00000008       ?_System_object@?$_Error_objects@H@std@@2V_System_error_category@2@A 1001e008     bncs_instance_lookup.obj
 0003:0000000c       ___security_cookie         1001e00c     MSVCRT:gs_cookie.obj
 0003:00000010       ___security_cookie_complement 1001e010     MSVCRT:gs_cookie.obj
 0003:00000020       ___native_dllmain_reason   1001e020     MSVCRT:natstart.obj
 0003:00000024       ??_R0?AUQShared@@@8        1001e024     bncs_instance_lookup.obj
 0003:0000003c       ??_R0?AVinstanceInfo@@@8   1001e03c     bncs_instance_lookup.obj
 0003:00000058       ??_R0?AVparamInfo@@@8      1001e058     bncs_instance_lookup.obj
 0003:00000070       ??_R0?AVdeviceTypeInfo@@@8 1001e070     bncs_instance_lookup.obj
 0003:00000090       ??_R0?AVcomplexParam@@@8   1001e090     bncs_instance_lookup.obj
 0003:000000ac       ??_R0?AVcomplexInstance@@@8 1001e0ac     bncs_instance_lookup.obj
 0003:000000cc       ??_R0?AVcomplexType@@@8    1001e0cc     bncs_instance_lookup.obj
 0003:000000e8       ??_R0?AVbncs_instance_lookup@@@8 1001e0e8     bncs_instance_lookup.obj
 0003:0000010c       ??_R0?AVerror_category@std@@@8 1001e10c     bncs_instance_lookup.obj
 0003:00000130       ??_R0?AV_Generic_error_category@std@@@8 1001e130     bncs_instance_lookup.obj
 0003:0000015c       ??_R0?AV_Iostream_error_category@std@@@8 1001e15c     bncs_instance_lookup.obj
 0003:00000188       ??_R0?AV_System_error_category@std@@@8 1001e188     bncs_instance_lookup.obj
 0003:000001b4       ??_R0?AV?$QValueListPrivate@VparamInfo@@@@@8 1001e1b4     bncs_instance_lookup.obj
 0003:000001e4       ??_R0?AV?$QValueListNode@VparamInfo@@@@@8 1001e1e4     bncs_instance_lookup.obj
 0003:00000210       ??_R0?AV?$QValueListPrivate@VcomplexParam@@@@@8 1001e210     bncs_instance_lookup.obj
 0003:00000244       ??_R0?AV?$QValueListNode@VcomplexParam@@@@@8 1001e244     bncs_instance_lookup.obj
 0003:00000274       ??_R0?AV?$QValueListPrivate@VcomplexInstance@@@@@8 1001e274     bncs_instance_lookup.obj
 0003:000002ac       ??_R0?AV?$QValueListNode@VcomplexInstance@@@@@8 1001e2ac     bncs_instance_lookup.obj
 0003:000002e0       ??_R0?AV?$QValueListPrivate@VinstanceInfo@@@@@8 1001e2e0     bncs_instance_lookup.obj
 0003:00000314       ??_R0?AV?$QValueListNode@VinstanceInfo@@@@@8 1001e314     bncs_instance_lookup.obj
 0003:00000344       ??_R0?AV?$QValueListPrivate@VdeviceTypeInfo@@@@@8 1001e344     bncs_instance_lookup.obj
 0003:00000378       ??_R0?AV?$QValueListNode@VdeviceTypeInfo@@@@@8 1001e378     bncs_instance_lookup.obj
 0003:000003ac       ??_R0?AV?$QValueListPrivate@VcomplexType@@@@@8 1001e3ac     bncs_instance_lookup.obj
 0003:000003e0       ??_R0?AV?$QValueListNode@VcomplexType@@@@@8 1001e3e0     bncs_instance_lookup.obj
 0003:00000410       ??_R0?AV?$QValueListPrivate@Vstyleentry@@@@@8 1001e410     bncs_stylesheet.obj
 0003:00000440       ??_R0?AV?$QValueListNode@Vstyleentry@@@@@8 1001e440     bncs_stylesheet.obj
 0003:00000470       ??_R0?AVtype_info@@@8      1001e470     MSVCRT:ti_inst.obj
 0003:00000488       ?instances@bncs_instance_lookup@@2V?$QMap@VQString@@VinstanceInfo@@@@A 1001e488     bncs_instance_lookup.obj
 0003:00000490       ?complexTypes@bncs_instance_lookup@@2V?$QMap@VQString@@VcomplexType@@@@A 1001e490     bncs_instance_lookup.obj
 0003:00000494       ?deviceTypes@bncs_instance_lookup@@2V?$QMap@VQString@@VdeviceTypeInfo@@@@A 1001e494     bncs_instance_lookup.obj
 0003:00000498       ?id@?$num_put@DV?$back_insert_iterator@V?$basic_string@DU?$char_traits@D@std@@V?$allocator@D@2@@std@@@std@@@std@@2V0locale@2@A 1001e498     bncs_instance_lookup.obj
 0003:0000049c       ?id@?$num_put@_WV?$back_insert_iterator@V?$basic_string@_WU?$char_traits@_W@std@@V?$allocator@_W@2@@std@@@std@@@std@@2V0locale@2@A 1001e49c     bncs_instance_lookup.obj
 0003:000004a0       ?m_sLastModified@bncs_stylesheet@@0VQDateTime@@A 1001e4a0     bncs_stylesheet.obj
 0003:000004a8       ?styles@bncs_stylesheet@@0V?$QMap@VQString@@Vstyleentry@@@@A 1001e4a8     bncs_stylesheet.obj
 0003:000004ac       ?m_sFilename@bncs_stylesheet@@0VQString@@A 1001e4ac     bncs_stylesheet.obj
 0003:000007d8       ?__type_info_root_node@@3U__type_info_node@@A 1001e7d8     MSVCRT:tncleanup.obj
 0003:000007e0       ___native_startup_lock     1001e7e0     <common>
 0003:000007e4       ___native_startup_state    1001e7e4     <common>
 0003:000007e8       ___dyn_tls_init_callback   1001e7e8     <common>
 0003:000007ec       ___onexitend               1001e7ec     <common>
 0003:000007f0       ___onexitbegin             1001e7f0     <common>

 entry point at        0001:0000eae3

 Static symbols

 0001:00000000       ??__E?_Generic_object@?$_Error_objects@H@std@@2V_Generic_error_category@2@A@@YAXXZ 10001000 f   bncs_instance_lookup.obj
 0001:00000010       ??__E?_Iostream_object@?$_Error_objects@H@std@@2V_Iostream_error_category@2@A@@YAXXZ 10001010 f   bncs_instance_lookup.obj
 0001:00000020       ??__E?_System_object@?$_Error_objects@H@std@@2V_System_error_category@2@A@@YAXXZ 10001020 f   bncs_instance_lookup.obj
 0001:00000030       ??__E?complexTypes@bncs_instance_lookup@@2V?$QMap@VQString@@VcomplexType@@@@A@@YAXXZ 10001030 f   bncs_instance_lookup.obj
 0001:000000a0       ??__E?deviceTypes@bncs_instance_lookup@@2V?$QMap@VQString@@VdeviceTypeInfo@@@@A@@YAXXZ 100010a0 f   bncs_instance_lookup.obj
 0001:00000110       ??__E?instances@bncs_instance_lookup@@2V?$QMap@VQString@@VinstanceInfo@@@@A@@YAXXZ 10001110 f   bncs_instance_lookup.obj
 0001:00000180       ??__E?m_sFilename@bncs_stylesheet@@0VQString@@A@@YAXXZ 10001180 f   bncs_stylesheet.obj
 0001:000001b0       ??__E?styles@bncs_stylesheet@@0V?$QMap@VQString@@Vstyleentry@@@@A@@YAXXZ 100011b0 f   bncs_stylesheet.obj
 0001:00003056       __catch$?_Copy@?$basic_string@DU?$char_traits@D@std@@V?$allocator@D@2@@std@@QAEXII@Z$0 10004056 f i bncs_instance_lookup.obj
 0001:00003093       __catch$?_Copy@?$basic_string@DU?$char_traits@D@std@@V?$allocator@D@2@@std@@QAEXII@Z$1 10004093 f i bncs_instance_lookup.obj
 0001:0000e8a0       _pre_c_init                1000f8a0 f   MSVCRT:crtdll.obj
 0001:0000eb06       ___DllMainCRTStartup       1000fb06 f   MSVCRT:crtdll.obj
 0001:0000ec40       $$000000                   1000fc40     MSVCRT:sehprolg4.obj
 0001:0000f080       __unwindfunclet$??0?$QMapNode@VQString@@VcomplexInstance@@@@QAE@ABU0@@Z$0 10010080 f   bncs_instance_lookup.obj
 0001:0000f08b       __unwindfunclet$??0?$QMapNode@VQString@@VcomplexInstance@@@@QAE@ABU0@@Z$1 1001008b f   bncs_instance_lookup.obj
 0001:0000f097       __ehhandler$??0?$QMapNode@VQString@@VcomplexInstance@@@@QAE@ABU0@@Z 10010097 f   bncs_instance_lookup.obj
 0001:0000f0c0       __unwindfunclet$??0?$QMapNode@VQString@@VcomplexParam@@@@QAE@ABU0@@Z$0 100100c0 f   bncs_instance_lookup.obj
 0001:0000f0cb       __unwindfunclet$??0?$QMapNode@VQString@@VcomplexParam@@@@QAE@ABU0@@Z$1 100100cb f   bncs_instance_lookup.obj
 0001:0000f0d7       __ehhandler$??0?$QMapNode@VQString@@VcomplexParam@@@@QAE@ABU0@@Z 100100d7 f   bncs_instance_lookup.obj
 0001:0000f100       __unwindfunclet$??0?$QMapNode@VQString@@VcomplexType@@@@QAE@ABU0@@Z$0 10010100 f   bncs_instance_lookup.obj
 0001:0000f10b       __unwindfunclet$??0?$QMapNode@VQString@@VcomplexType@@@@QAE@ABU0@@Z$1 1001010b f   bncs_instance_lookup.obj
 0001:0000f117       __ehhandler$??0?$QMapNode@VQString@@VcomplexType@@@@QAE@ABU0@@Z 10010117 f   bncs_instance_lookup.obj
 0001:0000f140       __unwindfunclet$??0?$QMapNode@VQString@@VdeviceTypeInfo@@@@QAE@ABU0@@Z$0 10010140 f   bncs_instance_lookup.obj
 0001:0000f14b       __unwindfunclet$??0?$QMapNode@VQString@@VdeviceTypeInfo@@@@QAE@ABU0@@Z$1 1001014b f   bncs_instance_lookup.obj
 0001:0000f157       __ehhandler$??0?$QMapNode@VQString@@VdeviceTypeInfo@@@@QAE@ABU0@@Z 10010157 f   bncs_instance_lookup.obj
 0001:0000f180       __unwindfunclet$??0?$QMapNode@VQString@@VinstanceInfo@@@@QAE@ABU0@@Z$0 10010180 f   bncs_instance_lookup.obj
 0001:0000f18b       __unwindfunclet$??0?$QMapNode@VQString@@VinstanceInfo@@@@QAE@ABU0@@Z$1 1001018b f   bncs_instance_lookup.obj
 0001:0000f197       __ehhandler$??0?$QMapNode@VQString@@VinstanceInfo@@@@QAE@ABU0@@Z 10010197 f   bncs_instance_lookup.obj
 0001:0000f1c0       __unwindfunclet$??0?$QMapPrivate@VQString@@VcomplexInstance@@@@QAE@PBV0@@Z$0 100101c0 f   bncs_instance_lookup.obj
 0001:0000f1cb       __unwindfunclet$??0?$QMapPrivate@VQString@@VcomplexInstance@@@@QAE@PBV0@@Z$1 100101cb f   bncs_instance_lookup.obj
 0001:0000f1d6       __ehhandler$??0?$QMapPrivate@VQString@@VcomplexInstance@@@@QAE@PBV0@@Z 100101d6 f   bncs_instance_lookup.obj
 0001:0000f200       __unwindfunclet$??0?$QMapPrivate@VQString@@VcomplexInstance@@@@QAE@XZ$0 10010200 f   bncs_instance_lookup.obj
 0001:0000f20b       __unwindfunclet$??0?$QMapPrivate@VQString@@VcomplexInstance@@@@QAE@XZ$1 1001020b f   bncs_instance_lookup.obj
 0001:0000f216       __ehhandler$??0?$QMapPrivate@VQString@@VcomplexInstance@@@@QAE@XZ 10010216 f   bncs_instance_lookup.obj
 0001:0000f240       __unwindfunclet$??0?$QMapPrivate@VQString@@VcomplexParam@@@@QAE@PBV0@@Z$0 10010240 f   bncs_instance_lookup.obj
 0001:0000f24b       __unwindfunclet$??0?$QMapPrivate@VQString@@VcomplexParam@@@@QAE@PBV0@@Z$1 1001024b f   bncs_instance_lookup.obj
 0001:0000f256       __ehhandler$??0?$QMapPrivate@VQString@@VcomplexParam@@@@QAE@PBV0@@Z 10010256 f   bncs_instance_lookup.obj
 0001:0000f280       __unwindfunclet$??0?$QMapPrivate@VQString@@VcomplexParam@@@@QAE@XZ$0 10010280 f   bncs_instance_lookup.obj
 0001:0000f28b       __unwindfunclet$??0?$QMapPrivate@VQString@@VcomplexParam@@@@QAE@XZ$1 1001028b f   bncs_instance_lookup.obj
 0001:0000f296       __ehhandler$??0?$QMapPrivate@VQString@@VcomplexParam@@@@QAE@XZ 10010296 f   bncs_instance_lookup.obj
 0001:0000f2c0       __unwindfunclet$??0?$QMapPrivate@VQString@@VcomplexType@@@@QAE@PBV0@@Z$0 100102c0 f   bncs_instance_lookup.obj
 0001:0000f2cb       __unwindfunclet$??0?$QMapPrivate@VQString@@VcomplexType@@@@QAE@PBV0@@Z$1 100102cb f   bncs_instance_lookup.obj
 0001:0000f2d6       __ehhandler$??0?$QMapPrivate@VQString@@VcomplexType@@@@QAE@PBV0@@Z 100102d6 f   bncs_instance_lookup.obj
 0001:0000f300       __unwindfunclet$??0?$QMapPrivate@VQString@@VcomplexType@@@@QAE@XZ$0 10010300 f   bncs_instance_lookup.obj
 0001:0000f30b       __unwindfunclet$??0?$QMapPrivate@VQString@@VcomplexType@@@@QAE@XZ$1 1001030b f   bncs_instance_lookup.obj
 0001:0000f316       __ehhandler$??0?$QMapPrivate@VQString@@VcomplexType@@@@QAE@XZ 10010316 f   bncs_instance_lookup.obj
 0001:0000f340       __unwindfunclet$??0?$QMapPrivate@VQString@@VdeviceTypeInfo@@@@QAE@PBV0@@Z$0 10010340 f   bncs_instance_lookup.obj
 0001:0000f34b       __unwindfunclet$??0?$QMapPrivate@VQString@@VdeviceTypeInfo@@@@QAE@PBV0@@Z$1 1001034b f   bncs_instance_lookup.obj
 0001:0000f356       __ehhandler$??0?$QMapPrivate@VQString@@VdeviceTypeInfo@@@@QAE@PBV0@@Z 10010356 f   bncs_instance_lookup.obj
 0001:0000f380       __unwindfunclet$??0?$QMapPrivate@VQString@@VdeviceTypeInfo@@@@QAE@XZ$0 10010380 f   bncs_instance_lookup.obj
 0001:0000f38b       __unwindfunclet$??0?$QMapPrivate@VQString@@VdeviceTypeInfo@@@@QAE@XZ$1 1001038b f   bncs_instance_lookup.obj
 0001:0000f396       __ehhandler$??0?$QMapPrivate@VQString@@VdeviceTypeInfo@@@@QAE@XZ 10010396 f   bncs_instance_lookup.obj
 0001:0000f3c0       __unwindfunclet$??0?$QMapPrivate@VQString@@VinstanceInfo@@@@QAE@PBV0@@Z$0 100103c0 f   bncs_instance_lookup.obj
 0001:0000f3cb       __unwindfunclet$??0?$QMapPrivate@VQString@@VinstanceInfo@@@@QAE@PBV0@@Z$1 100103cb f   bncs_instance_lookup.obj
 0001:0000f3d6       __ehhandler$??0?$QMapPrivate@VQString@@VinstanceInfo@@@@QAE@PBV0@@Z 100103d6 f   bncs_instance_lookup.obj
 0001:0000f400       __unwindfunclet$??0?$QMapPrivate@VQString@@VinstanceInfo@@@@QAE@XZ$0 10010400 f   bncs_instance_lookup.obj
 0001:0000f40b       __unwindfunclet$??0?$QMapPrivate@VQString@@VinstanceInfo@@@@QAE@XZ$1 1001040b f   bncs_instance_lookup.obj
 0001:0000f416       __ehhandler$??0?$QMapPrivate@VQString@@VinstanceInfo@@@@QAE@XZ 10010416 f   bncs_instance_lookup.obj
 0001:0000f440       __unwindfunclet$??0?$QMapPrivate@VQString@@VparamInfo@@@@QAE@PBV0@@Z$0 10010440 f   bncs_instance_lookup.obj
 0001:0000f44b       __unwindfunclet$??0?$QMapPrivate@VQString@@VparamInfo@@@@QAE@PBV0@@Z$1 1001044b f   bncs_instance_lookup.obj
 0001:0000f456       __ehhandler$??0?$QMapPrivate@VQString@@VparamInfo@@@@QAE@PBV0@@Z 10010456 f   bncs_instance_lookup.obj
 0001:0000f480       __unwindfunclet$??0?$QMapPrivate@VQString@@VparamInfo@@@@QAE@XZ$0 10010480 f   bncs_instance_lookup.obj
 0001:0000f48b       __unwindfunclet$??0?$QMapPrivate@VQString@@VparamInfo@@@@QAE@XZ$1 1001048b f   bncs_instance_lookup.obj
 0001:0000f496       __ehhandler$??0?$QMapPrivate@VQString@@VparamInfo@@@@QAE@XZ 10010496 f   bncs_instance_lookup.obj
 0001:0000f4c0       __unwindfunclet$?clear@?$QMap@VQString@@VcomplexParam@@@@QAEXXZ$0 100104c0 f   bncs_instance_lookup.obj
 0001:0000f4c0       __unwindfunclet$??0?$QValueListPrivate@VcomplexType@@@@QAE@XZ$0 100104c0 f   bncs_instance_lookup.obj
 0001:0000f4c0       __unwindfunclet$?clear@?$QMap@VQString@@VcomplexInstance@@@@QAEXXZ$0 100104c0 f   bncs_instance_lookup.obj
 0001:0000f4c0       __unwindfunclet$??0?$QValueListPrivate@VparamInfo@@@@QAE@XZ$0 100104c0 f   bncs_instance_lookup.obj
 0001:0000f4c0       __unwindfunclet$??0?$QValueListPrivate@VcomplexInstance@@@@QAE@XZ$0 100104c0 f   bncs_instance_lookup.obj
 0001:0000f4c0       __unwindfunclet$??0?$QValueListPrivate@VinstanceInfo@@@@QAE@XZ$0 100104c0 f   bncs_instance_lookup.obj
 0001:0000f4c0       __unwindfunclet$??0?$QValueListPrivate@VcomplexParam@@@@QAE@XZ$0 100104c0 f   bncs_instance_lookup.obj
 0001:0000f4c0       __unwindfunclet$?clear@?$QMap@VQString@@VdeviceTypeInfo@@@@QAEXXZ$0 100104c0 f   bncs_instance_lookup.obj
 0001:0000f4c0       __unwindfunclet$?clear@?$QMap@VQString@@VparamInfo@@@@QAEXXZ$0 100104c0 f   bncs_instance_lookup.obj
 0001:0000f4c0       __unwindfunclet$?insert@?$QValueListPrivate@VinstanceInfo@@@@QAE?AV?$QValueListIterator@VinstanceInfo@@@@V2@ABVinstanceInfo@@@Z$0 100104c0 f   bncs_instance_lookup.obj
 0001:0000f4c0       __unwindfunclet$?clear@?$QMap@VQString@@VcomplexType@@@@QAEXXZ$0 100104c0 f   bncs_instance_lookup.obj
 0001:0000f4c0       __unwindfunclet$??0?$QValueListPrivate@VdeviceTypeInfo@@@@QAE@XZ$0 100104c0 f   bncs_instance_lookup.obj
 0001:0000f4c0       __unwindfunclet$?clear@?$QMap@VQString@@Vstyleentry@@@@QAEXXZ$0 100104c0 f   bncs_instance_lookup.obj
 0001:0000f4c0       __unwindfunclet$?clear@?$QMap@VQString@@VinstanceInfo@@@@QAEXXZ$0 100104c0 f   bncs_instance_lookup.obj
 0001:0000f4cb       __ehhandler$?clear@?$QMap@VQString@@VcomplexType@@@@QAEXXZ 100104cb f   bncs_instance_lookup.obj
 0001:0000f4cb       __ehhandler$?clear@?$QMap@VQString@@VcomplexInstance@@@@QAEXXZ 100104cb f   bncs_instance_lookup.obj
 0001:0000f4cb       __ehhandler$?clear@?$QMap@VQString@@VparamInfo@@@@QAEXXZ 100104cb f   bncs_instance_lookup.obj
 0001:0000f4cb       __ehhandler$?insert@?$QValueListPrivate@VinstanceInfo@@@@QAE?AV?$QValueListIterator@VinstanceInfo@@@@V2@ABVinstanceInfo@@@Z 100104cb f   bncs_instance_lookup.obj
 0001:0000f4cb       __ehhandler$??0?$QValueListPrivate@VdeviceTypeInfo@@@@QAE@XZ 100104cb f   bncs_instance_lookup.obj
 0001:0000f4cb       __ehhandler$??0?$QValueListPrivate@VcomplexType@@@@QAE@XZ 100104cb f   bncs_instance_lookup.obj
 0001:0000f4cb       __ehhandler$??0?$QValueListPrivate@VinstanceInfo@@@@QAE@XZ 100104cb f   bncs_instance_lookup.obj
 0001:0000f4cb       __ehhandler$?clear@?$QMap@VQString@@VcomplexParam@@@@QAEXXZ 100104cb f   bncs_instance_lookup.obj
 0001:0000f4cb       __ehhandler$?clear@?$QMap@VQString@@VinstanceInfo@@@@QAEXXZ 100104cb f   bncs_instance_lookup.obj
 0001:0000f4cb       __ehhandler$?clear@?$QMap@VQString@@VdeviceTypeInfo@@@@QAEXXZ 100104cb f   bncs_instance_lookup.obj
 0001:0000f4cb       __ehhandler$?clear@?$QMap@VQString@@Vstyleentry@@@@QAEXXZ 100104cb f   bncs_instance_lookup.obj
 0001:0000f4cb       __ehhandler$??0?$QValueListPrivate@VparamInfo@@@@QAE@XZ 100104cb f   bncs_instance_lookup.obj
 0001:0000f4cb       __ehhandler$??0?$QValueListPrivate@VcomplexParam@@@@QAE@XZ 100104cb f   bncs_instance_lookup.obj
 0001:0000f4cb       __ehhandler$??0?$QValueListPrivate@VcomplexInstance@@@@QAE@XZ 100104cb f   bncs_instance_lookup.obj
 0001:0000f4f0       __unwindfunclet$??0complexParam@@QAE@ABV0@@Z$0 100104f0 f   bncs_instance_lookup.obj
 0001:0000f4fc       __ehhandler$??0complexParam@@QAE@ABV0@@Z 100104fc f   bncs_instance_lookup.obj
 0001:0000f520       __unwindfunclet$??0instanceInfo@@QAE@ABV0@@Z$0 10010520 f   bncs_instance_lookup.obj
 0001:0000f52c       __unwindfunclet$??0instanceInfo@@QAE@ABV0@@Z$1 1001052c f   bncs_instance_lookup.obj
 0001:0000f538       __unwindfunclet$??0instanceInfo@@QAE@ABV0@@Z$2 10010538 f   bncs_instance_lookup.obj
 0001:0000f544       __ehhandler$??0instanceInfo@@QAE@ABV0@@Z 10010544 f   bncs_instance_lookup.obj
 0001:0000f560       __unwindfunclet$??1?$QMapPrivate@VQString@@VcomplexInstance@@@@QAE@XZ$0 10010560 f   bncs_instance_lookup.obj
 0001:0000f56b       __ehhandler$??1?$QMapPrivate@VQString@@VcomplexInstance@@@@QAE@XZ 1001056b f   bncs_instance_lookup.obj
 0001:0000f590       __unwindfunclet$??1?$QMapPrivate@VQString@@VcomplexParam@@@@QAE@XZ$0 10010590 f   bncs_instance_lookup.obj
 0001:0000f59b       __ehhandler$??1?$QMapPrivate@VQString@@VcomplexParam@@@@QAE@XZ 1001059b f   bncs_instance_lookup.obj
 0001:0000f5c0       __unwindfunclet$??1?$QMapPrivate@VQString@@VcomplexType@@@@QAE@XZ$0 100105c0 f   bncs_instance_lookup.obj
 0001:0000f5cb       __ehhandler$??1?$QMapPrivate@VQString@@VcomplexType@@@@QAE@XZ 100105cb f   bncs_instance_lookup.obj
 0001:0000f5f0       __unwindfunclet$??1?$QMapPrivate@VQString@@VdeviceTypeInfo@@@@QAE@XZ$0 100105f0 f   bncs_instance_lookup.obj
 0001:0000f5fb       __ehhandler$??1?$QMapPrivate@VQString@@VdeviceTypeInfo@@@@QAE@XZ 100105fb f   bncs_instance_lookup.obj
 0001:0000f620       __unwindfunclet$??1?$QMapPrivate@VQString@@VinstanceInfo@@@@QAE@XZ$0 10010620 f   bncs_instance_lookup.obj
 0001:0000f62b       __ehhandler$??1?$QMapPrivate@VQString@@VinstanceInfo@@@@QAE@XZ 1001062b f   bncs_instance_lookup.obj
 0001:0000f650       __unwindfunclet$??1?$QMapPrivate@VQString@@VparamInfo@@@@QAE@XZ$0 10010650 f   bncs_instance_lookup.obj
 0001:0000f65b       __ehhandler$??1?$QMapPrivate@VQString@@VparamInfo@@@@QAE@XZ 1001065b f   bncs_instance_lookup.obj
 0001:0000f680       __unwindfunclet$??A?$QMap@VQString@@VcomplexInstance@@@@QAEAAVcomplexInstance@@ABVQString@@@Z$1 10010680 f   bncs_instance_lookup.obj
 0001:0000f68b       __unwindfunclet$??A?$QMap@VQString@@VcomplexInstance@@@@QAEAAVcomplexInstance@@ABVQString@@@Z$0 1001068b f   bncs_instance_lookup.obj
 0001:0000f693       __ehhandler$??A?$QMap@VQString@@VcomplexInstance@@@@QAEAAVcomplexInstance@@ABVQString@@@Z 10010693 f   bncs_instance_lookup.obj
 0001:0000f6b0       __unwindfunclet$??A?$QMap@VQString@@VcomplexParam@@@@QAEAAVcomplexParam@@ABVQString@@@Z$1 100106b0 f   bncs_instance_lookup.obj
 0001:0000f6bb       __unwindfunclet$??A?$QMap@VQString@@VcomplexParam@@@@QAEAAVcomplexParam@@ABVQString@@@Z$0 100106bb f   bncs_instance_lookup.obj
 0001:0000f6c3       __ehhandler$??A?$QMap@VQString@@VcomplexParam@@@@QAEAAVcomplexParam@@ABVQString@@@Z 100106c3 f   bncs_instance_lookup.obj
 0001:0000f6e0       __unwindfunclet$??A?$QMap@VQString@@VcomplexType@@@@QAEAAVcomplexType@@ABVQString@@@Z$1 100106e0 f   bncs_instance_lookup.obj
 0001:0000f6eb       __unwindfunclet$??A?$QMap@VQString@@VcomplexType@@@@QAEAAVcomplexType@@ABVQString@@@Z$0 100106eb f   bncs_instance_lookup.obj
 0001:0000f6f3       __ehhandler$??A?$QMap@VQString@@VcomplexType@@@@QAEAAVcomplexType@@ABVQString@@@Z 100106f3 f   bncs_instance_lookup.obj
 0001:0000f710       __unwindfunclet$??A?$QMap@VQString@@VdeviceTypeInfo@@@@QAEAAVdeviceTypeInfo@@ABVQString@@@Z$1 10010710 f   bncs_instance_lookup.obj
 0001:0000f71b       __unwindfunclet$??A?$QMap@VQString@@VdeviceTypeInfo@@@@QAEAAVdeviceTypeInfo@@ABVQString@@@Z$0 1001071b f   bncs_instance_lookup.obj
 0001:0000f723       __ehhandler$??A?$QMap@VQString@@VdeviceTypeInfo@@@@QAEAAVdeviceTypeInfo@@ABVQString@@@Z 10010723 f   bncs_instance_lookup.obj
 0001:0000f740       __unwindfunclet$??A?$QMap@VQString@@VinstanceInfo@@@@QAEAAVinstanceInfo@@ABVQString@@@Z$1 10010740 f   bncs_instance_lookup.obj
 0001:0000f74b       __unwindfunclet$??A?$QMap@VQString@@VinstanceInfo@@@@QAEAAVinstanceInfo@@ABVQString@@@Z$0 1001074b f   bncs_instance_lookup.obj
 0001:0000f753       __ehhandler$??A?$QMap@VQString@@VinstanceInfo@@@@QAEAAVinstanceInfo@@ABVQString@@@Z 10010753 f   bncs_instance_lookup.obj
 0001:0000f770       __unwindfunclet$??A?$QMap@VQString@@VparamInfo@@@@QAEAAVparamInfo@@ABVQString@@@Z$1 10010770 f   bncs_instance_lookup.obj
 0001:0000f77b       __unwindfunclet$??A?$QMap@VQString@@VparamInfo@@@@QAEAAVparamInfo@@ABVQString@@@Z$0 1001077b f   bncs_instance_lookup.obj
 0001:0000f783       __unwindfunclet$??A?$QMap@VQString@@VparamInfo@@@@QAEAAVparamInfo@@ABVQString@@@Z$2 10010783 f   bncs_instance_lookup.obj
 0001:0000f78e       __ehhandler$??A?$QMap@VQString@@VparamInfo@@@@QAEAAVparamInfo@@ABVQString@@@Z 1001078e f   bncs_instance_lookup.obj
 0001:0000f7b0       __unwindfunclet$??__E?complexTypes@bncs_instance_lookup@@2V?$QMap@VQString@@VcomplexType@@@@A@@YAXXZ$0 100107b0 f   bncs_instance_lookup.obj
 0001:0000f7b0       __unwindfunclet$??__E?deviceTypes@bncs_instance_lookup@@2V?$QMap@VQString@@VdeviceTypeInfo@@@@A@@YAXXZ$0 100107b0 f   bncs_instance_lookup.obj
 0001:0000f7b0       __unwindfunclet$??__E?styles@bncs_stylesheet@@0V?$QMap@VQString@@Vstyleentry@@@@A@@YAXXZ$0 100107b0 f   bncs_instance_lookup.obj
 0001:0000f7b0       __unwindfunclet$??__E?instances@bncs_instance_lookup@@2V?$QMap@VQString@@VinstanceInfo@@@@A@@YAXXZ$0 100107b0 f   bncs_instance_lookup.obj
 0001:0000f7bb       __ehhandler$??__E?instances@bncs_instance_lookup@@2V?$QMap@VQString@@VinstanceInfo@@@@A@@YAXXZ 100107bb f   bncs_instance_lookup.obj
 0001:0000f7bb       __ehhandler$??__E?complexTypes@bncs_instance_lookup@@2V?$QMap@VQString@@VcomplexType@@@@A@@YAXXZ 100107bb f   bncs_instance_lookup.obj
 0001:0000f7bb       __ehhandler$??__E?styles@bncs_stylesheet@@0V?$QMap@VQString@@Vstyleentry@@@@A@@YAXXZ 100107bb f   bncs_instance_lookup.obj
 0001:0000f7bb       __ehhandler$??__E?deviceTypes@bncs_instance_lookup@@2V?$QMap@VQString@@VdeviceTypeInfo@@@@A@@YAXXZ 100107bb f   bncs_instance_lookup.obj
 0001:0000f7e0       __ehhandler$?_Copy@?$basic_string@DU?$char_traits@D@std@@V?$allocator@D@2@@std@@QAEXII@Z 100107e0 f   bncs_instance_lookup.obj
 0001:0000f800       __unwindfunclet$?append@?$QValueList@Vstyleentry@@@@QAE?AV?$QValueListIterator@Vstyleentry@@@@ABVstyleentry@@@Z$0 10010800 f   bncs_instance_lookup.obj
 0001:0000f800       __unwindfunclet$?append@?$QValueList@VdeviceTypeInfo@@@@QAE?AV?$QValueListIterator@VdeviceTypeInfo@@@@ABVdeviceTypeInfo@@@Z$0 10010800 f   bncs_instance_lookup.obj
 0001:0000f800       __unwindfunclet$?append@?$QValueList@VparamInfo@@@@QAE?AV?$QValueListIterator@VparamInfo@@@@ABVparamInfo@@@Z$0 10010800 f   bncs_instance_lookup.obj
 0001:0000f800       __unwindfunclet$?append@?$QValueList@VcomplexParam@@@@QAE?AV?$QValueListIterator@VcomplexParam@@@@ABVcomplexParam@@@Z$0 10010800 f   bncs_instance_lookup.obj
 0001:0000f800       __unwindfunclet$?append@?$QValueList@VinstanceInfo@@@@QAE?AV?$QValueListIterator@VinstanceInfo@@@@ABVinstanceInfo@@@Z$0 10010800 f   bncs_instance_lookup.obj
 0001:0000f800       __unwindfunclet$?append@?$QValueList@VcomplexType@@@@QAE?AV?$QValueListIterator@VcomplexType@@@@ABVcomplexType@@@Z$0 10010800 f   bncs_instance_lookup.obj
 0001:0000f800       __unwindfunclet$?append@?$QValueList@VcomplexInstance@@@@QAE?AV?$QValueListIterator@VcomplexInstance@@@@ABVcomplexInstance@@@Z$0 10010800 f   bncs_instance_lookup.obj
 0001:0000f80b       __unwindfunclet$?append@?$QValueList@VinstanceInfo@@@@QAE?AV?$QValueListIterator@VinstanceInfo@@@@ABVinstanceInfo@@@Z$1 1001080b f   bncs_instance_lookup.obj
 0001:0000f80b       __unwindfunclet$?append@?$QValueList@VcomplexType@@@@QAE?AV?$QValueListIterator@VcomplexType@@@@ABVcomplexType@@@Z$1 1001080b f   bncs_instance_lookup.obj
 0001:0000f80b       __unwindfunclet$?append@?$QValueList@Vstyleentry@@@@QAE?AV?$QValueListIterator@Vstyleentry@@@@ABVstyleentry@@@Z$1 1001080b f   bncs_instance_lookup.obj
 0001:0000f80b       __unwindfunclet$?append@?$QValueList@VcomplexParam@@@@QAE?AV?$QValueListIterator@VcomplexParam@@@@ABVcomplexParam@@@Z$1 1001080b f   bncs_instance_lookup.obj
 0001:0000f80b       __unwindfunclet$?append@?$QValueList@VparamInfo@@@@QAE?AV?$QValueListIterator@VparamInfo@@@@ABVparamInfo@@@Z$1 1001080b f   bncs_instance_lookup.obj
 0001:0000f80b       __unwindfunclet$?append@?$QValueList@VcomplexInstance@@@@QAE?AV?$QValueListIterator@VcomplexInstance@@@@ABVcomplexInstance@@@Z$1 1001080b f   bncs_instance_lookup.obj
 0001:0000f80b       __unwindfunclet$?append@?$QValueList@VdeviceTypeInfo@@@@QAE?AV?$QValueListIterator@VdeviceTypeInfo@@@@ABVdeviceTypeInfo@@@Z$1 1001080b f   bncs_instance_lookup.obj
 0001:0000f816       __ehhandler$?append@?$QValueList@Vstyleentry@@@@QAE?AV?$QValueListIterator@Vstyleentry@@@@ABVstyleentry@@@Z 10010816 f   bncs_instance_lookup.obj
 0001:0000f816       __ehhandler$?append@?$QValueList@VinstanceInfo@@@@QAE?AV?$QValueListIterator@VinstanceInfo@@@@ABVinstanceInfo@@@Z 10010816 f   bncs_instance_lookup.obj
 0001:0000f816       __ehhandler$?append@?$QValueList@VcomplexType@@@@QAE?AV?$QValueListIterator@VcomplexType@@@@ABVcomplexType@@@Z 10010816 f   bncs_instance_lookup.obj
 0001:0000f816       __ehhandler$?append@?$QValueList@VparamInfo@@@@QAE?AV?$QValueListIterator@VparamInfo@@@@ABVparamInfo@@@Z 10010816 f   bncs_instance_lookup.obj
 0001:0000f816       __ehhandler$?append@?$QValueList@VcomplexParam@@@@QAE?AV?$QValueListIterator@VcomplexParam@@@@ABVcomplexParam@@@Z 10010816 f   bncs_instance_lookup.obj
 0001:0000f816       __ehhandler$?append@?$QValueList@VdeviceTypeInfo@@@@QAE?AV?$QValueListIterator@VdeviceTypeInfo@@@@ABVdeviceTypeInfo@@@Z 10010816 f   bncs_instance_lookup.obj
 0001:0000f816       __ehhandler$?append@?$QValueList@VcomplexInstance@@@@QAE?AV?$QValueListIterator@VcomplexInstance@@@@ABVcomplexInstance@@@Z 10010816 f   bncs_instance_lookup.obj
 0001:0000f840       __unwindfunclet$?clear@?$QMapPrivate@VQString@@VcomplexInstance@@@@QAEXPAU?$QMapNode@VQString@@VcomplexInstance@@@@@Z$0 10010840 f   bncs_instance_lookup.obj
 0001:0000f84b       __ehhandler$?clear@?$QMapPrivate@VQString@@VcomplexInstance@@@@QAEXPAU?$QMapNode@VQString@@VcomplexInstance@@@@@Z 1001084b f   bncs_instance_lookup.obj
 0001:0000f870       __unwindfunclet$?clear@?$QMapPrivate@VQString@@VcomplexParam@@@@QAEXPAU?$QMapNode@VQString@@VcomplexParam@@@@@Z$0 10010870 f   bncs_instance_lookup.obj
 0001:0000f87b       __ehhandler$?clear@?$QMapPrivate@VQString@@VcomplexParam@@@@QAEXPAU?$QMapNode@VQString@@VcomplexParam@@@@@Z 1001087b f   bncs_instance_lookup.obj
 0001:0000f8a0       __unwindfunclet$?clear@?$QMapPrivate@VQString@@VcomplexType@@@@QAEXPAU?$QMapNode@VQString@@VcomplexType@@@@@Z$0 100108a0 f   bncs_instance_lookup.obj
 0001:0000f8ab       __ehhandler$?clear@?$QMapPrivate@VQString@@VcomplexType@@@@QAEXPAU?$QMapNode@VQString@@VcomplexType@@@@@Z 100108ab f   bncs_instance_lookup.obj
 0001:0000f8d0       __unwindfunclet$?clear@?$QMapPrivate@VQString@@VdeviceTypeInfo@@@@QAEXPAU?$QMapNode@VQString@@VdeviceTypeInfo@@@@@Z$0 100108d0 f   bncs_instance_lookup.obj
 0001:0000f8db       __ehhandler$?clear@?$QMapPrivate@VQString@@VdeviceTypeInfo@@@@QAEXPAU?$QMapNode@VQString@@VdeviceTypeInfo@@@@@Z 100108db f   bncs_instance_lookup.obj
 0001:0000f900       __unwindfunclet$?clear@?$QMapPrivate@VQString@@VinstanceInfo@@@@QAEXPAU?$QMapNode@VQString@@VinstanceInfo@@@@@Z$0 10010900 f   bncs_instance_lookup.obj
 0001:0000f90b       __ehhandler$?clear@?$QMapPrivate@VQString@@VinstanceInfo@@@@QAEXPAU?$QMapNode@VQString@@VinstanceInfo@@@@@Z 1001090b f   bncs_instance_lookup.obj
 0001:0000f930       __unwindfunclet$?clear@?$QMapPrivate@VQString@@VparamInfo@@@@QAEXPAU?$QMapNode@VQString@@VparamInfo@@@@@Z$0 10010930 f   bncs_instance_lookup.obj
 0001:0000f93b       __ehhandler$?clear@?$QMapPrivate@VQString@@VparamInfo@@@@QAEXPAU?$QMapNode@VQString@@VparamInfo@@@@@Z 1001093b f   bncs_instance_lookup.obj
 0001:0000f960       __unwindfunclet$?copy@?$QMapPrivate@VQString@@VcomplexType@@@@QAEPAU?$QMapNode@VQString@@VcomplexType@@@@PAU2@@Z$0 10010960 f   bncs_instance_lookup.obj
 0001:0000f960       __unwindfunclet$?copy@?$QMapPrivate@VQString@@VinstanceInfo@@@@QAEPAU?$QMapNode@VQString@@VinstanceInfo@@@@PAU2@@Z$0 10010960 f   bncs_instance_lookup.obj
 0001:0000f960       __unwindfunclet$?copy@?$QMapPrivate@VQString@@VcomplexInstance@@@@QAEPAU?$QMapNode@VQString@@VcomplexInstance@@@@PAU2@@Z$0 10010960 f   bncs_instance_lookup.obj
 0001:0000f960       __unwindfunclet$?copy@?$QMapPrivate@VQString@@VcomplexParam@@@@QAEPAU?$QMapNode@VQString@@VcomplexParam@@@@PAU2@@Z$0 10010960 f   bncs_instance_lookup.obj
 0001:0000f960       __unwindfunclet$?copy@?$QMapPrivate@VQString@@VdeviceTypeInfo@@@@QAEPAU?$QMapNode@VQString@@VdeviceTypeInfo@@@@PAU2@@Z$0 10010960 f   bncs_instance_lookup.obj
 0001:0000f960       __unwindfunclet$?copy@?$QMapPrivate@VQString@@Vstyleentry@@@@QAEPAU?$QMapNode@VQString@@Vstyleentry@@@@PAU2@@Z$0 10010960 f   bncs_instance_lookup.obj
 0001:0000f96b       __ehhandler$?copy@?$QMapPrivate@VQString@@VcomplexParam@@@@QAEPAU?$QMapNode@VQString@@VcomplexParam@@@@PAU2@@Z 1001096b f   bncs_instance_lookup.obj
 0001:0000f96b       __ehhandler$?copy@?$QMapPrivate@VQString@@VinstanceInfo@@@@QAEPAU?$QMapNode@VQString@@VinstanceInfo@@@@PAU2@@Z 1001096b f   bncs_instance_lookup.obj
 0001:0000f96b       __ehhandler$?copy@?$QMapPrivate@VQString@@VcomplexType@@@@QAEPAU?$QMapNode@VQString@@VcomplexType@@@@PAU2@@Z 1001096b f   bncs_instance_lookup.obj
 0001:0000f96b       __ehhandler$?copy@?$QMapPrivate@VQString@@VdeviceTypeInfo@@@@QAEPAU?$QMapNode@VQString@@VdeviceTypeInfo@@@@PAU2@@Z 1001096b f   bncs_instance_lookup.obj
 0001:0000f96b       __ehhandler$?copy@?$QMapPrivate@VQString@@VcomplexInstance@@@@QAEPAU?$QMapNode@VQString@@VcomplexInstance@@@@PAU2@@Z 1001096b f   bncs_instance_lookup.obj
 0001:0000f96b       __ehhandler$?copy@?$QMapPrivate@VQString@@Vstyleentry@@@@QAEPAU?$QMapNode@VQString@@Vstyleentry@@@@PAU2@@Z 1001096b f   bncs_instance_lookup.obj
 0001:0000f990       __unwindfunclet$?copy@?$QMapPrivate@VQString@@VparamInfo@@@@QAEPAU?$QMapNode@VQString@@VparamInfo@@@@PAU2@@Z$0 10010990 f   bncs_instance_lookup.obj
 0001:0000f99b       __unwindfunclet$?copy@?$QMapPrivate@VQString@@VparamInfo@@@@QAEPAU?$QMapNode@VQString@@VparamInfo@@@@PAU2@@Z$1 1001099b f   bncs_instance_lookup.obj
 0001:0000f9a6       __unwindfunclet$?copy@?$QMapPrivate@VQString@@VparamInfo@@@@QAEPAU?$QMapNode@VQString@@VparamInfo@@@@PAU2@@Z$2 100109a6 f   bncs_instance_lookup.obj
 0001:0000f9b2       __ehhandler$?copy@?$QMapPrivate@VQString@@VparamInfo@@@@QAEPAU?$QMapNode@VQString@@VparamInfo@@@@PAU2@@Z 100109b2 f   bncs_instance_lookup.obj
 0001:0000f9d0       __unwindfunclet$?dump@bncs_instance_lookup@@SAXXZ$0 100109d0 f   bncs_instance_lookup.obj
 0001:0000f9db       __unwindfunclet$?dump@bncs_instance_lookup@@SAXXZ$1 100109db f   bncs_instance_lookup.obj
 0001:0000f9e6       __ehhandler$?dump@bncs_instance_lookup@@SAXXZ 100109e6 f   bncs_instance_lookup.obj
 0001:0000fa10       __unwindfunclet$?remove@?$QMap@VQString@@VcomplexInstance@@@@QAEXV?$QMapIterator@VQString@@VcomplexInstance@@@@@Z$0 10010a10 f   bncs_instance_lookup.obj
 0001:0000fa10       __unwindfunclet$?erase@?$QMap@VQString@@VcomplexInstance@@@@QAEXV?$QMapIterator@VQString@@VcomplexInstance@@@@@Z$0 10010a10 f   bncs_instance_lookup.obj
 0001:0000fa1b       __unwindfunclet$?erase@?$QMap@VQString@@VcomplexInstance@@@@QAEXV?$QMapIterator@VQString@@VcomplexInstance@@@@@Z$1 10010a1b f   bncs_instance_lookup.obj
 0001:0000fa1b       __unwindfunclet$?remove@?$QMap@VQString@@VcomplexInstance@@@@QAEXV?$QMapIterator@VQString@@VcomplexInstance@@@@@Z$1 10010a1b f   bncs_instance_lookup.obj
 0001:0000fa26       __ehhandler$?remove@?$QMap@VQString@@VcomplexInstance@@@@QAEXV?$QMapIterator@VQString@@VcomplexInstance@@@@@Z 10010a26 f   bncs_instance_lookup.obj
 0001:0000fa26       __ehhandler$?erase@?$QMap@VQString@@VcomplexInstance@@@@QAEXV?$QMapIterator@VQString@@VcomplexInstance@@@@@Z 10010a26 f   bncs_instance_lookup.obj
 0001:0000fa50       __unwindfunclet$?erase@?$QMap@VQString@@VcomplexType@@@@QAEXABVQString@@@Z$0 10010a50 f   bncs_instance_lookup.obj
 0001:0000fa50       __unwindfunclet$?remove@?$QMap@VQString@@VcomplexType@@@@QAEXABVQString@@@Z$0 10010a50 f   bncs_instance_lookup.obj
 0001:0000fa5b       __unwindfunclet$?remove@?$QMap@VQString@@VcomplexType@@@@QAEXABVQString@@@Z$1 10010a5b f   bncs_instance_lookup.obj
 0001:0000fa5b       __unwindfunclet$?erase@?$QMap@VQString@@VcomplexType@@@@QAEXABVQString@@@Z$1 10010a5b f   bncs_instance_lookup.obj
 0001:0000fa66       __unwindfunclet$?erase@?$QMap@VQString@@VcomplexType@@@@QAEXABVQString@@@Z$2 10010a66 f   bncs_instance_lookup.obj
 0001:0000fa66       __unwindfunclet$?remove@?$QMap@VQString@@VcomplexType@@@@QAEXABVQString@@@Z$2 10010a66 f   bncs_instance_lookup.obj
 0001:0000fa71       __ehhandler$?erase@?$QMap@VQString@@VcomplexType@@@@QAEXABVQString@@@Z 10010a71 f   bncs_instance_lookup.obj
 0001:0000fa71       __ehhandler$?remove@?$QMap@VQString@@VcomplexType@@@@QAEXABVQString@@@Z 10010a71 f   bncs_instance_lookup.obj
 0001:0000fa90       __unwindfunclet$?remove@?$QMap@VQString@@VcomplexType@@@@QAEXV?$QMapIterator@VQString@@VcomplexType@@@@@Z$0 10010a90 f   bncs_instance_lookup.obj
 0001:0000fa90       __unwindfunclet$?erase@?$QMap@VQString@@VcomplexType@@@@QAEXV?$QMapIterator@VQString@@VcomplexType@@@@@Z$0 10010a90 f   bncs_instance_lookup.obj
 0001:0000fa9b       __unwindfunclet$?erase@?$QMap@VQString@@VcomplexType@@@@QAEXV?$QMapIterator@VQString@@VcomplexType@@@@@Z$1 10010a9b f   bncs_instance_lookup.obj
 0001:0000fa9b       __unwindfunclet$?remove@?$QMap@VQString@@VcomplexType@@@@QAEXV?$QMapIterator@VQString@@VcomplexType@@@@@Z$1 10010a9b f   bncs_instance_lookup.obj
 0001:0000faa6       __ehhandler$?remove@?$QMap@VQString@@VcomplexType@@@@QAEXV?$QMapIterator@VQString@@VcomplexType@@@@@Z 10010aa6 f   bncs_instance_lookup.obj
 0001:0000faa6       __ehhandler$?erase@?$QMap@VQString@@VcomplexType@@@@QAEXV?$QMapIterator@VQString@@VcomplexType@@@@@Z 10010aa6 f   bncs_instance_lookup.obj
 0001:0000fad0       __unwindfunclet$?erase@?$QMap@VQString@@VinstanceInfo@@@@QAEXV?$QMapIterator@VQString@@VinstanceInfo@@@@@Z$0 10010ad0 f   bncs_instance_lookup.obj
 0001:0000fad0       __unwindfunclet$?remove@?$QMap@VQString@@VinstanceInfo@@@@QAEXV?$QMapIterator@VQString@@VinstanceInfo@@@@@Z$0 10010ad0 f   bncs_instance_lookup.obj
 0001:0000fadb       __unwindfunclet$?remove@?$QMap@VQString@@VinstanceInfo@@@@QAEXV?$QMapIterator@VQString@@VinstanceInfo@@@@@Z$1 10010adb f   bncs_instance_lookup.obj
 0001:0000fadb       __unwindfunclet$?erase@?$QMap@VQString@@VinstanceInfo@@@@QAEXV?$QMapIterator@VQString@@VinstanceInfo@@@@@Z$1 10010adb f   bncs_instance_lookup.obj
 0001:0000fae6       __ehhandler$?remove@?$QMap@VQString@@VinstanceInfo@@@@QAEXV?$QMapIterator@VQString@@VinstanceInfo@@@@@Z 10010ae6 f   bncs_instance_lookup.obj
 0001:0000fae6       __ehhandler$?erase@?$QMap@VQString@@VinstanceInfo@@@@QAEXV?$QMapIterator@VQString@@VinstanceInfo@@@@@Z 10010ae6 f   bncs_instance_lookup.obj
 0001:0000fb10       __unwindfunclet$?remove@?$QMap@VQString@@VparamInfo@@@@QAEXV?$QMapIterator@VQString@@VparamInfo@@@@@Z$0 10010b10 f   bncs_instance_lookup.obj
 0001:0000fb10       __unwindfunclet$?erase@?$QMap@VQString@@VparamInfo@@@@QAEXV?$QMapIterator@VQString@@VparamInfo@@@@@Z$0 10010b10 f   bncs_instance_lookup.obj
 0001:0000fb1b       __unwindfunclet$?erase@?$QMap@VQString@@VparamInfo@@@@QAEXV?$QMapIterator@VQString@@VparamInfo@@@@@Z$1 10010b1b f   bncs_instance_lookup.obj
 0001:0000fb1b       __unwindfunclet$?remove@?$QMap@VQString@@VparamInfo@@@@QAEXV?$QMapIterator@VQString@@VparamInfo@@@@@Z$1 10010b1b f   bncs_instance_lookup.obj
 0001:0000fb26       __ehhandler$?erase@?$QMap@VQString@@VparamInfo@@@@QAEXV?$QMapIterator@VQString@@VparamInfo@@@@@Z 10010b26 f   bncs_instance_lookup.obj
 0001:0000fb26       __ehhandler$?remove@?$QMap@VQString@@VparamInfo@@@@QAEXV?$QMapIterator@VQString@@VparamInfo@@@@@Z 10010b26 f   bncs_instance_lookup.obj
 0001:0000fb50       __unwindfunclet$?getInstanceInfo@bncs_instance_lookup@@SA_NABVQString@@PAPAVinstanceInfo@@@Z$1 10010b50 f   bncs_instance_lookup.obj
 0001:0000fb5b       __unwindfunclet$?getInstanceInfo@bncs_instance_lookup@@SA_NABVQString@@PAPAVinstanceInfo@@@Z$2 10010b5b f   bncs_instance_lookup.obj
 0001:0000fb66       __unwindfunclet$?getInstanceInfo@bncs_instance_lookup@@SA_NABVQString@@PAPAVinstanceInfo@@@Z$0 10010b66 f   bncs_instance_lookup.obj
 0001:0000fb6f       __ehhandler$?getInstanceInfo@bncs_instance_lookup@@SA_NABVQString@@PAPAVinstanceInfo@@@Z 10010b6f f   bncs_instance_lookup.obj
 0001:0000fb90       __unwindfunclet$?insert@?$QMap@VQString@@VinstanceInfo@@@@QAE?AV?$QMapIterator@VQString@@VinstanceInfo@@@@ABVQString@@ABVinstanceInfo@@_N@Z$0 10010b90 f   bncs_instance_lookup.obj
 0001:0000fb90       __unwindfunclet$?insert@?$QMap@VQString@@VdeviceTypeInfo@@@@QAE?AU?$QPair@V?$QMapIterator@VQString@@VdeviceTypeInfo@@@@_N@@ABU?$QPair@$$CBVQString@@VdeviceTypeInfo@@@@@Z$0 10010b90 f   bncs_instance_lookup.obj
 0001:0000fb90       __unwindfunclet$?insert@?$QMap@VQString@@Vstyleentry@@@@QAE?AV?$QMapIterator@VQString@@Vstyleentry@@@@ABVQString@@ABVstyleentry@@_N@Z$0 10010b90 f   bncs_instance_lookup.obj
 0001:0000fb90       __unwindfunclet$?insert@?$QMapPrivate@VQString@@Vstyleentry@@@@QAE?AV?$QMapIterator@VQString@@Vstyleentry@@@@PAUQMapNodeBase@@0ABVQString@@@Z$0 10010b90 f   bncs_instance_lookup.obj
 0001:0000fb90       __unwindfunclet$?insert@?$QMap@VQString@@VcomplexInstance@@@@QAE?AV?$QMapIterator@VQString@@VcomplexInstance@@@@ABVQString@@ABVcomplexInstance@@_N@Z$0 10010b90 f   bncs_instance_lookup.obj
 0001:0000fb90       __unwindfunclet$?insert@?$QMap@VQString@@VcomplexType@@@@QAE?AU?$QPair@V?$QMapIterator@VQString@@VcomplexType@@@@_N@@ABU?$QPair@$$CBVQString@@VcomplexType@@@@@Z$0 10010b90 f   bncs_instance_lookup.obj
 0001:0000fb90       __unwindfunclet$?insert@?$QMap@VQString@@VcomplexInstance@@@@QAE?AU?$QPair@V?$QMapIterator@VQString@@VcomplexInstance@@@@_N@@ABU?$QPair@$$CBVQString@@VcomplexInstance@@@@@Z$0 10010b90 f   bncs_instance_lookup.obj
 0001:0000fb90       __unwindfunclet$?insert@?$QMap@VQString@@VparamInfo@@@@QAE?AV?$QMapIterator@VQString@@VparamInfo@@@@ABVQString@@ABVparamInfo@@_N@Z$0 10010b90 f   bncs_instance_lookup.obj
 0001:0000fb90       __unwindfunclet$?insert@?$QMap@VQString@@VcomplexParam@@@@QAE?AV?$QMapIterator@VQString@@VcomplexParam@@@@ABVQString@@ABVcomplexParam@@_N@Z$0 10010b90 f   bncs_instance_lookup.obj
 0001:0000fb90       __unwindfunclet$?insert@?$QMap@VQString@@VinstanceInfo@@@@QAE?AU?$QPair@V?$QMapIterator@VQString@@VinstanceInfo@@@@_N@@ABU?$QPair@$$CBVQString@@VinstanceInfo@@@@@Z$0 10010b90 f   bncs_instance_lookup.obj
 0001:0000fb90       __unwindfunclet$?insert@?$QMap@VQString@@VcomplexParam@@@@QAE?AU?$QPair@V?$QMapIterator@VQString@@VcomplexParam@@@@_N@@ABU?$QPair@$$CBVQString@@VcomplexParam@@@@@Z$0 10010b90 f   bncs_instance_lookup.obj
 0001:0000fb90       __unwindfunclet$?insert@?$QMap@VQString@@VdeviceTypeInfo@@@@QAE?AV?$QMapIterator@VQString@@VdeviceTypeInfo@@@@ABVQString@@ABVdeviceTypeInfo@@_N@Z$0 10010b90 f   bncs_instance_lookup.obj
 0001:0000fb90       __unwindfunclet$?insert@?$QMap@VQString@@VparamInfo@@@@QAE?AU?$QPair@V?$QMapIterator@VQString@@VparamInfo@@@@_N@@ABU?$QPair@$$CBVQString@@VparamInfo@@@@@Z$0 10010b90 f   bncs_instance_lookup.obj
 0001:0000fb90       __unwindfunclet$?insert@?$QMap@VQString@@VcomplexType@@@@QAE?AV?$QMapIterator@VQString@@VcomplexType@@@@ABVQString@@ABVcomplexType@@_N@Z$0 10010b90 f   bncs_instance_lookup.obj
 0001:0000fb9b       __ehhandler$?insert@?$QMap@VQString@@VcomplexParam@@@@QAE?AV?$QMapIterator@VQString@@VcomplexParam@@@@ABVQString@@ABVcomplexParam@@_N@Z 10010b9b f   bncs_instance_lookup.obj
 0001:0000fb9b       __ehhandler$?insert@?$QMap@VQString@@VcomplexInstance@@@@QAE?AU?$QPair@V?$QMapIterator@VQString@@VcomplexInstance@@@@_N@@ABU?$QPair@$$CBVQString@@VcomplexInstance@@@@@Z 10010b9b f   bncs_instance_lookup.obj
 0001:0000fb9b       __ehhandler$?insert@?$QMap@VQString@@VparamInfo@@@@QAE?AV?$QMapIterator@VQString@@VparamInfo@@@@ABVQString@@ABVparamInfo@@_N@Z 10010b9b f   bncs_instance_lookup.obj
 0001:0000fb9b       __ehhandler$?insert@?$QMap@VQString@@VcomplexInstance@@@@QAE?AV?$QMapIterator@VQString@@VcomplexInstance@@@@ABVQString@@ABVcomplexInstance@@_N@Z 10010b9b f   bncs_instance_lookup.obj
 0001:0000fb9b       __ehhandler$?insert@?$QMap@VQString@@VinstanceInfo@@@@QAE?AU?$QPair@V?$QMapIterator@VQString@@VinstanceInfo@@@@_N@@ABU?$QPair@$$CBVQString@@VinstanceInfo@@@@@Z 10010b9b f   bncs_instance_lookup.obj
 0001:0000fb9b       __ehhandler$?insert@?$QMap@VQString@@VparamInfo@@@@QAE?AU?$QPair@V?$QMapIterator@VQString@@VparamInfo@@@@_N@@ABU?$QPair@$$CBVQString@@VparamInfo@@@@@Z 10010b9b f   bncs_instance_lookup.obj
 0001:0000fb9b       __ehhandler$?insert@?$QMap@VQString@@VinstanceInfo@@@@QAE?AV?$QMapIterator@VQString@@VinstanceInfo@@@@ABVQString@@ABVinstanceInfo@@_N@Z 10010b9b f   bncs_instance_lookup.obj
 0001:0000fb9b       __ehhandler$?insert@?$QMap@VQString@@VdeviceTypeInfo@@@@QAE?AU?$QPair@V?$QMapIterator@VQString@@VdeviceTypeInfo@@@@_N@@ABU?$QPair@$$CBVQString@@VdeviceTypeInfo@@@@@Z 10010b9b f   bncs_instance_lookup.obj
 0001:0000fb9b       __ehhandler$?insert@?$QMap@VQString@@Vstyleentry@@@@QAE?AV?$QMapIterator@VQString@@Vstyleentry@@@@ABVQString@@ABVstyleentry@@_N@Z 10010b9b f   bncs_instance_lookup.obj
 0001:0000fb9b       __ehhandler$?insert@?$QMap@VQString@@VdeviceTypeInfo@@@@QAE?AV?$QMapIterator@VQString@@VdeviceTypeInfo@@@@ABVQString@@ABVdeviceTypeInfo@@_N@Z 10010b9b f   bncs_instance_lookup.obj
 0001:0000fb9b       __ehhandler$?insert@?$QMap@VQString@@VcomplexType@@@@QAE?AU?$QPair@V?$QMapIterator@VQString@@VcomplexType@@@@_N@@ABU?$QPair@$$CBVQString@@VcomplexType@@@@@Z 10010b9b f   bncs_instance_lookup.obj
 0001:0000fb9b       __ehhandler$?insert@?$QMap@VQString@@VcomplexType@@@@QAE?AV?$QMapIterator@VQString@@VcomplexType@@@@ABVQString@@ABVcomplexType@@_N@Z 10010b9b f   bncs_instance_lookup.obj
 0001:0000fb9b       __ehhandler$?insert@?$QMap@VQString@@VcomplexParam@@@@QAE?AU?$QPair@V?$QMapIterator@VQString@@VcomplexParam@@@@_N@@ABU?$QPair@$$CBVQString@@VcomplexParam@@@@@Z 10010b9b f   bncs_instance_lookup.obj
 0001:0000fb9b       __ehhandler$?insert@?$QMapPrivate@VQString@@Vstyleentry@@@@QAE?AV?$QMapIterator@VQString@@Vstyleentry@@@@PAUQMapNodeBase@@0ABVQString@@@Z 10010b9b f   bncs_instance_lookup.obj
 0001:0000fbc0       __unwindfunclet$?insert@?$QMapPrivate@VQString@@VcomplexInstance@@@@QAE?AV?$QMapIterator@VQString@@VcomplexInstance@@@@PAUQMapNodeBase@@0ABVQString@@@Z$0 10010bc0 f   bncs_instance_lookup.obj
 0001:0000fbcb       __unwindfunclet$?insert@?$QMapPrivate@VQString@@VcomplexInstance@@@@QAE?AV?$QMapIterator@VQString@@VcomplexInstance@@@@PAUQMapNodeBase@@0ABVQString@@@Z$1 10010bcb f   bncs_instance_lookup.obj
 0001:0000fbd6       __unwindfunclet$?insert@?$QMapPrivate@VQString@@VcomplexInstance@@@@QAE?AV?$QMapIterator@VQString@@VcomplexInstance@@@@PAUQMapNodeBase@@0ABVQString@@@Z$2 10010bd6 f   bncs_instance_lookup.obj
 0001:0000fbe2       __ehhandler$?insert@?$QMapPrivate@VQString@@VcomplexInstance@@@@QAE?AV?$QMapIterator@VQString@@VcomplexInstance@@@@PAUQMapNodeBase@@0ABVQString@@@Z 10010be2 f   bncs_instance_lookup.obj
 0001:0000fc00       __unwindfunclet$?insert@?$QMapPrivate@VQString@@VcomplexParam@@@@QAE?AV?$QMapIterator@VQString@@VcomplexParam@@@@PAUQMapNodeBase@@0ABVQString@@@Z$0 10010c00 f   bncs_instance_lookup.obj
 0001:0000fc0b       __unwindfunclet$?insert@?$QMapPrivate@VQString@@VcomplexParam@@@@QAE?AV?$QMapIterator@VQString@@VcomplexParam@@@@PAUQMapNodeBase@@0ABVQString@@@Z$1 10010c0b f   bncs_instance_lookup.obj
 0001:0000fc16       __unwindfunclet$?insert@?$QMapPrivate@VQString@@VcomplexParam@@@@QAE?AV?$QMapIterator@VQString@@VcomplexParam@@@@PAUQMapNodeBase@@0ABVQString@@@Z$2 10010c16 f   bncs_instance_lookup.obj
 0001:0000fc22       __ehhandler$?insert@?$QMapPrivate@VQString@@VcomplexParam@@@@QAE?AV?$QMapIterator@VQString@@VcomplexParam@@@@PAUQMapNodeBase@@0ABVQString@@@Z 10010c22 f   bncs_instance_lookup.obj
 0001:0000fc40       __unwindfunclet$?insert@?$QMapPrivate@VQString@@VcomplexType@@@@QAE?AV?$QMapIterator@VQString@@VcomplexType@@@@PAUQMapNodeBase@@0ABVQString@@@Z$0 10010c40 f   bncs_instance_lookup.obj
 0001:0000fc4b       __unwindfunclet$?insert@?$QMapPrivate@VQString@@VcomplexType@@@@QAE?AV?$QMapIterator@VQString@@VcomplexType@@@@PAUQMapNodeBase@@0ABVQString@@@Z$1 10010c4b f   bncs_instance_lookup.obj
 0001:0000fc56       __unwindfunclet$?insert@?$QMapPrivate@VQString@@VcomplexType@@@@QAE?AV?$QMapIterator@VQString@@VcomplexType@@@@PAUQMapNodeBase@@0ABVQString@@@Z$2 10010c56 f   bncs_instance_lookup.obj
 0001:0000fc62       __ehhandler$?insert@?$QMapPrivate@VQString@@VcomplexType@@@@QAE?AV?$QMapIterator@VQString@@VcomplexType@@@@PAUQMapNodeBase@@0ABVQString@@@Z 10010c62 f   bncs_instance_lookup.obj
 0001:0000fc80       __unwindfunclet$?insert@?$QMapPrivate@VQString@@VdeviceTypeInfo@@@@QAE?AV?$QMapIterator@VQString@@VdeviceTypeInfo@@@@PAUQMapNodeBase@@0ABVQString@@@Z$0 10010c80 f   bncs_instance_lookup.obj
 0001:0000fc8b       __unwindfunclet$?insert@?$QMapPrivate@VQString@@VdeviceTypeInfo@@@@QAE?AV?$QMapIterator@VQString@@VdeviceTypeInfo@@@@PAUQMapNodeBase@@0ABVQString@@@Z$1 10010c8b f   bncs_instance_lookup.obj
 0001:0000fc96       __unwindfunclet$?insert@?$QMapPrivate@VQString@@VdeviceTypeInfo@@@@QAE?AV?$QMapIterator@VQString@@VdeviceTypeInfo@@@@PAUQMapNodeBase@@0ABVQString@@@Z$2 10010c96 f   bncs_instance_lookup.obj
 0001:0000fca2       __ehhandler$?insert@?$QMapPrivate@VQString@@VdeviceTypeInfo@@@@QAE?AV?$QMapIterator@VQString@@VdeviceTypeInfo@@@@PAUQMapNodeBase@@0ABVQString@@@Z 10010ca2 f   bncs_instance_lookup.obj
 0001:0000fcc0       __unwindfunclet$?insert@?$QMapPrivate@VQString@@VinstanceInfo@@@@QAE?AV?$QMapIterator@VQString@@VinstanceInfo@@@@PAUQMapNodeBase@@0ABVQString@@@Z$0 10010cc0 f   bncs_instance_lookup.obj
 0001:0000fccb       __unwindfunclet$?insert@?$QMapPrivate@VQString@@VinstanceInfo@@@@QAE?AV?$QMapIterator@VQString@@VinstanceInfo@@@@PAUQMapNodeBase@@0ABVQString@@@Z$1 10010ccb f   bncs_instance_lookup.obj
 0001:0000fcd6       __unwindfunclet$?insert@?$QMapPrivate@VQString@@VinstanceInfo@@@@QAE?AV?$QMapIterator@VQString@@VinstanceInfo@@@@PAUQMapNodeBase@@0ABVQString@@@Z$2 10010cd6 f   bncs_instance_lookup.obj
 0001:0000fce2       __ehhandler$?insert@?$QMapPrivate@VQString@@VinstanceInfo@@@@QAE?AV?$QMapIterator@VQString@@VinstanceInfo@@@@PAUQMapNodeBase@@0ABVQString@@@Z 10010ce2 f   bncs_instance_lookup.obj
 0001:0000fd00       __unwindfunclet$?insert@?$QMapPrivate@VQString@@VparamInfo@@@@QAE?AV?$QMapIterator@VQString@@VparamInfo@@@@PAUQMapNodeBase@@0ABVQString@@@Z$0 10010d00 f   bncs_instance_lookup.obj
 0001:0000fd0b       __unwindfunclet$?insert@?$QMapPrivate@VQString@@VparamInfo@@@@QAE?AV?$QMapIterator@VQString@@VparamInfo@@@@PAUQMapNodeBase@@0ABVQString@@@Z$1 10010d0b f   bncs_instance_lookup.obj
 0001:0000fd16       __unwindfunclet$?insert@?$QMapPrivate@VQString@@VparamInfo@@@@QAE?AV?$QMapIterator@VQString@@VparamInfo@@@@PAUQMapNodeBase@@0ABVQString@@@Z$2 10010d16 f   bncs_instance_lookup.obj
 0001:0000fd22       __ehhandler$?insert@?$QMapPrivate@VQString@@VparamInfo@@@@QAE?AV?$QMapIterator@VQString@@VparamInfo@@@@PAUQMapNodeBase@@0ABVQString@@@Z 10010d22 f   bncs_instance_lookup.obj
 0001:0000fd40       __unwindfunclet$?insert@?$QValueListPrivate@VcomplexParam@@@@QAE?AV?$QValueListIterator@VcomplexParam@@@@V2@ABVcomplexParam@@@Z$0 10010d40 f   bncs_instance_lookup.obj
 0001:0000fd4b       __unwindfunclet$?insert@?$QValueListPrivate@VcomplexParam@@@@QAE?AV?$QValueListIterator@VcomplexParam@@@@V2@ABVcomplexParam@@@Z$2 10010d4b f   bncs_instance_lookup.obj
 0001:0000fd57       __ehhandler$?insert@?$QValueListPrivate@VcomplexParam@@@@QAE?AV?$QValueListIterator@VcomplexParam@@@@V2@ABVcomplexParam@@@Z 10010d57 f   bncs_instance_lookup.obj
 0001:0000fd80       __unwindfunclet$?keys@?$QMap@VQString@@VdeviceTypeInfo@@@@QBE?AV?$QValueList@VQString@@@@XZ$0 10010d80 f   bncs_instance_lookup.obj
 0001:0000fd80       __unwindfunclet$?keys@?$QMap@VQString@@VcomplexType@@@@QBE?AV?$QValueList@VQString@@@@XZ$0 10010d80 f   bncs_instance_lookup.obj
 0001:0000fd80       __unwindfunclet$?keys@?$QMap@VQString@@VcomplexInstance@@@@QBE?AV?$QValueList@VQString@@@@XZ$0 10010d80 f   bncs_instance_lookup.obj
 0001:0000fd80       __unwindfunclet$?keys@?$QMap@VQString@@VinstanceInfo@@@@QBE?AV?$QValueList@VQString@@@@XZ$0 10010d80 f   bncs_instance_lookup.obj
 0001:0000fd80       __unwindfunclet$?keys@?$QMap@VQString@@VcomplexParam@@@@QBE?AV?$QValueList@VQString@@@@XZ$0 10010d80 f   bncs_instance_lookup.obj
 0001:0000fd80       __unwindfunclet$?keys@?$QMap@VQString@@VparamInfo@@@@QBE?AV?$QValueList@VQString@@@@XZ$0 10010d80 f   bncs_instance_lookup.obj
 0001:0000fd80       __unwindfunclet$?keys@?$QMap@VQString@@Vstyleentry@@@@QBE?AV?$QValueList@VQString@@@@XZ$0 10010d80 f   bncs_instance_lookup.obj
 0001:0000fd9a       __ehhandler$?keys@?$QMap@VQString@@VparamInfo@@@@QBE?AV?$QValueList@VQString@@@@XZ 10010d9a f   bncs_instance_lookup.obj
 0001:0000fd9a       __ehhandler$?keys@?$QMap@VQString@@Vstyleentry@@@@QBE?AV?$QValueList@VQString@@@@XZ 10010d9a f   bncs_instance_lookup.obj
 0001:0000fd9a       __ehhandler$?keys@?$QMap@VQString@@VcomplexInstance@@@@QBE?AV?$QValueList@VQString@@@@XZ 10010d9a f   bncs_instance_lookup.obj
 0001:0000fd9a       __ehhandler$?keys@?$QMap@VQString@@VdeviceTypeInfo@@@@QBE?AV?$QValueList@VQString@@@@XZ 10010d9a f   bncs_instance_lookup.obj
 0001:0000fd9a       __ehhandler$?keys@?$QMap@VQString@@VcomplexType@@@@QBE?AV?$QValueList@VQString@@@@XZ 10010d9a f   bncs_instance_lookup.obj
 0001:0000fd9a       __ehhandler$?keys@?$QMap@VQString@@VcomplexParam@@@@QBE?AV?$QValueList@VQString@@@@XZ 10010d9a f   bncs_instance_lookup.obj
 0001:0000fd9a       __ehhandler$?keys@?$QMap@VQString@@VinstanceInfo@@@@QBE?AV?$QValueList@VQString@@@@XZ 10010d9a f   bncs_instance_lookup.obj
 0001:0000fdc0       __unwindfunclet$?loadComplexType@bncs_instance_lookup@@SA_NABVQString@@AAVcomplexType@@@Z$0 10010dc0 f   bncs_instance_lookup.obj
 0001:0000fdc9       __unwindfunclet$?loadComplexType@bncs_instance_lookup@@SA_NABVQString@@AAVcomplexType@@@Z$1 10010dc9 f   bncs_instance_lookup.obj
 0001:0000fdd2       __unwindfunclet$?loadComplexType@bncs_instance_lookup@@SA_NABVQString@@AAVcomplexType@@@Z$2 10010dd2 f   bncs_instance_lookup.obj
 0001:0000fddb       __unwindfunclet$?loadComplexType@bncs_instance_lookup@@SA_NABVQString@@AAVcomplexType@@@Z$3 10010ddb f   bncs_instance_lookup.obj
 0001:0000fde4       __unwindfunclet$?loadComplexType@bncs_instance_lookup@@SA_NABVQString@@AAVcomplexType@@@Z$4 10010de4 f   bncs_instance_lookup.obj
 0001:0000fded       __unwindfunclet$?loadComplexType@bncs_instance_lookup@@SA_NABVQString@@AAVcomplexType@@@Z$5 10010ded f   bncs_instance_lookup.obj
 0001:0000fdf6       __unwindfunclet$?loadComplexType@bncs_instance_lookup@@SA_NABVQString@@AAVcomplexType@@@Z$6 10010df6 f   bncs_instance_lookup.obj
 0001:0000fe02       __unwindfunclet$?loadComplexType@bncs_instance_lookup@@SA_NABVQString@@AAVcomplexType@@@Z$7 10010e02 f   bncs_instance_lookup.obj
 0001:0000fe0b       __unwindfunclet$?loadComplexType@bncs_instance_lookup@@SA_NABVQString@@AAVcomplexType@@@Z$8 10010e0b f   bncs_instance_lookup.obj
 0001:0000fe14       __unwindfunclet$?loadComplexType@bncs_instance_lookup@@SA_NABVQString@@AAVcomplexType@@@Z$9 10010e14 f   bncs_instance_lookup.obj
 0001:0000fe1d       __unwindfunclet$?loadComplexType@bncs_instance_lookup@@SA_NABVQString@@AAVcomplexType@@@Z$10 10010e1d f   bncs_instance_lookup.obj
 0001:0000fe26       __unwindfunclet$?loadComplexType@bncs_instance_lookup@@SA_NABVQString@@AAVcomplexType@@@Z$11 10010e26 f   bncs_instance_lookup.obj
 0001:0000fe2f       __unwindfunclet$?loadComplexType@bncs_instance_lookup@@SA_NABVQString@@AAVcomplexType@@@Z$12 10010e2f f   bncs_instance_lookup.obj
 0001:0000fe38       __unwindfunclet$?loadComplexType@bncs_instance_lookup@@SA_NABVQString@@AAVcomplexType@@@Z$13 10010e38 f   bncs_instance_lookup.obj
 0001:0000fe41       __unwindfunclet$?loadComplexType@bncs_instance_lookup@@SA_NABVQString@@AAVcomplexType@@@Z$14 10010e41 f   bncs_instance_lookup.obj
 0001:0000fe4a       __unwindfunclet$?loadComplexType@bncs_instance_lookup@@SA_NABVQString@@AAVcomplexType@@@Z$15 10010e4a f   bncs_instance_lookup.obj
 0001:0000fe52       __unwindfunclet$?loadComplexType@bncs_instance_lookup@@SA_NABVQString@@AAVcomplexType@@@Z$16 10010e52 f   bncs_instance_lookup.obj
 0001:0000fe5b       __unwindfunclet$?loadComplexType@bncs_instance_lookup@@SA_NABVQString@@AAVcomplexType@@@Z$17 10010e5b f   bncs_instance_lookup.obj
 0001:0000fe64       __unwindfunclet$?loadComplexType@bncs_instance_lookup@@SA_NABVQString@@AAVcomplexType@@@Z$18 10010e64 f   bncs_instance_lookup.obj
 0001:0000fe6d       __unwindfunclet$?loadComplexType@bncs_instance_lookup@@SA_NABVQString@@AAVcomplexType@@@Z$19 10010e6d f   bncs_instance_lookup.obj
 0001:0000fe76       __unwindfunclet$?loadComplexType@bncs_instance_lookup@@SA_NABVQString@@AAVcomplexType@@@Z$20 10010e76 f   bncs_instance_lookup.obj
 0001:0000fe7e       __unwindfunclet$?loadComplexType@bncs_instance_lookup@@SA_NABVQString@@AAVcomplexType@@@Z$21 10010e7e f   bncs_instance_lookup.obj
 0001:0000fe87       __unwindfunclet$?loadComplexType@bncs_instance_lookup@@SA_NABVQString@@AAVcomplexType@@@Z$22 10010e87 f   bncs_instance_lookup.obj
 0001:0000fe93       __unwindfunclet$?loadComplexType@bncs_instance_lookup@@SA_NABVQString@@AAVcomplexType@@@Z$23 10010e93 f   bncs_instance_lookup.obj
 0001:0000fe9c       __unwindfunclet$?loadComplexType@bncs_instance_lookup@@SA_NABVQString@@AAVcomplexType@@@Z$24 10010e9c f   bncs_instance_lookup.obj
 0001:0000fea5       __unwindfunclet$?loadComplexType@bncs_instance_lookup@@SA_NABVQString@@AAVcomplexType@@@Z$25 10010ea5 f   bncs_instance_lookup.obj
 0001:0000feae       __unwindfunclet$?loadComplexType@bncs_instance_lookup@@SA_NABVQString@@AAVcomplexType@@@Z$26 10010eae f   bncs_instance_lookup.obj
 0001:0000feb7       __unwindfunclet$?loadComplexType@bncs_instance_lookup@@SA_NABVQString@@AAVcomplexType@@@Z$27 10010eb7 f   bncs_instance_lookup.obj
 0001:0000fec3       __unwindfunclet$?loadComplexType@bncs_instance_lookup@@SA_NABVQString@@AAVcomplexType@@@Z$28 10010ec3 f   bncs_instance_lookup.obj
 0001:0000fecf       __ehhandler$?loadComplexType@bncs_instance_lookup@@SA_NABVQString@@AAVcomplexType@@@Z 10010ecf f   bncs_instance_lookup.obj
 0001:0000fef0       __unwindfunclet$?loadComplexTypes@bncs_instance_lookup@@SA_NXZ$0 10010ef0 f   bncs_instance_lookup.obj
 0001:0000fef9       __unwindfunclet$?loadComplexTypes@bncs_instance_lookup@@SA_NXZ$1 10010ef9 f   bncs_instance_lookup.obj
 0001:0000ff02       __unwindfunclet$?loadComplexTypes@bncs_instance_lookup@@SA_NXZ$2 10010f02 f   bncs_instance_lookup.obj
 0001:0000ff0b       __unwindfunclet$?loadComplexTypes@bncs_instance_lookup@@SA_NXZ$3 10010f0b f   bncs_instance_lookup.obj
 0001:0000ff14       __unwindfunclet$?loadComplexTypes@bncs_instance_lookup@@SA_NXZ$4 10010f14 f   bncs_instance_lookup.obj
 0001:0000ff1d       __unwindfunclet$?loadComplexTypes@bncs_instance_lookup@@SA_NXZ$5 10010f1d f   bncs_instance_lookup.obj
 0001:0000ff26       __unwindfunclet$?loadComplexTypes@bncs_instance_lookup@@SA_NXZ$6 10010f26 f   bncs_instance_lookup.obj
 0001:0000ff2e       __unwindfunclet$?loadComplexTypes@bncs_instance_lookup@@SA_NXZ$7 10010f2e f   bncs_instance_lookup.obj
 0001:0000ff37       __unwindfunclet$?loadComplexTypes@bncs_instance_lookup@@SA_NXZ$8 10010f37 f   bncs_instance_lookup.obj
 0001:0000ff40       __ehhandler$?loadComplexTypes@bncs_instance_lookup@@SA_NXZ 10010f40 f   bncs_instance_lookup.obj
 0001:0000ff60       __unwindfunclet$?loadDeviceParams@bncs_instance_lookup@@SA_NABVQString@@AAVdeviceTypeInfo@@@Z$0 10010f60 f   bncs_instance_lookup.obj
 0001:0000ff69       __unwindfunclet$?loadDeviceParams@bncs_instance_lookup@@SA_NABVQString@@AAVdeviceTypeInfo@@@Z$1 10010f69 f   bncs_instance_lookup.obj
 0001:0000ff72       __unwindfunclet$?loadDeviceParams@bncs_instance_lookup@@SA_NABVQString@@AAVdeviceTypeInfo@@@Z$2 10010f72 f   bncs_instance_lookup.obj
 0001:0000ff7b       __unwindfunclet$?loadDeviceParams@bncs_instance_lookup@@SA_NABVQString@@AAVdeviceTypeInfo@@@Z$3 10010f7b f   bncs_instance_lookup.obj
 0001:0000ff84       __unwindfunclet$?loadDeviceParams@bncs_instance_lookup@@SA_NABVQString@@AAVdeviceTypeInfo@@@Z$4 10010f84 f   bncs_instance_lookup.obj
 0001:0000ff8d       __unwindfunclet$?loadDeviceParams@bncs_instance_lookup@@SA_NABVQString@@AAVdeviceTypeInfo@@@Z$5 10010f8d f   bncs_instance_lookup.obj
 0001:0000ff96       __unwindfunclet$?loadDeviceParams@bncs_instance_lookup@@SA_NABVQString@@AAVdeviceTypeInfo@@@Z$6 10010f96 f   bncs_instance_lookup.obj
 0001:0000ffa2       __unwindfunclet$?loadDeviceParams@bncs_instance_lookup@@SA_NABVQString@@AAVdeviceTypeInfo@@@Z$7 10010fa2 f   bncs_instance_lookup.obj
 0001:0000ffab       __unwindfunclet$?loadDeviceParams@bncs_instance_lookup@@SA_NABVQString@@AAVdeviceTypeInfo@@@Z$8 10010fab f   bncs_instance_lookup.obj
 0001:0000ffb4       __unwindfunclet$?loadDeviceParams@bncs_instance_lookup@@SA_NABVQString@@AAVdeviceTypeInfo@@@Z$9 10010fb4 f   bncs_instance_lookup.obj
 0001:0000ffbd       __unwindfunclet$?loadDeviceParams@bncs_instance_lookup@@SA_NABVQString@@AAVdeviceTypeInfo@@@Z$10 10010fbd f   bncs_instance_lookup.obj
 0001:0000ffc6       __unwindfunclet$?loadDeviceParams@bncs_instance_lookup@@SA_NABVQString@@AAVdeviceTypeInfo@@@Z$11 10010fc6 f   bncs_instance_lookup.obj
 0001:0000ffcf       __unwindfunclet$?loadDeviceParams@bncs_instance_lookup@@SA_NABVQString@@AAVdeviceTypeInfo@@@Z$12 10010fcf f   bncs_instance_lookup.obj
 0001:0000ffd8       __unwindfunclet$?loadDeviceParams@bncs_instance_lookup@@SA_NABVQString@@AAVdeviceTypeInfo@@@Z$13 10010fd8 f   bncs_instance_lookup.obj
 0001:0000ffe1       __unwindfunclet$?loadDeviceParams@bncs_instance_lookup@@SA_NABVQString@@AAVdeviceTypeInfo@@@Z$14 10010fe1 f   bncs_instance_lookup.obj
 0001:0000ffea       __unwindfunclet$?loadDeviceParams@bncs_instance_lookup@@SA_NABVQString@@AAVdeviceTypeInfo@@@Z$15 10010fea f   bncs_instance_lookup.obj
 0001:0000fff3       __unwindfunclet$?loadDeviceParams@bncs_instance_lookup@@SA_NABVQString@@AAVdeviceTypeInfo@@@Z$16 10010ff3 f   bncs_instance_lookup.obj
 0001:0000fffc       __unwindfunclet$?loadDeviceParams@bncs_instance_lookup@@SA_NABVQString@@AAVdeviceTypeInfo@@@Z$17 10010ffc f   bncs_instance_lookup.obj
 0001:00010005       __unwindfunclet$?loadDeviceParams@bncs_instance_lookup@@SA_NABVQString@@AAVdeviceTypeInfo@@@Z$18 10011005 f   bncs_instance_lookup.obj
 0001:0001000e       __unwindfunclet$?loadDeviceParams@bncs_instance_lookup@@SA_NABVQString@@AAVdeviceTypeInfo@@@Z$19 1001100e f   bncs_instance_lookup.obj
 0001:00010017       __unwindfunclet$?loadDeviceParams@bncs_instance_lookup@@SA_NABVQString@@AAVdeviceTypeInfo@@@Z$20 10011017 f   bncs_instance_lookup.obj
 0001:0001001f       __unwindfunclet$?loadDeviceParams@bncs_instance_lookup@@SA_NABVQString@@AAVdeviceTypeInfo@@@Z$21 1001101f f   bncs_instance_lookup.obj
 0001:00010028       __unwindfunclet$?loadDeviceParams@bncs_instance_lookup@@SA_NABVQString@@AAVdeviceTypeInfo@@@Z$22 10011028 f   bncs_instance_lookup.obj
 0001:00010031       __unwindfunclet$?loadDeviceParams@bncs_instance_lookup@@SA_NABVQString@@AAVdeviceTypeInfo@@@Z$23 10011031 f   bncs_instance_lookup.obj
 0001:0001003a       __unwindfunclet$?loadDeviceParams@bncs_instance_lookup@@SA_NABVQString@@AAVdeviceTypeInfo@@@Z$24 1001103a f   bncs_instance_lookup.obj
 0001:00010043       __unwindfunclet$?loadDeviceParams@bncs_instance_lookup@@SA_NABVQString@@AAVdeviceTypeInfo@@@Z$25 10011043 f   bncs_instance_lookup.obj
 0001:0001004c       __ehhandler$?loadDeviceParams@bncs_instance_lookup@@SA_NABVQString@@AAVdeviceTypeInfo@@@Z 1001104c f   bncs_instance_lookup.obj
 0001:00010070       __unwindfunclet$?loadDeviceTypes@bncs_instance_lookup@@SA_NXZ$0 10011070 f   bncs_instance_lookup.obj
 0001:00010079       __unwindfunclet$?loadDeviceTypes@bncs_instance_lookup@@SA_NXZ$1 10011079 f   bncs_instance_lookup.obj
 0001:00010082       __unwindfunclet$?loadDeviceTypes@bncs_instance_lookup@@SA_NXZ$2 10011082 f   bncs_instance_lookup.obj
 0001:0001008b       __unwindfunclet$?loadDeviceTypes@bncs_instance_lookup@@SA_NXZ$3 1001108b f   bncs_instance_lookup.obj
 0001:00010094       __unwindfunclet$?loadDeviceTypes@bncs_instance_lookup@@SA_NXZ$4 10011094 f   bncs_instance_lookup.obj
 0001:0001009d       __unwindfunclet$?loadDeviceTypes@bncs_instance_lookup@@SA_NXZ$5 1001109d f   bncs_instance_lookup.obj
 0001:000100a6       __unwindfunclet$?loadDeviceTypes@bncs_instance_lookup@@SA_NXZ$6 100110a6 f   bncs_instance_lookup.obj
 0001:000100ae       __unwindfunclet$?loadDeviceTypes@bncs_instance_lookup@@SA_NXZ$7 100110ae f   bncs_instance_lookup.obj
 0001:000100b7       __unwindfunclet$?loadDeviceTypes@bncs_instance_lookup@@SA_NXZ$8 100110b7 f   bncs_instance_lookup.obj
 0001:000100c0       __unwindfunclet$?loadDeviceTypes@bncs_instance_lookup@@SA_NXZ$9 100110c0 f   bncs_instance_lookup.obj
 0001:000100c9       __ehhandler$?loadDeviceTypes@bncs_instance_lookup@@SA_NXZ 100110c9 f   bncs_instance_lookup.obj
 0001:000100f0       __unwindfunclet$?loadInstances@bncs_instance_lookup@@SA_NXZ$0 100110f0 f   bncs_instance_lookup.obj
 0001:000100f9       __unwindfunclet$?loadInstances@bncs_instance_lookup@@SA_NXZ$1 100110f9 f   bncs_instance_lookup.obj
 0001:00010102       __unwindfunclet$?loadInstances@bncs_instance_lookup@@SA_NXZ$2 10011102 f   bncs_instance_lookup.obj
 0001:0001010b       __unwindfunclet$?loadInstances@bncs_instance_lookup@@SA_NXZ$3 1001110b f   bncs_instance_lookup.obj
 0001:00010114       __unwindfunclet$?loadInstances@bncs_instance_lookup@@SA_NXZ$4 10011114 f   bncs_instance_lookup.obj
 0001:0001011d       __unwindfunclet$?loadInstances@bncs_instance_lookup@@SA_NXZ$5 1001111d f   bncs_instance_lookup.obj
 0001:00010129       __unwindfunclet$?loadInstances@bncs_instance_lookup@@SA_NXZ$6 10011129 f   bncs_instance_lookup.obj
 0001:00010135       __unwindfunclet$?loadInstances@bncs_instance_lookup@@SA_NXZ$7 10011135 f   bncs_instance_lookup.obj
 0001:0001013e       __unwindfunclet$?loadInstances@bncs_instance_lookup@@SA_NXZ$8 1001113e f   bncs_instance_lookup.obj
 0001:0001014a       __unwindfunclet$?loadInstances@bncs_instance_lookup@@SA_NXZ$9 1001114a f   bncs_instance_lookup.obj
 0001:00010153       __unwindfunclet$?loadInstances@bncs_instance_lookup@@SA_NXZ$10 10011153 f   bncs_instance_lookup.obj
 0001:0001015c       __unwindfunclet$?loadInstances@bncs_instance_lookup@@SA_NXZ$11 1001115c f   bncs_instance_lookup.obj
 0001:00010165       __unwindfunclet$?loadInstances@bncs_instance_lookup@@SA_NXZ$12 10011165 f   bncs_instance_lookup.obj
 0001:00010171       __unwindfunclet$?loadInstances@bncs_instance_lookup@@SA_NXZ$13 10011171 f   bncs_instance_lookup.obj
 0001:0001017d       __unwindfunclet$?loadInstances@bncs_instance_lookup@@SA_NXZ$14 1001117d f   bncs_instance_lookup.obj
 0001:00010188       __unwindfunclet$?loadInstances@bncs_instance_lookup@@SA_NXZ$15 10011188 f   bncs_instance_lookup.obj
 0001:00010191       __unwindfunclet$?loadInstances@bncs_instance_lookup@@SA_NXZ$16 10011191 f   bncs_instance_lookup.obj
 0001:0001019d       __unwindfunclet$?loadInstances@bncs_instance_lookup@@SA_NXZ$17 1001119d f   bncs_instance_lookup.obj
 0001:000101a6       __unwindfunclet$?loadInstances@bncs_instance_lookup@@SA_NXZ$18 100111a6 f   bncs_instance_lookup.obj
 0001:000101b2       __unwindfunclet$?loadInstances@bncs_instance_lookup@@SA_NXZ$19 100111b2 f   bncs_instance_lookup.obj
 0001:000101bb       __unwindfunclet$?loadInstances@bncs_instance_lookup@@SA_NXZ$20 100111bb f   bncs_instance_lookup.obj
 0001:000101c7       __unwindfunclet$?loadInstances@bncs_instance_lookup@@SA_NXZ$21 100111c7 f   bncs_instance_lookup.obj
 0001:000101d0       __unwindfunclet$?loadInstances@bncs_instance_lookup@@SA_NXZ$22 100111d0 f   bncs_instance_lookup.obj
 0001:000101d9       __unwindfunclet$?loadInstances@bncs_instance_lookup@@SA_NXZ$23 100111d9 f   bncs_instance_lookup.obj
 0001:000101e2       __unwindfunclet$?loadInstances@bncs_instance_lookup@@SA_NXZ$24 100111e2 f   bncs_instance_lookup.obj
 0001:000101ee       __unwindfunclet$?loadInstances@bncs_instance_lookup@@SA_NXZ$25 100111ee f   bncs_instance_lookup.obj
 0001:000101f7       __unwindfunclet$?loadInstances@bncs_instance_lookup@@SA_NXZ$26 100111f7 f   bncs_instance_lookup.obj
 0001:00010200       __unwindfunclet$?loadInstances@bncs_instance_lookup@@SA_NXZ$27 10011200 f   bncs_instance_lookup.obj
 0001:0001020c       __unwindfunclet$?loadInstances@bncs_instance_lookup@@SA_NXZ$28 1001120c f   bncs_instance_lookup.obj
 0001:00010215       __unwindfunclet$?loadInstances@bncs_instance_lookup@@SA_NXZ$29 10011215 f   bncs_instance_lookup.obj
 0001:0001021e       __unwindfunclet$?loadInstances@bncs_instance_lookup@@SA_NXZ$30 1001121e f   bncs_instance_lookup.obj
 0001:0001022a       __unwindfunclet$?loadInstances@bncs_instance_lookup@@SA_NXZ$31 1001122a f   bncs_instance_lookup.obj
 0001:00010236       __unwindfunclet$?loadInstances@bncs_instance_lookup@@SA_NXZ$32 10011236 f   bncs_instance_lookup.obj
 0001:00010242       __unwindfunclet$?loadInstances@bncs_instance_lookup@@SA_NXZ$33 10011242 f   bncs_instance_lookup.obj
 0001:0001024b       __unwindfunclet$?loadInstances@bncs_instance_lookup@@SA_NXZ$34 1001124b f   bncs_instance_lookup.obj
 0001:00010254       __unwindfunclet$?loadInstances@bncs_instance_lookup@@SA_NXZ$35 10011254 f   bncs_instance_lookup.obj
 0001:0001025d       __unwindfunclet$?loadInstances@bncs_instance_lookup@@SA_NXZ$36 1001125d f   bncs_instance_lookup.obj
 0001:00010266       __unwindfunclet$?loadInstances@bncs_instance_lookup@@SA_NXZ$37 10011266 f   bncs_instance_lookup.obj
 0001:0001026f       __unwindfunclet$?loadInstances@bncs_instance_lookup@@SA_NXZ$38 1001126f f   bncs_instance_lookup.obj
 0001:0001027b       __unwindfunclet$?loadInstances@bncs_instance_lookup@@SA_NXZ$39 1001127b f   bncs_instance_lookup.obj
 0001:00010284       __unwindfunclet$?loadInstances@bncs_instance_lookup@@SA_NXZ$40 10011284 f   bncs_instance_lookup.obj
 0001:00010290       __unwindfunclet$?loadInstances@bncs_instance_lookup@@SA_NXZ$41 10011290 f   bncs_instance_lookup.obj
 0001:0001029c       __unwindfunclet$?loadInstances@bncs_instance_lookup@@SA_NXZ$42 1001129c f   bncs_instance_lookup.obj
 0001:000102a8       __unwindfunclet$?loadInstances@bncs_instance_lookup@@SA_NXZ$43 100112a8 f   bncs_instance_lookup.obj
 0001:000102b1       __unwindfunclet$?loadInstances@bncs_instance_lookup@@SA_NXZ$44 100112b1 f   bncs_instance_lookup.obj
 0001:000102ba       __unwindfunclet$?loadInstances@bncs_instance_lookup@@SA_NXZ$45 100112ba f   bncs_instance_lookup.obj
 0001:000102c6       __unwindfunclet$?loadInstances@bncs_instance_lookup@@SA_NXZ$46 100112c6 f   bncs_instance_lookup.obj
 0001:000102d2       __unwindfunclet$?loadInstances@bncs_instance_lookup@@SA_NXZ$47 100112d2 f   bncs_instance_lookup.obj
 0001:000102de       __unwindfunclet$?loadInstances@bncs_instance_lookup@@SA_NXZ$48 100112de f   bncs_instance_lookup.obj
 0001:000102e7       __unwindfunclet$?loadInstances@bncs_instance_lookup@@SA_NXZ$49 100112e7 f   bncs_instance_lookup.obj
 0001:000102f3       __unwindfunclet$?loadInstances@bncs_instance_lookup@@SA_NXZ$50 100112f3 f   bncs_instance_lookup.obj
 0001:000102fc       __unwindfunclet$?loadInstances@bncs_instance_lookup@@SA_NXZ$51 100112fc f   bncs_instance_lookup.obj
 0001:00010305       __ehhandler$?loadInstances@bncs_instance_lookup@@SA_NXZ 10011305 f   bncs_instance_lookup.obj
 0001:00010330       __unwindfunclet$?lookup@bncs_instance_lookup@@SA_NABVQString@@0AAV2@PAH22PAD@Z$3 10011330 f   bncs_instance_lookup.obj
 0001:0001033b       __unwindfunclet$?lookup@bncs_instance_lookup@@SA_NABVQString@@0AAV2@PAH22PAD@Z$0 1001133b f   bncs_instance_lookup.obj
 0001:00010344       __unwindfunclet$?lookup@bncs_instance_lookup@@SA_NABVQString@@0AAV2@PAH22PAD@Z$1 10011344 f   bncs_instance_lookup.obj
 0001:0001034d       __unwindfunclet$?lookup@bncs_instance_lookup@@SA_NABVQString@@0AAV2@PAH22PAD@Z$2 1001134d f   bncs_instance_lookup.obj
 0001:00010356       __ehhandler$?lookup@bncs_instance_lookup@@SA_NABVQString@@0AAV2@PAH22PAD@Z 10011356 f   bncs_instance_lookup.obj
 0001:00010380       __unwindfunclet$?lookup@bncs_instance_lookup@@SA_NABVQString@@AAV2@111AA_N@Z$4 10011380 f   bncs_instance_lookup.obj
 0001:0001038b       __unwindfunclet$?lookup@bncs_instance_lookup@@SA_NABVQString@@AAV2@111AA_N@Z$5 1001138b f   bncs_instance_lookup.obj
 0001:00010396       __unwindfunclet$?lookup@bncs_instance_lookup@@SA_NABVQString@@AAV2@111AA_N@Z$0 10011396 f   bncs_instance_lookup.obj
 0001:0001039f       __unwindfunclet$?lookup@bncs_instance_lookup@@SA_NABVQString@@AAV2@111AA_N@Z$1 1001139f f   bncs_instance_lookup.obj
 0001:000103a8       __unwindfunclet$?lookup@bncs_instance_lookup@@SA_NABVQString@@AAV2@111AA_N@Z$2 100113a8 f   bncs_instance_lookup.obj
 0001:000103b1       __unwindfunclet$?lookup@bncs_instance_lookup@@SA_NABVQString@@AAV2@111AA_N@Z$3 100113b1 f   bncs_instance_lookup.obj
 0001:000103ba       __ehhandler$?lookup@bncs_instance_lookup@@SA_NABVQString@@AAV2@111AA_N@Z 100113ba f   bncs_instance_lookup.obj
 0001:000103e0       __unwindfunclet$?lookup@bncs_instance_lookup@@SA_NABVQString@@AAV2@PAH2PAD@Z$2 100113e0 f   bncs_instance_lookup.obj
 0001:000103eb       __unwindfunclet$?lookup@bncs_instance_lookup@@SA_NABVQString@@AAV2@PAH2PAD@Z$0 100113eb f   bncs_instance_lookup.obj
 0001:000103f4       __unwindfunclet$?lookup@bncs_instance_lookup@@SA_NABVQString@@AAV2@PAH2PAD@Z$1 100113f4 f   bncs_instance_lookup.obj
 0001:000103fd       __ehhandler$?lookup@bncs_instance_lookup@@SA_NABVQString@@AAV2@PAH2PAD@Z 100113fd f   bncs_instance_lookup.obj
 0001:00010420       __unwindfunclet$?lookupComplex@bncs_instance_lookup@@SA_NABVQString@@00AAV2@PAH22PAD@Z$0 10011420 f   bncs_instance_lookup.obj
 0001:0001042b       __unwindfunclet$?lookupComplex@bncs_instance_lookup@@SA_NABVQString@@00AAV2@PAH22PAD@Z$1 1001142b f   bncs_instance_lookup.obj
 0001:00010436       __unwindfunclet$?lookupComplex@bncs_instance_lookup@@SA_NABVQString@@00AAV2@PAH22PAD@Z$2 10011436 f   bncs_instance_lookup.obj
 0001:00010441       __unwindfunclet$?lookupComplex@bncs_instance_lookup@@SA_NABVQString@@00AAV2@PAH22PAD@Z$3 10011441 f   bncs_instance_lookup.obj
 0001:0001044c       __unwindfunclet$?lookupComplex@bncs_instance_lookup@@SA_NABVQString@@00AAV2@PAH22PAD@Z$4 1001144c f   bncs_instance_lookup.obj
 0001:00010457       __ehhandler$?lookupComplex@bncs_instance_lookup@@SA_NABVQString@@00AAV2@PAH22PAD@Z 10011457 f   bncs_instance_lookup.obj
 0001:00010480       __unwindfunclet$?lookupComposite@bncs_instance_lookup@@SA_NABVQString@@0AAV2@@Z$0 10011480 f   bncs_instance_lookup.obj
 0001:0001048b       __unwindfunclet$?lookupComposite@bncs_instance_lookup@@SA_NABVQString@@0AAV2@@Z$1 1001148b f   bncs_instance_lookup.obj
 0001:00010496       __ehhandler$?lookupComposite@bncs_instance_lookup@@SA_NABVQString@@0AAV2@@Z 10011496 f   bncs_instance_lookup.obj
 0001:000104c0       __unwindfunclet$?lookupInstanceOfType@bncs_instance_lookup@@SA_NABVQString@@AAVQStringList@@@Z$0 100114c0 f   bncs_instance_lookup.obj
 0001:000104cb       __unwindfunclet$?lookupInstanceOfType@bncs_instance_lookup@@SA_NABVQString@@AAVQStringList@@@Z$1 100114cb f   bncs_instance_lookup.obj
 0001:000104d6       __ehhandler$?lookupInstanceOfType@bncs_instance_lookup@@SA_NABVQString@@AAVQStringList@@@Z 100114d6 f   bncs_instance_lookup.obj
 0001:00010500       __unwindfunclet$?lookupType@bncs_instance_lookup@@SA_NABVQString@@AAV2@@Z$0 10011500 f   bncs_instance_lookup.obj
 0001:00010500       __unwindfunclet$?lookupComposite@bncs_instance_lookup@@SA_NABVQString@@AA_NAAV?$QMap@VQString@@V1@@@@Z$0 10011500 f   bncs_instance_lookup.obj
 0001:0001050b       __unwindfunclet$?lookupType@bncs_instance_lookup@@SA_NABVQString@@AAV2@@Z$1 1001150b f   bncs_instance_lookup.obj
 0001:0001050b       __unwindfunclet$?lookupComposite@bncs_instance_lookup@@SA_NABVQString@@AA_NAAV?$QMap@VQString@@V1@@@@Z$1 1001150b f   bncs_instance_lookup.obj
 0001:00010516       __ehhandler$?lookupType@bncs_instance_lookup@@SA_NABVQString@@AAV2@@Z 10011516 f   bncs_instance_lookup.obj
 0001:00010516       __ehhandler$?lookupComposite@bncs_instance_lookup@@SA_NABVQString@@AA_NAAV?$QMap@VQString@@V1@@@@Z 10011516 f   bncs_instance_lookup.obj
 0001:00010540       __unwindfunclet$?path@global@@SA?AVQString@@XZ$0 10011540 f   bncs_instance_lookup.obj
 0001:00010549       __unwindfunclet$?path@global@@SA?AVQString@@XZ$1 10011549 f   bncs_instance_lookup.obj
 0001:00010552       __unwindfunclet$?path@global@@SA?AVQString@@XZ$2 10011552 f   bncs_instance_lookup.obj
 0001:0001056c       __ehhandler$?path@global@@SA?AVQString@@XZ 1001156c f   bncs_instance_lookup.obj
 0001:00010590       __unwindfunclet$?erase@?$QMap@VQString@@VcomplexInstance@@@@QAEXABVQString@@@Z$0 10011590 f   bncs_instance_lookup.obj
 0001:00010590       __unwindfunclet$?remove@?$QMap@VQString@@VcomplexInstance@@@@QAEXABVQString@@@Z$0 10011590 f   bncs_instance_lookup.obj
 0001:0001059b       __unwindfunclet$?remove@?$QMap@VQString@@VcomplexInstance@@@@QAEXABVQString@@@Z$1 1001159b f   bncs_instance_lookup.obj
 0001:0001059b       __unwindfunclet$?erase@?$QMap@VQString@@VcomplexInstance@@@@QAEXABVQString@@@Z$1 1001159b f   bncs_instance_lookup.obj
 0001:000105a6       __unwindfunclet$?erase@?$QMap@VQString@@VcomplexInstance@@@@QAEXABVQString@@@Z$2 100115a6 f   bncs_instance_lookup.obj
 0001:000105a6       __unwindfunclet$?remove@?$QMap@VQString@@VcomplexInstance@@@@QAEXABVQString@@@Z$2 100115a6 f   bncs_instance_lookup.obj
 0001:000105b1       __ehhandler$?remove@?$QMap@VQString@@VcomplexInstance@@@@QAEXABVQString@@@Z 100115b1 f   bncs_instance_lookup.obj
 0001:000105b1       __ehhandler$?erase@?$QMap@VQString@@VcomplexInstance@@@@QAEXABVQString@@@Z 100115b1 f   bncs_instance_lookup.obj
 0001:000105d0       __unwindfunclet$?remove@?$QMap@VQString@@VcomplexParam@@@@QAEXABVQString@@@Z$0 100115d0 f   bncs_instance_lookup.obj
 0001:000105d0       __unwindfunclet$?erase@?$QMap@VQString@@VcomplexParam@@@@QAEXABVQString@@@Z$0 100115d0 f   bncs_instance_lookup.obj
 0001:000105db       __unwindfunclet$?remove@?$QMap@VQString@@VcomplexParam@@@@QAEXABVQString@@@Z$1 100115db f   bncs_instance_lookup.obj
 0001:000105db       __unwindfunclet$?erase@?$QMap@VQString@@VcomplexParam@@@@QAEXABVQString@@@Z$1 100115db f   bncs_instance_lookup.obj
 0001:000105e6       __unwindfunclet$?erase@?$QMap@VQString@@VcomplexParam@@@@QAEXABVQString@@@Z$2 100115e6 f   bncs_instance_lookup.obj
 0001:000105e6       __unwindfunclet$?remove@?$QMap@VQString@@VcomplexParam@@@@QAEXABVQString@@@Z$2 100115e6 f   bncs_instance_lookup.obj
 0001:000105f1       __ehhandler$?erase@?$QMap@VQString@@VcomplexParam@@@@QAEXABVQString@@@Z 100115f1 f   bncs_instance_lookup.obj
 0001:000105f1       __ehhandler$?remove@?$QMap@VQString@@VcomplexParam@@@@QAEXABVQString@@@Z 100115f1 f   bncs_instance_lookup.obj
 0001:00010610       __unwindfunclet$?remove@?$QMap@VQString@@VcomplexParam@@@@QAEXV?$QMapIterator@VQString@@VcomplexParam@@@@@Z$0 10011610 f   bncs_instance_lookup.obj
 0001:00010610       __unwindfunclet$?erase@?$QMap@VQString@@VcomplexParam@@@@QAEXV?$QMapIterator@VQString@@VcomplexParam@@@@@Z$0 10011610 f   bncs_instance_lookup.obj
 0001:0001061b       __unwindfunclet$?erase@?$QMap@VQString@@VcomplexParam@@@@QAEXV?$QMapIterator@VQString@@VcomplexParam@@@@@Z$1 1001161b f   bncs_instance_lookup.obj
 0001:0001061b       __unwindfunclet$?remove@?$QMap@VQString@@VcomplexParam@@@@QAEXV?$QMapIterator@VQString@@VcomplexParam@@@@@Z$1 1001161b f   bncs_instance_lookup.obj
 0001:00010626       __ehhandler$?remove@?$QMap@VQString@@VcomplexParam@@@@QAEXV?$QMapIterator@VQString@@VcomplexParam@@@@@Z 10011626 f   bncs_instance_lookup.obj
 0001:00010626       __ehhandler$?erase@?$QMap@VQString@@VcomplexParam@@@@QAEXV?$QMapIterator@VQString@@VcomplexParam@@@@@Z 10011626 f   bncs_instance_lookup.obj
 0001:00010650       __unwindfunclet$?erase@?$QMap@VQString@@VdeviceTypeInfo@@@@QAEXABVQString@@@Z$0 10011650 f   bncs_instance_lookup.obj
 0001:00010650       __unwindfunclet$?remove@?$QMap@VQString@@VdeviceTypeInfo@@@@QAEXABVQString@@@Z$0 10011650 f   bncs_instance_lookup.obj
 0001:0001065b       __unwindfunclet$?erase@?$QMap@VQString@@VdeviceTypeInfo@@@@QAEXABVQString@@@Z$1 1001165b f   bncs_instance_lookup.obj
 0001:0001065b       __unwindfunclet$?remove@?$QMap@VQString@@VdeviceTypeInfo@@@@QAEXABVQString@@@Z$1 1001165b f   bncs_instance_lookup.obj
 0001:00010666       __unwindfunclet$?remove@?$QMap@VQString@@VdeviceTypeInfo@@@@QAEXABVQString@@@Z$2 10011666 f   bncs_instance_lookup.obj
 0001:00010666       __unwindfunclet$?erase@?$QMap@VQString@@VdeviceTypeInfo@@@@QAEXABVQString@@@Z$2 10011666 f   bncs_instance_lookup.obj
 0001:00010671       __ehhandler$?remove@?$QMap@VQString@@VdeviceTypeInfo@@@@QAEXABVQString@@@Z 10011671 f   bncs_instance_lookup.obj
 0001:00010671       __ehhandler$?erase@?$QMap@VQString@@VdeviceTypeInfo@@@@QAEXABVQString@@@Z 10011671 f   bncs_instance_lookup.obj
 0001:00010690       __unwindfunclet$?erase@?$QMap@VQString@@VdeviceTypeInfo@@@@QAEXV?$QMapIterator@VQString@@VdeviceTypeInfo@@@@@Z$0 10011690 f   bncs_instance_lookup.obj
 0001:00010690       __unwindfunclet$?remove@?$QMap@VQString@@VdeviceTypeInfo@@@@QAEXV?$QMapIterator@VQString@@VdeviceTypeInfo@@@@@Z$0 10011690 f   bncs_instance_lookup.obj
 0001:0001069b       __unwindfunclet$?remove@?$QMap@VQString@@VdeviceTypeInfo@@@@QAEXV?$QMapIterator@VQString@@VdeviceTypeInfo@@@@@Z$1 1001169b f   bncs_instance_lookup.obj
 0001:0001069b       __unwindfunclet$?erase@?$QMap@VQString@@VdeviceTypeInfo@@@@QAEXV?$QMapIterator@VQString@@VdeviceTypeInfo@@@@@Z$1 1001169b f   bncs_instance_lookup.obj
 0001:000106a6       __ehhandler$?remove@?$QMap@VQString@@VdeviceTypeInfo@@@@QAEXV?$QMapIterator@VQString@@VdeviceTypeInfo@@@@@Z 100116a6 f   bncs_instance_lookup.obj
 0001:000106a6       __ehhandler$?erase@?$QMap@VQString@@VdeviceTypeInfo@@@@QAEXV?$QMapIterator@VQString@@VdeviceTypeInfo@@@@@Z 100116a6 f   bncs_instance_lookup.obj
 0001:000106d0       __unwindfunclet$?erase@?$QMap@VQString@@VinstanceInfo@@@@QAEXABVQString@@@Z$0 100116d0 f   bncs_instance_lookup.obj
 0001:000106d0       __unwindfunclet$?remove@?$QMap@VQString@@VinstanceInfo@@@@QAEXABVQString@@@Z$0 100116d0 f   bncs_instance_lookup.obj
 0001:000106db       __unwindfunclet$?erase@?$QMap@VQString@@VinstanceInfo@@@@QAEXABVQString@@@Z$1 100116db f   bncs_instance_lookup.obj
 0001:000106db       __unwindfunclet$?remove@?$QMap@VQString@@VinstanceInfo@@@@QAEXABVQString@@@Z$1 100116db f   bncs_instance_lookup.obj
 0001:000106e6       __unwindfunclet$?erase@?$QMap@VQString@@VinstanceInfo@@@@QAEXABVQString@@@Z$2 100116e6 f   bncs_instance_lookup.obj
 0001:000106e6       __unwindfunclet$?remove@?$QMap@VQString@@VinstanceInfo@@@@QAEXABVQString@@@Z$2 100116e6 f   bncs_instance_lookup.obj
 0001:000106f1       __ehhandler$?remove@?$QMap@VQString@@VinstanceInfo@@@@QAEXABVQString@@@Z 100116f1 f   bncs_instance_lookup.obj
 0001:000106f1       __ehhandler$?erase@?$QMap@VQString@@VinstanceInfo@@@@QAEXABVQString@@@Z 100116f1 f   bncs_instance_lookup.obj
 0001:00010710       __unwindfunclet$?erase@?$QMap@VQString@@VparamInfo@@@@QAEXABVQString@@@Z$0 10011710 f   bncs_instance_lookup.obj
 0001:00010710       __unwindfunclet$?remove@?$QMap@VQString@@VparamInfo@@@@QAEXABVQString@@@Z$0 10011710 f   bncs_instance_lookup.obj
 0001:0001071b       __unwindfunclet$?erase@?$QMap@VQString@@VparamInfo@@@@QAEXABVQString@@@Z$1 1001171b f   bncs_instance_lookup.obj
 0001:0001071b       __unwindfunclet$?remove@?$QMap@VQString@@VparamInfo@@@@QAEXABVQString@@@Z$1 1001171b f   bncs_instance_lookup.obj
 0001:00010726       __unwindfunclet$?remove@?$QMap@VQString@@VparamInfo@@@@QAEXABVQString@@@Z$2 10011726 f   bncs_instance_lookup.obj
 0001:00010726       __unwindfunclet$?erase@?$QMap@VQString@@VparamInfo@@@@QAEXABVQString@@@Z$2 10011726 f   bncs_instance_lookup.obj
 0001:00010731       __ehhandler$?erase@?$QMap@VQString@@VparamInfo@@@@QAEXABVQString@@@Z 10011731 f   bncs_instance_lookup.obj
 0001:00010731       __ehhandler$?remove@?$QMap@VQString@@VparamInfo@@@@QAEXABVQString@@@Z 10011731 f   bncs_instance_lookup.obj
 0001:00010750       __unwindfunclet$?replace@?$QMap@VQString@@VcomplexInstance@@@@QAE?AV?$QMapIterator@VQString@@VcomplexInstance@@@@ABVQString@@ABVcomplexInstance@@@Z$0 10011750 f   bncs_instance_lookup.obj
 0001:00010750       __unwindfunclet$?replace@?$QMap@VQString@@VcomplexParam@@@@QAE?AV?$QMapIterator@VQString@@VcomplexParam@@@@ABVQString@@ABVcomplexParam@@@Z$0 10011750 f   bncs_instance_lookup.obj
 0001:00010750       __unwindfunclet$?replace@?$QMap@VQString@@VcomplexType@@@@QAE?AV?$QMapIterator@VQString@@VcomplexType@@@@ABVQString@@ABVcomplexType@@@Z$0 10011750 f   bncs_instance_lookup.obj
 0001:0001075b       __ehhandler$?replace@?$QMap@VQString@@VcomplexInstance@@@@QAE?AV?$QMapIterator@VQString@@VcomplexInstance@@@@ABVQString@@ABVcomplexInstance@@@Z 1001175b f   bncs_instance_lookup.obj
 0001:0001075b       __ehhandler$?replace@?$QMap@VQString@@VcomplexParam@@@@QAE?AV?$QMapIterator@VQString@@VcomplexParam@@@@ABVQString@@ABVcomplexParam@@@Z 1001175b f   bncs_instance_lookup.obj
 0001:0001075b       __ehhandler$?replace@?$QMap@VQString@@VcomplexType@@@@QAE?AV?$QMapIterator@VQString@@VcomplexType@@@@ABVQString@@ABVcomplexType@@@Z 1001175b f   bncs_instance_lookup.obj
 0001:00010780       __unwindfunclet$?replace@?$QMap@VQString@@VparamInfo@@@@QAE?AV?$QMapIterator@VQString@@VparamInfo@@@@ABVQString@@ABVparamInfo@@@Z$0 10011780 f   bncs_instance_lookup.obj
 0001:0001078b       __ehhandler$?replace@?$QMap@VQString@@VparamInfo@@@@QAE?AV?$QMapIterator@VQString@@VparamInfo@@@@ABVQString@@ABVparamInfo@@@Z 1001178b f   bncs_instance_lookup.obj
 0001:000107b0       __unwindfunclet$?values@?$QMap@VQString@@VparamInfo@@@@QBE?AV?$QValueList@VparamInfo@@@@XZ$1 100117b0 f   bncs_instance_lookup.obj
 0001:000107b0       __unwindfunclet$?values@?$QMap@VQString@@VcomplexType@@@@QBE?AV?$QValueList@VcomplexType@@@@XZ$1 100117b0 f   bncs_instance_lookup.obj
 0001:000107b0       __unwindfunclet$?values@?$QMap@VQString@@VcomplexParam@@@@QBE?AV?$QValueList@VcomplexParam@@@@XZ$1 100117b0 f   bncs_instance_lookup.obj
 0001:000107b0       __unwindfunclet$?values@?$QMap@VQString@@VdeviceTypeInfo@@@@QBE?AV?$QValueList@VdeviceTypeInfo@@@@XZ$1 100117b0 f   bncs_instance_lookup.obj
 0001:000107b0       __unwindfunclet$?values@?$QMap@VQString@@VinstanceInfo@@@@QBE?AV?$QValueList@VinstanceInfo@@@@XZ$1 100117b0 f   bncs_instance_lookup.obj
 0001:000107b0       __unwindfunclet$?values@?$QMap@VQString@@Vstyleentry@@@@QBE?AV?$QValueList@Vstyleentry@@@@XZ$1 100117b0 f   bncs_instance_lookup.obj
 0001:000107b0       __unwindfunclet$?values@?$QMap@VQString@@VcomplexInstance@@@@QBE?AV?$QValueList@VcomplexInstance@@@@XZ$1 100117b0 f   bncs_instance_lookup.obj
 0001:000107bb       __unwindfunclet$?values@?$QMap@VQString@@VcomplexParam@@@@QBE?AV?$QValueList@VcomplexParam@@@@XZ$0 100117bb f   bncs_instance_lookup.obj
 0001:000107bb       __unwindfunclet$?values@?$QMap@VQString@@Vstyleentry@@@@QBE?AV?$QValueList@Vstyleentry@@@@XZ$0 100117bb f   bncs_instance_lookup.obj
 0001:000107bb       __unwindfunclet$?values@?$QMap@VQString@@VcomplexInstance@@@@QBE?AV?$QValueList@VcomplexInstance@@@@XZ$0 100117bb f   bncs_instance_lookup.obj
 0001:000107bb       __unwindfunclet$?values@?$QMap@VQString@@VdeviceTypeInfo@@@@QBE?AV?$QValueList@VdeviceTypeInfo@@@@XZ$0 100117bb f   bncs_instance_lookup.obj
 0001:000107bb       __unwindfunclet$?values@?$QMap@VQString@@VcomplexType@@@@QBE?AV?$QValueList@VcomplexType@@@@XZ$0 100117bb f   bncs_instance_lookup.obj
 0001:000107bb       __unwindfunclet$?values@?$QMap@VQString@@VparamInfo@@@@QBE?AV?$QValueList@VparamInfo@@@@XZ$0 100117bb f   bncs_instance_lookup.obj
 0001:000107bb       __unwindfunclet$?values@?$QMap@VQString@@VinstanceInfo@@@@QBE?AV?$QValueList@VinstanceInfo@@@@XZ$0 100117bb f   bncs_instance_lookup.obj
 0001:000107d4       __ehhandler$?values@?$QMap@VQString@@VcomplexType@@@@QBE?AV?$QValueList@VcomplexType@@@@XZ 100117d4 f   bncs_instance_lookup.obj
 0001:000107d4       __ehhandler$?values@?$QMap@VQString@@Vstyleentry@@@@QBE?AV?$QValueList@Vstyleentry@@@@XZ 100117d4 f   bncs_instance_lookup.obj
 0001:000107d4       __ehhandler$?values@?$QMap@VQString@@VcomplexInstance@@@@QBE?AV?$QValueList@VcomplexInstance@@@@XZ 100117d4 f   bncs_instance_lookup.obj
 0001:000107d4       __ehhandler$?values@?$QMap@VQString@@VdeviceTypeInfo@@@@QBE?AV?$QValueList@VdeviceTypeInfo@@@@XZ 100117d4 f   bncs_instance_lookup.obj
 0001:000107d4       __ehhandler$?values@?$QMap@VQString@@VcomplexParam@@@@QBE?AV?$QValueList@VcomplexParam@@@@XZ 100117d4 f   bncs_instance_lookup.obj
 0001:000107d4       __ehhandler$?values@?$QMap@VQString@@VinstanceInfo@@@@QBE?AV?$QValueList@VinstanceInfo@@@@XZ 100117d4 f   bncs_instance_lookup.obj
 0001:000107d4       __ehhandler$?values@?$QMap@VQString@@VparamInfo@@@@QBE?AV?$QValueList@VparamInfo@@@@XZ 100117d4 f   bncs_instance_lookup.obj
 0001:000107f0       __unwindfunclet$??0?$QMapNode@VQString@@Vstyleentry@@@@QAE@ABU0@@Z$2 100117f0 f   bncs_stylesheet.obj
 0001:000107f9       __unwindfunclet$??0?$QMapNode@VQString@@Vstyleentry@@@@QAE@ABU0@@Z$3 100117f9 f   bncs_stylesheet.obj
 0001:00010805       __unwindfunclet$??0?$QMapNode@VQString@@Vstyleentry@@@@QAE@ABU0@@Z$0 10011805 f   bncs_stylesheet.obj
 0001:00010810       __unwindfunclet$??0?$QMapNode@VQString@@Vstyleentry@@@@QAE@ABU0@@Z$1 10011810 f   bncs_stylesheet.obj
 0001:0001081c       __ehhandler$??0?$QMapNode@VQString@@Vstyleentry@@@@QAE@ABU0@@Z 1001181c f   bncs_stylesheet.obj
 0001:00010840       __unwindfunclet$??0?$QMapNode@VQString@@Vstyleentry@@@@QAE@ABVQString@@@Z$2 10011840 f   bncs_stylesheet.obj
 0001:00010849       __unwindfunclet$??0?$QMapNode@VQString@@Vstyleentry@@@@QAE@ABVQString@@@Z$3 10011849 f   bncs_stylesheet.obj
 0001:00010855       __unwindfunclet$??0?$QMapNode@VQString@@Vstyleentry@@@@QAE@ABVQString@@@Z$0 10011855 f   bncs_stylesheet.obj
 0001:00010860       __unwindfunclet$??0?$QMapNode@VQString@@Vstyleentry@@@@QAE@ABVQString@@@Z$1 10011860 f   bncs_stylesheet.obj
 0001:0001086c       __ehhandler$??0?$QMapNode@VQString@@Vstyleentry@@@@QAE@ABVQString@@@Z 1001186c f   bncs_stylesheet.obj
 0001:00010890       __unwindfunclet$??0?$QMapPrivate@VQString@@Vstyleentry@@@@QAE@XZ$0 10011890 f   bncs_stylesheet.obj
 0001:00010890       __unwindfunclet$??0?$QMapPrivate@VQString@@Vstyleentry@@@@QAE@PBV0@@Z$0 10011890 f   bncs_stylesheet.obj
 0001:0001089b       __unwindfunclet$??0?$QMapPrivate@VQString@@Vstyleentry@@@@QAE@PBV0@@Z$3 1001189b f   bncs_stylesheet.obj
 0001:0001089b       __unwindfunclet$??0?$QMapPrivate@VQString@@Vstyleentry@@@@QAE@XZ$3 1001189b f   bncs_stylesheet.obj
 0001:000108a4       __unwindfunclet$??0?$QMapPrivate@VQString@@Vstyleentry@@@@QAE@XZ$4 100118a4 f   bncs_stylesheet.obj
 0001:000108a4       __unwindfunclet$??0?$QMapPrivate@VQString@@Vstyleentry@@@@QAE@PBV0@@Z$4 100118a4 f   bncs_stylesheet.obj
 0001:000108b0       __unwindfunclet$??0?$QMapPrivate@VQString@@Vstyleentry@@@@QAE@PBV0@@Z$1 100118b0 f   bncs_stylesheet.obj
 0001:000108b0       __unwindfunclet$??0?$QMapPrivate@VQString@@Vstyleentry@@@@QAE@XZ$1 100118b0 f   bncs_stylesheet.obj
 0001:000108bb       __ehhandler$??0?$QMapPrivate@VQString@@Vstyleentry@@@@QAE@PBV0@@Z 100118bb f   bncs_stylesheet.obj
 0001:000108bb       __ehhandler$??0?$QMapPrivate@VQString@@Vstyleentry@@@@QAE@XZ 100118bb f   bncs_stylesheet.obj
 0001:000108e0       __unwindfunclet$??0?$QValueListPrivate@Vstyleentry@@@@QAE@ABV0@@Z$0 100118e0 f   bncs_stylesheet.obj
 0001:000108eb       __unwindfunclet$??0?$QValueListPrivate@Vstyleentry@@@@QAE@ABV0@@Z$2 100118eb f   bncs_stylesheet.obj
 0001:000108f4       __unwindfunclet$??0?$QValueListPrivate@Vstyleentry@@@@QAE@ABV0@@Z$3 100118f4 f   bncs_stylesheet.obj
 0001:00010900       __ehhandler$??0?$QValueListPrivate@Vstyleentry@@@@QAE@ABV0@@Z 10011900 f   bncs_stylesheet.obj
 0001:00010920       __unwindfunclet$??0?$QValueListPrivate@Vstyleentry@@@@QAE@XZ$0 10011920 f   bncs_stylesheet.obj
 0001:0001092b       __unwindfunclet$??0?$QValueListPrivate@Vstyleentry@@@@QAE@XZ$2 1001192b f   bncs_stylesheet.obj
 0001:00010934       __unwindfunclet$??0?$QValueListPrivate@Vstyleentry@@@@QAE@XZ$3 10011934 f   bncs_stylesheet.obj
 0001:00010940       __ehhandler$??0?$QValueListPrivate@Vstyleentry@@@@QAE@XZ 10011940 f   bncs_stylesheet.obj
 0001:00010960       __unwindfunclet$??1?$QMapPrivate@VQString@@Vstyleentry@@@@QAE@XZ$0 10011960 f   bncs_stylesheet.obj
 0001:0001096b       __unwindfunclet$??1?$QMapPrivate@VQString@@Vstyleentry@@@@QAE@XZ$2 1001196b f   bncs_stylesheet.obj
 0001:00010974       __unwindfunclet$??1?$QMapPrivate@VQString@@Vstyleentry@@@@QAE@XZ$3 10011974 f   bncs_stylesheet.obj
 0001:00010980       __ehhandler$??1?$QMapPrivate@VQString@@Vstyleentry@@@@QAE@XZ 10011980 f   bncs_stylesheet.obj
 0001:000109a0       __unwindfunclet$??1styleentry@@QAE@XZ$0 100119a0 f   bncs_stylesheet.obj
 0001:000109a0       __unwindfunclet$??0styleentry@@QAE@XZ$0 100119a0 f   bncs_stylesheet.obj
 0001:000109a9       __unwindfunclet$??0styleentry@@QAE@XZ$1 100119a9 f   bncs_stylesheet.obj
 0001:000109a9       __unwindfunclet$??1styleentry@@QAE@XZ$1 100119a9 f   bncs_stylesheet.obj
 0001:000109b5       __ehhandler$??1styleentry@@QAE@XZ 100119b5 f   bncs_stylesheet.obj
 0001:000109b5       __ehhandler$??0styleentry@@QAE@XZ 100119b5 f   bncs_stylesheet.obj
 0001:000109d0       __unwindfunclet$??A?$QMap@VQString@@Vstyleentry@@@@QAEAAVstyleentry@@ABVQString@@@Z$1 100119d0 f   bncs_stylesheet.obj
 0001:000109db       __unwindfunclet$??A?$QMap@VQString@@Vstyleentry@@@@QAEAAVstyleentry@@ABVQString@@@Z$2 100119db f   bncs_stylesheet.obj
 0001:000109e4       __unwindfunclet$??A?$QMap@VQString@@Vstyleentry@@@@QAEAAVstyleentry@@ABVQString@@@Z$3 100119e4 f   bncs_stylesheet.obj
 0001:000109ed       __unwindfunclet$??A?$QMap@VQString@@Vstyleentry@@@@QAEAAVstyleentry@@ABVQString@@@Z$0 100119ed f   bncs_stylesheet.obj
 0001:000109f5       __unwindfunclet$??A?$QMap@VQString@@Vstyleentry@@@@QAEAAVstyleentry@@ABVQString@@@Z$5 100119f5 f   bncs_stylesheet.obj
 0001:000109fe       __unwindfunclet$??A?$QMap@VQString@@Vstyleentry@@@@QAEAAVstyleentry@@ABVQString@@@Z$6 100119fe f   bncs_stylesheet.obj
 0001:00010a07       __ehhandler$??A?$QMap@VQString@@Vstyleentry@@@@QAEAAVstyleentry@@ABVQString@@@Z 10011a07 f   bncs_stylesheet.obj
 0001:00010a30       __unwindfunclet$??0styleentry@@QAE@ABV0@@Z$0 10011a30 f   bncs_stylesheet.obj
 0001:00010a30       __unwindfunclet$??_G?$QValueListNode@Vstyleentry@@@@UAEPAXI@Z$1 10011a30 f   bncs_stylesheet.obj
 0001:00010a39       __unwindfunclet$??0styleentry@@QAE@ABV0@@Z$1 10011a39 f   bncs_stylesheet.obj
 0001:00010a39       __unwindfunclet$??_G?$QValueListNode@Vstyleentry@@@@UAEPAXI@Z$2 10011a39 f   bncs_stylesheet.obj
 0001:00010a45       __ehhandler$??_G?$QValueListNode@Vstyleentry@@@@UAEPAXI@Z 10011a45 f   bncs_stylesheet.obj
 0001:00010a45       __ehhandler$??0styleentry@@QAE@ABV0@@Z 10011a45 f   bncs_stylesheet.obj
 0001:00010a60       __unwindfunclet$?clear@?$QMapPrivate@VQString@@Vstyleentry@@@@QAEXPAU?$QMapNode@VQString@@Vstyleentry@@@@@Z$0 10011a60 f   bncs_stylesheet.obj
 0001:00010a6b       __unwindfunclet$?clear@?$QMapPrivate@VQString@@Vstyleentry@@@@QAEXPAU?$QMapNode@VQString@@Vstyleentry@@@@@Z$2 10011a6b f   bncs_stylesheet.obj
 0001:00010a74       __unwindfunclet$?clear@?$QMapPrivate@VQString@@Vstyleentry@@@@QAEXPAU?$QMapNode@VQString@@Vstyleentry@@@@@Z$3 10011a74 f   bncs_stylesheet.obj
 0001:00010a80       __ehhandler$?clear@?$QMapPrivate@VQString@@Vstyleentry@@@@QAEXPAU?$QMapNode@VQString@@Vstyleentry@@@@@Z 10011a80 f   bncs_stylesheet.obj
 0001:00010aa0       __unwindfunclet$?deleteStyle@bncs_stylesheet@@QAEXVQString@@@Z$0 10011aa0 f   bncs_stylesheet.obj
 0001:00010aa9       __unwindfunclet$?deleteStyle@bncs_stylesheet@@QAEXVQString@@@Z$1 10011aa9 f   bncs_stylesheet.obj
 0001:00010ab2       __unwindfunclet$?deleteStyle@bncs_stylesheet@@QAEXVQString@@@Z$2 10011ab2 f   bncs_stylesheet.obj
 0001:00010abb       __unwindfunclet$?deleteStyle@bncs_stylesheet@@QAEXVQString@@@Z$3 10011abb f   bncs_stylesheet.obj
 0001:00010ac4       __ehhandler$?deleteStyle@bncs_stylesheet@@QAEXVQString@@@Z 10011ac4 f   bncs_stylesheet.obj
 0001:00010ae0       __unwindfunclet$?doLoad@bncs_stylesheet@@SA_NXZ$0 10011ae0 f   bncs_stylesheet.obj
 0001:00010ae9       __unwindfunclet$?doLoad@bncs_stylesheet@@SA_NXZ$1 10011ae9 f   bncs_stylesheet.obj
 0001:00010af2       __unwindfunclet$?doLoad@bncs_stylesheet@@SA_NXZ$2 10011af2 f   bncs_stylesheet.obj
 0001:00010afe       __unwindfunclet$?doLoad@bncs_stylesheet@@SA_NXZ$3 10011afe f   bncs_stylesheet.obj
 0001:00010b0a       __unwindfunclet$?doLoad@bncs_stylesheet@@SA_NXZ$4 10011b0a f   bncs_stylesheet.obj
 0001:00010b13       __unwindfunclet$?doLoad@bncs_stylesheet@@SA_NXZ$5 10011b13 f   bncs_stylesheet.obj
 0001:00010b1c       __unwindfunclet$?doLoad@bncs_stylesheet@@SA_NXZ$6 10011b1c f   bncs_stylesheet.obj
 0001:00010b25       __unwindfunclet$?doLoad@bncs_stylesheet@@SA_NXZ$7 10011b25 f   bncs_stylesheet.obj
 0001:00010b2e       __unwindfunclet$?doLoad@bncs_stylesheet@@SA_NXZ$8 10011b2e f   bncs_stylesheet.obj
 0001:00010b37       __unwindfunclet$?doLoad@bncs_stylesheet@@SA_NXZ$9 10011b37 f   bncs_stylesheet.obj
 0001:00010b40       __unwindfunclet$?doLoad@bncs_stylesheet@@SA_NXZ$10 10011b40 f   bncs_stylesheet.obj
 0001:00010b4c       __unwindfunclet$?doLoad@bncs_stylesheet@@SA_NXZ$11 10011b4c f   bncs_stylesheet.obj
 0001:00010b55       __unwindfunclet$?doLoad@bncs_stylesheet@@SA_NXZ$12 10011b55 f   bncs_stylesheet.obj
 0001:00010b5e       __unwindfunclet$?doLoad@bncs_stylesheet@@SA_NXZ$13 10011b5e f   bncs_stylesheet.obj
 0001:00010b67       __unwindfunclet$?doLoad@bncs_stylesheet@@SA_NXZ$14 10011b67 f   bncs_stylesheet.obj
 0001:00010b70       __unwindfunclet$?doLoad@bncs_stylesheet@@SA_NXZ$15 10011b70 f   bncs_stylesheet.obj
 0001:00010b79       __unwindfunclet$?doLoad@bncs_stylesheet@@SA_NXZ$16 10011b79 f   bncs_stylesheet.obj
 0001:00010b82       __unwindfunclet$?doLoad@bncs_stylesheet@@SA_NXZ$17 10011b82 f   bncs_stylesheet.obj
 0001:00010b8b       __unwindfunclet$?doLoad@bncs_stylesheet@@SA_NXZ$18 10011b8b f   bncs_stylesheet.obj
 0001:00010b97       __unwindfunclet$?doLoad@bncs_stylesheet@@SA_NXZ$19 10011b97 f   bncs_stylesheet.obj
 0001:00010ba0       __unwindfunclet$?doLoad@bncs_stylesheet@@SA_NXZ$20 10011ba0 f   bncs_stylesheet.obj
 0001:00010bac       __unwindfunclet$?doLoad@bncs_stylesheet@@SA_NXZ$21 10011bac f   bncs_stylesheet.obj
 0001:00010bb8       __unwindfunclet$?doLoad@bncs_stylesheet@@SA_NXZ$22 10011bb8 f   bncs_stylesheet.obj
 0001:00010bc1       __unwindfunclet$?doLoad@bncs_stylesheet@@SA_NXZ$23 10011bc1 f   bncs_stylesheet.obj
 0001:00010bca       __unwindfunclet$?doLoad@bncs_stylesheet@@SA_NXZ$24 10011bca f   bncs_stylesheet.obj
 0001:00010bd3       __unwindfunclet$?doLoad@bncs_stylesheet@@SA_NXZ$25 10011bd3 f   bncs_stylesheet.obj
 0001:00010bdf       __unwindfunclet$?doLoad@bncs_stylesheet@@SA_NXZ$26 10011bdf f   bncs_stylesheet.obj
 0001:00010be8       __unwindfunclet$?doLoad@bncs_stylesheet@@SA_NXZ$27 10011be8 f   bncs_stylesheet.obj
 0001:00010bf1       __unwindfunclet$?doLoad@bncs_stylesheet@@SA_NXZ$28 10011bf1 f   bncs_stylesheet.obj
 0001:00010bfa       __unwindfunclet$?doLoad@bncs_stylesheet@@SA_NXZ$29 10011bfa f   bncs_stylesheet.obj
 0001:00010c03       __unwindfunclet$?doLoad@bncs_stylesheet@@SA_NXZ$30 10011c03 f   bncs_stylesheet.obj
 0001:00010c0f       __unwindfunclet$?doLoad@bncs_stylesheet@@SA_NXZ$31 10011c0f f   bncs_stylesheet.obj
 0001:00010c18       __unwindfunclet$?doLoad@bncs_stylesheet@@SA_NXZ$32 10011c18 f   bncs_stylesheet.obj
 0001:00010c21       __unwindfunclet$?doLoad@bncs_stylesheet@@SA_NXZ$33 10011c21 f   bncs_stylesheet.obj
 0001:00010c2a       __unwindfunclet$?doLoad@bncs_stylesheet@@SA_NXZ$34 10011c2a f   bncs_stylesheet.obj
 0001:00010c36       __unwindfunclet$?doLoad@bncs_stylesheet@@SA_NXZ$35 10011c36 f   bncs_stylesheet.obj
 0001:00010c42       __unwindfunclet$?doLoad@bncs_stylesheet@@SA_NXZ$36 10011c42 f   bncs_stylesheet.obj
 0001:00010c4b       __unwindfunclet$?doLoad@bncs_stylesheet@@SA_NXZ$37 10011c4b f   bncs_stylesheet.obj
 0001:00010c57       __unwindfunclet$?doLoad@bncs_stylesheet@@SA_NXZ$38 10011c57 f   bncs_stylesheet.obj
 0001:00010c60       __unwindfunclet$?doLoad@bncs_stylesheet@@SA_NXZ$39 10011c60 f   bncs_stylesheet.obj
 0001:00010c6c       __unwindfunclet$?doLoad@bncs_stylesheet@@SA_NXZ$40 10011c6c f   bncs_stylesheet.obj
 0001:00010c75       __unwindfunclet$?doLoad@bncs_stylesheet@@SA_NXZ$41 10011c75 f   bncs_stylesheet.obj
 0001:00010c81       __unwindfunclet$?doLoad@bncs_stylesheet@@SA_NXZ$42 10011c81 f   bncs_stylesheet.obj
 0001:00010c8a       __unwindfunclet$?doLoad@bncs_stylesheet@@SA_NXZ$43 10011c8a f   bncs_stylesheet.obj
 0001:00010c96       __unwindfunclet$?doLoad@bncs_stylesheet@@SA_NXZ$44 10011c96 f   bncs_stylesheet.obj
 0001:00010c9f       __unwindfunclet$?doLoad@bncs_stylesheet@@SA_NXZ$45 10011c9f f   bncs_stylesheet.obj
 0001:00010ca8       __unwindfunclet$?doLoad@bncs_stylesheet@@SA_NXZ$46 10011ca8 f   bncs_stylesheet.obj
 0001:00010cb1       __unwindfunclet$?doLoad@bncs_stylesheet@@SA_NXZ$47 10011cb1 f   bncs_stylesheet.obj
 0001:00010cba       __unwindfunclet$?doLoad@bncs_stylesheet@@SA_NXZ$48 10011cba f   bncs_stylesheet.obj
 0001:00010cc6       __unwindfunclet$?doLoad@bncs_stylesheet@@SA_NXZ$49 10011cc6 f   bncs_stylesheet.obj
 0001:00010ccf       __unwindfunclet$?doLoad@bncs_stylesheet@@SA_NXZ$50 10011ccf f   bncs_stylesheet.obj
 0001:00010cd8       __ehhandler$?doLoad@bncs_stylesheet@@SA_NXZ 10011cd8 f   bncs_stylesheet.obj
 0001:00010d00       __unwindfunclet$?getStyle@bncs_stylesheet@@SAXAAVQString@@PAVQWidget@@@Z$0 10011d00 f   bncs_stylesheet.obj
 0001:00010d0b       __unwindfunclet$?getStyle@bncs_stylesheet@@SAXAAVQString@@PAVQWidget@@@Z$1 10011d0b f   bncs_stylesheet.obj
 0001:00010d16       __ehhandler$?getStyle@bncs_stylesheet@@SAXAAVQString@@PAVQWidget@@@Z 10011d16 f   bncs_stylesheet.obj
 0001:00010d40       __unwindfunclet$?getStyleEntry@bncs_stylesheet@@QAEPAVstyleentry@@VQString@@@Z$0 10011d40 f   bncs_stylesheet.obj
 0001:00010d49       __ehhandler$?getStyleEntry@bncs_stylesheet@@QAEPAVstyleentry@@VQString@@@Z 10011d49 f   bncs_stylesheet.obj
 0001:00010d70       __unwindfunclet$?insert@?$QMap@VQString@@Vstyleentry@@@@QAE?AU?$QPair@V?$QMapIterator@VQString@@Vstyleentry@@@@_N@@ABU?$QPair@$$CBVQString@@Vstyleentry@@@@@Z$0 10011d70 f   bncs_stylesheet.obj
 0001:00010d70       __unwindfunclet$??0?$QValueListPrivate@VparamInfo@@@@QAE@ABV0@@Z$0 10011d70 f   bncs_stylesheet.obj
 0001:00010d70       __unwindfunclet$??0?$QValueListPrivate@VcomplexType@@@@QAE@ABV0@@Z$0 10011d70 f   bncs_stylesheet.obj
 0001:00010d70       __unwindfunclet$??0?$QValueListPrivate@VcomplexParam@@@@QAE@ABV0@@Z$0 10011d70 f   bncs_stylesheet.obj
 0001:00010d70       __unwindfunclet$??0?$QValueListPrivate@VcomplexInstance@@@@QAE@ABV0@@Z$0 10011d70 f   bncs_stylesheet.obj
 0001:00010d70       __unwindfunclet$??0?$QValueListPrivate@VdeviceTypeInfo@@@@QAE@ABV0@@Z$0 10011d70 f   bncs_stylesheet.obj
 0001:00010d70       __unwindfunclet$??0?$QValueListPrivate@VinstanceInfo@@@@QAE@ABV0@@Z$0 10011d70 f   bncs_stylesheet.obj
 0001:00010d7b       __ehhandler$??0?$QValueListPrivate@VcomplexInstance@@@@QAE@ABV0@@Z 10011d7b f   bncs_stylesheet.obj
 0001:00010d7b       __ehhandler$??0?$QValueListPrivate@VparamInfo@@@@QAE@ABV0@@Z 10011d7b f   bncs_stylesheet.obj
 0001:00010d7b       __ehhandler$?insert@?$QMap@VQString@@Vstyleentry@@@@QAE?AU?$QPair@V?$QMapIterator@VQString@@Vstyleentry@@@@_N@@ABU?$QPair@$$CBVQString@@Vstyleentry@@@@@Z 10011d7b f   bncs_stylesheet.obj
 0001:00010d7b       __ehhandler$??0?$QValueListPrivate@VcomplexType@@@@QAE@ABV0@@Z 10011d7b f   bncs_stylesheet.obj
 0001:00010d7b       __ehhandler$??0?$QValueListPrivate@VdeviceTypeInfo@@@@QAE@ABV0@@Z 10011d7b f   bncs_stylesheet.obj
 0001:00010d7b       __ehhandler$??0?$QValueListPrivate@VinstanceInfo@@@@QAE@ABV0@@Z 10011d7b f   bncs_stylesheet.obj
 0001:00010d7b       __ehhandler$??0?$QValueListPrivate@VcomplexParam@@@@QAE@ABV0@@Z 10011d7b f   bncs_stylesheet.obj
 0001:00010da0       __unwindfunclet$?insert@?$QValueListPrivate@Vstyleentry@@@@QAE?AV?$QValueListIterator@Vstyleentry@@@@V2@ABVstyleentry@@@Z$0 10011da0 f   bncs_stylesheet.obj
 0001:00010dab       __unwindfunclet$?insert@?$QValueListPrivate@Vstyleentry@@@@QAE?AV?$QValueListIterator@Vstyleentry@@@@V2@ABVstyleentry@@@Z$2 10011dab f   bncs_stylesheet.obj
 0001:00010db4       __unwindfunclet$?insert@?$QValueListPrivate@Vstyleentry@@@@QAE?AV?$QValueListIterator@Vstyleentry@@@@V2@ABVstyleentry@@@Z$3 10011db4 f   bncs_stylesheet.obj
 0001:00010dc0       __ehhandler$?insert@?$QValueListPrivate@Vstyleentry@@@@QAE?AV?$QValueListIterator@Vstyleentry@@@@V2@ABVstyleentry@@@Z 10011dc0 f   bncs_stylesheet.obj
 0001:00010de0       __unwindfunclet$?load@bncs_stylesheet@@SA_NXZ$0 10011de0 f   bncs_stylesheet.obj
 0001:00010de9       __unwindfunclet$?load@bncs_stylesheet@@SA_NXZ$1 10011de9 f   bncs_stylesheet.obj
 0001:00010df2       __unwindfunclet$?load@bncs_stylesheet@@SA_NXZ$2 10011df2 f   bncs_stylesheet.obj
 0001:00010dfb       __unwindfunclet$?load@bncs_stylesheet@@SA_NXZ$3 10011dfb f   bncs_stylesheet.obj
 0001:00010e04       __unwindfunclet$?load@bncs_stylesheet@@SA_NXZ$4 10011e04 f   bncs_stylesheet.obj
 0001:00010e0d       __ehhandler$?load@bncs_stylesheet@@SA_NXZ 10011e0d f   bncs_stylesheet.obj
 0001:00010e30       __unwindfunclet$?erase@?$QMap@VQString@@Vstyleentry@@@@QAEXABVQString@@@Z$0 10011e30 f   bncs_stylesheet.obj
 0001:00010e30       __unwindfunclet$?remove@?$QMap@VQString@@Vstyleentry@@@@QAEXABVQString@@@Z$0 10011e30 f   bncs_stylesheet.obj
 0001:00010e3b       __unwindfunclet$?remove@?$QMap@VQString@@Vstyleentry@@@@QAEXABVQString@@@Z$1 10011e3b f   bncs_stylesheet.obj
 0001:00010e3b       __unwindfunclet$?erase@?$QMap@VQString@@Vstyleentry@@@@QAEXABVQString@@@Z$1 10011e3b f   bncs_stylesheet.obj
 0001:00010e46       __ehhandler$?remove@?$QMap@VQString@@Vstyleentry@@@@QAEXABVQString@@@Z 10011e46 f   bncs_stylesheet.obj
 0001:00010e46       __ehhandler$?erase@?$QMap@VQString@@Vstyleentry@@@@QAEXABVQString@@@Z 10011e46 f   bncs_stylesheet.obj
 0001:00010e70       __unwindfunclet$?remove@?$QMapPrivate@VQString@@Vstyleentry@@@@QAEXV?$QMapIterator@VQString@@Vstyleentry@@@@@Z$0 10011e70 f   bncs_stylesheet.obj
 0001:00010e7b       __unwindfunclet$?remove@?$QMapPrivate@VQString@@Vstyleentry@@@@QAEXV?$QMapIterator@VQString@@Vstyleentry@@@@@Z$2 10011e7b f   bncs_stylesheet.obj
 0001:00010e84       __unwindfunclet$?remove@?$QMapPrivate@VQString@@Vstyleentry@@@@QAEXV?$QMapIterator@VQString@@Vstyleentry@@@@@Z$3 10011e84 f   bncs_stylesheet.obj
 0001:00010e90       __ehhandler$?remove@?$QMapPrivate@VQString@@Vstyleentry@@@@QAEXV?$QMapIterator@VQString@@Vstyleentry@@@@@Z 10011e90 f   bncs_stylesheet.obj
 0001:00010eb0       __unwindfunclet$?save@bncs_stylesheet@@QAE_NXZ$0 10011eb0 f   bncs_stylesheet.obj
 0001:00010ebc       __unwindfunclet$?save@bncs_stylesheet@@QAE_NXZ$39 10011ebc f   bncs_stylesheet.obj
 0001:00010ec7       __unwindfunclet$?save@bncs_stylesheet@@QAE_NXZ$1 10011ec7 f   bncs_stylesheet.obj
 0001:00010ed0       __unwindfunclet$?save@bncs_stylesheet@@QAE_NXZ$2 10011ed0 f   bncs_stylesheet.obj
 0001:00010ed9       __unwindfunclet$?save@bncs_stylesheet@@QAE_NXZ$3 10011ed9 f   bncs_stylesheet.obj
 0001:00010ee2       __unwindfunclet$?save@bncs_stylesheet@@QAE_NXZ$4 10011ee2 f   bncs_stylesheet.obj
 0001:00010eee       __unwindfunclet$?save@bncs_stylesheet@@QAE_NXZ$5 10011eee f   bncs_stylesheet.obj
 0001:00010ef7       __unwindfunclet$?save@bncs_stylesheet@@QAE_NXZ$6 10011ef7 f   bncs_stylesheet.obj
 0001:00010f00       __unwindfunclet$?save@bncs_stylesheet@@QAE_NXZ$7 10011f00 f   bncs_stylesheet.obj
 0001:00010f0c       __unwindfunclet$?save@bncs_stylesheet@@QAE_NXZ$40 10011f0c f   bncs_stylesheet.obj
 0001:00010f1a       __unwindfunclet$?save@bncs_stylesheet@@QAE_NXZ$9 10011f1a f   bncs_stylesheet.obj
 0001:00010f23       __unwindfunclet$?save@bncs_stylesheet@@QAE_NXZ$10 10011f23 f   bncs_stylesheet.obj
 0001:00010f2c       __unwindfunclet$?save@bncs_stylesheet@@QAE_NXZ$11 10011f2c f   bncs_stylesheet.obj
 0001:00010f35       __unwindfunclet$?save@bncs_stylesheet@@QAE_NXZ$12 10011f35 f   bncs_stylesheet.obj
 0001:00010f3e       __unwindfunclet$?save@bncs_stylesheet@@QAE_NXZ$13 10011f3e f   bncs_stylesheet.obj
 0001:00010f47       __unwindfunclet$?save@bncs_stylesheet@@QAE_NXZ$14 10011f47 f   bncs_stylesheet.obj
 0001:00010f53       __unwindfunclet$?save@bncs_stylesheet@@QAE_NXZ$15 10011f53 f   bncs_stylesheet.obj
 0001:00010f5c       __unwindfunclet$?save@bncs_stylesheet@@QAE_NXZ$16 10011f5c f   bncs_stylesheet.obj
 0001:00010f65       __unwindfunclet$?save@bncs_stylesheet@@QAE_NXZ$17 10011f65 f   bncs_stylesheet.obj
 0001:00010f6e       __unwindfunclet$?save@bncs_stylesheet@@QAE_NXZ$18 10011f6e f   bncs_stylesheet.obj
 0001:00010f77       __unwindfunclet$?save@bncs_stylesheet@@QAE_NXZ$19 10011f77 f   bncs_stylesheet.obj
 0001:00010f80       __unwindfunclet$?save@bncs_stylesheet@@QAE_NXZ$20 10011f80 f   bncs_stylesheet.obj
 0001:00010f89       __unwindfunclet$?save@bncs_stylesheet@@QAE_NXZ$21 10011f89 f   bncs_stylesheet.obj
 0001:00010f92       __unwindfunclet$?save@bncs_stylesheet@@QAE_NXZ$22 10011f92 f   bncs_stylesheet.obj
 0001:00010f9e       __unwindfunclet$?save@bncs_stylesheet@@QAE_NXZ$23 10011f9e f   bncs_stylesheet.obj
 0001:00010fa7       __unwindfunclet$?save@bncs_stylesheet@@QAE_NXZ$24 10011fa7 f   bncs_stylesheet.obj
 0001:00010fb0       __unwindfunclet$?save@bncs_stylesheet@@QAE_NXZ$25 10011fb0 f   bncs_stylesheet.obj
 0001:00010fb9       __unwindfunclet$?save@bncs_stylesheet@@QAE_NXZ$26 10011fb9 f   bncs_stylesheet.obj
 0001:00010fc2       __unwindfunclet$?save@bncs_stylesheet@@QAE_NXZ$27 10011fc2 f   bncs_stylesheet.obj
 0001:00010fcb       __unwindfunclet$?save@bncs_stylesheet@@QAE_NXZ$28 10011fcb f   bncs_stylesheet.obj
 0001:00010fd7       __unwindfunclet$?save@bncs_stylesheet@@QAE_NXZ$29 10011fd7 f   bncs_stylesheet.obj
 0001:00010fe0       __unwindfunclet$?save@bncs_stylesheet@@QAE_NXZ$30 10011fe0 f   bncs_stylesheet.obj
 0001:00010fec       __unwindfunclet$?save@bncs_stylesheet@@QAE_NXZ$31 10011fec f   bncs_stylesheet.obj
 0001:00010ff5       __unwindfunclet$?save@bncs_stylesheet@@QAE_NXZ$32 10011ff5 f   bncs_stylesheet.obj
 0001:00010ffe       __unwindfunclet$?save@bncs_stylesheet@@QAE_NXZ$35 10011ffe f   bncs_stylesheet.obj
 0001:0001100a       __unwindfunclet$?save@bncs_stylesheet@@QAE_NXZ$36 1001200a f   bncs_stylesheet.obj
 0001:00011013       __unwindfunclet$?save@bncs_stylesheet@@QAE_NXZ$37 10012013 f   bncs_stylesheet.obj
 0001:0001101c       __unwindfunclet$?save@bncs_stylesheet@@QAE_NXZ$38 1001201c f   bncs_stylesheet.obj
 0001:00011025       __ehhandler$?save@bncs_stylesheet@@QAE_NXZ 10012025 f   bncs_stylesheet.obj
 0001:00011050       __unwindfunclet$?settingslist@bncs_stylesheet@@QAE?BVQStringList@@AAVQString@@@Z$0 10012050 f   bncs_stylesheet.obj
 0001:00011059       __unwindfunclet$?settingslist@bncs_stylesheet@@QAE?BVQStringList@@AAVQString@@@Z$2 10012059 f   bncs_stylesheet.obj
 0001:00011064       __unwindfunclet$?settingslist@bncs_stylesheet@@QAE?BVQStringList@@AAVQString@@@Z$3 10012064 f   bncs_stylesheet.obj
 0001:0001106f       __unwindfunclet$?settingslist@bncs_stylesheet@@QAE?BVQStringList@@AAVQString@@@Z$1 1001206f f   bncs_stylesheet.obj
 0001:00011089       __ehhandler$?settingslist@bncs_stylesheet@@QAE?BVQStringList@@AAVQString@@@Z 10012089 f   bncs_stylesheet.obj
 0001:000110b0       __unwindfunclet$?styleExist@bncs_stylesheet@@QAE_NVQString@@@Z$0 100120b0 f   bncs_stylesheet.obj
 0001:000110b9       __ehhandler$?styleExist@bncs_stylesheet@@QAE_NVQString@@@Z 100120b9 f   bncs_stylesheet.obj
 0001:000110e0       __unwindfunclet$?detach@?$QMap@VQString@@VinstanceInfo@@@@IAEXXZ$0 100120e0 f   complexInstance.obj
 0001:000110e0       __unwindfunclet$?detachInternal@?$QMap@VQString@@VdeviceTypeInfo@@@@AAEXXZ$0 100120e0 f   complexInstance.obj
 0001:000110e0       __unwindfunclet$??0?$QMap@VQString@@VcomplexType@@@@QAE@XZ$0 100120e0 f   complexInstance.obj
 0001:000110e0       __unwindfunclet$?begin@?$QMap@VQString@@VcomplexType@@@@QAE?AV?$QMapIterator@VQString@@VcomplexType@@@@XZ$0 100120e0 f   complexInstance.obj
 0001:000110e0       __unwindfunclet$?end@?$QMap@VQString@@VdeviceTypeInfo@@@@QAE?AV?$QMapIterator@VQString@@VdeviceTypeInfo@@@@XZ$0 100120e0 f   complexInstance.obj
 0001:000110e0       __unwindfunclet$?end@?$QMap@VQString@@VcomplexType@@@@QAE?AV?$QMapIterator@VQString@@VcomplexType@@@@XZ$0 100120e0 f   complexInstance.obj
 0001:000110e0       __unwindfunclet$?begin@?$QMap@VQString@@VdeviceTypeInfo@@@@QAE?AV?$QMapIterator@VQString@@VdeviceTypeInfo@@@@XZ$0 100120e0 f   complexInstance.obj
 0001:000110e0       __unwindfunclet$?detach@?$QMap@VQString@@VdeviceTypeInfo@@@@IAEXXZ$0 100120e0 f   complexInstance.obj
 0001:000110e0       __unwindfunclet$?find@?$QMap@VQString@@VcomplexType@@@@QAE?AV?$QMapIterator@VQString@@VcomplexType@@@@ABVQString@@@Z$0 100120e0 f   complexInstance.obj
 0001:000110e0       __unwindfunclet$?find@?$QMap@VQString@@VinstanceInfo@@@@QAE?AV?$QMapIterator@VQString@@VinstanceInfo@@@@ABVQString@@@Z$0 100120e0 f   complexInstance.obj
 0001:000110e0       __unwindfunclet$?detachInternal@?$QMap@VQString@@VcomplexInstance@@@@AAEXXZ$0 100120e0 f   complexInstance.obj
 0001:000110e0       __unwindfunclet$?detach@?$QMap@VQString@@VcomplexParam@@@@IAEXXZ$0 100120e0 f   complexInstance.obj
 0001:000110e0       __unwindfunclet$?detach@?$QMap@VQString@@VcomplexInstance@@@@IAEXXZ$0 100120e0 f   complexInstance.obj
 0001:000110e0       __unwindfunclet$?detachInternal@?$QMap@VQString@@VcomplexParam@@@@AAEXXZ$0 100120e0 f   complexInstance.obj
 0001:000110e0       __unwindfunclet$?detach@?$QMap@VQString@@VcomplexType@@@@IAEXXZ$0 100120e0 f   complexInstance.obj
 0001:000110e0       __unwindfunclet$??0?$QMap@VQString@@VcomplexInstance@@@@QAE@XZ$0 100120e0 f   complexInstance.obj
 0001:000110e0       __unwindfunclet$?find@?$QMap@VQString@@VcomplexParam@@@@QAE?AV?$QMapIterator@VQString@@VcomplexParam@@@@ABVQString@@@Z$0 100120e0 f   complexInstance.obj
 0001:000110e0       __unwindfunclet$?begin@?$QMap@VQString@@VcomplexInstance@@@@QAE?AV?$QMapIterator@VQString@@VcomplexInstance@@@@XZ$0 100120e0 f   complexInstance.obj
 0001:000110e0       __unwindfunclet$??0?$QMap@VQString@@VparamInfo@@@@QAE@XZ$0 100120e0 f   complexInstance.obj
 0001:000110e0       __unwindfunclet$?end@?$QMap@VQString@@VcomplexInstance@@@@QAE?AV?$QMapIterator@VQString@@VcomplexInstance@@@@XZ$0 100120e0 f   complexInstance.obj
 0001:000110e0       __unwindfunclet$?find@?$QMap@VQString@@VparamInfo@@@@QAE?AV?$QMapIterator@VQString@@VparamInfo@@@@ABVQString@@@Z$0 100120e0 f   complexInstance.obj
 0001:000110e0       __unwindfunclet$?detach@?$QMap@VQString@@VparamInfo@@@@IAEXXZ$0 100120e0 f   complexInstance.obj
 0001:000110e0       __unwindfunclet$?begin@?$QMap@VQString@@VparamInfo@@@@QAE?AV?$QMapIterator@VQString@@VparamInfo@@@@XZ$0 100120e0 f   complexInstance.obj
 0001:000110e0       __unwindfunclet$?detachInternal@?$QMap@VQString@@Vstyleentry@@@@AAEXXZ$0 100120e0 f   complexInstance.obj
 0001:000110e0       __unwindfunclet$?detach@?$QMap@VQString@@Vstyleentry@@@@IAEXXZ$0 100120e0 f   complexInstance.obj
 0001:000110e0       __unwindfunclet$?remove@?$QMap@VQString@@Vstyleentry@@@@QAEXV?$QMapIterator@VQString@@Vstyleentry@@@@@Z$0 100120e0 f   complexInstance.obj
 0001:000110e0       __unwindfunclet$?find@?$QMap@VQString@@Vstyleentry@@@@QAE?AV?$QMapIterator@VQString@@Vstyleentry@@@@ABVQString@@@Z$0 100120e0 f   complexInstance.obj
 0001:000110e0       __unwindfunclet$?erase@?$QMap@VQString@@Vstyleentry@@@@QAEXV?$QMapIterator@VQString@@Vstyleentry@@@@@Z$0 100120e0 f   complexInstance.obj
 0001:000110e0       __unwindfunclet$?end@?$QMap@VQString@@Vstyleentry@@@@QAE?AV?$QMapIterator@VQString@@Vstyleentry@@@@XZ$0 100120e0 f   complexInstance.obj
 0001:000110e0       __unwindfunclet$?begin@?$QMap@VQString@@Vstyleentry@@@@QAE?AV?$QMapIterator@VQString@@Vstyleentry@@@@XZ$0 100120e0 f   complexInstance.obj
 0001:000110e0       __unwindfunclet$??0?$QMap@VQString@@VdeviceTypeInfo@@@@QAE@XZ$0 100120e0 f   complexInstance.obj
 0001:000110e0       __unwindfunclet$??0?$QMap@VQString@@Vstyleentry@@@@QAE@XZ$0 100120e0 f   complexInstance.obj
 0001:000110e0       __unwindfunclet$?find@?$QMap@VQString@@VdeviceTypeInfo@@@@QAE?AV?$QMapIterator@VQString@@VdeviceTypeInfo@@@@ABVQString@@@Z$0 100120e0 f   complexInstance.obj
 0001:000110e0       __unwindfunclet$?detachInternal@?$QMap@VQString@@VinstanceInfo@@@@AAEXXZ$0 100120e0 f   complexInstance.obj
 0001:000110e0       __unwindfunclet$??0complexInstance@@QAE@XZ$1 100120e0 f   complexInstance.obj
 0001:000110e0       __unwindfunclet$??0complexType@@QAE@XZ$1 100120e0 f   complexInstance.obj
 0001:000110e0       __unwindfunclet$??0deviceTypeInfo@@QAE@XZ$1 100120e0 f   complexInstance.obj
 0001:000110e0       __unwindfunclet$?find@?$QMap@VQString@@VcomplexInstance@@@@QAE?AV?$QMapIterator@VQString@@VcomplexInstance@@@@ABVQString@@@Z$0 100120e0 f   complexInstance.obj
 0001:000110e0       __unwindfunclet$??0?$QMap@VQString@@VinstanceInfo@@@@QAE@XZ$0 100120e0 f   complexInstance.obj
 0001:000110e0       __unwindfunclet$?end@?$QMap@VQString@@VparamInfo@@@@QAE?AV?$QMapIterator@VQString@@VparamInfo@@@@XZ$0 100120e0 f   complexInstance.obj
 0001:000110e0       __unwindfunclet$?detachInternal@?$QMap@VQString@@VparamInfo@@@@AAEXXZ$0 100120e0 f   complexInstance.obj
 0001:000110e0       __unwindfunclet$??0?$QMap@VQString@@VcomplexParam@@@@QAE@XZ$0 100120e0 f   complexInstance.obj
 0001:000110e0       __unwindfunclet$?end@?$QMap@VQString@@VinstanceInfo@@@@QAE?AV?$QMapIterator@VQString@@VinstanceInfo@@@@XZ$0 100120e0 f   complexInstance.obj
 0001:000110e0       __unwindfunclet$?begin@?$QMap@VQString@@VcomplexParam@@@@QAE?AV?$QMapIterator@VQString@@VcomplexParam@@@@XZ$0 100120e0 f   complexInstance.obj
 0001:000110e0       __unwindfunclet$?begin@?$QMap@VQString@@VinstanceInfo@@@@QAE?AV?$QMapIterator@VQString@@VinstanceInfo@@@@XZ$0 100120e0 f   complexInstance.obj
 0001:000110e0       __unwindfunclet$?end@?$QMap@VQString@@VcomplexParam@@@@QAE?AV?$QMapIterator@VQString@@VcomplexParam@@@@XZ$0 100120e0 f   complexInstance.obj
 0001:000110e0       __unwindfunclet$?detachInternal@?$QMap@VQString@@VcomplexType@@@@AAEXXZ$0 100120e0 f   complexInstance.obj
 0001:000110eb       __ehhandler$?find@?$QMap@VQString@@VcomplexInstance@@@@QAE?AV?$QMapIterator@VQString@@VcomplexInstance@@@@ABVQString@@@Z 100120eb f   complexInstance.obj
 0001:000110eb       __ehhandler$?find@?$QMap@VQString@@VdeviceTypeInfo@@@@QAE?AV?$QMapIterator@VQString@@VdeviceTypeInfo@@@@ABVQString@@@Z 100120eb f   complexInstance.obj
 0001:000110eb       __ehhandler$?end@?$QMap@VQString@@VcomplexInstance@@@@QAE?AV?$QMapIterator@VQString@@VcomplexInstance@@@@XZ 100120eb f   complexInstance.obj
 0001:000110eb       __ehhandler$?begin@?$QMap@VQString@@VcomplexInstance@@@@QAE?AV?$QMapIterator@VQString@@VcomplexInstance@@@@XZ 100120eb f   complexInstance.obj
 0001:000110eb       __ehhandler$??0?$QMap@VQString@@VcomplexInstance@@@@QAE@XZ 100120eb f   complexInstance.obj
 0001:000110eb       __ehhandler$?detach@?$QMap@VQString@@VcomplexInstance@@@@IAEXXZ 100120eb f   complexInstance.obj
 0001:000110eb       __ehhandler$?detachInternal@?$QMap@VQString@@VcomplexParam@@@@AAEXXZ 100120eb f   complexInstance.obj
 0001:000110eb       __ehhandler$?detachInternal@?$QMap@VQString@@VcomplexInstance@@@@AAEXXZ 100120eb f   complexInstance.obj
 0001:000110eb       __ehhandler$?detach@?$QMap@VQString@@VcomplexParam@@@@IAEXXZ 100120eb f   complexInstance.obj
 0001:000110eb       __ehhandler$??0?$QMap@VQString@@VinstanceInfo@@@@QAE@XZ 100120eb f   complexInstance.obj
 0001:000110eb       __ehhandler$?find@?$QMap@VQString@@VcomplexParam@@@@QAE?AV?$QMapIterator@VQString@@VcomplexParam@@@@ABVQString@@@Z 100120eb f   complexInstance.obj
 0001:000110eb       __ehhandler$?begin@?$QMap@VQString@@VinstanceInfo@@@@QAE?AV?$QMapIterator@VQString@@VinstanceInfo@@@@XZ 100120eb f   complexInstance.obj
 0001:000110eb       __ehhandler$?end@?$QMap@VQString@@VcomplexParam@@@@QAE?AV?$QMapIterator@VQString@@VcomplexParam@@@@XZ 100120eb f   complexInstance.obj
 0001:000110eb       __ehhandler$?end@?$QMap@VQString@@VinstanceInfo@@@@QAE?AV?$QMapIterator@VQString@@VinstanceInfo@@@@XZ 100120eb f   complexInstance.obj
 0001:000110eb       __ehhandler$?begin@?$QMap@VQString@@VcomplexParam@@@@QAE?AV?$QMapIterator@VQString@@VcomplexParam@@@@XZ 100120eb f   complexInstance.obj
 0001:000110eb       __ehhandler$??0?$QMap@VQString@@VcomplexParam@@@@QAE@XZ 100120eb f   complexInstance.obj
 0001:000110eb       __ehhandler$?detachInternal@?$QMap@VQString@@VparamInfo@@@@AAEXXZ 100120eb f   complexInstance.obj
 0001:000110eb       __ehhandler$?detach@?$QMap@VQString@@VparamInfo@@@@IAEXXZ 100120eb f   complexInstance.obj
 0001:000110eb       __ehhandler$?find@?$QMap@VQString@@VparamInfo@@@@QAE?AV?$QMapIterator@VQString@@VparamInfo@@@@ABVQString@@@Z 100120eb f   complexInstance.obj
 0001:000110eb       __ehhandler$?detach@?$QMap@VQString@@VdeviceTypeInfo@@@@IAEXXZ 100120eb f   complexInstance.obj
 0001:000110eb       __ehhandler$?detachInternal@?$QMap@VQString@@VdeviceTypeInfo@@@@AAEXXZ 100120eb f   complexInstance.obj
 0001:000110eb       __ehhandler$?end@?$QMap@VQString@@VparamInfo@@@@QAE?AV?$QMapIterator@VQString@@VparamInfo@@@@XZ 100120eb f   complexInstance.obj
 0001:000110eb       __ehhandler$?begin@?$QMap@VQString@@VparamInfo@@@@QAE?AV?$QMapIterator@VQString@@VparamInfo@@@@XZ 100120eb f   complexInstance.obj
 0001:000110eb       __ehhandler$??0?$QMap@VQString@@VcomplexType@@@@QAE@XZ 100120eb f   complexInstance.obj
 0001:000110eb       __ehhandler$?begin@?$QMap@VQString@@VcomplexType@@@@QAE?AV?$QMapIterator@VQString@@VcomplexType@@@@XZ 100120eb f   complexInstance.obj
 0001:000110eb       __ehhandler$?end@?$QMap@VQString@@VcomplexType@@@@QAE?AV?$QMapIterator@VQString@@VcomplexType@@@@XZ 100120eb f   complexInstance.obj
 0001:000110eb       __ehhandler$?end@?$QMap@VQString@@VdeviceTypeInfo@@@@QAE?AV?$QMapIterator@VQString@@VdeviceTypeInfo@@@@XZ 100120eb f   complexInstance.obj
 0001:000110eb       __ehhandler$?find@?$QMap@VQString@@VcomplexType@@@@QAE?AV?$QMapIterator@VQString@@VcomplexType@@@@ABVQString@@@Z 100120eb f   complexInstance.obj
 0001:000110eb       __ehhandler$?begin@?$QMap@VQString@@VdeviceTypeInfo@@@@QAE?AV?$QMapIterator@VQString@@VdeviceTypeInfo@@@@XZ 100120eb f   complexInstance.obj
 0001:000110eb       __ehhandler$?find@?$QMap@VQString@@VinstanceInfo@@@@QAE?AV?$QMapIterator@VQString@@VinstanceInfo@@@@ABVQString@@@Z 100120eb f   complexInstance.obj
 0001:000110eb       __ehhandler$?detach@?$QMap@VQString@@VcomplexType@@@@IAEXXZ 100120eb f   complexInstance.obj
 0001:000110eb       __ehhandler$?detachInternal@?$QMap@VQString@@VcomplexType@@@@AAEXXZ 100120eb f   complexInstance.obj
 0001:000110eb       __ehhandler$?detachInternal@?$QMap@VQString@@Vstyleentry@@@@AAEXXZ 100120eb f   complexInstance.obj
 0001:000110eb       __ehhandler$?detach@?$QMap@VQString@@Vstyleentry@@@@IAEXXZ 100120eb f   complexInstance.obj
 0001:000110eb       __ehhandler$?remove@?$QMap@VQString@@Vstyleentry@@@@QAEXV?$QMapIterator@VQString@@Vstyleentry@@@@@Z 100120eb f   complexInstance.obj
 0001:000110eb       __ehhandler$?find@?$QMap@VQString@@Vstyleentry@@@@QAE?AV?$QMapIterator@VQString@@Vstyleentry@@@@ABVQString@@@Z 100120eb f   complexInstance.obj
 0001:000110eb       __ehhandler$?erase@?$QMap@VQString@@Vstyleentry@@@@QAEXV?$QMapIterator@VQString@@Vstyleentry@@@@@Z 100120eb f   complexInstance.obj
 0001:000110eb       __ehhandler$?end@?$QMap@VQString@@Vstyleentry@@@@QAE?AV?$QMapIterator@VQString@@Vstyleentry@@@@XZ 100120eb f   complexInstance.obj
 0001:000110eb       __ehhandler$?begin@?$QMap@VQString@@Vstyleentry@@@@QAE?AV?$QMapIterator@VQString@@Vstyleentry@@@@XZ 100120eb f   complexInstance.obj
 0001:000110eb       __ehhandler$??0?$QMap@VQString@@VdeviceTypeInfo@@@@QAE@XZ 100120eb f   complexInstance.obj
 0001:000110eb       __ehhandler$??0?$QMap@VQString@@Vstyleentry@@@@QAE@XZ 100120eb f   complexInstance.obj
 0001:000110eb       __ehhandler$??0complexInstance@@QAE@XZ 100120eb f   complexInstance.obj
 0001:000110eb       __ehhandler$?detachInternal@?$QMap@VQString@@VinstanceInfo@@@@AAEXXZ 100120eb f   complexInstance.obj
 0001:000110eb       __ehhandler$??0complexType@@QAE@XZ 100120eb f   complexInstance.obj
 0001:000110eb       __ehhandler$??0deviceTypeInfo@@QAE@XZ 100120eb f   complexInstance.obj
 0001:000110eb       __ehhandler$?detach@?$QMap@VQString@@VinstanceInfo@@@@IAEXXZ 100120eb f   complexInstance.obj
 0001:000110eb       __ehhandler$??0?$QMap@VQString@@VparamInfo@@@@QAE@XZ 100120eb f   complexInstance.obj
 0001:00011110       __unwindfunclet$??0complexParam@@QAE@XZ$0 10012110 f   complexParamInfo.obj
 0001:00011110       __unwindfunclet$??1complexParam@@UAE@XZ$0 10012110 f   complexParamInfo.obj
 0001:0001111c       __ehhandler$??1complexParam@@UAE@XZ 1001211c f   complexParamInfo.obj
 0001:0001111c       __ehhandler$??0complexParam@@QAE@XZ 1001211c f   complexParamInfo.obj
 0001:00011140       __unwindfunclet$??1instanceInfo@@UAE@XZ$0 10012140 f   instanceInfo.obj
 0001:00011140       __unwindfunclet$??0instanceInfo@@QAE@XZ$0 10012140 f   instanceInfo.obj
 0001:0001114c       __unwindfunclet$??0instanceInfo@@QAE@XZ$1 1001214c f   instanceInfo.obj
 0001:0001114c       __unwindfunclet$??1instanceInfo@@UAE@XZ$1 1001214c f   instanceInfo.obj
 0001:00011158       __unwindfunclet$??0instanceInfo@@QAE@XZ$2 10012158 f   instanceInfo.obj
 0001:00011158       __unwindfunclet$??1instanceInfo@@UAE@XZ$2 10012158 f   instanceInfo.obj
 0001:00011164       __unwindfunclet$??0instanceInfo@@QAE@XZ$3 10012164 f   instanceInfo.obj
 0001:00011164       __unwindfunclet$??1instanceInfo@@UAE@XZ$3 10012164 f   instanceInfo.obj
 0001:00011170       __ehhandler$??0instanceInfo@@QAE@XZ 10012170 f   instanceInfo.obj
 0001:00011170       __ehhandler$??1instanceInfo@@UAE@XZ 10012170 f   instanceInfo.obj
 0001:00011190       ??__F?_Generic_object@?$_Error_objects@H@std@@2V_Generic_error_category@2@A@@YAXXZ 10012190 f   bncs_instance_lookup.obj
 0001:000111a0       ??__F?_Iostream_object@?$_Error_objects@H@std@@2V_Iostream_error_category@2@A@@YAXXZ 100121a0 f   bncs_instance_lookup.obj
 0001:000111b0       ??__F?_System_object@?$_Error_objects@H@std@@2V_System_error_category@2@A@@YAXXZ 100121b0 f   bncs_instance_lookup.obj
 0001:000111c0       ??__F?complexTypes@bncs_instance_lookup@@2V?$QMap@VQString@@VcomplexType@@@@A@@YAXXZ 100121c0 f   bncs_instance_lookup.obj
 0001:000111f0       ??__F?deviceTypes@bncs_instance_lookup@@2V?$QMap@VQString@@VdeviceTypeInfo@@@@A@@YAXXZ 100121f0 f   bncs_instance_lookup.obj
 0001:00011220       ??__F?instances@bncs_instance_lookup@@2V?$QMap@VQString@@VinstanceInfo@@@@A@@YAXXZ 10012220 f   bncs_instance_lookup.obj
 0001:00011250       ??__F?m_sFilename@bncs_stylesheet@@0VQString@@A@@YAXXZ 10012250 f   bncs_stylesheet.obj
 0001:00011270       ??__F?styles@bncs_stylesheet@@0V?$QMap@VQString@@Vstyleentry@@@@A@@YAXXZ 10012270 f   bncs_stylesheet.obj
 0002:00000218       ?instances$initializer$@bncs_instance_lookup@@2P6AXXZA 10013218     bncs_instance_lookup.obj
 0002:0000021c       ?deviceTypes$initializer$@bncs_instance_lookup@@2P6AXXZA 1001321c     bncs_instance_lookup.obj
 0002:00000220       ?complexTypes$initializer$@bncs_instance_lookup@@2P6AXXZA 10013220     bncs_instance_lookup.obj
 0002:00000224       ?_Generic_object$initializer$@?$_Error_objects@H@std@@2P6AXXZA 10013224     bncs_instance_lookup.obj
 0002:00000228       ?_Iostream_object$initializer$@?$_Error_objects@H@std@@2P6AXXZA 10013228     bncs_instance_lookup.obj
 0002:0000022c       ?_System_object$initializer$@?$_Error_objects@H@std@@2P6AXXZA 1001322c     bncs_instance_lookup.obj
 0002:00000230       ?styles$initializer$@bncs_stylesheet@@0P6AXXZA 10013230     bncs_stylesheet.obj
 0002:00000234       ?m_sFilename$initializer$@bncs_stylesheet@@0P6AXXZA 10013234     bncs_stylesheet.obj
 0002:00000240       _pcinit                    10013240     MSVCRT:crtdll.obj
 0002:00000244       _pinit                     10013244     MSVCRT:atonexit.obj
 0002:00000b9c       _GS_ExceptionPointers      10013b9c     MSVCRT:gs_report.obj
 0002:000013d0       __unwindtable$??0instanceInfo@@QAE@ABV0@@Z 100143d0     bncs_instance_lookup.obj
 0002:000013e8       __ehfuncinfo$??0instanceInfo@@QAE@ABV0@@Z 100143e8     bncs_instance_lookup.obj
 0002:0000140c       __unwindtable$?replace@?$QMap@VQString@@VparamInfo@@@@QAE?AV?$QMapIterator@VQString@@VparamInfo@@@@ABVQString@@ABVparamInfo@@@Z 1001440c     bncs_instance_lookup.obj
 0002:00001414       __ehfuncinfo$?replace@?$QMap@VQString@@VparamInfo@@@@QAE?AV?$QMapIterator@VQString@@VparamInfo@@@@ABVQString@@ABVparamInfo@@@Z 10014414     bncs_instance_lookup.obj
 0002:00001438       __unwindtable$?remove@?$QMap@VQString@@VparamInfo@@@@QAEXV?$QMapIterator@VQString@@VparamInfo@@@@@Z 10014438     bncs_instance_lookup.obj
 0002:00001438       __unwindtable$?erase@?$QMap@VQString@@VparamInfo@@@@QAEXV?$QMapIterator@VQString@@VparamInfo@@@@@Z 10014438     bncs_instance_lookup.obj
 0002:00001448       __ehfuncinfo$?erase@?$QMap@VQString@@VparamInfo@@@@QAEXV?$QMapIterator@VQString@@VparamInfo@@@@@Z 10014448     bncs_instance_lookup.obj
 0002:00001448       __ehfuncinfo$?remove@?$QMap@VQString@@VparamInfo@@@@QAEXV?$QMapIterator@VQString@@VparamInfo@@@@@Z 10014448     bncs_instance_lookup.obj
 0002:0000146c       __unwindtable$??A?$QMap@VQString@@VparamInfo@@@@QAEAAVparamInfo@@ABVQString@@@Z 1001446c     bncs_instance_lookup.obj
 0002:00001484       __ehfuncinfo$??A?$QMap@VQString@@VparamInfo@@@@QAEAAVparamInfo@@ABVQString@@@Z 10014484     bncs_instance_lookup.obj
 0002:000014a8       __unwindtable$?remove@?$QMap@VQString@@VparamInfo@@@@QAEXABVQString@@@Z 100144a8     bncs_instance_lookup.obj
 0002:000014a8       __unwindtable$?erase@?$QMap@VQString@@VparamInfo@@@@QAEXABVQString@@@Z 100144a8     bncs_instance_lookup.obj
 0002:000014c0       __ehfuncinfo$?erase@?$QMap@VQString@@VparamInfo@@@@QAEXABVQString@@@Z 100144c0     bncs_instance_lookup.obj
 0002:000014c0       __ehfuncinfo$?remove@?$QMap@VQString@@VparamInfo@@@@QAEXABVQString@@@Z 100144c0     bncs_instance_lookup.obj
 0002:000014e4       __unwindtable$??0complexParam@@QAE@ABV0@@Z 100144e4     bncs_instance_lookup.obj
 0002:000014ec       __ehfuncinfo$??0complexParam@@QAE@ABV0@@Z 100144ec     bncs_instance_lookup.obj
 0002:00001510       __unwindtable$?replace@?$QMap@VQString@@VcomplexParam@@@@QAE?AV?$QMapIterator@VQString@@VcomplexParam@@@@ABVQString@@ABVcomplexParam@@@Z 10014510     bncs_instance_lookup.obj
 0002:00001510       __unwindtable$?replace@?$QMap@VQString@@VcomplexInstance@@@@QAE?AV?$QMapIterator@VQString@@VcomplexInstance@@@@ABVQString@@ABVcomplexInstance@@@Z 10014510     bncs_instance_lookup.obj
 0002:00001510       __unwindtable$?replace@?$QMap@VQString@@VcomplexType@@@@QAE?AV?$QMapIterator@VQString@@VcomplexType@@@@ABVQString@@ABVcomplexType@@@Z 10014510     bncs_instance_lookup.obj
 0002:00001518       __ehfuncinfo$?replace@?$QMap@VQString@@VcomplexType@@@@QAE?AV?$QMapIterator@VQString@@VcomplexType@@@@ABVQString@@ABVcomplexType@@@Z 10014518     bncs_instance_lookup.obj
 0002:00001518       __ehfuncinfo$?replace@?$QMap@VQString@@VcomplexParam@@@@QAE?AV?$QMapIterator@VQString@@VcomplexParam@@@@ABVQString@@ABVcomplexParam@@@Z 10014518     bncs_instance_lookup.obj
 0002:00001518       __ehfuncinfo$?replace@?$QMap@VQString@@VcomplexInstance@@@@QAE?AV?$QMapIterator@VQString@@VcomplexInstance@@@@ABVQString@@ABVcomplexInstance@@@Z 10014518     bncs_instance_lookup.obj
 0002:0000153c       __unwindtable$?insert@?$QMap@VQString@@VparamInfo@@@@QAE?AU?$QPair@V?$QMapIterator@VQString@@VparamInfo@@@@_N@@ABU?$QPair@$$CBVQString@@VparamInfo@@@@@Z 1001453c     bncs_instance_lookup.obj
 0002:0000153c       __unwindtable$?insert@?$QMap@VQString@@VcomplexInstance@@@@QAE?AU?$QPair@V?$QMapIterator@VQString@@VcomplexInstance@@@@_N@@ABU?$QPair@$$CBVQString@@VcomplexInstance@@@@@Z 1001453c     bncs_instance_lookup.obj
 0002:0000153c       __unwindtable$?insert@?$QMap@VQString@@Vstyleentry@@@@QAE?AV?$QMapIterator@VQString@@Vstyleentry@@@@ABVQString@@ABVstyleentry@@_N@Z 1001453c     bncs_instance_lookup.obj
 0002:0000153c       __unwindtable$?insert@?$QMap@VQString@@VcomplexParam@@@@QAE?AV?$QMapIterator@VQString@@VcomplexParam@@@@ABVQString@@ABVcomplexParam@@_N@Z 1001453c     bncs_instance_lookup.obj
 0002:0000153c       __unwindtable$?insert@?$QMap@VQString@@VcomplexType@@@@QAE?AV?$QMapIterator@VQString@@VcomplexType@@@@ABVQString@@ABVcomplexType@@_N@Z 1001453c     bncs_instance_lookup.obj
 0002:0000153c       __unwindtable$?insert@?$QMapPrivate@VQString@@Vstyleentry@@@@QAE?AV?$QMapIterator@VQString@@Vstyleentry@@@@PAUQMapNodeBase@@0ABVQString@@@Z 1001453c     bncs_instance_lookup.obj
 0002:0000153c       __unwindtable$?insert@?$QMap@VQString@@VcomplexType@@@@QAE?AU?$QPair@V?$QMapIterator@VQString@@VcomplexType@@@@_N@@ABU?$QPair@$$CBVQString@@VcomplexType@@@@@Z 1001453c     bncs_instance_lookup.obj
 0002:0000153c       __unwindtable$?insert@?$QMap@VQString@@VcomplexInstance@@@@QAE?AV?$QMapIterator@VQString@@VcomplexInstance@@@@ABVQString@@ABVcomplexInstance@@_N@Z 1001453c     bncs_instance_lookup.obj
 0002:0000153c       __unwindtable$?insert@?$QMap@VQString@@VcomplexParam@@@@QAE?AU?$QPair@V?$QMapIterator@VQString@@VcomplexParam@@@@_N@@ABU?$QPair@$$CBVQString@@VcomplexParam@@@@@Z 1001453c     bncs_instance_lookup.obj
 0002:0000153c       __unwindtable$?insert@?$QMap@VQString@@VparamInfo@@@@QAE?AV?$QMapIterator@VQString@@VparamInfo@@@@ABVQString@@ABVparamInfo@@_N@Z 1001453c     bncs_instance_lookup.obj
 0002:0000153c       __unwindtable$?insert@?$QMap@VQString@@VdeviceTypeInfo@@@@QAE?AV?$QMapIterator@VQString@@VdeviceTypeInfo@@@@ABVQString@@ABVdeviceTypeInfo@@_N@Z 1001453c     bncs_instance_lookup.obj
 0002:0000153c       __unwindtable$?insert@?$QMap@VQString@@VinstanceInfo@@@@QAE?AU?$QPair@V?$QMapIterator@VQString@@VinstanceInfo@@@@_N@@ABU?$QPair@$$CBVQString@@VinstanceInfo@@@@@Z 1001453c     bncs_instance_lookup.obj
 0002:0000153c       __unwindtable$?insert@?$QMap@VQString@@VdeviceTypeInfo@@@@QAE?AU?$QPair@V?$QMapIterator@VQString@@VdeviceTypeInfo@@@@_N@@ABU?$QPair@$$CBVQString@@VdeviceTypeInfo@@@@@Z 1001453c     bncs_instance_lookup.obj
 0002:0000153c       __unwindtable$?insert@?$QMap@VQString@@VinstanceInfo@@@@QAE?AV?$QMapIterator@VQString@@VinstanceInfo@@@@ABVQString@@ABVinstanceInfo@@_N@Z 1001453c     bncs_instance_lookup.obj
 0002:00001544       __ehfuncinfo$?insert@?$QMap@VQString@@VinstanceInfo@@@@QAE?AV?$QMapIterator@VQString@@VinstanceInfo@@@@ABVQString@@ABVinstanceInfo@@_N@Z 10014544     bncs_instance_lookup.obj
 0002:00001544       __ehfuncinfo$?insert@?$QMap@VQString@@VparamInfo@@@@QAE?AV?$QMapIterator@VQString@@VparamInfo@@@@ABVQString@@ABVparamInfo@@_N@Z 10014544     bncs_instance_lookup.obj
 0002:00001544       __ehfuncinfo$?insert@?$QMap@VQString@@VcomplexInstance@@@@QAE?AV?$QMapIterator@VQString@@VcomplexInstance@@@@ABVQString@@ABVcomplexInstance@@_N@Z 10014544     bncs_instance_lookup.obj
 0002:00001544       __ehfuncinfo$?insert@?$QMap@VQString@@VcomplexParam@@@@QAE?AU?$QPair@V?$QMapIterator@VQString@@VcomplexParam@@@@_N@@ABU?$QPair@$$CBVQString@@VcomplexParam@@@@@Z 10014544     bncs_instance_lookup.obj
 0002:00001544       __ehfuncinfo$?insert@?$QMap@VQString@@VcomplexType@@@@QAE?AU?$QPair@V?$QMapIterator@VQString@@VcomplexType@@@@_N@@ABU?$QPair@$$CBVQString@@VcomplexType@@@@@Z 10014544     bncs_instance_lookup.obj
 0002:00001544       __ehfuncinfo$?insert@?$QMap@VQString@@VcomplexParam@@@@QAE?AV?$QMapIterator@VQString@@VcomplexParam@@@@ABVQString@@ABVcomplexParam@@_N@Z 10014544     bncs_instance_lookup.obj
 0002:00001544       __ehfuncinfo$?insert@?$QMapPrivate@VQString@@Vstyleentry@@@@QAE?AV?$QMapIterator@VQString@@Vstyleentry@@@@PAUQMapNodeBase@@0ABVQString@@@Z 10014544     bncs_instance_lookup.obj
 0002:00001544       __ehfuncinfo$?insert@?$QMap@VQString@@Vstyleentry@@@@QAE?AV?$QMapIterator@VQString@@Vstyleentry@@@@ABVQString@@ABVstyleentry@@_N@Z 10014544     bncs_instance_lookup.obj
 0002:00001544       __ehfuncinfo$?insert@?$QMap@VQString@@VdeviceTypeInfo@@@@QAE?AU?$QPair@V?$QMapIterator@VQString@@VdeviceTypeInfo@@@@_N@@ABU?$QPair@$$CBVQString@@VdeviceTypeInfo@@@@@Z 10014544     bncs_instance_lookup.obj
 0002:00001544       __ehfuncinfo$?insert@?$QMap@VQString@@VdeviceTypeInfo@@@@QAE?AV?$QMapIterator@VQString@@VdeviceTypeInfo@@@@ABVQString@@ABVdeviceTypeInfo@@_N@Z 10014544     bncs_instance_lookup.obj
 0002:00001544       __ehfuncinfo$?insert@?$QMap@VQString@@VcomplexType@@@@QAE?AV?$QMapIterator@VQString@@VcomplexType@@@@ABVQString@@ABVcomplexType@@_N@Z 10014544     bncs_instance_lookup.obj
 0002:00001544       __ehfuncinfo$?insert@?$QMap@VQString@@VinstanceInfo@@@@QAE?AU?$QPair@V?$QMapIterator@VQString@@VinstanceInfo@@@@_N@@ABU?$QPair@$$CBVQString@@VinstanceInfo@@@@@Z 10014544     bncs_instance_lookup.obj
 0002:00001544       __ehfuncinfo$?insert@?$QMap@VQString@@VcomplexInstance@@@@QAE?AU?$QPair@V?$QMapIterator@VQString@@VcomplexInstance@@@@_N@@ABU?$QPair@$$CBVQString@@VcomplexInstance@@@@@Z 10014544     bncs_instance_lookup.obj
 0002:00001544       __ehfuncinfo$?insert@?$QMap@VQString@@VparamInfo@@@@QAE?AU?$QPair@V?$QMapIterator@VQString@@VparamInfo@@@@_N@@ABU?$QPair@$$CBVQString@@VparamInfo@@@@@Z 10014544     bncs_instance_lookup.obj
 0002:00001568       __unwindtable$??A?$QMap@VQString@@VcomplexParam@@@@QAEAAVcomplexParam@@ABVQString@@@Z 10014568     bncs_instance_lookup.obj
 0002:00001578       __ehfuncinfo$??A?$QMap@VQString@@VcomplexParam@@@@QAEAAVcomplexParam@@ABVQString@@@Z 10014578     bncs_instance_lookup.obj
 0002:0000159c       __unwindtable$?erase@?$QMap@VQString@@VcomplexParam@@@@QAEXV?$QMapIterator@VQString@@VcomplexParam@@@@@Z 1001459c     bncs_instance_lookup.obj
 0002:0000159c       __unwindtable$?remove@?$QMap@VQString@@VcomplexParam@@@@QAEXV?$QMapIterator@VQString@@VcomplexParam@@@@@Z 1001459c     bncs_instance_lookup.obj
 0002:000015ac       __ehfuncinfo$?erase@?$QMap@VQString@@VcomplexParam@@@@QAEXV?$QMapIterator@VQString@@VcomplexParam@@@@@Z 100145ac     bncs_instance_lookup.obj
 0002:000015ac       __ehfuncinfo$?remove@?$QMap@VQString@@VcomplexParam@@@@QAEXV?$QMapIterator@VQString@@VcomplexParam@@@@@Z 100145ac     bncs_instance_lookup.obj
 0002:000015d0       __unwindtable$?erase@?$QMap@VQString@@VcomplexParam@@@@QAEXABVQString@@@Z 100145d0     bncs_instance_lookup.obj
 0002:000015d0       __unwindtable$?remove@?$QMap@VQString@@VcomplexParam@@@@QAEXABVQString@@@Z 100145d0     bncs_instance_lookup.obj
 0002:000015e8       __ehfuncinfo$?remove@?$QMap@VQString@@VcomplexParam@@@@QAEXABVQString@@@Z 100145e8     bncs_instance_lookup.obj
 0002:000015e8       __ehfuncinfo$?erase@?$QMap@VQString@@VcomplexParam@@@@QAEXABVQString@@@Z 100145e8     bncs_instance_lookup.obj
 0002:0000160c       __unwindtable$?erase@?$QMap@VQString@@VcomplexInstance@@@@QAEXV?$QMapIterator@VQString@@VcomplexInstance@@@@@Z 1001460c     bncs_instance_lookup.obj
 0002:0000160c       __unwindtable$?remove@?$QMap@VQString@@VcomplexInstance@@@@QAEXV?$QMapIterator@VQString@@VcomplexInstance@@@@@Z 1001460c     bncs_instance_lookup.obj
 0002:0000161c       __ehfuncinfo$?remove@?$QMap@VQString@@VcomplexInstance@@@@QAEXV?$QMapIterator@VQString@@VcomplexInstance@@@@@Z 1001461c     bncs_instance_lookup.obj
 0002:0000161c       __ehfuncinfo$?erase@?$QMap@VQString@@VcomplexInstance@@@@QAEXV?$QMapIterator@VQString@@VcomplexInstance@@@@@Z 1001461c     bncs_instance_lookup.obj
 0002:00001640       __unwindtable$??A?$QMap@VQString@@VcomplexInstance@@@@QAEAAVcomplexInstance@@ABVQString@@@Z 10014640     bncs_instance_lookup.obj
 0002:00001650       __ehfuncinfo$??A?$QMap@VQString@@VcomplexInstance@@@@QAEAAVcomplexInstance@@ABVQString@@@Z 10014650     bncs_instance_lookup.obj
 0002:00001674       __unwindtable$?erase@?$QMap@VQString@@VcomplexInstance@@@@QAEXABVQString@@@Z 10014674     bncs_instance_lookup.obj
 0002:00001674       __unwindtable$?remove@?$QMap@VQString@@VcomplexInstance@@@@QAEXABVQString@@@Z 10014674     bncs_instance_lookup.obj
 0002:0000168c       __ehfuncinfo$?erase@?$QMap@VQString@@VcomplexInstance@@@@QAEXABVQString@@@Z 1001468c     bncs_instance_lookup.obj
 0002:0000168c       __ehfuncinfo$?remove@?$QMap@VQString@@VcomplexInstance@@@@QAEXABVQString@@@Z 1001468c     bncs_instance_lookup.obj
 0002:000016b0       __unwindtable$?remove@?$QMap@VQString@@VinstanceInfo@@@@QAEXV?$QMapIterator@VQString@@VinstanceInfo@@@@@Z 100146b0     bncs_instance_lookup.obj
 0002:000016b0       __unwindtable$?erase@?$QMap@VQString@@VinstanceInfo@@@@QAEXV?$QMapIterator@VQString@@VinstanceInfo@@@@@Z 100146b0     bncs_instance_lookup.obj
 0002:000016c0       __ehfuncinfo$?erase@?$QMap@VQString@@VinstanceInfo@@@@QAEXV?$QMapIterator@VQString@@VinstanceInfo@@@@@Z 100146c0     bncs_instance_lookup.obj
 0002:000016c0       __ehfuncinfo$?remove@?$QMap@VQString@@VinstanceInfo@@@@QAEXV?$QMapIterator@VQString@@VinstanceInfo@@@@@Z 100146c0     bncs_instance_lookup.obj
 0002:000016e4       __unwindtable$??A?$QMap@VQString@@VinstanceInfo@@@@QAEAAVinstanceInfo@@ABVQString@@@Z 100146e4     bncs_instance_lookup.obj
 0002:000016f4       __ehfuncinfo$??A?$QMap@VQString@@VinstanceInfo@@@@QAEAAVinstanceInfo@@ABVQString@@@Z 100146f4     bncs_instance_lookup.obj
 0002:00001718       __unwindtable$?keys@?$QMap@VQString@@Vstyleentry@@@@QBE?AV?$QValueList@VQString@@@@XZ 10014718     bncs_instance_lookup.obj
 0002:00001718       __unwindtable$?keys@?$QMap@VQString@@VdeviceTypeInfo@@@@QBE?AV?$QValueList@VQString@@@@XZ 10014718     bncs_instance_lookup.obj
 0002:00001718       __unwindtable$?keys@?$QMap@VQString@@VcomplexParam@@@@QBE?AV?$QValueList@VQString@@@@XZ 10014718     bncs_instance_lookup.obj
 0002:00001718       __unwindtable$?keys@?$QMap@VQString@@VparamInfo@@@@QBE?AV?$QValueList@VQString@@@@XZ 10014718     bncs_instance_lookup.obj
 0002:00001718       __unwindtable$?keys@?$QMap@VQString@@VcomplexType@@@@QBE?AV?$QValueList@VQString@@@@XZ 10014718     bncs_instance_lookup.obj
 0002:00001718       __unwindtable$?keys@?$QMap@VQString@@VcomplexInstance@@@@QBE?AV?$QValueList@VQString@@@@XZ 10014718     bncs_instance_lookup.obj
 0002:00001718       __unwindtable$?keys@?$QMap@VQString@@VinstanceInfo@@@@QBE?AV?$QValueList@VQString@@@@XZ 10014718     bncs_instance_lookup.obj
 0002:00001720       __ehfuncinfo$?keys@?$QMap@VQString@@Vstyleentry@@@@QBE?AV?$QValueList@VQString@@@@XZ 10014720     bncs_instance_lookup.obj
 0002:00001720       __ehfuncinfo$?keys@?$QMap@VQString@@VcomplexInstance@@@@QBE?AV?$QValueList@VQString@@@@XZ 10014720     bncs_instance_lookup.obj
 0002:00001720       __ehfuncinfo$?keys@?$QMap@VQString@@VdeviceTypeInfo@@@@QBE?AV?$QValueList@VQString@@@@XZ 10014720     bncs_instance_lookup.obj
 0002:00001720       __ehfuncinfo$?keys@?$QMap@VQString@@VcomplexType@@@@QBE?AV?$QValueList@VQString@@@@XZ 10014720     bncs_instance_lookup.obj
 0002:00001720       __ehfuncinfo$?keys@?$QMap@VQString@@VcomplexParam@@@@QBE?AV?$QValueList@VQString@@@@XZ 10014720     bncs_instance_lookup.obj
 0002:00001720       __ehfuncinfo$?keys@?$QMap@VQString@@VparamInfo@@@@QBE?AV?$QValueList@VQString@@@@XZ 10014720     bncs_instance_lookup.obj
 0002:00001720       __ehfuncinfo$?keys@?$QMap@VQString@@VinstanceInfo@@@@QBE?AV?$QValueList@VQString@@@@XZ 10014720     bncs_instance_lookup.obj
 0002:00001744       __unwindtable$?erase@?$QMap@VQString@@VinstanceInfo@@@@QAEXABVQString@@@Z 10014744     bncs_instance_lookup.obj
 0002:00001744       __unwindtable$?remove@?$QMap@VQString@@VinstanceInfo@@@@QAEXABVQString@@@Z 10014744     bncs_instance_lookup.obj
 0002:0000175c       __ehfuncinfo$?remove@?$QMap@VQString@@VinstanceInfo@@@@QAEXABVQString@@@Z 1001475c     bncs_instance_lookup.obj
 0002:0000175c       __ehfuncinfo$?erase@?$QMap@VQString@@VinstanceInfo@@@@QAEXABVQString@@@Z 1001475c     bncs_instance_lookup.obj
 0002:00001780       __unwindtable$??A?$QMap@VQString@@VdeviceTypeInfo@@@@QAEAAVdeviceTypeInfo@@ABVQString@@@Z 10014780     bncs_instance_lookup.obj
 0002:00001790       __ehfuncinfo$??A?$QMap@VQString@@VdeviceTypeInfo@@@@QAEAAVdeviceTypeInfo@@ABVQString@@@Z 10014790     bncs_instance_lookup.obj
 0002:000017b4       __unwindtable$?erase@?$QMap@VQString@@VdeviceTypeInfo@@@@QAEXV?$QMapIterator@VQString@@VdeviceTypeInfo@@@@@Z 100147b4     bncs_instance_lookup.obj
 0002:000017b4       __unwindtable$?remove@?$QMap@VQString@@VdeviceTypeInfo@@@@QAEXV?$QMapIterator@VQString@@VdeviceTypeInfo@@@@@Z 100147b4     bncs_instance_lookup.obj
 0002:000017c4       __ehfuncinfo$?remove@?$QMap@VQString@@VdeviceTypeInfo@@@@QAEXV?$QMapIterator@VQString@@VdeviceTypeInfo@@@@@Z 100147c4     bncs_instance_lookup.obj
 0002:000017c4       __ehfuncinfo$?erase@?$QMap@VQString@@VdeviceTypeInfo@@@@QAEXV?$QMapIterator@VQString@@VdeviceTypeInfo@@@@@Z 100147c4     bncs_instance_lookup.obj
 0002:000017e8       __unwindtable$?remove@?$QMap@VQString@@VdeviceTypeInfo@@@@QAEXABVQString@@@Z 100147e8     bncs_instance_lookup.obj
 0002:000017e8       __unwindtable$?erase@?$QMap@VQString@@VdeviceTypeInfo@@@@QAEXABVQString@@@Z 100147e8     bncs_instance_lookup.obj
 0002:00001800       __ehfuncinfo$?erase@?$QMap@VQString@@VdeviceTypeInfo@@@@QAEXABVQString@@@Z 10014800     bncs_instance_lookup.obj
 0002:00001800       __ehfuncinfo$?remove@?$QMap@VQString@@VdeviceTypeInfo@@@@QAEXABVQString@@@Z 10014800     bncs_instance_lookup.obj
 0002:00001824       __unwindtable$?remove@?$QMap@VQString@@VcomplexType@@@@QAEXV?$QMapIterator@VQString@@VcomplexType@@@@@Z 10014824     bncs_instance_lookup.obj
 0002:00001824       __unwindtable$?erase@?$QMap@VQString@@VcomplexType@@@@QAEXV?$QMapIterator@VQString@@VcomplexType@@@@@Z 10014824     bncs_instance_lookup.obj
 0002:00001834       __ehfuncinfo$?erase@?$QMap@VQString@@VcomplexType@@@@QAEXV?$QMapIterator@VQString@@VcomplexType@@@@@Z 10014834     bncs_instance_lookup.obj
 0002:00001834       __ehfuncinfo$?remove@?$QMap@VQString@@VcomplexType@@@@QAEXV?$QMapIterator@VQString@@VcomplexType@@@@@Z 10014834     bncs_instance_lookup.obj
 0002:00001858       __unwindtable$?remove@?$QMap@VQString@@VcomplexType@@@@QAEXABVQString@@@Z 10014858     bncs_instance_lookup.obj
 0002:00001858       __unwindtable$?erase@?$QMap@VQString@@VcomplexType@@@@QAEXABVQString@@@Z 10014858     bncs_instance_lookup.obj
 0002:00001870       __ehfuncinfo$?erase@?$QMap@VQString@@VcomplexType@@@@QAEXABVQString@@@Z 10014870     bncs_instance_lookup.obj
 0002:00001870       __ehfuncinfo$?remove@?$QMap@VQString@@VcomplexType@@@@QAEXABVQString@@@Z 10014870     bncs_instance_lookup.obj
 0002:00001894       __unwindtable$??A?$QMap@VQString@@VcomplexType@@@@QAEAAVcomplexType@@ABVQString@@@Z 10014894     bncs_instance_lookup.obj
 0002:000018a4       __ehfuncinfo$??A?$QMap@VQString@@VcomplexType@@@@QAEAAVcomplexType@@ABVQString@@@Z 100148a4     bncs_instance_lookup.obj
 0002:000018c8       __unwindtable$?values@?$QMap@VQString@@VparamInfo@@@@QBE?AV?$QValueList@VparamInfo@@@@XZ 100148c8     bncs_instance_lookup.obj
 0002:000018c8       __unwindtable$?values@?$QMap@VQString@@VinstanceInfo@@@@QBE?AV?$QValueList@VinstanceInfo@@@@XZ 100148c8     bncs_instance_lookup.obj
 0002:000018c8       __unwindtable$?values@?$QMap@VQString@@VdeviceTypeInfo@@@@QBE?AV?$QValueList@VdeviceTypeInfo@@@@XZ 100148c8     bncs_instance_lookup.obj
 0002:000018c8       __unwindtable$?values@?$QMap@VQString@@VcomplexType@@@@QBE?AV?$QValueList@VcomplexType@@@@XZ 100148c8     bncs_instance_lookup.obj
 0002:000018c8       __unwindtable$?values@?$QMap@VQString@@VcomplexInstance@@@@QBE?AV?$QValueList@VcomplexInstance@@@@XZ 100148c8     bncs_instance_lookup.obj
 0002:000018c8       __unwindtable$?values@?$QMap@VQString@@Vstyleentry@@@@QBE?AV?$QValueList@Vstyleentry@@@@XZ 100148c8     bncs_instance_lookup.obj
 0002:000018c8       __unwindtable$?values@?$QMap@VQString@@VcomplexParam@@@@QBE?AV?$QValueList@VcomplexParam@@@@XZ 100148c8     bncs_instance_lookup.obj
 0002:000018d8       __ehfuncinfo$?values@?$QMap@VQString@@VparamInfo@@@@QBE?AV?$QValueList@VparamInfo@@@@XZ 100148d8     bncs_instance_lookup.obj
 0002:000018d8       __ehfuncinfo$?values@?$QMap@VQString@@VcomplexParam@@@@QBE?AV?$QValueList@VcomplexParam@@@@XZ 100148d8     bncs_instance_lookup.obj
 0002:000018d8       __ehfuncinfo$?values@?$QMap@VQString@@VinstanceInfo@@@@QBE?AV?$QValueList@VinstanceInfo@@@@XZ 100148d8     bncs_instance_lookup.obj
 0002:000018d8       __ehfuncinfo$?values@?$QMap@VQString@@VcomplexType@@@@QBE?AV?$QValueList@VcomplexType@@@@XZ 100148d8     bncs_instance_lookup.obj
 0002:000018d8       __ehfuncinfo$?values@?$QMap@VQString@@VdeviceTypeInfo@@@@QBE?AV?$QValueList@VdeviceTypeInfo@@@@XZ 100148d8     bncs_instance_lookup.obj
 0002:000018d8       __ehfuncinfo$?values@?$QMap@VQString@@VcomplexInstance@@@@QBE?AV?$QValueList@VcomplexInstance@@@@XZ 100148d8     bncs_instance_lookup.obj
 0002:000018d8       __ehfuncinfo$?values@?$QMap@VQString@@Vstyleentry@@@@QBE?AV?$QValueList@Vstyleentry@@@@XZ 100148d8     bncs_instance_lookup.obj
 0002:000018fc       __unwindtable$?lookup@bncs_instance_lookup@@SA_NABVQString@@AAV2@PAH2PAD@Z 100148fc     bncs_instance_lookup.obj
 0002:00001914       __ehfuncinfo$?lookup@bncs_instance_lookup@@SA_NABVQString@@AAV2@PAH2PAD@Z 10014914     bncs_instance_lookup.obj
 0002:00001938       __unwindtable$?lookup@bncs_instance_lookup@@SA_NABVQString@@0AAV2@PAH22PAD@Z 10014938     bncs_instance_lookup.obj
 0002:00001958       __ehfuncinfo$?lookup@bncs_instance_lookup@@SA_NABVQString@@0AAV2@PAH22PAD@Z 10014958     bncs_instance_lookup.obj
 0002:0000197c       __ehfuncinfo$?lookupComplex@bncs_instance_lookup@@SA_NABVQString@@00AAV2@PAH22PAD@Z 1001497c     bncs_instance_lookup.obj
 0002:000019a0       __unwindtable$?lookupComplex@bncs_instance_lookup@@SA_NABVQString@@00AAV2@PAH22PAD@Z 100149a0     bncs_instance_lookup.obj
 0002:000019c8       __ehfuncinfo$?lookup@bncs_instance_lookup@@SA_NABVQString@@AAV2@111AA_N@Z 100149c8     bncs_instance_lookup.obj
 0002:000019ec       __unwindtable$?lookup@bncs_instance_lookup@@SA_NABVQString@@AAV2@111AA_N@Z 100149ec     bncs_instance_lookup.obj
 0002:00001a1c       __unwindtable$?lookupComposite@bncs_instance_lookup@@SA_NABVQString@@0AAV2@@Z 10014a1c     bncs_instance_lookup.obj
 0002:00001a2c       __ehfuncinfo$?lookupComposite@bncs_instance_lookup@@SA_NABVQString@@0AAV2@@Z 10014a2c     bncs_instance_lookup.obj
 0002:00001a50       __unwindtable$?lookupComposite@bncs_instance_lookup@@SA_NABVQString@@AA_NAAV?$QMap@VQString@@V1@@@@Z 10014a50     bncs_instance_lookup.obj
 0002:00001a50       __unwindtable$?lookupType@bncs_instance_lookup@@SA_NABVQString@@AAV2@@Z 10014a50     bncs_instance_lookup.obj
 0002:00001a60       __ehfuncinfo$?lookupType@bncs_instance_lookup@@SA_NABVQString@@AAV2@@Z 10014a60     bncs_instance_lookup.obj
 0002:00001a60       __ehfuncinfo$?lookupComposite@bncs_instance_lookup@@SA_NABVQString@@AA_NAAV?$QMap@VQString@@V1@@@@Z 10014a60     bncs_instance_lookup.obj
 0002:00001a84       __unwindtable$?lookupInstanceOfType@bncs_instance_lookup@@SA_NABVQString@@AAVQStringList@@@Z 10014a84     bncs_instance_lookup.obj
 0002:00001a94       __ehfuncinfo$?lookupInstanceOfType@bncs_instance_lookup@@SA_NABVQString@@AAVQStringList@@@Z 10014a94     bncs_instance_lookup.obj
 0002:00001ab8       __ehfuncinfo$?loadInstances@bncs_instance_lookup@@SA_NXZ 10014ab8     bncs_instance_lookup.obj
 0002:00001adc       __unwindtable$?loadInstances@bncs_instance_lookup@@SA_NXZ 10014adc     bncs_instance_lookup.obj
 0002:00001ccc       __ehfuncinfo$?loadDeviceTypes@bncs_instance_lookup@@SA_NXZ 10014ccc     bncs_instance_lookup.obj
 0002:00001cf0       __unwindtable$?loadDeviceTypes@bncs_instance_lookup@@SA_NXZ 10014cf0     bncs_instance_lookup.obj
 0002:00001d58       __ehfuncinfo$?loadComplexTypes@bncs_instance_lookup@@SA_NXZ 10014d58     bncs_instance_lookup.obj
 0002:00001d7c       __unwindtable$?loadComplexTypes@bncs_instance_lookup@@SA_NXZ 10014d7c     bncs_instance_lookup.obj
 0002:00001ddc       __unwindtable$?dump@bncs_instance_lookup@@SAXXZ 10014ddc     bncs_instance_lookup.obj
 0002:00001dec       __ehfuncinfo$?dump@bncs_instance_lookup@@SAXXZ 10014dec     bncs_instance_lookup.obj
 0002:00001e10       __ehfuncinfo$?loadDeviceParams@bncs_instance_lookup@@SA_NABVQString@@AAVdeviceTypeInfo@@@Z 10014e10     bncs_instance_lookup.obj
 0002:00001e34       __unwindtable$?loadDeviceParams@bncs_instance_lookup@@SA_NABVQString@@AAVdeviceTypeInfo@@@Z 10014e34     bncs_instance_lookup.obj
 0002:00001f14       __ehfuncinfo$?loadComplexType@bncs_instance_lookup@@SA_NABVQString@@AAVcomplexType@@@Z 10014f14     bncs_instance_lookup.obj
 0002:00001f38       __unwindtable$?loadComplexType@bncs_instance_lookup@@SA_NABVQString@@AAVcomplexType@@@Z 10014f38     bncs_instance_lookup.obj
 0002:00002030       __unwindtable$?getInstanceInfo@bncs_instance_lookup@@SA_NABVQString@@PAPAVinstanceInfo@@@Z 10015030     bncs_instance_lookup.obj
 0002:00002048       __ehfuncinfo$?getInstanceInfo@bncs_instance_lookup@@SA_NABVQString@@PAPAVinstanceInfo@@@Z 10015048     bncs_instance_lookup.obj
 0002:0000206c       __catchsym$?_Copy@?$basic_string@DU?$char_traits@D@std@@V?$allocator@D@2@@std@@QAEXII@Z$5 1001506c     bncs_instance_lookup.obj
 0002:0000207c       __catchsym$?_Copy@?$basic_string@DU?$char_traits@D@std@@V?$allocator@D@2@@std@@QAEXII@Z$4 1001507c     bncs_instance_lookup.obj
 0002:0000208c       __unwindtable$?_Copy@?$basic_string@DU?$char_traits@D@std@@V?$allocator@D@2@@std@@QAEXII@Z 1001508c     bncs_instance_lookup.obj
 0002:000020ac       __ehfuncinfo$?_Copy@?$basic_string@DU?$char_traits@D@std@@V?$allocator@D@2@@std@@QAEXII@Z 100150ac     bncs_instance_lookup.obj
 0002:000020d0       __tryblocktable$?_Copy@?$basic_string@DU?$char_traits@D@std@@V?$allocator@D@2@@std@@QAEXII@Z 100150d0     bncs_instance_lookup.obj
 0002:000020f8       __unwindtable$?path@global@@SA?AVQString@@XZ 100150f8     bncs_instance_lookup.obj
 0002:00002110       __ehfuncinfo$?path@global@@SA?AVQString@@XZ 10015110     bncs_instance_lookup.obj
 0002:00002134       __unwindtable$??__E?deviceTypes@bncs_instance_lookup@@2V?$QMap@VQString@@VdeviceTypeInfo@@@@A@@YAXXZ 10015134     bncs_instance_lookup.obj
 0002:00002134       __unwindtable$??__E?instances@bncs_instance_lookup@@2V?$QMap@VQString@@VinstanceInfo@@@@A@@YAXXZ 10015134     bncs_instance_lookup.obj
 0002:00002134       __unwindtable$??__E?complexTypes@bncs_instance_lookup@@2V?$QMap@VQString@@VcomplexType@@@@A@@YAXXZ 10015134     bncs_instance_lookup.obj
 0002:00002134       __unwindtable$??__E?styles@bncs_stylesheet@@0V?$QMap@VQString@@Vstyleentry@@@@A@@YAXXZ 10015134     bncs_instance_lookup.obj
 0002:0000213c       __ehfuncinfo$??__E?instances@bncs_instance_lookup@@2V?$QMap@VQString@@VinstanceInfo@@@@A@@YAXXZ 1001513c     bncs_instance_lookup.obj
 0002:0000213c       __ehfuncinfo$??__E?complexTypes@bncs_instance_lookup@@2V?$QMap@VQString@@VcomplexType@@@@A@@YAXXZ 1001513c     bncs_instance_lookup.obj
 0002:0000213c       __ehfuncinfo$??__E?deviceTypes@bncs_instance_lookup@@2V?$QMap@VQString@@VdeviceTypeInfo@@@@A@@YAXXZ 1001513c     bncs_instance_lookup.obj
 0002:0000213c       __ehfuncinfo$??__E?styles@bncs_stylesheet@@0V?$QMap@VQString@@Vstyleentry@@@@A@@YAXXZ 1001513c     bncs_instance_lookup.obj
 0002:00002160       __unwindtable$??0?$QMapPrivate@VQString@@VparamInfo@@@@QAE@XZ 10015160     bncs_instance_lookup.obj
 0002:00002170       __ehfuncinfo$??0?$QMapPrivate@VQString@@VparamInfo@@@@QAE@XZ 10015170     bncs_instance_lookup.obj
 0002:00002194       __unwindtable$??0?$QMapPrivate@VQString@@VparamInfo@@@@QAE@PBV0@@Z 10015194     bncs_instance_lookup.obj
 0002:000021a4       __ehfuncinfo$??0?$QMapPrivate@VQString@@VparamInfo@@@@QAE@PBV0@@Z 100151a4     bncs_instance_lookup.obj
 0002:000021c8       __unwindtable$??1?$QMapPrivate@VQString@@VparamInfo@@@@QAE@XZ 100151c8     bncs_instance_lookup.obj
 0002:000021d0       __ehfuncinfo$??1?$QMapPrivate@VQString@@VparamInfo@@@@QAE@XZ 100151d0     bncs_instance_lookup.obj
 0002:000021f4       __unwindtable$?copy@?$QMapPrivate@VQString@@VparamInfo@@@@QAEPAU?$QMapNode@VQString@@VparamInfo@@@@PAU2@@Z 100151f4     bncs_instance_lookup.obj
 0002:0000220c       __ehfuncinfo$?copy@?$QMapPrivate@VQString@@VparamInfo@@@@QAEPAU?$QMapNode@VQString@@VparamInfo@@@@PAU2@@Z 1001520c     bncs_instance_lookup.obj
 0002:00002230       __unwindtable$?clear@?$QMapPrivate@VQString@@VparamInfo@@@@QAEXPAU?$QMapNode@VQString@@VparamInfo@@@@@Z 10015230     bncs_instance_lookup.obj
 0002:00002238       __ehfuncinfo$?clear@?$QMapPrivate@VQString@@VparamInfo@@@@QAEXPAU?$QMapNode@VQString@@VparamInfo@@@@@Z 10015238     bncs_instance_lookup.obj
 0002:0000225c       __unwindtable$?insert@?$QMapPrivate@VQString@@VparamInfo@@@@QAE?AV?$QMapIterator@VQString@@VparamInfo@@@@PAUQMapNodeBase@@0ABVQString@@@Z 1001525c     bncs_instance_lookup.obj
 0002:00002274       __ehfuncinfo$?insert@?$QMapPrivate@VQString@@VparamInfo@@@@QAE?AV?$QMapIterator@VQString@@VparamInfo@@@@PAUQMapNodeBase@@0ABVQString@@@Z 10015274     bncs_instance_lookup.obj
 0002:00002298       __unwindtable$??0?$QMapPrivate@VQString@@VcomplexParam@@@@QAE@XZ 10015298     bncs_instance_lookup.obj
 0002:000022a8       __ehfuncinfo$??0?$QMapPrivate@VQString@@VcomplexParam@@@@QAE@XZ 100152a8     bncs_instance_lookup.obj
 0002:000022cc       __unwindtable$??0?$QMapPrivate@VQString@@VcomplexParam@@@@QAE@PBV0@@Z 100152cc     bncs_instance_lookup.obj
 0002:000022dc       __ehfuncinfo$??0?$QMapPrivate@VQString@@VcomplexParam@@@@QAE@PBV0@@Z 100152dc     bncs_instance_lookup.obj
 0002:00002300       __unwindtable$??1?$QMapPrivate@VQString@@VcomplexParam@@@@QAE@XZ 10015300     bncs_instance_lookup.obj
 0002:00002308       __ehfuncinfo$??1?$QMapPrivate@VQString@@VcomplexParam@@@@QAE@XZ 10015308     bncs_instance_lookup.obj
 0002:0000232c       __unwindtable$?copy@?$QMapPrivate@VQString@@VinstanceInfo@@@@QAEPAU?$QMapNode@VQString@@VinstanceInfo@@@@PAU2@@Z 1001532c     bncs_instance_lookup.obj
 0002:0000232c       __unwindtable$?copy@?$QMapPrivate@VQString@@VcomplexInstance@@@@QAEPAU?$QMapNode@VQString@@VcomplexInstance@@@@PAU2@@Z 1001532c     bncs_instance_lookup.obj
 0002:0000232c       __unwindtable$?copy@?$QMapPrivate@VQString@@VcomplexParam@@@@QAEPAU?$QMapNode@VQString@@VcomplexParam@@@@PAU2@@Z 1001532c     bncs_instance_lookup.obj
 0002:0000232c       __unwindtable$?copy@?$QMapPrivate@VQString@@VdeviceTypeInfo@@@@QAEPAU?$QMapNode@VQString@@VdeviceTypeInfo@@@@PAU2@@Z 1001532c     bncs_instance_lookup.obj
 0002:0000232c       __unwindtable$?copy@?$QMapPrivate@VQString@@VcomplexType@@@@QAEPAU?$QMapNode@VQString@@VcomplexType@@@@PAU2@@Z 1001532c     bncs_instance_lookup.obj
 0002:0000232c       __unwindtable$?copy@?$QMapPrivate@VQString@@Vstyleentry@@@@QAEPAU?$QMapNode@VQString@@Vstyleentry@@@@PAU2@@Z 1001532c     bncs_instance_lookup.obj
 0002:00002334       __ehfuncinfo$?copy@?$QMapPrivate@VQString@@Vstyleentry@@@@QAEPAU?$QMapNode@VQString@@Vstyleentry@@@@PAU2@@Z 10015334     bncs_instance_lookup.obj
 0002:00002334       __ehfuncinfo$?copy@?$QMapPrivate@VQString@@VcomplexType@@@@QAEPAU?$QMapNode@VQString@@VcomplexType@@@@PAU2@@Z 10015334     bncs_instance_lookup.obj
 0002:00002334       __ehfuncinfo$?copy@?$QMapPrivate@VQString@@VdeviceTypeInfo@@@@QAEPAU?$QMapNode@VQString@@VdeviceTypeInfo@@@@PAU2@@Z 10015334     bncs_instance_lookup.obj
 0002:00002334       __ehfuncinfo$?copy@?$QMapPrivate@VQString@@VinstanceInfo@@@@QAEPAU?$QMapNode@VQString@@VinstanceInfo@@@@PAU2@@Z 10015334     bncs_instance_lookup.obj
 0002:00002334       __ehfuncinfo$?copy@?$QMapPrivate@VQString@@VcomplexInstance@@@@QAEPAU?$QMapNode@VQString@@VcomplexInstance@@@@PAU2@@Z 10015334     bncs_instance_lookup.obj
 0002:00002334       __ehfuncinfo$?copy@?$QMapPrivate@VQString@@VcomplexParam@@@@QAEPAU?$QMapNode@VQString@@VcomplexParam@@@@PAU2@@Z 10015334     bncs_instance_lookup.obj
 0002:00002358       __unwindtable$?clear@?$QMapPrivate@VQString@@VcomplexParam@@@@QAEXPAU?$QMapNode@VQString@@VcomplexParam@@@@@Z 10015358     bncs_instance_lookup.obj
 0002:00002360       __ehfuncinfo$?clear@?$QMapPrivate@VQString@@VcomplexParam@@@@QAEXPAU?$QMapNode@VQString@@VcomplexParam@@@@@Z 10015360     bncs_instance_lookup.obj
 0002:00002384       __unwindtable$?insert@?$QMapPrivate@VQString@@VcomplexParam@@@@QAE?AV?$QMapIterator@VQString@@VcomplexParam@@@@PAUQMapNodeBase@@0ABVQString@@@Z 10015384     bncs_instance_lookup.obj
 0002:0000239c       __ehfuncinfo$?insert@?$QMapPrivate@VQString@@VcomplexParam@@@@QAE?AV?$QMapIterator@VQString@@VcomplexParam@@@@PAUQMapNodeBase@@0ABVQString@@@Z 1001539c     bncs_instance_lookup.obj
 0002:000023c0       __unwindtable$??0?$QMapPrivate@VQString@@VcomplexInstance@@@@QAE@XZ 100153c0     bncs_instance_lookup.obj
 0002:000023d0       __ehfuncinfo$??0?$QMapPrivate@VQString@@VcomplexInstance@@@@QAE@XZ 100153d0     bncs_instance_lookup.obj
 0002:000023f4       __unwindtable$??0?$QMapPrivate@VQString@@VcomplexInstance@@@@QAE@PBV0@@Z 100153f4     bncs_instance_lookup.obj
 0002:00002404       __ehfuncinfo$??0?$QMapPrivate@VQString@@VcomplexInstance@@@@QAE@PBV0@@Z 10015404     bncs_instance_lookup.obj
 0002:00002428       __unwindtable$??1?$QMapPrivate@VQString@@VcomplexInstance@@@@QAE@XZ 10015428     bncs_instance_lookup.obj
 0002:00002430       __ehfuncinfo$??1?$QMapPrivate@VQString@@VcomplexInstance@@@@QAE@XZ 10015430     bncs_instance_lookup.obj
 0002:00002454       __unwindtable$?clear@?$QMapPrivate@VQString@@VcomplexInstance@@@@QAEXPAU?$QMapNode@VQString@@VcomplexInstance@@@@@Z 10015454     bncs_instance_lookup.obj
 0002:0000245c       __ehfuncinfo$?clear@?$QMapPrivate@VQString@@VcomplexInstance@@@@QAEXPAU?$QMapNode@VQString@@VcomplexInstance@@@@@Z 1001545c     bncs_instance_lookup.obj
 0002:00002480       __unwindtable$?insert@?$QMapPrivate@VQString@@VcomplexInstance@@@@QAE?AV?$QMapIterator@VQString@@VcomplexInstance@@@@PAUQMapNodeBase@@0ABVQString@@@Z 10015480     bncs_instance_lookup.obj
 0002:00002498       __ehfuncinfo$?insert@?$QMapPrivate@VQString@@VcomplexInstance@@@@QAE?AV?$QMapIterator@VQString@@VcomplexInstance@@@@PAUQMapNodeBase@@0ABVQString@@@Z 10015498     bncs_instance_lookup.obj
 0002:000024bc       __unwindtable$??0?$QMapPrivate@VQString@@VinstanceInfo@@@@QAE@XZ 100154bc     bncs_instance_lookup.obj
 0002:000024cc       __ehfuncinfo$??0?$QMapPrivate@VQString@@VinstanceInfo@@@@QAE@XZ 100154cc     bncs_instance_lookup.obj
 0002:000024f0       __unwindtable$??0?$QMapPrivate@VQString@@VinstanceInfo@@@@QAE@PBV0@@Z 100154f0     bncs_instance_lookup.obj
 0002:00002500       __ehfuncinfo$??0?$QMapPrivate@VQString@@VinstanceInfo@@@@QAE@PBV0@@Z 10015500     bncs_instance_lookup.obj
 0002:00002524       __unwindtable$??1?$QMapPrivate@VQString@@VinstanceInfo@@@@QAE@XZ 10015524     bncs_instance_lookup.obj
 0002:0000252c       __ehfuncinfo$??1?$QMapPrivate@VQString@@VinstanceInfo@@@@QAE@XZ 1001552c     bncs_instance_lookup.obj
 0002:00002550       __unwindtable$?clear@?$QMapPrivate@VQString@@VinstanceInfo@@@@QAEXPAU?$QMapNode@VQString@@VinstanceInfo@@@@@Z 10015550     bncs_instance_lookup.obj
 0002:00002558       __ehfuncinfo$?clear@?$QMapPrivate@VQString@@VinstanceInfo@@@@QAEXPAU?$QMapNode@VQString@@VinstanceInfo@@@@@Z 10015558     bncs_instance_lookup.obj
 0002:0000257c       __unwindtable$?insert@?$QMapPrivate@VQString@@VinstanceInfo@@@@QAE?AV?$QMapIterator@VQString@@VinstanceInfo@@@@PAUQMapNodeBase@@0ABVQString@@@Z 1001557c     bncs_instance_lookup.obj
 0002:00002594       __ehfuncinfo$?insert@?$QMapPrivate@VQString@@VinstanceInfo@@@@QAE?AV?$QMapIterator@VQString@@VinstanceInfo@@@@PAUQMapNodeBase@@0ABVQString@@@Z 10015594     bncs_instance_lookup.obj
 0002:000025b8       __unwindtable$?append@?$QValueList@VparamInfo@@@@QAE?AV?$QValueListIterator@VparamInfo@@@@ABVparamInfo@@@Z 100155b8     bncs_instance_lookup.obj
 0002:000025b8       __unwindtable$?append@?$QValueList@VcomplexParam@@@@QAE?AV?$QValueListIterator@VcomplexParam@@@@ABVcomplexParam@@@Z 100155b8     bncs_instance_lookup.obj
 0002:000025b8       __unwindtable$?append@?$QValueList@Vstyleentry@@@@QAE?AV?$QValueListIterator@Vstyleentry@@@@ABVstyleentry@@@Z 100155b8     bncs_instance_lookup.obj
 0002:000025b8       __unwindtable$?append@?$QValueList@VcomplexInstance@@@@QAE?AV?$QValueListIterator@VcomplexInstance@@@@ABVcomplexInstance@@@Z 100155b8     bncs_instance_lookup.obj
 0002:000025b8       __unwindtable$?append@?$QValueList@VinstanceInfo@@@@QAE?AV?$QValueListIterator@VinstanceInfo@@@@ABVinstanceInfo@@@Z 100155b8     bncs_instance_lookup.obj
 0002:000025b8       __unwindtable$?append@?$QValueList@VcomplexType@@@@QAE?AV?$QValueListIterator@VcomplexType@@@@ABVcomplexType@@@Z 100155b8     bncs_instance_lookup.obj
 0002:000025b8       __unwindtable$?append@?$QValueList@VdeviceTypeInfo@@@@QAE?AV?$QValueListIterator@VdeviceTypeInfo@@@@ABVdeviceTypeInfo@@@Z 100155b8     bncs_instance_lookup.obj
 0002:000025c8       __ehfuncinfo$?append@?$QValueList@VinstanceInfo@@@@QAE?AV?$QValueListIterator@VinstanceInfo@@@@ABVinstanceInfo@@@Z 100155c8     bncs_instance_lookup.obj
 0002:000025c8       __ehfuncinfo$?append@?$QValueList@VcomplexParam@@@@QAE?AV?$QValueListIterator@VcomplexParam@@@@ABVcomplexParam@@@Z 100155c8     bncs_instance_lookup.obj
 0002:000025c8       __ehfuncinfo$?append@?$QValueList@VcomplexType@@@@QAE?AV?$QValueListIterator@VcomplexType@@@@ABVcomplexType@@@Z 100155c8     bncs_instance_lookup.obj
 0002:000025c8       __ehfuncinfo$?append@?$QValueList@VcomplexInstance@@@@QAE?AV?$QValueListIterator@VcomplexInstance@@@@ABVcomplexInstance@@@Z 100155c8     bncs_instance_lookup.obj
 0002:000025c8       __ehfuncinfo$?append@?$QValueList@Vstyleentry@@@@QAE?AV?$QValueListIterator@Vstyleentry@@@@ABVstyleentry@@@Z 100155c8     bncs_instance_lookup.obj
 0002:000025c8       __ehfuncinfo$?append@?$QValueList@VparamInfo@@@@QAE?AV?$QValueListIterator@VparamInfo@@@@ABVparamInfo@@@Z 100155c8     bncs_instance_lookup.obj
 0002:000025c8       __ehfuncinfo$?append@?$QValueList@VdeviceTypeInfo@@@@QAE?AV?$QValueListIterator@VdeviceTypeInfo@@@@ABVdeviceTypeInfo@@@Z 100155c8     bncs_instance_lookup.obj
 0002:000025ec       __unwindtable$??0?$QMapPrivate@VQString@@VdeviceTypeInfo@@@@QAE@XZ 100155ec     bncs_instance_lookup.obj
 0002:000025fc       __ehfuncinfo$??0?$QMapPrivate@VQString@@VdeviceTypeInfo@@@@QAE@XZ 100155fc     bncs_instance_lookup.obj
 0002:00002620       __unwindtable$??0?$QMapPrivate@VQString@@VdeviceTypeInfo@@@@QAE@PBV0@@Z 10015620     bncs_instance_lookup.obj
 0002:00002630       __ehfuncinfo$??0?$QMapPrivate@VQString@@VdeviceTypeInfo@@@@QAE@PBV0@@Z 10015630     bncs_instance_lookup.obj
 0002:00002654       __unwindtable$??1?$QMapPrivate@VQString@@VdeviceTypeInfo@@@@QAE@XZ 10015654     bncs_instance_lookup.obj
 0002:0000265c       __ehfuncinfo$??1?$QMapPrivate@VQString@@VdeviceTypeInfo@@@@QAE@XZ 1001565c     bncs_instance_lookup.obj
 0002:00002680       __unwindtable$?clear@?$QMapPrivate@VQString@@VdeviceTypeInfo@@@@QAEXPAU?$QMapNode@VQString@@VdeviceTypeInfo@@@@@Z 10015680     bncs_instance_lookup.obj
 0002:00002688       __ehfuncinfo$?clear@?$QMapPrivate@VQString@@VdeviceTypeInfo@@@@QAEXPAU?$QMapNode@VQString@@VdeviceTypeInfo@@@@@Z 10015688     bncs_instance_lookup.obj
 0002:000026ac       __unwindtable$?insert@?$QMapPrivate@VQString@@VdeviceTypeInfo@@@@QAE?AV?$QMapIterator@VQString@@VdeviceTypeInfo@@@@PAUQMapNodeBase@@0ABVQString@@@Z 100156ac     bncs_instance_lookup.obj
 0002:000026c4       __ehfuncinfo$?insert@?$QMapPrivate@VQString@@VdeviceTypeInfo@@@@QAE?AV?$QMapIterator@VQString@@VdeviceTypeInfo@@@@PAUQMapNodeBase@@0ABVQString@@@Z 100156c4     bncs_instance_lookup.obj
 0002:000026e8       __unwindtable$??0?$QMapPrivate@VQString@@VcomplexType@@@@QAE@XZ 100156e8     bncs_instance_lookup.obj
 0002:000026f8       __ehfuncinfo$??0?$QMapPrivate@VQString@@VcomplexType@@@@QAE@XZ 100156f8     bncs_instance_lookup.obj
 0002:0000271c       __unwindtable$??0?$QMapPrivate@VQString@@VcomplexType@@@@QAE@PBV0@@Z 1001571c     bncs_instance_lookup.obj
 0002:0000272c       __ehfuncinfo$??0?$QMapPrivate@VQString@@VcomplexType@@@@QAE@PBV0@@Z 1001572c     bncs_instance_lookup.obj
 0002:00002750       __unwindtable$??1?$QMapPrivate@VQString@@VcomplexType@@@@QAE@XZ 10015750     bncs_instance_lookup.obj
 0002:00002758       __ehfuncinfo$??1?$QMapPrivate@VQString@@VcomplexType@@@@QAE@XZ 10015758     bncs_instance_lookup.obj
 0002:0000277c       __unwindtable$?clear@?$QMapPrivate@VQString@@VcomplexType@@@@QAEXPAU?$QMapNode@VQString@@VcomplexType@@@@@Z 1001577c     bncs_instance_lookup.obj
 0002:00002784       __ehfuncinfo$?clear@?$QMapPrivate@VQString@@VcomplexType@@@@QAEXPAU?$QMapNode@VQString@@VcomplexType@@@@@Z 10015784     bncs_instance_lookup.obj
 0002:000027a8       __unwindtable$?insert@?$QMapPrivate@VQString@@VcomplexType@@@@QAE?AV?$QMapIterator@VQString@@VcomplexType@@@@PAUQMapNodeBase@@0ABVQString@@@Z 100157a8     bncs_instance_lookup.obj
 0002:000027c0       __ehfuncinfo$?insert@?$QMapPrivate@VQString@@VcomplexType@@@@QAE?AV?$QMapIterator@VQString@@VcomplexType@@@@PAUQMapNodeBase@@0ABVQString@@@Z 100157c0     bncs_instance_lookup.obj
 0002:000027e4       __unwindtable$??0?$QMapNode@VQString@@VinstanceInfo@@@@QAE@ABU0@@Z 100157e4     bncs_instance_lookup.obj
 0002:000027f4       __ehfuncinfo$??0?$QMapNode@VQString@@VinstanceInfo@@@@QAE@ABU0@@Z 100157f4     bncs_instance_lookup.obj
 0002:00002818       __unwindtable$??0?$QMapNode@VQString@@VdeviceTypeInfo@@@@QAE@ABU0@@Z 10015818     bncs_instance_lookup.obj
 0002:00002828       __ehfuncinfo$??0?$QMapNode@VQString@@VdeviceTypeInfo@@@@QAE@ABU0@@Z 10015828     bncs_instance_lookup.obj
 0002:0000284c       __unwindtable$??0?$QMapNode@VQString@@VcomplexType@@@@QAE@ABU0@@Z 1001584c     bncs_instance_lookup.obj
 0002:0000285c       __ehfuncinfo$??0?$QMapNode@VQString@@VcomplexType@@@@QAE@ABU0@@Z 1001585c     bncs_instance_lookup.obj
 0002:00002880       __unwindtable$??0?$QMapNode@VQString@@VcomplexInstance@@@@QAE@ABU0@@Z 10015880     bncs_instance_lookup.obj
 0002:00002890       __ehfuncinfo$??0?$QMapNode@VQString@@VcomplexInstance@@@@QAE@ABU0@@Z 10015890     bncs_instance_lookup.obj
 0002:000028b4       __unwindtable$??0?$QMapNode@VQString@@VcomplexParam@@@@QAE@ABU0@@Z 100158b4     bncs_instance_lookup.obj
 0002:000028c4       __ehfuncinfo$??0?$QMapNode@VQString@@VcomplexParam@@@@QAE@ABU0@@Z 100158c4     bncs_instance_lookup.obj
 0002:000028e8       __unwindtable$?insert@?$QValueListPrivate@VcomplexParam@@@@QAE?AV?$QValueListIterator@VcomplexParam@@@@V2@ABVcomplexParam@@@Z 100158e8     bncs_instance_lookup.obj
 0002:000028f8       __ehfuncinfo$?insert@?$QValueListPrivate@VcomplexParam@@@@QAE?AV?$QValueListIterator@VcomplexParam@@@@V2@ABVcomplexParam@@@Z 100158f8     bncs_instance_lookup.obj
 0002:0000291c       __unwindtable$?clear@?$QMap@VQString@@VinstanceInfo@@@@QAEXXZ 1001591c     bncs_instance_lookup.obj
 0002:0000291c       __unwindtable$??0?$QValueListPrivate@VcomplexParam@@@@QAE@XZ 1001591c     bncs_instance_lookup.obj
 0002:0000291c       __unwindtable$?insert@?$QValueListPrivate@VinstanceInfo@@@@QAE?AV?$QValueListIterator@VinstanceInfo@@@@V2@ABVinstanceInfo@@@Z 1001591c     bncs_instance_lookup.obj
 0002:0000291c       __unwindtable$??0?$QValueListPrivate@VcomplexInstance@@@@QAE@XZ 1001591c     bncs_instance_lookup.obj
 0002:0000291c       __unwindtable$?clear@?$QMap@VQString@@Vstyleentry@@@@QAEXXZ 1001591c     bncs_instance_lookup.obj
 0002:0000291c       __unwindtable$?clear@?$QMap@VQString@@VcomplexInstance@@@@QAEXXZ 1001591c     bncs_instance_lookup.obj
 0002:0000291c       __unwindtable$??0?$QValueListPrivate@VdeviceTypeInfo@@@@QAE@XZ 1001591c     bncs_instance_lookup.obj
 0002:0000291c       __unwindtable$?clear@?$QMap@VQString@@VparamInfo@@@@QAEXXZ 1001591c     bncs_instance_lookup.obj
 0002:0000291c       __unwindtable$?clear@?$QMap@VQString@@VcomplexType@@@@QAEXXZ 1001591c     bncs_instance_lookup.obj
 0002:0000291c       __unwindtable$??0?$QValueListPrivate@VcomplexType@@@@QAE@XZ 1001591c     bncs_instance_lookup.obj
 0002:0000291c       __unwindtable$??0?$QValueListPrivate@VinstanceInfo@@@@QAE@XZ 1001591c     bncs_instance_lookup.obj
 0002:0000291c       __unwindtable$?clear@?$QMap@VQString@@VdeviceTypeInfo@@@@QAEXXZ 1001591c     bncs_instance_lookup.obj
 0002:0000291c       __unwindtable$?clear@?$QMap@VQString@@VcomplexParam@@@@QAEXXZ 1001591c     bncs_instance_lookup.obj
 0002:0000291c       __unwindtable$??0?$QValueListPrivate@VparamInfo@@@@QAE@XZ 1001591c     bncs_instance_lookup.obj
 0002:00002924       __ehfuncinfo$?clear@?$QMap@VQString@@VcomplexType@@@@QAEXXZ 10015924     bncs_instance_lookup.obj
 0002:00002924       __ehfuncinfo$??0?$QValueListPrivate@VcomplexInstance@@@@QAE@XZ 10015924     bncs_instance_lookup.obj
 0002:00002924       __ehfuncinfo$??0?$QValueListPrivate@VdeviceTypeInfo@@@@QAE@XZ 10015924     bncs_instance_lookup.obj
 0002:00002924       __ehfuncinfo$??0?$QValueListPrivate@VcomplexType@@@@QAE@XZ 10015924     bncs_instance_lookup.obj
 0002:00002924       __ehfuncinfo$?clear@?$QMap@VQString@@Vstyleentry@@@@QAEXXZ 10015924     bncs_instance_lookup.obj
 0002:00002924       __ehfuncinfo$?clear@?$QMap@VQString@@VdeviceTypeInfo@@@@QAEXXZ 10015924     bncs_instance_lookup.obj
 0002:00002924       __ehfuncinfo$?clear@?$QMap@VQString@@VinstanceInfo@@@@QAEXXZ 10015924     bncs_instance_lookup.obj
 0002:00002924       __ehfuncinfo$?insert@?$QValueListPrivate@VinstanceInfo@@@@QAE?AV?$QValueListIterator@VinstanceInfo@@@@V2@ABVinstanceInfo@@@Z 10015924     bncs_instance_lookup.obj
 0002:00002924       __ehfuncinfo$??0?$QValueListPrivate@VinstanceInfo@@@@QAE@XZ 10015924     bncs_instance_lookup.obj
 0002:00002924       __ehfuncinfo$??0?$QValueListPrivate@VcomplexParam@@@@QAE@XZ 10015924     bncs_instance_lookup.obj
 0002:00002924       __ehfuncinfo$?clear@?$QMap@VQString@@VcomplexInstance@@@@QAEXXZ 10015924     bncs_instance_lookup.obj
 0002:00002924       __ehfuncinfo$?clear@?$QMap@VQString@@VcomplexParam@@@@QAEXXZ 10015924     bncs_instance_lookup.obj
 0002:00002924       __ehfuncinfo$?clear@?$QMap@VQString@@VparamInfo@@@@QAEXXZ 10015924     bncs_instance_lookup.obj
 0002:00002924       __ehfuncinfo$??0?$QValueListPrivate@VparamInfo@@@@QAE@XZ 10015924     bncs_instance_lookup.obj
 0002:00002948       __unwindtable$??1styleentry@@QAE@XZ 10015948     bncs_stylesheet.obj
 0002:00002948       __unwindtable$??0styleentry@@QAE@XZ 10015948     bncs_stylesheet.obj
 0002:00002958       __ehfuncinfo$??1styleentry@@QAE@XZ 10015958     bncs_stylesheet.obj
 0002:00002958       __ehfuncinfo$??0styleentry@@QAE@XZ 10015958     bncs_stylesheet.obj
 0002:0000297c       __unwindtable$??0?$QValueListPrivate@VcomplexParam@@@@QAE@ABV0@@Z 1001597c     bncs_stylesheet.obj
 0002:0000297c       __unwindtable$??0?$QValueListPrivate@VparamInfo@@@@QAE@ABV0@@Z 1001597c     bncs_stylesheet.obj
 0002:0000297c       __unwindtable$??0?$QValueListPrivate@VdeviceTypeInfo@@@@QAE@ABV0@@Z 1001597c     bncs_stylesheet.obj
 0002:0000297c       __unwindtable$?insert@?$QMap@VQString@@Vstyleentry@@@@QAE?AU?$QPair@V?$QMapIterator@VQString@@Vstyleentry@@@@_N@@ABU?$QPair@$$CBVQString@@Vstyleentry@@@@@Z 1001597c     bncs_stylesheet.obj
 0002:0000297c       __unwindtable$??0?$QValueListPrivate@VcomplexType@@@@QAE@ABV0@@Z 1001597c     bncs_stylesheet.obj
 0002:0000297c       __unwindtable$??0?$QValueListPrivate@VinstanceInfo@@@@QAE@ABV0@@Z 1001597c     bncs_stylesheet.obj
 0002:0000297c       __unwindtable$??0?$QValueListPrivate@VcomplexInstance@@@@QAE@ABV0@@Z 1001597c     bncs_stylesheet.obj
 0002:00002984       __ehfuncinfo$??0?$QValueListPrivate@VinstanceInfo@@@@QAE@ABV0@@Z 10015984     bncs_stylesheet.obj
 0002:00002984       __ehfuncinfo$??0?$QValueListPrivate@VcomplexParam@@@@QAE@ABV0@@Z 10015984     bncs_stylesheet.obj
 0002:00002984       __ehfuncinfo$??0?$QValueListPrivate@VparamInfo@@@@QAE@ABV0@@Z 10015984     bncs_stylesheet.obj
 0002:00002984       __ehfuncinfo$??0?$QValueListPrivate@VcomplexType@@@@QAE@ABV0@@Z 10015984     bncs_stylesheet.obj
 0002:00002984       __ehfuncinfo$??0?$QValueListPrivate@VdeviceTypeInfo@@@@QAE@ABV0@@Z 10015984     bncs_stylesheet.obj
 0002:00002984       __ehfuncinfo$?insert@?$QMap@VQString@@Vstyleentry@@@@QAE?AU?$QPair@V?$QMapIterator@VQString@@Vstyleentry@@@@_N@@ABU?$QPair@$$CBVQString@@Vstyleentry@@@@@Z 10015984     bncs_stylesheet.obj
 0002:00002984       __ehfuncinfo$??0?$QValueListPrivate@VcomplexInstance@@@@QAE@ABV0@@Z 10015984     bncs_stylesheet.obj
 0002:000029a8       __ehfuncinfo$??A?$QMap@VQString@@Vstyleentry@@@@QAEAAVstyleentry@@ABVQString@@@Z 100159a8     bncs_stylesheet.obj
 0002:000029cc       __unwindtable$??A?$QMap@VQString@@Vstyleentry@@@@QAEAAVstyleentry@@ABVQString@@@Z 100159cc     bncs_stylesheet.obj
 0002:000029fc       __unwindtable$?remove@?$QMap@VQString@@Vstyleentry@@@@QAEXABVQString@@@Z 100159fc     bncs_stylesheet.obj
 0002:000029fc       __unwindtable$?erase@?$QMap@VQString@@Vstyleentry@@@@QAEXABVQString@@@Z 100159fc     bncs_stylesheet.obj
 0002:00002a0c       __ehfuncinfo$?remove@?$QMap@VQString@@Vstyleentry@@@@QAEXABVQString@@@Z 10015a0c     bncs_stylesheet.obj
 0002:00002a0c       __ehfuncinfo$?erase@?$QMap@VQString@@Vstyleentry@@@@QAEXABVQString@@@Z 10015a0c     bncs_stylesheet.obj
 0002:00002a30       __unwindtable$?getStyle@bncs_stylesheet@@SAXAAVQString@@PAVQWidget@@@Z 10015a30     bncs_stylesheet.obj
 0002:00002a40       __ehfuncinfo$?getStyle@bncs_stylesheet@@SAXAAVQString@@PAVQWidget@@@Z 10015a40     bncs_stylesheet.obj
 0002:00002a64       __unwindtable$?settingslist@bncs_stylesheet@@QAE?BVQStringList@@AAVQString@@@Z 10015a64     bncs_stylesheet.obj
 0002:00002a84       __ehfuncinfo$?settingslist@bncs_stylesheet@@QAE?BVQStringList@@AAVQString@@@Z 10015a84     bncs_stylesheet.obj
 0002:00002aa8       __ehfuncinfo$?load@bncs_stylesheet@@SA_NXZ 10015aa8     bncs_stylesheet.obj
 0002:00002acc       __unwindtable$?load@bncs_stylesheet@@SA_NXZ 10015acc     bncs_stylesheet.obj
 0002:00002af4       __ehfuncinfo$?doLoad@bncs_stylesheet@@SA_NXZ 10015af4     bncs_stylesheet.obj
 0002:00002b18       __unwindtable$?doLoad@bncs_stylesheet@@SA_NXZ 10015b18     bncs_stylesheet.obj
 0002:00002cc0       __unwindtable$?deleteStyle@bncs_stylesheet@@QAEXVQString@@@Z 10015cc0     bncs_stylesheet.obj
 0002:00002ce0       __ehfuncinfo$?deleteStyle@bncs_stylesheet@@QAEXVQString@@@Z 10015ce0     bncs_stylesheet.obj
 0002:00002d04       __unwindtable$?getStyleEntry@bncs_stylesheet@@QAEPAVstyleentry@@VQString@@@Z 10015d04     bncs_stylesheet.obj
 0002:00002d0c       __ehfuncinfo$?getStyleEntry@bncs_stylesheet@@QAEPAVstyleentry@@VQString@@@Z 10015d0c     bncs_stylesheet.obj
 0002:00002d30       __ehfuncinfo$?save@bncs_stylesheet@@QAE_NXZ 10015d30     bncs_stylesheet.obj
 0002:00002d54       __unwindtable$?save@bncs_stylesheet@@QAE_NXZ 10015d54     bncs_stylesheet.obj
 0002:00002e94       __unwindtable$?styleExist@bncs_stylesheet@@QAE_NVQString@@@Z 10015e94     bncs_stylesheet.obj
 0002:00002e9c       __ehfuncinfo$?styleExist@bncs_stylesheet@@QAE_NVQString@@@Z 10015e9c     bncs_stylesheet.obj
 0002:00002ec0       __unwindtable$??0?$QMapPrivate@VQString@@Vstyleentry@@@@QAE@XZ 10015ec0     bncs_stylesheet.obj
 0002:00002ec0       __unwindtable$??0?$QMapPrivate@VQString@@Vstyleentry@@@@QAE@PBV0@@Z 10015ec0     bncs_stylesheet.obj
 0002:00002ee0       __ehfuncinfo$??0?$QMapPrivate@VQString@@Vstyleentry@@@@QAE@XZ 10015ee0     bncs_stylesheet.obj
 0002:00002ee0       __ehfuncinfo$??0?$QMapPrivate@VQString@@Vstyleentry@@@@QAE@PBV0@@Z 10015ee0     bncs_stylesheet.obj
 0002:00002f04       __unwindtable$??1?$QMapPrivate@VQString@@Vstyleentry@@@@QAE@XZ 10015f04     bncs_stylesheet.obj
 0002:00002f1c       __ehfuncinfo$??1?$QMapPrivate@VQString@@Vstyleentry@@@@QAE@XZ 10015f1c     bncs_stylesheet.obj
 0002:00002f40       __unwindtable$?clear@?$QMapPrivate@VQString@@Vstyleentry@@@@QAEXPAU?$QMapNode@VQString@@Vstyleentry@@@@@Z 10015f40     bncs_stylesheet.obj
 0002:00002f58       __ehfuncinfo$?clear@?$QMapPrivate@VQString@@Vstyleentry@@@@QAEXPAU?$QMapNode@VQString@@Vstyleentry@@@@@Z 10015f58     bncs_stylesheet.obj
 0002:00002f7c       __unwindtable$?remove@?$QMapPrivate@VQString@@Vstyleentry@@@@QAEXV?$QMapIterator@VQString@@Vstyleentry@@@@@Z 10015f7c     bncs_stylesheet.obj
 0002:00002f94       __ehfuncinfo$?remove@?$QMapPrivate@VQString@@Vstyleentry@@@@QAEXV?$QMapIterator@VQString@@Vstyleentry@@@@@Z 10015f94     bncs_stylesheet.obj
 0002:00002fb8       __unwindtable$??0?$QMapNode@VQString@@Vstyleentry@@@@QAE@ABVQString@@@Z 10015fb8     bncs_stylesheet.obj
 0002:00002fd8       __ehfuncinfo$??0?$QMapNode@VQString@@Vstyleentry@@@@QAE@ABVQString@@@Z 10015fd8     bncs_stylesheet.obj
 0002:00002ffc       __unwindtable$??0?$QMapNode@VQString@@Vstyleentry@@@@QAE@ABU0@@Z 10015ffc     bncs_stylesheet.obj
 0002:0000301c       __ehfuncinfo$??0?$QMapNode@VQString@@Vstyleentry@@@@QAE@ABU0@@Z 1001601c     bncs_stylesheet.obj
 0002:00003040       __unwindtable$??0?$QValueListPrivate@Vstyleentry@@@@QAE@XZ 10016040     bncs_stylesheet.obj
 0002:00003058       __ehfuncinfo$??0?$QValueListPrivate@Vstyleentry@@@@QAE@XZ 10016058     bncs_stylesheet.obj
 0002:0000307c       __unwindtable$??0?$QValueListPrivate@Vstyleentry@@@@QAE@ABV0@@Z 1001607c     bncs_stylesheet.obj
 0002:00003094       __ehfuncinfo$??0?$QValueListPrivate@Vstyleentry@@@@QAE@ABV0@@Z 10016094     bncs_stylesheet.obj
 0002:000030b8       __unwindtable$?insert@?$QValueListPrivate@Vstyleentry@@@@QAE?AV?$QValueListIterator@Vstyleentry@@@@V2@ABVstyleentry@@@Z 100160b8     bncs_stylesheet.obj
 0002:000030d0       __ehfuncinfo$?insert@?$QValueListPrivate@Vstyleentry@@@@QAE?AV?$QValueListIterator@Vstyleentry@@@@V2@ABVstyleentry@@@Z 100160d0     bncs_stylesheet.obj
 0002:000030f4       __unwindtable$??0styleentry@@QAE@ABV0@@Z 100160f4     bncs_stylesheet.obj
 0002:000030f4       __unwindtable$??_G?$QValueListNode@Vstyleentry@@@@UAEPAXI@Z 100160f4     bncs_stylesheet.obj
 0002:00003104       __ehfuncinfo$??0styleentry@@QAE@ABV0@@Z 10016104     bncs_stylesheet.obj
 0002:00003104       __ehfuncinfo$??_G?$QValueListNode@Vstyleentry@@@@UAEPAXI@Z 10016104     bncs_stylesheet.obj
 0002:00003128       __unwindtable$?detachInternal@?$QMap@VQString@@VcomplexParam@@@@AAEXXZ 10016128     complexInstance.obj
 0002:00003128       __unwindtable$?end@?$QMap@VQString@@VinstanceInfo@@@@QAE?AV?$QMapIterator@VQString@@VinstanceInfo@@@@XZ 10016128     complexInstance.obj
 0002:00003128       __unwindtable$?remove@?$QMap@VQString@@Vstyleentry@@@@QAEXV?$QMapIterator@VQString@@Vstyleentry@@@@@Z 10016128     complexInstance.obj
 0002:00003128       __unwindtable$?begin@?$QMap@VQString@@VinstanceInfo@@@@QAE?AV?$QMapIterator@VQString@@VinstanceInfo@@@@XZ 10016128     complexInstance.obj
 0002:00003128       __unwindtable$?find@?$QMap@VQString@@VdeviceTypeInfo@@@@QAE?AV?$QMapIterator@VQString@@VdeviceTypeInfo@@@@ABVQString@@@Z 10016128     complexInstance.obj
 0002:00003128       __unwindtable$?detachInternal@?$QMap@VQString@@VparamInfo@@@@AAEXXZ 10016128     complexInstance.obj
 0002:00003128       __unwindtable$?detach@?$QMap@VQString@@VdeviceTypeInfo@@@@IAEXXZ 10016128     complexInstance.obj
 0002:00003128       __unwindtable$??0?$QMap@VQString@@VinstanceInfo@@@@QAE@XZ 10016128     complexInstance.obj
 0002:00003128       __unwindtable$??0?$QMap@VQString@@VcomplexInstance@@@@QAE@XZ 10016128     complexInstance.obj
 0002:00003128       __unwindtable$?detachInternal@?$QMap@VQString@@VdeviceTypeInfo@@@@AAEXXZ 10016128     complexInstance.obj
 0002:00003128       __unwindtable$?erase@?$QMap@VQString@@Vstyleentry@@@@QAEXV?$QMapIterator@VQString@@Vstyleentry@@@@@Z 10016128     complexInstance.obj
 0002:00003128       __unwindtable$??0?$QMap@VQString@@VcomplexType@@@@QAE@XZ 10016128     complexInstance.obj
 0002:00003128       __unwindtable$??0?$QMap@VQString@@VcomplexParam@@@@QAE@XZ 10016128     complexInstance.obj
 0002:00003128       __unwindtable$?detachInternal@?$QMap@VQString@@VcomplexInstance@@@@AAEXXZ 10016128     complexInstance.obj
 0002:00003128       __unwindtable$?begin@?$QMap@VQString@@VcomplexType@@@@QAE?AV?$QMapIterator@VQString@@VcomplexType@@@@XZ 10016128     complexInstance.obj
 0002:00003128       __unwindtable$?end@?$QMap@VQString@@Vstyleentry@@@@QAE?AV?$QMapIterator@VQString@@Vstyleentry@@@@XZ 10016128     complexInstance.obj
 0002:00003128       __unwindtable$?begin@?$QMap@VQString@@Vstyleentry@@@@QAE?AV?$QMapIterator@VQString@@Vstyleentry@@@@XZ 10016128     complexInstance.obj
 0002:00003128       __unwindtable$?detach@?$QMap@VQString@@VcomplexInstance@@@@IAEXXZ 10016128     complexInstance.obj
 0002:00003128       __unwindtable$?find@?$QMap@VQString@@Vstyleentry@@@@QAE?AV?$QMapIterator@VQString@@Vstyleentry@@@@ABVQString@@@Z 10016128     complexInstance.obj
 0002:00003128       __unwindtable$?find@?$QMap@VQString@@VcomplexParam@@@@QAE?AV?$QMapIterator@VQString@@VcomplexParam@@@@ABVQString@@@Z 10016128     complexInstance.obj
 0002:00003128       __unwindtable$??0?$QMap@VQString@@Vstyleentry@@@@QAE@XZ 10016128     complexInstance.obj
 0002:00003128       __unwindtable$?find@?$QMap@VQString@@VcomplexInstance@@@@QAE?AV?$QMapIterator@VQString@@VcomplexInstance@@@@ABVQString@@@Z 10016128     complexInstance.obj
 0002:00003128       __unwindtable$??0complexType@@QAE@XZ 10016128     complexInstance.obj
 0002:00003128       __unwindtable$?end@?$QMap@VQString@@VdeviceTypeInfo@@@@QAE?AV?$QMapIterator@VQString@@VdeviceTypeInfo@@@@XZ 10016128     complexInstance.obj
 0002:00003128       __unwindtable$?begin@?$QMap@VQString@@VcomplexParam@@@@QAE?AV?$QMapIterator@VQString@@VcomplexParam@@@@XZ 10016128     complexInstance.obj
 0002:00003128       __unwindtable$?find@?$QMap@VQString@@VinstanceInfo@@@@QAE?AV?$QMapIterator@VQString@@VinstanceInfo@@@@ABVQString@@@Z 10016128     complexInstance.obj
 0002:00003128       __unwindtable$?end@?$QMap@VQString@@VcomplexType@@@@QAE?AV?$QMapIterator@VQString@@VcomplexType@@@@XZ 10016128     complexInstance.obj
 0002:00003128       __unwindtable$??0complexInstance@@QAE@XZ 10016128     complexInstance.obj
 0002:00003128       __unwindtable$?detach@?$QMap@VQString@@Vstyleentry@@@@IAEXXZ 10016128     complexInstance.obj
 0002:00003128       __unwindtable$?end@?$QMap@VQString@@VcomplexParam@@@@QAE?AV?$QMapIterator@VQString@@VcomplexParam@@@@XZ 10016128     complexInstance.obj
 0002:00003128       __unwindtable$?find@?$QMap@VQString@@VcomplexType@@@@QAE?AV?$QMapIterator@VQString@@VcomplexType@@@@ABVQString@@@Z 10016128     complexInstance.obj
 0002:00003128       __unwindtable$?begin@?$QMap@VQString@@VcomplexInstance@@@@QAE?AV?$QMapIterator@VQString@@VcomplexInstance@@@@XZ 10016128     complexInstance.obj
 0002:00003128       __unwindtable$?detachInternal@?$QMap@VQString@@Vstyleentry@@@@AAEXXZ 10016128     complexInstance.obj
 0002:00003128       __unwindtable$?detach@?$QMap@VQString@@VcomplexType@@@@IAEXXZ 10016128     complexInstance.obj
 0002:00003128       __unwindtable$??0?$QMap@VQString@@VparamInfo@@@@QAE@XZ 10016128     complexInstance.obj
 0002:00003128       __unwindtable$?end@?$QMap@VQString@@VcomplexInstance@@@@QAE?AV?$QMapIterator@VQString@@VcomplexInstance@@@@XZ 10016128     complexInstance.obj
 0002:00003128       __unwindtable$?begin@?$QMap@VQString@@VparamInfo@@@@QAE?AV?$QMapIterator@VQString@@VparamInfo@@@@XZ 10016128     complexInstance.obj
 0002:00003128       __unwindtable$?detachInternal@?$QMap@VQString@@VcomplexType@@@@AAEXXZ 10016128     complexInstance.obj
 0002:00003128       __unwindtable$?end@?$QMap@VQString@@VparamInfo@@@@QAE?AV?$QMapIterator@VQString@@VparamInfo@@@@XZ 10016128     complexInstance.obj
 0002:00003128       __unwindtable$?detach@?$QMap@VQString@@VinstanceInfo@@@@IAEXXZ 10016128     complexInstance.obj
 0002:00003128       __unwindtable$?begin@?$QMap@VQString@@VdeviceTypeInfo@@@@QAE?AV?$QMapIterator@VQString@@VdeviceTypeInfo@@@@XZ 10016128     complexInstance.obj
 0002:00003128       __unwindtable$?detachInternal@?$QMap@VQString@@VinstanceInfo@@@@AAEXXZ 10016128     complexInstance.obj
 0002:00003128       __unwindtable$?detach@?$QMap@VQString@@VcomplexParam@@@@IAEXXZ 10016128     complexInstance.obj
 0002:00003128       __unwindtable$?find@?$QMap@VQString@@VparamInfo@@@@QAE?AV?$QMapIterator@VQString@@VparamInfo@@@@ABVQString@@@Z 10016128     complexInstance.obj
 0002:00003128       __unwindtable$??0?$QMap@VQString@@VdeviceTypeInfo@@@@QAE@XZ 10016128     complexInstance.obj
 0002:00003128       __unwindtable$?detach@?$QMap@VQString@@VparamInfo@@@@IAEXXZ 10016128     complexInstance.obj
 0002:00003128       __unwindtable$??0deviceTypeInfo@@QAE@XZ 10016128     complexInstance.obj
 0002:00003130       __ehfuncinfo$?begin@?$QMap@VQString@@VparamInfo@@@@QAE?AV?$QMapIterator@VQString@@VparamInfo@@@@XZ 10016130     complexInstance.obj
 0002:00003130       __ehfuncinfo$??0?$QMap@VQString@@VparamInfo@@@@QAE@XZ 10016130     complexInstance.obj
 0002:00003130       __ehfuncinfo$??0complexInstance@@QAE@XZ 10016130     complexInstance.obj
 0002:00003130       __ehfuncinfo$?find@?$QMap@VQString@@VcomplexInstance@@@@QAE?AV?$QMapIterator@VQString@@VcomplexInstance@@@@ABVQString@@@Z 10016130     complexInstance.obj
 0002:00003130       __ehfuncinfo$?find@?$QMap@VQString@@VparamInfo@@@@QAE?AV?$QMapIterator@VQString@@VparamInfo@@@@ABVQString@@@Z 10016130     complexInstance.obj
 0002:00003130       __ehfuncinfo$?detach@?$QMap@VQString@@VcomplexInstance@@@@IAEXXZ 10016130     complexInstance.obj
 0002:00003130       __ehfuncinfo$?detachInternal@?$QMap@VQString@@VcomplexInstance@@@@AAEXXZ 10016130     complexInstance.obj
 0002:00003130       __ehfuncinfo$??0?$QMap@VQString@@VinstanceInfo@@@@QAE@XZ 10016130     complexInstance.obj
 0002:00003130       __ehfuncinfo$?begin@?$QMap@VQString@@VinstanceInfo@@@@QAE?AV?$QMapIterator@VQString@@VinstanceInfo@@@@XZ 10016130     complexInstance.obj
 0002:00003130       __ehfuncinfo$?end@?$QMap@VQString@@VinstanceInfo@@@@QAE?AV?$QMapIterator@VQString@@VinstanceInfo@@@@XZ 10016130     complexInstance.obj
 0002:00003130       __ehfuncinfo$?find@?$QMap@VQString@@VinstanceInfo@@@@QAE?AV?$QMapIterator@VQString@@VinstanceInfo@@@@ABVQString@@@Z 10016130     complexInstance.obj
 0002:00003130       __ehfuncinfo$?detach@?$QMap@VQString@@VinstanceInfo@@@@IAEXXZ 10016130     complexInstance.obj
 0002:00003130       __ehfuncinfo$?detachInternal@?$QMap@VQString@@VinstanceInfo@@@@AAEXXZ 10016130     complexInstance.obj
 0002:00003130       __ehfuncinfo$??0?$QMap@VQString@@VdeviceTypeInfo@@@@QAE@XZ 10016130     complexInstance.obj
 0002:00003130       __ehfuncinfo$?begin@?$QMap@VQString@@VdeviceTypeInfo@@@@QAE?AV?$QMapIterator@VQString@@VdeviceTypeInfo@@@@XZ 10016130     complexInstance.obj
 0002:00003130       __ehfuncinfo$?end@?$QMap@VQString@@VdeviceTypeInfo@@@@QAE?AV?$QMapIterator@VQString@@VdeviceTypeInfo@@@@XZ 10016130     complexInstance.obj
 0002:00003130       __ehfuncinfo$?detach@?$QMap@VQString@@VparamInfo@@@@IAEXXZ 10016130     complexInstance.obj
 0002:00003130       __ehfuncinfo$?find@?$QMap@VQString@@VdeviceTypeInfo@@@@QAE?AV?$QMapIterator@VQString@@VdeviceTypeInfo@@@@ABVQString@@@Z 10016130     complexInstance.obj
 0002:00003130       __ehfuncinfo$?detachInternal@?$QMap@VQString@@VparamInfo@@@@AAEXXZ 10016130     complexInstance.obj
 0002:00003130       __ehfuncinfo$?detach@?$QMap@VQString@@VdeviceTypeInfo@@@@IAEXXZ 10016130     complexInstance.obj
 0002:00003130       __ehfuncinfo$?detachInternal@?$QMap@VQString@@VdeviceTypeInfo@@@@AAEXXZ 10016130     complexInstance.obj
 0002:00003130       __ehfuncinfo$??0?$QMap@VQString@@VcomplexType@@@@QAE@XZ 10016130     complexInstance.obj
 0002:00003130       __ehfuncinfo$??0?$QMap@VQString@@VcomplexParam@@@@QAE@XZ 10016130     complexInstance.obj
 0002:00003130       __ehfuncinfo$?begin@?$QMap@VQString@@VcomplexType@@@@QAE?AV?$QMapIterator@VQString@@VcomplexType@@@@XZ 10016130     complexInstance.obj
 0002:00003130       __ehfuncinfo$?begin@?$QMap@VQString@@VcomplexParam@@@@QAE?AV?$QMapIterator@VQString@@VcomplexParam@@@@XZ 10016130     complexInstance.obj
 0002:00003130       __ehfuncinfo$?end@?$QMap@VQString@@VcomplexType@@@@QAE?AV?$QMapIterator@VQString@@VcomplexType@@@@XZ 10016130     complexInstance.obj
 0002:00003130       __ehfuncinfo$?end@?$QMap@VQString@@VcomplexParam@@@@QAE?AV?$QMapIterator@VQString@@VcomplexParam@@@@XZ 10016130     complexInstance.obj
 0002:00003130       __ehfuncinfo$?find@?$QMap@VQString@@VcomplexType@@@@QAE?AV?$QMapIterator@VQString@@VcomplexType@@@@ABVQString@@@Z 10016130     complexInstance.obj
 0002:00003130       __ehfuncinfo$?detach@?$QMap@VQString@@VcomplexType@@@@IAEXXZ 10016130     complexInstance.obj
 0002:00003130       __ehfuncinfo$?detachInternal@?$QMap@VQString@@VcomplexType@@@@AAEXXZ 10016130     complexInstance.obj
 0002:00003130       __ehfuncinfo$?end@?$QMap@VQString@@VcomplexInstance@@@@QAE?AV?$QMapIterator@VQString@@VcomplexInstance@@@@XZ 10016130     complexInstance.obj
 0002:00003130       __ehfuncinfo$?detachInternal@?$QMap@VQString@@Vstyleentry@@@@AAEXXZ 10016130     complexInstance.obj
 0002:00003130       __ehfuncinfo$?begin@?$QMap@VQString@@VcomplexInstance@@@@QAE?AV?$QMapIterator@VQString@@VcomplexInstance@@@@XZ 10016130     complexInstance.obj
 0002:00003130       __ehfuncinfo$?detach@?$QMap@VQString@@Vstyleentry@@@@IAEXXZ 10016130     complexInstance.obj
 0002:00003130       __ehfuncinfo$??0?$QMap@VQString@@VcomplexInstance@@@@QAE@XZ 10016130     complexInstance.obj
 0002:00003130       __ehfuncinfo$?remove@?$QMap@VQString@@Vstyleentry@@@@QAEXV?$QMapIterator@VQString@@Vstyleentry@@@@@Z 10016130     complexInstance.obj
 0002:00003130       __ehfuncinfo$?detachInternal@?$QMap@VQString@@VcomplexParam@@@@AAEXXZ 10016130     complexInstance.obj
 0002:00003130       __ehfuncinfo$?find@?$QMap@VQString@@Vstyleentry@@@@QAE?AV?$QMapIterator@VQString@@Vstyleentry@@@@ABVQString@@@Z 10016130     complexInstance.obj
 0002:00003130       __ehfuncinfo$?erase@?$QMap@VQString@@Vstyleentry@@@@QAEXV?$QMapIterator@VQString@@Vstyleentry@@@@@Z 10016130     complexInstance.obj
 0002:00003130       __ehfuncinfo$?end@?$QMap@VQString@@Vstyleentry@@@@QAE?AV?$QMapIterator@VQString@@Vstyleentry@@@@XZ 10016130     complexInstance.obj
 0002:00003130       __ehfuncinfo$?find@?$QMap@VQString@@VcomplexParam@@@@QAE?AV?$QMapIterator@VQString@@VcomplexParam@@@@ABVQString@@@Z 10016130     complexInstance.obj
 0002:00003130       __ehfuncinfo$?begin@?$QMap@VQString@@Vstyleentry@@@@QAE?AV?$QMapIterator@VQString@@Vstyleentry@@@@XZ 10016130     complexInstance.obj
 0002:00003130       __ehfuncinfo$?detach@?$QMap@VQString@@VcomplexParam@@@@IAEXXZ 10016130     complexInstance.obj
 0002:00003130       __ehfuncinfo$??0?$QMap@VQString@@Vstyleentry@@@@QAE@XZ 10016130     complexInstance.obj
 0002:00003130       __ehfuncinfo$??0complexType@@QAE@XZ 10016130     complexInstance.obj
 0002:00003130       __ehfuncinfo$??0deviceTypeInfo@@QAE@XZ 10016130     complexInstance.obj
 0002:00003130       __ehfuncinfo$?end@?$QMap@VQString@@VparamInfo@@@@QAE?AV?$QMapIterator@VQString@@VparamInfo@@@@XZ 10016130     complexInstance.obj
 0002:00003154       __unwindtable$??1complexParam@@UAE@XZ 10016154     complexParamInfo.obj
 0002:00003154       __unwindtable$??0complexParam@@QAE@XZ 10016154     complexParamInfo.obj
 0002:0000315c       __ehfuncinfo$??0complexParam@@QAE@XZ 1001615c     complexParamInfo.obj
 0002:0000315c       __ehfuncinfo$??1complexParam@@UAE@XZ 1001615c     complexParamInfo.obj
 0002:00003180       __unwindtable$??0instanceInfo@@QAE@XZ 10016180     instanceInfo.obj
 0002:00003180       __unwindtable$??1instanceInfo@@UAE@XZ 10016180     instanceInfo.obj
 0002:000031a0       __ehfuncinfo$??0instanceInfo@@QAE@XZ 100161a0     instanceInfo.obj
 0002:000031a0       __ehfuncinfo$??1instanceInfo@@UAE@XZ 100161a0     instanceInfo.obj
 0002:000031c8       __sehtable$??_M@YGXPAXIHP6EX0@Z@Z 100161c8     MSVCRT:ehvecdtr.obj
 0002:000031e8       __sehtable$?__ArrayUnwind@@YGXPAXIHP6EX0@Z@Z 100161e8     MSVCRT:ehvecdtr.obj
 0002:00003208       __sehtable$__onexit        10016208     MSVCRT:atonexit.obj
 0002:00003228       __sehtable$___DllMainCRTStartup 10016228     MSVCRT:crtdll.obj
 0002:00003250       __sehtable$__IsNonwritableInCurrentImage 10016250     MSVCRT:pesect.obj
 0002:00003270       .edata                     10016270     bncs_cachedData.exp
 0002:00003298       rgpv                       10016298     bncs_cachedData.exp
 0002:00003754       rgszName                   10016754     bncs_cachedData.exp
 0002:00003c10       rgwOrd                     10016c10     bncs_cachedData.exp
 0002:00003e6e       szName                     10016e6e     bncs_cachedData.exp
 0002:00003e82       $N00001                    10016e82     bncs_cachedData.exp
 0002:00003eb6       $N00002                    10016eb6     bncs_cachedData.exp
 0002:00003ee5       $N00003                    10016ee5     bncs_cachedData.exp
 0002:00003f16       $N00004                    10016f16     bncs_cachedData.exp
 0002:00003f42       $N00005                    10016f42     bncs_cachedData.exp
 0002:00003f72       $N00006                    10016f72     bncs_cachedData.exp
 0002:00003f9d       $N00007                    10016f9d     bncs_cachedData.exp
 0002:00003fd0       $N00008                    10016fd0     bncs_cachedData.exp
 0002:00003ffe       $N00009                    10016ffe     bncs_cachedData.exp
 0002:0000402f       $N00010                    1001702f     bncs_cachedData.exp
 0002:0000405b       $N00011                    1001705b     bncs_cachedData.exp
 0002:00004089       $N00012                    10017089     bncs_cachedData.exp
 0002:000040b2       $N00013                    100170b2     bncs_cachedData.exp
 0002:000040e1       $N00014                    100170e1     bncs_cachedData.exp
 0002:0000410b       $N00015                    1001710b     bncs_cachedData.exp
 0002:00004130       $N00016                    10017130     bncs_cachedData.exp
 0002:00004150       $N00017                    10017150     bncs_cachedData.exp
 0002:0000416b       $N00018                    1001716b     bncs_cachedData.exp
 0002:0000418b       $N00019                    1001718b     bncs_cachedData.exp
 0002:000041a6       $N00020                    100171a6     bncs_cachedData.exp
 0002:000041c3       $N00021                    100171c3     bncs_cachedData.exp
 0002:000041db       $N00022                    100171db     bncs_cachedData.exp
 0002:000041f7       $N00023                    100171f7     bncs_cachedData.exp
 0002:0000420e       $N00024                    1001720e     bncs_cachedData.exp
 0002:0000422d       $N00025                    1001722d     bncs_cachedData.exp
 0002:00004247       $N00026                    10017247     bncs_cachedData.exp
 0002:00004264       $N00027                    10017264     bncs_cachedData.exp
 0002:0000427c       $N00028                    1001727c     bncs_cachedData.exp
 0002:00004296       $N00029                    10017296     bncs_cachedData.exp
 0002:000042ab       $N00030                    100172ab     bncs_cachedData.exp
 0002:000042c6       $N00031                    100172c6     bncs_cachedData.exp
 0002:000042dc       $N00032                    100172dc     bncs_cachedData.exp
 0002:0000430b       $N00033                    1001730b     bncs_cachedData.exp
 0002:00004337       $N00034                    10017337     bncs_cachedData.exp
 0002:00004362       $N00035                    10017362     bncs_cachedData.exp
 0002:00004390       $N00036                    10017390     bncs_cachedData.exp
 0002:000043bc       $N00037                    100173bc     bncs_cachedData.exp
 0002:000043e5       $N00038                    100173e5     bncs_cachedData.exp
 0002:0000440f       $N00039                    1001740f     bncs_cachedData.exp
 0002:0000442f       $N00040                    1001742f     bncs_cachedData.exp
 0002:0000444a       $N00041                    1001744a     bncs_cachedData.exp
 0002:00004465       $N00042                    10017465     bncs_cachedData.exp
 0002:0000447d       $N00043                    1001747d     bncs_cachedData.exp
 0002:00004494       $N00044                    10017494     bncs_cachedData.exp
 0002:000044ae       $N00045                    100174ae     bncs_cachedData.exp
 0002:000044c6       $N00046                    100174c6     bncs_cachedData.exp
 0002:000044db       $N00047                    100174db     bncs_cachedData.exp
 0002:000044f1       $N00048                    100174f1     bncs_cachedData.exp
 0002:00004529       $N00049                    10017529     bncs_cachedData.exp
 0002:0000455e       $N00050                    1001755e     bncs_cachedData.exp
 0002:00004592       $N00051                    10017592     bncs_cachedData.exp
 0002:000045c9       $N00052                    100175c9     bncs_cachedData.exp
 0002:000045fe       $N00053                    100175fe     bncs_cachedData.exp
 0002:00004630       $N00054                    10017630     bncs_cachedData.exp
 0002:00004663       $N00055                    10017663     bncs_cachedData.exp
 0002:0000468c       $N00056                    1001768c     bncs_cachedData.exp
 0002:000046b0       $N00057                    100176b0     bncs_cachedData.exp
 0002:000046d4       $N00058                    100176d4     bncs_cachedData.exp
 0002:000046f5       $N00059                    100176f5     bncs_cachedData.exp
 0002:00004715       $N00060                    10017715     bncs_cachedData.exp
 0002:00004738       $N00061                    10017738     bncs_cachedData.exp
 0002:00004759       $N00062                    10017759     bncs_cachedData.exp
 0002:00004777       $N00063                    10017777     bncs_cachedData.exp
 0002:00004796       $N00064                    10017796     bncs_cachedData.exp
 0002:000047e4       $N00065                    100177e4     bncs_cachedData.exp
 0002:00004832       $N00066                    10017832     bncs_cachedData.exp
 0002:0000487a       $N00067                    1001787a     bncs_cachedData.exp
 0002:000048c2       $N00068                    100178c2     bncs_cachedData.exp
 0002:00004908       $N00069                    10017908     bncs_cachedData.exp
 0002:0000494e       $N00070                    1001794e     bncs_cachedData.exp
 0002:0000499a       $N00071                    1001799a     bncs_cachedData.exp
 0002:000049e6       $N00072                    100179e6     bncs_cachedData.exp
 0002:00004a2e       $N00073                    10017a2e     bncs_cachedData.exp
 0002:00004a76       $N00074                    10017a76     bncs_cachedData.exp
 0002:00004ab8       $N00075                    10017ab8     bncs_cachedData.exp
 0002:00004afa       $N00076                    10017afa     bncs_cachedData.exp
 0002:00004b3e       $N00077                    10017b3e     bncs_cachedData.exp
 0002:00004b82       $N00078                    10017b82     bncs_cachedData.exp
 0002:00004ba0       $N00079                    10017ba0     bncs_cachedData.exp
 0002:00004bb9       $N00080                    10017bb9     bncs_cachedData.exp
 0002:00004bcf       $N00081                    10017bcf     bncs_cachedData.exp
 0002:00004be4       $N00082                    10017be4     bncs_cachedData.exp
 0002:00004bfc       $N00083                    10017bfc     bncs_cachedData.exp
 0002:00004c12       $N00084                    10017c12     bncs_cachedData.exp
 0002:00004c25       $N00085                    10017c25     bncs_cachedData.exp
 0002:00004c87       $N00086                    10017c87     bncs_cachedData.exp
 0002:00004cee       $N00087                    10017cee     bncs_cachedData.exp
 0002:00004d4a       $N00088                    10017d4a     bncs_cachedData.exp
 0002:00004dab       $N00089                    10017dab     bncs_cachedData.exp
 0002:00004e05       $N00090                    10017e05     bncs_cachedData.exp
 0002:00004e64       $N00091                    10017e64     bncs_cachedData.exp
 0002:00004ec4       $N00092                    10017ec4     bncs_cachedData.exp
 0002:00004f29       $N00093                    10017f29     bncs_cachedData.exp
 0002:00004f85       $N00094                    10017f85     bncs_cachedData.exp
 0002:00004fe6       $N00095                    10017fe6     bncs_cachedData.exp
 0002:0000503c       $N00096                    1001803c     bncs_cachedData.exp
 0002:00005097       $N00097                    10018097     bncs_cachedData.exp
 0002:000050ef       $N00098                    100180ef     bncs_cachedData.exp
 0002:0000514c       $N00099                    1001814c     bncs_cachedData.exp
 0002:0000517f       $N00100                    1001817f     bncs_cachedData.exp
 0002:000051af       $N00101                    100181af     bncs_cachedData.exp
 0002:000051de       $N00102                    100181de     bncs_cachedData.exp
 0002:00005210       $N00103                    10018210     bncs_cachedData.exp
 0002:00005240       $N00104                    10018240     bncs_cachedData.exp
 0002:0000526d       $N00105                    1001826d     bncs_cachedData.exp
 0002:0000529b       $N00106                    1001829b     bncs_cachedData.exp
 0002:000052e4       $N00107                    100182e4     bncs_cachedData.exp
 0002:00005350       $N00108                    10018350     bncs_cachedData.exp
 0002:000053b6       $N00109                    100183b6     bncs_cachedData.exp
 0002:0000541a       $N00110                    1001841a     bncs_cachedData.exp
 0002:00005484       $N00111                    10018484     bncs_cachedData.exp
 0002:000054ea       $N00112                    100184ea     bncs_cachedData.exp
 0002:0000554a       $N00113                    1001854a     bncs_cachedData.exp
 0002:000055ac       $N00114                    100185ac     bncs_cachedData.exp
 0002:00005616       $N00115                    10018616     bncs_cachedData.exp
 0002:0000567a       $N00116                    1001867a     bncs_cachedData.exp
 0002:000056dc       $N00117                    100186dc     bncs_cachedData.exp
 0002:00005744       $N00118                    10018744     bncs_cachedData.exp
 0002:000057a8       $N00119                    100187a8     bncs_cachedData.exp
 0002:00005806       $N00120                    10018806     bncs_cachedData.exp
 0002:00005866       $N00121                    10018866     bncs_cachedData.exp
 0002:000058a9       $N00122                    100188a9     bncs_cachedData.exp
 0002:000058e9       $N00123                    100188e9     bncs_cachedData.exp
 0002:00005928       $N00124                    10018928     bncs_cachedData.exp
 0002:0000596a       $N00125                    1001896a     bncs_cachedData.exp
 0002:000059aa       $N00126                    100189aa     bncs_cachedData.exp
 0002:000059e7       $N00127                    100189e7     bncs_cachedData.exp
 0002:00005a25       $N00128                    10018a25     bncs_cachedData.exp
 0002:00005a64       $N00129                    10018a64     bncs_cachedData.exp
 0002:00005a97       $N00130                    10018a97     bncs_cachedData.exp
 0002:00005ad3       $N00131                    10018ad3     bncs_cachedData.exp
 0002:00005b03       $N00132                    10018b03     bncs_cachedData.exp
 0002:00005b3e       $N00133                    10018b3e     bncs_cachedData.exp
 0002:00005b6d       $N00134                    10018b6d     bncs_cachedData.exp
 0002:00005bab       $N00135                    10018bab     bncs_cachedData.exp
 0002:00005bdd       $N00136                    10018bdd     bncs_cachedData.exp
 0002:00005c19       $N00137                    10018c19     bncs_cachedData.exp
 0002:00005c49       $N00138                    10018c49     bncs_cachedData.exp
 0002:00005c82       $N00139                    10018c82     bncs_cachedData.exp
 0002:00005caf       $N00140                    10018caf     bncs_cachedData.exp
 0002:00005ce9       $N00141                    10018ce9     bncs_cachedData.exp
 0002:00005d17       $N00142                    10018d17     bncs_cachedData.exp
 0002:00005d35       $N00143                    10018d35     bncs_cachedData.exp
 0002:00005d64       $N00144                    10018d64     bncs_cachedData.exp
 0002:00005d92       $N00145                    10018d92     bncs_cachedData.exp
 0002:00005dbe       $N00146                    10018dbe     bncs_cachedData.exp
 0002:00005ded       $N00147                    10018ded     bncs_cachedData.exp
 0002:00005e21       $N00148                    10018e21     bncs_cachedData.exp
 0002:00005e52       $N00149                    10018e52     bncs_cachedData.exp
 0002:00005e82       $N00150                    10018e82     bncs_cachedData.exp
 0002:00005eb5       $N00151                    10018eb5     bncs_cachedData.exp
 0002:00005ee6       $N00152                    10018ee6     bncs_cachedData.exp
 0002:00005f14       $N00153                    10018f14     bncs_cachedData.exp
 0002:00005f43       $N00154                    10018f43     bncs_cachedData.exp
 0002:00005f7f       $N00155                    10018f7f     bncs_cachedData.exp
 0002:00005fb8       $N00156                    10018fb8     bncs_cachedData.exp
 0002:00005ff0       $N00157                    10018ff0     bncs_cachedData.exp
 0002:0000602b       $N00158                    1001902b     bncs_cachedData.exp
 0002:00006064       $N00159                    10019064     bncs_cachedData.exp
 0002:0000609a       $N00160                    1001909a     bncs_cachedData.exp
 0002:000060d1       $N00161                    100190d1     bncs_cachedData.exp
 0002:0000611c       $N00162                    1001911c     bncs_cachedData.exp
 0002:0000613c       $N00163                    1001913c     bncs_cachedData.exp
 0002:0000615e       $N00164                    1001915e     bncs_cachedData.exp
 0002:00006192       $N00165                    10019192     bncs_cachedData.exp
 0002:000061c3       $N00166                    100191c3     bncs_cachedData.exp
 0002:000061f3       $N00167                    100191f3     bncs_cachedData.exp
 0002:00006226       $N00168                    10019226     bncs_cachedData.exp
 0002:00006257       $N00169                    10019257     bncs_cachedData.exp
 0002:00006285       $N00170                    10019285     bncs_cachedData.exp
 0002:000062b4       $N00171                    100192b4     bncs_cachedData.exp
 0002:00006314       $N00172                    10019314     bncs_cachedData.exp
 0002:00006379       $N00173                    10019379     bncs_cachedData.exp
 0002:000063d3       $N00174                    100193d3     bncs_cachedData.exp
 0002:00006432       $N00175                    10019432     bncs_cachedData.exp
 0002:0000648a       $N00176                    1001948a     bncs_cachedData.exp
 0002:000064e7       $N00177                    100194e7     bncs_cachedData.exp
 0002:00006545       $N00178                    10019545     bncs_cachedData.exp
 0002:000065a8       $N00179                    100195a8     bncs_cachedData.exp
 0002:00006602       $N00180                    10019602     bncs_cachedData.exp
 0002:00006661       $N00181                    10019661     bncs_cachedData.exp
 0002:000066b5       $N00182                    100196b5     bncs_cachedData.exp
 0002:0000670e       $N00183                    1001970e     bncs_cachedData.exp
 0002:00006764       $N00184                    10019764     bncs_cachedData.exp
 0002:000067bf       $N00185                    100197bf     bncs_cachedData.exp
 0002:000067fe       $N00186                    100197fe     bncs_cachedData.exp
 0002:0000685f       $N00187                    1001985f     bncs_cachedData.exp
 0002:0000689b       $N00188                    1001989b     bncs_cachedData.exp
 0002:000068f6       $N00189                    100198f6     bncs_cachedData.exp
 0002:00006931       $N00190                    10019931     bncs_cachedData.exp
 0002:0000698a       $N00191                    1001998a     bncs_cachedData.exp
 0002:000069c8       $N00192                    100199c8     bncs_cachedData.exp
 0002:00006a27       $N00193                    10019a27     bncs_cachedData.exp
 0002:00006a63       $N00194                    10019a63     bncs_cachedData.exp
 0002:00006abe       $N00195                    10019abe     bncs_cachedData.exp
 0002:00006af7       $N00196                    10019af7     bncs_cachedData.exp
 0002:00006b4c       $N00197                    10019b4c     bncs_cachedData.exp
 0002:00006b86       $N00198                    10019b86     bncs_cachedData.exp
 0002:00006bdd       $N00199                    10019bdd     bncs_cachedData.exp
 0002:00006c4a       $N00200                    10019c4a     bncs_cachedData.exp
 0002:00006cbc       $N00201                    10019cbc     bncs_cachedData.exp
 0002:00006d23       $N00202                    10019d23     bncs_cachedData.exp
 0002:00006d8f       $N00203                    10019d8f     bncs_cachedData.exp
 0002:00006df4       $N00204                    10019df4     bncs_cachedData.exp
 0002:00006e5e       $N00205                    10019e5e     bncs_cachedData.exp
 0002:00006ec9       $N00206                    10019ec9     bncs_cachedData.exp
 0002:00006f39       $N00207                    10019f39     bncs_cachedData.exp
 0002:00006fa0       $N00208                    10019fa0     bncs_cachedData.exp
 0002:0000700c       $N00209                    1001a00c     bncs_cachedData.exp
 0002:0000706d       $N00210                    1001a06d     bncs_cachedData.exp
 0002:000070d3       $N00211                    1001a0d3     bncs_cachedData.exp
 0002:00007136       $N00212                    1001a136     bncs_cachedData.exp
 0002:0000719e       $N00213                    1001a19e     bncs_cachedData.exp
 0002:000071d3       $N00214                    1001a1d3     bncs_cachedData.exp
 0002:00007220       $N00215                    1001a220     bncs_cachedData.exp
 0002:00007259       $N00216                    1001a259     bncs_cachedData.exp
 0002:00007298       $N00217                    1001a298     bncs_cachedData.exp
 0002:00007335       $N00218                    1001a335     bncs_cachedData.exp
 0002:000073ba       $N00219                    1001a3ba     bncs_cachedData.exp
 0002:0000744e       $N00220                    1001a44e     bncs_cachedData.exp
 0002:000074ca       $N00221                    1001a4ca     bncs_cachedData.exp
 0002:0000755b       $N00222                    1001a55b     bncs_cachedData.exp
 0002:000075d4       $N00223                    1001a5d4     bncs_cachedData.exp
 0002:0000766e       $N00224                    1001a66e     bncs_cachedData.exp
 0002:000076f0       $N00225                    1001a6f0     bncs_cachedData.exp
 0002:00007784       $N00226                    1001a784     bncs_cachedData.exp
 0002:00007800       $N00227                    1001a800     bncs_cachedData.exp
 0002:0000788b       $N00228                    1001a88b     bncs_cachedData.exp
 0002:000078fe       $N00229                    1001a8fe     bncs_cachedData.exp
 0002:0000798c       $N00230                    1001a98c     bncs_cachedData.exp
 0002:00007a02       $N00231                    1001aa02     bncs_cachedData.exp
 0002:00007a49       $N00232                    1001aa49     bncs_cachedData.exp
 0002:00007a7f       $N00233                    1001aa7f     bncs_cachedData.exp
 0002:00007ab2       $N00234                    1001aab2     bncs_cachedData.exp
 0002:00007ae4       $N00235                    1001aae4     bncs_cachedData.exp
 0002:00007b19       $N00236                    1001ab19     bncs_cachedData.exp
 0002:00007b4c       $N00237                    1001ab4c     bncs_cachedData.exp
 0002:00007b7c       $N00238                    1001ab7c     bncs_cachedData.exp
 0002:00007bad       $N00239                    1001abad     bncs_cachedData.exp
 0002:00007bfa       $N00240                    1001abfa     bncs_cachedData.exp
 0002:00007c44       $N00241                    1001ac44     bncs_cachedData.exp
 0002:00007c8d       $N00242                    1001ac8d     bncs_cachedData.exp
 0002:00007cd9       $N00243                    1001acd9     bncs_cachedData.exp
 0002:00007d23       $N00244                    1001ad23     bncs_cachedData.exp
 0002:00007d6a       $N00245                    1001ad6a     bncs_cachedData.exp
 0002:00007db2       $N00246                    1001adb2     bncs_cachedData.exp
 0002:00007dd0       $N00247                    1001add0     bncs_cachedData.exp
 0002:00007e1a       $N00248                    1001ae1a     bncs_cachedData.exp
 0002:00007e49       $N00249                    1001ae49     bncs_cachedData.exp
 0002:00007e97       $N00250                    1001ae97     bncs_cachedData.exp
 0002:00007ec5       $N00251                    1001aec5     bncs_cachedData.exp
 0002:00007ef1       $N00252                    1001aef1     bncs_cachedData.exp
 0002:00007f30       $N00253                    1001af30     bncs_cachedData.exp
 0002:00007f6d       $N00254                    1001af6d     bncs_cachedData.exp
 0002:00007faa       $N00255                    1001afaa     bncs_cachedData.exp
 0002:00007ff1       $N00256                    1001aff1     bncs_cachedData.exp
 0002:00008031       $N00257                    1001b031     bncs_cachedData.exp
 0002:00008088       $N00258                    1001b088     bncs_cachedData.exp
 0002:000080d7       $N00259                    1001b0d7     bncs_cachedData.exp
 0002:00008111       $N00260                    1001b111     bncs_cachedData.exp
 0002:0000813c       $N00261                    1001b13c     bncs_cachedData.exp
 0002:0000816d       $N00262                    1001b16d     bncs_cachedData.exp
 0002:0000818d       $N00263                    1001b18d     bncs_cachedData.exp
 0002:000081cd       $N00264                    1001b1cd     bncs_cachedData.exp
 0002:0000822f       $N00265                    1001b22f     bncs_cachedData.exp
 0002:0000826c       $N00266                    1001b26c     bncs_cachedData.exp
 0002:000082c8       $N00267                    1001b2c8     bncs_cachedData.exp
 0002:00008304       $N00268                    1001b304     bncs_cachedData.exp
 0002:0000835e       $N00269                    1001b35e     bncs_cachedData.exp
 0002:0000839d       $N00270                    1001b39d     bncs_cachedData.exp
 0002:000083fd       $N00271                    1001b3fd     bncs_cachedData.exp
 0002:0000843a       $N00272                    1001b43a     bncs_cachedData.exp
 0002:00008496       $N00273                    1001b496     bncs_cachedData.exp
 0002:000084d0       $N00274                    1001b4d0     bncs_cachedData.exp
 0002:00008526       $N00275                    1001b526     bncs_cachedData.exp
 0002:00008561       $N00276                    1001b561     bncs_cachedData.exp
 0002:000085b9       $N00277                    1001b5b9     bncs_cachedData.exp
 0002:0000863d       $N00278                    1001b63d     bncs_cachedData.exp
 0002:000086b8       $N00279                    1001b6b8     bncs_cachedData.exp
 0002:00008730       $N00280                    1001b730     bncs_cachedData.exp
 0002:000087b1       $N00281                    1001b7b1     bncs_cachedData.exp
 0002:0000882c       $N00282                    1001b82c     bncs_cachedData.exp
 0002:0000889e       $N00283                    1001b89e     bncs_cachedData.exp
 0002:00008913       $N00284                    1001b913     bncs_cachedData.exp
 0002:00008932       $N00285                    1001b932     bncs_cachedData.exp
 0002:0000896a       $N00286                    1001b96a     bncs_cachedData.exp
 0002:000089ab       $N00287                    1001b9ab     bncs_cachedData.exp
 0002:000089dd       $N00288                    1001b9dd     bncs_cachedData.exp
 0002:00008a0c       $N00289                    1001ba0c     bncs_cachedData.exp
 0002:00008a3a       $N00290                    1001ba3a     bncs_cachedData.exp
 0002:00008a6b       $N00291                    1001ba6b     bncs_cachedData.exp
 0002:00008a9a       $N00292                    1001ba9a     bncs_cachedData.exp
 0002:00008ac6       $N00293                    1001bac6     bncs_cachedData.exp
 0002:00008af3       $N00294                    1001baf3     bncs_cachedData.exp
 0002:00008b22       $N00295                    1001bb22     bncs_cachedData.exp
 0002:00008b67       $N00296                    1001bb67     bncs_cachedData.exp
 0002:00008ba4       $N00297                    1001bba4     bncs_cachedData.exp
 0002:00008bfb       $N00298                    1001bbfb     bncs_cachedData.exp
 0002:00008c4c       $N00299                    1001bc4c     bncs_cachedData.exp
 0002:00008c9b       $N00300                    1001bc9b     bncs_cachedData.exp
 0002:00008cf0       $N00301                    1001bcf0     bncs_cachedData.exp
 0002:00008d41       $N00302                    1001bd41     bncs_cachedData.exp
 0002:00008d8c       $N00303                    1001bd8c     bncs_cachedData.exp
 0002:00009d12       .idata$6                   1001cd12     qt-mt323:qt-mt323.dll
 0002:00009d36       .idata$6                   1001cd36     kernel32:KERNEL32.dll
 0002:00009d52       .idata$6                   1001cd52     user32:USER32.dll
 0002:00009df8       .idata$6                   1001cdf8     msvcprt:MSVCP120.dll
 0002:00009e90       .idata$6                   1001ce90     MSVCRT:MSVCR120.dll
 0003:0000048c       _allocator_arg             1001e48c     bncs_instance_lookup.obj
 0003:0000048d       _piecewise_construct       1001e48d     bncs_instance_lookup.obj
 0003:000004b0       ___proc_attached           1001e4b0     MSVCRT:crtdll.obj
 0003:000004b8       _GS_ExceptionRecord        1001e4b8     MSVCRT:gs_report.obj
 0003:00000508       _GS_ContextRecord          1001e508     MSVCRT:gs_report.obj
 0003:000007d4       _DebuggerWasPresent        1001e7d4     MSVCRT:gs_report.obj
 0004:000000a0       $R000000                   1001f0a0     Script1.res
 0004:000004a8       $R000408                   1001f4a8     Script1.res

 Exports

  ordinal    name

        1    ??0?$QMap@VQString@@VcomplexInstance@@@@QAE@ABV0@@Z (public: __thiscall QMap<class QString,class complexInstance>::QMap<class QString,class complexInstance>(class QMap<class QString,class complexInstance> const &))
        2    ??0?$QMap@VQString@@VcomplexInstance@@@@QAE@XZ (public: __thiscall QMap<class QString,class complexInstance>::QMap<class QString,class complexInstance>(void))
        3    ??0?$QMap@VQString@@VcomplexParam@@@@QAE@ABV0@@Z (public: __thiscall QMap<class QString,class complexParam>::QMap<class QString,class complexParam>(class QMap<class QString,class complexParam> const &))
        4    ??0?$QMap@VQString@@VcomplexParam@@@@QAE@XZ (public: __thiscall QMap<class QString,class complexParam>::QMap<class QString,class complexParam>(void))
        5    ??0?$QMap@VQString@@VcomplexType@@@@QAE@ABV0@@Z (public: __thiscall QMap<class QString,class complexType>::QMap<class QString,class complexType>(class QMap<class QString,class complexType> const &))
        6    ??0?$QMap@VQString@@VcomplexType@@@@QAE@XZ (public: __thiscall QMap<class QString,class complexType>::QMap<class QString,class complexType>(void))
        7    ??0?$QMap@VQString@@VdeviceTypeInfo@@@@QAE@ABV0@@Z (public: __thiscall QMap<class QString,class deviceTypeInfo>::QMap<class QString,class deviceTypeInfo>(class QMap<class QString,class deviceTypeInfo> const &))
        8    ??0?$QMap@VQString@@VdeviceTypeInfo@@@@QAE@XZ (public: __thiscall QMap<class QString,class deviceTypeInfo>::QMap<class QString,class deviceTypeInfo>(void))
        9    ??0?$QMap@VQString@@VinstanceInfo@@@@QAE@ABV0@@Z (public: __thiscall QMap<class QString,class instanceInfo>::QMap<class QString,class instanceInfo>(class QMap<class QString,class instanceInfo> const &))
       10    ??0?$QMap@VQString@@VinstanceInfo@@@@QAE@XZ (public: __thiscall QMap<class QString,class instanceInfo>::QMap<class QString,class instanceInfo>(void))
       11    ??0?$QMap@VQString@@VparamInfo@@@@QAE@ABV0@@Z (public: __thiscall QMap<class QString,class paramInfo>::QMap<class QString,class paramInfo>(class QMap<class QString,class paramInfo> const &))
       12    ??0?$QMap@VQString@@VparamInfo@@@@QAE@XZ (public: __thiscall QMap<class QString,class paramInfo>::QMap<class QString,class paramInfo>(void))
       13    ??0?$QMap@VQString@@Vstyleentry@@@@QAE@ABV0@@Z (public: __thiscall QMap<class QString,class styleentry>::QMap<class QString,class styleentry>(class QMap<class QString,class styleentry> const &))
       14    ??0?$QMap@VQString@@Vstyleentry@@@@QAE@XZ (public: __thiscall QMap<class QString,class styleentry>::QMap<class QString,class styleentry>(void))
       15    ??0bncs_instance_lookup@@QAE@ABV0@@Z (public: __thiscall bncs_instance_lookup::bncs_instance_lookup(class bncs_instance_lookup const &))
       16    ??0bncs_instance_lookup@@QAE@XZ (public: __thiscall bncs_instance_lookup::bncs_instance_lookup(void))
       17    ??0bncs_stylesheet@@QAE@XZ (public: __thiscall bncs_stylesheet::bncs_stylesheet(void))
       18    ??0complexInstance@@QAE@ABV0@@Z (public: __thiscall complexInstance::complexInstance(class complexInstance const &))
       19    ??0complexInstance@@QAE@XZ (public: __thiscall complexInstance::complexInstance(void))
       20    ??0complexParam@@QAE@ABV0@@Z (public: __thiscall complexParam::complexParam(class complexParam const &))
       21    ??0complexParam@@QAE@XZ (public: __thiscall complexParam::complexParam(void))
       22    ??0complexType@@QAE@ABV0@@Z (public: __thiscall complexType::complexType(class complexType const &))
       23    ??0complexType@@QAE@XZ (public: __thiscall complexType::complexType(void))
       24    ??0deviceTypeInfo@@QAE@ABV0@@Z (public: __thiscall deviceTypeInfo::deviceTypeInfo(class deviceTypeInfo const &))
       25    ??0deviceTypeInfo@@QAE@XZ (public: __thiscall deviceTypeInfo::deviceTypeInfo(void))
       26    ??0instanceInfo@@QAE@ABV0@@Z (public: __thiscall instanceInfo::instanceInfo(class instanceInfo const &))
       27    ??0instanceInfo@@QAE@XZ (public: __thiscall instanceInfo::instanceInfo(void))
       28    ??0paramInfo@@QAE@ABV0@@Z (public: __thiscall paramInfo::paramInfo(class paramInfo const &))
       29    ??0paramInfo@@QAE@XZ (public: __thiscall paramInfo::paramInfo(void))
       30    ??0styleentry@@QAE@ABV0@@Z (public: __thiscall styleentry::styleentry(class styleentry const &))
       31    ??0styleentry@@QAE@XZ (public: __thiscall styleentry::styleentry(void))
       32    ??1?$QMap@VQString@@VcomplexInstance@@@@QAE@XZ (public: __thiscall QMap<class QString,class complexInstance>::~QMap<class QString,class complexInstance>(void))
       33    ??1?$QMap@VQString@@VcomplexParam@@@@QAE@XZ (public: __thiscall QMap<class QString,class complexParam>::~QMap<class QString,class complexParam>(void))
       34    ??1?$QMap@VQString@@VcomplexType@@@@QAE@XZ (public: __thiscall QMap<class QString,class complexType>::~QMap<class QString,class complexType>(void))
       35    ??1?$QMap@VQString@@VdeviceTypeInfo@@@@QAE@XZ (public: __thiscall QMap<class QString,class deviceTypeInfo>::~QMap<class QString,class deviceTypeInfo>(void))
       36    ??1?$QMap@VQString@@VinstanceInfo@@@@QAE@XZ (public: __thiscall QMap<class QString,class instanceInfo>::~QMap<class QString,class instanceInfo>(void))
       37    ??1?$QMap@VQString@@VparamInfo@@@@QAE@XZ (public: __thiscall QMap<class QString,class paramInfo>::~QMap<class QString,class paramInfo>(void))
       38    ??1?$QMap@VQString@@Vstyleentry@@@@QAE@XZ (public: __thiscall QMap<class QString,class styleentry>::~QMap<class QString,class styleentry>(void))
       39    ??1bncs_instance_lookup@@UAE@XZ (public: virtual __thiscall bncs_instance_lookup::~bncs_instance_lookup(void))
       40    ??1bncs_stylesheet@@QAE@XZ (public: __thiscall bncs_stylesheet::~bncs_stylesheet(void))
       41    ??1complexInstance@@UAE@XZ (public: virtual __thiscall complexInstance::~complexInstance(void))
       42    ??1complexParam@@UAE@XZ (public: virtual __thiscall complexParam::~complexParam(void))
       43    ??1complexType@@UAE@XZ (public: virtual __thiscall complexType::~complexType(void))
       44    ??1deviceTypeInfo@@UAE@XZ (public: virtual __thiscall deviceTypeInfo::~deviceTypeInfo(void))
       45    ??1instanceInfo@@UAE@XZ (public: virtual __thiscall instanceInfo::~instanceInfo(void))
       46    ??1paramInfo@@UAE@XZ (public: virtual __thiscall paramInfo::~paramInfo(void))
       47    ??1styleentry@@QAE@XZ (public: __thiscall styleentry::~styleentry(void))
       48    ??4?$QMap@VQString@@VcomplexInstance@@@@QAEAAV0@ABV0@@Z (public: class QMap<class QString,class complexInstance> & __thiscall QMap<class QString,class complexInstance>::operator=(class QMap<class QString,class complexInstance> const &))
       49    ??4?$QMap@VQString@@VcomplexParam@@@@QAEAAV0@ABV0@@Z (public: class QMap<class QString,class complexParam> & __thiscall QMap<class QString,class complexParam>::operator=(class QMap<class QString,class complexParam> const &))
       50    ??4?$QMap@VQString@@VcomplexType@@@@QAEAAV0@ABV0@@Z (public: class QMap<class QString,class complexType> & __thiscall QMap<class QString,class complexType>::operator=(class QMap<class QString,class complexType> const &))
       51    ??4?$QMap@VQString@@VdeviceTypeInfo@@@@QAEAAV0@ABV0@@Z (public: class QMap<class QString,class deviceTypeInfo> & __thiscall QMap<class QString,class deviceTypeInfo>::operator=(class QMap<class QString,class deviceTypeInfo> const &))
       52    ??4?$QMap@VQString@@VinstanceInfo@@@@QAEAAV0@ABV0@@Z (public: class QMap<class QString,class instanceInfo> & __thiscall QMap<class QString,class instanceInfo>::operator=(class QMap<class QString,class instanceInfo> const &))
       53    ??4?$QMap@VQString@@VparamInfo@@@@QAEAAV0@ABV0@@Z (public: class QMap<class QString,class paramInfo> & __thiscall QMap<class QString,class paramInfo>::operator=(class QMap<class QString,class paramInfo> const &))
       54    ??4?$QMap@VQString@@Vstyleentry@@@@QAEAAV0@ABV0@@Z (public: class QMap<class QString,class styleentry> & __thiscall QMap<class QString,class styleentry>::operator=(class QMap<class QString,class styleentry> const &))
       55    ??4bncs_instance_lookup@@QAEAAV0@ABV0@@Z (public: class bncs_instance_lookup & __thiscall bncs_instance_lookup::operator=(class bncs_instance_lookup const &))
       56    ??4bncs_stylesheet@@QAEAAV0@ABV0@@Z (public: class bncs_stylesheet & __thiscall bncs_stylesheet::operator=(class bncs_stylesheet const &))
       57    ??4complexInstance@@QAEAAV0@ABV0@@Z (public: class complexInstance & __thiscall complexInstance::operator=(class complexInstance const &))
       58    ??4complexParam@@QAEAAV0@ABV0@@Z (public: class complexParam & __thiscall complexParam::operator=(class complexParam const &))
       59    ??4complexType@@QAEAAV0@ABV0@@Z (public: class complexType & __thiscall complexType::operator=(class complexType const &))
       60    ??4deviceTypeInfo@@QAEAAV0@ABV0@@Z (public: class deviceTypeInfo & __thiscall deviceTypeInfo::operator=(class deviceTypeInfo const &))
       61    ??4instanceInfo@@QAEAAV0@ABV0@@Z (public: class instanceInfo & __thiscall instanceInfo::operator=(class instanceInfo const &))
       62    ??4paramInfo@@QAEAAV0@ABV0@@Z (public: class paramInfo & __thiscall paramInfo::operator=(class paramInfo const &))
       63    ??4styleentry@@QAEAAV0@ABV0@@Z (public: class styleentry & __thiscall styleentry::operator=(class styleentry const &))
       64    ??A?$QMap@VQString@@VcomplexInstance@@@@QAEAAVcomplexInstance@@ABVQString@@@Z (public: class complexInstance & __thiscall QMap<class QString,class complexInstance>::operator[](class QString const &))
       65    ??A?$QMap@VQString@@VcomplexInstance@@@@QBEABVcomplexInstance@@ABVQString@@@Z (public: class complexInstance const & __thiscall QMap<class QString,class complexInstance>::operator[](class QString const &)const )
       66    ??A?$QMap@VQString@@VcomplexParam@@@@QAEAAVcomplexParam@@ABVQString@@@Z (public: class complexParam & __thiscall QMap<class QString,class complexParam>::operator[](class QString const &))
       67    ??A?$QMap@VQString@@VcomplexParam@@@@QBEABVcomplexParam@@ABVQString@@@Z (public: class complexParam const & __thiscall QMap<class QString,class complexParam>::operator[](class QString const &)const )
       68    ??A?$QMap@VQString@@VcomplexType@@@@QAEAAVcomplexType@@ABVQString@@@Z (public: class complexType & __thiscall QMap<class QString,class complexType>::operator[](class QString const &))
       69    ??A?$QMap@VQString@@VcomplexType@@@@QBEABVcomplexType@@ABVQString@@@Z (public: class complexType const & __thiscall QMap<class QString,class complexType>::operator[](class QString const &)const )
       70    ??A?$QMap@VQString@@VdeviceTypeInfo@@@@QAEAAVdeviceTypeInfo@@ABVQString@@@Z (public: class deviceTypeInfo & __thiscall QMap<class QString,class deviceTypeInfo>::operator[](class QString const &))
       71    ??A?$QMap@VQString@@VdeviceTypeInfo@@@@QBEABVdeviceTypeInfo@@ABVQString@@@Z (public: class deviceTypeInfo const & __thiscall QMap<class QString,class deviceTypeInfo>::operator[](class QString const &)const )
       72    ??A?$QMap@VQString@@VinstanceInfo@@@@QAEAAVinstanceInfo@@ABVQString@@@Z (public: class instanceInfo & __thiscall QMap<class QString,class instanceInfo>::operator[](class QString const &))
       73    ??A?$QMap@VQString@@VinstanceInfo@@@@QBEABVinstanceInfo@@ABVQString@@@Z (public: class instanceInfo const & __thiscall QMap<class QString,class instanceInfo>::operator[](class QString const &)const )
       74    ??A?$QMap@VQString@@VparamInfo@@@@QAEAAVparamInfo@@ABVQString@@@Z (public: class paramInfo & __thiscall QMap<class QString,class paramInfo>::operator[](class QString const &))
       75    ??A?$QMap@VQString@@VparamInfo@@@@QBEABVparamInfo@@ABVQString@@@Z (public: class paramInfo const & __thiscall QMap<class QString,class paramInfo>::operator[](class QString const &)const )
       76    ??A?$QMap@VQString@@Vstyleentry@@@@QAEAAVstyleentry@@ABVQString@@@Z (public: class styleentry & __thiscall QMap<class QString,class styleentry>::operator[](class QString const &))
       77    ??A?$QMap@VQString@@Vstyleentry@@@@QBEABVstyleentry@@ABVQString@@@Z (public: class styleentry const & __thiscall QMap<class QString,class styleentry>::operator[](class QString const &)const )
       78    ??_7bncs_instance_lookup@@6B@ (const bncs_instance_lookup::`vftable')
       79    ??_7complexInstance@@6B@ (const complexInstance::`vftable')
       80    ??_7complexParam@@6B@ (const complexParam::`vftable')
       81    ??_7complexType@@6B@ (const complexType::`vftable')
       82    ??_7deviceTypeInfo@@6B@ (const deviceTypeInfo::`vftable')
       83    ??_7instanceInfo@@6B@ (const instanceInfo::`vftable')
       84    ??_7paramInfo@@6B@ (const paramInfo::`vftable')
       85    ?begin@?$QMap@VQString@@VcomplexInstance@@@@QAE?AV?$QMapIterator@VQString@@VcomplexInstance@@@@XZ (public: class QMapIterator<class QString,class complexInstance> __thiscall QMap<class QString,class complexInstance>::begin(void))
       86    ?begin@?$QMap@VQString@@VcomplexInstance@@@@QBE?AV?$QMapConstIterator@VQString@@VcomplexInstance@@@@XZ (public: class QMapConstIterator<class QString,class complexInstance> __thiscall QMap<class QString,class complexInstance>::begin(void)const )
       87    ?begin@?$QMap@VQString@@VcomplexParam@@@@QAE?AV?$QMapIterator@VQString@@VcomplexParam@@@@XZ (public: class QMapIterator<class QString,class complexParam> __thiscall QMap<class QString,class complexParam>::begin(void))
       88    ?begin@?$QMap@VQString@@VcomplexParam@@@@QBE?AV?$QMapConstIterator@VQString@@VcomplexParam@@@@XZ (public: class QMapConstIterator<class QString,class complexParam> __thiscall QMap<class QString,class complexParam>::begin(void)const )
       89    ?begin@?$QMap@VQString@@VcomplexType@@@@QAE?AV?$QMapIterator@VQString@@VcomplexType@@@@XZ (public: class QMapIterator<class QString,class complexType> __thiscall QMap<class QString,class complexType>::begin(void))
       90    ?begin@?$QMap@VQString@@VcomplexType@@@@QBE?AV?$QMapConstIterator@VQString@@VcomplexType@@@@XZ (public: class QMapConstIterator<class QString,class complexType> __thiscall QMap<class QString,class complexType>::begin(void)const )
       91    ?begin@?$QMap@VQString@@VdeviceTypeInfo@@@@QAE?AV?$QMapIterator@VQString@@VdeviceTypeInfo@@@@XZ (public: class QMapIterator<class QString,class deviceTypeInfo> __thiscall QMap<class QString,class deviceTypeInfo>::begin(void))
       92    ?begin@?$QMap@VQString@@VdeviceTypeInfo@@@@QBE?AV?$QMapConstIterator@VQString@@VdeviceTypeInfo@@@@XZ (public: class QMapConstIterator<class QString,class deviceTypeInfo> __thiscall QMap<class QString,class deviceTypeInfo>::begin(void)const )
       93    ?begin@?$QMap@VQString@@VinstanceInfo@@@@QAE?AV?$QMapIterator@VQString@@VinstanceInfo@@@@XZ (public: class QMapIterator<class QString,class instanceInfo> __thiscall QMap<class QString,class instanceInfo>::begin(void))
       94    ?begin@?$QMap@VQString@@VinstanceInfo@@@@QBE?AV?$QMapConstIterator@VQString@@VinstanceInfo@@@@XZ (public: class QMapConstIterator<class QString,class instanceInfo> __thiscall QMap<class QString,class instanceInfo>::begin(void)const )
       95    ?begin@?$QMap@VQString@@VparamInfo@@@@QAE?AV?$QMapIterator@VQString@@VparamInfo@@@@XZ (public: class QMapIterator<class QString,class paramInfo> __thiscall QMap<class QString,class paramInfo>::begin(void))
       96    ?begin@?$QMap@VQString@@VparamInfo@@@@QBE?AV?$QMapConstIterator@VQString@@VparamInfo@@@@XZ (public: class QMapConstIterator<class QString,class paramInfo> __thiscall QMap<class QString,class paramInfo>::begin(void)const )
       97    ?begin@?$QMap@VQString@@Vstyleentry@@@@QAE?AV?$QMapIterator@VQString@@Vstyleentry@@@@XZ (public: class QMapIterator<class QString,class styleentry> __thiscall QMap<class QString,class styleentry>::begin(void))
       98    ?begin@?$QMap@VQString@@Vstyleentry@@@@QBE?AV?$QMapConstIterator@VQString@@Vstyleentry@@@@XZ (public: class QMapConstIterator<class QString,class styleentry> __thiscall QMap<class QString,class styleentry>::begin(void)const )
       99    ?clear@?$QMap@VQString@@VcomplexInstance@@@@QAEXXZ (public: void __thiscall QMap<class QString,class complexInstance>::clear(void))
      100    ?clear@?$QMap@VQString@@VcomplexParam@@@@QAEXXZ (public: void __thiscall QMap<class QString,class complexParam>::clear(void))
      101    ?clear@?$QMap@VQString@@VcomplexType@@@@QAEXXZ (public: void __thiscall QMap<class QString,class complexType>::clear(void))
      102    ?clear@?$QMap@VQString@@VdeviceTypeInfo@@@@QAEXXZ (public: void __thiscall QMap<class QString,class deviceTypeInfo>::clear(void))
      103    ?clear@?$QMap@VQString@@VinstanceInfo@@@@QAEXXZ (public: void __thiscall QMap<class QString,class instanceInfo>::clear(void))
      104    ?clear@?$QMap@VQString@@VparamInfo@@@@QAEXXZ (public: void __thiscall QMap<class QString,class paramInfo>::clear(void))
      105    ?clear@?$QMap@VQString@@Vstyleentry@@@@QAEXXZ (public: void __thiscall QMap<class QString,class styleentry>::clear(void))
      106    ?complexTypes@bncs_instance_lookup@@2V?$QMap@VQString@@VcomplexType@@@@A (public: static class QMap<class QString,class complexType> bncs_instance_lookup::complexTypes)
      107    ?constBegin@?$QMap@VQString@@VcomplexInstance@@@@QBE?AV?$QMapConstIterator@VQString@@VcomplexInstance@@@@XZ (public: class QMapConstIterator<class QString,class complexInstance> __thiscall QMap<class QString,class complexInstance>::constBegin(void)const )
      108    ?constBegin@?$QMap@VQString@@VcomplexParam@@@@QBE?AV?$QMapConstIterator@VQString@@VcomplexParam@@@@XZ (public: class QMapConstIterator<class QString,class complexParam> __thiscall QMap<class QString,class complexParam>::constBegin(void)const )
      109    ?constBegin@?$QMap@VQString@@VcomplexType@@@@QBE?AV?$QMapConstIterator@VQString@@VcomplexType@@@@XZ (public: class QMapConstIterator<class QString,class complexType> __thiscall QMap<class QString,class complexType>::constBegin(void)const )
      110    ?constBegin@?$QMap@VQString@@VdeviceTypeInfo@@@@QBE?AV?$QMapConstIterator@VQString@@VdeviceTypeInfo@@@@XZ (public: class QMapConstIterator<class QString,class deviceTypeInfo> __thiscall QMap<class QString,class deviceTypeInfo>::constBegin(void)const )
      111    ?constBegin@?$QMap@VQString@@VinstanceInfo@@@@QBE?AV?$QMapConstIterator@VQString@@VinstanceInfo@@@@XZ (public: class QMapConstIterator<class QString,class instanceInfo> __thiscall QMap<class QString,class instanceInfo>::constBegin(void)const )
      112    ?constBegin@?$QMap@VQString@@VparamInfo@@@@QBE?AV?$QMapConstIterator@VQString@@VparamInfo@@@@XZ (public: class QMapConstIterator<class QString,class paramInfo> __thiscall QMap<class QString,class paramInfo>::constBegin(void)const )
      113    ?constBegin@?$QMap@VQString@@Vstyleentry@@@@QBE?AV?$QMapConstIterator@VQString@@Vstyleentry@@@@XZ (public: class QMapConstIterator<class QString,class styleentry> __thiscall QMap<class QString,class styleentry>::constBegin(void)const )
      114    ?constEnd@?$QMap@VQString@@VcomplexInstance@@@@QBE?AV?$QMapConstIterator@VQString@@VcomplexInstance@@@@XZ (public: class QMapConstIterator<class QString,class complexInstance> __thiscall QMap<class QString,class complexInstance>::constEnd(void)const )
      115    ?constEnd@?$QMap@VQString@@VcomplexParam@@@@QBE?AV?$QMapConstIterator@VQString@@VcomplexParam@@@@XZ (public: class QMapConstIterator<class QString,class complexParam> __thiscall QMap<class QString,class complexParam>::constEnd(void)const )
      116    ?constEnd@?$QMap@VQString@@VcomplexType@@@@QBE?AV?$QMapConstIterator@VQString@@VcomplexType@@@@XZ (public: class QMapConstIterator<class QString,class complexType> __thiscall QMap<class QString,class complexType>::constEnd(void)const )
      117    ?constEnd@?$QMap@VQString@@VdeviceTypeInfo@@@@QBE?AV?$QMapConstIterator@VQString@@VdeviceTypeInfo@@@@XZ (public: class QMapConstIterator<class QString,class deviceTypeInfo> __thiscall QMap<class QString,class deviceTypeInfo>::constEnd(void)const )
      118    ?constEnd@?$QMap@VQString@@VinstanceInfo@@@@QBE?AV?$QMapConstIterator@VQString@@VinstanceInfo@@@@XZ (public: class QMapConstIterator<class QString,class instanceInfo> __thiscall QMap<class QString,class instanceInfo>::constEnd(void)const )
      119    ?constEnd@?$QMap@VQString@@VparamInfo@@@@QBE?AV?$QMapConstIterator@VQString@@VparamInfo@@@@XZ (public: class QMapConstIterator<class QString,class paramInfo> __thiscall QMap<class QString,class paramInfo>::constEnd(void)const )
      120    ?constEnd@?$QMap@VQString@@Vstyleentry@@@@QBE?AV?$QMapConstIterator@VQString@@Vstyleentry@@@@XZ (public: class QMapConstIterator<class QString,class styleentry> __thiscall QMap<class QString,class styleentry>::constEnd(void)const )
      121    ?contains@?$QMap@VQString@@VcomplexInstance@@@@QBE_NABVQString@@@Z (public: bool __thiscall QMap<class QString,class complexInstance>::contains(class QString const &)const )
      122    ?contains@?$QMap@VQString@@VcomplexParam@@@@QBE_NABVQString@@@Z (public: bool __thiscall QMap<class QString,class complexParam>::contains(class QString const &)const )
      123    ?contains@?$QMap@VQString@@VcomplexType@@@@QBE_NABVQString@@@Z (public: bool __thiscall QMap<class QString,class complexType>::contains(class QString const &)const )
      124    ?contains@?$QMap@VQString@@VdeviceTypeInfo@@@@QBE_NABVQString@@@Z (public: bool __thiscall QMap<class QString,class deviceTypeInfo>::contains(class QString const &)const )
      125    ?contains@?$QMap@VQString@@VinstanceInfo@@@@QBE_NABVQString@@@Z (public: bool __thiscall QMap<class QString,class instanceInfo>::contains(class QString const &)const )
      126    ?contains@?$QMap@VQString@@VparamInfo@@@@QBE_NABVQString@@@Z (public: bool __thiscall QMap<class QString,class paramInfo>::contains(class QString const &)const )
      127    ?contains@?$QMap@VQString@@Vstyleentry@@@@QBE_NABVQString@@@Z (public: bool __thiscall QMap<class QString,class styleentry>::contains(class QString const &)const )
      128    ?count@?$QMap@VQString@@VcomplexInstance@@@@QBEIABVQString@@@Z (public: unsigned int __thiscall QMap<class QString,class complexInstance>::count(class QString const &)const )
      129    ?count@?$QMap@VQString@@VcomplexInstance@@@@QBEIXZ (public: unsigned int __thiscall QMap<class QString,class complexInstance>::count(void)const )
      130    ?count@?$QMap@VQString@@VcomplexParam@@@@QBEIABVQString@@@Z (public: unsigned int __thiscall QMap<class QString,class complexParam>::count(class QString const &)const )
      131    ?count@?$QMap@VQString@@VcomplexParam@@@@QBEIXZ (public: unsigned int __thiscall QMap<class QString,class complexParam>::count(void)const )
      132    ?count@?$QMap@VQString@@VcomplexType@@@@QBEIABVQString@@@Z (public: unsigned int __thiscall QMap<class QString,class complexType>::count(class QString const &)const )
      133    ?count@?$QMap@VQString@@VcomplexType@@@@QBEIXZ (public: unsigned int __thiscall QMap<class QString,class complexType>::count(void)const )
      134    ?count@?$QMap@VQString@@VdeviceTypeInfo@@@@QBEIABVQString@@@Z (public: unsigned int __thiscall QMap<class QString,class deviceTypeInfo>::count(class QString const &)const )
      135    ?count@?$QMap@VQString@@VdeviceTypeInfo@@@@QBEIXZ (public: unsigned int __thiscall QMap<class QString,class deviceTypeInfo>::count(void)const )
      136    ?count@?$QMap@VQString@@VinstanceInfo@@@@QBEIABVQString@@@Z (public: unsigned int __thiscall QMap<class QString,class instanceInfo>::count(class QString const &)const )
      137    ?count@?$QMap@VQString@@VinstanceInfo@@@@QBEIXZ (public: unsigned int __thiscall QMap<class QString,class instanceInfo>::count(void)const )
      138    ?count@?$QMap@VQString@@VparamInfo@@@@QBEIABVQString@@@Z (public: unsigned int __thiscall QMap<class QString,class paramInfo>::count(class QString const &)const )
      139    ?count@?$QMap@VQString@@VparamInfo@@@@QBEIXZ (public: unsigned int __thiscall QMap<class QString,class paramInfo>::count(void)const )
      140    ?count@?$QMap@VQString@@Vstyleentry@@@@QBEIABVQString@@@Z (public: unsigned int __thiscall QMap<class QString,class styleentry>::count(class QString const &)const )
      141    ?count@?$QMap@VQString@@Vstyleentry@@@@QBEIXZ (public: unsigned int __thiscall QMap<class QString,class styleentry>::count(void)const )
      142    ?count@bncs_stylesheet@@SAHXZ (public: static int __cdecl bncs_stylesheet::count(void))
      143    ?countComplexTypes@bncs_instance_lookup@@SAHXZ (public: static int __cdecl bncs_instance_lookup::countComplexTypes(void))
      144    ?countDeviceTypes@bncs_instance_lookup@@SAHXZ (public: static int __cdecl bncs_instance_lookup::countDeviceTypes(void))
      145    ?countInstances@bncs_instance_lookup@@SAHXZ (public: static int __cdecl bncs_instance_lookup::countInstances(void))
      146    ?deleteStyle@bncs_stylesheet@@QAEXVQString@@@Z (public: void __thiscall bncs_stylesheet::deleteStyle(class QString))
      147    ?detach@?$QMap@VQString@@VcomplexInstance@@@@IAEXXZ (protected: void __thiscall QMap<class QString,class complexInstance>::detach(void))
      148    ?detach@?$QMap@VQString@@VcomplexParam@@@@IAEXXZ (protected: void __thiscall QMap<class QString,class complexParam>::detach(void))
      149    ?detach@?$QMap@VQString@@VcomplexType@@@@IAEXXZ (protected: void __thiscall QMap<class QString,class complexType>::detach(void))
      150    ?detach@?$QMap@VQString@@VdeviceTypeInfo@@@@IAEXXZ (protected: void __thiscall QMap<class QString,class deviceTypeInfo>::detach(void))
      151    ?detach@?$QMap@VQString@@VinstanceInfo@@@@IAEXXZ (protected: void __thiscall QMap<class QString,class instanceInfo>::detach(void))
      152    ?detach@?$QMap@VQString@@VparamInfo@@@@IAEXXZ (protected: void __thiscall QMap<class QString,class paramInfo>::detach(void))
      153    ?detach@?$QMap@VQString@@Vstyleentry@@@@IAEXXZ (protected: void __thiscall QMap<class QString,class styleentry>::detach(void))
      154    ?detachInternal@?$QMap@VQString@@VcomplexInstance@@@@AAEXXZ (private: void __thiscall QMap<class QString,class complexInstance>::detachInternal(void))
      155    ?detachInternal@?$QMap@VQString@@VcomplexParam@@@@AAEXXZ (private: void __thiscall QMap<class QString,class complexParam>::detachInternal(void))
      156    ?detachInternal@?$QMap@VQString@@VcomplexType@@@@AAEXXZ (private: void __thiscall QMap<class QString,class complexType>::detachInternal(void))
      157    ?detachInternal@?$QMap@VQString@@VdeviceTypeInfo@@@@AAEXXZ (private: void __thiscall QMap<class QString,class deviceTypeInfo>::detachInternal(void))
      158    ?detachInternal@?$QMap@VQString@@VinstanceInfo@@@@AAEXXZ (private: void __thiscall QMap<class QString,class instanceInfo>::detachInternal(void))
      159    ?detachInternal@?$QMap@VQString@@VparamInfo@@@@AAEXXZ (private: void __thiscall QMap<class QString,class paramInfo>::detachInternal(void))
      160    ?detachInternal@?$QMap@VQString@@Vstyleentry@@@@AAEXXZ (private: void __thiscall QMap<class QString,class styleentry>::detachInternal(void))
      161    ?deviceTypes@bncs_instance_lookup@@2V?$QMap@VQString@@VdeviceTypeInfo@@@@A (public: static class QMap<class QString,class deviceTypeInfo> bncs_instance_lookup::deviceTypes)
      162    ?doLoad@bncs_stylesheet@@SA_NXZ (public: static bool __cdecl bncs_stylesheet::doLoad(void))
      163    ?dump@bncs_instance_lookup@@SAXXZ (public: static void __cdecl bncs_instance_lookup::dump(void))
      164    ?empty@?$QMap@VQString@@VcomplexInstance@@@@QBE_NXZ (public: bool __thiscall QMap<class QString,class complexInstance>::empty(void)const )
      165    ?empty@?$QMap@VQString@@VcomplexParam@@@@QBE_NXZ (public: bool __thiscall QMap<class QString,class complexParam>::empty(void)const )
      166    ?empty@?$QMap@VQString@@VcomplexType@@@@QBE_NXZ (public: bool __thiscall QMap<class QString,class complexType>::empty(void)const )
      167    ?empty@?$QMap@VQString@@VdeviceTypeInfo@@@@QBE_NXZ (public: bool __thiscall QMap<class QString,class deviceTypeInfo>::empty(void)const )
      168    ?empty@?$QMap@VQString@@VinstanceInfo@@@@QBE_NXZ (public: bool __thiscall QMap<class QString,class instanceInfo>::empty(void)const )
      169    ?empty@?$QMap@VQString@@VparamInfo@@@@QBE_NXZ (public: bool __thiscall QMap<class QString,class paramInfo>::empty(void)const )
      170    ?empty@?$QMap@VQString@@Vstyleentry@@@@QBE_NXZ (public: bool __thiscall QMap<class QString,class styleentry>::empty(void)const )
      171    ?end@?$QMap@VQString@@VcomplexInstance@@@@QAE?AV?$QMapIterator@VQString@@VcomplexInstance@@@@XZ (public: class QMapIterator<class QString,class complexInstance> __thiscall QMap<class QString,class complexInstance>::end(void))
      172    ?end@?$QMap@VQString@@VcomplexInstance@@@@QBE?AV?$QMapConstIterator@VQString@@VcomplexInstance@@@@XZ (public: class QMapConstIterator<class QString,class complexInstance> __thiscall QMap<class QString,class complexInstance>::end(void)const )
      173    ?end@?$QMap@VQString@@VcomplexParam@@@@QAE?AV?$QMapIterator@VQString@@VcomplexParam@@@@XZ (public: class QMapIterator<class QString,class complexParam> __thiscall QMap<class QString,class complexParam>::end(void))
      174    ?end@?$QMap@VQString@@VcomplexParam@@@@QBE?AV?$QMapConstIterator@VQString@@VcomplexParam@@@@XZ (public: class QMapConstIterator<class QString,class complexParam> __thiscall QMap<class QString,class complexParam>::end(void)const )
      175    ?end@?$QMap@VQString@@VcomplexType@@@@QAE?AV?$QMapIterator@VQString@@VcomplexType@@@@XZ (public: class QMapIterator<class QString,class complexType> __thiscall QMap<class QString,class complexType>::end(void))
      176    ?end@?$QMap@VQString@@VcomplexType@@@@QBE?AV?$QMapConstIterator@VQString@@VcomplexType@@@@XZ (public: class QMapConstIterator<class QString,class complexType> __thiscall QMap<class QString,class complexType>::end(void)const )
      177    ?end@?$QMap@VQString@@VdeviceTypeInfo@@@@QAE?AV?$QMapIterator@VQString@@VdeviceTypeInfo@@@@XZ (public: class QMapIterator<class QString,class deviceTypeInfo> __thiscall QMap<class QString,class deviceTypeInfo>::end(void))
      178    ?end@?$QMap@VQString@@VdeviceTypeInfo@@@@QBE?AV?$QMapConstIterator@VQString@@VdeviceTypeInfo@@@@XZ (public: class QMapConstIterator<class QString,class deviceTypeInfo> __thiscall QMap<class QString,class deviceTypeInfo>::end(void)const )
      179    ?end@?$QMap@VQString@@VinstanceInfo@@@@QAE?AV?$QMapIterator@VQString@@VinstanceInfo@@@@XZ (public: class QMapIterator<class QString,class instanceInfo> __thiscall QMap<class QString,class instanceInfo>::end(void))
      180    ?end@?$QMap@VQString@@VinstanceInfo@@@@QBE?AV?$QMapConstIterator@VQString@@VinstanceInfo@@@@XZ (public: class QMapConstIterator<class QString,class instanceInfo> __thiscall QMap<class QString,class instanceInfo>::end(void)const )
      181    ?end@?$QMap@VQString@@VparamInfo@@@@QAE?AV?$QMapIterator@VQString@@VparamInfo@@@@XZ (public: class QMapIterator<class QString,class paramInfo> __thiscall QMap<class QString,class paramInfo>::end(void))
      182    ?end@?$QMap@VQString@@VparamInfo@@@@QBE?AV?$QMapConstIterator@VQString@@VparamInfo@@@@XZ (public: class QMapConstIterator<class QString,class paramInfo> __thiscall QMap<class QString,class paramInfo>::end(void)const )
      183    ?end@?$QMap@VQString@@Vstyleentry@@@@QAE?AV?$QMapIterator@VQString@@Vstyleentry@@@@XZ (public: class QMapIterator<class QString,class styleentry> __thiscall QMap<class QString,class styleentry>::end(void))
      184    ?end@?$QMap@VQString@@Vstyleentry@@@@QBE?AV?$QMapConstIterator@VQString@@Vstyleentry@@@@XZ (public: class QMapConstIterator<class QString,class styleentry> __thiscall QMap<class QString,class styleentry>::end(void)const )
      185    ?erase@?$QMap@VQString@@VcomplexInstance@@@@QAEXABVQString@@@Z (public: void __thiscall QMap<class QString,class complexInstance>::erase(class QString const &))
      186    ?erase@?$QMap@VQString@@VcomplexInstance@@@@QAEXV?$QMapIterator@VQString@@VcomplexInstance@@@@@Z (public: void __thiscall QMap<class QString,class complexInstance>::erase(class QMapIterator<class QString,class complexInstance>))
      187    ?erase@?$QMap@VQString@@VcomplexParam@@@@QAEXABVQString@@@Z (public: void __thiscall QMap<class QString,class complexParam>::erase(class QString const &))
      188    ?erase@?$QMap@VQString@@VcomplexParam@@@@QAEXV?$QMapIterator@VQString@@VcomplexParam@@@@@Z (public: void __thiscall QMap<class QString,class complexParam>::erase(class QMapIterator<class QString,class complexParam>))
      189    ?erase@?$QMap@VQString@@VcomplexType@@@@QAEXABVQString@@@Z (public: void __thiscall QMap<class QString,class complexType>::erase(class QString const &))
      190    ?erase@?$QMap@VQString@@VcomplexType@@@@QAEXV?$QMapIterator@VQString@@VcomplexType@@@@@Z (public: void __thiscall QMap<class QString,class complexType>::erase(class QMapIterator<class QString,class complexType>))
      191    ?erase@?$QMap@VQString@@VdeviceTypeInfo@@@@QAEXABVQString@@@Z (public: void __thiscall QMap<class QString,class deviceTypeInfo>::erase(class QString const &))
      192    ?erase@?$QMap@VQString@@VdeviceTypeInfo@@@@QAEXV?$QMapIterator@VQString@@VdeviceTypeInfo@@@@@Z (public: void __thiscall QMap<class QString,class deviceTypeInfo>::erase(class QMapIterator<class QString,class deviceTypeInfo>))
      193    ?erase@?$QMap@VQString@@VinstanceInfo@@@@QAEXABVQString@@@Z (public: void __thiscall QMap<class QString,class instanceInfo>::erase(class QString const &))
      194    ?erase@?$QMap@VQString@@VinstanceInfo@@@@QAEXV?$QMapIterator@VQString@@VinstanceInfo@@@@@Z (public: void __thiscall QMap<class QString,class instanceInfo>::erase(class QMapIterator<class QString,class instanceInfo>))
      195    ?erase@?$QMap@VQString@@VparamInfo@@@@QAEXABVQString@@@Z (public: void __thiscall QMap<class QString,class paramInfo>::erase(class QString const &))
      196    ?erase@?$QMap@VQString@@VparamInfo@@@@QAEXV?$QMapIterator@VQString@@VparamInfo@@@@@Z (public: void __thiscall QMap<class QString,class paramInfo>::erase(class QMapIterator<class QString,class paramInfo>))
      197    ?erase@?$QMap@VQString@@Vstyleentry@@@@QAEXABVQString@@@Z (public: void __thiscall QMap<class QString,class styleentry>::erase(class QString const &))
      198    ?erase@?$QMap@VQString@@Vstyleentry@@@@QAEXV?$QMapIterator@VQString@@Vstyleentry@@@@@Z (public: void __thiscall QMap<class QString,class styleentry>::erase(class QMapIterator<class QString,class styleentry>))
      199    ?find@?$QMap@VQString@@VcomplexInstance@@@@QAE?AV?$QMapIterator@VQString@@VcomplexInstance@@@@ABVQString@@@Z (public: class QMapIterator<class QString,class complexInstance> __thiscall QMap<class QString,class complexInstance>::find(class QString const &))
      200    ?find@?$QMap@VQString@@VcomplexInstance@@@@QBE?AV?$QMapConstIterator@VQString@@VcomplexInstance@@@@ABVQString@@@Z (public: class QMapConstIterator<class QString,class complexInstance> __thiscall QMap<class QString,class complexInstance>::find(class QString const &)const )
      201    ?find@?$QMap@VQString@@VcomplexParam@@@@QAE?AV?$QMapIterator@VQString@@VcomplexParam@@@@ABVQString@@@Z (public: class QMapIterator<class QString,class complexParam> __thiscall QMap<class QString,class complexParam>::find(class QString const &))
      202    ?find@?$QMap@VQString@@VcomplexParam@@@@QBE?AV?$QMapConstIterator@VQString@@VcomplexParam@@@@ABVQString@@@Z (public: class QMapConstIterator<class QString,class complexParam> __thiscall QMap<class QString,class complexParam>::find(class QString const &)const )
      203    ?find@?$QMap@VQString@@VcomplexType@@@@QAE?AV?$QMapIterator@VQString@@VcomplexType@@@@ABVQString@@@Z (public: class QMapIterator<class QString,class complexType> __thiscall QMap<class QString,class complexType>::find(class QString const &))
      204    ?find@?$QMap@VQString@@VcomplexType@@@@QBE?AV?$QMapConstIterator@VQString@@VcomplexType@@@@ABVQString@@@Z (public: class QMapConstIterator<class QString,class complexType> __thiscall QMap<class QString,class complexType>::find(class QString const &)const )
      205    ?find@?$QMap@VQString@@VdeviceTypeInfo@@@@QAE?AV?$QMapIterator@VQString@@VdeviceTypeInfo@@@@ABVQString@@@Z (public: class QMapIterator<class QString,class deviceTypeInfo> __thiscall QMap<class QString,class deviceTypeInfo>::find(class QString const &))
      206    ?find@?$QMap@VQString@@VdeviceTypeInfo@@@@QBE?AV?$QMapConstIterator@VQString@@VdeviceTypeInfo@@@@ABVQString@@@Z (public: class QMapConstIterator<class QString,class deviceTypeInfo> __thiscall QMap<class QString,class deviceTypeInfo>::find(class QString const &)const )
      207    ?find@?$QMap@VQString@@VinstanceInfo@@@@QAE?AV?$QMapIterator@VQString@@VinstanceInfo@@@@ABVQString@@@Z (public: class QMapIterator<class QString,class instanceInfo> __thiscall QMap<class QString,class instanceInfo>::find(class QString const &))
      208    ?find@?$QMap@VQString@@VinstanceInfo@@@@QBE?AV?$QMapConstIterator@VQString@@VinstanceInfo@@@@ABVQString@@@Z (public: class QMapConstIterator<class QString,class instanceInfo> __thiscall QMap<class QString,class instanceInfo>::find(class QString const &)const )
      209    ?find@?$QMap@VQString@@VparamInfo@@@@QAE?AV?$QMapIterator@VQString@@VparamInfo@@@@ABVQString@@@Z (public: class QMapIterator<class QString,class paramInfo> __thiscall QMap<class QString,class paramInfo>::find(class QString const &))
      210    ?find@?$QMap@VQString@@VparamInfo@@@@QBE?AV?$QMapConstIterator@VQString@@VparamInfo@@@@ABVQString@@@Z (public: class QMapConstIterator<class QString,class paramInfo> __thiscall QMap<class QString,class paramInfo>::find(class QString const &)const )
      211    ?find@?$QMap@VQString@@Vstyleentry@@@@QAE?AV?$QMapIterator@VQString@@Vstyleentry@@@@ABVQString@@@Z (public: class QMapIterator<class QString,class styleentry> __thiscall QMap<class QString,class styleentry>::find(class QString const &))
      212    ?find@?$QMap@VQString@@Vstyleentry@@@@QBE?AV?$QMapConstIterator@VQString@@Vstyleentry@@@@ABVQString@@@Z (public: class QMapConstIterator<class QString,class styleentry> __thiscall QMap<class QString,class styleentry>::find(class QString const &)const )
      213    ?get@bncs_stylesheet@@QAEXAAVQString@@PAVQWidget@@@Z (public: void __thiscall bncs_stylesheet::get(class QString &,class QWidget *))
      214    ?getInstanceInfo@bncs_instance_lookup@@SA_NABVQString@@PAPAVinstanceInfo@@@Z (public: static bool __cdecl bncs_instance_lookup::getInstanceInfo(class QString const &,class instanceInfo * *))
      215    ?getStyle@bncs_stylesheet@@SAXAAVQString@@PAVQWidget@@@Z (public: static void __cdecl bncs_stylesheet::getStyle(class QString &,class QWidget *))
      216    ?getStyleEntry@bncs_stylesheet@@QAEPAVstyleentry@@VQString@@@Z (public: class styleentry * __thiscall bncs_stylesheet::getStyleEntry(class QString))
      217    ?insert@?$QMap@VQString@@VcomplexInstance@@@@QAE?AU?$QPair@V?$QMapIterator@VQString@@VcomplexInstance@@@@_N@@ABU?$QPair@$$CBVQString@@VcomplexInstance@@@@@Z (public: struct QPair<class QMapIterator<class QString,class complexInstance>,bool> __thiscall QMap<class QString,class complexInstance>::insert(struct QPair<class QString const ,class complexInstance> const &))
      218    ?insert@?$QMap@VQString@@VcomplexInstance@@@@QAE?AV?$QMapIterator@VQString@@VcomplexInstance@@@@ABVQString@@ABVcomplexInstance@@_N@Z (public: class QMapIterator<class QString,class complexInstance> __thiscall QMap<class QString,class complexInstance>::insert(class QString const &,class complexInstance const &,bool))
      219    ?insert@?$QMap@VQString@@VcomplexParam@@@@QAE?AU?$QPair@V?$QMapIterator@VQString@@VcomplexParam@@@@_N@@ABU?$QPair@$$CBVQString@@VcomplexParam@@@@@Z (public: struct QPair<class QMapIterator<class QString,class complexParam>,bool> __thiscall QMap<class QString,class complexParam>::insert(struct QPair<class QString const ,class complexParam> const &))
      220    ?insert@?$QMap@VQString@@VcomplexParam@@@@QAE?AV?$QMapIterator@VQString@@VcomplexParam@@@@ABVQString@@ABVcomplexParam@@_N@Z (public: class QMapIterator<class QString,class complexParam> __thiscall QMap<class QString,class complexParam>::insert(class QString const &,class complexParam const &,bool))
      221    ?insert@?$QMap@VQString@@VcomplexType@@@@QAE?AU?$QPair@V?$QMapIterator@VQString@@VcomplexType@@@@_N@@ABU?$QPair@$$CBVQString@@VcomplexType@@@@@Z (public: struct QPair<class QMapIterator<class QString,class complexType>,bool> __thiscall QMap<class QString,class complexType>::insert(struct QPair<class QString const ,class complexType> const &))
      222    ?insert@?$QMap@VQString@@VcomplexType@@@@QAE?AV?$QMapIterator@VQString@@VcomplexType@@@@ABVQString@@ABVcomplexType@@_N@Z (public: class QMapIterator<class QString,class complexType> __thiscall QMap<class QString,class complexType>::insert(class QString const &,class complexType const &,bool))
      223    ?insert@?$QMap@VQString@@VdeviceTypeInfo@@@@QAE?AU?$QPair@V?$QMapIterator@VQString@@VdeviceTypeInfo@@@@_N@@ABU?$QPair@$$CBVQString@@VdeviceTypeInfo@@@@@Z (public: struct QPair<class QMapIterator<class QString,class deviceTypeInfo>,bool> __thiscall QMap<class QString,class deviceTypeInfo>::insert(struct QPair<class QString const ,class deviceTypeInfo> const &))
      224    ?insert@?$QMap@VQString@@VdeviceTypeInfo@@@@QAE?AV?$QMapIterator@VQString@@VdeviceTypeInfo@@@@ABVQString@@ABVdeviceTypeInfo@@_N@Z (public: class QMapIterator<class QString,class deviceTypeInfo> __thiscall QMap<class QString,class deviceTypeInfo>::insert(class QString const &,class deviceTypeInfo const &,bool))
      225    ?insert@?$QMap@VQString@@VinstanceInfo@@@@QAE?AU?$QPair@V?$QMapIterator@VQString@@VinstanceInfo@@@@_N@@ABU?$QPair@$$CBVQString@@VinstanceInfo@@@@@Z (public: struct QPair<class QMapIterator<class QString,class instanceInfo>,bool> __thiscall QMap<class QString,class instanceInfo>::insert(struct QPair<class QString const ,class instanceInfo> const &))
      226    ?insert@?$QMap@VQString@@VinstanceInfo@@@@QAE?AV?$QMapIterator@VQString@@VinstanceInfo@@@@ABVQString@@ABVinstanceInfo@@_N@Z (public: class QMapIterator<class QString,class instanceInfo> __thiscall QMap<class QString,class instanceInfo>::insert(class QString const &,class instanceInfo const &,bool))
      227    ?insert@?$QMap@VQString@@VparamInfo@@@@QAE?AU?$QPair@V?$QMapIterator@VQString@@VparamInfo@@@@_N@@ABU?$QPair@$$CBVQString@@VparamInfo@@@@@Z (public: struct QPair<class QMapIterator<class QString,class paramInfo>,bool> __thiscall QMap<class QString,class paramInfo>::insert(struct QPair<class QString const ,class paramInfo> const &))
      228    ?insert@?$QMap@VQString@@VparamInfo@@@@QAE?AV?$QMapIterator@VQString@@VparamInfo@@@@ABVQString@@ABVparamInfo@@_N@Z (public: class QMapIterator<class QString,class paramInfo> __thiscall QMap<class QString,class paramInfo>::insert(class QString const &,class paramInfo const &,bool))
      229    ?insert@?$QMap@VQString@@Vstyleentry@@@@QAE?AU?$QPair@V?$QMapIterator@VQString@@Vstyleentry@@@@_N@@ABU?$QPair@$$CBVQString@@Vstyleentry@@@@@Z (public: struct QPair<class QMapIterator<class QString,class styleentry>,bool> __thiscall QMap<class QString,class styleentry>::insert(struct QPair<class QString const ,class styleentry> const &))
      230    ?insert@?$QMap@VQString@@Vstyleentry@@@@QAE?AV?$QMapIterator@VQString@@Vstyleentry@@@@ABVQString@@ABVstyleentry@@_N@Z (public: class QMapIterator<class QString,class styleentry> __thiscall QMap<class QString,class styleentry>::insert(class QString const &,class styleentry const &,bool))
      231    ?instances@bncs_instance_lookup@@2V?$QMap@VQString@@VinstanceInfo@@@@A (public: static class QMap<class QString,class instanceInfo> bncs_instance_lookup::instances)
      232    ?isEmpty@?$QMap@VQString@@VcomplexInstance@@@@QBE_NXZ (public: bool __thiscall QMap<class QString,class complexInstance>::isEmpty(void)const )
      233    ?isEmpty@?$QMap@VQString@@VcomplexParam@@@@QBE_NXZ (public: bool __thiscall QMap<class QString,class complexParam>::isEmpty(void)const )
      234    ?isEmpty@?$QMap@VQString@@VcomplexType@@@@QBE_NXZ (public: bool __thiscall QMap<class QString,class complexType>::isEmpty(void)const )
      235    ?isEmpty@?$QMap@VQString@@VdeviceTypeInfo@@@@QBE_NXZ (public: bool __thiscall QMap<class QString,class deviceTypeInfo>::isEmpty(void)const )
      236    ?isEmpty@?$QMap@VQString@@VinstanceInfo@@@@QBE_NXZ (public: bool __thiscall QMap<class QString,class instanceInfo>::isEmpty(void)const )
      237    ?isEmpty@?$QMap@VQString@@VparamInfo@@@@QBE_NXZ (public: bool __thiscall QMap<class QString,class paramInfo>::isEmpty(void)const )
      238    ?isEmpty@?$QMap@VQString@@Vstyleentry@@@@QBE_NXZ (public: bool __thiscall QMap<class QString,class styleentry>::isEmpty(void)const )
      239    ?keys@?$QMap@VQString@@VcomplexInstance@@@@QBE?AV?$QValueList@VQString@@@@XZ (public: class QValueList<class QString> __thiscall QMap<class QString,class complexInstance>::keys(void)const )
      240    ?keys@?$QMap@VQString@@VcomplexParam@@@@QBE?AV?$QValueList@VQString@@@@XZ (public: class QValueList<class QString> __thiscall QMap<class QString,class complexParam>::keys(void)const )
      241    ?keys@?$QMap@VQString@@VcomplexType@@@@QBE?AV?$QValueList@VQString@@@@XZ (public: class QValueList<class QString> __thiscall QMap<class QString,class complexType>::keys(void)const )
      242    ?keys@?$QMap@VQString@@VdeviceTypeInfo@@@@QBE?AV?$QValueList@VQString@@@@XZ (public: class QValueList<class QString> __thiscall QMap<class QString,class deviceTypeInfo>::keys(void)const )
      243    ?keys@?$QMap@VQString@@VinstanceInfo@@@@QBE?AV?$QValueList@VQString@@@@XZ (public: class QValueList<class QString> __thiscall QMap<class QString,class instanceInfo>::keys(void)const )
      244    ?keys@?$QMap@VQString@@VparamInfo@@@@QBE?AV?$QValueList@VQString@@@@XZ (public: class QValueList<class QString> __thiscall QMap<class QString,class paramInfo>::keys(void)const )
      245    ?keys@?$QMap@VQString@@Vstyleentry@@@@QBE?AV?$QValueList@VQString@@@@XZ (public: class QValueList<class QString> __thiscall QMap<class QString,class styleentry>::keys(void)const )
      246    ?load@bncs_stylesheet@@SA_NXZ (public: static bool __cdecl bncs_stylesheet::load(void))
      247    ?loadComplexType@bncs_instance_lookup@@SA_NABVQString@@AAVcomplexType@@@Z (public: static bool __cdecl bncs_instance_lookup::loadComplexType(class QString const &,class complexType &))
      248    ?loadComplexTypes@bncs_instance_lookup@@SA_NXZ (public: static bool __cdecl bncs_instance_lookup::loadComplexTypes(void))
      249    ?loadDeviceParams@bncs_instance_lookup@@SA_NABVQString@@AAVdeviceTypeInfo@@@Z (public: static bool __cdecl bncs_instance_lookup::loadDeviceParams(class QString const &,class deviceTypeInfo &))
      250    ?loadDeviceTypes@bncs_instance_lookup@@SA_NXZ (public: static bool __cdecl bncs_instance_lookup::loadDeviceTypes(void))
      251    ?loadInstances@bncs_instance_lookup@@SA_NXZ (public: static bool __cdecl bncs_instance_lookup::loadInstances(void))
      252    ?lookup@bncs_instance_lookup@@SA_NABVQString@@0AAV2@PAH22PAD@Z (public: static bool __cdecl bncs_instance_lookup::lookup(class QString const &,class QString const &,class QString &,int *,int *,int *,char *))
      253    ?lookup@bncs_instance_lookup@@SA_NABVQString@@AAV2@111AA_N@Z (public: static bool __cdecl bncs_instance_lookup::lookup(class QString const &,class QString &,class QString &,class QString &,class QString &,bool &))
      254    ?lookup@bncs_instance_lookup@@SA_NABVQString@@AAV2@PAH2PAD@Z (public: static bool __cdecl bncs_instance_lookup::lookup(class QString const &,class QString &,int *,int *,char *))
      255    ?lookupComplex@bncs_instance_lookup@@SA_NABVQString@@00AAV2@PAH22PAD@Z (public: static bool __cdecl bncs_instance_lookup::lookupComplex(class QString const &,class QString const &,class QString const &,class QString &,int *,int *,int *,char *))
      256    ?lookupComposite@bncs_instance_lookup@@SA_NABVQString@@0AAV2@@Z (public: static bool __cdecl bncs_instance_lookup::lookupComposite(class QString const &,class QString const &,class QString &))
      257    ?lookupComposite@bncs_instance_lookup@@SA_NABVQString@@AA_NAAV?$QMap@VQString@@V1@@@@Z (public: static bool __cdecl bncs_instance_lookup::lookupComposite(class QString const &,bool &,class QMap<class QString,class QString> &))
      258    ?lookupInstanceOfType@bncs_instance_lookup@@SA_NABVQString@@AAVQStringList@@@Z (public: static bool __cdecl bncs_instance_lookup::lookupInstanceOfType(class QString const &,class QStringList &))
      259    ?lookupType@bncs_instance_lookup@@SA_NABVQString@@AAV2@@Z (public: static bool __cdecl bncs_instance_lookup::lookupType(class QString const &,class QString &))
      260    ?m_sFilename@bncs_stylesheet@@0VQString@@A (private: static class QString bncs_stylesheet::m_sFilename)
      261    ?m_sLastModified@bncs_stylesheet@@0VQDateTime@@A (private: static class QDateTime bncs_stylesheet::m_sLastModified)
      262    ?reLoad@bncs_stylesheet@@SA_NXZ (public: static bool __cdecl bncs_stylesheet::reLoad(void))
      263    ?remove@?$QMap@VQString@@VcomplexInstance@@@@QAEXABVQString@@@Z (public: void __thiscall QMap<class QString,class complexInstance>::remove(class QString const &))
      264    ?remove@?$QMap@VQString@@VcomplexInstance@@@@QAEXV?$QMapIterator@VQString@@VcomplexInstance@@@@@Z (public: void __thiscall QMap<class QString,class complexInstance>::remove(class QMapIterator<class QString,class complexInstance>))
      265    ?remove@?$QMap@VQString@@VcomplexParam@@@@QAEXABVQString@@@Z (public: void __thiscall QMap<class QString,class complexParam>::remove(class QString const &))
      266    ?remove@?$QMap@VQString@@VcomplexParam@@@@QAEXV?$QMapIterator@VQString@@VcomplexParam@@@@@Z (public: void __thiscall QMap<class QString,class complexParam>::remove(class QMapIterator<class QString,class complexParam>))
      267    ?remove@?$QMap@VQString@@VcomplexType@@@@QAEXABVQString@@@Z (public: void __thiscall QMap<class QString,class complexType>::remove(class QString const &))
      268    ?remove@?$QMap@VQString@@VcomplexType@@@@QAEXV?$QMapIterator@VQString@@VcomplexType@@@@@Z (public: void __thiscall QMap<class QString,class complexType>::remove(class QMapIterator<class QString,class complexType>))
      269    ?remove@?$QMap@VQString@@VdeviceTypeInfo@@@@QAEXABVQString@@@Z (public: void __thiscall QMap<class QString,class deviceTypeInfo>::remove(class QString const &))
      270    ?remove@?$QMap@VQString@@VdeviceTypeInfo@@@@QAEXV?$QMapIterator@VQString@@VdeviceTypeInfo@@@@@Z (public: void __thiscall QMap<class QString,class deviceTypeInfo>::remove(class QMapIterator<class QString,class deviceTypeInfo>))
      271    ?remove@?$QMap@VQString@@VinstanceInfo@@@@QAEXABVQString@@@Z (public: void __thiscall QMap<class QString,class instanceInfo>::remove(class QString const &))
      272    ?remove@?$QMap@VQString@@VinstanceInfo@@@@QAEXV?$QMapIterator@VQString@@VinstanceInfo@@@@@Z (public: void __thiscall QMap<class QString,class instanceInfo>::remove(class QMapIterator<class QString,class instanceInfo>))
      273    ?remove@?$QMap@VQString@@VparamInfo@@@@QAEXABVQString@@@Z (public: void __thiscall QMap<class QString,class paramInfo>::remove(class QString const &))
      274    ?remove@?$QMap@VQString@@VparamInfo@@@@QAEXV?$QMapIterator@VQString@@VparamInfo@@@@@Z (public: void __thiscall QMap<class QString,class paramInfo>::remove(class QMapIterator<class QString,class paramInfo>))
      275    ?remove@?$QMap@VQString@@Vstyleentry@@@@QAEXABVQString@@@Z (public: void __thiscall QMap<class QString,class styleentry>::remove(class QString const &))
      276    ?remove@?$QMap@VQString@@Vstyleentry@@@@QAEXV?$QMapIterator@VQString@@Vstyleentry@@@@@Z (public: void __thiscall QMap<class QString,class styleentry>::remove(class QMapIterator<class QString,class styleentry>))
      277    ?replace@?$QMap@VQString@@VcomplexInstance@@@@QAE?AV?$QMapIterator@VQString@@VcomplexInstance@@@@ABVQString@@ABVcomplexInstance@@@Z (public: class QMapIterator<class QString,class complexInstance> __thiscall QMap<class QString,class complexInstance>::replace(class QString const &,class complexInstance const &))
      278    ?replace@?$QMap@VQString@@VcomplexParam@@@@QAE?AV?$QMapIterator@VQString@@VcomplexParam@@@@ABVQString@@ABVcomplexParam@@@Z (public: class QMapIterator<class QString,class complexParam> __thiscall QMap<class QString,class complexParam>::replace(class QString const &,class complexParam const &))
      279    ?replace@?$QMap@VQString@@VcomplexType@@@@QAE?AV?$QMapIterator@VQString@@VcomplexType@@@@ABVQString@@ABVcomplexType@@@Z (public: class QMapIterator<class QString,class complexType> __thiscall QMap<class QString,class complexType>::replace(class QString const &,class complexType const &))
      280    ?replace@?$QMap@VQString@@VdeviceTypeInfo@@@@QAE?AV?$QMapIterator@VQString@@VdeviceTypeInfo@@@@ABVQString@@ABVdeviceTypeInfo@@@Z (public: class QMapIterator<class QString,class deviceTypeInfo> __thiscall QMap<class QString,class deviceTypeInfo>::replace(class QString const &,class deviceTypeInfo const &))
      281    ?replace@?$QMap@VQString@@VinstanceInfo@@@@QAE?AV?$QMapIterator@VQString@@VinstanceInfo@@@@ABVQString@@ABVinstanceInfo@@@Z (public: class QMapIterator<class QString,class instanceInfo> __thiscall QMap<class QString,class instanceInfo>::replace(class QString const &,class instanceInfo const &))
      282    ?replace@?$QMap@VQString@@VparamInfo@@@@QAE?AV?$QMapIterator@VQString@@VparamInfo@@@@ABVQString@@ABVparamInfo@@@Z (public: class QMapIterator<class QString,class paramInfo> __thiscall QMap<class QString,class paramInfo>::replace(class QString const &,class paramInfo const &))
      283    ?replace@?$QMap@VQString@@Vstyleentry@@@@QAE?AV?$QMapIterator@VQString@@Vstyleentry@@@@ABVQString@@ABVstyleentry@@@Z (public: class QMapIterator<class QString,class styleentry> __thiscall QMap<class QString,class styleentry>::replace(class QString const &,class styleentry const &))
      284    ?save@bncs_stylesheet@@QAE_NXZ (public: bool __thiscall bncs_stylesheet::save(void))
      285    ?set@bncs_stylesheet@@QAEXAAVQString@@AAVstyleentry@@@Z (public: void __thiscall bncs_stylesheet::set(class QString &,class styleentry &))
      286    ?settingslist@bncs_stylesheet@@QAE?BVQStringList@@AAVQString@@@Z (public: class QStringList const __thiscall bncs_stylesheet::settingslist(class QString &))
      287    ?size@?$QMap@VQString@@VcomplexInstance@@@@QBEIXZ (public: unsigned int __thiscall QMap<class QString,class complexInstance>::size(void)const )
      288    ?size@?$QMap@VQString@@VcomplexParam@@@@QBEIXZ (public: unsigned int __thiscall QMap<class QString,class complexParam>::size(void)const )
      289    ?size@?$QMap@VQString@@VcomplexType@@@@QBEIXZ (public: unsigned int __thiscall QMap<class QString,class complexType>::size(void)const )
      290    ?size@?$QMap@VQString@@VdeviceTypeInfo@@@@QBEIXZ (public: unsigned int __thiscall QMap<class QString,class deviceTypeInfo>::size(void)const )
      291    ?size@?$QMap@VQString@@VinstanceInfo@@@@QBEIXZ (public: unsigned int __thiscall QMap<class QString,class instanceInfo>::size(void)const )
      292    ?size@?$QMap@VQString@@VparamInfo@@@@QBEIXZ (public: unsigned int __thiscall QMap<class QString,class paramInfo>::size(void)const )
      293    ?size@?$QMap@VQString@@Vstyleentry@@@@QBEIXZ (public: unsigned int __thiscall QMap<class QString,class styleentry>::size(void)const )
      294    ?styleExist@bncs_stylesheet@@QAE_NVQString@@@Z (public: bool __thiscall bncs_stylesheet::styleExist(class QString))
      295    ?stylelist@bncs_stylesheet@@QAE?BV?$QMap@VQString@@Vstyleentry@@@@XZ (public: class QMap<class QString,class styleentry> const __thiscall bncs_stylesheet::stylelist(void))
      296    ?styles@bncs_stylesheet@@0V?$QMap@VQString@@Vstyleentry@@@@A (private: static class QMap<class QString,class styleentry> bncs_stylesheet::styles)
      297    ?values@?$QMap@VQString@@VcomplexInstance@@@@QBE?AV?$QValueList@VcomplexInstance@@@@XZ (public: class QValueList<class complexInstance> __thiscall QMap<class QString,class complexInstance>::values(void)const )
      298    ?values@?$QMap@VQString@@VcomplexParam@@@@QBE?AV?$QValueList@VcomplexParam@@@@XZ (public: class QValueList<class complexParam> __thiscall QMap<class QString,class complexParam>::values(void)const )
      299    ?values@?$QMap@VQString@@VcomplexType@@@@QBE?AV?$QValueList@VcomplexType@@@@XZ (public: class QValueList<class complexType> __thiscall QMap<class QString,class complexType>::values(void)const )
      300    ?values@?$QMap@VQString@@VdeviceTypeInfo@@@@QBE?AV?$QValueList@VdeviceTypeInfo@@@@XZ (public: class QValueList<class deviceTypeInfo> __thiscall QMap<class QString,class deviceTypeInfo>::values(void)const )
      301    ?values@?$QMap@VQString@@VinstanceInfo@@@@QBE?AV?$QValueList@VinstanceInfo@@@@XZ (public: class QValueList<class instanceInfo> __thiscall QMap<class QString,class instanceInfo>::values(void)const )
      302    ?values@?$QMap@VQString@@VparamInfo@@@@QBE?AV?$QValueList@VparamInfo@@@@XZ (public: class QValueList<class paramInfo> __thiscall QMap<class QString,class paramInfo>::values(void)const )
      303    ?values@?$QMap@VQString@@Vstyleentry@@@@QBE?AV?$QValueList@Vstyleentry@@@@XZ (public: class QValueList<class styleentry> __thiscall QMap<class QString,class styleentry>::values(void)const )
