 bncs_stringdb

 Timestamp is 5e9db7a5 (Mon Apr 20 15:54:29 2020)

 Preferred load address is 10000000

 Start         Length     Name                   Class
 0001:00000000 00010000H .textbss                DATA
 0002:00000000 0000240dH .text$di                CODE
 0002:00002410 00019a67H .text$mn                CODE
 0002:0001be80 000027d1H .text$x                 CODE
 0002:0001e660 000012d5H .text$yd                CODE
 0003:00000000 00000104H .CRT$XCA                DATA
 0003:00000104 00000133H .CRT$XCU                DATA
 0003:00000238 00000104H .CRT$XCZ                DATA
 0003:0000033c 00000104H .CRT$XIA                DATA
 0003:00000440 00000104H .CRT$XIAA               DATA
 0003:00000544 00000104H .CRT$XIC                DATA
 0003:00000648 00000104H .CRT$XIZ                DATA
 0003:00000750 00002185H .rdata                  DATA
 0003:000028d8 00000173H .rdata$debug            DATA
 0003:00002a4c 00000388H .rdata$r                DATA
 0003:00002dd4 00000104H .rtc$IAA                DATA
 0003:00002ed8 00000109H .rtc$IMZ                DATA
 0003:00002fe4 00000104H .rtc$IZZ                DATA
 0003:000030e8 00000104H .rtc$TAA                DATA
 0003:000031ec 00000109H .rtc$TMZ                DATA
 0003:000032f8 00000104H .rtc$TZZ                DATA
 0003:00003400 000019ffH .xdata$x                DATA
 0003:00004e00 00001b4cH .edata                  DATA
 0004:00000000 00000130H .data                   DATA
 0004:00000130 00000228H .data$r                 DATA
 0004:00000358 00000474H .bss                    DATA
 0005:00000000 00000250H .idata$5                DATA
 0005:00000250 0000003cH .idata$2                DATA
 0005:0000028c 00000014H .idata$3                DATA
 0005:000002a0 00000250H .idata$4                DATA
 0005:000004f0 00000b73H .idata$6                DATA
 0006:00000000 000001c0H .rsrc$01                DATA
 0006:000001c0 00000786H .rsrc$02                DATA

  Address         Publics by Value              Rva+Base       Lib:Object

 0000:00000000       ___guard_fids_count        00000000     <absolute>
 0000:00000000       ___safe_se_handler_table   00000000     <absolute>
 0000:00000000       ___guard_fids_table        00000000     <absolute>
 0000:00000000       ___safe_se_handler_count   00000000     <absolute>
 0000:00000000       ___guard_flags             00000000     <absolute>
 0000:00000000       __except_list              00000000     <absolute>
 0000:00009876       __ldused                   00009876     <absolute>
 0000:00009876       __fltused                  00009876     <absolute>
 0000:00000000       ___ImageBase               10000000     <linker-defined>
 0001:00000000       __enc$textbss$begin        10001000     <linker-defined>
 0001:00010000       __enc$textbss$end          10011000     <linker-defined>
 0002:00002410       ?decrementPlaceholders@bncs_string@@AAEAAV1@XZ 10013410 f   bncs_string.obj
 0002:000024b0       ?iswhitespace@bncs_string@@ABE_ND@Z 100134b0 f   bncs_string.obj
 0002:00002500       ??0bncs_string@@QAE@PBD@Z  10013500 f   bncs_string.obj
 0002:000025c0       ??0bncs_string@@QAE@XZ     100135c0 f   bncs_string.obj
 0002:00002610       ??0bncs_string@@QAE@ABV0@@Z 10013610 f   bncs_string.obj
 0002:000026c0       ??0bncs_string@@QAE@HDIH@Z 100136c0 f   bncs_string.obj
 0002:00002860       ??0bncs_string@@QAE@NHDI@Z 10013860 f   bncs_string.obj
 0002:00002a30       ??0bncs_string@@QAE@D@Z    10013a30 f   bncs_string.obj
 0002:00002af0       ??1bncs_string@@UAE@XZ     10013af0 f   bncs_string.obj
 0002:00002b60       ??Abncs_string@@QBE?BDI@Z  10013b60 f   bncs_string.obj
 0002:00002bb0       ??Abncs_string@@QAEAADH@Z  10013bb0 f   bncs_string.obj
 0002:00002c10       ??Bbncs_string@@QBEPBDXZ   10013c10 f   bncs_string.obj
 0002:00002c60       ??Bbncs_string@@QBEHXZ     10013c60 f   bncs_string.obj
 0002:00002cb0       ??4bncs_string@@QAEAAV0@PBD@Z 10013cb0 f   bncs_string.obj
 0002:00002d90       ??4bncs_string@@QAEAAV0@ABV0@@Z 10013d90 f   bncs_string.obj
 0002:00002e60       ??H@YA?BVbncs_string@@ABV0@0@Z 10013e60 f   bncs_string.obj
 0002:00002f40       ??H@YA?BVbncs_string@@ABV0@H@Z 10013f40 f   bncs_string.obj
 0002:00003020       ??H@YA?BVbncs_string@@HABV0@@Z 10014020 f   bncs_string.obj
 0002:00003100       ??H@YA?BVbncs_string@@ABV0@PBD@Z 10014100 f   bncs_string.obj
 0002:00003200       ??H@YA?BVbncs_string@@PBDABV0@@Z 10014200 f   bncs_string.obj
 0002:000032e0       ??Ybncs_string@@QAEAAV0@ABV0@@Z 100142e0 f   bncs_string.obj
 0002:00003330       ??8@YA_NABVbncs_string@@0@Z 10014330 f   bncs_string.obj
 0002:000033d0       ??9@YA_NABVbncs_string@@0@Z 100143d0 f   bncs_string.obj
 0002:00003460       ??8@YA_NABVbncs_string@@PBD@Z 10014460 f   bncs_string.obj
 0002:00003520       ??9@YA_NABVbncs_string@@PBD@Z 10014520 f   bncs_string.obj
 0002:000035d0       ??8@YA_NPBDABVbncs_string@@@Z 100145d0 f   bncs_string.obj
 0002:00003690       ??9@YA_NPBDABVbncs_string@@@Z 10014690 f   bncs_string.obj
 0002:00003740       ??8@YA_NABVbncs_string@@H@Z 10014740 f   bncs_string.obj
 0002:00003810       ??9@YA_NABVbncs_string@@H@Z 10014810 f   bncs_string.obj
 0002:000038d0       ??8@YA_NHABVbncs_string@@@Z 100148d0 f   bncs_string.obj
 0002:000039a0       ??9@YA_NHABVbncs_string@@@Z 100149a0 f   bncs_string.obj
 0002:00003a60       ?dump@bncs_string@@QAEXXZ  10014a60 f   bncs_string.obj
 0002:00003ac0       ?append@bncs_string@@QAEAAV1@ABV1@@Z 10014ac0 f   bncs_string.obj
 0002:00003bb0       ?append@bncs_string@@QAEAAV1@D@Z 10014bb0 f   bncs_string.obj
 0002:00003c80       ?append@bncs_string@@QAEAAV1@HDHH@Z 10014c80 f   bncs_string.obj
 0002:00003d60       ?toInt@bncs_string@@QBEHXZ 10014d60 f   bncs_string.obj
 0002:00003dc0       ?firstInt@bncs_string@@QBEHXZ 10014dc0 f   bncs_string.obj
 0002:00003e60       ?toLong@bncs_string@@QBEJXZ 10014e60 f   bncs_string.obj
 0002:00003ec0       ?toUInt@bncs_string@@QBEIH@Z 10014ec0 f   bncs_string.obj
 0002:00003f30       ?toULong@bncs_string@@QBEKH@Z 10014f30 f   bncs_string.obj
 0002:00003fa0       ?toDouble@bncs_string@@QBENXZ 10014fa0 f   bncs_string.obj
 0002:00004010       ?length@bncs_string@@QBEIXZ 10015010 f   bncs_string.obj
 0002:00004040       ?truncate@bncs_string@@QAEXI@Z 10015040 f   bncs_string.obj
 0002:000040a0       ?find@bncs_string@@QBEHDH_N@Z 100150a0 f   bncs_string.obj
 0002:00004190       ?rfind@bncs_string@@QBEHDH_N@Z 10015190 f   bncs_string.obj
 0002:000042b0       ?find@bncs_string@@QBEHABV1@H_N@Z 100152b0 f   bncs_string.obj
 0002:00004510       ?contains@bncs_string@@QBEHD_N@Z 10015510 f   bncs_string.obj
 0002:000045f0       ?startsWith@bncs_string@@QBE_NABV1@@Z 100155f0 f   bncs_string.obj
 0002:000046b0       ?endsWith@bncs_string@@QBE_NABV1@@Z 100156b0 f   bncs_string.obj
 0002:000047b0       ?left@bncs_string@@QBE?AV1@I@Z 100157b0 f   bncs_string.obj
 0002:000048f0       ?right@bncs_string@@QBE?AV1@I@Z 100158f0 f   bncs_string.obj
 0002:00004a40       ?mid@bncs_string@@QBE?AV1@II@Z 10015a40 f   bncs_string.obj
 0002:00004bb0       ?lower@bncs_string@@QBE?AV1@XZ 10015bb0 f   bncs_string.obj
 0002:00004cd0       ?upper@bncs_string@@QBE?AV1@XZ 10015cd0 f   bncs_string.obj
 0002:00004df0       ?stripWhiteSpace@bncs_string@@QBE?AV1@XZ 10015df0 f   bncs_string.obj
 0002:00004fa0       ?simplifyWhiteSpace@bncs_string@@QBE?AV1@XZ 10015fa0 f   bncs_string.obj
 0002:000051a0       ?arg@bncs_string@@QBE?AV1@ABV1@@Z 100161a0 f   bncs_string.obj
 0002:00005210       ?arg@bncs_string@@QBE?AV1@PBD@Z 10016210 f   bncs_string.obj
 0002:000054a0       ?arg@bncs_string@@QBE?AV1@HDIH@Z 100164a0 f   bncs_string.obj
 0002:00005590       ?arg@bncs_string@@QBE?AV1@J@Z 10016590 f   bncs_string.obj
 0002:00005660       ?remove@bncs_string@@QAEAAV1@II@Z 10016660 f   bncs_string.obj
 0002:00005740       ?insert@bncs_string@@QAEAAV1@IABV1@@Z 10016740 f   bncs_string.obj
 0002:00005910       ?replace@bncs_string@@QAEAAV1@ABV1@0@Z 10016910 f   bncs_string.obj
 0002:000059a0       ?replace@bncs_string@@QAEAAV1@DD@Z 100169a0 f   bncs_string.obj
 0002:00005a20       ?cleanup@bncs_string@@QAEAAV1@_N@Z 10016a20 f   bncs_string.obj
 0002:00005b20       ?split@bncs_string@@QBEHDAAV1@0@Z 10016b20 f   bncs_string.obj
 0002:00005bd0       ?justifyLeft@bncs_string@@QBE?AV1@HD@Z 10016bd0 f   bncs_string.obj
 0002:00005d40       ?justifyRight@bncs_string@@QBE?AV1@HD@Z 10016d40 f   bncs_string.obj
 0002:00005ec0       ??M@YA_NABVbncs_string@@0@Z 10016ec0 f   bncs_string.obj
 0002:00005f30       ??6@YAAAV?$basic_ostream@DU?$char_traits@D@std@@@std@@AAV01@ABVbncs_string@@@Z 10016f30 f   bncs_string.obj
 0002:00006e60       ??$?6U?$char_traits@D@std@@@std@@YAAAV?$basic_ostream@DU?$char_traits@D@std@@@0@AAV10@PBD@Z 10017e60 f i bncs_string.obj
 0002:00007420       ??$_Allocate@D@std@@YAPADIPAD@Z 10018420 f i bncs_string.obj
 0002:000074b0       ??$_Allocate@U_Container_proxy@std@@@std@@YAPAU_Container_proxy@0@IPAU10@@Z 100184b0 f i bncs_string.obj
 0002:00007550       ??$_Debug_pointer@D@std@@YAXPBDPB_WI@Z 10018550 f i bncs_string.obj
 0002:000075c0       ??$addressof@D@std@@YAPADAAD@Z 100185c0 f i bncs_string.obj
 0002:00007600       ??$construct@PADAAPAD@?$_Wrap_alloc@V?$allocator@D@std@@@std@@QAEXPAPADAAPAD@Z 10018600 f i bncs_string.obj
 0002:00007670       ??$construct@PADAAPAD@?$allocator@D@std@@QAEXPAPADAAPAD@Z 10018670 f i bncs_string.obj
 0002:00007770       ??$construct@PADAAPAD@?$allocator_traits@V?$allocator@D@std@@@std@@SAXAAV?$allocator@D@1@PAPADAAPAD@Z 10018770 f i bncs_string.obj
 0002:000077d0       ??$construct@U_Container_proxy@std@@U12@@?$allocator@U_Container_proxy@std@@@std@@QAEXPAU_Container_proxy@1@$$QAU21@@Z 100187d0 f i bncs_string.obj
 0002:000078e0       ??$destroy@PAD@?$_Wrap_alloc@V?$allocator@D@std@@@std@@QAEXPAPAD@Z 100188e0 f i bncs_string.obj
 0002:00007940       ??$destroy@PAD@?$allocator@D@std@@QAEXPAPAD@Z 10018940 f i bncs_string.obj
 0002:00007980       ??$destroy@PAD@?$allocator_traits@V?$allocator@D@std@@@std@@SAXAAV?$allocator@D@1@PAPAD@Z 10018980 f i bncs_string.obj
 0002:000079d0       ??$destroy@U_Container_proxy@std@@@?$allocator@U_Container_proxy@std@@@std@@QAEXPAU_Container_proxy@1@@Z 100189d0 f i bncs_string.obj
 0002:00007a10       ??$forward@AAPAD@std@@YAAAPADAAPAD@Z 10018a10 f i bncs_string.obj
 0002:00007a50       ??$forward@U_Container_proxy@std@@@std@@YA$$QAU_Container_proxy@0@AAU10@@Z 10018a50 f i bncs_string.obj
 0002:00007a90       ??0?$_String_alloc@$0A@U?$_String_base_types@DV?$allocator@D@std@@@std@@@std@@QAE@ABV?$allocator@D@1@@Z 10018a90 f i bncs_string.obj
 0002:00007b40       ??0?$_String_val@U?$_Simple_types@D@std@@@std@@QAE@XZ 10018b40 f i bncs_string.obj
 0002:00007bc0       ??0?$_Wrap_alloc@V?$allocator@D@std@@@std@@QAE@XZ 10018bc0 f i bncs_string.obj
 0002:00007c20       ??0?$allocator@D@std@@QAE@XZ 10018c20 f i bncs_string.obj
 0002:00007c60       ??0?$allocator@U_Container_proxy@std@@@std@@QAE@XZ 10018c60 f i bncs_string.obj
 0002:00007ca0       ??0?$basic_string@DU?$char_traits@D@std@@V?$allocator@D@2@@std@@QAE@PBD@Z 10018ca0 f i bncs_string.obj
 0002:00007d70       ??0_Container_proxy@std@@QAE@XZ 10018d70 f i bncs_string.obj
 0002:00007dc0       ??0_Generic_error_category@std@@QAE@XZ 10018dc0 f i bncs_string.obj
 0002:00007e20       ??0_Iostream_error_category@std@@QAE@XZ 10018e20 f i bncs_string.obj
 0002:00007e80       ??0_Sentry_base@?$basic_ostream@DU?$char_traits@D@std@@@std@@QAE@AAV12@@Z 10018e80 f i bncs_string.obj
 0002:00007f70       ??0_System_error_category@std@@QAE@XZ 10018f70 f i bncs_string.obj
 0002:00007fd0       ??0bncs_string@@QAE@ABV?$basic_string@DU?$char_traits@D@std@@V?$allocator@D@2@@std@@@Z 10018fd0 f i bncs_string.obj
 0002:00008040       ??0error_category@std@@QAE@XZ 10019040 f i bncs_string.obj
 0002:00008090       ??0error_condition@std@@QAE@HABVerror_category@1@@Z 10019090 f i bncs_string.obj
 0002:000080e0       ??0sentry@?$basic_ostream@DU?$char_traits@D@std@@@std@@QAE@AAV12@@Z 100190e0 f i bncs_string.obj
 0002:00008260       ??1?$_String_alloc@$0A@U?$_String_base_types@DV?$allocator@D@std@@@std@@@std@@QAE@XZ 10019260 f i bncs_string.obj
 0002:000082c0       ??1?$_String_val@U?$_Simple_types@D@std@@@std@@QAE@XZ 100192c0 f i bncs_string.obj
 0002:00008320       ??1_Generic_error_category@std@@UAE@XZ 10019320 f i bncs_string.obj
 0002:00008370       ??1_Iostream_error_category@std@@UAE@XZ 10019370 f i bncs_string.obj
 0002:000083c0       ??1_Sentry_base@?$basic_ostream@DU?$char_traits@D@std@@@std@@QAE@XZ 100193c0 f i bncs_string.obj
 0002:000084a0       ??1_System_error_category@std@@UAE@XZ 100194a0 f i bncs_string.obj
 0002:000084f0       ??1error_category@std@@UAE@XZ 100194f0 f i bncs_string.obj
 0002:00008530       ??1sentry@?$basic_ostream@DU?$char_traits@D@std@@@std@@QAE@XZ 10019530 f i bncs_string.obj
 0002:000085c0       ??2@YAPAXIPAX@Z            100195c0 f i bncs_string.obj
 0002:00008600       ??3@YAXPAX0@Z              10019600 f i bncs_string.obj
 0002:00008630       ??8error_category@std@@QBE_NABV01@@Z 10019630 f i bncs_string.obj
 0002:000086a0       ??8error_condition@std@@QBE_NABV01@@Z 100196a0 f i bncs_string.obj
 0002:00008750       ??Bsentry@?$basic_ostream@DU?$char_traits@D@std@@@std@@QBE_NXZ 10019750 f i bncs_string.obj
 0002:00008790       ??_Ebncs_string@@UAEPAXI@Z 10019790 f i bncs_string.obj
 0002:00008850       ??_G_Generic_error_category@std@@UAEPAXI@Z 10019850 f i bncs_string.obj
 0002:00008850       ??_E_Generic_error_category@std@@UAEPAXI@Z 10019850 f i bncs_string.obj
 0002:000088c0       ??_E_Iostream_error_category@std@@UAEPAXI@Z 100198c0 f i bncs_string.obj
 0002:000088c0       ??_G_Iostream_error_category@std@@UAEPAXI@Z 100198c0 f i bncs_string.obj
 0002:00008930       ??_G_System_error_category@std@@UAEPAXI@Z 10019930 f i bncs_string.obj
 0002:00008930       ??_E_System_error_category@std@@UAEPAXI@Z 10019930 f i bncs_string.obj
 0002:000089a0       ??_Gbncs_string@@UAEPAXI@Z 100199a0 f i bncs_string.obj
 0002:00008a10       ??_Gerror_category@std@@UAEPAXI@Z 10019a10 f i bncs_string.obj
 0002:00008a10       ??_Eerror_category@std@@UAEPAXI@Z 10019a10 f i bncs_string.obj
 0002:00008a80       ?_Alloc_proxy@?$_String_alloc@$0A@U?$_String_base_types@DV?$allocator@D@std@@@std@@@std@@QAEXXZ 10019a80 f i bncs_string.obj
 0002:00008b50       ?_Copy@?$basic_string@DU?$char_traits@D@std@@V?$allocator@D@2@@std@@QAEXII@Z 10019b50 f i bncs_string.obj
 0002:00008e10       ?_Eos@?$basic_string@DU?$char_traits@D@std@@V?$allocator@D@2@@std@@QAEXI@Z 10019e10 f i bncs_string.obj
 0002:00008e90       ?_Free_proxy@?$_String_alloc@$0A@U?$_String_base_types@DV?$allocator@D@std@@@std@@@std@@QAEXXZ 10019e90 f i bncs_string.obj
 0002:00008f70       ?_Getal@?$_String_alloc@$0A@U?$_String_base_types@DV?$allocator@D@std@@@std@@@std@@QBE?AU?$_Wrap_alloc@V?$allocator@D@std@@@2@XZ 10019f70 f i bncs_string.obj
 0002:00008fd0       ?_Grow@?$basic_string@DU?$char_traits@D@std@@V?$allocator@D@2@@std@@QAE_NI_N@Z 10019fd0 f i bncs_string.obj
 0002:000090f0       ?_Inside@?$basic_string@DU?$char_traits@D@std@@V?$allocator@D@2@@std@@QAE_NPBD@Z 1001a0f0 f i bncs_string.obj
 0002:00009170       ?_Myptr@?$_String_val@U?$_Simple_types@D@std@@@std@@QAEPADXZ 1001a170 f i bncs_string.obj
 0002:00009200       ?_Myptr@?$_String_val@U?$_Simple_types@D@std@@@std@@QBEPBDXZ 1001a200 f i bncs_string.obj
 0002:00009290       ?_Tidy@?$basic_string@DU?$char_traits@D@std@@V?$allocator@D@2@@std@@QAEX_NI@Z 1001a290 f i bncs_string.obj
 0002:000093a0       ?_Xlen@?$basic_string@DU?$char_traits@D@std@@V?$allocator@D@2@@std@@QBEXXZ 1001a3a0 f i bncs_string.obj
 0002:00009400       ?_Xran@?$basic_string@DU?$char_traits@D@std@@V?$allocator@D@2@@std@@QBEXXZ 1001a400 f i bncs_string.obj
 0002:00009460       ?allocate@?$_Wrap_alloc@V?$allocator@D@std@@@std@@QAEPADI@Z 1001a460 f i bncs_string.obj
 0002:000094c0       ?allocate@?$allocator@D@std@@QAEPADI@Z 1001a4c0 f i bncs_string.obj
 0002:00009520       ?allocate@?$allocator@U_Container_proxy@std@@@std@@QAEPAU_Container_proxy@2@I@Z 1001a520 f i bncs_string.obj
 0002:00009580       ?assign@?$basic_string@DU?$char_traits@D@std@@V?$allocator@D@2@@std@@QAEAAV12@ABV12@II@Z 1001a580 f i bncs_string.obj
 0002:00009690       ?assign@?$basic_string@DU?$char_traits@D@std@@V?$allocator@D@2@@std@@QAEAAV12@PBD@Z 1001a690 f i bncs_string.obj
 0002:00009720       ?assign@?$basic_string@DU?$char_traits@D@std@@V?$allocator@D@2@@std@@QAEAAV12@PBDI@Z 1001a720 f i bncs_string.obj
 0002:00009820       ?assign@?$char_traits@D@std@@SAXAADABD@Z 1001a820 f i bncs_string.obj
 0002:00009860       ?c_str@?$basic_string@DU?$char_traits@D@std@@V?$allocator@D@2@@std@@QBEPBDXZ 1001a860 f i bncs_string.obj
 0002:000098b0       ?category@error_code@std@@QBEABVerror_category@2@XZ 1001a8b0 f i bncs_string.obj
 0002:000098f0       ?category@error_condition@std@@QBEABVerror_category@2@XZ 1001a8f0 f i bncs_string.obj
 0002:00009930       ?copy@?$char_traits@D@std@@SAPADPADPBDI@Z 1001a930 f i bncs_string.obj
 0002:000099b0       ?deallocate@?$_Wrap_alloc@V?$allocator@D@std@@@std@@QAEXPADI@Z 1001a9b0 f i bncs_string.obj
 0002:00009a10       ?deallocate@?$allocator@D@std@@QAEXPADI@Z 1001aa10 f i bncs_string.obj
 0002:00009a70       ?deallocate@?$allocator@U_Container_proxy@std@@@std@@QAEXPAU_Container_proxy@2@I@Z 1001aa70 f i bncs_string.obj
 0002:00009ad0       ?default_error_condition@_System_error_category@std@@UBE?AVerror_condition@2@H@Z 1001aad0 f i bncs_string.obj
 0002:00009b80       ?default_error_condition@error_category@std@@UBE?AVerror_condition@2@H@Z 1001ab80 f i bncs_string.obj
 0002:00009be0       ?eof@?$char_traits@D@std@@SAHXZ 1001abe0 f i bncs_string.obj
 0002:00009c20       ?eq_int_type@?$char_traits@D@std@@SA_NABH0@Z 1001ac20 f i bncs_string.obj
 0002:00009c80       ?equivalent@error_category@std@@UBE_NABVerror_code@2@H@Z 1001ac80 f i bncs_string.obj
 0002:00009d20       ?equivalent@error_category@std@@UBE_NHABVerror_condition@2@@Z 1001ad20 f i bncs_string.obj
 0002:00009da0       ?erase@?$basic_string@DU?$char_traits@D@std@@V?$allocator@D@2@@std@@QAEAAV12@I@Z 1001ada0 f i bncs_string.obj
 0002:00009e20       ?erase@?$basic_string@DU?$char_traits@D@std@@V?$allocator@D@2@@std@@QAEAAV12@II@Z 1001ae20 f i bncs_string.obj
 0002:00009f00       ?generic_category@std@@YAABVerror_category@1@XZ 1001af00 f i bncs_string.obj
 0002:00009f40       ?length@?$char_traits@D@std@@SAIPBD@Z 1001af40 f i bncs_string.obj
 0002:00009fc0       ?max_size@?$_Wrap_alloc@V?$allocator@D@std@@@std@@QBEIXZ 1001afc0 f i bncs_string.obj
 0002:0000a020       ?max_size@?$allocator@D@std@@QBEIXZ 1001b020 f i bncs_string.obj
 0002:0000a060       ?max_size@?$allocator_traits@V?$allocator@D@std@@@std@@SAIABV?$allocator@D@2@@Z 1001b060 f i bncs_string.obj
 0002:0000a0b0       ?max_size@?$basic_string@DU?$char_traits@D@std@@V?$allocator@D@2@@std@@QBEIXZ 1001b0b0 f i bncs_string.obj
 0002:0000a150       ?message@_Generic_error_category@std@@UBE?AV?$basic_string@DU?$char_traits@D@std@@V?$allocator@D@2@@2@H@Z 1001b150 f i bncs_string.obj
 0002:0000a210       ?message@_Iostream_error_category@std@@UBE?AV?$basic_string@DU?$char_traits@D@std@@V?$allocator@D@2@@2@H@Z 1001b210 f i bncs_string.obj
 0002:0000a2d0       ?message@_System_error_category@std@@UBE?AV?$basic_string@DU?$char_traits@D@std@@V?$allocator@D@2@@2@H@Z 1001b2d0 f i bncs_string.obj
 0002:0000a390       ?move@?$char_traits@D@std@@SAPADPADPBDI@Z 1001b390 f i bncs_string.obj
 0002:0000a420       ?name@_Generic_error_category@std@@UBEPBDXZ 1001b420 f i bncs_string.obj
 0002:0000a460       ?name@_Iostream_error_category@std@@UBEPBDXZ 1001b460 f i bncs_string.obj
 0002:0000a4a0       ?name@_System_error_category@std@@UBEPBDXZ 1001b4a0 f i bncs_string.obj
 0002:0000a4e0       ?size@?$basic_string@DU?$char_traits@D@std@@V?$allocator@D@2@@std@@QBEIXZ 1001b4e0 f i bncs_string.obj
 0002:0000a520       ?system_category@std@@YAABVerror_category@1@XZ 1001b520 f i bncs_string.obj
 0002:0000a560       ?value@error_code@std@@QBEHXZ 1001b560 f i bncs_string.obj
 0002:0000a5a0       ?value@error_condition@std@@QBEHXZ 1001b5a0 f i bncs_string.obj
 0002:0000a5e0       _hypot                     1001b5e0 f i bncs_string.obj
 0002:0000a660       ??0bncs_stringlistIterator@@QAE@PBVbncs_stringlist@@_N@Z 1001b660 f   bncs_stringlist.obj
 0002:0000a6f0       ??Cbncs_stringlistIterator@@QBEPAVbncs_string@@XZ 1001b6f0 f   bncs_stringlist.obj
 0002:0000a770       ??Dbncs_stringlistIterator@@QBEAAVbncs_string@@XZ 1001b770 f   bncs_stringlist.obj
 0002:0000a7f0       ??8bncs_stringlistIterator@@QBE_NABV0@@Z 1001b7f0 f   bncs_stringlist.obj
 0002:0000a860       ??9bncs_stringlistIterator@@QBE_NABV0@@Z 1001b860 f   bncs_stringlist.obj
 0002:0000a8d0       ??Ebncs_stringlistIterator@@QAE?AV0@XZ 1001b8d0 f   bncs_stringlist.obj
 0002:0000a960       ??Ebncs_stringlistIterator@@QAE?BV0@H@Z 1001b960 f   bncs_stringlist.obj
 0002:0000aa30       ??Fbncs_stringlistIterator@@QAE?AV0@XZ 1001ba30 f   bncs_stringlist.obj
 0002:0000aab0       ??4bncs_stringlist@@QAEAAV0@ABV0@@Z 1001bab0 f   bncs_stringlist.obj
 0002:0000ac20       ??8bncs_stringlist@@QBE_NABV0@@Z 1001bc20 f   bncs_stringlist.obj
 0002:0000af20       ??9bncs_stringlist@@QBE_NABV0@@Z 1001bf20 f   bncs_stringlist.obj
 0002:0000af90       ??0bncs_stringlist@@QAE@XZ 1001bf90 f   bncs_stringlist.obj
 0002:0000b070       ??0bncs_stringlist@@QAE@ABVbncs_string@@D@Z 1001c070 f   bncs_stringlist.obj
 0002:0000b160       ??0bncs_stringlist@@QAE@ABV0@@Z 1001c160 f   bncs_stringlist.obj
 0002:0000b330       ??1bncs_stringlist@@UAE@XZ 1001c330 f   bncs_stringlist.obj
 0002:0000b3c0       ??Abncs_stringlist@@QAEAAVbncs_string@@H@Z 1001c3c0 f   bncs_stringlist.obj
 0002:0000b490       ??Abncs_stringlist@@QBEABVbncs_string@@H@Z 1001c490 f   bncs_stringlist.obj
 0002:0000b560       ??Bbncs_stringlist@@QAEPBDXZ 1001c560 f   bncs_stringlist.obj
 0002:0000b620       ?count@bncs_stringlist@@QBEHXZ 1001c620 f   bncs_stringlist.obj
 0002:0000b670       ?toString@bncs_stringlist@@QAE?AVbncs_string@@D@Z 1001c670 f   bncs_stringlist.obj
 0002:0000b940       ?fromString@bncs_stringlist@@QAEAAV1@ABVbncs_string@@D@Z 1001c940 f   bncs_stringlist.obj
 0002:0000bb10       ?append@bncs_stringlist@@QAEAAV1@ABVbncs_string@@@Z 1001cb10 f   bncs_stringlist.obj
 0002:0000bb60       ?prepend@bncs_stringlist@@QAEAAV1@ABVbncs_string@@@Z 1001cb60 f   bncs_stringlist.obj
 0002:0000bc50       ?deleteItem@bncs_stringlist@@QAEAAV1@H@Z 1001cc50 f   bncs_stringlist.obj
 0002:0000bdd0       ?replaceItem@bncs_stringlist@@QAEAAV1@ABVbncs_string@@H@Z 1001cdd0 f   bncs_stringlist.obj
 0002:0000bfd0       ??Hbncs_stringlist@@QAEAAV0@ABVbncs_string@@@Z 1001cfd0 f   bncs_stringlist.obj
 0002:0000c020       ??Ybncs_stringlist@@QAEAAV0@ABVbncs_string@@@Z 1001d020 f   bncs_stringlist.obj
 0002:0000c070       ??Hbncs_stringlist@@QAEAAV0@ABV0@@Z 1001d070 f   bncs_stringlist.obj
 0002:0000c1d0       ??Ybncs_stringlist@@QAEAAV0@ABV0@@Z 1001d1d0 f   bncs_stringlist.obj
 0002:0000c330       ??6bncs_stringlist@@QAEAAV0@ABVbncs_string@@@Z 1001d330 f   bncs_stringlist.obj
 0002:0000c380       ??4bncs_stringlist@@QAEAAV0@ABVbncs_string@@@Z 1001d380 f   bncs_stringlist.obj
 0002:0000c3d0       ?begin@bncs_stringlist@@QAE?BVbncs_stringlistIterator@@XZ 1001d3d0 f   bncs_stringlist.obj
 0002:0000c420       ?end@bncs_stringlist@@QAE?BVbncs_stringlistIterator@@XZ 1001d420 f   bncs_stringlist.obj
 0002:0000c470       ?begin@bncs_stringlist@@QBE?BVbncs_stringlistIterator@@XZ 1001d470 f   bncs_stringlist.obj
 0002:0000c4c0       ?end@bncs_stringlist@@QBE?BVbncs_stringlistIterator@@XZ 1001d4c0 f   bncs_stringlist.obj
 0002:0000c510       ?sort@bncs_stringlist@@QBE?AV1@_N@Z 1001d510 f   bncs_stringlist.obj
 0002:0000c720       ?valueCount@bncs_stringlist@@QAEHABVbncs_string@@_N@Z 1001d720 f   bncs_stringlist.obj
 0002:0000c9a0       ?find@bncs_stringlist@@QAEHABVbncs_string@@_N@Z 1001d9a0 f   bncs_stringlist.obj
 0002:0000cc40       ?getNamedParam@bncs_stringlist@@QAE?AVbncs_string@@ABV2@@Z 1001dc40 f   bncs_stringlist.obj
 0002:0000ce60       ?clear@bncs_stringlist@@QAEXXZ 1001de60 f   bncs_stringlist.obj
 0002:0000ceb0       ?setCount@bncs_stringlist@@QAEXHABVbncs_string@@@Z 1001deb0 f   bncs_stringlist.obj
 0002:0000cf10       ?contentDiff@bncs_stringlist@@QAEHABV1@_NAAV1@2@Z 1001df10 f   bncs_stringlist.obj
 0002:0000ddb0       ??$?0U?$_List_node@Vbncs_string@@PAX@std@@@?$allocator@Vbncs_string@@@std@@QAE@ABV?$allocator@U?$_List_node@Vbncs_string@@PAX@std@@@1@@Z 1001edb0 f i bncs_stringlist.obj
 0002:0000ddf0       ??$?8U?$_List_node@Vbncs_string@@PAX@std@@U01@@std@@YA_NABV?$allocator@U?$_List_node@Vbncs_string@@PAX@std@@@0@0@Z 1001edf0 f i bncs_stringlist.obj
 0002:0000de20       ??$?8V?$allocator@U?$_List_node@Vbncs_string@@PAX@std@@@std@@V01@@std@@YA_NABU?$_Wrap_alloc@V?$allocator@U?$_List_node@Vbncs_string@@PAX@std@@@std@@@0@0@Z 1001ee20 f i bncs_stringlist.obj
 0002:0000de90       ??$?9V?$allocator@U?$_List_node@Vbncs_string@@PAX@std@@@std@@V01@@std@@YA_NABU?$_Wrap_alloc@V?$allocator@U?$_List_node@Vbncs_string@@PAX@std@@@std@@@0@0@Z 1001ee90 f i bncs_stringlist.obj
 0002:0000df10       ??$?RAAVbncs_string@@AAV0@@?$less@X@std@@QBE_NAAVbncs_string@@0@Z 1001ef10 f i bncs_stringlist.obj
 0002:0000df70       ??$_Advance@V?$_Vector_iterator@V?$_Vector_val@U?$_Simple_types@Vbncs_string@@@std@@@std@@@std@@H@std@@YAXAAV?$_Vector_iterator@V?$_Vector_val@U?$_Simple_types@Vbncs_string@@@std@@@std@@@0@HUrandom_access_iterator_tag@0@@Z 1001ef70 f i bncs_stringlist.obj
 0002:0000dfc0       ??$_Allocate@U?$_List_node@Vbncs_string@@PAX@std@@@std@@YAPAU?$_List_node@Vbncs_string@@PAX@0@IPAU10@@Z 1001efc0 f i bncs_stringlist.obj
 0002:0000e050       ??$_Allocate@Vbncs_string@@@std@@YAPAVbncs_string@@IPAV1@@Z 1001f050 f i bncs_stringlist.obj
 0002:0000e0e0       ??$_Buynode@ABVbncs_string@@@?$_List_buy@Vbncs_string@@V?$allocator@Vbncs_string@@@std@@@std@@QAEPAU?$_List_node@Vbncs_string@@PAX@1@PAU21@0ABVbncs_string@@@Z 1001f0e0 f i bncs_stringlist.obj
 0002:0000e250       ??$_Copy_backward@PAVbncs_string@@PAV1@@std@@YAPAVbncs_string@@PAV1@00@Z 1001f250 f i bncs_stringlist.obj
 0002:0000e2d0       ??$_Copy_backward@PAVbncs_string@@PAV1@@std@@YAPAVbncs_string@@PAV1@00U_Nonscalar_ptr_iterator_tag@0@@Z 1001f2d0 f i bncs_stringlist.obj
 0002:0000e350       ??$_Debug_lt_pred@U?$less@X@std@@AAVbncs_string@@AAV3@@std@@YA_NU?$less@X@0@AAVbncs_string@@1PB_WI@Z 1001f350 f i bncs_stringlist.obj
 0002:0000e430       ??$_Debug_order2@V?$_List_iterator@V?$_List_val@U?$_List_simple_types@Vbncs_string@@@std@@@std@@@std@@U?$less@X@2@@std@@YAXV?$_List_iterator@V?$_List_val@U?$_List_simple_types@Vbncs_string@@@std@@@std@@@0@0U?$less@X@0@PB_WIUforward_iterator_tag@0@@Z 1001f430 f i bncs_stringlist.obj
 0002:0000e5e0       ??$_Debug_order@V?$_List_iterator@V?$_List_val@U?$_List_simple_types@Vbncs_string@@@std@@@std@@@std@@U?$less@X@2@@std@@YAXV?$_List_iterator@V?$_List_val@U?$_List_simple_types@Vbncs_string@@@std@@@std@@@0@0U?$less@X@0@PB_WI@Z 1001f5e0 f i bncs_stringlist.obj
 0002:0000e7b0       ??$_Debug_pointer@U?$less@X@std@@@std@@YAXAAU?$less@X@0@PB_WI@Z 1001f7b0 f i bncs_stringlist.obj
 0002:0000e7e0       ??$_Debug_pointer@Vbncs_string@@@std@@YAXPAVbncs_string@@PB_WI@Z 1001f7e0 f i bncs_stringlist.obj
 0002:0000e850       ??$_Debug_range2@PAVbncs_string@@@std@@YAXPAVbncs_string@@0PB_WIUrandom_access_iterator_tag@0@@Z 1001f850 f i bncs_stringlist.obj
 0002:0000e900       ??$_Debug_range2@V?$_List_iterator@V?$_List_val@U?$_List_simple_types@Vbncs_string@@@std@@@std@@@std@@@std@@YAXV?$_List_iterator@V?$_List_val@U?$_List_simple_types@Vbncs_string@@@std@@@std@@@0@0PB_WIUinput_iterator_tag@0@@Z 1001f900 f i bncs_stringlist.obj
 0002:0000e9c0       ??$_Debug_range@PAVbncs_string@@@std@@YAXPAVbncs_string@@0PB_WI@Z 1001f9c0 f i bncs_stringlist.obj
 0002:0000ea40       ??$_Debug_range@V?$_List_iterator@V?$_List_val@U?$_List_simple_types@Vbncs_string@@@std@@@std@@@std@@@std@@YAXV?$_List_iterator@V?$_List_val@U?$_List_simple_types@Vbncs_string@@@std@@@std@@@0@0PB_WI@Z 1001fa40 f i bncs_stringlist.obj
 0002:0000eb70       ??$_Destroy_range@U?$_Wrap_alloc@V?$allocator@Vbncs_string@@@std@@@std@@@std@@YAXPAVbncs_string@@0AAU?$_Wrap_alloc@V?$allocator@Vbncs_string@@@std@@@0@@Z 1001fb70 f i bncs_stringlist.obj
 0002:0000ebf0       ??$_Destroy_range@U?$_Wrap_alloc@V?$allocator@Vbncs_string@@@std@@@std@@@std@@YAXPAVbncs_string@@0AAU?$_Wrap_alloc@V?$allocator@Vbncs_string@@@std@@@0@U_Nonscalar_ptr_iterator_tag@0@@Z 1001fbf0 f i bncs_stringlist.obj
 0002:0000ec60       ??$_Fill@PAVbncs_string@@V1@@std@@YAXPAVbncs_string@@0ABV1@@Z 1001fc60 f i bncs_stringlist.obj
 0002:0000ecd0       ??$_Insert@ABVbncs_string@@@?$list@Vbncs_string@@V?$allocator@Vbncs_string@@@std@@@std@@QAEXV?$_List_unchecked_const_iterator@V?$_List_val@U?$_List_simple_types@Vbncs_string@@@std@@@std@@U_Iterator_base0@2@@1@ABVbncs_string@@@Z 1001fcd0 f i bncs_stringlist.obj
 0002:0000eda0       ??$_Iter_cat@PAVbncs_string@@@std@@YA?AUrandom_access_iterator_tag@0@ABQAVbncs_string@@@Z 1001fda0 f i bncs_stringlist.obj
 0002:0000ee20       ??$_Iter_cat@V?$_List_iterator@V?$_List_val@U?$_List_simple_types@Vbncs_string@@@std@@@std@@@std@@@std@@YA?AUbidirectional_iterator_tag@0@ABV?$_List_iterator@V?$_List_val@U?$_List_simple_types@Vbncs_string@@@std@@@std@@@0@@Z 1001fe20 f i bncs_stringlist.obj
 0002:0000eea0       ??$_Iter_cat@V?$_Vector_iterator@V?$_Vector_val@U?$_Simple_types@Vbncs_string@@@std@@@std@@@std@@@std@@YA?AUrandom_access_iterator_tag@0@ABV?$_Vector_iterator@V?$_Vector_val@U?$_Simple_types@Vbncs_string@@@std@@@std@@@0@@Z 1001fea0 f i bncs_stringlist.obj
 0002:0000ef20       ??$_Move@AAI@std@@YA$$QAIAAI@Z 1001ff20 f i bncs_stringlist.obj
 0002:0000ef60       ??$_Move@AAPAU?$_List_node@Vbncs_string@@PAX@std@@@std@@YA$$QAPAU?$_List_node@Vbncs_string@@PAX@0@AAPAU10@@Z 1001ff60 f i bncs_stringlist.obj
 0002:0000efa0       ??$_Move@AAPAU_Container_proxy@std@@@std@@YA$$QAPAU_Container_proxy@0@AAPAU10@@Z 1001ffa0 f i bncs_stringlist.obj
 0002:0000efe0       ??$_Move@PAVbncs_string@@PAV1@@std@@YAPAVbncs_string@@PAV1@00@Z 1001ffe0 f i bncs_stringlist.obj
 0002:0000f060       ??$_Move@PAVbncs_string@@PAV1@@std@@YAPAVbncs_string@@PAV1@00U_Nonscalar_ptr_iterator_tag@0@@Z 10020060 f i bncs_stringlist.obj
 0002:0000f0f0       ??$_Ptr_cat@Vbncs_string@@V1@@std@@YA?AU_Nonscalar_ptr_iterator_tag@0@PAVbncs_string@@0@Z 100200f0 f i bncs_stringlist.obj
 0002:0000f160       ??$_Rechecked@PAVbncs_string@@PAV1@@std@@YAAAPAVbncs_string@@AAPAV1@PAV1@@Z 10020160 f i bncs_stringlist.obj
 0002:0000f1a0       ??$_Swap_adl@PAU?$_List_node@Vbncs_string@@PAX@std@@@std@@YAXAAPAU?$_List_node@Vbncs_string@@PAX@0@0@Z 100201a0 f i bncs_stringlist.obj
 0002:0000f200       ??$_Swap_adl@PAU_Container_proxy@std@@@std@@YAXAAPAU_Container_proxy@0@0@Z 10020200 f i bncs_stringlist.obj
 0002:0000f260       ??$_Umove@PAVbncs_string@@@?$vector@Vbncs_string@@V?$allocator@Vbncs_string@@@std@@@std@@IAEPAVbncs_string@@PAV2@00@Z 10020260 f i bncs_stringlist.obj
 0002:0000f310       ??$_Unchecked@PAVbncs_string@@@std@@YAPAVbncs_string@@PAV1@@Z 10020310 f i bncs_stringlist.obj
 0002:0000f350       ??$_Uninit_fill_n@PAVbncs_string@@IV1@V?$allocator@Vbncs_string@@@std@@V1@@std@@YAXPAVbncs_string@@IPBV1@AAU?$_Wrap_alloc@V?$allocator@Vbncs_string@@@std@@@0@0U_Nonscalar_ptr_iterator_tag@0@@Z 10020350 f i bncs_stringlist.obj
 0002:0000f470       ??$_Uninit_move@PAVbncs_string@@PAV1@U?$_Wrap_alloc@V?$allocator@Vbncs_string@@@std@@@std@@@std@@YAPAVbncs_string@@PAV1@00AAU?$_Wrap_alloc@V?$allocator@Vbncs_string@@@std@@@0@@Z 10020470 f i bncs_stringlist.obj
 0002:0000f510       ??$_Uninit_move@PAVbncs_string@@PAV1@V?$allocator@Vbncs_string@@@std@@V1@@std@@YAPAVbncs_string@@PAV1@00AAU?$_Wrap_alloc@V?$allocator@Vbncs_string@@@std@@@0@0U_Nonscalar_ptr_iterator_tag@0@@Z 10020510 f i bncs_stringlist.obj
 0002:0000f670       ??$_Uninitialized_fill_n@PAVbncs_string@@IV1@U?$_Wrap_alloc@V?$allocator@Vbncs_string@@@std@@@std@@@std@@YAXPAVbncs_string@@IPBV1@AAU?$_Wrap_alloc@V?$allocator@Vbncs_string@@@std@@@0@@Z 10020670 f i bncs_stringlist.obj
 0002:0000f710       ??$_Uninitialized_move@PAVbncs_string@@PAV1@U?$_Wrap_alloc@V?$allocator@Vbncs_string@@@std@@@std@@@std@@YAPAVbncs_string@@PAV1@00AAU?$_Wrap_alloc@V?$allocator@Vbncs_string@@@std@@@0@@Z 10020710 f i bncs_stringlist.obj
 0002:0000f7b0       ??$_Val_type@PAVbncs_string@@@std@@YAPAVbncs_string@@PAV1@@Z 100207b0 f i bncs_stringlist.obj
 0002:0000f7e0       ??$addressof@$$CBVbncs_string@@@std@@YAPBVbncs_string@@ABV1@@Z 100207e0 f i bncs_stringlist.obj
 0002:0000f820       ??$addressof@PAU?$_List_node@Vbncs_string@@PAX@std@@@std@@YAPAPAU?$_List_node@Vbncs_string@@PAX@0@AAPAU10@@Z 10020820 f i bncs_stringlist.obj
 0002:0000f860       ??$addressof@Vbncs_string@@@std@@YAPAVbncs_string@@AAV1@@Z 10020860 f i bncs_stringlist.obj
 0002:0000f8a0       ??$advance@V?$_Vector_iterator@V?$_Vector_val@U?$_Simple_types@Vbncs_string@@@std@@@std@@@std@@H@std@@YAXAAV?$_Vector_iterator@V?$_Vector_val@U?$_Simple_types@Vbncs_string@@@std@@@std@@@0@H@Z 100208a0 f i bncs_stringlist.obj
 0002:0000f920       ??$construct@PAU?$_List_node@Vbncs_string@@PAX@std@@AAPAU12@@?$_Wrap_alloc@V?$allocator@U?$_List_node@Vbncs_string@@PAX@std@@@std@@@std@@QAEXPAPAU?$_List_node@Vbncs_string@@PAX@1@AAPAU21@@Z 10020920 f i bncs_stringlist.obj
 0002:0000f990       ??$construct@PAU?$_List_node@Vbncs_string@@PAX@std@@AAPAU12@@?$allocator@U?$_List_node@Vbncs_string@@PAX@std@@@std@@QAEXPAPAU?$_List_node@Vbncs_string@@PAX@1@AAPAU21@@Z 10020990 f i bncs_stringlist.obj
 0002:0000fa90       ??$construct@PAU?$_List_node@Vbncs_string@@PAX@std@@AAPAU12@@?$allocator_traits@V?$allocator@U?$_List_node@Vbncs_string@@PAX@std@@@std@@@std@@SAXAAV?$allocator@U?$_List_node@Vbncs_string@@PAX@std@@@1@PAPAU?$_List_node@Vbncs_string@@PAX@1@AAPAU31@@Z 10020a90 f i bncs_stringlist.obj
 0002:0000faf0       ??$construct@U_Container_proxy@std@@U12@@?$_Wrap_alloc@V?$allocator@U_Container_proxy@std@@@std@@@std@@QAEXPAU_Container_proxy@1@$$QAU21@@Z 10020af0 f i bncs_stringlist.obj
 0002:0000fb60       ??$construct@U_Container_proxy@std@@U12@@?$allocator_traits@V?$allocator@U_Container_proxy@std@@@std@@@std@@SAXAAV?$allocator@U_Container_proxy@std@@@1@PAU_Container_proxy@1@$$QAU31@@Z 10020b60 f i bncs_stringlist.obj
 0002:0000fbc0       ??$construct@Vbncs_string@@AAV1@@?$_Wrap_alloc@V?$allocator@Vbncs_string@@@std@@@std@@QAEXPAVbncs_string@@AAV2@@Z 10020bc0 f i bncs_stringlist.obj
 0002:0000fc30       ??$construct@Vbncs_string@@AAV1@@?$allocator@Vbncs_string@@@std@@QAEXPAVbncs_string@@AAV2@@Z 10020c30 f i bncs_stringlist.obj
 0002:0000fd30       ??$construct@Vbncs_string@@AAV1@@?$allocator_traits@V?$allocator@Vbncs_string@@@std@@@std@@SAXAAV?$allocator@Vbncs_string@@@1@PAVbncs_string@@AAV3@@Z 10020d30 f i bncs_stringlist.obj
 0002:0000fd90       ??$construct@Vbncs_string@@ABV1@@?$_Wrap_alloc@V?$allocator@U?$_List_node@Vbncs_string@@PAX@std@@@std@@@std@@QAEXPAVbncs_string@@ABV2@@Z 10020d90 f i bncs_stringlist.obj
 0002:0000fe00       ??$construct@Vbncs_string@@ABV1@@?$_Wrap_alloc@V?$allocator@Vbncs_string@@@std@@@std@@QAEXPAVbncs_string@@ABV2@@Z 10020e00 f i bncs_stringlist.obj
 0002:0000fe70       ??$construct@Vbncs_string@@ABV1@@?$allocator@U?$_List_node@Vbncs_string@@PAX@std@@@std@@QAEXPAVbncs_string@@ABV2@@Z 10020e70 f i bncs_stringlist.obj
 0002:0000ff70       ??$construct@Vbncs_string@@ABV1@@?$allocator_traits@V?$allocator@U?$_List_node@Vbncs_string@@PAX@std@@@std@@@std@@SAXAAV?$allocator@U?$_List_node@Vbncs_string@@PAX@std@@@1@PAVbncs_string@@ABV3@@Z 10020f70 f i bncs_stringlist.obj
 0002:0000ffd0       ??$construct@Vbncs_string@@ABV1@@?$allocator_traits@V?$allocator@Vbncs_string@@@std@@@std@@SAXAAV?$allocator@Vbncs_string@@@1@PAVbncs_string@@ABV3@@Z 10020fd0 f i bncs_stringlist.obj
 0002:00010030       ??$construct@Vbncs_string@@V1@@?$_Wrap_alloc@V?$allocator@Vbncs_string@@@std@@@std@@QAEXPAVbncs_string@@$$QAV2@@Z 10021030 f i bncs_stringlist.obj
 0002:000100a0       ??$construct@Vbncs_string@@V1@@?$allocator@Vbncs_string@@@std@@QAEXPAVbncs_string@@$$QAV2@@Z 100210a0 f i bncs_stringlist.obj
 0002:000101a0       ??$construct@Vbncs_string@@V1@@?$allocator_traits@V?$allocator@Vbncs_string@@@std@@@std@@SAXAAV?$allocator@Vbncs_string@@@1@PAVbncs_string@@$$QAV3@@Z 100211a0 f i bncs_stringlist.obj
 0002:00010200       ??$destroy@PAU?$_List_node@Vbncs_string@@PAX@std@@@?$_Wrap_alloc@V?$allocator@U?$_List_node@Vbncs_string@@PAX@std@@@std@@@std@@QAEXPAPAU?$_List_node@Vbncs_string@@PAX@1@@Z 10021200 f i bncs_stringlist.obj
 0002:00010260       ??$destroy@PAU?$_List_node@Vbncs_string@@PAX@std@@@?$allocator@U?$_List_node@Vbncs_string@@PAX@std@@@std@@QAEXPAPAU?$_List_node@Vbncs_string@@PAX@1@@Z 10021260 f i bncs_stringlist.obj
 0002:000102a0       ??$destroy@PAU?$_List_node@Vbncs_string@@PAX@std@@@?$allocator_traits@V?$allocator@U?$_List_node@Vbncs_string@@PAX@std@@@std@@@std@@SAXAAV?$allocator@U?$_List_node@Vbncs_string@@PAX@std@@@1@PAPAU?$_List_node@Vbncs_string@@PAX@1@@Z 100212a0 f i bncs_stringlist.obj
 0002:000102f0       ??$destroy@U_Container_proxy@std@@@?$_Wrap_alloc@V?$allocator@U_Container_proxy@std@@@std@@@std@@QAEXPAU_Container_proxy@1@@Z 100212f0 f i bncs_stringlist.obj
 0002:00010350       ??$destroy@U_Container_proxy@std@@@?$allocator_traits@V?$allocator@U_Container_proxy@std@@@std@@@std@@SAXAAV?$allocator@U_Container_proxy@std@@@1@PAU_Container_proxy@1@@Z 10021350 f i bncs_stringlist.obj
 0002:000103a0       ??$destroy@Vbncs_string@@@?$_Wrap_alloc@V?$allocator@U?$_List_node@Vbncs_string@@PAX@std@@@std@@@std@@QAEXPAVbncs_string@@@Z 100213a0 f i bncs_stringlist.obj
 0002:00010400       ??$destroy@Vbncs_string@@@?$_Wrap_alloc@V?$allocator@Vbncs_string@@@std@@@std@@QAEXPAVbncs_string@@@Z 10021400 f i bncs_stringlist.obj
 0002:00010460       ??$destroy@Vbncs_string@@@?$allocator@U?$_List_node@Vbncs_string@@PAX@std@@@std@@QAEXPAVbncs_string@@@Z 10021460 f i bncs_stringlist.obj
 0002:000104d0       ??$destroy@Vbncs_string@@@?$allocator@Vbncs_string@@@std@@QAEXPAVbncs_string@@@Z 100214d0 f i bncs_stringlist.obj
 0002:00010540       ??$destroy@Vbncs_string@@@?$allocator_traits@V?$allocator@U?$_List_node@Vbncs_string@@PAX@std@@@std@@@std@@SAXAAV?$allocator@U?$_List_node@Vbncs_string@@PAX@std@@@1@PAVbncs_string@@@Z 10021540 f i bncs_stringlist.obj
 0002:00010590       ??$destroy@Vbncs_string@@@?$allocator_traits@V?$allocator@Vbncs_string@@@std@@@std@@SAXAAV?$allocator@Vbncs_string@@@1@PAVbncs_string@@@Z 10021590 f i bncs_stringlist.obj
 0002:000105e0       ??$emplace_back@AAVbncs_string@@@?$vector@Vbncs_string@@V?$allocator@Vbncs_string@@@std@@@std@@QAEXAAVbncs_string@@@Z 100215e0 f i bncs_stringlist.obj
 0002:000106b0       ??$emplace_back@ABVbncs_string@@@?$vector@Vbncs_string@@V?$allocator@Vbncs_string@@@std@@@std@@QAEXABVbncs_string@@@Z 100216b0 f i bncs_stringlist.obj
 0002:00010780       ??$fill@PAVbncs_string@@V1@@std@@YAXPAVbncs_string@@0ABV1@@Z 10021780 f i bncs_stringlist.obj
 0002:00010810       ??$forward@AAPAU?$_List_node@Vbncs_string@@PAX@std@@@std@@YAAAPAU?$_List_node@Vbncs_string@@PAX@0@AAPAU10@@Z 10021810 f i bncs_stringlist.obj
 0002:00010850       ??$forward@AAVbncs_string@@@std@@YAAAVbncs_string@@AAV1@@Z 10021850 f i bncs_stringlist.obj
 0002:00010890       ??$forward@ABVbncs_string@@@std@@YAABVbncs_string@@ABV1@@Z 10021890 f i bncs_stringlist.obj
 0002:000108d0       ??$forward@Vbncs_string@@@std@@YA$$QAVbncs_string@@AAV1@@Z 100218d0 f i bncs_stringlist.obj
 0002:00010910       ??$merge@U?$less@X@std@@@?$list@Vbncs_string@@V?$allocator@Vbncs_string@@@std@@@std@@QAEXAAV01@U?$less@X@1@@Z 10021910 f i bncs_stringlist.obj
 0002:00010de0       ??$move@AAVbncs_string@@@std@@YA$$QAVbncs_string@@AAV1@@Z 10021de0 f i bncs_stringlist.obj
 0002:00010e20       ??$sort@U?$less@X@std@@@?$list@Vbncs_string@@V?$allocator@Vbncs_string@@@std@@@std@@QAEXU?$less@X@1@@Z 10021e20 f i bncs_stringlist.obj
 0002:00011350       ??$swap@I@std@@YAXAAI0@Z   10022350 f i bncs_stringlist.obj
 0002:00011410       ??$swap@PAU?$_List_node@Vbncs_string@@PAX@std@@@std@@YAXAAPAU?$_List_node@Vbncs_string@@PAX@0@0@Z 10022410 f i bncs_stringlist.obj
 0002:000114d0       ??$swap@PAU_Container_proxy@std@@@std@@YAXAAPAU_Container_proxy@0@0@Z 100224d0 f i bncs_stringlist.obj
 0002:00011590       ??0?$_Iterator012@Ubidirectional_iterator_tag@std@@Vbncs_string@@HPBV3@ABV3@U_Iterator_base12@2@@std@@QAE@ABU01@@Z 10022590 f i bncs_stringlist.obj
 0002:000115f0       ??0?$_Iterator012@Ubidirectional_iterator_tag@std@@Vbncs_string@@HPBV3@ABV3@U_Iterator_base12@2@@std@@QAE@XZ 100225f0 f i bncs_stringlist.obj
 0002:00011650       ??0?$_Iterator012@Urandom_access_iterator_tag@std@@Vbncs_string@@HPBV3@ABV3@U_Iterator_base12@2@@std@@QAE@ABU01@@Z 10022650 f i bncs_stringlist.obj
 0002:000116b0       ??0?$_Iterator012@Urandom_access_iterator_tag@std@@Vbncs_string@@HPBV3@ABV3@U_Iterator_base12@2@@std@@QAE@XZ 100226b0 f i bncs_stringlist.obj
 0002:00011710       ??0?$_List_alloc@$0A@U?$_List_base_types@Vbncs_string@@V?$allocator@Vbncs_string@@@std@@@std@@@std@@QAE@ABV?$allocator@Vbncs_string@@@1@@Z 10022710 f i bncs_stringlist.obj
 0002:00011810       ??0?$_List_buy@Vbncs_string@@V?$allocator@Vbncs_string@@@std@@@std@@QAE@ABV?$allocator@Vbncs_string@@@1@@Z 10022810 f i bncs_stringlist.obj
 0002:00011870       ??0?$_List_const_iterator@V?$_List_val@U?$_List_simple_types@Vbncs_string@@@std@@@std@@@std@@QAE@ABV01@@Z 10022870 f i bncs_stringlist.obj
 0002:000118d0       ??0?$_List_const_iterator@V?$_List_val@U?$_List_simple_types@Vbncs_string@@@std@@@std@@@std@@QAE@PAU?$_List_node@Vbncs_string@@PAX@1@PBV?$_List_val@U?$_List_simple_types@Vbncs_string@@@std@@@1@@Z 100228d0 f i bncs_stringlist.obj
 0002:00011930       ??0?$_List_iterator@V?$_List_val@U?$_List_simple_types@Vbncs_string@@@std@@@std@@@std@@QAE@ABV01@@Z 10022930 f i bncs_stringlist.obj
 0002:00011990       ??0?$_List_iterator@V?$_List_val@U?$_List_simple_types@Vbncs_string@@@std@@@std@@@std@@QAE@PAU?$_List_node@Vbncs_string@@PAX@1@PBV?$_List_val@U?$_List_simple_types@Vbncs_string@@@std@@@1@@Z 10022990 f i bncs_stringlist.obj
 0002:000119f0       ??0?$_List_unchecked_const_iterator@V?$_List_val@U?$_List_simple_types@Vbncs_string@@@std@@@std@@U_Iterator_base0@2@@std@@QAE@PAU?$_List_node@Vbncs_string@@PAX@1@PBV?$_List_val@U?$_List_simple_types@Vbncs_string@@@std@@@1@@Z 100229f0 f i bncs_stringlist.obj
 0002:00011a60       ??0?$_List_unchecked_const_iterator@V?$_List_val@U?$_List_simple_types@Vbncs_string@@@std@@@std@@U_Iterator_base12@2@@std@@QAE@ABV01@@Z 10022a60 f i bncs_stringlist.obj
 0002:00011ad0       ??0?$_List_unchecked_const_iterator@V?$_List_val@U?$_List_simple_types@Vbncs_string@@@std@@@std@@U_Iterator_base12@2@@std@@QAE@PAU?$_List_node@Vbncs_string@@PAX@1@PBV?$_List_val@U?$_List_simple_types@Vbncs_string@@@std@@@1@@Z 10022ad0 f i bncs_stringlist.obj
 0002:00011b90       ??0?$_List_unchecked_iterator@V?$_List_val@U?$_List_simple_types@Vbncs_string@@@std@@@std@@@std@@QAE@PAU?$_List_node@Vbncs_string@@PAX@1@PBV?$_List_val@U?$_List_simple_types@Vbncs_string@@@std@@@1@@Z 10022b90 f i bncs_stringlist.obj
 0002:00011bf0       ??0?$_List_val@U?$_List_simple_types@Vbncs_string@@@std@@@std@@QAE@XZ 10022bf0 f i bncs_stringlist.obj
 0002:00011c70       ??0?$_Vector_alloc@$0A@U?$_Vec_base_types@Vbncs_string@@V?$allocator@Vbncs_string@@@std@@@std@@@std@@QAE@ABV?$allocator@Vbncs_string@@@1@@Z 10022c70 f i bncs_stringlist.obj
 0002:00011d20       ??0?$_Vector_const_iterator@V?$_Vector_val@U?$_Simple_types@Vbncs_string@@@std@@@std@@@std@@QAE@ABV01@@Z 10022d20 f i bncs_stringlist.obj
 0002:00011d90       ??0?$_Vector_const_iterator@V?$_Vector_val@U?$_Simple_types@Vbncs_string@@@std@@@std@@@std@@QAE@PAVbncs_string@@PBU_Container_base12@1@@Z 10022d90 f i bncs_stringlist.obj
 0002:00011e50       ??0?$_Vector_const_iterator@V?$_Vector_val@U?$_Simple_types@Vbncs_string@@@std@@@std@@@std@@QAE@XZ 10022e50 f i bncs_stringlist.obj
 0002:00011eb0       ??0?$_Vector_iterator@V?$_Vector_val@U?$_Simple_types@Vbncs_string@@@std@@@std@@@std@@QAE@ABV01@@Z 10022eb0 f i bncs_stringlist.obj
 0002:00011f10       ??0?$_Vector_iterator@V?$_Vector_val@U?$_Simple_types@Vbncs_string@@@std@@@std@@@std@@QAE@PAVbncs_string@@PBU_Container_base12@1@@Z 10022f10 f i bncs_stringlist.obj
 0002:00011f70       ??0?$_Vector_val@U?$_Simple_types@Vbncs_string@@@std@@@std@@QAE@XZ 10022f70 f i bncs_stringlist.obj
 0002:00012000       ??0?$_Wrap_alloc@V?$allocator@U?$_List_node@Vbncs_string@@PAX@std@@@std@@@std@@QAE@XZ 10023000 f i bncs_stringlist.obj
 0002:00012060       ??0?$_Wrap_alloc@V?$allocator@U_Container_proxy@std@@@std@@@std@@QAE@XZ 10023060 f i bncs_stringlist.obj
 0002:000120c0       ??0?$_Wrap_alloc@V?$allocator@Vbncs_string@@@std@@@std@@QAE@XZ 100230c0 f i bncs_stringlist.obj
 0002:00012120       ??0?$allocator@U?$_List_node@Vbncs_string@@PAX@std@@@std@@QAE@ABV01@@Z 10023120 f i bncs_stringlist.obj
 0002:00012160       ??0?$allocator@U?$_List_node@Vbncs_string@@PAX@std@@@std@@QAE@XZ 10023160 f i bncs_stringlist.obj
 0002:000121a0       ??0?$allocator@Vbncs_string@@@std@@QAE@XZ 100231a0 f i bncs_stringlist.obj
 0002:000121e0       ??0?$list@Vbncs_string@@V?$allocator@Vbncs_string@@@std@@@std@@QAE@ABV?$allocator@Vbncs_string@@@1@@Z 100231e0 f i bncs_stringlist.obj
 0002:00012240       ??0?$list@Vbncs_string@@V?$allocator@Vbncs_string@@@std@@@std@@QAE@XZ 10023240 f i bncs_stringlist.obj
 0002:000122b0       ??0?$vector@Vbncs_string@@V?$allocator@Vbncs_string@@@std@@@std@@QAE@XZ 100232b0 f i bncs_stringlist.obj
 0002:00012320       ??0_Iterator_base12@std@@QAE@ABU01@@Z 10023320 f i bncs_stringlist.obj
 0002:000123a0       ??0_Iterator_base12@std@@QAE@XZ 100233a0 f i bncs_stringlist.obj
 0002:000123f0       ??0bncs_stringlistPrivate@@QAE@XZ 100233f0 f i bncs_stringlist.obj
 0002:000124a0       ??1?$_Iterator012@Ubidirectional_iterator_tag@std@@Vbncs_string@@HPBV3@ABV3@U_Iterator_base12@2@@std@@QAE@XZ 100234a0 f i bncs_stringlist.obj
 0002:000124f0       ??1?$_Iterator012@Urandom_access_iterator_tag@std@@Vbncs_string@@HPBV3@ABV3@U_Iterator_base12@2@@std@@QAE@XZ 100234f0 f i bncs_stringlist.obj
 0002:00012540       ??1?$_List_alloc@$0A@U?$_List_base_types@Vbncs_string@@V?$allocator@Vbncs_string@@@std@@@std@@@std@@QAE@XZ 10023540 f i bncs_stringlist.obj
 0002:000125b0       ??1?$_List_buy@Vbncs_string@@V?$allocator@Vbncs_string@@@std@@@std@@QAE@XZ 100235b0 f i bncs_stringlist.obj
 0002:00012600       ??1?$_List_const_iterator@V?$_List_val@U?$_List_simple_types@Vbncs_string@@@std@@@std@@@std@@QAE@XZ 10023600 f i bncs_stringlist.obj
 0002:00012650       ??1?$_List_iterator@V?$_List_val@U?$_List_simple_types@Vbncs_string@@@std@@@std@@@std@@QAE@XZ 10023650 f i bncs_stringlist.obj
 0002:000126a0       ??1?$_List_unchecked_const_iterator@V?$_List_val@U?$_List_simple_types@Vbncs_string@@@std@@@std@@U_Iterator_base12@2@@std@@QAE@XZ 100236a0 f i bncs_stringlist.obj
 0002:000126f0       ??1?$_List_val@U?$_List_simple_types@Vbncs_string@@@std@@@std@@QAE@XZ 100236f0 f i bncs_stringlist.obj
 0002:00012750       ??1?$_Vector_alloc@$0A@U?$_Vec_base_types@Vbncs_string@@V?$allocator@Vbncs_string@@@std@@@std@@@std@@QAE@XZ 10023750 f i bncs_stringlist.obj
 0002:000127b0       ??1?$_Vector_const_iterator@V?$_Vector_val@U?$_Simple_types@Vbncs_string@@@std@@@std@@@std@@QAE@XZ 100237b0 f i bncs_stringlist.obj
 0002:00012800       ??1?$_Vector_iterator@V?$_Vector_val@U?$_Simple_types@Vbncs_string@@@std@@@std@@@std@@QAE@XZ 10023800 f i bncs_stringlist.obj
 0002:00012850       ??1?$_Vector_val@U?$_Simple_types@Vbncs_string@@@std@@@std@@QAE@XZ 10023850 f i bncs_stringlist.obj
 0002:000128b0       ??1?$list@Vbncs_string@@V?$allocator@Vbncs_string@@@std@@@std@@QAE@XZ 100238b0 f i bncs_stringlist.obj
 0002:00012910       ??1?$vector@Vbncs_string@@V?$allocator@Vbncs_string@@@std@@@std@@QAE@XZ 10023910 f i bncs_stringlist.obj
 0002:00012970       ??1_Iterator_base12@std@@QAE@XZ 10023970 f i bncs_stringlist.obj
 0002:00012a30       ??1bncs_stringlistPrivate@@QAE@XZ 10023a30 f i bncs_stringlist.obj
 0002:00012a80       ??4?$_Iterator012@Ubidirectional_iterator_tag@std@@Vbncs_string@@HPBV3@ABV3@U_Iterator_base12@2@@std@@QAEAAU01@ABU01@@Z 10023a80 f i bncs_stringlist.obj
 0002:00012ae0       ??4?$_Iterator012@Urandom_access_iterator_tag@std@@Vbncs_string@@HPBV3@ABV3@U_Iterator_base12@2@@std@@QAEAAU01@ABU01@@Z 10023ae0 f i bncs_stringlist.obj
 0002:00012b40       ??4?$_List_const_iterator@V?$_List_val@U?$_List_simple_types@Vbncs_string@@@std@@@std@@@std@@QAEAAV01@ABV01@@Z 10023b40 f i bncs_stringlist.obj
 0002:00012ba0       ??4?$_List_iterator@V?$_List_val@U?$_List_simple_types@Vbncs_string@@@std@@@std@@@std@@QAEAAV01@ABV01@@Z 10023ba0 f i bncs_stringlist.obj
 0002:00012c00       ??4?$_List_unchecked_const_iterator@V?$_List_val@U?$_List_simple_types@Vbncs_string@@@std@@@std@@U_Iterator_base12@2@@std@@QAEAAV01@ABV01@@Z 10023c00 f i bncs_stringlist.obj
 0002:00012c70       ??4?$_Vector_const_iterator@V?$_Vector_val@U?$_Simple_types@Vbncs_string@@@std@@@std@@@std@@QAEAAV01@ABV01@@Z 10023c70 f i bncs_stringlist.obj
 0002:00012ce0       ??4_Iterator_base12@std@@QAEAAU01@ABU01@@Z 10023ce0 f i bncs_stringlist.obj
 0002:00012e20       ??4bncs_stringlistIterator@@QAEAAV0@ABV0@@Z 10023e20 f i bncs_stringlist.obj
 0002:00012e80       ??8?$_List_const_iterator@V?$_List_val@U?$_List_simple_types@Vbncs_string@@@std@@@std@@@std@@QBE_NABV01@@Z 10023e80 f i bncs_stringlist.obj
 0002:00012fe0       ??8?$_Vector_const_iterator@V?$_Vector_val@U?$_Simple_types@Vbncs_string@@@std@@@std@@@std@@QBE_NABV01@@Z 10023fe0 f i bncs_stringlist.obj
 0002:00013070       ??9?$_List_const_iterator@V?$_List_val@U?$_List_simple_types@Vbncs_string@@@std@@@std@@@std@@QBE_NABV01@@Z 10024070 f i bncs_stringlist.obj
 0002:00013100       ??9?$_Vector_const_iterator@V?$_Vector_val@U?$_Simple_types@Vbncs_string@@@std@@@std@@@std@@QBE_NABV01@@Z 10024100 f i bncs_stringlist.obj
 0002:00013190       ??A?$vector@Vbncs_string@@V?$allocator@Vbncs_string@@@std@@@std@@QAEAAVbncs_string@@I@Z 10024190 f i bncs_stringlist.obj
 0002:000132a0       ??C?$_Vector_iterator@V?$_Vector_val@U?$_Simple_types@Vbncs_string@@@std@@@std@@@std@@QBEPAVbncs_string@@XZ 100242a0 f i bncs_stringlist.obj
 0002:00013300       ??D?$_List_const_iterator@V?$_List_val@U?$_List_simple_types@Vbncs_string@@@std@@@std@@@std@@QBEABVbncs_string@@XZ 10024300 f i bncs_stringlist.obj
 0002:00013440       ??D?$_List_iterator@V?$_List_val@U?$_List_simple_types@Vbncs_string@@@std@@@std@@@std@@QBEAAVbncs_string@@XZ 10024440 f i bncs_stringlist.obj
 0002:00013490       ??D?$_Vector_const_iterator@V?$_Vector_val@U?$_Simple_types@Vbncs_string@@@std@@@std@@@std@@QBEABVbncs_string@@XZ 10024490 f i bncs_stringlist.obj
 0002:000135d0       ??D?$_Vector_iterator@V?$_Vector_val@U?$_Simple_types@Vbncs_string@@@std@@@std@@@std@@QBEAAVbncs_string@@XZ 100245d0 f i bncs_stringlist.obj
 0002:00013620       ??E?$_List_const_iterator@V?$_List_val@U?$_List_simple_types@Vbncs_string@@@std@@@std@@@std@@QAEAAV01@XZ 10024620 f i bncs_stringlist.obj
 0002:00013770       ??E?$_List_iterator@V?$_List_val@U?$_List_simple_types@Vbncs_string@@@std@@@std@@@std@@QAEAAV01@XZ 10024770 f i bncs_stringlist.obj
 0002:000137d0       ??E?$_Vector_const_iterator@V?$_Vector_val@U?$_Simple_types@Vbncs_string@@@std@@@std@@@std@@QAEAAV01@XZ 100247d0 f i bncs_stringlist.obj
 0002:00013900       ??E?$_Vector_iterator@V?$_Vector_val@U?$_Simple_types@Vbncs_string@@@std@@@std@@@std@@QAEAAV01@XZ 10024900 f i bncs_stringlist.obj
 0002:00013960       ??H?$_Vector_iterator@V?$_Vector_val@U?$_Simple_types@Vbncs_string@@@std@@@std@@@std@@QBE?AV01@H@Z 10024960 f i bncs_stringlist.obj
 0002:00013a80       ??Y?$_Vector_const_iterator@V?$_Vector_val@U?$_Simple_types@Vbncs_string@@@std@@@std@@@std@@QAEAAV01@H@Z 10024a80 f i bncs_stringlist.obj
 0002:00013be0       ??Y?$_Vector_iterator@V?$_Vector_val@U?$_Simple_types@Vbncs_string@@@std@@@std@@@std@@QAEAAV01@H@Z 10024be0 f i bncs_stringlist.obj
 0002:00013c40       ??_Ebncs_stringlist@@UAEPAXI@Z 10024c40 f i bncs_stringlist.obj
 0002:00013d00       ??_Fbncs_stringlistIterator@@QAEXXZ 10024d00 f i bncs_stringlist.obj
 0002:00013d60       ??_Gbncs_stringlist@@UAEPAXI@Z 10024d60 f i bncs_stringlist.obj
 0002:00013dd0       ??_Gbncs_stringlistPrivate@@QAEPAXI@Z 10024dd0 f i bncs_stringlist.obj
 0002:00013e40       ?_Adopt@_Iterator_base0@std@@QAEXPBX@Z 10024e40 f i bncs_stringlist.obj
 0002:00013e80       ?_Adopt@_Iterator_base12@std@@QAEXPBU_Container_base12@2@@Z 10024e80 f i bncs_stringlist.obj
 0002:00014030       ?_Alloc_proxy@?$_List_alloc@$0A@U?$_List_base_types@Vbncs_string@@V?$allocator@Vbncs_string@@@std@@@std@@@std@@QAEXXZ 10025030 f i bncs_stringlist.obj
 0002:00014100       ?_Alloc_proxy@?$_Vector_alloc@$0A@U?$_Vec_base_types@Vbncs_string@@V?$allocator@Vbncs_string@@@std@@@std@@@std@@QAEXXZ 10025100 f i bncs_stringlist.obj
 0002:000141d0       ?_Buyheadnode@?$_List_alloc@$0A@U?$_List_base_types@Vbncs_string@@V?$allocator@Vbncs_string@@@std@@@std@@@std@@QAEPAU?$_List_node@Vbncs_string@@PAX@2@XZ 100251d0 f i bncs_stringlist.obj
 0002:00014230       ?_Buynode0@?$_List_alloc@$0A@U?$_List_base_types@Vbncs_string@@V?$allocator@Vbncs_string@@@std@@@std@@@std@@QAEPAU?$_List_node@Vbncs_string@@PAX@2@PAU32@0@Z 10025230 f i bncs_stringlist.obj
 0002:000143f0       ?_Clrcont@_Iterator_base12@std@@QAEXXZ 100253f0 f i bncs_stringlist.obj
 0002:00014430       ?_Compat@?$_Vector_const_iterator@V?$_Vector_val@U?$_Simple_types@Vbncs_string@@@std@@@std@@@std@@QBEXABV12@@Z 10025430 f i bncs_stringlist.obj
 0002:00014550       ?_Destroy@?$vector@Vbncs_string@@V?$allocator@Vbncs_string@@@std@@@std@@IAEXPAVbncs_string@@0@Z 10025550 f i bncs_stringlist.obj
 0002:00014600       ?_Free_proxy@?$_List_alloc@$0A@U?$_List_base_types@Vbncs_string@@V?$allocator@Vbncs_string@@@std@@@std@@@std@@QAEXXZ 10025600 f i bncs_stringlist.obj
 0002:000146e0       ?_Free_proxy@?$_Vector_alloc@$0A@U?$_Vec_base_types@Vbncs_string@@V?$allocator@Vbncs_string@@@std@@@std@@@std@@QAEXXZ 100256e0 f i bncs_stringlist.obj
 0002:000147c0       ?_Freeheadnode@?$_List_alloc@$0A@U?$_List_base_types@Vbncs_string@@V?$allocator@Vbncs_string@@@std@@@std@@@std@@QAEXPAU?$_List_node@Vbncs_string@@PAX@2@@Z 100257c0 f i bncs_stringlist.obj
 0002:000148a0       ?_Freenode@?$_List_buy@Vbncs_string@@V?$allocator@Vbncs_string@@@std@@@std@@QAEXPAU?$_List_node@Vbncs_string@@PAX@2@@Z 100258a0 f i bncs_stringlist.obj
 0002:000149b0       ?_Getal@?$_List_alloc@$0A@U?$_List_base_types@Vbncs_string@@V?$allocator@Vbncs_string@@@std@@@std@@@std@@QBE?AU?$_Wrap_alloc@V?$allocator@U?$_List_node@Vbncs_string@@PAX@std@@@std@@@2@XZ 100259b0 f i bncs_stringlist.obj
 0002:00014a10       ?_Getal@?$_Vector_alloc@$0A@U?$_Vec_base_types@Vbncs_string@@V?$allocator@Vbncs_string@@@std@@@std@@@std@@QBE?AU?$_Wrap_alloc@V?$allocator@Vbncs_string@@@std@@@2@XZ 10025a10 f i bncs_stringlist.obj
 0002:00014a70       ?_Getcont@_Iterator_base12@std@@QBEPBU_Container_base12@2@XZ 10025a70 f i bncs_stringlist.obj
 0002:00014ae0       ?_Getpnext@_Iterator_base12@std@@QAEPAPAU12@XZ 10025ae0 f i bncs_stringlist.obj
 0002:00014b20       ?_Grow_to@?$vector@Vbncs_string@@V?$allocator@Vbncs_string@@@std@@@std@@IBEII@Z 10025b20 f i bncs_stringlist.obj
 0002:00014bd0       ?_Incsize@?$list@Vbncs_string@@V?$allocator@Vbncs_string@@@std@@@std@@QAEXI@Z 10025bd0 f i bncs_stringlist.obj
 0002:00014c60       ?_Insert_n@?$vector@Vbncs_string@@V?$allocator@Vbncs_string@@@std@@@std@@IAE?AV?$_Vector_iterator@V?$_Vector_val@U?$_Simple_types@Vbncs_string@@@std@@@std@@@2@V?$_Vector_const_iterator@V?$_Vector_val@U?$_Simple_types@Vbncs_string@@@std@@@std@@@2@IABVbncs_string@@@Z 10025c60 f i bncs_stringlist.obj
 0002:000152e0       ?_Inside@?$vector@Vbncs_string@@V?$allocator@Vbncs_string@@@std@@@std@@IBE_NPBVbncs_string@@@Z 100262e0 f i bncs_stringlist.obj
 0002:00015360       ?_Make_iter@?$vector@Vbncs_string@@V?$allocator@Vbncs_string@@@std@@@std@@QBE?AV?$_Vector_iterator@V?$_Vector_val@U?$_Simple_types@Vbncs_string@@@std@@@std@@@2@V?$_Vector_const_iterator@V?$_Vector_val@U?$_Simple_types@Vbncs_string@@@std@@@std@@@2@@Z 10026360 f i bncs_stringlist.obj
 0002:00015430       ?_Mynode@?$_List_unchecked_const_iterator@V?$_List_val@U?$_List_simple_types@Vbncs_string@@@std@@@std@@U_Iterator_base0@2@@std@@QBEPAU?$_List_node@Vbncs_string@@PAX@2@XZ 10026430 f i bncs_stringlist.obj
 0002:00015470       ?_Mynode@?$_List_unchecked_const_iterator@V?$_List_val@U?$_List_simple_types@Vbncs_string@@@std@@@std@@U_Iterator_base12@2@@std@@QBEPAU?$_List_node@Vbncs_string@@PAX@2@XZ 10026470 f i bncs_stringlist.obj
 0002:000154b0       ?_Myval@?$_List_val@U?$_List_simple_types@Vbncs_string@@@std@@@std@@SAAAVbncs_string@@PAU?$_List_node@Vbncs_string@@PAX@2@@Z 100264b0 f i bncs_stringlist.obj
 0002:000154f0       ?_Nextnode@?$_List_val@U?$_List_simple_types@Vbncs_string@@@std@@@std@@SAAAPAU?$_List_node@Vbncs_string@@PAX@2@PAU32@@Z 100264f0 f i bncs_stringlist.obj
 0002:00015530       ?_Orphan_me@_Iterator_base12@std@@QAEXXZ 10026530 f i bncs_stringlist.obj
 0002:00015600       ?_Orphan_ptr@?$list@Vbncs_string@@V?$allocator@Vbncs_string@@@std@@@std@@QBEXAAV12@PAU?$_List_node@Vbncs_string@@PAX@2@@Z 10026600 f i bncs_stringlist.obj
 0002:00015790       ?_Orphan_range@?$vector@Vbncs_string@@V?$allocator@Vbncs_string@@@std@@@std@@IBEXPAVbncs_string@@0@Z 10026790 f i bncs_stringlist.obj
 0002:00015910       ?_Pop_back_n@?$vector@Vbncs_string@@V?$allocator@Vbncs_string@@@std@@@std@@QAEXI@Z 10026910 f i bncs_stringlist.obj
 0002:000159b0       ?_Prevnode@?$_List_val@U?$_List_simple_types@Vbncs_string@@@std@@@std@@SAAAPAU?$_List_node@Vbncs_string@@PAX@2@PAU32@@Z 100269b0 f i bncs_stringlist.obj
 0002:000159f0       ?_Reallocate@?$vector@Vbncs_string@@V?$allocator@Vbncs_string@@@std@@@std@@IAEXI@Z 100269f0 f i bncs_stringlist.obj
 0002:00015bd0       ?_Reserve@?$vector@Vbncs_string@@V?$allocator@Vbncs_string@@@std@@@std@@IAEXI@Z 10026bd0 f i bncs_stringlist.obj
 0002:00015c80       ?_Splice@?$list@Vbncs_string@@V?$allocator@Vbncs_string@@@std@@@std@@QAEXV?$_List_const_iterator@V?$_List_val@U?$_List_simple_types@Vbncs_string@@@std@@@std@@@2@AAV12@00I@Z 10026c80 f i bncs_stringlist.obj
 0002:00016100       ?_Splice_same@?$list@Vbncs_string@@V?$allocator@Vbncs_string@@@std@@@std@@QAEXV?$_List_const_iterator@V?$_List_val@U?$_List_simple_types@Vbncs_string@@@std@@@std@@@2@AAV12@00I@Z 10027100 f i bncs_stringlist.obj
 0002:00016320       ?_Swap_alloc@?$_List_alloc@$0A@U?$_List_base_types@Vbncs_string@@V?$allocator@Vbncs_string@@@std@@@std@@@std@@QAEXAAV12@@Z 10027320 f i bncs_stringlist.obj
 0002:00016380       ?_Tidy@?$list@Vbncs_string@@V?$allocator@Vbncs_string@@@std@@@std@@QAEXXZ 10027380 f i bncs_stringlist.obj
 0002:000163d0       ?_Tidy@?$vector@Vbncs_string@@V?$allocator@Vbncs_string@@@std@@@std@@IAEXXZ 100273d0 f i bncs_stringlist.obj
 0002:000164c0       ?_Ufill@?$vector@Vbncs_string@@V?$allocator@Vbncs_string@@@std@@@std@@IAEPAVbncs_string@@PAV3@IPBV3@@Z 100274c0 f i bncs_stringlist.obj
 0002:00016580       ?_Unchecked_end@?$list@Vbncs_string@@V?$allocator@Vbncs_string@@@std@@@std@@QAE?AV?$_List_unchecked_iterator@V?$_List_val@U?$_List_simple_types@Vbncs_string@@@std@@@std@@@2@XZ 10027580 f i bncs_stringlist.obj
 0002:000165f0       ?_Unused_capacity@?$vector@Vbncs_string@@V?$allocator@Vbncs_string@@@std@@@std@@QBEIXZ 100275f0 f i bncs_stringlist.obj
 0002:00016640       ?_Xlen@?$vector@Vbncs_string@@V?$allocator@Vbncs_string@@@std@@@std@@IBEXXZ 10027640 f i bncs_stringlist.obj
 0002:000166a0       ?allocate@?$_Wrap_alloc@V?$allocator@U?$_List_node@Vbncs_string@@PAX@std@@@std@@@std@@QAEPAU?$_List_node@Vbncs_string@@PAX@2@I@Z 100276a0 f i bncs_stringlist.obj
 0002:00016700       ?allocate@?$_Wrap_alloc@V?$allocator@U_Container_proxy@std@@@std@@@std@@QAEPAU_Container_proxy@2@I@Z 10027700 f i bncs_stringlist.obj
 0002:00016760       ?allocate@?$_Wrap_alloc@V?$allocator@Vbncs_string@@@std@@@std@@QAEPAVbncs_string@@I@Z 10027760 f i bncs_stringlist.obj
 0002:000167c0       ?allocate@?$allocator@U?$_List_node@Vbncs_string@@PAX@std@@@std@@QAEPAU?$_List_node@Vbncs_string@@PAX@2@I@Z 100277c0 f i bncs_stringlist.obj
 0002:00016820       ?allocate@?$allocator@Vbncs_string@@@std@@QAEPAVbncs_string@@I@Z 10027820 f i bncs_stringlist.obj
 0002:00016880       ?begin@?$list@Vbncs_string@@V?$allocator@Vbncs_string@@@std@@@std@@QAE?AV?$_List_iterator@V?$_List_val@U?$_List_simple_types@Vbncs_string@@@std@@@std@@@2@XZ 10027880 f i bncs_stringlist.obj
 0002:000168f0       ?begin@?$vector@Vbncs_string@@V?$allocator@Vbncs_string@@@std@@@std@@QAE?AV?$_Vector_iterator@V?$_Vector_val@U?$_Simple_types@Vbncs_string@@@std@@@std@@@2@XZ 100278f0 f i bncs_stringlist.obj
 0002:00016960       ?capacity@?$vector@Vbncs_string@@V?$allocator@Vbncs_string@@@std@@@std@@QBEIXZ 10027960 f i bncs_stringlist.obj
 0002:000169b0       ?clear@?$list@Vbncs_string@@V?$allocator@Vbncs_string@@@std@@@std@@QAEXXZ 100279b0 f i bncs_stringlist.obj
 0002:00016ab0       ?clear@?$vector@Vbncs_string@@V?$allocator@Vbncs_string@@@std@@@std@@QAEXXZ 10027ab0 f i bncs_stringlist.obj
 0002:00016b40       ?construct@?$allocator@Vbncs_string@@@std@@QAEXPAVbncs_string@@ABV3@@Z 10027b40 f i bncs_stringlist.obj
 0002:00016c30       ?deallocate@?$_Wrap_alloc@V?$allocator@U?$_List_node@Vbncs_string@@PAX@std@@@std@@@std@@QAEXPAU?$_List_node@Vbncs_string@@PAX@2@I@Z 10027c30 f i bncs_stringlist.obj
 0002:00016c90       ?deallocate@?$_Wrap_alloc@V?$allocator@U_Container_proxy@std@@@std@@@std@@QAEXPAU_Container_proxy@2@I@Z 10027c90 f i bncs_stringlist.obj
 0002:00016cf0       ?deallocate@?$_Wrap_alloc@V?$allocator@Vbncs_string@@@std@@@std@@QAEXPAVbncs_string@@I@Z 10027cf0 f i bncs_stringlist.obj
 0002:00016d50       ?deallocate@?$allocator@U?$_List_node@Vbncs_string@@PAX@std@@@std@@QAEXPAU?$_List_node@Vbncs_string@@PAX@2@I@Z 10027d50 f i bncs_stringlist.obj
 0002:00016db0       ?deallocate@?$allocator@Vbncs_string@@@std@@QAEXPAVbncs_string@@I@Z 10027db0 f i bncs_stringlist.obj
 0002:00016e10       ?empty@?$list@Vbncs_string@@V?$allocator@Vbncs_string@@@std@@@std@@QBE_NXZ 10027e10 f i bncs_stringlist.obj
 0002:00016e80       ?end@?$list@Vbncs_string@@V?$allocator@Vbncs_string@@@std@@@std@@QAE?AV?$_List_iterator@V?$_List_val@U?$_List_simple_types@Vbncs_string@@@std@@@std@@@2@XZ 10027e80 f i bncs_stringlist.obj
 0002:00016ef0       ?end@?$vector@Vbncs_string@@V?$allocator@Vbncs_string@@@std@@@std@@QAE?AV?$_Vector_iterator@V?$_Vector_val@U?$_Simple_types@Vbncs_string@@@std@@@std@@@2@XZ 10027ef0 f i bncs_stringlist.obj
 0002:00016f60       ?erase@?$vector@Vbncs_string@@V?$allocator@Vbncs_string@@@std@@@std@@QAE?AV?$_Vector_iterator@V?$_Vector_val@U?$_Simple_types@Vbncs_string@@@std@@@std@@@2@V?$_Vector_const_iterator@V?$_Vector_val@U?$_Simple_types@Vbncs_string@@@std@@@std@@@2@@Z 10027f60 f i bncs_stringlist.obj
 0002:00017110       ?insert@?$vector@Vbncs_string@@V?$allocator@Vbncs_string@@@std@@@std@@QAE?AV?$_Vector_iterator@V?$_Vector_val@U?$_Simple_types@Vbncs_string@@@std@@@std@@@2@V?$_Vector_const_iterator@V?$_Vector_val@U?$_Simple_types@Vbncs_string@@@std@@@std@@@2@ABVbncs_string@@@Z 10028110 f i bncs_stringlist.obj
 0002:00017210       ?max_size@?$_Wrap_alloc@V?$allocator@U?$_List_node@Vbncs_string@@PAX@std@@@std@@@std@@QBEIXZ 10028210 f i bncs_stringlist.obj
 0002:00017270       ?max_size@?$_Wrap_alloc@V?$allocator@Vbncs_string@@@std@@@std@@QBEIXZ 10028270 f i bncs_stringlist.obj
 0002:000172d0       ?max_size@?$allocator@U?$_List_node@Vbncs_string@@PAX@std@@@std@@QBEIXZ 100282d0 f i bncs_stringlist.obj
 0002:00017310       ?max_size@?$allocator@Vbncs_string@@@std@@QBEIXZ 10028310 f i bncs_stringlist.obj
 0002:00017350       ?max_size@?$allocator_traits@V?$allocator@U?$_List_node@Vbncs_string@@PAX@std@@@std@@@std@@SAIABV?$allocator@U?$_List_node@Vbncs_string@@PAX@std@@@2@@Z 10028350 f i bncs_stringlist.obj
 0002:000173a0       ?max_size@?$allocator_traits@V?$allocator@Vbncs_string@@@std@@@std@@SAIABV?$allocator@Vbncs_string@@@2@@Z 100283a0 f i bncs_stringlist.obj
 0002:000173f0       ?max_size@?$list@Vbncs_string@@V?$allocator@Vbncs_string@@@std@@@std@@QBEIXZ 100283f0 f i bncs_stringlist.obj
 0002:00017450       ?max_size@?$vector@Vbncs_string@@V?$allocator@Vbncs_string@@@std@@@std@@QBEIXZ 10028450 f i bncs_stringlist.obj
 0002:000174b0       ?pointer_to@?$pointer_traits@PAVbncs_string@@@std@@SAPAVbncs_string@@AAV3@@Z 100284b0 f i bncs_stringlist.obj
 0002:00017500       ?push_back@?$list@Vbncs_string@@V?$allocator@Vbncs_string@@@std@@@std@@QAEXABVbncs_string@@@Z 10028500 f i bncs_stringlist.obj
 0002:00017580       ?reserve@?$vector@Vbncs_string@@V?$allocator@Vbncs_string@@@std@@@std@@QAEXI@Z 10028580 f i bncs_stringlist.obj
 0002:00017600       ?resize@?$vector@Vbncs_string@@V?$allocator@Vbncs_string@@@std@@@std@@QAEXIABVbncs_string@@@Z 10028600 f i bncs_stringlist.obj
 0002:00017800       ?reverse@?$list@Vbncs_string@@V?$allocator@Vbncs_string@@@std@@@std@@QAEXXZ 10028800 f i bncs_stringlist.obj
 0002:000178c0       ?size@?$list@Vbncs_string@@V?$allocator@Vbncs_string@@@std@@@std@@QBEIXZ 100288c0 f i bncs_stringlist.obj
 0002:00017900       ?size@?$vector@Vbncs_string@@V?$allocator@Vbncs_string@@@std@@@std@@QBEIXZ 10028900 f i bncs_stringlist.obj
 0002:00017950       ?sort@?$list@Vbncs_string@@V?$allocator@Vbncs_string@@@std@@@std@@QAEXXZ 10028950 f i bncs_stringlist.obj
 0002:000179c0       ?splice@?$list@Vbncs_string@@V?$allocator@Vbncs_string@@@std@@@std@@QAEXV?$_List_const_iterator@V?$_List_val@U?$_List_simple_types@Vbncs_string@@@std@@@std@@@2@AAV12@@Z 100289c0 f i bncs_stringlist.obj
 0002:00017bb0       ?swap@?$list@Vbncs_string@@V?$allocator@Vbncs_string@@@std@@@std@@QAEXAAV12@@Z 10028bb0 f i bncs_stringlist.obj
 0002:00017d0e       ?uncaught_exception@std@@YA_NXZ 10028d0e f   msvcprtd:MSVCP120D.dll
 0002:00017d20       ??_U@YAPAXI@Z              10028d20 f   msvcprtd:newaop_s.obj
 0002:00017d36       ?_Debug_message@std@@YAXPB_W0I@Z 10028d36 f   msvcprtd:MSVCP120D.dll
 0002:00017d3c       ??0_Container_base12@std@@QAE@XZ 10028d3c f   msvcprtd:MSVCP120D.dll
 0002:00017d42       ??1_Container_base12@std@@QAE@XZ 10028d42 f   msvcprtd:MSVCP120D.dll
 0002:00017d48       ?_Orphan_all@_Container_base12@std@@QAEXXZ 10028d48 f   msvcprtd:MSVCP120D.dll
 0002:00017d4e       ?_Xbad_alloc@std@@YAXXZ    10028d4e f   msvcprtd:MSVCP120D.dll
 0002:00017d54       ?_Xlength_error@std@@YAXPBD@Z 10028d54 f   msvcprtd:MSVCP120D.dll
 0002:00017d5a       ?_Xout_of_range@std@@YAXPBD@Z 10028d5a f   msvcprtd:MSVCP120D.dll
 0002:00017d60       ??0id@locale@std@@QAE@I@Z  10028d60 f   msvcprtd:MSVCP120D.dll
 0002:00017d66       ?_Syserror_map@std@@YAPBDH@Z 10028d66 f   msvcprtd:MSVCP120D.dll
 0002:00017d6c       ?_Winerror_map@std@@YAPBDH@Z 10028d6c f   msvcprtd:MSVCP120D.dll
 0002:00017d72       ?good@ios_base@std@@QBE_NXZ 10028d72 f   msvcprtd:MSVCP120D.dll
 0002:00017d78       ?flags@ios_base@std@@QBEHXZ 10028d78 f   msvcprtd:MSVCP120D.dll
 0002:00017d7e       ?width@ios_base@std@@QBE_JXZ 10028d7e f   msvcprtd:MSVCP120D.dll
 0002:00017d84       ?width@ios_base@std@@QAE_J_J@Z 10028d84 f   msvcprtd:MSVCP120D.dll
 0002:00017d8a       ?sputc@?$basic_streambuf@DU?$char_traits@D@std@@@std@@QAEHD@Z 10028d8a f   msvcprtd:MSVCP120D.dll
 0002:00017d90       ?sputn@?$basic_streambuf@DU?$char_traits@D@std@@@std@@QAE_JPBD_J@Z 10028d90 f   msvcprtd:MSVCP120D.dll
 0002:00017d96       ?setstate@?$basic_ios@DU?$char_traits@D@std@@@std@@QAEXH_N@Z 10028d96 f   msvcprtd:MSVCP120D.dll
 0002:00017d9c       ?tie@?$basic_ios@DU?$char_traits@D@std@@@std@@QBEPAV?$basic_ostream@DU?$char_traits@D@std@@@2@XZ 10028d9c f   msvcprtd:MSVCP120D.dll
 0002:00017da2       ?rdbuf@?$basic_ios@DU?$char_traits@D@std@@@std@@QBEPAV?$basic_streambuf@DU?$char_traits@D@std@@@2@XZ 10028da2 f   msvcprtd:MSVCP120D.dll
 0002:00017da8       ?fill@?$basic_ios@DU?$char_traits@D@std@@@std@@QBEDXZ 10028da8 f   msvcprtd:MSVCP120D.dll
 0002:00017dae       ?_Osfx@?$basic_ostream@DU?$char_traits@D@std@@@std@@QAEXXZ 10028dae f   msvcprtd:MSVCP120D.dll
 0002:00017db4       ?flush@?$basic_ostream@DU?$char_traits@D@std@@@std@@QAEAAV12@XZ 10028db4 f   msvcprtd:MSVCP120D.dll
 0002:00017dba       ??0_Lockit@std@@QAE@H@Z    10028dba f   msvcprtd:MSVCP120D.dll
 0002:00017dc0       ??1_Lockit@std@@QAE@XZ     10028dc0 f   msvcprtd:MSVCP120D.dll
 0002:00017dc6       ?_Getpfirst@_Container_base12@std@@QBEPAPAU_Iterator_base12@2@XZ 10028dc6 f   msvcprtd:MSVCP120D.dll
 0002:00017dcc       ?_Swap_all@_Container_base12@std@@QAEXAAU12@@Z 10028dcc f   msvcprtd:MSVCP120D.dll
 0002:00017de0       ??_M@YGXPAXIHP6EX0@Z@Z     10028de0 f   MSVCRTD:ehvecdtr.obj
 0002:00017f00       ?__ArrayUnwind@@YGXPAXIHP6EX0@Z@Z 10028f00 f   MSVCRTD:ehvecdtr.obj
 0002:00017fac       __purecall                 10028fac f   MSVCRTD:MSVCR120D.dll
 0002:00017fb2       ??2@YAPAXI@Z               10028fb2 f   MSVCRTD:MSVCR120D.dll
 0002:00017fb8       ??3@YAXPAX@Z               10028fb8 f   MSVCRTD:MSVCR120D.dll
 0002:00017fc0       ___atonexitinit            10028fc0 f   MSVCRTD:atonexit.obj
 0002:000180a0       __onexit                   100290a0 f   MSVCRTD:atonexit.obj
 0002:000181e0       _atexit                    100291e0 f   MSVCRTD:atonexit.obj
 0002:00018216       _isdigit                   10029216 f   MSVCRTD:MSVCR120D.dll
 0002:0001821c       _toupper                   1002921c f   MSVCRTD:MSVCR120D.dll
 0002:00018222       _tolower                   10029222 f   MSVCRTD:MSVCR120D.dll
 0002:00018228       _memcpy                    10029228 f   MSVCRTD:MSVCR120D.dll
 0002:0001822e       _strcpy                    1002922e f   MSVCRTD:MSVCR120D.dll
 0002:00018234       _strcmp                    10029234 f   MSVCRTD:MSVCR120D.dll
 0002:0001823a       _strlen                    1002923a f   MSVCRTD:MSVCR120D.dll
 0002:00018240       _memmove                   10029240 f   MSVCRTD:MSVCR120D.dll
 0002:00018246       _strncmp                   10029246 f   MSVCRTD:MSVCR120D.dll
 0002:0001824c       _atoi                      1002924c f   MSVCRTD:MSVCR120D.dll
 0002:00018252       _atol                      10029252 f   MSVCRTD:MSVCR120D.dll
 0002:00018258       _strtod                    10029258 f   MSVCRTD:MSVCR120D.dll
 0002:0001825e       _strtoul                   1002925e f   MSVCRTD:MSVCR120D.dll
 0002:00018264       __gcvt                     10029264 f   MSVCRTD:MSVCR120D.dll
 0002:0001826a       _printf                    1002926a f   MSVCRTD:MSVCR120D.dll
 0002:00018270       __hypot                    10029270 f   MSVCRTD:MSVCR120D.dll
 0002:00018276       ??_V@YAXPAX@Z              10029276 f   MSVCRTD:MSVCR120D.dll
 0002:00018280       @_RTC_AllocaHelper@12      10029280 f   MSVCRTD:stack.obj
 0002:000182c0       @_RTC_CheckStackVars2@12   100292c0 f   MSVCRTD:stack.obj
 0002:000183d0       @_RTC_CheckStackVars@8     100293d0 f   MSVCRTD:stack.obj
 0002:00018440       __RTC_CheckEsp             10029440 f   MSVCRTD:stack.obj
 0002:00018470       @__security_check_cookie@4 10029470 f   MSVCRTD:secchk.obj
 0002:00018482       __CxxThrowException@8      10029482 f   MSVCRTD:MSVCR120D.dll
 0002:00018490       __RTC_InitBase             10029490 f   MSVCRTD:init.obj
 0002:000184d0       __RTC_Shutdown             100294d0 f   MSVCRTD:init.obj
 0002:000184e8       ___CxxFrameHandler3        100294e8 f   MSVCRTD:MSVCR120D.dll
 0002:000184f0       ??0type_info@@AAE@ABV0@@Z  100294f0 f   MSVCRTD:ti_inst.obj
 0002:00018510       ??4type_info@@AAEAAV0@ABV0@@Z 10029510 f   MSVCRTD:ti_inst.obj
 0002:00018530       ??_Etype_info@@UAEPAXI@Z   10029530 f i MSVCRTD:ti_inst.obj
 0002:000185c0       ??_L@YGXPAXIHP6EX0@Z1@Z    100295c0 f   MSVCRTD:ehvecctr.obj
 0002:0001869a       __invalid_parameter        1002969a f   MSVCRTD:MSVCR120D.dll
 0002:000186a0       __CrtDbgReportW            100296a0 f   MSVCRTD:MSVCR120D.dll
 0002:00018750       _NtCurrentTeb              10029750 f i MSVCRTD:crtdll.obj
 0002:00018760       __CRT_INIT@12              10029760 f   MSVCRTD:crtdll.obj
 0002:00018af0       __DllMainCRTStartup@12     10029af0 f   MSVCRTD:crtdll.obj
 0002:00018d50       ?terminate@@YAXXZ          10029d50 f   MSVCRTD:MSVCR120D.dll
 0002:00018d60       __except_handler4          10029d60 f   MSVCRTD:chandler4gs.obj
 0002:00018d90       __lock                     10029d90 f   MSVCRTD:MSVCR120D.dll
 0002:00018d96       __unlock                   10029d96 f   MSVCRTD:MSVCR120D.dll
 0002:00018d9c       __calloc_dbg               10029d9c f   MSVCRTD:MSVCR120D.dll
 0002:00018da2       ___dllonexit               10029da2 f   MSVCRTD:MSVCR120D.dll
 0002:00018f50       ?_RTC_AllocaFailure@@YAXPAXPAU_RTC_ALLOCA_NODE@@H@Z 10029f50 f   MSVCRTD:error.obj
 0002:00019130       ?_RTC_Failure@@YAXPAXH@Z   1002a130 f   MSVCRTD:error.obj
 0002:000191a0       ?_RTC_StackFailure@@YAXPAXPBD@Z 1002a1a0 f   MSVCRTD:error.obj
 0002:00019600       __RTC_UninitUse            1002a600 f   MSVCRTD:error.obj
 0002:00019730       ___raise_securityfailure   1002a730 f   MSVCRTD:gs_report.obj
 0002:00019790       ___report_gsfailure        1002a790 f   MSVCRTD:gs_report.obj
 0002:000198e0       ___report_rangecheckfailure 1002a8e0 f   MSVCRTD:gs_report.obj
 0002:000198f0       ___report_securityfailure  1002a8f0 f   MSVCRTD:gs_report.obj
 0002:00019a00       ___report_securityfailureEx 1002aa00 f   MSVCRTD:gs_report.obj
 0002:00019b70       ?_RTC_GetErrorFunc@@YAP6AHHPBDH00ZZPBX@Z 1002ab70 f   MSVCRTD:userapi.obj
 0002:00019b80       ?_RTC_GetErrorFuncW@@YAP6AHHPB_WH00ZZPBX@Z 1002ab80 f   MSVCRTD:userapi.obj
 0002:00019b90       __RTC_GetErrDesc           1002ab90 f   MSVCRTD:userapi.obj
 0002:00019bb0       __RTC_NumErrors            1002abb0 f   MSVCRTD:userapi.obj
 0002:00019bc0       __RTC_SetErrorFunc         1002abc0 f   MSVCRTD:userapi.obj
 0002:00019bf0       __RTC_SetErrorFuncW        1002abf0 f   MSVCRTD:userapi.obj
 0002:00019c20       __RTC_SetErrorType         1002ac20 f   MSVCRTD:userapi.obj
 0002:00019c4c       __CRT_RTC_INITW            1002ac4c f   MSVCRTD:MSVCR120D.dll
 0002:00019c52       ??1type_info@@UAE@XZ       1002ac52 f   MSVCRTD:MSVCR120D.dll
 0002:00019c58       ___CppXcptFilter           1002ac58 f   MSVCRTD:MSVCR120D.dll
 0002:00019c5e       __amsg_exit                1002ac5e f   MSVCRTD:MSVCR120D.dll
 0002:00019c64       __malloc_dbg               1002ac64 f   MSVCRTD:MSVCR120D.dll
 0002:00019c6a       __free_dbg                 1002ac6a f   MSVCRTD:MSVCR120D.dll
 0002:00019c70       __CrtSetCheckCount         1002ac70 f   MSVCRTD:MSVCR120D.dll
 0002:00019c80       __FindPESection            1002ac80 f   MSVCRTD:pesect.obj
 0002:00019d10       __IsNonwritableInCurrentImage 1002ad10 f   MSVCRTD:pesect.obj
 0002:00019e90       __ValidateImageBase        1002ae90 f   MSVCRTD:pesect.obj
 0002:00019f10       ___security_init_cookie    1002af10 f   MSVCRTD:gs_support.obj
 0002:0001a030       _DllMain@12                1002b030 f   MSVCRTD:dllmain.obj
 0002:0001a060       __RTC_Initialize           1002b060 f   MSVCRTD:initsect.obj
 0002:0001a090       __RTC_Terminate            1002b090 f   MSVCRTD:initsect.obj
 0002:0001a0be       __initterm                 1002b0be f   MSVCRTD:MSVCR120D.dll
 0002:0001a0c4       __initterm_e               1002b0c4 f   MSVCRTD:MSVCR120D.dll
 0002:0001a0d0       ___clean_type_info_names   1002b0d0 f   MSVCRTD:tncleanup.obj
 0002:0001a0e6       __except_handler4_common   1002b0e6 f   MSVCRTD:MSVCR120D.dll
 0002:0001a650       ?_RTC_GetSrcLine@@YAHPAEPA_WKPAH1K@Z 1002b650 f   MSVCRTD:pdblkup.obj
 0002:0001a9aa       __crt_debugger_hook        1002b9aa f   MSVCRTD:MSVCR120D.dll
 0002:0001a9b0       ___crtUnhandledException   1002b9b0 f   MSVCRTD:MSVCR120D.dll
 0002:0001a9b6       ___crtTerminateProcess     1002b9b6 f   MSVCRTD:MSVCR120D.dll
 0002:0001a9bc       ___clean_type_info_names_internal 1002b9bc f   MSVCRTD:MSVCR120D.dll
 0002:0001a9c2       _wcscpy_s                  1002b9c2 f   MSVCRTD:MSVCR120D.dll
 0002:0001a9c8       __wmakepath_s              1002b9c8 f   MSVCRTD:MSVCR120D.dll
 0002:0001a9ce       __wsplitpath_s             1002b9ce f   MSVCRTD:MSVCR120D.dll
 0002:0001a9d4       _EncodePointer@4           1002b9d4 f   kernel32:KERNEL32.dll
 0002:0001a9da       _DecodePointer@4           1002b9da f   kernel32:KERNEL32.dll
 0002:0001a9e0       _IsDebuggerPresent@0       1002b9e0 f   kernel32:KERNEL32.dll
 0002:0001a9e6       _RaiseException@16         1002b9e6 f   kernel32:KERNEL32.dll
 0002:0001a9ec       _GetLastError@0            1002b9ec f   kernel32:KERNEL32.dll
 0002:0001a9f2       _GetProcAddress@8          1002b9f2 f   kernel32:KERNEL32.dll
 0002:0001a9f8       _LoadLibraryExW@12         1002b9f8 f   kernel32:KERNEL32.dll
 0002:0001a9fe       _MultiByteToWideChar@24    1002b9fe f   kernel32:KERNEL32.dll
 0002:0001aa04       _WideCharToMultiByte@32    1002ba04 f   kernel32:KERNEL32.dll
 0002:0001aa0a       _IsProcessorFeaturePresent@4 1002ba0a f   kernel32:KERNEL32.dll
 0002:0001aa10       _QueryPerformanceCounter@4 1002ba10 f   kernel32:KERNEL32.dll
 0002:0001aa16       _GetCurrentProcessId@0     1002ba16 f   kernel32:KERNEL32.dll
 0002:0001aa1c       _GetCurrentThreadId@0      1002ba1c f   kernel32:KERNEL32.dll
 0002:0001aa22       _GetSystemTimeAsFileTime@4 1002ba22 f   kernel32:KERNEL32.dll
 0002:0001aa28       _DisableThreadLibraryCalls@4 1002ba28 f   kernel32:KERNEL32.dll
 0002:0001aa2e       _HeapAlloc@12              1002ba2e f   kernel32:KERNEL32.dll
 0002:0001aa34       _HeapFree@12               1002ba34 f   kernel32:KERNEL32.dll
 0002:0001aa3a       _GetProcessHeap@0          1002ba3a f   kernel32:KERNEL32.dll
 0002:0001aa40       _VirtualQuery@12           1002ba40 f   kernel32:KERNEL32.dll
 0002:0001aa46       _FreeLibrary@4             1002ba46 f   kernel32:KERNEL32.dll
 0002:0001aa4c       _GetModuleFileNameW@12     1002ba4c f   kernel32:KERNEL32.dll
 0002:0001aa52       _GetModuleHandleW@4        1002ba52 f   kernel32:KERNEL32.dll
 0002:0001aa58       __itoa                     1002ba58 f   MSVCRTD:MSVCR120D.dll
 0003:00000000       ___xc_a                    10031000     MSVCRTD:cinitexe.obj
 0003:00000238       ___xc_z                    10031238     MSVCRTD:cinitexe.obj
 0003:0000033c       ___xi_a                    1003133c     MSVCRTD:cinitexe.obj
 0003:00000648       ___xi_z                    10031648     MSVCRTD:cinitexe.obj
 0003:00000788       ??_C@_00CNPNBAHC@?$AA@     10031788     bncs_string.obj
 0003:00000790       ??_7error_category@std@@6B@ 10031790     bncs_string.obj
 0003:000007b4       ??_7_Generic_error_category@std@@6B@ 100317b4     bncs_string.obj
 0003:000007d4       ??_C@_07DCLBNMLN@generic?$AA@ 100317d4     bncs_string.obj
 0003:000007e0       ??_C@_0O@BFJCFAAK@unknown?5error?$AA@ 100317e0     bncs_string.obj
 0003:000007f4       ??_7_Iostream_error_category@std@@6B@ 100317f4     bncs_string.obj
 0003:00000814       ??_C@_08LLGCOLLL@iostream?$AA@ 10031814     bncs_string.obj
 0003:00000820       ??_C@_0BG@PADBLCHM@iostream?5stream?5error?$AA@ 10031820     bncs_string.obj
 0003:00000840       ??_7_System_error_category@std@@6B@ 10031840     bncs_string.obj
 0003:00000860       ??_C@_06FHFOAHML@system?$AA@ 10031860     bncs_string.obj
 0003:0000086c       ??_7bncs_string@@6B@       1003186c     bncs_string.obj
 0003:00000874       ??_C@_03OFAPEBGM@?$CFs?6?$AA@ 10031874     bncs_string.obj
 0003:00000878       ??_C@_1IO@JLPDPDPD@?$AAc?$AA?3?$AA?2?$AAp?$AAr?$AAo?$AAg?$AAr?$AAa?$AAm?$AA?5?$AAf?$AAi?$AAl?$AAe?$AAs?$AA?5?$AA?$CI?$AAx?$AA8?$AA6?$AA?$CJ?$AA?2?$AAm?$AAi?$AAc?$AAr?$AAo?$AAs?$AAo?$AAf?$AAt@ 10031878     bncs_string.obj
 0003:00000924       ??_C@_0BA@JFNIOLAK@string?5too?5long?$AA@ 10031924     bncs_string.obj
 0003:00000938       ??_C@_0BI@CFPLBAOH@invalid?5string?5position?$AA@ 10031938     bncs_string.obj
 0003:00000954       ??_C@_1CK@EOPGIILJ@?$AAi?$AAn?$AAv?$AAa?$AAl?$AAi?$AAd?$AA?5?$AAn?$AAu?$AAl?$AAl?$AA?5?$AAp?$AAo?$AAi?$AAn?$AAt?$AAe?$AAr?$AA?$AA@ 10031954     bncs_string.obj
 0003:00000988       __real@0000000000000000    10031988     bncs_string.obj
 0003:00000998       ??_C@_1JA@EKKHPHED@?$AAc?$AA?3?$AA?2?$AAp?$AAr?$AAo?$AAg?$AAr?$AAa?$AAm?$AA?5?$AAf?$AAi?$AAl?$AAe?$AAs?$AA?5?$AA?$CI?$AAx?$AA8?$AA6?$AA?$CJ?$AA?2?$AAm?$AAi?$AAc?$AAr?$AAo?$AAs?$AAo?$AAf?$AAt@ 10031998     bncs_stringlist.obj
 0003:00000a44       ??_C@_1DC@POOIKBAO@?$AAI?$AAT?$AAE?$AAR?$AAA?$AAT?$AAO?$AAR?$AA?5?$AAL?$AAI?$AAS?$AAT?$AA?5?$AAC?$AAO?$AAR?$AAR?$AAU?$AAP?$AAT?$AAE?$AAD?$AA?$CB?$AA?$AA@ 10031a44     bncs_stringlist.obj
 0003:00000a84       ??_7bncs_stringlist@@6B@   10031a84     bncs_stringlist.obj
 0003:00000a90       ??_C@_1IM@COBDDANL@?$AAc?$AA?3?$AA?2?$AAp?$AAr?$AAo?$AAg?$AAr?$AAa?$AAm?$AA?5?$AAf?$AAi?$AAl?$AAe?$AAs?$AA?5?$AA?$CI?$AAx?$AA8?$AA6?$AA?$CJ?$AA?2?$AAm?$AAi?$AAc?$AAr?$AAo?$AAs?$AAo?$AAf?$AAt@ 10031a90     bncs_stringlist.obj
 0003:00000b38       ??_C@_1DM@LHGCHCBA@?$AAv?$AAe?$AAc?$AAt?$AAo?$AAr?$AA?5?$AAs?$AAu?$AAb?$AAs?$AAc?$AAr?$AAi?$AAp?$AAt?$AA?5?$AAo?$AAu?$AAt?$AA?5?$AAo?$AAf?$AA?5?$AAr?$AAa?$AAn?$AAg?$AAe?$AA?$AA@ 10031b38     bncs_stringlist.obj
 0003:00000b80       ??_C@_0CE@OFMIGAMM@Standard?5C?$CL?$CL?5Libraries?5Out?5of?5Ra@ 10031b80     bncs_stringlist.obj
 0003:00000bb0       ??_C@_1FG@IBPIFFN@?$AA?$CC?$AAS?$AAt?$AAa?$AAn?$AAd?$AAa?$AAr?$AAd?$AA?5?$AAC?$AA?$CL?$AA?$CL?$AA?5?$AAL?$AAi?$AAb?$AAr?$AAa?$AAr?$AAi?$AAe?$AAs?$AA?5?$AAO?$AAu?$AAt?$AA?5?$AAo?$AAf?$AA?5?$AAR@ 10031bb0     bncs_stringlist.obj
 0003:00000c18       ??_C@_15GANGMFKL@?$AA?$CF?$AAs?$AA?$AA@ 10031c18     bncs_stringlist.obj
 0003:00000c20       ??_C@_1KK@IDKLMEHD@?$AAs?$AAt?$AAd?$AA?3?$AA?3?$AAv?$AAe?$AAc?$AAt?$AAo?$AAr?$AA?$DM?$AAc?$AAl?$AAa?$AAs?$AAs?$AA?5?$AAb?$AAn?$AAc?$AAs?$AA_?$AAs?$AAt?$AAr?$AAi?$AAn?$AAg?$AA?0?$AAc?$AAl@ 10031c20     bncs_stringlist.obj
 0003:00000cec       ??_C@_1BO@MEPPHOO@?$AA?$CC?$AAo?$AAu?$AAt?$AA?5?$AAo?$AAf?$AA?5?$AAr?$AAa?$AAn?$AAg?$AAe?$AA?$CC?$AA?$AA@ 10031cec     bncs_stringlist.obj
 0003:00000d10       ??_C@_1EI@HGIDLLCM@?$AAv?$AAe?$AAc?$AAt?$AAo?$AAr?$AA?5?$AAe?$AAr?$AAa?$AAs?$AAe?$AA?5?$AAi?$AAt?$AAe?$AAr?$AAa?$AAt?$AAo?$AAr?$AA?5?$AAo?$AAu?$AAt?$AAs?$AAi?$AAd?$AAe?$AA?5?$AAr?$AAa@ 10031d10     bncs_stringlist.obj
 0003:00000d68       ??_C@_1EG@FOHJJHAC@?$AAv?$AAe?$AAc?$AAt?$AAo?$AAr?$AA?5?$AAi?$AAt?$AAe?$AAr?$AAa?$AAt?$AAo?$AAr?$AA?5?$AAn?$AAo?$AAt?$AA?5?$AAd?$AAe?$AAr?$AAe?$AAf?$AAe?$AAr?$AAe?$AAn?$AAc?$AAa?$AAb@ 10031d68     bncs_stringlist.obj
 0003:00000dc0       ??_C@_1OA@EHBEPGKP@?$AAs?$AAt?$AAd?$AA?3?$AA?3?$AA_?$AAV?$AAe?$AAc?$AAt?$AAo?$AAr?$AA_?$AAc?$AAo?$AAn?$AAs?$AAt?$AA_?$AAi?$AAt?$AAe?$AAr?$AAa?$AAt?$AAo?$AAr?$AA?$DM?$AAc?$AAl?$AAa?$AAs@ 10031dc0     bncs_stringlist.obj
 0003:00000ed0       ??_C@_1EE@EJDKCLKB@?$AAv?$AAe?$AAc?$AAt?$AAo?$AAr?$AA?5?$AAi?$AAt?$AAe?$AAr?$AAa?$AAt?$AAo?$AAr?$AA?5?$AAn?$AAo?$AAt?$AA?5?$AAi?$AAn?$AAc?$AAr?$AAe?$AAm?$AAe?$AAn?$AAt?$AAa?$AAb?$AAl@ 10031ed0     bncs_stringlist.obj
 0003:00000f28       ??_C@_1OC@MBCOELIB@?$AAs?$AAt?$AAd?$AA?3?$AA?3?$AA_?$AAV?$AAe?$AAc?$AAt?$AAo?$AAr?$AA_?$AAc?$AAo?$AAn?$AAs?$AAt?$AA_?$AAi?$AAt?$AAe?$AAr?$AAa?$AAt?$AAo?$AAr?$AA?$DM?$AAc?$AAl?$AAa?$AAs@ 10031f28     bncs_stringlist.obj
 0003:00001038       ??_C@_1EK@EEHFMKDC@?$AAv?$AAe?$AAc?$AAt?$AAo?$AAr?$AA?5?$AAi?$AAn?$AAs?$AAe?$AAr?$AAt?$AA?5?$AAi?$AAt?$AAe?$AAr?$AAa?$AAt?$AAo?$AAr?$AA?5?$AAo?$AAu?$AAt?$AAs?$AAi?$AAd?$AAe?$AA?5?$AAr@ 10032038     bncs_stringlist.obj
 0003:00001090       ??_C@_0BD@OLBABOEK@vector?$DMT?$DO?5too?5long?$AA@ 10032090     bncs_stringlist.obj
 0003:000010a8       ??_C@_1DM@HINDPMBP@?$AAv?$AAe?$AAc?$AAt?$AAo?$AAr?$AA?5?$AAi?$AAt?$AAe?$AAr?$AAa?$AAt?$AAo?$AAr?$AAs?$AA?5?$AAi?$AAn?$AAc?$AAo?$AAm?$AAp?$AAa?$AAt?$AAi?$AAb?$AAl?$AAe?$AA?$AA@ 100320a8     bncs_stringlist.obj
 0003:000010f0       ??_C@_0CI@FNPHFCCM@Standard?5C?$CL?$CL?5Libraries?5Invalid?5A@ 100320f0     bncs_stringlist.obj
 0003:00001120       ??_C@_1FO@GJIHNDLM@?$AA?$CC?$AAS?$AAt?$AAa?$AAn?$AAd?$AAa?$AAr?$AAd?$AA?5?$AAC?$AA?$CL?$AA?$CL?$AA?5?$AAL?$AAi?$AAb?$AAr?$AAa?$AAr?$AAi?$AAe?$AAs?$AA?5?$AAI?$AAn?$AAv?$AAa?$AAl?$AAi?$AAd?$AA?5@ 10032120     bncs_stringlist.obj
 0003:00001190       ??_C@_1NK@ICMOPBPB@?$AAs?$AAt?$AAd?$AA?3?$AA?3?$AA_?$AAV?$AAe?$AAc?$AAt?$AAo?$AAr?$AA_?$AAc?$AAo?$AAn?$AAs?$AAt?$AA_?$AAi?$AAt?$AAe?$AAr?$AAa?$AAt?$AAo?$AAr?$AA?$DM?$AAc?$AAl?$AAa?$AAs@ 10032190     bncs_stringlist.obj
 0003:00001298       ??_C@_1CG@JNLFBNGN@?$AA?$CC?$AAi?$AAn?$AAv?$AAa?$AAl?$AAi?$AAd?$AA?5?$AAa?$AAr?$AAg?$AAu?$AAm?$AAe?$AAn?$AAt?$AA?$CC?$AA?$AA@ 10032298     bncs_stringlist.obj
 0003:000012c8       ??_C@_1II@JJNHCLOG@?$AAc?$AA?3?$AA?2?$AAp?$AAr?$AAo?$AAg?$AAr?$AAa?$AAm?$AA?5?$AAf?$AAi?$AAl?$AAe?$AAs?$AA?5?$AA?$CI?$AAx?$AA8?$AA6?$AA?$CJ?$AA?2?$AAm?$AAi?$AAc?$AAr?$AAo?$AAs?$AAo?$AAf?$AAt@ 100322c8     bncs_stringlist.obj
 0003:00001370       ??_C@_1EC@HILJLMMC@?$AAl?$AAi?$AAs?$AAt?$AA?5?$AAi?$AAt?$AAe?$AAr?$AAa?$AAt?$AAo?$AAr?$AA?5?$AAn?$AAo?$AAt?$AA?5?$AAd?$AAe?$AAr?$AAe?$AAf?$AAe?$AAr?$AAe?$AAn?$AAc?$AAa?$AAb?$AAl?$AAe@ 10032370     bncs_stringlist.obj
 0003:000013c0       ??_C@_1OC@PDNMBGCM@?$AAs?$AAt?$AAd?$AA?3?$AA?3?$AA_?$AAL?$AAi?$AAs?$AAt?$AA_?$AAc?$AAo?$AAn?$AAs?$AAt?$AA_?$AAi?$AAt?$AAe?$AAr?$AAa?$AAt?$AAo?$AAr?$AA?$DM?$AAc?$AAl?$AAa?$AAs?$AAs?$AA?5@ 100323c0     bncs_stringlist.obj
 0003:000014d0       ??_C@_1EA@DOGAGKDH@?$AAl?$AAi?$AAs?$AAt?$AA?5?$AAi?$AAt?$AAe?$AAr?$AAa?$AAt?$AAo?$AAr?$AA?5?$AAn?$AAo?$AAt?$AA?5?$AAi?$AAn?$AAc?$AAr?$AAe?$AAm?$AAe?$AAn?$AAt?$AAa?$AAb?$AAl?$AAe?$AA?$AA@ 100324d0     bncs_stringlist.obj
 0003:00001520       ??_C@_1OE@HBIKNGLJ@?$AAs?$AAt?$AAd?$AA?3?$AA?3?$AA_?$AAL?$AAi?$AAs?$AAt?$AA_?$AAc?$AAo?$AAn?$AAs?$AAt?$AA_?$AAi?$AAt?$AAe?$AAr?$AAa?$AAt?$AAo?$AAr?$AA?$DM?$AAc?$AAl?$AAa?$AAs?$AAs?$AA?5@ 10032520     bncs_stringlist.obj
 0003:00001634       ??_C@_1DI@MDELDGPI@?$AAl?$AAi?$AAs?$AAt?$AA?5?$AAi?$AAt?$AAe?$AAr?$AAa?$AAt?$AAo?$AAr?$AAs?$AA?5?$AAi?$AAn?$AAc?$AAo?$AAm?$AAp?$AAa?$AAt?$AAi?$AAb?$AAl?$AAe?$AA?$AA@ 10032634     bncs_stringlist.obj
 0003:00001678       ??_C@_1OE@NBHHDPHM@?$AAs?$AAt?$AAd?$AA?3?$AA?3?$AA_?$AAL?$AAi?$AAs?$AAt?$AA_?$AAc?$AAo?$AAn?$AAs?$AAt?$AA_?$AAi?$AAt?$AAe?$AAr?$AAa?$AAt?$AAo?$AAr?$AA?$DM?$AAc?$AAl?$AAa?$AAs?$AAs?$AA?5@ 10032678     bncs_stringlist.obj
 0003:00001790       ??_C@_1EM@FKAOCOMF@?$AAv?$AAe?$AAc?$AAt?$AAo?$AAr?$AA?5?$AAi?$AAt?$AAe?$AAr?$AAa?$AAt?$AAo?$AAr?$AA?5?$AA?$CL?$AA?5?$AAo?$AAf?$AAf?$AAs?$AAe?$AAt?$AA?5?$AAo?$AAu?$AAt?$AA?5?$AAo?$AAf?$AA?5@ 10032790     bncs_stringlist.obj
 0003:000017f0       ??_C@_1OC@LEFMEDMC@?$AAs?$AAt?$AAd?$AA?3?$AA?3?$AA_?$AAV?$AAe?$AAc?$AAt?$AAo?$AAr?$AA_?$AAc?$AAo?$AAn?$AAs?$AAt?$AA_?$AAi?$AAt?$AAe?$AAr?$AAa?$AAt?$AAo?$AAr?$AA?$DM?$AAc?$AAl?$AAa?$AAs@ 100327f0     bncs_stringlist.obj
 0003:00001900       ??_C@_1EM@NAEIFNFG@?$AAl?$AAi?$AAs?$AAt?$AA?5?$AAc?$AAo?$AAn?$AAt?$AAa?$AAi?$AAn?$AAe?$AAr?$AAs?$AA?5?$AAi?$AAn?$AAc?$AAo?$AAm?$AAp?$AAa?$AAt?$AAi?$AAb?$AAl?$AAe?$AA?5?$AAf?$AAo?$AAr@ 10032900     bncs_stringlist.obj
 0003:0000195c       ??_C@_0BB@MOGOBHAF@list?$DMT?$DO?5too?5long?$AA@ 1003295c     bncs_stringlist.obj
 0003:00001970       ??_C@_1EG@NPGGHPOJ@?$AAl?$AAi?$AAs?$AAt?$AA?5?$AAs?$AAp?$AAl?$AAi?$AAc?$AAe?$AA?5?$AAi?$AAt?$AAe?$AAr?$AAa?$AAt?$AAo?$AAr?$AA?5?$AAo?$AAu?$AAt?$AAs?$AAi?$AAd?$AAe?$AA?5?$AAr?$AAa?$AAn@ 10032970     bncs_stringlist.obj
 0003:000019c8       ??_C@_1FA@FEHLMILO@?$AAl?$AAi?$AAs?$AAt?$AA?5?$AAc?$AAo?$AAn?$AAt?$AAa?$AAi?$AAn?$AAe?$AAr?$AAs?$AA?5?$AAi?$AAn?$AAc?$AAo?$AAm?$AAp?$AAa?$AAt?$AAi?$AAb?$AAl?$AAe?$AA?5?$AAf?$AAo?$AAr@ 100329c8     bncs_stringlist.obj
 0003:00001a28       ??_C@_1DC@HDKGKCIP@?$AAl?$AAi?$AAs?$AAt?$AA?5?$AAc?$AAo?$AAn?$AAt?$AAa?$AAi?$AAn?$AAe?$AAr?$AA?5?$AAc?$AAo?$AAr?$AAr?$AAu?$AAp?$AAt?$AAe?$AAd?$AA?$AA@ 10032a28     bncs_stringlist.obj
 0003:00001a64       ??_C@_1CO@DGLIKNHI@?$AAi?$AAn?$AAv?$AAa?$AAl?$AAi?$AAd?$AA?5?$AAi?$AAt?$AAe?$AAr?$AAa?$AAt?$AAo?$AAr?$AA?5?$AAr?$AAa?$AAn?$AAg?$AAe?$AA?$AA@ 10032a64     bncs_stringlist.obj
 0003:00001a9c       ??_C@_1CE@IGJMOCCK@?$AAi?$AAn?$AAv?$AAa?$AAl?$AAi?$AAd?$AA?5?$AAo?$AAp?$AAe?$AAr?$AAa?$AAt?$AAo?$AAr?$AA?$DM?$AA?$AA@ 10032a9c     bncs_stringlist.obj
 0003:00001ac8       ??_C@_1CK@JNHDEEDC@?$AAs?$AAe?$AAq?$AAu?$AAe?$AAn?$AAc?$AAe?$AA?5?$AAn?$AAo?$AAt?$AA?5?$AAo?$AAr?$AAd?$AAe?$AAr?$AAe?$AAd?$AA?$AA@ 10032ac8     bncs_stringlist.obj
 0003:00001b00       ??_C@_1IO@HFHPAKCC@?$AAc?$AA?3?$AA?2?$AAp?$AAr?$AAo?$AAg?$AAr?$AAa?$AAm?$AA?5?$AAf?$AAi?$AAl?$AAe?$AAs?$AA?5?$AA?$CI?$AAx?$AA8?$AA6?$AA?$CJ?$AA?2?$AAm?$AAi?$AAc?$AAr?$AAo?$AAs?$AAo?$AAf?$AAt@ 10032b00     bncs_stringlist.obj
 0003:00001baa       ?value@?$integral_constant@_N$0A@@std@@2_NB 10032baa     msvcprtd:newaop_s.obj
 0003:00001bab       ?value@?$integral_constant@_N$00@std@@2_NB 10032bab     msvcprtd:newaop_s.obj
 0003:00001bb0       ??_C@_1MC@KPMPFEII@?$AA?$CI?$AA_?$AA_?$AAo?$AAn?$AAe?$AAx?$AAi?$AAt?$AAb?$AAe?$AAg?$AAi?$AAn?$AA?5?$AA?$CB?$AA?$DN?$AA?5?$AAN?$AAU?$AAL?$AAL?$AA?5?$AA?$CG?$AA?$CG?$AA?5?$AA_?$AA_?$AAo?$AAn?$AAe?$AAx@ 10032bb0     MSVCRTD:atonexit.obj
 0003:00001c98       ??_C@_1FK@IGIDCAPD@?$AAf?$AA?3?$AA?2?$AAd?$AAd?$AA?2?$AAv?$AAc?$AAt?$AAo?$AAo?$AAl?$AAs?$AA?2?$AAc?$AAr?$AAt?$AA?2?$AAc?$AAr?$AAt?$AAw?$AA3?$AA2?$AA?2?$AAd?$AAl?$AAl?$AAs?$AAt?$AAu?$AAf@ 10032c98     MSVCRTD:atonexit.obj
 0003:00001d04       ??_C@_0CN@LMJJPMEG@f?3?2dd?2vctools?2crt?2crtw32?2dllstuf@ 10032d04     MSVCRTD:atonexit.obj
 0003:00001d40       ??_7type_info@@6B@         10032d40     MSVCRTD:ti_inst.obj
 0003:00001d48       __pDefaultRawDllMain       10032d48     MSVCRTD:crtdll.obj
 0003:00001d48       __pRawDllMain              10032d48     MSVCRTD:crtdll.obj
 0003:00001d4c       ??_C@_0CL@CCAGLLEM@f?3?2dd?2vctools?2crt?2crtw32?2dllstuf@ 10032d4c     MSVCRTD:crtdll.obj
 0003:00001e40       ??_C@_0NN@NGPKDKPD@The?5value?5of?5ESP?5was?5not?5properl@ 10032e40     MSVCRTD:error.obj
 0003:00001f50       ??_C@_0BBN@GPMLNJCF@A?5cast?5to?5a?5smaller?5data?5type?5ha@ 10032f50     MSVCRTD:error.obj
 0003:000020a8       ??_C@_0BN@FFOINMNJ@Stack?5memory?5was?5corrupted?6?$AN?$AA@ 100330a8     MSVCRTD:error.obj
 0003:000020cc       ??_C@_0DG@HKJMLLLP@A?5local?5variable?5was?5used?5before@ 100330cc     MSVCRTD:error.obj
 0003:0000210c       ??_C@_0CM@NGINOKPC@Stack?5memory?5around?5_alloca?5was?5@ 1003310c     MSVCRTD:error.obj
 0003:00002140       ??_C@_0BO@GNIAFIKK@Unknown?5Runtime?5Check?5Error?6?$AN?$AA@ 10033140     MSVCRTD:error.obj
 0003:00002168       ??_C@_1GM@OLMCBDMB@?$AAR?$AAu?$AAn?$AAt?$AAi?$AAm?$AAe?$AA?5?$AAC?$AAh?$AAe?$AAc?$AAk?$AA?5?$AAE?$AAr?$AAr?$AAo?$AAr?$AA?4?$AA?6?$AA?$AN?$AA?5?$AAU?$AAn?$AAa?$AAb?$AAl?$AAe?$AA?5?$AAt?$AAo@ 10033168     MSVCRTD:error.obj
 0003:000021f0       ??_C@_1EA@NFKNIFJP@?$AAR?$AAu?$AAn?$AA?9?$AAT?$AAi?$AAm?$AAe?$AA?5?$AAC?$AAh?$AAe?$AAc?$AAk?$AA?5?$AAF?$AAa?$AAi?$AAl?$AAu?$AAr?$AAe?$AA?5?$AA?$CD?$AA?$CF?$AAd?$AA?5?$AA?9?$AA?5?$AA?$CF?$AAs?$AA?$AA@ 100331f0     MSVCRTD:error.obj
 0003:0000223c       ??_C@_0BB@PFFGGCJP@Unknown?5Filename?$AA@ 1003323c     MSVCRTD:error.obj
 0003:00002250       ??_C@_0BE@GNBOBNCK@Unknown?5Module?5Name?$AA@ 10033250     MSVCRTD:error.obj
 0003:00002268       ??_C@_0CA@IODNCDPG@Run?9Time?5Check?5Failure?5?$CD?$CFd?5?9?5?$CFs?$AA@ 10033268     MSVCRTD:error.obj
 0003:00002290       ??_C@_0CG@IAFNJNEE@Stack?5corrupted?5near?5unknown?5var@ 10033290     MSVCRTD:error.obj
 0003:000022c0       ??_C@_05MKKEDADM@?$CF?42X?5?$AA@ 100332c0     MSVCRTD:error.obj
 0003:000022c8       ??_C@_1BG@OILDLIOJ@?$AAu?$AAs?$AAe?$AAr?$AA3?$AA2?$AA?4?$AAd?$AAl?$AAl?$AA?$AA@ 100332c8     MSVCRTD:error.obj
 0003:000022e4       ??_C@_09FOPFMPEJ@wsprintfA?$AA@ 100332e4     MSVCRTD:error.obj
 0003:000022f0       ??_C@_0EJ@LJKNEOLN@Stack?5area?5around?5_alloca?5memory@ 100332f0     MSVCRTD:error.obj
 0003:00002348       ??_C@_08OMAHNMHJ@?6Data?3?5?$DM?$AA@ 10033348     MSVCRTD:error.obj
 0003:00002354       ??_C@_0CK@DKGBICFE@?6Allocation?5number?5within?5this?5f@ 10033354     MSVCRTD:error.obj
 0003:00002388       ??_C@_07DFDJCKFN@?6Size?3?5?$AA@ 10033388     MSVCRTD:error.obj
 0003:00002394       ??_C@_0N@MHFFIMFG@?6Address?3?50x?$AA@ 10033394     MSVCRTD:error.obj
 0003:000023a8       ??_C@_0EI@CLEPFNGI@Stack?5area?5around?5_alloca?5memory@ 100333a8     MSVCRTD:error.obj
 0003:00002400       ??_C@_0BC@KIBAILCI@?$CFs?$CFs?$CFp?$CFs?$CFld?$CFs?$CFd?$CFs?$AA@ 10033400     MSVCRTD:error.obj
 0003:00002418       ??_C@_01EEMJAFIK@?6?$AA@   10033418     MSVCRTD:error.obj
 0003:0000241c       ??_C@_02LLMPMKNF@?$DO?5?$AA@ 1003341c     MSVCRTD:error.obj
 0003:00002420       ??_C@_08KJEDNCKC@?$CFs?$CFs?$CFs?$CFs?$AA@ 10033420     MSVCRTD:error.obj
 0003:0000242c       ??_C@_0DE@OHJBPMBP@A?5variable?5is?5being?5used?5without@ 1003342c     MSVCRTD:error.obj
 0003:00002490       ??_C@_0BJ@HEGAHDFO@Stack?5pointer?5corruption?$AA@ 10033490     MSVCRTD:userapi.obj
 0003:000024b0       ??_C@_0CK@FEGOIOPB@Cast?5to?5smaller?5type?5causing?5los@ 100334b0     MSVCRTD:userapi.obj
 0003:000024e4       ??_C@_0BI@CIGMDCBH@Stack?5memory?5corruption?$AA@ 100334e4     MSVCRTD:userapi.obj
 0003:00002500       ??_C@_0CK@CNLNOEPB@Local?5variable?5used?5before?5initi@ 10033500     MSVCRTD:userapi.obj
 0003:00002534       ??_C@_0BP@OGBCLIBO@Stack?5around?5_alloca?5corrupted?$AA@ 10033534     MSVCRTD:userapi.obj
 0003:0000255c       ?ProcessDetach@NativeDll@<CrtImplementationDetails>@@0IB 1003355c     MSVCRTD:initsect.obj
 0003:00002560       ?ProcessAttach@NativeDll@<CrtImplementationDetails>@@0IB 10033560     MSVCRTD:initsect.obj
 0003:00002564       ?ThreadAttach@NativeDll@<CrtImplementationDetails>@@0IB 10033564     MSVCRTD:initsect.obj
 0003:00002568       ?ThreadDetach@NativeDll@<CrtImplementationDetails>@@0IB 10033568     MSVCRTD:initsect.obj
 0003:0000256c       ?ProcessVerifier@NativeDll@<CrtImplementationDetails>@@0IB 1003356c     MSVCRTD:initsect.obj
 0003:000025bc       ?LocalIdBitWidth@CrossScopeId@CodeViewInfo@@2IB 100335bc     MSVCRTD:pdblkup.obj
 0003:000025c0       ?IdScopeBitWidth@CrossScopeId@CodeViewInfo@@2IB 100335c0     MSVCRTD:pdblkup.obj
 0003:000025c4       ?StartCrossScopeId@CrossScopeId@CodeViewInfo@@2IB 100335c4     MSVCRTD:pdblkup.obj
 0003:000025c8       ?LocalIdMask@CrossScopeId@CodeViewInfo@@2IB 100335c8     MSVCRTD:pdblkup.obj
 0003:000025cc       ?ScopeIdMask@CrossScopeId@CodeViewInfo@@2IB 100335cc     MSVCRTD:pdblkup.obj
 0003:000025d0       ?MaxLocalId@CrossScopeId@CodeViewInfo@@2IB 100335d0     MSVCRTD:pdblkup.obj
 0003:000025d4       ?MaxScopeId@CrossScopeId@CodeViewInfo@@2IB 100335d4     MSVCRTD:pdblkup.obj
 0003:000025d8       ??_C@_1BK@GAEMIDIL@?$AAA?$AAD?$AAV?$AAA?$AAP?$AAI?$AA3?$AA2?$AA?4?$AAD?$AAL?$AAL?$AA?$AA@ 100335d8     MSVCRTD:pdblkup.obj
 0003:000025f8       ??_C@_0O@COHOBMLB@RegOpenKeyExW?$AA@ 100335f8     MSVCRTD:pdblkup.obj
 0003:00002608       ??_C@_0BB@GLNAEDBD@RegQueryValueExW?$AA@ 10033608     MSVCRTD:pdblkup.obj
 0003:0000261c       ??_C@_0M@HLOHPNFA@RegCloseKey?$AA@ 1003361c     MSVCRTD:pdblkup.obj
 0003:00002630       ??_C@_1FM@EGIBBNPP@?$AAS?$AAO?$AAF?$AAT?$AAW?$AAA?$AAR?$AAE?$AA?2?$AAM?$AAi?$AAc?$AAr?$AAo?$AAs?$AAo?$AAf?$AAt?$AA?2?$AAV?$AAi?$AAs?$AAu?$AAa?$AAl?$AAS?$AAt?$AAu?$AAd?$AAi?$AAo?$AA?2@ 10033630     MSVCRTD:pdblkup.obj
 0003:000026a0       ??_C@_1BG@EABPBLLF@?$AAP?$AAr?$AAo?$AAd?$AAu?$AAc?$AAt?$AAD?$AAi?$AAr?$AA?$AA@ 100336a0     MSVCRTD:pdblkup.obj
 0003:000026e0       ??_C@_1BC@EOIMGOME@?$AAM?$AAS?$AAP?$AAD?$AAB?$AA1?$AA2?$AA0?$AA?$AA@ 100336e0     MSVCRTD:pdblkup.obj
 0003:000026f8       ??_C@_0BB@KCIACLNC@PDBOpenValidate5?$AA@ 100336f8     MSVCRTD:pdblkup.obj
 0003:0000270c       ??_C@_01KDCPPGHE@r?$AA@    1003370c     MSVCRTD:pdblkup.obj
 0003:00002710       __load_config_used         10033710     MSVCRTD:loadcfg.obj
 0003:00002a4c       ??_R4error_category@std@@6B@ 10033a4c     bncs_string.obj
 0003:00002a64       ??_R3error_category@std@@8 10033a64     bncs_string.obj
 0003:00002a78       ??_R2error_category@std@@8 10033a78     bncs_string.obj
 0003:00002a80       ??_R1A@?0A@EA@error_category@std@@8 10033a80     bncs_string.obj
 0003:00002aa4       ??_R4_Generic_error_category@std@@6B@ 10033aa4     bncs_string.obj
 0003:00002abc       ??_R3_Generic_error_category@std@@8 10033abc     bncs_string.obj
 0003:00002ad0       ??_R2_Generic_error_category@std@@8 10033ad0     bncs_string.obj
 0003:00002adc       ??_R1A@?0A@EA@_Generic_error_category@std@@8 10033adc     bncs_string.obj
 0003:00002b00       ??_R4_Iostream_error_category@std@@6B@ 10033b00     bncs_string.obj
 0003:00002b18       ??_R3_Iostream_error_category@std@@8 10033b18     bncs_string.obj
 0003:00002b2c       ??_R2_Iostream_error_category@std@@8 10033b2c     bncs_string.obj
 0003:00002b3c       ??_R1A@?0A@EA@_Iostream_error_category@std@@8 10033b3c     bncs_string.obj
 0003:00002b60       ??_R4_System_error_category@std@@6B@ 10033b60     bncs_string.obj
 0003:00002b78       ??_R3_System_error_category@std@@8 10033b78     bncs_string.obj
 0003:00002b8c       ??_R2_System_error_category@std@@8 10033b8c     bncs_string.obj
 0003:00002b9c       ??_R1A@?0A@EA@_System_error_category@std@@8 10033b9c     bncs_string.obj
 0003:00002bc0       ??_R4bncs_string@@6B@      10033bc0     bncs_string.obj
 0003:00002bd8       ??_R3bncs_string@@8        10033bd8     bncs_string.obj
 0003:00002bec       ??_R2bncs_string@@8        10033bec     bncs_string.obj
 0003:00002bf4       ??_R1A@?0A@EA@bncs_string@@8 10033bf4     bncs_string.obj
 0003:00002c18       ??_R4bncs_stringlist@@6B@  10033c18     bncs_stringlist.obj
 0003:00002c30       ??_R3bncs_stringlist@@8    10033c30     bncs_stringlist.obj
 0003:00002c44       ??_R2bncs_stringlist@@8    10033c44     bncs_stringlist.obj
 0003:00002c4c       ??_R1A@?0A@EA@bncs_stringlist@@8 10033c4c     bncs_stringlist.obj
 0003:00002c70       ??_R4type_info@@6B@        10033c70     MSVCRTD:ti_inst.obj
 0003:00002c88       ??_R3type_info@@8          10033c88     MSVCRTD:ti_inst.obj
 0003:00002c9c       ??_R2type_info@@8          10033c9c     MSVCRTD:ti_inst.obj
 0003:00002ca4       ??_R1A@?0A@EA@type_info@@8 10033ca4     MSVCRTD:ti_inst.obj
 0003:00002dd4       ___rtc_iaa                 10033dd4     MSVCRTD:initsect.obj
 0003:00002fe4       ___rtc_izz                 10033fe4     MSVCRTD:initsect.obj
 0003:000030e8       ___rtc_taa                 100340e8     MSVCRTD:initsect.obj
 0003:000032f8       ___rtc_tzz                 100342f8     MSVCRTD:initsect.obj
 0004:00000000       ___security_cookie         10038000     MSVCRTD:gs_cookie.obj
 0004:00000004       ___security_cookie_complement 10038004     MSVCRTD:gs_cookie.obj
 0004:00000010       ?_RTC_ErrorLevels@@3PAHA   10038010     MSVCRTD:error.obj
 0004:00000028       ___native_dllmain_reason   10038028     MSVCRTD:natstart.obj
 0004:00000130       ??_R0?AVerror_category@std@@@8 10038130     bncs_string.obj
 0004:00000158       ??_R0?AV_Generic_error_category@std@@@8 10038158     bncs_string.obj
 0004:0000018c       ??_R0?AV_Iostream_error_category@std@@@8 1003818c     bncs_string.obj
 0004:000001c0       ??_R0?AV_System_error_category@std@@@8 100381c0     bncs_string.obj
 0004:000001f4       ??_R0?AVbncs_string@@@8    100381f4     bncs_string.obj
 0004:00000214       ??_R0?AVbncs_stringlist@@@8 10038214     bncs_stringlist.obj
 0004:00000238       ??_R0?AVtype_info@@@8      10038238     MSVCRTD:ti_inst.obj
 0004:0000035c       ?_Generic_object@?$_Error_objects@H@std@@2V_Generic_error_category@2@A 1003835c     bncs_string.obj
 0004:00000360       ?_Iostream_object@?$_Error_objects@H@std@@2V_Iostream_error_category@2@A 10038360     bncs_string.obj
 0004:00000364       ?_System_object@?$_Error_objects@H@std@@2V_System_error_category@2@A 10038364     bncs_string.obj
 0004:00000368       ?id@?$num_put@DV?$back_insert_iterator@V?$basic_string@DU?$char_traits@D@std@@V?$allocator@D@2@@std@@@std@@@std@@2V0locale@2@A 10038368     bncs_string.obj
 0004:0000036c       ?id@?$num_put@_WV?$back_insert_iterator@V?$basic_string@_WU?$char_traits@_W@std@@V?$allocator@_W@2@@std@@@std@@@std@@2V0locale@2@A 1003836c     bncs_string.obj
 0004:00000370       ?m_safeReturn@bncs_stringlistIterator@@0Vbncs_string@@A 10038370     bncs_stringlist.obj
 0004:000003b0       ?wsprintffp@@3P6AHPADPBDZZA 100383b0     MSVCRTD:error.obj
 0004:00000784       ?__type_info_root_node@@3U__type_info_node@@A 10038784     MSVCRTD:tncleanup.obj
 0004:00000798       ___native_startup_lock     10038798     <common>
 0004:000007a8       ___native_startup_state    100387a8     <common>
 0004:000007ac       ___dyn_tls_init_callback   100387ac     <common>
 0004:000007b8       ___onexitend               100387b8     <common>
 0004:000007c8       ___onexitbegin             100387c8     <common>
 0005:00000000       __imp__DecodePointer@4     10039000     kernel32:KERNEL32.dll
 0005:00000004       __imp__IsDebuggerPresent@0 10039004     kernel32:KERNEL32.dll
 0005:00000008       __imp__RaiseException@16   10039008     kernel32:KERNEL32.dll
 0005:0000000c       __imp__GetLastError@0      1003900c     kernel32:KERNEL32.dll
 0005:00000010       __imp__GetProcAddress@8    10039010     kernel32:KERNEL32.dll
 0005:00000014       __imp__LoadLibraryExW@12   10039014     kernel32:KERNEL32.dll
 0005:00000018       __imp__MultiByteToWideChar@24 10039018     kernel32:KERNEL32.dll
 0005:0000001c       __imp__WideCharToMultiByte@32 1003901c     kernel32:KERNEL32.dll
 0005:00000020       __imp__IsProcessorFeaturePresent@4 10039020     kernel32:KERNEL32.dll
 0005:00000024       __imp__QueryPerformanceCounter@4 10039024     kernel32:KERNEL32.dll
 0005:00000028       __imp__GetCurrentProcessId@0 10039028     kernel32:KERNEL32.dll
 0005:0000002c       __imp__GetCurrentThreadId@0 1003902c     kernel32:KERNEL32.dll
 0005:00000030       __imp__GetSystemTimeAsFileTime@4 10039030     kernel32:KERNEL32.dll
 0005:00000034       __imp__DisableThreadLibraryCalls@4 10039034     kernel32:KERNEL32.dll
 0005:00000038       __imp__HeapAlloc@12        10039038     kernel32:KERNEL32.dll
 0005:0000003c       __imp__HeapFree@12         1003903c     kernel32:KERNEL32.dll
 0005:00000040       __imp__GetProcessHeap@0    10039040     kernel32:KERNEL32.dll
 0005:00000044       __imp__VirtualQuery@12     10039044     kernel32:KERNEL32.dll
 0005:00000048       __imp__FreeLibrary@4       10039048     kernel32:KERNEL32.dll
 0005:0000004c       __imp__GetModuleFileNameW@12 1003904c     kernel32:KERNEL32.dll
 0005:00000050       __imp__GetModuleHandleW@4  10039050     kernel32:KERNEL32.dll
 0005:00000054       __imp__EncodePointer@4     10039054     kernel32:KERNEL32.dll
 0005:00000058       \177KERNEL32_NULL_THUNK_DATA 10039058     kernel32:KERNEL32.dll
 0005:00000094       __imp_??0_Lockit@std@@QAE@H@Z 10039094     msvcprtd:MSVCP120D.dll
 0005:00000098       __imp_??1_Lockit@std@@QAE@XZ 10039098     msvcprtd:MSVCP120D.dll
 0005:0000009c       __imp_?flush@?$basic_ostream@DU?$char_traits@D@std@@@std@@QAEAAV12@XZ 1003909c     msvcprtd:MSVCP120D.dll
 0005:000000a0       __imp_?_Swap_all@_Container_base12@std@@QAEXAAU12@@Z 100390a0     msvcprtd:MSVCP120D.dll
 0005:000000a4       __imp_?_Osfx@?$basic_ostream@DU?$char_traits@D@std@@@std@@QAEXXZ 100390a4     msvcprtd:MSVCP120D.dll
 0005:000000a8       __imp_?fill@?$basic_ios@DU?$char_traits@D@std@@@std@@QBEDXZ 100390a8     msvcprtd:MSVCP120D.dll
 0005:000000ac       __imp_?rdbuf@?$basic_ios@DU?$char_traits@D@std@@@std@@QBEPAV?$basic_streambuf@DU?$char_traits@D@std@@@2@XZ 100390ac     msvcprtd:MSVCP120D.dll
 0005:000000b0       __imp_?tie@?$basic_ios@DU?$char_traits@D@std@@@std@@QBEPAV?$basic_ostream@DU?$char_traits@D@std@@@2@XZ 100390b0     msvcprtd:MSVCP120D.dll
 0005:000000b4       __imp_?setstate@?$basic_ios@DU?$char_traits@D@std@@@std@@QAEXH_N@Z 100390b4     msvcprtd:MSVCP120D.dll
 0005:000000b8       __imp_?sputn@?$basic_streambuf@DU?$char_traits@D@std@@@std@@QAE_JPBD_J@Z 100390b8     msvcprtd:MSVCP120D.dll
 0005:000000bc       __imp_?sputc@?$basic_streambuf@DU?$char_traits@D@std@@@std@@QAEHD@Z 100390bc     msvcprtd:MSVCP120D.dll
 0005:000000c0       __imp_?width@ios_base@std@@QAE_J_J@Z 100390c0     msvcprtd:MSVCP120D.dll
 0005:000000c4       __imp_?width@ios_base@std@@QBE_JXZ 100390c4     msvcprtd:MSVCP120D.dll
 0005:000000c8       __imp_?flags@ios_base@std@@QBEHXZ 100390c8     msvcprtd:MSVCP120D.dll
 0005:000000cc       __imp_?good@ios_base@std@@QBE_NXZ 100390cc     msvcprtd:MSVCP120D.dll
 0005:000000d0       __imp_?_Winerror_map@std@@YAPBDH@Z 100390d0     msvcprtd:MSVCP120D.dll
 0005:000000d4       __imp_?_Syserror_map@std@@YAPBDH@Z 100390d4     msvcprtd:MSVCP120D.dll
 0005:000000d8       __imp_??0id@locale@std@@QAE@I@Z 100390d8     msvcprtd:MSVCP120D.dll
 0005:000000dc       __imp_?_Xout_of_range@std@@YAXPBD@Z 100390dc     msvcprtd:MSVCP120D.dll
 0005:000000e0       __imp_?_Xlength_error@std@@YAXPBD@Z 100390e0     msvcprtd:MSVCP120D.dll
 0005:000000e4       __imp_?_Xbad_alloc@std@@YAXXZ 100390e4     msvcprtd:MSVCP120D.dll
 0005:000000e8       __imp_?_Orphan_all@_Container_base12@std@@QAEXXZ 100390e8     msvcprtd:MSVCP120D.dll
 0005:000000ec       __imp_??1_Container_base12@std@@QAE@XZ 100390ec     msvcprtd:MSVCP120D.dll
 0005:000000f0       __imp_??0_Container_base12@std@@QAE@XZ 100390f0     msvcprtd:MSVCP120D.dll
 0005:000000f4       __imp_?_Debug_message@std@@YAXPB_W0I@Z 100390f4     msvcprtd:MSVCP120D.dll
 0005:000000f8       __imp_?uncaught_exception@std@@YA_NXZ 100390f8     msvcprtd:MSVCP120D.dll
 0005:000000fc       __imp_?_Getpfirst@_Container_base12@std@@QBEPAPAU_Iterator_base12@2@XZ 100390fc     msvcprtd:MSVCP120D.dll
 0005:00000100       \177MSVCP120D_NULL_THUNK_DATA 10039100     msvcprtd:MSVCP120D.dll
 0005:00000140       __imp___CrtDbgReportW      10039140     MSVCRTD:MSVCR120D.dll
 0005:00000144       __imp_?terminate@@YAXXZ    10039144     MSVCRTD:MSVCR120D.dll
 0005:00000148       __imp___lock               10039148     MSVCRTD:MSVCR120D.dll
 0005:0000014c       __imp___unlock             1003914c     MSVCRTD:MSVCR120D.dll
 0005:00000150       __imp___calloc_dbg         10039150     MSVCRTD:MSVCR120D.dll
 0005:00000154       __imp____dllonexit         10039154     MSVCRTD:MSVCR120D.dll
 0005:00000158       __imp___onexit             10039158     MSVCRTD:MSVCR120D.dll
 0005:0000015c       __imp___CRT_RTC_INITW      1003915c     MSVCRTD:MSVCR120D.dll
 0005:00000160       __imp_??1type_info@@UAE@XZ 10039160     MSVCRTD:MSVCR120D.dll
 0005:00000164       __imp____CppXcptFilter     10039164     MSVCRTD:MSVCR120D.dll
 0005:00000168       __imp___amsg_exit          10039168     MSVCRTD:MSVCR120D.dll
 0005:0000016c       __imp___malloc_dbg         1003916c     MSVCRTD:MSVCR120D.dll
 0005:00000170       __imp___free_dbg           10039170     MSVCRTD:MSVCR120D.dll
 0005:00000174       __imp___CrtSetCheckCount   10039174     MSVCRTD:MSVCR120D.dll
 0005:00000178       __imp___initterm           10039178     MSVCRTD:MSVCR120D.dll
 0005:0000017c       __imp___initterm_e         1003917c     MSVCRTD:MSVCR120D.dll
 0005:00000180       __imp___except_handler4_common 10039180     MSVCRTD:MSVCR120D.dll
 0005:00000184       __imp___crt_debugger_hook  10039184     MSVCRTD:MSVCR120D.dll
 0005:00000188       __imp____crtUnhandledException 10039188     MSVCRTD:MSVCR120D.dll
 0005:0000018c       __imp____crtTerminateProcess 1003918c     MSVCRTD:MSVCR120D.dll
 0005:00000190       __imp____clean_type_info_names_internal 10039190     MSVCRTD:MSVCR120D.dll
 0005:00000194       __imp__wcscpy_s            10039194     MSVCRTD:MSVCR120D.dll
 0005:00000198       __imp___wmakepath_s        10039198     MSVCRTD:MSVCR120D.dll
 0005:0000019c       __imp___wsplitpath_s       1003919c     MSVCRTD:MSVCR120D.dll
 0005:000001a0       __imp___invalid_parameter  100391a0     MSVCRTD:MSVCR120D.dll
 0005:000001a4       __imp___CxxThrowException@8 100391a4     MSVCRTD:MSVCR120D.dll
 0005:000001a8       __imp_??_V@YAXPAX@Z        100391a8     MSVCRTD:MSVCR120D.dll
 0005:000001ac       __imp___hypot              100391ac     MSVCRTD:MSVCR120D.dll
 0005:000001b0       __imp__printf              100391b0     MSVCRTD:MSVCR120D.dll
 0005:000001b4       __imp___gcvt               100391b4     MSVCRTD:MSVCR120D.dll
 0005:000001b8       __imp__strtoul             100391b8     MSVCRTD:MSVCR120D.dll
 0005:000001bc       __imp__strtod              100391bc     MSVCRTD:MSVCR120D.dll
 0005:000001c0       __imp__atol                100391c0     MSVCRTD:MSVCR120D.dll
 0005:000001c4       __imp__atoi                100391c4     MSVCRTD:MSVCR120D.dll
 0005:000001c8       __imp__strncmp             100391c8     MSVCRTD:MSVCR120D.dll
 0005:000001cc       __imp__memmove             100391cc     MSVCRTD:MSVCR120D.dll
 0005:000001d0       __imp__strlen              100391d0     MSVCRTD:MSVCR120D.dll
 0005:000001d4       __imp__strcmp              100391d4     MSVCRTD:MSVCR120D.dll
 0005:000001d8       __imp__strcpy              100391d8     MSVCRTD:MSVCR120D.dll
 0005:000001dc       __imp__memcpy              100391dc     MSVCRTD:MSVCR120D.dll
 0005:000001e0       __imp__tolower             100391e0     MSVCRTD:MSVCR120D.dll
 0005:000001e4       __imp__toupper             100391e4     MSVCRTD:MSVCR120D.dll
 0005:000001e8       __imp__isdigit             100391e8     MSVCRTD:MSVCR120D.dll
 0005:000001ec       __imp_??3@YAXPAX@Z         100391ec     MSVCRTD:MSVCR120D.dll
 0005:000001f0       __imp_??2@YAPAXI@Z         100391f0     MSVCRTD:MSVCR120D.dll
 0005:000001f4       __imp___purecall           100391f4     MSVCRTD:MSVCR120D.dll
 0005:000001f8       __imp____CxxFrameHandler3  100391f8     MSVCRTD:MSVCR120D.dll
 0005:000001fc       __imp___itoa               100391fc     MSVCRTD:MSVCR120D.dll
 0005:000001fc       __imp__itoa                100391fc     MSVCRTD:MSVCR120D.dll
 0005:00000200       \177MSVCR120D_NULL_THUNK_DATA 10039200     MSVCRTD:MSVCR120D.dll
 0005:00000250       __IMPORT_DESCRIPTOR_MSVCP120D 10039250     msvcprtd:MSVCP120D.dll
 0005:00000264       __IMPORT_DESCRIPTOR_MSVCR120D 10039264     MSVCRTD:MSVCR120D.dll
 0005:00000278       __IMPORT_DESCRIPTOR_KERNEL32 10039278     kernel32:KERNEL32.dll
 0005:0000028c       __NULL_IMPORT_DESCRIPTOR   1003928c     msvcprtd:MSVCP120D.dll
