 dcw

 Timestamp is 56ddfd5f (Mon Mar 07 22:14:55 2016)

 Preferred load address is 10000000

 Start         Length     Name                   Class
 0001:00000000 0002709eH .text                   CODE
 0001:000270a0 0000280eH .text$x                 CODE
 0002:00000000 00002354H .idata$5                DATA
 0002:00002358 0000743cH .rdata                  DATA
 0002:00009798 00002598H .xdata$x                DATA
 0002:0000bd30 0000008cH .idata$2                DATA
 0002:0000bdbc 00000014H .idata$3                DATA
 0002:0000bdd0 00002354H .idata$4                DATA
 0002:0000e124 00016c7eH .idata$6                DATA
 0002:00024db0 00005119H .edata                  DATA
 0003:00000000 00000004H .CRT$XCA                DATA
 0003:00000004 00000024H .CRT$XCU                DATA
 0003:00000028 00000004H .CRT$XCZ                DATA
 0003:0000002c 00000004H .CRT$XIA                DATA
 0003:00000030 00000004H .CRT$XIZ                DATA
 0003:00000040 00001420H .data                   DATA
 0003:00001460 00000110H .bss                    DATA
 0004:00000000 00000058H .rsrc$01                DATA
 0004:00000060 000004b8H .rsrc$02                DATA

  Address         Publics by Value              Rva+Base     Lib:Object

 0001:00000000       ??0signalConnection@@QAE@ABVQString@@0000@Z 10001000 f i bncs_client_runtime.obj
 0001:00000100       ??0signalConnection@@QAE@ABV0@@Z 10001100 f i bncs_client_runtime.obj
 0001:00000180       ??4signalConnection@@QAEAAV0@ABV0@@Z 10001180 f i bncs_client_runtime.obj
 0001:000001c0       ??1signalConnection@@QAE@XZ 100011c0 f i bncs_client_runtime.obj
 0001:00000290       ??0signalConnectionRefList@@QAE@XZ 10001290 f i bncs_client_runtime.obj
 0001:000002b0       ??0signalConnectionRefList@@QAE@ABV0@@Z 100012b0 f i bncs_client_runtime.obj
 0001:000002d0       ??1signalConnectionRefList@@UAE@XZ 100012d0 f i bncs_client_runtime.obj
 0001:00000340       ??4signalConnectionRefList@@QAEAAV0@ABV0@@Z 10001340 f i bncs_client_runtime.obj
 0001:00000350       ??_EsignalConnectionRefList@@UAEPAXI@Z 10001350 f i bncs_client_runtime.obj
 0001:000003b0       ??0signalConnectionRefListIt@@QAE@ABVsignalConnectionRefList@@@Z 100013b0 f i bncs_client_runtime.obj
 0001:000003d0       ??4signalConnectionRefListIt@@QAEAAV0@ABV0@@Z 100013d0 f i bncs_client_runtime.obj
 0001:000003f0       ??0signalConnectionRefListIt@@QAE@ABV0@@Z 100013f0 f i bncs_client_runtime.obj
 0001:00000410       ??1signalConnectionRefListIt@@QAE@XZ 10001410 f i bncs_client_runtime.obj
 0001:00000420       ?widgetList@dCW@@QAE?AVQWidgetList@@XZ 10001420 f i bncs_client_runtime.obj
 0001:00000450       ?bpixmap@dCW@@QAE?AVQString@@XZ 10001450 f i bncs_client_runtime.obj
 0001:00000480       ?bcolour@dCW@@QAE?AVQString@@XZ 10001480 f i bncs_client_runtime.obj
 0001:000004b0       ?scriptfile@dCW@@QAE?AVQString@@XZ 100014b0 f i bncs_client_runtime.obj
 0001:000004e0       ??0dCW@@QAE@ABV0@@Z        100014e0 f i bncs_client_runtime.obj
 0001:00000620       ??4dCW@@QAEAAV0@ABV0@@Z    10001620 f i bncs_client_runtime.obj
 0001:000006e0       ??_EdCW@@UAEPAXI@Z         100016e0 f i bncs_client_runtime.obj
 0001:00000740       ?metaObject@bncs_client_runtime@@UBEPAVQMetaObject@@XZ 10001740 f i bncs_client_runtime.obj
 0001:00000750       ?qObject@bncs_client_runtime@@QAEPAVQObject@@XZ 10001750 f i bncs_client_runtime.obj
 0001:00000760       ?mouseReleaseEvent@bncs_client_runtime@@UAEXPAVQMouseEvent@@@Z 10001760 f i bncs_client_runtime.obj
 0001:00000760       ?mousePressEvent@bncs_client_runtime@@UAEXPAVQMouseEvent@@@Z 10001760 f i bncs_client_runtime.obj
 0001:00000770       ?connectionList@bncs_client_runtime@@QAEABVsignalConnectionRefList@@XZ 10001770 f i bncs_client_runtime.obj
 0001:00000780       ??0bncs_client_runtime@@QAE@ABV0@@Z 10001780 f i bncs_client_runtime.obj
 0001:000009d0       ??4bncs_client_runtime@@QAEAAV0@ABV0@@Z 100019d0 f i bncs_client_runtime.obj
 0001:00000b80       ??_Fbncs_client_runtime@@QAEXXZ 10001b80 f i bncs_client_runtime.obj
 0001:00000b90       ??_Ebncs_client_runtime@@UAEPAXI@Z 10001b90 f i bncs_client_runtime.obj
 0001:00000bf0       ??0bncs_client_runtime@@QAE@PAVQWidget@@PBDI@Z 10001bf0 f   bncs_client_runtime.obj
 0001:00000d30       ??1bncs_client_runtime@@UAE@XZ 10001d30 f   bncs_client_runtime.obj
 0001:00000e90       ?contextMenuEvent@bncs_client_runtime@@UAEXPAVQContextMenuEvent@@@Z 10001e90 f   bncs_client_runtime.obj
 0001:00001760       ?paintEvent@bncs_client_runtime@@UAEXPAVQPaintEvent@@@Z 10002760 f   bncs_client_runtime.obj
 0001:00001850       ?setCaption@bncs_client_runtime@@UAEXABVQString@@@Z 10002850 f   bncs_client_runtime.obj
 0001:00001fe0       ?setWidgetList@bncs_client_runtime@@QAEXABVQWidgetList@@@Z 10002fe0 f   bncs_client_runtime.obj
 0001:00002000       ?widgetList@bncs_client_runtime@@QBE?AVQWidgetList@@XZ 10003000 f   bncs_client_runtime.obj
 0001:00002030       ?addConnection@bncs_client_runtime@@QAEXABVQString@@0000@Z 10003030 f   bncs_client_runtime.obj
 0001:00002220       ?addConnection@bncs_client_runtime@@QAEXPAVQWidget@@@Z 10003220 f   bncs_client_runtime.obj
 0001:00002250       ?notifyIn@bncs_client_runtime@@QAEXAAVQString@@@Z 10003250 f   bncs_client_runtime.obj
 0001:00002350       ?connectionTriggerEvent@bncs_client_runtime@@AAEXABVQString@@0@Z 10003350 f   bncs_client_runtime.obj
 0001:000039e0       ??8@YA_NVQChar@@D@Z        100049e0 f i bncs_client_runtime.obj
 0001:00003a00       ?cdbDestroyed@bncs_client_runtime@@AAEXXZ 10004a00 f   bncs_client_runtime.obj
 0001:00003a10       ?doShowIncomingEvent@bncs_client_runtime@@AAEX_N@Z 10004a10 f   bncs_client_runtime.obj
 0001:00003a20       ?setFilePath@bncs_client_runtime@@QAEXABVQString@@@Z 10004a20 f   bncs_client_runtime.obj
 0001:00003a40       ?filePath@bncs_client_runtime@@QAE?AVQString@@XZ 10004a40 f   bncs_client_runtime.obj
 0001:00003a70       ?ccTimerCallback@bncs_client_runtime@@MAEXH@Z 10004a70 f   bncs_client_runtime.obj
 0001:00003b60       ??1?$QPtrList@VsignalConnection@@@@UAE@XZ 10004b60 f i bncs_client_runtime.obj
 0001:00003bc0       ?count@?$QPtrList@VsignalConnection@@@@UBEIXZ 10004bc0 f i bncs_client_runtime.obj
 0001:00003bd0       ?clear@?$QPtrList@VsignalConnection@@@@UAEXXZ 10004bd0 f i bncs_client_runtime.obj
 0001:00003be0       ??D?$QPtrListStdIterator@VsignalConnection@@@@QAEPAVsignalConnection@@XZ 10004be0 f i bncs_client_runtime.obj
 0001:00003bf0       ??0?$QMap@VQString@@VparamInfo@@@@QAE@XZ 10004bf0 f i bncs_client_runtime.obj
 0001:00003cd0       ??0?$QMap@VQString@@VcomplexType@@@@QAE@ABV0@@Z 10004cd0 f i bncs_client_runtime.obj
 0001:00003cd0       ??0?$QMap@VQString@@VcomplexInstance@@@@QAE@ABV0@@Z 10004cd0 f i bncs_client_runtime.obj
 0001:00003cd0       ??0?$QMap@VQString@@VparamInfo@@@@QAE@ABV0@@Z 10004cd0 f i bncs_client_runtime.obj
 0001:00003cd0       ??0?$QMap@VQString@@VdeviceTypeInfo@@@@QAE@ABV0@@Z 10004cd0 f i bncs_client_runtime.obj
 0001:00003cd0       ??0?$QMap@VQString@@VinstanceInfo@@@@QAE@ABV0@@Z 10004cd0 f i bncs_client_runtime.obj
 0001:00003cd0       ??0?$QMap@VQString@@VcomplexParam@@@@QAE@ABV0@@Z 10004cd0 f i bncs_client_runtime.obj
 0001:00003ce0       ??1?$QMap@VQString@@VparamInfo@@@@QAE@XZ 10004ce0 f i bncs_client_runtime.obj
 0001:00003d80       ?begin@?$QMap@VQString@@VparamInfo@@@@QAE?AV?$QMapIterator@VQString@@VparamInfo@@@@XZ 10004d80 f i bncs_client_runtime.obj
 0001:00003db0       ?end@?$QMap@VQString@@VparamInfo@@@@QAE?AV?$QMapIterator@VQString@@VparamInfo@@@@XZ 10004db0 f i bncs_client_runtime.obj
 0001:00003dd0       ?begin@?$QMap@VQString@@VcomplexParam@@@@QBE?AV?$QMapConstIterator@VQString@@VcomplexParam@@@@XZ 10004dd0 f i bncs_client_runtime.obj
 0001:00003dd0       ?constBegin@?$QMap@VQString@@VcomplexParam@@@@QBE?AV?$QMapConstIterator@VQString@@VcomplexParam@@@@XZ 10004dd0 f i bncs_client_runtime.obj
 0001:00003dd0       ?constBegin@?$QMap@VQString@@VparamInfo@@@@QBE?AV?$QMapConstIterator@VQString@@VparamInfo@@@@XZ 10004dd0 f i bncs_client_runtime.obj
 0001:00003dd0       ?begin@?$QMap@VQString@@VdeviceTypeInfo@@@@QBE?AV?$QMapConstIterator@VQString@@VdeviceTypeInfo@@@@XZ 10004dd0 f i bncs_client_runtime.obj
 0001:00003dd0       ?begin@?$QMap@VQString@@VparamInfo@@@@QBE?AV?$QMapConstIterator@VQString@@VparamInfo@@@@XZ 10004dd0 f i bncs_client_runtime.obj
 0001:00003dd0       ?constBegin@?$QMap@VQString@@VcomplexInstance@@@@QBE?AV?$QMapConstIterator@VQString@@VcomplexInstance@@@@XZ 10004dd0 f i bncs_client_runtime.obj
 0001:00003dd0       ?constBegin@?$QMap@VQString@@VcomplexType@@@@QBE?AV?$QMapConstIterator@VQString@@VcomplexType@@@@XZ 10004dd0 f i bncs_client_runtime.obj
 0001:00003dd0       ?begin@?$QMap@VQString@@VinstanceInfo@@@@QBE?AV?$QMapConstIterator@VQString@@VinstanceInfo@@@@XZ 10004dd0 f i bncs_client_runtime.obj
 0001:00003dd0       ?constBegin@?$QMap@VQString@@VdeviceTypeInfo@@@@QBE?AV?$QMapConstIterator@VQString@@VdeviceTypeInfo@@@@XZ 10004dd0 f i bncs_client_runtime.obj
 0001:00003dd0       ?constBegin@?$QMap@VQString@@VinstanceInfo@@@@QBE?AV?$QMapConstIterator@VQString@@VinstanceInfo@@@@XZ 10004dd0 f i bncs_client_runtime.obj
 0001:00003dd0       ?begin@?$QMap@VQString@@VcomplexInstance@@@@QBE?AV?$QMapConstIterator@VQString@@VcomplexInstance@@@@XZ 10004dd0 f i bncs_client_runtime.obj
 0001:00003dd0       ?begin@?$QMap@VQString@@VcomplexType@@@@QBE?AV?$QMapConstIterator@VQString@@VcomplexType@@@@XZ 10004dd0 f i bncs_client_runtime.obj
 0001:00003de0       ?constEnd@?$QMap@VQString@@VcomplexParam@@@@QBE?AV?$QMapConstIterator@VQString@@VcomplexParam@@@@XZ 10004de0 f i bncs_client_runtime.obj
 0001:00003de0       ?end@?$QMap@VQString@@VdeviceTypeInfo@@@@QBE?AV?$QMapConstIterator@VQString@@VdeviceTypeInfo@@@@XZ 10004de0 f i bncs_client_runtime.obj
 0001:00003de0       ?end@?$QMap@VQString@@VcomplexType@@@@QBE?AV?$QMapConstIterator@VQString@@VcomplexType@@@@XZ 10004de0 f i bncs_client_runtime.obj
 0001:00003de0       ?end@?$QMap@VQString@@VcomplexInstance@@@@QBE?AV?$QMapConstIterator@VQString@@VcomplexInstance@@@@XZ 10004de0 f i bncs_client_runtime.obj
 0001:00003de0       ?end@?$QMap@VQString@@VinstanceInfo@@@@QBE?AV?$QMapConstIterator@VQString@@VinstanceInfo@@@@XZ 10004de0 f i bncs_client_runtime.obj
 0001:00003de0       ?constEnd@?$QMap@VQString@@VparamInfo@@@@QBE?AV?$QMapConstIterator@VQString@@VparamInfo@@@@XZ 10004de0 f i bncs_client_runtime.obj
 0001:00003de0       ?end@?$QMap@VQString@@VparamInfo@@@@QBE?AV?$QMapConstIterator@VQString@@VparamInfo@@@@XZ 10004de0 f i bncs_client_runtime.obj
 0001:00003de0       ?constEnd@?$QMap@VQString@@VcomplexInstance@@@@QBE?AV?$QMapConstIterator@VQString@@VcomplexInstance@@@@XZ 10004de0 f i bncs_client_runtime.obj
 0001:00003de0       ?constEnd@?$QMap@VQString@@VdeviceTypeInfo@@@@QBE?AV?$QMapConstIterator@VQString@@VdeviceTypeInfo@@@@XZ 10004de0 f i bncs_client_runtime.obj
 0001:00003de0       ?constEnd@?$QMap@VQString@@VcomplexType@@@@QBE?AV?$QMapConstIterator@VQString@@VcomplexType@@@@XZ 10004de0 f i bncs_client_runtime.obj
 0001:00003de0       ?end@?$QMap@VQString@@VcomplexParam@@@@QBE?AV?$QMapConstIterator@VQString@@VcomplexParam@@@@XZ 10004de0 f i bncs_client_runtime.obj
 0001:00003de0       ?constEnd@?$QMap@VQString@@VinstanceInfo@@@@QBE?AV?$QMapConstIterator@VQString@@VinstanceInfo@@@@XZ 10004de0 f i bncs_client_runtime.obj
 0001:00003df0       ?replace@?$QMap@VQString@@VparamInfo@@@@QAE?AV?$QMapIterator@VQString@@VparamInfo@@@@ABVQString@@ABVparamInfo@@@Z 10004df0 f i bncs_client_runtime.obj
 0001:00003f50       ?isEmpty@?$QMap@VQString@@VcomplexParam@@@@QBE_NXZ 10004f50 f i bncs_client_runtime.obj
 0001:00003f50       ?isEmpty@?$QMap@VQString@@VinstanceInfo@@@@QBE_NXZ 10004f50 f i bncs_client_runtime.obj
 0001:00003f50       ?empty@?$QMap@VQString@@VdeviceTypeInfo@@@@QBE_NXZ 10004f50 f i bncs_client_runtime.obj
 0001:00003f50       ?isEmpty@?$QMap@VQString@@VparamInfo@@@@QBE_NXZ 10004f50 f i bncs_client_runtime.obj
 0001:00003f50       ?isEmpty@?$QMap@VQString@@VdeviceTypeInfo@@@@QBE_NXZ 10004f50 f i bncs_client_runtime.obj
 0001:00003f50       ?empty@?$QMap@VQString@@VcomplexInstance@@@@QBE_NXZ 10004f50 f i bncs_client_runtime.obj
 0001:00003f50       ?empty@?$QMap@VQString@@VparamInfo@@@@QBE_NXZ 10004f50 f i bncs_client_runtime.obj
 0001:00003f50       ?empty@?$QMap@VQString@@VcomplexParam@@@@QBE_NXZ 10004f50 f i bncs_client_runtime.obj
 0001:00003f50       ?empty@?$QMap@VQString@@VinstanceInfo@@@@QBE_NXZ 10004f50 f i bncs_client_runtime.obj
 0001:00003f50       ?empty@?$QMap@VQString@@VcomplexType@@@@QBE_NXZ 10004f50 f i bncs_client_runtime.obj
 0001:00003f50       ?isEmpty@?$QMap@VQString@@VcomplexInstance@@@@QBE_NXZ 10004f50 f i bncs_client_runtime.obj
 0001:00003f50       ?isEmpty@?$QMap@VQString@@VcomplexType@@@@QBE_NXZ 10004f50 f i bncs_client_runtime.obj
 0001:00003f60       ?erase@?$QMap@VQString@@VparamInfo@@@@QAEXV?$QMapIterator@VQString@@VparamInfo@@@@@Z 10004f60 f i bncs_client_runtime.obj
 0001:00003f60       ?remove@?$QMap@VQString@@VparamInfo@@@@QAEXV?$QMapIterator@VQString@@VparamInfo@@@@@Z 10004f60 f i bncs_client_runtime.obj
 0001:00003f90       ?find@?$QMap@VQString@@VparamInfo@@@@QAE?AV?$QMapIterator@VQString@@VparamInfo@@@@ABVQString@@@Z 10004f90 f i bncs_client_runtime.obj
 0001:00004010       ?size@?$QMap@VQString@@VcomplexParam@@@@QBEIXZ 10005010 f i bncs_client_runtime.obj
 0001:00004010       ?count@?$QMap@VQString@@VinstanceInfo@@@@QBEIXZ 10005010 f i bncs_client_runtime.obj
 0001:00004010       ?count@?$QMap@VQString@@VcomplexType@@@@QBEIXZ 10005010 f i bncs_client_runtime.obj
 0001:00004010       ?size@?$QMap@VQString@@VcomplexType@@@@QBEIXZ 10005010 f i bncs_client_runtime.obj
 0001:00004010       ?size@?$QMap@VQString@@VdeviceTypeInfo@@@@QBEIXZ 10005010 f i bncs_client_runtime.obj
 0001:00004010       ?count@?$QMap@VQString@@VcomplexInstance@@@@QBEIXZ 10005010 f i bncs_client_runtime.obj
 0001:00004010       ?count@?$QMap@VQString@@VcomplexParam@@@@QBEIXZ 10005010 f i bncs_client_runtime.obj
 0001:00004010       ?size@?$QMap@VQString@@VparamInfo@@@@QBEIXZ 10005010 f i bncs_client_runtime.obj
 0001:00004010       ?size@?$QMap@VQString@@VinstanceInfo@@@@QBEIXZ 10005010 f i bncs_client_runtime.obj
 0001:00004010       ?size@?$QMap@VQString@@VcomplexInstance@@@@QBEIXZ 10005010 f i bncs_client_runtime.obj
 0001:00004010       ?count@?$QMap@VQString@@VdeviceTypeInfo@@@@QBEIXZ 10005010 f i bncs_client_runtime.obj
 0001:00004010       ?count@?$QMap@VQString@@VparamInfo@@@@QBEIXZ 10005010 f i bncs_client_runtime.obj
 0001:00004020       ?keys@?$QMap@VQString@@VparamInfo@@@@QBE?AV?$QValueList@VQString@@@@XZ 10005020 f i bncs_client_runtime.obj
 0001:00004140       ?values@?$QMap@VQString@@VparamInfo@@@@QBE?AV?$QValueList@VparamInfo@@@@XZ 10005140 f i bncs_client_runtime.obj
 0001:00004260       ?detach@?$QMap@VQString@@VparamInfo@@@@IAEXXZ 10005260 f i bncs_client_runtime.obj
 0001:00004270       ??0?$QMap@VQString@@VcomplexParam@@@@QAE@XZ 10005270 f i bncs_client_runtime.obj
 0001:00004350       ??1?$QMap@VQString@@VcomplexParam@@@@QAE@XZ 10005350 f i bncs_client_runtime.obj
 0001:000043f0       ?begin@?$QMap@VQString@@VcomplexParam@@@@QAE?AV?$QMapIterator@VQString@@VcomplexParam@@@@XZ 100053f0 f i bncs_client_runtime.obj
 0001:00004420       ?end@?$QMap@VQString@@VcomplexParam@@@@QAE?AV?$QMapIterator@VQString@@VcomplexParam@@@@XZ 10005420 f i bncs_client_runtime.obj
 0001:00004440       ?replace@?$QMap@VQString@@VcomplexParam@@@@QAE?AV?$QMapIterator@VQString@@VcomplexParam@@@@ABVQString@@ABVcomplexParam@@@Z 10005440 f i bncs_client_runtime.obj
 0001:000045b0       ?find@?$QMap@VQString@@VcomplexParam@@@@QAE?AV?$QMapIterator@VQString@@VcomplexParam@@@@ABVQString@@@Z 100055b0 f i bncs_client_runtime.obj
 0001:00004630       ?find@?$QMap@VQString@@VcomplexParam@@@@QBE?AV?$QMapConstIterator@VQString@@VcomplexParam@@@@ABVQString@@@Z 10005630 f i bncs_client_runtime.obj
 0001:000046a0       ??A?$QMap@VQString@@VcomplexParam@@@@QBEABVcomplexParam@@ABVQString@@@Z 100056a0 f i bncs_client_runtime.obj
 0001:00004710       ?contains@?$QMap@VQString@@VcomplexParam@@@@QBE_NABVQString@@@Z 10005710 f i bncs_client_runtime.obj
 0001:00004780       ?keys@?$QMap@VQString@@VcomplexParam@@@@QBE?AV?$QValueList@VQString@@@@XZ 10005780 f i bncs_client_runtime.obj
 0001:000048a0       ?values@?$QMap@VQString@@VcomplexParam@@@@QBE?AV?$QValueList@VcomplexParam@@@@XZ 100058a0 f i bncs_client_runtime.obj
 0001:000049c0       ?erase@?$QMap@VQString@@VcomplexParam@@@@QAEXV?$QMapIterator@VQString@@VcomplexParam@@@@@Z 100059c0 f i bncs_client_runtime.obj
 0001:000049c0       ?remove@?$QMap@VQString@@VcomplexParam@@@@QAEXV?$QMapIterator@VQString@@VcomplexParam@@@@@Z 100059c0 f i bncs_client_runtime.obj
 0001:000049f0       ?detach@?$QMap@VQString@@VcomplexParam@@@@IAEXXZ 100059f0 f i bncs_client_runtime.obj
 0001:00004a00       ??0?$QMap@VQString@@VcomplexInstance@@@@QAE@XZ 10005a00 f i bncs_client_runtime.obj
 0001:00004ae0       ??1?$QMap@VQString@@VcomplexInstance@@@@QAE@XZ 10005ae0 f i bncs_client_runtime.obj
 0001:00004b80       ?begin@?$QMap@VQString@@VcomplexInstance@@@@QAE?AV?$QMapIterator@VQString@@VcomplexInstance@@@@XZ 10005b80 f i bncs_client_runtime.obj
 0001:00004bb0       ?end@?$QMap@VQString@@VcomplexInstance@@@@QAE?AV?$QMapIterator@VQString@@VcomplexInstance@@@@XZ 10005bb0 f i bncs_client_runtime.obj
 0001:00004bd0       ?replace@?$QMap@VQString@@VcomplexInstance@@@@QAE?AV?$QMapIterator@VQString@@VcomplexInstance@@@@ABVQString@@ABVcomplexInstance@@@Z 10005bd0 f i bncs_client_runtime.obj
 0001:00004d30       ?erase@?$QMap@VQString@@VcomplexInstance@@@@QAEXV?$QMapIterator@VQString@@VcomplexInstance@@@@@Z 10005d30 f i bncs_client_runtime.obj
 0001:00004d30       ?remove@?$QMap@VQString@@VcomplexInstance@@@@QAEXV?$QMapIterator@VQString@@VcomplexInstance@@@@@Z 10005d30 f i bncs_client_runtime.obj
 0001:00004d60       ?find@?$QMap@VQString@@VcomplexInstance@@@@QAE?AV?$QMapIterator@VQString@@VcomplexInstance@@@@ABVQString@@@Z 10005d60 f i bncs_client_runtime.obj
 0001:00004de0       ?find@?$QMap@VQString@@VparamInfo@@@@QBE?AV?$QMapConstIterator@VQString@@VparamInfo@@@@ABVQString@@@Z 10005de0 f i bncs_client_runtime.obj
 0001:00004de0       ?find@?$QMap@VQString@@VcomplexType@@@@QBE?AV?$QMapConstIterator@VQString@@VcomplexType@@@@ABVQString@@@Z 10005de0 f i bncs_client_runtime.obj
 0001:00004de0       ?find@?$QMap@VQString@@VcomplexInstance@@@@QBE?AV?$QMapConstIterator@VQString@@VcomplexInstance@@@@ABVQString@@@Z 10005de0 f i bncs_client_runtime.obj
 0001:00004e50       ?keys@?$QMap@VQString@@VcomplexInstance@@@@QBE?AV?$QValueList@VQString@@@@XZ 10005e50 f i bncs_client_runtime.obj
 0001:00004f70       ?values@?$QMap@VQString@@VcomplexInstance@@@@QBE?AV?$QValueList@VcomplexInstance@@@@XZ 10005f70 f i bncs_client_runtime.obj
 0001:00005090       ?detach@?$QMap@VQString@@VcomplexInstance@@@@IAEXXZ 10006090 f i bncs_client_runtime.obj
 0001:000050a0       ??0?$QMap@VQString@@VinstanceInfo@@@@QAE@XZ 100060a0 f i bncs_client_runtime.obj
 0001:00005180       ??1?$QMap@VQString@@VinstanceInfo@@@@QAE@XZ 10006180 f i bncs_client_runtime.obj
 0001:00005220       ?begin@?$QMap@VQString@@VinstanceInfo@@@@QAE?AV?$QMapIterator@VQString@@VinstanceInfo@@@@XZ 10006220 f i bncs_client_runtime.obj
 0001:00005250       ?end@?$QMap@VQString@@VinstanceInfo@@@@QAE?AV?$QMapIterator@VQString@@VinstanceInfo@@@@XZ 10006250 f i bncs_client_runtime.obj
 0001:00005270       ?replace@?$QMap@VQString@@VinstanceInfo@@@@QAE?AV?$QMapIterator@VQString@@VinstanceInfo@@@@ABVQString@@ABVinstanceInfo@@@Z 10006270 f i bncs_client_runtime.obj
 0001:00005410       ?find@?$QMap@VQString@@VinstanceInfo@@@@QAE?AV?$QMapIterator@VQString@@VinstanceInfo@@@@ABVQString@@@Z 10006410 f i bncs_client_runtime.obj
 0001:00005490       ?find@?$QMap@VQString@@VinstanceInfo@@@@QBE?AV?$QMapConstIterator@VQString@@VinstanceInfo@@@@ABVQString@@@Z 10006490 f i bncs_client_runtime.obj
 0001:00005500       ??A?$QMap@VQString@@VinstanceInfo@@@@QBEABVinstanceInfo@@ABVQString@@@Z 10006500 f i bncs_client_runtime.obj
 0001:00005570       ?contains@?$QMap@VQString@@VinstanceInfo@@@@QBE_NABVQString@@@Z 10006570 f i bncs_client_runtime.obj
 0001:000055e0       ?keys@?$QMap@VQString@@VinstanceInfo@@@@QBE?AV?$QValueList@VQString@@@@XZ 100065e0 f i bncs_client_runtime.obj
 0001:00005700       ?values@?$QMap@VQString@@VinstanceInfo@@@@QBE?AV?$QValueList@VinstanceInfo@@@@XZ 10006700 f i bncs_client_runtime.obj
 0001:00005820       ?erase@?$QMap@VQString@@VinstanceInfo@@@@QAEXV?$QMapIterator@VQString@@VinstanceInfo@@@@@Z 10006820 f i bncs_client_runtime.obj
 0001:00005820       ?remove@?$QMap@VQString@@VinstanceInfo@@@@QAEXV?$QMapIterator@VQString@@VinstanceInfo@@@@@Z 10006820 f i bncs_client_runtime.obj
 0001:00005850       ?detach@?$QMap@VQString@@VinstanceInfo@@@@IAEXXZ 10006850 f i bncs_client_runtime.obj
 0001:00005860       ??0?$QMap@VQString@@VdeviceTypeInfo@@@@QAE@XZ 10006860 f i bncs_client_runtime.obj
 0001:00005940       ??1?$QMap@VQString@@VdeviceTypeInfo@@@@QAE@XZ 10006940 f i bncs_client_runtime.obj
 0001:000059e0       ?begin@?$QMap@VQString@@VdeviceTypeInfo@@@@QAE?AV?$QMapIterator@VQString@@VdeviceTypeInfo@@@@XZ 100069e0 f i bncs_client_runtime.obj
 0001:00005a10       ?end@?$QMap@VQString@@VdeviceTypeInfo@@@@QAE?AV?$QMapIterator@VQString@@VdeviceTypeInfo@@@@XZ 10006a10 f i bncs_client_runtime.obj
 0001:00005a30       ?replace@?$QMap@VQString@@VdeviceTypeInfo@@@@QAE?AV?$QMapIterator@VQString@@VdeviceTypeInfo@@@@ABVQString@@ABVdeviceTypeInfo@@@Z 10006a30 f i bncs_client_runtime.obj
 0001:00005ba0       ?find@?$QMap@VQString@@VdeviceTypeInfo@@@@QAE?AV?$QMapIterator@VQString@@VdeviceTypeInfo@@@@ABVQString@@@Z 10006ba0 f i bncs_client_runtime.obj
 0001:00005c20       ?find@?$QMap@VQString@@VdeviceTypeInfo@@@@QBE?AV?$QMapConstIterator@VQString@@VdeviceTypeInfo@@@@ABVQString@@@Z 10006c20 f i bncs_client_runtime.obj
 0001:00005c90       ??A?$QMap@VQString@@VdeviceTypeInfo@@@@QBEABVdeviceTypeInfo@@ABVQString@@@Z 10006c90 f i bncs_client_runtime.obj
 0001:00005d00       ?contains@?$QMap@VQString@@VdeviceTypeInfo@@@@QBE_NABVQString@@@Z 10006d00 f i bncs_client_runtime.obj
 0001:00005d70       ?keys@?$QMap@VQString@@VdeviceTypeInfo@@@@QBE?AV?$QValueList@VQString@@@@XZ 10006d70 f i bncs_client_runtime.obj
 0001:00005e90       ?values@?$QMap@VQString@@VdeviceTypeInfo@@@@QBE?AV?$QValueList@VdeviceTypeInfo@@@@XZ 10006e90 f i bncs_client_runtime.obj
 0001:00005fb0       ?erase@?$QMap@VQString@@VdeviceTypeInfo@@@@QAEXV?$QMapIterator@VQString@@VdeviceTypeInfo@@@@@Z 10006fb0 f i bncs_client_runtime.obj
 0001:00005fb0       ?remove@?$QMap@VQString@@VdeviceTypeInfo@@@@QAEXV?$QMapIterator@VQString@@VdeviceTypeInfo@@@@@Z 10006fb0 f i bncs_client_runtime.obj
 0001:00005fe0       ?detach@?$QMap@VQString@@VdeviceTypeInfo@@@@IAEXXZ 10006fe0 f i bncs_client_runtime.obj
 0001:00005ff0       ??0?$QMap@VQString@@VcomplexType@@@@QAE@XZ 10006ff0 f i bncs_client_runtime.obj
 0001:000060d0       ??1?$QMap@VQString@@VcomplexType@@@@QAE@XZ 100070d0 f i bncs_client_runtime.obj
 0001:00006170       ?begin@?$QMap@VQString@@VcomplexType@@@@QAE?AV?$QMapIterator@VQString@@VcomplexType@@@@XZ 10007170 f i bncs_client_runtime.obj
 0001:000061a0       ?end@?$QMap@VQString@@VcomplexType@@@@QAE?AV?$QMapIterator@VQString@@VcomplexType@@@@XZ 100071a0 f i bncs_client_runtime.obj
 0001:000061c0       ?replace@?$QMap@VQString@@VcomplexType@@@@QAE?AV?$QMapIterator@VQString@@VcomplexType@@@@ABVQString@@ABVcomplexType@@@Z 100071c0 f i bncs_client_runtime.obj
 0001:00006320       ?erase@?$QMap@VQString@@VcomplexType@@@@QAEXV?$QMapIterator@VQString@@VcomplexType@@@@@Z 10007320 f i bncs_client_runtime.obj
 0001:00006320       ?remove@?$QMap@VQString@@VcomplexType@@@@QAEXV?$QMapIterator@VQString@@VcomplexType@@@@@Z 10007320 f i bncs_client_runtime.obj
 0001:00006350       ?find@?$QMap@VQString@@VcomplexType@@@@QAE?AV?$QMapIterator@VQString@@VcomplexType@@@@ABVQString@@@Z 10007350 f i bncs_client_runtime.obj
 0001:000063d0       ??A?$QMap@VQString@@VcomplexInstance@@@@QBEABVcomplexInstance@@ABVQString@@@Z 100073d0 f i bncs_client_runtime.obj
 0001:000063d0       ??A?$QMap@VQString@@VcomplexType@@@@QBEABVcomplexType@@ABVQString@@@Z 100073d0 f i bncs_client_runtime.obj
 0001:000063d0       ??A?$QMap@VQString@@VparamInfo@@@@QBEABVparamInfo@@ABVQString@@@Z 100073d0 f i bncs_client_runtime.obj
 0001:00006440       ?contains@?$QMap@VQString@@VparamInfo@@@@QBE_NABVQString@@@Z 10007440 f i bncs_client_runtime.obj
 0001:00006440       ?contains@?$QMap@VQString@@VcomplexType@@@@QBE_NABVQString@@@Z 10007440 f i bncs_client_runtime.obj
 0001:00006440       ?contains@?$QMap@VQString@@VcomplexInstance@@@@QBE_NABVQString@@@Z 10007440 f i bncs_client_runtime.obj
 0001:000064b0       ?keys@?$QMap@VQString@@VcomplexType@@@@QBE?AV?$QValueList@VQString@@@@XZ 100074b0 f i bncs_client_runtime.obj
 0001:000065d0       ?values@?$QMap@VQString@@VcomplexType@@@@QBE?AV?$QValueList@VcomplexType@@@@XZ 100075d0 f i bncs_client_runtime.obj
 0001:000066f0       ?detach@?$QMap@VQString@@VcomplexType@@@@IAEXXZ 100076f0 f i bncs_client_runtime.obj
 0001:00006700       ??_G?$QPtrList@VsignalConnection@@@@UAEPAXI@Z 10007700 f i bncs_client_runtime.obj
 0001:00006700       ??_E?$QPtrList@VsignalConnection@@@@UAEPAXI@Z 10007700 f i bncs_client_runtime.obj
 0001:00006720       ??1?$QMapPrivate@VQString@@V1@@@QAE@XZ 10007720 f i bncs_client_runtime.obj
 0001:000067a0       ?remove@?$QMapPrivate@VQString@@VparamInfo@@@@QAEXV?$QMapIterator@VQString@@VparamInfo@@@@@Z 100077a0 f i bncs_client_runtime.obj
 0001:000067e0       ?remove@?$QMapPrivate@VQString@@VcomplexParam@@@@QAEXV?$QMapIterator@VQString@@VcomplexParam@@@@@Z 100077e0 f i bncs_client_runtime.obj
 0001:00006820       ?remove@?$QMapPrivate@VQString@@VcomplexInstance@@@@QAEXV?$QMapIterator@VQString@@VcomplexInstance@@@@@Z 10007820 f i bncs_client_runtime.obj
 0001:00006860       ?remove@?$QMapPrivate@VQString@@VinstanceInfo@@@@QAEXV?$QMapIterator@VQString@@VinstanceInfo@@@@@Z 10007860 f i bncs_client_runtime.obj
 0001:000068a0       ?remove@?$QMapPrivate@VQString@@VdeviceTypeInfo@@@@QAEXV?$QMapIterator@VQString@@VdeviceTypeInfo@@@@@Z 100078a0 f i bncs_client_runtime.obj
 0001:000068e0       ?begin@?$QMapPrivate@VQString@@VcomplexType@@@@QAE?AV?$QMapIterator@VQString@@VcomplexType@@@@XZ 100078e0 f i bncs_client_runtime.obj
 0001:000068e0       ?begin@?$QMapPrivate@VQString@@VparamInfo@@@@QAE?AV?$QMapIterator@VQString@@VparamInfo@@@@XZ 100078e0 f i bncs_client_runtime.obj
 0001:000068e0       ?begin@?$QMapPrivate@VQString@@VcomplexParam@@@@QAE?AV?$QMapIterator@VQString@@VcomplexParam@@@@XZ 100078e0 f i bncs_client_runtime.obj
 0001:000068e0       ?begin@?$QMapPrivate@VQString@@VcomplexInstance@@@@QAE?AV?$QMapIterator@VQString@@VcomplexInstance@@@@XZ 100078e0 f i bncs_client_runtime.obj
 0001:000068e0       ?begin@?$QMapPrivate@VQString@@VinstanceInfo@@@@QAE?AV?$QMapIterator@VQString@@VinstanceInfo@@@@XZ 100078e0 f i bncs_client_runtime.obj
 0001:000068e0       ?begin@?$QMapPrivate@VQString@@VdeviceTypeInfo@@@@QAE?AV?$QMapIterator@VQString@@VdeviceTypeInfo@@@@XZ 100078e0 f i bncs_client_runtime.obj
 0001:000068f0       ?remove@?$QMapPrivate@VQString@@VcomplexType@@@@QAEXV?$QMapIterator@VQString@@VcomplexType@@@@@Z 100078f0 f i bncs_client_runtime.obj
 0001:00006930       ??1?$QValueList@VparamInfo@@@@QAE@XZ 10007930 f i bncs_client_runtime.obj
 0001:00006930       ??1?$QValueList@VcomplexInstance@@@@QAE@XZ 10007930 f i bncs_client_runtime.obj
 0001:00006930       ??1?$QValueList@VinstanceInfo@@@@QAE@XZ 10007930 f i bncs_client_runtime.obj
 0001:00006930       ??1?$QValueList@VcomplexParam@@@@QAE@XZ 10007930 f i bncs_client_runtime.obj
 0001:00006930       ??1?$QValueList@VdeviceTypeInfo@@@@QAE@XZ 10007930 f i bncs_client_runtime.obj
 0001:00006930       ??1?$QValueList@VcomplexType@@@@QAE@XZ 10007930 f i bncs_client_runtime.obj
 0001:00006950       ??_G?$QMapNode@VQString@@V1@@@QAEPAXI@Z 10007950 f i bncs_client_runtime.obj
 0001:00006970       ??1?$QMapNode@VQString@@V1@@@QAE@XZ 10007970 f i bncs_client_runtime.obj
 0001:000069f0       ??1?$QMapNode@VQString@@VparamInfo@@@@QAE@XZ 100079f0 f i bncs_client_runtime.obj
 0001:00006a60       ??1?$QMapNode@VQString@@VcomplexParam@@@@QAE@XZ 10007a60 f i bncs_client_runtime.obj
 0001:00006ad0       ??1?$QMapNode@VQString@@VcomplexInstance@@@@QAE@XZ 10007ad0 f i bncs_client_runtime.obj
 0001:00006b40       ??1?$QMapNode@VQString@@VinstanceInfo@@@@QAE@XZ 10007b40 f i bncs_client_runtime.obj
 0001:00006bb0       ??1?$QMapNode@VQString@@VdeviceTypeInfo@@@@QAE@XZ 10007bb0 f i bncs_client_runtime.obj
 0001:00006c20       ??1?$QMapNode@VQString@@VcomplexType@@@@QAE@XZ 10007c20 f i bncs_client_runtime.obj
 0001:00006c90       ?end@?$QValueList@VparamInfo@@@@QAE?AV?$QValueListIterator@VparamInfo@@@@XZ 10007c90 f i bncs_client_runtime.obj
 0001:00006cc0       ?end@?$QValueList@VcomplexParam@@@@QAE?AV?$QValueListIterator@VcomplexParam@@@@XZ 10007cc0 f i bncs_client_runtime.obj
 0001:00006cf0       ?end@?$QValueList@VcomplexInstance@@@@QAE?AV?$QValueListIterator@VcomplexInstance@@@@XZ 10007cf0 f i bncs_client_runtime.obj
 0001:00006d20       ?end@?$QValueList@VinstanceInfo@@@@QAE?AV?$QValueListIterator@VinstanceInfo@@@@XZ 10007d20 f i bncs_client_runtime.obj
 0001:00006d50       ?end@?$QValueList@VdeviceTypeInfo@@@@QAE?AV?$QValueListIterator@VdeviceTypeInfo@@@@XZ 10007d50 f i bncs_client_runtime.obj
 0001:00006d80       ?end@?$QValueList@VcomplexType@@@@QAE?AV?$QValueListIterator@VcomplexType@@@@XZ 10007d80 f i bncs_client_runtime.obj
 0001:00006db0       ?deleteItem@?$QPtrList@VsignalConnection@@@@EAEXPAX@Z 10007db0 f i bncs_client_runtime.obj
 0001:00006de0       ??4?$QMap@VQString@@VparamInfo@@@@QAEAAV0@ABV0@@Z 10007de0 f i bncs_client_runtime.obj
 0001:00006ea0       ?insert@?$QMap@VQString@@VparamInfo@@@@QAE?AV?$QMapIterator@VQString@@VparamInfo@@@@ABVQString@@ABVparamInfo@@_N@Z 10007ea0 f i bncs_client_runtime.obj
 0001:00006fa0       ?insert@?$QMap@VQString@@VparamInfo@@@@QAE?AU?$QPair@V?$QMapIterator@VQString@@VparamInfo@@@@_N@@ABU?$QPair@$$CBVQString@@VparamInfo@@@@@Z 10007fa0 f i bncs_client_runtime.obj
 0001:00007080       ??A?$QMap@VQString@@VparamInfo@@@@QAEAAVparamInfo@@ABVQString@@@Z 10008080 f i bncs_client_runtime.obj
 0001:00007240       ?clear@?$QMap@VQString@@VparamInfo@@@@QAEXXZ 10008240 f i bncs_client_runtime.obj
 0001:000073a0       ?erase@?$QMap@VQString@@VparamInfo@@@@QAEXABVQString@@@Z 100083a0 f i bncs_client_runtime.obj
 0001:000073a0       ?remove@?$QMap@VQString@@VparamInfo@@@@QAEXABVQString@@@Z 100083a0 f i bncs_client_runtime.obj
 0001:00007430       ?detachInternal@?$QMap@VQString@@VparamInfo@@@@AAEXXZ 10008430 f i bncs_client_runtime.obj
 0001:00007610       ??4?$QMap@VQString@@VcomplexParam@@@@QAEAAV0@ABV0@@Z 10008610 f i bncs_client_runtime.obj
 0001:000076d0       ?insert@?$QMap@VQString@@VcomplexParam@@@@QAE?AV?$QMapIterator@VQString@@VcomplexParam@@@@ABVQString@@ABVcomplexParam@@_N@Z 100086d0 f i bncs_client_runtime.obj
 0001:000077e0       ?insert@?$QMap@VQString@@VcomplexParam@@@@QAE?AU?$QPair@V?$QMapIterator@VQString@@VcomplexParam@@@@_N@@ABU?$QPair@$$CBVQString@@VcomplexParam@@@@@Z 100087e0 f i bncs_client_runtime.obj
 0001:000078e0       ?count@?$QMap@VQString@@VcomplexParam@@@@QBEIABVQString@@@Z 100088e0 f i bncs_client_runtime.obj
 0001:00007990       ??A?$QMap@VQString@@VcomplexParam@@@@QAEAAVcomplexParam@@ABVQString@@@Z 10008990 f i bncs_client_runtime.obj
 0001:00007b60       ?clear@?$QMap@VQString@@VcomplexParam@@@@QAEXXZ 10008b60 f i bncs_client_runtime.obj
 0001:00007cc0       ?erase@?$QMap@VQString@@VcomplexParam@@@@QAEXABVQString@@@Z 10008cc0 f i bncs_client_runtime.obj
 0001:00007cc0       ?remove@?$QMap@VQString@@VcomplexParam@@@@QAEXABVQString@@@Z 10008cc0 f i bncs_client_runtime.obj
 0001:00007d50       ?detachInternal@?$QMap@VQString@@VcomplexParam@@@@AAEXXZ 10008d50 f i bncs_client_runtime.obj
 0001:00007f30       ??4?$QMap@VQString@@VcomplexInstance@@@@QAEAAV0@ABV0@@Z 10008f30 f i bncs_client_runtime.obj
 0001:00007ff0       ?insert@?$QMap@VQString@@VcomplexInstance@@@@QAE?AV?$QMapIterator@VQString@@VcomplexInstance@@@@ABVQString@@ABVcomplexInstance@@_N@Z 10008ff0 f i bncs_client_runtime.obj
 0001:00008150       ??_G?$QMapNode@VQString@@VcomplexParam@@@@QAEPAXI@Z 10009150 f i bncs_client_runtime.obj
 0001:00008170       ?insert@?$QMap@VQString@@VcomplexInstance@@@@QAE?AU?$QPair@V?$QMapIterator@VQString@@VcomplexInstance@@@@_N@@ABU?$QPair@$$CBVQString@@VcomplexInstance@@@@@Z 10009170 f i bncs_client_runtime.obj
 0001:000082c0       ?count@?$QMap@VQString@@VparamInfo@@@@QBEIABVQString@@@Z 100092c0 f i bncs_client_runtime.obj
 0001:000082c0       ?count@?$QMap@VQString@@VcomplexType@@@@QBEIABVQString@@@Z 100092c0 f i bncs_client_runtime.obj
 0001:000082c0       ?count@?$QMap@VQString@@VcomplexInstance@@@@QBEIABVQString@@@Z 100092c0 f i bncs_client_runtime.obj
 0001:00008370       ??A?$QMap@VQString@@VcomplexInstance@@@@QAEAAVcomplexInstance@@ABVQString@@@Z 10009370 f i bncs_client_runtime.obj
 0001:00008540       ?clear@?$QMap@VQString@@VcomplexInstance@@@@QAEXXZ 10009540 f i bncs_client_runtime.obj
 0001:000086a0       ?remove@?$QMap@VQString@@VcomplexInstance@@@@QAEXABVQString@@@Z 100096a0 f i bncs_client_runtime.obj
 0001:000086a0       ?erase@?$QMap@VQString@@VcomplexInstance@@@@QAEXABVQString@@@Z 100096a0 f i bncs_client_runtime.obj
 0001:00008730       ?detachInternal@?$QMap@VQString@@VcomplexInstance@@@@AAEXXZ 10009730 f i bncs_client_runtime.obj
 0001:00008910       ??4?$QMap@VQString@@VinstanceInfo@@@@QAEAAV0@ABV0@@Z 10009910 f i bncs_client_runtime.obj
 0001:000089d0       ?insert@?$QMap@VQString@@VinstanceInfo@@@@QAE?AV?$QMapIterator@VQString@@VinstanceInfo@@@@ABVQString@@ABVinstanceInfo@@_N@Z 100099d0 f i bncs_client_runtime.obj
 0001:00008b50       ?insert@?$QMap@VQString@@VinstanceInfo@@@@QAE?AU?$QPair@V?$QMapIterator@VQString@@VinstanceInfo@@@@_N@@ABU?$QPair@$$CBVQString@@VinstanceInfo@@@@@Z 10009b50 f i bncs_client_runtime.obj
 0001:00008cc0       ?count@?$QMap@VQString@@VinstanceInfo@@@@QBEIABVQString@@@Z 10009cc0 f i bncs_client_runtime.obj
 0001:00008d70       ??A?$QMap@VQString@@VinstanceInfo@@@@QAEAAVinstanceInfo@@ABVQString@@@Z 10009d70 f i bncs_client_runtime.obj
 0001:00008f40       ?clear@?$QMap@VQString@@VinstanceInfo@@@@QAEXXZ 10009f40 f i bncs_client_runtime.obj
 0001:000090a0       ?erase@?$QMap@VQString@@VinstanceInfo@@@@QAEXABVQString@@@Z 1000a0a0 f i bncs_client_runtime.obj
 0001:000090a0       ?remove@?$QMap@VQString@@VinstanceInfo@@@@QAEXABVQString@@@Z 1000a0a0 f i bncs_client_runtime.obj
 0001:00009130       ?detachInternal@?$QMap@VQString@@VinstanceInfo@@@@AAEXXZ 1000a130 f i bncs_client_runtime.obj
 0001:00009310       ??4?$QMap@VQString@@VdeviceTypeInfo@@@@QAEAAV0@ABV0@@Z 1000a310 f i bncs_client_runtime.obj
 0001:000093d0       ?insert@?$QMap@VQString@@VdeviceTypeInfo@@@@QAE?AV?$QMapIterator@VQString@@VdeviceTypeInfo@@@@ABVQString@@ABVdeviceTypeInfo@@_N@Z 1000a3d0 f i bncs_client_runtime.obj
 0001:00009540       ??_G?$QMapNode@VQString@@VparamInfo@@@@QAEPAXI@Z 1000a540 f i bncs_client_runtime.obj
 0001:00009560       ?insert@?$QMap@VQString@@VdeviceTypeInfo@@@@QAE?AU?$QPair@V?$QMapIterator@VQString@@VdeviceTypeInfo@@@@_N@@ABU?$QPair@$$CBVQString@@VdeviceTypeInfo@@@@@Z 1000a560 f i bncs_client_runtime.obj
 0001:000096c0       ?count@?$QMap@VQString@@VdeviceTypeInfo@@@@QBEIABVQString@@@Z 1000a6c0 f i bncs_client_runtime.obj
 0001:00009770       ??A?$QMap@VQString@@VdeviceTypeInfo@@@@QAEAAVdeviceTypeInfo@@ABVQString@@@Z 1000a770 f i bncs_client_runtime.obj
 0001:00009940       ?clear@?$QMap@VQString@@VdeviceTypeInfo@@@@QAEXXZ 1000a940 f i bncs_client_runtime.obj
 0001:00009aa0       ?remove@?$QMap@VQString@@VdeviceTypeInfo@@@@QAEXABVQString@@@Z 1000aaa0 f i bncs_client_runtime.obj
 0001:00009aa0       ?erase@?$QMap@VQString@@VdeviceTypeInfo@@@@QAEXABVQString@@@Z 1000aaa0 f i bncs_client_runtime.obj
 0001:00009b30       ?detachInternal@?$QMap@VQString@@VdeviceTypeInfo@@@@AAEXXZ 1000ab30 f i bncs_client_runtime.obj
 0001:00009d10       ??4?$QMap@VQString@@VcomplexType@@@@QAEAAV0@ABV0@@Z 1000ad10 f i bncs_client_runtime.obj
 0001:00009dd0       ?insert@?$QMap@VQString@@VcomplexType@@@@QAE?AV?$QMapIterator@VQString@@VcomplexType@@@@ABVQString@@ABVcomplexType@@_N@Z 1000add0 f i bncs_client_runtime.obj
 0001:00009f30       ??_G?$QMapNode@VQString@@VcomplexInstance@@@@QAEPAXI@Z 1000af30 f i bncs_client_runtime.obj
 0001:00009f50       ?insert@?$QMap@VQString@@VcomplexType@@@@QAE?AU?$QPair@V?$QMapIterator@VQString@@VcomplexType@@@@_N@@ABU?$QPair@$$CBVQString@@VcomplexType@@@@@Z 1000af50 f i bncs_client_runtime.obj
 0001:0000a0a0       ?remove@?$QMap@VQString@@VcomplexType@@@@QAEXABVQString@@@Z 1000b0a0 f i bncs_client_runtime.obj
 0001:0000a0a0       ?erase@?$QMap@VQString@@VcomplexType@@@@QAEXABVQString@@@Z 1000b0a0 f i bncs_client_runtime.obj
 0001:0000a130       ??A?$QMap@VQString@@VcomplexType@@@@QAEAAVcomplexType@@ABVQString@@@Z 1000b130 f i bncs_client_runtime.obj
 0001:0000a300       ?clear@?$QMap@VQString@@VcomplexType@@@@QAEXXZ 1000b300 f i bncs_client_runtime.obj
 0001:0000a460       ?detachInternal@?$QMap@VQString@@VcomplexType@@@@AAEXXZ 1000b460 f i bncs_client_runtime.obj
 0001:0000a640       ??0?$QValueListPrivate@VQString@@@@QAE@XZ 1000b640 f i bncs_client_runtime.obj
 0001:0000a6e0       ??_E?$QValueListNode@VQString@@@@UAEPAXI@Z 1000b6e0 f i bncs_client_runtime.obj
 0001:0000a6e0       ??_G?$QValueListNode@VQString@@@@UAEPAXI@Z 1000b6e0 f i bncs_client_runtime.obj
 0001:0000a700       ??1?$QValueListNode@VQString@@@@UAE@XZ 1000b700 f i bncs_client_runtime.obj
 0001:0000a730       ?insert@?$QValueListPrivate@VQString@@@@QAE?AV?$QValueListIterator@VQString@@@@V2@ABVQString@@@Z 1000b730 f i bncs_client_runtime.obj
 0001:0000a7b0       ??0?$QMapPrivate@VQString@@V1@@@QAE@XZ 1000b7b0 f i bncs_client_runtime.obj
 0001:0000a860       ?clear@?$QMapPrivate@VQString@@V1@@@QAEXXZ 1000b860 f i bncs_client_runtime.obj
 0001:0000a8d0       ?find@?$QMapPrivate@VQString@@V1@@@QBE?AV?$QMapConstIterator@VQString@@V1@@@ABVQString@@@Z 1000b8d0 f i bncs_client_runtime.obj
 0001:0000a940       ?detachInternal@?$QValueList@VparamInfo@@@@AAEXXZ 1000b940 f i bncs_client_runtime.obj
 0001:0000aa50       ?detachInternal@?$QValueList@VcomplexParam@@@@AAEXXZ 1000ba50 f i bncs_client_runtime.obj
 0001:0000ab60       ?inc@?$QMapConstIterator@VQString@@VcomplexParam@@@@AAEHXZ 1000bb60 f i bncs_client_runtime.obj
 0001:0000ab60       ?inc@?$QMapConstIterator@VQString@@VparamInfo@@@@AAEHXZ 1000bb60 f i bncs_client_runtime.obj
 0001:0000ab60       ?inc@?$QMapConstIterator@VQString@@VcomplexType@@@@AAEHXZ 1000bb60 f i bncs_client_runtime.obj
 0001:0000ab60       ?inc@?$QMapConstIterator@VQString@@VinstanceInfo@@@@AAEHXZ 1000bb60 f i bncs_client_runtime.obj
 0001:0000ab60       ?inc@?$QMapConstIterator@VQString@@VcomplexInstance@@@@AAEHXZ 1000bb60 f i bncs_client_runtime.obj
 0001:0000ab60       ?inc@?$QMapConstIterator@VQString@@VdeviceTypeInfo@@@@AAEHXZ 1000bb60 f i bncs_client_runtime.obj
 0001:0000aba0       ?detachInternal@?$QValueList@VcomplexInstance@@@@AAEXXZ 1000bba0 f i bncs_client_runtime.obj
 0001:0000acb0       ?detachInternal@?$QValueList@VinstanceInfo@@@@AAEXXZ 1000bcb0 f i bncs_client_runtime.obj
 0001:0000adc0       ?detachInternal@?$QValueList@VdeviceTypeInfo@@@@AAEXXZ 1000bdc0 f i bncs_client_runtime.obj
 0001:0000aed0       ?detachInternal@?$QValueList@VcomplexType@@@@AAEXXZ 1000bed0 f i bncs_client_runtime.obj
 0001:0000afe0       ??0?$QValueListPrivate@VparamInfo@@@@QAE@XZ 1000bfe0 f i bncs_client_runtime.obj
 0001:0000b070       ?insert@?$QValueListPrivate@VparamInfo@@@@QAE?AV?$QValueListIterator@VparamInfo@@@@V2@ABVparamInfo@@@Z 1000c070 f i bncs_client_runtime.obj
 0001:0000b0d0       ??0?$QValueListPrivate@VcomplexParam@@@@QAE@XZ 1000c0d0 f i bncs_client_runtime.obj
 0001:0000b160       ?insert@?$QValueListPrivate@VcomplexParam@@@@QAE?AV?$QValueListIterator@VcomplexParam@@@@V2@ABVcomplexParam@@@Z 1000c160 f i bncs_client_runtime.obj
 0001:0000b210       ??0?$QValueListPrivate@VcomplexInstance@@@@QAE@XZ 1000c210 f i bncs_client_runtime.obj
 0001:0000b2a0       ?insert@?$QValueListPrivate@VcomplexInstance@@@@QAE?AV?$QValueListIterator@VcomplexInstance@@@@V2@ABVcomplexInstance@@@Z 1000c2a0 f i bncs_client_runtime.obj
 0001:0000b300       ??0?$QValueListPrivate@VinstanceInfo@@@@QAE@XZ 1000c300 f i bncs_client_runtime.obj
 0001:0000b390       ?insert@?$QValueListPrivate@VinstanceInfo@@@@QAE?AV?$QValueListIterator@VinstanceInfo@@@@V2@ABVinstanceInfo@@@Z 1000c390 f i bncs_client_runtime.obj
 0001:0000b480       ??0?$QValueListPrivate@VdeviceTypeInfo@@@@QAE@XZ 1000c480 f i bncs_client_runtime.obj
 0001:0000b510       ?insert@?$QValueListPrivate@VdeviceTypeInfo@@@@QAE?AV?$QValueListIterator@VdeviceTypeInfo@@@@V2@ABVdeviceTypeInfo@@@Z 1000c510 f i bncs_client_runtime.obj
 0001:0000b580       ??0?$QValueListPrivate@VcomplexType@@@@QAE@XZ 1000c580 f i bncs_client_runtime.obj
 0001:0000b610       ?insert@?$QValueListPrivate@VcomplexType@@@@QAE?AV?$QValueListIterator@VcomplexType@@@@V2@ABVcomplexType@@@Z 1000c610 f i bncs_client_runtime.obj
 0001:0000b670       ??_E?$QValueListPrivate@VQString@@@@UAEPAXI@Z 1000c670 f i bncs_client_runtime.obj
 0001:0000b670       ??_G?$QValueListPrivate@VQString@@@@UAEPAXI@Z 1000c670 f i bncs_client_runtime.obj
 0001:0000b6c0       ??_E?$QValueListPrivate@VparamInfo@@@@UAEPAXI@Z 1000c6c0 f i bncs_client_runtime.obj
 0001:0000b6c0       ??_G?$QValueListPrivate@VparamInfo@@@@UAEPAXI@Z 1000c6c0 f i bncs_client_runtime.obj
 0001:0000b710       ??_E?$QValueListPrivate@VcomplexParam@@@@UAEPAXI@Z 1000c710 f i bncs_client_runtime.obj
 0001:0000b710       ??_G?$QValueListPrivate@VcomplexParam@@@@UAEPAXI@Z 1000c710 f i bncs_client_runtime.obj
 0001:0000b760       ??_E?$QValueListPrivate@VcomplexInstance@@@@UAEPAXI@Z 1000c760 f i bncs_client_runtime.obj
 0001:0000b760       ??_G?$QValueListPrivate@VcomplexInstance@@@@UAEPAXI@Z 1000c760 f i bncs_client_runtime.obj
 0001:0000b7b0       ??_E?$QValueListPrivate@VinstanceInfo@@@@UAEPAXI@Z 1000c7b0 f i bncs_client_runtime.obj
 0001:0000b7b0       ??_G?$QValueListPrivate@VinstanceInfo@@@@UAEPAXI@Z 1000c7b0 f i bncs_client_runtime.obj
 0001:0000b800       ??_E?$QValueListPrivate@VdeviceTypeInfo@@@@UAEPAXI@Z 1000c800 f i bncs_client_runtime.obj
 0001:0000b800       ??_G?$QValueListPrivate@VdeviceTypeInfo@@@@UAEPAXI@Z 1000c800 f i bncs_client_runtime.obj
 0001:0000b850       ??_G?$QValueListPrivate@VcomplexType@@@@UAEPAXI@Z 1000c850 f i bncs_client_runtime.obj
 0001:0000b850       ??_E?$QValueListPrivate@VcomplexType@@@@UAEPAXI@Z 1000c850 f i bncs_client_runtime.obj
 0001:0000b8a0       ??_E?$QValueListNode@VparamInfo@@@@UAEPAXI@Z 1000c8a0 f i bncs_client_runtime.obj
 0001:0000b8a0       ??_G?$QValueListNode@VparamInfo@@@@UAEPAXI@Z 1000c8a0 f i bncs_client_runtime.obj
 0001:0000b8c0       ??1?$QValueListNode@VparamInfo@@@@UAE@XZ 1000c8c0 f i bncs_client_runtime.obj
 0001:0000b8d0       ??_E?$QValueListNode@VcomplexParam@@@@UAEPAXI@Z 1000c8d0 f i bncs_client_runtime.obj
 0001:0000b8d0       ??_G?$QValueListNode@VcomplexParam@@@@UAEPAXI@Z 1000c8d0 f i bncs_client_runtime.obj
 0001:0000b8f0       ??1?$QValueListNode@VcomplexParam@@@@UAE@XZ 1000c8f0 f i bncs_client_runtime.obj
 0001:0000b900       ??_G?$QValueListNode@VcomplexInstance@@@@UAEPAXI@Z 1000c900 f i bncs_client_runtime.obj
 0001:0000b900       ??_E?$QValueListNode@VcomplexInstance@@@@UAEPAXI@Z 1000c900 f i bncs_client_runtime.obj
 0001:0000b920       ??1?$QValueListNode@VcomplexInstance@@@@UAE@XZ 1000c920 f i bncs_client_runtime.obj
 0001:0000b930       ??_E?$QValueListNode@VinstanceInfo@@@@UAEPAXI@Z 1000c930 f i bncs_client_runtime.obj
 0001:0000b930       ??_G?$QValueListNode@VinstanceInfo@@@@UAEPAXI@Z 1000c930 f i bncs_client_runtime.obj
 0001:0000b950       ??1?$QValueListNode@VinstanceInfo@@@@UAE@XZ 1000c950 f i bncs_client_runtime.obj
 0001:0000b960       ??_G?$QValueListNode@VdeviceTypeInfo@@@@UAEPAXI@Z 1000c960 f i bncs_client_runtime.obj
 0001:0000b960       ??_E?$QValueListNode@VdeviceTypeInfo@@@@UAEPAXI@Z 1000c960 f i bncs_client_runtime.obj
 0001:0000b980       ??1?$QValueListNode@VdeviceTypeInfo@@@@UAE@XZ 1000c980 f i bncs_client_runtime.obj
 0001:0000b990       ??_G?$QValueListNode@VcomplexType@@@@UAEPAXI@Z 1000c990 f i bncs_client_runtime.obj
 0001:0000b990       ??_E?$QValueListNode@VcomplexType@@@@UAEPAXI@Z 1000c990 f i bncs_client_runtime.obj
 0001:0000b9b0       ??1?$QValueListNode@VcomplexType@@@@UAE@XZ 1000c9b0 f i bncs_client_runtime.obj
 0001:0000b9c0       ??0?$QValueListPrivate@VQString@@@@QAE@ABV0@@Z 1000c9c0 f i bncs_client_runtime.obj
 0001:0000baa0       ?clear@?$QMapPrivate@VQString@@V1@@@QAEXPAU?$QMapNode@VQString@@V1@@@@Z 1000caa0 f i bncs_client_runtime.obj
 0001:0000bae0       ??0?$QMapPrivate@VQString@@VparamInfo@@@@QAE@PBV0@@Z 1000cae0 f i bncs_client_runtime.obj
 0001:0000bc80       ?clear@?$QMapPrivate@VQString@@VparamInfo@@@@QAEXPAU?$QMapNode@VQString@@VparamInfo@@@@@Z 1000cc80 f i bncs_client_runtime.obj
 0001:0000bcc0       ??0?$QMapPrivate@VQString@@VcomplexParam@@@@QAE@PBV0@@Z 1000ccc0 f i bncs_client_runtime.obj
 0001:0000be60       ?clear@?$QMapPrivate@VQString@@VcomplexParam@@@@QAEXPAU?$QMapNode@VQString@@VcomplexParam@@@@@Z 1000ce60 f i bncs_client_runtime.obj
 0001:0000bea0       ??0?$QMapPrivate@VQString@@VcomplexInstance@@@@QAE@PBV0@@Z 1000cea0 f i bncs_client_runtime.obj
 0001:0000c040       ?clear@?$QMapPrivate@VQString@@VcomplexInstance@@@@QAEXPAU?$QMapNode@VQString@@VcomplexInstance@@@@@Z 1000d040 f i bncs_client_runtime.obj
 0001:0000c080       ??0?$QMapPrivate@VQString@@VinstanceInfo@@@@QAE@PBV0@@Z 1000d080 f i bncs_client_runtime.obj
 0001:0000c220       ?clear@?$QMapPrivate@VQString@@VinstanceInfo@@@@QAEXPAU?$QMapNode@VQString@@VinstanceInfo@@@@@Z 1000d220 f i bncs_client_runtime.obj
 0001:0000c260       ??0?$QMapPrivate@VQString@@VdeviceTypeInfo@@@@QAE@PBV0@@Z 1000d260 f i bncs_client_runtime.obj
 0001:0000c400       ?clear@?$QMapPrivate@VQString@@VdeviceTypeInfo@@@@QAEXPAU?$QMapNode@VQString@@VdeviceTypeInfo@@@@@Z 1000d400 f i bncs_client_runtime.obj
 0001:0000c440       ??0?$QMapPrivate@VQString@@VcomplexType@@@@QAE@PBV0@@Z 1000d440 f i bncs_client_runtime.obj
 0001:0000c5e0       ?clear@?$QMapPrivate@VQString@@VcomplexType@@@@QAEXPAU?$QMapNode@VQString@@VcomplexType@@@@@Z 1000d5e0 f i bncs_client_runtime.obj
 0001:0000c620       ??0?$QValueListPrivate@VparamInfo@@@@QAE@ABV0@@Z 1000d620 f i bncs_client_runtime.obj
 0001:0000c6f0       ??0?$QValueListPrivate@VcomplexParam@@@@QAE@ABV0@@Z 1000d6f0 f i bncs_client_runtime.obj
 0001:0000c7c0       ??0?$QValueListPrivate@VcomplexInstance@@@@QAE@ABV0@@Z 1000d7c0 f i bncs_client_runtime.obj
 0001:0000c890       ??0?$QValueListPrivate@VinstanceInfo@@@@QAE@ABV0@@Z 1000d890 f i bncs_client_runtime.obj
 0001:0000c960       ??0?$QValueListPrivate@VdeviceTypeInfo@@@@QAE@ABV0@@Z 1000d960 f i bncs_client_runtime.obj
 0001:0000ca30       ??0?$QValueListPrivate@VcomplexType@@@@QAE@ABV0@@Z 1000da30 f i bncs_client_runtime.obj
 0001:0000cb00       ??0?$QValueListIterator@VcomplexType@@@@QAE@ABV0@@Z 1000db00 f i bncs_client_runtime.obj
 0001:0000cb00       ??0?$QValueListIterator@VdeviceTypeInfo@@@@QAE@ABV0@@Z 1000db00 f i bncs_client_runtime.obj
 0001:0000cb00       ??0?$QValueListIterator@VcomplexParam@@@@QAE@ABV0@@Z 1000db00 f i bncs_client_runtime.obj
 0001:0000cb00       ??0?$QValueListIterator@VparamInfo@@@@QAE@ABV0@@Z 1000db00 f i bncs_client_runtime.obj
 0001:0000cb00       ??0?$QValueListIterator@VinstanceInfo@@@@QAE@ABV0@@Z 1000db00 f i bncs_client_runtime.obj
 0001:0000cb00       ??0?$QValueListIterator@VcomplexInstance@@@@QAE@ABV0@@Z 1000db00 f i bncs_client_runtime.obj
 0001:0000cb10       ?copy@?$QMapPrivate@VQString@@VparamInfo@@@@QAEPAU?$QMapNode@VQString@@VparamInfo@@@@PAU2@@Z 1000db10 f i bncs_client_runtime.obj
 0001:0000cc20       ?insert@?$QMapPrivate@VQString@@VparamInfo@@@@QAE?AV?$QMapIterator@VQString@@VparamInfo@@@@PAUQMapNodeBase@@0ABVQString@@@Z 1000dc20 f i bncs_client_runtime.obj
 0001:0000cd30       ?copy@?$QMapPrivate@VQString@@VcomplexParam@@@@QAEPAU?$QMapNode@VQString@@VcomplexParam@@@@PAU2@@Z 1000dd30 f i bncs_client_runtime.obj
 0001:0000ce40       ?insert@?$QMapPrivate@VQString@@VcomplexParam@@@@QAE?AV?$QMapIterator@VQString@@VcomplexParam@@@@PAUQMapNodeBase@@0ABVQString@@@Z 1000de40 f i bncs_client_runtime.obj
 0001:0000cf50       ?copy@?$QMapPrivate@VQString@@VcomplexInstance@@@@QAEPAU?$QMapNode@VQString@@VcomplexInstance@@@@PAU2@@Z 1000df50 f i bncs_client_runtime.obj
 0001:0000d120       ?insert@?$QMapPrivate@VQString@@VcomplexInstance@@@@QAE?AV?$QMapIterator@VQString@@VcomplexInstance@@@@PAUQMapNodeBase@@0ABVQString@@@Z 1000e120 f i bncs_client_runtime.obj
 0001:0000d230       ?copy@?$QMapPrivate@VQString@@VinstanceInfo@@@@QAEPAU?$QMapNode@VQString@@VinstanceInfo@@@@PAU2@@Z 1000e230 f i bncs_client_runtime.obj
 0001:0000d460       ?insert@?$QMapPrivate@VQString@@VinstanceInfo@@@@QAE?AV?$QMapIterator@VQString@@VinstanceInfo@@@@PAUQMapNodeBase@@0ABVQString@@@Z 1000e460 f i bncs_client_runtime.obj
 0001:0000d570       ?copy@?$QMapPrivate@VQString@@VdeviceTypeInfo@@@@QAEPAU?$QMapNode@VQString@@VdeviceTypeInfo@@@@PAU2@@Z 1000e570 f i bncs_client_runtime.obj
 0001:0000d750       ?insert@?$QMapPrivate@VQString@@VdeviceTypeInfo@@@@QAE?AV?$QMapIterator@VQString@@VdeviceTypeInfo@@@@PAUQMapNodeBase@@0ABVQString@@@Z 1000e750 f i bncs_client_runtime.obj
 0001:0000d860       ?dec@?$QMapIterator@VQString@@VcomplexInstance@@@@AAEHXZ 1000e860 f i bncs_client_runtime.obj
 0001:0000d860       ?dec@?$QMapIterator@VQString@@VparamInfo@@@@AAEHXZ 1000e860 f i bncs_client_runtime.obj
 0001:0000d860       ?dec@?$QMapIterator@VQString@@VcomplexType@@@@AAEHXZ 1000e860 f i bncs_client_runtime.obj
 0001:0000d860       ?dec@?$QMapIterator@VQString@@VcomplexParam@@@@AAEHXZ 1000e860 f i bncs_client_runtime.obj
 0001:0000d860       ?dec@?$QMapIterator@VQString@@VinstanceInfo@@@@AAEHXZ 1000e860 f i bncs_client_runtime.obj
 0001:0000d860       ?dec@?$QMapIterator@VQString@@VdeviceTypeInfo@@@@AAEHXZ 1000e860 f i bncs_client_runtime.obj
 0001:0000d8b0       ?copy@?$QMapPrivate@VQString@@VcomplexType@@@@QAEPAU?$QMapNode@VQString@@VcomplexType@@@@PAU2@@Z 1000e8b0 f i bncs_client_runtime.obj
 0001:0000da80       ?insert@?$QMapPrivate@VQString@@VcomplexType@@@@QAE?AV?$QMapIterator@VQString@@VcomplexType@@@@PAUQMapNodeBase@@0ABVQString@@@Z 1000ea80 f i bncs_client_runtime.obj
 0001:0000db90       ??_Ebncs_client_runtime@@WCI@AEPAXI@Z 1000eb90 f i bncs_client_runtime.obj
 0001:0000dba0       ?WndProc@ccTimer@@CGJPAUHWND__@@IIJ@Z 1000eba0 f   ccTimer.obj
 0001:0000dca0       ??1?$map@HVccTimerClient@@U?$less@H@std@@V?$allocator@VccTimerClient@@@3@@std@@QAE@XZ 1000eca0 f i ccTimer.obj
 0001:0000dd90       ?timerFired@ccTimer@@AAEXH@Z 1000ed90 f   ccTimer.obj
 0001:0000ddf0       ??0ccTimer@@QAE@PAVIccTimerCallback@@@Z 1000edf0 f   ccTimer.obj
 0001:0000def0       ??_EccTimer@@UAEPAXI@Z     1000eef0 f i ccTimer.obj
 0001:0000def0       ??_GccTimer@@UAEPAXI@Z     1000eef0 f i ccTimer.obj
 0001:0000df10       ??1ccTimer@@UAE@XZ         1000ef10 f   ccTimer.obj
 0001:0000e000       ?timerStart@ccTimer@@QAEHHH@Z 1000f000 f   ccTimer.obj
 0001:0000e240       ?timerStop@ccTimer@@QAEHH@Z 1000f240 f   ccTimer.obj
 0001:0000e2f0       ?showLastError@ccTimer@@CAXPAD@Z 1000f2f0 f   ccTimer.obj
 0001:0000e3e0       ??0?$map@HVccTimerClient@@U?$less@H@std@@V?$allocator@VccTimerClient@@@3@@std@@QAE@ABU?$less@H@1@ABV?$allocator@VccTimerClient@@@1@@Z 1000f3e0 f i ccTimer.obj
 0001:0000e490       ?begin@?$_Tree@HU?$pair@$$CBHVccTimerClient@@@std@@U_Kfn@?$map@HVccTimerClient@@U?$less@H@std@@V?$allocator@VccTimerClient@@@3@@2@U?$less@H@2@V?$allocator@VccTimerClient@@@2@@std@@QAE?AViterator@12@XZ 1000f490 f i ccTimer.obj
 0001:0000e4a0       ?erase@?$_Tree@HU?$pair@$$CBHVccTimerClient@@@std@@U_Kfn@?$map@HVccTimerClient@@U?$less@H@std@@V?$allocator@VccTimerClient@@@3@@2@U?$less@H@2@V?$allocator@VccTimerClient@@@2@@std@@QAE?AViterator@12@V312@@Z 1000f4a0 f i ccTimer.obj
 0001:0000e8a0       ?_Inc@const_iterator@?$_Tree@HU?$pair@$$CBHVccTimerClient@@@std@@U_Kfn@?$map@HVccTimerClient@@U?$less@H@std@@V?$allocator@VccTimerClient@@@3@@2@U?$less@H@2@V?$allocator@VccTimerClient@@@2@@std@@QAEXXZ 1000f8a0 f i ccTimer.obj
 0001:0000e8f0       ??0?$pair@Viterator@?$_Tree@HU?$pair@$$CBHVccTimerClient@@@std@@U_Kfn@?$map@HVccTimerClient@@U?$less@H@std@@V?$allocator@VccTimerClient@@@3@@2@U?$less@H@2@V?$allocator@VccTimerClient@@@2@@std@@_N@std@@QAE@ABViterator@?$_Tree@HU?$pair@$$CBHVccTimerClient@@@std@@U_Kfn@?$map@HVccTimerClient@@U?$less@H@std@@V?$allocator@VccTimerClient@@@3@@2@U?$less@H@2@V?$allocator@VccTimerClient@@@2@@1@AB_N@Z 1000f8f0 f i ccTimer.obj
 0001:0000e910       ?_Erase@?$_Tree@HU?$pair@$$CBHVccTimerClient@@@std@@U_Kfn@?$map@HVccTimerClient@@U?$less@H@std@@V?$allocator@VccTimerClient@@@3@@2@U?$less@H@2@V?$allocator@VccTimerClient@@@2@@std@@IAEXPAU_Node@12@@Z 1000f910 f i ccTimer.obj
 0001:0000e950       ?_Insert@?$_Tree@HU?$pair@$$CBHVccTimerClient@@@std@@U_Kfn@?$map@HVccTimerClient@@U?$less@H@std@@V?$allocator@VccTimerClient@@@3@@2@U?$less@H@2@V?$allocator@VccTimerClient@@@2@@std@@IAE?AViterator@12@PAU_Node@12@0ABU?$pair@$$CBHVccTimerClient@@@2@@Z 1000f950 f i ccTimer.obj
 0001:0000ebc0       ?_Min@?$_Tree@HU?$pair@$$CBHVccTimerClient@@@std@@U_Kfn@?$map@HVccTimerClient@@U?$less@H@std@@V?$allocator@VccTimerClient@@@3@@2@U?$less@H@2@V?$allocator@VccTimerClient@@@2@@std@@KAPAU_Node@12@PAU312@@Z 1000fbc0 f i ccTimer.obj
 0001:0000ebe0       ?_Lbound@?$_Tree@HU?$pair@$$CBHVccTimerClient@@@std@@U_Kfn@?$map@HVccTimerClient@@U?$less@H@std@@V?$allocator@VccTimerClient@@@3@@2@U?$less@H@2@V?$allocator@VccTimerClient@@@2@@std@@IBEPAU_Node@12@ABH@Z 1000fbe0 f i ccTimer.obj
 0001:0000ec10       ?_Dec@const_iterator@?$_Tree@HU?$pair@$$CBHVccTimerClient@@@std@@U_Kfn@?$map@HVccTimerClient@@U?$less@H@std@@V?$allocator@VccTimerClient@@@3@@2@U?$less@H@2@V?$allocator@VccTimerClient@@@2@@std@@QAEXXZ 1000fc10 f i ccTimer.obj
 0001:0000ec70       ?_Construct@std@@YAXPAU?$pair@$$CBHVccTimerClient@@@1@ABU21@@Z 1000fc70 f i ccTimer.obj
 0001:0000ec90       ??0connectionDebugDlg@@QAE@PAVQWidget@@PBD_NI@Z 1000fc90 f   connectiondebugdlgimpl.obj
 0001:0000ed50       ?metaObject@connectionDebugDlg@@UBEPAVQMetaObject@@XZ 1000fd50 f i connectiondebugdlgimpl.obj
 0001:0000ed60       ??_EconnectionDebugDlg@@UAEPAXI@Z 1000fd60 f i connectiondebugdlgimpl.obj
 0001:0000ed60       ??_GconnectionDebugDlg@@UAEPAXI@Z 1000fd60 f i connectiondebugdlgimpl.obj
 0001:0000ed80       ??1connectionDebugDlg@@UAE@XZ 1000fd80 f   connectiondebugdlgimpl.obj
 0001:0000eda0       ?debug@connectionDebugDlg@@QAEXABVQString@@@Z 1000fda0 f   connectiondebugdlgimpl.obj
 0001:0000edd0       ?doButtonClear@connectionDebugDlg@@QAEXXZ 1000fdd0 f   connectiondebugdlgimpl.obj
 0001:0000ede0       ?scrollToBottom@connectionDebugDlg@@QAEX_N@Z 1000fde0 f   connectiondebugdlgimpl.obj
 0001:0000ee00       ??_EconnectionDebugDlg@@WCI@AEPAXI@Z 1000fe00 f i connectiondebugdlgimpl.obj
 0001:0000ee60       ??0dCW@@QAE@XZ             1000fe60 f   dCW.obj
 0001:0000efc0       ??1dCW@@UAE@XZ             1000ffc0 f   dCW.obj
 0001:0000f150       ?clearCache@dCW@@SAXXZ     10010150 f   dCW.obj
 0001:0000f160       ?parseXML@dCW@@QAEPAVQWidget@@AAVQDomDocument@@PAV2@VQPoint@@_N3VQString@@@Z 10010160 f   dCW.obj
 0001:0000f200       ?parseXML@dCW@@QAEPAVQWidget@@AAVQDomDocument@@PAV2@VQPoint@@_N33VQString@@@Z 10010200 f   dCW.obj
 0001:000130f0       ?round@dCW@@QAEHN@Z        100140f0 f   dCW.obj
 0001:00013130       ?create@dCW@@QAEPAVQWidget@@ABVQString@@PAVQObject@@PAV2@PBD_N4NN44@Z 10014130 f   dCW.obj
 0001:00013e60       ??_EQDomDocument@@UAEPAXI@Z 10014e60 f i dCW.obj
 0001:00013e60       ??_GQDomDocument@@UAEPAXI@Z 10014e60 f i dCW.obj
 0001:00013e80       ?checkNameUnique@dCW@@SA_NPAVQWidget@@ABVQString@@AAV3@@Z 10014e80 f   dCW.obj
 0001:00014230       ?enableCache@dCW@@SAX_N@Z  10015230 f   dCW.obj
 0001:00014250       ?connectionList@dCW@@QAE?AVsignalConnectionRefList@@XZ 10015250 f   dCW.obj
 0001:00014280       ?name@dCW@@QAE?AVQString@@XZ 10015280 f   dCW.obj
 0001:000142b0       ?setDesignTime@dCW@@SAX_N@Z 100152b0 f   dCW.obj
 0001:000142c0       ?isDesignTime@dCW@@SA_NXZ  100152c0 f   dCW.obj
 0001:000142d0       ?developerMode@dCW@@SA_NXZ 100152d0 f   dCW.obj
 0001:000143b0       ?createWidget@dCW@@QAEPAVQWidget@@ABVQString@@PAV2@0HHHH@Z 100153b0 f   dCW.obj
 0001:000145d0       ??0?$QCache@VQDomDocument@@@@QAE@HH_N@Z 100155d0 f i dCW.obj
 0001:00014600       ??1?$QCache@VQDomDocument@@@@UAE@XZ 10015600 f i dCW.obj
 0001:00014660       ?count@?$QCache@VQDomDocument@@@@UBEIXZ 10015660 f i dCW.obj
 0001:00014670       ?clear@?$QCache@VQDomDocument@@@@UAEXXZ 10015670 f i dCW.obj
 0001:00014680       ??_E?$QCache@VQDomDocument@@@@UAEPAXI@Z 10015680 f i dCW.obj
 0001:00014680       ??_G?$QCache@VQDomDocument@@@@UAEPAXI@Z 10015680 f i dCW.obj
 0001:000146a0       ?deleteItem@?$QCache@VQDomDocument@@@@EAEXPAX@Z 100156a0 f i dCW.obj
 0001:000146c0       ?at@?$QValueListPrivate@VQString@@@@QBEPAV?$QValueListNode@VQString@@@@I@Z 100156c0 f i dCW.obj
 0001:00014700       ??0notifyWrangler@@QAE@ABVQString@@0ABVQWidgetList@@@Z 10015700 f   notifyWrangler.obj
 0001:000147a0       ??_EnotifyWrangler@@UAEPAXI@Z 100157a0 f i notifyWrangler.obj
 0001:000147a0       ??_GnotifyWrangler@@UAEPAXI@Z 100157a0 f i notifyWrangler.obj
 0001:000147c0       ??1notifyWrangler@@UAE@XZ  100157c0 f   notifyWrangler.obj
 0001:00014840       ?wrangle@notifyWrangler@@QAE?AVQString@@ABV2@@Z 10015840 f   notifyWrangler.obj
 0001:000153d0       ?textGet@notifyWrangler@@QAE_NABVQString@@0AAV2@@Z 100163d0 f   notifyWrangler.obj
 0001:00015550       ??0connectionDebugDlgBase@@QAE@PAVQWidget@@PBD_NI@Z 10016550 f   connectiondebugdlg.obj
 0001:00015910       ?metaObject@connectionDebugDlgBase@@UBEPAVQMetaObject@@XZ 10016910 f i connectiondebugdlg.obj
 0001:00015920       ??_EQSpacerItem@@UAEPAXI@Z 10016920 f i connectiondebugdlg.obj
 0001:00015920       ??_GQSpacerItem@@UAEPAXI@Z 10016920 f i connectiondebugdlg.obj
 0001:00015940       ??_GconnectionDebugDlgBase@@UAEPAXI@Z 10016940 f i connectiondebugdlg.obj
 0001:00015940       ??_EconnectionDebugDlgBase@@UAEPAXI@Z 10016940 f i connectiondebugdlg.obj
 0001:00015960       ??_GQVBoxLayout@@UAEPAXI@Z 10016960 f i connectiondebugdlg.obj
 0001:00015960       ??_EQVBoxLayout@@UAEPAXI@Z 10016960 f i connectiondebugdlg.obj
 0001:00015980       ??_EQTextEdit@@UAEPAXI@Z   10016980 f i connectiondebugdlg.obj
 0001:00015980       ??_GQTextEdit@@UAEPAXI@Z   10016980 f i connectiondebugdlg.obj
 0001:000159a0       ??_EQHBoxLayout@@UAEPAXI@Z 100169a0 f i connectiondebugdlg.obj
 0001:000159a0       ??_GQHBoxLayout@@UAEPAXI@Z 100169a0 f i connectiondebugdlg.obj
 0001:000159c0       ??_EQCheckBox@@UAEPAXI@Z   100169c0 f i connectiondebugdlg.obj
 0001:000159c0       ??_GQCheckBox@@UAEPAXI@Z   100169c0 f i connectiondebugdlg.obj
 0001:000159e0       ??_EQPushButton@@UAEPAXI@Z 100169e0 f i connectiondebugdlg.obj
 0001:000159e0       ??_GQPushButton@@UAEPAXI@Z 100169e0 f i connectiondebugdlg.obj
 0001:00015a00       ??1connectionDebugDlgBase@@UAE@XZ 10016a00 f   connectiondebugdlg.obj
 0001:00015a20       ?languageChange@connectionDebugDlgBase@@MAEXXZ 10016a20 f   connectiondebugdlg.obj
 0001:00015b90       ??_EQVBoxLayout@@WCI@AEPAXI@Z 10016b90 f i connectiondebugdlg.obj
 0001:00015ba0       ??_EQHBoxLayout@@WCI@AEPAXI@Z 10016ba0 f i connectiondebugdlg.obj
 0001:00015bb0       ??_EQTextEdit@@WCI@AEPAXI@Z 10016bb0 f i connectiondebugdlg.obj
 0001:00015bc0       ??_EQCheckBox@@WCI@AEPAXI@Z 10016bc0 f i connectiondebugdlg.obj
 0001:00015bd0       ??_EconnectionDebugDlgBase@@WCI@AEPAXI@Z 10016bd0 f i connectiondebugdlg.obj
 0001:00015be0       ??_EQPushButton@@WCI@AEPAXI@Z 10016be0 f i connectiondebugdlg.obj
 0001:00015bf0       ?className@bncs_client_runtime@@UBEPBDXZ 10016bf0 f   moc_bncs_client_runtime.obj
 0001:00015c50       ?tr@bncs_client_runtime@@SA?AVQString@@PBD0@Z 10016c50 f   moc_bncs_client_runtime.obj
 0001:00015ca0       ?trUtf8@bncs_client_runtime@@SA?AVQString@@PBD0@Z 10016ca0 f   moc_bncs_client_runtime.obj
 0001:00015cf0       ?staticMetaObject@bncs_client_runtime@@SAPAVQMetaObject@@XZ 10016cf0 f   moc_bncs_client_runtime.obj
 0001:00015de0       ?qt_cast@bncs_client_runtime@@UAEPAXPBD@Z 10016de0 f   moc_bncs_client_runtime.obj
 0001:00015ec0       ?notify@bncs_client_runtime@@IAEXAAVQString@@@Z 10016ec0 f   moc_bncs_client_runtime.obj
 0001:00015f90       ?qt_invoke@bncs_client_runtime@@UAE_NHPAUQUObject@@@Z 10016f90 f   moc_bncs_client_runtime.obj
 0001:00016000       ?qt_emit@bncs_client_runtime@@UAE_NHPAUQUObject@@@Z 10017000 f   moc_bncs_client_runtime.obj
 0001:00016040       ?qt_property@bncs_client_runtime@@UAE_NHHPAVQVariant@@@Z 10017040 f   moc_bncs_client_runtime.obj
 0001:00016060       ?qt_static_property@bncs_client_runtime@@SA_NPAVQObject@@HHPAVQVariant@@@Z 10017060 f   moc_bncs_client_runtime.obj
 0001:00016070       ?className@connectionDebugDlgBase@@UBEPBDXZ 10017070 f   moc_connectiondebugdlg.obj
 0001:000160d0       ?tr@connectionDebugDlgBase@@SA?AVQString@@PBD0@Z 100170d0 f   moc_connectiondebugdlg.obj
 0001:00016120       ?staticMetaObject@connectionDebugDlgBase@@SAPAVQMetaObject@@XZ 10017120 f   moc_connectiondebugdlg.obj
 0001:00016170       ?qt_cast@connectionDebugDlgBase@@UAEPAXPBD@Z 10017170 f   moc_connectiondebugdlg.obj
 0001:000161e0       ?qt_invoke@connectionDebugDlgBase@@UAE_NHPAUQUObject@@@Z 100171e0 f   moc_connectiondebugdlg.obj
 0001:00016220       ?qt_emit@connectionDebugDlgBase@@UAE_NHPAUQUObject@@@Z 10017220 f   moc_connectiondebugdlg.obj
 0001:00016240       ?qt_property@connectionDebugDlgBase@@UAE_NHHPAVQVariant@@@Z 10017240 f   moc_connectiondebugdlg.obj
 0001:00016260       ?className@connectionDebugDlg@@UBEPBDXZ 10017260 f   moc_connectiondebugdlgimpl.obj
 0001:000162c0       ?staticMetaObject@connectionDebugDlg@@SAPAVQMetaObject@@XZ 100172c0 f   moc_connectiondebugdlgimpl.obj
 0001:00016380       ?qt_cast@connectionDebugDlg@@UAEPAXPBD@Z 10017380 f   moc_connectiondebugdlgimpl.obj
 0001:000163f0       ?showIncomingEvent@connectionDebugDlg@@IAEX_N@Z 100173f0 f   moc_connectiondebugdlgimpl.obj
 0001:00016410       ?qt_invoke@connectionDebugDlg@@UAE_NHPAUQUObject@@@Z 10017410 f   moc_connectiondebugdlgimpl.obj
 0001:00016470       ?qt_emit@connectionDebugDlg@@UAE_NHPAUQUObject@@@Z 10017470 f   moc_connectiondebugdlgimpl.obj
 0001:000164b0       ?qt_property@connectionDebugDlg@@UAE_NHHPAVQVariant@@@Z 100174b0 f   moc_connectiondebugdlgimpl.obj
 0001:000164d0       ??0decodeCaptionString@@QAE@PBD@Z 100174d0 f   decodecaptionstring:decodecaptionstring.obj
 0001:00016600       ??1decodeCaptionString@@QAE@XZ 10017600 f   decodecaptionstring:decodecaptionstring.obj
 0001:00016620       ?compareItems@QGList@@MAEHPAX0@Z 10017620 f   qt-mt323:qt-mt323.dll
 0001:00016626       ?write@QGList@@MBEAAVQDataStream@@AAV2@PAX@Z 10017626 f   qt-mt323:qt-mt323.dll
 0001:0001662c       ?read@QGList@@MAEAAVQDataStream@@AAV2@AAPAX@Z 1001762c f   qt-mt323:qt-mt323.dll
 0001:00016632       ?newItem@QPtrCollection@@MAEPAXPAX@Z 10017632 f   qt-mt323:qt-mt323.dll
 0001:00016638       ?fontInf@QPaintDevice@@MBEHPAVQFont@@H@Z 10017638 f   qt-mt323:qt-mt323.dll
 0001:0001663e       ?fontMet@QPaintDevice@@MBEHPAVQFont@@HPBDH@Z 1001763e f   qt-mt323:qt-mt323.dll
 0001:00016644       ?metric@QWidget@@MBEHH@Z   10017644 f   qt-mt323:qt-mt323.dll
 0001:0001664a       ?cmd@QPaintDevice@@MAE_NHPAVQPainter@@PATQPDevCmdParam@@@Z 1001764a f   qt-mt323:qt-mt323.dll
 0001:00016650       ?handle@QPaintDevice@@UBEPAUHDC__@@XZ 10017650 f   qt-mt323:qt-mt323.dll
 0001:00016656       ?resolution@QPaintDevice@@UBEHXZ 10017656 f   qt-mt323:qt-mt323.dll
 0001:0001665c       ?setResolution@QPaintDevice@@UAEXH@Z 1001765c f   qt-mt323:qt-mt323.dll
 0001:00016662       ?setMicroFocusHint@QWidget@@MAEXHHHH_NPAVQFont@@@Z 10017662 f   qt-mt323:qt-mt323.dll
 0001:00016668       ?setKeyCompression@QWidget@@MAEX_N@Z 10017668 f   qt-mt323:qt-mt323.dll
 0001:0001666e       ?focusNextPrevChild@QWidget@@MAE_N_N@Z 1001766e f   qt-mt323:qt-mt323.dll
 0001:00016674       ?setWFlags@QWidget@@MAEXI@Z 10017674 f   qt-mt323:qt-mt323.dll
 0001:0001667a       ?setWState@QWidget@@MAEXI@Z 1001767a f   qt-mt323:qt-mt323.dll
 0001:00016680       ?destroy@QWidget@@MAEX_N0@Z 10017680 f   qt-mt323:qt-mt323.dll
 0001:00016686       ?create@QWidget@@MAEXPAUHWND__@@_N1@Z 10017686 f   qt-mt323:qt-mt323.dll
 0001:0001668c       ?windowActivationChange@QWidget@@MAEX_N@Z 1001768c f   qt-mt323:qt-mt323.dll
 0001:00016692       ?fontChange@QWidget@@MAEXABVQFont@@@Z 10017692 f   qt-mt323:qt-mt323.dll
 0001:00016698       ?paletteChange@QWidget@@MAEXABVQPalette@@@Z 10017698 f   qt-mt323:qt-mt323.dll
 0001:0001669e       ?enabledChange@QWidget@@MAEX_N@Z 1001769e f   qt-mt323:qt-mt323.dll
 0001:000166a4       ?styleChange@QWidget@@MAEXAAVQStyle@@@Z 100176a4 f   qt-mt323:qt-mt323.dll
 0001:000166aa       ?updateMask@QWidget@@MAEXXZ 100176aa f   qt-mt323:qt-mt323.dll
 0001:000166b0       ?winEvent@QWidget@@MAE_NPAUtagMSG@@@Z 100176b0 f   qt-mt323:qt-mt323.dll
 0001:000166b6       ?hideEvent@QWidget@@MAEXPAVQHideEvent@@@Z 100176b6 f   qt-mt323:qt-mt323.dll
 0001:000166bc       ?showEvent@QWidget@@MAEXPAVQShowEvent@@@Z 100176bc f   qt-mt323:qt-mt323.dll
 0001:000166c2       ?dropEvent@QWidget@@MAEXPAVQDropEvent@@@Z 100176c2 f   qt-mt323:qt-mt323.dll
 0001:000166c8       ?dragLeaveEvent@QWidget@@MAEXPAVQDragLeaveEvent@@@Z 100176c8 f   qt-mt323:qt-mt323.dll
 0001:000166ce       ?dragMoveEvent@QWidget@@MAEXPAVQDragMoveEvent@@@Z 100176ce f   qt-mt323:qt-mt323.dll
 0001:000166d4       ?dragEnterEvent@QWidget@@MAEXPAVQDragEnterEvent@@@Z 100176d4 f   qt-mt323:qt-mt323.dll
 0001:000166da       ?tabletEvent@QWidget@@MAEXPAVQTabletEvent@@@Z 100176da f   qt-mt323:qt-mt323.dll
 0001:000166e0       ?imEndEvent@QWidget@@MAEXPAVQIMEvent@@@Z 100176e0 f   qt-mt323:qt-mt323.dll
 0001:000166e6       ?imComposeEvent@QWidget@@MAEXPAVQIMEvent@@@Z 100176e6 f   qt-mt323:qt-mt323.dll
 0001:000166ec       ?imStartEvent@QWidget@@MAEXPAVQIMEvent@@@Z 100176ec f   qt-mt323:qt-mt323.dll
 0001:000166f2       ?closeEvent@QWidget@@MAEXPAVQCloseEvent@@@Z 100176f2 f   qt-mt323:qt-mt323.dll
 0001:000166f8       ?resizeEvent@QWidget@@MAEXPAVQResizeEvent@@@Z 100176f8 f   qt-mt323:qt-mt323.dll
 0001:000166fe       ?moveEvent@QWidget@@MAEXPAVQMoveEvent@@@Z 100176fe f   qt-mt323:qt-mt323.dll
 0001:00016704       ?leaveEvent@QWidget@@MAEXPAVQEvent@@@Z 10017704 f   qt-mt323:qt-mt323.dll
 0001:0001670a       ?enterEvent@QWidget@@MAEXPAVQEvent@@@Z 1001770a f   qt-mt323:qt-mt323.dll
 0001:00016710       ?focusOutEvent@QWidget@@MAEXPAVQFocusEvent@@@Z 10017710 f   qt-mt323:qt-mt323.dll
 0001:00016716       ?focusInEvent@QWidget@@MAEXPAVQFocusEvent@@@Z 10017716 f   qt-mt323:qt-mt323.dll
 0001:0001671c       ?keyReleaseEvent@QWidget@@MAEXPAVQKeyEvent@@@Z 1001771c f   qt-mt323:qt-mt323.dll
 0001:00016722       ?keyPressEvent@QWidget@@MAEXPAVQKeyEvent@@@Z 10017722 f   qt-mt323:qt-mt323.dll
 0001:00016728       ?wheelEvent@QWidget@@MAEXPAVQWheelEvent@@@Z 10017728 f   qt-mt323:qt-mt323.dll
 0001:0001672e       ?mouseMoveEvent@QWidget@@MAEXPAVQMouseEvent@@@Z 1001772e f   qt-mt323:qt-mt323.dll
 0001:00016734       ?mouseDoubleClickEvent@QWidget@@MAEXPAVQMouseEvent@@@Z 10017734 f   qt-mt323:qt-mt323.dll
 0001:0001673a       ?customWhatsThis@QWidget@@UBE_NXZ 1001773a f   qt-mt323:qt-mt323.dll
 0001:00016740       ?setBackgroundOrigin@QWidget@@UAEXW4BackgroundOrigin@1@@Z 10017740 f   qt-mt323:qt-mt323.dll
 0001:00016746       ?setAutoMask@QWidget@@UAEX_N@Z 10017746 f   qt-mt323:qt-mt323.dll
 0001:0001674c       ?setAcceptDrops@QWidget@@UAEX_N@Z 1001774c f   qt-mt323:qt-mt323.dll
 0001:00016752       ?reparent@QWidget@@UAEXPAV1@IABVQPoint@@_N@Z 10017752 f   qt-mt323:qt-mt323.dll
 0001:00016758       ?adjustSize@QWidget@@UAEXXZ 10017758 f   qt-mt323:qt-mt323.dll
 0001:0001675e       ?heightForWidth@QWidget@@UBEHH@Z 1001775e f   qt-mt323:qt-mt323.dll
 0001:00016764       ?setSizePolicy@QWidget@@UAEXVQSizePolicy@@@Z 10017764 f   qt-mt323:qt-mt323.dll
 0001:0001676a       ?sizePolicy@QWidget@@UBE?AVQSizePolicy@@XZ 1001776a f   qt-mt323:qt-mt323.dll
 0001:00016770       ?minimumSizeHint@QWidget@@UBE?AVQSize@@XZ 10017770 f   qt-mt323:qt-mt323.dll
 0001:00016776       ?sizeHint@QWidget@@UBE?AVQSize@@XZ 10017776 f   qt-mt323:qt-mt323.dll
 0001:0001677c       ?setGeometry@QWidget@@UAEXHHHH@Z 1001777c f   qt-mt323:qt-mt323.dll
 0001:00016782       ?setGeometry@QWidget@@UAEXABVQRect@@@Z 10017782 f   qt-mt323:qt-mt323.dll
 0001:00016788       ?resize@QWidget@@UAEXHH@Z  10017788 f   qt-mt323:qt-mt323.dll
 0001:0001678e       ?move@QWidget@@UAEXHH@Z    1001778e f   qt-mt323:qt-mt323.dll
 0001:00016794       ?close@QWidget@@UAE_N_N@Z  10017794 f   qt-mt323:qt-mt323.dll
 0001:0001679a       ?polish@QWidget@@UAEXXZ    1001779a f   qt-mt323:qt-mt323.dll
 0001:000167a0       ?showNormal@QWidget@@UAEXXZ 100177a0 f   qt-mt323:qt-mt323.dll
 0001:000167a6       ?showMaximized@QWidget@@UAEXXZ 100177a6 f   qt-mt323:qt-mt323.dll
 0001:000167ac       ?showMinimized@QWidget@@UAEXXZ 100177ac f   qt-mt323:qt-mt323.dll
 0001:000167b2       ?hide@QWidget@@UAEXXZ      100177b2 f   qt-mt323:qt-mt323.dll
 0001:000167b8       ?show@QWidget@@UAEXXZ      100177b8 f   qt-mt323:qt-mt323.dll
 0001:000167be       ?setUpdatesEnabled@QWidget@@UAEX_N@Z 100177be f   qt-mt323:qt-mt323.dll
 0001:000167c4       ?setFocusProxy@QWidget@@UAEXPAV1@@Z 100177c4 f   qt-mt323:qt-mt323.dll
 0001:000167ca       ?setFocusPolicy@QWidget@@UAEXW4FocusPolicy@1@@Z 100177ca f   qt-mt323:qt-mt323.dll
 0001:000167d0       ?setActiveWindow@QWidget@@UAEXXZ 100177d0 f   qt-mt323:qt-mt323.dll
 0001:000167d6       ?setFocus@QWidget@@UAEXXZ  100177d6 f   qt-mt323:qt-mt323.dll
 0001:000167dc       ?setMouseTracking@QWidget@@UAEX_N@Z 100177dc f   qt-mt323:qt-mt323.dll
 0001:000167e2       ?setIconText@QWidget@@UAEXABVQString@@@Z 100177e2 f   qt-mt323:qt-mt323.dll
 0001:000167e8       ?setIcon@QWidget@@UAEXABVQPixmap@@@Z 100177e8 f   qt-mt323:qt-mt323.dll
 0001:000167ee       ?setBackgroundPixmap@QWidget@@UAEXABVQPixmap@@@Z 100177ee f   qt-mt323:qt-mt323.dll
 0001:000167f4       ?setBackgroundColor@QWidget@@UAEXABVQColor@@@Z 100177f4 f   qt-mt323:qt-mt323.dll
 0001:000167fa       ?setMask@QWidget@@UAEXABVQBitmap@@@Z 100177fa f   qt-mt323:qt-mt323.dll
 0001:00016800       ?setMask@QWidget@@UAEXABVQRegion@@@Z 10017800 f   qt-mt323:qt-mt323.dll
 0001:00016806       ?unsetCursor@QWidget@@UAEXXZ 10017806 f   qt-mt323:qt-mt323.dll
 0001:0001680c       ?setCursor@QWidget@@UAEXABVQCursor@@@Z 1001780c f   qt-mt323:qt-mt323.dll
 0001:00016812       ?setFont@QWidget@@UAEXABVQFont@@@Z 10017812 f   qt-mt323:qt-mt323.dll
 0001:00016818       ?setPaletteBackgroundPixmap@QWidget@@UAEXABVQPixmap@@@Z 10017818 f   qt-mt323:qt-mt323.dll
 0001:0001681e       ?setPaletteBackgroundColor@QWidget@@UAEXABVQColor@@@Z 1001781e f   qt-mt323:qt-mt323.dll
 0001:00016824       ?setPalette@QWidget@@UAEXABVQPalette@@@Z 10017824 f   qt-mt323:qt-mt323.dll
 0001:0001682a       ?setErasePixmap@QWidget@@UAEXABVQPixmap@@@Z 1001782a f   qt-mt323:qt-mt323.dll
 0001:00016830       ?setEraseColor@QWidget@@UAEXABVQColor@@@Z 10017830 f   qt-mt323:qt-mt323.dll
 0001:00016836       ?setBackgroundMode@QWidget@@UAEXW4BackgroundMode@Qt@@@Z 10017836 f   qt-mt323:qt-mt323.dll
 0001:0001683c       ?setSizeIncrement@QWidget@@UAEXHH@Z 1001783c f   qt-mt323:qt-mt323.dll
 0001:00016842       ?setMaximumSize@QWidget@@UAEXHH@Z 10017842 f   qt-mt323:qt-mt323.dll
 0001:00016848       ?setMinimumSize@QWidget@@UAEXHH@Z 10017848 f   qt-mt323:qt-mt323.dll
 0001:0001684e       ?setEnabled@QWidget@@UAEX_N@Z 1001784e f   qt-mt323:qt-mt323.dll
 0001:00016854       ?checkConnectArgs@QObject@@MAE_NPBDPBV1@0@Z 10017854 f   qt-mt323:qt-mt323.dll
 0001:0001685a       ?disconnectNotify@QObject@@MAEXPBD@Z 1001785a f   qt-mt323:qt-mt323.dll
 0001:00016860       ?connectNotify@QObject@@MAEXPBD@Z 10017860 f   qt-mt323:qt-mt323.dll
 0001:00016866       ?customEvent@QObject@@MAEXPAVQCustomEvent@@@Z 10017866 f   qt-mt323:qt-mt323.dll
 0001:0001686c       ?childEvent@QObject@@MAEXPAVQChildEvent@@@Z 1001786c f   qt-mt323:qt-mt323.dll
 0001:00016872       ?timerEvent@QObject@@MAEXPAVQTimerEvent@@@Z 10017872 f   qt-mt323:qt-mt323.dll
 0001:00016878       ?property@QObject@@UBE?AVQVariant@@PBD@Z 10017878 f   qt-mt323:qt-mt323.dll
 0001:0001687e       ?setProperty@QObject@@UAE_NPBDABVQVariant@@@Z 1001787e f   qt-mt323:qt-mt323.dll
 0001:00016884       ?removeChild@QObject@@UAEXPAV1@@Z 10017884 f   qt-mt323:qt-mt323.dll
 0001:0001688a       ?insertChild@QObject@@UAEXPAV1@@Z 1001788a f   qt-mt323:qt-mt323.dll
 0001:00016890       ?setName@QWidget@@UAEXPBD@Z 10017890 f   qt-mt323:qt-mt323.dll
 0001:00016896       ?eventFilter@QObject@@UAE_NPAV1@PAVQEvent@@@Z 10017896 f   qt-mt323:qt-mt323.dll
 0001:0001689c       ?event@QWidget@@MAE_NPAVQEvent@@@Z 1001789c f   qt-mt323:qt-mt323.dll
 0001:000168a2       ?contextMenuEvent@QWidget@@MAEXPAVQContextMenuEvent@@@Z 100178a2 f   qt-mt323:qt-mt323.dll
 0001:000168a8       ?reject@QDialog@@MAEXXZ    100178a8 f   qt-mt323:qt-mt323.dll
 0001:000168ae       ?accept@QDialog@@MAEXXZ    100178ae f   qt-mt323:qt-mt323.dll
 0001:000168b4       ?done@QDialog@@MAEXH@Z     100178b4 f   qt-mt323:qt-mt323.dll
 0001:000168ba       ?contextMenuEvent@QDialog@@MAEXPAVQContextMenuEvent@@@Z 100178ba f   qt-mt323:qt-mt323.dll
 0001:000168c0       ?closeEvent@QDialog@@MAEXPAVQCloseEvent@@@Z 100178c0 f   qt-mt323:qt-mt323.dll
 0001:000168c6       ?resizeEvent@QDialog@@MAEXPAVQResizeEvent@@@Z 100178c6 f   qt-mt323:qt-mt323.dll
 0001:000168cc       ?paintEvent@QWidget@@MAEXPAVQPaintEvent@@@Z 100178cc f   qt-mt323:qt-mt323.dll
 0001:000168d2       ?keyPressEvent@QDialog@@MAEXPAVQKeyEvent@@@Z 100178d2 f   qt-mt323:qt-mt323.dll
 0001:000168d8       ?mouseReleaseEvent@QWidget@@MAEXPAVQMouseEvent@@@Z 100178d8 f   qt-mt323:qt-mt323.dll
 0001:000168de       ?mousePressEvent@QWidget@@MAEXPAVQMouseEvent@@@Z 100178de f   qt-mt323:qt-mt323.dll
 0001:000168e4       ?minimumSizeHint@QDialog@@UBE?AVQSize@@XZ 100178e4 f   qt-mt323:qt-mt323.dll
 0001:000168ea       ?sizeHint@QDialog@@UBE?AVQSize@@XZ 100178ea f   qt-mt323:qt-mt323.dll
 0001:000168f0       ?setGeometry@QDialog@@UAEXHHHH@Z 100178f0 f   qt-mt323:qt-mt323.dll
 0001:000168f6       ?setGeometry@QDialog@@UAEXABVQRect@@@Z 100178f6 f   qt-mt323:qt-mt323.dll
 0001:000168fc       ?resize@QDialog@@UAEXHH@Z  100178fc f   qt-mt323:qt-mt323.dll
 0001:00016902       ?move@QDialog@@UAEXHH@Z    10017902 f   qt-mt323:qt-mt323.dll
 0001:00016908       ?hide@QDialog@@UAEXXZ      10017908 f   qt-mt323:qt-mt323.dll
 0001:0001690e       ?show@QDialog@@UAEXXZ      1001790e f   qt-mt323:qt-mt323.dll
 0001:00016914       ?setCaption@QWidget@@UAEXABVQString@@@Z 10017914 f   qt-mt323:qt-mt323.dll
 0001:0001691a       ?eventFilter@QDialog@@MAE_NPAVQObject@@PAVQEvent@@@Z 1001791a f   qt-mt323:qt-mt323.dll
 0001:00016920       ?setAttribute@QDomElement@@QAEXABVQString@@0@Z 10017920 f   qt-mt323:qt-mt323.dll
 0001:00016926       ?nextSibling@QDomNode@@UBE?AV1@XZ 10017926 f   qt-mt323:qt-mt323.dll
 0001:0001692c       ?toElement@QDomNode@@QAE?AVQDomElement@@XZ 1001792c f   qt-mt323:qt-mt323.dll
 0001:00016932       ?attribute@QDomElement@@QBE?AVQString@@ABV2@0@Z 10017932 f   qt-mt323:qt-mt323.dll
 0001:00016938       ??1QDomNode@@UAE@XZ        10017938 f   qt-mt323:qt-mt323.dll
 0001:0001693e       ?isNull@QDomNode@@QBE_NXZ  1001793e f   qt-mt323:qt-mt323.dll
 0001:00016944       ?firstChild@QDomNode@@UBE?AV1@XZ 10017944 f   qt-mt323:qt-mt323.dll
 0001:0001694a       ??1QDomElement@@UAE@XZ     1001794a f   qt-mt323:qt-mt323.dll
 0001:00016950       ?tagName@QDomElement@@QBE?AVQString@@XZ 10017950 f   qt-mt323:qt-mt323.dll
 0001:00016956       ?isComment@QDomNode@@UBE_NXZ 10017956 f   qt-mt323:qt-mt323.dll
 0001:0001695c       ?isCharacterData@QDomNode@@UBE_NXZ 1001795c f   qt-mt323:qt-mt323.dll
 0001:00016962       ?isProcessingInstruction@QDomNode@@UBE_NXZ 10017962 f   qt-mt323:qt-mt323.dll
 0001:00016968       ?isNotation@QDomNode@@UBE_NXZ 10017968 f   qt-mt323:qt-mt323.dll
 0001:0001696e       ?isEntity@QDomNode@@UBE_NXZ 1001796e f   qt-mt323:qt-mt323.dll
 0001:00016974       ?isText@QDomNode@@UBE_NXZ  10017974 f   qt-mt323:qt-mt323.dll
 0001:0001697a       ?isEntityReference@QDomNode@@UBE_NXZ 1001797a f   qt-mt323:qt-mt323.dll
 0001:00016980       ?isElement@QDomNode@@UBE_NXZ 10017980 f   qt-mt323:qt-mt323.dll
 0001:00016986       ?isDocumentType@QDomNode@@UBE_NXZ 10017986 f   qt-mt323:qt-mt323.dll
 0001:0001698c       ?isDocument@QDomDocument@@UBE_NXZ 1001798c f   qt-mt323:qt-mt323.dll
 0001:00016992       ?isDocumentFragment@QDomNode@@UBE_NXZ 10017992 f   qt-mt323:qt-mt323.dll
 0001:00016998       ?isCDATASection@QDomNode@@UBE_NXZ 10017998 f   qt-mt323:qt-mt323.dll
 0001:0001699e       ?isAttr@QDomNode@@UBE_NXZ  1001799e f   qt-mt323:qt-mt323.dll
 0001:000169a4       ?setPrefix@QDomNode@@UAEXABVQString@@@Z 100179a4 f   qt-mt323:qt-mt323.dll
 0001:000169aa       ?prefix@QDomNode@@UBE?AVQString@@XZ 100179aa f   qt-mt323:qt-mt323.dll
 0001:000169b0       ?setNodeValue@QDomNode@@UAEXABVQString@@@Z 100179b0 f   qt-mt323:qt-mt323.dll
 0001:000169b6       ?nodeValue@QDomNode@@UBE?AVQString@@XZ 100179b6 f   qt-mt323:qt-mt323.dll
 0001:000169bc       ?hasAttributes@QDomNode@@UBE_NXZ 100179bc f   qt-mt323:qt-mt323.dll
 0001:000169c2       ?localName@QDomNode@@UBE?AVQString@@XZ 100179c2 f   qt-mt323:qt-mt323.dll
 0001:000169c8       ?namespaceURI@QDomNode@@UBE?AVQString@@XZ 100179c8 f   qt-mt323:qt-mt323.dll
 0001:000169ce       ?ownerDocument@QDomNode@@UBE?AVQDomDocument@@XZ 100179ce f   qt-mt323:qt-mt323.dll
 0001:000169d4       ?attributes@QDomNode@@UBE?AVQDomNamedNodeMap@@XZ 100179d4 f   qt-mt323:qt-mt323.dll
 0001:000169da       ?previousSibling@QDomNode@@UBE?AV1@XZ 100179da f   qt-mt323:qt-mt323.dll
 0001:000169e0       ?lastChild@QDomNode@@UBE?AV1@XZ 100179e0 f   qt-mt323:qt-mt323.dll
 0001:000169e6       ?childNodes@QDomNode@@UBE?AVQDomNodeList@@XZ 100179e6 f   qt-mt323:qt-mt323.dll
 0001:000169ec       ?parentNode@QDomNode@@UBE?AV1@XZ 100179ec f   qt-mt323:qt-mt323.dll
 0001:000169f2       ?nodeType@QDomDocument@@UBE?AW4NodeType@QDomNode@@XZ 100179f2 f   qt-mt323:qt-mt323.dll
 0001:000169f8       ?nodeName@QDomNode@@UBE?AVQString@@XZ 100179f8 f   qt-mt323:qt-mt323.dll
 0001:000169fe       ?isSupported@QDomNode@@UBE_NABVQString@@0@Z 100179fe f   qt-mt323:qt-mt323.dll
 0001:00016a04       ?normalize@QDomNode@@UAEXXZ 10017a04 f   qt-mt323:qt-mt323.dll
 0001:00016a0a       ?cloneNode@QDomNode@@UBE?AV1@_N@Z 10017a0a f   qt-mt323:qt-mt323.dll
 0001:00016a10       ?hasChildNodes@QDomNode@@UBE_NXZ 10017a10 f   qt-mt323:qt-mt323.dll
 0001:00016a16       ?appendChild@QDomNode@@UAE?AV1@ABV1@@Z 10017a16 f   qt-mt323:qt-mt323.dll
 0001:00016a1c       ?removeChild@QDomNode@@UAE?AV1@ABV1@@Z 10017a1c f   qt-mt323:qt-mt323.dll
 0001:00016a22       ?replaceChild@QDomNode@@UAE?AV1@ABV1@0@Z 10017a22 f   qt-mt323:qt-mt323.dll
 0001:00016a28       ?insertAfter@QDomNode@@UAE?AV1@ABV1@0@Z 10017a28 f   qt-mt323:qt-mt323.dll
 0001:00016a2e       ?insertBefore@QDomNode@@UAE?AV1@ABV1@0@Z 10017a2e f   qt-mt323:qt-mt323.dll
 0001:00016a34       ??1QDomDocument@@UAE@XZ    10017a34 f   qt-mt323:qt-mt323.dll
 0001:00016a3a       ?spacerItem@QSpacerItem@@UAEPAV1@XZ 10017a3a f   qt-mt323:qt-mt323.dll
 0001:00016a40       ?layout@QLayoutItem@@UAEPAVQLayout@@XZ 10017a40 f   qt-mt323:qt-mt323.dll
 0001:00016a46       ?iterator@QLayoutItem@@UAE?AVQLayoutIterator@@XZ 10017a46 f   qt-mt323:qt-mt323.dll
 0001:00016a4c       ?invalidate@QLayoutItem@@UAEXXZ 10017a4c f   qt-mt323:qt-mt323.dll
 0001:00016a52       ?heightForWidth@QLayoutItem@@UBEHH@Z 10017a52 f   qt-mt323:qt-mt323.dll
 0001:00016a58       ?hasHeightForWidth@QLayoutItem@@UBE_NXZ 10017a58 f   qt-mt323:qt-mt323.dll
 0001:00016a5e       ?isEmpty@QSpacerItem@@UBE_NXZ 10017a5e f   qt-mt323:qt-mt323.dll
 0001:00016a64       ?geometry@QSpacerItem@@UBE?AVQRect@@XZ 10017a64 f   qt-mt323:qt-mt323.dll
 0001:00016a6a       ?setGeometry@QSpacerItem@@UAEXABVQRect@@@Z 10017a6a f   qt-mt323:qt-mt323.dll
 0001:00016a70       ?expanding@QSpacerItem@@UBE?AW4ExpandData@QSizePolicy@@XZ 10017a70 f   qt-mt323:qt-mt323.dll
 0001:00016a76       ?maximumSize@QSpacerItem@@UBE?AVQSize@@XZ 10017a76 f   qt-mt323:qt-mt323.dll
 0001:00016a7c       ?minimumSize@QSpacerItem@@UBE?AVQSize@@XZ 10017a7c f   qt-mt323:qt-mt323.dll
 0001:00016a82       ?sizeHint@QSpacerItem@@UBE?AVQSize@@XZ 10017a82 f   qt-mt323:qt-mt323.dll
 0001:00016a88       ?setOn@QPushButton@@UAEX_N@Z 10017a88 f   qt-mt323:qt-mt323.dll
 0001:00016a8e       ?setIsMenuButton@QPushButton@@UAEX_N@Z 10017a8e f   qt-mt323:qt-mt323.dll
 0001:00016a94       ?setDefault@QPushButton@@UAEX_N@Z 10017a94 f   qt-mt323:qt-mt323.dll
 0001:00016a9a       ?setAutoDefault@QPushButton@@UAEX_N@Z 10017a9a f   qt-mt323:qt-mt323.dll
 0001:00016aa0       ?drawButtonLabel@QPushButton@@MAEXPAVQPainter@@@Z 10017aa0 f   qt-mt323:qt-mt323.dll
 0001:00016aa6       ?drawButton@QPushButton@@MAEXPAVQPainter@@@Z 10017aa6 f   qt-mt323:qt-mt323.dll
 0001:00016aac       ?hitButton@QButton@@MBE_NABVQPoint@@@Z 10017aac f   qt-mt323:qt-mt323.dll
 0001:00016ab2       ?updateMask@QPushButton@@MAEXXZ 10017ab2 f   qt-mt323:qt-mt323.dll
 0001:00016ab8       ?resizeEvent@QPushButton@@MAEXPAVQResizeEvent@@@Z 10017ab8 f   qt-mt323:qt-mt323.dll
 0001:00016abe       ?focusOutEvent@QPushButton@@MAEXPAVQFocusEvent@@@Z 10017abe f   qt-mt323:qt-mt323.dll
 0001:00016ac4       ?focusInEvent@QPushButton@@MAEXPAVQFocusEvent@@@Z 10017ac4 f   qt-mt323:qt-mt323.dll
 0001:00016aca       ?sizeHint@QPushButton@@UBE?AVQSize@@XZ 10017aca f   qt-mt323:qt-mt323.dll
 0001:00016ad0       ?setGeometry@QPushButton@@UAEXHHHH@Z 10017ad0 f   qt-mt323:qt-mt323.dll
 0001:00016ad6       ?setGeometry@QPushButton@@UAEXABVQRect@@@Z 10017ad6 f   qt-mt323:qt-mt323.dll
 0001:00016adc       ?resize@QPushButton@@UAEXHH@Z 10017adc f   qt-mt323:qt-mt323.dll
 0001:00016ae2       ?move@QPushButton@@UAEXHH@Z 10017ae2 f   qt-mt323:qt-mt323.dll
 0001:00016ae8       ?qt_property@QPushButton@@UAE_NHHPAVQVariant@@@Z 10017ae8 f   qt-mt323:qt-mt323.dll
 0001:00016aee       ?qt_emit@QPushButton@@UAE_NHPAUQUObject@@@Z 10017aee f   qt-mt323:qt-mt323.dll
 0001:00016af4       ?qt_invoke@QPushButton@@UAE_NHPAUQUObject@@@Z 10017af4 f   qt-mt323:qt-mt323.dll
 0001:00016afa       ?qt_cast@QPushButton@@UAEPAXPBD@Z 10017afa f   qt-mt323:qt-mt323.dll
 0001:00016b00       ?className@QPushButton@@UBEPBDXZ 10017b00 f   qt-mt323:qt-mt323.dll
 0001:00016b06       ?metaObject@QPushButton@@UBEPAVQMetaObject@@XZ 10017b06 f   qt-mt323:qt-mt323.dll
 0001:00016b0c       ?setGroup@QButton@@EAEXPAVQButtonGroup@@@Z 10017b0c f   qt-mt323:qt-mt323.dll
 0001:00016b12       ?drawButtonLabel@QCheckBox@@MAEXPAVQPainter@@@Z 10017b12 f   qt-mt323:qt-mt323.dll
 0001:00016b18       ?drawButton@QCheckBox@@MAEXPAVQPainter@@@Z 10017b18 f   qt-mt323:qt-mt323.dll
 0001:00016b1e       ?hitButton@QCheckBox@@MBE_NABVQPoint@@@Z 10017b1e f   qt-mt323:qt-mt323.dll
 0001:00016b24       ?setState@QButton@@MAEXW4ToggleState@1@@Z 10017b24 f   qt-mt323:qt-mt323.dll
 0001:00016b2a       ?setToggleType@QButton@@MAEXW4ToggleType@1@@Z 10017b2a f   qt-mt323:qt-mt323.dll
 0001:00016b30       ?setAutoRepeat@QButton@@UAEX_N@Z 10017b30 f   qt-mt323:qt-mt323.dll
 0001:00016b36       ?setDown@QButton@@UAEX_N@Z 10017b36 f   qt-mt323:qt-mt323.dll
 0001:00016b3c       ?setAccel@QButton@@UAEXABVQKeySequence@@@Z 10017b3c f   qt-mt323:qt-mt323.dll
 0001:00016b42       ?setPixmap@QButton@@UAEXABVQPixmap@@@Z 10017b42 f   qt-mt323:qt-mt323.dll
 0001:00016b48       ?setText@QButton@@UAEXABVQString@@@Z 10017b48 f   qt-mt323:qt-mt323.dll
 0001:00016b4e       ?enabledChange@QButton@@MAEX_N@Z 10017b4e f   qt-mt323:qt-mt323.dll
 0001:00016b54       ?updateMask@QCheckBox@@MAEXXZ 10017b54 f   qt-mt323:qt-mt323.dll
 0001:00016b5a       ?resizeEvent@QCheckBox@@MAEXPAVQResizeEvent@@@Z 10017b5a f   qt-mt323:qt-mt323.dll
 0001:00016b60       ?paintEvent@QButton@@MAEXPAVQPaintEvent@@@Z 10017b60 f   qt-mt323:qt-mt323.dll
 0001:00016b66       ?focusOutEvent@QButton@@MAEXPAVQFocusEvent@@@Z 10017b66 f   qt-mt323:qt-mt323.dll
 0001:00016b6c       ?focusInEvent@QButton@@MAEXPAVQFocusEvent@@@Z 10017b6c f   qt-mt323:qt-mt323.dll
 0001:00016b72       ?keyReleaseEvent@QButton@@MAEXPAVQKeyEvent@@@Z 10017b72 f   qt-mt323:qt-mt323.dll
 0001:00016b78       ?keyPressEvent@QButton@@MAEXPAVQKeyEvent@@@Z 10017b78 f   qt-mt323:qt-mt323.dll
 0001:00016b7e       ?mouseMoveEvent@QButton@@MAEXPAVQMouseEvent@@@Z 10017b7e f   qt-mt323:qt-mt323.dll
 0001:00016b84       ?mouseReleaseEvent@QButton@@MAEXPAVQMouseEvent@@@Z 10017b84 f   qt-mt323:qt-mt323.dll
 0001:00016b8a       ?mousePressEvent@QButton@@MAEXPAVQMouseEvent@@@Z 10017b8a f   qt-mt323:qt-mt323.dll
 0001:00016b90       ?sizeHint@QCheckBox@@UBE?AVQSize@@XZ 10017b90 f   qt-mt323:qt-mt323.dll
 0001:00016b96       ?qt_property@QCheckBox@@UAE_NHHPAVQVariant@@@Z 10017b96 f   qt-mt323:qt-mt323.dll
 0001:00016b9c       ?qt_emit@QCheckBox@@UAE_NHPAUQUObject@@@Z 10017b9c f   qt-mt323:qt-mt323.dll
 0001:00016ba2       ?qt_invoke@QCheckBox@@UAE_NHPAUQUObject@@@Z 10017ba2 f   qt-mt323:qt-mt323.dll
 0001:00016ba8       ?qt_cast@QCheckBox@@UAEPAXPBD@Z 10017ba8 f   qt-mt323:qt-mt323.dll
 0001:00016bae       ?className@QCheckBox@@UBEPBDXZ 10017bae f   qt-mt323:qt-mt323.dll
 0001:00016bb4       ?metaObject@QCheckBox@@UBEPAVQMetaObject@@XZ 10017bb4 f   qt-mt323:qt-mt323.dll
 0001:00016bba       ?emitLinkClicked@QTextEdit@@EAEXABVQString@@@Z 10017bba f   qt-mt323:qt-mt323.dll
 0001:00016bc0       ?emitHighlighted@QTextEdit@@EAEXABVQString@@@Z 10017bc0 f   qt-mt323:qt-mt323.dll
 0001:00016bc6       ?linksEnabled@QTextEdit@@EBE_NXZ 10017bc6 f   qt-mt323:qt-mt323.dll
 0001:00016bcc       ?doChangeInterval@QTextEdit@@MAEXXZ 10017bcc f   qt-mt323:qt-mt323.dll
 0001:00016bd2       ?createPopupMenu@QTextEdit@@MAEPAVQPopupMenu@@ABVQPoint@@@Z 10017bd2 f   qt-mt323:qt-mt323.dll
 0001:00016bd8       ?createPopupMenu@QTextEdit@@MAEPAVQPopupMenu@@XZ 10017bd8 f   qt-mt323:qt-mt323.dll
 0001:00016bde       ?setUndoRedoEnabled@QTextEdit@@UAEX_N@Z 10017bde f   qt-mt323:qt-mt323.dll
 0001:00016be4       ?clearParagraphBackground@QTextEdit@@UAEXH@Z 10017be4 f   qt-mt323:qt-mt323.dll
 0001:00016bea       ?setParagraphBackgroundColor@QTextEdit@@UAEXHABVQColor@@@Z 10017bea f   qt-mt323:qt-mt323.dll
 0001:00016bf0       ?insertParagraph@QTextEdit@@UAEXABVQString@@H@Z 10017bf0 f   qt-mt323:qt-mt323.dll
 0001:00016bf6       ?removeParagraph@QTextEdit@@UAEXH@Z 10017bf6 f   qt-mt323:qt-mt323.dll
 0001:00016bfc       ?insertAt@QTextEdit@@UAEXABVQString@@HH@Z 10017bfc f   qt-mt323:qt-mt323.dll
 0001:00016c02       ?insert@QTextEdit@@UAEXABVQString@@_N11@Z 10017c02 f   qt-mt323:qt-mt323.dll
 0001:00016c08       ?scrollToBottom@QTextEdit@@UAEXXZ 10017c08 f   qt-mt323:qt-mt323.dll
 0001:00016c0e       ?setOverwriteMode@QTextEdit@@UAEX_N@Z 10017c0e f   qt-mt323:qt-mt323.dll
 0001:00016c14       ?setCurrentFont@QTextEdit@@UAEXABVQFont@@@Z 10017c14 f   qt-mt323:qt-mt323.dll
 0001:00016c1a       ?removeSelection@QTextEdit@@UAEXH@Z 10017c1a f   qt-mt323:qt-mt323.dll
 0001:00016c20       ?removeSelectedText@QTextEdit@@UAEXH@Z 10017c20 f   qt-mt323:qt-mt323.dll
 0001:00016c26       ?doKeyboardAction@QTextEdit@@UAEXW4KeyboardAction@1@@Z 10017c26 f   qt-mt323:qt-mt323.dll
 0001:00016c2c       ?moveCursor@QTextEdit@@UAEXW4CursorAction@1@_N@Z 10017c2c f   qt-mt323:qt-mt323.dll
 0001:00016c32       ?placeCursor@QTextEdit@@UAEXABVQPoint@@PAVQTextCursor@@@Z 10017c32 f   qt-mt323:qt-mt323.dll
 0001:00016c38       ?ensureCursorVisible@QTextEdit@@UAEXXZ 10017c38 f   qt-mt323:qt-mt323.dll
 0001:00016c3e       ?setFormat@QTextEdit@@UAEXPAVQTextFormat@@H@Z 10017c3e f   qt-mt323:qt-mt323.dll
 0001:00016c44       ?setUndoDepth@QTextEdit@@UAEXH@Z 10017c44 f   qt-mt323:qt-mt323.dll
 0001:00016c4a       ?resetFormat@QTextEdit@@UAEXXZ 10017c4a f   qt-mt323:qt-mt323.dll
 0001:00016c50       ?setModified@QTextEdit@@UAEX_N@Z 10017c50 f   qt-mt323:qt-mt323.dll
 0001:00016c56       ?setSelectionAttributes@QTextEdit@@UAEXHABVQColor@@_N@Z 10017c56 f   qt-mt323:qt-mt323.dll
 0001:00016c5c       ?setSelection@QTextEdit@@UAEXHHHHH@Z 10017c5c f   qt-mt323:qt-mt323.dll
 0001:00016c62       ?setCursorPosition@QTextEdit@@UAEXHH@Z 10017c62 f   qt-mt323:qt-mt323.dll
 0001:00016c68       ?setParagType@QTextEdit@@UAEXW4DisplayMode@QStyleSheetItem@@W4ListStyle@3@@Z 10017c68 f   qt-mt323:qt-mt323.dll
 0001:00016c6e       ?setAlignment@QTextEdit@@UAEXH@Z 10017c6e f   qt-mt323:qt-mt323.dll
 0001:00016c74       ?setVerticalAlignment@QTextEdit@@UAEXW4VerticalAlignment@1@@Z 10017c74 f   qt-mt323:qt-mt323.dll
 0001:00016c7a       ?setColor@QTextEdit@@UAEXABVQColor@@@Z 10017c7a f   qt-mt323:qt-mt323.dll
 0001:00016c80       ?setPointSize@QTextEdit@@UAEXH@Z 10017c80 f   qt-mt323:qt-mt323.dll
 0001:00016c86       ?setFamily@QTextEdit@@UAEXABVQString@@@Z 10017c86 f   qt-mt323:qt-mt323.dll
 0001:00016c8c       ?setUnderline@QTextEdit@@UAEX_N@Z 10017c8c f   qt-mt323:qt-mt323.dll
 0001:00016c92       ?setBold@QTextEdit@@UAEX_N@Z 10017c92 f   qt-mt323:qt-mt323.dll
 0001:00016c98       ?setItalic@QTextEdit@@UAEX_N@Z 10017c98 f   qt-mt323:qt-mt323.dll
 0001:00016c9e       ?indent@QTextEdit@@UAEXXZ  10017c9e f   qt-mt323:qt-mt323.dll
 0001:00016ca4       ?del@QTextEdit@@UAEXXZ     10017ca4 f   qt-mt323:qt-mt323.dll
 0001:00016caa       ?clear@QTextEdit@@UAEXXZ   10017caa f   qt-mt323:qt-mt323.dll
 0001:00016cb0       ?pasteSubType@QTextEdit@@UAEXABVQCString@@@Z 10017cb0 f   qt-mt323:qt-mt323.dll
 0001:00016cb6       ?paste@QTextEdit@@UAEXXZ   10017cb6 f   qt-mt323:qt-mt323.dll
 0001:00016cbc       ?cut@QTextEdit@@UAEXXZ     10017cbc f   qt-mt323:qt-mt323.dll
 0001:00016cc2       ?redo@QTextEdit@@UAEXXZ    10017cc2 f   qt-mt323:qt-mt323.dll
 0001:00016cc8       ?undo@QTextEdit@@UAEXXZ    10017cc8 f   qt-mt323:qt-mt323.dll
 0001:00016cce       ?setReadOnly@QTextEdit@@UAEX_N@Z 10017cce f   qt-mt323:qt-mt323.dll
 0001:00016cd4       ?sync@QTextEdit@@UAEXXZ    10017cd4 f   qt-mt323:qt-mt323.dll
 0001:00016cda       ?zoomTo@QTextEdit@@UAEXH@Z 10017cda f   qt-mt323:qt-mt323.dll
 0001:00016ce0       ?zoomOut@QTextEdit@@UAEXH@Z 10017ce0 f   qt-mt323:qt-mt323.dll
 0001:00016ce6       ?zoomOut@QTextEdit@@UAEXXZ 10017ce6 f   qt-mt323:qt-mt323.dll
 0001:00016cec       ?zoomIn@QTextEdit@@UAEXH@Z 10017cec f   qt-mt323:qt-mt323.dll
 0001:00016cf2       ?zoomIn@QTextEdit@@UAEXXZ  10017cf2 f   qt-mt323:qt-mt323.dll
 0001:00016cf8       ?setTabStopWidth@QTextEdit@@UAEXH@Z 10017cf8 f   qt-mt323:qt-mt323.dll
 0001:00016cfe       ?selectAll@QTextEdit@@UAEX_N@Z 10017cfe f   qt-mt323:qt-mt323.dll
 0001:00016d04       ?setTextFormat@QTextEdit@@UAEXW4TextFormat@Qt@@@Z 10017d04 f   qt-mt323:qt-mt323.dll
 0001:00016d0a       ?setText@QTextEdit@@UAEXABVQString@@0@Z 10017d0a f   qt-mt323:qt-mt323.dll
 0001:00016d10       ?append@QTextEdit@@UAEXABVQString@@@Z 10017d10 f   qt-mt323:qt-mt323.dll
 0001:00016d16       ?copy@QTextEdit@@UAEXXZ    10017d16 f   qt-mt323:qt-mt323.dll
 0001:00016d1c       ?setWrapPolicy@QTextEdit@@UAEXW4WrapPolicy@1@@Z 10017d1c f   qt-mt323:qt-mt323.dll
 0001:00016d22       ?setWrapColumnOrWidth@QTextEdit@@UAEXH@Z 10017d22 f   qt-mt323:qt-mt323.dll
 0001:00016d28       ?setWordWrap@QTextEdit@@UAEXW4WordWrap@1@@Z 10017d28 f   qt-mt323:qt-mt323.dll
 0001:00016d2e       ?setLinkUnderline@QTextEdit@@UAEX_N@Z 10017d2e f   qt-mt323:qt-mt323.dll
 0001:00016d34       ?setPaper@QTextEdit@@UAEXABVQBrush@@@Z 10017d34 f   qt-mt323:qt-mt323.dll
 0001:00016d3a       ?scrollToAnchor@QTextEdit@@UAEXABVQString@@@Z 10017d3a f   qt-mt323:qt-mt323.dll
 0001:00016d40       ?setStyleSheet@QTextEdit@@UAEXPAVQStyleSheet@@@Z 10017d40 f   qt-mt323:qt-mt323.dll
 0001:00016d46       ?setMimeSourceFactory@QTextEdit@@UAEXPAVQMimeSourceFactory@@@Z 10017d46 f   qt-mt323:qt-mt323.dll
 0001:00016d4c       ?getParagraphFormat@QTextEdit@@UAE_NHPAVQFont@@PAVQColor@@PAW4VerticalAlignment@1@PAHPAW4DisplayMode@QStyleSheetItem@@PAW4ListStyle@6@3@Z 10017d4c f   qt-mt323:qt-mt323.dll
 0001:00016d52       ?getFormat@QTextEdit@@UAE_NHHPAVQFont@@PAVQColor@@PAW4VerticalAlignment@1@@Z 10017d52 f   qt-mt323:qt-mt323.dll
 0001:00016d58       ?find@QTextEdit@@UAE_NABVQString@@_N11PAH2@Z 10017d58 f   qt-mt323:qt-mt323.dll
 0001:00016d5e       ?setVBarGeometry@QScrollView@@MAEXAAVQScrollBar@@HHHH@Z 10017d5e f   qt-mt323:qt-mt323.dll
 0001:00016d64       ?setHBarGeometry@QScrollView@@MAEXAAVQScrollBar@@HHHH@Z 10017d64 f   qt-mt323:qt-mt323.dll
 0001:00016d6a       ?setMargins@QScrollView@@MAEXHHHH@Z 10017d6a f   qt-mt323:qt-mt323.dll
 0001:00016d70       ?viewportContextMenuEvent@QScrollView@@MAEXPAVQContextMenuEvent@@@Z 10017d70 f   qt-mt323:qt-mt323.dll
 0001:00016d76       ?viewportWheelEvent@QScrollView@@MAEXPAVQWheelEvent@@@Z 10017d76 f   qt-mt323:qt-mt323.dll
 0001:00016d7c       ?viewportDropEvent@QScrollView@@MAEXPAVQDropEvent@@@Z 10017d7c f   qt-mt323:qt-mt323.dll
 0001:00016d82       ?viewportDragLeaveEvent@QScrollView@@MAEXPAVQDragLeaveEvent@@@Z 10017d82 f   qt-mt323:qt-mt323.dll
 0001:00016d88       ?viewportDragMoveEvent@QScrollView@@MAEXPAVQDragMoveEvent@@@Z 10017d88 f   qt-mt323:qt-mt323.dll
 0001:00016d8e       ?viewportDragEnterEvent@QScrollView@@MAEXPAVQDragEnterEvent@@@Z 10017d8e f   qt-mt323:qt-mt323.dll
 0001:00016d94       ?viewportMouseMoveEvent@QScrollView@@MAEXPAVQMouseEvent@@@Z 10017d94 f   qt-mt323:qt-mt323.dll
 0001:00016d9a       ?viewportMouseDoubleClickEvent@QScrollView@@MAEXPAVQMouseEvent@@@Z 10017d9a f   qt-mt323:qt-mt323.dll
 0001:00016da0       ?viewportMouseReleaseEvent@QScrollView@@MAEXPAVQMouseEvent@@@Z 10017da0 f   qt-mt323:qt-mt323.dll
 0001:00016da6       ?viewportMousePressEvent@QScrollView@@MAEXPAVQMouseEvent@@@Z 10017da6 f   qt-mt323:qt-mt323.dll
 0001:00016dac       ?viewportResizeEvent@QTextEdit@@MAEXPAVQResizeEvent@@@Z 10017dac f   qt-mt323:qt-mt323.dll
 0001:00016db2       ?viewportPaintEvent@QScrollView@@MAEXPAVQPaintEvent@@@Z 10017db2 f   qt-mt323:qt-mt323.dll
 0001:00016db8       ?contentsContextMenuEvent@QTextEdit@@MAEXPAVQContextMenuEvent@@@Z 10017db8 f   qt-mt323:qt-mt323.dll
 0001:00016dbe       ?contentsWheelEvent@QTextEdit@@MAEXPAVQWheelEvent@@@Z 10017dbe f   qt-mt323:qt-mt323.dll
 0001:00016dc4       ?contentsDropEvent@QTextEdit@@MAEXPAVQDropEvent@@@Z 10017dc4 f   qt-mt323:qt-mt323.dll
 0001:00016dca       ?contentsDragLeaveEvent@QTextEdit@@MAEXPAVQDragLeaveEvent@@@Z 10017dca f   qt-mt323:qt-mt323.dll
 0001:00016dd0       ?contentsDragMoveEvent@QTextEdit@@MAEXPAVQDragMoveEvent@@@Z 10017dd0 f   qt-mt323:qt-mt323.dll
 0001:00016dd6       ?contentsDragEnterEvent@QTextEdit@@MAEXPAVQDragEnterEvent@@@Z 10017dd6 f   qt-mt323:qt-mt323.dll
 0001:00016ddc       ?contentsMouseMoveEvent@QTextEdit@@MAEXPAVQMouseEvent@@@Z 10017ddc f   qt-mt323:qt-mt323.dll
 0001:00016de2       ?contentsMouseDoubleClickEvent@QTextEdit@@MAEXPAVQMouseEvent@@@Z 10017de2 f   qt-mt323:qt-mt323.dll
 0001:00016de8       ?contentsMouseReleaseEvent@QTextEdit@@MAEXPAVQMouseEvent@@@Z 10017de8 f   qt-mt323:qt-mt323.dll
 0001:00016dee       ?contentsMousePressEvent@QTextEdit@@MAEXPAVQMouseEvent@@@Z 10017dee f   qt-mt323:qt-mt323.dll
 0001:00016df4       ?drawContentsOffset@QScrollView@@MAEXPAVQPainter@@HHHHHH@Z 10017df4 f   qt-mt323:qt-mt323.dll
 0001:00016dfa       ?drawContents@QTextEdit@@MAEXPAVQPainter@@HHHH@Z 10017dfa f   qt-mt323:qt-mt323.dll
 0001:00016e00       ?setContentsPos@QScrollView@@UAEXHH@Z 10017e00 f   qt-mt323:qt-mt323.dll
 0001:00016e06       ?resizeContents@QScrollView@@UAEXHH@Z 10017e06 f   qt-mt323:qt-mt323.dll
 0001:00016e0c       ?setDragAutoScroll@QScrollView@@UAEX_N@Z 10017e0c f   qt-mt323:qt-mt323.dll
 0001:00016e12       ?setCornerWidget@QScrollView@@UAEXPAVQWidget@@@Z 10017e12 f   qt-mt323:qt-mt323.dll
 0001:00016e18       ?setHScrollBarMode@QScrollView@@UAEXW4ScrollBarMode@1@@Z 10017e18 f   qt-mt323:qt-mt323.dll
 0001:00016e1e       ?setVScrollBarMode@QScrollView@@UAEXW4ScrollBarMode@1@@Z 10017e1e f   qt-mt323:qt-mt323.dll
 0001:00016e24       ?moveChild@QScrollView@@UAEXPAVQWidget@@HH@Z 10017e24 f   qt-mt323:qt-mt323.dll
 0001:00016e2a       ?addChild@QScrollView@@UAEXPAVQWidget@@HH@Z 10017e2a f   qt-mt323:qt-mt323.dll
 0001:00016e30       ?setResizePolicy@QScrollView@@UAEXW4ResizePolicy@1@@Z 10017e30 f   qt-mt323:qt-mt323.dll
 0001:00016e36       ?frameChanged@QScrollView@@MAEXXZ 10017e36 f   qt-mt323:qt-mt323.dll
 0001:00016e3c       ?drawContents@QTextEdit@@EAEXPAVQPainter@@@Z 10017e3c f   qt-mt323:qt-mt323.dll
 0001:00016e42       ?drawFrame@QFrame@@MAEXPAVQPainter@@@Z 10017e42 f   qt-mt323:qt-mt323.dll
 0001:00016e48       ?setFrameRect@QFrame@@UAEXABVQRect@@@Z 10017e48 f   qt-mt323:qt-mt323.dll
 0001:00016e4e       ?setMidLineWidth@QFrame@@UAEXH@Z 10017e4e f   qt-mt323:qt-mt323.dll
 0001:00016e54       ?setMargin@QFrame@@UAEXH@Z 10017e54 f   qt-mt323:qt-mt323.dll
 0001:00016e5a       ?setLineWidth@QFrame@@UAEXH@Z 10017e5a f   qt-mt323:qt-mt323.dll
 0001:00016e60       ?setFrameStyle@QFrame@@UAEXH@Z 10017e60 f   qt-mt323:qt-mt323.dll
 0001:00016e66       ?focusNextPrevChild@QTextEdit@@MAE_N_N@Z 10017e66 f   qt-mt323:qt-mt323.dll
 0001:00016e6c       ?windowActivationChange@QTextEdit@@MAEX_N@Z 10017e6c f   qt-mt323:qt-mt323.dll
 0001:00016e72       ?fontChange@QScrollView@@MAEXABVQFont@@@Z 10017e72 f   qt-mt323:qt-mt323.dll
 0001:00016e78       ?styleChange@QScrollView@@UAEXAAVQStyle@@@Z 10017e78 f   qt-mt323:qt-mt323.dll
 0001:00016e7e       ?imEndEvent@QTextEdit@@MAEXPAVQIMEvent@@@Z 10017e7e f   qt-mt323:qt-mt323.dll
 0001:00016e84       ?imComposeEvent@QTextEdit@@MAEXPAVQIMEvent@@@Z 10017e84 f   qt-mt323:qt-mt323.dll
 0001:00016e8a       ?imStartEvent@QTextEdit@@MAEXPAVQIMEvent@@@Z 10017e8a f   qt-mt323:qt-mt323.dll
 0001:00016e90       ?contextMenuEvent@QScrollView@@MAEXPAVQContextMenuEvent@@@Z 10017e90 f   qt-mt323:qt-mt323.dll
 0001:00016e96       ?resizeEvent@QTextEdit@@MAEXPAVQResizeEvent@@@Z 10017e96 f   qt-mt323:qt-mt323.dll
 0001:00016e9c       ?paintEvent@QFrame@@MAEXPAVQPaintEvent@@@Z 10017e9c f   qt-mt323:qt-mt323.dll
 0001:00016ea2       ?keyPressEvent@QTextEdit@@MAEXPAVQKeyEvent@@@Z 10017ea2 f   qt-mt323:qt-mt323.dll
 0001:00016ea8       ?wheelEvent@QScrollView@@MAEXPAVQWheelEvent@@@Z 10017ea8 f   qt-mt323:qt-mt323.dll
 0001:00016eae       ?mouseMoveEvent@QScrollView@@MAEXPAVQMouseEvent@@@Z 10017eae f   qt-mt323:qt-mt323.dll
 0001:00016eb4       ?mouseDoubleClickEvent@QScrollView@@MAEXPAVQMouseEvent@@@Z 10017eb4 f   qt-mt323:qt-mt323.dll
 0001:00016eba       ?mouseReleaseEvent@QScrollView@@MAEXPAVQMouseEvent@@@Z 10017eba f   qt-mt323:qt-mt323.dll
 0001:00016ec0       ?mousePressEvent@QScrollView@@MAEXPAVQMouseEvent@@@Z 10017ec0 f   qt-mt323:qt-mt323.dll
 0001:00016ec6       ?heightForWidth@QTextEdit@@UBEHH@Z 10017ec6 f   qt-mt323:qt-mt323.dll
 0001:00016ecc       ?minimumSizeHint@QScrollView@@UBE?AVQSize@@XZ 10017ecc f   qt-mt323:qt-mt323.dll
 0001:00016ed2       ?sizeHint@QTextEdit@@UBE?AVQSize@@XZ 10017ed2 f   qt-mt323:qt-mt323.dll
 0001:00016ed8       ?resize@QScrollView@@UAEXHH@Z 10017ed8 f   qt-mt323:qt-mt323.dll
 0001:00016ede       ?polish@QTextEdit@@UAEXXZ  10017ede f   qt-mt323:qt-mt323.dll
 0001:00016ee4       ?show@QScrollView@@UAEXXZ  10017ee4 f   qt-mt323:qt-mt323.dll
 0001:00016eea       ?setFont@QTextEdit@@UAEXABVQFont@@@Z 10017eea f   qt-mt323:qt-mt323.dll
 0001:00016ef0       ?setPalette@QTextEdit@@UAEXABVQPalette@@@Z 10017ef0 f   qt-mt323:qt-mt323.dll
 0001:00016ef6       ?setEnabled@QTextEdit@@UAEX_N@Z 10017ef6 f   qt-mt323:qt-mt323.dll
 0001:00016efc       ?removeChild@QScrollView@@UAEXPAVQObject@@@Z 10017efc f   qt-mt323:qt-mt323.dll
 0001:00016f02       ?eventFilter@QTextEdit@@UAE_NPAVQObject@@PAVQEvent@@@Z 10017f02 f   qt-mt323:qt-mt323.dll
 0001:00016f08       ?event@QTextEdit@@MAE_NPAVQEvent@@@Z 10017f08 f   qt-mt323:qt-mt323.dll
 0001:00016f0e       ?qt_property@QTextEdit@@UAE_NHHPAVQVariant@@@Z 10017f0e f   qt-mt323:qt-mt323.dll
 0001:00016f14       ?qt_emit@QTextEdit@@UAE_NHPAUQUObject@@@Z 10017f14 f   qt-mt323:qt-mt323.dll
 0001:00016f1a       ?qt_invoke@QTextEdit@@UAE_NHPAUQUObject@@@Z 10017f1a f   qt-mt323:qt-mt323.dll
 0001:00016f20       ?qt_cast@QTextEdit@@UAEPAXPBD@Z 10017f20 f   qt-mt323:qt-mt323.dll
 0001:00016f26       ?className@QTextEdit@@UBEPBDXZ 10017f26 f   qt-mt323:qt-mt323.dll
 0001:00016f2c       ?metaObject@QTextEdit@@UBEPAVQMetaObject@@XZ 10017f2c f   qt-mt323:qt-mt323.dll
 0001:00016f32       ?qt_property@QHBoxLayout@@UAE_NHHPAVQVariant@@@Z 10017f32 f   qt-mt323:qt-mt323.dll
 0001:00016f38       ?qt_emit@QHBoxLayout@@UAE_NHPAUQUObject@@@Z 10017f38 f   qt-mt323:qt-mt323.dll
 0001:00016f3e       ?qt_invoke@QHBoxLayout@@UAE_NHPAUQUObject@@@Z 10017f3e f   qt-mt323:qt-mt323.dll
 0001:00016f44       ?qt_cast@QHBoxLayout@@UAEPAXPBD@Z 10017f44 f   qt-mt323:qt-mt323.dll
 0001:00016f4a       ?className@QHBoxLayout@@UBEPBDXZ 10017f4a f   qt-mt323:qt-mt323.dll
 0001:00016f50       ?metaObject@QHBoxLayout@@UBEPAVQMetaObject@@XZ 10017f50 f   qt-mt323:qt-mt323.dll
 0001:00016f56       ?setAlignment@QLayoutItem@@UAEXH@Z 10017f56 f   qt-mt323:qt-mt323.dll
 0001:00016f5c       ?spacerItem@QLayoutItem@@UAEPAVQSpacerItem@@XZ 10017f5c f   qt-mt323:qt-mt323.dll
 0001:00016f62       ?layout@QLayout@@UAEPAV1@XZ 10017f62 f   qt-mt323:qt-mt323.dll
 0001:00016f68       ?iterator@QBoxLayout@@UAE?AVQLayoutIterator@@XZ 10017f68 f   qt-mt323:qt-mt323.dll
 0001:00016f6e       ?widget@QLayoutItem@@UAEPAVQWidget@@XZ 10017f6e f   qt-mt323:qt-mt323.dll
 0001:00016f74       ?invalidate@QBoxLayout@@UAEXXZ 10017f74 f   qt-mt323:qt-mt323.dll
 0001:00016f7a       ?heightForWidth@QBoxLayout@@UBEHH@Z 10017f7a f   qt-mt323:qt-mt323.dll
 0001:00016f80       ?hasHeightForWidth@QBoxLayout@@UBE_NXZ 10017f80 f   qt-mt323:qt-mt323.dll
 0001:00016f86       ?isEmpty@QLayout@@UBE_NXZ  10017f86 f   qt-mt323:qt-mt323.dll
 0001:00016f8c       ?geometry@QLayout@@UBE?AVQRect@@XZ 10017f8c f   qt-mt323:qt-mt323.dll
 0001:00016f92       ?setGeometry@QBoxLayout@@UAEXABVQRect@@@Z 10017f92 f   qt-mt323:qt-mt323.dll
 0001:00016f98       ?expanding@QBoxLayout@@UBE?AW4ExpandData@QSizePolicy@@XZ 10017f98 f   qt-mt323:qt-mt323.dll
 0001:00016f9e       ?maximumSize@QBoxLayout@@UBE?AVQSize@@XZ 10017f9e f   qt-mt323:qt-mt323.dll
 0001:00016fa4       ?minimumSize@QBoxLayout@@UBE?AVQSize@@XZ 10017fa4 f   qt-mt323:qt-mt323.dll
 0001:00016faa       ?sizeHint@QBoxLayout@@UBE?AVQSize@@XZ 10017faa f   qt-mt323:qt-mt323.dll
 0001:00016fb0       ?addItem@QBoxLayout@@UAEXPAVQLayoutItem@@@Z 10017fb0 f   qt-mt323:qt-mt323.dll
 0001:00016fb6       ?setAutoAdd@QLayout@@UAEX_N@Z 10017fb6 f   qt-mt323:qt-mt323.dll
 0001:00016fbc       ?setMenuBar@QLayout@@UAEXPAVQMenuBar@@@Z 10017fbc f   qt-mt323:qt-mt323.dll
 0001:00016fc2       ?setSpacing@QLayout@@UAEXH@Z 10017fc2 f   qt-mt323:qt-mt323.dll
 0001:00016fc8       ?setMargin@QLayout@@UAEXH@Z 10017fc8 f   qt-mt323:qt-mt323.dll
 0001:00016fce       ?childEvent@QLayout@@MAEXPAVQChildEvent@@@Z 10017fce f   qt-mt323:qt-mt323.dll
 0001:00016fd4       ?setName@QObject@@UAEXPBD@Z 10017fd4 f   qt-mt323:qt-mt323.dll
 0001:00016fda       ?eventFilter@QLayout@@MAE_NPAVQObject@@PAVQEvent@@@Z 10017fda f   qt-mt323:qt-mt323.dll
 0001:00016fe0       ?event@QObject@@UAE_NPAVQEvent@@@Z 10017fe0 f   qt-mt323:qt-mt323.dll
 0001:00016fe6       ?qt_property@QVBoxLayout@@UAE_NHHPAVQVariant@@@Z 10017fe6 f   qt-mt323:qt-mt323.dll
 0001:00016fec       ?qt_emit@QVBoxLayout@@UAE_NHPAUQUObject@@@Z 10017fec f   qt-mt323:qt-mt323.dll
 0001:00016ff2       ?qt_invoke@QVBoxLayout@@UAE_NHPAUQUObject@@@Z 10017ff2 f   qt-mt323:qt-mt323.dll
 0001:00016ff8       ?qt_cast@QVBoxLayout@@UAEPAXPBD@Z 10017ff8 f   qt-mt323:qt-mt323.dll
 0001:00016ffe       ?className@QVBoxLayout@@UBEPBDXZ 10017ffe f   qt-mt323:qt-mt323.dll
 0001:00017004       ?metaObject@QVBoxLayout@@UBEPAVQMetaObject@@XZ 10018004 f   qt-mt323:qt-mt323.dll
 0001:0001700a       ?qt_cast@QWidget@@UAEPAXPBD@Z 1001800a f   qt-mt323:qt-mt323.dll
 0001:00017010       ?qt_invoke@QWidget@@UAE_NHPAUQUObject@@@Z 10018010 f   qt-mt323:qt-mt323.dll
 0001:00017016       ?qt_emit@QWidget@@UAE_NHPAUQUObject@@@Z 10018016 f   qt-mt323:qt-mt323.dll
 0001:0001701c       ?qt_property@QWidget@@UAE_NHHPAVQVariant@@@Z 1001801c f   qt-mt323:qt-mt323.dll
 0001:00017022       ?qt_cast@QDialog@@UAEPAXPBD@Z 10018022 f   qt-mt323:qt-mt323.dll
 0001:00017028       ?qt_invoke@QDialog@@UAE_NHPAUQUObject@@@Z 10018028 f   qt-mt323:qt-mt323.dll
 0001:0001702e       ?qt_emit@QDialog@@UAE_NHPAUQUObject@@@Z 1001802e f   qt-mt323:qt-mt323.dll
 0001:00017034       ?qt_property@QDialog@@UAE_NHHPAVQVariant@@@Z 10018034 f   qt-mt323:qt-mt323.dll
 0001:000170ba       ??0QWidgetFactory@@QAE@XZ  100180ba f   qui:qwidgetfactory.obj
 0001:0001715c       ??0QWidgetFactoryPrivate@@QAE@XZ 1001815c f i qui:qwidgetfactory.obj
 0001:00017192       ??_EQWidgetFactory@@UAEPAXI@Z 10018192 f i qui:qwidgetfactory.obj
 0001:00017192       ??_GQWidgetFactory@@UAEPAXI@Z 10018192 f i qui:qwidgetfactory.obj
 0001:000171ae       ??1QWidgetFactory@@UAE@XZ  100181ae f   qui:qwidgetfactory.obj
 0001:00017235       ?create@QWidgetFactory@@SAPAVQWidget@@ABVQString@@PAVQObject@@PAV2@PBD@Z 10018235 f   qui:qwidgetfactory.obj
 0001:0001734c       ?create@QWidgetFactory@@SAPAVQWidget@@PAVQIODevice@@PAVQObject@@PAV2@PBD@Z 1001834c f   qui:qwidgetfactory.obj
 0001:000178f5       ??_EQSqlCursor@@UAEPAXI@Z  100188f5 f i qui:qwidgetfactory.obj
 0001:000178f5       ??_GQSqlCursor@@UAEPAXI@Z  100188f5 f i qui:qwidgetfactory.obj
 0001:00017912       ?createFromUiFile@QWidgetFactory@@AAEPAVQWidget@@VQDomDocument@@PAVQObject@@PAV2@PBD@Z 10018912 f   qui:qwidgetfactory.obj
 0001:000181d3       ?unpackUInt16@QWidgetFactory@@AAEXAAVQDataStream@@AAG@Z 100191d3 f   qui:qwidgetfactory.obj
 0001:00018207       ?unpackUInt32@QWidgetFactory@@AAEXAAVQDataStream@@AAI@Z 10019207 f   qui:qwidgetfactory.obj
 0001:0001823b       ?unpackByteArray@QWidgetFactory@@AAEXAAVQDataStream@@AAV?$QMemArray@D@@@Z 1001923b f   qui:qwidgetfactory.obj
 0001:00018271       ?unpackCString@QWidgetFactory@@AAEXABVUibStrTable@@AAVQDataStream@@AAVQCString@@@Z 10019271 f   qui:qwidgetfactory.obj
 0001:000182ab       ?unpackString@QWidgetFactory@@AAEXABVUibStrTable@@AAVQDataStream@@AAVQString@@@Z 100192ab f   qui:qwidgetfactory.obj
 0001:000182e0       ?asString@UibStrTable@@QBE?AVQString@@H@Z 100192e0 f i qui:qwidgetfactory.obj
 0001:00018381       ?unpackStringSplit@QWidgetFactory@@AAEXABVUibStrTable@@AAVQDataStream@@AAVQString@@@Z 10019381 f   qui:qwidgetfactory.obj
 0001:000183cd       ?unpackVariant@QWidgetFactory@@AAEXABVUibStrTable@@AAVQDataStream@@AAVQVariant@@@Z 100193cd f   qui:qwidgetfactory.obj
 0001:00018864       ?inputSpacer@QWidgetFactory@@AAEXABVUibStrTable@@AAVQDataStream@@PAVQLayout@@@Z 10019864 f   qui:qwidgetfactory.obj
 0001:00018b58       ?inputColumnOrRow@QWidgetFactory@@AAEXABVUibStrTable@@AAVQDataStream@@PAVQObject@@_N@Z 10019b58 f   qui:qwidgetfactory.obj
 0001:00018e01       ?inputItem@QWidgetFactory@@AAEXABVUibStrTable@@AAVQDataStream@@PAVQObject@@PAVQListViewItem@@@Z 10019e01 f   qui:qwidgetfactory.obj
 0001:00019114       ??_EQListBoxText@@UAEPAXI@Z 1001a114 f i qui:qwidgetfactory.obj
 0001:00019114       ??_GQListBoxText@@UAEPAXI@Z 1001a114 f i qui:qwidgetfactory.obj
 0001:00019131       ??_EQListBoxPixmap@@UAEPAXI@Z 1001a131 f i qui:qwidgetfactory.obj
 0001:00019131       ??_GQListBoxPixmap@@UAEPAXI@Z 1001a131 f i qui:qwidgetfactory.obj
 0001:0001914e       ??_GQIconViewItem@@UAEPAXI@Z 1001a14e f i qui:qwidgetfactory.obj
 0001:0001914e       ??_EQIconViewItem@@UAEPAXI@Z 1001a14e f i qui:qwidgetfactory.obj
 0001:0001916b       ?inputMenuItem@QWidgetFactory@@AAEXPAPAVQObject@@ABVUibStrTable@@AAVQDataStream@@PAVQMenuBar@@@Z 1001a16b f   qui:qwidgetfactory.obj
 0001:000192af       ??_GQPopupMenu@@UAEPAXI@Z  1001a2af f i qui:qwidgetfactory.obj
 0001:000192af       ??_EQPopupMenu@@UAEPAXI@Z  1001a2af f i qui:qwidgetfactory.obj
 0001:000192cc       ?inputObject@QWidgetFactory@@AAEPAVQObject@@PAPAV2@AAHABVUibStrTable@@AAVQDataStream@@PAVQWidget@@PAV2@VQCString@@@Z 1001a2cc f   qui:qwidgetfactory.obj
 0001:00019cbf       ??_GQActionGroup@@UAEPAXI@Z 1001acbf f i qui:qwidgetfactory.obj
 0001:00019cbf       ??_EQActionGroup@@UAEPAXI@Z 1001acbf f i qui:qwidgetfactory.obj
 0001:00019cdc       ??_GQAction@@UAEPAXI@Z     1001acdc f i qui:qwidgetfactory.obj
 0001:00019cdc       ??_EQAction@@UAEPAXI@Z     1001acdc f i qui:qwidgetfactory.obj
 0001:00019cf9       ??_GQToolBar@@UAEPAXI@Z    1001acf9 f i qui:qwidgetfactory.obj
 0001:00019cf9       ??_EQToolBar@@UAEPAXI@Z    1001acf9 f i qui:qwidgetfactory.obj
 0001:00019d16       ?createFromUibFile@QWidgetFactory@@AAEPAVQWidget@@AAVQDataStream@@PAVQObject@@PAV2@PBD@Z 1001ad16 f   qui:qwidgetfactory.obj
 0001:0001a31e       ?readBlock@UibStrTable@@QAEXAAVQDataStream@@H@Z 1001b31e f i qui:qwidgetfactory.obj
 0001:0001a4c7       ?createWidget@QWidgetFactory@@UBEPAVQWidget@@ABVQString@@PAV2@PBD@Z 1001b4c7 f   qui:qwidgetfactory.obj
 0001:0001b27c       ??_EQToolButton@@UAEPAXI@Z 1001c27c f i qui:qwidgetfactory.obj
 0001:0001b27c       ??_GQToolButton@@UAEPAXI@Z 1001c27c f i qui:qwidgetfactory.obj
 0001:0001b299       ??_EQRadioButton@@UAEPAXI@Z 1001c299 f i qui:qwidgetfactory.obj
 0001:0001b299       ??_GQRadioButton@@UAEPAXI@Z 1001c299 f i qui:qwidgetfactory.obj
 0001:0001b2b6       ??_EQGroupBox@@UAEPAXI@Z   1001c2b6 f i qui:qwidgetfactory.obj
 0001:0001b2b6       ??_GQGroupBox@@UAEPAXI@Z   1001c2b6 f i qui:qwidgetfactory.obj
 0001:0001b2d3       ??_GQButtonGroup@@UAEPAXI@Z 1001c2d3 f i qui:qwidgetfactory.obj
 0001:0001b2d3       ??_EQButtonGroup@@UAEPAXI@Z 1001c2d3 f i qui:qwidgetfactory.obj
 0001:0001b2f0       ??_GQIconView@@UAEPAXI@Z   1001c2f0 f i qui:qwidgetfactory.obj
 0001:0001b2f0       ??_EQIconView@@UAEPAXI@Z   1001c2f0 f i qui:qwidgetfactory.obj
 0001:0001b30d       ??_EQTable@@UAEPAXI@Z      1001c30d f i qui:qwidgetfactory.obj
 0001:0001b30d       ??_GQTable@@UAEPAXI@Z      1001c30d f i qui:qwidgetfactory.obj
 0001:0001b32a       ??_EQListBox@@UAEPAXI@Z    1001c32a f i qui:qwidgetfactory.obj
 0001:0001b32a       ??_GQListBox@@UAEPAXI@Z    1001c32a f i qui:qwidgetfactory.obj
 0001:0001b347       ??_EQListView@@UAEPAXI@Z   1001c347 f i qui:qwidgetfactory.obj
 0001:0001b347       ??_GQListView@@UAEPAXI@Z   1001c347 f i qui:qwidgetfactory.obj
 0001:0001b364       ??_EQLineEdit@@UAEPAXI@Z   1001c364 f i qui:qwidgetfactory.obj
 0001:0001b364       ??_GQLineEdit@@UAEPAXI@Z   1001c364 f i qui:qwidgetfactory.obj
 0001:0001b381       ??_GQSpinBox@@UAEPAXI@Z    1001c381 f i qui:qwidgetfactory.obj
 0001:0001b381       ??_EQSpinBox@@UAEPAXI@Z    1001c381 f i qui:qwidgetfactory.obj
 0001:0001b39e       ??_EQMultiLineEdit@@UAEPAXI@Z 1001c39e f i qui:qwidgetfactory.obj
 0001:0001b39e       ??_GQMultiLineEdit@@UAEPAXI@Z 1001c39e f i qui:qwidgetfactory.obj
 0001:0001b3bb       ??_EQLabel@@UAEPAXI@Z      1001c3bb f i qui:qwidgetfactory.obj
 0001:0001b3bb       ??_GQLabel@@UAEPAXI@Z      1001c3bb f i qui:qwidgetfactory.obj
 0001:0001b3d8       ??_GQVBox@@UAEPAXI@Z       1001c3d8 f i qui:qwidgetfactory.obj
 0001:0001b3d8       ??_EQVBox@@UAEPAXI@Z       1001c3d8 f i qui:qwidgetfactory.obj
 0001:0001b3d8       ??_GQHBox@@UAEPAXI@Z       1001c3d8 f i qui:qwidgetfactory.obj
 0001:0001b3d8       ??_EQWidget@@UAEPAXI@Z     1001c3d8 f i qui:qwidgetfactory.obj
 0001:0001b3d8       ??_EQHBox@@UAEPAXI@Z       1001c3d8 f i qui:qwidgetfactory.obj
 0001:0001b3d8       ??_EQGrid@@UAEPAXI@Z       1001c3d8 f i qui:qwidgetfactory.obj
 0001:0001b3d8       ??_GQFrame@@UAEPAXI@Z      1001c3d8 f i qui:qwidgetfactory.obj
 0001:0001b3d8       ??_EQFrame@@UAEPAXI@Z      1001c3d8 f i qui:qwidgetfactory.obj
 0001:0001b3d8       ??_GQGrid@@UAEPAXI@Z       1001c3d8 f i qui:qwidgetfactory.obj
 0001:0001b3d8       ??_GQWidget@@UAEPAXI@Z     1001c3d8 f i qui:qwidgetfactory.obj
 0001:0001b3f5       ??_GQTabWidget@@UAEPAXI@Z  1001c3f5 f i qui:qwidgetfactory.obj
 0001:0001b3f5       ??_EQTabWidget@@UAEPAXI@Z  1001c3f5 f i qui:qwidgetfactory.obj
 0001:0001b412       ??_GQComboBox@@UAEPAXI@Z   1001c412 f i qui:qwidgetfactory.obj
 0001:0001b412       ??_EQComboBox@@UAEPAXI@Z   1001c412 f i qui:qwidgetfactory.obj
 0001:0001b42f       ??_EQDialog@@UAEPAXI@Z     1001c42f f i qui:qwidgetfactory.obj
 0001:0001b42f       ??_GQDialog@@UAEPAXI@Z     1001c42f f i qui:qwidgetfactory.obj
 0001:0001b44c       ??_EQWizard@@UAEPAXI@Z     1001c44c f i qui:qwidgetfactory.obj
 0001:0001b44c       ??_GQWizard@@UAEPAXI@Z     1001c44c f i qui:qwidgetfactory.obj
 0001:0001b469       ??_GQLCDNumber@@UAEPAXI@Z  1001c469 f i qui:qwidgetfactory.obj
 0001:0001b469       ??_EQLCDNumber@@UAEPAXI@Z  1001c469 f i qui:qwidgetfactory.obj
 0001:0001b486       ??_GQProgressBar@@UAEPAXI@Z 1001c486 f i qui:qwidgetfactory.obj
 0001:0001b486       ??_EQProgressBar@@UAEPAXI@Z 1001c486 f i qui:qwidgetfactory.obj
 0001:0001b4b1       ??_EQTextView@@UAEPAXI@Z   1001c4b1 f i qui:qwidgetfactory.obj
 0001:0001b4b1       ??_GQTextView@@UAEPAXI@Z   1001c4b1 f i qui:qwidgetfactory.obj
 0001:0001b4ce       ??_GQTextBrowser@@UAEPAXI@Z 1001c4ce f i qui:qwidgetfactory.obj
 0001:0001b4ce       ??_EQTextBrowser@@UAEPAXI@Z 1001c4ce f i qui:qwidgetfactory.obj
 0001:0001b4eb       ??_GQDial@@UAEPAXI@Z       1001c4eb f i qui:qwidgetfactory.obj
 0001:0001b4eb       ??_EQDial@@UAEPAXI@Z       1001c4eb f i qui:qwidgetfactory.obj
 0001:0001b508       ??_GQSlider@@UAEPAXI@Z     1001c508 f i qui:qwidgetfactory.obj
 0001:0001b508       ??_EQSlider@@UAEPAXI@Z     1001c508 f i qui:qwidgetfactory.obj
 0001:0001b525       ??_GQSplitter@@UAEPAXI@Z   1001c525 f i qui:qwidgetfactory.obj
 0001:0001b525       ??_EQSplitter@@UAEPAXI@Z   1001c525 f i qui:qwidgetfactory.obj
 0001:0001b542       ??_GQDateEdit@@UAEPAXI@Z   1001c542 f i qui:qwidgetfactory.obj
 0001:0001b542       ??_EQDateEdit@@UAEPAXI@Z   1001c542 f i qui:qwidgetfactory.obj
 0001:0001b55f       ??_EQTimeEdit@@UAEPAXI@Z   1001c55f f i qui:qwidgetfactory.obj
 0001:0001b55f       ??_GQTimeEdit@@UAEPAXI@Z   1001c55f f i qui:qwidgetfactory.obj
 0001:0001b57c       ??_EQDateTimeEdit@@UAEPAXI@Z 1001c57c f i qui:qwidgetfactory.obj
 0001:0001b57c       ??_GQDateTimeEdit@@UAEPAXI@Z 1001c57c f i qui:qwidgetfactory.obj
 0001:0001b599       ??_EQScrollBar@@UAEPAXI@Z  1001c599 f i qui:qwidgetfactory.obj
 0001:0001b599       ??_GQScrollBar@@UAEPAXI@Z  1001c599 f i qui:qwidgetfactory.obj
 0001:0001b5b6       ??_EQWidgetStack@@UAEPAXI@Z 1001c5b6 f i qui:qwidgetfactory.obj
 0001:0001b5b6       ??_GQWidgetStack@@UAEPAXI@Z 1001c5b6 f i qui:qwidgetfactory.obj
 0001:0001b5d3       ??_GQToolBox@@UAEPAXI@Z    1001c5d3 f i qui:qwidgetfactory.obj
 0001:0001b5d3       ??_EQToolBox@@UAEPAXI@Z    1001c5d3 f i qui:qwidgetfactory.obj
 0001:0001b5f0       ??_EQMainWindow@@UAEPAXI@Z 1001c5f0 f i qui:qwidgetfactory.obj
 0001:0001b5f0       ??_GQMainWindow@@UAEPAXI@Z 1001c5f0 f i qui:qwidgetfactory.obj
 0001:0001b60d       ??_GQDataTable@@UAEPAXI@Z  1001c60d f i qui:qwidgetfactory.obj
 0001:0001b60d       ??_EQDataTable@@UAEPAXI@Z  1001c60d f i qui:qwidgetfactory.obj
 0001:0001b62a       ?createWidgetInternal@QWidgetFactory@@AAEPAVQWidget@@ABVQDomElement@@PAV2@PAVQLayout@@ABVQString@@@Z 1001c62a f   qui:qwidgetfactory.obj
 0001:0001bf83       ?createLayout@QWidgetFactory@@AAEPAVQLayout@@PAVQWidget@@PAV2@W4LayoutType@1@_N@Z 1001cf83 f   qui:qwidgetfactory.obj
 0001:0001c1e4       ??_GQGridLayout@@UAEPAXI@Z 1001d1e4 f i qui:qwidgetfactory.obj
 0001:0001c1e4       ??_EQGridLayout@@UAEPAXI@Z 1001d1e4 f i qui:qwidgetfactory.obj
 0001:0001c201       ?layoutType@QWidgetFactory@@ABE?AW4LayoutType@1@PAVQLayout@@@Z 1001d201 f   qui:qwidgetfactory.obj
 0001:0001c245       ?setProperty@QWidgetFactory@@AAEXPAVQObject@@ABVQString@@VQVariant@@@Z 1001d245 f   qui:qwidgetfactory.obj
 0001:0001c810       ??0SqlWidgetConnection@QWidgetFactory@@QAE@ABVQString@@0@Z 1001d810 f i qui:qwidgetfactory.obj
 0001:0001c84b       ?setProperty@QWidgetFactory@@AAEXPAVQObject@@ABVQString@@ABVQDomElement@@@Z 1001d84b f   qui:qwidgetfactory.obj
 0001:0001cc90       ?createSpacer@QWidgetFactory@@AAEXABVQDomElement@@PAVQLayout@@@Z 1001dc90 f   qui:qwidgetfactory.obj
 0001:0001d153       ?loadImageCollection@QWidgetFactory@@AAEXABVQDomElement@@@Z 1001e153 f   qui:qwidgetfactory.obj
 0001:0001d4b8       ?loadFromCollection@QWidgetFactory@@AAE?AVQImage@@ABVQString@@@Z 1001e4b8 f   qui:qwidgetfactory.obj
 0001:0001d527       ?loadPixmap@QWidgetFactory@@AAE?AVQPixmap@@ABVQString@@@Z 1001e527 f   qui:qwidgetfactory.obj
 0001:0001d5a3       ?loadPixmap@QWidgetFactory@@AAE?AVQPixmap@@ABVQDomElement@@@Z 1001e5a3 f   qui:qwidgetfactory.obj
 0001:0001d5fd       ?loadColorGroup@QWidgetFactory@@AAE?AVQColorGroup@@ABVQDomElement@@@Z 1001e5fd f   qui:qwidgetfactory.obj
 0001:0001d76f       ?loadConnections@QWidgetFactory@@AAEXABVQDomElement@@PAVQObject@@@Z 1001e76f f   qui:qwidgetfactory.obj
 0001:0001e128       ??0Connection@@QAE@XZ      1001f128 f i qui:qwidgetfactory.obj
 0001:0001e16a       ?loadTabOrder@QWidgetFactory@@AAEXABVQDomElement@@@Z 1001f16a f   qui:qwidgetfactory.obj
 0001:0001e2b7       ?createListViewColumn@QWidgetFactory@@AAEXPAVQListView@@ABVQString@@ABVQPixmap@@_N3@Z 1001f2b7 f   qui:qwidgetfactory.obj
 0001:0001e392       ?createTableColumnOrRow@QWidgetFactory@@AAEXPAVQTable@@ABVQString@@ABVQPixmap@@1_N@Z 1001f392 f   qui:qwidgetfactory.obj
 0001:0001e5a7       ??1Field@QWidgetFactory@@QAE@XZ 1001f5a7 f i qui:qwidgetfactory.obj
 0001:0001e5c6       ?createColumn@QWidgetFactory@@AAEXABVQDomElement@@PAVQWidget@@@Z 1001f5c6 f   qui:qwidgetfactory.obj
 0001:0001ebe8       ?loadItem@QWidgetFactory@@AAEXABVQDomElement@@AAVQPixmap@@AAVQString@@AA_N@Z 1001fbe8 f   qui:qwidgetfactory.obj
 0001:0001edcf       ?createItem@QWidgetFactory@@AAEXABVQDomElement@@PAVQWidget@@PAVQListViewItem@@@Z 1001fdcf f   qui:qwidgetfactory.obj
 0001:0001f302       ??_EQListViewItem@@UAEPAXI@Z 10020302 f i qui:qwidgetfactory.obj
 0001:0001f302       ??_GQListViewItem@@UAEPAXI@Z 10020302 f i qui:qwidgetfactory.obj
 0001:0001f31f       ?loadChildAction@QWidgetFactory@@AAEXPAVQObject@@ABVQDomElement@@@Z 1002031f f   qui:qwidgetfactory.obj
 0001:0001f66a       ?loadActions@QWidgetFactory@@AAEXABVQDomElement@@@Z 1002066a f   qui:qwidgetfactory.obj
 0001:0001f751       ?loadToolBars@QWidgetFactory@@AAEXABVQDomElement@@@Z 10020751 f   qui:qwidgetfactory.obj
 0001:0001fb5d       ?loadMenuBar@QWidgetFactory@@AAEXABVQDomElement@@@Z 10020b5d f   qui:qwidgetfactory.obj
 0001:0001fde4       ?loadPopupMenu@QWidgetFactory@@AAEXPAVQPopupMenu@@ABVQDomElement@@@Z 10020de4 f   qui:qwidgetfactory.obj
 0001:00020167       ?findAction@QWidgetFactory@@AAEPAVQAction@@ABVQString@@@Z 10021167 f   qui:qwidgetfactory.obj
 0001:000201e0       ?loadExtraSource@QWidgetFactory@@AAEXXZ 100211e0 f   qui:qwidgetfactory.obj
 0001:000202e0       ?translate@QWidgetFactory@@AAE?AVQString@@ABV2@0@Z 100212e0 f   qui:qwidgetfactory.obj
 0001:00020346       ?translate@QWidgetFactory@@AAE?AVQString@@PBD0@Z 10021346 f   qui:qwidgetfactory.obj
 0001:00020371       ??0?$QValueList@UImage@QWidgetFactory@@@@QAE@XZ 10021371 f i qui:qwidgetfactory.obj
 0001:00020391       ?append@?$QValueList@UImage@QWidgetFactory@@@@QAE?AV?$QValueListIterator@UImage@QWidgetFactory@@@@ABUImage@QWidgetFactory@@@Z 10021391 f i qui:qwidgetfactory.obj
 0001:000203c1       ?end@?$QValueList@UImage@QWidgetFactory@@@@QAE?AV?$QValueListIterator@UImage@QWidgetFactory@@@@XZ 100213c1 f i qui:qwidgetfactory.obj
 0001:000203e0       ??0?$QMap@VQString@@VQStringList@@@@QAE@XZ 100213e0 f i qui:qwidgetfactory.obj
 0001:00020400       ??1?$QMap@VQString@@VQStringList@@@@QAE@XZ 10021400 f i qui:qwidgetfactory.obj
 0001:0002041d       ??0?$QMap@PAVQWidget@@USqlWidgetConnection@QWidgetFactory@@@@QAE@XZ 1002141d f i qui:qwidgetfactory.obj
 0001:0002043d       ??1?$QMap@PAVQWidget@@USqlWidgetConnection@QWidgetFactory@@@@QAE@XZ 1002143d f i qui:qwidgetfactory.obj
 0001:0002045a       ??0?$QMap@PAVQTable@@V?$QValueList@UField@QWidgetFactory@@@@@@QAE@XZ 1002145a f i qui:qwidgetfactory.obj
 0001:0002047a       ??1?$QMap@PAVQTable@@V?$QValueList@UField@QWidgetFactory@@@@@@QAE@XZ 1002147a f i qui:qwidgetfactory.obj
 0001:00020497       ?count@?$QPtrList@VQWidgetFactory@@@@UBEIXZ 10021497 f i qui:qwidgetfactory.obj
 0001:00020497       ?count@?$QPtrList@VQAction@@@@UBEIXZ 10021497 f i qui:qwidgetfactory.obj
 0001:0002049b       ?clear@?$QPtrList@VQAction@@@@UAEXXZ 1002149b f i qui:qwidgetfactory.obj
 0001:0002049b       ?clear@?$QPtrList@VQWidgetFactory@@@@UAEXXZ 1002149b f i qui:qwidgetfactory.obj
 0001:000204a1       ??1?$QDict@_N@@UAE@XZ      100214a1 f i qui:qwidgetfactory.obj
 0001:000204ba       ?count@?$QDict@_N@@UBEIXZ  100214ba f i qui:qwidgetfactory.obj
 0001:000204be       ?clear@?$QDict@_N@@UAEXXZ  100214be f i qui:qwidgetfactory.obj
 0001:000204c4       ??0?$QMap@PAVQWidget@@VQString@@@@QAE@XZ 100214c4 f i qui:qwidgetfactory.obj
 0001:000204e4       ??0?$QValueList@UField@QWidgetFactory@@@@QAE@XZ 100214e4 f i qui:qwidgetfactory.obj
 0001:00020504       ?append@?$QValueList@UField@QWidgetFactory@@@@QAE?AV?$QValueListIterator@UField@QWidgetFactory@@@@ABUField@QWidgetFactory@@@Z 10021504 f i qui:qwidgetfactory.obj
 0001:00020534       ??0?$QValueList@VQPixmap@@@@QAE@XZ 10021534 f i qui:qwidgetfactory.obj
 0001:00020554       ??_E?$QPtrList@VQAction@@@@UAEPAXI@Z 10021554 f i qui:qwidgetfactory.obj
 0001:00020554       ??_G?$QPtrList@VQAction@@@@UAEPAXI@Z 10021554 f i qui:qwidgetfactory.obj
 0001:0002057f       ??_G?$QDict@_N@@UAEPAXI@Z  1002157f f i qui:qwidgetfactory.obj
 0001:0002057f       ??_E?$QDict@_N@@UAEPAXI@Z  1002157f f i qui:qwidgetfactory.obj
 0001:000205aa       ??_G?$QPtrList@VQWidgetFactory@@@@UAEPAXI@Z 100215aa f i qui:qwidgetfactory.obj
 0001:000205aa       ??_E?$QPtrList@VQWidgetFactory@@@@UAEPAXI@Z 100215aa f i qui:qwidgetfactory.obj
 0001:000205d5       ?end@?$QValueList@UField@QWidgetFactory@@@@QAE?AV?$QValueListIterator@UField@QWidgetFactory@@@@XZ 100215d5 f i qui:qwidgetfactory.obj
 0001:000205f4       ?append@?$QValueList@VQPixmap@@@@QAE?AV?$QValueListIterator@VQPixmap@@@@ABVQPixmap@@@Z 100215f4 f i qui:qwidgetfactory.obj
 0001:00020624       ?end@?$QValueList@VQPixmap@@@@QAE?AV?$QValueListIterator@VQPixmap@@@@XZ 10021624 f i qui:qwidgetfactory.obj
 0001:00020643       ?derefAndDelete@?$QValueListPrivate@VQString@@@@QAEXXZ 10021643 f i qui:qwidgetfactory.obj
 0001:00020643       ?derefAndDelete@?$QValueListPrivate@UField@QWidgetFactory@@@@QAEXXZ 10021643 f i qui:qwidgetfactory.obj
 0001:00020643       ?derefAndDelete@?$QValueListPrivate@UImage@QWidgetFactory@@@@QAEXXZ 10021643 f i qui:qwidgetfactory.obj
 0001:00020643       ?derefAndDelete@?$QValueListPrivate@VQPixmap@@@@QAEXXZ 10021643 f i qui:qwidgetfactory.obj
 0001:00020653       ??1?$QMapPrivate@VQString@@VQStringList@@@@QAE@XZ 10021653 f i qui:qwidgetfactory.obj
 0001:0002066b       ??1?$QMapPrivate@PAVQWidget@@USqlWidgetConnection@QWidgetFactory@@@@QAE@XZ 1002166b f i qui:qwidgetfactory.obj
 0001:00020683       ?begin@?$QMapPrivate@VQString@@VQStringList@@@@QAE?AV?$QMapIterator@VQString@@VQStringList@@@@XZ 10021683 f i qui:qwidgetfactory.obj
 0001:00020683       ?begin@?$QMapPrivate@PAVQWidget@@USqlWidgetConnection@QWidgetFactory@@@@QAE?AV?$QMapIterator@PAVQWidget@@USqlWidgetConnection@QWidgetFactory@@@@XZ 10021683 f i qui:qwidgetfactory.obj
 0001:00020691       ??1?$QMapPrivate@PAVQTable@@V?$QValueList@UField@QWidgetFactory@@@@@@QAE@XZ 10021691 f i qui:qwidgetfactory.obj
 0001:000206b1       ??_G?$QMapNode@VQString@@VQStringList@@@@QAEPAXI@Z 100216b1 f i qui:qwidgetfactory.obj
 0001:000206d9       ??_G?$QMapNode@PAVQWidget@@USqlWidgetConnection@QWidgetFactory@@@@QAEPAXI@Z 100216d9 f i qui:qwidgetfactory.obj
 0001:00020706       ?detachInternal@?$QValueList@UImage@QWidgetFactory@@@@AAEXXZ 10021706 f i qui:qwidgetfactory.obj
 0001:0002072d       ?inc@?$QMapIterator@PAVQWidget@@USqlWidgetConnection@QWidgetFactory@@@@AAEHXZ 1002172d f i qui:qwidgetfactory.obj
 0001:0002072d       ?inc@?$QMapIterator@VQString@@VQStringList@@@@AAEHXZ 1002172d f i qui:qwidgetfactory.obj
 0001:0002072d       ?inc@?$QMapIterator@VQString@@V1@@@AAEHXZ 1002172d f i qui:qwidgetfactory.obj
 0001:0002075b       ?insert@?$QMap@VQString@@VQStringList@@@@QAE?AV?$QMapIterator@VQString@@VQStringList@@@@ABVQString@@ABVQStringList@@_N@Z 1002175b f i qui:qwidgetfactory.obj
 0001:000207b6       ?detachInternal@?$QMap@VQString@@VQStringList@@@@AAEXXZ 100217b6 f i qui:qwidgetfactory.obj
 0001:000207da       ?insert@?$QMap@PAVQWidget@@USqlWidgetConnection@QWidgetFactory@@@@QAE?AV?$QMapIterator@PAVQWidget@@USqlWidgetConnection@QWidgetFactory@@@@ABQAVQWidget@@ABUSqlWidgetConnection@QWidgetFactory@@_N@Z 100217da f i qui:qwidgetfactory.obj
 0001:00020828       ?detachInternal@?$QMap@PAVQWidget@@USqlWidgetConnection@QWidgetFactory@@@@AAEXXZ 10021828 f i qui:qwidgetfactory.obj
 0001:0002084c       ?insert@?$QMap@PAVQTable@@V?$QValueList@UField@QWidgetFactory@@@@@@QAE?AV?$QMapIterator@PAVQTable@@V?$QValueList@UField@QWidgetFactory@@@@@@ABQAVQTable@@ABV?$QValueList@UField@QWidgetFactory@@@@_N@Z 1002184c f i qui:qwidgetfactory.obj
 0001:000208a7       ?remove@?$QMap@PAVQTable@@V?$QValueList@UField@QWidgetFactory@@@@@@QAEXABQAVQTable@@@Z 100218a7 f i qui:qwidgetfactory.obj
 0001:000208f1       ?detachInternal@?$QMap@PAVQTable@@V?$QValueList@UField@QWidgetFactory@@@@@@AAEXXZ 100218f1 f i qui:qwidgetfactory.obj
 0001:00020915       ?deleteItem@?$QPtrList@VQAction@@@@EAEXPAX@Z 10021915 f i qui:qwidgetfactory.obj
 0001:0002092d       ?deleteItem@?$QDict@_N@@EAEXPAX@Z 1002192d f i qui:qwidgetfactory.obj
 0001:00020940       ?deleteItem@?$QPtrList@VQWidgetFactory@@@@EAEXPAX@Z 10021940 f i qui:qwidgetfactory.obj
 0001:00020957       ?insert@?$QMap@PAVQWidget@@VQString@@@@QAE?AV?$QMapIterator@PAVQWidget@@VQString@@@@ABQAVQWidget@@ABVQString@@_N@Z 10021957 f i qui:qwidgetfactory.obj
 0001:000209a6       ?detachInternal@?$QValueList@UField@QWidgetFactory@@@@AAEXXZ 100219a6 f i qui:qwidgetfactory.obj
 0001:000209cd       ?detachInternal@?$QValueList@VQPixmap@@@@AAEXXZ 100219cd f i qui:qwidgetfactory.obj
 0001:000209f4       ?find@?$QValueListPrivate@VQString@@@@QBEPAV?$QValueListNode@VQString@@@@PAV2@ABVQString@@@Z 100219f4 f i qui:qwidgetfactory.obj
 0001:00020a25       ??0?$QValueListPrivate@UImage@QWidgetFactory@@@@QAE@XZ 10021a25 f i qui:qwidgetfactory.obj
 0001:00020a63       ?insert@?$QValueListPrivate@UImage@QWidgetFactory@@@@QAE?AV?$QValueListIterator@UImage@QWidgetFactory@@@@V2@ABUImage@QWidgetFactory@@@Z 10021a63 f i qui:qwidgetfactory.obj
 0001:00020aa6       ??0?$QMapPrivate@VQString@@VQStringList@@@@QAE@XZ 10021aa6 f i qui:qwidgetfactory.obj
 0001:00020afa       ?clear@?$QMapPrivate@VQString@@VQStringList@@@@QAEXXZ 10021afa f i qui:qwidgetfactory.obj
 0001:00020b29       ??0?$QMapPrivate@PAVQWidget@@USqlWidgetConnection@QWidgetFactory@@@@QAE@XZ 10021b29 f i qui:qwidgetfactory.obj
 0001:00020b81       ?clear@?$QMapPrivate@PAVQWidget@@USqlWidgetConnection@QWidgetFactory@@@@QAEXXZ 10021b81 f i qui:qwidgetfactory.obj
 0001:00020bb0       ??0?$QMapPrivate@PAVQTable@@V?$QValueList@UField@QWidgetFactory@@@@@@QAE@XZ 10021bb0 f i qui:qwidgetfactory.obj
 0001:00020bfa       ?clear@?$QMapPrivate@PAVQTable@@V?$QValueList@UField@QWidgetFactory@@@@@@QAEXXZ 10021bfa f i qui:qwidgetfactory.obj
 0001:00020c29       ?find@?$QMapPrivate@PAVQTable@@V?$QValueList@UField@QWidgetFactory@@@@@@QBE?AV?$QMapConstIterator@PAVQTable@@V?$QValueList@UField@QWidgetFactory@@@@@@ABQAVQTable@@@Z 10021c29 f i qui:qwidgetfactory.obj
 0001:00020c6d       ??0?$QMapPrivate@PAVQWidget@@VQString@@@@QAE@XZ 10021c6d f i qui:qwidgetfactory.obj
 0001:00020cb8       ??0?$QValueListPrivate@UField@QWidgetFactory@@@@QAE@XZ 10021cb8 f i qui:qwidgetfactory.obj
 0001:00020d03       ??0Field@QWidgetFactory@@QAE@XZ 10021d03 f i qui:qwidgetfactory.obj
 0001:00020d22       ?insert@?$QValueListPrivate@UField@QWidgetFactory@@@@QAE?AV?$QValueListIterator@UField@QWidgetFactory@@@@V2@ABUField@QWidgetFactory@@@Z 10021d22 f i qui:qwidgetfactory.obj
 0001:00020d70       ??0?$QValueListPrivate@VQPixmap@@@@QAE@XZ 10021d70 f i qui:qwidgetfactory.obj
 0001:00020dbc       ??_G?$QValueListNode@VQPixmap@@@@UAEPAXI@Z 10021dbc f i qui:qwidgetfactory.obj
 0001:00020dbc       ??_E?$QValueListNode@VQPixmap@@@@UAEPAXI@Z 10021dbc f i qui:qwidgetfactory.obj
 0001:00020de2       ?insert@?$QValueListPrivate@VQPixmap@@@@QAE?AV?$QValueListIterator@VQPixmap@@@@V2@ABVQPixmap@@@Z 10021de2 f i qui:qwidgetfactory.obj
 0001:00020e31       ?at@?$QValueListPrivate@VQPixmap@@@@QBEPAV?$QValueListNode@VQPixmap@@@@I@Z 10021e31 f i qui:qwidgetfactory.obj
 0001:00020e70       ??4SqlWidgetConnection@QWidgetFactory@@QAEAAU01@ABU01@@Z 10021e70 f i qui:qwidgetfactory.obj
 0001:00020e99       ??_E?$QValueListPrivate@UImage@QWidgetFactory@@@@UAEPAXI@Z 10021e99 f i qui:qwidgetfactory.obj
 0001:00020e99       ??_G?$QValueListPrivate@UImage@QWidgetFactory@@@@UAEPAXI@Z 10021e99 f i qui:qwidgetfactory.obj
 0001:00020eb5       ??1?$QValueListPrivate@UImage@QWidgetFactory@@@@UAE@XZ 10021eb5 f i qui:qwidgetfactory.obj
 0001:00020eed       ??_E?$QValueListPrivate@UField@QWidgetFactory@@@@UAEPAXI@Z 10021eed f i qui:qwidgetfactory.obj
 0001:00020eed       ??_G?$QValueListPrivate@UField@QWidgetFactory@@@@UAEPAXI@Z 10021eed f i qui:qwidgetfactory.obj
 0001:00020f09       ??1?$QValueListPrivate@UField@QWidgetFactory@@@@UAE@XZ 10021f09 f i qui:qwidgetfactory.obj
 0001:00020f41       ??_G?$QValueListPrivate@VQPixmap@@@@UAEPAXI@Z 10021f41 f i qui:qwidgetfactory.obj
 0001:00020f41       ??_E?$QValueListPrivate@VQPixmap@@@@UAEPAXI@Z 10021f41 f i qui:qwidgetfactory.obj
 0001:00020f5d       ??1?$QValueListPrivate@VQPixmap@@@@UAE@XZ 10021f5d f i qui:qwidgetfactory.obj
 0001:00020f95       ??0?$QValueListNode@UImage@QWidgetFactory@@@@QAE@ABUImage@QWidgetFactory@@@Z 10021f95 f i qui:qwidgetfactory.obj
 0001:00020fc5       ??_G?$QValueListNode@UImage@QWidgetFactory@@@@UAEPAXI@Z 10021fc5 f i qui:qwidgetfactory.obj
 0001:00020fc5       ??_E?$QValueListNode@UImage@QWidgetFactory@@@@UAEPAXI@Z 10021fc5 f i qui:qwidgetfactory.obj
 0001:00020fe1       ??1?$QValueListNode@UImage@QWidgetFactory@@@@UAE@XZ 10021fe1 f i qui:qwidgetfactory.obj
 0001:00020ffe       ??0?$QValueListNode@UImage@QWidgetFactory@@@@QAE@XZ 10021ffe f i qui:qwidgetfactory.obj
 0001:00021021       ?remove@?$QMapPrivate@PAVQTable@@V?$QValueList@UField@QWidgetFactory@@@@@@QAEXV?$QMapIterator@PAVQTable@@V?$QValueList@UField@QWidgetFactory@@@@@@@Z 10022021 f i qui:qwidgetfactory.obj
 0001:0002105a       ??_E?$QValueListNode@UField@QWidgetFactory@@@@UAEPAXI@Z 1002205a f i qui:qwidgetfactory.obj
 0001:0002105a       ??_G?$QValueListNode@UField@QWidgetFactory@@@@UAEPAXI@Z 1002205a f i qui:qwidgetfactory.obj
 0001:0002107f       ??0Field@QWidgetFactory@@QAE@ABU01@@Z 1002207f f i qui:qwidgetfactory.obj
 0001:000210af       ??0?$QValueListPrivate@UImage@QWidgetFactory@@@@QAE@ABV0@@Z 100220af f i qui:qwidgetfactory.obj
 0001:0002112d       ??0?$QMapPrivate@VQString@@VQStringList@@@@QAE@PBV0@@Z 1002212d f i qui:qwidgetfactory.obj
 0001:000211d5       ?clear@?$QMapPrivate@VQString@@VQStringList@@@@QAEXPAU?$QMapNode@VQString@@VQStringList@@@@@Z 100221d5 f i qui:qwidgetfactory.obj
 0001:00021207       ?insertSingle@?$QMapPrivate@VQString@@VQStringList@@@@QAE?AV?$QMapIterator@VQString@@VQStringList@@@@ABVQString@@@Z 10022207 f i qui:qwidgetfactory.obj
 0001:00021289       ??0?$QMapPrivate@PAVQWidget@@USqlWidgetConnection@QWidgetFactory@@@@QAE@PBV0@@Z 10022289 f i qui:qwidgetfactory.obj
 0001:00021338       ?clear@?$QMapPrivate@PAVQWidget@@USqlWidgetConnection@QWidgetFactory@@@@QAEXPAU?$QMapNode@PAVQWidget@@USqlWidgetConnection@QWidgetFactory@@@@@Z 10022338 f i qui:qwidgetfactory.obj
 0001:0002136a       ?insertSingle@?$QMapPrivate@PAVQWidget@@USqlWidgetConnection@QWidgetFactory@@@@QAE?AV?$QMapIterator@PAVQWidget@@USqlWidgetConnection@QWidgetFactory@@@@ABQAVQWidget@@@Z 1002236a f i qui:qwidgetfactory.obj
 0001:000213e2       ??0?$QMapPrivate@PAVQTable@@V?$QValueList@UField@QWidgetFactory@@@@@@QAE@PBV0@@Z 100223e2 f i qui:qwidgetfactory.obj
 0001:00021480       ?clear@?$QMapPrivate@PAVQTable@@V?$QValueList@UField@QWidgetFactory@@@@@@QAEXPAU?$QMapNode@PAVQTable@@V?$QValueList@UField@QWidgetFactory@@@@@@@Z 10022480 f i qui:qwidgetfactory.obj
 0001:000214b8       ?insertSingle@?$QMapPrivate@PAVQTable@@V?$QValueList@UField@QWidgetFactory@@@@@@QAE?AV?$QMapIterator@PAVQTable@@V?$QValueList@UField@QWidgetFactory@@@@@@ABQAVQTable@@@Z 100224b8 f i qui:qwidgetfactory.obj
 0001:00021530       ?detachInternal@?$QMap@PAVQWidget@@VQString@@@@AAEXXZ 10022530 f i qui:qwidgetfactory.obj
 0001:00021554       ?insertSingle@?$QMapPrivate@PAVQWidget@@VQString@@@@QAE?AV?$QMapIterator@PAVQWidget@@VQString@@@@ABQAVQWidget@@@Z 10022554 f i qui:qwidgetfactory.obj
 0001:000215cc       ??0?$QValueListPrivate@UField@QWidgetFactory@@@@QAE@ABV0@@Z 100225cc f i qui:qwidgetfactory.obj
 0001:00021655       ??0?$QValueListPrivate@VQPixmap@@@@QAE@ABV0@@Z 10022655 f i qui:qwidgetfactory.obj
 0001:000216df       ??0?$QValueListIterator@UImage@QWidgetFactory@@@@QAE@ABV0@@Z 100226df f i qui:qwidgetfactory.obj
 0001:000216df       ??0?$QValueListIterator@VQPixmap@@@@QAE@ABV0@@Z 100226df f i qui:qwidgetfactory.obj
 0001:000216df       ??0?$QValueListIterator@UField@QWidgetFactory@@@@QAE@ABV0@@Z 100226df f i qui:qwidgetfactory.obj
 0001:000216ec       ?copy@?$QMapPrivate@VQString@@VQStringList@@@@QAEPAU?$QMapNode@VQString@@VQStringList@@@@PAU2@@Z 100226ec f i qui:qwidgetfactory.obj
 0001:00021758       ?insert@?$QMapPrivate@VQString@@VQStringList@@@@QAE?AV?$QMapIterator@VQString@@VQStringList@@@@PAUQMapNodeBase@@0ABVQString@@@Z 10022758 f i qui:qwidgetfactory.obj
 0001:000217ed       ?dec@?$QMapIterator@PAVQTable@@V?$QValueList@UField@QWidgetFactory@@@@@@AAEHXZ 100227ed f i qui:qwidgetfactory.obj
 0001:000217ed       ?dec@?$QMapIterator@PAVQWidget@@VQString@@@@AAEHXZ 100227ed f i qui:qwidgetfactory.obj
 0001:000217ed       ?dec@?$QMapIterator@PAVQWidget@@USqlWidgetConnection@QWidgetFactory@@@@AAEHXZ 100227ed f i qui:qwidgetfactory.obj
 0001:000217ed       ?dec@?$QMapIterator@VQString@@VQStringList@@@@AAEHXZ 100227ed f i qui:qwidgetfactory.obj
 0001:00021824       ?copy@?$QMapPrivate@PAVQWidget@@USqlWidgetConnection@QWidgetFactory@@@@QAEPAU?$QMapNode@PAVQWidget@@USqlWidgetConnection@QWidgetFactory@@@@PAU2@@Z 10022824 f i qui:qwidgetfactory.obj
 0001:00021890       ?insert@?$QMapPrivate@PAVQWidget@@USqlWidgetConnection@QWidgetFactory@@@@QAE?AV?$QMapIterator@PAVQWidget@@USqlWidgetConnection@QWidgetFactory@@@@PAUQMapNodeBase@@0ABQAVQWidget@@@Z 10022890 f i qui:qwidgetfactory.obj
 0001:0002192e       ?copy@?$QMapPrivate@PAVQTable@@V?$QValueList@UField@QWidgetFactory@@@@@@QAEPAU?$QMapNode@PAVQTable@@V?$QValueList@UField@QWidgetFactory@@@@@@PAU2@@Z 1002292e f i qui:qwidgetfactory.obj
 0001:0002199a       ?insert@?$QMapPrivate@PAVQTable@@V?$QValueList@UField@QWidgetFactory@@@@@@QAE?AV?$QMapIterator@PAVQTable@@V?$QValueList@UField@QWidgetFactory@@@@@@PAUQMapNodeBase@@0ABQAVQTable@@@Z 1002299a f i qui:qwidgetfactory.obj
 0001:00021a29       ??0?$QMapPrivate@PAVQWidget@@VQString@@@@QAE@PBV0@@Z 10022a29 f i qui:qwidgetfactory.obj
 0001:00021ac8       ?insert@?$QMapPrivate@PAVQWidget@@VQString@@@@QAE?AV?$QMapIterator@PAVQWidget@@VQString@@@@PAUQMapNodeBase@@0ABQAVQWidget@@@Z 10022ac8 f i qui:qwidgetfactory.obj
 0001:00021b58       ??0?$QMapNode@PAVQTable@@V?$QValueList@UField@QWidgetFactory@@@@@@QAE@ABU0@@Z 10022b58 f i qui:qwidgetfactory.obj
 0001:00021b8d       ??0?$QMapNode@VQString@@VQStringList@@@@QAE@ABVQString@@@Z 10022b8d f i qui:qwidgetfactory.obj
 0001:00021bb8       ??0?$QMapNode@VQString@@VQStringList@@@@QAE@ABU0@@Z 10022bb8 f i qui:qwidgetfactory.obj
 0001:00021c01       ??0?$QMapNode@PAVQWidget@@USqlWidgetConnection@QWidgetFactory@@@@QAE@ABU0@@Z 10022c01 f i qui:qwidgetfactory.obj
 0001:00021c35       ?copy@?$QMapPrivate@PAVQWidget@@VQString@@@@QAEPAU?$QMapNode@PAVQWidget@@VQString@@@@PAU2@@Z 10022c35 f i qui:qwidgetfactory.obj
 0001:00021ca1       ??0?$QMapNode@PAVQWidget@@VQString@@@@QAE@ABU0@@Z 10022ca1 f i qui:qwidgetfactory.obj
 0001:00021ccd       ??_EQTimeEdit@@WCI@AEPAXI@Z 10022ccd f i qui:qwidgetfactory.obj
 0001:00021cd5       ??_EQLabel@@WCI@AEPAXI@Z   10022cd5 f i qui:qwidgetfactory.obj
 0001:00021cdd       ??_EQSpinBox@@WCI@AEPAXI@Z 10022cdd f i qui:qwidgetfactory.obj
 0001:00021ce5       ??_EQSpinBox@@WGM@AEPAXI@Z 10022ce5 f i qui:qwidgetfactory.obj
 0001:00021ced       ??_EQGroupBox@@WCI@AEPAXI@Z 10022ced f i qui:qwidgetfactory.obj
 0001:00021cf5       ??_EQLineEdit@@WCI@AEPAXI@Z 10022cf5 f i qui:qwidgetfactory.obj
 0001:00021cfd       ??_EQToolButton@@WCI@AEPAXI@Z 10022cfd f i qui:qwidgetfactory.obj
 0001:00021d05       ??_EQPopupMenu@@WCI@AEPAXI@Z 10022d05 f i qui:qwidgetfactory.obj
 0001:00021d0d       ??_EQPopupMenu@@WIM@AEPAXI@Z 10022d0d f i qui:qwidgetfactory.obj
 0001:00021d18       ??_EQDateEdit@@WCI@AEPAXI@Z 10022d18 f i qui:qwidgetfactory.obj
 0001:00021d20       ??_EQListView@@WCI@AEPAXI@Z 10022d20 f i qui:qwidgetfactory.obj
 0001:00021d28       ??_EQTable@@WCI@AEPAXI@Z   10022d28 f i qui:qwidgetfactory.obj
 0001:00021d30       ??_EQDataTable@@WCI@AEPAXI@Z 10022d30 f i qui:qwidgetfactory.obj
 0001:00021d38       ??_EQSqlCursor@@W7AEPAXI@Z 10022d38 f i qui:qwidgetfactory.obj
 0001:00021d40       ?value@QSqlCursor@@W7BE?AVQVariant@@H@Z 10022d40 f i qui:qwidgetfactory.obj
 0001:00021d49       ??_EQDialog@@WCI@AEPAXI@Z  10022d49 f i qui:qwidgetfactory.obj
 0001:00021d51       ??_EQWizard@@WCI@AEPAXI@Z  10022d51 f i qui:qwidgetfactory.obj
 0001:00021d59       ??_EQScrollBar@@WCI@AEPAXI@Z 10022d59 f i qui:qwidgetfactory.obj
 0001:00021d61       ??_EQScrollBar@@WGM@AEPAXI@Z 10022d61 f i qui:qwidgetfactory.obj
 0001:00021d69       ??_EQSplitter@@WCI@AEPAXI@Z 10022d69 f i qui:qwidgetfactory.obj
 0001:00021d71       ??_EQGridLayout@@WCI@AEPAXI@Z 10022d71 f i qui:qwidgetfactory.obj
 0001:00021d79       ??_EQSlider@@WCI@AEPAXI@Z  10022d79 f i qui:qwidgetfactory.obj
 0001:00021d81       ??_EQSlider@@WGM@AEPAXI@Z  10022d81 f i qui:qwidgetfactory.obj
 0001:00021d89       ??_EQProgressBar@@WCI@AEPAXI@Z 10022d89 f i qui:qwidgetfactory.obj
 0001:00021d91       ??_EQGrid@@WCI@AEPAXI@Z    10022d91 f i qui:qwidgetfactory.obj
 0001:00021d91       ??_EQHBox@@WCI@AEPAXI@Z    10022d91 f i qui:qwidgetfactory.obj
 0001:00021d91       ??_EQWidget@@WCI@AEPAXI@Z  10022d91 f i qui:qwidgetfactory.obj
 0001:00021d91       ??_EQVBox@@WCI@AEPAXI@Z    10022d91 f i qui:qwidgetfactory.obj
 0001:00021d91       ??_EQFrame@@WCI@AEPAXI@Z   10022d91 f i qui:qwidgetfactory.obj
 0001:00021d99       ??_EQDateTimeEdit@@WCI@AEPAXI@Z 10022d99 f i qui:qwidgetfactory.obj
 0001:00021da1       ??_EQTextBrowser@@WCI@AEPAXI@Z 10022da1 f i qui:qwidgetfactory.obj
 0001:00021da9       ??_EQMainWindow@@WCI@AEPAXI@Z 10022da9 f i qui:qwidgetfactory.obj
 0001:00021db1       ??_EQWidgetStack@@WCI@AEPAXI@Z 10022db1 f i qui:qwidgetfactory.obj
 0001:00021db9       ??_EQTabWidget@@WCI@AEPAXI@Z 10022db9 f i qui:qwidgetfactory.obj
 0001:00021dc1       ??_EQRadioButton@@WCI@AEPAXI@Z 10022dc1 f i qui:qwidgetfactory.obj
 0001:00021dc9       ??_EQToolBox@@WCI@AEPAXI@Z 10022dc9 f i qui:qwidgetfactory.obj
 0001:00021dd1       ??_EQListBox@@WCI@AEPAXI@Z 10022dd1 f i qui:qwidgetfactory.obj
 0001:00021dd9       ??_EQLCDNumber@@WCI@AEPAXI@Z 10022dd9 f i qui:qwidgetfactory.obj
 0001:00021de1       ??_EQIconView@@WCI@AEPAXI@Z 10022de1 f i qui:qwidgetfactory.obj
 0001:00021de9       ??_EQDial@@WCI@AEPAXI@Z    10022de9 f i qui:qwidgetfactory.obj
 0001:00021df1       ??_EQDial@@WGM@AEPAXI@Z    10022df1 f i qui:qwidgetfactory.obj
 0001:00021df9       ??_EQButtonGroup@@WCI@AEPAXI@Z 10022df9 f i qui:qwidgetfactory.obj
 0001:00021e01       ??_EQToolBar@@WCI@AEPAXI@Z 10022e01 f i qui:qwidgetfactory.obj
 0001:00021e09       ??_EQMultiLineEdit@@WCI@AEPAXI@Z 10022e09 f i qui:qwidgetfactory.obj
 0001:00021e11       ??_EQTextView@@WCI@AEPAXI@Z 10022e11 f i qui:qwidgetfactory.obj
 0001:00021e19       ??_EQComboBox@@WCI@AEPAXI@Z 10022e19 f i qui:qwidgetfactory.obj
 0001:00021e21       ??0DatabaseSupport2@@QAE@XZ 10022e21 f   qui:database.obj
 0001:00021e4b       ??_EDatabaseSupport2@@UAEPAXI@Z 10022e4b f i qui:database.obj
 0001:00021e4b       ??_GDatabaseSupport2@@UAEPAXI@Z 10022e4b f i qui:database.obj
 0001:00021e7a       ?initPreview@DatabaseSupport2@@QAEXABVQString@@0PAVQObject@@ABV?$QMap@VQString@@V1@@@@Z 10022e7a f   qui:database.obj
 0001:00021f94       ??_EQSqlForm@@UAEPAXI@Z    10022f94 f i qui:database.obj
 0001:00021f94       ??_GQSqlForm@@UAEPAXI@Z    10022f94 f i qui:database.obj
 0001:00021fb1       ??0QDesignerDataBrowser2@@QAE@PAVQWidget@@PBD@Z 10022fb1 f   qui:database.obj
 0001:00021fe9       ?metaObject@QDesignerDataBrowser2@@UBEPAVQMetaObject@@XZ 10022fe9 f i qui:database.obj
 0001:00021fee       ??_EQDesignerDataBrowser2@@UAEPAXI@Z 10022fee f i qui:database.obj
 0001:00021fee       ??_GQDesignerDataBrowser2@@UAEPAXI@Z 10022fee f i qui:database.obj
 0001:0002200a       ??1QDesignerDataBrowser2@@UAE@XZ 1002300a f i qui:database.obj
 0001:0002203c       ?event@QDesignerDataBrowser2@@MAE_NPAVQEvent@@@Z 1002303c f   qui:database.obj
 0001:000220bc       ??0QDesignerDataView2@@QAE@PAVQWidget@@PBD@Z 100230bc f   qui:database.obj
 0001:000220f4       ?metaObject@QDesignerDataView2@@UBEPAVQMetaObject@@XZ 100230f4 f i qui:database.obj
 0001:000220f9       ??_GQDesignerDataView2@@UAEPAXI@Z 100230f9 f i qui:database.obj
 0001:000220f9       ??_EQDesignerDataView2@@UAEPAXI@Z 100230f9 f i qui:database.obj
 0001:00022115       ??1QDesignerDataView2@@UAE@XZ 10023115 f i qui:database.obj
 0001:00022147       ?event@QDesignerDataView2@@MAE_NPAVQEvent@@@Z 10023147 f   qui:database.obj
 0001:0002217a       ??_EQDesignerDataView2@@WCI@AEPAXI@Z 1002317a f i qui:database.obj
 0001:00022182       ??_EQDesignerDataView2@@WHA@AEPAXI@Z 10023182 f i qui:database.obj
 0001:0002218a       ??_EQDesignerDataBrowser2@@WCI@AEPAXI@Z 1002318a f i qui:database.obj
 0001:00022192       ??_EQDesignerDataBrowser2@@WHA@AEPAXI@Z 10023192 f i qui:database.obj
 0001:0002219a       ?elementToVariant@DomTool@@SA?AVQVariant@@ABVQDomElement@@ABV2@@Z 1002319a f   qui:domtool.obj
 0001:000221ca       ?elementToVariant@DomTool@@SA?AVQVariant@@ABVQDomElement@@ABV2@AAVQString@@@Z 100231ca f   qui:domtool.obj
 0001:00023f63       ?readColor@DomTool@@SA?AVQColor@@ABVQDomElement@@@Z 10024f63 f   qui:domtool.obj
 0001:0002415e       ?fixDocument@DomTool@@SAXAAVQDomDocument@@@Z 1002515e f   qui:domtool.obj
 0001:00024c3d       ??0UibStrTable@@QAE@XZ     10025c3d f   qui:uib.obj
 0001:00024c88       ?className@QDesignerDataBrowser2@@UBEPBDXZ 10025c88 f   qui:moc_database2.obj
 0001:00024cc5       ?staticMetaObject@QDesignerDataBrowser2@@SAPAVQMetaObject@@XZ 10025cc5 f   qui:moc_database2.obj
 0001:00024d0c       ?qt_cast@QDesignerDataBrowser2@@UAEPAXPBD@Z 10025d0c f   qui:moc_database2.obj
 0001:00024d77       ?qt_invoke@QDesignerDataBrowser2@@UAE_NHPAUQUObject@@@Z 10025d77 f   qui:moc_database2.obj
 0001:00024d88       ?qt_emit@QDesignerDataBrowser2@@UAE_NHPAUQUObject@@@Z 10025d88 f   qui:moc_database2.obj
 0001:00024d99       ?qt_property@QDesignerDataBrowser2@@UAE_NHHPAVQVariant@@@Z 10025d99 f   qui:moc_database2.obj
 0001:00024dae       ?className@QDesignerDataView2@@UBEPBDXZ 10025dae f   qui:moc_database2.obj
 0001:00024deb       ?staticMetaObject@QDesignerDataView2@@SAPAVQMetaObject@@XZ 10025deb f   qui:moc_database2.obj
 0001:00024e32       ?qt_cast@QDesignerDataView2@@UAEPAXPBD@Z 10025e32 f   qui:moc_database2.obj
 0001:00024e9d       ?qt_invoke@QDesignerDataView2@@UAE_NHPAUQUObject@@@Z 10025e9d f   qui:moc_database2.obj
 0001:00024eae       ?qt_emit@QDesignerDataView2@@UAE_NHPAUQUObject@@@Z 10025eae f   qui:moc_database2.obj
 0001:00024ebf       ?qt_property@QDesignerDataView2@@UAE_NHHPAVQVariant@@@Z 10025ebf f   qui:moc_database2.obj
 0001:00024ed4       ??3@YAXPAX@Z               10025ed4 f   msvcprt:delop_s.obj
 0001:00024ee0       ___CxxFrameHandler         10025ee0 f   MSVCRT:MSVCRT.dll
 0001:00024ef0       ??_M@YGXPAXIHP6EX0@Z@Z     10025ef0 f   MSVCRT:ehvecdtr.obj
 0001:00024f70       ?__ArrayUnwind@@YGXPAXIHP6EX0@Z@Z 10025f70 f   MSVCRT:ehvecdtr.obj
 0001:00024fe4       __purecall                 10025fe4 f   MSVCRT:MSVCRT.dll
 0001:00024fea       ??2@YAPAXI@Z               10025fea f   MSVCRT:MSVCRT.dll
 0001:00024ff0       __onexit                   10025ff0 f   MSVCRT:atonexit.obj
 0001:0002501c       _atexit                    1002601c f   MSVCRT:atonexit.obj
 0001:00025030       __alloca_probe             10026030 f   MSVCRT:chkstk.obj
 0001:00025030       __chkstk                   10026030 f   MSVCRT:chkstk.obj
 0001:00025060       __ftol                     10026060 f   MSVCRT:MSVCRT.dll
 0001:00025066       ??_L@YGXPAXIHP6EX0@Z1@Z    10026066 f   MSVCRT:ehvecctr.obj
 0001:000250e8       __CRT_INIT@12              100260e8 f   MSVCRT:crtdll.obj
 0001:00025193       __DllMainCRTStartup@12     10026193 f   MSVCRT:crtdll.obj
 0001:00025230       _strlen                    10026230 f   MSVCRT:MSVCRT.dll
 0001:00025236       _memcpy                    10026236 f   MSVCRT:MSVCRT.dll
 0001:0002523c       _strcmp                    1002623c f   MSVCRT:MSVCRT.dll
 0001:00025242       _free                      10026242 f   MSVCRT:MSVCRT.dll
 0001:00025248       __except_handler3          10026248 f   MSVCRT:MSVCRT.dll
 0001:0002524e       ?terminate@@YAXXZ          1002624e f   MSVCRT:MSVCRT.dll
 0001:00025254       ___dllonexit               10026254 f   MSVCRT:MSVCRT.dll
 0001:0002525a       __initterm                 1002625a f   MSVCRT:MSVCRT.dll
 0001:00025260       _DllMain@12                10026260 f   MSVCRT:dllmain.obj
 0001:00025280       ?write@QGDict@@MBEAAVQDataStream@@AAV2@PAX@Z 10026280 f   qt-mt323:qt-mt323.dll
 0001:00025286       ?read@QGDict@@MAEAAVQDataStream@@AAV2@AAPAX@Z 10026286 f   qt-mt323:qt-mt323.dll
 0001:0002528c       ?afterSeek@QSqlCursor@@MAEXXZ 1002628c f   qt-mt323:qt-mt323.dll
 0001:00025292       ?beforeSeek@QSqlQuery@@MAEXXZ 10026292 f   qt-mt323:qt-mt323.dll
 0001:00025298       ?last@QSqlQuery@@UAE_NXZ   10026298 f   qt-mt323:qt-mt323.dll
 0001:0002529e       ?first@QSqlQuery@@UAE_NXZ  1002629e f   qt-mt323:qt-mt323.dll
 0001:000252a4       ?prev@QSqlQuery@@UAE_NXZ   100262a4 f   qt-mt323:qt-mt323.dll
 0001:000252aa       ?next@QSqlQuery@@UAE_NXZ   100262aa f   qt-mt323:qt-mt323.dll
 0001:000252b0       ?seek@QSqlQuery@@UAE_NH_N@Z 100262b0 f   qt-mt323:qt-mt323.dll
 0001:000252b6       ?exec@QSqlCursor@@MAE_NABVQString@@@Z 100262b6 f   qt-mt323:qt-mt323.dll
 0001:000252bc       ?calculateField@QSqlCursor@@MAE?AVQVariant@@ABVQString@@@Z 100262bc f   qt-mt323:qt-mt323.dll
 0001:000252c2       ?toString@QSqlCursor@@MBE?AVQString@@ABV2@PAVQSqlField@@0@Z 100262c2 f   qt-mt323:qt-mt323.dll
 0001:000252c8       ?toString@QSqlCursor@@MBE?AVQString@@PAVQSqlRecord@@ABV2@11@Z 100262c8 f   qt-mt323:qt-mt323.dll
 0001:000252ce       ?toString@QSqlCursor@@MBE?AVQString@@ABVQSqlIndex@@PAVQSqlRecord@@ABV2@22@Z 100262ce f   qt-mt323:qt-mt323.dll
 0001:000252d4       ?setName@QSqlCursor@@UAEXABVQString@@_N@Z 100262d4 f   qt-mt323:qt-mt323.dll
 0001:000252da       ?setFilter@QSqlCursor@@UAEXABVQString@@@Z 100262da f   qt-mt323:qt-mt323.dll
 0001:000252e0       ?setSort@QSqlCursor@@UAEXABVQSqlIndex@@@Z 100262e0 f   qt-mt323:qt-mt323.dll
 0001:000252e6       ?select@QSqlCursor@@UAE_NABVQString@@ABVQSqlIndex@@@Z 100262e6 f   qt-mt323:qt-mt323.dll
 0001:000252ec       ?setTrimmed@QSqlCursor@@UAEXABVQString@@_N@Z 100262ec f   qt-mt323:qt-mt323.dll
 0001:000252f2       ?setCalculated@QSqlCursor@@UAEXABVQString@@_N@Z 100262f2 f   qt-mt323:qt-mt323.dll
 0001:000252f8       ?setMode@QSqlCursor@@UAEXH@Z 100262f8 f   qt-mt323:qt-mt323.dll
 0001:000252fe       ?del@QSqlCursor@@UAEH_N@Z  100262fe f   qt-mt323:qt-mt323.dll
 0001:00025304       ?del@QSqlCursor@@MAEHABVQString@@_N@Z 10026304 f   qt-mt323:qt-mt323.dll
 0001:0002530a       ?update@QSqlCursor@@UAEH_N@Z 1002630a f   qt-mt323:qt-mt323.dll
 0001:00025310       ?update@QSqlCursor@@MAEHABVQString@@_N@Z 10026310 f   qt-mt323:qt-mt323.dll
 0001:00025316       ?primeDelete@QSqlCursor@@UAEPAVQSqlRecord@@XZ 10026316 f   qt-mt323:qt-mt323.dll
 0001:0002531c       ?primeUpdate@QSqlCursor@@UAEPAVQSqlRecord@@XZ 1002631c f   qt-mt323:qt-mt323.dll
 0001:00025322       ?primeInsert@QSqlCursor@@UAEPAVQSqlRecord@@XZ 10026322 f   qt-mt323:qt-mt323.dll
 0001:00025328       ?editBuffer@QSqlCursor@@UAEPAVQSqlRecord@@_N@Z 10026328 f   qt-mt323:qt-mt323.dll
 0001:0002532e       ?insert@QSqlCursor@@UAEXHABVQSqlFieldInfo@@@Z 1002632e f   qt-mt323:qt-mt323.dll
 0001:00025334       ?insert@QSqlCursor@@UAEH_N@Z 10026334 f   qt-mt323:qt-mt323.dll
 0001:0002533a       ?append@QSqlCursor@@UAEXABVQSqlFieldInfo@@@Z 1002633a f   qt-mt323:qt-mt323.dll
 0001:00025340       ?setPrimaryIndex@QSqlCursor@@UAEXABVQSqlIndex@@@Z 10026340 f   qt-mt323:qt-mt323.dll
 0001:00025346       ?index@QSqlCursor@@UBE?AVQSqlIndex@@ABVQStringList@@@Z 10026346 f   qt-mt323:qt-mt323.dll
 0001:0002534c       ?primaryIndex@QSqlCursor@@UBE?AVQSqlIndex@@_N@Z 1002634c f   qt-mt323:qt-mt323.dll
 0001:00025352       ?toStringList@QSqlRecord@@UBE?AVQStringList@@ABVQString@@@Z 10026352 f   qt-mt323:qt-mt323.dll
 0001:00025358       ?toString@QSqlCursor@@UBE?AVQString@@ABV2@0@Z 10026358 f   qt-mt323:qt-mt323.dll
 0001:0002535e       ?clearValues@QSqlRecord@@UAEX_N@Z 1002635e f   qt-mt323:qt-mt323.dll
 0001:00025364       ?clear@QSqlCursor@@UAEXXZ  10026364 f   qt-mt323:qt-mt323.dll
 0001:0002536a       ?remove@QSqlCursor@@UAEXH@Z 1002636a f   qt-mt323:qt-mt323.dll
 0001:00025370       ?insert@QSqlCursor@@EAEXHABVQSqlField@@@Z 10026370 f   qt-mt323:qt-mt323.dll
 0001:00025376       ?append@QSqlCursor@@EAEXABVQSqlField@@@Z 10026376 f   qt-mt323:qt-mt323.dll
 0001:0002537c       ?setNull@QSqlRecord@@UAEXH@Z 1002637c f   qt-mt323:qt-mt323.dll
 0001:00025382       ?setNull@QSqlRecord@@UAEXABVQString@@@Z 10026382 f   qt-mt323:qt-mt323.dll
 0001:00025388       ?setGenerated@QSqlCursor@@UAEXABVQString@@_N@Z 10026388 f   qt-mt323:qt-mt323.dll
 0001:0002538e       ?setGenerated@QSqlCursor@@UAEXH_N@Z 1002638e f   qt-mt323:qt-mt323.dll
 0001:00025394       ?setValue@QSqlCursor@@UAEXHABVQVariant@@@Z 10026394 f   qt-mt323:qt-mt323.dll
 0001:0002539a       ?setValue@QSqlCursor@@UAEXABVQString@@ABVQVariant@@@Z 1002639a f   qt-mt323:qt-mt323.dll
 0001:000253a0       ?value@QSqlCursor@@UBE?AVQVariant@@H@Z 100263a0 f   qt-mt323:qt-mt323.dll
 0001:000253a6       ?value@QSqlCursor@@UBE?AVQVariant@@ABVQString@@@Z 100263a6 f   qt-mt323:qt-mt323.dll
 0001:000253ac       ??0QDomDocument@@QAE@ABV0@@Z 100263ac f   qt-mt323:qt-mt323.dll
 0001:000253b2       ?setContent@QDomDocument@@QAE_NPAVQIODevice@@PAVQString@@PAH2@Z 100263b2 f   qt-mt323:qt-mt323.dll
 0001:000253b8       ??0QDomDocument@@QAE@XZ    100263b8 f   qt-mt323:qt-mt323.dll
 0001:000253be       ??1QDomText@@UAE@XZ        100263be f   qt-mt323:qt-mt323.dll
 0001:000253c4       ?toText@QDomNode@@QAE?AVQDomText@@XZ 100263c4 f   qt-mt323:qt-mt323.dll
 0001:000253ca       ??0QDomElement@@QAE@XZ     100263ca f   qt-mt323:qt-mt323.dll
 0001:000253d0       ??4QDomElement@@QAEAAV0@ABV0@@Z 100263d0 f   qt-mt323:qt-mt323.dll
 0001:000253d6       ??0QDomElement@@QAE@ABV0@@Z 100263d6 f   qt-mt323:qt-mt323.dll
 0001:000253dc       ?paint@QListBoxPixmap@@MAEXPAVQPainter@@@Z 100263dc f   qt-mt323:qt-mt323.dll
 0001:000253e2       ?rtti@QListBoxPixmap@@UBEHXZ 100263e2 f   qt-mt323:qt-mt323.dll
 0001:000253e8       ?width@QListBoxPixmap@@UBEHPBVQListBox@@@Z 100263e8 f   qt-mt323:qt-mt323.dll
 0001:000253ee       ?height@QListBoxPixmap@@UBEHPBVQListBox@@@Z 100263ee f   qt-mt323:qt-mt323.dll
 0001:000253f4       ?pixmap@QListBoxPixmap@@UBEPBVQPixmap@@XZ 100263f4 f   qt-mt323:qt-mt323.dll
 0001:000253fa       ?dragLeft@QIconViewItem@@MAEXXZ 100263fa f   qt-mt323:qt-mt323.dll
 0001:00025400       ?dragEntered@QIconViewItem@@MAEXXZ 10026400 f   qt-mt323:qt-mt323.dll
 0001:00025406       ?dropped@QIconViewItem@@MAEXPAVQDropEvent@@ABV?$QValueList@VQIconDragItem@@@@@Z 10026406 f   qt-mt323:qt-mt323.dll
 0001:0002540c       ?paintFocus@QIconViewItem@@MAEXPAVQPainter@@ABVQColorGroup@@@Z 1002640c f   qt-mt323:qt-mt323.dll
 0001:00025412       ?paintItem@QIconViewItem@@MAEXPAVQPainter@@ABVQColorGroup@@@Z 10026412 f   qt-mt323:qt-mt323.dll
 0001:00025418       ?calcRect@QIconViewItem@@MAEXABVQString@@@Z 10026418 f   qt-mt323:qt-mt323.dll
 0001:0002541e       ?removeRenameBox@QIconViewItem@@MAEXXZ 1002641e f   qt-mt323:qt-mt323.dll
 0001:00025424       ?rtti@QIconViewItem@@UBEHXZ 10026424 f   qt-mt323:qt-mt323.dll
 0001:0002542a       ?setKey@QIconViewItem@@UAEXABVQString@@@Z 1002642a f   qt-mt323:qt-mt323.dll
 0001:00025430       ?setPicture@QIconViewItem@@UAEXABVQPicture@@@Z 10026430 f   qt-mt323:qt-mt323.dll
 0001:00025436       ?setPixmap@QIconViewItem@@UAEXABVQPixmap@@@Z 10026436 f   qt-mt323:qt-mt323.dll
 0001:0002543c       ?setPixmap@QIconViewItem@@UAEXABVQPixmap@@_N1@Z 1002643c f   qt-mt323:qt-mt323.dll
 0001:00025442       ?setText@QIconViewItem@@UAEXABVQString@@@Z 10026442 f   qt-mt323:qt-mt323.dll
 0001:00025448       ?setText@QIconViewItem@@UAEXABVQString@@_N1@Z 10026448 f   qt-mt323:qt-mt323.dll
 0001:0002544e       ?compare@QIconViewItem@@UBEHPAV1@@Z 1002644e f   qt-mt323:qt-mt323.dll
 0001:00025454       ?acceptDrop@QIconViewItem@@UBE_NPBVQMimeSource@@@Z 10026454 f   qt-mt323:qt-mt323.dll
 0001:0002545a       ?moveBy@QIconViewItem@@UAEXHH@Z 1002645a f   qt-mt323:qt-mt323.dll
 0001:00025460       ?moveBy@QIconViewItem@@UAEXABVQPoint@@@Z 10026460 f   qt-mt323:qt-mt323.dll
 0001:00025466       ?move@QIconViewItem@@UAE_NHH@Z 10026466 f   qt-mt323:qt-mt323.dll
 0001:0002546c       ?move@QIconViewItem@@UAE_NABVQPoint@@@Z 1002646c f   qt-mt323:qt-mt323.dll
 0001:00025472       ?repaint@QIconViewItem@@UAEXXZ 10026472 f   qt-mt323:qt-mt323.dll
 0001:00025478       ?setSelectable@QIconViewItem@@UAEX_N@Z 10026478 f   qt-mt323:qt-mt323.dll
 0001:0002547e       ?setSelected@QIconViewItem@@UAEX_N0@Z 1002647e f   qt-mt323:qt-mt323.dll
 0001:00025484       ?setSelected@QIconViewItem@@UAEX_N@Z 10026484 f   qt-mt323:qt-mt323.dll
 0001:0002548a       ?key@QIconViewItem@@UBE?AVQString@@XZ 1002648a f   qt-mt323:qt-mt323.dll
 0001:00025490       ?picture@QIconViewItem@@UBEPAVQPicture@@XZ 10026490 f   qt-mt323:qt-mt323.dll
 0001:00025496       ?pixmap@QIconViewItem@@UBEPAVQPixmap@@XZ 10026496 f   qt-mt323:qt-mt323.dll
 0001:0002549c       ?text@QIconViewItem@@UBE?AVQString@@XZ 1002649c f   qt-mt323:qt-mt323.dll
 0001:000254a2       ?setDropEnabled@QIconViewItem@@UAEX_N@Z 100264a2 f   qt-mt323:qt-mt323.dll
 0001:000254a8       ?setDragEnabled@QIconViewItem@@UAEX_N@Z 100264a8 f   qt-mt323:qt-mt323.dll
 0001:000254ae       ?setRenameEnabled@QIconViewItem@@UAEX_N@Z 100264ae f   qt-mt323:qt-mt323.dll
 0001:000254b4       ?setText@QListBoxItem@@MAEXABVQString@@@Z 100264b4 f   qt-mt323:qt-mt323.dll
 0001:000254ba       ?paint@QListBoxText@@MAEXPAVQPainter@@@Z 100264ba f   qt-mt323:qt-mt323.dll
 0001:000254c0       ?rtti@QListBoxText@@UBEHXZ 100264c0 f   qt-mt323:qt-mt323.dll
 0001:000254c6       ?width@QListBoxText@@UBEHPBVQListBox@@@Z 100264c6 f   qt-mt323:qt-mt323.dll
 0001:000254cc       ?height@QListBoxText@@UBEHPBVQListBox@@@Z 100264cc f   qt-mt323:qt-mt323.dll
 0001:000254d2       ?pixmap@QListBoxItem@@UBEPBVQPixmap@@XZ 100264d2 f   qt-mt323:qt-mt323.dll
 0001:000254d8       ?text@QListBoxItem@@UBE?AVQString@@XZ 100264d8 f   qt-mt323:qt-mt323.dll
 0001:000254de       ?menuDelPopup@QPopupMenu@@EAEXPAV1@@Z 100264de f   qt-mt323:qt-mt323.dll
 0001:000254e4       ?menuInsPopup@QPopupMenu@@EAEXPAV1@@Z 100264e4 f   qt-mt323:qt-mt323.dll
 0001:000254ea       ?menuStateChanged@QPopupMenu@@EAEXXZ 100264ea f   qt-mt323:qt-mt323.dll
 0001:000254f0       ?menuContentsChanged@QPopupMenu@@EAEXXZ 100264f0 f   qt-mt323:qt-mt323.dll
 0001:000254f6       ?activateItemAt@QPopupMenu@@UAEXH@Z 100264f6 f   qt-mt323:qt-mt323.dll
 0001:000254fc       ?setId@QMenuData@@UAEXHH@Z 100264fc f   qt-mt323:qt-mt323.dll
 0001:00025502       ?updateItem@QPopupMenu@@UAEXH@Z 10026502 f   qt-mt323:qt-mt323.dll
 0001:00025508       ?setFirstItemActive@QPopupMenu@@EAEXXZ 10026508 f   qt-mt323:qt-mt323.dll
 0001:0002550e       ?setActiveItem@QPopupMenu@@UAEXH@Z 1002650e f   qt-mt323:qt-mt323.dll
 0001:00025514       ?setCheckable@QPopupMenu@@UAEX_N@Z 10026514 f   qt-mt323:qt-mt323.dll
 0001:0002551a       ?frameChanged@QPopupMenu@@EAEXXZ 1002651a f   qt-mt323:qt-mt323.dll
 0001:00025520       ?drawContents@QPopupMenu@@MAEXPAVQPainter@@@Z 10026520 f   qt-mt323:qt-mt323.dll
 0001:00025526       ?focusNextPrevChild@QPopupMenu@@MAE_N_N@Z 10026526 f   qt-mt323:qt-mt323.dll
 0001:0002552c       ?enabledChange@QPopupMenu@@MAEX_N@Z 1002652c f   qt-mt323:qt-mt323.dll
 0001:00025532       ?styleChange@QPopupMenu@@MAEXAAVQStyle@@@Z 10026532 f   qt-mt323:qt-mt323.dll
 0001:00025538       ?closeEvent@QPopupMenu@@MAEXPAVQCloseEvent@@@Z 10026538 f   qt-mt323:qt-mt323.dll
 0001:0002553e       ?resizeEvent@QFrame@@MAEXPAVQResizeEvent@@@Z 1002653e f   qt-mt323:qt-mt323.dll
 0001:00025544       ?paintEvent@QPopupMenu@@MAEXPAVQPaintEvent@@@Z 10026544 f   qt-mt323:qt-mt323.dll
 0001:0002554a       ?leaveEvent@QPopupMenu@@MAEXPAVQEvent@@@Z 1002654a f   qt-mt323:qt-mt323.dll
 0001:00025550       ?focusOutEvent@QPopupMenu@@MAEXPAVQFocusEvent@@@Z 10026550 f   qt-mt323:qt-mt323.dll
 0001:00025556       ?focusInEvent@QPopupMenu@@MAEXPAVQFocusEvent@@@Z 10026556 f   qt-mt323:qt-mt323.dll
 0001:0002555c       ?keyPressEvent@QPopupMenu@@MAEXPAVQKeyEvent@@@Z 1002655c f   qt-mt323:qt-mt323.dll
 0001:00025562       ?mouseMoveEvent@QPopupMenu@@MAEXPAVQMouseEvent@@@Z 10026562 f   qt-mt323:qt-mt323.dll
 0001:00025568       ?mouseReleaseEvent@QPopupMenu@@MAEXPAVQMouseEvent@@@Z 10026568 f   qt-mt323:qt-mt323.dll
 0001:0002556e       ?mousePressEvent@QPopupMenu@@MAEXPAVQMouseEvent@@@Z 1002656e f   qt-mt323:qt-mt323.dll
 0001:00025574       ?customWhatsThis@QPopupMenu@@UBE_NXZ 10026574 f   qt-mt323:qt-mt323.dll
 0001:0002557a       ?sizeHint@QPopupMenu@@UBE?AVQSize@@XZ 1002657a f   qt-mt323:qt-mt323.dll
 0001:00025580       ?hide@QPopupMenu@@UAEXXZ   10026580 f   qt-mt323:qt-mt323.dll
 0001:00025586       ?show@QPopupMenu@@UAEXXZ   10026586 f   qt-mt323:qt-mt323.dll
 0001:0002558c       ?setFont@QPopupMenu@@UAEXABVQFont@@@Z 1002658c f   qt-mt323:qt-mt323.dll
 0001:00025592       ?timerEvent@QPopupMenu@@MAEXPAVQTimerEvent@@@Z 10026592 f   qt-mt323:qt-mt323.dll
 0001:00025598       ?qt_property@QPopupMenu@@UAE_NHHPAVQVariant@@@Z 10026598 f   qt-mt323:qt-mt323.dll
 0001:0002559e       ?qt_emit@QPopupMenu@@UAE_NHPAUQUObject@@@Z 1002659e f   qt-mt323:qt-mt323.dll
 0001:000255a4       ?qt_invoke@QPopupMenu@@UAE_NHPAUQUObject@@@Z 100265a4 f   qt-mt323:qt-mt323.dll
 0001:000255aa       ?qt_cast@QPopupMenu@@UAEPAXPBD@Z 100265aa f   qt-mt323:qt-mt323.dll
 0001:000255b0       ?className@QPopupMenu@@UBEPBDXZ 100265b0 f   qt-mt323:qt-mt323.dll
 0001:000255b6       ?metaObject@QPopupMenu@@UBEPAVQMetaObject@@XZ 100265b6 f   qt-mt323:qt-mt323.dll
 0001:000255bc       ?clear@QToolBar@@UAEXXZ    100265bc f   qt-mt323:qt-mt323.dll
 0001:000255c2       ?setLabel@QToolBar@@UAEXABVQString@@@Z 100265c2 f   qt-mt323:qt-mt323.dll
 0001:000255c8       ?setStretchableWidget@QToolBar@@UAEXPAVQWidget@@@Z 100265c8 f   qt-mt323:qt-mt323.dll
 0001:000255ce       ?setOrientation@QToolBar@@UAEXW4Orientation@Qt@@@Z 100265ce f   qt-mt323:qt-mt323.dll
 0001:000255d4       ?dock@QDockWindow@@UAEXXZ  100265d4 f   qt-mt323:qt-mt323.dll
 0001:000255da       ?undock@QDockWindow@@UAEXPAVQWidget@@@Z 100265da f   qt-mt323:qt-mt323.dll
 0001:000255e0       ?undock@QDockWindow@@UAEXXZ 100265e0 f   qt-mt323:qt-mt323.dll
 0001:000255e6       ?setOpaqueMoving@QDockWindow@@UAEX_N@Z 100265e6 f   qt-mt323:qt-mt323.dll
 0001:000255ec       ?setNewLine@QDockWindow@@UAEX_N@Z 100265ec f   qt-mt323:qt-mt323.dll
 0001:000255f2       ?setFixedExtentHeight@QDockWindow@@UAEXH@Z 100265f2 f   qt-mt323:qt-mt323.dll
 0001:000255f8       ?setFixedExtentWidth@QDockWindow@@UAEXH@Z 100265f8 f   qt-mt323:qt-mt323.dll
 0001:000255fe       ?setOffset@QDockWindow@@UAEXH@Z 100265fe f   qt-mt323:qt-mt323.dll
 0001:00025604       ?setVerticallyStretchable@QDockWindow@@UAEX_N@Z 10026604 f   qt-mt323:qt-mt323.dll
 0001:0002560a       ?setHorizontallyStretchable@QDockWindow@@UAEX_N@Z 1002660a f   qt-mt323:qt-mt323.dll
 0001:00025610       ?setMovingEnabled@QDockWindow@@UAEX_N@Z 10026610 f   qt-mt323:qt-mt323.dll
 0001:00025616       ?setResizeEnabled@QDockWindow@@UAEX_N@Z 10026616 f   qt-mt323:qt-mt323.dll
 0001:0002561c       ?setCloseMode@QDockWindow@@UAEXH@Z 1002661c f   qt-mt323:qt-mt323.dll
 0001:00025622       ?setWidget@QDockWindow@@UAEXPAVQWidget@@@Z 10026622 f   qt-mt323:qt-mt323.dll
 0001:00025628       ?frameChanged@QFrame@@MAEXXZ 10026628 f   qt-mt323:qt-mt323.dll
 0001:0002562e       ?drawContents@QDockWindow@@MAEXPAVQPainter@@@Z 1002662e f   qt-mt323:qt-mt323.dll
 0001:00025634       ?drawFrame@QDockWindow@@MAEXPAVQPainter@@@Z 10026634 f   qt-mt323:qt-mt323.dll
 0001:0002563a       ?styleChange@QToolBar@@MAEXAAVQStyle@@@Z 1002663a f   qt-mt323:qt-mt323.dll
 0001:00025640       ?hideEvent@QDockWindow@@MAEXPAVQHideEvent@@@Z 10026640 f   qt-mt323:qt-mt323.dll
 0001:00025646       ?showEvent@QDockWindow@@MAEXPAVQShowEvent@@@Z 10026646 f   qt-mt323:qt-mt323.dll
 0001:0002564c       ?contextMenuEvent@QDockWindow@@MAEXPAVQContextMenuEvent@@@Z 1002664c f   qt-mt323:qt-mt323.dll
 0001:00025652       ?resizeEvent@QToolBar@@MAEXPAVQResizeEvent@@@Z 10026652 f   qt-mt323:qt-mt323.dll
 0001:00025658       ?minimumSizeHint@QToolBar@@UBE?AVQSize@@XZ 10026658 f   qt-mt323:qt-mt323.dll
 0001:0002565e       ?sizeHint@QDockWindow@@UBE?AVQSize@@XZ 1002665e f   qt-mt323:qt-mt323.dll
 0001:00025664       ?hide@QToolBar@@UAEXXZ     10026664 f   qt-mt323:qt-mt323.dll
 0001:0002566a       ?show@QToolBar@@UAEXXZ     1002666a f   qt-mt323:qt-mt323.dll
 0001:00025670       ?setCaption@QDockWindow@@UAEXABVQString@@@Z 10026670 f   qt-mt323:qt-mt323.dll
 0001:00025676       ?setMinimumSize@QToolBar@@UAEXHH@Z 10026676 f   qt-mt323:qt-mt323.dll
 0001:0002567c       ?eventFilter@QDockWindow@@UAE_NPAVQObject@@PAVQEvent@@@Z 1002667c f   qt-mt323:qt-mt323.dll
 0001:00025682       ?event@QToolBar@@UAE_NPAVQEvent@@@Z 10026682 f   qt-mt323:qt-mt323.dll
 0001:00025688       ?qt_property@QToolBar@@UAE_NHHPAVQVariant@@@Z 10026688 f   qt-mt323:qt-mt323.dll
 0001:0002568e       ?qt_emit@QToolBar@@UAE_NHPAUQUObject@@@Z 1002668e f   qt-mt323:qt-mt323.dll
 0001:00025694       ?qt_invoke@QToolBar@@UAE_NHPAUQUObject@@@Z 10026694 f   qt-mt323:qt-mt323.dll
 0001:0002569a       ?qt_cast@QToolBar@@UAEPAXPBD@Z 1002669a f   qt-mt323:qt-mt323.dll
 0001:000256a0       ?className@QToolBar@@UBEPBDXZ 100266a0 f   qt-mt323:qt-mt323.dll
 0001:000256a6       ?metaObject@QToolBar@@UBEPAVQMetaObject@@XZ 100266a6 f   qt-mt323:qt-mt323.dll
 0001:000256ac       ?addedTo@QActionGroup@@MAEXPAVQWidget@@0PAVQAction@@@Z 100266ac f   qt-mt323:qt-mt323.dll
 0001:000256b2       ?addedTo@QActionGroup@@MAEXHPAVQPopupMenu@@PAVQAction@@@Z 100266b2 f   qt-mt323:qt-mt323.dll
 0001:000256b8       ?setEnabled@QActionGroup@@UAEX_N@Z 100266b8 f   qt-mt323:qt-mt323.dll
 0001:000256be       ?setOn@QActionGroup@@UAEX_N@Z 100266be f   qt-mt323:qt-mt323.dll
 0001:000256c4       ?addedTo@QActionGroup@@MAEXPAVQWidget@@0@Z 100266c4 f   qt-mt323:qt-mt323.dll
 0001:000256ca       ?addedTo@QActionGroup@@MAEXHPAVQPopupMenu@@@Z 100266ca f   qt-mt323:qt-mt323.dll
 0001:000256d0       ?removeFrom@QActionGroup@@UAE_NPAVQWidget@@@Z 100266d0 f   qt-mt323:qt-mt323.dll
 0001:000256d6       ?addTo@QActionGroup@@UAE_NPAVQWidget@@@Z 100266d6 f   qt-mt323:qt-mt323.dll
 0001:000256dc       ?setToggleAction@QActionGroup@@UAEX_N@Z 100266dc f   qt-mt323:qt-mt323.dll
 0001:000256e2       ?setWhatsThis@QActionGroup@@UAEXABVQString@@@Z 100266e2 f   qt-mt323:qt-mt323.dll
 0001:000256e8       ?setToolTip@QActionGroup@@UAEXABVQString@@@Z 100266e8 f   qt-mt323:qt-mt323.dll
 0001:000256ee       ?setMenuText@QActionGroup@@UAEXABVQString@@@Z 100266ee f   qt-mt323:qt-mt323.dll
 0001:000256f4       ?setText@QActionGroup@@UAEXABVQString@@@Z 100266f4 f   qt-mt323:qt-mt323.dll
 0001:000256fa       ?setIconSet@QActionGroup@@UAEXABVQIconSet@@@Z 100266fa f   qt-mt323:qt-mt323.dll
 0001:00025700       ?childEvent@QActionGroup@@MAEXPAVQChildEvent@@@Z 10026700 f   qt-mt323:qt-mt323.dll
 0001:00025706       ?qt_property@QActionGroup@@UAE_NHHPAVQVariant@@@Z 10026706 f   qt-mt323:qt-mt323.dll
 0001:0002570c       ?qt_emit@QActionGroup@@UAE_NHPAUQUObject@@@Z 1002670c f   qt-mt323:qt-mt323.dll
 0001:00025712       ?qt_invoke@QActionGroup@@UAE_NHPAUQUObject@@@Z 10026712 f   qt-mt323:qt-mt323.dll
 0001:00025718       ?qt_cast@QActionGroup@@UAEPAXPBD@Z 10026718 f   qt-mt323:qt-mt323.dll
 0001:0002571e       ?className@QActionGroup@@UBEPBDXZ 1002671e f   qt-mt323:qt-mt323.dll
 0001:00025724       ?metaObject@QActionGroup@@UBEPAVQMetaObject@@XZ 10026724 f   qt-mt323:qt-mt323.dll
 0001:0002572a       ?setEnabled@QAction@@UAEX_N@Z 1002672a f   qt-mt323:qt-mt323.dll
 0001:00025730       ?setOn@QAction@@UAEX_N@Z   10026730 f   qt-mt323:qt-mt323.dll
 0001:00025736       ?addedTo@QAction@@MAEXPAVQWidget@@0@Z 10026736 f   qt-mt323:qt-mt323.dll
 0001:0002573c       ?addedTo@QAction@@MAEXHPAVQPopupMenu@@@Z 1002673c f   qt-mt323:qt-mt323.dll
 0001:00025742       ?removeFrom@QAction@@UAE_NPAVQWidget@@@Z 10026742 f   qt-mt323:qt-mt323.dll
 0001:00025748       ?addTo@QAction@@UAE_NPAVQWidget@@@Z 10026748 f   qt-mt323:qt-mt323.dll
 0001:0002574e       ?setToggleAction@QAction@@UAEX_N@Z 1002674e f   qt-mt323:qt-mt323.dll
 0001:00025754       ?setAccel@QAction@@UAEXABVQKeySequence@@@Z 10026754 f   qt-mt323:qt-mt323.dll
 0001:0002575a       ?setWhatsThis@QAction@@UAEXABVQString@@@Z 1002675a f   qt-mt323:qt-mt323.dll
 0001:00025760       ?setStatusTip@QAction@@UAEXABVQString@@@Z 10026760 f   qt-mt323:qt-mt323.dll
 0001:00025766       ?setToolTip@QAction@@UAEXABVQString@@@Z 10026766 f   qt-mt323:qt-mt323.dll
 0001:0002576c       ?setMenuText@QAction@@UAEXABVQString@@@Z 1002676c f   qt-mt323:qt-mt323.dll
 0001:00025772       ?setText@QAction@@UAEXABVQString@@@Z 10026772 f   qt-mt323:qt-mt323.dll
 0001:00025778       ?setIconSet@QAction@@UAEXABVQIconSet@@@Z 10026778 f   qt-mt323:qt-mt323.dll
 0001:0002577e       ?qt_property@QAction@@UAE_NHHPAVQVariant@@@Z 1002677e f   qt-mt323:qt-mt323.dll
 0001:00025784       ?qt_emit@QAction@@UAE_NHPAUQUObject@@@Z 10026784 f   qt-mt323:qt-mt323.dll
 0001:0002578a       ?qt_invoke@QAction@@UAE_NHPAUQUObject@@@Z 1002678a f   qt-mt323:qt-mt323.dll
 0001:00025790       ?qt_cast@QAction@@UAEPAXPBD@Z 10026790 f   qt-mt323:qt-mt323.dll
 0001:00025796       ?className@QAction@@UBEPBDXZ 10026796 f   qt-mt323:qt-mt323.dll
 0001:0002579c       ?metaObject@QAction@@UBEPAVQMetaObject@@XZ 1002679c f   qt-mt323:qt-mt323.dll
 0001:000257a2       ?setEditText@QComboBox@@UAEXABVQString@@@Z 100267a2 f   qt-mt323:qt-mt323.dll
 0001:000257a8       ?popup@QComboBox@@UAEXXZ   100267a8 f   qt-mt323:qt-mt323.dll
 0001:000257ae       ?setAutoCompletion@QComboBox@@UAEX_N@Z 100267ae f   qt-mt323:qt-mt323.dll
 0001:000257b4       ?setLineEdit@QComboBox@@UAEXPAVQLineEdit@@@Z 100267b4 f   qt-mt323:qt-mt323.dll
 0001:000257ba       ?setListBox@QComboBox@@UAEXPAVQListBox@@@Z 100267ba f   qt-mt323:qt-mt323.dll
 0001:000257c0       ?setValidator@QComboBox@@UAEXPBVQValidator@@@Z 100267c0 f   qt-mt323:qt-mt323.dll
 0001:000257c6       ?setInsertionPolicy@QComboBox@@UAEXW4Policy@1@@Z 100267c6 f   qt-mt323:qt-mt323.dll
 0001:000257cc       ?setMaxCount@QComboBox@@UAEXH@Z 100267cc f   qt-mt323:qt-mt323.dll
 0001:000257d2       ?setSizeLimit@QComboBox@@UAEXH@Z 100267d2 f   qt-mt323:qt-mt323.dll
 0001:000257d8       ?setAutoResize@QComboBox@@UAEX_N@Z 100267d8 f   qt-mt323:qt-mt323.dll
 0001:000257de       ?setCurrentText@QComboBox@@UAEXABVQString@@@Z 100267de f   qt-mt323:qt-mt323.dll
 0001:000257e4       ?setCurrentItem@QComboBox@@UAEXH@Z 100267e4 f   qt-mt323:qt-mt323.dll
 0001:000257ea       ?styleChange@QComboBox@@MAEXAAVQStyle@@@Z 100267ea f   qt-mt323:qt-mt323.dll
 0001:000257f0       ?updateMask@QComboBox@@MAEXXZ 100267f0 f   qt-mt323:qt-mt323.dll
 0001:000257f6       ?resizeEvent@QComboBox@@MAEXPAVQResizeEvent@@@Z 100267f6 f   qt-mt323:qt-mt323.dll
 0001:000257fc       ?paintEvent@QComboBox@@MAEXPAVQPaintEvent@@@Z 100267fc f   qt-mt323:qt-mt323.dll
 0001:00025802       ?focusOutEvent@QComboBox@@MAEXPAVQFocusEvent@@@Z 10026802 f   qt-mt323:qt-mt323.dll
 0001:00025808       ?focusInEvent@QComboBox@@MAEXPAVQFocusEvent@@@Z 10026808 f   qt-mt323:qt-mt323.dll
 0001:0002580e       ?keyPressEvent@QComboBox@@MAEXPAVQKeyEvent@@@Z 1002680e f   qt-mt323:qt-mt323.dll
 0001:00025814       ?wheelEvent@QComboBox@@MAEXPAVQWheelEvent@@@Z 10026814 f   qt-mt323:qt-mt323.dll
 0001:0002581a       ?mouseMoveEvent@QComboBox@@MAEXPAVQMouseEvent@@@Z 1002681a f   qt-mt323:qt-mt323.dll
 0001:00025820       ?mouseDoubleClickEvent@QComboBox@@MAEXPAVQMouseEvent@@@Z 10026820 f   qt-mt323:qt-mt323.dll
 0001:00025826       ?mouseReleaseEvent@QComboBox@@MAEXPAVQMouseEvent@@@Z 10026826 f   qt-mt323:qt-mt323.dll
 0001:0002582c       ?mousePressEvent@QComboBox@@MAEXPAVQMouseEvent@@@Z 1002682c f   qt-mt323:qt-mt323.dll
 0001:00025832       ?sizeHint@QComboBox@@UBE?AVQSize@@XZ 10026832 f   qt-mt323:qt-mt323.dll
 0001:00025838       ?setFont@QComboBox@@UAEXABVQFont@@@Z 10026838 f   qt-mt323:qt-mt323.dll
 0001:0002583e       ?setPalette@QComboBox@@UAEXABVQPalette@@@Z 1002683e f   qt-mt323:qt-mt323.dll
 0001:00025844       ?setEnabled@QComboBox@@UAEX_N@Z 10026844 f   qt-mt323:qt-mt323.dll
 0001:0002584a       ?eventFilter@QComboBox@@UAE_NPAVQObject@@PAVQEvent@@@Z 1002684a f   qt-mt323:qt-mt323.dll
 0001:00025850       ?qt_property@QComboBox@@UAE_NHHPAVQVariant@@@Z 10026850 f   qt-mt323:qt-mt323.dll
 0001:00025856       ?qt_emit@QComboBox@@UAE_NHPAUQUObject@@@Z 10026856 f   qt-mt323:qt-mt323.dll
 0001:0002585c       ?qt_invoke@QComboBox@@UAE_NHPAUQUObject@@@Z 1002685c f   qt-mt323:qt-mt323.dll
 0001:00025862       ?qt_cast@QComboBox@@UAEPAXPBD@Z 10026862 f   qt-mt323:qt-mt323.dll
 0001:00025868       ?className@QComboBox@@UBEPBDXZ 10026868 f   qt-mt323:qt-mt323.dll
 0001:0002586e       ?metaObject@QComboBox@@UBEPAVQMetaObject@@XZ 1002686e f   qt-mt323:qt-mt323.dll
 0001:00025874       ?qt_property@QTextView@@UAE_NHHPAVQVariant@@@Z 10026874 f   qt-mt323:qt-mt323.dll
 0001:0002587a       ?qt_emit@QTextView@@UAE_NHPAUQUObject@@@Z 1002687a f   qt-mt323:qt-mt323.dll
 0001:00025880       ?qt_invoke@QTextView@@UAE_NHPAUQUObject@@@Z 10026880 f   qt-mt323:qt-mt323.dll
 0001:00025886       ?qt_cast@QTextView@@UAEPAXPBD@Z 10026886 f   qt-mt323:qt-mt323.dll
 0001:0002588c       ?className@QTextView@@UBEPBDXZ 1002688c f   qt-mt323:qt-mt323.dll
 0001:00025892       ?metaObject@QTextView@@UBEPAVQMetaObject@@XZ 10026892 f   qt-mt323:qt-mt323.dll
 0001:00025898       ?end@QMultiLineEdit@@MAEX_N@Z 10026898 f   qt-mt323:qt-mt323.dll
 0001:0002589e       ?home@QMultiLineEdit@@MAEX_N@Z 1002689e f   qt-mt323:qt-mt323.dll
 0001:000258a4       ?backspace@QMultiLineEdit@@MAEXXZ 100268a4 f   qt-mt323:qt-mt323.dll
 0001:000258aa       ?cursorDown@QMultiLineEdit@@MAEX_N@Z 100268aa f   qt-mt323:qt-mt323.dll
 0001:000258b0       ?cursorUp@QMultiLineEdit@@MAEX_N@Z 100268b0 f   qt-mt323:qt-mt323.dll
 0001:000258b6       ?cursorRight@QMultiLineEdit@@MAEX_N0@Z 100268b6 f   qt-mt323:qt-mt323.dll
 0001:000258bc       ?cursorLeft@QMultiLineEdit@@MAEX_N0@Z 100268bc f   qt-mt323:qt-mt323.dll
 0001:000258c2       ?pageDown@QMultiLineEdit@@MAEX_N@Z 100268c2 f   qt-mt323:qt-mt323.dll
 0001:000258c8       ?pageUp@QMultiLineEdit@@MAEX_N@Z 100268c8 f   qt-mt323:qt-mt323.dll
 0001:000258ce       ?killLine@QMultiLineEdit@@MAEXXZ 100268ce f   qt-mt323:qt-mt323.dll
 0001:000258d4       ?newLine@QMultiLineEdit@@MAEXXZ 100268d4 f   qt-mt323:qt-mt323.dll
 0001:000258da       ?insertAndMark@QMultiLineEdit@@MAEXABVQString@@_N@Z 100268da f   qt-mt323:qt-mt323.dll
 0001:000258e0       ?setAutoUpdate@QMultiLineEdit@@UAEX_N@Z 100268e0 f   qt-mt323:qt-mt323.dll
 0001:000258e6       ?setCursorPosition@QMultiLineEdit@@UAEXHH_N@Z 100268e6 f   qt-mt323:qt-mt323.dll
 0001:000258ec       ?removeLine@QMultiLineEdit@@UAEXH@Z 100268ec f   qt-mt323:qt-mt323.dll
 0001:000258f2       ?insertAt@QMultiLineEdit@@UAEXABVQString@@HH_N@Z 100268f2 f   qt-mt323:qt-mt323.dll
 0001:000258f8       ?insertLine@QMultiLineEdit@@UAEXABVQString@@H@Z 100268f8 f   qt-mt323:qt-mt323.dll
 0001:000258fe       ?insertAt@QMultiLineEdit@@UAEXABVQString@@HH@Z 100268fe f   qt-mt323:qt-mt323.dll
 0001:00025904       ?setCursorPosition@QMultiLineEdit@@UAEXHH@Z 10026904 f   qt-mt323:qt-mt323.dll
 0001:0002590a       ?setAlignment@QMultiLineEdit@@UAEXH@Z 1002690a f   qt-mt323:qt-mt323.dll
 0001:00025910       ?qt_property@QMultiLineEdit@@UAE_NHHPAVQVariant@@@Z 10026910 f   qt-mt323:qt-mt323.dll
 0001:00025916       ?qt_emit@QMultiLineEdit@@UAE_NHPAUQUObject@@@Z 10026916 f   qt-mt323:qt-mt323.dll
 0001:0002591c       ?qt_invoke@QMultiLineEdit@@UAE_NHPAUQUObject@@@Z 1002691c f   qt-mt323:qt-mt323.dll
 0001:00025922       ?qt_cast@QMultiLineEdit@@UAEPAXPBD@Z 10026922 f   qt-mt323:qt-mt323.dll
 0001:00025928       ?className@QMultiLineEdit@@UBEPBDXZ 10026928 f   qt-mt323:qt-mt323.dll
 0001:0002592e       ?metaObject@QMultiLineEdit@@UBEPAVQMetaObject@@XZ 1002692e f   qt-mt323:qt-mt323.dll
 0001:00025934       ?moveFocus@QButtonGroup@@UAEXH@Z 10026934 f   qt-mt323:qt-mt323.dll
 0001:0002593a       ?setButton@QButtonGroup@@UAEXH@Z 1002693a f   qt-mt323:qt-mt323.dll
 0001:00025940       ?setRadioButtonExclusive@QButtonGroup@@UAEX_N@Z 10026940 f   qt-mt323:qt-mt323.dll
 0001:00025946       ?setExclusive@QButtonGroup@@UAEX_N@Z 10026946 f   qt-mt323:qt-mt323.dll
 0001:0002594c       ?event@QButtonGroup@@MAE_NPAVQEvent@@@Z 1002694c f   qt-mt323:qt-mt323.dll
 0001:00025952       ?qt_property@QButtonGroup@@UAE_NHHPAVQVariant@@@Z 10026952 f   qt-mt323:qt-mt323.dll
 0001:00025958       ?qt_emit@QButtonGroup@@UAE_NHPAUQUObject@@@Z 10026958 f   qt-mt323:qt-mt323.dll
 0001:0002595e       ?qt_invoke@QButtonGroup@@UAE_NHPAUQUObject@@@Z 1002695e f   qt-mt323:qt-mt323.dll
 0001:00025964       ?qt_cast@QButtonGroup@@UAEPAXPBD@Z 10026964 f   qt-mt323:qt-mt323.dll
 0001:0002596a       ?className@QButtonGroup@@UBEPBDXZ 1002696a f   qt-mt323:qt-mt323.dll
 0001:00025970       ?metaObject@QButtonGroup@@UBEPAVQMetaObject@@XZ 10026970 f   qt-mt323:qt-mt323.dll
 0001:00025976       ?rangeChange@QDial@@MAEXXZ 10026976 f   qt-mt323:qt-mt323.dll
 0001:0002597c       ?valueChange@QDial@@MAEXXZ 1002697c f   qt-mt323:qt-mt323.dll
 0001:00025982       ?repaintScreen@QDial@@MAEXPBVQRect@@@Z 10026982 f   qt-mt323:qt-mt323.dll
 0001:00025988       ?setTracking@QDial@@UAEX_N@Z 10026988 f   qt-mt323:qt-mt323.dll
 0001:0002598e       ?setWrapping@QDial@@UAEX_N@Z 1002698e f   qt-mt323:qt-mt323.dll
 0001:00025994       ?setNotchesVisible@QDial@@UAEX_N@Z 10026994 f   qt-mt323:qt-mt323.dll
 0001:0002599a       ?setValue@QDial@@UAEXH@Z   1002699a f   qt-mt323:qt-mt323.dll
 0001:000259a0       ?setNotchTarget@QDial@@UAEXN@Z 100269a0 f   qt-mt323:qt-mt323.dll
 0001:000259a6       ?resizeEvent@QDial@@MAEXPAVQResizeEvent@@@Z 100269a6 f   qt-mt323:qt-mt323.dll
 0001:000259ac       ?paintEvent@QDial@@MAEXPAVQPaintEvent@@@Z 100269ac f   qt-mt323:qt-mt323.dll
 0001:000259b2       ?focusOutEvent@QDial@@MAEXPAVQFocusEvent@@@Z 100269b2 f   qt-mt323:qt-mt323.dll
 0001:000259b8       ?focusInEvent@QDial@@MAEXPAVQFocusEvent@@@Z 100269b8 f   qt-mt323:qt-mt323.dll
 0001:000259be       ?keyPressEvent@QDial@@MAEXPAVQKeyEvent@@@Z 100269be f   qt-mt323:qt-mt323.dll
 0001:000259c4       ?wheelEvent@QDial@@MAEXPAVQWheelEvent@@@Z 100269c4 f   qt-mt323:qt-mt323.dll
 0001:000259ca       ?mouseMoveEvent@QDial@@MAEXPAVQMouseEvent@@@Z 100269ca f   qt-mt323:qt-mt323.dll
 0001:000259d0       ?mouseReleaseEvent@QDial@@MAEXPAVQMouseEvent@@@Z 100269d0 f   qt-mt323:qt-mt323.dll
 0001:000259d6       ?mousePressEvent@QDial@@MAEXPAVQMouseEvent@@@Z 100269d6 f   qt-mt323:qt-mt323.dll
 0001:000259dc       ?minimumSizeHint@QDial@@UBE?AVQSize@@XZ 100269dc f   qt-mt323:qt-mt323.dll
 0001:000259e2       ?sizeHint@QDial@@UBE?AVQSize@@XZ 100269e2 f   qt-mt323:qt-mt323.dll
 0001:000259e8       ?qt_property@QDial@@UAE_NHHPAVQVariant@@@Z 100269e8 f   qt-mt323:qt-mt323.dll
 0001:000259ee       ?qt_emit@QDial@@UAE_NHPAUQUObject@@@Z 100269ee f   qt-mt323:qt-mt323.dll
 0001:000259f4       ?qt_invoke@QDial@@UAE_NHPAUQUObject@@@Z 100269f4 f   qt-mt323:qt-mt323.dll
 0001:000259fa       ?qt_cast@QDial@@UAEPAXPBD@Z 100269fa f   qt-mt323:qt-mt323.dll
 0001:00025a00       ?className@QDial@@UBEPBDXZ 10026a00 f   qt-mt323:qt-mt323.dll
 0001:00025a06       ?metaObject@QDial@@UBEPAVQMetaObject@@XZ 10026a06 f   qt-mt323:qt-mt323.dll
 0001:00025a0c       ?initDragEnter@QIconView@@EAEXPAVQDropEvent@@@Z 10026a0c f   qt-mt323:qt-mt323.dll
 0001:00025a12       ?drawDragShapes@QIconView@@EAEXABVQPoint@@@Z 10026a12 f   qt-mt323:qt-mt323.dll
 0001:00025a18       ?drawBackground@QIconView@@MAEXPAVQPainter@@ABVQRect@@@Z 10026a18 f   qt-mt323:qt-mt323.dll
 0001:00025a1e       ?insertInGrid@QIconView@@MAEXPAVQIconViewItem@@@Z 10026a1e f   qt-mt323:qt-mt323.dll
 0001:00025a24       ?startDrag@QIconView@@MAEXXZ 10026a24 f   qt-mt323:qt-mt323.dll
 0001:00025a2a       ?dragObject@QIconView@@MAEPAVQDragObject@@XZ 10026a2a f   qt-mt323:qt-mt323.dll
 0001:00025a30       ?drawRubber@QIconView@@MAEXPAVQPainter@@@Z 10026a30 f   qt-mt323:qt-mt323.dll
 0001:00025a36       ?slotUpdate@QIconView@@MAEXXZ 10026a36 f   qt-mt323:qt-mt323.dll
 0001:00025a3c       ?adjustItems@QIconView@@MAEXXZ 10026a3c f   qt-mt323:qt-mt323.dll
 0001:00025a42       ?doAutoScroll@QIconView@@MAEXXZ 10026a42 f   qt-mt323:qt-mt323.dll
 0001:00025a48       ?updateContents@QIconView@@UAEXXZ 10026a48 f   qt-mt323:qt-mt323.dll
 0001:00025a4e       ?arrangeItemsInGrid@QIconView@@UAEXABVQSize@@_N@Z 10026a4e f   qt-mt323:qt-mt323.dll
 0001:00025a54       ?arrangeItemsInGrid@QIconView@@UAEX_N@Z 10026a54 f   qt-mt323:qt-mt323.dll
 0001:00025a5a       ?sort@QIconView@@UAEX_N@Z  10026a5a f   qt-mt323:qt-mt323.dll
 0001:00025a60       ?setWordWrapIconText@QIconView@@UAEX_N@Z 10026a60 f   qt-mt323:qt-mt323.dll
 0001:00025a66       ?setItemsMovable@QIconView@@UAEX_N@Z 10026a66 f   qt-mt323:qt-mt323.dll
 0001:00025a6c       ?setShowToolTips@QIconView@@UAEX_N@Z 10026a6c f   qt-mt323:qt-mt323.dll
 0001:00025a72       ?setAutoArrange@QIconView@@UAEX_N@Z 10026a72 f   qt-mt323:qt-mt323.dll
 0001:00025a78       ?setMaxItemTextLength@QIconView@@UAEXH@Z 10026a78 f   qt-mt323:qt-mt323.dll
 0001:00025a7e       ?setMaxItemWidth@QIconView@@UAEXH@Z 10026a7e f   qt-mt323:qt-mt323.dll
 0001:00025a84       ?setResizeMode@QIconView@@UAEXW4ResizeMode@1@@Z 10026a84 f   qt-mt323:qt-mt323.dll
 0001:00025a8a       ?setArrangement@QIconView@@UAEXW4Arrangement@1@@Z 10026a8a f   qt-mt323:qt-mt323.dll
 0001:00025a90       ?setItemTextBackground@QIconView@@UAEXABVQBrush@@@Z 10026a90 f   qt-mt323:qt-mt323.dll
 0001:00025a96       ?setItemTextPos@QIconView@@UAEXW4ItemTextPos@1@@Z 10026a96 f   qt-mt323:qt-mt323.dll
 0001:00025a9c       ?setSpacing@QIconView@@UAEXH@Z 10026a9c f   qt-mt323:qt-mt323.dll
 0001:00025aa2       ?setGridY@QIconView@@UAEXH@Z 10026aa2 f   qt-mt323:qt-mt323.dll
 0001:00025aa8       ?setGridX@QIconView@@UAEXH@Z 10026aa8 f   qt-mt323:qt-mt323.dll
 0001:00025aae       ?clear@QIconView@@UAEXXZ   10026aae f   qt-mt323:qt-mt323.dll
 0001:00025ab4       ?repaintItem@QIconView@@UAEXPAVQIconViewItem@@@Z 10026ab4 f   qt-mt323:qt-mt323.dll
 0001:00025aba       ?invertSelection@QIconView@@UAEXXZ 10026aba f   qt-mt323:qt-mt323.dll
 0001:00025ac0       ?clearSelection@QIconView@@UAEXXZ 10026ac0 f   qt-mt323:qt-mt323.dll
 0001:00025ac6       ?selectAll@QIconView@@UAEX_N@Z 10026ac6 f   qt-mt323:qt-mt323.dll
 0001:00025acc       ?setSelectionMode@QIconView@@UAEXW4SelectionMode@1@@Z 10026acc f   qt-mt323:qt-mt323.dll
 0001:00025ad2       ?setSelected@QIconView@@UAEXPAVQIconViewItem@@_N1@Z 10026ad2 f   qt-mt323:qt-mt323.dll
 0001:00025ad8       ?setCurrentItem@QIconView@@UAEXPAVQIconViewItem@@@Z 10026ad8 f   qt-mt323:qt-mt323.dll
 0001:00025ade       ?takeItem@QIconView@@UAEXPAVQIconViewItem@@@Z 10026ade f   qt-mt323:qt-mt323.dll
 0001:00025ae4       ?insertItem@QIconView@@UAEXPAVQIconViewItem@@0@Z 10026ae4 f   qt-mt323:qt-mt323.dll
 0001:00025aea       ?contentsContextMenuEvent@QIconView@@MAEXPAVQContextMenuEvent@@@Z 10026aea f   qt-mt323:qt-mt323.dll
 0001:00025af0       ?contentsDropEvent@QIconView@@MAEXPAVQDropEvent@@@Z 10026af0 f   qt-mt323:qt-mt323.dll
 0001:00025af6       ?contentsDragLeaveEvent@QIconView@@MAEXPAVQDragLeaveEvent@@@Z 10026af6 f   qt-mt323:qt-mt323.dll
 0001:00025afc       ?contentsDragMoveEvent@QIconView@@MAEXPAVQDragMoveEvent@@@Z 10026afc f   qt-mt323:qt-mt323.dll
 0001:00025b02       ?contentsDragEnterEvent@QIconView@@MAEXPAVQDragEnterEvent@@@Z 10026b02 f   qt-mt323:qt-mt323.dll
 0001:00025b08       ?contentsMouseMoveEvent@QIconView@@MAEXPAVQMouseEvent@@@Z 10026b08 f   qt-mt323:qt-mt323.dll
 0001:00025b0e       ?contentsMouseDoubleClickEvent@QIconView@@MAEXPAVQMouseEvent@@@Z 10026b0e f   qt-mt323:qt-mt323.dll
 0001:00025b14       ?contentsMouseReleaseEvent@QIconView@@MAEXPAVQMouseEvent@@@Z 10026b14 f   qt-mt323:qt-mt323.dll
 0001:00025b1a       ?contentsMousePressEvent@QIconView@@MAEXPAVQMouseEvent@@@Z 10026b1a f   qt-mt323:qt-mt323.dll
 0001:00025b20       ?drawContents@QIconView@@MAEXPAVQPainter@@HHHH@Z 10026b20 f   qt-mt323:qt-mt323.dll
 0001:00025b26       ?setContentsPos@QIconView@@UAEXHH@Z 10026b26 f   qt-mt323:qt-mt323.dll
 0001:00025b2c       ?drawContents@QIconView@@EAEXPAVQPainter@@@Z 10026b2c f   qt-mt323:qt-mt323.dll
 0001:00025b32       ?windowActivationChange@QIconView@@MAEX_N@Z 10026b32 f   qt-mt323:qt-mt323.dll
 0001:00025b38       ?styleChange@QIconView@@MAEXAAVQStyle@@@Z 10026b38 f   qt-mt323:qt-mt323.dll
 0001:00025b3e       ?showEvent@QIconView@@UAEXPAVQShowEvent@@@Z 10026b3e f   qt-mt323:qt-mt323.dll
 0001:00025b44       ?resizeEvent@QIconView@@MAEXPAVQResizeEvent@@@Z 10026b44 f   qt-mt323:qt-mt323.dll
 0001:00025b4a       ?enterEvent@QIconView@@MAEXPAVQEvent@@@Z 10026b4a f   qt-mt323:qt-mt323.dll
 0001:00025b50       ?focusOutEvent@QIconView@@MAEXPAVQFocusEvent@@@Z 10026b50 f   qt-mt323:qt-mt323.dll
 0001:00025b56       ?focusInEvent@QIconView@@MAEXPAVQFocusEvent@@@Z 10026b56 f   qt-mt323:qt-mt323.dll
 0001:00025b5c       ?keyPressEvent@QIconView@@MAEXPAVQKeyEvent@@@Z 10026b5c f   qt-mt323:qt-mt323.dll
 0001:00025b62       ?minimumSizeHint@QIconView@@UBE?AVQSize@@XZ 10026b62 f   qt-mt323:qt-mt323.dll
 0001:00025b68       ?sizeHint@QIconView@@UBE?AVQSize@@XZ 10026b68 f   qt-mt323:qt-mt323.dll
 0001:00025b6e       ?setFont@QIconView@@UAEXABVQFont@@@Z 10026b6e f   qt-mt323:qt-mt323.dll
 0001:00025b74       ?setPalette@QIconView@@UAEXABVQPalette@@@Z 10026b74 f   qt-mt323:qt-mt323.dll
 0001:00025b7a       ?eventFilter@QIconView@@UAE_NPAVQObject@@PAVQEvent@@@Z 10026b7a f   qt-mt323:qt-mt323.dll
 0001:00025b80       ?qt_property@QIconView@@UAE_NHHPAVQVariant@@@Z 10026b80 f   qt-mt323:qt-mt323.dll
 0001:00025b86       ?qt_emit@QIconView@@UAE_NHPAUQUObject@@@Z 10026b86 f   qt-mt323:qt-mt323.dll
 0001:00025b8c       ?qt_invoke@QIconView@@UAE_NHPAUQUObject@@@Z 10026b8c f   qt-mt323:qt-mt323.dll
 0001:00025b92       ?qt_cast@QIconView@@UAEPAXPBD@Z 10026b92 f   qt-mt323:qt-mt323.dll
 0001:00025b98       ?className@QIconView@@UBEPBDXZ 10026b98 f   qt-mt323:qt-mt323.dll
 0001:00025b9e       ?metaObject@QIconView@@UBEPAVQMetaObject@@XZ 10026b9e f   qt-mt323:qt-mt323.dll
 0001:00025ba4       ?setSmallDecimalPoint@QLCDNumber@@UAEX_N@Z 10026ba4 f   qt-mt323:qt-mt323.dll
 0001:00025baa       ?setBinMode@QLCDNumber@@UAEXXZ 10026baa f   qt-mt323:qt-mt323.dll
 0001:00025bb0       ?setOctMode@QLCDNumber@@UAEXXZ 10026bb0 f   qt-mt323:qt-mt323.dll
 0001:00025bb6       ?setDecMode@QLCDNumber@@UAEXXZ 10026bb6 f   qt-mt323:qt-mt323.dll
 0001:00025bbc       ?setHexMode@QLCDNumber@@UAEXXZ 10026bbc f   qt-mt323:qt-mt323.dll
 0001:00025bc2       ?setSegmentStyle@QLCDNumber@@UAEXW4SegmentStyle@1@@Z 10026bc2 f   qt-mt323:qt-mt323.dll
 0001:00025bc8       ?setMode@QLCDNumber@@UAEXW4Mode@1@@Z 10026bc8 f   qt-mt323:qt-mt323.dll
 0001:00025bce       ?setNumDigits@QLCDNumber@@UAEXH@Z 10026bce f   qt-mt323:qt-mt323.dll
 0001:00025bd4       ?drawContents@QLCDNumber@@MAEXPAVQPainter@@@Z 10026bd4 f   qt-mt323:qt-mt323.dll
 0001:00025bda       ?sizeHint@QLCDNumber@@UBE?AVQSize@@XZ 10026bda f   qt-mt323:qt-mt323.dll
 0001:00025be0       ?qt_property@QLCDNumber@@UAE_NHHPAVQVariant@@@Z 10026be0 f   qt-mt323:qt-mt323.dll
 0001:00025be6       ?qt_emit@QLCDNumber@@UAE_NHPAUQUObject@@@Z 10026be6 f   qt-mt323:qt-mt323.dll
 0001:00025bec       ?qt_invoke@QLCDNumber@@UAE_NHPAUQUObject@@@Z 10026bec f   qt-mt323:qt-mt323.dll
 0001:00025bf2       ?qt_cast@QLCDNumber@@UAEPAXPBD@Z 10026bf2 f   qt-mt323:qt-mt323.dll
 0001:00025bf8       ?className@QLCDNumber@@UBEPBDXZ 10026bf8 f   qt-mt323:qt-mt323.dll
 0001:00025bfe       ?metaObject@QLCDNumber@@UBEPAVQMetaObject@@XZ 10026bfe f   qt-mt323:qt-mt323.dll
 0001:00025c04       ?paintCell@QListBox@@MAEXPAVQPainter@@HH@Z 10026c04 f   qt-mt323:qt-mt323.dll
 0001:00025c0a       ?invertSelection@QListBox@@UAEXXZ 10026c0a f   qt-mt323:qt-mt323.dll
 0001:00025c10       ?selectAll@QListBox@@UAEX_N@Z 10026c10 f   qt-mt323:qt-mt323.dll
 0001:00025c16       ?clearSelection@QListBox@@UAEXXZ 10026c16 f   qt-mt323:qt-mt323.dll
 0001:00025c1c       ?ensureCurrentVisible@QListBox@@UAEXXZ 10026c1c f   qt-mt323:qt-mt323.dll
 0001:00025c22       ?setVariableHeight@QListBox@@UAEX_N@Z 10026c22 f   qt-mt323:qt-mt323.dll
 0001:00025c28       ?setVariableWidth@QListBox@@UAEX_N@Z 10026c28 f   qt-mt323:qt-mt323.dll
 0001:00025c2e       ?setRowMode@QListBox@@UAEXW4LayoutMode@1@@Z 10026c2e f   qt-mt323:qt-mt323.dll
 0001:00025c34       ?setRowMode@QListBox@@UAEXH@Z 10026c34 f   qt-mt323:qt-mt323.dll
 0001:00025c3a       ?setColumnMode@QListBox@@UAEXW4LayoutMode@1@@Z 10026c3a f   qt-mt323:qt-mt323.dll
 0001:00025c40       ?setColumnMode@QListBox@@UAEXH@Z 10026c40 f   qt-mt323:qt-mt323.dll
 0001:00025c46       ?setSelected@QListBox@@UAEXPAVQListBoxItem@@_N@Z 10026c46 f   qt-mt323:qt-mt323.dll
 0001:00025c4c       ?setSelectionMode@QListBox@@UAEXW4SelectionMode@1@@Z 10026c4c f   qt-mt323:qt-mt323.dll
 0001:00025c52       ?setBottomItem@QListBox@@UAEXH@Z 10026c52 f   qt-mt323:qt-mt323.dll
 0001:00025c58       ?setTopItem@QListBox@@UAEXH@Z 10026c58 f   qt-mt323:qt-mt323.dll
 0001:00025c5e       ?setCurrentItem@QListBox@@UAEXH@Z 10026c5e f   qt-mt323:qt-mt323.dll
 0001:00025c64       ?setCurrentItem@QListBox@@UAEXPAVQListBoxItem@@@Z 10026c64 f   qt-mt323:qt-mt323.dll
 0001:00025c6a       ?viewportResizeEvent@QScrollView@@MAEXPAVQResizeEvent@@@Z 10026c6a f   qt-mt323:qt-mt323.dll
 0001:00025c70       ?viewportPaintEvent@QListBox@@UAEXPAVQPaintEvent@@@Z 10026c70 f   qt-mt323:qt-mt323.dll
 0001:00025c76       ?contentsContextMenuEvent@QListBox@@MAEXPAVQContextMenuEvent@@@Z 10026c76 f   qt-mt323:qt-mt323.dll
 0001:00025c7c       ?contentsDropEvent@QScrollView@@MAEXPAVQDropEvent@@@Z 10026c7c f   qt-mt323:qt-mt323.dll
 0001:00025c82       ?contentsDragLeaveEvent@QScrollView@@MAEXPAVQDragLeaveEvent@@@Z 10026c82 f   qt-mt323:qt-mt323.dll
 0001:00025c88       ?contentsDragMoveEvent@QScrollView@@MAEXPAVQDragMoveEvent@@@Z 10026c88 f   qt-mt323:qt-mt323.dll
 0001:00025c8e       ?contentsDragEnterEvent@QScrollView@@MAEXPAVQDragEnterEvent@@@Z 10026c8e f   qt-mt323:qt-mt323.dll
 0001:00025c94       ?contentsMouseMoveEvent@QScrollView@@MAEXPAVQMouseEvent@@@Z 10026c94 f   qt-mt323:qt-mt323.dll
 0001:00025c9a       ?contentsMouseDoubleClickEvent@QScrollView@@MAEXPAVQMouseEvent@@@Z 10026c9a f   qt-mt323:qt-mt323.dll
 0001:00025ca0       ?contentsMouseReleaseEvent@QScrollView@@MAEXPAVQMouseEvent@@@Z 10026ca0 f   qt-mt323:qt-mt323.dll
 0001:00025ca6       ?contentsMousePressEvent@QScrollView@@MAEXPAVQMouseEvent@@@Z 10026ca6 f   qt-mt323:qt-mt323.dll
 0001:00025cac       ?windowActivationChange@QListBox@@MAEX_N@Z 10026cac f   qt-mt323:qt-mt323.dll
 0001:00025cb2       ?showEvent@QListBox@@MAEXPAVQShowEvent@@@Z 10026cb2 f   qt-mt323:qt-mt323.dll
 0001:00025cb8       ?resizeEvent@QListBox@@MAEXPAVQResizeEvent@@@Z 10026cb8 f   qt-mt323:qt-mt323.dll
 0001:00025cbe       ?focusOutEvent@QListBox@@MAEXPAVQFocusEvent@@@Z 10026cbe f   qt-mt323:qt-mt323.dll
 0001:00025cc4       ?focusInEvent@QListBox@@MAEXPAVQFocusEvent@@@Z 10026cc4 f   qt-mt323:qt-mt323.dll
 0001:00025cca       ?keyPressEvent@QListBox@@MAEXPAVQKeyEvent@@@Z 10026cca f   qt-mt323:qt-mt323.dll
 0001:00025cd0       ?mouseMoveEvent@QListBox@@MAEXPAVQMouseEvent@@@Z 10026cd0 f   qt-mt323:qt-mt323.dll
 0001:00025cd6       ?mouseDoubleClickEvent@QListBox@@MAEXPAVQMouseEvent@@@Z 10026cd6 f   qt-mt323:qt-mt323.dll
 0001:00025cdc       ?mouseReleaseEvent@QListBox@@MAEXPAVQMouseEvent@@@Z 10026cdc f   qt-mt323:qt-mt323.dll
 0001:00025ce2       ?mousePressEvent@QListBox@@MAEXPAVQMouseEvent@@@Z 10026ce2 f   qt-mt323:qt-mt323.dll
 0001:00025ce8       ?minimumSizeHint@QListBox@@UBE?AVQSize@@XZ 10026ce8 f   qt-mt323:qt-mt323.dll
 0001:00025cee       ?sizeHint@QListBox@@UBE?AVQSize@@XZ 10026cee f   qt-mt323:qt-mt323.dll
 0001:00025cf4       ?setFont@QListBox@@UAEXABVQFont@@@Z 10026cf4 f   qt-mt323:qt-mt323.dll
 0001:00025cfa       ?eventFilter@QListBox@@MAE_NPAVQObject@@PAVQEvent@@@Z 10026cfa f   qt-mt323:qt-mt323.dll
 0001:00025d00       ?qt_property@QListBox@@UAE_NHHPAVQVariant@@@Z 10026d00 f   qt-mt323:qt-mt323.dll
 0001:00025d06       ?qt_emit@QListBox@@UAE_NHPAUQUObject@@@Z 10026d06 f   qt-mt323:qt-mt323.dll
 0001:00025d0c       ?qt_invoke@QListBox@@UAE_NHPAUQUObject@@@Z 10026d0c f   qt-mt323:qt-mt323.dll
 0001:00025d12       ?qt_cast@QListBox@@UAEPAXPBD@Z 10026d12 f   qt-mt323:qt-mt323.dll
 0001:00025d18       ?className@QListBox@@UBEPBDXZ 10026d18 f   qt-mt323:qt-mt323.dll
 0001:00025d1e       ?metaObject@QListBox@@UBEPAVQMetaObject@@XZ 10026d1e f   qt-mt323:qt-mt323.dll
 0001:00025d24       ?itemRemoved@QToolBox@@MAEXH@Z 10026d24 f   qt-mt323:qt-mt323.dll
 0001:00025d2a       ?itemInserted@QToolBox@@MAEXH@Z 10026d2a f   qt-mt323:qt-mt323.dll
 0001:00025d30       ?frameChanged@QToolBox@@MAEXXZ 10026d30 f   qt-mt323:qt-mt323.dll
 0001:00025d36       ?styleChange@QToolBox@@MAEXAAVQStyle@@@Z 10026d36 f   qt-mt323:qt-mt323.dll
 0001:00025d3c       ?showEvent@QToolBox@@MAEXPAVQShowEvent@@@Z 10026d3c f   qt-mt323:qt-mt323.dll
 0001:00025d42       ?qt_property@QToolBox@@UAE_NHHPAVQVariant@@@Z 10026d42 f   qt-mt323:qt-mt323.dll
 0001:00025d48       ?qt_emit@QToolBox@@UAE_NHPAUQUObject@@@Z 10026d48 f   qt-mt323:qt-mt323.dll
 0001:00025d4e       ?qt_invoke@QToolBox@@UAE_NHPAUQUObject@@@Z 10026d4e f   qt-mt323:qt-mt323.dll
 0001:00025d54       ?qt_cast@QToolBox@@UAEPAXPBD@Z 10026d54 f   qt-mt323:qt-mt323.dll
 0001:00025d5a       ?className@QToolBox@@UBEPBDXZ 10026d5a f   qt-mt323:qt-mt323.dll
 0001:00025d60       ?metaObject@QToolBox@@UBEPAVQMetaObject@@XZ 10026d60 f   qt-mt323:qt-mt323.dll
 0001:00025d66       ?setChecked@QRadioButton@@UAEX_N@Z 10026d66 f   qt-mt323:qt-mt323.dll
 0001:00025d6c       ?drawButtonLabel@QRadioButton@@MAEXPAVQPainter@@@Z 10026d6c f   qt-mt323:qt-mt323.dll
 0001:00025d72       ?drawButton@QRadioButton@@MAEXPAVQPainter@@@Z 10026d72 f   qt-mt323:qt-mt323.dll
 0001:00025d78       ?hitButton@QRadioButton@@MBE_NABVQPoint@@@Z 10026d78 f   qt-mt323:qt-mt323.dll
 0001:00025d7e       ?updateMask@QRadioButton@@MAEXXZ 10026d7e f   qt-mt323:qt-mt323.dll
 0001:00025d84       ?resizeEvent@QRadioButton@@MAEXPAVQResizeEvent@@@Z 10026d84 f   qt-mt323:qt-mt323.dll
 0001:00025d8a       ?sizeHint@QRadioButton@@UBE?AVQSize@@XZ 10026d8a f   qt-mt323:qt-mt323.dll
 0001:00025d90       ?qt_property@QRadioButton@@UAE_NHHPAVQVariant@@@Z 10026d90 f   qt-mt323:qt-mt323.dll
 0001:00025d96       ?qt_emit@QRadioButton@@UAE_NHPAUQUObject@@@Z 10026d96 f   qt-mt323:qt-mt323.dll
 0001:00025d9c       ?qt_invoke@QRadioButton@@UAE_NHPAUQUObject@@@Z 10026d9c f   qt-mt323:qt-mt323.dll
 0001:00025da2       ?qt_cast@QRadioButton@@UAEPAXPBD@Z 10026da2 f   qt-mt323:qt-mt323.dll
 0001:00025da8       ?className@QRadioButton@@UBEPBDXZ 10026da8 f   qt-mt323:qt-mt323.dll
 0001:00025dae       ?metaObject@QRadioButton@@UBEPAVQMetaObject@@XZ 10026dae f   qt-mt323:qt-mt323.dll
 0001:00025db4       ?removePage@QTabWidget@@UAEXPAVQWidget@@@Z 10026db4 f   qt-mt323:qt-mt323.dll
 0001:00025dba       ?showPage@QTabWidget@@UAEXPAVQWidget@@@Z 10026dba f   qt-mt323:qt-mt323.dll
 0001:00025dc0       ?insertTab@QTabWidget@@UAEXPAVQWidget@@ABVQString@@H@Z 10026dc0 f   qt-mt323:qt-mt323.dll
 0001:00025dc6       ?insertTab@QTabWidget@@UAEXPAVQWidget@@ABVQIconSet@@ABVQString@@H@Z 10026dc6 f   qt-mt323:qt-mt323.dll
 0001:00025dcc       ?insertTab@QTabWidget@@UAEXPAVQWidget@@PAVQTab@@H@Z 10026dcc f   qt-mt323:qt-mt323.dll
 0001:00025dd2       ?addTab@QTabWidget@@UAEXPAVQWidget@@ABVQString@@@Z 10026dd2 f   qt-mt323:qt-mt323.dll
 0001:00025dd8       ?addTab@QTabWidget@@UAEXPAVQWidget@@ABVQIconSet@@ABVQString@@@Z 10026dd8 f   qt-mt323:qt-mt323.dll
 0001:00025dde       ?addTab@QTabWidget@@UAEXPAVQWidget@@PAVQTab@@@Z 10026dde f   qt-mt323:qt-mt323.dll
 0001:00025de4       ?styleChange@QTabWidget@@MAEXAAVQStyle@@@Z 10026de4 f   qt-mt323:qt-mt323.dll
 0001:00025dea       ?updateMask@QTabWidget@@MAEXXZ 10026dea f   qt-mt323:qt-mt323.dll
 0001:00025df0       ?showEvent@QTabWidget@@MAEXPAVQShowEvent@@@Z 10026df0 f   qt-mt323:qt-mt323.dll
 0001:00025df6       ?resizeEvent@QTabWidget@@MAEXPAVQResizeEvent@@@Z 10026df6 f   qt-mt323:qt-mt323.dll
 0001:00025dfc       ?minimumSizeHint@QTabWidget@@UBE?AVQSize@@XZ 10026dfc f   qt-mt323:qt-mt323.dll
 0001:00025e02       ?sizeHint@QTabWidget@@UBE?AVQSize@@XZ 10026e02 f   qt-mt323:qt-mt323.dll
 0001:00025e08       ?eventFilter@QTabWidget@@MAE_NPAVQObject@@PAVQEvent@@@Z 10026e08 f   qt-mt323:qt-mt323.dll
 0001:00025e0e       ?qt_property@QTabWidget@@UAE_NHHPAVQVariant@@@Z 10026e0e f   qt-mt323:qt-mt323.dll
 0001:00025e14       ?qt_emit@QTabWidget@@UAE_NHPAUQUObject@@@Z 10026e14 f   qt-mt323:qt-mt323.dll
 0001:00025e1a       ?qt_invoke@QTabWidget@@UAE_NHPAUQUObject@@@Z 10026e1a f   qt-mt323:qt-mt323.dll
 0001:00025e20       ?qt_cast@QTabWidget@@UAEPAXPBD@Z 10026e20 f   qt-mt323:qt-mt323.dll
 0001:00025e26       ?className@QTabWidget@@UBEPBDXZ 10026e26 f   qt-mt323:qt-mt323.dll
 0001:00025e2c       ?metaObject@QTabWidget@@UBEPAVQMetaObject@@XZ 10026e2c f   qt-mt323:qt-mt323.dll
 0001:00025e32       ?setChildGeometries@QWidgetStack@@MAEXXZ 10026e32 f   qt-mt323:qt-mt323.dll
 0001:00025e38       ?frameChanged@QWidgetStack@@MAEXXZ 10026e38 f   qt-mt323:qt-mt323.dll
 0001:00025e3e       ?setFrameRect@QWidgetStack@@UAEXABVQRect@@@Z 10026e3e f   qt-mt323:qt-mt323.dll
 0001:00025e44       ?resizeEvent@QWidgetStack@@MAEXPAVQResizeEvent@@@Z 10026e44 f   qt-mt323:qt-mt323.dll
 0001:00025e4a       ?minimumSizeHint@QWidgetStack@@UBE?AVQSize@@XZ 10026e4a f   qt-mt323:qt-mt323.dll
 0001:00025e50       ?sizeHint@QWidgetStack@@UBE?AVQSize@@XZ 10026e50 f   qt-mt323:qt-mt323.dll
 0001:00025e56       ?show@QWidgetStack@@UAEXXZ 10026e56 f   qt-mt323:qt-mt323.dll
 0001:00025e5c       ?childEvent@QWidgetStack@@MAEXPAVQChildEvent@@@Z 10026e5c f   qt-mt323:qt-mt323.dll
 0001:00025e62       ?qt_property@QWidgetStack@@UAE_NHHPAVQVariant@@@Z 10026e62 f   qt-mt323:qt-mt323.dll
 0001:00025e68       ?qt_emit@QWidgetStack@@UAE_NHPAUQUObject@@@Z 10026e68 f   qt-mt323:qt-mt323.dll
 0001:00025e6e       ?qt_invoke@QWidgetStack@@UAE_NHPAUQUObject@@@Z 10026e6e f   qt-mt323:qt-mt323.dll
 0001:00025e74       ?qt_cast@QWidgetStack@@UAEPAXPBD@Z 10026e74 f   qt-mt323:qt-mt323.dll
 0001:00025e7a       ?className@QWidgetStack@@UBEPBDXZ 10026e7a f   qt-mt323:qt-mt323.dll
 0001:00025e80       ?metaObject@QWidgetStack@@UBEPAVQMetaObject@@XZ 10026e80 f   qt-mt323:qt-mt323.dll
 0001:00025e86       ?setToolTipGroup@QMainWindow@@EAEXPAVQToolTipGroup@@@Z 10026e86 f   qt-mt323:qt-mt323.dll
 0001:00025e8c       ?setStatusBar@QMainWindow@@EAEXPAVQStatusBar@@@Z 10026e8c f   qt-mt323:qt-mt323.dll
 0001:00025e92       ?setMenuBar@QMainWindow@@EAEXPAVQMenuBar@@@Z 10026e92 f   qt-mt323:qt-mt323.dll
 0001:00025e98       ?showDockMenu@QMainWindow@@MAE_NABVQPoint@@@Z 10026e98 f   qt-mt323:qt-mt323.dll
 0001:00025e9e       ?setUpLayout@QMainWindow@@MAEXXZ 10026e9e f   qt-mt323:qt-mt323.dll
 0001:00025ea4       ?customize@QMainWindow@@UAEXXZ 10026ea4 f   qt-mt323:qt-mt323.dll
 0001:00025eaa       ?setAppropriate@QMainWindow@@UAEXPAVQDockWindow@@_N@Z 10026eaa f   qt-mt323:qt-mt323.dll
 0001:00025eb0       ?whatsThis@QMainWindow@@UAEXXZ 10026eb0 f   qt-mt323:qt-mt323.dll
 0001:00025eb6       ?setDockMenuEnabled@QMainWindow@@UAEX_N@Z 10026eb6 f   qt-mt323:qt-mt323.dll
 0001:00025ebc       ?setOpaqueMoving@QMainWindow@@UAEX_N@Z 10026ebc f   qt-mt323:qt-mt323.dll
 0001:00025ec2       ?setDockWindowsMovable@QMainWindow@@UAEX_N@Z 10026ec2 f   qt-mt323:qt-mt323.dll
 0001:00025ec8       ?setUsesTextLabel@QMainWindow@@UAEX_N@Z 10026ec8 f   qt-mt323:qt-mt323.dll
 0001:00025ece       ?setUsesBigPixmaps@QMainWindow@@UAEX_N@Z 10026ece f   qt-mt323:qt-mt323.dll
 0001:00025ed4       ?setRightJustification@QMainWindow@@UAEX_N@Z 10026ed4 f   qt-mt323:qt-mt323.dll
 0001:00025eda       ?isCustomizable@QMainWindow@@UBE_NXZ 10026eda f   qt-mt323:qt-mt323.dll
 0001:00025ee0       ?dockingArea@QMainWindow@@UAEPAVQDockArea@@ABVQPoint@@@Z 10026ee0 f   qt-mt323:qt-mt323.dll
 0001:00025ee6       ?removeDockWindow@QMainWindow@@UAEXPAVQDockWindow@@@Z 10026ee6 f   qt-mt323:qt-mt323.dll
 0001:00025eec       ?moveDockWindow@QMainWindow@@UAEXPAVQDockWindow@@W4Dock@Qt@@@Z 10026eec f   qt-mt323:qt-mt323.dll
 0001:00025ef2       ?moveDockWindow@QMainWindow@@UAEXPAVQDockWindow@@W4Dock@Qt@@_NHH@Z 10026ef2 f   qt-mt323:qt-mt323.dll
 0001:00025ef8       ?addDockWindow@QMainWindow@@UAEXPAVQDockWindow@@W4Dock@Qt@@_N@Z 10026ef8 f   qt-mt323:qt-mt323.dll
 0001:00025efe       ?addDockWindow@QMainWindow@@UAEXPAVQDockWindow@@ABVQString@@W4Dock@Qt@@_N@Z 10026efe f   qt-mt323:qt-mt323.dll
 0001:00025f04       ?setDockEnabled@QMainWindow@@UAEXW4Dock@Qt@@_N@Z 10026f04 f   qt-mt323:qt-mt323.dll
 0001:00025f0a       ?setDockEnabled@QMainWindow@@UAEXPAVQDockWindow@@W4Dock@Qt@@_N@Z 10026f0a f   qt-mt323:qt-mt323.dll
 0001:00025f10       ?setCentralWidget@QMainWindow@@UAEXPAVQWidget@@@Z 10026f10 f   qt-mt323:qt-mt323.dll
 0001:00025f16       ?styleChange@QMainWindow@@MAEXAAVQStyle@@@Z 10026f16 f   qt-mt323:qt-mt323.dll
 0001:00025f1c       ?paintEvent@QMainWindow@@MAEXPAVQPaintEvent@@@Z 10026f1c f   qt-mt323:qt-mt323.dll
 0001:00025f22       ?minimumSizeHint@QMainWindow@@UBE?AVQSize@@XZ 10026f22 f   qt-mt323:qt-mt323.dll
 0001:00025f28       ?sizeHint@QMainWindow@@UBE?AVQSize@@XZ 10026f28 f   qt-mt323:qt-mt323.dll
 0001:00025f2e       ?hide@QMainWindow@@UAEXXZ  10026f2e f   qt-mt323:qt-mt323.dll
 0001:00025f34       ?show@QMainWindow@@UAEXXZ  10026f34 f   qt-mt323:qt-mt323.dll
 0001:00025f3a       ?childEvent@QMainWindow@@MAEXPAVQChildEvent@@@Z 10026f3a f   qt-mt323:qt-mt323.dll
 0001:00025f40       ?eventFilter@QMainWindow@@UAE_NPAVQObject@@PAVQEvent@@@Z 10026f40 f   qt-mt323:qt-mt323.dll
 0001:00025f46       ?event@QMainWindow@@MAE_NPAVQEvent@@@Z 10026f46 f   qt-mt323:qt-mt323.dll
 0001:00025f4c       ?qt_property@QMainWindow@@UAE_NHHPAVQVariant@@@Z 10026f4c f   qt-mt323:qt-mt323.dll
 0001:00025f52       ?qt_emit@QMainWindow@@UAE_NHPAUQUObject@@@Z 10026f52 f   qt-mt323:qt-mt323.dll
 0001:00025f58       ?qt_invoke@QMainWindow@@UAE_NHPAUQUObject@@@Z 10026f58 f   qt-mt323:qt-mt323.dll
 0001:00025f5e       ?qt_cast@QMainWindow@@UAEPAXPBD@Z 10026f5e f   qt-mt323:qt-mt323.dll
 0001:00025f64       ?className@QMainWindow@@UBEPBDXZ 10026f64 f   qt-mt323:qt-mt323.dll
 0001:00025f6a       ?metaObject@QMainWindow@@UBEPAVQMetaObject@@XZ 10026f6a f   qt-mt323:qt-mt323.dll
 0001:00025f70       ?qt_property@QVBox@@UAE_NHHPAVQVariant@@@Z 10026f70 f   qt-mt323:qt-mt323.dll
 0001:00025f76       ?qt_emit@QVBox@@UAE_NHPAUQUObject@@@Z 10026f76 f   qt-mt323:qt-mt323.dll
 0001:00025f7c       ?qt_invoke@QVBox@@UAE_NHPAUQUObject@@@Z 10026f7c f   qt-mt323:qt-mt323.dll
 0001:00025f82       ?qt_cast@QVBox@@UAEPAXPBD@Z 10026f82 f   qt-mt323:qt-mt323.dll
 0001:00025f88       ?className@QVBox@@UBEPBDXZ 10026f88 f   qt-mt323:qt-mt323.dll
 0001:00025f8e       ?metaObject@QVBox@@UBEPAVQMetaObject@@XZ 10026f8e f   qt-mt323:qt-mt323.dll
 0001:00025f94       ?reload@QTextBrowser@@UAEXXZ 10026f94 f   qt-mt323:qt-mt323.dll
 0001:00025f9a       ?home@QTextBrowser@@UAEXXZ 10026f9a f   qt-mt323:qt-mt323.dll
 0001:00025fa0       ?forward@QTextBrowser@@UAEXXZ 10026fa0 f   qt-mt323:qt-mt323.dll
 0001:00025fa6       ?backward@QTextBrowser@@UAEXXZ 10026fa6 f   qt-mt323:qt-mt323.dll
 0001:00025fac       ?setSource@QTextBrowser@@UAEXABVQString@@@Z 10026fac f   qt-mt323:qt-mt323.dll
 0001:00025fb2       ?emitLinkClicked@QTextBrowser@@EAEXABVQString@@@Z 10026fb2 f   qt-mt323:qt-mt323.dll
 0001:00025fb8       ?emitHighlighted@QTextBrowser@@EAEXABVQString@@@Z 10026fb8 f   qt-mt323:qt-mt323.dll
 0001:00025fbe       ?linksEnabled@QTextBrowser@@EBE_NXZ 10026fbe f   qt-mt323:qt-mt323.dll
 0001:00025fc4       ?setText@QTextBrowser@@UAEXABVQString@@0@Z 10026fc4 f   qt-mt323:qt-mt323.dll
 0001:00025fca       ?keyPressEvent@QTextBrowser@@MAEXPAVQKeyEvent@@@Z 10026fca f   qt-mt323:qt-mt323.dll
 0001:00025fd0       ?qt_property@QTextBrowser@@UAE_NHHPAVQVariant@@@Z 10026fd0 f   qt-mt323:qt-mt323.dll
 0001:00025fd6       ?qt_emit@QTextBrowser@@UAE_NHPAUQUObject@@@Z 10026fd6 f   qt-mt323:qt-mt323.dll
 0001:00025fdc       ?qt_invoke@QTextBrowser@@UAE_NHPAUQUObject@@@Z 10026fdc f   qt-mt323:qt-mt323.dll
 0001:00025fe2       ?qt_cast@QTextBrowser@@UAEPAXPBD@Z 10026fe2 f   qt-mt323:qt-mt323.dll
 0001:00025fe8       ?className@QTextBrowser@@UBEPBDXZ 10026fe8 f   qt-mt323:qt-mt323.dll
 0001:00025fee       ?metaObject@QTextBrowser@@UBEPAVQMetaObject@@XZ 10026fee f   qt-mt323:qt-mt323.dll
 0001:00025ff4       ?setAutoAdvance@QDateTimeEdit@@UAEX_N@Z 10026ff4 f   qt-mt323:qt-mt323.dll
 0001:00025ffa       ?setDateTime@QDateTimeEdit@@UAEXABVQDateTime@@@Z 10026ffa f   qt-mt323:qt-mt323.dll
 0001:00026000       ?resizeEvent@QDateTimeEdit@@MAEXPAVQResizeEvent@@@Z 10027000 f   qt-mt323:qt-mt323.dll
 0001:00026006       ?minimumSizeHint@QDateTimeEdit@@UBE?AVQSize@@XZ 10027006 f   qt-mt323:qt-mt323.dll
 0001:0002600c       ?sizeHint@QDateTimeEdit@@UBE?AVQSize@@XZ 1002700c f   qt-mt323:qt-mt323.dll
 0001:00026012       ?qt_property@QDateTimeEdit@@UAE_NHHPAVQVariant@@@Z 10027012 f   qt-mt323:qt-mt323.dll
 0001:00026018       ?qt_emit@QDateTimeEdit@@UAE_NHPAUQUObject@@@Z 10027018 f   qt-mt323:qt-mt323.dll
 0001:0002601e       ?qt_invoke@QDateTimeEdit@@UAE_NHPAUQUObject@@@Z 1002701e f   qt-mt323:qt-mt323.dll
 0001:00026024       ?qt_cast@QDateTimeEdit@@UAEPAXPBD@Z 10027024 f   qt-mt323:qt-mt323.dll
 0001:0002602a       ?className@QDateTimeEdit@@UBEPBDXZ 1002702a f   qt-mt323:qt-mt323.dll
 0001:00026030       ?metaObject@QDateTimeEdit@@UBEPAVQMetaObject@@XZ 10027030 f   qt-mt323:qt-mt323.dll
 0001:00026036       ?sizeHint@QFrame@@UBE?AVQSize@@XZ 10027036 f   qt-mt323:qt-mt323.dll
 0001:0002603c       ?qt_property@QFrame@@UAE_NHHPAVQVariant@@@Z 1002703c f   qt-mt323:qt-mt323.dll
 0001:00026042       ?qt_emit@QFrame@@UAE_NHPAUQUObject@@@Z 10027042 f   qt-mt323:qt-mt323.dll
 0001:00026048       ?qt_invoke@QFrame@@UAE_NHPAUQUObject@@@Z 10027048 f   qt-mt323:qt-mt323.dll
 0001:0002604e       ?qt_cast@QFrame@@UAEPAXPBD@Z 1002704e f   qt-mt323:qt-mt323.dll
 0001:00026054       ?className@QFrame@@UBEPBDXZ 10027054 f   qt-mt323:qt-mt323.dll
 0001:0002605a       ?metaObject@QFrame@@UBEPAVQMetaObject@@XZ 1002705a f   qt-mt323:qt-mt323.dll
 0001:00026060       ?setIndicator@QProgressBar@@MAE_NAAVQString@@HH@Z 10027060 f   qt-mt323:qt-mt323.dll
 0001:00026066       ?setProgress@QProgressBar@@UAEXH@Z 10027066 f   qt-mt323:qt-mt323.dll
 0001:0002606c       ?setTotalSteps@QProgressBar@@UAEXH@Z 1002706c f   qt-mt323:qt-mt323.dll
 0001:00026072       ?drawContents@QProgressBar@@MAEXPAVQPainter@@@Z 10027072 f   qt-mt323:qt-mt323.dll
 0001:00026078       ?styleChange@QProgressBar@@MAEXAAVQStyle@@@Z 10027078 f   qt-mt323:qt-mt323.dll
 0001:0002607e       ?minimumSizeHint@QProgressBar@@UBE?AVQSize@@XZ 1002707e f   qt-mt323:qt-mt323.dll
 0001:00026084       ?sizeHint@QProgressBar@@UBE?AVQSize@@XZ 10027084 f   qt-mt323:qt-mt323.dll
 0001:0002608a       ?show@QProgressBar@@UAEXXZ 1002708a f   qt-mt323:qt-mt323.dll
 0001:00026090       ?qt_property@QProgressBar@@UAE_NHHPAVQVariant@@@Z 10027090 f   qt-mt323:qt-mt323.dll
 0001:00026096       ?qt_emit@QProgressBar@@UAE_NHPAUQUObject@@@Z 10027096 f   qt-mt323:qt-mt323.dll
 0001:0002609c       ?qt_invoke@QProgressBar@@UAE_NHPAUQUObject@@@Z 1002709c f   qt-mt323:qt-mt323.dll
 0001:000260a2       ?qt_cast@QProgressBar@@UAEPAXPBD@Z 100270a2 f   qt-mt323:qt-mt323.dll
 0001:000260a8       ?className@QProgressBar@@UBEPBDXZ 100270a8 f   qt-mt323:qt-mt323.dll
 0001:000260ae       ?metaObject@QProgressBar@@UBEPAVQMetaObject@@XZ 100270ae f   qt-mt323:qt-mt323.dll
 0001:000260b4       ?rangeChange@QSlider@@MAEXXZ 100270b4 f   qt-mt323:qt-mt323.dll
 0001:000260ba       ?valueChange@QSlider@@MAEXXZ 100270ba f   qt-mt323:qt-mt323.dll
 0001:000260c0       ?setValue@QSlider@@UAEXH@Z 100270c0 f   qt-mt323:qt-mt323.dll
 0001:000260c6       ?setTickInterval@QSlider@@UAEXH@Z 100270c6 f   qt-mt323:qt-mt323.dll
 0001:000260cc       ?setTickmarks@QSlider@@UAEXW4TickSetting@1@@Z 100270cc f   qt-mt323:qt-mt323.dll
 0001:000260d2       ?setTracking@QSlider@@UAEX_N@Z 100270d2 f   qt-mt323:qt-mt323.dll
 0001:000260d8       ?setOrientation@QSlider@@UAEXW4Orientation@Qt@@@Z 100270d8 f   qt-mt323:qt-mt323.dll
 0001:000260de       ?styleChange@QSlider@@MAEXAAVQStyle@@@Z 100270de f   qt-mt323:qt-mt323.dll
 0001:000260e4       ?resizeEvent@QSlider@@MAEXPAVQResizeEvent@@@Z 100270e4 f   qt-mt323:qt-mt323.dll
 0001:000260ea       ?paintEvent@QSlider@@MAEXPAVQPaintEvent@@@Z 100270ea f   qt-mt323:qt-mt323.dll
 0001:000260f0       ?focusOutEvent@QSlider@@MAEXPAVQFocusEvent@@@Z 100270f0 f   qt-mt323:qt-mt323.dll
 0001:000260f6       ?focusInEvent@QSlider@@MAEXPAVQFocusEvent@@@Z 100270f6 f   qt-mt323:qt-mt323.dll
 0001:000260fc       ?keyPressEvent@QSlider@@MAEXPAVQKeyEvent@@@Z 100270fc f   qt-mt323:qt-mt323.dll
 0001:00026102       ?wheelEvent@QSlider@@MAEXPAVQWheelEvent@@@Z 10027102 f   qt-mt323:qt-mt323.dll
 0001:00026108       ?mouseMoveEvent@QSlider@@MAEXPAVQMouseEvent@@@Z 10027108 f   qt-mt323:qt-mt323.dll
 0001:0002610e       ?mouseReleaseEvent@QSlider@@MAEXPAVQMouseEvent@@@Z 1002710e f   qt-mt323:qt-mt323.dll
 0001:00026114       ?mousePressEvent@QSlider@@MAEXPAVQMouseEvent@@@Z 10027114 f   qt-mt323:qt-mt323.dll
 0001:0002611a       ?setSizePolicy@QSlider@@UAEXVQSizePolicy@@@Z 1002711a f   qt-mt323:qt-mt323.dll
 0001:00026120       ?sizePolicy@QSlider@@UBE?AVQSizePolicy@@XZ 10027120 f   qt-mt323:qt-mt323.dll
 0001:00026126       ?minimumSizeHint@QSlider@@UBE?AVQSize@@XZ 10027126 f   qt-mt323:qt-mt323.dll
 0001:0002612c       ?sizeHint@QSlider@@UBE?AVQSize@@XZ 1002712c f   qt-mt323:qt-mt323.dll
 0001:00026132       ?setPalette@QSlider@@UAEXABVQPalette@@@Z 10027132 f   qt-mt323:qt-mt323.dll
 0001:00026138       ?qt_property@QSlider@@UAE_NHHPAVQVariant@@@Z 10027138 f   qt-mt323:qt-mt323.dll
 0001:0002613e       ?qt_emit@QSlider@@UAE_NHPAUQUObject@@@Z 1002713e f   qt-mt323:qt-mt323.dll
 0001:00026144       ?qt_invoke@QSlider@@UAE_NHPAUQUObject@@@Z 10027144 f   qt-mt323:qt-mt323.dll
 0001:0002614a       ?qt_cast@QSlider@@UAEPAXPBD@Z 1002714a f   qt-mt323:qt-mt323.dll
 0001:00026150       ?className@QSlider@@UBEPBDXZ 10027150 f   qt-mt323:qt-mt323.dll
 0001:00026156       ?metaObject@QSlider@@UBEPAVQMetaObject@@XZ 10027156 f   qt-mt323:qt-mt323.dll
 0001:0002615c       ?setRubberband@QSplitter@@MAEXH@Z 1002715c f   qt-mt323:qt-mt323.dll
 0001:00026162       ?drawSplitter@QSplitter@@MAEXPAVQPainter@@HHHH@Z 10027162 f   qt-mt323:qt-mt323.dll
 0001:00026168       ?setOpaqueResize@QSplitter@@UAEX_N@Z 10027168 f   qt-mt323:qt-mt323.dll
 0001:0002616e       ?setResizeMode@QSplitter@@UAEXPAVQWidget@@W4ResizeMode@1@@Z 1002716e f   qt-mt323:qt-mt323.dll
 0001:00026174       ?setOrientation@QSplitter@@UAEXW4Orientation@Qt@@@Z 10027174 f   qt-mt323:qt-mt323.dll
 0001:0002617a       ?styleChange@QSplitter@@MAEXAAVQStyle@@@Z 1002717a f   qt-mt323:qt-mt323.dll
 0001:00026180       ?resizeEvent@QSplitter@@MAEXPAVQResizeEvent@@@Z 10027180 f   qt-mt323:qt-mt323.dll
 0001:00026186       ?minimumSizeHint@QSplitter@@UBE?AVQSize@@XZ 10027186 f   qt-mt323:qt-mt323.dll
 0001:0002618c       ?sizeHint@QSplitter@@UBE?AVQSize@@XZ 1002718c f   qt-mt323:qt-mt323.dll
 0001:00026192       ?childEvent@QSplitter@@MAEXPAVQChildEvent@@@Z 10027192 f   qt-mt323:qt-mt323.dll
 0001:00026198       ?event@QSplitter@@MAE_NPAVQEvent@@@Z 10027198 f   qt-mt323:qt-mt323.dll
 0001:0002619e       ?qt_property@QSplitter@@UAE_NHHPAVQVariant@@@Z 1002719e f   qt-mt323:qt-mt323.dll
 0001:000261a4       ?qt_emit@QSplitter@@UAE_NHPAUQUObject@@@Z 100271a4 f   qt-mt323:qt-mt323.dll
 0001:000261aa       ?qt_invoke@QSplitter@@UAE_NHPAUQUObject@@@Z 100271aa f   qt-mt323:qt-mt323.dll
 0001:000261b0       ?qt_cast@QSplitter@@UAEPAXPBD@Z 100271b0 f   qt-mt323:qt-mt323.dll
 0001:000261b6       ?className@QSplitter@@UBEPBDXZ 100271b6 f   qt-mt323:qt-mt323.dll
 0001:000261bc       ?metaObject@QSplitter@@UBEPAVQMetaObject@@XZ 100271bc f   qt-mt323:qt-mt323.dll
 0001:000261c2       ?stepChange@QScrollBar@@MAEXXZ 100271c2 f   qt-mt323:qt-mt323.dll
 0001:000261c8       ?rangeChange@QScrollBar@@MAEXXZ 100271c8 f   qt-mt323:qt-mt323.dll
 0001:000261ce       ?valueChange@QScrollBar@@MAEXXZ 100271ce f   qt-mt323:qt-mt323.dll
 0001:000261d4       ?setTracking@QScrollBar@@UAEX_N@Z 100271d4 f   qt-mt323:qt-mt323.dll
 0001:000261da       ?setOrientation@QScrollBar@@UAEXW4Orientation@Qt@@@Z 100271da f   qt-mt323:qt-mt323.dll
 0001:000261e0       ?styleChange@QScrollBar@@MAEXAAVQStyle@@@Z 100271e0 f   qt-mt323:qt-mt323.dll
 0001:000261e6       ?hideEvent@QScrollBar@@MAEXPAVQHideEvent@@@Z 100271e6 f   qt-mt323:qt-mt323.dll
 0001:000261ec       ?contextMenuEvent@QScrollBar@@MAEXPAVQContextMenuEvent@@@Z 100271ec f   qt-mt323:qt-mt323.dll
 0001:000261f2       ?resizeEvent@QScrollBar@@MAEXPAVQResizeEvent@@@Z 100271f2 f   qt-mt323:qt-mt323.dll
 0001:000261f8       ?paintEvent@QScrollBar@@MAEXPAVQPaintEvent@@@Z 100271f8 f   qt-mt323:qt-mt323.dll
 0001:000261fe       ?keyPressEvent@QScrollBar@@MAEXPAVQKeyEvent@@@Z 100271fe f   qt-mt323:qt-mt323.dll
 0001:00026204       ?wheelEvent@QScrollBar@@MAEXPAVQWheelEvent@@@Z 10027204 f   qt-mt323:qt-mt323.dll
 0001:0002620a       ?mouseMoveEvent@QScrollBar@@MAEXPAVQMouseEvent@@@Z 1002720a f   qt-mt323:qt-mt323.dll
 0001:00026210       ?mouseReleaseEvent@QScrollBar@@MAEXPAVQMouseEvent@@@Z 10027210 f   qt-mt323:qt-mt323.dll
 0001:00026216       ?mousePressEvent@QScrollBar@@MAEXPAVQMouseEvent@@@Z 10027216 f   qt-mt323:qt-mt323.dll
 0001:0002621c       ?setSizePolicy@QScrollBar@@UAEXVQSizePolicy@@@Z 1002721c f   qt-mt323:qt-mt323.dll
 0001:00026222       ?sizeHint@QScrollBar@@UBE?AVQSize@@XZ 10027222 f   qt-mt323:qt-mt323.dll
 0001:00026228       ?setPalette@QScrollBar@@UAEXABVQPalette@@@Z 10027228 f   qt-mt323:qt-mt323.dll
 0001:0002622e       ?qt_property@QScrollBar@@UAE_NHHPAVQVariant@@@Z 1002722e f   qt-mt323:qt-mt323.dll
 0001:00026234       ?qt_emit@QScrollBar@@UAE_NHPAUQUObject@@@Z 10027234 f   qt-mt323:qt-mt323.dll
 0001:0002623a       ?qt_invoke@QScrollBar@@UAE_NHPAUQUObject@@@Z 1002723a f   qt-mt323:qt-mt323.dll
 0001:00026240       ?qt_cast@QScrollBar@@UAEPAXPBD@Z 10027240 f   qt-mt323:qt-mt323.dll
 0001:00026246       ?className@QScrollBar@@UBEPBDXZ 10027246 f   qt-mt323:qt-mt323.dll
 0001:0002624c       ?metaObject@QScrollBar@@UBEPAVQMetaObject@@XZ 1002724c f   qt-mt323:qt-mt323.dll
 0001:00026252       ?layOutTitleRow@QWizard@@MAEXPAVQHBoxLayout@@ABVQString@@@Z 10027252 f   qt-mt323:qt-mt323.dll
 0001:00026258       ?layOutButtonRow@QWizard@@MAEXPAVQHBoxLayout@@@Z 10027258 f   qt-mt323:qt-mt323.dll
 0001:0002625e       ?help@QWizard@@MAEXXZ      1002725e f   qt-mt323:qt-mt323.dll
 0001:00026264       ?next@QWizard@@MAEXXZ      10027264 f   qt-mt323:qt-mt323.dll
 0001:0002626a       ?back@QWizard@@MAEXXZ      1002726a f   qt-mt323:qt-mt323.dll
 0001:00026270       ?setFinish@QWizard@@UAEXPAVQWidget@@_N@Z 10027270 f   qt-mt323:qt-mt323.dll
 0001:00026276       ?setHelpEnabled@QWizard@@UAEXPAVQWidget@@_N@Z 10027276 f   qt-mt323:qt-mt323.dll
 0001:0002627c       ?setFinishEnabled@QWizard@@UAEXPAVQWidget@@_N@Z 1002727c f   qt-mt323:qt-mt323.dll
 0001:00026282       ?setNextEnabled@QWizard@@UAEXPAVQWidget@@_N@Z 10027282 f   qt-mt323:qt-mt323.dll
 0001:00026288       ?setBackEnabled@QWizard@@UAEXPAVQWidget@@_N@Z 10027288 f   qt-mt323:qt-mt323.dll
 0001:0002628e       ?setAppropriate@QWizard@@UAEXPAVQWidget@@_N@Z 1002728e f   qt-mt323:qt-mt323.dll
 0001:00026294       ?appropriate@QWizard@@UBE_NPAVQWidget@@@Z 10027294 f   qt-mt323:qt-mt323.dll
 0001:0002629a       ?showPage@QWizard@@UAEXPAVQWidget@@@Z 1002729a f   qt-mt323:qt-mt323.dll
 0001:000262a0       ?removePage@QWizard@@UAEXPAVQWidget@@@Z 100272a0 f   qt-mt323:qt-mt323.dll
 0001:000262a6       ?insertPage@QWizard@@UAEXPAVQWidget@@ABVQString@@H@Z 100272a6 f   qt-mt323:qt-mt323.dll
 0001:000262ac       ?addPage@QWizard@@UAEXPAVQWidget@@ABVQString@@@Z 100272ac f   qt-mt323:qt-mt323.dll
 0001:000262b2       ?show@QWizard@@UAEXXZ      100272b2 f   qt-mt323:qt-mt323.dll
 0001:000262b8       ?setFont@QWizard@@UAEXABVQFont@@@Z 100272b8 f   qt-mt323:qt-mt323.dll
 0001:000262be       ?eventFilter@QWizard@@UAE_NPAVQObject@@PAVQEvent@@@Z 100272be f   qt-mt323:qt-mt323.dll
 0001:000262c4       ?qt_property@QWizard@@UAE_NHHPAVQVariant@@@Z 100272c4 f   qt-mt323:qt-mt323.dll
 0001:000262ca       ?qt_emit@QWizard@@UAE_NHPAUQUObject@@@Z 100272ca f   qt-mt323:qt-mt323.dll
 0001:000262d0       ?qt_invoke@QWizard@@UAE_NHPAUQUObject@@@Z 100272d0 f   qt-mt323:qt-mt323.dll
 0001:000262d6       ?qt_cast@QWizard@@UAEPAXPBD@Z 100272d6 f   qt-mt323:qt-mt323.dll
 0001:000262dc       ?className@QWizard@@UBEPBDXZ 100272dc f   qt-mt323:qt-mt323.dll
 0001:000262e2       ?metaObject@QWizard@@UBEPAVQMetaObject@@XZ 100272e2 f   qt-mt323:qt-mt323.dll
 0001:000262e8       ?className@QDialog@@UBEPBDXZ 100272e8 f   qt-mt323:qt-mt323.dll
 0001:000262ee       ?metaObject@QDialog@@UBEPAVQMetaObject@@XZ 100272ee f   qt-mt323:qt-mt323.dll
 0001:000262f4       ?frameChanged@QHBox@@MAEXXZ 100272f4 f   qt-mt323:qt-mt323.dll
 0001:000262fa       ?sizeHint@QHBox@@UBE?AVQSize@@XZ 100272fa f   qt-mt323:qt-mt323.dll
 0001:00026300       ?qt_property@QHBox@@UAE_NHHPAVQVariant@@@Z 10027300 f   qt-mt323:qt-mt323.dll
 0001:00026306       ?qt_emit@QHBox@@UAE_NHPAUQUObject@@@Z 10027306 f   qt-mt323:qt-mt323.dll
 0001:0002630c       ?qt_invoke@QHBox@@UAE_NHPAUQUObject@@@Z 1002730c f   qt-mt323:qt-mt323.dll
 0001:00026312       ?qt_cast@QHBox@@UAEPAXPBD@Z 10027312 f   qt-mt323:qt-mt323.dll
 0001:00026318       ?className@QHBox@@UBEPBDXZ 10027318 f   qt-mt323:qt-mt323.dll
 0001:0002631e       ?metaObject@QHBox@@UBEPAVQMetaObject@@XZ 1002731e f   qt-mt323:qt-mt323.dll
 0001:00026324       ?className@QWidget@@UBEPBDXZ 10027324 f   qt-mt323:qt-mt323.dll
 0001:0002632a       ?metaObject@QWidget@@UBEPAVQMetaObject@@XZ 1002732a f   qt-mt323:qt-mt323.dll
 0001:00026330       ?frameChanged@QGrid@@MAEXXZ 10027330 f   qt-mt323:qt-mt323.dll
 0001:00026336       ?sizeHint@QGrid@@UBE?AVQSize@@XZ 10027336 f   qt-mt323:qt-mt323.dll
 0001:0002633c       ?qt_property@QGrid@@UAE_NHHPAVQVariant@@@Z 1002733c f   qt-mt323:qt-mt323.dll
 0001:00026342       ?qt_emit@QGrid@@UAE_NHPAUQUObject@@@Z 10027342 f   qt-mt323:qt-mt323.dll
 0001:00026348       ?qt_invoke@QGrid@@UAE_NHPAUQUObject@@@Z 10027348 f   qt-mt323:qt-mt323.dll
 0001:0002634e       ?qt_cast@QGrid@@UAEPAXPBD@Z 1002734e f   qt-mt323:qt-mt323.dll
 0001:00026354       ?className@QGrid@@UBEPBDXZ 10027354 f   qt-mt323:qt-mt323.dll
 0001:0002635a       ?metaObject@QGrid@@UBEPAVQMetaObject@@XZ 1002735a f   qt-mt323:qt-mt323.dll
 0001:00026360       ?fieldAlignment@QDataTable@@MAEHPBVQSqlField@@@Z 10027360 f   qt-mt323:qt-mt323.dll
 0001:00026366       ?paintField@QDataTable@@MAEXPAVQPainter@@PBVQSqlField@@ABVQRect@@_N@Z 10027366 f   qt-mt323:qt-mt323.dll
 0001:0002636c       ?beginUpdate@QDataTable@@MAEPAVQWidget@@HH_N@Z 1002736c f   qt-mt323:qt-mt323.dll
 0001:00026372       ?beginInsert@QDataTable@@MAE_NXZ 10027372 f   qt-mt323:qt-mt323.dll
 0001:00026378       ?handleError@QDataTable@@MAEXABVQSqlError@@@Z 10027378 f   qt-mt323:qt-mt323.dll
 0001:0002637e       ?confirmCancel@QDataTable@@MAE?AW4Confirm@QSql@@W4Op@3@@Z 1002737e f   qt-mt323:qt-mt323.dll
 0001:00026384       ?confirmEdit@QDataTable@@MAE?AW4Confirm@QSql@@W4Op@3@@Z 10027384 f   qt-mt323:qt-mt323.dll
 0001:0002638a       ?deleteCurrent@QDataTable@@MAE_NXZ 1002738a f   qt-mt323:qt-mt323.dll
 0001:00026390       ?updateCurrent@QDataTable@@MAE_NXZ 10027390 f   qt-mt323:qt-mt323.dll
 0001:00026396       ?insertCurrent@QDataTable@@MAE_NXZ 10027396 f   qt-mt323:qt-mt323.dll
 0001:0002639c       ?sortDescending@QDataTable@@UAEXH@Z 1002739c f   qt-mt323:qt-mt323.dll
 0001:000263a2       ?sortAscending@QDataTable@@UAEXH@Z 100273a2 f   qt-mt323:qt-mt323.dll
 0001:000263a8       ?find@QDataTable@@UAEXABVQString@@_N1@Z 100273a8 f   qt-mt323:qt-mt323.dll
 0001:000263ae       ?refresh@QDataTable@@UAEXXZ 100273ae f   qt-mt323:qt-mt323.dll
 0001:000263b4       ?setSort@QDataTable@@UAEXABVQStringList@@@Z 100273b4 f   qt-mt323:qt-mt323.dll
 0001:000263ba       ?setSort@QDataTable@@UAEXABVQSqlIndex@@@Z 100273ba f   qt-mt323:qt-mt323.dll
 0001:000263c0       ?setFilter@QDataTable@@UAEXABVQString@@@Z 100273c0 f   qt-mt323:qt-mt323.dll
 0001:000263c6       ?setAutoEdit@QDataTable@@UAEX_N@Z 100273c6 f   qt-mt323:qt-mt323.dll
 0001:000263cc       ?setAutoDelete@QDataTable@@UAEX_N@Z 100273cc f   qt-mt323:qt-mt323.dll
 0001:000263d2       ?setConfirmCancels@QDataTable@@UAEX_N@Z 100273d2 f   qt-mt323:qt-mt323.dll
 0001:000263d8       ?setConfirmDelete@QDataTable@@UAEX_N@Z 100273d8 f   qt-mt323:qt-mt323.dll
 0001:000263de       ?setConfirmUpdate@QDataTable@@UAEX_N@Z 100273de f   qt-mt323:qt-mt323.dll
 0001:000263e4       ?setConfirmInsert@QDataTable@@UAEX_N@Z 100273e4 f   qt-mt323:qt-mt323.dll
 0001:000263ea       ?setConfirmEdits@QDataTable@@UAEX_N@Z 100273ea f   qt-mt323:qt-mt323.dll
 0001:000263f0       ?setDateFormat@QDataTable@@UAEXW4DateFormat@Qt@@@Z 100273f0 f   qt-mt323:qt-mt323.dll
 0001:000263f6       ?setFalseText@QDataTable@@UAEXABVQString@@@Z 100273f6 f   qt-mt323:qt-mt323.dll
 0001:000263fc       ?setTrueText@QDataTable@@UAEXABVQString@@@Z 100273fc f   qt-mt323:qt-mt323.dll
 0001:00026402       ?setNullText@QDataTable@@UAEXABVQString@@@Z 10027402 f   qt-mt323:qt-mt323.dll
 0001:00026408       ?setSqlCursor@QDataTable@@UAEXPAVQSqlCursor@@_N1@Z 10027408 f   qt-mt323:qt-mt323.dll
 0001:0002640e       ?setColumn@QDataTable@@UAEXIABVQString@@0HABVQIconSet@@@Z 1002740e f   qt-mt323:qt-mt323.dll
 0001:00026414       ?removeColumn@QDataTable@@UAEXI@Z 10027414 f   qt-mt323:qt-mt323.dll
 0001:0002641a       ?addColumn@QDataTable@@UAEXABVQString@@0HABVQIconSet@@@Z 1002741a f   qt-mt323:qt-mt323.dll
 0001:00026420       ?columnClicked@QDataTable@@MAEXH@Z 10027420 f   qt-mt323:qt-mt323.dll
 0001:00026426       ?resizeData@QDataTable@@MAEXH@Z 10027426 f   qt-mt323:qt-mt323.dll
 0001:0002642c       ?endEdit@QDataTable@@MAEXHH_N0@Z 1002742c f   qt-mt323:qt-mt323.dll
 0001:00026432       ?beginEdit@QDataTable@@EAEPAVQWidget@@HH_N@Z 10027432 f   qt-mt323:qt-mt323.dll
 0001:00026438       ?createEditor@QDataTable@@MBEPAVQWidget@@HH_N@Z 10027438 f   qt-mt323:qt-mt323.dll
 0001:0002643e       ?activateNextCell@QDataTable@@MAEXXZ 1002743e f   qt-mt323:qt-mt323.dll
 0001:00026444       ?swapColumns@QDataTable@@UAEXHH_N@Z 10027444 f   qt-mt323:qt-mt323.dll
 0001:0002644a       ?setColumnStretchable@QDataTable@@UAEXH_N@Z 1002744a f   qt-mt323:qt-mt323.dll
 0001:00026450       ?adjustColumn@QDataTable@@UAEXH@Z 10027450 f   qt-mt323:qt-mt323.dll
 0001:00026456       ?setColumnWidth@QDataTable@@UAEXHH@Z 10027456 f   qt-mt323:qt-mt323.dll
 0001:0002645c       ?showColumn@QDataTable@@UAEXH@Z 1002745c f   qt-mt323:qt-mt323.dll
 0001:00026462       ?hideColumn@QDataTable@@UAEXH@Z 10027462 f   qt-mt323:qt-mt323.dll
 0001:00026468       ?setNumCols@QDataTable@@UAEXH@Z 10027468 f   qt-mt323:qt-mt323.dll
 0001:0002646e       ?setNumRows@QDataTable@@UAEXH@Z 1002746e f   qt-mt323:qt-mt323.dll
 0001:00026474       ?paintCell@QDataTable@@MAEXPAVQPainter@@HHABVQRect@@_NABVQColorGroup@@@Z 10027474 f   qt-mt323:qt-mt323.dll
 0001:0002647a       ?takeItem@QDataTable@@MAEXPAVQTableItem@@@Z 1002747a f   qt-mt323:qt-mt323.dll
 0001:00026480       ?sortColumn@QDataTable@@UAEXH_N0@Z 10027480 f   qt-mt323:qt-mt323.dll
 0001:00026486       ?numCols@QDataTable@@UBEHXZ 10027486 f   qt-mt323:qt-mt323.dll
 0001:0002648c       ?numRows@QDataTable@@UBEHXZ 1002748c f   qt-mt323:qt-mt323.dll
 0001:00026492       ?clearCell@QDataTable@@MAEXHH@Z 10027492 f   qt-mt323:qt-mt323.dll
 0001:00026498       ?text@QDataTable@@UBE?AVQString@@HH@Z 10027498 f   qt-mt323:qt-mt323.dll
 0001:0002649e       ?item@QDataTable@@MBEPAVQTableItem@@HH@Z 1002749e f   qt-mt323:qt-mt323.dll
 0001:000264a4       ?setPixmap@QDataTable@@MAEXHHABVQPixmap@@@Z 100274a4 f   qt-mt323:qt-mt323.dll
 0001:000264aa       ?setItem@QDataTable@@MAEXHHPAVQTableItem@@@Z 100274aa f   qt-mt323:qt-mt323.dll
 0001:000264b0       ?contentsContextMenuEvent@QDataTable@@MAEXPAVQContextMenuEvent@@@Z 100274b0 f   qt-mt323:qt-mt323.dll
 0001:000264b6       ?contentsMousePressEvent@QDataTable@@MAEXPAVQMouseEvent@@@Z 100274b6 f   qt-mt323:qt-mt323.dll
 0001:000264bc       ?drawContents@QDataTable@@MAEXPAVQPainter@@HHHH@Z 100274bc f   qt-mt323:qt-mt323.dll
 0001:000264c2       ?resizeEvent@QDataTable@@MAEXPAVQResizeEvent@@@Z 100274c2 f   qt-mt323:qt-mt323.dll
 0001:000264c8       ?keyPressEvent@QDataTable@@MAEXPAVQKeyEvent@@@Z 100274c8 f   qt-mt323:qt-mt323.dll
 0001:000264ce       ?eventFilter@QDataTable@@MAE_NPAVQObject@@PAVQEvent@@@Z 100274ce f   qt-mt323:qt-mt323.dll
 0001:000264d4       ?qt_property@QDataTable@@UAE_NHHPAVQVariant@@@Z 100274d4 f   qt-mt323:qt-mt323.dll
 0001:000264da       ?qt_emit@QDataTable@@UAE_NHPAUQUObject@@@Z 100274da f   qt-mt323:qt-mt323.dll
 0001:000264e0       ?qt_invoke@QDataTable@@UAE_NHPAUQUObject@@@Z 100274e0 f   qt-mt323:qt-mt323.dll
 0001:000264e6       ?qt_cast@QDataTable@@UAEPAXPBD@Z 100274e6 f   qt-mt323:qt-mt323.dll
 0001:000264ec       ?className@QDataTable@@UBEPBDXZ 100274ec f   qt-mt323:qt-mt323.dll
 0001:000264f2       ?metaObject@QDataTable@@UBEPAVQMetaObject@@XZ 100274f2 f   qt-mt323:qt-mt323.dll
 0001:000264f8       ?columnClicked@QTable@@MAEXH@Z 100274f8 f   qt-mt323:qt-mt323.dll
 0001:000264fe       ?rowIndexChanged@QTable@@MAEXHHH@Z 100274fe f   qt-mt323:qt-mt323.dll
 0001:00026504       ?columnIndexChanged@QTable@@MAEXHHH@Z 10027504 f   qt-mt323:qt-mt323.dll
 0001:0002650a       ?rowHeightChanged@QTable@@MAEXH@Z 1002750a f   qt-mt323:qt-mt323.dll
 0001:00026510       ?columnWidthChanged@QTable@@MAEXH@Z 10027510 f   qt-mt323:qt-mt323.dll
 0001:00026516       ?insertWidget@QTable@@MAEXHHPAVQWidget@@@Z 10027516 f   qt-mt323:qt-mt323.dll
 0001:0002651c       ?resizeData@QTable@@MAEXH@Z 1002751c f   qt-mt323:qt-mt323.dll
 0001:00026522       ?endEdit@QTable@@MAEXHH_N0@Z 10027522 f   qt-mt323:qt-mt323.dll
 0001:00026528       ?beginEdit@QTable@@MAEPAVQWidget@@HH_N@Z 10027528 f   qt-mt323:qt-mt323.dll
 0001:0002652e       ?setCellContentFromEditor@QTable@@MAEXHH@Z 1002752e f   qt-mt323:qt-mt323.dll
 0001:00026534       ?createEditor@QTable@@MBEPAVQWidget@@HH_N@Z 10027534 f   qt-mt323:qt-mt323.dll
 0001:0002653a       ?activateNextCell@QTable@@MAEXXZ 1002753a f   qt-mt323:qt-mt323.dll
 0001:00026540       ?paintEmptyArea@QTable@@MAEXPAVQPainter@@HHHH@Z 10027540 f   qt-mt323:qt-mt323.dll
 0001:00026546       ?startDrag@QTable@@MAEXXZ  10027546 f   qt-mt323:qt-mt323.dll
 0001:0002654c       ?dragObject@QTable@@MAEPAVQDragObject@@XZ 1002754c f   qt-mt323:qt-mt323.dll
 0001:00026552       ?editCell@QTable@@UAEXHH_N@Z 10027552 f   qt-mt323:qt-mt323.dll
 0001:00026558       ?removeColumns@QTable@@UAEXABV?$QMemArray@H@@@Z 10027558 f   qt-mt323:qt-mt323.dll
 0001:0002655e       ?removeColumn@QTable@@UAEXH@Z 1002755e f   qt-mt323:qt-mt323.dll
 0001:00026564       ?removeRows@QTable@@UAEXABV?$QMemArray@H@@@Z 10027564 f   qt-mt323:qt-mt323.dll
 0001:0002656a       ?removeRow@QTable@@UAEXH@Z 1002756a f   qt-mt323:qt-mt323.dll
 0001:00026570       ?insertColumns@QTable@@UAEXHH@Z 10027570 f   qt-mt323:qt-mt323.dll
 0001:00026576       ?insertRows@QTable@@UAEXHH@Z 10027576 f   qt-mt323:qt-mt323.dll
 0001:0002657c       ?setDragEnabled@QTable@@UAEX_N@Z 1002757c f   qt-mt323:qt-mt323.dll
 0001:00026582       ?setColumnReadOnly@QTable@@UAEXH_N@Z 10027582 f   qt-mt323:qt-mt323.dll
 0001:00026588       ?setRowReadOnly@QTable@@UAEXH_N@Z 10027588 f   qt-mt323:qt-mt323.dll
 0001:0002658e       ?setReadOnly@QTable@@UAEX_N@Z 1002758e f   qt-mt323:qt-mt323.dll
 0001:00026594       ?setRowMovingEnabled@QTable@@UAEX_N@Z 10027594 f   qt-mt323:qt-mt323.dll
 0001:0002659a       ?setColumnMovingEnabled@QTable@@UAEX_N@Z 1002759a f   qt-mt323:qt-mt323.dll
 0001:000265a0       ?setCurrentCell@QTable@@UAEXHH@Z 100275a0 f   qt-mt323:qt-mt323.dll
 0001:000265a6       ?setTopMargin@QTable@@UAEXH@Z 100275a6 f   qt-mt323:qt-mt323.dll
 0001:000265ac       ?setLeftMargin@QTable@@UAEXH@Z 100275ac f   qt-mt323:qt-mt323.dll
 0001:000265b2       ?swapCells@QTable@@UAEXHHHH@Z 100275b2 f   qt-mt323:qt-mt323.dll
 0001:000265b8       ?swapColumns@QTable@@UAEXHH_N@Z 100275b8 f   qt-mt323:qt-mt323.dll
 0001:000265be       ?swapRows@QTable@@UAEXHH_N@Z 100275be f   qt-mt323:qt-mt323.dll
 0001:000265c4       ?setSorting@QTable@@UAEX_N@Z 100275c4 f   qt-mt323:qt-mt323.dll
 0001:000265ca       ?setRowStretchable@QTable@@UAEXH_N@Z 100275ca f   qt-mt323:qt-mt323.dll
 0001:000265d0       ?setColumnStretchable@QTable@@UAEXH_N@Z 100275d0 f   qt-mt323:qt-mt323.dll
 0001:000265d6       ?adjustRow@QTable@@UAEXH@Z 100275d6 f   qt-mt323:qt-mt323.dll
 0001:000265dc       ?adjustColumn@QTable@@UAEXH@Z 100275dc f   qt-mt323:qt-mt323.dll
 0001:000265e2       ?setRowHeight@QTable@@UAEXHH@Z 100275e2 f   qt-mt323:qt-mt323.dll
 0001:000265e8       ?setColumnWidth@QTable@@UAEXHH@Z 100275e8 f   qt-mt323:qt-mt323.dll
 0001:000265ee       ?showColumn@QTable@@UAEXH@Z 100275ee f   qt-mt323:qt-mt323.dll
 0001:000265f4       ?showRow@QTable@@UAEXH@Z   100275f4 f   qt-mt323:qt-mt323.dll
 0001:000265fa       ?hideColumn@QTable@@UAEXH@Z 100275fa f   qt-mt323:qt-mt323.dll
 0001:00026600       ?hideRow@QTable@@UAEXH@Z   10027600 f   qt-mt323:qt-mt323.dll
 0001:00026606       ?setShowGrid@QTable@@UAEX_N@Z 10027606 f   qt-mt323:qt-mt323.dll
 0001:0002660c       ?setNumCols@QTable@@UAEXH@Z 1002760c f   qt-mt323:qt-mt323.dll
 0001:00026612       ?setNumRows@QTable@@UAEXH@Z 10027612 f   qt-mt323:qt-mt323.dll
 0001:00026618       ?setFocusStyle@QTable@@UAEXW4FocusStyle@1@@Z 10027618 f   qt-mt323:qt-mt323.dll
 0001:0002661e       ?paintFocus@QTable@@UAEXPAVQPainter@@ABVQRect@@@Z 1002761e f   qt-mt323:qt-mt323.dll
 0001:00026624       ?paintCell@QTable@@UAEXPAVQPainter@@HHABVQRect@@_N@Z 10027624 f   qt-mt323:qt-mt323.dll
 0001:0002662a       ?paintCell@QTable@@UAEXPAVQPainter@@HHABVQRect@@_NABVQColorGroup@@@Z 1002762a f   qt-mt323:qt-mt323.dll
 0001:00026630       ?cellRect@QTable@@UBE?AVQRect@@HH@Z 10027630 f   qt-mt323:qt-mt323.dll
 0001:00026636       ?clearCellWidget@QTable@@UAEXHH@Z 10027636 f   qt-mt323:qt-mt323.dll
 0001:0002663c       ?cellWidget@QTable@@UBEPAVQWidget@@HH@Z 1002763c f   qt-mt323:qt-mt323.dll
 0001:00026642       ?setCellWidget@QTable@@UAEXHHPAVQWidget@@@Z 10027642 f   qt-mt323:qt-mt323.dll
 0001:00026648       ?takeItem@QTable@@UAEXPAVQTableItem@@@Z 10027648 f   qt-mt323:qt-mt323.dll
 0001:0002664e       ?sortColumn@QTable@@UAEXH_N0@Z 1002764e f   qt-mt323:qt-mt323.dll
 0001:00026654       ?currentSelection@QTable@@UBEHXZ 10027654 f   qt-mt323:qt-mt323.dll
 0001:0002665a       ?removeSelection@QTable@@UAEXABVQTableSelection@@@Z 1002765a f   qt-mt323:qt-mt323.dll
 0001:00026660       ?removeSelection@QTable@@UAEXH@Z 10027660 f   qt-mt323:qt-mt323.dll
 0001:00026666       ?addSelection@QTable@@UAEHABVQTableSelection@@@Z 10027666 f   qt-mt323:qt-mt323.dll
 0001:0002666c       ?numCols@QTable@@UBEHXZ    1002766c f   qt-mt323:qt-mt323.dll
 0001:00026672       ?numRows@QTable@@UBEHXZ    10027672 f   qt-mt323:qt-mt323.dll
 0001:00026678       ?rowAt@QTable@@UBEHH@Z     10027678 f   qt-mt323:qt-mt323.dll
 0001:0002667e       ?columnAt@QTable@@UBEHH@Z  1002767e f   qt-mt323:qt-mt323.dll
 0001:00026684       ?rowPos@QTable@@UBEHH@Z    10027684 f   qt-mt323:qt-mt323.dll
 0001:0002668a       ?columnPos@QTable@@UBEHH@Z 1002768a f   qt-mt323:qt-mt323.dll
 0001:00026690       ?rowHeight@QTable@@UBEHH@Z 10027690 f   qt-mt323:qt-mt323.dll
 0001:00026696       ?columnWidth@QTable@@UBEHH@Z 10027696 f   qt-mt323:qt-mt323.dll
 0001:0002669c       ?cellGeometry@QTable@@UBE?AVQRect@@HH@Z 1002769c f   qt-mt323:qt-mt323.dll
 0001:000266a2       ?clearCell@QTable@@UAEXHH@Z 100276a2 f   qt-mt323:qt-mt323.dll
 0001:000266a8       ?pixmap@QTable@@UBE?AVQPixmap@@HH@Z 100276a8 f   qt-mt323:qt-mt323.dll
 0001:000266ae       ?text@QTable@@UBE?AVQString@@HH@Z 100276ae f   qt-mt323:qt-mt323.dll
 0001:000266b4       ?item@QTable@@UBEPAVQTableItem@@HH@Z 100276b4 f   qt-mt323:qt-mt323.dll
 0001:000266ba       ?setPixmap@QTable@@UAEXHHABVQPixmap@@@Z 100276ba f   qt-mt323:qt-mt323.dll
 0001:000266c0       ?setText@QTable@@UAEXHHABVQString@@@Z 100276c0 f   qt-mt323:qt-mt323.dll
 0001:000266c6       ?setItem@QTable@@UAEXHHPAVQTableItem@@@Z 100276c6 f   qt-mt323:qt-mt323.dll
 0001:000266cc       ?setSelectionMode@QTable@@UAEXW4SelectionMode@1@@Z 100276cc f   qt-mt323:qt-mt323.dll
 0001:000266d2       ?viewportResizeEvent@QTable@@MAEXPAVQResizeEvent@@@Z 100276d2 f   qt-mt323:qt-mt323.dll
 0001:000266d8       ?contentsContextMenuEvent@QTable@@MAEXPAVQContextMenuEvent@@@Z 100276d8 f   qt-mt323:qt-mt323.dll
 0001:000266de       ?contentsDropEvent@QTable@@MAEXPAVQDropEvent@@@Z 100276de f   qt-mt323:qt-mt323.dll
 0001:000266e4       ?contentsDragLeaveEvent@QTable@@MAEXPAVQDragLeaveEvent@@@Z 100276e4 f   qt-mt323:qt-mt323.dll
 0001:000266ea       ?contentsDragMoveEvent@QTable@@MAEXPAVQDragMoveEvent@@@Z 100276ea f   qt-mt323:qt-mt323.dll
 0001:000266f0       ?contentsDragEnterEvent@QTable@@MAEXPAVQDragEnterEvent@@@Z 100276f0 f   qt-mt323:qt-mt323.dll
 0001:000266f6       ?contentsMouseMoveEvent@QTable@@MAEXPAVQMouseEvent@@@Z 100276f6 f   qt-mt323:qt-mt323.dll
 0001:000266fc       ?contentsMouseDoubleClickEvent@QTable@@MAEXPAVQMouseEvent@@@Z 100276fc f   qt-mt323:qt-mt323.dll
 0001:00026702       ?contentsMouseReleaseEvent@QTable@@MAEXPAVQMouseEvent@@@Z 10027702 f   qt-mt323:qt-mt323.dll
 0001:00026708       ?contentsMousePressEvent@QTable@@MAEXPAVQMouseEvent@@@Z 10027708 f   qt-mt323:qt-mt323.dll
 0001:0002670e       ?drawContents@QTable@@MAEXPAVQPainter@@HHHH@Z 1002770e f   qt-mt323:qt-mt323.dll
 0001:00026714       ?drawContents@QTable@@EAEXPAVQPainter@@@Z 10027714 f   qt-mt323:qt-mt323.dll
 0001:0002671a       ?windowActivationChange@QTable@@MAEX_N@Z 1002771a f   qt-mt323:qt-mt323.dll
 0001:00026720       ?showEvent@QTable@@MAEXPAVQShowEvent@@@Z 10027720 f   qt-mt323:qt-mt323.dll
 0001:00026726       ?resizeEvent@QScrollView@@MAEXPAVQResizeEvent@@@Z 10027726 f   qt-mt323:qt-mt323.dll
 0001:0002672c       ?paintEvent@QTable@@MAEXPAVQPaintEvent@@@Z 1002772c f   qt-mt323:qt-mt323.dll
 0001:00026732       ?focusOutEvent@QTable@@MAEXPAVQFocusEvent@@@Z 10027732 f   qt-mt323:qt-mt323.dll
 0001:00026738       ?focusInEvent@QTable@@MAEXPAVQFocusEvent@@@Z 10027738 f   qt-mt323:qt-mt323.dll
 0001:0002673e       ?keyPressEvent@QTable@@MAEXPAVQKeyEvent@@@Z 1002773e f   qt-mt323:qt-mt323.dll
 0001:00026744       ?sizeHint@QTable@@UBE?AVQSize@@XZ 10027744 f   qt-mt323:qt-mt323.dll
 0001:0002674a       ?setEnabled@QTable@@UAEX_N@Z 1002774a f   qt-mt323:qt-mt323.dll
 0001:00026750       ?eventFilter@QTable@@UAE_NPAVQObject@@PAVQEvent@@@Z 10027750 f   qt-mt323:qt-mt323.dll
 0001:00026756       ?qt_property@QTable@@UAE_NHHPAVQVariant@@@Z 10027756 f   qt-mt323:qt-mt323.dll
 0001:0002675c       ?qt_emit@QTable@@UAE_NHPAUQUObject@@@Z 1002775c f   qt-mt323:qt-mt323.dll
 0001:00026762       ?qt_invoke@QTable@@UAE_NHPAUQUObject@@@Z 10027762 f   qt-mt323:qt-mt323.dll
 0001:00026768       ?qt_cast@QTable@@UAEPAXPBD@Z 10027768 f   qt-mt323:qt-mt323.dll
 0001:0002676e       ?className@QTable@@UBEPBDXZ 1002776e f   qt-mt323:qt-mt323.dll
 0001:00026774       ?metaObject@QTable@@UBEPAVQMetaObject@@XZ 10027774 f   qt-mt323:qt-mt323.dll
 0001:0002677a       ?paintEmptyArea@QListView@@MAEXPAVQPainter@@ABVQRect@@@Z 1002777a f   qt-mt323:qt-mt323.dll
 0001:00026780       ?startDrag@QListView@@MAEXXZ 10027780 f   qt-mt323:qt-mt323.dll
 0001:00026786       ?dragObject@QListView@@MAEPAVQDragObject@@XZ 10027786 f   qt-mt323:qt-mt323.dll
 0001:0002678c       ?selectAll@QListView@@UAEX_N@Z 1002778c f   qt-mt323:qt-mt323.dll
 0001:00026792       ?invertSelection@QListView@@UAEXXZ 10027792 f   qt-mt323:qt-mt323.dll
 0001:00026798       ?clear@QListView@@UAEXXZ   10027798 f   qt-mt323:qt-mt323.dll
 0001:0002679e       ?setDefaultRenameAction@QListView@@UAEXW4RenameAction@1@@Z 1002779e f   qt-mt323:qt-mt323.dll
 0001:000267a4       ?setResizeMode@QListView@@UAEXW4ResizeMode@1@@Z 100277a4 f   qt-mt323:qt-mt323.dll
 0001:000267aa       ?setShowToolTips@QListView@@UAEX_N@Z 100277aa f   qt-mt323:qt-mt323.dll
 0001:000267b0       ?setShowSortIndicator@QListView@@UAEX_N@Z 100277b0 f   qt-mt323:qt-mt323.dll
 0001:000267b6       ?sort@QListView@@UAEXXZ    100277b6 f   qt-mt323:qt-mt323.dll
 0001:000267bc       ?setSorting@QListView@@UAEXH_N@Z 100277bc f   qt-mt323:qt-mt323.dll
 0001:000267c2       ?setRootIsDecorated@QListView@@UAEX_N@Z 100277c2 f   qt-mt323:qt-mt323.dll
 0001:000267c8       ?setItemMargin@QListView@@UAEXH@Z 100277c8 f   qt-mt323:qt-mt323.dll
 0001:000267ce       ?setAllColumnsShowFocus@QListView@@UAEX_N@Z 100277ce f   qt-mt323:qt-mt323.dll
 0001:000267d4       ?setCurrentItem@QListView@@UAEXPAVQListViewItem@@@Z 100277d4 f   qt-mt323:qt-mt323.dll
 0001:000267da       ?setOpen@QListView@@UAEXPAVQListViewItem@@_N@Z 100277da f   qt-mt323:qt-mt323.dll
 0001:000267e0       ?setSelected@QListView@@UAEXPAVQListViewItem@@_N@Z 100277e0 f   qt-mt323:qt-mt323.dll
 0001:000267e6       ?clearSelection@QListView@@UAEXXZ 100277e6 f   qt-mt323:qt-mt323.dll
 0001:000267ec       ?setMultiSelection@QListView@@UAEX_N@Z 100277ec f   qt-mt323:qt-mt323.dll
 0001:000267f2       ?setColumnAlignment@QListView@@UAEXHH@Z 100277f2 f   qt-mt323:qt-mt323.dll
 0001:000267f8       ?setColumnWidthMode@QListView@@UAEXHW4WidthMode@1@@Z 100277f8 f   qt-mt323:qt-mt323.dll
 0001:000267fe       ?setColumnWidth@QListView@@UAEXHH@Z 100277fe f   qt-mt323:qt-mt323.dll
 0001:00026804       ?setColumnText@QListView@@UAEXHABVQString@@@Z 10027804 f   qt-mt323:qt-mt323.dll
 0001:0002680a       ?setColumnText@QListView@@UAEXHABVQIconSet@@ABVQString@@@Z 1002780a f   qt-mt323:qt-mt323.dll
 0001:00026810       ?removeColumn@QListView@@UAEXH@Z 10027810 f   qt-mt323:qt-mt323.dll
 0001:00026816       ?addColumn@QListView@@UAEHABVQString@@H@Z 10027816 f   qt-mt323:qt-mt323.dll
 0001:0002681c       ?addColumn@QListView@@UAEHABVQIconSet@@ABVQString@@H@Z 1002781c f   qt-mt323:qt-mt323.dll
 0001:00026822       ?removeItem@QListView@@UAEXPAVQListViewItem@@@Z 10027822 f   qt-mt323:qt-mt323.dll
 0001:00026828       ?takeItem@QListView@@UAEXPAVQListViewItem@@@Z 10027828 f   qt-mt323:qt-mt323.dll
 0001:0002682e       ?insertItem@QListView@@UAEXPAVQListViewItem@@@Z 1002782e f   qt-mt323:qt-mt323.dll
 0001:00026834       ?setTreeStepSize@QListView@@UAEXH@Z 10027834 f   qt-mt323:qt-mt323.dll
 0001:0002683a       ?viewportResizeEvent@QListView@@MAEXPAVQResizeEvent@@@Z 1002783a f   qt-mt323:qt-mt323.dll
 0001:00026840       ?contentsContextMenuEvent@QListView@@MAEXPAVQContextMenuEvent@@@Z 10027840 f   qt-mt323:qt-mt323.dll
 0001:00026846       ?contentsWheelEvent@QScrollView@@MAEXPAVQWheelEvent@@@Z 10027846 f   qt-mt323:qt-mt323.dll
 0001:0002684c       ?contentsDropEvent@QListView@@MAEXPAVQDropEvent@@@Z 1002784c f   qt-mt323:qt-mt323.dll
 0001:00026852       ?contentsDragLeaveEvent@QListView@@MAEXPAVQDragLeaveEvent@@@Z 10027852 f   qt-mt323:qt-mt323.dll
 0001:00026858       ?contentsDragMoveEvent@QListView@@MAEXPAVQDragMoveEvent@@@Z 10027858 f   qt-mt323:qt-mt323.dll
 0001:0002685e       ?contentsDragEnterEvent@QListView@@MAEXPAVQDragEnterEvent@@@Z 1002785e f   qt-mt323:qt-mt323.dll
 0001:00026864       ?contentsMouseMoveEvent@QListView@@MAEXPAVQMouseEvent@@@Z 10027864 f   qt-mt323:qt-mt323.dll
 0001:0002686a       ?contentsMouseDoubleClickEvent@QListView@@MAEXPAVQMouseEvent@@@Z 1002786a f   qt-mt323:qt-mt323.dll
 0001:00026870       ?contentsMouseReleaseEvent@QListView@@MAEXPAVQMouseEvent@@@Z 10027870 f   qt-mt323:qt-mt323.dll
 0001:00026876       ?contentsMousePressEvent@QListView@@MAEXPAVQMouseEvent@@@Z 10027876 f   qt-mt323:qt-mt323.dll
 0001:0002687c       ?drawContentsOffset@QListView@@MAEXPAVQPainter@@HHHHHH@Z 1002787c f   qt-mt323:qt-mt323.dll
 0001:00026882       ?drawContents@QScrollView@@MAEXPAVQPainter@@HHHH@Z 10027882 f   qt-mt323:qt-mt323.dll
 0001:00026888       ?setContentsPos@QListView@@UAEXHH@Z 10027888 f   qt-mt323:qt-mt323.dll
 0001:0002688e       ?drawContents@QScrollView@@EAEXPAVQPainter@@@Z 1002788e f   qt-mt323:qt-mt323.dll
 0001:00026894       ?focusNextPrevChild@QScrollView@@MAE_N_N@Z 10027894 f   qt-mt323:qt-mt323.dll
 0001:0002689a       ?windowActivationChange@QListView@@MAEX_N@Z 1002789a f   qt-mt323:qt-mt323.dll
 0001:000268a0       ?styleChange@QListView@@MAEXAAVQStyle@@@Z 100278a0 f   qt-mt323:qt-mt323.dll
 0001:000268a6       ?showEvent@QListView@@MAEXPAVQShowEvent@@@Z 100278a6 f   qt-mt323:qt-mt323.dll
 0001:000268ac       ?resizeEvent@QListView@@MAEXPAVQResizeEvent@@@Z 100278ac f   qt-mt323:qt-mt323.dll
 0001:000268b2       ?focusOutEvent@QListView@@MAEXPAVQFocusEvent@@@Z 100278b2 f   qt-mt323:qt-mt323.dll
 0001:000268b8       ?focusInEvent@QListView@@MAEXPAVQFocusEvent@@@Z 100278b8 f   qt-mt323:qt-mt323.dll
 0001:000268be       ?keyPressEvent@QListView@@MAEXPAVQKeyEvent@@@Z 100278be f   qt-mt323:qt-mt323.dll
 0001:000268c4       ?minimumSizeHint@QListView@@UBE?AVQSize@@XZ 100278c4 f   qt-mt323:qt-mt323.dll
 0001:000268ca       ?sizeHint@QListView@@UBE?AVQSize@@XZ 100278ca f   qt-mt323:qt-mt323.dll
 0001:000268d0       ?show@QListView@@UAEXXZ    100278d0 f   qt-mt323:qt-mt323.dll
 0001:000268d6       ?setFont@QListView@@UAEXABVQFont@@@Z 100278d6 f   qt-mt323:qt-mt323.dll
 0001:000268dc       ?setPalette@QListView@@UAEXABVQPalette@@@Z 100278dc f   qt-mt323:qt-mt323.dll
 0001:000268e2       ?setEnabled@QScrollView@@UAEX_N@Z 100278e2 f   qt-mt323:qt-mt323.dll
 0001:000268e8       ?eventFilter@QListView@@UAE_NPAVQObject@@PAVQEvent@@@Z 100278e8 f   qt-mt323:qt-mt323.dll
 0001:000268ee       ?qt_property@QListView@@UAE_NHHPAVQVariant@@@Z 100278ee f   qt-mt323:qt-mt323.dll
 0001:000268f4       ?qt_emit@QListView@@UAE_NHPAUQUObject@@@Z 100278f4 f   qt-mt323:qt-mt323.dll
 0001:000268fa       ?qt_invoke@QListView@@UAE_NHPAUQUObject@@@Z 100278fa f   qt-mt323:qt-mt323.dll
 0001:00026900       ?qt_cast@QListView@@UAEPAXPBD@Z 10027900 f   qt-mt323:qt-mt323.dll
 0001:00026906       ?className@QListView@@UBEPBDXZ 10027906 f   qt-mt323:qt-mt323.dll
 0001:0002690c       ?metaObject@QListView@@UBEPAVQMetaObject@@XZ 1002790c f   qt-mt323:qt-mt323.dll
 0001:00026912       ?outOfRange@QDateEdit@@MBE_NHHH@Z 10027912 f   qt-mt323:qt-mt323.dll
 0001:00026918       ?fix@QDateEdit@@MAEXXZ     10027918 f   qt-mt323:qt-mt323.dll
 0001:0002691e       ?setDay@QDateEdit@@MAEXH@Z 1002791e f   qt-mt323:qt-mt323.dll
 0001:00026924       ?setMonth@QDateEdit@@MAEXH@Z 10027924 f   qt-mt323:qt-mt323.dll
 0001:0002692a       ?setYear@QDateEdit@@MAEXH@Z 1002792a f   qt-mt323:qt-mt323.dll
 0001:00026930       ?setSeparator@QDateEdit@@UAEXABVQString@@@Z 10027930 f   qt-mt323:qt-mt323.dll
 0001:00026936       ?setRange@QDateEdit@@UAEXABVQDate@@0@Z 10027936 f   qt-mt323:qt-mt323.dll
 0001:0002693c       ?setMaxValue@QDateEdit@@UAEXABVQDate@@@Z 1002793c f   qt-mt323:qt-mt323.dll
 0001:00026942       ?setMinValue@QDateEdit@@UAEXABVQDate@@@Z 10027942 f   qt-mt323:qt-mt323.dll
 0001:00026948       ?setAutoAdvance@QDateEdit@@UAEX_N@Z 10027948 f   qt-mt323:qt-mt323.dll
 0001:0002694e       ?setOrder@QDateEdit@@UAEXW4Order@1@@Z 1002794e f   qt-mt323:qt-mt323.dll
 0001:00026954       ?setDate@QDateEdit@@UAEXABVQDate@@@Z 10027954 f   qt-mt323:qt-mt323.dll
 0001:0002695a       ?stepDown@QDateEdit@@MAEXXZ 1002795a f   qt-mt323:qt-mt323.dll
 0001:00026960       ?stepUp@QDateEdit@@MAEXXZ  10027960 f   qt-mt323:qt-mt323.dll
 0001:00026966       ?removeLastNumber@QDateEdit@@MAEXH@Z 10027966 f   qt-mt323:qt-mt323.dll
 0001:0002696c       ?addNumber@QDateEdit@@MAEXHH@Z 1002796c f   qt-mt323:qt-mt323.dll
 0001:00026972       ?sectionFormattedText@QDateEdit@@MAE?AVQString@@H@Z 10027972 f   qt-mt323:qt-mt323.dll
 0001:00026978       ?setFocusSection@QDateEdit@@MAE_NH@Z 10027978 f   qt-mt323:qt-mt323.dll
 0001:0002697e       ?resizeEvent@QDateEdit@@MAEXPAVQResizeEvent@@@Z 1002797e f   qt-mt323:qt-mt323.dll
 0001:00026984       ?minimumSizeHint@QDateEdit@@UBE?AVQSize@@XZ 10027984 f   qt-mt323:qt-mt323.dll
 0001:0002698a       ?sizeHint@QDateEdit@@UBE?AVQSize@@XZ 1002798a f   qt-mt323:qt-mt323.dll
 0001:00026990       ?timerEvent@QDateEdit@@MAEXPAVQTimerEvent@@@Z 10027990 f   qt-mt323:qt-mt323.dll
 0001:00026996       ?event@QDateEdit@@MAE_NPAVQEvent@@@Z 10027996 f   qt-mt323:qt-mt323.dll
 0001:0002699c       ?qt_property@QDateEdit@@UAE_NHHPAVQVariant@@@Z 1002799c f   qt-mt323:qt-mt323.dll
 0001:000269a2       ?qt_emit@QDateEdit@@UAE_NHPAUQUObject@@@Z 100279a2 f   qt-mt323:qt-mt323.dll
 0001:000269a8       ?qt_invoke@QDateEdit@@UAE_NHPAUQUObject@@@Z 100279a8 f   qt-mt323:qt-mt323.dll
 0001:000269ae       ?qt_cast@QDateEdit@@UAEPAXPBD@Z 100279ae f   qt-mt323:qt-mt323.dll
 0001:000269b4       ?className@QDateEdit@@UBEPBDXZ 100279b4 f   qt-mt323:qt-mt323.dll
 0001:000269ba       ?metaObject@QDateEdit@@UBEPAVQMetaObject@@XZ 100279ba f   qt-mt323:qt-mt323.dll
 0001:000269c0       ?setOn@QToolButton@@UAEX_N@Z 100279c0 f   qt-mt323:qt-mt323.dll
 0001:000269c6       ?setToggleButton@QToolButton@@UAEX_N@Z 100279c6 f   qt-mt323:qt-mt323.dll
 0001:000269cc       ?setTextLabel@QToolButton@@UAEXABVQString@@_N@Z 100279cc f   qt-mt323:qt-mt323.dll
 0001:000269d2       ?setUsesTextLabel@QToolButton@@UAEX_N@Z 100279d2 f   qt-mt323:qt-mt323.dll
 0001:000269d8       ?setUsesBigPixmap@QToolButton@@UAEX_N@Z 100279d8 f   qt-mt323:qt-mt323.dll
 0001:000269de       ?setIconSet@QToolButton@@UAEXABVQIconSet@@@Z 100279de f   qt-mt323:qt-mt323.dll
 0001:000269e4       ?drawButtonLabel@QToolButton@@MAEXPAVQPainter@@@Z 100279e4 f   qt-mt323:qt-mt323.dll
 0001:000269ea       ?drawButton@QToolButton@@MAEXPAVQPainter@@@Z 100279ea f   qt-mt323:qt-mt323.dll
 0001:000269f0       ?setText@QToolButton@@UAEXABVQString@@@Z 100279f0 f   qt-mt323:qt-mt323.dll
 0001:000269f6       ?paletteChange@QToolButton@@MAEXABVQPalette@@@Z 100279f6 f   qt-mt323:qt-mt323.dll
 0001:000269fc       ?moveEvent@QToolButton@@MAEXPAVQMoveEvent@@@Z 100279fc f   qt-mt323:qt-mt323.dll
 0001:00026a02       ?leaveEvent@QToolButton@@MAEXPAVQEvent@@@Z 10027a02 f   qt-mt323:qt-mt323.dll
 0001:00026a08       ?enterEvent@QToolButton@@MAEXPAVQEvent@@@Z 10027a08 f   qt-mt323:qt-mt323.dll
 0001:00026a0e       ?mousePressEvent@QToolButton@@MAEXPAVQMouseEvent@@@Z 10027a0e f   qt-mt323:qt-mt323.dll
 0001:00026a14       ?minimumSizeHint@QToolButton@@UBE?AVQSize@@XZ 10027a14 f   qt-mt323:qt-mt323.dll
 0001:00026a1a       ?sizeHint@QToolButton@@UBE?AVQSize@@XZ 10027a1a f   qt-mt323:qt-mt323.dll
 0001:00026a20       ?eventFilter@QToolButton@@MAE_NPAVQObject@@PAVQEvent@@@Z 10027a20 f   qt-mt323:qt-mt323.dll
 0001:00026a26       ?qt_property@QToolButton@@UAE_NHHPAVQVariant@@@Z 10027a26 f   qt-mt323:qt-mt323.dll
 0001:00026a2c       ?qt_emit@QToolButton@@UAE_NHPAUQUObject@@@Z 10027a2c f   qt-mt323:qt-mt323.dll
 0001:00026a32       ?qt_invoke@QToolButton@@UAE_NHPAUQUObject@@@Z 10027a32 f   qt-mt323:qt-mt323.dll
 0001:00026a38       ?qt_cast@QToolButton@@UAEPAXPBD@Z 10027a38 f   qt-mt323:qt-mt323.dll
 0001:00026a3e       ?className@QToolButton@@UBEPBDXZ 10027a3e f   qt-mt323:qt-mt323.dll
 0001:00026a44       ?metaObject@QToolButton@@UBEPAVQMetaObject@@XZ 10027a44 f   qt-mt323:qt-mt323.dll
 0001:00026a4a       ?createPopupMenu@QLineEdit@@MAEPAVQPopupMenu@@XZ 10027a4a f   qt-mt323:qt-mt323.dll
 0001:00026a50       ?setDragEnabled@QLineEdit@@UAEX_N@Z 10027a50 f   qt-mt323:qt-mt323.dll
 0001:00026a56       ?paste@QLineEdit@@UAEXXZ   10027a56 f   qt-mt323:qt-mt323.dll
 0001:00026a5c       ?copy@QLineEdit@@UBEXXZ    10027a5c f   qt-mt323:qt-mt323.dll
 0001:00026a62       ?cut@QLineEdit@@UAEXXZ     10027a62 f   qt-mt323:qt-mt323.dll
 0001:00026a68       ?setAlignment@QLineEdit@@UAEXH@Z 10027a68 f   qt-mt323:qt-mt323.dll
 0001:00026a6e       ?setCursorPosition@QLineEdit@@UAEXH@Z 10027a6e f   qt-mt323:qt-mt323.dll
 0001:00026a74       ?setSelection@QLineEdit@@UAEXHH@Z 10027a74 f   qt-mt323:qt-mt323.dll
 0001:00026a7a       ?setValidator@QLineEdit@@UAEXPBVQValidator@@@Z 10027a7a f   qt-mt323:qt-mt323.dll
 0001:00026a80       ?setReadOnly@QLineEdit@@UAEX_N@Z 10027a80 f   qt-mt323:qt-mt323.dll
 0001:00026a86       ?setEchoMode@QLineEdit@@UAEXW4EchoMode@1@@Z 10027a86 f   qt-mt323:qt-mt323.dll
 0001:00026a8c       ?setFrame@QLineEdit@@UAEX_N@Z 10027a8c f   qt-mt323:qt-mt323.dll
 0001:00026a92       ?setMaxLength@QLineEdit@@UAEXH@Z 10027a92 f   qt-mt323:qt-mt323.dll
 0001:00026a98       ?redo@QLineEdit@@UAEXXZ    10027a98 f   qt-mt323:qt-mt323.dll
 0001:00026a9e       ?undo@QLineEdit@@UAEXXZ    10027a9e f   qt-mt323:qt-mt323.dll
 0001:00026aa4       ?clear@QLineEdit@@UAEXXZ   10027aa4 f   qt-mt323:qt-mt323.dll
 0001:00026aaa       ?insert@QLineEdit@@UAEXABVQString@@@Z 10027aaa f   qt-mt323:qt-mt323.dll
 0001:00026ab0       ?clearValidator@QLineEdit@@UAEXXZ 10027ab0 f   qt-mt323:qt-mt323.dll
 0001:00026ab6       ?deselect@QLineEdit@@UAEXXZ 10027ab6 f   qt-mt323:qt-mt323.dll
 0001:00026abc       ?selectAll@QLineEdit@@UAEXXZ 10027abc f   qt-mt323:qt-mt323.dll
 0001:00026ac2       ?setText@QLineEdit@@UAEXABVQString@@@Z 10027ac2 f   qt-mt323:qt-mt323.dll
 0001:00026ac8       ?drawContents@QLineEdit@@MAEXPAVQPainter@@@Z 10027ac8 f   qt-mt323:qt-mt323.dll
 0001:00026ace       ?windowActivationChange@QLineEdit@@MAEX_N@Z 10027ace f   qt-mt323:qt-mt323.dll
 0001:00026ad4       ?dropEvent@QLineEdit@@MAEXPAVQDropEvent@@@Z 10027ad4 f   qt-mt323:qt-mt323.dll
 0001:00026ada       ?dragLeaveEvent@QLineEdit@@MAEXPAVQDragLeaveEvent@@@Z 10027ada f   qt-mt323:qt-mt323.dll
 0001:00026ae0       ?dragMoveEvent@QLineEdit@@MAEXPAVQDragMoveEvent@@@Z 10027ae0 f   qt-mt323:qt-mt323.dll
 0001:00026ae6       ?dragEnterEvent@QLineEdit@@MAEXPAVQDragEnterEvent@@@Z 10027ae6 f   qt-mt323:qt-mt323.dll
 0001:00026aec       ?imEndEvent@QLineEdit@@MAEXPAVQIMEvent@@@Z 10027aec f   qt-mt323:qt-mt323.dll
 0001:00026af2       ?imComposeEvent@QLineEdit@@MAEXPAVQIMEvent@@@Z 10027af2 f   qt-mt323:qt-mt323.dll
 0001:00026af8       ?imStartEvent@QLineEdit@@MAEXPAVQIMEvent@@@Z 10027af8 f   qt-mt323:qt-mt323.dll
 0001:00026afe       ?contextMenuEvent@QLineEdit@@MAEXPAVQContextMenuEvent@@@Z 10027afe f   qt-mt323:qt-mt323.dll
 0001:00026b04       ?resizeEvent@QLineEdit@@MAEXPAVQResizeEvent@@@Z 10027b04 f   qt-mt323:qt-mt323.dll
 0001:00026b0a       ?focusOutEvent@QLineEdit@@MAEXPAVQFocusEvent@@@Z 10027b0a f   qt-mt323:qt-mt323.dll
 0001:00026b10       ?focusInEvent@QLineEdit@@MAEXPAVQFocusEvent@@@Z 10027b10 f   qt-mt323:qt-mt323.dll
 0001:00026b16       ?keyPressEvent@QLineEdit@@MAEXPAVQKeyEvent@@@Z 10027b16 f   qt-mt323:qt-mt323.dll
 0001:00026b1c       ?mouseMoveEvent@QLineEdit@@MAEXPAVQMouseEvent@@@Z 10027b1c f   qt-mt323:qt-mt323.dll
 0001:00026b22       ?mouseDoubleClickEvent@QLineEdit@@MAEXPAVQMouseEvent@@@Z 10027b22 f   qt-mt323:qt-mt323.dll
 0001:00026b28       ?mouseReleaseEvent@QLineEdit@@MAEXPAVQMouseEvent@@@Z 10027b28 f   qt-mt323:qt-mt323.dll
 0001:00026b2e       ?mousePressEvent@QLineEdit@@MAEXPAVQMouseEvent@@@Z 10027b2e f   qt-mt323:qt-mt323.dll
 0001:00026b34       ?minimumSizeHint@QLineEdit@@UBE?AVQSize@@XZ 10027b34 f   qt-mt323:qt-mt323.dll
 0001:00026b3a       ?sizeHint@QLineEdit@@UBE?AVQSize@@XZ 10027b3a f   qt-mt323:qt-mt323.dll
 0001:00026b40       ?setFont@QLineEdit@@UAEXABVQFont@@@Z 10027b40 f   qt-mt323:qt-mt323.dll
 0001:00026b46       ?setPalette@QLineEdit@@UAEXABVQPalette@@@Z 10027b46 f   qt-mt323:qt-mt323.dll
 0001:00026b4c       ?event@QLineEdit@@MAE_NPAVQEvent@@@Z 10027b4c f   qt-mt323:qt-mt323.dll
 0001:00026b52       ?qt_property@QLineEdit@@UAE_NHHPAVQVariant@@@Z 10027b52 f   qt-mt323:qt-mt323.dll
 0001:00026b58       ?qt_emit@QLineEdit@@UAE_NHPAUQUObject@@@Z 10027b58 f   qt-mt323:qt-mt323.dll
 0001:00026b5e       ?qt_invoke@QLineEdit@@UAE_NHPAUQUObject@@@Z 10027b5e f   qt-mt323:qt-mt323.dll
 0001:00026b64       ?qt_cast@QLineEdit@@UAEPAXPBD@Z 10027b64 f   qt-mt323:qt-mt323.dll
 0001:00026b6a       ?className@QLineEdit@@UBEPBDXZ 10027b6a f   qt-mt323:qt-mt323.dll
 0001:00026b70       ?metaObject@QLineEdit@@UBEPAVQMetaObject@@XZ 10027b70 f   qt-mt323:qt-mt323.dll
 0001:00026b76       ?setAlignment@QGroupBox@@UAEXH@Z 10027b76 f   qt-mt323:qt-mt323.dll
 0001:00026b7c       ?setTitle@QGroupBox@@UAEXABVQString@@@Z 10027b7c f   qt-mt323:qt-mt323.dll
 0001:00026b82       ?setColumnLayout@QGroupBox@@UAEXHW4Orientation@Qt@@@Z 10027b82 f   qt-mt323:qt-mt323.dll
 0001:00026b88       ?drawContents@QFrame@@MAEXPAVQPainter@@@Z 10027b88 f   qt-mt323:qt-mt323.dll
 0001:00026b8e       ?fontChange@QGroupBox@@MAEXABVQFont@@@Z 10027b8e f   qt-mt323:qt-mt323.dll
 0001:00026b94       ?resizeEvent@QGroupBox@@MAEXPAVQResizeEvent@@@Z 10027b94 f   qt-mt323:qt-mt323.dll
 0001:00026b9a       ?paintEvent@QGroupBox@@MAEXPAVQPaintEvent@@@Z 10027b9a f   qt-mt323:qt-mt323.dll
 0001:00026ba0       ?focusInEvent@QGroupBox@@MAEXPAVQFocusEvent@@@Z 10027ba0 f   qt-mt323:qt-mt323.dll
 0001:00026ba6       ?sizeHint@QGroupBox@@UBE?AVQSize@@XZ 10027ba6 f   qt-mt323:qt-mt323.dll
 0001:00026bac       ?setEnabled@QGroupBox@@UAEX_N@Z 10027bac f   qt-mt323:qt-mt323.dll
 0001:00026bb2       ?childEvent@QGroupBox@@MAEXPAVQChildEvent@@@Z 10027bb2 f   qt-mt323:qt-mt323.dll
 0001:00026bb8       ?event@QGroupBox@@MAE_NPAVQEvent@@@Z 10027bb8 f   qt-mt323:qt-mt323.dll
 0001:00026bbe       ?qt_property@QGroupBox@@UAE_NHHPAVQVariant@@@Z 10027bbe f   qt-mt323:qt-mt323.dll
 0001:00026bc4       ?qt_emit@QGroupBox@@UAE_NHPAUQUObject@@@Z 10027bc4 f   qt-mt323:qt-mt323.dll
 0001:00026bca       ?qt_invoke@QGroupBox@@UAE_NHPAUQUObject@@@Z 10027bca f   qt-mt323:qt-mt323.dll
 0001:00026bd0       ?qt_cast@QGroupBox@@UAEPAXPBD@Z 10027bd0 f   qt-mt323:qt-mt323.dll
 0001:00026bd6       ?className@QGroupBox@@UBEPBDXZ 10027bd6 f   qt-mt323:qt-mt323.dll
 0001:00026bdc       ?metaObject@QGroupBox@@UBEPAVQMetaObject@@XZ 10027bdc f   qt-mt323:qt-mt323.dll
 0001:00026be2       ?stepChange@QRangeControl@@MAEXXZ 10027be2 f   qt-mt323:qt-mt323.dll
 0001:00026be8       ?rangeChange@QSpinBox@@MAEXXZ 10027be8 f   qt-mt323:qt-mt323.dll
 0001:00026bee       ?valueChange@QSpinBox@@MAEXXZ 10027bee f   qt-mt323:qt-mt323.dll
 0001:00026bf4       ?interpretText@QSpinBox@@MAEXXZ 10027bf4 f   qt-mt323:qt-mt323.dll
 0001:00026bfa       ?updateDisplay@QSpinBox@@MAEXXZ 10027bfa f   qt-mt323:qt-mt323.dll
 0001:00026c00       ?mapTextToValue@QSpinBox@@MAEHPA_N@Z 10027c00 f   qt-mt323:qt-mt323.dll
 0001:00026c06       ?mapValueToText@QSpinBox@@MAE?AVQString@@H@Z 10027c06 f   qt-mt323:qt-mt323.dll
 0001:00026c0c       ?selectAll@QSpinBox@@UAEXXZ 10027c0c f   qt-mt323:qt-mt323.dll
 0001:00026c12       ?stepDown@QSpinBox@@UAEXXZ 10027c12 f   qt-mt323:qt-mt323.dll
 0001:00026c18       ?stepUp@QSpinBox@@UAEXXZ   10027c18 f   qt-mt323:qt-mt323.dll
 0001:00026c1e       ?setSuffix@QSpinBox@@UAEXABVQString@@@Z 10027c1e f   qt-mt323:qt-mt323.dll
 0001:00026c24       ?setPrefix@QSpinBox@@UAEXABVQString@@@Z 10027c24 f   qt-mt323:qt-mt323.dll
 0001:00026c2a       ?setValue@QSpinBox@@UAEXH@Z 10027c2a f   qt-mt323:qt-mt323.dll
 0001:00026c30       ?setValidator@QSpinBox@@UAEXPBVQValidator@@@Z 10027c30 f   qt-mt323:qt-mt323.dll
 0001:00026c36       ?setButtonSymbols@QSpinBox@@UAEXW4ButtonSymbols@1@@Z 10027c36 f   qt-mt323:qt-mt323.dll
 0001:00026c3c       ?setWrapping@QSpinBox@@UAEX_N@Z 10027c3c f   qt-mt323:qt-mt323.dll
 0001:00026c42       ?setSpecialValueText@QSpinBox@@UAEXABVQString@@@Z 10027c42 f   qt-mt323:qt-mt323.dll
 0001:00026c48       ?cleanText@QSpinBox@@UBE?AVQString@@XZ 10027c48 f   qt-mt323:qt-mt323.dll
 0001:00026c4e       ?suffix@QSpinBox@@UBE?AVQString@@XZ 10027c4e f   qt-mt323:qt-mt323.dll
 0001:00026c54       ?prefix@QSpinBox@@UBE?AVQString@@XZ 10027c54 f   qt-mt323:qt-mt323.dll
 0001:00026c5a       ?styleChange@QSpinBox@@MAEXAAVQStyle@@@Z 10027c5a f   qt-mt323:qt-mt323.dll
 0001:00026c60       ?resizeEvent@QSpinBox@@MAEXPAVQResizeEvent@@@Z 10027c60 f   qt-mt323:qt-mt323.dll
 0001:00026c66       ?leaveEvent@QSpinBox@@MAEXPAVQEvent@@@Z 10027c66 f   qt-mt323:qt-mt323.dll
 0001:00026c6c       ?wheelEvent@QSpinBox@@MAEXPAVQWheelEvent@@@Z 10027c6c f   qt-mt323:qt-mt323.dll
 0001:00026c72       ?minimumSizeHint@QSpinBox@@UBE?AVQSize@@XZ 10027c72 f   qt-mt323:qt-mt323.dll
 0001:00026c78       ?sizeHint@QSpinBox@@UBE?AVQSize@@XZ 10027c78 f   qt-mt323:qt-mt323.dll
 0001:00026c7e       ?setEnabled@QSpinBox@@UAEX_N@Z 10027c7e f   qt-mt323:qt-mt323.dll
 0001:00026c84       ?eventFilter@QSpinBox@@MAE_NPAVQObject@@PAVQEvent@@@Z 10027c84 f   qt-mt323:qt-mt323.dll
 0001:00026c8a       ?qt_property@QSpinBox@@UAE_NHHPAVQVariant@@@Z 10027c8a f   qt-mt323:qt-mt323.dll
 0001:00026c90       ?qt_emit@QSpinBox@@UAE_NHPAUQUObject@@@Z 10027c90 f   qt-mt323:qt-mt323.dll
 0001:00026c96       ?qt_invoke@QSpinBox@@UAE_NHPAUQUObject@@@Z 10027c96 f   qt-mt323:qt-mt323.dll
 0001:00026c9c       ?qt_cast@QSpinBox@@UAEPAXPBD@Z 10027c9c f   qt-mt323:qt-mt323.dll
 0001:00026ca2       ?className@QSpinBox@@UBEPBDXZ 10027ca2 f   qt-mt323:qt-mt323.dll
 0001:00026ca8       ?metaObject@QSpinBox@@UBEPAVQMetaObject@@XZ 10027ca8 f   qt-mt323:qt-mt323.dll
 0001:00026cae       ?setNum@QLabel@@UAEXH@Z    10027cae f   qt-mt323:qt-mt323.dll
 0001:00026cb4       ?setNum@QLabel@@UAEXN@Z    10027cb4 f   qt-mt323:qt-mt323.dll
 0001:00026cba       ?setMovie@QLabel@@UAEXABVQMovie@@@Z 10027cba f   qt-mt323:qt-mt323.dll
 0001:00026cc0       ?setPicture@QLabel@@UAEXABVQPicture@@@Z 10027cc0 f   qt-mt323:qt-mt323.dll
 0001:00026cc6       ?setPixmap@QLabel@@UAEXABVQPixmap@@@Z 10027cc6 f   qt-mt323:qt-mt323.dll
 0001:00026ccc       ?setText@QLabel@@UAEXABVQString@@@Z 10027ccc f   qt-mt323:qt-mt323.dll
 0001:00026cd2       ?setBuddy@QLabel@@UAEXPAVQWidget@@@Z 10027cd2 f   qt-mt323:qt-mt323.dll
 0001:00026cd8       ?setAutoResize@QLabel@@UAEX_N@Z 10027cd8 f   qt-mt323:qt-mt323.dll
 0001:00026cde       ?setAlignment@QLabel@@UAEXH@Z 10027cde f   qt-mt323:qt-mt323.dll
 0001:00026ce4       ?drawContents@QLabel@@MAEXPAVQPainter@@@Z 10027ce4 f   qt-mt323:qt-mt323.dll
 0001:00026cea       ?fontChange@QLabel@@MAEXABVQFont@@@Z 10027cea f   qt-mt323:qt-mt323.dll
 0001:00026cf0       ?styleChange@QFrame@@MAEXAAVQStyle@@@Z 10027cf0 f   qt-mt323:qt-mt323.dll
 0001:00026cf6       ?resizeEvent@QLabel@@MAEXPAVQResizeEvent@@@Z 10027cf6 f   qt-mt323:qt-mt323.dll
 0001:00026cfc       ?heightForWidth@QLabel@@UBEHH@Z 10027cfc f   qt-mt323:qt-mt323.dll
 0001:00026d02       ?minimumSizeHint@QLabel@@UBE?AVQSize@@XZ 10027d02 f   qt-mt323:qt-mt323.dll
 0001:00026d08       ?sizeHint@QLabel@@UBE?AVQSize@@XZ 10027d08 f   qt-mt323:qt-mt323.dll
 0001:00026d0e       ?setFont@QLabel@@UAEXABVQFont@@@Z 10027d0e f   qt-mt323:qt-mt323.dll
 0001:00026d14       ?qt_property@QLabel@@UAE_NHHPAVQVariant@@@Z 10027d14 f   qt-mt323:qt-mt323.dll
 0001:00026d1a       ?qt_emit@QLabel@@UAE_NHPAUQUObject@@@Z 10027d1a f   qt-mt323:qt-mt323.dll
 0001:00026d20       ?qt_invoke@QLabel@@UAE_NHPAUQUObject@@@Z 10027d20 f   qt-mt323:qt-mt323.dll
 0001:00026d26       ?qt_cast@QLabel@@UAEPAXPBD@Z 10027d26 f   qt-mt323:qt-mt323.dll
 0001:00026d2c       ?className@QLabel@@UBEPBDXZ 10027d2c f   qt-mt323:qt-mt323.dll
 0001:00026d32       ?metaObject@QLabel@@UBEPAVQMetaObject@@XZ 10027d32 f   qt-mt323:qt-mt323.dll
 0001:00026d38       ?setSecond@QTimeEdit@@MAEXH@Z 10027d38 f   qt-mt323:qt-mt323.dll
 0001:00026d3e       ?setMinute@QTimeEdit@@MAEXH@Z 10027d3e f   qt-mt323:qt-mt323.dll
 0001:00026d44       ?setHour@QTimeEdit@@MAEXH@Z 10027d44 f   qt-mt323:qt-mt323.dll
 0001:00026d4a       ?outOfRange@QTimeEdit@@MBE_NHHH@Z 10027d4a f   qt-mt323:qt-mt323.dll
 0001:00026d50       ?setSeparator@QTimeEdit@@UAEXABVQString@@@Z 10027d50 f   qt-mt323:qt-mt323.dll
 0001:00026d56       ?setRange@QTimeEdit@@UAEXABVQTime@@0@Z 10027d56 f   qt-mt323:qt-mt323.dll
 0001:00026d5c       ?setMaxValue@QTimeEdit@@UAEXABVQTime@@@Z 10027d5c f   qt-mt323:qt-mt323.dll
 0001:00026d62       ?setMinValue@QTimeEdit@@UAEXABVQTime@@@Z 10027d62 f   qt-mt323:qt-mt323.dll
 0001:00026d68       ?setAutoAdvance@QTimeEdit@@UAEX_N@Z 10027d68 f   qt-mt323:qt-mt323.dll
 0001:00026d6e       ?setTime@QTimeEdit@@UAEXABVQTime@@@Z 10027d6e f   qt-mt323:qt-mt323.dll
 0001:00026d74       ?stepDown@QTimeEdit@@MAEXXZ 10027d74 f   qt-mt323:qt-mt323.dll
 0001:00026d7a       ?stepUp@QTimeEdit@@MAEXXZ  10027d7a f   qt-mt323:qt-mt323.dll
 0001:00026d80       ?removeLastNumber@QTimeEdit@@MAEXH@Z 10027d80 f   qt-mt323:qt-mt323.dll
 0001:00026d86       ?addNumber@QTimeEdit@@MAEXHH@Z 10027d86 f   qt-mt323:qt-mt323.dll
 0001:00026d8c       ?sectionFormattedText@QTimeEdit@@MAE?AVQString@@H@Z 10027d8c f   qt-mt323:qt-mt323.dll
 0001:00026d92       ?setFocusSection@QTimeEdit@@MAE_NH@Z 10027d92 f   qt-mt323:qt-mt323.dll
 0001:00026d98       ?resizeEvent@QTimeEdit@@MAEXPAVQResizeEvent@@@Z 10027d98 f   qt-mt323:qt-mt323.dll
 0001:00026d9e       ?minimumSizeHint@QTimeEdit@@UBE?AVQSize@@XZ 10027d9e f   qt-mt323:qt-mt323.dll
 0001:00026da4       ?sizeHint@QTimeEdit@@UBE?AVQSize@@XZ 10027da4 f   qt-mt323:qt-mt323.dll
 0001:00026daa       ?timerEvent@QTimeEdit@@MAEXPAVQTimerEvent@@@Z 10027daa f   qt-mt323:qt-mt323.dll
 0001:00026db0       ?event@QTimeEdit@@MAE_NPAVQEvent@@@Z 10027db0 f   qt-mt323:qt-mt323.dll
 0001:00026db6       ?qt_property@QTimeEdit@@UAE_NHHPAVQVariant@@@Z 10027db6 f   qt-mt323:qt-mt323.dll
 0001:00026dbc       ?qt_emit@QTimeEdit@@UAE_NHPAUQUObject@@@Z 10027dbc f   qt-mt323:qt-mt323.dll
 0001:00026dc2       ?qt_invoke@QTimeEdit@@UAE_NHPAUQUObject@@@Z 10027dc2 f   qt-mt323:qt-mt323.dll
 0001:00026dc8       ?qt_cast@QTimeEdit@@UAEPAXPBD@Z 10027dc8 f   qt-mt323:qt-mt323.dll
 0001:00026dce       ?className@QTimeEdit@@UBEPBDXZ 10027dce f   qt-mt323:qt-mt323.dll
 0001:00026dd4       ?metaObject@QTimeEdit@@UBEPAVQMetaObject@@XZ 10027dd4 f   qt-mt323:qt-mt323.dll
 0001:00026dda       ?iterator@QGridLayout@@UAE?AVQLayoutIterator@@XZ 10027dda f   qt-mt323:qt-mt323.dll
 0001:00026de0       ?invalidate@QGridLayout@@UAEXXZ 10027de0 f   qt-mt323:qt-mt323.dll
 0001:00026de6       ?heightForWidth@QGridLayout@@UBEHH@Z 10027de6 f   qt-mt323:qt-mt323.dll
 0001:00026dec       ?hasHeightForWidth@QGridLayout@@UBE_NXZ 10027dec f   qt-mt323:qt-mt323.dll
 0001:00026df2       ?setGeometry@QGridLayout@@UAEXABVQRect@@@Z 10027df2 f   qt-mt323:qt-mt323.dll
 0001:00026df8       ?expanding@QGridLayout@@UBE?AW4ExpandData@QSizePolicy@@XZ 10027df8 f   qt-mt323:qt-mt323.dll
 0001:00026dfe       ?maximumSize@QGridLayout@@UBE?AVQSize@@XZ 10027dfe f   qt-mt323:qt-mt323.dll
 0001:00026e04       ?minimumSize@QGridLayout@@UBE?AVQSize@@XZ 10027e04 f   qt-mt323:qt-mt323.dll
 0001:00026e0a       ?sizeHint@QGridLayout@@UBE?AVQSize@@XZ 10027e0a f   qt-mt323:qt-mt323.dll
 0001:00026e10       ?setColStretch@QGridLayout@@UAEXHH@Z 10027e10 f   qt-mt323:qt-mt323.dll
 0001:00026e16       ?setRowStretch@QGridLayout@@UAEXHH@Z 10027e16 f   qt-mt323:qt-mt323.dll
 0001:00026e1c       ?addItem@QGridLayout@@UAEXPAVQLayoutItem@@@Z 10027e1c f   qt-mt323:qt-mt323.dll
 0001:00026e22       ?qt_property@QGridLayout@@UAE_NHHPAVQVariant@@@Z 10027e22 f   qt-mt323:qt-mt323.dll
 0001:00026e28       ?qt_emit@QGridLayout@@UAE_NHPAUQUObject@@@Z 10027e28 f   qt-mt323:qt-mt323.dll
 0001:00026e2e       ?qt_invoke@QGridLayout@@UAE_NHPAUQUObject@@@Z 10027e2e f   qt-mt323:qt-mt323.dll
 0001:00026e34       ?qt_cast@QGridLayout@@UAEPAXPBD@Z 10027e34 f   qt-mt323:qt-mt323.dll
 0001:00026e3a       ?className@QGridLayout@@UBEPBDXZ 10027e3a f   qt-mt323:qt-mt323.dll
 0001:00026e40       ?metaObject@QGridLayout@@UBEPAVQMetaObject@@XZ 10027e40 f   qt-mt323:qt-mt323.dll
 0001:00026e46       ?cancelRename@QListViewItem@@MAEXH@Z 10027e46 f   qt-mt323:qt-mt323.dll
 0001:00026e4c       ?okRename@QListViewItem@@MAEXH@Z 10027e4c f   qt-mt323:qt-mt323.dll
 0001:00026e52       ?dragLeft@QListViewItem@@MAEXXZ 10027e52 f   qt-mt323:qt-mt323.dll
 0001:00026e58       ?dragEntered@QListViewItem@@MAEXXZ 10027e58 f   qt-mt323:qt-mt323.dll
 0001:00026e5e       ?dropped@QListViewItem@@MAEXPAVQDropEvent@@@Z 10027e5e f   qt-mt323:qt-mt323.dll
 0001:00026e64       ?activate@QListViewItem@@MAEXXZ 10027e64 f   qt-mt323:qt-mt323.dll
 0001:00026e6a       ?setHeight@QListViewItem@@MAEXH@Z 10027e6a f   qt-mt323:qt-mt323.dll
 0001:00026e70       ?enforceSortOrder@QListViewItem@@MBEXXZ 10027e70 f   qt-mt323:qt-mt323.dll
 0001:00026e76       ?setMultiLinesEnabled@QListViewItem@@UAEX_N@Z 10027e76 f   qt-mt323:qt-mt323.dll
 0001:00026e7c       ?rtti@QListViewItem@@UBEHXZ 10027e7c f   qt-mt323:qt-mt323.dll
 0001:00026e82       ?setEnabled@QListViewItem@@UAEX_N@Z 10027e82 f   qt-mt323:qt-mt323.dll
 0001:00026e88       ?startRename@QListViewItem@@UAEXH@Z 10027e88 f   qt-mt323:qt-mt323.dll
 0001:00026e8e       ?setRenameEnabled@QListViewItem@@UAEXH_N@Z 10027e8e f   qt-mt323:qt-mt323.dll
 0001:00026e94       ?acceptDrop@QListViewItem@@UBE_NPBVQMimeSource@@@Z 10027e94 f   qt-mt323:qt-mt323.dll
 0001:00026e9a       ?setDropEnabled@QListViewItem@@UAEX_N@Z 10027e9a f   qt-mt323:qt-mt323.dll
 0001:00026ea0       ?setDragEnabled@QListViewItem@@UAEX_N@Z 10027ea0 f   qt-mt323:qt-mt323.dll
 0001:00026ea6       ?sort@QListViewItem@@UAEXXZ 10027ea6 f   qt-mt323:qt-mt323.dll
 0001:00026eac       ?setExpandable@QListViewItem@@UAEX_N@Z 10027eac f   qt-mt323:qt-mt323.dll
 0001:00026eb2       ?setSelectable@QListViewItem@@UAEX_N@Z 10027eb2 f   qt-mt323:qt-mt323.dll
 0001:00026eb8       ?paintFocus@QListViewItem@@UAEXPAVQPainter@@ABVQColorGroup@@ABVQRect@@@Z 10027eb8 f   qt-mt323:qt-mt323.dll
 0001:00026ebe       ?paintBranches@QListViewItem@@UAEXPAVQPainter@@ABVQColorGroup@@HHH@Z 10027ebe f   qt-mt323:qt-mt323.dll
 0001:00026ec4       ?paintCell@QListViewItem@@UAEXPAVQPainter@@ABVQColorGroup@@HHH@Z 10027ec4 f   qt-mt323:qt-mt323.dll
 0001:00026eca       ?setSelected@QListViewItem@@UAEX_N@Z 10027eca f   qt-mt323:qt-mt323.dll
 0001:00026ed0       ?setup@QListViewItem@@UAEXXZ 10027ed0 f   qt-mt323:qt-mt323.dll
 0001:00026ed6       ?setOpen@QListViewItem@@UAEX_N@Z 10027ed6 f   qt-mt323:qt-mt323.dll
 0001:00026edc       ?sortChildItems@QListViewItem@@UAEXH_N@Z 10027edc f   qt-mt323:qt-mt323.dll
 0001:00026ee2       ?compare@QListViewItem@@UBEHPAV1@H_N@Z 10027ee2 f   qt-mt323:qt-mt323.dll
 0001:00026ee8       ?key@QListViewItem@@UBE?AVQString@@H_N@Z 10027ee8 f   qt-mt323:qt-mt323.dll
 0001:00026eee       ?pixmap@QListViewItem@@UBEPBVQPixmap@@H@Z 10027eee f   qt-mt323:qt-mt323.dll
 0001:00026ef4       ?setPixmap@QListViewItem@@UAEXHABVQPixmap@@@Z 10027ef4 f   qt-mt323:qt-mt323.dll
 0001:00026efa       ?text@QListViewItem@@UBE?AVQString@@H@Z 10027efa f   qt-mt323:qt-mt323.dll
 0001:00026f00       ?setText@QListViewItem@@UAEXHABVQString@@@Z 10027f00 f   qt-mt323:qt-mt323.dll
 0001:00026f06       ?width@QListViewItem@@UBEHABVQFontMetrics@@PBVQListView@@H@Z 10027f06 f   qt-mt323:qt-mt323.dll
 0001:00026f0c       ?invalidateHeight@QListViewItem@@UAEXXZ 10027f0c f   qt-mt323:qt-mt323.dll
 0001:00026f12       ?removeItem@QListViewItem@@UAEXPAV1@@Z 10027f12 f   qt-mt323:qt-mt323.dll
 0001:00026f18       ?takeItem@QListViewItem@@UAEXPAV1@@Z 10027f18 f   qt-mt323:qt-mt323.dll
 0001:00026f1e       ?insertItem@QListViewItem@@UAEXPAV1@@Z 10027f1e f   qt-mt323:qt-mt323.dll
 0001:00026f24       ?sync@QSqlForm@@EAEXXZ     10027f24 f   qt-mt323:qt-mt323.dll
 0001:00026f2a       ?clearValues@QSqlForm@@UAEX_N@Z 10027f2a f   qt-mt323:qt-mt323.dll
 0001:00026f30       ?clear@QSqlForm@@UAEXXZ    10027f30 f   qt-mt323:qt-mt323.dll
 0001:00026f36       ?writeFields@QSqlForm@@UAEXXZ 10027f36 f   qt-mt323:qt-mt323.dll
 0001:00026f3c       ?readFields@QSqlForm@@UAEXXZ 10027f3c f   qt-mt323:qt-mt323.dll
 0001:00026f42       ?writeField@QSqlForm@@UAEXPAVQWidget@@@Z 10027f42 f   qt-mt323:qt-mt323.dll
 0001:00026f48       ?readField@QSqlForm@@UAEXPAVQWidget@@@Z 10027f48 f   qt-mt323:qt-mt323.dll
 0001:00026f4e       ?setRecord@QSqlForm@@UAEXPAVQSqlRecord@@@Z 10027f4e f   qt-mt323:qt-mt323.dll
 0001:00026f54       ?remove@QSqlForm@@UAEXABVQString@@@Z 10027f54 f   qt-mt323:qt-mt323.dll
 0001:00026f5a       ?remove@QSqlForm@@MAEXPAVQWidget@@@Z 10027f5a f   qt-mt323:qt-mt323.dll
 0001:00026f60       ?insert@QSqlForm@@UAEXPAVQWidget@@ABVQString@@@Z 10027f60 f   qt-mt323:qt-mt323.dll
 0001:00026f66       ?insert@QSqlForm@@MAEXPAVQWidget@@PAVQSqlField@@@Z 10027f66 f   qt-mt323:qt-mt323.dll
 0001:00026f6c       ?qt_property@QSqlForm@@UAE_NHHPAVQVariant@@@Z 10027f6c f   qt-mt323:qt-mt323.dll
 0001:00026f72       ?qt_emit@QSqlForm@@UAE_NHPAUQUObject@@@Z 10027f72 f   qt-mt323:qt-mt323.dll
 0001:00026f78       ?qt_invoke@QSqlForm@@UAE_NHPAUQUObject@@@Z 10027f78 f   qt-mt323:qt-mt323.dll
 0001:00026f7e       ?qt_cast@QSqlForm@@UAEPAXPBD@Z 10027f7e f   qt-mt323:qt-mt323.dll
 0001:00026f84       ?className@QSqlForm@@UBEPBDXZ 10027f84 f   qt-mt323:qt-mt323.dll
 0001:00026f8a       ?metaObject@QSqlForm@@UBEPAVQMetaObject@@XZ 10027f8a f   qt-mt323:qt-mt323.dll
 0001:00026f90       ?handleError@QDataBrowser@@MAEXABVQSqlError@@@Z 10027f90 f   qt-mt323:qt-mt323.dll
 0001:00026f96       ?confirmCancel@QDataBrowser@@MAE?AW4Confirm@QSql@@W4Op@3@@Z 10027f96 f   qt-mt323:qt-mt323.dll
 0001:00026f9c       ?confirmEdit@QDataBrowser@@MAE?AW4Confirm@QSql@@W4Op@3@@Z 10027f9c f   qt-mt323:qt-mt323.dll
 0001:00026fa2       ?currentEdited@QDataBrowser@@MAE_NXZ 10027fa2 f   qt-mt323:qt-mt323.dll
 0001:00026fa8       ?deleteCurrent@QDataBrowser@@MAE_NXZ 10027fa8 f   qt-mt323:qt-mt323.dll
 0001:00026fae       ?updateCurrent@QDataBrowser@@MAE_NXZ 10027fae f   qt-mt323:qt-mt323.dll
 0001:00026fb4       ?insertCurrent@QDataBrowser@@MAE_NXZ 10027fb4 f   qt-mt323:qt-mt323.dll
 0001:00026fba       ?clearValues@QDataBrowser@@UAEXXZ 10027fba f   qt-mt323:qt-mt323.dll
 0001:00026fc0       ?writeFields@QDataBrowser@@UAEXXZ 10027fc0 f   qt-mt323:qt-mt323.dll
 0001:00026fc6       ?readFields@QDataBrowser@@UAEXXZ 10027fc6 f   qt-mt323:qt-mt323.dll
 0001:00026fcc       ?prev@QDataBrowser@@UAEXXZ 10027fcc f   qt-mt323:qt-mt323.dll
 0001:00026fd2       ?next@QDataBrowser@@UAEXXZ 10027fd2 f   qt-mt323:qt-mt323.dll
 0001:00026fd8       ?last@QDataBrowser@@UAEXXZ 10027fd8 f   qt-mt323:qt-mt323.dll
 0001:00026fde       ?first@QDataBrowser@@UAEXXZ 10027fde f   qt-mt323:qt-mt323.dll
 0001:00026fe4       ?del@QDataBrowser@@UAEXXZ  10027fe4 f   qt-mt323:qt-mt323.dll
 0001:00026fea       ?update@QDataBrowser@@UAEXXZ 10027fea f   qt-mt323:qt-mt323.dll
 0001:00026ff0       ?insert@QDataBrowser@@UAEXXZ 10027ff0 f   qt-mt323:qt-mt323.dll
 0001:00026ff6       ?refresh@QDataBrowser@@UAEXXZ 10027ff6 f   qt-mt323:qt-mt323.dll
 0001:00026ffc       ?seek@QDataBrowser@@UAE_NH_N@Z 10027ffc f   qt-mt323:qt-mt323.dll
 0001:00027002       ?setAutoEdit@QDataBrowser@@UAEX_N@Z 10028002 f   qt-mt323:qt-mt323.dll
 0001:00027008       ?setReadOnly@QDataBrowser@@UAEX_N@Z 10028008 f   qt-mt323:qt-mt323.dll
 0001:0002700e       ?setConfirmCancels@QDataBrowser@@UAEX_N@Z 1002800e f   qt-mt323:qt-mt323.dll
 0001:00027014       ?setConfirmDelete@QDataBrowser@@UAEX_N@Z 10028014 f   qt-mt323:qt-mt323.dll
 0001:0002701a       ?setConfirmUpdate@QDataBrowser@@UAEX_N@Z 1002801a f   qt-mt323:qt-mt323.dll
 0001:00027020       ?setConfirmInsert@QDataBrowser@@UAEX_N@Z 10028020 f   qt-mt323:qt-mt323.dll
 0001:00027026       ?setConfirmEdits@QDataBrowser@@UAEX_N@Z 10028026 f   qt-mt323:qt-mt323.dll
 0001:0002702c       ?setForm@QDataBrowser@@UAEXPAVQSqlForm@@@Z 1002802c f   qt-mt323:qt-mt323.dll
 0001:00027032       ?setSqlCursor@QDataBrowser@@UAEXPAVQSqlCursor@@_N@Z 10028032 f   qt-mt323:qt-mt323.dll
 0001:00027038       ?clearValues@QDataView@@UAEXXZ 10028038 f   qt-mt323:qt-mt323.dll
 0001:0002703e       ?writeFields@QDataView@@UAEXXZ 1002803e f   qt-mt323:qt-mt323.dll
 0001:00027044       ?readFields@QDataView@@UAEXXZ 10028044 f   qt-mt323:qt-mt323.dll
 0001:0002704a       ?refresh@QDataView@@UAEXPAVQSqlRecord@@@Z 1002804a f   qt-mt323:qt-mt323.dll
 0001:00027050       ?setRecord@QDataView@@UAEXPAVQSqlRecord@@@Z 10028050 f   qt-mt323:qt-mt323.dll
 0001:00027056       ?setForm@QDataView@@UAEXPAVQSqlForm@@@Z 10028056 f   qt-mt323:qt-mt323.dll
 0001:0002705c       ?setAttribute@QDomElement@@QAEXABVQString@@H@Z 1002805c f   qt-mt323:qt-mt323.dll
 0001:00027062       ?setAttribute@QDomElement@@QAEXABVQString@@N@Z 10028062 f   qt-mt323:qt-mt323.dll
 0001:00027068       ?removeAttribute@QDomElement@@QAEXABVQString@@@Z 10028068 f   qt-mt323:qt-mt323.dll
 0001:0002706e       ?item@QDomNodeList@@UBE?AVQDomNode@@H@Z 1002806e f   qt-mt323:qt-mt323.dll
 0001:00027074       ?length@QDomNodeList@@UBEIXZ 10028074 f   qt-mt323:qt-mt323.dll
 0001:0002707a       ??1QDomNodeList@@UAE@XZ    1002807a f   qt-mt323:qt-mt323.dll
 0001:00027080       ??4QDomNodeList@@QAEAAV0@ABV0@@Z 10028080 f   qt-mt323:qt-mt323.dll
 0001:00027086       ?elementsByTagName@QDomDocument@@QBE?AVQDomNodeList@@ABVQString@@@Z 10028086 f   qt-mt323:qt-mt323.dll
 0001:0002708c       ?hasAttribute@QDomElement@@QBE_NABVQString@@@Z 1002808c f   qt-mt323:qt-mt323.dll
 0001:00027092       ??0QDomNodeList@@QAE@XZ    10028092 f   qt-mt323:qt-mt323.dll
 0001:00027098       ??0QDomNode@@QAE@XZ        10028098 f   qt-mt323:qt-mt323.dll
 0002:00000000       __imp__OutputDebugStringA@4 1002b000     kernel32:KERNEL32.dll
 0002:00000004       __imp__LocalFree@4         1002b004     kernel32:KERNEL32.dll
 0002:00000008       __imp__DisableThreadLibraryCalls@4 1002b008     kernel32:KERNEL32.dll
 0002:0000000c       __imp__GetLastError@0      1002b00c     kernel32:KERNEL32.dll
 0002:00000010       __imp__FormatMessageA@28   1002b010     kernel32:KERNEL32.dll
 0002:00000014       \177KERNEL32_NULL_THUNK_DATA 1002b014     kernel32:KERNEL32.dll
 0002:00000018       __imp_??0_Lockit@std@@QAE@XZ 1002b018     msvcprt:MSVCP60.dll
 0002:0000001c       __imp_??1_Lockit@std@@QAE@XZ 1002b01c     msvcprt:MSVCP60.dll
 0002:00000020       \177MSVCP60_NULL_THUNK_DATA 1002b020     msvcprt:MSVCP60.dll
 0002:00000024       __imp__atoi                1002b024     MSVCRT:MSVCRT.dll
 0002:00000028       __imp__strchr              1002b028     MSVCRT:MSVCRT.dll
 0002:0000002c       __imp__strncpy             1002b02c     MSVCRT:MSVCRT.dll
 0002:00000030       __imp__strlen              1002b030     MSVCRT:MSVCRT.dll
 0002:00000034       __imp__memcpy              1002b034     MSVCRT:MSVCRT.dll
 0002:00000038       __imp__strcmp              1002b038     MSVCRT:MSVCRT.dll
 0002:0000003c       __imp__getenv              1002b03c     MSVCRT:MSVCRT.dll
 0002:00000040       __imp___except_handler3    1002b040     MSVCRT:MSVCRT.dll
 0002:00000044       __imp_?terminate@@YAXXZ    1002b044     MSVCRT:MSVCRT.dll
 0002:00000048       __imp____dllonexit         1002b048     MSVCRT:MSVCRT.dll
 0002:0000004c       __imp___onexit             1002b04c     MSVCRT:MSVCRT.dll
 0002:00000050       __imp___initterm           1002b050     MSVCRT:MSVCRT.dll
 0002:00000054       __imp__malloc              1002b054     MSVCRT:MSVCRT.dll
 0002:00000058       __imp___adjust_fdiv        1002b058     MSVCRT:MSVCRT.dll
 0002:0000005c       __imp___ftol               1002b05c     MSVCRT:MSVCRT.dll
 0002:00000060       __imp__sprintf             1002b060     MSVCRT:MSVCRT.dll
 0002:00000064       __imp_??2@YAPAXI@Z         1002b064     MSVCRT:MSVCRT.dll
 0002:00000068       __imp___purecall           1002b068     MSVCRT:MSVCRT.dll
 0002:0000006c       __imp____CxxFrameHandler   1002b06c     MSVCRT:MSVCRT.dll
 0002:00000070       __imp__free                1002b070     MSVCRT:MSVCRT.dll
 0002:00000074       __imp__stricmp             1002b074     MSVCRT:MSVCRT.dll
 0002:00000074       __imp___stricmp            1002b074     MSVCRT:MSVCRT.dll
 0002:00000078       \177MSVCRT_NULL_THUNK_DATA 1002b078     MSVCRT:MSVCRT.dll
 0002:0000007c       __imp__ShellExecuteA@24    1002b07c     shell32:SHELL32.dll
 0002:00000080       \177SHELL32_NULL_THUNK_DATA 1002b080     shell32:SHELL32.dll
 0002:00000084       __imp__DestroyWindow@4     1002b084     user32:USER32.dll
 0002:00000088       __imp__SetTimer@16         1002b088     user32:USER32.dll
 0002:0000008c       __imp__RegisterClassA@4    1002b08c     user32:USER32.dll
 0002:00000090       __imp__CreateWindowExA@48  1002b090     user32:USER32.dll
 0002:00000094       __imp__MessageBoxA@16      1002b094     user32:USER32.dll
 0002:00000098       __imp__GetWindowLongA@8    1002b098     user32:USER32.dll
 0002:0000009c       __imp__DefWindowProcA@16   1002b09c     user32:USER32.dll
 0002:000000a0       __imp__KillTimer@8         1002b0a0     user32:USER32.dll
 0002:000000a4       __imp__SetWindowLongA@12   1002b0a4     user32:USER32.dll
 0002:000000a8       \177USER32_NULL_THUNK_DATA 1002b0a8     user32:USER32.dll
 0002:000000ac       __imp_??_7complexType@@6B@ 1002b0ac     bncs_cachedData:bncs_cachedData.dll
 0002:000000b0       __imp_??_7deviceTypeInfo@@6B@ 1002b0b0     bncs_cachedData:bncs_cachedData.dll
 0002:000000b4       __imp_??_7instanceInfo@@6B@ 1002b0b4     bncs_cachedData:bncs_cachedData.dll
 0002:000000b8       __imp_??_7complexInstance@@6B@ 1002b0b8     bncs_cachedData:bncs_cachedData.dll
 0002:000000bc       __imp_?lookupComposite@bncs_instance_lookup@@SA_NABVQString@@AA_NAAV?$QMap@VQString@@V1@@@@Z 1002b0bc     bncs_cachedData:bncs_cachedData.dll
 0002:000000c0       __imp_??_7paramInfo@@6B@   1002b0c0     bncs_cachedData:bncs_cachedData.dll
 0002:000000c4       __imp_??4deviceTypeInfo@@QAEAAV0@ABV0@@Z 1002b0c4     bncs_cachedData:bncs_cachedData.dll
 0002:000000c8       __imp_??4instanceInfo@@QAEAAV0@ABV0@@Z 1002b0c8     bncs_cachedData:bncs_cachedData.dll
 0002:000000cc       __imp_??4complexParam@@QAEAAV0@ABV0@@Z 1002b0cc     bncs_cachedData:bncs_cachedData.dll
 0002:000000d0       __imp_??0complexType@@QAE@XZ 1002b0d0     bncs_cachedData:bncs_cachedData.dll
 0002:000000d4       __imp_??1complexType@@UAE@XZ 1002b0d4     bncs_cachedData:bncs_cachedData.dll
 0002:000000d8       __imp_??0deviceTypeInfo@@QAE@XZ 1002b0d8     bncs_cachedData:bncs_cachedData.dll
 0002:000000dc       __imp_??1deviceTypeInfo@@UAE@XZ 1002b0dc     bncs_cachedData:bncs_cachedData.dll
 0002:000000e0       __imp_??0instanceInfo@@QAE@XZ 1002b0e0     bncs_cachedData:bncs_cachedData.dll
 0002:000000e4       __imp_??1instanceInfo@@UAE@XZ 1002b0e4     bncs_cachedData:bncs_cachedData.dll
 0002:000000e8       __imp_??0complexInstance@@QAE@XZ 1002b0e8     bncs_cachedData:bncs_cachedData.dll
 0002:000000ec       __imp_??1complexInstance@@UAE@XZ 1002b0ec     bncs_cachedData:bncs_cachedData.dll
 0002:000000f0       __imp_??0complexParam@@QAE@XZ 1002b0f0     bncs_cachedData:bncs_cachedData.dll
 0002:000000f4       __imp_??1complexParam@@UAE@XZ 1002b0f4     bncs_cachedData:bncs_cachedData.dll
 0002:000000f8       __imp_??0paramInfo@@QAE@XZ 1002b0f8     bncs_cachedData:bncs_cachedData.dll
 0002:000000fc       __imp_??1paramInfo@@UAE@XZ 1002b0fc     bncs_cachedData:bncs_cachedData.dll
 0002:00000100       __imp_??_7complexParam@@6B@ 1002b100     bncs_cachedData:bncs_cachedData.dll
 0002:00000104       \177bncs_cachedData_NULL_THUNK_DATA 1002b104     bncs_cachedData:bncs_cachedData.dll
 0002:00000108       __imp_?focusNextPrevChild@QWidget@@MAE_N_N@Z 1002b108     qt-mt323:qt-mt323.dll
 0002:0000010c       __imp_?setWFlags@QWidget@@MAEXI@Z 1002b10c     qt-mt323:qt-mt323.dll
 0002:00000110       __imp_?setWState@QWidget@@MAEXI@Z 1002b110     qt-mt323:qt-mt323.dll
 0002:00000114       __imp_?destroy@QWidget@@MAEX_N0@Z 1002b114     qt-mt323:qt-mt323.dll
 0002:00000118       __imp_?create@QWidget@@MAEXPAUHWND__@@_N1@Z 1002b118     qt-mt323:qt-mt323.dll
 0002:0000011c       __imp_?windowActivationChange@QWidget@@MAEX_N@Z 1002b11c     qt-mt323:qt-mt323.dll
 0002:00000120       __imp_?fontChange@QWidget@@MAEXABVQFont@@@Z 1002b120     qt-mt323:qt-mt323.dll
 0002:00000124       __imp_?paletteChange@QWidget@@MAEXABVQPalette@@@Z 1002b124     qt-mt323:qt-mt323.dll
 0002:00000128       __imp_?enabledChange@QWidget@@MAEX_N@Z 1002b128     qt-mt323:qt-mt323.dll
 0002:0000012c       __imp_?styleChange@QWidget@@MAEXAAVQStyle@@@Z 1002b12c     qt-mt323:qt-mt323.dll
 0002:00000130       __imp_?updateMask@QWidget@@MAEXXZ 1002b130     qt-mt323:qt-mt323.dll
 0002:00000134       __imp_?winEvent@QWidget@@MAE_NPAUtagMSG@@@Z 1002b134     qt-mt323:qt-mt323.dll
 0002:00000138       __imp_?hideEvent@QWidget@@MAEXPAVQHideEvent@@@Z 1002b138     qt-mt323:qt-mt323.dll
 0002:0000013c       __imp_?showEvent@QWidget@@MAEXPAVQShowEvent@@@Z 1002b13c     qt-mt323:qt-mt323.dll
 0002:00000140       __imp_?dropEvent@QWidget@@MAEXPAVQDropEvent@@@Z 1002b140     qt-mt323:qt-mt323.dll
 0002:00000144       __imp_?dragLeaveEvent@QWidget@@MAEXPAVQDragLeaveEvent@@@Z 1002b144     qt-mt323:qt-mt323.dll
 0002:00000148       __imp_?dragMoveEvent@QWidget@@MAEXPAVQDragMoveEvent@@@Z 1002b148     qt-mt323:qt-mt323.dll
 0002:0000014c       __imp_?dragEnterEvent@QWidget@@MAEXPAVQDragEnterEvent@@@Z 1002b14c     qt-mt323:qt-mt323.dll
 0002:00000150       __imp_?tabletEvent@QWidget@@MAEXPAVQTabletEvent@@@Z 1002b150     qt-mt323:qt-mt323.dll
 0002:00000154       __imp_?imEndEvent@QWidget@@MAEXPAVQIMEvent@@@Z 1002b154     qt-mt323:qt-mt323.dll
 0002:00000158       __imp_?imComposeEvent@QWidget@@MAEXPAVQIMEvent@@@Z 1002b158     qt-mt323:qt-mt323.dll
 0002:0000015c       __imp_?imStartEvent@QWidget@@MAEXPAVQIMEvent@@@Z 1002b15c     qt-mt323:qt-mt323.dll
 0002:00000160       __imp_?closeEvent@QWidget@@MAEXPAVQCloseEvent@@@Z 1002b160     qt-mt323:qt-mt323.dll
 0002:00000164       __imp_?resizeEvent@QWidget@@MAEXPAVQResizeEvent@@@Z 1002b164     qt-mt323:qt-mt323.dll
 0002:00000168       __imp_?moveEvent@QWidget@@MAEXPAVQMoveEvent@@@Z 1002b168     qt-mt323:qt-mt323.dll
 0002:0000016c       __imp_?leaveEvent@QWidget@@MAEXPAVQEvent@@@Z 1002b16c     qt-mt323:qt-mt323.dll
 0002:00000170       __imp_?enterEvent@QWidget@@MAEXPAVQEvent@@@Z 1002b170     qt-mt323:qt-mt323.dll
 0002:00000174       __imp_?focusOutEvent@QWidget@@MAEXPAVQFocusEvent@@@Z 1002b174     qt-mt323:qt-mt323.dll
 0002:00000178       __imp_?focusInEvent@QWidget@@MAEXPAVQFocusEvent@@@Z 1002b178     qt-mt323:qt-mt323.dll
 0002:0000017c       __imp_?keyReleaseEvent@QWidget@@MAEXPAVQKeyEvent@@@Z 1002b17c     qt-mt323:qt-mt323.dll
 0002:00000180       __imp_?keyPressEvent@QWidget@@MAEXPAVQKeyEvent@@@Z 1002b180     qt-mt323:qt-mt323.dll
 0002:00000184       __imp_?wheelEvent@QWidget@@MAEXPAVQWheelEvent@@@Z 1002b184     qt-mt323:qt-mt323.dll
 0002:00000188       __imp_?mouseMoveEvent@QWidget@@MAEXPAVQMouseEvent@@@Z 1002b188     qt-mt323:qt-mt323.dll
 0002:0000018c       __imp_?mouseDoubleClickEvent@QWidget@@MAEXPAVQMouseEvent@@@Z 1002b18c     qt-mt323:qt-mt323.dll
 0002:00000190       __imp_?customWhatsThis@QWidget@@UBE_NXZ 1002b190     qt-mt323:qt-mt323.dll
 0002:00000194       __imp_?setBackgroundOrigin@QWidget@@UAEXW4BackgroundOrigin@1@@Z 1002b194     qt-mt323:qt-mt323.dll
 0002:00000198       __imp_?setAutoMask@QWidget@@UAEX_N@Z 1002b198     qt-mt323:qt-mt323.dll
 0002:0000019c       __imp_?setAcceptDrops@QWidget@@UAEX_N@Z 1002b19c     qt-mt323:qt-mt323.dll
 0002:000001a0       __imp_?reparent@QWidget@@UAEXPAV1@IABVQPoint@@_N@Z 1002b1a0     qt-mt323:qt-mt323.dll
 0002:000001a4       __imp_?adjustSize@QWidget@@UAEXXZ 1002b1a4     qt-mt323:qt-mt323.dll
 0002:000001a8       __imp_?heightForWidth@QWidget@@UBEHH@Z 1002b1a8     qt-mt323:qt-mt323.dll
 0002:000001ac       __imp_?setSizePolicy@QWidget@@UAEXVQSizePolicy@@@Z 1002b1ac     qt-mt323:qt-mt323.dll
 0002:000001b0       __imp_?sizePolicy@QWidget@@UBE?AVQSizePolicy@@XZ 1002b1b0     qt-mt323:qt-mt323.dll
 0002:000001b4       __imp_?minimumSizeHint@QWidget@@UBE?AVQSize@@XZ 1002b1b4     qt-mt323:qt-mt323.dll
 0002:000001b8       __imp_?sizeHint@QWidget@@UBE?AVQSize@@XZ 1002b1b8     qt-mt323:qt-mt323.dll
 0002:000001bc       __imp_?setGeometry@QWidget@@UAEXHHHH@Z 1002b1bc     qt-mt323:qt-mt323.dll
 0002:000001c0       __imp_?setGeometry@QWidget@@UAEXABVQRect@@@Z 1002b1c0     qt-mt323:qt-mt323.dll
 0002:000001c4       __imp_?resize@QWidget@@UAEXHH@Z 1002b1c4     qt-mt323:qt-mt323.dll
 0002:000001c8       __imp_?move@QWidget@@UAEXHH@Z 1002b1c8     qt-mt323:qt-mt323.dll
 0002:000001cc       __imp_?close@QWidget@@UAE_N_N@Z 1002b1cc     qt-mt323:qt-mt323.dll
 0002:000001d0       __imp_?polish@QWidget@@UAEXXZ 1002b1d0     qt-mt323:qt-mt323.dll
 0002:000001d4       __imp_?showNormal@QWidget@@UAEXXZ 1002b1d4     qt-mt323:qt-mt323.dll
 0002:000001d8       __imp_?showMaximized@QWidget@@UAEXXZ 1002b1d8     qt-mt323:qt-mt323.dll
 0002:000001dc       __imp_?showMinimized@QWidget@@UAEXXZ 1002b1dc     qt-mt323:qt-mt323.dll
 0002:000001e0       __imp_?hide@QWidget@@UAEXXZ 1002b1e0     qt-mt323:qt-mt323.dll
 0002:000001e4       __imp_?show@QWidget@@UAEXXZ 1002b1e4     qt-mt323:qt-mt323.dll
 0002:000001e8       __imp_?setUpdatesEnabled@QWidget@@UAEX_N@Z 1002b1e8     qt-mt323:qt-mt323.dll
 0002:000001ec       __imp_?setFocusProxy@QWidget@@UAEXPAV1@@Z 1002b1ec     qt-mt323:qt-mt323.dll
 0002:000001f0       __imp_?setFocusPolicy@QWidget@@UAEXW4FocusPolicy@1@@Z 1002b1f0     qt-mt323:qt-mt323.dll
 0002:000001f4       __imp_?setActiveWindow@QWidget@@UAEXXZ 1002b1f4     qt-mt323:qt-mt323.dll
 0002:000001f8       __imp_?setFocus@QWidget@@UAEXXZ 1002b1f8     qt-mt323:qt-mt323.dll
 0002:000001fc       __imp_?setMouseTracking@QWidget@@UAEX_N@Z 1002b1fc     qt-mt323:qt-mt323.dll
 0002:00000200       __imp_?setIconText@QWidget@@UAEXABVQString@@@Z 1002b200     qt-mt323:qt-mt323.dll
 0002:00000204       __imp_?setIcon@QWidget@@UAEXABVQPixmap@@@Z 1002b204     qt-mt323:qt-mt323.dll
 0002:00000208       __imp_?setBackgroundPixmap@QWidget@@UAEXABVQPixmap@@@Z 1002b208     qt-mt323:qt-mt323.dll
 0002:0000020c       __imp_?setBackgroundColor@QWidget@@UAEXABVQColor@@@Z 1002b20c     qt-mt323:qt-mt323.dll
 0002:00000210       __imp_?setMask@QWidget@@UAEXABVQBitmap@@@Z 1002b210     qt-mt323:qt-mt323.dll
 0002:00000214       __imp_?setMask@QWidget@@UAEXABVQRegion@@@Z 1002b214     qt-mt323:qt-mt323.dll
 0002:00000218       __imp_?unsetCursor@QWidget@@UAEXXZ 1002b218     qt-mt323:qt-mt323.dll
 0002:0000021c       __imp_?setCursor@QWidget@@UAEXABVQCursor@@@Z 1002b21c     qt-mt323:qt-mt323.dll
 0002:00000220       __imp_?setFont@QWidget@@UAEXABVQFont@@@Z 1002b220     qt-mt323:qt-mt323.dll
 0002:00000224       __imp_?setPaletteBackgroundPixmap@QWidget@@UAEXABVQPixmap@@@Z 1002b224     qt-mt323:qt-mt323.dll
 0002:00000228       __imp_?setPaletteBackgroundColor@QWidget@@UAEXABVQColor@@@Z 1002b228     qt-mt323:qt-mt323.dll
 0002:0000022c       __imp_?setPalette@QWidget@@UAEXABVQPalette@@@Z 1002b22c     qt-mt323:qt-mt323.dll
 0002:00000230       __imp_?setErasePixmap@QWidget@@UAEXABVQPixmap@@@Z 1002b230     qt-mt323:qt-mt323.dll
 0002:00000234       __imp_?setEraseColor@QWidget@@UAEXABVQColor@@@Z 1002b234     qt-mt323:qt-mt323.dll
 0002:00000238       __imp_?setBackgroundMode@QWidget@@UAEXW4BackgroundMode@Qt@@@Z 1002b238     qt-mt323:qt-mt323.dll
 0002:0000023c       __imp_?setSizeIncrement@QWidget@@UAEXHH@Z 1002b23c     qt-mt323:qt-mt323.dll
 0002:00000240       __imp_?setMaximumSize@QWidget@@UAEXHH@Z 1002b240     qt-mt323:qt-mt323.dll
 0002:00000244       __imp_?setMinimumSize@QWidget@@UAEXHH@Z 1002b244     qt-mt323:qt-mt323.dll
 0002:00000248       __imp_?setEnabled@QWidget@@UAEX_N@Z 1002b248     qt-mt323:qt-mt323.dll
 0002:0000024c       __imp_?checkConnectArgs@QObject@@MAE_NPBDPBV1@0@Z 1002b24c     qt-mt323:qt-mt323.dll
 0002:00000250       __imp_?disconnectNotify@QObject@@MAEXPBD@Z 1002b250     qt-mt323:qt-mt323.dll
 0002:00000254       __imp_?connectNotify@QObject@@MAEXPBD@Z 1002b254     qt-mt323:qt-mt323.dll
 0002:00000258       __imp_?customEvent@QObject@@MAEXPAVQCustomEvent@@@Z 1002b258     qt-mt323:qt-mt323.dll
 0002:0000025c       __imp_?childEvent@QObject@@MAEXPAVQChildEvent@@@Z 1002b25c     qt-mt323:qt-mt323.dll
 0002:00000260       __imp_?timerEvent@QObject@@MAEXPAVQTimerEvent@@@Z 1002b260     qt-mt323:qt-mt323.dll
 0002:00000264       __imp_?property@QObject@@UBE?AVQVariant@@PBD@Z 1002b264     qt-mt323:qt-mt323.dll
 0002:00000268       __imp_?setProperty@QObject@@UAE_NPBDABVQVariant@@@Z 1002b268     qt-mt323:qt-mt323.dll
 0002:0000026c       __imp_?removeChild@QObject@@UAEXPAV1@@Z 1002b26c     qt-mt323:qt-mt323.dll
 0002:00000270       __imp_?insertChild@QObject@@UAEXPAV1@@Z 1002b270     qt-mt323:qt-mt323.dll
 0002:00000274       __imp_?setName@QWidget@@UAEXPBD@Z 1002b274     qt-mt323:qt-mt323.dll
 0002:00000278       __imp_?eventFilter@QObject@@UAE_NPAV1@PAVQEvent@@@Z 1002b278     qt-mt323:qt-mt323.dll
 0002:0000027c       __imp_?event@QWidget@@MAE_NPAVQEvent@@@Z 1002b27c     qt-mt323:qt-mt323.dll
 0002:00000280       __imp_??1QWidget@@UAE@XZ   1002b280     qt-mt323:qt-mt323.dll
 0002:00000284       __imp_??1QPalette@@QAE@XZ  1002b284     qt-mt323:qt-mt323.dll
 0002:00000288       __imp_??1QPaintDevice@@UAE@XZ 1002b288     qt-mt323:qt-mt323.dll
 0002:0000028c       __imp_??1QObject@@UAE@XZ   1002b28c     qt-mt323:qt-mt323.dll
 0002:00000290       __imp_??_7QWidget@@6BQPaintDevice@@@ 1002b290     qt-mt323:qt-mt323.dll
 0002:00000294       __imp_??_7QWidget@@6BQObject@@@ 1002b294     qt-mt323:qt-mt323.dll
 0002:00000298       __imp_??0QFont@@QAE@ABV0@@Z 1002b298     qt-mt323:qt-mt323.dll
 0002:0000029c       __imp_??0QPalette@@QAE@ABV0@@Z 1002b29c     qt-mt323:qt-mt323.dll
 0002:000002a0       __imp_??0QColor@@QAE@ABV0@@Z 1002b2a0     qt-mt323:qt-mt323.dll
 0002:000002a4       __imp_??_7QPaintDevice@@6B@ 1002b2a4     qt-mt323:qt-mt323.dll
 0002:000002a8       __imp_??0QObject@@QAE@ABV0@@Z 1002b2a8     qt-mt323:qt-mt323.dll
 0002:000002ac       __imp_??4QFont@@QAEAAV0@ABV0@@Z 1002b2ac     qt-mt323:qt-mt323.dll
 0002:000002b0       __imp_??4QPalette@@QAEAAV0@ABV0@@Z 1002b2b0     qt-mt323:qt-mt323.dll
 0002:000002b4       __imp_??4QColor@@QAEAAV0@ABV0@@Z 1002b2b4     qt-mt323:qt-mt323.dll
 0002:000002b8       __imp_??4QObject@@QAEAAV0@ABV0@@Z 1002b2b8     qt-mt323:qt-mt323.dll
 0002:000002bc       __imp_??0QWidget@@QAE@PAV0@PBDI@Z 1002b2bc     qt-mt323:qt-mt323.dll
 0002:000002c0       __imp_??1?$QPtrList@VQWidget@@@@UAE@XZ 1002b2c0     qt-mt323:qt-mt323.dll
 0002:000002c4       __imp_?contextMenuEvent@QWidget@@MAEXPAVQContextMenuEvent@@@Z 1002b2c4     qt-mt323:qt-mt323.dll
 0002:000002c8       __imp_??1QPopupMenu@@UAE@XZ 1002b2c8     qt-mt323:qt-mt323.dll
 0002:000002cc       __imp_?replace@QString@@QAEAAV1@ABV1@0@Z 1002b2cc     qt-mt323:qt-mt323.dll
 0002:000002d0       __imp_??YQString@@QAEAAV0@PBD@Z 1002b2d0     qt-mt323:qt-mt323.dll
 0002:000002d4       __imp_?ascii@QString@@QBEPBDXZ 1002b2d4     qt-mt323:qt-mt323.dll
 0002:000002d8       __imp_??H@YA?BVQString@@PBDABV0@@Z 1002b2d8     qt-mt323:qt-mt323.dll
 0002:000002dc       __imp_?connect@QObject@@SA_NPBV1@PBD01@Z 1002b2dc     qt-mt323:qt-mt323.dll
 0002:000002e0       __imp_?exec@QPopupMenu@@QAEHABVQPoint@@H@Z 1002b2e0     qt-mt323:qt-mt323.dll
 0002:000002e4       __imp_?pos@QCursor@@SA?AVQPoint@@XZ 1002b2e4     qt-mt323:qt-mt323.dll
 0002:000002e8       __imp_??1QFileInfo@@QAE@XZ 1002b2e8     qt-mt323:qt-mt323.dll
 0002:000002ec       __imp_?exists@QFile@@SA_NABVQString@@@Z 1002b2ec     qt-mt323:qt-mt323.dll
 0002:000002f0       __imp_?baseName@QFileInfo@@QBE?AVQString@@_N@Z 1002b2f0     qt-mt323:qt-mt323.dll
 0002:000002f4       __imp_?dirPath@QFileInfo@@QBE?AVQString@@_N@Z 1002b2f4     qt-mt323:qt-mt323.dll
 0002:000002f8       __imp_??0QFileInfo@@QAE@ABVQString@@@Z 1002b2f8     qt-mt323:qt-mt323.dll
 0002:000002fc       __imp_?arg@QString@@QBE?AV1@ABV1@H@Z 1002b2fc     qt-mt323:qt-mt323.dll
 0002:00000300       __imp_?insertItem@QMenuData@@QAEHABVQString@@HH@Z 1002b300     qt-mt323:qt-mt323.dll
 0002:00000304       __imp_??0QString@@QAE@PBD@Z 1002b304     qt-mt323:qt-mt323.dll
 0002:00000308       __imp_??0QPopupMenu@@QAE@PAVQWidget@@PBD@Z 1002b308     qt-mt323:qt-mt323.dll
 0002:0000030c       __imp_?qDebug@@YAXPBDZZ    1002b30c     qt-mt323:qt-mt323.dll
 0002:00000310       __imp_??1QPainter@@QAE@XZ  1002b310     qt-mt323:qt-mt323.dll
 0002:00000314       __imp_??1QColorGroup@@QAE@XZ 1002b314     qt-mt323:qt-mt323.dll
 0002:00000318       __imp_?style@QWidget@@QBEAAVQStyle@@XZ 1002b318     qt-mt323:qt-mt323.dll
 0002:0000031c       __imp_??0QColorGroup@@QAE@ABV0@@Z 1002b31c     qt-mt323:qt-mt323.dll
 0002:00000320       __imp_?colorGroup@QWidget@@QBEABVQColorGroup@@XZ 1002b320     qt-mt323:qt-mt323.dll
 0002:00000324       __imp_??0QPainter@@QAE@PBVQPaintDevice@@_N@Z 1002b324     qt-mt323:qt-mt323.dll
 0002:00000328       __imp_??1?$QMap@VQString@@V1@@@QAE@XZ 1002b328     qt-mt323:qt-mt323.dll
 0002:0000032c       __imp_?insert@?$QMap@VQString@@V1@@@QAE?AV?$QMapIterator@VQString@@V1@@@ABVQString@@0_N@Z 1002b32c     qt-mt323:qt-mt323.dll
 0002:00000330       __imp_?detachInternal@?$QMap@VQString@@V1@@@AAEXXZ 1002b330     qt-mt323:qt-mt323.dll
 0002:00000334       __imp_?name@QObject@@QBEPBDXZ 1002b334     qt-mt323:qt-mt323.dll
 0002:00000338       __imp_?latin1@QString@@QBEPBDXZ 1002b338     qt-mt323:qt-mt323.dll
 0002:0000033c       __imp_?next@QGList@@IAEPAXXZ 1002b33c     qt-mt323:qt-mt323.dll
 0002:00000340       __imp_?first@QGList@@IAEPAXXZ 1002b340     qt-mt323:qt-mt323.dll
 0002:00000344       __imp_??4QString@@QAEAAV0@PBD@Z 1002b344     qt-mt323:qt-mt323.dll
 0002:00000348       __imp_??8@YA_NABVQString@@PBD@Z 1002b348     qt-mt323:qt-mt323.dll
 0002:0000034c       __imp_?append@QGList@@IAEXPAX@Z 1002b34c     qt-mt323:qt-mt323.dll
 0002:00000350       __imp_?sender@QObject@@IAEPBV1@XZ 1002b350     qt-mt323:qt-mt323.dll
 0002:00000354       __imp_??BQCharRef@@QBE?AVQChar@@XZ 1002b354     qt-mt323:qt-mt323.dll
 0002:00000358       __imp_??AQString@@QAE?AVQCharRef@@H@Z 1002b358     qt-mt323:qt-mt323.dll
 0002:0000035c       __imp_?contains@QString@@QBEHVQChar@@_N@Z 1002b35c     qt-mt323:qt-mt323.dll
 0002:00000360       __imp_??0QChar@@QAE@D@Z    1002b360     qt-mt323:qt-mt323.dll
 0002:00000364       __imp_?arg@QString@@QBE?AV1@HHH@Z 1002b364     qt-mt323:qt-mt323.dll
 0002:00000368       __imp_??1QRegExp@@QAE@XZ   1002b368     qt-mt323:qt-mt323.dll
 0002:0000036c       __imp_?exactMatch@QRegExp@@QBE_NABVQString@@@Z 1002b36c     qt-mt323:qt-mt323.dll
 0002:00000370       __imp_??0QRegExp@@QAE@ABVQString@@_N1@Z 1002b370     qt-mt323:qt-mt323.dll
 0002:00000374       __imp_??AQString@@QBE?AVQChar@@H@Z 1002b374     qt-mt323:qt-mt323.dll
 0002:00000378       __imp_??H@YA?BVQString@@ABV0@0@Z 1002b378     qt-mt323:qt-mt323.dll
 0002:0000037c       __imp_??H@YA?BVQString@@ABV0@PBD@Z 1002b37c     qt-mt323:qt-mt323.dll
 0002:00000380       __imp_??M@YA_NABVQString@@0@Z 1002b380     qt-mt323:qt-mt323.dll
 0002:00000384       __imp_??1?$QValueList@VQString@@@@QAE@XZ 1002b384     qt-mt323:qt-mt323.dll
 0002:00000388       __imp_?end@?$QValueList@VQString@@@@QAE?AV?$QValueListIterator@VQString@@@@XZ 1002b388     qt-mt323:qt-mt323.dll
 0002:0000038c       __imp_??4?$QMap@VQString@@V1@@@QAEAAV0@ABV0@@Z 1002b38c     qt-mt323:qt-mt323.dll
 0002:00000390       __imp_?removeAndRebalance@QMapPrivateBase@@QAEPAUQMapNodeBase@@PAU2@AAPAU2@11@Z 1002b390     qt-mt323:qt-mt323.dll
 0002:00000394       __imp_??0QString@@QAE@XZ   1002b394     qt-mt323:qt-mt323.dll
 0002:00000398       __imp_??0?$QValueListIterator@VQString@@@@QAE@ABV0@@Z 1002b398     qt-mt323:qt-mt323.dll
 0002:0000039c       __imp_?rebalance@QMapPrivateBase@@QAEXPAUQMapNodeBase@@AAPAU2@@Z 1002b39c     qt-mt323:qt-mt323.dll
 0002:000003a0       __imp_?deref@QShared@@QAE_NXZ 1002b3a0     qt-mt323:qt-mt323.dll
 0002:000003a4       __imp_?reject@QDialog@@MAEXXZ 1002b3a4     qt-mt323:qt-mt323.dll
 0002:000003a8       __imp_?accept@QDialog@@MAEXXZ 1002b3a8     qt-mt323:qt-mt323.dll
 0002:000003ac       __imp_?done@QDialog@@MAEXH@Z 1002b3ac     qt-mt323:qt-mt323.dll
 0002:000003b0       __imp_?contextMenuEvent@QDialog@@MAEXPAVQContextMenuEvent@@@Z 1002b3b0     qt-mt323:qt-mt323.dll
 0002:000003b4       __imp_?closeEvent@QDialog@@MAEXPAVQCloseEvent@@@Z 1002b3b4     qt-mt323:qt-mt323.dll
 0002:000003b8       __imp_?resizeEvent@QDialog@@MAEXPAVQResizeEvent@@@Z 1002b3b8     qt-mt323:qt-mt323.dll
 0002:000003bc       __imp_?paintEvent@QWidget@@MAEXPAVQPaintEvent@@@Z 1002b3bc     qt-mt323:qt-mt323.dll
 0002:000003c0       __imp_?keyPressEvent@QDialog@@MAEXPAVQKeyEvent@@@Z 1002b3c0     qt-mt323:qt-mt323.dll
 0002:000003c4       __imp_?mouseReleaseEvent@QWidget@@MAEXPAVQMouseEvent@@@Z 1002b3c4     qt-mt323:qt-mt323.dll
 0002:000003c8       __imp_?mousePressEvent@QWidget@@MAEXPAVQMouseEvent@@@Z 1002b3c8     qt-mt323:qt-mt323.dll
 0002:000003cc       __imp_?minimumSizeHint@QDialog@@UBE?AVQSize@@XZ 1002b3cc     qt-mt323:qt-mt323.dll
 0002:000003d0       __imp_?sizeHint@QDialog@@UBE?AVQSize@@XZ 1002b3d0     qt-mt323:qt-mt323.dll
 0002:000003d4       __imp_?setGeometry@QDialog@@UAEXHHHH@Z 1002b3d4     qt-mt323:qt-mt323.dll
 0002:000003d8       __imp_?setGeometry@QDialog@@UAEXABVQRect@@@Z 1002b3d8     qt-mt323:qt-mt323.dll
 0002:000003dc       __imp_?resize@QDialog@@UAEXHH@Z 1002b3dc     qt-mt323:qt-mt323.dll
 0002:000003e0       __imp_?move@QDialog@@UAEXHH@Z 1002b3e0     qt-mt323:qt-mt323.dll
 0002:000003e4       __imp_?hide@QDialog@@UAEXXZ 1002b3e4     qt-mt323:qt-mt323.dll
 0002:000003e8       __imp_?show@QDialog@@UAEXXZ 1002b3e8     qt-mt323:qt-mt323.dll
 0002:000003ec       __imp_?setCaption@QWidget@@UAEXABVQString@@@Z 1002b3ec     qt-mt323:qt-mt323.dll
 0002:000003f0       __imp_?eventFilter@QDialog@@MAE_NPAVQObject@@PAVQEvent@@@Z 1002b3f0     qt-mt323:qt-mt323.dll
 0002:000003f4       __imp_?clear@QGCache@@MAEXXZ 1002b3f4     qt-mt323:qt-mt323.dll
 0002:000003f8       __imp_??1QStringList@@QAE@XZ 1002b3f8     qt-mt323:qt-mt323.dll
 0002:000003fc       __imp_?moveBy@QRect@@QAEXHH@Z 1002b3fc     qt-mt323:qt-mt323.dll
 0002:00000400       __imp_?contains@QRect@@QBE_NABV1@_N@Z 1002b400     qt-mt323:qt-mt323.dll
 0002:00000404       __imp_?setAttribute@QDomElement@@QAEXABVQString@@0@Z 1002b404     qt-mt323:qt-mt323.dll
 0002:00000408       __imp_?startsWith@QString@@QBE_NABV1@@Z 1002b408     qt-mt323:qt-mt323.dll
 0002:0000040c       __imp_?arg@QString@@QBE?AV1@NHDH@Z 1002b40c     qt-mt323:qt-mt323.dll
 0002:00000410       __imp_?unite@QRect@@QBE?AV1@ABV1@@Z 1002b410     qt-mt323:qt-mt323.dll
 0002:00000414       __imp_?mapFromGlobal@QWidget@@QBE?AVQPoint@@ABV2@@Z 1002b414     qt-mt323:qt-mt323.dll
 0002:00000418       __imp_?remove@QString@@QAEAAV1@II@Z 1002b418     qt-mt323:qt-mt323.dll
 0002:0000041c       __imp_?at@QString@@QAE?AVQCharRef@@I@Z 1002b41c     qt-mt323:qt-mt323.dll
 0002:00000420       __imp_??1QPixmap@@UAE@XZ   1002b420     qt-mt323:qt-mt323.dll
 0002:00000424       __imp_??0QPixmap@@QAE@ABVQString@@PBDW4ColorMode@0@@Z 1002b424     qt-mt323:qt-mt323.dll
 0002:00000428       __imp_??0QColor@@QAE@ABVQString@@@Z 1002b428     qt-mt323:qt-mt323.dll
 0002:0000042c       __imp_?detachInternal@?$QValueList@VQString@@@@AAEXXZ 1002b42c     qt-mt323:qt-mt323.dll
 0002:00000430       __imp_?split@QStringList@@SA?AV1@ABVQString@@0_N@Z 1002b430     qt-mt323:qt-mt323.dll
 0002:00000434       __imp_?pos@QWidget@@QBE?AVQPoint@@XZ 1002b434     qt-mt323:qt-mt323.dll
 0002:00000438       __imp_?setStyle@QWidget@@QAEXPAVQStyle@@@Z 1002b438     qt-mt323:qt-mt323.dll
 0002:0000043c       __imp_?toInt@QString@@QBEHPA_NH@Z 1002b43c     qt-mt323:qt-mt323.dll
 0002:00000440       __imp_??4QDomNode@@QAEAAV0@ABV0@@Z 1002b440     qt-mt323:qt-mt323.dll
 0002:00000444       __imp_?nextSibling@QDomNode@@UBE?AV1@XZ 1002b444     qt-mt323:qt-mt323.dll
 0002:00000448       __imp_?null@QString@@2V1@A 1002b448     qt-mt323:qt-mt323.dll
 0002:0000044c       __imp_?toElement@QDomNode@@QAE?AVQDomElement@@XZ 1002b44c     qt-mt323:qt-mt323.dll
 0002:00000450       __imp_?attribute@QDomElement@@QBE?AVQString@@ABV2@0@Z 1002b450     qt-mt323:qt-mt323.dll
 0002:00000454       __imp_??1QDomNode@@UAE@XZ  1002b454     qt-mt323:qt-mt323.dll
 0002:00000458       __imp_?isNull@QDomNode@@QBE_NXZ 1002b458     qt-mt323:qt-mt323.dll
 0002:0000045c       __imp_?firstChild@QDomNode@@UBE?AV1@XZ 1002b45c     qt-mt323:qt-mt323.dll
 0002:00000460       __imp_??1QDomElement@@UAE@XZ 1002b460     qt-mt323:qt-mt323.dll
 0002:00000464       __imp_??9@YA_NABVQString@@PBD@Z 1002b464     qt-mt323:qt-mt323.dll
 0002:00000468       __imp_?tagName@QDomElement@@QBE?AVQString@@XZ 1002b468     qt-mt323:qt-mt323.dll
 0002:0000046c       __imp_?documentElement@QDomDocument@@QBE?AVQDomElement@@XZ 1002b46c     qt-mt323:qt-mt323.dll
 0002:00000470       __imp_?isComment@QDomNode@@UBE_NXZ 1002b470     qt-mt323:qt-mt323.dll
 0002:00000474       __imp_?isCharacterData@QDomNode@@UBE_NXZ 1002b474     qt-mt323:qt-mt323.dll
 0002:00000478       __imp_?isProcessingInstruction@QDomNode@@UBE_NXZ 1002b478     qt-mt323:qt-mt323.dll
 0002:0000047c       __imp_?isNotation@QDomNode@@UBE_NXZ 1002b47c     qt-mt323:qt-mt323.dll
 0002:00000480       __imp_?isEntity@QDomNode@@UBE_NXZ 1002b480     qt-mt323:qt-mt323.dll
 0002:00000484       __imp_?isText@QDomNode@@UBE_NXZ 1002b484     qt-mt323:qt-mt323.dll
 0002:00000488       __imp_?isEntityReference@QDomNode@@UBE_NXZ 1002b488     qt-mt323:qt-mt323.dll
 0002:0000048c       __imp_?isElement@QDomNode@@UBE_NXZ 1002b48c     qt-mt323:qt-mt323.dll
 0002:00000490       __imp_?isDocumentType@QDomNode@@UBE_NXZ 1002b490     qt-mt323:qt-mt323.dll
 0002:00000494       __imp_?isDocument@QDomDocument@@UBE_NXZ 1002b494     qt-mt323:qt-mt323.dll
 0002:00000498       __imp_?isDocumentFragment@QDomNode@@UBE_NXZ 1002b498     qt-mt323:qt-mt323.dll
 0002:0000049c       __imp_?isCDATASection@QDomNode@@UBE_NXZ 1002b49c     qt-mt323:qt-mt323.dll
 0002:000004a0       __imp_?isAttr@QDomNode@@UBE_NXZ 1002b4a0     qt-mt323:qt-mt323.dll
 0002:000004a4       __imp_?setPrefix@QDomNode@@UAEXABVQString@@@Z 1002b4a4     qt-mt323:qt-mt323.dll
 0002:000004a8       __imp_?prefix@QDomNode@@UBE?AVQString@@XZ 1002b4a8     qt-mt323:qt-mt323.dll
 0002:000004ac       __imp_?setNodeValue@QDomNode@@UAEXABVQString@@@Z 1002b4ac     qt-mt323:qt-mt323.dll
 0002:000004b0       __imp_?nodeValue@QDomNode@@UBE?AVQString@@XZ 1002b4b0     qt-mt323:qt-mt323.dll
 0002:000004b4       __imp_?hasAttributes@QDomNode@@UBE_NXZ 1002b4b4     qt-mt323:qt-mt323.dll
 0002:000004b8       __imp_?localName@QDomNode@@UBE?AVQString@@XZ 1002b4b8     qt-mt323:qt-mt323.dll
 0002:000004bc       __imp_?namespaceURI@QDomNode@@UBE?AVQString@@XZ 1002b4bc     qt-mt323:qt-mt323.dll
 0002:000004c0       __imp_?ownerDocument@QDomNode@@UBE?AVQDomDocument@@XZ 1002b4c0     qt-mt323:qt-mt323.dll
 0002:000004c4       __imp_?attributes@QDomNode@@UBE?AVQDomNamedNodeMap@@XZ 1002b4c4     qt-mt323:qt-mt323.dll
 0002:000004c8       __imp_?previousSibling@QDomNode@@UBE?AV1@XZ 1002b4c8     qt-mt323:qt-mt323.dll
 0002:000004cc       __imp_?lastChild@QDomNode@@UBE?AV1@XZ 1002b4cc     qt-mt323:qt-mt323.dll
 0002:000004d0       __imp_?childNodes@QDomNode@@UBE?AVQDomNodeList@@XZ 1002b4d0     qt-mt323:qt-mt323.dll
 0002:000004d4       __imp_?parentNode@QDomNode@@UBE?AV1@XZ 1002b4d4     qt-mt323:qt-mt323.dll
 0002:000004d8       __imp_?nodeType@QDomDocument@@UBE?AW4NodeType@QDomNode@@XZ 1002b4d8     qt-mt323:qt-mt323.dll
 0002:000004dc       __imp_?nodeName@QDomNode@@UBE?AVQString@@XZ 1002b4dc     qt-mt323:qt-mt323.dll
 0002:000004e0       __imp_?isSupported@QDomNode@@UBE_NABVQString@@0@Z 1002b4e0     qt-mt323:qt-mt323.dll
 0002:000004e4       __imp_?normalize@QDomNode@@UAEXXZ 1002b4e4     qt-mt323:qt-mt323.dll
 0002:000004e8       __imp_?cloneNode@QDomNode@@UBE?AV1@_N@Z 1002b4e8     qt-mt323:qt-mt323.dll
 0002:000004ec       __imp_?hasChildNodes@QDomNode@@UBE_NXZ 1002b4ec     qt-mt323:qt-mt323.dll
 0002:000004f0       __imp_?appendChild@QDomNode@@UAE?AV1@ABV1@@Z 1002b4f0     qt-mt323:qt-mt323.dll
 0002:000004f4       __imp_?removeChild@QDomNode@@UAE?AV1@ABV1@@Z 1002b4f4     qt-mt323:qt-mt323.dll
 0002:000004f8       __imp_?replaceChild@QDomNode@@UAE?AV1@ABV1@0@Z 1002b4f8     qt-mt323:qt-mt323.dll
 0002:000004fc       __imp_?insertAfter@QDomNode@@UAE?AV1@ABV1@0@Z 1002b4fc     qt-mt323:qt-mt323.dll
 0002:00000500       __imp_?insertBefore@QDomNode@@UAE?AV1@ABV1@0@Z 1002b500     qt-mt323:qt-mt323.dll
 0002:00000504       __imp_?insert_string@QGCache@@IAE_NABVQString@@PAXHH@Z 1002b504     qt-mt323:qt-mt323.dll
 0002:00000508       __imp_??1QFile@@UAE@XZ     1002b508     qt-mt323:qt-mt323.dll
 0002:0000050c       __imp_?setContent@QDomDocument@@QAE_NPAVQIODevice@@_NPAVQString@@PAH3@Z 1002b50c     qt-mt323:qt-mt323.dll
 0002:00000510       __imp_??0QDomDocument@@QAE@ABVQString@@@Z 1002b510     qt-mt323:qt-mt323.dll
 0002:00000514       __imp_?open@QFile@@UAE_NH@Z 1002b514     qt-mt323:qt-mt323.dll
 0002:00000518       __imp_??0QFile@@QAE@ABVQString@@@Z 1002b518     qt-mt323:qt-mt323.dll
 0002:0000051c       __imp_?absFilePath@QFileInfo@@QBE?AVQString@@XZ 1002b51c     qt-mt323:qt-mt323.dll
 0002:00000520       __imp_??0QPoint@@QAE@HH@Z  1002b520     qt-mt323:qt-mt323.dll
 0002:00000524       __imp_?find_string@QGCache@@IBEPAXABVQString@@_N@Z 1002b524     qt-mt323:qt-mt323.dll
 0002:00000528       __imp_?upper@QString@@QBE?AV1@XZ 1002b528     qt-mt323:qt-mt323.dll
 0002:0000052c       __imp_?extension@QFileInfo@@QBE?AVQString@@_N@Z 1002b52c     qt-mt323:qt-mt323.dll
 0002:00000530       __imp_?lower@QString@@QBE?AV1@XZ 1002b530     qt-mt323:qt-mt323.dll
 0002:00000534       __imp_??1QDomDocument@@UAE@XZ 1002b534     qt-mt323:qt-mt323.dll
 0002:00000538       __imp_?rightJustify@QString@@QBE?AV1@IVQChar@@_N@Z 1002b538     qt-mt323:qt-mt323.dll
 0002:0000053c       __imp_?truncate@QString@@QAEXI@Z 1002b53c     qt-mt323:qt-mt323.dll
 0002:00000540       __imp_?isNumber@QChar@@QBE_NXZ 1002b540     qt-mt323:qt-mt323.dll
 0002:00000544       __imp_?setDirty@QStringData@@QAEXXZ 1002b544     qt-mt323:qt-mt323.dll
 0002:00000548       __imp_?subat@QString@@AAEXI@Z 1002b548     qt-mt323:qt-mt323.dll
 0002:0000054c       __imp_?right@QString@@QBE?AV1@I@Z 1002b54c     qt-mt323:qt-mt323.dll
 0002:00000550       __imp_?child@QObject@@QAEPAV1@PBD0_N@Z 1002b550     qt-mt323:qt-mt323.dll
 0002:00000554       __imp_??0QGCache@@IAE@HIW4KeyType@0@_N1@Z 1002b554     qt-mt323:qt-mt323.dll
 0002:00000558       __imp_??1QGCache@@MAE@XZ   1002b558     qt-mt323:qt-mt323.dll
 0002:0000055c       __imp_?count@QGCache@@MBEIXZ 1002b55c     qt-mt323:qt-mt323.dll
 0002:00000560       __imp_?qWarning@@YAXPBDZZ  1002b560     qt-mt323:qt-mt323.dll
 0002:00000564       __imp_?insertHelper@QString@@AAEAAV1@IPBDI@Z 1002b564     qt-mt323:qt-mt323.dll
 0002:00000568       __imp_?matchedLength@QRegExp@@QBEHXZ 1002b568     qt-mt323:qt-mt323.dll
 0002:0000056c       __imp_?search@QRegExp@@QBEHABVQString@@H@Z 1002b56c     qt-mt323:qt-mt323.dll
 0002:00000570       __imp_?mid@QString@@QBE?AV1@II@Z 1002b570     qt-mt323:qt-mt323.dll
 0002:00000574       __imp_?replace@QString@@QAEAAV1@IIABV1@@Z 1002b574     qt-mt323:qt-mt323.dll
 0002:00000578       __imp_?find@QString@@QBEHABV1@H_N@Z 1002b578     qt-mt323:qt-mt323.dll
 0002:0000057c       __imp_?fromAscii@QString@@SA?AV1@PBDH@Z 1002b57c     qt-mt323:qt-mt323.dll
 0002:00000580       __imp_??8@YA_NPBDABVQString@@@Z 1002b580     qt-mt323:qt-mt323.dll
 0002:00000584       __imp_?spacerItem@QSpacerItem@@UAEPAV1@XZ 1002b584     qt-mt323:qt-mt323.dll
 0002:00000588       __imp_?layout@QLayoutItem@@UAEPAVQLayout@@XZ 1002b588     qt-mt323:qt-mt323.dll
 0002:0000058c       __imp_?iterator@QLayoutItem@@UAE?AVQLayoutIterator@@XZ 1002b58c     qt-mt323:qt-mt323.dll
 0002:00000590       __imp_?invalidate@QLayoutItem@@UAEXXZ 1002b590     qt-mt323:qt-mt323.dll
 0002:00000594       __imp_?heightForWidth@QLayoutItem@@UBEHH@Z 1002b594     qt-mt323:qt-mt323.dll
 0002:00000598       __imp_?hasHeightForWidth@QLayoutItem@@UBE_NXZ 1002b598     qt-mt323:qt-mt323.dll
 0002:0000059c       __imp_?isEmpty@QSpacerItem@@UBE_NXZ 1002b59c     qt-mt323:qt-mt323.dll
 0002:000005a0       __imp_?geometry@QSpacerItem@@UBE?AVQRect@@XZ 1002b5a0     qt-mt323:qt-mt323.dll
 0002:000005a4       __imp_?setGeometry@QSpacerItem@@UAEXABVQRect@@@Z 1002b5a4     qt-mt323:qt-mt323.dll
 0002:000005a8       __imp_?expanding@QSpacerItem@@UBE?AW4ExpandData@QSizePolicy@@XZ 1002b5a8     qt-mt323:qt-mt323.dll
 0002:000005ac       __imp_?maximumSize@QSpacerItem@@UBE?AVQSize@@XZ 1002b5ac     qt-mt323:qt-mt323.dll
 0002:000005b0       __imp_?minimumSize@QSpacerItem@@UBE?AVQSize@@XZ 1002b5b0     qt-mt323:qt-mt323.dll
 0002:000005b4       __imp_?sizeHint@QSpacerItem@@UBE?AVQSize@@XZ 1002b5b4     qt-mt323:qt-mt323.dll
 0002:000005b8       __imp_?setOn@QPushButton@@UAEX_N@Z 1002b5b8     qt-mt323:qt-mt323.dll
 0002:000005bc       __imp_?setIsMenuButton@QPushButton@@UAEX_N@Z 1002b5bc     qt-mt323:qt-mt323.dll
 0002:000005c0       __imp_?setDefault@QPushButton@@UAEX_N@Z 1002b5c0     qt-mt323:qt-mt323.dll
 0002:000005c4       __imp_?setAutoDefault@QPushButton@@UAEX_N@Z 1002b5c4     qt-mt323:qt-mt323.dll
 0002:000005c8       __imp_?drawButtonLabel@QPushButton@@MAEXPAVQPainter@@@Z 1002b5c8     qt-mt323:qt-mt323.dll
 0002:000005cc       __imp_?drawButton@QPushButton@@MAEXPAVQPainter@@@Z 1002b5cc     qt-mt323:qt-mt323.dll
 0002:000005d0       __imp_?hitButton@QButton@@MBE_NABVQPoint@@@Z 1002b5d0     qt-mt323:qt-mt323.dll
 0002:000005d4       __imp_?updateMask@QPushButton@@MAEXXZ 1002b5d4     qt-mt323:qt-mt323.dll
 0002:000005d8       __imp_?resizeEvent@QPushButton@@MAEXPAVQResizeEvent@@@Z 1002b5d8     qt-mt323:qt-mt323.dll
 0002:000005dc       __imp_?focusOutEvent@QPushButton@@MAEXPAVQFocusEvent@@@Z 1002b5dc     qt-mt323:qt-mt323.dll
 0002:000005e0       __imp_?focusInEvent@QPushButton@@MAEXPAVQFocusEvent@@@Z 1002b5e0     qt-mt323:qt-mt323.dll
 0002:000005e4       __imp_?sizeHint@QPushButton@@UBE?AVQSize@@XZ 1002b5e4     qt-mt323:qt-mt323.dll
 0002:000005e8       __imp_?setGeometry@QPushButton@@UAEXHHHH@Z 1002b5e8     qt-mt323:qt-mt323.dll
 0002:000005ec       __imp_?setGeometry@QPushButton@@UAEXABVQRect@@@Z 1002b5ec     qt-mt323:qt-mt323.dll
 0002:000005f0       __imp_?resize@QPushButton@@UAEXHH@Z 1002b5f0     qt-mt323:qt-mt323.dll
 0002:000005f4       __imp_?move@QPushButton@@UAEXHH@Z 1002b5f4     qt-mt323:qt-mt323.dll
 0002:000005f8       __imp_?qt_property@QPushButton@@UAE_NHHPAVQVariant@@@Z 1002b5f8     qt-mt323:qt-mt323.dll
 0002:000005fc       __imp_?qt_emit@QPushButton@@UAE_NHPAUQUObject@@@Z 1002b5fc     qt-mt323:qt-mt323.dll
 0002:00000600       __imp_?qt_invoke@QPushButton@@UAE_NHPAUQUObject@@@Z 1002b600     qt-mt323:qt-mt323.dll
 0002:00000604       __imp_?qt_cast@QPushButton@@UAEPAXPBD@Z 1002b604     qt-mt323:qt-mt323.dll
 0002:00000608       __imp_?className@QPushButton@@UBEPBDXZ 1002b608     qt-mt323:qt-mt323.dll
 0002:0000060c       __imp_?metaObject@QPushButton@@UBEPAVQMetaObject@@XZ 1002b60c     qt-mt323:qt-mt323.dll
 0002:00000610       __imp_?setGroup@QButton@@EAEXPAVQButtonGroup@@@Z 1002b610     qt-mt323:qt-mt323.dll
 0002:00000614       __imp_?drawButtonLabel@QCheckBox@@MAEXPAVQPainter@@@Z 1002b614     qt-mt323:qt-mt323.dll
 0002:00000618       __imp_?drawButton@QCheckBox@@MAEXPAVQPainter@@@Z 1002b618     qt-mt323:qt-mt323.dll
 0002:0000061c       __imp_?hitButton@QCheckBox@@MBE_NABVQPoint@@@Z 1002b61c     qt-mt323:qt-mt323.dll
 0002:00000620       __imp_?setState@QButton@@MAEXW4ToggleState@1@@Z 1002b620     qt-mt323:qt-mt323.dll
 0002:00000624       __imp_?setToggleType@QButton@@MAEXW4ToggleType@1@@Z 1002b624     qt-mt323:qt-mt323.dll
 0002:00000628       __imp_?setAutoRepeat@QButton@@UAEX_N@Z 1002b628     qt-mt323:qt-mt323.dll
 0002:0000062c       __imp_?setDown@QButton@@UAEX_N@Z 1002b62c     qt-mt323:qt-mt323.dll
 0002:00000630       __imp_?setAccel@QButton@@UAEXABVQKeySequence@@@Z 1002b630     qt-mt323:qt-mt323.dll
 0002:00000634       __imp_?setPixmap@QButton@@UAEXABVQPixmap@@@Z 1002b634     qt-mt323:qt-mt323.dll
 0002:00000638       __imp_?setText@QButton@@UAEXABVQString@@@Z 1002b638     qt-mt323:qt-mt323.dll
 0002:0000063c       __imp_?enabledChange@QButton@@MAEX_N@Z 1002b63c     qt-mt323:qt-mt323.dll
 0002:00000640       __imp_?updateMask@QCheckBox@@MAEXXZ 1002b640     qt-mt323:qt-mt323.dll
 0002:00000644       __imp_?resizeEvent@QCheckBox@@MAEXPAVQResizeEvent@@@Z 1002b644     qt-mt323:qt-mt323.dll
 0002:00000648       __imp_?paintEvent@QButton@@MAEXPAVQPaintEvent@@@Z 1002b648     qt-mt323:qt-mt323.dll
 0002:0000064c       __imp_?focusOutEvent@QButton@@MAEXPAVQFocusEvent@@@Z 1002b64c     qt-mt323:qt-mt323.dll
 0002:00000650       __imp_?focusInEvent@QButton@@MAEXPAVQFocusEvent@@@Z 1002b650     qt-mt323:qt-mt323.dll
 0002:00000654       __imp_?keyReleaseEvent@QButton@@MAEXPAVQKeyEvent@@@Z 1002b654     qt-mt323:qt-mt323.dll
 0002:00000658       __imp_?keyPressEvent@QButton@@MAEXPAVQKeyEvent@@@Z 1002b658     qt-mt323:qt-mt323.dll
 0002:0000065c       __imp_?mouseMoveEvent@QButton@@MAEXPAVQMouseEvent@@@Z 1002b65c     qt-mt323:qt-mt323.dll
 0002:00000660       __imp_?mouseReleaseEvent@QButton@@MAEXPAVQMouseEvent@@@Z 1002b660     qt-mt323:qt-mt323.dll
 0002:00000664       __imp_?mousePressEvent@QButton@@MAEXPAVQMouseEvent@@@Z 1002b664     qt-mt323:qt-mt323.dll
 0002:00000668       __imp_?sizeHint@QCheckBox@@UBE?AVQSize@@XZ 1002b668     qt-mt323:qt-mt323.dll
 0002:0000066c       __imp_?qt_property@QCheckBox@@UAE_NHHPAVQVariant@@@Z 1002b66c     qt-mt323:qt-mt323.dll
 0002:00000670       __imp_?qt_emit@QCheckBox@@UAE_NHPAUQUObject@@@Z 1002b670     qt-mt323:qt-mt323.dll
 0002:00000674       __imp_?qt_invoke@QCheckBox@@UAE_NHPAUQUObject@@@Z 1002b674     qt-mt323:qt-mt323.dll
 0002:00000678       __imp_?qt_cast@QCheckBox@@UAEPAXPBD@Z 1002b678     qt-mt323:qt-mt323.dll
 0002:0000067c       __imp_?className@QCheckBox@@UBEPBDXZ 1002b67c     qt-mt323:qt-mt323.dll
 0002:00000680       __imp_?metaObject@QCheckBox@@UBEPAVQMetaObject@@XZ 1002b680     qt-mt323:qt-mt323.dll
 0002:00000684       __imp_?emitLinkClicked@QTextEdit@@EAEXABVQString@@@Z 1002b684     qt-mt323:qt-mt323.dll
 0002:00000688       __imp_?emitHighlighted@QTextEdit@@EAEXABVQString@@@Z 1002b688     qt-mt323:qt-mt323.dll
 0002:0000068c       __imp_?linksEnabled@QTextEdit@@EBE_NXZ 1002b68c     qt-mt323:qt-mt323.dll
 0002:00000690       __imp_?doChangeInterval@QTextEdit@@MAEXXZ 1002b690     qt-mt323:qt-mt323.dll
 0002:00000694       __imp_?createPopupMenu@QTextEdit@@MAEPAVQPopupMenu@@ABVQPoint@@@Z 1002b694     qt-mt323:qt-mt323.dll
 0002:00000698       __imp_?createPopupMenu@QTextEdit@@MAEPAVQPopupMenu@@XZ 1002b698     qt-mt323:qt-mt323.dll
 0002:0000069c       __imp_?setUndoRedoEnabled@QTextEdit@@UAEX_N@Z 1002b69c     qt-mt323:qt-mt323.dll
 0002:000006a0       __imp_?clearParagraphBackground@QTextEdit@@UAEXH@Z 1002b6a0     qt-mt323:qt-mt323.dll
 0002:000006a4       __imp_?setParagraphBackgroundColor@QTextEdit@@UAEXHABVQColor@@@Z 1002b6a4     qt-mt323:qt-mt323.dll
 0002:000006a8       __imp_?insertParagraph@QTextEdit@@UAEXABVQString@@H@Z 1002b6a8     qt-mt323:qt-mt323.dll
 0002:000006ac       __imp_?removeParagraph@QTextEdit@@UAEXH@Z 1002b6ac     qt-mt323:qt-mt323.dll
 0002:000006b0       __imp_?insertAt@QTextEdit@@UAEXABVQString@@HH@Z 1002b6b0     qt-mt323:qt-mt323.dll
 0002:000006b4       __imp_?insert@QTextEdit@@UAEXABVQString@@_N11@Z 1002b6b4     qt-mt323:qt-mt323.dll
 0002:000006b8       __imp_?scrollToBottom@QTextEdit@@UAEXXZ 1002b6b8     qt-mt323:qt-mt323.dll
 0002:000006bc       __imp_?setOverwriteMode@QTextEdit@@UAEX_N@Z 1002b6bc     qt-mt323:qt-mt323.dll
 0002:000006c0       __imp_?setCurrentFont@QTextEdit@@UAEXABVQFont@@@Z 1002b6c0     qt-mt323:qt-mt323.dll
 0002:000006c4       __imp_?removeSelection@QTextEdit@@UAEXH@Z 1002b6c4     qt-mt323:qt-mt323.dll
 0002:000006c8       __imp_?removeSelectedText@QTextEdit@@UAEXH@Z 1002b6c8     qt-mt323:qt-mt323.dll
 0002:000006cc       __imp_?doKeyboardAction@QTextEdit@@UAEXW4KeyboardAction@1@@Z 1002b6cc     qt-mt323:qt-mt323.dll
 0002:000006d0       __imp_?moveCursor@QTextEdit@@UAEXW4CursorAction@1@_N@Z 1002b6d0     qt-mt323:qt-mt323.dll
 0002:000006d4       __imp_?placeCursor@QTextEdit@@UAEXABVQPoint@@PAVQTextCursor@@@Z 1002b6d4     qt-mt323:qt-mt323.dll
 0002:000006d8       __imp_?ensureCursorVisible@QTextEdit@@UAEXXZ 1002b6d8     qt-mt323:qt-mt323.dll
 0002:000006dc       __imp_?setFormat@QTextEdit@@UAEXPAVQTextFormat@@H@Z 1002b6dc     qt-mt323:qt-mt323.dll
 0002:000006e0       __imp_?setUndoDepth@QTextEdit@@UAEXH@Z 1002b6e0     qt-mt323:qt-mt323.dll
 0002:000006e4       __imp_?resetFormat@QTextEdit@@UAEXXZ 1002b6e4     qt-mt323:qt-mt323.dll
 0002:000006e8       __imp_?setModified@QTextEdit@@UAEX_N@Z 1002b6e8     qt-mt323:qt-mt323.dll
 0002:000006ec       __imp_?setSelectionAttributes@QTextEdit@@UAEXHABVQColor@@_N@Z 1002b6ec     qt-mt323:qt-mt323.dll
 0002:000006f0       __imp_?setSelection@QTextEdit@@UAEXHHHHH@Z 1002b6f0     qt-mt323:qt-mt323.dll
 0002:000006f4       __imp_?setCursorPosition@QTextEdit@@UAEXHH@Z 1002b6f4     qt-mt323:qt-mt323.dll
 0002:000006f8       __imp_?setParagType@QTextEdit@@UAEXW4DisplayMode@QStyleSheetItem@@W4ListStyle@3@@Z 1002b6f8     qt-mt323:qt-mt323.dll
 0002:000006fc       __imp_?setAlignment@QTextEdit@@UAEXH@Z 1002b6fc     qt-mt323:qt-mt323.dll
 0002:00000700       __imp_?setVerticalAlignment@QTextEdit@@UAEXW4VerticalAlignment@1@@Z 1002b700     qt-mt323:qt-mt323.dll
 0002:00000704       __imp_?setColor@QTextEdit@@UAEXABVQColor@@@Z 1002b704     qt-mt323:qt-mt323.dll
 0002:00000708       __imp_?setPointSize@QTextEdit@@UAEXH@Z 1002b708     qt-mt323:qt-mt323.dll
 0002:0000070c       __imp_?setFamily@QTextEdit@@UAEXABVQString@@@Z 1002b70c     qt-mt323:qt-mt323.dll
 0002:00000710       __imp_?setUnderline@QTextEdit@@UAEX_N@Z 1002b710     qt-mt323:qt-mt323.dll
 0002:00000714       __imp_?setBold@QTextEdit@@UAEX_N@Z 1002b714     qt-mt323:qt-mt323.dll
 0002:00000718       __imp_?setItalic@QTextEdit@@UAEX_N@Z 1002b718     qt-mt323:qt-mt323.dll
 0002:0000071c       __imp_?indent@QTextEdit@@UAEXXZ 1002b71c     qt-mt323:qt-mt323.dll
 0002:00000720       __imp_?del@QTextEdit@@UAEXXZ 1002b720     qt-mt323:qt-mt323.dll
 0002:00000724       __imp_?clear@QTextEdit@@UAEXXZ 1002b724     qt-mt323:qt-mt323.dll
 0002:00000728       __imp_?pasteSubType@QTextEdit@@UAEXABVQCString@@@Z 1002b728     qt-mt323:qt-mt323.dll
 0002:0000072c       __imp_?paste@QTextEdit@@UAEXXZ 1002b72c     qt-mt323:qt-mt323.dll
 0002:00000730       __imp_?cut@QTextEdit@@UAEXXZ 1002b730     qt-mt323:qt-mt323.dll
 0002:00000734       __imp_?redo@QTextEdit@@UAEXXZ 1002b734     qt-mt323:qt-mt323.dll
 0002:00000738       __imp_?undo@QTextEdit@@UAEXXZ 1002b738     qt-mt323:qt-mt323.dll
 0002:0000073c       __imp_?setReadOnly@QTextEdit@@UAEX_N@Z 1002b73c     qt-mt323:qt-mt323.dll
 0002:00000740       __imp_?sync@QTextEdit@@UAEXXZ 1002b740     qt-mt323:qt-mt323.dll
 0002:00000744       __imp_?zoomTo@QTextEdit@@UAEXH@Z 1002b744     qt-mt323:qt-mt323.dll
 0002:00000748       __imp_?zoomOut@QTextEdit@@UAEXH@Z 1002b748     qt-mt323:qt-mt323.dll
 0002:0000074c       __imp_?zoomOut@QTextEdit@@UAEXXZ 1002b74c     qt-mt323:qt-mt323.dll
 0002:00000750       __imp_?zoomIn@QTextEdit@@UAEXH@Z 1002b750     qt-mt323:qt-mt323.dll
 0002:00000754       __imp_?zoomIn@QTextEdit@@UAEXXZ 1002b754     qt-mt323:qt-mt323.dll
 0002:00000758       __imp_?setTabStopWidth@QTextEdit@@UAEXH@Z 1002b758     qt-mt323:qt-mt323.dll
 0002:0000075c       __imp_?selectAll@QTextEdit@@UAEX_N@Z 1002b75c     qt-mt323:qt-mt323.dll
 0002:00000760       __imp_?setTextFormat@QTextEdit@@UAEXW4TextFormat@Qt@@@Z 1002b760     qt-mt323:qt-mt323.dll
 0002:00000764       __imp_?setText@QTextEdit@@UAEXABVQString@@0@Z 1002b764     qt-mt323:qt-mt323.dll
 0002:00000768       __imp_?append@QTextEdit@@UAEXABVQString@@@Z 1002b768     qt-mt323:qt-mt323.dll
 0002:0000076c       __imp_?copy@QTextEdit@@UAEXXZ 1002b76c     qt-mt323:qt-mt323.dll
 0002:00000770       __imp_?setWrapPolicy@QTextEdit@@UAEXW4WrapPolicy@1@@Z 1002b770     qt-mt323:qt-mt323.dll
 0002:00000774       __imp_?setWrapColumnOrWidth@QTextEdit@@UAEXH@Z 1002b774     qt-mt323:qt-mt323.dll
 0002:00000778       __imp_?setWordWrap@QTextEdit@@UAEXW4WordWrap@1@@Z 1002b778     qt-mt323:qt-mt323.dll
 0002:0000077c       __imp_?setLinkUnderline@QTextEdit@@UAEX_N@Z 1002b77c     qt-mt323:qt-mt323.dll
 0002:00000780       __imp_?setPaper@QTextEdit@@UAEXABVQBrush@@@Z 1002b780     qt-mt323:qt-mt323.dll
 0002:00000784       __imp_?scrollToAnchor@QTextEdit@@UAEXABVQString@@@Z 1002b784     qt-mt323:qt-mt323.dll
 0002:00000788       __imp_?setStyleSheet@QTextEdit@@UAEXPAVQStyleSheet@@@Z 1002b788     qt-mt323:qt-mt323.dll
 0002:0000078c       __imp_?setMimeSourceFactory@QTextEdit@@UAEXPAVQMimeSourceFactory@@@Z 1002b78c     qt-mt323:qt-mt323.dll
 0002:00000790       __imp_?getParagraphFormat@QTextEdit@@UAE_NHPAVQFont@@PAVQColor@@PAW4VerticalAlignment@1@PAHPAW4DisplayMode@QStyleSheetItem@@PAW4ListStyle@6@3@Z 1002b790     qt-mt323:qt-mt323.dll
 0002:00000794       __imp_?getFormat@QTextEdit@@UAE_NHHPAVQFont@@PAVQColor@@PAW4VerticalAlignment@1@@Z 1002b794     qt-mt323:qt-mt323.dll
 0002:00000798       __imp_?find@QTextEdit@@UAE_NABVQString@@_N11PAH2@Z 1002b798     qt-mt323:qt-mt323.dll
 0002:0000079c       __imp_?setVBarGeometry@QScrollView@@MAEXAAVQScrollBar@@HHHH@Z 1002b79c     qt-mt323:qt-mt323.dll
 0002:000007a0       __imp_?setHBarGeometry@QScrollView@@MAEXAAVQScrollBar@@HHHH@Z 1002b7a0     qt-mt323:qt-mt323.dll
 0002:000007a4       __imp_?setMargins@QScrollView@@MAEXHHHH@Z 1002b7a4     qt-mt323:qt-mt323.dll
 0002:000007a8       __imp_?viewportContextMenuEvent@QScrollView@@MAEXPAVQContextMenuEvent@@@Z 1002b7a8     qt-mt323:qt-mt323.dll
 0002:000007ac       __imp_?viewportWheelEvent@QScrollView@@MAEXPAVQWheelEvent@@@Z 1002b7ac     qt-mt323:qt-mt323.dll
 0002:000007b0       __imp_?viewportDropEvent@QScrollView@@MAEXPAVQDropEvent@@@Z 1002b7b0     qt-mt323:qt-mt323.dll
 0002:000007b4       __imp_?viewportDragLeaveEvent@QScrollView@@MAEXPAVQDragLeaveEvent@@@Z 1002b7b4     qt-mt323:qt-mt323.dll
 0002:000007b8       __imp_?viewportDragMoveEvent@QScrollView@@MAEXPAVQDragMoveEvent@@@Z 1002b7b8     qt-mt323:qt-mt323.dll
 0002:000007bc       __imp_?viewportDragEnterEvent@QScrollView@@MAEXPAVQDragEnterEvent@@@Z 1002b7bc     qt-mt323:qt-mt323.dll
 0002:000007c0       __imp_?viewportMouseMoveEvent@QScrollView@@MAEXPAVQMouseEvent@@@Z 1002b7c0     qt-mt323:qt-mt323.dll
 0002:000007c4       __imp_?viewportMouseDoubleClickEvent@QScrollView@@MAEXPAVQMouseEvent@@@Z 1002b7c4     qt-mt323:qt-mt323.dll
 0002:000007c8       __imp_?viewportMouseReleaseEvent@QScrollView@@MAEXPAVQMouseEvent@@@Z 1002b7c8     qt-mt323:qt-mt323.dll
 0002:000007cc       __imp_?viewportMousePressEvent@QScrollView@@MAEXPAVQMouseEvent@@@Z 1002b7cc     qt-mt323:qt-mt323.dll
 0002:000007d0       __imp_?viewportResizeEvent@QTextEdit@@MAEXPAVQResizeEvent@@@Z 1002b7d0     qt-mt323:qt-mt323.dll
 0002:000007d4       __imp_?viewportPaintEvent@QScrollView@@MAEXPAVQPaintEvent@@@Z 1002b7d4     qt-mt323:qt-mt323.dll
 0002:000007d8       __imp_?contentsContextMenuEvent@QTextEdit@@MAEXPAVQContextMenuEvent@@@Z 1002b7d8     qt-mt323:qt-mt323.dll
 0002:000007dc       __imp_?contentsWheelEvent@QTextEdit@@MAEXPAVQWheelEvent@@@Z 1002b7dc     qt-mt323:qt-mt323.dll
 0002:000007e0       __imp_?contentsDropEvent@QTextEdit@@MAEXPAVQDropEvent@@@Z 1002b7e0     qt-mt323:qt-mt323.dll
 0002:000007e4       __imp_?contentsDragLeaveEvent@QTextEdit@@MAEXPAVQDragLeaveEvent@@@Z 1002b7e4     qt-mt323:qt-mt323.dll
 0002:000007e8       __imp_?contentsDragMoveEvent@QTextEdit@@MAEXPAVQDragMoveEvent@@@Z 1002b7e8     qt-mt323:qt-mt323.dll
 0002:000007ec       __imp_?contentsDragEnterEvent@QTextEdit@@MAEXPAVQDragEnterEvent@@@Z 1002b7ec     qt-mt323:qt-mt323.dll
 0002:000007f0       __imp_?contentsMouseMoveEvent@QTextEdit@@MAEXPAVQMouseEvent@@@Z 1002b7f0     qt-mt323:qt-mt323.dll
 0002:000007f4       __imp_?contentsMouseDoubleClickEvent@QTextEdit@@MAEXPAVQMouseEvent@@@Z 1002b7f4     qt-mt323:qt-mt323.dll
 0002:000007f8       __imp_?contentsMouseReleaseEvent@QTextEdit@@MAEXPAVQMouseEvent@@@Z 1002b7f8     qt-mt323:qt-mt323.dll
 0002:000007fc       __imp_?contentsMousePressEvent@QTextEdit@@MAEXPAVQMouseEvent@@@Z 1002b7fc     qt-mt323:qt-mt323.dll
 0002:00000800       __imp_?drawContentsOffset@QScrollView@@MAEXPAVQPainter@@HHHHHH@Z 1002b800     qt-mt323:qt-mt323.dll
 0002:00000804       __imp_?drawContents@QTextEdit@@MAEXPAVQPainter@@HHHH@Z 1002b804     qt-mt323:qt-mt323.dll
 0002:00000808       __imp_?setContentsPos@QScrollView@@UAEXHH@Z 1002b808     qt-mt323:qt-mt323.dll
 0002:0000080c       __imp_?resizeContents@QScrollView@@UAEXHH@Z 1002b80c     qt-mt323:qt-mt323.dll
 0002:00000810       __imp_?setDragAutoScroll@QScrollView@@UAEX_N@Z 1002b810     qt-mt323:qt-mt323.dll
 0002:00000814       __imp_?setCornerWidget@QScrollView@@UAEXPAVQWidget@@@Z 1002b814     qt-mt323:qt-mt323.dll
 0002:00000818       __imp_?setHScrollBarMode@QScrollView@@UAEXW4ScrollBarMode@1@@Z 1002b818     qt-mt323:qt-mt323.dll
 0002:0000081c       __imp_?setVScrollBarMode@QScrollView@@UAEXW4ScrollBarMode@1@@Z 1002b81c     qt-mt323:qt-mt323.dll
 0002:00000820       __imp_?moveChild@QScrollView@@UAEXPAVQWidget@@HH@Z 1002b820     qt-mt323:qt-mt323.dll
 0002:00000824       __imp_?addChild@QScrollView@@UAEXPAVQWidget@@HH@Z 1002b824     qt-mt323:qt-mt323.dll
 0002:00000828       __imp_?setResizePolicy@QScrollView@@UAEXW4ResizePolicy@1@@Z 1002b828     qt-mt323:qt-mt323.dll
 0002:0000082c       __imp_?frameChanged@QScrollView@@MAEXXZ 1002b82c     qt-mt323:qt-mt323.dll
 0002:00000830       __imp_?drawContents@QTextEdit@@EAEXPAVQPainter@@@Z 1002b830     qt-mt323:qt-mt323.dll
 0002:00000834       __imp_?drawFrame@QFrame@@MAEXPAVQPainter@@@Z 1002b834     qt-mt323:qt-mt323.dll
 0002:00000838       __imp_?setFrameRect@QFrame@@UAEXABVQRect@@@Z 1002b838     qt-mt323:qt-mt323.dll
 0002:0000083c       __imp_?setMidLineWidth@QFrame@@UAEXH@Z 1002b83c     qt-mt323:qt-mt323.dll
 0002:00000840       __imp_?setMargin@QFrame@@UAEXH@Z 1002b840     qt-mt323:qt-mt323.dll
 0002:00000844       __imp_?setLineWidth@QFrame@@UAEXH@Z 1002b844     qt-mt323:qt-mt323.dll
 0002:00000848       __imp_?setFrameStyle@QFrame@@UAEXH@Z 1002b848     qt-mt323:qt-mt323.dll
 0002:0000084c       __imp_?focusNextPrevChild@QTextEdit@@MAE_N_N@Z 1002b84c     qt-mt323:qt-mt323.dll
 0002:00000850       __imp_?windowActivationChange@QTextEdit@@MAEX_N@Z 1002b850     qt-mt323:qt-mt323.dll
 0002:00000854       __imp_?fontChange@QScrollView@@MAEXABVQFont@@@Z 1002b854     qt-mt323:qt-mt323.dll
 0002:00000858       __imp_?styleChange@QScrollView@@UAEXAAVQStyle@@@Z 1002b858     qt-mt323:qt-mt323.dll
 0002:0000085c       __imp_?imEndEvent@QTextEdit@@MAEXPAVQIMEvent@@@Z 1002b85c     qt-mt323:qt-mt323.dll
 0002:00000860       __imp_?imComposeEvent@QTextEdit@@MAEXPAVQIMEvent@@@Z 1002b860     qt-mt323:qt-mt323.dll
 0002:00000864       __imp_?imStartEvent@QTextEdit@@MAEXPAVQIMEvent@@@Z 1002b864     qt-mt323:qt-mt323.dll
 0002:00000868       __imp_?contextMenuEvent@QScrollView@@MAEXPAVQContextMenuEvent@@@Z 1002b868     qt-mt323:qt-mt323.dll
 0002:0000086c       __imp_?resizeEvent@QTextEdit@@MAEXPAVQResizeEvent@@@Z 1002b86c     qt-mt323:qt-mt323.dll
 0002:00000870       __imp_?paintEvent@QFrame@@MAEXPAVQPaintEvent@@@Z 1002b870     qt-mt323:qt-mt323.dll
 0002:00000874       __imp_?keyPressEvent@QTextEdit@@MAEXPAVQKeyEvent@@@Z 1002b874     qt-mt323:qt-mt323.dll
 0002:00000878       __imp_?wheelEvent@QScrollView@@MAEXPAVQWheelEvent@@@Z 1002b878     qt-mt323:qt-mt323.dll
 0002:0000087c       __imp_?mouseMoveEvent@QScrollView@@MAEXPAVQMouseEvent@@@Z 1002b87c     qt-mt323:qt-mt323.dll
 0002:00000880       __imp_?mouseDoubleClickEvent@QScrollView@@MAEXPAVQMouseEvent@@@Z 1002b880     qt-mt323:qt-mt323.dll
 0002:00000884       __imp_?mouseReleaseEvent@QScrollView@@MAEXPAVQMouseEvent@@@Z 1002b884     qt-mt323:qt-mt323.dll
 0002:00000888       __imp_?mousePressEvent@QScrollView@@MAEXPAVQMouseEvent@@@Z 1002b888     qt-mt323:qt-mt323.dll
 0002:0000088c       __imp_?heightForWidth@QTextEdit@@UBEHH@Z 1002b88c     qt-mt323:qt-mt323.dll
 0002:00000890       __imp_?minimumSizeHint@QScrollView@@UBE?AVQSize@@XZ 1002b890     qt-mt323:qt-mt323.dll
 0002:00000894       __imp_?sizeHint@QTextEdit@@UBE?AVQSize@@XZ 1002b894     qt-mt323:qt-mt323.dll
 0002:00000898       __imp_?resize@QScrollView@@UAEXHH@Z 1002b898     qt-mt323:qt-mt323.dll
 0002:0000089c       __imp_?polish@QTextEdit@@UAEXXZ 1002b89c     qt-mt323:qt-mt323.dll
 0002:000008a0       __imp_?show@QScrollView@@UAEXXZ 1002b8a0     qt-mt323:qt-mt323.dll
 0002:000008a4       __imp_?setFont@QTextEdit@@UAEXABVQFont@@@Z 1002b8a4     qt-mt323:qt-mt323.dll
 0002:000008a8       __imp_?setPalette@QTextEdit@@UAEXABVQPalette@@@Z 1002b8a8     qt-mt323:qt-mt323.dll
 0002:000008ac       __imp_?setEnabled@QTextEdit@@UAEX_N@Z 1002b8ac     qt-mt323:qt-mt323.dll
 0002:000008b0       __imp_?removeChild@QScrollView@@UAEXPAVQObject@@@Z 1002b8b0     qt-mt323:qt-mt323.dll
 0002:000008b4       __imp_?eventFilter@QTextEdit@@UAE_NPAVQObject@@PAVQEvent@@@Z 1002b8b4     qt-mt323:qt-mt323.dll
 0002:000008b8       __imp_?event@QTextEdit@@MAE_NPAVQEvent@@@Z 1002b8b8     qt-mt323:qt-mt323.dll
 0002:000008bc       __imp_?qt_property@QTextEdit@@UAE_NHHPAVQVariant@@@Z 1002b8bc     qt-mt323:qt-mt323.dll
 0002:000008c0       __imp_?qt_emit@QTextEdit@@UAE_NHPAUQUObject@@@Z 1002b8c0     qt-mt323:qt-mt323.dll
 0002:000008c4       __imp_?qt_invoke@QTextEdit@@UAE_NHPAUQUObject@@@Z 1002b8c4     qt-mt323:qt-mt323.dll
 0002:000008c8       __imp_?qt_cast@QTextEdit@@UAEPAXPBD@Z 1002b8c8     qt-mt323:qt-mt323.dll
 0002:000008cc       __imp_?className@QTextEdit@@UBEPBDXZ 1002b8cc     qt-mt323:qt-mt323.dll
 0002:000008d0       __imp_?metaObject@QTextEdit@@UBEPAVQMetaObject@@XZ 1002b8d0     qt-mt323:qt-mt323.dll
 0002:000008d4       __imp_?qt_property@QHBoxLayout@@UAE_NHHPAVQVariant@@@Z 1002b8d4     qt-mt323:qt-mt323.dll
 0002:000008d8       __imp_?qt_emit@QHBoxLayout@@UAE_NHPAUQUObject@@@Z 1002b8d8     qt-mt323:qt-mt323.dll
 0002:000008dc       __imp_?qt_invoke@QHBoxLayout@@UAE_NHPAUQUObject@@@Z 1002b8dc     qt-mt323:qt-mt323.dll
 0002:000008e0       __imp_?qt_cast@QHBoxLayout@@UAEPAXPBD@Z 1002b8e0     qt-mt323:qt-mt323.dll
 0002:000008e4       __imp_?className@QHBoxLayout@@UBEPBDXZ 1002b8e4     qt-mt323:qt-mt323.dll
 0002:000008e8       __imp_?metaObject@QHBoxLayout@@UBEPAVQMetaObject@@XZ 1002b8e8     qt-mt323:qt-mt323.dll
 0002:000008ec       __imp_?setAlignment@QLayoutItem@@UAEXH@Z 1002b8ec     qt-mt323:qt-mt323.dll
 0002:000008f0       __imp_?spacerItem@QLayoutItem@@UAEPAVQSpacerItem@@XZ 1002b8f0     qt-mt323:qt-mt323.dll
 0002:000008f4       __imp_?layout@QLayout@@UAEPAV1@XZ 1002b8f4     qt-mt323:qt-mt323.dll
 0002:000008f8       __imp_?iterator@QBoxLayout@@UAE?AVQLayoutIterator@@XZ 1002b8f8     qt-mt323:qt-mt323.dll
 0002:000008fc       __imp_?widget@QLayoutItem@@UAEPAVQWidget@@XZ 1002b8fc     qt-mt323:qt-mt323.dll
 0002:00000900       __imp_?invalidate@QBoxLayout@@UAEXXZ 1002b900     qt-mt323:qt-mt323.dll
 0002:00000904       __imp_?heightForWidth@QBoxLayout@@UBEHH@Z 1002b904     qt-mt323:qt-mt323.dll
 0002:00000908       __imp_?hasHeightForWidth@QBoxLayout@@UBE_NXZ 1002b908     qt-mt323:qt-mt323.dll
 0002:0000090c       __imp_?isEmpty@QLayout@@UBE_NXZ 1002b90c     qt-mt323:qt-mt323.dll
 0002:00000910       __imp_?geometry@QLayout@@UBE?AVQRect@@XZ 1002b910     qt-mt323:qt-mt323.dll
 0002:00000914       __imp_?setGeometry@QBoxLayout@@UAEXABVQRect@@@Z 1002b914     qt-mt323:qt-mt323.dll
 0002:00000918       __imp_?expanding@QBoxLayout@@UBE?AW4ExpandData@QSizePolicy@@XZ 1002b918     qt-mt323:qt-mt323.dll
 0002:0000091c       __imp_?maximumSize@QBoxLayout@@UBE?AVQSize@@XZ 1002b91c     qt-mt323:qt-mt323.dll
 0002:00000920       __imp_?minimumSize@QBoxLayout@@UBE?AVQSize@@XZ 1002b920     qt-mt323:qt-mt323.dll
 0002:00000924       __imp_?sizeHint@QBoxLayout@@UBE?AVQSize@@XZ 1002b924     qt-mt323:qt-mt323.dll
 0002:00000928       __imp_?addItem@QBoxLayout@@UAEXPAVQLayoutItem@@@Z 1002b928     qt-mt323:qt-mt323.dll
 0002:0000092c       __imp_?setAutoAdd@QLayout@@UAEX_N@Z 1002b92c     qt-mt323:qt-mt323.dll
 0002:00000930       __imp_?setMenuBar@QLayout@@UAEXPAVQMenuBar@@@Z 1002b930     qt-mt323:qt-mt323.dll
 0002:00000934       __imp_?setSpacing@QLayout@@UAEXH@Z 1002b934     qt-mt323:qt-mt323.dll
 0002:00000938       __imp_?setMargin@QLayout@@UAEXH@Z 1002b938     qt-mt323:qt-mt323.dll
 0002:0000093c       __imp_?childEvent@QLayout@@MAEXPAVQChildEvent@@@Z 1002b93c     qt-mt323:qt-mt323.dll
 0002:00000940       __imp_?setName@QObject@@UAEXPBD@Z 1002b940     qt-mt323:qt-mt323.dll
 0002:00000944       __imp_?eventFilter@QLayout@@MAE_NPAVQObject@@PAVQEvent@@@Z 1002b944     qt-mt323:qt-mt323.dll
 0002:00000948       __imp_?event@QObject@@UAE_NPAVQEvent@@@Z 1002b948     qt-mt323:qt-mt323.dll
 0002:0000094c       __imp_?qt_property@QVBoxLayout@@UAE_NHHPAVQVariant@@@Z 1002b94c     qt-mt323:qt-mt323.dll
 0002:00000950       __imp_?qt_emit@QVBoxLayout@@UAE_NHPAUQUObject@@@Z 1002b950     qt-mt323:qt-mt323.dll
 0002:00000954       __imp_?qt_invoke@QVBoxLayout@@UAE_NHPAUQUObject@@@Z 1002b954     qt-mt323:qt-mt323.dll
 0002:00000958       __imp_?qt_cast@QVBoxLayout@@UAEPAXPBD@Z 1002b958     qt-mt323:qt-mt323.dll
 0002:0000095c       __imp_?className@QVBoxLayout@@UBEPBDXZ 1002b95c     qt-mt323:qt-mt323.dll
 0002:00000960       __imp_?metaObject@QVBoxLayout@@UBEPAVQMetaObject@@XZ 1002b960     qt-mt323:qt-mt323.dll
 0002:00000964       __imp_??1QDialog@@UAE@XZ   1002b964     qt-mt323:qt-mt323.dll
 0002:00000968       __imp_??1QFont@@QAE@XZ     1002b968     qt-mt323:qt-mt323.dll
 0002:0000096c       __imp_?resize@QDialog@@QAEXABVQSize@@@Z 1002b96c     qt-mt323:qt-mt323.dll
 0002:00000970       __imp_?addLayout@QBoxLayout@@QAEXPAVQLayout@@H@Z 1002b970     qt-mt323:qt-mt323.dll
 0002:00000974       __imp_??0QPushButton@@QAE@PAVQWidget@@PBD@Z 1002b974     qt-mt323:qt-mt323.dll
 0002:00000978       __imp_??0QCheckBox@@QAE@PAVQWidget@@PBD@Z 1002b978     qt-mt323:qt-mt323.dll
 0002:0000097c       __imp_??0QHBoxLayout@@QAE@PAVQWidget@@HHPBD@Z 1002b97c     qt-mt323:qt-mt323.dll
 0002:00000980       __imp_?addWidget@QBoxLayout@@QAEXPAVQWidget@@HH@Z 1002b980     qt-mt323:qt-mt323.dll
 0002:00000984       __imp_?setPointSize@QFont@@QAEXH@Z 1002b984     qt-mt323:qt-mt323.dll
 0002:00000988       __imp_?setFamily@QFont@@QAEXABVQString@@@Z 1002b988     qt-mt323:qt-mt323.dll
 0002:0000098c       __imp_?font@QTextEdit@@QBE?AVQFont@@XZ 1002b98c     qt-mt323:qt-mt323.dll
 0002:00000990       __imp_??0QTextEdit@@QAE@PAVQWidget@@PBD@Z 1002b990     qt-mt323:qt-mt323.dll
 0002:00000994       __imp_??0QVBoxLayout@@QAE@PAVQWidget@@HHPBD@Z 1002b994     qt-mt323:qt-mt323.dll
 0002:00000998       __imp_?setSizeGripEnabled@QDialog@@QAEX_N@Z 1002b998     qt-mt323:qt-mt323.dll
 0002:0000099c       __imp_??0QDialog@@QAE@PAVQWidget@@PBD_NI@Z 1002b99c     qt-mt323:qt-mt323.dll
 0002:000009a0       __imp_??1QSpacerItem@@UAE@XZ 1002b9a0     qt-mt323:qt-mt323.dll
 0002:000009a4       __imp_??1QVBoxLayout@@UAE@XZ 1002b9a4     qt-mt323:qt-mt323.dll
 0002:000009a8       __imp_??1QTextEdit@@UAE@XZ 1002b9a8     qt-mt323:qt-mt323.dll
 0002:000009ac       __imp_??1QHBoxLayout@@UAE@XZ 1002b9ac     qt-mt323:qt-mt323.dll
 0002:000009b0       __imp_??1QCheckBox@@UAE@XZ 1002b9b0     qt-mt323:qt-mt323.dll
 0002:000009b4       __imp_??1QPushButton@@UAE@XZ 1002b9b4     qt-mt323:qt-mt323.dll
 0002:000009b8       __imp_??0QMetaObjectCleanUp@@QAE@PBDP6APAVQMetaObject@@XZ@Z 1002b9b8     qt-mt323:qt-mt323.dll
 0002:000009bc       __imp_??1QMetaObjectCleanUp@@QAE@XZ 1002b9bc     qt-mt323:qt-mt323.dll
 0002:000009c0       __imp_?fromLatin1@QString@@SA?AV1@PBDH@Z 1002b9c0     qt-mt323:qt-mt323.dll
 0002:000009c4       __imp_?translate@QApplication@@QBE?AVQString@@PBD00W4Encoding@1@@Z 1002b9c4     qt-mt323:qt-mt323.dll
 0002:000009c8       __imp_?qApp@@3PAVQApplication@@A 1002b9c8     qt-mt323:qt-mt323.dll
 0002:000009cc       __imp_?fromUtf8@QString@@SA?AV1@PBDH@Z 1002b9cc     qt-mt323:qt-mt323.dll
 0002:000009d0       __imp_?setMetaObject@QMetaObjectCleanUp@@QAEXAAPAVQMetaObject@@@Z 1002b9d0     qt-mt323:qt-mt323.dll
 0002:000009d4       __imp_?new_metaobject@QMetaObject@@SAPAV1@PBDPAV1@QBUQMetaData@@H2HQBVQMetaProperty@@HQBUQMetaEnum@@HQBUQClassInfo@@H@Z 1002b9d4     qt-mt323:qt-mt323.dll
 0002:000009d8       __imp_?static_QUType_bool@@3UQUType_bool@@A 1002b9d8     qt-mt323:qt-mt323.dll
 0002:000009dc       __imp_?static_QUType_QString@@3UQUType_QString@@A 1002b9dc     qt-mt323:qt-mt323.dll
 0002:000009e0       __imp_?staticMetaObject@QWidget@@SAPAVQMetaObject@@XZ 1002b9e0     qt-mt323:qt-mt323.dll
 0002:000009e4       __imp_?qt_cast@QWidget@@UAEPAXPBD@Z 1002b9e4     qt-mt323:qt-mt323.dll
 0002:000009e8       __imp_?activate_signal@QObject@@IAEXPAVQConnectionList@@PAUQUObject@@@Z 1002b9e8     qt-mt323:qt-mt323.dll
 0002:000009ec       __imp_?set@QUType_QString@@QAEXPAUQUObject@@ABVQString@@@Z 1002b9ec     qt-mt323:qt-mt323.dll
 0002:000009f0       __imp_??0QUObject@@QAE@XZ  1002b9f0     qt-mt323:qt-mt323.dll
 0002:000009f4       __imp_??1QUObject@@QAE@XZ  1002b9f4     qt-mt323:qt-mt323.dll
 0002:000009f8       __imp_?receivers@QObject@@IBEPAVQConnectionList@@H@Z 1002b9f8     qt-mt323:qt-mt323.dll
 0002:000009fc       __imp_?qt_invoke@QWidget@@UAE_NHPAUQUObject@@@Z 1002b9fc     qt-mt323:qt-mt323.dll
 0002:00000a00       __imp_?qt_emit@QWidget@@UAE_NHPAUQUObject@@@Z 1002ba00     qt-mt323:qt-mt323.dll
 0002:00000a04       __imp_?qt_property@QWidget@@UAE_NHHPAVQVariant@@@Z 1002ba04     qt-mt323:qt-mt323.dll
 0002:00000a08       __imp_?staticMetaObject@QDialog@@SAPAVQMetaObject@@XZ 1002ba08     qt-mt323:qt-mt323.dll
 0002:00000a0c       __imp_?qt_cast@QDialog@@UAEPAXPBD@Z 1002ba0c     qt-mt323:qt-mt323.dll
 0002:00000a10       __imp_?qt_invoke@QDialog@@UAE_NHPAUQUObject@@@Z 1002ba10     qt-mt323:qt-mt323.dll
 0002:00000a14       __imp_?qt_emit@QDialog@@UAE_NHPAUQUObject@@@Z 1002ba14     qt-mt323:qt-mt323.dll
 0002:00000a18       __imp_?qt_property@QDialog@@UAE_NHHPAVQVariant@@@Z 1002ba18     qt-mt323:qt-mt323.dll
 0002:00000a1c       __imp_?activate_signal_bool@QObject@@IAEXH_N@Z 1002ba1c     qt-mt323:qt-mt323.dll
 0002:00000a20       __imp_?setKeyCompression@QWidget@@MAEX_N@Z 1002ba20     qt-mt323:qt-mt323.dll
 0002:00000a24       __imp_?setMicroFocusHint@QWidget@@MAEXHHHH_NPAVQFont@@@Z 1002ba24     qt-mt323:qt-mt323.dll
 0002:00000a28       __imp_?setResolution@QPaintDevice@@UAEXH@Z 1002ba28     qt-mt323:qt-mt323.dll
 0002:00000a2c       __imp_?resolution@QPaintDevice@@UBEHXZ 1002ba2c     qt-mt323:qt-mt323.dll
 0002:00000a30       __imp_?handle@QPaintDevice@@UBEPAUHDC__@@XZ 1002ba30     qt-mt323:qt-mt323.dll
 0002:00000a34       __imp_?cmd@QPaintDevice@@MAE_NHPAVQPainter@@PATQPDevCmdParam@@@Z 1002ba34     qt-mt323:qt-mt323.dll
 0002:00000a38       __imp_?metric@QWidget@@MBEHH@Z 1002ba38     qt-mt323:qt-mt323.dll
 0002:00000a3c       __imp_?fontMet@QPaintDevice@@MBEHPAVQFont@@HPBDH@Z 1002ba3c     qt-mt323:qt-mt323.dll
 0002:00000a40       __imp_?fontInf@QPaintDevice@@MBEHPAVQFont@@H@Z 1002ba40     qt-mt323:qt-mt323.dll
 0002:00000a44       __imp_??1QWidgetList@@UAE@XZ 1002ba44     qt-mt323:qt-mt323.dll
 0002:00000a48       __imp_??_7?$QPtrList@VQWidget@@@@6B@ 1002ba48     qt-mt323:qt-mt323.dll
 0002:00000a4c       __imp_??_7QWidgetList@@6B@ 1002ba4c     qt-mt323:qt-mt323.dll
 0002:00000a50       __imp_??1QGListIterator@@IAE@XZ 1002ba50     qt-mt323:qt-mt323.dll
 0002:00000a54       __imp_??0QGListIterator@@IAE@ABV0@@Z 1002ba54     qt-mt323:qt-mt323.dll
 0002:00000a58       __imp_??4QGListIterator@@IAEAAV0@ABV0@@Z 1002ba58     qt-mt323:qt-mt323.dll
 0002:00000a5c       __imp_??0QGListIterator@@IAE@ABVQGList@@@Z 1002ba5c     qt-mt323:qt-mt323.dll
 0002:00000a60       __imp_??4QGList@@IAEAAV0@ABV0@@Z 1002ba60     qt-mt323:qt-mt323.dll
 0002:00000a64       __imp_?clear@QGList@@MAEXXZ 1002ba64     qt-mt323:qt-mt323.dll
 0002:00000a68       __imp_??1QGList@@MAE@XZ    1002ba68     qt-mt323:qt-mt323.dll
 0002:00000a6c       __imp_??0QGList@@IAE@ABV0@@Z 1002ba6c     qt-mt323:qt-mt323.dll
 0002:00000a70       __imp_??0QGList@@IAE@XZ    1002ba70     qt-mt323:qt-mt323.dll
 0002:00000a74       __imp_?newItem@QPtrCollection@@MAEPAXPAX@Z 1002ba74     qt-mt323:qt-mt323.dll
 0002:00000a78       __imp_?read@QGList@@MAEAAVQDataStream@@AAV2@AAPAX@Z 1002ba78     qt-mt323:qt-mt323.dll
 0002:00000a7c       __imp_?write@QGList@@MBEAAVQDataStream@@AAV2@PAX@Z 1002ba7c     qt-mt323:qt-mt323.dll
 0002:00000a80       __imp_?compareItems@QGList@@MAEHPAX0@Z 1002ba80     qt-mt323:qt-mt323.dll
 0002:00000a84       __imp_?deleteSelf@QStringData@@QAEXXZ 1002ba84     qt-mt323:qt-mt323.dll
 0002:00000a88       __imp_??0QString@@QAE@ABV0@@Z 1002ba88     qt-mt323:qt-mt323.dll
 0002:00000a8c       __imp_?shared_null@QString@@0PAUQStringData@@A 1002ba8c     qt-mt323:qt-mt323.dll
 0002:00000a90       __imp_?makeSharedNull@QString@@CAPAUQStringData@@XZ 1002ba90     qt-mt323:qt-mt323.dll
 0002:00000a94       __imp_??4QString@@QAEAAV0@ABV0@@Z 1002ba94     qt-mt323:qt-mt323.dll
 0002:00000a98       __imp_??0?$QValueList@VQString@@@@QAE@XZ 1002ba98     qt-mt323:qt-mt323.dll
 0002:00000a9c       __imp_??0?$QMap@VQString@@V1@@@QAE@XZ 1002ba9c     qt-mt323:qt-mt323.dll
 0002:00000aa0       __imp_?write@QGDict@@MBEAAVQDataStream@@AAV2@PAX@Z 1002baa0     qt-mt323:qt-mt323.dll
 0002:00000aa4       __imp_?read@QGDict@@MAEAAVQDataStream@@AAV2@AAPAX@Z 1002baa4     qt-mt323:qt-mt323.dll
 0002:00000aa8       __imp_??0QGDict@@IAE@IW4KeyType@0@_N1@Z 1002baa8     qt-mt323:qt-mt323.dll
 0002:00000aac       __imp_??_7QCString@@6B@    1002baac     qt-mt323:qt-mt323.dll
 0002:00000ab0       __imp_??_7?$QMemArray@D@@6B@ 1002bab0     qt-mt323:qt-mt323.dll
 0002:00000ab4       __imp_??0QGArray@@QAE@XZ   1002bab4     qt-mt323:qt-mt323.dll
 0002:00000ab8       __imp_??1QCString@@UAE@XZ  1002bab8     qt-mt323:qt-mt323.dll
 0002:00000abc       __imp_?setName@QFile@@QAEXABVQString@@@Z 1002babc     qt-mt323:qt-mt323.dll
 0002:00000ac0       __imp_?type@QApplication@@QBE?AW4Type@1@XZ 1002bac0     qt-mt323:qt-mt323.dll
 0002:00000ac4       __imp_?afterSeek@QSqlCursor@@MAEXXZ 1002bac4     qt-mt323:qt-mt323.dll
 0002:00000ac8       __imp_?beforeSeek@QSqlQuery@@MAEXXZ 1002bac8     qt-mt323:qt-mt323.dll
 0002:00000acc       __imp_?last@QSqlQuery@@UAE_NXZ 1002bacc     qt-mt323:qt-mt323.dll
 0002:00000ad0       __imp_?first@QSqlQuery@@UAE_NXZ 1002bad0     qt-mt323:qt-mt323.dll
 0002:00000ad4       __imp_?prev@QSqlQuery@@UAE_NXZ 1002bad4     qt-mt323:qt-mt323.dll
 0002:00000ad8       __imp_?next@QSqlQuery@@UAE_NXZ 1002bad8     qt-mt323:qt-mt323.dll
 0002:00000adc       __imp_?seek@QSqlQuery@@UAE_NH_N@Z 1002badc     qt-mt323:qt-mt323.dll
 0002:00000ae0       __imp_?exec@QSqlCursor@@MAE_NABVQString@@@Z 1002bae0     qt-mt323:qt-mt323.dll
 0002:00000ae4       __imp_?calculateField@QSqlCursor@@MAE?AVQVariant@@ABVQString@@@Z 1002bae4     qt-mt323:qt-mt323.dll
 0002:00000ae8       __imp_?toString@QSqlCursor@@MBE?AVQString@@ABV2@PAVQSqlField@@0@Z 1002bae8     qt-mt323:qt-mt323.dll
 0002:00000aec       __imp_?toString@QSqlCursor@@MBE?AVQString@@PAVQSqlRecord@@ABV2@11@Z 1002baec     qt-mt323:qt-mt323.dll
 0002:00000af0       __imp_?toString@QSqlCursor@@MBE?AVQString@@ABVQSqlIndex@@PAVQSqlRecord@@ABV2@22@Z 1002baf0     qt-mt323:qt-mt323.dll
 0002:00000af4       __imp_?setName@QSqlCursor@@UAEXABVQString@@_N@Z 1002baf4     qt-mt323:qt-mt323.dll
 0002:00000af8       __imp_?setFilter@QSqlCursor@@UAEXABVQString@@@Z 1002baf8     qt-mt323:qt-mt323.dll
 0002:00000afc       __imp_?setSort@QSqlCursor@@UAEXABVQSqlIndex@@@Z 1002bafc     qt-mt323:qt-mt323.dll
 0002:00000b00       __imp_?select@QSqlCursor@@UAE_NABVQString@@ABVQSqlIndex@@@Z 1002bb00     qt-mt323:qt-mt323.dll
 0002:00000b04       __imp_?setTrimmed@QSqlCursor@@UAEXABVQString@@_N@Z 1002bb04     qt-mt323:qt-mt323.dll
 0002:00000b08       __imp_?setCalculated@QSqlCursor@@UAEXABVQString@@_N@Z 1002bb08     qt-mt323:qt-mt323.dll
 0002:00000b0c       __imp_?setMode@QSqlCursor@@UAEXH@Z 1002bb0c     qt-mt323:qt-mt323.dll
 0002:00000b10       __imp_?del@QSqlCursor@@UAEH_N@Z 1002bb10     qt-mt323:qt-mt323.dll
 0002:00000b14       __imp_?del@QSqlCursor@@MAEHABVQString@@_N@Z 1002bb14     qt-mt323:qt-mt323.dll
 0002:00000b18       __imp_?update@QSqlCursor@@UAEH_N@Z 1002bb18     qt-mt323:qt-mt323.dll
 0002:00000b1c       __imp_?update@QSqlCursor@@MAEHABVQString@@_N@Z 1002bb1c     qt-mt323:qt-mt323.dll
 0002:00000b20       __imp_?primeDelete@QSqlCursor@@UAEPAVQSqlRecord@@XZ 1002bb20     qt-mt323:qt-mt323.dll
 0002:00000b24       __imp_?primeUpdate@QSqlCursor@@UAEPAVQSqlRecord@@XZ 1002bb24     qt-mt323:qt-mt323.dll
 0002:00000b28       __imp_?primeInsert@QSqlCursor@@UAEPAVQSqlRecord@@XZ 1002bb28     qt-mt323:qt-mt323.dll
 0002:00000b2c       __imp_?editBuffer@QSqlCursor@@UAEPAVQSqlRecord@@_N@Z 1002bb2c     qt-mt323:qt-mt323.dll
 0002:00000b30       __imp_?insert@QSqlCursor@@UAEXHABVQSqlFieldInfo@@@Z 1002bb30     qt-mt323:qt-mt323.dll
 0002:00000b34       __imp_?insert@QSqlCursor@@UAEH_N@Z 1002bb34     qt-mt323:qt-mt323.dll
 0002:00000b38       __imp_?append@QSqlCursor@@UAEXABVQSqlFieldInfo@@@Z 1002bb38     qt-mt323:qt-mt323.dll
 0002:00000b3c       __imp_?setPrimaryIndex@QSqlCursor@@UAEXABVQSqlIndex@@@Z 1002bb3c     qt-mt323:qt-mt323.dll
 0002:00000b40       __imp_?index@QSqlCursor@@UBE?AVQSqlIndex@@ABVQStringList@@@Z 1002bb40     qt-mt323:qt-mt323.dll
 0002:00000b44       __imp_?primaryIndex@QSqlCursor@@UBE?AVQSqlIndex@@_N@Z 1002bb44     qt-mt323:qt-mt323.dll
 0002:00000b48       __imp_?toStringList@QSqlRecord@@UBE?AVQStringList@@ABVQString@@@Z 1002bb48     qt-mt323:qt-mt323.dll
 0002:00000b4c       __imp_?toString@QSqlCursor@@UBE?AVQString@@ABV2@0@Z 1002bb4c     qt-mt323:qt-mt323.dll
 0002:00000b50       __imp_?clearValues@QSqlRecord@@UAEX_N@Z 1002bb50     qt-mt323:qt-mt323.dll
 0002:00000b54       __imp_?clear@QSqlCursor@@UAEXXZ 1002bb54     qt-mt323:qt-mt323.dll
 0002:00000b58       __imp_?remove@QSqlCursor@@UAEXH@Z 1002bb58     qt-mt323:qt-mt323.dll
 0002:00000b5c       __imp_?insert@QSqlCursor@@EAEXHABVQSqlField@@@Z 1002bb5c     qt-mt323:qt-mt323.dll
 0002:00000b60       __imp_?append@QSqlCursor@@EAEXABVQSqlField@@@Z 1002bb60     qt-mt323:qt-mt323.dll
 0002:00000b64       __imp_?setNull@QSqlRecord@@UAEXH@Z 1002bb64     qt-mt323:qt-mt323.dll
 0002:00000b68       __imp_?setNull@QSqlRecord@@UAEXABVQString@@@Z 1002bb68     qt-mt323:qt-mt323.dll
 0002:00000b6c       __imp_?setGenerated@QSqlCursor@@UAEXABVQString@@_N@Z 1002bb6c     qt-mt323:qt-mt323.dll
 0002:00000b70       __imp_?setGenerated@QSqlCursor@@UAEXH_N@Z 1002bb70     qt-mt323:qt-mt323.dll
 0002:00000b74       __imp_?setValue@QSqlCursor@@UAEXHABVQVariant@@@Z 1002bb74     qt-mt323:qt-mt323.dll
 0002:00000b78       __imp_?setValue@QSqlCursor@@UAEXABVQString@@ABVQVariant@@@Z 1002bb78     qt-mt323:qt-mt323.dll
 0002:00000b7c       __imp_?value@QSqlCursor@@UBE?AVQVariant@@H@Z 1002bb7c     qt-mt323:qt-mt323.dll
 0002:00000b80       __imp_?value@QSqlCursor@@UBE?AVQVariant@@ABVQString@@@Z 1002bb80     qt-mt323:qt-mt323.dll
 0002:00000b84       __imp_?sendPostedEvents@QApplication@@SAXXZ 1002bb84     qt-mt323:qt-mt323.dll
 0002:00000b88       __imp_?refresh@QDataTable@@QAEXW4Refresh@1@@Z 1002bb88     qt-mt323:qt-mt323.dll
 0002:00000b8c       __imp_??0QSqlCursor@@QAE@ABVQString@@_NPAVQSqlDatabase@@@Z 1002bb8c     qt-mt323:qt-mt323.dll
 0002:00000b90       __imp_?defaultConnection@QSqlDatabase@@2QADA 1002bb90     qt-mt323:qt-mt323.dll
 0002:00000b94       __imp_?database@QSqlDatabase@@SAPAV1@ABVQString@@_N@Z 1002bb94     qt-mt323:qt-mt323.dll
 0002:00000b98       __imp_?inherits@QObject@@QBE_NPBD@Z 1002bb98     qt-mt323:qt-mt323.dll
 0002:00000b9c       __imp_??0QGPluginManager@@QAE@ABUQUuid@@ABVQStringList@@ABVQString@@_N@Z 1002bb9c     qt-mt323:qt-mt323.dll
 0002:00000ba0       __imp_??0QUuid@@QAE@IGGEEEEEEEE@Z 1002bba0     qt-mt323:qt-mt323.dll
 0002:00000ba4       __imp_?libraryPaths@QApplication@@SA?AVQStringList@@XZ 1002bba4     qt-mt323:qt-mt323.dll
 0002:00000ba8       __imp_??1QDataStream@@UAE@XZ 1002bba8     qt-mt323:qt-mt323.dll
 0002:00000bac       __imp_??0QDomDocument@@QAE@ABV0@@Z 1002bbac     qt-mt323:qt-mt323.dll
 0002:00000bb0       __imp_?setContent@QDomDocument@@QAE_NPAVQIODevice@@PAVQString@@PAH2@Z 1002bbb0     qt-mt323:qt-mt323.dll
 0002:00000bb4       __imp_?unsetDevice@QDataStream@@QAEXXZ 1002bbb4     qt-mt323:qt-mt323.dll
 0002:00000bb8       __imp_??5QDataStream@@QAEAAV0@AAH@Z 1002bbb8     qt-mt323:qt-mt323.dll
 0002:00000bbc       __imp_??0QDataStream@@QAE@PAVQIODevice@@@Z 1002bbbc     qt-mt323:qt-mt323.dll
 0002:00000bc0       __imp_??0QDomDocument@@QAE@XZ 1002bbc0     qt-mt323:qt-mt323.dll
 0002:00000bc4       __imp_??1QSqlCursor@@UAE@XZ 1002bbc4     qt-mt323:qt-mt323.dll
 0002:00000bc8       __imp_?number@QString@@SA?AV1@HH@Z 1002bbc8     qt-mt323:qt-mt323.dll
 0002:00000bcc       __imp_??1QDomText@@UAE@XZ  1002bbcc     qt-mt323:qt-mt323.dll
 0002:00000bd0       __imp_?duplicate@QGArray@@IAEAAV1@PBDI@Z 1002bbd0     qt-mt323:qt-mt323.dll
 0002:00000bd4       __imp_?toText@QDomNode@@QAE?AVQDomText@@XZ 1002bbd4     qt-mt323:qt-mt323.dll
 0002:00000bd8       __imp_??0QDomElement@@QAE@XZ 1002bbd8     qt-mt323:qt-mt323.dll
 0002:00000bdc       __imp_??4QDomElement@@QAEAAV0@ABV0@@Z 1002bbdc     qt-mt323:qt-mt323.dll
 0002:00000be0       __imp_??0QDomElement@@QAE@ABV0@@Z 1002bbe0     qt-mt323:qt-mt323.dll
 0002:00000be4       __imp_??5QDataStream@@QAEAAV0@AAF@Z 1002bbe4     qt-mt323:qt-mt323.dll
 0002:00000be8       __imp_??5QDataStream@@QAEAAV0@AAC@Z 1002bbe8     qt-mt323:qt-mt323.dll
 0002:00000bec       __imp_?readRawBytes@QDataStream@@QAEAAV1@PADI@Z 1002bbec     qt-mt323:qt-mt323.dll
 0002:00000bf0       __imp_?resize@QGArray@@IAE_NI@Z 1002bbf0     qt-mt323:qt-mt323.dll
 0002:00000bf4       __imp_??5@YAAAVQDataStream@@AAV0@AAVQString@@@Z 1002bbf4     qt-mt323:qt-mt323.dll
 0002:00000bf8       __imp_??0QDataStream@@QAE@V?$QMemArray@D@@H@Z 1002bbf8     qt-mt323:qt-mt323.dll
 0002:00000bfc       __imp_??0?$QMemArray@D@@QAE@ABV0@@Z 1002bbfc     qt-mt323:qt-mt323.dll
 0002:00000c00       __imp_?msg_index@QGArray@@CAXI@Z 1002bc00     qt-mt323:qt-mt323.dll
 0002:00000c04       __imp_??YQString@@QAEAAV0@ABV0@@Z 1002bc04     qt-mt323:qt-mt323.dll
 0002:00000c08       __imp_??5@YAAAVQDataStream@@AAV0@AAVQDate@@@Z 1002bc08     qt-mt323:qt-mt323.dll
 0002:00000c0c       __imp_?asDate@QVariant@@QAEAAVQDate@@XZ 1002bc0c     qt-mt323:qt-mt323.dll
 0002:00000c10       __imp_??5@YAAAVQDataStream@@AAV0@AAVQTime@@@Z 1002bc10     qt-mt323:qt-mt323.dll
 0002:00000c14       __imp_?asTime@QVariant@@QAEAAVQTime@@XZ 1002bc14     qt-mt323:qt-mt323.dll
 0002:00000c18       __imp_??5@YAAAVQDataStream@@AAV0@AAVQDateTime@@@Z 1002bc18     qt-mt323:qt-mt323.dll
 0002:00000c1c       __imp_?asDateTime@QVariant@@QAEAAVQDateTime@@XZ 1002bc1c     qt-mt323:qt-mt323.dll
 0002:00000c20       __imp_??5@YAAAVQDataStream@@AAV0@AAVQVariant@@@Z 1002bc20     qt-mt323:qt-mt323.dll
 0002:00000c24       __imp_??5@YAAAVQDataStream@@AAV0@AAVQCursor@@@Z 1002bc24     qt-mt323:qt-mt323.dll
 0002:00000c28       __imp_?asCursor@QVariant@@QAEAAVQCursor@@XZ 1002bc28     qt-mt323:qt-mt323.dll
 0002:00000c2c       __imp_??0QVariant@@QAE@H@Z 1002bc2c     qt-mt323:qt-mt323.dll
 0002:00000c30       __imp_??1QVariant@@QAE@XZ  1002bc30     qt-mt323:qt-mt323.dll
 0002:00000c34       __imp_??0QVariant@@QAE@_NH@Z 1002bc34     qt-mt323:qt-mt323.dll
 0002:00000c38       __imp_??5QDataStream@@QAEAAV0@AAN@Z 1002bc38     qt-mt323:qt-mt323.dll
 0002:00000c3c       __imp_?asDouble@QVariant@@QAEAANXZ 1002bc3c     qt-mt323:qt-mt323.dll
 0002:00000c40       __imp_?asCString@QVariant@@QAEAAVQCString@@XZ 1002bc40     qt-mt323:qt-mt323.dll
 0002:00000c44       __imp_??1QImage@@QAE@XZ    1002bc44     qt-mt323:qt-mt323.dll
 0002:00000c48       __imp_??4QImage@@QAEAAV0@ABV0@@Z 1002bc48     qt-mt323:qt-mt323.dll
 0002:00000c4c       __imp_?asImage@QVariant@@QAEAAVQImage@@XZ 1002bc4c     qt-mt323:qt-mt323.dll
 0002:00000c50       __imp_??0QImage@@QAE@XZ    1002bc50     qt-mt323:qt-mt323.dll
 0002:00000c54       __imp_??5@YAAAVQDataStream@@AAV0@AAVQColor@@@Z 1002bc54     qt-mt323:qt-mt323.dll
 0002:00000c58       __imp_?asColor@QVariant@@QAEAAVQColor@@XZ 1002bc58     qt-mt323:qt-mt323.dll
 0002:00000c5c       __imp_??0QIconSet@@QAE@ABVQPixmap@@W4Size@0@@Z 1002bc5c     qt-mt323:qt-mt323.dll
 0002:00000c60       __imp_??1QIconSet@@UAE@XZ  1002bc60     qt-mt323:qt-mt323.dll
 0002:00000c64       __imp_??4QIconSet@@QAEAAV0@ABV0@@Z 1002bc64     qt-mt323:qt-mt323.dll
 0002:00000c68       __imp_?asIconSet@QVariant@@QAEAAVQIconSet@@XZ 1002bc68     qt-mt323:qt-mt323.dll
 0002:00000c6c       __imp_??0QIconSet@@QAE@XZ  1002bc6c     qt-mt323:qt-mt323.dll
 0002:00000c70       __imp_??0QVariant@@QAE@ABVQPoint@@@Z 1002bc70     qt-mt323:qt-mt323.dll
 0002:00000c74       __imp_??0QVariant@@QAE@ABVQSize@@@Z 1002bc74     qt-mt323:qt-mt323.dll
 0002:00000c78       __imp_?asString@QVariant@@QAEAAVQString@@XZ 1002bc78     qt-mt323:qt-mt323.dll
 0002:00000c7c       __imp_?append@?$QValueList@VQString@@@@QAE?AV?$QValueListIterator@VQString@@@@ABVQString@@@Z 1002bc7c     qt-mt323:qt-mt323.dll
 0002:00000c80       __imp_?asStringList@QVariant@@QAEAAVQStringList@@XZ 1002bc80     qt-mt323:qt-mt323.dll
 0002:00000c84       __imp_??4QPixmap@@QAEAAV0@ABV0@@Z 1002bc84     qt-mt323:qt-mt323.dll
 0002:00000c88       __imp_?asPixmap@QVariant@@QAEAAVQPixmap@@XZ 1002bc88     qt-mt323:qt-mt323.dll
 0002:00000c8c       __imp_??0QPixmap@@QAE@XZ   1002bc8c     qt-mt323:qt-mt323.dll
 0002:00000c90       __imp_??4QVariant@@QAEAAV0@ABV0@@Z 1002bc90     qt-mt323:qt-mt323.dll
 0002:00000c94       __imp_??0QVariant@@QAE@ABVQRect@@@Z 1002bc94     qt-mt323:qt-mt323.dll
 0002:00000c98       __imp_?addMultiCell@QGridLayout@@QAEXPAVQLayoutItem@@HHHHH@Z 1002bc98     qt-mt323:qt-mt323.dll
 0002:00000c9c       __imp_??0QSpacerItem@@QAE@HHW4SizeType@QSizePolicy@@0@Z 1002bc9c     qt-mt323:qt-mt323.dll
 0002:00000ca0       __imp_?toString@QVariant@@QBE?BVQString@@XZ 1002bca0     qt-mt323:qt-mt323.dll
 0002:00000ca4       __imp_?toSize@QVariant@@QBE?BVQSize@@XZ 1002bca4     qt-mt323:qt-mt323.dll
 0002:00000ca8       __imp_??8QVariant@@QBE_NABV0@@Z 1002bca8     qt-mt323:qt-mt323.dll
 0002:00000cac       __imp_??0QVariant@@QAE@PBD@Z 1002bcac     qt-mt323:qt-mt323.dll
 0002:00000cb0       __imp_??8@YA_NABVQCString@@PBD@Z 1002bcb0     qt-mt323:qt-mt323.dll
 0002:00000cb4       __imp_?qFatal@@YAXPBDZZ    1002bcb4     qt-mt323:qt-mt323.dll
 0002:00000cb8       __imp_?atEnd@QDataStream@@QBE_NXZ 1002bcb8     qt-mt323:qt-mt323.dll
 0002:00000cbc       __imp_??0QVariant@@QAE@XZ  1002bcbc     qt-mt323:qt-mt323.dll
 0002:00000cc0       __imp_?toBool@QVariant@@QBE_NXZ 1002bcc0     qt-mt323:qt-mt323.dll
 0002:00000cc4       __imp_?paint@QListBoxPixmap@@MAEXPAVQPainter@@@Z 1002bcc4     qt-mt323:qt-mt323.dll
 0002:00000cc8       __imp_?rtti@QListBoxPixmap@@UBEHXZ 1002bcc8     qt-mt323:qt-mt323.dll
 0002:00000ccc       __imp_?width@QListBoxPixmap@@UBEHPBVQListBox@@@Z 1002bccc     qt-mt323:qt-mt323.dll
 0002:00000cd0       __imp_?height@QListBoxPixmap@@UBEHPBVQListBox@@@Z 1002bcd0     qt-mt323:qt-mt323.dll
 0002:00000cd4       __imp_?pixmap@QListBoxPixmap@@UBEPBVQPixmap@@XZ 1002bcd4     qt-mt323:qt-mt323.dll
 0002:00000cd8       __imp_?dragLeft@QIconViewItem@@MAEXXZ 1002bcd8     qt-mt323:qt-mt323.dll
 0002:00000cdc       __imp_?dragEntered@QIconViewItem@@MAEXXZ 1002bcdc     qt-mt323:qt-mt323.dll
 0002:00000ce0       __imp_?dropped@QIconViewItem@@MAEXPAVQDropEvent@@ABV?$QValueList@VQIconDragItem@@@@@Z 1002bce0     qt-mt323:qt-mt323.dll
 0002:00000ce4       __imp_?paintFocus@QIconViewItem@@MAEXPAVQPainter@@ABVQColorGroup@@@Z 1002bce4     qt-mt323:qt-mt323.dll
 0002:00000ce8       __imp_?paintItem@QIconViewItem@@MAEXPAVQPainter@@ABVQColorGroup@@@Z 1002bce8     qt-mt323:qt-mt323.dll
 0002:00000cec       __imp_?calcRect@QIconViewItem@@MAEXABVQString@@@Z 1002bcec     qt-mt323:qt-mt323.dll
 0002:00000cf0       __imp_?removeRenameBox@QIconViewItem@@MAEXXZ 1002bcf0     qt-mt323:qt-mt323.dll
 0002:00000cf4       __imp_?rtti@QIconViewItem@@UBEHXZ 1002bcf4     qt-mt323:qt-mt323.dll
 0002:00000cf8       __imp_?setKey@QIconViewItem@@UAEXABVQString@@@Z 1002bcf8     qt-mt323:qt-mt323.dll
 0002:00000cfc       __imp_?setPicture@QIconViewItem@@UAEXABVQPicture@@@Z 1002bcfc     qt-mt323:qt-mt323.dll
 0002:00000d00       __imp_?setPixmap@QIconViewItem@@UAEXABVQPixmap@@@Z 1002bd00     qt-mt323:qt-mt323.dll
 0002:00000d04       __imp_?setPixmap@QIconViewItem@@UAEXABVQPixmap@@_N1@Z 1002bd04     qt-mt323:qt-mt323.dll
 0002:00000d08       __imp_?setText@QIconViewItem@@UAEXABVQString@@@Z 1002bd08     qt-mt323:qt-mt323.dll
 0002:00000d0c       __imp_?setText@QIconViewItem@@UAEXABVQString@@_N1@Z 1002bd0c     qt-mt323:qt-mt323.dll
 0002:00000d10       __imp_?compare@QIconViewItem@@UBEHPAV1@@Z 1002bd10     qt-mt323:qt-mt323.dll
 0002:00000d14       __imp_?acceptDrop@QIconViewItem@@UBE_NPBVQMimeSource@@@Z 1002bd14     qt-mt323:qt-mt323.dll
 0002:00000d18       __imp_?moveBy@QIconViewItem@@UAEXHH@Z 1002bd18     qt-mt323:qt-mt323.dll
 0002:00000d1c       __imp_?moveBy@QIconViewItem@@UAEXABVQPoint@@@Z 1002bd1c     qt-mt323:qt-mt323.dll
 0002:00000d20       __imp_?move@QIconViewItem@@UAE_NHH@Z 1002bd20     qt-mt323:qt-mt323.dll
 0002:00000d24       __imp_?move@QIconViewItem@@UAE_NABVQPoint@@@Z 1002bd24     qt-mt323:qt-mt323.dll
 0002:00000d28       __imp_?repaint@QIconViewItem@@UAEXXZ 1002bd28     qt-mt323:qt-mt323.dll
 0002:00000d2c       __imp_?setSelectable@QIconViewItem@@UAEX_N@Z 1002bd2c     qt-mt323:qt-mt323.dll
 0002:00000d30       __imp_?setSelected@QIconViewItem@@UAEX_N0@Z 1002bd30     qt-mt323:qt-mt323.dll
 0002:00000d34       __imp_?setSelected@QIconViewItem@@UAEX_N@Z 1002bd34     qt-mt323:qt-mt323.dll
 0002:00000d38       __imp_?key@QIconViewItem@@UBE?AVQString@@XZ 1002bd38     qt-mt323:qt-mt323.dll
 0002:00000d3c       __imp_?picture@QIconViewItem@@UBEPAVQPicture@@XZ 1002bd3c     qt-mt323:qt-mt323.dll
 0002:00000d40       __imp_?pixmap@QIconViewItem@@UBEPAVQPixmap@@XZ 1002bd40     qt-mt323:qt-mt323.dll
 0002:00000d44       __imp_?text@QIconViewItem@@UBE?AVQString@@XZ 1002bd44     qt-mt323:qt-mt323.dll
 0002:00000d48       __imp_?setDropEnabled@QIconViewItem@@UAEX_N@Z 1002bd48     qt-mt323:qt-mt323.dll
 0002:00000d4c       __imp_?setDragEnabled@QIconViewItem@@UAEX_N@Z 1002bd4c     qt-mt323:qt-mt323.dll
 0002:00000d50       __imp_?setRenameEnabled@QIconViewItem@@UAEX_N@Z 1002bd50     qt-mt323:qt-mt323.dll
 0002:00000d54       __imp_?setText@QListBoxItem@@MAEXABVQString@@@Z 1002bd54     qt-mt323:qt-mt323.dll
 0002:00000d58       __imp_?paint@QListBoxText@@MAEXPAVQPainter@@@Z 1002bd58     qt-mt323:qt-mt323.dll
 0002:00000d5c       __imp_?rtti@QListBoxText@@UBEHXZ 1002bd5c     qt-mt323:qt-mt323.dll
 0002:00000d60       __imp_?width@QListBoxText@@UBEHPBVQListBox@@@Z 1002bd60     qt-mt323:qt-mt323.dll
 0002:00000d64       __imp_?height@QListBoxText@@UBEHPBVQListBox@@@Z 1002bd64     qt-mt323:qt-mt323.dll
 0002:00000d68       __imp_?pixmap@QListBoxItem@@UBEPBVQPixmap@@XZ 1002bd68     qt-mt323:qt-mt323.dll
 0002:00000d6c       __imp_?text@QListBoxItem@@UBE?AVQString@@XZ 1002bd6c     qt-mt323:qt-mt323.dll
 0002:00000d70       __imp_??0QListBoxPixmap@@QAE@PAVQListBox@@ABVQPixmap@@ABVQString@@@Z 1002bd70     qt-mt323:qt-mt323.dll
 0002:00000d74       __imp_??0QListBoxText@@QAE@PAVQListBox@@ABVQString@@@Z 1002bd74     qt-mt323:qt-mt323.dll
 0002:00000d78       __imp_?listBox@QComboBox@@QBEPAVQListBox@@XZ 1002bd78     qt-mt323:qt-mt323.dll
 0002:00000d7c       __imp_??0QIconViewItem@@QAE@PAVQIconView@@ABVQString@@ABVQPixmap@@@Z 1002bd7c     qt-mt323:qt-mt323.dll
 0002:00000d80       __imp_??0QPixmap@@QAE@ABV0@@Z 1002bd80     qt-mt323:qt-mt323.dll
 0002:00000d84       __imp_??1QListBoxText@@UAE@XZ 1002bd84     qt-mt323:qt-mt323.dll
 0002:00000d88       __imp_??1QListBoxPixmap@@UAE@XZ 1002bd88     qt-mt323:qt-mt323.dll
 0002:00000d8c       __imp_??1QIconViewItem@@UAE@XZ 1002bd8c     qt-mt323:qt-mt323.dll
 0002:00000d90       __imp_?menuDelPopup@QPopupMenu@@EAEXPAV1@@Z 1002bd90     qt-mt323:qt-mt323.dll
 0002:00000d94       __imp_?menuInsPopup@QPopupMenu@@EAEXPAV1@@Z 1002bd94     qt-mt323:qt-mt323.dll
 0002:00000d98       __imp_?menuStateChanged@QPopupMenu@@EAEXXZ 1002bd98     qt-mt323:qt-mt323.dll
 0002:00000d9c       __imp_?menuContentsChanged@QPopupMenu@@EAEXXZ 1002bd9c     qt-mt323:qt-mt323.dll
 0002:00000da0       __imp_?activateItemAt@QPopupMenu@@UAEXH@Z 1002bda0     qt-mt323:qt-mt323.dll
 0002:00000da4       __imp_?setId@QMenuData@@UAEXHH@Z 1002bda4     qt-mt323:qt-mt323.dll
 0002:00000da8       __imp_?updateItem@QPopupMenu@@UAEXH@Z 1002bda8     qt-mt323:qt-mt323.dll
 0002:00000dac       __imp_?setFirstItemActive@QPopupMenu@@EAEXXZ 1002bdac     qt-mt323:qt-mt323.dll
 0002:00000db0       __imp_?setActiveItem@QPopupMenu@@UAEXH@Z 1002bdb0     qt-mt323:qt-mt323.dll
 0002:00000db4       __imp_?setCheckable@QPopupMenu@@UAEX_N@Z 1002bdb4     qt-mt323:qt-mt323.dll
 0002:00000db8       __imp_?frameChanged@QPopupMenu@@EAEXXZ 1002bdb8     qt-mt323:qt-mt323.dll
 0002:00000dbc       __imp_?drawContents@QPopupMenu@@MAEXPAVQPainter@@@Z 1002bdbc     qt-mt323:qt-mt323.dll
 0002:00000dc0       __imp_?focusNextPrevChild@QPopupMenu@@MAE_N_N@Z 1002bdc0     qt-mt323:qt-mt323.dll
 0002:00000dc4       __imp_?enabledChange@QPopupMenu@@MAEX_N@Z 1002bdc4     qt-mt323:qt-mt323.dll
 0002:00000dc8       __imp_?styleChange@QPopupMenu@@MAEXAAVQStyle@@@Z 1002bdc8     qt-mt323:qt-mt323.dll
 0002:00000dcc       __imp_?closeEvent@QPopupMenu@@MAEXPAVQCloseEvent@@@Z 1002bdcc     qt-mt323:qt-mt323.dll
 0002:00000dd0       __imp_?resizeEvent@QFrame@@MAEXPAVQResizeEvent@@@Z 1002bdd0     qt-mt323:qt-mt323.dll
 0002:00000dd4       __imp_?paintEvent@QPopupMenu@@MAEXPAVQPaintEvent@@@Z 1002bdd4     qt-mt323:qt-mt323.dll
 0002:00000dd8       __imp_?leaveEvent@QPopupMenu@@MAEXPAVQEvent@@@Z 1002bdd8     qt-mt323:qt-mt323.dll
 0002:00000ddc       __imp_?focusOutEvent@QPopupMenu@@MAEXPAVQFocusEvent@@@Z 1002bddc     qt-mt323:qt-mt323.dll
 0002:00000de0       __imp_?focusInEvent@QPopupMenu@@MAEXPAVQFocusEvent@@@Z 1002bde0     qt-mt323:qt-mt323.dll
 0002:00000de4       __imp_?keyPressEvent@QPopupMenu@@MAEXPAVQKeyEvent@@@Z 1002bde4     qt-mt323:qt-mt323.dll
 0002:00000de8       __imp_?mouseMoveEvent@QPopupMenu@@MAEXPAVQMouseEvent@@@Z 1002bde8     qt-mt323:qt-mt323.dll
 0002:00000dec       __imp_?mouseReleaseEvent@QPopupMenu@@MAEXPAVQMouseEvent@@@Z 1002bdec     qt-mt323:qt-mt323.dll
 0002:00000df0       __imp_?mousePressEvent@QPopupMenu@@MAEXPAVQMouseEvent@@@Z 1002bdf0     qt-mt323:qt-mt323.dll
 0002:00000df4       __imp_?customWhatsThis@QPopupMenu@@UBE_NXZ 1002bdf4     qt-mt323:qt-mt323.dll
 0002:00000df8       __imp_?sizeHint@QPopupMenu@@UBE?AVQSize@@XZ 1002bdf8     qt-mt323:qt-mt323.dll
 0002:00000dfc       __imp_?hide@QPopupMenu@@UAEXXZ 1002bdfc     qt-mt323:qt-mt323.dll
 0002:00000e00       __imp_?show@QPopupMenu@@UAEXXZ 1002be00     qt-mt323:qt-mt323.dll
 0002:00000e04       __imp_?setFont@QPopupMenu@@UAEXABVQFont@@@Z 1002be04     qt-mt323:qt-mt323.dll
 0002:00000e08       __imp_?timerEvent@QPopupMenu@@MAEXPAVQTimerEvent@@@Z 1002be08     qt-mt323:qt-mt323.dll
 0002:00000e0c       __imp_?qt_property@QPopupMenu@@UAE_NHHPAVQVariant@@@Z 1002be0c     qt-mt323:qt-mt323.dll
 0002:00000e10       __imp_?qt_emit@QPopupMenu@@UAE_NHPAUQUObject@@@Z 1002be10     qt-mt323:qt-mt323.dll
 0002:00000e14       __imp_?qt_invoke@QPopupMenu@@UAE_NHPAUQUObject@@@Z 1002be14     qt-mt323:qt-mt323.dll
 0002:00000e18       __imp_?qt_cast@QPopupMenu@@UAEPAXPBD@Z 1002be18     qt-mt323:qt-mt323.dll
 0002:00000e1c       __imp_?className@QPopupMenu@@UBEPBDXZ 1002be1c     qt-mt323:qt-mt323.dll
 0002:00000e20       __imp_?metaObject@QPopupMenu@@UBEPAVQMetaObject@@XZ 1002be20     qt-mt323:qt-mt323.dll
 0002:00000e24       __imp_?insertItem@QMenuData@@QAEHABVQString@@PAVQPopupMenu@@HH@Z 1002be24     qt-mt323:qt-mt323.dll
 0002:00000e28       __imp_?insertSeparator@QMenuData@@QAEHH@Z 1002be28     qt-mt323:qt-mt323.dll
 0002:00000e2c       __imp_?parentWidget@QWidget@@QBEPAV1@_N@Z 1002be2c     qt-mt323:qt-mt323.dll
 0002:00000e30       __imp_?clear@QToolBar@@UAEXXZ 1002be30     qt-mt323:qt-mt323.dll
 0002:00000e34       __imp_?setLabel@QToolBar@@UAEXABVQString@@@Z 1002be34     qt-mt323:qt-mt323.dll
 0002:00000e38       __imp_?setStretchableWidget@QToolBar@@UAEXPAVQWidget@@@Z 1002be38     qt-mt323:qt-mt323.dll
 0002:00000e3c       __imp_?setOrientation@QToolBar@@UAEXW4Orientation@Qt@@@Z 1002be3c     qt-mt323:qt-mt323.dll
 0002:00000e40       __imp_?dock@QDockWindow@@UAEXXZ 1002be40     qt-mt323:qt-mt323.dll
 0002:00000e44       __imp_?undock@QDockWindow@@UAEXPAVQWidget@@@Z 1002be44     qt-mt323:qt-mt323.dll
 0002:00000e48       __imp_?undock@QDockWindow@@UAEXXZ 1002be48     qt-mt323:qt-mt323.dll
 0002:00000e4c       __imp_?setOpaqueMoving@QDockWindow@@UAEX_N@Z 1002be4c     qt-mt323:qt-mt323.dll
 0002:00000e50       __imp_?setNewLine@QDockWindow@@UAEX_N@Z 1002be50     qt-mt323:qt-mt323.dll
 0002:00000e54       __imp_?setFixedExtentHeight@QDockWindow@@UAEXH@Z 1002be54     qt-mt323:qt-mt323.dll
 0002:00000e58       __imp_?setFixedExtentWidth@QDockWindow@@UAEXH@Z 1002be58     qt-mt323:qt-mt323.dll
 0002:00000e5c       __imp_?setOffset@QDockWindow@@UAEXH@Z 1002be5c     qt-mt323:qt-mt323.dll
 0002:00000e60       __imp_?setVerticallyStretchable@QDockWindow@@UAEX_N@Z 1002be60     qt-mt323:qt-mt323.dll
 0002:00000e64       __imp_?setHorizontallyStretchable@QDockWindow@@UAEX_N@Z 1002be64     qt-mt323:qt-mt323.dll
 0002:00000e68       __imp_?setMovingEnabled@QDockWindow@@UAEX_N@Z 1002be68     qt-mt323:qt-mt323.dll
 0002:00000e6c       __imp_?setResizeEnabled@QDockWindow@@UAEX_N@Z 1002be6c     qt-mt323:qt-mt323.dll
 0002:00000e70       __imp_?setCloseMode@QDockWindow@@UAEXH@Z 1002be70     qt-mt323:qt-mt323.dll
 0002:00000e74       __imp_?setWidget@QDockWindow@@UAEXPAVQWidget@@@Z 1002be74     qt-mt323:qt-mt323.dll
 0002:00000e78       __imp_?frameChanged@QFrame@@MAEXXZ 1002be78     qt-mt323:qt-mt323.dll
 0002:00000e7c       __imp_?drawContents@QDockWindow@@MAEXPAVQPainter@@@Z 1002be7c     qt-mt323:qt-mt323.dll
 0002:00000e80       __imp_?drawFrame@QDockWindow@@MAEXPAVQPainter@@@Z 1002be80     qt-mt323:qt-mt323.dll
 0002:00000e84       __imp_?styleChange@QToolBar@@MAEXAAVQStyle@@@Z 1002be84     qt-mt323:qt-mt323.dll
 0002:00000e88       __imp_?hideEvent@QDockWindow@@MAEXPAVQHideEvent@@@Z 1002be88     qt-mt323:qt-mt323.dll
 0002:00000e8c       __imp_?showEvent@QDockWindow@@MAEXPAVQShowEvent@@@Z 1002be8c     qt-mt323:qt-mt323.dll
 0002:00000e90       __imp_?contextMenuEvent@QDockWindow@@MAEXPAVQContextMenuEvent@@@Z 1002be90     qt-mt323:qt-mt323.dll
 0002:00000e94       __imp_?resizeEvent@QToolBar@@MAEXPAVQResizeEvent@@@Z 1002be94     qt-mt323:qt-mt323.dll
 0002:00000e98       __imp_?minimumSizeHint@QToolBar@@UBE?AVQSize@@XZ 1002be98     qt-mt323:qt-mt323.dll
 0002:00000e9c       __imp_?sizeHint@QDockWindow@@UBE?AVQSize@@XZ 1002be9c     qt-mt323:qt-mt323.dll
 0002:00000ea0       __imp_?hide@QToolBar@@UAEXXZ 1002bea0     qt-mt323:qt-mt323.dll
 0002:00000ea4       __imp_?show@QToolBar@@UAEXXZ 1002bea4     qt-mt323:qt-mt323.dll
 0002:00000ea8       __imp_?setCaption@QDockWindow@@UAEXABVQString@@@Z 1002bea8     qt-mt323:qt-mt323.dll
 0002:00000eac       __imp_?setMinimumSize@QToolBar@@UAEXHH@Z 1002beac     qt-mt323:qt-mt323.dll
 0002:00000eb0       __imp_?eventFilter@QDockWindow@@UAE_NPAVQObject@@PAVQEvent@@@Z 1002beb0     qt-mt323:qt-mt323.dll
 0002:00000eb4       __imp_?event@QToolBar@@UAE_NPAVQEvent@@@Z 1002beb4     qt-mt323:qt-mt323.dll
 0002:00000eb8       __imp_?qt_property@QToolBar@@UAE_NHHPAVQVariant@@@Z 1002beb8     qt-mt323:qt-mt323.dll
 0002:00000ebc       __imp_?qt_emit@QToolBar@@UAE_NHPAUQUObject@@@Z 1002bebc     qt-mt323:qt-mt323.dll
 0002:00000ec0       __imp_?qt_invoke@QToolBar@@UAE_NHPAUQUObject@@@Z 1002bec0     qt-mt323:qt-mt323.dll
 0002:00000ec4       __imp_?qt_cast@QToolBar@@UAEPAXPBD@Z 1002bec4     qt-mt323:qt-mt323.dll
 0002:00000ec8       __imp_?className@QToolBar@@UBEPBDXZ 1002bec8     qt-mt323:qt-mt323.dll
 0002:00000ecc       __imp_?metaObject@QToolBar@@UBEPAVQMetaObject@@XZ 1002becc     qt-mt323:qt-mt323.dll
 0002:00000ed0       __imp_?addedTo@QActionGroup@@MAEXPAVQWidget@@0PAVQAction@@@Z 1002bed0     qt-mt323:qt-mt323.dll
 0002:00000ed4       __imp_?addedTo@QActionGroup@@MAEXHPAVQPopupMenu@@PAVQAction@@@Z 1002bed4     qt-mt323:qt-mt323.dll
 0002:00000ed8       __imp_?setEnabled@QActionGroup@@UAEX_N@Z 1002bed8     qt-mt323:qt-mt323.dll
 0002:00000edc       __imp_?setOn@QActionGroup@@UAEX_N@Z 1002bedc     qt-mt323:qt-mt323.dll
 0002:00000ee0       __imp_?addedTo@QActionGroup@@MAEXPAVQWidget@@0@Z 1002bee0     qt-mt323:qt-mt323.dll
 0002:00000ee4       __imp_?addedTo@QActionGroup@@MAEXHPAVQPopupMenu@@@Z 1002bee4     qt-mt323:qt-mt323.dll
 0002:00000ee8       __imp_?removeFrom@QActionGroup@@UAE_NPAVQWidget@@@Z 1002bee8     qt-mt323:qt-mt323.dll
 0002:00000eec       __imp_?addTo@QActionGroup@@UAE_NPAVQWidget@@@Z 1002beec     qt-mt323:qt-mt323.dll
 0002:00000ef0       __imp_?setToggleAction@QActionGroup@@UAEX_N@Z 1002bef0     qt-mt323:qt-mt323.dll
 0002:00000ef4       __imp_?setWhatsThis@QActionGroup@@UAEXABVQString@@@Z 1002bef4     qt-mt323:qt-mt323.dll
 0002:00000ef8       __imp_?setToolTip@QActionGroup@@UAEXABVQString@@@Z 1002bef8     qt-mt323:qt-mt323.dll
 0002:00000efc       __imp_?setMenuText@QActionGroup@@UAEXABVQString@@@Z 1002befc     qt-mt323:qt-mt323.dll
 0002:00000f00       __imp_?setText@QActionGroup@@UAEXABVQString@@@Z 1002bf00     qt-mt323:qt-mt323.dll
 0002:00000f04       __imp_?setIconSet@QActionGroup@@UAEXABVQIconSet@@@Z 1002bf04     qt-mt323:qt-mt323.dll
 0002:00000f08       __imp_?childEvent@QActionGroup@@MAEXPAVQChildEvent@@@Z 1002bf08     qt-mt323:qt-mt323.dll
 0002:00000f0c       __imp_?qt_property@QActionGroup@@UAE_NHHPAVQVariant@@@Z 1002bf0c     qt-mt323:qt-mt323.dll
 0002:00000f10       __imp_?qt_emit@QActionGroup@@UAE_NHPAUQUObject@@@Z 1002bf10     qt-mt323:qt-mt323.dll
 0002:00000f14       __imp_?qt_invoke@QActionGroup@@UAE_NHPAUQUObject@@@Z 1002bf14     qt-mt323:qt-mt323.dll
 0002:00000f18       __imp_?qt_cast@QActionGroup@@UAEPAXPBD@Z 1002bf18     qt-mt323:qt-mt323.dll
 0002:00000f1c       __imp_?className@QActionGroup@@UBEPBDXZ 1002bf1c     qt-mt323:qt-mt323.dll
 0002:00000f20       __imp_?metaObject@QActionGroup@@UBEPAVQMetaObject@@XZ 1002bf20     qt-mt323:qt-mt323.dll
 0002:00000f24       __imp_?setEnabled@QAction@@UAEX_N@Z 1002bf24     qt-mt323:qt-mt323.dll
 0002:00000f28       __imp_?setOn@QAction@@UAEX_N@Z 1002bf28     qt-mt323:qt-mt323.dll
 0002:00000f2c       __imp_?addedTo@QAction@@MAEXPAVQWidget@@0@Z 1002bf2c     qt-mt323:qt-mt323.dll
 0002:00000f30       __imp_?addedTo@QAction@@MAEXHPAVQPopupMenu@@@Z 1002bf30     qt-mt323:qt-mt323.dll
 0002:00000f34       __imp_?removeFrom@QAction@@UAE_NPAVQWidget@@@Z 1002bf34     qt-mt323:qt-mt323.dll
 0002:00000f38       __imp_?addTo@QAction@@UAE_NPAVQWidget@@@Z 1002bf38     qt-mt323:qt-mt323.dll
 0002:00000f3c       __imp_?setToggleAction@QAction@@UAEX_N@Z 1002bf3c     qt-mt323:qt-mt323.dll
 0002:00000f40       __imp_?setAccel@QAction@@UAEXABVQKeySequence@@@Z 1002bf40     qt-mt323:qt-mt323.dll
 0002:00000f44       __imp_?setWhatsThis@QAction@@UAEXABVQString@@@Z 1002bf44     qt-mt323:qt-mt323.dll
 0002:00000f48       __imp_?setStatusTip@QAction@@UAEXABVQString@@@Z 1002bf48     qt-mt323:qt-mt323.dll
 0002:00000f4c       __imp_?setToolTip@QAction@@UAEXABVQString@@@Z 1002bf4c     qt-mt323:qt-mt323.dll
 0002:00000f50       __imp_?setMenuText@QAction@@UAEXABVQString@@@Z 1002bf50     qt-mt323:qt-mt323.dll
 0002:00000f54       __imp_?setText@QAction@@UAEXABVQString@@@Z 1002bf54     qt-mt323:qt-mt323.dll
 0002:00000f58       __imp_?setIconSet@QAction@@UAEXABVQIconSet@@@Z 1002bf58     qt-mt323:qt-mt323.dll
 0002:00000f5c       __imp_?qt_property@QAction@@UAE_NHHPAVQVariant@@@Z 1002bf5c     qt-mt323:qt-mt323.dll
 0002:00000f60       __imp_?qt_emit@QAction@@UAE_NHPAUQUObject@@@Z 1002bf60     qt-mt323:qt-mt323.dll
 0002:00000f64       __imp_?qt_invoke@QAction@@UAE_NHPAUQUObject@@@Z 1002bf64     qt-mt323:qt-mt323.dll
 0002:00000f68       __imp_?qt_cast@QAction@@UAEPAXPBD@Z 1002bf68     qt-mt323:qt-mt323.dll
 0002:00000f6c       __imp_?className@QAction@@UBEPBDXZ 1002bf6c     qt-mt323:qt-mt323.dll
 0002:00000f70       __imp_?metaObject@QAction@@UBEPAVQMetaObject@@XZ 1002bf70     qt-mt323:qt-mt323.dll
 0002:00000f74       __imp_?addMultiCellLayout@QGridLayout@@QAEXPAVQLayout@@HHHHH@Z 1002bf74     qt-mt323:qt-mt323.dll
 0002:00000f78       __imp_?addMultiCellWidget@QGridLayout@@QAEXPAVQWidget@@HHHHH@Z 1002bf78     qt-mt323:qt-mt323.dll
 0002:00000f7c       __imp_??0QVariant@@QAE@ABV0@@Z 1002bf7c     qt-mt323:qt-mt323.dll
 0002:00000f80       __imp_?addWidget@QWidgetStack@@QAEHPAVQWidget@@H@Z 1002bf80     qt-mt323:qt-mt323.dll
 0002:00000f84       __imp_?toInt@QVariant@@QBEHPA_N@Z 1002bf84     qt-mt323:qt-mt323.dll
 0002:00000f88       __imp_??0QVariant@@QAE@ABVQString@@@Z 1002bf88     qt-mt323:qt-mt323.dll
 0002:00000f8c       __imp_?addSeparator@QToolBar@@QAEXXZ 1002bf8c     qt-mt323:qt-mt323.dll
 0002:00000f90       __imp_??0QVariant@@QAE@ABVQPalette@@@Z 1002bf90     qt-mt323:qt-mt323.dll
 0002:00000f94       __imp_?setActive@QPalette@@QAEXABVQColorGroup@@@Z 1002bf94     qt-mt323:qt-mt323.dll
 0002:00000f98       __imp_?setColor@QColorGroup@@QAEXW4ColorRole@1@ABVQColor@@@Z 1002bf98     qt-mt323:qt-mt323.dll
 0002:00000f9c       __imp_?setDisabled@QPalette@@QAEXABVQColorGroup@@@Z 1002bf9c     qt-mt323:qt-mt323.dll
 0002:00000fa0       __imp_?setInactive@QPalette@@QAEXABVQColorGroup@@@Z 1002bfa0     qt-mt323:qt-mt323.dll
 0002:00000fa4       __imp_??1QBrush@@QAE@XZ    1002bfa4     qt-mt323:qt-mt323.dll
 0002:00000fa8       __imp_?setBrush@QColorGroup@@QAEXW4ColorRole@1@ABVQBrush@@@Z 1002bfa8     qt-mt323:qt-mt323.dll
 0002:00000fac       __imp_??0QBrush@@QAE@ABVQColor@@ABVQPixmap@@@Z 1002bfac     qt-mt323:qt-mt323.dll
 0002:00000fb0       __imp_??0QColorGroup@@QAE@XZ 1002bfb0     qt-mt323:qt-mt323.dll
 0002:00000fb4       __imp_??0QPalette@@QAE@XZ  1002bfb4     qt-mt323:qt-mt323.dll
 0002:00000fb8       __imp_??0QVariant@@QAE@ABVQFont@@@Z 1002bfb8     qt-mt323:qt-mt323.dll
 0002:00000fbc       __imp_?setStrikeOut@QFont@@QAEX_N@Z 1002bfbc     qt-mt323:qt-mt323.dll
 0002:00000fc0       __imp_?setUnderline@QFont@@QAEX_N@Z 1002bfc0     qt-mt323:qt-mt323.dll
 0002:00000fc4       __imp_?setItalic@QFont@@QAEX_N@Z 1002bfc4     qt-mt323:qt-mt323.dll
 0002:00000fc8       __imp_?setWeight@QFont@@QAEXH@Z 1002bfc8     qt-mt323:qt-mt323.dll
 0002:00000fcc       __imp_??0QFont@@QAE@XZ     1002bfcc     qt-mt323:qt-mt323.dll
 0002:00000fd0       __imp_??0QCString@@QAE@PBD@Z 1002bfd0     qt-mt323:qt-mt323.dll
 0002:00000fd4       __imp_??0QString@@QAE@ABV?$QMemArray@D@@@Z 1002bfd4     qt-mt323:qt-mt323.dll
 0002:00000fd8       __imp_??0QToolBar@@QAE@ABVQString@@PAVQMainWindow@@W4Dock@Qt@@_NPBD@Z 1002bfd8     qt-mt323:qt-mt323.dll
 0002:00000fdc       __imp_?menuBar@QMainWindow@@QBEPAVQMenuBar@@XZ 1002bfdc     qt-mt323:qt-mt323.dll
 0002:00000fe0       __imp_??0QAction@@QAE@PAVQObject@@PBD@Z 1002bfe0     qt-mt323:qt-mt323.dll
 0002:00000fe4       __imp_??0QActionGroup@@QAE@PAVQObject@@PBD@Z 1002bfe4     qt-mt323:qt-mt323.dll
 0002:00000fe8       __imp_?centralWidget@QMainWindow@@QBEPAVQWidget@@XZ 1002bfe8     qt-mt323:qt-mt323.dll
 0002:00000fec       __imp_?isEmpty@QCString@@QBE_NXZ 1002bfec     qt-mt323:qt-mt323.dll
 0002:00000ff0       __imp_??1QActionGroup@@UAE@XZ 1002bff0     qt-mt323:qt-mt323.dll
 0002:00000ff4       __imp_??1QAction@@UAE@XZ   1002bff4     qt-mt323:qt-mt323.dll
 0002:00000ff8       __imp_??1QToolBar@@UAE@XZ  1002bff8     qt-mt323:qt-mt323.dll
 0002:00000ffc       __imp_?setTabOrder@QWidget@@SAXPAV1@0@Z 1002bffc     qt-mt323:qt-mt323.dll
 0002:00001000       __imp_??1QGArray@@MAE@XZ   1002c000     qt-mt323:qt-mt323.dll
 0002:00001004       __imp_??0QGArray@@IAE@ABV0@@Z 1002c004     qt-mt323:qt-mt323.dll
 0002:00001008       __imp_?resize@QCString@@QAE_NI@Z 1002c008     qt-mt323:qt-mt323.dll
 0002:0000100c       __imp_??0QImage@@QAE@ABV0@@Z 1002c00c     qt-mt323:qt-mt323.dll
 0002:00001010       __imp_?loadFromData@QImage@@QAE_NPBEIPBD@Z 1002c010     qt-mt323:qt-mt323.dll
 0002:00001014       __imp_?qUncompress@@YA?AV?$QMemArray@D@@PBEH@Z 1002c014     qt-mt323:qt-mt323.dll
 0002:00001018       __imp_??0QGArray@@IAE@H@Z  1002c018     qt-mt323:qt-mt323.dll
 0002:0000101c       __imp_?setEditText@QComboBox@@UAEXABVQString@@@Z 1002c01c     qt-mt323:qt-mt323.dll
 0002:00001020       __imp_?popup@QComboBox@@UAEXXZ 1002c020     qt-mt323:qt-mt323.dll
 0002:00001024       __imp_?setAutoCompletion@QComboBox@@UAEX_N@Z 1002c024     qt-mt323:qt-mt323.dll
 0002:00001028       __imp_?setLineEdit@QComboBox@@UAEXPAVQLineEdit@@@Z 1002c028     qt-mt323:qt-mt323.dll
 0002:0000102c       __imp_?setListBox@QComboBox@@UAEXPAVQListBox@@@Z 1002c02c     qt-mt323:qt-mt323.dll
 0002:00001030       __imp_?setValidator@QComboBox@@UAEXPBVQValidator@@@Z 1002c030     qt-mt323:qt-mt323.dll
 0002:00001034       __imp_?setInsertionPolicy@QComboBox@@UAEXW4Policy@1@@Z 1002c034     qt-mt323:qt-mt323.dll
 0002:00001038       __imp_?setMaxCount@QComboBox@@UAEXH@Z 1002c038     qt-mt323:qt-mt323.dll
 0002:0000103c       __imp_?setSizeLimit@QComboBox@@UAEXH@Z 1002c03c     qt-mt323:qt-mt323.dll
 0002:00001040       __imp_?setAutoResize@QComboBox@@UAEX_N@Z 1002c040     qt-mt323:qt-mt323.dll
 0002:00001044       __imp_?setCurrentText@QComboBox@@UAEXABVQString@@@Z 1002c044     qt-mt323:qt-mt323.dll
 0002:00001048       __imp_?setCurrentItem@QComboBox@@UAEXH@Z 1002c048     qt-mt323:qt-mt323.dll
 0002:0000104c       __imp_?styleChange@QComboBox@@MAEXAAVQStyle@@@Z 1002c04c     qt-mt323:qt-mt323.dll
 0002:00001050       __imp_?updateMask@QComboBox@@MAEXXZ 1002c050     qt-mt323:qt-mt323.dll
 0002:00001054       __imp_?resizeEvent@QComboBox@@MAEXPAVQResizeEvent@@@Z 1002c054     qt-mt323:qt-mt323.dll
 0002:00001058       __imp_?paintEvent@QComboBox@@MAEXPAVQPaintEvent@@@Z 1002c058     qt-mt323:qt-mt323.dll
 0002:0000105c       __imp_?focusOutEvent@QComboBox@@MAEXPAVQFocusEvent@@@Z 1002c05c     qt-mt323:qt-mt323.dll
 0002:00001060       __imp_?focusInEvent@QComboBox@@MAEXPAVQFocusEvent@@@Z 1002c060     qt-mt323:qt-mt323.dll
 0002:00001064       __imp_?keyPressEvent@QComboBox@@MAEXPAVQKeyEvent@@@Z 1002c064     qt-mt323:qt-mt323.dll
 0002:00001068       __imp_?wheelEvent@QComboBox@@MAEXPAVQWheelEvent@@@Z 1002c068     qt-mt323:qt-mt323.dll
 0002:0000106c       __imp_?mouseMoveEvent@QComboBox@@MAEXPAVQMouseEvent@@@Z 1002c06c     qt-mt323:qt-mt323.dll
 0002:00001070       __imp_?mouseDoubleClickEvent@QComboBox@@MAEXPAVQMouseEvent@@@Z 1002c070     qt-mt323:qt-mt323.dll
 0002:00001074       __imp_?mouseReleaseEvent@QComboBox@@MAEXPAVQMouseEvent@@@Z 1002c074     qt-mt323:qt-mt323.dll
 0002:00001078       __imp_?mousePressEvent@QComboBox@@MAEXPAVQMouseEvent@@@Z 1002c078     qt-mt323:qt-mt323.dll
 0002:0000107c       __imp_?sizeHint@QComboBox@@UBE?AVQSize@@XZ 1002c07c     qt-mt323:qt-mt323.dll
 0002:00001080       __imp_?setFont@QComboBox@@UAEXABVQFont@@@Z 1002c080     qt-mt323:qt-mt323.dll
 0002:00001084       __imp_?setPalette@QComboBox@@UAEXABVQPalette@@@Z 1002c084     qt-mt323:qt-mt323.dll
 0002:00001088       __imp_?setEnabled@QComboBox@@UAEX_N@Z 1002c088     qt-mt323:qt-mt323.dll
 0002:0000108c       __imp_?eventFilter@QComboBox@@UAE_NPAVQObject@@PAVQEvent@@@Z 1002c08c     qt-mt323:qt-mt323.dll
 0002:00001090       __imp_?qt_property@QComboBox@@UAE_NHHPAVQVariant@@@Z 1002c090     qt-mt323:qt-mt323.dll
 0002:00001094       __imp_?qt_emit@QComboBox@@UAE_NHPAUQUObject@@@Z 1002c094     qt-mt323:qt-mt323.dll
 0002:00001098       __imp_?qt_invoke@QComboBox@@UAE_NHPAUQUObject@@@Z 1002c098     qt-mt323:qt-mt323.dll
 0002:0000109c       __imp_?qt_cast@QComboBox@@UAEPAXPBD@Z 1002c09c     qt-mt323:qt-mt323.dll
 0002:000010a0       __imp_?className@QComboBox@@UBEPBDXZ 1002c0a0     qt-mt323:qt-mt323.dll
 0002:000010a4       __imp_?metaObject@QComboBox@@UBEPAVQMetaObject@@XZ 1002c0a4     qt-mt323:qt-mt323.dll
 0002:000010a8       __imp_?qt_property@QTextView@@UAE_NHHPAVQVariant@@@Z 1002c0a8     qt-mt323:qt-mt323.dll
 0002:000010ac       __imp_?qt_emit@QTextView@@UAE_NHPAUQUObject@@@Z 1002c0ac     qt-mt323:qt-mt323.dll
 0002:000010b0       __imp_?qt_invoke@QTextView@@UAE_NHPAUQUObject@@@Z 1002c0b0     qt-mt323:qt-mt323.dll
 0002:000010b4       __imp_?qt_cast@QTextView@@UAEPAXPBD@Z 1002c0b4     qt-mt323:qt-mt323.dll
 0002:000010b8       __imp_?className@QTextView@@UBEPBDXZ 1002c0b8     qt-mt323:qt-mt323.dll
 0002:000010bc       __imp_?metaObject@QTextView@@UBEPAVQMetaObject@@XZ 1002c0bc     qt-mt323:qt-mt323.dll
 0002:000010c0       __imp_?end@QMultiLineEdit@@MAEX_N@Z 1002c0c0     qt-mt323:qt-mt323.dll
 0002:000010c4       __imp_?home@QMultiLineEdit@@MAEX_N@Z 1002c0c4     qt-mt323:qt-mt323.dll
 0002:000010c8       __imp_?backspace@QMultiLineEdit@@MAEXXZ 1002c0c8     qt-mt323:qt-mt323.dll
 0002:000010cc       __imp_?cursorDown@QMultiLineEdit@@MAEX_N@Z 1002c0cc     qt-mt323:qt-mt323.dll
 0002:000010d0       __imp_?cursorUp@QMultiLineEdit@@MAEX_N@Z 1002c0d0     qt-mt323:qt-mt323.dll
 0002:000010d4       __imp_?cursorRight@QMultiLineEdit@@MAEX_N0@Z 1002c0d4     qt-mt323:qt-mt323.dll
 0002:000010d8       __imp_?cursorLeft@QMultiLineEdit@@MAEX_N0@Z 1002c0d8     qt-mt323:qt-mt323.dll
 0002:000010dc       __imp_?pageDown@QMultiLineEdit@@MAEX_N@Z 1002c0dc     qt-mt323:qt-mt323.dll
 0002:000010e0       __imp_?pageUp@QMultiLineEdit@@MAEX_N@Z 1002c0e0     qt-mt323:qt-mt323.dll
 0002:000010e4       __imp_?killLine@QMultiLineEdit@@MAEXXZ 1002c0e4     qt-mt323:qt-mt323.dll
 0002:000010e8       __imp_?newLine@QMultiLineEdit@@MAEXXZ 1002c0e8     qt-mt323:qt-mt323.dll
 0002:000010ec       __imp_?insertAndMark@QMultiLineEdit@@MAEXABVQString@@_N@Z 1002c0ec     qt-mt323:qt-mt323.dll
 0002:000010f0       __imp_?setAutoUpdate@QMultiLineEdit@@UAEX_N@Z 1002c0f0     qt-mt323:qt-mt323.dll
 0002:000010f4       __imp_?setCursorPosition@QMultiLineEdit@@UAEXHH_N@Z 1002c0f4     qt-mt323:qt-mt323.dll
 0002:000010f8       __imp_?removeLine@QMultiLineEdit@@UAEXH@Z 1002c0f8     qt-mt323:qt-mt323.dll
 0002:000010fc       __imp_?insertAt@QMultiLineEdit@@UAEXABVQString@@HH_N@Z 1002c0fc     qt-mt323:qt-mt323.dll
 0002:00001100       __imp_?insertLine@QMultiLineEdit@@UAEXABVQString@@H@Z 1002c100     qt-mt323:qt-mt323.dll
 0002:00001104       __imp_?insertAt@QMultiLineEdit@@UAEXABVQString@@HH@Z 1002c104     qt-mt323:qt-mt323.dll
 0002:00001108       __imp_?setCursorPosition@QMultiLineEdit@@UAEXHH@Z 1002c108     qt-mt323:qt-mt323.dll
 0002:0000110c       __imp_?setAlignment@QMultiLineEdit@@UAEXH@Z 1002c10c     qt-mt323:qt-mt323.dll
 0002:00001110       __imp_?qt_property@QMultiLineEdit@@UAE_NHHPAVQVariant@@@Z 1002c110     qt-mt323:qt-mt323.dll
 0002:00001114       __imp_?qt_emit@QMultiLineEdit@@UAE_NHPAUQUObject@@@Z 1002c114     qt-mt323:qt-mt323.dll
 0002:00001118       __imp_?qt_invoke@QMultiLineEdit@@UAE_NHPAUQUObject@@@Z 1002c118     qt-mt323:qt-mt323.dll
 0002:0000111c       __imp_?qt_cast@QMultiLineEdit@@UAEPAXPBD@Z 1002c11c     qt-mt323:qt-mt323.dll
 0002:00001120       __imp_?className@QMultiLineEdit@@UBEPBDXZ 1002c120     qt-mt323:qt-mt323.dll
 0002:00001124       __imp_?metaObject@QMultiLineEdit@@UBEPAVQMetaObject@@XZ 1002c124     qt-mt323:qt-mt323.dll
 0002:00001128       __imp_?moveFocus@QButtonGroup@@UAEXH@Z 1002c128     qt-mt323:qt-mt323.dll
 0002:0000112c       __imp_?setButton@QButtonGroup@@UAEXH@Z 1002c12c     qt-mt323:qt-mt323.dll
 0002:00001130       __imp_?setRadioButtonExclusive@QButtonGroup@@UAEX_N@Z 1002c130     qt-mt323:qt-mt323.dll
 0002:00001134       __imp_?setExclusive@QButtonGroup@@UAEX_N@Z 1002c134     qt-mt323:qt-mt323.dll
 0002:00001138       __imp_?event@QButtonGroup@@MAE_NPAVQEvent@@@Z 1002c138     qt-mt323:qt-mt323.dll
 0002:0000113c       __imp_?qt_property@QButtonGroup@@UAE_NHHPAVQVariant@@@Z 1002c13c     qt-mt323:qt-mt323.dll
 0002:00001140       __imp_?qt_emit@QButtonGroup@@UAE_NHPAUQUObject@@@Z 1002c140     qt-mt323:qt-mt323.dll
 0002:00001144       __imp_?qt_invoke@QButtonGroup@@UAE_NHPAUQUObject@@@Z 1002c144     qt-mt323:qt-mt323.dll
 0002:00001148       __imp_?qt_cast@QButtonGroup@@UAEPAXPBD@Z 1002c148     qt-mt323:qt-mt323.dll
 0002:0000114c       __imp_?className@QButtonGroup@@UBEPBDXZ 1002c14c     qt-mt323:qt-mt323.dll
 0002:00001150       __imp_?metaObject@QButtonGroup@@UBEPAVQMetaObject@@XZ 1002c150     qt-mt323:qt-mt323.dll
 0002:00001154       __imp_?rangeChange@QDial@@MAEXXZ 1002c154     qt-mt323:qt-mt323.dll
 0002:00001158       __imp_?valueChange@QDial@@MAEXXZ 1002c158     qt-mt323:qt-mt323.dll
 0002:0000115c       __imp_?repaintScreen@QDial@@MAEXPBVQRect@@@Z 1002c15c     qt-mt323:qt-mt323.dll
 0002:00001160       __imp_?setTracking@QDial@@UAEX_N@Z 1002c160     qt-mt323:qt-mt323.dll
 0002:00001164       __imp_?setWrapping@QDial@@UAEX_N@Z 1002c164     qt-mt323:qt-mt323.dll
 0002:00001168       __imp_??1QString@@QAE@XZ   1002c168     qt-mt323:qt-mt323.dll
 0002:0000116c       __imp_?setValue@QDial@@UAEXH@Z 1002c16c     qt-mt323:qt-mt323.dll
 0002:00001170       __imp_?setNotchTarget@QDial@@UAEXN@Z 1002c170     qt-mt323:qt-mt323.dll
 0002:00001174       __imp_?resizeEvent@QDial@@MAEXPAVQResizeEvent@@@Z 1002c174     qt-mt323:qt-mt323.dll
 0002:00001178       __imp_?paintEvent@QDial@@MAEXPAVQPaintEvent@@@Z 1002c178     qt-mt323:qt-mt323.dll
 0002:0000117c       __imp_?focusOutEvent@QDial@@MAEXPAVQFocusEvent@@@Z 1002c17c     qt-mt323:qt-mt323.dll
 0002:00001180       __imp_?focusInEvent@QDial@@MAEXPAVQFocusEvent@@@Z 1002c180     qt-mt323:qt-mt323.dll
 0002:00001184       __imp_?keyPressEvent@QDial@@MAEXPAVQKeyEvent@@@Z 1002c184     qt-mt323:qt-mt323.dll
 0002:00001188       __imp_?wheelEvent@QDial@@MAEXPAVQWheelEvent@@@Z 1002c188     qt-mt323:qt-mt323.dll
 0002:0000118c       __imp_?mouseMoveEvent@QDial@@MAEXPAVQMouseEvent@@@Z 1002c18c     qt-mt323:qt-mt323.dll
 0002:00001190       __imp_?mouseReleaseEvent@QDial@@MAEXPAVQMouseEvent@@@Z 1002c190     qt-mt323:qt-mt323.dll
 0002:00001194       __imp_?mousePressEvent@QDial@@MAEXPAVQMouseEvent@@@Z 1002c194     qt-mt323:qt-mt323.dll
 0002:00001198       __imp_?minimumSizeHint@QDial@@UBE?AVQSize@@XZ 1002c198     qt-mt323:qt-mt323.dll
 0002:0000119c       __imp_?sizeHint@QDial@@UBE?AVQSize@@XZ 1002c19c     qt-mt323:qt-mt323.dll
 0002:000011a0       __imp_?qt_property@QDial@@UAE_NHHPAVQVariant@@@Z 1002c1a0     qt-mt323:qt-mt323.dll
 0002:000011a4       __imp_?qt_emit@QDial@@UAE_NHPAUQUObject@@@Z 1002c1a4     qt-mt323:qt-mt323.dll
 0002:000011a8       __imp_?qt_invoke@QDial@@UAE_NHPAUQUObject@@@Z 1002c1a8     qt-mt323:qt-mt323.dll
 0002:000011ac       __imp_?qt_cast@QDial@@UAEPAXPBD@Z 1002c1ac     qt-mt323:qt-mt323.dll
 0002:000011b0       __imp_?className@QDial@@UBEPBDXZ 1002c1b0     qt-mt323:qt-mt323.dll
 0002:000011b4       __imp_?metaObject@QDial@@UBEPAVQMetaObject@@XZ 1002c1b4     qt-mt323:qt-mt323.dll
 0002:000011b8       __imp_?initDragEnter@QIconView@@EAEXPAVQDropEvent@@@Z 1002c1b8     qt-mt323:qt-mt323.dll
 0002:000011bc       __imp_?drawDragShapes@QIconView@@EAEXABVQPoint@@@Z 1002c1bc     qt-mt323:qt-mt323.dll
 0002:000011c0       __imp_?drawBackground@QIconView@@MAEXPAVQPainter@@ABVQRect@@@Z 1002c1c0     qt-mt323:qt-mt323.dll
 0002:000011c4       __imp_?insertInGrid@QIconView@@MAEXPAVQIconViewItem@@@Z 1002c1c4     qt-mt323:qt-mt323.dll
 0002:000011c8       __imp_?startDrag@QIconView@@MAEXXZ 1002c1c8     qt-mt323:qt-mt323.dll
 0002:000011cc       __imp_?dragObject@QIconView@@MAEPAVQDragObject@@XZ 1002c1cc     qt-mt323:qt-mt323.dll
 0002:000011d0       __imp_?drawRubber@QIconView@@MAEXPAVQPainter@@@Z 1002c1d0     qt-mt323:qt-mt323.dll
 0002:000011d4       __imp_?slotUpdate@QIconView@@MAEXXZ 1002c1d4     qt-mt323:qt-mt323.dll
 0002:000011d8       __imp_?adjustItems@QIconView@@MAEXXZ 1002c1d8     qt-mt323:qt-mt323.dll
 0002:000011dc       __imp_?doAutoScroll@QIconView@@MAEXXZ 1002c1dc     qt-mt323:qt-mt323.dll
 0002:000011e0       __imp_?updateContents@QIconView@@UAEXXZ 1002c1e0     qt-mt323:qt-mt323.dll
 0002:000011e4       __imp_?arrangeItemsInGrid@QIconView@@UAEXABVQSize@@_N@Z 1002c1e4     qt-mt323:qt-mt323.dll
 0002:000011e8       __imp_?arrangeItemsInGrid@QIconView@@UAEX_N@Z 1002c1e8     qt-mt323:qt-mt323.dll
 0002:000011ec       __imp_?sort@QIconView@@UAEX_N@Z 1002c1ec     qt-mt323:qt-mt323.dll
 0002:000011f0       __imp_?setWordWrapIconText@QIconView@@UAEX_N@Z 1002c1f0     qt-mt323:qt-mt323.dll
 0002:000011f4       __imp_?setItemsMovable@QIconView@@UAEX_N@Z 1002c1f4     qt-mt323:qt-mt323.dll
 0002:000011f8       __imp_?setShowToolTips@QIconView@@UAEX_N@Z 1002c1f8     qt-mt323:qt-mt323.dll
 0002:000011fc       __imp_?setAutoArrange@QIconView@@UAEX_N@Z 1002c1fc     qt-mt323:qt-mt323.dll
 0002:00001200       __imp_?setMaxItemTextLength@QIconView@@UAEXH@Z 1002c200     qt-mt323:qt-mt323.dll
 0002:00001204       __imp_?setMaxItemWidth@QIconView@@UAEXH@Z 1002c204     qt-mt323:qt-mt323.dll
 0002:00001208       __imp_?setResizeMode@QIconView@@UAEXW4ResizeMode@1@@Z 1002c208     qt-mt323:qt-mt323.dll
 0002:0000120c       __imp_?setArrangement@QIconView@@UAEXW4Arrangement@1@@Z 1002c20c     qt-mt323:qt-mt323.dll
 0002:00001210       __imp_?setItemTextBackground@QIconView@@UAEXABVQBrush@@@Z 1002c210     qt-mt323:qt-mt323.dll
 0002:00001214       __imp_?setItemTextPos@QIconView@@UAEXW4ItemTextPos@1@@Z 1002c214     qt-mt323:qt-mt323.dll
 0002:00001218       __imp_?setSpacing@QIconView@@UAEXH@Z 1002c218     qt-mt323:qt-mt323.dll
 0002:0000121c       __imp_?setGridY@QIconView@@UAEXH@Z 1002c21c     qt-mt323:qt-mt323.dll
 0002:00001220       __imp_?setGridX@QIconView@@UAEXH@Z 1002c220     qt-mt323:qt-mt323.dll
 0002:00001224       __imp_?clear@QIconView@@UAEXXZ 1002c224     qt-mt323:qt-mt323.dll
 0002:00001228       __imp_?repaintItem@QIconView@@UAEXPAVQIconViewItem@@@Z 1002c228     qt-mt323:qt-mt323.dll
 0002:0000122c       __imp_?invertSelection@QIconView@@UAEXXZ 1002c22c     qt-mt323:qt-mt323.dll
 0002:00001230       __imp_?clearSelection@QIconView@@UAEXXZ 1002c230     qt-mt323:qt-mt323.dll
 0002:00001234       __imp_?selectAll@QIconView@@UAEX_N@Z 1002c234     qt-mt323:qt-mt323.dll
 0002:00001238       __imp_?setSelectionMode@QIconView@@UAEXW4SelectionMode@1@@Z 1002c238     qt-mt323:qt-mt323.dll
 0002:0000123c       __imp_?setSelected@QIconView@@UAEXPAVQIconViewItem@@_N1@Z 1002c23c     qt-mt323:qt-mt323.dll
 0002:00001240       __imp_?setCurrentItem@QIconView@@UAEXPAVQIconViewItem@@@Z 1002c240     qt-mt323:qt-mt323.dll
 0002:00001244       __imp_?takeItem@QIconView@@UAEXPAVQIconViewItem@@@Z 1002c244     qt-mt323:qt-mt323.dll
 0002:00001248       __imp_?insertItem@QIconView@@UAEXPAVQIconViewItem@@0@Z 1002c248     qt-mt323:qt-mt323.dll
 0002:0000124c       __imp_?contentsContextMenuEvent@QIconView@@MAEXPAVQContextMenuEvent@@@Z 1002c24c     qt-mt323:qt-mt323.dll
 0002:00001250       __imp_?contentsDropEvent@QIconView@@MAEXPAVQDropEvent@@@Z 1002c250     qt-mt323:qt-mt323.dll
 0002:00001254       __imp_?contentsDragLeaveEvent@QIconView@@MAEXPAVQDragLeaveEvent@@@Z 1002c254     qt-mt323:qt-mt323.dll
 0002:00001258       __imp_?contentsDragMoveEvent@QIconView@@MAEXPAVQDragMoveEvent@@@Z 1002c258     qt-mt323:qt-mt323.dll
 0002:0000125c       __imp_?contentsDragEnterEvent@QIconView@@MAEXPAVQDragEnterEvent@@@Z 1002c25c     qt-mt323:qt-mt323.dll
 0002:00001260       __imp_?contentsMouseMoveEvent@QIconView@@MAEXPAVQMouseEvent@@@Z 1002c260     qt-mt323:qt-mt323.dll
 0002:00001264       __imp_?contentsMouseDoubleClickEvent@QIconView@@MAEXPAVQMouseEvent@@@Z 1002c264     qt-mt323:qt-mt323.dll
 0002:00001268       __imp_?contentsMouseReleaseEvent@QIconView@@MAEXPAVQMouseEvent@@@Z 1002c268     qt-mt323:qt-mt323.dll
 0002:0000126c       __imp_?contentsMousePressEvent@QIconView@@MAEXPAVQMouseEvent@@@Z 1002c26c     qt-mt323:qt-mt323.dll
 0002:00001270       __imp_?drawContents@QIconView@@MAEXPAVQPainter@@HHHH@Z 1002c270     qt-mt323:qt-mt323.dll
 0002:00001274       __imp_?setContentsPos@QIconView@@UAEXHH@Z 1002c274     qt-mt323:qt-mt323.dll
 0002:00001278       __imp_?drawContents@QIconView@@EAEXPAVQPainter@@@Z 1002c278     qt-mt323:qt-mt323.dll
 0002:0000127c       __imp_?windowActivationChange@QIconView@@MAEX_N@Z 1002c27c     qt-mt323:qt-mt323.dll
 0002:00001280       __imp_?styleChange@QIconView@@MAEXAAVQStyle@@@Z 1002c280     qt-mt323:qt-mt323.dll
 0002:00001284       __imp_?showEvent@QIconView@@UAEXPAVQShowEvent@@@Z 1002c284     qt-mt323:qt-mt323.dll
 0002:00001288       __imp_?resizeEvent@QIconView@@MAEXPAVQResizeEvent@@@Z 1002c288     qt-mt323:qt-mt323.dll
 0002:0000128c       __imp_?enterEvent@QIconView@@MAEXPAVQEvent@@@Z 1002c28c     qt-mt323:qt-mt323.dll
 0002:00001290       __imp_?focusOutEvent@QIconView@@MAEXPAVQFocusEvent@@@Z 1002c290     qt-mt323:qt-mt323.dll
 0002:00001294       __imp_?focusInEvent@QIconView@@MAEXPAVQFocusEvent@@@Z 1002c294     qt-mt323:qt-mt323.dll
 0002:00001298       __imp_?keyPressEvent@QIconView@@MAEXPAVQKeyEvent@@@Z 1002c298     qt-mt323:qt-mt323.dll
 0002:0000129c       __imp_?minimumSizeHint@QIconView@@UBE?AVQSize@@XZ 1002c29c     qt-mt323:qt-mt323.dll
 0002:000012a0       __imp_?sizeHint@QIconView@@UBE?AVQSize@@XZ 1002c2a0     qt-mt323:qt-mt323.dll
 0002:000012a4       __imp_?setFont@QIconView@@UAEXABVQFont@@@Z 1002c2a4     qt-mt323:qt-mt323.dll
 0002:000012a8       __imp_?setPalette@QIconView@@UAEXABVQPalette@@@Z 1002c2a8     qt-mt323:qt-mt323.dll
 0002:000012ac       __imp_?eventFilter@QIconView@@UAE_NPAVQObject@@PAVQEvent@@@Z 1002c2ac     qt-mt323:qt-mt323.dll
 0002:000012b0       __imp_?qt_property@QIconView@@UAE_NHHPAVQVariant@@@Z 1002c2b0     qt-mt323:qt-mt323.dll
 0002:000012b4       __imp_?qt_emit@QIconView@@UAE_NHPAUQUObject@@@Z 1002c2b4     qt-mt323:qt-mt323.dll
 0002:000012b8       __imp_?qt_invoke@QIconView@@UAE_NHPAUQUObject@@@Z 1002c2b8     qt-mt323:qt-mt323.dll
 0002:000012bc       __imp_?qt_cast@QIconView@@UAEPAXPBD@Z 1002c2bc     qt-mt323:qt-mt323.dll
 0002:000012c0       __imp_?className@QIconView@@UBEPBDXZ 1002c2c0     qt-mt323:qt-mt323.dll
 0002:000012c4       __imp_?metaObject@QIconView@@UBEPAVQMetaObject@@XZ 1002c2c4     qt-mt323:qt-mt323.dll
 0002:000012c8       __imp_?setSmallDecimalPoint@QLCDNumber@@UAEX_N@Z 1002c2c8     qt-mt323:qt-mt323.dll
 0002:000012cc       __imp_?setBinMode@QLCDNumber@@UAEXXZ 1002c2cc     qt-mt323:qt-mt323.dll
 0002:000012d0       __imp_?setOctMode@QLCDNumber@@UAEXXZ 1002c2d0     qt-mt323:qt-mt323.dll
 0002:000012d4       __imp_?setDecMode@QLCDNumber@@UAEXXZ 1002c2d4     qt-mt323:qt-mt323.dll
 0002:000012d8       __imp_?setHexMode@QLCDNumber@@UAEXXZ 1002c2d8     qt-mt323:qt-mt323.dll
 0002:000012dc       __imp_?setSegmentStyle@QLCDNumber@@UAEXW4SegmentStyle@1@@Z 1002c2dc     qt-mt323:qt-mt323.dll
 0002:000012e0       __imp_?setMode@QLCDNumber@@UAEXW4Mode@1@@Z 1002c2e0     qt-mt323:qt-mt323.dll
 0002:000012e4       __imp_?setNumDigits@QLCDNumber@@UAEXH@Z 1002c2e4     qt-mt323:qt-mt323.dll
 0002:000012e8       __imp_?drawContents@QLCDNumber@@MAEXPAVQPainter@@@Z 1002c2e8     qt-mt323:qt-mt323.dll
 0002:000012ec       __imp_?sizeHint@QLCDNumber@@UBE?AVQSize@@XZ 1002c2ec     qt-mt323:qt-mt323.dll
 0002:000012f0       __imp_?qt_property@QLCDNumber@@UAE_NHHPAVQVariant@@@Z 1002c2f0     qt-mt323:qt-mt323.dll
 0002:000012f4       __imp_?qt_emit@QLCDNumber@@UAE_NHPAUQUObject@@@Z 1002c2f4     qt-mt323:qt-mt323.dll
 0002:000012f8       __imp_?qt_invoke@QLCDNumber@@UAE_NHPAUQUObject@@@Z 1002c2f8     qt-mt323:qt-mt323.dll
 0002:000012fc       __imp_?qt_cast@QLCDNumber@@UAEPAXPBD@Z 1002c2fc     qt-mt323:qt-mt323.dll
 0002:00001300       __imp_?className@QLCDNumber@@UBEPBDXZ 1002c300     qt-mt323:qt-mt323.dll
 0002:00001304       __imp_?metaObject@QLCDNumber@@UBEPAVQMetaObject@@XZ 1002c304     qt-mt323:qt-mt323.dll
 0002:00001308       __imp_?paintCell@QListBox@@MAEXPAVQPainter@@HH@Z 1002c308     qt-mt323:qt-mt323.dll
 0002:0000130c       __imp_?invertSelection@QListBox@@UAEXXZ 1002c30c     qt-mt323:qt-mt323.dll
 0002:00001310       __imp_?selectAll@QListBox@@UAEX_N@Z 1002c310     qt-mt323:qt-mt323.dll
 0002:00001314       __imp_?clearSelection@QListBox@@UAEXXZ 1002c314     qt-mt323:qt-mt323.dll
 0002:00001318       __imp_?ensureCurrentVisible@QListBox@@UAEXXZ 1002c318     qt-mt323:qt-mt323.dll
 0002:0000131c       __imp_?setVariableHeight@QListBox@@UAEX_N@Z 1002c31c     qt-mt323:qt-mt323.dll
 0002:00001320       __imp_?setVariableWidth@QListBox@@UAEX_N@Z 1002c320     qt-mt323:qt-mt323.dll
 0002:00001324       __imp_?setRowMode@QListBox@@UAEXW4LayoutMode@1@@Z 1002c324     qt-mt323:qt-mt323.dll
 0002:00001328       __imp_?setRowMode@QListBox@@UAEXH@Z 1002c328     qt-mt323:qt-mt323.dll
 0002:0000132c       __imp_?setColumnMode@QListBox@@UAEXW4LayoutMode@1@@Z 1002c32c     qt-mt323:qt-mt323.dll
 0002:00001330       __imp_?setColumnMode@QListBox@@UAEXH@Z 1002c330     qt-mt323:qt-mt323.dll
 0002:00001334       __imp_?setSelected@QListBox@@UAEXPAVQListBoxItem@@_N@Z 1002c334     qt-mt323:qt-mt323.dll
 0002:00001338       __imp_?setSelectionMode@QListBox@@UAEXW4SelectionMode@1@@Z 1002c338     qt-mt323:qt-mt323.dll
 0002:0000133c       __imp_?setBottomItem@QListBox@@UAEXH@Z 1002c33c     qt-mt323:qt-mt323.dll
 0002:00001340       __imp_?setTopItem@QListBox@@UAEXH@Z 1002c340     qt-mt323:qt-mt323.dll
 0002:00001344       __imp_?setCurrentItem@QListBox@@UAEXH@Z 1002c344     qt-mt323:qt-mt323.dll
 0002:00001348       __imp_?setCurrentItem@QListBox@@UAEXPAVQListBoxItem@@@Z 1002c348     qt-mt323:qt-mt323.dll
 0002:0000134c       __imp_?viewportResizeEvent@QScrollView@@MAEXPAVQResizeEvent@@@Z 1002c34c     qt-mt323:qt-mt323.dll
 0002:00001350       __imp_?viewportPaintEvent@QListBox@@UAEXPAVQPaintEvent@@@Z 1002c350     qt-mt323:qt-mt323.dll
 0002:00001354       __imp_?contentsContextMenuEvent@QListBox@@MAEXPAVQContextMenuEvent@@@Z 1002c354     qt-mt323:qt-mt323.dll
 0002:00001358       __imp_?contentsDropEvent@QScrollView@@MAEXPAVQDropEvent@@@Z 1002c358     qt-mt323:qt-mt323.dll
 0002:0000135c       __imp_?contentsDragLeaveEvent@QScrollView@@MAEXPAVQDragLeaveEvent@@@Z 1002c35c     qt-mt323:qt-mt323.dll
 0002:00001360       __imp_?contentsDragMoveEvent@QScrollView@@MAEXPAVQDragMoveEvent@@@Z 1002c360     qt-mt323:qt-mt323.dll
 0002:00001364       __imp_?contentsDragEnterEvent@QScrollView@@MAEXPAVQDragEnterEvent@@@Z 1002c364     qt-mt323:qt-mt323.dll
 0002:00001368       __imp_?contentsMouseMoveEvent@QScrollView@@MAEXPAVQMouseEvent@@@Z 1002c368     qt-mt323:qt-mt323.dll
 0002:0000136c       __imp_?contentsMouseDoubleClickEvent@QScrollView@@MAEXPAVQMouseEvent@@@Z 1002c36c     qt-mt323:qt-mt323.dll
 0002:00001370       __imp_?contentsMouseReleaseEvent@QScrollView@@MAEXPAVQMouseEvent@@@Z 1002c370     qt-mt323:qt-mt323.dll
 0002:00001374       __imp_?contentsMousePressEvent@QScrollView@@MAEXPAVQMouseEvent@@@Z 1002c374     qt-mt323:qt-mt323.dll
 0002:00001378       __imp_?windowActivationChange@QListBox@@MAEX_N@Z 1002c378     qt-mt323:qt-mt323.dll
 0002:0000137c       __imp_?showEvent@QListBox@@MAEXPAVQShowEvent@@@Z 1002c37c     qt-mt323:qt-mt323.dll
 0002:00001380       __imp_?resizeEvent@QListBox@@MAEXPAVQResizeEvent@@@Z 1002c380     qt-mt323:qt-mt323.dll
 0002:00001384       __imp_?focusOutEvent@QListBox@@MAEXPAVQFocusEvent@@@Z 1002c384     qt-mt323:qt-mt323.dll
 0002:00001388       __imp_?focusInEvent@QListBox@@MAEXPAVQFocusEvent@@@Z 1002c388     qt-mt323:qt-mt323.dll
 0002:0000138c       __imp_?keyPressEvent@QListBox@@MAEXPAVQKeyEvent@@@Z 1002c38c     qt-mt323:qt-mt323.dll
 0002:00001390       __imp_?mouseMoveEvent@QListBox@@MAEXPAVQMouseEvent@@@Z 1002c390     qt-mt323:qt-mt323.dll
 0002:00001394       __imp_?mouseDoubleClickEvent@QListBox@@MAEXPAVQMouseEvent@@@Z 1002c394     qt-mt323:qt-mt323.dll
 0002:00001398       __imp_?mouseReleaseEvent@QListBox@@MAEXPAVQMouseEvent@@@Z 1002c398     qt-mt323:qt-mt323.dll
 0002:0000139c       __imp_?mousePressEvent@QListBox@@MAEXPAVQMouseEvent@@@Z 1002c39c     qt-mt323:qt-mt323.dll
 0002:000013a0       __imp_?minimumSizeHint@QListBox@@UBE?AVQSize@@XZ 1002c3a0     qt-mt323:qt-mt323.dll
 0002:000013a4       __imp_?sizeHint@QListBox@@UBE?AVQSize@@XZ 1002c3a4     qt-mt323:qt-mt323.dll
 0002:000013a8       __imp_?setFont@QListBox@@UAEXABVQFont@@@Z 1002c3a8     qt-mt323:qt-mt323.dll
 0002:000013ac       __imp_?eventFilter@QListBox@@MAE_NPAVQObject@@PAVQEvent@@@Z 1002c3ac     qt-mt323:qt-mt323.dll
 0002:000013b0       __imp_?qt_property@QListBox@@UAE_NHHPAVQVariant@@@Z 1002c3b0     qt-mt323:qt-mt323.dll
 0002:000013b4       __imp_?qt_emit@QListBox@@UAE_NHPAUQUObject@@@Z 1002c3b4     qt-mt323:qt-mt323.dll
 0002:000013b8       __imp_?qt_invoke@QListBox@@UAE_NHPAUQUObject@@@Z 1002c3b8     qt-mt323:qt-mt323.dll
 0002:000013bc       __imp_?qt_cast@QListBox@@UAEPAXPBD@Z 1002c3bc     qt-mt323:qt-mt323.dll
 0002:000013c0       __imp_?className@QListBox@@UBEPBDXZ 1002c3c0     qt-mt323:qt-mt323.dll
 0002:000013c4       __imp_?metaObject@QListBox@@UBEPAVQMetaObject@@XZ 1002c3c4     qt-mt323:qt-mt323.dll
 0002:000013c8       __imp_?itemRemoved@QToolBox@@MAEXH@Z 1002c3c8     qt-mt323:qt-mt323.dll
 0002:000013cc       __imp_?itemInserted@QToolBox@@MAEXH@Z 1002c3cc     qt-mt323:qt-mt323.dll
 0002:000013d0       __imp_?frameChanged@QToolBox@@MAEXXZ 1002c3d0     qt-mt323:qt-mt323.dll
 0002:000013d4       __imp_?styleChange@QToolBox@@MAEXAAVQStyle@@@Z 1002c3d4     qt-mt323:qt-mt323.dll
 0002:000013d8       __imp_?showEvent@QToolBox@@MAEXPAVQShowEvent@@@Z 1002c3d8     qt-mt323:qt-mt323.dll
 0002:000013dc       __imp_?qt_property@QToolBox@@UAE_NHHPAVQVariant@@@Z 1002c3dc     qt-mt323:qt-mt323.dll
 0002:000013e0       __imp_?qt_emit@QToolBox@@UAE_NHPAUQUObject@@@Z 1002c3e0     qt-mt323:qt-mt323.dll
 0002:000013e4       __imp_?qt_invoke@QToolBox@@UAE_NHPAUQUObject@@@Z 1002c3e4     qt-mt323:qt-mt323.dll
 0002:000013e8       __imp_?qt_cast@QToolBox@@UAEPAXPBD@Z 1002c3e8     qt-mt323:qt-mt323.dll
 0002:000013ec       __imp_?className@QToolBox@@UBEPBDXZ 1002c3ec     qt-mt323:qt-mt323.dll
 0002:000013f0       __imp_?metaObject@QToolBox@@UBEPAVQMetaObject@@XZ 1002c3f0     qt-mt323:qt-mt323.dll
 0002:000013f4       __imp_?setChecked@QRadioButton@@UAEX_N@Z 1002c3f4     qt-mt323:qt-mt323.dll
 0002:000013f8       __imp_?drawButtonLabel@QRadioButton@@MAEXPAVQPainter@@@Z 1002c3f8     qt-mt323:qt-mt323.dll
 0002:000013fc       __imp_?drawButton@QRadioButton@@MAEXPAVQPainter@@@Z 1002c3fc     qt-mt323:qt-mt323.dll
 0002:00001400       __imp_?hitButton@QRadioButton@@MBE_NABVQPoint@@@Z 1002c400     qt-mt323:qt-mt323.dll
 0002:00001404       __imp_?updateMask@QRadioButton@@MAEXXZ 1002c404     qt-mt323:qt-mt323.dll
 0002:00001408       __imp_?resizeEvent@QRadioButton@@MAEXPAVQResizeEvent@@@Z 1002c408     qt-mt323:qt-mt323.dll
 0002:0000140c       __imp_?sizeHint@QRadioButton@@UBE?AVQSize@@XZ 1002c40c     qt-mt323:qt-mt323.dll
 0002:00001410       __imp_?qt_property@QRadioButton@@UAE_NHHPAVQVariant@@@Z 1002c410     qt-mt323:qt-mt323.dll
 0002:00001414       __imp_?qt_emit@QRadioButton@@UAE_NHPAUQUObject@@@Z 1002c414     qt-mt323:qt-mt323.dll
 0002:00001418       __imp_?qt_invoke@QRadioButton@@UAE_NHPAUQUObject@@@Z 1002c418     qt-mt323:qt-mt323.dll
 0002:0000141c       __imp_?qt_cast@QRadioButton@@UAEPAXPBD@Z 1002c41c     qt-mt323:qt-mt323.dll
 0002:00001420       __imp_?className@QRadioButton@@UBEPBDXZ 1002c420     qt-mt323:qt-mt323.dll
 0002:00001424       __imp_?metaObject@QRadioButton@@UBEPAVQMetaObject@@XZ 1002c424     qt-mt323:qt-mt323.dll
 0002:00001428       __imp_?removePage@QTabWidget@@UAEXPAVQWidget@@@Z 1002c428     qt-mt323:qt-mt323.dll
 0002:0000142c       __imp_?showPage@QTabWidget@@UAEXPAVQWidget@@@Z 1002c42c     qt-mt323:qt-mt323.dll
 0002:00001430       __imp_?insertTab@QTabWidget@@UAEXPAVQWidget@@ABVQString@@H@Z 1002c430     qt-mt323:qt-mt323.dll
 0002:00001434       __imp_?insertTab@QTabWidget@@UAEXPAVQWidget@@ABVQIconSet@@ABVQString@@H@Z 1002c434     qt-mt323:qt-mt323.dll
 0002:00001438       __imp_?insertTab@QTabWidget@@UAEXPAVQWidget@@PAVQTab@@H@Z 1002c438     qt-mt323:qt-mt323.dll
 0002:0000143c       __imp_?addTab@QTabWidget@@UAEXPAVQWidget@@ABVQString@@@Z 1002c43c     qt-mt323:qt-mt323.dll
 0002:00001440       __imp_?addTab@QTabWidget@@UAEXPAVQWidget@@ABVQIconSet@@ABVQString@@@Z 1002c440     qt-mt323:qt-mt323.dll
 0002:00001444       __imp_?addTab@QTabWidget@@UAEXPAVQWidget@@PAVQTab@@@Z 1002c444     qt-mt323:qt-mt323.dll
 0002:00001448       __imp_?styleChange@QTabWidget@@MAEXAAVQStyle@@@Z 1002c448     qt-mt323:qt-mt323.dll
 0002:0000144c       __imp_?updateMask@QTabWidget@@MAEXXZ 1002c44c     qt-mt323:qt-mt323.dll
 0002:00001450       __imp_?showEvent@QTabWidget@@MAEXPAVQShowEvent@@@Z 1002c450     qt-mt323:qt-mt323.dll
 0002:00001454       __imp_?resizeEvent@QTabWidget@@MAEXPAVQResizeEvent@@@Z 1002c454     qt-mt323:qt-mt323.dll
 0002:00001458       __imp_?minimumSizeHint@QTabWidget@@UBE?AVQSize@@XZ 1002c458     qt-mt323:qt-mt323.dll
 0002:0000145c       __imp_?sizeHint@QTabWidget@@UBE?AVQSize@@XZ 1002c45c     qt-mt323:qt-mt323.dll
 0002:00001460       __imp_?eventFilter@QTabWidget@@MAE_NPAVQObject@@PAVQEvent@@@Z 1002c460     qt-mt323:qt-mt323.dll
 0002:00001464       __imp_?qt_property@QTabWidget@@UAE_NHHPAVQVariant@@@Z 1002c464     qt-mt323:qt-mt323.dll
 0002:00001468       __imp_?qt_emit@QTabWidget@@UAE_NHPAUQUObject@@@Z 1002c468     qt-mt323:qt-mt323.dll
 0002:0000146c       __imp_?qt_invoke@QTabWidget@@UAE_NHPAUQUObject@@@Z 1002c46c     qt-mt323:qt-mt323.dll
 0002:00001470       __imp_?qt_cast@QTabWidget@@UAEPAXPBD@Z 1002c470     qt-mt323:qt-mt323.dll
 0002:00001474       __imp_?className@QTabWidget@@UBEPBDXZ 1002c474     qt-mt323:qt-mt323.dll
 0002:00001478       __imp_?metaObject@QTabWidget@@UBEPAVQMetaObject@@XZ 1002c478     qt-mt323:qt-mt323.dll
 0002:0000147c       __imp_?setChildGeometries@QWidgetStack@@MAEXXZ 1002c47c     qt-mt323:qt-mt323.dll
 0002:00001480       __imp_?frameChanged@QWidgetStack@@MAEXXZ 1002c480     qt-mt323:qt-mt323.dll
 0002:00001484       __imp_?setFrameRect@QWidgetStack@@UAEXABVQRect@@@Z 1002c484     qt-mt323:qt-mt323.dll
 0002:00001488       __imp_?resizeEvent@QWidgetStack@@MAEXPAVQResizeEvent@@@Z 1002c488     qt-mt323:qt-mt323.dll
 0002:0000148c       __imp_?minimumSizeHint@QWidgetStack@@UBE?AVQSize@@XZ 1002c48c     qt-mt323:qt-mt323.dll
 0002:00001490       __imp_?sizeHint@QWidgetStack@@UBE?AVQSize@@XZ 1002c490     qt-mt323:qt-mt323.dll
 0002:00001494       __imp_?show@QWidgetStack@@UAEXXZ 1002c494     qt-mt323:qt-mt323.dll
 0002:00001498       __imp_?childEvent@QWidgetStack@@MAEXPAVQChildEvent@@@Z 1002c498     qt-mt323:qt-mt323.dll
 0002:0000149c       __imp_?qt_property@QWidgetStack@@UAE_NHHPAVQVariant@@@Z 1002c49c     qt-mt323:qt-mt323.dll
 0002:000014a0       __imp_?qt_emit@QWidgetStack@@UAE_NHPAUQUObject@@@Z 1002c4a0     qt-mt323:qt-mt323.dll
 0002:000014a4       __imp_?qt_invoke@QWidgetStack@@UAE_NHPAUQUObject@@@Z 1002c4a4     qt-mt323:qt-mt323.dll
 0002:000014a8       __imp_?qt_cast@QWidgetStack@@UAEPAXPBD@Z 1002c4a8     qt-mt323:qt-mt323.dll
 0002:000014ac       __imp_?className@QWidgetStack@@UBEPBDXZ 1002c4ac     qt-mt323:qt-mt323.dll
 0002:000014b0       __imp_?metaObject@QWidgetStack@@UBEPAVQMetaObject@@XZ 1002c4b0     qt-mt323:qt-mt323.dll
 0002:000014b4       __imp_?setToolTipGroup@QMainWindow@@EAEXPAVQToolTipGroup@@@Z 1002c4b4     qt-mt323:qt-mt323.dll
 0002:000014b8       __imp_?setStatusBar@QMainWindow@@EAEXPAVQStatusBar@@@Z 1002c4b8     qt-mt323:qt-mt323.dll
 0002:000014bc       __imp_?setMenuBar@QMainWindow@@EAEXPAVQMenuBar@@@Z 1002c4bc     qt-mt323:qt-mt323.dll
 0002:000014c0       __imp_?showDockMenu@QMainWindow@@MAE_NABVQPoint@@@Z 1002c4c0     qt-mt323:qt-mt323.dll
 0002:000014c4       __imp_?setUpLayout@QMainWindow@@MAEXXZ 1002c4c4     qt-mt323:qt-mt323.dll
 0002:000014c8       __imp_?customize@QMainWindow@@UAEXXZ 1002c4c8     qt-mt323:qt-mt323.dll
 0002:000014cc       __imp_?setAppropriate@QMainWindow@@UAEXPAVQDockWindow@@_N@Z 1002c4cc     qt-mt323:qt-mt323.dll
 0002:000014d0       __imp_?whatsThis@QMainWindow@@UAEXXZ 1002c4d0     qt-mt323:qt-mt323.dll
 0002:000014d4       __imp_?setDockMenuEnabled@QMainWindow@@UAEX_N@Z 1002c4d4     qt-mt323:qt-mt323.dll
 0002:000014d8       __imp_?setOpaqueMoving@QMainWindow@@UAEX_N@Z 1002c4d8     qt-mt323:qt-mt323.dll
 0002:000014dc       __imp_?setDockWindowsMovable@QMainWindow@@UAEX_N@Z 1002c4dc     qt-mt323:qt-mt323.dll
 0002:000014e0       __imp_?setUsesTextLabel@QMainWindow@@UAEX_N@Z 1002c4e0     qt-mt323:qt-mt323.dll
 0002:000014e4       __imp_?setUsesBigPixmaps@QMainWindow@@UAEX_N@Z 1002c4e4     qt-mt323:qt-mt323.dll
 0002:000014e8       __imp_?setRightJustification@QMainWindow@@UAEX_N@Z 1002c4e8     qt-mt323:qt-mt323.dll
 0002:000014ec       __imp_?isCustomizable@QMainWindow@@UBE_NXZ 1002c4ec     qt-mt323:qt-mt323.dll
 0002:000014f0       __imp_?dockingArea@QMainWindow@@UAEPAVQDockArea@@ABVQPoint@@@Z 1002c4f0     qt-mt323:qt-mt323.dll
 0002:000014f4       __imp_?removeDockWindow@QMainWindow@@UAEXPAVQDockWindow@@@Z 1002c4f4     qt-mt323:qt-mt323.dll
 0002:000014f8       __imp_?moveDockWindow@QMainWindow@@UAEXPAVQDockWindow@@W4Dock@Qt@@@Z 1002c4f8     qt-mt323:qt-mt323.dll
 0002:000014fc       __imp_?moveDockWindow@QMainWindow@@UAEXPAVQDockWindow@@W4Dock@Qt@@_NHH@Z 1002c4fc     qt-mt323:qt-mt323.dll
 0002:00001500       __imp_?addDockWindow@QMainWindow@@UAEXPAVQDockWindow@@W4Dock@Qt@@_N@Z 1002c500     qt-mt323:qt-mt323.dll
 0002:00001504       __imp_?addDockWindow@QMainWindow@@UAEXPAVQDockWindow@@ABVQString@@W4Dock@Qt@@_N@Z 1002c504     qt-mt323:qt-mt323.dll
 0002:00001508       __imp_?setDockEnabled@QMainWindow@@UAEXW4Dock@Qt@@_N@Z 1002c508     qt-mt323:qt-mt323.dll
 0002:0000150c       __imp_?setDockEnabled@QMainWindow@@UAEXPAVQDockWindow@@W4Dock@Qt@@_N@Z 1002c50c     qt-mt323:qt-mt323.dll
 0002:00001510       __imp_?setCentralWidget@QMainWindow@@UAEXPAVQWidget@@@Z 1002c510     qt-mt323:qt-mt323.dll
 0002:00001514       __imp_?styleChange@QMainWindow@@MAEXAAVQStyle@@@Z 1002c514     qt-mt323:qt-mt323.dll
 0002:00001518       __imp_?paintEvent@QMainWindow@@MAEXPAVQPaintEvent@@@Z 1002c518     qt-mt323:qt-mt323.dll
 0002:0000151c       __imp_?minimumSizeHint@QMainWindow@@UBE?AVQSize@@XZ 1002c51c     qt-mt323:qt-mt323.dll
 0002:00001520       __imp_?sizeHint@QMainWindow@@UBE?AVQSize@@XZ 1002c520     qt-mt323:qt-mt323.dll
 0002:00001524       __imp_?hide@QMainWindow@@UAEXXZ 1002c524     qt-mt323:qt-mt323.dll
 0002:00001528       __imp_?show@QMainWindow@@UAEXXZ 1002c528     qt-mt323:qt-mt323.dll
 0002:0000152c       __imp_?childEvent@QMainWindow@@MAEXPAVQChildEvent@@@Z 1002c52c     qt-mt323:qt-mt323.dll
 0002:00001530       __imp_?eventFilter@QMainWindow@@UAE_NPAVQObject@@PAVQEvent@@@Z 1002c530     qt-mt323:qt-mt323.dll
 0002:00001534       __imp_?event@QMainWindow@@MAE_NPAVQEvent@@@Z 1002c534     qt-mt323:qt-mt323.dll
 0002:00001538       __imp_?qt_property@QMainWindow@@UAE_NHHPAVQVariant@@@Z 1002c538     qt-mt323:qt-mt323.dll
 0002:0000153c       __imp_?qt_emit@QMainWindow@@UAE_NHPAUQUObject@@@Z 1002c53c     qt-mt323:qt-mt323.dll
 0002:00001540       __imp_?qt_invoke@QMainWindow@@UAE_NHPAUQUObject@@@Z 1002c540     qt-mt323:qt-mt323.dll
 0002:00001544       __imp_?qt_cast@QMainWindow@@UAEPAXPBD@Z 1002c544     qt-mt323:qt-mt323.dll
 0002:00001548       __imp_?className@QMainWindow@@UBEPBDXZ 1002c548     qt-mt323:qt-mt323.dll
 0002:0000154c       __imp_?metaObject@QMainWindow@@UBEPAVQMetaObject@@XZ 1002c54c     qt-mt323:qt-mt323.dll
 0002:00001550       __imp_?qt_property@QVBox@@UAE_NHHPAVQVariant@@@Z 1002c550     qt-mt323:qt-mt323.dll
 0002:00001554       __imp_?qt_emit@QVBox@@UAE_NHPAUQUObject@@@Z 1002c554     qt-mt323:qt-mt323.dll
 0002:00001558       __imp_?qt_invoke@QVBox@@UAE_NHPAUQUObject@@@Z 1002c558     qt-mt323:qt-mt323.dll
 0002:0000155c       __imp_?qt_cast@QVBox@@UAEPAXPBD@Z 1002c55c     qt-mt323:qt-mt323.dll
 0002:00001560       __imp_?className@QVBox@@UBEPBDXZ 1002c560     qt-mt323:qt-mt323.dll
 0002:00001564       __imp_?metaObject@QVBox@@UBEPAVQMetaObject@@XZ 1002c564     qt-mt323:qt-mt323.dll
 0002:00001568       __imp_?reload@QTextBrowser@@UAEXXZ 1002c568     qt-mt323:qt-mt323.dll
 0002:0000156c       __imp_?home@QTextBrowser@@UAEXXZ 1002c56c     qt-mt323:qt-mt323.dll
 0002:00001570       __imp_?forward@QTextBrowser@@UAEXXZ 1002c570     qt-mt323:qt-mt323.dll
 0002:00001574       __imp_?backward@QTextBrowser@@UAEXXZ 1002c574     qt-mt323:qt-mt323.dll
 0002:00001578       __imp_?setSource@QTextBrowser@@UAEXABVQString@@@Z 1002c578     qt-mt323:qt-mt323.dll
 0002:0000157c       __imp_?emitLinkClicked@QTextBrowser@@EAEXABVQString@@@Z 1002c57c     qt-mt323:qt-mt323.dll
 0002:00001580       __imp_?emitHighlighted@QTextBrowser@@EAEXABVQString@@@Z 1002c580     qt-mt323:qt-mt323.dll
 0002:00001584       __imp_?linksEnabled@QTextBrowser@@EBE_NXZ 1002c584     qt-mt323:qt-mt323.dll
 0002:00001588       __imp_?setText@QTextBrowser@@UAEXABVQString@@0@Z 1002c588     qt-mt323:qt-mt323.dll
 0002:0000158c       __imp_?keyPressEvent@QTextBrowser@@MAEXPAVQKeyEvent@@@Z 1002c58c     qt-mt323:qt-mt323.dll
 0002:00001590       __imp_?qt_property@QTextBrowser@@UAE_NHHPAVQVariant@@@Z 1002c590     qt-mt323:qt-mt323.dll
 0002:00001594       __imp_?qt_emit@QTextBrowser@@UAE_NHPAUQUObject@@@Z 1002c594     qt-mt323:qt-mt323.dll
 0002:00001598       __imp_?qt_invoke@QTextBrowser@@UAE_NHPAUQUObject@@@Z 1002c598     qt-mt323:qt-mt323.dll
 0002:0000159c       __imp_?qt_cast@QTextBrowser@@UAEPAXPBD@Z 1002c59c     qt-mt323:qt-mt323.dll
 0002:000015a0       __imp_?className@QTextBrowser@@UBEPBDXZ 1002c5a0     qt-mt323:qt-mt323.dll
 0002:000015a4       __imp_?metaObject@QTextBrowser@@UBEPAVQMetaObject@@XZ 1002c5a4     qt-mt323:qt-mt323.dll
 0002:000015a8       __imp_?setAutoAdvance@QDateTimeEdit@@UAEX_N@Z 1002c5a8     qt-mt323:qt-mt323.dll
 0002:000015ac       __imp_?setDateTime@QDateTimeEdit@@UAEXABVQDateTime@@@Z 1002c5ac     qt-mt323:qt-mt323.dll
 0002:000015b0       __imp_?resizeEvent@QDateTimeEdit@@MAEXPAVQResizeEvent@@@Z 1002c5b0     qt-mt323:qt-mt323.dll
 0002:000015b4       __imp_?minimumSizeHint@QDateTimeEdit@@UBE?AVQSize@@XZ 1002c5b4     qt-mt323:qt-mt323.dll
 0002:000015b8       __imp_?sizeHint@QDateTimeEdit@@UBE?AVQSize@@XZ 1002c5b8     qt-mt323:qt-mt323.dll
 0002:000015bc       __imp_?qt_property@QDateTimeEdit@@UAE_NHHPAVQVariant@@@Z 1002c5bc     qt-mt323:qt-mt323.dll
 0002:000015c0       __imp_?qt_emit@QDateTimeEdit@@UAE_NHPAUQUObject@@@Z 1002c5c0     qt-mt323:qt-mt323.dll
 0002:000015c4       __imp_?qt_invoke@QDateTimeEdit@@UAE_NHPAUQUObject@@@Z 1002c5c4     qt-mt323:qt-mt323.dll
 0002:000015c8       __imp_?qt_cast@QDateTimeEdit@@UAEPAXPBD@Z 1002c5c8     qt-mt323:qt-mt323.dll
 0002:000015cc       __imp_?className@QDateTimeEdit@@UBEPBDXZ 1002c5cc     qt-mt323:qt-mt323.dll
 0002:000015d0       __imp_?metaObject@QDateTimeEdit@@UBEPAVQMetaObject@@XZ 1002c5d0     qt-mt323:qt-mt323.dll
 0002:000015d4       __imp_?sizeHint@QFrame@@UBE?AVQSize@@XZ 1002c5d4     qt-mt323:qt-mt323.dll
 0002:000015d8       __imp_?qt_property@QFrame@@UAE_NHHPAVQVariant@@@Z 1002c5d8     qt-mt323:qt-mt323.dll
 0002:000015dc       __imp_?qt_emit@QFrame@@UAE_NHPAUQUObject@@@Z 1002c5dc     qt-mt323:qt-mt323.dll
 0002:000015e0       __imp_?qt_invoke@QFrame@@UAE_NHPAUQUObject@@@Z 1002c5e0     qt-mt323:qt-mt323.dll
 0002:000015e4       __imp_?qt_cast@QFrame@@UAEPAXPBD@Z 1002c5e4     qt-mt323:qt-mt323.dll
 0002:000015e8       __imp_?className@QFrame@@UBEPBDXZ 1002c5e8     qt-mt323:qt-mt323.dll
 0002:000015ec       __imp_?metaObject@QFrame@@UBEPAVQMetaObject@@XZ 1002c5ec     qt-mt323:qt-mt323.dll
 0002:000015f0       __imp_?setIndicator@QProgressBar@@MAE_NAAVQString@@HH@Z 1002c5f0     qt-mt323:qt-mt323.dll
 0002:000015f4       __imp_?setProgress@QProgressBar@@UAEXH@Z 1002c5f4     qt-mt323:qt-mt323.dll
 0002:000015f8       __imp_?setTotalSteps@QProgressBar@@UAEXH@Z 1002c5f8     qt-mt323:qt-mt323.dll
 0002:000015fc       __imp_?drawContents@QProgressBar@@MAEXPAVQPainter@@@Z 1002c5fc     qt-mt323:qt-mt323.dll
 0002:00001600       __imp_?styleChange@QProgressBar@@MAEXAAVQStyle@@@Z 1002c600     qt-mt323:qt-mt323.dll
 0002:00001604       __imp_?minimumSizeHint@QProgressBar@@UBE?AVQSize@@XZ 1002c604     qt-mt323:qt-mt323.dll
 0002:00001608       __imp_?sizeHint@QProgressBar@@UBE?AVQSize@@XZ 1002c608     qt-mt323:qt-mt323.dll
 0002:0000160c       __imp_?show@QProgressBar@@UAEXXZ 1002c60c     qt-mt323:qt-mt323.dll
 0002:00001610       __imp_?qt_property@QProgressBar@@UAE_NHHPAVQVariant@@@Z 1002c610     qt-mt323:qt-mt323.dll
 0002:00001614       __imp_?qt_emit@QProgressBar@@UAE_NHPAUQUObject@@@Z 1002c614     qt-mt323:qt-mt323.dll
 0002:00001618       __imp_?qt_invoke@QProgressBar@@UAE_NHPAUQUObject@@@Z 1002c618     qt-mt323:qt-mt323.dll
 0002:0000161c       __imp_?qt_cast@QProgressBar@@UAEPAXPBD@Z 1002c61c     qt-mt323:qt-mt323.dll
 0002:00001620       __imp_?className@QProgressBar@@UBEPBDXZ 1002c620     qt-mt323:qt-mt323.dll
 0002:00001624       __imp_?metaObject@QProgressBar@@UBEPAVQMetaObject@@XZ 1002c624     qt-mt323:qt-mt323.dll
 0002:00001628       __imp_?rangeChange@QSlider@@MAEXXZ 1002c628     qt-mt323:qt-mt323.dll
 0002:0000162c       __imp_?valueChange@QSlider@@MAEXXZ 1002c62c     qt-mt323:qt-mt323.dll
 0002:00001630       __imp_?setValue@QSlider@@UAEXH@Z 1002c630     qt-mt323:qt-mt323.dll
 0002:00001634       __imp_?setTickInterval@QSlider@@UAEXH@Z 1002c634     qt-mt323:qt-mt323.dll
 0002:00001638       __imp_?setTickmarks@QSlider@@UAEXW4TickSetting@1@@Z 1002c638     qt-mt323:qt-mt323.dll
 0002:0000163c       __imp_?setTracking@QSlider@@UAEX_N@Z 1002c63c     qt-mt323:qt-mt323.dll
 0002:00001640       __imp_?setOrientation@QSlider@@UAEXW4Orientation@Qt@@@Z 1002c640     qt-mt323:qt-mt323.dll
 0002:00001644       __imp_?styleChange@QSlider@@MAEXAAVQStyle@@@Z 1002c644     qt-mt323:qt-mt323.dll
 0002:00001648       __imp_?resizeEvent@QSlider@@MAEXPAVQResizeEvent@@@Z 1002c648     qt-mt323:qt-mt323.dll
 0002:0000164c       __imp_?paintEvent@QSlider@@MAEXPAVQPaintEvent@@@Z 1002c64c     qt-mt323:qt-mt323.dll
 0002:00001650       __imp_?focusOutEvent@QSlider@@MAEXPAVQFocusEvent@@@Z 1002c650     qt-mt323:qt-mt323.dll
 0002:00001654       __imp_?focusInEvent@QSlider@@MAEXPAVQFocusEvent@@@Z 1002c654     qt-mt323:qt-mt323.dll
 0002:00001658       __imp_?keyPressEvent@QSlider@@MAEXPAVQKeyEvent@@@Z 1002c658     qt-mt323:qt-mt323.dll
 0002:0000165c       __imp_?wheelEvent@QSlider@@MAEXPAVQWheelEvent@@@Z 1002c65c     qt-mt323:qt-mt323.dll
 0002:00001660       __imp_?mouseMoveEvent@QSlider@@MAEXPAVQMouseEvent@@@Z 1002c660     qt-mt323:qt-mt323.dll
 0002:00001664       __imp_?mouseReleaseEvent@QSlider@@MAEXPAVQMouseEvent@@@Z 1002c664     qt-mt323:qt-mt323.dll
 0002:00001668       __imp_?mousePressEvent@QSlider@@MAEXPAVQMouseEvent@@@Z 1002c668     qt-mt323:qt-mt323.dll
 0002:0000166c       __imp_?setSizePolicy@QSlider@@UAEXVQSizePolicy@@@Z 1002c66c     qt-mt323:qt-mt323.dll
 0002:00001670       __imp_?sizePolicy@QSlider@@UBE?AVQSizePolicy@@XZ 1002c670     qt-mt323:qt-mt323.dll
 0002:00001674       __imp_?minimumSizeHint@QSlider@@UBE?AVQSize@@XZ 1002c674     qt-mt323:qt-mt323.dll
 0002:00001678       __imp_?sizeHint@QSlider@@UBE?AVQSize@@XZ 1002c678     qt-mt323:qt-mt323.dll
 0002:0000167c       __imp_?setPalette@QSlider@@UAEXABVQPalette@@@Z 1002c67c     qt-mt323:qt-mt323.dll
 0002:00001680       __imp_?qt_property@QSlider@@UAE_NHHPAVQVariant@@@Z 1002c680     qt-mt323:qt-mt323.dll
 0002:00001684       __imp_?qt_emit@QSlider@@UAE_NHPAUQUObject@@@Z 1002c684     qt-mt323:qt-mt323.dll
 0002:00001688       __imp_?qt_invoke@QSlider@@UAE_NHPAUQUObject@@@Z 1002c688     qt-mt323:qt-mt323.dll
 0002:0000168c       __imp_?qt_cast@QSlider@@UAEPAXPBD@Z 1002c68c     qt-mt323:qt-mt323.dll
 0002:00001690       __imp_?className@QSlider@@UBEPBDXZ 1002c690     qt-mt323:qt-mt323.dll
 0002:00001694       __imp_?metaObject@QSlider@@UBEPAVQMetaObject@@XZ 1002c694     qt-mt323:qt-mt323.dll
 0002:00001698       __imp_?setRubberband@QSplitter@@MAEXH@Z 1002c698     qt-mt323:qt-mt323.dll
 0002:0000169c       __imp_?drawSplitter@QSplitter@@MAEXPAVQPainter@@HHHH@Z 1002c69c     qt-mt323:qt-mt323.dll
 0002:000016a0       __imp_?setOpaqueResize@QSplitter@@UAEX_N@Z 1002c6a0     qt-mt323:qt-mt323.dll
 0002:000016a4       __imp_?setResizeMode@QSplitter@@UAEXPAVQWidget@@W4ResizeMode@1@@Z 1002c6a4     qt-mt323:qt-mt323.dll
 0002:000016a8       __imp_?setOrientation@QSplitter@@UAEXW4Orientation@Qt@@@Z 1002c6a8     qt-mt323:qt-mt323.dll
 0002:000016ac       __imp_?styleChange@QSplitter@@MAEXAAVQStyle@@@Z 1002c6ac     qt-mt323:qt-mt323.dll
 0002:000016b0       __imp_?resizeEvent@QSplitter@@MAEXPAVQResizeEvent@@@Z 1002c6b0     qt-mt323:qt-mt323.dll
 0002:000016b4       __imp_?minimumSizeHint@QSplitter@@UBE?AVQSize@@XZ 1002c6b4     qt-mt323:qt-mt323.dll
 0002:000016b8       __imp_?sizeHint@QSplitter@@UBE?AVQSize@@XZ 1002c6b8     qt-mt323:qt-mt323.dll
 0002:000016bc       __imp_?childEvent@QSplitter@@MAEXPAVQChildEvent@@@Z 1002c6bc     qt-mt323:qt-mt323.dll
 0002:000016c0       __imp_?event@QSplitter@@MAE_NPAVQEvent@@@Z 1002c6c0     qt-mt323:qt-mt323.dll
 0002:000016c4       __imp_?qt_property@QSplitter@@UAE_NHHPAVQVariant@@@Z 1002c6c4     qt-mt323:qt-mt323.dll
 0002:000016c8       __imp_?qt_emit@QSplitter@@UAE_NHPAUQUObject@@@Z 1002c6c8     qt-mt323:qt-mt323.dll
 0002:000016cc       __imp_?qt_invoke@QSplitter@@UAE_NHPAUQUObject@@@Z 1002c6cc     qt-mt323:qt-mt323.dll
 0002:000016d0       __imp_?qt_cast@QSplitter@@UAEPAXPBD@Z 1002c6d0     qt-mt323:qt-mt323.dll
 0002:000016d4       __imp_?className@QSplitter@@UBEPBDXZ 1002c6d4     qt-mt323:qt-mt323.dll
 0002:000016d8       __imp_?metaObject@QSplitter@@UBEPAVQMetaObject@@XZ 1002c6d8     qt-mt323:qt-mt323.dll
 0002:000016dc       __imp_?stepChange@QScrollBar@@MAEXXZ 1002c6dc     qt-mt323:qt-mt323.dll
 0002:000016e0       __imp_?rangeChange@QScrollBar@@MAEXXZ 1002c6e0     qt-mt323:qt-mt323.dll
 0002:000016e4       __imp_?valueChange@QScrollBar@@MAEXXZ 1002c6e4     qt-mt323:qt-mt323.dll
 0002:000016e8       __imp_?setTracking@QScrollBar@@UAEX_N@Z 1002c6e8     qt-mt323:qt-mt323.dll
 0002:000016ec       __imp_?setOrientation@QScrollBar@@UAEXW4Orientation@Qt@@@Z 1002c6ec     qt-mt323:qt-mt323.dll
 0002:000016f0       __imp_?styleChange@QScrollBar@@MAEXAAVQStyle@@@Z 1002c6f0     qt-mt323:qt-mt323.dll
 0002:000016f4       __imp_?hideEvent@QScrollBar@@MAEXPAVQHideEvent@@@Z 1002c6f4     qt-mt323:qt-mt323.dll
 0002:000016f8       __imp_?contextMenuEvent@QScrollBar@@MAEXPAVQContextMenuEvent@@@Z 1002c6f8     qt-mt323:qt-mt323.dll
 0002:000016fc       __imp_?resizeEvent@QScrollBar@@MAEXPAVQResizeEvent@@@Z 1002c6fc     qt-mt323:qt-mt323.dll
 0002:00001700       __imp_?paintEvent@QScrollBar@@MAEXPAVQPaintEvent@@@Z 1002c700     qt-mt323:qt-mt323.dll
 0002:00001704       __imp_?keyPressEvent@QScrollBar@@MAEXPAVQKeyEvent@@@Z 1002c704     qt-mt323:qt-mt323.dll
 0002:00001708       __imp_?wheelEvent@QScrollBar@@MAEXPAVQWheelEvent@@@Z 1002c708     qt-mt323:qt-mt323.dll
 0002:0000170c       __imp_?mouseMoveEvent@QScrollBar@@MAEXPAVQMouseEvent@@@Z 1002c70c     qt-mt323:qt-mt323.dll
 0002:00001710       __imp_?mouseReleaseEvent@QScrollBar@@MAEXPAVQMouseEvent@@@Z 1002c710     qt-mt323:qt-mt323.dll
 0002:00001714       __imp_?mousePressEvent@QScrollBar@@MAEXPAVQMouseEvent@@@Z 1002c714     qt-mt323:qt-mt323.dll
 0002:00001718       __imp_?setSizePolicy@QScrollBar@@UAEXVQSizePolicy@@@Z 1002c718     qt-mt323:qt-mt323.dll
 0002:0000171c       __imp_?sizeHint@QScrollBar@@UBE?AVQSize@@XZ 1002c71c     qt-mt323:qt-mt323.dll
 0002:00001720       __imp_?setPalette@QScrollBar@@UAEXABVQPalette@@@Z 1002c720     qt-mt323:qt-mt323.dll
 0002:00001724       __imp_?qt_property@QScrollBar@@UAE_NHHPAVQVariant@@@Z 1002c724     qt-mt323:qt-mt323.dll
 0002:00001728       __imp_?qt_emit@QScrollBar@@UAE_NHPAUQUObject@@@Z 1002c728     qt-mt323:qt-mt323.dll
 0002:0000172c       __imp_?qt_invoke@QScrollBar@@UAE_NHPAUQUObject@@@Z 1002c72c     qt-mt323:qt-mt323.dll
 0002:00001730       __imp_?qt_cast@QScrollBar@@UAEPAXPBD@Z 1002c730     qt-mt323:qt-mt323.dll
 0002:00001734       __imp_?className@QScrollBar@@UBEPBDXZ 1002c734     qt-mt323:qt-mt323.dll
 0002:00001738       __imp_?metaObject@QScrollBar@@UBEPAVQMetaObject@@XZ 1002c738     qt-mt323:qt-mt323.dll
 0002:0000173c       __imp_?layOutTitleRow@QWizard@@MAEXPAVQHBoxLayout@@ABVQString@@@Z 1002c73c     qt-mt323:qt-mt323.dll
 0002:00001740       __imp_?layOutButtonRow@QWizard@@MAEXPAVQHBoxLayout@@@Z 1002c740     qt-mt323:qt-mt323.dll
 0002:00001744       __imp_?help@QWizard@@MAEXXZ 1002c744     qt-mt323:qt-mt323.dll
 0002:00001748       __imp_?next@QWizard@@MAEXXZ 1002c748     qt-mt323:qt-mt323.dll
 0002:0000174c       __imp_?back@QWizard@@MAEXXZ 1002c74c     qt-mt323:qt-mt323.dll
 0002:00001750       __imp_?setFinish@QWizard@@UAEXPAVQWidget@@_N@Z 1002c750     qt-mt323:qt-mt323.dll
 0002:00001754       __imp_?setHelpEnabled@QWizard@@UAEXPAVQWidget@@_N@Z 1002c754     qt-mt323:qt-mt323.dll
 0002:00001758       __imp_?setFinishEnabled@QWizard@@UAEXPAVQWidget@@_N@Z 1002c758     qt-mt323:qt-mt323.dll
 0002:0000175c       __imp_?setNextEnabled@QWizard@@UAEXPAVQWidget@@_N@Z 1002c75c     qt-mt323:qt-mt323.dll
 0002:00001760       __imp_?setBackEnabled@QWizard@@UAEXPAVQWidget@@_N@Z 1002c760     qt-mt323:qt-mt323.dll
 0002:00001764       __imp_?setAppropriate@QWizard@@UAEXPAVQWidget@@_N@Z 1002c764     qt-mt323:qt-mt323.dll
 0002:00001768       __imp_?appropriate@QWizard@@UBE_NPAVQWidget@@@Z 1002c768     qt-mt323:qt-mt323.dll
 0002:0000176c       __imp_?showPage@QWizard@@UAEXPAVQWidget@@@Z 1002c76c     qt-mt323:qt-mt323.dll
 0002:00001770       __imp_?removePage@QWizard@@UAEXPAVQWidget@@@Z 1002c770     qt-mt323:qt-mt323.dll
 0002:00001774       __imp_?insertPage@QWizard@@UAEXPAVQWidget@@ABVQString@@H@Z 1002c774     qt-mt323:qt-mt323.dll
 0002:00001778       __imp_?addPage@QWizard@@UAEXPAVQWidget@@ABVQString@@@Z 1002c778     qt-mt323:qt-mt323.dll
 0002:0000177c       __imp_?show@QWizard@@UAEXXZ 1002c77c     qt-mt323:qt-mt323.dll
 0002:00001780       __imp_?setFont@QWizard@@UAEXABVQFont@@@Z 1002c780     qt-mt323:qt-mt323.dll
 0002:00001784       __imp_?eventFilter@QWizard@@UAE_NPAVQObject@@PAVQEvent@@@Z 1002c784     qt-mt323:qt-mt323.dll
 0002:00001788       __imp_?qt_property@QWizard@@UAE_NHHPAVQVariant@@@Z 1002c788     qt-mt323:qt-mt323.dll
 0002:0000178c       __imp_?qt_emit@QWizard@@UAE_NHPAUQUObject@@@Z 1002c78c     qt-mt323:qt-mt323.dll
 0002:00001790       __imp_?qt_invoke@QWizard@@UAE_NHPAUQUObject@@@Z 1002c790     qt-mt323:qt-mt323.dll
 0002:00001794       __imp_?qt_cast@QWizard@@UAEPAXPBD@Z 1002c794     qt-mt323:qt-mt323.dll
 0002:00001798       __imp_?className@QWizard@@UBEPBDXZ 1002c798     qt-mt323:qt-mt323.dll
 0002:0000179c       __imp_?metaObject@QWizard@@UBEPAVQMetaObject@@XZ 1002c79c     qt-mt323:qt-mt323.dll
 0002:000017a0       __imp_?className@QDialog@@UBEPBDXZ 1002c7a0     qt-mt323:qt-mt323.dll
 0002:000017a4       __imp_?metaObject@QDialog@@UBEPAVQMetaObject@@XZ 1002c7a4     qt-mt323:qt-mt323.dll
 0002:000017a8       __imp_?frameChanged@QHBox@@MAEXXZ 1002c7a8     qt-mt323:qt-mt323.dll
 0002:000017ac       __imp_?sizeHint@QHBox@@UBE?AVQSize@@XZ 1002c7ac     qt-mt323:qt-mt323.dll
 0002:000017b0       __imp_?qt_property@QHBox@@UAE_NHHPAVQVariant@@@Z 1002c7b0     qt-mt323:qt-mt323.dll
 0002:000017b4       __imp_?qt_emit@QHBox@@UAE_NHPAUQUObject@@@Z 1002c7b4     qt-mt323:qt-mt323.dll
 0002:000017b8       __imp_?qt_invoke@QHBox@@UAE_NHPAUQUObject@@@Z 1002c7b8     qt-mt323:qt-mt323.dll
 0002:000017bc       __imp_?qt_cast@QHBox@@UAEPAXPBD@Z 1002c7bc     qt-mt323:qt-mt323.dll
 0002:000017c0       __imp_?className@QHBox@@UBEPBDXZ 1002c7c0     qt-mt323:qt-mt323.dll
 0002:000017c4       __imp_?metaObject@QHBox@@UBEPAVQMetaObject@@XZ 1002c7c4     qt-mt323:qt-mt323.dll
 0002:000017c8       __imp_?className@QWidget@@UBEPBDXZ 1002c7c8     qt-mt323:qt-mt323.dll
 0002:000017cc       __imp_?metaObject@QWidget@@UBEPAVQMetaObject@@XZ 1002c7cc     qt-mt323:qt-mt323.dll
 0002:000017d0       __imp_?frameChanged@QGrid@@MAEXXZ 1002c7d0     qt-mt323:qt-mt323.dll
 0002:000017d4       __imp_?sizeHint@QGrid@@UBE?AVQSize@@XZ 1002c7d4     qt-mt323:qt-mt323.dll
 0002:000017d8       __imp_?qt_property@QGrid@@UAE_NHHPAVQVariant@@@Z 1002c7d8     qt-mt323:qt-mt323.dll
 0002:000017dc       __imp_?qt_emit@QGrid@@UAE_NHPAUQUObject@@@Z 1002c7dc     qt-mt323:qt-mt323.dll
 0002:000017e0       __imp_?qt_invoke@QGrid@@UAE_NHPAUQUObject@@@Z 1002c7e0     qt-mt323:qt-mt323.dll
 0002:000017e4       __imp_?qt_cast@QGrid@@UAEPAXPBD@Z 1002c7e4     qt-mt323:qt-mt323.dll
 0002:000017e8       __imp_?className@QGrid@@UBEPBDXZ 1002c7e8     qt-mt323:qt-mt323.dll
 0002:000017ec       __imp_?metaObject@QGrid@@UBEPAVQMetaObject@@XZ 1002c7ec     qt-mt323:qt-mt323.dll
 0002:000017f0       __imp_?fieldAlignment@QDataTable@@MAEHPBVQSqlField@@@Z 1002c7f0     qt-mt323:qt-mt323.dll
 0002:000017f4       __imp_?paintField@QDataTable@@MAEXPAVQPainter@@PBVQSqlField@@ABVQRect@@_N@Z 1002c7f4     qt-mt323:qt-mt323.dll
 0002:000017f8       __imp_?beginUpdate@QDataTable@@MAEPAVQWidget@@HH_N@Z 1002c7f8     qt-mt323:qt-mt323.dll
 0002:000017fc       __imp_?beginInsert@QDataTable@@MAE_NXZ 1002c7fc     qt-mt323:qt-mt323.dll
 0002:00001800       __imp_?handleError@QDataTable@@MAEXABVQSqlError@@@Z 1002c800     qt-mt323:qt-mt323.dll
 0002:00001804       __imp_?confirmCancel@QDataTable@@MAE?AW4Confirm@QSql@@W4Op@3@@Z 1002c804     qt-mt323:qt-mt323.dll
 0002:00001808       __imp_?confirmEdit@QDataTable@@MAE?AW4Confirm@QSql@@W4Op@3@@Z 1002c808     qt-mt323:qt-mt323.dll
 0002:0000180c       __imp_?deleteCurrent@QDataTable@@MAE_NXZ 1002c80c     qt-mt323:qt-mt323.dll
 0002:00001810       __imp_?updateCurrent@QDataTable@@MAE_NXZ 1002c810     qt-mt323:qt-mt323.dll
 0002:00001814       __imp_?insertCurrent@QDataTable@@MAE_NXZ 1002c814     qt-mt323:qt-mt323.dll
 0002:00001818       __imp_?sortDescending@QDataTable@@UAEXH@Z 1002c818     qt-mt323:qt-mt323.dll
 0002:0000181c       __imp_?sortAscending@QDataTable@@UAEXH@Z 1002c81c     qt-mt323:qt-mt323.dll
 0002:00001820       __imp_?find@QDataTable@@UAEXABVQString@@_N1@Z 1002c820     qt-mt323:qt-mt323.dll
 0002:00001824       __imp_?refresh@QDataTable@@UAEXXZ 1002c824     qt-mt323:qt-mt323.dll
 0002:00001828       __imp_?setSort@QDataTable@@UAEXABVQStringList@@@Z 1002c828     qt-mt323:qt-mt323.dll
 0002:0000182c       __imp_?setSort@QDataTable@@UAEXABVQSqlIndex@@@Z 1002c82c     qt-mt323:qt-mt323.dll
 0002:00001830       __imp_?setFilter@QDataTable@@UAEXABVQString@@@Z 1002c830     qt-mt323:qt-mt323.dll
 0002:00001834       __imp_?setAutoEdit@QDataTable@@UAEX_N@Z 1002c834     qt-mt323:qt-mt323.dll
 0002:00001838       __imp_?setAutoDelete@QDataTable@@UAEX_N@Z 1002c838     qt-mt323:qt-mt323.dll
 0002:0000183c       __imp_?setConfirmCancels@QDataTable@@UAEX_N@Z 1002c83c     qt-mt323:qt-mt323.dll
 0002:00001840       __imp_?setConfirmDelete@QDataTable@@UAEX_N@Z 1002c840     qt-mt323:qt-mt323.dll
 0002:00001844       __imp_?setConfirmUpdate@QDataTable@@UAEX_N@Z 1002c844     qt-mt323:qt-mt323.dll
 0002:00001848       __imp_?setConfirmInsert@QDataTable@@UAEX_N@Z 1002c848     qt-mt323:qt-mt323.dll
 0002:0000184c       __imp_?setConfirmEdits@QDataTable@@UAEX_N@Z 1002c84c     qt-mt323:qt-mt323.dll
 0002:00001850       __imp_?setDateFormat@QDataTable@@UAEXW4DateFormat@Qt@@@Z 1002c850     qt-mt323:qt-mt323.dll
 0002:00001854       __imp_?setFalseText@QDataTable@@UAEXABVQString@@@Z 1002c854     qt-mt323:qt-mt323.dll
 0002:00001858       __imp_?setTrueText@QDataTable@@UAEXABVQString@@@Z 1002c858     qt-mt323:qt-mt323.dll
 0002:0000185c       __imp_?setNullText@QDataTable@@UAEXABVQString@@@Z 1002c85c     qt-mt323:qt-mt323.dll
 0002:00001860       __imp_?setSqlCursor@QDataTable@@UAEXPAVQSqlCursor@@_N1@Z 1002c860     qt-mt323:qt-mt323.dll
 0002:00001864       __imp_?setColumn@QDataTable@@UAEXIABVQString@@0HABVQIconSet@@@Z 1002c864     qt-mt323:qt-mt323.dll
 0002:00001868       __imp_?removeColumn@QDataTable@@UAEXI@Z 1002c868     qt-mt323:qt-mt323.dll
 0002:0000186c       __imp_?addColumn@QDataTable@@UAEXABVQString@@0HABVQIconSet@@@Z 1002c86c     qt-mt323:qt-mt323.dll
 0002:00001870       __imp_?columnClicked@QDataTable@@MAEXH@Z 1002c870     qt-mt323:qt-mt323.dll
 0002:00001874       __imp_?resizeData@QDataTable@@MAEXH@Z 1002c874     qt-mt323:qt-mt323.dll
 0002:00001878       __imp_?endEdit@QDataTable@@MAEXHH_N0@Z 1002c878     qt-mt323:qt-mt323.dll
 0002:0000187c       __imp_?beginEdit@QDataTable@@EAEPAVQWidget@@HH_N@Z 1002c87c     qt-mt323:qt-mt323.dll
 0002:00001880       __imp_?createEditor@QDataTable@@MBEPAVQWidget@@HH_N@Z 1002c880     qt-mt323:qt-mt323.dll
 0002:00001884       __imp_?activateNextCell@QDataTable@@MAEXXZ 1002c884     qt-mt323:qt-mt323.dll
 0002:00001888       __imp_?swapColumns@QDataTable@@UAEXHH_N@Z 1002c888     qt-mt323:qt-mt323.dll
 0002:0000188c       __imp_?setColumnStretchable@QDataTable@@UAEXH_N@Z 1002c88c     qt-mt323:qt-mt323.dll
 0002:00001890       __imp_?adjustColumn@QDataTable@@UAEXH@Z 1002c890     qt-mt323:qt-mt323.dll
 0002:00001894       __imp_?setColumnWidth@QDataTable@@UAEXHH@Z 1002c894     qt-mt323:qt-mt323.dll
 0002:00001898       __imp_?showColumn@QDataTable@@UAEXH@Z 1002c898     qt-mt323:qt-mt323.dll
 0002:0000189c       __imp_?hideColumn@QDataTable@@UAEXH@Z 1002c89c     qt-mt323:qt-mt323.dll
 0002:000018a0       __imp_?setNumCols@QDataTable@@UAEXH@Z 1002c8a0     qt-mt323:qt-mt323.dll
 0002:000018a4       __imp_?setNumRows@QDataTable@@UAEXH@Z 1002c8a4     qt-mt323:qt-mt323.dll
 0002:000018a8       __imp_?paintCell@QDataTable@@MAEXPAVQPainter@@HHABVQRect@@_NABVQColorGroup@@@Z 1002c8a8     qt-mt323:qt-mt323.dll
 0002:000018ac       __imp_?takeItem@QDataTable@@MAEXPAVQTableItem@@@Z 1002c8ac     qt-mt323:qt-mt323.dll
 0002:000018b0       __imp_?sortColumn@QDataTable@@UAEXH_N0@Z 1002c8b0     qt-mt323:qt-mt323.dll
 0002:000018b4       __imp_?numCols@QDataTable@@UBEHXZ 1002c8b4     qt-mt323:qt-mt323.dll
 0002:000018b8       __imp_?numRows@QDataTable@@UBEHXZ 1002c8b8     qt-mt323:qt-mt323.dll
 0002:000018bc       __imp_?clearCell@QDataTable@@MAEXHH@Z 1002c8bc     qt-mt323:qt-mt323.dll
 0002:000018c0       __imp_?text@QDataTable@@UBE?AVQString@@HH@Z 1002c8c0     qt-mt323:qt-mt323.dll
 0002:000018c4       __imp_?item@QDataTable@@MBEPAVQTableItem@@HH@Z 1002c8c4     qt-mt323:qt-mt323.dll
 0002:000018c8       __imp_?setPixmap@QDataTable@@MAEXHHABVQPixmap@@@Z 1002c8c8     qt-mt323:qt-mt323.dll
 0002:000018cc       __imp_?setItem@QDataTable@@MAEXHHPAVQTableItem@@@Z 1002c8cc     qt-mt323:qt-mt323.dll
 0002:000018d0       __imp_?contentsContextMenuEvent@QDataTable@@MAEXPAVQContextMenuEvent@@@Z 1002c8d0     qt-mt323:qt-mt323.dll
 0002:000018d4       __imp_?contentsMousePressEvent@QDataTable@@MAEXPAVQMouseEvent@@@Z 1002c8d4     qt-mt323:qt-mt323.dll
 0002:000018d8       __imp_?drawContents@QDataTable@@MAEXPAVQPainter@@HHHH@Z 1002c8d8     qt-mt323:qt-mt323.dll
 0002:000018dc       __imp_?resizeEvent@QDataTable@@MAEXPAVQResizeEvent@@@Z 1002c8dc     qt-mt323:qt-mt323.dll
 0002:000018e0       __imp_?keyPressEvent@QDataTable@@MAEXPAVQKeyEvent@@@Z 1002c8e0     qt-mt323:qt-mt323.dll
 0002:000018e4       __imp_?eventFilter@QDataTable@@MAE_NPAVQObject@@PAVQEvent@@@Z 1002c8e4     qt-mt323:qt-mt323.dll
 0002:000018e8       __imp_?qt_property@QDataTable@@UAE_NHHPAVQVariant@@@Z 1002c8e8     qt-mt323:qt-mt323.dll
 0002:000018ec       __imp_?qt_emit@QDataTable@@UAE_NHPAUQUObject@@@Z 1002c8ec     qt-mt323:qt-mt323.dll
 0002:000018f0       __imp_?qt_invoke@QDataTable@@UAE_NHPAUQUObject@@@Z 1002c8f0     qt-mt323:qt-mt323.dll
 0002:000018f4       __imp_?qt_cast@QDataTable@@UAEPAXPBD@Z 1002c8f4     qt-mt323:qt-mt323.dll
 0002:000018f8       __imp_?className@QDataTable@@UBEPBDXZ 1002c8f8     qt-mt323:qt-mt323.dll
 0002:000018fc       __imp_?metaObject@QDataTable@@UBEPAVQMetaObject@@XZ 1002c8fc     qt-mt323:qt-mt323.dll
 0002:00001900       __imp_?columnClicked@QTable@@MAEXH@Z 1002c900     qt-mt323:qt-mt323.dll
 0002:00001904       __imp_?rowIndexChanged@QTable@@MAEXHHH@Z 1002c904     qt-mt323:qt-mt323.dll
 0002:00001908       __imp_?columnIndexChanged@QTable@@MAEXHHH@Z 1002c908     qt-mt323:qt-mt323.dll
 0002:0000190c       __imp_?rowHeightChanged@QTable@@MAEXH@Z 1002c90c     qt-mt323:qt-mt323.dll
 0002:00001910       __imp_?columnWidthChanged@QTable@@MAEXH@Z 1002c910     qt-mt323:qt-mt323.dll
 0002:00001914       __imp_?insertWidget@QTable@@MAEXHHPAVQWidget@@@Z 1002c914     qt-mt323:qt-mt323.dll
 0002:00001918       __imp_?resizeData@QTable@@MAEXH@Z 1002c918     qt-mt323:qt-mt323.dll
 0002:0000191c       __imp_?endEdit@QTable@@MAEXHH_N0@Z 1002c91c     qt-mt323:qt-mt323.dll
 0002:00001920       __imp_?beginEdit@QTable@@MAEPAVQWidget@@HH_N@Z 1002c920     qt-mt323:qt-mt323.dll
 0002:00001924       __imp_?setCellContentFromEditor@QTable@@MAEXHH@Z 1002c924     qt-mt323:qt-mt323.dll
 0002:00001928       __imp_?createEditor@QTable@@MBEPAVQWidget@@HH_N@Z 1002c928     qt-mt323:qt-mt323.dll
 0002:0000192c       __imp_?activateNextCell@QTable@@MAEXXZ 1002c92c     qt-mt323:qt-mt323.dll
 0002:00001930       __imp_?paintEmptyArea@QTable@@MAEXPAVQPainter@@HHHH@Z 1002c930     qt-mt323:qt-mt323.dll
 0002:00001934       __imp_?startDrag@QTable@@MAEXXZ 1002c934     qt-mt323:qt-mt323.dll
 0002:00001938       __imp_?dragObject@QTable@@MAEPAVQDragObject@@XZ 1002c938     qt-mt323:qt-mt323.dll
 0002:0000193c       __imp_?editCell@QTable@@UAEXHH_N@Z 1002c93c     qt-mt323:qt-mt323.dll
 0002:00001940       __imp_?removeColumns@QTable@@UAEXABV?$QMemArray@H@@@Z 1002c940     qt-mt323:qt-mt323.dll
 0002:00001944       __imp_?removeColumn@QTable@@UAEXH@Z 1002c944     qt-mt323:qt-mt323.dll
 0002:00001948       __imp_?removeRows@QTable@@UAEXABV?$QMemArray@H@@@Z 1002c948     qt-mt323:qt-mt323.dll
 0002:0000194c       __imp_?removeRow@QTable@@UAEXH@Z 1002c94c     qt-mt323:qt-mt323.dll
 0002:00001950       __imp_?insertColumns@QTable@@UAEXHH@Z 1002c950     qt-mt323:qt-mt323.dll
 0002:00001954       __imp_?insertRows@QTable@@UAEXHH@Z 1002c954     qt-mt323:qt-mt323.dll
 0002:00001958       __imp_?setDragEnabled@QTable@@UAEX_N@Z 1002c958     qt-mt323:qt-mt323.dll
 0002:0000195c       __imp_?setColumnReadOnly@QTable@@UAEXH_N@Z 1002c95c     qt-mt323:qt-mt323.dll
 0002:00001960       __imp_?setRowReadOnly@QTable@@UAEXH_N@Z 1002c960     qt-mt323:qt-mt323.dll
 0002:00001964       __imp_?setReadOnly@QTable@@UAEX_N@Z 1002c964     qt-mt323:qt-mt323.dll
 0002:00001968       __imp_?setRowMovingEnabled@QTable@@UAEX_N@Z 1002c968     qt-mt323:qt-mt323.dll
 0002:0000196c       __imp_?setColumnMovingEnabled@QTable@@UAEX_N@Z 1002c96c     qt-mt323:qt-mt323.dll
 0002:00001970       __imp_?setCurrentCell@QTable@@UAEXHH@Z 1002c970     qt-mt323:qt-mt323.dll
 0002:00001974       __imp_?setTopMargin@QTable@@UAEXH@Z 1002c974     qt-mt323:qt-mt323.dll
 0002:00001978       __imp_?setLeftMargin@QTable@@UAEXH@Z 1002c978     qt-mt323:qt-mt323.dll
 0002:0000197c       __imp_?swapCells@QTable@@UAEXHHHH@Z 1002c97c     qt-mt323:qt-mt323.dll
 0002:00001980       __imp_?swapColumns@QTable@@UAEXHH_N@Z 1002c980     qt-mt323:qt-mt323.dll
 0002:00001984       __imp_?swapRows@QTable@@UAEXHH_N@Z 1002c984     qt-mt323:qt-mt323.dll
 0002:00001988       __imp_?setSorting@QTable@@UAEX_N@Z 1002c988     qt-mt323:qt-mt323.dll
 0002:0000198c       __imp_?setRowStretchable@QTable@@UAEXH_N@Z 1002c98c     qt-mt323:qt-mt323.dll
 0002:00001990       __imp_?setColumnStretchable@QTable@@UAEXH_N@Z 1002c990     qt-mt323:qt-mt323.dll
 0002:00001994       __imp_?adjustRow@QTable@@UAEXH@Z 1002c994     qt-mt323:qt-mt323.dll
 0002:00001998       __imp_?adjustColumn@QTable@@UAEXH@Z 1002c998     qt-mt323:qt-mt323.dll
 0002:0000199c       __imp_?setRowHeight@QTable@@UAEXHH@Z 1002c99c     qt-mt323:qt-mt323.dll
 0002:000019a0       __imp_?setColumnWidth@QTable@@UAEXHH@Z 1002c9a0     qt-mt323:qt-mt323.dll
 0002:000019a4       __imp_?showColumn@QTable@@UAEXH@Z 1002c9a4     qt-mt323:qt-mt323.dll
 0002:000019a8       __imp_?showRow@QTable@@UAEXH@Z 1002c9a8     qt-mt323:qt-mt323.dll
 0002:000019ac       __imp_?hideColumn@QTable@@UAEXH@Z 1002c9ac     qt-mt323:qt-mt323.dll
 0002:000019b0       __imp_?hideRow@QTable@@UAEXH@Z 1002c9b0     qt-mt323:qt-mt323.dll
 0002:000019b4       __imp_?setShowGrid@QTable@@UAEX_N@Z 1002c9b4     qt-mt323:qt-mt323.dll
 0002:000019b8       __imp_?setNumCols@QTable@@UAEXH@Z 1002c9b8     qt-mt323:qt-mt323.dll
 0002:000019bc       __imp_?setNumRows@QTable@@UAEXH@Z 1002c9bc     qt-mt323:qt-mt323.dll
 0002:000019c0       __imp_?setFocusStyle@QTable@@UAEXW4FocusStyle@1@@Z 1002c9c0     qt-mt323:qt-mt323.dll
 0002:000019c4       __imp_?paintFocus@QTable@@UAEXPAVQPainter@@ABVQRect@@@Z 1002c9c4     qt-mt323:qt-mt323.dll
 0002:000019c8       __imp_?paintCell@QTable@@UAEXPAVQPainter@@HHABVQRect@@_N@Z 1002c9c8     qt-mt323:qt-mt323.dll
 0002:000019cc       __imp_?paintCell@QTable@@UAEXPAVQPainter@@HHABVQRect@@_NABVQColorGroup@@@Z 1002c9cc     qt-mt323:qt-mt323.dll
 0002:000019d0       __imp_?cellRect@QTable@@UBE?AVQRect@@HH@Z 1002c9d0     qt-mt323:qt-mt323.dll
 0002:000019d4       __imp_?clearCellWidget@QTable@@UAEXHH@Z 1002c9d4     qt-mt323:qt-mt323.dll
 0002:000019d8       __imp_?cellWidget@QTable@@UBEPAVQWidget@@HH@Z 1002c9d8     qt-mt323:qt-mt323.dll
 0002:000019dc       __imp_?setCellWidget@QTable@@UAEXHHPAVQWidget@@@Z 1002c9dc     qt-mt323:qt-mt323.dll
 0002:000019e0       __imp_?takeItem@QTable@@UAEXPAVQTableItem@@@Z 1002c9e0     qt-mt323:qt-mt323.dll
 0002:000019e4       __imp_?sortColumn@QTable@@UAEXH_N0@Z 1002c9e4     qt-mt323:qt-mt323.dll
 0002:000019e8       __imp_?currentSelection@QTable@@UBEHXZ 1002c9e8     qt-mt323:qt-mt323.dll
 0002:000019ec       __imp_?removeSelection@QTable@@UAEXABVQTableSelection@@@Z 1002c9ec     qt-mt323:qt-mt323.dll
 0002:000019f0       __imp_?removeSelection@QTable@@UAEXH@Z 1002c9f0     qt-mt323:qt-mt323.dll
 0002:000019f4       __imp_?addSelection@QTable@@UAEHABVQTableSelection@@@Z 1002c9f4     qt-mt323:qt-mt323.dll
 0002:000019f8       __imp_?numCols@QTable@@UBEHXZ 1002c9f8     qt-mt323:qt-mt323.dll
 0002:000019fc       __imp_?numRows@QTable@@UBEHXZ 1002c9fc     qt-mt323:qt-mt323.dll
 0002:00001a00       __imp_?rowAt@QTable@@UBEHH@Z 1002ca00     qt-mt323:qt-mt323.dll
 0002:00001a04       __imp_?columnAt@QTable@@UBEHH@Z 1002ca04     qt-mt323:qt-mt323.dll
 0002:00001a08       __imp_?rowPos@QTable@@UBEHH@Z 1002ca08     qt-mt323:qt-mt323.dll
 0002:00001a0c       __imp_?columnPos@QTable@@UBEHH@Z 1002ca0c     qt-mt323:qt-mt323.dll
 0002:00001a10       __imp_?rowHeight@QTable@@UBEHH@Z 1002ca10     qt-mt323:qt-mt323.dll
 0002:00001a14       __imp_?columnWidth@QTable@@UBEHH@Z 1002ca14     qt-mt323:qt-mt323.dll
 0002:00001a18       __imp_?cellGeometry@QTable@@UBE?AVQRect@@HH@Z 1002ca18     qt-mt323:qt-mt323.dll
 0002:00001a1c       __imp_?clearCell@QTable@@UAEXHH@Z 1002ca1c     qt-mt323:qt-mt323.dll
 0002:00001a20       __imp_?pixmap@QTable@@UBE?AVQPixmap@@HH@Z 1002ca20     qt-mt323:qt-mt323.dll
 0002:00001a24       __imp_?text@QTable@@UBE?AVQString@@HH@Z 1002ca24     qt-mt323:qt-mt323.dll
 0002:00001a28       __imp_?item@QTable@@UBEPAVQTableItem@@HH@Z 1002ca28     qt-mt323:qt-mt323.dll
 0002:00001a2c       __imp_?setPixmap@QTable@@UAEXHHABVQPixmap@@@Z 1002ca2c     qt-mt323:qt-mt323.dll
 0002:00001a30       __imp_?setText@QTable@@UAEXHHABVQString@@@Z 1002ca30     qt-mt323:qt-mt323.dll
 0002:00001a34       __imp_?setItem@QTable@@UAEXHHPAVQTableItem@@@Z 1002ca34     qt-mt323:qt-mt323.dll
 0002:00001a38       __imp_?setSelectionMode@QTable@@UAEXW4SelectionMode@1@@Z 1002ca38     qt-mt323:qt-mt323.dll
 0002:00001a3c       __imp_?viewportResizeEvent@QTable@@MAEXPAVQResizeEvent@@@Z 1002ca3c     qt-mt323:qt-mt323.dll
 0002:00001a40       __imp_?contentsContextMenuEvent@QTable@@MAEXPAVQContextMenuEvent@@@Z 1002ca40     qt-mt323:qt-mt323.dll
 0002:00001a44       __imp_?contentsDropEvent@QTable@@MAEXPAVQDropEvent@@@Z 1002ca44     qt-mt323:qt-mt323.dll
 0002:00001a48       __imp_?contentsDragLeaveEvent@QTable@@MAEXPAVQDragLeaveEvent@@@Z 1002ca48     qt-mt323:qt-mt323.dll
 0002:00001a4c       __imp_?contentsDragMoveEvent@QTable@@MAEXPAVQDragMoveEvent@@@Z 1002ca4c     qt-mt323:qt-mt323.dll
 0002:00001a50       __imp_?contentsDragEnterEvent@QTable@@MAEXPAVQDragEnterEvent@@@Z 1002ca50     qt-mt323:qt-mt323.dll
 0002:00001a54       __imp_?contentsMouseMoveEvent@QTable@@MAEXPAVQMouseEvent@@@Z 1002ca54     qt-mt323:qt-mt323.dll
 0002:00001a58       __imp_?contentsMouseDoubleClickEvent@QTable@@MAEXPAVQMouseEvent@@@Z 1002ca58     qt-mt323:qt-mt323.dll
 0002:00001a5c       __imp_?contentsMouseReleaseEvent@QTable@@MAEXPAVQMouseEvent@@@Z 1002ca5c     qt-mt323:qt-mt323.dll
 0002:00001a60       __imp_?contentsMousePressEvent@QTable@@MAEXPAVQMouseEvent@@@Z 1002ca60     qt-mt323:qt-mt323.dll
 0002:00001a64       __imp_?drawContents@QTable@@MAEXPAVQPainter@@HHHH@Z 1002ca64     qt-mt323:qt-mt323.dll
 0002:00001a68       __imp_?drawContents@QTable@@EAEXPAVQPainter@@@Z 1002ca68     qt-mt323:qt-mt323.dll
 0002:00001a6c       __imp_?windowActivationChange@QTable@@MAEX_N@Z 1002ca6c     qt-mt323:qt-mt323.dll
 0002:00001a70       __imp_?showEvent@QTable@@MAEXPAVQShowEvent@@@Z 1002ca70     qt-mt323:qt-mt323.dll
 0002:00001a74       __imp_?resizeEvent@QScrollView@@MAEXPAVQResizeEvent@@@Z 1002ca74     qt-mt323:qt-mt323.dll
 0002:00001a78       __imp_?paintEvent@QTable@@MAEXPAVQPaintEvent@@@Z 1002ca78     qt-mt323:qt-mt323.dll
 0002:00001a7c       __imp_?focusOutEvent@QTable@@MAEXPAVQFocusEvent@@@Z 1002ca7c     qt-mt323:qt-mt323.dll
 0002:00001a80       __imp_?focusInEvent@QTable@@MAEXPAVQFocusEvent@@@Z 1002ca80     qt-mt323:qt-mt323.dll
 0002:00001a84       __imp_?keyPressEvent@QTable@@MAEXPAVQKeyEvent@@@Z 1002ca84     qt-mt323:qt-mt323.dll
 0002:00001a88       __imp_?sizeHint@QTable@@UBE?AVQSize@@XZ 1002ca88     qt-mt323:qt-mt323.dll
 0002:00001a8c       __imp_?setEnabled@QTable@@UAEX_N@Z 1002ca8c     qt-mt323:qt-mt323.dll
 0002:00001a90       __imp_?eventFilter@QTable@@UAE_NPAVQObject@@PAVQEvent@@@Z 1002ca90     qt-mt323:qt-mt323.dll
 0002:00001a94       __imp_?qt_property@QTable@@UAE_NHHPAVQVariant@@@Z 1002ca94     qt-mt323:qt-mt323.dll
 0002:00001a98       __imp_?qt_emit@QTable@@UAE_NHPAUQUObject@@@Z 1002ca98     qt-mt323:qt-mt323.dll
 0002:00001a9c       __imp_?qt_invoke@QTable@@UAE_NHPAUQUObject@@@Z 1002ca9c     qt-mt323:qt-mt323.dll
 0002:00001aa0       __imp_?qt_cast@QTable@@UAEPAXPBD@Z 1002caa0     qt-mt323:qt-mt323.dll
 0002:00001aa4       __imp_?className@QTable@@UBEPBDXZ 1002caa4     qt-mt323:qt-mt323.dll
 0002:00001aa8       __imp_?metaObject@QTable@@UBEPAVQMetaObject@@XZ 1002caa8     qt-mt323:qt-mt323.dll
 0002:00001aac       __imp_?paintEmptyArea@QListView@@MAEXPAVQPainter@@ABVQRect@@@Z 1002caac     qt-mt323:qt-mt323.dll
 0002:00001ab0       __imp_?startDrag@QListView@@MAEXXZ 1002cab0     qt-mt323:qt-mt323.dll
 0002:00001ab4       __imp_?dragObject@QListView@@MAEPAVQDragObject@@XZ 1002cab4     qt-mt323:qt-mt323.dll
 0002:00001ab8       __imp_?selectAll@QListView@@UAEX_N@Z 1002cab8     qt-mt323:qt-mt323.dll
 0002:00001abc       __imp_?invertSelection@QListView@@UAEXXZ 1002cabc     qt-mt323:qt-mt323.dll
 0002:00001ac0       __imp_?clear@QListView@@UAEXXZ 1002cac0     qt-mt323:qt-mt323.dll
 0002:00001ac4       __imp_?setDefaultRenameAction@QListView@@UAEXW4RenameAction@1@@Z 1002cac4     qt-mt323:qt-mt323.dll
 0002:00001ac8       __imp_?setResizeMode@QListView@@UAEXW4ResizeMode@1@@Z 1002cac8     qt-mt323:qt-mt323.dll
 0002:00001acc       __imp_?setShowToolTips@QListView@@UAEX_N@Z 1002cacc     qt-mt323:qt-mt323.dll
 0002:00001ad0       __imp_?setShowSortIndicator@QListView@@UAEX_N@Z 1002cad0     qt-mt323:qt-mt323.dll
 0002:00001ad4       __imp_?sort@QListView@@UAEXXZ 1002cad4     qt-mt323:qt-mt323.dll
 0002:00001ad8       __imp_?setSorting@QListView@@UAEXH_N@Z 1002cad8     qt-mt323:qt-mt323.dll
 0002:00001adc       __imp_?setRootIsDecorated@QListView@@UAEX_N@Z 1002cadc     qt-mt323:qt-mt323.dll
 0002:00001ae0       __imp_?setItemMargin@QListView@@UAEXH@Z 1002cae0     qt-mt323:qt-mt323.dll
 0002:00001ae4       __imp_?setAllColumnsShowFocus@QListView@@UAEX_N@Z 1002cae4     qt-mt323:qt-mt323.dll
 0002:00001ae8       __imp_?setCurrentItem@QListView@@UAEXPAVQListViewItem@@@Z 1002cae8     qt-mt323:qt-mt323.dll
 0002:00001aec       __imp_?setOpen@QListView@@UAEXPAVQListViewItem@@_N@Z 1002caec     qt-mt323:qt-mt323.dll
 0002:00001af0       __imp_?setSelected@QListView@@UAEXPAVQListViewItem@@_N@Z 1002caf0     qt-mt323:qt-mt323.dll
 0002:00001af4       __imp_?clearSelection@QListView@@UAEXXZ 1002caf4     qt-mt323:qt-mt323.dll
 0002:00001af8       __imp_?setMultiSelection@QListView@@UAEX_N@Z 1002caf8     qt-mt323:qt-mt323.dll
 0002:00001afc       __imp_?setColumnAlignment@QListView@@UAEXHH@Z 1002cafc     qt-mt323:qt-mt323.dll
 0002:00001b00       __imp_?setColumnWidthMode@QListView@@UAEXHW4WidthMode@1@@Z 1002cb00     qt-mt323:qt-mt323.dll
 0002:00001b04       __imp_?setColumnWidth@QListView@@UAEXHH@Z 1002cb04     qt-mt323:qt-mt323.dll
 0002:00001b08       __imp_?setColumnText@QListView@@UAEXHABVQString@@@Z 1002cb08     qt-mt323:qt-mt323.dll
 0002:00001b0c       __imp_?setColumnText@QListView@@UAEXHABVQIconSet@@ABVQString@@@Z 1002cb0c     qt-mt323:qt-mt323.dll
 0002:00001b10       __imp_?removeColumn@QListView@@UAEXH@Z 1002cb10     qt-mt323:qt-mt323.dll
 0002:00001b14       __imp_?addColumn@QListView@@UAEHABVQString@@H@Z 1002cb14     qt-mt323:qt-mt323.dll
 0002:00001b18       __imp_?addColumn@QListView@@UAEHABVQIconSet@@ABVQString@@H@Z 1002cb18     qt-mt323:qt-mt323.dll
 0002:00001b1c       __imp_?removeItem@QListView@@UAEXPAVQListViewItem@@@Z 1002cb1c     qt-mt323:qt-mt323.dll
 0002:00001b20       __imp_?takeItem@QListView@@UAEXPAVQListViewItem@@@Z 1002cb20     qt-mt323:qt-mt323.dll
 0002:00001b24       __imp_?insertItem@QListView@@UAEXPAVQListViewItem@@@Z 1002cb24     qt-mt323:qt-mt323.dll
 0002:00001b28       __imp_?setTreeStepSize@QListView@@UAEXH@Z 1002cb28     qt-mt323:qt-mt323.dll
 0002:00001b2c       __imp_?viewportResizeEvent@QListView@@MAEXPAVQResizeEvent@@@Z 1002cb2c     qt-mt323:qt-mt323.dll
 0002:00001b30       __imp_?contentsContextMenuEvent@QListView@@MAEXPAVQContextMenuEvent@@@Z 1002cb30     qt-mt323:qt-mt323.dll
 0002:00001b34       __imp_?contentsWheelEvent@QScrollView@@MAEXPAVQWheelEvent@@@Z 1002cb34     qt-mt323:qt-mt323.dll
 0002:00001b38       __imp_?contentsDropEvent@QListView@@MAEXPAVQDropEvent@@@Z 1002cb38     qt-mt323:qt-mt323.dll
 0002:00001b3c       __imp_?contentsDragLeaveEvent@QListView@@MAEXPAVQDragLeaveEvent@@@Z 1002cb3c     qt-mt323:qt-mt323.dll
 0002:00001b40       __imp_?contentsDragMoveEvent@QListView@@MAEXPAVQDragMoveEvent@@@Z 1002cb40     qt-mt323:qt-mt323.dll
 0002:00001b44       __imp_?contentsDragEnterEvent@QListView@@MAEXPAVQDragEnterEvent@@@Z 1002cb44     qt-mt323:qt-mt323.dll
 0002:00001b48       __imp_?contentsMouseMoveEvent@QListView@@MAEXPAVQMouseEvent@@@Z 1002cb48     qt-mt323:qt-mt323.dll
 0002:00001b4c       __imp_?contentsMouseDoubleClickEvent@QListView@@MAEXPAVQMouseEvent@@@Z 1002cb4c     qt-mt323:qt-mt323.dll
 0002:00001b50       __imp_?contentsMouseReleaseEvent@QListView@@MAEXPAVQMouseEvent@@@Z 1002cb50     qt-mt323:qt-mt323.dll
 0002:00001b54       __imp_?contentsMousePressEvent@QListView@@MAEXPAVQMouseEvent@@@Z 1002cb54     qt-mt323:qt-mt323.dll
 0002:00001b58       __imp_?drawContentsOffset@QListView@@MAEXPAVQPainter@@HHHHHH@Z 1002cb58     qt-mt323:qt-mt323.dll
 0002:00001b5c       __imp_?drawContents@QScrollView@@MAEXPAVQPainter@@HHHH@Z 1002cb5c     qt-mt323:qt-mt323.dll
 0002:00001b60       __imp_?setContentsPos@QListView@@UAEXHH@Z 1002cb60     qt-mt323:qt-mt323.dll
 0002:00001b64       __imp_?drawContents@QScrollView@@EAEXPAVQPainter@@@Z 1002cb64     qt-mt323:qt-mt323.dll
 0002:00001b68       __imp_?focusNextPrevChild@QScrollView@@MAE_N_N@Z 1002cb68     qt-mt323:qt-mt323.dll
 0002:00001b6c       __imp_?windowActivationChange@QListView@@MAEX_N@Z 1002cb6c     qt-mt323:qt-mt323.dll
 0002:00001b70       __imp_?styleChange@QListView@@MAEXAAVQStyle@@@Z 1002cb70     qt-mt323:qt-mt323.dll
 0002:00001b74       __imp_?showEvent@QListView@@MAEXPAVQShowEvent@@@Z 1002cb74     qt-mt323:qt-mt323.dll
 0002:00001b78       __imp_?resizeEvent@QListView@@MAEXPAVQResizeEvent@@@Z 1002cb78     qt-mt323:qt-mt323.dll
 0002:00001b7c       __imp_?focusOutEvent@QListView@@MAEXPAVQFocusEvent@@@Z 1002cb7c     qt-mt323:qt-mt323.dll
 0002:00001b80       __imp_?focusInEvent@QListView@@MAEXPAVQFocusEvent@@@Z 1002cb80     qt-mt323:qt-mt323.dll
 0002:00001b84       __imp_?keyPressEvent@QListView@@MAEXPAVQKeyEvent@@@Z 1002cb84     qt-mt323:qt-mt323.dll
 0002:00001b88       __imp_?minimumSizeHint@QListView@@UBE?AVQSize@@XZ 1002cb88     qt-mt323:qt-mt323.dll
 0002:00001b8c       __imp_?sizeHint@QListView@@UBE?AVQSize@@XZ 1002cb8c     qt-mt323:qt-mt323.dll
 0002:00001b90       __imp_?show@QListView@@UAEXXZ 1002cb90     qt-mt323:qt-mt323.dll
 0002:00001b94       __imp_?setFont@QListView@@UAEXABVQFont@@@Z 1002cb94     qt-mt323:qt-mt323.dll
 0002:00001b98       __imp_?setPalette@QListView@@UAEXABVQPalette@@@Z 1002cb98     qt-mt323:qt-mt323.dll
 0002:00001b9c       __imp_?setEnabled@QScrollView@@UAEX_N@Z 1002cb9c     qt-mt323:qt-mt323.dll
 0002:00001ba0       __imp_?eventFilter@QListView@@UAE_NPAVQObject@@PAVQEvent@@@Z 1002cba0     qt-mt323:qt-mt323.dll
 0002:00001ba4       __imp_?qt_property@QListView@@UAE_NHHPAVQVariant@@@Z 1002cba4     qt-mt323:qt-mt323.dll
 0002:00001ba8       __imp_?qt_emit@QListView@@UAE_NHPAUQUObject@@@Z 1002cba8     qt-mt323:qt-mt323.dll
 0002:00001bac       __imp_?qt_invoke@QListView@@UAE_NHPAUQUObject@@@Z 1002cbac     qt-mt323:qt-mt323.dll
 0002:00001bb0       __imp_?qt_cast@QListView@@UAEPAXPBD@Z 1002cbb0     qt-mt323:qt-mt323.dll
 0002:00001bb4       __imp_?className@QListView@@UBEPBDXZ 1002cbb4     qt-mt323:qt-mt323.dll
 0002:00001bb8       __imp_?metaObject@QListView@@UBEPAVQMetaObject@@XZ 1002cbb8     qt-mt323:qt-mt323.dll
 0002:00001bbc       __imp_?outOfRange@QDateEdit@@MBE_NHHH@Z 1002cbbc     qt-mt323:qt-mt323.dll
 0002:00001bc0       __imp_?fix@QDateEdit@@MAEXXZ 1002cbc0     qt-mt323:qt-mt323.dll
 0002:00001bc4       __imp_?setDay@QDateEdit@@MAEXH@Z 1002cbc4     qt-mt323:qt-mt323.dll
 0002:00001bc8       __imp_?setMonth@QDateEdit@@MAEXH@Z 1002cbc8     qt-mt323:qt-mt323.dll
 0002:00001bcc       __imp_?setYear@QDateEdit@@MAEXH@Z 1002cbcc     qt-mt323:qt-mt323.dll
 0002:00001bd0       __imp_?setSeparator@QDateEdit@@UAEXABVQString@@@Z 1002cbd0     qt-mt323:qt-mt323.dll
 0002:00001bd4       __imp_?setRange@QDateEdit@@UAEXABVQDate@@0@Z 1002cbd4     qt-mt323:qt-mt323.dll
 0002:00001bd8       __imp_?setMaxValue@QDateEdit@@UAEXABVQDate@@@Z 1002cbd8     qt-mt323:qt-mt323.dll
 0002:00001bdc       __imp_?setMinValue@QDateEdit@@UAEXABVQDate@@@Z 1002cbdc     qt-mt323:qt-mt323.dll
 0002:00001be0       __imp_?setAutoAdvance@QDateEdit@@UAEX_N@Z 1002cbe0     qt-mt323:qt-mt323.dll
 0002:00001be4       __imp_?setOrder@QDateEdit@@UAEXW4Order@1@@Z 1002cbe4     qt-mt323:qt-mt323.dll
 0002:00001be8       __imp_?setDate@QDateEdit@@UAEXABVQDate@@@Z 1002cbe8     qt-mt323:qt-mt323.dll
 0002:00001bec       __imp_?stepDown@QDateEdit@@MAEXXZ 1002cbec     qt-mt323:qt-mt323.dll
 0002:00001bf0       __imp_?stepUp@QDateEdit@@MAEXXZ 1002cbf0     qt-mt323:qt-mt323.dll
 0002:00001bf4       __imp_?removeLastNumber@QDateEdit@@MAEXH@Z 1002cbf4     qt-mt323:qt-mt323.dll
 0002:00001bf8       __imp_?addNumber@QDateEdit@@MAEXHH@Z 1002cbf8     qt-mt323:qt-mt323.dll
 0002:00001bfc       __imp_?sectionFormattedText@QDateEdit@@MAE?AVQString@@H@Z 1002cbfc     qt-mt323:qt-mt323.dll
 0002:00001c00       __imp_?setFocusSection@QDateEdit@@MAE_NH@Z 1002cc00     qt-mt323:qt-mt323.dll
 0002:00001c04       __imp_?resizeEvent@QDateEdit@@MAEXPAVQResizeEvent@@@Z 1002cc04     qt-mt323:qt-mt323.dll
 0002:00001c08       __imp_?minimumSizeHint@QDateEdit@@UBE?AVQSize@@XZ 1002cc08     qt-mt323:qt-mt323.dll
 0002:00001c0c       __imp_?sizeHint@QDateEdit@@UBE?AVQSize@@XZ 1002cc0c     qt-mt323:qt-mt323.dll
 0002:00001c10       __imp_?timerEvent@QDateEdit@@MAEXPAVQTimerEvent@@@Z 1002cc10     qt-mt323:qt-mt323.dll
 0002:00001c14       __imp_?event@QDateEdit@@MAE_NPAVQEvent@@@Z 1002cc14     qt-mt323:qt-mt323.dll
 0002:00001c18       __imp_?qt_property@QDateEdit@@UAE_NHHPAVQVariant@@@Z 1002cc18     qt-mt323:qt-mt323.dll
 0002:00001c1c       __imp_?qt_emit@QDateEdit@@UAE_NHPAUQUObject@@@Z 1002cc1c     qt-mt323:qt-mt323.dll
 0002:00001c20       __imp_?qt_invoke@QDateEdit@@UAE_NHPAUQUObject@@@Z 1002cc20     qt-mt323:qt-mt323.dll
 0002:00001c24       __imp_?qt_cast@QDateEdit@@UAEPAXPBD@Z 1002cc24     qt-mt323:qt-mt323.dll
 0002:00001c28       __imp_?className@QDateEdit@@UBEPBDXZ 1002cc28     qt-mt323:qt-mt323.dll
 0002:00001c2c       __imp_?metaObject@QDateEdit@@UBEPAVQMetaObject@@XZ 1002cc2c     qt-mt323:qt-mt323.dll
 0002:00001c30       __imp_?setOn@QToolButton@@UAEX_N@Z 1002cc30     qt-mt323:qt-mt323.dll
 0002:00001c34       __imp_?setToggleButton@QToolButton@@UAEX_N@Z 1002cc34     qt-mt323:qt-mt323.dll
 0002:00001c38       __imp_?setTextLabel@QToolButton@@UAEXABVQString@@_N@Z 1002cc38     qt-mt323:qt-mt323.dll
 0002:00001c3c       __imp_?setUsesTextLabel@QToolButton@@UAEX_N@Z 1002cc3c     qt-mt323:qt-mt323.dll
 0002:00001c40       __imp_?setUsesBigPixmap@QToolButton@@UAEX_N@Z 1002cc40     qt-mt323:qt-mt323.dll
 0002:00001c44       __imp_?setIconSet@QToolButton@@UAEXABVQIconSet@@@Z 1002cc44     qt-mt323:qt-mt323.dll
 0002:00001c48       __imp_?drawButtonLabel@QToolButton@@MAEXPAVQPainter@@@Z 1002cc48     qt-mt323:qt-mt323.dll
 0002:00001c4c       __imp_?drawButton@QToolButton@@MAEXPAVQPainter@@@Z 1002cc4c     qt-mt323:qt-mt323.dll
 0002:00001c50       __imp_?setText@QToolButton@@UAEXABVQString@@@Z 1002cc50     qt-mt323:qt-mt323.dll
 0002:00001c54       __imp_?paletteChange@QToolButton@@MAEXABVQPalette@@@Z 1002cc54     qt-mt323:qt-mt323.dll
 0002:00001c58       __imp_?moveEvent@QToolButton@@MAEXPAVQMoveEvent@@@Z 1002cc58     qt-mt323:qt-mt323.dll
 0002:00001c5c       __imp_?leaveEvent@QToolButton@@MAEXPAVQEvent@@@Z 1002cc5c     qt-mt323:qt-mt323.dll
 0002:00001c60       __imp_?enterEvent@QToolButton@@MAEXPAVQEvent@@@Z 1002cc60     qt-mt323:qt-mt323.dll
 0002:00001c64       __imp_?mousePressEvent@QToolButton@@MAEXPAVQMouseEvent@@@Z 1002cc64     qt-mt323:qt-mt323.dll
 0002:00001c68       __imp_?minimumSizeHint@QToolButton@@UBE?AVQSize@@XZ 1002cc68     qt-mt323:qt-mt323.dll
 0002:00001c6c       __imp_?sizeHint@QToolButton@@UBE?AVQSize@@XZ 1002cc6c     qt-mt323:qt-mt323.dll
 0002:00001c70       __imp_?eventFilter@QToolButton@@MAE_NPAVQObject@@PAVQEvent@@@Z 1002cc70     qt-mt323:qt-mt323.dll
 0002:00001c74       __imp_?qt_property@QToolButton@@UAE_NHHPAVQVariant@@@Z 1002cc74     qt-mt323:qt-mt323.dll
 0002:00001c78       __imp_?qt_emit@QToolButton@@UAE_NHPAUQUObject@@@Z 1002cc78     qt-mt323:qt-mt323.dll
 0002:00001c7c       __imp_?qt_invoke@QToolButton@@UAE_NHPAUQUObject@@@Z 1002cc7c     qt-mt323:qt-mt323.dll
 0002:00001c80       __imp_?qt_cast@QToolButton@@UAEPAXPBD@Z 1002cc80     qt-mt323:qt-mt323.dll
 0002:00001c84       __imp_?className@QToolButton@@UBEPBDXZ 1002cc84     qt-mt323:qt-mt323.dll
 0002:00001c88       __imp_?metaObject@QToolButton@@UBEPAVQMetaObject@@XZ 1002cc88     qt-mt323:qt-mt323.dll
 0002:00001c8c       __imp_?createPopupMenu@QLineEdit@@MAEPAVQPopupMenu@@XZ 1002cc8c     qt-mt323:qt-mt323.dll
 0002:00001c90       __imp_?setDragEnabled@QLineEdit@@UAEX_N@Z 1002cc90     qt-mt323:qt-mt323.dll
 0002:00001c94       __imp_?paste@QLineEdit@@UAEXXZ 1002cc94     qt-mt323:qt-mt323.dll
 0002:00001c98       __imp_?copy@QLineEdit@@UBEXXZ 1002cc98     qt-mt323:qt-mt323.dll
 0002:00001c9c       __imp_?cut@QLineEdit@@UAEXXZ 1002cc9c     qt-mt323:qt-mt323.dll
 0002:00001ca0       __imp_?setAlignment@QLineEdit@@UAEXH@Z 1002cca0     qt-mt323:qt-mt323.dll
 0002:00001ca4       __imp_?setCursorPosition@QLineEdit@@UAEXH@Z 1002cca4     qt-mt323:qt-mt323.dll
 0002:00001ca8       __imp_?setSelection@QLineEdit@@UAEXHH@Z 1002cca8     qt-mt323:qt-mt323.dll
 0002:00001cac       __imp_?setValidator@QLineEdit@@UAEXPBVQValidator@@@Z 1002ccac     qt-mt323:qt-mt323.dll
 0002:00001cb0       __imp_?setReadOnly@QLineEdit@@UAEX_N@Z 1002ccb0     qt-mt323:qt-mt323.dll
 0002:00001cb4       __imp_?setEchoMode@QLineEdit@@UAEXW4EchoMode@1@@Z 1002ccb4     qt-mt323:qt-mt323.dll
 0002:00001cb8       __imp_?setFrame@QLineEdit@@UAEX_N@Z 1002ccb8     qt-mt323:qt-mt323.dll
 0002:00001cbc       __imp_?setMaxLength@QLineEdit@@UAEXH@Z 1002ccbc     qt-mt323:qt-mt323.dll
 0002:00001cc0       __imp_?redo@QLineEdit@@UAEXXZ 1002ccc0     qt-mt323:qt-mt323.dll
 0002:00001cc4       __imp_?undo@QLineEdit@@UAEXXZ 1002ccc4     qt-mt323:qt-mt323.dll
 0002:00001cc8       __imp_?clear@QLineEdit@@UAEXXZ 1002ccc8     qt-mt323:qt-mt323.dll
 0002:00001ccc       __imp_?insert@QLineEdit@@UAEXABVQString@@@Z 1002cccc     qt-mt323:qt-mt323.dll
 0002:00001cd0       __imp_?clearValidator@QLineEdit@@UAEXXZ 1002ccd0     qt-mt323:qt-mt323.dll
 0002:00001cd4       __imp_?deselect@QLineEdit@@UAEXXZ 1002ccd4     qt-mt323:qt-mt323.dll
 0002:00001cd8       __imp_?selectAll@QLineEdit@@UAEXXZ 1002ccd8     qt-mt323:qt-mt323.dll
 0002:00001cdc       __imp_?setText@QLineEdit@@UAEXABVQString@@@Z 1002ccdc     qt-mt323:qt-mt323.dll
 0002:00001ce0       __imp_?drawContents@QLineEdit@@MAEXPAVQPainter@@@Z 1002cce0     qt-mt323:qt-mt323.dll
 0002:00001ce4       __imp_?windowActivationChange@QLineEdit@@MAEX_N@Z 1002cce4     qt-mt323:qt-mt323.dll
 0002:00001ce8       __imp_?dropEvent@QLineEdit@@MAEXPAVQDropEvent@@@Z 1002cce8     qt-mt323:qt-mt323.dll
 0002:00001cec       __imp_?dragLeaveEvent@QLineEdit@@MAEXPAVQDragLeaveEvent@@@Z 1002ccec     qt-mt323:qt-mt323.dll
 0002:00001cf0       __imp_?dragMoveEvent@QLineEdit@@MAEXPAVQDragMoveEvent@@@Z 1002ccf0     qt-mt323:qt-mt323.dll
 0002:00001cf4       __imp_?dragEnterEvent@QLineEdit@@MAEXPAVQDragEnterEvent@@@Z 1002ccf4     qt-mt323:qt-mt323.dll
 0002:00001cf8       __imp_?imEndEvent@QLineEdit@@MAEXPAVQIMEvent@@@Z 1002ccf8     qt-mt323:qt-mt323.dll
 0002:00001cfc       __imp_?imComposeEvent@QLineEdit@@MAEXPAVQIMEvent@@@Z 1002ccfc     qt-mt323:qt-mt323.dll
 0002:00001d00       __imp_?imStartEvent@QLineEdit@@MAEXPAVQIMEvent@@@Z 1002cd00     qt-mt323:qt-mt323.dll
 0002:00001d04       __imp_?contextMenuEvent@QLineEdit@@MAEXPAVQContextMenuEvent@@@Z 1002cd04     qt-mt323:qt-mt323.dll
 0002:00001d08       __imp_?resizeEvent@QLineEdit@@MAEXPAVQResizeEvent@@@Z 1002cd08     qt-mt323:qt-mt323.dll
 0002:00001d0c       __imp_?focusOutEvent@QLineEdit@@MAEXPAVQFocusEvent@@@Z 1002cd0c     qt-mt323:qt-mt323.dll
 0002:00001d10       __imp_?focusInEvent@QLineEdit@@MAEXPAVQFocusEvent@@@Z 1002cd10     qt-mt323:qt-mt323.dll
 0002:00001d14       __imp_?keyPressEvent@QLineEdit@@MAEXPAVQKeyEvent@@@Z 1002cd14     qt-mt323:qt-mt323.dll
 0002:00001d18       __imp_?mouseMoveEvent@QLineEdit@@MAEXPAVQMouseEvent@@@Z 1002cd18     qt-mt323:qt-mt323.dll
 0002:00001d1c       __imp_?mouseDoubleClickEvent@QLineEdit@@MAEXPAVQMouseEvent@@@Z 1002cd1c     qt-mt323:qt-mt323.dll
 0002:00001d20       __imp_?mouseReleaseEvent@QLineEdit@@MAEXPAVQMouseEvent@@@Z 1002cd20     qt-mt323:qt-mt323.dll
 0002:00001d24       __imp_?mousePressEvent@QLineEdit@@MAEXPAVQMouseEvent@@@Z 1002cd24     qt-mt323:qt-mt323.dll
 0002:00001d28       __imp_?minimumSizeHint@QLineEdit@@UBE?AVQSize@@XZ 1002cd28     qt-mt323:qt-mt323.dll
 0002:00001d2c       __imp_?sizeHint@QLineEdit@@UBE?AVQSize@@XZ 1002cd2c     qt-mt323:qt-mt323.dll
 0002:00001d30       __imp_?setFont@QLineEdit@@UAEXABVQFont@@@Z 1002cd30     qt-mt323:qt-mt323.dll
 0002:00001d34       __imp_?setPalette@QLineEdit@@UAEXABVQPalette@@@Z 1002cd34     qt-mt323:qt-mt323.dll
 0002:00001d38       __imp_?event@QLineEdit@@MAE_NPAVQEvent@@@Z 1002cd38     qt-mt323:qt-mt323.dll
 0002:00001d3c       __imp_?qt_property@QLineEdit@@UAE_NHHPAVQVariant@@@Z 1002cd3c     qt-mt323:qt-mt323.dll
 0002:00001d40       __imp_?qt_emit@QLineEdit@@UAE_NHPAUQUObject@@@Z 1002cd40     qt-mt323:qt-mt323.dll
 0002:00001d44       __imp_?qt_invoke@QLineEdit@@UAE_NHPAUQUObject@@@Z 1002cd44     qt-mt323:qt-mt323.dll
 0002:00001d48       __imp_?qt_cast@QLineEdit@@UAEPAXPBD@Z 1002cd48     qt-mt323:qt-mt323.dll
 0002:00001d4c       __imp_?className@QLineEdit@@UBEPBDXZ 1002cd4c     qt-mt323:qt-mt323.dll
 0002:00001d50       __imp_?metaObject@QLineEdit@@UBEPAVQMetaObject@@XZ 1002cd50     qt-mt323:qt-mt323.dll
 0002:00001d54       __imp_?setAlignment@QGroupBox@@UAEXH@Z 1002cd54     qt-mt323:qt-mt323.dll
 0002:00001d58       __imp_?setTitle@QGroupBox@@UAEXABVQString@@@Z 1002cd58     qt-mt323:qt-mt323.dll
 0002:00001d5c       __imp_?setColumnLayout@QGroupBox@@UAEXHW4Orientation@Qt@@@Z 1002cd5c     qt-mt323:qt-mt323.dll
 0002:00001d60       __imp_?drawContents@QFrame@@MAEXPAVQPainter@@@Z 1002cd60     qt-mt323:qt-mt323.dll
 0002:00001d64       __imp_?fontChange@QGroupBox@@MAEXABVQFont@@@Z 1002cd64     qt-mt323:qt-mt323.dll
 0002:00001d68       __imp_?resizeEvent@QGroupBox@@MAEXPAVQResizeEvent@@@Z 1002cd68     qt-mt323:qt-mt323.dll
 0002:00001d6c       __imp_?paintEvent@QGroupBox@@MAEXPAVQPaintEvent@@@Z 1002cd6c     qt-mt323:qt-mt323.dll
 0002:00001d70       __imp_?focusInEvent@QGroupBox@@MAEXPAVQFocusEvent@@@Z 1002cd70     qt-mt323:qt-mt323.dll
 0002:00001d74       __imp_?sizeHint@QGroupBox@@UBE?AVQSize@@XZ 1002cd74     qt-mt323:qt-mt323.dll
 0002:00001d78       __imp_?setEnabled@QGroupBox@@UAEX_N@Z 1002cd78     qt-mt323:qt-mt323.dll
 0002:00001d7c       __imp_?childEvent@QGroupBox@@MAEXPAVQChildEvent@@@Z 1002cd7c     qt-mt323:qt-mt323.dll
 0002:00001d80       __imp_?event@QGroupBox@@MAE_NPAVQEvent@@@Z 1002cd80     qt-mt323:qt-mt323.dll
 0002:00001d84       __imp_?qt_property@QGroupBox@@UAE_NHHPAVQVariant@@@Z 1002cd84     qt-mt323:qt-mt323.dll
 0002:00001d88       __imp_?qt_emit@QGroupBox@@UAE_NHPAUQUObject@@@Z 1002cd88     qt-mt323:qt-mt323.dll
 0002:00001d8c       __imp_?qt_invoke@QGroupBox@@UAE_NHPAUQUObject@@@Z 1002cd8c     qt-mt323:qt-mt323.dll
 0002:00001d90       __imp_?qt_cast@QGroupBox@@UAEPAXPBD@Z 1002cd90     qt-mt323:qt-mt323.dll
 0002:00001d94       __imp_?className@QGroupBox@@UBEPBDXZ 1002cd94     qt-mt323:qt-mt323.dll
 0002:00001d98       __imp_?metaObject@QGroupBox@@UBEPAVQMetaObject@@XZ 1002cd98     qt-mt323:qt-mt323.dll
 0002:00001d9c       __imp_?stepChange@QRangeControl@@MAEXXZ 1002cd9c     qt-mt323:qt-mt323.dll
 0002:00001da0       __imp_?rangeChange@QSpinBox@@MAEXXZ 1002cda0     qt-mt323:qt-mt323.dll
 0002:00001da4       __imp_?valueChange@QSpinBox@@MAEXXZ 1002cda4     qt-mt323:qt-mt323.dll
 0002:00001da8       __imp_?interpretText@QSpinBox@@MAEXXZ 1002cda8     qt-mt323:qt-mt323.dll
 0002:00001dac       __imp_?updateDisplay@QSpinBox@@MAEXXZ 1002cdac     qt-mt323:qt-mt323.dll
 0002:00001db0       __imp_?mapTextToValue@QSpinBox@@MAEHPA_N@Z 1002cdb0     qt-mt323:qt-mt323.dll
 0002:00001db4       __imp_?mapValueToText@QSpinBox@@MAE?AVQString@@H@Z 1002cdb4     qt-mt323:qt-mt323.dll
 0002:00001db8       __imp_?selectAll@QSpinBox@@UAEXXZ 1002cdb8     qt-mt323:qt-mt323.dll
 0002:00001dbc       __imp_?stepDown@QSpinBox@@UAEXXZ 1002cdbc     qt-mt323:qt-mt323.dll
 0002:00001dc0       __imp_?stepUp@QSpinBox@@UAEXXZ 1002cdc0     qt-mt323:qt-mt323.dll
 0002:00001dc4       __imp_?setSuffix@QSpinBox@@UAEXABVQString@@@Z 1002cdc4     qt-mt323:qt-mt323.dll
 0002:00001dc8       __imp_?setPrefix@QSpinBox@@UAEXABVQString@@@Z 1002cdc8     qt-mt323:qt-mt323.dll
 0002:00001dcc       __imp_?setValue@QSpinBox@@UAEXH@Z 1002cdcc     qt-mt323:qt-mt323.dll
 0002:00001dd0       __imp_?setValidator@QSpinBox@@UAEXPBVQValidator@@@Z 1002cdd0     qt-mt323:qt-mt323.dll
 0002:00001dd4       __imp_?setButtonSymbols@QSpinBox@@UAEXW4ButtonSymbols@1@@Z 1002cdd4     qt-mt323:qt-mt323.dll
 0002:00001dd8       __imp_?setWrapping@QSpinBox@@UAEX_N@Z 1002cdd8     qt-mt323:qt-mt323.dll
 0002:00001ddc       __imp_?setSpecialValueText@QSpinBox@@UAEXABVQString@@@Z 1002cddc     qt-mt323:qt-mt323.dll
 0002:00001de0       __imp_?cleanText@QSpinBox@@UBE?AVQString@@XZ 1002cde0     qt-mt323:qt-mt323.dll
 0002:00001de4       __imp_?suffix@QSpinBox@@UBE?AVQString@@XZ 1002cde4     qt-mt323:qt-mt323.dll
 0002:00001de8       __imp_?prefix@QSpinBox@@UBE?AVQString@@XZ 1002cde8     qt-mt323:qt-mt323.dll
 0002:00001dec       __imp_?styleChange@QSpinBox@@MAEXAAVQStyle@@@Z 1002cdec     qt-mt323:qt-mt323.dll
 0002:00001df0       __imp_?resizeEvent@QSpinBox@@MAEXPAVQResizeEvent@@@Z 1002cdf0     qt-mt323:qt-mt323.dll
 0002:00001df4       __imp_?leaveEvent@QSpinBox@@MAEXPAVQEvent@@@Z 1002cdf4     qt-mt323:qt-mt323.dll
 0002:00001df8       __imp_?wheelEvent@QSpinBox@@MAEXPAVQWheelEvent@@@Z 1002cdf8     qt-mt323:qt-mt323.dll
 0002:00001dfc       __imp_?minimumSizeHint@QSpinBox@@UBE?AVQSize@@XZ 1002cdfc     qt-mt323:qt-mt323.dll
 0002:00001e00       __imp_?sizeHint@QSpinBox@@UBE?AVQSize@@XZ 1002ce00     qt-mt323:qt-mt323.dll
 0002:00001e04       __imp_?setEnabled@QSpinBox@@UAEX_N@Z 1002ce04     qt-mt323:qt-mt323.dll
 0002:00001e08       __imp_?eventFilter@QSpinBox@@MAE_NPAVQObject@@PAVQEvent@@@Z 1002ce08     qt-mt323:qt-mt323.dll
 0002:00001e0c       __imp_?qt_property@QSpinBox@@UAE_NHHPAVQVariant@@@Z 1002ce0c     qt-mt323:qt-mt323.dll
 0002:00001e10       __imp_?qt_emit@QSpinBox@@UAE_NHPAUQUObject@@@Z 1002ce10     qt-mt323:qt-mt323.dll
 0002:00001e14       __imp_?qt_invoke@QSpinBox@@UAE_NHPAUQUObject@@@Z 1002ce14     qt-mt323:qt-mt323.dll
 0002:00001e18       __imp_?qt_cast@QSpinBox@@UAEPAXPBD@Z 1002ce18     qt-mt323:qt-mt323.dll
 0002:00001e1c       __imp_?className@QSpinBox@@UBEPBDXZ 1002ce1c     qt-mt323:qt-mt323.dll
 0002:00001e20       __imp_?metaObject@QSpinBox@@UBEPAVQMetaObject@@XZ 1002ce20     qt-mt323:qt-mt323.dll
 0002:00001e24       __imp_?setNum@QLabel@@UAEXH@Z 1002ce24     qt-mt323:qt-mt323.dll
 0002:00001e28       __imp_?setNum@QLabel@@UAEXN@Z 1002ce28     qt-mt323:qt-mt323.dll
 0002:00001e2c       __imp_?setMovie@QLabel@@UAEXABVQMovie@@@Z 1002ce2c     qt-mt323:qt-mt323.dll
 0002:00001e30       __imp_?setPicture@QLabel@@UAEXABVQPicture@@@Z 1002ce30     qt-mt323:qt-mt323.dll
 0002:00001e34       __imp_?setPixmap@QLabel@@UAEXABVQPixmap@@@Z 1002ce34     qt-mt323:qt-mt323.dll
 0002:00001e38       __imp_?setText@QLabel@@UAEXABVQString@@@Z 1002ce38     qt-mt323:qt-mt323.dll
 0002:00001e3c       __imp_?setBuddy@QLabel@@UAEXPAVQWidget@@@Z 1002ce3c     qt-mt323:qt-mt323.dll
 0002:00001e40       __imp_?setAutoResize@QLabel@@UAEX_N@Z 1002ce40     qt-mt323:qt-mt323.dll
 0002:00001e44       __imp_?setAlignment@QLabel@@UAEXH@Z 1002ce44     qt-mt323:qt-mt323.dll
 0002:00001e48       __imp_?drawContents@QLabel@@MAEXPAVQPainter@@@Z 1002ce48     qt-mt323:qt-mt323.dll
 0002:00001e4c       __imp_?fontChange@QLabel@@MAEXABVQFont@@@Z 1002ce4c     qt-mt323:qt-mt323.dll
 0002:00001e50       __imp_?styleChange@QFrame@@MAEXAAVQStyle@@@Z 1002ce50     qt-mt323:qt-mt323.dll
 0002:00001e54       __imp_?resizeEvent@QLabel@@MAEXPAVQResizeEvent@@@Z 1002ce54     qt-mt323:qt-mt323.dll
 0002:00001e58       __imp_?heightForWidth@QLabel@@UBEHH@Z 1002ce58     qt-mt323:qt-mt323.dll
 0002:00001e5c       __imp_?minimumSizeHint@QLabel@@UBE?AVQSize@@XZ 1002ce5c     qt-mt323:qt-mt323.dll
 0002:00001e60       __imp_?sizeHint@QLabel@@UBE?AVQSize@@XZ 1002ce60     qt-mt323:qt-mt323.dll
 0002:00001e64       __imp_?setFont@QLabel@@UAEXABVQFont@@@Z 1002ce64     qt-mt323:qt-mt323.dll
 0002:00001e68       __imp_?qt_property@QLabel@@UAE_NHHPAVQVariant@@@Z 1002ce68     qt-mt323:qt-mt323.dll
 0002:00001e6c       __imp_?qt_emit@QLabel@@UAE_NHPAUQUObject@@@Z 1002ce6c     qt-mt323:qt-mt323.dll
 0002:00001e70       __imp_?qt_invoke@QLabel@@UAE_NHPAUQUObject@@@Z 1002ce70     qt-mt323:qt-mt323.dll
 0002:00001e74       __imp_?qt_cast@QLabel@@UAEPAXPBD@Z 1002ce74     qt-mt323:qt-mt323.dll
 0002:00001e78       __imp_?className@QLabel@@UBEPBDXZ 1002ce78     qt-mt323:qt-mt323.dll
 0002:00001e7c       __imp_?metaObject@QLabel@@UBEPAVQMetaObject@@XZ 1002ce7c     qt-mt323:qt-mt323.dll
 0002:00001e80       __imp_?setSecond@QTimeEdit@@MAEXH@Z 1002ce80     qt-mt323:qt-mt323.dll
 0002:00001e84       __imp_?setMinute@QTimeEdit@@MAEXH@Z 1002ce84     qt-mt323:qt-mt323.dll
 0002:00001e88       __imp_?setHour@QTimeEdit@@MAEXH@Z 1002ce88     qt-mt323:qt-mt323.dll
 0002:00001e8c       __imp_?outOfRange@QTimeEdit@@MBE_NHHH@Z 1002ce8c     qt-mt323:qt-mt323.dll
 0002:00001e90       __imp_?setSeparator@QTimeEdit@@UAEXABVQString@@@Z 1002ce90     qt-mt323:qt-mt323.dll
 0002:00001e94       __imp_?setRange@QTimeEdit@@UAEXABVQTime@@0@Z 1002ce94     qt-mt323:qt-mt323.dll
 0002:00001e98       __imp_?setMaxValue@QTimeEdit@@UAEXABVQTime@@@Z 1002ce98     qt-mt323:qt-mt323.dll
 0002:00001e9c       __imp_?setMinValue@QTimeEdit@@UAEXABVQTime@@@Z 1002ce9c     qt-mt323:qt-mt323.dll
 0002:00001ea0       __imp_?setAutoAdvance@QTimeEdit@@UAEX_N@Z 1002cea0     qt-mt323:qt-mt323.dll
 0002:00001ea4       __imp_?setTime@QTimeEdit@@UAEXABVQTime@@@Z 1002cea4     qt-mt323:qt-mt323.dll
 0002:00001ea8       __imp_?stepDown@QTimeEdit@@MAEXXZ 1002cea8     qt-mt323:qt-mt323.dll
 0002:00001eac       __imp_?stepUp@QTimeEdit@@MAEXXZ 1002ceac     qt-mt323:qt-mt323.dll
 0002:00001eb0       __imp_?removeLastNumber@QTimeEdit@@MAEXH@Z 1002ceb0     qt-mt323:qt-mt323.dll
 0002:00001eb4       __imp_?addNumber@QTimeEdit@@MAEXHH@Z 1002ceb4     qt-mt323:qt-mt323.dll
 0002:00001eb8       __imp_?sectionFormattedText@QTimeEdit@@MAE?AVQString@@H@Z 1002ceb8     qt-mt323:qt-mt323.dll
 0002:00001ebc       __imp_?setFocusSection@QTimeEdit@@MAE_NH@Z 1002cebc     qt-mt323:qt-mt323.dll
 0002:00001ec0       __imp_?resizeEvent@QTimeEdit@@MAEXPAVQResizeEvent@@@Z 1002cec0     qt-mt323:qt-mt323.dll
 0002:00001ec4       __imp_?minimumSizeHint@QTimeEdit@@UBE?AVQSize@@XZ 1002cec4     qt-mt323:qt-mt323.dll
 0002:00001ec8       __imp_?sizeHint@QTimeEdit@@UBE?AVQSize@@XZ 1002cec8     qt-mt323:qt-mt323.dll
 0002:00001ecc       __imp_?timerEvent@QTimeEdit@@MAEXPAVQTimerEvent@@@Z 1002cecc     qt-mt323:qt-mt323.dll
 0002:00001ed0       __imp_?event@QTimeEdit@@MAE_NPAVQEvent@@@Z 1002ced0     qt-mt323:qt-mt323.dll
 0002:00001ed4       __imp_?qt_property@QTimeEdit@@UAE_NHHPAVQVariant@@@Z 1002ced4     qt-mt323:qt-mt323.dll
 0002:00001ed8       __imp_?qt_emit@QTimeEdit@@UAE_NHPAUQUObject@@@Z 1002ced8     qt-mt323:qt-mt323.dll
 0002:00001edc       __imp_?qt_invoke@QTimeEdit@@UAE_NHPAUQUObject@@@Z 1002cedc     qt-mt323:qt-mt323.dll
 0002:00001ee0       __imp_?qt_cast@QTimeEdit@@UAEPAXPBD@Z 1002cee0     qt-mt323:qt-mt323.dll
 0002:00001ee4       __imp_?className@QTimeEdit@@UBEPBDXZ 1002cee4     qt-mt323:qt-mt323.dll
 0002:00001ee8       __imp_?metaObject@QTimeEdit@@UBEPAVQMetaObject@@XZ 1002cee8     qt-mt323:qt-mt323.dll
 0002:00001eec       __imp_??0QLabel@@QAE@PAVQWidget@@PBDI@Z 1002ceec     qt-mt323:qt-mt323.dll
 0002:00001ef0       __imp_?look_string@QGDict@@QAEPAXABVQString@@PAXH@Z 1002cef0     qt-mt323:qt-mt323.dll
 0002:00001ef4       __imp_?queryUnknownInterface@QGPluginManager@@IBEKABVQString@@PAPAUQUnknownInterface@@@Z 1002cef4     qt-mt323:qt-mt323.dll
 0002:00001ef8       __imp_??0QDataTable@@QAE@PAVQWidget@@PBD@Z 1002cef8     qt-mt323:qt-mt323.dll
 0002:00001efc       __imp_?statusBar@QMainWindow@@QBEPAVQStatusBar@@XZ 1002cefc     qt-mt323:qt-mt323.dll
 0002:00001f00       __imp_??0QMainWindow@@QAE@PAVQWidget@@PBDI@Z 1002cf00     qt-mt323:qt-mt323.dll
 0002:00001f04       __imp_??0QGrid@@QAE@HPAVQWidget@@PBDI@Z 1002cf04     qt-mt323:qt-mt323.dll
 0002:00001f08       __imp_??0QHBox@@QAE@PAVQWidget@@PBDI@Z 1002cf08     qt-mt323:qt-mt323.dll
 0002:00001f0c       __imp_??0QVBox@@QAE@PAVQWidget@@PBDI@Z 1002cf0c     qt-mt323:qt-mt323.dll
 0002:00001f10       __imp_??0QToolBox@@QAE@PAVQWidget@@PBDI@Z 1002cf10     qt-mt323:qt-mt323.dll
 0002:00001f14       __imp_??0QWidgetStack@@QAE@PAVQWidget@@PBD@Z 1002cf14     qt-mt323:qt-mt323.dll
 0002:00001f18       __imp_??0QScrollBar@@QAE@PAVQWidget@@PBD@Z 1002cf18     qt-mt323:qt-mt323.dll
 0002:00001f1c       __imp_??0QDateTimeEdit@@QAE@PAVQWidget@@PBD@Z 1002cf1c     qt-mt323:qt-mt323.dll
 0002:00001f20       __imp_??0QTimeEdit@@QAE@PAVQWidget@@PBD@Z 1002cf20     qt-mt323:qt-mt323.dll
 0002:00001f24       __imp_??0QDateEdit@@QAE@PAVQWidget@@PBD@Z 1002cf24     qt-mt323:qt-mt323.dll
 0002:00001f28       __imp_??0QSplitter@@QAE@PAVQWidget@@PBD@Z 1002cf28     qt-mt323:qt-mt323.dll
 0002:00001f2c       __imp_??0QFrame@@QAE@PAVQWidget@@PBDI@Z 1002cf2c     qt-mt323:qt-mt323.dll
 0002:00001f30       __imp_??0QSlider@@QAE@PAVQWidget@@PBD@Z 1002cf30     qt-mt323:qt-mt323.dll
 0002:00001f34       __imp_??0QDial@@QAE@PAVQWidget@@PBDI@Z 1002cf34     qt-mt323:qt-mt323.dll
 0002:00001f38       __imp_??0QTextBrowser@@QAE@PAVQWidget@@PBD@Z 1002cf38     qt-mt323:qt-mt323.dll
 0002:00001f3c       __imp_??0QTextView@@QAE@PAVQWidget@@PBD@Z 1002cf3c     qt-mt323:qt-mt323.dll
 0002:00001f40       __imp_??0QProgressBar@@QAE@PAVQWidget@@PBDI@Z 1002cf40     qt-mt323:qt-mt323.dll
 0002:00001f44       __imp_??0QLCDNumber@@QAE@PAVQWidget@@PBD@Z 1002cf44     qt-mt323:qt-mt323.dll
 0002:00001f48       __imp_??0QWizard@@QAE@PAVQWidget@@PBD_NI@Z 1002cf48     qt-mt323:qt-mt323.dll
 0002:00001f4c       __imp_??0QComboBox@@QAE@_NPAVQWidget@@PBD@Z 1002cf4c     qt-mt323:qt-mt323.dll
 0002:00001f50       __imp_??0QTabWidget@@QAE@PAVQWidget@@PBDI@Z 1002cf50     qt-mt323:qt-mt323.dll
 0002:00001f54       __imp_??0QMultiLineEdit@@QAE@PAVQWidget@@PBD@Z 1002cf54     qt-mt323:qt-mt323.dll
 0002:00001f58       __imp_??0QSpinBox@@QAE@PAVQWidget@@PBD@Z 1002cf58     qt-mt323:qt-mt323.dll
 0002:00001f5c       __imp_??0QLineEdit@@QAE@PAVQWidget@@PBD@Z 1002cf5c     qt-mt323:qt-mt323.dll
 0002:00001f60       __imp_??0QListView@@QAE@PAVQWidget@@PBDI@Z 1002cf60     qt-mt323:qt-mt323.dll
 0002:00001f64       __imp_??0QListBox@@QAE@PAVQWidget@@PBDI@Z 1002cf64     qt-mt323:qt-mt323.dll
 0002:00001f68       __imp_??0QTable@@QAE@PAVQWidget@@PBD@Z 1002cf68     qt-mt323:qt-mt323.dll
 0002:00001f6c       __imp_??0QIconView@@QAE@PAVQWidget@@PBDI@Z 1002cf6c     qt-mt323:qt-mt323.dll
 0002:00001f70       __imp_??0QButtonGroup@@QAE@PAVQWidget@@PBD@Z 1002cf70     qt-mt323:qt-mt323.dll
 0002:00001f74       __imp_??0QGroupBox@@QAE@PAVQWidget@@PBD@Z 1002cf74     qt-mt323:qt-mt323.dll
 0002:00001f78       __imp_??0QRadioButton@@QAE@PAVQWidget@@PBD@Z 1002cf78     qt-mt323:qt-mt323.dll
 0002:00001f7c       __imp_??0QToolButton@@QAE@PAVQWidget@@PBD@Z 1002cf7c     qt-mt323:qt-mt323.dll
 0002:00001f80       __imp_??1QToolButton@@UAE@XZ 1002cf80     qt-mt323:qt-mt323.dll
 0002:00001f84       __imp_??1QButton@@UAE@XZ   1002cf84     qt-mt323:qt-mt323.dll
 0002:00001f88       __imp_??1QGroupBox@@UAE@XZ 1002cf88     qt-mt323:qt-mt323.dll
 0002:00001f8c       __imp_??1QButtonGroup@@UAE@XZ 1002cf8c     qt-mt323:qt-mt323.dll
 0002:00001f90       __imp_??1QIconView@@UAE@XZ 1002cf90     qt-mt323:qt-mt323.dll
 0002:00001f94       __imp_??1QTable@@UAE@XZ    1002cf94     qt-mt323:qt-mt323.dll
 0002:00001f98       __imp_??1QListBox@@UAE@XZ  1002cf98     qt-mt323:qt-mt323.dll
 0002:00001f9c       __imp_??1QListView@@UAE@XZ 1002cf9c     qt-mt323:qt-mt323.dll
 0002:00001fa0       __imp_??1QLineEdit@@UAE@XZ 1002cfa0     qt-mt323:qt-mt323.dll
 0002:00001fa4       __imp_??1QSpinBox@@UAE@XZ  1002cfa4     qt-mt323:qt-mt323.dll
 0002:00001fa8       __imp_??1QMultiLineEdit@@UAE@XZ 1002cfa8     qt-mt323:qt-mt323.dll
 0002:00001fac       __imp_??1QLabel@@UAE@XZ    1002cfac     qt-mt323:qt-mt323.dll
 0002:00001fb0       __imp_??1QTabWidget@@UAE@XZ 1002cfb0     qt-mt323:qt-mt323.dll
 0002:00001fb4       __imp_??1QComboBox@@UAE@XZ 1002cfb4     qt-mt323:qt-mt323.dll
 0002:00001fb8       __imp_??1QWizard@@UAE@XZ   1002cfb8     qt-mt323:qt-mt323.dll
 0002:00001fbc       __imp_??1QLCDNumber@@UAE@XZ 1002cfbc     qt-mt323:qt-mt323.dll
 0002:00001fc0       __imp_??1QTextView@@UAE@XZ 1002cfc0     qt-mt323:qt-mt323.dll
 0002:00001fc4       __imp_??1QTextBrowser@@UAE@XZ 1002cfc4     qt-mt323:qt-mt323.dll
 0002:00001fc8       __imp_??1QDial@@UAE@XZ     1002cfc8     qt-mt323:qt-mt323.dll
 0002:00001fcc       __imp_??1QSlider@@UAE@XZ   1002cfcc     qt-mt323:qt-mt323.dll
 0002:00001fd0       __imp_??1QSplitter@@UAE@XZ 1002cfd0     qt-mt323:qt-mt323.dll
 0002:00001fd4       __imp_??1QDateEdit@@UAE@XZ 1002cfd4     qt-mt323:qt-mt323.dll
 0002:00001fd8       __imp_??1QTimeEdit@@UAE@XZ 1002cfd8     qt-mt323:qt-mt323.dll
 0002:00001fdc       __imp_??1QDateTimeEdit@@UAE@XZ 1002cfdc     qt-mt323:qt-mt323.dll
 0002:00001fe0       __imp_??1QScrollBar@@UAE@XZ 1002cfe0     qt-mt323:qt-mt323.dll
 0002:00001fe4       __imp_??1QWidgetStack@@UAE@XZ 1002cfe4     qt-mt323:qt-mt323.dll
 0002:00001fe8       __imp_??1QToolBox@@UAE@XZ  1002cfe8     qt-mt323:qt-mt323.dll
 0002:00001fec       __imp_??1QMainWindow@@UAE@XZ 1002cfec     qt-mt323:qt-mt323.dll
 0002:00001ff0       __imp_??1QDataTable@@UAE@XZ 1002cff0     qt-mt323:qt-mt323.dll
 0002:00001ff4       __imp_?insertItem@QToolBox@@QAEHHPAVQWidget@@ABVQIconSet@@ABVQString@@@Z 1002cff4     qt-mt323:qt-mt323.dll
 0002:00001ff8       __imp_?iterator@QGridLayout@@UAE?AVQLayoutIterator@@XZ 1002cff8     qt-mt323:qt-mt323.dll
 0002:00001ffc       __imp_?invalidate@QGridLayout@@UAEXXZ 1002cffc     qt-mt323:qt-mt323.dll
 0002:00002000       __imp_?heightForWidth@QGridLayout@@UBEHH@Z 1002d000     qt-mt323:qt-mt323.dll
 0002:00002004       __imp_?hasHeightForWidth@QGridLayout@@UBE_NXZ 1002d004     qt-mt323:qt-mt323.dll
 0002:00002008       __imp_?setGeometry@QGridLayout@@UAEXABVQRect@@@Z 1002d008     qt-mt323:qt-mt323.dll
 0002:0000200c       __imp_?expanding@QGridLayout@@UBE?AW4ExpandData@QSizePolicy@@XZ 1002d00c     qt-mt323:qt-mt323.dll
 0002:00002010       __imp_?maximumSize@QGridLayout@@UBE?AVQSize@@XZ 1002d010     qt-mt323:qt-mt323.dll
 0002:00002014       __imp_?minimumSize@QGridLayout@@UBE?AVQSize@@XZ 1002d014     qt-mt323:qt-mt323.dll
 0002:00002018       __imp_?sizeHint@QGridLayout@@UBE?AVQSize@@XZ 1002d018     qt-mt323:qt-mt323.dll
 0002:0000201c       __imp_?setColStretch@QGridLayout@@UAEXHH@Z 1002d01c     qt-mt323:qt-mt323.dll
 0002:00002020       __imp_?setRowStretch@QGridLayout@@UAEXHH@Z 1002d020     qt-mt323:qt-mt323.dll
 0002:00002024       __imp_?addItem@QGridLayout@@UAEXPAVQLayoutItem@@@Z 1002d024     qt-mt323:qt-mt323.dll
 0002:00002028       __imp_?qt_property@QGridLayout@@UAE_NHHPAVQVariant@@@Z 1002d028     qt-mt323:qt-mt323.dll
 0002:0000202c       __imp_?qt_emit@QGridLayout@@UAE_NHPAUQUObject@@@Z 1002d02c     qt-mt323:qt-mt323.dll
 0002:00002030       __imp_?qt_invoke@QGridLayout@@UAE_NHPAUQUObject@@@Z 1002d030     qt-mt323:qt-mt323.dll
 0002:00002034       __imp_?qt_cast@QGridLayout@@UAEPAXPBD@Z 1002d034     qt-mt323:qt-mt323.dll
 0002:00002038       __imp_?className@QGridLayout@@UBEPBDXZ 1002d038     qt-mt323:qt-mt323.dll
 0002:0000203c       __imp_?metaObject@QGridLayout@@UBEPAVQMetaObject@@XZ 1002d03c     qt-mt323:qt-mt323.dll
 0002:00002040       __imp_??0QGridLayout@@QAE@PAVQWidget@@HHHHPBD@Z 1002d040     qt-mt323:qt-mt323.dll
 0002:00002044       __imp_??0QHBoxLayout@@QAE@PAVQLayout@@HPBD@Z 1002d044     qt-mt323:qt-mt323.dll
 0002:00002048       __imp_??0QVBoxLayout@@QAE@PAVQLayout@@HPBD@Z 1002d048     qt-mt323:qt-mt323.dll
 0002:0000204c       __imp_??0QGridLayout@@QAE@PAVQLayout@@HHHPBD@Z 1002d04c     qt-mt323:qt-mt323.dll
 0002:00002050       __imp_?currentItem@QToolBox@@QBEPAVQWidget@@XZ 1002d050     qt-mt323:qt-mt323.dll
 0002:00002054       __imp_?visibleWidget@QWidgetStack@@QBEPAVQWidget@@XZ 1002d054     qt-mt323:qt-mt323.dll
 0002:00002058       __imp_?currentPage@QWizard@@QBEPAVQWidget@@XZ 1002d058     qt-mt323:qt-mt323.dll
 0002:0000205c       __imp_?currentPage@QTabWidget@@QBEPAVQWidget@@XZ 1002d05c     qt-mt323:qt-mt323.dll
 0002:00002060       __imp_??1QGridLayout@@UAE@XZ 1002d060     qt-mt323:qt-mt323.dll
 0002:00002064       __imp_?insert@QButtonGroup@@QAEHPAVQButton@@H@Z 1002d064     qt-mt323:qt-mt323.dll
 0002:00002068       __imp_?add@QWhatsThis@@SAXPAVQWidget@@ABVQString@@@Z 1002d068     qt-mt323:qt-mt323.dll
 0002:0000206c       __imp_?add@QToolTip@@SAXPAVQWidget@@ABVQString@@@Z 1002d06c     qt-mt323:qt-mt323.dll
 0002:00002070       __imp_?keyToValue@QMetaProperty@@QBEHPBD@Z 1002d070     qt-mt323:qt-mt323.dll
 0002:00002074       __imp_?toCString@QVariant@@QBE?BVQCString@@XZ 1002d074     qt-mt323:qt-mt323.dll
 0002:00002078       __imp_??1QStrList@@UAE@XZ  1002d078     qt-mt323:qt-mt323.dll
 0002:0000207c       __imp_?keysToValue@QMetaProperty@@QBEHABVQStrList@@@Z 1002d07c     qt-mt323:qt-mt323.dll
 0002:00002080       __imp_?split@QStringList@@SA?AV1@ABVQChar@@ABVQString@@_N@Z 1002d080     qt-mt323:qt-mt323.dll
 0002:00002084       __imp_??_7QStrList@@6B@    1002d084     qt-mt323:qt-mt323.dll
 0002:00002088       __imp_?isSetType@QMetaProperty@@QBE_NXZ 1002d088     qt-mt323:qt-mt323.dll
 0002:0000208c       __imp_?isEnumType@QMetaProperty@@QBE_NXZ 1002d08c     qt-mt323:qt-mt323.dll
 0002:00002090       __imp_?property@QMetaObject@@QBEPBVQMetaProperty@@H_N@Z 1002d090     qt-mt323:qt-mt323.dll
 0002:00002094       __imp_??1QKeySequence@@QAE@XZ 1002d094     qt-mt323:qt-mt323.dll
 0002:00002098       __imp_??0QVariant@@QAE@ABVQKeySequence@@@Z 1002d098     qt-mt323:qt-mt323.dll
 0002:0000209c       __imp_?toKeySequence@QVariant@@QBE?BVQKeySequence@@XZ 1002d09c     qt-mt323:qt-mt323.dll
 0002:000020a0       __imp_?toRect@QVariant@@QBE?BVQRect@@XZ 1002d0a0     qt-mt323:qt-mt323.dll
 0002:000020a4       __imp_?findProperty@QMetaObject@@QBEHPBD_N@Z 1002d0a4     qt-mt323:qt-mt323.dll
 0002:000020a8       __imp_??4QColorGroup@@QAEAAV0@ABV0@@Z 1002d0a8     qt-mt323:qt-mt323.dll
 0002:000020ac       __imp_??0QVariant@@QAE@ABVQImage@@@Z 1002d0ac     qt-mt323:qt-mt323.dll
 0002:000020b0       __imp_??0QVariant@@QAE@ABVQIconSet@@@Z 1002d0b0     qt-mt323:qt-mt323.dll
 0002:000020b4       __imp_??0QVariant@@QAE@ABVQPixmap@@@Z 1002d0b4     qt-mt323:qt-mt323.dll
 0002:000020b8       __imp_?toULong@QString@@QBEKPA_NH@Z 1002d0b8     qt-mt323:qt-mt323.dll
 0002:000020bc       __imp_?toUInt@QString@@QBEIPA_NH@Z 1002d0bc     qt-mt323:qt-mt323.dll
 0002:000020c0       __imp_??8@YA_NABVQString@@0@Z 1002d0c0     qt-mt323:qt-mt323.dll
 0002:000020c4       __imp_?convertFromImage@QPixmap@@QAE_NABVQImage@@W4ColorMode@1@@Z 1002d0c4     qt-mt323:qt-mt323.dll
 0002:000020c8       __imp_?decode@QImageDrag@@SA_NPBVQMimeSource@@AAVQPixmap@@@Z 1002d0c8     qt-mt323:qt-mt323.dll
 0002:000020cc       __imp_?defaultFactory@QMimeSourceFactory@@SAPAV1@XZ 1002d0cc     qt-mt323:qt-mt323.dll
 0002:000020d0       __imp_??4QStrList@@QAEAAV0@ABV0@@Z 1002d0d0     qt-mt323:qt-mt323.dll
 0002:000020d4       __imp_?find@QGList@@IAEHPAX_N@Z 1002d0d4     qt-mt323:qt-mt323.dll
 0002:000020d8       __imp_?slotNames@QMetaObject@@QBE?AVQStrList@@_N@Z 1002d0d8     qt-mt323:qt-mt323.dll
 0002:000020dc       __imp_?signalNames@QMetaObject@@QBE?AVQStrList@@_N@Z 1002d0dc     qt-mt323:qt-mt323.dll
 0002:000020e0       __imp_?assign@QGArray@@IAEAAV1@ABV1@@Z 1002d0e0     qt-mt323:qt-mt323.dll
 0002:000020e4       __imp_?normalizeSignalSlot@QObject@@KA?AVQCString@@PBD@Z 1002d0e4     qt-mt323:qt-mt323.dll
 0002:000020e8       __imp_?queryList@QObject@@QBEPAVQObjectList@@PBD0_N1@Z 1002d0e8     qt-mt323:qt-mt323.dll
 0002:000020ec       __imp_?count@QHeader@@QBEHXZ 1002d0ec     qt-mt323:qt-mt323.dll
 0002:000020f0       __imp_?header@QListView@@QBEPAVQHeader@@XZ 1002d0f0     qt-mt323:qt-mt323.dll
 0002:000020f4       __imp_?verticalHeader@QTable@@QBEPAVQHeader@@XZ 1002d0f4     qt-mt323:qt-mt323.dll
 0002:000020f8       __imp_?horizontalHeader@QTable@@QBEPAVQHeader@@XZ 1002d0f8     qt-mt323:qt-mt323.dll
 0002:000020fc       __imp_?cancelRename@QListViewItem@@MAEXH@Z 1002d0fc     qt-mt323:qt-mt323.dll
 0002:00002100       __imp_?okRename@QListViewItem@@MAEXH@Z 1002d100     qt-mt323:qt-mt323.dll
 0002:00002104       __imp_?dragLeft@QListViewItem@@MAEXXZ 1002d104     qt-mt323:qt-mt323.dll
 0002:00002108       __imp_?dragEntered@QListViewItem@@MAEXXZ 1002d108     qt-mt323:qt-mt323.dll
 0002:0000210c       __imp_?dropped@QListViewItem@@MAEXPAVQDropEvent@@@Z 1002d10c     qt-mt323:qt-mt323.dll
 0002:00002110       __imp_?activate@QListViewItem@@MAEXXZ 1002d110     qt-mt323:qt-mt323.dll
 0002:00002114       __imp_?setHeight@QListViewItem@@MAEXH@Z 1002d114     qt-mt323:qt-mt323.dll
 0002:00002118       __imp_?enforceSortOrder@QListViewItem@@MBEXXZ 1002d118     qt-mt323:qt-mt323.dll
 0002:0000211c       __imp_?setMultiLinesEnabled@QListViewItem@@UAEX_N@Z 1002d11c     qt-mt323:qt-mt323.dll
 0002:00002120       __imp_?rtti@QListViewItem@@UBEHXZ 1002d120     qt-mt323:qt-mt323.dll
 0002:00002124       __imp_?setEnabled@QListViewItem@@UAEX_N@Z 1002d124     qt-mt323:qt-mt323.dll
 0002:00002128       __imp_?startRename@QListViewItem@@UAEXH@Z 1002d128     qt-mt323:qt-mt323.dll
 0002:0000212c       __imp_?setRenameEnabled@QListViewItem@@UAEXH_N@Z 1002d12c     qt-mt323:qt-mt323.dll
 0002:00002130       __imp_?acceptDrop@QListViewItem@@UBE_NPBVQMimeSource@@@Z 1002d130     qt-mt323:qt-mt323.dll
 0002:00002134       __imp_?setDropEnabled@QListViewItem@@UAEX_N@Z 1002d134     qt-mt323:qt-mt323.dll
 0002:00002138       __imp_?setDragEnabled@QListViewItem@@UAEX_N@Z 1002d138     qt-mt323:qt-mt323.dll
 0002:0000213c       __imp_?sort@QListViewItem@@UAEXXZ 1002d13c     qt-mt323:qt-mt323.dll
 0002:00002140       __imp_?setExpandable@QListViewItem@@UAEX_N@Z 1002d140     qt-mt323:qt-mt323.dll
 0002:00002144       __imp_?setSelectable@QListViewItem@@UAEX_N@Z 1002d144     qt-mt323:qt-mt323.dll
 0002:00002148       __imp_?paintFocus@QListViewItem@@UAEXPAVQPainter@@ABVQColorGroup@@ABVQRect@@@Z 1002d148     qt-mt323:qt-mt323.dll
 0002:0000214c       __imp_?paintBranches@QListViewItem@@UAEXPAVQPainter@@ABVQColorGroup@@HHH@Z 1002d14c     qt-mt323:qt-mt323.dll
 0002:00002150       __imp_?paintCell@QListViewItem@@UAEXPAVQPainter@@ABVQColorGroup@@HHH@Z 1002d150     qt-mt323:qt-mt323.dll
 0002:00002154       __imp_?setSelected@QListViewItem@@UAEX_N@Z 1002d154     qt-mt323:qt-mt323.dll
 0002:00002158       __imp_?setup@QListViewItem@@UAEXXZ 1002d158     qt-mt323:qt-mt323.dll
 0002:0000215c       __imp_?setOpen@QListViewItem@@UAEX_N@Z 1002d15c     qt-mt323:qt-mt323.dll
 0002:00002160       __imp_?sortChildItems@QListViewItem@@UAEXH_N@Z 1002d160     qt-mt323:qt-mt323.dll
 0002:00002164       __imp_?compare@QListViewItem@@UBEHPAV1@H_N@Z 1002d164     qt-mt323:qt-mt323.dll
 0002:00002168       __imp_?key@QListViewItem@@UBE?AVQString@@H_N@Z 1002d168     qt-mt323:qt-mt323.dll
 0002:0000216c       __imp_?pixmap@QListViewItem@@UBEPBVQPixmap@@H@Z 1002d16c     qt-mt323:qt-mt323.dll
 0002:00002170       __imp_?setPixmap@QListViewItem@@UAEXHABVQPixmap@@@Z 1002d170     qt-mt323:qt-mt323.dll
 0002:00002174       __imp_?text@QListViewItem@@UBE?AVQString@@H@Z 1002d174     qt-mt323:qt-mt323.dll
 0002:00002178       __imp_?setText@QListViewItem@@UAEXHABVQString@@@Z 1002d178     qt-mt323:qt-mt323.dll
 0002:0000217c       __imp_?width@QListViewItem@@UBEHABVQFontMetrics@@PBVQListView@@H@Z 1002d17c     qt-mt323:qt-mt323.dll
 0002:00002180       __imp_?invalidateHeight@QListViewItem@@UAEXXZ 1002d180     qt-mt323:qt-mt323.dll
 0002:00002184       __imp_?removeItem@QListViewItem@@UAEXPAV1@@Z 1002d184     qt-mt323:qt-mt323.dll
 0002:00002188       __imp_?takeItem@QListViewItem@@UAEXPAV1@@Z 1002d188     qt-mt323:qt-mt323.dll
 0002:0000218c       __imp_?insertItem@QListViewItem@@UAEXPAV1@@Z 1002d18c     qt-mt323:qt-mt323.dll
 0002:00002190       __imp_?columns@QListView@@QBEHXZ 1002d190     qt-mt323:qt-mt323.dll
 0002:00002194       __imp_??0QListViewItem@@QAE@PAVQListView@@PAV0@@Z 1002d194     qt-mt323:qt-mt323.dll
 0002:00002198       __imp_??0QListViewItem@@QAE@PAV0@0@Z 1002d198     qt-mt323:qt-mt323.dll
 0002:0000219c       __imp_??1QListViewItem@@UAE@XZ 1002d19c     qt-mt323:qt-mt323.dll
 0002:000021a0       __imp_?setAccel@QMenuData@@QAEXABVQKeySequence@@H@Z 1002d1a0     qt-mt323:qt-mt323.dll
 0002:000021a4       __imp_?accel@QAction@@QBE?AVQKeySequence@@XZ 1002d1a4     qt-mt323:qt-mt323.dll
 0002:000021a8       __imp_?insertItem@QMenuData@@QAEHABVQIconSet@@ABVQString@@PAVQPopupMenu@@HH@Z 1002d1a8     qt-mt323:qt-mt323.dll
 0002:000021ac       __imp_?iconSet@QAction@@QBE?AVQIconSet@@XZ 1002d1ac     qt-mt323:qt-mt323.dll
 0002:000021b0       __imp_?utf8@QString@@QBE?AVQCString@@XZ 1002d1b0     qt-mt323:qt-mt323.dll
 0002:000021b4       __imp_??1QTextStream@@UAE@XZ 1002d1b4     qt-mt323:qt-mt323.dll
 0002:000021b8       __imp_?read@QTextStream@@QAE?AVQString@@XZ 1002d1b8     qt-mt323:qt-mt323.dll
 0002:000021bc       __imp_??0QTextStream@@QAE@PAVQIODevice@@@Z 1002d1bc     qt-mt323:qt-mt323.dll
 0002:000021c0       __imp_??1QGDict@@MAE@XZ    1002d1c0     qt-mt323:qt-mt323.dll
 0002:000021c4       __imp_?clear@QGDict@@MAEXXZ 1002d1c4     qt-mt323:qt-mt323.dll
 0002:000021c8       __imp_?sync@QSqlForm@@EAEXXZ 1002d1c8     qt-mt323:qt-mt323.dll
 0002:000021cc       __imp_?clearValues@QSqlForm@@UAEX_N@Z 1002d1cc     qt-mt323:qt-mt323.dll
 0002:000021d0       __imp_?clear@QSqlForm@@UAEXXZ 1002d1d0     qt-mt323:qt-mt323.dll
 0002:000021d4       __imp_?writeFields@QSqlForm@@UAEXXZ 1002d1d4     qt-mt323:qt-mt323.dll
 0002:000021d8       __imp_?readFields@QSqlForm@@UAEXXZ 1002d1d8     qt-mt323:qt-mt323.dll
 0002:000021dc       __imp_?writeField@QSqlForm@@UAEXPAVQWidget@@@Z 1002d1dc     qt-mt323:qt-mt323.dll
 0002:000021e0       __imp_?readField@QSqlForm@@UAEXPAVQWidget@@@Z 1002d1e0     qt-mt323:qt-mt323.dll
 0002:000021e4       __imp_?setRecord@QSqlForm@@UAEXPAVQSqlRecord@@@Z 1002d1e4     qt-mt323:qt-mt323.dll
 0002:000021e8       __imp_?remove@QSqlForm@@UAEXABVQString@@@Z 1002d1e8     qt-mt323:qt-mt323.dll
 0002:000021ec       __imp_?remove@QSqlForm@@MAEXPAVQWidget@@@Z 1002d1ec     qt-mt323:qt-mt323.dll
 0002:000021f0       __imp_?insert@QSqlForm@@UAEXPAVQWidget@@ABVQString@@@Z 1002d1f0     qt-mt323:qt-mt323.dll
 0002:000021f4       __imp_?insert@QSqlForm@@MAEXPAVQWidget@@PAVQSqlField@@@Z 1002d1f4     qt-mt323:qt-mt323.dll
 0002:000021f8       __imp_?qt_property@QSqlForm@@UAE_NHHPAVQVariant@@@Z 1002d1f8     qt-mt323:qt-mt323.dll
 0002:000021fc       __imp_?qt_emit@QSqlForm@@UAE_NHPAUQUObject@@@Z 1002d1fc     qt-mt323:qt-mt323.dll
 0002:00002200       __imp_?qt_invoke@QSqlForm@@UAE_NHPAUQUObject@@@Z 1002d200     qt-mt323:qt-mt323.dll
 0002:00002204       __imp_?qt_cast@QSqlForm@@UAEPAXPBD@Z 1002d204     qt-mt323:qt-mt323.dll
 0002:00002208       __imp_?className@QSqlForm@@UBEPBDXZ 1002d208     qt-mt323:qt-mt323.dll
 0002:0000220c       __imp_?metaObject@QSqlForm@@UBEPAVQMetaObject@@XZ 1002d20c     qt-mt323:qt-mt323.dll
 0002:00002210       __imp_??0QSqlForm@@QAE@PAVQObject@@PBD@Z 1002d210     qt-mt323:qt-mt323.dll
 0002:00002214       __imp_??1QSqlForm@@UAE@XZ  1002d214     qt-mt323:qt-mt323.dll
 0002:00002218       __imp_?handleError@QDataBrowser@@MAEXABVQSqlError@@@Z 1002d218     qt-mt323:qt-mt323.dll
 0002:0000221c       __imp_?confirmCancel@QDataBrowser@@MAE?AW4Confirm@QSql@@W4Op@3@@Z 1002d21c     qt-mt323:qt-mt323.dll
 0002:00002220       __imp_?confirmEdit@QDataBrowser@@MAE?AW4Confirm@QSql@@W4Op@3@@Z 1002d220     qt-mt323:qt-mt323.dll
 0002:00002224       __imp_?currentEdited@QDataBrowser@@MAE_NXZ 1002d224     qt-mt323:qt-mt323.dll
 0002:00002228       __imp_?deleteCurrent@QDataBrowser@@MAE_NXZ 1002d228     qt-mt323:qt-mt323.dll
 0002:0000222c       __imp_?updateCurrent@QDataBrowser@@MAE_NXZ 1002d22c     qt-mt323:qt-mt323.dll
 0002:00002230       __imp_?insertCurrent@QDataBrowser@@MAE_NXZ 1002d230     qt-mt323:qt-mt323.dll
 0002:00002234       __imp_?clearValues@QDataBrowser@@UAEXXZ 1002d234     qt-mt323:qt-mt323.dll
 0002:00002238       __imp_?writeFields@QDataBrowser@@UAEXXZ 1002d238     qt-mt323:qt-mt323.dll
 0002:0000223c       __imp_?readFields@QDataBrowser@@UAEXXZ 1002d23c     qt-mt323:qt-mt323.dll
 0002:00002240       __imp_?prev@QDataBrowser@@UAEXXZ 1002d240     qt-mt323:qt-mt323.dll
 0002:00002244       __imp_?next@QDataBrowser@@UAEXXZ 1002d244     qt-mt323:qt-mt323.dll
 0002:00002248       __imp_?last@QDataBrowser@@UAEXXZ 1002d248     qt-mt323:qt-mt323.dll
 0002:0000224c       __imp_?first@QDataBrowser@@UAEXXZ 1002d24c     qt-mt323:qt-mt323.dll
 0002:00002250       __imp_?del@QDataBrowser@@UAEXXZ 1002d250     qt-mt323:qt-mt323.dll
 0002:00002254       __imp_?update@QDataBrowser@@UAEXXZ 1002d254     qt-mt323:qt-mt323.dll
 0002:00002258       __imp_?insert@QDataBrowser@@UAEXXZ 1002d258     qt-mt323:qt-mt323.dll
 0002:0000225c       __imp_?refresh@QDataBrowser@@UAEXXZ 1002d25c     qt-mt323:qt-mt323.dll
 0002:00002260       __imp_?seek@QDataBrowser@@UAE_NH_N@Z 1002d260     qt-mt323:qt-mt323.dll
 0002:00002264       __imp_?setAutoEdit@QDataBrowser@@UAEX_N@Z 1002d264     qt-mt323:qt-mt323.dll
 0002:00002268       __imp_?setReadOnly@QDataBrowser@@UAEX_N@Z 1002d268     qt-mt323:qt-mt323.dll
 0002:0000226c       __imp_?setConfirmCancels@QDataBrowser@@UAEX_N@Z 1002d26c     qt-mt323:qt-mt323.dll
 0002:00002270       __imp_?setConfirmDelete@QDataBrowser@@UAEX_N@Z 1002d270     qt-mt323:qt-mt323.dll
 0002:00002274       __imp_?setConfirmUpdate@QDataBrowser@@UAEX_N@Z 1002d274     qt-mt323:qt-mt323.dll
 0002:00002278       __imp_?setConfirmInsert@QDataBrowser@@UAEX_N@Z 1002d278     qt-mt323:qt-mt323.dll
 0002:0000227c       __imp_?setConfirmEdits@QDataBrowser@@UAEX_N@Z 1002d27c     qt-mt323:qt-mt323.dll
 0002:00002280       __imp_?setForm@QDataBrowser@@UAEXPAVQSqlForm@@@Z 1002d280     qt-mt323:qt-mt323.dll
 0002:00002284       __imp_?setSqlCursor@QDataBrowser@@UAEXPAVQSqlCursor@@_N@Z 1002d284     qt-mt323:qt-mt323.dll
 0002:00002288       __imp_??0QDataBrowser@@QAE@PAVQWidget@@PBDI@Z 1002d288     qt-mt323:qt-mt323.dll
 0002:0000228c       __imp_??1QDataBrowser@@UAE@XZ 1002d28c     qt-mt323:qt-mt323.dll
 0002:00002290       __imp_?clearValues@QDataView@@UAEXXZ 1002d290     qt-mt323:qt-mt323.dll
 0002:00002294       __imp_?writeFields@QDataView@@UAEXXZ 1002d294     qt-mt323:qt-mt323.dll
 0002:00002298       __imp_?readFields@QDataView@@UAEXXZ 1002d298     qt-mt323:qt-mt323.dll
 0002:0000229c       __imp_?refresh@QDataView@@UAEXPAVQSqlRecord@@@Z 1002d29c     qt-mt323:qt-mt323.dll
 0002:000022a0       __imp_?setRecord@QDataView@@UAEXPAVQSqlRecord@@@Z 1002d2a0     qt-mt323:qt-mt323.dll
 0002:000022a4       __imp_?setForm@QDataView@@UAEXPAVQSqlForm@@@Z 1002d2a4     qt-mt323:qt-mt323.dll
 0002:000022a8       __imp_??0QDataView@@QAE@PAVQWidget@@PBDI@Z 1002d2a8     qt-mt323:qt-mt323.dll
 0002:000022ac       __imp_??1QDataView@@UAE@XZ 1002d2ac     qt-mt323:qt-mt323.dll
 0002:000022b0       __imp_??0QVariant@@QAE@ABVQDateTime@@@Z 1002d2b0     qt-mt323:qt-mt323.dll
 0002:000022b4       __imp_??0QDateTime@@QAE@ABVQDate@@ABVQTime@@@Z 1002d2b4     qt-mt323:qt-mt323.dll
 0002:000022b8       __imp_??0QVariant@@QAE@ABVQTime@@@Z 1002d2b8     qt-mt323:qt-mt323.dll
 0002:000022bc       __imp_??0QTime@@QAE@HHHH@Z 1002d2bc     qt-mt323:qt-mt323.dll
 0002:000022c0       __imp_??0QVariant@@QAE@ABVQDate@@@Z 1002d2c0     qt-mt323:qt-mt323.dll
 0002:000022c4       __imp_??0QDate@@QAE@HHH@Z  1002d2c4     qt-mt323:qt-mt323.dll
 0002:000022c8       __imp_??0QVariant@@QAE@ABVQStringList@@@Z 1002d2c8     qt-mt323:qt-mt323.dll
 0002:000022cc       __imp_??1QCursor@@QAE@XZ   1002d2cc     qt-mt323:qt-mt323.dll
 0002:000022d0       __imp_??0QVariant@@QAE@ABVQCursor@@@Z 1002d2d0     qt-mt323:qt-mt323.dll
 0002:000022d4       __imp_??0QCursor@@QAE@H@Z  1002d2d4     qt-mt323:qt-mt323.dll
 0002:000022d8       __imp_??0QVariant@@QAE@VQSizePolicy@@@Z 1002d2d8     qt-mt323:qt-mt323.dll
 0002:000022dc       __imp_??0QVariant@@QAE@N@Z 1002d2dc     qt-mt323:qt-mt323.dll
 0002:000022e0       __imp_?toDouble@QString@@QBENPA_N@Z 1002d2e0     qt-mt323:qt-mt323.dll
 0002:000022e4       __imp_??0QVariant@@QAE@ABVQCString@@@Z 1002d2e4     qt-mt323:qt-mt323.dll
 0002:000022e8       __imp_?toFont@QVariant@@QBE?BVQFont@@XZ 1002d2e8     qt-mt323:qt-mt323.dll
 0002:000022ec       __imp_??0QVariant@@QAE@ABVQColor@@@Z 1002d2ec     qt-mt323:qt-mt323.dll
 0002:000022f0       __imp_?setRgb@QColor@@QAEXHHH@Z 1002d2f0     qt-mt323:qt-mt323.dll
 0002:000022f4       __imp_?setAttribute@QDomElement@@QAEXABVQString@@H@Z 1002d2f4     qt-mt323:qt-mt323.dll
 0002:000022f8       __imp_?setAttribute@QDomElement@@QAEXABVQString@@N@Z 1002d2f8     qt-mt323:qt-mt323.dll
 0002:000022fc       __imp_?removeAttribute@QDomElement@@QAEXABVQString@@@Z 1002d2fc     qt-mt323:qt-mt323.dll
 0002:00002300       __imp_?item@QDomNodeList@@UBE?AVQDomNode@@H@Z 1002d300     qt-mt323:qt-mt323.dll
 0002:00002304       __imp_?length@QDomNodeList@@UBEIXZ 1002d304     qt-mt323:qt-mt323.dll
 0002:00002308       __imp_??1QDomNodeList@@UAE@XZ 1002d308     qt-mt323:qt-mt323.dll
 0002:0000230c       __imp_??4QDomNodeList@@QAEAAV0@ABV0@@Z 1002d30c     qt-mt323:qt-mt323.dll
 0002:00002310       __imp_?elementsByTagName@QDomDocument@@QBE?AVQDomNodeList@@ABVQString@@@Z 1002d310     qt-mt323:qt-mt323.dll
 0002:00002314       __imp_?hasAttribute@QDomElement@@QBE_NABVQString@@@Z 1002d314     qt-mt323:qt-mt323.dll
 0002:00002318       __imp_??0QDomNodeList@@QAE@XZ 1002d318     qt-mt323:qt-mt323.dll
 0002:0000231c       __imp_??0QDomNode@@QAE@XZ  1002d31c     qt-mt323:qt-mt323.dll
 0002:00002320       __imp_?writeRawBytes@QDataStream@@QAEAAV1@PBDI@Z 1002d320     qt-mt323:qt-mt323.dll
 0002:00002324       __imp_?staticMetaObject@QDataBrowser@@SAPAVQMetaObject@@XZ 1002d324     qt-mt323:qt-mt323.dll
 0002:00002328       __imp_?qt_cast@QDataBrowser@@UAEPAXPBD@Z 1002d328     qt-mt323:qt-mt323.dll
 0002:0000232c       __imp_?qt_invoke@QDataBrowser@@UAE_NHPAUQUObject@@@Z 1002d32c     qt-mt323:qt-mt323.dll
 0002:00002330       __imp_?qt_emit@QDataBrowser@@UAE_NHPAUQUObject@@@Z 1002d330     qt-mt323:qt-mt323.dll
 0002:00002334       __imp_?qt_property@QDataBrowser@@UAE_NHHPAVQVariant@@@Z 1002d334     qt-mt323:qt-mt323.dll
 0002:00002338       __imp_?staticMetaObject@QDataView@@SAPAVQMetaObject@@XZ 1002d338     qt-mt323:qt-mt323.dll
 0002:0000233c       __imp_?qt_cast@QDataView@@UAEPAXPBD@Z 1002d33c     qt-mt323:qt-mt323.dll
 0002:00002340       __imp_?qt_invoke@QDataView@@UAE_NHPAUQUObject@@@Z 1002d340     qt-mt323:qt-mt323.dll
 0002:00002344       __imp_?qt_emit@QDataView@@UAE_NHPAUQUObject@@@Z 1002d344     qt-mt323:qt-mt323.dll
 0002:00002348       __imp_?qt_property@QDataView@@UAE_NHHPAVQVariant@@@Z 1002d348     qt-mt323:qt-mt323.dll
 0002:0000234c       __imp_?setNotchesVisible@QDial@@UAEX_N@Z 1002d34c     qt-mt323:qt-mt323.dll
 0002:00002350       \177qt-mt323_NULL_THUNK_DATA 1002d350     qt-mt323:qt-mt323.dll
 0002:00002358       ??_7signalConnectionRefList@@6B@ 1002d358     bncs_client_runtime.obj
 0002:00002378       ??_7?$QPtrList@VsignalConnection@@@@6B@ 1002d378     bncs_client_runtime.obj
 0002:00002398       ??_7dCW@@6B@               1002d398     bncs_client_runtime.obj
 0002:0000239c       ??_7bncs_client_runtime@@6B@ 1002d39c     bncs_client_runtime.obj
 0002:000023a0       ??_7bncs_client_runtime@@6BQPaintDevice@@@ 1002d3a0     bncs_client_runtime.obj
 0002:000023c0       ??_7bncs_client_runtime@@6BQObject@@@ 1002d3c0     bncs_client_runtime.obj
 0002:00002570       ??_7IccTimerCallback@@6B@  1002d570     bncs_client_runtime.obj
