 dcw

 Timestamp is 5e9db7f5 (Mon Apr 20 15:55:49 2020)

 Preferred load address is 10000000

 Start         Length     Name                   Class
 0001:00000000 0000de02H .text                   CODE
 0001:0000de10 00000121H .text$di                CODE
 0001:0000df40 00014c8aH .text$mn                CODE
 0001:00022bd0 000026c9H .text$x                 CODE
 0001:000252a0 0000014bH .text$yd                CODE
 0002:00000000 000023f4H .idata$5                DATA
 0002:000023f4 00000004H .CRT$XCA                DATA
 0002:000023f8 00000034H .CRT$XCU                DATA
 0002:0000242c 00000004H .CRT$XCZ                DATA
 0002:00002430 00000004H .CRT$XIA                DATA
 0002:00002434 00000004H .CRT$XIAA               DATA
 0002:00002438 00000004H .CRT$XIC                DATA
 0002:0000243c 00000004H .CRT$XIZ                DATA
 0002:00002440 00008230H .rdata                  DATA
 0002:0000a670 00001010H .rdata$r                DATA
 0002:0000b680 00000004H .rtc$IAA                DATA
 0002:0000b684 00000004H .rtc$IZZ                DATA
 0002:0000b688 00000004H .rtc$TAA                DATA
 0002:0000b68c 00000004H .rtc$TZZ                DATA
 0002:0000b690 000022a4H .xdata$x                DATA
 0002:0000d940 000068ccH .edata                  DATA
 0002:0001420c 0000008cH .idata$2                DATA
 0002:00014298 00000014H .idata$3                DATA
 0002:000142ac 000023f4H .idata$4                DATA
 0002:000166a0 00017160H .idata$6                DATA
 0003:00000000 000008d4H .data                   DATA
 0003:000008d4 00000704H .data$r                 DATA
 0003:00000fd8 0000054cH .bss                    DATA
 0004:00000000 000000a0H .rsrc$01                DATA
 0004:000000a0 00000580H .rsrc$02                DATA

  Address         Publics by Value              Rva+Base       Lib:Object

 0000:00000000       ___guard_fids_count        00000000     <absolute>
 0000:00000000       ___safe_se_handler_count   00000000     <absolute>
 0000:00000000       ___guard_fids_table        00000000     <absolute>
 0000:00000000       __except_list              00000000     <absolute>
 0000:00000000       ___safe_se_handler_table   00000000     <absolute>
 0000:00000000       ___guard_flags             00000000     <absolute>
 0000:00009876       __ldused                   00009876     <absolute>
 0000:00009876       __fltused                  00009876     <absolute>
 0000:00000000       ___ImageBase               10000000     <linker-defined>
 0001:00000080       ??0QWidgetFactory@@QAE@XZ  10001080 f   qui:qwidgetfactory.obj
 0001:00000122       ??0QWidgetFactoryPrivate@@QAE@XZ 10001122 f i qui:qwidgetfactory.obj
 0001:00000158       ??_GQWidgetFactory@@UAEPAXI@Z 10001158 f i qui:qwidgetfactory.obj
 0001:00000158       ??_EQWidgetFactory@@UAEPAXI@Z 10001158 f i qui:qwidgetfactory.obj
 0001:00000174       ??1QWidgetFactory@@UAE@XZ  10001174 f   qui:qwidgetfactory.obj
 0001:000001fb       ?create@QWidgetFactory@@SAPAVQWidget@@ABVQString@@PAVQObject@@PAV2@PBD@Z 100011fb f   qui:qwidgetfactory.obj
 0001:00000312       ?create@QWidgetFactory@@SAPAVQWidget@@PAVQIODevice@@PAVQObject@@PAV2@PBD@Z 10001312 f   qui:qwidgetfactory.obj
 0001:000008bb       ??_GQSqlCursor@@UAEPAXI@Z  100018bb f i qui:qwidgetfactory.obj
 0001:000008bb       ??_EQSqlCursor@@UAEPAXI@Z  100018bb f i qui:qwidgetfactory.obj
 0001:000008d8       ?createFromUiFile@QWidgetFactory@@AAEPAVQWidget@@VQDomDocument@@PAVQObject@@PAV2@PBD@Z 100018d8 f   qui:qwidgetfactory.obj
 0001:00001199       ?unpackUInt16@QWidgetFactory@@AAEXAAVQDataStream@@AAG@Z 10002199 f   qui:qwidgetfactory.obj
 0001:000011cd       ?unpackUInt32@QWidgetFactory@@AAEXAAVQDataStream@@AAI@Z 100021cd f   qui:qwidgetfactory.obj
 0001:00001201       ?unpackByteArray@QWidgetFactory@@AAEXAAVQDataStream@@AAV?$QMemArray@D@@@Z 10002201 f   qui:qwidgetfactory.obj
 0001:00001237       ?unpackCString@QWidgetFactory@@AAEXABVUibStrTable@@AAVQDataStream@@AAVQCString@@@Z 10002237 f   qui:qwidgetfactory.obj
 0001:00001271       ?unpackString@QWidgetFactory@@AAEXABVUibStrTable@@AAVQDataStream@@AAVQString@@@Z 10002271 f   qui:qwidgetfactory.obj
 0001:000012a6       ?asString@UibStrTable@@QBE?AVQString@@H@Z 100022a6 f i qui:qwidgetfactory.obj
 0001:00001347       ?unpackStringSplit@QWidgetFactory@@AAEXABVUibStrTable@@AAVQDataStream@@AAVQString@@@Z 10002347 f   qui:qwidgetfactory.obj
 0001:00001393       ?unpackVariant@QWidgetFactory@@AAEXABVUibStrTable@@AAVQDataStream@@AAVQVariant@@@Z 10002393 f   qui:qwidgetfactory.obj
 0001:0000182a       ?inputSpacer@QWidgetFactory@@AAEXABVUibStrTable@@AAVQDataStream@@PAVQLayout@@@Z 1000282a f   qui:qwidgetfactory.obj
 0001:00001b1e       ?inputColumnOrRow@QWidgetFactory@@AAEXABVUibStrTable@@AAVQDataStream@@PAVQObject@@_N@Z 10002b1e f   qui:qwidgetfactory.obj
 0001:00001dc7       ?inputItem@QWidgetFactory@@AAEXABVUibStrTable@@AAVQDataStream@@PAVQObject@@PAVQListViewItem@@@Z 10002dc7 f   qui:qwidgetfactory.obj
 0001:000020da       ??_EQListBoxText@@UAEPAXI@Z 100030da f i qui:qwidgetfactory.obj
 0001:000020da       ??_GQListBoxText@@UAEPAXI@Z 100030da f i qui:qwidgetfactory.obj
 0001:000020f7       ??_GQListBoxPixmap@@UAEPAXI@Z 100030f7 f i qui:qwidgetfactory.obj
 0001:000020f7       ??_EQListBoxPixmap@@UAEPAXI@Z 100030f7 f i qui:qwidgetfactory.obj
 0001:00002114       ??_GQIconViewItem@@UAEPAXI@Z 10003114 f i qui:qwidgetfactory.obj
 0001:00002114       ??_EQIconViewItem@@UAEPAXI@Z 10003114 f i qui:qwidgetfactory.obj
 0001:00002131       ?inputMenuItem@QWidgetFactory@@AAEXPAPAVQObject@@ABVUibStrTable@@AAVQDataStream@@PAVQMenuBar@@@Z 10003131 f   qui:qwidgetfactory.obj
 0001:00002275       ??_EQPopupMenu@@UAEPAXI@Z  10003275 f i qui:qwidgetfactory.obj
 0001:00002275       ??_GQPopupMenu@@UAEPAXI@Z  10003275 f i qui:qwidgetfactory.obj
 0001:00002292       ?inputObject@QWidgetFactory@@AAEPAVQObject@@PAPAV2@AAHABVUibStrTable@@AAVQDataStream@@PAVQWidget@@PAV2@VQCString@@@Z 10003292 f   qui:qwidgetfactory.obj
 0001:00002c85       ??_GQActionGroup@@UAEPAXI@Z 10003c85 f i qui:qwidgetfactory.obj
 0001:00002c85       ??_EQActionGroup@@UAEPAXI@Z 10003c85 f i qui:qwidgetfactory.obj
 0001:00002ca2       ??_EQAction@@UAEPAXI@Z     10003ca2 f i qui:qwidgetfactory.obj
 0001:00002ca2       ??_GQAction@@UAEPAXI@Z     10003ca2 f i qui:qwidgetfactory.obj
 0001:00002cbf       ??_EQToolBar@@UAEPAXI@Z    10003cbf f i qui:qwidgetfactory.obj
 0001:00002cbf       ??_GQToolBar@@UAEPAXI@Z    10003cbf f i qui:qwidgetfactory.obj
 0001:00002cdc       ?createFromUibFile@QWidgetFactory@@AAEPAVQWidget@@AAVQDataStream@@PAVQObject@@PAV2@PBD@Z 10003cdc f   qui:qwidgetfactory.obj
 0001:000032e4       ?readBlock@UibStrTable@@QAEXAAVQDataStream@@H@Z 100042e4 f i qui:qwidgetfactory.obj
 0001:0000348d       ?createWidget@QWidgetFactory@@UBEPAVQWidget@@ABVQString@@PAV2@PBD@Z 1000448d f   qui:qwidgetfactory.obj
 0001:00004242       ??_EQToolButton@@UAEPAXI@Z 10005242 f i qui:qwidgetfactory.obj
 0001:00004242       ??_GQToolButton@@UAEPAXI@Z 10005242 f i qui:qwidgetfactory.obj
 0001:0000425f       ??_EQRadioButton@@UAEPAXI@Z 1000525f f i qui:qwidgetfactory.obj
 0001:0000425f       ??_GQRadioButton@@UAEPAXI@Z 1000525f f i qui:qwidgetfactory.obj
 0001:0000427c       ??_GQGroupBox@@UAEPAXI@Z   1000527c f i qui:qwidgetfactory.obj
 0001:0000427c       ??_EQGroupBox@@UAEPAXI@Z   1000527c f i qui:qwidgetfactory.obj
 0001:00004299       ??_GQButtonGroup@@UAEPAXI@Z 10005299 f i qui:qwidgetfactory.obj
 0001:00004299       ??_EQButtonGroup@@UAEPAXI@Z 10005299 f i qui:qwidgetfactory.obj
 0001:000042b6       ??_EQIconView@@UAEPAXI@Z   100052b6 f i qui:qwidgetfactory.obj
 0001:000042b6       ??_GQIconView@@UAEPAXI@Z   100052b6 f i qui:qwidgetfactory.obj
 0001:000042d3       ??_EQTable@@UAEPAXI@Z      100052d3 f i qui:qwidgetfactory.obj
 0001:000042d3       ??_GQTable@@UAEPAXI@Z      100052d3 f i qui:qwidgetfactory.obj
 0001:000042f0       ??_EQListBox@@UAEPAXI@Z    100052f0 f i qui:qwidgetfactory.obj
 0001:000042f0       ??_GQListBox@@UAEPAXI@Z    100052f0 f i qui:qwidgetfactory.obj
 0001:0000430d       ??_GQListView@@UAEPAXI@Z   1000530d f i qui:qwidgetfactory.obj
 0001:0000430d       ??_EQListView@@UAEPAXI@Z   1000530d f i qui:qwidgetfactory.obj
 0001:0000432a       ??_EQLineEdit@@UAEPAXI@Z   1000532a f i qui:qwidgetfactory.obj
 0001:0000432a       ??_GQLineEdit@@UAEPAXI@Z   1000532a f i qui:qwidgetfactory.obj
 0001:00004347       ??_EQSpinBox@@UAEPAXI@Z    10005347 f i qui:qwidgetfactory.obj
 0001:00004347       ??_GQSpinBox@@UAEPAXI@Z    10005347 f i qui:qwidgetfactory.obj
 0001:00004364       ??_EQMultiLineEdit@@UAEPAXI@Z 10005364 f i qui:qwidgetfactory.obj
 0001:00004364       ??_GQMultiLineEdit@@UAEPAXI@Z 10005364 f i qui:qwidgetfactory.obj
 0001:00004381       ??_GQLabel@@UAEPAXI@Z      10005381 f i qui:qwidgetfactory.obj
 0001:00004381       ??_EQLabel@@UAEPAXI@Z      10005381 f i qui:qwidgetfactory.obj
 0001:0000439e       ??_GQTabWidget@@UAEPAXI@Z  1000539e f i qui:qwidgetfactory.obj
 0001:0000439e       ??_EQTabWidget@@UAEPAXI@Z  1000539e f i qui:qwidgetfactory.obj
 0001:000043bb       ??_EQComboBox@@UAEPAXI@Z   100053bb f i qui:qwidgetfactory.obj
 0001:000043bb       ??_GQComboBox@@UAEPAXI@Z   100053bb f i qui:qwidgetfactory.obj
 0001:000043d8       ??_GQDialog@@UAEPAXI@Z     100053d8 f i qui:qwidgetfactory.obj
 0001:000043d8       ??_EQDialog@@UAEPAXI@Z     100053d8 f i qui:qwidgetfactory.obj
 0001:000043f5       ??_GQWizard@@UAEPAXI@Z     100053f5 f i qui:qwidgetfactory.obj
 0001:000043f5       ??_EQWizard@@UAEPAXI@Z     100053f5 f i qui:qwidgetfactory.obj
 0001:00004412       ??_EQLCDNumber@@UAEPAXI@Z  10005412 f i qui:qwidgetfactory.obj
 0001:00004412       ??_GQLCDNumber@@UAEPAXI@Z  10005412 f i qui:qwidgetfactory.obj
 0001:0000442f       ??_GQProgressBar@@UAEPAXI@Z 1000542f f i qui:qwidgetfactory.obj
 0001:0000442f       ??_EQProgressBar@@UAEPAXI@Z 1000542f f i qui:qwidgetfactory.obj
 0001:0000445a       ??_GQTextView@@UAEPAXI@Z   1000545a f i qui:qwidgetfactory.obj
 0001:0000445a       ??_EQTextView@@UAEPAXI@Z   1000545a f i qui:qwidgetfactory.obj
 0001:00004477       ??_GQTextBrowser@@UAEPAXI@Z 10005477 f i qui:qwidgetfactory.obj
 0001:00004477       ??_EQTextBrowser@@UAEPAXI@Z 10005477 f i qui:qwidgetfactory.obj
 0001:00004494       ??_GQDial@@UAEPAXI@Z       10005494 f i qui:qwidgetfactory.obj
 0001:00004494       ??_EQDial@@UAEPAXI@Z       10005494 f i qui:qwidgetfactory.obj
 0001:000044b1       ??_GQSlider@@UAEPAXI@Z     100054b1 f i qui:qwidgetfactory.obj
 0001:000044b1       ??_EQSlider@@UAEPAXI@Z     100054b1 f i qui:qwidgetfactory.obj
 0001:000044ce       ??_EQWidget@@UAEPAXI@Z     100054ce f i qui:qwidgetfactory.obj
 0001:000044ce       ??_GQWidget@@UAEPAXI@Z     100054ce f i qui:qwidgetfactory.obj
 0001:000044ce       ??_EQVBox@@UAEPAXI@Z       100054ce f i qui:qwidgetfactory.obj
 0001:000044ce       ??_GQVBox@@UAEPAXI@Z       100054ce f i qui:qwidgetfactory.obj
 0001:000044ce       ??_GQFrame@@UAEPAXI@Z      100054ce f i qui:qwidgetfactory.obj
 0001:000044ce       ??_EQFrame@@UAEPAXI@Z      100054ce f i qui:qwidgetfactory.obj
 0001:000044ce       ??_GQHBox@@UAEPAXI@Z       100054ce f i qui:qwidgetfactory.obj
 0001:000044ce       ??_GQGrid@@UAEPAXI@Z       100054ce f i qui:qwidgetfactory.obj
 0001:000044ce       ??_EQHBox@@UAEPAXI@Z       100054ce f i qui:qwidgetfactory.obj
 0001:000044ce       ??_EQGrid@@UAEPAXI@Z       100054ce f i qui:qwidgetfactory.obj
 0001:000044eb       ??_GQSplitter@@UAEPAXI@Z   100054eb f i qui:qwidgetfactory.obj
 0001:000044eb       ??_EQSplitter@@UAEPAXI@Z   100054eb f i qui:qwidgetfactory.obj
 0001:00004508       ??_EQDateEdit@@UAEPAXI@Z   10005508 f i qui:qwidgetfactory.obj
 0001:00004508       ??_GQDateEdit@@UAEPAXI@Z   10005508 f i qui:qwidgetfactory.obj
 0001:00004525       ??_GQTimeEdit@@UAEPAXI@Z   10005525 f i qui:qwidgetfactory.obj
 0001:00004525       ??_EQTimeEdit@@UAEPAXI@Z   10005525 f i qui:qwidgetfactory.obj
 0001:00004542       ??_GQDateTimeEdit@@UAEPAXI@Z 10005542 f i qui:qwidgetfactory.obj
 0001:00004542       ??_EQDateTimeEdit@@UAEPAXI@Z 10005542 f i qui:qwidgetfactory.obj
 0001:0000455f       ??_GQScrollBar@@UAEPAXI@Z  1000555f f i qui:qwidgetfactory.obj
 0001:0000455f       ??_EQScrollBar@@UAEPAXI@Z  1000555f f i qui:qwidgetfactory.obj
 0001:0000457c       ??_EQWidgetStack@@UAEPAXI@Z 1000557c f i qui:qwidgetfactory.obj
 0001:0000457c       ??_GQWidgetStack@@UAEPAXI@Z 1000557c f i qui:qwidgetfactory.obj
 0001:00004599       ??_EQToolBox@@UAEPAXI@Z    10005599 f i qui:qwidgetfactory.obj
 0001:00004599       ??_GQToolBox@@UAEPAXI@Z    10005599 f i qui:qwidgetfactory.obj
 0001:000045b6       ??_EQMainWindow@@UAEPAXI@Z 100055b6 f i qui:qwidgetfactory.obj
 0001:000045b6       ??_GQMainWindow@@UAEPAXI@Z 100055b6 f i qui:qwidgetfactory.obj
 0001:000045d3       ??_GQDataTable@@UAEPAXI@Z  100055d3 f i qui:qwidgetfactory.obj
 0001:000045d3       ??_EQDataTable@@UAEPAXI@Z  100055d3 f i qui:qwidgetfactory.obj
 0001:000045f0       ?createWidgetInternal@QWidgetFactory@@AAEPAVQWidget@@ABVQDomElement@@PAV2@PAVQLayout@@ABVQString@@@Z 100055f0 f   qui:qwidgetfactory.obj
 0001:00004f49       ?createLayout@QWidgetFactory@@AAEPAVQLayout@@PAVQWidget@@PAV2@W4LayoutType@1@_N@Z 10005f49 f   qui:qwidgetfactory.obj
 0001:000051aa       ??_GQGridLayout@@UAEPAXI@Z 100061aa f i qui:qwidgetfactory.obj
 0001:000051aa       ??_EQGridLayout@@UAEPAXI@Z 100061aa f i qui:qwidgetfactory.obj
 0001:000051c7       ?layoutType@QWidgetFactory@@ABE?AW4LayoutType@1@PAVQLayout@@@Z 100061c7 f   qui:qwidgetfactory.obj
 0001:0000520b       ?setProperty@QWidgetFactory@@AAEXPAVQObject@@ABVQString@@VQVariant@@@Z 1000620b f   qui:qwidgetfactory.obj
 0001:000057d6       ??0SqlWidgetConnection@QWidgetFactory@@QAE@ABVQString@@0@Z 100067d6 f i qui:qwidgetfactory.obj
 0001:00005811       ?setProperty@QWidgetFactory@@AAEXPAVQObject@@ABVQString@@ABVQDomElement@@@Z 10006811 f   qui:qwidgetfactory.obj
 0001:00005c56       ?createSpacer@QWidgetFactory@@AAEXABVQDomElement@@PAVQLayout@@@Z 10006c56 f   qui:qwidgetfactory.obj
 0001:00006119       ?loadImageCollection@QWidgetFactory@@AAEXABVQDomElement@@@Z 10007119 f   qui:qwidgetfactory.obj
 0001:0000647e       ?loadFromCollection@QWidgetFactory@@AAE?AVQImage@@ABVQString@@@Z 1000747e f   qui:qwidgetfactory.obj
 0001:000064ed       ?loadPixmap@QWidgetFactory@@AAE?AVQPixmap@@ABVQString@@@Z 100074ed f   qui:qwidgetfactory.obj
 0001:00006569       ?loadPixmap@QWidgetFactory@@AAE?AVQPixmap@@ABVQDomElement@@@Z 10007569 f   qui:qwidgetfactory.obj
 0001:000065c3       ?loadColorGroup@QWidgetFactory@@AAE?AVQColorGroup@@ABVQDomElement@@@Z 100075c3 f   qui:qwidgetfactory.obj
 0001:00006735       ?loadConnections@QWidgetFactory@@AAEXABVQDomElement@@PAVQObject@@@Z 10007735 f   qui:qwidgetfactory.obj
 0001:000070ee       ??0Connection@@QAE@XZ      100080ee f i qui:qwidgetfactory.obj
 0001:00007130       ?loadTabOrder@QWidgetFactory@@AAEXABVQDomElement@@@Z 10008130 f   qui:qwidgetfactory.obj
 0001:0000727d       ?createListViewColumn@QWidgetFactory@@AAEXPAVQListView@@ABVQString@@ABVQPixmap@@_N3@Z 1000827d f   qui:qwidgetfactory.obj
 0001:00007358       ?createTableColumnOrRow@QWidgetFactory@@AAEXPAVQTable@@ABVQString@@ABVQPixmap@@1_N@Z 10008358 f   qui:qwidgetfactory.obj
 0001:0000756d       ??1Field@QWidgetFactory@@QAE@XZ 1000856d f i qui:qwidgetfactory.obj
 0001:0000758c       ?createColumn@QWidgetFactory@@AAEXABVQDomElement@@PAVQWidget@@@Z 1000858c f   qui:qwidgetfactory.obj
 0001:00007bae       ?loadItem@QWidgetFactory@@AAEXABVQDomElement@@AAVQPixmap@@AAVQString@@AA_N@Z 10008bae f   qui:qwidgetfactory.obj
 0001:00007d95       ?createItem@QWidgetFactory@@AAEXABVQDomElement@@PAVQWidget@@PAVQListViewItem@@@Z 10008d95 f   qui:qwidgetfactory.obj
 0001:000082c8       ??_GQListViewItem@@UAEPAXI@Z 100092c8 f i qui:qwidgetfactory.obj
 0001:000082c8       ??_EQListViewItem@@UAEPAXI@Z 100092c8 f i qui:qwidgetfactory.obj
 0001:000082e5       ?loadChildAction@QWidgetFactory@@AAEXPAVQObject@@ABVQDomElement@@@Z 100092e5 f   qui:qwidgetfactory.obj
 0001:00008630       ?loadActions@QWidgetFactory@@AAEXABVQDomElement@@@Z 10009630 f   qui:qwidgetfactory.obj
 0001:00008717       ?loadToolBars@QWidgetFactory@@AAEXABVQDomElement@@@Z 10009717 f   qui:qwidgetfactory.obj
 0001:00008b23       ?loadMenuBar@QWidgetFactory@@AAEXABVQDomElement@@@Z 10009b23 f   qui:qwidgetfactory.obj
 0001:00008daa       ?loadPopupMenu@QWidgetFactory@@AAEXPAVQPopupMenu@@ABVQDomElement@@@Z 10009daa f   qui:qwidgetfactory.obj
 0001:0000912d       ?findAction@QWidgetFactory@@AAEPAVQAction@@ABVQString@@@Z 1000a12d f   qui:qwidgetfactory.obj
 0001:000091a6       ?loadExtraSource@QWidgetFactory@@AAEXXZ 1000a1a6 f   qui:qwidgetfactory.obj
 0001:000092a6       ?translate@QWidgetFactory@@AAE?AVQString@@ABV2@0@Z 1000a2a6 f   qui:qwidgetfactory.obj
 0001:0000930c       ?translate@QWidgetFactory@@AAE?AVQString@@PBD0@Z 1000a30c f   qui:qwidgetfactory.obj
 0001:00009337       ??0?$QValueList@UImage@QWidgetFactory@@@@QAE@XZ 1000a337 f i qui:qwidgetfactory.obj
 0001:00009357       ?append@?$QValueList@UImage@QWidgetFactory@@@@QAE?AV?$QValueListIterator@UImage@QWidgetFactory@@@@ABUImage@QWidgetFactory@@@Z 1000a357 f i qui:qwidgetfactory.obj
 0001:00009387       ?end@?$QValueList@UImage@QWidgetFactory@@@@QAE?AV?$QValueListIterator@UImage@QWidgetFactory@@@@XZ 1000a387 f i qui:qwidgetfactory.obj
 0001:000093a6       ??0?$QMap@VQString@@VQStringList@@@@QAE@XZ 1000a3a6 f i qui:qwidgetfactory.obj
 0001:000093c6       ??1?$QMap@VQString@@VQStringList@@@@QAE@XZ 1000a3c6 f i qui:qwidgetfactory.obj
 0001:000093e3       ??0?$QMap@PAVQWidget@@USqlWidgetConnection@QWidgetFactory@@@@QAE@XZ 1000a3e3 f i qui:qwidgetfactory.obj
 0001:00009403       ??1?$QMap@PAVQWidget@@USqlWidgetConnection@QWidgetFactory@@@@QAE@XZ 1000a403 f i qui:qwidgetfactory.obj
 0001:00009420       ??0?$QMap@PAVQTable@@V?$QValueList@UField@QWidgetFactory@@@@@@QAE@XZ 1000a420 f i qui:qwidgetfactory.obj
 0001:00009440       ??1?$QMap@PAVQTable@@V?$QValueList@UField@QWidgetFactory@@@@@@QAE@XZ 1000a440 f i qui:qwidgetfactory.obj
 0001:0000945d       ??1?$QDict@_N@@UAE@XZ      1000a45d f i qui:qwidgetfactory.obj
 0001:00009480       ?count@?$QDict@_N@@UBEIXZ  1000a480 f i qui:qwidgetfactory.obj
 0001:00009480       ?currentNode@?$QPtrList@VsignalConnection@@@@QBEPAVQLNode@@XZ 1000a480 f i bncs_client_runtime.obj
 0001:00009484       ?clear@?$QDict@_N@@UAEXXZ  1000a484 f i qui:qwidgetfactory.obj
 0001:00009490       ?count@?$QPtrList@VQWidgetFactory@@@@UBEIXZ 1000a490 f i qui:qwidgetfactory.obj
 0001:00009490       ?count@?$QPtrList@VQAction@@@@UBEIXZ 1000a490 f i qui:qwidgetfactory.obj
 0001:00009490       ?count@?$QPtrList@VsignalConnection@@@@UBEIXZ 1000a490 f i bncs_client_runtime.obj
 0001:00009494       ?clear@?$QPtrList@VQAction@@@@UAEXXZ 1000a494 f i qui:qwidgetfactory.obj
 0001:00009494       ?clear@?$QPtrList@VQWidgetFactory@@@@UAEXXZ 1000a494 f i qui:qwidgetfactory.obj
 0001:0000949a       ??0?$QMap@PAVQWidget@@VQString@@@@QAE@XZ 1000a49a f i qui:qwidgetfactory.obj
 0001:000094ba       ??0?$QValueList@UField@QWidgetFactory@@@@QAE@XZ 1000a4ba f i qui:qwidgetfactory.obj
 0001:000094da       ?append@?$QValueList@UField@QWidgetFactory@@@@QAE?AV?$QValueListIterator@UField@QWidgetFactory@@@@ABUField@QWidgetFactory@@@Z 1000a4da f i qui:qwidgetfactory.obj
 0001:0000950a       ??0?$QValueList@VQPixmap@@@@QAE@XZ 1000a50a f i qui:qwidgetfactory.obj
 0001:0000952a       ??_E?$QPtrList@VQAction@@@@UAEPAXI@Z 1000a52a f i qui:qwidgetfactory.obj
 0001:0000952a       ??_G?$QPtrList@VQAction@@@@UAEPAXI@Z 1000a52a f i qui:qwidgetfactory.obj
 0001:00009555       ??_G?$QDict@_N@@UAEPAXI@Z  1000a555 f i qui:qwidgetfactory.obj
 0001:00009555       ??_E?$QDict@_N@@UAEPAXI@Z  1000a555 f i qui:qwidgetfactory.obj
 0001:00009580       ??_E?$QPtrList@VQWidgetFactory@@@@UAEPAXI@Z 1000a580 f i qui:qwidgetfactory.obj
 0001:00009580       ??_G?$QPtrList@VQWidgetFactory@@@@UAEPAXI@Z 1000a580 f i qui:qwidgetfactory.obj
 0001:000095ab       ?end@?$QValueList@UField@QWidgetFactory@@@@QAE?AV?$QValueListIterator@UField@QWidgetFactory@@@@XZ 1000a5ab f i qui:qwidgetfactory.obj
 0001:000095ca       ?append@?$QValueList@VQPixmap@@@@QAE?AV?$QValueListIterator@VQPixmap@@@@ABVQPixmap@@@Z 1000a5ca f i qui:qwidgetfactory.obj
 0001:000095fa       ?end@?$QValueList@VQPixmap@@@@QAE?AV?$QValueListIterator@VQPixmap@@@@XZ 1000a5fa f i qui:qwidgetfactory.obj
 0001:00009619       ??1?$QMapPrivate@VQString@@VQStringList@@@@QAE@XZ 1000a619 f i qui:qwidgetfactory.obj
 0001:00009631       ??1?$QMapPrivate@PAVQWidget@@USqlWidgetConnection@QWidgetFactory@@@@QAE@XZ 1000a631 f i qui:qwidgetfactory.obj
 0001:00009649       ?begin@?$QMapPrivate@VQString@@VQStringList@@@@QAE?AV?$QMapIterator@VQString@@VQStringList@@@@XZ 1000a649 f i qui:qwidgetfactory.obj
 0001:00009649       ?begin@?$QMapPrivate@PAVQWidget@@USqlWidgetConnection@QWidgetFactory@@@@QAE?AV?$QMapIterator@PAVQWidget@@USqlWidgetConnection@QWidgetFactory@@@@XZ 1000a649 f i qui:qwidgetfactory.obj
 0001:00009657       ??1?$QMapPrivate@PAVQTable@@V?$QValueList@UField@QWidgetFactory@@@@@@QAE@XZ 1000a657 f i qui:qwidgetfactory.obj
 0001:00009677       ?derefAndDelete@?$QValueListPrivate@VQPixmap@@@@QAEXXZ 1000a677 f i qui:qwidgetfactory.obj
 0001:00009677       ?derefAndDelete@?$QValueListPrivate@UImage@QWidgetFactory@@@@QAEXXZ 1000a677 f i qui:qwidgetfactory.obj
 0001:00009677       ?derefAndDelete@?$QValueListPrivate@UField@QWidgetFactory@@@@QAEXXZ 1000a677 f i qui:qwidgetfactory.obj
 0001:00009677       ?derefAndDelete@?$QValueListPrivate@VQString@@@@QAEXXZ 1000a677 f i qui:qwidgetfactory.obj
 0001:00009687       ??_G?$QMapNode@VQString@@VQStringList@@@@QAEPAXI@Z 1000a687 f i qui:qwidgetfactory.obj
 0001:000096af       ??_G?$QMapNode@PAVQWidget@@USqlWidgetConnection@QWidgetFactory@@@@QAEPAXI@Z 1000a6af f i qui:qwidgetfactory.obj
 0001:000096dc       ?detachInternal@?$QValueList@UImage@QWidgetFactory@@@@AAEXXZ 1000a6dc f i qui:qwidgetfactory.obj
 0001:00009703       ?insert@?$QMap@VQString@@VQStringList@@@@QAE?AV?$QMapIterator@VQString@@VQStringList@@@@ABVQString@@ABVQStringList@@_N@Z 1000a703 f i qui:qwidgetfactory.obj
 0001:0000975e       ?detachInternal@?$QMap@VQString@@VQStringList@@@@AAEXXZ 1000a75e f i qui:qwidgetfactory.obj
 0001:00009782       ?inc@?$QMapIterator@VQString@@VQStringList@@@@AAEHXZ 1000a782 f i qui:qwidgetfactory.obj
 0001:00009782       ?inc@?$QMapIterator@PAVQWidget@@USqlWidgetConnection@QWidgetFactory@@@@AAEHXZ 1000a782 f i qui:qwidgetfactory.obj
 0001:00009782       ?inc@?$QMapIterator@VQString@@V1@@@AAEHXZ 1000a782 f i qui:qwidgetfactory.obj
 0001:000097b0       ?insert@?$QMap@PAVQWidget@@USqlWidgetConnection@QWidgetFactory@@@@QAE?AV?$QMapIterator@PAVQWidget@@USqlWidgetConnection@QWidgetFactory@@@@ABQAVQWidget@@ABUSqlWidgetConnection@QWidgetFactory@@_N@Z 1000a7b0 f i qui:qwidgetfactory.obj
 0001:000097fe       ?detachInternal@?$QMap@PAVQWidget@@USqlWidgetConnection@QWidgetFactory@@@@AAEXXZ 1000a7fe f i qui:qwidgetfactory.obj
 0001:00009822       ?insert@?$QMap@PAVQTable@@V?$QValueList@UField@QWidgetFactory@@@@@@QAE?AV?$QMapIterator@PAVQTable@@V?$QValueList@UField@QWidgetFactory@@@@@@ABQAVQTable@@ABV?$QValueList@UField@QWidgetFactory@@@@_N@Z 1000a822 f i qui:qwidgetfactory.obj
 0001:0000987d       ?remove@?$QMap@PAVQTable@@V?$QValueList@UField@QWidgetFactory@@@@@@QAEXABQAVQTable@@@Z 1000a87d f i qui:qwidgetfactory.obj
 0001:000098c7       ?detachInternal@?$QMap@PAVQTable@@V?$QValueList@UField@QWidgetFactory@@@@@@AAEXXZ 1000a8c7 f i qui:qwidgetfactory.obj
 0001:000098eb       ?deleteItem@?$QPtrList@VQAction@@@@EAEXPAX@Z 1000a8eb f i qui:qwidgetfactory.obj
 0001:00009903       ?deleteItem@?$QDict@_N@@EAEXPAX@Z 1000a903 f i qui:qwidgetfactory.obj
 0001:00009916       ?deleteItem@?$QPtrList@VQWidgetFactory@@@@EAEXPAX@Z 1000a916 f i qui:qwidgetfactory.obj
 0001:0000992d       ?insert@?$QMap@PAVQWidget@@VQString@@@@QAE?AV?$QMapIterator@PAVQWidget@@VQString@@@@ABQAVQWidget@@ABVQString@@_N@Z 1000a92d f i qui:qwidgetfactory.obj
 0001:0000997c       ?detachInternal@?$QValueList@UField@QWidgetFactory@@@@AAEXXZ 1000a97c f i qui:qwidgetfactory.obj
 0001:000099a3       ?detachInternal@?$QValueList@VQPixmap@@@@AAEXXZ 1000a9a3 f i qui:qwidgetfactory.obj
 0001:000099ca       ?find@?$QValueListPrivate@VQString@@@@QBEPAV?$QValueListNode@VQString@@@@PAV2@ABVQString@@@Z 1000a9ca f i qui:qwidgetfactory.obj
 0001:000099fb       ?at@?$QValueListPrivate@VQString@@@@QBEPAV?$QValueListNode@VQString@@@@I@Z 1000a9fb f i qui:qwidgetfactory.obj
 0001:000099fb       ?at@?$QValueListPrivate@VQPixmap@@@@QBEPAV?$QValueListNode@VQPixmap@@@@I@Z 1000a9fb f i qui:qwidgetfactory.obj
 0001:00009a3a       ??0?$QValueListPrivate@UImage@QWidgetFactory@@@@QAE@XZ 1000aa3a f i qui:qwidgetfactory.obj
 0001:00009a78       ?insert@?$QValueListPrivate@UImage@QWidgetFactory@@@@QAE?AV?$QValueListIterator@UImage@QWidgetFactory@@@@V2@ABUImage@QWidgetFactory@@@Z 1000aa78 f i qui:qwidgetfactory.obj
 0001:00009abb       ??0?$QMapPrivate@VQString@@VQStringList@@@@QAE@XZ 1000aabb f i qui:qwidgetfactory.obj
 0001:00009b0f       ?clear@?$QMapPrivate@VQString@@VQStringList@@@@QAEXXZ 1000ab0f f i qui:qwidgetfactory.obj
 0001:00009b3e       ??0?$QMapPrivate@PAVQWidget@@USqlWidgetConnection@QWidgetFactory@@@@QAE@XZ 1000ab3e f i qui:qwidgetfactory.obj
 0001:00009b96       ?clear@?$QMapPrivate@PAVQWidget@@USqlWidgetConnection@QWidgetFactory@@@@QAEXXZ 1000ab96 f i qui:qwidgetfactory.obj
 0001:00009bc5       ??0?$QMapPrivate@PAVQTable@@V?$QValueList@UField@QWidgetFactory@@@@@@QAE@XZ 1000abc5 f i qui:qwidgetfactory.obj
 0001:00009c0f       ?clear@?$QMapPrivate@PAVQTable@@V?$QValueList@UField@QWidgetFactory@@@@@@QAEXXZ 1000ac0f f i qui:qwidgetfactory.obj
 0001:00009c3e       ?find@?$QMapPrivate@PAVQTable@@V?$QValueList@UField@QWidgetFactory@@@@@@QBE?AV?$QMapConstIterator@PAVQTable@@V?$QValueList@UField@QWidgetFactory@@@@@@ABQAVQTable@@@Z 1000ac3e f i qui:qwidgetfactory.obj
 0001:00009c82       ??0?$QMapPrivate@PAVQWidget@@VQString@@@@QAE@XZ 1000ac82 f i qui:qwidgetfactory.obj
 0001:00009ccd       ??0?$QValueListPrivate@UField@QWidgetFactory@@@@QAE@XZ 1000accd f i qui:qwidgetfactory.obj
 0001:00009d18       ??0Field@QWidgetFactory@@QAE@XZ 1000ad18 f i qui:qwidgetfactory.obj
 0001:00009d37       ?insert@?$QValueListPrivate@UField@QWidgetFactory@@@@QAE?AV?$QValueListIterator@UField@QWidgetFactory@@@@V2@ABUField@QWidgetFactory@@@Z 1000ad37 f i qui:qwidgetfactory.obj
 0001:00009d85       ??0?$QValueListPrivate@VQPixmap@@@@QAE@XZ 1000ad85 f i qui:qwidgetfactory.obj
 0001:00009dd1       ??_E?$QValueListNode@VQPixmap@@@@UAEPAXI@Z 1000add1 f i qui:qwidgetfactory.obj
 0001:00009dd1       ??_G?$QValueListNode@VQPixmap@@@@UAEPAXI@Z 1000add1 f i qui:qwidgetfactory.obj
 0001:00009df7       ?insert@?$QValueListPrivate@VQPixmap@@@@QAE?AV?$QValueListIterator@VQPixmap@@@@V2@ABVQPixmap@@@Z 1000adf7 f i qui:qwidgetfactory.obj
 0001:00009e46       ??4SqlWidgetConnection@QWidgetFactory@@QAEAAU01@ABU01@@Z 1000ae46 f i qui:qwidgetfactory.obj
 0001:00009e6f       ??_G?$QValueListPrivate@UField@QWidgetFactory@@@@UAEPAXI@Z 1000ae6f f i qui:qwidgetfactory.obj
 0001:00009e6f       ??_E?$QValueListPrivate@UImage@QWidgetFactory@@@@UAEPAXI@Z 1000ae6f f i qui:qwidgetfactory.obj
 0001:00009e6f       ??_E?$QValueListPrivate@UField@QWidgetFactory@@@@UAEPAXI@Z 1000ae6f f i qui:qwidgetfactory.obj
 0001:00009e6f       ??_G?$QValueListPrivate@VQPixmap@@@@UAEPAXI@Z 1000ae6f f i qui:qwidgetfactory.obj
 0001:00009e6f       ??_E?$QValueListPrivate@VQPixmap@@@@UAEPAXI@Z 1000ae6f f i qui:qwidgetfactory.obj
 0001:00009e6f       ??_G?$QValueListPrivate@UImage@QWidgetFactory@@@@UAEPAXI@Z 1000ae6f f i qui:qwidgetfactory.obj
 0001:00009e8b       ??1?$QValueListPrivate@UField@QWidgetFactory@@@@UAE@XZ 1000ae8b f i qui:qwidgetfactory.obj
 0001:00009e8b       ??1?$QValueListPrivate@UImage@QWidgetFactory@@@@UAE@XZ 1000ae8b f i qui:qwidgetfactory.obj
 0001:00009e8b       ??1?$QValueListPrivate@VQPixmap@@@@UAE@XZ 1000ae8b f i qui:qwidgetfactory.obj
 0001:00009ec3       ??0?$QValueListNode@UImage@QWidgetFactory@@@@QAE@ABUImage@QWidgetFactory@@@Z 1000aec3 f i qui:qwidgetfactory.obj
 0001:00009ef3       ??_G?$QValueListNode@UImage@QWidgetFactory@@@@UAEPAXI@Z 1000aef3 f i qui:qwidgetfactory.obj
 0001:00009ef3       ??_E?$QValueListNode@UImage@QWidgetFactory@@@@UAEPAXI@Z 1000aef3 f i qui:qwidgetfactory.obj
 0001:00009f0f       ??1?$QValueListNode@UImage@QWidgetFactory@@@@UAE@XZ 1000af0f f i qui:qwidgetfactory.obj
 0001:00009f2c       ??0?$QValueListNode@UImage@QWidgetFactory@@@@QAE@XZ 1000af2c f i qui:qwidgetfactory.obj
 0001:00009f4f       ?remove@?$QMapPrivate@PAVQTable@@V?$QValueList@UField@QWidgetFactory@@@@@@QAEXV?$QMapIterator@PAVQTable@@V?$QValueList@UField@QWidgetFactory@@@@@@@Z 1000af4f f i qui:qwidgetfactory.obj
 0001:00009f88       ??_G?$QValueListNode@UField@QWidgetFactory@@@@UAEPAXI@Z 1000af88 f i qui:qwidgetfactory.obj
 0001:00009f88       ??_E?$QValueListNode@UField@QWidgetFactory@@@@UAEPAXI@Z 1000af88 f i qui:qwidgetfactory.obj
 0001:00009fad       ??0Field@QWidgetFactory@@QAE@ABU01@@Z 1000afad f i qui:qwidgetfactory.obj
 0001:00009fdd       ??0?$QValueListPrivate@UImage@QWidgetFactory@@@@QAE@ABV0@@Z 1000afdd f i qui:qwidgetfactory.obj
 0001:0000a05b       ??0?$QMapPrivate@VQString@@VQStringList@@@@QAE@PBV0@@Z 1000b05b f i qui:qwidgetfactory.obj
 0001:0000a103       ?clear@?$QMapPrivate@VQString@@VQStringList@@@@QAEXPAU?$QMapNode@VQString@@VQStringList@@@@@Z 1000b103 f i qui:qwidgetfactory.obj
 0001:0000a135       ?insertSingle@?$QMapPrivate@VQString@@VQStringList@@@@QAE?AV?$QMapIterator@VQString@@VQStringList@@@@ABVQString@@@Z 1000b135 f i qui:qwidgetfactory.obj
 0001:0000a1b7       ??0?$QMapPrivate@PAVQWidget@@USqlWidgetConnection@QWidgetFactory@@@@QAE@PBV0@@Z 1000b1b7 f i qui:qwidgetfactory.obj
 0001:0000a266       ?clear@?$QMapPrivate@PAVQWidget@@USqlWidgetConnection@QWidgetFactory@@@@QAEXPAU?$QMapNode@PAVQWidget@@USqlWidgetConnection@QWidgetFactory@@@@@Z 1000b266 f i qui:qwidgetfactory.obj
 0001:0000a298       ?insertSingle@?$QMapPrivate@PAVQWidget@@USqlWidgetConnection@QWidgetFactory@@@@QAE?AV?$QMapIterator@PAVQWidget@@USqlWidgetConnection@QWidgetFactory@@@@ABQAVQWidget@@@Z 1000b298 f i qui:qwidgetfactory.obj
 0001:0000a310       ??0?$QMapPrivate@PAVQTable@@V?$QValueList@UField@QWidgetFactory@@@@@@QAE@PBV0@@Z 1000b310 f i qui:qwidgetfactory.obj
 0001:0000a3ae       ?clear@?$QMapPrivate@PAVQTable@@V?$QValueList@UField@QWidgetFactory@@@@@@QAEXPAU?$QMapNode@PAVQTable@@V?$QValueList@UField@QWidgetFactory@@@@@@@Z 1000b3ae f i qui:qwidgetfactory.obj
 0001:0000a3e6       ?insertSingle@?$QMapPrivate@PAVQTable@@V?$QValueList@UField@QWidgetFactory@@@@@@QAE?AV?$QMapIterator@PAVQTable@@V?$QValueList@UField@QWidgetFactory@@@@@@ABQAVQTable@@@Z 1000b3e6 f i qui:qwidgetfactory.obj
 0001:0000a45e       ?detachInternal@?$QMap@PAVQWidget@@VQString@@@@AAEXXZ 1000b45e f i qui:qwidgetfactory.obj
 0001:0000a482       ?insertSingle@?$QMapPrivate@PAVQWidget@@VQString@@@@QAE?AV?$QMapIterator@PAVQWidget@@VQString@@@@ABQAVQWidget@@@Z 1000b482 f i qui:qwidgetfactory.obj
 0001:0000a4fa       ??0?$QValueListPrivate@UField@QWidgetFactory@@@@QAE@ABV0@@Z 1000b4fa f i qui:qwidgetfactory.obj
 0001:0000a583       ??0?$QValueListPrivate@VQPixmap@@@@QAE@ABV0@@Z 1000b583 f i qui:qwidgetfactory.obj
 0001:0000a60d       ??0?$QValueListIterator@VQPixmap@@@@QAE@ABV0@@Z 1000b60d f i qui:qwidgetfactory.obj
 0001:0000a60d       ??0?$QValueListIterator@UField@QWidgetFactory@@@@QAE@ABV0@@Z 1000b60d f i qui:qwidgetfactory.obj
 0001:0000a60d       ??0?$QValueListIterator@UImage@QWidgetFactory@@@@QAE@ABV0@@Z 1000b60d f i qui:qwidgetfactory.obj
 0001:0000a61a       ?copy@?$QMapPrivate@VQString@@VQStringList@@@@QAEPAU?$QMapNode@VQString@@VQStringList@@@@PAU2@@Z 1000b61a f i qui:qwidgetfactory.obj
 0001:0000a686       ?insert@?$QMapPrivate@VQString@@VQStringList@@@@QAE?AV?$QMapIterator@VQString@@VQStringList@@@@PAUQMapNodeBase@@0ABVQString@@@Z 1000b686 f i qui:qwidgetfactory.obj
 0001:0000a71b       ?copy@?$QMapPrivate@PAVQWidget@@USqlWidgetConnection@QWidgetFactory@@@@QAEPAU?$QMapNode@PAVQWidget@@USqlWidgetConnection@QWidgetFactory@@@@PAU2@@Z 1000b71b f i qui:qwidgetfactory.obj
 0001:0000a787       ?insert@?$QMapPrivate@PAVQWidget@@USqlWidgetConnection@QWidgetFactory@@@@QAE?AV?$QMapIterator@PAVQWidget@@USqlWidgetConnection@QWidgetFactory@@@@PAUQMapNodeBase@@0ABQAVQWidget@@@Z 1000b787 f i qui:qwidgetfactory.obj
 0001:0000a825       ?copy@?$QMapPrivate@PAVQTable@@V?$QValueList@UField@QWidgetFactory@@@@@@QAEPAU?$QMapNode@PAVQTable@@V?$QValueList@UField@QWidgetFactory@@@@@@PAU2@@Z 1000b825 f i qui:qwidgetfactory.obj
 0001:0000a891       ?insert@?$QMapPrivate@PAVQTable@@V?$QValueList@UField@QWidgetFactory@@@@@@QAE?AV?$QMapIterator@PAVQTable@@V?$QValueList@UField@QWidgetFactory@@@@@@PAUQMapNodeBase@@0ABQAVQTable@@@Z 1000b891 f i qui:qwidgetfactory.obj
 0001:0000a920       ?dec@?$QMapIterator@PAVQWidget@@USqlWidgetConnection@QWidgetFactory@@@@AAEHXZ 1000b920 f i qui:qwidgetfactory.obj
 0001:0000a920       ?dec@?$QMapIterator@VQString@@VQStringList@@@@AAEHXZ 1000b920 f i qui:qwidgetfactory.obj
 0001:0000a920       ?dec@?$QMapIterator@PAVQTable@@V?$QValueList@UField@QWidgetFactory@@@@@@AAEHXZ 1000b920 f i qui:qwidgetfactory.obj
 0001:0000a920       ?dec@?$QMapIterator@PAVQWidget@@VQString@@@@AAEHXZ 1000b920 f i qui:qwidgetfactory.obj
 0001:0000a957       ??0?$QMapPrivate@PAVQWidget@@VQString@@@@QAE@PBV0@@Z 1000b957 f i qui:qwidgetfactory.obj
 0001:0000a9f6       ?insert@?$QMapPrivate@PAVQWidget@@VQString@@@@QAE?AV?$QMapIterator@PAVQWidget@@VQString@@@@PAUQMapNodeBase@@0ABQAVQWidget@@@Z 1000b9f6 f i qui:qwidgetfactory.obj
 0001:0000aa86       ??0?$QMapNode@PAVQTable@@V?$QValueList@UField@QWidgetFactory@@@@@@QAE@ABU0@@Z 1000ba86 f i qui:qwidgetfactory.obj
 0001:0000aabb       ??0?$QMapNode@VQString@@VQStringList@@@@QAE@ABVQString@@@Z 1000babb f i qui:qwidgetfactory.obj
 0001:0000aae6       ??0?$QMapNode@VQString@@VQStringList@@@@QAE@ABU0@@Z 1000bae6 f i qui:qwidgetfactory.obj
 0001:0000ab2f       ??0?$QMapNode@PAVQWidget@@USqlWidgetConnection@QWidgetFactory@@@@QAE@ABU0@@Z 1000bb2f f i qui:qwidgetfactory.obj
 0001:0000ab63       ?copy@?$QMapPrivate@PAVQWidget@@VQString@@@@QAEPAU?$QMapNode@PAVQWidget@@VQString@@@@PAU2@@Z 1000bb63 f i qui:qwidgetfactory.obj
 0001:0000abcf       ??0?$QMapNode@PAVQWidget@@VQString@@@@QAE@ABU0@@Z 1000bbcf f i qui:qwidgetfactory.obj
 0001:0000abfb       ??_EQDateTimeEdit@@WCI@AEPAXI@Z 1000bbfb f i qui:qwidgetfactory.obj
 0001:0000ac03       ??_EQRadioButton@@WCI@AEPAXI@Z 1000bc03 f i qui:qwidgetfactory.obj
 0001:0000ac0b       ??_EQLCDNumber@@WCI@AEPAXI@Z 1000bc0b f i qui:qwidgetfactory.obj
 0001:0000ac13       ??_EQGridLayout@@WCI@AEPAXI@Z 1000bc13 f i qui:qwidgetfactory.obj
 0001:0000ac1b       ??_EQPopupMenu@@WCI@AEPAXI@Z 1000bc1b f i qui:qwidgetfactory.obj
 0001:0000ac23       ??_EQPopupMenu@@WIM@AEPAXI@Z 1000bc23 f i qui:qwidgetfactory.obj
 0001:0000ac2e       ??_EQSplitter@@WCI@AEPAXI@Z 1000bc2e f i qui:qwidgetfactory.obj
 0001:0000ac36       ??_EQTimeEdit@@WCI@AEPAXI@Z 1000bc36 f i qui:qwidgetfactory.obj
 0001:0000ac3e       ??_EQTextView@@WCI@AEPAXI@Z 1000bc3e f i qui:qwidgetfactory.obj
 0001:0000ac46       ??_EQSpinBox@@WCI@AEPAXI@Z 1000bc46 f i qui:qwidgetfactory.obj
 0001:0000ac4e       ??_EQSpinBox@@WGM@AEPAXI@Z 1000bc4e f i qui:qwidgetfactory.obj
 0001:0000ac56       ??_EQToolBox@@WCI@AEPAXI@Z 1000bc56 f i qui:qwidgetfactory.obj
 0001:0000ac5e       ??_EQDial@@WCI@AEPAXI@Z    1000bc5e f i qui:qwidgetfactory.obj
 0001:0000ac66       ??_EQDial@@WGM@AEPAXI@Z    1000bc66 f i qui:qwidgetfactory.obj
 0001:0000ac6e       ??_EQGroupBox@@WCI@AEPAXI@Z 1000bc6e f i qui:qwidgetfactory.obj
 0001:0000ac76       ??_EQListBox@@WCI@AEPAXI@Z 1000bc76 f i qui:qwidgetfactory.obj
 0001:0000ac7e       ??_EQDataTable@@WCI@AEPAXI@Z 1000bc7e f i qui:qwidgetfactory.obj
 0001:0000ac86       ??_EQTextBrowser@@WCI@AEPAXI@Z 1000bc86 f i qui:qwidgetfactory.obj
 0001:0000ac8e       ??_EQLineEdit@@WCI@AEPAXI@Z 1000bc8e f i qui:qwidgetfactory.obj
 0001:0000ac96       ??_EQWidgetStack@@WCI@AEPAXI@Z 1000bc96 f i qui:qwidgetfactory.obj
 0001:0000ac9e       ??_EQTabWidget@@WCI@AEPAXI@Z 1000bc9e f i qui:qwidgetfactory.obj
 0001:0000aca6       ??_EQGrid@@WCI@AEPAXI@Z    1000bca6 f i qui:qwidgetfactory.obj
 0001:0000aca6       ??_EQFrame@@WCI@AEPAXI@Z   1000bca6 f i qui:qwidgetfactory.obj
 0001:0000aca6       ??_EQWidget@@WCI@AEPAXI@Z  1000bca6 f i qui:qwidgetfactory.obj
 0001:0000aca6       ??_EQVBox@@WCI@AEPAXI@Z    1000bca6 f i qui:qwidgetfactory.obj
 0001:0000aca6       ??_EQHBox@@WCI@AEPAXI@Z    1000bca6 f i qui:qwidgetfactory.obj
 0001:0000acae       ??_EQDateEdit@@WCI@AEPAXI@Z 1000bcae f i qui:qwidgetfactory.obj
 0001:0000acb6       ??_EQLabel@@WCI@AEPAXI@Z   1000bcb6 f i qui:qwidgetfactory.obj
 0001:0000acbe       ??_EQProgressBar@@WCI@AEPAXI@Z 1000bcbe f i qui:qwidgetfactory.obj
 0001:0000acc6       ??_EQButtonGroup@@WCI@AEPAXI@Z 1000bcc6 f i qui:qwidgetfactory.obj
 0001:0000acce       ??_EQToolBar@@WCI@AEPAXI@Z 1000bcce f i qui:qwidgetfactory.obj
 0001:0000acd6       ??_EQDialog@@WCI@AEPAXI@Z  1000bcd6 f i qui:qwidgetfactory.obj
 0001:0000acde       ??_EQMainWindow@@WCI@AEPAXI@Z 1000bcde f i qui:qwidgetfactory.obj
 0001:0000ace6       ??_EQToolButton@@WCI@AEPAXI@Z 1000bce6 f i qui:qwidgetfactory.obj
 0001:0000acee       ??_EQListView@@WCI@AEPAXI@Z 1000bcee f i qui:qwidgetfactory.obj
 0001:0000acf6       ??_EQIconView@@WCI@AEPAXI@Z 1000bcf6 f i qui:qwidgetfactory.obj
 0001:0000acfe       ??_EQTable@@WCI@AEPAXI@Z   1000bcfe f i qui:qwidgetfactory.obj
 0001:0000ad06       ??_EQScrollBar@@WCI@AEPAXI@Z 1000bd06 f i qui:qwidgetfactory.obj
 0001:0000ad0e       ??_EQScrollBar@@WGM@AEPAXI@Z 1000bd0e f i qui:qwidgetfactory.obj
 0001:0000ad16       ??_EQSlider@@WCI@AEPAXI@Z  1000bd16 f i qui:qwidgetfactory.obj
 0001:0000ad1e       ??_EQSlider@@WGM@AEPAXI@Z  1000bd1e f i qui:qwidgetfactory.obj
 0001:0000ad26       ??_EQWizard@@WCI@AEPAXI@Z  1000bd26 f i qui:qwidgetfactory.obj
 0001:0000ad2e       ??_EQMultiLineEdit@@WCI@AEPAXI@Z 1000bd2e f i qui:qwidgetfactory.obj
 0001:0000ad36       ??_EQSqlCursor@@W7AEPAXI@Z 1000bd36 f i qui:qwidgetfactory.obj
 0001:0000ad3e       ?value@QSqlCursor@@W7BE?AVQVariant@@H@Z 1000bd3e f i qui:qwidgetfactory.obj
 0001:0000ad47       ??_EQComboBox@@WCI@AEPAXI@Z 1000bd47 f i qui:qwidgetfactory.obj
 0001:0000ad4f       ??0DatabaseSupport2@@QAE@XZ 1000bd4f f   qui:database.obj
 0001:0000ad79       ??_GDatabaseSupport2@@UAEPAXI@Z 1000bd79 f i qui:database.obj
 0001:0000ad79       ??_EDatabaseSupport2@@UAEPAXI@Z 1000bd79 f i qui:database.obj
 0001:0000ada8       ?initPreview@DatabaseSupport2@@QAEXABVQString@@0PAVQObject@@ABV?$QMap@VQString@@V1@@@@Z 1000bda8 f   qui:database.obj
 0001:0000aec2       ??_EQSqlForm@@UAEPAXI@Z    1000bec2 f i qui:database.obj
 0001:0000aec2       ??_GQSqlForm@@UAEPAXI@Z    1000bec2 f i qui:database.obj
 0001:0000aedf       ??0QDesignerDataBrowser2@@QAE@PAVQWidget@@PBD@Z 1000bedf f   qui:database.obj
 0001:0000af17       ?metaObject@QDesignerDataBrowser2@@UBEPAVQMetaObject@@XZ 1000bf17 f i qui:database.obj
 0001:0000af1c       ??_GQDesignerDataBrowser2@@UAEPAXI@Z 1000bf1c f i qui:database.obj
 0001:0000af1c       ??_EQDesignerDataBrowser2@@UAEPAXI@Z 1000bf1c f i qui:database.obj
 0001:0000af38       ??1QDesignerDataBrowser2@@UAE@XZ 1000bf38 f i qui:database.obj
 0001:0000af6a       ?event@QDesignerDataBrowser2@@MAE_NPAVQEvent@@@Z 1000bf6a f   qui:database.obj
 0001:0000afea       ??0QDesignerDataView2@@QAE@PAVQWidget@@PBD@Z 1000bfea f   qui:database.obj
 0001:0000b022       ?metaObject@QDesignerDataView2@@UBEPAVQMetaObject@@XZ 1000c022 f i qui:database.obj
 0001:0000b027       ??_EQDesignerDataView2@@UAEPAXI@Z 1000c027 f i qui:database.obj
 0001:0000b027       ??_GQDesignerDataView2@@UAEPAXI@Z 1000c027 f i qui:database.obj
 0001:0000b043       ??1QDesignerDataView2@@UAE@XZ 1000c043 f i qui:database.obj
 0001:0000b075       ?event@QDesignerDataView2@@MAE_NPAVQEvent@@@Z 1000c075 f   qui:database.obj
 0001:0000b0a8       ??_EQDesignerDataView2@@WCI@AEPAXI@Z 1000c0a8 f i qui:database.obj
 0001:0000b0b0       ??_EQDesignerDataView2@@WHA@AEPAXI@Z 1000c0b0 f i qui:database.obj
 0001:0000b0b8       ??_EQDesignerDataBrowser2@@WCI@AEPAXI@Z 1000c0b8 f i qui:database.obj
 0001:0000b0c0       ??_EQDesignerDataBrowser2@@WHA@AEPAXI@Z 1000c0c0 f i qui:database.obj
 0001:0000b0c8       ?elementToVariant@DomTool@@SA?AVQVariant@@ABVQDomElement@@ABV2@@Z 1000c0c8 f   qui:domtool.obj
 0001:0000b0f8       ?elementToVariant@DomTool@@SA?AVQVariant@@ABVQDomElement@@ABV2@AAVQString@@@Z 1000c0f8 f   qui:domtool.obj
 0001:0000ce91       ?readColor@DomTool@@SA?AVQColor@@ABVQDomElement@@@Z 1000de91 f   qui:domtool.obj
 0001:0000d08c       ?fixDocument@DomTool@@SAXAAVQDomDocument@@@Z 1000e08c f   qui:domtool.obj
 0001:0000db6b       ??0UibStrTable@@QAE@XZ     1000eb6b f   qui:uib.obj
 0001:0000dbb6       ?className@QDesignerDataBrowser2@@UBEPBDXZ 1000ebb6 f   qui:moc_database2.obj
 0001:0000dbf3       ?staticMetaObject@QDesignerDataBrowser2@@SAPAVQMetaObject@@XZ 1000ebf3 f   qui:moc_database2.obj
 0001:0000dc3a       ?qt_cast@QDesignerDataBrowser2@@UAEPAXPBD@Z 1000ec3a f   qui:moc_database2.obj
 0001:0000dca5       ?qt_invoke@QDesignerDataBrowser2@@UAE_NHPAUQUObject@@@Z 1000eca5 f   qui:moc_database2.obj
 0001:0000dcb6       ?qt_emit@QDesignerDataBrowser2@@UAE_NHPAUQUObject@@@Z 1000ecb6 f   qui:moc_database2.obj
 0001:0000dcc7       ?qt_property@QDesignerDataBrowser2@@UAE_NHHPAVQVariant@@@Z 1000ecc7 f   qui:moc_database2.obj
 0001:0000dcdc       ?className@QDesignerDataView2@@UBEPBDXZ 1000ecdc f   qui:moc_database2.obj
 0001:0000dd19       ?staticMetaObject@QDesignerDataView2@@SAPAVQMetaObject@@XZ 1000ed19 f   qui:moc_database2.obj
 0001:0000dd60       ?qt_cast@QDesignerDataView2@@UAEPAXPBD@Z 1000ed60 f   qui:moc_database2.obj
 0001:0000ddcb       ?qt_invoke@QDesignerDataView2@@UAE_NHPAUQUObject@@@Z 1000edcb f   qui:moc_database2.obj
 0001:0000dddc       ?qt_emit@QDesignerDataView2@@UAE_NHPAUQUObject@@@Z 1000eddc f   qui:moc_database2.obj
 0001:0000dded       ?qt_property@QDesignerDataView2@@UAE_NHHPAVQVariant@@@Z 1000eded f   qui:moc_database2.obj
 0001:0000df40       ??0?$QMap@VQString@@VcomplexInstance@@@@QAE@XZ 1000ef40 f i bncs_client_runtime.obj
 0001:0000dfc0       ??0?$QMap@VQString@@VcomplexParam@@@@QAE@XZ 1000efc0 f i bncs_client_runtime.obj
 0001:0000e040       ??0?$QMap@VQString@@VcomplexType@@@@QAE@XZ 1000f040 f i bncs_client_runtime.obj
 0001:0000e0c0       ??0?$QMap@VQString@@VcomplexType@@@@QAE@ABV0@@Z 1000f0c0 f i bncs_client_runtime.obj
 0001:0000e0c0       ??0?$QMap@VQString@@VparamInfo@@@@QAE@ABV0@@Z 1000f0c0 f i bncs_client_runtime.obj
 0001:0000e0c0       ??0?$QMap@VQString@@VinstanceInfo@@@@QAE@ABV0@@Z 1000f0c0 f i bncs_client_runtime.obj
 0001:0000e0c0       ??0?$QMap@VQString@@VcomplexInstance@@@@QAE@ABV0@@Z 1000f0c0 f i bncs_client_runtime.obj
 0001:0000e0c0       ??0?$QMap@VQString@@VdeviceTypeInfo@@@@QAE@ABV0@@Z 1000f0c0 f i bncs_client_runtime.obj
 0001:0000e0c0       ??0?$QMap@VQString@@VcomplexParam@@@@QAE@ABV0@@Z 1000f0c0 f i bncs_client_runtime.obj
 0001:0000e0e0       ??0?$QMap@VQString@@VdeviceTypeInfo@@@@QAE@XZ 1000f0e0 f i bncs_client_runtime.obj
 0001:0000e160       ??0?$QMap@VQString@@VinstanceInfo@@@@QAE@XZ 1000f160 f i bncs_client_runtime.obj
 0001:0000e1e0       ??0?$QMap@VQString@@VparamInfo@@@@QAE@XZ 1000f1e0 f i bncs_client_runtime.obj
 0001:0000e260       ??0?$QMapNode@VQString@@VcomplexInstance@@@@QAE@ABU0@@Z 1000f260 f i bncs_client_runtime.obj
 0001:0000e2e0       ??0?$QMapNode@VQString@@VcomplexParam@@@@QAE@ABU0@@Z 1000f2e0 f i bncs_client_runtime.obj
 0001:0000e370       ??0?$QMapNode@VQString@@VcomplexType@@@@QAE@ABU0@@Z 1000f370 f i bncs_client_runtime.obj
 0001:0000e3f0       ??0?$QMapNode@VQString@@VdeviceTypeInfo@@@@QAE@ABU0@@Z 1000f3f0 f i bncs_client_runtime.obj
 0001:0000e470       ??0?$QMapNode@VQString@@VinstanceInfo@@@@QAE@ABU0@@Z 1000f470 f i bncs_client_runtime.obj
 0001:0000e4f0       ??0?$QMapPrivate@VQString@@VcomplexInstance@@@@QAE@PBV0@@Z 1000f4f0 f i bncs_client_runtime.obj
 0001:0000e600       ??0?$QMapPrivate@VQString@@VcomplexInstance@@@@QAE@XZ 1000f600 f i bncs_client_runtime.obj
 0001:0000e6a0       ??0?$QMapPrivate@VQString@@VcomplexParam@@@@QAE@PBV0@@Z 1000f6a0 f i bncs_client_runtime.obj
 0001:0000e7b0       ??0?$QMapPrivate@VQString@@VcomplexParam@@@@QAE@XZ 1000f7b0 f i bncs_client_runtime.obj
 0001:0000e850       ??0?$QMapPrivate@VQString@@VcomplexType@@@@QAE@PBV0@@Z 1000f850 f i bncs_client_runtime.obj
 0001:0000e960       ??0?$QMapPrivate@VQString@@VcomplexType@@@@QAE@XZ 1000f960 f i bncs_client_runtime.obj
 0001:0000ea00       ??0?$QMapPrivate@VQString@@VdeviceTypeInfo@@@@QAE@PBV0@@Z 1000fa00 f i bncs_client_runtime.obj
 0001:0000eb10       ??0?$QMapPrivate@VQString@@VdeviceTypeInfo@@@@QAE@XZ 1000fb10 f i bncs_client_runtime.obj
 0001:0000ebb0       ??0?$QMapPrivate@VQString@@VinstanceInfo@@@@QAE@PBV0@@Z 1000fbb0 f i bncs_client_runtime.obj
 0001:0000ecc0       ??0?$QMapPrivate@VQString@@VinstanceInfo@@@@QAE@XZ 1000fcc0 f i bncs_client_runtime.obj
 0001:0000ed60       ??0?$QMapPrivate@VQString@@VparamInfo@@@@QAE@PBV0@@Z 1000fd60 f i bncs_client_runtime.obj
 0001:0000ee70       ??0?$QMapPrivate@VQString@@VparamInfo@@@@QAE@XZ 1000fe70 f i bncs_client_runtime.obj
 0001:0000ef10       ??0?$QPtrList@VsignalConnection@@@@QAE@ABV0@@Z 1000ff10 f i bncs_client_runtime.obj
 0001:0000ef30       ??0?$QPtrList@VsignalConnection@@@@QAE@XZ 1000ff30 f i bncs_client_runtime.obj
 0001:0000ef50       ??0?$QValueListPrivate@VcomplexInstance@@@@QAE@ABV0@@Z 1000ff50 f i bncs_client_runtime.obj
 0001:0000f020       ??0?$QValueListPrivate@VcomplexInstance@@@@QAE@XZ 10010020 f i bncs_client_runtime.obj
 0001:0000f0b0       ??0?$QValueListPrivate@VcomplexParam@@@@QAE@ABV0@@Z 100100b0 f i bncs_client_runtime.obj
 0001:0000f180       ??0?$QValueListPrivate@VcomplexParam@@@@QAE@XZ 10010180 f i bncs_client_runtime.obj
 0001:0000f210       ??0?$QValueListPrivate@VcomplexType@@@@QAE@ABV0@@Z 10010210 f i bncs_client_runtime.obj
 0001:0000f2e0       ??0?$QValueListPrivate@VcomplexType@@@@QAE@XZ 100102e0 f i bncs_client_runtime.obj
 0001:0000f370       ??0?$QValueListPrivate@VdeviceTypeInfo@@@@QAE@ABV0@@Z 10010370 f i bncs_client_runtime.obj
 0001:0000f440       ??0?$QValueListPrivate@VdeviceTypeInfo@@@@QAE@XZ 10010440 f i bncs_client_runtime.obj
 0001:0000f4d0       ??0?$QValueListPrivate@VinstanceInfo@@@@QAE@ABV0@@Z 100104d0 f i bncs_client_runtime.obj
 0001:0000f5a0       ??0?$QValueListPrivate@VinstanceInfo@@@@QAE@XZ 100105a0 f i bncs_client_runtime.obj
 0001:0000f630       ??0?$QValueListPrivate@VparamInfo@@@@QAE@ABV0@@Z 10010630 f i bncs_client_runtime.obj
 0001:0000f700       ??0?$QValueListPrivate@VparamInfo@@@@QAE@XZ 10010700 f i bncs_client_runtime.obj
 0001:0000f790       ??0IdCWlimits@@QAE@ABV0@@Z 10010790 f i bncs_client_runtime.obj
 0001:0000f7a0       ??0IdCWlimits@@QAE@XZ      100107a0 f i bncs_client_runtime.obj
 0001:0000f7b0       ??0bncs_client_runtime@@QAE@ABV0@@Z 100107b0 f i bncs_client_runtime.obj
 0001:0000f8d0       ??0bncs_client_runtime@@QAE@PAVQWidget@@PBDI@Z 100108d0 f   bncs_client_runtime.obj
 0001:0000f9f0       ??0dCW@@QAE@ABV0@@Z        100109f0 f i bncs_client_runtime.obj
 0001:0000fb40       ??0signalConnection@@QAE@ABV0@@Z 10010b40 f i bncs_client_runtime.obj
 0001:0000fbd0       ??0signalConnection@@QAE@ABVQString@@0000@Z 10010bd0 f i bncs_client_runtime.obj
 0001:0000fc90       ??0signalConnectionRefList@@QAE@ABV0@@Z 10010c90 f i bncs_client_runtime.obj
 0001:0000fcb0       ??0signalConnectionRefList@@QAE@XZ 10010cb0 f i bncs_client_runtime.obj
 0001:0000fcd0       ??0signalConnectionRefListIt@@QAE@ABV0@@Z 10010cd0 f i bncs_client_runtime.obj
 0001:0000fcd0       ??0?$QPtrListIterator@VsignalConnection@@@@QAE@ABV0@@Z 10010cd0 f i bncs_client_runtime.obj
 0001:0000fcf0       ??0signalConnectionRefListIt@@QAE@ABVsignalConnectionRefList@@@Z 10010cf0 f i bncs_client_runtime.obj
 0001:0000fcf0       ??0?$QPtrListIterator@VsignalConnection@@@@QAE@ABV?$QPtrList@VsignalConnection@@@@@Z 10010cf0 f i bncs_client_runtime.obj
 0001:0000fd10       ??1?$QMap@VQString@@VcomplexInstance@@@@QAE@XZ 10010d10 f i bncs_client_runtime.obj
 0001:0000fd30       ??1?$QMap@VQString@@VcomplexParam@@@@QAE@XZ 10010d30 f i bncs_client_runtime.obj
 0001:0000fd50       ??1?$QMap@VQString@@VcomplexType@@@@QAE@XZ 10010d50 f i bncs_client_runtime.obj
 0001:0000fd70       ??1?$QMap@VQString@@VdeviceTypeInfo@@@@QAE@XZ 10010d70 f i bncs_client_runtime.obj
 0001:0000fd90       ??1?$QMap@VQString@@VinstanceInfo@@@@QAE@XZ 10010d90 f i bncs_client_runtime.obj
 0001:0000fdb0       ??1?$QMap@VQString@@VparamInfo@@@@QAE@XZ 10010db0 f i bncs_client_runtime.obj
 0001:0000fdd0       ??1?$QMapPrivate@VQString@@VcomplexInstance@@@@QAE@XZ 10010dd0 f i bncs_client_runtime.obj
 0001:0000fe70       ??1?$QMapPrivate@VQString@@VcomplexParam@@@@QAE@XZ 10010e70 f i bncs_client_runtime.obj
 0001:0000ff10       ??1?$QMapPrivate@VQString@@VcomplexType@@@@QAE@XZ 10010f10 f i bncs_client_runtime.obj
 0001:0000ffb0       ??1?$QMapPrivate@VQString@@VdeviceTypeInfo@@@@QAE@XZ 10010fb0 f i bncs_client_runtime.obj
 0001:00010050       ??1?$QMapPrivate@VQString@@VinstanceInfo@@@@QAE@XZ 10011050 f i bncs_client_runtime.obj
 0001:000100f0       ??1?$QMapPrivate@VQString@@VparamInfo@@@@QAE@XZ 100110f0 f i bncs_client_runtime.obj
 0001:00010190       ??1?$QPtrList@VsignalConnection@@@@UAE@XZ 10011190 f i bncs_client_runtime.obj
 0001:000101f0       ??1?$QValueList@VcomplexInstance@@@@QAE@XZ 100111f0 f i bncs_client_runtime.obj
 0001:000101f0       ??1?$QValueList@VcomplexParam@@@@QAE@XZ 100111f0 f i bncs_client_runtime.obj
 0001:000101f0       ??1?$QValueList@VdeviceTypeInfo@@@@QAE@XZ 100111f0 f i bncs_client_runtime.obj
 0001:000101f0       ??1?$QValueList@VcomplexType@@@@QAE@XZ 100111f0 f i bncs_client_runtime.obj
 0001:000101f0       ??1?$QValueList@VparamInfo@@@@QAE@XZ 100111f0 f i bncs_client_runtime.obj
 0001:000101f0       ??1?$QValueList@VinstanceInfo@@@@QAE@XZ 100111f0 f i bncs_client_runtime.obj
 0001:00010210       ??1bncs_client_runtime@@UAE@XZ 10011210 f   bncs_client_runtime.obj
 0001:00010350       ??1signalConnection@@QAE@XZ 10011350 f i bncs_client_runtime.obj
 0001:000103d0       ??1signalConnectionRefList@@UAE@XZ 100113d0 f i bncs_client_runtime.obj
 0001:00010440       ??1signalConnectionRefListIt@@QAE@XZ 10011440 f i bncs_client_runtime.obj
 0001:00010440       ??1?$QPtrListIterator@VsignalConnection@@@@QAE@XZ 10011440 f i bncs_client_runtime.obj
 0001:00010450       ??4?$QMap@VQString@@VcomplexInstance@@@@QAEAAV0@ABV0@@Z 10011450 f i bncs_client_runtime.obj
 0001:00010490       ??4?$QMap@VQString@@VcomplexParam@@@@QAEAAV0@ABV0@@Z 10011490 f i bncs_client_runtime.obj
 0001:000104d0       ??4?$QMap@VQString@@VcomplexType@@@@QAEAAV0@ABV0@@Z 100114d0 f i bncs_client_runtime.obj
 0001:00010510       ??4?$QMap@VQString@@VdeviceTypeInfo@@@@QAEAAV0@ABV0@@Z 10011510 f i bncs_client_runtime.obj
 0001:00010550       ??4?$QMap@VQString@@VinstanceInfo@@@@QAEAAV0@ABV0@@Z 10011550 f i bncs_client_runtime.obj
 0001:00010590       ??4?$QMap@VQString@@VparamInfo@@@@QAEAAV0@ABV0@@Z 10011590 f i bncs_client_runtime.obj
 0001:000105d0       ??4signalConnectionRefListIt@@QAEAAV0@ABV0@@Z 100115d0 f i bncs_client_runtime.obj
 0001:000105d0       ??4?$QPtrListIterator@VsignalConnection@@@@QAEAAV0@ABV0@@Z 100115d0 f i bncs_client_runtime.obj
 0001:000105f0       ??4resourceCounts@@QAEAAV0@ABV0@@Z 100115f0 f i dCW.obj
 0001:000105f0       ??4IdCWlimits@@QAEAAV0@ABV0@@Z 100115f0 f i bncs_client_runtime.obj
 0001:00010600       ??4bncs_client_runtime@@QAEAAV0@ABV0@@Z 10011600 f i bncs_client_runtime.obj
 0001:000106b0       ??4dCW@@QAEAAV0@ABV0@@Z    100116b0 f i bncs_client_runtime.obj
 0001:00010790       ??4signalConnection@@QAEAAV0@ABV0@@Z 10011790 f i bncs_client_runtime.obj
 0001:000107e0       ??4?$QPtrList@VsignalConnection@@@@QAEAAV0@ABV0@@Z 100117e0 f i bncs_client_runtime.obj
 0001:000107e0       ??4signalConnectionRefList@@QAEAAV0@ABV0@@Z 100117e0 f i bncs_client_runtime.obj
 0001:000107f0       ??8?$QPtrList@VsignalConnection@@@@QBE_NABV0@@Z 100117f0 f i bncs_client_runtime.obj
 0001:00010800       ??9?$QPtrList@VsignalConnection@@@@QBE_NABV0@@Z 10011800 f i bncs_client_runtime.obj
 0001:00010820       ??A?$QMap@VQString@@VcomplexInstance@@@@QAEAAVcomplexInstance@@ABVQString@@@Z 10011820 f i bncs_client_runtime.obj
 0001:00010940       ??A?$QMap@VQString@@VcomplexParam@@@@QAEAAVcomplexParam@@ABVQString@@@Z 10011940 f i bncs_client_runtime.obj
 0001:00010a20       ??A?$QMap@VQString@@VcomplexParam@@@@QBEABVcomplexParam@@ABVQString@@@Z 10011a20 f i bncs_client_runtime.obj
 0001:00010a40       ??A?$QMap@VQString@@VcomplexType@@@@QAEAAVcomplexType@@ABVQString@@@Z 10011a40 f i bncs_client_runtime.obj
 0001:00010b60       ??A?$QMap@VQString@@VdeviceTypeInfo@@@@QAEAAVdeviceTypeInfo@@ABVQString@@@Z 10011b60 f i bncs_client_runtime.obj
 0001:00010c80       ??A?$QMap@VQString@@VdeviceTypeInfo@@@@QBEABVdeviceTypeInfo@@ABVQString@@@Z 10011c80 f i bncs_client_runtime.obj
 0001:00010ca0       ??A?$QMap@VQString@@VinstanceInfo@@@@QAEAAVinstanceInfo@@ABVQString@@@Z 10011ca0 f i bncs_client_runtime.obj
 0001:00010dc0       ??A?$QMap@VQString@@VinstanceInfo@@@@QBEABVinstanceInfo@@ABVQString@@@Z 10011dc0 f i bncs_client_runtime.obj
 0001:00010de0       ??A?$QMap@VQString@@VparamInfo@@@@QAEAAVparamInfo@@ABVQString@@@Z 10011de0 f i bncs_client_runtime.obj
 0001:00010ef0       ??A?$QMap@VQString@@VcomplexInstance@@@@QBEABVcomplexInstance@@ABVQString@@@Z 10011ef0 f i bncs_client_runtime.obj
 0001:00010ef0       ??A?$QMap@VQString@@VcomplexType@@@@QBEABVcomplexType@@ABVQString@@@Z 10011ef0 f i bncs_client_runtime.obj
 0001:00010ef0       ??A?$QMap@VQString@@VparamInfo@@@@QBEABVparamInfo@@ABVQString@@@Z 10011ef0 f i bncs_client_runtime.obj
 0001:00010f10       ??B?$QPtrListIterator@VsignalConnection@@@@QBEPAVsignalConnection@@XZ 10011f10 f i bncs_client_runtime.obj
 0001:00010f10       ??D?$QPtrListIterator@VsignalConnection@@@@QAEPAVsignalConnection@@XZ 10011f10 f i bncs_client_runtime.obj
 0001:00010f10       ?current@?$QPtrListIterator@VsignalConnection@@@@QBEPAVsignalConnection@@XZ 10011f10 f i bncs_client_runtime.obj
 0001:00010f20       ??E?$QPtrListIterator@VsignalConnection@@@@QAEPAVsignalConnection@@XZ 10011f20 f i bncs_client_runtime.obj
 0001:00010f30       ??F?$QPtrListIterator@VsignalConnection@@@@QAEPAVsignalConnection@@XZ 10011f30 f i bncs_client_runtime.obj
 0001:00010f40       ??R?$QPtrListIterator@VsignalConnection@@@@QAEPAVsignalConnection@@XZ 10011f40 f i bncs_client_runtime.obj
 0001:00010f50       ??Y?$QPtrListIterator@VsignalConnection@@@@QAEPAVsignalConnection@@I@Z 10011f50 f i bncs_client_runtime.obj
 0001:00010f60       ??Z?$QPtrListIterator@VsignalConnection@@@@QAEPAVsignalConnection@@I@Z 10011f60 f i bncs_client_runtime.obj
 0001:00010f70       ??_E?$QPtrList@VsignalConnection@@@@UAEPAXI@Z 10011f70 f i bncs_client_runtime.obj
 0001:00011030       ??_Ebncs_client_runtime@@UAEPAXI@Z 10012030 f i bncs_client_runtime.obj
 0001:00011088       ??_Ebncs_client_runtime@@WCI@AEPAXI@Z 10012088 f i bncs_client_runtime.obj
 0001:00011090       ??_EdCW@@UAEPAXI@Z         10012090 f i bncs_client_runtime.obj
 0001:000110f0       ??_EsignalConnectionRefList@@UAEPAXI@Z 100120f0 f i bncs_client_runtime.obj
 0001:000111c0       ??_Fbncs_client_runtime@@QAEXXZ 100121c0 f i bncs_client_runtime.obj
 0001:000111d0       ??_E?$QValueListNode@VcomplexInstance@@@@UAEPAXI@Z 100121d0 f i bncs_client_runtime.obj
 0001:000111d0       ??_G?$QValueListNode@VcomplexInstance@@@@UAEPAXI@Z 100121d0 f i bncs_client_runtime.obj
 0001:00011200       ??_G?$QValueListNode@VcomplexParam@@@@UAEPAXI@Z 10012200 f i bncs_client_runtime.obj
 0001:00011200       ??_E?$QValueListNode@VcomplexParam@@@@UAEPAXI@Z 10012200 f i bncs_client_runtime.obj
 0001:00011230       ??_G?$QValueListNode@VcomplexType@@@@UAEPAXI@Z 10012230 f i bncs_client_runtime.obj
 0001:00011230       ??_E?$QValueListNode@VcomplexType@@@@UAEPAXI@Z 10012230 f i bncs_client_runtime.obj
 0001:00011260       ??_E?$QValueListNode@VdeviceTypeInfo@@@@UAEPAXI@Z 10012260 f i bncs_client_runtime.obj
 0001:00011260       ??_G?$QValueListNode@VdeviceTypeInfo@@@@UAEPAXI@Z 10012260 f i bncs_client_runtime.obj
 0001:00011290       ??_G?$QValueListNode@VinstanceInfo@@@@UAEPAXI@Z 10012290 f i bncs_client_runtime.obj
 0001:00011290       ??_E?$QValueListNode@VinstanceInfo@@@@UAEPAXI@Z 10012290 f i bncs_client_runtime.obj
 0001:000112c0       ??_E?$QValueListNode@VparamInfo@@@@UAEPAXI@Z 100122c0 f i bncs_client_runtime.obj
 0001:000112c0       ??_G?$QValueListNode@VparamInfo@@@@UAEPAXI@Z 100122c0 f i bncs_client_runtime.obj
 0001:000112f0       ??_E?$QValueListPrivate@VcomplexInstance@@@@UAEPAXI@Z 100122f0 f i bncs_client_runtime.obj
 0001:000112f0       ??_G?$QValueListPrivate@VcomplexInstance@@@@UAEPAXI@Z 100122f0 f i bncs_client_runtime.obj
 0001:00011340       ??_E?$QValueListPrivate@VcomplexParam@@@@UAEPAXI@Z 10012340 f i bncs_client_runtime.obj
 0001:00011340       ??_G?$QValueListPrivate@VcomplexParam@@@@UAEPAXI@Z 10012340 f i bncs_client_runtime.obj
 0001:00011390       ??_G?$QValueListPrivate@VcomplexType@@@@UAEPAXI@Z 10012390 f i bncs_client_runtime.obj
 0001:00011390       ??_E?$QValueListPrivate@VcomplexType@@@@UAEPAXI@Z 10012390 f i bncs_client_runtime.obj
 0001:000113e0       ??_G?$QValueListPrivate@VdeviceTypeInfo@@@@UAEPAXI@Z 100123e0 f i bncs_client_runtime.obj
 0001:000113e0       ??_E?$QValueListPrivate@VdeviceTypeInfo@@@@UAEPAXI@Z 100123e0 f i bncs_client_runtime.obj
 0001:00011430       ??_E?$QValueListPrivate@VinstanceInfo@@@@UAEPAXI@Z 10012430 f i bncs_client_runtime.obj
 0001:00011430       ??_G?$QValueListPrivate@VinstanceInfo@@@@UAEPAXI@Z 10012430 f i bncs_client_runtime.obj
 0001:00011480       ??_E?$QValueListPrivate@VparamInfo@@@@UAEPAXI@Z 10012480 f i bncs_client_runtime.obj
 0001:00011480       ??_G?$QValueListPrivate@VparamInfo@@@@UAEPAXI@Z 10012480 f i bncs_client_runtime.obj
 0001:000114d0       ??_E_Generic_error_category@std@@UAEPAXI@Z 100124d0 f i bncs_client_runtime.obj
 0001:000114d0       ??_E_Iostream_error_category@std@@UAEPAXI@Z 100124d0 f i bncs_client_runtime.obj
 0001:000114d0       ??_G_System_error_category@std@@UAEPAXI@Z 100124d0 f i bncs_client_runtime.obj
 0001:000114d0       ??_Eerror_category@std@@UAEPAXI@Z 100124d0 f i bncs_client_runtime.obj
 0001:000114d0       ??_G_Generic_error_category@std@@UAEPAXI@Z 100124d0 f i bncs_client_runtime.obj
 0001:000114d0       ??_G_Iostream_error_category@std@@UAEPAXI@Z 100124d0 f i bncs_client_runtime.obj
 0001:000114d0       ??_E_System_error_category@std@@UAEPAXI@Z 100124d0 f i bncs_client_runtime.obj
 0001:000114d0       ??_Gerror_category@std@@UAEPAXI@Z 100124d0 f i bncs_client_runtime.obj
 0001:00011500       ?_Copy@?$basic_string@DU?$char_traits@D@std@@V?$allocator@D@2@@std@@QAEXII@Z 10012500 f i bncs_client_runtime.obj
 0001:00011650       ?addConnection@bncs_client_runtime@@QAEXABVQString@@0000@Z 10012650 f   bncs_client_runtime.obj
 0001:000117b0       ?addConnection@bncs_client_runtime@@QAEXPAVQWidget@@@Z 100127b0 f   bncs_client_runtime.obj
 0001:000117e0       ?addWidgetToList@bncs_client_runtime@@QAEXPAVQWidget@@@Z 100127e0 f   bncs_client_runtime.obj
 0001:000117f0       ?allocate@?$_Wrap_alloc@V?$allocator@D@std@@@std@@QAEPADI@Z 100127f0 f i bncs_client_runtime.obj
 0001:00011820       ?append@?$QPtrList@VsignalConnection@@@@QAEXPBVsignalConnection@@@Z 10012820 f i bncs_client_runtime.obj
 0001:00011830       ?append@?$QValueList@VcomplexInstance@@@@QAE?AV?$QValueListIterator@VcomplexInstance@@@@ABVcomplexInstance@@@Z 10012830 f i bncs_client_runtime.obj
 0001:00011900       ?append@?$QValueList@VcomplexParam@@@@QAE?AV?$QValueListIterator@VcomplexParam@@@@ABVcomplexParam@@@Z 10012900 f i bncs_client_runtime.obj
 0001:000119d0       ?append@?$QValueList@VcomplexType@@@@QAE?AV?$QValueListIterator@VcomplexType@@@@ABVcomplexType@@@Z 100129d0 f i bncs_client_runtime.obj
 0001:00011aa0       ?append@?$QValueList@VdeviceTypeInfo@@@@QAE?AV?$QValueListIterator@VdeviceTypeInfo@@@@ABVdeviceTypeInfo@@@Z 10012aa0 f i bncs_client_runtime.obj
 0001:00011b70       ?append@?$QValueList@VinstanceInfo@@@@QAE?AV?$QValueListIterator@VinstanceInfo@@@@ABVinstanceInfo@@@Z 10012b70 f i bncs_client_runtime.obj
 0001:00011c40       ?append@?$QValueList@VparamInfo@@@@QAE?AV?$QValueListIterator@VparamInfo@@@@ABVparamInfo@@@Z 10012c40 f i bncs_client_runtime.obj
 0001:00011d10       ?assign@?$basic_string@DU?$char_traits@D@std@@V?$allocator@D@2@@std@@QAEAAV12@ABV12@II@Z 10012d10 f i bncs_client_runtime.obj
 0001:00011e30       ?assign@?$basic_string@DU?$char_traits@D@std@@V?$allocator@D@2@@std@@QAEAAV12@PBDI@Z 10012e30 f i bncs_client_runtime.obj
 0001:00011f30       ?at@?$QPtrList@VsignalConnection@@@@QAEPAVsignalConnection@@I@Z 10012f30 f i bncs_client_runtime.obj
 0001:00011f50       ?at@?$QPtrList@VsignalConnection@@@@QBEHXZ 10012f50 f i bncs_client_runtime.obj
 0001:00011f60       ?atFirst@?$QPtrListIterator@VsignalConnection@@@@QBE_NXZ 10012f60 f i bncs_client_runtime.obj
 0001:00011f70       ?atLast@?$QPtrListIterator@VsignalConnection@@@@QBE_NXZ 10012f70 f i bncs_client_runtime.obj
 0001:00011f80       ?bcolour@dCW@@QAE?AVQString@@XZ 10012f80 f i bncs_client_runtime.obj
 0001:00011fb0       ?begin@?$QMap@VQString@@VcomplexInstance@@@@QAE?AV?$QMapIterator@VQString@@VcomplexInstance@@@@XZ 10012fb0 f i bncs_client_runtime.obj
 0001:00012030       ?begin@?$QMap@VQString@@VcomplexParam@@@@QAE?AV?$QMapIterator@VQString@@VcomplexParam@@@@XZ 10013030 f i bncs_client_runtime.obj
 0001:000120b0       ?begin@?$QMap@VQString@@VcomplexType@@@@QAE?AV?$QMapIterator@VQString@@VcomplexType@@@@XZ 100130b0 f i bncs_client_runtime.obj
 0001:00012130       ?begin@?$QMap@VQString@@VinstanceInfo@@@@QBE?AV?$QMapConstIterator@VQString@@VinstanceInfo@@@@XZ 10013130 f i bncs_client_runtime.obj
 0001:00012130       ?begin@?$QMap@VQString@@VdeviceTypeInfo@@@@QBE?AV?$QMapConstIterator@VQString@@VdeviceTypeInfo@@@@XZ 10013130 f i bncs_client_runtime.obj
 0001:00012130       ?constBegin@?$QMap@VQString@@VcomplexType@@@@QBE?AV?$QMapConstIterator@VQString@@VcomplexType@@@@XZ 10013130 f i bncs_client_runtime.obj
 0001:00012130       ?constBegin@?$QMap@VQString@@VparamInfo@@@@QBE?AV?$QMapConstIterator@VQString@@VparamInfo@@@@XZ 10013130 f i bncs_client_runtime.obj
 0001:00012130       ?begin@?$QMap@VQString@@VparamInfo@@@@QBE?AV?$QMapConstIterator@VQString@@VparamInfo@@@@XZ 10013130 f i bncs_client_runtime.obj
 0001:00012130       ?begin@?$QMap@VQString@@VcomplexType@@@@QBE?AV?$QMapConstIterator@VQString@@VcomplexType@@@@XZ 10013130 f i bncs_client_runtime.obj
 0001:00012130       ?constBegin@?$QMap@VQString@@VcomplexParam@@@@QBE?AV?$QMapConstIterator@VQString@@VcomplexParam@@@@XZ 10013130 f i bncs_client_runtime.obj
 0001:00012130       ?constBegin@?$QMap@VQString@@VcomplexInstance@@@@QBE?AV?$QMapConstIterator@VQString@@VcomplexInstance@@@@XZ 10013130 f i bncs_client_runtime.obj
 0001:00012130       ?constBegin@?$QMap@VQString@@VdeviceTypeInfo@@@@QBE?AV?$QMapConstIterator@VQString@@VdeviceTypeInfo@@@@XZ 10013130 f i bncs_client_runtime.obj
 0001:00012130       ?constBegin@?$QMap@VQString@@VinstanceInfo@@@@QBE?AV?$QMapConstIterator@VQString@@VinstanceInfo@@@@XZ 10013130 f i bncs_client_runtime.obj
 0001:00012130       ?begin@?$QMap@VQString@@VcomplexParam@@@@QBE?AV?$QMapConstIterator@VQString@@VcomplexParam@@@@XZ 10013130 f i bncs_client_runtime.obj
 0001:00012130       ?begin@?$QMap@VQString@@VcomplexInstance@@@@QBE?AV?$QMapConstIterator@VQString@@VcomplexInstance@@@@XZ 10013130 f i bncs_client_runtime.obj
 0001:00012150       ?begin@?$QMap@VQString@@VdeviceTypeInfo@@@@QAE?AV?$QMapIterator@VQString@@VdeviceTypeInfo@@@@XZ 10013150 f i bncs_client_runtime.obj
 0001:000121d0       ?begin@?$QMap@VQString@@VinstanceInfo@@@@QAE?AV?$QMapIterator@VQString@@VinstanceInfo@@@@XZ 100131d0 f i bncs_client_runtime.obj
 0001:00012250       ?begin@?$QMap@VQString@@VparamInfo@@@@QAE?AV?$QMapIterator@VQString@@VparamInfo@@@@XZ 10013250 f i bncs_client_runtime.obj
 0001:000122d0       ?bpixmap@dCW@@QAE?AVQString@@XZ 100132d0 f i bncs_client_runtime.obj
 0001:00012300       ?ccTimerCallback@bncs_client_runtime@@MAEXH@Z 10013300 f   bncs_client_runtime.obj
 0001:000123b0       ?cdbDestroyed@bncs_client_runtime@@AAEXXZ 100133b0 f   bncs_client_runtime.obj
 0001:000123c0       ?clear@?$QMap@VQString@@VcomplexInstance@@@@QAEXXZ 100133c0 f i bncs_client_runtime.obj
 0001:00012480       ?clear@?$QMap@VQString@@VcomplexParam@@@@QAEXXZ 10013480 f i bncs_client_runtime.obj
 0001:00012540       ?clear@?$QMap@VQString@@VcomplexType@@@@QAEXXZ 10013540 f i bncs_client_runtime.obj
 0001:00012600       ?clear@?$QMap@VQString@@VdeviceTypeInfo@@@@QAEXXZ 10013600 f i bncs_client_runtime.obj
 0001:000126c0       ?clear@?$QMap@VQString@@VinstanceInfo@@@@QAEXXZ 100136c0 f i bncs_client_runtime.obj
 0001:00012780       ?clear@?$QMap@VQString@@VparamInfo@@@@QAEXXZ 10013780 f i bncs_client_runtime.obj
 0001:00012840       ?clear@?$QMapPrivate@VQString@@VcomplexInstance@@@@QAEXPAU?$QMapNode@VQString@@VcomplexInstance@@@@@Z 10013840 f i bncs_client_runtime.obj
 0001:000128e0       ?clear@?$QMapPrivate@VQString@@VcomplexParam@@@@QAEXPAU?$QMapNode@VQString@@VcomplexParam@@@@@Z 100138e0 f i bncs_client_runtime.obj
 0001:00012980       ?clear@?$QMapPrivate@VQString@@VcomplexType@@@@QAEXPAU?$QMapNode@VQString@@VcomplexType@@@@@Z 10013980 f i bncs_client_runtime.obj
 0001:00012a20       ?clear@?$QMapPrivate@VQString@@VdeviceTypeInfo@@@@QAEXPAU?$QMapNode@VQString@@VdeviceTypeInfo@@@@@Z 10013a20 f i bncs_client_runtime.obj
 0001:00012ac0       ?clear@?$QMapPrivate@VQString@@VinstanceInfo@@@@QAEXPAU?$QMapNode@VQString@@VinstanceInfo@@@@@Z 10013ac0 f i bncs_client_runtime.obj
 0001:00012b60       ?clear@?$QMapPrivate@VQString@@VparamInfo@@@@QAEXPAU?$QMapNode@VQString@@VparamInfo@@@@@Z 10013b60 f i bncs_client_runtime.obj
 0001:00012c00       ?clear@?$QPtrList@VsignalConnection@@@@UAEXXZ 10013c00 f i bncs_client_runtime.obj
 0001:00012c10       ?connectionList@bncs_client_runtime@@QAEABVsignalConnectionRefList@@XZ 10013c10 f i bncs_client_runtime.obj
 0001:00012c30       ?connectionTriggerEvent@bncs_client_runtime@@AAEXABVQString@@0@Z 10013c30 f   bncs_client_runtime.obj
 0001:00013b80       ?begin@?$QPtrList@VsignalConnection@@@@QAE?AV?$QPtrListStdIterator@VsignalConnection@@@@XZ 10014b80 f i bncs_client_runtime.obj
 0001:00013b80       ?constBegin@?$QPtrList@VsignalConnection@@@@QBE?AV?$QPtrListStdIterator@VsignalConnection@@@@XZ 10014b80 f i bncs_client_runtime.obj
 0001:00013b80       ?begin@?$QPtrList@VsignalConnection@@@@QBE?AV?$QPtrListStdIterator@VsignalConnection@@@@XZ 10014b80 f i bncs_client_runtime.obj
 0001:00013b90       ?contains@?$QMap@VQString@@VcomplexParam@@@@QBE_NABVQString@@@Z 10014b90 f i bncs_client_runtime.obj
 0001:00013bc0       ?contains@?$QMap@VQString@@VdeviceTypeInfo@@@@QBE_NABVQString@@@Z 10014bc0 f i bncs_client_runtime.obj
 0001:00013bf0       ?contains@?$QMap@VQString@@VinstanceInfo@@@@QBE_NABVQString@@@Z 10014bf0 f i bncs_client_runtime.obj
 0001:00013c20       ?contains@?$QMap@VQString@@VcomplexType@@@@QBE_NABVQString@@@Z 10014c20 f i bncs_client_runtime.obj
 0001:00013c20       ?contains@?$QMap@VQString@@VparamInfo@@@@QBE_NABVQString@@@Z 10014c20 f i bncs_client_runtime.obj
 0001:00013c20       ?contains@?$QMap@VQString@@VcomplexInstance@@@@QBE_NABVQString@@@Z 10014c20 f i bncs_client_runtime.obj
 0001:00013c50       ?contains@?$QPtrList@VsignalConnection@@@@QBEIPBVsignalConnection@@@Z 10014c50 f i bncs_client_runtime.obj
 0001:00013c60       ?containsRef@?$QPtrList@VsignalConnection@@@@QBEIPBVsignalConnection@@@Z 10014c60 f i bncs_client_runtime.obj
 0001:00013c70       ?contextMenuEvent@bncs_client_runtime@@UAEXPAVQContextMenuEvent@@@Z 10014c70 f   bncs_client_runtime.obj
 0001:00014230       ?copy@?$QMapPrivate@VQString@@VcomplexInstance@@@@QAEPAU?$QMapNode@VQString@@VcomplexInstance@@@@PAU2@@Z 10015230 f i bncs_client_runtime.obj
 0001:00014300       ?copy@?$QMapPrivate@VQString@@VcomplexParam@@@@QAEPAU?$QMapNode@VQString@@VcomplexParam@@@@PAU2@@Z 10015300 f i bncs_client_runtime.obj
 0001:000143d0       ?copy@?$QMapPrivate@VQString@@VcomplexType@@@@QAEPAU?$QMapNode@VQString@@VcomplexType@@@@PAU2@@Z 100153d0 f i bncs_client_runtime.obj
 0001:000144a0       ?copy@?$QMapPrivate@VQString@@VdeviceTypeInfo@@@@QAEPAU?$QMapNode@VQString@@VdeviceTypeInfo@@@@PAU2@@Z 100154a0 f i bncs_client_runtime.obj
 0001:00014570       ?copy@?$QMapPrivate@VQString@@VinstanceInfo@@@@QAEPAU?$QMapNode@VQString@@VinstanceInfo@@@@PAU2@@Z 10015570 f i bncs_client_runtime.obj
 0001:00014640       ?copy@?$QMapPrivate@VQString@@VparamInfo@@@@QAEPAU?$QMapNode@VQString@@VparamInfo@@@@PAU2@@Z 10015640 f i bncs_client_runtime.obj
 0001:00014740       ?count@?$QMap@VQString@@VcomplexParam@@@@QBEIABVQString@@@Z 10015740 f i bncs_client_runtime.obj
 0001:000147b0       ?count@?$QMap@VQString@@VdeviceTypeInfo@@@@QBEIABVQString@@@Z 100157b0 f i bncs_client_runtime.obj
 0001:00014820       ?count@?$QMap@VQString@@VparamInfo@@@@QBEIXZ 10015820 f i bncs_client_runtime.obj
 0001:00014820       ?size@?$QMap@VQString@@VdeviceTypeInfo@@@@QBEIXZ 10015820 f i bncs_client_runtime.obj
 0001:00014820       ?size@?$QMap@VQString@@VcomplexParam@@@@QBEIXZ 10015820 f i bncs_client_runtime.obj
 0001:00014820       ?count@?$QMap@VQString@@VcomplexParam@@@@QBEIXZ 10015820 f i bncs_client_runtime.obj
 0001:00014820       ?count@?$QMap@VQString@@VdeviceTypeInfo@@@@QBEIXZ 10015820 f i bncs_client_runtime.obj
 0001:00014820       ?size@?$QMap@VQString@@VcomplexType@@@@QBEIXZ 10015820 f i bncs_client_runtime.obj
 0001:00014820       ?count@?$QMap@VQString@@VinstanceInfo@@@@QBEIXZ 10015820 f i bncs_client_runtime.obj
 0001:00014820       ?size@?$QMap@VQString@@VcomplexInstance@@@@QBEIXZ 10015820 f i bncs_client_runtime.obj
 0001:00014820       ?count@?$QMap@VQString@@VcomplexType@@@@QBEIXZ 10015820 f i bncs_client_runtime.obj
 0001:00014820       ?size@?$QMap@VQString@@VinstanceInfo@@@@QBEIXZ 10015820 f i bncs_client_runtime.obj
 0001:00014820       ?count@?$QMap@VQString@@VcomplexInstance@@@@QBEIXZ 10015820 f i bncs_client_runtime.obj
 0001:00014820       ?size@?$QMap@VQString@@VparamInfo@@@@QBEIXZ 10015820 f i bncs_client_runtime.obj
 0001:00014830       ?count@?$QMap@VQString@@VinstanceInfo@@@@QBEIABVQString@@@Z 10015830 f i bncs_client_runtime.obj
 0001:000148a0       ?count@?$QMap@VQString@@VcomplexInstance@@@@QBEIABVQString@@@Z 100158a0 f i bncs_client_runtime.obj
 0001:000148a0       ?count@?$QMap@VQString@@VparamInfo@@@@QBEIABVQString@@@Z 100158a0 f i bncs_client_runtime.obj
 0001:000148a0       ?count@?$QMap@VQString@@VcomplexType@@@@QBEIABVQString@@@Z 100158a0 f i bncs_client_runtime.obj
 0001:00014910       ?count@?$QPtrListIterator@VsignalConnection@@@@QBEIXZ 10015910 f i bncs_client_runtime.obj
 0001:00014920       ?current@?$QPtrList@VsignalConnection@@@@QBEPAVsignalConnection@@XZ 10015920 f i bncs_client_runtime.obj
 0001:00014930       ?dec@?$QMapIterator@VQString@@VinstanceInfo@@@@AAEHXZ 10015930 f i bncs_client_runtime.obj
 0001:00014930       ?dec@?$QMapIterator@VQString@@VcomplexType@@@@AAEHXZ 10015930 f i bncs_client_runtime.obj
 0001:00014930       ?dec@?$QMapIterator@VQString@@VparamInfo@@@@AAEHXZ 10015930 f i bncs_client_runtime.obj
 0001:00014930       ?dec@?$QMapIterator@VQString@@VcomplexParam@@@@AAEHXZ 10015930 f i bncs_client_runtime.obj
 0001:00014930       ?dec@?$QMapIterator@VQString@@VdeviceTypeInfo@@@@AAEHXZ 10015930 f i bncs_client_runtime.obj
 0001:00014930       ?dec@?$QMapIterator@VQString@@VcomplexInstance@@@@AAEHXZ 10015930 f i bncs_client_runtime.obj
 0001:00014990       ?default_error_condition@_System_error_category@std@@UBE?AVerror_condition@2@H@Z 10015990 f i bncs_client_runtime.obj
 0001:000149d0       ?default_error_condition@error_category@std@@UBE?AVerror_condition@2@H@Z 100159d0 f i bncs_client_runtime.obj
 0001:000149f0       ?deleteItem@?$QPtrList@VsignalConnection@@@@EAEXPAX@Z 100159f0 f i bncs_client_runtime.obj
 0001:00014a90       ?detach@?$QMap@VQString@@VcomplexInstance@@@@IAEXXZ 10015a90 f i bncs_client_runtime.obj
 0001:00014b10       ?detach@?$QMap@VQString@@VcomplexParam@@@@IAEXXZ 10015b10 f i bncs_client_runtime.obj
 0001:00014b90       ?detach@?$QMap@VQString@@VcomplexType@@@@IAEXXZ 10015b90 f i bncs_client_runtime.obj
 0001:00014c10       ?detach@?$QMap@VQString@@VdeviceTypeInfo@@@@IAEXXZ 10015c10 f i bncs_client_runtime.obj
 0001:00014c90       ?detach@?$QMap@VQString@@VinstanceInfo@@@@IAEXXZ 10015c90 f i bncs_client_runtime.obj
 0001:00014d10       ?detach@?$QMap@VQString@@VparamInfo@@@@IAEXXZ 10015d10 f i bncs_client_runtime.obj
 0001:00014d90       ?detachInternal@?$QMap@VQString@@VcomplexInstance@@@@AAEXXZ 10015d90 f i bncs_client_runtime.obj
 0001:00014e10       ?detachInternal@?$QMap@VQString@@VcomplexParam@@@@AAEXXZ 10015e10 f i bncs_client_runtime.obj
 0001:00014e90       ?detachInternal@?$QMap@VQString@@VcomplexType@@@@AAEXXZ 10015e90 f i bncs_client_runtime.obj
 0001:00014f10       ?detachInternal@?$QMap@VQString@@VdeviceTypeInfo@@@@AAEXXZ 10015f10 f i bncs_client_runtime.obj
 0001:00014f90       ?detachInternal@?$QMap@VQString@@VinstanceInfo@@@@AAEXXZ 10015f90 f i bncs_client_runtime.obj
 0001:00015010       ?detachInternal@?$QMap@VQString@@VparamInfo@@@@AAEXXZ 10016010 f i bncs_client_runtime.obj
 0001:00015090       ?doShowIncomingEvent@bncs_client_runtime@@AAEX_N@Z 10016090 f   bncs_client_runtime.obj
 0001:000150a0       ?empty@?$QMap@VQString@@VcomplexParam@@@@QBE_NXZ 100160a0 f i bncs_client_runtime.obj
 0001:000150a0       ?isEmpty@?$QMap@VQString@@VparamInfo@@@@QBE_NXZ 100160a0 f i bncs_client_runtime.obj
 0001:000150a0       ?empty@?$QMap@VQString@@VcomplexType@@@@QBE_NXZ 100160a0 f i bncs_client_runtime.obj
 0001:000150a0       ?empty@?$QMap@VQString@@VinstanceInfo@@@@QBE_NXZ 100160a0 f i bncs_client_runtime.obj
 0001:000150a0       ?isEmpty@?$QMap@VQString@@VcomplexType@@@@QBE_NXZ 100160a0 f i bncs_client_runtime.obj
 0001:000150a0       ?empty@?$QMap@VQString@@VdeviceTypeInfo@@@@QBE_NXZ 100160a0 f i bncs_client_runtime.obj
 0001:000150a0       ?empty@?$QMap@VQString@@VcomplexInstance@@@@QBE_NXZ 100160a0 f i bncs_client_runtime.obj
 0001:000150a0       ?isEmpty@?$QMap@VQString@@VdeviceTypeInfo@@@@QBE_NXZ 100160a0 f i bncs_client_runtime.obj
 0001:000150a0       ?isEmpty@?$QMap@VQString@@VcomplexParam@@@@QBE_NXZ 100160a0 f i bncs_client_runtime.obj
 0001:000150a0       ?isEmpty@?$QMap@VQString@@VcomplexInstance@@@@QBE_NXZ 100160a0 f i bncs_client_runtime.obj
 0001:000150a0       ?empty@?$QMap@VQString@@VparamInfo@@@@QBE_NXZ 100160a0 f i bncs_client_runtime.obj
 0001:000150a0       ?isEmpty@?$QMap@VQString@@VinstanceInfo@@@@QBE_NXZ 100160a0 f i bncs_client_runtime.obj
 0001:000150b0       ?end@?$QMap@VQString@@VcomplexInstance@@@@QAE?AV?$QMapIterator@VQString@@VcomplexInstance@@@@XZ 100160b0 f i bncs_client_runtime.obj
 0001:00015130       ?end@?$QMap@VQString@@VcomplexParam@@@@QAE?AV?$QMapIterator@VQString@@VcomplexParam@@@@XZ 10016130 f i bncs_client_runtime.obj
 0001:000151b0       ?end@?$QMap@VQString@@VcomplexType@@@@QAE?AV?$QMapIterator@VQString@@VcomplexType@@@@XZ 100161b0 f i bncs_client_runtime.obj
 0001:00015230       ?end@?$QMap@VQString@@VdeviceTypeInfo@@@@QAE?AV?$QMapIterator@VQString@@VdeviceTypeInfo@@@@XZ 10016230 f i bncs_client_runtime.obj
 0001:000152b0       ?end@?$QMap@VQString@@VcomplexType@@@@QBE?AV?$QMapConstIterator@VQString@@VcomplexType@@@@XZ 100162b0 f i bncs_client_runtime.obj
 0001:000152b0       ?end@?$QMap@VQString@@VcomplexParam@@@@QBE?AV?$QMapConstIterator@VQString@@VcomplexParam@@@@XZ 100162b0 f i bncs_client_runtime.obj
 0001:000152b0       ?constEnd@?$QMap@VQString@@VcomplexParam@@@@QBE?AV?$QMapConstIterator@VQString@@VcomplexParam@@@@XZ 100162b0 f i bncs_client_runtime.obj
 0001:000152b0       ?constEnd@?$QMap@VQString@@VinstanceInfo@@@@QBE?AV?$QMapConstIterator@VQString@@VinstanceInfo@@@@XZ 100162b0 f i bncs_client_runtime.obj
 0001:000152b0       ?constEnd@?$QMap@VQString@@VcomplexType@@@@QBE?AV?$QMapConstIterator@VQString@@VcomplexType@@@@XZ 100162b0 f i bncs_client_runtime.obj
 0001:000152b0       ?constEnd@?$QMap@VQString@@VdeviceTypeInfo@@@@QBE?AV?$QMapConstIterator@VQString@@VdeviceTypeInfo@@@@XZ 100162b0 f i bncs_client_runtime.obj
 0001:000152b0       ?end@?$QMap@VQString@@VinstanceInfo@@@@QBE?AV?$QMapConstIterator@VQString@@VinstanceInfo@@@@XZ 100162b0 f i bncs_client_runtime.obj
 0001:000152b0       ?end@?$QMap@VQString@@VdeviceTypeInfo@@@@QBE?AV?$QMapConstIterator@VQString@@VdeviceTypeInfo@@@@XZ 100162b0 f i bncs_client_runtime.obj
 0001:000152b0       ?end@?$QMap@VQString@@VcomplexInstance@@@@QBE?AV?$QMapConstIterator@VQString@@VcomplexInstance@@@@XZ 100162b0 f i bncs_client_runtime.obj
 0001:000152b0       ?end@?$QMap@VQString@@VparamInfo@@@@QBE?AV?$QMapConstIterator@VQString@@VparamInfo@@@@XZ 100162b0 f i bncs_client_runtime.obj
 0001:000152b0       ?constEnd@?$QMap@VQString@@VparamInfo@@@@QBE?AV?$QMapConstIterator@VQString@@VparamInfo@@@@XZ 100162b0 f i bncs_client_runtime.obj
 0001:000152b0       ?constEnd@?$QMap@VQString@@VcomplexInstance@@@@QBE?AV?$QMapConstIterator@VQString@@VcomplexInstance@@@@XZ 100162b0 f i bncs_client_runtime.obj
 0001:000152d0       ?end@?$QMap@VQString@@VinstanceInfo@@@@QAE?AV?$QMapIterator@VQString@@VinstanceInfo@@@@XZ 100162d0 f i bncs_client_runtime.obj
 0001:00015350       ?end@?$QMap@VQString@@VparamInfo@@@@QAE?AV?$QMapIterator@VQString@@VparamInfo@@@@XZ 10016350 f i bncs_client_runtime.obj
 0001:000153d0       ?end@?$QPtrList@VsignalConnection@@@@QBE?AV?$QPtrListStdIterator@VsignalConnection@@@@XZ 100163d0 f i bncs_client_runtime.obj
 0001:000153d0       ?end@?$QPtrList@VsignalConnection@@@@QAE?AV?$QPtrListStdIterator@VsignalConnection@@@@XZ 100163d0 f i bncs_client_runtime.obj
 0001:000153d0       ?constEnd@?$QPtrList@VsignalConnection@@@@QBE?AV?$QPtrListStdIterator@VsignalConnection@@@@XZ 100163d0 f i bncs_client_runtime.obj
 0001:000153e0       ?equivalent@error_category@std@@UBE_NABVerror_code@2@H@Z 100163e0 f i bncs_client_runtime.obj
 0001:00015400       ?equivalent@error_category@std@@UBE_NHABVerror_condition@2@@Z 10016400 f i bncs_client_runtime.obj
 0001:00015440       ?erase@?$QMap@VQString@@VcomplexInstance@@@@QAEXABVQString@@@Z 10016440 f i bncs_client_runtime.obj
 0001:00015440       ?remove@?$QMap@VQString@@VcomplexInstance@@@@QAEXABVQString@@@Z 10016440 f i bncs_client_runtime.obj
 0001:00015550       ?erase@?$QMap@VQString@@VcomplexParam@@@@QAEXV?$QMapIterator@VQString@@VcomplexParam@@@@@Z 10016550 f i bncs_client_runtime.obj
 0001:00015550       ?remove@?$QMap@VQString@@VcomplexParam@@@@QAEXV?$QMapIterator@VQString@@VcomplexParam@@@@@Z 10016550 f i bncs_client_runtime.obj
 0001:00015610       ?erase@?$QMap@VQString@@VdeviceTypeInfo@@@@QAEXABVQString@@@Z 10016610 f i bncs_client_runtime.obj
 0001:00015610       ?remove@?$QMap@VQString@@VdeviceTypeInfo@@@@QAEXABVQString@@@Z 10016610 f i bncs_client_runtime.obj
 0001:00015720       ?erase@?$QMap@VQString@@VinstanceInfo@@@@QAEXABVQString@@@Z 10016720 f i bncs_client_runtime.obj
 0001:00015720       ?remove@?$QMap@VQString@@VinstanceInfo@@@@QAEXABVQString@@@Z 10016720 f i bncs_client_runtime.obj
 0001:00015830       ?erase@?$QMap@VQString@@VinstanceInfo@@@@QAEXV?$QMapIterator@VQString@@VinstanceInfo@@@@@Z 10016830 f i bncs_client_runtime.obj
 0001:00015830       ?remove@?$QMap@VQString@@VinstanceInfo@@@@QAEXV?$QMapIterator@VQString@@VinstanceInfo@@@@@Z 10016830 f i bncs_client_runtime.obj
 0001:000158f0       ?remove@?$QMap@VQString@@VparamInfo@@@@QAEXV?$QMapIterator@VQString@@VparamInfo@@@@@Z 100168f0 f i bncs_client_runtime.obj
 0001:000158f0       ?erase@?$QMap@VQString@@VparamInfo@@@@QAEXV?$QMapIterator@VQString@@VparamInfo@@@@@Z 100168f0 f i bncs_client_runtime.obj
 0001:000159b0       ?erase@?$QPtrList@VsignalConnection@@@@QAE?AV?$QPtrListStdIterator@VsignalConnection@@@@V2@@Z 100169b0 f i bncs_client_runtime.obj
 0001:000159d0       ?erase@?$basic_string@DU?$char_traits@D@std@@V?$allocator@D@2@@std@@QAEAAV12@II@Z 100169d0 f i bncs_client_runtime.obj
 0001:00015a70       ?filePath@bncs_client_runtime@@QAE?AVQString@@XZ 10016a70 f   bncs_client_runtime.obj
 0001:00015aa0       ?find@?$QMap@VQString@@VcomplexInstance@@@@QAE?AV?$QMapIterator@VQString@@VcomplexInstance@@@@ABVQString@@@Z 10016aa0 f i bncs_client_runtime.obj
 0001:00015b30       ?find@?$QMap@VQString@@VcomplexInstance@@@@QBE?AV?$QMapConstIterator@VQString@@VcomplexInstance@@@@ABVQString@@@Z 10016b30 f i bncs_client_runtime.obj
 0001:00015b30       ?find@?$QMap@VQString@@VcomplexType@@@@QBE?AV?$QMapConstIterator@VQString@@VcomplexType@@@@ABVQString@@@Z 10016b30 f i bncs_client_runtime.obj
 0001:00015b30       ?find@?$QMap@VQString@@VparamInfo@@@@QBE?AV?$QMapConstIterator@VQString@@VparamInfo@@@@ABVQString@@@Z 10016b30 f i bncs_client_runtime.obj
 0001:00015b50       ?find@?$QMap@VQString@@VcomplexParam@@@@QAE?AV?$QMapIterator@VQString@@VcomplexParam@@@@ABVQString@@@Z 10016b50 f i bncs_client_runtime.obj
 0001:00015be0       ?find@?$QMap@VQString@@VcomplexParam@@@@QBE?AV?$QMapConstIterator@VQString@@VcomplexParam@@@@ABVQString@@@Z 10016be0 f i bncs_client_runtime.obj
 0001:00015c00       ?find@?$QMap@VQString@@VcomplexType@@@@QAE?AV?$QMapIterator@VQString@@VcomplexType@@@@ABVQString@@@Z 10016c00 f i bncs_client_runtime.obj
 0001:00015c90       ?find@?$QMap@VQString@@VdeviceTypeInfo@@@@QAE?AV?$QMapIterator@VQString@@VdeviceTypeInfo@@@@ABVQString@@@Z 10016c90 f i bncs_client_runtime.obj
 0001:00015d20       ?find@?$QMap@VQString@@VdeviceTypeInfo@@@@QBE?AV?$QMapConstIterator@VQString@@VdeviceTypeInfo@@@@ABVQString@@@Z 10016d20 f i bncs_client_runtime.obj
 0001:00015d40       ?find@?$QMap@VQString@@VinstanceInfo@@@@QAE?AV?$QMapIterator@VQString@@VinstanceInfo@@@@ABVQString@@@Z 10016d40 f i bncs_client_runtime.obj
 0001:00015dd0       ?find@?$QMap@VQString@@VinstanceInfo@@@@QBE?AV?$QMapConstIterator@VQString@@VinstanceInfo@@@@ABVQString@@@Z 10016dd0 f i bncs_client_runtime.obj
 0001:00015df0       ?find@?$QMap@VQString@@VparamInfo@@@@QAE?AV?$QMapIterator@VQString@@VparamInfo@@@@ABVQString@@@Z 10016df0 f i bncs_client_runtime.obj
 0001:00015e80       ?find@?$QMapPrivate@VQString@@VcomplexInstance@@@@QBE?AV?$QMapConstIterator@VQString@@VcomplexInstance@@@@ABVQString@@@Z 10016e80 f i bncs_client_runtime.obj
 0001:00015e80       ?find@?$QMapPrivate@VQString@@VparamInfo@@@@QBE?AV?$QMapConstIterator@VQString@@VparamInfo@@@@ABVQString@@@Z 10016e80 f i bncs_client_runtime.obj
 0001:00015e80       ?find@?$QMapPrivate@VQString@@VcomplexType@@@@QBE?AV?$QMapConstIterator@VQString@@VcomplexType@@@@ABVQString@@@Z 10016e80 f i bncs_client_runtime.obj
 0001:00015f00       ?find@?$QMapPrivate@VQString@@VcomplexParam@@@@QBE?AV?$QMapConstIterator@VQString@@VcomplexParam@@@@ABVQString@@@Z 10016f00 f i bncs_client_runtime.obj
 0001:00015f80       ?find@?$QMapPrivate@VQString@@VdeviceTypeInfo@@@@QBE?AV?$QMapConstIterator@VQString@@VdeviceTypeInfo@@@@ABVQString@@@Z 10016f80 f i bncs_client_runtime.obj
 0001:00016000       ?find@?$QMapPrivate@VQString@@VinstanceInfo@@@@QBE?AV?$QMapConstIterator@VQString@@VinstanceInfo@@@@ABVQString@@@Z 10017000 f i bncs_client_runtime.obj
 0001:00016080       ?find@?$QPtrList@VsignalConnection@@@@QAEHPBVsignalConnection@@@Z 10017080 f i bncs_client_runtime.obj
 0001:000160a0       ?findNext@?$QPtrList@VsignalConnection@@@@QAEHPBVsignalConnection@@@Z 100170a0 f i bncs_client_runtime.obj
 0001:000160c0       ?findNextRef@?$QPtrList@VsignalConnection@@@@QAEHPBVsignalConnection@@@Z 100170c0 f i bncs_client_runtime.obj
 0001:000160e0       ?findRef@?$QPtrList@VsignalConnection@@@@QAEHPBVsignalConnection@@@Z 100170e0 f i bncs_client_runtime.obj
 0001:00016100       ?first@?$QPtrList@VsignalConnection@@@@QAEPAVsignalConnection@@XZ 10017100 f i bncs_client_runtime.obj
 0001:00016110       ?getFirst@?$QPtrList@VsignalConnection@@@@QBEPAVsignalConnection@@XZ 10017110 f i bncs_client_runtime.obj
 0001:00016120       ?getLast@?$QPtrList@VsignalConnection@@@@QBEPAVsignalConnection@@XZ 10017120 f i bncs_client_runtime.obj
 0001:00016130       ?inSort@?$QPtrList@VsignalConnection@@@@QAEXPBVsignalConnection@@@Z 10017130 f i bncs_client_runtime.obj
 0001:00016140       ?insert@?$QMap@VQString@@VcomplexInstance@@@@QAE?AU?$QPair@V?$QMapIterator@VQString@@VcomplexInstance@@@@_N@@ABU?$QPair@$$CBVQString@@VcomplexInstance@@@@@Z 10017140 f i bncs_client_runtime.obj
 0001:000161f0       ?insert@?$QMap@VQString@@VcomplexInstance@@@@QAE?AV?$QMapIterator@VQString@@VcomplexInstance@@@@ABVQString@@ABVcomplexInstance@@_N@Z 100171f0 f i bncs_client_runtime.obj
 0001:000162a0       ?insert@?$QMap@VQString@@VcomplexParam@@@@QAE?AU?$QPair@V?$QMapIterator@VQString@@VcomplexParam@@@@_N@@ABU?$QPair@$$CBVQString@@VcomplexParam@@@@@Z 100172a0 f i bncs_client_runtime.obj
 0001:00016360       ?insert@?$QMap@VQString@@VcomplexParam@@@@QAE?AV?$QMapIterator@VQString@@VcomplexParam@@@@ABVQString@@ABVcomplexParam@@_N@Z 10017360 f i bncs_client_runtime.obj
 0001:00016430       ?insert@?$QMap@VQString@@VcomplexType@@@@QAE?AU?$QPair@V?$QMapIterator@VQString@@VcomplexType@@@@_N@@ABU?$QPair@$$CBVQString@@VcomplexType@@@@@Z 10017430 f i bncs_client_runtime.obj
 0001:000164e0       ?insert@?$QMap@VQString@@VcomplexType@@@@QAE?AV?$QMapIterator@VQString@@VcomplexType@@@@ABVQString@@ABVcomplexType@@_N@Z 100174e0 f i bncs_client_runtime.obj
 0001:00016590       ?insert@?$QMap@VQString@@VdeviceTypeInfo@@@@QAE?AU?$QPair@V?$QMapIterator@VQString@@VdeviceTypeInfo@@@@_N@@ABU?$QPair@$$CBVQString@@VdeviceTypeInfo@@@@@Z 10017590 f i bncs_client_runtime.obj
 0001:00016640       ?insert@?$QMap@VQString@@VdeviceTypeInfo@@@@QAE?AV?$QMapIterator@VQString@@VdeviceTypeInfo@@@@ABVQString@@ABVdeviceTypeInfo@@_N@Z 10017640 f i bncs_client_runtime.obj
 0001:000166f0       ?insert@?$QMap@VQString@@VinstanceInfo@@@@QAE?AU?$QPair@V?$QMapIterator@VQString@@VinstanceInfo@@@@_N@@ABU?$QPair@$$CBVQString@@VinstanceInfo@@@@@Z 100176f0 f i bncs_client_runtime.obj
 0001:000167a0       ?insert@?$QMap@VQString@@VinstanceInfo@@@@QAE?AV?$QMapIterator@VQString@@VinstanceInfo@@@@ABVQString@@ABVinstanceInfo@@_N@Z 100177a0 f i bncs_client_runtime.obj
 0001:00016850       ?insert@?$QMap@VQString@@VparamInfo@@@@QAE?AU?$QPair@V?$QMapIterator@VQString@@VparamInfo@@@@_N@@ABU?$QPair@$$CBVQString@@VparamInfo@@@@@Z 10017850 f i bncs_client_runtime.obj
 0001:00016900       ?insert@?$QMap@VQString@@VparamInfo@@@@QAE?AV?$QMapIterator@VQString@@VparamInfo@@@@ABVQString@@ABVparamInfo@@_N@Z 10017900 f i bncs_client_runtime.obj
 0001:000169a0       ?insert@?$QMapPrivate@VQString@@VcomplexInstance@@@@QAE?AV?$QMapIterator@VQString@@VcomplexInstance@@@@PAUQMapNodeBase@@0ABVQString@@@Z 100179a0 f i bncs_client_runtime.obj
 0001:00016aa0       ?insert@?$QMapPrivate@VQString@@VcomplexParam@@@@QAE?AV?$QMapIterator@VQString@@VcomplexParam@@@@PAUQMapNodeBase@@0ABVQString@@@Z 10017aa0 f i bncs_client_runtime.obj
 0001:00016ba0       ?insert@?$QMapPrivate@VQString@@VcomplexType@@@@QAE?AV?$QMapIterator@VQString@@VcomplexType@@@@PAUQMapNodeBase@@0ABVQString@@@Z 10017ba0 f i bncs_client_runtime.obj
 0001:00016ca0       ?insert@?$QMapPrivate@VQString@@VdeviceTypeInfo@@@@QAE?AV?$QMapIterator@VQString@@VdeviceTypeInfo@@@@PAUQMapNodeBase@@0ABVQString@@@Z 10017ca0 f i bncs_client_runtime.obj
 0001:00016da0       ?insert@?$QMapPrivate@VQString@@VinstanceInfo@@@@QAE?AV?$QMapIterator@VQString@@VinstanceInfo@@@@PAUQMapNodeBase@@0ABVQString@@@Z 10017da0 f i bncs_client_runtime.obj
 0001:00016ea0       ?insert@?$QMapPrivate@VQString@@VparamInfo@@@@QAE?AV?$QMapIterator@VQString@@VparamInfo@@@@PAUQMapNodeBase@@0ABVQString@@@Z 10017ea0 f i bncs_client_runtime.obj
 0001:00016fa0       ?insert@?$QPtrList@VsignalConnection@@@@QAE_NIPBVsignalConnection@@@Z 10017fa0 f i bncs_client_runtime.obj
 0001:00016fc0       ?insert@?$QValueListPrivate@VcomplexInstance@@@@QAE?AV?$QValueListIterator@VcomplexInstance@@@@V2@ABVcomplexInstance@@@Z 10017fc0 f i bncs_client_runtime.obj
 0001:00017050       ?insert@?$QValueListPrivate@VcomplexParam@@@@QAE?AV?$QValueListIterator@VcomplexParam@@@@V2@ABVcomplexParam@@@Z 10018050 f i bncs_client_runtime.obj
 0001:00017110       ?insert@?$QValueListPrivate@VcomplexType@@@@QAE?AV?$QValueListIterator@VcomplexType@@@@V2@ABVcomplexType@@@Z 10018110 f i bncs_client_runtime.obj
 0001:000171a0       ?insert@?$QValueListPrivate@VdeviceTypeInfo@@@@QAE?AV?$QValueListIterator@VdeviceTypeInfo@@@@V2@ABVdeviceTypeInfo@@@Z 100181a0 f i bncs_client_runtime.obj
 0001:00017230       ?insert@?$QValueListPrivate@VinstanceInfo@@@@QAE?AV?$QValueListIterator@VinstanceInfo@@@@V2@ABVinstanceInfo@@@Z 10018230 f i bncs_client_runtime.obj
 0001:000172c0       ?insert@?$QValueListPrivate@VparamInfo@@@@QAE?AV?$QValueListIterator@VparamInfo@@@@V2@ABVparamInfo@@@Z 100182c0 f i bncs_client_runtime.obj
 0001:00017320       ?insertSingle@?$QMapPrivate@VQString@@VcomplexInstance@@@@QAE?AV?$QMapIterator@VQString@@VcomplexInstance@@@@ABVQString@@@Z 10018320 f i bncs_client_runtime.obj
 0001:000173e0       ?insertSingle@?$QMapPrivate@VQString@@VcomplexParam@@@@QAE?AV?$QMapIterator@VQString@@VcomplexParam@@@@ABVQString@@@Z 100183e0 f i bncs_client_runtime.obj
 0001:000174a0       ?insertSingle@?$QMapPrivate@VQString@@VcomplexType@@@@QAE?AV?$QMapIterator@VQString@@VcomplexType@@@@ABVQString@@@Z 100184a0 f i bncs_client_runtime.obj
 0001:00017560       ?insertSingle@?$QMapPrivate@VQString@@VdeviceTypeInfo@@@@QAE?AV?$QMapIterator@VQString@@VdeviceTypeInfo@@@@ABVQString@@@Z 10018560 f i bncs_client_runtime.obj
 0001:00017620       ?insertSingle@?$QMapPrivate@VQString@@VinstanceInfo@@@@QAE?AV?$QMapIterator@VQString@@VinstanceInfo@@@@ABVQString@@@Z 10018620 f i bncs_client_runtime.obj
 0001:000176e0       ?insertSingle@?$QMapPrivate@VQString@@VparamInfo@@@@QAE?AV?$QMapIterator@VQString@@VparamInfo@@@@ABVQString@@@Z 100186e0 f i bncs_client_runtime.obj
 0001:000177a0       ?isEmpty@?$QPtrList@VsignalConnection@@@@QBE_NXZ 100187a0 f i bncs_client_runtime.obj
 0001:000177b0       ?isEmpty@?$QPtrListIterator@VsignalConnection@@@@QBE_NXZ 100187b0 f i bncs_client_runtime.obj
 0001:000177c0       ?keys@?$QMap@VQString@@VcomplexType@@@@QBE?AV?$QValueList@VQString@@@@XZ 100187c0 f i bncs_client_runtime.obj
 0001:000177c0       ?keys@?$QMap@VQString@@VcomplexInstance@@@@QBE?AV?$QValueList@VQString@@@@XZ 100187c0 f i bncs_client_runtime.obj
 0001:000177c0       ?keys@?$QMap@VQString@@VparamInfo@@@@QBE?AV?$QValueList@VQString@@@@XZ 100187c0 f i bncs_client_runtime.obj
 0001:00017890       ?keys@?$QMap@VQString@@VcomplexParam@@@@QBE?AV?$QValueList@VQString@@@@XZ 10018890 f i bncs_client_runtime.obj
 0001:00017960       ?keys@?$QMap@VQString@@VdeviceTypeInfo@@@@QBE?AV?$QValueList@VQString@@@@XZ 10018960 f i bncs_client_runtime.obj
 0001:00017a30       ?keys@?$QMap@VQString@@VinstanceInfo@@@@QBE?AV?$QValueList@VQString@@@@XZ 10018a30 f i bncs_client_runtime.obj
 0001:00017b00       ?last@?$QPtrList@VsignalConnection@@@@QAEPAVsignalConnection@@XZ 10018b00 f i bncs_client_runtime.obj
 0001:00017b10       ?message@_Generic_error_category@std@@UBE?AV?$basic_string@DU?$char_traits@D@std@@V?$allocator@D@2@@2@H@Z 10018b10 f i bncs_client_runtime.obj
 0001:00017b90       ?message@_Iostream_error_category@std@@UBE?AV?$basic_string@DU?$char_traits@D@std@@V?$allocator@D@2@@2@H@Z 10018b90 f i bncs_client_runtime.obj
 0001:00017be0       ?message@_System_error_category@std@@UBE?AV?$basic_string@DU?$char_traits@D@std@@V?$allocator@D@2@@2@H@Z 10018be0 f i bncs_client_runtime.obj
 0001:00017c60       ?metaObject@bncs_client_runtime@@UBEPAVQMetaObject@@XZ 10018c60 f i bncs_client_runtime.obj
 0001:00017c70       ?mouseReleaseEvent@bncs_client_runtime@@UAEXPAVQMouseEvent@@@Z 10018c70 f i bncs_client_runtime.obj
 0001:00017c70       ??$destroy@PAU?$_Tree_node@U?$pair@$$CBHVccTimerClient@@@std@@PAX@std@@@?$_Wrap_alloc@V?$allocator@U?$_Tree_node@U?$pair@$$CBHVccTimerClient@@@std@@PAX@std@@@std@@@std@@QAEXPAPAU?$_Tree_node@U?$pair@$$CBHVccTimerClient@@@std@@PAX@1@@Z 10018c70 f i ccTimer.obj
 0001:00017c70       ?mousePressEvent@bncs_client_runtime@@UAEXPAVQMouseEvent@@@Z 10018c70 f i bncs_client_runtime.obj
 0001:00017c80       ?name@_Generic_error_category@std@@UBEPBDXZ 10018c80 f i bncs_client_runtime.obj
 0001:00017c90       ?name@_Iostream_error_category@std@@UBEPBDXZ 10018c90 f i bncs_client_runtime.obj
 0001:00017ca0       ?name@_System_error_category@std@@UBEPBDXZ 10018ca0 f i bncs_client_runtime.obj
 0001:00017cb0       ?next@?$QPtrList@VsignalConnection@@@@QAEPAVsignalConnection@@XZ 10018cb0 f i bncs_client_runtime.obj
 0001:00017cc0       ?notifyIn@bncs_client_runtime@@QAEXAAVQString@@@Z 10018cc0 f   bncs_client_runtime.obj
 0001:00017d80       ?paintEvent@bncs_client_runtime@@UAEXPAVQPaintEvent@@@Z 10018d80 f   bncs_client_runtime.obj
 0001:00017e60       ?prepend@?$QPtrList@VsignalConnection@@@@QAEXPBVsignalConnection@@@Z 10018e60 f i bncs_client_runtime.obj
 0001:00017e80       ?prev@?$QPtrList@VsignalConnection@@@@QAEPAVsignalConnection@@XZ 10018e80 f i bncs_client_runtime.obj
 0001:00017e90       ??0?$_Wrap_alloc@V?$allocator@U?$_Tree_node@U?$pair@$$CBHVccTimerClient@@@std@@PAX@std@@@std@@@std@@QAE@XZ 10018e90 f i ccTimer.obj
 0001:00017e90       ?qObject@bncs_client_runtime@@QAEPAVQObject@@XZ 10018e90 f i bncs_client_runtime.obj
 0001:00017ea0       ?remove@?$QMap@VQString@@VcomplexInstance@@@@QAEXV?$QMapIterator@VQString@@VcomplexInstance@@@@@Z 10018ea0 f i bncs_client_runtime.obj
 0001:00017ea0       ?erase@?$QMap@VQString@@VcomplexInstance@@@@QAEXV?$QMapIterator@VQString@@VcomplexInstance@@@@@Z 10018ea0 f i bncs_client_runtime.obj
 0001:00017f60       ?erase@?$QMap@VQString@@VcomplexParam@@@@QAEXABVQString@@@Z 10018f60 f i bncs_client_runtime.obj
 0001:00017f60       ?remove@?$QMap@VQString@@VcomplexParam@@@@QAEXABVQString@@@Z 10018f60 f i bncs_client_runtime.obj
 0001:00018070       ?erase@?$QMap@VQString@@VcomplexType@@@@QAEXABVQString@@@Z 10019070 f i bncs_client_runtime.obj
 0001:00018070       ?remove@?$QMap@VQString@@VcomplexType@@@@QAEXABVQString@@@Z 10019070 f i bncs_client_runtime.obj
 0001:00018180       ?remove@?$QMap@VQString@@VcomplexType@@@@QAEXV?$QMapIterator@VQString@@VcomplexType@@@@@Z 10019180 f i bncs_client_runtime.obj
 0001:00018180       ?erase@?$QMap@VQString@@VcomplexType@@@@QAEXV?$QMapIterator@VQString@@VcomplexType@@@@@Z 10019180 f i bncs_client_runtime.obj
 0001:00018240       ?remove@?$QMap@VQString@@VdeviceTypeInfo@@@@QAEXV?$QMapIterator@VQString@@VdeviceTypeInfo@@@@@Z 10019240 f i bncs_client_runtime.obj
 0001:00018240       ?erase@?$QMap@VQString@@VdeviceTypeInfo@@@@QAEXV?$QMapIterator@VQString@@VdeviceTypeInfo@@@@@Z 10019240 f i bncs_client_runtime.obj
 0001:00018300       ?erase@?$QMap@VQString@@VparamInfo@@@@QAEXABVQString@@@Z 10019300 f i bncs_client_runtime.obj
 0001:00018300       ?remove@?$QMap@VQString@@VparamInfo@@@@QAEXABVQString@@@Z 10019300 f i bncs_client_runtime.obj
 0001:00018410       ?remove@?$QPtrList@VsignalConnection@@@@QAE_NI@Z 10019410 f i bncs_client_runtime.obj
 0001:00018420       ?remove@?$QPtrList@VsignalConnection@@@@QAE_NPBVsignalConnection@@@Z 10019420 f i bncs_client_runtime.obj
 0001:00018430       ?remove@?$QPtrList@VsignalConnection@@@@QAE_NXZ 10019430 f i bncs_client_runtime.obj
 0001:00018440       ?removeFirst@?$QPtrList@VsignalConnection@@@@QAE_NXZ 10019440 f i bncs_client_runtime.obj
 0001:00018460       ?removeLast@?$QPtrList@VsignalConnection@@@@QAE_NXZ 10019460 f i bncs_client_runtime.obj
 0001:00018480       ?removeNode@?$QPtrList@VsignalConnection@@@@QAEXPAVQLNode@@@Z 10019480 f i bncs_client_runtime.obj
 0001:00018490       ?removeRef@?$QPtrList@VsignalConnection@@@@QAE_NPBVsignalConnection@@@Z 10019490 f i bncs_client_runtime.obj
 0001:000184a0       ?removeWidgetFromList@bncs_client_runtime@@QAE_NPAVQWidget@@@Z 100194a0 f   bncs_client_runtime.obj
 0001:000184b0       ?replace@?$QMap@VQString@@VcomplexInstance@@@@QAE?AV?$QMapIterator@VQString@@VcomplexInstance@@@@ABVQString@@ABVcomplexInstance@@@Z 100194b0 f i bncs_client_runtime.obj
 0001:00018550       ?replace@?$QMap@VQString@@VcomplexParam@@@@QAE?AV?$QMapIterator@VQString@@VcomplexParam@@@@ABVQString@@ABVcomplexParam@@@Z 10019550 f i bncs_client_runtime.obj
 0001:00018600       ?replace@?$QMap@VQString@@VcomplexType@@@@QAE?AV?$QMapIterator@VQString@@VcomplexType@@@@ABVQString@@ABVcomplexType@@@Z 10019600 f i bncs_client_runtime.obj
 0001:000186a0       ?replace@?$QMap@VQString@@VdeviceTypeInfo@@@@QAE?AV?$QMapIterator@VQString@@VdeviceTypeInfo@@@@ABVQString@@ABVdeviceTypeInfo@@@Z 100196a0 f i bncs_client_runtime.obj
 0001:00018740       ?replace@?$QMap@VQString@@VinstanceInfo@@@@QAE?AV?$QMapIterator@VQString@@VinstanceInfo@@@@ABVQString@@ABVinstanceInfo@@@Z 10019740 f i bncs_client_runtime.obj
 0001:000187e0       ?replace@?$QMap@VQString@@VparamInfo@@@@QAE?AV?$QMapIterator@VQString@@VparamInfo@@@@ABVQString@@ABVparamInfo@@@Z 100197e0 f i bncs_client_runtime.obj
 0001:00018880       ?replace@?$QPtrList@VsignalConnection@@@@QAE_NIPBVsignalConnection@@@Z 10019880 f i bncs_client_runtime.obj
 0001:00018890       ?scriptfile@dCW@@QAE?AVQString@@XZ 10019890 f i bncs_client_runtime.obj
 0001:000188c0       ?setCaption@bncs_client_runtime@@UAEXABVQString@@@Z 100198c0 f   bncs_client_runtime.obj
 0001:00018d20       ?setFilePath@bncs_client_runtime@@QAEXABVQString@@@Z 10019d20 f   bncs_client_runtime.obj
 0001:00018d30       ?setWidgetList@bncs_client_runtime@@QAEXABVQWidgetList@@@Z 10019d30 f   bncs_client_runtime.obj
 0001:00018d40       ?sort@?$QPtrList@VsignalConnection@@@@QAEXXZ 10019d40 f i bncs_client_runtime.obj
 0001:00018d50       ?take@?$QPtrList@VsignalConnection@@@@QAEPAVsignalConnection@@I@Z 10019d50 f i bncs_client_runtime.obj
 0001:00018d60       ?take@?$QPtrList@VsignalConnection@@@@QAEPAVsignalConnection@@XZ 10019d60 f i bncs_client_runtime.obj
 0001:00018d70       ?takeNode@?$QPtrList@VsignalConnection@@@@QAEPAVsignalConnection@@PAVQLNode@@@Z 10019d70 f i bncs_client_runtime.obj
 0001:00018d80       ?toFirst@?$QPtrListIterator@VsignalConnection@@@@QAEPAVsignalConnection@@XZ 10019d80 f i bncs_client_runtime.obj
 0001:00018d90       ?toLast@?$QPtrListIterator@VsignalConnection@@@@QAEPAVsignalConnection@@XZ 10019d90 f i bncs_client_runtime.obj
 0001:00018da0       ?toVector@?$QPtrList@VsignalConnection@@@@QBEXPAVQGVector@@@Z 10019da0 f i bncs_client_runtime.obj
 0001:00018db0       ?values@?$QMap@VQString@@VcomplexInstance@@@@QBE?AV?$QValueList@VcomplexInstance@@@@XZ 10019db0 f i bncs_client_runtime.obj
 0001:00018ea0       ?values@?$QMap@VQString@@VcomplexParam@@@@QBE?AV?$QValueList@VcomplexParam@@@@XZ 10019ea0 f i bncs_client_runtime.obj
 0001:00018f90       ?values@?$QMap@VQString@@VcomplexType@@@@QBE?AV?$QValueList@VcomplexType@@@@XZ 10019f90 f i bncs_client_runtime.obj
 0001:00019080       ?values@?$QMap@VQString@@VdeviceTypeInfo@@@@QBE?AV?$QValueList@VdeviceTypeInfo@@@@XZ 1001a080 f i bncs_client_runtime.obj
 0001:00019170       ?values@?$QMap@VQString@@VinstanceInfo@@@@QBE?AV?$QValueList@VinstanceInfo@@@@XZ 1001a170 f i bncs_client_runtime.obj
 0001:00019260       ?values@?$QMap@VQString@@VparamInfo@@@@QBE?AV?$QValueList@VparamInfo@@@@XZ 1001a260 f i bncs_client_runtime.obj
 0001:00019350       ?widgetList@bncs_client_runtime@@QBE?AVQWidgetList@@XZ 1001a350 f   bncs_client_runtime.obj
 0001:00019390       ?widgetList@dCW@@QAE?AVQWidgetList@@XZ 1001a390 f i bncs_client_runtime.obj
 0001:000193d0       ??$_Buynode@U?$pair@HVccTimerClient@@@std@@@?$_Tree_buy@U?$pair@$$CBHVccTimerClient@@@std@@V?$allocator@U?$pair@$$CBHVccTimerClient@@@std@@@2@@std@@QAEPAU?$_Tree_node@U?$pair@$$CBHVccTimerClient@@@std@@PAX@1@$$QAU?$pair@HVccTimerClient@@@1@@Z 1001a3d0 f i ccTimer.obj
 0001:00019410       ??$_Insert_at@AAU?$pair@$$CBHVccTimerClient@@@std@@PAU?$_Tree_node@U?$pair@$$CBHVccTimerClient@@@std@@PAX@2@@?$_Tree@V?$_Tmap_traits@HVccTimerClient@@U?$less@H@std@@V?$allocator@U?$pair@$$CBHVccTimerClient@@@std@@@3@$0A@@std@@@std@@IAE?AV?$_Tree_iterator@V?$_Tree_val@U?$_Tree_simple_types@U?$pair@$$CBHVccTimerClient@@@std@@@std@@@std@@@1@_NPAU?$_Tree_node@U?$pair@$$CBHVccTimerClient@@@std@@PAX@1@AAU?$pair@$$CBHVccTimerClient@@@1@1@Z 1001a410 f i ccTimer.obj
 0001:00019620       ??$_Insert_nohint@AAU?$pair@$$CBHVccTimerClient@@@std@@PAU?$_Tree_node@U?$pair@$$CBHVccTimerClient@@@std@@PAX@2@@?$_Tree@V?$_Tmap_traits@HVccTimerClient@@U?$less@H@std@@V?$allocator@U?$pair@$$CBHVccTimerClient@@@std@@@3@$0A@@std@@@std@@IAE?AU?$pair@V?$_Tree_iterator@V?$_Tree_val@U?$_Tree_simple_types@U?$pair@$$CBHVccTimerClient@@@std@@@std@@@std@@@std@@_N@1@_NAAU?$pair@$$CBHVccTimerClient@@@1@PAU?$_Tree_node@U?$pair@$$CBHVccTimerClient@@@std@@PAX@1@@Z 1001a620 f i ccTimer.obj
 0001:00019740       ??0ccTimer@@QAE@PAVIccTimerCallback@@@Z 1001a740 f   ccTimer.obj
 0001:00019820       ??1ccTimer@@UAE@XZ         1001a820 f   ccTimer.obj
 0001:00019970       ??E?$_Tree_unchecked_const_iterator@V?$_Tree_val@U?$_Tree_simple_types@U?$pair@$$CBHVccTimerClient@@@std@@@std@@@std@@U_Iterator_base0@2@@std@@QAEAAV01@XZ 1001a970 f i ccTimer.obj
 0001:000199c0       ??F?$_Tree_unchecked_const_iterator@V?$_Tree_val@U?$_Tree_simple_types@U?$pair@$$CBHVccTimerClient@@@std@@@std@@@std@@U_Iterator_base0@2@@std@@QAEAAV01@XZ 1001a9c0 f i ccTimer.obj
 0001:00019a20       ??_GccTimer@@UAEPAXI@Z     1001aa20 f i ccTimer.obj
 0001:00019a20       ??_EccTimer@@UAEPAXI@Z     1001aa20 f i ccTimer.obj
 0001:00019a50       ?WndProc@ccTimer@@CGJPAUHWND__@@IIJ@Z 1001aa50 f   ccTimer.obj
 0001:00019af0       ?_Buyheadnode@?$_Tree_alloc@$0A@U?$_Tree_base_types@U?$pair@$$CBHVccTimerClient@@@std@@V?$allocator@U?$pair@$$CBHVccTimerClient@@@std@@@2@@std@@@std@@QAEPAU?$_Tree_node@U?$pair@$$CBHVccTimerClient@@@std@@PAX@2@XZ 1001aaf0 f i ccTimer.obj
 0001:00019b20       ?_Buynode0@?$_Tree_buy@U?$pair@$$CBHVccTimerClient@@@std@@V?$allocator@U?$pair@$$CBHVccTimerClient@@@std@@@2@@std@@QAEPAU?$_Tree_node@U?$pair@$$CBHVccTimerClient@@@std@@PAX@2@XZ 1001ab20 f i ccTimer.obj
 0001:00019b60       ?_Erase@?$_Tree@V?$_Tmap_traits@HVccTimerClient@@U?$less@H@std@@V?$allocator@U?$pair@$$CBHVccTimerClient@@@std@@@3@$0A@@std@@@std@@IAEXPAU?$_Tree_node@U?$pair@$$CBHVccTimerClient@@@std@@PAX@2@@Z 1001ab60 f i ccTimer.obj
 0001:00019ba0       ?_Lrotate@?$_Tree@V?$_Tmap_traits@HVccTimerClient@@U?$less@H@std@@V?$allocator@U?$pair@$$CBHVccTimerClient@@@std@@@3@$0A@@std@@@std@@IAEXPAU?$_Tree_node@U?$pair@$$CBHVccTimerClient@@@std@@PAX@2@@Z 1001aba0 f i ccTimer.obj
 0001:00019c00       ?_Rrotate@?$_Tree@V?$_Tmap_traits@HVccTimerClient@@U?$less@H@std@@V?$allocator@U?$pair@$$CBHVccTimerClient@@@std@@@3@$0A@@std@@@std@@IAEXPAU?$_Tree_node@U?$pair@$$CBHVccTimerClient@@@std@@PAX@2@@Z 1001ac00 f i ccTimer.obj
 0001:00019c60       ?clear@?$_Tree@V?$_Tmap_traits@HVccTimerClient@@U?$less@H@std@@V?$allocator@U?$pair@$$CBHVccTimerClient@@@std@@@3@$0A@@std@@@std@@QAEXXZ 1001ac60 f i ccTimer.obj
 0001:00019cb0       ?erase@?$_Tree@V?$_Tmap_traits@HVccTimerClient@@U?$less@H@std@@V?$allocator@U?$pair@$$CBHVccTimerClient@@@std@@@3@$0A@@std@@@std@@QAE?AV?$_Tree_iterator@V?$_Tree_val@U?$_Tree_simple_types@U?$pair@$$CBHVccTimerClient@@@std@@@std@@@std@@@2@V?$_Tree_const_iterator@V?$_Tree_val@U?$_Tree_simple_types@U?$pair@$$CBHVccTimerClient@@@std@@@std@@@std@@@2@0@Z 1001acb0 f i ccTimer.obj
 0001:00019d50       ?erase@?$_Tree@V?$_Tmap_traits@HVccTimerClient@@U?$less@H@std@@V?$allocator@U?$pair@$$CBHVccTimerClient@@@std@@@3@$0A@@std@@@std@@QAE?AV?$_Tree_iterator@V?$_Tree_val@U?$_Tree_simple_types@U?$pair@$$CBHVccTimerClient@@@std@@@std@@@std@@@2@V?$_Tree_const_iterator@V?$_Tree_val@U?$_Tree_simple_types@U?$pair@$$CBHVccTimerClient@@@std@@@std@@@std@@@2@@Z 1001ad50 f i ccTimer.obj
 0001:00019fc0       ?showLastError@ccTimer@@CAXPAD@Z 1001afc0 f   ccTimer.obj
 0001:0001a0c0       ?timerFired@ccTimer@@AAEXH@Z 1001b0c0 f   ccTimer.obj
 0001:0001a120       ?timerStart@ccTimer@@QAEHHH@Z 1001b120 f   ccTimer.obj
 0001:0001a290       ?timerStop@ccTimer@@QAEHH@Z 1001b290 f   ccTimer.obj
 0001:0001a340       ??0connectionDebugDlg@@QAE@PAVQWidget@@PBD_NI@Z 1001b340 f   connectiondebugdlgimpl.obj
 0001:0001a3f5       ??_EconnectionDebugDlg@@WCI@AEPAXI@Z 1001b3f5 f i connectiondebugdlgimpl.obj
 0001:0001a400       ??_GconnectionDebugDlg@@UAEPAXI@Z 1001b400 f i connectiondebugdlgimpl.obj
 0001:0001a400       ??_EconnectionDebugDlg@@UAEPAXI@Z 1001b400 f i connectiondebugdlgimpl.obj
 0001:0001a430       ?debug@connectionDebugDlg@@QAEXABVQString@@@Z 1001b430 f   connectiondebugdlgimpl.obj
 0001:0001a460       ?doButtonClear@connectionDebugDlg@@QAEXXZ 1001b460 f   connectiondebugdlgimpl.obj
 0001:0001a470       ?metaObject@connectionDebugDlg@@UBEPAVQMetaObject@@XZ 1001b470 f i connectiondebugdlgimpl.obj
 0001:0001a480       ?scrollToBottom@connectionDebugDlg@@QAEX_N@Z 1001b480 f   connectiondebugdlgimpl.obj
 0001:0001a4a0       ??0dCW@@QAE@XZ             1001b4a0 f   dCW.obj
 0001:0001a5a0       ??0resourceCounts@@QAE@ABV0@@Z 1001b5a0 f i dCW.obj
 0001:0001a5b0       ??1dCW@@UAE@XZ             1001b5b0 f   dCW.obj
 0001:0001a6d0       ??_EresourceCounts@@UAEPAXI@Z 1001b6d0 f i dCW.obj
 0001:0001a730       ??_E?$QCache@VQDomDocument@@@@UAEPAXI@Z 1001b730 f i dCW.obj
 0001:0001a730       ??_G?$QCache@VQDomDocument@@@@UAEPAXI@Z 1001b730 f i dCW.obj
 0001:0001a7a0       ??_GQDomDocument@@UAEPAXI@Z 1001b7a0 f i dCW.obj
 0001:0001a7a0       ??_EQDomDocument@@UAEPAXI@Z 1001b7a0 f i dCW.obj
 0001:0001a7d0       ?checkNameUnique@dCW@@SA_NPAVQWidget@@ABVQString@@AAV3@@Z 1001b7d0 f   dCW.obj
 0001:0001aa00       ?clear@?$QCache@VQDomDocument@@@@UAEXXZ 1001ba00 f i dCW.obj
 0001:0001aa10       ?clearCache@dCW@@SAXXZ     1001ba10 f   dCW.obj
 0001:0001aa20       ?connectionList@dCW@@QAE?AVsignalConnectionRefList@@XZ 1001ba20 f   dCW.obj
 0001:0001aa50       ?count@?$QCache@VQDomDocument@@@@UBEIXZ 1001ba50 f i dCW.obj
 0001:0001aa60       ?create@dCW@@QAEPAVQWidget@@ABVQString@@PAVQObject@@PAV2@PBD_N4NN44@Z 1001ba60 f   dCW.obj
 0001:0001b270       ?createWidget@dCW@@QAEPAVQWidget@@ABVQString@@PAV2@0HHHH@Z 1001c270 f   dCW.obj
 0001:0001b3b0       ?deleteItem@?$QCache@VQDomDocument@@@@EAEXPAX@Z 1001c3b0 f i dCW.obj
 0001:0001b3d0       ?developerMode@dCW@@SA_NXZ 1001c3d0 f   dCW.obj
 0001:0001b480       ?enableCache@dCW@@SAX_N@Z  1001c480 f   dCW.obj
 0001:0001b4a0       ?isDesignTime@dCW@@SA_NXZ  1001c4a0 f   dCW.obj
 0001:0001b4b0       ?name@dCW@@QAE?AVQString@@XZ 1001c4b0 f   dCW.obj
 0001:0001b4e0       ?parseXML@dCW@@QAEPAVQWidget@@AAVQDomDocument@@PAV2@VQPoint@@_N33VQString@@@Z 1001c4e0 f   dCW.obj
 0001:0001dc00       ?parseXML@dCW@@QAEPAVQWidget@@AAVQDomDocument@@PAV2@VQPoint@@_N3VQString@@@Z 1001ec00 f   dCW.obj
 0001:0001dc80       ?round@dCW@@QAEHN@Z        1001ec80 f   dCW.obj
 0001:0001dcc0       ?setDesignTime@dCW@@SAX_N@Z 1001ecc0 f   dCW.obj
 0001:0001dcd0       ?setUserLimitsCallback@dCW@@SAXPAVIdCWlimits@@I@Z 1001ecd0 f   dCW.obj
 0001:0001dcf0       ??0notifyWrangler@@QAE@ABVQString@@0ABVQWidgetList@@@Z 1001ecf0 f   notifyWrangler.obj
 0001:0001dd70       ??1notifyWrangler@@UAE@XZ  1001ed70 f   notifyWrangler.obj
 0001:0001ddd0       ??_EnotifyWrangler@@UAEPAXI@Z 1001edd0 f i notifyWrangler.obj
 0001:0001ddd0       ??_GnotifyWrangler@@UAEPAXI@Z 1001edd0 f i notifyWrangler.obj
 0001:0001de50       ?textGet@notifyWrangler@@QAE_NABVQString@@0AAV2@@Z 1001ee50 f   notifyWrangler.obj
 0001:0001e080       ?wrangle@notifyWrangler@@QAE?AVQString@@ABV2@@Z 1001f080 f   notifyWrangler.obj
 0001:0001e7b0       ??0connectionDebugDlgBase@@QAE@PAVQWidget@@PBD_NI@Z 1001f7b0 f   connectiondebugdlg.obj
 0001:0001eb40       ??1connectionDebugDlgBase@@UAE@XZ 1001fb40 f   connectiondebugdlg.obj
 0001:0001eb53       ??_EQCheckBox@@WCI@AEPAXI@Z 1001fb53 f i connectiondebugdlg.obj
 0001:0001eb5b       ??_EQHBoxLayout@@WCI@AEPAXI@Z 1001fb5b f i connectiondebugdlg.obj
 0001:0001eb63       ??_EQPushButton@@WCI@AEPAXI@Z 1001fb63 f i connectiondebugdlg.obj
 0001:0001eb6b       ??_EQTextEdit@@WCI@AEPAXI@Z 1001fb6b f i connectiondebugdlg.obj
 0001:0001eb73       ??_EQVBoxLayout@@WCI@AEPAXI@Z 1001fb73 f i connectiondebugdlg.obj
 0001:0001eb7b       ??_EconnectionDebugDlgBase@@WCI@AEPAXI@Z 1001fb7b f i connectiondebugdlg.obj
 0001:0001eb90       ??_EQCheckBox@@UAEPAXI@Z   1001fb90 f i connectiondebugdlg.obj
 0001:0001eb90       ??_GQCheckBox@@UAEPAXI@Z   1001fb90 f i connectiondebugdlg.obj
 0001:0001ebc0       ??_EQHBoxLayout@@UAEPAXI@Z 1001fbc0 f i connectiondebugdlg.obj
 0001:0001ebc0       ??_GQHBoxLayout@@UAEPAXI@Z 1001fbc0 f i connectiondebugdlg.obj
 0001:0001ebf0       ??_EQPushButton@@UAEPAXI@Z 1001fbf0 f i connectiondebugdlg.obj
 0001:0001ebf0       ??_GQPushButton@@UAEPAXI@Z 1001fbf0 f i connectiondebugdlg.obj
 0001:0001ec20       ??_GQSpacerItem@@UAEPAXI@Z 1001fc20 f i connectiondebugdlg.obj
 0001:0001ec20       ??_EQSpacerItem@@UAEPAXI@Z 1001fc20 f i connectiondebugdlg.obj
 0001:0001ec50       ??_GQTextEdit@@UAEPAXI@Z   1001fc50 f i connectiondebugdlg.obj
 0001:0001ec50       ??_EQTextEdit@@UAEPAXI@Z   1001fc50 f i connectiondebugdlg.obj
 0001:0001ec80       ??_GQVBoxLayout@@UAEPAXI@Z 1001fc80 f i connectiondebugdlg.obj
 0001:0001ec80       ??_EQVBoxLayout@@UAEPAXI@Z 1001fc80 f i connectiondebugdlg.obj
 0001:0001ecb0       ??_GconnectionDebugDlgBase@@UAEPAXI@Z 1001fcb0 f i connectiondebugdlg.obj
 0001:0001ecb0       ??_EconnectionDebugDlgBase@@UAEPAXI@Z 1001fcb0 f i connectiondebugdlg.obj
 0001:0001ece0       ?languageChange@connectionDebugDlgBase@@MAEXXZ 1001fce0 f   connectiondebugdlg.obj
 0001:0001ee00       ?metaObject@connectionDebugDlgBase@@UBEPAVQMetaObject@@XZ 1001fe00 f i connectiondebugdlg.obj
 0001:0001ee10       ?className@bncs_client_runtime@@UBEPBDXZ 1001fe10 f   moc_bncs_client_runtime.obj
 0001:0001ee20       ?notify@bncs_client_runtime@@IAEXAAVQString@@@Z 1001fe20 f   moc_bncs_client_runtime.obj
 0001:0001ef00       ?qt_cast@bncs_client_runtime@@UAEPAXPBD@Z 1001ff00 f   moc_bncs_client_runtime.obj
 0001:0001efb0       ?qt_emit@bncs_client_runtime@@UAE_NHPAUQUObject@@@Z 1001ffb0 f   moc_bncs_client_runtime.obj
 0001:0001eff0       ?qt_invoke@bncs_client_runtime@@UAE_NHPAUQUObject@@@Z 1001fff0 f   moc_bncs_client_runtime.obj
 0001:0001f060       ?qt_property@bncs_client_runtime@@UAE_NHHPAVQVariant@@@Z 10020060 f   moc_bncs_client_runtime.obj
 0001:0001f070       ?qt_static_property@bncs_client_runtime@@SA_NPAVQObject@@HHPAVQVariant@@@Z 10020070 f   moc_bncs_client_runtime.obj
 0001:0001f080       ?staticMetaObject@bncs_client_runtime@@SAPAVQMetaObject@@XZ 10020080 f   moc_bncs_client_runtime.obj
 0001:0001f170       ?tr@bncs_client_runtime@@SA?AVQString@@PBD0@Z 10020170 f   moc_bncs_client_runtime.obj
 0001:0001f1c0       ?trUtf8@bncs_client_runtime@@SA?AVQString@@PBD0@Z 100201c0 f   moc_bncs_client_runtime.obj
 0001:0001f210       ?className@connectionDebugDlgBase@@UBEPBDXZ 10020210 f   moc_connectiondebugdlg.obj
 0001:0001f220       ?qt_cast@connectionDebugDlgBase@@UAEPAXPBD@Z 10020220 f   moc_connectiondebugdlg.obj
 0001:0001f280       ?qt_emit@connectionDebugDlgBase@@UAE_NHPAUQUObject@@@Z 10020280 f   moc_connectiondebugdlg.obj
 0001:0001f290       ?qt_invoke@connectionDebugDlgBase@@UAE_NHPAUQUObject@@@Z 10020290 f   moc_connectiondebugdlg.obj
 0001:0001f320       ?qt_property@connectionDebugDlgBase@@UAE_NHHPAVQVariant@@@Z 10020320 f   moc_connectiondebugdlg.obj
 0001:0001f330       ?staticMetaObject@connectionDebugDlgBase@@SAPAVQMetaObject@@XZ 10020330 f   moc_connectiondebugdlg.obj
 0001:0001f380       ?tr@connectionDebugDlgBase@@SA?AVQString@@PBD0@Z 10020380 f   moc_connectiondebugdlg.obj
 0001:0001f3d0       ?className@connectionDebugDlg@@UBEPBDXZ 100203d0 f   moc_connectiondebugdlgimpl.obj
 0001:0001f3e0       ?qt_cast@connectionDebugDlg@@UAEPAXPBD@Z 100203e0 f   moc_connectiondebugdlgimpl.obj
 0001:0001f440       ?qt_emit@connectionDebugDlg@@UAE_NHPAUQUObject@@@Z 10020440 f   moc_connectiondebugdlgimpl.obj
 0001:0001f490       ?qt_invoke@connectionDebugDlg@@UAE_NHPAUQUObject@@@Z 10020490 f   moc_connectiondebugdlgimpl.obj
 0001:0001f4e0       ?qt_property@connectionDebugDlg@@UAE_NHHPAVQVariant@@@Z 100204e0 f   moc_connectiondebugdlgimpl.obj
 0001:0001f4f0       ?staticMetaObject@connectionDebugDlg@@SAPAVQMetaObject@@XZ 100204f0 f   moc_connectiondebugdlgimpl.obj
 0001:0001f5b0       ??0resourceCounts@@QAE@XZ  100205b0 f   resourceCounts.obj
 0001:0001f5e0       ??1resourceCounts@@UAE@XZ  100205e0 f   resourceCounts.obj
 0001:0001f5f0       ?gdiObjects@resourceCounts@@QAEKXZ 100205f0 f   resourceCounts.obj
 0001:0001f600       ?gdiObjectsPeak@resourceCounts@@QAEKXZ 10020600 f   resourceCounts.obj
 0001:0001f610       ?userObjects@resourceCounts@@QAEKXZ 10020610 f   resourceCounts.obj
 0001:0001f620       ?userObjectsPeak@resourceCounts@@QAEKXZ 10020620 f   resourceCounts.obj
 0001:0001f630       ??0decodeCaptionString@@QAE@PBD@Z 10020630 f   decodecaptionstring:decodecaptionstring.obj
 0001:0001f650       ??1decodeCaptionString@@QAE@XZ 10020650 f   decodecaptionstring:decodecaptionstring.obj
 0001:0001f670       ?split@decodeCaptionString@@AAEXPBD@Z 10020670 f i decodecaptionstring:decodecaptionstring.obj
 0001:0001f86a       ?setBackgroundMode@QWidget@@UAEXW4BackgroundMode@Qt@@@Z 1002086a f   qt-mt323:qt-mt323.dll
 0001:0001f870       ?contextMenuEvent@QWidget@@MAEXPAVQContextMenuEvent@@@Z 10020870 f   qt-mt323:qt-mt323.dll
 0001:0001f876       ?adjustSize@QWidget@@UAEXXZ 10020876 f   qt-mt323:qt-mt323.dll
 0001:0001f87c       ?checkConnectArgs@QObject@@MAE_NPBDPBV1@0@Z 1002087c f   qt-mt323:qt-mt323.dll
 0001:0001f882       ?childEvent@QObject@@MAEXPAVQChildEvent@@@Z 10020882 f   qt-mt323:qt-mt323.dll
 0001:0001f888       ?close@QWidget@@UAE_N_N@Z  10020888 f   qt-mt323:qt-mt323.dll
 0001:0001f88e       ?closeEvent@QWidget@@MAEXPAVQCloseEvent@@@Z 1002088e f   qt-mt323:qt-mt323.dll
 0001:0001f894       ?cmd@QPaintDevice@@MAE_NHPAVQPainter@@PATQPDevCmdParam@@@Z 10020894 f   qt-mt323:qt-mt323.dll
 0001:0001f89a       ?compareItems@QGList@@MAEHPAX0@Z 1002089a f   qt-mt323:qt-mt323.dll
 0001:0001f8a0       ?connectNotify@QObject@@MAEXPBD@Z 100208a0 f   qt-mt323:qt-mt323.dll
 0001:0001f8a6       ?create@QWidget@@MAEXPAUHWND__@@_N1@Z 100208a6 f   qt-mt323:qt-mt323.dll
 0001:0001f8ac       ?customEvent@QObject@@MAEXPAVQCustomEvent@@@Z 100208ac f   qt-mt323:qt-mt323.dll
 0001:0001f8b2       ?customWhatsThis@QWidget@@UBE_NXZ 100208b2 f   qt-mt323:qt-mt323.dll
 0001:0001f8b8       ?destroy@QWidget@@MAEX_N0@Z 100208b8 f   qt-mt323:qt-mt323.dll
 0001:0001f8be       ?disconnectNotify@QObject@@MAEXPBD@Z 100208be f   qt-mt323:qt-mt323.dll
 0001:0001f8c4       ?dragEnterEvent@QWidget@@MAEXPAVQDragEnterEvent@@@Z 100208c4 f   qt-mt323:qt-mt323.dll
 0001:0001f8ca       ?dragLeaveEvent@QWidget@@MAEXPAVQDragLeaveEvent@@@Z 100208ca f   qt-mt323:qt-mt323.dll
 0001:0001f8d0       ?dragMoveEvent@QWidget@@MAEXPAVQDragMoveEvent@@@Z 100208d0 f   qt-mt323:qt-mt323.dll
 0001:0001f8d6       ?dropEvent@QWidget@@MAEXPAVQDropEvent@@@Z 100208d6 f   qt-mt323:qt-mt323.dll
 0001:0001f8dc       ?enabledChange@QWidget@@MAEX_N@Z 100208dc f   qt-mt323:qt-mt323.dll
 0001:0001f8e2       ?enterEvent@QWidget@@MAEXPAVQEvent@@@Z 100208e2 f   qt-mt323:qt-mt323.dll
 0001:0001f8e8       ?event@QWidget@@MAE_NPAVQEvent@@@Z 100208e8 f   qt-mt323:qt-mt323.dll
 0001:0001f8ee       ?eventFilter@QObject@@UAE_NPAV1@PAVQEvent@@@Z 100208ee f   qt-mt323:qt-mt323.dll
 0001:0001f8f4       ?focusInEvent@QWidget@@MAEXPAVQFocusEvent@@@Z 100208f4 f   qt-mt323:qt-mt323.dll
 0001:0001f8fa       ?focusNextPrevChild@QWidget@@MAE_N_N@Z 100208fa f   qt-mt323:qt-mt323.dll
 0001:0001f900       ?focusOutEvent@QWidget@@MAEXPAVQFocusEvent@@@Z 10020900 f   qt-mt323:qt-mt323.dll
 0001:0001f906       ?fontChange@QWidget@@MAEXABVQFont@@@Z 10020906 f   qt-mt323:qt-mt323.dll
 0001:0001f90c       ?fontInf@QPaintDevice@@MBEHPAVQFont@@H@Z 1002090c f   qt-mt323:qt-mt323.dll
 0001:0001f912       ?fontMet@QPaintDevice@@MBEHPAVQFont@@HPBDH@Z 10020912 f   qt-mt323:qt-mt323.dll
 0001:0001f918       ?handle@QPaintDevice@@UBEPAUHDC__@@XZ 10020918 f   qt-mt323:qt-mt323.dll
 0001:0001f91e       ?heightForWidth@QWidget@@UBEHH@Z 1002091e f   qt-mt323:qt-mt323.dll
 0001:0001f924       ?hide@QWidget@@UAEXXZ      10020924 f   qt-mt323:qt-mt323.dll
 0001:0001f92a       ?hideEvent@QWidget@@MAEXPAVQHideEvent@@@Z 1002092a f   qt-mt323:qt-mt323.dll
 0001:0001f930       ?imComposeEvent@QWidget@@MAEXPAVQIMEvent@@@Z 10020930 f   qt-mt323:qt-mt323.dll
 0001:0001f936       ?imEndEvent@QWidget@@MAEXPAVQIMEvent@@@Z 10020936 f   qt-mt323:qt-mt323.dll
 0001:0001f93c       ?imStartEvent@QWidget@@MAEXPAVQIMEvent@@@Z 1002093c f   qt-mt323:qt-mt323.dll
 0001:0001f942       ?insertChild@QObject@@UAEXPAV1@@Z 10020942 f   qt-mt323:qt-mt323.dll
 0001:0001f948       ?keyPressEvent@QWidget@@MAEXPAVQKeyEvent@@@Z 10020948 f   qt-mt323:qt-mt323.dll
 0001:0001f94e       ?keyReleaseEvent@QWidget@@MAEXPAVQKeyEvent@@@Z 1002094e f   qt-mt323:qt-mt323.dll
 0001:0001f954       ?leaveEvent@QWidget@@MAEXPAVQEvent@@@Z 10020954 f   qt-mt323:qt-mt323.dll
 0001:0001f95a       ?metric@QWidget@@MBEHH@Z   1002095a f   qt-mt323:qt-mt323.dll
 0001:0001f960       ?minimumSizeHint@QWidget@@UBE?AVQSize@@XZ 10020960 f   qt-mt323:qt-mt323.dll
 0001:0001f966       ?mouseDoubleClickEvent@QWidget@@MAEXPAVQMouseEvent@@@Z 10020966 f   qt-mt323:qt-mt323.dll
 0001:0001f96c       ?mouseMoveEvent@QWidget@@MAEXPAVQMouseEvent@@@Z 1002096c f   qt-mt323:qt-mt323.dll
 0001:0001f972       ?move@QWidget@@UAEXHH@Z    10020972 f   qt-mt323:qt-mt323.dll
 0001:0001f978       ?moveEvent@QWidget@@MAEXPAVQMoveEvent@@@Z 10020978 f   qt-mt323:qt-mt323.dll
 0001:0001f97e       ?newItem@QPtrCollection@@MAEPAXPAX@Z 1002097e f   qt-mt323:qt-mt323.dll
 0001:0001f984       ?paletteChange@QWidget@@MAEXABVQPalette@@@Z 10020984 f   qt-mt323:qt-mt323.dll
 0001:0001f98a       ?polish@QWidget@@UAEXXZ    1002098a f   qt-mt323:qt-mt323.dll
 0001:0001f990       ?property@QObject@@UBE?AVQVariant@@PBD@Z 10020990 f   qt-mt323:qt-mt323.dll
 0001:0001f996       ?read@QGList@@MAEAAVQDataStream@@AAV2@AAPAX@Z 10020996 f   qt-mt323:qt-mt323.dll
 0001:0001f99c       ?removeChild@QObject@@UAEXPAV1@@Z 1002099c f   qt-mt323:qt-mt323.dll
 0001:0001f9a2       ?reparent@QWidget@@UAEXPAV1@IABVQPoint@@_N@Z 100209a2 f   qt-mt323:qt-mt323.dll
 0001:0001f9a8       ?resize@QWidget@@UAEXHH@Z  100209a8 f   qt-mt323:qt-mt323.dll
 0001:0001f9ae       ?resizeEvent@QWidget@@MAEXPAVQResizeEvent@@@Z 100209ae f   qt-mt323:qt-mt323.dll
 0001:0001f9b4       ?resolution@QPaintDevice@@UBEHXZ 100209b4 f   qt-mt323:qt-mt323.dll
 0001:0001f9ba       ?setAcceptDrops@QWidget@@UAEX_N@Z 100209ba f   qt-mt323:qt-mt323.dll
 0001:0001f9c0       ?setActiveWindow@QWidget@@UAEXXZ 100209c0 f   qt-mt323:qt-mt323.dll
 0001:0001f9c6       ?setAutoMask@QWidget@@UAEX_N@Z 100209c6 f   qt-mt323:qt-mt323.dll
 0001:0001f9cc       ?setBackgroundColor@QWidget@@UAEXABVQColor@@@Z 100209cc f   qt-mt323:qt-mt323.dll
 0001:0001f9d2       ?setBackgroundOrigin@QWidget@@UAEXW4BackgroundOrigin@1@@Z 100209d2 f   qt-mt323:qt-mt323.dll
 0001:0001f9d8       ?setBackgroundPixmap@QWidget@@UAEXABVQPixmap@@@Z 100209d8 f   qt-mt323:qt-mt323.dll
 0001:0001f9de       ?setCursor@QWidget@@UAEXABVQCursor@@@Z 100209de f   qt-mt323:qt-mt323.dll
 0001:0001f9e4       ?setEnabled@QWidget@@UAEX_N@Z 100209e4 f   qt-mt323:qt-mt323.dll
 0001:0001f9ea       ?setEraseColor@QWidget@@UAEXABVQColor@@@Z 100209ea f   qt-mt323:qt-mt323.dll
 0001:0001f9f0       ?setErasePixmap@QWidget@@UAEXABVQPixmap@@@Z 100209f0 f   qt-mt323:qt-mt323.dll
 0001:0001f9f6       ?setFocus@QWidget@@UAEXXZ  100209f6 f   qt-mt323:qt-mt323.dll
 0001:0001f9fc       ?setFocusPolicy@QWidget@@UAEXW4FocusPolicy@1@@Z 100209fc f   qt-mt323:qt-mt323.dll
 0001:0001fa02       ?setFocusProxy@QWidget@@UAEXPAV1@@Z 10020a02 f   qt-mt323:qt-mt323.dll
 0001:0001fa08       ?setFont@QWidget@@UAEXABVQFont@@@Z 10020a08 f   qt-mt323:qt-mt323.dll
 0001:0001fa0e       ?setGeometry@QWidget@@UAEXABVQRect@@@Z 10020a0e f   qt-mt323:qt-mt323.dll
 0001:0001fa14       ?setGeometry@QWidget@@UAEXHHHH@Z 10020a14 f   qt-mt323:qt-mt323.dll
 0001:0001fa1a       ?setIcon@QWidget@@UAEXABVQPixmap@@@Z 10020a1a f   qt-mt323:qt-mt323.dll
 0001:0001fa20       ?setIconText@QWidget@@UAEXABVQString@@@Z 10020a20 f   qt-mt323:qt-mt323.dll
 0001:0001fa26       ?setKeyCompression@QWidget@@MAEX_N@Z 10020a26 f   qt-mt323:qt-mt323.dll
 0001:0001fa2c       ?setMask@QWidget@@UAEXABVQBitmap@@@Z 10020a2c f   qt-mt323:qt-mt323.dll
 0001:0001fa32       ?setMask@QWidget@@UAEXABVQRegion@@@Z 10020a32 f   qt-mt323:qt-mt323.dll
 0001:0001fa38       ?setMaximumSize@QWidget@@UAEXHH@Z 10020a38 f   qt-mt323:qt-mt323.dll
 0001:0001fa3e       ?setMicroFocusHint@QWidget@@MAEXHHHH_NPAVQFont@@@Z 10020a3e f   qt-mt323:qt-mt323.dll
 0001:0001fa44       ?setMinimumSize@QWidget@@UAEXHH@Z 10020a44 f   qt-mt323:qt-mt323.dll
 0001:0001fa4a       ?setMouseTracking@QWidget@@UAEX_N@Z 10020a4a f   qt-mt323:qt-mt323.dll
 0001:0001fa50       ?setName@QWidget@@UAEXPBD@Z 10020a50 f   qt-mt323:qt-mt323.dll
 0001:0001fa56       ?setPalette@QWidget@@UAEXABVQPalette@@@Z 10020a56 f   qt-mt323:qt-mt323.dll
 0001:0001fa5c       ?setPaletteBackgroundColor@QWidget@@UAEXABVQColor@@@Z 10020a5c f   qt-mt323:qt-mt323.dll
 0001:0001fa62       ?setPaletteBackgroundPixmap@QWidget@@UAEXABVQPixmap@@@Z 10020a62 f   qt-mt323:qt-mt323.dll
 0001:0001fa68       ?setProperty@QObject@@UAE_NPBDABVQVariant@@@Z 10020a68 f   qt-mt323:qt-mt323.dll
 0001:0001fa6e       ?setResolution@QPaintDevice@@UAEXH@Z 10020a6e f   qt-mt323:qt-mt323.dll
 0001:0001fa74       ?setSizeIncrement@QWidget@@UAEXHH@Z 10020a74 f   qt-mt323:qt-mt323.dll
 0001:0001fa7a       ?setSizePolicy@QWidget@@UAEXVQSizePolicy@@@Z 10020a7a f   qt-mt323:qt-mt323.dll
 0001:0001fa80       ?setUpdatesEnabled@QWidget@@UAEX_N@Z 10020a80 f   qt-mt323:qt-mt323.dll
 0001:0001fa86       ?setWFlags@QWidget@@MAEXI@Z 10020a86 f   qt-mt323:qt-mt323.dll
 0001:0001fa8c       ?setWState@QWidget@@MAEXI@Z 10020a8c f   qt-mt323:qt-mt323.dll
 0001:0001fa92       ?show@QWidget@@UAEXXZ      10020a92 f   qt-mt323:qt-mt323.dll
 0001:0001fa98       ?showEvent@QWidget@@MAEXPAVQShowEvent@@@Z 10020a98 f   qt-mt323:qt-mt323.dll
 0001:0001fa9e       ?showMaximized@QWidget@@UAEXXZ 10020a9e f   qt-mt323:qt-mt323.dll
 0001:0001faa4       ?showMinimized@QWidget@@UAEXXZ 10020aa4 f   qt-mt323:qt-mt323.dll
 0001:0001faaa       ?showNormal@QWidget@@UAEXXZ 10020aaa f   qt-mt323:qt-mt323.dll
 0001:0001fab0       ?sizeHint@QWidget@@UBE?AVQSize@@XZ 10020ab0 f   qt-mt323:qt-mt323.dll
 0001:0001fab6       ?sizePolicy@QWidget@@UBE?AVQSizePolicy@@XZ 10020ab6 f   qt-mt323:qt-mt323.dll
 0001:0001fabc       ?styleChange@QWidget@@MAEXAAVQStyle@@@Z 10020abc f   qt-mt323:qt-mt323.dll
 0001:0001fac2       ?tabletEvent@QWidget@@MAEXPAVQTabletEvent@@@Z 10020ac2 f   qt-mt323:qt-mt323.dll
 0001:0001fac8       ?timerEvent@QObject@@MAEXPAVQTimerEvent@@@Z 10020ac8 f   qt-mt323:qt-mt323.dll
 0001:0001face       ?unsetCursor@QWidget@@UAEXXZ 10020ace f   qt-mt323:qt-mt323.dll
 0001:0001fad4       ?updateMask@QWidget@@MAEXXZ 10020ad4 f   qt-mt323:qt-mt323.dll
 0001:0001fada       ?wheelEvent@QWidget@@MAEXPAVQWheelEvent@@@Z 10020ada f   qt-mt323:qt-mt323.dll
 0001:0001fae0       ?winEvent@QWidget@@MAE_NPAUtagMSG@@@Z 10020ae0 f   qt-mt323:qt-mt323.dll
 0001:0001fae6       ?windowActivationChange@QWidget@@MAEX_N@Z 10020ae6 f   qt-mt323:qt-mt323.dll
 0001:0001faec       ?write@QGList@@MBEAAVQDataStream@@AAV2@PAX@Z 10020aec f   qt-mt323:qt-mt323.dll
 0001:0001faf2       ?accept@QDialog@@MAEXXZ    10020af2 f   qt-mt323:qt-mt323.dll
 0001:0001faf8       ?closeEvent@QDialog@@MAEXPAVQCloseEvent@@@Z 10020af8 f   qt-mt323:qt-mt323.dll
 0001:0001fafe       ?contextMenuEvent@QDialog@@MAEXPAVQContextMenuEvent@@@Z 10020afe f   qt-mt323:qt-mt323.dll
 0001:0001fb04       ?done@QDialog@@MAEXH@Z     10020b04 f   qt-mt323:qt-mt323.dll
 0001:0001fb0a       ?eventFilter@QDialog@@MAE_NPAVQObject@@PAVQEvent@@@Z 10020b0a f   qt-mt323:qt-mt323.dll
 0001:0001fb10       ?hide@QDialog@@UAEXXZ      10020b10 f   qt-mt323:qt-mt323.dll
 0001:0001fb16       ?keyPressEvent@QDialog@@MAEXPAVQKeyEvent@@@Z 10020b16 f   qt-mt323:qt-mt323.dll
 0001:0001fb1c       ?minimumSizeHint@QDialog@@UBE?AVQSize@@XZ 10020b1c f   qt-mt323:qt-mt323.dll
 0001:0001fb22       ?mousePressEvent@QWidget@@MAEXPAVQMouseEvent@@@Z 10020b22 f   qt-mt323:qt-mt323.dll
 0001:0001fb28       ?mouseReleaseEvent@QWidget@@MAEXPAVQMouseEvent@@@Z 10020b28 f   qt-mt323:qt-mt323.dll
 0001:0001fb2e       ?move@QDialog@@UAEXHH@Z    10020b2e f   qt-mt323:qt-mt323.dll
 0001:0001fb34       ?paintEvent@QWidget@@MAEXPAVQPaintEvent@@@Z 10020b34 f   qt-mt323:qt-mt323.dll
 0001:0001fb3a       ?reject@QDialog@@MAEXXZ    10020b3a f   qt-mt323:qt-mt323.dll
 0001:0001fb40       ?resize@QDialog@@UAEXHH@Z  10020b40 f   qt-mt323:qt-mt323.dll
 0001:0001fb46       ?resizeEvent@QDialog@@MAEXPAVQResizeEvent@@@Z 10020b46 f   qt-mt323:qt-mt323.dll
 0001:0001fb4c       ?setCaption@QWidget@@UAEXABVQString@@@Z 10020b4c f   qt-mt323:qt-mt323.dll
 0001:0001fb52       ?setGeometry@QDialog@@UAEXABVQRect@@@Z 10020b52 f   qt-mt323:qt-mt323.dll
 0001:0001fb58       ?setGeometry@QDialog@@UAEXHHHH@Z 10020b58 f   qt-mt323:qt-mt323.dll
 0001:0001fb5e       ?show@QDialog@@UAEXXZ      10020b5e f   qt-mt323:qt-mt323.dll
 0001:0001fb64       ?sizeHint@QDialog@@UBE?AVQSize@@XZ 10020b64 f   qt-mt323:qt-mt323.dll
 0001:0001fb6a       ??1QDomNode@@UAE@XZ        10020b6a f   qt-mt323:qt-mt323.dll
 0001:0001fb70       ?firstChild@QDomNode@@UBE?AV1@XZ 10020b70 f   qt-mt323:qt-mt323.dll
 0001:0001fb76       ?nextSibling@QDomNode@@UBE?AV1@XZ 10020b76 f   qt-mt323:qt-mt323.dll
 0001:0001fb7c       ?isNull@QDomNode@@QBE_NXZ  10020b7c f   qt-mt323:qt-mt323.dll
 0001:0001fb82       ?toElement@QDomNode@@QAE?AVQDomElement@@XZ 10020b82 f   qt-mt323:qt-mt323.dll
 0001:0001fb88       ??1QDomDocument@@UAE@XZ    10020b88 f   qt-mt323:qt-mt323.dll
 0001:0001fb8e       ??1QDomElement@@UAE@XZ     10020b8e f   qt-mt323:qt-mt323.dll
 0001:0001fb94       ?attribute@QDomElement@@QBE?AVQString@@ABV2@0@Z 10020b94 f   qt-mt323:qt-mt323.dll
 0001:0001fb9a       ?setAttribute@QDomElement@@QAEXABVQString@@0@Z 10020b9a f   qt-mt323:qt-mt323.dll
 0001:0001fba0       ?tagName@QDomElement@@QBE?AVQString@@XZ 10020ba0 f   qt-mt323:qt-mt323.dll
 0001:0001fba6       ?appendChild@QDomNode@@UAE?AV1@ABV1@@Z 10020ba6 f   qt-mt323:qt-mt323.dll
 0001:0001fbac       ?attributes@QDomNode@@UBE?AVQDomNamedNodeMap@@XZ 10020bac f   qt-mt323:qt-mt323.dll
 0001:0001fbb2       ?childNodes@QDomNode@@UBE?AVQDomNodeList@@XZ 10020bb2 f   qt-mt323:qt-mt323.dll
 0001:0001fbb8       ?cloneNode@QDomNode@@UBE?AV1@_N@Z 10020bb8 f   qt-mt323:qt-mt323.dll
 0001:0001fbbe       ?hasAttributes@QDomNode@@UBE_NXZ 10020bbe f   qt-mt323:qt-mt323.dll
 0001:0001fbc4       ?hasChildNodes@QDomNode@@UBE_NXZ 10020bc4 f   qt-mt323:qt-mt323.dll
 0001:0001fbca       ?insertAfter@QDomNode@@UAE?AV1@ABV1@0@Z 10020bca f   qt-mt323:qt-mt323.dll
 0001:0001fbd0       ?insertBefore@QDomNode@@UAE?AV1@ABV1@0@Z 10020bd0 f   qt-mt323:qt-mt323.dll
 0001:0001fbd6       ?isAttr@QDomNode@@UBE_NXZ  10020bd6 f   qt-mt323:qt-mt323.dll
 0001:0001fbdc       ?isCDATASection@QDomNode@@UBE_NXZ 10020bdc f   qt-mt323:qt-mt323.dll
 0001:0001fbe2       ?isCharacterData@QDomNode@@UBE_NXZ 10020be2 f   qt-mt323:qt-mt323.dll
 0001:0001fbe8       ?isComment@QDomNode@@UBE_NXZ 10020be8 f   qt-mt323:qt-mt323.dll
 0001:0001fbee       ?isDocument@QDomDocument@@UBE_NXZ 10020bee f   qt-mt323:qt-mt323.dll
 0001:0001fbf4       ?isDocumentFragment@QDomNode@@UBE_NXZ 10020bf4 f   qt-mt323:qt-mt323.dll
 0001:0001fbfa       ?isDocumentType@QDomNode@@UBE_NXZ 10020bfa f   qt-mt323:qt-mt323.dll
 0001:0001fc00       ?isElement@QDomNode@@UBE_NXZ 10020c00 f   qt-mt323:qt-mt323.dll
 0001:0001fc06       ?isEntity@QDomNode@@UBE_NXZ 10020c06 f   qt-mt323:qt-mt323.dll
 0001:0001fc0c       ?isEntityReference@QDomNode@@UBE_NXZ 10020c0c f   qt-mt323:qt-mt323.dll
 0001:0001fc12       ?isNotation@QDomNode@@UBE_NXZ 10020c12 f   qt-mt323:qt-mt323.dll
 0001:0001fc18       ?isProcessingInstruction@QDomNode@@UBE_NXZ 10020c18 f   qt-mt323:qt-mt323.dll
 0001:0001fc1e       ?isSupported@QDomNode@@UBE_NABVQString@@0@Z 10020c1e f   qt-mt323:qt-mt323.dll
 0001:0001fc24       ?isText@QDomNode@@UBE_NXZ  10020c24 f   qt-mt323:qt-mt323.dll
 0001:0001fc2a       ?lastChild@QDomNode@@UBE?AV1@XZ 10020c2a f   qt-mt323:qt-mt323.dll
 0001:0001fc30       ?localName@QDomNode@@UBE?AVQString@@XZ 10020c30 f   qt-mt323:qt-mt323.dll
 0001:0001fc36       ?namespaceURI@QDomNode@@UBE?AVQString@@XZ 10020c36 f   qt-mt323:qt-mt323.dll
 0001:0001fc3c       ?nodeName@QDomNode@@UBE?AVQString@@XZ 10020c3c f   qt-mt323:qt-mt323.dll
 0001:0001fc42       ?nodeType@QDomDocument@@UBE?AW4NodeType@QDomNode@@XZ 10020c42 f   qt-mt323:qt-mt323.dll
 0001:0001fc48       ?nodeValue@QDomNode@@UBE?AVQString@@XZ 10020c48 f   qt-mt323:qt-mt323.dll
 0001:0001fc4e       ?normalize@QDomNode@@UAEXXZ 10020c4e f   qt-mt323:qt-mt323.dll
 0001:0001fc54       ?ownerDocument@QDomNode@@UBE?AVQDomDocument@@XZ 10020c54 f   qt-mt323:qt-mt323.dll
 0001:0001fc5a       ?parentNode@QDomNode@@UBE?AV1@XZ 10020c5a f   qt-mt323:qt-mt323.dll
 0001:0001fc60       ?prefix@QDomNode@@UBE?AVQString@@XZ 10020c60 f   qt-mt323:qt-mt323.dll
 0001:0001fc66       ?previousSibling@QDomNode@@UBE?AV1@XZ 10020c66 f   qt-mt323:qt-mt323.dll
 0001:0001fc6c       ?removeChild@QDomNode@@UAE?AV1@ABV1@@Z 10020c6c f   qt-mt323:qt-mt323.dll
 0001:0001fc72       ?replaceChild@QDomNode@@UAE?AV1@ABV1@0@Z 10020c72 f   qt-mt323:qt-mt323.dll
 0001:0001fc78       ?setNodeValue@QDomNode@@UAEXABVQString@@@Z 10020c78 f   qt-mt323:qt-mt323.dll
 0001:0001fc7e       ?setPrefix@QDomNode@@UAEXABVQString@@@Z 10020c7e f   qt-mt323:qt-mt323.dll
 0001:0001fc84       ?addChild@QScrollView@@UAEXPAVQWidget@@HH@Z 10020c84 f   qt-mt323:qt-mt323.dll
 0001:0001fc8a       ?addItem@QBoxLayout@@UAEXPAVQLayoutItem@@@Z 10020c8a f   qt-mt323:qt-mt323.dll
 0001:0001fc90       ?append@QTextEdit@@UAEXABVQString@@@Z 10020c90 f   qt-mt323:qt-mt323.dll
 0001:0001fc96       ?childEvent@QLayout@@MAEXPAVQChildEvent@@@Z 10020c96 f   qt-mt323:qt-mt323.dll
 0001:0001fc9c       ?className@QCheckBox@@UBEPBDXZ 10020c9c f   qt-mt323:qt-mt323.dll
 0001:0001fca2       ?className@QHBoxLayout@@UBEPBDXZ 10020ca2 f   qt-mt323:qt-mt323.dll
 0001:0001fca8       ?className@QPushButton@@UBEPBDXZ 10020ca8 f   qt-mt323:qt-mt323.dll
 0001:0001fcae       ?className@QTextEdit@@UBEPBDXZ 10020cae f   qt-mt323:qt-mt323.dll
 0001:0001fcb4       ?className@QVBoxLayout@@UBEPBDXZ 10020cb4 f   qt-mt323:qt-mt323.dll
 0001:0001fcba       ?clear@QTextEdit@@UAEXXZ   10020cba f   qt-mt323:qt-mt323.dll
 0001:0001fcc0       ?clearParagraphBackground@QTextEdit@@UAEXH@Z 10020cc0 f   qt-mt323:qt-mt323.dll
 0001:0001fcc6       ?contentsContextMenuEvent@QTextEdit@@MAEXPAVQContextMenuEvent@@@Z 10020cc6 f   qt-mt323:qt-mt323.dll
 0001:0001fccc       ?contentsDragEnterEvent@QTextEdit@@MAEXPAVQDragEnterEvent@@@Z 10020ccc f   qt-mt323:qt-mt323.dll
 0001:0001fcd2       ?contentsDragLeaveEvent@QTextEdit@@MAEXPAVQDragLeaveEvent@@@Z 10020cd2 f   qt-mt323:qt-mt323.dll
 0001:0001fcd8       ?contentsDragMoveEvent@QTextEdit@@MAEXPAVQDragMoveEvent@@@Z 10020cd8 f   qt-mt323:qt-mt323.dll
 0001:0001fcde       ?contentsDropEvent@QTextEdit@@MAEXPAVQDropEvent@@@Z 10020cde f   qt-mt323:qt-mt323.dll
 0001:0001fce4       ?contentsMouseDoubleClickEvent@QTextEdit@@MAEXPAVQMouseEvent@@@Z 10020ce4 f   qt-mt323:qt-mt323.dll
 0001:0001fcea       ?contentsMouseMoveEvent@QTextEdit@@MAEXPAVQMouseEvent@@@Z 10020cea f   qt-mt323:qt-mt323.dll
 0001:0001fcf0       ?contentsMousePressEvent@QTextEdit@@MAEXPAVQMouseEvent@@@Z 10020cf0 f   qt-mt323:qt-mt323.dll
 0001:0001fcf6       ?contentsMouseReleaseEvent@QTextEdit@@MAEXPAVQMouseEvent@@@Z 10020cf6 f   qt-mt323:qt-mt323.dll
 0001:0001fcfc       ?contentsWheelEvent@QTextEdit@@MAEXPAVQWheelEvent@@@Z 10020cfc f   qt-mt323:qt-mt323.dll
 0001:0001fd02       ?contextMenuEvent@QScrollView@@MAEXPAVQContextMenuEvent@@@Z 10020d02 f   qt-mt323:qt-mt323.dll
 0001:0001fd08       ?copy@QTextEdit@@UAEXXZ    10020d08 f   qt-mt323:qt-mt323.dll
 0001:0001fd0e       ?createPopupMenu@QTextEdit@@MAEPAVQPopupMenu@@ABVQPoint@@@Z 10020d0e f   qt-mt323:qt-mt323.dll
 0001:0001fd14       ?createPopupMenu@QTextEdit@@MAEPAVQPopupMenu@@XZ 10020d14 f   qt-mt323:qt-mt323.dll
 0001:0001fd1a       ?cut@QTextEdit@@UAEXXZ     10020d1a f   qt-mt323:qt-mt323.dll
 0001:0001fd20       ?del@QTextEdit@@UAEXXZ     10020d20 f   qt-mt323:qt-mt323.dll
 0001:0001fd26       ?doChangeInterval@QTextEdit@@MAEXXZ 10020d26 f   qt-mt323:qt-mt323.dll
 0001:0001fd2c       ?doKeyboardAction@QTextEdit@@UAEXW4KeyboardAction@1@@Z 10020d2c f   qt-mt323:qt-mt323.dll
 0001:0001fd32       ?drawButton@QCheckBox@@MAEXPAVQPainter@@@Z 10020d32 f   qt-mt323:qt-mt323.dll
 0001:0001fd38       ?drawButton@QPushButton@@MAEXPAVQPainter@@@Z 10020d38 f   qt-mt323:qt-mt323.dll
 0001:0001fd3e       ?drawButtonLabel@QCheckBox@@MAEXPAVQPainter@@@Z 10020d3e f   qt-mt323:qt-mt323.dll
 0001:0001fd44       ?drawButtonLabel@QPushButton@@MAEXPAVQPainter@@@Z 10020d44 f   qt-mt323:qt-mt323.dll
 0001:0001fd4a       ?drawContents@QTextEdit@@EAEXPAVQPainter@@@Z 10020d4a f   qt-mt323:qt-mt323.dll
 0001:0001fd50       ?drawContents@QTextEdit@@MAEXPAVQPainter@@HHHH@Z 10020d50 f   qt-mt323:qt-mt323.dll
 0001:0001fd56       ?drawContentsOffset@QScrollView@@MAEXPAVQPainter@@HHHHHH@Z 10020d56 f   qt-mt323:qt-mt323.dll
 0001:0001fd5c       ?drawFrame@QFrame@@MAEXPAVQPainter@@@Z 10020d5c f   qt-mt323:qt-mt323.dll
 0001:0001fd62       ?emitHighlighted@QTextEdit@@EAEXABVQString@@@Z 10020d62 f   qt-mt323:qt-mt323.dll
 0001:0001fd68       ?emitLinkClicked@QTextEdit@@EAEXABVQString@@@Z 10020d68 f   qt-mt323:qt-mt323.dll
 0001:0001fd6e       ?enabledChange@QButton@@MAEX_N@Z 10020d6e f   qt-mt323:qt-mt323.dll
 0001:0001fd74       ?ensureCursorVisible@QTextEdit@@UAEXXZ 10020d74 f   qt-mt323:qt-mt323.dll
 0001:0001fd7a       ?event@QObject@@UAE_NPAVQEvent@@@Z 10020d7a f   qt-mt323:qt-mt323.dll
 0001:0001fd80       ?event@QTextEdit@@MAE_NPAVQEvent@@@Z 10020d80 f   qt-mt323:qt-mt323.dll
 0001:0001fd86       ?eventFilter@QLayout@@MAE_NPAVQObject@@PAVQEvent@@@Z 10020d86 f   qt-mt323:qt-mt323.dll
 0001:0001fd8c       ?eventFilter@QTextEdit@@UAE_NPAVQObject@@PAVQEvent@@@Z 10020d8c f   qt-mt323:qt-mt323.dll
 0001:0001fd92       ?expanding@QBoxLayout@@UBE?AW4ExpandData@QSizePolicy@@XZ 10020d92 f   qt-mt323:qt-mt323.dll
 0001:0001fd98       ?expanding@QSpacerItem@@UBE?AW4ExpandData@QSizePolicy@@XZ 10020d98 f   qt-mt323:qt-mt323.dll
 0001:0001fd9e       ?find@QTextEdit@@UAE_NABVQString@@_N11PAH2@Z 10020d9e f   qt-mt323:qt-mt323.dll
 0001:0001fda4       ?focusInEvent@QButton@@MAEXPAVQFocusEvent@@@Z 10020da4 f   qt-mt323:qt-mt323.dll
 0001:0001fdaa       ?focusInEvent@QPushButton@@MAEXPAVQFocusEvent@@@Z 10020daa f   qt-mt323:qt-mt323.dll
 0001:0001fdb0       ?focusNextPrevChild@QTextEdit@@MAE_N_N@Z 10020db0 f   qt-mt323:qt-mt323.dll
 0001:0001fdb6       ?focusOutEvent@QButton@@MAEXPAVQFocusEvent@@@Z 10020db6 f   qt-mt323:qt-mt323.dll
 0001:0001fdbc       ?focusOutEvent@QPushButton@@MAEXPAVQFocusEvent@@@Z 10020dbc f   qt-mt323:qt-mt323.dll
 0001:0001fdc2       ?fontChange@QScrollView@@MAEXABVQFont@@@Z 10020dc2 f   qt-mt323:qt-mt323.dll
 0001:0001fdc8       ?frameChanged@QScrollView@@MAEXXZ 10020dc8 f   qt-mt323:qt-mt323.dll
 0001:0001fdce       ?geometry@QLayout@@UBE?AVQRect@@XZ 10020dce f   qt-mt323:qt-mt323.dll
 0001:0001fdd4       ?geometry@QSpacerItem@@UBE?AVQRect@@XZ 10020dd4 f   qt-mt323:qt-mt323.dll
 0001:0001fdda       ?getFormat@QTextEdit@@UAE_NHHPAVQFont@@PAVQColor@@PAW4VerticalAlignment@1@@Z 10020dda f   qt-mt323:qt-mt323.dll
 0001:0001fde0       ?getParagraphFormat@QTextEdit@@UAE_NHPAVQFont@@PAVQColor@@PAW4VerticalAlignment@1@PAHPAW4DisplayMode@QStyleSheetItem@@PAW4ListStyle@6@3@Z 10020de0 f   qt-mt323:qt-mt323.dll
 0001:0001fde6       ?hasHeightForWidth@QBoxLayout@@UBE_NXZ 10020de6 f   qt-mt323:qt-mt323.dll
 0001:0001fdec       ?hasHeightForWidth@QLayoutItem@@UBE_NXZ 10020dec f   qt-mt323:qt-mt323.dll
 0001:0001fdf2       ?heightForWidth@QBoxLayout@@UBEHH@Z 10020df2 f   qt-mt323:qt-mt323.dll
 0001:0001fdf8       ?heightForWidth@QLayoutItem@@UBEHH@Z 10020df8 f   qt-mt323:qt-mt323.dll
 0001:0001fdfe       ?heightForWidth@QTextEdit@@UBEHH@Z 10020dfe f   qt-mt323:qt-mt323.dll
 0001:0001fe04       ?hitButton@QButton@@MBE_NABVQPoint@@@Z 10020e04 f   qt-mt323:qt-mt323.dll
 0001:0001fe0a       ?hitButton@QCheckBox@@MBE_NABVQPoint@@@Z 10020e0a f   qt-mt323:qt-mt323.dll
 0001:0001fe10       ?imComposeEvent@QTextEdit@@MAEXPAVQIMEvent@@@Z 10020e10 f   qt-mt323:qt-mt323.dll
 0001:0001fe16       ?imEndEvent@QTextEdit@@MAEXPAVQIMEvent@@@Z 10020e16 f   qt-mt323:qt-mt323.dll
 0001:0001fe1c       ?imStartEvent@QTextEdit@@MAEXPAVQIMEvent@@@Z 10020e1c f   qt-mt323:qt-mt323.dll
 0001:0001fe22       ?indent@QTextEdit@@UAEXXZ  10020e22 f   qt-mt323:qt-mt323.dll
 0001:0001fe28       ?insert@QTextEdit@@UAEXABVQString@@_N11@Z 10020e28 f   qt-mt323:qt-mt323.dll
 0001:0001fe2e       ?insertAt@QTextEdit@@UAEXABVQString@@HH@Z 10020e2e f   qt-mt323:qt-mt323.dll
 0001:0001fe34       ?insertParagraph@QTextEdit@@UAEXABVQString@@H@Z 10020e34 f   qt-mt323:qt-mt323.dll
 0001:0001fe3a       ?invalidate@QBoxLayout@@UAEXXZ 10020e3a f   qt-mt323:qt-mt323.dll
 0001:0001fe40       ?invalidate@QLayoutItem@@UAEXXZ 10020e40 f   qt-mt323:qt-mt323.dll
 0001:0001fe46       ?isEmpty@QLayout@@UBE_NXZ  10020e46 f   qt-mt323:qt-mt323.dll
 0001:0001fe4c       ?isEmpty@QSpacerItem@@UBE_NXZ 10020e4c f   qt-mt323:qt-mt323.dll
 0001:0001fe52       ?iterator@QBoxLayout@@UAE?AVQLayoutIterator@@XZ 10020e52 f   qt-mt323:qt-mt323.dll
 0001:0001fe58       ?iterator@QLayoutItem@@UAE?AVQLayoutIterator@@XZ 10020e58 f   qt-mt323:qt-mt323.dll
 0001:0001fe5e       ?keyPressEvent@QButton@@MAEXPAVQKeyEvent@@@Z 10020e5e f   qt-mt323:qt-mt323.dll
 0001:0001fe64       ?keyPressEvent@QTextEdit@@MAEXPAVQKeyEvent@@@Z 10020e64 f   qt-mt323:qt-mt323.dll
 0001:0001fe6a       ?keyReleaseEvent@QButton@@MAEXPAVQKeyEvent@@@Z 10020e6a f   qt-mt323:qt-mt323.dll
 0001:0001fe70       ?layout@QLayout@@UAEPAV1@XZ 10020e70 f   qt-mt323:qt-mt323.dll
 0001:0001fe76       ?layout@QLayoutItem@@UAEPAVQLayout@@XZ 10020e76 f   qt-mt323:qt-mt323.dll
 0001:0001fe7c       ?linksEnabled@QTextEdit@@EBE_NXZ 10020e7c f   qt-mt323:qt-mt323.dll
 0001:0001fe82       ?maximumSize@QBoxLayout@@UBE?AVQSize@@XZ 10020e82 f   qt-mt323:qt-mt323.dll
 0001:0001fe88       ?maximumSize@QSpacerItem@@UBE?AVQSize@@XZ 10020e88 f   qt-mt323:qt-mt323.dll
 0001:0001fe8e       ?metaObject@QCheckBox@@UBEPAVQMetaObject@@XZ 10020e8e f   qt-mt323:qt-mt323.dll
 0001:0001fe94       ?metaObject@QHBoxLayout@@UBEPAVQMetaObject@@XZ 10020e94 f   qt-mt323:qt-mt323.dll
 0001:0001fe9a       ?metaObject@QPushButton@@UBEPAVQMetaObject@@XZ 10020e9a f   qt-mt323:qt-mt323.dll
 0001:0001fea0       ?metaObject@QTextEdit@@UBEPAVQMetaObject@@XZ 10020ea0 f   qt-mt323:qt-mt323.dll
 0001:0001fea6       ?metaObject@QVBoxLayout@@UBEPAVQMetaObject@@XZ 10020ea6 f   qt-mt323:qt-mt323.dll
 0001:0001feac       ?minimumSize@QBoxLayout@@UBE?AVQSize@@XZ 10020eac f   qt-mt323:qt-mt323.dll
 0001:0001feb2       ?minimumSize@QSpacerItem@@UBE?AVQSize@@XZ 10020eb2 f   qt-mt323:qt-mt323.dll
 0001:0001feb8       ?minimumSizeHint@QScrollView@@UBE?AVQSize@@XZ 10020eb8 f   qt-mt323:qt-mt323.dll
 0001:0001febe       ?mouseDoubleClickEvent@QScrollView@@MAEXPAVQMouseEvent@@@Z 10020ebe f   qt-mt323:qt-mt323.dll
 0001:0001fec4       ?mouseMoveEvent@QButton@@MAEXPAVQMouseEvent@@@Z 10020ec4 f   qt-mt323:qt-mt323.dll
 0001:0001feca       ?mouseMoveEvent@QScrollView@@MAEXPAVQMouseEvent@@@Z 10020eca f   qt-mt323:qt-mt323.dll
 0001:0001fed0       ?mousePressEvent@QButton@@MAEXPAVQMouseEvent@@@Z 10020ed0 f   qt-mt323:qt-mt323.dll
 0001:0001fed6       ?mousePressEvent@QScrollView@@MAEXPAVQMouseEvent@@@Z 10020ed6 f   qt-mt323:qt-mt323.dll
 0001:0001fedc       ?mouseReleaseEvent@QButton@@MAEXPAVQMouseEvent@@@Z 10020edc f   qt-mt323:qt-mt323.dll
 0001:0001fee2       ?mouseReleaseEvent@QScrollView@@MAEXPAVQMouseEvent@@@Z 10020ee2 f   qt-mt323:qt-mt323.dll
 0001:0001fee8       ?move@QPushButton@@UAEXHH@Z 10020ee8 f   qt-mt323:qt-mt323.dll
 0001:0001feee       ?moveChild@QScrollView@@UAEXPAVQWidget@@HH@Z 10020eee f   qt-mt323:qt-mt323.dll
 0001:0001fef4       ?moveCursor@QTextEdit@@UAEXW4CursorAction@1@_N@Z 10020ef4 f   qt-mt323:qt-mt323.dll
 0001:0001fefa       ?paintEvent@QButton@@MAEXPAVQPaintEvent@@@Z 10020efa f   qt-mt323:qt-mt323.dll
 0001:0001ff00       ?paintEvent@QFrame@@MAEXPAVQPaintEvent@@@Z 10020f00 f   qt-mt323:qt-mt323.dll
 0001:0001ff06       ?paste@QTextEdit@@UAEXXZ   10020f06 f   qt-mt323:qt-mt323.dll
 0001:0001ff0c       ?pasteSubType@QTextEdit@@UAEXABVQCString@@@Z 10020f0c f   qt-mt323:qt-mt323.dll
 0001:0001ff12       ?placeCursor@QTextEdit@@UAEXABVQPoint@@PAVQTextCursor@@@Z 10020f12 f   qt-mt323:qt-mt323.dll
 0001:0001ff18       ?polish@QTextEdit@@UAEXXZ  10020f18 f   qt-mt323:qt-mt323.dll
 0001:0001ff1e       ?qt_cast@QCheckBox@@UAEPAXPBD@Z 10020f1e f   qt-mt323:qt-mt323.dll
 0001:0001ff24       ?qt_cast@QHBoxLayout@@UAEPAXPBD@Z 10020f24 f   qt-mt323:qt-mt323.dll
 0001:0001ff2a       ?qt_cast@QPushButton@@UAEPAXPBD@Z 10020f2a f   qt-mt323:qt-mt323.dll
 0001:0001ff30       ?qt_cast@QTextEdit@@UAEPAXPBD@Z 10020f30 f   qt-mt323:qt-mt323.dll
 0001:0001ff36       ?qt_cast@QVBoxLayout@@UAEPAXPBD@Z 10020f36 f   qt-mt323:qt-mt323.dll
 0001:0001ff3c       ?qt_emit@QCheckBox@@UAE_NHPAUQUObject@@@Z 10020f3c f   qt-mt323:qt-mt323.dll
 0001:0001ff42       ?qt_emit@QHBoxLayout@@UAE_NHPAUQUObject@@@Z 10020f42 f   qt-mt323:qt-mt323.dll
 0001:0001ff48       ?qt_emit@QPushButton@@UAE_NHPAUQUObject@@@Z 10020f48 f   qt-mt323:qt-mt323.dll
 0001:0001ff4e       ?qt_emit@QTextEdit@@UAE_NHPAUQUObject@@@Z 10020f4e f   qt-mt323:qt-mt323.dll
 0001:0001ff54       ?qt_emit@QVBoxLayout@@UAE_NHPAUQUObject@@@Z 10020f54 f   qt-mt323:qt-mt323.dll
 0001:0001ff5a       ?qt_invoke@QCheckBox@@UAE_NHPAUQUObject@@@Z 10020f5a f   qt-mt323:qt-mt323.dll
 0001:0001ff60       ?qt_invoke@QHBoxLayout@@UAE_NHPAUQUObject@@@Z 10020f60 f   qt-mt323:qt-mt323.dll
 0001:0001ff66       ?qt_invoke@QPushButton@@UAE_NHPAUQUObject@@@Z 10020f66 f   qt-mt323:qt-mt323.dll
 0001:0001ff6c       ?qt_invoke@QTextEdit@@UAE_NHPAUQUObject@@@Z 10020f6c f   qt-mt323:qt-mt323.dll
 0001:0001ff72       ?qt_invoke@QVBoxLayout@@UAE_NHPAUQUObject@@@Z 10020f72 f   qt-mt323:qt-mt323.dll
 0001:0001ff78       ?qt_property@QCheckBox@@UAE_NHHPAVQVariant@@@Z 10020f78 f   qt-mt323:qt-mt323.dll
 0001:0001ff7e       ?qt_property@QHBoxLayout@@UAE_NHHPAVQVariant@@@Z 10020f7e f   qt-mt323:qt-mt323.dll
 0001:0001ff84       ?qt_property@QPushButton@@UAE_NHHPAVQVariant@@@Z 10020f84 f   qt-mt323:qt-mt323.dll
 0001:0001ff8a       ?qt_property@QTextEdit@@UAE_NHHPAVQVariant@@@Z 10020f8a f   qt-mt323:qt-mt323.dll
 0001:0001ff90       ?qt_property@QVBoxLayout@@UAE_NHHPAVQVariant@@@Z 10020f90 f   qt-mt323:qt-mt323.dll
 0001:0001ff96       ?redo@QTextEdit@@UAEXXZ    10020f96 f   qt-mt323:qt-mt323.dll
 0001:0001ff9c       ?removeChild@QScrollView@@UAEXPAVQObject@@@Z 10020f9c f   qt-mt323:qt-mt323.dll
 0001:0001ffa2       ?removeParagraph@QTextEdit@@UAEXH@Z 10020fa2 f   qt-mt323:qt-mt323.dll
 0001:0001ffa8       ?removeSelectedText@QTextEdit@@UAEXH@Z 10020fa8 f   qt-mt323:qt-mt323.dll
 0001:0001ffae       ?removeSelection@QTextEdit@@UAEXH@Z 10020fae f   qt-mt323:qt-mt323.dll
 0001:0001ffb4       ?resetFormat@QTextEdit@@UAEXXZ 10020fb4 f   qt-mt323:qt-mt323.dll
 0001:0001ffba       ?resize@QPushButton@@UAEXHH@Z 10020fba f   qt-mt323:qt-mt323.dll
 0001:0001ffc0       ?resize@QScrollView@@UAEXHH@Z 10020fc0 f   qt-mt323:qt-mt323.dll
 0001:0001ffc6       ?resizeContents@QScrollView@@UAEXHH@Z 10020fc6 f   qt-mt323:qt-mt323.dll
 0001:0001ffcc       ?resizeEvent@QCheckBox@@MAEXPAVQResizeEvent@@@Z 10020fcc f   qt-mt323:qt-mt323.dll
 0001:0001ffd2       ?resizeEvent@QPushButton@@MAEXPAVQResizeEvent@@@Z 10020fd2 f   qt-mt323:qt-mt323.dll
 0001:0001ffd8       ?resizeEvent@QTextEdit@@MAEXPAVQResizeEvent@@@Z 10020fd8 f   qt-mt323:qt-mt323.dll
 0001:0001ffde       ?scrollToAnchor@QTextEdit@@UAEXABVQString@@@Z 10020fde f   qt-mt323:qt-mt323.dll
 0001:0001ffe4       ?scrollToBottom@QTextEdit@@UAEXXZ 10020fe4 f   qt-mt323:qt-mt323.dll
 0001:0001ffea       ?selectAll@QTextEdit@@UAEX_N@Z 10020fea f   qt-mt323:qt-mt323.dll
 0001:0001fff0       ?setAccel@QButton@@UAEXABVQKeySequence@@@Z 10020ff0 f   qt-mt323:qt-mt323.dll
 0001:0001fff6       ?setAlignment@QLayoutItem@@UAEXH@Z 10020ff6 f   qt-mt323:qt-mt323.dll
 0001:0001fffe       ?setAlignment@QTextEdit@@UAEXH@Z 10020ffe f   qt-mt323:qt-mt323.dll
 0001:00020004       ?setAutoAdd@QLayout@@UAEX_N@Z 10021004 f   qt-mt323:qt-mt323.dll
 0001:0002000a       ?setAutoDefault@QPushButton@@UAEX_N@Z 1002100a f   qt-mt323:qt-mt323.dll
 0001:00020010       ?setAutoRepeat@QButton@@UAEX_N@Z 10021010 f   qt-mt323:qt-mt323.dll
 0001:00020016       ?setBold@QTextEdit@@UAEX_N@Z 10021016 f   qt-mt323:qt-mt323.dll
 0001:0002001c       ?setColor@QTextEdit@@UAEXABVQColor@@@Z 1002101c f   qt-mt323:qt-mt323.dll
 0001:00020022       ?setContentsPos@QScrollView@@UAEXHH@Z 10021022 f   qt-mt323:qt-mt323.dll
 0001:00020028       ?setCornerWidget@QScrollView@@UAEXPAVQWidget@@@Z 10021028 f   qt-mt323:qt-mt323.dll
 0001:0002002e       ?setCurrentFont@QTextEdit@@UAEXABVQFont@@@Z 1002102e f   qt-mt323:qt-mt323.dll
 0001:00020034       ?setCursorPosition@QTextEdit@@UAEXHH@Z 10021034 f   qt-mt323:qt-mt323.dll
 0001:0002003a       ?setDefault@QPushButton@@UAEX_N@Z 1002103a f   qt-mt323:qt-mt323.dll
 0001:00020040       ?setDown@QButton@@UAEX_N@Z 10021040 f   qt-mt323:qt-mt323.dll
 0001:00020046       ?setDragAutoScroll@QScrollView@@UAEX_N@Z 10021046 f   qt-mt323:qt-mt323.dll
 0001:0002004c       ?setEnabled@QTextEdit@@UAEX_N@Z 1002104c f   qt-mt323:qt-mt323.dll
 0001:00020052       ?setFamily@QTextEdit@@UAEXABVQString@@@Z 10021052 f   qt-mt323:qt-mt323.dll
 0001:00020058       ?setFont@QTextEdit@@UAEXABVQFont@@@Z 10021058 f   qt-mt323:qt-mt323.dll
 0001:0002005e       ?setFormat@QTextEdit@@UAEXPAVQTextFormat@@H@Z 1002105e f   qt-mt323:qt-mt323.dll
 0001:00020064       ?setFrameRect@QFrame@@UAEXABVQRect@@@Z 10021064 f   qt-mt323:qt-mt323.dll
 0001:0002006a       ?setFrameStyle@QFrame@@UAEXH@Z 1002106a f   qt-mt323:qt-mt323.dll
 0001:00020070       ?setGeometry@QBoxLayout@@UAEXABVQRect@@@Z 10021070 f   qt-mt323:qt-mt323.dll
 0001:00020076       ?setGeometry@QPushButton@@UAEXABVQRect@@@Z 10021076 f   qt-mt323:qt-mt323.dll
 0001:0002007c       ?setGeometry@QPushButton@@UAEXHHHH@Z 1002107c f   qt-mt323:qt-mt323.dll
 0001:00020082       ?setGeometry@QSpacerItem@@UAEXABVQRect@@@Z 10021082 f   qt-mt323:qt-mt323.dll
 0001:00020088       ?setGroup@QButton@@EAEXPAVQButtonGroup@@@Z 10021088 f   qt-mt323:qt-mt323.dll
 0001:0002008e       ?setHBarGeometry@QScrollView@@MAEXAAVQScrollBar@@HHHH@Z 1002108e f   qt-mt323:qt-mt323.dll
 0001:00020094       ?setHScrollBarMode@QScrollView@@UAEXW4ScrollBarMode@1@@Z 10021094 f   qt-mt323:qt-mt323.dll
 0001:0002009a       ?setIsMenuButton@QPushButton@@UAEX_N@Z 1002109a f   qt-mt323:qt-mt323.dll
 0001:000200a0       ?setItalic@QTextEdit@@UAEX_N@Z 100210a0 f   qt-mt323:qt-mt323.dll
 0001:000200a6       ?setLineWidth@QFrame@@UAEXH@Z 100210a6 f   qt-mt323:qt-mt323.dll
 0001:000200ac       ?setLinkUnderline@QTextEdit@@UAEX_N@Z 100210ac f   qt-mt323:qt-mt323.dll
 0001:000200b2       ?setMargin@QFrame@@UAEXH@Z 100210b2 f   qt-mt323:qt-mt323.dll
 0001:000200b8       ?setMargin@QLayout@@UAEXH@Z 100210b8 f   qt-mt323:qt-mt323.dll
 0001:000200be       ?setMargins@QScrollView@@MAEXHHHH@Z 100210be f   qt-mt323:qt-mt323.dll
 0001:000200c4       ?setMenuBar@QLayout@@UAEXPAVQMenuBar@@@Z 100210c4 f   qt-mt323:qt-mt323.dll
 0001:000200ca       ?setMidLineWidth@QFrame@@UAEXH@Z 100210ca f   qt-mt323:qt-mt323.dll
 0001:000200d0       ?setMimeSourceFactory@QTextEdit@@UAEXPAVQMimeSourceFactory@@@Z 100210d0 f   qt-mt323:qt-mt323.dll
 0001:000200d6       ?setModified@QTextEdit@@UAEX_N@Z 100210d6 f   qt-mt323:qt-mt323.dll
 0001:000200dc       ?setName@QObject@@UAEXPBD@Z 100210dc f   qt-mt323:qt-mt323.dll
 0001:000200e2       ?setOn@QPushButton@@UAEX_N@Z 100210e2 f   qt-mt323:qt-mt323.dll
 0001:000200e8       ?setOverwriteMode@QTextEdit@@UAEX_N@Z 100210e8 f   qt-mt323:qt-mt323.dll
 0001:000200ee       ?setPalette@QTextEdit@@UAEXABVQPalette@@@Z 100210ee f   qt-mt323:qt-mt323.dll
 0001:000200f4       ?setPaper@QTextEdit@@UAEXABVQBrush@@@Z 100210f4 f   qt-mt323:qt-mt323.dll
 0001:000200fa       ?setParagType@QTextEdit@@UAEXW4DisplayMode@QStyleSheetItem@@W4ListStyle@3@@Z 100210fa f   qt-mt323:qt-mt323.dll
 0001:00020100       ?setParagraphBackgroundColor@QTextEdit@@UAEXHABVQColor@@@Z 10021100 f   qt-mt323:qt-mt323.dll
 0001:00020106       ?setPixmap@QButton@@UAEXABVQPixmap@@@Z 10021106 f   qt-mt323:qt-mt323.dll
 0001:0002010c       ?setPointSize@QTextEdit@@UAEXH@Z 1002110c f   qt-mt323:qt-mt323.dll
 0001:00020112       ?setReadOnly@QTextEdit@@UAEX_N@Z 10021112 f   qt-mt323:qt-mt323.dll
 0001:00020118       ?setResizePolicy@QScrollView@@UAEXW4ResizePolicy@1@@Z 10021118 f   qt-mt323:qt-mt323.dll
 0001:0002011e       ?setSelection@QTextEdit@@UAEXHHHHH@Z 1002111e f   qt-mt323:qt-mt323.dll
 0001:00020124       ?setSelectionAttributes@QTextEdit@@UAEXHABVQColor@@_N@Z 10021124 f   qt-mt323:qt-mt323.dll
 0001:0002012a       ?setSpacing@QLayout@@UAEXH@Z 1002112a f   qt-mt323:qt-mt323.dll
 0001:00020130       ?setState@QButton@@MAEXW4ToggleState@1@@Z 10021130 f   qt-mt323:qt-mt323.dll
 0001:00020136       ?setStyleSheet@QTextEdit@@UAEXPAVQStyleSheet@@@Z 10021136 f   qt-mt323:qt-mt323.dll
 0001:0002013c       ?setTabStopWidth@QTextEdit@@UAEXH@Z 1002113c f   qt-mt323:qt-mt323.dll
 0001:00020142       ?setText@QButton@@UAEXABVQString@@@Z 10021142 f   qt-mt323:qt-mt323.dll
 0001:00020148       ?setText@QTextEdit@@UAEXABVQString@@0@Z 10021148 f   qt-mt323:qt-mt323.dll
 0001:0002014e       ?setTextFormat@QTextEdit@@UAEXW4TextFormat@Qt@@@Z 1002114e f   qt-mt323:qt-mt323.dll
 0001:00020154       ?setToggleType@QButton@@MAEXW4ToggleType@1@@Z 10021154 f   qt-mt323:qt-mt323.dll
 0001:0002015a       ?setUnderline@QTextEdit@@UAEX_N@Z 1002115a f   qt-mt323:qt-mt323.dll
 0001:00020160       ?setUndoDepth@QTextEdit@@UAEXH@Z 10021160 f   qt-mt323:qt-mt323.dll
 0001:00020166       ?setUndoRedoEnabled@QTextEdit@@UAEX_N@Z 10021166 f   qt-mt323:qt-mt323.dll
 0001:0002016c       ?setVBarGeometry@QScrollView@@MAEXAAVQScrollBar@@HHHH@Z 1002116c f   qt-mt323:qt-mt323.dll
 0001:00020172       ?setVScrollBarMode@QScrollView@@UAEXW4ScrollBarMode@1@@Z 10021172 f   qt-mt323:qt-mt323.dll
 0001:00020178       ?setVerticalAlignment@QTextEdit@@UAEXW4VerticalAlignment@1@@Z 10021178 f   qt-mt323:qt-mt323.dll
 0001:0002017e       ?setWordWrap@QTextEdit@@UAEXW4WordWrap@1@@Z 1002117e f   qt-mt323:qt-mt323.dll
 0001:00020184       ?setWrapColumnOrWidth@QTextEdit@@UAEXH@Z 10021184 f   qt-mt323:qt-mt323.dll
 0001:0002018a       ?setWrapPolicy@QTextEdit@@UAEXW4WrapPolicy@1@@Z 1002118a f   qt-mt323:qt-mt323.dll
 0001:00020190       ?show@QScrollView@@UAEXXZ  10021190 f   qt-mt323:qt-mt323.dll
 0001:00020196       ?sizeHint@QBoxLayout@@UBE?AVQSize@@XZ 10021196 f   qt-mt323:qt-mt323.dll
 0001:0002019c       ?sizeHint@QCheckBox@@UBE?AVQSize@@XZ 1002119c f   qt-mt323:qt-mt323.dll
 0001:000201a2       ?sizeHint@QPushButton@@UBE?AVQSize@@XZ 100211a2 f   qt-mt323:qt-mt323.dll
 0001:000201a8       ?sizeHint@QSpacerItem@@UBE?AVQSize@@XZ 100211a8 f   qt-mt323:qt-mt323.dll
 0001:000201ae       ?sizeHint@QTextEdit@@UBE?AVQSize@@XZ 100211ae f   qt-mt323:qt-mt323.dll
 0001:000201b4       ?spacerItem@QLayoutItem@@UAEPAVQSpacerItem@@XZ 100211b4 f   qt-mt323:qt-mt323.dll
 0001:000201ba       ?spacerItem@QSpacerItem@@UAEPAV1@XZ 100211ba f   qt-mt323:qt-mt323.dll
 0001:000201c0       ?styleChange@QScrollView@@UAEXAAVQStyle@@@Z 100211c0 f   qt-mt323:qt-mt323.dll
 0001:000201c6       ?sync@QTextEdit@@UAEXXZ    100211c6 f   qt-mt323:qt-mt323.dll
 0001:000201cc       ?undo@QTextEdit@@UAEXXZ    100211cc f   qt-mt323:qt-mt323.dll
 0001:000201d2       ?updateMask@QCheckBox@@MAEXXZ 100211d2 f   qt-mt323:qt-mt323.dll
 0001:000201d8       ?updateMask@QPushButton@@MAEXXZ 100211d8 f   qt-mt323:qt-mt323.dll
 0001:000201de       ?viewportContextMenuEvent@QScrollView@@MAEXPAVQContextMenuEvent@@@Z 100211de f   qt-mt323:qt-mt323.dll
 0001:000201e4       ?viewportDragEnterEvent@QScrollView@@MAEXPAVQDragEnterEvent@@@Z 100211e4 f   qt-mt323:qt-mt323.dll
 0001:000201ea       ?viewportDragLeaveEvent@QScrollView@@MAEXPAVQDragLeaveEvent@@@Z 100211ea f   qt-mt323:qt-mt323.dll
 0001:000201f0       ?viewportDragMoveEvent@QScrollView@@MAEXPAVQDragMoveEvent@@@Z 100211f0 f   qt-mt323:qt-mt323.dll
 0001:000201f6       ?viewportDropEvent@QScrollView@@MAEXPAVQDropEvent@@@Z 100211f6 f   qt-mt323:qt-mt323.dll
 0001:000201fc       ?viewportMouseDoubleClickEvent@QScrollView@@MAEXPAVQMouseEvent@@@Z 100211fc f   qt-mt323:qt-mt323.dll
 0001:00020202       ?viewportMouseMoveEvent@QScrollView@@MAEXPAVQMouseEvent@@@Z 10021202 f   qt-mt323:qt-mt323.dll
 0001:00020208       ?viewportMousePressEvent@QScrollView@@MAEXPAVQMouseEvent@@@Z 10021208 f   qt-mt323:qt-mt323.dll
 0001:0002020e       ?viewportMouseReleaseEvent@QScrollView@@MAEXPAVQMouseEvent@@@Z 1002120e f   qt-mt323:qt-mt323.dll
 0001:00020214       ?viewportPaintEvent@QScrollView@@MAEXPAVQPaintEvent@@@Z 10021214 f   qt-mt323:qt-mt323.dll
 0001:0002021a       ?viewportResizeEvent@QTextEdit@@MAEXPAVQResizeEvent@@@Z 1002121a f   qt-mt323:qt-mt323.dll
 0001:00020220       ?viewportWheelEvent@QScrollView@@MAEXPAVQWheelEvent@@@Z 10021220 f   qt-mt323:qt-mt323.dll
 0001:00020226       ?wheelEvent@QScrollView@@MAEXPAVQWheelEvent@@@Z 10021226 f   qt-mt323:qt-mt323.dll
 0001:0002022c       ?widget@QLayoutItem@@UAEPAVQWidget@@XZ 1002122c f   qt-mt323:qt-mt323.dll
 0001:00020232       ?windowActivationChange@QTextEdit@@MAEX_N@Z 10021232 f   qt-mt323:qt-mt323.dll
 0001:00020238       ?zoomIn@QTextEdit@@UAEXH@Z 10021238 f   qt-mt323:qt-mt323.dll
 0001:0002023e       ?zoomIn@QTextEdit@@UAEXXZ  1002123e f   qt-mt323:qt-mt323.dll
 0001:00020244       ?zoomOut@QTextEdit@@UAEXH@Z 10021244 f   qt-mt323:qt-mt323.dll
 0001:0002024a       ?zoomOut@QTextEdit@@UAEXXZ 1002124a f   qt-mt323:qt-mt323.dll
 0001:00020250       ?zoomTo@QTextEdit@@UAEXH@Z 10021250 f   qt-mt323:qt-mt323.dll
 0001:00020256       ?qt_cast@QWidget@@UAEPAXPBD@Z 10021256 f   qt-mt323:qt-mt323.dll
 0001:0002025c       ?qt_invoke@QWidget@@UAE_NHPAUQUObject@@@Z 1002125c f   qt-mt323:qt-mt323.dll
 0001:00020262       ?qt_emit@QWidget@@UAE_NHPAUQUObject@@@Z 10021262 f   qt-mt323:qt-mt323.dll
 0001:00020268       ?qt_property@QWidget@@UAE_NHHPAVQVariant@@@Z 10021268 f   qt-mt323:qt-mt323.dll
 0001:0002026e       ?qt_cast@QDialog@@UAEPAXPBD@Z 1002126e f   qt-mt323:qt-mt323.dll
 0001:00020274       ?qt_invoke@QDialog@@UAE_NHPAUQUObject@@@Z 10021274 f   qt-mt323:qt-mt323.dll
 0001:0002027a       ?qt_emit@QDialog@@UAE_NHPAUQUObject@@@Z 1002127a f   qt-mt323:qt-mt323.dll
 0001:00020280       ?qt_property@QDialog@@UAE_NHHPAVQVariant@@@Z 10021280 f   qt-mt323:qt-mt323.dll
 0001:00020286       ??_M@YGXPAXIHP6EX0@Z@Z     10021286 f   MSVCRT:ehvecdtr.obj
 0001:000202f5       ?__ArrayUnwind@@YGXPAXIHP6EX0@Z@Z 100212f5 f   MSVCRT:ehvecdtr.obj
 0001:00020354       __purecall                 10021354 f   MSVCRT:MSVCR120.dll
 0001:0002035a       ??2@YAPAXI@Z               1002135a f   MSVCRT:MSVCR120.dll
 0001:00020360       ??3@YAXPAX@Z               10021360 f   MSVCRT:MSVCR120.dll
 0001:00020366       ___atonexitinit            10021366 f   MSVCRT:atonexit.obj
 0001:000203a2       __onexit                   100213a2 f   MSVCRT:atonexit.obj
 0001:0002044b       _atexit                    1002144b f   MSVCRT:atonexit.obj
 0001:00020460       ??_V@YAXPAX@Z              10021460 f   MSVCRT:MSVCR120.dll
 0001:00020466       @__security_check_cookie@4 10021466 f   MSVCRT:secchk.obj
 0001:00020476       __CxxThrowException@8      10021476 f   MSVCRT:MSVCR120.dll
 0001:0002047c       ___CxxFrameHandler3        1002147c f   MSVCRT:MSVCR120.dll
 0001:00020482       _memcpy                    10021482 f   MSVCRT:MSVCR120.dll
 0001:00020488       ??_Etype_info@@UAEPAXI@Z   10021488 f i MSVCRT:ti_inst.obj
 0001:000204e0       __alloca_probe_16          100214e0 f   MSVCRT:alloca16.obj
 0001:000204f6       __alloca_probe_8           100214f6     MSVCRT:alloca16.obj
 0001:0002050c       ??_L@YGXPAXIHP6EX0@Z1@Z    1002150c f   MSVCRT:ehvecctr.obj
 0001:000205ba       __CRT_INIT@12              100215ba f   MSVCRT:crtdll.obj
 0001:000207b1       __DllMainCRTStartup@12     100217b1 f   MSVCRT:crtdll.obj
 0001:00020908       _strlen                    10021908 f   MSVCRT:MSVCR120.dll
 0001:0002090e       _strcmp                    1002190e f   MSVCRT:MSVCR120.dll
 0001:00020914       ?terminate@@YAXXZ          10021914 f   MSVCRT:MSVCR120.dll
 0001:00020920       __SEH_prolog4              10021920 f   MSVCRT:sehprolg4.obj
 0001:00020965       __SEH_epilog4              10021965 f   MSVCRT:sehprolg4.obj
 0001:00020979       __except_handler4          10021979 f   MSVCRT:chandler4gs.obj
 0001:0002099c       __lock                     1002199c f   MSVCRT:MSVCR120.dll
 0001:000209a2       __unlock                   100219a2 f   MSVCRT:MSVCR120.dll
 0001:000209a8       ___dllonexit               100219a8 f   MSVCRT:MSVCR120.dll
 0001:000209ae       ___raise_securityfailure   100219ae f   MSVCRT:gs_report.obj
 0001:000209eb       ___report_gsfailure        100219eb f   MSVCRT:gs_report.obj
 0001:00020ae6       ??1type_info@@UAE@XZ       10021ae6 f   MSVCRT:MSVCR120.dll
 0001:00020af0       __chkstk                   10021af0 f   MSVCRT:chkstk.obj
 0001:00020af0       __alloca_probe             10021af0 f   MSVCRT:chkstk.obj
 0001:00020b1c       ___CppXcptFilter           10021b1c f   MSVCRT:MSVCR120.dll
 0001:00020b22       __amsg_exit                10021b22 f   MSVCRT:MSVCR120.dll
 0001:00020b30       __FindPESection            10021b30 f   MSVCRT:pesect.obj
 0001:00020b80       __IsNonwritableInCurrentImage 10021b80 f   MSVCRT:pesect.obj
 0001:00020c40       __ValidateImageBase        10021c40 f   MSVCRT:pesect.obj
 0001:00020c71       ___security_init_cookie    10021c71 f   MSVCRT:gs_support.obj
 0001:00020d0d       _DllMain@12                10021d0d f   MSVCRT:dllmain.obj
 0001:00020d2f       __RTC_Initialize           10021d2f f   MSVCRT:initsect.obj
 0001:00020d4f       __RTC_Terminate            10021d4f f   MSVCRT:initsect.obj
 0001:00020d70       __initterm                 10021d70 f   MSVCRT:MSVCR120.dll
 0001:00020d76       __initterm_e               10021d76 f   MSVCRT:MSVCR120.dll
 0001:00020d7c       ___clean_type_info_names   10021d7c f   MSVCRT:tncleanup.obj
 0001:00020d88       __except_handler4_common   10021d88 f   MSVCRT:MSVCR120.dll
 0001:00020d8e       __crt_debugger_hook        10021d8e f   MSVCRT:MSVCR120.dll
 0001:00020d94       ___crtUnhandledException   10021d94 f   MSVCRT:MSVCR120.dll
 0001:00020d9a       ___crtTerminateProcess     10021d9a f   MSVCRT:MSVCR120.dll
 0001:00020da0       ___clean_type_info_names_internal 10021da0 f   MSVCRT:MSVCR120.dll
 0001:00020da6       ?write@QGDict@@MBEAAVQDataStream@@AAV2@PAX@Z 10021da6 f   qt-mt323:qt-mt323.dll
 0001:00020dac       ?read@QGDict@@MAEAAVQDataStream@@AAV2@AAPAX@Z 10021dac f   qt-mt323:qt-mt323.dll
 0001:00020db2       ?afterSeek@QSqlCursor@@MAEXXZ 10021db2 f   qt-mt323:qt-mt323.dll
 0001:00020db8       ?beforeSeek@QSqlQuery@@MAEXXZ 10021db8 f   qt-mt323:qt-mt323.dll
 0001:00020dbe       ?last@QSqlQuery@@UAE_NXZ   10021dbe f   qt-mt323:qt-mt323.dll
 0001:00020dc4       ?first@QSqlQuery@@UAE_NXZ  10021dc4 f   qt-mt323:qt-mt323.dll
 0001:00020dca       ?prev@QSqlQuery@@UAE_NXZ   10021dca f   qt-mt323:qt-mt323.dll
 0001:00020dd0       ?next@QSqlQuery@@UAE_NXZ   10021dd0 f   qt-mt323:qt-mt323.dll
 0001:00020dd6       ?seek@QSqlQuery@@UAE_NH_N@Z 10021dd6 f   qt-mt323:qt-mt323.dll
 0001:00020ddc       ?exec@QSqlCursor@@MAE_NABVQString@@@Z 10021ddc f   qt-mt323:qt-mt323.dll
 0001:00020de2       ?calculateField@QSqlCursor@@MAE?AVQVariant@@ABVQString@@@Z 10021de2 f   qt-mt323:qt-mt323.dll
 0001:00020de8       ?toString@QSqlCursor@@MBE?AVQString@@ABV2@PAVQSqlField@@0@Z 10021de8 f   qt-mt323:qt-mt323.dll
 0001:00020dee       ?toString@QSqlCursor@@MBE?AVQString@@PAVQSqlRecord@@ABV2@11@Z 10021dee f   qt-mt323:qt-mt323.dll
 0001:00020df4       ?toString@QSqlCursor@@MBE?AVQString@@ABVQSqlIndex@@PAVQSqlRecord@@ABV2@22@Z 10021df4 f   qt-mt323:qt-mt323.dll
 0001:00020dfa       ?setName@QSqlCursor@@UAEXABVQString@@_N@Z 10021dfa f   qt-mt323:qt-mt323.dll
 0001:00020e00       ?setFilter@QSqlCursor@@UAEXABVQString@@@Z 10021e00 f   qt-mt323:qt-mt323.dll
 0001:00020e06       ?setSort@QSqlCursor@@UAEXABVQSqlIndex@@@Z 10021e06 f   qt-mt323:qt-mt323.dll
 0001:00020e0c       ?select@QSqlCursor@@UAE_NABVQString@@ABVQSqlIndex@@@Z 10021e0c f   qt-mt323:qt-mt323.dll
 0001:00020e12       ?setTrimmed@QSqlCursor@@UAEXABVQString@@_N@Z 10021e12 f   qt-mt323:qt-mt323.dll
 0001:00020e18       ?setCalculated@QSqlCursor@@UAEXABVQString@@_N@Z 10021e18 f   qt-mt323:qt-mt323.dll
 0001:00020e1e       ?setMode@QSqlCursor@@UAEXH@Z 10021e1e f   qt-mt323:qt-mt323.dll
 0001:00020e24       ?del@QSqlCursor@@UAEH_N@Z  10021e24 f   qt-mt323:qt-mt323.dll
 0001:00020e2a       ?del@QSqlCursor@@MAEHABVQString@@_N@Z 10021e2a f   qt-mt323:qt-mt323.dll
 0001:00020e30       ?update@QSqlCursor@@UAEH_N@Z 10021e30 f   qt-mt323:qt-mt323.dll
 0001:00020e36       ?update@QSqlCursor@@MAEHABVQString@@_N@Z 10021e36 f   qt-mt323:qt-mt323.dll
 0001:00020e3c       ?primeDelete@QSqlCursor@@UAEPAVQSqlRecord@@XZ 10021e3c f   qt-mt323:qt-mt323.dll
 0001:00020e42       ?primeUpdate@QSqlCursor@@UAEPAVQSqlRecord@@XZ 10021e42 f   qt-mt323:qt-mt323.dll
 0001:00020e48       ?primeInsert@QSqlCursor@@UAEPAVQSqlRecord@@XZ 10021e48 f   qt-mt323:qt-mt323.dll
 0001:00020e4e       ?editBuffer@QSqlCursor@@UAEPAVQSqlRecord@@_N@Z 10021e4e f   qt-mt323:qt-mt323.dll
 0001:00020e54       ?insert@QSqlCursor@@UAEXHABVQSqlFieldInfo@@@Z 10021e54 f   qt-mt323:qt-mt323.dll
 0001:00020e5a       ?insert@QSqlCursor@@UAEH_N@Z 10021e5a f   qt-mt323:qt-mt323.dll
 0001:00020e60       ?append@QSqlCursor@@UAEXABVQSqlFieldInfo@@@Z 10021e60 f   qt-mt323:qt-mt323.dll
 0001:00020e66       ?setPrimaryIndex@QSqlCursor@@UAEXABVQSqlIndex@@@Z 10021e66 f   qt-mt323:qt-mt323.dll
 0001:00020e6c       ?index@QSqlCursor@@UBE?AVQSqlIndex@@ABVQStringList@@@Z 10021e6c f   qt-mt323:qt-mt323.dll
 0001:00020e72       ?primaryIndex@QSqlCursor@@UBE?AVQSqlIndex@@_N@Z 10021e72 f   qt-mt323:qt-mt323.dll
 0001:00020e78       ?toStringList@QSqlRecord@@UBE?AVQStringList@@ABVQString@@@Z 10021e78 f   qt-mt323:qt-mt323.dll
 0001:00020e7e       ?toString@QSqlCursor@@UBE?AVQString@@ABV2@0@Z 10021e7e f   qt-mt323:qt-mt323.dll
 0001:00020e84       ?clearValues@QSqlRecord@@UAEX_N@Z 10021e84 f   qt-mt323:qt-mt323.dll
 0001:00020e8a       ?clear@QSqlCursor@@UAEXXZ  10021e8a f   qt-mt323:qt-mt323.dll
 0001:00020e90       ?remove@QSqlCursor@@UAEXH@Z 10021e90 f   qt-mt323:qt-mt323.dll
 0001:00020e96       ?insert@QSqlCursor@@EAEXHABVQSqlField@@@Z 10021e96 f   qt-mt323:qt-mt323.dll
 0001:00020e9c       ?append@QSqlCursor@@EAEXABVQSqlField@@@Z 10021e9c f   qt-mt323:qt-mt323.dll
 0001:00020ea2       ?setNull@QSqlRecord@@UAEXH@Z 10021ea2 f   qt-mt323:qt-mt323.dll
 0001:00020ea8       ?setNull@QSqlRecord@@UAEXABVQString@@@Z 10021ea8 f   qt-mt323:qt-mt323.dll
 0001:00020eae       ?setGenerated@QSqlCursor@@UAEXABVQString@@_N@Z 10021eae f   qt-mt323:qt-mt323.dll
 0001:00020eb4       ?setGenerated@QSqlCursor@@UAEXH_N@Z 10021eb4 f   qt-mt323:qt-mt323.dll
 0001:00020eba       ?setValue@QSqlCursor@@UAEXHABVQVariant@@@Z 10021eba f   qt-mt323:qt-mt323.dll
 0001:00020ec0       ?setValue@QSqlCursor@@UAEXABVQString@@ABVQVariant@@@Z 10021ec0 f   qt-mt323:qt-mt323.dll
 0001:00020ec6       ?value@QSqlCursor@@UBE?AVQVariant@@H@Z 10021ec6 f   qt-mt323:qt-mt323.dll
 0001:00020ecc       ?value@QSqlCursor@@UBE?AVQVariant@@ABVQString@@@Z 10021ecc f   qt-mt323:qt-mt323.dll
 0001:00020ed2       ??0QDomDocument@@QAE@ABV0@@Z 10021ed2 f   qt-mt323:qt-mt323.dll
 0001:00020ed8       ?setContent@QDomDocument@@QAE_NPAVQIODevice@@PAVQString@@PAH2@Z 10021ed8 f   qt-mt323:qt-mt323.dll
 0001:00020ede       ??0QDomDocument@@QAE@XZ    10021ede f   qt-mt323:qt-mt323.dll
 0001:00020ee4       ??1QDomText@@UAE@XZ        10021ee4 f   qt-mt323:qt-mt323.dll
 0001:00020eea       ?toText@QDomNode@@QAE?AVQDomText@@XZ 10021eea f   qt-mt323:qt-mt323.dll
 0001:00020ef0       ??0QDomElement@@QAE@XZ     10021ef0 f   qt-mt323:qt-mt323.dll
 0001:00020ef6       ??4QDomElement@@QAEAAV0@ABV0@@Z 10021ef6 f   qt-mt323:qt-mt323.dll
 0001:00020efc       ??0QDomElement@@QAE@ABV0@@Z 10021efc f   qt-mt323:qt-mt323.dll
 0001:00020f02       ?paint@QListBoxText@@MAEXPAVQPainter@@@Z 10021f02 f   qt-mt323:qt-mt323.dll
 0001:00020f08       ?rtti@QListBoxText@@UBEHXZ 10021f08 f   qt-mt323:qt-mt323.dll
 0001:00020f0e       ?width@QListBoxText@@UBEHPBVQListBox@@@Z 10021f0e f   qt-mt323:qt-mt323.dll
 0001:00020f14       ?height@QListBoxText@@UBEHPBVQListBox@@@Z 10021f14 f   qt-mt323:qt-mt323.dll
 0001:00020f1a       ?pixmap@QListBoxItem@@UBEPBVQPixmap@@XZ 10021f1a f   qt-mt323:qt-mt323.dll
 0001:00020f20       ?dragLeft@QIconViewItem@@MAEXXZ 10021f20 f   qt-mt323:qt-mt323.dll
 0001:00020f26       ?dragEntered@QIconViewItem@@MAEXXZ 10021f26 f   qt-mt323:qt-mt323.dll
 0001:00020f2c       ?dropped@QIconViewItem@@MAEXPAVQDropEvent@@ABV?$QValueList@VQIconDragItem@@@@@Z 10021f2c f   qt-mt323:qt-mt323.dll
 0001:00020f32       ?paintFocus@QIconViewItem@@MAEXPAVQPainter@@ABVQColorGroup@@@Z 10021f32 f   qt-mt323:qt-mt323.dll
 0001:00020f38       ?paintItem@QIconViewItem@@MAEXPAVQPainter@@ABVQColorGroup@@@Z 10021f38 f   qt-mt323:qt-mt323.dll
 0001:00020f3e       ?calcRect@QIconViewItem@@MAEXABVQString@@@Z 10021f3e f   qt-mt323:qt-mt323.dll
 0001:00020f44       ?removeRenameBox@QIconViewItem@@MAEXXZ 10021f44 f   qt-mt323:qt-mt323.dll
 0001:00020f4a       ?rtti@QIconViewItem@@UBEHXZ 10021f4a f   qt-mt323:qt-mt323.dll
 0001:00020f50       ?setKey@QIconViewItem@@UAEXABVQString@@@Z 10021f50 f   qt-mt323:qt-mt323.dll
 0001:00020f56       ?setPicture@QIconViewItem@@UAEXABVQPicture@@@Z 10021f56 f   qt-mt323:qt-mt323.dll
 0001:00020f5c       ?setPixmap@QIconViewItem@@UAEXABVQPixmap@@@Z 10021f5c f   qt-mt323:qt-mt323.dll
 0001:00020f62       ?setPixmap@QIconViewItem@@UAEXABVQPixmap@@_N1@Z 10021f62 f   qt-mt323:qt-mt323.dll
 0001:00020f68       ?setText@QIconViewItem@@UAEXABVQString@@@Z 10021f68 f   qt-mt323:qt-mt323.dll
 0001:00020f6e       ?setText@QIconViewItem@@UAEXABVQString@@_N1@Z 10021f6e f   qt-mt323:qt-mt323.dll
 0001:00020f74       ?compare@QIconViewItem@@UBEHPAV1@@Z 10021f74 f   qt-mt323:qt-mt323.dll
 0001:00020f7a       ?acceptDrop@QIconViewItem@@UBE_NPBVQMimeSource@@@Z 10021f7a f   qt-mt323:qt-mt323.dll
 0001:00020f80       ?moveBy@QIconViewItem@@UAEXHH@Z 10021f80 f   qt-mt323:qt-mt323.dll
 0001:00020f86       ?moveBy@QIconViewItem@@UAEXABVQPoint@@@Z 10021f86 f   qt-mt323:qt-mt323.dll
 0001:00020f8c       ?move@QIconViewItem@@UAE_NHH@Z 10021f8c f   qt-mt323:qt-mt323.dll
 0001:00020f92       ?move@QIconViewItem@@UAE_NABVQPoint@@@Z 10021f92 f   qt-mt323:qt-mt323.dll
 0001:00020f98       ?repaint@QIconViewItem@@UAEXXZ 10021f98 f   qt-mt323:qt-mt323.dll
 0001:00020f9e       ?setSelectable@QIconViewItem@@UAEX_N@Z 10021f9e f   qt-mt323:qt-mt323.dll
 0001:00020fa4       ?setSelected@QIconViewItem@@UAEX_N0@Z 10021fa4 f   qt-mt323:qt-mt323.dll
 0001:00020faa       ?setSelected@QIconViewItem@@UAEX_N@Z 10021faa f   qt-mt323:qt-mt323.dll
 0001:00020fb0       ?key@QIconViewItem@@UBE?AVQString@@XZ 10021fb0 f   qt-mt323:qt-mt323.dll
 0001:00020fb6       ?picture@QIconViewItem@@UBEPAVQPicture@@XZ 10021fb6 f   qt-mt323:qt-mt323.dll
 0001:00020fbc       ?pixmap@QIconViewItem@@UBEPAVQPixmap@@XZ 10021fbc f   qt-mt323:qt-mt323.dll
 0001:00020fc2       ?text@QIconViewItem@@UBE?AVQString@@XZ 10021fc2 f   qt-mt323:qt-mt323.dll
 0001:00020fc8       ?setDropEnabled@QIconViewItem@@UAEX_N@Z 10021fc8 f   qt-mt323:qt-mt323.dll
 0001:00020fce       ?setDragEnabled@QIconViewItem@@UAEX_N@Z 10021fce f   qt-mt323:qt-mt323.dll
 0001:00020fd4       ?setRenameEnabled@QIconViewItem@@UAEX_N@Z 10021fd4 f   qt-mt323:qt-mt323.dll
 0001:00020fda       ?setText@QListBoxItem@@MAEXABVQString@@@Z 10021fda f   qt-mt323:qt-mt323.dll
 0001:00020fe0       ?paint@QListBoxPixmap@@MAEXPAVQPainter@@@Z 10021fe0 f   qt-mt323:qt-mt323.dll
 0001:00020fe6       ?rtti@QListBoxPixmap@@UBEHXZ 10021fe6 f   qt-mt323:qt-mt323.dll
 0001:00020fec       ?width@QListBoxPixmap@@UBEHPBVQListBox@@@Z 10021fec f   qt-mt323:qt-mt323.dll
 0001:00020ff2       ?height@QListBoxPixmap@@UBEHPBVQListBox@@@Z 10021ff2 f   qt-mt323:qt-mt323.dll
 0001:00020ff8       ?pixmap@QListBoxPixmap@@UBEPBVQPixmap@@XZ 10021ff8 f   qt-mt323:qt-mt323.dll
 0001:00020ffe       ?text@QListBoxItem@@UBE?AVQString@@XZ 10021ffe f   qt-mt323:qt-mt323.dll
 0001:00021004       ?menuDelPopup@QPopupMenu@@EAEXPAV1@@Z 10022004 f   qt-mt323:qt-mt323.dll
 0001:0002100a       ?menuInsPopup@QPopupMenu@@EAEXPAV1@@Z 1002200a f   qt-mt323:qt-mt323.dll
 0001:00021010       ?menuStateChanged@QPopupMenu@@EAEXXZ 10022010 f   qt-mt323:qt-mt323.dll
 0001:00021016       ?menuContentsChanged@QPopupMenu@@EAEXXZ 10022016 f   qt-mt323:qt-mt323.dll
 0001:0002101c       ?activateItemAt@QPopupMenu@@UAEXH@Z 1002201c f   qt-mt323:qt-mt323.dll
 0001:00021022       ?setId@QMenuData@@UAEXHH@Z 10022022 f   qt-mt323:qt-mt323.dll
 0001:00021028       ?updateItem@QPopupMenu@@UAEXH@Z 10022028 f   qt-mt323:qt-mt323.dll
 0001:0002102e       ?setFirstItemActive@QPopupMenu@@EAEXXZ 1002202e f   qt-mt323:qt-mt323.dll
 0001:00021034       ?setActiveItem@QPopupMenu@@UAEXH@Z 10022034 f   qt-mt323:qt-mt323.dll
 0001:0002103a       ?setCheckable@QPopupMenu@@UAEX_N@Z 1002203a f   qt-mt323:qt-mt323.dll
 0001:00021040       ?frameChanged@QPopupMenu@@EAEXXZ 10022040 f   qt-mt323:qt-mt323.dll
 0001:00021046       ?drawContents@QPopupMenu@@MAEXPAVQPainter@@@Z 10022046 f   qt-mt323:qt-mt323.dll
 0001:0002104c       ?focusNextPrevChild@QPopupMenu@@MAE_N_N@Z 1002204c f   qt-mt323:qt-mt323.dll
 0001:00021052       ?enabledChange@QPopupMenu@@MAEX_N@Z 10022052 f   qt-mt323:qt-mt323.dll
 0001:00021058       ?styleChange@QPopupMenu@@MAEXAAVQStyle@@@Z 10022058 f   qt-mt323:qt-mt323.dll
 0001:0002105e       ?closeEvent@QPopupMenu@@MAEXPAVQCloseEvent@@@Z 1002205e f   qt-mt323:qt-mt323.dll
 0001:00021064       ?resizeEvent@QFrame@@MAEXPAVQResizeEvent@@@Z 10022064 f   qt-mt323:qt-mt323.dll
 0001:0002106a       ?paintEvent@QPopupMenu@@MAEXPAVQPaintEvent@@@Z 1002206a f   qt-mt323:qt-mt323.dll
 0001:00021070       ?leaveEvent@QPopupMenu@@MAEXPAVQEvent@@@Z 10022070 f   qt-mt323:qt-mt323.dll
 0001:00021076       ?focusOutEvent@QPopupMenu@@MAEXPAVQFocusEvent@@@Z 10022076 f   qt-mt323:qt-mt323.dll
 0001:0002107c       ?focusInEvent@QPopupMenu@@MAEXPAVQFocusEvent@@@Z 1002207c f   qt-mt323:qt-mt323.dll
 0001:00021082       ?keyPressEvent@QPopupMenu@@MAEXPAVQKeyEvent@@@Z 10022082 f   qt-mt323:qt-mt323.dll
 0001:00021088       ?mouseMoveEvent@QPopupMenu@@MAEXPAVQMouseEvent@@@Z 10022088 f   qt-mt323:qt-mt323.dll
 0001:0002108e       ?mouseReleaseEvent@QPopupMenu@@MAEXPAVQMouseEvent@@@Z 1002208e f   qt-mt323:qt-mt323.dll
 0001:00021094       ?mousePressEvent@QPopupMenu@@MAEXPAVQMouseEvent@@@Z 10022094 f   qt-mt323:qt-mt323.dll
 0001:0002109a       ?customWhatsThis@QPopupMenu@@UBE_NXZ 1002209a f   qt-mt323:qt-mt323.dll
 0001:000210a0       ?sizeHint@QPopupMenu@@UBE?AVQSize@@XZ 100220a0 f   qt-mt323:qt-mt323.dll
 0001:000210a6       ?hide@QPopupMenu@@UAEXXZ   100220a6 f   qt-mt323:qt-mt323.dll
 0001:000210ac       ?show@QPopupMenu@@UAEXXZ   100220ac f   qt-mt323:qt-mt323.dll
 0001:000210b2       ?setFont@QPopupMenu@@UAEXABVQFont@@@Z 100220b2 f   qt-mt323:qt-mt323.dll
 0001:000210b8       ?timerEvent@QPopupMenu@@MAEXPAVQTimerEvent@@@Z 100220b8 f   qt-mt323:qt-mt323.dll
 0001:000210be       ?qt_property@QPopupMenu@@UAE_NHHPAVQVariant@@@Z 100220be f   qt-mt323:qt-mt323.dll
 0001:000210c4       ?qt_emit@QPopupMenu@@UAE_NHPAUQUObject@@@Z 100220c4 f   qt-mt323:qt-mt323.dll
 0001:000210ca       ?qt_invoke@QPopupMenu@@UAE_NHPAUQUObject@@@Z 100220ca f   qt-mt323:qt-mt323.dll
 0001:000210d0       ?qt_cast@QPopupMenu@@UAEPAXPBD@Z 100220d0 f   qt-mt323:qt-mt323.dll
 0001:000210d6       ?className@QPopupMenu@@UBEPBDXZ 100220d6 f   qt-mt323:qt-mt323.dll
 0001:000210dc       ?metaObject@QPopupMenu@@UBEPAVQMetaObject@@XZ 100220dc f   qt-mt323:qt-mt323.dll
 0001:000210e2       ?clear@QToolBar@@UAEXXZ    100220e2 f   qt-mt323:qt-mt323.dll
 0001:000210e8       ?setLabel@QToolBar@@UAEXABVQString@@@Z 100220e8 f   qt-mt323:qt-mt323.dll
 0001:000210ee       ?setStretchableWidget@QToolBar@@UAEXPAVQWidget@@@Z 100220ee f   qt-mt323:qt-mt323.dll
 0001:000210f4       ?setOrientation@QToolBar@@UAEXW4Orientation@Qt@@@Z 100220f4 f   qt-mt323:qt-mt323.dll
 0001:000210fa       ?dock@QDockWindow@@UAEXXZ  100220fa f   qt-mt323:qt-mt323.dll
 0001:00021100       ?undock@QDockWindow@@UAEXPAVQWidget@@@Z 10022100 f   qt-mt323:qt-mt323.dll
 0001:00021106       ?undock@QDockWindow@@UAEXXZ 10022106 f   qt-mt323:qt-mt323.dll
 0001:0002110c       ?setOpaqueMoving@QDockWindow@@UAEX_N@Z 1002210c f   qt-mt323:qt-mt323.dll
 0001:00021112       ?setNewLine@QDockWindow@@UAEX_N@Z 10022112 f   qt-mt323:qt-mt323.dll
 0001:00021118       ?setFixedExtentHeight@QDockWindow@@UAEXH@Z 10022118 f   qt-mt323:qt-mt323.dll
 0001:0002111e       ?setFixedExtentWidth@QDockWindow@@UAEXH@Z 1002211e f   qt-mt323:qt-mt323.dll
 0001:00021124       ?setOffset@QDockWindow@@UAEXH@Z 10022124 f   qt-mt323:qt-mt323.dll
 0001:0002112a       ?setVerticallyStretchable@QDockWindow@@UAEX_N@Z 1002212a f   qt-mt323:qt-mt323.dll
 0001:00021130       ?setHorizontallyStretchable@QDockWindow@@UAEX_N@Z 10022130 f   qt-mt323:qt-mt323.dll
 0001:00021136       ?setMovingEnabled@QDockWindow@@UAEX_N@Z 10022136 f   qt-mt323:qt-mt323.dll
 0001:0002113c       ?setResizeEnabled@QDockWindow@@UAEX_N@Z 1002213c f   qt-mt323:qt-mt323.dll
 0001:00021142       ?setCloseMode@QDockWindow@@UAEXH@Z 10022142 f   qt-mt323:qt-mt323.dll
 0001:00021148       ?setWidget@QDockWindow@@UAEXPAVQWidget@@@Z 10022148 f   qt-mt323:qt-mt323.dll
 0001:0002114e       ?frameChanged@QFrame@@MAEXXZ 1002214e f   qt-mt323:qt-mt323.dll
 0001:00021154       ?drawContents@QDockWindow@@MAEXPAVQPainter@@@Z 10022154 f   qt-mt323:qt-mt323.dll
 0001:0002115a       ?drawFrame@QDockWindow@@MAEXPAVQPainter@@@Z 1002215a f   qt-mt323:qt-mt323.dll
 0001:00021160       ?styleChange@QToolBar@@MAEXAAVQStyle@@@Z 10022160 f   qt-mt323:qt-mt323.dll
 0001:00021166       ?hideEvent@QDockWindow@@MAEXPAVQHideEvent@@@Z 10022166 f   qt-mt323:qt-mt323.dll
 0001:0002116c       ?showEvent@QDockWindow@@MAEXPAVQShowEvent@@@Z 1002216c f   qt-mt323:qt-mt323.dll
 0001:00021172       ?contextMenuEvent@QDockWindow@@MAEXPAVQContextMenuEvent@@@Z 10022172 f   qt-mt323:qt-mt323.dll
 0001:00021178       ?resizeEvent@QToolBar@@MAEXPAVQResizeEvent@@@Z 10022178 f   qt-mt323:qt-mt323.dll
 0001:0002117e       ?minimumSizeHint@QToolBar@@UBE?AVQSize@@XZ 1002217e f   qt-mt323:qt-mt323.dll
 0001:00021184       ?sizeHint@QDockWindow@@UBE?AVQSize@@XZ 10022184 f   qt-mt323:qt-mt323.dll
 0001:0002118a       ?hide@QToolBar@@UAEXXZ     1002218a f   qt-mt323:qt-mt323.dll
 0001:00021190       ?show@QToolBar@@UAEXXZ     10022190 f   qt-mt323:qt-mt323.dll
 0001:00021196       ?setCaption@QDockWindow@@UAEXABVQString@@@Z 10022196 f   qt-mt323:qt-mt323.dll
 0001:0002119c       ?setMinimumSize@QToolBar@@UAEXHH@Z 1002219c f   qt-mt323:qt-mt323.dll
 0001:000211a2       ?eventFilter@QDockWindow@@UAE_NPAVQObject@@PAVQEvent@@@Z 100221a2 f   qt-mt323:qt-mt323.dll
 0001:000211a8       ?event@QToolBar@@UAE_NPAVQEvent@@@Z 100221a8 f   qt-mt323:qt-mt323.dll
 0001:000211ae       ?qt_property@QToolBar@@UAE_NHHPAVQVariant@@@Z 100221ae f   qt-mt323:qt-mt323.dll
 0001:000211b4       ?qt_emit@QToolBar@@UAE_NHPAUQUObject@@@Z 100221b4 f   qt-mt323:qt-mt323.dll
 0001:000211ba       ?qt_invoke@QToolBar@@UAE_NHPAUQUObject@@@Z 100221ba f   qt-mt323:qt-mt323.dll
 0001:000211c0       ?qt_cast@QToolBar@@UAEPAXPBD@Z 100221c0 f   qt-mt323:qt-mt323.dll
 0001:000211c6       ?className@QToolBar@@UBEPBDXZ 100221c6 f   qt-mt323:qt-mt323.dll
 0001:000211cc       ?metaObject@QToolBar@@UBEPAVQMetaObject@@XZ 100221cc f   qt-mt323:qt-mt323.dll
 0001:000211d2       ?addedTo@QActionGroup@@MAEXPAVQWidget@@0PAVQAction@@@Z 100221d2 f   qt-mt323:qt-mt323.dll
 0001:000211d8       ?addedTo@QActionGroup@@MAEXHPAVQPopupMenu@@PAVQAction@@@Z 100221d8 f   qt-mt323:qt-mt323.dll
 0001:000211de       ?setEnabled@QActionGroup@@UAEX_N@Z 100221de f   qt-mt323:qt-mt323.dll
 0001:000211e4       ?setOn@QActionGroup@@UAEX_N@Z 100221e4 f   qt-mt323:qt-mt323.dll
 0001:000211ea       ?addedTo@QActionGroup@@MAEXPAVQWidget@@0@Z 100221ea f   qt-mt323:qt-mt323.dll
 0001:000211f0       ?addedTo@QActionGroup@@MAEXHPAVQPopupMenu@@@Z 100221f0 f   qt-mt323:qt-mt323.dll
 0001:000211f6       ?removeFrom@QActionGroup@@UAE_NPAVQWidget@@@Z 100221f6 f   qt-mt323:qt-mt323.dll
 0001:000211fc       ?addTo@QActionGroup@@UAE_NPAVQWidget@@@Z 100221fc f   qt-mt323:qt-mt323.dll
 0001:00021202       ?setToggleAction@QActionGroup@@UAEX_N@Z 10022202 f   qt-mt323:qt-mt323.dll
 0001:00021208       ?setWhatsThis@QActionGroup@@UAEXABVQString@@@Z 10022208 f   qt-mt323:qt-mt323.dll
 0001:0002120e       ?setToolTip@QActionGroup@@UAEXABVQString@@@Z 1002220e f   qt-mt323:qt-mt323.dll
 0001:00021214       ?setMenuText@QActionGroup@@UAEXABVQString@@@Z 10022214 f   qt-mt323:qt-mt323.dll
 0001:0002121a       ?setText@QActionGroup@@UAEXABVQString@@@Z 1002221a f   qt-mt323:qt-mt323.dll
 0001:00021220       ?setIconSet@QActionGroup@@UAEXABVQIconSet@@@Z 10022220 f   qt-mt323:qt-mt323.dll
 0001:00021226       ?childEvent@QActionGroup@@MAEXPAVQChildEvent@@@Z 10022226 f   qt-mt323:qt-mt323.dll
 0001:0002122c       ?qt_property@QActionGroup@@UAE_NHHPAVQVariant@@@Z 1002222c f   qt-mt323:qt-mt323.dll
 0001:00021232       ?qt_emit@QActionGroup@@UAE_NHPAUQUObject@@@Z 10022232 f   qt-mt323:qt-mt323.dll
 0001:00021238       ?qt_invoke@QActionGroup@@UAE_NHPAUQUObject@@@Z 10022238 f   qt-mt323:qt-mt323.dll
 0001:0002123e       ?qt_cast@QActionGroup@@UAEPAXPBD@Z 1002223e f   qt-mt323:qt-mt323.dll
 0001:00021244       ?className@QActionGroup@@UBEPBDXZ 10022244 f   qt-mt323:qt-mt323.dll
 0001:0002124a       ?metaObject@QActionGroup@@UBEPAVQMetaObject@@XZ 1002224a f   qt-mt323:qt-mt323.dll
 0001:00021250       ?setEnabled@QAction@@UAEX_N@Z 10022250 f   qt-mt323:qt-mt323.dll
 0001:00021256       ?setOn@QAction@@UAEX_N@Z   10022256 f   qt-mt323:qt-mt323.dll
 0001:0002125c       ?addedTo@QAction@@MAEXPAVQWidget@@0@Z 1002225c f   qt-mt323:qt-mt323.dll
 0001:00021262       ?addedTo@QAction@@MAEXHPAVQPopupMenu@@@Z 10022262 f   qt-mt323:qt-mt323.dll
 0001:00021268       ?removeFrom@QAction@@UAE_NPAVQWidget@@@Z 10022268 f   qt-mt323:qt-mt323.dll
 0001:0002126e       ?addTo@QAction@@UAE_NPAVQWidget@@@Z 1002226e f   qt-mt323:qt-mt323.dll
 0001:00021274       ?setToggleAction@QAction@@UAEX_N@Z 10022274 f   qt-mt323:qt-mt323.dll
 0001:0002127a       ?setAccel@QAction@@UAEXABVQKeySequence@@@Z 1002227a f   qt-mt323:qt-mt323.dll
 0001:00021280       ?setWhatsThis@QAction@@UAEXABVQString@@@Z 10022280 f   qt-mt323:qt-mt323.dll
 0001:00021286       ?setStatusTip@QAction@@UAEXABVQString@@@Z 10022286 f   qt-mt323:qt-mt323.dll
 0001:0002128c       ?setToolTip@QAction@@UAEXABVQString@@@Z 1002228c f   qt-mt323:qt-mt323.dll
 0001:00021292       ?setMenuText@QAction@@UAEXABVQString@@@Z 10022292 f   qt-mt323:qt-mt323.dll
 0001:00021298       ?setText@QAction@@UAEXABVQString@@@Z 10022298 f   qt-mt323:qt-mt323.dll
 0001:0002129e       ?setIconSet@QAction@@UAEXABVQIconSet@@@Z 1002229e f   qt-mt323:qt-mt323.dll
 0001:000212a4       ?qt_property@QAction@@UAE_NHHPAVQVariant@@@Z 100222a4 f   qt-mt323:qt-mt323.dll
 0001:000212aa       ?qt_emit@QAction@@UAE_NHPAUQUObject@@@Z 100222aa f   qt-mt323:qt-mt323.dll
 0001:000212b0       ?qt_invoke@QAction@@UAE_NHPAUQUObject@@@Z 100222b0 f   qt-mt323:qt-mt323.dll
 0001:000212b6       ?qt_cast@QAction@@UAEPAXPBD@Z 100222b6 f   qt-mt323:qt-mt323.dll
 0001:000212bc       ?className@QAction@@UBEPBDXZ 100222bc f   qt-mt323:qt-mt323.dll
 0001:000212c2       ?metaObject@QAction@@UBEPAVQMetaObject@@XZ 100222c2 f   qt-mt323:qt-mt323.dll
 0001:000212c8       ?setEditText@QComboBox@@UAEXABVQString@@@Z 100222c8 f   qt-mt323:qt-mt323.dll
 0001:000212ce       ?popup@QComboBox@@UAEXXZ   100222ce f   qt-mt323:qt-mt323.dll
 0001:000212d4       ?setAutoCompletion@QComboBox@@UAEX_N@Z 100222d4 f   qt-mt323:qt-mt323.dll
 0001:000212da       ?setLineEdit@QComboBox@@UAEXPAVQLineEdit@@@Z 100222da f   qt-mt323:qt-mt323.dll
 0001:000212e0       ?setListBox@QComboBox@@UAEXPAVQListBox@@@Z 100222e0 f   qt-mt323:qt-mt323.dll
 0001:000212e6       ?setValidator@QComboBox@@UAEXPBVQValidator@@@Z 100222e6 f   qt-mt323:qt-mt323.dll
 0001:000212ec       ?setInsertionPolicy@QComboBox@@UAEXW4Policy@1@@Z 100222ec f   qt-mt323:qt-mt323.dll
 0001:000212f2       ?setMaxCount@QComboBox@@UAEXH@Z 100222f2 f   qt-mt323:qt-mt323.dll
 0001:000212f8       ?setSizeLimit@QComboBox@@UAEXH@Z 100222f8 f   qt-mt323:qt-mt323.dll
 0001:000212fe       ?setAutoResize@QComboBox@@UAEX_N@Z 100222fe f   qt-mt323:qt-mt323.dll
 0001:00021304       ?setCurrentText@QComboBox@@UAEXABVQString@@@Z 10022304 f   qt-mt323:qt-mt323.dll
 0001:0002130a       ?setCurrentItem@QComboBox@@UAEXH@Z 1002230a f   qt-mt323:qt-mt323.dll
 0001:00021310       ?styleChange@QComboBox@@MAEXAAVQStyle@@@Z 10022310 f   qt-mt323:qt-mt323.dll
 0001:00021316       ?updateMask@QComboBox@@MAEXXZ 10022316 f   qt-mt323:qt-mt323.dll
 0001:0002131c       ?resizeEvent@QComboBox@@MAEXPAVQResizeEvent@@@Z 1002231c f   qt-mt323:qt-mt323.dll
 0001:00021322       ?paintEvent@QComboBox@@MAEXPAVQPaintEvent@@@Z 10022322 f   qt-mt323:qt-mt323.dll
 0001:00021328       ?focusOutEvent@QComboBox@@MAEXPAVQFocusEvent@@@Z 10022328 f   qt-mt323:qt-mt323.dll
 0001:0002132e       ?focusInEvent@QComboBox@@MAEXPAVQFocusEvent@@@Z 1002232e f   qt-mt323:qt-mt323.dll
 0001:00021334       ?keyPressEvent@QComboBox@@MAEXPAVQKeyEvent@@@Z 10022334 f   qt-mt323:qt-mt323.dll
 0001:0002133a       ?wheelEvent@QComboBox@@MAEXPAVQWheelEvent@@@Z 1002233a f   qt-mt323:qt-mt323.dll
 0001:00021340       ?mouseMoveEvent@QComboBox@@MAEXPAVQMouseEvent@@@Z 10022340 f   qt-mt323:qt-mt323.dll
 0001:00021346       ?mouseDoubleClickEvent@QComboBox@@MAEXPAVQMouseEvent@@@Z 10022346 f   qt-mt323:qt-mt323.dll
 0001:0002134c       ?mouseReleaseEvent@QComboBox@@MAEXPAVQMouseEvent@@@Z 1002234c f   qt-mt323:qt-mt323.dll
 0001:00021352       ?mousePressEvent@QComboBox@@MAEXPAVQMouseEvent@@@Z 10022352 f   qt-mt323:qt-mt323.dll
 0001:00021358       ?sizeHint@QComboBox@@UBE?AVQSize@@XZ 10022358 f   qt-mt323:qt-mt323.dll
 0001:0002135e       ?setFont@QComboBox@@UAEXABVQFont@@@Z 1002235e f   qt-mt323:qt-mt323.dll
 0001:00021364       ?setPalette@QComboBox@@UAEXABVQPalette@@@Z 10022364 f   qt-mt323:qt-mt323.dll
 0001:0002136a       ?setEnabled@QComboBox@@UAEX_N@Z 1002236a f   qt-mt323:qt-mt323.dll
 0001:00021370       ?eventFilter@QComboBox@@UAE_NPAVQObject@@PAVQEvent@@@Z 10022370 f   qt-mt323:qt-mt323.dll
 0001:00021376       ?qt_property@QComboBox@@UAE_NHHPAVQVariant@@@Z 10022376 f   qt-mt323:qt-mt323.dll
 0001:0002137c       ?qt_emit@QComboBox@@UAE_NHPAUQUObject@@@Z 1002237c f   qt-mt323:qt-mt323.dll
 0001:00021382       ?qt_invoke@QComboBox@@UAE_NHPAUQUObject@@@Z 10022382 f   qt-mt323:qt-mt323.dll
 0001:00021388       ?qt_cast@QComboBox@@UAEPAXPBD@Z 10022388 f   qt-mt323:qt-mt323.dll
 0001:0002138e       ?className@QComboBox@@UBEPBDXZ 1002238e f   qt-mt323:qt-mt323.dll
 0001:00021394       ?metaObject@QComboBox@@UBEPAVQMetaObject@@XZ 10022394 f   qt-mt323:qt-mt323.dll
 0001:0002139a       ?end@QMultiLineEdit@@MAEX_N@Z 1002239a f   qt-mt323:qt-mt323.dll
 0001:000213a0       ?home@QMultiLineEdit@@MAEX_N@Z 100223a0 f   qt-mt323:qt-mt323.dll
 0001:000213a6       ?backspace@QMultiLineEdit@@MAEXXZ 100223a6 f   qt-mt323:qt-mt323.dll
 0001:000213ac       ?cursorDown@QMultiLineEdit@@MAEX_N@Z 100223ac f   qt-mt323:qt-mt323.dll
 0001:000213b2       ?cursorUp@QMultiLineEdit@@MAEX_N@Z 100223b2 f   qt-mt323:qt-mt323.dll
 0001:000213b8       ?cursorRight@QMultiLineEdit@@MAEX_N0@Z 100223b8 f   qt-mt323:qt-mt323.dll
 0001:000213be       ?cursorLeft@QMultiLineEdit@@MAEX_N0@Z 100223be f   qt-mt323:qt-mt323.dll
 0001:000213c4       ?pageDown@QMultiLineEdit@@MAEX_N@Z 100223c4 f   qt-mt323:qt-mt323.dll
 0001:000213ca       ?pageUp@QMultiLineEdit@@MAEX_N@Z 100223ca f   qt-mt323:qt-mt323.dll
 0001:000213d0       ?killLine@QMultiLineEdit@@MAEXXZ 100223d0 f   qt-mt323:qt-mt323.dll
 0001:000213d6       ?newLine@QMultiLineEdit@@MAEXXZ 100223d6 f   qt-mt323:qt-mt323.dll
 0001:000213dc       ?insertAndMark@QMultiLineEdit@@MAEXABVQString@@_N@Z 100223dc f   qt-mt323:qt-mt323.dll
 0001:000213e2       ?setAutoUpdate@QMultiLineEdit@@UAEX_N@Z 100223e2 f   qt-mt323:qt-mt323.dll
 0001:000213e8       ?setCursorPosition@QMultiLineEdit@@UAEXHH_N@Z 100223e8 f   qt-mt323:qt-mt323.dll
 0001:000213ee       ?removeLine@QMultiLineEdit@@UAEXH@Z 100223ee f   qt-mt323:qt-mt323.dll
 0001:000213f4       ?insertAt@QMultiLineEdit@@UAEXABVQString@@HH_N@Z 100223f4 f   qt-mt323:qt-mt323.dll
 0001:000213fa       ?insertLine@QMultiLineEdit@@UAEXABVQString@@H@Z 100223fa f   qt-mt323:qt-mt323.dll
 0001:00021400       ?insertAt@QMultiLineEdit@@UAEXABVQString@@HH@Z 10022400 f   qt-mt323:qt-mt323.dll
 0001:00021406       ?setCursorPosition@QMultiLineEdit@@UAEXHH@Z 10022406 f   qt-mt323:qt-mt323.dll
 0001:0002140c       ?setAlignment@QMultiLineEdit@@UAEXH@Z 1002240c f   qt-mt323:qt-mt323.dll
 0001:00021412       ?qt_property@QMultiLineEdit@@UAE_NHHPAVQVariant@@@Z 10022412 f   qt-mt323:qt-mt323.dll
 0001:00021418       ?qt_emit@QMultiLineEdit@@UAE_NHPAUQUObject@@@Z 10022418 f   qt-mt323:qt-mt323.dll
 0001:0002141e       ?qt_invoke@QMultiLineEdit@@UAE_NHPAUQUObject@@@Z 1002241e f   qt-mt323:qt-mt323.dll
 0001:00021424       ?qt_cast@QMultiLineEdit@@UAEPAXPBD@Z 10022424 f   qt-mt323:qt-mt323.dll
 0001:0002142a       ?className@QMultiLineEdit@@UBEPBDXZ 1002242a f   qt-mt323:qt-mt323.dll
 0001:00021430       ?metaObject@QMultiLineEdit@@UBEPAVQMetaObject@@XZ 10022430 f   qt-mt323:qt-mt323.dll
 0001:00021436       ?layOutTitleRow@QWizard@@MAEXPAVQHBoxLayout@@ABVQString@@@Z 10022436 f   qt-mt323:qt-mt323.dll
 0001:0002143c       ?layOutButtonRow@QWizard@@MAEXPAVQHBoxLayout@@@Z 1002243c f   qt-mt323:qt-mt323.dll
 0001:00021442       ?help@QWizard@@MAEXXZ      10022442 f   qt-mt323:qt-mt323.dll
 0001:00021448       ?next@QWizard@@MAEXXZ      10022448 f   qt-mt323:qt-mt323.dll
 0001:0002144e       ?back@QWizard@@MAEXXZ      1002244e f   qt-mt323:qt-mt323.dll
 0001:00021454       ?setFinish@QWizard@@UAEXPAVQWidget@@_N@Z 10022454 f   qt-mt323:qt-mt323.dll
 0001:0002145a       ?setHelpEnabled@QWizard@@UAEXPAVQWidget@@_N@Z 1002245a f   qt-mt323:qt-mt323.dll
 0001:00021460       ?setFinishEnabled@QWizard@@UAEXPAVQWidget@@_N@Z 10022460 f   qt-mt323:qt-mt323.dll
 0001:00021466       ?setNextEnabled@QWizard@@UAEXPAVQWidget@@_N@Z 10022466 f   qt-mt323:qt-mt323.dll
 0001:0002146c       ?setBackEnabled@QWizard@@UAEXPAVQWidget@@_N@Z 1002246c f   qt-mt323:qt-mt323.dll
 0001:00021472       ?setAppropriate@QWizard@@UAEXPAVQWidget@@_N@Z 10022472 f   qt-mt323:qt-mt323.dll
 0001:00021478       ?appropriate@QWizard@@UBE_NPAVQWidget@@@Z 10022478 f   qt-mt323:qt-mt323.dll
 0001:0002147e       ?showPage@QWizard@@UAEXPAVQWidget@@@Z 1002247e f   qt-mt323:qt-mt323.dll
 0001:00021484       ?removePage@QWizard@@UAEXPAVQWidget@@@Z 10022484 f   qt-mt323:qt-mt323.dll
 0001:0002148a       ?insertPage@QWizard@@UAEXPAVQWidget@@ABVQString@@H@Z 1002248a f   qt-mt323:qt-mt323.dll
 0001:00021490       ?addPage@QWizard@@UAEXPAVQWidget@@ABVQString@@@Z 10022490 f   qt-mt323:qt-mt323.dll
 0001:00021496       ?show@QWizard@@UAEXXZ      10022496 f   qt-mt323:qt-mt323.dll
 0001:0002149c       ?setFont@QWizard@@UAEXABVQFont@@@Z 1002249c f   qt-mt323:qt-mt323.dll
 0001:000214a2       ?eventFilter@QWizard@@UAE_NPAVQObject@@PAVQEvent@@@Z 100224a2 f   qt-mt323:qt-mt323.dll
 0001:000214a8       ?qt_property@QWizard@@UAE_NHHPAVQVariant@@@Z 100224a8 f   qt-mt323:qt-mt323.dll
 0001:000214ae       ?qt_emit@QWizard@@UAE_NHPAUQUObject@@@Z 100224ae f   qt-mt323:qt-mt323.dll
 0001:000214b4       ?qt_invoke@QWizard@@UAE_NHPAUQUObject@@@Z 100224b4 f   qt-mt323:qt-mt323.dll
 0001:000214ba       ?qt_cast@QWizard@@UAEPAXPBD@Z 100224ba f   qt-mt323:qt-mt323.dll
 0001:000214c0       ?className@QWizard@@UBEPBDXZ 100224c0 f   qt-mt323:qt-mt323.dll
 0001:000214c6       ?metaObject@QWizard@@UBEPAVQMetaObject@@XZ 100224c6 f   qt-mt323:qt-mt323.dll
 0001:000214cc       ?rangeChange@QSlider@@MAEXXZ 100224cc f   qt-mt323:qt-mt323.dll
 0001:000214d2       ?valueChange@QSlider@@MAEXXZ 100224d2 f   qt-mt323:qt-mt323.dll
 0001:000214d8       ?setValue@QSlider@@UAEXH@Z 100224d8 f   qt-mt323:qt-mt323.dll
 0001:000214de       ?setTickInterval@QSlider@@UAEXH@Z 100224de f   qt-mt323:qt-mt323.dll
 0001:000214e4       ?setTickmarks@QSlider@@UAEXW4TickSetting@1@@Z 100224e4 f   qt-mt323:qt-mt323.dll
 0001:000214ea       ?setTracking@QSlider@@UAEX_N@Z 100224ea f   qt-mt323:qt-mt323.dll
 0001:000214f0       ?setOrientation@QSlider@@UAEXW4Orientation@Qt@@@Z 100224f0 f   qt-mt323:qt-mt323.dll
 0001:000214f6       ?styleChange@QSlider@@MAEXAAVQStyle@@@Z 100224f6 f   qt-mt323:qt-mt323.dll
 0001:000214fc       ?resizeEvent@QSlider@@MAEXPAVQResizeEvent@@@Z 100224fc f   qt-mt323:qt-mt323.dll
 0001:00021502       ?paintEvent@QSlider@@MAEXPAVQPaintEvent@@@Z 10022502 f   qt-mt323:qt-mt323.dll
 0001:00021508       ?focusOutEvent@QSlider@@MAEXPAVQFocusEvent@@@Z 10022508 f   qt-mt323:qt-mt323.dll
 0001:0002150e       ?focusInEvent@QSlider@@MAEXPAVQFocusEvent@@@Z 1002250e f   qt-mt323:qt-mt323.dll
 0001:00021514       ?keyPressEvent@QSlider@@MAEXPAVQKeyEvent@@@Z 10022514 f   qt-mt323:qt-mt323.dll
 0001:0002151a       ?wheelEvent@QSlider@@MAEXPAVQWheelEvent@@@Z 1002251a f   qt-mt323:qt-mt323.dll
 0001:00021520       ?mouseMoveEvent@QSlider@@MAEXPAVQMouseEvent@@@Z 10022520 f   qt-mt323:qt-mt323.dll
 0001:00021526       ?mouseReleaseEvent@QSlider@@MAEXPAVQMouseEvent@@@Z 10022526 f   qt-mt323:qt-mt323.dll
 0001:0002152c       ?mousePressEvent@QSlider@@MAEXPAVQMouseEvent@@@Z 1002252c f   qt-mt323:qt-mt323.dll
 0001:00021532       ?setSizePolicy@QSlider@@UAEXVQSizePolicy@@@Z 10022532 f   qt-mt323:qt-mt323.dll
 0001:00021538       ?sizePolicy@QSlider@@UBE?AVQSizePolicy@@XZ 10022538 f   qt-mt323:qt-mt323.dll
 0001:0002153e       ?minimumSizeHint@QSlider@@UBE?AVQSize@@XZ 1002253e f   qt-mt323:qt-mt323.dll
 0001:00021544       ?sizeHint@QSlider@@UBE?AVQSize@@XZ 10022544 f   qt-mt323:qt-mt323.dll
 0001:0002154a       ?setPalette@QSlider@@UAEXABVQPalette@@@Z 1002254a f   qt-mt323:qt-mt323.dll
 0001:00021550       ?qt_property@QSlider@@UAE_NHHPAVQVariant@@@Z 10022550 f   qt-mt323:qt-mt323.dll
 0001:00021556       ?qt_emit@QSlider@@UAE_NHPAUQUObject@@@Z 10022556 f   qt-mt323:qt-mt323.dll
 0001:0002155c       ?qt_invoke@QSlider@@UAE_NHPAUQUObject@@@Z 1002255c f   qt-mt323:qt-mt323.dll
 0001:00021562       ?qt_cast@QSlider@@UAEPAXPBD@Z 10022562 f   qt-mt323:qt-mt323.dll
 0001:00021568       ?className@QSlider@@UBEPBDXZ 10022568 f   qt-mt323:qt-mt323.dll
 0001:0002156e       ?metaObject@QSlider@@UBEPAVQMetaObject@@XZ 1002256e f   qt-mt323:qt-mt323.dll
 0001:00021574       ?stepChange@QScrollBar@@MAEXXZ 10022574 f   qt-mt323:qt-mt323.dll
 0001:0002157a       ?rangeChange@QScrollBar@@MAEXXZ 1002257a f   qt-mt323:qt-mt323.dll
 0001:00021580       ?valueChange@QScrollBar@@MAEXXZ 10022580 f   qt-mt323:qt-mt323.dll
 0001:00021586       ?setTracking@QScrollBar@@UAEX_N@Z 10022586 f   qt-mt323:qt-mt323.dll
 0001:0002158c       ?setOrientation@QScrollBar@@UAEXW4Orientation@Qt@@@Z 1002258c f   qt-mt323:qt-mt323.dll
 0001:00021592       ?styleChange@QScrollBar@@MAEXAAVQStyle@@@Z 10022592 f   qt-mt323:qt-mt323.dll
 0001:00021598       ?hideEvent@QScrollBar@@MAEXPAVQHideEvent@@@Z 10022598 f   qt-mt323:qt-mt323.dll
 0001:0002159e       ?contextMenuEvent@QScrollBar@@MAEXPAVQContextMenuEvent@@@Z 1002259e f   qt-mt323:qt-mt323.dll
 0001:000215a4       ?resizeEvent@QScrollBar@@MAEXPAVQResizeEvent@@@Z 100225a4 f   qt-mt323:qt-mt323.dll
 0001:000215aa       ?paintEvent@QScrollBar@@MAEXPAVQPaintEvent@@@Z 100225aa f   qt-mt323:qt-mt323.dll
 0001:000215b0       ?keyPressEvent@QScrollBar@@MAEXPAVQKeyEvent@@@Z 100225b0 f   qt-mt323:qt-mt323.dll
 0001:000215b6       ?wheelEvent@QScrollBar@@MAEXPAVQWheelEvent@@@Z 100225b6 f   qt-mt323:qt-mt323.dll
 0001:000215bc       ?mouseMoveEvent@QScrollBar@@MAEXPAVQMouseEvent@@@Z 100225bc f   qt-mt323:qt-mt323.dll
 0001:000215c2       ?mouseReleaseEvent@QScrollBar@@MAEXPAVQMouseEvent@@@Z 100225c2 f   qt-mt323:qt-mt323.dll
 0001:000215c8       ?mousePressEvent@QScrollBar@@MAEXPAVQMouseEvent@@@Z 100225c8 f   qt-mt323:qt-mt323.dll
 0001:000215ce       ?setSizePolicy@QScrollBar@@UAEXVQSizePolicy@@@Z 100225ce f   qt-mt323:qt-mt323.dll
 0001:000215d4       ?sizeHint@QScrollBar@@UBE?AVQSize@@XZ 100225d4 f   qt-mt323:qt-mt323.dll
 0001:000215da       ?setPalette@QScrollBar@@UAEXABVQPalette@@@Z 100225da f   qt-mt323:qt-mt323.dll
 0001:000215e0       ?qt_property@QScrollBar@@UAE_NHHPAVQVariant@@@Z 100225e0 f   qt-mt323:qt-mt323.dll
 0001:000215e6       ?qt_emit@QScrollBar@@UAE_NHPAUQUObject@@@Z 100225e6 f   qt-mt323:qt-mt323.dll
 0001:000215ec       ?qt_invoke@QScrollBar@@UAE_NHPAUQUObject@@@Z 100225ec f   qt-mt323:qt-mt323.dll
 0001:000215f2       ?qt_cast@QScrollBar@@UAEPAXPBD@Z 100225f2 f   qt-mt323:qt-mt323.dll
 0001:000215f8       ?className@QScrollBar@@UBEPBDXZ 100225f8 f   qt-mt323:qt-mt323.dll
 0001:000215fe       ?metaObject@QScrollBar@@UBEPAVQMetaObject@@XZ 100225fe f   qt-mt323:qt-mt323.dll
 0001:00021604       ?columnClicked@QTable@@MAEXH@Z 10022604 f   qt-mt323:qt-mt323.dll
 0001:0002160a       ?resizeData@QTable@@MAEXH@Z 1002260a f   qt-mt323:qt-mt323.dll
 0001:00021610       ?endEdit@QTable@@MAEXHH_N0@Z 10022610 f   qt-mt323:qt-mt323.dll
 0001:00021616       ?beginEdit@QTable@@MAEPAVQWidget@@HH_N@Z 10022616 f   qt-mt323:qt-mt323.dll
 0001:0002161c       ?createEditor@QTable@@MBEPAVQWidget@@HH_N@Z 1002261c f   qt-mt323:qt-mt323.dll
 0001:00021622       ?activateNextCell@QTable@@MAEXXZ 10022622 f   qt-mt323:qt-mt323.dll
 0001:00021628       ?swapColumns@QTable@@UAEXHH_N@Z 10022628 f   qt-mt323:qt-mt323.dll
 0001:0002162e       ?setColumnStretchable@QTable@@UAEXH_N@Z 1002262e f   qt-mt323:qt-mt323.dll
 0001:00021634       ?adjustColumn@QTable@@UAEXH@Z 10022634 f   qt-mt323:qt-mt323.dll
 0001:0002163a       ?setColumnWidth@QTable@@UAEXHH@Z 1002263a f   qt-mt323:qt-mt323.dll
 0001:00021640       ?showColumn@QTable@@UAEXH@Z 10022640 f   qt-mt323:qt-mt323.dll
 0001:00021646       ?hideColumn@QTable@@UAEXH@Z 10022646 f   qt-mt323:qt-mt323.dll
 0001:0002164c       ?setNumCols@QTable@@UAEXH@Z 1002264c f   qt-mt323:qt-mt323.dll
 0001:00021652       ?setNumRows@QTable@@UAEXH@Z 10022652 f   qt-mt323:qt-mt323.dll
 0001:00021658       ?paintCell@QTable@@UAEXPAVQPainter@@HHABVQRect@@_NABVQColorGroup@@@Z 10022658 f   qt-mt323:qt-mt323.dll
 0001:0002165e       ?takeItem@QTable@@UAEXPAVQTableItem@@@Z 1002265e f   qt-mt323:qt-mt323.dll
 0001:00021664       ?sortColumn@QTable@@UAEXH_N0@Z 10022664 f   qt-mt323:qt-mt323.dll
 0001:0002166a       ?numCols@QTable@@UBEHXZ    1002266a f   qt-mt323:qt-mt323.dll
 0001:00021670       ?numRows@QTable@@UBEHXZ    10022670 f   qt-mt323:qt-mt323.dll
 0001:00021676       ?clearCell@QTable@@UAEXHH@Z 10022676 f   qt-mt323:qt-mt323.dll
 0001:0002167c       ?text@QTable@@UBE?AVQString@@HH@Z 1002267c f   qt-mt323:qt-mt323.dll
 0001:00021682       ?item@QTable@@UBEPAVQTableItem@@HH@Z 10022682 f   qt-mt323:qt-mt323.dll
 0001:00021688       ?setPixmap@QTable@@UAEXHHABVQPixmap@@@Z 10022688 f   qt-mt323:qt-mt323.dll
 0001:0002168e       ?setItem@QTable@@UAEXHHPAVQTableItem@@@Z 1002268e f   qt-mt323:qt-mt323.dll
 0001:00021694       ?contentsContextMenuEvent@QTable@@MAEXPAVQContextMenuEvent@@@Z 10022694 f   qt-mt323:qt-mt323.dll
 0001:0002169a       ?contentsMousePressEvent@QTable@@MAEXPAVQMouseEvent@@@Z 1002269a f   qt-mt323:qt-mt323.dll
 0001:000216a0       ?drawContents@QTable@@MAEXPAVQPainter@@HHHH@Z 100226a0 f   qt-mt323:qt-mt323.dll
 0001:000216a6       ?resizeEvent@QScrollView@@MAEXPAVQResizeEvent@@@Z 100226a6 f   qt-mt323:qt-mt323.dll
 0001:000216ac       ?keyPressEvent@QTable@@MAEXPAVQKeyEvent@@@Z 100226ac f   qt-mt323:qt-mt323.dll
 0001:000216b2       ?eventFilter@QTable@@UAE_NPAVQObject@@PAVQEvent@@@Z 100226b2 f   qt-mt323:qt-mt323.dll
 0001:000216b8       ?qt_property@QTable@@UAE_NHHPAVQVariant@@@Z 100226b8 f   qt-mt323:qt-mt323.dll
 0001:000216be       ?qt_emit@QTable@@UAE_NHPAUQUObject@@@Z 100226be f   qt-mt323:qt-mt323.dll
 0001:000216c4       ?qt_invoke@QTable@@UAE_NHPAUQUObject@@@Z 100226c4 f   qt-mt323:qt-mt323.dll
 0001:000216ca       ?qt_cast@QTable@@UAEPAXPBD@Z 100226ca f   qt-mt323:qt-mt323.dll
 0001:000216d0       ?className@QTable@@UBEPBDXZ 100226d0 f   qt-mt323:qt-mt323.dll
 0001:000216d6       ?metaObject@QTable@@UBEPAVQMetaObject@@XZ 100226d6 f   qt-mt323:qt-mt323.dll
 0001:000216dc       ?initDragEnter@QIconView@@EAEXPAVQDropEvent@@@Z 100226dc f   qt-mt323:qt-mt323.dll
 0001:000216e2       ?drawDragShapes@QIconView@@EAEXABVQPoint@@@Z 100226e2 f   qt-mt323:qt-mt323.dll
 0001:000216e8       ?drawBackground@QIconView@@MAEXPAVQPainter@@ABVQRect@@@Z 100226e8 f   qt-mt323:qt-mt323.dll
 0001:000216ee       ?insertInGrid@QIconView@@MAEXPAVQIconViewItem@@@Z 100226ee f   qt-mt323:qt-mt323.dll
 0001:000216f4       ?startDrag@QIconView@@MAEXXZ 100226f4 f   qt-mt323:qt-mt323.dll
 0001:000216fa       ?dragObject@QIconView@@MAEPAVQDragObject@@XZ 100226fa f   qt-mt323:qt-mt323.dll
 0001:00021700       ?drawRubber@QIconView@@MAEXPAVQPainter@@@Z 10022700 f   qt-mt323:qt-mt323.dll
 0001:00021706       ?slotUpdate@QIconView@@MAEXXZ 10022706 f   qt-mt323:qt-mt323.dll
 0001:0002170c       ?adjustItems@QIconView@@MAEXXZ 1002270c f   qt-mt323:qt-mt323.dll
 0001:00021712       ?doAutoScroll@QIconView@@MAEXXZ 10022712 f   qt-mt323:qt-mt323.dll
 0001:00021718       ?updateContents@QIconView@@UAEXXZ 10022718 f   qt-mt323:qt-mt323.dll
 0001:0002171e       ?arrangeItemsInGrid@QIconView@@UAEXABVQSize@@_N@Z 1002271e f   qt-mt323:qt-mt323.dll
 0001:00021724       ?arrangeItemsInGrid@QIconView@@UAEX_N@Z 10022724 f   qt-mt323:qt-mt323.dll
 0001:0002172a       ?sort@QIconView@@UAEX_N@Z  1002272a f   qt-mt323:qt-mt323.dll
 0001:00021730       ?setWordWrapIconText@QIconView@@UAEX_N@Z 10022730 f   qt-mt323:qt-mt323.dll
 0001:00021736       ?setItemsMovable@QIconView@@UAEX_N@Z 10022736 f   qt-mt323:qt-mt323.dll
 0001:0002173c       ?setShowToolTips@QIconView@@UAEX_N@Z 1002273c f   qt-mt323:qt-mt323.dll
 0001:00021742       ?setAutoArrange@QIconView@@UAEX_N@Z 10022742 f   qt-mt323:qt-mt323.dll
 0001:00021748       ?setMaxItemTextLength@QIconView@@UAEXH@Z 10022748 f   qt-mt323:qt-mt323.dll
 0001:0002174e       ?setMaxItemWidth@QIconView@@UAEXH@Z 1002274e f   qt-mt323:qt-mt323.dll
 0001:00021754       ?setResizeMode@QIconView@@UAEXW4ResizeMode@1@@Z 10022754 f   qt-mt323:qt-mt323.dll
 0001:0002175a       ?setArrangement@QIconView@@UAEXW4Arrangement@1@@Z 1002275a f   qt-mt323:qt-mt323.dll
 0001:00021760       ?setItemTextBackground@QIconView@@UAEXABVQBrush@@@Z 10022760 f   qt-mt323:qt-mt323.dll
 0001:00021766       ?setItemTextPos@QIconView@@UAEXW4ItemTextPos@1@@Z 10022766 f   qt-mt323:qt-mt323.dll
 0001:0002176c       ?setSpacing@QIconView@@UAEXH@Z 1002276c f   qt-mt323:qt-mt323.dll
 0001:00021772       ?setGridY@QIconView@@UAEXH@Z 10022772 f   qt-mt323:qt-mt323.dll
 0001:00021778       ?setGridX@QIconView@@UAEXH@Z 10022778 f   qt-mt323:qt-mt323.dll
 0001:0002177e       ?clear@QIconView@@UAEXXZ   1002277e f   qt-mt323:qt-mt323.dll
 0001:00021784       ?repaintItem@QIconView@@UAEXPAVQIconViewItem@@@Z 10022784 f   qt-mt323:qt-mt323.dll
 0001:0002178a       ?invertSelection@QIconView@@UAEXXZ 1002278a f   qt-mt323:qt-mt323.dll
 0001:00021790       ?clearSelection@QIconView@@UAEXXZ 10022790 f   qt-mt323:qt-mt323.dll
 0001:00021796       ?selectAll@QIconView@@UAEX_N@Z 10022796 f   qt-mt323:qt-mt323.dll
 0001:0002179c       ?setSelectionMode@QIconView@@UAEXW4SelectionMode@1@@Z 1002279c f   qt-mt323:qt-mt323.dll
 0001:000217a2       ?setSelected@QIconView@@UAEXPAVQIconViewItem@@_N1@Z 100227a2 f   qt-mt323:qt-mt323.dll
 0001:000217a8       ?setCurrentItem@QIconView@@UAEXPAVQIconViewItem@@@Z 100227a8 f   qt-mt323:qt-mt323.dll
 0001:000217ae       ?takeItem@QIconView@@UAEXPAVQIconViewItem@@@Z 100227ae f   qt-mt323:qt-mt323.dll
 0001:000217b4       ?insertItem@QIconView@@UAEXPAVQIconViewItem@@0@Z 100227b4 f   qt-mt323:qt-mt323.dll
 0001:000217ba       ?contentsContextMenuEvent@QIconView@@MAEXPAVQContextMenuEvent@@@Z 100227ba f   qt-mt323:qt-mt323.dll
 0001:000217c0       ?contentsDropEvent@QIconView@@MAEXPAVQDropEvent@@@Z 100227c0 f   qt-mt323:qt-mt323.dll
 0001:000217c6       ?contentsDragLeaveEvent@QIconView@@MAEXPAVQDragLeaveEvent@@@Z 100227c6 f   qt-mt323:qt-mt323.dll
 0001:000217cc       ?contentsDragMoveEvent@QIconView@@MAEXPAVQDragMoveEvent@@@Z 100227cc f   qt-mt323:qt-mt323.dll
 0001:000217d2       ?contentsDragEnterEvent@QIconView@@MAEXPAVQDragEnterEvent@@@Z 100227d2 f   qt-mt323:qt-mt323.dll
 0001:000217d8       ?contentsMouseMoveEvent@QIconView@@MAEXPAVQMouseEvent@@@Z 100227d8 f   qt-mt323:qt-mt323.dll
 0001:000217de       ?contentsMouseDoubleClickEvent@QIconView@@MAEXPAVQMouseEvent@@@Z 100227de f   qt-mt323:qt-mt323.dll
 0001:000217e4       ?contentsMouseReleaseEvent@QIconView@@MAEXPAVQMouseEvent@@@Z 100227e4 f   qt-mt323:qt-mt323.dll
 0001:000217ea       ?contentsMousePressEvent@QIconView@@MAEXPAVQMouseEvent@@@Z 100227ea f   qt-mt323:qt-mt323.dll
 0001:000217f0       ?drawContents@QIconView@@MAEXPAVQPainter@@HHHH@Z 100227f0 f   qt-mt323:qt-mt323.dll
 0001:000217f6       ?setContentsPos@QIconView@@UAEXHH@Z 100227f6 f   qt-mt323:qt-mt323.dll
 0001:000217fc       ?drawContents@QIconView@@EAEXPAVQPainter@@@Z 100227fc f   qt-mt323:qt-mt323.dll
 0001:00021802       ?windowActivationChange@QIconView@@MAEX_N@Z 10022802 f   qt-mt323:qt-mt323.dll
 0001:00021808       ?styleChange@QIconView@@MAEXAAVQStyle@@@Z 10022808 f   qt-mt323:qt-mt323.dll
 0001:0002180e       ?showEvent@QIconView@@UAEXPAVQShowEvent@@@Z 1002280e f   qt-mt323:qt-mt323.dll
 0001:00021814       ?resizeEvent@QIconView@@MAEXPAVQResizeEvent@@@Z 10022814 f   qt-mt323:qt-mt323.dll
 0001:0002181a       ?enterEvent@QIconView@@MAEXPAVQEvent@@@Z 1002281a f   qt-mt323:qt-mt323.dll
 0001:00021820       ?focusOutEvent@QIconView@@MAEXPAVQFocusEvent@@@Z 10022820 f   qt-mt323:qt-mt323.dll
 0001:00021826       ?focusInEvent@QIconView@@MAEXPAVQFocusEvent@@@Z 10022826 f   qt-mt323:qt-mt323.dll
 0001:0002182c       ?keyPressEvent@QIconView@@MAEXPAVQKeyEvent@@@Z 1002282c f   qt-mt323:qt-mt323.dll
 0001:00021832       ?minimumSizeHint@QIconView@@UBE?AVQSize@@XZ 10022832 f   qt-mt323:qt-mt323.dll
 0001:00021838       ?sizeHint@QIconView@@UBE?AVQSize@@XZ 10022838 f   qt-mt323:qt-mt323.dll
 0001:0002183e       ?setFont@QIconView@@UAEXABVQFont@@@Z 1002283e f   qt-mt323:qt-mt323.dll
 0001:00021844       ?setPalette@QIconView@@UAEXABVQPalette@@@Z 10022844 f   qt-mt323:qt-mt323.dll
 0001:0002184a       ?eventFilter@QIconView@@UAE_NPAVQObject@@PAVQEvent@@@Z 1002284a f   qt-mt323:qt-mt323.dll
 0001:00021850       ?qt_property@QIconView@@UAE_NHHPAVQVariant@@@Z 10022850 f   qt-mt323:qt-mt323.dll
 0001:00021856       ?qt_emit@QIconView@@UAE_NHPAUQUObject@@@Z 10022856 f   qt-mt323:qt-mt323.dll
 0001:0002185c       ?qt_invoke@QIconView@@UAE_NHPAUQUObject@@@Z 1002285c f   qt-mt323:qt-mt323.dll
 0001:00021862       ?qt_cast@QIconView@@UAEPAXPBD@Z 10022862 f   qt-mt323:qt-mt323.dll
 0001:00021868       ?className@QIconView@@UBEPBDXZ 10022868 f   qt-mt323:qt-mt323.dll
 0001:0002186e       ?metaObject@QIconView@@UBEPAVQMetaObject@@XZ 1002286e f   qt-mt323:qt-mt323.dll
 0001:00021874       ?paintEmptyArea@QListView@@MAEXPAVQPainter@@ABVQRect@@@Z 10022874 f   qt-mt323:qt-mt323.dll
 0001:0002187a       ?startDrag@QListView@@MAEXXZ 1002287a f   qt-mt323:qt-mt323.dll
 0001:00021880       ?dragObject@QListView@@MAEPAVQDragObject@@XZ 10022880 f   qt-mt323:qt-mt323.dll
 0001:00021886       ?selectAll@QListView@@UAEX_N@Z 10022886 f   qt-mt323:qt-mt323.dll
 0001:0002188c       ?invertSelection@QListView@@UAEXXZ 1002288c f   qt-mt323:qt-mt323.dll
 0001:00021892       ?clear@QListView@@UAEXXZ   10022892 f   qt-mt323:qt-mt323.dll
 0001:00021898       ?setDefaultRenameAction@QListView@@UAEXW4RenameAction@1@@Z 10022898 f   qt-mt323:qt-mt323.dll
 0001:0002189e       ?setResizeMode@QListView@@UAEXW4ResizeMode@1@@Z 1002289e f   qt-mt323:qt-mt323.dll
 0001:000218a4       ?setShowToolTips@QListView@@UAEX_N@Z 100228a4 f   qt-mt323:qt-mt323.dll
 0001:000218aa       ?setShowSortIndicator@QListView@@UAEX_N@Z 100228aa f   qt-mt323:qt-mt323.dll
 0001:000218b0       ?sort@QListView@@UAEXXZ    100228b0 f   qt-mt323:qt-mt323.dll
 0001:000218b6       ?setSorting@QListView@@UAEXH_N@Z 100228b6 f   qt-mt323:qt-mt323.dll
 0001:000218bc       ?setRootIsDecorated@QListView@@UAEX_N@Z 100228bc f   qt-mt323:qt-mt323.dll
 0001:000218c2       ?setItemMargin@QListView@@UAEXH@Z 100228c2 f   qt-mt323:qt-mt323.dll
 0001:000218c8       ?setAllColumnsShowFocus@QListView@@UAEX_N@Z 100228c8 f   qt-mt323:qt-mt323.dll
 0001:000218ce       ?setCurrentItem@QListView@@UAEXPAVQListViewItem@@@Z 100228ce f   qt-mt323:qt-mt323.dll
 0001:000218d4       ?setOpen@QListView@@UAEXPAVQListViewItem@@_N@Z 100228d4 f   qt-mt323:qt-mt323.dll
 0001:000218da       ?setSelected@QListView@@UAEXPAVQListViewItem@@_N@Z 100228da f   qt-mt323:qt-mt323.dll
 0001:000218e0       ?clearSelection@QListView@@UAEXXZ 100228e0 f   qt-mt323:qt-mt323.dll
 0001:000218e6       ?setMultiSelection@QListView@@UAEX_N@Z 100228e6 f   qt-mt323:qt-mt323.dll
 0001:000218ec       ?setColumnAlignment@QListView@@UAEXHH@Z 100228ec f   qt-mt323:qt-mt323.dll
 0001:000218f2       ?setColumnWidthMode@QListView@@UAEXHW4WidthMode@1@@Z 100228f2 f   qt-mt323:qt-mt323.dll
 0001:000218f8       ?setColumnWidth@QListView@@UAEXHH@Z 100228f8 f   qt-mt323:qt-mt323.dll
 0001:000218fe       ?setColumnText@QListView@@UAEXHABVQString@@@Z 100228fe f   qt-mt323:qt-mt323.dll
 0001:00021904       ?setColumnText@QListView@@UAEXHABVQIconSet@@ABVQString@@@Z 10022904 f   qt-mt323:qt-mt323.dll
 0001:0002190a       ?removeColumn@QListView@@UAEXH@Z 1002290a f   qt-mt323:qt-mt323.dll
 0001:00021910       ?addColumn@QListView@@UAEHABVQString@@H@Z 10022910 f   qt-mt323:qt-mt323.dll
 0001:00021916       ?addColumn@QListView@@UAEHABVQIconSet@@ABVQString@@H@Z 10022916 f   qt-mt323:qt-mt323.dll
 0001:0002191c       ?removeItem@QListView@@UAEXPAVQListViewItem@@@Z 1002291c f   qt-mt323:qt-mt323.dll
 0001:00021922       ?takeItem@QListView@@UAEXPAVQListViewItem@@@Z 10022922 f   qt-mt323:qt-mt323.dll
 0001:00021928       ?insertItem@QListView@@UAEXPAVQListViewItem@@@Z 10022928 f   qt-mt323:qt-mt323.dll
 0001:0002192e       ?setTreeStepSize@QListView@@UAEXH@Z 1002292e f   qt-mt323:qt-mt323.dll
 0001:00021934       ?viewportResizeEvent@QListView@@MAEXPAVQResizeEvent@@@Z 10022934 f   qt-mt323:qt-mt323.dll
 0001:0002193a       ?contentsContextMenuEvent@QListView@@MAEXPAVQContextMenuEvent@@@Z 1002293a f   qt-mt323:qt-mt323.dll
 0001:00021940       ?contentsDropEvent@QListView@@MAEXPAVQDropEvent@@@Z 10022940 f   qt-mt323:qt-mt323.dll
 0001:00021946       ?contentsDragLeaveEvent@QListView@@MAEXPAVQDragLeaveEvent@@@Z 10022946 f   qt-mt323:qt-mt323.dll
 0001:0002194c       ?contentsDragMoveEvent@QListView@@MAEXPAVQDragMoveEvent@@@Z 1002294c f   qt-mt323:qt-mt323.dll
 0001:00021952       ?contentsDragEnterEvent@QListView@@MAEXPAVQDragEnterEvent@@@Z 10022952 f   qt-mt323:qt-mt323.dll
 0001:00021958       ?contentsMouseMoveEvent@QListView@@MAEXPAVQMouseEvent@@@Z 10022958 f   qt-mt323:qt-mt323.dll
 0001:0002195e       ?contentsMouseDoubleClickEvent@QListView@@MAEXPAVQMouseEvent@@@Z 1002295e f   qt-mt323:qt-mt323.dll
 0001:00021964       ?contentsMouseReleaseEvent@QListView@@MAEXPAVQMouseEvent@@@Z 10022964 f   qt-mt323:qt-mt323.dll
 0001:0002196a       ?contentsMousePressEvent@QListView@@MAEXPAVQMouseEvent@@@Z 1002296a f   qt-mt323:qt-mt323.dll
 0001:00021970       ?drawContentsOffset@QListView@@MAEXPAVQPainter@@HHHHHH@Z 10022970 f   qt-mt323:qt-mt323.dll
 0001:00021976       ?setContentsPos@QListView@@UAEXHH@Z 10022976 f   qt-mt323:qt-mt323.dll
 0001:0002197c       ?windowActivationChange@QListView@@MAEX_N@Z 1002297c f   qt-mt323:qt-mt323.dll
 0001:00021982       ?styleChange@QListView@@MAEXAAVQStyle@@@Z 10022982 f   qt-mt323:qt-mt323.dll
 0001:00021988       ?showEvent@QListView@@MAEXPAVQShowEvent@@@Z 10022988 f   qt-mt323:qt-mt323.dll
 0001:0002198e       ?resizeEvent@QListView@@MAEXPAVQResizeEvent@@@Z 1002298e f   qt-mt323:qt-mt323.dll
 0001:00021994       ?focusOutEvent@QListView@@MAEXPAVQFocusEvent@@@Z 10022994 f   qt-mt323:qt-mt323.dll
 0001:0002199a       ?focusInEvent@QListView@@MAEXPAVQFocusEvent@@@Z 1002299a f   qt-mt323:qt-mt323.dll
 0001:000219a0       ?keyPressEvent@QListView@@MAEXPAVQKeyEvent@@@Z 100229a0 f   qt-mt323:qt-mt323.dll
 0001:000219a6       ?minimumSizeHint@QListView@@UBE?AVQSize@@XZ 100229a6 f   qt-mt323:qt-mt323.dll
 0001:000219ac       ?sizeHint@QListView@@UBE?AVQSize@@XZ 100229ac f   qt-mt323:qt-mt323.dll
 0001:000219b2       ?show@QListView@@UAEXXZ    100229b2 f   qt-mt323:qt-mt323.dll
 0001:000219b8       ?setFont@QListView@@UAEXABVQFont@@@Z 100229b8 f   qt-mt323:qt-mt323.dll
 0001:000219be       ?setPalette@QListView@@UAEXABVQPalette@@@Z 100229be f   qt-mt323:qt-mt323.dll
 0001:000219c4       ?eventFilter@QListView@@UAE_NPAVQObject@@PAVQEvent@@@Z 100229c4 f   qt-mt323:qt-mt323.dll
 0001:000219ca       ?qt_property@QListView@@UAE_NHHPAVQVariant@@@Z 100229ca f   qt-mt323:qt-mt323.dll
 0001:000219d0       ?qt_emit@QListView@@UAE_NHPAUQUObject@@@Z 100229d0 f   qt-mt323:qt-mt323.dll
 0001:000219d6       ?qt_invoke@QListView@@UAE_NHPAUQUObject@@@Z 100229d6 f   qt-mt323:qt-mt323.dll
 0001:000219dc       ?qt_cast@QListView@@UAEPAXPBD@Z 100229dc f   qt-mt323:qt-mt323.dll
 0001:000219e2       ?className@QListView@@UBEPBDXZ 100229e2 f   qt-mt323:qt-mt323.dll
 0001:000219e8       ?metaObject@QListView@@UBEPAVQMetaObject@@XZ 100229e8 f   qt-mt323:qt-mt323.dll
 0001:000219ee       ?setOn@QToolButton@@UAEX_N@Z 100229ee f   qt-mt323:qt-mt323.dll
 0001:000219f4       ?setToggleButton@QToolButton@@UAEX_N@Z 100229f4 f   qt-mt323:qt-mt323.dll
 0001:000219fa       ?setTextLabel@QToolButton@@UAEXABVQString@@_N@Z 100229fa f   qt-mt323:qt-mt323.dll
 0001:00021a00       ?setUsesTextLabel@QToolButton@@UAEX_N@Z 10022a00 f   qt-mt323:qt-mt323.dll
 0001:00021a06       ?setUsesBigPixmap@QToolButton@@UAEX_N@Z 10022a06 f   qt-mt323:qt-mt323.dll
 0001:00021a0c       ?setIconSet@QToolButton@@UAEXABVQIconSet@@@Z 10022a0c f   qt-mt323:qt-mt323.dll
 0001:00021a12       ?drawButtonLabel@QToolButton@@MAEXPAVQPainter@@@Z 10022a12 f   qt-mt323:qt-mt323.dll
 0001:00021a18       ?drawButton@QToolButton@@MAEXPAVQPainter@@@Z 10022a18 f   qt-mt323:qt-mt323.dll
 0001:00021a1e       ?setText@QToolButton@@UAEXABVQString@@@Z 10022a1e f   qt-mt323:qt-mt323.dll
 0001:00021a24       ?paletteChange@QToolButton@@MAEXABVQPalette@@@Z 10022a24 f   qt-mt323:qt-mt323.dll
 0001:00021a2a       ?moveEvent@QToolButton@@MAEXPAVQMoveEvent@@@Z 10022a2a f   qt-mt323:qt-mt323.dll
 0001:00021a30       ?leaveEvent@QToolButton@@MAEXPAVQEvent@@@Z 10022a30 f   qt-mt323:qt-mt323.dll
 0001:00021a36       ?enterEvent@QToolButton@@MAEXPAVQEvent@@@Z 10022a36 f   qt-mt323:qt-mt323.dll
 0001:00021a3c       ?mousePressEvent@QToolButton@@MAEXPAVQMouseEvent@@@Z 10022a3c f   qt-mt323:qt-mt323.dll
 0001:00021a42       ?minimumSizeHint@QToolButton@@UBE?AVQSize@@XZ 10022a42 f   qt-mt323:qt-mt323.dll
 0001:00021a48       ?sizeHint@QToolButton@@UBE?AVQSize@@XZ 10022a48 f   qt-mt323:qt-mt323.dll
 0001:00021a4e       ?eventFilter@QToolButton@@MAE_NPAVQObject@@PAVQEvent@@@Z 10022a4e f   qt-mt323:qt-mt323.dll
 0001:00021a54       ?qt_property@QToolButton@@UAE_NHHPAVQVariant@@@Z 10022a54 f   qt-mt323:qt-mt323.dll
 0001:00021a5a       ?qt_emit@QToolButton@@UAE_NHPAUQUObject@@@Z 10022a5a f   qt-mt323:qt-mt323.dll
 0001:00021a60       ?qt_invoke@QToolButton@@UAE_NHPAUQUObject@@@Z 10022a60 f   qt-mt323:qt-mt323.dll
 0001:00021a66       ?qt_cast@QToolButton@@UAEPAXPBD@Z 10022a66 f   qt-mt323:qt-mt323.dll
 0001:00021a6c       ?className@QToolButton@@UBEPBDXZ 10022a6c f   qt-mt323:qt-mt323.dll
 0001:00021a72       ?metaObject@QToolButton@@UBEPAVQMetaObject@@XZ 10022a72 f   qt-mt323:qt-mt323.dll
 0001:00021a78       ?setToolTipGroup@QMainWindow@@EAEXPAVQToolTipGroup@@@Z 10022a78 f   qt-mt323:qt-mt323.dll
 0001:00021a7e       ?setStatusBar@QMainWindow@@EAEXPAVQStatusBar@@@Z 10022a7e f   qt-mt323:qt-mt323.dll
 0001:00021a84       ?setMenuBar@QMainWindow@@EAEXPAVQMenuBar@@@Z 10022a84 f   qt-mt323:qt-mt323.dll
 0001:00021a8a       ?showDockMenu@QMainWindow@@MAE_NABVQPoint@@@Z 10022a8a f   qt-mt323:qt-mt323.dll
 0001:00021a90       ?setUpLayout@QMainWindow@@MAEXXZ 10022a90 f   qt-mt323:qt-mt323.dll
 0001:00021a96       ?customize@QMainWindow@@UAEXXZ 10022a96 f   qt-mt323:qt-mt323.dll
 0001:00021a9c       ?setAppropriate@QMainWindow@@UAEXPAVQDockWindow@@_N@Z 10022a9c f   qt-mt323:qt-mt323.dll
 0001:00021aa2       ?whatsThis@QMainWindow@@UAEXXZ 10022aa2 f   qt-mt323:qt-mt323.dll
 0001:00021aa8       ?setDockMenuEnabled@QMainWindow@@UAEX_N@Z 10022aa8 f   qt-mt323:qt-mt323.dll
 0001:00021aae       ?setOpaqueMoving@QMainWindow@@UAEX_N@Z 10022aae f   qt-mt323:qt-mt323.dll
 0001:00021ab4       ?setDockWindowsMovable@QMainWindow@@UAEX_N@Z 10022ab4 f   qt-mt323:qt-mt323.dll
 0001:00021aba       ?setUsesTextLabel@QMainWindow@@UAEX_N@Z 10022aba f   qt-mt323:qt-mt323.dll
 0001:00021ac0       ?setUsesBigPixmaps@QMainWindow@@UAEX_N@Z 10022ac0 f   qt-mt323:qt-mt323.dll
 0001:00021ac6       ?setRightJustification@QMainWindow@@UAEX_N@Z 10022ac6 f   qt-mt323:qt-mt323.dll
 0001:00021acc       ?isCustomizable@QMainWindow@@UBE_NXZ 10022acc f   qt-mt323:qt-mt323.dll
 0001:00021ad2       ?dockingArea@QMainWindow@@UAEPAVQDockArea@@ABVQPoint@@@Z 10022ad2 f   qt-mt323:qt-mt323.dll
 0001:00021ad8       ?removeDockWindow@QMainWindow@@UAEXPAVQDockWindow@@@Z 10022ad8 f   qt-mt323:qt-mt323.dll
 0001:00021ade       ?moveDockWindow@QMainWindow@@UAEXPAVQDockWindow@@W4Dock@Qt@@@Z 10022ade f   qt-mt323:qt-mt323.dll
 0001:00021ae4       ?moveDockWindow@QMainWindow@@UAEXPAVQDockWindow@@W4Dock@Qt@@_NHH@Z 10022ae4 f   qt-mt323:qt-mt323.dll
 0001:00021aea       ?addDockWindow@QMainWindow@@UAEXPAVQDockWindow@@W4Dock@Qt@@_N@Z 10022aea f   qt-mt323:qt-mt323.dll
 0001:00021af0       ?addDockWindow@QMainWindow@@UAEXPAVQDockWindow@@ABVQString@@W4Dock@Qt@@_N@Z 10022af0 f   qt-mt323:qt-mt323.dll
 0001:00021af6       ?setDockEnabled@QMainWindow@@UAEXW4Dock@Qt@@_N@Z 10022af6 f   qt-mt323:qt-mt323.dll
 0001:00021afc       ?setDockEnabled@QMainWindow@@UAEXPAVQDockWindow@@W4Dock@Qt@@_N@Z 10022afc f   qt-mt323:qt-mt323.dll
 0001:00021b02       ?setCentralWidget@QMainWindow@@UAEXPAVQWidget@@@Z 10022b02 f   qt-mt323:qt-mt323.dll
 0001:00021b08       ?styleChange@QMainWindow@@MAEXAAVQStyle@@@Z 10022b08 f   qt-mt323:qt-mt323.dll
 0001:00021b0e       ?paintEvent@QMainWindow@@MAEXPAVQPaintEvent@@@Z 10022b0e f   qt-mt323:qt-mt323.dll
 0001:00021b14       ?minimumSizeHint@QMainWindow@@UBE?AVQSize@@XZ 10022b14 f   qt-mt323:qt-mt323.dll
 0001:00021b1a       ?sizeHint@QMainWindow@@UBE?AVQSize@@XZ 10022b1a f   qt-mt323:qt-mt323.dll
 0001:00021b20       ?hide@QMainWindow@@UAEXXZ  10022b20 f   qt-mt323:qt-mt323.dll
 0001:00021b26       ?show@QMainWindow@@UAEXXZ  10022b26 f   qt-mt323:qt-mt323.dll
 0001:00021b2c       ?childEvent@QMainWindow@@MAEXPAVQChildEvent@@@Z 10022b2c f   qt-mt323:qt-mt323.dll
 0001:00021b32       ?eventFilter@QMainWindow@@UAE_NPAVQObject@@PAVQEvent@@@Z 10022b32 f   qt-mt323:qt-mt323.dll
 0001:00021b38       ?event@QMainWindow@@MAE_NPAVQEvent@@@Z 10022b38 f   qt-mt323:qt-mt323.dll
 0001:00021b3e       ?qt_property@QMainWindow@@UAE_NHHPAVQVariant@@@Z 10022b3e f   qt-mt323:qt-mt323.dll
 0001:00021b44       ?qt_emit@QMainWindow@@UAE_NHPAUQUObject@@@Z 10022b44 f   qt-mt323:qt-mt323.dll
 0001:00021b4a       ?qt_invoke@QMainWindow@@UAE_NHPAUQUObject@@@Z 10022b4a f   qt-mt323:qt-mt323.dll
 0001:00021b50       ?qt_cast@QMainWindow@@UAEPAXPBD@Z 10022b50 f   qt-mt323:qt-mt323.dll
 0001:00021b56       ?className@QMainWindow@@UBEPBDXZ 10022b56 f   qt-mt323:qt-mt323.dll
 0001:00021b5c       ?metaObject@QMainWindow@@UBEPAVQMetaObject@@XZ 10022b5c f   qt-mt323:qt-mt323.dll
 0001:00021b62       ?className@QDialog@@UBEPBDXZ 10022b62 f   qt-mt323:qt-mt323.dll
 0001:00021b68       ?metaObject@QDialog@@UBEPAVQMetaObject@@XZ 10022b68 f   qt-mt323:qt-mt323.dll
 0001:00021b6e       ?qt_property@QVBox@@UAE_NHHPAVQVariant@@@Z 10022b6e f   qt-mt323:qt-mt323.dll
 0001:00021b74       ?qt_emit@QVBox@@UAE_NHPAUQUObject@@@Z 10022b74 f   qt-mt323:qt-mt323.dll
 0001:00021b7a       ?qt_invoke@QVBox@@UAE_NHPAUQUObject@@@Z 10022b7a f   qt-mt323:qt-mt323.dll
 0001:00021b80       ?qt_cast@QVBox@@UAEPAXPBD@Z 10022b80 f   qt-mt323:qt-mt323.dll
 0001:00021b86       ?className@QVBox@@UBEPBDXZ 10022b86 f   qt-mt323:qt-mt323.dll
 0001:00021b8c       ?metaObject@QVBox@@UBEPAVQMetaObject@@XZ 10022b8c f   qt-mt323:qt-mt323.dll
 0001:00021b92       ?className@QWidget@@UBEPBDXZ 10022b92 f   qt-mt323:qt-mt323.dll
 0001:00021b98       ?metaObject@QWidget@@UBEPAVQMetaObject@@XZ 10022b98 f   qt-mt323:qt-mt323.dll
 0001:00021b9e       ?moveFocus@QButtonGroup@@UAEXH@Z 10022b9e f   qt-mt323:qt-mt323.dll
 0001:00021ba4       ?setButton@QButtonGroup@@UAEXH@Z 10022ba4 f   qt-mt323:qt-mt323.dll
 0001:00021baa       ?setRadioButtonExclusive@QButtonGroup@@UAEX_N@Z 10022baa f   qt-mt323:qt-mt323.dll
 0001:00021bb0       ?setExclusive@QButtonGroup@@UAEX_N@Z 10022bb0 f   qt-mt323:qt-mt323.dll
 0001:00021bb6       ?event@QButtonGroup@@MAE_NPAVQEvent@@@Z 10022bb6 f   qt-mt323:qt-mt323.dll
 0001:00021bbc       ?qt_property@QButtonGroup@@UAE_NHHPAVQVariant@@@Z 10022bbc f   qt-mt323:qt-mt323.dll
 0001:00021bc2       ?qt_emit@QButtonGroup@@UAE_NHPAUQUObject@@@Z 10022bc2 f   qt-mt323:qt-mt323.dll
 0001:00021bc8       ?qt_invoke@QButtonGroup@@UAE_NHPAUQUObject@@@Z 10022bc8 f   qt-mt323:qt-mt323.dll
 0001:00021bce       ?qt_cast@QButtonGroup@@UAEPAXPBD@Z 10022bce f   qt-mt323:qt-mt323.dll
 0001:00021bd4       ?className@QButtonGroup@@UBEPBDXZ 10022bd4 f   qt-mt323:qt-mt323.dll
 0001:00021bda       ?metaObject@QButtonGroup@@UBEPAVQMetaObject@@XZ 10022bda f   qt-mt323:qt-mt323.dll
 0001:00021be0       ?setIndicator@QProgressBar@@MAE_NAAVQString@@HH@Z 10022be0 f   qt-mt323:qt-mt323.dll
 0001:00021be6       ?setProgress@QProgressBar@@UAEXH@Z 10022be6 f   qt-mt323:qt-mt323.dll
 0001:00021bec       ?setTotalSteps@QProgressBar@@UAEXH@Z 10022bec f   qt-mt323:qt-mt323.dll
 0001:00021bf2       ?drawContents@QProgressBar@@MAEXPAVQPainter@@@Z 10022bf2 f   qt-mt323:qt-mt323.dll
 0001:00021bf8       ?styleChange@QProgressBar@@MAEXAAVQStyle@@@Z 10022bf8 f   qt-mt323:qt-mt323.dll
 0001:00021bfe       ?minimumSizeHint@QProgressBar@@UBE?AVQSize@@XZ 10022bfe f   qt-mt323:qt-mt323.dll
 0001:00021c04       ?sizeHint@QProgressBar@@UBE?AVQSize@@XZ 10022c04 f   qt-mt323:qt-mt323.dll
 0001:00021c0a       ?show@QProgressBar@@UAEXXZ 10022c0a f   qt-mt323:qt-mt323.dll
 0001:00021c10       ?qt_property@QProgressBar@@UAE_NHHPAVQVariant@@@Z 10022c10 f   qt-mt323:qt-mt323.dll
 0001:00021c16       ?qt_emit@QProgressBar@@UAE_NHPAUQUObject@@@Z 10022c16 f   qt-mt323:qt-mt323.dll
 0001:00021c1c       ?qt_invoke@QProgressBar@@UAE_NHPAUQUObject@@@Z 10022c1c f   qt-mt323:qt-mt323.dll
 0001:00021c22       ?qt_cast@QProgressBar@@UAEPAXPBD@Z 10022c22 f   qt-mt323:qt-mt323.dll
 0001:00021c28       ?className@QProgressBar@@UBEPBDXZ 10022c28 f   qt-mt323:qt-mt323.dll
 0001:00021c2e       ?metaObject@QProgressBar@@UBEPAVQMetaObject@@XZ 10022c2e f   qt-mt323:qt-mt323.dll
 0001:00021c34       ?setNum@QLabel@@UAEXH@Z    10022c34 f   qt-mt323:qt-mt323.dll
 0001:00021c3a       ?setNum@QLabel@@UAEXN@Z    10022c3a f   qt-mt323:qt-mt323.dll
 0001:00021c40       ?setMovie@QLabel@@UAEXABVQMovie@@@Z 10022c40 f   qt-mt323:qt-mt323.dll
 0001:00021c46       ?setPicture@QLabel@@UAEXABVQPicture@@@Z 10022c46 f   qt-mt323:qt-mt323.dll
 0001:00021c4c       ?setPixmap@QLabel@@UAEXABVQPixmap@@@Z 10022c4c f   qt-mt323:qt-mt323.dll
 0001:00021c52       ?setText@QLabel@@UAEXABVQString@@@Z 10022c52 f   qt-mt323:qt-mt323.dll
 0001:00021c58       ?setBuddy@QLabel@@UAEXPAVQWidget@@@Z 10022c58 f   qt-mt323:qt-mt323.dll
 0001:00021c5e       ?setAutoResize@QLabel@@UAEX_N@Z 10022c5e f   qt-mt323:qt-mt323.dll
 0001:00021c64       ?setAlignment@QLabel@@UAEXH@Z 10022c64 f   qt-mt323:qt-mt323.dll
 0001:00021c6a       ?drawContents@QLabel@@MAEXPAVQPainter@@@Z 10022c6a f   qt-mt323:qt-mt323.dll
 0001:00021c70       ?fontChange@QLabel@@MAEXABVQFont@@@Z 10022c70 f   qt-mt323:qt-mt323.dll
 0001:00021c76       ?resizeEvent@QLabel@@MAEXPAVQResizeEvent@@@Z 10022c76 f   qt-mt323:qt-mt323.dll
 0001:00021c7c       ?heightForWidth@QLabel@@UBEHH@Z 10022c7c f   qt-mt323:qt-mt323.dll
 0001:00021c82       ?minimumSizeHint@QLabel@@UBE?AVQSize@@XZ 10022c82 f   qt-mt323:qt-mt323.dll
 0001:00021c88       ?sizeHint@QLabel@@UBE?AVQSize@@XZ 10022c88 f   qt-mt323:qt-mt323.dll
 0001:00021c8e       ?setFont@QLabel@@UAEXABVQFont@@@Z 10022c8e f   qt-mt323:qt-mt323.dll
 0001:00021c94       ?qt_property@QLabel@@UAE_NHHPAVQVariant@@@Z 10022c94 f   qt-mt323:qt-mt323.dll
 0001:00021c9a       ?qt_emit@QLabel@@UAE_NHPAUQUObject@@@Z 10022c9a f   qt-mt323:qt-mt323.dll
 0001:00021ca0       ?qt_invoke@QLabel@@UAE_NHPAUQUObject@@@Z 10022ca0 f   qt-mt323:qt-mt323.dll
 0001:00021ca6       ?qt_cast@QLabel@@UAEPAXPBD@Z 10022ca6 f   qt-mt323:qt-mt323.dll
 0001:00021cac       ?className@QLabel@@UBEPBDXZ 10022cac f   qt-mt323:qt-mt323.dll
 0001:00021cb2       ?metaObject@QLabel@@UBEPAVQMetaObject@@XZ 10022cb2 f   qt-mt323:qt-mt323.dll
 0001:00021cb8       ?outOfRange@QDateEdit@@MBE_NHHH@Z 10022cb8 f   qt-mt323:qt-mt323.dll
 0001:00021cbe       ?fix@QDateEdit@@MAEXXZ     10022cbe f   qt-mt323:qt-mt323.dll
 0001:00021cc4       ?setDay@QDateEdit@@MAEXH@Z 10022cc4 f   qt-mt323:qt-mt323.dll
 0001:00021cca       ?setMonth@QDateEdit@@MAEXH@Z 10022cca f   qt-mt323:qt-mt323.dll
 0001:00021cd0       ?setYear@QDateEdit@@MAEXH@Z 10022cd0 f   qt-mt323:qt-mt323.dll
 0001:00021cd6       ?setSeparator@QDateEdit@@UAEXABVQString@@@Z 10022cd6 f   qt-mt323:qt-mt323.dll
 0001:00021cdc       ?setRange@QDateEdit@@UAEXABVQDate@@0@Z 10022cdc f   qt-mt323:qt-mt323.dll
 0001:00021ce2       ?setMaxValue@QDateEdit@@UAEXABVQDate@@@Z 10022ce2 f   qt-mt323:qt-mt323.dll
 0001:00021ce8       ?setMinValue@QDateEdit@@UAEXABVQDate@@@Z 10022ce8 f   qt-mt323:qt-mt323.dll
 0001:00021cee       ?setAutoAdvance@QDateEdit@@UAEX_N@Z 10022cee f   qt-mt323:qt-mt323.dll
 0001:00021cf4       ?setOrder@QDateEdit@@UAEXW4Order@1@@Z 10022cf4 f   qt-mt323:qt-mt323.dll
 0001:00021cfa       ?setDate@QDateEdit@@UAEXABVQDate@@@Z 10022cfa f   qt-mt323:qt-mt323.dll
 0001:00021d00       ?stepDown@QDateEdit@@MAEXXZ 10022d00 f   qt-mt323:qt-mt323.dll
 0001:00021d06       ?stepUp@QDateEdit@@MAEXXZ  10022d06 f   qt-mt323:qt-mt323.dll
 0001:00021d0c       ?removeLastNumber@QDateEdit@@MAEXH@Z 10022d0c f   qt-mt323:qt-mt323.dll
 0001:00021d12       ?addNumber@QDateEdit@@MAEXHH@Z 10022d12 f   qt-mt323:qt-mt323.dll
 0001:00021d18       ?sectionFormattedText@QDateEdit@@MAE?AVQString@@H@Z 10022d18 f   qt-mt323:qt-mt323.dll
 0001:00021d1e       ?setFocusSection@QDateEdit@@MAE_NH@Z 10022d1e f   qt-mt323:qt-mt323.dll
 0001:00021d24       ?resizeEvent@QDateEdit@@MAEXPAVQResizeEvent@@@Z 10022d24 f   qt-mt323:qt-mt323.dll
 0001:00021d2a       ?minimumSizeHint@QDateEdit@@UBE?AVQSize@@XZ 10022d2a f   qt-mt323:qt-mt323.dll
 0001:00021d30       ?sizeHint@QDateEdit@@UBE?AVQSize@@XZ 10022d30 f   qt-mt323:qt-mt323.dll
 0001:00021d36       ?timerEvent@QDateEdit@@MAEXPAVQTimerEvent@@@Z 10022d36 f   qt-mt323:qt-mt323.dll
 0001:00021d3c       ?event@QDateEdit@@MAE_NPAVQEvent@@@Z 10022d3c f   qt-mt323:qt-mt323.dll
 0001:00021d42       ?qt_property@QDateEdit@@UAE_NHHPAVQVariant@@@Z 10022d42 f   qt-mt323:qt-mt323.dll
 0001:00021d48       ?qt_emit@QDateEdit@@UAE_NHPAUQUObject@@@Z 10022d48 f   qt-mt323:qt-mt323.dll
 0001:00021d4e       ?qt_invoke@QDateEdit@@UAE_NHPAUQUObject@@@Z 10022d4e f   qt-mt323:qt-mt323.dll
 0001:00021d54       ?qt_cast@QDateEdit@@UAEPAXPBD@Z 10022d54 f   qt-mt323:qt-mt323.dll
 0001:00021d5a       ?className@QDateEdit@@UBEPBDXZ 10022d5a f   qt-mt323:qt-mt323.dll
 0001:00021d60       ?metaObject@QDateEdit@@UBEPAVQMetaObject@@XZ 10022d60 f   qt-mt323:qt-mt323.dll
 0001:00021d66       ?qt_property@QFrame@@UAE_NHHPAVQVariant@@@Z 10022d66 f   qt-mt323:qt-mt323.dll
 0001:00021d6c       ?qt_emit@QFrame@@UAE_NHPAUQUObject@@@Z 10022d6c f   qt-mt323:qt-mt323.dll
 0001:00021d72       ?qt_invoke@QFrame@@UAE_NHPAUQUObject@@@Z 10022d72 f   qt-mt323:qt-mt323.dll
 0001:00021d78       ?qt_cast@QFrame@@UAEPAXPBD@Z 10022d78 f   qt-mt323:qt-mt323.dll
 0001:00021d7e       ?className@QFrame@@UBEPBDXZ 10022d7e f   qt-mt323:qt-mt323.dll
 0001:00021d84       ?metaObject@QFrame@@UBEPAVQMetaObject@@XZ 10022d84 f   qt-mt323:qt-mt323.dll
 0001:00021d8a       ?removePage@QTabWidget@@UAEXPAVQWidget@@@Z 10022d8a f   qt-mt323:qt-mt323.dll
 0001:00021d90       ?showPage@QTabWidget@@UAEXPAVQWidget@@@Z 10022d90 f   qt-mt323:qt-mt323.dll
 0001:00021d96       ?insertTab@QTabWidget@@UAEXPAVQWidget@@ABVQString@@H@Z 10022d96 f   qt-mt323:qt-mt323.dll
 0001:00021d9c       ?insertTab@QTabWidget@@UAEXPAVQWidget@@ABVQIconSet@@ABVQString@@H@Z 10022d9c f   qt-mt323:qt-mt323.dll
 0001:00021da2       ?insertTab@QTabWidget@@UAEXPAVQWidget@@PAVQTab@@H@Z 10022da2 f   qt-mt323:qt-mt323.dll
 0001:00021da8       ?addTab@QTabWidget@@UAEXPAVQWidget@@ABVQString@@@Z 10022da8 f   qt-mt323:qt-mt323.dll
 0001:00021dae       ?addTab@QTabWidget@@UAEXPAVQWidget@@ABVQIconSet@@ABVQString@@@Z 10022dae f   qt-mt323:qt-mt323.dll
 0001:00021db4       ?addTab@QTabWidget@@UAEXPAVQWidget@@PAVQTab@@@Z 10022db4 f   qt-mt323:qt-mt323.dll
 0001:00021dba       ?styleChange@QTabWidget@@MAEXAAVQStyle@@@Z 10022dba f   qt-mt323:qt-mt323.dll
 0001:00021dc0       ?updateMask@QTabWidget@@MAEXXZ 10022dc0 f   qt-mt323:qt-mt323.dll
 0001:00021dc6       ?showEvent@QTabWidget@@MAEXPAVQShowEvent@@@Z 10022dc6 f   qt-mt323:qt-mt323.dll
 0001:00021dcc       ?resizeEvent@QTabWidget@@MAEXPAVQResizeEvent@@@Z 10022dcc f   qt-mt323:qt-mt323.dll
 0001:00021dd2       ?minimumSizeHint@QTabWidget@@UBE?AVQSize@@XZ 10022dd2 f   qt-mt323:qt-mt323.dll
 0001:00021dd8       ?sizeHint@QTabWidget@@UBE?AVQSize@@XZ 10022dd8 f   qt-mt323:qt-mt323.dll
 0001:00021dde       ?eventFilter@QTabWidget@@MAE_NPAVQObject@@PAVQEvent@@@Z 10022dde f   qt-mt323:qt-mt323.dll
 0001:00021de4       ?qt_property@QTabWidget@@UAE_NHHPAVQVariant@@@Z 10022de4 f   qt-mt323:qt-mt323.dll
 0001:00021dea       ?qt_emit@QTabWidget@@UAE_NHPAUQUObject@@@Z 10022dea f   qt-mt323:qt-mt323.dll
 0001:00021df0       ?qt_invoke@QTabWidget@@UAE_NHPAUQUObject@@@Z 10022df0 f   qt-mt323:qt-mt323.dll
 0001:00021df6       ?qt_cast@QTabWidget@@UAEPAXPBD@Z 10022df6 f   qt-mt323:qt-mt323.dll
 0001:00021dfc       ?className@QTabWidget@@UBEPBDXZ 10022dfc f   qt-mt323:qt-mt323.dll
 0001:00021e02       ?metaObject@QTabWidget@@UBEPAVQMetaObject@@XZ 10022e02 f   qt-mt323:qt-mt323.dll
 0001:00021e08       ?setChildGeometries@QWidgetStack@@MAEXXZ 10022e08 f   qt-mt323:qt-mt323.dll
 0001:00021e0e       ?frameChanged@QWidgetStack@@MAEXXZ 10022e0e f   qt-mt323:qt-mt323.dll
 0001:00021e14       ?setFrameRect@QWidgetStack@@UAEXABVQRect@@@Z 10022e14 f   qt-mt323:qt-mt323.dll
 0001:00021e1a       ?resizeEvent@QWidgetStack@@MAEXPAVQResizeEvent@@@Z 10022e1a f   qt-mt323:qt-mt323.dll
 0001:00021e20       ?minimumSizeHint@QWidgetStack@@UBE?AVQSize@@XZ 10022e20 f   qt-mt323:qt-mt323.dll
 0001:00021e26       ?sizeHint@QWidgetStack@@UBE?AVQSize@@XZ 10022e26 f   qt-mt323:qt-mt323.dll
 0001:00021e2c       ?show@QWidgetStack@@UAEXXZ 10022e2c f   qt-mt323:qt-mt323.dll
 0001:00021e32       ?childEvent@QWidgetStack@@MAEXPAVQChildEvent@@@Z 10022e32 f   qt-mt323:qt-mt323.dll
 0001:00021e38       ?qt_property@QWidgetStack@@UAE_NHHPAVQVariant@@@Z 10022e38 f   qt-mt323:qt-mt323.dll
 0001:00021e3e       ?qt_emit@QWidgetStack@@UAE_NHPAUQUObject@@@Z 10022e3e f   qt-mt323:qt-mt323.dll
 0001:00021e44       ?qt_invoke@QWidgetStack@@UAE_NHPAUQUObject@@@Z 10022e44 f   qt-mt323:qt-mt323.dll
 0001:00021e4a       ?qt_cast@QWidgetStack@@UAEPAXPBD@Z 10022e4a f   qt-mt323:qt-mt323.dll
 0001:00021e50       ?className@QWidgetStack@@UBEPBDXZ 10022e50 f   qt-mt323:qt-mt323.dll
 0001:00021e56       ?metaObject@QWidgetStack@@UBEPAVQMetaObject@@XZ 10022e56 f   qt-mt323:qt-mt323.dll
 0001:00021e5c       ?createPopupMenu@QLineEdit@@MAEPAVQPopupMenu@@XZ 10022e5c f   qt-mt323:qt-mt323.dll
 0001:00021e62       ?setDragEnabled@QLineEdit@@UAEX_N@Z 10022e62 f   qt-mt323:qt-mt323.dll
 0001:00021e68       ?paste@QLineEdit@@UAEXXZ   10022e68 f   qt-mt323:qt-mt323.dll
 0001:00021e6e       ?copy@QLineEdit@@UBEXXZ    10022e6e f   qt-mt323:qt-mt323.dll
 0001:00021e74       ?cut@QLineEdit@@UAEXXZ     10022e74 f   qt-mt323:qt-mt323.dll
 0001:00021e7a       ?setAlignment@QLineEdit@@UAEXH@Z 10022e7a f   qt-mt323:qt-mt323.dll
 0001:00021e80       ?setCursorPosition@QLineEdit@@UAEXH@Z 10022e80 f   qt-mt323:qt-mt323.dll
 0001:00021e86       ?setSelection@QLineEdit@@UAEXHH@Z 10022e86 f   qt-mt323:qt-mt323.dll
 0001:00021e8c       ?setValidator@QLineEdit@@UAEXPBVQValidator@@@Z 10022e8c f   qt-mt323:qt-mt323.dll
 0001:00021e92       ?setReadOnly@QLineEdit@@UAEX_N@Z 10022e92 f   qt-mt323:qt-mt323.dll
 0001:00021e98       ?setEchoMode@QLineEdit@@UAEXW4EchoMode@1@@Z 10022e98 f   qt-mt323:qt-mt323.dll
 0001:00021e9e       ?setFrame@QLineEdit@@UAEX_N@Z 10022e9e f   qt-mt323:qt-mt323.dll
 0001:00021ea4       ?setMaxLength@QLineEdit@@UAEXH@Z 10022ea4 f   qt-mt323:qt-mt323.dll
 0001:00021eaa       ?redo@QLineEdit@@UAEXXZ    10022eaa f   qt-mt323:qt-mt323.dll
 0001:00021eb0       ?undo@QLineEdit@@UAEXXZ    10022eb0 f   qt-mt323:qt-mt323.dll
 0001:00021eb6       ?clear@QLineEdit@@UAEXXZ   10022eb6 f   qt-mt323:qt-mt323.dll
 0001:00021ebc       ?insert@QLineEdit@@UAEXABVQString@@@Z 10022ebc f   qt-mt323:qt-mt323.dll
 0001:00021ec2       ?clearValidator@QLineEdit@@UAEXXZ 10022ec2 f   qt-mt323:qt-mt323.dll
 0001:00021ec8       ?deselect@QLineEdit@@UAEXXZ 10022ec8 f   qt-mt323:qt-mt323.dll
 0001:00021ece       ?selectAll@QLineEdit@@UAEXXZ 10022ece f   qt-mt323:qt-mt323.dll
 0001:00021ed4       ?setText@QLineEdit@@UAEXABVQString@@@Z 10022ed4 f   qt-mt323:qt-mt323.dll
 0001:00021eda       ?drawContents@QLineEdit@@MAEXPAVQPainter@@@Z 10022eda f   qt-mt323:qt-mt323.dll
 0001:00021ee0       ?windowActivationChange@QLineEdit@@MAEX_N@Z 10022ee0 f   qt-mt323:qt-mt323.dll
 0001:00021ee6       ?dropEvent@QLineEdit@@MAEXPAVQDropEvent@@@Z 10022ee6 f   qt-mt323:qt-mt323.dll
 0001:00021eec       ?dragLeaveEvent@QLineEdit@@MAEXPAVQDragLeaveEvent@@@Z 10022eec f   qt-mt323:qt-mt323.dll
 0001:00021ef2       ?dragMoveEvent@QLineEdit@@MAEXPAVQDragMoveEvent@@@Z 10022ef2 f   qt-mt323:qt-mt323.dll
 0001:00021ef8       ?dragEnterEvent@QLineEdit@@MAEXPAVQDragEnterEvent@@@Z 10022ef8 f   qt-mt323:qt-mt323.dll
 0001:00021efe       ?imEndEvent@QLineEdit@@MAEXPAVQIMEvent@@@Z 10022efe f   qt-mt323:qt-mt323.dll
 0001:00021f04       ?imComposeEvent@QLineEdit@@MAEXPAVQIMEvent@@@Z 10022f04 f   qt-mt323:qt-mt323.dll
 0001:00021f0a       ?imStartEvent@QLineEdit@@MAEXPAVQIMEvent@@@Z 10022f0a f   qt-mt323:qt-mt323.dll
 0001:00021f10       ?contextMenuEvent@QLineEdit@@MAEXPAVQContextMenuEvent@@@Z 10022f10 f   qt-mt323:qt-mt323.dll
 0001:00021f16       ?resizeEvent@QLineEdit@@MAEXPAVQResizeEvent@@@Z 10022f16 f   qt-mt323:qt-mt323.dll
 0001:00021f1c       ?focusOutEvent@QLineEdit@@MAEXPAVQFocusEvent@@@Z 10022f1c f   qt-mt323:qt-mt323.dll
 0001:00021f22       ?focusInEvent@QLineEdit@@MAEXPAVQFocusEvent@@@Z 10022f22 f   qt-mt323:qt-mt323.dll
 0001:00021f28       ?keyPressEvent@QLineEdit@@MAEXPAVQKeyEvent@@@Z 10022f28 f   qt-mt323:qt-mt323.dll
 0001:00021f2e       ?mouseMoveEvent@QLineEdit@@MAEXPAVQMouseEvent@@@Z 10022f2e f   qt-mt323:qt-mt323.dll
 0001:00021f34       ?mouseDoubleClickEvent@QLineEdit@@MAEXPAVQMouseEvent@@@Z 10022f34 f   qt-mt323:qt-mt323.dll
 0001:00021f3a       ?mouseReleaseEvent@QLineEdit@@MAEXPAVQMouseEvent@@@Z 10022f3a f   qt-mt323:qt-mt323.dll
 0001:00021f40       ?mousePressEvent@QLineEdit@@MAEXPAVQMouseEvent@@@Z 10022f40 f   qt-mt323:qt-mt323.dll
 0001:00021f46       ?minimumSizeHint@QLineEdit@@UBE?AVQSize@@XZ 10022f46 f   qt-mt323:qt-mt323.dll
 0001:00021f4c       ?sizeHint@QLineEdit@@UBE?AVQSize@@XZ 10022f4c f   qt-mt323:qt-mt323.dll
 0001:00021f52       ?setFont@QLineEdit@@UAEXABVQFont@@@Z 10022f52 f   qt-mt323:qt-mt323.dll
 0001:00021f58       ?setPalette@QLineEdit@@UAEXABVQPalette@@@Z 10022f58 f   qt-mt323:qt-mt323.dll
 0001:00021f5e       ?event@QLineEdit@@MAE_NPAVQEvent@@@Z 10022f5e f   qt-mt323:qt-mt323.dll
 0001:00021f64       ?qt_property@QLineEdit@@UAE_NHHPAVQVariant@@@Z 10022f64 f   qt-mt323:qt-mt323.dll
 0001:00021f6a       ?qt_emit@QLineEdit@@UAE_NHPAUQUObject@@@Z 10022f6a f   qt-mt323:qt-mt323.dll
 0001:00021f70       ?qt_invoke@QLineEdit@@UAE_NHPAUQUObject@@@Z 10022f70 f   qt-mt323:qt-mt323.dll
 0001:00021f76       ?qt_cast@QLineEdit@@UAEPAXPBD@Z 10022f76 f   qt-mt323:qt-mt323.dll
 0001:00021f7c       ?className@QLineEdit@@UBEPBDXZ 10022f7c f   qt-mt323:qt-mt323.dll
 0001:00021f82       ?metaObject@QLineEdit@@UBEPAVQMetaObject@@XZ 10022f82 f   qt-mt323:qt-mt323.dll
 0001:00021f88       ?reload@QTextBrowser@@UAEXXZ 10022f88 f   qt-mt323:qt-mt323.dll
 0001:00021f8e       ?home@QTextBrowser@@UAEXXZ 10022f8e f   qt-mt323:qt-mt323.dll
 0001:00021f94       ?forward@QTextBrowser@@UAEXXZ 10022f94 f   qt-mt323:qt-mt323.dll
 0001:00021f9a       ?backward@QTextBrowser@@UAEXXZ 10022f9a f   qt-mt323:qt-mt323.dll
 0001:00021fa0       ?setSource@QTextBrowser@@UAEXABVQString@@@Z 10022fa0 f   qt-mt323:qt-mt323.dll
 0001:00021fa6       ?emitLinkClicked@QTextBrowser@@EAEXABVQString@@@Z 10022fa6 f   qt-mt323:qt-mt323.dll
 0001:00021fac       ?emitHighlighted@QTextBrowser@@EAEXABVQString@@@Z 10022fac f   qt-mt323:qt-mt323.dll
 0001:00021fb2       ?linksEnabled@QTextBrowser@@EBE_NXZ 10022fb2 f   qt-mt323:qt-mt323.dll
 0001:00021fb8       ?setText@QTextBrowser@@UAEXABVQString@@0@Z 10022fb8 f   qt-mt323:qt-mt323.dll
 0001:00021fbe       ?keyPressEvent@QTextBrowser@@MAEXPAVQKeyEvent@@@Z 10022fbe f   qt-mt323:qt-mt323.dll
 0001:00021fc4       ?qt_property@QTextBrowser@@UAE_NHHPAVQVariant@@@Z 10022fc4 f   qt-mt323:qt-mt323.dll
 0001:00021fca       ?qt_emit@QTextBrowser@@UAE_NHPAUQUObject@@@Z 10022fca f   qt-mt323:qt-mt323.dll
 0001:00021fd0       ?qt_invoke@QTextBrowser@@UAE_NHPAUQUObject@@@Z 10022fd0 f   qt-mt323:qt-mt323.dll
 0001:00021fd6       ?qt_cast@QTextBrowser@@UAEPAXPBD@Z 10022fd6 f   qt-mt323:qt-mt323.dll
 0001:00021fdc       ?className@QTextBrowser@@UBEPBDXZ 10022fdc f   qt-mt323:qt-mt323.dll
 0001:00021fe2       ?metaObject@QTextBrowser@@UBEPAVQMetaObject@@XZ 10022fe2 f   qt-mt323:qt-mt323.dll
 0001:00021fe8       ?fieldAlignment@QDataTable@@MAEHPBVQSqlField@@@Z 10022fe8 f   qt-mt323:qt-mt323.dll
 0001:00021fee       ?paintField@QDataTable@@MAEXPAVQPainter@@PBVQSqlField@@ABVQRect@@_N@Z 10022fee f   qt-mt323:qt-mt323.dll
 0001:00021ff4       ?beginUpdate@QDataTable@@MAEPAVQWidget@@HH_N@Z 10022ff4 f   qt-mt323:qt-mt323.dll
 0001:00021ffa       ?beginInsert@QDataTable@@MAE_NXZ 10022ffa f   qt-mt323:qt-mt323.dll
 0001:00022000       ?handleError@QDataTable@@MAEXABVQSqlError@@@Z 10023000 f   qt-mt323:qt-mt323.dll
 0001:00022006       ?confirmCancel@QDataTable@@MAE?AW4Confirm@QSql@@W4Op@3@@Z 10023006 f   qt-mt323:qt-mt323.dll
 0001:0002200c       ?confirmEdit@QDataTable@@MAE?AW4Confirm@QSql@@W4Op@3@@Z 1002300c f   qt-mt323:qt-mt323.dll
 0001:00022012       ?deleteCurrent@QDataTable@@MAE_NXZ 10023012 f   qt-mt323:qt-mt323.dll
 0001:00022018       ?updateCurrent@QDataTable@@MAE_NXZ 10023018 f   qt-mt323:qt-mt323.dll
 0001:0002201e       ?insertCurrent@QDataTable@@MAE_NXZ 1002301e f   qt-mt323:qt-mt323.dll
 0001:00022024       ?sortDescending@QDataTable@@UAEXH@Z 10023024 f   qt-mt323:qt-mt323.dll
 0001:0002202a       ?sortAscending@QDataTable@@UAEXH@Z 1002302a f   qt-mt323:qt-mt323.dll
 0001:00022030       ?find@QDataTable@@UAEXABVQString@@_N1@Z 10023030 f   qt-mt323:qt-mt323.dll
 0001:00022036       ?refresh@QDataTable@@UAEXXZ 10023036 f   qt-mt323:qt-mt323.dll
 0001:0002203c       ?setSort@QDataTable@@UAEXABVQStringList@@@Z 1002303c f   qt-mt323:qt-mt323.dll
 0001:00022042       ?setSort@QDataTable@@UAEXABVQSqlIndex@@@Z 10023042 f   qt-mt323:qt-mt323.dll
 0001:00022048       ?setFilter@QDataTable@@UAEXABVQString@@@Z 10023048 f   qt-mt323:qt-mt323.dll
 0001:0002204e       ?setAutoEdit@QDataTable@@UAEX_N@Z 1002304e f   qt-mt323:qt-mt323.dll
 0001:00022054       ?setAutoDelete@QDataTable@@UAEX_N@Z 10023054 f   qt-mt323:qt-mt323.dll
 0001:0002205a       ?setConfirmCancels@QDataTable@@UAEX_N@Z 1002305a f   qt-mt323:qt-mt323.dll
 0001:00022060       ?setConfirmDelete@QDataTable@@UAEX_N@Z 10023060 f   qt-mt323:qt-mt323.dll
 0001:00022066       ?setConfirmUpdate@QDataTable@@UAEX_N@Z 10023066 f   qt-mt323:qt-mt323.dll
 0001:0002206c       ?setConfirmInsert@QDataTable@@UAEX_N@Z 1002306c f   qt-mt323:qt-mt323.dll
 0001:00022072       ?setConfirmEdits@QDataTable@@UAEX_N@Z 10023072 f   qt-mt323:qt-mt323.dll
 0001:00022078       ?setDateFormat@QDataTable@@UAEXW4DateFormat@Qt@@@Z 10023078 f   qt-mt323:qt-mt323.dll
 0001:0002207e       ?setFalseText@QDataTable@@UAEXABVQString@@@Z 1002307e f   qt-mt323:qt-mt323.dll
 0001:00022084       ?setTrueText@QDataTable@@UAEXABVQString@@@Z 10023084 f   qt-mt323:qt-mt323.dll
 0001:0002208a       ?setNullText@QDataTable@@UAEXABVQString@@@Z 1002308a f   qt-mt323:qt-mt323.dll
 0001:00022090       ?setSqlCursor@QDataTable@@UAEXPAVQSqlCursor@@_N1@Z 10023090 f   qt-mt323:qt-mt323.dll
 0001:00022096       ?setColumn@QDataTable@@UAEXIABVQString@@0HABVQIconSet@@@Z 10023096 f   qt-mt323:qt-mt323.dll
 0001:0002209c       ?removeColumn@QDataTable@@UAEXI@Z 1002309c f   qt-mt323:qt-mt323.dll
 0001:000220a2       ?addColumn@QDataTable@@UAEXABVQString@@0HABVQIconSet@@@Z 100230a2 f   qt-mt323:qt-mt323.dll
 0001:000220a8       ?columnClicked@QDataTable@@MAEXH@Z 100230a8 f   qt-mt323:qt-mt323.dll
 0001:000220ae       ?rowIndexChanged@QTable@@MAEXHHH@Z 100230ae f   qt-mt323:qt-mt323.dll
 0001:000220b4       ?columnIndexChanged@QTable@@MAEXHHH@Z 100230b4 f   qt-mt323:qt-mt323.dll
 0001:000220ba       ?rowHeightChanged@QTable@@MAEXH@Z 100230ba f   qt-mt323:qt-mt323.dll
 0001:000220c0       ?columnWidthChanged@QTable@@MAEXH@Z 100230c0 f   qt-mt323:qt-mt323.dll
 0001:000220c6       ?insertWidget@QTable@@MAEXHHPAVQWidget@@@Z 100230c6 f   qt-mt323:qt-mt323.dll
 0001:000220cc       ?resizeData@QDataTable@@MAEXH@Z 100230cc f   qt-mt323:qt-mt323.dll
 0001:000220d2       ?endEdit@QDataTable@@MAEXHH_N0@Z 100230d2 f   qt-mt323:qt-mt323.dll
 0001:000220d8       ?beginEdit@QDataTable@@EAEPAVQWidget@@HH_N@Z 100230d8 f   qt-mt323:qt-mt323.dll
 0001:000220de       ?setCellContentFromEditor@QTable@@MAEXHH@Z 100230de f   qt-mt323:qt-mt323.dll
 0001:000220e4       ?createEditor@QDataTable@@MBEPAVQWidget@@HH_N@Z 100230e4 f   qt-mt323:qt-mt323.dll
 0001:000220ea       ?activateNextCell@QDataTable@@MAEXXZ 100230ea f   qt-mt323:qt-mt323.dll
 0001:000220f0       ?paintEmptyArea@QTable@@MAEXPAVQPainter@@HHHH@Z 100230f0 f   qt-mt323:qt-mt323.dll
 0001:000220f6       ?startDrag@QTable@@MAEXXZ  100230f6 f   qt-mt323:qt-mt323.dll
 0001:000220fc       ?dragObject@QTable@@MAEPAVQDragObject@@XZ 100230fc f   qt-mt323:qt-mt323.dll
 0001:00022102       ?editCell@QTable@@UAEXHH_N@Z 10023102 f   qt-mt323:qt-mt323.dll
 0001:00022108       ?removeColumns@QTable@@UAEXABV?$QMemArray@H@@@Z 10023108 f   qt-mt323:qt-mt323.dll
 0001:0002210e       ?removeColumn@QTable@@UAEXH@Z 1002310e f   qt-mt323:qt-mt323.dll
 0001:00022114       ?removeRows@QTable@@UAEXABV?$QMemArray@H@@@Z 10023114 f   qt-mt323:qt-mt323.dll
 0001:0002211a       ?removeRow@QTable@@UAEXH@Z 1002311a f   qt-mt323:qt-mt323.dll
 0001:00022120       ?insertColumns@QTable@@UAEXHH@Z 10023120 f   qt-mt323:qt-mt323.dll
 0001:00022126       ?insertRows@QTable@@UAEXHH@Z 10023126 f   qt-mt323:qt-mt323.dll
 0001:0002212c       ?setDragEnabled@QTable@@UAEX_N@Z 1002312c f   qt-mt323:qt-mt323.dll
 0001:00022132       ?setColumnReadOnly@QTable@@UAEXH_N@Z 10023132 f   qt-mt323:qt-mt323.dll
 0001:00022138       ?setRowReadOnly@QTable@@UAEXH_N@Z 10023138 f   qt-mt323:qt-mt323.dll
 0001:0002213e       ?setReadOnly@QTable@@UAEX_N@Z 1002313e f   qt-mt323:qt-mt323.dll
 0001:00022144       ?setRowMovingEnabled@QTable@@UAEX_N@Z 10023144 f   qt-mt323:qt-mt323.dll
 0001:0002214a       ?setColumnMovingEnabled@QTable@@UAEX_N@Z 1002314a f   qt-mt323:qt-mt323.dll
 0001:00022150       ?setCurrentCell@QTable@@UAEXHH@Z 10023150 f   qt-mt323:qt-mt323.dll
 0001:00022156       ?setTopMargin@QTable@@UAEXH@Z 10023156 f   qt-mt323:qt-mt323.dll
 0001:0002215c       ?setLeftMargin@QTable@@UAEXH@Z 1002315c f   qt-mt323:qt-mt323.dll
 0001:00022162       ?swapCells@QTable@@UAEXHHHH@Z 10023162 f   qt-mt323:qt-mt323.dll
 0001:00022168       ?swapColumns@QDataTable@@UAEXHH_N@Z 10023168 f   qt-mt323:qt-mt323.dll
 0001:0002216e       ?swapRows@QTable@@UAEXHH_N@Z 1002316e f   qt-mt323:qt-mt323.dll
 0001:00022174       ?setSorting@QTable@@UAEX_N@Z 10023174 f   qt-mt323:qt-mt323.dll
 0001:0002217a       ?setRowStretchable@QTable@@UAEXH_N@Z 1002317a f   qt-mt323:qt-mt323.dll
 0001:00022180       ?setColumnStretchable@QDataTable@@UAEXH_N@Z 10023180 f   qt-mt323:qt-mt323.dll
 0001:00022186       ?adjustRow@QTable@@UAEXH@Z 10023186 f   qt-mt323:qt-mt323.dll
 0001:0002218c       ?adjustColumn@QDataTable@@UAEXH@Z 1002318c f   qt-mt323:qt-mt323.dll
 0001:00022192       ?setRowHeight@QTable@@UAEXHH@Z 10023192 f   qt-mt323:qt-mt323.dll
 0001:00022198       ?setColumnWidth@QDataTable@@UAEXHH@Z 10023198 f   qt-mt323:qt-mt323.dll
 0001:0002219e       ?showColumn@QDataTable@@UAEXH@Z 1002319e f   qt-mt323:qt-mt323.dll
 0001:000221a4       ?showRow@QTable@@UAEXH@Z   100231a4 f   qt-mt323:qt-mt323.dll
 0001:000221aa       ?hideColumn@QDataTable@@UAEXH@Z 100231aa f   qt-mt323:qt-mt323.dll
 0001:000221b0       ?hideRow@QTable@@UAEXH@Z   100231b0 f   qt-mt323:qt-mt323.dll
 0001:000221b6       ?setShowGrid@QTable@@UAEX_N@Z 100231b6 f   qt-mt323:qt-mt323.dll
 0001:000221bc       ?setNumCols@QDataTable@@UAEXH@Z 100231bc f   qt-mt323:qt-mt323.dll
 0001:000221c2       ?setNumRows@QDataTable@@UAEXH@Z 100231c2 f   qt-mt323:qt-mt323.dll
 0001:000221c8       ?setFocusStyle@QTable@@UAEXW4FocusStyle@1@@Z 100231c8 f   qt-mt323:qt-mt323.dll
 0001:000221ce       ?paintFocus@QTable@@UAEXPAVQPainter@@ABVQRect@@@Z 100231ce f   qt-mt323:qt-mt323.dll
 0001:000221d4       ?paintCell@QTable@@UAEXPAVQPainter@@HHABVQRect@@_N@Z 100231d4 f   qt-mt323:qt-mt323.dll
 0001:000221da       ?paintCell@QDataTable@@MAEXPAVQPainter@@HHABVQRect@@_NABVQColorGroup@@@Z 100231da f   qt-mt323:qt-mt323.dll
 0001:000221e0       ?cellRect@QTable@@UBE?AVQRect@@HH@Z 100231e0 f   qt-mt323:qt-mt323.dll
 0001:000221e6       ?clearCellWidget@QTable@@UAEXHH@Z 100231e6 f   qt-mt323:qt-mt323.dll
 0001:000221ec       ?cellWidget@QTable@@UBEPAVQWidget@@HH@Z 100231ec f   qt-mt323:qt-mt323.dll
 0001:000221f2       ?setCellWidget@QTable@@UAEXHHPAVQWidget@@@Z 100231f2 f   qt-mt323:qt-mt323.dll
 0001:000221f8       ?takeItem@QDataTable@@MAEXPAVQTableItem@@@Z 100231f8 f   qt-mt323:qt-mt323.dll
 0001:000221fe       ?sortColumn@QDataTable@@UAEXH_N0@Z 100231fe f   qt-mt323:qt-mt323.dll
 0001:00022204       ?currentSelection@QTable@@UBEHXZ 10023204 f   qt-mt323:qt-mt323.dll
 0001:0002220a       ?removeSelection@QTable@@UAEXABVQTableSelection@@@Z 1002320a f   qt-mt323:qt-mt323.dll
 0001:00022210       ?removeSelection@QTable@@UAEXH@Z 10023210 f   qt-mt323:qt-mt323.dll
 0001:00022216       ?addSelection@QTable@@UAEHABVQTableSelection@@@Z 10023216 f   qt-mt323:qt-mt323.dll
 0001:0002221c       ?numCols@QDataTable@@UBEHXZ 1002321c f   qt-mt323:qt-mt323.dll
 0001:00022222       ?numRows@QDataTable@@UBEHXZ 10023222 f   qt-mt323:qt-mt323.dll
 0001:00022228       ?rowAt@QTable@@UBEHH@Z     10023228 f   qt-mt323:qt-mt323.dll
 0001:0002222e       ?columnAt@QTable@@UBEHH@Z  1002322e f   qt-mt323:qt-mt323.dll
 0001:00022234       ?rowPos@QTable@@UBEHH@Z    10023234 f   qt-mt323:qt-mt323.dll
 0001:0002223a       ?columnPos@QTable@@UBEHH@Z 1002323a f   qt-mt323:qt-mt323.dll
 0001:00022240       ?rowHeight@QTable@@UBEHH@Z 10023240 f   qt-mt323:qt-mt323.dll
 0001:00022246       ?columnWidth@QTable@@UBEHH@Z 10023246 f   qt-mt323:qt-mt323.dll
 0001:0002224c       ?cellGeometry@QTable@@UBE?AVQRect@@HH@Z 1002324c f   qt-mt323:qt-mt323.dll
 0001:00022252       ?clearCell@QDataTable@@MAEXHH@Z 10023252 f   qt-mt323:qt-mt323.dll
 0001:00022258       ?pixmap@QTable@@UBE?AVQPixmap@@HH@Z 10023258 f   qt-mt323:qt-mt323.dll
 0001:0002225e       ?text@QDataTable@@UBE?AVQString@@HH@Z 1002325e f   qt-mt323:qt-mt323.dll
 0001:00022264       ?item@QDataTable@@MBEPAVQTableItem@@HH@Z 10023264 f   qt-mt323:qt-mt323.dll
 0001:0002226a       ?setPixmap@QDataTable@@MAEXHHABVQPixmap@@@Z 1002326a f   qt-mt323:qt-mt323.dll
 0001:00022270       ?setText@QTable@@UAEXHHABVQString@@@Z 10023270 f   qt-mt323:qt-mt323.dll
 0001:00022276       ?setItem@QDataTable@@MAEXHHPAVQTableItem@@@Z 10023276 f   qt-mt323:qt-mt323.dll
 0001:0002227c       ?setSelectionMode@QTable@@UAEXW4SelectionMode@1@@Z 1002327c f   qt-mt323:qt-mt323.dll
 0001:00022282       ?viewportResizeEvent@QTable@@MAEXPAVQResizeEvent@@@Z 10023282 f   qt-mt323:qt-mt323.dll
 0001:00022288       ?contentsContextMenuEvent@QDataTable@@MAEXPAVQContextMenuEvent@@@Z 10023288 f   qt-mt323:qt-mt323.dll
 0001:0002228e       ?contentsDropEvent@QTable@@MAEXPAVQDropEvent@@@Z 1002328e f   qt-mt323:qt-mt323.dll
 0001:00022294       ?contentsDragLeaveEvent@QTable@@MAEXPAVQDragLeaveEvent@@@Z 10023294 f   qt-mt323:qt-mt323.dll
 0001:0002229a       ?contentsDragMoveEvent@QTable@@MAEXPAVQDragMoveEvent@@@Z 1002329a f   qt-mt323:qt-mt323.dll
 0001:000222a0       ?contentsDragEnterEvent@QTable@@MAEXPAVQDragEnterEvent@@@Z 100232a0 f   qt-mt323:qt-mt323.dll
 0001:000222a6       ?contentsMouseMoveEvent@QTable@@MAEXPAVQMouseEvent@@@Z 100232a6 f   qt-mt323:qt-mt323.dll
 0001:000222ac       ?contentsMouseDoubleClickEvent@QTable@@MAEXPAVQMouseEvent@@@Z 100232ac f   qt-mt323:qt-mt323.dll
 0001:000222b2       ?contentsMouseReleaseEvent@QTable@@MAEXPAVQMouseEvent@@@Z 100232b2 f   qt-mt323:qt-mt323.dll
 0001:000222b8       ?contentsMousePressEvent@QDataTable@@MAEXPAVQMouseEvent@@@Z 100232b8 f   qt-mt323:qt-mt323.dll
 0001:000222be       ?drawContents@QDataTable@@MAEXPAVQPainter@@HHHH@Z 100232be f   qt-mt323:qt-mt323.dll
 0001:000222c4       ?drawContents@QTable@@EAEXPAVQPainter@@@Z 100232c4 f   qt-mt323:qt-mt323.dll
 0001:000222ca       ?windowActivationChange@QTable@@MAEX_N@Z 100232ca f   qt-mt323:qt-mt323.dll
 0001:000222d0       ?showEvent@QTable@@MAEXPAVQShowEvent@@@Z 100232d0 f   qt-mt323:qt-mt323.dll
 0001:000222d6       ?resizeEvent@QDataTable@@MAEXPAVQResizeEvent@@@Z 100232d6 f   qt-mt323:qt-mt323.dll
 0001:000222dc       ?paintEvent@QTable@@MAEXPAVQPaintEvent@@@Z 100232dc f   qt-mt323:qt-mt323.dll
 0001:000222e2       ?focusOutEvent@QTable@@MAEXPAVQFocusEvent@@@Z 100232e2 f   qt-mt323:qt-mt323.dll
 0001:000222e8       ?focusInEvent@QTable@@MAEXPAVQFocusEvent@@@Z 100232e8 f   qt-mt323:qt-mt323.dll
 0001:000222ee       ?keyPressEvent@QDataTable@@MAEXPAVQKeyEvent@@@Z 100232ee f   qt-mt323:qt-mt323.dll
 0001:000222f4       ?sizeHint@QTable@@UBE?AVQSize@@XZ 100232f4 f   qt-mt323:qt-mt323.dll
 0001:000222fa       ?setEnabled@QTable@@UAEX_N@Z 100232fa f   qt-mt323:qt-mt323.dll
 0001:00022300       ?eventFilter@QDataTable@@MAE_NPAVQObject@@PAVQEvent@@@Z 10023300 f   qt-mt323:qt-mt323.dll
 0001:00022306       ?qt_property@QDataTable@@UAE_NHHPAVQVariant@@@Z 10023306 f   qt-mt323:qt-mt323.dll
 0001:0002230c       ?qt_emit@QDataTable@@UAE_NHPAUQUObject@@@Z 1002330c f   qt-mt323:qt-mt323.dll
 0001:00022312       ?qt_invoke@QDataTable@@UAE_NHPAUQUObject@@@Z 10023312 f   qt-mt323:qt-mt323.dll
 0001:00022318       ?qt_cast@QDataTable@@UAEPAXPBD@Z 10023318 f   qt-mt323:qt-mt323.dll
 0001:0002231e       ?className@QDataTable@@UBEPBDXZ 1002331e f   qt-mt323:qt-mt323.dll
 0001:00022324       ?metaObject@QDataTable@@UBEPAVQMetaObject@@XZ 10023324 f   qt-mt323:qt-mt323.dll
 0001:0002232a       ?paintCell@QListBox@@MAEXPAVQPainter@@HH@Z 1002332a f   qt-mt323:qt-mt323.dll
 0001:00022330       ?invertSelection@QListBox@@UAEXXZ 10023330 f   qt-mt323:qt-mt323.dll
 0001:00022336       ?selectAll@QListBox@@UAEX_N@Z 10023336 f   qt-mt323:qt-mt323.dll
 0001:0002233c       ?clearSelection@QListBox@@UAEXXZ 1002333c f   qt-mt323:qt-mt323.dll
 0001:00022342       ?ensureCurrentVisible@QListBox@@UAEXXZ 10023342 f   qt-mt323:qt-mt323.dll
 0001:00022348       ?setVariableHeight@QListBox@@UAEX_N@Z 10023348 f   qt-mt323:qt-mt323.dll
 0001:0002234e       ?setVariableWidth@QListBox@@UAEX_N@Z 1002334e f   qt-mt323:qt-mt323.dll
 0001:00022354       ?setRowMode@QListBox@@UAEXW4LayoutMode@1@@Z 10023354 f   qt-mt323:qt-mt323.dll
 0001:0002235a       ?setRowMode@QListBox@@UAEXH@Z 1002335a f   qt-mt323:qt-mt323.dll
 0001:00022360       ?setColumnMode@QListBox@@UAEXW4LayoutMode@1@@Z 10023360 f   qt-mt323:qt-mt323.dll
 0001:00022366       ?setColumnMode@QListBox@@UAEXH@Z 10023366 f   qt-mt323:qt-mt323.dll
 0001:0002236c       ?setSelected@QListBox@@UAEXPAVQListBoxItem@@_N@Z 1002336c f   qt-mt323:qt-mt323.dll
 0001:00022372       ?setSelectionMode@QListBox@@UAEXW4SelectionMode@1@@Z 10023372 f   qt-mt323:qt-mt323.dll
 0001:00022378       ?setBottomItem@QListBox@@UAEXH@Z 10023378 f   qt-mt323:qt-mt323.dll
 0001:0002237e       ?setTopItem@QListBox@@UAEXH@Z 1002337e f   qt-mt323:qt-mt323.dll
 0001:00022384       ?setCurrentItem@QListBox@@UAEXH@Z 10023384 f   qt-mt323:qt-mt323.dll
 0001:0002238a       ?setCurrentItem@QListBox@@UAEXPAVQListBoxItem@@@Z 1002338a f   qt-mt323:qt-mt323.dll
 0001:00022390       ?viewportResizeEvent@QScrollView@@MAEXPAVQResizeEvent@@@Z 10023390 f   qt-mt323:qt-mt323.dll
 0001:00022396       ?viewportPaintEvent@QListBox@@UAEXPAVQPaintEvent@@@Z 10023396 f   qt-mt323:qt-mt323.dll
 0001:0002239c       ?contentsContextMenuEvent@QListBox@@MAEXPAVQContextMenuEvent@@@Z 1002339c f   qt-mt323:qt-mt323.dll
 0001:000223a2       ?contentsWheelEvent@QScrollView@@MAEXPAVQWheelEvent@@@Z 100233a2 f   qt-mt323:qt-mt323.dll
 0001:000223a8       ?contentsDropEvent@QScrollView@@MAEXPAVQDropEvent@@@Z 100233a8 f   qt-mt323:qt-mt323.dll
 0001:000223ae       ?contentsDragLeaveEvent@QScrollView@@MAEXPAVQDragLeaveEvent@@@Z 100233ae f   qt-mt323:qt-mt323.dll
 0001:000223b4       ?contentsDragMoveEvent@QScrollView@@MAEXPAVQDragMoveEvent@@@Z 100233b4 f   qt-mt323:qt-mt323.dll
 0001:000223ba       ?contentsDragEnterEvent@QScrollView@@MAEXPAVQDragEnterEvent@@@Z 100233ba f   qt-mt323:qt-mt323.dll
 0001:000223c0       ?contentsMouseMoveEvent@QScrollView@@MAEXPAVQMouseEvent@@@Z 100233c0 f   qt-mt323:qt-mt323.dll
 0001:000223c6       ?contentsMouseDoubleClickEvent@QScrollView@@MAEXPAVQMouseEvent@@@Z 100233c6 f   qt-mt323:qt-mt323.dll
 0001:000223cc       ?contentsMouseReleaseEvent@QScrollView@@MAEXPAVQMouseEvent@@@Z 100233cc f   qt-mt323:qt-mt323.dll
 0001:000223d2       ?contentsMousePressEvent@QScrollView@@MAEXPAVQMouseEvent@@@Z 100233d2 f   qt-mt323:qt-mt323.dll
 0001:000223d8       ?drawContents@QScrollView@@MAEXPAVQPainter@@HHHH@Z 100233d8 f   qt-mt323:qt-mt323.dll
 0001:000223de       ?drawContents@QScrollView@@EAEXPAVQPainter@@@Z 100233de f   qt-mt323:qt-mt323.dll
 0001:000223e4       ?focusNextPrevChild@QScrollView@@MAE_N_N@Z 100233e4 f   qt-mt323:qt-mt323.dll
 0001:000223ea       ?windowActivationChange@QListBox@@MAEX_N@Z 100233ea f   qt-mt323:qt-mt323.dll
 0001:000223f0       ?showEvent@QListBox@@MAEXPAVQShowEvent@@@Z 100233f0 f   qt-mt323:qt-mt323.dll
 0001:000223f6       ?resizeEvent@QListBox@@MAEXPAVQResizeEvent@@@Z 100233f6 f   qt-mt323:qt-mt323.dll
 0001:000223fc       ?focusOutEvent@QListBox@@MAEXPAVQFocusEvent@@@Z 100233fc f   qt-mt323:qt-mt323.dll
 0001:00022402       ?focusInEvent@QListBox@@MAEXPAVQFocusEvent@@@Z 10023402 f   qt-mt323:qt-mt323.dll
 0001:00022408       ?keyPressEvent@QListBox@@MAEXPAVQKeyEvent@@@Z 10023408 f   qt-mt323:qt-mt323.dll
 0001:0002240e       ?mouseMoveEvent@QListBox@@MAEXPAVQMouseEvent@@@Z 1002340e f   qt-mt323:qt-mt323.dll
 0001:00022414       ?mouseDoubleClickEvent@QListBox@@MAEXPAVQMouseEvent@@@Z 10023414 f   qt-mt323:qt-mt323.dll
 0001:0002241a       ?mouseReleaseEvent@QListBox@@MAEXPAVQMouseEvent@@@Z 1002341a f   qt-mt323:qt-mt323.dll
 0001:00022420       ?mousePressEvent@QListBox@@MAEXPAVQMouseEvent@@@Z 10023420 f   qt-mt323:qt-mt323.dll
 0001:00022426       ?minimumSizeHint@QListBox@@UBE?AVQSize@@XZ 10023426 f   qt-mt323:qt-mt323.dll
 0001:0002242c       ?sizeHint@QListBox@@UBE?AVQSize@@XZ 1002342c f   qt-mt323:qt-mt323.dll
 0001:00022432       ?setFont@QListBox@@UAEXABVQFont@@@Z 10023432 f   qt-mt323:qt-mt323.dll
 0001:00022438       ?setEnabled@QScrollView@@UAEX_N@Z 10023438 f   qt-mt323:qt-mt323.dll
 0001:0002243e       ?eventFilter@QListBox@@MAE_NPAVQObject@@PAVQEvent@@@Z 1002343e f   qt-mt323:qt-mt323.dll
 0001:00022444       ?qt_property@QListBox@@UAE_NHHPAVQVariant@@@Z 10023444 f   qt-mt323:qt-mt323.dll
 0001:0002244a       ?qt_emit@QListBox@@UAE_NHPAUQUObject@@@Z 1002344a f   qt-mt323:qt-mt323.dll
 0001:00022450       ?qt_invoke@QListBox@@UAE_NHPAUQUObject@@@Z 10023450 f   qt-mt323:qt-mt323.dll
 0001:00022456       ?qt_cast@QListBox@@UAEPAXPBD@Z 10023456 f   qt-mt323:qt-mt323.dll
 0001:0002245c       ?className@QListBox@@UBEPBDXZ 1002345c f   qt-mt323:qt-mt323.dll
 0001:00022462       ?metaObject@QListBox@@UBEPAVQMetaObject@@XZ 10023462 f   qt-mt323:qt-mt323.dll
 0001:00022468       ?frameChanged@QHBox@@MAEXXZ 10023468 f   qt-mt323:qt-mt323.dll
 0001:0002246e       ?sizeHint@QHBox@@UBE?AVQSize@@XZ 1002346e f   qt-mt323:qt-mt323.dll
 0001:00022474       ?qt_property@QHBox@@UAE_NHHPAVQVariant@@@Z 10023474 f   qt-mt323:qt-mt323.dll
 0001:0002247a       ?qt_emit@QHBox@@UAE_NHPAUQUObject@@@Z 1002347a f   qt-mt323:qt-mt323.dll
 0001:00022480       ?qt_invoke@QHBox@@UAE_NHPAUQUObject@@@Z 10023480 f   qt-mt323:qt-mt323.dll
 0001:00022486       ?qt_cast@QHBox@@UAEPAXPBD@Z 10023486 f   qt-mt323:qt-mt323.dll
 0001:0002248c       ?className@QHBox@@UBEPBDXZ 1002348c f   qt-mt323:qt-mt323.dll
 0001:00022492       ?metaObject@QHBox@@UBEPAVQMetaObject@@XZ 10023492 f   qt-mt323:qt-mt323.dll
 0001:00022498       ?setAlignment@QGroupBox@@UAEXH@Z 10023498 f   qt-mt323:qt-mt323.dll
 0001:0002249e       ?setTitle@QGroupBox@@UAEXABVQString@@@Z 1002349e f   qt-mt323:qt-mt323.dll
 0001:000224a4       ?setColumnLayout@QGroupBox@@UAEXHW4Orientation@Qt@@@Z 100234a4 f   qt-mt323:qt-mt323.dll
 0001:000224aa       ?fontChange@QGroupBox@@MAEXABVQFont@@@Z 100234aa f   qt-mt323:qt-mt323.dll
 0001:000224b0       ?resizeEvent@QGroupBox@@MAEXPAVQResizeEvent@@@Z 100234b0 f   qt-mt323:qt-mt323.dll
 0001:000224b6       ?paintEvent@QGroupBox@@MAEXPAVQPaintEvent@@@Z 100234b6 f   qt-mt323:qt-mt323.dll
 0001:000224bc       ?focusInEvent@QGroupBox@@MAEXPAVQFocusEvent@@@Z 100234bc f   qt-mt323:qt-mt323.dll
 0001:000224c2       ?sizeHint@QGroupBox@@UBE?AVQSize@@XZ 100234c2 f   qt-mt323:qt-mt323.dll
 0001:000224c8       ?setEnabled@QGroupBox@@UAEX_N@Z 100234c8 f   qt-mt323:qt-mt323.dll
 0001:000224ce       ?childEvent@QGroupBox@@MAEXPAVQChildEvent@@@Z 100234ce f   qt-mt323:qt-mt323.dll
 0001:000224d4       ?event@QGroupBox@@MAE_NPAVQEvent@@@Z 100234d4 f   qt-mt323:qt-mt323.dll
 0001:000224da       ?qt_property@QGroupBox@@UAE_NHHPAVQVariant@@@Z 100234da f   qt-mt323:qt-mt323.dll
 0001:000224e0       ?qt_emit@QGroupBox@@UAE_NHPAUQUObject@@@Z 100234e0 f   qt-mt323:qt-mt323.dll
 0001:000224e6       ?qt_invoke@QGroupBox@@UAE_NHPAUQUObject@@@Z 100234e6 f   qt-mt323:qt-mt323.dll
 0001:000224ec       ?qt_cast@QGroupBox@@UAEPAXPBD@Z 100234ec f   qt-mt323:qt-mt323.dll
 0001:000224f2       ?className@QGroupBox@@UBEPBDXZ 100234f2 f   qt-mt323:qt-mt323.dll
 0001:000224f8       ?metaObject@QGroupBox@@UBEPAVQMetaObject@@XZ 100234f8 f   qt-mt323:qt-mt323.dll
 0001:000224fe       ?rangeChange@QDial@@MAEXXZ 100234fe f   qt-mt323:qt-mt323.dll
 0001:00022504       ?valueChange@QDial@@MAEXXZ 10023504 f   qt-mt323:qt-mt323.dll
 0001:0002250a       ?repaintScreen@QDial@@MAEXPBVQRect@@@Z 1002350a f   qt-mt323:qt-mt323.dll
 0001:00022510       ?setTracking@QDial@@UAEX_N@Z 10023510 f   qt-mt323:qt-mt323.dll
 0001:00022516       ?setWrapping@QDial@@UAEX_N@Z 10023516 f   qt-mt323:qt-mt323.dll
 0001:0002251c       ?setNotchesVisible@QDial@@UAEX_N@Z 1002351c f   qt-mt323:qt-mt323.dll
 0001:00022522       ?setValue@QDial@@UAEXH@Z   10023522 f   qt-mt323:qt-mt323.dll
 0001:00022528       ?setNotchTarget@QDial@@UAEXN@Z 10023528 f   qt-mt323:qt-mt323.dll
 0001:0002252e       ?resizeEvent@QDial@@MAEXPAVQResizeEvent@@@Z 1002352e f   qt-mt323:qt-mt323.dll
 0001:00022534       ?paintEvent@QDial@@MAEXPAVQPaintEvent@@@Z 10023534 f   qt-mt323:qt-mt323.dll
 0001:0002253a       ?focusOutEvent@QDial@@MAEXPAVQFocusEvent@@@Z 1002353a f   qt-mt323:qt-mt323.dll
 0001:00022540       ?focusInEvent@QDial@@MAEXPAVQFocusEvent@@@Z 10023540 f   qt-mt323:qt-mt323.dll
 0001:00022546       ?keyPressEvent@QDial@@MAEXPAVQKeyEvent@@@Z 10023546 f   qt-mt323:qt-mt323.dll
 0001:0002254c       ?wheelEvent@QDial@@MAEXPAVQWheelEvent@@@Z 1002354c f   qt-mt323:qt-mt323.dll
 0001:00022552       ?mouseMoveEvent@QDial@@MAEXPAVQMouseEvent@@@Z 10023552 f   qt-mt323:qt-mt323.dll
 0001:00022558       ?mouseReleaseEvent@QDial@@MAEXPAVQMouseEvent@@@Z 10023558 f   qt-mt323:qt-mt323.dll
 0001:0002255e       ?mousePressEvent@QDial@@MAEXPAVQMouseEvent@@@Z 1002355e f   qt-mt323:qt-mt323.dll
 0001:00022564       ?minimumSizeHint@QDial@@UBE?AVQSize@@XZ 10023564 f   qt-mt323:qt-mt323.dll
 0001:0002256a       ?sizeHint@QDial@@UBE?AVQSize@@XZ 1002356a f   qt-mt323:qt-mt323.dll
 0001:00022570       ?qt_property@QDial@@UAE_NHHPAVQVariant@@@Z 10023570 f   qt-mt323:qt-mt323.dll
 0001:00022576       ?qt_emit@QDial@@UAE_NHPAUQUObject@@@Z 10023576 f   qt-mt323:qt-mt323.dll
 0001:0002257c       ?qt_invoke@QDial@@UAE_NHPAUQUObject@@@Z 1002357c f   qt-mt323:qt-mt323.dll
 0001:00022582       ?qt_cast@QDial@@UAEPAXPBD@Z 10023582 f   qt-mt323:qt-mt323.dll
 0001:00022588       ?className@QDial@@UBEPBDXZ 10023588 f   qt-mt323:qt-mt323.dll
 0001:0002258e       ?metaObject@QDial@@UBEPAVQMetaObject@@XZ 1002358e f   qt-mt323:qt-mt323.dll
 0001:00022594       ?itemRemoved@QToolBox@@MAEXH@Z 10023594 f   qt-mt323:qt-mt323.dll
 0001:0002259a       ?itemInserted@QToolBox@@MAEXH@Z 1002359a f   qt-mt323:qt-mt323.dll
 0001:000225a0       ?frameChanged@QToolBox@@MAEXXZ 100235a0 f   qt-mt323:qt-mt323.dll
 0001:000225a6       ?styleChange@QToolBox@@MAEXAAVQStyle@@@Z 100235a6 f   qt-mt323:qt-mt323.dll
 0001:000225ac       ?showEvent@QToolBox@@MAEXPAVQShowEvent@@@Z 100235ac f   qt-mt323:qt-mt323.dll
 0001:000225b2       ?sizeHint@QFrame@@UBE?AVQSize@@XZ 100235b2 f   qt-mt323:qt-mt323.dll
 0001:000225b8       ?qt_property@QToolBox@@UAE_NHHPAVQVariant@@@Z 100235b8 f   qt-mt323:qt-mt323.dll
 0001:000225be       ?qt_emit@QToolBox@@UAE_NHPAUQUObject@@@Z 100235be f   qt-mt323:qt-mt323.dll
 0001:000225c4       ?qt_invoke@QToolBox@@UAE_NHPAUQUObject@@@Z 100235c4 f   qt-mt323:qt-mt323.dll
 0001:000225ca       ?qt_cast@QToolBox@@UAEPAXPBD@Z 100235ca f   qt-mt323:qt-mt323.dll
 0001:000225d0       ?className@QToolBox@@UBEPBDXZ 100235d0 f   qt-mt323:qt-mt323.dll
 0001:000225d6       ?metaObject@QToolBox@@UBEPAVQMetaObject@@XZ 100235d6 f   qt-mt323:qt-mt323.dll
 0001:000225dc       ?stepChange@QRangeControl@@MAEXXZ 100235dc f   qt-mt323:qt-mt323.dll
 0001:000225e2       ?rangeChange@QSpinBox@@MAEXXZ 100235e2 f   qt-mt323:qt-mt323.dll
 0001:000225e8       ?valueChange@QSpinBox@@MAEXXZ 100235e8 f   qt-mt323:qt-mt323.dll
 0001:000225ee       ?interpretText@QSpinBox@@MAEXXZ 100235ee f   qt-mt323:qt-mt323.dll
 0001:000225f4       ?updateDisplay@QSpinBox@@MAEXXZ 100235f4 f   qt-mt323:qt-mt323.dll
 0001:000225fa       ?mapTextToValue@QSpinBox@@MAEHPA_N@Z 100235fa f   qt-mt323:qt-mt323.dll
 0001:00022600       ?mapValueToText@QSpinBox@@MAE?AVQString@@H@Z 10023600 f   qt-mt323:qt-mt323.dll
 0001:00022606       ?selectAll@QSpinBox@@UAEXXZ 10023606 f   qt-mt323:qt-mt323.dll
 0001:0002260c       ?stepDown@QSpinBox@@UAEXXZ 1002360c f   qt-mt323:qt-mt323.dll
 0001:00022612       ?stepUp@QSpinBox@@UAEXXZ   10023612 f   qt-mt323:qt-mt323.dll
 0001:00022618       ?setSuffix@QSpinBox@@UAEXABVQString@@@Z 10023618 f   qt-mt323:qt-mt323.dll
 0001:0002261e       ?setPrefix@QSpinBox@@UAEXABVQString@@@Z 1002361e f   qt-mt323:qt-mt323.dll
 0001:00022624       ?setValue@QSpinBox@@UAEXH@Z 10023624 f   qt-mt323:qt-mt323.dll
 0001:0002262a       ?setValidator@QSpinBox@@UAEXPBVQValidator@@@Z 1002362a f   qt-mt323:qt-mt323.dll
 0001:00022630       ?setButtonSymbols@QSpinBox@@UAEXW4ButtonSymbols@1@@Z 10023630 f   qt-mt323:qt-mt323.dll
 0001:00022636       ?setWrapping@QSpinBox@@UAEX_N@Z 10023636 f   qt-mt323:qt-mt323.dll
 0001:0002263c       ?setSpecialValueText@QSpinBox@@UAEXABVQString@@@Z 1002363c f   qt-mt323:qt-mt323.dll
 0001:00022642       ?cleanText@QSpinBox@@UBE?AVQString@@XZ 10023642 f   qt-mt323:qt-mt323.dll
 0001:00022648       ?suffix@QSpinBox@@UBE?AVQString@@XZ 10023648 f   qt-mt323:qt-mt323.dll
 0001:0002264e       ?prefix@QSpinBox@@UBE?AVQString@@XZ 1002364e f   qt-mt323:qt-mt323.dll
 0001:00022654       ?styleChange@QSpinBox@@MAEXAAVQStyle@@@Z 10023654 f   qt-mt323:qt-mt323.dll
 0001:0002265a       ?resizeEvent@QSpinBox@@MAEXPAVQResizeEvent@@@Z 1002365a f   qt-mt323:qt-mt323.dll
 0001:00022660       ?leaveEvent@QSpinBox@@MAEXPAVQEvent@@@Z 10023660 f   qt-mt323:qt-mt323.dll
 0001:00022666       ?wheelEvent@QSpinBox@@MAEXPAVQWheelEvent@@@Z 10023666 f   qt-mt323:qt-mt323.dll
 0001:0002266c       ?minimumSizeHint@QSpinBox@@UBE?AVQSize@@XZ 1002366c f   qt-mt323:qt-mt323.dll
 0001:00022672       ?sizeHint@QSpinBox@@UBE?AVQSize@@XZ 10023672 f   qt-mt323:qt-mt323.dll
 0001:00022678       ?setEnabled@QSpinBox@@UAEX_N@Z 10023678 f   qt-mt323:qt-mt323.dll
 0001:0002267e       ?eventFilter@QSpinBox@@MAE_NPAVQObject@@PAVQEvent@@@Z 1002367e f   qt-mt323:qt-mt323.dll
 0001:00022684       ?qt_property@QSpinBox@@UAE_NHHPAVQVariant@@@Z 10023684 f   qt-mt323:qt-mt323.dll
 0001:0002268a       ?qt_emit@QSpinBox@@UAE_NHPAUQUObject@@@Z 1002368a f   qt-mt323:qt-mt323.dll
 0001:00022690       ?qt_invoke@QSpinBox@@UAE_NHPAUQUObject@@@Z 10023690 f   qt-mt323:qt-mt323.dll
 0001:00022696       ?qt_cast@QSpinBox@@UAEPAXPBD@Z 10023696 f   qt-mt323:qt-mt323.dll
 0001:0002269c       ?className@QSpinBox@@UBEPBDXZ 1002369c f   qt-mt323:qt-mt323.dll
 0001:000226a2       ?metaObject@QSpinBox@@UBEPAVQMetaObject@@XZ 100236a2 f   qt-mt323:qt-mt323.dll
 0001:000226a8       ?qt_property@QTextView@@UAE_NHHPAVQVariant@@@Z 100236a8 f   qt-mt323:qt-mt323.dll
 0001:000226ae       ?qt_emit@QTextView@@UAE_NHPAUQUObject@@@Z 100236ae f   qt-mt323:qt-mt323.dll
 0001:000226b4       ?qt_invoke@QTextView@@UAE_NHPAUQUObject@@@Z 100236b4 f   qt-mt323:qt-mt323.dll
 0001:000226ba       ?qt_cast@QTextView@@UAEPAXPBD@Z 100236ba f   qt-mt323:qt-mt323.dll
 0001:000226c0       ?className@QTextView@@UBEPBDXZ 100236c0 f   qt-mt323:qt-mt323.dll
 0001:000226c6       ?metaObject@QTextView@@UBEPAVQMetaObject@@XZ 100236c6 f   qt-mt323:qt-mt323.dll
 0001:000226cc       ?setSecond@QTimeEdit@@MAEXH@Z 100236cc f   qt-mt323:qt-mt323.dll
 0001:000226d2       ?setMinute@QTimeEdit@@MAEXH@Z 100236d2 f   qt-mt323:qt-mt323.dll
 0001:000226d8       ?setHour@QTimeEdit@@MAEXH@Z 100236d8 f   qt-mt323:qt-mt323.dll
 0001:000226de       ?outOfRange@QTimeEdit@@MBE_NHHH@Z 100236de f   qt-mt323:qt-mt323.dll
 0001:000226e4       ?setSeparator@QTimeEdit@@UAEXABVQString@@@Z 100236e4 f   qt-mt323:qt-mt323.dll
 0001:000226ea       ?setRange@QTimeEdit@@UAEXABVQTime@@0@Z 100236ea f   qt-mt323:qt-mt323.dll
 0001:000226f0       ?setMaxValue@QTimeEdit@@UAEXABVQTime@@@Z 100236f0 f   qt-mt323:qt-mt323.dll
 0001:000226f6       ?setMinValue@QTimeEdit@@UAEXABVQTime@@@Z 100236f6 f   qt-mt323:qt-mt323.dll
 0001:000226fc       ?setAutoAdvance@QTimeEdit@@UAEX_N@Z 100236fc f   qt-mt323:qt-mt323.dll
 0001:00022702       ?setTime@QTimeEdit@@UAEXABVQTime@@@Z 10023702 f   qt-mt323:qt-mt323.dll
 0001:00022708       ?stepDown@QTimeEdit@@MAEXXZ 10023708 f   qt-mt323:qt-mt323.dll
 0001:0002270e       ?stepUp@QTimeEdit@@MAEXXZ  1002370e f   qt-mt323:qt-mt323.dll
 0001:00022714       ?removeLastNumber@QTimeEdit@@MAEXH@Z 10023714 f   qt-mt323:qt-mt323.dll
 0001:0002271a       ?addNumber@QTimeEdit@@MAEXHH@Z 1002371a f   qt-mt323:qt-mt323.dll
 0001:00022720       ?sectionFormattedText@QTimeEdit@@MAE?AVQString@@H@Z 10023720 f   qt-mt323:qt-mt323.dll
 0001:00022726       ?setFocusSection@QTimeEdit@@MAE_NH@Z 10023726 f   qt-mt323:qt-mt323.dll
 0001:0002272c       ?resizeEvent@QTimeEdit@@MAEXPAVQResizeEvent@@@Z 1002372c f   qt-mt323:qt-mt323.dll
 0001:00022732       ?minimumSizeHint@QTimeEdit@@UBE?AVQSize@@XZ 10023732 f   qt-mt323:qt-mt323.dll
 0001:00022738       ?sizeHint@QTimeEdit@@UBE?AVQSize@@XZ 10023738 f   qt-mt323:qt-mt323.dll
 0001:0002273e       ?timerEvent@QTimeEdit@@MAEXPAVQTimerEvent@@@Z 1002373e f   qt-mt323:qt-mt323.dll
 0001:00022744       ?event@QTimeEdit@@MAE_NPAVQEvent@@@Z 10023744 f   qt-mt323:qt-mt323.dll
 0001:0002274a       ?qt_property@QTimeEdit@@UAE_NHHPAVQVariant@@@Z 1002374a f   qt-mt323:qt-mt323.dll
 0001:00022750       ?qt_emit@QTimeEdit@@UAE_NHPAUQUObject@@@Z 10023750 f   qt-mt323:qt-mt323.dll
 0001:00022756       ?qt_invoke@QTimeEdit@@UAE_NHPAUQUObject@@@Z 10023756 f   qt-mt323:qt-mt323.dll
 0001:0002275c       ?qt_cast@QTimeEdit@@UAEPAXPBD@Z 1002375c f   qt-mt323:qt-mt323.dll
 0001:00022762       ?className@QTimeEdit@@UBEPBDXZ 10023762 f   qt-mt323:qt-mt323.dll
 0001:00022768       ?metaObject@QTimeEdit@@UBEPAVQMetaObject@@XZ 10023768 f   qt-mt323:qt-mt323.dll
 0001:0002276e       ?setRubberband@QSplitter@@MAEXH@Z 1002376e f   qt-mt323:qt-mt323.dll
 0001:00022774       ?drawSplitter@QSplitter@@MAEXPAVQPainter@@HHHH@Z 10023774 f   qt-mt323:qt-mt323.dll
 0001:0002277a       ?setOpaqueResize@QSplitter@@UAEX_N@Z 1002377a f   qt-mt323:qt-mt323.dll
 0001:00022780       ?setResizeMode@QSplitter@@UAEXPAVQWidget@@W4ResizeMode@1@@Z 10023780 f   qt-mt323:qt-mt323.dll
 0001:00022786       ?setOrientation@QSplitter@@UAEXW4Orientation@Qt@@@Z 10023786 f   qt-mt323:qt-mt323.dll
 0001:0002278c       ?styleChange@QSplitter@@MAEXAAVQStyle@@@Z 1002378c f   qt-mt323:qt-mt323.dll
 0001:00022792       ?resizeEvent@QSplitter@@MAEXPAVQResizeEvent@@@Z 10023792 f   qt-mt323:qt-mt323.dll
 0001:00022798       ?minimumSizeHint@QSplitter@@UBE?AVQSize@@XZ 10023798 f   qt-mt323:qt-mt323.dll
 0001:0002279e       ?sizeHint@QSplitter@@UBE?AVQSize@@XZ 1002379e f   qt-mt323:qt-mt323.dll
 0001:000227a4       ?childEvent@QSplitter@@MAEXPAVQChildEvent@@@Z 100237a4 f   qt-mt323:qt-mt323.dll
 0001:000227aa       ?event@QSplitter@@MAE_NPAVQEvent@@@Z 100237aa f   qt-mt323:qt-mt323.dll
 0001:000227b0       ?qt_property@QSplitter@@UAE_NHHPAVQVariant@@@Z 100237b0 f   qt-mt323:qt-mt323.dll
 0001:000227b6       ?qt_emit@QSplitter@@UAE_NHPAUQUObject@@@Z 100237b6 f   qt-mt323:qt-mt323.dll
 0001:000227bc       ?qt_invoke@QSplitter@@UAE_NHPAUQUObject@@@Z 100237bc f   qt-mt323:qt-mt323.dll
 0001:000227c2       ?qt_cast@QSplitter@@UAEPAXPBD@Z 100237c2 f   qt-mt323:qt-mt323.dll
 0001:000227c8       ?className@QSplitter@@UBEPBDXZ 100237c8 f   qt-mt323:qt-mt323.dll
 0001:000227ce       ?metaObject@QSplitter@@UBEPAVQMetaObject@@XZ 100237ce f   qt-mt323:qt-mt323.dll
 0001:000227d4       ?setSmallDecimalPoint@QLCDNumber@@UAEX_N@Z 100237d4 f   qt-mt323:qt-mt323.dll
 0001:000227da       ?setBinMode@QLCDNumber@@UAEXXZ 100237da f   qt-mt323:qt-mt323.dll
 0001:000227e0       ?setOctMode@QLCDNumber@@UAEXXZ 100237e0 f   qt-mt323:qt-mt323.dll
 0001:000227e6       ?setDecMode@QLCDNumber@@UAEXXZ 100237e6 f   qt-mt323:qt-mt323.dll
 0001:000227ec       ?setHexMode@QLCDNumber@@UAEXXZ 100237ec f   qt-mt323:qt-mt323.dll
 0001:000227f2       ?setSegmentStyle@QLCDNumber@@UAEXW4SegmentStyle@1@@Z 100237f2 f   qt-mt323:qt-mt323.dll
 0001:000227f8       ?setMode@QLCDNumber@@UAEXW4Mode@1@@Z 100237f8 f   qt-mt323:qt-mt323.dll
 0001:000227fe       ?setNumDigits@QLCDNumber@@UAEXH@Z 100237fe f   qt-mt323:qt-mt323.dll
 0001:00022804       ?drawContents@QLCDNumber@@MAEXPAVQPainter@@@Z 10023804 f   qt-mt323:qt-mt323.dll
 0001:0002280a       ?sizeHint@QLCDNumber@@UBE?AVQSize@@XZ 1002380a f   qt-mt323:qt-mt323.dll
 0001:00022810       ?qt_property@QLCDNumber@@UAE_NHHPAVQVariant@@@Z 10023810 f   qt-mt323:qt-mt323.dll
 0001:00022816       ?qt_emit@QLCDNumber@@UAE_NHPAUQUObject@@@Z 10023816 f   qt-mt323:qt-mt323.dll
 0001:0002281c       ?qt_invoke@QLCDNumber@@UAE_NHPAUQUObject@@@Z 1002381c f   qt-mt323:qt-mt323.dll
 0001:00022822       ?qt_cast@QLCDNumber@@UAEPAXPBD@Z 10023822 f   qt-mt323:qt-mt323.dll
 0001:00022828       ?className@QLCDNumber@@UBEPBDXZ 10023828 f   qt-mt323:qt-mt323.dll
 0001:0002282e       ?metaObject@QLCDNumber@@UBEPAVQMetaObject@@XZ 1002382e f   qt-mt323:qt-mt323.dll
 0001:00022834       ?setChecked@QRadioButton@@UAEX_N@Z 10023834 f   qt-mt323:qt-mt323.dll
 0001:0002283a       ?drawButtonLabel@QRadioButton@@MAEXPAVQPainter@@@Z 1002383a f   qt-mt323:qt-mt323.dll
 0001:00022840       ?drawButton@QRadioButton@@MAEXPAVQPainter@@@Z 10023840 f   qt-mt323:qt-mt323.dll
 0001:00022846       ?hitButton@QRadioButton@@MBE_NABVQPoint@@@Z 10023846 f   qt-mt323:qt-mt323.dll
 0001:0002284c       ?updateMask@QRadioButton@@MAEXXZ 1002384c f   qt-mt323:qt-mt323.dll
 0001:00022852       ?resizeEvent@QRadioButton@@MAEXPAVQResizeEvent@@@Z 10023852 f   qt-mt323:qt-mt323.dll
 0001:00022858       ?sizeHint@QRadioButton@@UBE?AVQSize@@XZ 10023858 f   qt-mt323:qt-mt323.dll
 0001:0002285e       ?qt_property@QRadioButton@@UAE_NHHPAVQVariant@@@Z 1002385e f   qt-mt323:qt-mt323.dll
 0001:00022864       ?qt_emit@QRadioButton@@UAE_NHPAUQUObject@@@Z 10023864 f   qt-mt323:qt-mt323.dll
 0001:0002286a       ?qt_invoke@QRadioButton@@UAE_NHPAUQUObject@@@Z 1002386a f   qt-mt323:qt-mt323.dll
 0001:00022870       ?qt_cast@QRadioButton@@UAEPAXPBD@Z 10023870 f   qt-mt323:qt-mt323.dll
 0001:00022876       ?className@QRadioButton@@UBEPBDXZ 10023876 f   qt-mt323:qt-mt323.dll
 0001:0002287c       ?metaObject@QRadioButton@@UBEPAVQMetaObject@@XZ 1002387c f   qt-mt323:qt-mt323.dll
 0001:00022882       ?frameChanged@QGrid@@MAEXXZ 10023882 f   qt-mt323:qt-mt323.dll
 0001:00022888       ?drawContents@QFrame@@MAEXPAVQPainter@@@Z 10023888 f   qt-mt323:qt-mt323.dll
 0001:0002288e       ?styleChange@QFrame@@MAEXAAVQStyle@@@Z 1002388e f   qt-mt323:qt-mt323.dll
 0001:00022894       ?sizeHint@QGrid@@UBE?AVQSize@@XZ 10023894 f   qt-mt323:qt-mt323.dll
 0001:0002289a       ?qt_property@QGrid@@UAE_NHHPAVQVariant@@@Z 1002389a f   qt-mt323:qt-mt323.dll
 0001:000228a0       ?qt_emit@QGrid@@UAE_NHPAUQUObject@@@Z 100238a0 f   qt-mt323:qt-mt323.dll
 0001:000228a6       ?qt_invoke@QGrid@@UAE_NHPAUQUObject@@@Z 100238a6 f   qt-mt323:qt-mt323.dll
 0001:000228ac       ?qt_cast@QGrid@@UAEPAXPBD@Z 100238ac f   qt-mt323:qt-mt323.dll
 0001:000228b2       ?className@QGrid@@UBEPBDXZ 100238b2 f   qt-mt323:qt-mt323.dll
 0001:000228b8       ?metaObject@QGrid@@UBEPAVQMetaObject@@XZ 100238b8 f   qt-mt323:qt-mt323.dll
 0001:000228be       ?setAutoAdvance@QDateTimeEdit@@UAEX_N@Z 100238be f   qt-mt323:qt-mt323.dll
 0001:000228c4       ?setDateTime@QDateTimeEdit@@UAEXABVQDateTime@@@Z 100238c4 f   qt-mt323:qt-mt323.dll
 0001:000228ca       ?resizeEvent@QDateTimeEdit@@MAEXPAVQResizeEvent@@@Z 100238ca f   qt-mt323:qt-mt323.dll
 0001:000228d0       ?minimumSizeHint@QDateTimeEdit@@UBE?AVQSize@@XZ 100238d0 f   qt-mt323:qt-mt323.dll
 0001:000228d6       ?sizeHint@QDateTimeEdit@@UBE?AVQSize@@XZ 100238d6 f   qt-mt323:qt-mt323.dll
 0001:000228dc       ?qt_property@QDateTimeEdit@@UAE_NHHPAVQVariant@@@Z 100238dc f   qt-mt323:qt-mt323.dll
 0001:000228e2       ?qt_emit@QDateTimeEdit@@UAE_NHPAUQUObject@@@Z 100238e2 f   qt-mt323:qt-mt323.dll
 0001:000228e8       ?qt_invoke@QDateTimeEdit@@UAE_NHPAUQUObject@@@Z 100238e8 f   qt-mt323:qt-mt323.dll
 0001:000228ee       ?qt_cast@QDateTimeEdit@@UAEPAXPBD@Z 100238ee f   qt-mt323:qt-mt323.dll
 0001:000228f4       ?className@QDateTimeEdit@@UBEPBDXZ 100238f4 f   qt-mt323:qt-mt323.dll
 0001:000228fa       ?metaObject@QDateTimeEdit@@UBEPAVQMetaObject@@XZ 100238fa f   qt-mt323:qt-mt323.dll
 0001:00022900       ?iterator@QGridLayout@@UAE?AVQLayoutIterator@@XZ 10023900 f   qt-mt323:qt-mt323.dll
 0001:00022906       ?invalidate@QGridLayout@@UAEXXZ 10023906 f   qt-mt323:qt-mt323.dll
 0001:0002290c       ?heightForWidth@QGridLayout@@UBEHH@Z 1002390c f   qt-mt323:qt-mt323.dll
 0001:00022912       ?hasHeightForWidth@QGridLayout@@UBE_NXZ 10023912 f   qt-mt323:qt-mt323.dll
 0001:00022918       ?setGeometry@QGridLayout@@UAEXABVQRect@@@Z 10023918 f   qt-mt323:qt-mt323.dll
 0001:0002291e       ?expanding@QGridLayout@@UBE?AW4ExpandData@QSizePolicy@@XZ 1002391e f   qt-mt323:qt-mt323.dll
 0001:00022924       ?maximumSize@QGridLayout@@UBE?AVQSize@@XZ 10023924 f   qt-mt323:qt-mt323.dll
 0001:0002292a       ?minimumSize@QGridLayout@@UBE?AVQSize@@XZ 1002392a f   qt-mt323:qt-mt323.dll
 0001:00022930       ?sizeHint@QGridLayout@@UBE?AVQSize@@XZ 10023930 f   qt-mt323:qt-mt323.dll
 0001:00022936       ?setColStretch@QGridLayout@@UAEXHH@Z 10023936 f   qt-mt323:qt-mt323.dll
 0001:0002293c       ?setRowStretch@QGridLayout@@UAEXHH@Z 1002393c f   qt-mt323:qt-mt323.dll
 0001:00022942       ?addItem@QGridLayout@@UAEXPAVQLayoutItem@@@Z 10023942 f   qt-mt323:qt-mt323.dll
 0001:00022948       ?qt_property@QGridLayout@@UAE_NHHPAVQVariant@@@Z 10023948 f   qt-mt323:qt-mt323.dll
 0001:0002294e       ?qt_emit@QGridLayout@@UAE_NHPAUQUObject@@@Z 1002394e f   qt-mt323:qt-mt323.dll
 0001:00022954       ?qt_invoke@QGridLayout@@UAE_NHPAUQUObject@@@Z 10023954 f   qt-mt323:qt-mt323.dll
 0001:0002295a       ?qt_cast@QGridLayout@@UAEPAXPBD@Z 1002395a f   qt-mt323:qt-mt323.dll
 0001:00022960       ?className@QGridLayout@@UBEPBDXZ 10023960 f   qt-mt323:qt-mt323.dll
 0001:00022966       ?metaObject@QGridLayout@@UBEPAVQMetaObject@@XZ 10023966 f   qt-mt323:qt-mt323.dll
 0001:0002296c       ?cancelRename@QListViewItem@@MAEXH@Z 1002396c f   qt-mt323:qt-mt323.dll
 0001:00022972       ?okRename@QListViewItem@@MAEXH@Z 10023972 f   qt-mt323:qt-mt323.dll
 0001:00022978       ?dragLeft@QListViewItem@@MAEXXZ 10023978 f   qt-mt323:qt-mt323.dll
 0001:0002297e       ?dragEntered@QListViewItem@@MAEXXZ 1002397e f   qt-mt323:qt-mt323.dll
 0001:00022984       ?dropped@QListViewItem@@MAEXPAVQDropEvent@@@Z 10023984 f   qt-mt323:qt-mt323.dll
 0001:0002298a       ?activate@QListViewItem@@MAEXXZ 1002398a f   qt-mt323:qt-mt323.dll
 0001:00022990       ?setHeight@QListViewItem@@MAEXH@Z 10023990 f   qt-mt323:qt-mt323.dll
 0001:00022996       ?enforceSortOrder@QListViewItem@@MBEXXZ 10023996 f   qt-mt323:qt-mt323.dll
 0001:0002299c       ?setMultiLinesEnabled@QListViewItem@@UAEX_N@Z 1002399c f   qt-mt323:qt-mt323.dll
 0001:000229a2       ?rtti@QListViewItem@@UBEHXZ 100239a2 f   qt-mt323:qt-mt323.dll
 0001:000229a8       ?setEnabled@QListViewItem@@UAEX_N@Z 100239a8 f   qt-mt323:qt-mt323.dll
 0001:000229ae       ?startRename@QListViewItem@@UAEXH@Z 100239ae f   qt-mt323:qt-mt323.dll
 0001:000229b4       ?setRenameEnabled@QListViewItem@@UAEXH_N@Z 100239b4 f   qt-mt323:qt-mt323.dll
 0001:000229ba       ?acceptDrop@QListViewItem@@UBE_NPBVQMimeSource@@@Z 100239ba f   qt-mt323:qt-mt323.dll
 0001:000229c0       ?setDropEnabled@QListViewItem@@UAEX_N@Z 100239c0 f   qt-mt323:qt-mt323.dll
 0001:000229c6       ?setDragEnabled@QListViewItem@@UAEX_N@Z 100239c6 f   qt-mt323:qt-mt323.dll
 0001:000229cc       ?sort@QListViewItem@@UAEXXZ 100239cc f   qt-mt323:qt-mt323.dll
 0001:000229d2       ?setExpandable@QListViewItem@@UAEX_N@Z 100239d2 f   qt-mt323:qt-mt323.dll
 0001:000229d8       ?setSelectable@QListViewItem@@UAEX_N@Z 100239d8 f   qt-mt323:qt-mt323.dll
 0001:000229de       ?paintFocus@QListViewItem@@UAEXPAVQPainter@@ABVQColorGroup@@ABVQRect@@@Z 100239de f   qt-mt323:qt-mt323.dll
 0001:000229e4       ?paintBranches@QListViewItem@@UAEXPAVQPainter@@ABVQColorGroup@@HHH@Z 100239e4 f   qt-mt323:qt-mt323.dll
 0001:000229ea       ?paintCell@QListViewItem@@UAEXPAVQPainter@@ABVQColorGroup@@HHH@Z 100239ea f   qt-mt323:qt-mt323.dll
 0001:000229f0       ?setSelected@QListViewItem@@UAEX_N@Z 100239f0 f   qt-mt323:qt-mt323.dll
 0001:000229f6       ?setup@QListViewItem@@UAEXXZ 100239f6 f   qt-mt323:qt-mt323.dll
 0001:000229fc       ?setOpen@QListViewItem@@UAEX_N@Z 100239fc f   qt-mt323:qt-mt323.dll
 0001:00022a02       ?sortChildItems@QListViewItem@@UAEXH_N@Z 10023a02 f   qt-mt323:qt-mt323.dll
 0001:00022a08       ?compare@QListViewItem@@UBEHPAV1@H_N@Z 10023a08 f   qt-mt323:qt-mt323.dll
 0001:00022a0e       ?key@QListViewItem@@UBE?AVQString@@H_N@Z 10023a0e f   qt-mt323:qt-mt323.dll
 0001:00022a14       ?pixmap@QListViewItem@@UBEPBVQPixmap@@H@Z 10023a14 f   qt-mt323:qt-mt323.dll
 0001:00022a1a       ?setPixmap@QListViewItem@@UAEXHABVQPixmap@@@Z 10023a1a f   qt-mt323:qt-mt323.dll
 0001:00022a20       ?text@QListViewItem@@UBE?AVQString@@H@Z 10023a20 f   qt-mt323:qt-mt323.dll
 0001:00022a26       ?setText@QListViewItem@@UAEXHABVQString@@@Z 10023a26 f   qt-mt323:qt-mt323.dll
 0001:00022a2c       ?width@QListViewItem@@UBEHABVQFontMetrics@@PBVQListView@@H@Z 10023a2c f   qt-mt323:qt-mt323.dll
 0001:00022a32       ?invalidateHeight@QListViewItem@@UAEXXZ 10023a32 f   qt-mt323:qt-mt323.dll
 0001:00022a38       ?removeItem@QListViewItem@@UAEXPAV1@@Z 10023a38 f   qt-mt323:qt-mt323.dll
 0001:00022a3e       ?takeItem@QListViewItem@@UAEXPAV1@@Z 10023a3e f   qt-mt323:qt-mt323.dll
 0001:00022a44       ?insertItem@QListViewItem@@UAEXPAV1@@Z 10023a44 f   qt-mt323:qt-mt323.dll
 0001:00022a4a       ?sync@QSqlForm@@EAEXXZ     10023a4a f   qt-mt323:qt-mt323.dll
 0001:00022a50       ?clearValues@QSqlForm@@UAEX_N@Z 10023a50 f   qt-mt323:qt-mt323.dll
 0001:00022a56       ?clear@QSqlForm@@UAEXXZ    10023a56 f   qt-mt323:qt-mt323.dll
 0001:00022a5c       ?writeFields@QSqlForm@@UAEXXZ 10023a5c f   qt-mt323:qt-mt323.dll
 0001:00022a62       ?readFields@QSqlForm@@UAEXXZ 10023a62 f   qt-mt323:qt-mt323.dll
 0001:00022a68       ?writeField@QSqlForm@@UAEXPAVQWidget@@@Z 10023a68 f   qt-mt323:qt-mt323.dll
 0001:00022a6e       ?readField@QSqlForm@@UAEXPAVQWidget@@@Z 10023a6e f   qt-mt323:qt-mt323.dll
 0001:00022a74       ?setRecord@QSqlForm@@UAEXPAVQSqlRecord@@@Z 10023a74 f   qt-mt323:qt-mt323.dll
 0001:00022a7a       ?remove@QSqlForm@@UAEXABVQString@@@Z 10023a7a f   qt-mt323:qt-mt323.dll
 0001:00022a80       ?remove@QSqlForm@@MAEXPAVQWidget@@@Z 10023a80 f   qt-mt323:qt-mt323.dll
 0001:00022a86       ?insert@QSqlForm@@UAEXPAVQWidget@@ABVQString@@@Z 10023a86 f   qt-mt323:qt-mt323.dll
 0001:00022a8c       ?insert@QSqlForm@@MAEXPAVQWidget@@PAVQSqlField@@@Z 10023a8c f   qt-mt323:qt-mt323.dll
 0001:00022a92       ?qt_property@QSqlForm@@UAE_NHHPAVQVariant@@@Z 10023a92 f   qt-mt323:qt-mt323.dll
 0001:00022a98       ?qt_emit@QSqlForm@@UAE_NHPAUQUObject@@@Z 10023a98 f   qt-mt323:qt-mt323.dll
 0001:00022a9e       ?qt_invoke@QSqlForm@@UAE_NHPAUQUObject@@@Z 10023a9e f   qt-mt323:qt-mt323.dll
 0001:00022aa4       ?qt_cast@QSqlForm@@UAEPAXPBD@Z 10023aa4 f   qt-mt323:qt-mt323.dll
 0001:00022aaa       ?className@QSqlForm@@UBEPBDXZ 10023aaa f   qt-mt323:qt-mt323.dll
 0001:00022ab0       ?metaObject@QSqlForm@@UBEPAVQMetaObject@@XZ 10023ab0 f   qt-mt323:qt-mt323.dll
 0001:00022ab6       ?handleError@QDataBrowser@@MAEXABVQSqlError@@@Z 10023ab6 f   qt-mt323:qt-mt323.dll
 0001:00022abc       ?confirmCancel@QDataBrowser@@MAE?AW4Confirm@QSql@@W4Op@3@@Z 10023abc f   qt-mt323:qt-mt323.dll
 0001:00022ac2       ?confirmEdit@QDataBrowser@@MAE?AW4Confirm@QSql@@W4Op@3@@Z 10023ac2 f   qt-mt323:qt-mt323.dll
 0001:00022ac8       ?currentEdited@QDataBrowser@@MAE_NXZ 10023ac8 f   qt-mt323:qt-mt323.dll
 0001:00022ace       ?deleteCurrent@QDataBrowser@@MAE_NXZ 10023ace f   qt-mt323:qt-mt323.dll
 0001:00022ad4       ?updateCurrent@QDataBrowser@@MAE_NXZ 10023ad4 f   qt-mt323:qt-mt323.dll
 0001:00022ada       ?insertCurrent@QDataBrowser@@MAE_NXZ 10023ada f   qt-mt323:qt-mt323.dll
 0001:00022ae0       ?clearValues@QDataBrowser@@UAEXXZ 10023ae0 f   qt-mt323:qt-mt323.dll
 0001:00022ae6       ?writeFields@QDataBrowser@@UAEXXZ 10023ae6 f   qt-mt323:qt-mt323.dll
 0001:00022aec       ?readFields@QDataBrowser@@UAEXXZ 10023aec f   qt-mt323:qt-mt323.dll
 0001:00022af2       ?prev@QDataBrowser@@UAEXXZ 10023af2 f   qt-mt323:qt-mt323.dll
 0001:00022af8       ?next@QDataBrowser@@UAEXXZ 10023af8 f   qt-mt323:qt-mt323.dll
 0001:00022afe       ?last@QDataBrowser@@UAEXXZ 10023afe f   qt-mt323:qt-mt323.dll
 0001:00022b04       ?first@QDataBrowser@@UAEXXZ 10023b04 f   qt-mt323:qt-mt323.dll
 0001:00022b0a       ?del@QDataBrowser@@UAEXXZ  10023b0a f   qt-mt323:qt-mt323.dll
 0001:00022b10       ?update@QDataBrowser@@UAEXXZ 10023b10 f   qt-mt323:qt-mt323.dll
 0001:00022b16       ?insert@QDataBrowser@@UAEXXZ 10023b16 f   qt-mt323:qt-mt323.dll
 0001:00022b1c       ?refresh@QDataBrowser@@UAEXXZ 10023b1c f   qt-mt323:qt-mt323.dll
 0001:00022b22       ?seek@QDataBrowser@@UAE_NH_N@Z 10023b22 f   qt-mt323:qt-mt323.dll
 0001:00022b28       ?setAutoEdit@QDataBrowser@@UAEX_N@Z 10023b28 f   qt-mt323:qt-mt323.dll
 0001:00022b2e       ?setReadOnly@QDataBrowser@@UAEX_N@Z 10023b2e f   qt-mt323:qt-mt323.dll
 0001:00022b34       ?setConfirmCancels@QDataBrowser@@UAEX_N@Z 10023b34 f   qt-mt323:qt-mt323.dll
 0001:00022b3a       ?setConfirmDelete@QDataBrowser@@UAEX_N@Z 10023b3a f   qt-mt323:qt-mt323.dll
 0001:00022b40       ?setConfirmUpdate@QDataBrowser@@UAEX_N@Z 10023b40 f   qt-mt323:qt-mt323.dll
 0001:00022b46       ?setConfirmInsert@QDataBrowser@@UAEX_N@Z 10023b46 f   qt-mt323:qt-mt323.dll
 0001:00022b4c       ?setConfirmEdits@QDataBrowser@@UAEX_N@Z 10023b4c f   qt-mt323:qt-mt323.dll
 0001:00022b52       ?setForm@QDataBrowser@@UAEXPAVQSqlForm@@@Z 10023b52 f   qt-mt323:qt-mt323.dll
 0001:00022b58       ?setSqlCursor@QDataBrowser@@UAEXPAVQSqlCursor@@_N@Z 10023b58 f   qt-mt323:qt-mt323.dll
 0001:00022b5e       ?clearValues@QDataView@@UAEXXZ 10023b5e f   qt-mt323:qt-mt323.dll
 0001:00022b64       ?writeFields@QDataView@@UAEXXZ 10023b64 f   qt-mt323:qt-mt323.dll
 0001:00022b6a       ?readFields@QDataView@@UAEXXZ 10023b6a f   qt-mt323:qt-mt323.dll
 0001:00022b70       ?refresh@QDataView@@UAEXPAVQSqlRecord@@@Z 10023b70 f   qt-mt323:qt-mt323.dll
 0001:00022b76       ?setRecord@QDataView@@UAEXPAVQSqlRecord@@@Z 10023b76 f   qt-mt323:qt-mt323.dll
 0001:00022b7c       ?setForm@QDataView@@UAEXPAVQSqlForm@@@Z 10023b7c f   qt-mt323:qt-mt323.dll
 0001:00022b82       ?setAttribute@QDomElement@@QAEXABVQString@@H@Z 10023b82 f   qt-mt323:qt-mt323.dll
 0001:00022b88       ?setAttribute@QDomElement@@QAEXABVQString@@N@Z 10023b88 f   qt-mt323:qt-mt323.dll
 0001:00022b8e       ?removeAttribute@QDomElement@@QAEXABVQString@@@Z 10023b8e f   qt-mt323:qt-mt323.dll
 0001:00022b94       ?item@QDomNodeList@@UBE?AVQDomNode@@H@Z 10023b94 f   qt-mt323:qt-mt323.dll
 0001:00022b9a       ?length@QDomNodeList@@UBEIXZ 10023b9a f   qt-mt323:qt-mt323.dll
 0001:00022ba0       ??1QDomNodeList@@UAE@XZ    10023ba0 f   qt-mt323:qt-mt323.dll
 0001:00022ba6       ??4QDomNodeList@@QAEAAV0@ABV0@@Z 10023ba6 f   qt-mt323:qt-mt323.dll
 0001:00022bac       ?elementsByTagName@QDomDocument@@QBE?AVQDomNodeList@@ABVQString@@@Z 10023bac f   qt-mt323:qt-mt323.dll
 0001:00022bb2       ?hasAttribute@QDomElement@@QBE_NABVQString@@@Z 10023bb2 f   qt-mt323:qt-mt323.dll
 0001:00022bb8       ??0QDomNodeList@@QAE@XZ    10023bb8 f   qt-mt323:qt-mt323.dll
 0001:00022bbe       ??0QDomNode@@QAE@XZ        10023bbe f   qt-mt323:qt-mt323.dll
 0001:00022bc4       _IsProcessorFeaturePresent@4 10023bc4 f   kernel32:KERNEL32.dll
 0002:00000000       __imp__OutputDebugStringA@4 10027000     kernel32:KERNEL32.dll
 0002:00000004       __imp__LocalFree@4         10027004     kernel32:KERNEL32.dll
 0002:00000008       __imp__GetLastError@0      10027008     kernel32:KERNEL32.dll
 0002:0000000c       __imp__FormatMessageA@28   1002700c     kernel32:KERNEL32.dll
 0002:00000010       __imp__GetCurrentProcess@0 10027010     kernel32:KERNEL32.dll
 0002:00000014       __imp__DecodePointer@4     10027014     kernel32:KERNEL32.dll
 0002:00000018       __imp__IsDebuggerPresent@0 10027018     kernel32:KERNEL32.dll
 0002:0000001c       __imp__IsProcessorFeaturePresent@4 1002701c     kernel32:KERNEL32.dll
 0002:00000020       __imp__QueryPerformanceCounter@4 10027020     kernel32:KERNEL32.dll
 0002:00000024       __imp__GetCurrentProcessId@0 10027024     kernel32:KERNEL32.dll
 0002:00000028       __imp__GetCurrentThreadId@0 10027028     kernel32:KERNEL32.dll
 0002:0000002c       __imp__GetSystemTimeAsFileTime@4 1002702c     kernel32:KERNEL32.dll
 0002:00000030       __imp__DisableThreadLibraryCalls@4 10027030     kernel32:KERNEL32.dll
 0002:00000034       __imp__EncodePointer@4     10027034     kernel32:KERNEL32.dll
 0002:00000038       \177KERNEL32_NULL_THUNK_DATA 10027038     kernel32:KERNEL32.dll
 0002:0000003c       __imp_?_Xbad_alloc@std@@YAXXZ 1002703c     msvcprt:MSVCP120.dll
 0002:00000040       __imp_?_Xout_of_range@std@@YAXPBD@Z 10027040     msvcprt:MSVCP120.dll
 0002:00000044       __imp_?_Syserror_map@std@@YAPBDH@Z 10027044     msvcprt:MSVCP120.dll
 0002:00000048       __imp_?_Winerror_map@std@@YAPBDH@Z 10027048     msvcprt:MSVCP120.dll
 0002:0000004c       __imp_?_Xlength_error@std@@YAXPBD@Z 1002704c     msvcprt:MSVCP120.dll
 0002:00000050       \177MSVCP120_NULL_THUNK_DATA 10027050     msvcprt:MSVCP120.dll
 0002:00000054       __imp__sprintf             10027054     MSVCRT:MSVCR120.dll
 0002:00000058       __imp__getenv              10027058     MSVCRT:MSVCR120.dll
 0002:0000005c       __imp__memcpy              1002705c     MSVCRT:MSVCR120.dll
 0002:00000060       __imp_??2@YAPAXI@Z         10027060     MSVCRT:MSVCR120.dll
 0002:00000064       __imp___purecall           10027064     MSVCRT:MSVCR120.dll
 0002:00000068       __imp____CxxFrameHandler3  10027068     MSVCRT:MSVCR120.dll
 0002:0000006c       __imp___CxxThrowException@8 1002706c     MSVCRT:MSVCR120.dll
 0002:00000070       __imp_??_V@YAXPAX@Z        10027070     MSVCRT:MSVCR120.dll
 0002:00000074       __imp_??3@YAXPAX@Z         10027074     MSVCRT:MSVCR120.dll
 0002:00000078       __imp__strchr              10027078     MSVCRT:MSVCR120.dll
 0002:0000007c       __imp__memmove             1002707c     MSVCRT:MSVCR120.dll
 0002:00000080       __imp__atoi                10027080     MSVCRT:MSVCR120.dll
 0002:00000084       __imp____clean_type_info_names_internal 10027084     MSVCRT:MSVCR120.dll
 0002:00000088       __imp____crtTerminateProcess 10027088     MSVCRT:MSVCR120.dll
 0002:0000008c       __imp____crtUnhandledException 1002708c     MSVCRT:MSVCR120.dll
 0002:00000090       __imp___crt_debugger_hook  10027090     MSVCRT:MSVCR120.dll
 0002:00000094       __imp___except_handler4_common 10027094     MSVCRT:MSVCR120.dll
 0002:00000098       __imp___initterm_e         10027098     MSVCRT:MSVCR120.dll
 0002:0000009c       __imp___initterm           1002709c     MSVCRT:MSVCR120.dll
 0002:000000a0       __imp___malloc_crt         100270a0     MSVCRT:MSVCR120.dll
 0002:000000a4       __imp__free                100270a4     MSVCRT:MSVCR120.dll
 0002:000000a8       __imp___amsg_exit          100270a8     MSVCRT:MSVCR120.dll
 0002:000000ac       __imp____CppXcptFilter     100270ac     MSVCRT:MSVCR120.dll
 0002:000000b0       __imp_??1type_info@@UAE@XZ 100270b0     MSVCRT:MSVCR120.dll
 0002:000000b4       __imp___onexit             100270b4     MSVCRT:MSVCR120.dll
 0002:000000b8       __imp____dllonexit         100270b8     MSVCRT:MSVCR120.dll
 0002:000000bc       __imp___calloc_crt         100270bc     MSVCRT:MSVCR120.dll
 0002:000000c0       __imp___unlock             100270c0     MSVCRT:MSVCR120.dll
 0002:000000c4       __imp___lock               100270c4     MSVCRT:MSVCR120.dll
 0002:000000c8       __imp_?terminate@@YAXXZ    100270c8     MSVCRT:MSVCR120.dll
 0002:000000cc       __imp__strcmp              100270cc     MSVCRT:MSVCR120.dll
 0002:000000d0       __imp__strlen              100270d0     MSVCRT:MSVCR120.dll
 0002:000000d4       __imp__strncpy             100270d4     MSVCRT:MSVCR120.dll
 0002:000000d8       __imp__stricmp             100270d8     MSVCRT:MSVCR120.dll
 0002:000000d8       __imp___stricmp            100270d8     MSVCRT:MSVCR120.dll
 0002:000000dc       \177MSVCR120_NULL_THUNK_DATA 100270dc     MSVCRT:MSVCR120.dll
 0002:000000e0       __imp__ShellExecuteA@24    100270e0     shell32:SHELL32.dll
 0002:000000e4       \177SHELL32_NULL_THUNK_DATA 100270e4     shell32:SHELL32.dll
 0002:000000e8       __imp__RegisterClassA@4    100270e8     user32:USER32.dll
 0002:000000ec       __imp__UnregisterClassA@8  100270ec     user32:USER32.dll
 0002:000000f0       __imp__CreateWindowExA@48  100270f0     user32:USER32.dll
 0002:000000f4       __imp__DestroyWindow@4     100270f4     user32:USER32.dll
 0002:000000f8       __imp__SetTimer@16         100270f8     user32:USER32.dll
 0002:000000fc       __imp__KillTimer@8         100270fc     user32:USER32.dll
 0002:00000100       __imp__MessageBoxA@16      10027100     user32:USER32.dll
 0002:00000104       __imp__GetWindowLongA@8    10027104     user32:USER32.dll
 0002:00000108       __imp__SetWindowLongA@12   10027108     user32:USER32.dll
 0002:0000010c       __imp__GetGuiResources@8   1002710c     user32:USER32.dll
 0002:00000110       __imp__DefWindowProcA@16   10027110     user32:USER32.dll
 0002:00000114       \177USER32_NULL_THUNK_DATA 10027114     user32:USER32.dll
 0002:00000118       __imp_??4deviceTypeInfo@@QAEAAV0@ABV0@@Z 10027118     bncs_cachedData:bncs_cachedData.dll
 0002:0000011c       __imp_??0deviceTypeInfo@@QAE@ABV0@@Z 1002711c     bncs_cachedData:bncs_cachedData.dll
 0002:00000120       __imp_??1deviceTypeInfo@@UAE@XZ 10027120     bncs_cachedData:bncs_cachedData.dll
 0002:00000124       __imp_??0complexParam@@QAE@XZ 10027124     bncs_cachedData:bncs_cachedData.dll
 0002:00000128       __imp_??_7complexParam@@6B@ 10027128     bncs_cachedData:bncs_cachedData.dll
 0002:0000012c       __imp_??_7paramInfo@@6B@   1002712c     bncs_cachedData:bncs_cachedData.dll
 0002:00000130       __imp_??1complexParam@@UAE@XZ 10027130     bncs_cachedData:bncs_cachedData.dll
 0002:00000134       __imp_??0complexInstance@@QAE@XZ 10027134     bncs_cachedData:bncs_cachedData.dll
 0002:00000138       __imp_??1complexInstance@@UAE@XZ 10027138     bncs_cachedData:bncs_cachedData.dll
 0002:0000013c       __imp_??0complexInstance@@QAE@ABV0@@Z 1002713c     bncs_cachedData:bncs_cachedData.dll
 0002:00000140       __imp_??4complexInstance@@QAEAAV0@ABV0@@Z 10027140     bncs_cachedData:bncs_cachedData.dll
 0002:00000144       __imp_??0complexType@@QAE@XZ 10027144     bncs_cachedData:bncs_cachedData.dll
 0002:00000148       __imp_??1complexType@@UAE@XZ 10027148     bncs_cachedData:bncs_cachedData.dll
 0002:0000014c       __imp_??0complexType@@QAE@ABV0@@Z 1002714c     bncs_cachedData:bncs_cachedData.dll
 0002:00000150       __imp_??4complexType@@QAEAAV0@ABV0@@Z 10027150     bncs_cachedData:bncs_cachedData.dll
 0002:00000154       __imp_?lookupComposite@bncs_instance_lookup@@SA_NABVQString@@AA_NAAV?$QMap@VQString@@V1@@@@Z 10027154     bncs_cachedData:bncs_cachedData.dll
 0002:00000158       __imp_??0deviceTypeInfo@@QAE@XZ 10027158     bncs_cachedData:bncs_cachedData.dll
 0002:0000015c       __imp_??1paramInfo@@UAE@XZ 1002715c     bncs_cachedData:bncs_cachedData.dll
 0002:00000160       __imp_??0paramInfo@@QAE@XZ 10027160     bncs_cachedData:bncs_cachedData.dll
 0002:00000164       __imp_??4instanceInfo@@QAEAAV0@ABV0@@Z 10027164     bncs_cachedData:bncs_cachedData.dll
 0002:00000168       __imp_??0instanceInfo@@QAE@ABV0@@Z 10027168     bncs_cachedData:bncs_cachedData.dll
 0002:0000016c       __imp_??1instanceInfo@@UAE@XZ 1002716c     bncs_cachedData:bncs_cachedData.dll
 0002:00000170       __imp_??0instanceInfo@@QAE@XZ 10027170     bncs_cachedData:bncs_cachedData.dll
 0002:00000174       \177bncs_cachedData_NULL_THUNK_DATA 10027174     bncs_cachedData:bncs_cachedData.dll
 0002:00000178       __imp_??0QColorGroup@@QAE@ABV0@@Z 10027178     qt-mt323:qt-mt323.dll
 0002:0000017c       __imp_??1QColorGroup@@QAE@XZ 1002717c     qt-mt323:qt-mt323.dll
 0002:00000180       __imp_??0QWidget@@QAE@PAV0@PBDI@Z 10027180     qt-mt323:qt-mt323.dll
 0002:00000184       __imp_??1QWidget@@UAE@XZ   10027184     qt-mt323:qt-mt323.dll
 0002:00000188       __imp_?style@QWidget@@QBEAAVQStyle@@XZ 10027188     qt-mt323:qt-mt323.dll
 0002:0000018c       __imp_?rect@QWidget@@QBE?AVQRect@@XZ 1002718c     qt-mt323:qt-mt323.dll
 0002:00000190       __imp_?setBackgroundMode@QWidget@@UAEXW4BackgroundMode@Qt@@@Z 10027190     qt-mt323:qt-mt323.dll
 0002:00000194       __imp_?colorGroup@QWidget@@QBEABVQColorGroup@@XZ 10027194     qt-mt323:qt-mt323.dll
 0002:00000198       __imp_?contextMenuEvent@QWidget@@MAEXPAVQContextMenuEvent@@@Z 10027198     qt-mt323:qt-mt323.dll
 0002:0000019c       __imp_??0QWidget@@QAE@ABV0@@Z 1002719c     qt-mt323:qt-mt323.dll
 0002:000001a0       __imp_??4QWidget@@QAEAAV0@ABV0@@Z 100271a0     qt-mt323:qt-mt323.dll
 0002:000001a4       __imp_??1?$QPtrList@VQWidget@@@@UAE@XZ 100271a4     qt-mt323:qt-mt323.dll
 0002:000001a8       __imp_?begin@?$QPtrList@VQWidget@@@@QAE?AV?$QPtrListStdIterator@VQWidget@@@@XZ 100271a8     qt-mt323:qt-mt323.dll
 0002:000001ac       __imp_?end@?$QPtrList@VQWidget@@@@QAE?AV?$QPtrListStdIterator@VQWidget@@@@XZ 100271ac     qt-mt323:qt-mt323.dll
 0002:000001b0       __imp_??0QPainter@@QAE@PBVQPaintDevice@@_N@Z 100271b0     qt-mt323:qt-mt323.dll
 0002:000001b4       __imp_??1QPainter@@QAE@XZ  100271b4     qt-mt323:qt-mt323.dll
 0002:000001b8       __imp_?insertItem@QMenuData@@QAEHABVQString@@HH@Z 100271b8     qt-mt323:qt-mt323.dll
 0002:000001bc       __imp_??0QPopupMenu@@QAE@PAVQWidget@@PBD@Z 100271bc     qt-mt323:qt-mt323.dll
 0002:000001c0       __imp_??1QPopupMenu@@UAE@XZ 100271c0     qt-mt323:qt-mt323.dll
 0002:000001c4       __imp_?exec@QPopupMenu@@QAEHABVQPoint@@H@Z 100271c4     qt-mt323:qt-mt323.dll
 0002:000001c8       __imp_?pos@QCursor@@SA?AVQPoint@@XZ 100271c8     qt-mt323:qt-mt323.dll
 0002:000001cc       __imp_??0QRegExp@@QAE@ABVQString@@_N1@Z 100271cc     qt-mt323:qt-mt323.dll
 0002:000001d0       __imp_??1QRegExp@@QAE@XZ   100271d0     qt-mt323:qt-mt323.dll
 0002:000001d4       __imp_?exactMatch@QRegExp@@QBE_NABVQString@@@Z 100271d4     qt-mt323:qt-mt323.dll
 0002:000001d8       __imp_?exists@QFile@@SA_NABVQString@@@Z 100271d8     qt-mt323:qt-mt323.dll
 0002:000001dc       __imp_??1QWidgetList@@UAE@XZ 100271dc     qt-mt323:qt-mt323.dll
 0002:000001e0       __imp_??0QFileInfo@@QAE@ABVQString@@@Z 100271e0     qt-mt323:qt-mt323.dll
 0002:000001e4       __imp_??1QFileInfo@@QAE@XZ 100271e4     qt-mt323:qt-mt323.dll
 0002:000001e8       __imp_?baseName@QFileInfo@@QBE?AVQString@@_N@Z 100271e8     qt-mt323:qt-mt323.dll
 0002:000001ec       __imp_?dirPath@QFileInfo@@QBE?AVQString@@_N@Z 100271ec     qt-mt323:qt-mt323.dll
 0002:000001f0       __imp_?adjustSize@QWidget@@UAEXXZ 100271f0     qt-mt323:qt-mt323.dll
 0002:000001f4       __imp_?checkConnectArgs@QObject@@MAE_NPBDPBV1@0@Z 100271f4     qt-mt323:qt-mt323.dll
 0002:000001f8       __imp_?childEvent@QObject@@MAEXPAVQChildEvent@@@Z 100271f8     qt-mt323:qt-mt323.dll
 0002:000001fc       __imp_?close@QWidget@@UAE_N_N@Z 100271fc     qt-mt323:qt-mt323.dll
 0002:00000200       __imp_?closeEvent@QWidget@@MAEXPAVQCloseEvent@@@Z 10027200     qt-mt323:qt-mt323.dll
 0002:00000204       __imp_?cmd@QPaintDevice@@MAE_NHPAVQPainter@@PATQPDevCmdParam@@@Z 10027204     qt-mt323:qt-mt323.dll
 0002:00000208       __imp_?compareItems@QGList@@MAEHPAX0@Z 10027208     qt-mt323:qt-mt323.dll
 0002:0000020c       __imp_?connectNotify@QObject@@MAEXPBD@Z 1002720c     qt-mt323:qt-mt323.dll
 0002:00000210       __imp_?create@QWidget@@MAEXPAUHWND__@@_N1@Z 10027210     qt-mt323:qt-mt323.dll
 0002:00000214       __imp_?customEvent@QObject@@MAEXPAVQCustomEvent@@@Z 10027214     qt-mt323:qt-mt323.dll
 0002:00000218       __imp_?customWhatsThis@QWidget@@UBE_NXZ 10027218     qt-mt323:qt-mt323.dll
 0002:0000021c       __imp_?destroy@QWidget@@MAEX_N0@Z 1002721c     qt-mt323:qt-mt323.dll
 0002:00000220       __imp_?disconnectNotify@QObject@@MAEXPBD@Z 10027220     qt-mt323:qt-mt323.dll
 0002:00000224       __imp_?dragEnterEvent@QWidget@@MAEXPAVQDragEnterEvent@@@Z 10027224     qt-mt323:qt-mt323.dll
 0002:00000228       __imp_?dragLeaveEvent@QWidget@@MAEXPAVQDragLeaveEvent@@@Z 10027228     qt-mt323:qt-mt323.dll
 0002:0000022c       __imp_?dragMoveEvent@QWidget@@MAEXPAVQDragMoveEvent@@@Z 1002722c     qt-mt323:qt-mt323.dll
 0002:00000230       __imp_?dropEvent@QWidget@@MAEXPAVQDropEvent@@@Z 10027230     qt-mt323:qt-mt323.dll
 0002:00000234       __imp_?enabledChange@QWidget@@MAEX_N@Z 10027234     qt-mt323:qt-mt323.dll
 0002:00000238       __imp_?enterEvent@QWidget@@MAEXPAVQEvent@@@Z 10027238     qt-mt323:qt-mt323.dll
 0002:0000023c       __imp_?event@QWidget@@MAE_NPAVQEvent@@@Z 1002723c     qt-mt323:qt-mt323.dll
 0002:00000240       __imp_?eventFilter@QObject@@UAE_NPAV1@PAVQEvent@@@Z 10027240     qt-mt323:qt-mt323.dll
 0002:00000244       __imp_?focusInEvent@QWidget@@MAEXPAVQFocusEvent@@@Z 10027244     qt-mt323:qt-mt323.dll
 0002:00000248       __imp_?focusNextPrevChild@QWidget@@MAE_N_N@Z 10027248     qt-mt323:qt-mt323.dll
 0002:0000024c       __imp_?focusOutEvent@QWidget@@MAEXPAVQFocusEvent@@@Z 1002724c     qt-mt323:qt-mt323.dll
 0002:00000250       __imp_?fontChange@QWidget@@MAEXABVQFont@@@Z 10027250     qt-mt323:qt-mt323.dll
 0002:00000254       __imp_?fontInf@QPaintDevice@@MBEHPAVQFont@@H@Z 10027254     qt-mt323:qt-mt323.dll
 0002:00000258       __imp_?fontMet@QPaintDevice@@MBEHPAVQFont@@HPBDH@Z 10027258     qt-mt323:qt-mt323.dll
 0002:0000025c       __imp_?handle@QPaintDevice@@UBEPAUHDC__@@XZ 1002725c     qt-mt323:qt-mt323.dll
 0002:00000260       __imp_?heightForWidth@QWidget@@UBEHH@Z 10027260     qt-mt323:qt-mt323.dll
 0002:00000264       __imp_?hide@QWidget@@UAEXXZ 10027264     qt-mt323:qt-mt323.dll
 0002:00000268       __imp_?hideEvent@QWidget@@MAEXPAVQHideEvent@@@Z 10027268     qt-mt323:qt-mt323.dll
 0002:0000026c       __imp_?imComposeEvent@QWidget@@MAEXPAVQIMEvent@@@Z 1002726c     qt-mt323:qt-mt323.dll
 0002:00000270       __imp_?imEndEvent@QWidget@@MAEXPAVQIMEvent@@@Z 10027270     qt-mt323:qt-mt323.dll
 0002:00000274       __imp_?imStartEvent@QWidget@@MAEXPAVQIMEvent@@@Z 10027274     qt-mt323:qt-mt323.dll
 0002:00000278       __imp_?insertChild@QObject@@UAEXPAV1@@Z 10027278     qt-mt323:qt-mt323.dll
 0002:0000027c       __imp_?keyPressEvent@QWidget@@MAEXPAVQKeyEvent@@@Z 1002727c     qt-mt323:qt-mt323.dll
 0002:00000280       __imp_?keyReleaseEvent@QWidget@@MAEXPAVQKeyEvent@@@Z 10027280     qt-mt323:qt-mt323.dll
 0002:00000284       __imp_?leaveEvent@QWidget@@MAEXPAVQEvent@@@Z 10027284     qt-mt323:qt-mt323.dll
 0002:00000288       __imp_?metric@QWidget@@MBEHH@Z 10027288     qt-mt323:qt-mt323.dll
 0002:0000028c       __imp_?minimumSizeHint@QWidget@@UBE?AVQSize@@XZ 1002728c     qt-mt323:qt-mt323.dll
 0002:00000290       __imp_?mouseDoubleClickEvent@QWidget@@MAEXPAVQMouseEvent@@@Z 10027290     qt-mt323:qt-mt323.dll
 0002:00000294       __imp_?mouseMoveEvent@QWidget@@MAEXPAVQMouseEvent@@@Z 10027294     qt-mt323:qt-mt323.dll
 0002:00000298       __imp_?move@QWidget@@UAEXHH@Z 10027298     qt-mt323:qt-mt323.dll
 0002:0000029c       __imp_?moveEvent@QWidget@@MAEXPAVQMoveEvent@@@Z 1002729c     qt-mt323:qt-mt323.dll
 0002:000002a0       __imp_?newItem@QPtrCollection@@MAEPAXPAX@Z 100272a0     qt-mt323:qt-mt323.dll
 0002:000002a4       __imp_?paletteChange@QWidget@@MAEXABVQPalette@@@Z 100272a4     qt-mt323:qt-mt323.dll
 0002:000002a8       __imp_?polish@QWidget@@UAEXXZ 100272a8     qt-mt323:qt-mt323.dll
 0002:000002ac       __imp_?property@QObject@@UBE?AVQVariant@@PBD@Z 100272ac     qt-mt323:qt-mt323.dll
 0002:000002b0       __imp_?read@QGList@@MAEAAVQDataStream@@AAV2@AAPAX@Z 100272b0     qt-mt323:qt-mt323.dll
 0002:000002b4       __imp_?removeChild@QObject@@UAEXPAV1@@Z 100272b4     qt-mt323:qt-mt323.dll
 0002:000002b8       __imp_?reparent@QWidget@@UAEXPAV1@IABVQPoint@@_N@Z 100272b8     qt-mt323:qt-mt323.dll
 0002:000002bc       __imp_?resize@QWidget@@UAEXHH@Z 100272bc     qt-mt323:qt-mt323.dll
 0002:000002c0       __imp_?resizeEvent@QWidget@@MAEXPAVQResizeEvent@@@Z 100272c0     qt-mt323:qt-mt323.dll
 0002:000002c4       __imp_?resolution@QPaintDevice@@UBEHXZ 100272c4     qt-mt323:qt-mt323.dll
 0002:000002c8       __imp_?setAcceptDrops@QWidget@@UAEX_N@Z 100272c8     qt-mt323:qt-mt323.dll
 0002:000002cc       __imp_?setActiveWindow@QWidget@@UAEXXZ 100272cc     qt-mt323:qt-mt323.dll
 0002:000002d0       __imp_?setAutoMask@QWidget@@UAEX_N@Z 100272d0     qt-mt323:qt-mt323.dll
 0002:000002d4       __imp_?setBackgroundColor@QWidget@@UAEXABVQColor@@@Z 100272d4     qt-mt323:qt-mt323.dll
 0002:000002d8       __imp_?setBackgroundOrigin@QWidget@@UAEXW4BackgroundOrigin@1@@Z 100272d8     qt-mt323:qt-mt323.dll
 0002:000002dc       __imp_?setBackgroundPixmap@QWidget@@UAEXABVQPixmap@@@Z 100272dc     qt-mt323:qt-mt323.dll
 0002:000002e0       __imp_?setCursor@QWidget@@UAEXABVQCursor@@@Z 100272e0     qt-mt323:qt-mt323.dll
 0002:000002e4       __imp_?setEnabled@QWidget@@UAEX_N@Z 100272e4     qt-mt323:qt-mt323.dll
 0002:000002e8       __imp_?setEraseColor@QWidget@@UAEXABVQColor@@@Z 100272e8     qt-mt323:qt-mt323.dll
 0002:000002ec       __imp_?setErasePixmap@QWidget@@UAEXABVQPixmap@@@Z 100272ec     qt-mt323:qt-mt323.dll
 0002:000002f0       __imp_?setFocus@QWidget@@UAEXXZ 100272f0     qt-mt323:qt-mt323.dll
 0002:000002f4       __imp_?setFocusPolicy@QWidget@@UAEXW4FocusPolicy@1@@Z 100272f4     qt-mt323:qt-mt323.dll
 0002:000002f8       __imp_?setFocusProxy@QWidget@@UAEXPAV1@@Z 100272f8     qt-mt323:qt-mt323.dll
 0002:000002fc       __imp_?setFont@QWidget@@UAEXABVQFont@@@Z 100272fc     qt-mt323:qt-mt323.dll
 0002:00000300       __imp_?setGeometry@QWidget@@UAEXABVQRect@@@Z 10027300     qt-mt323:qt-mt323.dll
 0002:00000304       __imp_?setGeometry@QWidget@@UAEXHHHH@Z 10027304     qt-mt323:qt-mt323.dll
 0002:00000308       __imp_?setIcon@QWidget@@UAEXABVQPixmap@@@Z 10027308     qt-mt323:qt-mt323.dll
 0002:0000030c       __imp_?setIconText@QWidget@@UAEXABVQString@@@Z 1002730c     qt-mt323:qt-mt323.dll
 0002:00000310       __imp_?setKeyCompression@QWidget@@MAEX_N@Z 10027310     qt-mt323:qt-mt323.dll
 0002:00000314       __imp_?setMask@QWidget@@UAEXABVQBitmap@@@Z 10027314     qt-mt323:qt-mt323.dll
 0002:00000318       __imp_?setMask@QWidget@@UAEXABVQRegion@@@Z 10027318     qt-mt323:qt-mt323.dll
 0002:0000031c       __imp_?setMaximumSize@QWidget@@UAEXHH@Z 1002731c     qt-mt323:qt-mt323.dll
 0002:00000320       __imp_?setMicroFocusHint@QWidget@@MAEXHHHH_NPAVQFont@@@Z 10027320     qt-mt323:qt-mt323.dll
 0002:00000324       __imp_?setMinimumSize@QWidget@@UAEXHH@Z 10027324     qt-mt323:qt-mt323.dll
 0002:00000328       __imp_?setMouseTracking@QWidget@@UAEX_N@Z 10027328     qt-mt323:qt-mt323.dll
 0002:0000032c       __imp_?setName@QWidget@@UAEXPBD@Z 1002732c     qt-mt323:qt-mt323.dll
 0002:00000330       __imp_?setPalette@QWidget@@UAEXABVQPalette@@@Z 10027330     qt-mt323:qt-mt323.dll
 0002:00000334       __imp_?setPaletteBackgroundColor@QWidget@@UAEXABVQColor@@@Z 10027334     qt-mt323:qt-mt323.dll
 0002:00000338       __imp_?setPaletteBackgroundPixmap@QWidget@@UAEXABVQPixmap@@@Z 10027338     qt-mt323:qt-mt323.dll
 0002:0000033c       __imp_?setProperty@QObject@@UAE_NPBDABVQVariant@@@Z 1002733c     qt-mt323:qt-mt323.dll
 0002:00000340       __imp_?setResolution@QPaintDevice@@UAEXH@Z 10027340     qt-mt323:qt-mt323.dll
 0002:00000344       __imp_?setSizeIncrement@QWidget@@UAEXHH@Z 10027344     qt-mt323:qt-mt323.dll
 0002:00000348       __imp_?setSizePolicy@QWidget@@UAEXVQSizePolicy@@@Z 10027348     qt-mt323:qt-mt323.dll
 0002:0000034c       __imp_?setUpdatesEnabled@QWidget@@UAEX_N@Z 1002734c     qt-mt323:qt-mt323.dll
 0002:00000350       __imp_?setWFlags@QWidget@@MAEXI@Z 10027350     qt-mt323:qt-mt323.dll
 0002:00000354       __imp_?setWState@QWidget@@MAEXI@Z 10027354     qt-mt323:qt-mt323.dll
 0002:00000358       __imp_?show@QWidget@@UAEXXZ 10027358     qt-mt323:qt-mt323.dll
 0002:0000035c       __imp_?showEvent@QWidget@@MAEXPAVQShowEvent@@@Z 1002735c     qt-mt323:qt-mt323.dll
 0002:00000360       __imp_?showMaximized@QWidget@@UAEXXZ 10027360     qt-mt323:qt-mt323.dll
 0002:00000364       __imp_?showMinimized@QWidget@@UAEXXZ 10027364     qt-mt323:qt-mt323.dll
 0002:00000368       __imp_?showNormal@QWidget@@UAEXXZ 10027368     qt-mt323:qt-mt323.dll
 0002:0000036c       __imp_?sizeHint@QWidget@@UBE?AVQSize@@XZ 1002736c     qt-mt323:qt-mt323.dll
 0002:00000370       __imp_?sizePolicy@QWidget@@UBE?AVQSizePolicy@@XZ 10027370     qt-mt323:qt-mt323.dll
 0002:00000374       __imp_?styleChange@QWidget@@MAEXAAVQStyle@@@Z 10027374     qt-mt323:qt-mt323.dll
 0002:00000378       __imp_?tabletEvent@QWidget@@MAEXPAVQTabletEvent@@@Z 10027378     qt-mt323:qt-mt323.dll
 0002:0000037c       __imp_?timerEvent@QObject@@MAEXPAVQTimerEvent@@@Z 1002737c     qt-mt323:qt-mt323.dll
 0002:00000380       __imp_?unsetCursor@QWidget@@UAEXXZ 10027380     qt-mt323:qt-mt323.dll
 0002:00000384       __imp_?updateMask@QWidget@@MAEXXZ 10027384     qt-mt323:qt-mt323.dll
 0002:00000388       __imp_?wheelEvent@QWidget@@MAEXPAVQWheelEvent@@@Z 10027388     qt-mt323:qt-mt323.dll
 0002:0000038c       __imp_?winEvent@QWidget@@MAE_NPAUtagMSG@@@Z 1002738c     qt-mt323:qt-mt323.dll
 0002:00000390       __imp_?windowActivationChange@QWidget@@MAEX_N@Z 10027390     qt-mt323:qt-mt323.dll
 0002:00000394       __imp_?write@QGList@@MBEAAVQDataStream@@AAV2@PAX@Z 10027394     qt-mt323:qt-mt323.dll
 0002:00000398       __imp_?null@QChar@@2V1@A   10027398     qt-mt323:qt-mt323.dll
 0002:0000039c       __imp_??_7?$QPtrList@VQWidget@@@@6B@ 1002739c     qt-mt323:qt-mt323.dll
 0002:000003a0       __imp_??_7QWidgetList@@6B@ 100273a0     qt-mt323:qt-mt323.dll
 0002:000003a4       __imp_?accept@QDialog@@MAEXXZ 100273a4     qt-mt323:qt-mt323.dll
 0002:000003a8       __imp_?closeEvent@QDialog@@MAEXPAVQCloseEvent@@@Z 100273a8     qt-mt323:qt-mt323.dll
 0002:000003ac       __imp_?contextMenuEvent@QDialog@@MAEXPAVQContextMenuEvent@@@Z 100273ac     qt-mt323:qt-mt323.dll
 0002:000003b0       __imp_?done@QDialog@@MAEXH@Z 100273b0     qt-mt323:qt-mt323.dll
 0002:000003b4       __imp_?eventFilter@QDialog@@MAE_NPAVQObject@@PAVQEvent@@@Z 100273b4     qt-mt323:qt-mt323.dll
 0002:000003b8       __imp_?hide@QDialog@@UAEXXZ 100273b8     qt-mt323:qt-mt323.dll
 0002:000003bc       __imp_?keyPressEvent@QDialog@@MAEXPAVQKeyEvent@@@Z 100273bc     qt-mt323:qt-mt323.dll
 0002:000003c0       __imp_?minimumSizeHint@QDialog@@UBE?AVQSize@@XZ 100273c0     qt-mt323:qt-mt323.dll
 0002:000003c4       __imp_?mousePressEvent@QWidget@@MAEXPAVQMouseEvent@@@Z 100273c4     qt-mt323:qt-mt323.dll
 0002:000003c8       __imp_?mouseReleaseEvent@QWidget@@MAEXPAVQMouseEvent@@@Z 100273c8     qt-mt323:qt-mt323.dll
 0002:000003cc       __imp_?move@QDialog@@UAEXHH@Z 100273cc     qt-mt323:qt-mt323.dll
 0002:000003d0       __imp_?paintEvent@QWidget@@MAEXPAVQPaintEvent@@@Z 100273d0     qt-mt323:qt-mt323.dll
 0002:000003d4       __imp_?reject@QDialog@@MAEXXZ 100273d4     qt-mt323:qt-mt323.dll
 0002:000003d8       __imp_?resize@QDialog@@UAEXHH@Z 100273d8     qt-mt323:qt-mt323.dll
 0002:000003dc       __imp_?resizeEvent@QDialog@@MAEXPAVQResizeEvent@@@Z 100273dc     qt-mt323:qt-mt323.dll
 0002:000003e0       __imp_?setCaption@QWidget@@UAEXABVQString@@@Z 100273e0     qt-mt323:qt-mt323.dll
 0002:000003e4       __imp_?setGeometry@QDialog@@UAEXABVQRect@@@Z 100273e4     qt-mt323:qt-mt323.dll
 0002:000003e8       __imp_?setGeometry@QDialog@@UAEXHHHH@Z 100273e8     qt-mt323:qt-mt323.dll
 0002:000003ec       __imp_?show@QDialog@@UAEXXZ 100273ec     qt-mt323:qt-mt323.dll
 0002:000003f0       __imp_?sizeHint@QDialog@@UBE?AVQSize@@XZ 100273f0     qt-mt323:qt-mt323.dll
 0002:000003f4       __imp_?isNumber@QChar@@QBE_NXZ 100273f4     qt-mt323:qt-mt323.dll
 0002:000003f8       __imp_?truncate@QString@@QAEXI@Z 100273f8     qt-mt323:qt-mt323.dll
 0002:000003fc       __imp_?arg@QString@@QBE?AV1@NHDH@Z 100273fc     qt-mt323:qt-mt323.dll
 0002:00000400       __imp_?right@QString@@QBE?AV1@I@Z 10027400     qt-mt323:qt-mt323.dll
 0002:00000404       __imp_?rightJustify@QString@@QBE?AV1@IVQChar@@_N@Z 10027404     qt-mt323:qt-mt323.dll
 0002:00000408       __imp_?lower@QString@@QBE?AV1@XZ 10027408     qt-mt323:qt-mt323.dll
 0002:0000040c       __imp_?upper@QString@@QBE?AV1@XZ 1002740c     qt-mt323:qt-mt323.dll
 0002:00000410       __imp_?remove@QString@@QAEAAV1@II@Z 10027410     qt-mt323:qt-mt323.dll
 0002:00000414       __imp_?toInt@QString@@QBEHPA_NH@Z 10027414     qt-mt323:qt-mt323.dll
 0002:00000418       __imp_?ref@QString@@QAEAAVQChar@@I@Z 10027418     qt-mt323:qt-mt323.dll
 0002:0000041c       __imp_?startsWith@QString@@QBE_NABV1@@Z 1002741c     qt-mt323:qt-mt323.dll
 0002:00000420       __imp_??9@YA_NABVQString@@PBD@Z 10027420     qt-mt323:qt-mt323.dll
 0002:00000424       __imp_?moveBy@QRect@@QAEXHH@Z 10027424     qt-mt323:qt-mt323.dll
 0002:00000428       __imp_?contains@QRect@@QBE_NABV1@_N@Z 10027428     qt-mt323:qt-mt323.dll
 0002:0000042c       __imp_?unite@QRect@@QBE?AV1@ABV1@@Z 1002742c     qt-mt323:qt-mt323.dll
 0002:00000430       __imp_??A?$QValueList@VQString@@@@QAEAAVQString@@I@Z 10027430     qt-mt323:qt-mt323.dll
 0002:00000434       __imp_?split@QStringList@@SA?AV1@ABVQString@@0_N@Z 10027434     qt-mt323:qt-mt323.dll
 0002:00000438       __imp_??1QStringList@@QAE@XZ 10027438     qt-mt323:qt-mt323.dll
 0002:0000043c       __imp_??0QColor@@QAE@ABVQString@@@Z 1002743c     qt-mt323:qt-mt323.dll
 0002:00000440       __imp_??0QPixmap@@QAE@ABVQString@@PBDW4ColorMode@0@@Z 10027440     qt-mt323:qt-mt323.dll
 0002:00000444       __imp_??1QPixmap@@UAE@XZ   10027444     qt-mt323:qt-mt323.dll
 0002:00000448       __imp_?child@QObject@@QAEPAV1@PBD0_N@Z 10027448     qt-mt323:qt-mt323.dll
 0002:0000044c       __imp_??0QFile@@QAE@ABVQString@@@Z 1002744c     qt-mt323:qt-mt323.dll
 0002:00000450       __imp_??1QFile@@UAE@XZ     10027450     qt-mt323:qt-mt323.dll
 0002:00000454       __imp_?open@QFile@@UAE_NH@Z 10027454     qt-mt323:qt-mt323.dll
 0002:00000458       __imp_?setStyle@QWidget@@QAEXPAVQStyle@@@Z 10027458     qt-mt323:qt-mt323.dll
 0002:0000045c       __imp_?pos@QWidget@@QBE?AVQPoint@@XZ 1002745c     qt-mt323:qt-mt323.dll
 0002:00000460       __imp_?mapFromGlobal@QWidget@@QBE?AVQPoint@@ABV2@@Z 10027460     qt-mt323:qt-mt323.dll
 0002:00000464       __imp_??4QDomNode@@QAEAAV0@ABV0@@Z 10027464     qt-mt323:qt-mt323.dll
 0002:00000468       __imp_??1QDomNode@@UAE@XZ  10027468     qt-mt323:qt-mt323.dll
 0002:0000046c       __imp_?firstChild@QDomNode@@UBE?AV1@XZ 1002746c     qt-mt323:qt-mt323.dll
 0002:00000470       __imp_?nextSibling@QDomNode@@UBE?AV1@XZ 10027470     qt-mt323:qt-mt323.dll
 0002:00000474       __imp_?isNull@QDomNode@@QBE_NXZ 10027474     qt-mt323:qt-mt323.dll
 0002:00000478       __imp_?toElement@QDomNode@@QAE?AVQDomElement@@XZ 10027478     qt-mt323:qt-mt323.dll
 0002:0000047c       __imp_??0QDomDocument@@QAE@ABVQString@@@Z 1002747c     qt-mt323:qt-mt323.dll
 0002:00000480       __imp_??1QDomDocument@@UAE@XZ 10027480     qt-mt323:qt-mt323.dll
 0002:00000484       __imp_?documentElement@QDomDocument@@QBE?AVQDomElement@@XZ 10027484     qt-mt323:qt-mt323.dll
 0002:00000488       __imp_?setContent@QDomDocument@@QAE_NPAVQIODevice@@_NPAVQString@@PAH3@Z 10027488     qt-mt323:qt-mt323.dll
 0002:0000048c       __imp_??1QDomElement@@UAE@XZ 1002748c     qt-mt323:qt-mt323.dll
 0002:00000490       __imp_?attribute@QDomElement@@QBE?AVQString@@ABV2@0@Z 10027490     qt-mt323:qt-mt323.dll
 0002:00000494       __imp_?setAttribute@QDomElement@@QAEXABVQString@@0@Z 10027494     qt-mt323:qt-mt323.dll
 0002:00000498       __imp_?tagName@QDomElement@@QBE?AVQString@@XZ 10027498     qt-mt323:qt-mt323.dll
 0002:0000049c       __imp_?absFilePath@QFileInfo@@QBE?AVQString@@XZ 1002749c     qt-mt323:qt-mt323.dll
 0002:000004a0       __imp_?extension@QFileInfo@@QBE?AVQString@@_N@Z 100274a0     qt-mt323:qt-mt323.dll
 0002:000004a4       __imp_??0QGCache@@IAE@HIW4KeyType@0@_N1@Z 100274a4     qt-mt323:qt-mt323.dll
 0002:000004a8       __imp_??1QGCache@@MAE@XZ   100274a8     qt-mt323:qt-mt323.dll
 0002:000004ac       __imp_?count@QGCache@@MBEIXZ 100274ac     qt-mt323:qt-mt323.dll
 0002:000004b0       __imp_?clear@QGCache@@MAEXXZ 100274b0     qt-mt323:qt-mt323.dll
 0002:000004b4       __imp_?insert_string@QGCache@@IAE_NABVQString@@PAXHH@Z 100274b4     qt-mt323:qt-mt323.dll
 0002:000004b8       __imp_?find_string@QGCache@@IBEPAXABVQString@@_N@Z 100274b8     qt-mt323:qt-mt323.dll
 0002:000004bc       __imp_?appendChild@QDomNode@@UAE?AV1@ABV1@@Z 100274bc     qt-mt323:qt-mt323.dll
 0002:000004c0       __imp_?attributes@QDomNode@@UBE?AVQDomNamedNodeMap@@XZ 100274c0     qt-mt323:qt-mt323.dll
 0002:000004c4       __imp_?childNodes@QDomNode@@UBE?AVQDomNodeList@@XZ 100274c4     qt-mt323:qt-mt323.dll
 0002:000004c8       __imp_?cloneNode@QDomNode@@UBE?AV1@_N@Z 100274c8     qt-mt323:qt-mt323.dll
 0002:000004cc       __imp_?hasAttributes@QDomNode@@UBE_NXZ 100274cc     qt-mt323:qt-mt323.dll
 0002:000004d0       __imp_?hasChildNodes@QDomNode@@UBE_NXZ 100274d0     qt-mt323:qt-mt323.dll
 0002:000004d4       __imp_?insertAfter@QDomNode@@UAE?AV1@ABV1@0@Z 100274d4     qt-mt323:qt-mt323.dll
 0002:000004d8       __imp_?insertBefore@QDomNode@@UAE?AV1@ABV1@0@Z 100274d8     qt-mt323:qt-mt323.dll
 0002:000004dc       __imp_?isAttr@QDomNode@@UBE_NXZ 100274dc     qt-mt323:qt-mt323.dll
 0002:000004e0       __imp_?isCDATASection@QDomNode@@UBE_NXZ 100274e0     qt-mt323:qt-mt323.dll
 0002:000004e4       __imp_?isCharacterData@QDomNode@@UBE_NXZ 100274e4     qt-mt323:qt-mt323.dll
 0002:000004e8       __imp_?isComment@QDomNode@@UBE_NXZ 100274e8     qt-mt323:qt-mt323.dll
 0002:000004ec       __imp_?isDocument@QDomDocument@@UBE_NXZ 100274ec     qt-mt323:qt-mt323.dll
 0002:000004f0       __imp_?isDocumentFragment@QDomNode@@UBE_NXZ 100274f0     qt-mt323:qt-mt323.dll
 0002:000004f4       __imp_?isDocumentType@QDomNode@@UBE_NXZ 100274f4     qt-mt323:qt-mt323.dll
 0002:000004f8       __imp_?isElement@QDomNode@@UBE_NXZ 100274f8     qt-mt323:qt-mt323.dll
 0002:000004fc       __imp_?isEntity@QDomNode@@UBE_NXZ 100274fc     qt-mt323:qt-mt323.dll
 0002:00000500       __imp_?isEntityReference@QDomNode@@UBE_NXZ 10027500     qt-mt323:qt-mt323.dll
 0002:00000504       __imp_?isNotation@QDomNode@@UBE_NXZ 10027504     qt-mt323:qt-mt323.dll
 0002:00000508       __imp_?isProcessingInstruction@QDomNode@@UBE_NXZ 10027508     qt-mt323:qt-mt323.dll
 0002:0000050c       __imp_?isSupported@QDomNode@@UBE_NABVQString@@0@Z 1002750c     qt-mt323:qt-mt323.dll
 0002:00000510       __imp_?isText@QDomNode@@UBE_NXZ 10027510     qt-mt323:qt-mt323.dll
 0002:00000514       __imp_?lastChild@QDomNode@@UBE?AV1@XZ 10027514     qt-mt323:qt-mt323.dll
 0002:00000518       __imp_?localName@QDomNode@@UBE?AVQString@@XZ 10027518     qt-mt323:qt-mt323.dll
 0002:0000051c       __imp_?namespaceURI@QDomNode@@UBE?AVQString@@XZ 1002751c     qt-mt323:qt-mt323.dll
 0002:00000520       __imp_?nodeName@QDomNode@@UBE?AVQString@@XZ 10027520     qt-mt323:qt-mt323.dll
 0002:00000524       __imp_?nodeType@QDomDocument@@UBE?AW4NodeType@QDomNode@@XZ 10027524     qt-mt323:qt-mt323.dll
 0002:00000528       __imp_?nodeValue@QDomNode@@UBE?AVQString@@XZ 10027528     qt-mt323:qt-mt323.dll
 0002:0000052c       __imp_?normalize@QDomNode@@UAEXXZ 1002752c     qt-mt323:qt-mt323.dll
 0002:00000530       __imp_?ownerDocument@QDomNode@@UBE?AVQDomDocument@@XZ 10027530     qt-mt323:qt-mt323.dll
 0002:00000534       __imp_?parentNode@QDomNode@@UBE?AV1@XZ 10027534     qt-mt323:qt-mt323.dll
 0002:00000538       __imp_?prefix@QDomNode@@UBE?AVQString@@XZ 10027538     qt-mt323:qt-mt323.dll
 0002:0000053c       __imp_?previousSibling@QDomNode@@UBE?AV1@XZ 1002753c     qt-mt323:qt-mt323.dll
 0002:00000540       __imp_?removeChild@QDomNode@@UAE?AV1@ABV1@@Z 10027540     qt-mt323:qt-mt323.dll
 0002:00000544       __imp_?replaceChild@QDomNode@@UAE?AV1@ABV1@0@Z 10027544     qt-mt323:qt-mt323.dll
 0002:00000548       __imp_?setNodeValue@QDomNode@@UAEXABVQString@@@Z 10027548     qt-mt323:qt-mt323.dll
 0002:0000054c       __imp_?setPrefix@QDomNode@@UAEXABVQString@@@Z 1002754c     qt-mt323:qt-mt323.dll
 0002:00000550       __imp_?null@QString@@2V1@A 10027550     qt-mt323:qt-mt323.dll
 0002:00000554       __imp_?find@QString@@QBEHABV1@H_N@Z 10027554     qt-mt323:qt-mt323.dll
 0002:00000558       __imp_?mid@QString@@QBE?AV1@II@Z 10027558     qt-mt323:qt-mt323.dll
 0002:0000055c       __imp_?replace@QString@@QAEAAV1@IIABV1@@Z 1002755c     qt-mt323:qt-mt323.dll
 0002:00000560       __imp_?fromAscii@QString@@SA?AV1@PBDH@Z 10027560     qt-mt323:qt-mt323.dll
 0002:00000564       __imp_?insertHelper@QString@@AAEAAV1@IPBDI@Z 10027564     qt-mt323:qt-mt323.dll
 0002:00000568       __imp_??8@YA_NABVQString@@0@Z 10027568     qt-mt323:qt-mt323.dll
 0002:0000056c       __imp_?begin@?$QPtrList@VQWidget@@@@QBE?AV?$QPtrListStdIterator@VQWidget@@@@XZ 1002756c     qt-mt323:qt-mt323.dll
 0002:00000570       __imp_?end@?$QPtrList@VQWidget@@@@QBE?AV?$QPtrListStdIterator@VQWidget@@@@XZ 10027570     qt-mt323:qt-mt323.dll
 0002:00000574       __imp_?search@QRegExp@@QBEHABVQString@@H@Z 10027574     qt-mt323:qt-mt323.dll
 0002:00000578       __imp_?matchedLength@QRegExp@@QBEHXZ 10027578     qt-mt323:qt-mt323.dll
 0002:0000057c       __imp_??1QFont@@QAE@XZ     1002757c     qt-mt323:qt-mt323.dll
 0002:00000580       __imp_?setFamily@QFont@@QAEXABVQString@@@Z 10027580     qt-mt323:qt-mt323.dll
 0002:00000584       __imp_?setPointSize@QFont@@QAEXH@Z 10027584     qt-mt323:qt-mt323.dll
 0002:00000588       __imp_??0QDialog@@QAE@PAVQWidget@@PBD_NI@Z 10027588     qt-mt323:qt-mt323.dll
 0002:0000058c       __imp_??1QDialog@@UAE@XZ   1002758c     qt-mt323:qt-mt323.dll
 0002:00000590       __imp_?resize@QDialog@@QAEXABVQSize@@@Z 10027590     qt-mt323:qt-mt323.dll
 0002:00000594       __imp_?setSizeGripEnabled@QDialog@@QAEX_N@Z 10027594     qt-mt323:qt-mt323.dll
 0002:00000598       __imp_??0QTextEdit@@QAE@PAVQWidget@@PBD@Z 10027598     qt-mt323:qt-mt323.dll
 0002:0000059c       __imp_??1QTextEdit@@UAE@XZ 1002759c     qt-mt323:qt-mt323.dll
 0002:000005a0       __imp_?font@QTextEdit@@QBE?AVQFont@@XZ 100275a0     qt-mt323:qt-mt323.dll
 0002:000005a4       __imp_??1QButton@@UAE@XZ   100275a4     qt-mt323:qt-mt323.dll
 0002:000005a8       __imp_??0QCheckBox@@QAE@PAVQWidget@@PBD@Z 100275a8     qt-mt323:qt-mt323.dll
 0002:000005ac       __imp_?setChecked@QCheckBox@@QAEX_N@Z 100275ac     qt-mt323:qt-mt323.dll
 0002:000005b0       __imp_??0QPushButton@@QAE@PAVQWidget@@PBD@Z 100275b0     qt-mt323:qt-mt323.dll
 0002:000005b4       __imp_??1QPushButton@@UAE@XZ 100275b4     qt-mt323:qt-mt323.dll
 0002:000005b8       __imp_??1QLayoutItem@@UAE@XZ 100275b8     qt-mt323:qt-mt323.dll
 0002:000005bc       __imp_?addWidget@QBoxLayout@@QAEXPAVQWidget@@HH@Z 100275bc     qt-mt323:qt-mt323.dll
 0002:000005c0       __imp_?addLayout@QBoxLayout@@QAEXPAVQLayout@@H@Z 100275c0     qt-mt323:qt-mt323.dll
 0002:000005c4       __imp_??0QHBoxLayout@@QAE@PAVQWidget@@HHPBD@Z 100275c4     qt-mt323:qt-mt323.dll
 0002:000005c8       __imp_??1QHBoxLayout@@UAE@XZ 100275c8     qt-mt323:qt-mt323.dll
 0002:000005cc       __imp_??0QVBoxLayout@@QAE@PAVQWidget@@HHPBD@Z 100275cc     qt-mt323:qt-mt323.dll
 0002:000005d0       __imp_??1QVBoxLayout@@UAE@XZ 100275d0     qt-mt323:qt-mt323.dll
 0002:000005d4       __imp_?addChild@QScrollView@@UAEXPAVQWidget@@HH@Z 100275d4     qt-mt323:qt-mt323.dll
 0002:000005d8       __imp_?addItem@QBoxLayout@@UAEXPAVQLayoutItem@@@Z 100275d8     qt-mt323:qt-mt323.dll
 0002:000005dc       __imp_?append@QTextEdit@@UAEXABVQString@@@Z 100275dc     qt-mt323:qt-mt323.dll
 0002:000005e0       __imp_?childEvent@QLayout@@MAEXPAVQChildEvent@@@Z 100275e0     qt-mt323:qt-mt323.dll
 0002:000005e4       __imp_?className@QCheckBox@@UBEPBDXZ 100275e4     qt-mt323:qt-mt323.dll
 0002:000005e8       __imp_?className@QHBoxLayout@@UBEPBDXZ 100275e8     qt-mt323:qt-mt323.dll
 0002:000005ec       __imp_?className@QPushButton@@UBEPBDXZ 100275ec     qt-mt323:qt-mt323.dll
 0002:000005f0       __imp_?className@QTextEdit@@UBEPBDXZ 100275f0     qt-mt323:qt-mt323.dll
 0002:000005f4       __imp_?className@QVBoxLayout@@UBEPBDXZ 100275f4     qt-mt323:qt-mt323.dll
 0002:000005f8       __imp_?clear@QTextEdit@@UAEXXZ 100275f8     qt-mt323:qt-mt323.dll
 0002:000005fc       __imp_?clearParagraphBackground@QTextEdit@@UAEXH@Z 100275fc     qt-mt323:qt-mt323.dll
 0002:00000600       __imp_?contentsContextMenuEvent@QTextEdit@@MAEXPAVQContextMenuEvent@@@Z 10027600     qt-mt323:qt-mt323.dll
 0002:00000604       __imp_?contentsDragEnterEvent@QTextEdit@@MAEXPAVQDragEnterEvent@@@Z 10027604     qt-mt323:qt-mt323.dll
 0002:00000608       __imp_?contentsDragLeaveEvent@QTextEdit@@MAEXPAVQDragLeaveEvent@@@Z 10027608     qt-mt323:qt-mt323.dll
 0002:0000060c       __imp_?contentsDragMoveEvent@QTextEdit@@MAEXPAVQDragMoveEvent@@@Z 1002760c     qt-mt323:qt-mt323.dll
 0002:00000610       __imp_?contentsDropEvent@QTextEdit@@MAEXPAVQDropEvent@@@Z 10027610     qt-mt323:qt-mt323.dll
 0002:00000614       __imp_?contentsMouseDoubleClickEvent@QTextEdit@@MAEXPAVQMouseEvent@@@Z 10027614     qt-mt323:qt-mt323.dll
 0002:00000618       __imp_?contentsMouseMoveEvent@QTextEdit@@MAEXPAVQMouseEvent@@@Z 10027618     qt-mt323:qt-mt323.dll
 0002:0000061c       __imp_?contentsMousePressEvent@QTextEdit@@MAEXPAVQMouseEvent@@@Z 1002761c     qt-mt323:qt-mt323.dll
 0002:00000620       __imp_?contentsMouseReleaseEvent@QTextEdit@@MAEXPAVQMouseEvent@@@Z 10027620     qt-mt323:qt-mt323.dll
 0002:00000624       __imp_?contentsWheelEvent@QTextEdit@@MAEXPAVQWheelEvent@@@Z 10027624     qt-mt323:qt-mt323.dll
 0002:00000628       __imp_?contextMenuEvent@QScrollView@@MAEXPAVQContextMenuEvent@@@Z 10027628     qt-mt323:qt-mt323.dll
 0002:0000062c       __imp_?copy@QTextEdit@@UAEXXZ 1002762c     qt-mt323:qt-mt323.dll
 0002:00000630       __imp_?createPopupMenu@QTextEdit@@MAEPAVQPopupMenu@@ABVQPoint@@@Z 10027630     qt-mt323:qt-mt323.dll
 0002:00000634       __imp_?createPopupMenu@QTextEdit@@MAEPAVQPopupMenu@@XZ 10027634     qt-mt323:qt-mt323.dll
 0002:00000638       __imp_?cut@QTextEdit@@UAEXXZ 10027638     qt-mt323:qt-mt323.dll
 0002:0000063c       __imp_?del@QTextEdit@@UAEXXZ 1002763c     qt-mt323:qt-mt323.dll
 0002:00000640       __imp_?doChangeInterval@QTextEdit@@MAEXXZ 10027640     qt-mt323:qt-mt323.dll
 0002:00000644       __imp_?doKeyboardAction@QTextEdit@@UAEXW4KeyboardAction@1@@Z 10027644     qt-mt323:qt-mt323.dll
 0002:00000648       __imp_?drawButton@QCheckBox@@MAEXPAVQPainter@@@Z 10027648     qt-mt323:qt-mt323.dll
 0002:0000064c       __imp_?drawButton@QPushButton@@MAEXPAVQPainter@@@Z 1002764c     qt-mt323:qt-mt323.dll
 0002:00000650       __imp_?drawButtonLabel@QCheckBox@@MAEXPAVQPainter@@@Z 10027650     qt-mt323:qt-mt323.dll
 0002:00000654       __imp_?drawButtonLabel@QPushButton@@MAEXPAVQPainter@@@Z 10027654     qt-mt323:qt-mt323.dll
 0002:00000658       __imp_?drawContents@QTextEdit@@EAEXPAVQPainter@@@Z 10027658     qt-mt323:qt-mt323.dll
 0002:0000065c       __imp_?drawContents@QTextEdit@@MAEXPAVQPainter@@HHHH@Z 1002765c     qt-mt323:qt-mt323.dll
 0002:00000660       __imp_?drawContentsOffset@QScrollView@@MAEXPAVQPainter@@HHHHHH@Z 10027660     qt-mt323:qt-mt323.dll
 0002:00000664       __imp_?drawFrame@QFrame@@MAEXPAVQPainter@@@Z 10027664     qt-mt323:qt-mt323.dll
 0002:00000668       __imp_?emitHighlighted@QTextEdit@@EAEXABVQString@@@Z 10027668     qt-mt323:qt-mt323.dll
 0002:0000066c       __imp_?emitLinkClicked@QTextEdit@@EAEXABVQString@@@Z 1002766c     qt-mt323:qt-mt323.dll
 0002:00000670       __imp_?enabledChange@QButton@@MAEX_N@Z 10027670     qt-mt323:qt-mt323.dll
 0002:00000674       __imp_?ensureCursorVisible@QTextEdit@@UAEXXZ 10027674     qt-mt323:qt-mt323.dll
 0002:00000678       __imp_?event@QObject@@UAE_NPAVQEvent@@@Z 10027678     qt-mt323:qt-mt323.dll
 0002:0000067c       __imp_?event@QTextEdit@@MAE_NPAVQEvent@@@Z 1002767c     qt-mt323:qt-mt323.dll
 0002:00000680       __imp_?eventFilter@QLayout@@MAE_NPAVQObject@@PAVQEvent@@@Z 10027680     qt-mt323:qt-mt323.dll
 0002:00000684       __imp_?eventFilter@QTextEdit@@UAE_NPAVQObject@@PAVQEvent@@@Z 10027684     qt-mt323:qt-mt323.dll
 0002:00000688       __imp_?expanding@QBoxLayout@@UBE?AW4ExpandData@QSizePolicy@@XZ 10027688     qt-mt323:qt-mt323.dll
 0002:0000068c       __imp_?expanding@QSpacerItem@@UBE?AW4ExpandData@QSizePolicy@@XZ 1002768c     qt-mt323:qt-mt323.dll
 0002:00000690       __imp_?find@QTextEdit@@UAE_NABVQString@@_N11PAH2@Z 10027690     qt-mt323:qt-mt323.dll
 0002:00000694       __imp_?focusInEvent@QButton@@MAEXPAVQFocusEvent@@@Z 10027694     qt-mt323:qt-mt323.dll
 0002:00000698       __imp_?focusInEvent@QPushButton@@MAEXPAVQFocusEvent@@@Z 10027698     qt-mt323:qt-mt323.dll
 0002:0000069c       __imp_?focusNextPrevChild@QTextEdit@@MAE_N_N@Z 1002769c     qt-mt323:qt-mt323.dll
 0002:000006a0       __imp_?focusOutEvent@QButton@@MAEXPAVQFocusEvent@@@Z 100276a0     qt-mt323:qt-mt323.dll
 0002:000006a4       __imp_?focusOutEvent@QPushButton@@MAEXPAVQFocusEvent@@@Z 100276a4     qt-mt323:qt-mt323.dll
 0002:000006a8       __imp_?fontChange@QScrollView@@MAEXABVQFont@@@Z 100276a8     qt-mt323:qt-mt323.dll
 0002:000006ac       __imp_?frameChanged@QScrollView@@MAEXXZ 100276ac     qt-mt323:qt-mt323.dll
 0002:000006b0       __imp_?geometry@QLayout@@UBE?AVQRect@@XZ 100276b0     qt-mt323:qt-mt323.dll
 0002:000006b4       __imp_?geometry@QSpacerItem@@UBE?AVQRect@@XZ 100276b4     qt-mt323:qt-mt323.dll
 0002:000006b8       __imp_?getFormat@QTextEdit@@UAE_NHHPAVQFont@@PAVQColor@@PAW4VerticalAlignment@1@@Z 100276b8     qt-mt323:qt-mt323.dll
 0002:000006bc       __imp_?getParagraphFormat@QTextEdit@@UAE_NHPAVQFont@@PAVQColor@@PAW4VerticalAlignment@1@PAHPAW4DisplayMode@QStyleSheetItem@@PAW4ListStyle@6@3@Z 100276bc     qt-mt323:qt-mt323.dll
 0002:000006c0       __imp_?hasHeightForWidth@QBoxLayout@@UBE_NXZ 100276c0     qt-mt323:qt-mt323.dll
 0002:000006c4       __imp_?hasHeightForWidth@QLayoutItem@@UBE_NXZ 100276c4     qt-mt323:qt-mt323.dll
 0002:000006c8       __imp_?heightForWidth@QBoxLayout@@UBEHH@Z 100276c8     qt-mt323:qt-mt323.dll
 0002:000006cc       __imp_?heightForWidth@QLayoutItem@@UBEHH@Z 100276cc     qt-mt323:qt-mt323.dll
 0002:000006d0       __imp_?heightForWidth@QTextEdit@@UBEHH@Z 100276d0     qt-mt323:qt-mt323.dll
 0002:000006d4       __imp_?hitButton@QButton@@MBE_NABVQPoint@@@Z 100276d4     qt-mt323:qt-mt323.dll
 0002:000006d8       __imp_?hitButton@QCheckBox@@MBE_NABVQPoint@@@Z 100276d8     qt-mt323:qt-mt323.dll
 0002:000006dc       __imp_?imComposeEvent@QTextEdit@@MAEXPAVQIMEvent@@@Z 100276dc     qt-mt323:qt-mt323.dll
 0002:000006e0       __imp_?imEndEvent@QTextEdit@@MAEXPAVQIMEvent@@@Z 100276e0     qt-mt323:qt-mt323.dll
 0002:000006e4       __imp_?imStartEvent@QTextEdit@@MAEXPAVQIMEvent@@@Z 100276e4     qt-mt323:qt-mt323.dll
 0002:000006e8       __imp_?indent@QTextEdit@@UAEXXZ 100276e8     qt-mt323:qt-mt323.dll
 0002:000006ec       __imp_?insert@QTextEdit@@UAEXABVQString@@_N11@Z 100276ec     qt-mt323:qt-mt323.dll
 0002:000006f0       __imp_?insertAt@QTextEdit@@UAEXABVQString@@HH@Z 100276f0     qt-mt323:qt-mt323.dll
 0002:000006f4       __imp_?insertParagraph@QTextEdit@@UAEXABVQString@@H@Z 100276f4     qt-mt323:qt-mt323.dll
 0002:000006f8       __imp_?invalidate@QBoxLayout@@UAEXXZ 100276f8     qt-mt323:qt-mt323.dll
 0002:000006fc       __imp_?invalidate@QLayoutItem@@UAEXXZ 100276fc     qt-mt323:qt-mt323.dll
 0002:00000700       __imp_?isEmpty@QLayout@@UBE_NXZ 10027700     qt-mt323:qt-mt323.dll
 0002:00000704       __imp_?isEmpty@QSpacerItem@@UBE_NXZ 10027704     qt-mt323:qt-mt323.dll
 0002:00000708       __imp_?iterator@QBoxLayout@@UAE?AVQLayoutIterator@@XZ 10027708     qt-mt323:qt-mt323.dll
 0002:0000070c       __imp_?iterator@QLayoutItem@@UAE?AVQLayoutIterator@@XZ 1002770c     qt-mt323:qt-mt323.dll
 0002:00000710       __imp_?keyPressEvent@QButton@@MAEXPAVQKeyEvent@@@Z 10027710     qt-mt323:qt-mt323.dll
 0002:00000714       __imp_?keyPressEvent@QTextEdit@@MAEXPAVQKeyEvent@@@Z 10027714     qt-mt323:qt-mt323.dll
 0002:00000718       __imp_?keyReleaseEvent@QButton@@MAEXPAVQKeyEvent@@@Z 10027718     qt-mt323:qt-mt323.dll
 0002:0000071c       __imp_?layout@QLayout@@UAEPAV1@XZ 1002771c     qt-mt323:qt-mt323.dll
 0002:00000720       __imp_?layout@QLayoutItem@@UAEPAVQLayout@@XZ 10027720     qt-mt323:qt-mt323.dll
 0002:00000724       __imp_?linksEnabled@QTextEdit@@EBE_NXZ 10027724     qt-mt323:qt-mt323.dll
 0002:00000728       __imp_?maximumSize@QBoxLayout@@UBE?AVQSize@@XZ 10027728     qt-mt323:qt-mt323.dll
 0002:0000072c       __imp_?maximumSize@QSpacerItem@@UBE?AVQSize@@XZ 1002772c     qt-mt323:qt-mt323.dll
 0002:00000730       __imp_?metaObject@QCheckBox@@UBEPAVQMetaObject@@XZ 10027730     qt-mt323:qt-mt323.dll
 0002:00000734       __imp_?metaObject@QHBoxLayout@@UBEPAVQMetaObject@@XZ 10027734     qt-mt323:qt-mt323.dll
 0002:00000738       __imp_?metaObject@QPushButton@@UBEPAVQMetaObject@@XZ 10027738     qt-mt323:qt-mt323.dll
 0002:0000073c       __imp_?metaObject@QTextEdit@@UBEPAVQMetaObject@@XZ 1002773c     qt-mt323:qt-mt323.dll
 0002:00000740       __imp_?metaObject@QVBoxLayout@@UBEPAVQMetaObject@@XZ 10027740     qt-mt323:qt-mt323.dll
 0002:00000744       __imp_?minimumSize@QBoxLayout@@UBE?AVQSize@@XZ 10027744     qt-mt323:qt-mt323.dll
 0002:00000748       __imp_?minimumSize@QSpacerItem@@UBE?AVQSize@@XZ 10027748     qt-mt323:qt-mt323.dll
 0002:0000074c       __imp_?minimumSizeHint@QScrollView@@UBE?AVQSize@@XZ 1002774c     qt-mt323:qt-mt323.dll
 0002:00000750       __imp_?mouseDoubleClickEvent@QScrollView@@MAEXPAVQMouseEvent@@@Z 10027750     qt-mt323:qt-mt323.dll
 0002:00000754       __imp_?mouseMoveEvent@QButton@@MAEXPAVQMouseEvent@@@Z 10027754     qt-mt323:qt-mt323.dll
 0002:00000758       __imp_?mouseMoveEvent@QScrollView@@MAEXPAVQMouseEvent@@@Z 10027758     qt-mt323:qt-mt323.dll
 0002:0000075c       __imp_?mousePressEvent@QButton@@MAEXPAVQMouseEvent@@@Z 1002775c     qt-mt323:qt-mt323.dll
 0002:00000760       __imp_?mousePressEvent@QScrollView@@MAEXPAVQMouseEvent@@@Z 10027760     qt-mt323:qt-mt323.dll
 0002:00000764       __imp_?mouseReleaseEvent@QButton@@MAEXPAVQMouseEvent@@@Z 10027764     qt-mt323:qt-mt323.dll
 0002:00000768       __imp_?mouseReleaseEvent@QScrollView@@MAEXPAVQMouseEvent@@@Z 10027768     qt-mt323:qt-mt323.dll
 0002:0000076c       __imp_?move@QPushButton@@UAEXHH@Z 1002776c     qt-mt323:qt-mt323.dll
 0002:00000770       __imp_?moveChild@QScrollView@@UAEXPAVQWidget@@HH@Z 10027770     qt-mt323:qt-mt323.dll
 0002:00000774       __imp_?moveCursor@QTextEdit@@UAEXW4CursorAction@1@_N@Z 10027774     qt-mt323:qt-mt323.dll
 0002:00000778       __imp_?paintEvent@QButton@@MAEXPAVQPaintEvent@@@Z 10027778     qt-mt323:qt-mt323.dll
 0002:0000077c       __imp_?paintEvent@QFrame@@MAEXPAVQPaintEvent@@@Z 1002777c     qt-mt323:qt-mt323.dll
 0002:00000780       __imp_?paste@QTextEdit@@UAEXXZ 10027780     qt-mt323:qt-mt323.dll
 0002:00000784       __imp_?pasteSubType@QTextEdit@@UAEXABVQCString@@@Z 10027784     qt-mt323:qt-mt323.dll
 0002:00000788       __imp_?placeCursor@QTextEdit@@UAEXABVQPoint@@PAVQTextCursor@@@Z 10027788     qt-mt323:qt-mt323.dll
 0002:0000078c       __imp_?polish@QTextEdit@@UAEXXZ 1002778c     qt-mt323:qt-mt323.dll
 0002:00000790       __imp_?qt_cast@QCheckBox@@UAEPAXPBD@Z 10027790     qt-mt323:qt-mt323.dll
 0002:00000794       __imp_?qt_cast@QHBoxLayout@@UAEPAXPBD@Z 10027794     qt-mt323:qt-mt323.dll
 0002:00000798       __imp_?qt_cast@QPushButton@@UAEPAXPBD@Z 10027798     qt-mt323:qt-mt323.dll
 0002:0000079c       __imp_?qt_cast@QTextEdit@@UAEPAXPBD@Z 1002779c     qt-mt323:qt-mt323.dll
 0002:000007a0       __imp_?qt_cast@QVBoxLayout@@UAEPAXPBD@Z 100277a0     qt-mt323:qt-mt323.dll
 0002:000007a4       __imp_?qt_emit@QCheckBox@@UAE_NHPAUQUObject@@@Z 100277a4     qt-mt323:qt-mt323.dll
 0002:000007a8       __imp_?qt_emit@QHBoxLayout@@UAE_NHPAUQUObject@@@Z 100277a8     qt-mt323:qt-mt323.dll
 0002:000007ac       __imp_?qt_emit@QPushButton@@UAE_NHPAUQUObject@@@Z 100277ac     qt-mt323:qt-mt323.dll
 0002:000007b0       __imp_?qt_emit@QTextEdit@@UAE_NHPAUQUObject@@@Z 100277b0     qt-mt323:qt-mt323.dll
 0002:000007b4       __imp_?qt_emit@QVBoxLayout@@UAE_NHPAUQUObject@@@Z 100277b4     qt-mt323:qt-mt323.dll
 0002:000007b8       __imp_?qt_invoke@QCheckBox@@UAE_NHPAUQUObject@@@Z 100277b8     qt-mt323:qt-mt323.dll
 0002:000007bc       __imp_?qt_invoke@QHBoxLayout@@UAE_NHPAUQUObject@@@Z 100277bc     qt-mt323:qt-mt323.dll
 0002:000007c0       __imp_?qt_invoke@QPushButton@@UAE_NHPAUQUObject@@@Z 100277c0     qt-mt323:qt-mt323.dll
 0002:000007c4       __imp_?qt_invoke@QTextEdit@@UAE_NHPAUQUObject@@@Z 100277c4     qt-mt323:qt-mt323.dll
 0002:000007c8       __imp_?qt_invoke@QVBoxLayout@@UAE_NHPAUQUObject@@@Z 100277c8     qt-mt323:qt-mt323.dll
 0002:000007cc       __imp_?qt_property@QCheckBox@@UAE_NHHPAVQVariant@@@Z 100277cc     qt-mt323:qt-mt323.dll
 0002:000007d0       __imp_?qt_property@QHBoxLayout@@UAE_NHHPAVQVariant@@@Z 100277d0     qt-mt323:qt-mt323.dll
 0002:000007d4       __imp_?qt_property@QPushButton@@UAE_NHHPAVQVariant@@@Z 100277d4     qt-mt323:qt-mt323.dll
 0002:000007d8       __imp_?qt_property@QTextEdit@@UAE_NHHPAVQVariant@@@Z 100277d8     qt-mt323:qt-mt323.dll
 0002:000007dc       __imp_?qt_property@QVBoxLayout@@UAE_NHHPAVQVariant@@@Z 100277dc     qt-mt323:qt-mt323.dll
 0002:000007e0       __imp_?redo@QTextEdit@@UAEXXZ 100277e0     qt-mt323:qt-mt323.dll
 0002:000007e4       __imp_?removeChild@QScrollView@@UAEXPAVQObject@@@Z 100277e4     qt-mt323:qt-mt323.dll
 0002:000007e8       __imp_?removeParagraph@QTextEdit@@UAEXH@Z 100277e8     qt-mt323:qt-mt323.dll
 0002:000007ec       __imp_?removeSelectedText@QTextEdit@@UAEXH@Z 100277ec     qt-mt323:qt-mt323.dll
 0002:000007f0       __imp_?removeSelection@QTextEdit@@UAEXH@Z 100277f0     qt-mt323:qt-mt323.dll
 0002:000007f4       __imp_?resetFormat@QTextEdit@@UAEXXZ 100277f4     qt-mt323:qt-mt323.dll
 0002:000007f8       __imp_?resize@QPushButton@@UAEXHH@Z 100277f8     qt-mt323:qt-mt323.dll
 0002:000007fc       __imp_?resize@QScrollView@@UAEXHH@Z 100277fc     qt-mt323:qt-mt323.dll
 0002:00000800       __imp_?resizeContents@QScrollView@@UAEXHH@Z 10027800     qt-mt323:qt-mt323.dll
 0002:00000804       __imp_?resizeEvent@QCheckBox@@MAEXPAVQResizeEvent@@@Z 10027804     qt-mt323:qt-mt323.dll
 0002:00000808       __imp_?resizeEvent@QPushButton@@MAEXPAVQResizeEvent@@@Z 10027808     qt-mt323:qt-mt323.dll
 0002:0000080c       __imp_?resizeEvent@QTextEdit@@MAEXPAVQResizeEvent@@@Z 1002780c     qt-mt323:qt-mt323.dll
 0002:00000810       __imp_?scrollToAnchor@QTextEdit@@UAEXABVQString@@@Z 10027810     qt-mt323:qt-mt323.dll
 0002:00000814       __imp_?scrollToBottom@QTextEdit@@UAEXXZ 10027814     qt-mt323:qt-mt323.dll
 0002:00000818       __imp_?selectAll@QTextEdit@@UAEX_N@Z 10027818     qt-mt323:qt-mt323.dll
 0002:0000081c       __imp_?setAccel@QButton@@UAEXABVQKeySequence@@@Z 1002781c     qt-mt323:qt-mt323.dll
 0002:00000820       __imp_?setAlignment@QLayoutItem@@UAEXH@Z 10027820     qt-mt323:qt-mt323.dll
 0002:00000824       __imp_?setAlignment@QTextEdit@@UAEXH@Z 10027824     qt-mt323:qt-mt323.dll
 0002:00000828       __imp_?setAutoAdd@QLayout@@UAEX_N@Z 10027828     qt-mt323:qt-mt323.dll
 0002:0000082c       __imp_?setAutoDefault@QPushButton@@UAEX_N@Z 1002782c     qt-mt323:qt-mt323.dll
 0002:00000830       __imp_?setAutoRepeat@QButton@@UAEX_N@Z 10027830     qt-mt323:qt-mt323.dll
 0002:00000834       __imp_?setBold@QTextEdit@@UAEX_N@Z 10027834     qt-mt323:qt-mt323.dll
 0002:00000838       __imp_?setColor@QTextEdit@@UAEXABVQColor@@@Z 10027838     qt-mt323:qt-mt323.dll
 0002:0000083c       __imp_?setContentsPos@QScrollView@@UAEXHH@Z 1002783c     qt-mt323:qt-mt323.dll
 0002:00000840       __imp_?setCornerWidget@QScrollView@@UAEXPAVQWidget@@@Z 10027840     qt-mt323:qt-mt323.dll
 0002:00000844       __imp_?setCurrentFont@QTextEdit@@UAEXABVQFont@@@Z 10027844     qt-mt323:qt-mt323.dll
 0002:00000848       __imp_?setCursorPosition@QTextEdit@@UAEXHH@Z 10027848     qt-mt323:qt-mt323.dll
 0002:0000084c       __imp_?setDefault@QPushButton@@UAEX_N@Z 1002784c     qt-mt323:qt-mt323.dll
 0002:00000850       __imp_?setDown@QButton@@UAEX_N@Z 10027850     qt-mt323:qt-mt323.dll
 0002:00000854       __imp_?setDragAutoScroll@QScrollView@@UAEX_N@Z 10027854     qt-mt323:qt-mt323.dll
 0002:00000858       __imp_?setEnabled@QTextEdit@@UAEX_N@Z 10027858     qt-mt323:qt-mt323.dll
 0002:0000085c       __imp_?setFamily@QTextEdit@@UAEXABVQString@@@Z 1002785c     qt-mt323:qt-mt323.dll
 0002:00000860       __imp_?setFont@QTextEdit@@UAEXABVQFont@@@Z 10027860     qt-mt323:qt-mt323.dll
 0002:00000864       __imp_?setFormat@QTextEdit@@UAEXPAVQTextFormat@@H@Z 10027864     qt-mt323:qt-mt323.dll
 0002:00000868       __imp_?setFrameRect@QFrame@@UAEXABVQRect@@@Z 10027868     qt-mt323:qt-mt323.dll
 0002:0000086c       __imp_?setFrameStyle@QFrame@@UAEXH@Z 1002786c     qt-mt323:qt-mt323.dll
 0002:00000870       __imp_?setGeometry@QBoxLayout@@UAEXABVQRect@@@Z 10027870     qt-mt323:qt-mt323.dll
 0002:00000874       __imp_?setGeometry@QPushButton@@UAEXABVQRect@@@Z 10027874     qt-mt323:qt-mt323.dll
 0002:00000878       __imp_?setGeometry@QPushButton@@UAEXHHHH@Z 10027878     qt-mt323:qt-mt323.dll
 0002:0000087c       __imp_?setGeometry@QSpacerItem@@UAEXABVQRect@@@Z 1002787c     qt-mt323:qt-mt323.dll
 0002:00000880       __imp_?setGroup@QButton@@EAEXPAVQButtonGroup@@@Z 10027880     qt-mt323:qt-mt323.dll
 0002:00000884       __imp_?setHBarGeometry@QScrollView@@MAEXAAVQScrollBar@@HHHH@Z 10027884     qt-mt323:qt-mt323.dll
 0002:00000888       __imp_?setHScrollBarMode@QScrollView@@UAEXW4ScrollBarMode@1@@Z 10027888     qt-mt323:qt-mt323.dll
 0002:0000088c       __imp_?setIsMenuButton@QPushButton@@UAEX_N@Z 1002788c     qt-mt323:qt-mt323.dll
 0002:00000890       __imp_?setItalic@QTextEdit@@UAEX_N@Z 10027890     qt-mt323:qt-mt323.dll
 0002:00000894       __imp_?setLineWidth@QFrame@@UAEXH@Z 10027894     qt-mt323:qt-mt323.dll
 0002:00000898       __imp_?setLinkUnderline@QTextEdit@@UAEX_N@Z 10027898     qt-mt323:qt-mt323.dll
 0002:0000089c       __imp_?setMargin@QFrame@@UAEXH@Z 1002789c     qt-mt323:qt-mt323.dll
 0002:000008a0       __imp_?setMargin@QLayout@@UAEXH@Z 100278a0     qt-mt323:qt-mt323.dll
 0002:000008a4       __imp_?setMargins@QScrollView@@MAEXHHHH@Z 100278a4     qt-mt323:qt-mt323.dll
 0002:000008a8       __imp_?setMenuBar@QLayout@@UAEXPAVQMenuBar@@@Z 100278a8     qt-mt323:qt-mt323.dll
 0002:000008ac       __imp_?setMidLineWidth@QFrame@@UAEXH@Z 100278ac     qt-mt323:qt-mt323.dll
 0002:000008b0       __imp_?setMimeSourceFactory@QTextEdit@@UAEXPAVQMimeSourceFactory@@@Z 100278b0     qt-mt323:qt-mt323.dll
 0002:000008b4       __imp_?setModified@QTextEdit@@UAEX_N@Z 100278b4     qt-mt323:qt-mt323.dll
 0002:000008b8       __imp_?setName@QObject@@UAEXPBD@Z 100278b8     qt-mt323:qt-mt323.dll
 0002:000008bc       __imp_?setOn@QPushButton@@UAEX_N@Z 100278bc     qt-mt323:qt-mt323.dll
 0002:000008c0       __imp_?setOverwriteMode@QTextEdit@@UAEX_N@Z 100278c0     qt-mt323:qt-mt323.dll
 0002:000008c4       __imp_?setPalette@QTextEdit@@UAEXABVQPalette@@@Z 100278c4     qt-mt323:qt-mt323.dll
 0002:000008c8       __imp_?setPaper@QTextEdit@@UAEXABVQBrush@@@Z 100278c8     qt-mt323:qt-mt323.dll
 0002:000008cc       __imp_?setParagType@QTextEdit@@UAEXW4DisplayMode@QStyleSheetItem@@W4ListStyle@3@@Z 100278cc     qt-mt323:qt-mt323.dll
 0002:000008d0       __imp_?setParagraphBackgroundColor@QTextEdit@@UAEXHABVQColor@@@Z 100278d0     qt-mt323:qt-mt323.dll
 0002:000008d4       __imp_?setPixmap@QButton@@UAEXABVQPixmap@@@Z 100278d4     qt-mt323:qt-mt323.dll
 0002:000008d8       __imp_?setPointSize@QTextEdit@@UAEXH@Z 100278d8     qt-mt323:qt-mt323.dll
 0002:000008dc       __imp_?setReadOnly@QTextEdit@@UAEX_N@Z 100278dc     qt-mt323:qt-mt323.dll
 0002:000008e0       __imp_?setResizePolicy@QScrollView@@UAEXW4ResizePolicy@1@@Z 100278e0     qt-mt323:qt-mt323.dll
 0002:000008e4       __imp_?setSelection@QTextEdit@@UAEXHHHHH@Z 100278e4     qt-mt323:qt-mt323.dll
 0002:000008e8       __imp_?setSelectionAttributes@QTextEdit@@UAEXHABVQColor@@_N@Z 100278e8     qt-mt323:qt-mt323.dll
 0002:000008ec       __imp_?setSpacing@QLayout@@UAEXH@Z 100278ec     qt-mt323:qt-mt323.dll
 0002:000008f0       __imp_?setState@QButton@@MAEXW4ToggleState@1@@Z 100278f0     qt-mt323:qt-mt323.dll
 0002:000008f4       __imp_?setStyleSheet@QTextEdit@@UAEXPAVQStyleSheet@@@Z 100278f4     qt-mt323:qt-mt323.dll
 0002:000008f8       __imp_?setTabStopWidth@QTextEdit@@UAEXH@Z 100278f8     qt-mt323:qt-mt323.dll
 0002:000008fc       __imp_?setText@QButton@@UAEXABVQString@@@Z 100278fc     qt-mt323:qt-mt323.dll
 0002:00000900       __imp_?setText@QTextEdit@@UAEXABVQString@@0@Z 10027900     qt-mt323:qt-mt323.dll
 0002:00000904       __imp_?setTextFormat@QTextEdit@@UAEXW4TextFormat@Qt@@@Z 10027904     qt-mt323:qt-mt323.dll
 0002:00000908       __imp_?setToggleType@QButton@@MAEXW4ToggleType@1@@Z 10027908     qt-mt323:qt-mt323.dll
 0002:0000090c       __imp_?setUnderline@QTextEdit@@UAEX_N@Z 1002790c     qt-mt323:qt-mt323.dll
 0002:00000910       __imp_?setUndoDepth@QTextEdit@@UAEXH@Z 10027910     qt-mt323:qt-mt323.dll
 0002:00000914       __imp_?setUndoRedoEnabled@QTextEdit@@UAEX_N@Z 10027914     qt-mt323:qt-mt323.dll
 0002:00000918       __imp_?setVBarGeometry@QScrollView@@MAEXAAVQScrollBar@@HHHH@Z 10027918     qt-mt323:qt-mt323.dll
 0002:0000091c       __imp_?setVScrollBarMode@QScrollView@@UAEXW4ScrollBarMode@1@@Z 1002791c     qt-mt323:qt-mt323.dll
 0002:00000920       __imp_?setVerticalAlignment@QTextEdit@@UAEXW4VerticalAlignment@1@@Z 10027920     qt-mt323:qt-mt323.dll
 0002:00000924       __imp_?setWordWrap@QTextEdit@@UAEXW4WordWrap@1@@Z 10027924     qt-mt323:qt-mt323.dll
 0002:00000928       __imp_?setWrapColumnOrWidth@QTextEdit@@UAEXH@Z 10027928     qt-mt323:qt-mt323.dll
 0002:0000092c       __imp_?setWrapPolicy@QTextEdit@@UAEXW4WrapPolicy@1@@Z 1002792c     qt-mt323:qt-mt323.dll
 0002:00000930       __imp_?show@QScrollView@@UAEXXZ 10027930     qt-mt323:qt-mt323.dll
 0002:00000934       __imp_?sizeHint@QBoxLayout@@UBE?AVQSize@@XZ 10027934     qt-mt323:qt-mt323.dll
 0002:00000938       __imp_?sizeHint@QCheckBox@@UBE?AVQSize@@XZ 10027938     qt-mt323:qt-mt323.dll
 0002:0000093c       __imp_?sizeHint@QPushButton@@UBE?AVQSize@@XZ 1002793c     qt-mt323:qt-mt323.dll
 0002:00000940       __imp_?sizeHint@QSpacerItem@@UBE?AVQSize@@XZ 10027940     qt-mt323:qt-mt323.dll
 0002:00000944       __imp_?sizeHint@QTextEdit@@UBE?AVQSize@@XZ 10027944     qt-mt323:qt-mt323.dll
 0002:00000948       __imp_?spacerItem@QLayoutItem@@UAEPAVQSpacerItem@@XZ 10027948     qt-mt323:qt-mt323.dll
 0002:0000094c       __imp_?spacerItem@QSpacerItem@@UAEPAV1@XZ 1002794c     qt-mt323:qt-mt323.dll
 0002:00000950       __imp_?styleChange@QScrollView@@UAEXAAVQStyle@@@Z 10027950     qt-mt323:qt-mt323.dll
 0002:00000954       __imp_?sync@QTextEdit@@UAEXXZ 10027954     qt-mt323:qt-mt323.dll
 0002:00000958       __imp_?undo@QTextEdit@@UAEXXZ 10027958     qt-mt323:qt-mt323.dll
 0002:0000095c       __imp_?updateMask@QCheckBox@@MAEXXZ 1002795c     qt-mt323:qt-mt323.dll
 0002:00000960       __imp_?updateMask@QPushButton@@MAEXXZ 10027960     qt-mt323:qt-mt323.dll
 0002:00000964       __imp_?viewportContextMenuEvent@QScrollView@@MAEXPAVQContextMenuEvent@@@Z 10027964     qt-mt323:qt-mt323.dll
 0002:00000968       __imp_?viewportDragEnterEvent@QScrollView@@MAEXPAVQDragEnterEvent@@@Z 10027968     qt-mt323:qt-mt323.dll
 0002:0000096c       __imp_?viewportDragLeaveEvent@QScrollView@@MAEXPAVQDragLeaveEvent@@@Z 1002796c     qt-mt323:qt-mt323.dll
 0002:00000970       __imp_?viewportDragMoveEvent@QScrollView@@MAEXPAVQDragMoveEvent@@@Z 10027970     qt-mt323:qt-mt323.dll
 0002:00000974       __imp_?viewportDropEvent@QScrollView@@MAEXPAVQDropEvent@@@Z 10027974     qt-mt323:qt-mt323.dll
 0002:00000978       __imp_?viewportMouseDoubleClickEvent@QScrollView@@MAEXPAVQMouseEvent@@@Z 10027978     qt-mt323:qt-mt323.dll
 0002:0000097c       __imp_?viewportMouseMoveEvent@QScrollView@@MAEXPAVQMouseEvent@@@Z 1002797c     qt-mt323:qt-mt323.dll
 0002:00000980       __imp_?viewportMousePressEvent@QScrollView@@MAEXPAVQMouseEvent@@@Z 10027980     qt-mt323:qt-mt323.dll
 0002:00000984       __imp_?viewportMouseReleaseEvent@QScrollView@@MAEXPAVQMouseEvent@@@Z 10027984     qt-mt323:qt-mt323.dll
 0002:00000988       __imp_?viewportPaintEvent@QScrollView@@MAEXPAVQPaintEvent@@@Z 10027988     qt-mt323:qt-mt323.dll
 0002:0000098c       __imp_?viewportResizeEvent@QTextEdit@@MAEXPAVQResizeEvent@@@Z 1002798c     qt-mt323:qt-mt323.dll
 0002:00000990       __imp_?viewportWheelEvent@QScrollView@@MAEXPAVQWheelEvent@@@Z 10027990     qt-mt323:qt-mt323.dll
 0002:00000994       __imp_?wheelEvent@QScrollView@@MAEXPAVQWheelEvent@@@Z 10027994     qt-mt323:qt-mt323.dll
 0002:00000998       __imp_?widget@QLayoutItem@@UAEPAVQWidget@@XZ 10027998     qt-mt323:qt-mt323.dll
 0002:0000099c       __imp_?windowActivationChange@QTextEdit@@MAEX_N@Z 1002799c     qt-mt323:qt-mt323.dll
 0002:000009a0       __imp_?zoomIn@QTextEdit@@UAEXH@Z 100279a0     qt-mt323:qt-mt323.dll
 0002:000009a4       __imp_?zoomIn@QTextEdit@@UAEXXZ 100279a4     qt-mt323:qt-mt323.dll
 0002:000009a8       __imp_?zoomOut@QTextEdit@@UAEXH@Z 100279a8     qt-mt323:qt-mt323.dll
 0002:000009ac       __imp_?zoomOut@QTextEdit@@UAEXXZ 100279ac     qt-mt323:qt-mt323.dll
 0002:000009b0       __imp_?zoomTo@QTextEdit@@UAEXH@Z 100279b0     qt-mt323:qt-mt323.dll
 0002:000009b4       __imp_?fromLatin1@QString@@SA?AV1@PBDH@Z 100279b4     qt-mt323:qt-mt323.dll
 0002:000009b8       __imp_?fromUtf8@QString@@SA?AV1@PBDH@Z 100279b8     qt-mt323:qt-mt323.dll
 0002:000009bc       __imp_?receivers@QObject@@IBEPAVQConnectionList@@H@Z 100279bc     qt-mt323:qt-mt323.dll
 0002:000009c0       __imp_?activate_signal@QObject@@IAEXPAVQConnectionList@@PAUQUObject@@@Z 100279c0     qt-mt323:qt-mt323.dll
 0002:000009c4       __imp_?qt_cast@QWidget@@UAEPAXPBD@Z 100279c4     qt-mt323:qt-mt323.dll
 0002:000009c8       __imp_?qt_invoke@QWidget@@UAE_NHPAUQUObject@@@Z 100279c8     qt-mt323:qt-mt323.dll
 0002:000009cc       __imp_?qt_emit@QWidget@@UAE_NHPAUQUObject@@@Z 100279cc     qt-mt323:qt-mt323.dll
 0002:000009d0       __imp_?qt_property@QWidget@@UAE_NHHPAVQVariant@@@Z 100279d0     qt-mt323:qt-mt323.dll
 0002:000009d4       __imp_?staticMetaObject@QWidget@@SAPAVQMetaObject@@XZ 100279d4     qt-mt323:qt-mt323.dll
 0002:000009d8       __imp_?new_metaobject@QMetaObject@@SAPAV1@PBDPAV1@QBUQMetaData@@H2HQBVQMetaProperty@@HQBUQMetaEnum@@HQBUQClassInfo@@H@Z 100279d8     qt-mt323:qt-mt323.dll
 0002:000009dc       __imp_??0QMetaObjectCleanUp@@QAE@PBDP6APAVQMetaObject@@XZ@Z 100279dc     qt-mt323:qt-mt323.dll
 0002:000009e0       __imp_??1QMetaObjectCleanUp@@QAE@XZ 100279e0     qt-mt323:qt-mt323.dll
 0002:000009e4       __imp_?setMetaObject@QMetaObjectCleanUp@@QAEXAAPAVQMetaObject@@@Z 100279e4     qt-mt323:qt-mt323.dll
 0002:000009e8       __imp_?translate@QApplication@@QBE?AVQString@@PBD00W4Encoding@1@@Z 100279e8     qt-mt323:qt-mt323.dll
 0002:000009ec       __imp_??0QUObject@@QAE@XZ  100279ec     qt-mt323:qt-mt323.dll
 0002:000009f0       __imp_??1QUObject@@QAE@XZ  100279f0     qt-mt323:qt-mt323.dll
 0002:000009f4       __imp_?set@QUType_QString@@QAEXPAUQUObject@@ABVQString@@@Z 100279f4     qt-mt323:qt-mt323.dll
 0002:000009f8       __imp_?qApp@@3PAVQApplication@@A 100279f8     qt-mt323:qt-mt323.dll
 0002:000009fc       __imp_?static_QUType_bool@@3UQUType_bool@@A 100279fc     qt-mt323:qt-mt323.dll
 0002:00000a00       __imp_?static_QUType_QString@@3UQUType_QString@@A 10027a00     qt-mt323:qt-mt323.dll
 0002:00000a04       __imp_?qt_cast@QDialog@@UAEPAXPBD@Z 10027a04     qt-mt323:qt-mt323.dll
 0002:00000a08       __imp_?qt_invoke@QDialog@@UAE_NHPAUQUObject@@@Z 10027a08     qt-mt323:qt-mt323.dll
 0002:00000a0c       __imp_?qt_emit@QDialog@@UAE_NHPAUQUObject@@@Z 10027a0c     qt-mt323:qt-mt323.dll
 0002:00000a10       __imp_?qt_property@QDialog@@UAE_NHHPAVQVariant@@@Z 10027a10     qt-mt323:qt-mt323.dll
 0002:00000a14       __imp_?staticMetaObject@QDialog@@SAPAVQMetaObject@@XZ 10027a14     qt-mt323:qt-mt323.dll
 0002:00000a18       __imp_?activate_signal_bool@QObject@@IAEXH_N@Z 10027a18     qt-mt323:qt-mt323.dll
 0002:00000a1c       __imp_?sender@QObject@@IAEPBV1@XZ 10027a1c     qt-mt323:qt-mt323.dll
 0002:00000a20       __imp_?connect@QObject@@SA_NPBV1@PBD01@Z 10027a20     qt-mt323:qt-mt323.dll
 0002:00000a24       __imp_?name@QObject@@QBEPBDXZ 10027a24     qt-mt323:qt-mt323.dll
 0002:00000a28       __imp_??ZQGListIterator@@IAEPAXI@Z 10027a28     qt-mt323:qt-mt323.dll
 0002:00000a2c       __imp_??FQGListIterator@@IAEPAXXZ 10027a2c     qt-mt323:qt-mt323.dll
 0002:00000a30       __imp_??YQGListIterator@@IAEPAXI@Z 10027a30     qt-mt323:qt-mt323.dll
 0002:00000a34       __imp_??EQGListIterator@@IAEPAXXZ 10027a34     qt-mt323:qt-mt323.dll
 0002:00000a38       __imp_??RQGListIterator@@IAEPAXXZ 10027a38     qt-mt323:qt-mt323.dll
 0002:00000a3c       __imp_?toLast@QGListIterator@@IAEPAXXZ 10027a3c     qt-mt323:qt-mt323.dll
 0002:00000a40       __imp_?toFirst@QGListIterator@@IAEPAXXZ 10027a40     qt-mt323:qt-mt323.dll
 0002:00000a44       __imp_??1QGListIterator@@IAE@XZ 10027a44     qt-mt323:qt-mt323.dll
 0002:00000a48       __imp_??4QGListIterator@@IAEAAV0@ABV0@@Z 10027a48     qt-mt323:qt-mt323.dll
 0002:00000a4c       __imp_??0QGListIterator@@IAE@ABV0@@Z 10027a4c     qt-mt323:qt-mt323.dll
 0002:00000a50       __imp_??0QGListIterator@@IAE@ABVQGList@@@Z 10027a50     qt-mt323:qt-mt323.dll
 0002:00000a54       __imp_?locate@QGList@@AAEPAVQLNode@@I@Z 10027a54     qt-mt323:qt-mt323.dll
 0002:00000a58       __imp_?erase@QGList@@IAEPAVQLNode@@PAV2@@Z 10027a58     qt-mt323:qt-mt323.dll
 0002:00000a5c       __imp_?toVector@QGList@@IBEXPAVQGVector@@@Z 10027a5c     qt-mt323:qt-mt323.dll
 0002:00000a60       __imp_?prev@QGList@@IAEPAXXZ 10027a60     qt-mt323:qt-mt323.dll
 0002:00000a64       __imp_?next@QGList@@IAEPAXXZ 10027a64     qt-mt323:qt-mt323.dll
 0002:00000a68       __imp_?last@QGList@@IAEPAXXZ 10027a68     qt-mt323:qt-mt323.dll
 0002:00000a6c       __imp_?first@QGList@@IAEPAXXZ 10027a6c     qt-mt323:qt-mt323.dll
 0002:00000a70       __imp_?contains@QGList@@IBEIPAX@Z 10027a70     qt-mt323:qt-mt323.dll
 0002:00000a74       __imp_?containsRef@QGList@@IBEIPAX@Z 10027a74     qt-mt323:qt-mt323.dll
 0002:00000a78       __imp_?find@QGList@@IAEHPAX_N@Z 10027a78     qt-mt323:qt-mt323.dll
 0002:00000a7c       __imp_?findRef@QGList@@IAEHPAX_N@Z 10027a7c     qt-mt323:qt-mt323.dll
 0002:00000a80       __imp_?clear@QGList@@MAEXXZ 10027a80     qt-mt323:qt-mt323.dll
 0002:00000a84       __imp_?sort@QGList@@IAEXXZ 10027a84     qt-mt323:qt-mt323.dll
 0002:00000a88       __imp_?takeAt@QGList@@IAEPAXI@Z 10027a88     qt-mt323:qt-mt323.dll
 0002:00000a8c       __imp_?take@QGList@@IAEPAXXZ 10027a8c     qt-mt323:qt-mt323.dll
 0002:00000a90       __imp_?takeNode@QGList@@IAEPAXPAVQLNode@@@Z 10027a90     qt-mt323:qt-mt323.dll
 0002:00000a94       __imp_?replaceAt@QGList@@IAE_NIPAX@Z 10027a94     qt-mt323:qt-mt323.dll
 0002:00000a98       __imp_?removeAt@QGList@@IAE_NI@Z 10027a98     qt-mt323:qt-mt323.dll
 0002:00000a9c       __imp_?removeRef@QGList@@IAE_NPAX@Z 10027a9c     qt-mt323:qt-mt323.dll
 0002:00000aa0       __imp_?remove@QGList@@IAE_NPAX@Z 10027aa0     qt-mt323:qt-mt323.dll
 0002:00000aa4       __imp_?removeNode@QGList@@IAE_NPAVQLNode@@@Z 10027aa4     qt-mt323:qt-mt323.dll
 0002:00000aa8       __imp_?insertAt@QGList@@IAE_NIPAX@Z 10027aa8     qt-mt323:qt-mt323.dll
 0002:00000aac       __imp_?append@QGList@@IAEXPAX@Z 10027aac     qt-mt323:qt-mt323.dll
 0002:00000ab0       __imp_?inSort@QGList@@IAEXPAX@Z 10027ab0     qt-mt323:qt-mt323.dll
 0002:00000ab4       __imp_??8QGList@@IBE_NABV0@@Z 10027ab4     qt-mt323:qt-mt323.dll
 0002:00000ab8       __imp_??4QGList@@IAEAAV0@ABV0@@Z 10027ab8     qt-mt323:qt-mt323.dll
 0002:00000abc       __imp_??1QGList@@MAE@XZ    10027abc     qt-mt323:qt-mt323.dll
 0002:00000ac0       __imp_??0QGList@@IAE@ABV0@@Z 10027ac0     qt-mt323:qt-mt323.dll
 0002:00000ac4       __imp_??0QGList@@IAE@XZ    10027ac4     qt-mt323:qt-mt323.dll
 0002:00000ac8       __imp_??A?$QMap@VQString@@V1@@@QAEAAVQString@@ABV1@@Z 10027ac8     qt-mt323:qt-mt323.dll
 0002:00000acc       __imp_??1?$QMap@VQString@@V1@@@QAE@XZ 10027acc     qt-mt323:qt-mt323.dll
 0002:00000ad0       __imp_??0?$QMap@VQString@@V1@@@QAE@XZ 10027ad0     qt-mt323:qt-mt323.dll
 0002:00000ad4       __imp_?removeAndRebalance@QMapPrivateBase@@QAEPAUQMapNodeBase@@PAU2@AAPAU2@11@Z 10027ad4     qt-mt323:qt-mt323.dll
 0002:00000ad8       __imp_?rebalance@QMapPrivateBase@@QAEXPAUQMapNodeBase@@AAPAU2@@Z 10027ad8     qt-mt323:qt-mt323.dll
 0002:00000adc       __imp_?append@?$QValueList@VQString@@@@QAE?AV?$QValueListIterator@VQString@@@@ABVQString@@@Z 10027adc     qt-mt323:qt-mt323.dll
 0002:00000ae0       __imp_??1?$QValueList@VQString@@@@QAE@XZ 10027ae0     qt-mt323:qt-mt323.dll
 0002:00000ae4       __imp_??0?$QValueList@VQString@@@@QAE@XZ 10027ae4     qt-mt323:qt-mt323.dll
 0002:00000ae8       __imp_??H@YA?BVQString@@PBDABV0@@Z 10027ae8     qt-mt323:qt-mt323.dll
 0002:00000aec       __imp_??H@YA?BVQString@@ABV0@PBD@Z 10027aec     qt-mt323:qt-mt323.dll
 0002:00000af0       __imp_??H@YA?BVQString@@ABV0@0@Z 10027af0     qt-mt323:qt-mt323.dll
 0002:00000af4       __imp_??8@YA_NABVQString@@PBD@Z 10027af4     qt-mt323:qt-mt323.dll
 0002:00000af8       __imp_??M@YA_NABVQString@@0@Z 10027af8     qt-mt323:qt-mt323.dll
 0002:00000afc       __imp_?latin1@QString@@QBEPBDXZ 10027afc     qt-mt323:qt-mt323.dll
 0002:00000b00       __imp_?ascii@QString@@QBEPBDXZ 10027b00     qt-mt323:qt-mt323.dll
 0002:00000b04       __imp_?at@QString@@QBE?AVQChar@@I@Z 10027b04     qt-mt323:qt-mt323.dll
 0002:00000b08       __imp_??YQString@@QAEAAV0@PBD@Z 10027b08     qt-mt323:qt-mt323.dll
 0002:00000b0c       __imp_?replace@QString@@QAEAAV1@ABV1@0@Z 10027b0c     qt-mt323:qt-mt323.dll
 0002:00000b10       __imp_?write@QGDict@@MBEAAVQDataStream@@AAV2@PAX@Z 10027b10     qt-mt323:qt-mt323.dll
 0002:00000b14       __imp_?read@QGDict@@MAEAAVQDataStream@@AAV2@AAPAX@Z 10027b14     qt-mt323:qt-mt323.dll
 0002:00000b18       __imp_??0QGDict@@IAE@IW4KeyType@0@_N1@Z 10027b18     qt-mt323:qt-mt323.dll
 0002:00000b1c       __imp_??_7QCString@@6B@    10027b1c     qt-mt323:qt-mt323.dll
 0002:00000b20       __imp_??_7?$QMemArray@D@@6B@ 10027b20     qt-mt323:qt-mt323.dll
 0002:00000b24       __imp_??0QGArray@@QAE@XZ   10027b24     qt-mt323:qt-mt323.dll
 0002:00000b28       __imp_??1QCString@@UAE@XZ  10027b28     qt-mt323:qt-mt323.dll
 0002:00000b2c       __imp_?setName@QFile@@QAEXABVQString@@@Z 10027b2c     qt-mt323:qt-mt323.dll
 0002:00000b30       __imp_?type@QApplication@@QBE?AW4Type@1@XZ 10027b30     qt-mt323:qt-mt323.dll
 0002:00000b34       __imp_?afterSeek@QSqlCursor@@MAEXXZ 10027b34     qt-mt323:qt-mt323.dll
 0002:00000b38       __imp_?beforeSeek@QSqlQuery@@MAEXXZ 10027b38     qt-mt323:qt-mt323.dll
 0002:00000b3c       __imp_?last@QSqlQuery@@UAE_NXZ 10027b3c     qt-mt323:qt-mt323.dll
 0002:00000b40       __imp_?first@QSqlQuery@@UAE_NXZ 10027b40     qt-mt323:qt-mt323.dll
 0002:00000b44       __imp_?prev@QSqlQuery@@UAE_NXZ 10027b44     qt-mt323:qt-mt323.dll
 0002:00000b48       __imp_?next@QSqlQuery@@UAE_NXZ 10027b48     qt-mt323:qt-mt323.dll
 0002:00000b4c       __imp_?seek@QSqlQuery@@UAE_NH_N@Z 10027b4c     qt-mt323:qt-mt323.dll
 0002:00000b50       __imp_?exec@QSqlCursor@@MAE_NABVQString@@@Z 10027b50     qt-mt323:qt-mt323.dll
 0002:00000b54       __imp_?calculateField@QSqlCursor@@MAE?AVQVariant@@ABVQString@@@Z 10027b54     qt-mt323:qt-mt323.dll
 0002:00000b58       __imp_?toString@QSqlCursor@@MBE?AVQString@@ABV2@PAVQSqlField@@0@Z 10027b58     qt-mt323:qt-mt323.dll
 0002:00000b5c       __imp_?toString@QSqlCursor@@MBE?AVQString@@PAVQSqlRecord@@ABV2@11@Z 10027b5c     qt-mt323:qt-mt323.dll
 0002:00000b60       __imp_?toString@QSqlCursor@@MBE?AVQString@@ABVQSqlIndex@@PAVQSqlRecord@@ABV2@22@Z 10027b60     qt-mt323:qt-mt323.dll
 0002:00000b64       __imp_?setName@QSqlCursor@@UAEXABVQString@@_N@Z 10027b64     qt-mt323:qt-mt323.dll
 0002:00000b68       __imp_?setFilter@QSqlCursor@@UAEXABVQString@@@Z 10027b68     qt-mt323:qt-mt323.dll
 0002:00000b6c       __imp_?setSort@QSqlCursor@@UAEXABVQSqlIndex@@@Z 10027b6c     qt-mt323:qt-mt323.dll
 0002:00000b70       __imp_?select@QSqlCursor@@UAE_NABVQString@@ABVQSqlIndex@@@Z 10027b70     qt-mt323:qt-mt323.dll
 0002:00000b74       __imp_?setTrimmed@QSqlCursor@@UAEXABVQString@@_N@Z 10027b74     qt-mt323:qt-mt323.dll
 0002:00000b78       __imp_?setCalculated@QSqlCursor@@UAEXABVQString@@_N@Z 10027b78     qt-mt323:qt-mt323.dll
 0002:00000b7c       __imp_?setMode@QSqlCursor@@UAEXH@Z 10027b7c     qt-mt323:qt-mt323.dll
 0002:00000b80       __imp_?del@QSqlCursor@@UAEH_N@Z 10027b80     qt-mt323:qt-mt323.dll
 0002:00000b84       __imp_?del@QSqlCursor@@MAEHABVQString@@_N@Z 10027b84     qt-mt323:qt-mt323.dll
 0002:00000b88       __imp_?update@QSqlCursor@@UAEH_N@Z 10027b88     qt-mt323:qt-mt323.dll
 0002:00000b8c       __imp_?update@QSqlCursor@@MAEHABVQString@@_N@Z 10027b8c     qt-mt323:qt-mt323.dll
 0002:00000b90       __imp_?primeDelete@QSqlCursor@@UAEPAVQSqlRecord@@XZ 10027b90     qt-mt323:qt-mt323.dll
 0002:00000b94       __imp_?primeUpdate@QSqlCursor@@UAEPAVQSqlRecord@@XZ 10027b94     qt-mt323:qt-mt323.dll
 0002:00000b98       __imp_?primeInsert@QSqlCursor@@UAEPAVQSqlRecord@@XZ 10027b98     qt-mt323:qt-mt323.dll
 0002:00000b9c       __imp_?editBuffer@QSqlCursor@@UAEPAVQSqlRecord@@_N@Z 10027b9c     qt-mt323:qt-mt323.dll
 0002:00000ba0       __imp_?insert@QSqlCursor@@UAEXHABVQSqlFieldInfo@@@Z 10027ba0     qt-mt323:qt-mt323.dll
 0002:00000ba4       __imp_?insert@QSqlCursor@@UAEH_N@Z 10027ba4     qt-mt323:qt-mt323.dll
 0002:00000ba8       __imp_?append@QSqlCursor@@UAEXABVQSqlFieldInfo@@@Z 10027ba8     qt-mt323:qt-mt323.dll
 0002:00000bac       __imp_?setPrimaryIndex@QSqlCursor@@UAEXABVQSqlIndex@@@Z 10027bac     qt-mt323:qt-mt323.dll
 0002:00000bb0       __imp_?index@QSqlCursor@@UBE?AVQSqlIndex@@ABVQStringList@@@Z 10027bb0     qt-mt323:qt-mt323.dll
 0002:00000bb4       __imp_?primaryIndex@QSqlCursor@@UBE?AVQSqlIndex@@_N@Z 10027bb4     qt-mt323:qt-mt323.dll
 0002:00000bb8       __imp_?toStringList@QSqlRecord@@UBE?AVQStringList@@ABVQString@@@Z 10027bb8     qt-mt323:qt-mt323.dll
 0002:00000bbc       __imp_?toString@QSqlCursor@@UBE?AVQString@@ABV2@0@Z 10027bbc     qt-mt323:qt-mt323.dll
 0002:00000bc0       __imp_?clearValues@QSqlRecord@@UAEX_N@Z 10027bc0     qt-mt323:qt-mt323.dll
 0002:00000bc4       __imp_?clear@QSqlCursor@@UAEXXZ 10027bc4     qt-mt323:qt-mt323.dll
 0002:00000bc8       __imp_?remove@QSqlCursor@@UAEXH@Z 10027bc8     qt-mt323:qt-mt323.dll
 0002:00000bcc       __imp_?insert@QSqlCursor@@EAEXHABVQSqlField@@@Z 10027bcc     qt-mt323:qt-mt323.dll
 0002:00000bd0       __imp_?append@QSqlCursor@@EAEXABVQSqlField@@@Z 10027bd0     qt-mt323:qt-mt323.dll
 0002:00000bd4       __imp_?setNull@QSqlRecord@@UAEXH@Z 10027bd4     qt-mt323:qt-mt323.dll
 0002:00000bd8       __imp_?setNull@QSqlRecord@@UAEXABVQString@@@Z 10027bd8     qt-mt323:qt-mt323.dll
 0002:00000bdc       __imp_?setGenerated@QSqlCursor@@UAEXABVQString@@_N@Z 10027bdc     qt-mt323:qt-mt323.dll
 0002:00000be0       __imp_?setGenerated@QSqlCursor@@UAEXH_N@Z 10027be0     qt-mt323:qt-mt323.dll
 0002:00000be4       __imp_?setValue@QSqlCursor@@UAEXHABVQVariant@@@Z 10027be4     qt-mt323:qt-mt323.dll
 0002:00000be8       __imp_?setValue@QSqlCursor@@UAEXABVQString@@ABVQVariant@@@Z 10027be8     qt-mt323:qt-mt323.dll
 0002:00000bec       __imp_?value@QSqlCursor@@UBE?AVQVariant@@H@Z 10027bec     qt-mt323:qt-mt323.dll
 0002:00000bf0       __imp_?value@QSqlCursor@@UBE?AVQVariant@@ABVQString@@@Z 10027bf0     qt-mt323:qt-mt323.dll
 0002:00000bf4       __imp_?sendPostedEvents@QApplication@@SAXXZ 10027bf4     qt-mt323:qt-mt323.dll
 0002:00000bf8       __imp_?detachInternal@?$QMap@VQString@@V1@@@AAEXXZ 10027bf8     qt-mt323:qt-mt323.dll
 0002:00000bfc       __imp_?refresh@QDataTable@@QAEXW4Refresh@1@@Z 10027bfc     qt-mt323:qt-mt323.dll
 0002:00000c00       __imp_??0QSqlCursor@@QAE@ABVQString@@_NPAVQSqlDatabase@@@Z 10027c00     qt-mt323:qt-mt323.dll
 0002:00000c04       __imp_?defaultConnection@QSqlDatabase@@2QADA 10027c04     qt-mt323:qt-mt323.dll
 0002:00000c08       __imp_?database@QSqlDatabase@@SAPAV1@ABVQString@@_N@Z 10027c08     qt-mt323:qt-mt323.dll
 0002:00000c0c       __imp_?inherits@QObject@@QBE_NPBD@Z 10027c0c     qt-mt323:qt-mt323.dll
 0002:00000c10       __imp_?detachInternal@?$QValueList@VQString@@@@AAEXXZ 10027c10     qt-mt323:qt-mt323.dll
 0002:00000c14       __imp_??0QGPluginManager@@QAE@ABUQUuid@@ABVQStringList@@ABVQString@@_N@Z 10027c14     qt-mt323:qt-mt323.dll
 0002:00000c18       __imp_??0QUuid@@QAE@IGGEEEEEEEE@Z 10027c18     qt-mt323:qt-mt323.dll
 0002:00000c1c       __imp_?libraryPaths@QApplication@@SA?AVQStringList@@XZ 10027c1c     qt-mt323:qt-mt323.dll
 0002:00000c20       __imp_??1QDataStream@@UAE@XZ 10027c20     qt-mt323:qt-mt323.dll
 0002:00000c24       __imp_??0QDomDocument@@QAE@ABV0@@Z 10027c24     qt-mt323:qt-mt323.dll
 0002:00000c28       __imp_?setContent@QDomDocument@@QAE_NPAVQIODevice@@PAVQString@@PAH2@Z 10027c28     qt-mt323:qt-mt323.dll
 0002:00000c2c       __imp_?unsetDevice@QDataStream@@QAEXXZ 10027c2c     qt-mt323:qt-mt323.dll
 0002:00000c30       __imp_??5QDataStream@@QAEAAV0@AAH@Z 10027c30     qt-mt323:qt-mt323.dll
 0002:00000c34       __imp_??0QDataStream@@QAE@PAVQIODevice@@@Z 10027c34     qt-mt323:qt-mt323.dll
 0002:00000c38       __imp_??0QDomDocument@@QAE@XZ 10027c38     qt-mt323:qt-mt323.dll
 0002:00000c3c       __imp_??1QSqlCursor@@UAE@XZ 10027c3c     qt-mt323:qt-mt323.dll
 0002:00000c40       __imp_?number@QString@@SA?AV1@HH@Z 10027c40     qt-mt323:qt-mt323.dll
 0002:00000c44       __imp_??1QDomText@@UAE@XZ  10027c44     qt-mt323:qt-mt323.dll
 0002:00000c48       __imp_?duplicate@QGArray@@IAEAAV1@PBDI@Z 10027c48     qt-mt323:qt-mt323.dll
 0002:00000c4c       __imp_?toText@QDomNode@@QAE?AVQDomText@@XZ 10027c4c     qt-mt323:qt-mt323.dll
 0002:00000c50       __imp_??0QDomElement@@QAE@XZ 10027c50     qt-mt323:qt-mt323.dll
 0002:00000c54       __imp_??4QDomElement@@QAEAAV0@ABV0@@Z 10027c54     qt-mt323:qt-mt323.dll
 0002:00000c58       __imp_??0QDomElement@@QAE@ABV0@@Z 10027c58     qt-mt323:qt-mt323.dll
 0002:00000c5c       __imp_??5QDataStream@@QAEAAV0@AAF@Z 10027c5c     qt-mt323:qt-mt323.dll
 0002:00000c60       __imp_??5QDataStream@@QAEAAV0@AAC@Z 10027c60     qt-mt323:qt-mt323.dll
 0002:00000c64       __imp_?readRawBytes@QDataStream@@QAEAAV1@PADI@Z 10027c64     qt-mt323:qt-mt323.dll
 0002:00000c68       __imp_?resize@QGArray@@IAE_NI@Z 10027c68     qt-mt323:qt-mt323.dll
 0002:00000c6c       __imp_??5@YAAAVQDataStream@@AAV0@AAVQString@@@Z 10027c6c     qt-mt323:qt-mt323.dll
 0002:00000c70       __imp_??0QDataStream@@QAE@V?$QMemArray@D@@H@Z 10027c70     qt-mt323:qt-mt323.dll
 0002:00000c74       __imp_??0?$QMemArray@D@@QAE@ABV0@@Z 10027c74     qt-mt323:qt-mt323.dll
 0002:00000c78       __imp_?msg_index@QGArray@@CAXI@Z 10027c78     qt-mt323:qt-mt323.dll
 0002:00000c7c       __imp_??YQString@@QAEAAV0@ABV0@@Z 10027c7c     qt-mt323:qt-mt323.dll
 0002:00000c80       __imp_??5@YAAAVQDataStream@@AAV0@AAVQDate@@@Z 10027c80     qt-mt323:qt-mt323.dll
 0002:00000c84       __imp_?asDate@QVariant@@QAEAAVQDate@@XZ 10027c84     qt-mt323:qt-mt323.dll
 0002:00000c88       __imp_??5@YAAAVQDataStream@@AAV0@AAVQTime@@@Z 10027c88     qt-mt323:qt-mt323.dll
 0002:00000c8c       __imp_?asTime@QVariant@@QAEAAVQTime@@XZ 10027c8c     qt-mt323:qt-mt323.dll
 0002:00000c90       __imp_??5@YAAAVQDataStream@@AAV0@AAVQDateTime@@@Z 10027c90     qt-mt323:qt-mt323.dll
 0002:00000c94       __imp_?asDateTime@QVariant@@QAEAAVQDateTime@@XZ 10027c94     qt-mt323:qt-mt323.dll
 0002:00000c98       __imp_??5@YAAAVQDataStream@@AAV0@AAVQVariant@@@Z 10027c98     qt-mt323:qt-mt323.dll
 0002:00000c9c       __imp_??5@YAAAVQDataStream@@AAV0@AAVQCursor@@@Z 10027c9c     qt-mt323:qt-mt323.dll
 0002:00000ca0       __imp_?asCursor@QVariant@@QAEAAVQCursor@@XZ 10027ca0     qt-mt323:qt-mt323.dll
 0002:00000ca4       __imp_??0QVariant@@QAE@H@Z 10027ca4     qt-mt323:qt-mt323.dll
 0002:00000ca8       __imp_??1QVariant@@QAE@XZ  10027ca8     qt-mt323:qt-mt323.dll
 0002:00000cac       __imp_??0QVariant@@QAE@_NH@Z 10027cac     qt-mt323:qt-mt323.dll
 0002:00000cb0       __imp_??5QDataStream@@QAEAAV0@AAN@Z 10027cb0     qt-mt323:qt-mt323.dll
 0002:00000cb4       __imp_?asDouble@QVariant@@QAEAANXZ 10027cb4     qt-mt323:qt-mt323.dll
 0002:00000cb8       __imp_?asCString@QVariant@@QAEAAVQCString@@XZ 10027cb8     qt-mt323:qt-mt323.dll
 0002:00000cbc       __imp_??1QImage@@QAE@XZ    10027cbc     qt-mt323:qt-mt323.dll
 0002:00000cc0       __imp_??4QImage@@QAEAAV0@ABV0@@Z 10027cc0     qt-mt323:qt-mt323.dll
 0002:00000cc4       __imp_?asImage@QVariant@@QAEAAVQImage@@XZ 10027cc4     qt-mt323:qt-mt323.dll
 0002:00000cc8       __imp_??0QImage@@QAE@XZ    10027cc8     qt-mt323:qt-mt323.dll
 0002:00000ccc       __imp_??5@YAAAVQDataStream@@AAV0@AAVQColor@@@Z 10027ccc     qt-mt323:qt-mt323.dll
 0002:00000cd0       __imp_?asColor@QVariant@@QAEAAVQColor@@XZ 10027cd0     qt-mt323:qt-mt323.dll
 0002:00000cd4       __imp_??0QIconSet@@QAE@ABVQPixmap@@W4Size@0@@Z 10027cd4     qt-mt323:qt-mt323.dll
 0002:00000cd8       __imp_??1QIconSet@@UAE@XZ  10027cd8     qt-mt323:qt-mt323.dll
 0002:00000cdc       __imp_??4QIconSet@@QAEAAV0@ABV0@@Z 10027cdc     qt-mt323:qt-mt323.dll
 0002:00000ce0       __imp_?asIconSet@QVariant@@QAEAAVQIconSet@@XZ 10027ce0     qt-mt323:qt-mt323.dll
 0002:00000ce4       __imp_??0QIconSet@@QAE@XZ  10027ce4     qt-mt323:qt-mt323.dll
 0002:00000ce8       __imp_??0QVariant@@QAE@ABVQPoint@@@Z 10027ce8     qt-mt323:qt-mt323.dll
 0002:00000cec       __imp_??0QVariant@@QAE@ABVQSize@@@Z 10027cec     qt-mt323:qt-mt323.dll
 0002:00000cf0       __imp_?asString@QVariant@@QAEAAVQString@@XZ 10027cf0     qt-mt323:qt-mt323.dll
 0002:00000cf4       __imp_?asStringList@QVariant@@QAEAAVQStringList@@XZ 10027cf4     qt-mt323:qt-mt323.dll
 0002:00000cf8       __imp_??4QPixmap@@QAEAAV0@ABV0@@Z 10027cf8     qt-mt323:qt-mt323.dll
 0002:00000cfc       __imp_?asPixmap@QVariant@@QAEAAVQPixmap@@XZ 10027cfc     qt-mt323:qt-mt323.dll
 0002:00000d00       __imp_??0QPixmap@@QAE@XZ   10027d00     qt-mt323:qt-mt323.dll
 0002:00000d04       __imp_??4QVariant@@QAEAAV0@ABV0@@Z 10027d04     qt-mt323:qt-mt323.dll
 0002:00000d08       __imp_??0QVariant@@QAE@ABVQRect@@@Z 10027d08     qt-mt323:qt-mt323.dll
 0002:00000d0c       __imp_?addMultiCell@QGridLayout@@QAEXPAVQLayoutItem@@HHHHH@Z 10027d0c     qt-mt323:qt-mt323.dll
 0002:00000d10       __imp_??0QSpacerItem@@QAE@HHW4SizeType@QSizePolicy@@0@Z 10027d10     qt-mt323:qt-mt323.dll
 0002:00000d14       __imp_?toString@QVariant@@QBE?BVQString@@XZ 10027d14     qt-mt323:qt-mt323.dll
 0002:00000d18       __imp_?toSize@QVariant@@QBE?BVQSize@@XZ 10027d18     qt-mt323:qt-mt323.dll
 0002:00000d1c       __imp_??8QVariant@@QBE_NABV0@@Z 10027d1c     qt-mt323:qt-mt323.dll
 0002:00000d20       __imp_??0QVariant@@QAE@PBD@Z 10027d20     qt-mt323:qt-mt323.dll
 0002:00000d24       __imp_??8@YA_NABVQCString@@PBD@Z 10027d24     qt-mt323:qt-mt323.dll
 0002:00000d28       __imp_?qFatal@@YAXPBDZZ    10027d28     qt-mt323:qt-mt323.dll
 0002:00000d2c       __imp_?atEnd@QDataStream@@QBE_NXZ 10027d2c     qt-mt323:qt-mt323.dll
 0002:00000d30       __imp_??0QVariant@@QAE@XZ  10027d30     qt-mt323:qt-mt323.dll
 0002:00000d34       __imp_?toBool@QVariant@@QBE_NXZ 10027d34     qt-mt323:qt-mt323.dll
 0002:00000d38       __imp_?paint@QListBoxText@@MAEXPAVQPainter@@@Z 10027d38     qt-mt323:qt-mt323.dll
 0002:00000d3c       __imp_?rtti@QListBoxText@@UBEHXZ 10027d3c     qt-mt323:qt-mt323.dll
 0002:00000d40       __imp_?width@QListBoxText@@UBEHPBVQListBox@@@Z 10027d40     qt-mt323:qt-mt323.dll
 0002:00000d44       __imp_?height@QListBoxText@@UBEHPBVQListBox@@@Z 10027d44     qt-mt323:qt-mt323.dll
 0002:00000d48       __imp_?pixmap@QListBoxItem@@UBEPBVQPixmap@@XZ 10027d48     qt-mt323:qt-mt323.dll
 0002:00000d4c       __imp_?dragLeft@QIconViewItem@@MAEXXZ 10027d4c     qt-mt323:qt-mt323.dll
 0002:00000d50       __imp_?dragEntered@QIconViewItem@@MAEXXZ 10027d50     qt-mt323:qt-mt323.dll
 0002:00000d54       __imp_?dropped@QIconViewItem@@MAEXPAVQDropEvent@@ABV?$QValueList@VQIconDragItem@@@@@Z 10027d54     qt-mt323:qt-mt323.dll
 0002:00000d58       __imp_?paintFocus@QIconViewItem@@MAEXPAVQPainter@@ABVQColorGroup@@@Z 10027d58     qt-mt323:qt-mt323.dll
 0002:00000d5c       __imp_?paintItem@QIconViewItem@@MAEXPAVQPainter@@ABVQColorGroup@@@Z 10027d5c     qt-mt323:qt-mt323.dll
 0002:00000d60       __imp_?calcRect@QIconViewItem@@MAEXABVQString@@@Z 10027d60     qt-mt323:qt-mt323.dll
 0002:00000d64       __imp_?removeRenameBox@QIconViewItem@@MAEXXZ 10027d64     qt-mt323:qt-mt323.dll
 0002:00000d68       __imp_?rtti@QIconViewItem@@UBEHXZ 10027d68     qt-mt323:qt-mt323.dll
 0002:00000d6c       __imp_?setKey@QIconViewItem@@UAEXABVQString@@@Z 10027d6c     qt-mt323:qt-mt323.dll
 0002:00000d70       __imp_?setPicture@QIconViewItem@@UAEXABVQPicture@@@Z 10027d70     qt-mt323:qt-mt323.dll
 0002:00000d74       __imp_?setPixmap@QIconViewItem@@UAEXABVQPixmap@@@Z 10027d74     qt-mt323:qt-mt323.dll
 0002:00000d78       __imp_?setPixmap@QIconViewItem@@UAEXABVQPixmap@@_N1@Z 10027d78     qt-mt323:qt-mt323.dll
 0002:00000d7c       __imp_?setText@QIconViewItem@@UAEXABVQString@@@Z 10027d7c     qt-mt323:qt-mt323.dll
 0002:00000d80       __imp_?setText@QIconViewItem@@UAEXABVQString@@_N1@Z 10027d80     qt-mt323:qt-mt323.dll
 0002:00000d84       __imp_?compare@QIconViewItem@@UBEHPAV1@@Z 10027d84     qt-mt323:qt-mt323.dll
 0002:00000d88       __imp_?acceptDrop@QIconViewItem@@UBE_NPBVQMimeSource@@@Z 10027d88     qt-mt323:qt-mt323.dll
 0002:00000d8c       __imp_?moveBy@QIconViewItem@@UAEXHH@Z 10027d8c     qt-mt323:qt-mt323.dll
 0002:00000d90       __imp_?moveBy@QIconViewItem@@UAEXABVQPoint@@@Z 10027d90     qt-mt323:qt-mt323.dll
 0002:00000d94       __imp_?move@QIconViewItem@@UAE_NHH@Z 10027d94     qt-mt323:qt-mt323.dll
 0002:00000d98       __imp_?move@QIconViewItem@@UAE_NABVQPoint@@@Z 10027d98     qt-mt323:qt-mt323.dll
 0002:00000d9c       __imp_?repaint@QIconViewItem@@UAEXXZ 10027d9c     qt-mt323:qt-mt323.dll
 0002:00000da0       __imp_?setSelectable@QIconViewItem@@UAEX_N@Z 10027da0     qt-mt323:qt-mt323.dll
 0002:00000da4       __imp_?setSelected@QIconViewItem@@UAEX_N0@Z 10027da4     qt-mt323:qt-mt323.dll
 0002:00000da8       __imp_?setSelected@QIconViewItem@@UAEX_N@Z 10027da8     qt-mt323:qt-mt323.dll
 0002:00000dac       __imp_?key@QIconViewItem@@UBE?AVQString@@XZ 10027dac     qt-mt323:qt-mt323.dll
 0002:00000db0       __imp_?picture@QIconViewItem@@UBEPAVQPicture@@XZ 10027db0     qt-mt323:qt-mt323.dll
 0002:00000db4       __imp_?pixmap@QIconViewItem@@UBEPAVQPixmap@@XZ 10027db4     qt-mt323:qt-mt323.dll
 0002:00000db8       __imp_?text@QIconViewItem@@UBE?AVQString@@XZ 10027db8     qt-mt323:qt-mt323.dll
 0002:00000dbc       __imp_?setDropEnabled@QIconViewItem@@UAEX_N@Z 10027dbc     qt-mt323:qt-mt323.dll
 0002:00000dc0       __imp_?setDragEnabled@QIconViewItem@@UAEX_N@Z 10027dc0     qt-mt323:qt-mt323.dll
 0002:00000dc4       __imp_?setRenameEnabled@QIconViewItem@@UAEX_N@Z 10027dc4     qt-mt323:qt-mt323.dll
 0002:00000dc8       __imp_?setText@QListBoxItem@@MAEXABVQString@@@Z 10027dc8     qt-mt323:qt-mt323.dll
 0002:00000dcc       __imp_?paint@QListBoxPixmap@@MAEXPAVQPainter@@@Z 10027dcc     qt-mt323:qt-mt323.dll
 0002:00000dd0       __imp_?rtti@QListBoxPixmap@@UBEHXZ 10027dd0     qt-mt323:qt-mt323.dll
 0002:00000dd4       __imp_?width@QListBoxPixmap@@UBEHPBVQListBox@@@Z 10027dd4     qt-mt323:qt-mt323.dll
 0002:00000dd8       __imp_?height@QListBoxPixmap@@UBEHPBVQListBox@@@Z 10027dd8     qt-mt323:qt-mt323.dll
 0002:00000ddc       __imp_?pixmap@QListBoxPixmap@@UBEPBVQPixmap@@XZ 10027ddc     qt-mt323:qt-mt323.dll
 0002:00000de0       __imp_?text@QListBoxItem@@UBE?AVQString@@XZ 10027de0     qt-mt323:qt-mt323.dll
 0002:00000de4       __imp_??0QListBoxPixmap@@QAE@PAVQListBox@@ABVQPixmap@@ABVQString@@@Z 10027de4     qt-mt323:qt-mt323.dll
 0002:00000de8       __imp_??0QListBoxText@@QAE@PAVQListBox@@ABVQString@@@Z 10027de8     qt-mt323:qt-mt323.dll
 0002:00000dec       __imp_?listBox@QComboBox@@QBEPAVQListBox@@XZ 10027dec     qt-mt323:qt-mt323.dll
 0002:00000df0       __imp_??0QIconViewItem@@QAE@PAVQIconView@@ABVQString@@ABVQPixmap@@@Z 10027df0     qt-mt323:qt-mt323.dll
 0002:00000df4       __imp_??0QPixmap@@QAE@ABV0@@Z 10027df4     qt-mt323:qt-mt323.dll
 0002:00000df8       __imp_??1QListBoxText@@UAE@XZ 10027df8     qt-mt323:qt-mt323.dll
 0002:00000dfc       __imp_??1QListBoxPixmap@@UAE@XZ 10027dfc     qt-mt323:qt-mt323.dll
 0002:00000e00       __imp_??1QIconViewItem@@UAE@XZ 10027e00     qt-mt323:qt-mt323.dll
 0002:00000e04       __imp_?menuDelPopup@QPopupMenu@@EAEXPAV1@@Z 10027e04     qt-mt323:qt-mt323.dll
 0002:00000e08       __imp_?menuInsPopup@QPopupMenu@@EAEXPAV1@@Z 10027e08     qt-mt323:qt-mt323.dll
 0002:00000e0c       __imp_?menuStateChanged@QPopupMenu@@EAEXXZ 10027e0c     qt-mt323:qt-mt323.dll
 0002:00000e10       __imp_?menuContentsChanged@QPopupMenu@@EAEXXZ 10027e10     qt-mt323:qt-mt323.dll
 0002:00000e14       __imp_?activateItemAt@QPopupMenu@@UAEXH@Z 10027e14     qt-mt323:qt-mt323.dll
 0002:00000e18       __imp_?setId@QMenuData@@UAEXHH@Z 10027e18     qt-mt323:qt-mt323.dll
 0002:00000e1c       __imp_?updateItem@QPopupMenu@@UAEXH@Z 10027e1c     qt-mt323:qt-mt323.dll
 0002:00000e20       __imp_?setFirstItemActive@QPopupMenu@@EAEXXZ 10027e20     qt-mt323:qt-mt323.dll
 0002:00000e24       __imp_?setActiveItem@QPopupMenu@@UAEXH@Z 10027e24     qt-mt323:qt-mt323.dll
 0002:00000e28       __imp_?setCheckable@QPopupMenu@@UAEX_N@Z 10027e28     qt-mt323:qt-mt323.dll
 0002:00000e2c       __imp_?frameChanged@QPopupMenu@@EAEXXZ 10027e2c     qt-mt323:qt-mt323.dll
 0002:00000e30       __imp_?drawContents@QPopupMenu@@MAEXPAVQPainter@@@Z 10027e30     qt-mt323:qt-mt323.dll
 0002:00000e34       __imp_?focusNextPrevChild@QPopupMenu@@MAE_N_N@Z 10027e34     qt-mt323:qt-mt323.dll
 0002:00000e38       __imp_?enabledChange@QPopupMenu@@MAEX_N@Z 10027e38     qt-mt323:qt-mt323.dll
 0002:00000e3c       __imp_?styleChange@QPopupMenu@@MAEXAAVQStyle@@@Z 10027e3c     qt-mt323:qt-mt323.dll
 0002:00000e40       __imp_?closeEvent@QPopupMenu@@MAEXPAVQCloseEvent@@@Z 10027e40     qt-mt323:qt-mt323.dll
 0002:00000e44       __imp_?resizeEvent@QFrame@@MAEXPAVQResizeEvent@@@Z 10027e44     qt-mt323:qt-mt323.dll
 0002:00000e48       __imp_?paintEvent@QPopupMenu@@MAEXPAVQPaintEvent@@@Z 10027e48     qt-mt323:qt-mt323.dll
 0002:00000e4c       __imp_?leaveEvent@QPopupMenu@@MAEXPAVQEvent@@@Z 10027e4c     qt-mt323:qt-mt323.dll
 0002:00000e50       __imp_?focusOutEvent@QPopupMenu@@MAEXPAVQFocusEvent@@@Z 10027e50     qt-mt323:qt-mt323.dll
 0002:00000e54       __imp_?focusInEvent@QPopupMenu@@MAEXPAVQFocusEvent@@@Z 10027e54     qt-mt323:qt-mt323.dll
 0002:00000e58       __imp_?keyPressEvent@QPopupMenu@@MAEXPAVQKeyEvent@@@Z 10027e58     qt-mt323:qt-mt323.dll
 0002:00000e5c       __imp_?mouseMoveEvent@QPopupMenu@@MAEXPAVQMouseEvent@@@Z 10027e5c     qt-mt323:qt-mt323.dll
 0002:00000e60       __imp_?mouseReleaseEvent@QPopupMenu@@MAEXPAVQMouseEvent@@@Z 10027e60     qt-mt323:qt-mt323.dll
 0002:00000e64       __imp_?mousePressEvent@QPopupMenu@@MAEXPAVQMouseEvent@@@Z 10027e64     qt-mt323:qt-mt323.dll
 0002:00000e68       __imp_?customWhatsThis@QPopupMenu@@UBE_NXZ 10027e68     qt-mt323:qt-mt323.dll
 0002:00000e6c       __imp_?sizeHint@QPopupMenu@@UBE?AVQSize@@XZ 10027e6c     qt-mt323:qt-mt323.dll
 0002:00000e70       __imp_?hide@QPopupMenu@@UAEXXZ 10027e70     qt-mt323:qt-mt323.dll
 0002:00000e74       __imp_?show@QPopupMenu@@UAEXXZ 10027e74     qt-mt323:qt-mt323.dll
 0002:00000e78       __imp_?setFont@QPopupMenu@@UAEXABVQFont@@@Z 10027e78     qt-mt323:qt-mt323.dll
 0002:00000e7c       __imp_?timerEvent@QPopupMenu@@MAEXPAVQTimerEvent@@@Z 10027e7c     qt-mt323:qt-mt323.dll
 0002:00000e80       __imp_?qt_property@QPopupMenu@@UAE_NHHPAVQVariant@@@Z 10027e80     qt-mt323:qt-mt323.dll
 0002:00000e84       __imp_?qt_emit@QPopupMenu@@UAE_NHPAUQUObject@@@Z 10027e84     qt-mt323:qt-mt323.dll
 0002:00000e88       __imp_?qt_invoke@QPopupMenu@@UAE_NHPAUQUObject@@@Z 10027e88     qt-mt323:qt-mt323.dll
 0002:00000e8c       __imp_?qt_cast@QPopupMenu@@UAEPAXPBD@Z 10027e8c     qt-mt323:qt-mt323.dll
 0002:00000e90       __imp_?className@QPopupMenu@@UBEPBDXZ 10027e90     qt-mt323:qt-mt323.dll
 0002:00000e94       __imp_?metaObject@QPopupMenu@@UBEPAVQMetaObject@@XZ 10027e94     qt-mt323:qt-mt323.dll
 0002:00000e98       __imp_?insertItem@QMenuData@@QAEHABVQString@@PAVQPopupMenu@@HH@Z 10027e98     qt-mt323:qt-mt323.dll
 0002:00000e9c       __imp_?insertSeparator@QMenuData@@QAEHH@Z 10027e9c     qt-mt323:qt-mt323.dll
 0002:00000ea0       __imp_?parentWidget@QWidget@@QBEPAV1@_N@Z 10027ea0     qt-mt323:qt-mt323.dll
 0002:00000ea4       __imp_?clear@QToolBar@@UAEXXZ 10027ea4     qt-mt323:qt-mt323.dll
 0002:00000ea8       __imp_?setLabel@QToolBar@@UAEXABVQString@@@Z 10027ea8     qt-mt323:qt-mt323.dll
 0002:00000eac       __imp_?setStretchableWidget@QToolBar@@UAEXPAVQWidget@@@Z 10027eac     qt-mt323:qt-mt323.dll
 0002:00000eb0       __imp_?setOrientation@QToolBar@@UAEXW4Orientation@Qt@@@Z 10027eb0     qt-mt323:qt-mt323.dll
 0002:00000eb4       __imp_?dock@QDockWindow@@UAEXXZ 10027eb4     qt-mt323:qt-mt323.dll
 0002:00000eb8       __imp_?undock@QDockWindow@@UAEXPAVQWidget@@@Z 10027eb8     qt-mt323:qt-mt323.dll
 0002:00000ebc       __imp_?undock@QDockWindow@@UAEXXZ 10027ebc     qt-mt323:qt-mt323.dll
 0002:00000ec0       __imp_?setOpaqueMoving@QDockWindow@@UAEX_N@Z 10027ec0     qt-mt323:qt-mt323.dll
 0002:00000ec4       __imp_?setNewLine@QDockWindow@@UAEX_N@Z 10027ec4     qt-mt323:qt-mt323.dll
 0002:00000ec8       __imp_?setFixedExtentHeight@QDockWindow@@UAEXH@Z 10027ec8     qt-mt323:qt-mt323.dll
 0002:00000ecc       __imp_?setFixedExtentWidth@QDockWindow@@UAEXH@Z 10027ecc     qt-mt323:qt-mt323.dll
 0002:00000ed0       __imp_?setOffset@QDockWindow@@UAEXH@Z 10027ed0     qt-mt323:qt-mt323.dll
 0002:00000ed4       __imp_?setVerticallyStretchable@QDockWindow@@UAEX_N@Z 10027ed4     qt-mt323:qt-mt323.dll
 0002:00000ed8       __imp_?setHorizontallyStretchable@QDockWindow@@UAEX_N@Z 10027ed8     qt-mt323:qt-mt323.dll
 0002:00000edc       __imp_?setMovingEnabled@QDockWindow@@UAEX_N@Z 10027edc     qt-mt323:qt-mt323.dll
 0002:00000ee0       __imp_?setResizeEnabled@QDockWindow@@UAEX_N@Z 10027ee0     qt-mt323:qt-mt323.dll
 0002:00000ee4       __imp_?setCloseMode@QDockWindow@@UAEXH@Z 10027ee4     qt-mt323:qt-mt323.dll
 0002:00000ee8       __imp_?setWidget@QDockWindow@@UAEXPAVQWidget@@@Z 10027ee8     qt-mt323:qt-mt323.dll
 0002:00000eec       __imp_?frameChanged@QFrame@@MAEXXZ 10027eec     qt-mt323:qt-mt323.dll
 0002:00000ef0       __imp_?drawContents@QDockWindow@@MAEXPAVQPainter@@@Z 10027ef0     qt-mt323:qt-mt323.dll
 0002:00000ef4       __imp_?drawFrame@QDockWindow@@MAEXPAVQPainter@@@Z 10027ef4     qt-mt323:qt-mt323.dll
 0002:00000ef8       __imp_?styleChange@QToolBar@@MAEXAAVQStyle@@@Z 10027ef8     qt-mt323:qt-mt323.dll
 0002:00000efc       __imp_?hideEvent@QDockWindow@@MAEXPAVQHideEvent@@@Z 10027efc     qt-mt323:qt-mt323.dll
 0002:00000f00       __imp_?showEvent@QDockWindow@@MAEXPAVQShowEvent@@@Z 10027f00     qt-mt323:qt-mt323.dll
 0002:00000f04       __imp_?contextMenuEvent@QDockWindow@@MAEXPAVQContextMenuEvent@@@Z 10027f04     qt-mt323:qt-mt323.dll
 0002:00000f08       __imp_?resizeEvent@QToolBar@@MAEXPAVQResizeEvent@@@Z 10027f08     qt-mt323:qt-mt323.dll
 0002:00000f0c       __imp_?minimumSizeHint@QToolBar@@UBE?AVQSize@@XZ 10027f0c     qt-mt323:qt-mt323.dll
 0002:00000f10       __imp_?sizeHint@QDockWindow@@UBE?AVQSize@@XZ 10027f10     qt-mt323:qt-mt323.dll
 0002:00000f14       __imp_?hide@QToolBar@@UAEXXZ 10027f14     qt-mt323:qt-mt323.dll
 0002:00000f18       __imp_?show@QToolBar@@UAEXXZ 10027f18     qt-mt323:qt-mt323.dll
 0002:00000f1c       __imp_?setCaption@QDockWindow@@UAEXABVQString@@@Z 10027f1c     qt-mt323:qt-mt323.dll
 0002:00000f20       __imp_?setMinimumSize@QToolBar@@UAEXHH@Z 10027f20     qt-mt323:qt-mt323.dll
 0002:00000f24       __imp_?eventFilter@QDockWindow@@UAE_NPAVQObject@@PAVQEvent@@@Z 10027f24     qt-mt323:qt-mt323.dll
 0002:00000f28       __imp_?event@QToolBar@@UAE_NPAVQEvent@@@Z 10027f28     qt-mt323:qt-mt323.dll
 0002:00000f2c       __imp_?qt_property@QToolBar@@UAE_NHHPAVQVariant@@@Z 10027f2c     qt-mt323:qt-mt323.dll
 0002:00000f30       __imp_?qt_emit@QToolBar@@UAE_NHPAUQUObject@@@Z 10027f30     qt-mt323:qt-mt323.dll
 0002:00000f34       __imp_?qt_invoke@QToolBar@@UAE_NHPAUQUObject@@@Z 10027f34     qt-mt323:qt-mt323.dll
 0002:00000f38       __imp_?qt_cast@QToolBar@@UAEPAXPBD@Z 10027f38     qt-mt323:qt-mt323.dll
 0002:00000f3c       __imp_?className@QToolBar@@UBEPBDXZ 10027f3c     qt-mt323:qt-mt323.dll
 0002:00000f40       __imp_?metaObject@QToolBar@@UBEPAVQMetaObject@@XZ 10027f40     qt-mt323:qt-mt323.dll
 0002:00000f44       __imp_?addedTo@QActionGroup@@MAEXPAVQWidget@@0PAVQAction@@@Z 10027f44     qt-mt323:qt-mt323.dll
 0002:00000f48       __imp_?addedTo@QActionGroup@@MAEXHPAVQPopupMenu@@PAVQAction@@@Z 10027f48     qt-mt323:qt-mt323.dll
 0002:00000f4c       __imp_?setEnabled@QActionGroup@@UAEX_N@Z 10027f4c     qt-mt323:qt-mt323.dll
 0002:00000f50       __imp_?setOn@QActionGroup@@UAEX_N@Z 10027f50     qt-mt323:qt-mt323.dll
 0002:00000f54       __imp_?addedTo@QActionGroup@@MAEXPAVQWidget@@0@Z 10027f54     qt-mt323:qt-mt323.dll
 0002:00000f58       __imp_?addedTo@QActionGroup@@MAEXHPAVQPopupMenu@@@Z 10027f58     qt-mt323:qt-mt323.dll
 0002:00000f5c       __imp_?removeFrom@QActionGroup@@UAE_NPAVQWidget@@@Z 10027f5c     qt-mt323:qt-mt323.dll
 0002:00000f60       __imp_?addTo@QActionGroup@@UAE_NPAVQWidget@@@Z 10027f60     qt-mt323:qt-mt323.dll
 0002:00000f64       __imp_?setToggleAction@QActionGroup@@UAEX_N@Z 10027f64     qt-mt323:qt-mt323.dll
 0002:00000f68       __imp_?setWhatsThis@QActionGroup@@UAEXABVQString@@@Z 10027f68     qt-mt323:qt-mt323.dll
 0002:00000f6c       __imp_?setToolTip@QActionGroup@@UAEXABVQString@@@Z 10027f6c     qt-mt323:qt-mt323.dll
 0002:00000f70       __imp_?setMenuText@QActionGroup@@UAEXABVQString@@@Z 10027f70     qt-mt323:qt-mt323.dll
 0002:00000f74       __imp_?setText@QActionGroup@@UAEXABVQString@@@Z 10027f74     qt-mt323:qt-mt323.dll
 0002:00000f78       __imp_?setIconSet@QActionGroup@@UAEXABVQIconSet@@@Z 10027f78     qt-mt323:qt-mt323.dll
 0002:00000f7c       __imp_?childEvent@QActionGroup@@MAEXPAVQChildEvent@@@Z 10027f7c     qt-mt323:qt-mt323.dll
 0002:00000f80       __imp_?qt_property@QActionGroup@@UAE_NHHPAVQVariant@@@Z 10027f80     qt-mt323:qt-mt323.dll
 0002:00000f84       __imp_?qt_emit@QActionGroup@@UAE_NHPAUQUObject@@@Z 10027f84     qt-mt323:qt-mt323.dll
 0002:00000f88       __imp_?qt_invoke@QActionGroup@@UAE_NHPAUQUObject@@@Z 10027f88     qt-mt323:qt-mt323.dll
 0002:00000f8c       __imp_?qt_cast@QActionGroup@@UAEPAXPBD@Z 10027f8c     qt-mt323:qt-mt323.dll
 0002:00000f90       __imp_?className@QActionGroup@@UBEPBDXZ 10027f90     qt-mt323:qt-mt323.dll
 0002:00000f94       __imp_?metaObject@QActionGroup@@UBEPAVQMetaObject@@XZ 10027f94     qt-mt323:qt-mt323.dll
 0002:00000f98       __imp_?setEnabled@QAction@@UAEX_N@Z 10027f98     qt-mt323:qt-mt323.dll
 0002:00000f9c       __imp_?setOn@QAction@@UAEX_N@Z 10027f9c     qt-mt323:qt-mt323.dll
 0002:00000fa0       __imp_?addedTo@QAction@@MAEXPAVQWidget@@0@Z 10027fa0     qt-mt323:qt-mt323.dll
 0002:00000fa4       __imp_?addedTo@QAction@@MAEXHPAVQPopupMenu@@@Z 10027fa4     qt-mt323:qt-mt323.dll
 0002:00000fa8       __imp_?removeFrom@QAction@@UAE_NPAVQWidget@@@Z 10027fa8     qt-mt323:qt-mt323.dll
 0002:00000fac       __imp_?addTo@QAction@@UAE_NPAVQWidget@@@Z 10027fac     qt-mt323:qt-mt323.dll
 0002:00000fb0       __imp_?setToggleAction@QAction@@UAEX_N@Z 10027fb0     qt-mt323:qt-mt323.dll
 0002:00000fb4       __imp_?setAccel@QAction@@UAEXABVQKeySequence@@@Z 10027fb4     qt-mt323:qt-mt323.dll
 0002:00000fb8       __imp_?setWhatsThis@QAction@@UAEXABVQString@@@Z 10027fb8     qt-mt323:qt-mt323.dll
 0002:00000fbc       __imp_?setStatusTip@QAction@@UAEXABVQString@@@Z 10027fbc     qt-mt323:qt-mt323.dll
 0002:00000fc0       __imp_?setToolTip@QAction@@UAEXABVQString@@@Z 10027fc0     qt-mt323:qt-mt323.dll
 0002:00000fc4       __imp_?setMenuText@QAction@@UAEXABVQString@@@Z 10027fc4     qt-mt323:qt-mt323.dll
 0002:00000fc8       __imp_?setText@QAction@@UAEXABVQString@@@Z 10027fc8     qt-mt323:qt-mt323.dll
 0002:00000fcc       __imp_?setIconSet@QAction@@UAEXABVQIconSet@@@Z 10027fcc     qt-mt323:qt-mt323.dll
 0002:00000fd0       __imp_?qt_property@QAction@@UAE_NHHPAVQVariant@@@Z 10027fd0     qt-mt323:qt-mt323.dll
 0002:00000fd4       __imp_?qt_emit@QAction@@UAE_NHPAUQUObject@@@Z 10027fd4     qt-mt323:qt-mt323.dll
 0002:00000fd8       __imp_?qt_invoke@QAction@@UAE_NHPAUQUObject@@@Z 10027fd8     qt-mt323:qt-mt323.dll
 0002:00000fdc       __imp_?qt_cast@QAction@@UAEPAXPBD@Z 10027fdc     qt-mt323:qt-mt323.dll
 0002:00000fe0       __imp_?className@QAction@@UBEPBDXZ 10027fe0     qt-mt323:qt-mt323.dll
 0002:00000fe4       __imp_?metaObject@QAction@@UBEPAVQMetaObject@@XZ 10027fe4     qt-mt323:qt-mt323.dll
 0002:00000fe8       __imp_?addMultiCellLayout@QGridLayout@@QAEXPAVQLayout@@HHHHH@Z 10027fe8     qt-mt323:qt-mt323.dll
 0002:00000fec       __imp_?addMultiCellWidget@QGridLayout@@QAEXPAVQWidget@@HHHHH@Z 10027fec     qt-mt323:qt-mt323.dll
 0002:00000ff0       __imp_??0QVariant@@QAE@ABV0@@Z 10027ff0     qt-mt323:qt-mt323.dll
 0002:00000ff4       __imp_?addWidget@QWidgetStack@@QAEHPAVQWidget@@H@Z 10027ff4     qt-mt323:qt-mt323.dll
 0002:00000ff8       __imp_?toInt@QVariant@@QBEHPA_N@Z 10027ff8     qt-mt323:qt-mt323.dll
 0002:00000ffc       __imp_??0QVariant@@QAE@ABVQString@@@Z 10027ffc     qt-mt323:qt-mt323.dll
 0002:00001000       __imp_?addSeparator@QToolBar@@QAEXXZ 10028000     qt-mt323:qt-mt323.dll
 0002:00001004       __imp_??1QPalette@@QAE@XZ  10028004     qt-mt323:qt-mt323.dll
 0002:00001008       __imp_??0QVariant@@QAE@ABVQPalette@@@Z 10028008     qt-mt323:qt-mt323.dll
 0002:0000100c       __imp_?setActive@QPalette@@QAEXABVQColorGroup@@@Z 1002800c     qt-mt323:qt-mt323.dll
 0002:00001010       __imp_?setColor@QColorGroup@@QAEXW4ColorRole@1@ABVQColor@@@Z 10028010     qt-mt323:qt-mt323.dll
 0002:00001014       __imp_?setDisabled@QPalette@@QAEXABVQColorGroup@@@Z 10028014     qt-mt323:qt-mt323.dll
 0002:00001018       __imp_?setInactive@QPalette@@QAEXABVQColorGroup@@@Z 10028018     qt-mt323:qt-mt323.dll
 0002:0000101c       __imp_??1QBrush@@QAE@XZ    1002801c     qt-mt323:qt-mt323.dll
 0002:00001020       __imp_?setBrush@QColorGroup@@QAEXW4ColorRole@1@ABVQBrush@@@Z 10028020     qt-mt323:qt-mt323.dll
 0002:00001024       __imp_??0QBrush@@QAE@ABVQColor@@ABVQPixmap@@@Z 10028024     qt-mt323:qt-mt323.dll
 0002:00001028       __imp_??0QColorGroup@@QAE@XZ 10028028     qt-mt323:qt-mt323.dll
 0002:0000102c       __imp_??0QPalette@@QAE@XZ  1002802c     qt-mt323:qt-mt323.dll
 0002:00001030       __imp_??0QVariant@@QAE@ABVQFont@@@Z 10028030     qt-mt323:qt-mt323.dll
 0002:00001034       __imp_?setStrikeOut@QFont@@QAEX_N@Z 10028034     qt-mt323:qt-mt323.dll
 0002:00001038       __imp_?setUnderline@QFont@@QAEX_N@Z 10028038     qt-mt323:qt-mt323.dll
 0002:0000103c       __imp_?setItalic@QFont@@QAEX_N@Z 1002803c     qt-mt323:qt-mt323.dll
 0002:00001040       __imp_?setWeight@QFont@@QAEXH@Z 10028040     qt-mt323:qt-mt323.dll
 0002:00001044       __imp_??0QFont@@QAE@XZ     10028044     qt-mt323:qt-mt323.dll
 0002:00001048       __imp_??0QCString@@QAE@PBD@Z 10028048     qt-mt323:qt-mt323.dll
 0002:0000104c       __imp_??0QString@@QAE@ABV?$QMemArray@D@@@Z 1002804c     qt-mt323:qt-mt323.dll
 0002:00001050       __imp_??0QToolBar@@QAE@ABVQString@@PAVQMainWindow@@W4Dock@Qt@@_NPBD@Z 10028050     qt-mt323:qt-mt323.dll
 0002:00001054       __imp_?menuBar@QMainWindow@@QBEPAVQMenuBar@@XZ 10028054     qt-mt323:qt-mt323.dll
 0002:00001058       __imp_??0QAction@@QAE@PAVQObject@@PBD@Z 10028058     qt-mt323:qt-mt323.dll
 0002:0000105c       __imp_??0QActionGroup@@QAE@PAVQObject@@PBD@Z 1002805c     qt-mt323:qt-mt323.dll
 0002:00001060       __imp_?centralWidget@QMainWindow@@QBEPAVQWidget@@XZ 10028060     qt-mt323:qt-mt323.dll
 0002:00001064       __imp_?isEmpty@QCString@@QBE_NXZ 10028064     qt-mt323:qt-mt323.dll
 0002:00001068       __imp_??1QActionGroup@@UAE@XZ 10028068     qt-mt323:qt-mt323.dll
 0002:0000106c       __imp_??1QAction@@UAE@XZ   1002806c     qt-mt323:qt-mt323.dll
 0002:00001070       __imp_??1QToolBar@@UAE@XZ  10028070     qt-mt323:qt-mt323.dll
 0002:00001074       __imp_?setTabOrder@QWidget@@SAXPAV1@0@Z 10028074     qt-mt323:qt-mt323.dll
 0002:00001078       __imp_?qWarning@@YAXPBDZZ  10028078     qt-mt323:qt-mt323.dll
 0002:0000107c       __imp_??1QGArray@@MAE@XZ   1002807c     qt-mt323:qt-mt323.dll
 0002:00001080       __imp_??0QGArray@@IAE@ABV0@@Z 10028080     qt-mt323:qt-mt323.dll
 0002:00001084       __imp_?resize@QCString@@QAE_NI@Z 10028084     qt-mt323:qt-mt323.dll
 0002:00001088       __imp_??0QImage@@QAE@ABV0@@Z 10028088     qt-mt323:qt-mt323.dll
 0002:0000108c       __imp_?loadFromData@QImage@@QAE_NPBEIPBD@Z 1002808c     qt-mt323:qt-mt323.dll
 0002:00001090       __imp_?qUncompress@@YA?AV?$QMemArray@D@@PBEH@Z 10028090     qt-mt323:qt-mt323.dll
 0002:00001094       __imp_??0QGArray@@IAE@H@Z  10028094     qt-mt323:qt-mt323.dll
 0002:00001098       __imp_?setEditText@QComboBox@@UAEXABVQString@@@Z 10028098     qt-mt323:qt-mt323.dll
 0002:0000109c       __imp_?popup@QComboBox@@UAEXXZ 1002809c     qt-mt323:qt-mt323.dll
 0002:000010a0       __imp_?setAutoCompletion@QComboBox@@UAEX_N@Z 100280a0     qt-mt323:qt-mt323.dll
 0002:000010a4       __imp_?setLineEdit@QComboBox@@UAEXPAVQLineEdit@@@Z 100280a4     qt-mt323:qt-mt323.dll
 0002:000010a8       __imp_?setListBox@QComboBox@@UAEXPAVQListBox@@@Z 100280a8     qt-mt323:qt-mt323.dll
 0002:000010ac       __imp_?setValidator@QComboBox@@UAEXPBVQValidator@@@Z 100280ac     qt-mt323:qt-mt323.dll
 0002:000010b0       __imp_?setInsertionPolicy@QComboBox@@UAEXW4Policy@1@@Z 100280b0     qt-mt323:qt-mt323.dll
 0002:000010b4       __imp_?setMaxCount@QComboBox@@UAEXH@Z 100280b4     qt-mt323:qt-mt323.dll
 0002:000010b8       __imp_?setSizeLimit@QComboBox@@UAEXH@Z 100280b8     qt-mt323:qt-mt323.dll
 0002:000010bc       __imp_?setAutoResize@QComboBox@@UAEX_N@Z 100280bc     qt-mt323:qt-mt323.dll
 0002:000010c0       __imp_?setCurrentText@QComboBox@@UAEXABVQString@@@Z 100280c0     qt-mt323:qt-mt323.dll
 0002:000010c4       __imp_?setCurrentItem@QComboBox@@UAEXH@Z 100280c4     qt-mt323:qt-mt323.dll
 0002:000010c8       __imp_?styleChange@QComboBox@@MAEXAAVQStyle@@@Z 100280c8     qt-mt323:qt-mt323.dll
 0002:000010cc       __imp_?updateMask@QComboBox@@MAEXXZ 100280cc     qt-mt323:qt-mt323.dll
 0002:000010d0       __imp_?resizeEvent@QComboBox@@MAEXPAVQResizeEvent@@@Z 100280d0     qt-mt323:qt-mt323.dll
 0002:000010d4       __imp_?paintEvent@QComboBox@@MAEXPAVQPaintEvent@@@Z 100280d4     qt-mt323:qt-mt323.dll
 0002:000010d8       __imp_?focusOutEvent@QComboBox@@MAEXPAVQFocusEvent@@@Z 100280d8     qt-mt323:qt-mt323.dll
 0002:000010dc       __imp_?focusInEvent@QComboBox@@MAEXPAVQFocusEvent@@@Z 100280dc     qt-mt323:qt-mt323.dll
 0002:000010e0       __imp_?keyPressEvent@QComboBox@@MAEXPAVQKeyEvent@@@Z 100280e0     qt-mt323:qt-mt323.dll
 0002:000010e4       __imp_?wheelEvent@QComboBox@@MAEXPAVQWheelEvent@@@Z 100280e4     qt-mt323:qt-mt323.dll
 0002:000010e8       __imp_?mouseMoveEvent@QComboBox@@MAEXPAVQMouseEvent@@@Z 100280e8     qt-mt323:qt-mt323.dll
 0002:000010ec       __imp_?mouseDoubleClickEvent@QComboBox@@MAEXPAVQMouseEvent@@@Z 100280ec     qt-mt323:qt-mt323.dll
 0002:000010f0       __imp_?mouseReleaseEvent@QComboBox@@MAEXPAVQMouseEvent@@@Z 100280f0     qt-mt323:qt-mt323.dll
 0002:000010f4       __imp_?mousePressEvent@QComboBox@@MAEXPAVQMouseEvent@@@Z 100280f4     qt-mt323:qt-mt323.dll
 0002:000010f8       __imp_?sizeHint@QComboBox@@UBE?AVQSize@@XZ 100280f8     qt-mt323:qt-mt323.dll
 0002:000010fc       __imp_?setFont@QComboBox@@UAEXABVQFont@@@Z 100280fc     qt-mt323:qt-mt323.dll
 0002:00001100       __imp_?setPalette@QComboBox@@UAEXABVQPalette@@@Z 10028100     qt-mt323:qt-mt323.dll
 0002:00001104       __imp_?setEnabled@QComboBox@@UAEX_N@Z 10028104     qt-mt323:qt-mt323.dll
 0002:00001108       __imp_?eventFilter@QComboBox@@UAE_NPAVQObject@@PAVQEvent@@@Z 10028108     qt-mt323:qt-mt323.dll
 0002:0000110c       __imp_?qt_property@QComboBox@@UAE_NHHPAVQVariant@@@Z 1002810c     qt-mt323:qt-mt323.dll
 0002:00001110       __imp_?qt_emit@QComboBox@@UAE_NHPAUQUObject@@@Z 10028110     qt-mt323:qt-mt323.dll
 0002:00001114       __imp_?qt_invoke@QComboBox@@UAE_NHPAUQUObject@@@Z 10028114     qt-mt323:qt-mt323.dll
 0002:00001118       __imp_?qt_cast@QComboBox@@UAEPAXPBD@Z 10028118     qt-mt323:qt-mt323.dll
 0002:0000111c       __imp_?className@QComboBox@@UBEPBDXZ 1002811c     qt-mt323:qt-mt323.dll
 0002:00001120       __imp_?metaObject@QComboBox@@UBEPAVQMetaObject@@XZ 10028120     qt-mt323:qt-mt323.dll
 0002:00001124       __imp_?end@QMultiLineEdit@@MAEX_N@Z 10028124     qt-mt323:qt-mt323.dll
 0002:00001128       __imp_?home@QMultiLineEdit@@MAEX_N@Z 10028128     qt-mt323:qt-mt323.dll
 0002:0000112c       __imp_?backspace@QMultiLineEdit@@MAEXXZ 1002812c     qt-mt323:qt-mt323.dll
 0002:00001130       __imp_?cursorDown@QMultiLineEdit@@MAEX_N@Z 10028130     qt-mt323:qt-mt323.dll
 0002:00001134       __imp_?cursorUp@QMultiLineEdit@@MAEX_N@Z 10028134     qt-mt323:qt-mt323.dll
 0002:00001138       __imp_?cursorRight@QMultiLineEdit@@MAEX_N0@Z 10028138     qt-mt323:qt-mt323.dll
 0002:0000113c       __imp_?cursorLeft@QMultiLineEdit@@MAEX_N0@Z 1002813c     qt-mt323:qt-mt323.dll
 0002:00001140       __imp_?pageDown@QMultiLineEdit@@MAEX_N@Z 10028140     qt-mt323:qt-mt323.dll
 0002:00001144       __imp_?pageUp@QMultiLineEdit@@MAEX_N@Z 10028144     qt-mt323:qt-mt323.dll
 0002:00001148       __imp_?killLine@QMultiLineEdit@@MAEXXZ 10028148     qt-mt323:qt-mt323.dll
 0002:0000114c       __imp_?newLine@QMultiLineEdit@@MAEXXZ 1002814c     qt-mt323:qt-mt323.dll
 0002:00001150       __imp_?insertAndMark@QMultiLineEdit@@MAEXABVQString@@_N@Z 10028150     qt-mt323:qt-mt323.dll
 0002:00001154       __imp_?setAutoUpdate@QMultiLineEdit@@UAEX_N@Z 10028154     qt-mt323:qt-mt323.dll
 0002:00001158       __imp_?setCursorPosition@QMultiLineEdit@@UAEXHH_N@Z 10028158     qt-mt323:qt-mt323.dll
 0002:0000115c       __imp_?removeLine@QMultiLineEdit@@UAEXH@Z 1002815c     qt-mt323:qt-mt323.dll
 0002:00001160       __imp_?insertAt@QMultiLineEdit@@UAEXABVQString@@HH_N@Z 10028160     qt-mt323:qt-mt323.dll
 0002:00001164       __imp_?insertLine@QMultiLineEdit@@UAEXABVQString@@H@Z 10028164     qt-mt323:qt-mt323.dll
 0002:00001168       __imp_?insertAt@QMultiLineEdit@@UAEXABVQString@@HH@Z 10028168     qt-mt323:qt-mt323.dll
 0002:0000116c       __imp_?setCursorPosition@QMultiLineEdit@@UAEXHH@Z 1002816c     qt-mt323:qt-mt323.dll
 0002:00001170       __imp_?setAlignment@QMultiLineEdit@@UAEXH@Z 10028170     qt-mt323:qt-mt323.dll
 0002:00001174       __imp_?qt_property@QMultiLineEdit@@UAE_NHHPAVQVariant@@@Z 10028174     qt-mt323:qt-mt323.dll
 0002:00001178       __imp_?qt_emit@QMultiLineEdit@@UAE_NHPAUQUObject@@@Z 10028178     qt-mt323:qt-mt323.dll
 0002:0000117c       __imp_?qt_invoke@QMultiLineEdit@@UAE_NHPAUQUObject@@@Z 1002817c     qt-mt323:qt-mt323.dll
 0002:00001180       __imp_?qt_cast@QMultiLineEdit@@UAEPAXPBD@Z 10028180     qt-mt323:qt-mt323.dll
 0002:00001184       __imp_?className@QMultiLineEdit@@UBEPBDXZ 10028184     qt-mt323:qt-mt323.dll
 0002:00001188       __imp_?metaObject@QMultiLineEdit@@UBEPAVQMetaObject@@XZ 10028188     qt-mt323:qt-mt323.dll
 0002:0000118c       __imp_?layOutTitleRow@QWizard@@MAEXPAVQHBoxLayout@@ABVQString@@@Z 1002818c     qt-mt323:qt-mt323.dll
 0002:00001190       __imp_?layOutButtonRow@QWizard@@MAEXPAVQHBoxLayout@@@Z 10028190     qt-mt323:qt-mt323.dll
 0002:00001194       __imp_?help@QWizard@@MAEXXZ 10028194     qt-mt323:qt-mt323.dll
 0002:00001198       __imp_?next@QWizard@@MAEXXZ 10028198     qt-mt323:qt-mt323.dll
 0002:0000119c       __imp_?back@QWizard@@MAEXXZ 1002819c     qt-mt323:qt-mt323.dll
 0002:000011a0       __imp_?setFinish@QWizard@@UAEXPAVQWidget@@_N@Z 100281a0     qt-mt323:qt-mt323.dll
 0002:000011a4       __imp_?setHelpEnabled@QWizard@@UAEXPAVQWidget@@_N@Z 100281a4     qt-mt323:qt-mt323.dll
 0002:000011a8       __imp_?setFinishEnabled@QWizard@@UAEXPAVQWidget@@_N@Z 100281a8     qt-mt323:qt-mt323.dll
 0002:000011ac       __imp_?setNextEnabled@QWizard@@UAEXPAVQWidget@@_N@Z 100281ac     qt-mt323:qt-mt323.dll
 0002:000011b0       __imp_?setBackEnabled@QWizard@@UAEXPAVQWidget@@_N@Z 100281b0     qt-mt323:qt-mt323.dll
 0002:000011b4       __imp_?setAppropriate@QWizard@@UAEXPAVQWidget@@_N@Z 100281b4     qt-mt323:qt-mt323.dll
 0002:000011b8       __imp_?appropriate@QWizard@@UBE_NPAVQWidget@@@Z 100281b8     qt-mt323:qt-mt323.dll
 0002:000011bc       __imp_?showPage@QWizard@@UAEXPAVQWidget@@@Z 100281bc     qt-mt323:qt-mt323.dll
 0002:000011c0       __imp_?removePage@QWizard@@UAEXPAVQWidget@@@Z 100281c0     qt-mt323:qt-mt323.dll
 0002:000011c4       __imp_?insertPage@QWizard@@UAEXPAVQWidget@@ABVQString@@H@Z 100281c4     qt-mt323:qt-mt323.dll
 0002:000011c8       __imp_?addPage@QWizard@@UAEXPAVQWidget@@ABVQString@@@Z 100281c8     qt-mt323:qt-mt323.dll
 0002:000011cc       __imp_?show@QWizard@@UAEXXZ 100281cc     qt-mt323:qt-mt323.dll
 0002:000011d0       __imp_?setFont@QWizard@@UAEXABVQFont@@@Z 100281d0     qt-mt323:qt-mt323.dll
 0002:000011d4       __imp_?eventFilter@QWizard@@UAE_NPAVQObject@@PAVQEvent@@@Z 100281d4     qt-mt323:qt-mt323.dll
 0002:000011d8       __imp_?qt_property@QWizard@@UAE_NHHPAVQVariant@@@Z 100281d8     qt-mt323:qt-mt323.dll
 0002:000011dc       __imp_?qt_emit@QWizard@@UAE_NHPAUQUObject@@@Z 100281dc     qt-mt323:qt-mt323.dll
 0002:000011e0       __imp_?qt_invoke@QWizard@@UAE_NHPAUQUObject@@@Z 100281e0     qt-mt323:qt-mt323.dll
 0002:000011e4       __imp_?qt_cast@QWizard@@UAEPAXPBD@Z 100281e4     qt-mt323:qt-mt323.dll
 0002:000011e8       __imp_?className@QWizard@@UBEPBDXZ 100281e8     qt-mt323:qt-mt323.dll
 0002:000011ec       __imp_?metaObject@QWizard@@UBEPAVQMetaObject@@XZ 100281ec     qt-mt323:qt-mt323.dll
 0002:000011f0       __imp_?rangeChange@QSlider@@MAEXXZ 100281f0     qt-mt323:qt-mt323.dll
 0002:000011f4       __imp_?valueChange@QSlider@@MAEXXZ 100281f4     qt-mt323:qt-mt323.dll
 0002:000011f8       __imp_?setValue@QSlider@@UAEXH@Z 100281f8     qt-mt323:qt-mt323.dll
 0002:000011fc       __imp_?contains@QString@@QBEHVQChar@@_N@Z 100281fc     qt-mt323:qt-mt323.dll
 0002:00001200       __imp_?setTickmarks@QSlider@@UAEXW4TickSetting@1@@Z 10028200     qt-mt323:qt-mt323.dll
 0002:00001204       __imp_?setTracking@QSlider@@UAEX_N@Z 10028204     qt-mt323:qt-mt323.dll
 0002:00001208       __imp_?setOrientation@QSlider@@UAEXW4Orientation@Qt@@@Z 10028208     qt-mt323:qt-mt323.dll
 0002:0000120c       __imp_?styleChange@QSlider@@MAEXAAVQStyle@@@Z 1002820c     qt-mt323:qt-mt323.dll
 0002:00001210       __imp_?resizeEvent@QSlider@@MAEXPAVQResizeEvent@@@Z 10028210     qt-mt323:qt-mt323.dll
 0002:00001214       __imp_?paintEvent@QSlider@@MAEXPAVQPaintEvent@@@Z 10028214     qt-mt323:qt-mt323.dll
 0002:00001218       __imp_?focusOutEvent@QSlider@@MAEXPAVQFocusEvent@@@Z 10028218     qt-mt323:qt-mt323.dll
 0002:0000121c       __imp_?focusInEvent@QSlider@@MAEXPAVQFocusEvent@@@Z 1002821c     qt-mt323:qt-mt323.dll
 0002:00001220       __imp_?keyPressEvent@QSlider@@MAEXPAVQKeyEvent@@@Z 10028220     qt-mt323:qt-mt323.dll
 0002:00001224       __imp_?wheelEvent@QSlider@@MAEXPAVQWheelEvent@@@Z 10028224     qt-mt323:qt-mt323.dll
 0002:00001228       __imp_?mouseMoveEvent@QSlider@@MAEXPAVQMouseEvent@@@Z 10028228     qt-mt323:qt-mt323.dll
 0002:0000122c       __imp_?mouseReleaseEvent@QSlider@@MAEXPAVQMouseEvent@@@Z 1002822c     qt-mt323:qt-mt323.dll
 0002:00001230       __imp_?mousePressEvent@QSlider@@MAEXPAVQMouseEvent@@@Z 10028230     qt-mt323:qt-mt323.dll
 0002:00001234       __imp_?setSizePolicy@QSlider@@UAEXVQSizePolicy@@@Z 10028234     qt-mt323:qt-mt323.dll
 0002:00001238       __imp_?sizePolicy@QSlider@@UBE?AVQSizePolicy@@XZ 10028238     qt-mt323:qt-mt323.dll
 0002:0000123c       __imp_?minimumSizeHint@QSlider@@UBE?AVQSize@@XZ 1002823c     qt-mt323:qt-mt323.dll
 0002:00001240       __imp_?sizeHint@QSlider@@UBE?AVQSize@@XZ 10028240     qt-mt323:qt-mt323.dll
 0002:00001244       __imp_?setPalette@QSlider@@UAEXABVQPalette@@@Z 10028244     qt-mt323:qt-mt323.dll
 0002:00001248       __imp_?qt_property@QSlider@@UAE_NHHPAVQVariant@@@Z 10028248     qt-mt323:qt-mt323.dll
 0002:0000124c       __imp_?qt_emit@QSlider@@UAE_NHPAUQUObject@@@Z 1002824c     qt-mt323:qt-mt323.dll
 0002:00001250       __imp_?qt_invoke@QSlider@@UAE_NHPAUQUObject@@@Z 10028250     qt-mt323:qt-mt323.dll
 0002:00001254       __imp_?qt_cast@QSlider@@UAEPAXPBD@Z 10028254     qt-mt323:qt-mt323.dll
 0002:00001258       __imp_?className@QSlider@@UBEPBDXZ 10028258     qt-mt323:qt-mt323.dll
 0002:0000125c       __imp_?metaObject@QSlider@@UBEPAVQMetaObject@@XZ 1002825c     qt-mt323:qt-mt323.dll
 0002:00001260       __imp_?stepChange@QScrollBar@@MAEXXZ 10028260     qt-mt323:qt-mt323.dll
 0002:00001264       __imp_?rangeChange@QScrollBar@@MAEXXZ 10028264     qt-mt323:qt-mt323.dll
 0002:00001268       __imp_?valueChange@QScrollBar@@MAEXXZ 10028268     qt-mt323:qt-mt323.dll
 0002:0000126c       __imp_?setTracking@QScrollBar@@UAEX_N@Z 1002826c     qt-mt323:qt-mt323.dll
 0002:00001270       __imp_?setOrientation@QScrollBar@@UAEXW4Orientation@Qt@@@Z 10028270     qt-mt323:qt-mt323.dll
 0002:00001274       __imp_?styleChange@QScrollBar@@MAEXAAVQStyle@@@Z 10028274     qt-mt323:qt-mt323.dll
 0002:00001278       __imp_?hideEvent@QScrollBar@@MAEXPAVQHideEvent@@@Z 10028278     qt-mt323:qt-mt323.dll
 0002:0000127c       __imp_?contextMenuEvent@QScrollBar@@MAEXPAVQContextMenuEvent@@@Z 1002827c     qt-mt323:qt-mt323.dll
 0002:00001280       __imp_?resizeEvent@QScrollBar@@MAEXPAVQResizeEvent@@@Z 10028280     qt-mt323:qt-mt323.dll
 0002:00001284       __imp_?paintEvent@QScrollBar@@MAEXPAVQPaintEvent@@@Z 10028284     qt-mt323:qt-mt323.dll
 0002:00001288       __imp_?keyPressEvent@QScrollBar@@MAEXPAVQKeyEvent@@@Z 10028288     qt-mt323:qt-mt323.dll
 0002:0000128c       __imp_?wheelEvent@QScrollBar@@MAEXPAVQWheelEvent@@@Z 1002828c     qt-mt323:qt-mt323.dll
 0002:00001290       __imp_?mouseMoveEvent@QScrollBar@@MAEXPAVQMouseEvent@@@Z 10028290     qt-mt323:qt-mt323.dll
 0002:00001294       __imp_?mouseReleaseEvent@QScrollBar@@MAEXPAVQMouseEvent@@@Z 10028294     qt-mt323:qt-mt323.dll
 0002:00001298       __imp_?mousePressEvent@QScrollBar@@MAEXPAVQMouseEvent@@@Z 10028298     qt-mt323:qt-mt323.dll
 0002:0000129c       __imp_?setSizePolicy@QScrollBar@@UAEXVQSizePolicy@@@Z 1002829c     qt-mt323:qt-mt323.dll
 0002:000012a0       __imp_?sizeHint@QScrollBar@@UBE?AVQSize@@XZ 100282a0     qt-mt323:qt-mt323.dll
 0002:000012a4       __imp_?setPalette@QScrollBar@@UAEXABVQPalette@@@Z 100282a4     qt-mt323:qt-mt323.dll
 0002:000012a8       __imp_?qt_property@QScrollBar@@UAE_NHHPAVQVariant@@@Z 100282a8     qt-mt323:qt-mt323.dll
 0002:000012ac       __imp_?qt_emit@QScrollBar@@UAE_NHPAUQUObject@@@Z 100282ac     qt-mt323:qt-mt323.dll
 0002:000012b0       __imp_?qt_invoke@QScrollBar@@UAE_NHPAUQUObject@@@Z 100282b0     qt-mt323:qt-mt323.dll
 0002:000012b4       __imp_?qt_cast@QScrollBar@@UAEPAXPBD@Z 100282b4     qt-mt323:qt-mt323.dll
 0002:000012b8       __imp_?className@QScrollBar@@UBEPBDXZ 100282b8     qt-mt323:qt-mt323.dll
 0002:000012bc       __imp_?metaObject@QScrollBar@@UBEPAVQMetaObject@@XZ 100282bc     qt-mt323:qt-mt323.dll
 0002:000012c0       __imp_?columnClicked@QTable@@MAEXH@Z 100282c0     qt-mt323:qt-mt323.dll
 0002:000012c4       __imp_?resizeData@QTable@@MAEXH@Z 100282c4     qt-mt323:qt-mt323.dll
 0002:000012c8       __imp_?endEdit@QTable@@MAEXHH_N0@Z 100282c8     qt-mt323:qt-mt323.dll
 0002:000012cc       __imp_?beginEdit@QTable@@MAEPAVQWidget@@HH_N@Z 100282cc     qt-mt323:qt-mt323.dll
 0002:000012d0       __imp_?createEditor@QTable@@MBEPAVQWidget@@HH_N@Z 100282d0     qt-mt323:qt-mt323.dll
 0002:000012d4       __imp_?activateNextCell@QTable@@MAEXXZ 100282d4     qt-mt323:qt-mt323.dll
 0002:000012d8       __imp_?swapColumns@QTable@@UAEXHH_N@Z 100282d8     qt-mt323:qt-mt323.dll
 0002:000012dc       __imp_?setColumnStretchable@QTable@@UAEXH_N@Z 100282dc     qt-mt323:qt-mt323.dll
 0002:000012e0       __imp_?adjustColumn@QTable@@UAEXH@Z 100282e0     qt-mt323:qt-mt323.dll
 0002:000012e4       __imp_?setColumnWidth@QTable@@UAEXHH@Z 100282e4     qt-mt323:qt-mt323.dll
 0002:000012e8       __imp_?showColumn@QTable@@UAEXH@Z 100282e8     qt-mt323:qt-mt323.dll
 0002:000012ec       __imp_?hideColumn@QTable@@UAEXH@Z 100282ec     qt-mt323:qt-mt323.dll
 0002:000012f0       __imp_?setNumCols@QTable@@UAEXH@Z 100282f0     qt-mt323:qt-mt323.dll
 0002:000012f4       __imp_?setNumRows@QTable@@UAEXH@Z 100282f4     qt-mt323:qt-mt323.dll
 0002:000012f8       __imp_?paintCell@QTable@@UAEXPAVQPainter@@HHABVQRect@@_NABVQColorGroup@@@Z 100282f8     qt-mt323:qt-mt323.dll
 0002:000012fc       __imp_?takeItem@QTable@@UAEXPAVQTableItem@@@Z 100282fc     qt-mt323:qt-mt323.dll
 0002:00001300       __imp_?sortColumn@QTable@@UAEXH_N0@Z 10028300     qt-mt323:qt-mt323.dll
 0002:00001304       __imp_?numCols@QTable@@UBEHXZ 10028304     qt-mt323:qt-mt323.dll
 0002:00001308       __imp_?numRows@QTable@@UBEHXZ 10028308     qt-mt323:qt-mt323.dll
 0002:0000130c       __imp_?clearCell@QTable@@UAEXHH@Z 1002830c     qt-mt323:qt-mt323.dll
 0002:00001310       __imp_?text@QTable@@UBE?AVQString@@HH@Z 10028310     qt-mt323:qt-mt323.dll
 0002:00001314       __imp_?item@QTable@@UBEPAVQTableItem@@HH@Z 10028314     qt-mt323:qt-mt323.dll
 0002:00001318       __imp_?setPixmap@QTable@@UAEXHHABVQPixmap@@@Z 10028318     qt-mt323:qt-mt323.dll
 0002:0000131c       __imp_?setItem@QTable@@UAEXHHPAVQTableItem@@@Z 1002831c     qt-mt323:qt-mt323.dll
 0002:00001320       __imp_?contentsContextMenuEvent@QTable@@MAEXPAVQContextMenuEvent@@@Z 10028320     qt-mt323:qt-mt323.dll
 0002:00001324       __imp_?contentsMousePressEvent@QTable@@MAEXPAVQMouseEvent@@@Z 10028324     qt-mt323:qt-mt323.dll
 0002:00001328       __imp_?drawContents@QTable@@MAEXPAVQPainter@@HHHH@Z 10028328     qt-mt323:qt-mt323.dll
 0002:0000132c       __imp_?resizeEvent@QScrollView@@MAEXPAVQResizeEvent@@@Z 1002832c     qt-mt323:qt-mt323.dll
 0002:00001330       __imp_?keyPressEvent@QTable@@MAEXPAVQKeyEvent@@@Z 10028330     qt-mt323:qt-mt323.dll
 0002:00001334       __imp_?eventFilter@QTable@@UAE_NPAVQObject@@PAVQEvent@@@Z 10028334     qt-mt323:qt-mt323.dll
 0002:00001338       __imp_?qt_property@QTable@@UAE_NHHPAVQVariant@@@Z 10028338     qt-mt323:qt-mt323.dll
 0002:0000133c       __imp_?qt_emit@QTable@@UAE_NHPAUQUObject@@@Z 1002833c     qt-mt323:qt-mt323.dll
 0002:00001340       __imp_?qt_invoke@QTable@@UAE_NHPAUQUObject@@@Z 10028340     qt-mt323:qt-mt323.dll
 0002:00001344       __imp_?qt_cast@QTable@@UAEPAXPBD@Z 10028344     qt-mt323:qt-mt323.dll
 0002:00001348       __imp_?className@QTable@@UBEPBDXZ 10028348     qt-mt323:qt-mt323.dll
 0002:0000134c       __imp_?metaObject@QTable@@UBEPAVQMetaObject@@XZ 1002834c     qt-mt323:qt-mt323.dll
 0002:00001350       __imp_?initDragEnter@QIconView@@EAEXPAVQDropEvent@@@Z 10028350     qt-mt323:qt-mt323.dll
 0002:00001354       __imp_?drawDragShapes@QIconView@@EAEXABVQPoint@@@Z 10028354     qt-mt323:qt-mt323.dll
 0002:00001358       __imp_?drawBackground@QIconView@@MAEXPAVQPainter@@ABVQRect@@@Z 10028358     qt-mt323:qt-mt323.dll
 0002:0000135c       __imp_?insertInGrid@QIconView@@MAEXPAVQIconViewItem@@@Z 1002835c     qt-mt323:qt-mt323.dll
 0002:00001360       __imp_?startDrag@QIconView@@MAEXXZ 10028360     qt-mt323:qt-mt323.dll
 0002:00001364       __imp_?dragObject@QIconView@@MAEPAVQDragObject@@XZ 10028364     qt-mt323:qt-mt323.dll
 0002:00001368       __imp_?drawRubber@QIconView@@MAEXPAVQPainter@@@Z 10028368     qt-mt323:qt-mt323.dll
 0002:0000136c       __imp_?slotUpdate@QIconView@@MAEXXZ 1002836c     qt-mt323:qt-mt323.dll
 0002:00001370       __imp_?adjustItems@QIconView@@MAEXXZ 10028370     qt-mt323:qt-mt323.dll
 0002:00001374       __imp_?doAutoScroll@QIconView@@MAEXXZ 10028374     qt-mt323:qt-mt323.dll
 0002:00001378       __imp_?updateContents@QIconView@@UAEXXZ 10028378     qt-mt323:qt-mt323.dll
 0002:0000137c       __imp_?arrangeItemsInGrid@QIconView@@UAEXABVQSize@@_N@Z 1002837c     qt-mt323:qt-mt323.dll
 0002:00001380       __imp_?arrangeItemsInGrid@QIconView@@UAEX_N@Z 10028380     qt-mt323:qt-mt323.dll
 0002:00001384       __imp_?sort@QIconView@@UAEX_N@Z 10028384     qt-mt323:qt-mt323.dll
 0002:00001388       __imp_?setWordWrapIconText@QIconView@@UAEX_N@Z 10028388     qt-mt323:qt-mt323.dll
 0002:0000138c       __imp_?setItemsMovable@QIconView@@UAEX_N@Z 1002838c     qt-mt323:qt-mt323.dll
 0002:00001390       __imp_?setShowToolTips@QIconView@@UAEX_N@Z 10028390     qt-mt323:qt-mt323.dll
 0002:00001394       __imp_?setAutoArrange@QIconView@@UAEX_N@Z 10028394     qt-mt323:qt-mt323.dll
 0002:00001398       __imp_?setMaxItemTextLength@QIconView@@UAEXH@Z 10028398     qt-mt323:qt-mt323.dll
 0002:0000139c       __imp_?setMaxItemWidth@QIconView@@UAEXH@Z 1002839c     qt-mt323:qt-mt323.dll
 0002:000013a0       __imp_?setResizeMode@QIconView@@UAEXW4ResizeMode@1@@Z 100283a0     qt-mt323:qt-mt323.dll
 0002:000013a4       __imp_?setArrangement@QIconView@@UAEXW4Arrangement@1@@Z 100283a4     qt-mt323:qt-mt323.dll
 0002:000013a8       __imp_?setItemTextBackground@QIconView@@UAEXABVQBrush@@@Z 100283a8     qt-mt323:qt-mt323.dll
 0002:000013ac       __imp_?setItemTextPos@QIconView@@UAEXW4ItemTextPos@1@@Z 100283ac     qt-mt323:qt-mt323.dll
 0002:000013b0       __imp_?setSpacing@QIconView@@UAEXH@Z 100283b0     qt-mt323:qt-mt323.dll
 0002:000013b4       __imp_?setGridY@QIconView@@UAEXH@Z 100283b4     qt-mt323:qt-mt323.dll
 0002:000013b8       __imp_?setGridX@QIconView@@UAEXH@Z 100283b8     qt-mt323:qt-mt323.dll
 0002:000013bc       __imp_?clear@QIconView@@UAEXXZ 100283bc     qt-mt323:qt-mt323.dll
 0002:000013c0       __imp_?repaintItem@QIconView@@UAEXPAVQIconViewItem@@@Z 100283c0     qt-mt323:qt-mt323.dll
 0002:000013c4       __imp_?invertSelection@QIconView@@UAEXXZ 100283c4     qt-mt323:qt-mt323.dll
 0002:000013c8       __imp_?clearSelection@QIconView@@UAEXXZ 100283c8     qt-mt323:qt-mt323.dll
 0002:000013cc       __imp_?selectAll@QIconView@@UAEX_N@Z 100283cc     qt-mt323:qt-mt323.dll
 0002:000013d0       __imp_?setSelectionMode@QIconView@@UAEXW4SelectionMode@1@@Z 100283d0     qt-mt323:qt-mt323.dll
 0002:000013d4       __imp_?setSelected@QIconView@@UAEXPAVQIconViewItem@@_N1@Z 100283d4     qt-mt323:qt-mt323.dll
 0002:000013d8       __imp_?setCurrentItem@QIconView@@UAEXPAVQIconViewItem@@@Z 100283d8     qt-mt323:qt-mt323.dll
 0002:000013dc       __imp_?takeItem@QIconView@@UAEXPAVQIconViewItem@@@Z 100283dc     qt-mt323:qt-mt323.dll
 0002:000013e0       __imp_?insertItem@QIconView@@UAEXPAVQIconViewItem@@0@Z 100283e0     qt-mt323:qt-mt323.dll
 0002:000013e4       __imp_?contentsContextMenuEvent@QIconView@@MAEXPAVQContextMenuEvent@@@Z 100283e4     qt-mt323:qt-mt323.dll
 0002:000013e8       __imp_?contentsDropEvent@QIconView@@MAEXPAVQDropEvent@@@Z 100283e8     qt-mt323:qt-mt323.dll
 0002:000013ec       __imp_?contentsDragLeaveEvent@QIconView@@MAEXPAVQDragLeaveEvent@@@Z 100283ec     qt-mt323:qt-mt323.dll
 0002:000013f0       __imp_?contentsDragMoveEvent@QIconView@@MAEXPAVQDragMoveEvent@@@Z 100283f0     qt-mt323:qt-mt323.dll
 0002:000013f4       __imp_?contentsDragEnterEvent@QIconView@@MAEXPAVQDragEnterEvent@@@Z 100283f4     qt-mt323:qt-mt323.dll
 0002:000013f8       __imp_?contentsMouseMoveEvent@QIconView@@MAEXPAVQMouseEvent@@@Z 100283f8     qt-mt323:qt-mt323.dll
 0002:000013fc       __imp_?contentsMouseDoubleClickEvent@QIconView@@MAEXPAVQMouseEvent@@@Z 100283fc     qt-mt323:qt-mt323.dll
 0002:00001400       __imp_?contentsMouseReleaseEvent@QIconView@@MAEXPAVQMouseEvent@@@Z 10028400     qt-mt323:qt-mt323.dll
 0002:00001404       __imp_?contentsMousePressEvent@QIconView@@MAEXPAVQMouseEvent@@@Z 10028404     qt-mt323:qt-mt323.dll
 0002:00001408       __imp_?drawContents@QIconView@@MAEXPAVQPainter@@HHHH@Z 10028408     qt-mt323:qt-mt323.dll
 0002:0000140c       __imp_?setContentsPos@QIconView@@UAEXHH@Z 1002840c     qt-mt323:qt-mt323.dll
 0002:00001410       __imp_?drawContents@QIconView@@EAEXPAVQPainter@@@Z 10028410     qt-mt323:qt-mt323.dll
 0002:00001414       __imp_?windowActivationChange@QIconView@@MAEX_N@Z 10028414     qt-mt323:qt-mt323.dll
 0002:00001418       __imp_?styleChange@QIconView@@MAEXAAVQStyle@@@Z 10028418     qt-mt323:qt-mt323.dll
 0002:0000141c       __imp_?showEvent@QIconView@@UAEXPAVQShowEvent@@@Z 1002841c     qt-mt323:qt-mt323.dll
 0002:00001420       __imp_?resizeEvent@QIconView@@MAEXPAVQResizeEvent@@@Z 10028420     qt-mt323:qt-mt323.dll
 0002:00001424       __imp_?enterEvent@QIconView@@MAEXPAVQEvent@@@Z 10028424     qt-mt323:qt-mt323.dll
 0002:00001428       __imp_?focusOutEvent@QIconView@@MAEXPAVQFocusEvent@@@Z 10028428     qt-mt323:qt-mt323.dll
 0002:0000142c       __imp_?focusInEvent@QIconView@@MAEXPAVQFocusEvent@@@Z 1002842c     qt-mt323:qt-mt323.dll
 0002:00001430       __imp_?keyPressEvent@QIconView@@MAEXPAVQKeyEvent@@@Z 10028430     qt-mt323:qt-mt323.dll
 0002:00001434       __imp_?minimumSizeHint@QIconView@@UBE?AVQSize@@XZ 10028434     qt-mt323:qt-mt323.dll
 0002:00001438       __imp_?sizeHint@QIconView@@UBE?AVQSize@@XZ 10028438     qt-mt323:qt-mt323.dll
 0002:0000143c       __imp_?setFont@QIconView@@UAEXABVQFont@@@Z 1002843c     qt-mt323:qt-mt323.dll
 0002:00001440       __imp_?setPalette@QIconView@@UAEXABVQPalette@@@Z 10028440     qt-mt323:qt-mt323.dll
 0002:00001444       __imp_?eventFilter@QIconView@@UAE_NPAVQObject@@PAVQEvent@@@Z 10028444     qt-mt323:qt-mt323.dll
 0002:00001448       __imp_?qt_property@QIconView@@UAE_NHHPAVQVariant@@@Z 10028448     qt-mt323:qt-mt323.dll
 0002:0000144c       __imp_?qt_emit@QIconView@@UAE_NHPAUQUObject@@@Z 1002844c     qt-mt323:qt-mt323.dll
 0002:00001450       __imp_?qt_invoke@QIconView@@UAE_NHPAUQUObject@@@Z 10028450     qt-mt323:qt-mt323.dll
 0002:00001454       __imp_?qt_cast@QIconView@@UAEPAXPBD@Z 10028454     qt-mt323:qt-mt323.dll
 0002:00001458       __imp_?className@QIconView@@UBEPBDXZ 10028458     qt-mt323:qt-mt323.dll
 0002:0000145c       __imp_?metaObject@QIconView@@UBEPAVQMetaObject@@XZ 1002845c     qt-mt323:qt-mt323.dll
 0002:00001460       __imp_?paintEmptyArea@QListView@@MAEXPAVQPainter@@ABVQRect@@@Z 10028460     qt-mt323:qt-mt323.dll
 0002:00001464       __imp_?startDrag@QListView@@MAEXXZ 10028464     qt-mt323:qt-mt323.dll
 0002:00001468       __imp_?dragObject@QListView@@MAEPAVQDragObject@@XZ 10028468     qt-mt323:qt-mt323.dll
 0002:0000146c       __imp_?selectAll@QListView@@UAEX_N@Z 1002846c     qt-mt323:qt-mt323.dll
 0002:00001470       __imp_?invertSelection@QListView@@UAEXXZ 10028470     qt-mt323:qt-mt323.dll
 0002:00001474       __imp_?clear@QListView@@UAEXXZ 10028474     qt-mt323:qt-mt323.dll
 0002:00001478       __imp_?setDefaultRenameAction@QListView@@UAEXW4RenameAction@1@@Z 10028478     qt-mt323:qt-mt323.dll
 0002:0000147c       __imp_?setResizeMode@QListView@@UAEXW4ResizeMode@1@@Z 1002847c     qt-mt323:qt-mt323.dll
 0002:00001480       __imp_?setShowToolTips@QListView@@UAEX_N@Z 10028480     qt-mt323:qt-mt323.dll
 0002:00001484       __imp_?setShowSortIndicator@QListView@@UAEX_N@Z 10028484     qt-mt323:qt-mt323.dll
 0002:00001488       __imp_?sort@QListView@@UAEXXZ 10028488     qt-mt323:qt-mt323.dll
 0002:0000148c       __imp_?setSorting@QListView@@UAEXH_N@Z 1002848c     qt-mt323:qt-mt323.dll
 0002:00001490       __imp_?setRootIsDecorated@QListView@@UAEX_N@Z 10028490     qt-mt323:qt-mt323.dll
 0002:00001494       __imp_?setItemMargin@QListView@@UAEXH@Z 10028494     qt-mt323:qt-mt323.dll
 0002:00001498       __imp_?setAllColumnsShowFocus@QListView@@UAEX_N@Z 10028498     qt-mt323:qt-mt323.dll
 0002:0000149c       __imp_?setCurrentItem@QListView@@UAEXPAVQListViewItem@@@Z 1002849c     qt-mt323:qt-mt323.dll
 0002:000014a0       __imp_?setOpen@QListView@@UAEXPAVQListViewItem@@_N@Z 100284a0     qt-mt323:qt-mt323.dll
 0002:000014a4       __imp_?setSelected@QListView@@UAEXPAVQListViewItem@@_N@Z 100284a4     qt-mt323:qt-mt323.dll
 0002:000014a8       __imp_?clearSelection@QListView@@UAEXXZ 100284a8     qt-mt323:qt-mt323.dll
 0002:000014ac       __imp_?setMultiSelection@QListView@@UAEX_N@Z 100284ac     qt-mt323:qt-mt323.dll
 0002:000014b0       __imp_?setColumnAlignment@QListView@@UAEXHH@Z 100284b0     qt-mt323:qt-mt323.dll
 0002:000014b4       __imp_?setColumnWidthMode@QListView@@UAEXHW4WidthMode@1@@Z 100284b4     qt-mt323:qt-mt323.dll
 0002:000014b8       __imp_?setColumnWidth@QListView@@UAEXHH@Z 100284b8     qt-mt323:qt-mt323.dll
 0002:000014bc       __imp_?setColumnText@QListView@@UAEXHABVQString@@@Z 100284bc     qt-mt323:qt-mt323.dll
 0002:000014c0       __imp_?setColumnText@QListView@@UAEXHABVQIconSet@@ABVQString@@@Z 100284c0     qt-mt323:qt-mt323.dll
 0002:000014c4       __imp_?removeColumn@QListView@@UAEXH@Z 100284c4     qt-mt323:qt-mt323.dll
 0002:000014c8       __imp_?addColumn@QListView@@UAEHABVQString@@H@Z 100284c8     qt-mt323:qt-mt323.dll
 0002:000014cc       __imp_?addColumn@QListView@@UAEHABVQIconSet@@ABVQString@@H@Z 100284cc     qt-mt323:qt-mt323.dll
 0002:000014d0       __imp_?removeItem@QListView@@UAEXPAVQListViewItem@@@Z 100284d0     qt-mt323:qt-mt323.dll
 0002:000014d4       __imp_?takeItem@QListView@@UAEXPAVQListViewItem@@@Z 100284d4     qt-mt323:qt-mt323.dll
 0002:000014d8       __imp_?insertItem@QListView@@UAEXPAVQListViewItem@@@Z 100284d8     qt-mt323:qt-mt323.dll
 0002:000014dc       __imp_?setTreeStepSize@QListView@@UAEXH@Z 100284dc     qt-mt323:qt-mt323.dll
 0002:000014e0       __imp_?viewportResizeEvent@QListView@@MAEXPAVQResizeEvent@@@Z 100284e0     qt-mt323:qt-mt323.dll
 0002:000014e4       __imp_?contentsContextMenuEvent@QListView@@MAEXPAVQContextMenuEvent@@@Z 100284e4     qt-mt323:qt-mt323.dll
 0002:000014e8       __imp_?contentsDropEvent@QListView@@MAEXPAVQDropEvent@@@Z 100284e8     qt-mt323:qt-mt323.dll
 0002:000014ec       __imp_?contentsDragLeaveEvent@QListView@@MAEXPAVQDragLeaveEvent@@@Z 100284ec     qt-mt323:qt-mt323.dll
 0002:000014f0       __imp_?contentsDragMoveEvent@QListView@@MAEXPAVQDragMoveEvent@@@Z 100284f0     qt-mt323:qt-mt323.dll
 0002:000014f4       __imp_?contentsDragEnterEvent@QListView@@MAEXPAVQDragEnterEvent@@@Z 100284f4     qt-mt323:qt-mt323.dll
 0002:000014f8       __imp_?contentsMouseMoveEvent@QListView@@MAEXPAVQMouseEvent@@@Z 100284f8     qt-mt323:qt-mt323.dll
 0002:000014fc       __imp_?contentsMouseDoubleClickEvent@QListView@@MAEXPAVQMouseEvent@@@Z 100284fc     qt-mt323:qt-mt323.dll
 0002:00001500       __imp_?contentsMouseReleaseEvent@QListView@@MAEXPAVQMouseEvent@@@Z 10028500     qt-mt323:qt-mt323.dll
 0002:00001504       __imp_?contentsMousePressEvent@QListView@@MAEXPAVQMouseEvent@@@Z 10028504     qt-mt323:qt-mt323.dll
 0002:00001508       __imp_?drawContentsOffset@QListView@@MAEXPAVQPainter@@HHHHHH@Z 10028508     qt-mt323:qt-mt323.dll
 0002:0000150c       __imp_?setContentsPos@QListView@@UAEXHH@Z 1002850c     qt-mt323:qt-mt323.dll
 0002:00001510       __imp_?windowActivationChange@QListView@@MAEX_N@Z 10028510     qt-mt323:qt-mt323.dll
 0002:00001514       __imp_?styleChange@QListView@@MAEXAAVQStyle@@@Z 10028514     qt-mt323:qt-mt323.dll
 0002:00001518       __imp_?showEvent@QListView@@MAEXPAVQShowEvent@@@Z 10028518     qt-mt323:qt-mt323.dll
 0002:0000151c       __imp_?resizeEvent@QListView@@MAEXPAVQResizeEvent@@@Z 1002851c     qt-mt323:qt-mt323.dll
 0002:00001520       __imp_?focusOutEvent@QListView@@MAEXPAVQFocusEvent@@@Z 10028520     qt-mt323:qt-mt323.dll
 0002:00001524       __imp_?focusInEvent@QListView@@MAEXPAVQFocusEvent@@@Z 10028524     qt-mt323:qt-mt323.dll
 0002:00001528       __imp_?keyPressEvent@QListView@@MAEXPAVQKeyEvent@@@Z 10028528     qt-mt323:qt-mt323.dll
 0002:0000152c       __imp_?minimumSizeHint@QListView@@UBE?AVQSize@@XZ 1002852c     qt-mt323:qt-mt323.dll
 0002:00001530       __imp_?sizeHint@QListView@@UBE?AVQSize@@XZ 10028530     qt-mt323:qt-mt323.dll
 0002:00001534       __imp_?show@QListView@@UAEXXZ 10028534     qt-mt323:qt-mt323.dll
 0002:00001538       __imp_?setFont@QListView@@UAEXABVQFont@@@Z 10028538     qt-mt323:qt-mt323.dll
 0002:0000153c       __imp_?setPalette@QListView@@UAEXABVQPalette@@@Z 1002853c     qt-mt323:qt-mt323.dll
 0002:00001540       __imp_?eventFilter@QListView@@UAE_NPAVQObject@@PAVQEvent@@@Z 10028540     qt-mt323:qt-mt323.dll
 0002:00001544       __imp_?qt_property@QListView@@UAE_NHHPAVQVariant@@@Z 10028544     qt-mt323:qt-mt323.dll
 0002:00001548       __imp_?qt_emit@QListView@@UAE_NHPAUQUObject@@@Z 10028548     qt-mt323:qt-mt323.dll
 0002:0000154c       __imp_?qt_invoke@QListView@@UAE_NHPAUQUObject@@@Z 1002854c     qt-mt323:qt-mt323.dll
 0002:00001550       __imp_?qt_cast@QListView@@UAEPAXPBD@Z 10028550     qt-mt323:qt-mt323.dll
 0002:00001554       __imp_?className@QListView@@UBEPBDXZ 10028554     qt-mt323:qt-mt323.dll
 0002:00001558       __imp_?metaObject@QListView@@UBEPAVQMetaObject@@XZ 10028558     qt-mt323:qt-mt323.dll
 0002:0000155c       __imp_?setOn@QToolButton@@UAEX_N@Z 1002855c     qt-mt323:qt-mt323.dll
 0002:00001560       __imp_?setToggleButton@QToolButton@@UAEX_N@Z 10028560     qt-mt323:qt-mt323.dll
 0002:00001564       __imp_?setTextLabel@QToolButton@@UAEXABVQString@@_N@Z 10028564     qt-mt323:qt-mt323.dll
 0002:00001568       __imp_?setUsesTextLabel@QToolButton@@UAEX_N@Z 10028568     qt-mt323:qt-mt323.dll
 0002:0000156c       __imp_?setUsesBigPixmap@QToolButton@@UAEX_N@Z 1002856c     qt-mt323:qt-mt323.dll
 0002:00001570       __imp_?setIconSet@QToolButton@@UAEXABVQIconSet@@@Z 10028570     qt-mt323:qt-mt323.dll
 0002:00001574       __imp_?drawButtonLabel@QToolButton@@MAEXPAVQPainter@@@Z 10028574     qt-mt323:qt-mt323.dll
 0002:00001578       __imp_?drawButton@QToolButton@@MAEXPAVQPainter@@@Z 10028578     qt-mt323:qt-mt323.dll
 0002:0000157c       __imp_?setText@QToolButton@@UAEXABVQString@@@Z 1002857c     qt-mt323:qt-mt323.dll
 0002:00001580       __imp_?paletteChange@QToolButton@@MAEXABVQPalette@@@Z 10028580     qt-mt323:qt-mt323.dll
 0002:00001584       __imp_?moveEvent@QToolButton@@MAEXPAVQMoveEvent@@@Z 10028584     qt-mt323:qt-mt323.dll
 0002:00001588       __imp_?leaveEvent@QToolButton@@MAEXPAVQEvent@@@Z 10028588     qt-mt323:qt-mt323.dll
 0002:0000158c       __imp_?enterEvent@QToolButton@@MAEXPAVQEvent@@@Z 1002858c     qt-mt323:qt-mt323.dll
 0002:00001590       __imp_?mousePressEvent@QToolButton@@MAEXPAVQMouseEvent@@@Z 10028590     qt-mt323:qt-mt323.dll
 0002:00001594       __imp_?minimumSizeHint@QToolButton@@UBE?AVQSize@@XZ 10028594     qt-mt323:qt-mt323.dll
 0002:00001598       __imp_?sizeHint@QToolButton@@UBE?AVQSize@@XZ 10028598     qt-mt323:qt-mt323.dll
 0002:0000159c       __imp_?eventFilter@QToolButton@@MAE_NPAVQObject@@PAVQEvent@@@Z 1002859c     qt-mt323:qt-mt323.dll
 0002:000015a0       __imp_?qt_property@QToolButton@@UAE_NHHPAVQVariant@@@Z 100285a0     qt-mt323:qt-mt323.dll
 0002:000015a4       __imp_?qt_emit@QToolButton@@UAE_NHPAUQUObject@@@Z 100285a4     qt-mt323:qt-mt323.dll
 0002:000015a8       __imp_?qt_invoke@QToolButton@@UAE_NHPAUQUObject@@@Z 100285a8     qt-mt323:qt-mt323.dll
 0002:000015ac       __imp_?qt_cast@QToolButton@@UAEPAXPBD@Z 100285ac     qt-mt323:qt-mt323.dll
 0002:000015b0       __imp_?className@QToolButton@@UBEPBDXZ 100285b0     qt-mt323:qt-mt323.dll
 0002:000015b4       __imp_?metaObject@QToolButton@@UBEPAVQMetaObject@@XZ 100285b4     qt-mt323:qt-mt323.dll
 0002:000015b8       __imp_?setToolTipGroup@QMainWindow@@EAEXPAVQToolTipGroup@@@Z 100285b8     qt-mt323:qt-mt323.dll
 0002:000015bc       __imp_?setStatusBar@QMainWindow@@EAEXPAVQStatusBar@@@Z 100285bc     qt-mt323:qt-mt323.dll
 0002:000015c0       __imp_?setMenuBar@QMainWindow@@EAEXPAVQMenuBar@@@Z 100285c0     qt-mt323:qt-mt323.dll
 0002:000015c4       __imp_?showDockMenu@QMainWindow@@MAE_NABVQPoint@@@Z 100285c4     qt-mt323:qt-mt323.dll
 0002:000015c8       __imp_?setUpLayout@QMainWindow@@MAEXXZ 100285c8     qt-mt323:qt-mt323.dll
 0002:000015cc       __imp_?customize@QMainWindow@@UAEXXZ 100285cc     qt-mt323:qt-mt323.dll
 0002:000015d0       __imp_?setAppropriate@QMainWindow@@UAEXPAVQDockWindow@@_N@Z 100285d0     qt-mt323:qt-mt323.dll
 0002:000015d4       __imp_?whatsThis@QMainWindow@@UAEXXZ 100285d4     qt-mt323:qt-mt323.dll
 0002:000015d8       __imp_?setDockMenuEnabled@QMainWindow@@UAEX_N@Z 100285d8     qt-mt323:qt-mt323.dll
 0002:000015dc       __imp_?setOpaqueMoving@QMainWindow@@UAEX_N@Z 100285dc     qt-mt323:qt-mt323.dll
 0002:000015e0       __imp_?setDockWindowsMovable@QMainWindow@@UAEX_N@Z 100285e0     qt-mt323:qt-mt323.dll
 0002:000015e4       __imp_?setUsesTextLabel@QMainWindow@@UAEX_N@Z 100285e4     qt-mt323:qt-mt323.dll
 0002:000015e8       __imp_?setUsesBigPixmaps@QMainWindow@@UAEX_N@Z 100285e8     qt-mt323:qt-mt323.dll
 0002:000015ec       __imp_?setRightJustification@QMainWindow@@UAEX_N@Z 100285ec     qt-mt323:qt-mt323.dll
 0002:000015f0       __imp_?isCustomizable@QMainWindow@@UBE_NXZ 100285f0     qt-mt323:qt-mt323.dll
 0002:000015f4       __imp_?dockingArea@QMainWindow@@UAEPAVQDockArea@@ABVQPoint@@@Z 100285f4     qt-mt323:qt-mt323.dll
 0002:000015f8       __imp_?removeDockWindow@QMainWindow@@UAEXPAVQDockWindow@@@Z 100285f8     qt-mt323:qt-mt323.dll
 0002:000015fc       __imp_?moveDockWindow@QMainWindow@@UAEXPAVQDockWindow@@W4Dock@Qt@@@Z 100285fc     qt-mt323:qt-mt323.dll
 0002:00001600       __imp_?moveDockWindow@QMainWindow@@UAEXPAVQDockWindow@@W4Dock@Qt@@_NHH@Z 10028600     qt-mt323:qt-mt323.dll
 0002:00001604       __imp_?addDockWindow@QMainWindow@@UAEXPAVQDockWindow@@W4Dock@Qt@@_N@Z 10028604     qt-mt323:qt-mt323.dll
 0002:00001608       __imp_?addDockWindow@QMainWindow@@UAEXPAVQDockWindow@@ABVQString@@W4Dock@Qt@@_N@Z 10028608     qt-mt323:qt-mt323.dll
 0002:0000160c       __imp_?setDockEnabled@QMainWindow@@UAEXW4Dock@Qt@@_N@Z 1002860c     qt-mt323:qt-mt323.dll
 0002:00001610       __imp_?setDockEnabled@QMainWindow@@UAEXPAVQDockWindow@@W4Dock@Qt@@_N@Z 10028610     qt-mt323:qt-mt323.dll
 0002:00001614       __imp_?setCentralWidget@QMainWindow@@UAEXPAVQWidget@@@Z 10028614     qt-mt323:qt-mt323.dll
 0002:00001618       __imp_?styleChange@QMainWindow@@MAEXAAVQStyle@@@Z 10028618     qt-mt323:qt-mt323.dll
 0002:0000161c       __imp_?paintEvent@QMainWindow@@MAEXPAVQPaintEvent@@@Z 1002861c     qt-mt323:qt-mt323.dll
 0002:00001620       __imp_?minimumSizeHint@QMainWindow@@UBE?AVQSize@@XZ 10028620     qt-mt323:qt-mt323.dll
 0002:00001624       __imp_?sizeHint@QMainWindow@@UBE?AVQSize@@XZ 10028624     qt-mt323:qt-mt323.dll
 0002:00001628       __imp_?hide@QMainWindow@@UAEXXZ 10028628     qt-mt323:qt-mt323.dll
 0002:0000162c       __imp_?show@QMainWindow@@UAEXXZ 1002862c     qt-mt323:qt-mt323.dll
 0002:00001630       __imp_?childEvent@QMainWindow@@MAEXPAVQChildEvent@@@Z 10028630     qt-mt323:qt-mt323.dll
 0002:00001634       __imp_?eventFilter@QMainWindow@@UAE_NPAVQObject@@PAVQEvent@@@Z 10028634     qt-mt323:qt-mt323.dll
 0002:00001638       __imp_?event@QMainWindow@@MAE_NPAVQEvent@@@Z 10028638     qt-mt323:qt-mt323.dll
 0002:0000163c       __imp_?qt_property@QMainWindow@@UAE_NHHPAVQVariant@@@Z 1002863c     qt-mt323:qt-mt323.dll
 0002:00001640       __imp_?qt_emit@QMainWindow@@UAE_NHPAUQUObject@@@Z 10028640     qt-mt323:qt-mt323.dll
 0002:00001644       __imp_?qt_invoke@QMainWindow@@UAE_NHPAUQUObject@@@Z 10028644     qt-mt323:qt-mt323.dll
 0002:00001648       __imp_?qt_cast@QMainWindow@@UAEPAXPBD@Z 10028648     qt-mt323:qt-mt323.dll
 0002:0000164c       __imp_?className@QMainWindow@@UBEPBDXZ 1002864c     qt-mt323:qt-mt323.dll
 0002:00001650       __imp_?metaObject@QMainWindow@@UBEPAVQMetaObject@@XZ 10028650     qt-mt323:qt-mt323.dll
 0002:00001654       __imp_?className@QDialog@@UBEPBDXZ 10028654     qt-mt323:qt-mt323.dll
 0002:00001658       __imp_?metaObject@QDialog@@UBEPAVQMetaObject@@XZ 10028658     qt-mt323:qt-mt323.dll
 0002:0000165c       __imp_?qt_property@QVBox@@UAE_NHHPAVQVariant@@@Z 1002865c     qt-mt323:qt-mt323.dll
 0002:00001660       __imp_?qt_emit@QVBox@@UAE_NHPAUQUObject@@@Z 10028660     qt-mt323:qt-mt323.dll
 0002:00001664       __imp_?qt_invoke@QVBox@@UAE_NHPAUQUObject@@@Z 10028664     qt-mt323:qt-mt323.dll
 0002:00001668       __imp_?qt_cast@QVBox@@UAEPAXPBD@Z 10028668     qt-mt323:qt-mt323.dll
 0002:0000166c       __imp_?className@QVBox@@UBEPBDXZ 1002866c     qt-mt323:qt-mt323.dll
 0002:00001670       __imp_?metaObject@QVBox@@UBEPAVQMetaObject@@XZ 10028670     qt-mt323:qt-mt323.dll
 0002:00001674       __imp_?className@QWidget@@UBEPBDXZ 10028674     qt-mt323:qt-mt323.dll
 0002:00001678       __imp_?metaObject@QWidget@@UBEPAVQMetaObject@@XZ 10028678     qt-mt323:qt-mt323.dll
 0002:0000167c       __imp_?moveFocus@QButtonGroup@@UAEXH@Z 1002867c     qt-mt323:qt-mt323.dll
 0002:00001680       __imp_?setButton@QButtonGroup@@UAEXH@Z 10028680     qt-mt323:qt-mt323.dll
 0002:00001684       __imp_?setRadioButtonExclusive@QButtonGroup@@UAEX_N@Z 10028684     qt-mt323:qt-mt323.dll
 0002:00001688       __imp_?setExclusive@QButtonGroup@@UAEX_N@Z 10028688     qt-mt323:qt-mt323.dll
 0002:0000168c       __imp_?event@QButtonGroup@@MAE_NPAVQEvent@@@Z 1002868c     qt-mt323:qt-mt323.dll
 0002:00001690       __imp_?qt_property@QButtonGroup@@UAE_NHHPAVQVariant@@@Z 10028690     qt-mt323:qt-mt323.dll
 0002:00001694       __imp_?qt_emit@QButtonGroup@@UAE_NHPAUQUObject@@@Z 10028694     qt-mt323:qt-mt323.dll
 0002:00001698       __imp_?qt_invoke@QButtonGroup@@UAE_NHPAUQUObject@@@Z 10028698     qt-mt323:qt-mt323.dll
 0002:0000169c       __imp_?qt_cast@QButtonGroup@@UAEPAXPBD@Z 1002869c     qt-mt323:qt-mt323.dll
 0002:000016a0       __imp_?className@QButtonGroup@@UBEPBDXZ 100286a0     qt-mt323:qt-mt323.dll
 0002:000016a4       __imp_?metaObject@QButtonGroup@@UBEPAVQMetaObject@@XZ 100286a4     qt-mt323:qt-mt323.dll
 0002:000016a8       __imp_?setIndicator@QProgressBar@@MAE_NAAVQString@@HH@Z 100286a8     qt-mt323:qt-mt323.dll
 0002:000016ac       __imp_?setProgress@QProgressBar@@UAEXH@Z 100286ac     qt-mt323:qt-mt323.dll
 0002:000016b0       __imp_?setTotalSteps@QProgressBar@@UAEXH@Z 100286b0     qt-mt323:qt-mt323.dll
 0002:000016b4       __imp_?drawContents@QProgressBar@@MAEXPAVQPainter@@@Z 100286b4     qt-mt323:qt-mt323.dll
 0002:000016b8       __imp_?styleChange@QProgressBar@@MAEXAAVQStyle@@@Z 100286b8     qt-mt323:qt-mt323.dll
 0002:000016bc       __imp_?minimumSizeHint@QProgressBar@@UBE?AVQSize@@XZ 100286bc     qt-mt323:qt-mt323.dll
 0002:000016c0       __imp_?sizeHint@QProgressBar@@UBE?AVQSize@@XZ 100286c0     qt-mt323:qt-mt323.dll
 0002:000016c4       __imp_?show@QProgressBar@@UAEXXZ 100286c4     qt-mt323:qt-mt323.dll
 0002:000016c8       __imp_?qt_property@QProgressBar@@UAE_NHHPAVQVariant@@@Z 100286c8     qt-mt323:qt-mt323.dll
 0002:000016cc       __imp_?qt_emit@QProgressBar@@UAE_NHPAUQUObject@@@Z 100286cc     qt-mt323:qt-mt323.dll
 0002:000016d0       __imp_?qt_invoke@QProgressBar@@UAE_NHPAUQUObject@@@Z 100286d0     qt-mt323:qt-mt323.dll
 0002:000016d4       __imp_?qt_cast@QProgressBar@@UAEPAXPBD@Z 100286d4     qt-mt323:qt-mt323.dll
 0002:000016d8       __imp_?className@QProgressBar@@UBEPBDXZ 100286d8     qt-mt323:qt-mt323.dll
 0002:000016dc       __imp_?metaObject@QProgressBar@@UBEPAVQMetaObject@@XZ 100286dc     qt-mt323:qt-mt323.dll
 0002:000016e0       __imp_?setNum@QLabel@@UAEXH@Z 100286e0     qt-mt323:qt-mt323.dll
 0002:000016e4       __imp_?setNum@QLabel@@UAEXN@Z 100286e4     qt-mt323:qt-mt323.dll
 0002:000016e8       __imp_?setMovie@QLabel@@UAEXABVQMovie@@@Z 100286e8     qt-mt323:qt-mt323.dll
 0002:000016ec       __imp_?setPicture@QLabel@@UAEXABVQPicture@@@Z 100286ec     qt-mt323:qt-mt323.dll
 0002:000016f0       __imp_?setPixmap@QLabel@@UAEXABVQPixmap@@@Z 100286f0     qt-mt323:qt-mt323.dll
 0002:000016f4       __imp_?setText@QLabel@@UAEXABVQString@@@Z 100286f4     qt-mt323:qt-mt323.dll
 0002:000016f8       __imp_?setBuddy@QLabel@@UAEXPAVQWidget@@@Z 100286f8     qt-mt323:qt-mt323.dll
 0002:000016fc       __imp_?setAutoResize@QLabel@@UAEX_N@Z 100286fc     qt-mt323:qt-mt323.dll
 0002:00001700       __imp_?setAlignment@QLabel@@UAEXH@Z 10028700     qt-mt323:qt-mt323.dll
 0002:00001704       __imp_?drawContents@QLabel@@MAEXPAVQPainter@@@Z 10028704     qt-mt323:qt-mt323.dll
 0002:00001708       __imp_?fontChange@QLabel@@MAEXABVQFont@@@Z 10028708     qt-mt323:qt-mt323.dll
 0002:0000170c       __imp_?resizeEvent@QLabel@@MAEXPAVQResizeEvent@@@Z 1002870c     qt-mt323:qt-mt323.dll
 0002:00001710       __imp_?heightForWidth@QLabel@@UBEHH@Z 10028710     qt-mt323:qt-mt323.dll
 0002:00001714       __imp_?minimumSizeHint@QLabel@@UBE?AVQSize@@XZ 10028714     qt-mt323:qt-mt323.dll
 0002:00001718       __imp_?sizeHint@QLabel@@UBE?AVQSize@@XZ 10028718     qt-mt323:qt-mt323.dll
 0002:0000171c       __imp_?setFont@QLabel@@UAEXABVQFont@@@Z 1002871c     qt-mt323:qt-mt323.dll
 0002:00001720       __imp_?qt_property@QLabel@@UAE_NHHPAVQVariant@@@Z 10028720     qt-mt323:qt-mt323.dll
 0002:00001724       __imp_?qt_emit@QLabel@@UAE_NHPAUQUObject@@@Z 10028724     qt-mt323:qt-mt323.dll
 0002:00001728       __imp_?qt_invoke@QLabel@@UAE_NHPAUQUObject@@@Z 10028728     qt-mt323:qt-mt323.dll
 0002:0000172c       __imp_?qt_cast@QLabel@@UAEPAXPBD@Z 1002872c     qt-mt323:qt-mt323.dll
 0002:00001730       __imp_?className@QLabel@@UBEPBDXZ 10028730     qt-mt323:qt-mt323.dll
 0002:00001734       __imp_?metaObject@QLabel@@UBEPAVQMetaObject@@XZ 10028734     qt-mt323:qt-mt323.dll
 0002:00001738       __imp_?outOfRange@QDateEdit@@MBE_NHHH@Z 10028738     qt-mt323:qt-mt323.dll
 0002:0000173c       __imp_?fix@QDateEdit@@MAEXXZ 1002873c     qt-mt323:qt-mt323.dll
 0002:00001740       __imp_?setDay@QDateEdit@@MAEXH@Z 10028740     qt-mt323:qt-mt323.dll
 0002:00001744       __imp_?setMonth@QDateEdit@@MAEXH@Z 10028744     qt-mt323:qt-mt323.dll
 0002:00001748       __imp_?setYear@QDateEdit@@MAEXH@Z 10028748     qt-mt323:qt-mt323.dll
 0002:0000174c       __imp_?setSeparator@QDateEdit@@UAEXABVQString@@@Z 1002874c     qt-mt323:qt-mt323.dll
 0002:00001750       __imp_?setRange@QDateEdit@@UAEXABVQDate@@0@Z 10028750     qt-mt323:qt-mt323.dll
 0002:00001754       __imp_?setMaxValue@QDateEdit@@UAEXABVQDate@@@Z 10028754     qt-mt323:qt-mt323.dll
 0002:00001758       __imp_?setMinValue@QDateEdit@@UAEXABVQDate@@@Z 10028758     qt-mt323:qt-mt323.dll
 0002:0000175c       __imp_?setAutoAdvance@QDateEdit@@UAEX_N@Z 1002875c     qt-mt323:qt-mt323.dll
 0002:00001760       __imp_?setOrder@QDateEdit@@UAEXW4Order@1@@Z 10028760     qt-mt323:qt-mt323.dll
 0002:00001764       __imp_?setDate@QDateEdit@@UAEXABVQDate@@@Z 10028764     qt-mt323:qt-mt323.dll
 0002:00001768       __imp_?stepDown@QDateEdit@@MAEXXZ 10028768     qt-mt323:qt-mt323.dll
 0002:0000176c       __imp_?stepUp@QDateEdit@@MAEXXZ 1002876c     qt-mt323:qt-mt323.dll
 0002:00001770       __imp_?removeLastNumber@QDateEdit@@MAEXH@Z 10028770     qt-mt323:qt-mt323.dll
 0002:00001774       __imp_?addNumber@QDateEdit@@MAEXHH@Z 10028774     qt-mt323:qt-mt323.dll
 0002:00001778       __imp_?sectionFormattedText@QDateEdit@@MAE?AVQString@@H@Z 10028778     qt-mt323:qt-mt323.dll
 0002:0000177c       __imp_?setFocusSection@QDateEdit@@MAE_NH@Z 1002877c     qt-mt323:qt-mt323.dll
 0002:00001780       __imp_?resizeEvent@QDateEdit@@MAEXPAVQResizeEvent@@@Z 10028780     qt-mt323:qt-mt323.dll
 0002:00001784       __imp_?minimumSizeHint@QDateEdit@@UBE?AVQSize@@XZ 10028784     qt-mt323:qt-mt323.dll
 0002:00001788       __imp_?sizeHint@QDateEdit@@UBE?AVQSize@@XZ 10028788     qt-mt323:qt-mt323.dll
 0002:0000178c       __imp_?timerEvent@QDateEdit@@MAEXPAVQTimerEvent@@@Z 1002878c     qt-mt323:qt-mt323.dll
 0002:00001790       __imp_?event@QDateEdit@@MAE_NPAVQEvent@@@Z 10028790     qt-mt323:qt-mt323.dll
 0002:00001794       __imp_?qt_property@QDateEdit@@UAE_NHHPAVQVariant@@@Z 10028794     qt-mt323:qt-mt323.dll
 0002:00001798       __imp_?qt_emit@QDateEdit@@UAE_NHPAUQUObject@@@Z 10028798     qt-mt323:qt-mt323.dll
 0002:0000179c       __imp_?qt_invoke@QDateEdit@@UAE_NHPAUQUObject@@@Z 1002879c     qt-mt323:qt-mt323.dll
 0002:000017a0       __imp_?qt_cast@QDateEdit@@UAEPAXPBD@Z 100287a0     qt-mt323:qt-mt323.dll
 0002:000017a4       __imp_?className@QDateEdit@@UBEPBDXZ 100287a4     qt-mt323:qt-mt323.dll
 0002:000017a8       __imp_?metaObject@QDateEdit@@UBEPAVQMetaObject@@XZ 100287a8     qt-mt323:qt-mt323.dll
 0002:000017ac       __imp_?qt_property@QFrame@@UAE_NHHPAVQVariant@@@Z 100287ac     qt-mt323:qt-mt323.dll
 0002:000017b0       __imp_?qt_emit@QFrame@@UAE_NHPAUQUObject@@@Z 100287b0     qt-mt323:qt-mt323.dll
 0002:000017b4       __imp_?qt_invoke@QFrame@@UAE_NHPAUQUObject@@@Z 100287b4     qt-mt323:qt-mt323.dll
 0002:000017b8       __imp_?qt_cast@QFrame@@UAEPAXPBD@Z 100287b8     qt-mt323:qt-mt323.dll
 0002:000017bc       __imp_?className@QFrame@@UBEPBDXZ 100287bc     qt-mt323:qt-mt323.dll
 0002:000017c0       __imp_?metaObject@QFrame@@UBEPAVQMetaObject@@XZ 100287c0     qt-mt323:qt-mt323.dll
 0002:000017c4       __imp_?removePage@QTabWidget@@UAEXPAVQWidget@@@Z 100287c4     qt-mt323:qt-mt323.dll
 0002:000017c8       __imp_?showPage@QTabWidget@@UAEXPAVQWidget@@@Z 100287c8     qt-mt323:qt-mt323.dll
 0002:000017cc       __imp_?insertTab@QTabWidget@@UAEXPAVQWidget@@ABVQString@@H@Z 100287cc     qt-mt323:qt-mt323.dll
 0002:000017d0       __imp_?insertTab@QTabWidget@@UAEXPAVQWidget@@ABVQIconSet@@ABVQString@@H@Z 100287d0     qt-mt323:qt-mt323.dll
 0002:000017d4       __imp_?insertTab@QTabWidget@@UAEXPAVQWidget@@PAVQTab@@H@Z 100287d4     qt-mt323:qt-mt323.dll
 0002:000017d8       __imp_?addTab@QTabWidget@@UAEXPAVQWidget@@ABVQString@@@Z 100287d8     qt-mt323:qt-mt323.dll
 0002:000017dc       __imp_?addTab@QTabWidget@@UAEXPAVQWidget@@ABVQIconSet@@ABVQString@@@Z 100287dc     qt-mt323:qt-mt323.dll
 0002:000017e0       __imp_?addTab@QTabWidget@@UAEXPAVQWidget@@PAVQTab@@@Z 100287e0     qt-mt323:qt-mt323.dll
 0002:000017e4       __imp_?styleChange@QTabWidget@@MAEXAAVQStyle@@@Z 100287e4     qt-mt323:qt-mt323.dll
 0002:000017e8       __imp_?updateMask@QTabWidget@@MAEXXZ 100287e8     qt-mt323:qt-mt323.dll
 0002:000017ec       __imp_?showEvent@QTabWidget@@MAEXPAVQShowEvent@@@Z 100287ec     qt-mt323:qt-mt323.dll
 0002:000017f0       __imp_?resizeEvent@QTabWidget@@MAEXPAVQResizeEvent@@@Z 100287f0     qt-mt323:qt-mt323.dll
 0002:000017f4       __imp_?minimumSizeHint@QTabWidget@@UBE?AVQSize@@XZ 100287f4     qt-mt323:qt-mt323.dll
 0002:000017f8       __imp_?sizeHint@QTabWidget@@UBE?AVQSize@@XZ 100287f8     qt-mt323:qt-mt323.dll
 0002:000017fc       __imp_?eventFilter@QTabWidget@@MAE_NPAVQObject@@PAVQEvent@@@Z 100287fc     qt-mt323:qt-mt323.dll
 0002:00001800       __imp_?qt_property@QTabWidget@@UAE_NHHPAVQVariant@@@Z 10028800     qt-mt323:qt-mt323.dll
 0002:00001804       __imp_?qt_emit@QTabWidget@@UAE_NHPAUQUObject@@@Z 10028804     qt-mt323:qt-mt323.dll
 0002:00001808       __imp_?qt_invoke@QTabWidget@@UAE_NHPAUQUObject@@@Z 10028808     qt-mt323:qt-mt323.dll
 0002:0000180c       __imp_?qt_cast@QTabWidget@@UAEPAXPBD@Z 1002880c     qt-mt323:qt-mt323.dll
 0002:00001810       __imp_?className@QTabWidget@@UBEPBDXZ 10028810     qt-mt323:qt-mt323.dll
 0002:00001814       __imp_?metaObject@QTabWidget@@UBEPAVQMetaObject@@XZ 10028814     qt-mt323:qt-mt323.dll
 0002:00001818       __imp_?setChildGeometries@QWidgetStack@@MAEXXZ 10028818     qt-mt323:qt-mt323.dll
 0002:0000181c       __imp_?frameChanged@QWidgetStack@@MAEXXZ 1002881c     qt-mt323:qt-mt323.dll
 0002:00001820       __imp_?setFrameRect@QWidgetStack@@UAEXABVQRect@@@Z 10028820     qt-mt323:qt-mt323.dll
 0002:00001824       __imp_?resizeEvent@QWidgetStack@@MAEXPAVQResizeEvent@@@Z 10028824     qt-mt323:qt-mt323.dll
 0002:00001828       __imp_?minimumSizeHint@QWidgetStack@@UBE?AVQSize@@XZ 10028828     qt-mt323:qt-mt323.dll
 0002:0000182c       __imp_?sizeHint@QWidgetStack@@UBE?AVQSize@@XZ 1002882c     qt-mt323:qt-mt323.dll
 0002:00001830       __imp_?show@QWidgetStack@@UAEXXZ 10028830     qt-mt323:qt-mt323.dll
 0002:00001834       __imp_?childEvent@QWidgetStack@@MAEXPAVQChildEvent@@@Z 10028834     qt-mt323:qt-mt323.dll
 0002:00001838       __imp_?qt_property@QWidgetStack@@UAE_NHHPAVQVariant@@@Z 10028838     qt-mt323:qt-mt323.dll
 0002:0000183c       __imp_?qt_emit@QWidgetStack@@UAE_NHPAUQUObject@@@Z 1002883c     qt-mt323:qt-mt323.dll
 0002:00001840       __imp_?qt_invoke@QWidgetStack@@UAE_NHPAUQUObject@@@Z 10028840     qt-mt323:qt-mt323.dll
 0002:00001844       __imp_?qt_cast@QWidgetStack@@UAEPAXPBD@Z 10028844     qt-mt323:qt-mt323.dll
 0002:00001848       __imp_?className@QWidgetStack@@UBEPBDXZ 10028848     qt-mt323:qt-mt323.dll
 0002:0000184c       __imp_?metaObject@QWidgetStack@@UBEPAVQMetaObject@@XZ 1002884c     qt-mt323:qt-mt323.dll
 0002:00001850       __imp_?createPopupMenu@QLineEdit@@MAEPAVQPopupMenu@@XZ 10028850     qt-mt323:qt-mt323.dll
 0002:00001854       __imp_?setDragEnabled@QLineEdit@@UAEX_N@Z 10028854     qt-mt323:qt-mt323.dll
 0002:00001858       __imp_?paste@QLineEdit@@UAEXXZ 10028858     qt-mt323:qt-mt323.dll
 0002:0000185c       __imp_?copy@QLineEdit@@UBEXXZ 1002885c     qt-mt323:qt-mt323.dll
 0002:00001860       __imp_?cut@QLineEdit@@UAEXXZ 10028860     qt-mt323:qt-mt323.dll
 0002:00001864       __imp_?setAlignment@QLineEdit@@UAEXH@Z 10028864     qt-mt323:qt-mt323.dll
 0002:00001868       __imp_?setCursorPosition@QLineEdit@@UAEXH@Z 10028868     qt-mt323:qt-mt323.dll
 0002:0000186c       __imp_?setSelection@QLineEdit@@UAEXHH@Z 1002886c     qt-mt323:qt-mt323.dll
 0002:00001870       __imp_?setValidator@QLineEdit@@UAEXPBVQValidator@@@Z 10028870     qt-mt323:qt-mt323.dll
 0002:00001874       __imp_?setReadOnly@QLineEdit@@UAEX_N@Z 10028874     qt-mt323:qt-mt323.dll
 0002:00001878       __imp_?setEchoMode@QLineEdit@@UAEXW4EchoMode@1@@Z 10028878     qt-mt323:qt-mt323.dll
 0002:0000187c       __imp_?setFrame@QLineEdit@@UAEX_N@Z 1002887c     qt-mt323:qt-mt323.dll
 0002:00001880       __imp_?setMaxLength@QLineEdit@@UAEXH@Z 10028880     qt-mt323:qt-mt323.dll
 0002:00001884       __imp_?redo@QLineEdit@@UAEXXZ 10028884     qt-mt323:qt-mt323.dll
 0002:00001888       __imp_?undo@QLineEdit@@UAEXXZ 10028888     qt-mt323:qt-mt323.dll
 0002:0000188c       __imp_?clear@QLineEdit@@UAEXXZ 1002888c     qt-mt323:qt-mt323.dll
 0002:00001890       __imp_?insert@QLineEdit@@UAEXABVQString@@@Z 10028890     qt-mt323:qt-mt323.dll
 0002:00001894       __imp_?clearValidator@QLineEdit@@UAEXXZ 10028894     qt-mt323:qt-mt323.dll
 0002:00001898       __imp_?deselect@QLineEdit@@UAEXXZ 10028898     qt-mt323:qt-mt323.dll
 0002:0000189c       __imp_?selectAll@QLineEdit@@UAEXXZ 1002889c     qt-mt323:qt-mt323.dll
 0002:000018a0       __imp_?setText@QLineEdit@@UAEXABVQString@@@Z 100288a0     qt-mt323:qt-mt323.dll
 0002:000018a4       __imp_?drawContents@QLineEdit@@MAEXPAVQPainter@@@Z 100288a4     qt-mt323:qt-mt323.dll
 0002:000018a8       __imp_?windowActivationChange@QLineEdit@@MAEX_N@Z 100288a8     qt-mt323:qt-mt323.dll
 0002:000018ac       __imp_?dropEvent@QLineEdit@@MAEXPAVQDropEvent@@@Z 100288ac     qt-mt323:qt-mt323.dll
 0002:000018b0       __imp_?dragLeaveEvent@QLineEdit@@MAEXPAVQDragLeaveEvent@@@Z 100288b0     qt-mt323:qt-mt323.dll
 0002:000018b4       __imp_?dragMoveEvent@QLineEdit@@MAEXPAVQDragMoveEvent@@@Z 100288b4     qt-mt323:qt-mt323.dll
 0002:000018b8       __imp_?dragEnterEvent@QLineEdit@@MAEXPAVQDragEnterEvent@@@Z 100288b8     qt-mt323:qt-mt323.dll
 0002:000018bc       __imp_?imEndEvent@QLineEdit@@MAEXPAVQIMEvent@@@Z 100288bc     qt-mt323:qt-mt323.dll
 0002:000018c0       __imp_?imComposeEvent@QLineEdit@@MAEXPAVQIMEvent@@@Z 100288c0     qt-mt323:qt-mt323.dll
 0002:000018c4       __imp_?imStartEvent@QLineEdit@@MAEXPAVQIMEvent@@@Z 100288c4     qt-mt323:qt-mt323.dll
 0002:000018c8       __imp_?contextMenuEvent@QLineEdit@@MAEXPAVQContextMenuEvent@@@Z 100288c8     qt-mt323:qt-mt323.dll
 0002:000018cc       __imp_?resizeEvent@QLineEdit@@MAEXPAVQResizeEvent@@@Z 100288cc     qt-mt323:qt-mt323.dll
 0002:000018d0       __imp_?focusOutEvent@QLineEdit@@MAEXPAVQFocusEvent@@@Z 100288d0     qt-mt323:qt-mt323.dll
 0002:000018d4       __imp_?focusInEvent@QLineEdit@@MAEXPAVQFocusEvent@@@Z 100288d4     qt-mt323:qt-mt323.dll
 0002:000018d8       __imp_?keyPressEvent@QLineEdit@@MAEXPAVQKeyEvent@@@Z 100288d8     qt-mt323:qt-mt323.dll
 0002:000018dc       __imp_?mouseMoveEvent@QLineEdit@@MAEXPAVQMouseEvent@@@Z 100288dc     qt-mt323:qt-mt323.dll
 0002:000018e0       __imp_?mouseDoubleClickEvent@QLineEdit@@MAEXPAVQMouseEvent@@@Z 100288e0     qt-mt323:qt-mt323.dll
 0002:000018e4       __imp_?mouseReleaseEvent@QLineEdit@@MAEXPAVQMouseEvent@@@Z 100288e4     qt-mt323:qt-mt323.dll
 0002:000018e8       __imp_?mousePressEvent@QLineEdit@@MAEXPAVQMouseEvent@@@Z 100288e8     qt-mt323:qt-mt323.dll
 0002:000018ec       __imp_?minimumSizeHint@QLineEdit@@UBE?AVQSize@@XZ 100288ec     qt-mt323:qt-mt323.dll
 0002:000018f0       __imp_?sizeHint@QLineEdit@@UBE?AVQSize@@XZ 100288f0     qt-mt323:qt-mt323.dll
 0002:000018f4       __imp_?setFont@QLineEdit@@UAEXABVQFont@@@Z 100288f4     qt-mt323:qt-mt323.dll
 0002:000018f8       __imp_?setPalette@QLineEdit@@UAEXABVQPalette@@@Z 100288f8     qt-mt323:qt-mt323.dll
 0002:000018fc       __imp_?event@QLineEdit@@MAE_NPAVQEvent@@@Z 100288fc     qt-mt323:qt-mt323.dll
 0002:00001900       __imp_?qt_property@QLineEdit@@UAE_NHHPAVQVariant@@@Z 10028900     qt-mt323:qt-mt323.dll
 0002:00001904       __imp_?qt_emit@QLineEdit@@UAE_NHPAUQUObject@@@Z 10028904     qt-mt323:qt-mt323.dll
 0002:00001908       __imp_?qt_invoke@QLineEdit@@UAE_NHPAUQUObject@@@Z 10028908     qt-mt323:qt-mt323.dll
 0002:0000190c       __imp_?qt_cast@QLineEdit@@UAEPAXPBD@Z 1002890c     qt-mt323:qt-mt323.dll
 0002:00001910       __imp_?className@QLineEdit@@UBEPBDXZ 10028910     qt-mt323:qt-mt323.dll
 0002:00001914       __imp_?metaObject@QLineEdit@@UBEPAVQMetaObject@@XZ 10028914     qt-mt323:qt-mt323.dll
 0002:00001918       __imp_?reload@QTextBrowser@@UAEXXZ 10028918     qt-mt323:qt-mt323.dll
 0002:0000191c       __imp_?home@QTextBrowser@@UAEXXZ 1002891c     qt-mt323:qt-mt323.dll
 0002:00001920       __imp_?forward@QTextBrowser@@UAEXXZ 10028920     qt-mt323:qt-mt323.dll
 0002:00001924       __imp_?backward@QTextBrowser@@UAEXXZ 10028924     qt-mt323:qt-mt323.dll
 0002:00001928       __imp_?setSource@QTextBrowser@@UAEXABVQString@@@Z 10028928     qt-mt323:qt-mt323.dll
 0002:0000192c       __imp_?emitLinkClicked@QTextBrowser@@EAEXABVQString@@@Z 1002892c     qt-mt323:qt-mt323.dll
 0002:00001930       __imp_?emitHighlighted@QTextBrowser@@EAEXABVQString@@@Z 10028930     qt-mt323:qt-mt323.dll
 0002:00001934       __imp_?linksEnabled@QTextBrowser@@EBE_NXZ 10028934     qt-mt323:qt-mt323.dll
 0002:00001938       __imp_?setText@QTextBrowser@@UAEXABVQString@@0@Z 10028938     qt-mt323:qt-mt323.dll
 0002:0000193c       __imp_?keyPressEvent@QTextBrowser@@MAEXPAVQKeyEvent@@@Z 1002893c     qt-mt323:qt-mt323.dll
 0002:00001940       __imp_?qt_property@QTextBrowser@@UAE_NHHPAVQVariant@@@Z 10028940     qt-mt323:qt-mt323.dll
 0002:00001944       __imp_?qt_emit@QTextBrowser@@UAE_NHPAUQUObject@@@Z 10028944     qt-mt323:qt-mt323.dll
 0002:00001948       __imp_?qt_invoke@QTextBrowser@@UAE_NHPAUQUObject@@@Z 10028948     qt-mt323:qt-mt323.dll
 0002:0000194c       __imp_?qt_cast@QTextBrowser@@UAEPAXPBD@Z 1002894c     qt-mt323:qt-mt323.dll
 0002:00001950       __imp_?className@QTextBrowser@@UBEPBDXZ 10028950     qt-mt323:qt-mt323.dll
 0002:00001954       __imp_?metaObject@QTextBrowser@@UBEPAVQMetaObject@@XZ 10028954     qt-mt323:qt-mt323.dll
 0002:00001958       __imp_?fieldAlignment@QDataTable@@MAEHPBVQSqlField@@@Z 10028958     qt-mt323:qt-mt323.dll
 0002:0000195c       __imp_?paintField@QDataTable@@MAEXPAVQPainter@@PBVQSqlField@@ABVQRect@@_N@Z 1002895c     qt-mt323:qt-mt323.dll
 0002:00001960       __imp_?beginUpdate@QDataTable@@MAEPAVQWidget@@HH_N@Z 10028960     qt-mt323:qt-mt323.dll
 0002:00001964       __imp_?beginInsert@QDataTable@@MAE_NXZ 10028964     qt-mt323:qt-mt323.dll
 0002:00001968       __imp_?handleError@QDataTable@@MAEXABVQSqlError@@@Z 10028968     qt-mt323:qt-mt323.dll
 0002:0000196c       __imp_?confirmCancel@QDataTable@@MAE?AW4Confirm@QSql@@W4Op@3@@Z 1002896c     qt-mt323:qt-mt323.dll
 0002:00001970       __imp_?confirmEdit@QDataTable@@MAE?AW4Confirm@QSql@@W4Op@3@@Z 10028970     qt-mt323:qt-mt323.dll
 0002:00001974       __imp_?deleteCurrent@QDataTable@@MAE_NXZ 10028974     qt-mt323:qt-mt323.dll
 0002:00001978       __imp_?updateCurrent@QDataTable@@MAE_NXZ 10028978     qt-mt323:qt-mt323.dll
 0002:0000197c       __imp_?insertCurrent@QDataTable@@MAE_NXZ 1002897c     qt-mt323:qt-mt323.dll
 0002:00001980       __imp_?sortDescending@QDataTable@@UAEXH@Z 10028980     qt-mt323:qt-mt323.dll
 0002:00001984       __imp_?sortAscending@QDataTable@@UAEXH@Z 10028984     qt-mt323:qt-mt323.dll
 0002:00001988       __imp_?find@QDataTable@@UAEXABVQString@@_N1@Z 10028988     qt-mt323:qt-mt323.dll
 0002:0000198c       __imp_?refresh@QDataTable@@UAEXXZ 1002898c     qt-mt323:qt-mt323.dll
 0002:00001990       __imp_?setSort@QDataTable@@UAEXABVQStringList@@@Z 10028990     qt-mt323:qt-mt323.dll
 0002:00001994       __imp_?setSort@QDataTable@@UAEXABVQSqlIndex@@@Z 10028994     qt-mt323:qt-mt323.dll
 0002:00001998       __imp_?setFilter@QDataTable@@UAEXABVQString@@@Z 10028998     qt-mt323:qt-mt323.dll
 0002:0000199c       __imp_?setAutoEdit@QDataTable@@UAEX_N@Z 1002899c     qt-mt323:qt-mt323.dll
 0002:000019a0       __imp_?setAutoDelete@QDataTable@@UAEX_N@Z 100289a0     qt-mt323:qt-mt323.dll
 0002:000019a4       __imp_?setConfirmCancels@QDataTable@@UAEX_N@Z 100289a4     qt-mt323:qt-mt323.dll
 0002:000019a8       __imp_?setConfirmDelete@QDataTable@@UAEX_N@Z 100289a8     qt-mt323:qt-mt323.dll
 0002:000019ac       __imp_?setConfirmUpdate@QDataTable@@UAEX_N@Z 100289ac     qt-mt323:qt-mt323.dll
 0002:000019b0       __imp_?setConfirmInsert@QDataTable@@UAEX_N@Z 100289b0     qt-mt323:qt-mt323.dll
 0002:000019b4       __imp_?setConfirmEdits@QDataTable@@UAEX_N@Z 100289b4     qt-mt323:qt-mt323.dll
 0002:000019b8       __imp_?setDateFormat@QDataTable@@UAEXW4DateFormat@Qt@@@Z 100289b8     qt-mt323:qt-mt323.dll
 0002:000019bc       __imp_?setFalseText@QDataTable@@UAEXABVQString@@@Z 100289bc     qt-mt323:qt-mt323.dll
 0002:000019c0       __imp_?setTrueText@QDataTable@@UAEXABVQString@@@Z 100289c0     qt-mt323:qt-mt323.dll
 0002:000019c4       __imp_?setNullText@QDataTable@@UAEXABVQString@@@Z 100289c4     qt-mt323:qt-mt323.dll
 0002:000019c8       __imp_?setSqlCursor@QDataTable@@UAEXPAVQSqlCursor@@_N1@Z 100289c8     qt-mt323:qt-mt323.dll
 0002:000019cc       __imp_?setColumn@QDataTable@@UAEXIABVQString@@0HABVQIconSet@@@Z 100289cc     qt-mt323:qt-mt323.dll
 0002:000019d0       __imp_?removeColumn@QDataTable@@UAEXI@Z 100289d0     qt-mt323:qt-mt323.dll
 0002:000019d4       __imp_?addColumn@QDataTable@@UAEXABVQString@@0HABVQIconSet@@@Z 100289d4     qt-mt323:qt-mt323.dll
 0002:000019d8       __imp_?columnClicked@QDataTable@@MAEXH@Z 100289d8     qt-mt323:qt-mt323.dll
 0002:000019dc       __imp_?rowIndexChanged@QTable@@MAEXHHH@Z 100289dc     qt-mt323:qt-mt323.dll
 0002:000019e0       __imp_?columnIndexChanged@QTable@@MAEXHHH@Z 100289e0     qt-mt323:qt-mt323.dll
 0002:000019e4       __imp_?rowHeightChanged@QTable@@MAEXH@Z 100289e4     qt-mt323:qt-mt323.dll
 0002:000019e8       __imp_?columnWidthChanged@QTable@@MAEXH@Z 100289e8     qt-mt323:qt-mt323.dll
 0002:000019ec       __imp_?insertWidget@QTable@@MAEXHHPAVQWidget@@@Z 100289ec     qt-mt323:qt-mt323.dll
 0002:000019f0       __imp_?resizeData@QDataTable@@MAEXH@Z 100289f0     qt-mt323:qt-mt323.dll
 0002:000019f4       __imp_?endEdit@QDataTable@@MAEXHH_N0@Z 100289f4     qt-mt323:qt-mt323.dll
 0002:000019f8       __imp_?beginEdit@QDataTable@@EAEPAVQWidget@@HH_N@Z 100289f8     qt-mt323:qt-mt323.dll
 0002:000019fc       __imp_?setCellContentFromEditor@QTable@@MAEXHH@Z 100289fc     qt-mt323:qt-mt323.dll
 0002:00001a00       __imp_?createEditor@QDataTable@@MBEPAVQWidget@@HH_N@Z 10028a00     qt-mt323:qt-mt323.dll
 0002:00001a04       __imp_?activateNextCell@QDataTable@@MAEXXZ 10028a04     qt-mt323:qt-mt323.dll
 0002:00001a08       __imp_?paintEmptyArea@QTable@@MAEXPAVQPainter@@HHHH@Z 10028a08     qt-mt323:qt-mt323.dll
 0002:00001a0c       __imp_?startDrag@QTable@@MAEXXZ 10028a0c     qt-mt323:qt-mt323.dll
 0002:00001a10       __imp_?dragObject@QTable@@MAEPAVQDragObject@@XZ 10028a10     qt-mt323:qt-mt323.dll
 0002:00001a14       __imp_?editCell@QTable@@UAEXHH_N@Z 10028a14     qt-mt323:qt-mt323.dll
 0002:00001a18       __imp_?removeColumns@QTable@@UAEXABV?$QMemArray@H@@@Z 10028a18     qt-mt323:qt-mt323.dll
 0002:00001a1c       __imp_?removeColumn@QTable@@UAEXH@Z 10028a1c     qt-mt323:qt-mt323.dll
 0002:00001a20       __imp_?removeRows@QTable@@UAEXABV?$QMemArray@H@@@Z 10028a20     qt-mt323:qt-mt323.dll
 0002:00001a24       __imp_?removeRow@QTable@@UAEXH@Z 10028a24     qt-mt323:qt-mt323.dll
 0002:00001a28       __imp_?insertColumns@QTable@@UAEXHH@Z 10028a28     qt-mt323:qt-mt323.dll
 0002:00001a2c       __imp_?insertRows@QTable@@UAEXHH@Z 10028a2c     qt-mt323:qt-mt323.dll
 0002:00001a30       __imp_?setDragEnabled@QTable@@UAEX_N@Z 10028a30     qt-mt323:qt-mt323.dll
 0002:00001a34       __imp_?setColumnReadOnly@QTable@@UAEXH_N@Z 10028a34     qt-mt323:qt-mt323.dll
 0002:00001a38       __imp_?setRowReadOnly@QTable@@UAEXH_N@Z 10028a38     qt-mt323:qt-mt323.dll
 0002:00001a3c       __imp_?setReadOnly@QTable@@UAEX_N@Z 10028a3c     qt-mt323:qt-mt323.dll
 0002:00001a40       __imp_?setRowMovingEnabled@QTable@@UAEX_N@Z 10028a40     qt-mt323:qt-mt323.dll
 0002:00001a44       __imp_?setColumnMovingEnabled@QTable@@UAEX_N@Z 10028a44     qt-mt323:qt-mt323.dll
 0002:00001a48       __imp_?setCurrentCell@QTable@@UAEXHH@Z 10028a48     qt-mt323:qt-mt323.dll
 0002:00001a4c       __imp_?setTopMargin@QTable@@UAEXH@Z 10028a4c     qt-mt323:qt-mt323.dll
 0002:00001a50       __imp_?setLeftMargin@QTable@@UAEXH@Z 10028a50     qt-mt323:qt-mt323.dll
 0002:00001a54       __imp_?swapCells@QTable@@UAEXHHHH@Z 10028a54     qt-mt323:qt-mt323.dll
 0002:00001a58       __imp_?swapColumns@QDataTable@@UAEXHH_N@Z 10028a58     qt-mt323:qt-mt323.dll
 0002:00001a5c       __imp_?swapRows@QTable@@UAEXHH_N@Z 10028a5c     qt-mt323:qt-mt323.dll
 0002:00001a60       __imp_?setSorting@QTable@@UAEX_N@Z 10028a60     qt-mt323:qt-mt323.dll
 0002:00001a64       __imp_?setRowStretchable@QTable@@UAEXH_N@Z 10028a64     qt-mt323:qt-mt323.dll
 0002:00001a68       __imp_?setColumnStretchable@QDataTable@@UAEXH_N@Z 10028a68     qt-mt323:qt-mt323.dll
 0002:00001a6c       __imp_?adjustRow@QTable@@UAEXH@Z 10028a6c     qt-mt323:qt-mt323.dll
 0002:00001a70       __imp_?adjustColumn@QDataTable@@UAEXH@Z 10028a70     qt-mt323:qt-mt323.dll
 0002:00001a74       __imp_?setRowHeight@QTable@@UAEXHH@Z 10028a74     qt-mt323:qt-mt323.dll
 0002:00001a78       __imp_?setColumnWidth@QDataTable@@UAEXHH@Z 10028a78     qt-mt323:qt-mt323.dll
 0002:00001a7c       __imp_?showColumn@QDataTable@@UAEXH@Z 10028a7c     qt-mt323:qt-mt323.dll
 0002:00001a80       __imp_?showRow@QTable@@UAEXH@Z 10028a80     qt-mt323:qt-mt323.dll
 0002:00001a84       __imp_?hideColumn@QDataTable@@UAEXH@Z 10028a84     qt-mt323:qt-mt323.dll
 0002:00001a88       __imp_?hideRow@QTable@@UAEXH@Z 10028a88     qt-mt323:qt-mt323.dll
 0002:00001a8c       __imp_?setShowGrid@QTable@@UAEX_N@Z 10028a8c     qt-mt323:qt-mt323.dll
 0002:00001a90       __imp_?setNumCols@QDataTable@@UAEXH@Z 10028a90     qt-mt323:qt-mt323.dll
 0002:00001a94       __imp_?setNumRows@QDataTable@@UAEXH@Z 10028a94     qt-mt323:qt-mt323.dll
 0002:00001a98       __imp_?setFocusStyle@QTable@@UAEXW4FocusStyle@1@@Z 10028a98     qt-mt323:qt-mt323.dll
 0002:00001a9c       __imp_?paintFocus@QTable@@UAEXPAVQPainter@@ABVQRect@@@Z 10028a9c     qt-mt323:qt-mt323.dll
 0002:00001aa0       __imp_?paintCell@QTable@@UAEXPAVQPainter@@HHABVQRect@@_N@Z 10028aa0     qt-mt323:qt-mt323.dll
 0002:00001aa4       __imp_?paintCell@QDataTable@@MAEXPAVQPainter@@HHABVQRect@@_NABVQColorGroup@@@Z 10028aa4     qt-mt323:qt-mt323.dll
 0002:00001aa8       __imp_?cellRect@QTable@@UBE?AVQRect@@HH@Z 10028aa8     qt-mt323:qt-mt323.dll
 0002:00001aac       __imp_?clearCellWidget@QTable@@UAEXHH@Z 10028aac     qt-mt323:qt-mt323.dll
 0002:00001ab0       __imp_?cellWidget@QTable@@UBEPAVQWidget@@HH@Z 10028ab0     qt-mt323:qt-mt323.dll
 0002:00001ab4       __imp_?setCellWidget@QTable@@UAEXHHPAVQWidget@@@Z 10028ab4     qt-mt323:qt-mt323.dll
 0002:00001ab8       __imp_?takeItem@QDataTable@@MAEXPAVQTableItem@@@Z 10028ab8     qt-mt323:qt-mt323.dll
 0002:00001abc       __imp_?sortColumn@QDataTable@@UAEXH_N0@Z 10028abc     qt-mt323:qt-mt323.dll
 0002:00001ac0       __imp_?currentSelection@QTable@@UBEHXZ 10028ac0     qt-mt323:qt-mt323.dll
 0002:00001ac4       __imp_?removeSelection@QTable@@UAEXABVQTableSelection@@@Z 10028ac4     qt-mt323:qt-mt323.dll
 0002:00001ac8       __imp_?removeSelection@QTable@@UAEXH@Z 10028ac8     qt-mt323:qt-mt323.dll
 0002:00001acc       __imp_?addSelection@QTable@@UAEHABVQTableSelection@@@Z 10028acc     qt-mt323:qt-mt323.dll
 0002:00001ad0       __imp_?numCols@QDataTable@@UBEHXZ 10028ad0     qt-mt323:qt-mt323.dll
 0002:00001ad4       __imp_?numRows@QDataTable@@UBEHXZ 10028ad4     qt-mt323:qt-mt323.dll
 0002:00001ad8       __imp_?rowAt@QTable@@UBEHH@Z 10028ad8     qt-mt323:qt-mt323.dll
 0002:00001adc       __imp_?columnAt@QTable@@UBEHH@Z 10028adc     qt-mt323:qt-mt323.dll
 0002:00001ae0       __imp_?rowPos@QTable@@UBEHH@Z 10028ae0     qt-mt323:qt-mt323.dll
 0002:00001ae4       __imp_?columnPos@QTable@@UBEHH@Z 10028ae4     qt-mt323:qt-mt323.dll
 0002:00001ae8       __imp_?rowHeight@QTable@@UBEHH@Z 10028ae8     qt-mt323:qt-mt323.dll
 0002:00001aec       __imp_?columnWidth@QTable@@UBEHH@Z 10028aec     qt-mt323:qt-mt323.dll
 0002:00001af0       __imp_?cellGeometry@QTable@@UBE?AVQRect@@HH@Z 10028af0     qt-mt323:qt-mt323.dll
 0002:00001af4       __imp_?clearCell@QDataTable@@MAEXHH@Z 10028af4     qt-mt323:qt-mt323.dll
 0002:00001af8       __imp_?pixmap@QTable@@UBE?AVQPixmap@@HH@Z 10028af8     qt-mt323:qt-mt323.dll
 0002:00001afc       __imp_?text@QDataTable@@UBE?AVQString@@HH@Z 10028afc     qt-mt323:qt-mt323.dll
 0002:00001b00       __imp_?item@QDataTable@@MBEPAVQTableItem@@HH@Z 10028b00     qt-mt323:qt-mt323.dll
 0002:00001b04       __imp_?setPixmap@QDataTable@@MAEXHHABVQPixmap@@@Z 10028b04     qt-mt323:qt-mt323.dll
 0002:00001b08       __imp_?setText@QTable@@UAEXHHABVQString@@@Z 10028b08     qt-mt323:qt-mt323.dll
 0002:00001b0c       __imp_?setItem@QDataTable@@MAEXHHPAVQTableItem@@@Z 10028b0c     qt-mt323:qt-mt323.dll
 0002:00001b10       __imp_?setSelectionMode@QTable@@UAEXW4SelectionMode@1@@Z 10028b10     qt-mt323:qt-mt323.dll
 0002:00001b14       __imp_?viewportResizeEvent@QTable@@MAEXPAVQResizeEvent@@@Z 10028b14     qt-mt323:qt-mt323.dll
 0002:00001b18       __imp_?contentsContextMenuEvent@QDataTable@@MAEXPAVQContextMenuEvent@@@Z 10028b18     qt-mt323:qt-mt323.dll
 0002:00001b1c       __imp_?contentsDropEvent@QTable@@MAEXPAVQDropEvent@@@Z 10028b1c     qt-mt323:qt-mt323.dll
 0002:00001b20       __imp_?contentsDragLeaveEvent@QTable@@MAEXPAVQDragLeaveEvent@@@Z 10028b20     qt-mt323:qt-mt323.dll
 0002:00001b24       __imp_?contentsDragMoveEvent@QTable@@MAEXPAVQDragMoveEvent@@@Z 10028b24     qt-mt323:qt-mt323.dll
 0002:00001b28       __imp_?contentsDragEnterEvent@QTable@@MAEXPAVQDragEnterEvent@@@Z 10028b28     qt-mt323:qt-mt323.dll
 0002:00001b2c       __imp_?contentsMouseMoveEvent@QTable@@MAEXPAVQMouseEvent@@@Z 10028b2c     qt-mt323:qt-mt323.dll
 0002:00001b30       __imp_?contentsMouseDoubleClickEvent@QTable@@MAEXPAVQMouseEvent@@@Z 10028b30     qt-mt323:qt-mt323.dll
 0002:00001b34       __imp_?contentsMouseReleaseEvent@QTable@@MAEXPAVQMouseEvent@@@Z 10028b34     qt-mt323:qt-mt323.dll
 0002:00001b38       __imp_?contentsMousePressEvent@QDataTable@@MAEXPAVQMouseEvent@@@Z 10028b38     qt-mt323:qt-mt323.dll
 0002:00001b3c       __imp_?drawContents@QDataTable@@MAEXPAVQPainter@@HHHH@Z 10028b3c     qt-mt323:qt-mt323.dll
 0002:00001b40       __imp_?drawContents@QTable@@EAEXPAVQPainter@@@Z 10028b40     qt-mt323:qt-mt323.dll
 0002:00001b44       __imp_?windowActivationChange@QTable@@MAEX_N@Z 10028b44     qt-mt323:qt-mt323.dll
 0002:00001b48       __imp_?showEvent@QTable@@MAEXPAVQShowEvent@@@Z 10028b48     qt-mt323:qt-mt323.dll
 0002:00001b4c       __imp_?resizeEvent@QDataTable@@MAEXPAVQResizeEvent@@@Z 10028b4c     qt-mt323:qt-mt323.dll
 0002:00001b50       __imp_?paintEvent@QTable@@MAEXPAVQPaintEvent@@@Z 10028b50     qt-mt323:qt-mt323.dll
 0002:00001b54       __imp_?focusOutEvent@QTable@@MAEXPAVQFocusEvent@@@Z 10028b54     qt-mt323:qt-mt323.dll
 0002:00001b58       __imp_?focusInEvent@QTable@@MAEXPAVQFocusEvent@@@Z 10028b58     qt-mt323:qt-mt323.dll
 0002:00001b5c       __imp_?keyPressEvent@QDataTable@@MAEXPAVQKeyEvent@@@Z 10028b5c     qt-mt323:qt-mt323.dll
 0002:00001b60       __imp_?sizeHint@QTable@@UBE?AVQSize@@XZ 10028b60     qt-mt323:qt-mt323.dll
 0002:00001b64       __imp_?setEnabled@QTable@@UAEX_N@Z 10028b64     qt-mt323:qt-mt323.dll
 0002:00001b68       __imp_?eventFilter@QDataTable@@MAE_NPAVQObject@@PAVQEvent@@@Z 10028b68     qt-mt323:qt-mt323.dll
 0002:00001b6c       __imp_?qt_property@QDataTable@@UAE_NHHPAVQVariant@@@Z 10028b6c     qt-mt323:qt-mt323.dll
 0002:00001b70       __imp_?qt_emit@QDataTable@@UAE_NHPAUQUObject@@@Z 10028b70     qt-mt323:qt-mt323.dll
 0002:00001b74       __imp_?qt_invoke@QDataTable@@UAE_NHPAUQUObject@@@Z 10028b74     qt-mt323:qt-mt323.dll
 0002:00001b78       __imp_?qt_cast@QDataTable@@UAEPAXPBD@Z 10028b78     qt-mt323:qt-mt323.dll
 0002:00001b7c       __imp_?className@QDataTable@@UBEPBDXZ 10028b7c     qt-mt323:qt-mt323.dll
 0002:00001b80       __imp_?metaObject@QDataTable@@UBEPAVQMetaObject@@XZ 10028b80     qt-mt323:qt-mt323.dll
 0002:00001b84       __imp_?paintCell@QListBox@@MAEXPAVQPainter@@HH@Z 10028b84     qt-mt323:qt-mt323.dll
 0002:00001b88       __imp_?invertSelection@QListBox@@UAEXXZ 10028b88     qt-mt323:qt-mt323.dll
 0002:00001b8c       __imp_?selectAll@QListBox@@UAEX_N@Z 10028b8c     qt-mt323:qt-mt323.dll
 0002:00001b90       __imp_?clearSelection@QListBox@@UAEXXZ 10028b90     qt-mt323:qt-mt323.dll
 0002:00001b94       __imp_?ensureCurrentVisible@QListBox@@UAEXXZ 10028b94     qt-mt323:qt-mt323.dll
 0002:00001b98       __imp_?setVariableHeight@QListBox@@UAEX_N@Z 10028b98     qt-mt323:qt-mt323.dll
 0002:00001b9c       __imp_?setVariableWidth@QListBox@@UAEX_N@Z 10028b9c     qt-mt323:qt-mt323.dll
 0002:00001ba0       __imp_?setRowMode@QListBox@@UAEXW4LayoutMode@1@@Z 10028ba0     qt-mt323:qt-mt323.dll
 0002:00001ba4       __imp_?setRowMode@QListBox@@UAEXH@Z 10028ba4     qt-mt323:qt-mt323.dll
 0002:00001ba8       __imp_?setColumnMode@QListBox@@UAEXW4LayoutMode@1@@Z 10028ba8     qt-mt323:qt-mt323.dll
 0002:00001bac       __imp_?setColumnMode@QListBox@@UAEXH@Z 10028bac     qt-mt323:qt-mt323.dll
 0002:00001bb0       __imp_?setSelected@QListBox@@UAEXPAVQListBoxItem@@_N@Z 10028bb0     qt-mt323:qt-mt323.dll
 0002:00001bb4       __imp_?setSelectionMode@QListBox@@UAEXW4SelectionMode@1@@Z 10028bb4     qt-mt323:qt-mt323.dll
 0002:00001bb8       __imp_?setBottomItem@QListBox@@UAEXH@Z 10028bb8     qt-mt323:qt-mt323.dll
 0002:00001bbc       __imp_?setTopItem@QListBox@@UAEXH@Z 10028bbc     qt-mt323:qt-mt323.dll
 0002:00001bc0       __imp_?setCurrentItem@QListBox@@UAEXH@Z 10028bc0     qt-mt323:qt-mt323.dll
 0002:00001bc4       __imp_?setCurrentItem@QListBox@@UAEXPAVQListBoxItem@@@Z 10028bc4     qt-mt323:qt-mt323.dll
 0002:00001bc8       __imp_?viewportResizeEvent@QScrollView@@MAEXPAVQResizeEvent@@@Z 10028bc8     qt-mt323:qt-mt323.dll
 0002:00001bcc       __imp_?viewportPaintEvent@QListBox@@UAEXPAVQPaintEvent@@@Z 10028bcc     qt-mt323:qt-mt323.dll
 0002:00001bd0       __imp_?contentsContextMenuEvent@QListBox@@MAEXPAVQContextMenuEvent@@@Z 10028bd0     qt-mt323:qt-mt323.dll
 0002:00001bd4       __imp_?contentsWheelEvent@QScrollView@@MAEXPAVQWheelEvent@@@Z 10028bd4     qt-mt323:qt-mt323.dll
 0002:00001bd8       __imp_?contentsDropEvent@QScrollView@@MAEXPAVQDropEvent@@@Z 10028bd8     qt-mt323:qt-mt323.dll
 0002:00001bdc       __imp_?contentsDragLeaveEvent@QScrollView@@MAEXPAVQDragLeaveEvent@@@Z 10028bdc     qt-mt323:qt-mt323.dll
 0002:00001be0       __imp_?contentsDragMoveEvent@QScrollView@@MAEXPAVQDragMoveEvent@@@Z 10028be0     qt-mt323:qt-mt323.dll
 0002:00001be4       __imp_?contentsDragEnterEvent@QScrollView@@MAEXPAVQDragEnterEvent@@@Z 10028be4     qt-mt323:qt-mt323.dll
 0002:00001be8       __imp_?contentsMouseMoveEvent@QScrollView@@MAEXPAVQMouseEvent@@@Z 10028be8     qt-mt323:qt-mt323.dll
 0002:00001bec       __imp_?contentsMouseDoubleClickEvent@QScrollView@@MAEXPAVQMouseEvent@@@Z 10028bec     qt-mt323:qt-mt323.dll
 0002:00001bf0       __imp_?contentsMouseReleaseEvent@QScrollView@@MAEXPAVQMouseEvent@@@Z 10028bf0     qt-mt323:qt-mt323.dll
 0002:00001bf4       __imp_?contentsMousePressEvent@QScrollView@@MAEXPAVQMouseEvent@@@Z 10028bf4     qt-mt323:qt-mt323.dll
 0002:00001bf8       __imp_?drawContents@QScrollView@@MAEXPAVQPainter@@HHHH@Z 10028bf8     qt-mt323:qt-mt323.dll
 0002:00001bfc       __imp_?drawContents@QScrollView@@EAEXPAVQPainter@@@Z 10028bfc     qt-mt323:qt-mt323.dll
 0002:00001c00       __imp_?focusNextPrevChild@QScrollView@@MAE_N_N@Z 10028c00     qt-mt323:qt-mt323.dll
 0002:00001c04       __imp_?windowActivationChange@QListBox@@MAEX_N@Z 10028c04     qt-mt323:qt-mt323.dll
 0002:00001c08       __imp_?showEvent@QListBox@@MAEXPAVQShowEvent@@@Z 10028c08     qt-mt323:qt-mt323.dll
 0002:00001c0c       __imp_?resizeEvent@QListBox@@MAEXPAVQResizeEvent@@@Z 10028c0c     qt-mt323:qt-mt323.dll
 0002:00001c10       __imp_?focusOutEvent@QListBox@@MAEXPAVQFocusEvent@@@Z 10028c10     qt-mt323:qt-mt323.dll
 0002:00001c14       __imp_?focusInEvent@QListBox@@MAEXPAVQFocusEvent@@@Z 10028c14     qt-mt323:qt-mt323.dll
 0002:00001c18       __imp_?keyPressEvent@QListBox@@MAEXPAVQKeyEvent@@@Z 10028c18     qt-mt323:qt-mt323.dll
 0002:00001c1c       __imp_?mouseMoveEvent@QListBox@@MAEXPAVQMouseEvent@@@Z 10028c1c     qt-mt323:qt-mt323.dll
 0002:00001c20       __imp_?mouseDoubleClickEvent@QListBox@@MAEXPAVQMouseEvent@@@Z 10028c20     qt-mt323:qt-mt323.dll
 0002:00001c24       __imp_?mouseReleaseEvent@QListBox@@MAEXPAVQMouseEvent@@@Z 10028c24     qt-mt323:qt-mt323.dll
 0002:00001c28       __imp_?mousePressEvent@QListBox@@MAEXPAVQMouseEvent@@@Z 10028c28     qt-mt323:qt-mt323.dll
 0002:00001c2c       __imp_?minimumSizeHint@QListBox@@UBE?AVQSize@@XZ 10028c2c     qt-mt323:qt-mt323.dll
 0002:00001c30       __imp_?sizeHint@QListBox@@UBE?AVQSize@@XZ 10028c30     qt-mt323:qt-mt323.dll
 0002:00001c34       __imp_?setFont@QListBox@@UAEXABVQFont@@@Z 10028c34     qt-mt323:qt-mt323.dll
 0002:00001c38       __imp_?setEnabled@QScrollView@@UAEX_N@Z 10028c38     qt-mt323:qt-mt323.dll
 0002:00001c3c       __imp_?eventFilter@QListBox@@MAE_NPAVQObject@@PAVQEvent@@@Z 10028c3c     qt-mt323:qt-mt323.dll
 0002:00001c40       __imp_?qt_property@QListBox@@UAE_NHHPAVQVariant@@@Z 10028c40     qt-mt323:qt-mt323.dll
 0002:00001c44       __imp_?qt_emit@QListBox@@UAE_NHPAUQUObject@@@Z 10028c44     qt-mt323:qt-mt323.dll
 0002:00001c48       __imp_?qt_invoke@QListBox@@UAE_NHPAUQUObject@@@Z 10028c48     qt-mt323:qt-mt323.dll
 0002:00001c4c       __imp_?qt_cast@QListBox@@UAEPAXPBD@Z 10028c4c     qt-mt323:qt-mt323.dll
 0002:00001c50       __imp_?className@QListBox@@UBEPBDXZ 10028c50     qt-mt323:qt-mt323.dll
 0002:00001c54       __imp_?metaObject@QListBox@@UBEPAVQMetaObject@@XZ 10028c54     qt-mt323:qt-mt323.dll
 0002:00001c58       __imp_?frameChanged@QHBox@@MAEXXZ 10028c58     qt-mt323:qt-mt323.dll
 0002:00001c5c       __imp_?sizeHint@QHBox@@UBE?AVQSize@@XZ 10028c5c     qt-mt323:qt-mt323.dll
 0002:00001c60       __imp_?qt_property@QHBox@@UAE_NHHPAVQVariant@@@Z 10028c60     qt-mt323:qt-mt323.dll
 0002:00001c64       __imp_?qt_emit@QHBox@@UAE_NHPAUQUObject@@@Z 10028c64     qt-mt323:qt-mt323.dll
 0002:00001c68       __imp_?qt_invoke@QHBox@@UAE_NHPAUQUObject@@@Z 10028c68     qt-mt323:qt-mt323.dll
 0002:00001c6c       __imp_?qt_cast@QHBox@@UAEPAXPBD@Z 10028c6c     qt-mt323:qt-mt323.dll
 0002:00001c70       __imp_?className@QHBox@@UBEPBDXZ 10028c70     qt-mt323:qt-mt323.dll
 0002:00001c74       __imp_?metaObject@QHBox@@UBEPAVQMetaObject@@XZ 10028c74     qt-mt323:qt-mt323.dll
 0002:00001c78       __imp_?setAlignment@QGroupBox@@UAEXH@Z 10028c78     qt-mt323:qt-mt323.dll
 0002:00001c7c       __imp_?setTitle@QGroupBox@@UAEXABVQString@@@Z 10028c7c     qt-mt323:qt-mt323.dll
 0002:00001c80       __imp_?setColumnLayout@QGroupBox@@UAEXHW4Orientation@Qt@@@Z 10028c80     qt-mt323:qt-mt323.dll
 0002:00001c84       __imp_?fontChange@QGroupBox@@MAEXABVQFont@@@Z 10028c84     qt-mt323:qt-mt323.dll
 0002:00001c88       __imp_?resizeEvent@QGroupBox@@MAEXPAVQResizeEvent@@@Z 10028c88     qt-mt323:qt-mt323.dll
 0002:00001c8c       __imp_?paintEvent@QGroupBox@@MAEXPAVQPaintEvent@@@Z 10028c8c     qt-mt323:qt-mt323.dll
 0002:00001c90       __imp_?focusInEvent@QGroupBox@@MAEXPAVQFocusEvent@@@Z 10028c90     qt-mt323:qt-mt323.dll
 0002:00001c94       __imp_?sizeHint@QGroupBox@@UBE?AVQSize@@XZ 10028c94     qt-mt323:qt-mt323.dll
 0002:00001c98       __imp_?setEnabled@QGroupBox@@UAEX_N@Z 10028c98     qt-mt323:qt-mt323.dll
 0002:00001c9c       __imp_?childEvent@QGroupBox@@MAEXPAVQChildEvent@@@Z 10028c9c     qt-mt323:qt-mt323.dll
 0002:00001ca0       __imp_?event@QGroupBox@@MAE_NPAVQEvent@@@Z 10028ca0     qt-mt323:qt-mt323.dll
 0002:00001ca4       __imp_?qt_property@QGroupBox@@UAE_NHHPAVQVariant@@@Z 10028ca4     qt-mt323:qt-mt323.dll
 0002:00001ca8       __imp_?qt_emit@QGroupBox@@UAE_NHPAUQUObject@@@Z 10028ca8     qt-mt323:qt-mt323.dll
 0002:00001cac       __imp_?qt_invoke@QGroupBox@@UAE_NHPAUQUObject@@@Z 10028cac     qt-mt323:qt-mt323.dll
 0002:00001cb0       __imp_?qt_cast@QGroupBox@@UAEPAXPBD@Z 10028cb0     qt-mt323:qt-mt323.dll
 0002:00001cb4       __imp_?className@QGroupBox@@UBEPBDXZ 10028cb4     qt-mt323:qt-mt323.dll
 0002:00001cb8       __imp_?metaObject@QGroupBox@@UBEPAVQMetaObject@@XZ 10028cb8     qt-mt323:qt-mt323.dll
 0002:00001cbc       __imp_?rangeChange@QDial@@MAEXXZ 10028cbc     qt-mt323:qt-mt323.dll
 0002:00001cc0       __imp_?valueChange@QDial@@MAEXXZ 10028cc0     qt-mt323:qt-mt323.dll
 0002:00001cc4       __imp_?repaintScreen@QDial@@MAEXPBVQRect@@@Z 10028cc4     qt-mt323:qt-mt323.dll
 0002:00001cc8       __imp_?setTracking@QDial@@UAEX_N@Z 10028cc8     qt-mt323:qt-mt323.dll
 0002:00001ccc       __imp_?setWrapping@QDial@@UAEX_N@Z 10028ccc     qt-mt323:qt-mt323.dll
 0002:00001cd0       __imp_?setNotchesVisible@QDial@@UAEX_N@Z 10028cd0     qt-mt323:qt-mt323.dll
 0002:00001cd4       __imp_?setValue@QDial@@UAEXH@Z 10028cd4     qt-mt323:qt-mt323.dll
 0002:00001cd8       __imp_?setNotchTarget@QDial@@UAEXN@Z 10028cd8     qt-mt323:qt-mt323.dll
 0002:00001cdc       __imp_?resizeEvent@QDial@@MAEXPAVQResizeEvent@@@Z 10028cdc     qt-mt323:qt-mt323.dll
 0002:00001ce0       __imp_?paintEvent@QDial@@MAEXPAVQPaintEvent@@@Z 10028ce0     qt-mt323:qt-mt323.dll
 0002:00001ce4       __imp_?focusOutEvent@QDial@@MAEXPAVQFocusEvent@@@Z 10028ce4     qt-mt323:qt-mt323.dll
 0002:00001ce8       __imp_?focusInEvent@QDial@@MAEXPAVQFocusEvent@@@Z 10028ce8     qt-mt323:qt-mt323.dll
 0002:00001cec       __imp_?keyPressEvent@QDial@@MAEXPAVQKeyEvent@@@Z 10028cec     qt-mt323:qt-mt323.dll
 0002:00001cf0       __imp_?wheelEvent@QDial@@MAEXPAVQWheelEvent@@@Z 10028cf0     qt-mt323:qt-mt323.dll
 0002:00001cf4       __imp_?mouseMoveEvent@QDial@@MAEXPAVQMouseEvent@@@Z 10028cf4     qt-mt323:qt-mt323.dll
 0002:00001cf8       __imp_?mouseReleaseEvent@QDial@@MAEXPAVQMouseEvent@@@Z 10028cf8     qt-mt323:qt-mt323.dll
 0002:00001cfc       __imp_?mousePressEvent@QDial@@MAEXPAVQMouseEvent@@@Z 10028cfc     qt-mt323:qt-mt323.dll
 0002:00001d00       __imp_?minimumSizeHint@QDial@@UBE?AVQSize@@XZ 10028d00     qt-mt323:qt-mt323.dll
 0002:00001d04       __imp_?sizeHint@QDial@@UBE?AVQSize@@XZ 10028d04     qt-mt323:qt-mt323.dll
 0002:00001d08       __imp_?qt_property@QDial@@UAE_NHHPAVQVariant@@@Z 10028d08     qt-mt323:qt-mt323.dll
 0002:00001d0c       __imp_?qt_emit@QDial@@UAE_NHPAUQUObject@@@Z 10028d0c     qt-mt323:qt-mt323.dll
 0002:00001d10       __imp_?qt_invoke@QDial@@UAE_NHPAUQUObject@@@Z 10028d10     qt-mt323:qt-mt323.dll
 0002:00001d14       __imp_?qt_cast@QDial@@UAEPAXPBD@Z 10028d14     qt-mt323:qt-mt323.dll
 0002:00001d18       __imp_?className@QDial@@UBEPBDXZ 10028d18     qt-mt323:qt-mt323.dll
 0002:00001d1c       __imp_?metaObject@QDial@@UBEPAVQMetaObject@@XZ 10028d1c     qt-mt323:qt-mt323.dll
 0002:00001d20       __imp_?itemRemoved@QToolBox@@MAEXH@Z 10028d20     qt-mt323:qt-mt323.dll
 0002:00001d24       __imp_?itemInserted@QToolBox@@MAEXH@Z 10028d24     qt-mt323:qt-mt323.dll
 0002:00001d28       __imp_?frameChanged@QToolBox@@MAEXXZ 10028d28     qt-mt323:qt-mt323.dll
 0002:00001d2c       __imp_?styleChange@QToolBox@@MAEXAAVQStyle@@@Z 10028d2c     qt-mt323:qt-mt323.dll
 0002:00001d30       __imp_?showEvent@QToolBox@@MAEXPAVQShowEvent@@@Z 10028d30     qt-mt323:qt-mt323.dll
 0002:00001d34       __imp_?sizeHint@QFrame@@UBE?AVQSize@@XZ 10028d34     qt-mt323:qt-mt323.dll
 0002:00001d38       __imp_?qt_property@QToolBox@@UAE_NHHPAVQVariant@@@Z 10028d38     qt-mt323:qt-mt323.dll
 0002:00001d3c       __imp_?qt_emit@QToolBox@@UAE_NHPAUQUObject@@@Z 10028d3c     qt-mt323:qt-mt323.dll
 0002:00001d40       __imp_?qt_invoke@QToolBox@@UAE_NHPAUQUObject@@@Z 10028d40     qt-mt323:qt-mt323.dll
 0002:00001d44       __imp_?qt_cast@QToolBox@@UAEPAXPBD@Z 10028d44     qt-mt323:qt-mt323.dll
 0002:00001d48       __imp_?className@QToolBox@@UBEPBDXZ 10028d48     qt-mt323:qt-mt323.dll
 0002:00001d4c       __imp_?metaObject@QToolBox@@UBEPAVQMetaObject@@XZ 10028d4c     qt-mt323:qt-mt323.dll
 0002:00001d50       __imp_?stepChange@QRangeControl@@MAEXXZ 10028d50     qt-mt323:qt-mt323.dll
 0002:00001d54       __imp_?rangeChange@QSpinBox@@MAEXXZ 10028d54     qt-mt323:qt-mt323.dll
 0002:00001d58       __imp_?valueChange@QSpinBox@@MAEXXZ 10028d58     qt-mt323:qt-mt323.dll
 0002:00001d5c       __imp_?interpretText@QSpinBox@@MAEXXZ 10028d5c     qt-mt323:qt-mt323.dll
 0002:00001d60       __imp_?updateDisplay@QSpinBox@@MAEXXZ 10028d60     qt-mt323:qt-mt323.dll
 0002:00001d64       __imp_?mapTextToValue@QSpinBox@@MAEHPA_N@Z 10028d64     qt-mt323:qt-mt323.dll
 0002:00001d68       __imp_?mapValueToText@QSpinBox@@MAE?AVQString@@H@Z 10028d68     qt-mt323:qt-mt323.dll
 0002:00001d6c       __imp_?selectAll@QSpinBox@@UAEXXZ 10028d6c     qt-mt323:qt-mt323.dll
 0002:00001d70       __imp_?stepDown@QSpinBox@@UAEXXZ 10028d70     qt-mt323:qt-mt323.dll
 0002:00001d74       __imp_?stepUp@QSpinBox@@UAEXXZ 10028d74     qt-mt323:qt-mt323.dll
 0002:00001d78       __imp_?setSuffix@QSpinBox@@UAEXABVQString@@@Z 10028d78     qt-mt323:qt-mt323.dll
 0002:00001d7c       __imp_?setPrefix@QSpinBox@@UAEXABVQString@@@Z 10028d7c     qt-mt323:qt-mt323.dll
 0002:00001d80       __imp_?setValue@QSpinBox@@UAEXH@Z 10028d80     qt-mt323:qt-mt323.dll
 0002:00001d84       __imp_?setValidator@QSpinBox@@UAEXPBVQValidator@@@Z 10028d84     qt-mt323:qt-mt323.dll
 0002:00001d88       __imp_?setButtonSymbols@QSpinBox@@UAEXW4ButtonSymbols@1@@Z 10028d88     qt-mt323:qt-mt323.dll
 0002:00001d8c       __imp_?setWrapping@QSpinBox@@UAEX_N@Z 10028d8c     qt-mt323:qt-mt323.dll
 0002:00001d90       __imp_?setSpecialValueText@QSpinBox@@UAEXABVQString@@@Z 10028d90     qt-mt323:qt-mt323.dll
 0002:00001d94       __imp_?cleanText@QSpinBox@@UBE?AVQString@@XZ 10028d94     qt-mt323:qt-mt323.dll
 0002:00001d98       __imp_?suffix@QSpinBox@@UBE?AVQString@@XZ 10028d98     qt-mt323:qt-mt323.dll
 0002:00001d9c       __imp_?prefix@QSpinBox@@UBE?AVQString@@XZ 10028d9c     qt-mt323:qt-mt323.dll
 0002:00001da0       __imp_?styleChange@QSpinBox@@MAEXAAVQStyle@@@Z 10028da0     qt-mt323:qt-mt323.dll
 0002:00001da4       __imp_?resizeEvent@QSpinBox@@MAEXPAVQResizeEvent@@@Z 10028da4     qt-mt323:qt-mt323.dll
 0002:00001da8       __imp_?leaveEvent@QSpinBox@@MAEXPAVQEvent@@@Z 10028da8     qt-mt323:qt-mt323.dll
 0002:00001dac       __imp_?wheelEvent@QSpinBox@@MAEXPAVQWheelEvent@@@Z 10028dac     qt-mt323:qt-mt323.dll
 0002:00001db0       __imp_?minimumSizeHint@QSpinBox@@UBE?AVQSize@@XZ 10028db0     qt-mt323:qt-mt323.dll
 0002:00001db4       __imp_?sizeHint@QSpinBox@@UBE?AVQSize@@XZ 10028db4     qt-mt323:qt-mt323.dll
 0002:00001db8       __imp_?setEnabled@QSpinBox@@UAEX_N@Z 10028db8     qt-mt323:qt-mt323.dll
 0002:00001dbc       __imp_?eventFilter@QSpinBox@@MAE_NPAVQObject@@PAVQEvent@@@Z 10028dbc     qt-mt323:qt-mt323.dll
 0002:00001dc0       __imp_?qt_property@QSpinBox@@UAE_NHHPAVQVariant@@@Z 10028dc0     qt-mt323:qt-mt323.dll
 0002:00001dc4       __imp_?qt_emit@QSpinBox@@UAE_NHPAUQUObject@@@Z 10028dc4     qt-mt323:qt-mt323.dll
 0002:00001dc8       __imp_?qt_invoke@QSpinBox@@UAE_NHPAUQUObject@@@Z 10028dc8     qt-mt323:qt-mt323.dll
 0002:00001dcc       __imp_?qt_cast@QSpinBox@@UAEPAXPBD@Z 10028dcc     qt-mt323:qt-mt323.dll
 0002:00001dd0       __imp_?className@QSpinBox@@UBEPBDXZ 10028dd0     qt-mt323:qt-mt323.dll
 0002:00001dd4       __imp_?metaObject@QSpinBox@@UBEPAVQMetaObject@@XZ 10028dd4     qt-mt323:qt-mt323.dll
 0002:00001dd8       __imp_?qt_property@QTextView@@UAE_NHHPAVQVariant@@@Z 10028dd8     qt-mt323:qt-mt323.dll
 0002:00001ddc       __imp_?qt_emit@QTextView@@UAE_NHPAUQUObject@@@Z 10028ddc     qt-mt323:qt-mt323.dll
 0002:00001de0       __imp_?qt_invoke@QTextView@@UAE_NHPAUQUObject@@@Z 10028de0     qt-mt323:qt-mt323.dll
 0002:00001de4       __imp_?qt_cast@QTextView@@UAEPAXPBD@Z 10028de4     qt-mt323:qt-mt323.dll
 0002:00001de8       __imp_?className@QTextView@@UBEPBDXZ 10028de8     qt-mt323:qt-mt323.dll
 0002:00001dec       __imp_?metaObject@QTextView@@UBEPAVQMetaObject@@XZ 10028dec     qt-mt323:qt-mt323.dll
 0002:00001df0       __imp_?setSecond@QTimeEdit@@MAEXH@Z 10028df0     qt-mt323:qt-mt323.dll
 0002:00001df4       __imp_?setMinute@QTimeEdit@@MAEXH@Z 10028df4     qt-mt323:qt-mt323.dll
 0002:00001df8       __imp_?setHour@QTimeEdit@@MAEXH@Z 10028df8     qt-mt323:qt-mt323.dll
 0002:00001dfc       __imp_?outOfRange@QTimeEdit@@MBE_NHHH@Z 10028dfc     qt-mt323:qt-mt323.dll
 0002:00001e00       __imp_?setSeparator@QTimeEdit@@UAEXABVQString@@@Z 10028e00     qt-mt323:qt-mt323.dll
 0002:00001e04       __imp_?setRange@QTimeEdit@@UAEXABVQTime@@0@Z 10028e04     qt-mt323:qt-mt323.dll
 0002:00001e08       __imp_?setMaxValue@QTimeEdit@@UAEXABVQTime@@@Z 10028e08     qt-mt323:qt-mt323.dll
 0002:00001e0c       __imp_?setMinValue@QTimeEdit@@UAEXABVQTime@@@Z 10028e0c     qt-mt323:qt-mt323.dll
 0002:00001e10       __imp_?setAutoAdvance@QTimeEdit@@UAEX_N@Z 10028e10     qt-mt323:qt-mt323.dll
 0002:00001e14       __imp_?setTime@QTimeEdit@@UAEXABVQTime@@@Z 10028e14     qt-mt323:qt-mt323.dll
 0002:00001e18       __imp_?stepDown@QTimeEdit@@MAEXXZ 10028e18     qt-mt323:qt-mt323.dll
 0002:00001e1c       __imp_?stepUp@QTimeEdit@@MAEXXZ 10028e1c     qt-mt323:qt-mt323.dll
 0002:00001e20       __imp_?removeLastNumber@QTimeEdit@@MAEXH@Z 10028e20     qt-mt323:qt-mt323.dll
 0002:00001e24       __imp_?addNumber@QTimeEdit@@MAEXHH@Z 10028e24     qt-mt323:qt-mt323.dll
 0002:00001e28       __imp_?sectionFormattedText@QTimeEdit@@MAE?AVQString@@H@Z 10028e28     qt-mt323:qt-mt323.dll
 0002:00001e2c       __imp_?setFocusSection@QTimeEdit@@MAE_NH@Z 10028e2c     qt-mt323:qt-mt323.dll
 0002:00001e30       __imp_?resizeEvent@QTimeEdit@@MAEXPAVQResizeEvent@@@Z 10028e30     qt-mt323:qt-mt323.dll
 0002:00001e34       __imp_?minimumSizeHint@QTimeEdit@@UBE?AVQSize@@XZ 10028e34     qt-mt323:qt-mt323.dll
 0002:00001e38       __imp_?sizeHint@QTimeEdit@@UBE?AVQSize@@XZ 10028e38     qt-mt323:qt-mt323.dll
 0002:00001e3c       __imp_?timerEvent@QTimeEdit@@MAEXPAVQTimerEvent@@@Z 10028e3c     qt-mt323:qt-mt323.dll
 0002:00001e40       __imp_?event@QTimeEdit@@MAE_NPAVQEvent@@@Z 10028e40     qt-mt323:qt-mt323.dll
 0002:00001e44       __imp_?qt_property@QTimeEdit@@UAE_NHHPAVQVariant@@@Z 10028e44     qt-mt323:qt-mt323.dll
 0002:00001e48       __imp_?qt_emit@QTimeEdit@@UAE_NHPAUQUObject@@@Z 10028e48     qt-mt323:qt-mt323.dll
 0002:00001e4c       __imp_?qt_invoke@QTimeEdit@@UAE_NHPAUQUObject@@@Z 10028e4c     qt-mt323:qt-mt323.dll
 0002:00001e50       __imp_?qt_cast@QTimeEdit@@UAEPAXPBD@Z 10028e50     qt-mt323:qt-mt323.dll
 0002:00001e54       __imp_?className@QTimeEdit@@UBEPBDXZ 10028e54     qt-mt323:qt-mt323.dll
 0002:00001e58       __imp_?metaObject@QTimeEdit@@UBEPAVQMetaObject@@XZ 10028e58     qt-mt323:qt-mt323.dll
 0002:00001e5c       __imp_?setRubberband@QSplitter@@MAEXH@Z 10028e5c     qt-mt323:qt-mt323.dll
 0002:00001e60       __imp_?drawSplitter@QSplitter@@MAEXPAVQPainter@@HHHH@Z 10028e60     qt-mt323:qt-mt323.dll
 0002:00001e64       __imp_?setOpaqueResize@QSplitter@@UAEX_N@Z 10028e64     qt-mt323:qt-mt323.dll
 0002:00001e68       __imp_?setResizeMode@QSplitter@@UAEXPAVQWidget@@W4ResizeMode@1@@Z 10028e68     qt-mt323:qt-mt323.dll
 0002:00001e6c       __imp_?setOrientation@QSplitter@@UAEXW4Orientation@Qt@@@Z 10028e6c     qt-mt323:qt-mt323.dll
 0002:00001e70       __imp_?styleChange@QSplitter@@MAEXAAVQStyle@@@Z 10028e70     qt-mt323:qt-mt323.dll
 0002:00001e74       __imp_?resizeEvent@QSplitter@@MAEXPAVQResizeEvent@@@Z 10028e74     qt-mt323:qt-mt323.dll
 0002:00001e78       __imp_?minimumSizeHint@QSplitter@@UBE?AVQSize@@XZ 10028e78     qt-mt323:qt-mt323.dll
 0002:00001e7c       __imp_?sizeHint@QSplitter@@UBE?AVQSize@@XZ 10028e7c     qt-mt323:qt-mt323.dll
 0002:00001e80       __imp_?childEvent@QSplitter@@MAEXPAVQChildEvent@@@Z 10028e80     qt-mt323:qt-mt323.dll
 0002:00001e84       __imp_?event@QSplitter@@MAE_NPAVQEvent@@@Z 10028e84     qt-mt323:qt-mt323.dll
 0002:00001e88       __imp_?qt_property@QSplitter@@UAE_NHHPAVQVariant@@@Z 10028e88     qt-mt323:qt-mt323.dll
 0002:00001e8c       __imp_?qt_emit@QSplitter@@UAE_NHPAUQUObject@@@Z 10028e8c     qt-mt323:qt-mt323.dll
 0002:00001e90       __imp_?qt_invoke@QSplitter@@UAE_NHPAUQUObject@@@Z 10028e90     qt-mt323:qt-mt323.dll
 0002:00001e94       __imp_?qt_cast@QSplitter@@UAEPAXPBD@Z 10028e94     qt-mt323:qt-mt323.dll
 0002:00001e98       __imp_?className@QSplitter@@UBEPBDXZ 10028e98     qt-mt323:qt-mt323.dll
 0002:00001e9c       __imp_?metaObject@QSplitter@@UBEPAVQMetaObject@@XZ 10028e9c     qt-mt323:qt-mt323.dll
 0002:00001ea0       __imp_?setSmallDecimalPoint@QLCDNumber@@UAEX_N@Z 10028ea0     qt-mt323:qt-mt323.dll
 0002:00001ea4       __imp_?setBinMode@QLCDNumber@@UAEXXZ 10028ea4     qt-mt323:qt-mt323.dll
 0002:00001ea8       __imp_?setOctMode@QLCDNumber@@UAEXXZ 10028ea8     qt-mt323:qt-mt323.dll
 0002:00001eac       __imp_?setDecMode@QLCDNumber@@UAEXXZ 10028eac     qt-mt323:qt-mt323.dll
 0002:00001eb0       __imp_?setHexMode@QLCDNumber@@UAEXXZ 10028eb0     qt-mt323:qt-mt323.dll
 0002:00001eb4       __imp_?setSegmentStyle@QLCDNumber@@UAEXW4SegmentStyle@1@@Z 10028eb4     qt-mt323:qt-mt323.dll
 0002:00001eb8       __imp_?setMode@QLCDNumber@@UAEXW4Mode@1@@Z 10028eb8     qt-mt323:qt-mt323.dll
 0002:00001ebc       __imp_?setNumDigits@QLCDNumber@@UAEXH@Z 10028ebc     qt-mt323:qt-mt323.dll
 0002:00001ec0       __imp_?drawContents@QLCDNumber@@MAEXPAVQPainter@@@Z 10028ec0     qt-mt323:qt-mt323.dll
 0002:00001ec4       __imp_?sizeHint@QLCDNumber@@UBE?AVQSize@@XZ 10028ec4     qt-mt323:qt-mt323.dll
 0002:00001ec8       __imp_?qt_property@QLCDNumber@@UAE_NHHPAVQVariant@@@Z 10028ec8     qt-mt323:qt-mt323.dll
 0002:00001ecc       __imp_?qt_emit@QLCDNumber@@UAE_NHPAUQUObject@@@Z 10028ecc     qt-mt323:qt-mt323.dll
 0002:00001ed0       __imp_?qt_invoke@QLCDNumber@@UAE_NHPAUQUObject@@@Z 10028ed0     qt-mt323:qt-mt323.dll
 0002:00001ed4       __imp_?qt_cast@QLCDNumber@@UAEPAXPBD@Z 10028ed4     qt-mt323:qt-mt323.dll
 0002:00001ed8       __imp_?className@QLCDNumber@@UBEPBDXZ 10028ed8     qt-mt323:qt-mt323.dll
 0002:00001edc       __imp_?metaObject@QLCDNumber@@UBEPAVQMetaObject@@XZ 10028edc     qt-mt323:qt-mt323.dll
 0002:00001ee0       __imp_?setChecked@QRadioButton@@UAEX_N@Z 10028ee0     qt-mt323:qt-mt323.dll
 0002:00001ee4       __imp_?drawButtonLabel@QRadioButton@@MAEXPAVQPainter@@@Z 10028ee4     qt-mt323:qt-mt323.dll
 0002:00001ee8       __imp_?drawButton@QRadioButton@@MAEXPAVQPainter@@@Z 10028ee8     qt-mt323:qt-mt323.dll
 0002:00001eec       __imp_?hitButton@QRadioButton@@MBE_NABVQPoint@@@Z 10028eec     qt-mt323:qt-mt323.dll
 0002:00001ef0       __imp_?updateMask@QRadioButton@@MAEXXZ 10028ef0     qt-mt323:qt-mt323.dll
 0002:00001ef4       __imp_?resizeEvent@QRadioButton@@MAEXPAVQResizeEvent@@@Z 10028ef4     qt-mt323:qt-mt323.dll
 0002:00001ef8       __imp_?sizeHint@QRadioButton@@UBE?AVQSize@@XZ 10028ef8     qt-mt323:qt-mt323.dll
 0002:00001efc       __imp_?qt_property@QRadioButton@@UAE_NHHPAVQVariant@@@Z 10028efc     qt-mt323:qt-mt323.dll
 0002:00001f00       __imp_?qt_emit@QRadioButton@@UAE_NHPAUQUObject@@@Z 10028f00     qt-mt323:qt-mt323.dll
 0002:00001f04       __imp_?qt_invoke@QRadioButton@@UAE_NHPAUQUObject@@@Z 10028f04     qt-mt323:qt-mt323.dll
 0002:00001f08       __imp_?qt_cast@QRadioButton@@UAEPAXPBD@Z 10028f08     qt-mt323:qt-mt323.dll
 0002:00001f0c       __imp_?className@QRadioButton@@UBEPBDXZ 10028f0c     qt-mt323:qt-mt323.dll
 0002:00001f10       __imp_?metaObject@QRadioButton@@UBEPAVQMetaObject@@XZ 10028f10     qt-mt323:qt-mt323.dll
 0002:00001f14       __imp_?frameChanged@QGrid@@MAEXXZ 10028f14     qt-mt323:qt-mt323.dll
 0002:00001f18       __imp_?drawContents@QFrame@@MAEXPAVQPainter@@@Z 10028f18     qt-mt323:qt-mt323.dll
 0002:00001f1c       __imp_?styleChange@QFrame@@MAEXAAVQStyle@@@Z 10028f1c     qt-mt323:qt-mt323.dll
 0002:00001f20       __imp_?sizeHint@QGrid@@UBE?AVQSize@@XZ 10028f20     qt-mt323:qt-mt323.dll
 0002:00001f24       __imp_?qt_property@QGrid@@UAE_NHHPAVQVariant@@@Z 10028f24     qt-mt323:qt-mt323.dll
 0002:00001f28       __imp_?qt_emit@QGrid@@UAE_NHPAUQUObject@@@Z 10028f28     qt-mt323:qt-mt323.dll
 0002:00001f2c       __imp_?qt_invoke@QGrid@@UAE_NHPAUQUObject@@@Z 10028f2c     qt-mt323:qt-mt323.dll
 0002:00001f30       __imp_?qt_cast@QGrid@@UAEPAXPBD@Z 10028f30     qt-mt323:qt-mt323.dll
 0002:00001f34       __imp_?className@QGrid@@UBEPBDXZ 10028f34     qt-mt323:qt-mt323.dll
 0002:00001f38       __imp_?metaObject@QGrid@@UBEPAVQMetaObject@@XZ 10028f38     qt-mt323:qt-mt323.dll
 0002:00001f3c       __imp_?setAutoAdvance@QDateTimeEdit@@UAEX_N@Z 10028f3c     qt-mt323:qt-mt323.dll
 0002:00001f40       __imp_?setDateTime@QDateTimeEdit@@UAEXABVQDateTime@@@Z 10028f40     qt-mt323:qt-mt323.dll
 0002:00001f44       __imp_?resizeEvent@QDateTimeEdit@@MAEXPAVQResizeEvent@@@Z 10028f44     qt-mt323:qt-mt323.dll
 0002:00001f48       __imp_?minimumSizeHint@QDateTimeEdit@@UBE?AVQSize@@XZ 10028f48     qt-mt323:qt-mt323.dll
 0002:00001f4c       __imp_?sizeHint@QDateTimeEdit@@UBE?AVQSize@@XZ 10028f4c     qt-mt323:qt-mt323.dll
 0002:00001f50       __imp_?qt_property@QDateTimeEdit@@UAE_NHHPAVQVariant@@@Z 10028f50     qt-mt323:qt-mt323.dll
 0002:00001f54       __imp_?qt_emit@QDateTimeEdit@@UAE_NHPAUQUObject@@@Z 10028f54     qt-mt323:qt-mt323.dll
 0002:00001f58       __imp_?qt_invoke@QDateTimeEdit@@UAE_NHPAUQUObject@@@Z 10028f58     qt-mt323:qt-mt323.dll
 0002:00001f5c       __imp_?qt_cast@QDateTimeEdit@@UAEPAXPBD@Z 10028f5c     qt-mt323:qt-mt323.dll
 0002:00001f60       __imp_?className@QDateTimeEdit@@UBEPBDXZ 10028f60     qt-mt323:qt-mt323.dll
 0002:00001f64       __imp_?metaObject@QDateTimeEdit@@UBEPAVQMetaObject@@XZ 10028f64     qt-mt323:qt-mt323.dll
 0002:00001f68       __imp_??0QLabel@@QAE@PAVQWidget@@PBDI@Z 10028f68     qt-mt323:qt-mt323.dll
 0002:00001f6c       __imp_?look_string@QGDict@@QAEPAXABVQString@@PAXH@Z 10028f6c     qt-mt323:qt-mt323.dll
 0002:00001f70       __imp_?queryUnknownInterface@QGPluginManager@@IBEKABVQString@@PAPAUQUnknownInterface@@@Z 10028f70     qt-mt323:qt-mt323.dll
 0002:00001f74       __imp_??0QDataTable@@QAE@PAVQWidget@@PBD@Z 10028f74     qt-mt323:qt-mt323.dll
 0002:00001f78       __imp_?statusBar@QMainWindow@@QBEPAVQStatusBar@@XZ 10028f78     qt-mt323:qt-mt323.dll
 0002:00001f7c       __imp_??0QMainWindow@@QAE@PAVQWidget@@PBDI@Z 10028f7c     qt-mt323:qt-mt323.dll
 0002:00001f80       __imp_??0QGrid@@QAE@HPAVQWidget@@PBDI@Z 10028f80     qt-mt323:qt-mt323.dll
 0002:00001f84       __imp_??0QHBox@@QAE@PAVQWidget@@PBDI@Z 10028f84     qt-mt323:qt-mt323.dll
 0002:00001f88       __imp_??0QVBox@@QAE@PAVQWidget@@PBDI@Z 10028f88     qt-mt323:qt-mt323.dll
 0002:00001f8c       __imp_??0QToolBox@@QAE@PAVQWidget@@PBDI@Z 10028f8c     qt-mt323:qt-mt323.dll
 0002:00001f90       __imp_??0QWidgetStack@@QAE@PAVQWidget@@PBD@Z 10028f90     qt-mt323:qt-mt323.dll
 0002:00001f94       __imp_??0QScrollBar@@QAE@PAVQWidget@@PBD@Z 10028f94     qt-mt323:qt-mt323.dll
 0002:00001f98       __imp_??0QDateTimeEdit@@QAE@PAVQWidget@@PBD@Z 10028f98     qt-mt323:qt-mt323.dll
 0002:00001f9c       __imp_??0QTimeEdit@@QAE@PAVQWidget@@PBD@Z 10028f9c     qt-mt323:qt-mt323.dll
 0002:00001fa0       __imp_??0QDateEdit@@QAE@PAVQWidget@@PBD@Z 10028fa0     qt-mt323:qt-mt323.dll
 0002:00001fa4       __imp_??0QSplitter@@QAE@PAVQWidget@@PBD@Z 10028fa4     qt-mt323:qt-mt323.dll
 0002:00001fa8       __imp_??0QFrame@@QAE@PAVQWidget@@PBDI@Z 10028fa8     qt-mt323:qt-mt323.dll
 0002:00001fac       __imp_??0QSlider@@QAE@PAVQWidget@@PBD@Z 10028fac     qt-mt323:qt-mt323.dll
 0002:00001fb0       __imp_??0QDial@@QAE@PAVQWidget@@PBDI@Z 10028fb0     qt-mt323:qt-mt323.dll
 0002:00001fb4       __imp_??0QTextBrowser@@QAE@PAVQWidget@@PBD@Z 10028fb4     qt-mt323:qt-mt323.dll
 0002:00001fb8       __imp_??0QTextView@@QAE@PAVQWidget@@PBD@Z 10028fb8     qt-mt323:qt-mt323.dll
 0002:00001fbc       __imp_??0QProgressBar@@QAE@PAVQWidget@@PBDI@Z 10028fbc     qt-mt323:qt-mt323.dll
 0002:00001fc0       __imp_??0QLCDNumber@@QAE@PAVQWidget@@PBD@Z 10028fc0     qt-mt323:qt-mt323.dll
 0002:00001fc4       __imp_??0QWizard@@QAE@PAVQWidget@@PBD_NI@Z 10028fc4     qt-mt323:qt-mt323.dll
 0002:00001fc8       __imp_??0QComboBox@@QAE@_NPAVQWidget@@PBD@Z 10028fc8     qt-mt323:qt-mt323.dll
 0002:00001fcc       __imp_??0QTabWidget@@QAE@PAVQWidget@@PBDI@Z 10028fcc     qt-mt323:qt-mt323.dll
 0002:00001fd0       __imp_??0QMultiLineEdit@@QAE@PAVQWidget@@PBD@Z 10028fd0     qt-mt323:qt-mt323.dll
 0002:00001fd4       __imp_??0QSpinBox@@QAE@PAVQWidget@@PBD@Z 10028fd4     qt-mt323:qt-mt323.dll
 0002:00001fd8       __imp_??0QLineEdit@@QAE@PAVQWidget@@PBD@Z 10028fd8     qt-mt323:qt-mt323.dll
 0002:00001fdc       __imp_??0QListView@@QAE@PAVQWidget@@PBDI@Z 10028fdc     qt-mt323:qt-mt323.dll
 0002:00001fe0       __imp_??0QListBox@@QAE@PAVQWidget@@PBDI@Z 10028fe0     qt-mt323:qt-mt323.dll
 0002:00001fe4       __imp_??0QTable@@QAE@PAVQWidget@@PBD@Z 10028fe4     qt-mt323:qt-mt323.dll
 0002:00001fe8       __imp_??0QIconView@@QAE@PAVQWidget@@PBDI@Z 10028fe8     qt-mt323:qt-mt323.dll
 0002:00001fec       __imp_??0QButtonGroup@@QAE@PAVQWidget@@PBD@Z 10028fec     qt-mt323:qt-mt323.dll
 0002:00001ff0       __imp_??0QGroupBox@@QAE@PAVQWidget@@PBD@Z 10028ff0     qt-mt323:qt-mt323.dll
 0002:00001ff4       __imp_??0QRadioButton@@QAE@PAVQWidget@@PBD@Z 10028ff4     qt-mt323:qt-mt323.dll
 0002:00001ff8       __imp_??0QToolButton@@QAE@PAVQWidget@@PBD@Z 10028ff8     qt-mt323:qt-mt323.dll
 0002:00001ffc       __imp_??1QToolButton@@UAE@XZ 10028ffc     qt-mt323:qt-mt323.dll
 0002:00002000       __imp_??1QGroupBox@@UAE@XZ 10029000     qt-mt323:qt-mt323.dll
 0002:00002004       __imp_??1QButtonGroup@@UAE@XZ 10029004     qt-mt323:qt-mt323.dll
 0002:00002008       __imp_??1QIconView@@UAE@XZ 10029008     qt-mt323:qt-mt323.dll
 0002:0000200c       __imp_??1QTable@@UAE@XZ    1002900c     qt-mt323:qt-mt323.dll
 0002:00002010       __imp_??1QListBox@@UAE@XZ  10029010     qt-mt323:qt-mt323.dll
 0002:00002014       __imp_??1QListView@@UAE@XZ 10029014     qt-mt323:qt-mt323.dll
 0002:00002018       __imp_??1QLineEdit@@UAE@XZ 10029018     qt-mt323:qt-mt323.dll
 0002:0000201c       __imp_??1QSpinBox@@UAE@XZ  1002901c     qt-mt323:qt-mt323.dll
 0002:00002020       __imp_??1QMultiLineEdit@@UAE@XZ 10029020     qt-mt323:qt-mt323.dll
 0002:00002024       __imp_??1QLabel@@UAE@XZ    10029024     qt-mt323:qt-mt323.dll
 0002:00002028       __imp_??1QTabWidget@@UAE@XZ 10029028     qt-mt323:qt-mt323.dll
 0002:0000202c       __imp_??1QComboBox@@UAE@XZ 1002902c     qt-mt323:qt-mt323.dll
 0002:00002030       __imp_??1QWizard@@UAE@XZ   10029030     qt-mt323:qt-mt323.dll
 0002:00002034       __imp_??1QLCDNumber@@UAE@XZ 10029034     qt-mt323:qt-mt323.dll
 0002:00002038       __imp_??1QTextView@@UAE@XZ 10029038     qt-mt323:qt-mt323.dll
 0002:0000203c       __imp_??1QTextBrowser@@UAE@XZ 1002903c     qt-mt323:qt-mt323.dll
 0002:00002040       __imp_??1QDial@@UAE@XZ     10029040     qt-mt323:qt-mt323.dll
 0002:00002044       __imp_??1QSlider@@UAE@XZ   10029044     qt-mt323:qt-mt323.dll
 0002:00002048       __imp_??1QSplitter@@UAE@XZ 10029048     qt-mt323:qt-mt323.dll
 0002:0000204c       __imp_??1QDateEdit@@UAE@XZ 1002904c     qt-mt323:qt-mt323.dll
 0002:00002050       __imp_??1QTimeEdit@@UAE@XZ 10029050     qt-mt323:qt-mt323.dll
 0002:00002054       __imp_??1QDateTimeEdit@@UAE@XZ 10029054     qt-mt323:qt-mt323.dll
 0002:00002058       __imp_??1QScrollBar@@UAE@XZ 10029058     qt-mt323:qt-mt323.dll
 0002:0000205c       __imp_??1QWidgetStack@@UAE@XZ 1002905c     qt-mt323:qt-mt323.dll
 0002:00002060       __imp_??1QToolBox@@UAE@XZ  10029060     qt-mt323:qt-mt323.dll
 0002:00002064       __imp_??1QMainWindow@@UAE@XZ 10029064     qt-mt323:qt-mt323.dll
 0002:00002068       __imp_??1QDataTable@@UAE@XZ 10029068     qt-mt323:qt-mt323.dll
 0002:0000206c       __imp_?insertItem@QToolBox@@QAEHHPAVQWidget@@ABVQIconSet@@ABVQString@@@Z 1002906c     qt-mt323:qt-mt323.dll
 0002:00002070       __imp_?iterator@QGridLayout@@UAE?AVQLayoutIterator@@XZ 10029070     qt-mt323:qt-mt323.dll
 0002:00002074       __imp_?invalidate@QGridLayout@@UAEXXZ 10029074     qt-mt323:qt-mt323.dll
 0002:00002078       __imp_?heightForWidth@QGridLayout@@UBEHH@Z 10029078     qt-mt323:qt-mt323.dll
 0002:0000207c       __imp_?hasHeightForWidth@QGridLayout@@UBE_NXZ 1002907c     qt-mt323:qt-mt323.dll
 0002:00002080       __imp_?setGeometry@QGridLayout@@UAEXABVQRect@@@Z 10029080     qt-mt323:qt-mt323.dll
 0002:00002084       __imp_?expanding@QGridLayout@@UBE?AW4ExpandData@QSizePolicy@@XZ 10029084     qt-mt323:qt-mt323.dll
 0002:00002088       __imp_?maximumSize@QGridLayout@@UBE?AVQSize@@XZ 10029088     qt-mt323:qt-mt323.dll
 0002:0000208c       __imp_?minimumSize@QGridLayout@@UBE?AVQSize@@XZ 1002908c     qt-mt323:qt-mt323.dll
 0002:00002090       __imp_?sizeHint@QGridLayout@@UBE?AVQSize@@XZ 10029090     qt-mt323:qt-mt323.dll
 0002:00002094       __imp_?setColStretch@QGridLayout@@UAEXHH@Z 10029094     qt-mt323:qt-mt323.dll
 0002:00002098       __imp_?setRowStretch@QGridLayout@@UAEXHH@Z 10029098     qt-mt323:qt-mt323.dll
 0002:0000209c       __imp_?addItem@QGridLayout@@UAEXPAVQLayoutItem@@@Z 1002909c     qt-mt323:qt-mt323.dll
 0002:000020a0       __imp_?qt_property@QGridLayout@@UAE_NHHPAVQVariant@@@Z 100290a0     qt-mt323:qt-mt323.dll
 0002:000020a4       __imp_?qt_emit@QGridLayout@@UAE_NHPAUQUObject@@@Z 100290a4     qt-mt323:qt-mt323.dll
 0002:000020a8       __imp_?qt_invoke@QGridLayout@@UAE_NHPAUQUObject@@@Z 100290a8     qt-mt323:qt-mt323.dll
 0002:000020ac       __imp_?qt_cast@QGridLayout@@UAEPAXPBD@Z 100290ac     qt-mt323:qt-mt323.dll
 0002:000020b0       __imp_?className@QGridLayout@@UBEPBDXZ 100290b0     qt-mt323:qt-mt323.dll
 0002:000020b4       __imp_?metaObject@QGridLayout@@UBEPAVQMetaObject@@XZ 100290b4     qt-mt323:qt-mt323.dll
 0002:000020b8       __imp_??0QGridLayout@@QAE@PAVQWidget@@HHHHPBD@Z 100290b8     qt-mt323:qt-mt323.dll
 0002:000020bc       __imp_??0QHBoxLayout@@QAE@PAVQLayout@@HPBD@Z 100290bc     qt-mt323:qt-mt323.dll
 0002:000020c0       __imp_??0QVBoxLayout@@QAE@PAVQLayout@@HPBD@Z 100290c0     qt-mt323:qt-mt323.dll
 0002:000020c4       __imp_??0QGridLayout@@QAE@PAVQLayout@@HHHPBD@Z 100290c4     qt-mt323:qt-mt323.dll
 0002:000020c8       __imp_?currentItem@QToolBox@@QBEPAVQWidget@@XZ 100290c8     qt-mt323:qt-mt323.dll
 0002:000020cc       __imp_?visibleWidget@QWidgetStack@@QBEPAVQWidget@@XZ 100290cc     qt-mt323:qt-mt323.dll
 0002:000020d0       __imp_?currentPage@QWizard@@QBEPAVQWidget@@XZ 100290d0     qt-mt323:qt-mt323.dll
 0002:000020d4       __imp_?currentPage@QTabWidget@@QBEPAVQWidget@@XZ 100290d4     qt-mt323:qt-mt323.dll
 0002:000020d8       __imp_??1QGridLayout@@UAE@XZ 100290d8     qt-mt323:qt-mt323.dll
 0002:000020dc       __imp_?insert@QButtonGroup@@QAEHPAVQButton@@H@Z 100290dc     qt-mt323:qt-mt323.dll
 0002:000020e0       __imp_?insert@?$QMap@VQString@@V1@@@QAE?AV?$QMapIterator@VQString@@V1@@@ABVQString@@0_N@Z 100290e0     qt-mt323:qt-mt323.dll
 0002:000020e4       __imp_?add@QWhatsThis@@SAXPAVQWidget@@ABVQString@@@Z 100290e4     qt-mt323:qt-mt323.dll
 0002:000020e8       __imp_?add@QToolTip@@SAXPAVQWidget@@ABVQString@@@Z 100290e8     qt-mt323:qt-mt323.dll
 0002:000020ec       __imp_?keyToValue@QMetaProperty@@QBEHPBD@Z 100290ec     qt-mt323:qt-mt323.dll
 0002:000020f0       __imp_?toCString@QVariant@@QBE?BVQCString@@XZ 100290f0     qt-mt323:qt-mt323.dll
 0002:000020f4       __imp_??1QStrList@@UAE@XZ  100290f4     qt-mt323:qt-mt323.dll
 0002:000020f8       __imp_?keysToValue@QMetaProperty@@QBEHABVQStrList@@@Z 100290f8     qt-mt323:qt-mt323.dll
 0002:000020fc       __imp_?split@QStringList@@SA?AV1@ABVQChar@@ABVQString@@_N@Z 100290fc     qt-mt323:qt-mt323.dll
 0002:00002100       __imp_??_7QStrList@@6B@    10029100     qt-mt323:qt-mt323.dll
 0002:00002104       __imp_?isSetType@QMetaProperty@@QBE_NXZ 10029104     qt-mt323:qt-mt323.dll
 0002:00002108       __imp_?isEnumType@QMetaProperty@@QBE_NXZ 10029108     qt-mt323:qt-mt323.dll
 0002:0000210c       __imp_?property@QMetaObject@@QBEPBVQMetaProperty@@H_N@Z 1002910c     qt-mt323:qt-mt323.dll
 0002:00002110       __imp_??1QKeySequence@@QAE@XZ 10029110     qt-mt323:qt-mt323.dll
 0002:00002114       __imp_??0QVariant@@QAE@ABVQKeySequence@@@Z 10029114     qt-mt323:qt-mt323.dll
 0002:00002118       __imp_?toKeySequence@QVariant@@QBE?BVQKeySequence@@XZ 10029118     qt-mt323:qt-mt323.dll
 0002:0000211c       __imp_?toRect@QVariant@@QBE?BVQRect@@XZ 1002911c     qt-mt323:qt-mt323.dll
 0002:00002120       __imp_?findProperty@QMetaObject@@QBEHPBD_N@Z 10029120     qt-mt323:qt-mt323.dll
 0002:00002124       __imp_??4QColorGroup@@QAEAAV0@ABV0@@Z 10029124     qt-mt323:qt-mt323.dll
 0002:00002128       __imp_??0QVariant@@QAE@ABVQImage@@@Z 10029128     qt-mt323:qt-mt323.dll
 0002:0000212c       __imp_??0QVariant@@QAE@ABVQIconSet@@@Z 1002912c     qt-mt323:qt-mt323.dll
 0002:00002130       __imp_??0QVariant@@QAE@ABVQPixmap@@@Z 10029130     qt-mt323:qt-mt323.dll
 0002:00002134       __imp_?toULong@QString@@QBEKPA_NH@Z 10029134     qt-mt323:qt-mt323.dll
 0002:00002138       __imp_?toUInt@QString@@QBEIPA_NH@Z 10029138     qt-mt323:qt-mt323.dll
 0002:0000213c       __imp_?convertFromImage@QPixmap@@QAE_NABVQImage@@W4ColorMode@1@@Z 1002913c     qt-mt323:qt-mt323.dll
 0002:00002140       __imp_?decode@QImageDrag@@SA_NPBVQMimeSource@@AAVQPixmap@@@Z 10029140     qt-mt323:qt-mt323.dll
 0002:00002144       __imp_?defaultFactory@QMimeSourceFactory@@SAPAV1@XZ 10029144     qt-mt323:qt-mt323.dll
 0002:00002148       __imp_??4QColor@@QAEAAV0@ABV0@@Z 10029148     qt-mt323:qt-mt323.dll
 0002:0000214c       __imp_??4QStrList@@QAEAAV0@ABV0@@Z 1002914c     qt-mt323:qt-mt323.dll
 0002:00002150       __imp_?slotNames@QMetaObject@@QBE?AVQStrList@@_N@Z 10029150     qt-mt323:qt-mt323.dll
 0002:00002154       __imp_?signalNames@QMetaObject@@QBE?AVQStrList@@_N@Z 10029154     qt-mt323:qt-mt323.dll
 0002:00002158       __imp_?assign@QGArray@@IAEAAV1@ABV1@@Z 10029158     qt-mt323:qt-mt323.dll
 0002:0000215c       __imp_?normalizeSignalSlot@QObject@@KA?AVQCString@@PBD@Z 1002915c     qt-mt323:qt-mt323.dll
 0002:00002160       __imp_?queryList@QObject@@QBEPAVQObjectList@@PBD0_N1@Z 10029160     qt-mt323:qt-mt323.dll
 0002:00002164       __imp_?count@QHeader@@QBEHXZ 10029164     qt-mt323:qt-mt323.dll
 0002:00002168       __imp_?header@QListView@@QBEPAVQHeader@@XZ 10029168     qt-mt323:qt-mt323.dll
 0002:0000216c       __imp_?verticalHeader@QTable@@QBEPAVQHeader@@XZ 1002916c     qt-mt323:qt-mt323.dll
 0002:00002170       __imp_?horizontalHeader@QTable@@QBEPAVQHeader@@XZ 10029170     qt-mt323:qt-mt323.dll
 0002:00002174       __imp_?cancelRename@QListViewItem@@MAEXH@Z 10029174     qt-mt323:qt-mt323.dll
 0002:00002178       __imp_?okRename@QListViewItem@@MAEXH@Z 10029178     qt-mt323:qt-mt323.dll
 0002:0000217c       __imp_?dragLeft@QListViewItem@@MAEXXZ 1002917c     qt-mt323:qt-mt323.dll
 0002:00002180       __imp_?dragEntered@QListViewItem@@MAEXXZ 10029180     qt-mt323:qt-mt323.dll
 0002:00002184       __imp_?dropped@QListViewItem@@MAEXPAVQDropEvent@@@Z 10029184     qt-mt323:qt-mt323.dll
 0002:00002188       __imp_?activate@QListViewItem@@MAEXXZ 10029188     qt-mt323:qt-mt323.dll
 0002:0000218c       __imp_?setHeight@QListViewItem@@MAEXH@Z 1002918c     qt-mt323:qt-mt323.dll
 0002:00002190       __imp_?enforceSortOrder@QListViewItem@@MBEXXZ 10029190     qt-mt323:qt-mt323.dll
 0002:00002194       __imp_?setMultiLinesEnabled@QListViewItem@@UAEX_N@Z 10029194     qt-mt323:qt-mt323.dll
 0002:00002198       __imp_?rtti@QListViewItem@@UBEHXZ 10029198     qt-mt323:qt-mt323.dll
 0002:0000219c       __imp_?setEnabled@QListViewItem@@UAEX_N@Z 1002919c     qt-mt323:qt-mt323.dll
 0002:000021a0       __imp_?startRename@QListViewItem@@UAEXH@Z 100291a0     qt-mt323:qt-mt323.dll
 0002:000021a4       __imp_?setRenameEnabled@QListViewItem@@UAEXH_N@Z 100291a4     qt-mt323:qt-mt323.dll
 0002:000021a8       __imp_?acceptDrop@QListViewItem@@UBE_NPBVQMimeSource@@@Z 100291a8     qt-mt323:qt-mt323.dll
 0002:000021ac       __imp_?setDropEnabled@QListViewItem@@UAEX_N@Z 100291ac     qt-mt323:qt-mt323.dll
 0002:000021b0       __imp_?setDragEnabled@QListViewItem@@UAEX_N@Z 100291b0     qt-mt323:qt-mt323.dll
 0002:000021b4       __imp_?sort@QListViewItem@@UAEXXZ 100291b4     qt-mt323:qt-mt323.dll
 0002:000021b8       __imp_?setExpandable@QListViewItem@@UAEX_N@Z 100291b8     qt-mt323:qt-mt323.dll
 0002:000021bc       __imp_?setSelectable@QListViewItem@@UAEX_N@Z 100291bc     qt-mt323:qt-mt323.dll
 0002:000021c0       __imp_?paintFocus@QListViewItem@@UAEXPAVQPainter@@ABVQColorGroup@@ABVQRect@@@Z 100291c0     qt-mt323:qt-mt323.dll
 0002:000021c4       __imp_?paintBranches@QListViewItem@@UAEXPAVQPainter@@ABVQColorGroup@@HHH@Z 100291c4     qt-mt323:qt-mt323.dll
 0002:000021c8       __imp_?paintCell@QListViewItem@@UAEXPAVQPainter@@ABVQColorGroup@@HHH@Z 100291c8     qt-mt323:qt-mt323.dll
 0002:000021cc       __imp_?setSelected@QListViewItem@@UAEX_N@Z 100291cc     qt-mt323:qt-mt323.dll
 0002:000021d0       __imp_?setup@QListViewItem@@UAEXXZ 100291d0     qt-mt323:qt-mt323.dll
 0002:000021d4       __imp_?setOpen@QListViewItem@@UAEX_N@Z 100291d4     qt-mt323:qt-mt323.dll
 0002:000021d8       __imp_?sortChildItems@QListViewItem@@UAEXH_N@Z 100291d8     qt-mt323:qt-mt323.dll
 0002:000021dc       __imp_?compare@QListViewItem@@UBEHPAV1@H_N@Z 100291dc     qt-mt323:qt-mt323.dll
 0002:000021e0       __imp_?key@QListViewItem@@UBE?AVQString@@H_N@Z 100291e0     qt-mt323:qt-mt323.dll
 0002:000021e4       __imp_?pixmap@QListViewItem@@UBEPBVQPixmap@@H@Z 100291e4     qt-mt323:qt-mt323.dll
 0002:000021e8       __imp_?setPixmap@QListViewItem@@UAEXHABVQPixmap@@@Z 100291e8     qt-mt323:qt-mt323.dll
 0002:000021ec       __imp_?text@QListViewItem@@UBE?AVQString@@H@Z 100291ec     qt-mt323:qt-mt323.dll
 0002:000021f0       __imp_?setText@QListViewItem@@UAEXHABVQString@@@Z 100291f0     qt-mt323:qt-mt323.dll
 0002:000021f4       __imp_?width@QListViewItem@@UBEHABVQFontMetrics@@PBVQListView@@H@Z 100291f4     qt-mt323:qt-mt323.dll
 0002:000021f8       __imp_?invalidateHeight@QListViewItem@@UAEXXZ 100291f8     qt-mt323:qt-mt323.dll
 0002:000021fc       __imp_?removeItem@QListViewItem@@UAEXPAV1@@Z 100291fc     qt-mt323:qt-mt323.dll
 0002:00002200       __imp_?takeItem@QListViewItem@@UAEXPAV1@@Z 10029200     qt-mt323:qt-mt323.dll
 0002:00002204       __imp_?insertItem@QListViewItem@@UAEXPAV1@@Z 10029204     qt-mt323:qt-mt323.dll
 0002:00002208       __imp_?columns@QListView@@QBEHXZ 10029208     qt-mt323:qt-mt323.dll
 0002:0000220c       __imp_??0QListViewItem@@QAE@PAVQListView@@PAV0@@Z 1002920c     qt-mt323:qt-mt323.dll
 0002:00002210       __imp_??0QListViewItem@@QAE@PAV0@0@Z 10029210     qt-mt323:qt-mt323.dll
 0002:00002214       __imp_??1QListViewItem@@UAE@XZ 10029214     qt-mt323:qt-mt323.dll
 0002:00002218       __imp_?setAccel@QMenuData@@QAEXABVQKeySequence@@H@Z 10029218     qt-mt323:qt-mt323.dll
 0002:0000221c       __imp_?accel@QAction@@QBE?AVQKeySequence@@XZ 1002921c     qt-mt323:qt-mt323.dll
 0002:00002220       __imp_?insertItem@QMenuData@@QAEHABVQIconSet@@ABVQString@@PAVQPopupMenu@@HH@Z 10029220     qt-mt323:qt-mt323.dll
 0002:00002224       __imp_?iconSet@QAction@@QBE?AVQIconSet@@XZ 10029224     qt-mt323:qt-mt323.dll
 0002:00002228       __imp_?utf8@QString@@QBE?AVQCString@@XZ 10029228     qt-mt323:qt-mt323.dll
 0002:0000222c       __imp_??1QTextStream@@UAE@XZ 1002922c     qt-mt323:qt-mt323.dll
 0002:00002230       __imp_?read@QTextStream@@QAE?AVQString@@XZ 10029230     qt-mt323:qt-mt323.dll
 0002:00002234       __imp_??0QTextStream@@QAE@PAVQIODevice@@@Z 10029234     qt-mt323:qt-mt323.dll
 0002:00002238       __imp_??1QGDict@@MAE@XZ    10029238     qt-mt323:qt-mt323.dll
 0002:0000223c       __imp_?clear@QGDict@@MAEXXZ 1002923c     qt-mt323:qt-mt323.dll
 0002:00002240       __imp_?sync@QSqlForm@@EAEXXZ 10029240     qt-mt323:qt-mt323.dll
 0002:00002244       __imp_?clearValues@QSqlForm@@UAEX_N@Z 10029244     qt-mt323:qt-mt323.dll
 0002:00002248       __imp_?clear@QSqlForm@@UAEXXZ 10029248     qt-mt323:qt-mt323.dll
 0002:0000224c       __imp_?writeFields@QSqlForm@@UAEXXZ 1002924c     qt-mt323:qt-mt323.dll
 0002:00002250       __imp_?readFields@QSqlForm@@UAEXXZ 10029250     qt-mt323:qt-mt323.dll
 0002:00002254       __imp_?writeField@QSqlForm@@UAEXPAVQWidget@@@Z 10029254     qt-mt323:qt-mt323.dll
 0002:00002258       __imp_?readField@QSqlForm@@UAEXPAVQWidget@@@Z 10029258     qt-mt323:qt-mt323.dll
 0002:0000225c       __imp_?setRecord@QSqlForm@@UAEXPAVQSqlRecord@@@Z 1002925c     qt-mt323:qt-mt323.dll
 0002:00002260       __imp_?remove@QSqlForm@@UAEXABVQString@@@Z 10029260     qt-mt323:qt-mt323.dll
 0002:00002264       __imp_?remove@QSqlForm@@MAEXPAVQWidget@@@Z 10029264     qt-mt323:qt-mt323.dll
 0002:00002268       __imp_?insert@QSqlForm@@UAEXPAVQWidget@@ABVQString@@@Z 10029268     qt-mt323:qt-mt323.dll
 0002:0000226c       __imp_?insert@QSqlForm@@MAEXPAVQWidget@@PAVQSqlField@@@Z 1002926c     qt-mt323:qt-mt323.dll
 0002:00002270       __imp_?qt_property@QSqlForm@@UAE_NHHPAVQVariant@@@Z 10029270     qt-mt323:qt-mt323.dll
 0002:00002274       __imp_?qt_emit@QSqlForm@@UAE_NHPAUQUObject@@@Z 10029274     qt-mt323:qt-mt323.dll
 0002:00002278       __imp_?qt_invoke@QSqlForm@@UAE_NHPAUQUObject@@@Z 10029278     qt-mt323:qt-mt323.dll
 0002:0000227c       __imp_?qt_cast@QSqlForm@@UAEPAXPBD@Z 1002927c     qt-mt323:qt-mt323.dll
 0002:00002280       __imp_?className@QSqlForm@@UBEPBDXZ 10029280     qt-mt323:qt-mt323.dll
 0002:00002284       __imp_?metaObject@QSqlForm@@UBEPAVQMetaObject@@XZ 10029284     qt-mt323:qt-mt323.dll
 0002:00002288       __imp_??0QSqlForm@@QAE@PAVQObject@@PBD@Z 10029288     qt-mt323:qt-mt323.dll
 0002:0000228c       __imp_??4?$QMap@VQString@@V1@@@QAEAAV0@ABV0@@Z 1002928c     qt-mt323:qt-mt323.dll
 0002:00002290       __imp_??1QSqlForm@@UAE@XZ  10029290     qt-mt323:qt-mt323.dll
 0002:00002294       __imp_?handleError@QDataBrowser@@MAEXABVQSqlError@@@Z 10029294     qt-mt323:qt-mt323.dll
 0002:00002298       __imp_?confirmCancel@QDataBrowser@@MAE?AW4Confirm@QSql@@W4Op@3@@Z 10029298     qt-mt323:qt-mt323.dll
 0002:0000229c       __imp_?confirmEdit@QDataBrowser@@MAE?AW4Confirm@QSql@@W4Op@3@@Z 1002929c     qt-mt323:qt-mt323.dll
 0002:000022a0       __imp_?currentEdited@QDataBrowser@@MAE_NXZ 100292a0     qt-mt323:qt-mt323.dll
 0002:000022a4       __imp_?deleteCurrent@QDataBrowser@@MAE_NXZ 100292a4     qt-mt323:qt-mt323.dll
 0002:000022a8       __imp_?updateCurrent@QDataBrowser@@MAE_NXZ 100292a8     qt-mt323:qt-mt323.dll
 0002:000022ac       __imp_?insertCurrent@QDataBrowser@@MAE_NXZ 100292ac     qt-mt323:qt-mt323.dll
 0002:000022b0       __imp_?clearValues@QDataBrowser@@UAEXXZ 100292b0     qt-mt323:qt-mt323.dll
 0002:000022b4       __imp_?writeFields@QDataBrowser@@UAEXXZ 100292b4     qt-mt323:qt-mt323.dll
 0002:000022b8       __imp_?readFields@QDataBrowser@@UAEXXZ 100292b8     qt-mt323:qt-mt323.dll
 0002:000022bc       __imp_?prev@QDataBrowser@@UAEXXZ 100292bc     qt-mt323:qt-mt323.dll
 0002:000022c0       __imp_?next@QDataBrowser@@UAEXXZ 100292c0     qt-mt323:qt-mt323.dll
 0002:000022c4       __imp_?last@QDataBrowser@@UAEXXZ 100292c4     qt-mt323:qt-mt323.dll
 0002:000022c8       __imp_?first@QDataBrowser@@UAEXXZ 100292c8     qt-mt323:qt-mt323.dll
 0002:000022cc       __imp_?del@QDataBrowser@@UAEXXZ 100292cc     qt-mt323:qt-mt323.dll
 0002:000022d0       __imp_?update@QDataBrowser@@UAEXXZ 100292d0     qt-mt323:qt-mt323.dll
 0002:000022d4       __imp_?insert@QDataBrowser@@UAEXXZ 100292d4     qt-mt323:qt-mt323.dll
 0002:000022d8       __imp_?refresh@QDataBrowser@@UAEXXZ 100292d8     qt-mt323:qt-mt323.dll
 0002:000022dc       __imp_?seek@QDataBrowser@@UAE_NH_N@Z 100292dc     qt-mt323:qt-mt323.dll
 0002:000022e0       __imp_?setAutoEdit@QDataBrowser@@UAEX_N@Z 100292e0     qt-mt323:qt-mt323.dll
 0002:000022e4       __imp_?setReadOnly@QDataBrowser@@UAEX_N@Z 100292e4     qt-mt323:qt-mt323.dll
 0002:000022e8       __imp_?setConfirmCancels@QDataBrowser@@UAEX_N@Z 100292e8     qt-mt323:qt-mt323.dll
 0002:000022ec       __imp_?setConfirmDelete@QDataBrowser@@UAEX_N@Z 100292ec     qt-mt323:qt-mt323.dll
 0002:000022f0       __imp_?setConfirmUpdate@QDataBrowser@@UAEX_N@Z 100292f0     qt-mt323:qt-mt323.dll
 0002:000022f4       __imp_?setConfirmInsert@QDataBrowser@@UAEX_N@Z 100292f4     qt-mt323:qt-mt323.dll
 0002:000022f8       __imp_?setConfirmEdits@QDataBrowser@@UAEX_N@Z 100292f8     qt-mt323:qt-mt323.dll
 0002:000022fc       __imp_?setForm@QDataBrowser@@UAEXPAVQSqlForm@@@Z 100292fc     qt-mt323:qt-mt323.dll
 0002:00002300       __imp_?setSqlCursor@QDataBrowser@@UAEXPAVQSqlCursor@@_N@Z 10029300     qt-mt323:qt-mt323.dll
 0002:00002304       __imp_??0QDataBrowser@@QAE@PAVQWidget@@PBDI@Z 10029304     qt-mt323:qt-mt323.dll
 0002:00002308       __imp_??1QDataBrowser@@UAE@XZ 10029308     qt-mt323:qt-mt323.dll
 0002:0000230c       __imp_?clearValues@QDataView@@UAEXXZ 1002930c     qt-mt323:qt-mt323.dll
 0002:00002310       __imp_?writeFields@QDataView@@UAEXXZ 10029310     qt-mt323:qt-mt323.dll
 0002:00002314       __imp_?readFields@QDataView@@UAEXXZ 10029314     qt-mt323:qt-mt323.dll
 0002:00002318       __imp_?refresh@QDataView@@UAEXPAVQSqlRecord@@@Z 10029318     qt-mt323:qt-mt323.dll
 0002:0000231c       __imp_?setRecord@QDataView@@UAEXPAVQSqlRecord@@@Z 1002931c     qt-mt323:qt-mt323.dll
 0002:00002320       __imp_?setForm@QDataView@@UAEXPAVQSqlForm@@@Z 10029320     qt-mt323:qt-mt323.dll
 0002:00002324       __imp_??0QDataView@@QAE@PAVQWidget@@PBDI@Z 10029324     qt-mt323:qt-mt323.dll
 0002:00002328       __imp_??1QDataView@@UAE@XZ 10029328     qt-mt323:qt-mt323.dll
 0002:0000232c       __imp_??0QVariant@@QAE@ABVQDateTime@@@Z 1002932c     qt-mt323:qt-mt323.dll
 0002:00002330       __imp_??0QDateTime@@QAE@ABVQDate@@ABVQTime@@@Z 10029330     qt-mt323:qt-mt323.dll
 0002:00002334       __imp_??0QVariant@@QAE@ABVQTime@@@Z 10029334     qt-mt323:qt-mt323.dll
 0002:00002338       __imp_??0QTime@@QAE@HHHH@Z 10029338     qt-mt323:qt-mt323.dll
 0002:0000233c       __imp_??0QVariant@@QAE@ABVQDate@@@Z 1002933c     qt-mt323:qt-mt323.dll
 0002:00002340       __imp_??0QDate@@QAE@HHH@Z  10029340     qt-mt323:qt-mt323.dll
 0002:00002344       __imp_??0QVariant@@QAE@ABVQStringList@@@Z 10029344     qt-mt323:qt-mt323.dll
 0002:00002348       __imp_??1QCursor@@QAE@XZ   10029348     qt-mt323:qt-mt323.dll
 0002:0000234c       __imp_??0QVariant@@QAE@ABVQCursor@@@Z 1002934c     qt-mt323:qt-mt323.dll
 0002:00002350       __imp_??0QCursor@@QAE@H@Z  10029350     qt-mt323:qt-mt323.dll
 0002:00002354       __imp_??0QVariant@@QAE@VQSizePolicy@@@Z 10029354     qt-mt323:qt-mt323.dll
 0002:00002358       __imp_??0QVariant@@QAE@N@Z 10029358     qt-mt323:qt-mt323.dll
 0002:0000235c       __imp_?toDouble@QString@@QBENPA_N@Z 1002935c     qt-mt323:qt-mt323.dll
 0002:00002360       __imp_??0QVariant@@QAE@ABVQCString@@@Z 10029360     qt-mt323:qt-mt323.dll
 0002:00002364       __imp_?toFont@QVariant@@QBE?BVQFont@@XZ 10029364     qt-mt323:qt-mt323.dll
 0002:00002368       __imp_??0QVariant@@QAE@ABVQColor@@@Z 10029368     qt-mt323:qt-mt323.dll
 0002:0000236c       __imp_?setRgb@QColor@@QAEXHHH@Z 1002936c     qt-mt323:qt-mt323.dll
 0002:00002370       __imp_?setAttribute@QDomElement@@QAEXABVQString@@H@Z 10029370     qt-mt323:qt-mt323.dll
 0002:00002374       __imp_?setAttribute@QDomElement@@QAEXABVQString@@N@Z 10029374     qt-mt323:qt-mt323.dll
 0002:00002378       __imp_?removeAttribute@QDomElement@@QAEXABVQString@@@Z 10029378     qt-mt323:qt-mt323.dll
 0002:0000237c       __imp_?item@QDomNodeList@@UBE?AVQDomNode@@H@Z 1002937c     qt-mt323:qt-mt323.dll
 0002:00002380       __imp_?length@QDomNodeList@@UBEIXZ 10029380     qt-mt323:qt-mt323.dll
 0002:00002384       __imp_??1QDomNodeList@@UAE@XZ 10029384     qt-mt323:qt-mt323.dll
 0002:00002388       __imp_??4QDomNodeList@@QAEAAV0@ABV0@@Z 10029388     qt-mt323:qt-mt323.dll
 0002:0000238c       __imp_?elementsByTagName@QDomDocument@@QBE?AVQDomNodeList@@ABVQString@@@Z 1002938c     qt-mt323:qt-mt323.dll
 0002:00002390       __imp_?hasAttribute@QDomElement@@QBE_NABVQString@@@Z 10029390     qt-mt323:qt-mt323.dll
 0002:00002394       __imp_??0QDomNodeList@@QAE@XZ 10029394     qt-mt323:qt-mt323.dll
 0002:00002398       __imp_??0QDomNode@@QAE@XZ  10029398     qt-mt323:qt-mt323.dll
 0002:0000239c       __imp_?writeRawBytes@QDataStream@@QAEAAV1@PBDI@Z 1002939c     qt-mt323:qt-mt323.dll
 0002:000023a0       __imp_?staticMetaObject@QDataBrowser@@SAPAVQMetaObject@@XZ 100293a0     qt-mt323:qt-mt323.dll
 0002:000023a4       __imp_?qt_cast@QDataBrowser@@UAEPAXPBD@Z 100293a4     qt-mt323:qt-mt323.dll
 0002:000023a8       __imp_?qt_invoke@QDataBrowser@@UAE_NHPAUQUObject@@@Z 100293a8     qt-mt323:qt-mt323.dll
 0002:000023ac       __imp_?qt_emit@QDataBrowser@@UAE_NHPAUQUObject@@@Z 100293ac     qt-mt323:qt-mt323.dll
 0002:000023b0       __imp_?qt_property@QDataBrowser@@UAE_NHHPAVQVariant@@@Z 100293b0     qt-mt323:qt-mt323.dll
 0002:000023b4       __imp_?staticMetaObject@QDataView@@SAPAVQMetaObject@@XZ 100293b4     qt-mt323:qt-mt323.dll
 0002:000023b8       __imp_?qt_cast@QDataView@@UAEPAXPBD@Z 100293b8     qt-mt323:qt-mt323.dll
 0002:000023bc       __imp_?qt_invoke@QDataView@@UAE_NHPAUQUObject@@@Z 100293bc     qt-mt323:qt-mt323.dll
 0002:000023c0       __imp_?qt_emit@QDataView@@UAE_NHPAUQUObject@@@Z 100293c0     qt-mt323:qt-mt323.dll
 0002:000023c4       __imp_?qt_property@QDataView@@UAE_NHHPAVQVariant@@@Z 100293c4     qt-mt323:qt-mt323.dll
 0002:000023c8       __imp_?arg@QString@@QBE?AV1@ABV1@H@Z 100293c8     qt-mt323:qt-mt323.dll
 0002:000023cc       __imp_?arg@QString@@QBE?AV1@HHH@Z 100293cc     qt-mt323:qt-mt323.dll
 0002:000023d0       __imp_??4QString@@QAEAAV0@PBD@Z 100293d0     qt-mt323:qt-mt323.dll
 0002:000023d4       __imp_??4QString@@QAEAAV0@ABV0@@Z 100293d4     qt-mt323:qt-mt323.dll
 0002:000023d8       __imp_??1QString@@QAE@XZ   100293d8     qt-mt323:qt-mt323.dll
 0002:000023dc       __imp_??0QString@@QAE@PBD@Z 100293dc     qt-mt323:qt-mt323.dll
 0002:000023e0       __imp_??0QString@@QAE@ABV0@@Z 100293e0     qt-mt323:qt-mt323.dll
 0002:000023e4       __imp_??0QString@@QAE@XZ   100293e4     qt-mt323:qt-mt323.dll
 0002:000023e8       __imp_?qDebug@@YAXPBDZZ    100293e8     qt-mt323:qt-mt323.dll
 0002:000023ec       __imp_?setTickInterval@QSlider@@UAEXH@Z 100293ec     qt-mt323:qt-mt323.dll
 0002:000023f0       \177qt-mt323_NULL_THUNK_DATA 100293f0     qt-mt323:qt-mt323.dll
 0002:000023f4       ___xc_a                    100293f4     MSVCRT:cinitexe.obj
 0002:0000242c       ___xc_z                    1002942c     MSVCRT:cinitexe.obj
 0002:00002430       ___xi_a                    10029430     MSVCRT:cinitexe.obj
 0002:0000243c       ___xi_z                    1002943c     MSVCRT:cinitexe.obj
 0002:00002440       ??_C@_01NBENCBCI@?$CK?$AA@ 10029440     bncs_client_runtime.obj
 0002:00002448       ??_7error_category@std@@6B@ 10029448     bncs_client_runtime.obj
 0002:00002464       ??_7_Generic_error_category@std@@6B@ 10029464     bncs_client_runtime.obj
 0002:0000247c       ??_C@_07DCLBNMLN@generic?$AA@ 1002947c     bncs_client_runtime.obj
 0002:00002484       ??_C@_0O@BFJCFAAK@unknown?5error?$AA@ 10029484     bncs_client_runtime.obj
 0002:00002498       ??_7_Iostream_error_category@std@@6B@ 10029498     bncs_client_runtime.obj
 0002:000024b0       ??_C@_08LLGCOLLL@iostream?$AA@ 100294b0     bncs_client_runtime.obj
 0002:000024bc       ??_C@_0BG@PADBLCHM@iostream?5stream?5error?$AA@ 100294bc     bncs_client_runtime.obj
 0002:000024d8       ??_7_System_error_category@std@@6B@ 100294d8     bncs_client_runtime.obj
 0002:000024f0       ??_C@_06FHFOAHML@system?$AA@ 100294f0     bncs_client_runtime.obj
 0002:000024f8       ??_C@_02DPKJAMEF@?$CFd?$AA@ 100294f8     bncs_client_runtime.obj
 0002:00002500       ??_7?$QPtrList@VsignalConnection@@@@6B@ 10029500     bncs_client_runtime.obj
 0002:00002524       ??_7signalConnectionRefList@@6B@ 10029524     bncs_client_runtime.obj
 0002:00002548       ??_7IdCWlimits@@6B@        10029548     bncs_client_runtime.obj
 0002:00002550       ??_7dCW@@6B@               10029550     bncs_client_runtime.obj
 0002:00002558       ??_7IccTimerCallback@@6B@  10029558     bncs_client_runtime.obj
 0002:00002560       ??_7bncs_client_runtime@@6BQObject@@@ 10029560     bncs_client_runtime.obj
 0002:00002714       ??_7bncs_client_runtime@@6BQPaintDevice@@@ 10029714     bncs_client_runtime.obj
 0002:00002738       ??_7bncs_client_runtime@@6B@ 10029738     bncs_client_runtime.obj
 0002:00002740       ??_C@_0EP@IBNCNPPK@Context?5menu?5requested?5but?5CC_DE@ 10029740     bncs_client_runtime.obj
 0002:00002790       ??_C@_0BC@KDFKGOIE@Debug?5Connections?$AA@ 10029790     bncs_client_runtime.obj
 0002:000027a4       ??_C@_0N@OBPMCAPF@Edit?5UI?5?$CI?$CF1?$CJ?$AA@ 100297a4     bncs_client_runtime.obj
 0002:000027b4       ??_C@_0BC@LGPFBOGH@Open?5UI?5Directory?$AA@ 100297b4     bncs_client_runtime.obj
 0002:000027c8       ??_C@_09KGIJBFJB@?$CF1?2?$CF2?4dsw?$AA@ 100297c8     bncs_client_runtime.obj
 0002:000027d4       ??_C@_0BN@IJEKOONB@Open?5Visual?5Studio?56?5Project?$AA@ 100297d4     bncs_client_runtime.obj
 0002:000027f4       ??_C@_09OHDNDHOC@?$CF1?2?$CF2?4sln?$AA@ 100297f4     bncs_client_runtime.obj
 0002:00002800       ??_C@_0CC@OOFABDDH@Open?5Visual?5Studio?52010?$CL?5Solutio@ 10029800     bncs_client_runtime.obj
 0002:00002824       ??_C@_0BA@GOFGNMOA@1cdbDestroyed?$CI?$CJ?$AA@ 10029824     bncs_client_runtime.obj
 0002:00002834       ??_C@_0N@FGAMGGE@2destroyed?$CI?$CJ?$AA@ 10029834     bncs_client_runtime.obj
 0002:00002844       ??_C@_0BL@HDPHJFNL@1doShowIncomingEvent?$CIbool?$CJ?$AA@ 10029844     bncs_client_runtime.obj
 0002:00002860       ??_C@_0BJ@CBJGFLK@2showIncomingEvent?$CIbool?$CJ?$AA@ 10029860     bncs_client_runtime.obj
 0002:0000287c       ??_C@_0BD@DGHOIPJL@Connection?5Trace?3?5?$AA@ 1002987c     bncs_client_runtime.obj
 0002:00002890       ??_C@_01KMDKNFGN@?1?$AA@   10029890     bncs_client_runtime.obj
 0002:00002894       ??_C@_01KICIPPFI@?2?$AA@   10029894     bncs_client_runtime.obj
 0002:00002898       ??_C@_04PMOCAHAA@open?$AA@ 10029898     bncs_client_runtime.obj
 0002:000028a0       ??_C@_08EMNENPBA@instance?$AA@ 100298a0     bncs_client_runtime.obj
 0002:000028ac       ??_C@_0DC@DECOFGPE@bncs_client_runtime?3?5Can?8t?5find?5@ 100298ac     bncs_client_runtime.obj
 0002:000028e0       ??_C@_0N@JOGKCBBK@return?$DNgroup?$AA@ 100298e0     bncs_client_runtime.obj
 0002:000028f0       ??_C@_0L@BLMPAODG@_COMPOSITE?$AA@ 100298f0     bncs_client_runtime.obj
 0002:00002900       ??_C@_0EN@HEMMEPPB@New?5_COMPOSITE?5group?5type?5?$CIset?5c@ 10029900     bncs_client_runtime.obj
 0002:00002950       ??_C@_09HHBDIMAF@instance?$DN?$AA@ 10029950     bncs_client_runtime.obj
 0002:0000295c       ??_C@_06IOAEHBNO@dialog?$AA@ 1002995c     bncs_client_runtime.obj
 0002:00002964       ??_C@_04LNEJFJGI@path?$AA@ 10029964     bncs_client_runtime.obj
 0002:0000296c       ??_C@_08PIEMNFGJ@?$FLparent?$FN?$AA@ 1002996c     bncs_client_runtime.obj
 0002:00002978       ??_C@_0BF@FLBHAOGP@1notifyIn?$CIQString?5?$CG?$CJ?$AA@ 10029978     bncs_client_runtime.obj
 0002:00002990       ??_C@_0BD@DAADIMMH@2notify?$CIQString?5?$CG?$CJ?$AA@ 10029990     bncs_client_runtime.obj
 0002:000029a4       ??_C@_09NMMJDMDP@?$FLstartup?$FN?$AA@ 100299a4     bncs_client_runtime.obj
 0002:000029b0       ??_C@_01BJJEKLCA@?$CC?$AA@ 100299b0     bncs_client_runtime.obj
 0002:000029b4       ??_C@_03EACDAAKL@?$CC?1?$CC?$AA@ 100299b4     bncs_client_runtime.obj
 0002:000029b8       ??_C@_0CC@JOPLIAOA@Sub?5?$CF1?5mismatch?5?9?5giving?5up?5?$CF2?5?$CF@ 100299b8     bncs_client_runtime.obj
 0002:000029dc       ??_C@_0BE@EAOFCPJN@?$CC?3?5PARENT?5on?5rule?5?$CC?$AA@ 100299dc     bncs_client_runtime.obj
 0002:000029f0       ??_C@_09FOIJNBAD@?$FLdisable?$FN?$AA@ 100299f0     bncs_client_runtime.obj
 0002:000029fc       ??_C@_09EDNPEBFA@Disabling?$AA@ 100299fc     bncs_client_runtime.obj
 0002:00002a08       ??_C@_08LKNADHCG@?$FLenable?$FN?$AA@ 10029a08     bncs_client_runtime.obj
 0002:00002a14       ??_C@_08FCHGMPBP@Enabling?$AA@ 10029a14     bncs_client_runtime.obj
 0002:00002a20       ??_C@_06FKFLGELG@?$FLshow?$FN?$AA@ 10029a20     bncs_client_runtime.obj
 0002:00002a28       ??_C@_07GFKGPEKC@Showing?$AA@ 10029a28     bncs_client_runtime.obj
 0002:00002a30       ??_C@_06MGIJEPEB@?$FLhide?$FN?$AA@ 10029a30     bncs_client_runtime.obj
 0002:00002a38       ??_C@_06HIOFDHED@Hiding?$AA@ 10029a38     bncs_client_runtime.obj
 0002:00002a40       ??_C@_0M@FEFKFEHA@?$CC?5on?5rule?5?$CC?$AA@ 10029a40     bncs_client_runtime.obj
 0002:00002a4c       ??_C@_02JPEBCGCN@?5?$CC?$AA@ 10029a4c     bncs_client_runtime.obj
 0002:00002a50       ??_C@_03GIPIADLC@?$CC?3?5?$AA@ 10029a50     bncs_client_runtime.obj
 0002:00002a54       ??_C@_06MNPFKMJI@?$CC?5to?5?$CC?$AA@ 10029a54     bncs_client_runtime.obj
 0002:00002a5c       ??_C@_0N@JFJDGNGK@?$CC?3?5Sending?5?$CC?$AA@ 10029a5c     bncs_client_runtime.obj
 0002:00002a6c       ??_C@_07HJMHMJAL@startup?$AA@ 10029a6c     bncs_client_runtime.obj
 0002:00002a78       ??_7?$QValueListPrivate@VparamInfo@@@@6B@ 10029a78     bncs_client_runtime.obj
 0002:00002a80       ??_7?$QValueListPrivate@VcomplexParam@@@@6B@ 10029a80     bncs_client_runtime.obj
 0002:00002a88       ??_7?$QValueListPrivate@VcomplexInstance@@@@6B@ 10029a88     bncs_client_runtime.obj
 0002:00002a90       ??_7?$QValueListPrivate@VinstanceInfo@@@@6B@ 10029a90     bncs_client_runtime.obj
 0002:00002a98       ??_7?$QValueListPrivate@VdeviceTypeInfo@@@@6B@ 10029a98     bncs_client_runtime.obj
 0002:00002aa0       ??_7?$QValueListPrivate@VcomplexType@@@@6B@ 10029aa0     bncs_client_runtime.obj
 0002:00002aa4       ??_C@_0BA@JFNIOLAK@string?5too?5long?$AA@ 10029aa4     bncs_client_runtime.obj
 0002:00002ab4       ??_C@_0BI@CFPLBAOH@invalid?5string?5position?$AA@ 10029ab4     bncs_client_runtime.obj
 0002:00002ad0       ??_7?$QValueListNode@VparamInfo@@@@6B@ 10029ad0     bncs_client_runtime.obj
 0002:00002ad8       ??_7?$QValueListNode@VcomplexParam@@@@6B@ 10029ad8     bncs_client_runtime.obj
 0002:00002ae0       ??_7?$QValueListNode@VcomplexInstance@@@@6B@ 10029ae0     bncs_client_runtime.obj
 0002:00002ae8       ??_7?$QValueListNode@VinstanceInfo@@@@6B@ 10029ae8     bncs_client_runtime.obj
 0002:00002af0       ??_7?$QValueListNode@VdeviceTypeInfo@@@@6B@ 10029af0     bncs_client_runtime.obj
 0002:00002af8       ??_7?$QValueListNode@VcomplexType@@@@6B@ 10029af8     bncs_client_runtime.obj
 0002:00002b00       ??_7ccTimer@@6B@           10029b00     ccTimer.obj
 0002:00002b04       ??_C@_0DC@BICGLILN@ccTimer?3?3oops?4?4?4timer?5for?5which?5@ 10029b04     ccTimer.obj
 0002:00002b38       ??_C@_0CD@NLLCCBFN@ccTimer?3?3failed?5to?5kill?5timer?4?5?$CK@ 10029b38     ccTimer.obj
 0002:00002b5c       ??_C@_0BI@IBDLCHON@ccTimerMessageWindow_?$CFx?$AA@ 10029b5c     ccTimer.obj
 0002:00002b74       ??_C@_0CJ@CCNCGFIO@ccTimer?3?3Failed?5to?5register?5clas@ 10029b74     ccTimer.obj
 0002:00002b9d       ??_C@_00CNPNBAHC@?$AA@     10029b9d     ccTimer.obj
 0002:00002ba0       ??_C@_0CI@JDNHHPML@ccTimer?3?3Failed?5to?5create?5window@ 10029ba0     ccTimer.obj
 0002:00002bc8       ??_C@_0BE@FKAJGBAE@Very?5Serious?5Error?$CB?$AA@ 10029bc8     ccTimer.obj
 0002:00002bdc       ??_C@_0CD@KCCFIHOF@Cannot?5create?5ccTimerMessageWind@ 10029bdc     ccTimer.obj
 0002:00002c00       ??_C@_0CJ@NMIOBILJ@ccTimer?3?3Failed?5to?5destroy?5windo@ 10029c00     ccTimer.obj
 0002:00002c2c       ??_C@_0BG@ELFDNHEH@can?8t?5dereg?5window?5?$CFd?$AA@ 10029c2c     ccTimer.obj
 0002:00002c48       ??_C@_0EH@OGMHBLAM@ccTimer?3?3timerStart?4?5this?$DN?$CFx?5cal@ 10029c48     ccTimer.obj
 0002:00002c90       ??_C@_0EL@GIPEDJBC@ccTimer?3?3timerStart?4?5this?$DN?$CFx?5cal@ 10029c90     ccTimer.obj
 0002:00002cdc       ??_C@_0CC@JDJFOGMC@ccTimer?3?3Failed?5to?5start?5timer?4?5@ 10029cdc     ccTimer.obj
 0002:00002d00       ??_C@_0BO@KKAIBHLG@?$CFs?5?3?5Last?5error?5?$DN?5?$CFx?5?3?5?8?$CFs?8?5?6?$AA@ 10029d00     ccTimer.obj
 0002:00002d20       ??_C@_0BE@JONHPENG@map?1set?$DMT?$DO?5too?5long?$AA@ 10029d20     ccTimer.obj
 0002:00002d38       ??_7connectionDebugDlg@@6BQObject@@@ 10029d38     connectiondebugdlgimpl.obj
 0002:00002efc       ??_7connectionDebugDlg@@6BQPaintDevice@@@ 10029efc     connectiondebugdlgimpl.obj
 0002:00002f1c       ??_C@_0BB@NDFIICN@1doButtonClear?$CI?$CJ?$AA@ 10029f1c     connectiondebugdlgimpl.obj
 0002:00002f30       ??_C@_0L@OELOHDKG@2clicked?$CI?$CJ?$AA@ 10029f30     connectiondebugdlgimpl.obj
 0002:00002f3c       ??_C@_0BL@LOPMHOHI@2showIncomingEvent?$CI?5bool?5?$CJ?$AA@ 10029f3c     connectiondebugdlgimpl.obj
 0002:00002f58       ??_C@_0BB@LLDFNJHG@2toggled?$CI?5bool?5?$CJ?$AA@ 10029f58     connectiondebugdlgimpl.obj
 0002:00002f6c       ??_C@_0BI@HKLPFEK@1scrollToBottom?$CI?5bool?5?$CJ?$AA@ 10029f6c     connectiondebugdlgimpl.obj
 0002:00002f8c       ??_SQDomDocument@@6B@      10029f8c     dCW.obj
 0002:00003030       ??_7resourceCounts@@6B@    1002a030     dCW.obj
 0002:00003038       ??_7?$QCache@VQDomDocument@@@@6B@ 1002a038     dCW.obj
 0002:0000304c       ??_C@_0M@FAJAMEBN@control_set?$AA@ 1002a04c     dCW.obj
 0002:00003058       ??_C@_0DI@JIIMNGAC@QWidgetList?5dCW?3?3parseXML?3?5This?5@ 1002a058     dCW.obj
 0002:00003090       ??_C@_0M@EAJPACGF@connections?$AA@ 1002a090     dCW.obj
 0002:0000309c       ??_C@_07KMMNMMFF@command?$AA@ 1002a09c     dCW.obj
 0002:000030a4       ??_C@_05GFHEIIDD@event?$AA@ 1002a0a4     dCW.obj
 0002:000030ac       ??_C@_08DEKMJOIP@receiver?$AA@ 1002a0ac     dCW.obj
 0002:000030b8       ??_C@_06CGHJMPBJ@sender?$AA@ 1002a0b8     dCW.obj
 0002:000030c0       ??_C@_04MEMAJGDJ@name?$AA@ 1002a0c0     dCW.obj
 0002:000030c8       ??_C@_09KHFPHLHC@container?$AA@ 1002a0c8     dCW.obj
 0002:000030d4       ??_C@_0N@HFIGBDIF@testInstance?$AA@ 1002a0d4     dCW.obj
 0002:000030e4       ??_C@_0N@FKBDAGMD@panelmanSize?$AA@ 1002a0e4     dCW.obj
 0002:000030f4       ??_C@_0P@MEGPNDOJ@showTestDialog?$AA@ 1002a0f4     dCW.obj
 0002:00003104       ??_C@_01FJMABOPO@x?$AA@    1002a104     dCW.obj
 0002:00003108       ??_C@_01EANLCPLP@y?$AA@    1002a108     dCW.obj
 0002:0000310c       ??_C@_08DKLLKKFN@gridSize?$AA@ 1002a10c     dCW.obj
 0002:00003118       ??_C@_0M@PGAAEEAH@gridEnabled?$AA@ 1002a118     dCW.obj
 0002:00003124       ??_C@_07BANDPJOM@caption?$AA@ 1002a124     dCW.obj
 0002:0000312c       ??_C@_05IAKJCFIM@style?$AA@ 1002a12c     dCW.obj
 0002:00003134       ??_C@_04GPMDFGEJ@type?$AA@ 1002a134     dCW.obj
 0002:0000313c       ??_C@_0BF@OACBLDGN@Visual?5Editor?5Dialog?$AA@ 1002a13c     dCW.obj
 0002:00003154       ??_C@_0BC@GHFAFPFA@decoration?$DNdialog?$AA@ 1002a154     dCW.obj
 0002:00003168       ??_C@_05CJDMOIIN@path?$DN?$AA@ 1002a168     dCW.obj
 0002:00003170       ??_C@_01NOFIACDB@w?$AA@    1002a170     dCW.obj
 0002:00003174       ??_C@_01BDACAMKP@h?$AA@    1002a174     dCW.obj
 0002:00003178       ??_C@_0BC@ECPPBFDG@decoration?$DNwidget?$AA@ 1002a178     dCW.obj
 0002:0000318c       ??_C@_07NDLGHPLM@setting?$AA@ 1002a18c     dCW.obj
 0002:00003194       ??_C@_05MFEJDJP@value?$AA@ 1002a194     dCW.obj
 0002:0000319c       ??_C@_01NEMOKFLO@?$DN?$AA@ 1002a19c     dCW.obj
 0002:000031a0       ??_C@_0BC@DPCNOCEK@colour?4background?$AA@ 1002a1a0     dCW.obj
 0002:000031b4       ??_C@_06MHMEPCAJ@pixmap?$AA@ 1002a1b4     dCW.obj
 0002:000031bc       ??_C@_0L@KNFJJNGP@scriptfile?$AA@ 1002a1bc     dCW.obj
 0002:000031c8       ??_C@_07MMBOFDEG@control?$AA@ 1002a1c8     dCW.obj
 0002:000031d0       ??_C@_07DFGIDBBA@Control?$AA@ 1002a1d0     dCW.obj
 0002:000031d8       ??_C@_07CBNPCFPB@noclass?$AA@ 1002a1d8     dCW.obj
 0002:000031e0       ??_C@_05ENKANFLO@class?$AA@ 1002a1e0     dCW.obj
 0002:000031e8       ??_C@_0DI@NAOJGHDN@dCW?3?3parseXML?5?9?5can?8t?5create?5wid@ 1002a1e8     dCW.obj
 0002:00003220       ??_C@_0BD@CPIBIKLB@bncs_script_loader?$AA@ 1002a220     dCW.obj
 0002:00003234       ??_C@_0O@HHHPDAHL@scaling?$DN?$CF1?$DL?$CF2?$AA@ 1002a234     dCW.obj
 0002:00003244       ??_C@_0BA@MCOPEKKG@scaleWithCanvas?$AA@ 1002a244     dCW.obj
 0002:00003254       ??_C@_0BE@FFNKEHMA@scaleFontWithCanvas?$AA@ 1002a254     dCW.obj
 0002:00003268       ??_C@_0BJ@JHDEJOJK@scaleFontWithCanvas?$DNtrue?$AA@ 1002a268     dCW.obj
 0002:00003284       ??_C@_0BK@BGMCIEFI@dcw?4setting?4captions?$DNtrue?$AA@ 1002a284     dCW.obj
 0002:000032a0       ??_C@_09CLLIAJGC@bncs_enum?$AA@ 1002a2a0     dCW.obj
 0002:000032ac       ??_C@_0N@HACHFKKL@bncs_control?$AA@ 1002a2ac     dCW.obj
 0002:000032bc       ??_C@_0N@LCDGACKE@scaleFont?$DN?$CF1?$AA@ 1002a2bc     dCW.obj
 0002:000032cc       ??_C@_0BL@CBMIANLF@dcw?4setting?4captions?$DNfalse?$AA@ 1002a2cc     dCW.obj
 0002:000032e8       ??_C@_0BE@HKPEJDMF@bncs_client_runtime?$AA@ 1002a2e8     dCW.obj
 0002:000032fc       ??_C@_02ELHCDOPK@UI?$AA@   1002a2fc     dCW.obj
 0002:00003300       ??_C@_03OPIBJLCE@DLL?$AA@  1002a300     dCW.obj
 0002:00003304       ??_C@_01LFCBOECM@?4?$AA@   1002a304     dCW.obj
 0002:00003308       ??_C@_0M@NDNHMDCD@scriptname?$DN?$AA@ 1002a308     dCW.obj
 0002:00003314       ??_C@_0BK@NDGGPGBF@?5can?8t?5create?5dll?5script?3?$AA@ 1002a314     dCW.obj
 0002:00003330       ??_C@_03IMGMFFHJ@LUA?$AA@  1002a330     dCW.obj
 0002:00003334       ??_C@_0L@OPHPMHLF@lua_loader?$AA@ 1002a334     dCW.obj
 0002:00003340       ??_C@_0BK@PFCPPBBF@?5can?8t?5create?5lua?5script?3?$AA@ 1002a340     dCW.obj
 0002:0000335c       ??_C@_07MLIMCBBI@BNCS_UI?$AA@ 1002a35c     dCW.obj
 0002:00003364       ??_C@_02LMMGJAGL@in?$AA@   1002a364     dCW.obj
 0002:00003368       ??_C@_0EB@CHOLFCPP@dCW?3?3create?3Can?8t?5set?5content?5fo@ 1002a368     dCW.obj
 0002:000033ac       ??_C@_0BA@MEJCCFJE@?$CC?5?$CIparse?5error?$CJ?$AA@ 1002a3ac     dCW.obj
 0002:000033bc       ??_C@_0BM@NDDBGCNO@dCW?3?3create?3Couldn?8t?5load?5?$CC?$AA@ 1002a3bc     dCW.obj
 0002:000033d8       ??_C@_0BD@PPHDIFCC@?$CC?5?$CIpath?5not?5found?$CJ?$AA@ 1002a3d8     dCW.obj
 0002:000033ec       ??_C@_0BN@PKCKOLAE@dCW?3?3create?3Couldn?8t?5load?3?5?$CC?$AA@ 1002a3ec     dCW.obj
 0002:0000340c       ??_C@_02PIGFKFFE@?$CF1?$AA@ 1002a40c     dCW.obj
 0002:00003410       ??_C@_0N@ENLBDDCH@CC_DEVELOPER?$AA@ 1002a410     dCW.obj
 0002:00003420       ??_C@_04LOAJBDKD@true?$AA@ 1002a420     dCW.obj
 0002:00003428       __real@0000000000000000    1002a428     dCW.obj
 0002:00003430       __real@3fe0000000000000    1002a430     dCW.obj
 0002:00003438       __real@3ff0000000000000    1002a438     dCW.obj
 0002:00003440       __xmm@3ff00000000000003ff0000000000000 1002a440     dCW.obj
 0002:00003454       ??_7notifyWrangler@@6B@    1002a454     notifyWrangler.obj
 0002:00003458       ??_C@_0O@OBJMHIMF@?2?$FLsub?$FL0?99?$FN?$CL?2?$FN?$AA@ 1002a458     notifyWrangler.obj
 0002:00003468       ??_C@_04HAPLAOFE@?$FLid?$FN?$AA@ 1002a468     notifyWrangler.obj
 0002:00003470       ??_C@_04HEOJCEGB@?$FLid?4?$AA@ 1002a470     notifyWrangler.obj
 0002:00003478       ??_C@_01LBDDMOBJ@?$FN?$AA@ 1002a478     notifyWrangler.obj
 0002:0000347c       ??_C@_06HAALCKOF@what?5?$CC?$AA@ 1002a47c     notifyWrangler.obj
 0002:00003484       ??_C@_02MHOFKBJM@?$FL?$CC?$AA@ 1002a484     notifyWrangler.obj
 0002:00003488       ??_C@_07LEPGBGHJ@?$FLintid?$FN?$AA@ 1002a488     notifyWrangler.obj
 0002:00003490       ??_C@_09FAMPEKMJ@?$FLcommand?$FN?$AA@ 1002a490     notifyWrangler.obj
 0002:0000349c       ??_C@_07JPKLBGNI@?$FLvalue?$FN?$AA@ 1002a49c     notifyWrangler.obj
 0002:000034a4       ??_C@_07OFDADDNC@return?$DN?$AA@ 1002a4a4     notifyWrangler.obj
 0002:000034b0       ??_C@_0EB@HGIAMDOP@notifyWrangler?3?3textGet?5?9?5asked?5@ 1002a4b0     notifyWrangler.obj
 0002:000034f8       ??_7connectionDebugDlgBase@@6BQObject@@@ 1002a4f8     connectiondebugdlg.obj
 0002:000036bc       ??_7connectionDebugDlgBase@@6BQPaintDevice@@@ 1002a6bc     connectiondebugdlg.obj
 0002:000036e4       ??_SQTextEdit@@6BQObject@@@ 1002a6e4     connectiondebugdlg.obj
 0002:00003a60       ??_SQTextEdit@@6BQPaintDevice@@@ 1002aa60     connectiondebugdlg.obj
 0002:00003a84       ??_SQCheckBox@@6BQObject@@@ 1002aa84     connectiondebugdlg.obj
 0002:00003c64       ??_SQCheckBox@@6BQPaintDevice@@@ 1002ac64     connectiondebugdlg.obj
 0002:00003c8c       ??_SQPushButton@@6BQObject@@@ 1002ac8c     connectiondebugdlg.obj
 0002:00003e7c       ??_SQPushButton@@6BQPaintDevice@@@ 1002ae7c     connectiondebugdlg.obj
 0002:00003ea4       ??_SQSpacerItem@@6B@       1002aea4     connectiondebugdlg.obj
 0002:00003eec       ??_SQHBoxLayout@@6BQObject@@@ 1002aeec     connectiondebugdlg.obj
 0002:00003f54       ??_SQHBoxLayout@@6BQLayoutItem@@@ 1002af54     connectiondebugdlg.obj
 0002:00003f9c       ??_SQVBoxLayout@@6BQObject@@@ 1002af9c     connectiondebugdlg.obj
 0002:00004004       ??_SQVBoxLayout@@6BQLayoutItem@@@ 1002b004     connectiondebugdlg.obj
 0002:00004044       ??_C@_0BH@OIECNPKC@connectionDebugDlgBase?$AA@ 1002b044     connectiondebugdlg.obj
 0002:0000405c       ??_C@_0BN@HHAPJJD@connectionDebugDlgBaseLayout?$AA@ 1002b05c     connectiondebugdlg.obj
 0002:0000407c       ??_C@_09HCBNDNHI@textEdit1?$AA@ 1002b07c     connectiondebugdlg.obj
 0002:00004088       ??_C@_05MPFIAJAP@Arial?$AA@ 1002b088     connectiondebugdlg.obj
 0002:00004090       ??_C@_07OFHOKKPF@layout2?$AA@ 1002b090     connectiondebugdlg.obj
 0002:00004098       ??_C@_0BE@FKECDKDE@cbShowIncomingEvent?$AA@ 1002b098     connectiondebugdlg.obj
 0002:000040ac       ??_C@_0BB@KBDJMHKD@cbScrollToBottom?$AA@ 1002b0ac     connectiondebugdlg.obj
 0002:000040c0       ??_C@_0M@MCHDFIPO@buttonClear?$AA@ 1002b0c0     connectiondebugdlg.obj
 0002:000040cc       ??_C@_0BD@JNIMEDNM@connectionDebugDlg?$AA@ 1002b0cc     connectiondebugdlg.obj
 0002:000040e0       ??_C@_0BF@DOILHKNO@Show?5incoming?5events?$AA@ 1002b0e0     connectiondebugdlg.obj
 0002:000040f8       ??_C@_0BB@OPLIDGNO@Scroll?5To?5Bottom?$AA@ 1002b0f8     connectiondebugdlg.obj
 0002:0000410c       ??_C@_05MDNHABIA@Clear?$AA@ 1002b10c     connectiondebugdlg.obj
 0002:00004120       ??_C@_08DHDADEEH@notifyIn?$AA@ 1002b120     moc_bncs_client_runtime.obj
 0002:00004138       ??_C@_0N@NPDBHCDB@cdbDestroyed?$AA@ 1002b138     moc_bncs_client_runtime.obj
 0002:00004154       ??_C@_0BE@IMCNAMJI@doShowIncomingEvent?$AA@ 1002b154     moc_bncs_client_runtime.obj
 0002:0000418c       ??_C@_0BD@ECIHBICE@notifyIn?$CIQString?$CG?$CJ?$AA@ 1002b18c     moc_bncs_client_runtime.obj
 0002:000041a0       ??_C@_0P@KEOEACA@cdbDestroyed?$CI?$CJ?$AA@ 1002b1a0     moc_bncs_client_runtime.obj
 0002:000041b0       ??_C@_0BK@EKHAJPOE@doShowIncomingEvent?$CIbool?$CJ?$AA@ 1002b1b0     moc_bncs_client_runtime.obj
 0002:000041d8       ??_C@_06LIGDCBBN@notify?$AA@ 1002b1d8     moc_bncs_client_runtime.obj
 0002:000041ec       ??_C@_0BB@KPBBGHKF@notify?$CIQString?$CG?$CJ?$AA@ 1002b1ec     moc_bncs_client_runtime.obj
 0002:00004200       ??_C@_0BB@PPKHGKIE@IccTimerCallback?$AA@ 1002b200     moc_bncs_client_runtime.obj
 0002:00004220       ??_C@_0P@DMEOIADN@languageChange?$AA@ 1002b220     moc_connectiondebugdlg.obj
 0002:0000423c       ??_C@_0BB@PFEIHPGD@languageChange?$CI?$CJ?$AA@ 1002b23c     moc_connectiondebugdlg.obj
 0002:0000425c       ??_C@_0O@MMNODDPH@doButtonClear?$AA@ 1002b25c     moc_connectiondebugdlgimpl.obj
 0002:00004278       ??_C@_0P@KJFOKPAJ@scrollToBottom?$AA@ 1002b278     moc_connectiondebugdlgimpl.obj
 0002:000042a0       ??_C@_0BA@JGDFFCAB@doButtonClear?$CI?$CJ?$AA@ 1002b2a0     moc_connectiondebugdlgimpl.obj
 0002:000042b0       ??_C@_0BF@OMMBDEDN@scrollToBottom?$CIbool?$CJ?$AA@ 1002b2b0     moc_connectiondebugdlgimpl.obj
 0002:000042d4       ??_C@_0BC@PAFPPHNO@showIncomingEvent?$AA@ 1002b2d4     moc_connectiondebugdlgimpl.obj
 0002:000042f4       ??_C@_0BI@DAEIOOPK@showIncomingEvent?$CIbool?$CJ?$AA@ 1002b2f4     moc_connectiondebugdlgimpl.obj
 0002:00004310       ??_7?$QPtrList@VQWidgetFactory@@@@6B@ 1002b310     qui:qwidgetfactory.obj
 0002:00004330       ??_7QWidgetFactory@@6B@    1002b330     qui:qwidgetfactory.obj
 0002:00004338       ??_7?$QPtrList@VQAction@@@@6B@ 1002b338     qui:qwidgetfactory.obj
 0002:00004358       ??_7?$QDict@_N@@6B@        1002b358     qui:qwidgetfactory.obj
 0002:00004374       ??_SQSqlCursor@@6BQSqlQuery@@@ 1002b374     qui:qwidgetfactory.obj
 0002:0000439c       ??_SQSqlCursor@@6BQSqlRecord@@@ 1002b39c     qui:qwidgetfactory.obj
 0002:00004440       ??_SQListBoxPixmap@@6B@    1002b440     qui:qwidgetfactory.obj
 0002:00004460       ??_SQListBoxText@@6B@      1002b460     qui:qwidgetfactory.obj
 0002:00004480       ??_SQIconViewItem@@6B@     1002b480     qui:qwidgetfactory.obj
 0002:00004500       ??_SQPopupMenu@@6B@        1002b500     qui:qwidgetfactory.obj
 0002:00004520       ??_SQPopupMenu@@6BQPaintDevice@@@ 1002b520     qui:qwidgetfactory.obj
 0002:00004540       ??_SQPopupMenu@@6BQObject@@@ 1002b540     qui:qwidgetfactory.obj
 0002:0000471c       ??_SQToolBar@@6BQPaintDevice@@@ 1002b71c     qui:qwidgetfactory.obj
 0002:0000473c       ??_SQToolBar@@6BQObject@@@ 1002b73c     qui:qwidgetfactory.obj
 0002:00004954       ??_SQAction@@6B@           1002b954     qui:qwidgetfactory.obj
 0002:000049dc       ??_SQActionGroup@@6B@      1002b9dc     qui:qwidgetfactory.obj
 0002:00004a6c       ??_SQLabel@@6BQPaintDevice@@@ 1002ba6c     qui:qwidgetfactory.obj
 0002:00004a8c       ??_SQLabel@@6BQObject@@@   1002ba8c     qui:qwidgetfactory.obj
 0002:00004c80       ??_SQDataTable@@6BQPaintDevice@@@ 1002bc80     qui:qwidgetfactory.obj
 0002:00004ca0       ??_SQDataTable@@6BQObject@@@ 1002bca0     qui:qwidgetfactory.obj
 0002:000050bc       ??_SQMainWindow@@6BQPaintDevice@@@ 1002c0bc     qui:qwidgetfactory.obj
 0002:000050dc       ??_SQMainWindow@@6BQObject@@@ 1002c0dc     qui:qwidgetfactory.obj
 0002:000052ec       ??_SQGrid@@6BQPaintDevice@@@ 1002c2ec     qui:qwidgetfactory.obj
 0002:0000530c       ??_SQGrid@@6BQObject@@@    1002c30c     qui:qwidgetfactory.obj
 0002:000054dc       ??_SQHBox@@6BQPaintDevice@@@ 1002c4dc     qui:qwidgetfactory.obj
 0002:000054fc       ??_SQHBox@@6BQObject@@@    1002c4fc     qui:qwidgetfactory.obj
 0002:000056cc       ??_SQVBox@@6BQPaintDevice@@@ 1002c6cc     qui:qwidgetfactory.obj
 0002:000056ec       ??_SQVBox@@6BQObject@@@    1002c6ec     qui:qwidgetfactory.obj
 0002:000058bc       ??_SQToolBox@@6BQPaintDevice@@@ 1002c8bc     qui:qwidgetfactory.obj
 0002:000058dc       ??_SQToolBox@@6BQObject@@@ 1002c8dc     qui:qwidgetfactory.obj
 0002:00005ab4       ??_SQWidgetStack@@6BQPaintDevice@@@ 1002cab4     qui:qwidgetfactory.obj
 0002:00005ad4       ??_SQWidgetStack@@6BQObject@@@ 1002cad4     qui:qwidgetfactory.obj
 0002:00005ca8       ??_SQScrollBar@@6B@        1002cca8     qui:qwidgetfactory.obj
 0002:00005cb8       ??_SQScrollBar@@6BQPaintDevice@@@ 1002ccb8     qui:qwidgetfactory.obj
 0002:00005cd8       ??_SQScrollBar@@6BQObject@@@ 1002ccd8     qui:qwidgetfactory.obj
 0002:00005e90       ??_SQDateTimeEdit@@6BQPaintDevice@@@ 1002ce90     qui:qwidgetfactory.obj
 0002:00005eb0       ??_SQDateTimeEdit@@6BQObject@@@ 1002ceb0     qui:qwidgetfactory.obj
 0002:00006068       ??_SQTimeEdit@@6BQPaintDevice@@@ 1002d068     qui:qwidgetfactory.obj
 0002:00006088       ??_SQTimeEdit@@6BQObject@@@ 1002d088     qui:qwidgetfactory.obj
 0002:00006278       ??_SQDateEdit@@6BQPaintDevice@@@ 1002d278     qui:qwidgetfactory.obj
 0002:00006298       ??_SQDateEdit@@6BQObject@@@ 1002d298     qui:qwidgetfactory.obj
 0002:00006490       ??_SQSplitter@@6BQPaintDevice@@@ 1002d490     qui:qwidgetfactory.obj
 0002:000064b0       ??_SQSplitter@@6BQObject@@@ 1002d4b0     qui:qwidgetfactory.obj
 0002:00006694       ??_SQFrame@@6BQPaintDevice@@@ 1002d694     qui:qwidgetfactory.obj
 0002:000066b4       ??_SQFrame@@6BQObject@@@   1002d6b4     qui:qwidgetfactory.obj
 0002:00006884       ??_SQSlider@@6B@           1002d884     qui:qwidgetfactory.obj
 0002:00006894       ??_SQSlider@@6BQPaintDevice@@@ 1002d894     qui:qwidgetfactory.obj
 0002:000068b4       ??_SQSlider@@6BQObject@@@  1002d8b4     qui:qwidgetfactory.obj
 0002:00006a78       ??_SQDial@@6B@             1002da78     qui:qwidgetfactory.obj
 0002:00006a88       ??_SQDial@@6BQPaintDevice@@@ 1002da88     qui:qwidgetfactory.obj
 0002:00006aa8       ??_SQDial@@6BQObject@@@    1002daa8     qui:qwidgetfactory.obj
 0002:00006c70       ??_SQTextBrowser@@6BQPaintDevice@@@ 1002dc70     qui:qwidgetfactory.obj
 0002:00006c90       ??_SQTextBrowser@@6BQObject@@@ 1002dc90     qui:qwidgetfactory.obj
 0002:0000701c       ??_SQTextView@@6BQPaintDevice@@@ 1002e01c     qui:qwidgetfactory.obj
 0002:0000703c       ??_SQTextView@@6BQObject@@@ 1002e03c     qui:qwidgetfactory.obj
 0002:000073b4       ??_SQProgressBar@@6BQPaintDevice@@@ 1002e3b4     qui:qwidgetfactory.obj
 0002:000073d4       ??_SQProgressBar@@6BQObject@@@ 1002e3d4     qui:qwidgetfactory.obj
 0002:000075b0       ??_SQLCDNumber@@6BQPaintDevice@@@ 1002e5b0     qui:qwidgetfactory.obj
 0002:000075d0       ??_SQLCDNumber@@6BQObject@@@ 1002e5d0     qui:qwidgetfactory.obj
 0002:000077c0       ??_SQWizard@@6BQPaintDevice@@@ 1002e7c0     qui:qwidgetfactory.obj
 0002:000077e0       ??_SQWizard@@6BQObject@@@  1002e7e0     qui:qwidgetfactory.obj
 0002:000079dc       ??_SQDialog@@6BQPaintDevice@@@ 1002e9dc     qui:qwidgetfactory.obj
 0002:000079fc       ??_SQDialog@@6BQObject@@@  1002e9fc     qui:qwidgetfactory.obj
 0002:00007bb8       ??_SQComboBox@@6BQPaintDevice@@@ 1002ebb8     qui:qwidgetfactory.obj
 0002:00007bd8       ??_SQComboBox@@6BQObject@@@ 1002ebd8     qui:qwidgetfactory.obj
 0002:00007db8       ??_SQTabWidget@@6BQPaintDevice@@@ 1002edb8     qui:qwidgetfactory.obj
 0002:00007dd8       ??_SQTabWidget@@6BQObject@@@ 1002edd8     qui:qwidgetfactory.obj
 0002:00007fa8       ??_SQWidget@@6BQPaintDevice@@@ 1002efa8     qui:qwidgetfactory.obj
 0002:00007fc8       ??_SQWidget@@6BQObject@@@  1002efc8     qui:qwidgetfactory.obj
 0002:00008178       ??_SQMultiLineEdit@@6BQPaintDevice@@@ 1002f178     qui:qwidgetfactory.obj
 0002:00008198       ??_SQMultiLineEdit@@6BQObject@@@ 1002f198     qui:qwidgetfactory.obj
 0002:00008554       ??_SQSpinBox@@6B@          1002f554     qui:qwidgetfactory.obj
 0002:00008564       ??_SQSpinBox@@6BQPaintDevice@@@ 1002f564     qui:qwidgetfactory.obj
 0002:00008584       ??_SQSpinBox@@6BQObject@@@ 1002f584     qui:qwidgetfactory.obj
 0002:00008778       ??_SQLineEdit@@6BQPaintDevice@@@ 1002f778     qui:qwidgetfactory.obj
 0002:00008798       ??_SQLineEdit@@6BQObject@@@ 1002f798     qui:qwidgetfactory.obj
 0002:000089bc       ??_SQListView@@6BQPaintDevice@@@ 1002f9bc     qui:qwidgetfactory.obj
 0002:000089dc       ??_SQListView@@6BQObject@@@ 1002f9dc     qui:qwidgetfactory.obj
 0002:00008cbc       ??_SQListBox@@6BQPaintDevice@@@ 1002fcbc     qui:qwidgetfactory.obj
 0002:00008cdc       ??_SQListBox@@6BQObject@@@ 1002fcdc     qui:qwidgetfactory.obj
 0002:00008f80       ??_SQTable@@6BQPaintDevice@@@ 1002ff80     qui:qwidgetfactory.obj
 0002:00008fa0       ??_SQTable@@6BQObject@@@   1002ffa0     qui:qwidgetfactory.obj
 0002:0000933c       ??_SQIconView@@6BQPaintDevice@@@ 1003033c     qui:qwidgetfactory.obj
 0002:0000935c       ??_SQIconView@@6BQObject@@@ 1003035c     qui:qwidgetfactory.obj
 0002:00009650       ??_SQButtonGroup@@6BQPaintDevice@@@ 10030650     qui:qwidgetfactory.obj
 0002:00009670       ??_SQButtonGroup@@6BQObject@@@ 10030670     qui:qwidgetfactory.obj
 0002:0000985c       ??_SQGroupBox@@6BQPaintDevice@@@ 1003085c     qui:qwidgetfactory.obj
 0002:0000987c       ??_SQGroupBox@@6BQObject@@@ 1003087c     qui:qwidgetfactory.obj
 0002:00009a58       ??_SQRadioButton@@6BQPaintDevice@@@ 10030a58     qui:qwidgetfactory.obj
 0002:00009a78       ??_SQRadioButton@@6BQObject@@@ 10030a78     qui:qwidgetfactory.obj
 0002:00009c58       ??_SQToolButton@@6BQPaintDevice@@@ 10030c58     qui:qwidgetfactory.obj
 0002:00009c78       ??_SQToolButton@@6BQObject@@@ 10030c78     qui:qwidgetfactory.obj
 0002:00009e6c       ??_SQGridLayout@@6BQLayoutItem@@@ 10030e6c     qui:qwidgetfactory.obj
 0002:00009eac       ??_SQGridLayout@@6BQObject@@@ 10030eac     qui:qwidgetfactory.obj
 0002:00009f18       ??_SQListViewItem@@6B@     10030f18     qui:qwidgetfactory.obj
 0002:00009fb0       ??_7?$QValueListPrivate@UField@QWidgetFactory@@@@6B@ 10030fb0     qui:qwidgetfactory.obj
 0002:00009fb0       ??_7?$QValueListPrivate@VQPixmap@@@@6B@ 10030fb0     qui:qwidgetfactory.obj
 0002:00009fb0       ??_7?$QValueListPrivate@UImage@QWidgetFactory@@@@6B@ 10030fb0     qui:qwidgetfactory.obj
 0002:00009fb4       ??_7?$QValueListNode@UField@QWidgetFactory@@@@6B@ 10030fb4     qui:qwidgetfactory.obj
 0002:00009fb8       ??_7?$QValueListNode@VQPixmap@@@@6B@ 10030fb8     qui:qwidgetfactory.obj
 0002:00009fbc       ??_7?$QValueListNode@UImage@QWidgetFactory@@@@6B@ 10030fbc     qui:qwidgetfactory.obj
 0002:00009fc0       ??_7DatabaseSupport2@@6B@  10030fc0     qui:database.obj
 0002:00009fc4       ??_SQSqlForm@@6B@          10030fc4     qui:database.obj
 0002:0000a044       ??_7QDesignerDataBrowser2@@6BQPaintDevice@@@ 10031044     qui:database.obj
 0002:0000a064       ??_7QDesignerDataBrowser2@@6BQObject@@@ 10031064     qui:database.obj
 0002:0000a284       ??_7QDesignerDataBrowser2@@6B@ 10031284     qui:database.obj
 0002:0000a288       ??_7QDesignerDataView2@@6BQPaintDevice@@@ 10031288     qui:database.obj
 0002:0000a2a8       ??_7QDesignerDataView2@@6BQObject@@@ 100312a8     qui:database.obj
 0002:0000a470       ??_7QDesignerDataView2@@6B@ 10031470     qui:database.obj
 0002:0000a478       __real@8@4000c000000000000000 10031478     qui:domtool.obj
 0002:0000a618       ??_7type_info@@6B@         10031618     MSVCRT:ti_inst.obj
 0002:0000a61c       __pRawDllMain              1003161c     MSVCRT:crtdll.obj
 0002:0000a61c       __pDefaultRawDllMain       1003161c     MSVCRT:crtdll.obj
 0002:0000a628       __load_config_used         10031628     MSVCRT:loadcfg.obj
 0002:0000a670       ??_R13?0A@EA@QShared@@8    10031670     bncs_client_runtime.obj
 0002:0000a68c       ??_R3QShared@@8            1003168c     bncs_client_runtime.obj
 0002:0000a69c       ??_R2QShared@@8            1003169c     bncs_client_runtime.obj
 0002:0000a6a4       ??_R1A@?0A@EA@QShared@@8   100316a4     bncs_client_runtime.obj
 0002:0000a6c0       ??_R1A@?0A@EA@QGList@@8    100316c0     bncs_client_runtime.obj
 0002:0000a6dc       ??_R3QGList@@8             100316dc     bncs_client_runtime.obj
 0002:0000a6ec       ??_R2QGList@@8             100316ec     bncs_client_runtime.obj
 0002:0000a6f8       ??_R1A@?0A@EA@QPtrCollection@@8 100316f8     bncs_client_runtime.obj
 0002:0000a714       ??_R3QPtrCollection@@8     10031714     bncs_client_runtime.obj
 0002:0000a724       ??_R2QPtrCollection@@8     10031724     bncs_client_runtime.obj
 0002:0000a72c       ??_R4error_category@std@@6B@ 1003172c     bncs_client_runtime.obj
 0002:0000a740       ??_R3error_category@std@@8 10031740     bncs_client_runtime.obj
 0002:0000a750       ??_R2error_category@std@@8 10031750     bncs_client_runtime.obj
 0002:0000a758       ??_R1A@?0A@EA@error_category@std@@8 10031758     bncs_client_runtime.obj
 0002:0000a774       ??_R4_Generic_error_category@std@@6B@ 10031774     bncs_client_runtime.obj
 0002:0000a788       ??_R3_Generic_error_category@std@@8 10031788     bncs_client_runtime.obj
 0002:0000a798       ??_R2_Generic_error_category@std@@8 10031798     bncs_client_runtime.obj
 0002:0000a7a4       ??_R1A@?0A@EA@_Generic_error_category@std@@8 100317a4     bncs_client_runtime.obj
 0002:0000a7c0       ??_R4_Iostream_error_category@std@@6B@ 100317c0     bncs_client_runtime.obj
 0002:0000a7d4       ??_R3_Iostream_error_category@std@@8 100317d4     bncs_client_runtime.obj
 0002:0000a7e4       ??_R2_Iostream_error_category@std@@8 100317e4     bncs_client_runtime.obj
 0002:0000a7f4       ??_R1A@?0A@EA@_Iostream_error_category@std@@8 100317f4     bncs_client_runtime.obj
 0002:0000a810       ??_R4_System_error_category@std@@6B@ 10031810     bncs_client_runtime.obj
 0002:0000a824       ??_R3_System_error_category@std@@8 10031824     bncs_client_runtime.obj
 0002:0000a834       ??_R2_System_error_category@std@@8 10031834     bncs_client_runtime.obj
 0002:0000a844       ??_R1A@?0A@EA@_System_error_category@std@@8 10031844     bncs_client_runtime.obj
 0002:0000a860       ??_R4signalConnectionRefList@@6B@ 10031860     bncs_client_runtime.obj
 0002:0000a874       ??_R3signalConnectionRefList@@8 10031874     bncs_client_runtime.obj
 0002:0000a884       ??_R2signalConnectionRefList@@8 10031884     bncs_client_runtime.obj
 0002:0000a898       ??_R1A@?0A@EA@signalConnectionRefList@@8 10031898     bncs_client_runtime.obj
 0002:0000a8b4       ??_R1A@?0A@EA@?$QPtrList@VsignalConnection@@@@8 100318b4     bncs_client_runtime.obj
 0002:0000a8d0       ??_R3?$QPtrList@VsignalConnection@@@@8 100318d0     bncs_client_runtime.obj
 0002:0000a8e0       ??_R2?$QPtrList@VsignalConnection@@@@8 100318e0     bncs_client_runtime.obj
 0002:0000a8f0       ??_R4?$QPtrList@VsignalConnection@@@@6B@ 100318f0     bncs_client_runtime.obj
 0002:0000a904       ??_R4IdCWlimits@@6B@       10031904     bncs_client_runtime.obj
 0002:0000a918       ??_R3IdCWlimits@@8         10031918     bncs_client_runtime.obj
 0002:0000a928       ??_R2IdCWlimits@@8         10031928     bncs_client_runtime.obj
 0002:0000a930       ??_R1A@?0A@EA@IdCWlimits@@8 10031930     bncs_client_runtime.obj
 0002:0000a94c       ??_R4dCW@@6B@              1003194c     bncs_client_runtime.obj
 0002:0000a960       ??_R3dCW@@8                10031960     bncs_client_runtime.obj
 0002:0000a970       ??_R2dCW@@8                10031970     bncs_client_runtime.obj
 0002:0000a978       ??_R1A@?0A@EA@dCW@@8       10031978     bncs_client_runtime.obj
 0002:0000a994       ??_R4IccTimerCallback@@6B@ 10031994     bncs_client_runtime.obj
 0002:0000a9a8       ??_R3IccTimerCallback@@8   100319a8     bncs_client_runtime.obj
 0002:0000a9b8       ??_R2IccTimerCallback@@8   100319b8     bncs_client_runtime.obj
 0002:0000a9c0       ??_R1A@?0A@EA@IccTimerCallback@@8 100319c0     bncs_client_runtime.obj
 0002:0000a9dc       ??_R4bncs_client_runtime@@6BQObject@@@ 100319dc     bncs_client_runtime.obj
 0002:0000a9f0       ??_R3bncs_client_runtime@@8 100319f0     bncs_client_runtime.obj
 0002:0000aa00       ??_R2bncs_client_runtime@@8 10031a00     bncs_client_runtime.obj
 0002:0000aa1c       ??_R1A@?0A@EA@bncs_client_runtime@@8 10031a1c     bncs_client_runtime.obj
 0002:0000aa38       ??_R1A@?0A@EA@QWidget@@8   10031a38     bncs_client_runtime.obj
 0002:0000aa54       ??_R3QWidget@@8            10031a54     bncs_client_runtime.obj
 0002:0000aa64       ??_R2QWidget@@8            10031a64     bncs_client_runtime.obj
 0002:0000aa78       ??_R1A@?0A@EA@QObject@@8   10031a78     bncs_client_runtime.obj
 0002:0000aa94       ??_R3QObject@@8            10031a94     bncs_client_runtime.obj
 0002:0000aaa4       ??_R2QObject@@8            10031aa4     bncs_client_runtime.obj
 0002:0000aab0       ??_R13?0A@EA@Qt@@8         10031ab0     bncs_client_runtime.obj
 0002:0000aacc       ??_R3Qt@@8                 10031acc     bncs_client_runtime.obj
 0002:0000aadc       ??_R2Qt@@8                 10031adc     bncs_client_runtime.obj
 0002:0000aae4       ??_R1A@?0A@EA@Qt@@8        10031ae4     bncs_client_runtime.obj
 0002:0000ab00       ??_R1CI@?0A@EA@QPaintDevice@@8 10031b00     bncs_client_runtime.obj
 0002:0000ab1c       ??_R3QPaintDevice@@8       10031b1c     bncs_client_runtime.obj
 0002:0000ab2c       ??_R2QPaintDevice@@8       10031b2c     bncs_client_runtime.obj
 0002:0000ab34       ??_R1A@?0A@EA@QPaintDevice@@8 10031b34     bncs_client_runtime.obj
 0002:0000ab50       ??_R1GM@?0A@EN@IccTimerCallback@@8 10031b50     bncs_client_runtime.obj
 0002:0000ab6c       ??_R4bncs_client_runtime@@6BQPaintDevice@@@ 10031b6c     bncs_client_runtime.obj
 0002:0000ab80       ??_R4bncs_client_runtime@@6B@ 10031b80     bncs_client_runtime.obj
 0002:0000ab94       ??_R4?$QValueListPrivate@VparamInfo@@@@6B@ 10031b94     bncs_client_runtime.obj
 0002:0000aba8       ??_R3?$QValueListPrivate@VparamInfo@@@@8 10031ba8     bncs_client_runtime.obj
 0002:0000abb8       ??_R2?$QValueListPrivate@VparamInfo@@@@8 10031bb8     bncs_client_runtime.obj
 0002:0000abc4       ??_R1A@?0A@EA@?$QValueListPrivate@VparamInfo@@@@8 10031bc4     bncs_client_runtime.obj
 0002:0000abe0       ??_R4?$QValueListNode@VparamInfo@@@@6B@ 10031be0     bncs_client_runtime.obj
 0002:0000abf4       ??_R3?$QValueListNode@VparamInfo@@@@8 10031bf4     bncs_client_runtime.obj
 0002:0000ac04       ??_R2?$QValueListNode@VparamInfo@@@@8 10031c04     bncs_client_runtime.obj
 0002:0000ac0c       ??_R1A@?0A@EA@?$QValueListNode@VparamInfo@@@@8 10031c0c     bncs_client_runtime.obj
 0002:0000ac28       ??_R4?$QValueListPrivate@VcomplexParam@@@@6B@ 10031c28     bncs_client_runtime.obj
 0002:0000ac3c       ??_R3?$QValueListPrivate@VcomplexParam@@@@8 10031c3c     bncs_client_runtime.obj
 0002:0000ac4c       ??_R2?$QValueListPrivate@VcomplexParam@@@@8 10031c4c     bncs_client_runtime.obj
 0002:0000ac58       ??_R1A@?0A@EA@?$QValueListPrivate@VcomplexParam@@@@8 10031c58     bncs_client_runtime.obj
 0002:0000ac74       ??_R4?$QValueListNode@VcomplexParam@@@@6B@ 10031c74     bncs_client_runtime.obj
 0002:0000ac88       ??_R3?$QValueListNode@VcomplexParam@@@@8 10031c88     bncs_client_runtime.obj
 0002:0000ac98       ??_R2?$QValueListNode@VcomplexParam@@@@8 10031c98     bncs_client_runtime.obj
 0002:0000aca0       ??_R1A@?0A@EA@?$QValueListNode@VcomplexParam@@@@8 10031ca0     bncs_client_runtime.obj
 0002:0000acbc       ??_R4?$QValueListPrivate@VcomplexInstance@@@@6B@ 10031cbc     bncs_client_runtime.obj
 0002:0000acd0       ??_R3?$QValueListPrivate@VcomplexInstance@@@@8 10031cd0     bncs_client_runtime.obj
 0002:0000ace0       ??_R2?$QValueListPrivate@VcomplexInstance@@@@8 10031ce0     bncs_client_runtime.obj
 0002:0000acec       ??_R1A@?0A@EA@?$QValueListPrivate@VcomplexInstance@@@@8 10031cec     bncs_client_runtime.obj
 0002:0000ad08       ??_R4?$QValueListNode@VcomplexInstance@@@@6B@ 10031d08     bncs_client_runtime.obj
 0002:0000ad1c       ??_R3?$QValueListNode@VcomplexInstance@@@@8 10031d1c     bncs_client_runtime.obj
 0002:0000ad2c       ??_R2?$QValueListNode@VcomplexInstance@@@@8 10031d2c     bncs_client_runtime.obj
 0002:0000ad34       ??_R1A@?0A@EA@?$QValueListNode@VcomplexInstance@@@@8 10031d34     bncs_client_runtime.obj
 0002:0000ad50       ??_R4?$QValueListPrivate@VinstanceInfo@@@@6B@ 10031d50     bncs_client_runtime.obj
 0002:0000ad64       ??_R3?$QValueListPrivate@VinstanceInfo@@@@8 10031d64     bncs_client_runtime.obj
 0002:0000ad74       ??_R2?$QValueListPrivate@VinstanceInfo@@@@8 10031d74     bncs_client_runtime.obj
 0002:0000ad80       ??_R1A@?0A@EA@?$QValueListPrivate@VinstanceInfo@@@@8 10031d80     bncs_client_runtime.obj
 0002:0000ad9c       ??_R4?$QValueListNode@VinstanceInfo@@@@6B@ 10031d9c     bncs_client_runtime.obj
 0002:0000adb0       ??_R3?$QValueListNode@VinstanceInfo@@@@8 10031db0     bncs_client_runtime.obj
 0002:0000adc0       ??_R2?$QValueListNode@VinstanceInfo@@@@8 10031dc0     bncs_client_runtime.obj
 0002:0000adc8       ??_R1A@?0A@EA@?$QValueListNode@VinstanceInfo@@@@8 10031dc8     bncs_client_runtime.obj
 0002:0000ade4       ??_R4?$QValueListPrivate@VdeviceTypeInfo@@@@6B@ 10031de4     bncs_client_runtime.obj
 0002:0000adf8       ??_R3?$QValueListPrivate@VdeviceTypeInfo@@@@8 10031df8     bncs_client_runtime.obj
 0002:0000ae08       ??_R2?$QValueListPrivate@VdeviceTypeInfo@@@@8 10031e08     bncs_client_runtime.obj
 0002:0000ae14       ??_R1A@?0A@EA@?$QValueListPrivate@VdeviceTypeInfo@@@@8 10031e14     bncs_client_runtime.obj
 0002:0000ae30       ??_R4?$QValueListNode@VdeviceTypeInfo@@@@6B@ 10031e30     bncs_client_runtime.obj
 0002:0000ae44       ??_R3?$QValueListNode@VdeviceTypeInfo@@@@8 10031e44     bncs_client_runtime.obj
 0002:0000ae54       ??_R2?$QValueListNode@VdeviceTypeInfo@@@@8 10031e54     bncs_client_runtime.obj
 0002:0000ae5c       ??_R1A@?0A@EA@?$QValueListNode@VdeviceTypeInfo@@@@8 10031e5c     bncs_client_runtime.obj
 0002:0000ae78       ??_R4?$QValueListPrivate@VcomplexType@@@@6B@ 10031e78     bncs_client_runtime.obj
 0002:0000ae8c       ??_R3?$QValueListPrivate@VcomplexType@@@@8 10031e8c     bncs_client_runtime.obj
 0002:0000ae9c       ??_R2?$QValueListPrivate@VcomplexType@@@@8 10031e9c     bncs_client_runtime.obj
 0002:0000aea8       ??_R1A@?0A@EA@?$QValueListPrivate@VcomplexType@@@@8 10031ea8     bncs_client_runtime.obj
 0002:0000aec4       ??_R4?$QValueListNode@VcomplexType@@@@6B@ 10031ec4     bncs_client_runtime.obj
 0002:0000aed8       ??_R3?$QValueListNode@VcomplexType@@@@8 10031ed8     bncs_client_runtime.obj
 0002:0000aee8       ??_R2?$QValueListNode@VcomplexType@@@@8 10031ee8     bncs_client_runtime.obj
 0002:0000aef0       ??_R1A@?0A@EA@?$QValueListNode@VcomplexType@@@@8 10031ef0     bncs_client_runtime.obj
 0002:0000af0c       ??_R4ccTimer@@6B@          10031f0c     ccTimer.obj
 0002:0000af20       ??_R3ccTimer@@8            10031f20     ccTimer.obj
 0002:0000af30       ??_R2ccTimer@@8            10031f30     ccTimer.obj
 0002:0000af38       ??_R1A@?0A@EA@ccTimer@@8   10031f38     ccTimer.obj
 0002:0000af54       ??_R4connectionDebugDlg@@6BQObject@@@ 10031f54     connectiondebugdlgimpl.obj
 0002:0000af68       ??_R3connectionDebugDlg@@8 10031f68     connectiondebugdlgimpl.obj
 0002:0000af78       ??_R2connectionDebugDlg@@8 10031f78     connectiondebugdlgimpl.obj
 0002:0000af98       ??_R1A@?0A@EA@connectionDebugDlg@@8 10031f98     connectiondebugdlgimpl.obj
 0002:0000afb4       ??_R1A@?0A@EA@connectionDebugDlgBase@@8 10031fb4     connectiondebugdlgimpl.obj
 0002:0000afd0       ??_R3connectionDebugDlgBase@@8 10031fd0     connectiondebugdlgimpl.obj
 0002:0000afe0       ??_R2connectionDebugDlgBase@@8 10031fe0     connectiondebugdlgimpl.obj
 0002:0000affc       ??_R1A@?0A@EA@QDialog@@8   10031ffc     connectiondebugdlgimpl.obj
 0002:0000b018       ??_R3QDialog@@8            10032018     connectiondebugdlgimpl.obj
 0002:0000b028       ??_R2QDialog@@8            10032028     connectiondebugdlgimpl.obj
 0002:0000b040       ??_R4connectionDebugDlg@@6BQPaintDevice@@@ 10032040     connectiondebugdlgimpl.obj
 0002:0000b054       ??_R4QDomDocument@@6B@     10032054     dCW.obj
 0002:0000b068       ??_R3QDomDocument@@8       10032068     dCW.obj
 0002:0000b078       ??_R2QDomDocument@@8       10032078     dCW.obj
 0002:0000b084       ??_R1A@?0A@EA@QDomDocument@@8 10032084     dCW.obj
 0002:0000b0a0       ??_R1A@?0A@EA@QDomNode@@8  100320a0     dCW.obj
 0002:0000b0bc       ??_R3QDomNode@@8           100320bc     dCW.obj
 0002:0000b0cc       ??_R2QDomNode@@8           100320cc     dCW.obj
 0002:0000b0d4       ??_R1A@?0A@EA@QGCache@@8   100320d4     dCW.obj
 0002:0000b0f0       ??_R3QGCache@@8            100320f0     dCW.obj
 0002:0000b100       ??_R2QGCache@@8            10032100     dCW.obj
 0002:0000b10c       ??_R4resourceCounts@@6B@   1003210c     dCW.obj
 0002:0000b120       ??_R3resourceCounts@@8     10032120     dCW.obj
 0002:0000b130       ??_R2resourceCounts@@8     10032130     dCW.obj
 0002:0000b138       ??_R1A@?0A@EA@resourceCounts@@8 10032138     dCW.obj
 0002:0000b154       ??_R4?$QCache@VQDomDocument@@@@6B@ 10032154     dCW.obj
 0002:0000b168       ??_R3?$QCache@VQDomDocument@@@@8 10032168     dCW.obj
 0002:0000b178       ??_R2?$QCache@VQDomDocument@@@@8 10032178     dCW.obj
 0002:0000b188       ??_R1A@?0A@EA@?$QCache@VQDomDocument@@@@8 10032188     dCW.obj
 0002:0000b1a4       ??_R4notifyWrangler@@6B@   100321a4     notifyWrangler.obj
 0002:0000b1b8       ??_R3notifyWrangler@@8     100321b8     notifyWrangler.obj
 0002:0000b1c8       ??_R2notifyWrangler@@8     100321c8     notifyWrangler.obj
 0002:0000b1d0       ??_R1A@?0A@EA@notifyWrangler@@8 100321d0     notifyWrangler.obj
 0002:0000b1ec       ??_R4QPushButton@@6BQObject@@@ 100321ec     connectiondebugdlg.obj
 0002:0000b200       ??_R3QPushButton@@8        10032200     connectiondebugdlg.obj
 0002:0000b210       ??_R2QPushButton@@8        10032210     connectiondebugdlg.obj
 0002:0000b22c       ??_R1A@?0A@EA@QPushButton@@8 1003222c     connectiondebugdlg.obj
 0002:0000b248       ??_R1A@?0A@EA@QButton@@8   10032248     connectiondebugdlg.obj
 0002:0000b264       ??_R3QButton@@8            10032264     connectiondebugdlg.obj
 0002:0000b274       ??_R2QButton@@8            10032274     connectiondebugdlg.obj
 0002:0000b28c       ??_R4QPushButton@@6BQPaintDevice@@@ 1003228c     connectiondebugdlg.obj
 0002:0000b2a0       ??_R4QVBoxLayout@@6BQObject@@@ 100322a0     connectiondebugdlg.obj
 0002:0000b2b4       ??_R3QVBoxLayout@@8        100322b4     connectiondebugdlg.obj
 0002:0000b2c4       ??_R2QVBoxLayout@@8        100322c4     connectiondebugdlg.obj
 0002:0000b2e0       ??_R1A@?0A@EA@QVBoxLayout@@8 100322e0     connectiondebugdlg.obj
 0002:0000b2fc       ??_R1A@?0A@EA@QBoxLayout@@8 100322fc     connectiondebugdlg.obj
 0002:0000b318       ??_R3QBoxLayout@@8         10032318     connectiondebugdlg.obj
 0002:0000b328       ??_R2QBoxLayout@@8         10032328     connectiondebugdlg.obj
 0002:0000b340       ??_R1A@?0A@EA@QLayout@@8   10032340     connectiondebugdlg.obj
 0002:0000b35c       ??_R3QLayout@@8            1003235c     connectiondebugdlg.obj
 0002:0000b36c       ??_R2QLayout@@8            1003236c     connectiondebugdlg.obj
 0002:0000b380       ??_R1CI@?0A@EA@QLayoutItem@@8 10032380     connectiondebugdlg.obj
 0002:0000b39c       ??_R3QLayoutItem@@8        1003239c     connectiondebugdlg.obj
 0002:0000b3ac       ??_R2QLayoutItem@@8        100323ac     connectiondebugdlg.obj
 0002:0000b3b4       ??_R1A@?0A@EA@QLayoutItem@@8 100323b4     connectiondebugdlg.obj
 0002:0000b3d0       ??_R4QVBoxLayout@@6BQLayoutItem@@@ 100323d0     connectiondebugdlg.obj
 0002:0000b3e4       ??_R4QHBoxLayout@@6BQObject@@@ 100323e4     connectiondebugdlg.obj
 0002:0000b3f8       ??_R3QHBoxLayout@@8        100323f8     connectiondebugdlg.obj
 0002:0000b408       ??_R2QHBoxLayout@@8        10032408     connectiondebugdlg.obj
 0002:0000b424       ??_R1A@?0A@EA@QHBoxLayout@@8 10032424     connectiondebugdlg.obj
 0002:0000b440       ??_R4QHBoxLayout@@6BQLayoutItem@@@ 10032440     connectiondebugdlg.obj
 0002:0000b454       ??_R4QTextEdit@@6BQObject@@@ 10032454     connectiondebugdlg.obj
 0002:0000b468       ??_R3QTextEdit@@8          10032468     connectiondebugdlg.obj
 0002:0000b478       ??_R2QTextEdit@@8          10032478     connectiondebugdlg.obj
 0002:0000b498       ??_R1A@?0A@EA@QTextEdit@@8 10032498     connectiondebugdlg.obj
 0002:0000b4b4       ??_R1A@?0A@EA@QScrollView@@8 100324b4     connectiondebugdlg.obj
 0002:0000b4d0       ??_R3QScrollView@@8        100324d0     connectiondebugdlg.obj
 0002:0000b4e0       ??_R2QScrollView@@8        100324e0     connectiondebugdlg.obj
 0002:0000b4fc       ??_R1A@?0A@EA@QFrame@@8    100324fc     connectiondebugdlg.obj
 0002:0000b518       ??_R3QFrame@@8             10032518     connectiondebugdlg.obj
 0002:0000b528       ??_R2QFrame@@8             10032528     connectiondebugdlg.obj
 0002:0000b540       ??_R4QTextEdit@@6BQPaintDevice@@@ 10032540     connectiondebugdlg.obj
 0002:0000b554       ??_R4QCheckBox@@6BQObject@@@ 10032554     connectiondebugdlg.obj
 0002:0000b568       ??_R3QCheckBox@@8          10032568     connectiondebugdlg.obj
 0002:0000b578       ??_R2QCheckBox@@8          10032578     connectiondebugdlg.obj
 0002:0000b594       ??_R1A@?0A@EA@QCheckBox@@8 10032594     connectiondebugdlg.obj
 0002:0000b5b0       ??_R4QCheckBox@@6BQPaintDevice@@@ 100325b0     connectiondebugdlg.obj
 0002:0000b5c4       ??_R4connectionDebugDlgBase@@6BQObject@@@ 100325c4     connectiondebugdlg.obj
 0002:0000b5d8       ??_R4connectionDebugDlgBase@@6BQPaintDevice@@@ 100325d8     connectiondebugdlg.obj
 0002:0000b5ec       ??_R4QSpacerItem@@6B@      100325ec     connectiondebugdlg.obj
 0002:0000b600       ??_R3QSpacerItem@@8        10032600     connectiondebugdlg.obj
 0002:0000b610       ??_R2QSpacerItem@@8        10032610     connectiondebugdlg.obj
 0002:0000b61c       ??_R1A@?0A@EA@QSpacerItem@@8 1003261c     connectiondebugdlg.obj
 0002:0000b638       ??_R4type_info@@6B@        10032638     MSVCRT:ti_inst.obj
 0002:0000b64c       ??_R3type_info@@8          1003264c     MSVCRT:ti_inst.obj
 0002:0000b65c       ??_R2type_info@@8          1003265c     MSVCRT:ti_inst.obj
 0002:0000b664       ??_R1A@?0A@EA@type_info@@8 10032664     MSVCRT:ti_inst.obj
 0002:0000b680       ___rtc_iaa                 10032680     MSVCRT:initsect.obj
 0002:0000b684       ___rtc_izz                 10032684     MSVCRT:initsect.obj
 0002:0000b688       ___rtc_taa                 10032688     MSVCRT:initsect.obj
 0002:0000b68c       ___rtc_tzz                 1003268c     MSVCRT:initsect.obj
 0002:0001420c       __IMPORT_DESCRIPTOR_bncs_cachedData 1003b20c     bncs_cachedData:bncs_cachedData.dll
 0002:00014220       __IMPORT_DESCRIPTOR_qt-mt323 1003b220     qt-mt323:qt-mt323.dll
 0002:00014234       __IMPORT_DESCRIPTOR_KERNEL32 1003b234     kernel32:KERNEL32.dll
 0002:00014248       __IMPORT_DESCRIPTOR_USER32 1003b248     user32:USER32.dll
 0002:0001425c       __IMPORT_DESCRIPTOR_SHELL32 1003b25c     shell32:SHELL32.dll
 0002:00014270       __IMPORT_DESCRIPTOR_MSVCP120 1003b270     msvcprt:MSVCP120.dll
 0002:00014284       __IMPORT_DESCRIPTOR_MSVCR120 1003b284     MSVCRT:MSVCR120.dll
 0002:00014298       __NULL_IMPORT_DESCRIPTOR   1003b298     bncs_cachedData:bncs_cachedData.dll
 0003:00000000       ?_Generic_object@?$_Error_objects@H@std@@2V_Generic_error_category@2@A 10055000     bncs_client_runtime.obj
 0003:00000004       ?_Iostream_object@?$_Error_objects@H@std@@2V_Iostream_error_category@2@A 10055004     bncs_client_runtime.obj
 0003:00000008       ?_System_object@?$_Error_objects@H@std@@2V_System_error_category@2@A 10055008     bncs_client_runtime.obj
 0003:0000000c       ?g_doCacheing@@3_NA        1005500c     dCW.obj
 0003:00000040       ?qwf_execute_code@@3_NA    10055040     qui:qwidgetfactory.obj
 0003:00000044       ??_C@_03JMAK@?4qs?$AA@     10055044     qui:qwidgetfactory.obj
 0003:00000048       ??_C@_09MKDN@?1designer?$AA@ 10055048     qui:qwidgetfactory.obj
 0003:00000054       ??_C@_07MBFH@QWidget?$AA@  10055054     qui:qwidgetfactory.obj
 0003:0000005c       ??_C@_06KNLE@QLabel?$AA@   1005505c     qui:qwidgetfactory.obj
 0003:00000064       ??_C@_09HNNH@?$CIdefault?$CJ?$AA@ 10055064     qui:qwidgetfactory.obj
 0003:00000070       ??_C@_0L@GHMK@QDataTable?$AA@ 10055070     qui:qwidgetfactory.obj
 0003:0000007c       ??_C@_0BD@PMKE@QDesignerDataView2?$AA@ 1005507c     qui:qwidgetfactory.obj
 0003:00000090       ??_C@_0BG@FOMG@QDesignerDataBrowser2?$AA@ 10055090     qui:qwidgetfactory.obj
 0003:000000a8       ??_C@_06HEI@margin?$AA@    100550a8     qui:qwidgetfactory.obj
 0003:000000b0       ??_C@_07ENJI@spacing?$AA@  100550b0     qui:qwidgetfactory.obj
 0003:000000b8       ??_C@_0P@LAC@layoutdefaults?$AA@ 100550b8     qui:qwidgetfactory.obj
 0003:000000c8       ??_C@_0BA@EHJP@pixmapinproject?$AA@ 100550c8     qui:qwidgetfactory.obj
 0003:000000d8       ??_C@_06BHPE@widget?$AA@   100550d8     qui:qwidgetfactory.obj
 0003:000000e0       ??_C@_05LGKP@class?$AA@    100550e0     qui:qwidgetfactory.obj
 0003:000000e8       ??_C@_09LPHA@functions?$AA@ 100550e8     qui:qwidgetfactory.obj
 0003:000000f4       ??_C@_07FOBJ@menubar?$AA@  100550f4     qui:qwidgetfactory.obj
 0003:000000fc       ??_C@_08MLHI@toolbars?$AA@ 100550fc     qui:qwidgetfactory.obj
 0003:00000108       ??_C@_07LAIB@actions?$AA@  10055108     qui:qwidgetfactory.obj
 0003:00000110       ??_C@_08IOFG@tabstops?$AA@ 10055110     qui:qwidgetfactory.obj
 0003:0000011c       ??_C@_06PIFN@images?$AA@   1005511c     qui:qwidgetfactory.obj
 0003:00000124       ??_C@_0M@KFNC@connections?$AA@ 10055124     qui:qwidgetfactory.obj
 0003:00000130       ??_C@_05KJGN@slots?$AA@    10055130     qui:qwidgetfactory.obj
 0003:00000138       ??_C@_09IHFC@variables?$AA@ 10055138     qui:qwidgetfactory.obj
 0003:00000144       ??_C@_0M@NBGL@QGridLayout?$AA@ 10055144     qui:qwidgetfactory.obj
 0003:00000150       ??_C@_08GOG@sizeType?$AA@  10055150     qui:qwidgetfactory.obj
 0003:0000015c       ??_C@_08GGJA@sizeHint?$AA@ 1005515c     qui:qwidgetfactory.obj
 0003:00000168       ??_C@_08FIBN@Vertical?$AA@ 10055168     qui:qwidgetfactory.obj
 0003:00000174       ??_C@_0M@OAHA@orientation?$AA@ 10055174     qui:qwidgetfactory.obj
 0003:00000180       ??_C@_07PMBC@Corrupt?$AA@  10055180     qui:qwidgetfactory.obj
 0003:00000188       ??_C@_09POGD@Expanding?$AA@ 10055188     qui:qwidgetfactory.obj
 0003:00000194       ??_C@_0BB@NCNF@MinimumExpanding?$AA@ 10055194     qui:qwidgetfactory.obj
 0003:000001a8       ??_C@_09ICH@Preferred?$AA@ 100551a8     qui:qwidgetfactory.obj
 0003:000001b4       ??_C@_07EEKE@Maximum?$AA@  100551b4     qui:qwidgetfactory.obj
 0003:000001bc       ??_C@_07CLCP@Minimum?$AA@  100551bc     qui:qwidgetfactory.obj
 0003:000001c4       ??_C@_05CAKF@Fixed?$AA@    100551c4     qui:qwidgetfactory.obj
 0003:000001cc       ??_C@_06PDBK@QTable?$AA@   100551cc     qui:qwidgetfactory.obj
 0003:000001d4       ??_C@_09GHEJ@QListView?$AA@ 100551d4     qui:qwidgetfactory.obj
 0003:000001e0       ??_C@_04LHJL@text?$AA@     100551e0     qui:qwidgetfactory.obj
 0003:000001e8       ??_C@_05CMGC@field?$AA@    100551e8     qui:qwidgetfactory.obj
 0003:000001f0       ??_C@_09IFIF@resizable?$AA@ 100551f0     qui:qwidgetfactory.obj
 0003:000001fc       ??_C@_06NBAD@pixmap?$AA@   100551fc     qui:qwidgetfactory.obj
 0003:00000204       ??_C@_09IOPI@clickable?$AA@ 10055204     qui:qwidgetfactory.obj
 0003:00000210       ??_C@_09MEON@QIconView?$AA@ 10055210     qui:qwidgetfactory.obj
 0003:0000021c       ??_C@_08BPKO@QListBox?$AA@ 1005521c     qui:qwidgetfactory.obj
 0003:00000228       ??_C@_09DMGG@QComboBox?$AA@ 10055228     qui:qwidgetfactory.obj
 0003:00000234       ??_C@_0N@OBMJ@QWidgetStack?$AA@ 10055234     qui:qwidgetfactory.obj
 0003:00000244       ??_C@_02IBHF@id?$AA@       10055244     qui:qwidgetfactory.obj
 0003:00000248       ??_C@_07CPPB@QWizard?$AA@  10055248     qui:qwidgetfactory.obj
 0003:00000250       ??_C@_0L@PDID@QTabWidget?$AA@ 10055250     qui:qwidgetfactory.obj
 0003:0000025c       ??_C@_05LHJG@title?$AA@    1005525c     qui:qwidgetfactory.obj
 0003:00000264       ??_C@_08MAPP@QToolBar?$AA@ 10055264     qui:qwidgetfactory.obj
 0003:00000270       ??_C@_08PBK@QMenuBar?$AA@  10055270     qui:qwidgetfactory.obj
 0003:0000027c       ??_C@_0M@FIEM@QVBoxLayout?$AA@ 1005527c     qui:qwidgetfactory.obj
 0003:00000288       ??_C@_0M@PKPH@QHBoxLayout?$AA@ 10055288     qui:qwidgetfactory.obj
 0003:00000294       ??_C@_0N@EJJO@QActionGroup?$AA@ 10055294     qui:qwidgetfactory.obj
 0003:000002a4       ??_C@_07LOPB@QAction?$AA@  100552a4     qui:qwidgetfactory.obj
 0003:000002ac       ??_C@_07LMCJ@QLayout?$AA@  100552ac     qui:qwidgetfactory.obj
 0003:000002b4       ??_C@_0M@HHOI@QMainWindow?$AA@ 100552b4     qui:qwidgetfactory.obj
 0003:000002c0       ??_C@_0P@CMED@File?5corrupted?$AA@ 100552c0     qui:qwidgetfactory.obj
 0003:000002d0       ??_C@_0O@JOFB@Version?5error?$AA@ 100552d0     qui:qwidgetfactory.obj
 0003:000002e0       ??_C@_0BO@IALE@Block_Variables?5not?5supported?$AA@ 100552e0     qui:qwidgetfactory.obj
 0003:00000300       ??_C@_08MEPI@accept?$CI?$CJ?$AA@ 10055300     qui:qwidgetfactory.obj
 0003:0000030c       ??_C@_09FMOM@clicked?$CI?$CJ?$AA@ 1005530c     qui:qwidgetfactory.obj
 0003:00000318       ??_C@_03NBIJ@C?$CL?$CL?$AA@ 10055318     qui:qwidgetfactory.obj
 0003:0000031c       ??_C@_0BO@CHOL@Block_Functions?5not?5supported?$AA@ 1005531c     qui:qwidgetfactory.obj
 0003:0000033c       ??_C@_0BL@GPBC@Incompatible?5version?5of?5Qt?$AA@ 1005533c     qui:qwidgetfactory.obj
 0003:00000358       ??_C@_03FMK@XPM?$AA@       10055358     qui:qwidgetfactory.obj
 0003:0000035c       ??_C@_06KCMF@XPM?4GZ?$AA@  1005535c     qui:qwidgetfactory.obj
 0003:00000364       ??_C@_09JIBF@QDataView?$AA@ 10055364     qui:qwidgetfactory.obj
 0003:00000370       ??_C@_0N@LHBP@QDataBrowser?$AA@ 10055370     qui:qwidgetfactory.obj
 0003:00000380       ??_C@_0BC@OAFG@qt_central_widget?$AA@ 10055380     qui:qwidgetfactory.obj
 0003:00000394       ??_C@_05MGFC@QGrid?$AA@    10055394     qui:qwidgetfactory.obj
 0003:0000039c       ??_C@_05FFKI@QHBox?$AA@    1005539c     qui:qwidgetfactory.obj
 0003:000003a4       ??_C@_05PFPF@QVBox?$AA@    100553a4     qui:qwidgetfactory.obj
 0003:000003ac       ??_C@_08DMC@QToolBox?$AA@  100553ac     qui:qwidgetfactory.obj
 0003:000003b8       ??_C@_0L@KGMO@QPopupMenu?$AA@ 100553b8     qui:qwidgetfactory.obj
 0003:000003c4       ??_C@_0L@HBBK@QScrollBar?$AA@ 100553c4     qui:qwidgetfactory.obj
 0003:000003d0       ??_C@_0O@EKBI@QDateTimeEdit?$AA@ 100553d0     qui:qwidgetfactory.obj
 0003:000003e0       ??_C@_09CMAO@QTimeEdit?$AA@ 100553e0     qui:qwidgetfactory.obj
 0003:000003ec       ??_C@_09LIOJ@QDateEdit?$AA@ 100553ec     qui:qwidgetfactory.obj
 0003:000003f8       ??_C@_09NJKH@QTextEdit?$AA@ 100553f8     qui:qwidgetfactory.obj
 0003:00000404       ??_C@_04KEDG@Line?$AA@     10055404     qui:qwidgetfactory.obj
 0003:0000040c       ??_C@_09JIGN@QSplitter?$AA@ 1005540c     qui:qwidgetfactory.obj
 0003:00000418       ??_C@_06GLED@QFrame?$AA@   10055418     qui:qwidgetfactory.obj
 0003:00000420       ??_C@_07CEKE@QSlider?$AA@  10055420     qui:qwidgetfactory.obj
 0003:00000428       ??_C@_05PKM@QDial?$AA@     10055428     qui:qwidgetfactory.obj
 0003:00000430       ??_C@_0N@NBPG@QTextBrowser?$AA@ 10055430     qui:qwidgetfactory.obj
 0003:00000440       ??_C@_09HJMO@QTextView?$AA@ 10055440     qui:qwidgetfactory.obj
 0003:0000044c       ??_C@_0N@ONGP@QProgressBar?$AA@ 1005544c     qui:qwidgetfactory.obj
 0003:0000045c       ??_C@_0L@GOLD@QLCDNumber?$AA@ 1005545c     qui:qwidgetfactory.obj
 0003:00000468       ??_C@_07DNOJ@QDialog?$AA@  10055468     qui:qwidgetfactory.obj
 0003:00000470       ??_C@_0O@EGKB@QLayoutWidget?$AA@ 10055470     qui:qwidgetfactory.obj
 0003:00000480       ??_C@_0M@ONAE@PixmapLabel?$AA@ 10055480     qui:qwidgetfactory.obj
 0003:0000048c       ??_C@_09OJPB@TextLabel?$AA@ 1005548c     qui:qwidgetfactory.obj
 0003:00000498       ??_C@_0P@FPMD@QMultiLineEdit?$AA@ 10055498     qui:qwidgetfactory.obj
 0003:000004a8       ??_C@_08FPDC@QSpinBox?$AA@ 100554a8     qui:qwidgetfactory.obj
 0003:000004b4       ??_C@_09FBHD@QLineEdit?$AA@ 100554b4     qui:qwidgetfactory.obj
 0003:000004c0       ??_C@_0N@BKO@QButtonGroup?$AA@ 100554c0     qui:qwidgetfactory.obj
 0003:000004d0       ??_C@_09NJAI@QGroupBox?$AA@ 100554d0     qui:qwidgetfactory.obj
 0003:000004dc       ??_C@_0N@IENO@QRadioButton?$AA@ 100554dc     qui:qwidgetfactory.obj
 0003:000004ec       ??_C@_09GNOC@QCheckBox?$AA@ 100554ec     qui:qwidgetfactory.obj
 0003:000004f8       ??_C@_0M@FBMJ@QToolButton?$AA@ 100554f8     qui:qwidgetfactory.obj
 0003:00000504       ??_C@_0M@IFOC@QPushButton?$AA@ 10055504     qui:qwidgetfactory.obj
 0003:00000510       ??_C@_04MPOO@item?$AA@     10055510     qui:qwidgetfactory.obj
 0003:00000518       ??_C@_05OLF@label?$AA@     10055518     qui:qwidgetfactory.obj
 0003:00000520       ??_C@_09GACJ@attribute?$AA@ 10055520     qui:qwidgetfactory.obj
 0003:0000052c       ??_C@_04OPJK@name?$AA@     1005552c     qui:qwidgetfactory.obj
 0003:00000534       ??_C@_08DKJK@property?$AA@ 10055534     qui:qwidgetfactory.obj
 0003:00000540       ??_C@_04LGEG@vbox?$AA@     10055540     qui:qwidgetfactory.obj
 0003:00000548       ??_C@_04MHDE@grid?$AA@     10055548     qui:qwidgetfactory.obj
 0003:00000550       ??_C@_04BGBL@hbox?$AA@     10055550     qui:qwidgetfactory.obj
 0003:00000558       ??_C@_06OFBM@spacer?$AA@   10055558     qui:qwidgetfactory.obj
 0003:00000560       ??_C@_07GPN@colspan?$AA@   10055560     qui:qwidgetfactory.obj
 0003:00000568       ??_C@_07CCCC@rowspan?$AA@  10055568     qui:qwidgetfactory.obj
 0003:00000570       ??_C@_06GJMM@column?$AA@   10055570     qui:qwidgetfactory.obj
 0003:00000578       ??_C@_03OCHL@row?$AA@      10055578     qui:qwidgetfactory.obj
 0003:0000057c       ??_C@_0O@GCJD@frameworkCode?$AA@ 1005557c     qui:qwidgetfactory.obj
 0003:0000058c       ??_C@_08PCJA@database?$AA@ 1005558c     qui:qwidgetfactory.obj
 0003:00000598       ??_C@_07GJAI@QButton?$AA@  10055598     qui:qwidgetfactory.obj
 0003:000005a0       ??_C@_0O@FBEH@buttonGroupId?$AA@ 100555a0     qui:qwidgetfactory.obj
 0003:000005b0       ??_C@_05FMEP@buddy?$AA@    100555b0     qui:qwidgetfactory.obj
 0003:000005b8       ??_C@_09CHLD@whatsThis?$AA@ 100555b8     qui:qwidgetfactory.obj
 0003:000005c4       ??_C@_07POEO@toolTip?$AA@  100555c4     qui:qwidgetfactory.obj
 0003:000005cc       ??_C@_05DHJN@accel?$AA@    100555cc     qui:qwidgetfactory.obj
 0003:000005d4       ??_C@_08NIEP@geometry?$AA@ 100555d4     qui:qwidgetfactory.obj
 0003:000005e0       ??_C@_08FDGF@disabled?$AA@ 100555e0     qui:qwidgetfactory.obj
 0003:000005ec       ??_C@_08OJCF@inactive?$AA@ 100555ec     qui:qwidgetfactory.obj
 0003:000005f8       ??_C@_06KAE@active?$AA@    100555f8     qui:qwidgetfactory.obj
 0003:00000600       ??_C@_07DOH@palette?$AA@   10055600     qui:qwidgetfactory.obj
 0003:00000608       ??_C@_05LEJM@image?$AA@    10055608     qui:qwidgetfactory.obj
 0003:00000610       ??_C@_07PPEJ@iconset?$AA@  10055610     qui:qwidgetfactory.obj
 0003:00000618       ??_C@_06EMNG@string?$AA@   10055618     qui:qwidgetfactory.obj
 0003:00000620       ??_C@_0L@BGIA@QBoxLayout?$AA@ 10055620     qui:qwidgetfactory.obj
 0003:0000062c       ??_C@_0L@JABN@Horizontal?$AA@ 1005562c     qui:qwidgetfactory.obj
 0003:00000638       ??_C@_04OMKF@data?$AA@     10055638     qui:qwidgetfactory.obj
 0003:00000640       ??_C@_06JEAL@length?$AA@   10055640     qui:qwidgetfactory.obj
 0003:00000648       ??_C@_06PMHG@format?$AA@   10055648     qui:qwidgetfactory.obj
 0003:00000650       ??_C@_03DMOL@PNG?$AA@      10055650     qui:qwidgetfactory.obj
 0003:00000654       ??_C@_05HMGA@color?$AA@    10055654     qui:qwidgetfactory.obj
 0003:0000065c       ??_C@_03PJPM@1?$CF1?$AA@   1005565c     qui:qwidgetfactory.obj
 0003:00000660       ??_C@_03PMH@2?$CF1?$AA@    10055660     qui:qwidgetfactory.obj
 0003:00000664       ??_C@_04IEHK@slot?$AA@     10055664     qui:qwidgetfactory.obj
 0003:0000066c       ??_C@_08HDJB@receiver?$AA@ 1005566c     qui:qwidgetfactory.obj
 0003:00000678       ??_C@_06ELED@signal?$AA@   10055678     qui:qwidgetfactory.obj
 0003:00000680       ??_C@_04BEIE@this?$AA@     10055680     qui:qwidgetfactory.obj
 0003:00000688       ??_C@_06KJLG@sender?$AA@   10055688     qui:qwidgetfactory.obj
 0003:00000690       ??_C@_08DAOE@language?$AA@ 10055690     qui:qwidgetfactory.obj
 0003:0000069c       ??_C@_0L@DLBA@connection?$AA@ 1005569c     qui:qwidgetfactory.obj
 0003:000006a8       ??_C@_07LPDA@tabstop?$AA@  100556a8     qui:qwidgetfactory.obj
 0003:000006b0       ??_C@_0L@HADB@resizeable?$AA@ 100556b0     qui:qwidgetfactory.obj
 0003:000006bc       ??_C@_0M@NFCN@actiongroup?$AA@ 100556bc     qui:qwidgetfactory.obj
 0003:000006c8       ??_C@_06GIFC@action?$AA@   100556c8     qui:qwidgetfactory.obj
 0003:000006d0       ??_C@_09JCCP@separator?$AA@ 100556d0     qui:qwidgetfactory.obj
 0003:000006dc       ??_C@_04JKAN@dock?$AA@     100556dc     qui:qwidgetfactory.obj
 0003:000006e4       ??_C@_07JBPM@toolbar?$AA@  100556e4     qui:qwidgetfactory.obj
 0003:000006ec       ??_C@_0BI@PHJO@ASSERT?3?5?$CC?$CFs?$CC?5in?5?$CFs?5?$CI?$CFd?$CJ?$AA@ 100556ec     qui:qwidgetfactory.obj
 0003:00000704       ??_C@_0L@MGKG@i?5?$DM?$DN?5nodes?$AA@ 10055704     qui:qwidgetfactory.obj
 0003:00000710       ??_C@_0CB@BPFG@w?3?2Qt?23?42?43?2include?2qvaluelist?4h@ 10055710     qui:qwidgetfactory.obj
 0003:00000734       ??_C@_08MAHP@datetime?$AA@ 10055734     qui:domtool.obj
 0003:00000740       ??_C@_06INBL@second?$AA@   10055740     qui:domtool.obj
 0003:00000748       ??_C@_06FBCA@minute?$AA@   10055748     qui:domtool.obj
 0003:00000750       ??_C@_04GPNM@hour?$AA@     10055750     qui:domtool.obj
 0003:00000758       ??_C@_04EKDK@time?$AA@     10055758     qui:domtool.obj
 0003:00000760       ??_C@_03EGAH@day?$AA@      10055760     qui:domtool.obj
 0003:00000764       ??_C@_05FFFM@month?$AA@    10055764     qui:domtool.obj
 0003:0000076c       ??_C@_04BLDE@year?$AA@     1005576c     qui:domtool.obj
 0003:00000774       ??_C@_04EGPJ@date?$AA@     10055774     qui:domtool.obj
 0003:0000077c       ??_C@_0L@FMJE@stringlist?$AA@ 1005577c     qui:domtool.obj
 0003:00000788       ??_C@_06BMBC@cursor?$AA@   10055788     qui:domtool.obj
 0003:00000790       ??_C@_0L@KNID@verstretch?$AA@ 10055790     qui:domtool.obj
 0003:0000079c       ??_C@_0L@JJOJ@horstretch?$AA@ 1005579c     qui:domtool.obj
 0003:000007a8       ??_C@_09NOJI@vsizetype?$AA@ 100557a8     qui:domtool.obj
 0003:000007b4       ??_C@_09GFOL@hsizetype?$AA@ 100557b4     qui:domtool.obj
 0003:000007c0       ??_C@_0L@JLID@sizepolicy?$AA@ 100557c0     qui:domtool.obj
 0003:000007cc       ??_C@_03NHNF@set?$AA@      100557cc     qui:domtool.obj
 0003:000007d0       ??_C@_04PGN@enum?$AA@      100557d0     qui:domtool.obj
 0003:000007d8       ??_C@_01FBAH@1?$AA@        100557d8     qui:domtool.obj
 0003:000007dc       ??_C@_04NCCD@true?$AA@     100557dc     qui:domtool.obj
 0003:000007e4       ??_C@_04PPPK@bool?$AA@     100557e4     qui:domtool.obj
 0003:000007ec       ??_C@_06BMEB@number?$AA@   100557ec     qui:domtool.obj
 0003:000007f4       ??_C@_07EILE@cstring?$AA@  100557f4     qui:domtool.obj
 0003:000007fc       ??_C@_07EBEE@comment?$AA@  100557fc     qui:domtool.obj
 0003:00000804       ??_C@_09NEOO@strikeout?$AA@ 10055804     qui:domtool.obj
 0003:00000810       ??_C@_09FIDC@underline?$AA@ 10055810     qui:domtool.obj
 0003:0000081c       ??_C@_06HLAH@italic?$AA@   1005581c     qui:domtool.obj
 0003:00000824       ??_C@_04JALN@bold?$AA@     10055824     qui:domtool.obj
 0003:0000082c       ??_C@_09FNCI@pointsize?$AA@ 1005582c     qui:domtool.obj
 0003:00000838       ??_C@_06FNPB@family?$AA@   10055838     qui:domtool.obj
 0003:00000840       ??_C@_04IBNA@font?$AA@     10055840     qui:domtool.obj
 0003:00000848       ??_C@_04LLHI@size?$AA@     10055848     qui:domtool.obj
 0003:00000850       ??_C@_05GNMO@point?$AA@    10055850     qui:domtool.obj
 0003:00000858       ??_C@_06OKPG@height?$AA@   10055858     qui:domtool.obj
 0003:00000860       ??_C@_05PNBN@width?$AA@    10055860     qui:domtool.obj
 0003:00000868       ??_C@_01KAHP@y?$AA@        10055868     qui:domtool.obj
 0003:0000086c       ??_C@_01KOI@x?$AA@         1005586c     qui:domtool.obj
 0003:00000870       ??_C@_04IMHF@rect?$AA@     10055870     qui:domtool.obj
 0003:00000878       ??_C@_04FEG@blue?$AA@      10055878     qui:domtool.obj
 0003:00000880       ??_C@_05DOGI@green?$AA@    10055880     qui:domtool.obj
 0003:00000888       ??_C@_03CMLD@red?$AA@      10055888     qui:domtool.obj
 0003:0000088c       ??_C@_06LIL@stdset?$AA@    1005588c     qui:domtool.obj
 0003:00000894       ??_C@_09EHHF@stdsetdef?$AA@ 10055894     qui:domtool.obj
 0003:000008a0       ??_C@_07BPOH@version?$AA@  100558a0     qui:domtool.obj
 0003:000008a8       ??_C@_02NHOD@UI?$AA@       100558a8     qui:domtool.obj
 0003:000008ac       ??_C@_0BB@FLKJ@DatabaseSupport2?$AA@ 100558ac     qui:moc_database2.obj
 0003:000008c0       ___security_cookie         100558c0     MSVCRT:gs_cookie.obj
 0003:000008c4       ___security_cookie_complement 100558c4     MSVCRT:gs_cookie.obj
 0003:000008d0       ___native_dllmain_reason   100558d0     MSVCRT:natstart.obj
 0003:000008d4       ??_R0?AUQShared@@@8        100558d4     bncs_client_runtime.obj
 0003:000008ec       ??_R0?AVQGList@@@8         100558ec     bncs_client_runtime.obj
 0003:00000904       ??_R0?AVQPtrCollection@@@8 10055904     bncs_client_runtime.obj
 0003:00000924       ??_R0?AVerror_category@std@@@8 10055924     bncs_client_runtime.obj
 0003:00000948       ??_R0?AV_Generic_error_category@std@@@8 10055948     bncs_client_runtime.obj
 0003:00000974       ??_R0?AV_Iostream_error_category@std@@@8 10055974     bncs_client_runtime.obj
 0003:000009a0       ??_R0?AV_System_error_category@std@@@8 100559a0     bncs_client_runtime.obj
 0003:000009cc       ??_R0?AVsignalConnectionRefList@@@8 100559cc     bncs_client_runtime.obj
 0003:000009f4       ??_R0?AV?$QPtrList@VsignalConnection@@@@@8 100559f4     bncs_client_runtime.obj
 0003:00000a24       ??_R0?AVIdCWlimits@@@8     10055a24     bncs_client_runtime.obj
 0003:00000a40       ??_R0?AVdCW@@@8            10055a40     bncs_client_runtime.obj
 0003:00000a54       ??_R0?AVIccTimerCallback@@@8 10055a54     bncs_client_runtime.obj
 0003:00000a74       ??_R0?AVbncs_client_runtime@@@8 10055a74     bncs_client_runtime.obj
 0003:00000a98       ??_R0?AVQWidget@@@8        10055a98     bncs_client_runtime.obj
 0003:00000ab0       ??_R0?AVQObject@@@8        10055ab0     bncs_client_runtime.obj
 0003:00000ac8       ??_R0?AVQt@@@8             10055ac8     bncs_client_runtime.obj
 0003:00000adc       ??_R0?AVQPaintDevice@@@8   10055adc     bncs_client_runtime.obj
 0003:00000af8       ??_R0?AV?$QValueListPrivate@VparamInfo@@@@@8 10055af8     bncs_client_runtime.obj
 0003:00000b28       ??_R0?AV?$QValueListNode@VparamInfo@@@@@8 10055b28     bncs_client_runtime.obj
 0003:00000b54       ??_R0?AV?$QValueListPrivate@VcomplexParam@@@@@8 10055b54     bncs_client_runtime.obj
 0003:00000b88       ??_R0?AV?$QValueListNode@VcomplexParam@@@@@8 10055b88     bncs_client_runtime.obj
 0003:00000bb8       ??_R0?AV?$QValueListPrivate@VcomplexInstance@@@@@8 10055bb8     bncs_client_runtime.obj
 0003:00000bf0       ??_R0?AV?$QValueListNode@VcomplexInstance@@@@@8 10055bf0     bncs_client_runtime.obj
 0003:00000c24       ??_R0?AV?$QValueListPrivate@VinstanceInfo@@@@@8 10055c24     bncs_client_runtime.obj
 0003:00000c58       ??_R0?AV?$QValueListNode@VinstanceInfo@@@@@8 10055c58     bncs_client_runtime.obj
 0003:00000c88       ??_R0?AV?$QValueListPrivate@VdeviceTypeInfo@@@@@8 10055c88     bncs_client_runtime.obj
 0003:00000cbc       ??_R0?AV?$QValueListNode@VdeviceTypeInfo@@@@@8 10055cbc     bncs_client_runtime.obj
 0003:00000cf0       ??_R0?AV?$QValueListPrivate@VcomplexType@@@@@8 10055cf0     bncs_client_runtime.obj
 0003:00000d24       ??_R0?AV?$QValueListNode@VcomplexType@@@@@8 10055d24     bncs_client_runtime.obj
 0003:00000d54       ??_R0?AVccTimer@@@8        10055d54     ccTimer.obj
 0003:00000d6c       ??_R0?AVconnectionDebugDlg@@@8 10055d6c     connectiondebugdlgimpl.obj
 0003:00000d90       ??_R0?AVconnectionDebugDlgBase@@@8 10055d90     connectiondebugdlgimpl.obj
 0003:00000db8       ??_R0?AVQDialog@@@8        10055db8     connectiondebugdlgimpl.obj
 0003:00000dd0       ??_R0?AVQDomDocument@@@8   10055dd0     dCW.obj
 0003:00000dec       ??_R0?AVQDomNode@@@8       10055dec     dCW.obj
 0003:00000e04       ??_R0?AVQGCache@@@8        10055e04     dCW.obj
 0003:00000e1c       ??_R0?AVresourceCounts@@@8 10055e1c     dCW.obj
 0003:00000e3c       ??_R0?AV?$QCache@VQDomDocument@@@@@8 10055e3c     dCW.obj
 0003:00000e64       ??_R0?AVnotifyWrangler@@@8 10055e64     notifyWrangler.obj
 0003:00000e84       ??_R0?AVQPushButton@@@8    10055e84     connectiondebugdlg.obj
 0003:00000ea0       ??_R0?AVQButton@@@8        10055ea0     connectiondebugdlg.obj
 0003:00000eb8       ??_R0?AVQVBoxLayout@@@8    10055eb8     connectiondebugdlg.obj
 0003:00000ed4       ??_R0?AVQBoxLayout@@@8     10055ed4     connectiondebugdlg.obj
 0003:00000ef0       ??_R0?AVQLayout@@@8        10055ef0     connectiondebugdlg.obj
 0003:00000f08       ??_R0?AVQLayoutItem@@@8    10055f08     connectiondebugdlg.obj
 0003:00000f24       ??_R0?AVQHBoxLayout@@@8    10055f24     connectiondebugdlg.obj
 0003:00000f40       ??_R0?AVQTextEdit@@@8      10055f40     connectiondebugdlg.obj
 0003:00000f58       ??_R0?AVQScrollView@@@8    10055f58     connectiondebugdlg.obj
 0003:00000f74       ??_R0?AVQFrame@@@8         10055f74     connectiondebugdlg.obj
 0003:00000f8c       ??_R0?AVQCheckBox@@@8      10055f8c     connectiondebugdlg.obj
 0003:00000fa4       ??_R0?AVQSpacerItem@@@8    10055fa4     connectiondebugdlg.obj
 0003:00000fc0       ??_R0?AVtype_info@@@8      10055fc0     MSVCRT:ti_inst.obj
 0003:00000fdc       ?id@?$num_put@DV?$back_insert_iterator@V?$basic_string@DU?$char_traits@D@std@@V?$allocator@D@2@@std@@@std@@@std@@2V0locale@2@A 10055fdc     bncs_client_runtime.obj
 0003:00000fe0       ?id@?$num_put@_WV?$back_insert_iterator@V?$basic_string@_WU?$char_traits@_W@std@@V?$allocator@_W@2@@std@@@std@@@std@@2V0locale@2@A 10055fe0     bncs_client_runtime.obj
 0003:00000fe8       ?m_szClass@ccTimer@@0PADA  10055fe8     ccTimer.obj
 0003:000010e8       ?m_hWndMessageWindow@ccTimer@@0PAUHWND__@@A 100560e8     ccTimer.obj
 0003:000010ec       ?m_referenceCount@ccTimer@@0IA 100560ec     ccTimer.obj
 0003:000010f4       ?m_timers@ccTimer@@0V?$map@HVccTimerClient@@U?$less@H@std@@V?$allocator@U?$pair@$$CBHVccTimerClient@@@std@@@3@@std@@A 100560f4     ccTimer.obj
 0003:000010fc       ?m_pStyle@dCW@@0PAVQStyle@@A 100560fc     dCW.obj
 0003:00001100       ?m_developerMode@dCW@@0_NA 10056100     dCW.obj
 0003:00001101       ?g_designTimeEditing@@3_NA 10056101     dCW.obj
 0003:00001104       ?gUserLimitsCallback@dCW@@0PAVIdCWlimits@@A 10056104     dCW.obj
 0003:00001108       ?gUserLimitsThreshold@dCW@@0IA 10056108     dCW.obj
 0003:00001110       ?ui@@3V?$QCache@VQDomDocument@@@@A 10056110     dCW.obj
 0003:00001130       ?resC@@3VresourceCounts@@A 10056130     dCW.obj
 0003:00001134       ?metaObj@bncs_client_runtime@@0PAVQMetaObject@@A 10056134     moc_bncs_client_runtime.obj
 0003:00001154       ?metaObj@connectionDebugDlgBase@@0PAVQMetaObject@@A 10056154     moc_connectiondebugdlg.obj
 0003:0000115c       ?metaObj@connectionDebugDlg@@0PAVQMetaObject@@A 1005615c     moc_connectiondebugdlgimpl.obj
 0003:00001178       ?m_hProcess@resourceCounts@@0PAXA 10056178     resourceCounts.obj
 0003:0000117c       ?m_refCount@resourceCounts@@0IA 1005617c     resourceCounts.obj
 0003:00001180       ?qwf_currFileName@@3VQString@@A 10056180     qui:qwidgetfactory.obj
 0003:000011b8       ?qwf_forms@@3PAV?$QMap@PAVQWidget@@VQString@@@@A 100561b8     qui:qwidgetfactory.obj
 0003:000011bc       ?qwf_language@@3PAVQString@@A 100561bc     qui:qwidgetfactory.obj
 0003:000011c0       ?qwf_stays_on_top@@3_NA    100561c0     qui:qwidgetfactory.obj
 0003:000011c4       ?qwf_form_object@@3PAVQObject@@A 100561c4     qui:qwidgetfactory.obj
 0003:000011c8       ?qwf_plugin_dir@@3PAVQString@@A 100561c8     qui:qwidgetfactory.obj
 0003:000011cc       ??_C@_00A@?$AA@            100561cc     qui:qwidgetfactory.obj
 0003:000011d8       ?metaObj@QDesignerDataBrowser2@@0PAVQMetaObject@@A 100561d8     qui:moc_database2.obj
 0003:000011dc       ?metaObj@QDesignerDataView2@@0PAVQMetaObject@@A 100561dc     qui:moc_database2.obj
 0003:00001508       ?__type_info_root_node@@3U__type_info_node@@A 10056508     MSVCRT:tncleanup.obj
 0003:00001510       ___native_startup_lock     10056510     <common>
 0003:00001514       ___native_startup_state    10056514     <common>
 0003:00001518       ___dyn_tls_init_callback   10056518     <common>
 0003:0000151c       ___onexitend               1005651c     <common>
 0003:00001520       ___onexitbegin             10056520     <common>

 entry point at        0001:000207b1

 Static symbols

 0001:00000000       _$E185                     10001000 f   qui:qwidgetfactory.obj
 0001:0000000a       _$E182                     1000100a f   qui:qwidgetfactory.obj
 0001:00000020       _$E184                     10001020 f   qui:qwidgetfactory.obj
 0001:0000002c       _$E183                     1000102c f   qui:qwidgetfactory.obj
 0001:0000004e       _$E190                     1000104e f   qui:qwidgetfactory.obj
 0001:00000058       _$E187                     10001058 f   qui:qwidgetfactory.obj
 0001:00000069       _$E189                     10001069 f   qui:qwidgetfactory.obj
 0001:00000075       _$E188                     10001075 f   qui:qwidgetfactory.obj
 0001:000002e2       ?setupPluginDir@@YAXXZ     100012e2 f   qui:qwidgetfactory.obj
 0001:00001aa1       ?stringToSizeType@@YA?AW4SizeType@QSizePolicy@@ABVQString@@@Z 10002aa1 f   qui:qwidgetfactory.obj
 0001:00003311       ?loadImageData@@YA?AVQImage@@ABVQString@@KV?$QMemArray@D@@@Z 10004311 f   qui:qwidgetfactory.obj
 0001:000062f1       ?loadImageData@@YA?AVQImage@@AAVQDomElement@@@Z 100072f1 f   qui:qwidgetfactory.obj
 0001:0000db3f       ?toBool@@YA_NABVQString@@@Z 1000eb3f f   qui:domtool.obj
 0001:0000dbbc       _$E103                     1000ebbc f   qui:moc_database2.obj
 0001:0000dbc6       _$E100                     1000ebc6 f   qui:moc_database2.obj
 0001:0000dbdc       _$E102                     1000ebdc f   qui:moc_database2.obj
 0001:0000dbe8       _$E101                     1000ebe8 f   qui:moc_database2.obj
 0001:0000dce2       _$E108                     1000ece2 f   qui:moc_database2.obj
 0001:0000dcec       _$E105                     1000ecec f   qui:moc_database2.obj
 0001:0000dd02       _$E107                     1000ed02 f   qui:moc_database2.obj
 0001:0000dd0e       _$E106                     1000ed0e f   qui:moc_database2.obj
 0001:0000de10       ??__E?_Generic_object@?$_Error_objects@H@std@@2V_Generic_error_category@2@A@@YAXXZ 1000ee10 f   bncs_client_runtime.obj
 0001:0000de20       ??__E?_Iostream_object@?$_Error_objects@H@std@@2V_Iostream_error_category@2@A@@YAXXZ 1000ee20 f   bncs_client_runtime.obj
 0001:0000de30       ??__E?_System_object@?$_Error_objects@H@std@@2V_System_error_category@2@A@@YAXXZ 1000ee30 f   bncs_client_runtime.obj
 0001:0000de40       ??__E?m_timers@ccTimer@@0V?$map@HVccTimerClient@@U?$less@H@std@@V?$allocator@U?$pair@$$CBHVccTimerClient@@@std@@@3@@std@@A@@YAXXZ 1000ee40 f   ccTimer.obj
 0001:0000de60       ??__EresC@@YAXXZ           1000ee60 f   dCW.obj
 0001:0000de80       ??__Eui@@YAXXZ             1000ee80 f   dCW.obj
 0001:0000deb0       ??__EcleanUp_bncs_client_runtime@@YAXXZ 1000eeb0 f   moc_bncs_client_runtime.obj
 0001:0000dee0       ??__EcleanUp_connectionDebugDlgBase@@YAXXZ 1000eee0 f   moc_connectiondebugdlg.obj
 0001:0000df10       ??__EcleanUp_connectionDebugDlg@@YAXXZ 1000ef10 f   moc_connectiondebugdlgimpl.obj
 0001:00011596       __catch$?_Copy@?$basic_string@DU?$char_traits@D@std@@V?$allocator@D@2@@std@@QAEXII@Z$0 10012596 f i bncs_client_runtime.obj
 0001:000115d3       __catch$?_Copy@?$basic_string@DU?$char_traits@D@std@@V?$allocator@D@2@@std@@QAEXII@Z$1 100125d3 f i bncs_client_runtime.obj
 0001:0001421c       $LN199                     1001521c     bncs_client_runtime.obj
 0001:000196fa       __catch$??$_Insert_nohint@AAU?$pair@$$CBHVccTimerClient@@@std@@PAU?$_Tree_node@U?$pair@$$CBHVccTimerClient@@@std@@PAX@2@@?$_Tree@V?$_Tmap_traits@HVccTimerClient@@U?$less@H@std@@V?$allocator@U?$pair@$$CBHVccTimerClient@@@std@@@3@$0A@@std@@@std@@IAE?AU?$pair@V?$_Tree_iterator@V?$_Tree_val@U?$_Tree_simple_types@U?$pair@$$CBHVccTimerClient@@@std@@@std@@@std@@@std@@_N@1@_NAAU?$pair@$$CBHVccTimerClient@@@1@PAU?$_Tree_node@U?$pair@$$CBHVccTimerClient@@@std@@PAX@1@@Z$0 1001a6fa f i ccTimer.obj
 0001:000204e0       $$000000                   100214e0     MSVCRT:alloca16.obj
 0001:0002056e       _pre_c_init                1002156e f   MSVCRT:crtdll.obj
 0001:000207d4       ___DllMainCRTStartup       100217d4 f   MSVCRT:crtdll.obj
 0001:00020920       $$000000                   10021920     MSVCRT:sehprolg4.obj
 0001:00020af0       $$000000                   10021af0     MSVCRT:chkstk.obj
 0001:00022bd0       __unwindfunclet$??0?$QMapNode@VQString@@VcomplexInstance@@@@QAE@ABU0@@Z$0 10023bd0 f   bncs_client_runtime.obj
 0001:00022bdc       __unwindfunclet$??0?$QMapNode@VQString@@VcomplexInstance@@@@QAE@ABU0@@Z$1 10023bdc f   bncs_client_runtime.obj
 0001:00022be8       __ehhandler$??0?$QMapNode@VQString@@VcomplexInstance@@@@QAE@ABU0@@Z 10023be8 f   bncs_client_runtime.obj
 0001:00022c10       __unwindfunclet$??0?$QMapNode@VQString@@VcomplexParam@@@@QAE@ABU0@@Z$0 10023c10 f   bncs_client_runtime.obj
 0001:00022c1c       __unwindfunclet$??0?$QMapNode@VQString@@VcomplexParam@@@@QAE@ABU0@@Z$1 10023c1c f   bncs_client_runtime.obj
 0001:00022c28       __ehhandler$??0?$QMapNode@VQString@@VcomplexParam@@@@QAE@ABU0@@Z 10023c28 f   bncs_client_runtime.obj
 0001:00022c50       __unwindfunclet$??0?$QMapNode@VQString@@VcomplexType@@@@QAE@ABU0@@Z$0 10023c50 f   bncs_client_runtime.obj
 0001:00022c5c       __unwindfunclet$??0?$QMapNode@VQString@@VcomplexType@@@@QAE@ABU0@@Z$1 10023c5c f   bncs_client_runtime.obj
 0001:00022c68       __ehhandler$??0?$QMapNode@VQString@@VcomplexType@@@@QAE@ABU0@@Z 10023c68 f   bncs_client_runtime.obj
 0001:00022c90       __unwindfunclet$??0?$QMapNode@VQString@@VdeviceTypeInfo@@@@QAE@ABU0@@Z$0 10023c90 f   bncs_client_runtime.obj
 0001:00022c9c       __unwindfunclet$??0?$QMapNode@VQString@@VdeviceTypeInfo@@@@QAE@ABU0@@Z$1 10023c9c f   bncs_client_runtime.obj
 0001:00022ca8       __ehhandler$??0?$QMapNode@VQString@@VdeviceTypeInfo@@@@QAE@ABU0@@Z 10023ca8 f   bncs_client_runtime.obj
 0001:00022cd0       __unwindfunclet$??0?$QMapNode@VQString@@VinstanceInfo@@@@QAE@ABU0@@Z$0 10023cd0 f   bncs_client_runtime.obj
 0001:00022cdc       __unwindfunclet$??0?$QMapNode@VQString@@VinstanceInfo@@@@QAE@ABU0@@Z$1 10023cdc f   bncs_client_runtime.obj
 0001:00022ce8       __ehhandler$??0?$QMapNode@VQString@@VinstanceInfo@@@@QAE@ABU0@@Z 10023ce8 f   bncs_client_runtime.obj
 0001:00022d10       __unwindfunclet$??0?$QMapPrivate@VQString@@VcomplexInstance@@@@QAE@PBV0@@Z$0 10023d10 f   bncs_client_runtime.obj
 0001:00022d1b       __unwindfunclet$??0?$QMapPrivate@VQString@@VcomplexInstance@@@@QAE@PBV0@@Z$1 10023d1b f   bncs_client_runtime.obj
 0001:00022d27       __ehhandler$??0?$QMapPrivate@VQString@@VcomplexInstance@@@@QAE@PBV0@@Z 10023d27 f   bncs_client_runtime.obj
 0001:00022d50       __unwindfunclet$??0?$QMapPrivate@VQString@@VcomplexInstance@@@@QAE@XZ$0 10023d50 f   bncs_client_runtime.obj
 0001:00022d5b       __unwindfunclet$??0?$QMapPrivate@VQString@@VcomplexInstance@@@@QAE@XZ$1 10023d5b f   bncs_client_runtime.obj
 0001:00022d67       __ehhandler$??0?$QMapPrivate@VQString@@VcomplexInstance@@@@QAE@XZ 10023d67 f   bncs_client_runtime.obj
 0001:00022d90       __unwindfunclet$??0?$QMapPrivate@VQString@@VcomplexParam@@@@QAE@PBV0@@Z$0 10023d90 f   bncs_client_runtime.obj
 0001:00022d9b       __unwindfunclet$??0?$QMapPrivate@VQString@@VcomplexParam@@@@QAE@PBV0@@Z$1 10023d9b f   bncs_client_runtime.obj
 0001:00022da7       __ehhandler$??0?$QMapPrivate@VQString@@VcomplexParam@@@@QAE@PBV0@@Z 10023da7 f   bncs_client_runtime.obj
 0001:00022dd0       __unwindfunclet$??0?$QMapPrivate@VQString@@VcomplexParam@@@@QAE@XZ$0 10023dd0 f   bncs_client_runtime.obj
 0001:00022ddb       __unwindfunclet$??0?$QMapPrivate@VQString@@VcomplexParam@@@@QAE@XZ$1 10023ddb f   bncs_client_runtime.obj
 0001:00022de7       __ehhandler$??0?$QMapPrivate@VQString@@VcomplexParam@@@@QAE@XZ 10023de7 f   bncs_client_runtime.obj
 0001:00022e10       __unwindfunclet$??0?$QMapPrivate@VQString@@VcomplexType@@@@QAE@PBV0@@Z$0 10023e10 f   bncs_client_runtime.obj
 0001:00022e1b       __unwindfunclet$??0?$QMapPrivate@VQString@@VcomplexType@@@@QAE@PBV0@@Z$1 10023e1b f   bncs_client_runtime.obj
 0001:00022e27       __ehhandler$??0?$QMapPrivate@VQString@@VcomplexType@@@@QAE@PBV0@@Z 10023e27 f   bncs_client_runtime.obj
 0001:00022e50       __unwindfunclet$??0?$QMapPrivate@VQString@@VcomplexType@@@@QAE@XZ$0 10023e50 f   bncs_client_runtime.obj
 0001:00022e5b       __unwindfunclet$??0?$QMapPrivate@VQString@@VcomplexType@@@@QAE@XZ$1 10023e5b f   bncs_client_runtime.obj
 0001:00022e67       __ehhandler$??0?$QMapPrivate@VQString@@VcomplexType@@@@QAE@XZ 10023e67 f   bncs_client_runtime.obj
 0001:00022e90       __unwindfunclet$??0?$QMapPrivate@VQString@@VdeviceTypeInfo@@@@QAE@PBV0@@Z$0 10023e90 f   bncs_client_runtime.obj
 0001:00022e9b       __unwindfunclet$??0?$QMapPrivate@VQString@@VdeviceTypeInfo@@@@QAE@PBV0@@Z$1 10023e9b f   bncs_client_runtime.obj
 0001:00022ea7       __ehhandler$??0?$QMapPrivate@VQString@@VdeviceTypeInfo@@@@QAE@PBV0@@Z 10023ea7 f   bncs_client_runtime.obj
 0001:00022ed0       __unwindfunclet$??0?$QMapPrivate@VQString@@VdeviceTypeInfo@@@@QAE@XZ$0 10023ed0 f   bncs_client_runtime.obj
 0001:00022edb       __unwindfunclet$??0?$QMapPrivate@VQString@@VdeviceTypeInfo@@@@QAE@XZ$1 10023edb f   bncs_client_runtime.obj
 0001:00022ee7       __ehhandler$??0?$QMapPrivate@VQString@@VdeviceTypeInfo@@@@QAE@XZ 10023ee7 f   bncs_client_runtime.obj
 0001:00022f10       __unwindfunclet$??0?$QMapPrivate@VQString@@VinstanceInfo@@@@QAE@PBV0@@Z$0 10023f10 f   bncs_client_runtime.obj
 0001:00022f1b       __unwindfunclet$??0?$QMapPrivate@VQString@@VinstanceInfo@@@@QAE@PBV0@@Z$1 10023f1b f   bncs_client_runtime.obj
 0001:00022f27       __ehhandler$??0?$QMapPrivate@VQString@@VinstanceInfo@@@@QAE@PBV0@@Z 10023f27 f   bncs_client_runtime.obj
 0001:00022f50       __unwindfunclet$??0?$QMapPrivate@VQString@@VinstanceInfo@@@@QAE@XZ$0 10023f50 f   bncs_client_runtime.obj
 0001:00022f5b       __unwindfunclet$??0?$QMapPrivate@VQString@@VinstanceInfo@@@@QAE@XZ$1 10023f5b f   bncs_client_runtime.obj
 0001:00022f67       __ehhandler$??0?$QMapPrivate@VQString@@VinstanceInfo@@@@QAE@XZ 10023f67 f   bncs_client_runtime.obj
 0001:00022f90       __unwindfunclet$??0?$QMapPrivate@VQString@@VparamInfo@@@@QAE@PBV0@@Z$0 10023f90 f   bncs_client_runtime.obj
 0001:00022f9b       __unwindfunclet$??0?$QMapPrivate@VQString@@VparamInfo@@@@QAE@PBV0@@Z$1 10023f9b f   bncs_client_runtime.obj
 0001:00022fa7       __ehhandler$??0?$QMapPrivate@VQString@@VparamInfo@@@@QAE@PBV0@@Z 10023fa7 f   bncs_client_runtime.obj
 0001:00022fd0       __unwindfunclet$??0?$QMapPrivate@VQString@@VparamInfo@@@@QAE@XZ$0 10023fd0 f   bncs_client_runtime.obj
 0001:00022fdb       __unwindfunclet$??0?$QMapPrivate@VQString@@VparamInfo@@@@QAE@XZ$1 10023fdb f   bncs_client_runtime.obj
 0001:00022fe7       __ehhandler$??0?$QMapPrivate@VQString@@VparamInfo@@@@QAE@XZ 10023fe7 f   bncs_client_runtime.obj
 0001:00023010       __unwindfunclet$??0?$QValueListPrivate@VdeviceTypeInfo@@@@QAE@ABV0@@Z$0 10024010 f   bncs_client_runtime.obj
 0001:00023010       __unwindfunclet$??0?$QValueListPrivate@VcomplexInstance@@@@QAE@ABV0@@Z$0 10024010 f   bncs_client_runtime.obj
 0001:00023010       __unwindfunclet$??0?$QValueListPrivate@VcomplexParam@@@@QAE@ABV0@@Z$0 10024010 f   bncs_client_runtime.obj
 0001:00023010       __unwindfunclet$??0?$QValueListPrivate@VcomplexType@@@@QAE@ABV0@@Z$0 10024010 f   bncs_client_runtime.obj
 0001:00023010       __unwindfunclet$??0?$QValueListPrivate@VinstanceInfo@@@@QAE@ABV0@@Z$0 10024010 f   bncs_client_runtime.obj
 0001:00023010       __unwindfunclet$??0?$QValueListPrivate@VparamInfo@@@@QAE@ABV0@@Z$0 10024010 f   bncs_client_runtime.obj
 0001:0002301b       __ehhandler$??0?$QValueListPrivate@VcomplexInstance@@@@QAE@ABV0@@Z 1002401b f   bncs_client_runtime.obj
 0001:0002301b       __ehhandler$??0?$QValueListPrivate@VinstanceInfo@@@@QAE@ABV0@@Z 1002401b f   bncs_client_runtime.obj
 0001:0002301b       __ehhandler$??0?$QValueListPrivate@VdeviceTypeInfo@@@@QAE@ABV0@@Z 1002401b f   bncs_client_runtime.obj
 0001:0002301b       __ehhandler$??0?$QValueListPrivate@VparamInfo@@@@QAE@ABV0@@Z 1002401b f   bncs_client_runtime.obj
 0001:0002301b       __ehhandler$??0?$QValueListPrivate@VcomplexParam@@@@QAE@ABV0@@Z 1002401b f   bncs_client_runtime.obj
 0001:0002301b       __ehhandler$??0?$QValueListPrivate@VcomplexType@@@@QAE@ABV0@@Z 1002401b f   bncs_client_runtime.obj
 0001:00023040       __unwindfunclet$??0?$QValueListPrivate@VcomplexParam@@@@QAE@XZ$0 10024040 f   bncs_client_runtime.obj
 0001:00023040       __unwindfunclet$?clear@?$QMap@VQString@@VcomplexInstance@@@@QAEXXZ$0 10024040 f   bncs_client_runtime.obj
 0001:00023040       __unwindfunclet$??0?$QValueListPrivate@VdeviceTypeInfo@@@@QAE@XZ$0 10024040 f   bncs_client_runtime.obj
 0001:00023040       __unwindfunclet$??0?$QValueListPrivate@VcomplexInstance@@@@QAE@XZ$0 10024040 f   bncs_client_runtime.obj
 0001:00023040       __unwindfunclet$??0?$QValueListPrivate@VparamInfo@@@@QAE@XZ$0 10024040 f   bncs_client_runtime.obj
 0001:00023040       __unwindfunclet$?insert@?$QValueListPrivate@VcomplexType@@@@QAE?AV?$QValueListIterator@VcomplexType@@@@V2@ABVcomplexType@@@Z$0 10024040 f   bncs_client_runtime.obj
 0001:00023040       __unwindfunclet$?insert@?$QValueListPrivate@VinstanceInfo@@@@QAE?AV?$QValueListIterator@VinstanceInfo@@@@V2@ABVinstanceInfo@@@Z$0 10024040 f   bncs_client_runtime.obj
 0001:00023040       __unwindfunclet$?clear@?$QMap@VQString@@VinstanceInfo@@@@QAEXXZ$0 10024040 f   bncs_client_runtime.obj
 0001:00023040       __unwindfunclet$?insert@?$QValueListPrivate@VdeviceTypeInfo@@@@QAE?AV?$QValueListIterator@VdeviceTypeInfo@@@@V2@ABVdeviceTypeInfo@@@Z$0 10024040 f   bncs_client_runtime.obj
 0001:00023040       __unwindfunclet$?clear@?$QMap@VQString@@VdeviceTypeInfo@@@@QAEXXZ$0 10024040 f   bncs_client_runtime.obj
 0001:00023040       __unwindfunclet$?clear@?$QMap@VQString@@VparamInfo@@@@QAEXXZ$0 10024040 f   bncs_client_runtime.obj
 0001:00023040       __unwindfunclet$?clear@?$QMap@VQString@@VcomplexType@@@@QAEXXZ$0 10024040 f   bncs_client_runtime.obj
 0001:00023040       __unwindfunclet$??0?$QValueListPrivate@VcomplexType@@@@QAE@XZ$0 10024040 f   bncs_client_runtime.obj
 0001:00023040       __unwindfunclet$??0?$QValueListPrivate@VinstanceInfo@@@@QAE@XZ$0 10024040 f   bncs_client_runtime.obj
 0001:00023040       __unwindfunclet$?clear@?$QMap@VQString@@VcomplexParam@@@@QAEXXZ$0 10024040 f   bncs_client_runtime.obj
 0001:00023040       __unwindfunclet$?insert@?$QValueListPrivate@VcomplexInstance@@@@QAE?AV?$QValueListIterator@VcomplexInstance@@@@V2@ABVcomplexInstance@@@Z$0 10024040 f   bncs_client_runtime.obj
 0001:0002304b       __ehhandler$??0?$QValueListPrivate@VinstanceInfo@@@@QAE@XZ 1002404b f   bncs_client_runtime.obj
 0001:0002304b       __ehhandler$??0?$QValueListPrivate@VcomplexType@@@@QAE@XZ 1002404b f   bncs_client_runtime.obj
 0001:0002304b       __ehhandler$?clear@?$QMap@VQString@@VcomplexType@@@@QAEXXZ 1002404b f   bncs_client_runtime.obj
 0001:0002304b       __ehhandler$?clear@?$QMap@VQString@@VdeviceTypeInfo@@@@QAEXXZ 1002404b f   bncs_client_runtime.obj
 0001:0002304b       __ehhandler$?insert@?$QValueListPrivate@VinstanceInfo@@@@QAE?AV?$QValueListIterator@VinstanceInfo@@@@V2@ABVinstanceInfo@@@Z 1002404b f   bncs_client_runtime.obj
 0001:0002304b       __ehhandler$?insert@?$QValueListPrivate@VcomplexInstance@@@@QAE?AV?$QValueListIterator@VcomplexInstance@@@@V2@ABVcomplexInstance@@@Z 1002404b f   bncs_client_runtime.obj
 0001:0002304b       __ehhandler$?clear@?$QMap@VQString@@VcomplexParam@@@@QAEXXZ 1002404b f   bncs_client_runtime.obj
 0001:0002304b       __ehhandler$?clear@?$QMap@VQString@@VparamInfo@@@@QAEXXZ 1002404b f   bncs_client_runtime.obj
 0001:0002304b       __ehhandler$?insert@?$QValueListPrivate@VdeviceTypeInfo@@@@QAE?AV?$QValueListIterator@VdeviceTypeInfo@@@@V2@ABVdeviceTypeInfo@@@Z 1002404b f   bncs_client_runtime.obj
 0001:0002304b       __ehhandler$?insert@?$QValueListPrivate@VcomplexType@@@@QAE?AV?$QValueListIterator@VcomplexType@@@@V2@ABVcomplexType@@@Z 1002404b f   bncs_client_runtime.obj
 0001:0002304b       __ehhandler$??0?$QValueListPrivate@VparamInfo@@@@QAE@XZ 1002404b f   bncs_client_runtime.obj
 0001:0002304b       __ehhandler$?clear@?$QMap@VQString@@VcomplexInstance@@@@QAEXXZ 1002404b f   bncs_client_runtime.obj
 0001:0002304b       __ehhandler$??0?$QValueListPrivate@VcomplexInstance@@@@QAE@XZ 1002404b f   bncs_client_runtime.obj
 0001:0002304b       __ehhandler$?clear@?$QMap@VQString@@VinstanceInfo@@@@QAEXXZ 1002404b f   bncs_client_runtime.obj
 0001:0002304b       __ehhandler$??0?$QValueListPrivate@VcomplexParam@@@@QAE@XZ 1002404b f   bncs_client_runtime.obj
 0001:0002304b       __ehhandler$??0?$QValueListPrivate@VdeviceTypeInfo@@@@QAE@XZ 1002404b f   bncs_client_runtime.obj
 0001:00023070       __unwindfunclet$??0bncs_client_runtime@@QAE@ABV0@@Z$0 10024070 f   bncs_client_runtime.obj
 0001:00023079       __unwindfunclet$??0bncs_client_runtime@@QAE@ABV0@@Z$1 10024079 f   bncs_client_runtime.obj
 0001:00023085       __unwindfunclet$??0bncs_client_runtime@@QAE@ABV0@@Z$2 10024085 f   bncs_client_runtime.obj
 0001:00023094       __unwindfunclet$??0bncs_client_runtime@@QAE@ABV0@@Z$3 10024094 f   bncs_client_runtime.obj
 0001:000230a2       __unwindfunclet$??0bncs_client_runtime@@QAE@ABV0@@Z$4 100240a2 f   bncs_client_runtime.obj
 0001:000230b1       __ehhandler$??0bncs_client_runtime@@QAE@ABV0@@Z 100240b1 f   bncs_client_runtime.obj
 0001:000230d0       __unwindfunclet$??0bncs_client_runtime@@QAE@PAVQWidget@@PBDI@Z$0 100240d0 f   bncs_client_runtime.obj
 0001:000230d9       __unwindfunclet$??0bncs_client_runtime@@QAE@PAVQWidget@@PBDI@Z$1 100240d9 f   bncs_client_runtime.obj
 0001:000230e5       __unwindfunclet$??0bncs_client_runtime@@QAE@PAVQWidget@@PBDI@Z$2 100240e5 f   bncs_client_runtime.obj
 0001:000230f4       __unwindfunclet$??0bncs_client_runtime@@QAE@PAVQWidget@@PBDI@Z$3 100240f4 f   bncs_client_runtime.obj
 0001:00023102       __unwindfunclet$??0bncs_client_runtime@@QAE@PAVQWidget@@PBDI@Z$4 10024102 f   bncs_client_runtime.obj
 0001:00023111       __unwindfunclet$??0bncs_client_runtime@@QAE@PAVQWidget@@PBDI@Z$5 10024111 f   bncs_client_runtime.obj
 0001:00023120       __ehhandler$??0bncs_client_runtime@@QAE@PAVQWidget@@PBDI@Z 10024120 f   bncs_client_runtime.obj
 0001:00023140       __unwindfunclet$??0dCW@@QAE@XZ$0 10024140 f   bncs_client_runtime.obj
 0001:00023140       __unwindfunclet$??0dCW@@QAE@ABV0@@Z$0 10024140 f   bncs_client_runtime.obj
 0001:0002314c       __unwindfunclet$??0dCW@@QAE@XZ$1 1002414c f   bncs_client_runtime.obj
 0001:0002314c       __unwindfunclet$??0dCW@@QAE@ABV0@@Z$1 1002414c f   bncs_client_runtime.obj
 0001:00023158       __unwindfunclet$??0dCW@@QAE@ABV0@@Z$2 10024158 f   bncs_client_runtime.obj
 0001:00023158       __unwindfunclet$??0dCW@@QAE@XZ$2 10024158 f   bncs_client_runtime.obj
 0001:00023164       __unwindfunclet$??0dCW@@QAE@ABV0@@Z$3 10024164 f   bncs_client_runtime.obj
 0001:00023164       __unwindfunclet$??0dCW@@QAE@XZ$3 10024164 f   bncs_client_runtime.obj
 0001:00023170       __unwindfunclet$??0dCW@@QAE@ABV0@@Z$4 10024170 f   bncs_client_runtime.obj
 0001:00023170       __unwindfunclet$??0dCW@@QAE@XZ$4 10024170 f   bncs_client_runtime.obj
 0001:0002317c       __unwindfunclet$??0dCW@@QAE@ABV0@@Z$5 1002417c f   bncs_client_runtime.obj
 0001:0002317c       __unwindfunclet$??0dCW@@QAE@XZ$5 1002417c f   bncs_client_runtime.obj
 0001:00023188       __unwindfunclet$??0dCW@@QAE@XZ$6 10024188 f   bncs_client_runtime.obj
 0001:00023188       __unwindfunclet$??0dCW@@QAE@ABV0@@Z$6 10024188 f   bncs_client_runtime.obj
 0001:00023194       __unwindfunclet$??0dCW@@QAE@XZ$7 10024194 f   bncs_client_runtime.obj
 0001:00023194       __unwindfunclet$??0dCW@@QAE@ABV0@@Z$7 10024194 f   bncs_client_runtime.obj
 0001:000231a0       __ehhandler$??0dCW@@QAE@XZ 100241a0 f   bncs_client_runtime.obj
 0001:000231a0       __ehhandler$??0dCW@@QAE@ABV0@@Z 100241a0 f   bncs_client_runtime.obj
 0001:000231c0       __unwindfunclet$??0signalConnection@@QAE@ABV0@@Z$0 100241c0 f   bncs_client_runtime.obj
 0001:000231c9       __unwindfunclet$??0signalConnection@@QAE@ABV0@@Z$1 100241c9 f   bncs_client_runtime.obj
 0001:000231d5       __unwindfunclet$??0signalConnection@@QAE@ABV0@@Z$2 100241d5 f   bncs_client_runtime.obj
 0001:000231e1       __unwindfunclet$??0signalConnection@@QAE@ABV0@@Z$3 100241e1 f   bncs_client_runtime.obj
 0001:000231ed       __ehhandler$??0signalConnection@@QAE@ABV0@@Z 100241ed f   bncs_client_runtime.obj
 0001:00023210       __unwindfunclet$??0signalConnection@@QAE@ABVQString@@0000@Z$0 10024210 f   bncs_client_runtime.obj
 0001:00023219       __unwindfunclet$??0signalConnection@@QAE@ABVQString@@0000@Z$1 10024219 f   bncs_client_runtime.obj
 0001:00023225       __unwindfunclet$??0signalConnection@@QAE@ABVQString@@0000@Z$2 10024225 f   bncs_client_runtime.obj
 0001:00023231       __unwindfunclet$??0signalConnection@@QAE@ABVQString@@0000@Z$3 10024231 f   bncs_client_runtime.obj
 0001:0002323d       __unwindfunclet$??0signalConnection@@QAE@ABVQString@@0000@Z$4 1002423d f   bncs_client_runtime.obj
 0001:00023249       __ehhandler$??0signalConnection@@QAE@ABVQString@@0000@Z 10024249 f   bncs_client_runtime.obj
 0001:00023270       __unwindfunclet$??1?$QMapPrivate@VQString@@VcomplexInstance@@@@QAE@XZ$0 10024270 f   bncs_client_runtime.obj
 0001:0002327c       __ehhandler$??1?$QMapPrivate@VQString@@VcomplexInstance@@@@QAE@XZ 1002427c f   bncs_client_runtime.obj
 0001:000232a0       __unwindfunclet$??1?$QMapPrivate@VQString@@VcomplexParam@@@@QAE@XZ$0 100242a0 f   bncs_client_runtime.obj
 0001:000232ac       __ehhandler$??1?$QMapPrivate@VQString@@VcomplexParam@@@@QAE@XZ 100242ac f   bncs_client_runtime.obj
 0001:000232d0       __unwindfunclet$??1?$QMapPrivate@VQString@@VcomplexType@@@@QAE@XZ$0 100242d0 f   bncs_client_runtime.obj
 0001:000232dc       __ehhandler$??1?$QMapPrivate@VQString@@VcomplexType@@@@QAE@XZ 100242dc f   bncs_client_runtime.obj
 0001:00023300       __unwindfunclet$??1?$QMapPrivate@VQString@@VdeviceTypeInfo@@@@QAE@XZ$0 10024300 f   bncs_client_runtime.obj
 0001:0002330c       __ehhandler$??1?$QMapPrivate@VQString@@VdeviceTypeInfo@@@@QAE@XZ 1002430c f   bncs_client_runtime.obj
 0001:00023330       __unwindfunclet$??1?$QMapPrivate@VQString@@VinstanceInfo@@@@QAE@XZ$0 10024330 f   bncs_client_runtime.obj
 0001:0002333c       __ehhandler$??1?$QMapPrivate@VQString@@VinstanceInfo@@@@QAE@XZ 1002433c f   bncs_client_runtime.obj
 0001:00023360       __unwindfunclet$??1?$QMapPrivate@VQString@@VparamInfo@@@@QAE@XZ$0 10024360 f   bncs_client_runtime.obj
 0001:0002336c       __ehhandler$??1?$QMapPrivate@VQString@@VparamInfo@@@@QAE@XZ 1002436c f   bncs_client_runtime.obj
 0001:00023390       __unwindfunclet$??1?$QPtrList@VsignalConnection@@@@UAE@XZ$0 10024390 f   bncs_client_runtime.obj
 0001:00023399       __ehhandler$??1?$QPtrList@VsignalConnection@@@@UAE@XZ 10024399 f   bncs_client_runtime.obj
 0001:000233c0       __unwindfunclet$??1bncs_client_runtime@@UAE@XZ$0 100243c0 f   bncs_client_runtime.obj
 0001:000233c9       __unwindfunclet$??1bncs_client_runtime@@UAE@XZ$1 100243c9 f   bncs_client_runtime.obj
 0001:000233d5       __unwindfunclet$??1bncs_client_runtime@@UAE@XZ$2 100243d5 f   bncs_client_runtime.obj
 0001:000233e4       __unwindfunclet$??1bncs_client_runtime@@UAE@XZ$3 100243e4 f   bncs_client_runtime.obj
 0001:000233f2       __unwindfunclet$??1bncs_client_runtime@@UAE@XZ$4 100243f2 f   bncs_client_runtime.obj
 0001:00023401       __unwindfunclet$??1bncs_client_runtime@@UAE@XZ$5 10024401 f   bncs_client_runtime.obj
 0001:00023410       __unwindfunclet$??1bncs_client_runtime@@UAE@XZ$6 10024410 f   bncs_client_runtime.obj
 0001:00023418       __unwindfunclet$??1bncs_client_runtime@@UAE@XZ$7 10024418 f   bncs_client_runtime.obj
 0001:00023421       __unwindfunclet$??1bncs_client_runtime@@UAE@XZ$8 10024421 f   bncs_client_runtime.obj
 0001:0002342a       __unwindfunclet$??1bncs_client_runtime@@UAE@XZ$9 1002442a f   bncs_client_runtime.obj
 0001:00023433       __ehhandler$??1bncs_client_runtime@@UAE@XZ 10024433 f   bncs_client_runtime.obj
 0001:00023450       __unwindfunclet$??1signalConnection@@QAE@XZ$0 10024450 f   bncs_client_runtime.obj
 0001:00023459       __unwindfunclet$??1signalConnection@@QAE@XZ$1 10024459 f   bncs_client_runtime.obj
 0001:00023465       __unwindfunclet$??1signalConnection@@QAE@XZ$2 10024465 f   bncs_client_runtime.obj
 0001:00023471       __unwindfunclet$??1signalConnection@@QAE@XZ$3 10024471 f   bncs_client_runtime.obj
 0001:0002347d       __ehhandler$??1signalConnection@@QAE@XZ 1002447d f   bncs_client_runtime.obj
 0001:000234a0       __unwindfunclet$??1signalConnectionRefList@@UAE@XZ$0 100244a0 f   bncs_client_runtime.obj
 0001:000234a8       __unwindfunclet$??1signalConnectionRefList@@UAE@XZ$1 100244a8 f   bncs_client_runtime.obj
 0001:000234b1       __ehhandler$??1signalConnectionRefList@@UAE@XZ 100244b1 f   bncs_client_runtime.obj
 0001:000234d0       __unwindfunclet$??A?$QMap@VQString@@VcomplexInstance@@@@QAEAAVcomplexInstance@@ABVQString@@@Z$1 100244d0 f   bncs_client_runtime.obj
 0001:000234db       __unwindfunclet$??A?$QMap@VQString@@VcomplexInstance@@@@QAEAAVcomplexInstance@@ABVQString@@@Z$0 100244db f   bncs_client_runtime.obj
 0001:000234e4       __unwindfunclet$??A?$QMap@VQString@@VcomplexInstance@@@@QAEAAVcomplexInstance@@ABVQString@@@Z$2 100244e4 f   bncs_client_runtime.obj
 0001:000234ef       __ehhandler$??A?$QMap@VQString@@VcomplexInstance@@@@QAEAAVcomplexInstance@@ABVQString@@@Z 100244ef f   bncs_client_runtime.obj
 0001:00023510       __unwindfunclet$??A?$QMap@VQString@@VcomplexParam@@@@QAEAAVcomplexParam@@ABVQString@@@Z$1 10024510 f   bncs_client_runtime.obj
 0001:0002351b       __unwindfunclet$??A?$QMap@VQString@@VcomplexParam@@@@QAEAAVcomplexParam@@ABVQString@@@Z$0 1002451b f   bncs_client_runtime.obj
 0001:00023524       __ehhandler$??A?$QMap@VQString@@VcomplexParam@@@@QAEAAVcomplexParam@@ABVQString@@@Z 10024524 f   bncs_client_runtime.obj
 0001:00023540       __unwindfunclet$??A?$QMap@VQString@@VcomplexType@@@@QAEAAVcomplexType@@ABVQString@@@Z$1 10024540 f   bncs_client_runtime.obj
 0001:0002354b       __unwindfunclet$??A?$QMap@VQString@@VcomplexType@@@@QAEAAVcomplexType@@ABVQString@@@Z$0 1002454b f   bncs_client_runtime.obj
 0001:00023554       __unwindfunclet$??A?$QMap@VQString@@VcomplexType@@@@QAEAAVcomplexType@@ABVQString@@@Z$2 10024554 f   bncs_client_runtime.obj
 0001:0002355f       __ehhandler$??A?$QMap@VQString@@VcomplexType@@@@QAEAAVcomplexType@@ABVQString@@@Z 1002455f f   bncs_client_runtime.obj
 0001:00023580       __unwindfunclet$??A?$QMap@VQString@@VdeviceTypeInfo@@@@QAEAAVdeviceTypeInfo@@ABVQString@@@Z$1 10024580 f   bncs_client_runtime.obj
 0001:0002358b       __unwindfunclet$??A?$QMap@VQString@@VdeviceTypeInfo@@@@QAEAAVdeviceTypeInfo@@ABVQString@@@Z$0 1002458b f   bncs_client_runtime.obj
 0001:00023594       __unwindfunclet$??A?$QMap@VQString@@VdeviceTypeInfo@@@@QAEAAVdeviceTypeInfo@@ABVQString@@@Z$2 10024594 f   bncs_client_runtime.obj
 0001:0002359f       __ehhandler$??A?$QMap@VQString@@VdeviceTypeInfo@@@@QAEAAVdeviceTypeInfo@@ABVQString@@@Z 1002459f f   bncs_client_runtime.obj
 0001:000235c0       __unwindfunclet$??A?$QMap@VQString@@VinstanceInfo@@@@QAEAAVinstanceInfo@@ABVQString@@@Z$1 100245c0 f   bncs_client_runtime.obj
 0001:000235cb       __unwindfunclet$??A?$QMap@VQString@@VinstanceInfo@@@@QAEAAVinstanceInfo@@ABVQString@@@Z$0 100245cb f   bncs_client_runtime.obj
 0001:000235d4       __unwindfunclet$??A?$QMap@VQString@@VinstanceInfo@@@@QAEAAVinstanceInfo@@ABVQString@@@Z$2 100245d4 f   bncs_client_runtime.obj
 0001:000235df       __ehhandler$??A?$QMap@VQString@@VinstanceInfo@@@@QAEAAVinstanceInfo@@ABVQString@@@Z 100245df f   bncs_client_runtime.obj
 0001:00023600       __unwindfunclet$??A?$QMap@VQString@@VparamInfo@@@@QAEAAVparamInfo@@ABVQString@@@Z$1 10024600 f   bncs_client_runtime.obj
 0001:0002360b       __unwindfunclet$??A?$QMap@VQString@@VparamInfo@@@@QAEAAVparamInfo@@ABVQString@@@Z$0 1002460b f   bncs_client_runtime.obj
 0001:00023614       __unwindfunclet$??A?$QMap@VQString@@VparamInfo@@@@QAEAAVparamInfo@@ABVQString@@@Z$2 10024614 f   bncs_client_runtime.obj
 0001:0002361f       __ehhandler$??A?$QMap@VQString@@VparamInfo@@@@QAEAAVparamInfo@@ABVQString@@@Z 1002461f f   bncs_client_runtime.obj
 0001:00023640       __unwindfunclet$??_E?$QPtrList@VsignalConnection@@@@UAEPAXI@Z$0 10024640 f   bncs_client_runtime.obj
 0001:00023649       __ehhandler$??_E?$QPtrList@VsignalConnection@@@@UAEPAXI@Z 10024649 f   bncs_client_runtime.obj
 0001:00023670       __unwindfunclet$??_EsignalConnectionRefList@@UAEPAXI@Z$0 10024670 f   bncs_client_runtime.obj
 0001:00023678       __unwindfunclet$??_EsignalConnectionRefList@@UAEPAXI@Z$1 10024678 f   bncs_client_runtime.obj
 0001:00023681       __ehhandler$??_EsignalConnectionRefList@@UAEPAXI@Z 10024681 f   bncs_client_runtime.obj
 0001:000236a0       __ehhandler$?_Copy@?$basic_string@DU?$char_traits@D@std@@V?$allocator@D@2@@std@@QAEXII@Z 100246a0 f   bncs_client_runtime.obj
 0001:000236c0       __unwindfunclet$?addConnection@bncs_client_runtime@@QAEXABVQString@@0000@Z$0 100246c0 f   bncs_client_runtime.obj
 0001:000236cb       __unwindfunclet$?addConnection@bncs_client_runtime@@QAEXABVQString@@0000@Z$1 100246cb f   bncs_client_runtime.obj
 0001:000236d6       __ehhandler$?addConnection@bncs_client_runtime@@QAEXABVQString@@0000@Z 100246d6 f   bncs_client_runtime.obj
 0001:00023700       __unwindfunclet$?append@?$QValueList@VcomplexType@@@@QAE?AV?$QValueListIterator@VcomplexType@@@@ABVcomplexType@@@Z$0 10024700 f   bncs_client_runtime.obj
 0001:00023700       __unwindfunclet$?append@?$QValueList@VcomplexParam@@@@QAE?AV?$QValueListIterator@VcomplexParam@@@@ABVcomplexParam@@@Z$0 10024700 f   bncs_client_runtime.obj
 0001:00023700       __unwindfunclet$?append@?$QValueList@VinstanceInfo@@@@QAE?AV?$QValueListIterator@VinstanceInfo@@@@ABVinstanceInfo@@@Z$0 10024700 f   bncs_client_runtime.obj
 0001:00023700       __unwindfunclet$?append@?$QValueList@VdeviceTypeInfo@@@@QAE?AV?$QValueListIterator@VdeviceTypeInfo@@@@ABVdeviceTypeInfo@@@Z$0 10024700 f   bncs_client_runtime.obj
 0001:00023700       __unwindfunclet$?append@?$QValueList@VparamInfo@@@@QAE?AV?$QValueListIterator@VparamInfo@@@@ABVparamInfo@@@Z$0 10024700 f   bncs_client_runtime.obj
 0001:00023700       __unwindfunclet$?append@?$QValueList@VcomplexInstance@@@@QAE?AV?$QValueListIterator@VcomplexInstance@@@@ABVcomplexInstance@@@Z$0 10024700 f   bncs_client_runtime.obj
 0001:0002370b       __unwindfunclet$?append@?$QValueList@VcomplexType@@@@QAE?AV?$QValueListIterator@VcomplexType@@@@ABVcomplexType@@@Z$1 1002470b f   bncs_client_runtime.obj
 0001:0002370b       __unwindfunclet$?append@?$QValueList@VcomplexInstance@@@@QAE?AV?$QValueListIterator@VcomplexInstance@@@@ABVcomplexInstance@@@Z$1 1002470b f   bncs_client_runtime.obj
 0001:0002370b       __unwindfunclet$?append@?$QValueList@VinstanceInfo@@@@QAE?AV?$QValueListIterator@VinstanceInfo@@@@ABVinstanceInfo@@@Z$1 1002470b f   bncs_client_runtime.obj
 0001:0002370b       __unwindfunclet$?append@?$QValueList@VcomplexParam@@@@QAE?AV?$QValueListIterator@VcomplexParam@@@@ABVcomplexParam@@@Z$1 1002470b f   bncs_client_runtime.obj
 0001:0002370b       __unwindfunclet$?append@?$QValueList@VdeviceTypeInfo@@@@QAE?AV?$QValueListIterator@VdeviceTypeInfo@@@@ABVdeviceTypeInfo@@@Z$1 1002470b f   bncs_client_runtime.obj
 0001:0002370b       __unwindfunclet$?append@?$QValueList@VparamInfo@@@@QAE?AV?$QValueListIterator@VparamInfo@@@@ABVparamInfo@@@Z$1 1002470b f   bncs_client_runtime.obj
 0001:00023716       __ehhandler$?append@?$QValueList@VinstanceInfo@@@@QAE?AV?$QValueListIterator@VinstanceInfo@@@@ABVinstanceInfo@@@Z 10024716 f   bncs_client_runtime.obj
 0001:00023716       __ehhandler$?append@?$QValueList@VcomplexInstance@@@@QAE?AV?$QValueListIterator@VcomplexInstance@@@@ABVcomplexInstance@@@Z 10024716 f   bncs_client_runtime.obj
 0001:00023716       __ehhandler$?append@?$QValueList@VparamInfo@@@@QAE?AV?$QValueListIterator@VparamInfo@@@@ABVparamInfo@@@Z 10024716 f   bncs_client_runtime.obj
 0001:00023716       __ehhandler$?append@?$QValueList@VcomplexParam@@@@QAE?AV?$QValueListIterator@VcomplexParam@@@@ABVcomplexParam@@@Z 10024716 f   bncs_client_runtime.obj
 0001:00023716       __ehhandler$?append@?$QValueList@VdeviceTypeInfo@@@@QAE?AV?$QValueListIterator@VdeviceTypeInfo@@@@ABVdeviceTypeInfo@@@Z 10024716 f   bncs_client_runtime.obj
 0001:00023716       __ehhandler$?append@?$QValueList@VcomplexType@@@@QAE?AV?$QValueListIterator@VcomplexType@@@@ABVcomplexType@@@Z 10024716 f   bncs_client_runtime.obj
 0001:00023740       __unwindfunclet$?detach@?$QMap@VQString@@VinstanceInfo@@@@IAEXXZ$0 10024740 f   bncs_client_runtime.obj
 0001:00023740       __unwindfunclet$?begin@?$QMap@VQString@@VcomplexParam@@@@QAE?AV?$QMapIterator@VQString@@VcomplexParam@@@@XZ$0 10024740 f   bncs_client_runtime.obj
 0001:00023740       __unwindfunclet$?end@?$QMap@VQString@@VcomplexParam@@@@QAE?AV?$QMapIterator@VQString@@VcomplexParam@@@@XZ$0 10024740 f   bncs_client_runtime.obj
 0001:00023740       __unwindfunclet$?detach@?$QMap@VQString@@VcomplexInstance@@@@IAEXXZ$0 10024740 f   bncs_client_runtime.obj
 0001:00023740       __unwindfunclet$?detachInternal@?$QMap@VQString@@VinstanceInfo@@@@AAEXXZ$0 10024740 f   bncs_client_runtime.obj
 0001:00023740       __unwindfunclet$??0?$QMap@VQString@@VdeviceTypeInfo@@@@QAE@XZ$0 10024740 f   bncs_client_runtime.obj
 0001:00023740       __unwindfunclet$?detachInternal@?$QMap@VQString@@VcomplexParam@@@@AAEXXZ$0 10024740 f   bncs_client_runtime.obj
 0001:00023740       __unwindfunclet$?detachInternal@?$QMap@VQString@@VcomplexInstance@@@@AAEXXZ$0 10024740 f   bncs_client_runtime.obj
 0001:00023740       __unwindfunclet$?find@?$QMap@VQString@@VcomplexParam@@@@QAE?AV?$QMapIterator@VQString@@VcomplexParam@@@@ABVQString@@@Z$0 10024740 f   bncs_client_runtime.obj
 0001:00023740       __unwindfunclet$?detachInternal@?$QMap@VQString@@VcomplexType@@@@AAEXXZ$0 10024740 f   bncs_client_runtime.obj
 0001:00023740       __unwindfunclet$?detachInternal@?$QMap@VQString@@VparamInfo@@@@AAEXXZ$0 10024740 f   bncs_client_runtime.obj
 0001:00023740       __unwindfunclet$?detach@?$QMap@VQString@@VcomplexType@@@@IAEXXZ$0 10024740 f   bncs_client_runtime.obj
 0001:00023740       __unwindfunclet$?find@?$QMap@VQString@@VinstanceInfo@@@@QAE?AV?$QMapIterator@VQString@@VinstanceInfo@@@@ABVQString@@@Z$0 10024740 f   bncs_client_runtime.obj
 0001:00023740       __unwindfunclet$?begin@?$QMap@VQString@@VdeviceTypeInfo@@@@QAE?AV?$QMapIterator@VQString@@VdeviceTypeInfo@@@@XZ$0 10024740 f   bncs_client_runtime.obj
 0001:00023740       __unwindfunclet$?find@?$QMap@VQString@@VcomplexInstance@@@@QAE?AV?$QMapIterator@VQString@@VcomplexInstance@@@@ABVQString@@@Z$0 10024740 f   bncs_client_runtime.obj
 0001:00023740       __unwindfunclet$??0?$QMap@VQString@@VcomplexInstance@@@@QAE@XZ$0 10024740 f   bncs_client_runtime.obj
 0001:00023740       __unwindfunclet$?find@?$QMap@VQString@@VdeviceTypeInfo@@@@QAE?AV?$QMapIterator@VQString@@VdeviceTypeInfo@@@@ABVQString@@@Z$0 10024740 f   bncs_client_runtime.obj
 0001:00023740       __unwindfunclet$?find@?$QMap@VQString@@VcomplexType@@@@QAE?AV?$QMapIterator@VQString@@VcomplexType@@@@ABVQString@@@Z$0 10024740 f   bncs_client_runtime.obj
 0001:00023740       __unwindfunclet$?detach@?$QMap@VQString@@VparamInfo@@@@IAEXXZ$0 10024740 f   bncs_client_runtime.obj
 0001:00023740       __unwindfunclet$?end@?$QMap@VQString@@VdeviceTypeInfo@@@@QAE?AV?$QMapIterator@VQString@@VdeviceTypeInfo@@@@XZ$0 10024740 f   bncs_client_runtime.obj
 0001:00023740       __unwindfunclet$?find@?$QMap@VQString@@VparamInfo@@@@QAE?AV?$QMapIterator@VQString@@VparamInfo@@@@ABVQString@@@Z$0 10024740 f   bncs_client_runtime.obj
 0001:00023740       __unwindfunclet$??0?$QMap@VQString@@VcomplexParam@@@@QAE@XZ$0 10024740 f   bncs_client_runtime.obj
 0001:00023740       __unwindfunclet$?end@?$QMap@VQString@@VparamInfo@@@@QAE?AV?$QMapIterator@VQString@@VparamInfo@@@@XZ$0 10024740 f   bncs_client_runtime.obj
 0001:00023740       __unwindfunclet$?begin@?$QMap@VQString@@VparamInfo@@@@QAE?AV?$QMapIterator@VQString@@VparamInfo@@@@XZ$0 10024740 f   bncs_client_runtime.obj
 0001:00023740       __unwindfunclet$??0?$QMap@VQString@@VparamInfo@@@@QAE@XZ$0 10024740 f   bncs_client_runtime.obj
 0001:00023740       __unwindfunclet$?begin@?$QMap@VQString@@VcomplexInstance@@@@QAE?AV?$QMapIterator@VQString@@VcomplexInstance@@@@XZ$0 10024740 f   bncs_client_runtime.obj
 0001:00023740       __unwindfunclet$?begin@?$QMap@VQString@@VinstanceInfo@@@@QAE?AV?$QMapIterator@VQString@@VinstanceInfo@@@@XZ$0 10024740 f   bncs_client_runtime.obj
 0001:00023740       __unwindfunclet$?end@?$QMap@VQString@@VcomplexInstance@@@@QAE?AV?$QMapIterator@VQString@@VcomplexInstance@@@@XZ$0 10024740 f   bncs_client_runtime.obj
 0001:00023740       __unwindfunclet$??0?$QMap@VQString@@VinstanceInfo@@@@QAE@XZ$0 10024740 f   bncs_client_runtime.obj
 0001:00023740       __unwindfunclet$?end@?$QMap@VQString@@VcomplexType@@@@QAE?AV?$QMapIterator@VQString@@VcomplexType@@@@XZ$0 10024740 f   bncs_client_runtime.obj
 0001:00023740       __unwindfunclet$?detach@?$QMap@VQString@@VcomplexParam@@@@IAEXXZ$0 10024740 f   bncs_client_runtime.obj
 0001:00023740       __unwindfunclet$?begin@?$QMap@VQString@@VcomplexType@@@@QAE?AV?$QMapIterator@VQString@@VcomplexType@@@@XZ$0 10024740 f   bncs_client_runtime.obj
 0001:00023740       __unwindfunclet$?detach@?$QMap@VQString@@VdeviceTypeInfo@@@@IAEXXZ$0 10024740 f   bncs_client_runtime.obj
 0001:00023740       __unwindfunclet$??0?$QMap@VQString@@VcomplexType@@@@QAE@XZ$0 10024740 f   bncs_client_runtime.obj
 0001:00023740       __unwindfunclet$?detachInternal@?$QMap@VQString@@VdeviceTypeInfo@@@@AAEXXZ$0 10024740 f   bncs_client_runtime.obj
 0001:00023740       __unwindfunclet$?end@?$QMap@VQString@@VinstanceInfo@@@@QAE?AV?$QMapIterator@VQString@@VinstanceInfo@@@@XZ$0 10024740 f   bncs_client_runtime.obj
 0001:0002374b       __ehhandler$?detachInternal@?$QMap@VQString@@VdeviceTypeInfo@@@@AAEXXZ 1002474b f   bncs_client_runtime.obj
 0001:0002374b       __ehhandler$?begin@?$QMap@VQString@@VcomplexType@@@@QAE?AV?$QMapIterator@VQString@@VcomplexType@@@@XZ 1002474b f   bncs_client_runtime.obj
 0001:0002374b       __ehhandler$?detach@?$QMap@VQString@@VdeviceTypeInfo@@@@IAEXXZ 1002474b f   bncs_client_runtime.obj
 0001:0002374b       __ehhandler$?end@?$QMap@VQString@@VcomplexType@@@@QAE?AV?$QMapIterator@VQString@@VcomplexType@@@@XZ 1002474b f   bncs_client_runtime.obj
 0001:0002374b       __ehhandler$?end@?$QMap@VQString@@VcomplexInstance@@@@QAE?AV?$QMapIterator@VQString@@VcomplexInstance@@@@XZ 1002474b f   bncs_client_runtime.obj
 0001:0002374b       __ehhandler$?end@?$QMap@VQString@@VinstanceInfo@@@@QAE?AV?$QMapIterator@VQString@@VinstanceInfo@@@@XZ 1002474b f   bncs_client_runtime.obj
 0001:0002374b       __ehhandler$?begin@?$QMap@VQString@@VinstanceInfo@@@@QAE?AV?$QMapIterator@VQString@@VinstanceInfo@@@@XZ 1002474b f   bncs_client_runtime.obj
 0001:0002374b       __ehhandler$?find@?$QMap@VQString@@VcomplexType@@@@QAE?AV?$QMapIterator@VQString@@VcomplexType@@@@ABVQString@@@Z 1002474b f   bncs_client_runtime.obj
 0001:0002374b       __ehhandler$?begin@?$QMap@VQString@@VcomplexInstance@@@@QAE?AV?$QMapIterator@VQString@@VcomplexInstance@@@@XZ 1002474b f   bncs_client_runtime.obj
 0001:0002374b       __ehhandler$?find@?$QMap@VQString@@VdeviceTypeInfo@@@@QAE?AV?$QMapIterator@VQString@@VdeviceTypeInfo@@@@ABVQString@@@Z 1002474b f   bncs_client_runtime.obj
 0001:0002374b       __ehhandler$??0?$QMap@VQString@@VcomplexInstance@@@@QAE@XZ 1002474b f   bncs_client_runtime.obj
 0001:0002374b       __ehhandler$?detach@?$QMap@VQString@@VcomplexType@@@@IAEXXZ 1002474b f   bncs_client_runtime.obj
 0001:0002374b       __ehhandler$?detachInternal@?$QMap@VQString@@VcomplexType@@@@AAEXXZ 1002474b f   bncs_client_runtime.obj
 0001:0002374b       __ehhandler$??0?$QMap@VQString@@VinstanceInfo@@@@QAE@XZ 1002474b f   bncs_client_runtime.obj
 0001:0002374b       __ehhandler$??0?$QMap@VQString@@VparamInfo@@@@QAE@XZ 1002474b f   bncs_client_runtime.obj
 0001:0002374b       __ehhandler$?begin@?$QMap@VQString@@VparamInfo@@@@QAE?AV?$QMapIterator@VQString@@VparamInfo@@@@XZ 1002474b f   bncs_client_runtime.obj
 0001:0002374b       __ehhandler$?end@?$QMap@VQString@@VparamInfo@@@@QAE?AV?$QMapIterator@VQString@@VparamInfo@@@@XZ 1002474b f   bncs_client_runtime.obj
 0001:0002374b       __ehhandler$?find@?$QMap@VQString@@VparamInfo@@@@QAE?AV?$QMapIterator@VQString@@VparamInfo@@@@ABVQString@@@Z 1002474b f   bncs_client_runtime.obj
 0001:0002374b       __ehhandler$?find@?$QMap@VQString@@VcomplexInstance@@@@QAE?AV?$QMapIterator@VQString@@VcomplexInstance@@@@ABVQString@@@Z 1002474b f   bncs_client_runtime.obj
 0001:0002374b       __ehhandler$?detach@?$QMap@VQString@@VparamInfo@@@@IAEXXZ 1002474b f   bncs_client_runtime.obj
 0001:0002374b       __ehhandler$?detachInternal@?$QMap@VQString@@VcomplexParam@@@@AAEXXZ 1002474b f   bncs_client_runtime.obj
 0001:0002374b       __ehhandler$?find@?$QMap@VQString@@VinstanceInfo@@@@QAE?AV?$QMapIterator@VQString@@VinstanceInfo@@@@ABVQString@@@Z 1002474b f   bncs_client_runtime.obj
 0001:0002374b       __ehhandler$?end@?$QMap@VQString@@VdeviceTypeInfo@@@@QAE?AV?$QMapIterator@VQString@@VdeviceTypeInfo@@@@XZ 1002474b f   bncs_client_runtime.obj
 0001:0002374b       __ehhandler$?detach@?$QMap@VQString@@VcomplexParam@@@@IAEXXZ 1002474b f   bncs_client_runtime.obj
 0001:0002374b       __ehhandler$?begin@?$QMap@VQString@@VdeviceTypeInfo@@@@QAE?AV?$QMapIterator@VQString@@VdeviceTypeInfo@@@@XZ 1002474b f   bncs_client_runtime.obj
 0001:0002374b       __ehhandler$?find@?$QMap@VQString@@VcomplexParam@@@@QAE?AV?$QMapIterator@VQString@@VcomplexParam@@@@ABVQString@@@Z 1002474b f   bncs_client_runtime.obj
 0001:0002374b       __ehhandler$??0?$QMap@VQString@@VdeviceTypeInfo@@@@QAE@XZ 1002474b f   bncs_client_runtime.obj
 0001:0002374b       __ehhandler$?detachInternal@?$QMap@VQString@@VparamInfo@@@@AAEXXZ 1002474b f   bncs_client_runtime.obj
 0001:0002374b       __ehhandler$?detachInternal@?$QMap@VQString@@VinstanceInfo@@@@AAEXXZ 1002474b f   bncs_client_runtime.obj
 0001:0002374b       __ehhandler$?end@?$QMap@VQString@@VcomplexParam@@@@QAE?AV?$QMapIterator@VQString@@VcomplexParam@@@@XZ 1002474b f   bncs_client_runtime.obj
 0001:0002374b       __ehhandler$?detach@?$QMap@VQString@@VinstanceInfo@@@@IAEXXZ 1002474b f   bncs_client_runtime.obj
 0001:0002374b       __ehhandler$??0?$QMap@VQString@@VcomplexParam@@@@QAE@XZ 1002474b f   bncs_client_runtime.obj
 0001:0002374b       __ehhandler$?detach@?$QMap@VQString@@VcomplexInstance@@@@IAEXXZ 1002474b f   bncs_client_runtime.obj
 0001:0002374b       __ehhandler$?begin@?$QMap@VQString@@VcomplexParam@@@@QAE?AV?$QMapIterator@VQString@@VcomplexParam@@@@XZ 1002474b f   bncs_client_runtime.obj
 0001:0002374b       __ehhandler$?detachInternal@?$QMap@VQString@@VcomplexInstance@@@@AAEXXZ 1002474b f   bncs_client_runtime.obj
 0001:0002374b       __ehhandler$??0?$QMap@VQString@@VcomplexType@@@@QAE@XZ 1002474b f   bncs_client_runtime.obj
 0001:00023770       __unwindfunclet$?ccTimerCallback@bncs_client_runtime@@MAEXH@Z$0 10024770 f   bncs_client_runtime.obj
 0001:00023779       __unwindfunclet$?ccTimerCallback@bncs_client_runtime@@MAEXH@Z$1 10024779 f   bncs_client_runtime.obj
 0001:00023782       __ehhandler$?ccTimerCallback@bncs_client_runtime@@MAEXH@Z 10024782 f   bncs_client_runtime.obj
 0001:000237a0       __unwindfunclet$?clear@?$QMapPrivate@VQString@@VcomplexInstance@@@@QAEXPAU?$QMapNode@VQString@@VcomplexInstance@@@@@Z$0 100247a0 f   bncs_client_runtime.obj
 0001:000237ac       __ehhandler$?clear@?$QMapPrivate@VQString@@VcomplexInstance@@@@QAEXPAU?$QMapNode@VQString@@VcomplexInstance@@@@@Z 100247ac f   bncs_client_runtime.obj
 0001:000237d0       __unwindfunclet$?clear@?$QMapPrivate@VQString@@VcomplexParam@@@@QAEXPAU?$QMapNode@VQString@@VcomplexParam@@@@@Z$0 100247d0 f   bncs_client_runtime.obj
 0001:000237dc       __ehhandler$?clear@?$QMapPrivate@VQString@@VcomplexParam@@@@QAEXPAU?$QMapNode@VQString@@VcomplexParam@@@@@Z 100247dc f   bncs_client_runtime.obj
 0001:00023800       __unwindfunclet$?clear@?$QMapPrivate@VQString@@VcomplexType@@@@QAEXPAU?$QMapNode@VQString@@VcomplexType@@@@@Z$0 10024800 f   bncs_client_runtime.obj
 0001:0002380c       __ehhandler$?clear@?$QMapPrivate@VQString@@VcomplexType@@@@QAEXPAU?$QMapNode@VQString@@VcomplexType@@@@@Z 1002480c f   bncs_client_runtime.obj
 0001:00023830       __unwindfunclet$?clear@?$QMapPrivate@VQString@@VdeviceTypeInfo@@@@QAEXPAU?$QMapNode@VQString@@VdeviceTypeInfo@@@@@Z$0 10024830 f   bncs_client_runtime.obj
 0001:0002383c       __ehhandler$?clear@?$QMapPrivate@VQString@@VdeviceTypeInfo@@@@QAEXPAU?$QMapNode@VQString@@VdeviceTypeInfo@@@@@Z 1002483c f   bncs_client_runtime.obj
 0001:00023860       __unwindfunclet$?clear@?$QMapPrivate@VQString@@VinstanceInfo@@@@QAEXPAU?$QMapNode@VQString@@VinstanceInfo@@@@@Z$0 10024860 f   bncs_client_runtime.obj
 0001:0002386c       __ehhandler$?clear@?$QMapPrivate@VQString@@VinstanceInfo@@@@QAEXPAU?$QMapNode@VQString@@VinstanceInfo@@@@@Z 1002486c f   bncs_client_runtime.obj
 0001:00023890       __unwindfunclet$?clear@?$QMapPrivate@VQString@@VparamInfo@@@@QAEXPAU?$QMapNode@VQString@@VparamInfo@@@@@Z$0 10024890 f   bncs_client_runtime.obj
 0001:0002389c       __ehhandler$?clear@?$QMapPrivate@VQString@@VparamInfo@@@@QAEXPAU?$QMapNode@VQString@@VparamInfo@@@@@Z 1002489c f   bncs_client_runtime.obj
 0001:000238c0       __unwindfunclet$?connectionTriggerEvent@bncs_client_runtime@@AAEXABVQString@@0@Z$0 100248c0 f   bncs_client_runtime.obj
 0001:000238c9       __unwindfunclet$?connectionTriggerEvent@bncs_client_runtime@@AAEXABVQString@@0@Z$1 100248c9 f   bncs_client_runtime.obj
 0001:000238d2       __unwindfunclet$?connectionTriggerEvent@bncs_client_runtime@@AAEXABVQString@@0@Z$2 100248d2 f   bncs_client_runtime.obj
 0001:000238db       __unwindfunclet$?connectionTriggerEvent@bncs_client_runtime@@AAEXABVQString@@0@Z$3 100248db f   bncs_client_runtime.obj
 0001:000238e4       __unwindfunclet$?connectionTriggerEvent@bncs_client_runtime@@AAEXABVQString@@0@Z$4 100248e4 f   bncs_client_runtime.obj
 0001:00023907       __unwindfunclet$?connectionTriggerEvent@bncs_client_runtime@@AAEXABVQString@@0@Z$5 10024907 f   bncs_client_runtime.obj
 0001:00023910       __unwindfunclet$?connectionTriggerEvent@bncs_client_runtime@@AAEXABVQString@@0@Z$6 10024910 f   bncs_client_runtime.obj
 0001:0002391b       __unwindfunclet$?connectionTriggerEvent@bncs_client_runtime@@AAEXABVQString@@0@Z$7 1002491b f   bncs_client_runtime.obj
 0001:00023926       __unwindfunclet$?connectionTriggerEvent@bncs_client_runtime@@AAEXABVQString@@0@Z$8 10024926 f   bncs_client_runtime.obj
 0001:0002392f       __unwindfunclet$?connectionTriggerEvent@bncs_client_runtime@@AAEXABVQString@@0@Z$9 1002492f f   bncs_client_runtime.obj
 0001:0002393b       __unwindfunclet$?connectionTriggerEvent@bncs_client_runtime@@AAEXABVQString@@0@Z$10 1002493b f   bncs_client_runtime.obj
 0001:00023944       __unwindfunclet$?connectionTriggerEvent@bncs_client_runtime@@AAEXABVQString@@0@Z$11 10024944 f   bncs_client_runtime.obj
 0001:00023950       __unwindfunclet$?connectionTriggerEvent@bncs_client_runtime@@AAEXABVQString@@0@Z$12 10024950 f   bncs_client_runtime.obj
 0001:0002395b       __unwindfunclet$?connectionTriggerEvent@bncs_client_runtime@@AAEXABVQString@@0@Z$13 1002495b f   bncs_client_runtime.obj
 0001:00023967       __unwindfunclet$?connectionTriggerEvent@bncs_client_runtime@@AAEXABVQString@@0@Z$14 10024967 f   bncs_client_runtime.obj
 0001:00023970       __unwindfunclet$?connectionTriggerEvent@bncs_client_runtime@@AAEXABVQString@@0@Z$15 10024970 f   bncs_client_runtime.obj
 0001:0002397c       __unwindfunclet$?connectionTriggerEvent@bncs_client_runtime@@AAEXABVQString@@0@Z$16 1002497c f   bncs_client_runtime.obj
 0001:00023985       __unwindfunclet$?connectionTriggerEvent@bncs_client_runtime@@AAEXABVQString@@0@Z$17 10024985 f   bncs_client_runtime.obj
 0001:00023991       __unwindfunclet$?connectionTriggerEvent@bncs_client_runtime@@AAEXABVQString@@0@Z$18 10024991 f   bncs_client_runtime.obj
 0001:0002399a       __unwindfunclet$?connectionTriggerEvent@bncs_client_runtime@@AAEXABVQString@@0@Z$19 1002499a f   bncs_client_runtime.obj
 0001:000239a3       __unwindfunclet$?connectionTriggerEvent@bncs_client_runtime@@AAEXABVQString@@0@Z$20 100249a3 f   bncs_client_runtime.obj
 0001:000239ac       __unwindfunclet$?connectionTriggerEvent@bncs_client_runtime@@AAEXABVQString@@0@Z$21 100249ac f   bncs_client_runtime.obj
 0001:000239b7       __unwindfunclet$?connectionTriggerEvent@bncs_client_runtime@@AAEXABVQString@@0@Z$22 100249b7 f   bncs_client_runtime.obj
 0001:000239c3       __unwindfunclet$?connectionTriggerEvent@bncs_client_runtime@@AAEXABVQString@@0@Z$23 100249c3 f   bncs_client_runtime.obj
 0001:000239cf       __unwindfunclet$?connectionTriggerEvent@bncs_client_runtime@@AAEXABVQString@@0@Z$24 100249cf f   bncs_client_runtime.obj
 0001:000239d8       __unwindfunclet$?connectionTriggerEvent@bncs_client_runtime@@AAEXABVQString@@0@Z$25 100249d8 f   bncs_client_runtime.obj
 0001:000239e3       __unwindfunclet$?connectionTriggerEvent@bncs_client_runtime@@AAEXABVQString@@0@Z$26 100249e3 f   bncs_client_runtime.obj
 0001:000239ee       __unwindfunclet$?connectionTriggerEvent@bncs_client_runtime@@AAEXABVQString@@0@Z$27 100249ee f   bncs_client_runtime.obj
 0001:000239f7       __unwindfunclet$?connectionTriggerEvent@bncs_client_runtime@@AAEXABVQString@@0@Z$28 100249f7 f   bncs_client_runtime.obj
 0001:00023a00       __unwindfunclet$?connectionTriggerEvent@bncs_client_runtime@@AAEXABVQString@@0@Z$29 10024a00 f   bncs_client_runtime.obj
 0001:00023a0c       __unwindfunclet$?connectionTriggerEvent@bncs_client_runtime@@AAEXABVQString@@0@Z$30 10024a0c f   bncs_client_runtime.obj
 0001:00023a15       __unwindfunclet$?connectionTriggerEvent@bncs_client_runtime@@AAEXABVQString@@0@Z$31 10024a15 f   bncs_client_runtime.obj
 0001:00023a1e       __unwindfunclet$?connectionTriggerEvent@bncs_client_runtime@@AAEXABVQString@@0@Z$32 10024a1e f   bncs_client_runtime.obj
 0001:00023a27       __unwindfunclet$?connectionTriggerEvent@bncs_client_runtime@@AAEXABVQString@@0@Z$33 10024a27 f   bncs_client_runtime.obj
 0001:00023a30       __unwindfunclet$?connectionTriggerEvent@bncs_client_runtime@@AAEXABVQString@@0@Z$34 10024a30 f   bncs_client_runtime.obj
 0001:00023a39       __unwindfunclet$?connectionTriggerEvent@bncs_client_runtime@@AAEXABVQString@@0@Z$35 10024a39 f   bncs_client_runtime.obj
 0001:00023a42       __unwindfunclet$?connectionTriggerEvent@bncs_client_runtime@@AAEXABVQString@@0@Z$36 10024a42 f   bncs_client_runtime.obj
 0001:00023a4e       __unwindfunclet$?connectionTriggerEvent@bncs_client_runtime@@AAEXABVQString@@0@Z$37 10024a4e f   bncs_client_runtime.obj
 0001:00023a5a       __unwindfunclet$?connectionTriggerEvent@bncs_client_runtime@@AAEXABVQString@@0@Z$38 10024a5a f   bncs_client_runtime.obj
 0001:00023a66       __unwindfunclet$?connectionTriggerEvent@bncs_client_runtime@@AAEXABVQString@@0@Z$39 10024a66 f   bncs_client_runtime.obj
 0001:00023a72       __unwindfunclet$?connectionTriggerEvent@bncs_client_runtime@@AAEXABVQString@@0@Z$40 10024a72 f   bncs_client_runtime.obj
 0001:00023a7b       __unwindfunclet$?connectionTriggerEvent@bncs_client_runtime@@AAEXABVQString@@0@Z$41 10024a7b f   bncs_client_runtime.obj
 0001:00023a84       __unwindfunclet$?connectionTriggerEvent@bncs_client_runtime@@AAEXABVQString@@0@Z$42 10024a84 f   bncs_client_runtime.obj
 0001:00023a8f       __unwindfunclet$?connectionTriggerEvent@bncs_client_runtime@@AAEXABVQString@@0@Z$43 10024a8f f   bncs_client_runtime.obj
 0001:00023a98       __unwindfunclet$?connectionTriggerEvent@bncs_client_runtime@@AAEXABVQString@@0@Z$44 10024a98 f   bncs_client_runtime.obj
 0001:00023aa4       __unwindfunclet$?connectionTriggerEvent@bncs_client_runtime@@AAEXABVQString@@0@Z$45 10024aa4 f   bncs_client_runtime.obj
 0001:00023ab0       __unwindfunclet$?connectionTriggerEvent@bncs_client_runtime@@AAEXABVQString@@0@Z$46 10024ab0 f   bncs_client_runtime.obj
 0001:00023abc       __unwindfunclet$?connectionTriggerEvent@bncs_client_runtime@@AAEXABVQString@@0@Z$47 10024abc f   bncs_client_runtime.obj
 0001:00023ac8       __unwindfunclet$?connectionTriggerEvent@bncs_client_runtime@@AAEXABVQString@@0@Z$48 10024ac8 f   bncs_client_runtime.obj
 0001:00023ad4       __unwindfunclet$?connectionTriggerEvent@bncs_client_runtime@@AAEXABVQString@@0@Z$49 10024ad4 f   bncs_client_runtime.obj
 0001:00023add       __unwindfunclet$?connectionTriggerEvent@bncs_client_runtime@@AAEXABVQString@@0@Z$50 10024add f   bncs_client_runtime.obj
 0001:00023ae6       __unwindfunclet$?connectionTriggerEvent@bncs_client_runtime@@AAEXABVQString@@0@Z$51 10024ae6 f   bncs_client_runtime.obj
 0001:00023aef       __unwindfunclet$?connectionTriggerEvent@bncs_client_runtime@@AAEXABVQString@@0@Z$52 10024aef f   bncs_client_runtime.obj
 0001:00023af8       __unwindfunclet$?connectionTriggerEvent@bncs_client_runtime@@AAEXABVQString@@0@Z$53 10024af8 f   bncs_client_runtime.obj
 0001:00023b01       __ehhandler$?connectionTriggerEvent@bncs_client_runtime@@AAEXABVQString@@0@Z 10024b01 f   bncs_client_runtime.obj
 0001:00023b20       __unwindfunclet$?contextMenuEvent@bncs_client_runtime@@UAEXPAVQContextMenuEvent@@@Z$0 10024b20 f   bncs_client_runtime.obj
 0001:00023b2c       __unwindfunclet$?contextMenuEvent@bncs_client_runtime@@UAEXPAVQContextMenuEvent@@@Z$1 10024b2c f   bncs_client_runtime.obj
 0001:00023b35       __unwindfunclet$?contextMenuEvent@bncs_client_runtime@@UAEXPAVQContextMenuEvent@@@Z$2 10024b35 f   bncs_client_runtime.obj
 0001:00023b3e       __unwindfunclet$?contextMenuEvent@bncs_client_runtime@@UAEXPAVQContextMenuEvent@@@Z$3 10024b3e f   bncs_client_runtime.obj
 0001:00023b47       __unwindfunclet$?contextMenuEvent@bncs_client_runtime@@UAEXPAVQContextMenuEvent@@@Z$4 10024b47 f   bncs_client_runtime.obj
 0001:00023b50       __unwindfunclet$?contextMenuEvent@bncs_client_runtime@@UAEXPAVQContextMenuEvent@@@Z$5 10024b50 f   bncs_client_runtime.obj
 0001:00023b59       __unwindfunclet$?contextMenuEvent@bncs_client_runtime@@UAEXPAVQContextMenuEvent@@@Z$6 10024b59 f   bncs_client_runtime.obj
 0001:00023b62       __unwindfunclet$?contextMenuEvent@bncs_client_runtime@@UAEXPAVQContextMenuEvent@@@Z$7 10024b62 f   bncs_client_runtime.obj
 0001:00023b6b       __unwindfunclet$?contextMenuEvent@bncs_client_runtime@@UAEXPAVQContextMenuEvent@@@Z$8 10024b6b f   bncs_client_runtime.obj
 0001:00023b74       __unwindfunclet$?contextMenuEvent@bncs_client_runtime@@UAEXPAVQContextMenuEvent@@@Z$9 10024b74 f   bncs_client_runtime.obj
 0001:00023b7d       __unwindfunclet$?contextMenuEvent@bncs_client_runtime@@UAEXPAVQContextMenuEvent@@@Z$10 10024b7d f   bncs_client_runtime.obj
 0001:00023b86       __unwindfunclet$?contextMenuEvent@bncs_client_runtime@@UAEXPAVQContextMenuEvent@@@Z$11 10024b86 f   bncs_client_runtime.obj
 0001:00023b8f       __unwindfunclet$?contextMenuEvent@bncs_client_runtime@@UAEXPAVQContextMenuEvent@@@Z$12 10024b8f f   bncs_client_runtime.obj
 0001:00023b98       __unwindfunclet$?contextMenuEvent@bncs_client_runtime@@UAEXPAVQContextMenuEvent@@@Z$13 10024b98 f   bncs_client_runtime.obj
 0001:00023ba1       __unwindfunclet$?contextMenuEvent@bncs_client_runtime@@UAEXPAVQContextMenuEvent@@@Z$14 10024ba1 f   bncs_client_runtime.obj
 0001:00023baa       __unwindfunclet$?contextMenuEvent@bncs_client_runtime@@UAEXPAVQContextMenuEvent@@@Z$15 10024baa f   bncs_client_runtime.obj
 0001:00023bb3       __unwindfunclet$?contextMenuEvent@bncs_client_runtime@@UAEXPAVQContextMenuEvent@@@Z$16 10024bb3 f   bncs_client_runtime.obj
 0001:00023bbc       __unwindfunclet$?contextMenuEvent@bncs_client_runtime@@UAEXPAVQContextMenuEvent@@@Z$17 10024bbc f   bncs_client_runtime.obj
 0001:00023bc5       __unwindfunclet$?contextMenuEvent@bncs_client_runtime@@UAEXPAVQContextMenuEvent@@@Z$18 10024bc5 f   bncs_client_runtime.obj
 0001:00023bce       __unwindfunclet$?contextMenuEvent@bncs_client_runtime@@UAEXPAVQContextMenuEvent@@@Z$19 10024bce f   bncs_client_runtime.obj
 0001:00023bd9       __unwindfunclet$?contextMenuEvent@bncs_client_runtime@@UAEXPAVQContextMenuEvent@@@Z$20 10024bd9 f   bncs_client_runtime.obj
 0001:00023be2       __unwindfunclet$?contextMenuEvent@bncs_client_runtime@@UAEXPAVQContextMenuEvent@@@Z$21 10024be2 f   bncs_client_runtime.obj
 0001:00023beb       __unwindfunclet$?contextMenuEvent@bncs_client_runtime@@UAEXPAVQContextMenuEvent@@@Z$22 10024beb f   bncs_client_runtime.obj
 0001:00023bf4       __unwindfunclet$?contextMenuEvent@bncs_client_runtime@@UAEXPAVQContextMenuEvent@@@Z$23 10024bf4 f   bncs_client_runtime.obj
 0001:00023bfd       __unwindfunclet$?contextMenuEvent@bncs_client_runtime@@UAEXPAVQContextMenuEvent@@@Z$24 10024bfd f   bncs_client_runtime.obj
 0001:00023c06       __ehhandler$?contextMenuEvent@bncs_client_runtime@@UAEXPAVQContextMenuEvent@@@Z 10024c06 f   bncs_client_runtime.obj
 0001:00023c30       __unwindfunclet$?copy@?$QMapPrivate@VQString@@VcomplexType@@@@QAEPAU?$QMapNode@VQString@@VcomplexType@@@@PAU2@@Z$0 10024c30 f   bncs_client_runtime.obj
 0001:00023c30       __unwindfunclet$?copy@?$QMapPrivate@VQString@@VdeviceTypeInfo@@@@QAEPAU?$QMapNode@VQString@@VdeviceTypeInfo@@@@PAU2@@Z$0 10024c30 f   bncs_client_runtime.obj
 0001:00023c30       __unwindfunclet$?copy@?$QMapPrivate@VQString@@VcomplexParam@@@@QAEPAU?$QMapNode@VQString@@VcomplexParam@@@@PAU2@@Z$0 10024c30 f   bncs_client_runtime.obj
 0001:00023c30       __unwindfunclet$?copy@?$QMapPrivate@VQString@@VinstanceInfo@@@@QAEPAU?$QMapNode@VQString@@VinstanceInfo@@@@PAU2@@Z$0 10024c30 f   bncs_client_runtime.obj
 0001:00023c30       __unwindfunclet$?copy@?$QMapPrivate@VQString@@VcomplexInstance@@@@QAEPAU?$QMapNode@VQString@@VcomplexInstance@@@@PAU2@@Z$0 10024c30 f   bncs_client_runtime.obj
 0001:00023c3b       __ehhandler$?copy@?$QMapPrivate@VQString@@VdeviceTypeInfo@@@@QAEPAU?$QMapNode@VQString@@VdeviceTypeInfo@@@@PAU2@@Z 10024c3b f   bncs_client_runtime.obj
 0001:00023c3b       __ehhandler$?copy@?$QMapPrivate@VQString@@VcomplexParam@@@@QAEPAU?$QMapNode@VQString@@VcomplexParam@@@@PAU2@@Z 10024c3b f   bncs_client_runtime.obj
 0001:00023c3b       __ehhandler$?copy@?$QMapPrivate@VQString@@VcomplexInstance@@@@QAEPAU?$QMapNode@VQString@@VcomplexInstance@@@@PAU2@@Z 10024c3b f   bncs_client_runtime.obj
 0001:00023c3b       __ehhandler$?copy@?$QMapPrivate@VQString@@VinstanceInfo@@@@QAEPAU?$QMapNode@VQString@@VinstanceInfo@@@@PAU2@@Z 10024c3b f   bncs_client_runtime.obj
 0001:00023c3b       __ehhandler$?copy@?$QMapPrivate@VQString@@VcomplexType@@@@QAEPAU?$QMapNode@VQString@@VcomplexType@@@@PAU2@@Z 10024c3b f   bncs_client_runtime.obj
 0001:00023c60       __unwindfunclet$?copy@?$QMapPrivate@VQString@@VparamInfo@@@@QAEPAU?$QMapNode@VQString@@VparamInfo@@@@PAU2@@Z$0 10024c60 f   bncs_client_runtime.obj
 0001:00023c6b       __unwindfunclet$?copy@?$QMapPrivate@VQString@@VparamInfo@@@@QAEPAU?$QMapNode@VQString@@VparamInfo@@@@PAU2@@Z$1 10024c6b f   bncs_client_runtime.obj
 0001:00023c77       __unwindfunclet$?copy@?$QMapPrivate@VQString@@VparamInfo@@@@QAEPAU?$QMapNode@VQString@@VparamInfo@@@@PAU2@@Z$2 10024c77 f   bncs_client_runtime.obj
 0001:00023c83       __ehhandler$?copy@?$QMapPrivate@VQString@@VparamInfo@@@@QAEPAU?$QMapNode@VQString@@VparamInfo@@@@PAU2@@Z 10024c83 f   bncs_client_runtime.obj
 0001:00023ca0       __unwindfunclet$?deleteItem@?$QPtrList@VsignalConnection@@@@EAEXPAX@Z$0 10024ca0 f   bncs_client_runtime.obj
 0001:00023ca9       __unwindfunclet$?deleteItem@?$QPtrList@VsignalConnection@@@@EAEXPAX@Z$1 10024ca9 f   bncs_client_runtime.obj
 0001:00023cb5       __unwindfunclet$?deleteItem@?$QPtrList@VsignalConnection@@@@EAEXPAX@Z$2 10024cb5 f   bncs_client_runtime.obj
 0001:00023cc1       __unwindfunclet$?deleteItem@?$QPtrList@VsignalConnection@@@@EAEXPAX@Z$3 10024cc1 f   bncs_client_runtime.obj
 0001:00023ccd       __ehhandler$?deleteItem@?$QPtrList@VsignalConnection@@@@EAEXPAX@Z 10024ccd f   bncs_client_runtime.obj
 0001:00023cf0       __unwindfunclet$?erase@?$QMap@VQString@@VcomplexInstance@@@@QAEXABVQString@@@Z$0 10024cf0 f   bncs_client_runtime.obj
 0001:00023cf0       __unwindfunclet$?remove@?$QMap@VQString@@VcomplexInstance@@@@QAEXABVQString@@@Z$0 10024cf0 f   bncs_client_runtime.obj
 0001:00023cfb       __unwindfunclet$?remove@?$QMap@VQString@@VcomplexInstance@@@@QAEXABVQString@@@Z$1 10024cfb f   bncs_client_runtime.obj
 0001:00023cfb       __unwindfunclet$?erase@?$QMap@VQString@@VcomplexInstance@@@@QAEXABVQString@@@Z$1 10024cfb f   bncs_client_runtime.obj
 0001:00023d06       __unwindfunclet$?erase@?$QMap@VQString@@VcomplexInstance@@@@QAEXABVQString@@@Z$2 10024d06 f   bncs_client_runtime.obj
 0001:00023d06       __unwindfunclet$?remove@?$QMap@VQString@@VcomplexInstance@@@@QAEXABVQString@@@Z$2 10024d06 f   bncs_client_runtime.obj
 0001:00023d12       __ehhandler$?remove@?$QMap@VQString@@VcomplexInstance@@@@QAEXABVQString@@@Z 10024d12 f   bncs_client_runtime.obj
 0001:00023d12       __ehhandler$?erase@?$QMap@VQString@@VcomplexInstance@@@@QAEXABVQString@@@Z 10024d12 f   bncs_client_runtime.obj
 0001:00023d30       __unwindfunclet$?remove@?$QMap@VQString@@VcomplexInstance@@@@QAEXV?$QMapIterator@VQString@@VcomplexInstance@@@@@Z$0 10024d30 f   bncs_client_runtime.obj
 0001:00023d30       __unwindfunclet$?erase@?$QMap@VQString@@VcomplexInstance@@@@QAEXV?$QMapIterator@VQString@@VcomplexInstance@@@@@Z$0 10024d30 f   bncs_client_runtime.obj
 0001:00023d3b       __unwindfunclet$?remove@?$QMap@VQString@@VcomplexInstance@@@@QAEXV?$QMapIterator@VQString@@VcomplexInstance@@@@@Z$1 10024d3b f   bncs_client_runtime.obj
 0001:00023d3b       __unwindfunclet$?erase@?$QMap@VQString@@VcomplexInstance@@@@QAEXV?$QMapIterator@VQString@@VcomplexInstance@@@@@Z$1 10024d3b f   bncs_client_runtime.obj
 0001:00023d47       __ehhandler$?erase@?$QMap@VQString@@VcomplexInstance@@@@QAEXV?$QMapIterator@VQString@@VcomplexInstance@@@@@Z 10024d47 f   bncs_client_runtime.obj
 0001:00023d47       __ehhandler$?remove@?$QMap@VQString@@VcomplexInstance@@@@QAEXV?$QMapIterator@VQString@@VcomplexInstance@@@@@Z 10024d47 f   bncs_client_runtime.obj
 0001:00023d70       __unwindfunclet$?remove@?$QMap@VQString@@VcomplexParam@@@@QAEXABVQString@@@Z$0 10024d70 f   bncs_client_runtime.obj
 0001:00023d70       __unwindfunclet$?erase@?$QMap@VQString@@VcomplexParam@@@@QAEXABVQString@@@Z$0 10024d70 f   bncs_client_runtime.obj
 0001:00023d7b       __unwindfunclet$?remove@?$QMap@VQString@@VcomplexParam@@@@QAEXABVQString@@@Z$1 10024d7b f   bncs_client_runtime.obj
 0001:00023d7b       __unwindfunclet$?erase@?$QMap@VQString@@VcomplexParam@@@@QAEXABVQString@@@Z$1 10024d7b f   bncs_client_runtime.obj
 0001:00023d86       __unwindfunclet$?remove@?$QMap@VQString@@VcomplexParam@@@@QAEXABVQString@@@Z$2 10024d86 f   bncs_client_runtime.obj
 0001:00023d86       __unwindfunclet$?erase@?$QMap@VQString@@VcomplexParam@@@@QAEXABVQString@@@Z$2 10024d86 f   bncs_client_runtime.obj
 0001:00023d92       __ehhandler$?remove@?$QMap@VQString@@VcomplexParam@@@@QAEXABVQString@@@Z 10024d92 f   bncs_client_runtime.obj
 0001:00023d92       __ehhandler$?erase@?$QMap@VQString@@VcomplexParam@@@@QAEXABVQString@@@Z 10024d92 f   bncs_client_runtime.obj
 0001:00023db0       __unwindfunclet$?erase@?$QMap@VQString@@VcomplexType@@@@QAEXV?$QMapIterator@VQString@@VcomplexType@@@@@Z$0 10024db0 f   bncs_client_runtime.obj
 0001:00023db0       __unwindfunclet$?remove@?$QMap@VQString@@VcomplexType@@@@QAEXV?$QMapIterator@VQString@@VcomplexType@@@@@Z$0 10024db0 f   bncs_client_runtime.obj
 0001:00023dbb       __unwindfunclet$?erase@?$QMap@VQString@@VcomplexType@@@@QAEXV?$QMapIterator@VQString@@VcomplexType@@@@@Z$1 10024dbb f   bncs_client_runtime.obj
 0001:00023dbb       __unwindfunclet$?remove@?$QMap@VQString@@VcomplexType@@@@QAEXV?$QMapIterator@VQString@@VcomplexType@@@@@Z$1 10024dbb f   bncs_client_runtime.obj
 0001:00023dc7       __ehhandler$?erase@?$QMap@VQString@@VcomplexType@@@@QAEXV?$QMapIterator@VQString@@VcomplexType@@@@@Z 10024dc7 f   bncs_client_runtime.obj
 0001:00023dc7       __ehhandler$?remove@?$QMap@VQString@@VcomplexType@@@@QAEXV?$QMapIterator@VQString@@VcomplexType@@@@@Z 10024dc7 f   bncs_client_runtime.obj
 0001:00023df0       __unwindfunclet$?erase@?$QMap@VQString@@VdeviceTypeInfo@@@@QAEXABVQString@@@Z$0 10024df0 f   bncs_client_runtime.obj
 0001:00023df0       __unwindfunclet$?remove@?$QMap@VQString@@VdeviceTypeInfo@@@@QAEXABVQString@@@Z$0 10024df0 f   bncs_client_runtime.obj
 0001:00023dfb       __unwindfunclet$?erase@?$QMap@VQString@@VdeviceTypeInfo@@@@QAEXABVQString@@@Z$1 10024dfb f   bncs_client_runtime.obj
 0001:00023dfb       __unwindfunclet$?remove@?$QMap@VQString@@VdeviceTypeInfo@@@@QAEXABVQString@@@Z$1 10024dfb f   bncs_client_runtime.obj
 0001:00023e06       __unwindfunclet$?erase@?$QMap@VQString@@VdeviceTypeInfo@@@@QAEXABVQString@@@Z$2 10024e06 f   bncs_client_runtime.obj
 0001:00023e06       __unwindfunclet$?remove@?$QMap@VQString@@VdeviceTypeInfo@@@@QAEXABVQString@@@Z$2 10024e06 f   bncs_client_runtime.obj
 0001:00023e12       __ehhandler$?erase@?$QMap@VQString@@VdeviceTypeInfo@@@@QAEXABVQString@@@Z 10024e12 f   bncs_client_runtime.obj
 0001:00023e12       __ehhandler$?remove@?$QMap@VQString@@VdeviceTypeInfo@@@@QAEXABVQString@@@Z 10024e12 f   bncs_client_runtime.obj
 0001:00023e30       __unwindfunclet$?erase@?$QMap@VQString@@VinstanceInfo@@@@QAEXABVQString@@@Z$0 10024e30 f   bncs_client_runtime.obj
 0001:00023e30       __unwindfunclet$?remove@?$QMap@VQString@@VinstanceInfo@@@@QAEXABVQString@@@Z$0 10024e30 f   bncs_client_runtime.obj
 0001:00023e3b       __unwindfunclet$?erase@?$QMap@VQString@@VinstanceInfo@@@@QAEXABVQString@@@Z$1 10024e3b f   bncs_client_runtime.obj
 0001:00023e3b       __unwindfunclet$?remove@?$QMap@VQString@@VinstanceInfo@@@@QAEXABVQString@@@Z$1 10024e3b f   bncs_client_runtime.obj
 0001:00023e46       __unwindfunclet$?erase@?$QMap@VQString@@VinstanceInfo@@@@QAEXABVQString@@@Z$2 10024e46 f   bncs_client_runtime.obj
 0001:00023e46       __unwindfunclet$?remove@?$QMap@VQString@@VinstanceInfo@@@@QAEXABVQString@@@Z$2 10024e46 f   bncs_client_runtime.obj
 0001:00023e52       __ehhandler$?erase@?$QMap@VQString@@VinstanceInfo@@@@QAEXABVQString@@@Z 10024e52 f   bncs_client_runtime.obj
 0001:00023e52       __ehhandler$?remove@?$QMap@VQString@@VinstanceInfo@@@@QAEXABVQString@@@Z 10024e52 f   bncs_client_runtime.obj
 0001:00023e70       __unwindfunclet$?remove@?$QMap@VQString@@VparamInfo@@@@QAEXABVQString@@@Z$0 10024e70 f   bncs_client_runtime.obj
 0001:00023e70       __unwindfunclet$?erase@?$QMap@VQString@@VparamInfo@@@@QAEXABVQString@@@Z$0 10024e70 f   bncs_client_runtime.obj
 0001:00023e7b       __unwindfunclet$?remove@?$QMap@VQString@@VparamInfo@@@@QAEXABVQString@@@Z$1 10024e7b f   bncs_client_runtime.obj
 0001:00023e7b       __unwindfunclet$?erase@?$QMap@VQString@@VparamInfo@@@@QAEXABVQString@@@Z$1 10024e7b f   bncs_client_runtime.obj
 0001:00023e86       __unwindfunclet$?remove@?$QMap@VQString@@VparamInfo@@@@QAEXABVQString@@@Z$2 10024e86 f   bncs_client_runtime.obj
 0001:00023e86       __unwindfunclet$?erase@?$QMap@VQString@@VparamInfo@@@@QAEXABVQString@@@Z$2 10024e86 f   bncs_client_runtime.obj
 0001:00023e92       __ehhandler$?erase@?$QMap@VQString@@VparamInfo@@@@QAEXABVQString@@@Z 10024e92 f   bncs_client_runtime.obj
 0001:00023e92       __ehhandler$?remove@?$QMap@VQString@@VparamInfo@@@@QAEXABVQString@@@Z 10024e92 f   bncs_client_runtime.obj
 0001:00023eb0       __unwindfunclet$?insert@?$QMap@VQString@@VparamInfo@@@@QAE?AV?$QMapIterator@VQString@@VparamInfo@@@@ABVQString@@ABVparamInfo@@_N@Z$0 10024eb0 f   bncs_client_runtime.obj
 0001:00023eb0       __unwindfunclet$?insert@?$QMap@VQString@@VcomplexParam@@@@QAE?AV?$QMapIterator@VQString@@VcomplexParam@@@@ABVQString@@ABVcomplexParam@@_N@Z$0 10024eb0 f   bncs_client_runtime.obj
 0001:00023eb0       __unwindfunclet$?insert@?$QMap@VQString@@VcomplexInstance@@@@QAE?AU?$QPair@V?$QMapIterator@VQString@@VcomplexInstance@@@@_N@@ABU?$QPair@$$CBVQString@@VcomplexInstance@@@@@Z$0 10024eb0 f   bncs_client_runtime.obj
 0001:00023eb0       __unwindfunclet$?insert@?$QMap@VQString@@VcomplexType@@@@QAE?AV?$QMapIterator@VQString@@VcomplexType@@@@ABVQString@@ABVcomplexType@@_N@Z$0 10024eb0 f   bncs_client_runtime.obj
 0001:00023eb0       __unwindfunclet$?insert@?$QMap@VQString@@VcomplexType@@@@QAE?AU?$QPair@V?$QMapIterator@VQString@@VcomplexType@@@@_N@@ABU?$QPair@$$CBVQString@@VcomplexType@@@@@Z$0 10024eb0 f   bncs_client_runtime.obj
 0001:00023eb0       __unwindfunclet$?insert@?$QMap@VQString@@VdeviceTypeInfo@@@@QAE?AV?$QMapIterator@VQString@@VdeviceTypeInfo@@@@ABVQString@@ABVdeviceTypeInfo@@_N@Z$0 10024eb0 f   bncs_client_runtime.obj
 0001:00023eb0       __unwindfunclet$?insert@?$QMap@VQString@@VdeviceTypeInfo@@@@QAE?AU?$QPair@V?$QMapIterator@VQString@@VdeviceTypeInfo@@@@_N@@ABU?$QPair@$$CBVQString@@VdeviceTypeInfo@@@@@Z$0 10024eb0 f   bncs_client_runtime.obj
 0001:00023eb0       __unwindfunclet$?insert@?$QMap@VQString@@VcomplexInstance@@@@QAE?AV?$QMapIterator@VQString@@VcomplexInstance@@@@ABVQString@@ABVcomplexInstance@@_N@Z$0 10024eb0 f   bncs_client_runtime.obj
 0001:00023eb0       __unwindfunclet$?insert@?$QMap@VQString@@VcomplexParam@@@@QAE?AU?$QPair@V?$QMapIterator@VQString@@VcomplexParam@@@@_N@@ABU?$QPair@$$CBVQString@@VcomplexParam@@@@@Z$0 10024eb0 f   bncs_client_runtime.obj
 0001:00023eb0       __unwindfunclet$?insert@?$QMap@VQString@@VinstanceInfo@@@@QAE?AV?$QMapIterator@VQString@@VinstanceInfo@@@@ABVQString@@ABVinstanceInfo@@_N@Z$0 10024eb0 f   bncs_client_runtime.obj
 0001:00023eb0       __unwindfunclet$?insert@?$QMap@VQString@@VparamInfo@@@@QAE?AU?$QPair@V?$QMapIterator@VQString@@VparamInfo@@@@_N@@ABU?$QPair@$$CBVQString@@VparamInfo@@@@@Z$0 10024eb0 f   bncs_client_runtime.obj
 0001:00023eb0       __unwindfunclet$?insert@?$QMap@VQString@@VinstanceInfo@@@@QAE?AU?$QPair@V?$QMapIterator@VQString@@VinstanceInfo@@@@_N@@ABU?$QPair@$$CBVQString@@VinstanceInfo@@@@@Z$0 10024eb0 f   bncs_client_runtime.obj
 0001:00023ebb       __ehhandler$?insert@?$QMap@VQString@@VdeviceTypeInfo@@@@QAE?AV?$QMapIterator@VQString@@VdeviceTypeInfo@@@@ABVQString@@ABVdeviceTypeInfo@@_N@Z 10024ebb f   bncs_client_runtime.obj
 0001:00023ebb       __ehhandler$?insert@?$QMap@VQString@@VcomplexType@@@@QAE?AV?$QMapIterator@VQString@@VcomplexType@@@@ABVQString@@ABVcomplexType@@_N@Z 10024ebb f   bncs_client_runtime.obj
 0001:00023ebb       __ehhandler$?insert@?$QMap@VQString@@VcomplexType@@@@QAE?AU?$QPair@V?$QMapIterator@VQString@@VcomplexType@@@@_N@@ABU?$QPair@$$CBVQString@@VcomplexType@@@@@Z 10024ebb f   bncs_client_runtime.obj
 0001:00023ebb       __ehhandler$?insert@?$QMap@VQString@@VdeviceTypeInfo@@@@QAE?AU?$QPair@V?$QMapIterator@VQString@@VdeviceTypeInfo@@@@_N@@ABU?$QPair@$$CBVQString@@VdeviceTypeInfo@@@@@Z 10024ebb f   bncs_client_runtime.obj
 0001:00023ebb       __ehhandler$?insert@?$QMap@VQString@@VinstanceInfo@@@@QAE?AV?$QMapIterator@VQString@@VinstanceInfo@@@@ABVQString@@ABVinstanceInfo@@_N@Z 10024ebb f   bncs_client_runtime.obj
 0001:00023ebb       __ehhandler$?insert@?$QMap@VQString@@VinstanceInfo@@@@QAE?AU?$QPair@V?$QMapIterator@VQString@@VinstanceInfo@@@@_N@@ABU?$QPair@$$CBVQString@@VinstanceInfo@@@@@Z 10024ebb f   bncs_client_runtime.obj
 0001:00023ebb       __ehhandler$?insert@?$QMap@VQString@@VcomplexInstance@@@@QAE?AV?$QMapIterator@VQString@@VcomplexInstance@@@@ABVQString@@ABVcomplexInstance@@_N@Z 10024ebb f   bncs_client_runtime.obj
 0001:00023ebb       __ehhandler$?insert@?$QMap@VQString@@VcomplexInstance@@@@QAE?AU?$QPair@V?$QMapIterator@VQString@@VcomplexInstance@@@@_N@@ABU?$QPair@$$CBVQString@@VcomplexInstance@@@@@Z 10024ebb f   bncs_client_runtime.obj
 0001:00023ebb       __ehhandler$?insert@?$QMap@VQString@@VparamInfo@@@@QAE?AV?$QMapIterator@VQString@@VparamInfo@@@@ABVQString@@ABVparamInfo@@_N@Z 10024ebb f   bncs_client_runtime.obj
 0001:00023ebb       __ehhandler$?insert@?$QMap@VQString@@VcomplexParam@@@@QAE?AV?$QMapIterator@VQString@@VcomplexParam@@@@ABVQString@@ABVcomplexParam@@_N@Z 10024ebb f   bncs_client_runtime.obj
 0001:00023ebb       __ehhandler$?insert@?$QMap@VQString@@VcomplexParam@@@@QAE?AU?$QPair@V?$QMapIterator@VQString@@VcomplexParam@@@@_N@@ABU?$QPair@$$CBVQString@@VcomplexParam@@@@@Z 10024ebb f   bncs_client_runtime.obj
 0001:00023ebb       __ehhandler$?insert@?$QMap@VQString@@VparamInfo@@@@QAE?AU?$QPair@V?$QMapIterator@VQString@@VparamInfo@@@@_N@@ABU?$QPair@$$CBVQString@@VparamInfo@@@@@Z 10024ebb f   bncs_client_runtime.obj
 0001:00023ee0       __unwindfunclet$?insert@?$QMapPrivate@VQString@@VcomplexInstance@@@@QAE?AV?$QMapIterator@VQString@@VcomplexInstance@@@@PAUQMapNodeBase@@0ABVQString@@@Z$0 10024ee0 f   bncs_client_runtime.obj
 0001:00023eeb       __unwindfunclet$?insert@?$QMapPrivate@VQString@@VcomplexInstance@@@@QAE?AV?$QMapIterator@VQString@@VcomplexInstance@@@@PAUQMapNodeBase@@0ABVQString@@@Z$1 10024eeb f   bncs_client_runtime.obj
 0001:00023ef7       __unwindfunclet$?insert@?$QMapPrivate@VQString@@VcomplexInstance@@@@QAE?AV?$QMapIterator@VQString@@VcomplexInstance@@@@PAUQMapNodeBase@@0ABVQString@@@Z$2 10024ef7 f   bncs_client_runtime.obj
 0001:00023f03       __ehhandler$?insert@?$QMapPrivate@VQString@@VcomplexInstance@@@@QAE?AV?$QMapIterator@VQString@@VcomplexInstance@@@@PAUQMapNodeBase@@0ABVQString@@@Z 10024f03 f   bncs_client_runtime.obj
 0001:00023f20       __unwindfunclet$?insert@?$QMapPrivate@VQString@@VcomplexParam@@@@QAE?AV?$QMapIterator@VQString@@VcomplexParam@@@@PAUQMapNodeBase@@0ABVQString@@@Z$0 10024f20 f   bncs_client_runtime.obj
 0001:00023f2b       __unwindfunclet$?insert@?$QMapPrivate@VQString@@VcomplexParam@@@@QAE?AV?$QMapIterator@VQString@@VcomplexParam@@@@PAUQMapNodeBase@@0ABVQString@@@Z$1 10024f2b f   bncs_client_runtime.obj
 0001:00023f37       __unwindfunclet$?insert@?$QMapPrivate@VQString@@VcomplexParam@@@@QAE?AV?$QMapIterator@VQString@@VcomplexParam@@@@PAUQMapNodeBase@@0ABVQString@@@Z$2 10024f37 f   bncs_client_runtime.obj
 0001:00023f43       __ehhandler$?insert@?$QMapPrivate@VQString@@VcomplexParam@@@@QAE?AV?$QMapIterator@VQString@@VcomplexParam@@@@PAUQMapNodeBase@@0ABVQString@@@Z 10024f43 f   bncs_client_runtime.obj
 0001:00023f60       __unwindfunclet$?insert@?$QMapPrivate@VQString@@VcomplexType@@@@QAE?AV?$QMapIterator@VQString@@VcomplexType@@@@PAUQMapNodeBase@@0ABVQString@@@Z$0 10024f60 f   bncs_client_runtime.obj
 0001:00023f6b       __unwindfunclet$?insert@?$QMapPrivate@VQString@@VcomplexType@@@@QAE?AV?$QMapIterator@VQString@@VcomplexType@@@@PAUQMapNodeBase@@0ABVQString@@@Z$1 10024f6b f   bncs_client_runtime.obj
 0001:00023f77       __unwindfunclet$?insert@?$QMapPrivate@VQString@@VcomplexType@@@@QAE?AV?$QMapIterator@VQString@@VcomplexType@@@@PAUQMapNodeBase@@0ABVQString@@@Z$2 10024f77 f   bncs_client_runtime.obj
 0001:00023f83       __ehhandler$?insert@?$QMapPrivate@VQString@@VcomplexType@@@@QAE?AV?$QMapIterator@VQString@@VcomplexType@@@@PAUQMapNodeBase@@0ABVQString@@@Z 10024f83 f   bncs_client_runtime.obj
 0001:00023fa0       __unwindfunclet$?insert@?$QMapPrivate@VQString@@VdeviceTypeInfo@@@@QAE?AV?$QMapIterator@VQString@@VdeviceTypeInfo@@@@PAUQMapNodeBase@@0ABVQString@@@Z$0 10024fa0 f   bncs_client_runtime.obj
 0001:00023fab       __unwindfunclet$?insert@?$QMapPrivate@VQString@@VdeviceTypeInfo@@@@QAE?AV?$QMapIterator@VQString@@VdeviceTypeInfo@@@@PAUQMapNodeBase@@0ABVQString@@@Z$1 10024fab f   bncs_client_runtime.obj
 0001:00023fb7       __unwindfunclet$?insert@?$QMapPrivate@VQString@@VdeviceTypeInfo@@@@QAE?AV?$QMapIterator@VQString@@VdeviceTypeInfo@@@@PAUQMapNodeBase@@0ABVQString@@@Z$2 10024fb7 f   bncs_client_runtime.obj
 0001:00023fc3       __ehhandler$?insert@?$QMapPrivate@VQString@@VdeviceTypeInfo@@@@QAE?AV?$QMapIterator@VQString@@VdeviceTypeInfo@@@@PAUQMapNodeBase@@0ABVQString@@@Z 10024fc3 f   bncs_client_runtime.obj
 0001:00023ff0       __unwindfunclet$?insert@?$QMapPrivate@VQString@@VinstanceInfo@@@@QAE?AV?$QMapIterator@VQString@@VinstanceInfo@@@@PAUQMapNodeBase@@0ABVQString@@@Z$0 10024ff0 f   bncs_client_runtime.obj
 0001:00023ffb       __unwindfunclet$?insert@?$QMapPrivate@VQString@@VinstanceInfo@@@@QAE?AV?$QMapIterator@VQString@@VinstanceInfo@@@@PAUQMapNodeBase@@0ABVQString@@@Z$1 10024ffb f   bncs_client_runtime.obj
 0001:00024007       __unwindfunclet$?insert@?$QMapPrivate@VQString@@VinstanceInfo@@@@QAE?AV?$QMapIterator@VQString@@VinstanceInfo@@@@PAUQMapNodeBase@@0ABVQString@@@Z$2 10025007 f   bncs_client_runtime.obj
 0001:00024013       __ehhandler$?insert@?$QMapPrivate@VQString@@VinstanceInfo@@@@QAE?AV?$QMapIterator@VQString@@VinstanceInfo@@@@PAUQMapNodeBase@@0ABVQString@@@Z 10025013 f   bncs_client_runtime.obj
 0001:00024030       __unwindfunclet$?insert@?$QMapPrivate@VQString@@VparamInfo@@@@QAE?AV?$QMapIterator@VQString@@VparamInfo@@@@PAUQMapNodeBase@@0ABVQString@@@Z$0 10025030 f   bncs_client_runtime.obj
 0001:0002403b       __unwindfunclet$?insert@?$QMapPrivate@VQString@@VparamInfo@@@@QAE?AV?$QMapIterator@VQString@@VparamInfo@@@@PAUQMapNodeBase@@0ABVQString@@@Z$1 1002503b f   bncs_client_runtime.obj
 0001:00024047       __unwindfunclet$?insert@?$QMapPrivate@VQString@@VparamInfo@@@@QAE?AV?$QMapIterator@VQString@@VparamInfo@@@@PAUQMapNodeBase@@0ABVQString@@@Z$2 10025047 f   bncs_client_runtime.obj
 0001:00024053       __ehhandler$?insert@?$QMapPrivate@VQString@@VparamInfo@@@@QAE?AV?$QMapIterator@VQString@@VparamInfo@@@@PAUQMapNodeBase@@0ABVQString@@@Z 10025053 f   bncs_client_runtime.obj
 0001:00024070       __unwindfunclet$?insert@?$QValueListPrivate@VcomplexParam@@@@QAE?AV?$QValueListIterator@VcomplexParam@@@@V2@ABVcomplexParam@@@Z$0 10025070 f   bncs_client_runtime.obj
 0001:0002407b       __unwindfunclet$?insert@?$QValueListPrivate@VcomplexParam@@@@QAE?AV?$QValueListIterator@VcomplexParam@@@@V2@ABVcomplexParam@@@Z$2 1002507b f   bncs_client_runtime.obj
 0001:00024087       __ehhandler$?insert@?$QValueListPrivate@VcomplexParam@@@@QAE?AV?$QValueListIterator@VcomplexParam@@@@V2@ABVcomplexParam@@@Z 10025087 f   bncs_client_runtime.obj
 0001:000240b0       __unwindfunclet$?keys@?$QMap@VQString@@VparamInfo@@@@QBE?AV?$QValueList@VQString@@@@XZ$0 100250b0 f   bncs_client_runtime.obj
 0001:000240b0       __unwindfunclet$?keys@?$QMap@VQString@@VinstanceInfo@@@@QBE?AV?$QValueList@VQString@@@@XZ$0 100250b0 f   bncs_client_runtime.obj
 0001:000240b0       __unwindfunclet$?keys@?$QMap@VQString@@VdeviceTypeInfo@@@@QBE?AV?$QValueList@VQString@@@@XZ$0 100250b0 f   bncs_client_runtime.obj
 0001:000240b0       __unwindfunclet$?keys@?$QMap@VQString@@VcomplexInstance@@@@QBE?AV?$QValueList@VQString@@@@XZ$0 100250b0 f   bncs_client_runtime.obj
 0001:000240b0       __unwindfunclet$?keys@?$QMap@VQString@@VcomplexParam@@@@QBE?AV?$QValueList@VQString@@@@XZ$0 100250b0 f   bncs_client_runtime.obj
 0001:000240b0       __unwindfunclet$?keys@?$QMap@VQString@@VcomplexType@@@@QBE?AV?$QValueList@VQString@@@@XZ$0 100250b0 f   bncs_client_runtime.obj
 0001:000240ca       __ehhandler$?keys@?$QMap@VQString@@VinstanceInfo@@@@QBE?AV?$QValueList@VQString@@@@XZ 100250ca f   bncs_client_runtime.obj
 0001:000240ca       __ehhandler$?keys@?$QMap@VQString@@VcomplexInstance@@@@QBE?AV?$QValueList@VQString@@@@XZ 100250ca f   bncs_client_runtime.obj
 0001:000240ca       __ehhandler$?keys@?$QMap@VQString@@VdeviceTypeInfo@@@@QBE?AV?$QValueList@VQString@@@@XZ 100250ca f   bncs_client_runtime.obj
 0001:000240ca       __ehhandler$?keys@?$QMap@VQString@@VparamInfo@@@@QBE?AV?$QValueList@VQString@@@@XZ 100250ca f   bncs_client_runtime.obj
 0001:000240ca       __ehhandler$?keys@?$QMap@VQString@@VcomplexParam@@@@QBE?AV?$QValueList@VQString@@@@XZ 100250ca f   bncs_client_runtime.obj
 0001:000240ca       __ehhandler$?keys@?$QMap@VQString@@VcomplexType@@@@QBE?AV?$QValueList@VQString@@@@XZ 100250ca f   bncs_client_runtime.obj
 0001:000240f0       __unwindfunclet$?notifyIn@bncs_client_runtime@@QAEXAAVQString@@@Z$0 100250f0 f   bncs_client_runtime.obj
 0001:000240f9       __unwindfunclet$?notifyIn@bncs_client_runtime@@QAEXAAVQString@@@Z$1 100250f9 f   bncs_client_runtime.obj
 0001:00024102       __ehhandler$?notifyIn@bncs_client_runtime@@QAEXAAVQString@@@Z 10025102 f   bncs_client_runtime.obj
 0001:00024120       __unwindfunclet$?paintEvent@bncs_client_runtime@@UAEXPAVQPaintEvent@@@Z$0 10025120 f   bncs_client_runtime.obj
 0001:0002412c       __unwindfunclet$?paintEvent@bncs_client_runtime@@UAEXPAVQPaintEvent@@@Z$1 1002512c f   bncs_client_runtime.obj
 0001:00024135       __ehhandler$?paintEvent@bncs_client_runtime@@UAEXPAVQPaintEvent@@@Z 10025135 f   bncs_client_runtime.obj
 0001:00024160       __unwindfunclet$?remove@?$QMap@VQString@@VcomplexParam@@@@QAEXV?$QMapIterator@VQString@@VcomplexParam@@@@@Z$0 10025160 f   bncs_client_runtime.obj
 0001:00024160       __unwindfunclet$?erase@?$QMap@VQString@@VcomplexParam@@@@QAEXV?$QMapIterator@VQString@@VcomplexParam@@@@@Z$0 10025160 f   bncs_client_runtime.obj
 0001:0002416b       __unwindfunclet$?remove@?$QMap@VQString@@VcomplexParam@@@@QAEXV?$QMapIterator@VQString@@VcomplexParam@@@@@Z$1 1002516b f   bncs_client_runtime.obj
 0001:0002416b       __unwindfunclet$?erase@?$QMap@VQString@@VcomplexParam@@@@QAEXV?$QMapIterator@VQString@@VcomplexParam@@@@@Z$1 1002516b f   bncs_client_runtime.obj
 0001:00024177       __ehhandler$?erase@?$QMap@VQString@@VcomplexParam@@@@QAEXV?$QMapIterator@VQString@@VcomplexParam@@@@@Z 10025177 f   bncs_client_runtime.obj
 0001:00024177       __ehhandler$?remove@?$QMap@VQString@@VcomplexParam@@@@QAEXV?$QMapIterator@VQString@@VcomplexParam@@@@@Z 10025177 f   bncs_client_runtime.obj
 0001:000241a0       __unwindfunclet$?erase@?$QMap@VQString@@VcomplexType@@@@QAEXABVQString@@@Z$0 100251a0 f   bncs_client_runtime.obj
 0001:000241a0       __unwindfunclet$?remove@?$QMap@VQString@@VcomplexType@@@@QAEXABVQString@@@Z$0 100251a0 f   bncs_client_runtime.obj
 0001:000241ab       __unwindfunclet$?erase@?$QMap@VQString@@VcomplexType@@@@QAEXABVQString@@@Z$1 100251ab f   bncs_client_runtime.obj
 0001:000241ab       __unwindfunclet$?remove@?$QMap@VQString@@VcomplexType@@@@QAEXABVQString@@@Z$1 100251ab f   bncs_client_runtime.obj
 0001:000241b6       __unwindfunclet$?erase@?$QMap@VQString@@VcomplexType@@@@QAEXABVQString@@@Z$2 100251b6 f   bncs_client_runtime.obj
 0001:000241b6       __unwindfunclet$?remove@?$QMap@VQString@@VcomplexType@@@@QAEXABVQString@@@Z$2 100251b6 f   bncs_client_runtime.obj
 0001:000241c2       __ehhandler$?remove@?$QMap@VQString@@VcomplexType@@@@QAEXABVQString@@@Z 100251c2 f   bncs_client_runtime.obj
 0001:000241c2       __ehhandler$?erase@?$QMap@VQString@@VcomplexType@@@@QAEXABVQString@@@Z 100251c2 f   bncs_client_runtime.obj
 0001:000241e0       __unwindfunclet$?remove@?$QMap@VQString@@VdeviceTypeInfo@@@@QAEXV?$QMapIterator@VQString@@VdeviceTypeInfo@@@@@Z$0 100251e0 f   bncs_client_runtime.obj
 0001:000241e0       __unwindfunclet$?erase@?$QMap@VQString@@VdeviceTypeInfo@@@@QAEXV?$QMapIterator@VQString@@VdeviceTypeInfo@@@@@Z$0 100251e0 f   bncs_client_runtime.obj
 0001:000241eb       __unwindfunclet$?remove@?$QMap@VQString@@VdeviceTypeInfo@@@@QAEXV?$QMapIterator@VQString@@VdeviceTypeInfo@@@@@Z$1 100251eb f   bncs_client_runtime.obj
 0001:000241eb       __unwindfunclet$?erase@?$QMap@VQString@@VdeviceTypeInfo@@@@QAEXV?$QMapIterator@VQString@@VdeviceTypeInfo@@@@@Z$1 100251eb f   bncs_client_runtime.obj
 0001:000241f7       __ehhandler$?remove@?$QMap@VQString@@VdeviceTypeInfo@@@@QAEXV?$QMapIterator@VQString@@VdeviceTypeInfo@@@@@Z 100251f7 f   bncs_client_runtime.obj
 0001:000241f7       __ehhandler$?erase@?$QMap@VQString@@VdeviceTypeInfo@@@@QAEXV?$QMapIterator@VQString@@VdeviceTypeInfo@@@@@Z 100251f7 f   bncs_client_runtime.obj
 0001:00024220       __unwindfunclet$?remove@?$QMap@VQString@@VinstanceInfo@@@@QAEXV?$QMapIterator@VQString@@VinstanceInfo@@@@@Z$0 10025220 f   bncs_client_runtime.obj
 0001:00024220       __unwindfunclet$?erase@?$QMap@VQString@@VinstanceInfo@@@@QAEXV?$QMapIterator@VQString@@VinstanceInfo@@@@@Z$0 10025220 f   bncs_client_runtime.obj
 0001:0002422b       __unwindfunclet$?remove@?$QMap@VQString@@VinstanceInfo@@@@QAEXV?$QMapIterator@VQString@@VinstanceInfo@@@@@Z$1 1002522b f   bncs_client_runtime.obj
 0001:0002422b       __unwindfunclet$?erase@?$QMap@VQString@@VinstanceInfo@@@@QAEXV?$QMapIterator@VQString@@VinstanceInfo@@@@@Z$1 1002522b f   bncs_client_runtime.obj
 0001:00024237       __ehhandler$?remove@?$QMap@VQString@@VinstanceInfo@@@@QAEXV?$QMapIterator@VQString@@VinstanceInfo@@@@@Z 10025237 f   bncs_client_runtime.obj
 0001:00024237       __ehhandler$?erase@?$QMap@VQString@@VinstanceInfo@@@@QAEXV?$QMapIterator@VQString@@VinstanceInfo@@@@@Z 10025237 f   bncs_client_runtime.obj
 0001:00024260       __unwindfunclet$?remove@?$QMap@VQString@@VparamInfo@@@@QAEXV?$QMapIterator@VQString@@VparamInfo@@@@@Z$0 10025260 f   bncs_client_runtime.obj
 0001:00024260       __unwindfunclet$?erase@?$QMap@VQString@@VparamInfo@@@@QAEXV?$QMapIterator@VQString@@VparamInfo@@@@@Z$0 10025260 f   bncs_client_runtime.obj
 0001:0002426b       __unwindfunclet$?erase@?$QMap@VQString@@VparamInfo@@@@QAEXV?$QMapIterator@VQString@@VparamInfo@@@@@Z$1 1002526b f   bncs_client_runtime.obj
 0001:0002426b       __unwindfunclet$?remove@?$QMap@VQString@@VparamInfo@@@@QAEXV?$QMapIterator@VQString@@VparamInfo@@@@@Z$1 1002526b f   bncs_client_runtime.obj
 0001:00024277       __ehhandler$?erase@?$QMap@VQString@@VparamInfo@@@@QAEXV?$QMapIterator@VQString@@VparamInfo@@@@@Z 10025277 f   bncs_client_runtime.obj
 0001:00024277       __ehhandler$?remove@?$QMap@VQString@@VparamInfo@@@@QAEXV?$QMapIterator@VQString@@VparamInfo@@@@@Z 10025277 f   bncs_client_runtime.obj
 0001:000242a0       __unwindfunclet$?replace@?$QMap@VQString@@VcomplexParam@@@@QAE?AV?$QMapIterator@VQString@@VcomplexParam@@@@ABVQString@@ABVcomplexParam@@@Z$0 100252a0 f   bncs_client_runtime.obj
 0001:000242ab       __ehhandler$?replace@?$QMap@VQString@@VcomplexParam@@@@QAE?AV?$QMapIterator@VQString@@VcomplexParam@@@@ABVQString@@ABVcomplexParam@@@Z 100252ab f   bncs_client_runtime.obj
 0001:000242d0       __unwindfunclet$?replace@?$QMap@VQString@@VinstanceInfo@@@@QAE?AV?$QMapIterator@VQString@@VinstanceInfo@@@@ABVQString@@ABVinstanceInfo@@@Z$0 100252d0 f   bncs_client_runtime.obj
 0001:000242d0       __unwindfunclet$?replace@?$QMap@VQString@@VcomplexInstance@@@@QAE?AV?$QMapIterator@VQString@@VcomplexInstance@@@@ABVQString@@ABVcomplexInstance@@@Z$0 100252d0 f   bncs_client_runtime.obj
 0001:000242d0       __unwindfunclet$?replace@?$QMap@VQString@@VdeviceTypeInfo@@@@QAE?AV?$QMapIterator@VQString@@VdeviceTypeInfo@@@@ABVQString@@ABVdeviceTypeInfo@@@Z$0 100252d0 f   bncs_client_runtime.obj
 0001:000242d0       __unwindfunclet$?replace@?$QMap@VQString@@VcomplexType@@@@QAE?AV?$QMapIterator@VQString@@VcomplexType@@@@ABVQString@@ABVcomplexType@@@Z$0 100252d0 f   bncs_client_runtime.obj
 0001:000242d0       __unwindfunclet$?replace@?$QMap@VQString@@VparamInfo@@@@QAE?AV?$QMapIterator@VQString@@VparamInfo@@@@ABVQString@@ABVparamInfo@@@Z$0 100252d0 f   bncs_client_runtime.obj
 0001:000242db       __ehhandler$?replace@?$QMap@VQString@@VcomplexInstance@@@@QAE?AV?$QMapIterator@VQString@@VcomplexInstance@@@@ABVQString@@ABVcomplexInstance@@@Z 100252db f   bncs_client_runtime.obj
 0001:000242db       __ehhandler$?replace@?$QMap@VQString@@VdeviceTypeInfo@@@@QAE?AV?$QMapIterator@VQString@@VdeviceTypeInfo@@@@ABVQString@@ABVdeviceTypeInfo@@@Z 100252db f   bncs_client_runtime.obj
 0001:000242db       __ehhandler$?replace@?$QMap@VQString@@VcomplexType@@@@QAE?AV?$QMapIterator@VQString@@VcomplexType@@@@ABVQString@@ABVcomplexType@@@Z 100252db f   bncs_client_runtime.obj
 0001:000242db       __ehhandler$?replace@?$QMap@VQString@@VparamInfo@@@@QAE?AV?$QMapIterator@VQString@@VparamInfo@@@@ABVQString@@ABVparamInfo@@@Z 100252db f   bncs_client_runtime.obj
 0001:000242db       __ehhandler$?replace@?$QMap@VQString@@VinstanceInfo@@@@QAE?AV?$QMapIterator@VQString@@VinstanceInfo@@@@ABVQString@@ABVinstanceInfo@@@Z 100252db f   bncs_client_runtime.obj
 0001:00024300       __unwindfunclet$?setCaption@bncs_client_runtime@@UAEXABVQString@@@Z$0 10025300 f   bncs_client_runtime.obj
 0001:0002430b       __unwindfunclet$?setCaption@bncs_client_runtime@@UAEXABVQString@@@Z$1 1002530b f   bncs_client_runtime.obj
 0001:00024314       __unwindfunclet$?setCaption@bncs_client_runtime@@UAEXABVQString@@@Z$2 10025314 f   bncs_client_runtime.obj
 0001:0002431d       __unwindfunclet$?setCaption@bncs_client_runtime@@UAEXABVQString@@@Z$3 1002531d f   bncs_client_runtime.obj
 0001:00024326       __unwindfunclet$?setCaption@bncs_client_runtime@@UAEXABVQString@@@Z$4 10025326 f   bncs_client_runtime.obj
 0001:00024331       __unwindfunclet$?setCaption@bncs_client_runtime@@UAEXABVQString@@@Z$5 10025331 f   bncs_client_runtime.obj
 0001:0002433a       __unwindfunclet$?setCaption@bncs_client_runtime@@UAEXABVQString@@@Z$6 1002533a f   bncs_client_runtime.obj
 0001:00024345       __unwindfunclet$?setCaption@bncs_client_runtime@@UAEXABVQString@@@Z$7 10025345 f   bncs_client_runtime.obj
 0001:0002434e       __unwindfunclet$?setCaption@bncs_client_runtime@@UAEXABVQString@@@Z$8 1002534e f   bncs_client_runtime.obj
 0001:00024357       __unwindfunclet$?setCaption@bncs_client_runtime@@UAEXABVQString@@@Z$9 10025357 f   bncs_client_runtime.obj
 0001:00024360       __unwindfunclet$?setCaption@bncs_client_runtime@@UAEXABVQString@@@Z$10 10025360 f   bncs_client_runtime.obj
 0001:00024369       __unwindfunclet$?setCaption@bncs_client_runtime@@UAEXABVQString@@@Z$11 10025369 f   bncs_client_runtime.obj
 0001:00024372       __ehhandler$?setCaption@bncs_client_runtime@@UAEXABVQString@@@Z 10025372 f   bncs_client_runtime.obj
 0001:00024390       __unwindfunclet$?values@?$QMap@VQString@@VdeviceTypeInfo@@@@QBE?AV?$QValueList@VdeviceTypeInfo@@@@XZ$1 10025390 f   bncs_client_runtime.obj
 0001:00024390       __unwindfunclet$?values@?$QMap@VQString@@VinstanceInfo@@@@QBE?AV?$QValueList@VinstanceInfo@@@@XZ$1 10025390 f   bncs_client_runtime.obj
 0001:00024390       __unwindfunclet$?values@?$QMap@VQString@@VparamInfo@@@@QBE?AV?$QValueList@VparamInfo@@@@XZ$1 10025390 f   bncs_client_runtime.obj
 0001:00024390       __unwindfunclet$?values@?$QMap@VQString@@VcomplexParam@@@@QBE?AV?$QValueList@VcomplexParam@@@@XZ$1 10025390 f   bncs_client_runtime.obj
 0001:00024390       __unwindfunclet$?values@?$QMap@VQString@@VcomplexType@@@@QBE?AV?$QValueList@VcomplexType@@@@XZ$1 10025390 f   bncs_client_runtime.obj
 0001:00024390       __unwindfunclet$?values@?$QMap@VQString@@VcomplexInstance@@@@QBE?AV?$QValueList@VcomplexInstance@@@@XZ$1 10025390 f   bncs_client_runtime.obj
 0001:0002439b       __unwindfunclet$?values@?$QMap@VQString@@VinstanceInfo@@@@QBE?AV?$QValueList@VinstanceInfo@@@@XZ$0 1002539b f   bncs_client_runtime.obj
 0001:0002439b       __unwindfunclet$?values@?$QMap@VQString@@VparamInfo@@@@QBE?AV?$QValueList@VparamInfo@@@@XZ$0 1002539b f   bncs_client_runtime.obj
 0001:0002439b       __unwindfunclet$?values@?$QMap@VQString@@VcomplexInstance@@@@QBE?AV?$QValueList@VcomplexInstance@@@@XZ$0 1002539b f   bncs_client_runtime.obj
 0001:0002439b       __unwindfunclet$?values@?$QMap@VQString@@VcomplexType@@@@QBE?AV?$QValueList@VcomplexType@@@@XZ$0 1002539b f   bncs_client_runtime.obj
 0001:0002439b       __unwindfunclet$?values@?$QMap@VQString@@VdeviceTypeInfo@@@@QBE?AV?$QValueList@VdeviceTypeInfo@@@@XZ$0 1002539b f   bncs_client_runtime.obj
 0001:0002439b       __unwindfunclet$?values@?$QMap@VQString@@VcomplexParam@@@@QBE?AV?$QValueList@VcomplexParam@@@@XZ$0 1002539b f   bncs_client_runtime.obj
 0001:000243b4       __ehhandler$?values@?$QMap@VQString@@VcomplexInstance@@@@QBE?AV?$QValueList@VcomplexInstance@@@@XZ 100253b4 f   bncs_client_runtime.obj
 0001:000243b4       __ehhandler$?values@?$QMap@VQString@@VparamInfo@@@@QBE?AV?$QValueList@VparamInfo@@@@XZ 100253b4 f   bncs_client_runtime.obj
 0001:000243b4       __ehhandler$?values@?$QMap@VQString@@VdeviceTypeInfo@@@@QBE?AV?$QValueList@VdeviceTypeInfo@@@@XZ 100253b4 f   bncs_client_runtime.obj
 0001:000243b4       __ehhandler$?values@?$QMap@VQString@@VcomplexType@@@@QBE?AV?$QValueList@VcomplexType@@@@XZ 100253b4 f   bncs_client_runtime.obj
 0001:000243b4       __ehhandler$?values@?$QMap@VQString@@VinstanceInfo@@@@QBE?AV?$QValueList@VinstanceInfo@@@@XZ 100253b4 f   bncs_client_runtime.obj
 0001:000243b4       __ehhandler$?values@?$QMap@VQString@@VcomplexParam@@@@QBE?AV?$QValueList@VcomplexParam@@@@XZ 100253b4 f   bncs_client_runtime.obj
 0001:000243d0       __ehhandler$??$_Insert_nohint@AAU?$pair@$$CBHVccTimerClient@@@std@@PAU?$_Tree_node@U?$pair@$$CBHVccTimerClient@@@std@@PAX@2@@?$_Tree@V?$_Tmap_traits@HVccTimerClient@@U?$less@H@std@@V?$allocator@U?$pair@$$CBHVccTimerClient@@@std@@@3@$0A@@std@@@std@@IAE?AU?$pair@V?$_Tree_iterator@V?$_Tree_val@U?$_Tree_simple_types@U?$pair@$$CBHVccTimerClient@@@std@@@std@@@std@@@std@@_N@1@_NAAU?$pair@$$CBHVccTimerClient@@@1@PAU?$_Tree_node@U?$pair@$$CBHVccTimerClient@@@std@@PAX@1@@Z 100253d0 f   ccTimer.obj
 0001:000243f0       __unwindfunclet$??0connectionDebugDlg@@QAE@PAVQWidget@@PBD_NI@Z$0 100253f0 f   connectiondebugdlgimpl.obj
 0001:000243f8       __ehhandler$??0connectionDebugDlg@@QAE@PAVQWidget@@PBD_NI@Z 100253f8 f   connectiondebugdlgimpl.obj
 0001:00024420       __unwindfunclet$??1dCW@@UAE@XZ$0 10025420 f   dCW.obj
 0001:0002442c       __unwindfunclet$??1dCW@@UAE@XZ$1 1002542c f   dCW.obj
 0001:00024438       __unwindfunclet$??1dCW@@UAE@XZ$2 10025438 f   dCW.obj
 0001:00024444       __unwindfunclet$??1dCW@@UAE@XZ$3 10025444 f   dCW.obj
 0001:00024450       __unwindfunclet$??1dCW@@UAE@XZ$4 10025450 f   dCW.obj
 0001:0002445c       __unwindfunclet$??1dCW@@UAE@XZ$5 1002545c f   dCW.obj
 0001:00024468       __unwindfunclet$??1dCW@@UAE@XZ$6 10025468 f   dCW.obj
 0001:00024474       __unwindfunclet$??1dCW@@UAE@XZ$7 10025474 f   dCW.obj
 0001:00024480       __unwindfunclet$??1dCW@@UAE@XZ$9 10025480 f   dCW.obj
 0001:00024488       __unwindfunclet$??1dCW@@UAE@XZ$10 10025488 f   dCW.obj
 0001:00024491       __unwindfunclet$??1dCW@@UAE@XZ$11 10025491 f   dCW.obj
 0001:0002449a       __unwindfunclet$??1dCW@@UAE@XZ$12 1002549a f   dCW.obj
 0001:000244a3       __ehhandler$??1dCW@@UAE@XZ 100254a3 f   dCW.obj
 0001:000244c0       __unwindfunclet$??_G?$QCache@VQDomDocument@@@@UAEPAXI@Z$0 100254c0 f   dCW.obj
 0001:000244c9       __ehhandler$??_G?$QCache@VQDomDocument@@@@UAEPAXI@Z 100254c9 f   dCW.obj
 0001:000244f0       __unwindfunclet$??__Fui@@YAXXZ$0 100254f0 f   dCW.obj
 0001:000244fb       __ehhandler$??__Fui@@YAXXZ 100254fb f   dCW.obj
 0001:00024520       __unwindfunclet$?checkNameUnique@dCW@@SA_NPAVQWidget@@ABVQString@@AAV3@@Z$0 10025520 f   dCW.obj
 0001:00024529       __unwindfunclet$?checkNameUnique@dCW@@SA_NPAVQWidget@@ABVQString@@AAV3@@Z$1 10025529 f   dCW.obj
 0001:00024532       __unwindfunclet$?checkNameUnique@dCW@@SA_NPAVQWidget@@ABVQString@@AAV3@@Z$2 10025532 f   dCW.obj
 0001:0002454c       __unwindfunclet$?checkNameUnique@dCW@@SA_NPAVQWidget@@ABVQString@@AAV3@@Z$3 1002554c f   dCW.obj
 0001:00024555       __unwindfunclet$?checkNameUnique@dCW@@SA_NPAVQWidget@@ABVQString@@AAV3@@Z$4 10025555 f   dCW.obj
 0001:0002455e       __unwindfunclet$?checkNameUnique@dCW@@SA_NPAVQWidget@@ABVQString@@AAV3@@Z$5 1002555e f   dCW.obj
 0001:00024567       __unwindfunclet$?checkNameUnique@dCW@@SA_NPAVQWidget@@ABVQString@@AAV3@@Z$6 10025567 f   dCW.obj
 0001:00024570       __unwindfunclet$?checkNameUnique@dCW@@SA_NPAVQWidget@@ABVQString@@AAV3@@Z$7 10025570 f   dCW.obj
 0001:00024579       __ehhandler$?checkNameUnique@dCW@@SA_NPAVQWidget@@ABVQString@@AAV3@@Z 10025579 f   dCW.obj
 0001:000245a0       __unwindfunclet$?create@dCW@@QAEPAVQWidget@@ABVQString@@PAVQObject@@PAV2@PBD_N4NN44@Z$0 100255a0 f   dCW.obj
 0001:000245a9       __unwindfunclet$?create@dCW@@QAEPAVQWidget@@ABVQString@@PAVQObject@@PAV2@PBD_N4NN44@Z$1 100255a9 f   dCW.obj
 0001:000245b2       __unwindfunclet$?create@dCW@@QAEPAVQWidget@@ABVQString@@PAVQObject@@PAV2@PBD_N4NN44@Z$2 100255b2 f   dCW.obj
 0001:000245bb       __unwindfunclet$?create@dCW@@QAEPAVQWidget@@ABVQString@@PAVQObject@@PAV2@PBD_N4NN44@Z$3 100255bb f   dCW.obj
 0001:000245c4       __unwindfunclet$?create@dCW@@QAEPAVQWidget@@ABVQString@@PAVQObject@@PAV2@PBD_N4NN44@Z$4 100255c4 f   dCW.obj
 0001:000245cd       __unwindfunclet$?create@dCW@@QAEPAVQWidget@@ABVQString@@PAVQObject@@PAV2@PBD_N4NN44@Z$5 100255cd f   dCW.obj
 0001:000245d6       __unwindfunclet$?create@dCW@@QAEPAVQWidget@@ABVQString@@PAVQObject@@PAV2@PBD_N4NN44@Z$6 100255d6 f   dCW.obj
 0001:000245df       __unwindfunclet$?create@dCW@@QAEPAVQWidget@@ABVQString@@PAVQObject@@PAV2@PBD_N4NN44@Z$7 100255df f   dCW.obj
 0001:000245e8       __unwindfunclet$?create@dCW@@QAEPAVQWidget@@ABVQString@@PAVQObject@@PAV2@PBD_N4NN44@Z$8 100255e8 f   dCW.obj
 0001:000245f1       __unwindfunclet$?create@dCW@@QAEPAVQWidget@@ABVQString@@PAVQObject@@PAV2@PBD_N4NN44@Z$9 100255f1 f   dCW.obj
 0001:000245fc       __unwindfunclet$?create@dCW@@QAEPAVQWidget@@ABVQString@@PAVQObject@@PAV2@PBD_N4NN44@Z$10 100255fc f   dCW.obj
 0001:00024605       __unwindfunclet$?create@dCW@@QAEPAVQWidget@@ABVQString@@PAVQObject@@PAV2@PBD_N4NN44@Z$11 10025605 f   dCW.obj
 0001:0002460e       __unwindfunclet$?create@dCW@@QAEPAVQWidget@@ABVQString@@PAVQObject@@PAV2@PBD_N4NN44@Z$12 1002560e f   dCW.obj
 0001:00024617       __unwindfunclet$?create@dCW@@QAEPAVQWidget@@ABVQString@@PAVQObject@@PAV2@PBD_N4NN44@Z$13 10025617 f   dCW.obj
 0001:00024620       __unwindfunclet$?create@dCW@@QAEPAVQWidget@@ABVQString@@PAVQObject@@PAV2@PBD_N4NN44@Z$14 10025620 f   dCW.obj
 0001:00024629       __unwindfunclet$?create@dCW@@QAEPAVQWidget@@ABVQString@@PAVQObject@@PAV2@PBD_N4NN44@Z$15 10025629 f   dCW.obj
 0001:00024632       __unwindfunclet$?create@dCW@@QAEPAVQWidget@@ABVQString@@PAVQObject@@PAV2@PBD_N4NN44@Z$16 10025632 f   dCW.obj
 0001:0002463d       __unwindfunclet$?create@dCW@@QAEPAVQWidget@@ABVQString@@PAVQObject@@PAV2@PBD_N4NN44@Z$17 1002563d f   dCW.obj
 0001:00024646       __unwindfunclet$?create@dCW@@QAEPAVQWidget@@ABVQString@@PAVQObject@@PAV2@PBD_N4NN44@Z$18 10025646 f   dCW.obj
 0001:0002464f       __unwindfunclet$?create@dCW@@QAEPAVQWidget@@ABVQString@@PAVQObject@@PAV2@PBD_N4NN44@Z$19 1002564f f   dCW.obj
 0001:00024658       __unwindfunclet$?create@dCW@@QAEPAVQWidget@@ABVQString@@PAVQObject@@PAV2@PBD_N4NN44@Z$20 10025658 f   dCW.obj
 0001:00024661       __unwindfunclet$?create@dCW@@QAEPAVQWidget@@ABVQString@@PAVQObject@@PAV2@PBD_N4NN44@Z$21 10025661 f   dCW.obj
 0001:0002466a       __unwindfunclet$?create@dCW@@QAEPAVQWidget@@ABVQString@@PAVQObject@@PAV2@PBD_N4NN44@Z$22 1002566a f   dCW.obj
 0001:00024673       __unwindfunclet$?create@dCW@@QAEPAVQWidget@@ABVQString@@PAVQObject@@PAV2@PBD_N4NN44@Z$23 10025673 f   dCW.obj
 0001:0002467c       __unwindfunclet$?create@dCW@@QAEPAVQWidget@@ABVQString@@PAVQObject@@PAV2@PBD_N4NN44@Z$25 1002567c f   dCW.obj
 0001:00024685       __unwindfunclet$?create@dCW@@QAEPAVQWidget@@ABVQString@@PAVQObject@@PAV2@PBD_N4NN44@Z$26 10025685 f   dCW.obj
 0001:0002468e       __unwindfunclet$?create@dCW@@QAEPAVQWidget@@ABVQString@@PAVQObject@@PAV2@PBD_N4NN44@Z$27 1002568e f   dCW.obj
 0001:00024699       __unwindfunclet$?create@dCW@@QAEPAVQWidget@@ABVQString@@PAVQObject@@PAV2@PBD_N4NN44@Z$28 10025699 f   dCW.obj
 0001:000246b3       __unwindfunclet$?create@dCW@@QAEPAVQWidget@@ABVQString@@PAVQObject@@PAV2@PBD_N4NN44@Z$29 100256b3 f   dCW.obj
 0001:000246bc       __unwindfunclet$?create@dCW@@QAEPAVQWidget@@ABVQString@@PAVQObject@@PAV2@PBD_N4NN44@Z$30 100256bc f   dCW.obj
 0001:000246c5       __unwindfunclet$?create@dCW@@QAEPAVQWidget@@ABVQString@@PAVQObject@@PAV2@PBD_N4NN44@Z$32 100256c5 f   dCW.obj
 0001:000246ce       __unwindfunclet$?create@dCW@@QAEPAVQWidget@@ABVQString@@PAVQObject@@PAV2@PBD_N4NN44@Z$33 100256ce f   dCW.obj
 0001:000246d7       __unwindfunclet$?create@dCW@@QAEPAVQWidget@@ABVQString@@PAVQObject@@PAV2@PBD_N4NN44@Z$34 100256d7 f   dCW.obj
 0001:000246e0       __unwindfunclet$?create@dCW@@QAEPAVQWidget@@ABVQString@@PAVQObject@@PAV2@PBD_N4NN44@Z$35 100256e0 f   dCW.obj
 0001:000246e9       __unwindfunclet$?create@dCW@@QAEPAVQWidget@@ABVQString@@PAVQObject@@PAV2@PBD_N4NN44@Z$36 100256e9 f   dCW.obj
 0001:000246f2       __ehhandler$?create@dCW@@QAEPAVQWidget@@ABVQString@@PAVQObject@@PAV2@PBD_N4NN44@Z 100256f2 f   dCW.obj
 0001:00024710       __unwindfunclet$?createWidget@dCW@@QAEPAVQWidget@@ABVQString@@PAV2@0HHHH@Z$0 10025710 f   dCW.obj
 0001:00024718       __unwindfunclet$?createWidget@dCW@@QAEPAVQWidget@@ABVQString@@PAV2@0HHHH@Z$1 10025718 f   dCW.obj
 0001:00024721       __unwindfunclet$?createWidget@dCW@@QAEPAVQWidget@@ABVQString@@PAV2@0HHHH@Z$2 10025721 f   dCW.obj
 0001:0002472a       __ehhandler$?createWidget@dCW@@QAEPAVQWidget@@ABVQString@@PAV2@0HHHH@Z 1002572a f   dCW.obj
 0001:00024750       __unwindfunclet$?developerMode@dCW@@SA_NXZ$0 10025750 f   dCW.obj
 0001:00024759       __unwindfunclet$?developerMode@dCW@@SA_NXZ$1 10025759 f   dCW.obj
 0001:00024762       __ehhandler$?developerMode@dCW@@SA_NXZ 10025762 f   dCW.obj
 0001:00024780       __unwindfunclet$?parseXML@dCW@@QAEPAVQWidget@@AAVQDomDocument@@PAV2@VQPoint@@_N33VQString@@@Z$0 10025780 f   dCW.obj
 0001:00024789       __unwindfunclet$?parseXML@dCW@@QAEPAVQWidget@@AAVQDomDocument@@PAV2@VQPoint@@_N33VQString@@@Z$1 10025789 f   dCW.obj
 0001:00024794       __unwindfunclet$?parseXML@dCW@@QAEPAVQWidget@@AAVQDomDocument@@PAV2@VQPoint@@_N33VQString@@@Z$2 10025794 f   dCW.obj
 0001:000247a0       __unwindfunclet$?parseXML@dCW@@QAEPAVQWidget@@AAVQDomDocument@@PAV2@VQPoint@@_N33VQString@@@Z$3 100257a0 f   dCW.obj
 0001:000247a9       __unwindfunclet$?parseXML@dCW@@QAEPAVQWidget@@AAVQDomDocument@@PAV2@VQPoint@@_N33VQString@@@Z$4 100257a9 f   dCW.obj
 0001:000247b2       __unwindfunclet$?parseXML@dCW@@QAEPAVQWidget@@AAVQDomDocument@@PAV2@VQPoint@@_N33VQString@@@Z$6 100257b2 f   dCW.obj
 0001:000247bb       __unwindfunclet$?parseXML@dCW@@QAEPAVQWidget@@AAVQDomDocument@@PAV2@VQPoint@@_N33VQString@@@Z$7 100257bb f   dCW.obj
 0001:000247c7       __unwindfunclet$?parseXML@dCW@@QAEPAVQWidget@@AAVQDomDocument@@PAV2@VQPoint@@_N33VQString@@@Z$8 100257c7 f   dCW.obj
 0001:000247d3       __unwindfunclet$?parseXML@dCW@@QAEPAVQWidget@@AAVQDomDocument@@PAV2@VQPoint@@_N33VQString@@@Z$10 100257d3 f   dCW.obj
 0001:000247dc       __unwindfunclet$?parseXML@dCW@@QAEPAVQWidget@@AAVQDomDocument@@PAV2@VQPoint@@_N33VQString@@@Z$11 100257dc f   dCW.obj
 0001:000247e7       __unwindfunclet$?parseXML@dCW@@QAEPAVQWidget@@AAVQDomDocument@@PAV2@VQPoint@@_N33VQString@@@Z$12 100257e7 f   dCW.obj
 0001:00024804       __unwindfunclet$?parseXML@dCW@@QAEPAVQWidget@@AAVQDomDocument@@PAV2@VQPoint@@_N33VQString@@@Z$13 10025804 f   dCW.obj
 0001:00024821       __unwindfunclet$?parseXML@dCW@@QAEPAVQWidget@@AAVQDomDocument@@PAV2@VQPoint@@_N33VQString@@@Z$14 10025821 f   dCW.obj
 0001:0002483e       __unwindfunclet$?parseXML@dCW@@QAEPAVQWidget@@AAVQDomDocument@@PAV2@VQPoint@@_N33VQString@@@Z$15 1002583e f   dCW.obj
 0001:0002485b       __unwindfunclet$?parseXML@dCW@@QAEPAVQWidget@@AAVQDomDocument@@PAV2@VQPoint@@_N33VQString@@@Z$16 1002585b f   dCW.obj
 0001:00024878       __unwindfunclet$?parseXML@dCW@@QAEPAVQWidget@@AAVQDomDocument@@PAV2@VQPoint@@_N33VQString@@@Z$17 10025878 f   dCW.obj
 0001:00024895       __unwindfunclet$?parseXML@dCW@@QAEPAVQWidget@@AAVQDomDocument@@PAV2@VQPoint@@_N33VQString@@@Z$18 10025895 f   dCW.obj
 0001:000248b2       __unwindfunclet$?parseXML@dCW@@QAEPAVQWidget@@AAVQDomDocument@@PAV2@VQPoint@@_N33VQString@@@Z$19 100258b2 f   dCW.obj
 0001:000248d4       __unwindfunclet$?parseXML@dCW@@QAEPAVQWidget@@AAVQDomDocument@@PAV2@VQPoint@@_N33VQString@@@Z$20 100258d4 f   dCW.obj
 0001:000248f6       __unwindfunclet$?parseXML@dCW@@QAEPAVQWidget@@AAVQDomDocument@@PAV2@VQPoint@@_N33VQString@@@Z$21 100258f6 f   dCW.obj
 0001:00024918       __unwindfunclet$?parseXML@dCW@@QAEPAVQWidget@@AAVQDomDocument@@PAV2@VQPoint@@_N33VQString@@@Z$9 10025918 f   dCW.obj
 0001:00024924       __unwindfunclet$?parseXML@dCW@@QAEPAVQWidget@@AAVQDomDocument@@PAV2@VQPoint@@_N33VQString@@@Z$22 10025924 f   dCW.obj
 0001:00024930       __unwindfunclet$?parseXML@dCW@@QAEPAVQWidget@@AAVQDomDocument@@PAV2@VQPoint@@_N33VQString@@@Z$23 10025930 f   dCW.obj
 0001:0002493c       __unwindfunclet$?parseXML@dCW@@QAEPAVQWidget@@AAVQDomDocument@@PAV2@VQPoint@@_N33VQString@@@Z$24 1002593c f   dCW.obj
 0001:00024948       __unwindfunclet$?parseXML@dCW@@QAEPAVQWidget@@AAVQDomDocument@@PAV2@VQPoint@@_N33VQString@@@Z$25 10025948 f   dCW.obj
 0001:00024954       __unwindfunclet$?parseXML@dCW@@QAEPAVQWidget@@AAVQDomDocument@@PAV2@VQPoint@@_N33VQString@@@Z$26 10025954 f   dCW.obj
 0001:00024960       __unwindfunclet$?parseXML@dCW@@QAEPAVQWidget@@AAVQDomDocument@@PAV2@VQPoint@@_N33VQString@@@Z$27 10025960 f   dCW.obj
 0001:0002496c       __unwindfunclet$?parseXML@dCW@@QAEPAVQWidget@@AAVQDomDocument@@PAV2@VQPoint@@_N33VQString@@@Z$28 1002596c f   dCW.obj
 0001:00024978       __unwindfunclet$?parseXML@dCW@@QAEPAVQWidget@@AAVQDomDocument@@PAV2@VQPoint@@_N33VQString@@@Z$29 10025978 f   dCW.obj
 0001:00024984       __unwindfunclet$?parseXML@dCW@@QAEPAVQWidget@@AAVQDomDocument@@PAV2@VQPoint@@_N33VQString@@@Z$30 10025984 f   dCW.obj
 0001:00024990       __unwindfunclet$?parseXML@dCW@@QAEPAVQWidget@@AAVQDomDocument@@PAV2@VQPoint@@_N33VQString@@@Z$31 10025990 f   dCW.obj
 0001:0002499c       __unwindfunclet$?parseXML@dCW@@QAEPAVQWidget@@AAVQDomDocument@@PAV2@VQPoint@@_N33VQString@@@Z$32 1002599c f   dCW.obj
 0001:000249a8       __unwindfunclet$?parseXML@dCW@@QAEPAVQWidget@@AAVQDomDocument@@PAV2@VQPoint@@_N33VQString@@@Z$33 100259a8 f   dCW.obj
 0001:000249b4       __unwindfunclet$?parseXML@dCW@@QAEPAVQWidget@@AAVQDomDocument@@PAV2@VQPoint@@_N33VQString@@@Z$34 100259b4 f   dCW.obj
 0001:000249c0       __unwindfunclet$?parseXML@dCW@@QAEPAVQWidget@@AAVQDomDocument@@PAV2@VQPoint@@_N33VQString@@@Z$35 100259c0 f   dCW.obj
 0001:000249cc       __unwindfunclet$?parseXML@dCW@@QAEPAVQWidget@@AAVQDomDocument@@PAV2@VQPoint@@_N33VQString@@@Z$37 100259cc f   dCW.obj
 0001:000249d8       __unwindfunclet$?parseXML@dCW@@QAEPAVQWidget@@AAVQDomDocument@@PAV2@VQPoint@@_N33VQString@@@Z$38 100259d8 f   dCW.obj
 0001:000249e4       __unwindfunclet$?parseXML@dCW@@QAEPAVQWidget@@AAVQDomDocument@@PAV2@VQPoint@@_N33VQString@@@Z$39 100259e4 f   dCW.obj
 0001:000249f0       __unwindfunclet$?parseXML@dCW@@QAEPAVQWidget@@AAVQDomDocument@@PAV2@VQPoint@@_N33VQString@@@Z$41 100259f0 f   dCW.obj
 0001:000249fc       __unwindfunclet$?parseXML@dCW@@QAEPAVQWidget@@AAVQDomDocument@@PAV2@VQPoint@@_N33VQString@@@Z$42 100259fc f   dCW.obj
 0001:00024a08       __unwindfunclet$?parseXML@dCW@@QAEPAVQWidget@@AAVQDomDocument@@PAV2@VQPoint@@_N33VQString@@@Z$43 10025a08 f   dCW.obj
 0001:00024a14       __unwindfunclet$?parseXML@dCW@@QAEPAVQWidget@@AAVQDomDocument@@PAV2@VQPoint@@_N33VQString@@@Z$44 10025a14 f   dCW.obj
 0001:00024a20       __unwindfunclet$?parseXML@dCW@@QAEPAVQWidget@@AAVQDomDocument@@PAV2@VQPoint@@_N33VQString@@@Z$45 10025a20 f   dCW.obj
 0001:00024a2c       __unwindfunclet$?parseXML@dCW@@QAEPAVQWidget@@AAVQDomDocument@@PAV2@VQPoint@@_N33VQString@@@Z$46 10025a2c f   dCW.obj
 0001:00024a38       __unwindfunclet$?parseXML@dCW@@QAEPAVQWidget@@AAVQDomDocument@@PAV2@VQPoint@@_N33VQString@@@Z$47 10025a38 f   dCW.obj
 0001:00024a44       __unwindfunclet$?parseXML@dCW@@QAEPAVQWidget@@AAVQDomDocument@@PAV2@VQPoint@@_N33VQString@@@Z$48 10025a44 f   dCW.obj
 0001:00024a50       __unwindfunclet$?parseXML@dCW@@QAEPAVQWidget@@AAVQDomDocument@@PAV2@VQPoint@@_N33VQString@@@Z$49 10025a50 f   dCW.obj
 0001:00024a5c       __unwindfunclet$?parseXML@dCW@@QAEPAVQWidget@@AAVQDomDocument@@PAV2@VQPoint@@_N33VQString@@@Z$50 10025a5c f   dCW.obj
 0001:00024a68       __unwindfunclet$?parseXML@dCW@@QAEPAVQWidget@@AAVQDomDocument@@PAV2@VQPoint@@_N33VQString@@@Z$51 10025a68 f   dCW.obj
 0001:00024a73       __unwindfunclet$?parseXML@dCW@@QAEPAVQWidget@@AAVQDomDocument@@PAV2@VQPoint@@_N33VQString@@@Z$52 10025a73 f   dCW.obj
 0001:00024a7f       __unwindfunclet$?parseXML@dCW@@QAEPAVQWidget@@AAVQDomDocument@@PAV2@VQPoint@@_N33VQString@@@Z$53 10025a7f f   dCW.obj
 0001:00024a8b       __unwindfunclet$?parseXML@dCW@@QAEPAVQWidget@@AAVQDomDocument@@PAV2@VQPoint@@_N33VQString@@@Z$54 10025a8b f   dCW.obj
 0001:00024a96       __unwindfunclet$?parseXML@dCW@@QAEPAVQWidget@@AAVQDomDocument@@PAV2@VQPoint@@_N33VQString@@@Z$55 10025a96 f   dCW.obj
 0001:00024aa2       __unwindfunclet$?parseXML@dCW@@QAEPAVQWidget@@AAVQDomDocument@@PAV2@VQPoint@@_N33VQString@@@Z$56 10025aa2 f   dCW.obj
 0001:00024aae       __unwindfunclet$?parseXML@dCW@@QAEPAVQWidget@@AAVQDomDocument@@PAV2@VQPoint@@_N33VQString@@@Z$57 10025aae f   dCW.obj
 0001:00024aba       __unwindfunclet$?parseXML@dCW@@QAEPAVQWidget@@AAVQDomDocument@@PAV2@VQPoint@@_N33VQString@@@Z$58 10025aba f   dCW.obj
 0001:00024ac6       __unwindfunclet$?parseXML@dCW@@QAEPAVQWidget@@AAVQDomDocument@@PAV2@VQPoint@@_N33VQString@@@Z$59 10025ac6 f   dCW.obj
 0001:00024ad2       __unwindfunclet$?parseXML@dCW@@QAEPAVQWidget@@AAVQDomDocument@@PAV2@VQPoint@@_N33VQString@@@Z$60 10025ad2 f   dCW.obj
 0001:00024ade       __unwindfunclet$?parseXML@dCW@@QAEPAVQWidget@@AAVQDomDocument@@PAV2@VQPoint@@_N33VQString@@@Z$61 10025ade f   dCW.obj
 0001:00024aea       __unwindfunclet$?parseXML@dCW@@QAEPAVQWidget@@AAVQDomDocument@@PAV2@VQPoint@@_N33VQString@@@Z$62 10025aea f   dCW.obj
 0001:00024af6       __unwindfunclet$?parseXML@dCW@@QAEPAVQWidget@@AAVQDomDocument@@PAV2@VQPoint@@_N33VQString@@@Z$63 10025af6 f   dCW.obj
 0001:00024b02       __unwindfunclet$?parseXML@dCW@@QAEPAVQWidget@@AAVQDomDocument@@PAV2@VQPoint@@_N33VQString@@@Z$64 10025b02 f   dCW.obj
 0001:00024b0e       __unwindfunclet$?parseXML@dCW@@QAEPAVQWidget@@AAVQDomDocument@@PAV2@VQPoint@@_N33VQString@@@Z$65 10025b0e f   dCW.obj
 0001:00024b19       __unwindfunclet$?parseXML@dCW@@QAEPAVQWidget@@AAVQDomDocument@@PAV2@VQPoint@@_N33VQString@@@Z$66 10025b19 f   dCW.obj
 0001:00024b25       __unwindfunclet$?parseXML@dCW@@QAEPAVQWidget@@AAVQDomDocument@@PAV2@VQPoint@@_N33VQString@@@Z$67 10025b25 f   dCW.obj
 0001:00024b31       __unwindfunclet$?parseXML@dCW@@QAEPAVQWidget@@AAVQDomDocument@@PAV2@VQPoint@@_N33VQString@@@Z$68 10025b31 f   dCW.obj
 0001:00024b3d       __unwindfunclet$?parseXML@dCW@@QAEPAVQWidget@@AAVQDomDocument@@PAV2@VQPoint@@_N33VQString@@@Z$69 10025b3d f   dCW.obj
 0001:00024b49       __unwindfunclet$?parseXML@dCW@@QAEPAVQWidget@@AAVQDomDocument@@PAV2@VQPoint@@_N33VQString@@@Z$70 10025b49 f   dCW.obj
 0001:00024b55       __unwindfunclet$?parseXML@dCW@@QAEPAVQWidget@@AAVQDomDocument@@PAV2@VQPoint@@_N33VQString@@@Z$71 10025b55 f   dCW.obj
 0001:00024b61       __unwindfunclet$?parseXML@dCW@@QAEPAVQWidget@@AAVQDomDocument@@PAV2@VQPoint@@_N33VQString@@@Z$72 10025b61 f   dCW.obj
 0001:00024b6d       __unwindfunclet$?parseXML@dCW@@QAEPAVQWidget@@AAVQDomDocument@@PAV2@VQPoint@@_N33VQString@@@Z$73 10025b6d f   dCW.obj
 0001:00024b79       __unwindfunclet$?parseXML@dCW@@QAEPAVQWidget@@AAVQDomDocument@@PAV2@VQPoint@@_N33VQString@@@Z$74 10025b79 f   dCW.obj
 0001:00024b85       __unwindfunclet$?parseXML@dCW@@QAEPAVQWidget@@AAVQDomDocument@@PAV2@VQPoint@@_N33VQString@@@Z$75 10025b85 f   dCW.obj
 0001:00024b91       __unwindfunclet$?parseXML@dCW@@QAEPAVQWidget@@AAVQDomDocument@@PAV2@VQPoint@@_N33VQString@@@Z$76 10025b91 f   dCW.obj
 0001:00024b9d       __unwindfunclet$?parseXML@dCW@@QAEPAVQWidget@@AAVQDomDocument@@PAV2@VQPoint@@_N33VQString@@@Z$77 10025b9d f   dCW.obj
 0001:00024ba9       __unwindfunclet$?parseXML@dCW@@QAEPAVQWidget@@AAVQDomDocument@@PAV2@VQPoint@@_N33VQString@@@Z$78 10025ba9 f   dCW.obj
 0001:00024bb5       __unwindfunclet$?parseXML@dCW@@QAEPAVQWidget@@AAVQDomDocument@@PAV2@VQPoint@@_N33VQString@@@Z$79 10025bb5 f   dCW.obj
 0001:00024bc1       __unwindfunclet$?parseXML@dCW@@QAEPAVQWidget@@AAVQDomDocument@@PAV2@VQPoint@@_N33VQString@@@Z$80 10025bc1 f   dCW.obj
 0001:00024bcd       __unwindfunclet$?parseXML@dCW@@QAEPAVQWidget@@AAVQDomDocument@@PAV2@VQPoint@@_N33VQString@@@Z$81 10025bcd f   dCW.obj
 0001:00024bd9       __unwindfunclet$?parseXML@dCW@@QAEPAVQWidget@@AAVQDomDocument@@PAV2@VQPoint@@_N33VQString@@@Z$82 10025bd9 f   dCW.obj
 0001:00024be5       __unwindfunclet$?parseXML@dCW@@QAEPAVQWidget@@AAVQDomDocument@@PAV2@VQPoint@@_N33VQString@@@Z$83 10025be5 f   dCW.obj
 0001:00024bf1       __unwindfunclet$?parseXML@dCW@@QAEPAVQWidget@@AAVQDomDocument@@PAV2@VQPoint@@_N33VQString@@@Z$84 10025bf1 f   dCW.obj
 0001:00024bfd       __unwindfunclet$?parseXML@dCW@@QAEPAVQWidget@@AAVQDomDocument@@PAV2@VQPoint@@_N33VQString@@@Z$85 10025bfd f   dCW.obj
 0001:00024c09       __unwindfunclet$?parseXML@dCW@@QAEPAVQWidget@@AAVQDomDocument@@PAV2@VQPoint@@_N33VQString@@@Z$86 10025c09 f   dCW.obj
 0001:00024c15       __unwindfunclet$?parseXML@dCW@@QAEPAVQWidget@@AAVQDomDocument@@PAV2@VQPoint@@_N33VQString@@@Z$87 10025c15 f   dCW.obj
 0001:00024c21       __unwindfunclet$?parseXML@dCW@@QAEPAVQWidget@@AAVQDomDocument@@PAV2@VQPoint@@_N33VQString@@@Z$89 10025c21 f   dCW.obj
 0001:00024c2a       __unwindfunclet$?parseXML@dCW@@QAEPAVQWidget@@AAVQDomDocument@@PAV2@VQPoint@@_N33VQString@@@Z$90 10025c2a f   dCW.obj
 0001:00024c36       __unwindfunclet$?parseXML@dCW@@QAEPAVQWidget@@AAVQDomDocument@@PAV2@VQPoint@@_N33VQString@@@Z$91 10025c36 f   dCW.obj
 0001:00024c42       __unwindfunclet$?parseXML@dCW@@QAEPAVQWidget@@AAVQDomDocument@@PAV2@VQPoint@@_N33VQString@@@Z$92 10025c42 f   dCW.obj
 0001:00024c4e       __unwindfunclet$?parseXML@dCW@@QAEPAVQWidget@@AAVQDomDocument@@PAV2@VQPoint@@_N33VQString@@@Z$93 10025c4e f   dCW.obj
 0001:00024c5a       __unwindfunclet$?parseXML@dCW@@QAEPAVQWidget@@AAVQDomDocument@@PAV2@VQPoint@@_N33VQString@@@Z$94 10025c5a f   dCW.obj
 0001:00024c63       __unwindfunclet$?parseXML@dCW@@QAEPAVQWidget@@AAVQDomDocument@@PAV2@VQPoint@@_N33VQString@@@Z$95 10025c63 f   dCW.obj
 0001:00024c6f       __unwindfunclet$?parseXML@dCW@@QAEPAVQWidget@@AAVQDomDocument@@PAV2@VQPoint@@_N33VQString@@@Z$96 10025c6f f   dCW.obj
 0001:00024c7b       __unwindfunclet$?parseXML@dCW@@QAEPAVQWidget@@AAVQDomDocument@@PAV2@VQPoint@@_N33VQString@@@Z$97 10025c7b f   dCW.obj
 0001:00024c84       __unwindfunclet$?parseXML@dCW@@QAEPAVQWidget@@AAVQDomDocument@@PAV2@VQPoint@@_N33VQString@@@Z$98 10025c84 f   dCW.obj
 0001:00024c90       __unwindfunclet$?parseXML@dCW@@QAEPAVQWidget@@AAVQDomDocument@@PAV2@VQPoint@@_N33VQString@@@Z$99 10025c90 f   dCW.obj
 0001:00024c9c       __unwindfunclet$?parseXML@dCW@@QAEPAVQWidget@@AAVQDomDocument@@PAV2@VQPoint@@_N33VQString@@@Z$100 10025c9c f   dCW.obj
 0001:00024ca5       __unwindfunclet$?parseXML@dCW@@QAEPAVQWidget@@AAVQDomDocument@@PAV2@VQPoint@@_N33VQString@@@Z$101 10025ca5 f   dCW.obj
 0001:00024cb1       __unwindfunclet$?parseXML@dCW@@QAEPAVQWidget@@AAVQDomDocument@@PAV2@VQPoint@@_N33VQString@@@Z$102 10025cb1 f   dCW.obj
 0001:00024cbd       __unwindfunclet$?parseXML@dCW@@QAEPAVQWidget@@AAVQDomDocument@@PAV2@VQPoint@@_N33VQString@@@Z$103 10025cbd f   dCW.obj
 0001:00024cc6       __unwindfunclet$?parseXML@dCW@@QAEPAVQWidget@@AAVQDomDocument@@PAV2@VQPoint@@_N33VQString@@@Z$104 10025cc6 f   dCW.obj
 0001:00024cd2       __unwindfunclet$?parseXML@dCW@@QAEPAVQWidget@@AAVQDomDocument@@PAV2@VQPoint@@_N33VQString@@@Z$105 10025cd2 f   dCW.obj
 0001:00024cdb       __unwindfunclet$?parseXML@dCW@@QAEPAVQWidget@@AAVQDomDocument@@PAV2@VQPoint@@_N33VQString@@@Z$106 10025cdb f   dCW.obj
 0001:00024ce7       __unwindfunclet$?parseXML@dCW@@QAEPAVQWidget@@AAVQDomDocument@@PAV2@VQPoint@@_N33VQString@@@Z$107 10025ce7 f   dCW.obj
 0001:00024cf3       __unwindfunclet$?parseXML@dCW@@QAEPAVQWidget@@AAVQDomDocument@@PAV2@VQPoint@@_N33VQString@@@Z$109 10025cf3 f   dCW.obj
 0001:00024cff       __unwindfunclet$?parseXML@dCW@@QAEPAVQWidget@@AAVQDomDocument@@PAV2@VQPoint@@_N33VQString@@@Z$111 10025cff f   dCW.obj
 0001:00024d0b       __unwindfunclet$?parseXML@dCW@@QAEPAVQWidget@@AAVQDomDocument@@PAV2@VQPoint@@_N33VQString@@@Z$112 10025d0b f   dCW.obj
 0001:00024d17       __unwindfunclet$?parseXML@dCW@@QAEPAVQWidget@@AAVQDomDocument@@PAV2@VQPoint@@_N33VQString@@@Z$113 10025d17 f   dCW.obj
 0001:00024d23       __unwindfunclet$?parseXML@dCW@@QAEPAVQWidget@@AAVQDomDocument@@PAV2@VQPoint@@_N33VQString@@@Z$115 10025d23 f   dCW.obj
 0001:00024d2f       __unwindfunclet$?parseXML@dCW@@QAEPAVQWidget@@AAVQDomDocument@@PAV2@VQPoint@@_N33VQString@@@Z$116 10025d2f f   dCW.obj
 0001:00024d3b       __unwindfunclet$?parseXML@dCW@@QAEPAVQWidget@@AAVQDomDocument@@PAV2@VQPoint@@_N33VQString@@@Z$117 10025d3b f   dCW.obj
 0001:00024d47       __unwindfunclet$?parseXML@dCW@@QAEPAVQWidget@@AAVQDomDocument@@PAV2@VQPoint@@_N33VQString@@@Z$118 10025d47 f   dCW.obj
 0001:00024d53       __unwindfunclet$?parseXML@dCW@@QAEPAVQWidget@@AAVQDomDocument@@PAV2@VQPoint@@_N33VQString@@@Z$119 10025d53 f   dCW.obj
 0001:00024d5f       __unwindfunclet$?parseXML@dCW@@QAEPAVQWidget@@AAVQDomDocument@@PAV2@VQPoint@@_N33VQString@@@Z$120 10025d5f f   dCW.obj
 0001:00024d6b       __unwindfunclet$?parseXML@dCW@@QAEPAVQWidget@@AAVQDomDocument@@PAV2@VQPoint@@_N33VQString@@@Z$121 10025d6b f   dCW.obj
 0001:00024d77       __unwindfunclet$?parseXML@dCW@@QAEPAVQWidget@@AAVQDomDocument@@PAV2@VQPoint@@_N33VQString@@@Z$122 10025d77 f   dCW.obj
 0001:00024d83       __unwindfunclet$?parseXML@dCW@@QAEPAVQWidget@@AAVQDomDocument@@PAV2@VQPoint@@_N33VQString@@@Z$123 10025d83 f   dCW.obj
 0001:00024d8f       __unwindfunclet$?parseXML@dCW@@QAEPAVQWidget@@AAVQDomDocument@@PAV2@VQPoint@@_N33VQString@@@Z$124 10025d8f f   dCW.obj
 0001:00024d9b       __unwindfunclet$?parseXML@dCW@@QAEPAVQWidget@@AAVQDomDocument@@PAV2@VQPoint@@_N33VQString@@@Z$125 10025d9b f   dCW.obj
 0001:00024da7       __unwindfunclet$?parseXML@dCW@@QAEPAVQWidget@@AAVQDomDocument@@PAV2@VQPoint@@_N33VQString@@@Z$126 10025da7 f   dCW.obj
 0001:00024db3       __unwindfunclet$?parseXML@dCW@@QAEPAVQWidget@@AAVQDomDocument@@PAV2@VQPoint@@_N33VQString@@@Z$127 10025db3 f   dCW.obj
 0001:00024dbf       __unwindfunclet$?parseXML@dCW@@QAEPAVQWidget@@AAVQDomDocument@@PAV2@VQPoint@@_N33VQString@@@Z$128 10025dbf f   dCW.obj
 0001:00024dcb       __unwindfunclet$?parseXML@dCW@@QAEPAVQWidget@@AAVQDomDocument@@PAV2@VQPoint@@_N33VQString@@@Z$129 10025dcb f   dCW.obj
 0001:00024dd7       __unwindfunclet$?parseXML@dCW@@QAEPAVQWidget@@AAVQDomDocument@@PAV2@VQPoint@@_N33VQString@@@Z$130 10025dd7 f   dCW.obj
 0001:00024de3       __unwindfunclet$?parseXML@dCW@@QAEPAVQWidget@@AAVQDomDocument@@PAV2@VQPoint@@_N33VQString@@@Z$131 10025de3 f   dCW.obj
 0001:00024def       __unwindfunclet$?parseXML@dCW@@QAEPAVQWidget@@AAVQDomDocument@@PAV2@VQPoint@@_N33VQString@@@Z$132 10025def f   dCW.obj
 0001:00024dfb       __unwindfunclet$?parseXML@dCW@@QAEPAVQWidget@@AAVQDomDocument@@PAV2@VQPoint@@_N33VQString@@@Z$133 10025dfb f   dCW.obj
 0001:00024e07       __unwindfunclet$?parseXML@dCW@@QAEPAVQWidget@@AAVQDomDocument@@PAV2@VQPoint@@_N33VQString@@@Z$134 10025e07 f   dCW.obj
 0001:00024e13       __unwindfunclet$?parseXML@dCW@@QAEPAVQWidget@@AAVQDomDocument@@PAV2@VQPoint@@_N33VQString@@@Z$135 10025e13 f   dCW.obj
 0001:00024e1c       __unwindfunclet$?parseXML@dCW@@QAEPAVQWidget@@AAVQDomDocument@@PAV2@VQPoint@@_N33VQString@@@Z$137 10025e1c f   dCW.obj
 0001:00024e28       __unwindfunclet$?parseXML@dCW@@QAEPAVQWidget@@AAVQDomDocument@@PAV2@VQPoint@@_N33VQString@@@Z$138 10025e28 f   dCW.obj
 0001:00024e34       __unwindfunclet$?parseXML@dCW@@QAEPAVQWidget@@AAVQDomDocument@@PAV2@VQPoint@@_N33VQString@@@Z$139 10025e34 f   dCW.obj
 0001:00024e40       __unwindfunclet$?parseXML@dCW@@QAEPAVQWidget@@AAVQDomDocument@@PAV2@VQPoint@@_N33VQString@@@Z$140 10025e40 f   dCW.obj
 0001:00024e49       __unwindfunclet$?parseXML@dCW@@QAEPAVQWidget@@AAVQDomDocument@@PAV2@VQPoint@@_N33VQString@@@Z$141 10025e49 f   dCW.obj
 0001:00024e55       __unwindfunclet$?parseXML@dCW@@QAEPAVQWidget@@AAVQDomDocument@@PAV2@VQPoint@@_N33VQString@@@Z$142 10025e55 f   dCW.obj
 0001:00024e61       __unwindfunclet$?parseXML@dCW@@QAEPAVQWidget@@AAVQDomDocument@@PAV2@VQPoint@@_N33VQString@@@Z$143 10025e61 f   dCW.obj
 0001:00024e6d       __unwindfunclet$?parseXML@dCW@@QAEPAVQWidget@@AAVQDomDocument@@PAV2@VQPoint@@_N33VQString@@@Z$144 10025e6d f   dCW.obj
 0001:00024e79       __unwindfunclet$?parseXML@dCW@@QAEPAVQWidget@@AAVQDomDocument@@PAV2@VQPoint@@_N33VQString@@@Z$145 10025e79 f   dCW.obj
 0001:00024e85       __unwindfunclet$?parseXML@dCW@@QAEPAVQWidget@@AAVQDomDocument@@PAV2@VQPoint@@_N33VQString@@@Z$136 10025e85 f   dCW.obj
 0001:00024e91       __unwindfunclet$?parseXML@dCW@@QAEPAVQWidget@@AAVQDomDocument@@PAV2@VQPoint@@_N33VQString@@@Z$146 10025e91 f   dCW.obj
 0001:00024e9d       __unwindfunclet$?parseXML@dCW@@QAEPAVQWidget@@AAVQDomDocument@@PAV2@VQPoint@@_N33VQString@@@Z$147 10025e9d f   dCW.obj
 0001:00024ea9       __unwindfunclet$?parseXML@dCW@@QAEPAVQWidget@@AAVQDomDocument@@PAV2@VQPoint@@_N33VQString@@@Z$148 10025ea9 f   dCW.obj
 0001:00024eb5       __unwindfunclet$?parseXML@dCW@@QAEPAVQWidget@@AAVQDomDocument@@PAV2@VQPoint@@_N33VQString@@@Z$150 10025eb5 f   dCW.obj
 0001:00024ec1       __unwindfunclet$?parseXML@dCW@@QAEPAVQWidget@@AAVQDomDocument@@PAV2@VQPoint@@_N33VQString@@@Z$151 10025ec1 f   dCW.obj
 0001:00024ecd       __unwindfunclet$?parseXML@dCW@@QAEPAVQWidget@@AAVQDomDocument@@PAV2@VQPoint@@_N33VQString@@@Z$152 10025ecd f   dCW.obj
 0001:00024ed9       __unwindfunclet$?parseXML@dCW@@QAEPAVQWidget@@AAVQDomDocument@@PAV2@VQPoint@@_N33VQString@@@Z$153 10025ed9 f   dCW.obj
 0001:00024ee5       __unwindfunclet$?parseXML@dCW@@QAEPAVQWidget@@AAVQDomDocument@@PAV2@VQPoint@@_N33VQString@@@Z$149 10025ee5 f   dCW.obj
 0001:00024ef1       __unwindfunclet$?parseXML@dCW@@QAEPAVQWidget@@AAVQDomDocument@@PAV2@VQPoint@@_N33VQString@@@Z$154 10025ef1 f   dCW.obj
 0001:00024efd       __unwindfunclet$?parseXML@dCW@@QAEPAVQWidget@@AAVQDomDocument@@PAV2@VQPoint@@_N33VQString@@@Z$155 10025efd f   dCW.obj
 0001:00024f09       __unwindfunclet$?parseXML@dCW@@QAEPAVQWidget@@AAVQDomDocument@@PAV2@VQPoint@@_N33VQString@@@Z$156 10025f09 f   dCW.obj
 0001:00024f15       __unwindfunclet$?parseXML@dCW@@QAEPAVQWidget@@AAVQDomDocument@@PAV2@VQPoint@@_N33VQString@@@Z$88 10025f15 f   dCW.obj
 0001:00024f21       __unwindfunclet$?parseXML@dCW@@QAEPAVQWidget@@AAVQDomDocument@@PAV2@VQPoint@@_N33VQString@@@Z$5 10025f21 f   dCW.obj
 0001:00024f2d       __ehhandler$?parseXML@dCW@@QAEPAVQWidget@@AAVQDomDocument@@PAV2@VQPoint@@_N33VQString@@@Z 10025f2d f   dCW.obj
 0001:00024f50       __unwindfunclet$?parseXML@dCW@@QAEPAVQWidget@@AAVQDomDocument@@PAV2@VQPoint@@_N3VQString@@@Z$0 10025f50 f   dCW.obj
 0001:00024f59       __ehhandler$?parseXML@dCW@@QAEPAVQWidget@@AAVQDomDocument@@PAV2@VQPoint@@_N3VQString@@@Z 10025f59 f   dCW.obj
 0001:00024f80       __unwindfunclet$??0notifyWrangler@@QAE@ABVQString@@0ABVQWidgetList@@@Z$0 10025f80 f   notifyWrangler.obj
 0001:00024f8c       __unwindfunclet$??0notifyWrangler@@QAE@ABVQString@@0ABVQWidgetList@@@Z$1 10025f8c f   notifyWrangler.obj
 0001:00024f98       __ehhandler$??0notifyWrangler@@QAE@ABVQString@@0ABVQWidgetList@@@Z 10025f98 f   notifyWrangler.obj
 0001:00024fc0       __unwindfunclet$??_GnotifyWrangler@@UAEPAXI@Z$0 10025fc0 f   notifyWrangler.obj
 0001:00024fc0       __unwindfunclet$??1notifyWrangler@@UAE@XZ$0 10025fc0 f   notifyWrangler.obj
 0001:00024fcc       __ehhandler$??1notifyWrangler@@UAE@XZ 10025fcc f   notifyWrangler.obj
 0001:00024fcc       __ehhandler$??_GnotifyWrangler@@UAEPAXI@Z 10025fcc f   notifyWrangler.obj
 0001:00024ff0       __unwindfunclet$?textGet@notifyWrangler@@QAE_NABVQString@@0AAV2@@Z$0 10025ff0 f   notifyWrangler.obj
 0001:00024ff9       __unwindfunclet$?textGet@notifyWrangler@@QAE_NABVQString@@0AAV2@@Z$1 10025ff9 f   notifyWrangler.obj
 0001:00025004       __unwindfunclet$?textGet@notifyWrangler@@QAE_NABVQString@@0AAV2@@Z$2 10026004 f   notifyWrangler.obj
 0001:0002500d       __unwindfunclet$?textGet@notifyWrangler@@QAE_NABVQString@@0AAV2@@Z$3 1002600d f   notifyWrangler.obj
 0001:00025016       __unwindfunclet$?textGet@notifyWrangler@@QAE_NABVQString@@0AAV2@@Z$4 10026016 f   notifyWrangler.obj
 0001:0002501f       __ehhandler$?textGet@notifyWrangler@@QAE_NABVQString@@0AAV2@@Z 1002601f f   notifyWrangler.obj
 0001:00025040       __unwindfunclet$?wrangle@notifyWrangler@@QAE?AVQString@@ABV2@@Z$0 10026040 f   notifyWrangler.obj
 0001:0002505a       __unwindfunclet$?wrangle@notifyWrangler@@QAE?AVQString@@ABV2@@Z$1 1002605a f   notifyWrangler.obj
 0001:00025063       __unwindfunclet$?wrangle@notifyWrangler@@QAE?AVQString@@ABV2@@Z$2 10026063 f   notifyWrangler.obj
 0001:0002506c       __unwindfunclet$?wrangle@notifyWrangler@@QAE?AVQString@@ABV2@@Z$3 1002606c f   notifyWrangler.obj
 0001:00025075       __unwindfunclet$?wrangle@notifyWrangler@@QAE?AVQString@@ABV2@@Z$24 10026075 f   notifyWrangler.obj
 0001:0002507e       __unwindfunclet$?wrangle@notifyWrangler@@QAE?AVQString@@ABV2@@Z$25 1002607e f   notifyWrangler.obj
 0001:0002508a       __unwindfunclet$?wrangle@notifyWrangler@@QAE?AVQString@@ABV2@@Z$26 1002608a f   notifyWrangler.obj
 0001:00025093       __unwindfunclet$?wrangle@notifyWrangler@@QAE?AVQString@@ABV2@@Z$4 10026093 f   notifyWrangler.obj
 0001:0002509c       __unwindfunclet$?wrangle@notifyWrangler@@QAE?AVQString@@ABV2@@Z$5 1002609c f   notifyWrangler.obj
 0001:000250a5       __unwindfunclet$?wrangle@notifyWrangler@@QAE?AVQString@@ABV2@@Z$6 100260a5 f   notifyWrangler.obj
 0001:000250ae       __unwindfunclet$?wrangle@notifyWrangler@@QAE?AVQString@@ABV2@@Z$7 100260ae f   notifyWrangler.obj
 0001:000250b7       __unwindfunclet$?wrangle@notifyWrangler@@QAE?AVQString@@ABV2@@Z$8 100260b7 f   notifyWrangler.obj
 0001:000250c0       __unwindfunclet$?wrangle@notifyWrangler@@QAE?AVQString@@ABV2@@Z$27 100260c0 f   notifyWrangler.obj
 0001:000250c9       __unwindfunclet$?wrangle@notifyWrangler@@QAE?AVQString@@ABV2@@Z$28 100260c9 f   notifyWrangler.obj
 0001:000250d2       __unwindfunclet$?wrangle@notifyWrangler@@QAE?AVQString@@ABV2@@Z$9 100260d2 f   notifyWrangler.obj
 0001:000250db       __unwindfunclet$?wrangle@notifyWrangler@@QAE?AVQString@@ABV2@@Z$10 100260db f   notifyWrangler.obj
 0001:000250e4       __unwindfunclet$?wrangle@notifyWrangler@@QAE?AVQString@@ABV2@@Z$11 100260e4 f   notifyWrangler.obj
 0001:000250ed       __unwindfunclet$?wrangle@notifyWrangler@@QAE?AVQString@@ABV2@@Z$12 100260ed f   notifyWrangler.obj
 0001:000250f6       __unwindfunclet$?wrangle@notifyWrangler@@QAE?AVQString@@ABV2@@Z$13 100260f6 f   notifyWrangler.obj
 0001:000250ff       __unwindfunclet$?wrangle@notifyWrangler@@QAE?AVQString@@ABV2@@Z$14 100260ff f   notifyWrangler.obj
 0001:00025108       __unwindfunclet$?wrangle@notifyWrangler@@QAE?AVQString@@ABV2@@Z$29 10026108 f   notifyWrangler.obj
 0001:00025114       __unwindfunclet$?wrangle@notifyWrangler@@QAE?AVQString@@ABV2@@Z$15 10026114 f   notifyWrangler.obj
 0001:0002511d       __unwindfunclet$?wrangle@notifyWrangler@@QAE?AVQString@@ABV2@@Z$16 1002611d f   notifyWrangler.obj
 0001:00025126       __unwindfunclet$?wrangle@notifyWrangler@@QAE?AVQString@@ABV2@@Z$17 10026126 f   notifyWrangler.obj
 0001:0002512f       __unwindfunclet$?wrangle@notifyWrangler@@QAE?AVQString@@ABV2@@Z$30 1002612f f   notifyWrangler.obj
 0001:00025138       __unwindfunclet$?wrangle@notifyWrangler@@QAE?AVQString@@ABV2@@Z$18 10026138 f   notifyWrangler.obj
 0001:00025143       __unwindfunclet$?wrangle@notifyWrangler@@QAE?AVQString@@ABV2@@Z$19 10026143 f   notifyWrangler.obj
 0001:0002514c       __unwindfunclet$?wrangle@notifyWrangler@@QAE?AVQString@@ABV2@@Z$31 1002614c f   notifyWrangler.obj
 0001:00025155       __unwindfunclet$?wrangle@notifyWrangler@@QAE?AVQString@@ABV2@@Z$20 10026155 f   notifyWrangler.obj
 0001:00025160       __unwindfunclet$?wrangle@notifyWrangler@@QAE?AVQString@@ABV2@@Z$21 10026160 f   notifyWrangler.obj
 0001:00025169       __unwindfunclet$?wrangle@notifyWrangler@@QAE?AVQString@@ABV2@@Z$22 10026169 f   notifyWrangler.obj
 0001:00025172       __unwindfunclet$?wrangle@notifyWrangler@@QAE?AVQString@@ABV2@@Z$23 10026172 f   notifyWrangler.obj
 0001:0002517d       __ehhandler$?wrangle@notifyWrangler@@QAE?AVQString@@ABV2@@Z 1002617d f   notifyWrangler.obj
 0001:000251a0       __unwindfunclet$??0connectionDebugDlgBase@@QAE@PAVQWidget@@PBD_NI@Z$0 100261a0 f   connectiondebugdlg.obj
 0001:000251a9       __unwindfunclet$??0connectionDebugDlgBase@@QAE@PAVQWidget@@PBD_NI@Z$1 100261a9 f   connectiondebugdlg.obj
 0001:000251b4       __unwindfunclet$??0connectionDebugDlgBase@@QAE@PAVQWidget@@PBD_NI@Z$2 100261b4 f   connectiondebugdlg.obj
 0001:000251bf       __unwindfunclet$??0connectionDebugDlgBase@@QAE@PAVQWidget@@PBD_NI@Z$3 100261bf f   connectiondebugdlg.obj
 0001:000251c8       __unwindfunclet$??0connectionDebugDlgBase@@QAE@PAVQWidget@@PBD_NI@Z$4 100261c8 f   connectiondebugdlg.obj
 0001:000251d1       __unwindfunclet$??0connectionDebugDlgBase@@QAE@PAVQWidget@@PBD_NI@Z$5 100261d1 f   connectiondebugdlg.obj
 0001:000251dc       __unwindfunclet$??0connectionDebugDlgBase@@QAE@PAVQWidget@@PBD_NI@Z$6 100261dc f   connectiondebugdlg.obj
 0001:000251e7       __unwindfunclet$??0connectionDebugDlgBase@@QAE@PAVQWidget@@PBD_NI@Z$8 100261e7 f   connectiondebugdlg.obj
 0001:000251f2       __unwindfunclet$??0connectionDebugDlgBase@@QAE@PAVQWidget@@PBD_NI@Z$9 100261f2 f   connectiondebugdlg.obj
 0001:000251fd       __ehhandler$??0connectionDebugDlgBase@@QAE@PAVQWidget@@PBD_NI@Z 100261fd f   connectiondebugdlg.obj
 0001:00025220       __unwindfunclet$?languageChange@connectionDebugDlgBase@@MAEXXZ$0 10026220 f   connectiondebugdlg.obj
 0001:00025229       __unwindfunclet$?languageChange@connectionDebugDlgBase@@MAEXXZ$1 10026229 f   connectiondebugdlg.obj
 0001:00025232       __unwindfunclet$?languageChange@connectionDebugDlgBase@@MAEXXZ$2 10026232 f   connectiondebugdlg.obj
 0001:0002523b       __unwindfunclet$?languageChange@connectionDebugDlgBase@@MAEXXZ$3 1002623b f   connectiondebugdlg.obj
 0001:00025244       __ehhandler$?languageChange@connectionDebugDlgBase@@MAEXXZ 10026244 f   connectiondebugdlg.obj
 0001:00025260       __unwindfunclet$?notify@bncs_client_runtime@@IAEXAAVQString@@@Z$0 10026260 f   moc_bncs_client_runtime.obj
 0001:00025274       __ehhandler$?notify@bncs_client_runtime@@IAEXAAVQString@@@Z 10026274 f   moc_bncs_client_runtime.obj
 0001:000252a0       ??__F?_Generic_object@?$_Error_objects@H@std@@2V_Generic_error_category@2@A@@YAXXZ 100262a0 f   bncs_client_runtime.obj
 0001:000252b0       ??__F?_Iostream_object@?$_Error_objects@H@std@@2V_Iostream_error_category@2@A@@YAXXZ 100262b0 f   bncs_client_runtime.obj
 0001:000252c0       ??__F?_System_object@?$_Error_objects@H@std@@2V_System_error_category@2@A@@YAXXZ 100262c0 f   bncs_client_runtime.obj
 0001:000252d0       ??__F?m_timers@ccTimer@@0V?$map@HVccTimerClient@@U?$less@H@std@@V?$allocator@U?$pair@$$CBHVccTimerClient@@@std@@@3@@std@@A@@YAXXZ 100262d0 f   ccTimer.obj
 0001:00025350       ??__FresC@@YAXXZ           10026350 f   dCW.obj
 0001:00025360       ??__Fui@@YAXXZ             10026360 f   dCW.obj
 0001:000253c0       ??__FcleanUp_bncs_client_runtime@@YAXXZ 100263c0 f   moc_bncs_client_runtime.obj
 0001:000253d0       ??__FcleanUp_connectionDebugDlgBase@@YAXXZ 100263d0 f   moc_connectiondebugdlg.obj
 0001:000253e0       ??__FcleanUp_connectionDebugDlg@@YAXXZ 100263e0 f   moc_connectiondebugdlgimpl.obj
 0002:000023f8       ?_Generic_object$initializer$@?$_Error_objects@H@std@@2P6AXXZA 100293f8     bncs_client_runtime.obj
 0002:000023fc       ?_Iostream_object$initializer$@?$_Error_objects@H@std@@2P6AXXZA 100293fc     bncs_client_runtime.obj
 0002:00002400       ?_System_object$initializer$@?$_Error_objects@H@std@@2P6AXXZA 10029400     bncs_client_runtime.obj
 0002:00002404       ?m_timers$initializer$@ccTimer@@0P6AXXZA 10029404     ccTimer.obj
 0002:00002408       _ui$initializer$           10029408     dCW.obj
 0002:0000240c       _resC$initializer$         1002940c     dCW.obj
 0002:00002410       _cleanUp_bncs_client_runtime$initializer$ 10029410     moc_bncs_client_runtime.obj
 0002:00002414       _cleanUp_connectionDebugDlgBase$initializer$ 10029414     moc_connectiondebugdlg.obj
 0002:00002418       _cleanUp_connectionDebugDlg$initializer$ 10029418     moc_connectiondebugdlgimpl.obj
 0002:0000241c       _$S186                     1002941c     qui:qwidgetfactory.obj
 0002:00002420       _$S191                     10029420     qui:qwidgetfactory.obj
 0002:00002424       _$S104                     10029424     qui:moc_database2.obj
 0002:00002428       _$S109                     10029428     qui:moc_database2.obj
 0002:00002434       _pcinit                    10029434     MSVCRT:crtdll.obj
 0002:00002438       _pinit                     10029438     MSVCRT:atonexit.obj
 0002:00004114       ?slot_0@?3??staticMetaObject@bncs_client_runtime@@SAPAVQMetaObject@@XZ@4UQUMethod@@B 1002b114     moc_bncs_client_runtime.obj
 0002:0000412c       ?slot_1@?3??staticMetaObject@bncs_client_runtime@@SAPAVQMetaObject@@XZ@4UQUMethod@@B 1002b12c     moc_bncs_client_runtime.obj
 0002:00004148       ?slot_2@?3??staticMetaObject@bncs_client_runtime@@SAPAVQMetaObject@@XZ@4UQUMethod@@B 1002b148     moc_bncs_client_runtime.obj
 0002:00004168       ?slot_tbl@?3??staticMetaObject@bncs_client_runtime@@SAPAVQMetaObject@@XZ@4QBUQMetaData@@B 1002b168     moc_bncs_client_runtime.obj
 0002:000041cc       ?signal_0@?3??staticMetaObject@bncs_client_runtime@@SAPAVQMetaObject@@XZ@4UQUMethod@@B 1002b1cc     moc_bncs_client_runtime.obj
 0002:000041e0       ?signal_tbl@?3??staticMetaObject@bncs_client_runtime@@SAPAVQMetaObject@@XZ@4QBUQMetaData@@B 1002b1e0     moc_bncs_client_runtime.obj
 0002:00004214       ?slot_0@?3??staticMetaObject@connectionDebugDlgBase@@SAPAVQMetaObject@@XZ@4UQUMethod@@B 1002b214     moc_connectiondebugdlg.obj
 0002:00004230       ?slot_tbl@?3??staticMetaObject@connectionDebugDlgBase@@SAPAVQMetaObject@@XZ@4QBUQMetaData@@B 1002b230     moc_connectiondebugdlg.obj
 0002:00004250       ?slot_0@?3??staticMetaObject@connectionDebugDlg@@SAPAVQMetaObject@@XZ@4UQUMethod@@B 1002b250     moc_connectiondebugdlgimpl.obj
 0002:0000426c       ?slot_1@?3??staticMetaObject@connectionDebugDlg@@SAPAVQMetaObject@@XZ@4UQUMethod@@B 1002b26c     moc_connectiondebugdlgimpl.obj
 0002:00004288       ?slot_tbl@?3??staticMetaObject@connectionDebugDlg@@SAPAVQMetaObject@@XZ@4QBUQMetaData@@B 1002b288     moc_connectiondebugdlgimpl.obj
 0002:000042c8       ?signal_0@?3??staticMetaObject@connectionDebugDlg@@SAPAVQMetaObject@@XZ@4UQUMethod@@B 1002b2c8     moc_connectiondebugdlgimpl.obj
 0002:000042e8       ?signal_tbl@?3??staticMetaObject@connectionDebugDlg@@SAPAVQMetaObject@@XZ@4QBUQMetaData@@B 1002b2e8     moc_connectiondebugdlgimpl.obj
 0002:0000430c       _TRUE                      1002b30c     qui:qwidgetfactory.obj
 0002:0000a480       _commonStrings             10031480     qui:uib.obj
 0002:0000a620       _GS_ExceptionPointers      10031620     MSVCRT:gs_report.obj
 0002:0000b690       __catchsym$?_Copy@?$basic_string@DU?$char_traits@D@std@@V?$allocator@D@2@@std@@QAEXII@Z$5 10032690     bncs_client_runtime.obj
 0002:0000b6a0       __catchsym$?_Copy@?$basic_string@DU?$char_traits@D@std@@V?$allocator@D@2@@std@@QAEXII@Z$4 100326a0     bncs_client_runtime.obj
 0002:0000b6b0       __unwindtable$?_Copy@?$basic_string@DU?$char_traits@D@std@@V?$allocator@D@2@@std@@QAEXII@Z 100326b0     bncs_client_runtime.obj
 0002:0000b6d0       __ehfuncinfo$?_Copy@?$basic_string@DU?$char_traits@D@std@@V?$allocator@D@2@@std@@QAEXII@Z 100326d0     bncs_client_runtime.obj
 0002:0000b6f4       __tryblocktable$?_Copy@?$basic_string@DU?$char_traits@D@std@@V?$allocator@D@2@@std@@QAEXII@Z 100326f4     bncs_client_runtime.obj
 0002:0000b71c       __ehfuncinfo$??0signalConnection@@QAE@ABVQString@@0000@Z 1003271c     bncs_client_runtime.obj
 0002:0000b740       __unwindtable$??0signalConnection@@QAE@ABVQString@@0000@Z 10032740     bncs_client_runtime.obj
 0002:0000b768       __unwindtable$??1signalConnection@@QAE@XZ 10032768     bncs_client_runtime.obj
 0002:0000b788       __ehfuncinfo$??1signalConnection@@QAE@XZ 10032788     bncs_client_runtime.obj
 0002:0000b7ac       __unwindtable$??0signalConnection@@QAE@ABV0@@Z 100327ac     bncs_client_runtime.obj
 0002:0000b7cc       __ehfuncinfo$??0signalConnection@@QAE@ABV0@@Z 100327cc     bncs_client_runtime.obj
 0002:0000b7f0       __unwindtable$??1?$QPtrList@VsignalConnection@@@@UAE@XZ 100327f0     bncs_client_runtime.obj
 0002:0000b7f8       __ehfuncinfo$??1?$QPtrList@VsignalConnection@@@@UAE@XZ 100327f8     bncs_client_runtime.obj
 0002:0000b81c       __unwindtable$?deleteItem@?$QPtrList@VsignalConnection@@@@EAEXPAX@Z 1003281c     bncs_client_runtime.obj
 0002:0000b83c       __ehfuncinfo$?deleteItem@?$QPtrList@VsignalConnection@@@@EAEXPAX@Z 1003283c     bncs_client_runtime.obj
 0002:0000b860       __unwindtable$??_E?$QPtrList@VsignalConnection@@@@UAEPAXI@Z 10032860     bncs_client_runtime.obj
 0002:0000b868       __ehfuncinfo$??_E?$QPtrList@VsignalConnection@@@@UAEPAXI@Z 10032868     bncs_client_runtime.obj
 0002:0000b88c       __unwindtable$??1signalConnectionRefList@@UAE@XZ 1003288c     bncs_client_runtime.obj
 0002:0000b89c       __ehfuncinfo$??1signalConnectionRefList@@UAE@XZ 1003289c     bncs_client_runtime.obj
 0002:0000b8c0       __unwindtable$??_EsignalConnectionRefList@@UAEPAXI@Z 100328c0     bncs_client_runtime.obj
 0002:0000b8d0       __ehfuncinfo$??_EsignalConnectionRefList@@UAEPAXI@Z 100328d0     bncs_client_runtime.obj
 0002:0000b8f4       __ehfuncinfo$??0dCW@@QAE@XZ 100328f4     bncs_client_runtime.obj
 0002:0000b8f4       __ehfuncinfo$??0dCW@@QAE@ABV0@@Z 100328f4     bncs_client_runtime.obj
 0002:0000b918       __unwindtable$??0dCW@@QAE@XZ 10032918     bncs_client_runtime.obj
 0002:0000b918       __unwindtable$??0dCW@@QAE@ABV0@@Z 10032918     bncs_client_runtime.obj
 0002:0000b958       __unwindtable$?erase@?$QMap@VQString@@VparamInfo@@@@QAEXABVQString@@@Z 10032958     bncs_client_runtime.obj
 0002:0000b958       __unwindtable$?remove@?$QMap@VQString@@VparamInfo@@@@QAEXABVQString@@@Z 10032958     bncs_client_runtime.obj
 0002:0000b970       __ehfuncinfo$?erase@?$QMap@VQString@@VparamInfo@@@@QAEXABVQString@@@Z 10032970     bncs_client_runtime.obj
 0002:0000b970       __ehfuncinfo$?remove@?$QMap@VQString@@VparamInfo@@@@QAEXABVQString@@@Z 10032970     bncs_client_runtime.obj
 0002:0000b994       __unwindtable$??A?$QMap@VQString@@VparamInfo@@@@QAEAAVparamInfo@@ABVQString@@@Z 10032994     bncs_client_runtime.obj
 0002:0000b9ac       __ehfuncinfo$??A?$QMap@VQString@@VparamInfo@@@@QAEAAVparamInfo@@ABVQString@@@Z 100329ac     bncs_client_runtime.obj
 0002:0000b9d0       __unwindtable$?erase@?$QMap@VQString@@VparamInfo@@@@QAEXV?$QMapIterator@VQString@@VparamInfo@@@@@Z 100329d0     bncs_client_runtime.obj
 0002:0000b9d0       __unwindtable$?remove@?$QMap@VQString@@VparamInfo@@@@QAEXV?$QMapIterator@VQString@@VparamInfo@@@@@Z 100329d0     bncs_client_runtime.obj
 0002:0000b9e0       __ehfuncinfo$?erase@?$QMap@VQString@@VparamInfo@@@@QAEXV?$QMapIterator@VQString@@VparamInfo@@@@@Z 100329e0     bncs_client_runtime.obj
 0002:0000b9e0       __ehfuncinfo$?remove@?$QMap@VQString@@VparamInfo@@@@QAEXV?$QMapIterator@VQString@@VparamInfo@@@@@Z 100329e0     bncs_client_runtime.obj
 0002:0000ba04       __unwindtable$?replace@?$QMap@VQString@@VcomplexParam@@@@QAE?AV?$QMapIterator@VQString@@VcomplexParam@@@@ABVQString@@ABVcomplexParam@@@Z 10032a04     bncs_client_runtime.obj
 0002:0000ba0c       __ehfuncinfo$?replace@?$QMap@VQString@@VcomplexParam@@@@QAE?AV?$QMapIterator@VQString@@VcomplexParam@@@@ABVQString@@ABVcomplexParam@@@Z 10032a0c     bncs_client_runtime.obj
 0002:0000ba30       __unwindtable$?erase@?$QMap@VQString@@VcomplexParam@@@@QAEXABVQString@@@Z 10032a30     bncs_client_runtime.obj
 0002:0000ba30       __unwindtable$?remove@?$QMap@VQString@@VcomplexParam@@@@QAEXABVQString@@@Z 10032a30     bncs_client_runtime.obj
 0002:0000ba48       __ehfuncinfo$?erase@?$QMap@VQString@@VcomplexParam@@@@QAEXABVQString@@@Z 10032a48     bncs_client_runtime.obj
 0002:0000ba48       __ehfuncinfo$?remove@?$QMap@VQString@@VcomplexParam@@@@QAEXABVQString@@@Z 10032a48     bncs_client_runtime.obj
 0002:0000ba6c       __unwindtable$??A?$QMap@VQString@@VcomplexParam@@@@QAEAAVcomplexParam@@ABVQString@@@Z 10032a6c     bncs_client_runtime.obj
 0002:0000ba7c       __ehfuncinfo$??A?$QMap@VQString@@VcomplexParam@@@@QAEAAVcomplexParam@@ABVQString@@@Z 10032a7c     bncs_client_runtime.obj
 0002:0000baa0       __unwindtable$?erase@?$QMap@VQString@@VcomplexParam@@@@QAEXV?$QMapIterator@VQString@@VcomplexParam@@@@@Z 10032aa0     bncs_client_runtime.obj
 0002:0000baa0       __unwindtable$?remove@?$QMap@VQString@@VcomplexParam@@@@QAEXV?$QMapIterator@VQString@@VcomplexParam@@@@@Z 10032aa0     bncs_client_runtime.obj
 0002:0000bab0       __ehfuncinfo$?remove@?$QMap@VQString@@VcomplexParam@@@@QAEXV?$QMapIterator@VQString@@VcomplexParam@@@@@Z 10032ab0     bncs_client_runtime.obj
 0002:0000bab0       __ehfuncinfo$?erase@?$QMap@VQString@@VcomplexParam@@@@QAEXV?$QMapIterator@VQString@@VcomplexParam@@@@@Z 10032ab0     bncs_client_runtime.obj
 0002:0000bad4       __unwindtable$?remove@?$QMap@VQString@@VcomplexInstance@@@@QAEXV?$QMapIterator@VQString@@VcomplexInstance@@@@@Z 10032ad4     bncs_client_runtime.obj
 0002:0000bad4       __unwindtable$?erase@?$QMap@VQString@@VcomplexInstance@@@@QAEXV?$QMapIterator@VQString@@VcomplexInstance@@@@@Z 10032ad4     bncs_client_runtime.obj
 0002:0000bae4       __ehfuncinfo$?erase@?$QMap@VQString@@VcomplexInstance@@@@QAEXV?$QMapIterator@VQString@@VcomplexInstance@@@@@Z 10032ae4     bncs_client_runtime.obj
 0002:0000bae4       __ehfuncinfo$?remove@?$QMap@VQString@@VcomplexInstance@@@@QAEXV?$QMapIterator@VQString@@VcomplexInstance@@@@@Z 10032ae4     bncs_client_runtime.obj
 0002:0000bb08       __unwindtable$?erase@?$QMap@VQString@@VcomplexInstance@@@@QAEXABVQString@@@Z 10032b08     bncs_client_runtime.obj
 0002:0000bb08       __unwindtable$?remove@?$QMap@VQString@@VcomplexInstance@@@@QAEXABVQString@@@Z 10032b08     bncs_client_runtime.obj
 0002:0000bb20       __ehfuncinfo$?remove@?$QMap@VQString@@VcomplexInstance@@@@QAEXABVQString@@@Z 10032b20     bncs_client_runtime.obj
 0002:0000bb20       __ehfuncinfo$?erase@?$QMap@VQString@@VcomplexInstance@@@@QAEXABVQString@@@Z 10032b20     bncs_client_runtime.obj
 0002:0000bb44       __unwindtable$??A?$QMap@VQString@@VcomplexInstance@@@@QAEAAVcomplexInstance@@ABVQString@@@Z 10032b44     bncs_client_runtime.obj
 0002:0000bb5c       __ehfuncinfo$??A?$QMap@VQString@@VcomplexInstance@@@@QAEAAVcomplexInstance@@ABVQString@@@Z 10032b5c     bncs_client_runtime.obj
 0002:0000bb80       __unwindtable$?keys@?$QMap@VQString@@VdeviceTypeInfo@@@@QBE?AV?$QValueList@VQString@@@@XZ 10032b80     bncs_client_runtime.obj
 0002:0000bb80       __unwindtable$?keys@?$QMap@VQString@@VcomplexType@@@@QBE?AV?$QValueList@VQString@@@@XZ 10032b80     bncs_client_runtime.obj
 0002:0000bb80       __unwindtable$?keys@?$QMap@VQString@@VcomplexParam@@@@QBE?AV?$QValueList@VQString@@@@XZ 10032b80     bncs_client_runtime.obj
 0002:0000bb80       __unwindtable$?keys@?$QMap@VQString@@VinstanceInfo@@@@QBE?AV?$QValueList@VQString@@@@XZ 10032b80     bncs_client_runtime.obj
 0002:0000bb80       __unwindtable$?keys@?$QMap@VQString@@VcomplexInstance@@@@QBE?AV?$QValueList@VQString@@@@XZ 10032b80     bncs_client_runtime.obj
 0002:0000bb80       __unwindtable$?keys@?$QMap@VQString@@VparamInfo@@@@QBE?AV?$QValueList@VQString@@@@XZ 10032b80     bncs_client_runtime.obj
 0002:0000bb88       __ehfuncinfo$?keys@?$QMap@VQString@@VcomplexType@@@@QBE?AV?$QValueList@VQString@@@@XZ 10032b88     bncs_client_runtime.obj
 0002:0000bb88       __ehfuncinfo$?keys@?$QMap@VQString@@VparamInfo@@@@QBE?AV?$QValueList@VQString@@@@XZ 10032b88     bncs_client_runtime.obj
 0002:0000bb88       __ehfuncinfo$?keys@?$QMap@VQString@@VcomplexInstance@@@@QBE?AV?$QValueList@VQString@@@@XZ 10032b88     bncs_client_runtime.obj
 0002:0000bb88       __ehfuncinfo$?keys@?$QMap@VQString@@VinstanceInfo@@@@QBE?AV?$QValueList@VQString@@@@XZ 10032b88     bncs_client_runtime.obj
 0002:0000bb88       __ehfuncinfo$?keys@?$QMap@VQString@@VcomplexParam@@@@QBE?AV?$QValueList@VQString@@@@XZ 10032b88     bncs_client_runtime.obj
 0002:0000bb88       __ehfuncinfo$?keys@?$QMap@VQString@@VdeviceTypeInfo@@@@QBE?AV?$QValueList@VQString@@@@XZ 10032b88     bncs_client_runtime.obj
 0002:0000bbac       __unwindtable$?values@?$QMap@VQString@@VcomplexParam@@@@QBE?AV?$QValueList@VcomplexParam@@@@XZ 10032bac     bncs_client_runtime.obj
 0002:0000bbac       __unwindtable$?values@?$QMap@VQString@@VparamInfo@@@@QBE?AV?$QValueList@VparamInfo@@@@XZ 10032bac     bncs_client_runtime.obj
 0002:0000bbac       __unwindtable$?values@?$QMap@VQString@@VinstanceInfo@@@@QBE?AV?$QValueList@VinstanceInfo@@@@XZ 10032bac     bncs_client_runtime.obj
 0002:0000bbac       __unwindtable$?values@?$QMap@VQString@@VcomplexType@@@@QBE?AV?$QValueList@VcomplexType@@@@XZ 10032bac     bncs_client_runtime.obj
 0002:0000bbac       __unwindtable$?values@?$QMap@VQString@@VdeviceTypeInfo@@@@QBE?AV?$QValueList@VdeviceTypeInfo@@@@XZ 10032bac     bncs_client_runtime.obj
 0002:0000bbac       __unwindtable$?values@?$QMap@VQString@@VcomplexInstance@@@@QBE?AV?$QValueList@VcomplexInstance@@@@XZ 10032bac     bncs_client_runtime.obj
 0002:0000bbbc       __ehfuncinfo$?values@?$QMap@VQString@@VcomplexParam@@@@QBE?AV?$QValueList@VcomplexParam@@@@XZ 10032bbc     bncs_client_runtime.obj
 0002:0000bbbc       __ehfuncinfo$?values@?$QMap@VQString@@VparamInfo@@@@QBE?AV?$QValueList@VparamInfo@@@@XZ 10032bbc     bncs_client_runtime.obj
 0002:0000bbbc       __ehfuncinfo$?values@?$QMap@VQString@@VcomplexType@@@@QBE?AV?$QValueList@VcomplexType@@@@XZ 10032bbc     bncs_client_runtime.obj
 0002:0000bbbc       __ehfuncinfo$?values@?$QMap@VQString@@VdeviceTypeInfo@@@@QBE?AV?$QValueList@VdeviceTypeInfo@@@@XZ 10032bbc     bncs_client_runtime.obj
 0002:0000bbbc       __ehfuncinfo$?values@?$QMap@VQString@@VcomplexInstance@@@@QBE?AV?$QValueList@VcomplexInstance@@@@XZ 10032bbc     bncs_client_runtime.obj
 0002:0000bbbc       __ehfuncinfo$?values@?$QMap@VQString@@VinstanceInfo@@@@QBE?AV?$QValueList@VinstanceInfo@@@@XZ 10032bbc     bncs_client_runtime.obj
 0002:0000bbe0       __unwindtable$?detachInternal@?$QMap@VQString@@VdeviceTypeInfo@@@@AAEXXZ 10032be0     bncs_client_runtime.obj
 0002:0000bbe0       __unwindtable$??0?$QMap@VQString@@VcomplexType@@@@QAE@XZ 10032be0     bncs_client_runtime.obj
 0002:0000bbe0       __unwindtable$?begin@?$QMap@VQString@@VcomplexType@@@@QAE?AV?$QMapIterator@VQString@@VcomplexType@@@@XZ 10032be0     bncs_client_runtime.obj
 0002:0000bbe0       __unwindtable$?detach@?$QMap@VQString@@VdeviceTypeInfo@@@@IAEXXZ 10032be0     bncs_client_runtime.obj
 0002:0000bbe0       __unwindtable$?find@?$QMap@VQString@@VinstanceInfo@@@@QAE?AV?$QMapIterator@VQString@@VinstanceInfo@@@@ABVQString@@@Z 10032be0     bncs_client_runtime.obj
 0002:0000bbe0       __unwindtable$?detach@?$QMap@VQString@@VinstanceInfo@@@@IAEXXZ 10032be0     bncs_client_runtime.obj
 0002:0000bbe0       __unwindtable$?detachInternal@?$QMap@VQString@@VinstanceInfo@@@@AAEXXZ 10032be0     bncs_client_runtime.obj
 0002:0000bbe0       __unwindtable$?end@?$QMap@VQString@@VcomplexType@@@@QAE?AV?$QMapIterator@VQString@@VcomplexType@@@@XZ 10032be0     bncs_client_runtime.obj
 0002:0000bbe0       __unwindtable$?end@?$QMap@VQString@@VinstanceInfo@@@@QAE?AV?$QMapIterator@VQString@@VinstanceInfo@@@@XZ 10032be0     bncs_client_runtime.obj
 0002:0000bbe0       __unwindtable$?end@?$QMap@VQString@@VparamInfo@@@@QAE?AV?$QMapIterator@VQString@@VparamInfo@@@@XZ 10032be0     bncs_client_runtime.obj
 0002:0000bbe0       __unwindtable$?find@?$QMap@VQString@@VparamInfo@@@@QAE?AV?$QMapIterator@VQString@@VparamInfo@@@@ABVQString@@@Z 10032be0     bncs_client_runtime.obj
 0002:0000bbe0       __unwindtable$?find@?$QMap@VQString@@VcomplexType@@@@QAE?AV?$QMapIterator@VQString@@VcomplexType@@@@ABVQString@@@Z 10032be0     bncs_client_runtime.obj
 0002:0000bbe0       __unwindtable$?end@?$QMap@VQString@@VdeviceTypeInfo@@@@QAE?AV?$QMapIterator@VQString@@VdeviceTypeInfo@@@@XZ 10032be0     bncs_client_runtime.obj
 0002:0000bbe0       __unwindtable$?begin@?$QMap@VQString@@VdeviceTypeInfo@@@@QAE?AV?$QMapIterator@VQString@@VdeviceTypeInfo@@@@XZ 10032be0     bncs_client_runtime.obj
 0002:0000bbe0       __unwindtable$?begin@?$QMap@VQString@@VinstanceInfo@@@@QAE?AV?$QMapIterator@VQString@@VinstanceInfo@@@@XZ 10032be0     bncs_client_runtime.obj
 0002:0000bbe0       __unwindtable$??0?$QMap@VQString@@VinstanceInfo@@@@QAE@XZ 10032be0     bncs_client_runtime.obj
 0002:0000bbe0       __unwindtable$?detach@?$QMap@VQString@@VcomplexType@@@@IAEXXZ 10032be0     bncs_client_runtime.obj
 0002:0000bbe0       __unwindtable$?detachInternal@?$QMap@VQString@@VcomplexType@@@@AAEXXZ 10032be0     bncs_client_runtime.obj
 0002:0000bbe0       __unwindtable$??0?$QMap@VQString@@VparamInfo@@@@QAE@XZ 10032be0     bncs_client_runtime.obj
 0002:0000bbe0       __unwindtable$?find@?$QMap@VQString@@VcomplexInstance@@@@QAE?AV?$QMapIterator@VQString@@VcomplexInstance@@@@ABVQString@@@Z 10032be0     bncs_client_runtime.obj
 0002:0000bbe0       __unwindtable$?detach@?$QMap@VQString@@VcomplexInstance@@@@IAEXXZ 10032be0     bncs_client_runtime.obj
 0002:0000bbe0       __unwindtable$?detachInternal@?$QMap@VQString@@VcomplexInstance@@@@AAEXXZ 10032be0     bncs_client_runtime.obj
 0002:0000bbe0       __unwindtable$?detach@?$QMap@VQString@@VparamInfo@@@@IAEXXZ 10032be0     bncs_client_runtime.obj
 0002:0000bbe0       __unwindtable$?detachInternal@?$QMap@VQString@@VparamInfo@@@@AAEXXZ 10032be0     bncs_client_runtime.obj
 0002:0000bbe0       __unwindtable$??0?$QMap@VQString@@VcomplexParam@@@@QAE@XZ 10032be0     bncs_client_runtime.obj
 0002:0000bbe0       __unwindtable$?begin@?$QMap@VQString@@VcomplexParam@@@@QAE?AV?$QMapIterator@VQString@@VcomplexParam@@@@XZ 10032be0     bncs_client_runtime.obj
 0002:0000bbe0       __unwindtable$?end@?$QMap@VQString@@VcomplexParam@@@@QAE?AV?$QMapIterator@VQString@@VcomplexParam@@@@XZ 10032be0     bncs_client_runtime.obj
 0002:0000bbe0       __unwindtable$?begin@?$QMap@VQString@@VparamInfo@@@@QAE?AV?$QMapIterator@VQString@@VparamInfo@@@@XZ 10032be0     bncs_client_runtime.obj
 0002:0000bbe0       __unwindtable$?detach@?$QMap@VQString@@VcomplexParam@@@@IAEXXZ 10032be0     bncs_client_runtime.obj
 0002:0000bbe0       __unwindtable$?detachInternal@?$QMap@VQString@@VcomplexParam@@@@AAEXXZ 10032be0     bncs_client_runtime.obj
 0002:0000bbe0       __unwindtable$??0?$QMap@VQString@@VcomplexInstance@@@@QAE@XZ 10032be0     bncs_client_runtime.obj
 0002:0000bbe0       __unwindtable$?find@?$QMap@VQString@@VdeviceTypeInfo@@@@QAE?AV?$QMapIterator@VQString@@VdeviceTypeInfo@@@@ABVQString@@@Z 10032be0     bncs_client_runtime.obj
 0002:0000bbe0       __unwindtable$?begin@?$QMap@VQString@@VcomplexInstance@@@@QAE?AV?$QMapIterator@VQString@@VcomplexInstance@@@@XZ 10032be0     bncs_client_runtime.obj
 0002:0000bbe0       __unwindtable$?end@?$QMap@VQString@@VcomplexInstance@@@@QAE?AV?$QMapIterator@VQString@@VcomplexInstance@@@@XZ 10032be0     bncs_client_runtime.obj
 0002:0000bbe0       __unwindtable$?find@?$QMap@VQString@@VcomplexParam@@@@QAE?AV?$QMapIterator@VQString@@VcomplexParam@@@@ABVQString@@@Z 10032be0     bncs_client_runtime.obj
 0002:0000bbe0       __unwindtable$??0?$QMap@VQString@@VdeviceTypeInfo@@@@QAE@XZ 10032be0     bncs_client_runtime.obj
 0002:0000bbe8       __ehfuncinfo$?detach@?$QMap@VQString@@VparamInfo@@@@IAEXXZ 10032be8     bncs_client_runtime.obj
 0002:0000bbe8       __ehfuncinfo$?detachInternal@?$QMap@VQString@@VparamInfo@@@@AAEXXZ 10032be8     bncs_client_runtime.obj
 0002:0000bbe8       __ehfuncinfo$??0?$QMap@VQString@@VcomplexParam@@@@QAE@XZ 10032be8     bncs_client_runtime.obj
 0002:0000bbe8       __ehfuncinfo$?begin@?$QMap@VQString@@VcomplexParam@@@@QAE?AV?$QMapIterator@VQString@@VcomplexParam@@@@XZ 10032be8     bncs_client_runtime.obj
 0002:0000bbe8       __ehfuncinfo$?end@?$QMap@VQString@@VcomplexParam@@@@QAE?AV?$QMapIterator@VQString@@VcomplexParam@@@@XZ 10032be8     bncs_client_runtime.obj
 0002:0000bbe8       __ehfuncinfo$?begin@?$QMap@VQString@@VcomplexType@@@@QAE?AV?$QMapIterator@VQString@@VcomplexType@@@@XZ 10032be8     bncs_client_runtime.obj
 0002:0000bbe8       __ehfuncinfo$?detach@?$QMap@VQString@@VinstanceInfo@@@@IAEXXZ 10032be8     bncs_client_runtime.obj
 0002:0000bbe8       __ehfuncinfo$?find@?$QMap@VQString@@VcomplexParam@@@@QAE?AV?$QMapIterator@VQString@@VcomplexParam@@@@ABVQString@@@Z 10032be8     bncs_client_runtime.obj
 0002:0000bbe8       __ehfuncinfo$?end@?$QMap@VQString@@VcomplexType@@@@QAE?AV?$QMapIterator@VQString@@VcomplexType@@@@XZ 10032be8     bncs_client_runtime.obj
 0002:0000bbe8       __ehfuncinfo$?find@?$QMap@VQString@@VparamInfo@@@@QAE?AV?$QMapIterator@VQString@@VparamInfo@@@@ABVQString@@@Z 10032be8     bncs_client_runtime.obj
 0002:0000bbe8       __ehfuncinfo$?detach@?$QMap@VQString@@VcomplexParam@@@@IAEXXZ 10032be8     bncs_client_runtime.obj
 0002:0000bbe8       __ehfuncinfo$?detachInternal@?$QMap@VQString@@VcomplexParam@@@@AAEXXZ 10032be8     bncs_client_runtime.obj
 0002:0000bbe8       __ehfuncinfo$??0?$QMap@VQString@@VcomplexInstance@@@@QAE@XZ 10032be8     bncs_client_runtime.obj
 0002:0000bbe8       __ehfuncinfo$??0?$QMap@VQString@@VparamInfo@@@@QAE@XZ 10032be8     bncs_client_runtime.obj
 0002:0000bbe8       __ehfuncinfo$?begin@?$QMap@VQString@@VparamInfo@@@@QAE?AV?$QMapIterator@VQString@@VparamInfo@@@@XZ 10032be8     bncs_client_runtime.obj
 0002:0000bbe8       __ehfuncinfo$?begin@?$QMap@VQString@@VcomplexInstance@@@@QAE?AV?$QMapIterator@VQString@@VcomplexInstance@@@@XZ 10032be8     bncs_client_runtime.obj
 0002:0000bbe8       __ehfuncinfo$?end@?$QMap@VQString@@VcomplexInstance@@@@QAE?AV?$QMapIterator@VQString@@VcomplexInstance@@@@XZ 10032be8     bncs_client_runtime.obj
 0002:0000bbe8       __ehfuncinfo$?end@?$QMap@VQString@@VparamInfo@@@@QAE?AV?$QMapIterator@VQString@@VparamInfo@@@@XZ 10032be8     bncs_client_runtime.obj
 0002:0000bbe8       __ehfuncinfo$??0?$QMap@VQString@@VcomplexType@@@@QAE@XZ 10032be8     bncs_client_runtime.obj
 0002:0000bbe8       __ehfuncinfo$?detachInternal@?$QMap@VQString@@VinstanceInfo@@@@AAEXXZ 10032be8     bncs_client_runtime.obj
 0002:0000bbe8       __ehfuncinfo$??0?$QMap@VQString@@VdeviceTypeInfo@@@@QAE@XZ 10032be8     bncs_client_runtime.obj
 0002:0000bbe8       __ehfuncinfo$?find@?$QMap@VQString@@VcomplexType@@@@QAE?AV?$QMapIterator@VQString@@VcomplexType@@@@ABVQString@@@Z 10032be8     bncs_client_runtime.obj
 0002:0000bbe8       __ehfuncinfo$?find@?$QMap@VQString@@VcomplexInstance@@@@QAE?AV?$QMapIterator@VQString@@VcomplexInstance@@@@ABVQString@@@Z 10032be8     bncs_client_runtime.obj
 0002:0000bbe8       __ehfuncinfo$?detachInternal@?$QMap@VQString@@VdeviceTypeInfo@@@@AAEXXZ 10032be8     bncs_client_runtime.obj
 0002:0000bbe8       __ehfuncinfo$?detach@?$QMap@VQString@@VdeviceTypeInfo@@@@IAEXXZ 10032be8     bncs_client_runtime.obj
 0002:0000bbe8       __ehfuncinfo$?detach@?$QMap@VQString@@VcomplexInstance@@@@IAEXXZ 10032be8     bncs_client_runtime.obj
 0002:0000bbe8       __ehfuncinfo$?detachInternal@?$QMap@VQString@@VcomplexInstance@@@@AAEXXZ 10032be8     bncs_client_runtime.obj
 0002:0000bbe8       __ehfuncinfo$??0?$QMap@VQString@@VinstanceInfo@@@@QAE@XZ 10032be8     bncs_client_runtime.obj
 0002:0000bbe8       __ehfuncinfo$?begin@?$QMap@VQString@@VinstanceInfo@@@@QAE?AV?$QMapIterator@VQString@@VinstanceInfo@@@@XZ 10032be8     bncs_client_runtime.obj
 0002:0000bbe8       __ehfuncinfo$?end@?$QMap@VQString@@VinstanceInfo@@@@QAE?AV?$QMapIterator@VQString@@VinstanceInfo@@@@XZ 10032be8     bncs_client_runtime.obj
 0002:0000bbe8       __ehfuncinfo$?detach@?$QMap@VQString@@VcomplexType@@@@IAEXXZ 10032be8     bncs_client_runtime.obj
 0002:0000bbe8       __ehfuncinfo$?detachInternal@?$QMap@VQString@@VcomplexType@@@@AAEXXZ 10032be8     bncs_client_runtime.obj
 0002:0000bbe8       __ehfuncinfo$?find@?$QMap@VQString@@VdeviceTypeInfo@@@@QAE?AV?$QMapIterator@VQString@@VdeviceTypeInfo@@@@ABVQString@@@Z 10032be8     bncs_client_runtime.obj
 0002:0000bbe8       __ehfuncinfo$?find@?$QMap@VQString@@VinstanceInfo@@@@QAE?AV?$QMapIterator@VQString@@VinstanceInfo@@@@ABVQString@@@Z 10032be8     bncs_client_runtime.obj
 0002:0000bbe8       __ehfuncinfo$?end@?$QMap@VQString@@VdeviceTypeInfo@@@@QAE?AV?$QMapIterator@VQString@@VdeviceTypeInfo@@@@XZ 10032be8     bncs_client_runtime.obj
 0002:0000bbe8       __ehfuncinfo$?begin@?$QMap@VQString@@VdeviceTypeInfo@@@@QAE?AV?$QMapIterator@VQString@@VdeviceTypeInfo@@@@XZ 10032be8     bncs_client_runtime.obj
 0002:0000bc0c       __unwindtable$?erase@?$QMap@VQString@@VinstanceInfo@@@@QAEXABVQString@@@Z 10032c0c     bncs_client_runtime.obj
 0002:0000bc0c       __unwindtable$?remove@?$QMap@VQString@@VinstanceInfo@@@@QAEXABVQString@@@Z 10032c0c     bncs_client_runtime.obj
 0002:0000bc24       __ehfuncinfo$?remove@?$QMap@VQString@@VinstanceInfo@@@@QAEXABVQString@@@Z 10032c24     bncs_client_runtime.obj
 0002:0000bc24       __ehfuncinfo$?erase@?$QMap@VQString@@VinstanceInfo@@@@QAEXABVQString@@@Z 10032c24     bncs_client_runtime.obj
 0002:0000bc48       __unwindtable$??A?$QMap@VQString@@VinstanceInfo@@@@QAEAAVinstanceInfo@@ABVQString@@@Z 10032c48     bncs_client_runtime.obj
 0002:0000bc60       __ehfuncinfo$??A?$QMap@VQString@@VinstanceInfo@@@@QAEAAVinstanceInfo@@ABVQString@@@Z 10032c60     bncs_client_runtime.obj
 0002:0000bc84       __unwindtable$?insert@?$QMap@VQString@@VinstanceInfo@@@@QAE?AV?$QMapIterator@VQString@@VinstanceInfo@@@@ABVQString@@ABVinstanceInfo@@_N@Z 10032c84     bncs_client_runtime.obj
 0002:0000bc84       __unwindtable$?insert@?$QMap@VQString@@VcomplexParam@@@@QAE?AU?$QPair@V?$QMapIterator@VQString@@VcomplexParam@@@@_N@@ABU?$QPair@$$CBVQString@@VcomplexParam@@@@@Z 10032c84     bncs_client_runtime.obj
 0002:0000bc84       __unwindtable$?insert@?$QMap@VQString@@VdeviceTypeInfo@@@@QAE?AU?$QPair@V?$QMapIterator@VQString@@VdeviceTypeInfo@@@@_N@@ABU?$QPair@$$CBVQString@@VdeviceTypeInfo@@@@@Z 10032c84     bncs_client_runtime.obj
 0002:0000bc84       __unwindtable$?insert@?$QMap@VQString@@VparamInfo@@@@QAE?AV?$QMapIterator@VQString@@VparamInfo@@@@ABVQString@@ABVparamInfo@@_N@Z 10032c84     bncs_client_runtime.obj
 0002:0000bc84       __unwindtable$?insert@?$QMap@VQString@@VparamInfo@@@@QAE?AU?$QPair@V?$QMapIterator@VQString@@VparamInfo@@@@_N@@ABU?$QPair@$$CBVQString@@VparamInfo@@@@@Z 10032c84     bncs_client_runtime.obj
 0002:0000bc84       __unwindtable$?insert@?$QMap@VQString@@VcomplexInstance@@@@QAE?AU?$QPair@V?$QMapIterator@VQString@@VcomplexInstance@@@@_N@@ABU?$QPair@$$CBVQString@@VcomplexInstance@@@@@Z 10032c84     bncs_client_runtime.obj
 0002:0000bc84       __unwindtable$?insert@?$QMap@VQString@@VdeviceTypeInfo@@@@QAE?AV?$QMapIterator@VQString@@VdeviceTypeInfo@@@@ABVQString@@ABVdeviceTypeInfo@@_N@Z 10032c84     bncs_client_runtime.obj
 0002:0000bc84       __unwindtable$?insert@?$QMap@VQString@@VcomplexType@@@@QAE?AU?$QPair@V?$QMapIterator@VQString@@VcomplexType@@@@_N@@ABU?$QPair@$$CBVQString@@VcomplexType@@@@@Z 10032c84     bncs_client_runtime.obj
 0002:0000bc84       __unwindtable$?insert@?$QMap@VQString@@VinstanceInfo@@@@QAE?AU?$QPair@V?$QMapIterator@VQString@@VinstanceInfo@@@@_N@@ABU?$QPair@$$CBVQString@@VinstanceInfo@@@@@Z 10032c84     bncs_client_runtime.obj
 0002:0000bc84       __unwindtable$?insert@?$QMap@VQString@@VcomplexType@@@@QAE?AV?$QMapIterator@VQString@@VcomplexType@@@@ABVQString@@ABVcomplexType@@_N@Z 10032c84     bncs_client_runtime.obj
 0002:0000bc84       __unwindtable$?insert@?$QMap@VQString@@VcomplexParam@@@@QAE?AV?$QMapIterator@VQString@@VcomplexParam@@@@ABVQString@@ABVcomplexParam@@_N@Z 10032c84     bncs_client_runtime.obj
 0002:0000bc84       __unwindtable$?insert@?$QMap@VQString@@VcomplexInstance@@@@QAE?AV?$QMapIterator@VQString@@VcomplexInstance@@@@ABVQString@@ABVcomplexInstance@@_N@Z 10032c84     bncs_client_runtime.obj
 0002:0000bc8c       __ehfuncinfo$?insert@?$QMap@VQString@@VcomplexInstance@@@@QAE?AU?$QPair@V?$QMapIterator@VQString@@VcomplexInstance@@@@_N@@ABU?$QPair@$$CBVQString@@VcomplexInstance@@@@@Z 10032c8c     bncs_client_runtime.obj
 0002:0000bc8c       __ehfuncinfo$?insert@?$QMap@VQString@@VcomplexType@@@@QAE?AU?$QPair@V?$QMapIterator@VQString@@VcomplexType@@@@_N@@ABU?$QPair@$$CBVQString@@VcomplexType@@@@@Z 10032c8c     bncs_client_runtime.obj
 0002:0000bc8c       __ehfuncinfo$?insert@?$QMap@VQString@@VparamInfo@@@@QAE?AU?$QPair@V?$QMapIterator@VQString@@VparamInfo@@@@_N@@ABU?$QPair@$$CBVQString@@VparamInfo@@@@@Z 10032c8c     bncs_client_runtime.obj
 0002:0000bc8c       __ehfuncinfo$?insert@?$QMap@VQString@@VdeviceTypeInfo@@@@QAE?AU?$QPair@V?$QMapIterator@VQString@@VdeviceTypeInfo@@@@_N@@ABU?$QPair@$$CBVQString@@VdeviceTypeInfo@@@@@Z 10032c8c     bncs_client_runtime.obj
 0002:0000bc8c       __ehfuncinfo$?insert@?$QMap@VQString@@VinstanceInfo@@@@QAE?AV?$QMapIterator@VQString@@VinstanceInfo@@@@ABVQString@@ABVinstanceInfo@@_N@Z 10032c8c     bncs_client_runtime.obj
 0002:0000bc8c       __ehfuncinfo$?insert@?$QMap@VQString@@VcomplexParam@@@@QAE?AV?$QMapIterator@VQString@@VcomplexParam@@@@ABVQString@@ABVcomplexParam@@_N@Z 10032c8c     bncs_client_runtime.obj
 0002:0000bc8c       __ehfuncinfo$?insert@?$QMap@VQString@@VcomplexInstance@@@@QAE?AV?$QMapIterator@VQString@@VcomplexInstance@@@@ABVQString@@ABVcomplexInstance@@_N@Z 10032c8c     bncs_client_runtime.obj
 0002:0000bc8c       __ehfuncinfo$?insert@?$QMap@VQString@@VdeviceTypeInfo@@@@QAE?AV?$QMapIterator@VQString@@VdeviceTypeInfo@@@@ABVQString@@ABVdeviceTypeInfo@@_N@Z 10032c8c     bncs_client_runtime.obj
 0002:0000bc8c       __ehfuncinfo$?insert@?$QMap@VQString@@VcomplexParam@@@@QAE?AU?$QPair@V?$QMapIterator@VQString@@VcomplexParam@@@@_N@@ABU?$QPair@$$CBVQString@@VcomplexParam@@@@@Z 10032c8c     bncs_client_runtime.obj
 0002:0000bc8c       __ehfuncinfo$?insert@?$QMap@VQString@@VcomplexType@@@@QAE?AV?$QMapIterator@VQString@@VcomplexType@@@@ABVQString@@ABVcomplexType@@_N@Z 10032c8c     bncs_client_runtime.obj
 0002:0000bc8c       __ehfuncinfo$?insert@?$QMap@VQString@@VinstanceInfo@@@@QAE?AU?$QPair@V?$QMapIterator@VQString@@VinstanceInfo@@@@_N@@ABU?$QPair@$$CBVQString@@VinstanceInfo@@@@@Z 10032c8c     bncs_client_runtime.obj
 0002:0000bc8c       __ehfuncinfo$?insert@?$QMap@VQString@@VparamInfo@@@@QAE?AV?$QMapIterator@VQString@@VparamInfo@@@@ABVQString@@ABVparamInfo@@_N@Z 10032c8c     bncs_client_runtime.obj
 0002:0000bcb0       __unwindtable$?remove@?$QMap@VQString@@VinstanceInfo@@@@QAEXV?$QMapIterator@VQString@@VinstanceInfo@@@@@Z 10032cb0     bncs_client_runtime.obj
 0002:0000bcb0       __unwindtable$?erase@?$QMap@VQString@@VinstanceInfo@@@@QAEXV?$QMapIterator@VQString@@VinstanceInfo@@@@@Z 10032cb0     bncs_client_runtime.obj
 0002:0000bcc0       __ehfuncinfo$?remove@?$QMap@VQString@@VinstanceInfo@@@@QAEXV?$QMapIterator@VQString@@VinstanceInfo@@@@@Z 10032cc0     bncs_client_runtime.obj
 0002:0000bcc0       __ehfuncinfo$?erase@?$QMap@VQString@@VinstanceInfo@@@@QAEXV?$QMapIterator@VQString@@VinstanceInfo@@@@@Z 10032cc0     bncs_client_runtime.obj
 0002:0000bce4       __unwindtable$?remove@?$QMap@VQString@@VdeviceTypeInfo@@@@QAEXABVQString@@@Z 10032ce4     bncs_client_runtime.obj
 0002:0000bce4       __unwindtable$?erase@?$QMap@VQString@@VdeviceTypeInfo@@@@QAEXABVQString@@@Z 10032ce4     bncs_client_runtime.obj
 0002:0000bcfc       __ehfuncinfo$?erase@?$QMap@VQString@@VdeviceTypeInfo@@@@QAEXABVQString@@@Z 10032cfc     bncs_client_runtime.obj
 0002:0000bcfc       __ehfuncinfo$?remove@?$QMap@VQString@@VdeviceTypeInfo@@@@QAEXABVQString@@@Z 10032cfc     bncs_client_runtime.obj
 0002:0000bd20       __unwindtable$??A?$QMap@VQString@@VdeviceTypeInfo@@@@QAEAAVdeviceTypeInfo@@ABVQString@@@Z 10032d20     bncs_client_runtime.obj
 0002:0000bd38       __ehfuncinfo$??A?$QMap@VQString@@VdeviceTypeInfo@@@@QAEAAVdeviceTypeInfo@@ABVQString@@@Z 10032d38     bncs_client_runtime.obj
 0002:0000bd5c       __unwindtable$?remove@?$QMap@VQString@@VdeviceTypeInfo@@@@QAEXV?$QMapIterator@VQString@@VdeviceTypeInfo@@@@@Z 10032d5c     bncs_client_runtime.obj
 0002:0000bd5c       __unwindtable$?erase@?$QMap@VQString@@VdeviceTypeInfo@@@@QAEXV?$QMapIterator@VQString@@VdeviceTypeInfo@@@@@Z 10032d5c     bncs_client_runtime.obj
 0002:0000bd6c       __ehfuncinfo$?remove@?$QMap@VQString@@VdeviceTypeInfo@@@@QAEXV?$QMapIterator@VQString@@VdeviceTypeInfo@@@@@Z 10032d6c     bncs_client_runtime.obj
 0002:0000bd6c       __ehfuncinfo$?erase@?$QMap@VQString@@VdeviceTypeInfo@@@@QAEXV?$QMapIterator@VQString@@VdeviceTypeInfo@@@@@Z 10032d6c     bncs_client_runtime.obj
 0002:0000bd90       __unwindtable$?replace@?$QMap@VQString@@VinstanceInfo@@@@QAE?AV?$QMapIterator@VQString@@VinstanceInfo@@@@ABVQString@@ABVinstanceInfo@@@Z 10032d90     bncs_client_runtime.obj
 0002:0000bd90       __unwindtable$?replace@?$QMap@VQString@@VcomplexInstance@@@@QAE?AV?$QMapIterator@VQString@@VcomplexInstance@@@@ABVQString@@ABVcomplexInstance@@@Z 10032d90     bncs_client_runtime.obj
 0002:0000bd90       __unwindtable$?replace@?$QMap@VQString@@VcomplexType@@@@QAE?AV?$QMapIterator@VQString@@VcomplexType@@@@ABVQString@@ABVcomplexType@@@Z 10032d90     bncs_client_runtime.obj
 0002:0000bd90       __unwindtable$?replace@?$QMap@VQString@@VparamInfo@@@@QAE?AV?$QMapIterator@VQString@@VparamInfo@@@@ABVQString@@ABVparamInfo@@@Z 10032d90     bncs_client_runtime.obj
 0002:0000bd90       __unwindtable$?replace@?$QMap@VQString@@VdeviceTypeInfo@@@@QAE?AV?$QMapIterator@VQString@@VdeviceTypeInfo@@@@ABVQString@@ABVdeviceTypeInfo@@@Z 10032d90     bncs_client_runtime.obj
 0002:0000bd98       __ehfuncinfo$?replace@?$QMap@VQString@@VcomplexType@@@@QAE?AV?$QMapIterator@VQString@@VcomplexType@@@@ABVQString@@ABVcomplexType@@@Z 10032d98     bncs_client_runtime.obj
 0002:0000bd98       __ehfuncinfo$?replace@?$QMap@VQString@@VdeviceTypeInfo@@@@QAE?AV?$QMapIterator@VQString@@VdeviceTypeInfo@@@@ABVQString@@ABVdeviceTypeInfo@@@Z 10032d98     bncs_client_runtime.obj
 0002:0000bd98       __ehfuncinfo$?replace@?$QMap@VQString@@VinstanceInfo@@@@QAE?AV?$QMapIterator@VQString@@VinstanceInfo@@@@ABVQString@@ABVinstanceInfo@@@Z 10032d98     bncs_client_runtime.obj
 0002:0000bd98       __ehfuncinfo$?replace@?$QMap@VQString@@VparamInfo@@@@QAE?AV?$QMapIterator@VQString@@VparamInfo@@@@ABVQString@@ABVparamInfo@@@Z 10032d98     bncs_client_runtime.obj
 0002:0000bd98       __ehfuncinfo$?replace@?$QMap@VQString@@VcomplexInstance@@@@QAE?AV?$QMapIterator@VQString@@VcomplexInstance@@@@ABVQString@@ABVcomplexInstance@@@Z 10032d98     bncs_client_runtime.obj
 0002:0000bdbc       __unwindtable$?erase@?$QMap@VQString@@VcomplexType@@@@QAEXV?$QMapIterator@VQString@@VcomplexType@@@@@Z 10032dbc     bncs_client_runtime.obj
 0002:0000bdbc       __unwindtable$?remove@?$QMap@VQString@@VcomplexType@@@@QAEXV?$QMapIterator@VQString@@VcomplexType@@@@@Z 10032dbc     bncs_client_runtime.obj
 0002:0000bdcc       __ehfuncinfo$?remove@?$QMap@VQString@@VcomplexType@@@@QAEXV?$QMapIterator@VQString@@VcomplexType@@@@@Z 10032dcc     bncs_client_runtime.obj
 0002:0000bdcc       __ehfuncinfo$?erase@?$QMap@VQString@@VcomplexType@@@@QAEXV?$QMapIterator@VQString@@VcomplexType@@@@@Z 10032dcc     bncs_client_runtime.obj
 0002:0000bdf0       __unwindtable$??A?$QMap@VQString@@VcomplexType@@@@QAEAAVcomplexType@@ABVQString@@@Z 10032df0     bncs_client_runtime.obj
 0002:0000be08       __ehfuncinfo$??A?$QMap@VQString@@VcomplexType@@@@QAEAAVcomplexType@@ABVQString@@@Z 10032e08     bncs_client_runtime.obj
 0002:0000be2c       __unwindtable$?remove@?$QMap@VQString@@VcomplexType@@@@QAEXABVQString@@@Z 10032e2c     bncs_client_runtime.obj
 0002:0000be2c       __unwindtable$?erase@?$QMap@VQString@@VcomplexType@@@@QAEXABVQString@@@Z 10032e2c     bncs_client_runtime.obj
 0002:0000be44       __ehfuncinfo$?remove@?$QMap@VQString@@VcomplexType@@@@QAEXABVQString@@@Z 10032e44     bncs_client_runtime.obj
 0002:0000be44       __ehfuncinfo$?erase@?$QMap@VQString@@VcomplexType@@@@QAEXABVQString@@@Z 10032e44     bncs_client_runtime.obj
 0002:0000be68       __ehfuncinfo$??0bncs_client_runtime@@QAE@PAVQWidget@@PBDI@Z 10032e68     bncs_client_runtime.obj
 0002:0000be8c       __unwindtable$??0bncs_client_runtime@@QAE@PAVQWidget@@PBDI@Z 10032e8c     bncs_client_runtime.obj
 0002:0000bebc       __ehfuncinfo$??1bncs_client_runtime@@UAE@XZ 10032ebc     bncs_client_runtime.obj
 0002:0000bee0       __unwindtable$??1bncs_client_runtime@@UAE@XZ 10032ee0     bncs_client_runtime.obj
 0002:0000bf30       __ehfuncinfo$?contextMenuEvent@bncs_client_runtime@@UAEXPAVQContextMenuEvent@@@Z 10032f30     bncs_client_runtime.obj
 0002:0000bf54       __unwindtable$?contextMenuEvent@bncs_client_runtime@@UAEXPAVQContextMenuEvent@@@Z 10032f54     bncs_client_runtime.obj
 0002:0000c01c       __unwindtable$?paintEvent@bncs_client_runtime@@UAEXPAVQPaintEvent@@@Z 1003301c     bncs_client_runtime.obj
 0002:0000c02c       __ehfuncinfo$?paintEvent@bncs_client_runtime@@UAEXPAVQPaintEvent@@@Z 1003302c     bncs_client_runtime.obj
 0002:0000c050       __ehfuncinfo$?setCaption@bncs_client_runtime@@UAEXABVQString@@@Z 10033050     bncs_client_runtime.obj
 0002:0000c074       __unwindtable$?setCaption@bncs_client_runtime@@UAEXABVQString@@@Z 10033074     bncs_client_runtime.obj
 0002:0000c0dc       __ehfuncinfo$?connectionTriggerEvent@bncs_client_runtime@@AAEXABVQString@@0@Z 100330dc     bncs_client_runtime.obj
 0002:0000c100       __unwindtable$?connectionTriggerEvent@bncs_client_runtime@@AAEXABVQString@@0@Z 10033100     bncs_client_runtime.obj
 0002:0000c380       __unwindtable$?notifyIn@bncs_client_runtime@@QAEXAAVQString@@@Z 10033380     bncs_client_runtime.obj
 0002:0000c390       __ehfuncinfo$?notifyIn@bncs_client_runtime@@QAEXAAVQString@@@Z 10033390     bncs_client_runtime.obj
 0002:0000c3b4       __unwindtable$?addConnection@bncs_client_runtime@@QAEXABVQString@@0000@Z 100333b4     bncs_client_runtime.obj
 0002:0000c3c4       __ehfuncinfo$?addConnection@bncs_client_runtime@@QAEXABVQString@@0000@Z 100333c4     bncs_client_runtime.obj
 0002:0000c3e8       __unwindtable$?ccTimerCallback@bncs_client_runtime@@MAEXH@Z 100333e8     bncs_client_runtime.obj
 0002:0000c3f8       __ehfuncinfo$?ccTimerCallback@bncs_client_runtime@@MAEXH@Z 100333f8     bncs_client_runtime.obj
 0002:0000c41c       __ehfuncinfo$??0bncs_client_runtime@@QAE@ABV0@@Z 1003341c     bncs_client_runtime.obj
 0002:0000c440       __unwindtable$??0bncs_client_runtime@@QAE@ABV0@@Z 10033440     bncs_client_runtime.obj
 0002:0000c468       __unwindtable$??0?$QMapPrivate@VQString@@VparamInfo@@@@QAE@XZ 10033468     bncs_client_runtime.obj
 0002:0000c478       __ehfuncinfo$??0?$QMapPrivate@VQString@@VparamInfo@@@@QAE@XZ 10033478     bncs_client_runtime.obj
 0002:0000c49c       __unwindtable$??0?$QMapPrivate@VQString@@VparamInfo@@@@QAE@PBV0@@Z 1003349c     bncs_client_runtime.obj
 0002:0000c4ac       __ehfuncinfo$??0?$QMapPrivate@VQString@@VparamInfo@@@@QAE@PBV0@@Z 100334ac     bncs_client_runtime.obj
 0002:0000c4d0       __unwindtable$??1?$QMapPrivate@VQString@@VparamInfo@@@@QAE@XZ 100334d0     bncs_client_runtime.obj
 0002:0000c4d8       __ehfuncinfo$??1?$QMapPrivate@VQString@@VparamInfo@@@@QAE@XZ 100334d8     bncs_client_runtime.obj
 0002:0000c4fc       __unwindtable$?copy@?$QMapPrivate@VQString@@VparamInfo@@@@QAEPAU?$QMapNode@VQString@@VparamInfo@@@@PAU2@@Z 100334fc     bncs_client_runtime.obj
 0002:0000c514       __ehfuncinfo$?copy@?$QMapPrivate@VQString@@VparamInfo@@@@QAEPAU?$QMapNode@VQString@@VparamInfo@@@@PAU2@@Z 10033514     bncs_client_runtime.obj
 0002:0000c538       __unwindtable$?clear@?$QMapPrivate@VQString@@VparamInfo@@@@QAEXPAU?$QMapNode@VQString@@VparamInfo@@@@@Z 10033538     bncs_client_runtime.obj
 0002:0000c540       __ehfuncinfo$?clear@?$QMapPrivate@VQString@@VparamInfo@@@@QAEXPAU?$QMapNode@VQString@@VparamInfo@@@@@Z 10033540     bncs_client_runtime.obj
 0002:0000c564       __unwindtable$?insert@?$QMapPrivate@VQString@@VparamInfo@@@@QAE?AV?$QMapIterator@VQString@@VparamInfo@@@@PAUQMapNodeBase@@0ABVQString@@@Z 10033564     bncs_client_runtime.obj
 0002:0000c57c       __ehfuncinfo$?insert@?$QMapPrivate@VQString@@VparamInfo@@@@QAE?AV?$QMapIterator@VQString@@VparamInfo@@@@PAUQMapNodeBase@@0ABVQString@@@Z 1003357c     bncs_client_runtime.obj
 0002:0000c5a0       __unwindtable$??0?$QMapPrivate@VQString@@VcomplexParam@@@@QAE@XZ 100335a0     bncs_client_runtime.obj
 0002:0000c5b0       __ehfuncinfo$??0?$QMapPrivate@VQString@@VcomplexParam@@@@QAE@XZ 100335b0     bncs_client_runtime.obj
 0002:0000c5d4       __unwindtable$??0?$QMapPrivate@VQString@@VcomplexParam@@@@QAE@PBV0@@Z 100335d4     bncs_client_runtime.obj
 0002:0000c5e4       __ehfuncinfo$??0?$QMapPrivate@VQString@@VcomplexParam@@@@QAE@PBV0@@Z 100335e4     bncs_client_runtime.obj
 0002:0000c608       __unwindtable$??1?$QMapPrivate@VQString@@VcomplexParam@@@@QAE@XZ 10033608     bncs_client_runtime.obj
 0002:0000c610       __ehfuncinfo$??1?$QMapPrivate@VQString@@VcomplexParam@@@@QAE@XZ 10033610     bncs_client_runtime.obj
 0002:0000c634       __unwindtable$?copy@?$QMapPrivate@VQString@@VcomplexInstance@@@@QAEPAU?$QMapNode@VQString@@VcomplexInstance@@@@PAU2@@Z 10033634     bncs_client_runtime.obj
 0002:0000c634       __unwindtable$?copy@?$QMapPrivate@VQString@@VinstanceInfo@@@@QAEPAU?$QMapNode@VQString@@VinstanceInfo@@@@PAU2@@Z 10033634     bncs_client_runtime.obj
 0002:0000c634       __unwindtable$?copy@?$QMapPrivate@VQString@@VdeviceTypeInfo@@@@QAEPAU?$QMapNode@VQString@@VdeviceTypeInfo@@@@PAU2@@Z 10033634     bncs_client_runtime.obj
 0002:0000c634       __unwindtable$?copy@?$QMapPrivate@VQString@@VcomplexType@@@@QAEPAU?$QMapNode@VQString@@VcomplexType@@@@PAU2@@Z 10033634     bncs_client_runtime.obj
 0002:0000c634       __unwindtable$?copy@?$QMapPrivate@VQString@@VcomplexParam@@@@QAEPAU?$QMapNode@VQString@@VcomplexParam@@@@PAU2@@Z 10033634     bncs_client_runtime.obj
 0002:0000c63c       __ehfuncinfo$?copy@?$QMapPrivate@VQString@@VcomplexParam@@@@QAEPAU?$QMapNode@VQString@@VcomplexParam@@@@PAU2@@Z 1003363c     bncs_client_runtime.obj
 0002:0000c63c       __ehfuncinfo$?copy@?$QMapPrivate@VQString@@VcomplexInstance@@@@QAEPAU?$QMapNode@VQString@@VcomplexInstance@@@@PAU2@@Z 1003363c     bncs_client_runtime.obj
 0002:0000c63c       __ehfuncinfo$?copy@?$QMapPrivate@VQString@@VinstanceInfo@@@@QAEPAU?$QMapNode@VQString@@VinstanceInfo@@@@PAU2@@Z 1003363c     bncs_client_runtime.obj
 0002:0000c63c       __ehfuncinfo$?copy@?$QMapPrivate@VQString@@VdeviceTypeInfo@@@@QAEPAU?$QMapNode@VQString@@VdeviceTypeInfo@@@@PAU2@@Z 1003363c     bncs_client_runtime.obj
 0002:0000c63c       __ehfuncinfo$?copy@?$QMapPrivate@VQString@@VcomplexType@@@@QAEPAU?$QMapNode@VQString@@VcomplexType@@@@PAU2@@Z 1003363c     bncs_client_runtime.obj
 0002:0000c660       __unwindtable$?clear@?$QMapPrivate@VQString@@VcomplexParam@@@@QAEXPAU?$QMapNode@VQString@@VcomplexParam@@@@@Z 10033660     bncs_client_runtime.obj
 0002:0000c668       __ehfuncinfo$?clear@?$QMapPrivate@VQString@@VcomplexParam@@@@QAEXPAU?$QMapNode@VQString@@VcomplexParam@@@@@Z 10033668     bncs_client_runtime.obj
 0002:0000c68c       __unwindtable$?insert@?$QMapPrivate@VQString@@VcomplexParam@@@@QAE?AV?$QMapIterator@VQString@@VcomplexParam@@@@PAUQMapNodeBase@@0ABVQString@@@Z 1003368c     bncs_client_runtime.obj
 0002:0000c6a4       __ehfuncinfo$?insert@?$QMapPrivate@VQString@@VcomplexParam@@@@QAE?AV?$QMapIterator@VQString@@VcomplexParam@@@@PAUQMapNodeBase@@0ABVQString@@@Z 100336a4     bncs_client_runtime.obj
 0002:0000c6c8       __unwindtable$??0?$QMapPrivate@VQString@@VcomplexInstance@@@@QAE@XZ 100336c8     bncs_client_runtime.obj
 0002:0000c6d8       __ehfuncinfo$??0?$QMapPrivate@VQString@@VcomplexInstance@@@@QAE@XZ 100336d8     bncs_client_runtime.obj
 0002:0000c6fc       __unwindtable$??0?$QMapPrivate@VQString@@VcomplexInstance@@@@QAE@PBV0@@Z 100336fc     bncs_client_runtime.obj
 0002:0000c70c       __ehfuncinfo$??0?$QMapPrivate@VQString@@VcomplexInstance@@@@QAE@PBV0@@Z 1003370c     bncs_client_runtime.obj
 0002:0000c730       __unwindtable$??1?$QMapPrivate@VQString@@VcomplexInstance@@@@QAE@XZ 10033730     bncs_client_runtime.obj
 0002:0000c738       __ehfuncinfo$??1?$QMapPrivate@VQString@@VcomplexInstance@@@@QAE@XZ 10033738     bncs_client_runtime.obj
 0002:0000c75c       __unwindtable$?clear@?$QMapPrivate@VQString@@VcomplexInstance@@@@QAEXPAU?$QMapNode@VQString@@VcomplexInstance@@@@@Z 1003375c     bncs_client_runtime.obj
 0002:0000c764       __ehfuncinfo$?clear@?$QMapPrivate@VQString@@VcomplexInstance@@@@QAEXPAU?$QMapNode@VQString@@VcomplexInstance@@@@@Z 10033764     bncs_client_runtime.obj
 0002:0000c788       __unwindtable$?insert@?$QMapPrivate@VQString@@VcomplexInstance@@@@QAE?AV?$QMapIterator@VQString@@VcomplexInstance@@@@PAUQMapNodeBase@@0ABVQString@@@Z 10033788     bncs_client_runtime.obj
 0002:0000c7a0       __ehfuncinfo$?insert@?$QMapPrivate@VQString@@VcomplexInstance@@@@QAE?AV?$QMapIterator@VQString@@VcomplexInstance@@@@PAUQMapNodeBase@@0ABVQString@@@Z 100337a0     bncs_client_runtime.obj
 0002:0000c7c4       __unwindtable$??0?$QMapPrivate@VQString@@VinstanceInfo@@@@QAE@XZ 100337c4     bncs_client_runtime.obj
 0002:0000c7d4       __ehfuncinfo$??0?$QMapPrivate@VQString@@VinstanceInfo@@@@QAE@XZ 100337d4     bncs_client_runtime.obj
 0002:0000c7f8       __unwindtable$??0?$QMapPrivate@VQString@@VinstanceInfo@@@@QAE@PBV0@@Z 100337f8     bncs_client_runtime.obj
 0002:0000c808       __ehfuncinfo$??0?$QMapPrivate@VQString@@VinstanceInfo@@@@QAE@PBV0@@Z 10033808     bncs_client_runtime.obj
 0002:0000c82c       __unwindtable$??1?$QMapPrivate@VQString@@VinstanceInfo@@@@QAE@XZ 1003382c     bncs_client_runtime.obj
 0002:0000c834       __ehfuncinfo$??1?$QMapPrivate@VQString@@VinstanceInfo@@@@QAE@XZ 10033834     bncs_client_runtime.obj
 0002:0000c858       __unwindtable$?clear@?$QMapPrivate@VQString@@VinstanceInfo@@@@QAEXPAU?$QMapNode@VQString@@VinstanceInfo@@@@@Z 10033858     bncs_client_runtime.obj
 0002:0000c860       __ehfuncinfo$?clear@?$QMapPrivate@VQString@@VinstanceInfo@@@@QAEXPAU?$QMapNode@VQString@@VinstanceInfo@@@@@Z 10033860     bncs_client_runtime.obj
 0002:0000c884       __unwindtable$?insert@?$QMapPrivate@VQString@@VinstanceInfo@@@@QAE?AV?$QMapIterator@VQString@@VinstanceInfo@@@@PAUQMapNodeBase@@0ABVQString@@@Z 10033884     bncs_client_runtime.obj
 0002:0000c89c       __ehfuncinfo$?insert@?$QMapPrivate@VQString@@VinstanceInfo@@@@QAE?AV?$QMapIterator@VQString@@VinstanceInfo@@@@PAUQMapNodeBase@@0ABVQString@@@Z 1003389c     bncs_client_runtime.obj
 0002:0000c8c0       __unwindtable$?append@?$QValueList@VinstanceInfo@@@@QAE?AV?$QValueListIterator@VinstanceInfo@@@@ABVinstanceInfo@@@Z 100338c0     bncs_client_runtime.obj
 0002:0000c8c0       __unwindtable$?append@?$QValueList@VcomplexParam@@@@QAE?AV?$QValueListIterator@VcomplexParam@@@@ABVcomplexParam@@@Z 100338c0     bncs_client_runtime.obj
 0002:0000c8c0       __unwindtable$?append@?$QValueList@VparamInfo@@@@QAE?AV?$QValueListIterator@VparamInfo@@@@ABVparamInfo@@@Z 100338c0     bncs_client_runtime.obj
 0002:0000c8c0       __unwindtable$?append@?$QValueList@VdeviceTypeInfo@@@@QAE?AV?$QValueListIterator@VdeviceTypeInfo@@@@ABVdeviceTypeInfo@@@Z 100338c0     bncs_client_runtime.obj
 0002:0000c8c0       __unwindtable$?append@?$QValueList@VcomplexInstance@@@@QAE?AV?$QValueListIterator@VcomplexInstance@@@@ABVcomplexInstance@@@Z 100338c0     bncs_client_runtime.obj
 0002:0000c8c0       __unwindtable$?append@?$QValueList@VcomplexType@@@@QAE?AV?$QValueListIterator@VcomplexType@@@@ABVcomplexType@@@Z 100338c0     bncs_client_runtime.obj
 0002:0000c8d0       __ehfuncinfo$?append@?$QValueList@VparamInfo@@@@QAE?AV?$QValueListIterator@VparamInfo@@@@ABVparamInfo@@@Z 100338d0     bncs_client_runtime.obj
 0002:0000c8d0       __ehfuncinfo$?append@?$QValueList@VcomplexType@@@@QAE?AV?$QValueListIterator@VcomplexType@@@@ABVcomplexType@@@Z 100338d0     bncs_client_runtime.obj
 0002:0000c8d0       __ehfuncinfo$?append@?$QValueList@VdeviceTypeInfo@@@@QAE?AV?$QValueListIterator@VdeviceTypeInfo@@@@ABVdeviceTypeInfo@@@Z 100338d0     bncs_client_runtime.obj
 0002:0000c8d0       __ehfuncinfo$?append@?$QValueList@VcomplexParam@@@@QAE?AV?$QValueListIterator@VcomplexParam@@@@ABVcomplexParam@@@Z 100338d0     bncs_client_runtime.obj
 0002:0000c8d0       __ehfuncinfo$?append@?$QValueList@VcomplexInstance@@@@QAE?AV?$QValueListIterator@VcomplexInstance@@@@ABVcomplexInstance@@@Z 100338d0     bncs_client_runtime.obj
 0002:0000c8d0       __ehfuncinfo$?append@?$QValueList@VinstanceInfo@@@@QAE?AV?$QValueListIterator@VinstanceInfo@@@@ABVinstanceInfo@@@Z 100338d0     bncs_client_runtime.obj
 0002:0000c8f4       __unwindtable$??0?$QMapPrivate@VQString@@VdeviceTypeInfo@@@@QAE@XZ 100338f4     bncs_client_runtime.obj
 0002:0000c904       __ehfuncinfo$??0?$QMapPrivate@VQString@@VdeviceTypeInfo@@@@QAE@XZ 10033904     bncs_client_runtime.obj
 0002:0000c928       __unwindtable$??0?$QMapPrivate@VQString@@VdeviceTypeInfo@@@@QAE@PBV0@@Z 10033928     bncs_client_runtime.obj
 0002:0000c938       __ehfuncinfo$??0?$QMapPrivate@VQString@@VdeviceTypeInfo@@@@QAE@PBV0@@Z 10033938     bncs_client_runtime.obj
 0002:0000c95c       __unwindtable$??1?$QMapPrivate@VQString@@VdeviceTypeInfo@@@@QAE@XZ 1003395c     bncs_client_runtime.obj
 0002:0000c964       __ehfuncinfo$??1?$QMapPrivate@VQString@@VdeviceTypeInfo@@@@QAE@XZ 10033964     bncs_client_runtime.obj
 0002:0000c988       __unwindtable$?clear@?$QMapPrivate@VQString@@VdeviceTypeInfo@@@@QAEXPAU?$QMapNode@VQString@@VdeviceTypeInfo@@@@@Z 10033988     bncs_client_runtime.obj
 0002:0000c990       __ehfuncinfo$?clear@?$QMapPrivate@VQString@@VdeviceTypeInfo@@@@QAEXPAU?$QMapNode@VQString@@VdeviceTypeInfo@@@@@Z 10033990     bncs_client_runtime.obj
 0002:0000c9b4       __unwindtable$?insert@?$QMapPrivate@VQString@@VdeviceTypeInfo@@@@QAE?AV?$QMapIterator@VQString@@VdeviceTypeInfo@@@@PAUQMapNodeBase@@0ABVQString@@@Z 100339b4     bncs_client_runtime.obj
 0002:0000c9cc       __ehfuncinfo$?insert@?$QMapPrivate@VQString@@VdeviceTypeInfo@@@@QAE?AV?$QMapIterator@VQString@@VdeviceTypeInfo@@@@PAUQMapNodeBase@@0ABVQString@@@Z 100339cc     bncs_client_runtime.obj
 0002:0000c9f0       __unwindtable$??0?$QMapPrivate@VQString@@VcomplexType@@@@QAE@XZ 100339f0     bncs_client_runtime.obj
 0002:0000ca00       __ehfuncinfo$??0?$QMapPrivate@VQString@@VcomplexType@@@@QAE@XZ 10033a00     bncs_client_runtime.obj
 0002:0000ca24       __unwindtable$??0?$QMapPrivate@VQString@@VcomplexType@@@@QAE@PBV0@@Z 10033a24     bncs_client_runtime.obj
 0002:0000ca34       __ehfuncinfo$??0?$QMapPrivate@VQString@@VcomplexType@@@@QAE@PBV0@@Z 10033a34     bncs_client_runtime.obj
 0002:0000ca58       __unwindtable$??1?$QMapPrivate@VQString@@VcomplexType@@@@QAE@XZ 10033a58     bncs_client_runtime.obj
 0002:0000ca60       __ehfuncinfo$??1?$QMapPrivate@VQString@@VcomplexType@@@@QAE@XZ 10033a60     bncs_client_runtime.obj
 0002:0000ca84       __unwindtable$?clear@?$QMapPrivate@VQString@@VcomplexType@@@@QAEXPAU?$QMapNode@VQString@@VcomplexType@@@@@Z 10033a84     bncs_client_runtime.obj
 0002:0000ca8c       __ehfuncinfo$?clear@?$QMapPrivate@VQString@@VcomplexType@@@@QAEXPAU?$QMapNode@VQString@@VcomplexType@@@@@Z 10033a8c     bncs_client_runtime.obj
 0002:0000cab0       __unwindtable$?insert@?$QMapPrivate@VQString@@VcomplexType@@@@QAE?AV?$QMapIterator@VQString@@VcomplexType@@@@PAUQMapNodeBase@@0ABVQString@@@Z 10033ab0     bncs_client_runtime.obj
 0002:0000cac8       __ehfuncinfo$?insert@?$QMapPrivate@VQString@@VcomplexType@@@@QAE?AV?$QMapIterator@VQString@@VcomplexType@@@@PAUQMapNodeBase@@0ABVQString@@@Z 10033ac8     bncs_client_runtime.obj
 0002:0000caec       __unwindtable$??0?$QMapNode@VQString@@VcomplexParam@@@@QAE@ABU0@@Z 10033aec     bncs_client_runtime.obj
 0002:0000cafc       __ehfuncinfo$??0?$QMapNode@VQString@@VcomplexParam@@@@QAE@ABU0@@Z 10033afc     bncs_client_runtime.obj
 0002:0000cb20       __unwindtable$??0?$QValueListPrivate@VparamInfo@@@@QAE@XZ 10033b20     bncs_client_runtime.obj
 0002:0000cb20       __unwindtable$?clear@?$QMap@VQString@@VcomplexParam@@@@QAEXXZ 10033b20     bncs_client_runtime.obj
 0002:0000cb20       __unwindtable$?insert@?$QValueListPrivate@VcomplexType@@@@QAE?AV?$QValueListIterator@VcomplexType@@@@V2@ABVcomplexType@@@Z 10033b20     bncs_client_runtime.obj
 0002:0000cb20       __unwindtable$?clear@?$QMap@VQString@@VparamInfo@@@@QAEXXZ 10033b20     bncs_client_runtime.obj
 0002:0000cb20       __unwindtable$??0?$QValueListPrivate@VcomplexType@@@@QAE@XZ 10033b20     bncs_client_runtime.obj
 0002:0000cb20       __unwindtable$?clear@?$QMap@VQString@@VinstanceInfo@@@@QAEXXZ 10033b20     bncs_client_runtime.obj
 0002:0000cb20       __unwindtable$?insert@?$QValueListPrivate@VdeviceTypeInfo@@@@QAE?AV?$QValueListIterator@VdeviceTypeInfo@@@@V2@ABVdeviceTypeInfo@@@Z 10033b20     bncs_client_runtime.obj
 0002:0000cb20       __unwindtable$?clear@?$QMap@VQString@@VdeviceTypeInfo@@@@QAEXXZ 10033b20     bncs_client_runtime.obj
 0002:0000cb20       __unwindtable$?clear@?$QMap@VQString@@VcomplexType@@@@QAEXXZ 10033b20     bncs_client_runtime.obj
 0002:0000cb20       __unwindtable$??0?$QValueListPrivate@VdeviceTypeInfo@@@@QAE@XZ 10033b20     bncs_client_runtime.obj
 0002:0000cb20       __unwindtable$?insert@?$QValueListPrivate@VinstanceInfo@@@@QAE?AV?$QValueListIterator@VinstanceInfo@@@@V2@ABVinstanceInfo@@@Z 10033b20     bncs_client_runtime.obj
 0002:0000cb20       __unwindtable$?clear@?$QMap@VQString@@VcomplexInstance@@@@QAEXXZ 10033b20     bncs_client_runtime.obj
 0002:0000cb20       __unwindtable$??0?$QValueListPrivate@VinstanceInfo@@@@QAE@XZ 10033b20     bncs_client_runtime.obj
 0002:0000cb20       __unwindtable$?insert@?$QValueListPrivate@VcomplexInstance@@@@QAE?AV?$QValueListIterator@VcomplexInstance@@@@V2@ABVcomplexInstance@@@Z 10033b20     bncs_client_runtime.obj
 0002:0000cb20       __unwindtable$??0?$QValueListPrivate@VcomplexInstance@@@@QAE@XZ 10033b20     bncs_client_runtime.obj
 0002:0000cb20       __unwindtable$??0?$QValueListPrivate@VcomplexParam@@@@QAE@XZ 10033b20     bncs_client_runtime.obj
 0002:0000cb28       __ehfuncinfo$??0?$QValueListPrivate@VcomplexParam@@@@QAE@XZ 10033b28     bncs_client_runtime.obj
 0002:0000cb28       __ehfuncinfo$?insert@?$QValueListPrivate@VdeviceTypeInfo@@@@QAE?AV?$QValueListIterator@VdeviceTypeInfo@@@@V2@ABVdeviceTypeInfo@@@Z 10033b28     bncs_client_runtime.obj
 0002:0000cb28       __ehfuncinfo$?clear@?$QMap@VQString@@VcomplexInstance@@@@QAEXXZ 10033b28     bncs_client_runtime.obj
 0002:0000cb28       __ehfuncinfo$?clear@?$QMap@VQString@@VcomplexType@@@@QAEXXZ 10033b28     bncs_client_runtime.obj
 0002:0000cb28       __ehfuncinfo$?insert@?$QValueListPrivate@VcomplexType@@@@QAE?AV?$QValueListIterator@VcomplexType@@@@V2@ABVcomplexType@@@Z 10033b28     bncs_client_runtime.obj
 0002:0000cb28       __ehfuncinfo$??0?$QValueListPrivate@VcomplexInstance@@@@QAE@XZ 10033b28     bncs_client_runtime.obj
 0002:0000cb28       __ehfuncinfo$??0?$QValueListPrivate@VcomplexType@@@@QAE@XZ 10033b28     bncs_client_runtime.obj
 0002:0000cb28       __ehfuncinfo$?clear@?$QMap@VQString@@VcomplexParam@@@@QAEXXZ 10033b28     bncs_client_runtime.obj
 0002:0000cb28       __ehfuncinfo$?insert@?$QValueListPrivate@VcomplexInstance@@@@QAE?AV?$QValueListIterator@VcomplexInstance@@@@V2@ABVcomplexInstance@@@Z 10033b28     bncs_client_runtime.obj
 0002:0000cb28       __ehfuncinfo$??0?$QValueListPrivate@VdeviceTypeInfo@@@@QAE@XZ 10033b28     bncs_client_runtime.obj
 0002:0000cb28       __ehfuncinfo$??0?$QValueListPrivate@VparamInfo@@@@QAE@XZ 10033b28     bncs_client_runtime.obj
 0002:0000cb28       __ehfuncinfo$?clear@?$QMap@VQString@@VdeviceTypeInfo@@@@QAEXXZ 10033b28     bncs_client_runtime.obj
 0002:0000cb28       __ehfuncinfo$?clear@?$QMap@VQString@@VparamInfo@@@@QAEXXZ 10033b28     bncs_client_runtime.obj
 0002:0000cb28       __ehfuncinfo$??0?$QValueListPrivate@VinstanceInfo@@@@QAE@XZ 10033b28     bncs_client_runtime.obj
 0002:0000cb28       __ehfuncinfo$?clear@?$QMap@VQString@@VinstanceInfo@@@@QAEXXZ 10033b28     bncs_client_runtime.obj
 0002:0000cb28       __ehfuncinfo$?insert@?$QValueListPrivate@VinstanceInfo@@@@QAE?AV?$QValueListIterator@VinstanceInfo@@@@V2@ABVinstanceInfo@@@Z 10033b28     bncs_client_runtime.obj
 0002:0000cb4c       __unwindtable$??0?$QValueListPrivate@VcomplexInstance@@@@QAE@ABV0@@Z 10033b4c     bncs_client_runtime.obj
 0002:0000cb4c       __unwindtable$??0?$QValueListPrivate@VparamInfo@@@@QAE@ABV0@@Z 10033b4c     bncs_client_runtime.obj
 0002:0000cb4c       __unwindtable$??0?$QValueListPrivate@VinstanceInfo@@@@QAE@ABV0@@Z 10033b4c     bncs_client_runtime.obj
 0002:0000cb4c       __unwindtable$??0?$QValueListPrivate@VcomplexType@@@@QAE@ABV0@@Z 10033b4c     bncs_client_runtime.obj
 0002:0000cb4c       __unwindtable$??0?$QValueListPrivate@VcomplexParam@@@@QAE@ABV0@@Z 10033b4c     bncs_client_runtime.obj
 0002:0000cb4c       __unwindtable$??0?$QValueListPrivate@VdeviceTypeInfo@@@@QAE@ABV0@@Z 10033b4c     bncs_client_runtime.obj
 0002:0000cb54       __ehfuncinfo$??0?$QValueListPrivate@VcomplexParam@@@@QAE@ABV0@@Z 10033b54     bncs_client_runtime.obj
 0002:0000cb54       __ehfuncinfo$??0?$QValueListPrivate@VparamInfo@@@@QAE@ABV0@@Z 10033b54     bncs_client_runtime.obj
 0002:0000cb54       __ehfuncinfo$??0?$QValueListPrivate@VcomplexType@@@@QAE@ABV0@@Z 10033b54     bncs_client_runtime.obj
 0002:0000cb54       __ehfuncinfo$??0?$QValueListPrivate@VcomplexInstance@@@@QAE@ABV0@@Z 10033b54     bncs_client_runtime.obj
 0002:0000cb54       __ehfuncinfo$??0?$QValueListPrivate@VinstanceInfo@@@@QAE@ABV0@@Z 10033b54     bncs_client_runtime.obj
 0002:0000cb54       __ehfuncinfo$??0?$QValueListPrivate@VdeviceTypeInfo@@@@QAE@ABV0@@Z 10033b54     bncs_client_runtime.obj
 0002:0000cb78       __unwindtable$?insert@?$QValueListPrivate@VcomplexParam@@@@QAE?AV?$QValueListIterator@VcomplexParam@@@@V2@ABVcomplexParam@@@Z 10033b78     bncs_client_runtime.obj
 0002:0000cb88       __ehfuncinfo$?insert@?$QValueListPrivate@VcomplexParam@@@@QAE?AV?$QValueListIterator@VcomplexParam@@@@V2@ABVcomplexParam@@@Z 10033b88     bncs_client_runtime.obj
 0002:0000cbac       __unwindtable$??0?$QMapNode@VQString@@VcomplexInstance@@@@QAE@ABU0@@Z 10033bac     bncs_client_runtime.obj
 0002:0000cbbc       __ehfuncinfo$??0?$QMapNode@VQString@@VcomplexInstance@@@@QAE@ABU0@@Z 10033bbc     bncs_client_runtime.obj
 0002:0000cbe0       __unwindtable$??0?$QMapNode@VQString@@VinstanceInfo@@@@QAE@ABU0@@Z 10033be0     bncs_client_runtime.obj
 0002:0000cbf0       __ehfuncinfo$??0?$QMapNode@VQString@@VinstanceInfo@@@@QAE@ABU0@@Z 10033bf0     bncs_client_runtime.obj
 0002:0000cc14       __unwindtable$??0?$QMapNode@VQString@@VdeviceTypeInfo@@@@QAE@ABU0@@Z 10033c14     bncs_client_runtime.obj
 0002:0000cc24       __ehfuncinfo$??0?$QMapNode@VQString@@VdeviceTypeInfo@@@@QAE@ABU0@@Z 10033c24     bncs_client_runtime.obj
 0002:0000cc48       __unwindtable$??0?$QMapNode@VQString@@VcomplexType@@@@QAE@ABU0@@Z 10033c48     bncs_client_runtime.obj
 0002:0000cc58       __ehfuncinfo$??0?$QMapNode@VQString@@VcomplexType@@@@QAE@ABU0@@Z 10033c58     bncs_client_runtime.obj
 0002:0000cc7c       __catchsym$??$_Insert_nohint@AAU?$pair@$$CBHVccTimerClient@@@std@@PAU?$_Tree_node@U?$pair@$$CBHVccTimerClient@@@std@@PAX@2@@?$_Tree@V?$_Tmap_traits@HVccTimerClient@@U?$less@H@std@@V?$allocator@U?$pair@$$CBHVccTimerClient@@@std@@@3@$0A@@std@@@std@@IAE?AU?$pair@V?$_Tree_iterator@V?$_Tree_val@U?$_Tree_simple_types@U?$pair@$$CBHVccTimerClient@@@std@@@std@@@std@@@std@@_N@1@_NAAU?$pair@$$CBHVccTimerClient@@@1@PAU?$_Tree_node@U?$pair@$$CBHVccTimerClient@@@std@@PAX@1@@Z$2 10033c7c     ccTimer.obj
 0002:0000cc8c       __unwindtable$??$_Insert_nohint@AAU?$pair@$$CBHVccTimerClient@@@std@@PAU?$_Tree_node@U?$pair@$$CBHVccTimerClient@@@std@@PAX@2@@?$_Tree@V?$_Tmap_traits@HVccTimerClient@@U?$less@H@std@@V?$allocator@U?$pair@$$CBHVccTimerClient@@@std@@@3@$0A@@std@@@std@@IAE?AU?$pair@V?$_Tree_iterator@V?$_Tree_val@U?$_Tree_simple_types@U?$pair@$$CBHVccTimerClient@@@std@@@std@@@std@@@std@@_N@1@_NAAU?$pair@$$CBHVccTimerClient@@@1@PAU?$_Tree_node@U?$pair@$$CBHVccTimerClient@@@std@@PAX@1@@Z 10033c8c     ccTimer.obj
 0002:0000cc9c       __tryblocktable$??$_Insert_nohint@AAU?$pair@$$CBHVccTimerClient@@@std@@PAU?$_Tree_node@U?$pair@$$CBHVccTimerClient@@@std@@PAX@2@@?$_Tree@V?$_Tmap_traits@HVccTimerClient@@U?$less@H@std@@V?$allocator@U?$pair@$$CBHVccTimerClient@@@std@@@3@$0A@@std@@@std@@IAE?AU?$pair@V?$_Tree_iterator@V?$_Tree_val@U?$_Tree_simple_types@U?$pair@$$CBHVccTimerClient@@@std@@@std@@@std@@@std@@_N@1@_NAAU?$pair@$$CBHVccTimerClient@@@1@PAU?$_Tree_node@U?$pair@$$CBHVccTimerClient@@@std@@PAX@1@@Z 10033c9c     ccTimer.obj
 0002:0000ccb0       __ehfuncinfo$??$_Insert_nohint@AAU?$pair@$$CBHVccTimerClient@@@std@@PAU?$_Tree_node@U?$pair@$$CBHVccTimerClient@@@std@@PAX@2@@?$_Tree@V?$_Tmap_traits@HVccTimerClient@@U?$less@H@std@@V?$allocator@U?$pair@$$CBHVccTimerClient@@@std@@@3@$0A@@std@@@std@@IAE?AU?$pair@V?$_Tree_iterator@V?$_Tree_val@U?$_Tree_simple_types@U?$pair@$$CBHVccTimerClient@@@std@@@std@@@std@@@std@@_N@1@_NAAU?$pair@$$CBHVccTimerClient@@@1@PAU?$_Tree_node@U?$pair@$$CBHVccTimerClient@@@std@@PAX@1@@Z 10033cb0     ccTimer.obj
 0002:0000ccd4       __unwindtable$??0connectionDebugDlg@@QAE@PAVQWidget@@PBD_NI@Z 10033cd4     connectiondebugdlgimpl.obj
 0002:0000ccdc       __ehfuncinfo$??0connectionDebugDlg@@QAE@PAVQWidget@@PBD_NI@Z 10033cdc     connectiondebugdlgimpl.obj
 0002:0000cd00       __ehfuncinfo$?create@dCW@@QAEPAVQWidget@@ABVQString@@PAVQObject@@PAV2@PBD_N4NN44@Z 10033d00     dCW.obj
 0002:0000cd24       __unwindtable$?create@dCW@@QAEPAVQWidget@@ABVQString@@PAVQObject@@PAV2@PBD_N4NN44@Z 10033d24     dCW.obj
 0002:0000ce4c       __ehfuncinfo$??1dCW@@UAE@XZ 10033e4c     dCW.obj
 0002:0000ce70       __unwindtable$??1dCW@@UAE@XZ 10033e70     dCW.obj
 0002:0000ced0       __unwindtable$?parseXML@dCW@@QAEPAVQWidget@@AAVQDomDocument@@PAV2@VQPoint@@_N3VQString@@@Z 10033ed0     dCW.obj
 0002:0000ced8       __ehfuncinfo$?parseXML@dCW@@QAEPAVQWidget@@AAVQDomDocument@@PAV2@VQPoint@@_N3VQString@@@Z 10033ed8     dCW.obj
 0002:0000cefc       __ehfuncinfo$?checkNameUnique@dCW@@SA_NPAVQWidget@@ABVQString@@AAV3@@Z 10033efc     dCW.obj
 0002:0000cf20       __unwindtable$?checkNameUnique@dCW@@SA_NPAVQWidget@@ABVQString@@AAV3@@Z 10033f20     dCW.obj
 0002:0000cf60       __unwindtable$?createWidget@dCW@@QAEPAVQWidget@@ABVQString@@PAV2@0HHHH@Z 10033f60     dCW.obj
 0002:0000cf78       __ehfuncinfo$?createWidget@dCW@@QAEPAVQWidget@@ABVQString@@PAV2@0HHHH@Z 10033f78     dCW.obj
 0002:0000cf9c       __ehfuncinfo$?parseXML@dCW@@QAEPAVQWidget@@AAVQDomDocument@@PAV2@VQPoint@@_N33VQString@@@Z 10033f9c     dCW.obj
 0002:0000cfc0       __unwindtable$?parseXML@dCW@@QAEPAVQWidget@@AAVQDomDocument@@PAV2@VQPoint@@_N33VQString@@@Z 10033fc0     dCW.obj
 0002:0000d520       __unwindtable$?developerMode@dCW@@SA_NXZ 10034520     dCW.obj
 0002:0000d530       __ehfuncinfo$?developerMode@dCW@@SA_NXZ 10034530     dCW.obj
 0002:0000d554       __unwindtable$??_G?$QCache@VQDomDocument@@@@UAEPAXI@Z 10034554     dCW.obj
 0002:0000d55c       __ehfuncinfo$??_G?$QCache@VQDomDocument@@@@UAEPAXI@Z 1003455c     dCW.obj
 0002:0000d580       __unwindtable$??__Fui@@YAXXZ 10034580     dCW.obj
 0002:0000d588       __ehfuncinfo$??__Fui@@YAXXZ 10034588     dCW.obj
 0002:0000d5ac       __unwindtable$??0notifyWrangler@@QAE@ABVQString@@0ABVQWidgetList@@@Z 100345ac     notifyWrangler.obj
 0002:0000d5bc       __ehfuncinfo$??0notifyWrangler@@QAE@ABVQString@@0ABVQWidgetList@@@Z 100345bc     notifyWrangler.obj
 0002:0000d5e0       __ehfuncinfo$?wrangle@notifyWrangler@@QAE?AVQString@@ABV2@@Z 100345e0     notifyWrangler.obj
 0002:0000d604       __unwindtable$?wrangle@notifyWrangler@@QAE?AVQString@@ABV2@@Z 10034604     notifyWrangler.obj
 0002:0000d71c       __ehfuncinfo$?textGet@notifyWrangler@@QAE_NABVQString@@0AAV2@@Z 1003471c     notifyWrangler.obj
 0002:0000d740       __unwindtable$?textGet@notifyWrangler@@QAE_NABVQString@@0AAV2@@Z 10034740     notifyWrangler.obj
 0002:0000d768       __unwindtable$??1notifyWrangler@@UAE@XZ 10034768     notifyWrangler.obj
 0002:0000d768       __unwindtable$??_GnotifyWrangler@@UAEPAXI@Z 10034768     notifyWrangler.obj
 0002:0000d770       __ehfuncinfo$??1notifyWrangler@@UAE@XZ 10034770     notifyWrangler.obj
 0002:0000d770       __ehfuncinfo$??_GnotifyWrangler@@UAEPAXI@Z 10034770     notifyWrangler.obj
 0002:0000d794       __ehfuncinfo$??0connectionDebugDlgBase@@QAE@PAVQWidget@@PBD_NI@Z 10034794     connectiondebugdlg.obj
 0002:0000d7b8       __unwindtable$??0connectionDebugDlgBase@@QAE@PAVQWidget@@PBD_NI@Z 100347b8     connectiondebugdlg.obj
 0002:0000d800       __unwindtable$?languageChange@connectionDebugDlgBase@@MAEXXZ 10034800     connectiondebugdlg.obj
 0002:0000d820       __ehfuncinfo$?languageChange@connectionDebugDlgBase@@MAEXXZ 10034820     connectiondebugdlg.obj
 0002:0000d844       __unwindtable$?notify@bncs_client_runtime@@IAEXAAVQString@@@Z 10034844     moc_bncs_client_runtime.obj
 0002:0000d84c       __ehfuncinfo$?notify@bncs_client_runtime@@IAEXAAVQString@@@Z 1003484c     moc_bncs_client_runtime.obj
 0002:0000d870       __sehtable$??_M@YGXPAXIHP6EX0@Z@Z 10034870     MSVCRT:ehvecdtr.obj
 0002:0000d890       __sehtable$?__ArrayUnwind@@YGXPAXIHP6EX0@Z@Z 10034890     MSVCRT:ehvecdtr.obj
 0002:0000d8b0       __sehtable$__onexit        100348b0     MSVCRT:atonexit.obj
 0002:0000d8d0       __sehtable$??_L@YGXPAXIHP6EX0@Z1@Z 100348d0     MSVCRT:ehvecctr.obj
 0002:0000d8f0       __sehtable$___DllMainCRTStartup 100348f0     MSVCRT:crtdll.obj
 0002:0000d918       __sehtable$__IsNonwritableInCurrentImage 10034918     MSVCRT:pesect.obj
 0002:0000d940       .edata                     10034940     dcw.exp
 0002:0000d968       rgpv                       10034968     dcw.exp
 0002:0000def8       rgszName                   10034ef8     dcw.exp
 0002:0000e488       rgwOrd                     10035488     dcw.exp
 0002:0000e750       szName                     10035750     dcw.exp
 0002:0000e758       $N00001                    10035758     dcw.exp
 0002:0000e78c       $N00002                    1003578c     dcw.exp
 0002:0000e7bb       $N00003                    100357bb     dcw.exp
 0002:0000e7ec       $N00004                    100357ec     dcw.exp
 0002:0000e818       $N00005                    10035818     dcw.exp
 0002:0000e848       $N00006                    10035848     dcw.exp
 0002:0000e873       $N00007                    10035873     dcw.exp
 0002:0000e8a6       $N00008                    100358a6     dcw.exp
 0002:0000e8d4       $N00009                    100358d4     dcw.exp
 0002:0000e905       $N00010                    10035905     dcw.exp
 0002:0000e931       $N00011                    10035931     dcw.exp
 0002:0000e95f       $N00012                    1003595f     dcw.exp
 0002:0000e988       $N00013                    10035988     dcw.exp
 0002:0000e9b7       $N00014                    100359b7     dcw.exp
 0002:0000e9e1       $N00015                    100359e1     dcw.exp
 0002:0000ea18       $N00016                    10035a18     dcw.exp
 0002:0000ea6d       $N00017                    10035a6d     dcw.exp
 0002:0000ea88       $N00018                    10035a88     dcw.exp
 0002:0000ea9e       $N00019                    10035a9e     dcw.exp
 0002:0000eac2       $N00020                    10035ac2     dcw.exp
 0002:0000eaf1       $N00021                    10035af1     dcw.exp
 0002:0000eb05       $N00022                    10035b05     dcw.exp
 0002:0000eb14       $N00023                    10035b14     dcw.exp
 0002:0000eb33       $N00024                    10035b33     dcw.exp
 0002:0000eb4d       $N00025                    10035b4d     dcw.exp
 0002:0000eb6e       $N00026                    10035b6e     dcw.exp
 0002:0000eb9a       $N00027                    10035b9a     dcw.exp
 0002:0000ebc2       $N00028                    10035bc2     dcw.exp
 0002:0000ebe5       $N00029                    10035be5     dcw.exp
 0002:0000ec0f       $N00030                    10035c0f     dcw.exp
 0002:0000ec50       $N00031                    10035c50     dcw.exp
 0002:0000ec7f       $N00032                    10035c7f     dcw.exp
 0002:0000ecab       $N00033                    10035cab     dcw.exp
 0002:0000ecd6       $N00034                    10035cd6     dcw.exp
 0002:0000ed04       $N00035                    10035d04     dcw.exp
 0002:0000ed30       $N00036                    10035d30     dcw.exp
 0002:0000ed59       $N00037                    10035d59     dcw.exp
 0002:0000ed83       $N00038                    10035d83     dcw.exp
 0002:0000edb5       $N00039                    10035db5     dcw.exp
 0002:0000edd4       $N00040                    10035dd4     dcw.exp
 0002:0000ede3       $N00041                    10035de3     dcw.exp
 0002:0000edfd       $N00042                    10035dfd     dcw.exp
 0002:0000ee19       $N00043                    10035e19     dcw.exp
 0002:0000ee3c       $N00044                    10035e3c     dcw.exp
 0002:0000ee61       $N00045                    10035e61     dcw.exp
 0002:0000ee99       $N00046                    10035e99     dcw.exp
 0002:0000eece       $N00047                    10035ece     dcw.exp
 0002:0000ef02       $N00048                    10035f02     dcw.exp
 0002:0000ef39       $N00049                    10035f39     dcw.exp
 0002:0000ef6e       $N00050                    10035f6e     dcw.exp
 0002:0000efa0       $N00051                    10035fa0     dcw.exp
 0002:0000efd3       $N00052                    10035fd3     dcw.exp
 0002:0000f00e       $N00053                    1003600e     dcw.exp
 0002:0000f02d       $N00054                    1003602d     dcw.exp
 0002:0000f055       $N00055                    10036055     dcw.exp
 0002:0000f06d       $N00056                    1003606d     dcw.exp
 0002:0000f090       $N00057                    10036090     dcw.exp
 0002:0000f0b5       $N00058                    100360b5     dcw.exp
 0002:0000f0e1       $N00059                    100360e1     dcw.exp
 0002:0000f10f       $N00060                    1003610f     dcw.exp
 0002:0000f13f       $N00061                    1003613f     dcw.exp
 0002:0000f16f       $N00062                    1003616f     dcw.exp
 0002:0000f1bd       $N00063                    100361bd     dcw.exp
 0002:0000f20b       $N00064                    1003620b     dcw.exp
 0002:0000f253       $N00065                    10036253     dcw.exp
 0002:0000f29b       $N00066                    1003629b     dcw.exp
 0002:0000f2e1       $N00067                    100362e1     dcw.exp
 0002:0000f327       $N00068                    10036327     dcw.exp
 0002:0000f373       $N00069                    10036373     dcw.exp
 0002:0000f3bf       $N00070                    100363bf     dcw.exp
 0002:0000f407       $N00071                    10036407     dcw.exp
 0002:0000f44f       $N00072                    1003644f     dcw.exp
 0002:0000f491       $N00073                    10036491     dcw.exp
 0002:0000f4d3       $N00074                    100364d3     dcw.exp
 0002:0000f519       $N00075                    10036519     dcw.exp
 0002:0000f55f       $N00076                    1003655f     dcw.exp
 0002:0000f5a5       $N00077                    100365a5     dcw.exp
 0002:0000f5eb       $N00078                    100365eb     dcw.exp
 0002:0000f631       $N00079                    10036631     dcw.exp
 0002:0000f678       $N00080                    10036678     dcw.exp
 0002:0000f6bf       $N00081                    100366bf     dcw.exp
 0002:0000f6e7       $N00082                    100366e7     dcw.exp
 0002:0000f6fb       $N00083                    100366fb     dcw.exp
 0002:0000f718       $N00084                    10036718     dcw.exp
 0002:0000f73e       $N00085                    1003673e     dcw.exp
 0002:0000f769       $N00086                    10036769     dcw.exp
 0002:0000f776       $N00087                    10036776     dcw.exp
 0002:0000f78e       $N00088                    1003678e     dcw.exp
 0002:0000f7af       $N00089                    100367af     dcw.exp
 0002:0000f7cf       $N00090                    100367cf     dcw.exp
 0002:0000f80a       $N00091                    1003680a     dcw.exp
 0002:0000f841       $N00092                    10036841     dcw.exp
 0002:0000f87a       $N00093                    1003687a     dcw.exp
 0002:0000f8be       $N00094                    100368be     dcw.exp
 0002:0000f8fe       $N00095                    100368fe     dcw.exp
 0002:0000f929       $N00096                    10036929     dcw.exp
 0002:0000f962       $N00097                    10036962     dcw.exp
 0002:0000f99a       $N00098                    1003699a     dcw.exp
 0002:0000f9ba       $N00099                    100369ba     dcw.exp
 0002:0000fa1c       $N00100                    10036a1c     dcw.exp
 0002:0000fa83       $N00101                    10036a83     dcw.exp
 0002:0000fadf       $N00102                    10036adf     dcw.exp
 0002:0000fb40       $N00103                    10036b40     dcw.exp
 0002:0000fb9a       $N00104                    10036b9a     dcw.exp
 0002:0000fbf9       $N00105                    10036bf9     dcw.exp
 0002:0000fc59       $N00106                    10036c59     dcw.exp
 0002:0000fcbe       $N00107                    10036cbe     dcw.exp
 0002:0000fd1a       $N00108                    10036d1a     dcw.exp
 0002:0000fd7b       $N00109                    10036d7b     dcw.exp
 0002:0000fdd1       $N00110                    10036dd1     dcw.exp
 0002:0000fe2c       $N00111                    10036e2c     dcw.exp
 0002:0000fe87       $N00112                    10036e87     dcw.exp
 0002:0000fee2       $N00113                    10036ee2     dcw.exp
 0002:0000ff02       $N00114                    10036f02     dcw.exp
 0002:0000ff30       $N00115                    10036f30     dcw.exp
 0002:0000ff5a       $N00116                    10036f5a     dcw.exp
 0002:0000ff94       $N00117                    10036f94     dcw.exp
 0002:0000ffbd       $N00118                    10036fbd     dcw.exp
 0002:0000fff0       $N00119                    10036ff0     dcw.exp
 0002:00010020       $N00120                    10037020     dcw.exp
 0002:0001004f       $N00121                    1003704f     dcw.exp
 0002:00010081       $N00122                    10037081     dcw.exp
 0002:000100b1       $N00123                    100370b1     dcw.exp
 0002:000100de       $N00124                    100370de     dcw.exp
 0002:0001010c       $N00125                    1003710c     dcw.exp
 0002:00010123       $N00126                    10037123     dcw.exp
 0002:0001016a       $N00127                    1003716a     dcw.exp
 0002:000101a1       $N00128                    100371a1     dcw.exp
 0002:000101e2       $N00129                    100371e2     dcw.exp
 0002:0001024e       $N00130                    1003724e     dcw.exp
 0002:000102b4       $N00131                    100372b4     dcw.exp
 0002:00010318       $N00132                    10037318     dcw.exp
 0002:00010382       $N00133                    10037382     dcw.exp
 0002:000103e8       $N00134                    100373e8     dcw.exp
 0002:00010448       $N00135                    10037448     dcw.exp
 0002:000104a8       $N00136                    100374a8     dcw.exp
 0002:00010512       $N00137                    10037512     dcw.exp
 0002:00010576       $N00138                    10037576     dcw.exp
 0002:000105d8       $N00139                    100375d8     dcw.exp
 0002:00010640       $N00140                    10037640     dcw.exp
 0002:000106a4       $N00141                    100376a4     dcw.exp
 0002:00010702       $N00142                    10037702     dcw.exp
 0002:00010760       $N00143                    10037760     dcw.exp
 0002:000107a3       $N00144                    100377a3     dcw.exp
 0002:000107e3       $N00145                    100377e3     dcw.exp
 0002:00010822       $N00146                    10037822     dcw.exp
 0002:00010864       $N00147                    10037864     dcw.exp
 0002:000108a4       $N00148                    100378a4     dcw.exp
 0002:000108e1       $N00149                    100378e1     dcw.exp
 0002:00010927       $N00150                    10037927     dcw.exp
 0002:00010970       $N00151                    10037970     dcw.exp
 0002:000109b4       $N00152                    100379b4     dcw.exp
 0002:000109f3       $N00153                    100379f3     dcw.exp
 0002:00010a26       $N00154                    10037a26     dcw.exp
 0002:00010a62       $N00155                    10037a62     dcw.exp
 0002:00010a92       $N00156                    10037a92     dcw.exp
 0002:00010acd       $N00157                    10037acd     dcw.exp
 0002:00010afc       $N00158                    10037afc     dcw.exp
 0002:00010b3a       $N00159                    10037b3a     dcw.exp
 0002:00010b6c       $N00160                    10037b6c     dcw.exp
 0002:00010ba8       $N00161                    10037ba8     dcw.exp
 0002:00010bd8       $N00162                    10037bd8     dcw.exp
 0002:00010c11       $N00163                    10037c11     dcw.exp
 0002:00010c3e       $N00164                    10037c3e     dcw.exp
 0002:00010c6c       $N00165                    10037c6c     dcw.exp
 0002:00010ca2       $N00166                    10037ca2     dcw.exp
 0002:00010ce8       $N00167                    10037ce8     dcw.exp
 0002:00010d23       $N00168                    10037d23     dcw.exp
 0002:00010d67       $N00169                    10037d67     dcw.exp
 0002:00010db3       $N00170                    10037db3     dcw.exp
 0002:00010df1       $N00171                    10037df1     dcw.exp
 0002:00010e27       $N00172                    10037e27     dcw.exp
 0002:00010e5b       $N00173                    10037e5b     dcw.exp
 0002:00010e8c       $N00174                    10037e8c     dcw.exp
 0002:00010ebc       $N00175                    10037ebc     dcw.exp
 0002:00010eef       $N00176                    10037eef     dcw.exp
 0002:00010f20       $N00177                    10037f20     dcw.exp
 0002:00010f4e       $N00178                    10037f4e     dcw.exp
 0002:00010f8a       $N00179                    10037f8a     dcw.exp
 0002:00010fc3       $N00180                    10037fc3     dcw.exp
 0002:00010ffb       $N00181                    10037ffb     dcw.exp
 0002:00011036       $N00182                    10038036     dcw.exp
 0002:0001106f       $N00183                    1003806f     dcw.exp
 0002:000110a5       $N00184                    100380a5     dcw.exp
 0002:000110c0       $N00185                    100380c0     dcw.exp
 0002:000110f3       $N00186                    100380f3     dcw.exp
 0002:00011127       $N00187                    10038127     dcw.exp
 0002:00011158       $N00188                    10038158     dcw.exp
 0002:00011188       $N00189                    10038188     dcw.exp
 0002:000111bb       $N00190                    100381bb     dcw.exp
 0002:000111ec       $N00191                    100381ec     dcw.exp
 0002:0001121a       $N00192                    1003821a     dcw.exp
 0002:00011234       $N00193                    10038234     dcw.exp
 0002:00011294       $N00194                    10038294     dcw.exp
 0002:000112f9       $N00195                    100382f9     dcw.exp
 0002:00011353       $N00196                    10038353     dcw.exp
 0002:000113b2       $N00197                    100383b2     dcw.exp
 0002:0001140a       $N00198                    1003840a     dcw.exp
 0002:00011467       $N00199                    10038467     dcw.exp
 0002:000114c5       $N00200                    100384c5     dcw.exp
 0002:00011528       $N00201                    10038528     dcw.exp
 0002:00011582       $N00202                    10038582     dcw.exp
 0002:000115e1       $N00203                    100385e1     dcw.exp
 0002:00011635       $N00204                    10038635     dcw.exp
 0002:0001168e       $N00205                    1003868e     dcw.exp
 0002:000116e7       $N00206                    100386e7     dcw.exp
 0002:00011740       $N00207                    10038740     dcw.exp
 0002:0001177f       $N00208                    1003877f     dcw.exp
 0002:000117e0       $N00209                    100387e0     dcw.exp
 0002:0001181c       $N00210                    1003881c     dcw.exp
 0002:00011877       $N00211                    10038877     dcw.exp
 0002:000118b2       $N00212                    100388b2     dcw.exp
 0002:0001190b       $N00213                    1003890b     dcw.exp
 0002:00011949       $N00214                    10038949     dcw.exp
 0002:000119a8       $N00215                    100389a8     dcw.exp
 0002:000119e4       $N00216                    100389e4     dcw.exp
 0002:00011a3f       $N00217                    10038a3f     dcw.exp
 0002:00011a78       $N00218                    10038a78     dcw.exp
 0002:00011acd       $N00219                    10038acd     dcw.exp
 0002:00011b2b       $N00220                    10038b2b     dcw.exp
 0002:00011b5c       $N00221                    10038b5c     dcw.exp
 0002:00011bc9       $N00222                    10038bc9     dcw.exp
 0002:00011c3b       $N00223                    10038c3b     dcw.exp
 0002:00011ca2       $N00224                    10038ca2     dcw.exp
 0002:00011d0e       $N00225                    10038d0e     dcw.exp
 0002:00011d73       $N00226                    10038d73     dcw.exp
 0002:00011ddd       $N00227                    10038ddd     dcw.exp
 0002:00011e48       $N00228                    10038e48     dcw.exp
 0002:00011eb8       $N00229                    10038eb8     dcw.exp
 0002:00011f1f       $N00230                    10038f1f     dcw.exp
 0002:00011f8b       $N00231                    10038f8b     dcw.exp
 0002:00011fec       $N00232                    10038fec     dcw.exp
 0002:00012052       $N00233                    10039052     dcw.exp
 0002:00012094       $N00234                    10039094     dcw.exp
 0002:000120da       $N00235                    100390da     dcw.exp
 0002:00012123       $N00236                    10039123     dcw.exp
 0002:00012168       $N00237                    10039168     dcw.exp
 0002:000121aa       $N00238                    100391aa     dcw.exp
 0002:000121d6       $N00239                    100391d6     dcw.exp
 0002:000121f5       $N00240                    100391f5     dcw.exp
 0002:00012218       $N00241                    10039218     dcw.exp
 0002:0001223f       $N00242                    1003923f     dcw.exp
 0002:00012284       $N00243                    10039284     dcw.exp
 0002:000122c8       $N00244                    100392c8     dcw.exp
 0002:0001230c       $N00245                    1003930c     dcw.exp
 0002:000123a9       $N00246                    100393a9     dcw.exp
 0002:0001242e       $N00247                    1003942e     dcw.exp
 0002:000124c2       $N00248                    100394c2     dcw.exp
 0002:0001253e       $N00249                    1003953e     dcw.exp
 0002:000125cf       $N00250                    100395cf     dcw.exp
 0002:00012648       $N00251                    10039648     dcw.exp
 0002:000126e2       $N00252                    100396e2     dcw.exp
 0002:00012764       $N00253                    10039764     dcw.exp
 0002:000127f8       $N00254                    100397f8     dcw.exp
 0002:00012874       $N00255                    10039874     dcw.exp
 0002:000128ff       $N00256                    100398ff     dcw.exp
 0002:00012972       $N00257                    10039972     dcw.exp
 0002:000129b8       $N00258                    100399b8     dcw.exp
 0002:000129d2       $N00259                    100399d2     dcw.exp
 0002:00012a08       $N00260                    10039a08     dcw.exp
 0002:00012a3b       $N00261                    10039a3b     dcw.exp
 0002:00012a6d       $N00262                    10039a6d     dcw.exp
 0002:00012aa2       $N00263                    10039aa2     dcw.exp
 0002:00012ad5       $N00264                    10039ad5     dcw.exp
 0002:00012b05       $N00265                    10039b05     dcw.exp
 0002:00012b36       $N00266                    10039b36     dcw.exp
 0002:00012b6f       $N00267                    10039b6f     dcw.exp
 0002:00012bbc       $N00268                    10039bbc     dcw.exp
 0002:00012c06       $N00269                    10039c06     dcw.exp
 0002:00012c4f       $N00270                    10039c4f     dcw.exp
 0002:00012c9b       $N00271                    10039c9b     dcw.exp
 0002:00012ce5       $N00272                    10039ce5     dcw.exp
 0002:00012d2c       $N00273                    10039d2c     dcw.exp
 0002:00012d6d       $N00274                    10039d6d     dcw.exp
 0002:00012d88       $N00275                    10039d88     dcw.exp
 0002:00012daa       $N00276                    10039daa     dcw.exp
 0002:00012dc7       $N00277                    10039dc7     dcw.exp
 0002:00012de7       $N00278                    10039de7     dcw.exp
 0002:00012e18       $N00279                    10039e18     dcw.exp
 0002:00012e4f       $N00280                    10039e4f     dcw.exp
 0002:00012e8c       $N00281                    10039e8c     dcw.exp
 0002:00012ecb       $N00282                    10039ecb     dcw.exp
 0002:00012ee8       $N00283                    10039ee8     dcw.exp
 0002:00012f29       $N00284                    10039f29     dcw.exp
 0002:00012f59       $N00285                    10039f59     dcw.exp
 0002:00012f8b       $N00286                    10039f8b     dcw.exp
 0002:00012fc3       $N00287                    10039fc3     dcw.exp
 0002:00013011       $N00288                    1003a011     dcw.exp
 0002:0001305e       $N00289                    1003a05e     dcw.exp
 0002:000130a3       $N00290                    1003a0a3     dcw.exp
 0002:000130e4       $N00291                    1003a0e4     dcw.exp
 0002:00013114       $N00292                    1003a114     dcw.exp
 0002:0001313e       $N00293                    1003a13e     dcw.exp
 0002:00013172       $N00294                    1003a172     dcw.exp
 0002:000131a8       $N00295                    1003a1a8     dcw.exp
 0002:000131e1       $N00296                    1003a1e1     dcw.exp
 0002:0001322c       $N00297                    1003a22c     dcw.exp
 0002:0001326c       $N00298                    1003a26c     dcw.exp
 0002:000132ce       $N00299                    1003a2ce     dcw.exp
 0002:0001330b       $N00300                    1003a30b     dcw.exp
 0002:00013367       $N00301                    1003a367     dcw.exp
 0002:000133a3       $N00302                    1003a3a3     dcw.exp
 0002:000133fd       $N00303                    1003a3fd     dcw.exp
 0002:0001343c       $N00304                    1003a43c     dcw.exp
 0002:0001349c       $N00305                    1003a49c     dcw.exp
 0002:000134d9       $N00306                    1003a4d9     dcw.exp
 0002:00013535       $N00307                    1003a535     dcw.exp
 0002:0001356f       $N00308                    1003a56f     dcw.exp
 0002:000135c5       $N00309                    1003a5c5     dcw.exp
 0002:000135f6       $N00310                    1003a5f6     dcw.exp
 0002:0001363b       $N00311                    1003a63b     dcw.exp
 0002:0001366b       $N00312                    1003a66b     dcw.exp
 0002:000136a0       $N00313                    1003a6a0     dcw.exp
 0002:000136d4       $N00314                    1003a6d4     dcw.exp
 0002:00013712       $N00315                    1003a712     dcw.exp
 0002:0001375a       $N00316                    1003a75a     dcw.exp
 0002:00013799       $N00317                    1003a799     dcw.exp
 0002:0001381d       $N00318                    1003a81d     dcw.exp
 0002:00013898       $N00319                    1003a898     dcw.exp
 0002:00013910       $N00320                    1003a910     dcw.exp
 0002:00013991       $N00321                    1003a991     dcw.exp
 0002:00013a0c       $N00322                    1003aa0c     dcw.exp
 0002:00013a7e       $N00323                    1003aa7e     dcw.exp
 0002:00013ac5       $N00324                    1003aac5     dcw.exp
 0002:00013ad9       $N00325                    1003aad9     dcw.exp
 0002:00013afc       $N00326                    1003aafc     dcw.exp
 0002:00013b30       $N00327                    1003ab30     dcw.exp
 0002:00013b4c       $N00328                    1003ab4c     dcw.exp
 0002:00013b81       $N00329                    1003ab81     dcw.exp
 0002:00013bb3       $N00330                    1003abb3     dcw.exp
 0002:00013bee       $N00331                    1003abee     dcw.exp
 0002:00013c20       $N00332                    1003ac20     dcw.exp
 0002:00013c4f       $N00333                    1003ac4f     dcw.exp
 0002:00013c7d       $N00334                    1003ac7d     dcw.exp
 0002:00013cae       $N00335                    1003acae     dcw.exp
 0002:00013cdd       $N00336                    1003acdd     dcw.exp
 0002:00013d09       $N00337                    1003ad09     dcw.exp
 0002:00013d36       $N00338                    1003ad36     dcw.exp
 0002:00013d72       $N00339                    1003ad72     dcw.exp
 0002:00013db4       $N00340                    1003adb4     dcw.exp
 0002:00013df5       $N00341                    1003adf5     dcw.exp
 0002:00013e45       $N00342                    1003ae45     dcw.exp
 0002:00013e91       $N00343                    1003ae91     dcw.exp
 0002:00013edc       $N00344                    1003aedc     dcw.exp
 0002:00013f1a       $N00345                    1003af1a     dcw.exp
 0002:00013f48       $N00346                    1003af48     dcw.exp
 0002:00013f7a       $N00347                    1003af7a     dcw.exp
 0002:00013f9e       $N00348                    1003af9e     dcw.exp
 0002:00013fc6       $N00349                    1003afc6     dcw.exp
 0002:0001401d       $N00350                    1003b01d     dcw.exp
 0002:0001406e       $N00351                    1003b06e     dcw.exp
 0002:000140bd       $N00352                    1003b0bd     dcw.exp
 0002:00014112       $N00353                    1003b112     dcw.exp
 0002:00014163       $N00354                    1003b163     dcw.exp
 0002:000141ae       $N00355                    1003b1ae     dcw.exp
 0002:000141e5       $N00356                    1003b1e5     dcw.exp
 0002:0001697c       .idata$6                   1003d97c     bncs_cachedData:bncs_cachedData.dll
 0002:0001cdea       .idata$6                   10043dea     qt-mt323:qt-mt323.dll
 0002:0001ce50       .idata$6                   10043e50     kernel32:KERNEL32.dll
 0002:0001cf14       .idata$6                   10043f14     user32:USER32.dll
 0002:0001cf30       .idata$6                   10043f30     shell32:SHELL32.dll
 0002:0001cfd6       .idata$6                   10043fd6     msvcprt:MSVCP120.dll
 0002:0001d0b8       .idata$6                   100440b8     MSVCRT:MSVCR120.dll
 0003:00000010       ?param_slot_0@?3??staticMetaObject@bncs_client_runtime@@SAPAVQMetaObject@@XZ@4QBUQUParameter@@B 10055010     moc_bncs_client_runtime.obj
 0003:00000020       ?param_slot_2@?3??staticMetaObject@bncs_client_runtime@@SAPAVQMetaObject@@XZ@4QBUQUParameter@@B 10055020     moc_bncs_client_runtime.obj
 0003:00000030       ?param_slot_1@?3??staticMetaObject@connectionDebugDlg@@SAPAVQMetaObject@@XZ@4QBUQUParameter@@B 10055030     moc_connectiondebugdlgimpl.obj
 0003:00000fd8       __Tuple_alloc              10055fd8     bncs_client_runtime.obj
 0003:00000fd9       _ignore                    10055fd9     bncs_client_runtime.obj
 0003:00000fda       _allocator_arg             10055fda     bncs_client_runtime.obj
 0003:00000fdb       _piecewise_construct       10055fdb     bncs_client_runtime.obj
 0003:000010f0       __Tuple_alloc              100560f0     ccTimer.obj
 0003:000010f1       _ignore                    100560f1     ccTimer.obj
 0003:000010f2       _allocator_arg             100560f2     ccTimer.obj
 0003:000010f3       _piecewise_construct       100560f3     ccTimer.obj
 0003:0000110c       __Tuple_alloc              1005610c     dCW.obj
 0003:0000110d       _ignore                    1005610d     dCW.obj
 0003:0000110e       _allocator_arg             1005610e     dCW.obj
 0003:0000110f       _piecewise_construct       1005610f     dCW.obj
 0003:00001138       __Tuple_alloc              10056138     moc_bncs_client_runtime.obj
 0003:00001139       _ignore                    10056139     moc_bncs_client_runtime.obj
 0003:0000113a       _allocator_arg             1005613a     moc_bncs_client_runtime.obj
 0003:0000113b       _piecewise_construct       1005613b     moc_bncs_client_runtime.obj
 0003:0000113c       _cleanUp_bncs_client_runtime 1005613c     moc_bncs_client_runtime.obj
 0003:00001140       ?$S1@?3??staticMetaObject@bncs_client_runtime@@SAPAVQMetaObject@@XZ@4IA 10056140     moc_bncs_client_runtime.obj
 0003:00001144       ?param_signal_0@?3??staticMetaObject@bncs_client_runtime@@SAPAVQMetaObject@@XZ@4QBUQUParameter@@B 10056144     moc_bncs_client_runtime.obj
 0003:00001158       _cleanUp_connectionDebugDlgBase 10056158     moc_connectiondebugdlg.obj
 0003:00001160       _cleanUp_connectionDebugDlg 10056160     moc_connectiondebugdlgimpl.obj
 0003:00001164       ?$S1@?3??staticMetaObject@connectionDebugDlg@@SAPAVQMetaObject@@XZ@4IA 10056164     moc_connectiondebugdlgimpl.obj
 0003:00001168       ?param_signal_0@?3??staticMetaObject@connectionDebugDlg@@SAPAVQMetaObject@@XZ@4QBUQUParameter@@B 10056168     moc_connectiondebugdlgimpl.obj
 0003:00001188       _widgetFactories           10056188     qui:qwidgetfactory.obj
 0003:000011a8       _languageInterfaceManager  100561a8     qui:qwidgetfactory.obj
 0003:000011ac       _widgetInterfaceManager    100561ac     qui:qwidgetfactory.obj
 0003:000011b0       _availableWidgetMap        100561b0     qui:qwidgetfactory.obj
 0003:000011b4       _availableWidgetList       100561b4     qui:qwidgetfactory.obj
 0003:000011d0       _cleanUp_QDesignerDataBrowser2 100561d0     qui:moc_database2.obj
 0003:000011d4       _cleanUp_QDesignerDataView2 100561d4     qui:moc_database2.obj
 0003:000011e0       ___proc_attached           100561e0     MSVCRT:crtdll.obj
 0003:000011e8       _GS_ExceptionRecord        100561e8     MSVCRT:gs_report.obj
 0003:00001238       _GS_ContextRecord          10056238     MSVCRT:gs_report.obj
 0003:00001504       _DebuggerWasPresent        10056504     MSVCRT:gs_report.obj
 0004:000000a0       $R000000                   100570a0     Script1.res
 0004:000004a0       $R000400                   100574a0     Script1.res
