 dcwdb

 Timestamp is 5e9db7ee (Mon Apr 20 15:55:42 2020)

 Preferred load address is 10000000

 Start         Length     Name                   Class
 0001:00000000 0002c5d3H .textbss                DATA
 0002:00000000 0001ca0fH .text                   CODE
 0002:0001ca10 000018f9H .text$di                CODE
 0002:0001e310 00041c9bH .text$mn                CODE
 0002:0005ffb0 000067b0H .text$x                 CODE
 0002:00066760 00001304H .text$yd                CODE
 0003:00000000 00000104H .CRT$XCA                DATA
 0003:00000104 00000199H .CRT$XCU                DATA
 0003:000002a0 00000104H .CRT$XCZ                DATA
 0003:000003a4 00000104H .CRT$XIA                DATA
 0003:000004a8 00000104H .CRT$XIAA               DATA
 0003:000005ac 00000104H .CRT$XIC                DATA
 0003:000006b0 00000104H .CRT$XIZ                DATA
 0003:000007c0 0000b5e8H .rdata                  DATA
 0003:0000bda8 00000169H .rdata$debug            DATA
 0003:0000bf14 00001508H .rdata$r                DATA
 0003:0000d41c 00000104H .rtc$IAA                DATA
 0003:0000d520 00000134H .rtc$IMZ                DATA
 0003:0000d654 00000104H .rtc$IZZ                DATA
 0003:0000d758 00000104H .rtc$TAA                DATA
 0003:0000d85c 00000134H .rtc$TMZ                DATA
 0003:0000d990 00000104H .rtc$TZZ                DATA
 0003:0000da98 00003a40H .xdata$x                DATA
 0003:000114e0 00007ec4H .edata                  DATA
 0004:00000000 00000b6aH .data                   DATA
 0004:00000b6c 00000943H .data$r                 DATA
 0004:000014b0 000006a4H .bss                    DATA
 0005:00000000 00002df8H .idata$5                DATA
 0005:00002df8 0000008cH .idata$2                DATA
 0005:00002e84 00000014H .idata$3                DATA
 0005:00002e98 00002df8H .idata$4                DATA
 0005:00005c90 0001a33dH .idata$6                DATA
 0006:00000000 000001c0H .rsrc$01                DATA
 0006:000001c0 00000799H .rsrc$02                DATA

  Address         Publics by Value              Rva+Base       Lib:Object

 0000:00000000       __except_list              00000000     <absolute>
 0000:00000000       ___guard_fids_count        00000000     <absolute>
 0000:00000000       ___guard_fids_table        00000000     <absolute>
 0000:00000000       ___safe_se_handler_table   00000000     <absolute>
 0000:00000000       ___safe_se_handler_count   00000000     <absolute>
 0000:00000000       ___guard_flags             00000000     <absolute>
 0000:00009876       __fltused                  00009876     <absolute>
 0000:00009876       __ldused                   00009876     <absolute>
 0000:00000000       ___ImageBase               10000000     <linker-defined>
 0001:00000000       __enc$textbss$begin        10001000     <linker-defined>
 0001:0002c5d3       __enc$textbss$end          1002d5d3     <linker-defined>
 0002:000097f6       ??0QWidgetFactory@@QAE@XZ  100377f6 f   qui:qwidgetfactory.obj
 0002:000098c0       ??0QWidgetFactoryPrivate@@QAE@XZ 100378c0 f i qui:qwidgetfactory.obj
 0002:00009903       ??_GQWidgetFactory@@UAEPAXI@Z 10037903 f i qui:qwidgetfactory.obj
 0002:00009903       ??_EQWidgetFactory@@UAEPAXI@Z 10037903 f i qui:qwidgetfactory.obj
 0002:00009926       ??1QWidgetFactory@@UAE@XZ  10037926 f   qui:qwidgetfactory.obj
 0002:000099ce       ?create@QWidgetFactory@@SAPAVQWidget@@ABVQString@@PAVQObject@@PAV2@PBD@Z 100379ce f   qui:qwidgetfactory.obj
 0002:00009b2a       ?create@QWidgetFactory@@SAPAVQWidget@@PAVQIODevice@@PAVQObject@@PAV2@PBD@Z 10037b2a f   qui:qwidgetfactory.obj
 0002:0000a23d       ??_EQSqlCursor@@UAEPAXI@Z  1003823d f i qui:qwidgetfactory.obj
 0002:0000a23d       ??_GQSqlCursor@@UAEPAXI@Z  1003823d f i qui:qwidgetfactory.obj
 0002:0000a261       ?createFromUiFile@QWidgetFactory@@AAEPAVQWidget@@VQDomDocument@@PAVQObject@@PAV2@PBD@Z 10038261 f   qui:qwidgetfactory.obj
 0002:0000ad52       ?unpackUInt16@QWidgetFactory@@AAEXAAVQDataStream@@AAG@Z 10038d52 f   qui:qwidgetfactory.obj
 0002:0000ad93       ?unpackUInt32@QWidgetFactory@@AAEXAAVQDataStream@@AAI@Z 10038d93 f   qui:qwidgetfactory.obj
 0002:0000add4       ?unpackByteArray@QWidgetFactory@@AAEXAAVQDataStream@@AAV?$QMemArray@D@@@Z 10038dd4 f   qui:qwidgetfactory.obj
 0002:0000ae17       ?unpackCString@QWidgetFactory@@AAEXABVUibStrTable@@AAVQDataStream@@AAVQCString@@@Z 10038e17 f   qui:qwidgetfactory.obj
 0002:0000ae5f       ?unpackString@QWidgetFactory@@AAEXABVUibStrTable@@AAVQDataStream@@AAVQString@@@Z 10038e5f f   qui:qwidgetfactory.obj
 0002:0000aea1       ?asString@UibStrTable@@QBE?AVQString@@H@Z 10038ea1 f i qui:qwidgetfactory.obj
 0002:0000af6a       ?unpackStringSplit@QWidgetFactory@@AAEXABVUibStrTable@@AAVQDataStream@@AAVQString@@@Z 10038f6a f   qui:qwidgetfactory.obj
 0002:0000afc9       ?unpackVariant@QWidgetFactory@@AAEXABVUibStrTable@@AAVQDataStream@@AAVQVariant@@@Z 10038fc9 f   qui:qwidgetfactory.obj
 0002:0000b585       ?inputSpacer@QWidgetFactory@@AAEXABVUibStrTable@@AAVQDataStream@@PAVQLayout@@@Z 10039585 f   qui:qwidgetfactory.obj
 0002:0000b935       ?inputColumnOrRow@QWidgetFactory@@AAEXABVUibStrTable@@AAVQDataStream@@PAVQObject@@_N@Z 10039935 f   qui:qwidgetfactory.obj
 0002:0000bc88       ?inputItem@QWidgetFactory@@AAEXABVUibStrTable@@AAVQDataStream@@PAVQObject@@PAVQListViewItem@@@Z 10039c88 f   qui:qwidgetfactory.obj
 0002:0000c05f       ??_EQListBoxText@@UAEPAXI@Z 1003a05f f i qui:qwidgetfactory.obj
 0002:0000c05f       ??_GQListBoxText@@UAEPAXI@Z 1003a05f f i qui:qwidgetfactory.obj
 0002:0000c083       ??_GQListBoxPixmap@@UAEPAXI@Z 1003a083 f i qui:qwidgetfactory.obj
 0002:0000c083       ??_EQListBoxPixmap@@UAEPAXI@Z 1003a083 f i qui:qwidgetfactory.obj
 0002:0000c0a7       ??_EQIconViewItem@@UAEPAXI@Z 1003a0a7 f i qui:qwidgetfactory.obj
 0002:0000c0a7       ??_GQIconViewItem@@UAEPAXI@Z 1003a0a7 f i qui:qwidgetfactory.obj
 0002:0000c0cb       ?inputMenuItem@QWidgetFactory@@AAEXPAPAVQObject@@ABVUibStrTable@@AAVQDataStream@@PAVQMenuBar@@@Z 1003a0cb f   qui:qwidgetfactory.obj
 0002:0000c260       ??_EQPopupMenu@@UAEPAXI@Z  1003a260 f i qui:qwidgetfactory.obj
 0002:0000c260       ??_GQPopupMenu@@UAEPAXI@Z  1003a260 f i qui:qwidgetfactory.obj
 0002:0000c284       ?inputObject@QWidgetFactory@@AAEPAVQObject@@PAPAV2@AAHABVUibStrTable@@AAVQDataStream@@PAVQWidget@@PAV2@VQCString@@@Z 1003a284 f   qui:qwidgetfactory.obj
 0002:0000cef3       ??_GQActionGroup@@UAEPAXI@Z 1003aef3 f i qui:qwidgetfactory.obj
 0002:0000cef3       ??_EQActionGroup@@UAEPAXI@Z 1003aef3 f i qui:qwidgetfactory.obj
 0002:0000cf17       ??_EQAction@@UAEPAXI@Z     1003af17 f i qui:qwidgetfactory.obj
 0002:0000cf17       ??_GQAction@@UAEPAXI@Z     1003af17 f i qui:qwidgetfactory.obj
 0002:0000cf3b       ??_EQToolBar@@UAEPAXI@Z    1003af3b f i qui:qwidgetfactory.obj
 0002:0000cf3b       ??_GQToolBar@@UAEPAXI@Z    1003af3b f i qui:qwidgetfactory.obj
 0002:0000cf5f       ?createFromUibFile@QWidgetFactory@@AAEPAVQWidget@@AAVQDataStream@@PAVQObject@@PAV2@PBD@Z 1003af5f f   qui:qwidgetfactory.obj
 0002:0000d6e9       ?readBlock@UibStrTable@@QAEXAAVQDataStream@@H@Z 1003b6e9 f i qui:qwidgetfactory.obj
 0002:0000d8fc       ?addWidgetFactory@QWidgetFactory@@SAXPAV1@@Z 1003b8fc f   qui:qwidgetfactory.obj
 0002:0000d910       ?createWidget@QWidgetFactory@@UBEPAVQWidget@@ABVQString@@PAV2@PBD@Z 1003b910 f   qui:qwidgetfactory.obj
 0002:0000ea32       ??_EQToolButton@@UAEPAXI@Z 1003ca32 f i qui:qwidgetfactory.obj
 0002:0000ea32       ??_GQToolButton@@UAEPAXI@Z 1003ca32 f i qui:qwidgetfactory.obj
 0002:0000ea56       ??_EQRadioButton@@UAEPAXI@Z 1003ca56 f i qui:qwidgetfactory.obj
 0002:0000ea56       ??_GQRadioButton@@UAEPAXI@Z 1003ca56 f i qui:qwidgetfactory.obj
 0002:0000ea7a       ??_EQGroupBox@@UAEPAXI@Z   1003ca7a f i qui:qwidgetfactory.obj
 0002:0000ea7a       ??_GQGroupBox@@UAEPAXI@Z   1003ca7a f i qui:qwidgetfactory.obj
 0002:0000ea9e       ??_EQButtonGroup@@UAEPAXI@Z 1003ca9e f i qui:qwidgetfactory.obj
 0002:0000ea9e       ??_GQButtonGroup@@UAEPAXI@Z 1003ca9e f i qui:qwidgetfactory.obj
 0002:0000eac2       ??_EQIconView@@UAEPAXI@Z   1003cac2 f i qui:qwidgetfactory.obj
 0002:0000eac2       ??_GQIconView@@UAEPAXI@Z   1003cac2 f i qui:qwidgetfactory.obj
 0002:0000eae6       ??_EQTable@@UAEPAXI@Z      1003cae6 f i qui:qwidgetfactory.obj
 0002:0000eae6       ??_GQTable@@UAEPAXI@Z      1003cae6 f i qui:qwidgetfactory.obj
 0002:0000eb0a       ??_GQListBox@@UAEPAXI@Z    1003cb0a f i qui:qwidgetfactory.obj
 0002:0000eb0a       ??_EQListBox@@UAEPAXI@Z    1003cb0a f i qui:qwidgetfactory.obj
 0002:0000eb2e       ??_GQListView@@UAEPAXI@Z   1003cb2e f i qui:qwidgetfactory.obj
 0002:0000eb2e       ??_EQListView@@UAEPAXI@Z   1003cb2e f i qui:qwidgetfactory.obj
 0002:0000eb52       ??_EQLineEdit@@UAEPAXI@Z   1003cb52 f i qui:qwidgetfactory.obj
 0002:0000eb52       ??_GQLineEdit@@UAEPAXI@Z   1003cb52 f i qui:qwidgetfactory.obj
 0002:0000eb76       ??_EQSpinBox@@UAEPAXI@Z    1003cb76 f i qui:qwidgetfactory.obj
 0002:0000eb76       ??_GQSpinBox@@UAEPAXI@Z    1003cb76 f i qui:qwidgetfactory.obj
 0002:0000eb9a       ??_EQMultiLineEdit@@UAEPAXI@Z 1003cb9a f i qui:qwidgetfactory.obj
 0002:0000eb9a       ??_GQMultiLineEdit@@UAEPAXI@Z 1003cb9a f i qui:qwidgetfactory.obj
 0002:0000ebbe       ??_GQLabel@@UAEPAXI@Z      1003cbbe f i qui:qwidgetfactory.obj
 0002:0000ebbe       ??_EQLabel@@UAEPAXI@Z      1003cbbe f i qui:qwidgetfactory.obj
 0002:0000ebe2       ??_EQWidget@@UAEPAXI@Z     1003cbe2 f i qui:qwidgetfactory.obj
 0002:0000ebe2       ??_GQWidget@@UAEPAXI@Z     1003cbe2 f i qui:qwidgetfactory.obj
 0002:0000ec06       ??_EQTabWidget@@UAEPAXI@Z  1003cc06 f i qui:qwidgetfactory.obj
 0002:0000ec06       ??_GQTabWidget@@UAEPAXI@Z  1003cc06 f i qui:qwidgetfactory.obj
 0002:0000ec2a       ??_GQComboBox@@UAEPAXI@Z   1003cc2a f i qui:qwidgetfactory.obj
 0002:0000ec2a       ??_EQComboBox@@UAEPAXI@Z   1003cc2a f i qui:qwidgetfactory.obj
 0002:0000ec4e       ??_EQDialog@@UAEPAXI@Z     1003cc4e f i qui:qwidgetfactory.obj
 0002:0000ec4e       ??_GQDialog@@UAEPAXI@Z     1003cc4e f i qui:qwidgetfactory.obj
 0002:0000ec72       ??_GQWizard@@UAEPAXI@Z     1003cc72 f i qui:qwidgetfactory.obj
 0002:0000ec72       ??_EQWizard@@UAEPAXI@Z     1003cc72 f i qui:qwidgetfactory.obj
 0002:0000ec96       ??_GQLCDNumber@@UAEPAXI@Z  1003cc96 f i qui:qwidgetfactory.obj
 0002:0000ec96       ??_EQLCDNumber@@UAEPAXI@Z  1003cc96 f i qui:qwidgetfactory.obj
 0002:0000ecba       ??_GQProgressBar@@UAEPAXI@Z 1003ccba f i qui:qwidgetfactory.obj
 0002:0000ecba       ??_EQProgressBar@@UAEPAXI@Z 1003ccba f i qui:qwidgetfactory.obj
 0002:0000ecef       ??_EQTextView@@UAEPAXI@Z   1003ccef f i qui:qwidgetfactory.obj
 0002:0000ecef       ??_GQTextView@@UAEPAXI@Z   1003ccef f i qui:qwidgetfactory.obj
 0002:0000ed13       ??_EQTextBrowser@@UAEPAXI@Z 1003cd13 f i qui:qwidgetfactory.obj
 0002:0000ed13       ??_GQTextBrowser@@UAEPAXI@Z 1003cd13 f i qui:qwidgetfactory.obj
 0002:0000ed37       ??_EQDial@@UAEPAXI@Z       1003cd37 f i qui:qwidgetfactory.obj
 0002:0000ed37       ??_GQDial@@UAEPAXI@Z       1003cd37 f i qui:qwidgetfactory.obj
 0002:0000ed5b       ??_GQSlider@@UAEPAXI@Z     1003cd5b f i qui:qwidgetfactory.obj
 0002:0000ed5b       ??_EQSlider@@UAEPAXI@Z     1003cd5b f i qui:qwidgetfactory.obj
 0002:0000ed7f       ??_GQFrame@@UAEPAXI@Z      1003cd7f f i qui:qwidgetfactory.obj
 0002:0000ed7f       ??_EQFrame@@UAEPAXI@Z      1003cd7f f i qui:qwidgetfactory.obj
 0002:0000eda3       ??_EQSplitter@@UAEPAXI@Z   1003cda3 f i qui:qwidgetfactory.obj
 0002:0000eda3       ??_GQSplitter@@UAEPAXI@Z   1003cda3 f i qui:qwidgetfactory.obj
 0002:0000edc7       ??_GQDateEdit@@UAEPAXI@Z   1003cdc7 f i qui:qwidgetfactory.obj
 0002:0000edc7       ??_EQDateEdit@@UAEPAXI@Z   1003cdc7 f i qui:qwidgetfactory.obj
 0002:0000edeb       ??_EQTimeEdit@@UAEPAXI@Z   1003cdeb f i qui:qwidgetfactory.obj
 0002:0000edeb       ??_GQTimeEdit@@UAEPAXI@Z   1003cdeb f i qui:qwidgetfactory.obj
 0002:0000ee0f       ??_EQDateTimeEdit@@UAEPAXI@Z 1003ce0f f i qui:qwidgetfactory.obj
 0002:0000ee0f       ??_GQDateTimeEdit@@UAEPAXI@Z 1003ce0f f i qui:qwidgetfactory.obj
 0002:0000ee33       ??_EQScrollBar@@UAEPAXI@Z  1003ce33 f i qui:qwidgetfactory.obj
 0002:0000ee33       ??_GQScrollBar@@UAEPAXI@Z  1003ce33 f i qui:qwidgetfactory.obj
 0002:0000ee57       ??_GQWidgetStack@@UAEPAXI@Z 1003ce57 f i qui:qwidgetfactory.obj
 0002:0000ee57       ??_EQWidgetStack@@UAEPAXI@Z 1003ce57 f i qui:qwidgetfactory.obj
 0002:0000ee7b       ??_GQToolBox@@UAEPAXI@Z    1003ce7b f i qui:qwidgetfactory.obj
 0002:0000ee7b       ??_EQToolBox@@UAEPAXI@Z    1003ce7b f i qui:qwidgetfactory.obj
 0002:0000ee9f       ??_EQVBox@@UAEPAXI@Z       1003ce9f f i qui:qwidgetfactory.obj
 0002:0000ee9f       ??_GQVBox@@UAEPAXI@Z       1003ce9f f i qui:qwidgetfactory.obj
 0002:0000eec3       ??_EQHBox@@UAEPAXI@Z       1003cec3 f i qui:qwidgetfactory.obj
 0002:0000eec3       ??_GQHBox@@UAEPAXI@Z       1003cec3 f i qui:qwidgetfactory.obj
 0002:0000eee7       ??_EQGrid@@UAEPAXI@Z       1003cee7 f i qui:qwidgetfactory.obj
 0002:0000eee7       ??_GQGrid@@UAEPAXI@Z       1003cee7 f i qui:qwidgetfactory.obj
 0002:0000ef0b       ??_GQMainWindow@@UAEPAXI@Z 1003cf0b f i qui:qwidgetfactory.obj
 0002:0000ef0b       ??_EQMainWindow@@UAEPAXI@Z 1003cf0b f i qui:qwidgetfactory.obj
 0002:0000ef2f       ??_EQDataTable@@UAEPAXI@Z  1003cf2f f i qui:qwidgetfactory.obj
 0002:0000ef2f       ??_GQDataTable@@UAEPAXI@Z  1003cf2f f i qui:qwidgetfactory.obj
 0002:0000ef53       ?widgets@QWidgetFactory@@SA?AVQStringList@@XZ 1003cf53 f   qui:qwidgetfactory.obj
 0002:0000f9f8       ?supportsWidget@QWidgetFactory@@SA_NABVQString@@@Z 1003d9f8 f   qui:qwidgetfactory.obj
 0002:0000fa5e       ?createWidgetInternal@QWidgetFactory@@AAEPAVQWidget@@ABVQDomElement@@PAV2@PAVQLayout@@ABVQString@@@Z 1003da5e f   qui:qwidgetfactory.obj
 0002:0001060d       ?createLayout@QWidgetFactory@@AAEPAVQLayout@@PAVQWidget@@PAV2@W4LayoutType@1@_N@Z 1003e60d f   qui:qwidgetfactory.obj
 0002:00010906       ??_EQGridLayout@@UAEPAXI@Z 1003e906 f i qui:qwidgetfactory.obj
 0002:00010906       ??_GQGridLayout@@UAEPAXI@Z 1003e906 f i qui:qwidgetfactory.obj
 0002:0001092a       ?layoutType@QWidgetFactory@@ABE?AW4LayoutType@1@PAVQLayout@@@Z 1003e92a f   qui:qwidgetfactory.obj
 0002:0001097f       ?setProperty@QWidgetFactory@@AAEXPAVQObject@@ABVQString@@VQVariant@@@Z 1003e97f f   qui:qwidgetfactory.obj
 0002:000110bc       ??0SqlWidgetConnection@QWidgetFactory@@QAE@ABVQString@@0@Z 1003f0bc f i qui:qwidgetfactory.obj
 0002:00011105       ?setProperty@QWidgetFactory@@AAEXPAVQObject@@ABVQString@@ABVQDomElement@@@Z 1003f105 f   qui:qwidgetfactory.obj
 0002:0001165b       ?createSpacer@QWidgetFactory@@AAEXABVQDomElement@@PAVQLayout@@@Z 1003f65b f   qui:qwidgetfactory.obj
 0002:00011c4e       ?loadImageCollection@QWidgetFactory@@AAEXABVQDomElement@@@Z 1003fc4e f   qui:qwidgetfactory.obj
 0002:0001208c       ?loadFromCollection@QWidgetFactory@@AAE?AVQImage@@ABVQString@@@Z 1004008c f   qui:qwidgetfactory.obj
 0002:00012116       ?loadPixmap@QWidgetFactory@@AAE?AVQPixmap@@ABVQString@@@Z 10040116 f   qui:qwidgetfactory.obj
 0002:000121b1       ?loadPixmap@QWidgetFactory@@AAE?AVQPixmap@@ABVQDomElement@@@Z 100401b1 f   qui:qwidgetfactory.obj
 0002:00012221       ?loadColorGroup@QWidgetFactory@@AAE?AVQColorGroup@@ABVQDomElement@@@Z 10040221 f   qui:qwidgetfactory.obj
 0002:000123ef       ?loadConnections@QWidgetFactory@@AAEXABVQDomElement@@PAVQObject@@@Z 100403ef f   qui:qwidgetfactory.obj
 0002:00013016       ??0Connection@@QAE@XZ      10041016 f i qui:qwidgetfactory.obj
 0002:00013068       ?loadTabOrder@QWidgetFactory@@AAEXABVQDomElement@@@Z 10041068 f   qui:qwidgetfactory.obj
 0002:00013208       ?createListViewColumn@QWidgetFactory@@AAEXPAVQListView@@ABVQString@@ABVQPixmap@@_N3@Z 10041208 f   qui:qwidgetfactory.obj
 0002:00013319       ?createTableColumnOrRow@QWidgetFactory@@AAEXPAVQTable@@ABVQString@@ABVQPixmap@@1_N@Z 10041319 f   qui:qwidgetfactory.obj
 0002:000135b3       ??1Field@QWidgetFactory@@QAE@XZ 100415b3 f i qui:qwidgetfactory.obj
 0002:000135d9       ?createColumn@QWidgetFactory@@AAEXABVQDomElement@@PAVQWidget@@@Z 100415d9 f   qui:qwidgetfactory.obj
 0002:00013d83       ?loadItem@QWidgetFactory@@AAEXABVQDomElement@@AAVQPixmap@@AAVQString@@AA_N@Z 10041d83 f   qui:qwidgetfactory.obj
 0002:00013fe3       ?createItem@QWidgetFactory@@AAEXABVQDomElement@@PAVQWidget@@PAVQListViewItem@@@Z 10041fe3 f   qui:qwidgetfactory.obj
 0002:00014662       ??_EQListViewItem@@UAEPAXI@Z 10042662 f i qui:qwidgetfactory.obj
 0002:00014662       ??_GQListViewItem@@UAEPAXI@Z 10042662 f i qui:qwidgetfactory.obj
 0002:00014686       ?loadChildAction@QWidgetFactory@@AAEXPAVQObject@@ABVQDomElement@@@Z 10042686 f   qui:qwidgetfactory.obj
 0002:00014aa3       ?loadActions@QWidgetFactory@@AAEXABVQDomElement@@@Z 10042aa3 f   qui:qwidgetfactory.obj
 0002:00014bc3       ?loadToolBars@QWidgetFactory@@AAEXABVQDomElement@@@Z 10042bc3 f   qui:qwidgetfactory.obj
 0002:000150d2       ?loadMenuBar@QWidgetFactory@@AAEXABVQDomElement@@@Z 100430d2 f   qui:qwidgetfactory.obj
 0002:000153fa       ?loadPopupMenu@QWidgetFactory@@AAEXPAVQPopupMenu@@ABVQDomElement@@@Z 100433fa f   qui:qwidgetfactory.obj
 0002:0001585d       ?loadFunctions@QWidgetFactory@@AAEXABVQDomElement@@@Z 1004385d f   qui:qwidgetfactory.obj
 0002:00015860       ?findAction@QWidgetFactory@@AAEPAVQAction@@ABVQString@@@Z 10043860 f   qui:qwidgetfactory.obj
 0002:000158f7       ?loadImages@QWidgetFactory@@SAXABVQString@@@Z 100438f7 f   qui:qwidgetfactory.obj
 0002:00015a5a       ?loadExtraSource@QWidgetFactory@@AAEXXZ 10043a5a f   qui:qwidgetfactory.obj
 0002:00015b9a       ?translate@QWidgetFactory@@AAE?AVQString@@ABV2@0@Z 10043b9a f   qui:qwidgetfactory.obj
 0002:00015c19       ?translate@QWidgetFactory@@AAE?AVQString@@PBD0@Z 10043c19 f   qui:qwidgetfactory.obj
 0002:00015c4e       ??0?$QValueList@UImage@QWidgetFactory@@@@QAE@XZ 10043c4e f i qui:qwidgetfactory.obj
 0002:00015c76       ?append@?$QValueList@UImage@QWidgetFactory@@@@QAE?AV?$QValueListIterator@UImage@QWidgetFactory@@@@ABUImage@QWidgetFactory@@@Z 10043c76 f i qui:qwidgetfactory.obj
 0002:00015cb2       ?end@?$QValueList@UImage@QWidgetFactory@@@@QAE?AV?$QValueListIterator@UImage@QWidgetFactory@@@@XZ 10043cb2 f i qui:qwidgetfactory.obj
 0002:00015cd8       ??0?$QMap@VQString@@VQStringList@@@@QAE@XZ 10043cd8 f i qui:qwidgetfactory.obj
 0002:00015d00       ??1?$QMap@VQString@@VQStringList@@@@QAE@XZ 10043d00 f i qui:qwidgetfactory.obj
 0002:00015d24       ??0?$QMap@PAVQWidget@@USqlWidgetConnection@QWidgetFactory@@@@QAE@XZ 10043d24 f i qui:qwidgetfactory.obj
 0002:00015d4c       ??1?$QMap@PAVQWidget@@USqlWidgetConnection@QWidgetFactory@@@@QAE@XZ 10043d4c f i qui:qwidgetfactory.obj
 0002:00015d70       ??0?$QMap@PAVQTable@@V?$QValueList@UField@QWidgetFactory@@@@@@QAE@XZ 10043d70 f i qui:qwidgetfactory.obj
 0002:00015d98       ??1?$QMap@PAVQTable@@V?$QValueList@UField@QWidgetFactory@@@@@@QAE@XZ 10043d98 f i qui:qwidgetfactory.obj
 0002:00015dbc       ?count@?$QPtrList@VQAction@@@@UBEIXZ 10043dbc f i qui:qwidgetfactory.obj
 0002:00015dc0       ?clear@?$QPtrList@VQAction@@@@UAEXXZ 10043dc0 f i qui:qwidgetfactory.obj
 0002:00015dc6       ??1?$QDict@_N@@UAE@XZ      10043dc6 f i qui:qwidgetfactory.obj
 0002:00015de5       ?count@?$QDict@_N@@UBEIXZ  10043de5 f i qui:qwidgetfactory.obj
 0002:00015de9       ?clear@?$QDict@_N@@UAEXXZ  10043de9 f i qui:qwidgetfactory.obj
 0002:00015def       ?count@?$QPtrList@VQWidgetFactory@@@@UBEIXZ 10043def f i qui:qwidgetfactory.obj
 0002:00015df3       ?clear@?$QPtrList@VQWidgetFactory@@@@UAEXXZ 10043df3 f i qui:qwidgetfactory.obj
 0002:00015df9       ??0?$QMap@VQString@@_N@@QAE@XZ 10043df9 f i qui:qwidgetfactory.obj
 0002:00015e21       ??0?$QMap@PAVQWidget@@VQString@@@@QAE@XZ 10043e21 f i qui:qwidgetfactory.obj
 0002:00015e49       ??0?$QValueList@UField@QWidgetFactory@@@@QAE@XZ 10043e49 f i qui:qwidgetfactory.obj
 0002:00015e71       ?append@?$QValueList@UField@QWidgetFactory@@@@QAE?AV?$QValueListIterator@UField@QWidgetFactory@@@@ABUField@QWidgetFactory@@@Z 10043e71 f i qui:qwidgetfactory.obj
 0002:00015ead       ??0?$QValueList@VQPixmap@@@@QAE@XZ 10043ead f i qui:qwidgetfactory.obj
 0002:00015ed5       ??_G?$QPtrList@VQAction@@@@UAEPAXI@Z 10043ed5 f i qui:qwidgetfactory.obj
 0002:00015ed5       ??_E?$QPtrList@VQAction@@@@UAEPAXI@Z 10043ed5 f i qui:qwidgetfactory.obj
 0002:00015f0a       ??_E?$QDict@_N@@UAEPAXI@Z  10043f0a f i qui:qwidgetfactory.obj
 0002:00015f0a       ??_G?$QDict@_N@@UAEPAXI@Z  10043f0a f i qui:qwidgetfactory.obj
 0002:00015f3f       ??_E?$QPtrList@VQWidgetFactory@@@@UAEPAXI@Z 10043f3f f i qui:qwidgetfactory.obj
 0002:00015f3f       ??_G?$QPtrList@VQWidgetFactory@@@@UAEPAXI@Z 10043f3f f i qui:qwidgetfactory.obj
 0002:00015f74       ?end@?$QValueList@UField@QWidgetFactory@@@@QAE?AV?$QValueListIterator@UField@QWidgetFactory@@@@XZ 10043f74 f i qui:qwidgetfactory.obj
 0002:00015f9a       ?append@?$QValueList@VQPixmap@@@@QAE?AV?$QValueListIterator@VQPixmap@@@@ABVQPixmap@@@Z 10043f9a f i qui:qwidgetfactory.obj
 0002:00015fd6       ?end@?$QValueList@VQPixmap@@@@QAE?AV?$QValueListIterator@VQPixmap@@@@XZ 10043fd6 f i qui:qwidgetfactory.obj
 0002:00015ffc       ?derefAndDelete@?$QValueListPrivate@VQString@@@@QAEXXZ 10043ffc f i qui:qwidgetfactory.obj
 0002:00016010       ?derefAndDelete@?$QValueListPrivate@UImage@QWidgetFactory@@@@QAEXXZ 10044010 f i qui:qwidgetfactory.obj
 0002:00016024       ??1?$QMapPrivate@VQString@@VQStringList@@@@QAE@XZ 10044024 f i qui:qwidgetfactory.obj
 0002:00016042       ?begin@?$QMapPrivate@VQString@@VQStringList@@@@QAE?AV?$QMapIterator@VQString@@VQStringList@@@@XZ 10044042 f i qui:qwidgetfactory.obj
 0002:00016053       ??1?$QMapPrivate@PAVQWidget@@USqlWidgetConnection@QWidgetFactory@@@@QAE@XZ 10044053 f i qui:qwidgetfactory.obj
 0002:00016071       ?begin@?$QMapPrivate@PAVQWidget@@USqlWidgetConnection@QWidgetFactory@@@@QAE?AV?$QMapIterator@PAVQWidget@@USqlWidgetConnection@QWidgetFactory@@@@XZ 10044071 f i qui:qwidgetfactory.obj
 0002:00016082       ??1?$QMapPrivate@PAVQTable@@V?$QValueList@UField@QWidgetFactory@@@@@@QAE@XZ 10044082 f i qui:qwidgetfactory.obj
 0002:000160aa       ?derefAndDelete@?$QValueListPrivate@UField@QWidgetFactory@@@@QAEXXZ 100440aa f i qui:qwidgetfactory.obj
 0002:000160be       ?derefAndDelete@?$QValueListPrivate@VQPixmap@@@@QAEXXZ 100440be f i qui:qwidgetfactory.obj
 0002:000160d2       ??_G?$QMapNode@VQString@@VQStringList@@@@QAEPAXI@Z 100440d2 f i qui:qwidgetfactory.obj
 0002:00016104       ??_G?$QMapNode@PAVQWidget@@USqlWidgetConnection@QWidgetFactory@@@@QAEPAXI@Z 10044104 f i qui:qwidgetfactory.obj
 0002:0001613c       ?inc@?$QMapIterator@VQString@@V1@@@AAEHXZ 1004413c f i qui:qwidgetfactory.obj
 0002:00016175       ?detachInternal@?$QValueList@UImage@QWidgetFactory@@@@AAEXXZ 10044175 f i qui:qwidgetfactory.obj
 0002:000161a5       ?inc@?$QMapIterator@VQString@@VQStringList@@@@AAEHXZ 100441a5 f i qui:qwidgetfactory.obj
 0002:000161de       ?insert@?$QMap@VQString@@VQStringList@@@@QAE?AV?$QMapIterator@VQString@@VQStringList@@@@ABVQString@@ABVQStringList@@_N@Z 100441de f i qui:qwidgetfactory.obj
 0002:0001624f       ?detachInternal@?$QMap@VQString@@VQStringList@@@@AAEXXZ 1004424f f i qui:qwidgetfactory.obj
 0002:0001627c       ?inc@?$QMapIterator@PAVQWidget@@USqlWidgetConnection@QWidgetFactory@@@@AAEHXZ 1004427c f i qui:qwidgetfactory.obj
 0002:000162b5       ?insert@?$QMap@PAVQWidget@@USqlWidgetConnection@QWidgetFactory@@@@QAE?AV?$QMapIterator@PAVQWidget@@USqlWidgetConnection@QWidgetFactory@@@@ABQAVQWidget@@ABUSqlWidgetConnection@QWidgetFactory@@_N@Z 100442b5 f i qui:qwidgetfactory.obj
 0002:00016316       ?detachInternal@?$QMap@PAVQWidget@@USqlWidgetConnection@QWidgetFactory@@@@AAEXXZ 10044316 f i qui:qwidgetfactory.obj
 0002:00016343       ?insert@?$QMap@PAVQTable@@V?$QValueList@UField@QWidgetFactory@@@@@@QAE?AV?$QMapIterator@PAVQTable@@V?$QValueList@UField@QWidgetFactory@@@@@@ABQAVQTable@@ABV?$QValueList@UField@QWidgetFactory@@@@_N@Z 10044343 f i qui:qwidgetfactory.obj
 0002:000163b4       ?remove@?$QMap@PAVQTable@@V?$QValueList@UField@QWidgetFactory@@@@@@QAEXABQAVQTable@@@Z 100443b4 f i qui:qwidgetfactory.obj
 0002:00016410       ?detachInternal@?$QMap@PAVQTable@@V?$QValueList@UField@QWidgetFactory@@@@@@AAEXXZ 10044410 f i qui:qwidgetfactory.obj
 0002:0001643d       ?deleteItem@?$QPtrList@VQAction@@@@EAEXPAX@Z 1004443d f i qui:qwidgetfactory.obj
 0002:0001645b       ?deleteItem@?$QDict@_N@@EAEXPAX@Z 1004445b f i qui:qwidgetfactory.obj
 0002:00016472       ?deleteItem@?$QPtrList@VQWidgetFactory@@@@EAEXPAX@Z 10044472 f i qui:qwidgetfactory.obj
 0002:0001648e       ?detachInternal@?$QMap@VQString@@_N@@AAEXXZ 1004448e f i qui:qwidgetfactory.obj
 0002:000164bb       ?insert@?$QMap@PAVQWidget@@VQString@@@@QAE?AV?$QMapIterator@PAVQWidget@@VQString@@@@ABQAVQWidget@@ABVQString@@_N@Z 100444bb f i qui:qwidgetfactory.obj
 0002:0001651d       ?detachInternal@?$QValueList@UField@QWidgetFactory@@@@AAEXXZ 1004451d f i qui:qwidgetfactory.obj
 0002:0001654d       ?detachInternal@?$QValueList@VQPixmap@@@@AAEXXZ 1004454d f i qui:qwidgetfactory.obj
 0002:0001657d       ?find@?$QValueListPrivate@VQString@@@@QBEPAV?$QValueListNode@VQString@@@@PAV2@ABVQString@@@Z 1004457d f i qui:qwidgetfactory.obj
 0002:000165ba       ?at@?$QValueListPrivate@VQString@@@@QBEPAV?$QValueListNode@VQString@@@@I@Z 100445ba f i qui:qwidgetfactory.obj
 0002:00016608       ??0?$QValueListPrivate@UImage@QWidgetFactory@@@@QAE@XZ 10044608 f i qui:qwidgetfactory.obj
 0002:00016655       ?insert@?$QValueListPrivate@UImage@QWidgetFactory@@@@QAE?AV?$QValueListIterator@UImage@QWidgetFactory@@@@V2@ABUImage@QWidgetFactory@@@Z 10044655 f i qui:qwidgetfactory.obj
 0002:000166a8       ??0?$QMapPrivate@VQString@@VQStringList@@@@QAE@XZ 100446a8 f i qui:qwidgetfactory.obj
 0002:00016711       ?clear@?$QMapPrivate@VQString@@VQStringList@@@@QAEXXZ 10044711 f i qui:qwidgetfactory.obj
 0002:0001674b       ??0?$QMapPrivate@PAVQWidget@@USqlWidgetConnection@QWidgetFactory@@@@QAE@XZ 1004474b f i qui:qwidgetfactory.obj
 0002:000167b9       ?clear@?$QMapPrivate@PAVQWidget@@USqlWidgetConnection@QWidgetFactory@@@@QAEXXZ 100447b9 f i qui:qwidgetfactory.obj
 0002:000167f3       ??0?$QMapPrivate@PAVQTable@@V?$QValueList@UField@QWidgetFactory@@@@@@QAE@XZ 100447f3 f i qui:qwidgetfactory.obj
 0002:0001684f       ?clear@?$QMapPrivate@PAVQTable@@V?$QValueList@UField@QWidgetFactory@@@@@@QAEXXZ 1004484f f i qui:qwidgetfactory.obj
 0002:00016889       ?find@?$QMapPrivate@PAVQTable@@V?$QValueList@UField@QWidgetFactory@@@@@@QBE?AV?$QMapConstIterator@PAVQTable@@V?$QValueList@UField@QWidgetFactory@@@@@@ABQAVQTable@@@Z 10044889 f i qui:qwidgetfactory.obj
 0002:000168de       ??0?$QMapPrivate@VQString@@_N@@QAE@XZ 100448de f i qui:qwidgetfactory.obj
 0002:0001693b       ?find@?$QMapPrivate@VQString@@_N@@QBE?AV?$QMapConstIterator@VQString@@_N@@ABVQString@@@Z 1004493b f i qui:qwidgetfactory.obj
 0002:000169b0       ??0?$QMapPrivate@PAVQWidget@@VQString@@@@QAE@XZ 100449b0 f i qui:qwidgetfactory.obj
 0002:00016a0d       ??0?$QValueListPrivate@UField@QWidgetFactory@@@@QAE@XZ 10044a0d f i qui:qwidgetfactory.obj
 0002:00016a6a       ??0Field@QWidgetFactory@@QAE@XZ 10044a6a f i qui:qwidgetfactory.obj
 0002:00016a90       ?insert@?$QValueListPrivate@UField@QWidgetFactory@@@@QAE?AV?$QValueListIterator@UField@QWidgetFactory@@@@V2@ABUField@QWidgetFactory@@@Z 10044a90 f i qui:qwidgetfactory.obj
 0002:00016af1       ??0?$QValueListPrivate@VQPixmap@@@@QAE@XZ 10044af1 f i qui:qwidgetfactory.obj
 0002:00016b50       ??_E?$QValueListNode@VQPixmap@@@@UAEPAXI@Z 10044b50 f i qui:qwidgetfactory.obj
 0002:00016b50       ??_G?$QValueListNode@VQPixmap@@@@UAEPAXI@Z 10044b50 f i qui:qwidgetfactory.obj
 0002:00016b7f       ?insert@?$QValueListPrivate@VQPixmap@@@@QAE?AV?$QValueListIterator@VQPixmap@@@@V2@ABVQPixmap@@@Z 10044b7f f i qui:qwidgetfactory.obj
 0002:00016be1       ?at@?$QValueListPrivate@VQPixmap@@@@QBEPAV?$QValueListNode@VQPixmap@@@@I@Z 10044be1 f i qui:qwidgetfactory.obj
 0002:00016c2f       ??4SqlWidgetConnection@QWidgetFactory@@QAEAAU01@ABU01@@Z 10044c2f f i qui:qwidgetfactory.obj
 0002:00016c62       ??_G?$QValueListPrivate@UImage@QWidgetFactory@@@@UAEPAXI@Z 10044c62 f i qui:qwidgetfactory.obj
 0002:00016c62       ??_E?$QValueListPrivate@UImage@QWidgetFactory@@@@UAEPAXI@Z 10044c62 f i qui:qwidgetfactory.obj
 0002:00016c85       ??1?$QValueListPrivate@UImage@QWidgetFactory@@@@UAE@XZ 10044c85 f i qui:qwidgetfactory.obj
 0002:00016ccb       ??_E?$QValueListPrivate@UField@QWidgetFactory@@@@UAEPAXI@Z 10044ccb f i qui:qwidgetfactory.obj
 0002:00016ccb       ??_G?$QValueListPrivate@UField@QWidgetFactory@@@@UAEPAXI@Z 10044ccb f i qui:qwidgetfactory.obj
 0002:00016cee       ??1?$QValueListPrivate@UField@QWidgetFactory@@@@UAE@XZ 10044cee f i qui:qwidgetfactory.obj
 0002:00016d34       ??_G?$QValueListPrivate@VQPixmap@@@@UAEPAXI@Z 10044d34 f i qui:qwidgetfactory.obj
 0002:00016d34       ??_E?$QValueListPrivate@VQPixmap@@@@UAEPAXI@Z 10044d34 f i qui:qwidgetfactory.obj
 0002:00016d57       ??1?$QValueListPrivate@VQPixmap@@@@UAE@XZ 10044d57 f i qui:qwidgetfactory.obj
 0002:00016d9d       ??0?$QValueListNode@UImage@QWidgetFactory@@@@QAE@ABUImage@QWidgetFactory@@@Z 10044d9d f i qui:qwidgetfactory.obj
 0002:00016dd9       ??_G?$QValueListNode@UImage@QWidgetFactory@@@@UAEPAXI@Z 10044dd9 f i qui:qwidgetfactory.obj
 0002:00016dd9       ??_E?$QValueListNode@UImage@QWidgetFactory@@@@UAEPAXI@Z 10044dd9 f i qui:qwidgetfactory.obj
 0002:00016dfc       ??1?$QValueListNode@UImage@QWidgetFactory@@@@UAE@XZ 10044dfc f i qui:qwidgetfactory.obj
 0002:00016e20       ??0?$QValueListNode@UImage@QWidgetFactory@@@@QAE@XZ 10044e20 f i qui:qwidgetfactory.obj
 0002:00016e4b       ?remove@?$QMapPrivate@PAVQTable@@V?$QValueList@UField@QWidgetFactory@@@@@@QAEXV?$QMapIterator@PAVQTable@@V?$QValueList@UField@QWidgetFactory@@@@@@@Z 10044e4b f i qui:qwidgetfactory.obj
 0002:00016e92       ??_E?$QValueListNode@UField@QWidgetFactory@@@@UAEPAXI@Z 10044e92 f i qui:qwidgetfactory.obj
 0002:00016e92       ??_G?$QValueListNode@UField@QWidgetFactory@@@@UAEPAXI@Z 10044e92 f i qui:qwidgetfactory.obj
 0002:00016ec0       ??0Field@QWidgetFactory@@QAE@ABU01@@Z 10044ec0 f i qui:qwidgetfactory.obj
 0002:00016efc       ??0?$QValueListPrivate@UImage@QWidgetFactory@@@@QAE@ABV0@@Z 10044efc f i qui:qwidgetfactory.obj
 0002:00016f99       ??0?$QMapPrivate@VQString@@VQStringList@@@@QAE@PBV0@@Z 10044f99 f i qui:qwidgetfactory.obj
 0002:0001706b       ?clear@?$QMapPrivate@VQString@@VQStringList@@@@QAEXPAU?$QMapNode@VQString@@VQStringList@@@@@Z 1004506b f i qui:qwidgetfactory.obj
 0002:000170a9       ?insertSingle@?$QMapPrivate@VQString@@VQStringList@@@@QAE?AV?$QMapIterator@VQString@@VQStringList@@@@ABVQString@@@Z 100450a9 f i qui:qwidgetfactory.obj
 0002:0001714b       ??0?$QMapPrivate@PAVQWidget@@USqlWidgetConnection@QWidgetFactory@@@@QAE@PBV0@@Z 1004514b f i qui:qwidgetfactory.obj
 0002:00017225       ?clear@?$QMapPrivate@PAVQWidget@@USqlWidgetConnection@QWidgetFactory@@@@QAEXPAU?$QMapNode@PAVQWidget@@USqlWidgetConnection@QWidgetFactory@@@@@Z 10045225 f i qui:qwidgetfactory.obj
 0002:00017263       ?insertSingle@?$QMapPrivate@PAVQWidget@@USqlWidgetConnection@QWidgetFactory@@@@QAE?AV?$QMapIterator@PAVQWidget@@USqlWidgetConnection@QWidgetFactory@@@@ABQAVQWidget@@@Z 10045263 f i qui:qwidgetfactory.obj
 0002:000172f9       ??0?$QMapPrivate@PAVQTable@@V?$QValueList@UField@QWidgetFactory@@@@@@QAE@PBV0@@Z 100452f9 f i qui:qwidgetfactory.obj
 0002:000173be       ?clear@?$QMapPrivate@PAVQTable@@V?$QValueList@UField@QWidgetFactory@@@@@@QAEXPAU?$QMapNode@PAVQTable@@V?$QValueList@UField@QWidgetFactory@@@@@@@Z 100453be f i qui:qwidgetfactory.obj
 0002:00017404       ?insertSingle@?$QMapPrivate@PAVQTable@@V?$QValueList@UField@QWidgetFactory@@@@@@QAE?AV?$QMapIterator@PAVQTable@@V?$QValueList@UField@QWidgetFactory@@@@@@ABQAVQTable@@@Z 10045404 f i qui:qwidgetfactory.obj
 0002:0001749a       ??0?$QMapPrivate@VQString@@_N@@QAE@PBV0@@Z 1004549a f i qui:qwidgetfactory.obj
 0002:00017560       ?insertSingle@?$QMapPrivate@VQString@@_N@@QAE?AV?$QMapIterator@VQString@@_N@@ABVQString@@@Z 10045560 f i qui:qwidgetfactory.obj
 0002:00017602       ?detachInternal@?$QMap@PAVQWidget@@VQString@@@@AAEXXZ 10045602 f i qui:qwidgetfactory.obj
 0002:0001762f       ?insertSingle@?$QMapPrivate@PAVQWidget@@VQString@@@@QAE?AV?$QMapIterator@PAVQWidget@@VQString@@@@ABQAVQWidget@@@Z 1004562f f i qui:qwidgetfactory.obj
 0002:000176c5       ??0?$QValueListPrivate@UField@QWidgetFactory@@@@QAE@ABV0@@Z 100456c5 f i qui:qwidgetfactory.obj
 0002:00017770       ??0?$QValueListPrivate@VQPixmap@@@@QAE@ABV0@@Z 10045770 f i qui:qwidgetfactory.obj
 0002:0001781c       ??0?$QValueListIterator@UImage@QWidgetFactory@@@@QAE@ABV0@@Z 1004581c f i qui:qwidgetfactory.obj
 0002:0001782c       ??0?$QValueListIterator@UField@QWidgetFactory@@@@QAE@ABV0@@Z 1004582c f i qui:qwidgetfactory.obj
 0002:0001783c       ??0?$QValueListIterator@VQPixmap@@@@QAE@ABV0@@Z 1004583c f i qui:qwidgetfactory.obj
 0002:0001784c       ?copy@?$QMapPrivate@VQString@@VQStringList@@@@QAEPAU?$QMapNode@VQString@@VQStringList@@@@PAU2@@Z 1004584c f i qui:qwidgetfactory.obj
 0002:000178d3       ?insert@?$QMapPrivate@VQString@@VQStringList@@@@QAE?AV?$QMapIterator@VQString@@VQStringList@@@@PAUQMapNodeBase@@0ABVQString@@@Z 100458d3 f i qui:qwidgetfactory.obj
 0002:0001798d       ?dec@?$QMapIterator@VQString@@VQStringList@@@@AAEHXZ 1004598d f i qui:qwidgetfactory.obj
 0002:000179d1       ?copy@?$QMapPrivate@PAVQWidget@@USqlWidgetConnection@QWidgetFactory@@@@QAEPAU?$QMapNode@PAVQWidget@@USqlWidgetConnection@QWidgetFactory@@@@PAU2@@Z 100459d1 f i qui:qwidgetfactory.obj
 0002:00017a58       ?insert@?$QMapPrivate@PAVQWidget@@USqlWidgetConnection@QWidgetFactory@@@@QAE?AV?$QMapIterator@PAVQWidget@@USqlWidgetConnection@QWidgetFactory@@@@PAUQMapNodeBase@@0ABQAVQWidget@@@Z 10045a58 f i qui:qwidgetfactory.obj
 0002:00017b1d       ?dec@?$QMapIterator@PAVQWidget@@USqlWidgetConnection@QWidgetFactory@@@@AAEHXZ 10045b1d f i qui:qwidgetfactory.obj
 0002:00017b61       ?copy@?$QMapPrivate@PAVQTable@@V?$QValueList@UField@QWidgetFactory@@@@@@QAEPAU?$QMapNode@PAVQTable@@V?$QValueList@UField@QWidgetFactory@@@@@@PAU2@@Z 10045b61 f i qui:qwidgetfactory.obj
 0002:00017be8       ?insert@?$QMapPrivate@PAVQTable@@V?$QValueList@UField@QWidgetFactory@@@@@@QAE?AV?$QMapIterator@PAVQTable@@V?$QValueList@UField@QWidgetFactory@@@@@@PAUQMapNodeBase@@0ABQAVQTable@@@Z 10045be8 f i qui:qwidgetfactory.obj
 0002:00017c9a       ?dec@?$QMapIterator@PAVQTable@@V?$QValueList@UField@QWidgetFactory@@@@@@AAEHXZ 10045c9a f i qui:qwidgetfactory.obj
 0002:00017cde       ?copy@?$QMapPrivate@VQString@@_N@@QAEPAU?$QMapNode@VQString@@_N@@PAU2@@Z 10045cde f i qui:qwidgetfactory.obj
 0002:00017d65       ?insert@?$QMapPrivate@VQString@@_N@@QAE?AV?$QMapIterator@VQString@@_N@@PAUQMapNodeBase@@0ABVQString@@@Z 10045d65 f i qui:qwidgetfactory.obj
 0002:00017e2e       ?dec@?$QMapIterator@VQString@@_N@@AAEHXZ 10045e2e f i qui:qwidgetfactory.obj
 0002:00017e72       ??0?$QMapPrivate@PAVQWidget@@VQString@@@@QAE@PBV0@@Z 10045e72 f i qui:qwidgetfactory.obj
 0002:00017f38       ?insert@?$QMapPrivate@PAVQWidget@@VQString@@@@QAE?AV?$QMapIterator@PAVQWidget@@VQString@@@@PAUQMapNodeBase@@0ABQAVQWidget@@@Z 10045f38 f i qui:qwidgetfactory.obj
 0002:00017fec       ?dec@?$QMapIterator@PAVQWidget@@VQString@@@@AAEHXZ 10045fec f i qui:qwidgetfactory.obj
 0002:00018030       ??0?$QMapNode@PAVQTable@@V?$QValueList@UField@QWidgetFactory@@@@@@QAE@ABU0@@Z 10046030 f i qui:qwidgetfactory.obj
 0002:00018072       ??0?$QMapNode@VQString@@VQStringList@@@@QAE@ABVQString@@@Z 10046072 f i qui:qwidgetfactory.obj
 0002:000180a7       ??0?$QMapNode@VQString@@VQStringList@@@@QAE@ABU0@@Z 100460a7 f i qui:qwidgetfactory.obj
 0002:00018102       ??0?$QMapNode@PAVQWidget@@USqlWidgetConnection@QWidgetFactory@@@@QAE@ABU0@@Z 10046102 f i qui:qwidgetfactory.obj
 0002:00018143       ??0?$QMapNode@VQString@@_N@@QAE@ABU0@@Z 10046143 f i qui:qwidgetfactory.obj
 0002:0001817c       ?copy@?$QMapPrivate@PAVQWidget@@VQString@@@@QAEPAU?$QMapNode@PAVQWidget@@VQString@@@@PAU2@@Z 1004617c f i qui:qwidgetfactory.obj
 0002:00018203       ??0?$QMapNode@PAVQWidget@@VQString@@@@QAE@ABU0@@Z 10046203 f i qui:qwidgetfactory.obj
 0002:0001823a       ??_EQDateTimeEdit@@WCI@AEPAXI@Z 1004623a f i qui:qwidgetfactory.obj
 0002:00018244       ??_EQGrid@@WCI@AEPAXI@Z    10046244 f i qui:qwidgetfactory.obj
 0002:0001824e       ??_EQRadioButton@@WCI@AEPAXI@Z 1004624e f i qui:qwidgetfactory.obj
 0002:00018258       ??_EQLCDNumber@@WCI@AEPAXI@Z 10046258 f i qui:qwidgetfactory.obj
 0002:00018262       ??_EQGridLayout@@WCI@AEPAXI@Z 10046262 f i qui:qwidgetfactory.obj
 0002:0001826c       ??_EQPopupMenu@@WCI@AEPAXI@Z 1004626c f i qui:qwidgetfactory.obj
 0002:00018276       ??_EQPopupMenu@@WIM@AEPAXI@Z 10046276 f i qui:qwidgetfactory.obj
 0002:00018283       ??_EQSplitter@@WCI@AEPAXI@Z 10046283 f i qui:qwidgetfactory.obj
 0002:0001828d       ??_EQTimeEdit@@WCI@AEPAXI@Z 1004628d f i qui:qwidgetfactory.obj
 0002:00018297       ??_EQTextView@@WCI@AEPAXI@Z 10046297 f i qui:qwidgetfactory.obj
 0002:000182a1       ??_EQSpinBox@@WCI@AEPAXI@Z 100462a1 f i qui:qwidgetfactory.obj
 0002:000182ab       ??_EQSpinBox@@WGM@AEPAXI@Z 100462ab f i qui:qwidgetfactory.obj
 0002:000182b5       ??_EQToolBox@@WCI@AEPAXI@Z 100462b5 f i qui:qwidgetfactory.obj
 0002:000182bf       ??_EQDial@@WCI@AEPAXI@Z    100462bf f i qui:qwidgetfactory.obj
 0002:000182c9       ??_EQDial@@WGM@AEPAXI@Z    100462c9 f i qui:qwidgetfactory.obj
 0002:000182d3       ??_EQGroupBox@@WCI@AEPAXI@Z 100462d3 f i qui:qwidgetfactory.obj
 0002:000182dd       ??_EQHBox@@WCI@AEPAXI@Z    100462dd f i qui:qwidgetfactory.obj
 0002:000182e7       ??_EQListBox@@WCI@AEPAXI@Z 100462e7 f i qui:qwidgetfactory.obj
 0002:000182f1       ??_EQDataTable@@WCI@AEPAXI@Z 100462f1 f i qui:qwidgetfactory.obj
 0002:000182fb       ??_EQTextBrowser@@WCI@AEPAXI@Z 100462fb f i qui:qwidgetfactory.obj
 0002:00018305       ??_EQLineEdit@@WCI@AEPAXI@Z 10046305 f i qui:qwidgetfactory.obj
 0002:0001830f       ??_EQWidgetStack@@WCI@AEPAXI@Z 1004630f f i qui:qwidgetfactory.obj
 0002:00018319       ??_EQTabWidget@@WCI@AEPAXI@Z 10046319 f i qui:qwidgetfactory.obj
 0002:00018323       ??_EQFrame@@WCI@AEPAXI@Z   10046323 f i qui:qwidgetfactory.obj
 0002:0001832d       ??_EQDateEdit@@WCI@AEPAXI@Z 1004632d f i qui:qwidgetfactory.obj
 0002:00018337       ??_EQLabel@@WCI@AEPAXI@Z   10046337 f i qui:qwidgetfactory.obj
 0002:00018341       ??_EQProgressBar@@WCI@AEPAXI@Z 10046341 f i qui:qwidgetfactory.obj
 0002:0001834b       ??_EQButtonGroup@@WCI@AEPAXI@Z 1004634b f i qui:qwidgetfactory.obj
 0002:00018355       ??_EQToolBar@@WCI@AEPAXI@Z 10046355 f i qui:qwidgetfactory.obj
 0002:0001835f       ??_EQWidget@@WCI@AEPAXI@Z  1004635f f i qui:qwidgetfactory.obj
 0002:00018369       ??_EQVBox@@WCI@AEPAXI@Z    10046369 f i qui:qwidgetfactory.obj
 0002:00018373       ??_EQDialog@@WCI@AEPAXI@Z  10046373 f i qui:qwidgetfactory.obj
 0002:0001837d       ??_EQMainWindow@@WCI@AEPAXI@Z 1004637d f i qui:qwidgetfactory.obj
 0002:00018387       ??_EQToolButton@@WCI@AEPAXI@Z 10046387 f i qui:qwidgetfactory.obj
 0002:00018391       ??_EQListView@@WCI@AEPAXI@Z 10046391 f i qui:qwidgetfactory.obj
 0002:0001839b       ??_EQIconView@@WCI@AEPAXI@Z 1004639b f i qui:qwidgetfactory.obj
 0002:000183a5       ??_EQTable@@WCI@AEPAXI@Z   100463a5 f i qui:qwidgetfactory.obj
 0002:000183af       ??_EQScrollBar@@WCI@AEPAXI@Z 100463af f i qui:qwidgetfactory.obj
 0002:000183b9       ??_EQScrollBar@@WGM@AEPAXI@Z 100463b9 f i qui:qwidgetfactory.obj
 0002:000183c3       ??_EQSlider@@WCI@AEPAXI@Z  100463c3 f i qui:qwidgetfactory.obj
 0002:000183cd       ??_EQSlider@@WGM@AEPAXI@Z  100463cd f i qui:qwidgetfactory.obj
 0002:000183d7       ??_EQWizard@@WCI@AEPAXI@Z  100463d7 f i qui:qwidgetfactory.obj
 0002:000183e1       ??_EQMultiLineEdit@@WCI@AEPAXI@Z 100463e1 f i qui:qwidgetfactory.obj
 0002:000183eb       ??_EQSqlCursor@@W7AEPAXI@Z 100463eb f i qui:qwidgetfactory.obj
 0002:000183f5       ?value@QSqlCursor@@W7BE?AVQVariant@@H@Z 100463f5 f i qui:qwidgetfactory.obj
 0002:00018400       ??_EQComboBox@@WCI@AEPAXI@Z 10046400 f i qui:qwidgetfactory.obj
 0002:0001840a       ??0DatabaseSupport2@@QAE@XZ 1004640a f   qui:database.obj
 0002:0001843e       ??_GDatabaseSupport2@@UAEPAXI@Z 1004643e f i qui:database.obj
 0002:0001843e       ??_EDatabaseSupport2@@UAEPAXI@Z 1004643e f i qui:database.obj
 0002:00018478       ?initPreview@DatabaseSupport2@@QAEXABVQString@@0PAVQObject@@ABV?$QMap@VQString@@V1@@@@Z 10046478 f   qui:database.obj
 0002:000185d8       ??_EQSqlForm@@UAEPAXI@Z    100465d8 f i qui:database.obj
 0002:000185d8       ??_GQSqlForm@@UAEPAXI@Z    100465d8 f i qui:database.obj
 0002:000185fc       ??0QDesignerDataBrowser2@@QAE@PAVQWidget@@PBD@Z 100465fc f   qui:database.obj
 0002:00018642       ?metaObject@QDesignerDataBrowser2@@UBEPAVQMetaObject@@XZ 10046642 f i qui:database.obj
 0002:00018647       ??_GQDesignerDataBrowser2@@UAEPAXI@Z 10046647 f i qui:database.obj
 0002:00018647       ??_EQDesignerDataBrowser2@@UAEPAXI@Z 10046647 f i qui:database.obj
 0002:0001866a       ??1QDesignerDataBrowser2@@UAE@XZ 1004666a f i qui:database.obj
 0002:000186a8       ?event@QDesignerDataBrowser2@@MAE_NPAVQEvent@@@Z 100466a8 f   qui:database.obj
 0002:00018748       ??0QDesignerDataView2@@QAE@PAVQWidget@@PBD@Z 10046748 f   qui:database.obj
 0002:0001878e       ?metaObject@QDesignerDataView2@@UBEPAVQMetaObject@@XZ 1004678e f i qui:database.obj
 0002:00018793       ??_EQDesignerDataView2@@UAEPAXI@Z 10046793 f i qui:database.obj
 0002:00018793       ??_GQDesignerDataView2@@UAEPAXI@Z 10046793 f i qui:database.obj
 0002:000187b6       ??1QDesignerDataView2@@UAE@XZ 100467b6 f i qui:database.obj
 0002:000187f4       ?event@QDesignerDataView2@@MAE_NPAVQEvent@@@Z 100467f4 f   qui:database.obj
 0002:00018833       ??_EQDesignerDataView2@@WCI@AEPAXI@Z 10046833 f i qui:database.obj
 0002:0001883d       ??_EQDesignerDataView2@@WHA@AEPAXI@Z 1004683d f i qui:database.obj
 0002:00018847       ??_EQDesignerDataBrowser2@@WCI@AEPAXI@Z 10046847 f i qui:database.obj
 0002:00018851       ??_EQDesignerDataBrowser2@@WHA@AEPAXI@Z 10046851 f i qui:database.obj
 0002:0001885b       ?readProperty@DomTool@@SA?AVQVariant@@ABVQDomElement@@ABVQString@@ABV2@AAV4@@Z 1004685b f   qui:domtool.obj
 0002:000189f1       ?readProperty@DomTool@@SA?AVQVariant@@ABVQDomElement@@ABVQString@@ABV2@@Z 100469f1 f   qui:domtool.obj
 0002:00018a30       ?hasProperty@DomTool@@SA_NABVQDomElement@@ABVQString@@@Z 10046a30 f   qui:domtool.obj
 0002:00018b73       ?propertiesOfType@DomTool@@SA?AVQStringList@@ABVQDomElement@@ABVQString@@@Z 10046b73 f   qui:domtool.obj
 0002:00018d4a       ?elementToVariant@DomTool@@SA?AVQVariant@@ABVQDomElement@@ABV2@@Z 10046d4a f   qui:domtool.obj
 0002:00018d86       ?elementToVariant@DomTool@@SA?AVQVariant@@ABVQDomElement@@ABV2@AAVQString@@@Z 10046d86 f   qui:domtool.obj
 0002:0001b285       ?readColor@DomTool@@SA?AVQColor@@ABVQDomElement@@@Z 10049285 f   qui:domtool.obj
 0002:0001b4fe       ?readAttribute@DomTool@@SA?AVQVariant@@ABVQDomElement@@ABVQString@@ABV2@AAV4@@Z 100494fe f   qui:domtool.obj
 0002:0001b694       ?readAttribute@DomTool@@SA?AVQVariant@@ABVQDomElement@@ABVQString@@ABV2@@Z 10049694 f   qui:domtool.obj
 0002:0001b6d3       ?hasAttribute@DomTool@@SA_NABVQDomElement@@ABVQString@@@Z 100496d3 f   qui:domtool.obj
 0002:0001b816       ?fixDocument@DomTool@@SAXAAVQDomDocument@@@Z 10049816 f   qui:domtool.obj
 0002:0001c5ac       ??0UibStrTable@@QAE@XZ     1004a5ac f   qui:uib.obj
 0002:0001c609       ?className@QDesignerDataBrowser2@@UBEPBDXZ 1004a609 f   qui:moc_database2.obj
 0002:0001c652       ?tr@QDesignerDataBrowser2@@SA?AVQString@@PBD0@Z 1004a652 f   qui:moc_database2.obj
 0002:0001c69d       ?trUtf8@QDesignerDataBrowser2@@SA?AVQString@@PBD0@Z 1004a69d f   qui:moc_database2.obj
 0002:0001c6e8       ?staticMetaObject@QDesignerDataBrowser2@@SAPAVQMetaObject@@XZ 1004a6e8 f   qui:moc_database2.obj
 0002:0001c740       ?qt_cast@QDesignerDataBrowser2@@UAEPAXPBD@Z 1004a740 f   qui:moc_database2.obj
 0002:0001c7c5       ?qt_invoke@QDesignerDataBrowser2@@UAE_NHPAUQUObject@@@Z 1004a7c5 f   qui:moc_database2.obj
 0002:0001c7da       ?qt_emit@QDesignerDataBrowser2@@UAE_NHPAUQUObject@@@Z 1004a7da f   qui:moc_database2.obj
 0002:0001c7ef       ?qt_property@QDesignerDataBrowser2@@UAE_NHHPAVQVariant@@@Z 1004a7ef f   qui:moc_database2.obj
 0002:0001c809       ?qt_static_property@QDesignerDataBrowser2@@SA_NPAVQObject@@HHPAVQVariant@@@Z 1004a809 f   qui:moc_database2.obj
 0002:0001c80c       ?className@QDesignerDataView2@@UBEPBDXZ 1004a80c f   qui:moc_database2.obj
 0002:0001c855       ?tr@QDesignerDataView2@@SA?AVQString@@PBD0@Z 1004a855 f   qui:moc_database2.obj
 0002:0001c8a0       ?trUtf8@QDesignerDataView2@@SA?AVQString@@PBD0@Z 1004a8a0 f   qui:moc_database2.obj
 0002:0001c8eb       ?staticMetaObject@QDesignerDataView2@@SAPAVQMetaObject@@XZ 1004a8eb f   qui:moc_database2.obj
 0002:0001c943       ?qt_cast@QDesignerDataView2@@UAEPAXPBD@Z 1004a943 f   qui:moc_database2.obj
 0002:0001c9c8       ?qt_invoke@QDesignerDataView2@@UAE_NHPAUQUObject@@@Z 1004a9c8 f   qui:moc_database2.obj
 0002:0001c9dd       ?qt_emit@QDesignerDataView2@@UAE_NHPAUQUObject@@@Z 1004a9dd f   qui:moc_database2.obj
 0002:0001c9f2       ?qt_property@QDesignerDataView2@@UAE_NHHPAVQVariant@@@Z 1004a9f2 f   qui:moc_database2.obj
 0002:0001ca0c       ?qt_static_property@QDesignerDataView2@@SA_NPAVQObject@@HHPAVQVariant@@@Z 1004aa0c f   qui:moc_database2.obj
 0002:0001e310       ??0bncs_client_runtime@@QAE@PAVQWidget@@PBDI@Z 1004c310 f   bncs_client_runtime.obj
 0002:0001e4c0       ??1bncs_client_runtime@@UAE@XZ 1004c4c0 f   bncs_client_runtime.obj
 0002:0001e6b0       ?contextMenuEvent@bncs_client_runtime@@UAEXPAVQContextMenuEvent@@@Z 1004c6b0 f   bncs_client_runtime.obj
 0002:0001f320       ?paintEvent@bncs_client_runtime@@UAEXPAVQPaintEvent@@@Z 1004d320 f   bncs_client_runtime.obj
 0002:0001f4e0       ?setCaption@bncs_client_runtime@@UAEXABVQString@@@Z 1004d4e0 f   bncs_client_runtime.obj
 0002:0001fd50       ?setWidgetList@bncs_client_runtime@@QAEXABVQWidgetList@@@Z 1004dd50 f   bncs_client_runtime.obj
 0002:0001fdb0       ?widgetList@bncs_client_runtime@@QBE?AVQWidgetList@@XZ 1004ddb0 f   bncs_client_runtime.obj
 0002:0001fe20       ?setFilePath@bncs_client_runtime@@QAEXABVQString@@@Z 1004de20 f   bncs_client_runtime.obj
 0002:0001fe80       ?filePath@bncs_client_runtime@@QAE?AVQString@@XZ 1004de80 f   bncs_client_runtime.obj
 0002:0001fef0       ?addWidgetToList@bncs_client_runtime@@QAEXPAVQWidget@@@Z 1004def0 f   bncs_client_runtime.obj
 0002:0001ff50       ?removeWidgetFromList@bncs_client_runtime@@QAE_NPAVQWidget@@@Z 1004df50 f   bncs_client_runtime.obj
 0002:0001ffb0       ?connectionTriggerEvent@bncs_client_runtime@@AAEXABVQString@@0@Z 1004dfb0 f   bncs_client_runtime.obj
 0002:00021cb0       ?notifyIn@bncs_client_runtime@@QAEXAAVQString@@@Z 1004fcb0 f   bncs_client_runtime.obj
 0002:00021e40       ?addConnection@bncs_client_runtime@@QAEXABVQString@@0000@Z 1004fe40 f   bncs_client_runtime.obj
 0002:000220c0       ?addConnection@bncs_client_runtime@@QAEXPAVQWidget@@@Z 100500c0 f   bncs_client_runtime.obj
 0002:00022140       ?cdbDestroyed@bncs_client_runtime@@AAEXXZ 10050140 f   bncs_client_runtime.obj
 0002:00022180       ?doShowIncomingEvent@bncs_client_runtime@@AAEX_N@Z 10050180 f   bncs_client_runtime.obj
 0002:000221c0       ?ccTimerCallback@bncs_client_runtime@@MAEXH@Z 100501c0 f   bncs_client_runtime.obj
 0002:00023330       ??$_Allocate@D@std@@YAPADIPAD@Z 10051330 f i bncs_client_runtime.obj
 0002:000233c0       ??$_Allocate@U_Container_proxy@std@@@std@@YAPAU_Container_proxy@0@IPAU10@@Z 100513c0 f i bncs_client_runtime.obj
 0002:00023460       ??$_Debug_pointer@D@std@@YAXPBDPB_WI@Z 10051460 f i bncs_client_runtime.obj
 0002:000234d0       ??$addressof@D@std@@YAPADAAD@Z 100514d0 f i bncs_client_runtime.obj
 0002:00023510       ??$construct@PADAAPAD@?$_Wrap_alloc@V?$allocator@D@std@@@std@@QAEXPAPADAAPAD@Z 10051510 f i bncs_client_runtime.obj
 0002:00023580       ??$construct@PADAAPAD@?$allocator@D@std@@QAEXPAPADAAPAD@Z 10051580 f i bncs_client_runtime.obj
 0002:00023680       ??$construct@PADAAPAD@?$allocator_traits@V?$allocator@D@std@@@std@@SAXAAV?$allocator@D@1@PAPADAAPAD@Z 10051680 f i bncs_client_runtime.obj
 0002:000236e0       ??$construct@U_Container_proxy@std@@U12@@?$allocator@U_Container_proxy@std@@@std@@QAEXPAU_Container_proxy@1@$$QAU21@@Z 100516e0 f i bncs_client_runtime.obj
 0002:000237f0       ??$destroy@PAD@?$_Wrap_alloc@V?$allocator@D@std@@@std@@QAEXPAPAD@Z 100517f0 f i bncs_client_runtime.obj
 0002:00023850       ??$destroy@PAD@?$allocator@D@std@@QAEXPAPAD@Z 10051850 f i bncs_client_runtime.obj
 0002:00023890       ??$destroy@PAD@?$allocator_traits@V?$allocator@D@std@@@std@@SAXAAV?$allocator@D@1@PAPAD@Z 10051890 f i bncs_client_runtime.obj
 0002:000238e0       ??$destroy@U_Container_proxy@std@@@?$allocator@U_Container_proxy@std@@@std@@QAEXPAU_Container_proxy@1@@Z 100518e0 f i bncs_client_runtime.obj
 0002:00023920       ??$forward@AAPAD@std@@YAAAPADAAPAD@Z 10051920 f i bncs_client_runtime.obj
 0002:00023960       ??$forward@U_Container_proxy@std@@@std@@YA$$QAU_Container_proxy@0@AAU10@@Z 10051960 f i bncs_client_runtime.obj
 0002:000239a0       ??0?$QMap@VQString@@VcomplexInstance@@@@QAE@ABV0@@Z 100519a0 f i bncs_client_runtime.obj
 0002:00023a10       ??0?$QMap@VQString@@VcomplexInstance@@@@QAE@XZ 10051a10 f i bncs_client_runtime.obj
 0002:00023b00       ??0?$QMap@VQString@@VcomplexParam@@@@QAE@ABV0@@Z 10051b00 f i bncs_client_runtime.obj
 0002:00023b70       ??0?$QMap@VQString@@VcomplexParam@@@@QAE@XZ 10051b70 f i bncs_client_runtime.obj
 0002:00023c60       ??0?$QMap@VQString@@VcomplexType@@@@QAE@ABV0@@Z 10051c60 f i bncs_client_runtime.obj
 0002:00023cd0       ??0?$QMap@VQString@@VcomplexType@@@@QAE@XZ 10051cd0 f i bncs_client_runtime.obj
 0002:00023dc0       ??0?$QMap@VQString@@VdeviceTypeInfo@@@@QAE@ABV0@@Z 10051dc0 f i bncs_client_runtime.obj
 0002:00023e30       ??0?$QMap@VQString@@VdeviceTypeInfo@@@@QAE@XZ 10051e30 f i bncs_client_runtime.obj
 0002:00023f20       ??0?$QMap@VQString@@VinstanceInfo@@@@QAE@ABV0@@Z 10051f20 f i bncs_client_runtime.obj
 0002:00023f90       ??0?$QMap@VQString@@VinstanceInfo@@@@QAE@XZ 10051f90 f i bncs_client_runtime.obj
 0002:00024080       ??0?$QMap@VQString@@VparamInfo@@@@QAE@ABV0@@Z 10052080 f i bncs_client_runtime.obj
 0002:000240f0       ??0?$QMap@VQString@@VparamInfo@@@@QAE@XZ 100520f0 f i bncs_client_runtime.obj
 0002:000241e0       ??0?$QMapConstIterator@VQString@@VcomplexInstance@@@@QAE@PAU?$QMapNode@VQString@@VcomplexInstance@@@@@Z 100521e0 f i bncs_client_runtime.obj
 0002:00024230       ??0?$QMapConstIterator@VQString@@VcomplexParam@@@@QAE@PAU?$QMapNode@VQString@@VcomplexParam@@@@@Z 10052230 f i bncs_client_runtime.obj
 0002:00024280       ??0?$QMapConstIterator@VQString@@VcomplexType@@@@QAE@PAU?$QMapNode@VQString@@VcomplexType@@@@@Z 10052280 f i bncs_client_runtime.obj
 0002:000242d0       ??0?$QMapConstIterator@VQString@@VdeviceTypeInfo@@@@QAE@PAU?$QMapNode@VQString@@VdeviceTypeInfo@@@@@Z 100522d0 f i bncs_client_runtime.obj
 0002:00024320       ??0?$QMapConstIterator@VQString@@VinstanceInfo@@@@QAE@PAU?$QMapNode@VQString@@VinstanceInfo@@@@@Z 10052320 f i bncs_client_runtime.obj
 0002:00024370       ??0?$QMapConstIterator@VQString@@VparamInfo@@@@QAE@PAU?$QMapNode@VQString@@VparamInfo@@@@@Z 10052370 f i bncs_client_runtime.obj
 0002:000243c0       ??0?$QMapIterator@VQString@@VcomplexInstance@@@@QAE@ABV0@@Z 100523c0 f i bncs_client_runtime.obj
 0002:00024410       ??0?$QMapIterator@VQString@@VcomplexInstance@@@@QAE@PAU?$QMapNode@VQString@@VcomplexInstance@@@@@Z 10052410 f i bncs_client_runtime.obj
 0002:00024460       ??0?$QMapIterator@VQString@@VcomplexParam@@@@QAE@ABV0@@Z 10052460 f i bncs_client_runtime.obj
 0002:000244b0       ??0?$QMapIterator@VQString@@VcomplexParam@@@@QAE@PAU?$QMapNode@VQString@@VcomplexParam@@@@@Z 100524b0 f i bncs_client_runtime.obj
 0002:00024500       ??0?$QMapIterator@VQString@@VcomplexType@@@@QAE@ABV0@@Z 10052500 f i bncs_client_runtime.obj
 0002:00024550       ??0?$QMapIterator@VQString@@VcomplexType@@@@QAE@PAU?$QMapNode@VQString@@VcomplexType@@@@@Z 10052550 f i bncs_client_runtime.obj
 0002:000245a0       ??0?$QMapIterator@VQString@@VdeviceTypeInfo@@@@QAE@ABV0@@Z 100525a0 f i bncs_client_runtime.obj
 0002:000245f0       ??0?$QMapIterator@VQString@@VdeviceTypeInfo@@@@QAE@PAU?$QMapNode@VQString@@VdeviceTypeInfo@@@@@Z 100525f0 f i bncs_client_runtime.obj
 0002:00024640       ??0?$QMapIterator@VQString@@VinstanceInfo@@@@QAE@ABV0@@Z 10052640 f i bncs_client_runtime.obj
 0002:00024690       ??0?$QMapIterator@VQString@@VinstanceInfo@@@@QAE@PAU?$QMapNode@VQString@@VinstanceInfo@@@@@Z 10052690 f i bncs_client_runtime.obj
 0002:000246e0       ??0?$QMapIterator@VQString@@VparamInfo@@@@QAE@ABV0@@Z 100526e0 f i bncs_client_runtime.obj
 0002:00024730       ??0?$QMapIterator@VQString@@VparamInfo@@@@QAE@PAU?$QMapNode@VQString@@VparamInfo@@@@@Z 10052730 f i bncs_client_runtime.obj
 0002:00024780       ??0?$QMapNode@VQString@@VcomplexInstance@@@@QAE@ABU0@@Z 10052780 f i bncs_client_runtime.obj
 0002:00024890       ??0?$QMapNode@VQString@@VcomplexInstance@@@@QAE@ABVQString@@@Z 10052890 f i bncs_client_runtime.obj
 0002:00024980       ??0?$QMapNode@VQString@@VcomplexInstance@@@@QAE@XZ 10052980 f i bncs_client_runtime.obj
 0002:00024a50       ??0?$QMapNode@VQString@@VcomplexParam@@@@QAE@ABU0@@Z 10052a50 f i bncs_client_runtime.obj
 0002:00024b60       ??0?$QMapNode@VQString@@VcomplexParam@@@@QAE@ABVQString@@@Z 10052b60 f i bncs_client_runtime.obj
 0002:00024c50       ??0?$QMapNode@VQString@@VcomplexParam@@@@QAE@XZ 10052c50 f i bncs_client_runtime.obj
 0002:00024d20       ??0?$QMapNode@VQString@@VcomplexType@@@@QAE@ABU0@@Z 10052d20 f i bncs_client_runtime.obj
 0002:00024e30       ??0?$QMapNode@VQString@@VcomplexType@@@@QAE@ABVQString@@@Z 10052e30 f i bncs_client_runtime.obj
 0002:00024f20       ??0?$QMapNode@VQString@@VcomplexType@@@@QAE@XZ 10052f20 f i bncs_client_runtime.obj
 0002:00024ff0       ??0?$QMapNode@VQString@@VdeviceTypeInfo@@@@QAE@ABU0@@Z 10052ff0 f i bncs_client_runtime.obj
 0002:00025100       ??0?$QMapNode@VQString@@VdeviceTypeInfo@@@@QAE@ABVQString@@@Z 10053100 f i bncs_client_runtime.obj
 0002:000251f0       ??0?$QMapNode@VQString@@VdeviceTypeInfo@@@@QAE@XZ 100531f0 f i bncs_client_runtime.obj
 0002:000252c0       ??0?$QMapNode@VQString@@VinstanceInfo@@@@QAE@ABU0@@Z 100532c0 f i bncs_client_runtime.obj
 0002:000253d0       ??0?$QMapNode@VQString@@VinstanceInfo@@@@QAE@ABVQString@@@Z 100533d0 f i bncs_client_runtime.obj
 0002:000254c0       ??0?$QMapNode@VQString@@VinstanceInfo@@@@QAE@XZ 100534c0 f i bncs_client_runtime.obj
 0002:00025590       ??0?$QMapNode@VQString@@VparamInfo@@@@QAE@ABU0@@Z 10053590 f i bncs_client_runtime.obj
 0002:000256a0       ??0?$QMapNode@VQString@@VparamInfo@@@@QAE@ABVQString@@@Z 100536a0 f i bncs_client_runtime.obj
 0002:00025790       ??0?$QMapNode@VQString@@VparamInfo@@@@QAE@XZ 10053790 f i bncs_client_runtime.obj
 0002:00025860       ??0?$QMapPrivate@VQString@@VcomplexInstance@@@@QAE@PBV0@@Z 10053860 f i bncs_client_runtime.obj
 0002:00025a60       ??0?$QMapPrivate@VQString@@VcomplexInstance@@@@QAE@XZ 10053a60 f i bncs_client_runtime.obj
 0002:00025bb0       ??0?$QMapPrivate@VQString@@VcomplexParam@@@@QAE@PBV0@@Z 10053bb0 f i bncs_client_runtime.obj
 0002:00025db0       ??0?$QMapPrivate@VQString@@VcomplexParam@@@@QAE@XZ 10053db0 f i bncs_client_runtime.obj
 0002:00025f00       ??0?$QMapPrivate@VQString@@VcomplexType@@@@QAE@PBV0@@Z 10053f00 f i bncs_client_runtime.obj
 0002:00026100       ??0?$QMapPrivate@VQString@@VcomplexType@@@@QAE@XZ 10054100 f i bncs_client_runtime.obj
 0002:00026250       ??0?$QMapPrivate@VQString@@VdeviceTypeInfo@@@@QAE@PBV0@@Z 10054250 f i bncs_client_runtime.obj
 0002:00026450       ??0?$QMapPrivate@VQString@@VdeviceTypeInfo@@@@QAE@XZ 10054450 f i bncs_client_runtime.obj
 0002:000265a0       ??0?$QMapPrivate@VQString@@VinstanceInfo@@@@QAE@PBV0@@Z 100545a0 f i bncs_client_runtime.obj
 0002:000267a0       ??0?$QMapPrivate@VQString@@VinstanceInfo@@@@QAE@XZ 100547a0 f i bncs_client_runtime.obj
 0002:000268f0       ??0?$QMapPrivate@VQString@@VparamInfo@@@@QAE@PBV0@@Z 100548f0 f i bncs_client_runtime.obj
 0002:00026af0       ??0?$QMapPrivate@VQString@@VparamInfo@@@@QAE@XZ 10054af0 f i bncs_client_runtime.obj
 0002:00026c40       ??0?$QPair@V?$QMapIterator@VQString@@VcomplexInstance@@@@_N@@QAE@ABV?$QMapIterator@VQString@@VcomplexInstance@@@@AB_N@Z 10054c40 f i bncs_client_runtime.obj
 0002:00026cb0       ??0?$QPair@V?$QMapIterator@VQString@@VcomplexParam@@@@_N@@QAE@ABV?$QMapIterator@VQString@@VcomplexParam@@@@AB_N@Z 10054cb0 f i bncs_client_runtime.obj
 0002:00026d20       ??0?$QPair@V?$QMapIterator@VQString@@VcomplexType@@@@_N@@QAE@ABV?$QMapIterator@VQString@@VcomplexType@@@@AB_N@Z 10054d20 f i bncs_client_runtime.obj
 0002:00026d90       ??0?$QPair@V?$QMapIterator@VQString@@VdeviceTypeInfo@@@@_N@@QAE@ABV?$QMapIterator@VQString@@VdeviceTypeInfo@@@@AB_N@Z 10054d90 f i bncs_client_runtime.obj
 0002:00026e00       ??0?$QPair@V?$QMapIterator@VQString@@VinstanceInfo@@@@_N@@QAE@ABV?$QMapIterator@VQString@@VinstanceInfo@@@@AB_N@Z 10054e00 f i bncs_client_runtime.obj
 0002:00026e70       ??0?$QPair@V?$QMapIterator@VQString@@VparamInfo@@@@_N@@QAE@ABV?$QMapIterator@VQString@@VparamInfo@@@@AB_N@Z 10054e70 f i bncs_client_runtime.obj
 0002:00026ee0       ??0?$QPtrList@VsignalConnection@@@@QAE@ABV0@@Z 10054ee0 f i bncs_client_runtime.obj
 0002:00026f60       ??0?$QPtrList@VsignalConnection@@@@QAE@XZ 10054f60 f i bncs_client_runtime.obj
 0002:00026fd0       ??0?$QPtrListIterator@VsignalConnection@@@@QAE@ABV0@@Z 10054fd0 f i bncs_client_runtime.obj
 0002:00027040       ??0?$QPtrListIterator@VsignalConnection@@@@QAE@ABV?$QPtrList@VsignalConnection@@@@@Z 10055040 f i bncs_client_runtime.obj
 0002:000270b0       ??0?$QPtrListStdIterator@VQWidget@@@@QAE@PAVQLNode@@@Z 100550b0 f i bncs_client_runtime.obj
 0002:00027120       ??0?$QPtrListStdIterator@VsignalConnection@@@@QAE@PAVQLNode@@@Z 10055120 f i bncs_client_runtime.obj
 0002:00027190       ??0?$QValueList@VcomplexInstance@@@@QAE@ABV0@@Z 10055190 f i bncs_client_runtime.obj
 0002:00027210       ??0?$QValueList@VcomplexInstance@@@@QAE@XZ 10055210 f i bncs_client_runtime.obj
 0002:00027300       ??0?$QValueList@VcomplexParam@@@@QAE@ABV0@@Z 10055300 f i bncs_client_runtime.obj
 0002:00027380       ??0?$QValueList@VcomplexParam@@@@QAE@XZ 10055380 f i bncs_client_runtime.obj
 0002:00027470       ??0?$QValueList@VcomplexType@@@@QAE@ABV0@@Z 10055470 f i bncs_client_runtime.obj
 0002:000274f0       ??0?$QValueList@VcomplexType@@@@QAE@XZ 100554f0 f i bncs_client_runtime.obj
 0002:000275e0       ??0?$QValueList@VdeviceTypeInfo@@@@QAE@ABV0@@Z 100555e0 f i bncs_client_runtime.obj
 0002:00027660       ??0?$QValueList@VdeviceTypeInfo@@@@QAE@XZ 10055660 f i bncs_client_runtime.obj
 0002:00027750       ??0?$QValueList@VinstanceInfo@@@@QAE@ABV0@@Z 10055750 f i bncs_client_runtime.obj
 0002:000277d0       ??0?$QValueList@VinstanceInfo@@@@QAE@XZ 100557d0 f i bncs_client_runtime.obj
 0002:000278c0       ??0?$QValueList@VparamInfo@@@@QAE@ABV0@@Z 100558c0 f i bncs_client_runtime.obj
 0002:00027940       ??0?$QValueList@VparamInfo@@@@QAE@XZ 10055940 f i bncs_client_runtime.obj
 0002:00027a30       ??0?$QValueListIterator@VcomplexInstance@@@@QAE@ABV0@@Z 10055a30 f i bncs_client_runtime.obj
 0002:00027a80       ??0?$QValueListIterator@VcomplexInstance@@@@QAE@PAV?$QValueListNode@VcomplexInstance@@@@@Z 10055a80 f i bncs_client_runtime.obj
 0002:00027ad0       ??0?$QValueListIterator@VcomplexParam@@@@QAE@ABV0@@Z 10055ad0 f i bncs_client_runtime.obj
 0002:00027b20       ??0?$QValueListIterator@VcomplexParam@@@@QAE@PAV?$QValueListNode@VcomplexParam@@@@@Z 10055b20 f i bncs_client_runtime.obj
 0002:00027b70       ??0?$QValueListIterator@VcomplexType@@@@QAE@ABV0@@Z 10055b70 f i bncs_client_runtime.obj
 0002:00027bc0       ??0?$QValueListIterator@VcomplexType@@@@QAE@PAV?$QValueListNode@VcomplexType@@@@@Z 10055bc0 f i bncs_client_runtime.obj
 0002:00027c10       ??0?$QValueListIterator@VdeviceTypeInfo@@@@QAE@ABV0@@Z 10055c10 f i bncs_client_runtime.obj
 0002:00027c60       ??0?$QValueListIterator@VdeviceTypeInfo@@@@QAE@PAV?$QValueListNode@VdeviceTypeInfo@@@@@Z 10055c60 f i bncs_client_runtime.obj
 0002:00027cb0       ??0?$QValueListIterator@VinstanceInfo@@@@QAE@ABV0@@Z 10055cb0 f i bncs_client_runtime.obj
 0002:00027d00       ??0?$QValueListIterator@VinstanceInfo@@@@QAE@PAV?$QValueListNode@VinstanceInfo@@@@@Z 10055d00 f i bncs_client_runtime.obj
 0002:00027d50       ??0?$QValueListIterator@VparamInfo@@@@QAE@ABV0@@Z 10055d50 f i bncs_client_runtime.obj
 0002:00027da0       ??0?$QValueListIterator@VparamInfo@@@@QAE@PAV?$QValueListNode@VparamInfo@@@@@Z 10055da0 f i bncs_client_runtime.obj
 0002:00027df0       ??0?$QValueListNode@VcomplexInstance@@@@QAE@ABVcomplexInstance@@@Z 10055df0 f i bncs_client_runtime.obj
 0002:00027e70       ??0?$QValueListNode@VcomplexInstance@@@@QAE@XZ 10055e70 f i bncs_client_runtime.obj
 0002:00027ee0       ??0?$QValueListNode@VcomplexParam@@@@QAE@ABVcomplexParam@@@Z 10055ee0 f i bncs_client_runtime.obj
 0002:00027f60       ??0?$QValueListNode@VcomplexParam@@@@QAE@XZ 10055f60 f i bncs_client_runtime.obj
 0002:00027fd0       ??0?$QValueListNode@VcomplexType@@@@QAE@ABVcomplexType@@@Z 10055fd0 f i bncs_client_runtime.obj
 0002:00028050       ??0?$QValueListNode@VcomplexType@@@@QAE@XZ 10056050 f i bncs_client_runtime.obj
 0002:000280c0       ??0?$QValueListNode@VdeviceTypeInfo@@@@QAE@ABVdeviceTypeInfo@@@Z 100560c0 f i bncs_client_runtime.obj
 0002:00028140       ??0?$QValueListNode@VdeviceTypeInfo@@@@QAE@XZ 10056140 f i bncs_client_runtime.obj
 0002:000281b0       ??0?$QValueListNode@VinstanceInfo@@@@QAE@ABVinstanceInfo@@@Z 100561b0 f i bncs_client_runtime.obj
 0002:00028230       ??0?$QValueListNode@VinstanceInfo@@@@QAE@XZ 10056230 f i bncs_client_runtime.obj
 0002:000282a0       ??0?$QValueListNode@VparamInfo@@@@QAE@ABVparamInfo@@@Z 100562a0 f i bncs_client_runtime.obj
 0002:00028320       ??0?$QValueListNode@VparamInfo@@@@QAE@XZ 10056320 f i bncs_client_runtime.obj
 0002:00028390       ??0?$QValueListPrivate@VcomplexInstance@@@@QAE@ABV0@@Z 10056390 f i bncs_client_runtime.obj
 0002:000285e0       ??0?$QValueListPrivate@VcomplexInstance@@@@QAE@XZ 100565e0 f i bncs_client_runtime.obj
 0002:00028730       ??0?$QValueListPrivate@VcomplexParam@@@@QAE@ABV0@@Z 10056730 f i bncs_client_runtime.obj
 0002:00028980       ??0?$QValueListPrivate@VcomplexParam@@@@QAE@XZ 10056980 f i bncs_client_runtime.obj
 0002:00028ad0       ??0?$QValueListPrivate@VcomplexType@@@@QAE@ABV0@@Z 10056ad0 f i bncs_client_runtime.obj
 0002:00028d20       ??0?$QValueListPrivate@VcomplexType@@@@QAE@XZ 10056d20 f i bncs_client_runtime.obj
 0002:00028e70       ??0?$QValueListPrivate@VdeviceTypeInfo@@@@QAE@ABV0@@Z 10056e70 f i bncs_client_runtime.obj
 0002:000290c0       ??0?$QValueListPrivate@VdeviceTypeInfo@@@@QAE@XZ 100570c0 f i bncs_client_runtime.obj
 0002:00029210       ??0?$QValueListPrivate@VinstanceInfo@@@@QAE@ABV0@@Z 10057210 f i bncs_client_runtime.obj
 0002:00029460       ??0?$QValueListPrivate@VinstanceInfo@@@@QAE@XZ 10057460 f i bncs_client_runtime.obj
 0002:000295b0       ??0?$QValueListPrivate@VparamInfo@@@@QAE@ABV0@@Z 100575b0 f i bncs_client_runtime.obj
 0002:00029800       ??0?$QValueListPrivate@VparamInfo@@@@QAE@XZ 10057800 f i bncs_client_runtime.obj
 0002:00029950       ??0?$_String_alloc@$0A@U?$_String_base_types@DV?$allocator@D@std@@@std@@@std@@QAE@ABV?$allocator@D@1@@Z 10057950 f i bncs_client_runtime.obj
 0002:00029a00       ??0?$_String_val@U?$_Simple_types@D@std@@@std@@QAE@XZ 10057a00 f i bncs_client_runtime.obj
 0002:00029a80       ??0?$_Wrap_alloc@V?$allocator@D@std@@@std@@QAE@XZ 10057a80 f i bncs_client_runtime.obj
 0002:00029ae0       ??0?$allocator@D@std@@QAE@XZ 10057ae0 f i bncs_client_runtime.obj
 0002:00029b20       ??0?$allocator@U_Container_proxy@std@@@std@@QAE@XZ 10057b20 f i bncs_client_runtime.obj
 0002:00029b60       ??0?$basic_string@DU?$char_traits@D@std@@V?$allocator@D@2@@std@@QAE@PBD@Z 10057b60 f i bncs_client_runtime.obj
 0002:00029c30       ??0IccTimerCallback@@QAE@ABV0@@Z 10057c30 f i bncs_client_runtime.obj
 0002:00029c80       ??0IccTimerCallback@@QAE@XZ 10057c80 f i bncs_client_runtime.obj
 0002:00029cd0       ??0IdCWlimits@@QAE@ABV0@@Z 10057cd0 f i bncs_client_runtime.obj
 0002:00029d20       ??0IdCWlimits@@QAE@XZ      10057d20 f i bncs_client_runtime.obj
 0002:00029d70       ??0QStyleOption@@QAE@W4StyleOptionDefault@0@@Z 10057d70 f i bncs_client_runtime.obj
 0002:00029dc0       ??0_Container_proxy@std@@QAE@XZ 10057dc0 f i bncs_client_runtime.obj
 0002:00029e10       ??0_Generic_error_category@std@@QAE@XZ 10057e10 f i bncs_client_runtime.obj
 0002:00029e70       ??0_Ignore@std@@QAE@XZ     10057e70 f i bncs_client_runtime.obj
 0002:00029eb0       ??0_Iostream_error_category@std@@QAE@XZ 10057eb0 f i bncs_client_runtime.obj
 0002:00029f10       ??0_System_error_category@std@@QAE@XZ 10057f10 f i bncs_client_runtime.obj
 0002:00029f70       ??0bncs_client_runtime@@QAE@ABV0@@Z 10057f70 f i bncs_client_runtime.obj
 0002:0002a1a0       ??0dCW@@QAE@ABV0@@Z        100581a0 f i bncs_client_runtime.obj
 0002:0002a440       ??0error_category@std@@QAE@XZ 10058440 f i bncs_client_runtime.obj
 0002:0002a490       ??0error_condition@std@@QAE@HABVerror_category@1@@Z 10058490 f i bncs_client_runtime.obj
 0002:0002a4e0       ??0signalConnection@@QAE@ABV0@@Z 100584e0 f i bncs_client_runtime.obj
 0002:0002a630       ??0signalConnection@@QAE@ABVQString@@0000@Z 10058630 f i bncs_client_runtime.obj
 0002:0002a7f0       ??0signalConnectionRefList@@QAE@ABV0@@Z 100587f0 f i bncs_client_runtime.obj
 0002:0002a860       ??0signalConnectionRefList@@QAE@XZ 10058860 f i bncs_client_runtime.obj
 0002:0002a8c0       ??0signalConnectionRefListIt@@QAE@ABV0@@Z 100588c0 f i bncs_client_runtime.obj
 0002:0002a920       ??0signalConnectionRefListIt@@QAE@ABVsignalConnectionRefList@@@Z 10058920 f i bncs_client_runtime.obj
 0002:0002a980       ??1?$QMap@VQString@@VcomplexInstance@@@@QAE@XZ 10058980 f i bncs_client_runtime.obj
 0002:0002aa40       ??1?$QMap@VQString@@VcomplexParam@@@@QAE@XZ 10058a40 f i bncs_client_runtime.obj
 0002:0002ab00       ??1?$QMap@VQString@@VcomplexType@@@@QAE@XZ 10058b00 f i bncs_client_runtime.obj
 0002:0002abc0       ??1?$QMap@VQString@@VdeviceTypeInfo@@@@QAE@XZ 10058bc0 f i bncs_client_runtime.obj
 0002:0002ac80       ??1?$QMap@VQString@@VinstanceInfo@@@@QAE@XZ 10058c80 f i bncs_client_runtime.obj
 0002:0002ad40       ??1?$QMap@VQString@@VparamInfo@@@@QAE@XZ 10058d40 f i bncs_client_runtime.obj
 0002:0002ae00       ??1?$QMapNode@VQString@@VcomplexInstance@@@@QAE@XZ 10058e00 f i bncs_client_runtime.obj
 0002:0002aec0       ??1?$QMapNode@VQString@@VcomplexParam@@@@QAE@XZ 10058ec0 f i bncs_client_runtime.obj
 0002:0002af80       ??1?$QMapNode@VQString@@VcomplexType@@@@QAE@XZ 10058f80 f i bncs_client_runtime.obj
 0002:0002b040       ??1?$QMapNode@VQString@@VdeviceTypeInfo@@@@QAE@XZ 10059040 f i bncs_client_runtime.obj
 0002:0002b100       ??1?$QMapNode@VQString@@VinstanceInfo@@@@QAE@XZ 10059100 f i bncs_client_runtime.obj
 0002:0002b1c0       ??1?$QMapNode@VQString@@VparamInfo@@@@QAE@XZ 100591c0 f i bncs_client_runtime.obj
 0002:0002b280       ??1?$QMapPrivate@VQString@@VcomplexInstance@@@@QAE@XZ 10059280 f i bncs_client_runtime.obj
 0002:0002b320       ??1?$QMapPrivate@VQString@@VcomplexParam@@@@QAE@XZ 10059320 f i bncs_client_runtime.obj
 0002:0002b3c0       ??1?$QMapPrivate@VQString@@VcomplexType@@@@QAE@XZ 100593c0 f i bncs_client_runtime.obj
 0002:0002b460       ??1?$QMapPrivate@VQString@@VdeviceTypeInfo@@@@QAE@XZ 10059460 f i bncs_client_runtime.obj
 0002:0002b500       ??1?$QMapPrivate@VQString@@VinstanceInfo@@@@QAE@XZ 10059500 f i bncs_client_runtime.obj
 0002:0002b5a0       ??1?$QMapPrivate@VQString@@VparamInfo@@@@QAE@XZ 100595a0 f i bncs_client_runtime.obj
 0002:0002b640       ??1?$QPtrList@VsignalConnection@@@@UAE@XZ 10059640 f i bncs_client_runtime.obj
 0002:0002b700       ??1?$QPtrListIterator@VsignalConnection@@@@QAE@XZ 10059700 f i bncs_client_runtime.obj
 0002:0002b760       ??1?$QValueList@VcomplexInstance@@@@QAE@XZ 10059760 f i bncs_client_runtime.obj
 0002:0002b7c0       ??1?$QValueList@VcomplexParam@@@@QAE@XZ 100597c0 f i bncs_client_runtime.obj
 0002:0002b820       ??1?$QValueList@VcomplexType@@@@QAE@XZ 10059820 f i bncs_client_runtime.obj
 0002:0002b880       ??1?$QValueList@VdeviceTypeInfo@@@@QAE@XZ 10059880 f i bncs_client_runtime.obj
 0002:0002b8e0       ??1?$QValueList@VinstanceInfo@@@@QAE@XZ 100598e0 f i bncs_client_runtime.obj
 0002:0002b940       ??1?$QValueList@VparamInfo@@@@QAE@XZ 10059940 f i bncs_client_runtime.obj
 0002:0002b9a0       ??1?$QValueListNode@VcomplexInstance@@@@UAE@XZ 100599a0 f i bncs_client_runtime.obj
 0002:0002ba10       ??1?$QValueListNode@VcomplexParam@@@@UAE@XZ 10059a10 f i bncs_client_runtime.obj
 0002:0002ba80       ??1?$QValueListNode@VcomplexType@@@@UAE@XZ 10059a80 f i bncs_client_runtime.obj
 0002:0002baf0       ??1?$QValueListNode@VdeviceTypeInfo@@@@UAE@XZ 10059af0 f i bncs_client_runtime.obj
 0002:0002bb60       ??1?$QValueListNode@VinstanceInfo@@@@UAE@XZ 10059b60 f i bncs_client_runtime.obj
 0002:0002bbd0       ??1?$QValueListNode@VparamInfo@@@@UAE@XZ 10059bd0 f i bncs_client_runtime.obj
 0002:0002bc40       ??1?$QValueListPrivate@VcomplexInstance@@@@UAE@XZ 10059c40 f i bncs_client_runtime.obj
 0002:0002bd90       ??1?$QValueListPrivate@VcomplexParam@@@@UAE@XZ 10059d90 f i bncs_client_runtime.obj
 0002:0002bee0       ??1?$QValueListPrivate@VcomplexType@@@@UAE@XZ 10059ee0 f i bncs_client_runtime.obj
 0002:0002c030       ??1?$QValueListPrivate@VdeviceTypeInfo@@@@UAE@XZ 1005a030 f i bncs_client_runtime.obj
 0002:0002c180       ??1?$QValueListPrivate@VinstanceInfo@@@@UAE@XZ 1005a180 f i bncs_client_runtime.obj
 0002:0002c2d0       ??1?$QValueListPrivate@VparamInfo@@@@UAE@XZ 1005a2d0 f i bncs_client_runtime.obj
 0002:0002c420       ??1?$_String_alloc@$0A@U?$_String_base_types@DV?$allocator@D@std@@@std@@@std@@QAE@XZ 1005a420 f i bncs_client_runtime.obj
 0002:0002c480       ??1?$_String_val@U?$_Simple_types@D@std@@@std@@QAE@XZ 1005a480 f i bncs_client_runtime.obj
 0002:0002c4e0       ??1_Generic_error_category@std@@UAE@XZ 1005a4e0 f i bncs_client_runtime.obj
 0002:0002c530       ??1_Iostream_error_category@std@@UAE@XZ 1005a530 f i bncs_client_runtime.obj
 0002:0002c580       ??1_System_error_category@std@@UAE@XZ 1005a580 f i bncs_client_runtime.obj
 0002:0002c5d0       ??1error_category@std@@UAE@XZ 1005a5d0 f i bncs_client_runtime.obj
 0002:0002c610       ??1signalConnection@@QAE@XZ 1005a610 f i bncs_client_runtime.obj
 0002:0002c730       ??1signalConnectionRefList@@UAE@XZ 1005a730 f i bncs_client_runtime.obj
 0002:0002c7e0       ??1signalConnectionRefListIt@@QAE@XZ 1005a7e0 f i bncs_client_runtime.obj
 0002:0002c830       ??2@YAPAXIPAX@Z            1005a830 f i bncs_client_runtime.obj
 0002:0002c870       ??3@YAXPAX0@Z              1005a870 f i bncs_client_runtime.obj
 0002:0002c8a0       ??4?$QMap@VQString@@VcomplexInstance@@@@QAEAAV0@ABV0@@Z 1005a8a0 f i bncs_client_runtime.obj
 0002:0002c990       ??4?$QMap@VQString@@VcomplexParam@@@@QAEAAV0@ABV0@@Z 1005a990 f i bncs_client_runtime.obj
 0002:0002ca80       ??4?$QMap@VQString@@VcomplexType@@@@QAEAAV0@ABV0@@Z 1005aa80 f i bncs_client_runtime.obj
 0002:0002cb70       ??4?$QMap@VQString@@VdeviceTypeInfo@@@@QAEAAV0@ABV0@@Z 1005ab70 f i bncs_client_runtime.obj
 0002:0002cc60       ??4?$QMap@VQString@@VinstanceInfo@@@@QAEAAV0@ABV0@@Z 1005ac60 f i bncs_client_runtime.obj
 0002:0002cd50       ??4?$QMap@VQString@@VparamInfo@@@@QAEAAV0@ABV0@@Z 1005ad50 f i bncs_client_runtime.obj
 0002:0002ce40       ??4?$QPtrList@VsignalConnection@@@@QAEAAV0@ABV0@@Z 1005ae40 f i bncs_client_runtime.obj
 0002:0002ceb0       ??4?$QPtrListIterator@VsignalConnection@@@@QAEAAV0@ABV0@@Z 1005aeb0 f i bncs_client_runtime.obj
 0002:0002cf20       ??4IccTimerCallback@@QAEAAV0@ABV0@@Z 1005af20 f i bncs_client_runtime.obj
 0002:0002cf60       ??4IdCWlimits@@QAEAAV0@ABV0@@Z 1005af60 f i bncs_client_runtime.obj
 0002:0002cfa0       ??4bncs_client_runtime@@QAEAAV0@ABV0@@Z 1005afa0 f i bncs_client_runtime.obj
 0002:0002d150       ??4dCW@@QAEAAV0@ABV0@@Z    1005b150 f i bncs_client_runtime.obj
 0002:0002d380       ??4signalConnection@@QAEAAV0@ABV0@@Z 1005b380 f i bncs_client_runtime.obj
 0002:0002d480       ??4signalConnectionRefList@@QAEAAV0@ABV0@@Z 1005b480 f i bncs_client_runtime.obj
 0002:0002d4e0       ??4signalConnectionRefListIt@@QAEAAV0@ABV0@@Z 1005b4e0 f i bncs_client_runtime.obj
 0002:0002d540       ??8?$QMapIterator@VQString@@VcomplexInstance@@@@QBE_NABV0@@Z 1005b540 f i bncs_client_runtime.obj
 0002:0002d5b0       ??8?$QMapIterator@VQString@@VcomplexParam@@@@QBE_NABV0@@Z 1005b5b0 f i bncs_client_runtime.obj
 0002:0002d620       ??8?$QMapIterator@VQString@@VcomplexType@@@@QBE_NABV0@@Z 1005b620 f i bncs_client_runtime.obj
 0002:0002d690       ??8?$QMapIterator@VQString@@VdeviceTypeInfo@@@@QBE_NABV0@@Z 1005b690 f i bncs_client_runtime.obj
 0002:0002d700       ??8?$QMapIterator@VQString@@VinstanceInfo@@@@QBE_NABV0@@Z 1005b700 f i bncs_client_runtime.obj
 0002:0002d770       ??8?$QMapIterator@VQString@@VparamInfo@@@@QBE_NABV0@@Z 1005b770 f i bncs_client_runtime.obj
 0002:0002d7e0       ??8?$QPtrList@VsignalConnection@@@@QBE_NABV0@@Z 1005b7e0 f i bncs_client_runtime.obj
 0002:0002d850       ??8@YA_NVQChar@@D@Z        1005b850 f i bncs_client_runtime.obj
 0002:0002d8b0       ??8error_category@std@@QBE_NABV01@@Z 1005b8b0 f i bncs_client_runtime.obj
 0002:0002d920       ??8error_condition@std@@QBE_NABV01@@Z 1005b920 f i bncs_client_runtime.obj
 0002:0002d9d0       ??9?$QMapConstIterator@VQString@@VcomplexInstance@@@@QBE_NABV0@@Z 1005b9d0 f i bncs_client_runtime.obj
 0002:0002da40       ??9?$QMapConstIterator@VQString@@VcomplexParam@@@@QBE_NABV0@@Z 1005ba40 f i bncs_client_runtime.obj
 0002:0002dab0       ??9?$QMapConstIterator@VQString@@VcomplexType@@@@QBE_NABV0@@Z 1005bab0 f i bncs_client_runtime.obj
 0002:0002db20       ??9?$QMapConstIterator@VQString@@VdeviceTypeInfo@@@@QBE_NABV0@@Z 1005bb20 f i bncs_client_runtime.obj
 0002:0002db90       ??9?$QMapConstIterator@VQString@@VinstanceInfo@@@@QBE_NABV0@@Z 1005bb90 f i bncs_client_runtime.obj
 0002:0002dc00       ??9?$QMapConstIterator@VQString@@VparamInfo@@@@QBE_NABV0@@Z 1005bc00 f i bncs_client_runtime.obj
 0002:0002dc70       ??9?$QMapIterator@VQString@@VcomplexInstance@@@@QBE_NABV0@@Z 1005bc70 f i bncs_client_runtime.obj
 0002:0002dce0       ??9?$QMapIterator@VQString@@VcomplexParam@@@@QBE_NABV0@@Z 1005bce0 f i bncs_client_runtime.obj
 0002:0002dd50       ??9?$QMapIterator@VQString@@VcomplexType@@@@QBE_NABV0@@Z 1005bd50 f i bncs_client_runtime.obj
 0002:0002ddc0       ??9?$QMapIterator@VQString@@VdeviceTypeInfo@@@@QBE_NABV0@@Z 1005bdc0 f i bncs_client_runtime.obj
 0002:0002de30       ??9?$QMapIterator@VQString@@VinstanceInfo@@@@QBE_NABV0@@Z 1005be30 f i bncs_client_runtime.obj
 0002:0002dea0       ??9?$QMapIterator@VQString@@VparamInfo@@@@QBE_NABV0@@Z 1005bea0 f i bncs_client_runtime.obj
 0002:0002df10       ??9?$QPtrList@VsignalConnection@@@@QBE_NABV0@@Z 1005bf10 f i bncs_client_runtime.obj
 0002:0002dfa0       ??9?$QPtrListStdIterator@VQWidget@@@@QBE_NABV0@@Z 1005bfa0 f i bncs_client_runtime.obj
 0002:0002e010       ??9?$QPtrListStdIterator@VsignalConnection@@@@QBE_NABV0@@Z 1005c010 f i bncs_client_runtime.obj
 0002:0002e080       ??9?$QValueListIterator@VcomplexInstance@@@@QBE_NABV0@@Z 1005c080 f i bncs_client_runtime.obj
 0002:0002e0f0       ??9?$QValueListIterator@VcomplexParam@@@@QBE_NABV0@@Z 1005c0f0 f i bncs_client_runtime.obj
 0002:0002e160       ??9?$QValueListIterator@VcomplexType@@@@QBE_NABV0@@Z 1005c160 f i bncs_client_runtime.obj
 0002:0002e1d0       ??9?$QValueListIterator@VdeviceTypeInfo@@@@QBE_NABV0@@Z 1005c1d0 f i bncs_client_runtime.obj
 0002:0002e240       ??9?$QValueListIterator@VinstanceInfo@@@@QBE_NABV0@@Z 1005c240 f i bncs_client_runtime.obj
 0002:0002e2b0       ??9?$QValueListIterator@VparamInfo@@@@QBE_NABV0@@Z 1005c2b0 f i bncs_client_runtime.obj
 0002:0002e320       ??A?$QMap@VQString@@VcomplexInstance@@@@QAEAAVcomplexInstance@@ABVQString@@@Z 1005c320 f i bncs_client_runtime.obj
 0002:0002e490       ??A?$QMap@VQString@@VcomplexInstance@@@@QBEABVcomplexInstance@@ABVQString@@@Z 1005c490 f i bncs_client_runtime.obj
 0002:0002e500       ??A?$QMap@VQString@@VcomplexParam@@@@QAEAAVcomplexParam@@ABVQString@@@Z 1005c500 f i bncs_client_runtime.obj
 0002:0002e670       ??A?$QMap@VQString@@VcomplexParam@@@@QBEABVcomplexParam@@ABVQString@@@Z 1005c670 f i bncs_client_runtime.obj
 0002:0002e6e0       ??A?$QMap@VQString@@VcomplexType@@@@QAEAAVcomplexType@@ABVQString@@@Z 1005c6e0 f i bncs_client_runtime.obj
 0002:0002e850       ??A?$QMap@VQString@@VcomplexType@@@@QBEABVcomplexType@@ABVQString@@@Z 1005c850 f i bncs_client_runtime.obj
 0002:0002e8c0       ??A?$QMap@VQString@@VdeviceTypeInfo@@@@QAEAAVdeviceTypeInfo@@ABVQString@@@Z 1005c8c0 f i bncs_client_runtime.obj
 0002:0002ea30       ??A?$QMap@VQString@@VdeviceTypeInfo@@@@QBEABVdeviceTypeInfo@@ABVQString@@@Z 1005ca30 f i bncs_client_runtime.obj
 0002:0002eaa0       ??A?$QMap@VQString@@VinstanceInfo@@@@QAEAAVinstanceInfo@@ABVQString@@@Z 1005caa0 f i bncs_client_runtime.obj
 0002:0002ec10       ??A?$QMap@VQString@@VinstanceInfo@@@@QBEABVinstanceInfo@@ABVQString@@@Z 1005cc10 f i bncs_client_runtime.obj
 0002:0002ec80       ??A?$QMap@VQString@@VparamInfo@@@@QAEAAVparamInfo@@ABVQString@@@Z 1005cc80 f i bncs_client_runtime.obj
 0002:0002edf0       ??A?$QMap@VQString@@VparamInfo@@@@QBEABVparamInfo@@ABVQString@@@Z 1005cdf0 f i bncs_client_runtime.obj
 0002:0002ee60       ??B?$QPtrListIterator@VsignalConnection@@@@QBEPAVsignalConnection@@XZ 1005ce60 f i bncs_client_runtime.obj
 0002:0002eec0       ??D?$QMapConstIterator@VQString@@VcomplexInstance@@@@QBEABVcomplexInstance@@XZ 1005cec0 f i bncs_client_runtime.obj
 0002:0002ef00       ??D?$QMapConstIterator@VQString@@VcomplexParam@@@@QBEABVcomplexParam@@XZ 1005cf00 f i bncs_client_runtime.obj
 0002:0002ef40       ??D?$QMapConstIterator@VQString@@VcomplexType@@@@QBEABVcomplexType@@XZ 1005cf40 f i bncs_client_runtime.obj
 0002:0002ef80       ??D?$QMapConstIterator@VQString@@VdeviceTypeInfo@@@@QBEABVdeviceTypeInfo@@XZ 1005cf80 f i bncs_client_runtime.obj
 0002:0002efc0       ??D?$QMapConstIterator@VQString@@VinstanceInfo@@@@QBEABVinstanceInfo@@XZ 1005cfc0 f i bncs_client_runtime.obj
 0002:0002f000       ??D?$QMapConstIterator@VQString@@VparamInfo@@@@QBEABVparamInfo@@XZ 1005d000 f i bncs_client_runtime.obj
 0002:0002f040       ??D?$QPtrListIterator@VsignalConnection@@@@QAEPAVsignalConnection@@XZ 1005d040 f i bncs_client_runtime.obj
 0002:0002f0a0       ??D?$QPtrListStdIterator@VQWidget@@@@QAEPAVQWidget@@XZ 1005d0a0 f i bncs_client_runtime.obj
 0002:0002f130       ??D?$QPtrListStdIterator@VsignalConnection@@@@QAEPAVsignalConnection@@XZ 1005d130 f i bncs_client_runtime.obj
 0002:0002f1c0       ??D?$QValueListIterator@VcomplexInstance@@@@QAEAAVcomplexInstance@@XZ 1005d1c0 f i bncs_client_runtime.obj
 0002:0002f200       ??D?$QValueListIterator@VcomplexParam@@@@QAEAAVcomplexParam@@XZ 1005d200 f i bncs_client_runtime.obj
 0002:0002f240       ??D?$QValueListIterator@VcomplexType@@@@QAEAAVcomplexType@@XZ 1005d240 f i bncs_client_runtime.obj
 0002:0002f280       ??D?$QValueListIterator@VdeviceTypeInfo@@@@QAEAAVdeviceTypeInfo@@XZ 1005d280 f i bncs_client_runtime.obj
 0002:0002f2c0       ??D?$QValueListIterator@VinstanceInfo@@@@QAEAAVinstanceInfo@@XZ 1005d2c0 f i bncs_client_runtime.obj
 0002:0002f300       ??D?$QValueListIterator@VparamInfo@@@@QAEAAVparamInfo@@XZ 1005d300 f i bncs_client_runtime.obj
 0002:0002f340       ??E?$QMapConstIterator@VQString@@VcomplexInstance@@@@QAEAAV0@XZ 1005d340 f i bncs_client_runtime.obj
 0002:0002f3a0       ??E?$QMapConstIterator@VQString@@VcomplexParam@@@@QAEAAV0@XZ 1005d3a0 f i bncs_client_runtime.obj
 0002:0002f400       ??E?$QMapConstIterator@VQString@@VcomplexType@@@@QAEAAV0@XZ 1005d400 f i bncs_client_runtime.obj
 0002:0002f460       ??E?$QMapConstIterator@VQString@@VdeviceTypeInfo@@@@QAEAAV0@XZ 1005d460 f i bncs_client_runtime.obj
 0002:0002f4c0       ??E?$QMapConstIterator@VQString@@VinstanceInfo@@@@QAEAAV0@XZ 1005d4c0 f i bncs_client_runtime.obj
 0002:0002f520       ??E?$QMapConstIterator@VQString@@VparamInfo@@@@QAEAAV0@XZ 1005d520 f i bncs_client_runtime.obj
 0002:0002f580       ??E?$QPtrListIterator@VsignalConnection@@@@QAEPAVsignalConnection@@XZ 1005d580 f i bncs_client_runtime.obj
 0002:0002f5e0       ??E?$QPtrListStdIterator@VQWidget@@@@QAE?AV0@XZ 1005d5e0 f i bncs_client_runtime.obj
 0002:0002f670       ??E?$QPtrListStdIterator@VsignalConnection@@@@QAE?AV0@XZ 1005d670 f i bncs_client_runtime.obj
 0002:0002f700       ??E?$QValueListIterator@VcomplexInstance@@@@QAE?AV0@H@Z 1005d700 f i bncs_client_runtime.obj
 0002:0002f7b0       ??E?$QValueListIterator@VcomplexParam@@@@QAE?AV0@H@Z 1005d7b0 f i bncs_client_runtime.obj
 0002:0002f860       ??E?$QValueListIterator@VcomplexType@@@@QAE?AV0@H@Z 1005d860 f i bncs_client_runtime.obj
 0002:0002f910       ??E?$QValueListIterator@VdeviceTypeInfo@@@@QAE?AV0@H@Z 1005d910 f i bncs_client_runtime.obj
 0002:0002f9c0       ??E?$QValueListIterator@VinstanceInfo@@@@QAE?AV0@H@Z 1005d9c0 f i bncs_client_runtime.obj
 0002:0002fa70       ??E?$QValueListIterator@VparamInfo@@@@QAE?AV0@H@Z 1005da70 f i bncs_client_runtime.obj
 0002:0002fb20       ??F?$QMapIterator@VQString@@VcomplexInstance@@@@QAEAAV0@XZ 1005db20 f i bncs_client_runtime.obj
 0002:0002fb80       ??F?$QMapIterator@VQString@@VcomplexParam@@@@QAEAAV0@XZ 1005db80 f i bncs_client_runtime.obj
 0002:0002fbe0       ??F?$QMapIterator@VQString@@VcomplexType@@@@QAEAAV0@XZ 1005dbe0 f i bncs_client_runtime.obj
 0002:0002fc40       ??F?$QMapIterator@VQString@@VdeviceTypeInfo@@@@QAEAAV0@XZ 1005dc40 f i bncs_client_runtime.obj
 0002:0002fca0       ??F?$QMapIterator@VQString@@VinstanceInfo@@@@QAEAAV0@XZ 1005dca0 f i bncs_client_runtime.obj
 0002:0002fd00       ??F?$QMapIterator@VQString@@VparamInfo@@@@QAEAAV0@XZ 1005dd00 f i bncs_client_runtime.obj
 0002:0002fd60       ??F?$QPtrListIterator@VsignalConnection@@@@QAEPAVsignalConnection@@XZ 1005dd60 f i bncs_client_runtime.obj
 0002:0002fdc0       ??R?$QPtrListIterator@VsignalConnection@@@@QAEPAVsignalConnection@@XZ 1005ddc0 f i bncs_client_runtime.obj
 0002:0002fe20       ??Y?$QPtrListIterator@VsignalConnection@@@@QAEPAVsignalConnection@@I@Z 1005de20 f i bncs_client_runtime.obj
 0002:0002fe90       ??Z?$QPtrListIterator@VsignalConnection@@@@QAEPAVsignalConnection@@I@Z 1005de90 f i bncs_client_runtime.obj
 0002:0002ff00       ??_E?$QPtrList@VsignalConnection@@@@UAEPAXI@Z 1005df00 f i bncs_client_runtime.obj
 0002:0002ffc0       ??_Ebncs_client_runtime@@UAEPAXI@Z 1005dfc0 f i bncs_client_runtime.obj
 0002:0003007f       ??_Ebncs_client_runtime@@WCI@AEPAXI@Z 1005e07f f i bncs_client_runtime.obj
 0002:00030090       ??_EdCW@@UAEPAXI@Z         1005e090 f i bncs_client_runtime.obj
 0002:00030150       ??_EsignalConnectionRefList@@UAEPAXI@Z 1005e150 f i bncs_client_runtime.obj
 0002:00030210       ??_Fbncs_client_runtime@@QAEXXZ 1005e210 f i bncs_client_runtime.obj
 0002:00030270       ??_G?$QMapNode@VQString@@VcomplexInstance@@@@QAEPAXI@Z 1005e270 f i bncs_client_runtime.obj
 0002:000302e0       ??_G?$QMapNode@VQString@@VcomplexParam@@@@QAEPAXI@Z 1005e2e0 f i bncs_client_runtime.obj
 0002:00030350       ??_G?$QMapNode@VQString@@VcomplexType@@@@QAEPAXI@Z 1005e350 f i bncs_client_runtime.obj
 0002:000303c0       ??_G?$QMapNode@VQString@@VdeviceTypeInfo@@@@QAEPAXI@Z 1005e3c0 f i bncs_client_runtime.obj
 0002:00030430       ??_G?$QMapNode@VQString@@VinstanceInfo@@@@QAEPAXI@Z 1005e430 f i bncs_client_runtime.obj
 0002:000304a0       ??_G?$QMapNode@VQString@@VparamInfo@@@@QAEPAXI@Z 1005e4a0 f i bncs_client_runtime.obj
 0002:00030510       ??_G?$QMapPrivate@VQString@@VcomplexInstance@@@@QAEPAXI@Z 1005e510 f i bncs_client_runtime.obj
 0002:00030580       ??_G?$QMapPrivate@VQString@@VcomplexParam@@@@QAEPAXI@Z 1005e580 f i bncs_client_runtime.obj
 0002:000305f0       ??_G?$QMapPrivate@VQString@@VcomplexType@@@@QAEPAXI@Z 1005e5f0 f i bncs_client_runtime.obj
 0002:00030660       ??_G?$QMapPrivate@VQString@@VdeviceTypeInfo@@@@QAEPAXI@Z 1005e660 f i bncs_client_runtime.obj
 0002:000306d0       ??_G?$QMapPrivate@VQString@@VinstanceInfo@@@@QAEPAXI@Z 1005e6d0 f i bncs_client_runtime.obj
 0002:00030740       ??_G?$QMapPrivate@VQString@@VparamInfo@@@@QAEPAXI@Z 1005e740 f i bncs_client_runtime.obj
 0002:000307b0       ??_G?$QPtrList@VsignalConnection@@@@UAEPAXI@Z 1005e7b0 f i bncs_client_runtime.obj
 0002:00030820       ??_E?$QValueListNode@VcomplexInstance@@@@UAEPAXI@Z 1005e820 f i bncs_client_runtime.obj
 0002:00030820       ??_G?$QValueListNode@VcomplexInstance@@@@UAEPAXI@Z 1005e820 f i bncs_client_runtime.obj
 0002:00030890       ??_G?$QValueListNode@VcomplexParam@@@@UAEPAXI@Z 1005e890 f i bncs_client_runtime.obj
 0002:00030890       ??_E?$QValueListNode@VcomplexParam@@@@UAEPAXI@Z 1005e890 f i bncs_client_runtime.obj
 0002:00030900       ??_E?$QValueListNode@VcomplexType@@@@UAEPAXI@Z 1005e900 f i bncs_client_runtime.obj
 0002:00030900       ??_G?$QValueListNode@VcomplexType@@@@UAEPAXI@Z 1005e900 f i bncs_client_runtime.obj
 0002:00030970       ??_E?$QValueListNode@VdeviceTypeInfo@@@@UAEPAXI@Z 1005e970 f i bncs_client_runtime.obj
 0002:00030970       ??_G?$QValueListNode@VdeviceTypeInfo@@@@UAEPAXI@Z 1005e970 f i bncs_client_runtime.obj
 0002:000309e0       ??_E?$QValueListNode@VinstanceInfo@@@@UAEPAXI@Z 1005e9e0 f i bncs_client_runtime.obj
 0002:000309e0       ??_G?$QValueListNode@VinstanceInfo@@@@UAEPAXI@Z 1005e9e0 f i bncs_client_runtime.obj
 0002:00030a50       ??_G?$QValueListNode@VparamInfo@@@@UAEPAXI@Z 1005ea50 f i bncs_client_runtime.obj
 0002:00030a50       ??_E?$QValueListNode@VparamInfo@@@@UAEPAXI@Z 1005ea50 f i bncs_client_runtime.obj
 0002:00030ac0       ??_E?$QValueListPrivate@VcomplexInstance@@@@UAEPAXI@Z 1005eac0 f i bncs_client_runtime.obj
 0002:00030ac0       ??_G?$QValueListPrivate@VcomplexInstance@@@@UAEPAXI@Z 1005eac0 f i bncs_client_runtime.obj
 0002:00030b30       ??_E?$QValueListPrivate@VcomplexParam@@@@UAEPAXI@Z 1005eb30 f i bncs_client_runtime.obj
 0002:00030b30       ??_G?$QValueListPrivate@VcomplexParam@@@@UAEPAXI@Z 1005eb30 f i bncs_client_runtime.obj
 0002:00030ba0       ??_E?$QValueListPrivate@VcomplexType@@@@UAEPAXI@Z 1005eba0 f i bncs_client_runtime.obj
 0002:00030ba0       ??_G?$QValueListPrivate@VcomplexType@@@@UAEPAXI@Z 1005eba0 f i bncs_client_runtime.obj
 0002:00030c10       ??_G?$QValueListPrivate@VdeviceTypeInfo@@@@UAEPAXI@Z 1005ec10 f i bncs_client_runtime.obj
 0002:00030c10       ??_E?$QValueListPrivate@VdeviceTypeInfo@@@@UAEPAXI@Z 1005ec10 f i bncs_client_runtime.obj
 0002:00030c80       ??_G?$QValueListPrivate@VinstanceInfo@@@@UAEPAXI@Z 1005ec80 f i bncs_client_runtime.obj
 0002:00030c80       ??_E?$QValueListPrivate@VinstanceInfo@@@@UAEPAXI@Z 1005ec80 f i bncs_client_runtime.obj
 0002:00030cf0       ??_E?$QValueListPrivate@VparamInfo@@@@UAEPAXI@Z 1005ecf0 f i bncs_client_runtime.obj
 0002:00030cf0       ??_G?$QValueListPrivate@VparamInfo@@@@UAEPAXI@Z 1005ecf0 f i bncs_client_runtime.obj
 0002:00030d60       ??_G_Generic_error_category@std@@UAEPAXI@Z 1005ed60 f i bncs_client_runtime.obj
 0002:00030d60       ??_E_Generic_error_category@std@@UAEPAXI@Z 1005ed60 f i bncs_client_runtime.obj
 0002:00030dd0       ??_G_Iostream_error_category@std@@UAEPAXI@Z 1005edd0 f i bncs_client_runtime.obj
 0002:00030dd0       ??_E_Iostream_error_category@std@@UAEPAXI@Z 1005edd0 f i bncs_client_runtime.obj
 0002:00030e40       ??_G_System_error_category@std@@UAEPAXI@Z 1005ee40 f i bncs_client_runtime.obj
 0002:00030e40       ??_E_System_error_category@std@@UAEPAXI@Z 1005ee40 f i bncs_client_runtime.obj
 0002:00030eb0       ??_Gbncs_client_runtime@@UAEPAXI@Z 1005eeb0 f i bncs_client_runtime.obj
 0002:00030f20       ??_GdCW@@UAEPAXI@Z         1005ef20 f i bncs_client_runtime.obj
 0002:00030f90       ??_Eerror_category@std@@UAEPAXI@Z 1005ef90 f i bncs_client_runtime.obj
 0002:00030f90       ??_Gerror_category@std@@UAEPAXI@Z 1005ef90 f i bncs_client_runtime.obj
 0002:00031000       ??_GsignalConnection@@QAEPAXI@Z 1005f000 f i bncs_client_runtime.obj
 0002:00031070       ??_GsignalConnectionRefList@@UAEPAXI@Z 1005f070 f i bncs_client_runtime.obj
 0002:000310e0       ?_Alloc_proxy@?$_String_alloc@$0A@U?$_String_base_types@DV?$allocator@D@std@@@std@@@std@@QAEXXZ 1005f0e0 f i bncs_client_runtime.obj
 0002:000311b0       ?_Copy@?$basic_string@DU?$char_traits@D@std@@V?$allocator@D@2@@std@@QAEXII@Z 1005f1b0 f i bncs_client_runtime.obj
 0002:00031470       ?_Eos@?$basic_string@DU?$char_traits@D@std@@V?$allocator@D@2@@std@@QAEXI@Z 1005f470 f i bncs_client_runtime.obj
 0002:000314f0       ?_Free_proxy@?$_String_alloc@$0A@U?$_String_base_types@DV?$allocator@D@std@@@std@@@std@@QAEXXZ 1005f4f0 f i bncs_client_runtime.obj
 0002:000315d0       ?_Getal@?$_String_alloc@$0A@U?$_String_base_types@DV?$allocator@D@std@@@std@@@std@@QBE?AU?$_Wrap_alloc@V?$allocator@D@std@@@2@XZ 1005f5d0 f i bncs_client_runtime.obj
 0002:00031630       ?_Grow@?$basic_string@DU?$char_traits@D@std@@V?$allocator@D@2@@std@@QAE_NI_N@Z 1005f630 f i bncs_client_runtime.obj
 0002:00031750       ?_Inside@?$basic_string@DU?$char_traits@D@std@@V?$allocator@D@2@@std@@QAE_NPBD@Z 1005f750 f i bncs_client_runtime.obj
 0002:000317d0       ?_Myptr@?$_String_val@U?$_Simple_types@D@std@@@std@@QAEPADXZ 1005f7d0 f i bncs_client_runtime.obj
 0002:00031860       ?_Myptr@?$_String_val@U?$_Simple_types@D@std@@@std@@QBEPBDXZ 1005f860 f i bncs_client_runtime.obj
 0002:000318f0       ?_Tidy@?$basic_string@DU?$char_traits@D@std@@V?$allocator@D@2@@std@@QAEX_NI@Z 1005f8f0 f i bncs_client_runtime.obj
 0002:00031a00       ?_Xlen@?$basic_string@DU?$char_traits@D@std@@V?$allocator@D@2@@std@@QBEXXZ 1005fa00 f i bncs_client_runtime.obj
 0002:00031a60       ?_Xran@?$basic_string@DU?$char_traits@D@std@@V?$allocator@D@2@@std@@QBEXXZ 1005fa60 f i bncs_client_runtime.obj
 0002:00031ac0       ?allocate@?$_Wrap_alloc@V?$allocator@D@std@@@std@@QAEPADI@Z 1005fac0 f i bncs_client_runtime.obj
 0002:00031b20       ?allocate@?$allocator@D@std@@QAEPADI@Z 1005fb20 f i bncs_client_runtime.obj
 0002:00031b80       ?allocate@?$allocator@U_Container_proxy@std@@@std@@QAEPAU_Container_proxy@2@I@Z 1005fb80 f i bncs_client_runtime.obj
 0002:00031be0       ?append@?$QPtrList@VsignalConnection@@@@QAEXPBVsignalConnection@@@Z 1005fbe0 f i bncs_client_runtime.obj
 0002:00031c50       ?append@?$QValueList@VcomplexInstance@@@@QAE?AV?$QValueListIterator@VcomplexInstance@@@@ABVcomplexInstance@@@Z 1005fc50 f i bncs_client_runtime.obj
 0002:00031cd0       ?append@?$QValueList@VcomplexParam@@@@QAE?AV?$QValueListIterator@VcomplexParam@@@@ABVcomplexParam@@@Z 1005fcd0 f i bncs_client_runtime.obj
 0002:00031d50       ?append@?$QValueList@VcomplexType@@@@QAE?AV?$QValueListIterator@VcomplexType@@@@ABVcomplexType@@@Z 1005fd50 f i bncs_client_runtime.obj
 0002:00031dd0       ?append@?$QValueList@VdeviceTypeInfo@@@@QAE?AV?$QValueListIterator@VdeviceTypeInfo@@@@ABVdeviceTypeInfo@@@Z 1005fdd0 f i bncs_client_runtime.obj
 0002:00031e50       ?append@?$QValueList@VinstanceInfo@@@@QAE?AV?$QValueListIterator@VinstanceInfo@@@@ABVinstanceInfo@@@Z 1005fe50 f i bncs_client_runtime.obj
 0002:00031ed0       ?append@?$QValueList@VparamInfo@@@@QAE?AV?$QValueListIterator@VparamInfo@@@@ABVparamInfo@@@Z 1005fed0 f i bncs_client_runtime.obj
 0002:00031f50       ?assign@?$basic_string@DU?$char_traits@D@std@@V?$allocator@D@2@@std@@QAEAAV12@ABV12@II@Z 1005ff50 f i bncs_client_runtime.obj
 0002:00032060       ?assign@?$basic_string@DU?$char_traits@D@std@@V?$allocator@D@2@@std@@QAEAAV12@PBD@Z 10060060 f i bncs_client_runtime.obj
 0002:000320f0       ?assign@?$basic_string@DU?$char_traits@D@std@@V?$allocator@D@2@@std@@QAEAAV12@PBDI@Z 100600f0 f i bncs_client_runtime.obj
 0002:000321f0       ?assign@?$char_traits@D@std@@SAXAADABD@Z 100601f0 f i bncs_client_runtime.obj
 0002:00032230       ?at@?$QPtrList@VsignalConnection@@@@QAEPAVsignalConnection@@I@Z 10060230 f i bncs_client_runtime.obj
 0002:000322a0       ?at@?$QPtrList@VsignalConnection@@@@QBEHXZ 100602a0 f i bncs_client_runtime.obj
 0002:00032300       ?atFirst@?$QPtrListIterator@VsignalConnection@@@@QBE_NXZ 10060300 f i bncs_client_runtime.obj
 0002:00032360       ?atLast@?$QPtrListIterator@VsignalConnection@@@@QBE_NXZ 10060360 f i bncs_client_runtime.obj
 0002:000323c0       ?bcolour@dCW@@QAE?AVQString@@XZ 100603c0 f i bncs_client_runtime.obj
 0002:00032450       ?begin@?$QMap@VQString@@VcomplexInstance@@@@QAE?AV?$QMapIterator@VQString@@VcomplexInstance@@@@XZ 10060450 f i bncs_client_runtime.obj
 0002:000324c0       ?begin@?$QMap@VQString@@VcomplexInstance@@@@QBE?AV?$QMapConstIterator@VQString@@VcomplexInstance@@@@XZ 100604c0 f i bncs_client_runtime.obj
 0002:00032520       ?begin@?$QMap@VQString@@VcomplexParam@@@@QAE?AV?$QMapIterator@VQString@@VcomplexParam@@@@XZ 10060520 f i bncs_client_runtime.obj
 0002:00032590       ?begin@?$QMap@VQString@@VcomplexParam@@@@QBE?AV?$QMapConstIterator@VQString@@VcomplexParam@@@@XZ 10060590 f i bncs_client_runtime.obj
 0002:000325f0       ?begin@?$QMap@VQString@@VcomplexType@@@@QAE?AV?$QMapIterator@VQString@@VcomplexType@@@@XZ 100605f0 f i bncs_client_runtime.obj
 0002:00032660       ?begin@?$QMap@VQString@@VcomplexType@@@@QBE?AV?$QMapConstIterator@VQString@@VcomplexType@@@@XZ 10060660 f i bncs_client_runtime.obj
 0002:000326c0       ?begin@?$QMap@VQString@@VdeviceTypeInfo@@@@QAE?AV?$QMapIterator@VQString@@VdeviceTypeInfo@@@@XZ 100606c0 f i bncs_client_runtime.obj
 0002:00032730       ?begin@?$QMap@VQString@@VdeviceTypeInfo@@@@QBE?AV?$QMapConstIterator@VQString@@VdeviceTypeInfo@@@@XZ 10060730 f i bncs_client_runtime.obj
 0002:00032790       ?begin@?$QMap@VQString@@VinstanceInfo@@@@QAE?AV?$QMapIterator@VQString@@VinstanceInfo@@@@XZ 10060790 f i bncs_client_runtime.obj
 0002:00032800       ?begin@?$QMap@VQString@@VinstanceInfo@@@@QBE?AV?$QMapConstIterator@VQString@@VinstanceInfo@@@@XZ 10060800 f i bncs_client_runtime.obj
 0002:00032860       ?begin@?$QMap@VQString@@VparamInfo@@@@QAE?AV?$QMapIterator@VQString@@VparamInfo@@@@XZ 10060860 f i bncs_client_runtime.obj
 0002:000328d0       ?begin@?$QMap@VQString@@VparamInfo@@@@QBE?AV?$QMapConstIterator@VQString@@VparamInfo@@@@XZ 100608d0 f i bncs_client_runtime.obj
 0002:00032930       ?begin@?$QMapPrivate@VQString@@VcomplexInstance@@@@QAE?AV?$QMapIterator@VQString@@VcomplexInstance@@@@XZ 10060930 f i bncs_client_runtime.obj
 0002:00032990       ?begin@?$QMapPrivate@VQString@@VcomplexInstance@@@@QBE?AV?$QMapConstIterator@VQString@@VcomplexInstance@@@@XZ 10060990 f i bncs_client_runtime.obj
 0002:000329f0       ?begin@?$QMapPrivate@VQString@@VcomplexParam@@@@QAE?AV?$QMapIterator@VQString@@VcomplexParam@@@@XZ 100609f0 f i bncs_client_runtime.obj
 0002:00032a50       ?begin@?$QMapPrivate@VQString@@VcomplexParam@@@@QBE?AV?$QMapConstIterator@VQString@@VcomplexParam@@@@XZ 10060a50 f i bncs_client_runtime.obj
 0002:00032ab0       ?begin@?$QMapPrivate@VQString@@VcomplexType@@@@QAE?AV?$QMapIterator@VQString@@VcomplexType@@@@XZ 10060ab0 f i bncs_client_runtime.obj
 0002:00032b10       ?begin@?$QMapPrivate@VQString@@VcomplexType@@@@QBE?AV?$QMapConstIterator@VQString@@VcomplexType@@@@XZ 10060b10 f i bncs_client_runtime.obj
 0002:00032b70       ?begin@?$QMapPrivate@VQString@@VdeviceTypeInfo@@@@QAE?AV?$QMapIterator@VQString@@VdeviceTypeInfo@@@@XZ 10060b70 f i bncs_client_runtime.obj
 0002:00032bd0       ?begin@?$QMapPrivate@VQString@@VdeviceTypeInfo@@@@QBE?AV?$QMapConstIterator@VQString@@VdeviceTypeInfo@@@@XZ 10060bd0 f i bncs_client_runtime.obj
 0002:00032c30       ?begin@?$QMapPrivate@VQString@@VinstanceInfo@@@@QAE?AV?$QMapIterator@VQString@@VinstanceInfo@@@@XZ 10060c30 f i bncs_client_runtime.obj
 0002:00032c90       ?begin@?$QMapPrivate@VQString@@VinstanceInfo@@@@QBE?AV?$QMapConstIterator@VQString@@VinstanceInfo@@@@XZ 10060c90 f i bncs_client_runtime.obj
 0002:00032cf0       ?begin@?$QMapPrivate@VQString@@VparamInfo@@@@QAE?AV?$QMapIterator@VQString@@VparamInfo@@@@XZ 10060cf0 f i bncs_client_runtime.obj
 0002:00032d50       ?begin@?$QMapPrivate@VQString@@VparamInfo@@@@QBE?AV?$QMapConstIterator@VQString@@VparamInfo@@@@XZ 10060d50 f i bncs_client_runtime.obj
 0002:00032db0       ?begin@?$QPtrList@VsignalConnection@@@@QAE?AV?$QPtrListStdIterator@VsignalConnection@@@@XZ 10060db0 f i bncs_client_runtime.obj
 0002:00032e20       ?begin@?$QPtrList@VsignalConnection@@@@QBE?AV?$QPtrListStdIterator@VsignalConnection@@@@XZ 10060e20 f i bncs_client_runtime.obj
 0002:00032e90       ?bpixmap@dCW@@QAE?AVQString@@XZ 10060e90 f i bncs_client_runtime.obj
 0002:00032f20       ?category@error_code@std@@QBEABVerror_category@2@XZ 10060f20 f i bncs_client_runtime.obj
 0002:00032f60       ?category@error_condition@std@@QBEABVerror_category@2@XZ 10060f60 f i bncs_client_runtime.obj
 0002:00032fa0       ?clear@?$QMap@VQString@@VcomplexInstance@@@@QAEXXZ 10060fa0 f i bncs_client_runtime.obj
 0002:000330c0       ?clear@?$QMap@VQString@@VcomplexParam@@@@QAEXXZ 100610c0 f i bncs_client_runtime.obj
 0002:000331e0       ?clear@?$QMap@VQString@@VcomplexType@@@@QAEXXZ 100611e0 f i bncs_client_runtime.obj
 0002:00033300       ?clear@?$QMap@VQString@@VdeviceTypeInfo@@@@QAEXXZ 10061300 f i bncs_client_runtime.obj
 0002:00033420       ?clear@?$QMap@VQString@@VinstanceInfo@@@@QAEXXZ 10061420 f i bncs_client_runtime.obj
 0002:00033540       ?clear@?$QMap@VQString@@VparamInfo@@@@QAEXXZ 10061540 f i bncs_client_runtime.obj
 0002:00033660       ?clear@?$QMapPrivate@VQString@@VcomplexInstance@@@@QAEXPAU?$QMapNode@VQString@@VcomplexInstance@@@@@Z 10061660 f i bncs_client_runtime.obj
 0002:00033730       ?clear@?$QMapPrivate@VQString@@VcomplexInstance@@@@QAEXXZ 10061730 f i bncs_client_runtime.obj
 0002:000337e0       ?clear@?$QMapPrivate@VQString@@VcomplexParam@@@@QAEXPAU?$QMapNode@VQString@@VcomplexParam@@@@@Z 100617e0 f i bncs_client_runtime.obj
 0002:000338b0       ?clear@?$QMapPrivate@VQString@@VcomplexParam@@@@QAEXXZ 100618b0 f i bncs_client_runtime.obj
 0002:00033960       ?clear@?$QMapPrivate@VQString@@VcomplexType@@@@QAEXPAU?$QMapNode@VQString@@VcomplexType@@@@@Z 10061960 f i bncs_client_runtime.obj
 0002:00033a30       ?clear@?$QMapPrivate@VQString@@VcomplexType@@@@QAEXXZ 10061a30 f i bncs_client_runtime.obj
 0002:00033ae0       ?clear@?$QMapPrivate@VQString@@VdeviceTypeInfo@@@@QAEXPAU?$QMapNode@VQString@@VdeviceTypeInfo@@@@@Z 10061ae0 f i bncs_client_runtime.obj
 0002:00033bb0       ?clear@?$QMapPrivate@VQString@@VdeviceTypeInfo@@@@QAEXXZ 10061bb0 f i bncs_client_runtime.obj
 0002:00033c60       ?clear@?$QMapPrivate@VQString@@VinstanceInfo@@@@QAEXPAU?$QMapNode@VQString@@VinstanceInfo@@@@@Z 10061c60 f i bncs_client_runtime.obj
 0002:00033d30       ?clear@?$QMapPrivate@VQString@@VinstanceInfo@@@@QAEXXZ 10061d30 f i bncs_client_runtime.obj
 0002:00033de0       ?clear@?$QMapPrivate@VQString@@VparamInfo@@@@QAEXPAU?$QMapNode@VQString@@VparamInfo@@@@@Z 10061de0 f i bncs_client_runtime.obj
 0002:00033eb0       ?clear@?$QMapPrivate@VQString@@VparamInfo@@@@QAEXXZ 10061eb0 f i bncs_client_runtime.obj
 0002:00033f60       ?clear@?$QPtrList@VsignalConnection@@@@UAEXXZ 10061f60 f i bncs_client_runtime.obj
 0002:00033fc0       ?connectionList@bncs_client_runtime@@QAEABVsignalConnectionRefList@@XZ 10061fc0 f i bncs_client_runtime.obj
 0002:00034000       ?constBegin@?$QMap@VQString@@VcomplexInstance@@@@QBE?AV?$QMapConstIterator@VQString@@VcomplexInstance@@@@XZ 10062000 f i bncs_client_runtime.obj
 0002:00034060       ?constBegin@?$QMap@VQString@@VcomplexParam@@@@QBE?AV?$QMapConstIterator@VQString@@VcomplexParam@@@@XZ 10062060 f i bncs_client_runtime.obj
 0002:000340c0       ?constBegin@?$QMap@VQString@@VcomplexType@@@@QBE?AV?$QMapConstIterator@VQString@@VcomplexType@@@@XZ 100620c0 f i bncs_client_runtime.obj
 0002:00034120       ?constBegin@?$QMap@VQString@@VdeviceTypeInfo@@@@QBE?AV?$QMapConstIterator@VQString@@VdeviceTypeInfo@@@@XZ 10062120 f i bncs_client_runtime.obj
 0002:00034180       ?constBegin@?$QMap@VQString@@VinstanceInfo@@@@QBE?AV?$QMapConstIterator@VQString@@VinstanceInfo@@@@XZ 10062180 f i bncs_client_runtime.obj
 0002:000341e0       ?constBegin@?$QMap@VQString@@VparamInfo@@@@QBE?AV?$QMapConstIterator@VQString@@VparamInfo@@@@XZ 100621e0 f i bncs_client_runtime.obj
 0002:00034240       ?constBegin@?$QPtrList@VsignalConnection@@@@QBE?AV?$QPtrListStdIterator@VsignalConnection@@@@XZ 10062240 f i bncs_client_runtime.obj
 0002:000342b0       ?constEnd@?$QMap@VQString@@VcomplexInstance@@@@QBE?AV?$QMapConstIterator@VQString@@VcomplexInstance@@@@XZ 100622b0 f i bncs_client_runtime.obj
 0002:00034310       ?constEnd@?$QMap@VQString@@VcomplexParam@@@@QBE?AV?$QMapConstIterator@VQString@@VcomplexParam@@@@XZ 10062310 f i bncs_client_runtime.obj
 0002:00034370       ?constEnd@?$QMap@VQString@@VcomplexType@@@@QBE?AV?$QMapConstIterator@VQString@@VcomplexType@@@@XZ 10062370 f i bncs_client_runtime.obj
 0002:000343d0       ?constEnd@?$QMap@VQString@@VdeviceTypeInfo@@@@QBE?AV?$QMapConstIterator@VQString@@VdeviceTypeInfo@@@@XZ 100623d0 f i bncs_client_runtime.obj
 0002:00034430       ?constEnd@?$QMap@VQString@@VinstanceInfo@@@@QBE?AV?$QMapConstIterator@VQString@@VinstanceInfo@@@@XZ 10062430 f i bncs_client_runtime.obj
 0002:00034490       ?constEnd@?$QMap@VQString@@VparamInfo@@@@QBE?AV?$QMapConstIterator@VQString@@VparamInfo@@@@XZ 10062490 f i bncs_client_runtime.obj
 0002:000344f0       ?constEnd@?$QPtrList@VsignalConnection@@@@QBE?AV?$QPtrListStdIterator@VsignalConnection@@@@XZ 100624f0 f i bncs_client_runtime.obj
 0002:00034560       ?contains@?$QMap@VQString@@VcomplexInstance@@@@QBE_NABVQString@@@Z 10062560 f i bncs_client_runtime.obj
 0002:000345e0       ?contains@?$QMap@VQString@@VcomplexParam@@@@QBE_NABVQString@@@Z 100625e0 f i bncs_client_runtime.obj
 0002:00034660       ?contains@?$QMap@VQString@@VcomplexType@@@@QBE_NABVQString@@@Z 10062660 f i bncs_client_runtime.obj
 0002:000346e0       ?contains@?$QMap@VQString@@VdeviceTypeInfo@@@@QBE_NABVQString@@@Z 100626e0 f i bncs_client_runtime.obj
 0002:00034760       ?contains@?$QMap@VQString@@VinstanceInfo@@@@QBE_NABVQString@@@Z 10062760 f i bncs_client_runtime.obj
 0002:000347e0       ?contains@?$QMap@VQString@@VparamInfo@@@@QBE_NABVQString@@@Z 100627e0 f i bncs_client_runtime.obj
 0002:00034860       ?contains@?$QPtrList@VsignalConnection@@@@QBEIPBVsignalConnection@@@Z 10062860 f i bncs_client_runtime.obj
 0002:000348d0       ?containsRef@?$QPtrList@VsignalConnection@@@@QBEIPBVsignalConnection@@@Z 100628d0 f i bncs_client_runtime.obj
 0002:00034940       ?copy@?$QMapPrivate@VQString@@VcomplexInstance@@@@QAEPAU?$QMapNode@VQString@@VcomplexInstance@@@@PAU2@@Z 10062940 f i bncs_client_runtime.obj
 0002:00034ae0       ?copy@?$QMapPrivate@VQString@@VcomplexParam@@@@QAEPAU?$QMapNode@VQString@@VcomplexParam@@@@PAU2@@Z 10062ae0 f i bncs_client_runtime.obj
 0002:00034c80       ?copy@?$QMapPrivate@VQString@@VcomplexType@@@@QAEPAU?$QMapNode@VQString@@VcomplexType@@@@PAU2@@Z 10062c80 f i bncs_client_runtime.obj
 0002:00034e20       ?copy@?$QMapPrivate@VQString@@VdeviceTypeInfo@@@@QAEPAU?$QMapNode@VQString@@VdeviceTypeInfo@@@@PAU2@@Z 10062e20 f i bncs_client_runtime.obj
 0002:00034fc0       ?copy@?$QMapPrivate@VQString@@VinstanceInfo@@@@QAEPAU?$QMapNode@VQString@@VinstanceInfo@@@@PAU2@@Z 10062fc0 f i bncs_client_runtime.obj
 0002:00035160       ?copy@?$QMapPrivate@VQString@@VparamInfo@@@@QAEPAU?$QMapNode@VQString@@VparamInfo@@@@PAU2@@Z 10063160 f i bncs_client_runtime.obj
 0002:00035300       ?copy@?$char_traits@D@std@@SAPADPADPBDI@Z 10063300 f i bncs_client_runtime.obj
 0002:00035380       ?count@?$QMap@VQString@@VcomplexInstance@@@@QBEIABVQString@@@Z 10063380 f i bncs_client_runtime.obj
 0002:000354a0       ?count@?$QMap@VQString@@VcomplexInstance@@@@QBEIXZ 100634a0 f i bncs_client_runtime.obj
 0002:000354e0       ?count@?$QMap@VQString@@VcomplexParam@@@@QBEIABVQString@@@Z 100634e0 f i bncs_client_runtime.obj
 0002:00035600       ?count@?$QMap@VQString@@VcomplexParam@@@@QBEIXZ 10063600 f i bncs_client_runtime.obj
 0002:00035640       ?count@?$QMap@VQString@@VcomplexType@@@@QBEIABVQString@@@Z 10063640 f i bncs_client_runtime.obj
 0002:00035760       ?count@?$QMap@VQString@@VcomplexType@@@@QBEIXZ 10063760 f i bncs_client_runtime.obj
 0002:000357a0       ?count@?$QMap@VQString@@VdeviceTypeInfo@@@@QBEIABVQString@@@Z 100637a0 f i bncs_client_runtime.obj
 0002:000358c0       ?count@?$QMap@VQString@@VdeviceTypeInfo@@@@QBEIXZ 100638c0 f i bncs_client_runtime.obj
 0002:00035900       ?count@?$QMap@VQString@@VinstanceInfo@@@@QBEIABVQString@@@Z 10063900 f i bncs_client_runtime.obj
 0002:00035a20       ?count@?$QMap@VQString@@VinstanceInfo@@@@QBEIXZ 10063a20 f i bncs_client_runtime.obj
 0002:00035a60       ?count@?$QMap@VQString@@VparamInfo@@@@QBEIABVQString@@@Z 10063a60 f i bncs_client_runtime.obj
 0002:00035b80       ?count@?$QMap@VQString@@VparamInfo@@@@QBEIXZ 10063b80 f i bncs_client_runtime.obj
 0002:00035bc0       ?count@?$QPtrList@VsignalConnection@@@@UBEIXZ 10063bc0 f i bncs_client_runtime.obj
 0002:00035c20       ?count@?$QPtrListIterator@VsignalConnection@@@@QBEIXZ 10063c20 f i bncs_client_runtime.obj
 0002:00035c90       ?current@?$QPtrList@VsignalConnection@@@@QBEPAVsignalConnection@@XZ 10063c90 f i bncs_client_runtime.obj
 0002:00035cf0       ?current@?$QPtrListIterator@VsignalConnection@@@@QBEPAVsignalConnection@@XZ 10063cf0 f i bncs_client_runtime.obj
 0002:00035d50       ?currentNode@?$QPtrList@VsignalConnection@@@@QBEPAVQLNode@@XZ 10063d50 f i bncs_client_runtime.obj
 0002:00035db0       ?data@?$QMapConstIterator@VQString@@VcomplexInstance@@@@QBEABVcomplexInstance@@XZ 10063db0 f i bncs_client_runtime.obj
 0002:00035df0       ?data@?$QMapConstIterator@VQString@@VcomplexParam@@@@QBEABVcomplexParam@@XZ 10063df0 f i bncs_client_runtime.obj
 0002:00035e30       ?data@?$QMapConstIterator@VQString@@VcomplexType@@@@QBEABVcomplexType@@XZ 10063e30 f i bncs_client_runtime.obj
 0002:00035e70       ?data@?$QMapConstIterator@VQString@@VdeviceTypeInfo@@@@QBEABVdeviceTypeInfo@@XZ 10063e70 f i bncs_client_runtime.obj
 0002:00035eb0       ?data@?$QMapConstIterator@VQString@@VinstanceInfo@@@@QBEABVinstanceInfo@@XZ 10063eb0 f i bncs_client_runtime.obj
 0002:00035ef0       ?data@?$QMapConstIterator@VQString@@VparamInfo@@@@QBEABVparamInfo@@XZ 10063ef0 f i bncs_client_runtime.obj
 0002:00035f30       ?data@?$QMapIterator@VQString@@VcomplexInstance@@@@QAEAAVcomplexInstance@@XZ 10063f30 f i bncs_client_runtime.obj
 0002:00035f70       ?data@?$QMapIterator@VQString@@VcomplexParam@@@@QAEAAVcomplexParam@@XZ 10063f70 f i bncs_client_runtime.obj
 0002:00035fb0       ?data@?$QMapIterator@VQString@@VcomplexType@@@@QAEAAVcomplexType@@XZ 10063fb0 f i bncs_client_runtime.obj
 0002:00035ff0       ?data@?$QMapIterator@VQString@@VdeviceTypeInfo@@@@QAEAAVdeviceTypeInfo@@XZ 10063ff0 f i bncs_client_runtime.obj
 0002:00036030       ?data@?$QMapIterator@VQString@@VinstanceInfo@@@@QAEAAVinstanceInfo@@XZ 10064030 f i bncs_client_runtime.obj
 0002:00036070       ?data@?$QMapIterator@VQString@@VparamInfo@@@@QAEAAVparamInfo@@XZ 10064070 f i bncs_client_runtime.obj
 0002:000360b0       ?deallocate@?$_Wrap_alloc@V?$allocator@D@std@@@std@@QAEXPADI@Z 100640b0 f i bncs_client_runtime.obj
 0002:00036110       ?deallocate@?$allocator@D@std@@QAEXPADI@Z 10064110 f i bncs_client_runtime.obj
 0002:00036170       ?deallocate@?$allocator@U_Container_proxy@std@@@std@@QAEXPAU_Container_proxy@2@I@Z 10064170 f i bncs_client_runtime.obj
 0002:000361d0       ?dec@?$QMapIterator@VQString@@VcomplexInstance@@@@AAEHXZ 100641d0 f i bncs_client_runtime.obj
 0002:000362c0       ?dec@?$QMapIterator@VQString@@VcomplexParam@@@@AAEHXZ 100642c0 f i bncs_client_runtime.obj
 0002:000363b0       ?dec@?$QMapIterator@VQString@@VcomplexType@@@@AAEHXZ 100643b0 f i bncs_client_runtime.obj
 0002:000364a0       ?dec@?$QMapIterator@VQString@@VdeviceTypeInfo@@@@AAEHXZ 100644a0 f i bncs_client_runtime.obj
 0002:00036590       ?dec@?$QMapIterator@VQString@@VinstanceInfo@@@@AAEHXZ 10064590 f i bncs_client_runtime.obj
 0002:00036680       ?dec@?$QMapIterator@VQString@@VparamInfo@@@@AAEHXZ 10064680 f i bncs_client_runtime.obj
 0002:00036770       ?default_error_condition@_System_error_category@std@@UBE?AVerror_condition@2@H@Z 10064770 f i bncs_client_runtime.obj
 0002:00036820       ?default_error_condition@error_category@std@@UBE?AVerror_condition@2@H@Z 10064820 f i bncs_client_runtime.obj
 0002:00036880       ?deleteItem@?$QPtrList@VsignalConnection@@@@EAEXPAX@Z 10064880 f i bncs_client_runtime.obj
 0002:00036930       ?derefAndDelete@?$QValueListPrivate@VcomplexInstance@@@@QAEXXZ 10064930 f i bncs_client_runtime.obj
 0002:00036a00       ?derefAndDelete@?$QValueListPrivate@VcomplexParam@@@@QAEXXZ 10064a00 f i bncs_client_runtime.obj
 0002:00036ad0       ?derefAndDelete@?$QValueListPrivate@VcomplexType@@@@QAEXXZ 10064ad0 f i bncs_client_runtime.obj
 0002:00036ba0       ?derefAndDelete@?$QValueListPrivate@VdeviceTypeInfo@@@@QAEXXZ 10064ba0 f i bncs_client_runtime.obj
 0002:00036c70       ?derefAndDelete@?$QValueListPrivate@VinstanceInfo@@@@QAEXXZ 10064c70 f i bncs_client_runtime.obj
 0002:00036d40       ?derefAndDelete@?$QValueListPrivate@VparamInfo@@@@QAEXXZ 10064d40 f i bncs_client_runtime.obj
 0002:00036e10       ?detach@?$QMap@VQString@@VcomplexInstance@@@@IAEXXZ 10064e10 f i bncs_client_runtime.obj
 0002:00036e70       ?detach@?$QMap@VQString@@VcomplexParam@@@@IAEXXZ 10064e70 f i bncs_client_runtime.obj
 0002:00036ed0       ?detach@?$QMap@VQString@@VcomplexType@@@@IAEXXZ 10064ed0 f i bncs_client_runtime.obj
 0002:00036f30       ?detach@?$QMap@VQString@@VdeviceTypeInfo@@@@IAEXXZ 10064f30 f i bncs_client_runtime.obj
 0002:00036f90       ?detach@?$QMap@VQString@@VinstanceInfo@@@@IAEXXZ 10064f90 f i bncs_client_runtime.obj
 0002:00036ff0       ?detach@?$QMap@VQString@@VparamInfo@@@@IAEXXZ 10064ff0 f i bncs_client_runtime.obj
 0002:00037050       ?detach@?$QValueList@VcomplexInstance@@@@IAEXXZ 10065050 f i bncs_client_runtime.obj
 0002:000370b0       ?detach@?$QValueList@VcomplexParam@@@@IAEXXZ 100650b0 f i bncs_client_runtime.obj
 0002:00037110       ?detach@?$QValueList@VcomplexType@@@@IAEXXZ 10065110 f i bncs_client_runtime.obj
 0002:00037170       ?detach@?$QValueList@VdeviceTypeInfo@@@@IAEXXZ 10065170 f i bncs_client_runtime.obj
 0002:000371d0       ?detach@?$QValueList@VinstanceInfo@@@@IAEXXZ 100651d0 f i bncs_client_runtime.obj
 0002:00037230       ?detach@?$QValueList@VparamInfo@@@@IAEXXZ 10065230 f i bncs_client_runtime.obj
 0002:00037290       ?detachInternal@?$QMap@VQString@@VcomplexInstance@@@@AAEXXZ 10065290 f i bncs_client_runtime.obj
 0002:000373a0       ?detachInternal@?$QMap@VQString@@VcomplexParam@@@@AAEXXZ 100653a0 f i bncs_client_runtime.obj
 0002:000374b0       ?detachInternal@?$QMap@VQString@@VcomplexType@@@@AAEXXZ 100654b0 f i bncs_client_runtime.obj
 0002:000375c0       ?detachInternal@?$QMap@VQString@@VdeviceTypeInfo@@@@AAEXXZ 100655c0 f i bncs_client_runtime.obj
 0002:000376d0       ?detachInternal@?$QMap@VQString@@VinstanceInfo@@@@AAEXXZ 100656d0 f i bncs_client_runtime.obj
 0002:000377e0       ?detachInternal@?$QMap@VQString@@VparamInfo@@@@AAEXXZ 100657e0 f i bncs_client_runtime.obj
 0002:000378f0       ?detachInternal@?$QValueList@VcomplexInstance@@@@AAEXXZ 100658f0 f i bncs_client_runtime.obj
 0002:00037a00       ?detachInternal@?$QValueList@VcomplexParam@@@@AAEXXZ 10065a00 f i bncs_client_runtime.obj
 0002:00037b10       ?detachInternal@?$QValueList@VcomplexType@@@@AAEXXZ 10065b10 f i bncs_client_runtime.obj
 0002:00037c20       ?detachInternal@?$QValueList@VdeviceTypeInfo@@@@AAEXXZ 10065c20 f i bncs_client_runtime.obj
 0002:00037d30       ?detachInternal@?$QValueList@VinstanceInfo@@@@AAEXXZ 10065d30 f i bncs_client_runtime.obj
 0002:00037e40       ?detachInternal@?$QValueList@VparamInfo@@@@AAEXXZ 10065e40 f i bncs_client_runtime.obj
 0002:00037f50       ?empty@?$QMap@VQString@@VcomplexInstance@@@@QBE_NXZ 10065f50 f i bncs_client_runtime.obj
 0002:00037fc0       ?empty@?$QMap@VQString@@VcomplexParam@@@@QBE_NXZ 10065fc0 f i bncs_client_runtime.obj
 0002:00038030       ?empty@?$QMap@VQString@@VcomplexType@@@@QBE_NXZ 10066030 f i bncs_client_runtime.obj
 0002:000380a0       ?empty@?$QMap@VQString@@VdeviceTypeInfo@@@@QBE_NXZ 100660a0 f i bncs_client_runtime.obj
 0002:00038110       ?empty@?$QMap@VQString@@VinstanceInfo@@@@QBE_NXZ 10066110 f i bncs_client_runtime.obj
 0002:00038180       ?empty@?$QMap@VQString@@VparamInfo@@@@QBE_NXZ 10066180 f i bncs_client_runtime.obj
 0002:000381f0       ?end@?$QMap@VQString@@VcomplexInstance@@@@QAE?AV?$QMapIterator@VQString@@VcomplexInstance@@@@XZ 100661f0 f i bncs_client_runtime.obj
 0002:00038260       ?end@?$QMap@VQString@@VcomplexInstance@@@@QBE?AV?$QMapConstIterator@VQString@@VcomplexInstance@@@@XZ 10066260 f i bncs_client_runtime.obj
 0002:000382c0       ?end@?$QMap@VQString@@VcomplexParam@@@@QAE?AV?$QMapIterator@VQString@@VcomplexParam@@@@XZ 100662c0 f i bncs_client_runtime.obj
 0002:00038330       ?end@?$QMap@VQString@@VcomplexParam@@@@QBE?AV?$QMapConstIterator@VQString@@VcomplexParam@@@@XZ 10066330 f i bncs_client_runtime.obj
 0002:00038390       ?end@?$QMap@VQString@@VcomplexType@@@@QAE?AV?$QMapIterator@VQString@@VcomplexType@@@@XZ 10066390 f i bncs_client_runtime.obj
 0002:00038400       ?end@?$QMap@VQString@@VcomplexType@@@@QBE?AV?$QMapConstIterator@VQString@@VcomplexType@@@@XZ 10066400 f i bncs_client_runtime.obj
 0002:00038460       ?end@?$QMap@VQString@@VdeviceTypeInfo@@@@QAE?AV?$QMapIterator@VQString@@VdeviceTypeInfo@@@@XZ 10066460 f i bncs_client_runtime.obj
 0002:000384d0       ?end@?$QMap@VQString@@VdeviceTypeInfo@@@@QBE?AV?$QMapConstIterator@VQString@@VdeviceTypeInfo@@@@XZ 100664d0 f i bncs_client_runtime.obj
 0002:00038530       ?end@?$QMap@VQString@@VinstanceInfo@@@@QAE?AV?$QMapIterator@VQString@@VinstanceInfo@@@@XZ 10066530 f i bncs_client_runtime.obj
 0002:000385a0       ?end@?$QMap@VQString@@VinstanceInfo@@@@QBE?AV?$QMapConstIterator@VQString@@VinstanceInfo@@@@XZ 100665a0 f i bncs_client_runtime.obj
 0002:00038600       ?end@?$QMap@VQString@@VparamInfo@@@@QAE?AV?$QMapIterator@VQString@@VparamInfo@@@@XZ 10066600 f i bncs_client_runtime.obj
 0002:00038670       ?end@?$QMap@VQString@@VparamInfo@@@@QBE?AV?$QMapConstIterator@VQString@@VparamInfo@@@@XZ 10066670 f i bncs_client_runtime.obj
 0002:000386d0       ?end@?$QMapPrivate@VQString@@VcomplexInstance@@@@QAE?AV?$QMapIterator@VQString@@VcomplexInstance@@@@XZ 100666d0 f i bncs_client_runtime.obj
 0002:00038730       ?end@?$QMapPrivate@VQString@@VcomplexInstance@@@@QBE?AV?$QMapConstIterator@VQString@@VcomplexInstance@@@@XZ 10066730 f i bncs_client_runtime.obj
 0002:00038790       ?end@?$QMapPrivate@VQString@@VcomplexParam@@@@QAE?AV?$QMapIterator@VQString@@VcomplexParam@@@@XZ 10066790 f i bncs_client_runtime.obj
 0002:000387f0       ?end@?$QMapPrivate@VQString@@VcomplexParam@@@@QBE?AV?$QMapConstIterator@VQString@@VcomplexParam@@@@XZ 100667f0 f i bncs_client_runtime.obj
 0002:00038850       ?end@?$QMapPrivate@VQString@@VcomplexType@@@@QAE?AV?$QMapIterator@VQString@@VcomplexType@@@@XZ 10066850 f i bncs_client_runtime.obj
 0002:000388b0       ?end@?$QMapPrivate@VQString@@VcomplexType@@@@QBE?AV?$QMapConstIterator@VQString@@VcomplexType@@@@XZ 100668b0 f i bncs_client_runtime.obj
 0002:00038910       ?end@?$QMapPrivate@VQString@@VdeviceTypeInfo@@@@QAE?AV?$QMapIterator@VQString@@VdeviceTypeInfo@@@@XZ 10066910 f i bncs_client_runtime.obj
 0002:00038970       ?end@?$QMapPrivate@VQString@@VdeviceTypeInfo@@@@QBE?AV?$QMapConstIterator@VQString@@VdeviceTypeInfo@@@@XZ 10066970 f i bncs_client_runtime.obj
 0002:000389d0       ?end@?$QMapPrivate@VQString@@VinstanceInfo@@@@QAE?AV?$QMapIterator@VQString@@VinstanceInfo@@@@XZ 100669d0 f i bncs_client_runtime.obj
 0002:00038a30       ?end@?$QMapPrivate@VQString@@VinstanceInfo@@@@QBE?AV?$QMapConstIterator@VQString@@VinstanceInfo@@@@XZ 10066a30 f i bncs_client_runtime.obj
 0002:00038a90       ?end@?$QMapPrivate@VQString@@VparamInfo@@@@QAE?AV?$QMapIterator@VQString@@VparamInfo@@@@XZ 10066a90 f i bncs_client_runtime.obj
 0002:00038af0       ?end@?$QMapPrivate@VQString@@VparamInfo@@@@QBE?AV?$QMapConstIterator@VQString@@VparamInfo@@@@XZ 10066af0 f i bncs_client_runtime.obj
 0002:00038b50       ?end@?$QPtrList@VsignalConnection@@@@QAE?AV?$QPtrListStdIterator@VsignalConnection@@@@XZ 10066b50 f i bncs_client_runtime.obj
 0002:00038bc0       ?end@?$QPtrList@VsignalConnection@@@@QBE?AV?$QPtrListStdIterator@VsignalConnection@@@@XZ 10066bc0 f i bncs_client_runtime.obj
 0002:00038c30       ?end@?$QValueList@VcomplexInstance@@@@QAE?AV?$QValueListIterator@VcomplexInstance@@@@XZ 10066c30 f i bncs_client_runtime.obj
 0002:00038ca0       ?end@?$QValueList@VcomplexParam@@@@QAE?AV?$QValueListIterator@VcomplexParam@@@@XZ 10066ca0 f i bncs_client_runtime.obj
 0002:00038d10       ?end@?$QValueList@VcomplexType@@@@QAE?AV?$QValueListIterator@VcomplexType@@@@XZ 10066d10 f i bncs_client_runtime.obj
 0002:00038d80       ?end@?$QValueList@VdeviceTypeInfo@@@@QAE?AV?$QValueListIterator@VdeviceTypeInfo@@@@XZ 10066d80 f i bncs_client_runtime.obj
 0002:00038df0       ?end@?$QValueList@VinstanceInfo@@@@QAE?AV?$QValueListIterator@VinstanceInfo@@@@XZ 10066df0 f i bncs_client_runtime.obj
 0002:00038e60       ?end@?$QValueList@VparamInfo@@@@QAE?AV?$QValueListIterator@VparamInfo@@@@XZ 10066e60 f i bncs_client_runtime.obj
 0002:00038ed0       ?equivalent@error_category@std@@UBE_NABVerror_code@2@H@Z 10066ed0 f i bncs_client_runtime.obj
 0002:00038f70       ?equivalent@error_category@std@@UBE_NHABVerror_condition@2@@Z 10066f70 f i bncs_client_runtime.obj
 0002:00038ff0       ?erase@?$QMap@VQString@@VcomplexInstance@@@@QAEXABVQString@@@Z 10066ff0 f i bncs_client_runtime.obj
 0002:000390e0       ?erase@?$QMap@VQString@@VcomplexInstance@@@@QAEXV?$QMapIterator@VQString@@VcomplexInstance@@@@@Z 100670e0 f i bncs_client_runtime.obj
 0002:00039150       ?erase@?$QMap@VQString@@VcomplexParam@@@@QAEXABVQString@@@Z 10067150 f i bncs_client_runtime.obj
 0002:00039240       ?erase@?$QMap@VQString@@VcomplexParam@@@@QAEXV?$QMapIterator@VQString@@VcomplexParam@@@@@Z 10067240 f i bncs_client_runtime.obj
 0002:000392b0       ?erase@?$QMap@VQString@@VcomplexType@@@@QAEXABVQString@@@Z 100672b0 f i bncs_client_runtime.obj
 0002:000393a0       ?erase@?$QMap@VQString@@VcomplexType@@@@QAEXV?$QMapIterator@VQString@@VcomplexType@@@@@Z 100673a0 f i bncs_client_runtime.obj
 0002:00039410       ?erase@?$QMap@VQString@@VdeviceTypeInfo@@@@QAEXABVQString@@@Z 10067410 f i bncs_client_runtime.obj
 0002:00039500       ?erase@?$QMap@VQString@@VdeviceTypeInfo@@@@QAEXV?$QMapIterator@VQString@@VdeviceTypeInfo@@@@@Z 10067500 f i bncs_client_runtime.obj
 0002:00039570       ?erase@?$QMap@VQString@@VinstanceInfo@@@@QAEXABVQString@@@Z 10067570 f i bncs_client_runtime.obj
 0002:00039660       ?erase@?$QMap@VQString@@VinstanceInfo@@@@QAEXV?$QMapIterator@VQString@@VinstanceInfo@@@@@Z 10067660 f i bncs_client_runtime.obj
 0002:000396d0       ?erase@?$QMap@VQString@@VparamInfo@@@@QAEXABVQString@@@Z 100676d0 f i bncs_client_runtime.obj
 0002:000397c0       ?erase@?$QMap@VQString@@VparamInfo@@@@QAEXV?$QMapIterator@VQString@@VparamInfo@@@@@Z 100677c0 f i bncs_client_runtime.obj
 0002:00039830       ?erase@?$QPtrList@VsignalConnection@@@@QAE?AV?$QPtrListStdIterator@VsignalConnection@@@@V2@@Z 10067830 f i bncs_client_runtime.obj
 0002:000398c0       ?erase@?$basic_string@DU?$char_traits@D@std@@V?$allocator@D@2@@std@@QAEAAV12@I@Z 100678c0 f i bncs_client_runtime.obj
 0002:00039940       ?erase@?$basic_string@DU?$char_traits@D@std@@V?$allocator@D@2@@std@@QAEAAV12@II@Z 10067940 f i bncs_client_runtime.obj
 0002:00039a20       ?find@?$QMap@VQString@@VcomplexInstance@@@@QAE?AV?$QMapIterator@VQString@@VcomplexInstance@@@@ABVQString@@@Z 10067a20 f i bncs_client_runtime.obj
 0002:00039aa0       ?find@?$QMap@VQString@@VcomplexInstance@@@@QBE?AV?$QMapConstIterator@VQString@@VcomplexInstance@@@@ABVQString@@@Z 10067aa0 f i bncs_client_runtime.obj
 0002:00039b10       ?find@?$QMap@VQString@@VcomplexParam@@@@QAE?AV?$QMapIterator@VQString@@VcomplexParam@@@@ABVQString@@@Z 10067b10 f i bncs_client_runtime.obj
 0002:00039b90       ?find@?$QMap@VQString@@VcomplexParam@@@@QBE?AV?$QMapConstIterator@VQString@@VcomplexParam@@@@ABVQString@@@Z 10067b90 f i bncs_client_runtime.obj
 0002:00039c00       ?find@?$QMap@VQString@@VcomplexType@@@@QAE?AV?$QMapIterator@VQString@@VcomplexType@@@@ABVQString@@@Z 10067c00 f i bncs_client_runtime.obj
 0002:00039c80       ?find@?$QMap@VQString@@VcomplexType@@@@QBE?AV?$QMapConstIterator@VQString@@VcomplexType@@@@ABVQString@@@Z 10067c80 f i bncs_client_runtime.obj
 0002:00039cf0       ?find@?$QMap@VQString@@VdeviceTypeInfo@@@@QAE?AV?$QMapIterator@VQString@@VdeviceTypeInfo@@@@ABVQString@@@Z 10067cf0 f i bncs_client_runtime.obj
 0002:00039d70       ?find@?$QMap@VQString@@VdeviceTypeInfo@@@@QBE?AV?$QMapConstIterator@VQString@@VdeviceTypeInfo@@@@ABVQString@@@Z 10067d70 f i bncs_client_runtime.obj
 0002:00039de0       ?find@?$QMap@VQString@@VinstanceInfo@@@@QAE?AV?$QMapIterator@VQString@@VinstanceInfo@@@@ABVQString@@@Z 10067de0 f i bncs_client_runtime.obj
 0002:00039e60       ?find@?$QMap@VQString@@VinstanceInfo@@@@QBE?AV?$QMapConstIterator@VQString@@VinstanceInfo@@@@ABVQString@@@Z 10067e60 f i bncs_client_runtime.obj
 0002:00039ed0       ?find@?$QMap@VQString@@VparamInfo@@@@QAE?AV?$QMapIterator@VQString@@VparamInfo@@@@ABVQString@@@Z 10067ed0 f i bncs_client_runtime.obj
 0002:00039f50       ?find@?$QMap@VQString@@VparamInfo@@@@QBE?AV?$QMapConstIterator@VQString@@VparamInfo@@@@ABVQString@@@Z 10067f50 f i bncs_client_runtime.obj
 0002:00039fc0       ?find@?$QMapPrivate@VQString@@VcomplexInstance@@@@QBE?AV?$QMapConstIterator@VQString@@VcomplexInstance@@@@ABVQString@@@Z 10067fc0 f i bncs_client_runtime.obj
 0002:0003a0f0       ?find@?$QMapPrivate@VQString@@VcomplexParam@@@@QBE?AV?$QMapConstIterator@VQString@@VcomplexParam@@@@ABVQString@@@Z 100680f0 f i bncs_client_runtime.obj
 0002:0003a220       ?find@?$QMapPrivate@VQString@@VcomplexType@@@@QBE?AV?$QMapConstIterator@VQString@@VcomplexType@@@@ABVQString@@@Z 10068220 f i bncs_client_runtime.obj
 0002:0003a350       ?find@?$QMapPrivate@VQString@@VdeviceTypeInfo@@@@QBE?AV?$QMapConstIterator@VQString@@VdeviceTypeInfo@@@@ABVQString@@@Z 10068350 f i bncs_client_runtime.obj
 0002:0003a480       ?find@?$QMapPrivate@VQString@@VinstanceInfo@@@@QBE?AV?$QMapConstIterator@VQString@@VinstanceInfo@@@@ABVQString@@@Z 10068480 f i bncs_client_runtime.obj
 0002:0003a5b0       ?find@?$QMapPrivate@VQString@@VparamInfo@@@@QBE?AV?$QMapConstIterator@VQString@@VparamInfo@@@@ABVQString@@@Z 100685b0 f i bncs_client_runtime.obj
 0002:0003a6e0       ?find@?$QPtrList@VsignalConnection@@@@QAEHPBVsignalConnection@@@Z 100686e0 f i bncs_client_runtime.obj
 0002:0003a750       ?findNext@?$QPtrList@VsignalConnection@@@@QAEHPBVsignalConnection@@@Z 10068750 f i bncs_client_runtime.obj
 0002:0003a7c0       ?findNextRef@?$QPtrList@VsignalConnection@@@@QAEHPBVsignalConnection@@@Z 100687c0 f i bncs_client_runtime.obj
 0002:0003a830       ?findRef@?$QPtrList@VsignalConnection@@@@QAEHPBVsignalConnection@@@Z 10068830 f i bncs_client_runtime.obj
 0002:0003a8a0       ?first@?$QPtrList@VsignalConnection@@@@QAEPAVsignalConnection@@XZ 100688a0 f i bncs_client_runtime.obj
 0002:0003a900       ?generic_category@std@@YAABVerror_category@1@XZ 10068900 f i bncs_client_runtime.obj
 0002:0003a940       ?getFirst@?$QPtrList@VsignalConnection@@@@QBEPAVsignalConnection@@XZ 10068940 f i bncs_client_runtime.obj
 0002:0003a9a0       ?getLast@?$QPtrList@VsignalConnection@@@@QBEPAVsignalConnection@@XZ 100689a0 f i bncs_client_runtime.obj
 0002:0003aa00       ?inSort@?$QPtrList@VsignalConnection@@@@QAEXPBVsignalConnection@@@Z 10068a00 f i bncs_client_runtime.obj
 0002:0003aa70       ?inc@?$QMapConstIterator@VQString@@VcomplexInstance@@@@AAEHXZ 10068a70 f i bncs_client_runtime.obj
 0002:0003ab30       ?inc@?$QMapConstIterator@VQString@@VcomplexParam@@@@AAEHXZ 10068b30 f i bncs_client_runtime.obj
 0002:0003abf0       ?inc@?$QMapConstIterator@VQString@@VcomplexType@@@@AAEHXZ 10068bf0 f i bncs_client_runtime.obj
 0002:0003acb0       ?inc@?$QMapConstIterator@VQString@@VdeviceTypeInfo@@@@AAEHXZ 10068cb0 f i bncs_client_runtime.obj
 0002:0003ad70       ?inc@?$QMapConstIterator@VQString@@VinstanceInfo@@@@AAEHXZ 10068d70 f i bncs_client_runtime.obj
 0002:0003ae30       ?inc@?$QMapConstIterator@VQString@@VparamInfo@@@@AAEHXZ 10068e30 f i bncs_client_runtime.obj
 0002:0003aef0       ?insert@?$QMap@VQString@@VcomplexInstance@@@@QAE?AU?$QPair@V?$QMapIterator@VQString@@VcomplexInstance@@@@_N@@ABU?$QPair@$$CBVQString@@VcomplexInstance@@@@@Z 10068ef0 f i bncs_client_runtime.obj
 0002:0003b010       ?insert@?$QMap@VQString@@VcomplexInstance@@@@QAE?AV?$QMapIterator@VQString@@VcomplexInstance@@@@ABVQString@@ABVcomplexInstance@@_N@Z 10069010 f i bncs_client_runtime.obj
 0002:0003b110       ?insert@?$QMap@VQString@@VcomplexParam@@@@QAE?AU?$QPair@V?$QMapIterator@VQString@@VcomplexParam@@@@_N@@ABU?$QPair@$$CBVQString@@VcomplexParam@@@@@Z 10069110 f i bncs_client_runtime.obj
 0002:0003b230       ?insert@?$QMap@VQString@@VcomplexParam@@@@QAE?AV?$QMapIterator@VQString@@VcomplexParam@@@@ABVQString@@ABVcomplexParam@@_N@Z 10069230 f i bncs_client_runtime.obj
 0002:0003b330       ?insert@?$QMap@VQString@@VcomplexType@@@@QAE?AU?$QPair@V?$QMapIterator@VQString@@VcomplexType@@@@_N@@ABU?$QPair@$$CBVQString@@VcomplexType@@@@@Z 10069330 f i bncs_client_runtime.obj
 0002:0003b450       ?insert@?$QMap@VQString@@VcomplexType@@@@QAE?AV?$QMapIterator@VQString@@VcomplexType@@@@ABVQString@@ABVcomplexType@@_N@Z 10069450 f i bncs_client_runtime.obj
 0002:0003b550       ?insert@?$QMap@VQString@@VdeviceTypeInfo@@@@QAE?AU?$QPair@V?$QMapIterator@VQString@@VdeviceTypeInfo@@@@_N@@ABU?$QPair@$$CBVQString@@VdeviceTypeInfo@@@@@Z 10069550 f i bncs_client_runtime.obj
 0002:0003b670       ?insert@?$QMap@VQString@@VdeviceTypeInfo@@@@QAE?AV?$QMapIterator@VQString@@VdeviceTypeInfo@@@@ABVQString@@ABVdeviceTypeInfo@@_N@Z 10069670 f i bncs_client_runtime.obj
 0002:0003b770       ?insert@?$QMap@VQString@@VinstanceInfo@@@@QAE?AU?$QPair@V?$QMapIterator@VQString@@VinstanceInfo@@@@_N@@ABU?$QPair@$$CBVQString@@VinstanceInfo@@@@@Z 10069770 f i bncs_client_runtime.obj
 0002:0003b890       ?insert@?$QMap@VQString@@VinstanceInfo@@@@QAE?AV?$QMapIterator@VQString@@VinstanceInfo@@@@ABVQString@@ABVinstanceInfo@@_N@Z 10069890 f i bncs_client_runtime.obj
 0002:0003b990       ?insert@?$QMap@VQString@@VparamInfo@@@@QAE?AU?$QPair@V?$QMapIterator@VQString@@VparamInfo@@@@_N@@ABU?$QPair@$$CBVQString@@VparamInfo@@@@@Z 10069990 f i bncs_client_runtime.obj
 0002:0003bab0       ?insert@?$QMap@VQString@@VparamInfo@@@@QAE?AV?$QMapIterator@VQString@@VparamInfo@@@@ABVQString@@ABVparamInfo@@_N@Z 10069ab0 f i bncs_client_runtime.obj
 0002:0003bbb0       ?insert@?$QMapPrivate@VQString@@VcomplexInstance@@@@QAE?AV?$QMapIterator@VQString@@VcomplexInstance@@@@PAUQMapNodeBase@@0ABVQString@@@Z 10069bb0 f i bncs_client_runtime.obj
 0002:0003bde0       ?insert@?$QMapPrivate@VQString@@VcomplexParam@@@@QAE?AV?$QMapIterator@VQString@@VcomplexParam@@@@PAUQMapNodeBase@@0ABVQString@@@Z 10069de0 f i bncs_client_runtime.obj
 0002:0003c010       ?insert@?$QMapPrivate@VQString@@VcomplexType@@@@QAE?AV?$QMapIterator@VQString@@VcomplexType@@@@PAUQMapNodeBase@@0ABVQString@@@Z 1006a010 f i bncs_client_runtime.obj
 0002:0003c240       ?insert@?$QMapPrivate@VQString@@VdeviceTypeInfo@@@@QAE?AV?$QMapIterator@VQString@@VdeviceTypeInfo@@@@PAUQMapNodeBase@@0ABVQString@@@Z 1006a240 f i bncs_client_runtime.obj
 0002:0003c470       ?insert@?$QMapPrivate@VQString@@VinstanceInfo@@@@QAE?AV?$QMapIterator@VQString@@VinstanceInfo@@@@PAUQMapNodeBase@@0ABVQString@@@Z 1006a470 f i bncs_client_runtime.obj
 0002:0003c6a0       ?insert@?$QMapPrivate@VQString@@VparamInfo@@@@QAE?AV?$QMapIterator@VQString@@VparamInfo@@@@PAUQMapNodeBase@@0ABVQString@@@Z 1006a6a0 f i bncs_client_runtime.obj
 0002:0003c8d0       ?insert@?$QPtrList@VsignalConnection@@@@QAE_NIPBVsignalConnection@@@Z 1006a8d0 f i bncs_client_runtime.obj
 0002:0003c940       ?insert@?$QValueListPrivate@VcomplexInstance@@@@QAE?AV?$QValueListIterator@VcomplexInstance@@@@V2@ABVcomplexInstance@@@Z 1006a940 f i bncs_client_runtime.obj
 0002:0003ca90       ?insert@?$QValueListPrivate@VcomplexParam@@@@QAE?AV?$QValueListIterator@VcomplexParam@@@@V2@ABVcomplexParam@@@Z 1006aa90 f i bncs_client_runtime.obj
 0002:0003cbe0       ?insert@?$QValueListPrivate@VcomplexType@@@@QAE?AV?$QValueListIterator@VcomplexType@@@@V2@ABVcomplexType@@@Z 1006abe0 f i bncs_client_runtime.obj
 0002:0003cd30       ?insert@?$QValueListPrivate@VdeviceTypeInfo@@@@QAE?AV?$QValueListIterator@VdeviceTypeInfo@@@@V2@ABVdeviceTypeInfo@@@Z 1006ad30 f i bncs_client_runtime.obj
 0002:0003ce80       ?insert@?$QValueListPrivate@VinstanceInfo@@@@QAE?AV?$QValueListIterator@VinstanceInfo@@@@V2@ABVinstanceInfo@@@Z 1006ae80 f i bncs_client_runtime.obj
 0002:0003cfd0       ?insert@?$QValueListPrivate@VparamInfo@@@@QAE?AV?$QValueListIterator@VparamInfo@@@@V2@ABVparamInfo@@@Z 1006afd0 f i bncs_client_runtime.obj
 0002:0003d120       ?insertSingle@?$QMapPrivate@VQString@@VcomplexInstance@@@@QAE?AV?$QMapIterator@VQString@@VcomplexInstance@@@@ABVQString@@@Z 1006b120 f i bncs_client_runtime.obj
 0002:0003d310       ?insertSingle@?$QMapPrivate@VQString@@VcomplexParam@@@@QAE?AV?$QMapIterator@VQString@@VcomplexParam@@@@ABVQString@@@Z 1006b310 f i bncs_client_runtime.obj
 0002:0003d500       ?insertSingle@?$QMapPrivate@VQString@@VcomplexType@@@@QAE?AV?$QMapIterator@VQString@@VcomplexType@@@@ABVQString@@@Z 1006b500 f i bncs_client_runtime.obj
 0002:0003d6f0       ?insertSingle@?$QMapPrivate@VQString@@VdeviceTypeInfo@@@@QAE?AV?$QMapIterator@VQString@@VdeviceTypeInfo@@@@ABVQString@@@Z 1006b6f0 f i bncs_client_runtime.obj
 0002:0003d8e0       ?insertSingle@?$QMapPrivate@VQString@@VinstanceInfo@@@@QAE?AV?$QMapIterator@VQString@@VinstanceInfo@@@@ABVQString@@@Z 1006b8e0 f i bncs_client_runtime.obj
 0002:0003dad0       ?insertSingle@?$QMapPrivate@VQString@@VparamInfo@@@@QAE?AV?$QMapIterator@VQString@@VparamInfo@@@@ABVQString@@@Z 1006bad0 f i bncs_client_runtime.obj
 0002:0003dcc0       ?isEmpty@?$QMap@VQString@@VcomplexInstance@@@@QBE_NXZ 1006bcc0 f i bncs_client_runtime.obj
 0002:0003dd30       ?isEmpty@?$QMap@VQString@@VcomplexParam@@@@QBE_NXZ 1006bd30 f i bncs_client_runtime.obj
 0002:0003dda0       ?isEmpty@?$QMap@VQString@@VcomplexType@@@@QBE_NXZ 1006bda0 f i bncs_client_runtime.obj
 0002:0003de10       ?isEmpty@?$QMap@VQString@@VdeviceTypeInfo@@@@QBE_NXZ 1006be10 f i bncs_client_runtime.obj
 0002:0003de80       ?isEmpty@?$QMap@VQString@@VinstanceInfo@@@@QBE_NXZ 1006be80 f i bncs_client_runtime.obj
 0002:0003def0       ?isEmpty@?$QMap@VQString@@VparamInfo@@@@QBE_NXZ 1006bef0 f i bncs_client_runtime.obj
 0002:0003df60       ?isEmpty@?$QPtrList@VsignalConnection@@@@QBE_NXZ 1006bf60 f i bncs_client_runtime.obj
 0002:0003dff0       ?isEmpty@?$QPtrListIterator@VsignalConnection@@@@QBE_NXZ 1006bff0 f i bncs_client_runtime.obj
 0002:0003e080       ?key@?$QMapConstIterator@VQString@@VcomplexInstance@@@@QBEABVQString@@XZ 1006c080 f i bncs_client_runtime.obj
 0002:0003e0c0       ?key@?$QMapConstIterator@VQString@@VcomplexParam@@@@QBEABVQString@@XZ 1006c0c0 f i bncs_client_runtime.obj
 0002:0003e100       ?key@?$QMapConstIterator@VQString@@VcomplexType@@@@QBEABVQString@@XZ 1006c100 f i bncs_client_runtime.obj
 0002:0003e140       ?key@?$QMapConstIterator@VQString@@VdeviceTypeInfo@@@@QBEABVQString@@XZ 1006c140 f i bncs_client_runtime.obj
 0002:0003e180       ?key@?$QMapConstIterator@VQString@@VinstanceInfo@@@@QBEABVQString@@XZ 1006c180 f i bncs_client_runtime.obj
 0002:0003e1c0       ?key@?$QMapConstIterator@VQString@@VparamInfo@@@@QBEABVQString@@XZ 1006c1c0 f i bncs_client_runtime.obj
 0002:0003e200       ?key@?$QMapPrivate@VQString@@VcomplexInstance@@@@IBEABVQString@@PAUQMapNodeBase@@@Z 1006c200 f i bncs_client_runtime.obj
 0002:0003e240       ?key@?$QMapPrivate@VQString@@VcomplexParam@@@@IBEABVQString@@PAUQMapNodeBase@@@Z 1006c240 f i bncs_client_runtime.obj
 0002:0003e280       ?key@?$QMapPrivate@VQString@@VcomplexType@@@@IBEABVQString@@PAUQMapNodeBase@@@Z 1006c280 f i bncs_client_runtime.obj
 0002:0003e2c0       ?key@?$QMapPrivate@VQString@@VdeviceTypeInfo@@@@IBEABVQString@@PAUQMapNodeBase@@@Z 1006c2c0 f i bncs_client_runtime.obj
 0002:0003e300       ?key@?$QMapPrivate@VQString@@VinstanceInfo@@@@IBEABVQString@@PAUQMapNodeBase@@@Z 1006c300 f i bncs_client_runtime.obj
 0002:0003e340       ?key@?$QMapPrivate@VQString@@VparamInfo@@@@IBEABVQString@@PAUQMapNodeBase@@@Z 1006c340 f i bncs_client_runtime.obj
 0002:0003e380       ?keys@?$QMap@VQString@@VcomplexInstance@@@@QBE?AV?$QValueList@VQString@@@@XZ 1006c380 f i bncs_client_runtime.obj
 0002:0003e530       ?keys@?$QMap@VQString@@VcomplexParam@@@@QBE?AV?$QValueList@VQString@@@@XZ 1006c530 f i bncs_client_runtime.obj
 0002:0003e6e0       ?keys@?$QMap@VQString@@VcomplexType@@@@QBE?AV?$QValueList@VQString@@@@XZ 1006c6e0 f i bncs_client_runtime.obj
 0002:0003e890       ?keys@?$QMap@VQString@@VdeviceTypeInfo@@@@QBE?AV?$QValueList@VQString@@@@XZ 1006c890 f i bncs_client_runtime.obj
 0002:0003ea40       ?keys@?$QMap@VQString@@VinstanceInfo@@@@QBE?AV?$QValueList@VQString@@@@XZ 1006ca40 f i bncs_client_runtime.obj
 0002:0003ebf0       ?keys@?$QMap@VQString@@VparamInfo@@@@QBE?AV?$QValueList@VQString@@@@XZ 1006cbf0 f i bncs_client_runtime.obj
 0002:0003eda0       ?last@?$QPtrList@VsignalConnection@@@@QAEPAVsignalConnection@@XZ 1006cda0 f i bncs_client_runtime.obj
 0002:0003ee00       ?length@?$char_traits@D@std@@SAIPBD@Z 1006ce00 f i bncs_client_runtime.obj
 0002:0003ee80       ?max_size@?$_Wrap_alloc@V?$allocator@D@std@@@std@@QBEIXZ 1006ce80 f i bncs_client_runtime.obj
 0002:0003eee0       ?max_size@?$allocator@D@std@@QBEIXZ 1006cee0 f i bncs_client_runtime.obj
 0002:0003ef20       ?max_size@?$allocator_traits@V?$allocator@D@std@@@std@@SAIABV?$allocator@D@2@@Z 1006cf20 f i bncs_client_runtime.obj
 0002:0003ef70       ?max_size@?$basic_string@DU?$char_traits@D@std@@V?$allocator@D@2@@std@@QBEIXZ 1006cf70 f i bncs_client_runtime.obj
 0002:0003f010       ?message@_Generic_error_category@std@@UBE?AV?$basic_string@DU?$char_traits@D@std@@V?$allocator@D@2@@2@H@Z 1006d010 f i bncs_client_runtime.obj
 0002:0003f0d0       ?message@_Iostream_error_category@std@@UBE?AV?$basic_string@DU?$char_traits@D@std@@V?$allocator@D@2@@2@H@Z 1006d0d0 f i bncs_client_runtime.obj
 0002:0003f190       ?message@_System_error_category@std@@UBE?AV?$basic_string@DU?$char_traits@D@std@@V?$allocator@D@2@@2@H@Z 1006d190 f i bncs_client_runtime.obj
 0002:0003f250       ?metaObject@bncs_client_runtime@@UBEPAVQMetaObject@@XZ 1006d250 f i bncs_client_runtime.obj
 0002:0003f2a0       ?mousePressEvent@bncs_client_runtime@@UAEXPAVQMouseEvent@@@Z 1006d2a0 f i bncs_client_runtime.obj
 0002:0003f2e0       ?mouseReleaseEvent@bncs_client_runtime@@UAEXPAVQMouseEvent@@@Z 1006d2e0 f i bncs_client_runtime.obj
 0002:0003f320       ?move@?$char_traits@D@std@@SAPADPADPBDI@Z 1006d320 f i bncs_client_runtime.obj
 0002:0003f3b0       ?name@_Generic_error_category@std@@UBEPBDXZ 1006d3b0 f i bncs_client_runtime.obj
 0002:0003f3f0       ?name@_Iostream_error_category@std@@UBEPBDXZ 1006d3f0 f i bncs_client_runtime.obj
 0002:0003f430       ?name@_System_error_category@std@@UBEPBDXZ 1006d430 f i bncs_client_runtime.obj
 0002:0003f470       ?next@?$QPtrList@VsignalConnection@@@@QAEPAVsignalConnection@@XZ 1006d470 f i bncs_client_runtime.obj
 0002:0003f4d0       ?prepend@?$QPtrList@VsignalConnection@@@@QAEXPBVsignalConnection@@@Z 1006d4d0 f i bncs_client_runtime.obj
 0002:0003f540       ?prev@?$QPtrList@VsignalConnection@@@@QAEPAVsignalConnection@@XZ 1006d540 f i bncs_client_runtime.obj
 0002:0003f5a0       ?qObject@bncs_client_runtime@@QAEPAVQObject@@XZ 1006d5a0 f i bncs_client_runtime.obj
 0002:0003f5e0       ?remove@?$QMap@VQString@@VcomplexInstance@@@@QAEXABVQString@@@Z 1006d5e0 f i bncs_client_runtime.obj
 0002:0003f6d0       ?remove@?$QMap@VQString@@VcomplexInstance@@@@QAEXV?$QMapIterator@VQString@@VcomplexInstance@@@@@Z 1006d6d0 f i bncs_client_runtime.obj
 0002:0003f740       ?remove@?$QMap@VQString@@VcomplexParam@@@@QAEXABVQString@@@Z 1006d740 f i bncs_client_runtime.obj
 0002:0003f830       ?remove@?$QMap@VQString@@VcomplexParam@@@@QAEXV?$QMapIterator@VQString@@VcomplexParam@@@@@Z 1006d830 f i bncs_client_runtime.obj
 0002:0003f8a0       ?remove@?$QMap@VQString@@VcomplexType@@@@QAEXABVQString@@@Z 1006d8a0 f i bncs_client_runtime.obj
 0002:0003f990       ?remove@?$QMap@VQString@@VcomplexType@@@@QAEXV?$QMapIterator@VQString@@VcomplexType@@@@@Z 1006d990 f i bncs_client_runtime.obj
 0002:0003fa00       ?remove@?$QMap@VQString@@VdeviceTypeInfo@@@@QAEXABVQString@@@Z 1006da00 f i bncs_client_runtime.obj
 0002:0003faf0       ?remove@?$QMap@VQString@@VdeviceTypeInfo@@@@QAEXV?$QMapIterator@VQString@@VdeviceTypeInfo@@@@@Z 1006daf0 f i bncs_client_runtime.obj
 0002:0003fb60       ?remove@?$QMap@VQString@@VinstanceInfo@@@@QAEXABVQString@@@Z 1006db60 f i bncs_client_runtime.obj
 0002:0003fc50       ?remove@?$QMap@VQString@@VinstanceInfo@@@@QAEXV?$QMapIterator@VQString@@VinstanceInfo@@@@@Z 1006dc50 f i bncs_client_runtime.obj
 0002:0003fcc0       ?remove@?$QMap@VQString@@VparamInfo@@@@QAEXABVQString@@@Z 1006dcc0 f i bncs_client_runtime.obj
 0002:0003fdb0       ?remove@?$QMap@VQString@@VparamInfo@@@@QAEXV?$QMapIterator@VQString@@VparamInfo@@@@@Z 1006ddb0 f i bncs_client_runtime.obj
 0002:0003fe20       ?remove@?$QMapPrivate@VQString@@VcomplexInstance@@@@QAEXV?$QMapIterator@VQString@@VcomplexInstance@@@@@Z 1006de20 f i bncs_client_runtime.obj
 0002:0003ff10       ?remove@?$QMapPrivate@VQString@@VcomplexParam@@@@QAEXV?$QMapIterator@VQString@@VcomplexParam@@@@@Z 1006df10 f i bncs_client_runtime.obj
 0002:00040000       ?remove@?$QMapPrivate@VQString@@VcomplexType@@@@QAEXV?$QMapIterator@VQString@@VcomplexType@@@@@Z 1006e000 f i bncs_client_runtime.obj
 0002:000400f0       ?remove@?$QMapPrivate@VQString@@VdeviceTypeInfo@@@@QAEXV?$QMapIterator@VQString@@VdeviceTypeInfo@@@@@Z 1006e0f0 f i bncs_client_runtime.obj
 0002:000401e0       ?remove@?$QMapPrivate@VQString@@VinstanceInfo@@@@QAEXV?$QMapIterator@VQString@@VinstanceInfo@@@@@Z 1006e1e0 f i bncs_client_runtime.obj
 0002:000402d0       ?remove@?$QMapPrivate@VQString@@VparamInfo@@@@QAEXV?$QMapIterator@VQString@@VparamInfo@@@@@Z 1006e2d0 f i bncs_client_runtime.obj
 0002:000403c0       ?remove@?$QPtrList@VsignalConnection@@@@QAE_NI@Z 1006e3c0 f i bncs_client_runtime.obj
 0002:00040430       ?remove@?$QPtrList@VsignalConnection@@@@QAE_NPBVsignalConnection@@@Z 1006e430 f i bncs_client_runtime.obj
 0002:000404a0       ?remove@?$QPtrList@VsignalConnection@@@@QAE_NXZ 1006e4a0 f i bncs_client_runtime.obj
 0002:00040500       ?removeFirst@?$QPtrList@VsignalConnection@@@@QAE_NXZ 1006e500 f i bncs_client_runtime.obj
 0002:00040560       ?removeLast@?$QPtrList@VsignalConnection@@@@QAE_NXZ 1006e560 f i bncs_client_runtime.obj
 0002:000405c0       ?removeNode@?$QPtrList@VsignalConnection@@@@QAEXPAVQLNode@@@Z 1006e5c0 f i bncs_client_runtime.obj
 0002:00040630       ?removeRef@?$QPtrList@VsignalConnection@@@@QAE_NPBVsignalConnection@@@Z 1006e630 f i bncs_client_runtime.obj
 0002:000406a0       ?replace@?$QMap@VQString@@VcomplexInstance@@@@QAE?AV?$QMapIterator@VQString@@VcomplexInstance@@@@ABVQString@@ABVcomplexInstance@@@Z 1006e6a0 f i bncs_client_runtime.obj
 0002:00040720       ?replace@?$QMap@VQString@@VcomplexParam@@@@QAE?AV?$QMapIterator@VQString@@VcomplexParam@@@@ABVQString@@ABVcomplexParam@@@Z 1006e720 f i bncs_client_runtime.obj
 0002:000407a0       ?replace@?$QMap@VQString@@VcomplexType@@@@QAE?AV?$QMapIterator@VQString@@VcomplexType@@@@ABVQString@@ABVcomplexType@@@Z 1006e7a0 f i bncs_client_runtime.obj
 0002:00040820       ?replace@?$QMap@VQString@@VdeviceTypeInfo@@@@QAE?AV?$QMapIterator@VQString@@VdeviceTypeInfo@@@@ABVQString@@ABVdeviceTypeInfo@@@Z 1006e820 f i bncs_client_runtime.obj
 0002:000408a0       ?replace@?$QMap@VQString@@VinstanceInfo@@@@QAE?AV?$QMapIterator@VQString@@VinstanceInfo@@@@ABVQString@@ABVinstanceInfo@@@Z 1006e8a0 f i bncs_client_runtime.obj
 0002:00040920       ?replace@?$QMap@VQString@@VparamInfo@@@@QAE?AV?$QMapIterator@VQString@@VparamInfo@@@@ABVQString@@ABVparamInfo@@@Z 1006e920 f i bncs_client_runtime.obj
 0002:000409a0       ?replace@?$QPtrList@VsignalConnection@@@@QAE_NIPBVsignalConnection@@@Z 1006e9a0 f i bncs_client_runtime.obj
 0002:00040a10       ?scriptfile@dCW@@QAE?AVQString@@XZ 1006ea10 f i bncs_client_runtime.obj
 0002:00040aa0       ?size@?$QMap@VQString@@VcomplexInstance@@@@QBEIXZ 1006eaa0 f i bncs_client_runtime.obj
 0002:00040ae0       ?size@?$QMap@VQString@@VcomplexParam@@@@QBEIXZ 1006eae0 f i bncs_client_runtime.obj
 0002:00040b20       ?size@?$QMap@VQString@@VcomplexType@@@@QBEIXZ 1006eb20 f i bncs_client_runtime.obj
 0002:00040b60       ?size@?$QMap@VQString@@VdeviceTypeInfo@@@@QBEIXZ 1006eb60 f i bncs_client_runtime.obj
 0002:00040ba0       ?size@?$QMap@VQString@@VinstanceInfo@@@@QBEIXZ 1006eba0 f i bncs_client_runtime.obj
 0002:00040be0       ?size@?$QMap@VQString@@VparamInfo@@@@QBEIXZ 1006ebe0 f i bncs_client_runtime.obj
 0002:00040c20       ?size@?$basic_string@DU?$char_traits@D@std@@V?$allocator@D@2@@std@@QBEIXZ 1006ec20 f i bncs_client_runtime.obj
 0002:00040c60       ?sort@?$QPtrList@VsignalConnection@@@@QAEXXZ 1006ec60 f i bncs_client_runtime.obj
 0002:00040cc0       ?system_category@std@@YAABVerror_category@1@XZ 1006ecc0 f i bncs_client_runtime.obj
 0002:00040d00       ?take@?$QPtrList@VsignalConnection@@@@QAEPAVsignalConnection@@I@Z 1006ed00 f i bncs_client_runtime.obj
 0002:00040d70       ?take@?$QPtrList@VsignalConnection@@@@QAEPAVsignalConnection@@XZ 1006ed70 f i bncs_client_runtime.obj
 0002:00040dd0       ?takeNode@?$QPtrList@VsignalConnection@@@@QAEPAVsignalConnection@@PAVQLNode@@@Z 1006edd0 f i bncs_client_runtime.obj
 0002:00040e40       ?toFirst@?$QPtrListIterator@VsignalConnection@@@@QAEPAVsignalConnection@@XZ 1006ee40 f i bncs_client_runtime.obj
 0002:00040ea0       ?toLast@?$QPtrListIterator@VsignalConnection@@@@QAEPAVsignalConnection@@XZ 1006eea0 f i bncs_client_runtime.obj
 0002:00040f00       ?toVector@?$QPtrList@VsignalConnection@@@@QBEXPAVQGVector@@@Z 1006ef00 f i bncs_client_runtime.obj
 0002:00040f70       ?value@error_code@std@@QBEHXZ 1006ef70 f i bncs_client_runtime.obj
 0002:00040fb0       ?value@error_condition@std@@QBEHXZ 1006efb0 f i bncs_client_runtime.obj
 0002:00040ff0       ?values@?$QMap@VQString@@VcomplexInstance@@@@QBE?AV?$QValueList@VcomplexInstance@@@@XZ 1006eff0 f i bncs_client_runtime.obj
 0002:00041170       ?values@?$QMap@VQString@@VcomplexParam@@@@QBE?AV?$QValueList@VcomplexParam@@@@XZ 1006f170 f i bncs_client_runtime.obj
 0002:000412f0       ?values@?$QMap@VQString@@VcomplexType@@@@QBE?AV?$QValueList@VcomplexType@@@@XZ 1006f2f0 f i bncs_client_runtime.obj
 0002:00041470       ?values@?$QMap@VQString@@VdeviceTypeInfo@@@@QBE?AV?$QValueList@VdeviceTypeInfo@@@@XZ 1006f470 f i bncs_client_runtime.obj
 0002:000415f0       ?values@?$QMap@VQString@@VinstanceInfo@@@@QBE?AV?$QValueList@VinstanceInfo@@@@XZ 1006f5f0 f i bncs_client_runtime.obj
 0002:00041770       ?values@?$QMap@VQString@@VparamInfo@@@@QBE?AV?$QValueList@VparamInfo@@@@XZ 1006f770 f i bncs_client_runtime.obj
 0002:000418f0       ?widgetList@dCW@@QAE?AVQWidgetList@@XZ 1006f8f0 f i bncs_client_runtime.obj
 0002:00041980       _hypot                     1006f980 f i bncs_client_runtime.obj
 0002:00041a00       ??0ccTimer@@QAE@PAVIccTimerCallback@@@Z 1006fa00 f   ccTimer.obj
 0002:00041b70       ??1ccTimer@@UAE@XZ         1006fb70 f   ccTimer.obj
 0002:00041e20       ?timerStart@ccTimer@@QAEHHH@Z 1006fe20 f   ccTimer.obj
 0002:00042130       ?timerStop@ccTimer@@QAEHH@Z 10070130 f   ccTimer.obj
 0002:00042310       ?getId@ccTimer@@QBE?BHH@Z  10070310 f   ccTimer.obj
 0002:00042480       ?WndProc@ccTimer@@CGJPAUHWND__@@IIJ@Z 10070480 f   ccTimer.obj
 0002:00042580       ?timerFired@ccTimer@@AAEXH@Z 10070580 f   ccTimer.obj
 0002:00042700       ?showLastError@ccTimer@@CAXPAD@Z 10070700 f   ccTimer.obj
 0002:00042cf0       ??$?0AAHVccTimerClient@@X@?$pair@HVccTimerClient@@@std@@QAE@AAH$$QAVccTimerClient@@@Z 10070cf0 f i ccTimer.obj
 0002:00042d80       ??$?0AAV?$_Tree_iterator@V?$_Tree_val@U?$_Tree_simple_types@U?$pair@$$CBHVccTimerClient@@@std@@@std@@@std@@@std@@_NX@?$pair@V?$_Tree_iterator@V?$_Tree_val@U?$_Tree_simple_types@U?$pair@$$CBHVccTimerClient@@@std@@@std@@@std@@@std@@_N@std@@QAE@AAV?$_Tree_iterator@V?$_Tree_val@U?$_Tree_simple_types@U?$pair@$$CBHVccTimerClient@@@std@@@std@@@std@@@1@$$QA_N@Z 10070d80 f i ccTimer.obj
 0002:00042e50       ??$?0HVccTimerClient@@X@?$pair@$$CBHVccTimerClient@@@std@@QAE@$$QAU?$pair@HVccTimerClient@@@1@@Z 10070e50 f i ccTimer.obj
 0002:00042ee0       ??$?0U?$_Tree_node@U?$pair@$$CBHVccTimerClient@@@std@@PAX@std@@@?$allocator@U_Container_proxy@std@@@std@@QAE@ABV?$allocator@U?$_Tree_node@U?$pair@$$CBHVccTimerClient@@@std@@PAX@std@@@1@@Z 10070ee0 f i ccTimer.obj
 0002:00042f20       ??$?0U?$_Wrap_alloc@V?$allocator@U?$_Tree_node@U?$pair@$$CBHVccTimerClient@@@std@@PAX@std@@@std@@@std@@@?$_Wrap_alloc@V?$allocator@U_Container_proxy@std@@@std@@@std@@QAE@ABU?$_Wrap_alloc@V?$allocator@U?$_Tree_node@U?$pair@$$CBHVccTimerClient@@@std@@PAX@std@@@std@@@1@@Z 10070f20 f i ccTimer.obj
 0002:00042f80       ??$?0V?$_Tree_iterator@V?$_Tree_val@U?$_Tree_simple_types@U?$pair@$$CBHVccTimerClient@@@std@@@std@@@std@@@std@@_NX@?$pair@V?$_Tree_iterator@V?$_Tree_val@U?$_Tree_simple_types@U?$pair@$$CBHVccTimerClient@@@std@@@std@@@std@@@std@@_N@std@@QAE@$$QAV?$_Tree_iterator@V?$_Tree_val@U?$_Tree_simple_types@U?$pair@$$CBHVccTimerClient@@@std@@@std@@@std@@@1@$$QA_N@Z 10070f80 f i ccTimer.obj
 0002:00043050       ??$_Allocate@U?$_Tree_node@U?$pair@$$CBHVccTimerClient@@@std@@PAX@std@@@std@@YAPAU?$_Tree_node@U?$pair@$$CBHVccTimerClient@@@std@@PAX@0@IPAU10@@Z 10071050 f i ccTimer.obj
 0002:000430e0       ??$_Buynode@U?$pair@HVccTimerClient@@@std@@@?$_Tree_buy@U?$pair@$$CBHVccTimerClient@@@std@@V?$allocator@U?$pair@$$CBHVccTimerClient@@@std@@@2@@std@@QAEPAU?$_Tree_node@U?$pair@$$CBHVccTimerClient@@@std@@PAX@1@$$QAU?$pair@HVccTimerClient@@@1@@Z 100710e0 f i ccTimer.obj
 0002:00043250       ??$_Buynode_if_nil@AAU?$pair@$$CBHVccTimerClient@@@std@@@?$_Tree@V?$_Tmap_traits@HVccTimerClient@@U?$less@H@std@@V?$allocator@U?$pair@$$CBHVccTimerClient@@@std@@@3@$0A@@std@@@std@@IAEPAU?$_Tree_node@U?$pair@$$CBHVccTimerClient@@@std@@PAX@1@PAU21@AAU?$pair@$$CBHVccTimerClient@@@1@@Z 10071250 f i ccTimer.obj
 0002:00043290       ??$_Debug_lt_pred@U?$less@H@std@@ABHABH@std@@YA_NU?$less@H@0@ABH1PB_WI@Z 10071290 f i ccTimer.obj
 0002:00043370       ??$_Insert_at@AAU?$pair@$$CBHVccTimerClient@@@std@@PAU?$_Tree_node@U?$pair@$$CBHVccTimerClient@@@std@@PAX@2@@?$_Tree@V?$_Tmap_traits@HVccTimerClient@@U?$less@H@std@@V?$allocator@U?$pair@$$CBHVccTimerClient@@@std@@@3@$0A@@std@@@std@@IAE?AV?$_Tree_iterator@V?$_Tree_val@U?$_Tree_simple_types@U?$pair@$$CBHVccTimerClient@@@std@@@std@@@std@@@1@_NPAU?$_Tree_node@U?$pair@$$CBHVccTimerClient@@@std@@PAX@1@AAU?$pair@$$CBHVccTimerClient@@@1@1@Z 10071370 f i ccTimer.obj
 0002:00043900       ??$_Insert_nohint@AAU?$pair@$$CBHVccTimerClient@@@std@@PAU?$_Tree_node@U?$pair@$$CBHVccTimerClient@@@std@@PAX@2@@?$_Tree@V?$_Tmap_traits@HVccTimerClient@@U?$less@H@std@@V?$allocator@U?$pair@$$CBHVccTimerClient@@@std@@@3@$0A@@std@@@std@@IAE?AU?$pair@V?$_Tree_iterator@V?$_Tree_val@U?$_Tree_simple_types@U?$pair@$$CBHVccTimerClient@@@std@@@std@@@std@@@std@@_N@1@_NAAU?$pair@$$CBHVccTimerClient@@@1@PAU?$_Tree_node@U?$pair@$$CBHVccTimerClient@@@std@@PAX@1@@Z 10071900 f i ccTimer.obj
 0002:00044040       ??$_Kfn@$$CBHVccTimerClient@@@?$_Tmap_traits@HVccTimerClient@@U?$less@H@std@@V?$allocator@U?$pair@$$CBHVccTimerClient@@@std@@@3@$0A@@std@@SAABHABU?$pair@$$CBHVccTimerClient@@@1@@Z 10072040 f i ccTimer.obj
 0002:00044080       ??$_Move@AAD@std@@YA$$QADAAD@Z 10072080 f i ccTimer.obj
 0002:000440c0       ??$addressof@$$CBU?$pair@$$CBHVccTimerClient@@@std@@@std@@YAPBU?$pair@$$CBHVccTimerClient@@@0@ABU10@@Z 100720c0 f i ccTimer.obj
 0002:00044100       ??$addressof@PAU?$_Tree_node@U?$pair@$$CBHVccTimerClient@@@std@@PAX@std@@@std@@YAPAPAU?$_Tree_node@U?$pair@$$CBHVccTimerClient@@@std@@PAX@0@AAPAU10@@Z 10072100 f i ccTimer.obj
 0002:00044140       ??$addressof@U?$pair@$$CBHVccTimerClient@@@std@@@std@@YAPAU?$pair@$$CBHVccTimerClient@@@0@AAU10@@Z 10072140 f i ccTimer.obj
 0002:00044180       ??$construct@PAU?$_Tree_node@U?$pair@$$CBHVccTimerClient@@@std@@PAX@std@@AAPAU12@@?$_Wrap_alloc@V?$allocator@U?$_Tree_node@U?$pair@$$CBHVccTimerClient@@@std@@PAX@std@@@std@@@std@@QAEXPAPAU?$_Tree_node@U?$pair@$$CBHVccTimerClient@@@std@@PAX@1@AAPAU21@@Z 10072180 f i ccTimer.obj
 0002:000441f0       ??$construct@PAU?$_Tree_node@U?$pair@$$CBHVccTimerClient@@@std@@PAX@std@@AAPAU12@@?$allocator@U?$_Tree_node@U?$pair@$$CBHVccTimerClient@@@std@@PAX@std@@@std@@QAEXPAPAU?$_Tree_node@U?$pair@$$CBHVccTimerClient@@@std@@PAX@1@AAPAU21@@Z 100721f0 f i ccTimer.obj
 0002:000442f0       ??$construct@PAU?$_Tree_node@U?$pair@$$CBHVccTimerClient@@@std@@PAX@std@@AAPAU12@@?$allocator_traits@V?$allocator@U?$_Tree_node@U?$pair@$$CBHVccTimerClient@@@std@@PAX@std@@@std@@@std@@SAXAAV?$allocator@U?$_Tree_node@U?$pair@$$CBHVccTimerClient@@@std@@PAX@std@@@1@PAPAU?$_Tree_node@U?$pair@$$CBHVccTimerClient@@@std@@PAX@1@AAPAU31@@Z 100722f0 f i ccTimer.obj
 0002:00044350       ??$construct@U?$pair@$$CBHVccTimerClient@@@std@@U?$pair@HVccTimerClient@@@2@@?$_Wrap_alloc@V?$allocator@U?$_Tree_node@U?$pair@$$CBHVccTimerClient@@@std@@PAX@std@@@std@@@std@@QAEXPAU?$pair@$$CBHVccTimerClient@@@1@$$QAU?$pair@HVccTimerClient@@@1@@Z 10072350 f i ccTimer.obj
 0002:000443c0       ??$construct@U?$pair@$$CBHVccTimerClient@@@std@@U?$pair@HVccTimerClient@@@2@@?$allocator@U?$_Tree_node@U?$pair@$$CBHVccTimerClient@@@std@@PAX@std@@@std@@QAEXPAU?$pair@$$CBHVccTimerClient@@@1@$$QAU?$pair@HVccTimerClient@@@1@@Z 100723c0 f i ccTimer.obj
 0002:000444c0       ??$construct@U?$pair@$$CBHVccTimerClient@@@std@@U?$pair@HVccTimerClient@@@2@@?$allocator_traits@V?$allocator@U?$_Tree_node@U?$pair@$$CBHVccTimerClient@@@std@@PAX@std@@@std@@@std@@SAXAAV?$allocator@U?$_Tree_node@U?$pair@$$CBHVccTimerClient@@@std@@PAX@std@@@1@PAU?$pair@$$CBHVccTimerClient@@@1@$$QAU?$pair@HVccTimerClient@@@1@@Z 100724c0 f i ccTimer.obj
 0002:00044520       ??$construct@U_Container_proxy@std@@U12@@?$_Wrap_alloc@V?$allocator@U_Container_proxy@std@@@std@@@std@@QAEXPAU_Container_proxy@1@$$QAU21@@Z 10072520 f i ccTimer.obj
 0002:00044590       ??$construct@U_Container_proxy@std@@U12@@?$allocator_traits@V?$allocator@U_Container_proxy@std@@@std@@@std@@SAXAAV?$allocator@U_Container_proxy@std@@@1@PAU_Container_proxy@1@$$QAU31@@Z 10072590 f i ccTimer.obj
 0002:000445f0       ??$destroy@PAU?$_Tree_node@U?$pair@$$CBHVccTimerClient@@@std@@PAX@std@@@?$_Wrap_alloc@V?$allocator@U?$_Tree_node@U?$pair@$$CBHVccTimerClient@@@std@@PAX@std@@@std@@@std@@QAEXPAPAU?$_Tree_node@U?$pair@$$CBHVccTimerClient@@@std@@PAX@1@@Z 100725f0 f i ccTimer.obj
 0002:00044650       ??$destroy@PAU?$_Tree_node@U?$pair@$$CBHVccTimerClient@@@std@@PAX@std@@@?$allocator@U?$_Tree_node@U?$pair@$$CBHVccTimerClient@@@std@@PAX@std@@@std@@QAEXPAPAU?$_Tree_node@U?$pair@$$CBHVccTimerClient@@@std@@PAX@1@@Z 10072650 f i ccTimer.obj
 0002:00044690       ??$destroy@PAU?$_Tree_node@U?$pair@$$CBHVccTimerClient@@@std@@PAX@std@@@?$allocator_traits@V?$allocator@U?$_Tree_node@U?$pair@$$CBHVccTimerClient@@@std@@PAX@std@@@std@@@std@@SAXAAV?$allocator@U?$_Tree_node@U?$pair@$$CBHVccTimerClient@@@std@@PAX@std@@@1@PAPAU?$_Tree_node@U?$pair@$$CBHVccTimerClient@@@std@@PAX@1@@Z 10072690 f i ccTimer.obj
 0002:000446e0       ??$destroy@U?$pair@$$CBHVccTimerClient@@@std@@@?$_Wrap_alloc@V?$allocator@U?$_Tree_node@U?$pair@$$CBHVccTimerClient@@@std@@PAX@std@@@std@@@std@@QAEXPAU?$pair@$$CBHVccTimerClient@@@1@@Z 100726e0 f i ccTimer.obj
 0002:00044740       ??$destroy@U?$pair@$$CBHVccTimerClient@@@std@@@?$allocator@U?$_Tree_node@U?$pair@$$CBHVccTimerClient@@@std@@PAX@std@@@std@@QAEXPAU?$pair@$$CBHVccTimerClient@@@1@@Z 10072740 f i ccTimer.obj
 0002:00044780       ??$destroy@U?$pair@$$CBHVccTimerClient@@@std@@@?$allocator_traits@V?$allocator@U?$_Tree_node@U?$pair@$$CBHVccTimerClient@@@std@@PAX@std@@@std@@@std@@SAXAAV?$allocator@U?$_Tree_node@U?$pair@$$CBHVccTimerClient@@@std@@PAX@std@@@1@PAU?$pair@$$CBHVccTimerClient@@@1@@Z 10072780 f i ccTimer.obj
 0002:000447d0       ??$destroy@U_Container_proxy@std@@@?$_Wrap_alloc@V?$allocator@U_Container_proxy@std@@@std@@@std@@QAEXPAU_Container_proxy@1@@Z 100727d0 f i ccTimer.obj
 0002:00044830       ??$destroy@U_Container_proxy@std@@@?$allocator_traits@V?$allocator@U_Container_proxy@std@@@std@@@std@@SAXAAV?$allocator@U_Container_proxy@std@@@1@PAU_Container_proxy@1@@Z 10072830 f i ccTimer.obj
 0002:00044880       ??$forward@AAH@std@@YAAAHAAH@Z 10072880 f i ccTimer.obj
 0002:000448c0       ??$forward@AAPAU?$_Tree_node@U?$pair@$$CBHVccTimerClient@@@std@@PAX@std@@@std@@YAAAPAU?$_Tree_node@U?$pair@$$CBHVccTimerClient@@@std@@PAX@0@AAPAU10@@Z 100728c0 f i ccTimer.obj
 0002:00044900       ??$forward@AAU?$pair@$$CBHVccTimerClient@@@std@@@std@@YAAAU?$pair@$$CBHVccTimerClient@@@0@AAU10@@Z 10072900 f i ccTimer.obj
 0002:00044940       ??$forward@AAV?$_Tree_iterator@V?$_Tree_val@U?$_Tree_simple_types@U?$pair@$$CBHVccTimerClient@@@std@@@std@@@std@@@std@@@std@@YAAAV?$_Tree_iterator@V?$_Tree_val@U?$_Tree_simple_types@U?$pair@$$CBHVccTimerClient@@@std@@@std@@@std@@@0@AAV10@@Z 10072940 f i ccTimer.obj
 0002:00044980       ??$forward@ABH@std@@YAABHABH@Z 10072980 f i ccTimer.obj
 0002:000449c0       ??$forward@H@std@@YA$$QAHAAH@Z 100729c0 f i ccTimer.obj
 0002:00044a00       ??$forward@U?$pair@HVccTimerClient@@@std@@@std@@YA$$QAU?$pair@HVccTimerClient@@@0@AAU10@@Z 10072a00 f i ccTimer.obj
 0002:00044a40       ??$forward@V?$_Tree_iterator@V?$_Tree_val@U?$_Tree_simple_types@U?$pair@$$CBHVccTimerClient@@@std@@@std@@@std@@@std@@@std@@YA$$QAV?$_Tree_iterator@V?$_Tree_val@U?$_Tree_simple_types@U?$pair@$$CBHVccTimerClient@@@std@@@std@@@std@@@0@AAV10@@Z 10072a40 f i ccTimer.obj
 0002:00044a80       ??$forward@VccTimerClient@@@std@@YA$$QAVccTimerClient@@AAV1@@Z 10072a80 f i ccTimer.obj
 0002:00044ac0       ??$forward@_N@std@@YA$$QA_NAA_N@Z 10072ac0 f i ccTimer.obj
 0002:00044b00       ??$insert@U?$pair@HVccTimerClient@@@std@@@?$_Tree@V?$_Tmap_traits@HVccTimerClient@@U?$less@H@std@@V?$allocator@U?$pair@$$CBHVccTimerClient@@@std@@@3@$0A@@std@@@std@@QAE?AU?$pair@V?$_Tree_iterator@V?$_Tree_val@U?$_Tree_simple_types@U?$pair@$$CBHVccTimerClient@@@std@@@std@@@std@@@std@@_N@1@$$QAU?$pair@HVccTimerClient@@@1@@Z 10072b00 f i ccTimer.obj
 0002:00044bb0       ??$make_pair@AAHVccTimerClient@@@std@@YA?AU?$pair@HVccTimerClient@@@0@AAH$$QAVccTimerClient@@@Z 10072bb0 f i ccTimer.obj
 0002:00044c20       ??$swap@D@std@@YAXAAD0@Z   10072c20 f i ccTimer.obj
 0002:00044ce0       ??0?$_Iterator012@Ubidirectional_iterator_tag@std@@U?$pair@$$CBHVccTimerClient@@@2@HPBU32@ABU32@U_Iterator_base12@2@@std@@QAE@ABU01@@Z 10072ce0 f i ccTimer.obj
 0002:00044d40       ??0?$_Iterator012@Ubidirectional_iterator_tag@std@@U?$pair@$$CBHVccTimerClient@@@2@HPBU32@ABU32@U_Iterator_base12@2@@std@@QAE@XZ 10072d40 f i ccTimer.obj
 0002:00044da0       ??0?$_Tree@V?$_Tmap_traits@HVccTimerClient@@U?$less@H@std@@V?$allocator@U?$pair@$$CBHVccTimerClient@@@std@@@3@$0A@@std@@@std@@QAE@ABU?$less@H@1@ABV?$allocator@U?$pair@$$CBHVccTimerClient@@@std@@@1@@Z 10072da0 f i ccTimer.obj
 0002:00044e00       ??0?$_Tree_alloc@$0A@U?$_Tree_base_types@U?$pair@$$CBHVccTimerClient@@@std@@V?$allocator@U?$pair@$$CBHVccTimerClient@@@std@@@2@@std@@@std@@QAE@ABV?$allocator@U?$pair@$$CBHVccTimerClient@@@std@@@1@@Z 10072e00 f i ccTimer.obj
 0002:00044f00       ??0?$_Tree_buy@U?$pair@$$CBHVccTimerClient@@@std@@V?$allocator@U?$pair@$$CBHVccTimerClient@@@std@@@2@@std@@QAE@ABV?$allocator@U?$pair@$$CBHVccTimerClient@@@std@@@1@@Z 10072f00 f i ccTimer.obj
 0002:00044f60       ??0?$_Tree_comp@$0A@V?$_Tmap_traits@HVccTimerClient@@U?$less@H@std@@V?$allocator@U?$pair@$$CBHVccTimerClient@@@std@@@3@$0A@@std@@@std@@QAE@ABU?$less@H@1@ABV?$allocator@U?$pair@$$CBHVccTimerClient@@@std@@@1@@Z 10072f60 f i ccTimer.obj
 0002:00044fc0       ??0?$_Tree_const_iterator@V?$_Tree_val@U?$_Tree_simple_types@U?$pair@$$CBHVccTimerClient@@@std@@@std@@@std@@@std@@QAE@ABV01@@Z 10072fc0 f i ccTimer.obj
 0002:00045020       ??0?$_Tree_const_iterator@V?$_Tree_val@U?$_Tree_simple_types@U?$pair@$$CBHVccTimerClient@@@std@@@std@@@std@@@std@@QAE@PAU?$_Tree_node@U?$pair@$$CBHVccTimerClient@@@std@@PAX@1@PBV?$_Tree_val@U?$_Tree_simple_types@U?$pair@$$CBHVccTimerClient@@@std@@@std@@@1@@Z 10073020 f i ccTimer.obj
 0002:00045080       ??0?$_Tree_iterator@V?$_Tree_val@U?$_Tree_simple_types@U?$pair@$$CBHVccTimerClient@@@std@@@std@@@std@@@std@@QAE@ABV01@@Z 10073080 f i ccTimer.obj
 0002:000450e0       ??0?$_Tree_iterator@V?$_Tree_val@U?$_Tree_simple_types@U?$pair@$$CBHVccTimerClient@@@std@@@std@@@std@@@std@@QAE@PAU?$_Tree_node@U?$pair@$$CBHVccTimerClient@@@std@@PAX@1@PBV?$_Tree_val@U?$_Tree_simple_types@U?$pair@$$CBHVccTimerClient@@@std@@@std@@@1@@Z 100730e0 f i ccTimer.obj
 0002:00045140       ??0?$_Tree_unchecked_const_iterator@V?$_Tree_val@U?$_Tree_simple_types@U?$pair@$$CBHVccTimerClient@@@std@@@std@@@std@@U_Iterator_base12@2@@std@@QAE@ABV01@@Z 10073140 f i ccTimer.obj
 0002:000451b0       ??0?$_Tree_unchecked_const_iterator@V?$_Tree_val@U?$_Tree_simple_types@U?$pair@$$CBHVccTimerClient@@@std@@@std@@@std@@U_Iterator_base12@2@@std@@QAE@PAU?$_Tree_node@U?$pair@$$CBHVccTimerClient@@@std@@PAX@1@PBV?$_Tree_val@U?$_Tree_simple_types@U?$pair@$$CBHVccTimerClient@@@std@@@std@@@1@@Z 100731b0 f i ccTimer.obj
 0002:00045270       ??0?$_Tree_val@U?$_Tree_simple_types@U?$pair@$$CBHVccTimerClient@@@std@@@std@@@std@@QAE@XZ 10073270 f i ccTimer.obj
 0002:000452f0       ??0?$_Wrap_alloc@V?$allocator@U?$_Tree_node@U?$pair@$$CBHVccTimerClient@@@std@@PAX@std@@@std@@@std@@QAE@XZ 100732f0 f i ccTimer.obj
 0002:00045350       ??0?$allocator@U?$_Tree_node@U?$pair@$$CBHVccTimerClient@@@std@@PAX@std@@@std@@QAE@XZ 10073350 f i ccTimer.obj
 0002:00045390       ??0?$allocator@U?$pair@$$CBHVccTimerClient@@@std@@@std@@QAE@XZ 10073390 f i ccTimer.obj
 0002:000453d0       ??0?$map@HVccTimerClient@@U?$less@H@std@@V?$allocator@U?$pair@$$CBHVccTimerClient@@@std@@@3@@std@@QAE@XZ 100733d0 f i ccTimer.obj
 0002:00045440       ??0_Iterator_base12@std@@QAE@ABU01@@Z 10073440 f i ccTimer.obj
 0002:000454c0       ??0_Iterator_base12@std@@QAE@XZ 100734c0 f i ccTimer.obj
 0002:00045510       ??0ccTimerClient@@QAE@PAVIccTimerCallback@@H@Z 10073510 f i ccTimer.obj
 0002:00045560       ??1?$_Iterator012@Ubidirectional_iterator_tag@std@@U?$pair@$$CBHVccTimerClient@@@2@HPBU32@ABU32@U_Iterator_base12@2@@std@@QAE@XZ 10073560 f i ccTimer.obj
 0002:000455b0       ??1?$_Tree@V?$_Tmap_traits@HVccTimerClient@@U?$less@H@std@@V?$allocator@U?$pair@$$CBHVccTimerClient@@@std@@@3@$0A@@std@@@std@@QAE@XZ 100735b0 f i ccTimer.obj
 0002:00045610       ??1?$_Tree_alloc@$0A@U?$_Tree_base_types@U?$pair@$$CBHVccTimerClient@@@std@@V?$allocator@U?$pair@$$CBHVccTimerClient@@@std@@@2@@std@@@std@@QAE@XZ 10073610 f i ccTimer.obj
 0002:00045680       ??1?$_Tree_buy@U?$pair@$$CBHVccTimerClient@@@std@@V?$allocator@U?$pair@$$CBHVccTimerClient@@@std@@@2@@std@@QAE@XZ 10073680 f i ccTimer.obj
 0002:000456d0       ??1?$_Tree_comp@$0A@V?$_Tmap_traits@HVccTimerClient@@U?$less@H@std@@V?$allocator@U?$pair@$$CBHVccTimerClient@@@std@@@3@$0A@@std@@@std@@QAE@XZ 100736d0 f i ccTimer.obj
 0002:00045720       ??1?$_Tree_const_iterator@V?$_Tree_val@U?$_Tree_simple_types@U?$pair@$$CBHVccTimerClient@@@std@@@std@@@std@@@std@@QAE@XZ 10073720 f i ccTimer.obj
 0002:00045770       ??1?$_Tree_iterator@V?$_Tree_val@U?$_Tree_simple_types@U?$pair@$$CBHVccTimerClient@@@std@@@std@@@std@@@std@@QAE@XZ 10073770 f i ccTimer.obj
 0002:000457c0       ??1?$_Tree_unchecked_const_iterator@V?$_Tree_val@U?$_Tree_simple_types@U?$pair@$$CBHVccTimerClient@@@std@@@std@@@std@@U_Iterator_base12@2@@std@@QAE@XZ 100737c0 f i ccTimer.obj
 0002:00045810       ??1?$_Tree_val@U?$_Tree_simple_types@U?$pair@$$CBHVccTimerClient@@@std@@@std@@@std@@QAE@XZ 10073810 f i ccTimer.obj
 0002:00045870       ??1?$map@HVccTimerClient@@U?$less@H@std@@V?$allocator@U?$pair@$$CBHVccTimerClient@@@std@@@3@@std@@QAE@XZ 10073870 f i ccTimer.obj
 0002:000458c0       ??1?$pair@V?$_Tree_iterator@V?$_Tree_val@U?$_Tree_simple_types@U?$pair@$$CBHVccTimerClient@@@std@@@std@@@std@@@std@@_N@std@@QAE@XZ 100738c0 f i ccTimer.obj
 0002:00045910       ??1_Iterator_base12@std@@QAE@XZ 10073910 f i ccTimer.obj
 0002:000459d0       ??4?$_Iterator012@Ubidirectional_iterator_tag@std@@U?$pair@$$CBHVccTimerClient@@@2@HPBU32@ABU32@U_Iterator_base12@2@@std@@QAEAAU01@ABU01@@Z 100739d0 f i ccTimer.obj
 0002:00045a30       ??4?$_Tree_const_iterator@V?$_Tree_val@U?$_Tree_simple_types@U?$pair@$$CBHVccTimerClient@@@std@@@std@@@std@@@std@@QAEAAV01@ABV01@@Z 10073a30 f i ccTimer.obj
 0002:00045a90       ??4?$_Tree_iterator@V?$_Tree_val@U?$_Tree_simple_types@U?$pair@$$CBHVccTimerClient@@@std@@@std@@@std@@@std@@QAEAAV01@ABV01@@Z 10073a90 f i ccTimer.obj
 0002:00045af0       ??4?$_Tree_unchecked_const_iterator@V?$_Tree_val@U?$_Tree_simple_types@U?$pair@$$CBHVccTimerClient@@@std@@@std@@@std@@U_Iterator_base12@2@@std@@QAEAAV01@ABV01@@Z 10073af0 f i ccTimer.obj
 0002:00045b60       ??4_Iterator_base12@std@@QAEAAU01@ABU01@@Z 10073b60 f i ccTimer.obj
 0002:00045ca0       ??8?$_Tree_const_iterator@V?$_Tree_val@U?$_Tree_simple_types@U?$pair@$$CBHVccTimerClient@@@std@@@std@@@std@@@std@@QBE_NABV01@@Z 10073ca0 f i ccTimer.obj
 0002:00045e00       ??9?$_Tree_const_iterator@V?$_Tree_val@U?$_Tree_simple_types@U?$pair@$$CBHVccTimerClient@@@std@@@std@@@std@@@std@@QBE_NABV01@@Z 10073e00 f i ccTimer.obj
 0002:00045e90       ??C?$_Tree_const_iterator@V?$_Tree_val@U?$_Tree_simple_types@U?$pair@$$CBHVccTimerClient@@@std@@@std@@@std@@@std@@QBEPBU?$pair@$$CBHVccTimerClient@@@1@XZ 10073e90 f i ccTimer.obj
 0002:00045ef0       ??C?$_Tree_iterator@V?$_Tree_val@U?$_Tree_simple_types@U?$pair@$$CBHVccTimerClient@@@std@@@std@@@std@@@std@@QBEPAU?$pair@$$CBHVccTimerClient@@@1@XZ 10073ef0 f i ccTimer.obj
 0002:00045f50       ??D?$_Tree_const_iterator@V?$_Tree_val@U?$_Tree_simple_types@U?$pair@$$CBHVccTimerClient@@@std@@@std@@@std@@@std@@QBEABU?$pair@$$CBHVccTimerClient@@@1@XZ 10073f50 f i ccTimer.obj
 0002:00046090       ??D?$_Tree_iterator@V?$_Tree_val@U?$_Tree_simple_types@U?$pair@$$CBHVccTimerClient@@@std@@@std@@@std@@@std@@QBEAAU?$pair@$$CBHVccTimerClient@@@1@XZ 10074090 f i ccTimer.obj
 0002:000460e0       ??E?$_Tree_const_iterator@V?$_Tree_val@U?$_Tree_simple_types@U?$pair@$$CBHVccTimerClient@@@std@@@std@@@std@@@std@@QAE?AV01@H@Z 100740e0 f i ccTimer.obj
 0002:00046200       ??E?$_Tree_const_iterator@V?$_Tree_val@U?$_Tree_simple_types@U?$pair@$$CBHVccTimerClient@@@std@@@std@@@std@@@std@@QAEAAV01@XZ 10074200 f i ccTimer.obj
 0002:00046340       ??E?$_Tree_iterator@V?$_Tree_val@U?$_Tree_simple_types@U?$pair@$$CBHVccTimerClient@@@std@@@std@@@std@@@std@@QAEAAV01@XZ 10074340 f i ccTimer.obj
 0002:000463a0       ??E?$_Tree_unchecked_const_iterator@V?$_Tree_val@U?$_Tree_simple_types@U?$pair@$$CBHVccTimerClient@@@std@@@std@@@std@@U_Iterator_base12@2@@std@@QAEAAV01@XZ 100743a0 f i ccTimer.obj
 0002:000464d0       ??F?$_Tree_const_iterator@V?$_Tree_val@U?$_Tree_simple_types@U?$pair@$$CBHVccTimerClient@@@std@@@std@@@std@@@std@@QAEAAV01@XZ 100744d0 f i ccTimer.obj
 0002:000466b0       ??F?$_Tree_iterator@V?$_Tree_val@U?$_Tree_simple_types@U?$pair@$$CBHVccTimerClient@@@std@@@std@@@std@@@std@@QAEAAV01@XZ 100746b0 f i ccTimer.obj
 0002:00046710       ??F?$_Tree_unchecked_const_iterator@V?$_Tree_val@U?$_Tree_simple_types@U?$pair@$$CBHVccTimerClient@@@std@@@std@@@std@@U_Iterator_base12@2@@std@@QAEAAV01@XZ 10074710 f i ccTimer.obj
 0002:00046870       ??R?$less@H@std@@QBE_NABH0@Z 10074870 f i ccTimer.obj
 0002:000468e0       ??_GccTimer@@UAEPAXI@Z     100748e0 f i ccTimer.obj
 0002:000468e0       ??_EccTimer@@UAEPAXI@Z     100748e0 f i ccTimer.obj
 0002:00046950       ?_Adopt@_Iterator_base12@std@@QAEXPBU_Container_base12@2@@Z 10074950 f i ccTimer.obj
 0002:00046b00       ?_Alloc_proxy@?$_Tree_alloc@$0A@U?$_Tree_base_types@U?$pair@$$CBHVccTimerClient@@@std@@V?$allocator@U?$pair@$$CBHVccTimerClient@@@std@@@2@@std@@@std@@QAEXXZ 10074b00 f i ccTimer.obj
 0002:00046be0       ?_Buyheadnode@?$_Tree_alloc@$0A@U?$_Tree_base_types@U?$pair@$$CBHVccTimerClient@@@std@@V?$allocator@U?$pair@$$CBHVccTimerClient@@@std@@@2@@std@@@std@@QAEPAU?$_Tree_node@U?$pair@$$CBHVccTimerClient@@@std@@PAX@2@XZ 10074be0 f i ccTimer.obj
 0002:00046e40       ?_Buynode0@?$_Tree_buy@U?$pair@$$CBHVccTimerClient@@@std@@V?$allocator@U?$pair@$$CBHVccTimerClient@@@std@@@2@@std@@QAEPAU?$_Tree_node@U?$pair@$$CBHVccTimerClient@@@std@@PAX@2@XZ 10074e40 f i ccTimer.obj
 0002:00047050       ?_Clrcont@_Iterator_base12@std@@QAEXXZ 10075050 f i ccTimer.obj
 0002:00047090       ?_Color@?$_Tree_val@U?$_Tree_simple_types@U?$pair@$$CBHVccTimerClient@@@std@@@std@@@std@@SAAADPAU?$_Tree_node@U?$pair@$$CBHVccTimerClient@@@std@@PAX@2@@Z 10075090 f i ccTimer.obj
 0002:000470d0       ?_Destroy_if_not_nil@?$_Tree@V?$_Tmap_traits@HVccTimerClient@@U?$less@H@std@@V?$allocator@U?$pair@$$CBHVccTimerClient@@@std@@@3@$0A@@std@@@std@@IAEXPAU?$_Tree_node@U?$pair@$$CBHVccTimerClient@@@std@@PAX@2@@Z 100750d0 f i ccTimer.obj
 0002:00047180       ?_Erase@?$_Tree@V?$_Tmap_traits@HVccTimerClient@@U?$less@H@std@@V?$allocator@U?$pair@$$CBHVccTimerClient@@@std@@@3@$0A@@std@@@std@@IAEXPAU?$_Tree_node@U?$pair@$$CBHVccTimerClient@@@std@@PAX@2@@Z 10075180 f i ccTimer.obj
 0002:00047290       ?_Free_proxy@?$_Tree_alloc@$0A@U?$_Tree_base_types@U?$pair@$$CBHVccTimerClient@@@std@@V?$allocator@U?$pair@$$CBHVccTimerClient@@@std@@@2@@std@@@std@@QAEXXZ 10075290 f i ccTimer.obj
 0002:00047380       ?_Freeheadnode@?$_Tree_alloc@$0A@U?$_Tree_base_types@U?$pair@$$CBHVccTimerClient@@@std@@V?$allocator@U?$pair@$$CBHVccTimerClient@@@std@@@2@@std@@@std@@QAEXPAU?$_Tree_node@U?$pair@$$CBHVccTimerClient@@@std@@PAX@2@@Z 10075380 f i ccTimer.obj
 0002:00047490       ?_Freenode0@?$_Tree_buy@U?$pair@$$CBHVccTimerClient@@@std@@V?$allocator@U?$pair@$$CBHVccTimerClient@@@std@@@2@@std@@QAEXPAU?$_Tree_node@U?$pair@$$CBHVccTimerClient@@@std@@PAX@2@@Z 10075490 f i ccTimer.obj
 0002:000475a0       ?_Getal@?$_Tree_alloc@$0A@U?$_Tree_base_types@U?$pair@$$CBHVccTimerClient@@@std@@V?$allocator@U?$pair@$$CBHVccTimerClient@@@std@@@2@@std@@@std@@QBE?AU?$_Wrap_alloc@V?$allocator@U?$_Tree_node@U?$pair@$$CBHVccTimerClient@@@std@@PAX@std@@@std@@@2@XZ 100755a0 f i ccTimer.obj
 0002:00047600       ?_Getcomp@?$_Tree_comp@$0A@V?$_Tmap_traits@HVccTimerClient@@U?$less@H@std@@V?$allocator@U?$pair@$$CBHVccTimerClient@@@std@@@3@$0A@@std@@@std@@QBE?AU?$less@H@2@XZ 10075600 f i ccTimer.obj
 0002:00047640       ?_Getcont@_Iterator_base12@std@@QBEPBU_Container_base12@2@XZ 10075640 f i ccTimer.obj
 0002:000476b0       ?_Getpnext@_Iterator_base12@std@@QAEPAPAU12@XZ 100756b0 f i ccTimer.obj
 0002:000476f0       ?_Isnil@?$_Tree_val@U?$_Tree_simple_types@U?$pair@$$CBHVccTimerClient@@@std@@@std@@@std@@SAAADPAU?$_Tree_node@U?$pair@$$CBHVccTimerClient@@@std@@PAX@2@@Z 100756f0 f i ccTimer.obj
 0002:00047730       ?_Key@?$_Tree@V?$_Tmap_traits@HVccTimerClient@@U?$less@H@std@@V?$allocator@U?$pair@$$CBHVccTimerClient@@@std@@@3@$0A@@std@@@std@@IBEABHPAU?$_Tree_node@U?$pair@$$CBHVccTimerClient@@@std@@PAX@2@@Z 10075730 f i ccTimer.obj
 0002:000477a0       ?_Kfn@?$_Tree@V?$_Tmap_traits@HVccTimerClient@@U?$less@H@std@@V?$allocator@U?$pair@$$CBHVccTimerClient@@@std@@@3@$0A@@std@@@std@@IBEABHABU?$pair@$$CBHVccTimerClient@@@2@@Z 100757a0 f i ccTimer.obj
 0002:00047800       ?_Lbound@?$_Tree@V?$_Tmap_traits@HVccTimerClient@@U?$less@H@std@@V?$allocator@U?$pair@$$CBHVccTimerClient@@@std@@@3@$0A@@std@@@std@@IAEPAU?$_Tree_node@U?$pair@$$CBHVccTimerClient@@@std@@PAX@2@ABH@Z 10075800 f i ccTimer.obj
 0002:00047910       ?_Left@?$_Tree_val@U?$_Tree_simple_types@U?$pair@$$CBHVccTimerClient@@@std@@@std@@@std@@SAAAPAU?$_Tree_node@U?$pair@$$CBHVccTimerClient@@@std@@PAX@2@PAU32@@Z 10075910 f i ccTimer.obj
 0002:00047950       ?_Lmost@?$_Tree@V?$_Tmap_traits@HVccTimerClient@@U?$less@H@std@@V?$allocator@U?$pair@$$CBHVccTimerClient@@@std@@@3@$0A@@std@@@std@@IBEAAPAU?$_Tree_node@U?$pair@$$CBHVccTimerClient@@@std@@PAX@2@XZ 10075950 f i ccTimer.obj
 0002:000479b0       ?_Lrotate@?$_Tree@V?$_Tmap_traits@HVccTimerClient@@U?$less@H@std@@V?$allocator@U?$pair@$$CBHVccTimerClient@@@std@@@3@$0A@@std@@@std@@IAEXPAU?$_Tree_node@U?$pair@$$CBHVccTimerClient@@@std@@PAX@2@@Z 100759b0 f i ccTimer.obj
 0002:00047b60       ?_Max@?$_Tree_val@U?$_Tree_simple_types@U?$pair@$$CBHVccTimerClient@@@std@@@std@@@std@@SAPAU?$_Tree_node@U?$pair@$$CBHVccTimerClient@@@std@@PAX@2@PAU32@@Z 10075b60 f i ccTimer.obj
 0002:00047be0       ?_Min@?$_Tree_val@U?$_Tree_simple_types@U?$pair@$$CBHVccTimerClient@@@std@@@std@@@std@@SAPAU?$_Tree_node@U?$pair@$$CBHVccTimerClient@@@std@@PAX@2@PAU32@@Z 10075be0 f i ccTimer.obj
 0002:00047c60       ?_Mynode@?$_Tree_unchecked_const_iterator@V?$_Tree_val@U?$_Tree_simple_types@U?$pair@$$CBHVccTimerClient@@@std@@@std@@@std@@U_Iterator_base12@2@@std@@QBEPAU?$_Tree_node@U?$pair@$$CBHVccTimerClient@@@std@@PAX@2@XZ 10075c60 f i ccTimer.obj
 0002:00047ca0       ?_Myval@?$_Tree_val@U?$_Tree_simple_types@U?$pair@$$CBHVccTimerClient@@@std@@@std@@@std@@SAAAU?$pair@$$CBHVccTimerClient@@@2@PAU?$_Tree_node@U?$pair@$$CBHVccTimerClient@@@std@@PAX@2@@Z 10075ca0 f i ccTimer.obj
 0002:00047ce0       ?_Orphan_me@_Iterator_base12@std@@QAEXXZ 10075ce0 f i ccTimer.obj
 0002:00047db0       ?_Orphan_ptr@?$_Tree@V?$_Tmap_traits@HVccTimerClient@@U?$less@H@std@@V?$allocator@U?$pair@$$CBHVccTimerClient@@@std@@@3@$0A@@std@@@std@@IBEXAAV12@PAU?$_Tree_node@U?$pair@$$CBHVccTimerClient@@@std@@PAX@2@@Z 10075db0 f i ccTimer.obj
 0002:00047f40       ?_Parent@?$_Tree_val@U?$_Tree_simple_types@U?$pair@$$CBHVccTimerClient@@@std@@@std@@@std@@SAAAPAU?$_Tree_node@U?$pair@$$CBHVccTimerClient@@@std@@PAX@2@PAU32@@Z 10075f40 f i ccTimer.obj
 0002:00047f80       ?_Right@?$_Tree_val@U?$_Tree_simple_types@U?$pair@$$CBHVccTimerClient@@@std@@@std@@@std@@SAAAPAU?$_Tree_node@U?$pair@$$CBHVccTimerClient@@@std@@PAX@2@PAU32@@Z 10075f80 f i ccTimer.obj
 0002:00047fc0       ?_Rmost@?$_Tree@V?$_Tmap_traits@HVccTimerClient@@U?$less@H@std@@V?$allocator@U?$pair@$$CBHVccTimerClient@@@std@@@3@$0A@@std@@@std@@IBEAAPAU?$_Tree_node@U?$pair@$$CBHVccTimerClient@@@std@@PAX@2@XZ 10075fc0 f i ccTimer.obj
 0002:00048020       ?_Root@?$_Tree@V?$_Tmap_traits@HVccTimerClient@@U?$less@H@std@@V?$allocator@U?$pair@$$CBHVccTimerClient@@@std@@@3@$0A@@std@@@std@@IBEAAPAU?$_Tree_node@U?$pair@$$CBHVccTimerClient@@@std@@PAX@2@XZ 10076020 f i ccTimer.obj
 0002:00048080       ?_Rrotate@?$_Tree@V?$_Tmap_traits@HVccTimerClient@@U?$less@H@std@@V?$allocator@U?$pair@$$CBHVccTimerClient@@@std@@@3@$0A@@std@@@std@@IAEXPAU?$_Tree_node@U?$pair@$$CBHVccTimerClient@@@std@@PAX@2@@Z 10076080 f i ccTimer.obj
 0002:00048230       ?_Tidy@?$_Tree@V?$_Tmap_traits@HVccTimerClient@@U?$less@H@std@@V?$allocator@U?$pair@$$CBHVccTimerClient@@@std@@@3@$0A@@std@@@std@@IAEXXZ 10076230 f i ccTimer.obj
 0002:000483c0       ?allocate@?$_Wrap_alloc@V?$allocator@U?$_Tree_node@U?$pair@$$CBHVccTimerClient@@@std@@PAX@std@@@std@@@std@@QAEPAU?$_Tree_node@U?$pair@$$CBHVccTimerClient@@@std@@PAX@2@I@Z 100763c0 f i ccTimer.obj
 0002:00048420       ?allocate@?$_Wrap_alloc@V?$allocator@U_Container_proxy@std@@@std@@@std@@QAEPAU_Container_proxy@2@I@Z 10076420 f i ccTimer.obj
 0002:00048480       ?allocate@?$allocator@U?$_Tree_node@U?$pair@$$CBHVccTimerClient@@@std@@PAX@std@@@std@@QAEPAU?$_Tree_node@U?$pair@$$CBHVccTimerClient@@@std@@PAX@2@I@Z 10076480 f i ccTimer.obj
 0002:000484e0       ?begin@?$_Tree@V?$_Tmap_traits@HVccTimerClient@@U?$less@H@std@@V?$allocator@U?$pair@$$CBHVccTimerClient@@@std@@@3@$0A@@std@@@std@@QAE?AV?$_Tree_iterator@V?$_Tree_val@U?$_Tree_simple_types@U?$pair@$$CBHVccTimerClient@@@std@@@std@@@std@@@2@XZ 100764e0 f i ccTimer.obj
 0002:00048550       ?clear@?$_Tree@V?$_Tmap_traits@HVccTimerClient@@U?$less@H@std@@V?$allocator@U?$pair@$$CBHVccTimerClient@@@std@@@3@$0A@@std@@@std@@QAEXXZ 10076550 f i ccTimer.obj
 0002:00048610       ?deallocate@?$_Wrap_alloc@V?$allocator@U?$_Tree_node@U?$pair@$$CBHVccTimerClient@@@std@@PAX@std@@@std@@@std@@QAEXPAU?$_Tree_node@U?$pair@$$CBHVccTimerClient@@@std@@PAX@2@I@Z 10076610 f i ccTimer.obj
 0002:00048670       ?deallocate@?$_Wrap_alloc@V?$allocator@U_Container_proxy@std@@@std@@@std@@QAEXPAU_Container_proxy@2@I@Z 10076670 f i ccTimer.obj
 0002:000486d0       ?deallocate@?$allocator@U?$_Tree_node@U?$pair@$$CBHVccTimerClient@@@std@@PAX@std@@@std@@QAEXPAU?$_Tree_node@U?$pair@$$CBHVccTimerClient@@@std@@PAX@2@I@Z 100766d0 f i ccTimer.obj
 0002:00048730       ?end@?$_Tree@V?$_Tmap_traits@HVccTimerClient@@U?$less@H@std@@V?$allocator@U?$pair@$$CBHVccTimerClient@@@std@@@3@$0A@@std@@@std@@QAE?AV?$_Tree_iterator@V?$_Tree_val@U?$_Tree_simple_types@U?$pair@$$CBHVccTimerClient@@@std@@@std@@@std@@@2@XZ 10076730 f i ccTimer.obj
 0002:000487a0       ?erase@?$_Tree@V?$_Tmap_traits@HVccTimerClient@@U?$less@H@std@@V?$allocator@U?$pair@$$CBHVccTimerClient@@@std@@@3@$0A@@std@@@std@@QAE?AV?$_Tree_iterator@V?$_Tree_val@U?$_Tree_simple_types@U?$pair@$$CBHVccTimerClient@@@std@@@std@@@std@@@2@V?$_Tree_const_iterator@V?$_Tree_val@U?$_Tree_simple_types@U?$pair@$$CBHVccTimerClient@@@std@@@std@@@std@@@2@0@Z 100767a0 f i ccTimer.obj
 0002:00048ac0       ?erase@?$_Tree@V?$_Tmap_traits@HVccTimerClient@@U?$less@H@std@@V?$allocator@U?$pair@$$CBHVccTimerClient@@@std@@@3@$0A@@std@@@std@@QAE?AV?$_Tree_iterator@V?$_Tree_val@U?$_Tree_simple_types@U?$pair@$$CBHVccTimerClient@@@std@@@std@@@std@@@2@V?$_Tree_const_iterator@V?$_Tree_val@U?$_Tree_simple_types@U?$pair@$$CBHVccTimerClient@@@std@@@std@@@std@@@2@@Z 10076ac0 f i ccTimer.obj
 0002:00049540       ?find@?$_Tree@V?$_Tmap_traits@HVccTimerClient@@U?$less@H@std@@V?$allocator@U?$pair@$$CBHVccTimerClient@@@std@@@3@$0A@@std@@@std@@QAE?AV?$_Tree_iterator@V?$_Tree_val@U?$_Tree_simple_types@U?$pair@$$CBHVccTimerClient@@@std@@@std@@@std@@@2@ABH@Z 10077540 f i ccTimer.obj
 0002:00049850       ?lower_bound@?$_Tree@V?$_Tmap_traits@HVccTimerClient@@U?$less@H@std@@V?$allocator@U?$pair@$$CBHVccTimerClient@@@std@@@3@$0A@@std@@@std@@QAE?AV?$_Tree_iterator@V?$_Tree_val@U?$_Tree_simple_types@U?$pair@$$CBHVccTimerClient@@@std@@@std@@@std@@@2@ABH@Z 10077850 f i ccTimer.obj
 0002:000498e0       ?max_size@?$_Tree@V?$_Tmap_traits@HVccTimerClient@@U?$less@H@std@@V?$allocator@U?$pair@$$CBHVccTimerClient@@@std@@@3@$0A@@std@@@std@@QBEIXZ 100778e0 f i ccTimer.obj
 0002:00049940       ?max_size@?$_Wrap_alloc@V?$allocator@U?$_Tree_node@U?$pair@$$CBHVccTimerClient@@@std@@PAX@std@@@std@@@std@@QBEIXZ 10077940 f i ccTimer.obj
 0002:000499a0       ?max_size@?$allocator@U?$_Tree_node@U?$pair@$$CBHVccTimerClient@@@std@@PAX@std@@@std@@QBEIXZ 100779a0 f i ccTimer.obj
 0002:000499e0       ?max_size@?$allocator_traits@V?$allocator@U?$_Tree_node@U?$pair@$$CBHVccTimerClient@@@std@@PAX@std@@@std@@@std@@SAIABV?$allocator@U?$_Tree_node@U?$pair@$$CBHVccTimerClient@@@std@@PAX@std@@@2@@Z 100779e0 f i ccTimer.obj
 0002:00049a30       ?pointer_to@?$pointer_traits@PAU?$pair@$$CBHVccTimerClient@@@std@@@std@@SAPAU?$pair@$$CBHVccTimerClient@@@2@AAU32@@Z 10077a30 f i ccTimer.obj
 0002:00049a80       ?pointer_to@?$pointer_traits@PBU?$pair@$$CBHVccTimerClient@@@std@@@std@@SAPBU?$pair@$$CBHVccTimerClient@@@2@ABU32@@Z 10077a80 f i ccTimer.obj
 0002:00049ad0       ??0connectionDebugDlg@@QAE@PAVQWidget@@PBD_NI@Z 10077ad0 f   connectiondebugdlgimpl.obj
 0002:00049c10       ??1connectionDebugDlg@@UAE@XZ 10077c10 f   connectiondebugdlgimpl.obj
 0002:00049c70       ?debug@connectionDebugDlg@@QAEXABVQString@@@Z 10077c70 f   connectiondebugdlgimpl.obj
 0002:00049d00       ?doButtonClear@connectionDebugDlg@@QAEXXZ 10077d00 f   connectiondebugdlgimpl.obj
 0002:00049d60       ?scrollToBottom@connectionDebugDlg@@QAEX_N@Z 10077d60 f   connectiondebugdlgimpl.obj
 0002:00049e92       ??_EconnectionDebugDlg@@WCI@AEPAXI@Z 10077e92 f i connectiondebugdlgimpl.obj
 0002:00049ea0       ??_GconnectionDebugDlg@@UAEPAXI@Z 10077ea0 f i connectiondebugdlgimpl.obj
 0002:00049ea0       ??_EconnectionDebugDlg@@UAEPAXI@Z 10077ea0 f i connectiondebugdlgimpl.obj
 0002:00049f10       ?metaObject@connectionDebugDlg@@UBEPAVQMetaObject@@XZ 10077f10 f i connectiondebugdlgimpl.obj
 0002:00049f60       ??0dCW@@QAE@XZ             10077f60 f   dCW.obj
 0002:0004a140       ?create@dCW@@QAEPAVQWidget@@ABVQString@@PAVQObject@@PAV2@PBD_N4NN44@Z 10078140 f   dCW.obj
 0002:0004b5b0       ??1dCW@@UAE@XZ             100795b0 f   dCW.obj
 0002:0004b700       ?parseXML@dCW@@QAEPAVQWidget@@AAVQDomDocument@@PAV2@VQPoint@@_N3VQString@@@Z 10079700 f   dCW.obj
 0002:0004b7f0       ?checkNameUnique@dCW@@SA_NPAVQWidget@@ABVQString@@AAV3@@Z 100797f0 f   dCW.obj
 0002:0004bce0       ?createWidget@dCW@@QAEPAVQWidget@@ABVQString@@PAV2@0HHHH@Z 10079ce0 f   dCW.obj
 0002:0004bfd0       ?round@dCW@@QAEHN@Z        10079fd0 f   dCW.obj
 0002:0004c040       ?clearCache@dCW@@SAXXZ     1007a040 f   dCW.obj
 0002:0004c080       ?enableCache@dCW@@SAX_N@Z  1007a080 f   dCW.obj
 0002:0004c0d0       ?parseXML@dCW@@QAEPAVQWidget@@AAVQDomDocument@@PAV2@VQPoint@@_N33VQString@@@Z 1007a0d0 f   dCW.obj
 0002:00050af0       ?setUserLimitsCallback@dCW@@SAXPAVIdCWlimits@@I@Z 1007eaf0 f   dCW.obj
 0002:00050b30       ?connectionList@dCW@@QAE?AVsignalConnectionRefList@@XZ 1007eb30 f   dCW.obj
 0002:00050ba0       ?name@dCW@@QAE?AVQString@@XZ 1007eba0 f   dCW.obj
 0002:00050c10       ?setDesignTime@dCW@@SAX_N@Z 1007ec10 f   dCW.obj
 0002:00050c40       ?isDesignTime@dCW@@SA_NXZ  1007ec40 f   dCW.obj
 0002:00050c70       ?developerMode@dCW@@SA_NXZ 1007ec70 f   dCW.obj
 0002:00052960       ??0?$QCache@VQDomDocument@@@@QAE@HH_N@Z 10080960 f i dCW.obj
 0002:000529f0       ??0resourceCounts@@QAE@ABV0@@Z 100809f0 f i dCW.obj
 0002:00052a40       ??1?$QCache@VQDomDocument@@@@UAE@XZ 10080a40 f i dCW.obj
 0002:00052b00       ??4resourceCounts@@QAEAAV0@ABV0@@Z 10080b00 f i dCW.obj
 0002:00052b40       ??A?$QCache@VQDomDocument@@@@QBEPAVQDomDocument@@ABVQString@@@Z 10080b40 f i dCW.obj
 0002:00052bb0       ??G@YA?BVQPoint@@ABV0@0@Z  10080bb0 f i dCW.obj
 0002:00052c30       ??_EresourceCounts@@UAEPAXI@Z 10080c30 f i dCW.obj
 0002:00052cf0       ??_E?$QCache@VQDomDocument@@@@UAEPAXI@Z 10080cf0 f i dCW.obj
 0002:00052cf0       ??_G?$QCache@VQDomDocument@@@@UAEPAXI@Z 10080cf0 f i dCW.obj
 0002:00052d60       ??_GQDomDocument@@UAEPAXI@Z 10080d60 f i dCW.obj
 0002:00052d60       ??_EQDomDocument@@UAEPAXI@Z 10080d60 f i dCW.obj
 0002:00052de0       ??_GresourceCounts@@UAEPAXI@Z 10080de0 f i dCW.obj
 0002:00052e50       ?clear@?$QCache@VQDomDocument@@@@UAEXXZ 10080e50 f i dCW.obj
 0002:00052eb0       ?count@?$QCache@VQDomDocument@@@@UBEIXZ 10080eb0 f i dCW.obj
 0002:00052f10       ?deleteItem@?$QCache@VQDomDocument@@@@EAEXPAX@Z 10080f10 f i dCW.obj
 0002:00052fd0       ?insert@?$QCache@VQDomDocument@@@@QAE_NABVQString@@PBVQDomDocument@@HH@Z 10080fd0 f i dCW.obj
 0002:00053050       ??0notifyWrangler@@QAE@ABVQString@@0ABVQWidgetList@@@Z 10081050 f   notifyWrangler.obj
 0002:00053140       ??1notifyWrangler@@UAE@XZ  10081140 f   notifyWrangler.obj
 0002:000531f0       ?wrangle@notifyWrangler@@QAE?AVQString@@ABV2@@Z 100811f0 f   notifyWrangler.obj
 0002:00053e10       ?textGet@notifyWrangler@@QAE_NABVQString@@0AAV2@@Z 10081e10 f   notifyWrangler.obj
 0002:00054690       ??_EnotifyWrangler@@UAEPAXI@Z 10082690 f i notifyWrangler.obj
 0002:00054690       ??_GnotifyWrangler@@UAEPAXI@Z 10082690 f i notifyWrangler.obj
 0002:00054700       ??0connectionDebugDlgBase@@QAE@PAVQWidget@@PBD_NI@Z 10082700 f   connectiondebugdlg.obj
 0002:00054e30       ??1connectionDebugDlgBase@@UAE@XZ 10082e30 f   connectiondebugdlg.obj
 0002:00054e90       ?languageChange@connectionDebugDlgBase@@MAEXXZ 10082e90 f   connectiondebugdlg.obj
 0002:00055329       ??_EQCheckBox@@WCI@AEPAXI@Z 10083329 f i connectiondebugdlg.obj
 0002:00055333       ??_EQHBoxLayout@@WCI@AEPAXI@Z 10083333 f i connectiondebugdlg.obj
 0002:0005533d       ??_EQPushButton@@WCI@AEPAXI@Z 1008333d f i connectiondebugdlg.obj
 0002:00055347       ??_EQTextEdit@@WCI@AEPAXI@Z 10083347 f i connectiondebugdlg.obj
 0002:00055351       ??_EQVBoxLayout@@WCI@AEPAXI@Z 10083351 f i connectiondebugdlg.obj
 0002:0005535b       ??_EconnectionDebugDlgBase@@WCI@AEPAXI@Z 1008335b f i connectiondebugdlg.obj
 0002:00055370       ??_EQCheckBox@@UAEPAXI@Z   10083370 f i connectiondebugdlg.obj
 0002:00055370       ??_GQCheckBox@@UAEPAXI@Z   10083370 f i connectiondebugdlg.obj
 0002:000553f0       ??_EQHBoxLayout@@UAEPAXI@Z 100833f0 f i connectiondebugdlg.obj
 0002:000553f0       ??_GQHBoxLayout@@UAEPAXI@Z 100833f0 f i connectiondebugdlg.obj
 0002:00055470       ??_EQPushButton@@UAEPAXI@Z 10083470 f i connectiondebugdlg.obj
 0002:00055470       ??_GQPushButton@@UAEPAXI@Z 10083470 f i connectiondebugdlg.obj
 0002:000554f0       ??_EQSpacerItem@@UAEPAXI@Z 100834f0 f i connectiondebugdlg.obj
 0002:000554f0       ??_GQSpacerItem@@UAEPAXI@Z 100834f0 f i connectiondebugdlg.obj
 0002:00055570       ??_EQTextEdit@@UAEPAXI@Z   10083570 f i connectiondebugdlg.obj
 0002:00055570       ??_GQTextEdit@@UAEPAXI@Z   10083570 f i connectiondebugdlg.obj
 0002:000555f0       ??_GQVBoxLayout@@UAEPAXI@Z 100835f0 f i connectiondebugdlg.obj
 0002:000555f0       ??_EQVBoxLayout@@UAEPAXI@Z 100835f0 f i connectiondebugdlg.obj
 0002:00055670       ??_GconnectionDebugDlgBase@@UAEPAXI@Z 10083670 f i connectiondebugdlg.obj
 0002:00055670       ??_EconnectionDebugDlgBase@@UAEPAXI@Z 10083670 f i connectiondebugdlg.obj
 0002:000556e0       ?metaObject@connectionDebugDlgBase@@UBEPAVQMetaObject@@XZ 100836e0 f i connectiondebugdlg.obj
 0002:00055730       ?className@bncs_client_runtime@@UBEPBDXZ 10083730 f   moc_bncs_client_runtime.obj
 0002:00055760       ?qt_cast@bncs_client_runtime@@UAEPAXPBD@Z 10083760 f   moc_bncs_client_runtime.obj
 0002:00055820       ?qt_invoke@bncs_client_runtime@@UAE_NHPAUQUObject@@@Z 10083820 f   moc_bncs_client_runtime.obj
 0002:00055910       ?qt_emit@bncs_client_runtime@@UAE_NHPAUQUObject@@@Z 10083910 f   moc_bncs_client_runtime.obj
 0002:000559c0       ?qt_property@bncs_client_runtime@@UAE_NHHPAVQVariant@@@Z 100839c0 f   moc_bncs_client_runtime.obj
 0002:00055a20       ?qt_static_property@bncs_client_runtime@@SA_NPAVQObject@@HHPAVQVariant@@@Z 10083a20 f   moc_bncs_client_runtime.obj
 0002:00055a50       ?staticMetaObject@bncs_client_runtime@@SAPAVQMetaObject@@XZ 10083a50 f   moc_bncs_client_runtime.obj
 0002:00055ba0       ?tr@bncs_client_runtime@@SA?AVQString@@PBD0@Z 10083ba0 f   moc_bncs_client_runtime.obj
 0002:00055c60       ?trUtf8@bncs_client_runtime@@SA?AVQString@@PBD0@Z 10083c60 f   moc_bncs_client_runtime.obj
 0002:00055d20       ?notify@bncs_client_runtime@@IAEXAAVQString@@@Z 10083d20 f   moc_bncs_client_runtime.obj
 0002:00056090       ?className@connectionDebugDlgBase@@UBEPBDXZ 10084090 f   moc_connectiondebugdlg.obj
 0002:000560c0       ?qt_cast@connectionDebugDlgBase@@UAEPAXPBD@Z 100840c0 f   moc_connectiondebugdlg.obj
 0002:00056140       ?qt_invoke@connectionDebugDlgBase@@UAE_NHPAUQUObject@@@Z 10084140 f   moc_connectiondebugdlg.obj
 0002:000561e0       ?qt_emit@connectionDebugDlgBase@@UAE_NHPAUQUObject@@@Z 100841e0 f   moc_connectiondebugdlg.obj
 0002:00056240       ?qt_property@connectionDebugDlgBase@@UAE_NHHPAVQVariant@@@Z 10084240 f   moc_connectiondebugdlg.obj
 0002:000562a0       ?qt_static_property@connectionDebugDlgBase@@SA_NPAVQObject@@HHPAVQVariant@@@Z 100842a0 f   moc_connectiondebugdlg.obj
 0002:000562d0       ?staticMetaObject@connectionDebugDlgBase@@SAPAVQMetaObject@@XZ 100842d0 f   moc_connectiondebugdlg.obj
 0002:00056380       ?tr@connectionDebugDlgBase@@SA?AVQString@@PBD0@Z 10084380 f   moc_connectiondebugdlg.obj
 0002:00056440       ?trUtf8@connectionDebugDlgBase@@SA?AVQString@@PBD0@Z 10084440 f   moc_connectiondebugdlg.obj
 0002:00056610       ?className@connectionDebugDlg@@UBEPBDXZ 10084610 f   moc_connectiondebugdlgimpl.obj
 0002:00056640       ?qt_cast@connectionDebugDlg@@UAEPAXPBD@Z 10084640 f   moc_connectiondebugdlgimpl.obj
 0002:000566b0       ?qt_invoke@connectionDebugDlg@@UAE_NHPAUQUObject@@@Z 100846b0 f   moc_connectiondebugdlgimpl.obj
 0002:00056770       ?qt_emit@connectionDebugDlg@@UAE_NHPAUQUObject@@@Z 10084770 f   moc_connectiondebugdlgimpl.obj
 0002:00056810       ?qt_property@connectionDebugDlg@@UAE_NHHPAVQVariant@@@Z 10084810 f   moc_connectiondebugdlgimpl.obj
 0002:00056860       ?qt_static_property@connectionDebugDlg@@SA_NPAVQObject@@HHPAVQVariant@@@Z 10084860 f   moc_connectiondebugdlgimpl.obj
 0002:00056890       ?staticMetaObject@connectionDebugDlg@@SAPAVQMetaObject@@XZ 10084890 f   moc_connectiondebugdlgimpl.obj
 0002:000569a0       ?tr@connectionDebugDlg@@SA?AVQString@@PBD0@Z 100849a0 f   moc_connectiondebugdlgimpl.obj
 0002:00056a60       ?trUtf8@connectionDebugDlg@@SA?AVQString@@PBD0@Z 10084a60 f   moc_connectiondebugdlgimpl.obj
 0002:00056b20       ?showIncomingEvent@connectionDebugDlg@@IAEX_N@Z 10084b20 f   moc_connectiondebugdlgimpl.obj
 0002:00056cf0       ??0resourceCounts@@QAE@XZ  10084cf0 f   resourceCounts.obj
 0002:00056d50       ??1resourceCounts@@UAE@XZ  10084d50 f   resourceCounts.obj
 0002:00056d90       ?userObjects@resourceCounts@@QAEKXZ 10084d90 f   resourceCounts.obj
 0002:00056de0       ?userObjectsPeak@resourceCounts@@QAEKXZ 10084de0 f   resourceCounts.obj
 0002:00056e30       ?gdiObjects@resourceCounts@@QAEKXZ 10084e30 f   resourceCounts.obj
 0002:00056e80       ?gdiObjectsPeak@resourceCounts@@QAEKXZ 10084e80 f   resourceCounts.obj
 0002:00056f50       ??0decodeCaptionString@@QAE@PBD@Z 10084f50 f   decodecaptionstringdb:decodecaptionstring.obj
 0002:00056fa0       ??1decodeCaptionString@@QAE@XZ 10084fa0 f   decodecaptionstringdb:decodecaptionstring.obj
 0002:00057010       ??0decodeCaptionString@@QAE@ABV0@@Z 10085010 f   decodecaptionstringdb:decodecaptionstring.obj
 0002:00057060       ?dump@decodeCaptionString@@QAEXXZ 10085060 f   decodecaptionstringdb:decodecaptionstring.obj
 0002:000571f0       ?toString@decodeCaptionString@@QAEPADPAD@Z 100851f0 f   decodecaptionstringdb:decodecaptionstring.obj
 0002:00057390       ?split@decodeCaptionString@@AAEXPBD@Z 10085390 f i decodecaptionstringdb:decodecaptionstring.obj
 0002:00057672       ??0instanceInfo@@QAE@XZ    10085672 f   bncs_cachedDatadb:bncs_cachedDatadb.dll
 0002:00057678       ??1instanceInfo@@UAE@XZ    10085678 f   bncs_cachedDatadb:bncs_cachedDatadb.dll
 0002:0005767e       ??0instanceInfo@@QAE@ABV0@@Z 1008567e f   bncs_cachedDatadb:bncs_cachedDatadb.dll
 0002:00057684       ??4instanceInfo@@QAEAAV0@ABV0@@Z 10085684 f   bncs_cachedDatadb:bncs_cachedDatadb.dll
 0002:0005768a       ??0paramInfo@@QAE@XZ       1008568a f   bncs_cachedDatadb:bncs_cachedDatadb.dll
 0002:00057690       ??1paramInfo@@UAE@XZ       10085690 f   bncs_cachedDatadb:bncs_cachedDatadb.dll
 0002:00057696       ??0paramInfo@@QAE@ABV0@@Z  10085696 f   bncs_cachedDatadb:bncs_cachedDatadb.dll
 0002:0005769c       ??4paramInfo@@QAEAAV0@ABV0@@Z 1008569c f   bncs_cachedDatadb:bncs_cachedDatadb.dll
 0002:000576a2       ??0deviceTypeInfo@@QAE@XZ  100856a2 f   bncs_cachedDatadb:bncs_cachedDatadb.dll
 0002:000576a8       ??1deviceTypeInfo@@UAE@XZ  100856a8 f   bncs_cachedDatadb:bncs_cachedDatadb.dll
 0002:000576ae       ??0deviceTypeInfo@@QAE@ABV0@@Z 100856ae f   bncs_cachedDatadb:bncs_cachedDatadb.dll
 0002:000576b4       ??4deviceTypeInfo@@QAEAAV0@ABV0@@Z 100856b4 f   bncs_cachedDatadb:bncs_cachedDatadb.dll
 0002:000576ba       ??0complexParam@@QAE@XZ    100856ba f   bncs_cachedDatadb:bncs_cachedDatadb.dll
 0002:000576c0       ??1complexParam@@UAE@XZ    100856c0 f   bncs_cachedDatadb:bncs_cachedDatadb.dll
 0002:000576c6       ??0complexParam@@QAE@ABV0@@Z 100856c6 f   bncs_cachedDatadb:bncs_cachedDatadb.dll
 0002:000576cc       ??4complexParam@@QAEAAV0@ABV0@@Z 100856cc f   bncs_cachedDatadb:bncs_cachedDatadb.dll
 0002:000576d2       ??0complexInstance@@QAE@XZ 100856d2 f   bncs_cachedDatadb:bncs_cachedDatadb.dll
 0002:000576d8       ??1complexInstance@@UAE@XZ 100856d8 f   bncs_cachedDatadb:bncs_cachedDatadb.dll
 0002:000576de       ??0complexInstance@@QAE@ABV0@@Z 100856de f   bncs_cachedDatadb:bncs_cachedDatadb.dll
 0002:000576e4       ??4complexInstance@@QAEAAV0@ABV0@@Z 100856e4 f   bncs_cachedDatadb:bncs_cachedDatadb.dll
 0002:000576ea       ??0complexType@@QAE@XZ     100856ea f   bncs_cachedDatadb:bncs_cachedDatadb.dll
 0002:000576f0       ??1complexType@@UAE@XZ     100856f0 f   bncs_cachedDatadb:bncs_cachedDatadb.dll
 0002:000576f6       ??0complexType@@QAE@ABV0@@Z 100856f6 f   bncs_cachedDatadb:bncs_cachedDatadb.dll
 0002:000576fc       ??4complexType@@QAEAAV0@ABV0@@Z 100856fc f   bncs_cachedDatadb:bncs_cachedDatadb.dll
 0002:00057702       ?lookupComposite@bncs_instance_lookup@@SA_NABVQString@@AA_NAAV?$QMap@VQString@@V1@@@@Z 10085702 f   bncs_cachedDatadb:bncs_cachedDatadb.dll
 0002:00057708       ?qDebug@@YAXPBDZZ          10085708 f   qt-mt323:qt-mt323.dll
 0002:0005770e       ??0QShared@@QAE@XZ         1008570e f   qt-mt323:qt-mt323.dll
 0002:00057714       ?ref@QShared@@QAEXXZ       10085714 f   qt-mt323:qt-mt323.dll
 0002:0005771a       ?deref@QShared@@QAE_NXZ    1008571a f   qt-mt323:qt-mt323.dll
 0002:00057720       ??0QString@@QAE@XZ         10085720 f   qt-mt323:qt-mt323.dll
 0002:00057726       ??0QString@@QAE@ABV0@@Z    10085726 f   qt-mt323:qt-mt323.dll
 0002:0005772c       ??0QString@@QAE@PBD@Z      1008572c f   qt-mt323:qt-mt323.dll
 0002:00057732       ??1QString@@QAE@XZ         10085732 f   qt-mt323:qt-mt323.dll
 0002:00057738       ??4QString@@QAEAAV0@ABV0@@Z 10085738 f   qt-mt323:qt-mt323.dll
 0002:0005773e       ??4QString@@QAEAAV0@PBD@Z  1008573e f   qt-mt323:qt-mt323.dll
 0002:00057744       ?length@QString@@QBEIXZ    10085744 f   qt-mt323:qt-mt323.dll
 0002:0005774a       ?arg@QString@@QBE?AV1@HHH@Z 1008574a f   qt-mt323:qt-mt323.dll
 0002:00057750       ?arg@QString@@QBE?AV1@ABV1@H@Z 10085750 f   qt-mt323:qt-mt323.dll
 0002:00057756       ?contains@QString@@QBEHD_N@Z 10085756 f   qt-mt323:qt-mt323.dll
 0002:0005775c       ?append@QString@@QAEAAV1@PBD@Z 1008575c f   qt-mt323:qt-mt323.dll
 0002:00057762       ?replace@QString@@QAEAAV1@ABV1@0@Z 10085762 f   qt-mt323:qt-mt323.dll
 0002:00057768       ??AQString@@QBE?AVQChar@@H@Z 10085768 f   qt-mt323:qt-mt323.dll
 0002:0005776e       ??AQString@@QAE?AVQCharRef@@H@Z 1008576e f   qt-mt323:qt-mt323.dll
 0002:00057774       ?latin1@QString@@QBEPBDXZ  10085774 f   qt-mt323:qt-mt323.dll
 0002:0005777a       ??BQString@@QBEPBDXZ       1008577a f   qt-mt323:qt-mt323.dll
 0002:00057780       ??BQCharRef@@QBE?AVQChar@@XZ 10085780 f   qt-mt323:qt-mt323.dll
 0002:00057786       ??M@YA_NABVQString@@0@Z    10085786 f   qt-mt323:qt-mt323.dll
 0002:0005778c       ??8@YA_NABVQString@@PBD@Z  1008578c f   qt-mt323:qt-mt323.dll
 0002:00057792       ??H@YA?BVQString@@ABV0@0@Z 10085792 f   qt-mt323:qt-mt323.dll
 0002:00057798       ??H@YA?BVQString@@ABV0@PBD@Z 10085798 f   qt-mt323:qt-mt323.dll
 0002:0005779e       ??H@YA?BVQString@@PBDABV0@@Z 1008579e f   qt-mt323:qt-mt323.dll
 0002:000577a4       ??0?$QValueList@VQString@@@@QAE@XZ 100857a4 f   qt-mt323:qt-mt323.dll
 0002:000577aa       ??0?$QValueList@VQString@@@@QAE@ABV0@@Z 100857aa f   qt-mt323:qt-mt323.dll
 0002:000577b0       ??1?$QValueList@VQString@@@@QAE@XZ 100857b0 f   qt-mt323:qt-mt323.dll
 0002:000577b6       ?append@?$QValueList@VQString@@@@QAE?AV?$QValueListIterator@VQString@@@@ABVQString@@@Z 100857b6 f   qt-mt323:qt-mt323.dll
 0002:000577bc       ?minimum@QMapNodeBase@@QAEPAU1@XZ 100857bc f   qt-mt323:qt-mt323.dll
 0002:000577c2       ?maximum@QMapNodeBase@@QAEPAU1@XZ 100857c2 f   qt-mt323:qt-mt323.dll
 0002:000577c8       ??0QMapPrivateBase@@QAE@XZ 100857c8 f   qt-mt323:qt-mt323.dll
 0002:000577ce       ??0QMapPrivateBase@@QAE@PBV0@@Z 100857ce f   qt-mt323:qt-mt323.dll
 0002:000577d4       ?rebalance@QMapPrivateBase@@QAEXPAUQMapNodeBase@@AAPAU2@@Z 100857d4 f   qt-mt323:qt-mt323.dll
 0002:000577da       ?removeAndRebalance@QMapPrivateBase@@QAEPAUQMapNodeBase@@PAU2@AAPAU2@11@Z 100857da f   qt-mt323:qt-mt323.dll
 0002:000577e0       ??0?$QMap@VQString@@V1@@@QAE@XZ 100857e0 f   qt-mt323:qt-mt323.dll
 0002:000577e6       ??1?$QMap@VQString@@V1@@@QAE@XZ 100857e6 f   qt-mt323:qt-mt323.dll
 0002:000577ec       ??A?$QMap@VQString@@V1@@@QAEAAVQString@@ABV1@@Z 100857ec f   qt-mt323:qt-mt323.dll
 0002:000577f2       ?setAutoDelete@QPtrCollection@@QAEX_N@Z 100857f2 f   qt-mt323:qt-mt323.dll
 0002:000577f8       ?getData@QLNode@@QAEPAXXZ  100857f8 f   qt-mt323:qt-mt323.dll
 0002:000577fe       ?count@QGList@@UBEIXZ      100857fe f   qt-mt323:qt-mt323.dll
 0002:00057804       ??0QGList@@IAE@XZ          10085804 f   qt-mt323:qt-mt323.dll
 0002:0005780a       ??0QGList@@IAE@ABV0@@Z     1008580a f   qt-mt323:qt-mt323.dll
 0002:00057810       ??1QGList@@MAE@XZ          10085810 f   qt-mt323:qt-mt323.dll
 0002:00057816       ??4QGList@@IAEAAV0@ABV0@@Z 10085816 f   qt-mt323:qt-mt323.dll
 0002:0005781c       ??8QGList@@IBE_NABV0@@Z    1008581c f   qt-mt323:qt-mt323.dll
 0002:00057822       ?inSort@QGList@@IAEXPAX@Z  10085822 f   qt-mt323:qt-mt323.dll
 0002:00057828       ?append@QGList@@IAEXPAX@Z  10085828 f   qt-mt323:qt-mt323.dll
 0002:0005782e       ?insertAt@QGList@@IAE_NIPAX@Z 1008582e f   qt-mt323:qt-mt323.dll
 0002:00057834       ?removeNode@QGList@@IAE_NPAVQLNode@@@Z 10085834 f   qt-mt323:qt-mt323.dll
 0002:0005783a       ?remove@QGList@@IAE_NPAX@Z 1008583a f   qt-mt323:qt-mt323.dll
 0002:00057840       ?removeRef@QGList@@IAE_NPAX@Z 10085840 f   qt-mt323:qt-mt323.dll
 0002:00057846       ?removeFirst@QGList@@IAE_NXZ 10085846 f   qt-mt323:qt-mt323.dll
 0002:0005784c       ?removeLast@QGList@@IAE_NXZ 1008584c f   qt-mt323:qt-mt323.dll
 0002:00057852       ?removeAt@QGList@@IAE_NI@Z 10085852 f   qt-mt323:qt-mt323.dll
 0002:00057858       ?replaceAt@QGList@@IAE_NIPAX@Z 10085858 f   qt-mt323:qt-mt323.dll
 0002:0005785e       ?takeNode@QGList@@IAEPAXPAVQLNode@@@Z 1008585e f   qt-mt323:qt-mt323.dll
 0002:00057864       ?take@QGList@@IAEPAXXZ     10085864 f   qt-mt323:qt-mt323.dll
 0002:0005786a       ?takeAt@QGList@@IAEPAXI@Z  1008586a f   qt-mt323:qt-mt323.dll
 0002:00057870       ?sort@QGList@@IAEXXZ       10085870 f   qt-mt323:qt-mt323.dll
 0002:00057876       ?clear@QGList@@MAEXXZ      10085876 f   qt-mt323:qt-mt323.dll
 0002:0005787c       ?findRef@QGList@@IAEHPAX_N@Z 1008587c f   qt-mt323:qt-mt323.dll
 0002:00057882       ?find@QGList@@IAEHPAX_N@Z  10085882 f   qt-mt323:qt-mt323.dll
 0002:00057888       ?containsRef@QGList@@IBEIPAX@Z 10085888 f   qt-mt323:qt-mt323.dll
 0002:0005788e       ?contains@QGList@@IBEIPAX@Z 1008588e f   qt-mt323:qt-mt323.dll
 0002:00057894       ?at@QGList@@IAEPAXI@Z      10085894 f   qt-mt323:qt-mt323.dll
 0002:0005789a       ?at@QGList@@IBEHXZ         1008589a f   qt-mt323:qt-mt323.dll
 0002:000578a0       ?currentNode@QGList@@IBEPAVQLNode@@XZ 100858a0 f   qt-mt323:qt-mt323.dll
 0002:000578a6       ?get@QGList@@IBEPAXXZ      100858a6 f   qt-mt323:qt-mt323.dll
 0002:000578ac       ?cfirst@QGList@@IBEPAXXZ   100858ac f   qt-mt323:qt-mt323.dll
 0002:000578b2       ?clast@QGList@@IBEPAXXZ    100858b2 f   qt-mt323:qt-mt323.dll
 0002:000578b8       ?first@QGList@@IAEPAXXZ    100858b8 f   qt-mt323:qt-mt323.dll
 0002:000578be       ?last@QGList@@IAEPAXXZ     100858be f   qt-mt323:qt-mt323.dll
 0002:000578c4       ?next@QGList@@IAEPAXXZ     100858c4 f   qt-mt323:qt-mt323.dll
 0002:000578ca       ?prev@QGList@@IAEPAXXZ     100858ca f   qt-mt323:qt-mt323.dll
 0002:000578d0       ?toVector@QGList@@IBEXPAVQGVector@@@Z 100858d0 f   qt-mt323:qt-mt323.dll
 0002:000578d6       ?begin@QGList@@IBEPAVQLNode@@XZ 100858d6 f   qt-mt323:qt-mt323.dll
 0002:000578dc       ?end@QGList@@IBEPAVQLNode@@XZ 100858dc f   qt-mt323:qt-mt323.dll
 0002:000578e2       ?erase@QGList@@IAEPAVQLNode@@PAV2@@Z 100858e2 f   qt-mt323:qt-mt323.dll
 0002:000578e8       ??0QGListIterator@@IAE@ABVQGList@@@Z 100858e8 f   qt-mt323:qt-mt323.dll
 0002:000578ee       ??0QGListIterator@@IAE@ABV0@@Z 100858ee f   qt-mt323:qt-mt323.dll
 0002:000578f4       ??4QGListIterator@@IAEAAV0@ABV0@@Z 100858f4 f   qt-mt323:qt-mt323.dll
 0002:000578fa       ??1QGListIterator@@IAE@XZ  100858fa f   qt-mt323:qt-mt323.dll
 0002:00057900       ?atFirst@QGListIterator@@IBE_NXZ 10085900 f   qt-mt323:qt-mt323.dll
 0002:00057906       ?atLast@QGListIterator@@IBE_NXZ 10085906 f   qt-mt323:qt-mt323.dll
 0002:0005790c       ?toFirst@QGListIterator@@IAEPAXXZ 1008590c f   qt-mt323:qt-mt323.dll
 0002:00057912       ?toLast@QGListIterator@@IAEPAXXZ 10085912 f   qt-mt323:qt-mt323.dll
 0002:00057918       ?get@QGListIterator@@IBEPAXXZ 10085918 f   qt-mt323:qt-mt323.dll
 0002:0005791e       ??RQGListIterator@@IAEPAXXZ 1008591e f   qt-mt323:qt-mt323.dll
 0002:00057924       ??EQGListIterator@@IAEPAXXZ 10085924 f   qt-mt323:qt-mt323.dll
 0002:0005792a       ??YQGListIterator@@IAEPAXI@Z 1008592a f   qt-mt323:qt-mt323.dll
 0002:00057930       ??FQGListIterator@@IAEPAXXZ 10085930 f   qt-mt323:qt-mt323.dll
 0002:00057936       ??ZQGListIterator@@IAEPAXI@Z 10085936 f   qt-mt323:qt-mt323.dll
 0002:0005793c       ??0QGListStdIterator@@QAE@PAVQLNode@@@Z 1008593c f   qt-mt323:qt-mt323.dll
 0002:00057942       ??BQGListStdIterator@@QAEPAVQLNode@@XZ 10085942 f   qt-mt323:qt-mt323.dll
 0002:00057948       ?next@QGListStdIterator@@IAEPAVQLNode@@XZ 10085948 f   qt-mt323:qt-mt323.dll
 0002:0005794e       ?accept@QContextMenuEvent@@QAEXXZ 1008594e f   qt-mt323:qt-mt323.dll
 0002:00057954       ?name@QObject@@QBEPBDXZ    10085954 f   qt-mt323:qt-mt323.dll
 0002:0005795a       ?connect@QObject@@SA_NPBV1@PBD01@Z 1008595a f   qt-mt323:qt-mt323.dll
 0002:00057960       ?sender@QObject@@IAEPBV1@XZ 10085960 f   qt-mt323:qt-mt323.dll
 0002:00057966       ??0QColorGroup@@QAE@ABV0@@Z 10085966 f   qt-mt323:qt-mt323.dll
 0002:0005796c       ??1QColorGroup@@QAE@XZ     1008596c f   qt-mt323:qt-mt323.dll
 0002:00057972       ??0QWidget@@QAE@PAV0@PBDI@Z 10085972 f   qt-mt323:qt-mt323.dll
 0002:00057978       ??1QWidget@@UAE@XZ         10085978 f   qt-mt323:qt-mt323.dll
 0002:0005797e       ?style@QWidget@@QBEAAVQStyle@@XZ 1008597e f   qt-mt323:qt-mt323.dll
 0002:00057984       ?rect@QWidget@@QBE?AVQRect@@XZ 10085984 f   qt-mt323:qt-mt323.dll
 0002:0005798a       ?setBackgroundMode@QWidget@@UAEXW4BackgroundMode@Qt@@@Z 1008598a f   qt-mt323:qt-mt323.dll
 0002:00057990       ?colorGroup@QWidget@@QBEABVQColorGroup@@XZ 10085990 f   qt-mt323:qt-mt323.dll
 0002:00057996       ?contextMenuEvent@QWidget@@MAEXPAVQContextMenuEvent@@@Z 10085996 f   qt-mt323:qt-mt323.dll
 0002:0005799c       ?setWFlags@QWidget@@MAEXI@Z 1008599c f   qt-mt323:qt-mt323.dll
 0002:000579a2       ??0QWidget@@QAE@ABV0@@Z    100859a2 f   qt-mt323:qt-mt323.dll
 0002:000579a8       ??4QWidget@@QAEAAV0@ABV0@@Z 100859a8 f   qt-mt323:qt-mt323.dll
 0002:000579ae       ?append@?$QPtrList@VQWidget@@@@QAEXPBVQWidget@@@Z 100859ae f   qt-mt323:qt-mt323.dll
 0002:000579b4       ?remove@?$QPtrList@VQWidget@@@@QAE_NPBVQWidget@@@Z 100859b4 f   qt-mt323:qt-mt323.dll
 0002:000579ba       ?first@?$QPtrList@VQWidget@@@@QAEPAVQWidget@@XZ 100859ba f   qt-mt323:qt-mt323.dll
 0002:000579c0       ?next@?$QPtrList@VQWidget@@@@QAEPAVQWidget@@XZ 100859c0 f   qt-mt323:qt-mt323.dll
 0002:000579c6       ?begin@?$QPtrList@VQWidget@@@@QAE?AV?$QPtrListStdIterator@VQWidget@@@@XZ 100859c6 f   qt-mt323:qt-mt323.dll
 0002:000579cc       ?end@?$QPtrList@VQWidget@@@@QAE?AV?$QPtrListStdIterator@VQWidget@@@@XZ 100859cc f   qt-mt323:qt-mt323.dll
 0002:000579d2       ??0QPainter@@QAE@PBVQPaintDevice@@_N@Z 100859d2 f   qt-mt323:qt-mt323.dll
 0002:000579d8       ??1QPainter@@QAE@XZ        100859d8 f   qt-mt323:qt-mt323.dll
 0002:000579de       ?insertItem@QMenuData@@QAEHABVQString@@HH@Z 100859de f   qt-mt323:qt-mt323.dll
 0002:000579e4       ??0QPopupMenu@@QAE@PAVQWidget@@PBD@Z 100859e4 f   qt-mt323:qt-mt323.dll
 0002:000579ea       ??1QPopupMenu@@UAE@XZ      100859ea f   qt-mt323:qt-mt323.dll
 0002:000579f0       ?exec@QPopupMenu@@QAEHABVQPoint@@H@Z 100859f0 f   qt-mt323:qt-mt323.dll
 0002:000579f6       ?pos@QCursor@@SA?AVQPoint@@XZ 100859f6 f   qt-mt323:qt-mt323.dll
 0002:000579fc       ??0QRegExp@@QAE@ABVQString@@_N1@Z 100859fc f   qt-mt323:qt-mt323.dll
 0002:00057a02       ??1QRegExp@@QAE@XZ         10085a02 f   qt-mt323:qt-mt323.dll
 0002:00057a08       ?exactMatch@QRegExp@@QBE_NABVQString@@@Z 10085a08 f   qt-mt323:qt-mt323.dll
 0002:00057a0e       ?exists@QFile@@SA_NABVQString@@@Z 10085a0e f   qt-mt323:qt-mt323.dll
 0002:00057a14       ??0QWidgetList@@QAE@XZ     10085a14 f   qt-mt323:qt-mt323.dll
 0002:00057a1a       ??0QWidgetList@@QAE@ABV0@@Z 10085a1a f   qt-mt323:qt-mt323.dll
 0002:00057a20       ??1QWidgetList@@UAE@XZ     10085a20 f   qt-mt323:qt-mt323.dll
 0002:00057a26       ??4QWidgetList@@QAEAAV0@ABV0@@Z 10085a26 f   qt-mt323:qt-mt323.dll
 0002:00057a2c       ??0QFileInfo@@QAE@ABVQString@@@Z 10085a2c f   qt-mt323:qt-mt323.dll
 0002:00057a32       ??1QFileInfo@@QAE@XZ       10085a32 f   qt-mt323:qt-mt323.dll
 0002:00057a38       ?baseName@QFileInfo@@QBE?AVQString@@_N@Z 10085a38 f   qt-mt323:qt-mt323.dll
 0002:00057a3e       ?dirPath@QFileInfo@@QBE?AVQString@@_N@Z 10085a3e f   qt-mt323:qt-mt323.dll
 0002:00057a44       ?adjustSize@QWidget@@UAEXXZ 10085a44 f   qt-mt323:qt-mt323.dll
 0002:00057a4a       ?checkConnectArgs@QObject@@MAE_NPBDPBV1@0@Z 10085a4a f   qt-mt323:qt-mt323.dll
 0002:00057a50       ?childEvent@QObject@@MAEXPAVQChildEvent@@@Z 10085a50 f   qt-mt323:qt-mt323.dll
 0002:00057a56       ?close@QWidget@@UAE_N_N@Z  10085a56 f   qt-mt323:qt-mt323.dll
 0002:00057a5c       ?closeEvent@QWidget@@MAEXPAVQCloseEvent@@@Z 10085a5c f   qt-mt323:qt-mt323.dll
 0002:00057a62       ?cmd@QPaintDevice@@MAE_NHPAVQPainter@@PATQPDevCmdParam@@@Z 10085a62 f   qt-mt323:qt-mt323.dll
 0002:00057a68       ?compareItems@QGList@@MAEHPAX0@Z 10085a68 f   qt-mt323:qt-mt323.dll
 0002:00057a6e       ?connectNotify@QObject@@MAEXPBD@Z 10085a6e f   qt-mt323:qt-mt323.dll
 0002:00057a74       ?create@QWidget@@MAEXPAUHWND__@@_N1@Z 10085a74 f   qt-mt323:qt-mt323.dll
 0002:00057a7a       ?customEvent@QObject@@MAEXPAVQCustomEvent@@@Z 10085a7a f   qt-mt323:qt-mt323.dll
 0002:00057a80       ?customWhatsThis@QWidget@@UBE_NXZ 10085a80 f   qt-mt323:qt-mt323.dll
 0002:00057a86       ?destroy@QWidget@@MAEX_N0@Z 10085a86 f   qt-mt323:qt-mt323.dll
 0002:00057a8c       ?disconnectNotify@QObject@@MAEXPBD@Z 10085a8c f   qt-mt323:qt-mt323.dll
 0002:00057a92       ?dragEnterEvent@QWidget@@MAEXPAVQDragEnterEvent@@@Z 10085a92 f   qt-mt323:qt-mt323.dll
 0002:00057a98       ?dragLeaveEvent@QWidget@@MAEXPAVQDragLeaveEvent@@@Z 10085a98 f   qt-mt323:qt-mt323.dll
 0002:00057a9e       ?dragMoveEvent@QWidget@@MAEXPAVQDragMoveEvent@@@Z 10085a9e f   qt-mt323:qt-mt323.dll
 0002:00057aa4       ?dropEvent@QWidget@@MAEXPAVQDropEvent@@@Z 10085aa4 f   qt-mt323:qt-mt323.dll
 0002:00057aaa       ?enabledChange@QWidget@@MAEX_N@Z 10085aaa f   qt-mt323:qt-mt323.dll
 0002:00057ab0       ?enterEvent@QWidget@@MAEXPAVQEvent@@@Z 10085ab0 f   qt-mt323:qt-mt323.dll
 0002:00057ab6       ?event@QWidget@@MAE_NPAVQEvent@@@Z 10085ab6 f   qt-mt323:qt-mt323.dll
 0002:00057abc       ?eventFilter@QObject@@UAE_NPAV1@PAVQEvent@@@Z 10085abc f   qt-mt323:qt-mt323.dll
 0002:00057ac2       ?focusInEvent@QWidget@@MAEXPAVQFocusEvent@@@Z 10085ac2 f   qt-mt323:qt-mt323.dll
 0002:00057ac8       ?focusNextPrevChild@QWidget@@MAE_N_N@Z 10085ac8 f   qt-mt323:qt-mt323.dll
 0002:00057ace       ?focusOutEvent@QWidget@@MAEXPAVQFocusEvent@@@Z 10085ace f   qt-mt323:qt-mt323.dll
 0002:00057ad4       ?fontChange@QWidget@@MAEXABVQFont@@@Z 10085ad4 f   qt-mt323:qt-mt323.dll
 0002:00057ada       ?fontInf@QPaintDevice@@MBEHPAVQFont@@H@Z 10085ada f   qt-mt323:qt-mt323.dll
 0002:00057ae0       ?fontMet@QPaintDevice@@MBEHPAVQFont@@HPBDH@Z 10085ae0 f   qt-mt323:qt-mt323.dll
 0002:00057ae6       ?handle@QPaintDevice@@UBEPAUHDC__@@XZ 10085ae6 f   qt-mt323:qt-mt323.dll
 0002:00057aec       ?heightForWidth@QWidget@@UBEHH@Z 10085aec f   qt-mt323:qt-mt323.dll
 0002:00057af2       ?hide@QWidget@@UAEXXZ      10085af2 f   qt-mt323:qt-mt323.dll
 0002:00057af8       ?hideEvent@QWidget@@MAEXPAVQHideEvent@@@Z 10085af8 f   qt-mt323:qt-mt323.dll
 0002:00057afe       ?imComposeEvent@QWidget@@MAEXPAVQIMEvent@@@Z 10085afe f   qt-mt323:qt-mt323.dll
 0002:00057b04       ?imEndEvent@QWidget@@MAEXPAVQIMEvent@@@Z 10085b04 f   qt-mt323:qt-mt323.dll
 0002:00057b0a       ?imStartEvent@QWidget@@MAEXPAVQIMEvent@@@Z 10085b0a f   qt-mt323:qt-mt323.dll
 0002:00057b10       ?insertChild@QObject@@UAEXPAV1@@Z 10085b10 f   qt-mt323:qt-mt323.dll
 0002:00057b16       ?keyPressEvent@QWidget@@MAEXPAVQKeyEvent@@@Z 10085b16 f   qt-mt323:qt-mt323.dll
 0002:00057b1c       ?keyReleaseEvent@QWidget@@MAEXPAVQKeyEvent@@@Z 10085b1c f   qt-mt323:qt-mt323.dll
 0002:00057b22       ?leaveEvent@QWidget@@MAEXPAVQEvent@@@Z 10085b22 f   qt-mt323:qt-mt323.dll
 0002:00057b28       ?metric@QWidget@@MBEHH@Z   10085b28 f   qt-mt323:qt-mt323.dll
 0002:00057b2e       ?minimumSizeHint@QWidget@@UBE?AVQSize@@XZ 10085b2e f   qt-mt323:qt-mt323.dll
 0002:00057b34       ?mouseDoubleClickEvent@QWidget@@MAEXPAVQMouseEvent@@@Z 10085b34 f   qt-mt323:qt-mt323.dll
 0002:00057b3a       ?mouseMoveEvent@QWidget@@MAEXPAVQMouseEvent@@@Z 10085b3a f   qt-mt323:qt-mt323.dll
 0002:00057b40       ?move@QWidget@@UAEXHH@Z    10085b40 f   qt-mt323:qt-mt323.dll
 0002:00057b46       ?moveEvent@QWidget@@MAEXPAVQMoveEvent@@@Z 10085b46 f   qt-mt323:qt-mt323.dll
 0002:00057b4c       ?newItem@QPtrCollection@@MAEPAXPAX@Z 10085b4c f   qt-mt323:qt-mt323.dll
 0002:00057b52       ?paletteChange@QWidget@@MAEXABVQPalette@@@Z 10085b52 f   qt-mt323:qt-mt323.dll
 0002:00057b58       ?polish@QWidget@@UAEXXZ    10085b58 f   qt-mt323:qt-mt323.dll
 0002:00057b5e       ?property@QObject@@UBE?AVQVariant@@PBD@Z 10085b5e f   qt-mt323:qt-mt323.dll
 0002:00057b64       ?read@QGList@@MAEAAVQDataStream@@AAV2@AAPAX@Z 10085b64 f   qt-mt323:qt-mt323.dll
 0002:00057b6a       ?removeChild@QObject@@UAEXPAV1@@Z 10085b6a f   qt-mt323:qt-mt323.dll
 0002:00057b70       ?reparent@QWidget@@UAEXPAV1@IABVQPoint@@_N@Z 10085b70 f   qt-mt323:qt-mt323.dll
 0002:00057b76       ?resize@QWidget@@UAEXHH@Z  10085b76 f   qt-mt323:qt-mt323.dll
 0002:00057b7c       ?resizeEvent@QWidget@@MAEXPAVQResizeEvent@@@Z 10085b7c f   qt-mt323:qt-mt323.dll
 0002:00057b82       ?resolution@QPaintDevice@@UBEHXZ 10085b82 f   qt-mt323:qt-mt323.dll
 0002:00057b88       ?setAcceptDrops@QWidget@@UAEX_N@Z 10085b88 f   qt-mt323:qt-mt323.dll
 0002:00057b8e       ?setActiveWindow@QWidget@@UAEXXZ 10085b8e f   qt-mt323:qt-mt323.dll
 0002:00057b94       ?setAutoMask@QWidget@@UAEX_N@Z 10085b94 f   qt-mt323:qt-mt323.dll
 0002:00057b9a       ?setBackgroundColor@QWidget@@UAEXABVQColor@@@Z 10085b9a f   qt-mt323:qt-mt323.dll
 0002:00057ba0       ?setBackgroundOrigin@QWidget@@UAEXW4BackgroundOrigin@1@@Z 10085ba0 f   qt-mt323:qt-mt323.dll
 0002:00057ba6       ?setBackgroundPixmap@QWidget@@UAEXABVQPixmap@@@Z 10085ba6 f   qt-mt323:qt-mt323.dll
 0002:00057bac       ?setCursor@QWidget@@UAEXABVQCursor@@@Z 10085bac f   qt-mt323:qt-mt323.dll
 0002:00057bb2       ?setEnabled@QWidget@@UAEX_N@Z 10085bb2 f   qt-mt323:qt-mt323.dll
 0002:00057bb8       ?setEraseColor@QWidget@@UAEXABVQColor@@@Z 10085bb8 f   qt-mt323:qt-mt323.dll
 0002:00057bbe       ?setErasePixmap@QWidget@@UAEXABVQPixmap@@@Z 10085bbe f   qt-mt323:qt-mt323.dll
 0002:00057bc4       ?setFocus@QWidget@@UAEXXZ  10085bc4 f   qt-mt323:qt-mt323.dll
 0002:00057bca       ?setFocusPolicy@QWidget@@UAEXW4FocusPolicy@1@@Z 10085bca f   qt-mt323:qt-mt323.dll
 0002:00057bd0       ?setFocusProxy@QWidget@@UAEXPAV1@@Z 10085bd0 f   qt-mt323:qt-mt323.dll
 0002:00057bd6       ?setFont@QWidget@@UAEXABVQFont@@@Z 10085bd6 f   qt-mt323:qt-mt323.dll
 0002:00057bdc       ?setGeometry@QWidget@@UAEXABVQRect@@@Z 10085bdc f   qt-mt323:qt-mt323.dll
 0002:00057be2       ?setGeometry@QWidget@@UAEXHHHH@Z 10085be2 f   qt-mt323:qt-mt323.dll
 0002:00057be8       ?setIcon@QWidget@@UAEXABVQPixmap@@@Z 10085be8 f   qt-mt323:qt-mt323.dll
 0002:00057bee       ?setIconText@QWidget@@UAEXABVQString@@@Z 10085bee f   qt-mt323:qt-mt323.dll
 0002:00057bf4       ?setKeyCompression@QWidget@@MAEX_N@Z 10085bf4 f   qt-mt323:qt-mt323.dll
 0002:00057bfa       ?setMask@QWidget@@UAEXABVQBitmap@@@Z 10085bfa f   qt-mt323:qt-mt323.dll
 0002:00057c00       ?setMask@QWidget@@UAEXABVQRegion@@@Z 10085c00 f   qt-mt323:qt-mt323.dll
 0002:00057c06       ?setMaximumSize@QWidget@@UAEXHH@Z 10085c06 f   qt-mt323:qt-mt323.dll
 0002:00057c0c       ?setMicroFocusHint@QWidget@@MAEXHHHH_NPAVQFont@@@Z 10085c0c f   qt-mt323:qt-mt323.dll
 0002:00057c12       ?setMinimumSize@QWidget@@UAEXHH@Z 10085c12 f   qt-mt323:qt-mt323.dll
 0002:00057c18       ?setMouseTracking@QWidget@@UAEX_N@Z 10085c18 f   qt-mt323:qt-mt323.dll
 0002:00057c1e       ?setName@QWidget@@UAEXPBD@Z 10085c1e f   qt-mt323:qt-mt323.dll
 0002:00057c24       ?setPalette@QWidget@@UAEXABVQPalette@@@Z 10085c24 f   qt-mt323:qt-mt323.dll
 0002:00057c2a       ?setPaletteBackgroundColor@QWidget@@UAEXABVQColor@@@Z 10085c2a f   qt-mt323:qt-mt323.dll
 0002:00057c30       ?setPaletteBackgroundPixmap@QWidget@@UAEXABVQPixmap@@@Z 10085c30 f   qt-mt323:qt-mt323.dll
 0002:00057c36       ?setProperty@QObject@@UAE_NPBDABVQVariant@@@Z 10085c36 f   qt-mt323:qt-mt323.dll
 0002:00057c3c       ?setResolution@QPaintDevice@@UAEXH@Z 10085c3c f   qt-mt323:qt-mt323.dll
 0002:00057c42       ?setSizeIncrement@QWidget@@UAEXHH@Z 10085c42 f   qt-mt323:qt-mt323.dll
 0002:00057c48       ?setSizePolicy@QWidget@@UAEXVQSizePolicy@@@Z 10085c48 f   qt-mt323:qt-mt323.dll
 0002:00057c4e       ?setUpdatesEnabled@QWidget@@UAEX_N@Z 10085c4e f   qt-mt323:qt-mt323.dll
 0002:00057c54       ?setWState@QWidget@@MAEXI@Z 10085c54 f   qt-mt323:qt-mt323.dll
 0002:00057c5a       ?show@QWidget@@UAEXXZ      10085c5a f   qt-mt323:qt-mt323.dll
 0002:00057c60       ?showEvent@QWidget@@MAEXPAVQShowEvent@@@Z 10085c60 f   qt-mt323:qt-mt323.dll
 0002:00057c66       ?showMaximized@QWidget@@UAEXXZ 10085c66 f   qt-mt323:qt-mt323.dll
 0002:00057c6c       ?showMinimized@QWidget@@UAEXXZ 10085c6c f   qt-mt323:qt-mt323.dll
 0002:00057c72       ?showNormal@QWidget@@UAEXXZ 10085c72 f   qt-mt323:qt-mt323.dll
 0002:00057c78       ?sizeHint@QWidget@@UBE?AVQSize@@XZ 10085c78 f   qt-mt323:qt-mt323.dll
 0002:00057c7e       ?sizePolicy@QWidget@@UBE?AVQSizePolicy@@XZ 10085c7e f   qt-mt323:qt-mt323.dll
 0002:00057c84       ?styleChange@QWidget@@MAEXAAVQStyle@@@Z 10085c84 f   qt-mt323:qt-mt323.dll
 0002:00057c8a       ?tabletEvent@QWidget@@MAEXPAVQTabletEvent@@@Z 10085c8a f   qt-mt323:qt-mt323.dll
 0002:00057c90       ?timerEvent@QObject@@MAEXPAVQTimerEvent@@@Z 10085c90 f   qt-mt323:qt-mt323.dll
 0002:00057c96       ?unsetCursor@QWidget@@UAEXXZ 10085c96 f   qt-mt323:qt-mt323.dll
 0002:00057c9c       ?updateMask@QWidget@@MAEXXZ 10085c9c f   qt-mt323:qt-mt323.dll
 0002:00057ca2       ?wheelEvent@QWidget@@MAEXPAVQWheelEvent@@@Z 10085ca2 f   qt-mt323:qt-mt323.dll
 0002:00057ca8       ?winEvent@QWidget@@MAE_NPAUtagMSG@@@Z 10085ca8 f   qt-mt323:qt-mt323.dll
 0002:00057cae       ?windowActivationChange@QWidget@@MAEX_N@Z 10085cae f   qt-mt323:qt-mt323.dll
 0002:00057cb4       ?write@QGList@@MBEAAVQDataStream@@AAV2@PAX@Z 10085cb4 f   qt-mt323:qt-mt323.dll
 0002:00057cba       ?accept@QDialog@@MAEXXZ    10085cba f   qt-mt323:qt-mt323.dll
 0002:00057cc0       ?closeEvent@QDialog@@MAEXPAVQCloseEvent@@@Z 10085cc0 f   qt-mt323:qt-mt323.dll
 0002:00057cc6       ?contextMenuEvent@QDialog@@MAEXPAVQContextMenuEvent@@@Z 10085cc6 f   qt-mt323:qt-mt323.dll
 0002:00057ccc       ?done@QDialog@@MAEXH@Z     10085ccc f   qt-mt323:qt-mt323.dll
 0002:00057cd2       ?eventFilter@QDialog@@MAE_NPAVQObject@@PAVQEvent@@@Z 10085cd2 f   qt-mt323:qt-mt323.dll
 0002:00057cd8       ?hide@QDialog@@UAEXXZ      10085cd8 f   qt-mt323:qt-mt323.dll
 0002:00057cde       ?keyPressEvent@QDialog@@MAEXPAVQKeyEvent@@@Z 10085cde f   qt-mt323:qt-mt323.dll
 0002:00057ce4       ?minimumSizeHint@QDialog@@UBE?AVQSize@@XZ 10085ce4 f   qt-mt323:qt-mt323.dll
 0002:00057cea       ?mousePressEvent@QWidget@@MAEXPAVQMouseEvent@@@Z 10085cea f   qt-mt323:qt-mt323.dll
 0002:00057cf0       ?mouseReleaseEvent@QWidget@@MAEXPAVQMouseEvent@@@Z 10085cf0 f   qt-mt323:qt-mt323.dll
 0002:00057cf6       ?move@QDialog@@UAEXHH@Z    10085cf6 f   qt-mt323:qt-mt323.dll
 0002:00057cfc       ?paintEvent@QWidget@@MAEXPAVQPaintEvent@@@Z 10085cfc f   qt-mt323:qt-mt323.dll
 0002:00057d02       ?reject@QDialog@@MAEXXZ    10085d02 f   qt-mt323:qt-mt323.dll
 0002:00057d08       ?resize@QDialog@@UAEXHH@Z  10085d08 f   qt-mt323:qt-mt323.dll
 0002:00057d0e       ?resizeEvent@QDialog@@MAEXPAVQResizeEvent@@@Z 10085d0e f   qt-mt323:qt-mt323.dll
 0002:00057d14       ?setCaption@QWidget@@UAEXABVQString@@@Z 10085d14 f   qt-mt323:qt-mt323.dll
 0002:00057d1a       ?setGeometry@QDialog@@UAEXABVQRect@@@Z 10085d1a f   qt-mt323:qt-mt323.dll
 0002:00057d20       ?setGeometry@QDialog@@UAEXHHHH@Z 10085d20 f   qt-mt323:qt-mt323.dll
 0002:00057d26       ?show@QDialog@@UAEXXZ      10085d26 f   qt-mt323:qt-mt323.dll
 0002:00057d2c       ?sizeHint@QDialog@@UBE?AVQSize@@XZ 10085d2c f   qt-mt323:qt-mt323.dll
 0002:00057d32       ??0QChar@@QAE@D@Z          10085d32 f   qt-mt323:qt-mt323.dll
 0002:00057d38       ?isNumber@QChar@@QBE_NXZ   10085d38 f   qt-mt323:qt-mt323.dll
 0002:00057d3e       ?truncate@QString@@QAEXI@Z 10085d3e f   qt-mt323:qt-mt323.dll
 0002:00057d44       ?arg@QString@@QBE?AV1@NHDH@Z 10085d44 f   qt-mt323:qt-mt323.dll
 0002:00057d4a       ?right@QString@@QBE?AV1@I@Z 10085d4a f   qt-mt323:qt-mt323.dll
 0002:00057d50       ?rightJustify@QString@@QBE?AV1@IVQChar@@_N@Z 10085d50 f   qt-mt323:qt-mt323.dll
 0002:00057d56       ?lower@QString@@QBE?AV1@XZ 10085d56 f   qt-mt323:qt-mt323.dll
 0002:00057d5c       ?upper@QString@@QBE?AV1@XZ 10085d5c f   qt-mt323:qt-mt323.dll
 0002:00057d62       ?remove@QString@@QAEAAV1@II@Z 10085d62 f   qt-mt323:qt-mt323.dll
 0002:00057d68       ?toInt@QString@@QBEHPA_NH@Z 10085d68 f   qt-mt323:qt-mt323.dll
 0002:00057d6e       ?at@QString@@QAE?AVQCharRef@@I@Z 10085d6e f   qt-mt323:qt-mt323.dll
 0002:00057d74       ?ref@QString@@QAEAAVQChar@@I@Z 10085d74 f   qt-mt323:qt-mt323.dll
 0002:00057d7a       ?startsWith@QString@@QBE_NABV1@@Z 10085d7a f   qt-mt323:qt-mt323.dll
 0002:00057d80       ??9@YA_NABVQString@@PBD@Z  10085d80 f   qt-mt323:qt-mt323.dll
 0002:00057d86       ??0QPoint@@QAE@HH@Z        10085d86 f   qt-mt323:qt-mt323.dll
 0002:00057d8c       ?x@QPoint@@QBEHXZ          10085d8c f   qt-mt323:qt-mt323.dll
 0002:00057d92       ?y@QPoint@@QBEHXZ          10085d92 f   qt-mt323:qt-mt323.dll
 0002:00057d98       ??0QRect@@QAE@XZ           10085d98 f   qt-mt323:qt-mt323.dll
 0002:00057d9e       ??0QRect@@QAE@HHHH@Z       10085d9e f   qt-mt323:qt-mt323.dll
 0002:00057da4       ?isNull@QRect@@QBE_NXZ     10085da4 f   qt-mt323:qt-mt323.dll
 0002:00057daa       ?center@QRect@@QBE?AVQPoint@@XZ 10085daa f   qt-mt323:qt-mt323.dll
 0002:00057db0       ?moveBy@QRect@@QAEXHH@Z    10085db0 f   qt-mt323:qt-mt323.dll
 0002:00057db6       ?contains@QRect@@QBE_NABV1@_N@Z 10085db6 f   qt-mt323:qt-mt323.dll
 0002:00057dbc       ?unite@QRect@@QBE?AV1@ABV1@@Z 10085dbc f   qt-mt323:qt-mt323.dll
 0002:00057dc2       ??A?$QValueList@VQString@@@@QAEAAVQString@@I@Z 10085dc2 f   qt-mt323:qt-mt323.dll
 0002:00057dc8       ?count@?$QValueList@VQString@@@@QBEIXZ 10085dc8 f   qt-mt323:qt-mt323.dll
 0002:00057dce       ?split@QStringList@@SA?AV1@ABVQString@@0_N@Z 10085dce f   qt-mt323:qt-mt323.dll
 0002:00057dd4       ??1QStringList@@QAE@XZ     10085dd4 f   qt-mt323:qt-mt323.dll
 0002:00057dda       ??0QColor@@QAE@ABVQString@@@Z 10085dda f   qt-mt323:qt-mt323.dll
 0002:00057de0       ??0QPixmap@@QAE@ABVQString@@PBDW4ColorMode@0@@Z 10085de0 f   qt-mt323:qt-mt323.dll
 0002:00057de6       ??1QPixmap@@UAE@XZ         10085de6 f   qt-mt323:qt-mt323.dll
 0002:00057dec       ?child@QObject@@QAEPAV1@PBD0_N@Z 10085dec f   qt-mt323:qt-mt323.dll
 0002:00057df2       ??0QFile@@QAE@ABVQString@@@Z 10085df2 f   qt-mt323:qt-mt323.dll
 0002:00057df8       ??1QFile@@UAE@XZ           10085df8 f   qt-mt323:qt-mt323.dll
 0002:00057dfe       ?open@QFile@@UAE_NH@Z      10085dfe f   qt-mt323:qt-mt323.dll
 0002:00057e04       ?setStyle@QWidget@@QAEXPAVQStyle@@@Z 10085e04 f   qt-mt323:qt-mt323.dll
 0002:00057e0a       ?geometry@QWidget@@QBEABVQRect@@XZ 10085e0a f   qt-mt323:qt-mt323.dll
 0002:00057e10       ?pos@QWidget@@QBE?AVQPoint@@XZ 10085e10 f   qt-mt323:qt-mt323.dll
 0002:00057e16       ?width@QWidget@@QBEHXZ     10085e16 f   qt-mt323:qt-mt323.dll
 0002:00057e1c       ?height@QWidget@@QBEHXZ    10085e1c f   qt-mt323:qt-mt323.dll
 0002:00057e22       ?mapFromGlobal@QWidget@@QBE?AVQPoint@@ABV2@@Z 10085e22 f   qt-mt323:qt-mt323.dll
 0002:00057e28       ??4QDomNode@@QAEAAV0@ABV0@@Z 10085e28 f   qt-mt323:qt-mt323.dll
 0002:00057e2e       ??1QDomNode@@UAE@XZ        10085e2e f   qt-mt323:qt-mt323.dll
 0002:00057e34       ?firstChild@QDomNode@@UBE?AV1@XZ 10085e34 f   qt-mt323:qt-mt323.dll
 0002:00057e3a       ?nextSibling@QDomNode@@UBE?AV1@XZ 10085e3a f   qt-mt323:qt-mt323.dll
 0002:00057e40       ?isNull@QDomNode@@QBE_NXZ  10085e40 f   qt-mt323:qt-mt323.dll
 0002:00057e46       ?toElement@QDomNode@@QAE?AVQDomElement@@XZ 10085e46 f   qt-mt323:qt-mt323.dll
 0002:00057e4c       ??0QDomDocument@@QAE@ABVQString@@@Z 10085e4c f   qt-mt323:qt-mt323.dll
 0002:00057e52       ??1QDomDocument@@UAE@XZ    10085e52 f   qt-mt323:qt-mt323.dll
 0002:00057e58       ?documentElement@QDomDocument@@QBE?AVQDomElement@@XZ 10085e58 f   qt-mt323:qt-mt323.dll
 0002:00057e5e       ?setContent@QDomDocument@@QAE_NPAVQIODevice@@_NPAVQString@@PAH3@Z 10085e5e f   qt-mt323:qt-mt323.dll
 0002:00057e64       ??1QDomElement@@UAE@XZ     10085e64 f   qt-mt323:qt-mt323.dll
 0002:00057e6a       ?attribute@QDomElement@@QBE?AVQString@@ABV2@0@Z 10085e6a f   qt-mt323:qt-mt323.dll
 0002:00057e70       ?setAttribute@QDomElement@@QAEXABVQString@@0@Z 10085e70 f   qt-mt323:qt-mt323.dll
 0002:00057e76       ?tagName@QDomElement@@QBE?AVQString@@XZ 10085e76 f   qt-mt323:qt-mt323.dll
 0002:00057e7c       ?absFilePath@QFileInfo@@QBE?AVQString@@XZ 10085e7c f   qt-mt323:qt-mt323.dll
 0002:00057e82       ?extension@QFileInfo@@QBE?AVQString@@_N@Z 10085e82 f   qt-mt323:qt-mt323.dll
 0002:00057e88       ??0QGCache@@IAE@HIW4KeyType@0@_N1@Z 10085e88 f   qt-mt323:qt-mt323.dll
 0002:00057e8e       ??1QGCache@@MAE@XZ         10085e8e f   qt-mt323:qt-mt323.dll
 0002:00057e94       ?count@QGCache@@MBEIXZ     10085e94 f   qt-mt323:qt-mt323.dll
 0002:00057e9a       ?clear@QGCache@@MAEXXZ     10085e9a f   qt-mt323:qt-mt323.dll
 0002:00057ea0       ?insert_string@QGCache@@IAE_NABVQString@@PAXHH@Z 10085ea0 f   qt-mt323:qt-mt323.dll
 0002:00057ea6       ?find_string@QGCache@@IBEPAXABVQString@@_N@Z 10085ea6 f   qt-mt323:qt-mt323.dll
 0002:00057eac       ?appendChild@QDomNode@@UAE?AV1@ABV1@@Z 10085eac f   qt-mt323:qt-mt323.dll
 0002:00057eb2       ?attributes@QDomNode@@UBE?AVQDomNamedNodeMap@@XZ 10085eb2 f   qt-mt323:qt-mt323.dll
 0002:00057eb8       ?childNodes@QDomNode@@UBE?AVQDomNodeList@@XZ 10085eb8 f   qt-mt323:qt-mt323.dll
 0002:00057ebe       ?cloneNode@QDomNode@@UBE?AV1@_N@Z 10085ebe f   qt-mt323:qt-mt323.dll
 0002:00057ec4       ?hasAttributes@QDomNode@@UBE_NXZ 10085ec4 f   qt-mt323:qt-mt323.dll
 0002:00057eca       ?hasChildNodes@QDomNode@@UBE_NXZ 10085eca f   qt-mt323:qt-mt323.dll
 0002:00057ed0       ?insertAfter@QDomNode@@UAE?AV1@ABV1@0@Z 10085ed0 f   qt-mt323:qt-mt323.dll
 0002:00057ed6       ?insertBefore@QDomNode@@UAE?AV1@ABV1@0@Z 10085ed6 f   qt-mt323:qt-mt323.dll
 0002:00057edc       ?isAttr@QDomNode@@UBE_NXZ  10085edc f   qt-mt323:qt-mt323.dll
 0002:00057ee2       ?isCDATASection@QDomNode@@UBE_NXZ 10085ee2 f   qt-mt323:qt-mt323.dll
 0002:00057ee8       ?isCharacterData@QDomNode@@UBE_NXZ 10085ee8 f   qt-mt323:qt-mt323.dll
 0002:00057eee       ?isComment@QDomNode@@UBE_NXZ 10085eee f   qt-mt323:qt-mt323.dll
 0002:00057ef4       ?isDocument@QDomDocument@@UBE_NXZ 10085ef4 f   qt-mt323:qt-mt323.dll
 0002:00057efa       ?isDocumentFragment@QDomNode@@UBE_NXZ 10085efa f   qt-mt323:qt-mt323.dll
 0002:00057f00       ?isDocumentType@QDomNode@@UBE_NXZ 10085f00 f   qt-mt323:qt-mt323.dll
 0002:00057f06       ?isElement@QDomNode@@UBE_NXZ 10085f06 f   qt-mt323:qt-mt323.dll
 0002:00057f0c       ?isEntity@QDomNode@@UBE_NXZ 10085f0c f   qt-mt323:qt-mt323.dll
 0002:00057f12       ?isEntityReference@QDomNode@@UBE_NXZ 10085f12 f   qt-mt323:qt-mt323.dll
 0002:00057f18       ?isNotation@QDomNode@@UBE_NXZ 10085f18 f   qt-mt323:qt-mt323.dll
 0002:00057f1e       ?isProcessingInstruction@QDomNode@@UBE_NXZ 10085f1e f   qt-mt323:qt-mt323.dll
 0002:00057f24       ?isSupported@QDomNode@@UBE_NABVQString@@0@Z 10085f24 f   qt-mt323:qt-mt323.dll
 0002:00057f2a       ?isText@QDomNode@@UBE_NXZ  10085f2a f   qt-mt323:qt-mt323.dll
 0002:00057f30       ?lastChild@QDomNode@@UBE?AV1@XZ 10085f30 f   qt-mt323:qt-mt323.dll
 0002:00057f36       ?localName@QDomNode@@UBE?AVQString@@XZ 10085f36 f   qt-mt323:qt-mt323.dll
 0002:00057f3c       ?namespaceURI@QDomNode@@UBE?AVQString@@XZ 10085f3c f   qt-mt323:qt-mt323.dll
 0002:00057f42       ?nodeName@QDomNode@@UBE?AVQString@@XZ 10085f42 f   qt-mt323:qt-mt323.dll
 0002:00057f48       ?nodeType@QDomDocument@@UBE?AW4NodeType@QDomNode@@XZ 10085f48 f   qt-mt323:qt-mt323.dll
 0002:00057f4e       ?nodeValue@QDomNode@@UBE?AVQString@@XZ 10085f4e f   qt-mt323:qt-mt323.dll
 0002:00057f54       ?normalize@QDomNode@@UAEXXZ 10085f54 f   qt-mt323:qt-mt323.dll
 0002:00057f5a       ?ownerDocument@QDomNode@@UBE?AVQDomDocument@@XZ 10085f5a f   qt-mt323:qt-mt323.dll
 0002:00057f60       ?parentNode@QDomNode@@UBE?AV1@XZ 10085f60 f   qt-mt323:qt-mt323.dll
 0002:00057f66       ?prefix@QDomNode@@UBE?AVQString@@XZ 10085f66 f   qt-mt323:qt-mt323.dll
 0002:00057f6c       ?previousSibling@QDomNode@@UBE?AV1@XZ 10085f6c f   qt-mt323:qt-mt323.dll
 0002:00057f72       ?removeChild@QDomNode@@UAE?AV1@ABV1@@Z 10085f72 f   qt-mt323:qt-mt323.dll
 0002:00057f78       ?replaceChild@QDomNode@@UAE?AV1@ABV1@0@Z 10085f78 f   qt-mt323:qt-mt323.dll
 0002:00057f7e       ?setNodeValue@QDomNode@@UAEXABVQString@@@Z 10085f7e f   qt-mt323:qt-mt323.dll
 0002:00057f84       ?setPrefix@QDomNode@@UAEXABVQString@@@Z 10085f84 f   qt-mt323:qt-mt323.dll
 0002:00057f8a       ?find@QString@@QBEHPBDH@Z  10085f8a f   qt-mt323:qt-mt323.dll
 0002:00057f90       ?mid@QString@@QBE?AV1@II@Z 10085f90 f   qt-mt323:qt-mt323.dll
 0002:00057f96       ?insert@QString@@QAEAAV1@IPBD@Z 10085f96 f   qt-mt323:qt-mt323.dll
 0002:00057f9c       ?replace@QString@@QAEAAV1@IIABV1@@Z 10085f9c f   qt-mt323:qt-mt323.dll
 0002:00057fa2       ??8@YA_NABVQString@@0@Z    10085fa2 f   qt-mt323:qt-mt323.dll
 0002:00057fa8       ?begin@?$QPtrList@VQWidget@@@@QBE?AV?$QPtrListStdIterator@VQWidget@@@@XZ 10085fa8 f   qt-mt323:qt-mt323.dll
 0002:00057fae       ?end@?$QPtrList@VQWidget@@@@QBE?AV?$QPtrListStdIterator@VQWidget@@@@XZ 10085fae f   qt-mt323:qt-mt323.dll
 0002:00057fb4       ?search@QRegExp@@QBEHABVQString@@H@Z 10085fb4 f   qt-mt323:qt-mt323.dll
 0002:00057fba       ?matchedLength@QRegExp@@QBEHXZ 10085fba f   qt-mt323:qt-mt323.dll
 0002:00057fc0       ??0QSize@@QAE@HH@Z         10085fc0 f   qt-mt323:qt-mt323.dll
 0002:00057fc6       ?expandedTo@QSize@@QBE?AV1@ABV1@@Z 10085fc6 f   qt-mt323:qt-mt323.dll
 0002:00057fcc       ??1QFont@@QAE@XZ           10085fcc f   qt-mt323:qt-mt323.dll
 0002:00057fd2       ?setFamily@QFont@@QAEXABVQString@@@Z 10085fd2 f   qt-mt323:qt-mt323.dll
 0002:00057fd8       ?setPointSize@QFont@@QAEXH@Z 10085fd8 f   qt-mt323:qt-mt323.dll
 0002:00057fde       ?clearWState@QWidget@@IAEXI@Z 10085fde f   qt-mt323:qt-mt323.dll
 0002:00057fe4       ??0QDialog@@QAE@PAVQWidget@@PBD_NI@Z 10085fe4 f   qt-mt323:qt-mt323.dll
 0002:00057fea       ??1QDialog@@UAE@XZ         10085fea f   qt-mt323:qt-mt323.dll
 0002:00057ff0       ?resize@QDialog@@QAEXABVQSize@@@Z 10085ff0 f   qt-mt323:qt-mt323.dll
 0002:00057ff6       ?setSizeGripEnabled@QDialog@@QAEX_N@Z 10085ff6 f   qt-mt323:qt-mt323.dll
 0002:00057ffc       ??0QTextEdit@@QAE@PAVQWidget@@PBD@Z 10085ffc f   qt-mt323:qt-mt323.dll
 0002:00058002       ??1QTextEdit@@UAE@XZ       10086002 f   qt-mt323:qt-mt323.dll
 0002:00058008       ?font@QTextEdit@@QBE?AVQFont@@XZ 10086008 f   qt-mt323:qt-mt323.dll
 0002:0005800e       ??0QCheckBox@@QAE@PAVQWidget@@PBD@Z 1008600e f   qt-mt323:qt-mt323.dll
 0002:00058014       ?setChecked@QCheckBox@@QAEX_N@Z 10086014 f   qt-mt323:qt-mt323.dll
 0002:0005801a       ??1QCheckBox@@UAE@XZ       1008601a f   qt-mt323:qt-mt323.dll
 0002:00058020       ??0QPushButton@@QAE@PAVQWidget@@PBD@Z 10086020 f   qt-mt323:qt-mt323.dll
 0002:00058026       ??1QPushButton@@UAE@XZ     10086026 f   qt-mt323:qt-mt323.dll
 0002:0005802c       ??0QSpacerItem@@QAE@HHW4SizeType@QSizePolicy@@0@Z 1008602c f   qt-mt323:qt-mt323.dll
 0002:00058032       ??1QSpacerItem@@UAE@XZ     10086032 f   qt-mt323:qt-mt323.dll
 0002:00058038       ?addWidget@QBoxLayout@@QAEXPAVQWidget@@HH@Z 10086038 f   qt-mt323:qt-mt323.dll
 0002:0005803e       ?addLayout@QBoxLayout@@QAEXPAVQLayout@@H@Z 1008603e f   qt-mt323:qt-mt323.dll
 0002:00058044       ??0QHBoxLayout@@QAE@PAVQWidget@@HHPBD@Z 10086044 f   qt-mt323:qt-mt323.dll
 0002:0005804a       ??1QHBoxLayout@@UAE@XZ     1008604a f   qt-mt323:qt-mt323.dll
 0002:00058050       ??0QVBoxLayout@@QAE@PAVQWidget@@HHPBD@Z 10086050 f   qt-mt323:qt-mt323.dll
 0002:00058056       ??1QVBoxLayout@@UAE@XZ     10086056 f   qt-mt323:qt-mt323.dll
 0002:0005805c       ?addChild@QScrollView@@UAEXPAVQWidget@@HH@Z 1008605c f   qt-mt323:qt-mt323.dll
 0002:00058062       ?addItem@QBoxLayout@@UAEXPAVQLayoutItem@@@Z 10086062 f   qt-mt323:qt-mt323.dll
 0002:00058068       ?append@QTextEdit@@UAEXABVQString@@@Z 10086068 f   qt-mt323:qt-mt323.dll
 0002:0005806e       ?childEvent@QLayout@@MAEXPAVQChildEvent@@@Z 1008606e f   qt-mt323:qt-mt323.dll
 0002:00058074       ?className@QCheckBox@@UBEPBDXZ 10086074 f   qt-mt323:qt-mt323.dll
 0002:0005807a       ?className@QHBoxLayout@@UBEPBDXZ 1008607a f   qt-mt323:qt-mt323.dll
 0002:00058080       ?className@QPushButton@@UBEPBDXZ 10086080 f   qt-mt323:qt-mt323.dll
 0002:00058086       ?className@QTextEdit@@UBEPBDXZ 10086086 f   qt-mt323:qt-mt323.dll
 0002:0005808c       ?className@QVBoxLayout@@UBEPBDXZ 1008608c f   qt-mt323:qt-mt323.dll
 0002:00058092       ?clear@QTextEdit@@UAEXXZ   10086092 f   qt-mt323:qt-mt323.dll
 0002:00058098       ?clearParagraphBackground@QTextEdit@@UAEXH@Z 10086098 f   qt-mt323:qt-mt323.dll
 0002:0005809e       ?contentsContextMenuEvent@QTextEdit@@MAEXPAVQContextMenuEvent@@@Z 1008609e f   qt-mt323:qt-mt323.dll
 0002:000580a4       ?contentsDragEnterEvent@QTextEdit@@MAEXPAVQDragEnterEvent@@@Z 100860a4 f   qt-mt323:qt-mt323.dll
 0002:000580aa       ?contentsDragLeaveEvent@QTextEdit@@MAEXPAVQDragLeaveEvent@@@Z 100860aa f   qt-mt323:qt-mt323.dll
 0002:000580b0       ?contentsDragMoveEvent@QTextEdit@@MAEXPAVQDragMoveEvent@@@Z 100860b0 f   qt-mt323:qt-mt323.dll
 0002:000580b6       ?contentsDropEvent@QTextEdit@@MAEXPAVQDropEvent@@@Z 100860b6 f   qt-mt323:qt-mt323.dll
 0002:000580bc       ?contentsMouseDoubleClickEvent@QTextEdit@@MAEXPAVQMouseEvent@@@Z 100860bc f   qt-mt323:qt-mt323.dll
 0002:000580c2       ?contentsMouseMoveEvent@QTextEdit@@MAEXPAVQMouseEvent@@@Z 100860c2 f   qt-mt323:qt-mt323.dll
 0002:000580c8       ?contentsMousePressEvent@QTextEdit@@MAEXPAVQMouseEvent@@@Z 100860c8 f   qt-mt323:qt-mt323.dll
 0002:000580ce       ?contentsMouseReleaseEvent@QTextEdit@@MAEXPAVQMouseEvent@@@Z 100860ce f   qt-mt323:qt-mt323.dll
 0002:000580d4       ?contentsWheelEvent@QTextEdit@@MAEXPAVQWheelEvent@@@Z 100860d4 f   qt-mt323:qt-mt323.dll
 0002:000580da       ?contextMenuEvent@QScrollView@@MAEXPAVQContextMenuEvent@@@Z 100860da f   qt-mt323:qt-mt323.dll
 0002:000580e0       ?copy@QTextEdit@@UAEXXZ    100860e0 f   qt-mt323:qt-mt323.dll
 0002:000580e6       ?createPopupMenu@QTextEdit@@MAEPAVQPopupMenu@@ABVQPoint@@@Z 100860e6 f   qt-mt323:qt-mt323.dll
 0002:000580ec       ?createPopupMenu@QTextEdit@@MAEPAVQPopupMenu@@XZ 100860ec f   qt-mt323:qt-mt323.dll
 0002:000580f2       ?cut@QTextEdit@@UAEXXZ     100860f2 f   qt-mt323:qt-mt323.dll
 0002:000580f8       ?del@QTextEdit@@UAEXXZ     100860f8 f   qt-mt323:qt-mt323.dll
 0002:000580fe       ?doChangeInterval@QTextEdit@@MAEXXZ 100860fe f   qt-mt323:qt-mt323.dll
 0002:00058104       ?doKeyboardAction@QTextEdit@@UAEXW4KeyboardAction@1@@Z 10086104 f   qt-mt323:qt-mt323.dll
 0002:0005810a       ?drawButton@QCheckBox@@MAEXPAVQPainter@@@Z 1008610a f   qt-mt323:qt-mt323.dll
 0002:00058110       ?drawButton@QPushButton@@MAEXPAVQPainter@@@Z 10086110 f   qt-mt323:qt-mt323.dll
 0002:00058116       ?drawButtonLabel@QCheckBox@@MAEXPAVQPainter@@@Z 10086116 f   qt-mt323:qt-mt323.dll
 0002:0005811c       ?drawButtonLabel@QPushButton@@MAEXPAVQPainter@@@Z 1008611c f   qt-mt323:qt-mt323.dll
 0002:00058122       ?drawContents@QTextEdit@@EAEXPAVQPainter@@@Z 10086122 f   qt-mt323:qt-mt323.dll
 0002:00058128       ?drawContents@QTextEdit@@MAEXPAVQPainter@@HHHH@Z 10086128 f   qt-mt323:qt-mt323.dll
 0002:0005812e       ?drawContentsOffset@QScrollView@@MAEXPAVQPainter@@HHHHHH@Z 1008612e f   qt-mt323:qt-mt323.dll
 0002:00058134       ?drawFrame@QFrame@@MAEXPAVQPainter@@@Z 10086134 f   qt-mt323:qt-mt323.dll
 0002:0005813a       ?emitHighlighted@QTextEdit@@EAEXABVQString@@@Z 1008613a f   qt-mt323:qt-mt323.dll
 0002:00058140       ?emitLinkClicked@QTextEdit@@EAEXABVQString@@@Z 10086140 f   qt-mt323:qt-mt323.dll
 0002:00058146       ?enabledChange@QButton@@MAEX_N@Z 10086146 f   qt-mt323:qt-mt323.dll
 0002:0005814c       ?ensureCursorVisible@QTextEdit@@UAEXXZ 1008614c f   qt-mt323:qt-mt323.dll
 0002:00058152       ?event@QObject@@UAE_NPAVQEvent@@@Z 10086152 f   qt-mt323:qt-mt323.dll
 0002:00058158       ?event@QTextEdit@@MAE_NPAVQEvent@@@Z 10086158 f   qt-mt323:qt-mt323.dll
 0002:0005815e       ?eventFilter@QLayout@@MAE_NPAVQObject@@PAVQEvent@@@Z 1008615e f   qt-mt323:qt-mt323.dll
 0002:00058164       ?eventFilter@QTextEdit@@UAE_NPAVQObject@@PAVQEvent@@@Z 10086164 f   qt-mt323:qt-mt323.dll
 0002:0005816a       ?expanding@QBoxLayout@@UBE?AW4ExpandData@QSizePolicy@@XZ 1008616a f   qt-mt323:qt-mt323.dll
 0002:00058170       ?expanding@QSpacerItem@@UBE?AW4ExpandData@QSizePolicy@@XZ 10086170 f   qt-mt323:qt-mt323.dll
 0002:00058176       ?find@QTextEdit@@UAE_NABVQString@@_N11PAH2@Z 10086176 f   qt-mt323:qt-mt323.dll
 0002:0005817c       ?focusInEvent@QButton@@MAEXPAVQFocusEvent@@@Z 1008617c f   qt-mt323:qt-mt323.dll
 0002:00058182       ?focusInEvent@QPushButton@@MAEXPAVQFocusEvent@@@Z 10086182 f   qt-mt323:qt-mt323.dll
 0002:00058188       ?focusNextPrevChild@QTextEdit@@MAE_N_N@Z 10086188 f   qt-mt323:qt-mt323.dll
 0002:0005818e       ?focusOutEvent@QButton@@MAEXPAVQFocusEvent@@@Z 1008618e f   qt-mt323:qt-mt323.dll
 0002:00058194       ?focusOutEvent@QPushButton@@MAEXPAVQFocusEvent@@@Z 10086194 f   qt-mt323:qt-mt323.dll
 0002:0005819a       ?fontChange@QScrollView@@MAEXABVQFont@@@Z 1008619a f   qt-mt323:qt-mt323.dll
 0002:000581a0       ?frameChanged@QScrollView@@MAEXXZ 100861a0 f   qt-mt323:qt-mt323.dll
 0002:000581a6       ?geometry@QLayout@@UBE?AVQRect@@XZ 100861a6 f   qt-mt323:qt-mt323.dll
 0002:000581ac       ?geometry@QSpacerItem@@UBE?AVQRect@@XZ 100861ac f   qt-mt323:qt-mt323.dll
 0002:000581b2       ?getFormat@QTextEdit@@UAE_NHHPAVQFont@@PAVQColor@@PAW4VerticalAlignment@1@@Z 100861b2 f   qt-mt323:qt-mt323.dll
 0002:000581b8       ?getParagraphFormat@QTextEdit@@UAE_NHPAVQFont@@PAVQColor@@PAW4VerticalAlignment@1@PAHPAW4DisplayMode@QStyleSheetItem@@PAW4ListStyle@6@3@Z 100861b8 f   qt-mt323:qt-mt323.dll
 0002:000581be       ?hasHeightForWidth@QBoxLayout@@UBE_NXZ 100861be f   qt-mt323:qt-mt323.dll
 0002:000581c4       ?hasHeightForWidth@QLayoutItem@@UBE_NXZ 100861c4 f   qt-mt323:qt-mt323.dll
 0002:000581ca       ?heightForWidth@QBoxLayout@@UBEHH@Z 100861ca f   qt-mt323:qt-mt323.dll
 0002:000581d0       ?heightForWidth@QLayoutItem@@UBEHH@Z 100861d0 f   qt-mt323:qt-mt323.dll
 0002:000581d6       ?heightForWidth@QTextEdit@@UBEHH@Z 100861d6 f   qt-mt323:qt-mt323.dll
 0002:000581dc       ?hitButton@QButton@@MBE_NABVQPoint@@@Z 100861dc f   qt-mt323:qt-mt323.dll
 0002:000581e2       ?hitButton@QCheckBox@@MBE_NABVQPoint@@@Z 100861e2 f   qt-mt323:qt-mt323.dll
 0002:000581e8       ?imComposeEvent@QTextEdit@@MAEXPAVQIMEvent@@@Z 100861e8 f   qt-mt323:qt-mt323.dll
 0002:000581ee       ?imEndEvent@QTextEdit@@MAEXPAVQIMEvent@@@Z 100861ee f   qt-mt323:qt-mt323.dll
 0002:000581f4       ?imStartEvent@QTextEdit@@MAEXPAVQIMEvent@@@Z 100861f4 f   qt-mt323:qt-mt323.dll
 0002:000581fa       ?indent@QTextEdit@@UAEXXZ  100861fa f   qt-mt323:qt-mt323.dll
 0002:00058200       ?insert@QTextEdit@@UAEXABVQString@@_N11@Z 10086200 f   qt-mt323:qt-mt323.dll
 0002:00058206       ?insertAt@QTextEdit@@UAEXABVQString@@HH@Z 10086206 f   qt-mt323:qt-mt323.dll
 0002:0005820c       ?insertParagraph@QTextEdit@@UAEXABVQString@@H@Z 1008620c f   qt-mt323:qt-mt323.dll
 0002:00058212       ?invalidate@QBoxLayout@@UAEXXZ 10086212 f   qt-mt323:qt-mt323.dll
 0002:00058218       ?invalidate@QLayoutItem@@UAEXXZ 10086218 f   qt-mt323:qt-mt323.dll
 0002:0005821e       ?isEmpty@QLayout@@UBE_NXZ  1008621e f   qt-mt323:qt-mt323.dll
 0002:00058224       ?isEmpty@QSpacerItem@@UBE_NXZ 10086224 f   qt-mt323:qt-mt323.dll
 0002:0005822a       ?iterator@QBoxLayout@@UAE?AVQLayoutIterator@@XZ 1008622a f   qt-mt323:qt-mt323.dll
 0002:00058230       ?iterator@QLayoutItem@@UAE?AVQLayoutIterator@@XZ 10086230 f   qt-mt323:qt-mt323.dll
 0002:00058236       ?keyPressEvent@QButton@@MAEXPAVQKeyEvent@@@Z 10086236 f   qt-mt323:qt-mt323.dll
 0002:0005823c       ?keyPressEvent@QTextEdit@@MAEXPAVQKeyEvent@@@Z 1008623c f   qt-mt323:qt-mt323.dll
 0002:00058242       ?keyReleaseEvent@QButton@@MAEXPAVQKeyEvent@@@Z 10086242 f   qt-mt323:qt-mt323.dll
 0002:00058248       ?layout@QLayout@@UAEPAV1@XZ 10086248 f   qt-mt323:qt-mt323.dll
 0002:0005824e       ?layout@QLayoutItem@@UAEPAVQLayout@@XZ 1008624e f   qt-mt323:qt-mt323.dll
 0002:00058254       ?linksEnabled@QTextEdit@@EBE_NXZ 10086254 f   qt-mt323:qt-mt323.dll
 0002:0005825a       ?maximumSize@QBoxLayout@@UBE?AVQSize@@XZ 1008625a f   qt-mt323:qt-mt323.dll
 0002:00058260       ?maximumSize@QSpacerItem@@UBE?AVQSize@@XZ 10086260 f   qt-mt323:qt-mt323.dll
 0002:00058266       ?metaObject@QCheckBox@@UBEPAVQMetaObject@@XZ 10086266 f   qt-mt323:qt-mt323.dll
 0002:0005826c       ?metaObject@QHBoxLayout@@UBEPAVQMetaObject@@XZ 1008626c f   qt-mt323:qt-mt323.dll
 0002:00058272       ?metaObject@QPushButton@@UBEPAVQMetaObject@@XZ 10086272 f   qt-mt323:qt-mt323.dll
 0002:00058278       ?metaObject@QTextEdit@@UBEPAVQMetaObject@@XZ 10086278 f   qt-mt323:qt-mt323.dll
 0002:0005827e       ?metaObject@QVBoxLayout@@UBEPAVQMetaObject@@XZ 1008627e f   qt-mt323:qt-mt323.dll
 0002:00058284       ?minimumSize@QBoxLayout@@UBE?AVQSize@@XZ 10086284 f   qt-mt323:qt-mt323.dll
 0002:0005828a       ?minimumSize@QSpacerItem@@UBE?AVQSize@@XZ 1008628a f   qt-mt323:qt-mt323.dll
 0002:00058290       ?minimumSizeHint@QScrollView@@UBE?AVQSize@@XZ 10086290 f   qt-mt323:qt-mt323.dll
 0002:00058296       ?mouseDoubleClickEvent@QScrollView@@MAEXPAVQMouseEvent@@@Z 10086296 f   qt-mt323:qt-mt323.dll
 0002:0005829c       ?mouseMoveEvent@QButton@@MAEXPAVQMouseEvent@@@Z 1008629c f   qt-mt323:qt-mt323.dll
 0002:000582a2       ?mouseMoveEvent@QScrollView@@MAEXPAVQMouseEvent@@@Z 100862a2 f   qt-mt323:qt-mt323.dll
 0002:000582a8       ?mousePressEvent@QButton@@MAEXPAVQMouseEvent@@@Z 100862a8 f   qt-mt323:qt-mt323.dll
 0002:000582ae       ?mousePressEvent@QScrollView@@MAEXPAVQMouseEvent@@@Z 100862ae f   qt-mt323:qt-mt323.dll
 0002:000582b4       ?mouseReleaseEvent@QButton@@MAEXPAVQMouseEvent@@@Z 100862b4 f   qt-mt323:qt-mt323.dll
 0002:000582ba       ?mouseReleaseEvent@QScrollView@@MAEXPAVQMouseEvent@@@Z 100862ba f   qt-mt323:qt-mt323.dll
 0002:000582c0       ?move@QPushButton@@UAEXHH@Z 100862c0 f   qt-mt323:qt-mt323.dll
 0002:000582c6       ?moveChild@QScrollView@@UAEXPAVQWidget@@HH@Z 100862c6 f   qt-mt323:qt-mt323.dll
 0002:000582cc       ?moveCursor@QTextEdit@@UAEXW4CursorAction@1@_N@Z 100862cc f   qt-mt323:qt-mt323.dll
 0002:000582d2       ?paintEvent@QButton@@MAEXPAVQPaintEvent@@@Z 100862d2 f   qt-mt323:qt-mt323.dll
 0002:000582d8       ?paintEvent@QFrame@@MAEXPAVQPaintEvent@@@Z 100862d8 f   qt-mt323:qt-mt323.dll
 0002:000582de       ?paste@QTextEdit@@UAEXXZ   100862de f   qt-mt323:qt-mt323.dll
 0002:000582e4       ?pasteSubType@QTextEdit@@UAEXABVQCString@@@Z 100862e4 f   qt-mt323:qt-mt323.dll
 0002:000582ea       ?placeCursor@QTextEdit@@UAEXABVQPoint@@PAVQTextCursor@@@Z 100862ea f   qt-mt323:qt-mt323.dll
 0002:000582f0       ?polish@QTextEdit@@UAEXXZ  100862f0 f   qt-mt323:qt-mt323.dll
 0002:000582f6       ?qt_cast@QCheckBox@@UAEPAXPBD@Z 100862f6 f   qt-mt323:qt-mt323.dll
 0002:000582fc       ?qt_cast@QHBoxLayout@@UAEPAXPBD@Z 100862fc f   qt-mt323:qt-mt323.dll
 0002:00058302       ?qt_cast@QPushButton@@UAEPAXPBD@Z 10086302 f   qt-mt323:qt-mt323.dll
 0002:00058308       ?qt_cast@QTextEdit@@UAEPAXPBD@Z 10086308 f   qt-mt323:qt-mt323.dll
 0002:0005830e       ?qt_cast@QVBoxLayout@@UAEPAXPBD@Z 1008630e f   qt-mt323:qt-mt323.dll
 0002:00058314       ?qt_emit@QCheckBox@@UAE_NHPAUQUObject@@@Z 10086314 f   qt-mt323:qt-mt323.dll
 0002:0005831a       ?qt_emit@QHBoxLayout@@UAE_NHPAUQUObject@@@Z 1008631a f   qt-mt323:qt-mt323.dll
 0002:00058320       ?qt_emit@QPushButton@@UAE_NHPAUQUObject@@@Z 10086320 f   qt-mt323:qt-mt323.dll
 0002:00058326       ?qt_emit@QTextEdit@@UAE_NHPAUQUObject@@@Z 10086326 f   qt-mt323:qt-mt323.dll
 0002:0005832c       ?qt_emit@QVBoxLayout@@UAE_NHPAUQUObject@@@Z 1008632c f   qt-mt323:qt-mt323.dll
 0002:00058332       ?qt_invoke@QCheckBox@@UAE_NHPAUQUObject@@@Z 10086332 f   qt-mt323:qt-mt323.dll
 0002:00058338       ?qt_invoke@QHBoxLayout@@UAE_NHPAUQUObject@@@Z 10086338 f   qt-mt323:qt-mt323.dll
 0002:0005833e       ?qt_invoke@QPushButton@@UAE_NHPAUQUObject@@@Z 1008633e f   qt-mt323:qt-mt323.dll
 0002:00058344       ?qt_invoke@QTextEdit@@UAE_NHPAUQUObject@@@Z 10086344 f   qt-mt323:qt-mt323.dll
 0002:0005834a       ?qt_invoke@QVBoxLayout@@UAE_NHPAUQUObject@@@Z 1008634a f   qt-mt323:qt-mt323.dll
 0002:00058350       ?qt_property@QCheckBox@@UAE_NHHPAVQVariant@@@Z 10086350 f   qt-mt323:qt-mt323.dll
 0002:00058356       ?qt_property@QHBoxLayout@@UAE_NHHPAVQVariant@@@Z 10086356 f   qt-mt323:qt-mt323.dll
 0002:0005835c       ?qt_property@QPushButton@@UAE_NHHPAVQVariant@@@Z 1008635c f   qt-mt323:qt-mt323.dll
 0002:00058362       ?qt_property@QTextEdit@@UAE_NHHPAVQVariant@@@Z 10086362 f   qt-mt323:qt-mt323.dll
 0002:00058368       ?qt_property@QVBoxLayout@@UAE_NHHPAVQVariant@@@Z 10086368 f   qt-mt323:qt-mt323.dll
 0002:0005836e       ?redo@QTextEdit@@UAEXXZ    1008636e f   qt-mt323:qt-mt323.dll
 0002:00058374       ?removeChild@QScrollView@@UAEXPAVQObject@@@Z 10086374 f   qt-mt323:qt-mt323.dll
 0002:0005837a       ?removeParagraph@QTextEdit@@UAEXH@Z 1008637a f   qt-mt323:qt-mt323.dll
 0002:00058380       ?removeSelectedText@QTextEdit@@UAEXH@Z 10086380 f   qt-mt323:qt-mt323.dll
 0002:00058386       ?removeSelection@QTextEdit@@UAEXH@Z 10086386 f   qt-mt323:qt-mt323.dll
 0002:0005838c       ?resetFormat@QTextEdit@@UAEXXZ 1008638c f   qt-mt323:qt-mt323.dll
 0002:00058392       ?resize@QPushButton@@UAEXHH@Z 10086392 f   qt-mt323:qt-mt323.dll
 0002:00058398       ?resize@QScrollView@@UAEXHH@Z 10086398 f   qt-mt323:qt-mt323.dll
 0002:0005839e       ?resizeContents@QScrollView@@UAEXHH@Z 1008639e f   qt-mt323:qt-mt323.dll
 0002:000583a4       ?resizeEvent@QCheckBox@@MAEXPAVQResizeEvent@@@Z 100863a4 f   qt-mt323:qt-mt323.dll
 0002:000583aa       ?resizeEvent@QPushButton@@MAEXPAVQResizeEvent@@@Z 100863aa f   qt-mt323:qt-mt323.dll
 0002:000583b0       ?resizeEvent@QTextEdit@@MAEXPAVQResizeEvent@@@Z 100863b0 f   qt-mt323:qt-mt323.dll
 0002:000583b6       ?scrollToAnchor@QTextEdit@@UAEXABVQString@@@Z 100863b6 f   qt-mt323:qt-mt323.dll
 0002:000583bc       ?scrollToBottom@QTextEdit@@UAEXXZ 100863bc f   qt-mt323:qt-mt323.dll
 0002:000583c2       ?selectAll@QTextEdit@@UAEX_N@Z 100863c2 f   qt-mt323:qt-mt323.dll
 0002:000583c8       ?setAccel@QButton@@UAEXABVQKeySequence@@@Z 100863c8 f   qt-mt323:qt-mt323.dll
 0002:000583ce       ?setAlignment@QLayoutItem@@UAEXH@Z 100863ce f   qt-mt323:qt-mt323.dll
 0002:000583d4       ?setAlignment@QTextEdit@@UAEXH@Z 100863d4 f   qt-mt323:qt-mt323.dll
 0002:000583da       ?setAutoAdd@QLayout@@UAEX_N@Z 100863da f   qt-mt323:qt-mt323.dll
 0002:000583e0       ?setAutoDefault@QPushButton@@UAEX_N@Z 100863e0 f   qt-mt323:qt-mt323.dll
 0002:000583e6       ?setAutoRepeat@QButton@@UAEX_N@Z 100863e6 f   qt-mt323:qt-mt323.dll
 0002:000583ec       ?setBold@QTextEdit@@UAEX_N@Z 100863ec f   qt-mt323:qt-mt323.dll
 0002:000583f2       ?setColor@QTextEdit@@UAEXABVQColor@@@Z 100863f2 f   qt-mt323:qt-mt323.dll
 0002:000583f8       ?setContentsPos@QScrollView@@UAEXHH@Z 100863f8 f   qt-mt323:qt-mt323.dll
 0002:000583fe       ?setCornerWidget@QScrollView@@UAEXPAVQWidget@@@Z 100863fe f   qt-mt323:qt-mt323.dll
 0002:00058404       ?setCurrentFont@QTextEdit@@UAEXABVQFont@@@Z 10086404 f   qt-mt323:qt-mt323.dll
 0002:0005840a       ?setCursorPosition@QTextEdit@@UAEXHH@Z 1008640a f   qt-mt323:qt-mt323.dll
 0002:00058410       ?setDefault@QPushButton@@UAEX_N@Z 10086410 f   qt-mt323:qt-mt323.dll
 0002:00058416       ?setDown@QButton@@UAEX_N@Z 10086416 f   qt-mt323:qt-mt323.dll
 0002:0005841c       ?setDragAutoScroll@QScrollView@@UAEX_N@Z 1008641c f   qt-mt323:qt-mt323.dll
 0002:00058422       ?setEnabled@QTextEdit@@UAEX_N@Z 10086422 f   qt-mt323:qt-mt323.dll
 0002:00058428       ?setFamily@QTextEdit@@UAEXABVQString@@@Z 10086428 f   qt-mt323:qt-mt323.dll
 0002:0005842e       ?setFont@QTextEdit@@UAEXABVQFont@@@Z 1008642e f   qt-mt323:qt-mt323.dll
 0002:00058434       ?setFormat@QTextEdit@@UAEXPAVQTextFormat@@H@Z 10086434 f   qt-mt323:qt-mt323.dll
 0002:0005843a       ?setFrameRect@QFrame@@UAEXABVQRect@@@Z 1008643a f   qt-mt323:qt-mt323.dll
 0002:00058440       ?setFrameStyle@QFrame@@UAEXH@Z 10086440 f   qt-mt323:qt-mt323.dll
 0002:00058446       ?setGeometry@QBoxLayout@@UAEXABVQRect@@@Z 10086446 f   qt-mt323:qt-mt323.dll
 0002:0005844c       ?setGeometry@QPushButton@@UAEXABVQRect@@@Z 1008644c f   qt-mt323:qt-mt323.dll
 0002:00058452       ?setGeometry@QPushButton@@UAEXHHHH@Z 10086452 f   qt-mt323:qt-mt323.dll
 0002:00058458       ?setGeometry@QSpacerItem@@UAEXABVQRect@@@Z 10086458 f   qt-mt323:qt-mt323.dll
 0002:0005845e       ?setGroup@QButton@@EAEXPAVQButtonGroup@@@Z 1008645e f   qt-mt323:qt-mt323.dll
 0002:00058464       ?setHBarGeometry@QScrollView@@MAEXAAVQScrollBar@@HHHH@Z 10086464 f   qt-mt323:qt-mt323.dll
 0002:0005846a       ?setHScrollBarMode@QScrollView@@UAEXW4ScrollBarMode@1@@Z 1008646a f   qt-mt323:qt-mt323.dll
 0002:00058470       ?setIsMenuButton@QPushButton@@UAEX_N@Z 10086470 f   qt-mt323:qt-mt323.dll
 0002:00058476       ?setItalic@QTextEdit@@UAEX_N@Z 10086476 f   qt-mt323:qt-mt323.dll
 0002:0005847c       ?setLineWidth@QFrame@@UAEXH@Z 1008647c f   qt-mt323:qt-mt323.dll
 0002:00058482       ?setLinkUnderline@QTextEdit@@UAEX_N@Z 10086482 f   qt-mt323:qt-mt323.dll
 0002:00058488       ?setMargin@QFrame@@UAEXH@Z 10086488 f   qt-mt323:qt-mt323.dll
 0002:0005848e       ?setMargin@QLayout@@UAEXH@Z 1008648e f   qt-mt323:qt-mt323.dll
 0002:00058494       ?setMargins@QScrollView@@MAEXHHHH@Z 10086494 f   qt-mt323:qt-mt323.dll
 0002:0005849a       ?setMenuBar@QLayout@@UAEXPAVQMenuBar@@@Z 1008649a f   qt-mt323:qt-mt323.dll
 0002:000584a0       ?setMidLineWidth@QFrame@@UAEXH@Z 100864a0 f   qt-mt323:qt-mt323.dll
 0002:000584a6       ?setMimeSourceFactory@QTextEdit@@UAEXPAVQMimeSourceFactory@@@Z 100864a6 f   qt-mt323:qt-mt323.dll
 0002:000584ac       ?setModified@QTextEdit@@UAEX_N@Z 100864ac f   qt-mt323:qt-mt323.dll
 0002:000584b2       ?setName@QObject@@UAEXPBD@Z 100864b2 f   qt-mt323:qt-mt323.dll
 0002:000584b8       ?setOn@QPushButton@@UAEX_N@Z 100864b8 f   qt-mt323:qt-mt323.dll
 0002:000584be       ?setOverwriteMode@QTextEdit@@UAEX_N@Z 100864be f   qt-mt323:qt-mt323.dll
 0002:000584c4       ?setPalette@QTextEdit@@UAEXABVQPalette@@@Z 100864c4 f   qt-mt323:qt-mt323.dll
 0002:000584ca       ?setPaper@QTextEdit@@UAEXABVQBrush@@@Z 100864ca f   qt-mt323:qt-mt323.dll
 0002:000584d0       ?setParagType@QTextEdit@@UAEXW4DisplayMode@QStyleSheetItem@@W4ListStyle@3@@Z 100864d0 f   qt-mt323:qt-mt323.dll
 0002:000584d6       ?setParagraphBackgroundColor@QTextEdit@@UAEXHABVQColor@@@Z 100864d6 f   qt-mt323:qt-mt323.dll
 0002:000584dc       ?setPixmap@QButton@@UAEXABVQPixmap@@@Z 100864dc f   qt-mt323:qt-mt323.dll
 0002:000584e2       ?setPointSize@QTextEdit@@UAEXH@Z 100864e2 f   qt-mt323:qt-mt323.dll
 0002:000584e8       ?setReadOnly@QTextEdit@@UAEX_N@Z 100864e8 f   qt-mt323:qt-mt323.dll
 0002:000584ee       ?setResizePolicy@QScrollView@@UAEXW4ResizePolicy@1@@Z 100864ee f   qt-mt323:qt-mt323.dll
 0002:000584f4       ?setSelection@QTextEdit@@UAEXHHHHH@Z 100864f4 f   qt-mt323:qt-mt323.dll
 0002:000584fa       ?setSelectionAttributes@QTextEdit@@UAEXHABVQColor@@_N@Z 100864fa f   qt-mt323:qt-mt323.dll
 0002:00058500       ?setSpacing@QLayout@@UAEXH@Z 10086500 f   qt-mt323:qt-mt323.dll
 0002:00058506       ?setState@QButton@@MAEXW4ToggleState@1@@Z 10086506 f   qt-mt323:qt-mt323.dll
 0002:0005850c       ?setStyleSheet@QTextEdit@@UAEXPAVQStyleSheet@@@Z 1008650c f   qt-mt323:qt-mt323.dll
 0002:00058512       ?setTabStopWidth@QTextEdit@@UAEXH@Z 10086512 f   qt-mt323:qt-mt323.dll
 0002:00058518       ?setText@QButton@@UAEXABVQString@@@Z 10086518 f   qt-mt323:qt-mt323.dll
 0002:0005851e       ?setText@QTextEdit@@UAEXABVQString@@0@Z 1008651e f   qt-mt323:qt-mt323.dll
 0002:00058524       ?setTextFormat@QTextEdit@@UAEXW4TextFormat@Qt@@@Z 10086524 f   qt-mt323:qt-mt323.dll
 0002:0005852a       ?setToggleType@QButton@@MAEXW4ToggleType@1@@Z 1008652a f   qt-mt323:qt-mt323.dll
 0002:00058530       ?setUnderline@QTextEdit@@UAEX_N@Z 10086530 f   qt-mt323:qt-mt323.dll
 0002:00058536       ?setUndoDepth@QTextEdit@@UAEXH@Z 10086536 f   qt-mt323:qt-mt323.dll
 0002:0005853c       ?setUndoRedoEnabled@QTextEdit@@UAEX_N@Z 1008653c f   qt-mt323:qt-mt323.dll
 0002:00058542       ?setVBarGeometry@QScrollView@@MAEXAAVQScrollBar@@HHHH@Z 10086542 f   qt-mt323:qt-mt323.dll
 0002:00058548       ?setVScrollBarMode@QScrollView@@UAEXW4ScrollBarMode@1@@Z 10086548 f   qt-mt323:qt-mt323.dll
 0002:0005854e       ?setVerticalAlignment@QTextEdit@@UAEXW4VerticalAlignment@1@@Z 1008654e f   qt-mt323:qt-mt323.dll
 0002:00058554       ?setWordWrap@QTextEdit@@UAEXW4WordWrap@1@@Z 10086554 f   qt-mt323:qt-mt323.dll
 0002:0005855a       ?setWrapColumnOrWidth@QTextEdit@@UAEXH@Z 1008655a f   qt-mt323:qt-mt323.dll
 0002:00058560       ?setWrapPolicy@QTextEdit@@UAEXW4WrapPolicy@1@@Z 10086560 f   qt-mt323:qt-mt323.dll
 0002:00058566       ?show@QScrollView@@UAEXXZ  10086566 f   qt-mt323:qt-mt323.dll
 0002:0005856c       ?sizeHint@QBoxLayout@@UBE?AVQSize@@XZ 1008656c f   qt-mt323:qt-mt323.dll
 0002:00058572       ?sizeHint@QCheckBox@@UBE?AVQSize@@XZ 10086572 f   qt-mt323:qt-mt323.dll
 0002:00058578       ?sizeHint@QPushButton@@UBE?AVQSize@@XZ 10086578 f   qt-mt323:qt-mt323.dll
 0002:0005857e       ?sizeHint@QSpacerItem@@UBE?AVQSize@@XZ 1008657e f   qt-mt323:qt-mt323.dll
 0002:00058584       ?sizeHint@QTextEdit@@UBE?AVQSize@@XZ 10086584 f   qt-mt323:qt-mt323.dll
 0002:0005858a       ?spacerItem@QLayoutItem@@UAEPAVQSpacerItem@@XZ 1008658a f   qt-mt323:qt-mt323.dll
 0002:00058590       ?spacerItem@QSpacerItem@@UAEPAV1@XZ 10086590 f   qt-mt323:qt-mt323.dll
 0002:00058596       ?styleChange@QScrollView@@UAEXAAVQStyle@@@Z 10086596 f   qt-mt323:qt-mt323.dll
 0002:0005859c       ?sync@QTextEdit@@UAEXXZ    1008659c f   qt-mt323:qt-mt323.dll
 0002:000585a2       ?undo@QTextEdit@@UAEXXZ    100865a2 f   qt-mt323:qt-mt323.dll
 0002:000585a8       ?updateMask@QCheckBox@@MAEXXZ 100865a8 f   qt-mt323:qt-mt323.dll
 0002:000585ae       ?updateMask@QPushButton@@MAEXXZ 100865ae f   qt-mt323:qt-mt323.dll
 0002:000585b4       ?viewportContextMenuEvent@QScrollView@@MAEXPAVQContextMenuEvent@@@Z 100865b4 f   qt-mt323:qt-mt323.dll
 0002:000585ba       ?viewportDragEnterEvent@QScrollView@@MAEXPAVQDragEnterEvent@@@Z 100865ba f   qt-mt323:qt-mt323.dll
 0002:000585c0       ?viewportDragLeaveEvent@QScrollView@@MAEXPAVQDragLeaveEvent@@@Z 100865c0 f   qt-mt323:qt-mt323.dll
 0002:000585c6       ?viewportDragMoveEvent@QScrollView@@MAEXPAVQDragMoveEvent@@@Z 100865c6 f   qt-mt323:qt-mt323.dll
 0002:000585cc       ?viewportDropEvent@QScrollView@@MAEXPAVQDropEvent@@@Z 100865cc f   qt-mt323:qt-mt323.dll
 0002:000585d2       ?viewportMouseDoubleClickEvent@QScrollView@@MAEXPAVQMouseEvent@@@Z 100865d2 f   qt-mt323:qt-mt323.dll
 0002:000585d8       ?viewportMouseMoveEvent@QScrollView@@MAEXPAVQMouseEvent@@@Z 100865d8 f   qt-mt323:qt-mt323.dll
 0002:000585de       ?viewportMousePressEvent@QScrollView@@MAEXPAVQMouseEvent@@@Z 100865de f   qt-mt323:qt-mt323.dll
 0002:000585e4       ?viewportMouseReleaseEvent@QScrollView@@MAEXPAVQMouseEvent@@@Z 100865e4 f   qt-mt323:qt-mt323.dll
 0002:000585ea       ?viewportPaintEvent@QScrollView@@MAEXPAVQPaintEvent@@@Z 100865ea f   qt-mt323:qt-mt323.dll
 0002:000585f0       ?viewportResizeEvent@QTextEdit@@MAEXPAVQResizeEvent@@@Z 100865f0 f   qt-mt323:qt-mt323.dll
 0002:000585f6       ?viewportWheelEvent@QScrollView@@MAEXPAVQWheelEvent@@@Z 100865f6 f   qt-mt323:qt-mt323.dll
 0002:000585fc       ?wheelEvent@QScrollView@@MAEXPAVQWheelEvent@@@Z 100865fc f   qt-mt323:qt-mt323.dll
 0002:00058602       ?widget@QLayoutItem@@UAEPAVQWidget@@XZ 10086602 f   qt-mt323:qt-mt323.dll
 0002:00058608       ?windowActivationChange@QTextEdit@@MAEX_N@Z 10086608 f   qt-mt323:qt-mt323.dll
 0002:0005860e       ?zoomIn@QTextEdit@@UAEXH@Z 1008660e f   qt-mt323:qt-mt323.dll
 0002:00058614       ?zoomIn@QTextEdit@@UAEXXZ  10086614 f   qt-mt323:qt-mt323.dll
 0002:0005861a       ?zoomOut@QTextEdit@@UAEXH@Z 1008661a f   qt-mt323:qt-mt323.dll
 0002:00058620       ?zoomOut@QTextEdit@@UAEXXZ 10086620 f   qt-mt323:qt-mt323.dll
 0002:00058626       ?zoomTo@QTextEdit@@UAEXH@Z 10086626 f   qt-mt323:qt-mt323.dll
 0002:0005862c       ?qstrcmp@@YAHPBD0@Z        1008662c f   qt-mt323:qt-mt323.dll
 0002:00058632       ?fromLatin1@QString@@SA?AV1@PBDH@Z 10086632 f   qt-mt323:qt-mt323.dll
 0002:00058638       ?fromUtf8@QString@@SA?AV1@PBDH@Z 10086638 f   qt-mt323:qt-mt323.dll
 0002:0005863e       ?signalsBlocked@QObject@@QBE_NXZ 1008663e f   qt-mt323:qt-mt323.dll
 0002:00058644       ?receivers@QObject@@IBEPAVQConnectionList@@H@Z 10086644 f   qt-mt323:qt-mt323.dll
 0002:0005864a       ?activate_signal@QObject@@IAEXPAVQConnectionList@@PAUQUObject@@@Z 1008664a f   qt-mt323:qt-mt323.dll
 0002:00058650       ?qt_cast@QWidget@@UAEPAXPBD@Z 10086650 f   qt-mt323:qt-mt323.dll
 0002:00058656       ?qt_invoke@QWidget@@UAE_NHPAUQUObject@@@Z 10086656 f   qt-mt323:qt-mt323.dll
 0002:0005865c       ?qt_emit@QWidget@@UAE_NHPAUQUObject@@@Z 1008665c f   qt-mt323:qt-mt323.dll
 0002:00058662       ?qt_property@QWidget@@UAE_NHHPAVQVariant@@@Z 10086662 f   qt-mt323:qt-mt323.dll
 0002:00058668       ?staticMetaObject@QWidget@@SAPAVQMetaObject@@XZ 10086668 f   qt-mt323:qt-mt323.dll
 0002:0005866e       ?slotOffset@QMetaObject@@QBEHXZ 1008666e f   qt-mt323:qt-mt323.dll
 0002:00058674       ?signalOffset@QMetaObject@@QBEHXZ 10086674 f   qt-mt323:qt-mt323.dll
 0002:0005867a       ?new_metaobject@QMetaObject@@SAPAV1@PBDPAV1@QBUQMetaData@@H2HQBVQMetaProperty@@HQBUQMetaEnum@@HQBUQClassInfo@@H@Z 1008667a f   qt-mt323:qt-mt323.dll
 0002:00058680       ??0QMetaObjectCleanUp@@QAE@PBDP6APAVQMetaObject@@XZ@Z 10086680 f   qt-mt323:qt-mt323.dll
 0002:00058686       ??1QMetaObjectCleanUp@@QAE@XZ 10086686 f   qt-mt323:qt-mt323.dll
 0002:0005868c       ?setMetaObject@QMetaObjectCleanUp@@QAEXAAPAVQMetaObject@@@Z 1008668c f   qt-mt323:qt-mt323.dll
 0002:00058692       ?translate@QApplication@@QBE?AVQString@@PBD00W4Encoding@1@@Z 10086692 f   qt-mt323:qt-mt323.dll
 0002:00058698       ??0QUObject@@QAE@XZ        10086698 f   qt-mt323:qt-mt323.dll
 0002:0005869e       ??1QUObject@@QAE@XZ        1008669e f   qt-mt323:qt-mt323.dll
 0002:000586a4       ?get@QUType_bool@@QAEAA_NPAUQUObject@@@Z 100866a4 f   qt-mt323:qt-mt323.dll
 0002:000586aa       ?set@QUType_QString@@QAEXPAUQUObject@@ABVQString@@@Z 100866aa f   qt-mt323:qt-mt323.dll
 0002:000586b0       ?get@QUType_QString@@QAEAAVQString@@PAUQUObject@@@Z 100866b0 f   qt-mt323:qt-mt323.dll
 0002:000586b6       ?qt_cast@QDialog@@UAEPAXPBD@Z 100866b6 f   qt-mt323:qt-mt323.dll
 0002:000586bc       ?qt_invoke@QDialog@@UAE_NHPAUQUObject@@@Z 100866bc f   qt-mt323:qt-mt323.dll
 0002:000586c2       ?qt_emit@QDialog@@UAE_NHPAUQUObject@@@Z 100866c2 f   qt-mt323:qt-mt323.dll
 0002:000586c8       ?qt_property@QDialog@@UAE_NHHPAVQVariant@@@Z 100866c8 f   qt-mt323:qt-mt323.dll
 0002:000586ce       ?staticMetaObject@QDialog@@SAPAVQMetaObject@@XZ 100866ce f   qt-mt323:qt-mt323.dll
 0002:000586d4       ?activate_signal_bool@QObject@@IAEXH_N@Z 100866d4 f   qt-mt323:qt-mt323.dll
 0002:000586da       _OutputDebugStringA@4      100866da f   kernel32:KERNEL32.dll
 0002:000586e0       _LocalFree@4               100866e0 f   kernel32:KERNEL32.dll
 0002:000586e6       _GetLastError@0            100866e6 f   kernel32:KERNEL32.dll
 0002:000586ec       _FormatMessageA@28         100866ec f   kernel32:KERNEL32.dll
 0002:000586f2       _GetCurrentProcess@0       100866f2 f   kernel32:KERNEL32.dll
 0002:000586f8       _DefWindowProcA@16         100866f8 f   user32:USER32.dll
 0002:000586fe       _RegisterClassA@4          100866fe f   user32:USER32.dll
 0002:00058704       _UnregisterClassA@8        10086704 f   user32:USER32.dll
 0002:0005870a       _CreateWindowExA@48        1008670a f   user32:USER32.dll
 0002:00058710       _DestroyWindow@4           10086710 f   user32:USER32.dll
 0002:00058716       _SetTimer@16               10086716 f   user32:USER32.dll
 0002:0005871c       _KillTimer@8               1008671c f   user32:USER32.dll
 0002:00058722       _MessageBoxA@16            10086722 f   user32:USER32.dll
 0002:00058728       _GetWindowLongA@8          10086728 f   user32:USER32.dll
 0002:0005872e       _SetWindowLongA@12         1008672e f   user32:USER32.dll
 0002:00058734       _GetGuiResources@8         10086734 f   user32:USER32.dll
 0002:0005873a       _ShellExecuteA@24          1008673a f   shell32:SHELL32.dll
 0002:00058740       ?_Debug_message@std@@YAXPB_W0I@Z 10086740 f   msvcprtd:MSVCP120D.dll
 0002:00058746       ??0_Container_base12@std@@QAE@XZ 10086746 f   msvcprtd:MSVCP120D.dll
 0002:0005874c       ??1_Container_base12@std@@QAE@XZ 1008674c f   msvcprtd:MSVCP120D.dll
 0002:00058752       ?_Orphan_all@_Container_base12@std@@QAEXXZ 10086752 f   msvcprtd:MSVCP120D.dll
 0002:00058758       ?_Xbad_alloc@std@@YAXXZ    10086758 f   msvcprtd:MSVCP120D.dll
 0002:0005875e       ?_Xlength_error@std@@YAXPBD@Z 1008675e f   msvcprtd:MSVCP120D.dll
 0002:00058764       ?_Xout_of_range@std@@YAXPBD@Z 10086764 f   msvcprtd:MSVCP120D.dll
 0002:0005876a       ??0id@locale@std@@QAE@I@Z  1008676a f   msvcprtd:MSVCP120D.dll
 0002:00058770       ?_Syserror_map@std@@YAPBDH@Z 10086770 f   msvcprtd:MSVCP120D.dll
 0002:00058776       ?_Winerror_map@std@@YAPBDH@Z 10086776 f   msvcprtd:MSVCP120D.dll
 0002:0005877c       ??0_Lockit@std@@QAE@H@Z    1008677c f   msvcprtd:MSVCP120D.dll
 0002:00058782       ??1_Lockit@std@@QAE@XZ     10086782 f   msvcprtd:MSVCP120D.dll
 0002:00058788       ?_Getpfirst@_Container_base12@std@@QBEPAPAU_Iterator_base12@2@XZ 10086788 f   msvcprtd:MSVCP120D.dll
 0002:00058790       ??_M@YGXPAXIHP6EX0@Z@Z     10086790 f   MSVCRTD:ehvecdtr.obj
 0002:000588b0       ?__ArrayUnwind@@YGXPAXIHP6EX0@Z@Z 100868b0 f   MSVCRTD:ehvecdtr.obj
 0002:0005895c       __purecall                 1008695c f   MSVCRTD:MSVCR120D.dll
 0002:00058962       ??2@YAPAXI@Z               10086962 f   MSVCRTD:MSVCR120D.dll
 0002:00058968       ??3@YAXPAX@Z               10086968 f   MSVCRTD:MSVCR120D.dll
 0002:00058970       ___atonexitinit            10086970 f   MSVCRTD:atonexit.obj
 0002:00058a50       __onexit                   10086a50 f   MSVCRTD:atonexit.obj
 0002:00058b90       _atexit                    10086b90 f   MSVCRTD:atonexit.obj
 0002:00058bc6       _memcpy                    10086bc6 f   MSVCRTD:MSVCR120D.dll
 0002:00058bcc       _strcmp                    10086bcc f   MSVCRTD:MSVCR120D.dll
 0002:00058bd2       _strlen                    10086bd2 f   MSVCRTD:MSVCR120D.dll
 0002:00058bd8       _memmove                   10086bd8 f   MSVCRTD:MSVCR120D.dll
 0002:00058bde       __hypot                    10086bde f   MSVCRTD:MSVCR120D.dll
 0002:00058be4       ??_V@YAXPAX@Z              10086be4 f   MSVCRTD:MSVCR120D.dll
 0002:00058bf0       @_RTC_AllocaHelper@12      10086bf0 f   MSVCRTD:stack.obj
 0002:00058c30       @_RTC_CheckStackVars2@12   10086c30 f   MSVCRTD:stack.obj
 0002:00058d40       @_RTC_CheckStackVars@8     10086d40 f   MSVCRTD:stack.obj
 0002:00058db0       __RTC_CheckEsp             10086db0 f   MSVCRTD:stack.obj
 0002:00058de0       @__security_check_cookie@4 10086de0 f   MSVCRTD:secchk.obj
 0002:00058df2       __CxxThrowException@8      10086df2 f   MSVCRTD:MSVCR120D.dll
 0002:00058e00       __RTC_InitBase             10086e00 f   MSVCRTD:init.obj
 0002:00058e40       __RTC_Shutdown             10086e40 f   MSVCRTD:init.obj
 0002:00058e58       ___CxxFrameHandler3        10086e58 f   MSVCRTD:MSVCR120D.dll
 0002:00058e60       ??0type_info@@AAE@ABV0@@Z  10086e60 f   MSVCRTD:ti_inst.obj
 0002:00058e80       ??4type_info@@AAEAAV0@ABV0@@Z 10086e80 f   MSVCRTD:ti_inst.obj
 0002:00058ea0       ??_Etype_info@@UAEPAXI@Z   10086ea0 f i MSVCRTD:ti_inst.obj
 0002:00058f30       __invalid_parameter        10086f30 f   MSVCRTD:MSVCR120D.dll
 0002:00058f36       _memset                    10086f36 f   MSVCRTD:MSVCR120D.dll
 0002:00058f3c       _sprintf                   10086f3c f   MSVCRTD:MSVCR120D.dll
 0002:00058f42       __CrtDbgReportW            10086f42 f   MSVCRTD:MSVCR120D.dll
 0002:00058f50       __alloca_probe_16          10086f50 f   MSVCRTD:alloca16.obj
 0002:00058f66       __alloca_probe_8           10086f66     MSVCRTD:alloca16.obj
 0002:00058f88       _getenv                    10086f88 f   MSVCRTD:MSVCR120D.dll
 0002:00058f8e       _strchr                    10086f8e f   MSVCRTD:MSVCR120D.dll
 0002:00058f94       _atoi                      10086f94 f   MSVCRTD:MSVCR120D.dll
 0002:00058fa0       ??_L@YGXPAXIHP6EX0@Z1@Z    10086fa0 f   MSVCRTD:ehvecctr.obj
 0002:00059120       _NtCurrentTeb              10087120 f i MSVCRTD:crtdll.obj
 0002:00059130       __CRT_INIT@12              10087130 f   MSVCRTD:crtdll.obj
 0002:000594c0       __DllMainCRTStartup@12     100874c0 f   MSVCRTD:crtdll.obj
 0002:00059720       _strcpy                    10087720 f   MSVCRTD:MSVCR120D.dll
 0002:00059726       _strcat                    10087726 f   MSVCRTD:MSVCR120D.dll
 0002:0005972c       _strncpy                   1008772c f   MSVCRTD:MSVCR120D.dll
 0002:00059732       ?terminate@@YAXXZ          10087732 f   MSVCRTD:MSVCR120D.dll
 0002:00059740       __except_handler4          10087740 f   MSVCRTD:chandler4gs.obj
 0002:00059770       __lock                     10087770 f   MSVCRTD:MSVCR120D.dll
 0002:00059776       __unlock                   10087776 f   MSVCRTD:MSVCR120D.dll
 0002:0005977c       __calloc_dbg               1008777c f   MSVCRTD:MSVCR120D.dll
 0002:00059782       ___dllonexit               10087782 f   MSVCRTD:MSVCR120D.dll
 0002:00059930       ?_RTC_AllocaFailure@@YAXPAXPAU_RTC_ALLOCA_NODE@@H@Z 10087930 f   MSVCRTD:error.obj
 0002:00059b10       ?_RTC_Failure@@YAXPAXH@Z   10087b10 f   MSVCRTD:error.obj
 0002:00059b80       ?_RTC_StackFailure@@YAXPAXPBD@Z 10087b80 f   MSVCRTD:error.obj
 0002:00059fe0       __RTC_UninitUse            10087fe0 f   MSVCRTD:error.obj
 0002:0005a110       ___raise_securityfailure   10088110 f   MSVCRTD:gs_report.obj
 0002:0005a170       ___report_gsfailure        10088170 f   MSVCRTD:gs_report.obj
 0002:0005a2c0       ___report_rangecheckfailure 100882c0 f   MSVCRTD:gs_report.obj
 0002:0005a2d0       ___report_securityfailure  100882d0 f   MSVCRTD:gs_report.obj
 0002:0005a3e0       ___report_securityfailureEx 100883e0 f   MSVCRTD:gs_report.obj
 0002:0005a550       ?_RTC_GetErrorFunc@@YAP6AHHPBDH00ZZPBX@Z 10088550 f   MSVCRTD:userapi.obj
 0002:0005a560       ?_RTC_GetErrorFuncW@@YAP6AHHPB_WH00ZZPBX@Z 10088560 f   MSVCRTD:userapi.obj
 0002:0005a570       __RTC_GetErrDesc           10088570 f   MSVCRTD:userapi.obj
 0002:0005a590       __RTC_NumErrors            10088590 f   MSVCRTD:userapi.obj
 0002:0005a5a0       __RTC_SetErrorFunc         100885a0 f   MSVCRTD:userapi.obj
 0002:0005a5d0       __RTC_SetErrorFuncW        100885d0 f   MSVCRTD:userapi.obj
 0002:0005a600       __RTC_SetErrorType         10088600 f   MSVCRTD:userapi.obj
 0002:0005a62c       __CRT_RTC_INITW            1008862c f   MSVCRTD:MSVCR120D.dll
 0002:0005a632       ??1type_info@@UAE@XZ       10088632 f   MSVCRTD:MSVCR120D.dll
 0002:0005a640       __alloca_probe             10088640 f   MSVCRTD:chkstk.obj
 0002:0005a640       __chkstk                   10088640 f   MSVCRTD:chkstk.obj
 0002:0005a676       ___CppXcptFilter           10088676 f   MSVCRTD:MSVCR120D.dll
 0002:0005a67c       __amsg_exit                1008867c f   MSVCRTD:MSVCR120D.dll
 0002:0005a682       __malloc_dbg               10088682 f   MSVCRTD:MSVCR120D.dll
 0002:0005a688       __free_dbg                 10088688 f   MSVCRTD:MSVCR120D.dll
 0002:0005a68e       __CrtSetCheckCount         1008868e f   MSVCRTD:MSVCR120D.dll
 0002:0005a6a0       __FindPESection            100886a0 f   MSVCRTD:pesect.obj
 0002:0005a730       __IsNonwritableInCurrentImage 10088730 f   MSVCRTD:pesect.obj
 0002:0005a8b0       __ValidateImageBase        100888b0 f   MSVCRTD:pesect.obj
 0002:0005a930       ___security_init_cookie    10088930 f   MSVCRTD:gs_support.obj
 0002:0005aa50       _DllMain@12                10088a50 f   MSVCRTD:dllmain.obj
 0002:0005aa80       __RTC_Initialize           10088a80 f   MSVCRTD:initsect.obj
 0002:0005aab0       __RTC_Terminate            10088ab0 f   MSVCRTD:initsect.obj
 0002:0005aade       __initterm                 10088ade f   MSVCRTD:MSVCR120D.dll
 0002:0005aae4       __initterm_e               10088ae4 f   MSVCRTD:MSVCR120D.dll
 0002:0005aaf0       ___clean_type_info_names   10088af0 f   MSVCRTD:tncleanup.obj
 0002:0005ab06       __except_handler4_common   10088b06 f   MSVCRTD:MSVCR120D.dll
 0002:0005b070       ?_RTC_GetSrcLine@@YAHPAEPA_WKPAH1K@Z 10089070 f   MSVCRTD:pdblkup.obj
 0002:0005b3ca       __crt_debugger_hook        100893ca f   MSVCRTD:MSVCR120D.dll
 0002:0005b3d0       ___crtUnhandledException   100893d0 f   MSVCRTD:MSVCR120D.dll
 0002:0005b3d6       ___crtTerminateProcess     100893d6 f   MSVCRTD:MSVCR120D.dll
 0002:0005b3dc       ___clean_type_info_names_internal 100893dc f   MSVCRTD:MSVCR120D.dll
 0002:0005b3e2       _wcscpy_s                  100893e2 f   MSVCRTD:MSVCR120D.dll
 0002:0005b3e8       __wmakepath_s              100893e8 f   MSVCRTD:MSVCR120D.dll
 0002:0005b3ee       __wsplitpath_s             100893ee f   MSVCRTD:MSVCR120D.dll
 0002:0005b3f4       ?write@QGDict@@MBEAAVQDataStream@@AAV2@PAX@Z 100893f4 f   qt-mt323:qt-mt323.dll
 0002:0005b3fa       ?read@QGDict@@MAEAAVQDataStream@@AAV2@AAPAX@Z 100893fa f   qt-mt323:qt-mt323.dll
 0002:0005b400       ??0QGDict@@IAE@IW4KeyType@0@_N1@Z 10089400 f   qt-mt323:qt-mt323.dll
 0002:0005b406       ??0QGArray@@QAE@XZ         10089406 f   qt-mt323:qt-mt323.dll
 0002:0005b40c       ??1QCString@@UAE@XZ        1008940c f   qt-mt323:qt-mt323.dll
 0002:0005b412       ?setName@QFile@@QAEXABVQString@@@Z 10089412 f   qt-mt323:qt-mt323.dll
 0002:0005b418       ?type@QApplication@@QBE?AW4Type@1@XZ 10089418 f   qt-mt323:qt-mt323.dll
 0002:0005b41e       ?afterSeek@QSqlCursor@@MAEXXZ 1008941e f   qt-mt323:qt-mt323.dll
 0002:0005b424       ?beforeSeek@QSqlQuery@@MAEXXZ 10089424 f   qt-mt323:qt-mt323.dll
 0002:0005b42a       ?last@QSqlQuery@@UAE_NXZ   1008942a f   qt-mt323:qt-mt323.dll
 0002:0005b430       ?first@QSqlQuery@@UAE_NXZ  10089430 f   qt-mt323:qt-mt323.dll
 0002:0005b436       ?prev@QSqlQuery@@UAE_NXZ   10089436 f   qt-mt323:qt-mt323.dll
 0002:0005b43c       ?next@QSqlQuery@@UAE_NXZ   1008943c f   qt-mt323:qt-mt323.dll
 0002:0005b442       ?seek@QSqlQuery@@UAE_NH_N@Z 10089442 f   qt-mt323:qt-mt323.dll
 0002:0005b448       ?exec@QSqlCursor@@MAE_NABVQString@@@Z 10089448 f   qt-mt323:qt-mt323.dll
 0002:0005b44e       ?calculateField@QSqlCursor@@MAE?AVQVariant@@ABVQString@@@Z 1008944e f   qt-mt323:qt-mt323.dll
 0002:0005b454       ?toString@QSqlCursor@@MBE?AVQString@@ABV2@PAVQSqlField@@0@Z 10089454 f   qt-mt323:qt-mt323.dll
 0002:0005b45a       ?toString@QSqlCursor@@MBE?AVQString@@PAVQSqlRecord@@ABV2@11@Z 1008945a f   qt-mt323:qt-mt323.dll
 0002:0005b460       ?toString@QSqlCursor@@MBE?AVQString@@ABVQSqlIndex@@PAVQSqlRecord@@ABV2@22@Z 10089460 f   qt-mt323:qt-mt323.dll
 0002:0005b466       ?setName@QSqlCursor@@UAEXABVQString@@_N@Z 10089466 f   qt-mt323:qt-mt323.dll
 0002:0005b46c       ?setFilter@QSqlCursor@@UAEXABVQString@@@Z 1008946c f   qt-mt323:qt-mt323.dll
 0002:0005b472       ?setSort@QSqlCursor@@UAEXABVQSqlIndex@@@Z 10089472 f   qt-mt323:qt-mt323.dll
 0002:0005b478       ?select@QSqlCursor@@UAE_NABVQString@@ABVQSqlIndex@@@Z 10089478 f   qt-mt323:qt-mt323.dll
 0002:0005b47e       ?setTrimmed@QSqlCursor@@UAEXABVQString@@_N@Z 1008947e f   qt-mt323:qt-mt323.dll
 0002:0005b484       ?setCalculated@QSqlCursor@@UAEXABVQString@@_N@Z 10089484 f   qt-mt323:qt-mt323.dll
 0002:0005b48a       ?setMode@QSqlCursor@@UAEXH@Z 1008948a f   qt-mt323:qt-mt323.dll
 0002:0005b490       ?del@QSqlCursor@@UAEH_N@Z  10089490 f   qt-mt323:qt-mt323.dll
 0002:0005b496       ?del@QSqlCursor@@MAEHABVQString@@_N@Z 10089496 f   qt-mt323:qt-mt323.dll
 0002:0005b49c       ?update@QSqlCursor@@UAEH_N@Z 1008949c f   qt-mt323:qt-mt323.dll
 0002:0005b4a2       ?update@QSqlCursor@@MAEHABVQString@@_N@Z 100894a2 f   qt-mt323:qt-mt323.dll
 0002:0005b4a8       ?primeDelete@QSqlCursor@@UAEPAVQSqlRecord@@XZ 100894a8 f   qt-mt323:qt-mt323.dll
 0002:0005b4ae       ?primeUpdate@QSqlCursor@@UAEPAVQSqlRecord@@XZ 100894ae f   qt-mt323:qt-mt323.dll
 0002:0005b4b4       ?primeInsert@QSqlCursor@@UAEPAVQSqlRecord@@XZ 100894b4 f   qt-mt323:qt-mt323.dll
 0002:0005b4ba       ?editBuffer@QSqlCursor@@UAEPAVQSqlRecord@@_N@Z 100894ba f   qt-mt323:qt-mt323.dll
 0002:0005b4c0       ?insert@QSqlCursor@@UAEXHABVQSqlFieldInfo@@@Z 100894c0 f   qt-mt323:qt-mt323.dll
 0002:0005b4c6       ?insert@QSqlCursor@@UAEH_N@Z 100894c6 f   qt-mt323:qt-mt323.dll
 0002:0005b4cc       ?append@QSqlCursor@@UAEXABVQSqlFieldInfo@@@Z 100894cc f   qt-mt323:qt-mt323.dll
 0002:0005b4d2       ?setPrimaryIndex@QSqlCursor@@UAEXABVQSqlIndex@@@Z 100894d2 f   qt-mt323:qt-mt323.dll
 0002:0005b4d8       ?index@QSqlCursor@@UBE?AVQSqlIndex@@ABVQStringList@@@Z 100894d8 f   qt-mt323:qt-mt323.dll
 0002:0005b4de       ?primaryIndex@QSqlCursor@@UBE?AVQSqlIndex@@_N@Z 100894de f   qt-mt323:qt-mt323.dll
 0002:0005b4e4       ?toStringList@QSqlRecord@@UBE?AVQStringList@@ABVQString@@@Z 100894e4 f   qt-mt323:qt-mt323.dll
 0002:0005b4ea       ?toString@QSqlCursor@@UBE?AVQString@@ABV2@0@Z 100894ea f   qt-mt323:qt-mt323.dll
 0002:0005b4f0       ?clearValues@QSqlRecord@@UAEX_N@Z 100894f0 f   qt-mt323:qt-mt323.dll
 0002:0005b4f6       ?clear@QSqlCursor@@UAEXXZ  100894f6 f   qt-mt323:qt-mt323.dll
 0002:0005b4fc       ?remove@QSqlCursor@@UAEXH@Z 100894fc f   qt-mt323:qt-mt323.dll
 0002:0005b502       ?insert@QSqlCursor@@EAEXHABVQSqlField@@@Z 10089502 f   qt-mt323:qt-mt323.dll
 0002:0005b508       ?append@QSqlCursor@@EAEXABVQSqlField@@@Z 10089508 f   qt-mt323:qt-mt323.dll
 0002:0005b50e       ?setNull@QSqlRecord@@UAEXH@Z 1008950e f   qt-mt323:qt-mt323.dll
 0002:0005b514       ?setNull@QSqlRecord@@UAEXABVQString@@@Z 10089514 f   qt-mt323:qt-mt323.dll
 0002:0005b51a       ?setGenerated@QSqlCursor@@UAEXABVQString@@_N@Z 1008951a f   qt-mt323:qt-mt323.dll
 0002:0005b520       ?setGenerated@QSqlCursor@@UAEXH_N@Z 10089520 f   qt-mt323:qt-mt323.dll
 0002:0005b526       ?setValue@QSqlCursor@@UAEXHABVQVariant@@@Z 10089526 f   qt-mt323:qt-mt323.dll
 0002:0005b52c       ?setValue@QSqlCursor@@UAEXABVQString@@ABVQVariant@@@Z 1008952c f   qt-mt323:qt-mt323.dll
 0002:0005b532       ?value@QSqlCursor@@UBE?AVQVariant@@H@Z 10089532 f   qt-mt323:qt-mt323.dll
 0002:0005b538       ?value@QSqlCursor@@UBE?AVQVariant@@ABVQString@@@Z 10089538 f   qt-mt323:qt-mt323.dll
 0002:0005b53e       ?sendPostedEvents@QApplication@@SAXXZ 1008953e f   qt-mt323:qt-mt323.dll
 0002:0005b544       ?detachInternal@?$QMap@VQString@@V1@@@AAEXXZ 10089544 f   qt-mt323:qt-mt323.dll
 0002:0005b54a       ?refresh@QDataTable@@QAEXW4Refresh@1@@Z 1008954a f   qt-mt323:qt-mt323.dll
 0002:0005b550       ??0QSqlCursor@@QAE@ABVQString@@_NPAVQSqlDatabase@@@Z 10089550 f   qt-mt323:qt-mt323.dll
 0002:0005b556       ?database@QSqlDatabase@@SAPAV1@ABVQString@@_N@Z 10089556 f   qt-mt323:qt-mt323.dll
 0002:0005b55c       ?ascii@QString@@QBEPBDXZ   1008955c f   qt-mt323:qt-mt323.dll
 0002:0005b562       ?inherits@QObject@@QBE_NPBD@Z 10089562 f   qt-mt323:qt-mt323.dll
 0002:0005b568       ?detachInternal@?$QValueList@VQString@@@@AAEXXZ 10089568 f   qt-mt323:qt-mt323.dll
 0002:0005b56e       ??0QGPluginManager@@QAE@ABUQUuid@@ABVQStringList@@ABVQString@@_N@Z 1008956e f   qt-mt323:qt-mt323.dll
 0002:0005b574       ??0QUuid@@QAE@IGGEEEEEEEE@Z 10089574 f   qt-mt323:qt-mt323.dll
 0002:0005b57a       ?libraryPaths@QApplication@@SA?AVQStringList@@XZ 1008957a f   qt-mt323:qt-mt323.dll
 0002:0005b580       ??1QDataStream@@UAE@XZ     10089580 f   qt-mt323:qt-mt323.dll
 0002:0005b586       ??0QDomDocument@@QAE@ABV0@@Z 10089586 f   qt-mt323:qt-mt323.dll
 0002:0005b58c       ?setContent@QDomDocument@@QAE_NPAVQIODevice@@PAVQString@@PAH2@Z 1008958c f   qt-mt323:qt-mt323.dll
 0002:0005b592       ?unsetDevice@QDataStream@@QAEXXZ 10089592 f   qt-mt323:qt-mt323.dll
 0002:0005b598       ??5QDataStream@@QAEAAV0@AAH@Z 10089598 f   qt-mt323:qt-mt323.dll
 0002:0005b59e       ??0QDataStream@@QAE@PAVQIODevice@@@Z 1008959e f   qt-mt323:qt-mt323.dll
 0002:0005b5a4       ??0QDomDocument@@QAE@XZ    100895a4 f   qt-mt323:qt-mt323.dll
 0002:0005b5aa       ??1QSqlCursor@@UAE@XZ      100895aa f   qt-mt323:qt-mt323.dll
 0002:0005b5b0       ?number@QString@@SA?AV1@HH@Z 100895b0 f   qt-mt323:qt-mt323.dll
 0002:0005b5b6       ??1QDomText@@UAE@XZ        100895b6 f   qt-mt323:qt-mt323.dll
 0002:0005b5bc       ?duplicate@QGArray@@IAEAAV1@PBDI@Z 100895bc f   qt-mt323:qt-mt323.dll
 0002:0005b5c2       ?toText@QDomNode@@QAE?AVQDomText@@XZ 100895c2 f   qt-mt323:qt-mt323.dll
 0002:0005b5c8       ??0QDomElement@@QAE@XZ     100895c8 f   qt-mt323:qt-mt323.dll
 0002:0005b5ce       ??4QDomElement@@QAEAAV0@ABV0@@Z 100895ce f   qt-mt323:qt-mt323.dll
 0002:0005b5d4       ??0QDomElement@@QAE@ABV0@@Z 100895d4 f   qt-mt323:qt-mt323.dll
 0002:0005b5da       ??5QDataStream@@QAEAAV0@AAF@Z 100895da f   qt-mt323:qt-mt323.dll
 0002:0005b5e0       ??5QDataStream@@QAEAAV0@AAC@Z 100895e0 f   qt-mt323:qt-mt323.dll
 0002:0005b5e6       ?readRawBytes@QDataStream@@QAEAAV1@PADI@Z 100895e6 f   qt-mt323:qt-mt323.dll
 0002:0005b5ec       ?resize@QGArray@@IAE_NI@Z  100895ec f   qt-mt323:qt-mt323.dll
 0002:0005b5f2       ??5@YAAAVQDataStream@@AAV0@AAVQString@@@Z 100895f2 f   qt-mt323:qt-mt323.dll
 0002:0005b5f8       ??0QDataStream@@QAE@V?$QMemArray@D@@H@Z 100895f8 f   qt-mt323:qt-mt323.dll
 0002:0005b5fe       ??0?$QMemArray@D@@QAE@ABV0@@Z 100895fe f   qt-mt323:qt-mt323.dll
 0002:0005b604       ?msg_index@QGArray@@CAXI@Z 10089604 f   qt-mt323:qt-mt323.dll
 0002:0005b60a       ??YQString@@QAEAAV0@ABV0@@Z 1008960a f   qt-mt323:qt-mt323.dll
 0002:0005b610       ??5@YAAAVQDataStream@@AAV0@AAVQDate@@@Z 10089610 f   qt-mt323:qt-mt323.dll
 0002:0005b616       ?asDate@QVariant@@QAEAAVQDate@@XZ 10089616 f   qt-mt323:qt-mt323.dll
 0002:0005b61c       ??5@YAAAVQDataStream@@AAV0@AAVQTime@@@Z 1008961c f   qt-mt323:qt-mt323.dll
 0002:0005b622       ?asTime@QVariant@@QAEAAVQTime@@XZ 10089622 f   qt-mt323:qt-mt323.dll
 0002:0005b628       ??5@YAAAVQDataStream@@AAV0@AAVQDateTime@@@Z 10089628 f   qt-mt323:qt-mt323.dll
 0002:0005b62e       ?asDateTime@QVariant@@QAEAAVQDateTime@@XZ 1008962e f   qt-mt323:qt-mt323.dll
 0002:0005b634       ??5@YAAAVQDataStream@@AAV0@AAVQVariant@@@Z 10089634 f   qt-mt323:qt-mt323.dll
 0002:0005b63a       ??5@YAAAVQDataStream@@AAV0@AAVQCursor@@@Z 1008963a f   qt-mt323:qt-mt323.dll
 0002:0005b640       ?asCursor@QVariant@@QAEAAVQCursor@@XZ 10089640 f   qt-mt323:qt-mt323.dll
 0002:0005b646       ??0QVariant@@QAE@H@Z       10089646 f   qt-mt323:qt-mt323.dll
 0002:0005b64c       ??1QVariant@@QAE@XZ        1008964c f   qt-mt323:qt-mt323.dll
 0002:0005b652       ??0QVariant@@QAE@_NH@Z     10089652 f   qt-mt323:qt-mt323.dll
 0002:0005b658       ??5QDataStream@@QAEAAV0@AAN@Z 10089658 f   qt-mt323:qt-mt323.dll
 0002:0005b65e       ?asDouble@QVariant@@QAEAANXZ 1008965e f   qt-mt323:qt-mt323.dll
 0002:0005b664       ?asCString@QVariant@@QAEAAVQCString@@XZ 10089664 f   qt-mt323:qt-mt323.dll
 0002:0005b66a       ??1QImage@@QAE@XZ          1008966a f   qt-mt323:qt-mt323.dll
 0002:0005b670       ??4QImage@@QAEAAV0@ABV0@@Z 10089670 f   qt-mt323:qt-mt323.dll
 0002:0005b676       ?asImage@QVariant@@QAEAAVQImage@@XZ 10089676 f   qt-mt323:qt-mt323.dll
 0002:0005b67c       ??0QImage@@QAE@XZ          1008967c f   qt-mt323:qt-mt323.dll
 0002:0005b682       ??5@YAAAVQDataStream@@AAV0@AAVQColor@@@Z 10089682 f   qt-mt323:qt-mt323.dll
 0002:0005b688       ?asColor@QVariant@@QAEAAVQColor@@XZ 10089688 f   qt-mt323:qt-mt323.dll
 0002:0005b68e       ??0QIconSet@@QAE@ABVQPixmap@@W4Size@0@@Z 1008968e f   qt-mt323:qt-mt323.dll
 0002:0005b694       ??1QIconSet@@UAE@XZ        10089694 f   qt-mt323:qt-mt323.dll
 0002:0005b69a       ??4QIconSet@@QAEAAV0@ABV0@@Z 1008969a f   qt-mt323:qt-mt323.dll
 0002:0005b6a0       ?asIconSet@QVariant@@QAEAAVQIconSet@@XZ 100896a0 f   qt-mt323:qt-mt323.dll
 0002:0005b6a6       ??0QIconSet@@QAE@XZ        100896a6 f   qt-mt323:qt-mt323.dll
 0002:0005b6ac       ??0QVariant@@QAE@ABVQPoint@@@Z 100896ac f   qt-mt323:qt-mt323.dll
 0002:0005b6b2       ??0QVariant@@QAE@ABVQSize@@@Z 100896b2 f   qt-mt323:qt-mt323.dll
 0002:0005b6b8       ?asString@QVariant@@QAEAAVQString@@XZ 100896b8 f   qt-mt323:qt-mt323.dll
 0002:0005b6be       ?asStringList@QVariant@@QAEAAVQStringList@@XZ 100896be f   qt-mt323:qt-mt323.dll
 0002:0005b6c4       ??4QPixmap@@QAEAAV0@ABV0@@Z 100896c4 f   qt-mt323:qt-mt323.dll
 0002:0005b6ca       ?asPixmap@QVariant@@QAEAAVQPixmap@@XZ 100896ca f   qt-mt323:qt-mt323.dll
 0002:0005b6d0       ??0QPixmap@@QAE@XZ         100896d0 f   qt-mt323:qt-mt323.dll
 0002:0005b6d6       ??4QVariant@@QAEAAV0@ABV0@@Z 100896d6 f   qt-mt323:qt-mt323.dll
 0002:0005b6dc       ??0QVariant@@QAE@ABVQRect@@@Z 100896dc f   qt-mt323:qt-mt323.dll
 0002:0005b6e2       ?addMultiCell@QGridLayout@@QAEXPAVQLayoutItem@@HHHHH@Z 100896e2 f   qt-mt323:qt-mt323.dll
 0002:0005b6e8       ?toString@QVariant@@QBE?BVQString@@XZ 100896e8 f   qt-mt323:qt-mt323.dll
 0002:0005b6ee       ?toSize@QVariant@@QBE?BVQSize@@XZ 100896ee f   qt-mt323:qt-mt323.dll
 0002:0005b6f4       ??8QVariant@@QBE_NABV0@@Z  100896f4 f   qt-mt323:qt-mt323.dll
 0002:0005b6fa       ??0QVariant@@QAE@PBD@Z     100896fa f   qt-mt323:qt-mt323.dll
 0002:0005b700       ??8@YA_NABVQCString@@PBD@Z 10089700 f   qt-mt323:qt-mt323.dll
 0002:0005b706       ?qFatal@@YAXPBDZZ          10089706 f   qt-mt323:qt-mt323.dll
 0002:0005b70c       ?atEnd@QDataStream@@QBE_NXZ 1008970c f   qt-mt323:qt-mt323.dll
 0002:0005b712       ??0QVariant@@QAE@XZ        10089712 f   qt-mt323:qt-mt323.dll
 0002:0005b718       ??1QLayoutItem@@UAE@XZ     10089718 f   qt-mt323:qt-mt323.dll
 0002:0005b71e       ?toBool@QVariant@@QBE_NXZ  1008971e f   qt-mt323:qt-mt323.dll
 0002:0005b724       ?paint@QListBoxText@@MAEXPAVQPainter@@@Z 10089724 f   qt-mt323:qt-mt323.dll
 0002:0005b72a       ?rtti@QListBoxText@@UBEHXZ 1008972a f   qt-mt323:qt-mt323.dll
 0002:0005b730       ?width@QListBoxText@@UBEHPBVQListBox@@@Z 10089730 f   qt-mt323:qt-mt323.dll
 0002:0005b736       ?height@QListBoxText@@UBEHPBVQListBox@@@Z 10089736 f   qt-mt323:qt-mt323.dll
 0002:0005b73c       ?pixmap@QListBoxItem@@UBEPBVQPixmap@@XZ 1008973c f   qt-mt323:qt-mt323.dll
 0002:0005b742       ?dragLeft@QIconViewItem@@MAEXXZ 10089742 f   qt-mt323:qt-mt323.dll
 0002:0005b748       ?dragEntered@QIconViewItem@@MAEXXZ 10089748 f   qt-mt323:qt-mt323.dll
 0002:0005b74e       ?dropped@QIconViewItem@@MAEXPAVQDropEvent@@ABV?$QValueList@VQIconDragItem@@@@@Z 1008974e f   qt-mt323:qt-mt323.dll
 0002:0005b754       ?paintFocus@QIconViewItem@@MAEXPAVQPainter@@ABVQColorGroup@@@Z 10089754 f   qt-mt323:qt-mt323.dll
 0002:0005b75a       ?paintItem@QIconViewItem@@MAEXPAVQPainter@@ABVQColorGroup@@@Z 1008975a f   qt-mt323:qt-mt323.dll
 0002:0005b760       ?calcRect@QIconViewItem@@MAEXABVQString@@@Z 10089760 f   qt-mt323:qt-mt323.dll
 0002:0005b766       ?removeRenameBox@QIconViewItem@@MAEXXZ 10089766 f   qt-mt323:qt-mt323.dll
 0002:0005b76c       ?rtti@QIconViewItem@@UBEHXZ 1008976c f   qt-mt323:qt-mt323.dll
 0002:0005b772       ?setKey@QIconViewItem@@UAEXABVQString@@@Z 10089772 f   qt-mt323:qt-mt323.dll
 0002:0005b778       ?setPicture@QIconViewItem@@UAEXABVQPicture@@@Z 10089778 f   qt-mt323:qt-mt323.dll
 0002:0005b77e       ?setPixmap@QIconViewItem@@UAEXABVQPixmap@@@Z 1008977e f   qt-mt323:qt-mt323.dll
 0002:0005b784       ?setPixmap@QIconViewItem@@UAEXABVQPixmap@@_N1@Z 10089784 f   qt-mt323:qt-mt323.dll
 0002:0005b78a       ?setText@QIconViewItem@@UAEXABVQString@@@Z 1008978a f   qt-mt323:qt-mt323.dll
 0002:0005b790       ?setText@QIconViewItem@@UAEXABVQString@@_N1@Z 10089790 f   qt-mt323:qt-mt323.dll
 0002:0005b796       ?compare@QIconViewItem@@UBEHPAV1@@Z 10089796 f   qt-mt323:qt-mt323.dll
 0002:0005b79c       ?acceptDrop@QIconViewItem@@UBE_NPBVQMimeSource@@@Z 1008979c f   qt-mt323:qt-mt323.dll
 0002:0005b7a2       ?moveBy@QIconViewItem@@UAEXHH@Z 100897a2 f   qt-mt323:qt-mt323.dll
 0002:0005b7a8       ?moveBy@QIconViewItem@@UAEXABVQPoint@@@Z 100897a8 f   qt-mt323:qt-mt323.dll
 0002:0005b7ae       ?move@QIconViewItem@@UAE_NHH@Z 100897ae f   qt-mt323:qt-mt323.dll
 0002:0005b7b4       ?move@QIconViewItem@@UAE_NABVQPoint@@@Z 100897b4 f   qt-mt323:qt-mt323.dll
 0002:0005b7ba       ?repaint@QIconViewItem@@UAEXXZ 100897ba f   qt-mt323:qt-mt323.dll
 0002:0005b7c0       ?setSelectable@QIconViewItem@@UAEX_N@Z 100897c0 f   qt-mt323:qt-mt323.dll
 0002:0005b7c6       ?setSelected@QIconViewItem@@UAEX_N0@Z 100897c6 f   qt-mt323:qt-mt323.dll
 0002:0005b7cc       ?setSelected@QIconViewItem@@UAEX_N@Z 100897cc f   qt-mt323:qt-mt323.dll
 0002:0005b7d2       ?key@QIconViewItem@@UBE?AVQString@@XZ 100897d2 f   qt-mt323:qt-mt323.dll
 0002:0005b7d8       ?picture@QIconViewItem@@UBEPAVQPicture@@XZ 100897d8 f   qt-mt323:qt-mt323.dll
 0002:0005b7de       ?pixmap@QIconViewItem@@UBEPAVQPixmap@@XZ 100897de f   qt-mt323:qt-mt323.dll
 0002:0005b7e4       ?text@QIconViewItem@@UBE?AVQString@@XZ 100897e4 f   qt-mt323:qt-mt323.dll
 0002:0005b7ea       ?setDropEnabled@QIconViewItem@@UAEX_N@Z 100897ea f   qt-mt323:qt-mt323.dll
 0002:0005b7f0       ?setDragEnabled@QIconViewItem@@UAEX_N@Z 100897f0 f   qt-mt323:qt-mt323.dll
 0002:0005b7f6       ?setRenameEnabled@QIconViewItem@@UAEX_N@Z 100897f6 f   qt-mt323:qt-mt323.dll
 0002:0005b7fc       ?setText@QListBoxItem@@MAEXABVQString@@@Z 100897fc f   qt-mt323:qt-mt323.dll
 0002:0005b802       ?paint@QListBoxPixmap@@MAEXPAVQPainter@@@Z 10089802 f   qt-mt323:qt-mt323.dll
 0002:0005b808       ?rtti@QListBoxPixmap@@UBEHXZ 10089808 f   qt-mt323:qt-mt323.dll
 0002:0005b80e       ?width@QListBoxPixmap@@UBEHPBVQListBox@@@Z 1008980e f   qt-mt323:qt-mt323.dll
 0002:0005b814       ?height@QListBoxPixmap@@UBEHPBVQListBox@@@Z 10089814 f   qt-mt323:qt-mt323.dll
 0002:0005b81a       ?pixmap@QListBoxPixmap@@UBEPBVQPixmap@@XZ 1008981a f   qt-mt323:qt-mt323.dll
 0002:0005b820       ?text@QListBoxItem@@UBE?AVQString@@XZ 10089820 f   qt-mt323:qt-mt323.dll
 0002:0005b826       ??0QListBoxPixmap@@QAE@PAVQListBox@@ABVQPixmap@@ABVQString@@@Z 10089826 f   qt-mt323:qt-mt323.dll
 0002:0005b82c       ??0QListBoxText@@QAE@PAVQListBox@@ABVQString@@@Z 1008982c f   qt-mt323:qt-mt323.dll
 0002:0005b832       ?listBox@QComboBox@@QBEPAVQListBox@@XZ 10089832 f   qt-mt323:qt-mt323.dll
 0002:0005b838       ??0QIconViewItem@@QAE@PAVQIconView@@ABVQString@@ABVQPixmap@@@Z 10089838 f   qt-mt323:qt-mt323.dll
 0002:0005b83e       ??0QPixmap@@QAE@ABV0@@Z    1008983e f   qt-mt323:qt-mt323.dll
 0002:0005b844       ??1QListBoxText@@UAE@XZ    10089844 f   qt-mt323:qt-mt323.dll
 0002:0005b84a       ??1QListBoxPixmap@@UAE@XZ  1008984a f   qt-mt323:qt-mt323.dll
 0002:0005b850       ??1QIconViewItem@@UAE@XZ   10089850 f   qt-mt323:qt-mt323.dll
 0002:0005b856       ?menuDelPopup@QPopupMenu@@EAEXPAV1@@Z 10089856 f   qt-mt323:qt-mt323.dll
 0002:0005b85c       ?menuInsPopup@QPopupMenu@@EAEXPAV1@@Z 1008985c f   qt-mt323:qt-mt323.dll
 0002:0005b862       ?menuStateChanged@QPopupMenu@@EAEXXZ 10089862 f   qt-mt323:qt-mt323.dll
 0002:0005b868       ?menuContentsChanged@QPopupMenu@@EAEXXZ 10089868 f   qt-mt323:qt-mt323.dll
 0002:0005b86e       ?activateItemAt@QPopupMenu@@UAEXH@Z 1008986e f   qt-mt323:qt-mt323.dll
 0002:0005b874       ?setId@QMenuData@@UAEXHH@Z 10089874 f   qt-mt323:qt-mt323.dll
 0002:0005b87a       ?updateItem@QPopupMenu@@UAEXH@Z 1008987a f   qt-mt323:qt-mt323.dll
 0002:0005b880       ?setFirstItemActive@QPopupMenu@@EAEXXZ 10089880 f   qt-mt323:qt-mt323.dll
 0002:0005b886       ?setActiveItem@QPopupMenu@@UAEXH@Z 10089886 f   qt-mt323:qt-mt323.dll
 0002:0005b88c       ?setCheckable@QPopupMenu@@UAEX_N@Z 1008988c f   qt-mt323:qt-mt323.dll
 0002:0005b892       ?frameChanged@QPopupMenu@@EAEXXZ 10089892 f   qt-mt323:qt-mt323.dll
 0002:0005b898       ?drawContents@QPopupMenu@@MAEXPAVQPainter@@@Z 10089898 f   qt-mt323:qt-mt323.dll
 0002:0005b89e       ?focusNextPrevChild@QPopupMenu@@MAE_N_N@Z 1008989e f   qt-mt323:qt-mt323.dll
 0002:0005b8a4       ?enabledChange@QPopupMenu@@MAEX_N@Z 100898a4 f   qt-mt323:qt-mt323.dll
 0002:0005b8aa       ?styleChange@QPopupMenu@@MAEXAAVQStyle@@@Z 100898aa f   qt-mt323:qt-mt323.dll
 0002:0005b8b0       ?closeEvent@QPopupMenu@@MAEXPAVQCloseEvent@@@Z 100898b0 f   qt-mt323:qt-mt323.dll
 0002:0005b8b6       ?resizeEvent@QFrame@@MAEXPAVQResizeEvent@@@Z 100898b6 f   qt-mt323:qt-mt323.dll
 0002:0005b8bc       ?paintEvent@QPopupMenu@@MAEXPAVQPaintEvent@@@Z 100898bc f   qt-mt323:qt-mt323.dll
 0002:0005b8c2       ?leaveEvent@QPopupMenu@@MAEXPAVQEvent@@@Z 100898c2 f   qt-mt323:qt-mt323.dll
 0002:0005b8c8       ?focusOutEvent@QPopupMenu@@MAEXPAVQFocusEvent@@@Z 100898c8 f   qt-mt323:qt-mt323.dll
 0002:0005b8ce       ?focusInEvent@QPopupMenu@@MAEXPAVQFocusEvent@@@Z 100898ce f   qt-mt323:qt-mt323.dll
 0002:0005b8d4       ?keyPressEvent@QPopupMenu@@MAEXPAVQKeyEvent@@@Z 100898d4 f   qt-mt323:qt-mt323.dll
 0002:0005b8da       ?mouseMoveEvent@QPopupMenu@@MAEXPAVQMouseEvent@@@Z 100898da f   qt-mt323:qt-mt323.dll
 0002:0005b8e0       ?mouseReleaseEvent@QPopupMenu@@MAEXPAVQMouseEvent@@@Z 100898e0 f   qt-mt323:qt-mt323.dll
 0002:0005b8e6       ?mousePressEvent@QPopupMenu@@MAEXPAVQMouseEvent@@@Z 100898e6 f   qt-mt323:qt-mt323.dll
 0002:0005b8ec       ?customWhatsThis@QPopupMenu@@UBE_NXZ 100898ec f   qt-mt323:qt-mt323.dll
 0002:0005b8f2       ?sizeHint@QPopupMenu@@UBE?AVQSize@@XZ 100898f2 f   qt-mt323:qt-mt323.dll
 0002:0005b8f8       ?hide@QPopupMenu@@UAEXXZ   100898f8 f   qt-mt323:qt-mt323.dll
 0002:0005b8fe       ?show@QPopupMenu@@UAEXXZ   100898fe f   qt-mt323:qt-mt323.dll
 0002:0005b904       ?setFont@QPopupMenu@@UAEXABVQFont@@@Z 10089904 f   qt-mt323:qt-mt323.dll
 0002:0005b90a       ?timerEvent@QPopupMenu@@MAEXPAVQTimerEvent@@@Z 1008990a f   qt-mt323:qt-mt323.dll
 0002:0005b910       ?qt_property@QPopupMenu@@UAE_NHHPAVQVariant@@@Z 10089910 f   qt-mt323:qt-mt323.dll
 0002:0005b916       ?qt_emit@QPopupMenu@@UAE_NHPAUQUObject@@@Z 10089916 f   qt-mt323:qt-mt323.dll
 0002:0005b91c       ?qt_invoke@QPopupMenu@@UAE_NHPAUQUObject@@@Z 1008991c f   qt-mt323:qt-mt323.dll
 0002:0005b922       ?qt_cast@QPopupMenu@@UAEPAXPBD@Z 10089922 f   qt-mt323:qt-mt323.dll
 0002:0005b928       ?className@QPopupMenu@@UBEPBDXZ 10089928 f   qt-mt323:qt-mt323.dll
 0002:0005b92e       ?metaObject@QPopupMenu@@UBEPAVQMetaObject@@XZ 1008992e f   qt-mt323:qt-mt323.dll
 0002:0005b934       ?insertItem@QMenuData@@QAEHABVQString@@PAVQPopupMenu@@HH@Z 10089934 f   qt-mt323:qt-mt323.dll
 0002:0005b93a       ?insertSeparator@QMenuData@@QAEHH@Z 1008993a f   qt-mt323:qt-mt323.dll
 0002:0005b940       ?parentWidget@QWidget@@QBEPAV1@_N@Z 10089940 f   qt-mt323:qt-mt323.dll
 0002:0005b946       ?clear@QToolBar@@UAEXXZ    10089946 f   qt-mt323:qt-mt323.dll
 0002:0005b94c       ?setLabel@QToolBar@@UAEXABVQString@@@Z 1008994c f   qt-mt323:qt-mt323.dll
 0002:0005b952       ?setStretchableWidget@QToolBar@@UAEXPAVQWidget@@@Z 10089952 f   qt-mt323:qt-mt323.dll
 0002:0005b958       ?setOrientation@QToolBar@@UAEXW4Orientation@Qt@@@Z 10089958 f   qt-mt323:qt-mt323.dll
 0002:0005b95e       ?dock@QDockWindow@@UAEXXZ  1008995e f   qt-mt323:qt-mt323.dll
 0002:0005b964       ?undock@QDockWindow@@UAEXPAVQWidget@@@Z 10089964 f   qt-mt323:qt-mt323.dll
 0002:0005b96a       ?undock@QDockWindow@@UAEXXZ 1008996a f   qt-mt323:qt-mt323.dll
 0002:0005b970       ?setOpaqueMoving@QDockWindow@@UAEX_N@Z 10089970 f   qt-mt323:qt-mt323.dll
 0002:0005b976       ?setNewLine@QDockWindow@@UAEX_N@Z 10089976 f   qt-mt323:qt-mt323.dll
 0002:0005b97c       ?setFixedExtentHeight@QDockWindow@@UAEXH@Z 1008997c f   qt-mt323:qt-mt323.dll
 0002:0005b982       ?setFixedExtentWidth@QDockWindow@@UAEXH@Z 10089982 f   qt-mt323:qt-mt323.dll
 0002:0005b988       ?setOffset@QDockWindow@@UAEXH@Z 10089988 f   qt-mt323:qt-mt323.dll
 0002:0005b98e       ?setVerticallyStretchable@QDockWindow@@UAEX_N@Z 1008998e f   qt-mt323:qt-mt323.dll
 0002:0005b994       ?setHorizontallyStretchable@QDockWindow@@UAEX_N@Z 10089994 f   qt-mt323:qt-mt323.dll
 0002:0005b99a       ?setMovingEnabled@QDockWindow@@UAEX_N@Z 1008999a f   qt-mt323:qt-mt323.dll
 0002:0005b9a0       ?setResizeEnabled@QDockWindow@@UAEX_N@Z 100899a0 f   qt-mt323:qt-mt323.dll
 0002:0005b9a6       ?setCloseMode@QDockWindow@@UAEXH@Z 100899a6 f   qt-mt323:qt-mt323.dll
 0002:0005b9ac       ?setWidget@QDockWindow@@UAEXPAVQWidget@@@Z 100899ac f   qt-mt323:qt-mt323.dll
 0002:0005b9b2       ?frameChanged@QFrame@@MAEXXZ 100899b2 f   qt-mt323:qt-mt323.dll
 0002:0005b9b8       ?drawContents@QDockWindow@@MAEXPAVQPainter@@@Z 100899b8 f   qt-mt323:qt-mt323.dll
 0002:0005b9be       ?drawFrame@QDockWindow@@MAEXPAVQPainter@@@Z 100899be f   qt-mt323:qt-mt323.dll
 0002:0005b9c4       ?styleChange@QToolBar@@MAEXAAVQStyle@@@Z 100899c4 f   qt-mt323:qt-mt323.dll
 0002:0005b9ca       ?hideEvent@QDockWindow@@MAEXPAVQHideEvent@@@Z 100899ca f   qt-mt323:qt-mt323.dll
 0002:0005b9d0       ?showEvent@QDockWindow@@MAEXPAVQShowEvent@@@Z 100899d0 f   qt-mt323:qt-mt323.dll
 0002:0005b9d6       ?contextMenuEvent@QDockWindow@@MAEXPAVQContextMenuEvent@@@Z 100899d6 f   qt-mt323:qt-mt323.dll
 0002:0005b9dc       ?resizeEvent@QToolBar@@MAEXPAVQResizeEvent@@@Z 100899dc f   qt-mt323:qt-mt323.dll
 0002:0005b9e2       ?minimumSizeHint@QToolBar@@UBE?AVQSize@@XZ 100899e2 f   qt-mt323:qt-mt323.dll
 0002:0005b9e8       ?sizeHint@QDockWindow@@UBE?AVQSize@@XZ 100899e8 f   qt-mt323:qt-mt323.dll
 0002:0005b9ee       ?hide@QToolBar@@UAEXXZ     100899ee f   qt-mt323:qt-mt323.dll
 0002:0005b9f4       ?show@QToolBar@@UAEXXZ     100899f4 f   qt-mt323:qt-mt323.dll
 0002:0005b9fa       ?setCaption@QDockWindow@@UAEXABVQString@@@Z 100899fa f   qt-mt323:qt-mt323.dll
 0002:0005ba00       ?setMinimumSize@QToolBar@@UAEXHH@Z 10089a00 f   qt-mt323:qt-mt323.dll
 0002:0005ba06       ?eventFilter@QDockWindow@@UAE_NPAVQObject@@PAVQEvent@@@Z 10089a06 f   qt-mt323:qt-mt323.dll
 0002:0005ba0c       ?event@QToolBar@@UAE_NPAVQEvent@@@Z 10089a0c f   qt-mt323:qt-mt323.dll
 0002:0005ba12       ?qt_property@QToolBar@@UAE_NHHPAVQVariant@@@Z 10089a12 f   qt-mt323:qt-mt323.dll
 0002:0005ba18       ?qt_emit@QToolBar@@UAE_NHPAUQUObject@@@Z 10089a18 f   qt-mt323:qt-mt323.dll
 0002:0005ba1e       ?qt_invoke@QToolBar@@UAE_NHPAUQUObject@@@Z 10089a1e f   qt-mt323:qt-mt323.dll
 0002:0005ba24       ?qt_cast@QToolBar@@UAEPAXPBD@Z 10089a24 f   qt-mt323:qt-mt323.dll
 0002:0005ba2a       ?className@QToolBar@@UBEPBDXZ 10089a2a f   qt-mt323:qt-mt323.dll
 0002:0005ba30       ?metaObject@QToolBar@@UBEPAVQMetaObject@@XZ 10089a30 f   qt-mt323:qt-mt323.dll
 0002:0005ba36       ?addedTo@QActionGroup@@MAEXPAVQWidget@@0PAVQAction@@@Z 10089a36 f   qt-mt323:qt-mt323.dll
 0002:0005ba3c       ?addedTo@QActionGroup@@MAEXHPAVQPopupMenu@@PAVQAction@@@Z 10089a3c f   qt-mt323:qt-mt323.dll
 0002:0005ba42       ?setEnabled@QActionGroup@@UAEX_N@Z 10089a42 f   qt-mt323:qt-mt323.dll
 0002:0005ba48       ?setOn@QActionGroup@@UAEX_N@Z 10089a48 f   qt-mt323:qt-mt323.dll
 0002:0005ba4e       ?addedTo@QActionGroup@@MAEXPAVQWidget@@0@Z 10089a4e f   qt-mt323:qt-mt323.dll
 0002:0005ba54       ?addedTo@QActionGroup@@MAEXHPAVQPopupMenu@@@Z 10089a54 f   qt-mt323:qt-mt323.dll
 0002:0005ba5a       ?removeFrom@QActionGroup@@UAE_NPAVQWidget@@@Z 10089a5a f   qt-mt323:qt-mt323.dll
 0002:0005ba60       ?addTo@QActionGroup@@UAE_NPAVQWidget@@@Z 10089a60 f   qt-mt323:qt-mt323.dll
 0002:0005ba66       ?setToggleAction@QActionGroup@@UAEX_N@Z 10089a66 f   qt-mt323:qt-mt323.dll
 0002:0005ba6c       ?setWhatsThis@QActionGroup@@UAEXABVQString@@@Z 10089a6c f   qt-mt323:qt-mt323.dll
 0002:0005ba72       ?setToolTip@QActionGroup@@UAEXABVQString@@@Z 10089a72 f   qt-mt323:qt-mt323.dll
 0002:0005ba78       ?setMenuText@QActionGroup@@UAEXABVQString@@@Z 10089a78 f   qt-mt323:qt-mt323.dll
 0002:0005ba7e       ?setText@QActionGroup@@UAEXABVQString@@@Z 10089a7e f   qt-mt323:qt-mt323.dll
 0002:0005ba84       ?setIconSet@QActionGroup@@UAEXABVQIconSet@@@Z 10089a84 f   qt-mt323:qt-mt323.dll
 0002:0005ba8a       ?childEvent@QActionGroup@@MAEXPAVQChildEvent@@@Z 10089a8a f   qt-mt323:qt-mt323.dll
 0002:0005ba90       ?qt_property@QActionGroup@@UAE_NHHPAVQVariant@@@Z 10089a90 f   qt-mt323:qt-mt323.dll
 0002:0005ba96       ?qt_emit@QActionGroup@@UAE_NHPAUQUObject@@@Z 10089a96 f   qt-mt323:qt-mt323.dll
 0002:0005ba9c       ?qt_invoke@QActionGroup@@UAE_NHPAUQUObject@@@Z 10089a9c f   qt-mt323:qt-mt323.dll
 0002:0005baa2       ?qt_cast@QActionGroup@@UAEPAXPBD@Z 10089aa2 f   qt-mt323:qt-mt323.dll
 0002:0005baa8       ?className@QActionGroup@@UBEPBDXZ 10089aa8 f   qt-mt323:qt-mt323.dll
 0002:0005baae       ?metaObject@QActionGroup@@UBEPAVQMetaObject@@XZ 10089aae f   qt-mt323:qt-mt323.dll
 0002:0005bab4       ?setEnabled@QAction@@UAEX_N@Z 10089ab4 f   qt-mt323:qt-mt323.dll
 0002:0005baba       ?setOn@QAction@@UAEX_N@Z   10089aba f   qt-mt323:qt-mt323.dll
 0002:0005bac0       ?addedTo@QAction@@MAEXPAVQWidget@@0@Z 10089ac0 f   qt-mt323:qt-mt323.dll
 0002:0005bac6       ?addedTo@QAction@@MAEXHPAVQPopupMenu@@@Z 10089ac6 f   qt-mt323:qt-mt323.dll
 0002:0005bacc       ?removeFrom@QAction@@UAE_NPAVQWidget@@@Z 10089acc f   qt-mt323:qt-mt323.dll
 0002:0005bad2       ?addTo@QAction@@UAE_NPAVQWidget@@@Z 10089ad2 f   qt-mt323:qt-mt323.dll
 0002:0005bad8       ?setToggleAction@QAction@@UAEX_N@Z 10089ad8 f   qt-mt323:qt-mt323.dll
 0002:0005bade       ?setAccel@QAction@@UAEXABVQKeySequence@@@Z 10089ade f   qt-mt323:qt-mt323.dll
 0002:0005bae4       ?setWhatsThis@QAction@@UAEXABVQString@@@Z 10089ae4 f   qt-mt323:qt-mt323.dll
 0002:0005baea       ?setStatusTip@QAction@@UAEXABVQString@@@Z 10089aea f   qt-mt323:qt-mt323.dll
 0002:0005baf0       ?setToolTip@QAction@@UAEXABVQString@@@Z 10089af0 f   qt-mt323:qt-mt323.dll
 0002:0005baf6       ?setMenuText@QAction@@UAEXABVQString@@@Z 10089af6 f   qt-mt323:qt-mt323.dll
 0002:0005bafc       ?setText@QAction@@UAEXABVQString@@@Z 10089afc f   qt-mt323:qt-mt323.dll
 0002:0005bb02       ?setIconSet@QAction@@UAEXABVQIconSet@@@Z 10089b02 f   qt-mt323:qt-mt323.dll
 0002:0005bb08       ?qt_property@QAction@@UAE_NHHPAVQVariant@@@Z 10089b08 f   qt-mt323:qt-mt323.dll
 0002:0005bb0e       ?qt_emit@QAction@@UAE_NHPAUQUObject@@@Z 10089b0e f   qt-mt323:qt-mt323.dll
 0002:0005bb14       ?qt_invoke@QAction@@UAE_NHPAUQUObject@@@Z 10089b14 f   qt-mt323:qt-mt323.dll
 0002:0005bb1a       ?qt_cast@QAction@@UAEPAXPBD@Z 10089b1a f   qt-mt323:qt-mt323.dll
 0002:0005bb20       ?className@QAction@@UBEPBDXZ 10089b20 f   qt-mt323:qt-mt323.dll
 0002:0005bb26       ?metaObject@QAction@@UBEPAVQMetaObject@@XZ 10089b26 f   qt-mt323:qt-mt323.dll
 0002:0005bb2c       ?addMultiCellLayout@QGridLayout@@QAEXPAVQLayout@@HHHHH@Z 10089b2c f   qt-mt323:qt-mt323.dll
 0002:0005bb32       ?addMultiCellWidget@QGridLayout@@QAEXPAVQWidget@@HHHHH@Z 10089b32 f   qt-mt323:qt-mt323.dll
 0002:0005bb38       ??0QVariant@@QAE@ABV0@@Z   10089b38 f   qt-mt323:qt-mt323.dll
 0002:0005bb3e       ?addWidget@QWidgetStack@@QAEHPAVQWidget@@H@Z 10089b3e f   qt-mt323:qt-mt323.dll
 0002:0005bb44       ?toInt@QVariant@@QBEHPA_N@Z 10089b44 f   qt-mt323:qt-mt323.dll
 0002:0005bb4a       ??0QVariant@@QAE@ABVQString@@@Z 10089b4a f   qt-mt323:qt-mt323.dll
 0002:0005bb50       ?addSeparator@QToolBar@@QAEXXZ 10089b50 f   qt-mt323:qt-mt323.dll
 0002:0005bb56       ??1QPalette@@QAE@XZ        10089b56 f   qt-mt323:qt-mt323.dll
 0002:0005bb5c       ??0QVariant@@QAE@ABVQPalette@@@Z 10089b5c f   qt-mt323:qt-mt323.dll
 0002:0005bb62       ?setActive@QPalette@@QAEXABVQColorGroup@@@Z 10089b62 f   qt-mt323:qt-mt323.dll
 0002:0005bb68       ?setColor@QColorGroup@@QAEXW4ColorRole@1@ABVQColor@@@Z 10089b68 f   qt-mt323:qt-mt323.dll
 0002:0005bb6e       ?setDisabled@QPalette@@QAEXABVQColorGroup@@@Z 10089b6e f   qt-mt323:qt-mt323.dll
 0002:0005bb74       ?setInactive@QPalette@@QAEXABVQColorGroup@@@Z 10089b74 f   qt-mt323:qt-mt323.dll
 0002:0005bb7a       ??1QBrush@@QAE@XZ          10089b7a f   qt-mt323:qt-mt323.dll
 0002:0005bb80       ?setBrush@QColorGroup@@QAEXW4ColorRole@1@ABVQBrush@@@Z 10089b80 f   qt-mt323:qt-mt323.dll
 0002:0005bb86       ??0QBrush@@QAE@ABVQColor@@ABVQPixmap@@@Z 10089b86 f   qt-mt323:qt-mt323.dll
 0002:0005bb8c       ??0QColorGroup@@QAE@XZ     10089b8c f   qt-mt323:qt-mt323.dll
 0002:0005bb92       ??0QPalette@@QAE@XZ        10089b92 f   qt-mt323:qt-mt323.dll
 0002:0005bb98       ??0QVariant@@QAE@ABVQFont@@@Z 10089b98 f   qt-mt323:qt-mt323.dll
 0002:0005bb9e       ?setStrikeOut@QFont@@QAEX_N@Z 10089b9e f   qt-mt323:qt-mt323.dll
 0002:0005bba4       ?setUnderline@QFont@@QAEX_N@Z 10089ba4 f   qt-mt323:qt-mt323.dll
 0002:0005bbaa       ?setItalic@QFont@@QAEX_N@Z 10089baa f   qt-mt323:qt-mt323.dll
 0002:0005bbb0       ?setWeight@QFont@@QAEXH@Z  10089bb0 f   qt-mt323:qt-mt323.dll
 0002:0005bbb6       ??0QFont@@QAE@XZ           10089bb6 f   qt-mt323:qt-mt323.dll
 0002:0005bbbc       ??0QCString@@QAE@PBD@Z     10089bbc f   qt-mt323:qt-mt323.dll
 0002:0005bbc2       ??0QString@@QAE@ABV?$QMemArray@D@@@Z 10089bc2 f   qt-mt323:qt-mt323.dll
 0002:0005bbc8       ??0QToolBar@@QAE@ABVQString@@PAVQMainWindow@@W4Dock@Qt@@_NPBD@Z 10089bc8 f   qt-mt323:qt-mt323.dll
 0002:0005bbce       ?menuBar@QMainWindow@@QBEPAVQMenuBar@@XZ 10089bce f   qt-mt323:qt-mt323.dll
 0002:0005bbd4       ??0QAction@@QAE@PAVQObject@@PBD@Z 10089bd4 f   qt-mt323:qt-mt323.dll
 0002:0005bbda       ??0QActionGroup@@QAE@PAVQObject@@PBD@Z 10089bda f   qt-mt323:qt-mt323.dll
 0002:0005bbe0       ?centralWidget@QMainWindow@@QBEPAVQWidget@@XZ 10089be0 f   qt-mt323:qt-mt323.dll
 0002:0005bbe6       ?isEmpty@QCString@@QBE_NXZ 10089be6 f   qt-mt323:qt-mt323.dll
 0002:0005bbec       ??1QActionGroup@@UAE@XZ    10089bec f   qt-mt323:qt-mt323.dll
 0002:0005bbf2       ??1QAction@@UAE@XZ         10089bf2 f   qt-mt323:qt-mt323.dll
 0002:0005bbf8       ??1QToolBar@@UAE@XZ        10089bf8 f   qt-mt323:qt-mt323.dll
 0002:0005bbfe       ?setTabOrder@QWidget@@SAXPAV1@0@Z 10089bfe f   qt-mt323:qt-mt323.dll
 0002:0005bc04       ?qWarning@@YAXPBDZZ        10089c04 f   qt-mt323:qt-mt323.dll
 0002:0005bc0a       ??1QGArray@@MAE@XZ         10089c0a f   qt-mt323:qt-mt323.dll
 0002:0005bc10       ??0QGArray@@IAE@ABV0@@Z    10089c10 f   qt-mt323:qt-mt323.dll
 0002:0005bc16       ?resize@QCString@@QAE_NI@Z 10089c16 f   qt-mt323:qt-mt323.dll
 0002:0005bc1c       ??0QImage@@QAE@ABV0@@Z     10089c1c f   qt-mt323:qt-mt323.dll
 0002:0005bc22       ?loadFromData@QImage@@QAE_NPBEIPBD@Z 10089c22 f   qt-mt323:qt-mt323.dll
 0002:0005bc28       ?qUncompress@@YA?AV?$QMemArray@D@@PBEH@Z 10089c28 f   qt-mt323:qt-mt323.dll
 0002:0005bc2e       ??0QGArray@@IAE@H@Z        10089c2e f   qt-mt323:qt-mt323.dll
 0002:0005bc34       ?setEditText@QComboBox@@UAEXABVQString@@@Z 10089c34 f   qt-mt323:qt-mt323.dll
 0002:0005bc3a       ?popup@QComboBox@@UAEXXZ   10089c3a f   qt-mt323:qt-mt323.dll
 0002:0005bc40       ?setAutoCompletion@QComboBox@@UAEX_N@Z 10089c40 f   qt-mt323:qt-mt323.dll
 0002:0005bc46       ?setLineEdit@QComboBox@@UAEXPAVQLineEdit@@@Z 10089c46 f   qt-mt323:qt-mt323.dll
 0002:0005bc4c       ?setListBox@QComboBox@@UAEXPAVQListBox@@@Z 10089c4c f   qt-mt323:qt-mt323.dll
 0002:0005bc52       ?setValidator@QComboBox@@UAEXPBVQValidator@@@Z 10089c52 f   qt-mt323:qt-mt323.dll
 0002:0005bc58       ?setInsertionPolicy@QComboBox@@UAEXW4Policy@1@@Z 10089c58 f   qt-mt323:qt-mt323.dll
 0002:0005bc5e       ?setMaxCount@QComboBox@@UAEXH@Z 10089c5e f   qt-mt323:qt-mt323.dll
 0002:0005bc64       ?setSizeLimit@QComboBox@@UAEXH@Z 10089c64 f   qt-mt323:qt-mt323.dll
 0002:0005bc6a       ?setAutoResize@QComboBox@@UAEX_N@Z 10089c6a f   qt-mt323:qt-mt323.dll
 0002:0005bc70       ?setCurrentText@QComboBox@@UAEXABVQString@@@Z 10089c70 f   qt-mt323:qt-mt323.dll
 0002:0005bc76       ?setCurrentItem@QComboBox@@UAEXH@Z 10089c76 f   qt-mt323:qt-mt323.dll
 0002:0005bc7c       ?styleChange@QComboBox@@MAEXAAVQStyle@@@Z 10089c7c f   qt-mt323:qt-mt323.dll
 0002:0005bc82       ?updateMask@QComboBox@@MAEXXZ 10089c82 f   qt-mt323:qt-mt323.dll
 0002:0005bc88       ?resizeEvent@QComboBox@@MAEXPAVQResizeEvent@@@Z 10089c88 f   qt-mt323:qt-mt323.dll
 0002:0005bc8e       ?paintEvent@QComboBox@@MAEXPAVQPaintEvent@@@Z 10089c8e f   qt-mt323:qt-mt323.dll
 0002:0005bc94       ?focusOutEvent@QComboBox@@MAEXPAVQFocusEvent@@@Z 10089c94 f   qt-mt323:qt-mt323.dll
 0002:0005bc9a       ?focusInEvent@QComboBox@@MAEXPAVQFocusEvent@@@Z 10089c9a f   qt-mt323:qt-mt323.dll
 0002:0005bca0       ?keyPressEvent@QComboBox@@MAEXPAVQKeyEvent@@@Z 10089ca0 f   qt-mt323:qt-mt323.dll
 0002:0005bca6       ?wheelEvent@QComboBox@@MAEXPAVQWheelEvent@@@Z 10089ca6 f   qt-mt323:qt-mt323.dll
 0002:0005bcac       ?mouseMoveEvent@QComboBox@@MAEXPAVQMouseEvent@@@Z 10089cac f   qt-mt323:qt-mt323.dll
 0002:0005bcb2       ?mouseDoubleClickEvent@QComboBox@@MAEXPAVQMouseEvent@@@Z 10089cb2 f   qt-mt323:qt-mt323.dll
 0002:0005bcb8       ?mouseReleaseEvent@QComboBox@@MAEXPAVQMouseEvent@@@Z 10089cb8 f   qt-mt323:qt-mt323.dll
 0002:0005bcbe       ?mousePressEvent@QComboBox@@MAEXPAVQMouseEvent@@@Z 10089cbe f   qt-mt323:qt-mt323.dll
 0002:0005bcc4       ?sizeHint@QComboBox@@UBE?AVQSize@@XZ 10089cc4 f   qt-mt323:qt-mt323.dll
 0002:0005bcca       ?setFont@QComboBox@@UAEXABVQFont@@@Z 10089cca f   qt-mt323:qt-mt323.dll
 0002:0005bcd0       ?setPalette@QComboBox@@UAEXABVQPalette@@@Z 10089cd0 f   qt-mt323:qt-mt323.dll
 0002:0005bcd6       ?setEnabled@QComboBox@@UAEX_N@Z 10089cd6 f   qt-mt323:qt-mt323.dll
 0002:0005bcdc       ?eventFilter@QComboBox@@UAE_NPAVQObject@@PAVQEvent@@@Z 10089cdc f   qt-mt323:qt-mt323.dll
 0002:0005bce2       ?qt_property@QComboBox@@UAE_NHHPAVQVariant@@@Z 10089ce2 f   qt-mt323:qt-mt323.dll
 0002:0005bce8       ?qt_emit@QComboBox@@UAE_NHPAUQUObject@@@Z 10089ce8 f   qt-mt323:qt-mt323.dll
 0002:0005bcee       ?qt_invoke@QComboBox@@UAE_NHPAUQUObject@@@Z 10089cee f   qt-mt323:qt-mt323.dll
 0002:0005bcf4       ?qt_cast@QComboBox@@UAEPAXPBD@Z 10089cf4 f   qt-mt323:qt-mt323.dll
 0002:0005bcfa       ?className@QComboBox@@UBEPBDXZ 10089cfa f   qt-mt323:qt-mt323.dll
 0002:0005bd00       ?metaObject@QComboBox@@UBEPAVQMetaObject@@XZ 10089d00 f   qt-mt323:qt-mt323.dll
 0002:0005bd06       ?end@QMultiLineEdit@@MAEX_N@Z 10089d06 f   qt-mt323:qt-mt323.dll
 0002:0005bd0c       ?home@QMultiLineEdit@@MAEX_N@Z 10089d0c f   qt-mt323:qt-mt323.dll
 0002:0005bd12       ?backspace@QMultiLineEdit@@MAEXXZ 10089d12 f   qt-mt323:qt-mt323.dll
 0002:0005bd18       ?cursorDown@QMultiLineEdit@@MAEX_N@Z 10089d18 f   qt-mt323:qt-mt323.dll
 0002:0005bd1e       ?cursorUp@QMultiLineEdit@@MAEX_N@Z 10089d1e f   qt-mt323:qt-mt323.dll
 0002:0005bd24       ?cursorRight@QMultiLineEdit@@MAEX_N0@Z 10089d24 f   qt-mt323:qt-mt323.dll
 0002:0005bd2a       ?cursorLeft@QMultiLineEdit@@MAEX_N0@Z 10089d2a f   qt-mt323:qt-mt323.dll
 0002:0005bd30       ?pageDown@QMultiLineEdit@@MAEX_N@Z 10089d30 f   qt-mt323:qt-mt323.dll
 0002:0005bd36       ?pageUp@QMultiLineEdit@@MAEX_N@Z 10089d36 f   qt-mt323:qt-mt323.dll
 0002:0005bd3c       ?killLine@QMultiLineEdit@@MAEXXZ 10089d3c f   qt-mt323:qt-mt323.dll
 0002:0005bd42       ?newLine@QMultiLineEdit@@MAEXXZ 10089d42 f   qt-mt323:qt-mt323.dll
 0002:0005bd48       ?insertAndMark@QMultiLineEdit@@MAEXABVQString@@_N@Z 10089d48 f   qt-mt323:qt-mt323.dll
 0002:0005bd4e       ?setAutoUpdate@QMultiLineEdit@@UAEX_N@Z 10089d4e f   qt-mt323:qt-mt323.dll
 0002:0005bd54       ?setCursorPosition@QMultiLineEdit@@UAEXHH_N@Z 10089d54 f   qt-mt323:qt-mt323.dll
 0002:0005bd5a       ?removeLine@QMultiLineEdit@@UAEXH@Z 10089d5a f   qt-mt323:qt-mt323.dll
 0002:0005bd60       ?insertAt@QMultiLineEdit@@UAEXABVQString@@HH_N@Z 10089d60 f   qt-mt323:qt-mt323.dll
 0002:0005bd66       ?insertLine@QMultiLineEdit@@UAEXABVQString@@H@Z 10089d66 f   qt-mt323:qt-mt323.dll
 0002:0005bd6c       ?insertAt@QMultiLineEdit@@UAEXABVQString@@HH@Z 10089d6c f   qt-mt323:qt-mt323.dll
 0002:0005bd72       ?setCursorPosition@QMultiLineEdit@@UAEXHH@Z 10089d72 f   qt-mt323:qt-mt323.dll
 0002:0005bd78       ?setAlignment@QMultiLineEdit@@UAEXH@Z 10089d78 f   qt-mt323:qt-mt323.dll
 0002:0005bd7e       ?qt_property@QMultiLineEdit@@UAE_NHHPAVQVariant@@@Z 10089d7e f   qt-mt323:qt-mt323.dll
 0002:0005bd84       ?qt_emit@QMultiLineEdit@@UAE_NHPAUQUObject@@@Z 10089d84 f   qt-mt323:qt-mt323.dll
 0002:0005bd8a       ?qt_invoke@QMultiLineEdit@@UAE_NHPAUQUObject@@@Z 10089d8a f   qt-mt323:qt-mt323.dll
 0002:0005bd90       ?qt_cast@QMultiLineEdit@@UAEPAXPBD@Z 10089d90 f   qt-mt323:qt-mt323.dll
 0002:0005bd96       ?className@QMultiLineEdit@@UBEPBDXZ 10089d96 f   qt-mt323:qt-mt323.dll
 0002:0005bd9c       ?metaObject@QMultiLineEdit@@UBEPAVQMetaObject@@XZ 10089d9c f   qt-mt323:qt-mt323.dll
 0002:0005bda2       ?layOutTitleRow@QWizard@@MAEXPAVQHBoxLayout@@ABVQString@@@Z 10089da2 f   qt-mt323:qt-mt323.dll
 0002:0005bda8       ?layOutButtonRow@QWizard@@MAEXPAVQHBoxLayout@@@Z 10089da8 f   qt-mt323:qt-mt323.dll
 0002:0005bdae       ?help@QWizard@@MAEXXZ      10089dae f   qt-mt323:qt-mt323.dll
 0002:0005bdb4       ?next@QWizard@@MAEXXZ      10089db4 f   qt-mt323:qt-mt323.dll
 0002:0005bdba       ?back@QWizard@@MAEXXZ      10089dba f   qt-mt323:qt-mt323.dll
 0002:0005bdc0       ?setFinish@QWizard@@UAEXPAVQWidget@@_N@Z 10089dc0 f   qt-mt323:qt-mt323.dll
 0002:0005bdc6       ?setHelpEnabled@QWizard@@UAEXPAVQWidget@@_N@Z 10089dc6 f   qt-mt323:qt-mt323.dll
 0002:0005bdcc       ?setFinishEnabled@QWizard@@UAEXPAVQWidget@@_N@Z 10089dcc f   qt-mt323:qt-mt323.dll
 0002:0005bdd2       ?setNextEnabled@QWizard@@UAEXPAVQWidget@@_N@Z 10089dd2 f   qt-mt323:qt-mt323.dll
 0002:0005bdd8       ?setBackEnabled@QWizard@@UAEXPAVQWidget@@_N@Z 10089dd8 f   qt-mt323:qt-mt323.dll
 0002:0005bdde       ?setAppropriate@QWizard@@UAEXPAVQWidget@@_N@Z 10089dde f   qt-mt323:qt-mt323.dll
 0002:0005bde4       ?appropriate@QWizard@@UBE_NPAVQWidget@@@Z 10089de4 f   qt-mt323:qt-mt323.dll
 0002:0005bdea       ?showPage@QWizard@@UAEXPAVQWidget@@@Z 10089dea f   qt-mt323:qt-mt323.dll
 0002:0005bdf0       ?removePage@QWizard@@UAEXPAVQWidget@@@Z 10089df0 f   qt-mt323:qt-mt323.dll
 0002:0005bdf6       ?insertPage@QWizard@@UAEXPAVQWidget@@ABVQString@@H@Z 10089df6 f   qt-mt323:qt-mt323.dll
 0002:0005bdfc       ?addPage@QWizard@@UAEXPAVQWidget@@ABVQString@@@Z 10089dfc f   qt-mt323:qt-mt323.dll
 0002:0005be02       ?show@QWizard@@UAEXXZ      10089e02 f   qt-mt323:qt-mt323.dll
 0002:0005be08       ?setFont@QWizard@@UAEXABVQFont@@@Z 10089e08 f   qt-mt323:qt-mt323.dll
 0002:0005be0e       ?eventFilter@QWizard@@UAE_NPAVQObject@@PAVQEvent@@@Z 10089e0e f   qt-mt323:qt-mt323.dll
 0002:0005be14       ?qt_property@QWizard@@UAE_NHHPAVQVariant@@@Z 10089e14 f   qt-mt323:qt-mt323.dll
 0002:0005be1a       ?qt_emit@QWizard@@UAE_NHPAUQUObject@@@Z 10089e1a f   qt-mt323:qt-mt323.dll
 0002:0005be20       ?qt_invoke@QWizard@@UAE_NHPAUQUObject@@@Z 10089e20 f   qt-mt323:qt-mt323.dll
 0002:0005be26       ?qt_cast@QWizard@@UAEPAXPBD@Z 10089e26 f   qt-mt323:qt-mt323.dll
 0002:0005be2c       ?className@QWizard@@UBEPBDXZ 10089e2c f   qt-mt323:qt-mt323.dll
 0002:0005be32       ?metaObject@QWizard@@UBEPAVQMetaObject@@XZ 10089e32 f   qt-mt323:qt-mt323.dll
 0002:0005be38       ?rangeChange@QSlider@@MAEXXZ 10089e38 f   qt-mt323:qt-mt323.dll
 0002:0005be3e       ?valueChange@QSlider@@MAEXXZ 10089e3e f   qt-mt323:qt-mt323.dll
 0002:0005be44       ?setValue@QSlider@@UAEXH@Z 10089e44 f   qt-mt323:qt-mt323.dll
 0002:0005be4a       ?setTickInterval@QSlider@@UAEXH@Z 10089e4a f   qt-mt323:qt-mt323.dll
 0002:0005be50       ?setTickmarks@QSlider@@UAEXW4TickSetting@1@@Z 10089e50 f   qt-mt323:qt-mt323.dll
 0002:0005be56       ?setTracking@QSlider@@UAEX_N@Z 10089e56 f   qt-mt323:qt-mt323.dll
 0002:0005be5c       ?setOrientation@QSlider@@UAEXW4Orientation@Qt@@@Z 10089e5c f   qt-mt323:qt-mt323.dll
 0002:0005be62       ?styleChange@QSlider@@MAEXAAVQStyle@@@Z 10089e62 f   qt-mt323:qt-mt323.dll
 0002:0005be68       ?resizeEvent@QSlider@@MAEXPAVQResizeEvent@@@Z 10089e68 f   qt-mt323:qt-mt323.dll
 0002:0005be6e       ?paintEvent@QSlider@@MAEXPAVQPaintEvent@@@Z 10089e6e f   qt-mt323:qt-mt323.dll
 0002:0005be74       ?focusOutEvent@QSlider@@MAEXPAVQFocusEvent@@@Z 10089e74 f   qt-mt323:qt-mt323.dll
 0002:0005be7a       ?focusInEvent@QSlider@@MAEXPAVQFocusEvent@@@Z 10089e7a f   qt-mt323:qt-mt323.dll
 0002:0005be80       ?keyPressEvent@QSlider@@MAEXPAVQKeyEvent@@@Z 10089e80 f   qt-mt323:qt-mt323.dll
 0002:0005be86       ?wheelEvent@QSlider@@MAEXPAVQWheelEvent@@@Z 10089e86 f   qt-mt323:qt-mt323.dll
 0002:0005be8c       ?mouseMoveEvent@QSlider@@MAEXPAVQMouseEvent@@@Z 10089e8c f   qt-mt323:qt-mt323.dll
 0002:0005be92       ?mouseReleaseEvent@QSlider@@MAEXPAVQMouseEvent@@@Z 10089e92 f   qt-mt323:qt-mt323.dll
 0002:0005be98       ?mousePressEvent@QSlider@@MAEXPAVQMouseEvent@@@Z 10089e98 f   qt-mt323:qt-mt323.dll
 0002:0005be9e       ?setSizePolicy@QSlider@@UAEXVQSizePolicy@@@Z 10089e9e f   qt-mt323:qt-mt323.dll
 0002:0005bea4       ?sizePolicy@QSlider@@UBE?AVQSizePolicy@@XZ 10089ea4 f   qt-mt323:qt-mt323.dll
 0002:0005beaa       ?minimumSizeHint@QSlider@@UBE?AVQSize@@XZ 10089eaa f   qt-mt323:qt-mt323.dll
 0002:0005beb0       ?sizeHint@QSlider@@UBE?AVQSize@@XZ 10089eb0 f   qt-mt323:qt-mt323.dll
 0002:0005beb6       ?setPalette@QSlider@@UAEXABVQPalette@@@Z 10089eb6 f   qt-mt323:qt-mt323.dll
 0002:0005bebc       ?qt_property@QSlider@@UAE_NHHPAVQVariant@@@Z 10089ebc f   qt-mt323:qt-mt323.dll
 0002:0005bec2       ?qt_emit@QSlider@@UAE_NHPAUQUObject@@@Z 10089ec2 f   qt-mt323:qt-mt323.dll
 0002:0005bec8       ?qt_invoke@QSlider@@UAE_NHPAUQUObject@@@Z 10089ec8 f   qt-mt323:qt-mt323.dll
 0002:0005bece       ?qt_cast@QSlider@@UAEPAXPBD@Z 10089ece f   qt-mt323:qt-mt323.dll
 0002:0005bed4       ?className@QSlider@@UBEPBDXZ 10089ed4 f   qt-mt323:qt-mt323.dll
 0002:0005beda       ?metaObject@QSlider@@UBEPAVQMetaObject@@XZ 10089eda f   qt-mt323:qt-mt323.dll
 0002:0005bee0       ?stepChange@QScrollBar@@MAEXXZ 10089ee0 f   qt-mt323:qt-mt323.dll
 0002:0005bee6       ?rangeChange@QScrollBar@@MAEXXZ 10089ee6 f   qt-mt323:qt-mt323.dll
 0002:0005beec       ?valueChange@QScrollBar@@MAEXXZ 10089eec f   qt-mt323:qt-mt323.dll
 0002:0005bef2       ?setTracking@QScrollBar@@UAEX_N@Z 10089ef2 f   qt-mt323:qt-mt323.dll
 0002:0005bef8       ?setOrientation@QScrollBar@@UAEXW4Orientation@Qt@@@Z 10089ef8 f   qt-mt323:qt-mt323.dll
 0002:0005befe       ?styleChange@QScrollBar@@MAEXAAVQStyle@@@Z 10089efe f   qt-mt323:qt-mt323.dll
 0002:0005bf04       ?hideEvent@QScrollBar@@MAEXPAVQHideEvent@@@Z 10089f04 f   qt-mt323:qt-mt323.dll
 0002:0005bf0a       ?contextMenuEvent@QScrollBar@@MAEXPAVQContextMenuEvent@@@Z 10089f0a f   qt-mt323:qt-mt323.dll
 0002:0005bf10       ?resizeEvent@QScrollBar@@MAEXPAVQResizeEvent@@@Z 10089f10 f   qt-mt323:qt-mt323.dll
 0002:0005bf16       ?paintEvent@QScrollBar@@MAEXPAVQPaintEvent@@@Z 10089f16 f   qt-mt323:qt-mt323.dll
 0002:0005bf1c       ?keyPressEvent@QScrollBar@@MAEXPAVQKeyEvent@@@Z 10089f1c f   qt-mt323:qt-mt323.dll
 0002:0005bf22       ?wheelEvent@QScrollBar@@MAEXPAVQWheelEvent@@@Z 10089f22 f   qt-mt323:qt-mt323.dll
 0002:0005bf28       ?mouseMoveEvent@QScrollBar@@MAEXPAVQMouseEvent@@@Z 10089f28 f   qt-mt323:qt-mt323.dll
 0002:0005bf2e       ?mouseReleaseEvent@QScrollBar@@MAEXPAVQMouseEvent@@@Z 10089f2e f   qt-mt323:qt-mt323.dll
 0002:0005bf34       ?mousePressEvent@QScrollBar@@MAEXPAVQMouseEvent@@@Z 10089f34 f   qt-mt323:qt-mt323.dll
 0002:0005bf3a       ?setSizePolicy@QScrollBar@@UAEXVQSizePolicy@@@Z 10089f3a f   qt-mt323:qt-mt323.dll
 0002:0005bf40       ?sizeHint@QScrollBar@@UBE?AVQSize@@XZ 10089f40 f   qt-mt323:qt-mt323.dll
 0002:0005bf46       ?setPalette@QScrollBar@@UAEXABVQPalette@@@Z 10089f46 f   qt-mt323:qt-mt323.dll
 0002:0005bf4c       ?qt_property@QScrollBar@@UAE_NHHPAVQVariant@@@Z 10089f4c f   qt-mt323:qt-mt323.dll
 0002:0005bf52       ?qt_emit@QScrollBar@@UAE_NHPAUQUObject@@@Z 10089f52 f   qt-mt323:qt-mt323.dll
 0002:0005bf58       ?qt_invoke@QScrollBar@@UAE_NHPAUQUObject@@@Z 10089f58 f   qt-mt323:qt-mt323.dll
 0002:0005bf5e       ?qt_cast@QScrollBar@@UAEPAXPBD@Z 10089f5e f   qt-mt323:qt-mt323.dll
 0002:0005bf64       ?className@QScrollBar@@UBEPBDXZ 10089f64 f   qt-mt323:qt-mt323.dll
 0002:0005bf6a       ?metaObject@QScrollBar@@UBEPAVQMetaObject@@XZ 10089f6a f   qt-mt323:qt-mt323.dll
 0002:0005bf70       ?columnClicked@QTable@@MAEXH@Z 10089f70 f   qt-mt323:qt-mt323.dll
 0002:0005bf76       ?resizeData@QTable@@MAEXH@Z 10089f76 f   qt-mt323:qt-mt323.dll
 0002:0005bf7c       ?endEdit@QTable@@MAEXHH_N0@Z 10089f7c f   qt-mt323:qt-mt323.dll
 0002:0005bf82       ?beginEdit@QTable@@MAEPAVQWidget@@HH_N@Z 10089f82 f   qt-mt323:qt-mt323.dll
 0002:0005bf88       ?createEditor@QTable@@MBEPAVQWidget@@HH_N@Z 10089f88 f   qt-mt323:qt-mt323.dll
 0002:0005bf8e       ?activateNextCell@QTable@@MAEXXZ 10089f8e f   qt-mt323:qt-mt323.dll
 0002:0005bf94       ?swapColumns@QTable@@UAEXHH_N@Z 10089f94 f   qt-mt323:qt-mt323.dll
 0002:0005bf9a       ?setColumnStretchable@QTable@@UAEXH_N@Z 10089f9a f   qt-mt323:qt-mt323.dll
 0002:0005bfa0       ?adjustColumn@QTable@@UAEXH@Z 10089fa0 f   qt-mt323:qt-mt323.dll
 0002:0005bfa6       ?setColumnWidth@QTable@@UAEXHH@Z 10089fa6 f   qt-mt323:qt-mt323.dll
 0002:0005bfac       ?showColumn@QTable@@UAEXH@Z 10089fac f   qt-mt323:qt-mt323.dll
 0002:0005bfb2       ?hideColumn@QTable@@UAEXH@Z 10089fb2 f   qt-mt323:qt-mt323.dll
 0002:0005bfb8       ?setNumCols@QTable@@UAEXH@Z 10089fb8 f   qt-mt323:qt-mt323.dll
 0002:0005bfbe       ?setNumRows@QTable@@UAEXH@Z 10089fbe f   qt-mt323:qt-mt323.dll
 0002:0005bfc4       ?paintCell@QTable@@UAEXPAVQPainter@@HHABVQRect@@_NABVQColorGroup@@@Z 10089fc4 f   qt-mt323:qt-mt323.dll
 0002:0005bfca       ?takeItem@QTable@@UAEXPAVQTableItem@@@Z 10089fca f   qt-mt323:qt-mt323.dll
 0002:0005bfd0       ?sortColumn@QTable@@UAEXH_N0@Z 10089fd0 f   qt-mt323:qt-mt323.dll
 0002:0005bfd6       ?numCols@QTable@@UBEHXZ    10089fd6 f   qt-mt323:qt-mt323.dll
 0002:0005bfdc       ?numRows@QTable@@UBEHXZ    10089fdc f   qt-mt323:qt-mt323.dll
 0002:0005bfe2       ?clearCell@QTable@@UAEXHH@Z 10089fe2 f   qt-mt323:qt-mt323.dll
 0002:0005bfe8       ?text@QTable@@UBE?AVQString@@HH@Z 10089fe8 f   qt-mt323:qt-mt323.dll
 0002:0005bfee       ?item@QTable@@UBEPAVQTableItem@@HH@Z 10089fee f   qt-mt323:qt-mt323.dll
 0002:0005bff4       ?setPixmap@QTable@@UAEXHHABVQPixmap@@@Z 10089ff4 f   qt-mt323:qt-mt323.dll
 0002:0005bffa       ?setItem@QTable@@UAEXHHPAVQTableItem@@@Z 10089ffa f   qt-mt323:qt-mt323.dll
 0002:0005c000       ?contentsContextMenuEvent@QTable@@MAEXPAVQContextMenuEvent@@@Z 1008a000 f   qt-mt323:qt-mt323.dll
 0002:0005c006       ?contentsMousePressEvent@QTable@@MAEXPAVQMouseEvent@@@Z 1008a006 f   qt-mt323:qt-mt323.dll
 0002:0005c00c       ?drawContents@QTable@@MAEXPAVQPainter@@HHHH@Z 1008a00c f   qt-mt323:qt-mt323.dll
 0002:0005c012       ?resizeEvent@QScrollView@@MAEXPAVQResizeEvent@@@Z 1008a012 f   qt-mt323:qt-mt323.dll
 0002:0005c018       ?keyPressEvent@QTable@@MAEXPAVQKeyEvent@@@Z 1008a018 f   qt-mt323:qt-mt323.dll
 0002:0005c01e       ?eventFilter@QTable@@UAE_NPAVQObject@@PAVQEvent@@@Z 1008a01e f   qt-mt323:qt-mt323.dll
 0002:0005c024       ?qt_property@QTable@@UAE_NHHPAVQVariant@@@Z 1008a024 f   qt-mt323:qt-mt323.dll
 0002:0005c02a       ?qt_emit@QTable@@UAE_NHPAUQUObject@@@Z 1008a02a f   qt-mt323:qt-mt323.dll
 0002:0005c030       ?qt_invoke@QTable@@UAE_NHPAUQUObject@@@Z 1008a030 f   qt-mt323:qt-mt323.dll
 0002:0005c036       ?qt_cast@QTable@@UAEPAXPBD@Z 1008a036 f   qt-mt323:qt-mt323.dll
 0002:0005c03c       ?className@QTable@@UBEPBDXZ 1008a03c f   qt-mt323:qt-mt323.dll
 0002:0005c042       ?metaObject@QTable@@UBEPAVQMetaObject@@XZ 1008a042 f   qt-mt323:qt-mt323.dll
 0002:0005c048       ?initDragEnter@QIconView@@EAEXPAVQDropEvent@@@Z 1008a048 f   qt-mt323:qt-mt323.dll
 0002:0005c04e       ?drawDragShapes@QIconView@@EAEXABVQPoint@@@Z 1008a04e f   qt-mt323:qt-mt323.dll
 0002:0005c054       ?drawBackground@QIconView@@MAEXPAVQPainter@@ABVQRect@@@Z 1008a054 f   qt-mt323:qt-mt323.dll
 0002:0005c05a       ?insertInGrid@QIconView@@MAEXPAVQIconViewItem@@@Z 1008a05a f   qt-mt323:qt-mt323.dll
 0002:0005c060       ?startDrag@QIconView@@MAEXXZ 1008a060 f   qt-mt323:qt-mt323.dll
 0002:0005c066       ?dragObject@QIconView@@MAEPAVQDragObject@@XZ 1008a066 f   qt-mt323:qt-mt323.dll
 0002:0005c06c       ?drawRubber@QIconView@@MAEXPAVQPainter@@@Z 1008a06c f   qt-mt323:qt-mt323.dll
 0002:0005c072       ?slotUpdate@QIconView@@MAEXXZ 1008a072 f   qt-mt323:qt-mt323.dll
 0002:0005c078       ?adjustItems@QIconView@@MAEXXZ 1008a078 f   qt-mt323:qt-mt323.dll
 0002:0005c07e       ?doAutoScroll@QIconView@@MAEXXZ 1008a07e f   qt-mt323:qt-mt323.dll
 0002:0005c084       ?updateContents@QIconView@@UAEXXZ 1008a084 f   qt-mt323:qt-mt323.dll
 0002:0005c08a       ?arrangeItemsInGrid@QIconView@@UAEXABVQSize@@_N@Z 1008a08a f   qt-mt323:qt-mt323.dll
 0002:0005c090       ?arrangeItemsInGrid@QIconView@@UAEX_N@Z 1008a090 f   qt-mt323:qt-mt323.dll
 0002:0005c096       ?sort@QIconView@@UAEX_N@Z  1008a096 f   qt-mt323:qt-mt323.dll
 0002:0005c09c       ?setWordWrapIconText@QIconView@@UAEX_N@Z 1008a09c f   qt-mt323:qt-mt323.dll
 0002:0005c0a2       ?setItemsMovable@QIconView@@UAEX_N@Z 1008a0a2 f   qt-mt323:qt-mt323.dll
 0002:0005c0a8       ?setShowToolTips@QIconView@@UAEX_N@Z 1008a0a8 f   qt-mt323:qt-mt323.dll
 0002:0005c0ae       ?setAutoArrange@QIconView@@UAEX_N@Z 1008a0ae f   qt-mt323:qt-mt323.dll
 0002:0005c0b4       ?setMaxItemTextLength@QIconView@@UAEXH@Z 1008a0b4 f   qt-mt323:qt-mt323.dll
 0002:0005c0ba       ?setMaxItemWidth@QIconView@@UAEXH@Z 1008a0ba f   qt-mt323:qt-mt323.dll
 0002:0005c0c0       ?setResizeMode@QIconView@@UAEXW4ResizeMode@1@@Z 1008a0c0 f   qt-mt323:qt-mt323.dll
 0002:0005c0c6       ?setArrangement@QIconView@@UAEXW4Arrangement@1@@Z 1008a0c6 f   qt-mt323:qt-mt323.dll
 0002:0005c0cc       ?setItemTextBackground@QIconView@@UAEXABVQBrush@@@Z 1008a0cc f   qt-mt323:qt-mt323.dll
 0002:0005c0d2       ?setItemTextPos@QIconView@@UAEXW4ItemTextPos@1@@Z 1008a0d2 f   qt-mt323:qt-mt323.dll
 0002:0005c0d8       ?setSpacing@QIconView@@UAEXH@Z 1008a0d8 f   qt-mt323:qt-mt323.dll
 0002:0005c0de       ?setGridY@QIconView@@UAEXH@Z 1008a0de f   qt-mt323:qt-mt323.dll
 0002:0005c0e4       ?setGridX@QIconView@@UAEXH@Z 1008a0e4 f   qt-mt323:qt-mt323.dll
 0002:0005c0ea       ?clear@QIconView@@UAEXXZ   1008a0ea f   qt-mt323:qt-mt323.dll
 0002:0005c0f0       ?repaintItem@QIconView@@UAEXPAVQIconViewItem@@@Z 1008a0f0 f   qt-mt323:qt-mt323.dll
 0002:0005c0f6       ?invertSelection@QIconView@@UAEXXZ 1008a0f6 f   qt-mt323:qt-mt323.dll
 0002:0005c0fc       ?clearSelection@QIconView@@UAEXXZ 1008a0fc f   qt-mt323:qt-mt323.dll
 0002:0005c102       ?selectAll@QIconView@@UAEX_N@Z 1008a102 f   qt-mt323:qt-mt323.dll
 0002:0005c108       ?setSelectionMode@QIconView@@UAEXW4SelectionMode@1@@Z 1008a108 f   qt-mt323:qt-mt323.dll
 0002:0005c10e       ?setSelected@QIconView@@UAEXPAVQIconViewItem@@_N1@Z 1008a10e f   qt-mt323:qt-mt323.dll
 0002:0005c114       ?setCurrentItem@QIconView@@UAEXPAVQIconViewItem@@@Z 1008a114 f   qt-mt323:qt-mt323.dll
 0002:0005c11a       ?takeItem@QIconView@@UAEXPAVQIconViewItem@@@Z 1008a11a f   qt-mt323:qt-mt323.dll
 0002:0005c120       ?insertItem@QIconView@@UAEXPAVQIconViewItem@@0@Z 1008a120 f   qt-mt323:qt-mt323.dll
 0002:0005c126       ?contentsContextMenuEvent@QIconView@@MAEXPAVQContextMenuEvent@@@Z 1008a126 f   qt-mt323:qt-mt323.dll
 0002:0005c12c       ?contentsDropEvent@QIconView@@MAEXPAVQDropEvent@@@Z 1008a12c f   qt-mt323:qt-mt323.dll
 0002:0005c132       ?contentsDragLeaveEvent@QIconView@@MAEXPAVQDragLeaveEvent@@@Z 1008a132 f   qt-mt323:qt-mt323.dll
 0002:0005c138       ?contentsDragMoveEvent@QIconView@@MAEXPAVQDragMoveEvent@@@Z 1008a138 f   qt-mt323:qt-mt323.dll
 0002:0005c13e       ?contentsDragEnterEvent@QIconView@@MAEXPAVQDragEnterEvent@@@Z 1008a13e f   qt-mt323:qt-mt323.dll
 0002:0005c144       ?contentsMouseMoveEvent@QIconView@@MAEXPAVQMouseEvent@@@Z 1008a144 f   qt-mt323:qt-mt323.dll
 0002:0005c14a       ?contentsMouseDoubleClickEvent@QIconView@@MAEXPAVQMouseEvent@@@Z 1008a14a f   qt-mt323:qt-mt323.dll
 0002:0005c150       ?contentsMouseReleaseEvent@QIconView@@MAEXPAVQMouseEvent@@@Z 1008a150 f   qt-mt323:qt-mt323.dll
 0002:0005c156       ?contentsMousePressEvent@QIconView@@MAEXPAVQMouseEvent@@@Z 1008a156 f   qt-mt323:qt-mt323.dll
 0002:0005c15c       ?drawContents@QIconView@@MAEXPAVQPainter@@HHHH@Z 1008a15c f   qt-mt323:qt-mt323.dll
 0002:0005c162       ?setContentsPos@QIconView@@UAEXHH@Z 1008a162 f   qt-mt323:qt-mt323.dll
 0002:0005c168       ?drawContents@QIconView@@EAEXPAVQPainter@@@Z 1008a168 f   qt-mt323:qt-mt323.dll
 0002:0005c16e       ?windowActivationChange@QIconView@@MAEX_N@Z 1008a16e f   qt-mt323:qt-mt323.dll
 0002:0005c174       ?styleChange@QIconView@@MAEXAAVQStyle@@@Z 1008a174 f   qt-mt323:qt-mt323.dll
 0002:0005c17a       ?showEvent@QIconView@@UAEXPAVQShowEvent@@@Z 1008a17a f   qt-mt323:qt-mt323.dll
 0002:0005c180       ?resizeEvent@QIconView@@MAEXPAVQResizeEvent@@@Z 1008a180 f   qt-mt323:qt-mt323.dll
 0002:0005c186       ?enterEvent@QIconView@@MAEXPAVQEvent@@@Z 1008a186 f   qt-mt323:qt-mt323.dll
 0002:0005c18c       ?focusOutEvent@QIconView@@MAEXPAVQFocusEvent@@@Z 1008a18c f   qt-mt323:qt-mt323.dll
 0002:0005c192       ?focusInEvent@QIconView@@MAEXPAVQFocusEvent@@@Z 1008a192 f   qt-mt323:qt-mt323.dll
 0002:0005c198       ?keyPressEvent@QIconView@@MAEXPAVQKeyEvent@@@Z 1008a198 f   qt-mt323:qt-mt323.dll
 0002:0005c19e       ?minimumSizeHint@QIconView@@UBE?AVQSize@@XZ 1008a19e f   qt-mt323:qt-mt323.dll
 0002:0005c1a4       ?sizeHint@QIconView@@UBE?AVQSize@@XZ 1008a1a4 f   qt-mt323:qt-mt323.dll
 0002:0005c1aa       ?setFont@QIconView@@UAEXABVQFont@@@Z 1008a1aa f   qt-mt323:qt-mt323.dll
 0002:0005c1b0       ?setPalette@QIconView@@UAEXABVQPalette@@@Z 1008a1b0 f   qt-mt323:qt-mt323.dll
 0002:0005c1b6       ?eventFilter@QIconView@@UAE_NPAVQObject@@PAVQEvent@@@Z 1008a1b6 f   qt-mt323:qt-mt323.dll
 0002:0005c1bc       ?qt_property@QIconView@@UAE_NHHPAVQVariant@@@Z 1008a1bc f   qt-mt323:qt-mt323.dll
 0002:0005c1c2       ?qt_emit@QIconView@@UAE_NHPAUQUObject@@@Z 1008a1c2 f   qt-mt323:qt-mt323.dll
 0002:0005c1c8       ?qt_invoke@QIconView@@UAE_NHPAUQUObject@@@Z 1008a1c8 f   qt-mt323:qt-mt323.dll
 0002:0005c1ce       ?qt_cast@QIconView@@UAEPAXPBD@Z 1008a1ce f   qt-mt323:qt-mt323.dll
 0002:0005c1d4       ?className@QIconView@@UBEPBDXZ 1008a1d4 f   qt-mt323:qt-mt323.dll
 0002:0005c1da       ?metaObject@QIconView@@UBEPAVQMetaObject@@XZ 1008a1da f   qt-mt323:qt-mt323.dll
 0002:0005c1e0       ?paintEmptyArea@QListView@@MAEXPAVQPainter@@ABVQRect@@@Z 1008a1e0 f   qt-mt323:qt-mt323.dll
 0002:0005c1e6       ?startDrag@QListView@@MAEXXZ 1008a1e6 f   qt-mt323:qt-mt323.dll
 0002:0005c1ec       ?dragObject@QListView@@MAEPAVQDragObject@@XZ 1008a1ec f   qt-mt323:qt-mt323.dll
 0002:0005c1f2       ?selectAll@QListView@@UAEX_N@Z 1008a1f2 f   qt-mt323:qt-mt323.dll
 0002:0005c1f8       ?invertSelection@QListView@@UAEXXZ 1008a1f8 f   qt-mt323:qt-mt323.dll
 0002:0005c1fe       ?clear@QListView@@UAEXXZ   1008a1fe f   qt-mt323:qt-mt323.dll
 0002:0005c204       ?setDefaultRenameAction@QListView@@UAEXW4RenameAction@1@@Z 1008a204 f   qt-mt323:qt-mt323.dll
 0002:0005c20a       ?setResizeMode@QListView@@UAEXW4ResizeMode@1@@Z 1008a20a f   qt-mt323:qt-mt323.dll
 0002:0005c210       ?setShowToolTips@QListView@@UAEX_N@Z 1008a210 f   qt-mt323:qt-mt323.dll
 0002:0005c216       ?setShowSortIndicator@QListView@@UAEX_N@Z 1008a216 f   qt-mt323:qt-mt323.dll
 0002:0005c21c       ?sort@QListView@@UAEXXZ    1008a21c f   qt-mt323:qt-mt323.dll
 0002:0005c222       ?setSorting@QListView@@UAEXH_N@Z 1008a222 f   qt-mt323:qt-mt323.dll
 0002:0005c228       ?setRootIsDecorated@QListView@@UAEX_N@Z 1008a228 f   qt-mt323:qt-mt323.dll
 0002:0005c22e       ?setItemMargin@QListView@@UAEXH@Z 1008a22e f   qt-mt323:qt-mt323.dll
 0002:0005c234       ?setAllColumnsShowFocus@QListView@@UAEX_N@Z 1008a234 f   qt-mt323:qt-mt323.dll
 0002:0005c23a       ?setCurrentItem@QListView@@UAEXPAVQListViewItem@@@Z 1008a23a f   qt-mt323:qt-mt323.dll
 0002:0005c240       ?setOpen@QListView@@UAEXPAVQListViewItem@@_N@Z 1008a240 f   qt-mt323:qt-mt323.dll
 0002:0005c246       ?setSelected@QListView@@UAEXPAVQListViewItem@@_N@Z 1008a246 f   qt-mt323:qt-mt323.dll
 0002:0005c24c       ?clearSelection@QListView@@UAEXXZ 1008a24c f   qt-mt323:qt-mt323.dll
 0002:0005c252       ?setMultiSelection@QListView@@UAEX_N@Z 1008a252 f   qt-mt323:qt-mt323.dll
 0002:0005c258       ?setColumnAlignment@QListView@@UAEXHH@Z 1008a258 f   qt-mt323:qt-mt323.dll
 0002:0005c25e       ?setColumnWidthMode@QListView@@UAEXHW4WidthMode@1@@Z 1008a25e f   qt-mt323:qt-mt323.dll
 0002:0005c264       ?setColumnWidth@QListView@@UAEXHH@Z 1008a264 f   qt-mt323:qt-mt323.dll
 0002:0005c26a       ?setColumnText@QListView@@UAEXHABVQString@@@Z 1008a26a f   qt-mt323:qt-mt323.dll
 0002:0005c270       ?setColumnText@QListView@@UAEXHABVQIconSet@@ABVQString@@@Z 1008a270 f   qt-mt323:qt-mt323.dll
 0002:0005c276       ?removeColumn@QListView@@UAEXH@Z 1008a276 f   qt-mt323:qt-mt323.dll
 0002:0005c27c       ?addColumn@QListView@@UAEHABVQString@@H@Z 1008a27c f   qt-mt323:qt-mt323.dll
 0002:0005c282       ?addColumn@QListView@@UAEHABVQIconSet@@ABVQString@@H@Z 1008a282 f   qt-mt323:qt-mt323.dll
 0002:0005c288       ?removeItem@QListView@@UAEXPAVQListViewItem@@@Z 1008a288 f   qt-mt323:qt-mt323.dll
 0002:0005c28e       ?takeItem@QListView@@UAEXPAVQListViewItem@@@Z 1008a28e f   qt-mt323:qt-mt323.dll
 0002:0005c294       ?insertItem@QListView@@UAEXPAVQListViewItem@@@Z 1008a294 f   qt-mt323:qt-mt323.dll
 0002:0005c29a       ?setTreeStepSize@QListView@@UAEXH@Z 1008a29a f   qt-mt323:qt-mt323.dll
 0002:0005c2a0       ?viewportResizeEvent@QListView@@MAEXPAVQResizeEvent@@@Z 1008a2a0 f   qt-mt323:qt-mt323.dll
 0002:0005c2a6       ?contentsContextMenuEvent@QListView@@MAEXPAVQContextMenuEvent@@@Z 1008a2a6 f   qt-mt323:qt-mt323.dll
 0002:0005c2ac       ?contentsDropEvent@QListView@@MAEXPAVQDropEvent@@@Z 1008a2ac f   qt-mt323:qt-mt323.dll
 0002:0005c2b2       ?contentsDragLeaveEvent@QListView@@MAEXPAVQDragLeaveEvent@@@Z 1008a2b2 f   qt-mt323:qt-mt323.dll
 0002:0005c2b8       ?contentsDragMoveEvent@QListView@@MAEXPAVQDragMoveEvent@@@Z 1008a2b8 f   qt-mt323:qt-mt323.dll
 0002:0005c2be       ?contentsDragEnterEvent@QListView@@MAEXPAVQDragEnterEvent@@@Z 1008a2be f   qt-mt323:qt-mt323.dll
 0002:0005c2c4       ?contentsMouseMoveEvent@QListView@@MAEXPAVQMouseEvent@@@Z 1008a2c4 f   qt-mt323:qt-mt323.dll
 0002:0005c2ca       ?contentsMouseDoubleClickEvent@QListView@@MAEXPAVQMouseEvent@@@Z 1008a2ca f   qt-mt323:qt-mt323.dll
 0002:0005c2d0       ?contentsMouseReleaseEvent@QListView@@MAEXPAVQMouseEvent@@@Z 1008a2d0 f   qt-mt323:qt-mt323.dll
 0002:0005c2d6       ?contentsMousePressEvent@QListView@@MAEXPAVQMouseEvent@@@Z 1008a2d6 f   qt-mt323:qt-mt323.dll
 0002:0005c2dc       ?drawContentsOffset@QListView@@MAEXPAVQPainter@@HHHHHH@Z 1008a2dc f   qt-mt323:qt-mt323.dll
 0002:0005c2e2       ?setContentsPos@QListView@@UAEXHH@Z 1008a2e2 f   qt-mt323:qt-mt323.dll
 0002:0005c2e8       ?windowActivationChange@QListView@@MAEX_N@Z 1008a2e8 f   qt-mt323:qt-mt323.dll
 0002:0005c2ee       ?styleChange@QListView@@MAEXAAVQStyle@@@Z 1008a2ee f   qt-mt323:qt-mt323.dll
 0002:0005c2f4       ?showEvent@QListView@@MAEXPAVQShowEvent@@@Z 1008a2f4 f   qt-mt323:qt-mt323.dll
 0002:0005c2fa       ?resizeEvent@QListView@@MAEXPAVQResizeEvent@@@Z 1008a2fa f   qt-mt323:qt-mt323.dll
 0002:0005c300       ?focusOutEvent@QListView@@MAEXPAVQFocusEvent@@@Z 1008a300 f   qt-mt323:qt-mt323.dll
 0002:0005c306       ?focusInEvent@QListView@@MAEXPAVQFocusEvent@@@Z 1008a306 f   qt-mt323:qt-mt323.dll
 0002:0005c30c       ?keyPressEvent@QListView@@MAEXPAVQKeyEvent@@@Z 1008a30c f   qt-mt323:qt-mt323.dll
 0002:0005c312       ?minimumSizeHint@QListView@@UBE?AVQSize@@XZ 1008a312 f   qt-mt323:qt-mt323.dll
 0002:0005c318       ?sizeHint@QListView@@UBE?AVQSize@@XZ 1008a318 f   qt-mt323:qt-mt323.dll
 0002:0005c31e       ?show@QListView@@UAEXXZ    1008a31e f   qt-mt323:qt-mt323.dll
 0002:0005c324       ?setFont@QListView@@UAEXABVQFont@@@Z 1008a324 f   qt-mt323:qt-mt323.dll
 0002:0005c32a       ?setPalette@QListView@@UAEXABVQPalette@@@Z 1008a32a f   qt-mt323:qt-mt323.dll
 0002:0005c330       ?eventFilter@QListView@@UAE_NPAVQObject@@PAVQEvent@@@Z 1008a330 f   qt-mt323:qt-mt323.dll
 0002:0005c336       ?qt_property@QListView@@UAE_NHHPAVQVariant@@@Z 1008a336 f   qt-mt323:qt-mt323.dll
 0002:0005c33c       ?qt_emit@QListView@@UAE_NHPAUQUObject@@@Z 1008a33c f   qt-mt323:qt-mt323.dll
 0002:0005c342       ?qt_invoke@QListView@@UAE_NHPAUQUObject@@@Z 1008a342 f   qt-mt323:qt-mt323.dll
 0002:0005c348       ?qt_cast@QListView@@UAEPAXPBD@Z 1008a348 f   qt-mt323:qt-mt323.dll
 0002:0005c34e       ?className@QListView@@UBEPBDXZ 1008a34e f   qt-mt323:qt-mt323.dll
 0002:0005c354       ?metaObject@QListView@@UBEPAVQMetaObject@@XZ 1008a354 f   qt-mt323:qt-mt323.dll
 0002:0005c35a       ?setOn@QToolButton@@UAEX_N@Z 1008a35a f   qt-mt323:qt-mt323.dll
 0002:0005c360       ?setToggleButton@QToolButton@@UAEX_N@Z 1008a360 f   qt-mt323:qt-mt323.dll
 0002:0005c366       ?setTextLabel@QToolButton@@UAEXABVQString@@_N@Z 1008a366 f   qt-mt323:qt-mt323.dll
 0002:0005c36c       ?setUsesTextLabel@QToolButton@@UAEX_N@Z 1008a36c f   qt-mt323:qt-mt323.dll
 0002:0005c372       ?setUsesBigPixmap@QToolButton@@UAEX_N@Z 1008a372 f   qt-mt323:qt-mt323.dll
 0002:0005c378       ?setIconSet@QToolButton@@UAEXABVQIconSet@@@Z 1008a378 f   qt-mt323:qt-mt323.dll
 0002:0005c37e       ?drawButtonLabel@QToolButton@@MAEXPAVQPainter@@@Z 1008a37e f   qt-mt323:qt-mt323.dll
 0002:0005c384       ?drawButton@QToolButton@@MAEXPAVQPainter@@@Z 1008a384 f   qt-mt323:qt-mt323.dll
 0002:0005c38a       ?setText@QToolButton@@UAEXABVQString@@@Z 1008a38a f   qt-mt323:qt-mt323.dll
 0002:0005c390       ?paletteChange@QToolButton@@MAEXABVQPalette@@@Z 1008a390 f   qt-mt323:qt-mt323.dll
 0002:0005c396       ?moveEvent@QToolButton@@MAEXPAVQMoveEvent@@@Z 1008a396 f   qt-mt323:qt-mt323.dll
 0002:0005c39c       ?leaveEvent@QToolButton@@MAEXPAVQEvent@@@Z 1008a39c f   qt-mt323:qt-mt323.dll
 0002:0005c3a2       ?enterEvent@QToolButton@@MAEXPAVQEvent@@@Z 1008a3a2 f   qt-mt323:qt-mt323.dll
 0002:0005c3a8       ?mousePressEvent@QToolButton@@MAEXPAVQMouseEvent@@@Z 1008a3a8 f   qt-mt323:qt-mt323.dll
 0002:0005c3ae       ?minimumSizeHint@QToolButton@@UBE?AVQSize@@XZ 1008a3ae f   qt-mt323:qt-mt323.dll
 0002:0005c3b4       ?sizeHint@QToolButton@@UBE?AVQSize@@XZ 1008a3b4 f   qt-mt323:qt-mt323.dll
 0002:0005c3ba       ?eventFilter@QToolButton@@MAE_NPAVQObject@@PAVQEvent@@@Z 1008a3ba f   qt-mt323:qt-mt323.dll
 0002:0005c3c0       ?qt_property@QToolButton@@UAE_NHHPAVQVariant@@@Z 1008a3c0 f   qt-mt323:qt-mt323.dll
 0002:0005c3c6       ?qt_emit@QToolButton@@UAE_NHPAUQUObject@@@Z 1008a3c6 f   qt-mt323:qt-mt323.dll
 0002:0005c3cc       ?qt_invoke@QToolButton@@UAE_NHPAUQUObject@@@Z 1008a3cc f   qt-mt323:qt-mt323.dll
 0002:0005c3d2       ?qt_cast@QToolButton@@UAEPAXPBD@Z 1008a3d2 f   qt-mt323:qt-mt323.dll
 0002:0005c3d8       ?className@QToolButton@@UBEPBDXZ 1008a3d8 f   qt-mt323:qt-mt323.dll
 0002:0005c3de       ?metaObject@QToolButton@@UBEPAVQMetaObject@@XZ 1008a3de f   qt-mt323:qt-mt323.dll
 0002:0005c3e4       ?setToolTipGroup@QMainWindow@@EAEXPAVQToolTipGroup@@@Z 1008a3e4 f   qt-mt323:qt-mt323.dll
 0002:0005c3ea       ?setStatusBar@QMainWindow@@EAEXPAVQStatusBar@@@Z 1008a3ea f   qt-mt323:qt-mt323.dll
 0002:0005c3f0       ?setMenuBar@QMainWindow@@EAEXPAVQMenuBar@@@Z 1008a3f0 f   qt-mt323:qt-mt323.dll
 0002:0005c3f6       ?showDockMenu@QMainWindow@@MAE_NABVQPoint@@@Z 1008a3f6 f   qt-mt323:qt-mt323.dll
 0002:0005c3fc       ?setUpLayout@QMainWindow@@MAEXXZ 1008a3fc f   qt-mt323:qt-mt323.dll
 0002:0005c402       ?customize@QMainWindow@@UAEXXZ 1008a402 f   qt-mt323:qt-mt323.dll
 0002:0005c408       ?setAppropriate@QMainWindow@@UAEXPAVQDockWindow@@_N@Z 1008a408 f   qt-mt323:qt-mt323.dll
 0002:0005c40e       ?whatsThis@QMainWindow@@UAEXXZ 1008a40e f   qt-mt323:qt-mt323.dll
 0002:0005c414       ?setDockMenuEnabled@QMainWindow@@UAEX_N@Z 1008a414 f   qt-mt323:qt-mt323.dll
 0002:0005c41a       ?setOpaqueMoving@QMainWindow@@UAEX_N@Z 1008a41a f   qt-mt323:qt-mt323.dll
 0002:0005c420       ?setDockWindowsMovable@QMainWindow@@UAEX_N@Z 1008a420 f   qt-mt323:qt-mt323.dll
 0002:0005c426       ?setUsesTextLabel@QMainWindow@@UAEX_N@Z 1008a426 f   qt-mt323:qt-mt323.dll
 0002:0005c42c       ?setUsesBigPixmaps@QMainWindow@@UAEX_N@Z 1008a42c f   qt-mt323:qt-mt323.dll
 0002:0005c432       ?setRightJustification@QMainWindow@@UAEX_N@Z 1008a432 f   qt-mt323:qt-mt323.dll
 0002:0005c438       ?isCustomizable@QMainWindow@@UBE_NXZ 1008a438 f   qt-mt323:qt-mt323.dll
 0002:0005c43e       ?dockingArea@QMainWindow@@UAEPAVQDockArea@@ABVQPoint@@@Z 1008a43e f   qt-mt323:qt-mt323.dll
 0002:0005c444       ?removeDockWindow@QMainWindow@@UAEXPAVQDockWindow@@@Z 1008a444 f   qt-mt323:qt-mt323.dll
 0002:0005c44a       ?moveDockWindow@QMainWindow@@UAEXPAVQDockWindow@@W4Dock@Qt@@@Z 1008a44a f   qt-mt323:qt-mt323.dll
 0002:0005c450       ?moveDockWindow@QMainWindow@@UAEXPAVQDockWindow@@W4Dock@Qt@@_NHH@Z 1008a450 f   qt-mt323:qt-mt323.dll
 0002:0005c456       ?addDockWindow@QMainWindow@@UAEXPAVQDockWindow@@W4Dock@Qt@@_N@Z 1008a456 f   qt-mt323:qt-mt323.dll
 0002:0005c45c       ?addDockWindow@QMainWindow@@UAEXPAVQDockWindow@@ABVQString@@W4Dock@Qt@@_N@Z 1008a45c f   qt-mt323:qt-mt323.dll
 0002:0005c462       ?setDockEnabled@QMainWindow@@UAEXW4Dock@Qt@@_N@Z 1008a462 f   qt-mt323:qt-mt323.dll
 0002:0005c468       ?setDockEnabled@QMainWindow@@UAEXPAVQDockWindow@@W4Dock@Qt@@_N@Z 1008a468 f   qt-mt323:qt-mt323.dll
 0002:0005c46e       ?setCentralWidget@QMainWindow@@UAEXPAVQWidget@@@Z 1008a46e f   qt-mt323:qt-mt323.dll
 0002:0005c474       ?styleChange@QMainWindow@@MAEXAAVQStyle@@@Z 1008a474 f   qt-mt323:qt-mt323.dll
 0002:0005c47a       ?paintEvent@QMainWindow@@MAEXPAVQPaintEvent@@@Z 1008a47a f   qt-mt323:qt-mt323.dll
 0002:0005c480       ?minimumSizeHint@QMainWindow@@UBE?AVQSize@@XZ 1008a480 f   qt-mt323:qt-mt323.dll
 0002:0005c486       ?sizeHint@QMainWindow@@UBE?AVQSize@@XZ 1008a486 f   qt-mt323:qt-mt323.dll
 0002:0005c48c       ?hide@QMainWindow@@UAEXXZ  1008a48c f   qt-mt323:qt-mt323.dll
 0002:0005c492       ?show@QMainWindow@@UAEXXZ  1008a492 f   qt-mt323:qt-mt323.dll
 0002:0005c498       ?childEvent@QMainWindow@@MAEXPAVQChildEvent@@@Z 1008a498 f   qt-mt323:qt-mt323.dll
 0002:0005c49e       ?eventFilter@QMainWindow@@UAE_NPAVQObject@@PAVQEvent@@@Z 1008a49e f   qt-mt323:qt-mt323.dll
 0002:0005c4a4       ?event@QMainWindow@@MAE_NPAVQEvent@@@Z 1008a4a4 f   qt-mt323:qt-mt323.dll
 0002:0005c4aa       ?qt_property@QMainWindow@@UAE_NHHPAVQVariant@@@Z 1008a4aa f   qt-mt323:qt-mt323.dll
 0002:0005c4b0       ?qt_emit@QMainWindow@@UAE_NHPAUQUObject@@@Z 1008a4b0 f   qt-mt323:qt-mt323.dll
 0002:0005c4b6       ?qt_invoke@QMainWindow@@UAE_NHPAUQUObject@@@Z 1008a4b6 f   qt-mt323:qt-mt323.dll
 0002:0005c4bc       ?qt_cast@QMainWindow@@UAEPAXPBD@Z 1008a4bc f   qt-mt323:qt-mt323.dll
 0002:0005c4c2       ?className@QMainWindow@@UBEPBDXZ 1008a4c2 f   qt-mt323:qt-mt323.dll
 0002:0005c4c8       ?metaObject@QMainWindow@@UBEPAVQMetaObject@@XZ 1008a4c8 f   qt-mt323:qt-mt323.dll
 0002:0005c4ce       ?className@QDialog@@UBEPBDXZ 1008a4ce f   qt-mt323:qt-mt323.dll
 0002:0005c4d4       ?metaObject@QDialog@@UBEPAVQMetaObject@@XZ 1008a4d4 f   qt-mt323:qt-mt323.dll
 0002:0005c4da       ?qt_property@QVBox@@UAE_NHHPAVQVariant@@@Z 1008a4da f   qt-mt323:qt-mt323.dll
 0002:0005c4e0       ?qt_emit@QVBox@@UAE_NHPAUQUObject@@@Z 1008a4e0 f   qt-mt323:qt-mt323.dll
 0002:0005c4e6       ?qt_invoke@QVBox@@UAE_NHPAUQUObject@@@Z 1008a4e6 f   qt-mt323:qt-mt323.dll
 0002:0005c4ec       ?qt_cast@QVBox@@UAEPAXPBD@Z 1008a4ec f   qt-mt323:qt-mt323.dll
 0002:0005c4f2       ?className@QVBox@@UBEPBDXZ 1008a4f2 f   qt-mt323:qt-mt323.dll
 0002:0005c4f8       ?metaObject@QVBox@@UBEPAVQMetaObject@@XZ 1008a4f8 f   qt-mt323:qt-mt323.dll
 0002:0005c4fe       ?className@QWidget@@UBEPBDXZ 1008a4fe f   qt-mt323:qt-mt323.dll
 0002:0005c504       ?metaObject@QWidget@@UBEPAVQMetaObject@@XZ 1008a504 f   qt-mt323:qt-mt323.dll
 0002:0005c50a       ?moveFocus@QButtonGroup@@UAEXH@Z 1008a50a f   qt-mt323:qt-mt323.dll
 0002:0005c510       ?setButton@QButtonGroup@@UAEXH@Z 1008a510 f   qt-mt323:qt-mt323.dll
 0002:0005c516       ?setRadioButtonExclusive@QButtonGroup@@UAEX_N@Z 1008a516 f   qt-mt323:qt-mt323.dll
 0002:0005c51c       ?setExclusive@QButtonGroup@@UAEX_N@Z 1008a51c f   qt-mt323:qt-mt323.dll
 0002:0005c522       ?event@QButtonGroup@@MAE_NPAVQEvent@@@Z 1008a522 f   qt-mt323:qt-mt323.dll
 0002:0005c528       ?qt_property@QButtonGroup@@UAE_NHHPAVQVariant@@@Z 1008a528 f   qt-mt323:qt-mt323.dll
 0002:0005c52e       ?qt_emit@QButtonGroup@@UAE_NHPAUQUObject@@@Z 1008a52e f   qt-mt323:qt-mt323.dll
 0002:0005c534       ?qt_invoke@QButtonGroup@@UAE_NHPAUQUObject@@@Z 1008a534 f   qt-mt323:qt-mt323.dll
 0002:0005c53a       ?qt_cast@QButtonGroup@@UAEPAXPBD@Z 1008a53a f   qt-mt323:qt-mt323.dll
 0002:0005c540       ?className@QButtonGroup@@UBEPBDXZ 1008a540 f   qt-mt323:qt-mt323.dll
 0002:0005c546       ?metaObject@QButtonGroup@@UBEPAVQMetaObject@@XZ 1008a546 f   qt-mt323:qt-mt323.dll
 0002:0005c54c       ?setIndicator@QProgressBar@@MAE_NAAVQString@@HH@Z 1008a54c f   qt-mt323:qt-mt323.dll
 0002:0005c552       ?setProgress@QProgressBar@@UAEXH@Z 1008a552 f   qt-mt323:qt-mt323.dll
 0002:0005c558       ?setTotalSteps@QProgressBar@@UAEXH@Z 1008a558 f   qt-mt323:qt-mt323.dll
 0002:0005c55e       ?drawContents@QProgressBar@@MAEXPAVQPainter@@@Z 1008a55e f   qt-mt323:qt-mt323.dll
 0002:0005c564       ?styleChange@QProgressBar@@MAEXAAVQStyle@@@Z 1008a564 f   qt-mt323:qt-mt323.dll
 0002:0005c56a       ?minimumSizeHint@QProgressBar@@UBE?AVQSize@@XZ 1008a56a f   qt-mt323:qt-mt323.dll
 0002:0005c570       ?sizeHint@QProgressBar@@UBE?AVQSize@@XZ 1008a570 f   qt-mt323:qt-mt323.dll
 0002:0005c576       ?show@QProgressBar@@UAEXXZ 1008a576 f   qt-mt323:qt-mt323.dll
 0002:0005c57c       ?qt_property@QProgressBar@@UAE_NHHPAVQVariant@@@Z 1008a57c f   qt-mt323:qt-mt323.dll
 0002:0005c582       ?qt_emit@QProgressBar@@UAE_NHPAUQUObject@@@Z 1008a582 f   qt-mt323:qt-mt323.dll
 0002:0005c588       ?qt_invoke@QProgressBar@@UAE_NHPAUQUObject@@@Z 1008a588 f   qt-mt323:qt-mt323.dll
 0002:0005c58e       ?qt_cast@QProgressBar@@UAEPAXPBD@Z 1008a58e f   qt-mt323:qt-mt323.dll
 0002:0005c594       ?className@QProgressBar@@UBEPBDXZ 1008a594 f   qt-mt323:qt-mt323.dll
 0002:0005c59a       ?metaObject@QProgressBar@@UBEPAVQMetaObject@@XZ 1008a59a f   qt-mt323:qt-mt323.dll
 0002:0005c5a0       ?setNum@QLabel@@UAEXH@Z    1008a5a0 f   qt-mt323:qt-mt323.dll
 0002:0005c5a6       ?setNum@QLabel@@UAEXN@Z    1008a5a6 f   qt-mt323:qt-mt323.dll
 0002:0005c5ac       ?setMovie@QLabel@@UAEXABVQMovie@@@Z 1008a5ac f   qt-mt323:qt-mt323.dll
 0002:0005c5b2       ?setPicture@QLabel@@UAEXABVQPicture@@@Z 1008a5b2 f   qt-mt323:qt-mt323.dll
 0002:0005c5b8       ?setPixmap@QLabel@@UAEXABVQPixmap@@@Z 1008a5b8 f   qt-mt323:qt-mt323.dll
 0002:0005c5be       ?setText@QLabel@@UAEXABVQString@@@Z 1008a5be f   qt-mt323:qt-mt323.dll
 0002:0005c5c4       ?setBuddy@QLabel@@UAEXPAVQWidget@@@Z 1008a5c4 f   qt-mt323:qt-mt323.dll
 0002:0005c5ca       ?setAutoResize@QLabel@@UAEX_N@Z 1008a5ca f   qt-mt323:qt-mt323.dll
 0002:0005c5d0       ?setAlignment@QLabel@@UAEXH@Z 1008a5d0 f   qt-mt323:qt-mt323.dll
 0002:0005c5d6       ?drawContents@QLabel@@MAEXPAVQPainter@@@Z 1008a5d6 f   qt-mt323:qt-mt323.dll
 0002:0005c5dc       ?fontChange@QLabel@@MAEXABVQFont@@@Z 1008a5dc f   qt-mt323:qt-mt323.dll
 0002:0005c5e2       ?resizeEvent@QLabel@@MAEXPAVQResizeEvent@@@Z 1008a5e2 f   qt-mt323:qt-mt323.dll
 0002:0005c5e8       ?heightForWidth@QLabel@@UBEHH@Z 1008a5e8 f   qt-mt323:qt-mt323.dll
 0002:0005c5ee       ?minimumSizeHint@QLabel@@UBE?AVQSize@@XZ 1008a5ee f   qt-mt323:qt-mt323.dll
 0002:0005c5f4       ?sizeHint@QLabel@@UBE?AVQSize@@XZ 1008a5f4 f   qt-mt323:qt-mt323.dll
 0002:0005c5fa       ?setFont@QLabel@@UAEXABVQFont@@@Z 1008a5fa f   qt-mt323:qt-mt323.dll
 0002:0005c600       ?qt_property@QLabel@@UAE_NHHPAVQVariant@@@Z 1008a600 f   qt-mt323:qt-mt323.dll
 0002:0005c606       ?qt_emit@QLabel@@UAE_NHPAUQUObject@@@Z 1008a606 f   qt-mt323:qt-mt323.dll
 0002:0005c60c       ?qt_invoke@QLabel@@UAE_NHPAUQUObject@@@Z 1008a60c f   qt-mt323:qt-mt323.dll
 0002:0005c612       ?qt_cast@QLabel@@UAEPAXPBD@Z 1008a612 f   qt-mt323:qt-mt323.dll
 0002:0005c618       ?className@QLabel@@UBEPBDXZ 1008a618 f   qt-mt323:qt-mt323.dll
 0002:0005c61e       ?metaObject@QLabel@@UBEPAVQMetaObject@@XZ 1008a61e f   qt-mt323:qt-mt323.dll
 0002:0005c624       ?outOfRange@QDateEdit@@MBE_NHHH@Z 1008a624 f   qt-mt323:qt-mt323.dll
 0002:0005c62a       ?fix@QDateEdit@@MAEXXZ     1008a62a f   qt-mt323:qt-mt323.dll
 0002:0005c630       ?setDay@QDateEdit@@MAEXH@Z 1008a630 f   qt-mt323:qt-mt323.dll
 0002:0005c636       ?setMonth@QDateEdit@@MAEXH@Z 1008a636 f   qt-mt323:qt-mt323.dll
 0002:0005c63c       ?setYear@QDateEdit@@MAEXH@Z 1008a63c f   qt-mt323:qt-mt323.dll
 0002:0005c642       ?setSeparator@QDateEdit@@UAEXABVQString@@@Z 1008a642 f   qt-mt323:qt-mt323.dll
 0002:0005c648       ?setRange@QDateEdit@@UAEXABVQDate@@0@Z 1008a648 f   qt-mt323:qt-mt323.dll
 0002:0005c64e       ?setMaxValue@QDateEdit@@UAEXABVQDate@@@Z 1008a64e f   qt-mt323:qt-mt323.dll
 0002:0005c654       ?setMinValue@QDateEdit@@UAEXABVQDate@@@Z 1008a654 f   qt-mt323:qt-mt323.dll
 0002:0005c65a       ?setAutoAdvance@QDateEdit@@UAEX_N@Z 1008a65a f   qt-mt323:qt-mt323.dll
 0002:0005c660       ?setOrder@QDateEdit@@UAEXW4Order@1@@Z 1008a660 f   qt-mt323:qt-mt323.dll
 0002:0005c666       ?setDate@QDateEdit@@UAEXABVQDate@@@Z 1008a666 f   qt-mt323:qt-mt323.dll
 0002:0005c66c       ?stepDown@QDateEdit@@MAEXXZ 1008a66c f   qt-mt323:qt-mt323.dll
 0002:0005c672       ?stepUp@QDateEdit@@MAEXXZ  1008a672 f   qt-mt323:qt-mt323.dll
 0002:0005c678       ?removeLastNumber@QDateEdit@@MAEXH@Z 1008a678 f   qt-mt323:qt-mt323.dll
 0002:0005c67e       ?addNumber@QDateEdit@@MAEXHH@Z 1008a67e f   qt-mt323:qt-mt323.dll
 0002:0005c684       ?sectionFormattedText@QDateEdit@@MAE?AVQString@@H@Z 1008a684 f   qt-mt323:qt-mt323.dll
 0002:0005c68a       ?setFocusSection@QDateEdit@@MAE_NH@Z 1008a68a f   qt-mt323:qt-mt323.dll
 0002:0005c690       ?resizeEvent@QDateEdit@@MAEXPAVQResizeEvent@@@Z 1008a690 f   qt-mt323:qt-mt323.dll
 0002:0005c696       ?minimumSizeHint@QDateEdit@@UBE?AVQSize@@XZ 1008a696 f   qt-mt323:qt-mt323.dll
 0002:0005c69c       ?sizeHint@QDateEdit@@UBE?AVQSize@@XZ 1008a69c f   qt-mt323:qt-mt323.dll
 0002:0005c6a2       ?timerEvent@QDateEdit@@MAEXPAVQTimerEvent@@@Z 1008a6a2 f   qt-mt323:qt-mt323.dll
 0002:0005c6a8       ?event@QDateEdit@@MAE_NPAVQEvent@@@Z 1008a6a8 f   qt-mt323:qt-mt323.dll
 0002:0005c6ae       ?qt_property@QDateEdit@@UAE_NHHPAVQVariant@@@Z 1008a6ae f   qt-mt323:qt-mt323.dll
 0002:0005c6b4       ?qt_emit@QDateEdit@@UAE_NHPAUQUObject@@@Z 1008a6b4 f   qt-mt323:qt-mt323.dll
 0002:0005c6ba       ?qt_invoke@QDateEdit@@UAE_NHPAUQUObject@@@Z 1008a6ba f   qt-mt323:qt-mt323.dll
 0002:0005c6c0       ?qt_cast@QDateEdit@@UAEPAXPBD@Z 1008a6c0 f   qt-mt323:qt-mt323.dll
 0002:0005c6c6       ?className@QDateEdit@@UBEPBDXZ 1008a6c6 f   qt-mt323:qt-mt323.dll
 0002:0005c6cc       ?metaObject@QDateEdit@@UBEPAVQMetaObject@@XZ 1008a6cc f   qt-mt323:qt-mt323.dll
 0002:0005c6d2       ?qt_property@QFrame@@UAE_NHHPAVQVariant@@@Z 1008a6d2 f   qt-mt323:qt-mt323.dll
 0002:0005c6d8       ?qt_emit@QFrame@@UAE_NHPAUQUObject@@@Z 1008a6d8 f   qt-mt323:qt-mt323.dll
 0002:0005c6de       ?qt_invoke@QFrame@@UAE_NHPAUQUObject@@@Z 1008a6de f   qt-mt323:qt-mt323.dll
 0002:0005c6e4       ?qt_cast@QFrame@@UAEPAXPBD@Z 1008a6e4 f   qt-mt323:qt-mt323.dll
 0002:0005c6ea       ?className@QFrame@@UBEPBDXZ 1008a6ea f   qt-mt323:qt-mt323.dll
 0002:0005c6f0       ?metaObject@QFrame@@UBEPAVQMetaObject@@XZ 1008a6f0 f   qt-mt323:qt-mt323.dll
 0002:0005c6f6       ?removePage@QTabWidget@@UAEXPAVQWidget@@@Z 1008a6f6 f   qt-mt323:qt-mt323.dll
 0002:0005c6fc       ?showPage@QTabWidget@@UAEXPAVQWidget@@@Z 1008a6fc f   qt-mt323:qt-mt323.dll
 0002:0005c702       ?insertTab@QTabWidget@@UAEXPAVQWidget@@ABVQString@@H@Z 1008a702 f   qt-mt323:qt-mt323.dll
 0002:0005c708       ?insertTab@QTabWidget@@UAEXPAVQWidget@@ABVQIconSet@@ABVQString@@H@Z 1008a708 f   qt-mt323:qt-mt323.dll
 0002:0005c70e       ?insertTab@QTabWidget@@UAEXPAVQWidget@@PAVQTab@@H@Z 1008a70e f   qt-mt323:qt-mt323.dll
 0002:0005c714       ?addTab@QTabWidget@@UAEXPAVQWidget@@ABVQString@@@Z 1008a714 f   qt-mt323:qt-mt323.dll
 0002:0005c71a       ?addTab@QTabWidget@@UAEXPAVQWidget@@ABVQIconSet@@ABVQString@@@Z 1008a71a f   qt-mt323:qt-mt323.dll
 0002:0005c720       ?addTab@QTabWidget@@UAEXPAVQWidget@@PAVQTab@@@Z 1008a720 f   qt-mt323:qt-mt323.dll
 0002:0005c726       ?styleChange@QTabWidget@@MAEXAAVQStyle@@@Z 1008a726 f   qt-mt323:qt-mt323.dll
 0002:0005c72c       ?updateMask@QTabWidget@@MAEXXZ 1008a72c f   qt-mt323:qt-mt323.dll
 0002:0005c732       ?showEvent@QTabWidget@@MAEXPAVQShowEvent@@@Z 1008a732 f   qt-mt323:qt-mt323.dll
 0002:0005c738       ?resizeEvent@QTabWidget@@MAEXPAVQResizeEvent@@@Z 1008a738 f   qt-mt323:qt-mt323.dll
 0002:0005c73e       ?minimumSizeHint@QTabWidget@@UBE?AVQSize@@XZ 1008a73e f   qt-mt323:qt-mt323.dll
 0002:0005c744       ?sizeHint@QTabWidget@@UBE?AVQSize@@XZ 1008a744 f   qt-mt323:qt-mt323.dll
 0002:0005c74a       ?eventFilter@QTabWidget@@MAE_NPAVQObject@@PAVQEvent@@@Z 1008a74a f   qt-mt323:qt-mt323.dll
 0002:0005c750       ?qt_property@QTabWidget@@UAE_NHHPAVQVariant@@@Z 1008a750 f   qt-mt323:qt-mt323.dll
 0002:0005c756       ?qt_emit@QTabWidget@@UAE_NHPAUQUObject@@@Z 1008a756 f   qt-mt323:qt-mt323.dll
 0002:0005c75c       ?qt_invoke@QTabWidget@@UAE_NHPAUQUObject@@@Z 1008a75c f   qt-mt323:qt-mt323.dll
 0002:0005c762       ?qt_cast@QTabWidget@@UAEPAXPBD@Z 1008a762 f   qt-mt323:qt-mt323.dll
 0002:0005c768       ?className@QTabWidget@@UBEPBDXZ 1008a768 f   qt-mt323:qt-mt323.dll
 0002:0005c76e       ?metaObject@QTabWidget@@UBEPAVQMetaObject@@XZ 1008a76e f   qt-mt323:qt-mt323.dll
 0002:0005c774       ?setChildGeometries@QWidgetStack@@MAEXXZ 1008a774 f   qt-mt323:qt-mt323.dll
 0002:0005c77a       ?frameChanged@QWidgetStack@@MAEXXZ 1008a77a f   qt-mt323:qt-mt323.dll
 0002:0005c780       ?setFrameRect@QWidgetStack@@UAEXABVQRect@@@Z 1008a780 f   qt-mt323:qt-mt323.dll
 0002:0005c786       ?resizeEvent@QWidgetStack@@MAEXPAVQResizeEvent@@@Z 1008a786 f   qt-mt323:qt-mt323.dll
 0002:0005c78c       ?minimumSizeHint@QWidgetStack@@UBE?AVQSize@@XZ 1008a78c f   qt-mt323:qt-mt323.dll
 0002:0005c792       ?sizeHint@QWidgetStack@@UBE?AVQSize@@XZ 1008a792 f   qt-mt323:qt-mt323.dll
 0002:0005c798       ?show@QWidgetStack@@UAEXXZ 1008a798 f   qt-mt323:qt-mt323.dll
 0002:0005c79e       ?childEvent@QWidgetStack@@MAEXPAVQChildEvent@@@Z 1008a79e f   qt-mt323:qt-mt323.dll
 0002:0005c7a4       ?qt_property@QWidgetStack@@UAE_NHHPAVQVariant@@@Z 1008a7a4 f   qt-mt323:qt-mt323.dll
 0002:0005c7aa       ?qt_emit@QWidgetStack@@UAE_NHPAUQUObject@@@Z 1008a7aa f   qt-mt323:qt-mt323.dll
 0002:0005c7b0       ?qt_invoke@QWidgetStack@@UAE_NHPAUQUObject@@@Z 1008a7b0 f   qt-mt323:qt-mt323.dll
 0002:0005c7b6       ?qt_cast@QWidgetStack@@UAEPAXPBD@Z 1008a7b6 f   qt-mt323:qt-mt323.dll
 0002:0005c7bc       ?className@QWidgetStack@@UBEPBDXZ 1008a7bc f   qt-mt323:qt-mt323.dll
 0002:0005c7c2       ?metaObject@QWidgetStack@@UBEPAVQMetaObject@@XZ 1008a7c2 f   qt-mt323:qt-mt323.dll
 0002:0005c7c8       ?createPopupMenu@QLineEdit@@MAEPAVQPopupMenu@@XZ 1008a7c8 f   qt-mt323:qt-mt323.dll
 0002:0005c7ce       ?setDragEnabled@QLineEdit@@UAEX_N@Z 1008a7ce f   qt-mt323:qt-mt323.dll
 0002:0005c7d4       ?paste@QLineEdit@@UAEXXZ   1008a7d4 f   qt-mt323:qt-mt323.dll
 0002:0005c7da       ?copy@QLineEdit@@UBEXXZ    1008a7da f   qt-mt323:qt-mt323.dll
 0002:0005c7e0       ?cut@QLineEdit@@UAEXXZ     1008a7e0 f   qt-mt323:qt-mt323.dll
 0002:0005c7e6       ?setAlignment@QLineEdit@@UAEXH@Z 1008a7e6 f   qt-mt323:qt-mt323.dll
 0002:0005c7ec       ?setCursorPosition@QLineEdit@@UAEXH@Z 1008a7ec f   qt-mt323:qt-mt323.dll
 0002:0005c7f2       ?setSelection@QLineEdit@@UAEXHH@Z 1008a7f2 f   qt-mt323:qt-mt323.dll
 0002:0005c7f8       ?setValidator@QLineEdit@@UAEXPBVQValidator@@@Z 1008a7f8 f   qt-mt323:qt-mt323.dll
 0002:0005c7fe       ?setReadOnly@QLineEdit@@UAEX_N@Z 1008a7fe f   qt-mt323:qt-mt323.dll
 0002:0005c804       ?setEchoMode@QLineEdit@@UAEXW4EchoMode@1@@Z 1008a804 f   qt-mt323:qt-mt323.dll
 0002:0005c80a       ?setFrame@QLineEdit@@UAEX_N@Z 1008a80a f   qt-mt323:qt-mt323.dll
 0002:0005c810       ?setMaxLength@QLineEdit@@UAEXH@Z 1008a810 f   qt-mt323:qt-mt323.dll
 0002:0005c816       ?redo@QLineEdit@@UAEXXZ    1008a816 f   qt-mt323:qt-mt323.dll
 0002:0005c81c       ?undo@QLineEdit@@UAEXXZ    1008a81c f   qt-mt323:qt-mt323.dll
 0002:0005c822       ?clear@QLineEdit@@UAEXXZ   1008a822 f   qt-mt323:qt-mt323.dll
 0002:0005c828       ?insert@QLineEdit@@UAEXABVQString@@@Z 1008a828 f   qt-mt323:qt-mt323.dll
 0002:0005c82e       ?clearValidator@QLineEdit@@UAEXXZ 1008a82e f   qt-mt323:qt-mt323.dll
 0002:0005c834       ?deselect@QLineEdit@@UAEXXZ 1008a834 f   qt-mt323:qt-mt323.dll
 0002:0005c83a       ?selectAll@QLineEdit@@UAEXXZ 1008a83a f   qt-mt323:qt-mt323.dll
 0002:0005c840       ?setText@QLineEdit@@UAEXABVQString@@@Z 1008a840 f   qt-mt323:qt-mt323.dll
 0002:0005c846       ?drawContents@QLineEdit@@MAEXPAVQPainter@@@Z 1008a846 f   qt-mt323:qt-mt323.dll
 0002:0005c84c       ?windowActivationChange@QLineEdit@@MAEX_N@Z 1008a84c f   qt-mt323:qt-mt323.dll
 0002:0005c852       ?dropEvent@QLineEdit@@MAEXPAVQDropEvent@@@Z 1008a852 f   qt-mt323:qt-mt323.dll
 0002:0005c858       ?dragLeaveEvent@QLineEdit@@MAEXPAVQDragLeaveEvent@@@Z 1008a858 f   qt-mt323:qt-mt323.dll
 0002:0005c85e       ?dragMoveEvent@QLineEdit@@MAEXPAVQDragMoveEvent@@@Z 1008a85e f   qt-mt323:qt-mt323.dll
 0002:0005c864       ?dragEnterEvent@QLineEdit@@MAEXPAVQDragEnterEvent@@@Z 1008a864 f   qt-mt323:qt-mt323.dll
 0002:0005c86a       ?imEndEvent@QLineEdit@@MAEXPAVQIMEvent@@@Z 1008a86a f   qt-mt323:qt-mt323.dll
 0002:0005c870       ?imComposeEvent@QLineEdit@@MAEXPAVQIMEvent@@@Z 1008a870 f   qt-mt323:qt-mt323.dll
 0002:0005c876       ?imStartEvent@QLineEdit@@MAEXPAVQIMEvent@@@Z 1008a876 f   qt-mt323:qt-mt323.dll
 0002:0005c87c       ?contextMenuEvent@QLineEdit@@MAEXPAVQContextMenuEvent@@@Z 1008a87c f   qt-mt323:qt-mt323.dll
 0002:0005c882       ?resizeEvent@QLineEdit@@MAEXPAVQResizeEvent@@@Z 1008a882 f   qt-mt323:qt-mt323.dll
 0002:0005c888       ?focusOutEvent@QLineEdit@@MAEXPAVQFocusEvent@@@Z 1008a888 f   qt-mt323:qt-mt323.dll
 0002:0005c88e       ?focusInEvent@QLineEdit@@MAEXPAVQFocusEvent@@@Z 1008a88e f   qt-mt323:qt-mt323.dll
 0002:0005c894       ?keyPressEvent@QLineEdit@@MAEXPAVQKeyEvent@@@Z 1008a894 f   qt-mt323:qt-mt323.dll
 0002:0005c89a       ?mouseMoveEvent@QLineEdit@@MAEXPAVQMouseEvent@@@Z 1008a89a f   qt-mt323:qt-mt323.dll
 0002:0005c8a0       ?mouseDoubleClickEvent@QLineEdit@@MAEXPAVQMouseEvent@@@Z 1008a8a0 f   qt-mt323:qt-mt323.dll
 0002:0005c8a6       ?mouseReleaseEvent@QLineEdit@@MAEXPAVQMouseEvent@@@Z 1008a8a6 f   qt-mt323:qt-mt323.dll
 0002:0005c8ac       ?mousePressEvent@QLineEdit@@MAEXPAVQMouseEvent@@@Z 1008a8ac f   qt-mt323:qt-mt323.dll
 0002:0005c8b2       ?minimumSizeHint@QLineEdit@@UBE?AVQSize@@XZ 1008a8b2 f   qt-mt323:qt-mt323.dll
 0002:0005c8b8       ?sizeHint@QLineEdit@@UBE?AVQSize@@XZ 1008a8b8 f   qt-mt323:qt-mt323.dll
 0002:0005c8be       ?setFont@QLineEdit@@UAEXABVQFont@@@Z 1008a8be f   qt-mt323:qt-mt323.dll
 0002:0005c8c4       ?setPalette@QLineEdit@@UAEXABVQPalette@@@Z 1008a8c4 f   qt-mt323:qt-mt323.dll
 0002:0005c8ca       ?event@QLineEdit@@MAE_NPAVQEvent@@@Z 1008a8ca f   qt-mt323:qt-mt323.dll
 0002:0005c8d0       ?qt_property@QLineEdit@@UAE_NHHPAVQVariant@@@Z 1008a8d0 f   qt-mt323:qt-mt323.dll
 0002:0005c8d6       ?qt_emit@QLineEdit@@UAE_NHPAUQUObject@@@Z 1008a8d6 f   qt-mt323:qt-mt323.dll
 0002:0005c8dc       ?qt_invoke@QLineEdit@@UAE_NHPAUQUObject@@@Z 1008a8dc f   qt-mt323:qt-mt323.dll
 0002:0005c8e2       ?qt_cast@QLineEdit@@UAEPAXPBD@Z 1008a8e2 f   qt-mt323:qt-mt323.dll
 0002:0005c8e8       ?className@QLineEdit@@UBEPBDXZ 1008a8e8 f   qt-mt323:qt-mt323.dll
 0002:0005c8ee       ?metaObject@QLineEdit@@UBEPAVQMetaObject@@XZ 1008a8ee f   qt-mt323:qt-mt323.dll
 0002:0005c8f4       ?reload@QTextBrowser@@UAEXXZ 1008a8f4 f   qt-mt323:qt-mt323.dll
 0002:0005c8fa       ?home@QTextBrowser@@UAEXXZ 1008a8fa f   qt-mt323:qt-mt323.dll
 0002:0005c900       ?forward@QTextBrowser@@UAEXXZ 1008a900 f   qt-mt323:qt-mt323.dll
 0002:0005c906       ?backward@QTextBrowser@@UAEXXZ 1008a906 f   qt-mt323:qt-mt323.dll
 0002:0005c90c       ?setSource@QTextBrowser@@UAEXABVQString@@@Z 1008a90c f   qt-mt323:qt-mt323.dll
 0002:0005c912       ?emitLinkClicked@QTextBrowser@@EAEXABVQString@@@Z 1008a912 f   qt-mt323:qt-mt323.dll
 0002:0005c918       ?emitHighlighted@QTextBrowser@@EAEXABVQString@@@Z 1008a918 f   qt-mt323:qt-mt323.dll
 0002:0005c91e       ?linksEnabled@QTextBrowser@@EBE_NXZ 1008a91e f   qt-mt323:qt-mt323.dll
 0002:0005c924       ?setText@QTextBrowser@@UAEXABVQString@@0@Z 1008a924 f   qt-mt323:qt-mt323.dll
 0002:0005c92a       ?keyPressEvent@QTextBrowser@@MAEXPAVQKeyEvent@@@Z 1008a92a f   qt-mt323:qt-mt323.dll
 0002:0005c930       ?qt_property@QTextBrowser@@UAE_NHHPAVQVariant@@@Z 1008a930 f   qt-mt323:qt-mt323.dll
 0002:0005c936       ?qt_emit@QTextBrowser@@UAE_NHPAUQUObject@@@Z 1008a936 f   qt-mt323:qt-mt323.dll
 0002:0005c93c       ?qt_invoke@QTextBrowser@@UAE_NHPAUQUObject@@@Z 1008a93c f   qt-mt323:qt-mt323.dll
 0002:0005c942       ?qt_cast@QTextBrowser@@UAEPAXPBD@Z 1008a942 f   qt-mt323:qt-mt323.dll
 0002:0005c948       ?className@QTextBrowser@@UBEPBDXZ 1008a948 f   qt-mt323:qt-mt323.dll
 0002:0005c94e       ?metaObject@QTextBrowser@@UBEPAVQMetaObject@@XZ 1008a94e f   qt-mt323:qt-mt323.dll
 0002:0005c954       ?fieldAlignment@QDataTable@@MAEHPBVQSqlField@@@Z 1008a954 f   qt-mt323:qt-mt323.dll
 0002:0005c95a       ?paintField@QDataTable@@MAEXPAVQPainter@@PBVQSqlField@@ABVQRect@@_N@Z 1008a95a f   qt-mt323:qt-mt323.dll
 0002:0005c960       ?beginUpdate@QDataTable@@MAEPAVQWidget@@HH_N@Z 1008a960 f   qt-mt323:qt-mt323.dll
 0002:0005c966       ?beginInsert@QDataTable@@MAE_NXZ 1008a966 f   qt-mt323:qt-mt323.dll
 0002:0005c96c       ?handleError@QDataTable@@MAEXABVQSqlError@@@Z 1008a96c f   qt-mt323:qt-mt323.dll
 0002:0005c972       ?confirmCancel@QDataTable@@MAE?AW4Confirm@QSql@@W4Op@3@@Z 1008a972 f   qt-mt323:qt-mt323.dll
 0002:0005c978       ?confirmEdit@QDataTable@@MAE?AW4Confirm@QSql@@W4Op@3@@Z 1008a978 f   qt-mt323:qt-mt323.dll
 0002:0005c97e       ?deleteCurrent@QDataTable@@MAE_NXZ 1008a97e f   qt-mt323:qt-mt323.dll
 0002:0005c984       ?updateCurrent@QDataTable@@MAE_NXZ 1008a984 f   qt-mt323:qt-mt323.dll
 0002:0005c98a       ?insertCurrent@QDataTable@@MAE_NXZ 1008a98a f   qt-mt323:qt-mt323.dll
 0002:0005c990       ?sortDescending@QDataTable@@UAEXH@Z 1008a990 f   qt-mt323:qt-mt323.dll
 0002:0005c996       ?sortAscending@QDataTable@@UAEXH@Z 1008a996 f   qt-mt323:qt-mt323.dll
 0002:0005c99c       ?find@QDataTable@@UAEXABVQString@@_N1@Z 1008a99c f   qt-mt323:qt-mt323.dll
 0002:0005c9a2       ?refresh@QDataTable@@UAEXXZ 1008a9a2 f   qt-mt323:qt-mt323.dll
 0002:0005c9a8       ?setSort@QDataTable@@UAEXABVQStringList@@@Z 1008a9a8 f   qt-mt323:qt-mt323.dll
 0002:0005c9ae       ?setSort@QDataTable@@UAEXABVQSqlIndex@@@Z 1008a9ae f   qt-mt323:qt-mt323.dll
 0002:0005c9b4       ?setFilter@QDataTable@@UAEXABVQString@@@Z 1008a9b4 f   qt-mt323:qt-mt323.dll
 0002:0005c9ba       ?setAutoEdit@QDataTable@@UAEX_N@Z 1008a9ba f   qt-mt323:qt-mt323.dll
 0002:0005c9c0       ?setAutoDelete@QDataTable@@UAEX_N@Z 1008a9c0 f   qt-mt323:qt-mt323.dll
 0002:0005c9c6       ?setConfirmCancels@QDataTable@@UAEX_N@Z 1008a9c6 f   qt-mt323:qt-mt323.dll
 0002:0005c9cc       ?setConfirmDelete@QDataTable@@UAEX_N@Z 1008a9cc f   qt-mt323:qt-mt323.dll
 0002:0005c9d2       ?setConfirmUpdate@QDataTable@@UAEX_N@Z 1008a9d2 f   qt-mt323:qt-mt323.dll
 0002:0005c9d8       ?setConfirmInsert@QDataTable@@UAEX_N@Z 1008a9d8 f   qt-mt323:qt-mt323.dll
 0002:0005c9de       ?setConfirmEdits@QDataTable@@UAEX_N@Z 1008a9de f   qt-mt323:qt-mt323.dll
 0002:0005c9e4       ?setDateFormat@QDataTable@@UAEXW4DateFormat@Qt@@@Z 1008a9e4 f   qt-mt323:qt-mt323.dll
 0002:0005c9ea       ?setFalseText@QDataTable@@UAEXABVQString@@@Z 1008a9ea f   qt-mt323:qt-mt323.dll
 0002:0005c9f0       ?setTrueText@QDataTable@@UAEXABVQString@@@Z 1008a9f0 f   qt-mt323:qt-mt323.dll
 0002:0005c9f6       ?setNullText@QDataTable@@UAEXABVQString@@@Z 1008a9f6 f   qt-mt323:qt-mt323.dll
 0002:0005c9fc       ?setSqlCursor@QDataTable@@UAEXPAVQSqlCursor@@_N1@Z 1008a9fc f   qt-mt323:qt-mt323.dll
 0002:0005ca02       ?setColumn@QDataTable@@UAEXIABVQString@@0HABVQIconSet@@@Z 1008aa02 f   qt-mt323:qt-mt323.dll
 0002:0005ca08       ?removeColumn@QDataTable@@UAEXI@Z 1008aa08 f   qt-mt323:qt-mt323.dll
 0002:0005ca0e       ?addColumn@QDataTable@@UAEXABVQString@@0HABVQIconSet@@@Z 1008aa0e f   qt-mt323:qt-mt323.dll
 0002:0005ca14       ?columnClicked@QDataTable@@MAEXH@Z 1008aa14 f   qt-mt323:qt-mt323.dll
 0002:0005ca1a       ?rowIndexChanged@QTable@@MAEXHHH@Z 1008aa1a f   qt-mt323:qt-mt323.dll
 0002:0005ca20       ?columnIndexChanged@QTable@@MAEXHHH@Z 1008aa20 f   qt-mt323:qt-mt323.dll
 0002:0005ca26       ?rowHeightChanged@QTable@@MAEXH@Z 1008aa26 f   qt-mt323:qt-mt323.dll
 0002:0005ca2c       ?columnWidthChanged@QTable@@MAEXH@Z 1008aa2c f   qt-mt323:qt-mt323.dll
 0002:0005ca32       ?insertWidget@QTable@@MAEXHHPAVQWidget@@@Z 1008aa32 f   qt-mt323:qt-mt323.dll
 0002:0005ca38       ?resizeData@QDataTable@@MAEXH@Z 1008aa38 f   qt-mt323:qt-mt323.dll
 0002:0005ca3e       ?endEdit@QDataTable@@MAEXHH_N0@Z 1008aa3e f   qt-mt323:qt-mt323.dll
 0002:0005ca44       ?beginEdit@QDataTable@@EAEPAVQWidget@@HH_N@Z 1008aa44 f   qt-mt323:qt-mt323.dll
 0002:0005ca4a       ?setCellContentFromEditor@QTable@@MAEXHH@Z 1008aa4a f   qt-mt323:qt-mt323.dll
 0002:0005ca50       ?createEditor@QDataTable@@MBEPAVQWidget@@HH_N@Z 1008aa50 f   qt-mt323:qt-mt323.dll
 0002:0005ca56       ?activateNextCell@QDataTable@@MAEXXZ 1008aa56 f   qt-mt323:qt-mt323.dll
 0002:0005ca5c       ?paintEmptyArea@QTable@@MAEXPAVQPainter@@HHHH@Z 1008aa5c f   qt-mt323:qt-mt323.dll
 0002:0005ca62       ?startDrag@QTable@@MAEXXZ  1008aa62 f   qt-mt323:qt-mt323.dll
 0002:0005ca68       ?dragObject@QTable@@MAEPAVQDragObject@@XZ 1008aa68 f   qt-mt323:qt-mt323.dll
 0002:0005ca6e       ?editCell@QTable@@UAEXHH_N@Z 1008aa6e f   qt-mt323:qt-mt323.dll
 0002:0005ca74       ?removeColumns@QTable@@UAEXABV?$QMemArray@H@@@Z 1008aa74 f   qt-mt323:qt-mt323.dll
 0002:0005ca7a       ?removeColumn@QTable@@UAEXH@Z 1008aa7a f   qt-mt323:qt-mt323.dll
 0002:0005ca80       ?removeRows@QTable@@UAEXABV?$QMemArray@H@@@Z 1008aa80 f   qt-mt323:qt-mt323.dll
 0002:0005ca86       ?removeRow@QTable@@UAEXH@Z 1008aa86 f   qt-mt323:qt-mt323.dll
 0002:0005ca8c       ?insertColumns@QTable@@UAEXHH@Z 1008aa8c f   qt-mt323:qt-mt323.dll
 0002:0005ca92       ?insertRows@QTable@@UAEXHH@Z 1008aa92 f   qt-mt323:qt-mt323.dll
 0002:0005ca98       ?setDragEnabled@QTable@@UAEX_N@Z 1008aa98 f   qt-mt323:qt-mt323.dll
 0002:0005ca9e       ?setColumnReadOnly@QTable@@UAEXH_N@Z 1008aa9e f   qt-mt323:qt-mt323.dll
 0002:0005caa4       ?setRowReadOnly@QTable@@UAEXH_N@Z 1008aaa4 f   qt-mt323:qt-mt323.dll
 0002:0005caaa       ?setReadOnly@QTable@@UAEX_N@Z 1008aaaa f   qt-mt323:qt-mt323.dll
 0002:0005cab0       ?setRowMovingEnabled@QTable@@UAEX_N@Z 1008aab0 f   qt-mt323:qt-mt323.dll
 0002:0005cab6       ?setColumnMovingEnabled@QTable@@UAEX_N@Z 1008aab6 f   qt-mt323:qt-mt323.dll
 0002:0005cabc       ?setCurrentCell@QTable@@UAEXHH@Z 1008aabc f   qt-mt323:qt-mt323.dll
 0002:0005cac2       ?setTopMargin@QTable@@UAEXH@Z 1008aac2 f   qt-mt323:qt-mt323.dll
 0002:0005cac8       ?setLeftMargin@QTable@@UAEXH@Z 1008aac8 f   qt-mt323:qt-mt323.dll
 0002:0005cace       ?swapCells@QTable@@UAEXHHHH@Z 1008aace f   qt-mt323:qt-mt323.dll
 0002:0005cad4       ?swapColumns@QDataTable@@UAEXHH_N@Z 1008aad4 f   qt-mt323:qt-mt323.dll
 0002:0005cada       ?swapRows@QTable@@UAEXHH_N@Z 1008aada f   qt-mt323:qt-mt323.dll
 0002:0005cae0       ?setSorting@QTable@@UAEX_N@Z 1008aae0 f   qt-mt323:qt-mt323.dll
 0002:0005cae6       ?setRowStretchable@QTable@@UAEXH_N@Z 1008aae6 f   qt-mt323:qt-mt323.dll
 0002:0005caec       ?setColumnStretchable@QDataTable@@UAEXH_N@Z 1008aaec f   qt-mt323:qt-mt323.dll
 0002:0005caf2       ?adjustRow@QTable@@UAEXH@Z 1008aaf2 f   qt-mt323:qt-mt323.dll
 0002:0005caf8       ?adjustColumn@QDataTable@@UAEXH@Z 1008aaf8 f   qt-mt323:qt-mt323.dll
 0002:0005cafe       ?setRowHeight@QTable@@UAEXHH@Z 1008aafe f   qt-mt323:qt-mt323.dll
 0002:0005cb04       ?setColumnWidth@QDataTable@@UAEXHH@Z 1008ab04 f   qt-mt323:qt-mt323.dll
 0002:0005cb0a       ?showColumn@QDataTable@@UAEXH@Z 1008ab0a f   qt-mt323:qt-mt323.dll
 0002:0005cb10       ?showRow@QTable@@UAEXH@Z   1008ab10 f   qt-mt323:qt-mt323.dll
 0002:0005cb16       ?hideColumn@QDataTable@@UAEXH@Z 1008ab16 f   qt-mt323:qt-mt323.dll
 0002:0005cb1c       ?hideRow@QTable@@UAEXH@Z   1008ab1c f   qt-mt323:qt-mt323.dll
 0002:0005cb22       ?setShowGrid@QTable@@UAEX_N@Z 1008ab22 f   qt-mt323:qt-mt323.dll
 0002:0005cb28       ?setNumCols@QDataTable@@UAEXH@Z 1008ab28 f   qt-mt323:qt-mt323.dll
 0002:0005cb2e       ?setNumRows@QDataTable@@UAEXH@Z 1008ab2e f   qt-mt323:qt-mt323.dll
 0002:0005cb34       ?setFocusStyle@QTable@@UAEXW4FocusStyle@1@@Z 1008ab34 f   qt-mt323:qt-mt323.dll
 0002:0005cb3a       ?paintFocus@QTable@@UAEXPAVQPainter@@ABVQRect@@@Z 1008ab3a f   qt-mt323:qt-mt323.dll
 0002:0005cb40       ?paintCell@QTable@@UAEXPAVQPainter@@HHABVQRect@@_N@Z 1008ab40 f   qt-mt323:qt-mt323.dll
 0002:0005cb46       ?paintCell@QDataTable@@MAEXPAVQPainter@@HHABVQRect@@_NABVQColorGroup@@@Z 1008ab46 f   qt-mt323:qt-mt323.dll
 0002:0005cb4c       ?cellRect@QTable@@UBE?AVQRect@@HH@Z 1008ab4c f   qt-mt323:qt-mt323.dll
 0002:0005cb52       ?clearCellWidget@QTable@@UAEXHH@Z 1008ab52 f   qt-mt323:qt-mt323.dll
 0002:0005cb58       ?cellWidget@QTable@@UBEPAVQWidget@@HH@Z 1008ab58 f   qt-mt323:qt-mt323.dll
 0002:0005cb5e       ?setCellWidget@QTable@@UAEXHHPAVQWidget@@@Z 1008ab5e f   qt-mt323:qt-mt323.dll
 0002:0005cb64       ?takeItem@QDataTable@@MAEXPAVQTableItem@@@Z 1008ab64 f   qt-mt323:qt-mt323.dll
 0002:0005cb6a       ?sortColumn@QDataTable@@UAEXH_N0@Z 1008ab6a f   qt-mt323:qt-mt323.dll
 0002:0005cb70       ?currentSelection@QTable@@UBEHXZ 1008ab70 f   qt-mt323:qt-mt323.dll
 0002:0005cb76       ?removeSelection@QTable@@UAEXABVQTableSelection@@@Z 1008ab76 f   qt-mt323:qt-mt323.dll
 0002:0005cb7c       ?removeSelection@QTable@@UAEXH@Z 1008ab7c f   qt-mt323:qt-mt323.dll
 0002:0005cb82       ?addSelection@QTable@@UAEHABVQTableSelection@@@Z 1008ab82 f   qt-mt323:qt-mt323.dll
 0002:0005cb88       ?numCols@QDataTable@@UBEHXZ 1008ab88 f   qt-mt323:qt-mt323.dll
 0002:0005cb8e       ?numRows@QDataTable@@UBEHXZ 1008ab8e f   qt-mt323:qt-mt323.dll
 0002:0005cb94       ?rowAt@QTable@@UBEHH@Z     1008ab94 f   qt-mt323:qt-mt323.dll
 0002:0005cb9a       ?columnAt@QTable@@UBEHH@Z  1008ab9a f   qt-mt323:qt-mt323.dll
 0002:0005cba0       ?rowPos@QTable@@UBEHH@Z    1008aba0 f   qt-mt323:qt-mt323.dll
 0002:0005cba6       ?columnPos@QTable@@UBEHH@Z 1008aba6 f   qt-mt323:qt-mt323.dll
 0002:0005cbac       ?rowHeight@QTable@@UBEHH@Z 1008abac f   qt-mt323:qt-mt323.dll
 0002:0005cbb2       ?columnWidth@QTable@@UBEHH@Z 1008abb2 f   qt-mt323:qt-mt323.dll
 0002:0005cbb8       ?cellGeometry@QTable@@UBE?AVQRect@@HH@Z 1008abb8 f   qt-mt323:qt-mt323.dll
 0002:0005cbbe       ?clearCell@QDataTable@@MAEXHH@Z 1008abbe f   qt-mt323:qt-mt323.dll
 0002:0005cbc4       ?pixmap@QTable@@UBE?AVQPixmap@@HH@Z 1008abc4 f   qt-mt323:qt-mt323.dll
 0002:0005cbca       ?text@QDataTable@@UBE?AVQString@@HH@Z 1008abca f   qt-mt323:qt-mt323.dll
 0002:0005cbd0       ?item@QDataTable@@MBEPAVQTableItem@@HH@Z 1008abd0 f   qt-mt323:qt-mt323.dll
 0002:0005cbd6       ?setPixmap@QDataTable@@MAEXHHABVQPixmap@@@Z 1008abd6 f   qt-mt323:qt-mt323.dll
 0002:0005cbdc       ?setText@QTable@@UAEXHHABVQString@@@Z 1008abdc f   qt-mt323:qt-mt323.dll
 0002:0005cbe2       ?setItem@QDataTable@@MAEXHHPAVQTableItem@@@Z 1008abe2 f   qt-mt323:qt-mt323.dll
 0002:0005cbe8       ?setSelectionMode@QTable@@UAEXW4SelectionMode@1@@Z 1008abe8 f   qt-mt323:qt-mt323.dll
 0002:0005cbee       ?viewportResizeEvent@QTable@@MAEXPAVQResizeEvent@@@Z 1008abee f   qt-mt323:qt-mt323.dll
 0002:0005cbf4       ?contentsContextMenuEvent@QDataTable@@MAEXPAVQContextMenuEvent@@@Z 1008abf4 f   qt-mt323:qt-mt323.dll
 0002:0005cbfa       ?contentsDropEvent@QTable@@MAEXPAVQDropEvent@@@Z 1008abfa f   qt-mt323:qt-mt323.dll
 0002:0005cc00       ?contentsDragLeaveEvent@QTable@@MAEXPAVQDragLeaveEvent@@@Z 1008ac00 f   qt-mt323:qt-mt323.dll
 0002:0005cc06       ?contentsDragMoveEvent@QTable@@MAEXPAVQDragMoveEvent@@@Z 1008ac06 f   qt-mt323:qt-mt323.dll
 0002:0005cc0c       ?contentsDragEnterEvent@QTable@@MAEXPAVQDragEnterEvent@@@Z 1008ac0c f   qt-mt323:qt-mt323.dll
 0002:0005cc12       ?contentsMouseMoveEvent@QTable@@MAEXPAVQMouseEvent@@@Z 1008ac12 f   qt-mt323:qt-mt323.dll
 0002:0005cc18       ?contentsMouseDoubleClickEvent@QTable@@MAEXPAVQMouseEvent@@@Z 1008ac18 f   qt-mt323:qt-mt323.dll
 0002:0005cc1e       ?contentsMouseReleaseEvent@QTable@@MAEXPAVQMouseEvent@@@Z 1008ac1e f   qt-mt323:qt-mt323.dll
 0002:0005cc24       ?contentsMousePressEvent@QDataTable@@MAEXPAVQMouseEvent@@@Z 1008ac24 f   qt-mt323:qt-mt323.dll
 0002:0005cc2a       ?drawContents@QDataTable@@MAEXPAVQPainter@@HHHH@Z 1008ac2a f   qt-mt323:qt-mt323.dll
 0002:0005cc30       ?drawContents@QTable@@EAEXPAVQPainter@@@Z 1008ac30 f   qt-mt323:qt-mt323.dll
 0002:0005cc36       ?windowActivationChange@QTable@@MAEX_N@Z 1008ac36 f   qt-mt323:qt-mt323.dll
 0002:0005cc3c       ?showEvent@QTable@@MAEXPAVQShowEvent@@@Z 1008ac3c f   qt-mt323:qt-mt323.dll
 0002:0005cc42       ?resizeEvent@QDataTable@@MAEXPAVQResizeEvent@@@Z 1008ac42 f   qt-mt323:qt-mt323.dll
 0002:0005cc48       ?paintEvent@QTable@@MAEXPAVQPaintEvent@@@Z 1008ac48 f   qt-mt323:qt-mt323.dll
 0002:0005cc4e       ?focusOutEvent@QTable@@MAEXPAVQFocusEvent@@@Z 1008ac4e f   qt-mt323:qt-mt323.dll
 0002:0005cc54       ?focusInEvent@QTable@@MAEXPAVQFocusEvent@@@Z 1008ac54 f   qt-mt323:qt-mt323.dll
 0002:0005cc5a       ?keyPressEvent@QDataTable@@MAEXPAVQKeyEvent@@@Z 1008ac5a f   qt-mt323:qt-mt323.dll
 0002:0005cc60       ?sizeHint@QTable@@UBE?AVQSize@@XZ 1008ac60 f   qt-mt323:qt-mt323.dll
 0002:0005cc66       ?setEnabled@QTable@@UAEX_N@Z 1008ac66 f   qt-mt323:qt-mt323.dll
 0002:0005cc6c       ?eventFilter@QDataTable@@MAE_NPAVQObject@@PAVQEvent@@@Z 1008ac6c f   qt-mt323:qt-mt323.dll
 0002:0005cc72       ?qt_property@QDataTable@@UAE_NHHPAVQVariant@@@Z 1008ac72 f   qt-mt323:qt-mt323.dll
 0002:0005cc78       ?qt_emit@QDataTable@@UAE_NHPAUQUObject@@@Z 1008ac78 f   qt-mt323:qt-mt323.dll
 0002:0005cc7e       ?qt_invoke@QDataTable@@UAE_NHPAUQUObject@@@Z 1008ac7e f   qt-mt323:qt-mt323.dll
 0002:0005cc84       ?qt_cast@QDataTable@@UAEPAXPBD@Z 1008ac84 f   qt-mt323:qt-mt323.dll
 0002:0005cc8a       ?className@QDataTable@@UBEPBDXZ 1008ac8a f   qt-mt323:qt-mt323.dll
 0002:0005cc90       ?metaObject@QDataTable@@UBEPAVQMetaObject@@XZ 1008ac90 f   qt-mt323:qt-mt323.dll
 0002:0005cc96       ?paintCell@QListBox@@MAEXPAVQPainter@@HH@Z 1008ac96 f   qt-mt323:qt-mt323.dll
 0002:0005cc9c       ?invertSelection@QListBox@@UAEXXZ 1008ac9c f   qt-mt323:qt-mt323.dll
 0002:0005cca2       ?selectAll@QListBox@@UAEX_N@Z 1008aca2 f   qt-mt323:qt-mt323.dll
 0002:0005cca8       ?clearSelection@QListBox@@UAEXXZ 1008aca8 f   qt-mt323:qt-mt323.dll
 0002:0005ccae       ?ensureCurrentVisible@QListBox@@UAEXXZ 1008acae f   qt-mt323:qt-mt323.dll
 0002:0005ccb4       ?setVariableHeight@QListBox@@UAEX_N@Z 1008acb4 f   qt-mt323:qt-mt323.dll
 0002:0005ccba       ?setVariableWidth@QListBox@@UAEX_N@Z 1008acba f   qt-mt323:qt-mt323.dll
 0002:0005ccc0       ?setRowMode@QListBox@@UAEXW4LayoutMode@1@@Z 1008acc0 f   qt-mt323:qt-mt323.dll
 0002:0005ccc6       ?setRowMode@QListBox@@UAEXH@Z 1008acc6 f   qt-mt323:qt-mt323.dll
 0002:0005cccc       ?setColumnMode@QListBox@@UAEXW4LayoutMode@1@@Z 1008accc f   qt-mt323:qt-mt323.dll
 0002:0005ccd2       ?setColumnMode@QListBox@@UAEXH@Z 1008acd2 f   qt-mt323:qt-mt323.dll
 0002:0005ccd8       ?setSelected@QListBox@@UAEXPAVQListBoxItem@@_N@Z 1008acd8 f   qt-mt323:qt-mt323.dll
 0002:0005ccde       ?setSelectionMode@QListBox@@UAEXW4SelectionMode@1@@Z 1008acde f   qt-mt323:qt-mt323.dll
 0002:0005cce4       ?setBottomItem@QListBox@@UAEXH@Z 1008ace4 f   qt-mt323:qt-mt323.dll
 0002:0005ccea       ?setTopItem@QListBox@@UAEXH@Z 1008acea f   qt-mt323:qt-mt323.dll
 0002:0005ccf0       ?setCurrentItem@QListBox@@UAEXH@Z 1008acf0 f   qt-mt323:qt-mt323.dll
 0002:0005ccf6       ?setCurrentItem@QListBox@@UAEXPAVQListBoxItem@@@Z 1008acf6 f   qt-mt323:qt-mt323.dll
 0002:0005ccfc       ?viewportResizeEvent@QScrollView@@MAEXPAVQResizeEvent@@@Z 1008acfc f   qt-mt323:qt-mt323.dll
 0002:0005cd02       ?viewportPaintEvent@QListBox@@UAEXPAVQPaintEvent@@@Z 1008ad02 f   qt-mt323:qt-mt323.dll
 0002:0005cd08       ?contentsContextMenuEvent@QListBox@@MAEXPAVQContextMenuEvent@@@Z 1008ad08 f   qt-mt323:qt-mt323.dll
 0002:0005cd0e       ?contentsWheelEvent@QScrollView@@MAEXPAVQWheelEvent@@@Z 1008ad0e f   qt-mt323:qt-mt323.dll
 0002:0005cd14       ?contentsDropEvent@QScrollView@@MAEXPAVQDropEvent@@@Z 1008ad14 f   qt-mt323:qt-mt323.dll
 0002:0005cd1a       ?contentsDragLeaveEvent@QScrollView@@MAEXPAVQDragLeaveEvent@@@Z 1008ad1a f   qt-mt323:qt-mt323.dll
 0002:0005cd20       ?contentsDragMoveEvent@QScrollView@@MAEXPAVQDragMoveEvent@@@Z 1008ad20 f   qt-mt323:qt-mt323.dll
 0002:0005cd26       ?contentsDragEnterEvent@QScrollView@@MAEXPAVQDragEnterEvent@@@Z 1008ad26 f   qt-mt323:qt-mt323.dll
 0002:0005cd2c       ?contentsMouseMoveEvent@QScrollView@@MAEXPAVQMouseEvent@@@Z 1008ad2c f   qt-mt323:qt-mt323.dll
 0002:0005cd32       ?contentsMouseDoubleClickEvent@QScrollView@@MAEXPAVQMouseEvent@@@Z 1008ad32 f   qt-mt323:qt-mt323.dll
 0002:0005cd38       ?contentsMouseReleaseEvent@QScrollView@@MAEXPAVQMouseEvent@@@Z 1008ad38 f   qt-mt323:qt-mt323.dll
 0002:0005cd3e       ?contentsMousePressEvent@QScrollView@@MAEXPAVQMouseEvent@@@Z 1008ad3e f   qt-mt323:qt-mt323.dll
 0002:0005cd44       ?drawContents@QScrollView@@MAEXPAVQPainter@@HHHH@Z 1008ad44 f   qt-mt323:qt-mt323.dll
 0002:0005cd4a       ?drawContents@QScrollView@@EAEXPAVQPainter@@@Z 1008ad4a f   qt-mt323:qt-mt323.dll
 0002:0005cd50       ?focusNextPrevChild@QScrollView@@MAE_N_N@Z 1008ad50 f   qt-mt323:qt-mt323.dll
 0002:0005cd56       ?windowActivationChange@QListBox@@MAEX_N@Z 1008ad56 f   qt-mt323:qt-mt323.dll
 0002:0005cd5c       ?showEvent@QListBox@@MAEXPAVQShowEvent@@@Z 1008ad5c f   qt-mt323:qt-mt323.dll
 0002:0005cd62       ?resizeEvent@QListBox@@MAEXPAVQResizeEvent@@@Z 1008ad62 f   qt-mt323:qt-mt323.dll
 0002:0005cd68       ?focusOutEvent@QListBox@@MAEXPAVQFocusEvent@@@Z 1008ad68 f   qt-mt323:qt-mt323.dll
 0002:0005cd6e       ?focusInEvent@QListBox@@MAEXPAVQFocusEvent@@@Z 1008ad6e f   qt-mt323:qt-mt323.dll
 0002:0005cd74       ?keyPressEvent@QListBox@@MAEXPAVQKeyEvent@@@Z 1008ad74 f   qt-mt323:qt-mt323.dll
 0002:0005cd7a       ?mouseMoveEvent@QListBox@@MAEXPAVQMouseEvent@@@Z 1008ad7a f   qt-mt323:qt-mt323.dll
 0002:0005cd80       ?mouseDoubleClickEvent@QListBox@@MAEXPAVQMouseEvent@@@Z 1008ad80 f   qt-mt323:qt-mt323.dll
 0002:0005cd86       ?mouseReleaseEvent@QListBox@@MAEXPAVQMouseEvent@@@Z 1008ad86 f   qt-mt323:qt-mt323.dll
 0002:0005cd8c       ?mousePressEvent@QListBox@@MAEXPAVQMouseEvent@@@Z 1008ad8c f   qt-mt323:qt-mt323.dll
 0002:0005cd92       ?minimumSizeHint@QListBox@@UBE?AVQSize@@XZ 1008ad92 f   qt-mt323:qt-mt323.dll
 0002:0005cd98       ?sizeHint@QListBox@@UBE?AVQSize@@XZ 1008ad98 f   qt-mt323:qt-mt323.dll
 0002:0005cd9e       ?setFont@QListBox@@UAEXABVQFont@@@Z 1008ad9e f   qt-mt323:qt-mt323.dll
 0002:0005cda4       ?setEnabled@QScrollView@@UAEX_N@Z 1008ada4 f   qt-mt323:qt-mt323.dll
 0002:0005cdaa       ?eventFilter@QListBox@@MAE_NPAVQObject@@PAVQEvent@@@Z 1008adaa f   qt-mt323:qt-mt323.dll
 0002:0005cdb0       ?qt_property@QListBox@@UAE_NHHPAVQVariant@@@Z 1008adb0 f   qt-mt323:qt-mt323.dll
 0002:0005cdb6       ?qt_emit@QListBox@@UAE_NHPAUQUObject@@@Z 1008adb6 f   qt-mt323:qt-mt323.dll
 0002:0005cdbc       ?qt_invoke@QListBox@@UAE_NHPAUQUObject@@@Z 1008adbc f   qt-mt323:qt-mt323.dll
 0002:0005cdc2       ?qt_cast@QListBox@@UAEPAXPBD@Z 1008adc2 f   qt-mt323:qt-mt323.dll
 0002:0005cdc8       ?className@QListBox@@UBEPBDXZ 1008adc8 f   qt-mt323:qt-mt323.dll
 0002:0005cdce       ?metaObject@QListBox@@UBEPAVQMetaObject@@XZ 1008adce f   qt-mt323:qt-mt323.dll
 0002:0005cdd4       ?frameChanged@QHBox@@MAEXXZ 1008add4 f   qt-mt323:qt-mt323.dll
 0002:0005cdda       ?sizeHint@QHBox@@UBE?AVQSize@@XZ 1008adda f   qt-mt323:qt-mt323.dll
 0002:0005cde0       ?qt_property@QHBox@@UAE_NHHPAVQVariant@@@Z 1008ade0 f   qt-mt323:qt-mt323.dll
 0002:0005cde6       ?qt_emit@QHBox@@UAE_NHPAUQUObject@@@Z 1008ade6 f   qt-mt323:qt-mt323.dll
 0002:0005cdec       ?qt_invoke@QHBox@@UAE_NHPAUQUObject@@@Z 1008adec f   qt-mt323:qt-mt323.dll
 0002:0005cdf2       ?qt_cast@QHBox@@UAEPAXPBD@Z 1008adf2 f   qt-mt323:qt-mt323.dll
 0002:0005cdf8       ?className@QHBox@@UBEPBDXZ 1008adf8 f   qt-mt323:qt-mt323.dll
 0002:0005cdfe       ?metaObject@QHBox@@UBEPAVQMetaObject@@XZ 1008adfe f   qt-mt323:qt-mt323.dll
 0002:0005ce04       ?setAlignment@QGroupBox@@UAEXH@Z 1008ae04 f   qt-mt323:qt-mt323.dll
 0002:0005ce0a       ?setTitle@QGroupBox@@UAEXABVQString@@@Z 1008ae0a f   qt-mt323:qt-mt323.dll
 0002:0005ce10       ?setColumnLayout@QGroupBox@@UAEXHW4Orientation@Qt@@@Z 1008ae10 f   qt-mt323:qt-mt323.dll
 0002:0005ce16       ?fontChange@QGroupBox@@MAEXABVQFont@@@Z 1008ae16 f   qt-mt323:qt-mt323.dll
 0002:0005ce1c       ?resizeEvent@QGroupBox@@MAEXPAVQResizeEvent@@@Z 1008ae1c f   qt-mt323:qt-mt323.dll
 0002:0005ce22       ?paintEvent@QGroupBox@@MAEXPAVQPaintEvent@@@Z 1008ae22 f   qt-mt323:qt-mt323.dll
 0002:0005ce28       ?focusInEvent@QGroupBox@@MAEXPAVQFocusEvent@@@Z 1008ae28 f   qt-mt323:qt-mt323.dll
 0002:0005ce2e       ?sizeHint@QGroupBox@@UBE?AVQSize@@XZ 1008ae2e f   qt-mt323:qt-mt323.dll
 0002:0005ce34       ?setEnabled@QGroupBox@@UAEX_N@Z 1008ae34 f   qt-mt323:qt-mt323.dll
 0002:0005ce3a       ?childEvent@QGroupBox@@MAEXPAVQChildEvent@@@Z 1008ae3a f   qt-mt323:qt-mt323.dll
 0002:0005ce40       ?event@QGroupBox@@MAE_NPAVQEvent@@@Z 1008ae40 f   qt-mt323:qt-mt323.dll
 0002:0005ce46       ?qt_property@QGroupBox@@UAE_NHHPAVQVariant@@@Z 1008ae46 f   qt-mt323:qt-mt323.dll
 0002:0005ce4c       ?qt_emit@QGroupBox@@UAE_NHPAUQUObject@@@Z 1008ae4c f   qt-mt323:qt-mt323.dll
 0002:0005ce52       ?qt_invoke@QGroupBox@@UAE_NHPAUQUObject@@@Z 1008ae52 f   qt-mt323:qt-mt323.dll
 0002:0005ce58       ?qt_cast@QGroupBox@@UAEPAXPBD@Z 1008ae58 f   qt-mt323:qt-mt323.dll
 0002:0005ce5e       ?className@QGroupBox@@UBEPBDXZ 1008ae5e f   qt-mt323:qt-mt323.dll
 0002:0005ce64       ?metaObject@QGroupBox@@UBEPAVQMetaObject@@XZ 1008ae64 f   qt-mt323:qt-mt323.dll
 0002:0005ce6a       ?rangeChange@QDial@@MAEXXZ 1008ae6a f   qt-mt323:qt-mt323.dll
 0002:0005ce70       ?valueChange@QDial@@MAEXXZ 1008ae70 f   qt-mt323:qt-mt323.dll
 0002:0005ce76       ?repaintScreen@QDial@@MAEXPBVQRect@@@Z 1008ae76 f   qt-mt323:qt-mt323.dll
 0002:0005ce7c       ?setTracking@QDial@@UAEX_N@Z 1008ae7c f   qt-mt323:qt-mt323.dll
 0002:0005ce82       ?setWrapping@QDial@@UAEX_N@Z 1008ae82 f   qt-mt323:qt-mt323.dll
 0002:0005ce88       ?setNotchesVisible@QDial@@UAEX_N@Z 1008ae88 f   qt-mt323:qt-mt323.dll
 0002:0005ce8e       ?setValue@QDial@@UAEXH@Z   1008ae8e f   qt-mt323:qt-mt323.dll
 0002:0005ce94       ?setNotchTarget@QDial@@UAEXN@Z 1008ae94 f   qt-mt323:qt-mt323.dll
 0002:0005ce9a       ?resizeEvent@QDial@@MAEXPAVQResizeEvent@@@Z 1008ae9a f   qt-mt323:qt-mt323.dll
 0002:0005cea0       ?paintEvent@QDial@@MAEXPAVQPaintEvent@@@Z 1008aea0 f   qt-mt323:qt-mt323.dll
 0002:0005cea6       ?focusOutEvent@QDial@@MAEXPAVQFocusEvent@@@Z 1008aea6 f   qt-mt323:qt-mt323.dll
 0002:0005ceac       ?focusInEvent@QDial@@MAEXPAVQFocusEvent@@@Z 1008aeac f   qt-mt323:qt-mt323.dll
 0002:0005ceb2       ?keyPressEvent@QDial@@MAEXPAVQKeyEvent@@@Z 1008aeb2 f   qt-mt323:qt-mt323.dll
 0002:0005ceb8       ?wheelEvent@QDial@@MAEXPAVQWheelEvent@@@Z 1008aeb8 f   qt-mt323:qt-mt323.dll
 0002:0005cebe       ?mouseMoveEvent@QDial@@MAEXPAVQMouseEvent@@@Z 1008aebe f   qt-mt323:qt-mt323.dll
 0002:0005cec4       ?mouseReleaseEvent@QDial@@MAEXPAVQMouseEvent@@@Z 1008aec4 f   qt-mt323:qt-mt323.dll
 0002:0005ceca       ?mousePressEvent@QDial@@MAEXPAVQMouseEvent@@@Z 1008aeca f   qt-mt323:qt-mt323.dll
 0002:0005ced0       ?minimumSizeHint@QDial@@UBE?AVQSize@@XZ 1008aed0 f   qt-mt323:qt-mt323.dll
 0002:0005ced6       ?sizeHint@QDial@@UBE?AVQSize@@XZ 1008aed6 f   qt-mt323:qt-mt323.dll
 0002:0005cedc       ?qt_property@QDial@@UAE_NHHPAVQVariant@@@Z 1008aedc f   qt-mt323:qt-mt323.dll
 0002:0005cee2       ?qt_emit@QDial@@UAE_NHPAUQUObject@@@Z 1008aee2 f   qt-mt323:qt-mt323.dll
 0002:0005cee8       ?qt_invoke@QDial@@UAE_NHPAUQUObject@@@Z 1008aee8 f   qt-mt323:qt-mt323.dll
 0002:0005ceee       ?qt_cast@QDial@@UAEPAXPBD@Z 1008aeee f   qt-mt323:qt-mt323.dll
 0002:0005cef4       ?className@QDial@@UBEPBDXZ 1008aef4 f   qt-mt323:qt-mt323.dll
 0002:0005cefa       ?metaObject@QDial@@UBEPAVQMetaObject@@XZ 1008aefa f   qt-mt323:qt-mt323.dll
 0002:0005cf00       ?itemRemoved@QToolBox@@MAEXH@Z 1008af00 f   qt-mt323:qt-mt323.dll
 0002:0005cf06       ?itemInserted@QToolBox@@MAEXH@Z 1008af06 f   qt-mt323:qt-mt323.dll
 0002:0005cf0c       ?frameChanged@QToolBox@@MAEXXZ 1008af0c f   qt-mt323:qt-mt323.dll
 0002:0005cf12       ?styleChange@QToolBox@@MAEXAAVQStyle@@@Z 1008af12 f   qt-mt323:qt-mt323.dll
 0002:0005cf18       ?showEvent@QToolBox@@MAEXPAVQShowEvent@@@Z 1008af18 f   qt-mt323:qt-mt323.dll
 0002:0005cf1e       ?sizeHint@QFrame@@UBE?AVQSize@@XZ 1008af1e f   qt-mt323:qt-mt323.dll
 0002:0005cf24       ?qt_property@QToolBox@@UAE_NHHPAVQVariant@@@Z 1008af24 f   qt-mt323:qt-mt323.dll
 0002:0005cf2a       ?qt_emit@QToolBox@@UAE_NHPAUQUObject@@@Z 1008af2a f   qt-mt323:qt-mt323.dll
 0002:0005cf30       ?qt_invoke@QToolBox@@UAE_NHPAUQUObject@@@Z 1008af30 f   qt-mt323:qt-mt323.dll
 0002:0005cf36       ?qt_cast@QToolBox@@UAEPAXPBD@Z 1008af36 f   qt-mt323:qt-mt323.dll
 0002:0005cf3c       ?className@QToolBox@@UBEPBDXZ 1008af3c f   qt-mt323:qt-mt323.dll
 0002:0005cf42       ?metaObject@QToolBox@@UBEPAVQMetaObject@@XZ 1008af42 f   qt-mt323:qt-mt323.dll
 0002:0005cf48       ?stepChange@QRangeControl@@MAEXXZ 1008af48 f   qt-mt323:qt-mt323.dll
 0002:0005cf4e       ?rangeChange@QSpinBox@@MAEXXZ 1008af4e f   qt-mt323:qt-mt323.dll
 0002:0005cf54       ?valueChange@QSpinBox@@MAEXXZ 1008af54 f   qt-mt323:qt-mt323.dll
 0002:0005cf5a       ?interpretText@QSpinBox@@MAEXXZ 1008af5a f   qt-mt323:qt-mt323.dll
 0002:0005cf60       ?updateDisplay@QSpinBox@@MAEXXZ 1008af60 f   qt-mt323:qt-mt323.dll
 0002:0005cf66       ?mapTextToValue@QSpinBox@@MAEHPA_N@Z 1008af66 f   qt-mt323:qt-mt323.dll
 0002:0005cf6c       ?mapValueToText@QSpinBox@@MAE?AVQString@@H@Z 1008af6c f   qt-mt323:qt-mt323.dll
 0002:0005cf72       ?selectAll@QSpinBox@@UAEXXZ 1008af72 f   qt-mt323:qt-mt323.dll
 0002:0005cf78       ?stepDown@QSpinBox@@UAEXXZ 1008af78 f   qt-mt323:qt-mt323.dll
 0002:0005cf7e       ?stepUp@QSpinBox@@UAEXXZ   1008af7e f   qt-mt323:qt-mt323.dll
 0002:0005cf84       ?setSuffix@QSpinBox@@UAEXABVQString@@@Z 1008af84 f   qt-mt323:qt-mt323.dll
 0002:0005cf8a       ?setPrefix@QSpinBox@@UAEXABVQString@@@Z 1008af8a f   qt-mt323:qt-mt323.dll
 0002:0005cf90       ?setValue@QSpinBox@@UAEXH@Z 1008af90 f   qt-mt323:qt-mt323.dll
 0002:0005cf96       ?setValidator@QSpinBox@@UAEXPBVQValidator@@@Z 1008af96 f   qt-mt323:qt-mt323.dll
 0002:0005cf9c       ?setButtonSymbols@QSpinBox@@UAEXW4ButtonSymbols@1@@Z 1008af9c f   qt-mt323:qt-mt323.dll
 0002:0005cfa2       ?setWrapping@QSpinBox@@UAEX_N@Z 1008afa2 f   qt-mt323:qt-mt323.dll
 0002:0005cfa8       ?setSpecialValueText@QSpinBox@@UAEXABVQString@@@Z 1008afa8 f   qt-mt323:qt-mt323.dll
 0002:0005cfae       ?cleanText@QSpinBox@@UBE?AVQString@@XZ 1008afae f   qt-mt323:qt-mt323.dll
 0002:0005cfb4       ?suffix@QSpinBox@@UBE?AVQString@@XZ 1008afb4 f   qt-mt323:qt-mt323.dll
 0002:0005cfba       ?prefix@QSpinBox@@UBE?AVQString@@XZ 1008afba f   qt-mt323:qt-mt323.dll
 0002:0005cfc0       ?styleChange@QSpinBox@@MAEXAAVQStyle@@@Z 1008afc0 f   qt-mt323:qt-mt323.dll
 0002:0005cfc6       ?resizeEvent@QSpinBox@@MAEXPAVQResizeEvent@@@Z 1008afc6 f   qt-mt323:qt-mt323.dll
 0002:0005cfcc       ?leaveEvent@QSpinBox@@MAEXPAVQEvent@@@Z 1008afcc f   qt-mt323:qt-mt323.dll
 0002:0005cfd2       ?wheelEvent@QSpinBox@@MAEXPAVQWheelEvent@@@Z 1008afd2 f   qt-mt323:qt-mt323.dll
 0002:0005cfd8       ?minimumSizeHint@QSpinBox@@UBE?AVQSize@@XZ 1008afd8 f   qt-mt323:qt-mt323.dll
 0002:0005cfde       ?sizeHint@QSpinBox@@UBE?AVQSize@@XZ 1008afde f   qt-mt323:qt-mt323.dll
 0002:0005cfe4       ?setEnabled@QSpinBox@@UAEX_N@Z 1008afe4 f   qt-mt323:qt-mt323.dll
 0002:0005cfea       ?eventFilter@QSpinBox@@MAE_NPAVQObject@@PAVQEvent@@@Z 1008afea f   qt-mt323:qt-mt323.dll
 0002:0005cff0       ?qt_property@QSpinBox@@UAE_NHHPAVQVariant@@@Z 1008aff0 f   qt-mt323:qt-mt323.dll
 0002:0005cff6       ?qt_emit@QSpinBox@@UAE_NHPAUQUObject@@@Z 1008aff6 f   qt-mt323:qt-mt323.dll
 0002:0005cffc       ?qt_invoke@QSpinBox@@UAE_NHPAUQUObject@@@Z 1008affc f   qt-mt323:qt-mt323.dll
 0002:0005d002       ?qt_cast@QSpinBox@@UAEPAXPBD@Z 1008b002 f   qt-mt323:qt-mt323.dll
 0002:0005d008       ?className@QSpinBox@@UBEPBDXZ 1008b008 f   qt-mt323:qt-mt323.dll
 0002:0005d00e       ?metaObject@QSpinBox@@UBEPAVQMetaObject@@XZ 1008b00e f   qt-mt323:qt-mt323.dll
 0002:0005d014       ?qt_property@QTextView@@UAE_NHHPAVQVariant@@@Z 1008b014 f   qt-mt323:qt-mt323.dll
 0002:0005d01a       ?qt_emit@QTextView@@UAE_NHPAUQUObject@@@Z 1008b01a f   qt-mt323:qt-mt323.dll
 0002:0005d020       ?qt_invoke@QTextView@@UAE_NHPAUQUObject@@@Z 1008b020 f   qt-mt323:qt-mt323.dll
 0002:0005d026       ?qt_cast@QTextView@@UAEPAXPBD@Z 1008b026 f   qt-mt323:qt-mt323.dll
 0002:0005d02c       ?className@QTextView@@UBEPBDXZ 1008b02c f   qt-mt323:qt-mt323.dll
 0002:0005d032       ?metaObject@QTextView@@UBEPAVQMetaObject@@XZ 1008b032 f   qt-mt323:qt-mt323.dll
 0002:0005d038       ?setSecond@QTimeEdit@@MAEXH@Z 1008b038 f   qt-mt323:qt-mt323.dll
 0002:0005d03e       ?setMinute@QTimeEdit@@MAEXH@Z 1008b03e f   qt-mt323:qt-mt323.dll
 0002:0005d044       ?setHour@QTimeEdit@@MAEXH@Z 1008b044 f   qt-mt323:qt-mt323.dll
 0002:0005d04a       ?outOfRange@QTimeEdit@@MBE_NHHH@Z 1008b04a f   qt-mt323:qt-mt323.dll
 0002:0005d050       ?setSeparator@QTimeEdit@@UAEXABVQString@@@Z 1008b050 f   qt-mt323:qt-mt323.dll
 0002:0005d056       ?setRange@QTimeEdit@@UAEXABVQTime@@0@Z 1008b056 f   qt-mt323:qt-mt323.dll
 0002:0005d05c       ?setMaxValue@QTimeEdit@@UAEXABVQTime@@@Z 1008b05c f   qt-mt323:qt-mt323.dll
 0002:0005d062       ?setMinValue@QTimeEdit@@UAEXABVQTime@@@Z 1008b062 f   qt-mt323:qt-mt323.dll
 0002:0005d068       ?setAutoAdvance@QTimeEdit@@UAEX_N@Z 1008b068 f   qt-mt323:qt-mt323.dll
 0002:0005d06e       ?setTime@QTimeEdit@@UAEXABVQTime@@@Z 1008b06e f   qt-mt323:qt-mt323.dll
 0002:0005d074       ?stepDown@QTimeEdit@@MAEXXZ 1008b074 f   qt-mt323:qt-mt323.dll
 0002:0005d07a       ?stepUp@QTimeEdit@@MAEXXZ  1008b07a f   qt-mt323:qt-mt323.dll
 0002:0005d080       ?removeLastNumber@QTimeEdit@@MAEXH@Z 1008b080 f   qt-mt323:qt-mt323.dll
 0002:0005d086       ?addNumber@QTimeEdit@@MAEXHH@Z 1008b086 f   qt-mt323:qt-mt323.dll
 0002:0005d08c       ?sectionFormattedText@QTimeEdit@@MAE?AVQString@@H@Z 1008b08c f   qt-mt323:qt-mt323.dll
 0002:0005d092       ?setFocusSection@QTimeEdit@@MAE_NH@Z 1008b092 f   qt-mt323:qt-mt323.dll
 0002:0005d098       ?resizeEvent@QTimeEdit@@MAEXPAVQResizeEvent@@@Z 1008b098 f   qt-mt323:qt-mt323.dll
 0002:0005d09e       ?minimumSizeHint@QTimeEdit@@UBE?AVQSize@@XZ 1008b09e f   qt-mt323:qt-mt323.dll
 0002:0005d0a4       ?sizeHint@QTimeEdit@@UBE?AVQSize@@XZ 1008b0a4 f   qt-mt323:qt-mt323.dll
 0002:0005d0aa       ?timerEvent@QTimeEdit@@MAEXPAVQTimerEvent@@@Z 1008b0aa f   qt-mt323:qt-mt323.dll
 0002:0005d0b0       ?event@QTimeEdit@@MAE_NPAVQEvent@@@Z 1008b0b0 f   qt-mt323:qt-mt323.dll
 0002:0005d0b6       ?qt_property@QTimeEdit@@UAE_NHHPAVQVariant@@@Z 1008b0b6 f   qt-mt323:qt-mt323.dll
 0002:0005d0bc       ?qt_emit@QTimeEdit@@UAE_NHPAUQUObject@@@Z 1008b0bc f   qt-mt323:qt-mt323.dll
 0002:0005d0c2       ?qt_invoke@QTimeEdit@@UAE_NHPAUQUObject@@@Z 1008b0c2 f   qt-mt323:qt-mt323.dll
 0002:0005d0c8       ?qt_cast@QTimeEdit@@UAEPAXPBD@Z 1008b0c8 f   qt-mt323:qt-mt323.dll
 0002:0005d0ce       ?className@QTimeEdit@@UBEPBDXZ 1008b0ce f   qt-mt323:qt-mt323.dll
 0002:0005d0d4       ?metaObject@QTimeEdit@@UBEPAVQMetaObject@@XZ 1008b0d4 f   qt-mt323:qt-mt323.dll
 0002:0005d0da       ?setRubberband@QSplitter@@MAEXH@Z 1008b0da f   qt-mt323:qt-mt323.dll
 0002:0005d0e0       ?drawSplitter@QSplitter@@MAEXPAVQPainter@@HHHH@Z 1008b0e0 f   qt-mt323:qt-mt323.dll
 0002:0005d0e6       ?setOpaqueResize@QSplitter@@UAEX_N@Z 1008b0e6 f   qt-mt323:qt-mt323.dll
 0002:0005d0ec       ?setResizeMode@QSplitter@@UAEXPAVQWidget@@W4ResizeMode@1@@Z 1008b0ec f   qt-mt323:qt-mt323.dll
 0002:0005d0f2       ?setOrientation@QSplitter@@UAEXW4Orientation@Qt@@@Z 1008b0f2 f   qt-mt323:qt-mt323.dll
 0002:0005d0f8       ?styleChange@QSplitter@@MAEXAAVQStyle@@@Z 1008b0f8 f   qt-mt323:qt-mt323.dll
 0002:0005d0fe       ?resizeEvent@QSplitter@@MAEXPAVQResizeEvent@@@Z 1008b0fe f   qt-mt323:qt-mt323.dll
 0002:0005d104       ?minimumSizeHint@QSplitter@@UBE?AVQSize@@XZ 1008b104 f   qt-mt323:qt-mt323.dll
 0002:0005d10a       ?sizeHint@QSplitter@@UBE?AVQSize@@XZ 1008b10a f   qt-mt323:qt-mt323.dll
 0002:0005d110       ?childEvent@QSplitter@@MAEXPAVQChildEvent@@@Z 1008b110 f   qt-mt323:qt-mt323.dll
 0002:0005d116       ?event@QSplitter@@MAE_NPAVQEvent@@@Z 1008b116 f   qt-mt323:qt-mt323.dll
 0002:0005d11c       ?qt_property@QSplitter@@UAE_NHHPAVQVariant@@@Z 1008b11c f   qt-mt323:qt-mt323.dll
 0002:0005d122       ?qt_emit@QSplitter@@UAE_NHPAUQUObject@@@Z 1008b122 f   qt-mt323:qt-mt323.dll
 0002:0005d128       ?qt_invoke@QSplitter@@UAE_NHPAUQUObject@@@Z 1008b128 f   qt-mt323:qt-mt323.dll
 0002:0005d12e       ?qt_cast@QSplitter@@UAEPAXPBD@Z 1008b12e f   qt-mt323:qt-mt323.dll
 0002:0005d134       ?className@QSplitter@@UBEPBDXZ 1008b134 f   qt-mt323:qt-mt323.dll
 0002:0005d13a       ?metaObject@QSplitter@@UBEPAVQMetaObject@@XZ 1008b13a f   qt-mt323:qt-mt323.dll
 0002:0005d140       ?setSmallDecimalPoint@QLCDNumber@@UAEX_N@Z 1008b140 f   qt-mt323:qt-mt323.dll
 0002:0005d146       ?setBinMode@QLCDNumber@@UAEXXZ 1008b146 f   qt-mt323:qt-mt323.dll
 0002:0005d14c       ?setOctMode@QLCDNumber@@UAEXXZ 1008b14c f   qt-mt323:qt-mt323.dll
 0002:0005d152       ?setDecMode@QLCDNumber@@UAEXXZ 1008b152 f   qt-mt323:qt-mt323.dll
 0002:0005d158       ?setHexMode@QLCDNumber@@UAEXXZ 1008b158 f   qt-mt323:qt-mt323.dll
 0002:0005d15e       ?setSegmentStyle@QLCDNumber@@UAEXW4SegmentStyle@1@@Z 1008b15e f   qt-mt323:qt-mt323.dll
 0002:0005d164       ?setMode@QLCDNumber@@UAEXW4Mode@1@@Z 1008b164 f   qt-mt323:qt-mt323.dll
 0002:0005d16a       ?setNumDigits@QLCDNumber@@UAEXH@Z 1008b16a f   qt-mt323:qt-mt323.dll
 0002:0005d170       ?drawContents@QLCDNumber@@MAEXPAVQPainter@@@Z 1008b170 f   qt-mt323:qt-mt323.dll
 0002:0005d176       ?sizeHint@QLCDNumber@@UBE?AVQSize@@XZ 1008b176 f   qt-mt323:qt-mt323.dll
 0002:0005d17c       ?qt_property@QLCDNumber@@UAE_NHHPAVQVariant@@@Z 1008b17c f   qt-mt323:qt-mt323.dll
 0002:0005d182       ?qt_emit@QLCDNumber@@UAE_NHPAUQUObject@@@Z 1008b182 f   qt-mt323:qt-mt323.dll
 0002:0005d188       ?qt_invoke@QLCDNumber@@UAE_NHPAUQUObject@@@Z 1008b188 f   qt-mt323:qt-mt323.dll
 0002:0005d18e       ?qt_cast@QLCDNumber@@UAEPAXPBD@Z 1008b18e f   qt-mt323:qt-mt323.dll
 0002:0005d194       ?className@QLCDNumber@@UBEPBDXZ 1008b194 f   qt-mt323:qt-mt323.dll
 0002:0005d19a       ?metaObject@QLCDNumber@@UBEPAVQMetaObject@@XZ 1008b19a f   qt-mt323:qt-mt323.dll
 0002:0005d1a0       ?setChecked@QRadioButton@@UAEX_N@Z 1008b1a0 f   qt-mt323:qt-mt323.dll
 0002:0005d1a6       ?drawButtonLabel@QRadioButton@@MAEXPAVQPainter@@@Z 1008b1a6 f   qt-mt323:qt-mt323.dll
 0002:0005d1ac       ?drawButton@QRadioButton@@MAEXPAVQPainter@@@Z 1008b1ac f   qt-mt323:qt-mt323.dll
 0002:0005d1b2       ?hitButton@QRadioButton@@MBE_NABVQPoint@@@Z 1008b1b2 f   qt-mt323:qt-mt323.dll
 0002:0005d1b8       ?updateMask@QRadioButton@@MAEXXZ 1008b1b8 f   qt-mt323:qt-mt323.dll
 0002:0005d1be       ?resizeEvent@QRadioButton@@MAEXPAVQResizeEvent@@@Z 1008b1be f   qt-mt323:qt-mt323.dll
 0002:0005d1c4       ?sizeHint@QRadioButton@@UBE?AVQSize@@XZ 1008b1c4 f   qt-mt323:qt-mt323.dll
 0002:0005d1ca       ?qt_property@QRadioButton@@UAE_NHHPAVQVariant@@@Z 1008b1ca f   qt-mt323:qt-mt323.dll
 0002:0005d1d0       ?qt_emit@QRadioButton@@UAE_NHPAUQUObject@@@Z 1008b1d0 f   qt-mt323:qt-mt323.dll
 0002:0005d1d6       ?qt_invoke@QRadioButton@@UAE_NHPAUQUObject@@@Z 1008b1d6 f   qt-mt323:qt-mt323.dll
 0002:0005d1dc       ?qt_cast@QRadioButton@@UAEPAXPBD@Z 1008b1dc f   qt-mt323:qt-mt323.dll
 0002:0005d1e2       ?className@QRadioButton@@UBEPBDXZ 1008b1e2 f   qt-mt323:qt-mt323.dll
 0002:0005d1e8       ?metaObject@QRadioButton@@UBEPAVQMetaObject@@XZ 1008b1e8 f   qt-mt323:qt-mt323.dll
 0002:0005d1ee       ?frameChanged@QGrid@@MAEXXZ 1008b1ee f   qt-mt323:qt-mt323.dll
 0002:0005d1f4       ?drawContents@QFrame@@MAEXPAVQPainter@@@Z 1008b1f4 f   qt-mt323:qt-mt323.dll
 0002:0005d1fa       ?styleChange@QFrame@@MAEXAAVQStyle@@@Z 1008b1fa f   qt-mt323:qt-mt323.dll
 0002:0005d200       ?sizeHint@QGrid@@UBE?AVQSize@@XZ 1008b200 f   qt-mt323:qt-mt323.dll
 0002:0005d206       ?qt_property@QGrid@@UAE_NHHPAVQVariant@@@Z 1008b206 f   qt-mt323:qt-mt323.dll
 0002:0005d20c       ?qt_emit@QGrid@@UAE_NHPAUQUObject@@@Z 1008b20c f   qt-mt323:qt-mt323.dll
 0002:0005d212       ?qt_invoke@QGrid@@UAE_NHPAUQUObject@@@Z 1008b212 f   qt-mt323:qt-mt323.dll
 0002:0005d218       ?qt_cast@QGrid@@UAEPAXPBD@Z 1008b218 f   qt-mt323:qt-mt323.dll
 0002:0005d21e       ?className@QGrid@@UBEPBDXZ 1008b21e f   qt-mt323:qt-mt323.dll
 0002:0005d224       ?metaObject@QGrid@@UBEPAVQMetaObject@@XZ 1008b224 f   qt-mt323:qt-mt323.dll
 0002:0005d22a       ?setAutoAdvance@QDateTimeEdit@@UAEX_N@Z 1008b22a f   qt-mt323:qt-mt323.dll
 0002:0005d230       ?setDateTime@QDateTimeEdit@@UAEXABVQDateTime@@@Z 1008b230 f   qt-mt323:qt-mt323.dll
 0002:0005d236       ?resizeEvent@QDateTimeEdit@@MAEXPAVQResizeEvent@@@Z 1008b236 f   qt-mt323:qt-mt323.dll
 0002:0005d23c       ?minimumSizeHint@QDateTimeEdit@@UBE?AVQSize@@XZ 1008b23c f   qt-mt323:qt-mt323.dll
 0002:0005d242       ?sizeHint@QDateTimeEdit@@UBE?AVQSize@@XZ 1008b242 f   qt-mt323:qt-mt323.dll
 0002:0005d248       ?qt_property@QDateTimeEdit@@UAE_NHHPAVQVariant@@@Z 1008b248 f   qt-mt323:qt-mt323.dll
 0002:0005d24e       ?qt_emit@QDateTimeEdit@@UAE_NHPAUQUObject@@@Z 1008b24e f   qt-mt323:qt-mt323.dll
 0002:0005d254       ?qt_invoke@QDateTimeEdit@@UAE_NHPAUQUObject@@@Z 1008b254 f   qt-mt323:qt-mt323.dll
 0002:0005d25a       ?qt_cast@QDateTimeEdit@@UAEPAXPBD@Z 1008b25a f   qt-mt323:qt-mt323.dll
 0002:0005d260       ?className@QDateTimeEdit@@UBEPBDXZ 1008b260 f   qt-mt323:qt-mt323.dll
 0002:0005d266       ?metaObject@QDateTimeEdit@@UBEPAVQMetaObject@@XZ 1008b266 f   qt-mt323:qt-mt323.dll
 0002:0005d26c       ??0QLabel@@QAE@PAVQWidget@@PBDI@Z 1008b26c f   qt-mt323:qt-mt323.dll
 0002:0005d272       ?look_string@QGDict@@QAEPAXABVQString@@PAXH@Z 1008b272 f   qt-mt323:qt-mt323.dll
 0002:0005d278       ?queryUnknownInterface@QGPluginManager@@IBEKABVQString@@PAPAUQUnknownInterface@@@Z 1008b278 f   qt-mt323:qt-mt323.dll
 0002:0005d27e       ??0QDataTable@@QAE@PAVQWidget@@PBD@Z 1008b27e f   qt-mt323:qt-mt323.dll
 0002:0005d284       ?statusBar@QMainWindow@@QBEPAVQStatusBar@@XZ 1008b284 f   qt-mt323:qt-mt323.dll
 0002:0005d28a       ??0QMainWindow@@QAE@PAVQWidget@@PBDI@Z 1008b28a f   qt-mt323:qt-mt323.dll
 0002:0005d290       ??0QGrid@@QAE@HPAVQWidget@@PBDI@Z 1008b290 f   qt-mt323:qt-mt323.dll
 0002:0005d296       ??0QHBox@@QAE@PAVQWidget@@PBDI@Z 1008b296 f   qt-mt323:qt-mt323.dll
 0002:0005d29c       ??0QVBox@@QAE@PAVQWidget@@PBDI@Z 1008b29c f   qt-mt323:qt-mt323.dll
 0002:0005d2a2       ??0QToolBox@@QAE@PAVQWidget@@PBDI@Z 1008b2a2 f   qt-mt323:qt-mt323.dll
 0002:0005d2a8       ??0QWidgetStack@@QAE@PAVQWidget@@PBD@Z 1008b2a8 f   qt-mt323:qt-mt323.dll
 0002:0005d2ae       ??0QScrollBar@@QAE@PAVQWidget@@PBD@Z 1008b2ae f   qt-mt323:qt-mt323.dll
 0002:0005d2b4       ??0QDateTimeEdit@@QAE@PAVQWidget@@PBD@Z 1008b2b4 f   qt-mt323:qt-mt323.dll
 0002:0005d2ba       ??0QTimeEdit@@QAE@PAVQWidget@@PBD@Z 1008b2ba f   qt-mt323:qt-mt323.dll
 0002:0005d2c0       ??0QDateEdit@@QAE@PAVQWidget@@PBD@Z 1008b2c0 f   qt-mt323:qt-mt323.dll
 0002:0005d2c6       ??0QSplitter@@QAE@PAVQWidget@@PBD@Z 1008b2c6 f   qt-mt323:qt-mt323.dll
 0002:0005d2cc       ??0QFrame@@QAE@PAVQWidget@@PBDI@Z 1008b2cc f   qt-mt323:qt-mt323.dll
 0002:0005d2d2       ??0QSlider@@QAE@PAVQWidget@@PBD@Z 1008b2d2 f   qt-mt323:qt-mt323.dll
 0002:0005d2d8       ??0QDial@@QAE@PAVQWidget@@PBDI@Z 1008b2d8 f   qt-mt323:qt-mt323.dll
 0002:0005d2de       ??0QTextBrowser@@QAE@PAVQWidget@@PBD@Z 1008b2de f   qt-mt323:qt-mt323.dll
 0002:0005d2e4       ??0QTextView@@QAE@PAVQWidget@@PBD@Z 1008b2e4 f   qt-mt323:qt-mt323.dll
 0002:0005d2ea       ??0QProgressBar@@QAE@PAVQWidget@@PBDI@Z 1008b2ea f   qt-mt323:qt-mt323.dll
 0002:0005d2f0       ??0QLCDNumber@@QAE@PAVQWidget@@PBD@Z 1008b2f0 f   qt-mt323:qt-mt323.dll
 0002:0005d2f6       ??0QWizard@@QAE@PAVQWidget@@PBD_NI@Z 1008b2f6 f   qt-mt323:qt-mt323.dll
 0002:0005d2fc       ??0QComboBox@@QAE@_NPAVQWidget@@PBD@Z 1008b2fc f   qt-mt323:qt-mt323.dll
 0002:0005d302       ??0QTabWidget@@QAE@PAVQWidget@@PBDI@Z 1008b302 f   qt-mt323:qt-mt323.dll
 0002:0005d308       ??0QMultiLineEdit@@QAE@PAVQWidget@@PBD@Z 1008b308 f   qt-mt323:qt-mt323.dll
 0002:0005d30e       ??0QSpinBox@@QAE@PAVQWidget@@PBD@Z 1008b30e f   qt-mt323:qt-mt323.dll
 0002:0005d314       ??0QLineEdit@@QAE@PAVQWidget@@PBD@Z 1008b314 f   qt-mt323:qt-mt323.dll
 0002:0005d31a       ??0QListView@@QAE@PAVQWidget@@PBDI@Z 1008b31a f   qt-mt323:qt-mt323.dll
 0002:0005d320       ??0QListBox@@QAE@PAVQWidget@@PBDI@Z 1008b320 f   qt-mt323:qt-mt323.dll
 0002:0005d326       ??0QTable@@QAE@PAVQWidget@@PBD@Z 1008b326 f   qt-mt323:qt-mt323.dll
 0002:0005d32c       ??0QIconView@@QAE@PAVQWidget@@PBDI@Z 1008b32c f   qt-mt323:qt-mt323.dll
 0002:0005d332       ??0QButtonGroup@@QAE@PAVQWidget@@PBD@Z 1008b332 f   qt-mt323:qt-mt323.dll
 0002:0005d338       ??0QGroupBox@@QAE@PAVQWidget@@PBD@Z 1008b338 f   qt-mt323:qt-mt323.dll
 0002:0005d33e       ??0QRadioButton@@QAE@PAVQWidget@@PBD@Z 1008b33e f   qt-mt323:qt-mt323.dll
 0002:0005d344       ??0QToolButton@@QAE@PAVQWidget@@PBD@Z 1008b344 f   qt-mt323:qt-mt323.dll
 0002:0005d34a       ??1QToolButton@@UAE@XZ     1008b34a f   qt-mt323:qt-mt323.dll
 0002:0005d350       ??1QButton@@UAE@XZ         1008b350 f   qt-mt323:qt-mt323.dll
 0002:0005d356       ??1QGroupBox@@UAE@XZ       1008b356 f   qt-mt323:qt-mt323.dll
 0002:0005d35c       ??1QButtonGroup@@UAE@XZ    1008b35c f   qt-mt323:qt-mt323.dll
 0002:0005d362       ??1QIconView@@UAE@XZ       1008b362 f   qt-mt323:qt-mt323.dll
 0002:0005d368       ??1QTable@@UAE@XZ          1008b368 f   qt-mt323:qt-mt323.dll
 0002:0005d36e       ??1QListBox@@UAE@XZ        1008b36e f   qt-mt323:qt-mt323.dll
 0002:0005d374       ??1QListView@@UAE@XZ       1008b374 f   qt-mt323:qt-mt323.dll
 0002:0005d37a       ??1QLineEdit@@UAE@XZ       1008b37a f   qt-mt323:qt-mt323.dll
 0002:0005d380       ??1QSpinBox@@UAE@XZ        1008b380 f   qt-mt323:qt-mt323.dll
 0002:0005d386       ??1QMultiLineEdit@@UAE@XZ  1008b386 f   qt-mt323:qt-mt323.dll
 0002:0005d38c       ??1QLabel@@UAE@XZ          1008b38c f   qt-mt323:qt-mt323.dll
 0002:0005d392       ??1QTabWidget@@UAE@XZ      1008b392 f   qt-mt323:qt-mt323.dll
 0002:0005d398       ??1QComboBox@@UAE@XZ       1008b398 f   qt-mt323:qt-mt323.dll
 0002:0005d39e       ??1QWizard@@UAE@XZ         1008b39e f   qt-mt323:qt-mt323.dll
 0002:0005d3a4       ??1QLCDNumber@@UAE@XZ      1008b3a4 f   qt-mt323:qt-mt323.dll
 0002:0005d3aa       ??1QTextView@@UAE@XZ       1008b3aa f   qt-mt323:qt-mt323.dll
 0002:0005d3b0       ??1QTextBrowser@@UAE@XZ    1008b3b0 f   qt-mt323:qt-mt323.dll
 0002:0005d3b6       ??1QDial@@UAE@XZ           1008b3b6 f   qt-mt323:qt-mt323.dll
 0002:0005d3bc       ??1QSlider@@UAE@XZ         1008b3bc f   qt-mt323:qt-mt323.dll
 0002:0005d3c2       ??1QSplitter@@UAE@XZ       1008b3c2 f   qt-mt323:qt-mt323.dll
 0002:0005d3c8       ??1QDateEdit@@UAE@XZ       1008b3c8 f   qt-mt323:qt-mt323.dll
 0002:0005d3ce       ??1QTimeEdit@@UAE@XZ       1008b3ce f   qt-mt323:qt-mt323.dll
 0002:0005d3d4       ??1QDateTimeEdit@@UAE@XZ   1008b3d4 f   qt-mt323:qt-mt323.dll
 0002:0005d3da       ??1QScrollBar@@UAE@XZ      1008b3da f   qt-mt323:qt-mt323.dll
 0002:0005d3e0       ??1QWidgetStack@@UAE@XZ    1008b3e0 f   qt-mt323:qt-mt323.dll
 0002:0005d3e6       ??1QToolBox@@UAE@XZ        1008b3e6 f   qt-mt323:qt-mt323.dll
 0002:0005d3ec       ??1QMainWindow@@UAE@XZ     1008b3ec f   qt-mt323:qt-mt323.dll
 0002:0005d3f2       ??1QDataTable@@UAE@XZ      1008b3f2 f   qt-mt323:qt-mt323.dll
 0002:0005d3f8       ?featureList@QGPluginManager@@QBE?AVQStringList@@XZ 1008b3f8 f   qt-mt323:qt-mt323.dll
 0002:0005d3fe       ?insertItem@QToolBox@@QAEHHPAVQWidget@@ABVQIconSet@@ABVQString@@@Z 1008b3fe f   qt-mt323:qt-mt323.dll
 0002:0005d404       ?iterator@QGridLayout@@UAE?AVQLayoutIterator@@XZ 1008b404 f   qt-mt323:qt-mt323.dll
 0002:0005d40a       ?invalidate@QGridLayout@@UAEXXZ 1008b40a f   qt-mt323:qt-mt323.dll
 0002:0005d410       ?heightForWidth@QGridLayout@@UBEHH@Z 1008b410 f   qt-mt323:qt-mt323.dll
 0002:0005d416       ?hasHeightForWidth@QGridLayout@@UBE_NXZ 1008b416 f   qt-mt323:qt-mt323.dll
 0002:0005d41c       ?setGeometry@QGridLayout@@UAEXABVQRect@@@Z 1008b41c f   qt-mt323:qt-mt323.dll
 0002:0005d422       ?expanding@QGridLayout@@UBE?AW4ExpandData@QSizePolicy@@XZ 1008b422 f   qt-mt323:qt-mt323.dll
 0002:0005d428       ?maximumSize@QGridLayout@@UBE?AVQSize@@XZ 1008b428 f   qt-mt323:qt-mt323.dll
 0002:0005d42e       ?minimumSize@QGridLayout@@UBE?AVQSize@@XZ 1008b42e f   qt-mt323:qt-mt323.dll
 0002:0005d434       ?sizeHint@QGridLayout@@UBE?AVQSize@@XZ 1008b434 f   qt-mt323:qt-mt323.dll
 0002:0005d43a       ?setColStretch@QGridLayout@@UAEXHH@Z 1008b43a f   qt-mt323:qt-mt323.dll
 0002:0005d440       ?setRowStretch@QGridLayout@@UAEXHH@Z 1008b440 f   qt-mt323:qt-mt323.dll
 0002:0005d446       ?addItem@QGridLayout@@UAEXPAVQLayoutItem@@@Z 1008b446 f   qt-mt323:qt-mt323.dll
 0002:0005d44c       ?qt_property@QGridLayout@@UAE_NHHPAVQVariant@@@Z 1008b44c f   qt-mt323:qt-mt323.dll
 0002:0005d452       ?qt_emit@QGridLayout@@UAE_NHPAUQUObject@@@Z 1008b452 f   qt-mt323:qt-mt323.dll
 0002:0005d458       ?qt_invoke@QGridLayout@@UAE_NHPAUQUObject@@@Z 1008b458 f   qt-mt323:qt-mt323.dll
 0002:0005d45e       ?qt_cast@QGridLayout@@UAEPAXPBD@Z 1008b45e f   qt-mt323:qt-mt323.dll
 0002:0005d464       ?className@QGridLayout@@UBEPBDXZ 1008b464 f   qt-mt323:qt-mt323.dll
 0002:0005d46a       ?metaObject@QGridLayout@@UBEPAVQMetaObject@@XZ 1008b46a f   qt-mt323:qt-mt323.dll
 0002:0005d470       ??0QGridLayout@@QAE@PAVQWidget@@HHHHPBD@Z 1008b470 f   qt-mt323:qt-mt323.dll
 0002:0005d476       ??0QHBoxLayout@@QAE@PAVQLayout@@HPBD@Z 1008b476 f   qt-mt323:qt-mt323.dll
 0002:0005d47c       ??0QVBoxLayout@@QAE@PAVQLayout@@HPBD@Z 1008b47c f   qt-mt323:qt-mt323.dll
 0002:0005d482       ??0QGridLayout@@QAE@PAVQLayout@@HHHPBD@Z 1008b482 f   qt-mt323:qt-mt323.dll
 0002:0005d488       ?currentItem@QToolBox@@QBEPAVQWidget@@XZ 1008b488 f   qt-mt323:qt-mt323.dll
 0002:0005d48e       ?visibleWidget@QWidgetStack@@QBEPAVQWidget@@XZ 1008b48e f   qt-mt323:qt-mt323.dll
 0002:0005d494       ?currentPage@QWizard@@QBEPAVQWidget@@XZ 1008b494 f   qt-mt323:qt-mt323.dll
 0002:0005d49a       ?currentPage@QTabWidget@@QBEPAVQWidget@@XZ 1008b49a f   qt-mt323:qt-mt323.dll
 0002:0005d4a0       ??1QGridLayout@@UAE@XZ     1008b4a0 f   qt-mt323:qt-mt323.dll
 0002:0005d4a6       ?insert@QButtonGroup@@QAEHPAVQButton@@H@Z 1008b4a6 f   qt-mt323:qt-mt323.dll
 0002:0005d4ac       ?insert@?$QMap@VQString@@V1@@@QAE?AV?$QMapIterator@VQString@@V1@@@ABVQString@@0_N@Z 1008b4ac f   qt-mt323:qt-mt323.dll
 0002:0005d4b2       ?add@QWhatsThis@@SAXPAVQWidget@@ABVQString@@@Z 1008b4b2 f   qt-mt323:qt-mt323.dll
 0002:0005d4b8       ?add@QToolTip@@SAXPAVQWidget@@ABVQString@@@Z 1008b4b8 f   qt-mt323:qt-mt323.dll
 0002:0005d4be       ?keyToValue@QMetaProperty@@QBEHPBD@Z 1008b4be f   qt-mt323:qt-mt323.dll
 0002:0005d4c4       ?toCString@QVariant@@QBE?BVQCString@@XZ 1008b4c4 f   qt-mt323:qt-mt323.dll
 0002:0005d4ca       ??1QStrList@@UAE@XZ        1008b4ca f   qt-mt323:qt-mt323.dll
 0002:0005d4d0       ?keysToValue@QMetaProperty@@QBEHABVQStrList@@@Z 1008b4d0 f   qt-mt323:qt-mt323.dll
 0002:0005d4d6       ?split@QStringList@@SA?AV1@ABVQChar@@ABVQString@@_N@Z 1008b4d6 f   qt-mt323:qt-mt323.dll
 0002:0005d4dc       ?isSetType@QMetaProperty@@QBE_NXZ 1008b4dc f   qt-mt323:qt-mt323.dll
 0002:0005d4e2       ?isEnumType@QMetaProperty@@QBE_NXZ 1008b4e2 f   qt-mt323:qt-mt323.dll
 0002:0005d4e8       ?property@QMetaObject@@QBEPBVQMetaProperty@@H_N@Z 1008b4e8 f   qt-mt323:qt-mt323.dll
 0002:0005d4ee       ??1QKeySequence@@QAE@XZ    1008b4ee f   qt-mt323:qt-mt323.dll
 0002:0005d4f4       ??0QVariant@@QAE@ABVQKeySequence@@@Z 1008b4f4 f   qt-mt323:qt-mt323.dll
 0002:0005d4fa       ?toKeySequence@QVariant@@QBE?BVQKeySequence@@XZ 1008b4fa f   qt-mt323:qt-mt323.dll
 0002:0005d500       ?toRect@QVariant@@QBE?BVQRect@@XZ 1008b500 f   qt-mt323:qt-mt323.dll
 0002:0005d506       ?findProperty@QMetaObject@@QBEHPBD_N@Z 1008b506 f   qt-mt323:qt-mt323.dll
 0002:0005d50c       ??4QColorGroup@@QAEAAV0@ABV0@@Z 1008b50c f   qt-mt323:qt-mt323.dll
 0002:0005d512       ??0QVariant@@QAE@ABVQImage@@@Z 1008b512 f   qt-mt323:qt-mt323.dll
 0002:0005d518       ??0QVariant@@QAE@ABVQIconSet@@@Z 1008b518 f   qt-mt323:qt-mt323.dll
 0002:0005d51e       ??0QVariant@@QAE@ABVQPixmap@@@Z 1008b51e f   qt-mt323:qt-mt323.dll
 0002:0005d524       ?toULong@QString@@QBEKPA_NH@Z 1008b524 f   qt-mt323:qt-mt323.dll
 0002:0005d52a       ?toUInt@QString@@QBEIPA_NH@Z 1008b52a f   qt-mt323:qt-mt323.dll
 0002:0005d530       ?convertFromImage@QPixmap@@QAE_NABVQImage@@W4ColorMode@1@@Z 1008b530 f   qt-mt323:qt-mt323.dll
 0002:0005d536       ?decode@QImageDrag@@SA_NPBVQMimeSource@@AAVQPixmap@@@Z 1008b536 f   qt-mt323:qt-mt323.dll
 0002:0005d53c       ?defaultFactory@QMimeSourceFactory@@SAPAV1@XZ 1008b53c f   qt-mt323:qt-mt323.dll
 0002:0005d542       ??4QColor@@QAEAAV0@ABV0@@Z 1008b542 f   qt-mt323:qt-mt323.dll
 0002:0005d548       ??4QStrList@@QAEAAV0@ABV0@@Z 1008b548 f   qt-mt323:qt-mt323.dll
 0002:0005d54e       ?slotNames@QMetaObject@@QBE?AVQStrList@@_N@Z 1008b54e f   qt-mt323:qt-mt323.dll
 0002:0005d554       ?signalNames@QMetaObject@@QBE?AVQStrList@@_N@Z 1008b554 f   qt-mt323:qt-mt323.dll
 0002:0005d55a       ?assign@QGArray@@IAEAAV1@ABV1@@Z 1008b55a f   qt-mt323:qt-mt323.dll
 0002:0005d560       ?normalizeSignalSlot@QObject@@KA?AVQCString@@PBD@Z 1008b560 f   qt-mt323:qt-mt323.dll
 0002:0005d566       ?queryList@QObject@@QBEPAVQObjectList@@PBD0_N1@Z 1008b566 f   qt-mt323:qt-mt323.dll
 0002:0005d56c       ?count@QHeader@@QBEHXZ     1008b56c f   qt-mt323:qt-mt323.dll
 0002:0005d572       ?header@QListView@@QBEPAVQHeader@@XZ 1008b572 f   qt-mt323:qt-mt323.dll
 0002:0005d578       ?verticalHeader@QTable@@QBEPAVQHeader@@XZ 1008b578 f   qt-mt323:qt-mt323.dll
 0002:0005d57e       ?horizontalHeader@QTable@@QBEPAVQHeader@@XZ 1008b57e f   qt-mt323:qt-mt323.dll
 0002:0005d584       ?cancelRename@QListViewItem@@MAEXH@Z 1008b584 f   qt-mt323:qt-mt323.dll
 0002:0005d58a       ?okRename@QListViewItem@@MAEXH@Z 1008b58a f   qt-mt323:qt-mt323.dll
 0002:0005d590       ?dragLeft@QListViewItem@@MAEXXZ 1008b590 f   qt-mt323:qt-mt323.dll
 0002:0005d596       ?dragEntered@QListViewItem@@MAEXXZ 1008b596 f   qt-mt323:qt-mt323.dll
 0002:0005d59c       ?dropped@QListViewItem@@MAEXPAVQDropEvent@@@Z 1008b59c f   qt-mt323:qt-mt323.dll
 0002:0005d5a2       ?activate@QListViewItem@@MAEXXZ 1008b5a2 f   qt-mt323:qt-mt323.dll
 0002:0005d5a8       ?setHeight@QListViewItem@@MAEXH@Z 1008b5a8 f   qt-mt323:qt-mt323.dll
 0002:0005d5ae       ?enforceSortOrder@QListViewItem@@MBEXXZ 1008b5ae f   qt-mt323:qt-mt323.dll
 0002:0005d5b4       ?setMultiLinesEnabled@QListViewItem@@UAEX_N@Z 1008b5b4 f   qt-mt323:qt-mt323.dll
 0002:0005d5ba       ?rtti@QListViewItem@@UBEHXZ 1008b5ba f   qt-mt323:qt-mt323.dll
 0002:0005d5c0       ?setEnabled@QListViewItem@@UAEX_N@Z 1008b5c0 f   qt-mt323:qt-mt323.dll
 0002:0005d5c6       ?startRename@QListViewItem@@UAEXH@Z 1008b5c6 f   qt-mt323:qt-mt323.dll
 0002:0005d5cc       ?setRenameEnabled@QListViewItem@@UAEXH_N@Z 1008b5cc f   qt-mt323:qt-mt323.dll
 0002:0005d5d2       ?acceptDrop@QListViewItem@@UBE_NPBVQMimeSource@@@Z 1008b5d2 f   qt-mt323:qt-mt323.dll
 0002:0005d5d8       ?setDropEnabled@QListViewItem@@UAEX_N@Z 1008b5d8 f   qt-mt323:qt-mt323.dll
 0002:0005d5de       ?setDragEnabled@QListViewItem@@UAEX_N@Z 1008b5de f   qt-mt323:qt-mt323.dll
 0002:0005d5e4       ?sort@QListViewItem@@UAEXXZ 1008b5e4 f   qt-mt323:qt-mt323.dll
 0002:0005d5ea       ?setExpandable@QListViewItem@@UAEX_N@Z 1008b5ea f   qt-mt323:qt-mt323.dll
 0002:0005d5f0       ?setSelectable@QListViewItem@@UAEX_N@Z 1008b5f0 f   qt-mt323:qt-mt323.dll
 0002:0005d5f6       ?paintFocus@QListViewItem@@UAEXPAVQPainter@@ABVQColorGroup@@ABVQRect@@@Z 1008b5f6 f   qt-mt323:qt-mt323.dll
 0002:0005d5fc       ?paintBranches@QListViewItem@@UAEXPAVQPainter@@ABVQColorGroup@@HHH@Z 1008b5fc f   qt-mt323:qt-mt323.dll
 0002:0005d602       ?paintCell@QListViewItem@@UAEXPAVQPainter@@ABVQColorGroup@@HHH@Z 1008b602 f   qt-mt323:qt-mt323.dll
 0002:0005d608       ?setSelected@QListViewItem@@UAEX_N@Z 1008b608 f   qt-mt323:qt-mt323.dll
 0002:0005d60e       ?setup@QListViewItem@@UAEXXZ 1008b60e f   qt-mt323:qt-mt323.dll
 0002:0005d614       ?setOpen@QListViewItem@@UAEX_N@Z 1008b614 f   qt-mt323:qt-mt323.dll
 0002:0005d61a       ?sortChildItems@QListViewItem@@UAEXH_N@Z 1008b61a f   qt-mt323:qt-mt323.dll
 0002:0005d620       ?compare@QListViewItem@@UBEHPAV1@H_N@Z 1008b620 f   qt-mt323:qt-mt323.dll
 0002:0005d626       ?key@QListViewItem@@UBE?AVQString@@H_N@Z 1008b626 f   qt-mt323:qt-mt323.dll
 0002:0005d62c       ?pixmap@QListViewItem@@UBEPBVQPixmap@@H@Z 1008b62c f   qt-mt323:qt-mt323.dll
 0002:0005d632       ?setPixmap@QListViewItem@@UAEXHABVQPixmap@@@Z 1008b632 f   qt-mt323:qt-mt323.dll
 0002:0005d638       ?text@QListViewItem@@UBE?AVQString@@H@Z 1008b638 f   qt-mt323:qt-mt323.dll
 0002:0005d63e       ?setText@QListViewItem@@UAEXHABVQString@@@Z 1008b63e f   qt-mt323:qt-mt323.dll
 0002:0005d644       ?width@QListViewItem@@UBEHABVQFontMetrics@@PBVQListView@@H@Z 1008b644 f   qt-mt323:qt-mt323.dll
 0002:0005d64a       ?invalidateHeight@QListViewItem@@UAEXXZ 1008b64a f   qt-mt323:qt-mt323.dll
 0002:0005d650       ?removeItem@QListViewItem@@UAEXPAV1@@Z 1008b650 f   qt-mt323:qt-mt323.dll
 0002:0005d656       ?takeItem@QListViewItem@@UAEXPAV1@@Z 1008b656 f   qt-mt323:qt-mt323.dll
 0002:0005d65c       ?insertItem@QListViewItem@@UAEXPAV1@@Z 1008b65c f   qt-mt323:qt-mt323.dll
 0002:0005d662       ?columns@QListView@@QBEHXZ 1008b662 f   qt-mt323:qt-mt323.dll
 0002:0005d668       ??0QListViewItem@@QAE@PAVQListView@@PAV0@@Z 1008b668 f   qt-mt323:qt-mt323.dll
 0002:0005d66e       ??0QListViewItem@@QAE@PAV0@0@Z 1008b66e f   qt-mt323:qt-mt323.dll
 0002:0005d674       ??1QListViewItem@@UAE@XZ   1008b674 f   qt-mt323:qt-mt323.dll
 0002:0005d67a       ?setAccel@QMenuData@@QAEXABVQKeySequence@@H@Z 1008b67a f   qt-mt323:qt-mt323.dll
 0002:0005d680       ?accel@QAction@@QBE?AVQKeySequence@@XZ 1008b680 f   qt-mt323:qt-mt323.dll
 0002:0005d686       ?insertItem@QMenuData@@QAEHABVQIconSet@@ABVQString@@PAVQPopupMenu@@HH@Z 1008b686 f   qt-mt323:qt-mt323.dll
 0002:0005d68c       ?iconSet@QAction@@QBE?AVQIconSet@@XZ 1008b68c f   qt-mt323:qt-mt323.dll
 0002:0005d692       ?utf8@QString@@QBE?AVQCString@@XZ 1008b692 f   qt-mt323:qt-mt323.dll
 0002:0005d698       ??1QDir@@UAE@XZ            1008b698 f   qt-mt323:qt-mt323.dll
 0002:0005d69e       ?entryList@QDir@@UBE?AVQStringList@@HH@Z 1008b69e f   qt-mt323:qt-mt323.dll
 0002:0005d6a4       ??0QDir@@QAE@ABVQString@@0HH@Z 1008b6a4 f   qt-mt323:qt-mt323.dll
 0002:0005d6aa       ??1QTextStream@@UAE@XZ     1008b6aa f   qt-mt323:qt-mt323.dll
 0002:0005d6b0       ?read@QTextStream@@QAE?AVQString@@XZ 1008b6b0 f   qt-mt323:qt-mt323.dll
 0002:0005d6b6       ??0QTextStream@@QAE@PAVQIODevice@@@Z 1008b6b6 f   qt-mt323:qt-mt323.dll
 0002:0005d6bc       ??1QGDict@@MAE@XZ          1008b6bc f   qt-mt323:qt-mt323.dll
 0002:0005d6c2       ?clear@QGDict@@MAEXXZ      1008b6c2 f   qt-mt323:qt-mt323.dll
 0002:0005d6c8       ?sync@QSqlForm@@EAEXXZ     1008b6c8 f   qt-mt323:qt-mt323.dll
 0002:0005d6ce       ?clearValues@QSqlForm@@UAEX_N@Z 1008b6ce f   qt-mt323:qt-mt323.dll
 0002:0005d6d4       ?clear@QSqlForm@@UAEXXZ    1008b6d4 f   qt-mt323:qt-mt323.dll
 0002:0005d6da       ?writeFields@QSqlForm@@UAEXXZ 1008b6da f   qt-mt323:qt-mt323.dll
 0002:0005d6e0       ?readFields@QSqlForm@@UAEXXZ 1008b6e0 f   qt-mt323:qt-mt323.dll
 0002:0005d6e6       ?writeField@QSqlForm@@UAEXPAVQWidget@@@Z 1008b6e6 f   qt-mt323:qt-mt323.dll
 0002:0005d6ec       ?readField@QSqlForm@@UAEXPAVQWidget@@@Z 1008b6ec f   qt-mt323:qt-mt323.dll
 0002:0005d6f2       ?setRecord@QSqlForm@@UAEXPAVQSqlRecord@@@Z 1008b6f2 f   qt-mt323:qt-mt323.dll
 0002:0005d6f8       ?remove@QSqlForm@@UAEXABVQString@@@Z 1008b6f8 f   qt-mt323:qt-mt323.dll
 0002:0005d6fe       ?remove@QSqlForm@@MAEXPAVQWidget@@@Z 1008b6fe f   qt-mt323:qt-mt323.dll
 0002:0005d704       ?insert@QSqlForm@@UAEXPAVQWidget@@ABVQString@@@Z 1008b704 f   qt-mt323:qt-mt323.dll
 0002:0005d70a       ?insert@QSqlForm@@MAEXPAVQWidget@@PAVQSqlField@@@Z 1008b70a f   qt-mt323:qt-mt323.dll
 0002:0005d710       ?qt_property@QSqlForm@@UAE_NHHPAVQVariant@@@Z 1008b710 f   qt-mt323:qt-mt323.dll
 0002:0005d716       ?qt_emit@QSqlForm@@UAE_NHPAUQUObject@@@Z 1008b716 f   qt-mt323:qt-mt323.dll
 0002:0005d71c       ?qt_invoke@QSqlForm@@UAE_NHPAUQUObject@@@Z 1008b71c f   qt-mt323:qt-mt323.dll
 0002:0005d722       ?qt_cast@QSqlForm@@UAEPAXPBD@Z 1008b722 f   qt-mt323:qt-mt323.dll
 0002:0005d728       ?className@QSqlForm@@UBEPBDXZ 1008b728 f   qt-mt323:qt-mt323.dll
 0002:0005d72e       ?metaObject@QSqlForm@@UBEPAVQMetaObject@@XZ 1008b72e f   qt-mt323:qt-mt323.dll
 0002:0005d734       ??0QSqlForm@@QAE@PAVQObject@@PBD@Z 1008b734 f   qt-mt323:qt-mt323.dll
 0002:0005d73a       ??4?$QMap@VQString@@V1@@@QAEAAV0@ABV0@@Z 1008b73a f   qt-mt323:qt-mt323.dll
 0002:0005d740       ??1QSqlForm@@UAE@XZ        1008b740 f   qt-mt323:qt-mt323.dll
 0002:0005d746       ?handleError@QDataBrowser@@MAEXABVQSqlError@@@Z 1008b746 f   qt-mt323:qt-mt323.dll
 0002:0005d74c       ?confirmCancel@QDataBrowser@@MAE?AW4Confirm@QSql@@W4Op@3@@Z 1008b74c f   qt-mt323:qt-mt323.dll
 0002:0005d752       ?confirmEdit@QDataBrowser@@MAE?AW4Confirm@QSql@@W4Op@3@@Z 1008b752 f   qt-mt323:qt-mt323.dll
 0002:0005d758       ?currentEdited@QDataBrowser@@MAE_NXZ 1008b758 f   qt-mt323:qt-mt323.dll
 0002:0005d75e       ?deleteCurrent@QDataBrowser@@MAE_NXZ 1008b75e f   qt-mt323:qt-mt323.dll
 0002:0005d764       ?updateCurrent@QDataBrowser@@MAE_NXZ 1008b764 f   qt-mt323:qt-mt323.dll
 0002:0005d76a       ?insertCurrent@QDataBrowser@@MAE_NXZ 1008b76a f   qt-mt323:qt-mt323.dll
 0002:0005d770       ?clearValues@QDataBrowser@@UAEXXZ 1008b770 f   qt-mt323:qt-mt323.dll
 0002:0005d776       ?writeFields@QDataBrowser@@UAEXXZ 1008b776 f   qt-mt323:qt-mt323.dll
 0002:0005d77c       ?readFields@QDataBrowser@@UAEXXZ 1008b77c f   qt-mt323:qt-mt323.dll
 0002:0005d782       ?prev@QDataBrowser@@UAEXXZ 1008b782 f   qt-mt323:qt-mt323.dll
 0002:0005d788       ?next@QDataBrowser@@UAEXXZ 1008b788 f   qt-mt323:qt-mt323.dll
 0002:0005d78e       ?last@QDataBrowser@@UAEXXZ 1008b78e f   qt-mt323:qt-mt323.dll
 0002:0005d794       ?first@QDataBrowser@@UAEXXZ 1008b794 f   qt-mt323:qt-mt323.dll
 0002:0005d79a       ?del@QDataBrowser@@UAEXXZ  1008b79a f   qt-mt323:qt-mt323.dll
 0002:0005d7a0       ?update@QDataBrowser@@UAEXXZ 1008b7a0 f   qt-mt323:qt-mt323.dll
 0002:0005d7a6       ?insert@QDataBrowser@@UAEXXZ 1008b7a6 f   qt-mt323:qt-mt323.dll
 0002:0005d7ac       ?refresh@QDataBrowser@@UAEXXZ 1008b7ac f   qt-mt323:qt-mt323.dll
 0002:0005d7b2       ?seek@QDataBrowser@@UAE_NH_N@Z 1008b7b2 f   qt-mt323:qt-mt323.dll
 0002:0005d7b8       ?setAutoEdit@QDataBrowser@@UAEX_N@Z 1008b7b8 f   qt-mt323:qt-mt323.dll
 0002:0005d7be       ?setReadOnly@QDataBrowser@@UAEX_N@Z 1008b7be f   qt-mt323:qt-mt323.dll
 0002:0005d7c4       ?setConfirmCancels@QDataBrowser@@UAEX_N@Z 1008b7c4 f   qt-mt323:qt-mt323.dll
 0002:0005d7ca       ?setConfirmDelete@QDataBrowser@@UAEX_N@Z 1008b7ca f   qt-mt323:qt-mt323.dll
 0002:0005d7d0       ?setConfirmUpdate@QDataBrowser@@UAEX_N@Z 1008b7d0 f   qt-mt323:qt-mt323.dll
 0002:0005d7d6       ?setConfirmInsert@QDataBrowser@@UAEX_N@Z 1008b7d6 f   qt-mt323:qt-mt323.dll
 0002:0005d7dc       ?setConfirmEdits@QDataBrowser@@UAEX_N@Z 1008b7dc f   qt-mt323:qt-mt323.dll
 0002:0005d7e2       ?setForm@QDataBrowser@@UAEXPAVQSqlForm@@@Z 1008b7e2 f   qt-mt323:qt-mt323.dll
 0002:0005d7e8       ?setSqlCursor@QDataBrowser@@UAEXPAVQSqlCursor@@_N@Z 1008b7e8 f   qt-mt323:qt-mt323.dll
 0002:0005d7ee       ??0QDataBrowser@@QAE@PAVQWidget@@PBDI@Z 1008b7ee f   qt-mt323:qt-mt323.dll
 0002:0005d7f4       ??1QDataBrowser@@UAE@XZ    1008b7f4 f   qt-mt323:qt-mt323.dll
 0002:0005d7fa       ?clearValues@QDataView@@UAEXXZ 1008b7fa f   qt-mt323:qt-mt323.dll
 0002:0005d800       ?writeFields@QDataView@@UAEXXZ 1008b800 f   qt-mt323:qt-mt323.dll
 0002:0005d806       ?readFields@QDataView@@UAEXXZ 1008b806 f   qt-mt323:qt-mt323.dll
 0002:0005d80c       ?refresh@QDataView@@UAEXPAVQSqlRecord@@@Z 1008b80c f   qt-mt323:qt-mt323.dll
 0002:0005d812       ?setRecord@QDataView@@UAEXPAVQSqlRecord@@@Z 1008b812 f   qt-mt323:qt-mt323.dll
 0002:0005d818       ?setForm@QDataView@@UAEXPAVQSqlForm@@@Z 1008b818 f   qt-mt323:qt-mt323.dll
 0002:0005d81e       ??0QDataView@@QAE@PAVQWidget@@PBDI@Z 1008b81e f   qt-mt323:qt-mt323.dll
 0002:0005d824       ??1QDataView@@UAE@XZ       1008b824 f   qt-mt323:qt-mt323.dll
 0002:0005d82a       ??9@YA_NABVQString@@0@Z    1008b82a f   qt-mt323:qt-mt323.dll
 0002:0005d830       ??0QVariant@@QAE@ABVQDateTime@@@Z 1008b830 f   qt-mt323:qt-mt323.dll
 0002:0005d836       ??0QDateTime@@QAE@ABVQDate@@ABVQTime@@@Z 1008b836 f   qt-mt323:qt-mt323.dll
 0002:0005d83c       ??0QVariant@@QAE@ABVQTime@@@Z 1008b83c f   qt-mt323:qt-mt323.dll
 0002:0005d842       ??0QTime@@QAE@HHHH@Z       1008b842 f   qt-mt323:qt-mt323.dll
 0002:0005d848       ??0QVariant@@QAE@ABVQDate@@@Z 1008b848 f   qt-mt323:qt-mt323.dll
 0002:0005d84e       ??0QDate@@QAE@HHH@Z        1008b84e f   qt-mt323:qt-mt323.dll
 0002:0005d854       ??0QVariant@@QAE@ABVQStringList@@@Z 1008b854 f   qt-mt323:qt-mt323.dll
 0002:0005d85a       ??1QCursor@@QAE@XZ         1008b85a f   qt-mt323:qt-mt323.dll
 0002:0005d860       ??0QVariant@@QAE@ABVQCursor@@@Z 1008b860 f   qt-mt323:qt-mt323.dll
 0002:0005d866       ??0QCursor@@QAE@H@Z        1008b866 f   qt-mt323:qt-mt323.dll
 0002:0005d86c       ??0QVariant@@QAE@VQSizePolicy@@@Z 1008b86c f   qt-mt323:qt-mt323.dll
 0002:0005d872       ??0QVariant@@QAE@N@Z       1008b872 f   qt-mt323:qt-mt323.dll
 0002:0005d878       ?toDouble@QString@@QBENPA_N@Z 1008b878 f   qt-mt323:qt-mt323.dll
 0002:0005d87e       ??0QVariant@@QAE@ABVQCString@@@Z 1008b87e f   qt-mt323:qt-mt323.dll
 0002:0005d884       ?toFont@QVariant@@QBE?BVQFont@@XZ 1008b884 f   qt-mt323:qt-mt323.dll
 0002:0005d88a       ??0QVariant@@QAE@ABVQColor@@@Z 1008b88a f   qt-mt323:qt-mt323.dll
 0002:0005d890       ?setRgb@QColor@@QAEXHHH@Z  1008b890 f   qt-mt323:qt-mt323.dll
 0002:0005d896       ?setAttribute@QDomElement@@QAEXABVQString@@H@Z 1008b896 f   qt-mt323:qt-mt323.dll
 0002:0005d89c       ?setAttribute@QDomElement@@QAEXABVQString@@N@Z 1008b89c f   qt-mt323:qt-mt323.dll
 0002:0005d8a2       ?removeAttribute@QDomElement@@QAEXABVQString@@@Z 1008b8a2 f   qt-mt323:qt-mt323.dll
 0002:0005d8a8       ?item@QDomNodeList@@UBE?AVQDomNode@@H@Z 1008b8a8 f   qt-mt323:qt-mt323.dll
 0002:0005d8ae       ?length@QDomNodeList@@UBEIXZ 1008b8ae f   qt-mt323:qt-mt323.dll
 0002:0005d8b4       ??1QDomNodeList@@UAE@XZ    1008b8b4 f   qt-mt323:qt-mt323.dll
 0002:0005d8ba       ??4QDomNodeList@@QAEAAV0@ABV0@@Z 1008b8ba f   qt-mt323:qt-mt323.dll
 0002:0005d8c0       ?elementsByTagName@QDomDocument@@QBE?AVQDomNodeList@@ABVQString@@@Z 1008b8c0 f   qt-mt323:qt-mt323.dll
 0002:0005d8c6       ?hasAttribute@QDomElement@@QBE_NABVQString@@@Z 1008b8c6 f   qt-mt323:qt-mt323.dll
 0002:0005d8cc       ??0QDomNodeList@@QAE@XZ    1008b8cc f   qt-mt323:qt-mt323.dll
 0002:0005d8d2       ??0QDomNode@@QAE@XZ        1008b8d2 f   qt-mt323:qt-mt323.dll
 0002:0005d8d8       ?writeRawBytes@QDataStream@@QAEAAV1@PBDI@Z 1008b8d8 f   qt-mt323:qt-mt323.dll
 0002:0005d8de       ?staticMetaObject@QDataBrowser@@SAPAVQMetaObject@@XZ 1008b8de f   qt-mt323:qt-mt323.dll
 0002:0005d8e4       ?qt_cast@QDataBrowser@@UAEPAXPBD@Z 1008b8e4 f   qt-mt323:qt-mt323.dll
 0002:0005d8ea       ?qt_invoke@QDataBrowser@@UAE_NHPAUQUObject@@@Z 1008b8ea f   qt-mt323:qt-mt323.dll
 0002:0005d8f0       ?qt_emit@QDataBrowser@@UAE_NHPAUQUObject@@@Z 1008b8f0 f   qt-mt323:qt-mt323.dll
 0002:0005d8f6       ?qt_property@QDataBrowser@@UAE_NHHPAVQVariant@@@Z 1008b8f6 f   qt-mt323:qt-mt323.dll
 0002:0005d8fc       ?staticMetaObject@QDataView@@SAPAVQMetaObject@@XZ 1008b8fc f   qt-mt323:qt-mt323.dll
 0002:0005d902       ?qt_cast@QDataView@@UAEPAXPBD@Z 1008b902 f   qt-mt323:qt-mt323.dll
 0002:0005d908       ?qt_invoke@QDataView@@UAE_NHPAUQUObject@@@Z 1008b908 f   qt-mt323:qt-mt323.dll
 0002:0005d90e       ?qt_emit@QDataView@@UAE_NHPAUQUObject@@@Z 1008b90e f   qt-mt323:qt-mt323.dll
 0002:0005d914       ?qt_property@QDataView@@UAE_NHHPAVQVariant@@@Z 1008b914 f   qt-mt323:qt-mt323.dll
 0002:0005d91a       _EncodePointer@4           1008b91a f   kernel32:KERNEL32.dll
 0002:0005d920       _DecodePointer@4           1008b920 f   kernel32:KERNEL32.dll
 0002:0005d926       _IsDebuggerPresent@0       1008b926 f   kernel32:KERNEL32.dll
 0002:0005d92c       _RaiseException@16         1008b92c f   kernel32:KERNEL32.dll
 0002:0005d932       _GetProcAddress@8          1008b932 f   kernel32:KERNEL32.dll
 0002:0005d938       _LoadLibraryExW@12         1008b938 f   kernel32:KERNEL32.dll
 0002:0005d93e       _MultiByteToWideChar@24    1008b93e f   kernel32:KERNEL32.dll
 0002:0005d944       _WideCharToMultiByte@32    1008b944 f   kernel32:KERNEL32.dll
 0002:0005d94a       _IsProcessorFeaturePresent@4 1008b94a f   kernel32:KERNEL32.dll
 0002:0005d950       _QueryPerformanceCounter@4 1008b950 f   kernel32:KERNEL32.dll
 0002:0005d956       _GetCurrentProcessId@0     1008b956 f   kernel32:KERNEL32.dll
 0002:0005d95c       _GetCurrentThreadId@0      1008b95c f   kernel32:KERNEL32.dll
 0002:0005d962       _GetSystemTimeAsFileTime@4 1008b962 f   kernel32:KERNEL32.dll
 0002:0005d968       _DisableThreadLibraryCalls@4 1008b968 f   kernel32:KERNEL32.dll
 0002:0005d96e       _HeapAlloc@12              1008b96e f   kernel32:KERNEL32.dll
 0002:0005d974       _HeapFree@12               1008b974 f   kernel32:KERNEL32.dll
 0002:0005d97a       _GetProcessHeap@0          1008b97a f   kernel32:KERNEL32.dll
 0002:0005d980       _VirtualQuery@12           1008b980 f   kernel32:KERNEL32.dll
 0002:0005d986       _FreeLibrary@4             1008b986 f   kernel32:KERNEL32.dll
 0002:0005d98c       _GetModuleFileNameW@12     1008b98c f   kernel32:KERNEL32.dll
 0002:0005d992       _GetModuleHandleW@4        1008b992 f   kernel32:KERNEL32.dll
 0002:0005d998       __stricmp                  1008b998 f   MSVCRTD:MSVCR120D.dll
 0003:00000000       ___xc_a                    10096000     MSVCRTD:cinitexe.obj
 0003:000002a0       ___xc_z                    100962a0     MSVCRTD:cinitexe.obj
 0003:000003a4       ___xi_a                    100963a4     MSVCRTD:cinitexe.obj
 0003:000006b0       ___xi_z                    100966b0     MSVCRTD:cinitexe.obj
 0003:000007f8       ??_C@_01NBENCBCI@?$CK?$AA@ 100967f8     bncs_client_runtime.obj
 0003:00000800       ??_7error_category@std@@6B@ 10096800     bncs_client_runtime.obj
 0003:00000824       ??_7_Generic_error_category@std@@6B@ 10096824     bncs_client_runtime.obj
 0003:00000844       ??_C@_07DCLBNMLN@generic?$AA@ 10096844     bncs_client_runtime.obj
 0003:00000850       ??_C@_0O@BFJCFAAK@unknown?5error?$AA@ 10096850     bncs_client_runtime.obj
 0003:00000864       ??_7_Iostream_error_category@std@@6B@ 10096864     bncs_client_runtime.obj
 0003:00000884       ??_C@_08LLGCOLLL@iostream?$AA@ 10096884     bncs_client_runtime.obj
 0003:00000890       ??_C@_0BG@PADBLCHM@iostream?5stream?5error?$AA@ 10096890     bncs_client_runtime.obj
 0003:000008b0       ??_7_System_error_category@std@@6B@ 100968b0     bncs_client_runtime.obj
 0003:000008d0       ??_C@_06FHFOAHML@system?$AA@ 100968d0     bncs_client_runtime.obj
 0003:000008d8       ??_C@_02DPKJAMEF@?$CFd?$AA@ 100968d8     bncs_client_runtime.obj
 0003:000008e0       ??_7?$QPtrList@VsignalConnection@@@@6B@ 100968e0     bncs_client_runtime.obj
 0003:0000090c       ??_7signalConnectionRefList@@6B@ 1009690c     bncs_client_runtime.obj
 0003:00000938       ??_7IdCWlimits@@6B@        10096938     bncs_client_runtime.obj
 0003:00000944       ??_7dCW@@6B@               10096944     bncs_client_runtime.obj
 0003:00000950       ??_7IccTimerCallback@@6B@  10096950     bncs_client_runtime.obj
 0003:0000095c       ??_7bncs_client_runtime@@6BQObject@@@ 1009695c     bncs_client_runtime.obj
 0003:00000b68       ??_7bncs_client_runtime@@6BQPaintDevice@@@ 10096b68     bncs_client_runtime.obj
 0003:00000b94       ??_7bncs_client_runtime@@6B@ 10096b94     bncs_client_runtime.obj
 0003:00000ba0       ??_C@_0EP@IBNCNPPK@Context?5menu?5requested?5but?5CC_DE@ 10096ba0     bncs_client_runtime.obj
 0003:00000c00       ??_C@_0BC@KDFKGOIE@Debug?5Connections?$AA@ 10096c00     bncs_client_runtime.obj
 0003:00000c18       ??_C@_0N@OBPMCAPF@Edit?5UI?5?$CI?$CF1?$CJ?$AA@ 10096c18     bncs_client_runtime.obj
 0003:00000c28       ??_C@_0BC@LGPFBOGH@Open?5UI?5Directory?$AA@ 10096c28     bncs_client_runtime.obj
 0003:00000c40       ??_C@_09KGIJBFJB@?$CF1?2?$CF2?4dsw?$AA@ 10096c40     bncs_client_runtime.obj
 0003:00000c4c       ??_C@_0BN@IJEKOONB@Open?5Visual?5Studio?56?5Project?$AA@ 10096c4c     bncs_client_runtime.obj
 0003:00000c70       ??_C@_09OHDNDHOC@?$CF1?2?$CF2?4sln?$AA@ 10096c70     bncs_client_runtime.obj
 0003:00000c7c       ??_C@_0CC@OOFABDDH@Open?5Visual?5Studio?52010?$CL?5Solutio@ 10096c7c     bncs_client_runtime.obj
 0003:00000ca4       ??_C@_0BA@GOFGNMOA@1cdbDestroyed?$CI?$CJ?$AA@ 10096ca4     bncs_client_runtime.obj
 0003:00000cb8       ??_C@_0N@FGAMGGE@2destroyed?$CI?$CJ?$AA@ 10096cb8     bncs_client_runtime.obj
 0003:00000cc8       ??_C@_0BL@HDPHJFNL@1doShowIncomingEvent?$CIbool?$CJ?$AA@ 10096cc8     bncs_client_runtime.obj
 0003:00000ce8       ??_C@_0BJ@CBJGFLK@2showIncomingEvent?$CIbool?$CJ?$AA@ 10096ce8     bncs_client_runtime.obj
 0003:00000d08       ??_C@_0BD@DGHOIPJL@Connection?5Trace?3?5?$AA@ 10096d08     bncs_client_runtime.obj
 0003:00000d20       ??_C@_01KMDKNFGN@?1?$AA@   10096d20     bncs_client_runtime.obj
 0003:00000d24       ??_C@_01KICIPPFI@?2?$AA@   10096d24     bncs_client_runtime.obj
 0003:00000d28       ??_C@_04PMOCAHAA@open?$AA@ 10096d28     bncs_client_runtime.obj
 0003:00000d30       ??_C@_08EMNENPBA@instance?$AA@ 10096d30     bncs_client_runtime.obj
 0003:00000d3c       ??_C@_0DC@DECOFGPE@bncs_client_runtime?3?5Can?8t?5find?5@ 10096d3c     bncs_client_runtime.obj
 0003:00000d78       ??_C@_0N@JOGKCBBK@return?$DNgroup?$AA@ 10096d78     bncs_client_runtime.obj
 0003:00000d88       ??_C@_0L@BLMPAODG@_COMPOSITE?$AA@ 10096d88     bncs_client_runtime.obj
 0003:00000d98       ??_C@_0EN@HEMMEPPB@New?5_COMPOSITE?5group?5type?5?$CIset?5c@ 10096d98     bncs_client_runtime.obj
 0003:00000df4       ??_C@_09HHBDIMAF@instance?$DN?$AA@ 10096df4     bncs_client_runtime.obj
 0003:00000e00       ??_C@_06IOAEHBNO@dialog?$AA@ 10096e00     bncs_client_runtime.obj
 0003:00000e08       ??_C@_04LNEJFJGI@path?$AA@ 10096e08     bncs_client_runtime.obj
 0003:00000e10       ??_C@_08PIEMNFGJ@?$FLparent?$FN?$AA@ 10096e10     bncs_client_runtime.obj
 0003:00000e1c       ??_C@_0BF@FLBHAOGP@1notifyIn?$CIQString?5?$CG?$CJ?$AA@ 10096e1c     bncs_client_runtime.obj
 0003:00000e38       ??_C@_0BD@DAADIMMH@2notify?$CIQString?5?$CG?$CJ?$AA@ 10096e38     bncs_client_runtime.obj
 0003:00000e50       ??_C@_09NMMJDMDP@?$FLstartup?$FN?$AA@ 10096e50     bncs_client_runtime.obj
 0003:00000e5c       ??_C@_01BJJEKLCA@?$CC?$AA@ 10096e5c     bncs_client_runtime.obj
 0003:00000e60       ??_C@_03EACDAAKL@?$CC?1?$CC?$AA@ 10096e60     bncs_client_runtime.obj
 0003:00000e64       ??_C@_0CC@JOPLIAOA@Sub?5?$CF1?5mismatch?5?9?5giving?5up?5?$CF2?5?$CF@ 10096e64     bncs_client_runtime.obj
 0003:00000e8c       ??_C@_0BE@EAOFCPJN@?$CC?3?5PARENT?5on?5rule?5?$CC?$AA@ 10096e8c     bncs_client_runtime.obj
 0003:00000ea4       ??_C@_09FOIJNBAD@?$FLdisable?$FN?$AA@ 10096ea4     bncs_client_runtime.obj
 0003:00000eb0       ??_C@_09EDNPEBFA@Disabling?$AA@ 10096eb0     bncs_client_runtime.obj
 0003:00000ebc       ??_C@_08LKNADHCG@?$FLenable?$FN?$AA@ 10096ebc     bncs_client_runtime.obj
 0003:00000ec8       ??_C@_08FCHGMPBP@Enabling?$AA@ 10096ec8     bncs_client_runtime.obj
 0003:00000ed4       ??_C@_06FKFLGELG@?$FLshow?$FN?$AA@ 10096ed4     bncs_client_runtime.obj
 0003:00000edc       ??_C@_07GFKGPEKC@Showing?$AA@ 10096edc     bncs_client_runtime.obj
 0003:00000ee8       ??_C@_06MGIJEPEB@?$FLhide?$FN?$AA@ 10096ee8     bncs_client_runtime.obj
 0003:00000ef0       ??_C@_06HIOFDHED@Hiding?$AA@ 10096ef0     bncs_client_runtime.obj
 0003:00000ef8       ??_C@_0M@FEFKFEHA@?$CC?5on?5rule?5?$CC?$AA@ 10096ef8     bncs_client_runtime.obj
 0003:00000f08       ??_C@_02JPEBCGCN@?5?$CC?$AA@ 10096f08     bncs_client_runtime.obj
 0003:00000f0c       ??_C@_03GIPIADLC@?$CC?3?5?$AA@ 10096f0c     bncs_client_runtime.obj
 0003:00000f10       ??_C@_06MNPFKMJI@?$CC?5to?5?$CC?$AA@ 10096f10     bncs_client_runtime.obj
 0003:00000f18       ??_C@_0N@JFJDGNGK@?$CC?3?5Sending?5?$CC?$AA@ 10096f18     bncs_client_runtime.obj
 0003:00000f28       ??_C@_07HJMHMJAL@startup?$AA@ 10096f28     bncs_client_runtime.obj
 0003:00000f38       ??_C@_1IO@JLPDPDPD@?$AAc?$AA?3?$AA?2?$AAp?$AAr?$AAo?$AAg?$AAr?$AAa?$AAm?$AA?5?$AAf?$AAi?$AAl?$AAe?$AAs?$AA?5?$AA?$CI?$AAx?$AA8?$AA6?$AA?$CJ?$AA?2?$AAm?$AAi?$AAc?$AAr?$AAo?$AAs?$AAo?$AAf?$AAt@ 10096f38     bncs_client_runtime.obj
 0003:00000fe8       ??_7?$QValueListPrivate@VparamInfo@@@@6B@ 10096fe8     bncs_client_runtime.obj
 0003:00000ff4       ??_7?$QValueListPrivate@VcomplexParam@@@@6B@ 10096ff4     bncs_client_runtime.obj
 0003:00001000       ??_7?$QValueListPrivate@VcomplexInstance@@@@6B@ 10097000     bncs_client_runtime.obj
 0003:0000100c       ??_7?$QValueListPrivate@VinstanceInfo@@@@6B@ 1009700c     bncs_client_runtime.obj
 0003:00001018       ??_7?$QValueListPrivate@VdeviceTypeInfo@@@@6B@ 10097018     bncs_client_runtime.obj
 0003:00001024       ??_7?$QValueListPrivate@VcomplexType@@@@6B@ 10097024     bncs_client_runtime.obj
 0003:0000102c       ??_C@_0BA@JFNIOLAK@string?5too?5long?$AA@ 1009702c     bncs_client_runtime.obj
 0003:00001040       ??_C@_0BI@CFPLBAOH@invalid?5string?5position?$AA@ 10097040     bncs_client_runtime.obj
 0003:0000105c       ??_C@_1CK@EOPGIILJ@?$AAi?$AAn?$AAv?$AAa?$AAl?$AAi?$AAd?$AA?5?$AAn?$AAu?$AAl?$AAl?$AA?5?$AAp?$AAo?$AAi?$AAn?$AAt?$AAe?$AAr?$AA?$AA@ 1009705c     bncs_client_runtime.obj
 0003:00001094       ??_7?$QValueListNode@VparamInfo@@@@6B@ 10097094     bncs_client_runtime.obj
 0003:000010a0       ??_7?$QValueListNode@VcomplexParam@@@@6B@ 100970a0     bncs_client_runtime.obj
 0003:000010ac       ??_7?$QValueListNode@VcomplexInstance@@@@6B@ 100970ac     bncs_client_runtime.obj
 0003:000010b8       ??_7?$QValueListNode@VinstanceInfo@@@@6B@ 100970b8     bncs_client_runtime.obj
 0003:000010c4       ??_7?$QValueListNode@VdeviceTypeInfo@@@@6B@ 100970c4     bncs_client_runtime.obj
 0003:000010d0       ??_7?$QValueListNode@VcomplexType@@@@6B@ 100970d0     bncs_client_runtime.obj
 0003:000010d8       ??_C@_1JA@EKKHPHED@?$AAc?$AA?3?$AA?2?$AAp?$AAr?$AAo?$AAg?$AAr?$AAa?$AAm?$AA?5?$AAf?$AAi?$AAl?$AAe?$AAs?$AA?5?$AA?$CI?$AAx?$AA8?$AA6?$AA?$CJ?$AA?2?$AAm?$AAi?$AAc?$AAr?$AAo?$AAs?$AAo?$AAf?$AAt@ 100970d8     ccTimer.obj
 0003:00001184       ??_C@_1DC@POOIKBAO@?$AAI?$AAT?$AAE?$AAR?$AAA?$AAT?$AAO?$AAR?$AA?5?$AAL?$AAI?$AAS?$AAT?$AA?5?$AAC?$AAO?$AAR?$AAR?$AAU?$AAP?$AAT?$AAE?$AAD?$AA?$CB?$AA?$AA@ 10097184     ccTimer.obj
 0003:000011c4       ??_7ccTimer@@6B@           100971c4     ccTimer.obj
 0003:000011cc       ??_C@_0DC@BICGLILN@ccTimer?3?3oops?4?4?4timer?5for?5which?5@ 100971cc     ccTimer.obj
 0003:00001208       ??_C@_0CD@NLLCCBFN@ccTimer?3?3failed?5to?5kill?5timer?4?5?$CK@ 10097208     ccTimer.obj
 0003:00001234       ??_C@_0BI@IBDLCHON@ccTimerMessageWindow_?$CFx?$AA@ 10097234     ccTimer.obj
 0003:00001250       ??_C@_0CJ@CCNCGFIO@ccTimer?3?3Failed?5to?5register?5clas@ 10097250     ccTimer.obj
 0003:00001281       ??_C@_00CNPNBAHC@?$AA@     10097281     ccTimer.obj
 0003:00001284       ??_C@_0CI@JDNHHPML@ccTimer?3?3Failed?5to?5create?5window@ 10097284     ccTimer.obj
 0003:000012b4       ??_C@_0BE@FKAJGBAE@Very?5Serious?5Error?$CB?$AA@ 100972b4     ccTimer.obj
 0003:000012cc       ??_C@_0CD@KCCFIHOF@Cannot?5create?5ccTimerMessageWind@ 100972cc     ccTimer.obj
 0003:000012f8       ??_C@_0CJ@NMIOBILJ@ccTimer?3?3Failed?5to?5destroy?5windo@ 100972f8     ccTimer.obj
 0003:0000132c       ??_C@_0BG@ELFDNHEH@can?8t?5dereg?5window?5?$CFd?$AA@ 1009732c     ccTimer.obj
 0003:00001348       ??_C@_0EH@OGMHBLAM@ccTimer?3?3timerStart?4?5this?$DN?$CFx?5cal@ 10097348     ccTimer.obj
 0003:000013a0       ??_C@_0EL@GIPEDJBC@ccTimer?3?3timerStart?4?5this?$DN?$CFx?5cal@ 100973a0     ccTimer.obj
 0003:000013fc       ??_C@_0CC@JDJFOGMC@ccTimer?3?3Failed?5to?5start?5timer?4?5@ 100973fc     ccTimer.obj
 0003:00001424       ??_C@_0BO@KKAIBHLG@?$CFs?5?3?5Last?5error?5?$DN?5?$CFx?5?3?5?8?$CFs?8?5?6?$AA@ 10097424     ccTimer.obj
 0003:00001448       ??_C@_1IK@HBAODOLH@?$AAc?$AA?3?$AA?2?$AAp?$AAr?$AAo?$AAg?$AAr?$AAa?$AAm?$AA?5?$AAf?$AAi?$AAl?$AAe?$AAs?$AA?5?$AA?$CI?$AAx?$AA8?$AA6?$AA?$CJ?$AA?2?$AAm?$AAi?$AAc?$AAr?$AAo?$AAs?$AAo?$AAf?$AAt@ 10097448     ccTimer.obj
 0003:000014f0       ??_C@_1EK@PPDBPCAN@?$AAm?$AAa?$AAp?$AA?1?$AAs?$AAe?$AAt?$AA?5?$AAe?$AAr?$AAa?$AAs?$AAe?$AA?5?$AAi?$AAt?$AAe?$AAr?$AAa?$AAt?$AAo?$AAr?$AA?5?$AAo?$AAu?$AAt?$AAs?$AAi?$AAd?$AAe?$AA?5?$AAr@ 100974f0     ccTimer.obj
 0003:00001548       ??_C@_1DO@CFEEPGGJ@?$AAm?$AAa?$AAp?$AA?1?$AAs?$AAe?$AAt?$AA?5?$AAi?$AAt?$AAe?$AAr?$AAa?$AAt?$AAo?$AAr?$AAs?$AA?5?$AAi?$AAn?$AAc?$AAo?$AAm?$AAp?$AAa?$AAt?$AAi?$AAb?$AAl?$AAe?$AA?$AA@ 10097548     ccTimer.obj
 0003:00001594       ??_C@_0CI@FNPHFCCM@Standard?5C?$CL?$CL?5Libraries?5Invalid?5A@ 10097594     ccTimer.obj
 0003:000015c8       ??_C@_1FO@GJIHNDLM@?$AA?$CC?$AAS?$AAt?$AAa?$AAn?$AAd?$AAa?$AAr?$AAd?$AA?5?$AAC?$AA?$CL?$AA?$CL?$AA?5?$AAL?$AAi?$AAb?$AAr?$AAa?$AAr?$AAi?$AAe?$AAs?$AA?5?$AAI?$AAn?$AAv?$AAa?$AAl?$AAi?$AAd?$AA?5@ 100975c8     ccTimer.obj
 0003:00001638       ??_C@_15GANGMFKL@?$AA?$CF?$AAs?$AA?$AA@ 10097638     ccTimer.obj
 0003:00001640       ??_C@_1BCE@LOJNLEPL@?$AAs?$AAt?$AAd?$AA?3?$AA?3?$AA_?$AAT?$AAr?$AAe?$AAe?$AA_?$AAc?$AAo?$AAn?$AAs?$AAt?$AA_?$AAi?$AAt?$AAe?$AAr?$AAa?$AAt?$AAo?$AAr?$AA?$DM?$AAc?$AAl?$AAa?$AAs?$AAs?$AA?5@ 10097640     ccTimer.obj
 0003:000017a0       ??_C@_1CG@JNLFBNGN@?$AA?$CC?$AAi?$AAn?$AAv?$AAa?$AAl?$AAi?$AAd?$AA?5?$AAa?$AAr?$AAg?$AAu?$AAm?$AAe?$AAn?$AAt?$AA?$CC?$AA?$AA@ 100977a0     ccTimer.obj
 0003:000017d0       ??_C@_1EI@FHEHNNNM@?$AAm?$AAa?$AAp?$AA?1?$AAs?$AAe?$AAt?$AA?5?$AAi?$AAt?$AAe?$AAr?$AAa?$AAt?$AAo?$AAr?$AA?5?$AAn?$AAo?$AAt?$AA?5?$AAd?$AAe?$AAr?$AAe?$AAf?$AAe?$AAr?$AAe?$AAn?$AAc?$AAa@ 100977d0     ccTimer.obj
 0003:00001828       ??_C@_0CE@OFMIGAMM@Standard?5C?$CL?$CL?5Libraries?5Out?5of?5Ra@ 10097828     ccTimer.obj
 0003:00001858       ??_C@_1FG@IBPIFFN@?$AA?$CC?$AAS?$AAt?$AAa?$AAn?$AAd?$AAa?$AAr?$AAd?$AA?5?$AAC?$AA?$CL?$AA?$CL?$AA?5?$AAL?$AAi?$AAb?$AAr?$AAa?$AAr?$AAi?$AAe?$AAs?$AA?5?$AAO?$AAu?$AAt?$AA?5?$AAo?$AAf?$AA?5?$AAR@ 10097858     ccTimer.obj
 0003:000018c0       ??_C@_1BCC@KGFNLNC@?$AAs?$AAt?$AAd?$AA?3?$AA?3?$AA_?$AAT?$AAr?$AAe?$AAe?$AA_?$AAc?$AAo?$AAn?$AAs?$AAt?$AA_?$AAi?$AAt?$AAe?$AAr?$AAa?$AAt?$AAo?$AAr?$AA?$DM?$AAc?$AAl?$AAa?$AAs?$AAs?$AA?5@ 100978c0     ccTimer.obj
 0003:00001a1c       ??_C@_1BO@MEPPHOO@?$AA?$CC?$AAo?$AAu?$AAt?$AA?5?$AAo?$AAf?$AA?5?$AAr?$AAa?$AAn?$AAg?$AAe?$AA?$CC?$AA?$AA@ 10097a1c     ccTimer.obj
 0003:00001a40       ??_C@_1EG@EHJFMBHJ@?$AAm?$AAa?$AAp?$AA?1?$AAs?$AAe?$AAt?$AA?5?$AAi?$AAt?$AAe?$AAr?$AAa?$AAt?$AAo?$AAr?$AA?5?$AAn?$AAo?$AAt?$AA?5?$AAi?$AAn?$AAc?$AAr?$AAe?$AAm?$AAe?$AAn?$AAt?$AAa?$AAb@ 10097a40     ccTimer.obj
 0003:00001a98       ??_C@_1BCE@BOGAFNDO@?$AAs?$AAt?$AAd?$AA?3?$AA?3?$AA_?$AAT?$AAr?$AAe?$AAe?$AA_?$AAc?$AAo?$AAn?$AAs?$AAt?$AA_?$AAi?$AAt?$AAe?$AAr?$AAa?$AAt?$AAo?$AAr?$AA?$DM?$AAc?$AAl?$AAa?$AAs?$AAs?$AA?5@ 10097a98     ccTimer.obj
 0003:00001bf8       ??_C@_1CE@IGJMOCCK@?$AAi?$AAn?$AAv?$AAa?$AAl?$AAi?$AAd?$AA?5?$AAo?$AAp?$AAe?$AAr?$AAa?$AAt?$AAo?$AAr?$AA?$DM?$AA?$AA@ 10097bf8     ccTimer.obj
 0003:00001c28       ??_C@_1EG@OKCGOALM@?$AAm?$AAa?$AAp?$AA?1?$AAs?$AAe?$AAt?$AA?5?$AAi?$AAt?$AAe?$AAr?$AAa?$AAt?$AAo?$AAr?$AA?5?$AAn?$AAo?$AAt?$AA?5?$AAd?$AAe?$AAc?$AAr?$AAe?$AAm?$AAe?$AAn?$AAt?$AAa?$AAb@ 10097c28     ccTimer.obj
 0003:00001c80       ??_C@_1BCE@ONFCOBPP@?$AAs?$AAt?$AAd?$AA?3?$AA?3?$AA_?$AAT?$AAr?$AAe?$AAe?$AA_?$AAc?$AAo?$AAn?$AAs?$AAt?$AA_?$AAi?$AAt?$AAe?$AAr?$AAa?$AAt?$AAo?$AAr?$AA?$DM?$AAc?$AAl?$AAa?$AAs?$AAs?$AA?5@ 10097c80     ccTimer.obj
 0003:00001de0       ??_C@_0BE@JONHPENG@map?1set?$DMT?$DO?5too?5long?$AA@ 10097de0     ccTimer.obj
 0003:00001dfc       ??_7connectionDebugDlg@@6BQObject@@@ 10097dfc     connectiondebugdlgimpl.obj
 0003:0000201c       ??_7connectionDebugDlg@@6BQPaintDevice@@@ 1009801c     connectiondebugdlgimpl.obj
 0003:00002044       ??_C@_0BB@NDFIICN@1doButtonClear?$CI?$CJ?$AA@ 10098044     connectiondebugdlgimpl.obj
 0003:00002058       ??_C@_0L@OELOHDKG@2clicked?$CI?$CJ?$AA@ 10098058     connectiondebugdlgimpl.obj
 0003:00002068       ??_C@_0BL@LOPMHOHI@2showIncomingEvent?$CI?5bool?5?$CJ?$AA@ 10098068     connectiondebugdlgimpl.obj
 0003:00002088       ??_C@_0BB@LLDFNJHG@2toggled?$CI?5bool?5?$CJ?$AA@ 10098088     connectiondebugdlgimpl.obj
 0003:0000209c       ??_C@_0BI@HKLPFEK@1scrollToBottom?$CI?5bool?5?$CJ?$AA@ 1009809c     connectiondebugdlgimpl.obj
 0003:000020bc       ??_SQDomDocument@@6B@      100980bc     dCW.obj
 0003:00002180       ??_7resourceCounts@@6B@    10098180     dCW.obj
 0003:0000218c       ??_7?$QCache@VQDomDocument@@@@6B@ 1009818c     dCW.obj
 0003:000021a4       ??_C@_0M@FAJAMEBN@control_set?$AA@ 100981a4     dCW.obj
 0003:000021b4       ??_C@_0DI@JIIMNGAC@QWidgetList?5dCW?3?3parseXML?3?5This?5@ 100981b4     dCW.obj
 0003:000021f8       ??_C@_0M@EAJPACGF@connections?$AA@ 100981f8     dCW.obj
 0003:00002208       ??_C@_07KMMNMMFF@command?$AA@ 10098208     dCW.obj
 0003:00002214       ??_C@_05GFHEIIDD@event?$AA@ 10098214     dCW.obj
 0003:0000221c       ??_C@_08DEKMJOIP@receiver?$AA@ 1009821c     dCW.obj
 0003:00002228       ??_C@_06CGHJMPBJ@sender?$AA@ 10098228     dCW.obj
 0003:00002230       ??_C@_04MEMAJGDJ@name?$AA@ 10098230     dCW.obj
 0003:00002238       ??_C@_09KHFPHLHC@container?$AA@ 10098238     dCW.obj
 0003:00002244       ??_C@_0N@HFIGBDIF@testInstance?$AA@ 10098244     dCW.obj
 0003:00002254       ??_C@_0N@FKBDAGMD@panelmanSize?$AA@ 10098254     dCW.obj
 0003:00002264       ??_C@_0P@MEGPNDOJ@showTestDialog?$AA@ 10098264     dCW.obj
 0003:00002278       ??_C@_01FJMABOPO@x?$AA@    10098278     dCW.obj
 0003:0000227c       ??_C@_01EANLCPLP@y?$AA@    1009827c     dCW.obj
 0003:00002280       ??_C@_08DKLLKKFN@gridSize?$AA@ 10098280     dCW.obj
 0003:0000228c       ??_C@_0M@PGAAEEAH@gridEnabled?$AA@ 1009828c     dCW.obj
 0003:0000229c       ??_C@_07BANDPJOM@caption?$AA@ 1009829c     dCW.obj
 0003:000022a8       ??_C@_05IAKJCFIM@style?$AA@ 100982a8     dCW.obj
 0003:000022b0       ??_C@_04GPMDFGEJ@type?$AA@ 100982b0     dCW.obj
 0003:000022b8       ??_C@_0BF@OACBLDGN@Visual?5Editor?5Dialog?$AA@ 100982b8     dCW.obj
 0003:000022d4       ??_C@_0BC@GHFAFPFA@decoration?$DNdialog?$AA@ 100982d4     dCW.obj
 0003:000022ec       ??_C@_05CJDMOIIN@path?$DN?$AA@ 100982ec     dCW.obj
 0003:000022f4       ??_C@_01NOFIACDB@w?$AA@    100982f4     dCW.obj
 0003:000022f8       ??_C@_01BDACAMKP@h?$AA@    100982f8     dCW.obj
 0003:000022fc       ??_C@_0BC@ECPPBFDG@decoration?$DNwidget?$AA@ 100982fc     dCW.obj
 0003:00002314       ??_C@_07NDLGHPLM@setting?$AA@ 10098314     dCW.obj
 0003:00002320       ??_C@_05MFEJDJP@value?$AA@ 10098320     dCW.obj
 0003:00002328       ??_C@_01NEMOKFLO@?$DN?$AA@ 10098328     dCW.obj
 0003:0000232c       ??_C@_0BC@DPCNOCEK@colour?4background?$AA@ 1009832c     dCW.obj
 0003:00002344       ??_C@_06MHMEPCAJ@pixmap?$AA@ 10098344     dCW.obj
 0003:0000234c       ??_C@_0L@KNFJJNGP@scriptfile?$AA@ 1009834c     dCW.obj
 0003:0000235c       ??_C@_07MMBOFDEG@control?$AA@ 1009835c     dCW.obj
 0003:00002368       ??_C@_07DFGIDBBA@Control?$AA@ 10098368     dCW.obj
 0003:00002374       ??_C@_07CBNPCFPB@noclass?$AA@ 10098374     dCW.obj
 0003:00002380       ??_C@_05ENKANFLO@class?$AA@ 10098380     dCW.obj
 0003:00002388       ??_C@_0DI@NAOJGHDN@dCW?3?3parseXML?5?9?5can?8t?5create?5wid@ 10098388     dCW.obj
 0003:000023cc       ??_C@_0BD@CPIBIKLB@bncs_script_loader?$AA@ 100983cc     dCW.obj
 0003:000023e4       ??_C@_0O@HHHPDAHL@scaling?$DN?$CF1?$DL?$CF2?$AA@ 100983e4     dCW.obj
 0003:000023f4       ??_C@_0BA@MCOPEKKG@scaleWithCanvas?$AA@ 100983f4     dCW.obj
 0003:00002408       ??_C@_0BE@FFNKEHMA@scaleFontWithCanvas?$AA@ 10098408     dCW.obj
 0003:00002420       ??_C@_0BJ@JHDEJOJK@scaleFontWithCanvas?$DNtrue?$AA@ 10098420     dCW.obj
 0003:00002440       ??_C@_0BK@BGMCIEFI@dcw?4setting?4captions?$DNtrue?$AA@ 10098440     dCW.obj
 0003:00002460       ??_C@_09CLLIAJGC@bncs_enum?$AA@ 10098460     dCW.obj
 0003:0000246c       ??_C@_0N@HACHFKKL@bncs_control?$AA@ 1009846c     dCW.obj
 0003:0000247c       ??_C@_0N@LCDGACKE@scaleFont?$DN?$CF1?$AA@ 1009847c     dCW.obj
 0003:0000248c       ??_C@_0BL@CBMIANLF@dcw?4setting?4captions?$DNfalse?$AA@ 1009848c     dCW.obj
 0003:000024ac       ??_C@_0BE@HKPEJDMF@bncs_client_runtime?$AA@ 100984ac     dCW.obj
 0003:000024c4       ??_C@_02ELHCDOPK@UI?$AA@   100984c4     dCW.obj
 0003:000024c8       ??_C@_03OPIBJLCE@DLL?$AA@  100984c8     dCW.obj
 0003:000024cc       ??_C@_01LFCBOECM@?4?$AA@   100984cc     dCW.obj
 0003:000024d0       ??_C@_0M@NDNHMDCD@scriptname?$DN?$AA@ 100984d0     dCW.obj
 0003:000024e0       ??_C@_0BK@NDGGPGBF@?5can?8t?5create?5dll?5script?3?$AA@ 100984e0     dCW.obj
 0003:00002500       ??_C@_03IMGMFFHJ@LUA?$AA@  10098500     dCW.obj
 0003:00002504       ??_C@_0L@OPHPMHLF@lua_loader?$AA@ 10098504     dCW.obj
 0003:00002514       ??_C@_0BK@PFCPPBBF@?5can?8t?5create?5lua?5script?3?$AA@ 10098514     dCW.obj
 0003:00002534       ??_C@_07MLIMCBBI@BNCS_UI?$AA@ 10098534     dCW.obj
 0003:00002540       ??_C@_02LMMGJAGL@in?$AA@   10098540     dCW.obj
 0003:00002548       ??_C@_0EB@CHOLFCPP@dCW?3?3create?3Can?8t?5set?5content?5fo@ 10098548     dCW.obj
 0003:00002598       ??_C@_0BA@MEJCCFJE@?$CC?5?$CIparse?5error?$CJ?$AA@ 10098598     dCW.obj
 0003:000025ac       ??_C@_0BM@NDDBGCNO@dCW?3?3create?3Couldn?8t?5load?5?$CC?$AA@ 100985ac     dCW.obj
 0003:000025d0       ??_C@_0BD@PPHDIFCC@?$CC?5?$CIpath?5not?5found?$CJ?$AA@ 100985d0     dCW.obj
 0003:000025e8       ??_C@_0BN@PKCKOLAE@dCW?3?3create?3Couldn?8t?5load?3?5?$CC?$AA@ 100985e8     dCW.obj
 0003:0000260c       ??_C@_02PIGFKFFE@?$CF1?$AA@ 1009860c     dCW.obj
 0003:00002610       ??_C@_0N@ENLBDDCH@CC_DEVELOPER?$AA@ 10098610     dCW.obj
 0003:00002620       ??_C@_04LOAJBDKD@true?$AA@ 10098620     dCW.obj
 0003:00002628       __real@0000000000000000    10098628     dCW.obj
 0003:00002638       __real@3fe0000000000000    10098638     dCW.obj
 0003:00002648       __real@3ff0000000000000    10098648     dCW.obj
 0003:00002658       ??_7notifyWrangler@@6B@    10098658     notifyWrangler.obj
 0003:00002660       ??_C@_0O@OBJMHIMF@?2?$FLsub?$FL0?99?$FN?$CL?2?$FN?$AA@ 10098660     notifyWrangler.obj
 0003:00002670       ??_C@_04HAPLAOFE@?$FLid?$FN?$AA@ 10098670     notifyWrangler.obj
 0003:00002678       ??_C@_04HEOJCEGB@?$FLid?4?$AA@ 10098678     notifyWrangler.obj
 0003:00002680       ??_C@_01LBDDMOBJ@?$FN?$AA@ 10098680     notifyWrangler.obj
 0003:00002684       ??_C@_06HAALCKOF@what?5?$CC?$AA@ 10098684     notifyWrangler.obj
 0003:0000268c       ??_C@_02MHOFKBJM@?$FL?$CC?$AA@ 1009868c     notifyWrangler.obj
 0003:00002690       ??_C@_07LEPGBGHJ@?$FLintid?$FN?$AA@ 10098690     notifyWrangler.obj
 0003:0000269c       ??_C@_09FAMPEKMJ@?$FLcommand?$FN?$AA@ 1009869c     notifyWrangler.obj
 0003:000026a8       ??_C@_07JPKLBGNI@?$FLvalue?$FN?$AA@ 100986a8     notifyWrangler.obj
 0003:000026b4       ??_C@_07OFDADDNC@return?$DN?$AA@ 100986b4     notifyWrangler.obj
 0003:000026c0       ??_C@_0EB@HGIAMDOP@notifyWrangler?3?3textGet?5?9?5asked?5@ 100986c0     notifyWrangler.obj
 0003:00002714       ??_7connectionDebugDlgBase@@6BQObject@@@ 10098714     connectiondebugdlg.obj
 0003:00002934       ??_7connectionDebugDlgBase@@6BQPaintDevice@@@ 10098934     connectiondebugdlg.obj
 0003:00002964       ??_SQTextEdit@@6BQObject@@@ 10098964     connectiondebugdlg.obj
 0003:00002d94       ??_SQTextEdit@@6BQPaintDevice@@@ 10098d94     connectiondebugdlg.obj
 0003:00002dc4       ??_SQCheckBox@@6BQObject@@@ 10098dc4     connectiondebugdlg.obj
 0003:00003004       ??_SQCheckBox@@6BQPaintDevice@@@ 10099004     connectiondebugdlg.obj
 0003:00003034       ??_SQPushButton@@6BQObject@@@ 10099034     connectiondebugdlg.obj
 0003:00003288       ??_SQPushButton@@6BQPaintDevice@@@ 10099288     connectiondebugdlg.obj
 0003:000032b4       ??_SQSpacerItem@@6B@       100992b4     connectiondebugdlg.obj
 0003:0000330c       ??_SQHBoxLayout@@6BQObject@@@ 1009930c     connectiondebugdlg.obj
 0003:0000338c       ??_SQHBoxLayout@@6BQLayoutItem@@@ 1009938c     connectiondebugdlg.obj
 0003:000033e4       ??_SQVBoxLayout@@6BQObject@@@ 100993e4     connectiondebugdlg.obj
 0003:00003464       ??_SQVBoxLayout@@6BQLayoutItem@@@ 10099464     connectiondebugdlg.obj
 0003:000034b4       ??_C@_0BH@OIECNPKC@connectionDebugDlgBase?$AA@ 100994b4     connectiondebugdlg.obj
 0003:000034d0       ??_C@_0BN@HHAPJJD@connectionDebugDlgBaseLayout?$AA@ 100994d0     connectiondebugdlg.obj
 0003:000034f4       ??_C@_09HCBNDNHI@textEdit1?$AA@ 100994f4     connectiondebugdlg.obj
 0003:00003500       ??_C@_05MPFIAJAP@Arial?$AA@ 10099500     connectiondebugdlg.obj
 0003:00003508       ??_C@_07OFHOKKPF@layout2?$AA@ 10099508     connectiondebugdlg.obj
 0003:00003514       ??_C@_0BE@FKECDKDE@cbShowIncomingEvent?$AA@ 10099514     connectiondebugdlg.obj
 0003:0000352c       ??_C@_0BB@KBDJMHKD@cbScrollToBottom?$AA@ 1009952c     connectiondebugdlg.obj
 0003:00003540       ??_C@_0M@MCHDFIPO@buttonClear?$AA@ 10099540     connectiondebugdlg.obj
 0003:00003550       ??_C@_0BD@JNIMEDNM@connectionDebugDlg?$AA@ 10099550     connectiondebugdlg.obj
 0003:00003568       ??_C@_0BF@DOILHKNO@Show?5incoming?5events?$AA@ 10099568     connectiondebugdlg.obj
 0003:00003584       ??_C@_0BB@OPLIDGNO@Scroll?5To?5Bottom?$AA@ 10099584     connectiondebugdlg.obj
 0003:00003598       ??_C@_05MDNHABIA@Clear?$AA@ 10099598     connectiondebugdlg.obj
 0003:00003614       ??_C@_08DHDADEEH@notifyIn?$AA@ 10099614     moc_bncs_client_runtime.obj
 0003:00003620       ??_C@_0N@NPDBHCDB@cdbDestroyed?$AA@ 10099620     moc_bncs_client_runtime.obj
 0003:00003630       ??_C@_0BE@IMCNAMJI@doShowIncomingEvent?$AA@ 10099630     moc_bncs_client_runtime.obj
 0003:00003648       ??_C@_0BD@ECIHBICE@notifyIn?$CIQString?$CG?$CJ?$AA@ 10099648     moc_bncs_client_runtime.obj
 0003:00003660       ??_C@_0P@KEOEACA@cdbDestroyed?$CI?$CJ?$AA@ 10099660     moc_bncs_client_runtime.obj
 0003:00003674       ??_C@_0BK@EKHAJPOE@doShowIncomingEvent?$CIbool?$CJ?$AA@ 10099674     moc_bncs_client_runtime.obj
 0003:00003694       ??_C@_06LIGDCBBN@notify?$AA@ 10099694     moc_bncs_client_runtime.obj
 0003:0000369c       ??_C@_0BB@KPBBGHKF@notify?$CIQString?$CG?$CJ?$AA@ 1009969c     moc_bncs_client_runtime.obj
 0003:000036b0       ??_C@_0BB@PPKHGKIE@IccTimerCallback?$AA@ 100996b0     moc_bncs_client_runtime.obj
 0003:000036e0       ??_C@_0P@DMEOIADN@languageChange?$AA@ 100996e0     moc_connectiondebugdlg.obj
 0003:000036f4       ??_C@_0BB@PFEIHPGD@languageChange?$CI?$CJ?$AA@ 100996f4     moc_connectiondebugdlg.obj
 0003:00003760       ??_C@_0O@MMNODDPH@doButtonClear?$AA@ 10099760     moc_connectiondebugdlgimpl.obj
 0003:00003770       ??_C@_0P@KJFOKPAJ@scrollToBottom?$AA@ 10099770     moc_connectiondebugdlgimpl.obj
 0003:00003784       ??_C@_0BA@JGDFFCAB@doButtonClear?$CI?$CJ?$AA@ 10099784     moc_connectiondebugdlgimpl.obj
 0003:00003798       ??_C@_0BF@OMMBDEDN@scrollToBottom?$CIbool?$CJ?$AA@ 10099798     moc_connectiondebugdlgimpl.obj
 0003:000037b4       ??_C@_0BC@PAFPPHNO@showIncomingEvent?$AA@ 100997b4     moc_connectiondebugdlgimpl.obj
 0003:000037cc       ??_C@_0BI@DAEIOOPK@showIncomingEvent?$CIbool?$CJ?$AA@ 100997cc     moc_connectiondebugdlgimpl.obj
 0003:000037e8       ??_C@_0DP@CBNNAFBD@Command?3?5?$CFs?6Sub?50?3?5?$CFs?6Sub?51?3?5?$CFs?6@ 100997e8     decodecaptionstringdb:decodecaptionstring.obj
 0003:00003834       ??_C@_0BO@GHOAJNBB@decodeCaptionString?5not?5valid?$AA@ 10099834     decodecaptionstringdb:decodecaptionstring.obj
 0003:0000385c       ??_7?$QPtrList@VQWidgetFactory@@@@6B@ 1009985c     qui:qwidgetfactory.obj
 0003:00003884       ??_7QWidgetFactory@@6B@    10099884     qui:qwidgetfactory.obj
 0003:00003890       ??_7?$QPtrList@VQAction@@@@6B@ 10099890     qui:qwidgetfactory.obj
 0003:000038b8       ??_7?$QDict@_N@@6B@        100998b8     qui:qwidgetfactory.obj
 0003:000038dc       ??_SQSqlCursor@@6BQSqlQuery@@@ 100998dc     qui:qwidgetfactory.obj
 0003:0000390c       ??_SQSqlCursor@@6BQSqlRecord@@@ 1009990c     qui:qwidgetfactory.obj
 0003:000039d0       ??_SQListBoxPixmap@@6B@    100999d0     qui:qwidgetfactory.obj
 0003:000039f8       ??_SQListBoxText@@6B@      100999f8     qui:qwidgetfactory.obj
 0003:00003a20       ??_SQIconViewItem@@6B@     10099a20     qui:qwidgetfactory.obj
 0003:00003abc       ??_SQPopupMenu@@6B@        10099abc     qui:qwidgetfactory.obj
 0003:00003ae4       ??_SQPopupMenu@@6BQPaintDevice@@@ 10099ae4     qui:qwidgetfactory.obj
 0003:00003b0c       ??_SQPopupMenu@@6BQObject@@@ 10099b0c     qui:qwidgetfactory.obj
 0003:00003d48       ??_SQToolBar@@6BQPaintDevice@@@ 10099d48     qui:qwidgetfactory.obj
 0003:00003d70       ??_SQToolBar@@6BQObject@@@ 10099d70     qui:qwidgetfactory.obj
 0003:00003ff4       ??_SQAction@@6B@           10099ff4     qui:qwidgetfactory.obj
 0003:00004098       ??_SQActionGroup@@6B@      1009a098     qui:qwidgetfactory.obj
 0003:00004144       ??_SQLabel@@6BQPaintDevice@@@ 1009a144     qui:qwidgetfactory.obj
 0003:0000416c       ??_SQLabel@@6BQObject@@@   1009a16c     qui:qwidgetfactory.obj
 0003:000043c4       ??_SQDataTable@@6BQPaintDevice@@@ 1009a3c4     qui:qwidgetfactory.obj
 0003:000043ec       ??_SQDataTable@@6BQObject@@@ 1009a3ec     qui:qwidgetfactory.obj
 0003:000048dc       ??_SQMainWindow@@6BQPaintDevice@@@ 1009a8dc     qui:qwidgetfactory.obj
 0003:00004904       ??_SQMainWindow@@6BQObject@@@ 1009a904     qui:qwidgetfactory.obj
 0003:00004b80       ??_SQGrid@@6BQPaintDevice@@@ 1009ab80     qui:qwidgetfactory.obj
 0003:00004ba8       ??_SQGrid@@6BQObject@@@    1009aba8     qui:qwidgetfactory.obj
 0003:00004dd4       ??_SQHBox@@6BQPaintDevice@@@ 1009add4     qui:qwidgetfactory.obj
 0003:00004dfc       ??_SQHBox@@6BQObject@@@    1009adfc     qui:qwidgetfactory.obj
 0003:00005028       ??_SQVBox@@6BQPaintDevice@@@ 1009b028     qui:qwidgetfactory.obj
 0003:00005050       ??_SQVBox@@6BQObject@@@    1009b050     qui:qwidgetfactory.obj
 0003:0000527c       ??_SQToolBox@@6BQPaintDevice@@@ 1009b27c     qui:qwidgetfactory.obj
 0003:000052a4       ??_SQToolBox@@6BQObject@@@ 1009b2a4     qui:qwidgetfactory.obj
 0003:000054dc       ??_SQWidgetStack@@6BQPaintDevice@@@ 1009b4dc     qui:qwidgetfactory.obj
 0003:00005504       ??_SQWidgetStack@@6BQObject@@@ 1009b504     qui:qwidgetfactory.obj
 0003:00005738       ??_SQScrollBar@@6B@        1009b738     qui:qwidgetfactory.obj
 0003:0000574c       ??_SQScrollBar@@6BQPaintDevice@@@ 1009b74c     qui:qwidgetfactory.obj
 0003:00005774       ??_SQScrollBar@@6BQObject@@@ 1009b774     qui:qwidgetfactory.obj
 0003:00005984       ??_SQDateTimeEdit@@6BQPaintDevice@@@ 1009b984     qui:qwidgetfactory.obj
 0003:000059ac       ??_SQDateTimeEdit@@6BQObject@@@ 1009b9ac     qui:qwidgetfactory.obj
 0003:00005bbc       ??_SQTimeEdit@@6BQPaintDevice@@@ 1009bbbc     qui:qwidgetfactory.obj
 0003:00005be4       ??_SQTimeEdit@@6BQObject@@@ 1009bbe4     qui:qwidgetfactory.obj
 0003:00005e38       ??_SQDateEdit@@6BQPaintDevice@@@ 1009be38     qui:qwidgetfactory.obj
 0003:00005e60       ??_SQDateEdit@@6BQObject@@@ 1009be60     qui:qwidgetfactory.obj
 0003:000060bc       ??_SQSplitter@@6BQPaintDevice@@@ 1009c0bc     qui:qwidgetfactory.obj
 0003:000060e4       ??_SQSplitter@@6BQObject@@@ 1009c0e4     qui:qwidgetfactory.obj
 0003:00006328       ??_SQFrame@@6BQPaintDevice@@@ 1009c328     qui:qwidgetfactory.obj
 0003:00006350       ??_SQFrame@@6BQObject@@@   1009c350     qui:qwidgetfactory.obj
 0003:0000657c       ??_SQSlider@@6B@           1009c57c     qui:qwidgetfactory.obj
 0003:00006590       ??_SQSlider@@6BQPaintDevice@@@ 1009c590     qui:qwidgetfactory.obj
 0003:000065b8       ??_SQSlider@@6BQObject@@@  1009c5b8     qui:qwidgetfactory.obj
 0003:000067d8       ??_SQDial@@6B@             1009c7d8     qui:qwidgetfactory.obj
 0003:000067ec       ??_SQDial@@6BQPaintDevice@@@ 1009c7ec     qui:qwidgetfactory.obj
 0003:00006814       ??_SQDial@@6BQObject@@@    1009c814     qui:qwidgetfactory.obj
 0003:00006a38       ??_SQTextBrowser@@6BQPaintDevice@@@ 1009ca38     qui:qwidgetfactory.obj
 0003:00006a60       ??_SQTextBrowser@@6BQObject@@@ 1009ca60     qui:qwidgetfactory.obj
 0003:00006ea4       ??_SQTextView@@6BQPaintDevice@@@ 1009cea4     qui:qwidgetfactory.obj
 0003:00006ecc       ??_SQTextView@@6BQObject@@@ 1009cecc     qui:qwidgetfactory.obj
 0003:000072f8       ??_SQProgressBar@@6BQPaintDevice@@@ 1009d2f8     qui:qwidgetfactory.obj
 0003:00007320       ??_SQProgressBar@@6BQObject@@@ 1009d320     qui:qwidgetfactory.obj
 0003:0000755c       ??_SQLCDNumber@@6BQPaintDevice@@@ 1009d55c     qui:qwidgetfactory.obj
 0003:00007584       ??_SQLCDNumber@@6BQObject@@@ 1009d584     qui:qwidgetfactory.obj
 0003:000077d8       ??_SQWizard@@6BQPaintDevice@@@ 1009d7d8     qui:qwidgetfactory.obj
 0003:00007800       ??_SQWizard@@6BQObject@@@  1009d800     qui:qwidgetfactory.obj
 0003:00007a64       ??_SQDialog@@6BQPaintDevice@@@ 1009da64     qui:qwidgetfactory.obj
 0003:00007a8c       ??_SQDialog@@6BQObject@@@  1009da8c     qui:qwidgetfactory.obj
 0003:00007ca0       ??_SQComboBox@@6BQPaintDevice@@@ 1009dca0     qui:qwidgetfactory.obj
 0003:00007cc8       ??_SQComboBox@@6BQObject@@@ 1009dcc8     qui:qwidgetfactory.obj
 0003:00007f08       ??_SQTabWidget@@6BQPaintDevice@@@ 1009df08     qui:qwidgetfactory.obj
 0003:00007f30       ??_SQTabWidget@@6BQObject@@@ 1009df30     qui:qwidgetfactory.obj
 0003:0000815c       ??_SQWidget@@6BQPaintDevice@@@ 1009e15c     qui:qwidgetfactory.obj
 0003:00008184       ??_SQWidget@@6BQObject@@@  1009e184     qui:qwidgetfactory.obj
 0003:0000838c       ??_SQMultiLineEdit@@6BQPaintDevice@@@ 1009e38c     qui:qwidgetfactory.obj
 0003:000083b4       ??_SQMultiLineEdit@@6BQObject@@@ 1009e3b4     qui:qwidgetfactory.obj
 0003:00008830       ??_SQSpinBox@@6B@          1009e830     qui:qwidgetfactory.obj
 0003:00008844       ??_SQSpinBox@@6BQPaintDevice@@@ 1009e844     qui:qwidgetfactory.obj
 0003:0000886c       ??_SQSpinBox@@6BQObject@@@ 1009e86c     qui:qwidgetfactory.obj
 0003:00008ac4       ??_SQLineEdit@@6BQPaintDevice@@@ 1009eac4     qui:qwidgetfactory.obj
 0003:00008aec       ??_SQLineEdit@@6BQObject@@@ 1009eaec     qui:qwidgetfactory.obj
 0003:00008d80       ??_SQListView@@6BQPaintDevice@@@ 1009ed80     qui:qwidgetfactory.obj
 0003:00008da8       ??_SQListView@@6BQObject@@@ 1009eda8     qui:qwidgetfactory.obj
 0003:0000911c       ??_SQListBox@@6BQPaintDevice@@@ 1009f11c     qui:qwidgetfactory.obj
 0003:00009144       ??_SQListBox@@6BQObject@@@ 1009f144     qui:qwidgetfactory.obj
 0003:00009470       ??_SQTable@@6BQPaintDevice@@@ 1009f470     qui:qwidgetfactory.obj
 0003:00009498       ??_SQTable@@6BQObject@@@   1009f498     qui:qwidgetfactory.obj
 0003:000098ec       ??_SQIconView@@6BQPaintDevice@@@ 1009f8ec     qui:qwidgetfactory.obj
 0003:00009914       ??_SQIconView@@6BQObject@@@ 1009f914     qui:qwidgetfactory.obj
 0003:00009ca0       ??_SQButtonGroup@@6BQPaintDevice@@@ 1009fca0     qui:qwidgetfactory.obj
 0003:00009cc8       ??_SQButtonGroup@@6BQObject@@@ 1009fcc8     qui:qwidgetfactory.obj
 0003:00009f18       ??_SQGroupBox@@6BQPaintDevice@@@ 1009ff18     qui:qwidgetfactory.obj
 0003:00009f40       ??_SQGroupBox@@6BQObject@@@ 1009ff40     qui:qwidgetfactory.obj
 0003:0000a17c       ??_SQRadioButton@@6BQPaintDevice@@@ 100a017c     qui:qwidgetfactory.obj
 0003:0000a1a4       ??_SQRadioButton@@6BQObject@@@ 100a01a4     qui:qwidgetfactory.obj
 0003:0000a3e4       ??_SQToolButton@@6BQPaintDevice@@@ 100a03e4     qui:qwidgetfactory.obj
 0003:0000a40c       ??_SQToolButton@@6BQObject@@@ 100a040c     qui:qwidgetfactory.obj
 0003:0000a664       ??_SQGridLayout@@6BQLayoutItem@@@ 100a0664     qui:qwidgetfactory.obj
 0003:0000a6b0       ??_SQGridLayout@@6BQObject@@@ 100a06b0     qui:qwidgetfactory.obj
 0003:0000a734       ??_SQListViewItem@@6B@     100a0734     qui:qwidgetfactory.obj
 0003:0000a7ec       ??_7?$QValueListPrivate@UImage@QWidgetFactory@@@@6B@ 100a07ec     qui:qwidgetfactory.obj
 0003:0000a7f0       ??_7?$QValueListNode@UField@QWidgetFactory@@@@6B@ 100a07f0     qui:qwidgetfactory.obj
 0003:0000a7f4       ??_7?$QValueListPrivate@UField@QWidgetFactory@@@@6B@ 100a07f4     qui:qwidgetfactory.obj
 0003:0000a7f8       ??_7?$QValueListNode@VQPixmap@@@@6B@ 100a07f8     qui:qwidgetfactory.obj
 0003:0000a7fc       ??_7?$QValueListPrivate@VQPixmap@@@@6B@ 100a07fc     qui:qwidgetfactory.obj
 0003:0000a800       ??_7?$QValueListNode@UImage@QWidgetFactory@@@@6B@ 100a0800     qui:qwidgetfactory.obj
 0003:0000a804       ??_7DatabaseSupport2@@6B@  100a0804     qui:database.obj
 0003:0000a808       ??_SQSqlForm@@6B@          100a0808     qui:database.obj
 0003:0000a8a4       ??_7QDesignerDataBrowser2@@6BQPaintDevice@@@ 100a08a4     qui:database.obj
 0003:0000a8cc       ??_7QDesignerDataBrowser2@@6BQObject@@@ 100a08cc     qui:database.obj
 0003:0000ab58       ??_7QDesignerDataBrowser2@@6B@ 100a0b58     qui:database.obj
 0003:0000ab5c       ??_7QDesignerDataView2@@6BQPaintDevice@@@ 100a0b5c     qui:database.obj
 0003:0000ab84       ??_7QDesignerDataView2@@6BQObject@@@ 100a0b84     qui:database.obj
 0003:0000ada8       ??_7QDesignerDataView2@@6B@ 100a0da8     qui:database.obj
 0003:0000adb0       __real@8@4000c000000000000000 100a0db0     qui:domtool.obj
 0003:0000afa0       ??_C@_1MC@KPMPFEII@?$AA?$CI?$AA_?$AA_?$AAo?$AAn?$AAe?$AAx?$AAi?$AAt?$AAb?$AAe?$AAg?$AAi?$AAn?$AA?5?$AA?$CB?$AA?$DN?$AA?5?$AAN?$AAU?$AAL?$AAL?$AA?5?$AA?$CG?$AA?$CG?$AA?5?$AA_?$AA_?$AAo?$AAn?$AAe?$AAx@ 100a0fa0     MSVCRTD:atonexit.obj
 0003:0000b088       ??_C@_1FK@IGIDCAPD@?$AAf?$AA?3?$AA?2?$AAd?$AAd?$AA?2?$AAv?$AAc?$AAt?$AAo?$AAo?$AAl?$AAs?$AA?2?$AAc?$AAr?$AAt?$AA?2?$AAc?$AAr?$AAt?$AAw?$AA3?$AA2?$AA?2?$AAd?$AAl?$AAl?$AAs?$AAt?$AAu?$AAf@ 100a1088     MSVCRTD:atonexit.obj
 0003:0000b0f4       ??_C@_0CN@LMJJPMEG@f?3?2dd?2vctools?2crt?2crtw32?2dllstuf@ 100a10f4     MSVCRTD:atonexit.obj
 0003:0000b12a       ?value@?$integral_constant@_N$0A@@std@@2_NB 100a112a     MSVCRTD:ti_inst.obj
 0003:0000b12b       ?value@?$integral_constant@_N$00@std@@2_NB 100a112b     MSVCRTD:ti_inst.obj
 0003:0000b130       ??_7type_info@@6B@         100a1130     MSVCRTD:ti_inst.obj
 0003:0000b138       __pDefaultRawDllMain       100a1138     MSVCRTD:crtdll.obj
 0003:0000b138       __pRawDllMain              100a1138     MSVCRTD:crtdll.obj
 0003:0000b13c       ??_C@_0CL@CCAGLLEM@f?3?2dd?2vctools?2crt?2crtw32?2dllstuf@ 100a113c     MSVCRTD:crtdll.obj
 0003:0000b230       ??_C@_0NN@NGPKDKPD@The?5value?5of?5ESP?5was?5not?5properl@ 100a1230     MSVCRTD:error.obj
 0003:0000b340       ??_C@_0BBN@GPMLNJCF@A?5cast?5to?5a?5smaller?5data?5type?5ha@ 100a1340     MSVCRTD:error.obj
 0003:0000b498       ??_C@_0BN@FFOINMNJ@Stack?5memory?5was?5corrupted?6?$AN?$AA@ 100a1498     MSVCRTD:error.obj
 0003:0000b4bc       ??_C@_0DG@HKJMLLLP@A?5local?5variable?5was?5used?5before@ 100a14bc     MSVCRTD:error.obj
 0003:0000b4fc       ??_C@_0CM@NGINOKPC@Stack?5memory?5around?5_alloca?5was?5@ 100a14fc     MSVCRTD:error.obj
 0003:0000b530       ??_C@_0BO@GNIAFIKK@Unknown?5Runtime?5Check?5Error?6?$AN?$AA@ 100a1530     MSVCRTD:error.obj
 0003:0000b558       ??_C@_1GM@OLMCBDMB@?$AAR?$AAu?$AAn?$AAt?$AAi?$AAm?$AAe?$AA?5?$AAC?$AAh?$AAe?$AAc?$AAk?$AA?5?$AAE?$AAr?$AAr?$AAo?$AAr?$AA?4?$AA?6?$AA?$AN?$AA?5?$AAU?$AAn?$AAa?$AAb?$AAl?$AAe?$AA?5?$AAt?$AAo@ 100a1558     MSVCRTD:error.obj
 0003:0000b5e0       ??_C@_1EA@NFKNIFJP@?$AAR?$AAu?$AAn?$AA?9?$AAT?$AAi?$AAm?$AAe?$AA?5?$AAC?$AAh?$AAe?$AAc?$AAk?$AA?5?$AAF?$AAa?$AAi?$AAl?$AAu?$AAr?$AAe?$AA?5?$AA?$CD?$AA?$CF?$AAd?$AA?5?$AA?9?$AA?5?$AA?$CF?$AAs?$AA?$AA@ 100a15e0     MSVCRTD:error.obj
 0003:0000b62c       ??_C@_0BB@PFFGGCJP@Unknown?5Filename?$AA@ 100a162c     MSVCRTD:error.obj
 0003:0000b640       ??_C@_0BE@GNBOBNCK@Unknown?5Module?5Name?$AA@ 100a1640     MSVCRTD:error.obj
 0003:0000b658       ??_C@_0CA@IODNCDPG@Run?9Time?5Check?5Failure?5?$CD?$CFd?5?9?5?$CFs?$AA@ 100a1658     MSVCRTD:error.obj
 0003:0000b680       ??_C@_0CG@IAFNJNEE@Stack?5corrupted?5near?5unknown?5var@ 100a1680     MSVCRTD:error.obj
 0003:0000b6b0       ??_C@_05MKKEDADM@?$CF?42X?5?$AA@ 100a16b0     MSVCRTD:error.obj
 0003:0000b6b8       ??_C@_1BG@OILDLIOJ@?$AAu?$AAs?$AAe?$AAr?$AA3?$AA2?$AA?4?$AAd?$AAl?$AAl?$AA?$AA@ 100a16b8     MSVCRTD:error.obj
 0003:0000b6d4       ??_C@_09FOPFMPEJ@wsprintfA?$AA@ 100a16d4     MSVCRTD:error.obj
 0003:0000b6e0       ??_C@_0EJ@LJKNEOLN@Stack?5area?5around?5_alloca?5memory@ 100a16e0     MSVCRTD:error.obj
 0003:0000b738       ??_C@_08OMAHNMHJ@?6Data?3?5?$DM?$AA@ 100a1738     MSVCRTD:error.obj
 0003:0000b744       ??_C@_0CK@DKGBICFE@?6Allocation?5number?5within?5this?5f@ 100a1744     MSVCRTD:error.obj
 0003:0000b778       ??_C@_07DFDJCKFN@?6Size?3?5?$AA@ 100a1778     MSVCRTD:error.obj
 0003:0000b784       ??_C@_0N@MHFFIMFG@?6Address?3?50x?$AA@ 100a1784     MSVCRTD:error.obj
 0003:0000b798       ??_C@_0EI@CLEPFNGI@Stack?5area?5around?5_alloca?5memory@ 100a1798     MSVCRTD:error.obj
 0003:0000b7f0       ??_C@_0BC@KIBAILCI@?$CFs?$CFs?$CFp?$CFs?$CFld?$CFs?$CFd?$CFs?$AA@ 100a17f0     MSVCRTD:error.obj
 0003:0000b808       ??_C@_01EEMJAFIK@?6?$AA@   100a1808     MSVCRTD:error.obj
 0003:0000b80c       ??_C@_02LLMPMKNF@?$DO?5?$AA@ 100a180c     MSVCRTD:error.obj
 0003:0000b810       ??_C@_08KJEDNCKC@?$CFs?$CFs?$CFs?$CFs?$AA@ 100a1810     MSVCRTD:error.obj
 0003:0000b81c       ??_C@_0DE@OHJBPMBP@A?5variable?5is?5being?5used?5without@ 100a181c     MSVCRTD:error.obj
 0003:0000b880       ??_C@_0BJ@HEGAHDFO@Stack?5pointer?5corruption?$AA@ 100a1880     MSVCRTD:userapi.obj
 0003:0000b8a0       ??_C@_0CK@FEGOIOPB@Cast?5to?5smaller?5type?5causing?5los@ 100a18a0     MSVCRTD:userapi.obj
 0003:0000b8d4       ??_C@_0BI@CIGMDCBH@Stack?5memory?5corruption?$AA@ 100a18d4     MSVCRTD:userapi.obj
 0003:0000b8f0       ??_C@_0CK@CNLNOEPB@Local?5variable?5used?5before?5initi@ 100a18f0     MSVCRTD:userapi.obj
 0003:0000b924       ??_C@_0BP@OGBCLIBO@Stack?5around?5_alloca?5corrupted?$AA@ 100a1924     MSVCRTD:userapi.obj
 0003:0000b94c       ?ProcessDetach@NativeDll@<CrtImplementationDetails>@@0IB 100a194c     MSVCRTD:initsect.obj
 0003:0000b950       ?ProcessAttach@NativeDll@<CrtImplementationDetails>@@0IB 100a1950     MSVCRTD:initsect.obj
 0003:0000b954       ?ThreadAttach@NativeDll@<CrtImplementationDetails>@@0IB 100a1954     MSVCRTD:initsect.obj
 0003:0000b958       ?ThreadDetach@NativeDll@<CrtImplementationDetails>@@0IB 100a1958     MSVCRTD:initsect.obj
 0003:0000b95c       ?ProcessVerifier@NativeDll@<CrtImplementationDetails>@@0IB 100a195c     MSVCRTD:initsect.obj
 0003:0000b9ac       ?LocalIdBitWidth@CrossScopeId@CodeViewInfo@@2IB 100a19ac     MSVCRTD:pdblkup.obj
 0003:0000b9b0       ?IdScopeBitWidth@CrossScopeId@CodeViewInfo@@2IB 100a19b0     MSVCRTD:pdblkup.obj
 0003:0000b9b4       ?StartCrossScopeId@CrossScopeId@CodeViewInfo@@2IB 100a19b4     MSVCRTD:pdblkup.obj
 0003:0000b9b8       ?LocalIdMask@CrossScopeId@CodeViewInfo@@2IB 100a19b8     MSVCRTD:pdblkup.obj
 0003:0000b9bc       ?ScopeIdMask@CrossScopeId@CodeViewInfo@@2IB 100a19bc     MSVCRTD:pdblkup.obj
 0003:0000b9c0       ?MaxLocalId@CrossScopeId@CodeViewInfo@@2IB 100a19c0     MSVCRTD:pdblkup.obj
 0003:0000b9c4       ?MaxScopeId@CrossScopeId@CodeViewInfo@@2IB 100a19c4     MSVCRTD:pdblkup.obj
 0003:0000b9c8       ??_C@_1BK@GAEMIDIL@?$AAA?$AAD?$AAV?$AAA?$AAP?$AAI?$AA3?$AA2?$AA?4?$AAD?$AAL?$AAL?$AA?$AA@ 100a19c8     MSVCRTD:pdblkup.obj
 0003:0000b9e8       ??_C@_0O@COHOBMLB@RegOpenKeyExW?$AA@ 100a19e8     MSVCRTD:pdblkup.obj
 0003:0000b9f8       ??_C@_0BB@GLNAEDBD@RegQueryValueExW?$AA@ 100a19f8     MSVCRTD:pdblkup.obj
 0003:0000ba0c       ??_C@_0M@HLOHPNFA@RegCloseKey?$AA@ 100a1a0c     MSVCRTD:pdblkup.obj
 0003:0000ba20       ??_C@_1FM@EGIBBNPP@?$AAS?$AAO?$AAF?$AAT?$AAW?$AAA?$AAR?$AAE?$AA?2?$AAM?$AAi?$AAc?$AAr?$AAo?$AAs?$AAo?$AAf?$AAt?$AA?2?$AAV?$AAi?$AAs?$AAu?$AAa?$AAl?$AAS?$AAt?$AAu?$AAd?$AAi?$AAo?$AA?2@ 100a1a20     MSVCRTD:pdblkup.obj
 0003:0000ba90       ??_C@_1BG@EABPBLLF@?$AAP?$AAr?$AAo?$AAd?$AAu?$AAc?$AAt?$AAD?$AAi?$AAr?$AA?$AA@ 100a1a90     MSVCRTD:pdblkup.obj
 0003:0000bad0       ??_C@_1BC@EOIMGOME@?$AAM?$AAS?$AAP?$AAD?$AAB?$AA1?$AA2?$AA0?$AA?$AA@ 100a1ad0     MSVCRTD:pdblkup.obj
 0003:0000bae8       ??_C@_0BB@KCIACLNC@PDBOpenValidate5?$AA@ 100a1ae8     MSVCRTD:pdblkup.obj
 0003:0000bafc       ??_C@_01KDCPPGHE@r?$AA@    100a1afc     MSVCRTD:pdblkup.obj
 0003:0000bb00       __load_config_used         100a1b00     MSVCRTD:loadcfg.obj
 0003:0000bf14       ??_R13?0A@EA@QShared@@8    100a1f14     bncs_client_runtime.obj
 0003:0000bf38       ??_R3QShared@@8            100a1f38     bncs_client_runtime.obj
 0003:0000bf4c       ??_R2QShared@@8            100a1f4c     bncs_client_runtime.obj
 0003:0000bf54       ??_R1A@?0A@EA@QShared@@8   100a1f54     bncs_client_runtime.obj
 0003:0000bf78       ??_R1A@?0A@EA@QGList@@8    100a1f78     bncs_client_runtime.obj
 0003:0000bf9c       ??_R3QGList@@8             100a1f9c     bncs_client_runtime.obj
 0003:0000bfb0       ??_R2QGList@@8             100a1fb0     bncs_client_runtime.obj
 0003:0000bfbc       ??_R1A@?0A@EA@QPtrCollection@@8 100a1fbc     bncs_client_runtime.obj
 0003:0000bfe0       ??_R3QPtrCollection@@8     100a1fe0     bncs_client_runtime.obj
 0003:0000bff4       ??_R2QPtrCollection@@8     100a1ff4     bncs_client_runtime.obj
 0003:0000bffc       ??_R4error_category@std@@6B@ 100a1ffc     bncs_client_runtime.obj
 0003:0000c014       ??_R3error_category@std@@8 100a2014     bncs_client_runtime.obj
 0003:0000c028       ??_R2error_category@std@@8 100a2028     bncs_client_runtime.obj
 0003:0000c030       ??_R1A@?0A@EA@error_category@std@@8 100a2030     bncs_client_runtime.obj
 0003:0000c054       ??_R4_Generic_error_category@std@@6B@ 100a2054     bncs_client_runtime.obj
 0003:0000c06c       ??_R3_Generic_error_category@std@@8 100a206c     bncs_client_runtime.obj
 0003:0000c080       ??_R2_Generic_error_category@std@@8 100a2080     bncs_client_runtime.obj
 0003:0000c08c       ??_R1A@?0A@EA@_Generic_error_category@std@@8 100a208c     bncs_client_runtime.obj
 0003:0000c0b0       ??_R4_Iostream_error_category@std@@6B@ 100a20b0     bncs_client_runtime.obj
 0003:0000c0c8       ??_R3_Iostream_error_category@std@@8 100a20c8     bncs_client_runtime.obj
 0003:0000c0dc       ??_R2_Iostream_error_category@std@@8 100a20dc     bncs_client_runtime.obj
 0003:0000c0ec       ??_R1A@?0A@EA@_Iostream_error_category@std@@8 100a20ec     bncs_client_runtime.obj
 0003:0000c110       ??_R4_System_error_category@std@@6B@ 100a2110     bncs_client_runtime.obj
 0003:0000c128       ??_R3_System_error_category@std@@8 100a2128     bncs_client_runtime.obj
 0003:0000c13c       ??_R2_System_error_category@std@@8 100a213c     bncs_client_runtime.obj
 0003:0000c14c       ??_R1A@?0A@EA@_System_error_category@std@@8 100a214c     bncs_client_runtime.obj
 0003:0000c170       ??_R4signalConnectionRefList@@6B@ 100a2170     bncs_client_runtime.obj
 0003:0000c188       ??_R3signalConnectionRefList@@8 100a2188     bncs_client_runtime.obj
 0003:0000c19c       ??_R2signalConnectionRefList@@8 100a219c     bncs_client_runtime.obj
 0003:0000c1b0       ??_R1A@?0A@EA@signalConnectionRefList@@8 100a21b0     bncs_client_runtime.obj
 0003:0000c1d4       ??_R1A@?0A@EA@?$QPtrList@VsignalConnection@@@@8 100a21d4     bncs_client_runtime.obj
 0003:0000c1f8       ??_R3?$QPtrList@VsignalConnection@@@@8 100a21f8     bncs_client_runtime.obj
 0003:0000c20c       ??_R2?$QPtrList@VsignalConnection@@@@8 100a220c     bncs_client_runtime.obj
 0003:0000c21c       ??_R4?$QPtrList@VsignalConnection@@@@6B@ 100a221c     bncs_client_runtime.obj
 0003:0000c234       ??_R4IdCWlimits@@6B@       100a2234     bncs_client_runtime.obj
 0003:0000c24c       ??_R3IdCWlimits@@8         100a224c     bncs_client_runtime.obj
 0003:0000c260       ??_R2IdCWlimits@@8         100a2260     bncs_client_runtime.obj
 0003:0000c268       ??_R1A@?0A@EA@IdCWlimits@@8 100a2268     bncs_client_runtime.obj
 0003:0000c28c       ??_R4dCW@@6B@              100a228c     bncs_client_runtime.obj
 0003:0000c2a4       ??_R3dCW@@8                100a22a4     bncs_client_runtime.obj
 0003:0000c2b8       ??_R2dCW@@8                100a22b8     bncs_client_runtime.obj
 0003:0000c2c0       ??_R1A@?0A@EA@dCW@@8       100a22c0     bncs_client_runtime.obj
 0003:0000c2e4       ??_R4IccTimerCallback@@6B@ 100a22e4     bncs_client_runtime.obj
 0003:0000c2fc       ??_R3IccTimerCallback@@8   100a22fc     bncs_client_runtime.obj
 0003:0000c310       ??_R2IccTimerCallback@@8   100a2310     bncs_client_runtime.obj
 0003:0000c318       ??_R1A@?0A@EA@IccTimerCallback@@8 100a2318     bncs_client_runtime.obj
 0003:0000c33c       ??_R4bncs_client_runtime@@6BQObject@@@ 100a233c     bncs_client_runtime.obj
 0003:0000c354       ??_R3bncs_client_runtime@@8 100a2354     bncs_client_runtime.obj
 0003:0000c368       ??_R2bncs_client_runtime@@8 100a2368     bncs_client_runtime.obj
 0003:0000c388       ??_R1A@?0A@EA@bncs_client_runtime@@8 100a2388     bncs_client_runtime.obj
 0003:0000c3ac       ??_R1A@?0A@EA@QWidget@@8   100a23ac     bncs_client_runtime.obj
 0003:0000c3d0       ??_R3QWidget@@8            100a23d0     bncs_client_runtime.obj
 0003:0000c3e4       ??_R2QWidget@@8            100a23e4     bncs_client_runtime.obj
 0003:0000c3f8       ??_R1A@?0A@EA@QObject@@8   100a23f8     bncs_client_runtime.obj
 0003:0000c41c       ??_R3QObject@@8            100a241c     bncs_client_runtime.obj
 0003:0000c430       ??_R2QObject@@8            100a2430     bncs_client_runtime.obj
 0003:0000c43c       ??_R13?0A@EA@Qt@@8         100a243c     bncs_client_runtime.obj
 0003:0000c460       ??_R3Qt@@8                 100a2460     bncs_client_runtime.obj
 0003:0000c474       ??_R2Qt@@8                 100a2474     bncs_client_runtime.obj
 0003:0000c47c       ??_R1A@?0A@EA@Qt@@8        100a247c     bncs_client_runtime.obj
 0003:0000c4a0       ??_R1CI@?0A@EA@QPaintDevice@@8 100a24a0     bncs_client_runtime.obj
 0003:0000c4c4       ??_R3QPaintDevice@@8       100a24c4     bncs_client_runtime.obj
 0003:0000c4d8       ??_R2QPaintDevice@@8       100a24d8     bncs_client_runtime.obj
 0003:0000c4e0       ??_R1A@?0A@EA@QPaintDevice@@8 100a24e0     bncs_client_runtime.obj
 0003:0000c504       ??_R1GM@?0A@EN@IccTimerCallback@@8 100a2504     bncs_client_runtime.obj
 0003:0000c528       ??_R4bncs_client_runtime@@6BQPaintDevice@@@ 100a2528     bncs_client_runtime.obj
 0003:0000c540       ??_R4bncs_client_runtime@@6B@ 100a2540     bncs_client_runtime.obj
 0003:0000c558       ??_R4?$QValueListPrivate@VparamInfo@@@@6B@ 100a2558     bncs_client_runtime.obj
 0003:0000c570       ??_R3?$QValueListPrivate@VparamInfo@@@@8 100a2570     bncs_client_runtime.obj
 0003:0000c584       ??_R2?$QValueListPrivate@VparamInfo@@@@8 100a2584     bncs_client_runtime.obj
 0003:0000c590       ??_R1A@?0A@EA@?$QValueListPrivate@VparamInfo@@@@8 100a2590     bncs_client_runtime.obj
 0003:0000c5b4       ??_R4?$QValueListNode@VparamInfo@@@@6B@ 100a25b4     bncs_client_runtime.obj
 0003:0000c5cc       ??_R3?$QValueListNode@VparamInfo@@@@8 100a25cc     bncs_client_runtime.obj
 0003:0000c5e0       ??_R2?$QValueListNode@VparamInfo@@@@8 100a25e0     bncs_client_runtime.obj
 0003:0000c5e8       ??_R1A@?0A@EA@?$QValueListNode@VparamInfo@@@@8 100a25e8     bncs_client_runtime.obj
 0003:0000c60c       ??_R4?$QValueListPrivate@VcomplexParam@@@@6B@ 100a260c     bncs_client_runtime.obj
 0003:0000c624       ??_R3?$QValueListPrivate@VcomplexParam@@@@8 100a2624     bncs_client_runtime.obj
 0003:0000c638       ??_R2?$QValueListPrivate@VcomplexParam@@@@8 100a2638     bncs_client_runtime.obj
 0003:0000c644       ??_R1A@?0A@EA@?$QValueListPrivate@VcomplexParam@@@@8 100a2644     bncs_client_runtime.obj
 0003:0000c668       ??_R4?$QValueListNode@VcomplexParam@@@@6B@ 100a2668     bncs_client_runtime.obj
 0003:0000c680       ??_R3?$QValueListNode@VcomplexParam@@@@8 100a2680     bncs_client_runtime.obj
 0003:0000c694       ??_R2?$QValueListNode@VcomplexParam@@@@8 100a2694     bncs_client_runtime.obj
 0003:0000c69c       ??_R1A@?0A@EA@?$QValueListNode@VcomplexParam@@@@8 100a269c     bncs_client_runtime.obj
 0003:0000c6c0       ??_R4?$QValueListPrivate@VcomplexInstance@@@@6B@ 100a26c0     bncs_client_runtime.obj
 0003:0000c6d8       ??_R3?$QValueListPrivate@VcomplexInstance@@@@8 100a26d8     bncs_client_runtime.obj
 0003:0000c6ec       ??_R2?$QValueListPrivate@VcomplexInstance@@@@8 100a26ec     bncs_client_runtime.obj
 0003:0000c6f8       ??_R1A@?0A@EA@?$QValueListPrivate@VcomplexInstance@@@@8 100a26f8     bncs_client_runtime.obj
 0003:0000c71c       ??_R4?$QValueListNode@VcomplexInstance@@@@6B@ 100a271c     bncs_client_runtime.obj
 0003:0000c734       ??_R3?$QValueListNode@VcomplexInstance@@@@8 100a2734     bncs_client_runtime.obj
 0003:0000c748       ??_R2?$QValueListNode@VcomplexInstance@@@@8 100a2748     bncs_client_runtime.obj
 0003:0000c750       ??_R1A@?0A@EA@?$QValueListNode@VcomplexInstance@@@@8 100a2750     bncs_client_runtime.obj
 0003:0000c774       ??_R4?$QValueListPrivate@VinstanceInfo@@@@6B@ 100a2774     bncs_client_runtime.obj
 0003:0000c78c       ??_R3?$QValueListPrivate@VinstanceInfo@@@@8 100a278c     bncs_client_runtime.obj
 0003:0000c7a0       ??_R2?$QValueListPrivate@VinstanceInfo@@@@8 100a27a0     bncs_client_runtime.obj
 0003:0000c7ac       ??_R1A@?0A@EA@?$QValueListPrivate@VinstanceInfo@@@@8 100a27ac     bncs_client_runtime.obj
 0003:0000c7d0       ??_R4?$QValueListNode@VinstanceInfo@@@@6B@ 100a27d0     bncs_client_runtime.obj
 0003:0000c7e8       ??_R3?$QValueListNode@VinstanceInfo@@@@8 100a27e8     bncs_client_runtime.obj
 0003:0000c7fc       ??_R2?$QValueListNode@VinstanceInfo@@@@8 100a27fc     bncs_client_runtime.obj
 0003:0000c804       ??_R1A@?0A@EA@?$QValueListNode@VinstanceInfo@@@@8 100a2804     bncs_client_runtime.obj
 0003:0000c828       ??_R4?$QValueListPrivate@VdeviceTypeInfo@@@@6B@ 100a2828     bncs_client_runtime.obj
 0003:0000c840       ??_R3?$QValueListPrivate@VdeviceTypeInfo@@@@8 100a2840     bncs_client_runtime.obj
 0003:0000c854       ??_R2?$QValueListPrivate@VdeviceTypeInfo@@@@8 100a2854     bncs_client_runtime.obj
 0003:0000c860       ??_R1A@?0A@EA@?$QValueListPrivate@VdeviceTypeInfo@@@@8 100a2860     bncs_client_runtime.obj
 0003:0000c884       ??_R4?$QValueListNode@VdeviceTypeInfo@@@@6B@ 100a2884     bncs_client_runtime.obj
 0003:0000c89c       ??_R3?$QValueListNode@VdeviceTypeInfo@@@@8 100a289c     bncs_client_runtime.obj
 0003:0000c8b0       ??_R2?$QValueListNode@VdeviceTypeInfo@@@@8 100a28b0     bncs_client_runtime.obj
 0003:0000c8b8       ??_R1A@?0A@EA@?$QValueListNode@VdeviceTypeInfo@@@@8 100a28b8     bncs_client_runtime.obj
 0003:0000c8dc       ??_R4?$QValueListPrivate@VcomplexType@@@@6B@ 100a28dc     bncs_client_runtime.obj
 0003:0000c8f4       ??_R3?$QValueListPrivate@VcomplexType@@@@8 100a28f4     bncs_client_runtime.obj
 0003:0000c908       ??_R2?$QValueListPrivate@VcomplexType@@@@8 100a2908     bncs_client_runtime.obj
 0003:0000c914       ??_R1A@?0A@EA@?$QValueListPrivate@VcomplexType@@@@8 100a2914     bncs_client_runtime.obj
 0003:0000c938       ??_R4?$QValueListNode@VcomplexType@@@@6B@ 100a2938     bncs_client_runtime.obj
 0003:0000c950       ??_R3?$QValueListNode@VcomplexType@@@@8 100a2950     bncs_client_runtime.obj
 0003:0000c964       ??_R2?$QValueListNode@VcomplexType@@@@8 100a2964     bncs_client_runtime.obj
 0003:0000c96c       ??_R1A@?0A@EA@?$QValueListNode@VcomplexType@@@@8 100a296c     bncs_client_runtime.obj
 0003:0000c990       ??_R4ccTimer@@6B@          100a2990     ccTimer.obj
 0003:0000c9a8       ??_R3ccTimer@@8            100a29a8     ccTimer.obj
 0003:0000c9bc       ??_R2ccTimer@@8            100a29bc     ccTimer.obj
 0003:0000c9c4       ??_R1A@?0A@EA@ccTimer@@8   100a29c4     ccTimer.obj
 0003:0000c9e8       ??_R4connectionDebugDlg@@6BQObject@@@ 100a29e8     connectiondebugdlgimpl.obj
 0003:0000ca00       ??_R3connectionDebugDlg@@8 100a2a00     connectiondebugdlgimpl.obj
 0003:0000ca14       ??_R2connectionDebugDlg@@8 100a2a14     connectiondebugdlgimpl.obj
 0003:0000ca38       ??_R1A@?0A@EA@connectionDebugDlg@@8 100a2a38     connectiondebugdlgimpl.obj
 0003:0000ca5c       ??_R1A@?0A@EA@connectionDebugDlgBase@@8 100a2a5c     connectiondebugdlgimpl.obj
 0003:0000ca80       ??_R3connectionDebugDlgBase@@8 100a2a80     connectiondebugdlgimpl.obj
 0003:0000ca94       ??_R2connectionDebugDlgBase@@8 100a2a94     connectiondebugdlgimpl.obj
 0003:0000cab4       ??_R1A@?0A@EA@QDialog@@8   100a2ab4     connectiondebugdlgimpl.obj
 0003:0000cad8       ??_R3QDialog@@8            100a2ad8     connectiondebugdlgimpl.obj
 0003:0000caec       ??_R2QDialog@@8            100a2aec     connectiondebugdlgimpl.obj
 0003:0000cb08       ??_R4connectionDebugDlg@@6BQPaintDevice@@@ 100a2b08     connectiondebugdlgimpl.obj
 0003:0000cb20       ??_R4QDomDocument@@6B@     100a2b20     dCW.obj
 0003:0000cb38       ??_R3QDomDocument@@8       100a2b38     dCW.obj
 0003:0000cb4c       ??_R2QDomDocument@@8       100a2b4c     dCW.obj
 0003:0000cb58       ??_R1A@?0A@EA@QDomDocument@@8 100a2b58     dCW.obj
 0003:0000cb7c       ??_R1A@?0A@EA@QDomNode@@8  100a2b7c     dCW.obj
 0003:0000cba0       ??_R3QDomNode@@8           100a2ba0     dCW.obj
 0003:0000cbb4       ??_R2QDomNode@@8           100a2bb4     dCW.obj
 0003:0000cbbc       ??_R1A@?0A@EA@QGCache@@8   100a2bbc     dCW.obj
 0003:0000cbe0       ??_R3QGCache@@8            100a2be0     dCW.obj
 0003:0000cbf4       ??_R2QGCache@@8            100a2bf4     dCW.obj
 0003:0000cc00       ??_R4resourceCounts@@6B@   100a2c00     dCW.obj
 0003:0000cc18       ??_R3resourceCounts@@8     100a2c18     dCW.obj
 0003:0000cc2c       ??_R2resourceCounts@@8     100a2c2c     dCW.obj
 0003:0000cc34       ??_R1A@?0A@EA@resourceCounts@@8 100a2c34     dCW.obj
 0003:0000cc58       ??_R4?$QCache@VQDomDocument@@@@6B@ 100a2c58     dCW.obj
 0003:0000cc70       ??_R3?$QCache@VQDomDocument@@@@8 100a2c70     dCW.obj
 0003:0000cc84       ??_R2?$QCache@VQDomDocument@@@@8 100a2c84     dCW.obj
 0003:0000cc94       ??_R1A@?0A@EA@?$QCache@VQDomDocument@@@@8 100a2c94     dCW.obj
 0003:0000ccb8       ??_R4notifyWrangler@@6B@   100a2cb8     notifyWrangler.obj
 0003:0000ccd0       ??_R3notifyWrangler@@8     100a2cd0     notifyWrangler.obj
 0003:0000cce4       ??_R2notifyWrangler@@8     100a2ce4     notifyWrangler.obj
 0003:0000ccec       ??_R1A@?0A@EA@notifyWrangler@@8 100a2cec     notifyWrangler.obj
 0003:0000cd10       ??_R4QPushButton@@6BQObject@@@ 100a2d10     connectiondebugdlg.obj
 0003:0000cd28       ??_R3QPushButton@@8        100a2d28     connectiondebugdlg.obj
 0003:0000cd3c       ??_R2QPushButton@@8        100a2d3c     connectiondebugdlg.obj
 0003:0000cd5c       ??_R1A@?0A@EA@QPushButton@@8 100a2d5c     connectiondebugdlg.obj
 0003:0000cd80       ??_R1A@?0A@EA@QButton@@8   100a2d80     connectiondebugdlg.obj
 0003:0000cda4       ??_R3QButton@@8            100a2da4     connectiondebugdlg.obj
 0003:0000cdb8       ??_R2QButton@@8            100a2db8     connectiondebugdlg.obj
 0003:0000cdd4       ??_R4QPushButton@@6BQPaintDevice@@@ 100a2dd4     connectiondebugdlg.obj
 0003:0000cdec       ??_R4QVBoxLayout@@6BQObject@@@ 100a2dec     connectiondebugdlg.obj
 0003:0000ce04       ??_R3QVBoxLayout@@8        100a2e04     connectiondebugdlg.obj
 0003:0000ce18       ??_R2QVBoxLayout@@8        100a2e18     connectiondebugdlg.obj
 0003:0000ce38       ??_R1A@?0A@EA@QVBoxLayout@@8 100a2e38     connectiondebugdlg.obj
 0003:0000ce5c       ??_R1A@?0A@EA@QBoxLayout@@8 100a2e5c     connectiondebugdlg.obj
 0003:0000ce80       ??_R3QBoxLayout@@8         100a2e80     connectiondebugdlg.obj
 0003:0000ce94       ??_R2QBoxLayout@@8         100a2e94     connectiondebugdlg.obj
 0003:0000ceb0       ??_R1A@?0A@EA@QLayout@@8   100a2eb0     connectiondebugdlg.obj
 0003:0000ced4       ??_R3QLayout@@8            100a2ed4     connectiondebugdlg.obj
 0003:0000cee8       ??_R2QLayout@@8            100a2ee8     connectiondebugdlg.obj
 0003:0000cefc       ??_R1CI@?0A@EA@QLayoutItem@@8 100a2efc     connectiondebugdlg.obj
 0003:0000cf20       ??_R3QLayoutItem@@8        100a2f20     connectiondebugdlg.obj
 0003:0000cf34       ??_R2QLayoutItem@@8        100a2f34     connectiondebugdlg.obj
 0003:0000cf3c       ??_R1A@?0A@EA@QLayoutItem@@8 100a2f3c     connectiondebugdlg.obj
 0003:0000cf60       ??_R4QVBoxLayout@@6BQLayoutItem@@@ 100a2f60     connectiondebugdlg.obj
 0003:0000cf78       ??_R4QHBoxLayout@@6BQObject@@@ 100a2f78     connectiondebugdlg.obj
 0003:0000cf90       ??_R3QHBoxLayout@@8        100a2f90     connectiondebugdlg.obj
 0003:0000cfa4       ??_R2QHBoxLayout@@8        100a2fa4     connectiondebugdlg.obj
 0003:0000cfc4       ??_R1A@?0A@EA@QHBoxLayout@@8 100a2fc4     connectiondebugdlg.obj
 0003:0000cfe8       ??_R4QHBoxLayout@@6BQLayoutItem@@@ 100a2fe8     connectiondebugdlg.obj
 0003:0000d000       ??_R4QTextEdit@@6BQObject@@@ 100a3000     connectiondebugdlg.obj
 0003:0000d018       ??_R3QTextEdit@@8          100a3018     connectiondebugdlg.obj
 0003:0000d02c       ??_R2QTextEdit@@8          100a302c     connectiondebugdlg.obj
 0003:0000d050       ??_R1A@?0A@EA@QTextEdit@@8 100a3050     connectiondebugdlg.obj
 0003:0000d074       ??_R1A@?0A@EA@QScrollView@@8 100a3074     connectiondebugdlg.obj
 0003:0000d098       ??_R3QScrollView@@8        100a3098     connectiondebugdlg.obj
 0003:0000d0ac       ??_R2QScrollView@@8        100a30ac     connectiondebugdlg.obj
 0003:0000d0cc       ??_R1A@?0A@EA@QFrame@@8    100a30cc     connectiondebugdlg.obj
 0003:0000d0f0       ??_R3QFrame@@8             100a30f0     connectiondebugdlg.obj
 0003:0000d104       ??_R2QFrame@@8             100a3104     connectiondebugdlg.obj
 0003:0000d120       ??_R4QTextEdit@@6BQPaintDevice@@@ 100a3120     connectiondebugdlg.obj
 0003:0000d138       ??_R4QCheckBox@@6BQObject@@@ 100a3138     connectiondebugdlg.obj
 0003:0000d150       ??_R3QCheckBox@@8          100a3150     connectiondebugdlg.obj
 0003:0000d164       ??_R2QCheckBox@@8          100a3164     connectiondebugdlg.obj
 0003:0000d184       ??_R1A@?0A@EA@QCheckBox@@8 100a3184     connectiondebugdlg.obj
 0003:0000d1a8       ??_R4QCheckBox@@6BQPaintDevice@@@ 100a31a8     connectiondebugdlg.obj
 0003:0000d1c0       ??_R4connectionDebugDlgBase@@6BQObject@@@ 100a31c0     connectiondebugdlg.obj
 0003:0000d1d8       ??_R4connectionDebugDlgBase@@6BQPaintDevice@@@ 100a31d8     connectiondebugdlg.obj
 0003:0000d1f0       ??_R4QSpacerItem@@6B@      100a31f0     connectiondebugdlg.obj
 0003:0000d208       ??_R3QSpacerItem@@8        100a3208     connectiondebugdlg.obj
 0003:0000d21c       ??_R2QSpacerItem@@8        100a321c     connectiondebugdlg.obj
 0003:0000d228       ??_R1A@?0A@EA@QSpacerItem@@8 100a3228     connectiondebugdlg.obj
 0003:0000d24c       ??_R4type_info@@6B@        100a324c     MSVCRTD:ti_inst.obj
 0003:0000d264       ??_R3type_info@@8          100a3264     MSVCRTD:ti_inst.obj
 0003:0000d278       ??_R2type_info@@8          100a3278     MSVCRTD:ti_inst.obj
 0003:0000d280       ??_R1A@?0A@EA@type_info@@8 100a3280     MSVCRTD:ti_inst.obj
 0003:0000d41c       ___rtc_iaa                 100a341c     MSVCRTD:initsect.obj
 0003:0000d654       ___rtc_izz                 100a3654     MSVCRTD:initsect.obj
 0003:0000d758       ___rtc_taa                 100a3758     MSVCRTD:initsect.obj
 0003:0000d990       ___rtc_tzz                 100a3990     MSVCRTD:initsect.obj
 0004:00000000       ?g_doCacheing@@3_NA        100b0000     dCW.obj
 0004:00000040       ?qwf_execute_code@@3_NA    100b0040     qui:qwidgetfactory.obj
 0004:00000044       ??_C@_03JMAK@?4qs?$AA@     100b0044     qui:qwidgetfactory.obj
 0004:00000048       ??_C@_09MKDN@?1designer?$AA@ 100b0048     qui:qwidgetfactory.obj
 0004:00000054       ??_C@_07MBFH@QWidget?$AA@  100b0054     qui:qwidgetfactory.obj
 0004:00000060       ??_C@_06KNLE@QLabel?$AA@   100b0060     qui:qwidgetfactory.obj
 0004:00000068       ??_C@_09HNNH@?$CIdefault?$CJ?$AA@ 100b0068     qui:qwidgetfactory.obj
 0004:00000074       ??_C@_0L@GHMK@QDataTable?$AA@ 100b0074     qui:qwidgetfactory.obj
 0004:00000084       ??_C@_0BD@PMKE@QDesignerDataView2?$AA@ 100b0084     qui:qwidgetfactory.obj
 0004:0000009c       ??_C@_0BG@FOMG@QDesignerDataBrowser2?$AA@ 100b009c     qui:qwidgetfactory.obj
 0004:000000b8       ??_C@_06HEI@margin?$AA@    100b00b8     qui:qwidgetfactory.obj
 0004:000000c0       ??_C@_07ENJI@spacing?$AA@  100b00c0     qui:qwidgetfactory.obj
 0004:000000cc       ??_C@_0P@LAC@layoutdefaults?$AA@ 100b00cc     qui:qwidgetfactory.obj
 0004:000000e0       ??_C@_0BA@EHJP@pixmapinproject?$AA@ 100b00e0     qui:qwidgetfactory.obj
 0004:000000f4       ??_C@_06BHPE@widget?$AA@   100b00f4     qui:qwidgetfactory.obj
 0004:000000fc       ??_C@_05LGKP@class?$AA@    100b00fc     qui:qwidgetfactory.obj
 0004:00000104       ??_C@_09LPHA@functions?$AA@ 100b0104     qui:qwidgetfactory.obj
 0004:00000110       ??_C@_07FOBJ@menubar?$AA@  100b0110     qui:qwidgetfactory.obj
 0004:0000011c       ??_C@_08MLHI@toolbars?$AA@ 100b011c     qui:qwidgetfactory.obj
 0004:00000128       ??_C@_07LAIB@actions?$AA@  100b0128     qui:qwidgetfactory.obj
 0004:00000134       ??_C@_08IOFG@tabstops?$AA@ 100b0134     qui:qwidgetfactory.obj
 0004:00000140       ??_C@_06PIFN@images?$AA@   100b0140     qui:qwidgetfactory.obj
 0004:00000148       ??_C@_0M@KFNC@connections?$AA@ 100b0148     qui:qwidgetfactory.obj
 0004:00000158       ??_C@_05KJGN@slots?$AA@    100b0158     qui:qwidgetfactory.obj
 0004:00000160       ??_C@_09IHFC@variables?$AA@ 100b0160     qui:qwidgetfactory.obj
 0004:0000016c       ??_C@_0M@NBGL@QGridLayout?$AA@ 100b016c     qui:qwidgetfactory.obj
 0004:0000017c       ??_C@_08GOG@sizeType?$AA@  100b017c     qui:qwidgetfactory.obj
 0004:00000188       ??_C@_08GGJA@sizeHint?$AA@ 100b0188     qui:qwidgetfactory.obj
 0004:00000194       ??_C@_08FIBN@Vertical?$AA@ 100b0194     qui:qwidgetfactory.obj
 0004:000001a0       ??_C@_0M@OAHA@orientation?$AA@ 100b01a0     qui:qwidgetfactory.obj
 0004:000001b0       ??_C@_07PMBC@Corrupt?$AA@  100b01b0     qui:qwidgetfactory.obj
 0004:000001bc       ??_C@_09POGD@Expanding?$AA@ 100b01bc     qui:qwidgetfactory.obj
 0004:000001c8       ??_C@_0BB@NCNF@MinimumExpanding?$AA@ 100b01c8     qui:qwidgetfactory.obj
 0004:000001dc       ??_C@_09ICH@Preferred?$AA@ 100b01dc     qui:qwidgetfactory.obj
 0004:000001e8       ??_C@_07EEKE@Maximum?$AA@  100b01e8     qui:qwidgetfactory.obj
 0004:000001f4       ??_C@_07CLCP@Minimum?$AA@  100b01f4     qui:qwidgetfactory.obj
 0004:00000200       ??_C@_05CAKF@Fixed?$AA@    100b0200     qui:qwidgetfactory.obj
 0004:00000208       ??_C@_06PDBK@QTable?$AA@   100b0208     qui:qwidgetfactory.obj
 0004:00000210       ??_C@_09GHEJ@QListView?$AA@ 100b0210     qui:qwidgetfactory.obj
 0004:0000021c       ??_C@_04LHJL@text?$AA@     100b021c     qui:qwidgetfactory.obj
 0004:00000224       ??_C@_05CMGC@field?$AA@    100b0224     qui:qwidgetfactory.obj
 0004:0000022c       ??_C@_09IFIF@resizable?$AA@ 100b022c     qui:qwidgetfactory.obj
 0004:00000238       ??_C@_06NBAD@pixmap?$AA@   100b0238     qui:qwidgetfactory.obj
 0004:00000240       ??_C@_09IOPI@clickable?$AA@ 100b0240     qui:qwidgetfactory.obj
 0004:0000024c       ??_C@_09MEON@QIconView?$AA@ 100b024c     qui:qwidgetfactory.obj
 0004:00000258       ??_C@_08BPKO@QListBox?$AA@ 100b0258     qui:qwidgetfactory.obj
 0004:00000264       ??_C@_09DMGG@QComboBox?$AA@ 100b0264     qui:qwidgetfactory.obj
 0004:00000270       ??_C@_0N@OBMJ@QWidgetStack?$AA@ 100b0270     qui:qwidgetfactory.obj
 0004:00000280       ??_C@_02IBHF@id?$AA@       100b0280     qui:qwidgetfactory.obj
 0004:00000284       ??_C@_07CPPB@QWizard?$AA@  100b0284     qui:qwidgetfactory.obj
 0004:00000290       ??_C@_0L@PDID@QTabWidget?$AA@ 100b0290     qui:qwidgetfactory.obj
 0004:000002a0       ??_C@_05LHJG@title?$AA@    100b02a0     qui:qwidgetfactory.obj
 0004:000002a8       ??_C@_08MAPP@QToolBar?$AA@ 100b02a8     qui:qwidgetfactory.obj
 0004:000002b4       ??_C@_08PBK@QMenuBar?$AA@  100b02b4     qui:qwidgetfactory.obj
 0004:000002c0       ??_C@_0M@FIEM@QVBoxLayout?$AA@ 100b02c0     qui:qwidgetfactory.obj
 0004:000002d0       ??_C@_0M@PKPH@QHBoxLayout?$AA@ 100b02d0     qui:qwidgetfactory.obj
 0004:000002e0       ??_C@_0N@EJJO@QActionGroup?$AA@ 100b02e0     qui:qwidgetfactory.obj
 0004:000002f0       ??_C@_07LOPB@QAction?$AA@  100b02f0     qui:qwidgetfactory.obj
 0004:000002fc       ??_C@_07LMCJ@QLayout?$AA@  100b02fc     qui:qwidgetfactory.obj
 0004:00000308       ??_C@_0M@HHOI@QMainWindow?$AA@ 100b0308     qui:qwidgetfactory.obj
 0004:00000318       ??_C@_0P@CMED@File?5corrupted?$AA@ 100b0318     qui:qwidgetfactory.obj
 0004:0000032c       ??_C@_0O@JOFB@Version?5error?$AA@ 100b032c     qui:qwidgetfactory.obj
 0004:0000033c       ??_C@_0BO@IALE@Block_Variables?5not?5supported?$AA@ 100b033c     qui:qwidgetfactory.obj
 0004:00000360       ??_C@_08MEPI@accept?$CI?$CJ?$AA@ 100b0360     qui:qwidgetfactory.obj
 0004:0000036c       ??_C@_09FMOM@clicked?$CI?$CJ?$AA@ 100b036c     qui:qwidgetfactory.obj
 0004:00000378       ??_C@_03NBIJ@C?$CL?$CL?$AA@ 100b0378     qui:qwidgetfactory.obj
 0004:0000037c       ??_C@_0BO@CHOL@Block_Functions?5not?5supported?$AA@ 100b037c     qui:qwidgetfactory.obj
 0004:000003a0       ??_C@_0BL@GPBC@Incompatible?5version?5of?5Qt?$AA@ 100b03a0     qui:qwidgetfactory.obj
 0004:000003c0       ??_C@_03FMK@XPM?$AA@       100b03c0     qui:qwidgetfactory.obj
 0004:000003c4       ??_C@_06KCMF@XPM?4GZ?$AA@  100b03c4     qui:qwidgetfactory.obj
 0004:000003cc       ??_C@_09JIBF@QDataView?$AA@ 100b03cc     qui:qwidgetfactory.obj
 0004:000003d8       ??_C@_0N@LHBP@QDataBrowser?$AA@ 100b03d8     qui:qwidgetfactory.obj
 0004:000003e8       ??_C@_0BC@OAFG@qt_central_widget?$AA@ 100b03e8     qui:qwidgetfactory.obj
 0004:00000400       ??_C@_05MGFC@QGrid?$AA@    100b0400     qui:qwidgetfactory.obj
 0004:00000408       ??_C@_05FFKI@QHBox?$AA@    100b0408     qui:qwidgetfactory.obj
 0004:00000410       ??_C@_05PFPF@QVBox?$AA@    100b0410     qui:qwidgetfactory.obj
 0004:00000418       ??_C@_08DMC@QToolBox?$AA@  100b0418     qui:qwidgetfactory.obj
 0004:00000424       ??_C@_0L@KGMO@QPopupMenu?$AA@ 100b0424     qui:qwidgetfactory.obj
 0004:00000434       ??_C@_0L@HBBK@QScrollBar?$AA@ 100b0434     qui:qwidgetfactory.obj
 0004:00000444       ??_C@_0O@EKBI@QDateTimeEdit?$AA@ 100b0444     qui:qwidgetfactory.obj
 0004:00000454       ??_C@_09CMAO@QTimeEdit?$AA@ 100b0454     qui:qwidgetfactory.obj
 0004:00000460       ??_C@_09LIOJ@QDateEdit?$AA@ 100b0460     qui:qwidgetfactory.obj
 0004:0000046c       ??_C@_09NJKH@QTextEdit?$AA@ 100b046c     qui:qwidgetfactory.obj
 0004:00000478       ??_C@_04KEDG@Line?$AA@     100b0478     qui:qwidgetfactory.obj
 0004:00000480       ??_C@_09JIGN@QSplitter?$AA@ 100b0480     qui:qwidgetfactory.obj
 0004:0000048c       ??_C@_06GLED@QFrame?$AA@   100b048c     qui:qwidgetfactory.obj
 0004:00000494       ??_C@_07CEKE@QSlider?$AA@  100b0494     qui:qwidgetfactory.obj
 0004:000004a0       ??_C@_05PKM@QDial?$AA@     100b04a0     qui:qwidgetfactory.obj
 0004:000004a8       ??_C@_0N@NBPG@QTextBrowser?$AA@ 100b04a8     qui:qwidgetfactory.obj
 0004:000004b8       ??_C@_09HJMO@QTextView?$AA@ 100b04b8     qui:qwidgetfactory.obj
 0004:000004c4       ??_C@_0N@ONGP@QProgressBar?$AA@ 100b04c4     qui:qwidgetfactory.obj
 0004:000004d4       ??_C@_0L@GOLD@QLCDNumber?$AA@ 100b04d4     qui:qwidgetfactory.obj
 0004:000004e4       ??_C@_07DNOJ@QDialog?$AA@  100b04e4     qui:qwidgetfactory.obj
 0004:000004f0       ??_C@_0O@EGKB@QLayoutWidget?$AA@ 100b04f0     qui:qwidgetfactory.obj
 0004:00000500       ??_C@_0M@ONAE@PixmapLabel?$AA@ 100b0500     qui:qwidgetfactory.obj
 0004:00000510       ??_C@_09OJPB@TextLabel?$AA@ 100b0510     qui:qwidgetfactory.obj
 0004:0000051c       ??_C@_0P@FPMD@QMultiLineEdit?$AA@ 100b051c     qui:qwidgetfactory.obj
 0004:00000530       ??_C@_08FPDC@QSpinBox?$AA@ 100b0530     qui:qwidgetfactory.obj
 0004:0000053c       ??_C@_09FBHD@QLineEdit?$AA@ 100b053c     qui:qwidgetfactory.obj
 0004:00000548       ??_C@_0N@BKO@QButtonGroup?$AA@ 100b0548     qui:qwidgetfactory.obj
 0004:00000558       ??_C@_09NJAI@QGroupBox?$AA@ 100b0558     qui:qwidgetfactory.obj
 0004:00000564       ??_C@_0N@IENO@QRadioButton?$AA@ 100b0564     qui:qwidgetfactory.obj
 0004:00000574       ??_C@_09GNOC@QCheckBox?$AA@ 100b0574     qui:qwidgetfactory.obj
 0004:00000580       ??_C@_0M@FBMJ@QToolButton?$AA@ 100b0580     qui:qwidgetfactory.obj
 0004:00000590       ??_C@_0M@IFOC@QPushButton?$AA@ 100b0590     qui:qwidgetfactory.obj
 0004:000005a0       ??_C@_04MPOO@item?$AA@     100b05a0     qui:qwidgetfactory.obj
 0004:000005a8       ??_C@_05OLF@label?$AA@     100b05a8     qui:qwidgetfactory.obj
 0004:000005b0       ??_C@_09GACJ@attribute?$AA@ 100b05b0     qui:qwidgetfactory.obj
 0004:000005bc       ??_C@_04OPJK@name?$AA@     100b05bc     qui:qwidgetfactory.obj
 0004:000005c4       ??_C@_08DKJK@property?$AA@ 100b05c4     qui:qwidgetfactory.obj
 0004:000005d0       ??_C@_04LGEG@vbox?$AA@     100b05d0     qui:qwidgetfactory.obj
 0004:000005d8       ??_C@_04MHDE@grid?$AA@     100b05d8     qui:qwidgetfactory.obj
 0004:000005e0       ??_C@_04BGBL@hbox?$AA@     100b05e0     qui:qwidgetfactory.obj
 0004:000005e8       ??_C@_06OFBM@spacer?$AA@   100b05e8     qui:qwidgetfactory.obj
 0004:000005f0       ??_C@_07GPN@colspan?$AA@   100b05f0     qui:qwidgetfactory.obj
 0004:000005fc       ??_C@_07CCCC@rowspan?$AA@  100b05fc     qui:qwidgetfactory.obj
 0004:00000608       ??_C@_06GJMM@column?$AA@   100b0608     qui:qwidgetfactory.obj
 0004:00000610       ??_C@_03OCHL@row?$AA@      100b0610     qui:qwidgetfactory.obj
 0004:00000614       ??_C@_0O@GCJD@frameworkCode?$AA@ 100b0614     qui:qwidgetfactory.obj
 0004:00000624       ??_C@_08PCJA@database?$AA@ 100b0624     qui:qwidgetfactory.obj
 0004:00000630       ??_C@_07GJAI@QButton?$AA@  100b0630     qui:qwidgetfactory.obj
 0004:0000063c       ??_C@_0O@FBEH@buttonGroupId?$AA@ 100b063c     qui:qwidgetfactory.obj
 0004:0000064c       ??_C@_05FMEP@buddy?$AA@    100b064c     qui:qwidgetfactory.obj
 0004:00000654       ??_C@_09CHLD@whatsThis?$AA@ 100b0654     qui:qwidgetfactory.obj
 0004:00000660       ??_C@_07POEO@toolTip?$AA@  100b0660     qui:qwidgetfactory.obj
 0004:0000066c       ??_C@_05DHJN@accel?$AA@    100b066c     qui:qwidgetfactory.obj
 0004:00000674       ??_C@_08NIEP@geometry?$AA@ 100b0674     qui:qwidgetfactory.obj
 0004:00000680       ??_C@_08FDGF@disabled?$AA@ 100b0680     qui:qwidgetfactory.obj
 0004:0000068c       ??_C@_08OJCF@inactive?$AA@ 100b068c     qui:qwidgetfactory.obj
 0004:00000698       ??_C@_06KAE@active?$AA@    100b0698     qui:qwidgetfactory.obj
 0004:000006a0       ??_C@_07DOH@palette?$AA@   100b06a0     qui:qwidgetfactory.obj
 0004:000006ac       ??_C@_05LEJM@image?$AA@    100b06ac     qui:qwidgetfactory.obj
 0004:000006b4       ??_C@_07PPEJ@iconset?$AA@  100b06b4     qui:qwidgetfactory.obj
 0004:000006c0       ??_C@_06EMNG@string?$AA@   100b06c0     qui:qwidgetfactory.obj
 0004:000006c8       ??_C@_0L@BGIA@QBoxLayout?$AA@ 100b06c8     qui:qwidgetfactory.obj
 0004:000006d8       ??_C@_0L@JABN@Horizontal?$AA@ 100b06d8     qui:qwidgetfactory.obj
 0004:000006e8       ??_C@_04OMKF@data?$AA@     100b06e8     qui:qwidgetfactory.obj
 0004:000006f0       ??_C@_06JEAL@length?$AA@   100b06f0     qui:qwidgetfactory.obj
 0004:000006f8       ??_C@_06PMHG@format?$AA@   100b06f8     qui:qwidgetfactory.obj
 0004:00000700       ??_C@_03DMOL@PNG?$AA@      100b0700     qui:qwidgetfactory.obj
 0004:00000704       ??_C@_05HMGA@color?$AA@    100b0704     qui:qwidgetfactory.obj
 0004:0000070c       ??_C@_03PJPM@1?$CF1?$AA@   100b070c     qui:qwidgetfactory.obj
 0004:00000710       ??_C@_03PMH@2?$CF1?$AA@    100b0710     qui:qwidgetfactory.obj
 0004:00000714       ??_C@_04IEHK@slot?$AA@     100b0714     qui:qwidgetfactory.obj
 0004:0000071c       ??_C@_08HDJB@receiver?$AA@ 100b071c     qui:qwidgetfactory.obj
 0004:00000728       ??_C@_06ELED@signal?$AA@   100b0728     qui:qwidgetfactory.obj
 0004:00000730       ??_C@_04BEIE@this?$AA@     100b0730     qui:qwidgetfactory.obj
 0004:00000738       ??_C@_06KJLG@sender?$AA@   100b0738     qui:qwidgetfactory.obj
 0004:00000740       ??_C@_08DAOE@language?$AA@ 100b0740     qui:qwidgetfactory.obj
 0004:0000074c       ??_C@_0L@DLBA@connection?$AA@ 100b074c     qui:qwidgetfactory.obj
 0004:0000075c       ??_C@_07LPDA@tabstop?$AA@  100b075c     qui:qwidgetfactory.obj
 0004:00000768       ??_C@_0L@HADB@resizeable?$AA@ 100b0768     qui:qwidgetfactory.obj
 0004:00000778       ??_C@_0M@NFCN@actiongroup?$AA@ 100b0778     qui:qwidgetfactory.obj
 0004:00000788       ??_C@_06GIFC@action?$AA@   100b0788     qui:qwidgetfactory.obj
 0004:00000790       ??_C@_09JCCP@separator?$AA@ 100b0790     qui:qwidgetfactory.obj
 0004:0000079c       ??_C@_04JKAN@dock?$AA@     100b079c     qui:qwidgetfactory.obj
 0004:000007a4       ??_C@_07JBPM@toolbar?$AA@  100b07a4     qui:qwidgetfactory.obj
 0004:000007b0       ??_C@_01FDLN@?1?$AA@       100b07b0     qui:qwidgetfactory.obj
 0004:000007b4       ??_C@_0BI@PHJO@ASSERT?3?5?$CC?$CFs?$CC?5in?5?$CFs?5?$CI?$CFd?$CJ?$AA@ 100b07b4     qui:qwidgetfactory.obj
 0004:000007d0       ??_C@_0L@MGKG@i?5?$DM?$DN?5nodes?$AA@ 100b07d0     qui:qwidgetfactory.obj
 0004:000007e0       ??_C@_0CB@BPFG@w?3?2Qt?23?42?43?2include?2qvaluelist?4h@ 100b07e0     qui:qwidgetfactory.obj
 0004:00000808       ??_C@_08MAHP@datetime?$AA@ 100b0808     qui:domtool.obj
 0004:00000814       ??_C@_06INBL@second?$AA@   100b0814     qui:domtool.obj
 0004:0000081c       ??_C@_06FBCA@minute?$AA@   100b081c     qui:domtool.obj
 0004:00000824       ??_C@_04GPNM@hour?$AA@     100b0824     qui:domtool.obj
 0004:0000082c       ??_C@_04EKDK@time?$AA@     100b082c     qui:domtool.obj
 0004:00000834       ??_C@_03EGAH@day?$AA@      100b0834     qui:domtool.obj
 0004:00000838       ??_C@_05FFFM@month?$AA@    100b0838     qui:domtool.obj
 0004:00000840       ??_C@_04BLDE@year?$AA@     100b0840     qui:domtool.obj
 0004:00000848       ??_C@_04EGPJ@date?$AA@     100b0848     qui:domtool.obj
 0004:00000850       ??_C@_0L@FMJE@stringlist?$AA@ 100b0850     qui:domtool.obj
 0004:00000860       ??_C@_06BMBC@cursor?$AA@   100b0860     qui:domtool.obj
 0004:00000868       ??_C@_0L@KNID@verstretch?$AA@ 100b0868     qui:domtool.obj
 0004:00000878       ??_C@_0L@JJOJ@horstretch?$AA@ 100b0878     qui:domtool.obj
 0004:00000888       ??_C@_09NOJI@vsizetype?$AA@ 100b0888     qui:domtool.obj
 0004:00000894       ??_C@_09GFOL@hsizetype?$AA@ 100b0894     qui:domtool.obj
 0004:000008a0       ??_C@_0L@JLID@sizepolicy?$AA@ 100b08a0     qui:domtool.obj
 0004:000008b0       ??_C@_03NHNF@set?$AA@      100b08b0     qui:domtool.obj
 0004:000008b4       ??_C@_04PGN@enum?$AA@      100b08b4     qui:domtool.obj
 0004:000008bc       ??_C@_01FBAH@1?$AA@        100b08bc     qui:domtool.obj
 0004:000008c0       ??_C@_04NCCD@true?$AA@     100b08c0     qui:domtool.obj
 0004:000008c8       ??_C@_04PPPK@bool?$AA@     100b08c8     qui:domtool.obj
 0004:000008d0       ??_C@_06BMEB@number?$AA@   100b08d0     qui:domtool.obj
 0004:000008d8       ??_C@_07EILE@cstring?$AA@  100b08d8     qui:domtool.obj
 0004:000008e4       ??_C@_07EBEE@comment?$AA@  100b08e4     qui:domtool.obj
 0004:000008f0       ??_C@_09NEOO@strikeout?$AA@ 100b08f0     qui:domtool.obj
 0004:000008fc       ??_C@_09FIDC@underline?$AA@ 100b08fc     qui:domtool.obj
 0004:00000908       ??_C@_06HLAH@italic?$AA@   100b0908     qui:domtool.obj
 0004:00000910       ??_C@_04JALN@bold?$AA@     100b0910     qui:domtool.obj
 0004:00000918       ??_C@_09FNCI@pointsize?$AA@ 100b0918     qui:domtool.obj
 0004:00000924       ??_C@_06FNPB@family?$AA@   100b0924     qui:domtool.obj
 0004:0000092c       ??_C@_04IBNA@font?$AA@     100b092c     qui:domtool.obj
 0004:00000934       ??_C@_04LLHI@size?$AA@     100b0934     qui:domtool.obj
 0004:0000093c       ??_C@_05GNMO@point?$AA@    100b093c     qui:domtool.obj
 0004:00000944       ??_C@_06OKPG@height?$AA@   100b0944     qui:domtool.obj
 0004:0000094c       ??_C@_05PNBN@width?$AA@    100b094c     qui:domtool.obj
 0004:00000954       ??_C@_01KAHP@y?$AA@        100b0954     qui:domtool.obj
 0004:00000958       ??_C@_01KOI@x?$AA@         100b0958     qui:domtool.obj
 0004:0000095c       ??_C@_04IMHF@rect?$AA@     100b095c     qui:domtool.obj
 0004:00000964       ??_C@_04FEG@blue?$AA@      100b0964     qui:domtool.obj
 0004:0000096c       ??_C@_05DOGI@green?$AA@    100b096c     qui:domtool.obj
 0004:00000974       ??_C@_03CMLD@red?$AA@      100b0974     qui:domtool.obj
 0004:00000978       ??_C@_06LIL@stdset?$AA@    100b0978     qui:domtool.obj
 0004:00000980       ??_C@_09EHHF@stdsetdef?$AA@ 100b0980     qui:domtool.obj
 0004:0000098c       ??_C@_07BPOH@version?$AA@  100b098c     qui:domtool.obj
 0004:00000998       ??_C@_02NHOD@UI?$AA@       100b0998     qui:domtool.obj
 0004:0000099c       ??_C@_0BB@FLKJ@DatabaseSupport2?$AA@ 100b099c     qui:moc_database2.obj
 0004:000009b0       ___security_cookie         100b09b0     MSVCRTD:gs_cookie.obj
 0004:000009b4       ___security_cookie_complement 100b09b4     MSVCRTD:gs_cookie.obj
 0004:000009c0       ?_RTC_ErrorLevels@@3PAHA   100b09c0     MSVCRTD:error.obj
 0004:000009e0       ___native_dllmain_reason   100b09e0     MSVCRTD:natstart.obj
 0004:00000b6c       ??_R0?AUQShared@@@8        100b0b6c     bncs_client_runtime.obj
 0004:00000b88       ??_R0?AVQGList@@@8         100b0b88     bncs_client_runtime.obj
 0004:00000ba4       ??_R0?AVQPtrCollection@@@8 100b0ba4     bncs_client_runtime.obj
 0004:00000bc8       ??_R0?AVerror_category@std@@@8 100b0bc8     bncs_client_runtime.obj
 0004:00000bf0       ??_R0?AV_Generic_error_category@std@@@8 100b0bf0     bncs_client_runtime.obj
 0004:00000c24       ??_R0?AV_Iostream_error_category@std@@@8 100b0c24     bncs_client_runtime.obj
 0004:00000c58       ??_R0?AV_System_error_category@std@@@8 100b0c58     bncs_client_runtime.obj
 0004:00000c8c       ??_R0?AVsignalConnectionRefList@@@8 100b0c8c     bncs_client_runtime.obj
 0004:00000cbc       ??_R0?AV?$QPtrList@VsignalConnection@@@@@8 100b0cbc     bncs_client_runtime.obj
 0004:00000cf4       ??_R0?AVIdCWlimits@@@8     100b0cf4     bncs_client_runtime.obj
 0004:00000d14       ??_R0?AVdCW@@@8            100b0d14     bncs_client_runtime.obj
 0004:00000d2c       ??_R0?AVIccTimerCallback@@@8 100b0d2c     bncs_client_runtime.obj
 0004:00000d54       ??_R0?AVbncs_client_runtime@@@8 100b0d54     bncs_client_runtime.obj
 0004:00000d7c       ??_R0?AVQWidget@@@8        100b0d7c     bncs_client_runtime.obj
 0004:00000d98       ??_R0?AVQObject@@@8        100b0d98     bncs_client_runtime.obj
 0004:00000db4       ??_R0?AVQt@@@8             100b0db4     bncs_client_runtime.obj
 0004:00000dc8       ??_R0?AVQPaintDevice@@@8   100b0dc8     bncs_client_runtime.obj
 0004:00000de8       ??_R0?AV?$QValueListPrivate@VparamInfo@@@@@8 100b0de8     bncs_client_runtime.obj
 0004:00000e20       ??_R0?AV?$QValueListNode@VparamInfo@@@@@8 100b0e20     bncs_client_runtime.obj
 0004:00000e54       ??_R0?AV?$QValueListPrivate@VcomplexParam@@@@@8 100b0e54     bncs_client_runtime.obj
 0004:00000e90       ??_R0?AV?$QValueListNode@VcomplexParam@@@@@8 100b0e90     bncs_client_runtime.obj
 0004:00000ec8       ??_R0?AV?$QValueListPrivate@VcomplexInstance@@@@@8 100b0ec8     bncs_client_runtime.obj
 0004:00000f08       ??_R0?AV?$QValueListNode@VcomplexInstance@@@@@8 100b0f08     bncs_client_runtime.obj
 0004:00000f44       ??_R0?AV?$QValueListPrivate@VinstanceInfo@@@@@8 100b0f44     bncs_client_runtime.obj
 0004:00000f80       ??_R0?AV?$QValueListNode@VinstanceInfo@@@@@8 100b0f80     bncs_client_runtime.obj
 0004:00000fb8       ??_R0?AV?$QValueListPrivate@VdeviceTypeInfo@@@@@8 100b0fb8     bncs_client_runtime.obj
 0004:00000ff8       ??_R0?AV?$QValueListNode@VdeviceTypeInfo@@@@@8 100b0ff8     bncs_client_runtime.obj
 0004:00001034       ??_R0?AV?$QValueListPrivate@VcomplexType@@@@@8 100b1034     bncs_client_runtime.obj
 0004:00001070       ??_R0?AV?$QValueListNode@VcomplexType@@@@@8 100b1070     bncs_client_runtime.obj
 0004:000010a8       ??_R0?AVccTimer@@@8        100b10a8     ccTimer.obj
 0004:000010c4       ??_R0?AVconnectionDebugDlg@@@8 100b10c4     connectiondebugdlgimpl.obj
 0004:000010ec       ??_R0?AVconnectionDebugDlgBase@@@8 100b10ec     connectiondebugdlgimpl.obj
 0004:00001118       ??_R0?AVQDialog@@@8        100b1118     connectiondebugdlgimpl.obj
 0004:00001134       ??_R0?AVQDomDocument@@@8   100b1134     dCW.obj
