 bncs_style

 Timestamp is 56ddfe76 (Mon Mar 07 22:19:34 2016)

 Preferred load address is 10000000

 Start         Length     Name                   Class
 0001:00000000 00003eb4H .text                   CODE
 0001:00003ec0 000007e5H .text$x                 CODE
 0002:00000000 00000240H .idata$5                DATA
 0002:00000240 0000012cH .rdata                  DATA
 0002:00000370 00000600H .xdata$x                DATA
 0002:00000970 0000003cH .idata$2                DATA
 0002:000009ac 00000014H .idata$3                DATA
 0002:000009c0 00000240H .idata$4                DATA
 0002:00000c00 000017f2H .idata$6                DATA
 0002:00002400 0000066aH .edata                  DATA
 0003:00000000 00000004H .CRT$XCA                DATA
 0003:00000004 00000004H .CRT$XCU                DATA
 0003:00000008 00000004H .CRT$XCZ                DATA
 0003:0000000c 00000004H .CRT$XIA                DATA
 0003:00000010 00000004H .CRT$XIZ                DATA
 0003:00000020 00009d10H .data                   DATA
 0003:00009d30 0000001cH .bss                    DATA
 0004:00000000 00000058H .rsrc$01                DATA
 0004:00000060 000004a8H .rsrc$02                DATA

  Address         Publics by Value              Rva+Base     Lib:Object

 0001:00000000       ?metaObject@bncs_style@@UBEPAVQMetaObject@@XZ 10001000 f i bncs_style.obj
 0001:00000010       ?qObject@bncs_style@@QAEPAVQObject@@XZ 10001010 f i bncs_style.obj
 0001:00000020       ??0bncs_style@@QAE@ABV0@@Z 10001020 f i bncs_style.obj
 0001:00000250       ??4bncs_style@@QAEAAV0@ABV0@@Z 10001250 f i bncs_style.obj
 0001:000003e0       ??_Fbncs_style@@QAEXXZ     100013e0 f i bncs_style.obj
 0001:000003f0       ??_Ebncs_style@@UAEPAXI@Z  100013f0 f i bncs_style.obj
 0001:00000450       ??0bncs_style@@QAE@H@Z     10001450 f   bncs_style.obj
 0001:00000a10       ?path@global@@SA?AVQString@@XZ 10001a10 f i bncs_style.obj
 0001:00000af0       ??1bncs_style@@UAE@XZ      10001af0 f   bncs_style.obj
 0001:00000c20       ?drawControl@bncs_style@@UBEXW4ControlElement@QStyle@@PAVQPainter@@PBVQWidget@@ABVQRect@@ABVQColorGroup@@IABVQStyleOption@@@Z 10001c20 f   bncs_style.obj
 0001:00001db0       ?drawControlMask@bncs_style@@UBEXW4ControlElement@QStyle@@PAVQPainter@@PBVQWidget@@ABVQRect@@ABVQStyleOption@@@Z 10002db0 f   bncs_style.obj
 0001:00001f50       ?polish@bncs_style@@UAEXPAVQApplication@@@Z 10002f50 f   bncs_style.obj
 0001:00002030       ?polish@bncs_style@@UAEXPAVQWidget@@@Z 10003030 f   bncs_style.obj
 0001:000021e0       ?createFontAndPalette@bncs_style@@AAEXXZ 100031e0 f   bncs_style.obj
 0001:000030c0       ?unPolish@bncs_style@@UAEXPAVQApplication@@@Z 100040c0 f   bncs_style.obj
 0001:000030f0       ?unPolish@bncs_style@@UAEXPAVQWidget@@@Z 100040f0 f   bncs_style.obj
 0001:00003170       ?pixelMetric@bncs_style@@UBEHW4PixelMetric@QStyle@@PBVQWidget@@@Z 10004170 f   bncs_style.obj
 0001:000031c0       ?subRect@bncs_style@@UBE?AVQRect@@W4SubRect@QStyle@@PBVQWidget@@@Z 100041c0 f   bncs_style.obj
 0001:00003290       ?create@BNCSStylePlugin@@UAEPAVQStyle@@ABVQString@@@Z 10004290 f   plugin.obj
 0001:00003440       ?keys@BNCSStylePlugin@@UBE?AVQStringList@@XZ 10004440 f   plugin.obj
 0001:000036b0       _qt_ucm_query_verification_data 100046b0 f   plugin.obj
 0001:000036c0       _ucm_instantiate           100046c0 f   plugin.obj
 0001:00003700       ??_EBNCSStylePlugin@@UAEPAXI@Z 10004700 f i plugin.obj
 0001:00003700       ??_GBNCSStylePlugin@@UAEPAXI@Z 10004700 f i plugin.obj
 0001:00003720       ??1BNCSStylePlugin@@UAE@XZ 10004720 f i plugin.obj
 0001:00003730       ??0?$QValueListPrivate@VQString@@@@QAE@XZ 10004730 f i plugin.obj
 0001:000037d0       ??_G?$QValueListNode@VQString@@@@UAEPAXI@Z 100047d0 f i plugin.obj
 0001:000037d0       ??_E?$QValueListNode@VQString@@@@UAEPAXI@Z 100047d0 f i plugin.obj
 0001:000037f0       ??1?$QValueListNode@VQString@@@@UAE@XZ 100047f0 f i plugin.obj
 0001:00003820       ?insert@?$QValueListPrivate@VQString@@@@QAE?AV?$QValueListIterator@VQString@@@@V2@ABVQString@@@Z 10004820 f i plugin.obj
 0001:000038a0       ??_G?$QValueListPrivate@VQString@@@@UAEPAXI@Z 100048a0 f i plugin.obj
 0001:000038a0       ??_E?$QValueListPrivate@VQString@@@@UAEPAXI@Z 100048a0 f i plugin.obj
 0001:000038f0       ?className@bncs_style@@UBEPBDXZ 100048f0 f   moc_bncs_style.obj
 0001:00003950       ?tr@bncs_style@@SA?AVQString@@PBD0@Z 10004950 f   moc_bncs_style.obj
 0001:000039a0       ?trUtf8@bncs_style@@SA?AVQString@@PBD0@Z 100049a0 f   moc_bncs_style.obj
 0001:000039f0       ?staticMetaObject@bncs_style@@SAPAVQMetaObject@@XZ 100049f0 f   moc_bncs_style.obj
 0001:00003a40       ?qt_cast@bncs_style@@UAEPAXPBD@Z 10004a40 f   moc_bncs_style.obj
 0001:00003ab0       ?qt_invoke@bncs_style@@UAE_NHPAUQUObject@@@Z 10004ab0 f   moc_bncs_style.obj
 0001:00003ad0       ?qt_emit@bncs_style@@UAE_NHPAUQUObject@@@Z 10004ad0 f   moc_bncs_style.obj
 0001:00003af0       ?qt_property@bncs_style@@UAE_NHHPAVQVariant@@@Z 10004af0 f   moc_bncs_style.obj
 0001:00003b10       ?qt_static_property@bncs_style@@SA_NPAVQObject@@HHPAVQVariant@@@Z 10004b10 f   moc_bncs_style.obj
 0001:00003b20       ?stylePixmap@QWindowsStyle@@UBE?AVQPixmap@@W4StylePixmap@QStyle@@PBVQWidget@@ABVQStyleOption@@@Z 10004b20 f   qt-mt323:qt-mt323.dll
 0001:00003b26       ?styleHint@QWindowsStyle@@UBEHW4StyleHint@QStyle@@PBVQWidget@@ABVQStyleOption@@PAVQStyleHintReturn@@@Z 10004b26 f   qt-mt323:qt-mt323.dll
 0001:00003b2c       ?sizeFromContents@QWindowsStyle@@UBE?AVQSize@@W4ContentsType@QStyle@@PBVQWidget@@ABV2@ABVQStyleOption@@@Z 10004b2c f   qt-mt323:qt-mt323.dll
 0001:00003b32       ?querySubControl@QCommonStyle@@UBE?AW4SubControl@QStyle@@W4ComplexControl@3@PBVQWidget@@ABVQPoint@@ABVQStyleOption@@@Z 10004b32 f   qt-mt323:qt-mt323.dll
 0001:00003b38       ?querySubControlMetrics@QCommonStyle@@UBE?AVQRect@@W4ComplexControl@QStyle@@PBVQWidget@@W4SubControl@4@ABVQStyleOption@@@Z 10004b38 f   qt-mt323:qt-mt323.dll
 0001:00003b3e       ?drawComplexControlMask@QCommonStyle@@UBEXW4ComplexControl@QStyle@@PAVQPainter@@PBVQWidget@@ABVQRect@@ABVQStyleOption@@@Z 10004b3e f   qt-mt323:qt-mt323.dll
 0001:00003b44       ?drawComplexControl@QWindowsStyle@@UBEXW4ComplexControl@QStyle@@PAVQPainter@@PBVQWidget@@ABVQRect@@ABVQColorGroup@@IIIABVQStyleOption@@@Z 10004b44 f   qt-mt323:qt-mt323.dll
 0001:00003b4a       ?drawPrimitive@QWindowsStyle@@UBEXW4PrimitiveElement@QStyle@@PAVQPainter@@ABVQRect@@ABVQColorGroup@@IABVQStyleOption@@@Z 10004b4a f   qt-mt323:qt-mt323.dll
 0001:00003b50       ?drawItem@QStyle@@UBEXPAVQPainter@@ABVQRect@@HABVQColorGroup@@_NPBVQPixmap@@ABVQString@@HPBVQColor@@@Z 10004b50 f   qt-mt323:qt-mt323.dll
 0001:00003b56       ?itemRect@QStyle@@UBE?AVQRect@@PAVQPainter@@ABV2@H_NPBVQPixmap@@ABVQString@@H@Z 10004b56 f   qt-mt323:qt-mt323.dll
 0001:00003b5c       ?polishPopupMenu@QWindowsStyle@@UAEXPAVQPopupMenu@@@Z 10004b5c f   qt-mt323:qt-mt323.dll
 0001:00003b62       ?polish@QStyle@@UAEXAAVQPalette@@@Z 10004b62 f   qt-mt323:qt-mt323.dll
 0001:00003b68       ?checkConnectArgs@QObject@@MAE_NPBDPBV1@0@Z 10004b68 f   qt-mt323:qt-mt323.dll
 0001:00003b6e       ?disconnectNotify@QObject@@MAEXPBD@Z 10004b6e f   qt-mt323:qt-mt323.dll
 0001:00003b74       ?connectNotify@QObject@@MAEXPBD@Z 10004b74 f   qt-mt323:qt-mt323.dll
 0001:00003b7a       ?customEvent@QObject@@MAEXPAVQCustomEvent@@@Z 10004b7a f   qt-mt323:qt-mt323.dll
 0001:00003b80       ?childEvent@QObject@@MAEXPAVQChildEvent@@@Z 10004b80 f   qt-mt323:qt-mt323.dll
 0001:00003b86       ?timerEvent@QObject@@MAEXPAVQTimerEvent@@@Z 10004b86 f   qt-mt323:qt-mt323.dll
 0001:00003b8c       ?property@QObject@@UBE?AVQVariant@@PBD@Z 10004b8c f   qt-mt323:qt-mt323.dll
 0001:00003b92       ?setProperty@QObject@@UAE_NPBDABVQVariant@@@Z 10004b92 f   qt-mt323:qt-mt323.dll
 0001:00003b98       ?removeChild@QObject@@UAEXPAV1@@Z 10004b98 f   qt-mt323:qt-mt323.dll
 0001:00003b9e       ?insertChild@QObject@@UAEXPAV1@@Z 10004b9e f   qt-mt323:qt-mt323.dll
 0001:00003ba4       ?setName@QObject@@UAEXPBD@Z 10004ba4 f   qt-mt323:qt-mt323.dll
 0001:00003baa       ?eventFilter@QObject@@UAE_NPAV1@PAVQEvent@@@Z 10004baa f   qt-mt323:qt-mt323.dll
 0001:00003bb0       ?event@QObject@@UAE_NPAVQEvent@@@Z 10004bb0 f   qt-mt323:qt-mt323.dll
 0001:00003bb6       ?qt_property@QStylePlugin@@UAE_NHHPAVQVariant@@@Z 10004bb6 f   qt-mt323:qt-mt323.dll
 0001:00003bbc       ?qt_emit@QStylePlugin@@UAE_NHPAUQUObject@@@Z 10004bbc f   qt-mt323:qt-mt323.dll
 0001:00003bc2       ?qt_invoke@QStylePlugin@@UAE_NHPAUQUObject@@@Z 10004bc2 f   qt-mt323:qt-mt323.dll
 0001:00003bc8       ?qt_cast@QStylePlugin@@UAEPAXPBD@Z 10004bc8 f   qt-mt323:qt-mt323.dll
 0001:00003bce       ?className@QStylePlugin@@UBEPBDXZ 10004bce f   qt-mt323:qt-mt323.dll
 0001:00003bd4       ?metaObject@QStylePlugin@@UBEPAVQMetaObject@@XZ 10004bd4 f   qt-mt323:qt-mt323.dll
 0001:00003bda       ??3@YAXPAX@Z               10004bda f   msvcprt:delop_s.obj
 0001:00003be6       ___CxxFrameHandler         10004be6 f   MSVCRT:MSVCRT.dll
 0001:00003bf0       ??_M@YGXPAXIHP6EX0@Z@Z     10004bf0 f   MSVCRT:ehvecdtr.obj
 0001:00003c70       ?__ArrayUnwind@@YGXPAXIHP6EX0@Z@Z 10004c70 f   MSVCRT:ehvecdtr.obj
 0001:00003ce4       __ftol                     10004ce4 f   MSVCRT:MSVCRT.dll
 0001:00003cea       ??2@YAPAXI@Z               10004cea f   MSVCRT:MSVCRT.dll
 0001:00003cf0       __onexit                   10004cf0 f   MSVCRT:atonexit.obj
 0001:00003d1c       _atexit                    10004d1c f   MSVCRT:atonexit.obj
 0001:00003d2e       __CRT_INIT@12              10004d2e f   MSVCRT:crtdll.obj
 0001:00003dd9       __DllMainCRTStartup@12     10004dd9 f   MSVCRT:crtdll.obj
 0001:00003e76       _free                      10004e76 f   MSVCRT:MSVCRT.dll
 0001:00003e7c       __except_handler3          10004e7c f   MSVCRT:MSVCRT.dll
 0001:00003e82       ?terminate@@YAXXZ          10004e82 f   MSVCRT:MSVCRT.dll
 0001:00003e88       ___dllonexit               10004e88 f   MSVCRT:MSVCRT.dll
 0001:00003e8e       __initterm                 10004e8e f   MSVCRT:MSVCRT.dll
 0001:00003e94       _DllMain@12                10004e94 f   MSVCRT:dllmain.obj
 0002:00000000       __imp__GetPrivateProfileStringA@24 10006000     kernel32:KERNEL32.dll
 0002:00000004       __imp__DisableThreadLibraryCalls@4 10006004     kernel32:KERNEL32.dll
 0002:00000008       \177KERNEL32_NULL_THUNK_DATA 10006008     kernel32:KERNEL32.dll
 0002:0000000c       __imp__malloc              1000600c     MSVCRT:MSVCRT.dll
 0002:00000010       __imp___initterm           10006010     MSVCRT:MSVCRT.dll
 0002:00000014       __imp___onexit             10006014     MSVCRT:MSVCRT.dll
 0002:00000018       __imp____dllonexit         10006018     MSVCRT:MSVCRT.dll
 0002:0000001c       __imp_?terminate@@YAXXZ    1000601c     MSVCRT:MSVCRT.dll
 0002:00000020       __imp___except_handler3    10006020     MSVCRT:MSVCRT.dll
 0002:00000024       __imp__free                10006024     MSVCRT:MSVCRT.dll
 0002:00000028       __imp_??2@YAPAXI@Z         10006028     MSVCRT:MSVCRT.dll
 0002:0000002c       __imp__atoi                1000602c     MSVCRT:MSVCRT.dll
 0002:00000030       __imp___ftol               10006030     MSVCRT:MSVCRT.dll
 0002:00000034       __imp__getenv              10006034     MSVCRT:MSVCRT.dll
 0002:00000038       __imp____CxxFrameHandler   10006038     MSVCRT:MSVCRT.dll
 0002:0000003c       __imp___adjust_fdiv        1000603c     MSVCRT:MSVCRT.dll
 0002:00000040       \177MSVCRT_NULL_THUNK_DATA 10006040     MSVCRT:MSVCRT.dll
 0002:00000044       __imp_?timerEvent@QObject@@MAEXPAVQTimerEvent@@@Z 10006044     qt-mt323:qt-mt323.dll
 0002:00000048       __imp_?property@QObject@@UBE?AVQVariant@@PBD@Z 10006048     qt-mt323:qt-mt323.dll
 0002:0000004c       __imp_?setProperty@QObject@@UAE_NPBDABVQVariant@@@Z 1000604c     qt-mt323:qt-mt323.dll
 0002:00000050       __imp_?removeChild@QObject@@UAEXPAV1@@Z 10006050     qt-mt323:qt-mt323.dll
 0002:00000054       __imp_?insertChild@QObject@@UAEXPAV1@@Z 10006054     qt-mt323:qt-mt323.dll
 0002:00000058       __imp_?setName@QObject@@UAEXPBD@Z 10006058     qt-mt323:qt-mt323.dll
 0002:0000005c       __imp_?eventFilter@QObject@@UAE_NPAV1@PAVQEvent@@@Z 1000605c     qt-mt323:qt-mt323.dll
 0002:00000060       __imp_?event@QObject@@UAE_NPAVQEvent@@@Z 10006060     qt-mt323:qt-mt323.dll
 0002:00000064       __imp_??1QPixmap@@UAE@XZ   10006064     qt-mt323:qt-mt323.dll
 0002:00000068       __imp_??1QFont@@QAE@XZ     10006068     qt-mt323:qt-mt323.dll
 0002:0000006c       __imp_??1QPalette@@QAE@XZ  1000606c     qt-mt323:qt-mt323.dll
 0002:00000070       __imp_??1QWindowsStyle@@UAE@XZ 10006070     qt-mt323:qt-mt323.dll
 0002:00000074       __imp_??0QColor@@QAE@ABV0@@Z 10006074     qt-mt323:qt-mt323.dll
 0002:00000078       __imp_??0QPixmap@@QAE@ABV0@@Z 10006078     qt-mt323:qt-mt323.dll
 0002:0000007c       __imp_??0QFont@@QAE@ABV0@@Z 1000607c     qt-mt323:qt-mt323.dll
 0002:00000080       __imp_??0QPalette@@QAE@ABV0@@Z 10006080     qt-mt323:qt-mt323.dll
 0002:00000084       __imp_??_7QWindowsStyle@@6B@ 10006084     qt-mt323:qt-mt323.dll
 0002:00000088       __imp_??_7QCommonStyle@@6B@ 10006088     qt-mt323:qt-mt323.dll
 0002:0000008c       __imp_??_7QStyle@@6B@      1000608c     qt-mt323:qt-mt323.dll
 0002:00000090       __imp_??_7QObject@@6B@     10006090     qt-mt323:qt-mt323.dll
 0002:00000094       __imp_??4QColor@@QAEAAV0@ABV0@@Z 10006094     qt-mt323:qt-mt323.dll
 0002:00000098       __imp_??4QPixmap@@QAEAAV0@ABV0@@Z 10006098     qt-mt323:qt-mt323.dll
 0002:0000009c       __imp_??4QFont@@QAEAAV0@ABV0@@Z 1000609c     qt-mt323:qt-mt323.dll
 0002:000000a0       __imp_??4QPalette@@QAEAAV0@ABV0@@Z 100060a0     qt-mt323:qt-mt323.dll
 0002:000000a4       __imp_??1QString@@QAE@XZ   100060a4     qt-mt323:qt-mt323.dll
 0002:000000a8       __imp_??0QPixmap@@QAE@QAPBD@Z 100060a8     qt-mt323:qt-mt323.dll
 0002:000000ac       __imp_??0QColor@@QAE@PBD@Z 100060ac     qt-mt323:qt-mt323.dll
 0002:000000b0       __imp_?ascii@QString@@QBEPBDXZ 100060b0     qt-mt323:qt-mt323.dll
 0002:000000b4       __imp_?deleteSelf@QStringData@@QAEXXZ 100060b4     qt-mt323:qt-mt323.dll
 0002:000000b8       __imp_?shared_null@QString@@0PAUQStringData@@A 100060b8     qt-mt323:qt-mt323.dll
 0002:000000bc       __imp_??0QPixmap@@QAE@ABVQString@@PBDW4ColorMode@0@@Z 100060bc     qt-mt323:qt-mt323.dll
 0002:000000c0       __imp_??H@YA?BVQString@@ABV0@PBD@Z 100060c0     qt-mt323:qt-mt323.dll
 0002:000000c4       __imp_??0QPixmap@@QAE@XZ   100060c4     qt-mt323:qt-mt323.dll
 0002:000000c8       __imp_??0QFont@@QAE@XZ     100060c8     qt-mt323:qt-mt323.dll
 0002:000000cc       __imp_??0QPalette@@QAE@XZ  100060cc     qt-mt323:qt-mt323.dll
 0002:000000d0       __imp_??0QWindowsStyle@@QAE@XZ 100060d0     qt-mt323:qt-mt323.dll
 0002:000000d4       __imp_??0QString@@QAE@PBD@Z 100060d4     qt-mt323:qt-mt323.dll
 0002:000000d8       __imp_?drawControl@QWindowsStyle@@UBEXW4ControlElement@QStyle@@PAVQPainter@@PBVQWidget@@ABVQRect@@ABVQColorGroup@@IABVQStyleOption@@@Z 100060d8     qt-mt323:qt-mt323.dll
 0002:000000dc       __imp_?drawPixmap@QPainter@@QAEXHHABVQPixmap@@HHHH@Z 100060dc     qt-mt323:qt-mt323.dll
 0002:000000e0       __imp_?drawPixmap@QPainter@@QAEXABVQRect@@ABVQPixmap@@@Z 100060e0     qt-mt323:qt-mt323.dll
 0002:000000e4       __imp_?brush@QColorGroup@@QBEABVQBrush@@W4ColorRole@1@@Z 100060e4     qt-mt323:qt-mt323.dll
 0002:000000e8       __imp_?white@Qt@@2AAVQColor@@A 100060e8     qt-mt323:qt-mt323.dll
 0002:000000ec       __imp_?drawRoundRect@QPainter@@QAEXHHHHHH@Z 100060ec     qt-mt323:qt-mt323.dll
 0002:000000f0       __imp_?setBrush@QPainter@@QAEXABVQBrush@@@Z 100060f0     qt-mt323:qt-mt323.dll
 0002:000000f4       __imp_?drawPoint@QPainter@@QAEXHH@Z 100060f4     qt-mt323:qt-mt323.dll
 0002:000000f8       __imp_??1QBrush@@QAE@XZ    100060f8     qt-mt323:qt-mt323.dll
 0002:000000fc       __imp_?fillRect@QPainter@@QAEXHHHHABVQBrush@@@Z 100060fc     qt-mt323:qt-mt323.dll
 0002:00000100       __imp_??0QBrush@@QAE@ABVQColor@@W4BrushStyle@Qt@@@Z 10006100     qt-mt323:qt-mt323.dll
 0002:00000104       __imp_??1QPen@@QAE@XZ      10006104     qt-mt323:qt-mt323.dll
 0002:00000108       __imp_?setPen@QPainter@@QAEXABVQPen@@@Z 10006108     qt-mt323:qt-mt323.dll
 0002:0000010c       __imp_??0QPen@@QAE@ABVQColor@@IW4PenStyle@Qt@@@Z 1000610c     qt-mt323:qt-mt323.dll
 0002:00000110       __imp_?drawLine@QPainter@@QAEXHHHH@Z 10006110     qt-mt323:qt-mt323.dll
 0002:00000114       __imp_?setWidth@QRect@@QAEXH@Z 10006114     qt-mt323:qt-mt323.dll
 0002:00000118       __imp_?setHeight@QRect@@QAEXH@Z 10006118     qt-mt323:qt-mt323.dll
 0002:0000011c       __imp_?light@QColor@@QBE?AV1@H@Z 1000611c     qt-mt323:qt-mt323.dll
 0002:00000120       __imp_?setPen@QPainter@@QAEXABVQColor@@@Z 10006120     qt-mt323:qt-mt323.dll
 0002:00000124       __imp_?black@Qt@@2AAVQColor@@A 10006124     qt-mt323:qt-mt323.dll
 0002:00000128       __imp_?drawControlMask@QCommonStyle@@UBEXW4ControlElement@QStyle@@PAVQPainter@@PBVQWidget@@ABVQRect@@ABVQStyleOption@@@Z 10006128     qt-mt323:qt-mt323.dll
 0002:0000012c       __imp_?childEvent@QObject@@MAEXPAVQChildEvent@@@Z 1000612c     qt-mt323:qt-mt323.dll
 0002:00000130       __imp_?setFont@QApplication@@SAXABVQFont@@_NPBD@Z 10006130     qt-mt323:qt-mt323.dll
 0002:00000134       __imp_?font@QApplication@@SA?AVQFont@@PBVQWidget@@@Z 10006134     qt-mt323:qt-mt323.dll
 0002:00000138       __imp_?palette@QApplication@@SA?AVQPalette@@PBVQWidget@@@Z 10006138     qt-mt323:qt-mt323.dll
 0002:0000013c       __imp_??8QPalette@@QBE_NABV0@@Z 1000613c     qt-mt323:qt-mt323.dll
 0002:00000140       __imp_??8QFont@@QBE_NABV0@@Z 10006140     qt-mt323:qt-mt323.dll
 0002:00000144       __imp_?font@QWidget@@QBE?AVQFont@@XZ 10006144     qt-mt323:qt-mt323.dll
 0002:00000148       __imp_?polish@QStyle@@UAEXPAVQWidget@@@Z 10006148     qt-mt323:qt-mt323.dll
 0002:0000014c       __imp_?name@QObject@@QBEPBDXZ 1000614c     qt-mt323:qt-mt323.dll
 0002:00000150       __imp_?qApp@@3PAVQApplication@@A 10006150     qt-mt323:qt-mt323.dll
 0002:00000154       __imp_?setWeight@QFont@@QAEXH@Z 10006154     qt-mt323:qt-mt323.dll
 0002:00000158       __imp_?setColor@QPalette@@QAEXW4ColorGroup@1@W4ColorRole@QColorGroup@@ABVQColor@@@Z 10006158     qt-mt323:qt-mt323.dll
 0002:0000015c       __imp_?setRgb@QColor@@QAEXHHH@Z 1000615c     qt-mt323:qt-mt323.dll
 0002:00000160       __imp_??0QFont@@QAE@ABVQString@@HH_N@Z 10006160     qt-mt323:qt-mt323.dll
 0002:00000164       __imp_??0QBrush@@QAE@ABVQColor@@ABVQPixmap@@@Z 10006164     qt-mt323:qt-mt323.dll
 0002:00000168       __imp_?setBrush@QPalette@@QAEXW4ColorGroup@1@W4ColorRole@QColorGroup@@ABVQBrush@@@Z 10006168     qt-mt323:qt-mt323.dll
 0002:0000016c       __imp_??0QPalette@@QAE@ABVQColor@@@Z 1000616c     qt-mt323:qt-mt323.dll
 0002:00000170       __imp_?unPolish@QStyle@@UAEXPAVQWidget@@@Z 10006170     qt-mt323:qt-mt323.dll
 0002:00000174       __imp_?pixelMetric@QWindowsStyle@@UBEHW4PixelMetric@QStyle@@PBVQWidget@@@Z 10006174     qt-mt323:qt-mt323.dll
 0002:00000178       __imp_?subRect@QWindowsStyle@@UBE?AVQRect@@W4SubRect@QStyle@@PBVQWidget@@@Z 10006178     qt-mt323:qt-mt323.dll
 0002:0000017c       __imp_?addCoords@QRect@@QAEXHHHH@Z 1000617c     qt-mt323:qt-mt323.dll
 0002:00000180       __imp_?sliderRect@QSlider@@QBE?AVQRect@@XZ 10006180     qt-mt323:qt-mt323.dll
 0002:00000184       __imp_?inherits@QObject@@QBE_NPBD@Z 10006184     qt-mt323:qt-mt323.dll
 0002:00000188       __imp_??8@YA_NABVQString@@PBD@Z 10006188     qt-mt323:qt-mt323.dll
 0002:0000018c       __imp_??1QStringList@@QAE@XZ 1000618c     qt-mt323:qt-mt323.dll
 0002:00000190       __imp_?end@?$QValueList@VQString@@@@QAE?AV?$QValueListIterator@VQString@@@@XZ 10006190     qt-mt323:qt-mt323.dll
 0002:00000194       __imp_?detach@?$QValueList@VQString@@@@IAEXXZ 10006194     qt-mt323:qt-mt323.dll
 0002:00000198       __imp_?append@?$QValueList@VQString@@@@QAE?AV?$QValueListIterator@VQString@@@@ABVQString@@@Z 10006198     qt-mt323:qt-mt323.dll
 0002:0000019c       __imp_?qt_property@QStylePlugin@@UAE_NHHPAVQVariant@@@Z 1000619c     qt-mt323:qt-mt323.dll
 0002:000001a0       __imp_?qt_emit@QStylePlugin@@UAE_NHPAUQUObject@@@Z 100061a0     qt-mt323:qt-mt323.dll
 0002:000001a4       __imp_?qt_invoke@QStylePlugin@@UAE_NHPAUQUObject@@@Z 100061a4     qt-mt323:qt-mt323.dll
 0002:000001a8       __imp_?qt_cast@QStylePlugin@@UAEPAXPBD@Z 100061a8     qt-mt323:qt-mt323.dll
 0002:000001ac       __imp_?className@QStylePlugin@@UBEPBDXZ 100061ac     qt-mt323:qt-mt323.dll
 0002:000001b0       __imp_?metaObject@QStylePlugin@@UBEPAVQMetaObject@@XZ 100061b0     qt-mt323:qt-mt323.dll
 0002:000001b4       __imp_?iface@QGPlugin@@QAEPAUQUnknownInterface@@XZ 100061b4     qt-mt323:qt-mt323.dll
 0002:000001b8       __imp_??0QStylePlugin@@QAE@XZ 100061b8     qt-mt323:qt-mt323.dll
 0002:000001bc       __imp_??1QStylePlugin@@UAE@XZ 100061bc     qt-mt323:qt-mt323.dll
 0002:000001c0       __imp_?makeSharedNull@QString@@CAPAUQStringData@@XZ 100061c0     qt-mt323:qt-mt323.dll
 0002:000001c4       __imp_??0QString@@QAE@ABV0@@Z 100061c4     qt-mt323:qt-mt323.dll
 0002:000001c8       __imp_??0QMetaObjectCleanUp@@QAE@PBDP6APAVQMetaObject@@XZ@Z 100061c8     qt-mt323:qt-mt323.dll
 0002:000001cc       __imp_??1QMetaObjectCleanUp@@QAE@XZ 100061cc     qt-mt323:qt-mt323.dll
 0002:000001d0       __imp_?fromLatin1@QString@@SA?AV1@PBDH@Z 100061d0     qt-mt323:qt-mt323.dll
 0002:000001d4       __imp_?translate@QApplication@@QBE?AVQString@@PBD00W4Encoding@1@@Z 100061d4     qt-mt323:qt-mt323.dll
 0002:000001d8       __imp_?fromUtf8@QString@@SA?AV1@PBDH@Z 100061d8     qt-mt323:qt-mt323.dll
 0002:000001dc       __imp_?setMetaObject@QMetaObjectCleanUp@@QAEXAAPAVQMetaObject@@@Z 100061dc     qt-mt323:qt-mt323.dll
 0002:000001e0       __imp_?new_metaobject@QMetaObject@@SAPAV1@PBDPAV1@QBUQMetaData@@H2HQBVQMetaProperty@@HQBUQMetaEnum@@HQBUQClassInfo@@H@Z 100061e0     qt-mt323:qt-mt323.dll
 0002:000001e4       __imp_?staticMetaObject@QWindowsStyle@@SAPAVQMetaObject@@XZ 100061e4     qt-mt323:qt-mt323.dll
 0002:000001e8       __imp_?qt_cast@QWindowsStyle@@UAEPAXPBD@Z 100061e8     qt-mt323:qt-mt323.dll
 0002:000001ec       __imp_?qt_invoke@QWindowsStyle@@UAE_NHPAUQUObject@@@Z 100061ec     qt-mt323:qt-mt323.dll
 0002:000001f0       __imp_?qt_emit@QWindowsStyle@@UAE_NHPAUQUObject@@@Z 100061f0     qt-mt323:qt-mt323.dll
 0002:000001f4       __imp_?qt_property@QWindowsStyle@@UAE_NHHPAVQVariant@@@Z 100061f4     qt-mt323:qt-mt323.dll
 0002:000001f8       __imp_?customEvent@QObject@@MAEXPAVQCustomEvent@@@Z 100061f8     qt-mt323:qt-mt323.dll
 0002:000001fc       __imp_?connectNotify@QObject@@MAEXPBD@Z 100061fc     qt-mt323:qt-mt323.dll
 0002:00000200       __imp_?disconnectNotify@QObject@@MAEXPBD@Z 10006200     qt-mt323:qt-mt323.dll
 0002:00000204       __imp_?checkConnectArgs@QObject@@MAE_NPBDPBV1@0@Z 10006204     qt-mt323:qt-mt323.dll
 0002:00000208       __imp_?polish@QStyle@@UAEXAAVQPalette@@@Z 10006208     qt-mt323:qt-mt323.dll
 0002:0000020c       __imp_?polishPopupMenu@QWindowsStyle@@UAEXPAVQPopupMenu@@@Z 1000620c     qt-mt323:qt-mt323.dll
 0002:00000210       __imp_?itemRect@QStyle@@UBE?AVQRect@@PAVQPainter@@ABV2@H_NPBVQPixmap@@ABVQString@@H@Z 10006210     qt-mt323:qt-mt323.dll
 0002:00000214       __imp_?drawItem@QStyle@@UBEXPAVQPainter@@ABVQRect@@HABVQColorGroup@@_NPBVQPixmap@@ABVQString@@HPBVQColor@@@Z 10006214     qt-mt323:qt-mt323.dll
 0002:00000218       __imp_?drawPrimitive@QWindowsStyle@@UBEXW4PrimitiveElement@QStyle@@PAVQPainter@@ABVQRect@@ABVQColorGroup@@IABVQStyleOption@@@Z 10006218     qt-mt323:qt-mt323.dll
 0002:0000021c       __imp_?drawComplexControl@QWindowsStyle@@UBEXW4ComplexControl@QStyle@@PAVQPainter@@PBVQWidget@@ABVQRect@@ABVQColorGroup@@IIIABVQStyleOption@@@Z 1000621c     qt-mt323:qt-mt323.dll
 0002:00000220       __imp_?drawComplexControlMask@QCommonStyle@@UBEXW4ComplexControl@QStyle@@PAVQPainter@@PBVQWidget@@ABVQRect@@ABVQStyleOption@@@Z 10006220     qt-mt323:qt-mt323.dll
 0002:00000224       __imp_?querySubControlMetrics@QCommonStyle@@UBE?AVQRect@@W4ComplexControl@QStyle@@PBVQWidget@@W4SubControl@4@ABVQStyleOption@@@Z 10006224     qt-mt323:qt-mt323.dll
 0002:00000228       __imp_?sizeFromContents@QWindowsStyle@@UBE?AVQSize@@W4ContentsType@QStyle@@PBVQWidget@@ABV2@ABVQStyleOption@@@Z 10006228     qt-mt323:qt-mt323.dll
 0002:0000022c       __imp_?querySubControl@QCommonStyle@@UBE?AW4SubControl@QStyle@@W4ComplexControl@3@PBVQWidget@@ABVQPoint@@ABVQStyleOption@@@Z 1000622c     qt-mt323:qt-mt323.dll
 0002:00000230       __imp_?styleHint@QWindowsStyle@@UBEHW4StyleHint@QStyle@@PBVQWidget@@ABVQStyleOption@@PAVQStyleHintReturn@@@Z 10006230     qt-mt323:qt-mt323.dll
 0002:00000234       __imp_?setPalette@QApplication@@SAXABVQPalette@@_NPBD@Z 10006234     qt-mt323:qt-mt323.dll
 0002:00000238       __imp_?stylePixmap@QWindowsStyle@@UBE?AVQPixmap@@W4StylePixmap@QStyle@@PBVQWidget@@ABVQStyleOption@@@Z 10006238     qt-mt323:qt-mt323.dll
 0002:0000023c       \177qt-mt323_NULL_THUNK_DATA 1000623c     qt-mt323:qt-mt323.dll
 0002:00000240       ??_7bncs_style@@6B@        10006240     bncs_style.obj
 0002:000002e0       __real@4@4004c800000000000000 100062e0     bncs_style.obj
 0002:000002e8       __real@8@4005a000000000000000 100062e8     bncs_style.obj
 0002:000002f0       ??_7BNCSStylePlugin@@6B@   100062f0     plugin.obj
 0002:00000348       ??_7?$QValueListNode@VQString@@@@6B@ 10006348     plugin.obj
 0002:0000034c       ??_7?$QValueListPrivate@VQString@@@@6B@ 1000634c     plugin.obj
 0002:00000970       __IMPORT_DESCRIPTOR_qt-mt323 10006970     qt-mt323:qt-mt323.dll
 0002:00000984       __IMPORT_DESCRIPTOR_MSVCRT 10006984     MSVCRT:MSVCRT.dll
 0002:00000998       __IMPORT_DESCRIPTOR_KERNEL32 10006998     kernel32:KERNEL32.dll
 0002:000009ac       __NULL_IMPORT_DESCRIPTOR   100069ac     qt-mt323:qt-mt323.dll
 0003:00000000       ___xc_a                    10009000     MSVCRT:cinitexe.obj
 0003:00000008       ___xc_z                    10009008     MSVCRT:cinitexe.obj
 0003:0000000c       ___xi_a                    1000900c     MSVCRT:cinitexe.obj
 0003:00000010       ___xi_z                    10009010     MSVCRT:cinitexe.obj
 0003:00000c38       ??_C@_0CB@EHFN@?4d?4d?4d?4d?4d?4d?$CDx?4W?$CDg?$CDEQtQtQtQtQtQt@ 10009c38     bncs_style.obj
 0003:00000c5c       ??_C@_0CB@CAJA@?4e?4e?4e?4e?4e?4G?4W?4P?47?$CDg?$CDp?$CDDQtQtQtQt@ 10009c5c     bncs_style.obj
 0003:00000c80       ??_C@_0CB@IMDG@?4d?4d?4d?4d?4d?4d?$CDx?4O?$CDy?$CDz?$CDA?$CDB?$CDCQtQtQt@ 10009c80     bncs_style.obj
 0003:00000ca4       ??_C@_0CB@CPLH@?4c?4c?4p?4t?4z?$CDr?$CDs?4N?$CDt?4P?4Y?$CDu?$CDv?$CDwQtQt@ 10009ca4     bncs_style.obj
 0003:00000cc8       ??_C@_0CB@FDDH@?4b?4b?$CDh?$CDi?$CDj?$CDk?$CDk?$CDl?4U?$CDm?$CDn?4Y?$CDo?$CDp?$CDqQt@ 10009cc8     bncs_style.obj
 0003:00000cec       ??_C@_0CB@NELB@?4?$CD?4f?4h?49?$CD?4?4D?$CD?$CD?$CDa?$CDb?$CDc?$CDd?$CDe?47?$CDf?$CDgQt@ 10009cec     bncs_style.obj
 0003:00000d10       ??_C@_0CB@IIMB@?4Z?4g?40?41?42?43?4C?4K?4C?44?45?46?4G?4X?47?48@ 10009d10     bncs_style.obj
 0003:00000d34       ??_C@_0CB@JIJM@?4?$CD?4f?4Q?4a?4q?4v?4B?4I?4R?4S?4T?4U?4V?4W?4X?4Y@ 10009d34     bncs_style.obj
 0003:00000d58       ??_C@_0CB@OMDI@QtQtQtQtQt?4H?4I?4J?4I?4K?4L?4M?4N?4O?4P?4G@ 10009d58     bncs_style.obj
 0003:00000d7c       ??_C@_0CB@NEBP@QtQtQtQtQtQtQt?4A?4B?4C?4D?4y?4E?4F?4G?4F@ 10009d7c     bncs_style.obj
 0003:00000da0       ??_C@_0CB@OMNO@QtQtQtQtQtQtQt?4u?4v?4w?4x?4y?4z?4d?4e?4d@ 10009da0     bncs_style.obj
 0003:00000dc4       ??_C@_0CB@HHML@QtQtQtQtQtQtQtQt?4q?4r?4g?4s?4t?4d?4e?4d@ 10009dc4     bncs_style.obj
 0003:00000de8       ??_C@_0CB@JABJ@QtQtQtQtQtQtQtQt?4l?4m?4n?4o?4p?4d?4e?4d@ 10009de8     bncs_style.obj
 0003:00000e0c       ??_C@_0CB@OGNE@QtQtQtQtQtQtQtQt?4h?4i?4j?4k?4c?4d?4e?4d@ 10009e0c     bncs_style.obj
 0003:00000e30       ??_C@_0CB@NNBM@QtQtQtQtQtQtQtQt?4f?4g?4?$CD?4b?4c?4d?4e?4d@ 10009e30     bncs_style.obj
 0003:00000e54       ??_C@_0CB@FKEF@QtQtQtQtQtQtQtQt?4?$CD?4a?4?$CD?4b?4c?4d?4e?4d@ 10009e54     bncs_style.obj
 0003:00000e78       ??_C@_0N@PIJD@?4J?5c?5?$CD8080b3?$AA@ 10009e78     bncs_style.obj
 0003:00000e88       ??_C@_0N@LCCN@?4A?5c?5?$CD7b7bb0?$AA@ 10009e88     bncs_style.obj
 0003:00000e98       ??_C@_0N@GGE@?4I?5c?5?$CD7979af?$AA@ 10009e98     bncs_style.obj
 0003:00000ea8       ??_C@_0N@HHKA@?4B?5c?5?$CD7676ad?$AA@ 10009ea8     bncs_style.obj
 0003:00000eb8       ??_C@_0N@BHFI@?4R?5c?5?$CD7272aa?$AA@ 10009eb8     bncs_style.obj
 0003:00000ec8       ??_C@_0N@CFOO@?4v?5c?5?$CD6868a4?$AA@ 10009ec8     bncs_style.obj
 0003:00000ed8       ??_C@_0N@LNBH@?4K?5c?5?$CD6262a1?$AA@ 10009ed8     bncs_style.obj
 0003:00000ee8       ??_C@_0N@KHJJ@?4C?5c?5?$CD6060a0?$AA@ 10009ee8     bncs_style.obj
 0003:00000ef8       ??_C@_0N@NLIA@?4S?5c?5?$CD5f5f9f?$AA@ 10009ef8     bncs_style.obj
 0003:00000f08       ??_C@_0N@MAGF@?43?5c?5?$CD5e5e9e?$AA@ 10009f08     bncs_style.obj
 0003:00000f18       ??_C@_0N@DLJJ@?4w?5c?5?$CD5d5d9e?$AA@ 10009f18     bncs_style.obj
 0003:00000f28       ??_C@_0N@IJJO@?42?5c?5?$CD59599b?$AA@ 10009f28     bncs_style.obj
 0003:00000f38       ??_C@_0N@GIOA@?4r?5c?5?$CD57579a?$AA@ 10009f38     bncs_style.obj
 0003:00000f48       ??_C@_0N@JOEO@?4q?5c?5?$CD525297?$AA@ 10009f48     bncs_style.obj
 0003:00000f58       ??_C@_0N@CLOK@?41?5c?5?$CD515197?$AA@ 10009f58     bncs_style.obj
 0003:00000f68       ??_C@_0N@DOHE@?44?5c?5?$CD515195?$AA@ 10009f68     bncs_style.obj
 0003:00000f78       ??_C@_0N@EKCB@?4m?5c?5?$CD4f4f95?$AA@ 10009f78     bncs_style.obj
 0003:00000f88       ??_C@_0N@DJGL@?$CD?$CD?5c?5?$CD4d4d94?$AA@ 10009f88     bncs_style.obj
 0003:00000f98       ??_C@_0N@DFED@?4D?5c?5?$CD4c4c94?$AA@ 10009f98     bncs_style.obj
 0003:00000fa8       ??_C@_0N@JFNA@?4x?5c?5?$CD4b4b93?$AA@ 10009fa8     bncs_style.obj
 0003:00000fb8       ??_C@_0N@NOJN@?40?5c?5?$CD4a4a92?$AA@ 10009fb8     bncs_style.obj
 0003:00000fc8       ??_C@_0N@FFDO@?4i?5c?5?$CD494992?$AA@ 10009fc8     bncs_style.obj
 0003:00000fd8       ??_C@_0N@OBHK@?$CDa?5c?5?$CD494990?$AA@ 10009fd8     bncs_style.obj
 0003:00000fe8       ??_C@_0N@NLPP@?$CD?4?5c?5?$CD484891?$AA@ 10009fe8     bncs_style.obj
 0003:00000ff8       ??_C@_0N@ODGL@?4L?5c?5?$CD484890?$AA@ 10009ff8     bncs_style.obj
 0003:00001008       ??_C@_0N@GEEK@?4g?5c?5?$CD464690?$AA@ 1000a008     bncs_style.obj
 0003:00001018       ??_C@_0N@OIFG@?4a?5c?5?$CD45458f?$AA@ 1000a018     bncs_style.obj
 0003:00001028       ??_C@_0N@IIIP@?4Z?5c?5?$CD44448f?$AA@ 1000a028     bncs_style.obj
 0003:00001038       ??_C@_0N@CPIJ@?4l?5c?5?$CD43438e?$AA@ 1000a038     bncs_style.obj
 0003:00001048       ??_C@_0N@JGAG@?49?5c?5?$CD42428e?$AA@ 1000a048     bncs_style.obj
 0003:00001058       ??_C@_0N@KHPA@?$CDb?5c?5?$CD414189?$AA@ 1000a058     bncs_style.obj
 0003:00001068       ??_C@_0N@BDLA@?4n?5c?5?$CD40408c?$AA@ 1000a068     bncs_style.obj
 0003:00001078       ??_C@_0N@GGPD@?4T?5c?5?$CD404089?$AA@ 1000a078     bncs_style.obj
 0003:00001088       ??_C@_0N@LDNH@?4h?5c?5?$CD3d3d8b?$AA@ 1000a088     bncs_style.obj
 0003:00001098       ??_C@_0N@EHOK@?4j?5c?5?$CD3c3c8a?$AA@ 1000a098     bncs_style.obj
 0003:000010a8       ??_C@_0N@FME@?4f?5c?5?$CD3a3a89?$AA@ 1000a0a8     bncs_style.obj
 0003:000010b8       ??_C@_0N@HCEN@?4?$CD?5c?5?$CD393988?$AA@ 1000a0b8     bncs_style.obj
 0003:000010c8       ??_C@_0N@CNIK@?$CDk?5c?5?$CD31317e?$AA@ 1000a0c8     bncs_style.obj
 0003:000010d8       ??_C@_0N@BHEO@?4y?5c?5?$CD30307e?$AA@ 1000a0d8     bncs_style.obj
 0003:000010e8       ??_C@_0N@HJJD@?$CDc?5c?5?$CD303079?$AA@ 1000a0e8     bncs_style.obj
 0003:000010f8       ??_C@_0N@CBKH@?45?5c?5?$CD2f2f78?$AA@ 1000a0f8     bncs_style.obj
 0003:00001108       ??_C@_0N@LKGO@?$CDj?5c?5?$CD2e2e7d?$AA@ 1000a108     bncs_style.obj
 0003:00001118       ??_C@_0N@LOKB@?4s?5c?5?$CD2d2d7c?$AA@ 1000a118     bncs_style.obj
 0003:00001128       ??_C@_0N@KEBH@?$CDi?5c?5?$CD2b2b7b?$AA@ 1000a128     bncs_style.obj
 0003:00001138       ??_C@_0N@LJJA@?4o?5c?5?$CD29297a?$AA@ 1000a138     bncs_style.obj
 0003:00001148       ??_C@_0N@JGBB@?4M?5c?5?$CD282876?$AA@ 1000a148     bncs_style.obj
 0003:00001158       ??_C@_0N@GHML@?$CDl?5c?5?$CD282875?$AA@ 1000a158     bncs_style.obj
 0003:00001168       ??_C@_0N@PGJA@?4k?5c?5?$CD272779?$AA@ 1000a168     bncs_style.obj
 0003:00001178       ??_C@_0N@NGID@?$CDh?5c?5?$CD272778?$AA@ 1000a178     bncs_style.obj
 0003:00001188       ??_C@_0N@HMM@?4b?5c?5?$CD252577?$AA@ 1000a188     bncs_style.obj
 0003:00001198       ??_C@_0N@KDC@?4U?5c?5?$CD191964?$AA@ 1000a198     bncs_style.obj
 0003:000011a8       ??_C@_0N@IBAD@?$CDd?5c?5?$CD16165c?$AA@ 1000a1a8     bncs_style.obj
 0003:000011b8       ??_C@_0N@EJOM@?$CDr?5c?5?$CD0f0f5c?$AA@ 1000a1b8     bncs_style.obj
 0003:000011c8       ??_C@_0N@JPE@?$CDs?5c?5?$CD0f0f5b?$AA@ 1000a1c8     bncs_style.obj
 0003:000011d8       ??_C@_0N@LONC@?4z?5c?5?$CD0e0e5c?$AA@ 1000a1d8     bncs_style.obj
 0003:000011e8       ??_C@_0N@CMJA@?4E?5c?5?$CD0e0e5b?$AA@ 1000a1e8     bncs_style.obj
 0003:000011f8       ??_C@_0N@MNCI@?4t?5c?5?$CD0d0d5b?$AA@ 1000a1f8     bncs_style.obj
 0003:00001208       ??_C@_0N@EIAF@?46?5c?5?$CD0d0d54?$AA@ 1000a208     bncs_style.obj
 0003:00001218       ??_C@_0N@GCIB@?$CDm?5c?5?$CD0d0d52?$AA@ 1000a218     bncs_style.obj
 0003:00001228       ??_C@_0N@LJIM@?4p?5c?5?$CD0c0c5b?$AA@ 1000a228     bncs_style.obj
 0003:00001238       ??_C@_0N@CDGK@?4c?5c?5?$CD0b0b5a?$AA@ 1000a238     bncs_style.obj
 0003:00001248       ??_C@_0N@NGOE@?4N?5c?5?$CD0a0a55?$AA@ 1000a248     bncs_style.obj
 0003:00001258       ??_C@_0N@HAOG@?$CDe?5c?5?$CD040444?$AA@ 1000a258     bncs_style.obj
 0003:00001268       ??_C@_0N@EOON@?$CDn?5c?5?$CD040443?$AA@ 1000a268     bncs_style.obj
 0003:00001278       ??_C@_0N@NBIG@?4V?5c?5?$CD03034a?$AA@ 1000a278     bncs_style.obj
 0003:00001288       ??_C@_0N@LIHN@?$CDt?5c?5?$CD030349?$AA@ 1000a288     bncs_style.obj
 0003:00001298       ??_C@_0N@BJFG@?4d?5c?5?$CD000048?$AA@ 1000a298     bncs_style.obj
 0003:000012a8       ??_C@_0N@JMOM@?4F?5c?5?$CD000047?$AA@ 1000a2a8     bncs_style.obj
 0003:000012b8       ??_C@_0N@FBDF@?$CDx?5c?5?$CD000046?$AA@ 1000a2b8     bncs_style.obj
 0003:000012c8       ??_C@_0N@NNKE@?4O?5c?5?$CD000044?$AA@ 1000a2c8     bncs_style.obj
 0003:000012d8       ??_C@_0N@PCEP@?4e?5c?5?$CD000042?$AA@ 1000a2d8     bncs_style.obj
 0003:000012e8       ??_C@_0N@IJBB@?4G?5c?5?$CD000041?$AA@ 1000a2e8     bncs_style.obj
 0003:000012f8       ??_C@_0N@ILHK@?4W?5c?5?$CD000040?$AA@ 1000a2f8     bncs_style.obj
 0003:00001308       ??_C@_0N@NGFP@?$CDy?5c?5?$CD00003f?$AA@ 1000a308     bncs_style.obj
 0003:00001318       ??_C@_0N@HDPL@?4P?5c?5?$CD00003e?$AA@ 1000a318     bncs_style.obj
 0003:00001328       ??_C@_0N@HCGA@?4X?5c?5?$CD00003b?$AA@ 1000a328     bncs_style.obj
 0003:00001338       ??_C@_0N@LOAA@?47?5c?5?$CD00003a?$AA@ 1000a338     bncs_style.obj
 0003:00001348       ??_C@_0N@OECC@?$CDz?5c?5?$CD000039?$AA@ 1000a348     bncs_style.obj
 0003:00001358       ??_C@_0N@JFMJ@?4Y?5c?5?$CD000038?$AA@ 1000a358     bncs_style.obj
 0003:00001368       ??_C@_0N@LDMC@?$CDf?5c?5?$CD000036?$AA@ 1000a368     bncs_style.obj
 0003:00001378       ??_C@_0N@DBDA@?$CDp?5c?5?$CD000034?$AA@ 1000a378     bncs_style.obj
 0003:00001388       ??_C@_0N@NPI@?$CDo?5c?5?$CD000033?$AA@ 1000a388     bncs_style.obj
 0003:00001398       ??_C@_0N@NNMJ@?$CDA?5c?5?$CD000032?$AA@ 1000a398     bncs_style.obj
 0003:000013a8       ??_C@_0N@HBEL@?$CDu?5c?5?$CD000031?$AA@ 1000a3a8     bncs_style.obj
 0003:000013b8       ??_C@_0N@OEEM@?$CDv?5c?5?$CD000030?$AA@ 1000a3b8     bncs_style.obj
 0003:000013c8       ??_C@_0N@FCBP@?$CDB?5c?5?$CD00002f?$AA@ 1000a3c8     bncs_style.obj
 0003:000013d8       ??_C@_09IEOI@?4u?5c?5None?$AA@ 1000a3d8     bncs_style.obj
 0003:000013e4       ??_C@_09CKDD@?4H?5c?5None?$AA@ 1000a3e4     bncs_style.obj
 0003:000013f0       ??_C@_09KGKN@?48?5c?5None?$AA@ 1000a3f0     bncs_style.obj
 0003:000013fc       ??_C@_09NKPK@?$CDE?5c?5None?$AA@ 1000a3fc     bncs_style.obj
 0003:00001408       ??_C@_09MNJM@?$CDw?5c?5None?$AA@ 1000a408     bncs_style.obj
 0003:00001414       ??_C@_09GKBN@?$CDC?5c?5None?$AA@ 1000a414     bncs_style.obj
 0003:00001420       ??_C@_09HNHL@?$CDq?5c?5None?$AA@ 1000a420     bncs_style.obj
 0003:0000142c       ??_C@_09JCNE@?$CDD?5c?5None?$AA@ 1000a42c     bncs_style.obj
 0003:00001438       ??_C@_0L@LKMO@16?516?597?52?$AA@ 1000a438     bncs_style.obj
 0003:00001444       ??_C@_0CB@NJDN@?4e?4e?4e?4e?4e?4e?$CDO?$CDN?4g?4m?4g?4c?4c?4c?4c?4c@ 1000a444     bncs_style.obj
 0003:00001468       ??_C@_0CB@MKLC@?4e?4e?4e?4e?$CDM?4G?4z?4t?4c?$CDN?4k?4d?4d?4d?4d?4d@ 1000a468     bncs_style.obj
 0003:0000148c       ??_C@_0CB@DIDC@?4e?4e?4e?$CDJ?$CDK?4F?4G?4z?$CDL?4t?4j?4g?4c?4c?4c?4c@ 1000a48c     bncs_style.obj
 0003:000014b0       ??_C@_0CB@LCIP@?4e?4e?$CDz?$CDA?$CDB?$CDC?$CDD?4L?$CDE?$CDF?$CDG?$CDH?$CDI?4b?4b?4b@ 1000a4b0     bncs_style.obj
 0003:000014d4       ??_C@_0CB@BGE@?4e?$CDm?$CDn?$CDo?$CDp?$CDq?$CDr?$CDs?$CDt?$CDu?$CDv?$CDw?$CDx?$CDy?4a?4a@ 1000a4d4     bncs_style.obj
 0003:000014f8       ??_C@_0CB@HFID@?4e?$CDd?$CDe?$CDf?$CDg?48?$CDh?48?$CDg?$CDi?$CDj?4S?$CDk?$CDl?4oQt@ 1000a4f8     bncs_style.obj
 0003:0000151c       ??_C@_0CB@LIND@?43?44?45?46?47?48?49?$CD?4?$CD?$CD?$CDa?45?$CDb?4o?4Q?$CDc?4p@ 1000a51c     bncs_style.obj
 0003:00001540       ??_C@_0CB@BONI@?4Q?4R?4S?4T?4U?4V?4W?4X?4Y?4Z?40?41?42?4B?4wQt@ 1000a540     bncs_style.obj
 0003:00001564       ??_C@_0CB@GLJA@?4w?4o?4H?4I?4J?4K?4L?4M?4N?4O?4P?4e?4e?4e?4e?4e@ 1000a564     bncs_style.obj
 0003:00001588       ??_C@_0CB@CFJD@?4B?4C?4B?4D?4E?4F?4G?4z?4G?4e?4e?4e?4e?4e?4e?4e@ 1000a588     bncs_style.obj
 0003:000015ac       ??_C@_0CB@OLFC@?4u?4v?4w?4x?4y?4z?4s?4t?4A?4e?4e?4e?4e?4e?4e?4e@ 1000a5ac     bncs_style.obj
 0003:000015d0       ??_C@_0CB@CPOO@?4o?4p?4o?4q?4r?4s?4c?4t?4e?4e?4e?4e?4e?4e?4e?4e@ 1000a5d0     bncs_style.obj
 0003:000015f4       ??_C@_0CB@GFEJ@Qt?4?$CDQt?4i?4l?4m?4n?4m?4e?4e?4e?4e?4e?4e?4e?4e@ 1000a5f4     bncs_style.obj
 0003:00001618       ??_C@_0CB@IHEE@Qt?4?$CDQt?4i?4f?4j?4k?4j?4e?4e?4e?4e?4e?4e?4e?4e@ 1000a618     bncs_style.obj
 0003:0000163c       ??_C@_0CB@KHBG@Qt?4?$CDQt?4a?4f?4g?4h?4g?4e?4e?4e?4e?4e?4e?4e?4e@ 1000a63c     bncs_style.obj
 0003:00001660       ??_C@_0CB@LBAM@Qt?4?$CDQt?4a?4b?4c?4d?4c?4e?4e?4e?4e?4e?4e?4e?4e@ 1000a660     bncs_style.obj
 0003:00001684       ??_C@_0N@JOLJ@?4?$CD?5c?5?$CD45458f?$AA@ 1000a684     bncs_style.obj
 0003:00001694       ??_C@_0N@FIBG@?4p?5c?5?$CD44448f?$AA@ 1000a694     bncs_style.obj
 0003:000016a4       ??_C@_0N@FLEM@?$CDc?5c?5?$CD43438e?$AA@ 1000a6a4     bncs_style.obj
 0003:000016b4       ??_C@_0N@PECH@?4v?5c?5?$CD42428e?$AA@ 1000a6b4     bncs_style.obj
 0003:000016c4       ??_C@_0N@GBB@?4Q?5c?5?$CD3e3e8b?$AA@ 1000a6c4     bncs_style.obj
 0003:000016d4       ??_C@_0N@IJMB@?4C?5c?5?$CD3d3d8b?$AA@ 1000a6d4     bncs_style.obj
 0003:000016e4       ??_C@_0N@NNMP@?4o?5c?5?$CD383888?$AA@ 1000a6e4     bncs_style.obj
 0003:000016f4       ??_C@_0N@GPBE@?4w?5c?5?$CD373787?$AA@ 1000a6f4     bncs_style.obj
 0003:00001704       ??_C@_0N@OCKP@?4u?5c?5?$CD363686?$AA@ 1000a704     bncs_style.obj
 0003:00001714       ??_C@_0N@FHOC@?$CDl?5c?5?$CD353586?$AA@ 1000a714     bncs_style.obj
 0003:00001724       ??_C@_0N@ELEB@?4B?5c?5?$CD333385?$AA@ 1000a724     bncs_style.obj
 0003:00001734       ??_C@_0N@LLBJ@?4R?5c?5?$CD323284?$AA@ 1000a734     bncs_style.obj
 0003:00001744       ??_C@_0N@GBHG@?$CDk?5c?5?$CD2f2f82?$AA@ 1000a744     bncs_style.obj
 0003:00001754       ??_C@_0N@HHML@?42?5c?5?$CD2e2e82?$AA@ 1000a754     bncs_style.obj
 0003:00001764       ??_C@_0N@DGGK@?$CDb?5c?5?$CD2e2e81?$AA@ 1000a764     bncs_style.obj
 0003:00001774       ??_C@_0N@KBNE@?4H?5c?5?$CD2d2d81?$AA@ 1000a774     bncs_style.obj
 0003:00001784       ??_C@_0N@ENHA@?44?5c?5?$CD2a2a7e?$AA@ 1000a784     bncs_style.obj
 0003:00001794       ??_C@_0N@DCJ@?4S?5c?5?$CD27277d?$AA@ 1000a794     bncs_style.obj
 0003:000017a4       ??_C@_0N@HBNL@?41?5c?5?$CD27277c?$AA@ 1000a7a4     bncs_style.obj
 0003:000017b4       ??_C@_0N@GNHP@?4i?5c?5?$CD252578?$AA@ 1000a7b4     bncs_style.obj
 0003:000017c4       ??_C@_0N@DIFM@?4a?5c?5?$CD252577?$AA@ 1000a7c4     bncs_style.obj
 0003:000017d4       ??_C@_0N@DOJG@?$CDd?5c?5?$CD242478?$AA@ 1000a7d4     bncs_style.obj
 0003:000017e4       ??_C@_0N@GCJD@?4q?5c?5?$CD242477?$AA@ 1000a7e4     bncs_style.obj
 0003:000017f4       ??_C@_0N@CPJ@?4x?5c?5?$CD232377?$AA@ 1000a7f4     bncs_style.obj
 0003:00001804       ??_C@_0N@PHPF@?$CDy?5c?5?$CD232376?$AA@ 1000a804     bncs_style.obj
 0003:00001814       ??_C@_0N@EGKJ@?45?5c?5?$CD222278?$AA@ 1000a814     bncs_style.obj
 0003:00001824       ??_C@_0N@OBNL@?4D?5c?5?$CD212177?$AA@ 1000a824     bncs_style.obj
 0003:00001834       ??_C@_0N@IOCF@?$CDj?5c?5?$CD1f1f77?$AA@ 1000a834     bncs_style.obj
 0003:00001844       ??_C@_0N@EOOF@?40?5c?5?$CD1f1f74?$AA@ 1000a844     bncs_style.obj
 0003:00001854       ??_C@_0N@FJJK@?$CDx?5c?5?$CD1f1f73?$AA@ 1000a854     bncs_style.obj
 0003:00001864       ??_C@_0N@OJJK@?4I?5c?5?$CD1e1e76?$AA@ 1000a864     bncs_style.obj
 0003:00001874       ??_C@_0N@BMP@?$CDe?5c?5?$CD1d1d73?$AA@ 1000a874     bncs_style.obj
 0003:00001884       ??_C@_0N@IGLJ@?4T?5c?5?$CD1c1c75?$AA@ 1000a884     bncs_style.obj
 0003:00001894       ??_C@_0N@LJGJ@?$CDw?5c?5?$CD1a1a70?$AA@ 1000a894     bncs_style.obj
 0003:000018a4       ??_C@_0N@NMEB@?46?5c?5?$CD181872?$AA@ 1000a8a4     bncs_style.obj
 0003:000018b4       ??_C@_0N@GOHI@?$CDn?5c?5?$CD16166d?$AA@ 1000a8b4     bncs_style.obj
 0003:000018c4       ??_C@_0N@IEKO@?$CDv?5c?5?$CD15156d?$AA@ 1000a8c4     bncs_style.obj
 0003:000018d4       ??_C@_0N@EKJO@?$CDi?5c?5?$CD14146f?$AA@ 1000a8d4     bncs_style.obj
 0003:000018e4       ??_C@_0N@ELMO@?$CDa?5c?5?$CD14146d?$AA@ 1000a8e4     bncs_style.obj
 0003:000018f4       ??_C@_0N@FFBP@?$CDf?5c?5?$CD13136c?$AA@ 1000a8f4     bncs_style.obj
 0003:00001904       ??_C@_0N@KEJI@?4Z?5c?5?$CD111168?$AA@ 1000a904     bncs_style.obj
 0003:00001914       ??_C@_0N@OKJK@?$CDu?5c?5?$CD0f0f69?$AA@ 1000a914     bncs_style.obj
 0003:00001924       ??_C@_0N@GIMN@?$CDo?5c?5?$CD0f0f67?$AA@ 1000a924     bncs_style.obj
 0003:00001934       ??_C@_0N@EACK@?4U?5c?5?$CD0e0e6a?$AA@ 1000a934     bncs_style.obj
 0003:00001944       ??_C@_0N@MNAG@?47?5c?5?$CD0d0d69?$AA@ 1000a944     bncs_style.obj
 0003:00001954       ??_C@_0N@LGBG@?4O?5c?5?$CD0c0c62?$AA@ 1000a954     bncs_style.obj
 0003:00001964       ??_C@_0N@FBHA@?4J?5c?5?$CD0b0b65?$AA@ 1000a964     bncs_style.obj
 0003:00001974       ??_C@_0N@GBNC@?4r?5c?5?$CD0b0b5d?$AA@ 1000a974     bncs_style.obj
 0003:00001984       ??_C@_0N@LHJF@?4l?5c?5?$CD0b0b5c?$AA@ 1000a984     bncs_style.obj
 0003:00001994       ??_C@_0N@JMGD@?4f?5c?5?$CD0b0b5b?$AA@ 1000a994     bncs_style.obj
 0003:000019a4       ??_C@_0N@MJOF@?4b?5c?5?$CD0b0b5a?$AA@ 1000a9a4     bncs_style.obj
 0003:000019b4       ??_C@_0N@EILP@?$CDg?5c?5?$CD0a0a66?$AA@ 1000a9b4     bncs_style.obj
 0003:000019c4       ??_C@_0N@MMDL@?$CDA?5c?5?$CD0a0a62?$AA@ 1000a9c4     bncs_style.obj
 0003:000019d4       ??_C@_0N@IGDO@?4E?5c?5?$CD0a0a60?$AA@ 1000a9d4     bncs_style.obj
 0003:000019e4       ??_C@_0N@LGPP@?4y?5c?5?$CD0a0a5e?$AA@ 1000a9e4     bncs_style.obj
 0003:000019f4       ??_C@_0N@ILL@?$CDI?5c?5?$CD0a0a59?$AA@ 1000a9f4     bncs_style.obj
 0003:00001a04       ??_C@_0N@CKAA@?$CD?$CD?5c?5?$CD090964?$AA@ 1000aa04     bncs_style.obj
 0003:00001a14       ??_C@_0N@BDHF@?$CDt?5c?5?$CD080863?$AA@ 1000aa14     bncs_style.obj
 0003:00001a24       ??_C@_0N@IEMO@?$CDH?5c?5?$CD080858?$AA@ 1000aa24     bncs_style.obj
 0003:00001a34       ??_C@_0N@KDGA@?$CDp?5c?5?$CD070761?$AA@ 1000aa34     bncs_style.obj
 0003:00001a44       ??_C@_0N@PICI@?$CDG?5c?5?$CD060658?$AA@ 1000aa44     bncs_style.obj
 0003:00001a54       ??_C@_0N@IAAJ@?4Y?5c?5?$CD05055e?$AA@ 1000aa54     bncs_style.obj
 0003:00001a64       ??_C@_0N@PLEO@?$CDB?5c?5?$CD04045c?$AA@ 1000aa64     bncs_style.obj
 0003:00001a74       ??_C@_0N@PGMA@?$CDF?5c?5?$CD040458?$AA@ 1000aa74     bncs_style.obj
 0003:00001a84       ??_C@_0N@IDKC@?48?5c?5?$CD030360?$AA@ 1000aa84     bncs_style.obj
 0003:00001a94       ??_C@_0N@GNHA@?4V?5c?5?$CD03035e?$AA@ 1000aa94     bncs_style.obj
 0003:00001aa4       ??_C@_0N@CENN@?$CD?4?5c?5?$CD02025e?$AA@ 1000aaa4     bncs_style.obj
 0003:00001ab4       ??_C@_0N@MEGN@?$CDs?5c?5?$CD02025c?$AA@ 1000aab4     bncs_style.obj
 0003:00001ac4       ??_C@_0N@DLAC@?4N?5c?5?$CD020258?$AA@ 1000aac4     bncs_style.obj
 0003:00001ad4       ??_C@_0N@OEKF@?$CDE?5c?5?$CD020257?$AA@ 1000aad4     bncs_style.obj
 0003:00001ae4       ??_C@_0N@OOFJ@?$CDh?5c?5?$CD01015e?$AA@ 1000aae4     bncs_style.obj
 0003:00001af4       ??_C@_0N@FCMD@?$CDq?5c?5?$CD01015d?$AA@ 1000aaf4     bncs_style.obj
 0003:00001b04       ??_C@_0N@MHHB@?4K?5c?5?$CD010159?$AA@ 1000ab04     bncs_style.obj
 0003:00001b14       ??_C@_0N@NIPC@?$CDK?5c?5?$CD010158?$AA@ 1000ab14     bncs_style.obj
 0003:00001b24       ??_C@_0N@OCGK@?49?5c?5?$CD00005d?$AA@ 1000ab24     bncs_style.obj
 0003:00001b34       ??_C@_0N@GABC@?$CDr?5c?5?$CD00005b?$AA@ 1000ab34     bncs_style.obj
 0003:00001b44       ??_C@_0N@DLPH@?4W?5c?5?$CD00005a?$AA@ 1000ab44     bncs_style.obj
 0003:00001b54       ??_C@_0N@KCCO@?4X?5c?5?$CD000059?$AA@ 1000ab54     bncs_style.obj
 0003:00001b64       ??_C@_0N@HOLP@?$CDC?5c?5?$CD000058?$AA@ 1000ab64     bncs_style.obj
 0003:00001b74       ??_C@_0N@OKEN@?$CDD?5c?5?$CD000057?$AA@ 1000ab74     bncs_style.obj
 0003:00001b84       ??_C@_0N@KBLA@?4L?5c?5?$CD000056?$AA@ 1000ab84     bncs_style.obj
 0003:00001b94       ??_C@_0N@LEIG@?4M?5c?5?$CD000055?$AA@ 1000ab94     bncs_style.obj
 0003:00001ba4       ??_C@_0N@HFPP@?4F?5c?5?$CD000054?$AA@ 1000aba4     bncs_style.obj
 0003:00001bb4       ??_C@_0N@GAAC@?4G?5c?5?$CD000052?$AA@ 1000abb4     bncs_style.obj
 0003:00001bc4       ??_C@_0N@NIOG@?4z?5c?5?$CD000050?$AA@ 1000abc4     bncs_style.obj
 0003:00001bd4       ??_C@_0N@PBAH@?$CDL?5c?5?$CD00004e?$AA@ 1000abd4     bncs_style.obj
 0003:00001be4       ??_C@_0N@NGFB@?4s?5c?5?$CD00004d?$AA@ 1000abe4     bncs_style.obj
 0003:00001bf4       ??_C@_0N@BGBL@?4t?5c?5?$CD00004c?$AA@ 1000abf4     bncs_style.obj
 0003:00001c04       ??_C@_0N@KKIB@?4m?5c?5?$CD00004b?$AA@ 1000ac04     bncs_style.obj
 0003:00001c14       ??_C@_0N@MAJH@?4j?5c?5?$CD00004a?$AA@ 1000ac14     bncs_style.obj
 0003:00001c24       ??_C@_0N@IMFB@?4g?5c?5?$CD000049?$AA@ 1000ac24     bncs_style.obj
 0003:00001c34       ??_C@_0N@IMPJ@?4c?5c?5?$CD000048?$AA@ 1000ac34     bncs_style.obj
 0003:00001c44       ??_C@_0N@NHBB@?$CDN?5c?5?$CD000046?$AA@ 1000ac44     bncs_style.obj
 0003:00001c54       ??_C@_0N@MMEE@?4n?5c?5?$CD000045?$AA@ 1000ac54     bncs_style.obj
 0003:00001c64       ??_C@_0N@CGGD@?4k?5c?5?$CD000044?$AA@ 1000ac64     bncs_style.obj
 0003:00001c74       ??_C@_0N@EMBG@?4h?5c?5?$CD000043?$AA@ 1000ac74     bncs_style.obj
 0003:00001c84       ??_C@_0N@BIMA@?4d?5c?5?$CD000042?$AA@ 1000ac84     bncs_style.obj
 0003:00001c94       ??_C@_09DPKK@?43?5c?5None?$AA@ 1000ac94     bncs_style.obj
 0003:00001ca0       ??_C@_09JOFM@?$CDm?5c?5None?$AA@ 1000aca0     bncs_style.obj
 0003:00001cac       ??_C@_09OJKO@?4P?5c?5None?$AA@ 1000acac     bncs_style.obj
 0003:00001cb8       ??_C@_09OEHM@?$CDz?5c?5None?$AA@ 1000acb8     bncs_style.obj
 0003:00001cc4       ??_C@_09GDEH@?$CDJ?5c?5None?$AA@ 1000acc4     bncs_style.obj
 0003:00001cd0       ??_C@_09JLIO@?$CDM?5c?5None?$AA@ 1000acd0     bncs_style.obj
 0003:00001cdc       ??_C@_09CDGJ@?4A?5c?5None?$AA@ 1000acdc     bncs_style.obj
 0003:00001ce8       ??_C@_09LND@?$CDO?5c?5None?$AA@ 1000ace8     bncs_style.obj
 0003:00001cf4       ??_C@_0M@CGGH@16?516?5107?52?$AA@ 1000acf4     bncs_style.obj
 0003:00001d00       ??_C@_0CB@GGPH@?4e?4e?4e?4e?4e?4e?4e?4eQt?$CDRQt?4t?4E?4R?45?4R@ 1000ad00     bncs_style.obj
 0003:00001d24       ??_C@_0CB@JFBB@?4e?4e?4e?4e?4e?4e?4e?4e?4?$CD?$CDQ?4b?4v?$CDP?4R?45?4R@ 1000ad24     bncs_style.obj
 0003:00001d48       ??_C@_0CB@MCCH@?4e?4e?4e?4e?4e?4e?4e?4e?$CDM?$CDN?4m?$CDO?$CDP?4R?45?4R@ 1000ad48     bncs_style.obj
 0003:00001d6c       ??_C@_0CB@MKBO@?4e?4e?4e?4e?4e?4e?4e?4e?$CDI?$CDJ?4n?$CDK?$CDL?4S?46?4R@ 1000ad6c     bncs_style.obj
 0003:00001d90       ??_C@_0CB@PBJL@?4e?4e?4e?4e?4e?4e?4e?4e?$CDD?$CDE?$CDF?$CDG?$CDH?4T?46?4S@ 1000ad90     bncs_style.obj
 0003:00001db4       ??_C@_0CB@IAIJ@?4e?4e?4e?4e?4e?4e?4e?$CDx?$CDy?$CDz?$CDA?$CDB?$CDC?4U?47?4T@ 1000adb4     bncs_style.obj
 0003:00001dd8       ??_C@_0CB@FACA@?4e?4e?4e?4e?4e?4e?4e?$CDr?$CDs?4A?$CDt?$CDu?$CDv?$CDw?4R?4U@ 1000add8     bncs_style.obj
 0003:00001dfc       ??_C@_0CB@NJIJ@?4e?4e?4e?4e?4e?$CDl?49?$CDm?4X?$CDn?$CDo?$CDp?$CDq?49?4T?4T@ 1000adfc     bncs_style.obj
 0003:00001e20       ??_C@_0CB@JHBF@?4R?4R?4S?4T?$CDg?4U?4V?43?42?$CDh?$CDi?$CDj?4P?$CDk?4U?48@ 1000ae20     bncs_style.obj
 0003:00001e44       ??_C@_0CB@FKKN@?45?45?46?47?48?4U?49?$CD?4?$CD?$CD?$CDa?$CDb?$CDc?$CDd?$CDe?49?$CDf@ 1000ae44     bncs_style.obj
 0003:00001e68       ??_C@_0CB@JMHA@?4R?4R?4S?4T?4U?4V?4W?4X?4Y?4Z?40?41?42?43?44?4e@ 1000ae68     bncs_style.obj
 0003:00001e8c       ??_C@_0CB@BPE@?4E?4E?4F?4F?4G?4H?4I?4J?4K?4L?4M?4N?4O?4P?4Q?4e@ 1000ae8c     bncs_style.obj
 0003:00001eb0       ??_C@_0CB@PBOK@?4t?4t?4t?4t?4u?4v?4w?4x?4y?4z?4A?4B?4C?4D?4e?4e@ 1000aeb0     bncs_style.obj
 0003:00001ed4       ??_C@_0CB@NMH@QtQtQtQtQt?4?$CD?4m?4n?4o?4p?4q?4r?4s?4e?4e?4e@ 1000aed4     bncs_style.obj
 0003:00001ef8       ??_C@_0CB@FFEF@?4f?4f?4f?4f?4f?4g?4hQt?4i?4j?4k?4l?4e?4e?4e?4e@ 1000aef8     bncs_style.obj
 0003:00001f1c       ??_C@_0CB@FPMC@QtQtQtQtQt?4?$CD?4a?4b?4c?4d?4e?4e?4e?4e?4e?4e@ 1000af1c     bncs_style.obj
 0003:00001f40       ??_C@_0N@JLNG@?$CDR?5c?5?$CD45458f?$AA@ 1000af40     bncs_style.obj
 0003:00001f50       ??_C@_0N@IPMK@?4f?5c?5?$CD44448f?$AA@ 1000af50     bncs_style.obj
 0003:00001f60       ??_C@_0N@HHFH@?$CDQ?5c?5?$CD43438e?$AA@ 1000af60     bncs_style.obj
 0003:00001f70       ??_C@_0N@LGFE@?4g?5c?5?$CD42428e?$AA@ 1000af70     bncs_style.obj
 0003:00001f80       ??_C@_0N@PNCH@?4h?5c?5?$CD3f3f8c?$AA@ 1000af80     bncs_style.obj
 0003:00001f90       ??_C@_0N@CKAK@?4c?5c?5?$CD3e3e8b?$AA@ 1000af90     bncs_style.obj
 0003:00001fa0       ??_C@_0N@CIBL@?$CDN?5c?5?$CD3d3d8b?$AA@ 1000afa0     bncs_style.obj
 0003:00001fb0       ??_C@_0N@JLHF@Qt?5c?5?$CD393988?$AA@ 1000afb0     bncs_style.obj
 0003:00001fc0       ??_C@_0N@MJAB@?4b?5c?5?$CD383888?$AA@ 1000afc0     bncs_style.obj
 0003:00001fd0       ??_C@_0N@MOCH@?4?$CD?5c?5?$CD373787?$AA@ 1000afd0     bncs_style.obj
 0003:00001fe0       ??_C@_0N@GPGO@?$CDJ?5c?5?$CD363686?$AA@ 1000afe0     bncs_style.obj
 0003:00001ff0       ??_C@_0N@PGDI@?4a?5c?5?$CD353586?$AA@ 1000aff0     bncs_style.obj
 0003:00002000       ??_C@_0N@FPD@?4m?5c?5?$CD343485?$AA@ 1000b000     bncs_style.obj
 0003:00002010       ??_C@_0N@HBFH@?4i?5c?5?$CD333385?$AA@ 1000b010     bncs_style.obj
 0003:00002020       ??_C@_0N@GHCA@?$CDM?5c?5?$CD323284?$AA@ 1000b020     bncs_style.obj
 0003:00002030       ??_C@_0N@ICIG@?4n?5c?5?$CD2e2e82?$AA@ 1000b030     bncs_style.obj
 0003:00002040       ??_C@_0N@KKJJ@?$CDE?5c?5?$CD2d2d80?$AA@ 1000b040     bncs_style.obj
 0003:00002050       ??_C@_0N@IKED@?$CDI?5c?5?$CD2c2c80?$AA@ 1000b050     bncs_style.obj
 0003:00002060       ??_C@_0N@GNCC@?4j?5c?5?$CD2a2a7e?$AA@ 1000b060     bncs_style.obj
 0003:00002070       ??_C@_0N@ELGI@?4o?5c?5?$CD28287d?$AA@ 1000b070     bncs_style.obj
 0003:00002080       ??_C@_0N@FOHB@?$CDF?5c?5?$CD27277d?$AA@ 1000b080     bncs_style.obj
 0003:00002090       ??_C@_0N@CMLI@?$CDD?5c?5?$CD26267c?$AA@ 1000b090     bncs_style.obj
 0003:000020a0       ??_C@_0N@DLMC@?4u?5c?5?$CD252578?$AA@ 1000b0a0     bncs_style.obj
 0003:000020b0       ??_C@_0N@NABA@?4t?5c?5?$CD252577?$AA@ 1000b0b0     bncs_style.obj
 0003:000020c0       ??_C@_0N@PHDM@?4v?5c?5?$CD242477?$AA@ 1000b0c0     bncs_style.obj
 0003:000020d0       ??_C@_0N@PNEN@?4p?5c?5?$CD232379?$AA@ 1000b0d0     bncs_style.obj
 0003:000020e0       ??_C@_0N@MCHF@?4w?5c?5?$CD232378?$AA@ 1000b0e0     bncs_style.obj
 0003:000020f0       ??_C@_0N@GHKG@?4k?5c?5?$CD222277?$AA@ 1000b0f0     bncs_style.obj
 0003:00002100       ??_C@_0N@IDOC@?$CDO?5c?5?$CD222276?$AA@ 1000b100     bncs_style.obj
 0003:00002110       ??_C@_0N@ENFE@?4x?5c?5?$CD212179?$AA@ 1000b110     bncs_style.obj
 0003:00002120       ??_C@_0N@IGJF@?$CDz?5c?5?$CD212177?$AA@ 1000b120     bncs_style.obj
 0003:00002130       ??_C@_0N@LKAJ@?4y?5c?5?$CD1e1e77?$AA@ 1000b130     bncs_style.obj
 0003:00002140       ??_C@_0N@IPA@?$CDA?5c?5?$CD1e1e76?$AA@ 1000b140     bncs_style.obj
 0003:00002150       ??_C@_0N@IJFK@?$CDK?5c?5?$CD1e1e73?$AA@ 1000b150     bncs_style.obj
 0003:00002160       ??_C@_0N@FHHC@?$CDy?5c?5?$CD1d1d73?$AA@ 1000b160     bncs_style.obj
 0003:00002170       ??_C@_0N@MCBE@?4q?5c?5?$CD1c1c72?$AA@ 1000b170     bncs_style.obj
 0003:00002180       ??_C@_0N@EAGN@?$CDG?5c?5?$CD1a1a70?$AA@ 1000b180     bncs_style.obj
 0003:00002190       ??_C@_0N@HDMD@?4z?5c?5?$CD191972?$AA@ 1000b190     bncs_style.obj
 0003:000021a0       ??_C@_0N@NHJF@?$CDB?5c?5?$CD15156d?$AA@ 1000b1a0     bncs_style.obj
 0003:000021b0       ??_C@_0N@NHIO@?$CDt?5c?5?$CD13136e?$AA@ 1000b1b0     bncs_style.obj
 0003:000021c0       ??_C@_0N@CEFM@?4A?5c?5?$CD13136c?$AA@ 1000b1c0     bncs_style.obj
 0003:000021d0       ??_C@_0N@KIHM@?4K?5c?5?$CD12126e?$AA@ 1000b1d0     bncs_style.obj
 0003:000021e0       ??_C@_0N@BNNN@?4r?5c?5?$CD121269?$AA@ 1000b1e0     bncs_style.obj
 0003:000021f0       ??_C@_0N@POPL@?4J?5c?5?$CD11116a?$AA@ 1000b1f0     bncs_style.obj
 0003:00002200       ??_C@_0N@CGMG@?4L?5c?5?$CD10106c?$AA@ 1000b200     bncs_style.obj
 0003:00002210       ??_C@_0N@NOL@?$CDs?5c?5?$CD101067?$AA@ 1000b210     bncs_style.obj
 0003:00002220       ??_C@_0N@PKA@?$CDu?5c?5?$CD0d0d66?$AA@ 1000b220     bncs_style.obj
 0003:00002230       ??_C@_0N@LNDK@?4I?5c?5?$CD0d0d63?$AA@ 1000b230     bncs_style.obj
 0003:00002240       ??_C@_0N@FNKK@?4B?5c?5?$CD0c0c64?$AA@ 1000b240     bncs_style.obj
 0003:00002250       ??_C@_0N@JBPB@?4M?5c?5?$CD0b0b67?$AA@ 1000b250     bncs_style.obj
 0003:00002260       ??_C@_0N@ODEC@?$CDr?5c?5?$CD0b0b61?$AA@ 1000b260     bncs_style.obj
 0003:00002270       ??_C@_0N@LDCA@?4H?5c?5?$CD0b0b5e?$AA@ 1000b270     bncs_style.obj
 0003:00002280       ??_C@_0N@INID@?4G?5c?5?$CD0b0b5c?$AA@ 1000b280     bncs_style.obj
 0003:00002290       ??_C@_0N@MNJL@?4F?5c?5?$CD0b0b5b?$AA@ 1000b290     bncs_style.obj
 0003:000022a0       ??_C@_0N@NLC@?4E?5c?5?$CD0b0b5a?$AA@ 1000b2a0     bncs_style.obj
 0003:000022b0       ??_C@_0N@BOLG@?$CDP?5c?5?$CD0a0a59?$AA@ 1000b2b0     bncs_style.obj
 0003:000022c0       ??_C@_0N@NNCG@?$CDo?5c?5?$CD090965?$AA@ 1000b2c0     bncs_style.obj
 0003:000022d0       ??_C@_0N@HGFF@?$CDL?5c?5?$CD090959?$AA@ 1000b2d0     bncs_style.obj
 0003:000022e0       ??_C@_0N@DKOI@?$CDn?5c?5?$CD080863?$AA@ 1000b2e0     bncs_style.obj
 0003:000022f0       ??_C@_0N@COFJ@?$CDH?5c?5?$CD080859?$AA@ 1000b2f0     bncs_style.obj
 0003:00002300       ??_C@_0N@GBPA@?4Z?5c?5?$CD060663?$AA@ 1000b300     bncs_style.obj
 0003:00002310       ??_C@_0N@LEO@?4Y?5c?5?$CD060661?$AA@ 1000b310     bncs_style.obj
 0003:00002320       ??_C@_0N@JMIK@?4N?5c?5?$CD060660?$AA@ 1000b320     bncs_style.obj
 0003:00002330       ??_C@_0N@LPMA@?4C?5c?5?$CD06065e?$AA@ 1000b330     bncs_style.obj
 0003:00002340       ??_C@_0N@PIIA@?$CDC?5c?5?$CD060659?$AA@ 1000b340     bncs_style.obj
 0003:00002350       ??_C@_0N@KOFK@?40?5c?5?$CD050562?$AA@ 1000b350     bncs_style.obj
 0003:00002360       ??_C@_0N@CFKN@?$CDp?5c?5?$CD05055f?$AA@ 1000b360     bncs_style.obj
 0003:00002370       ??_C@_0N@GHMH@?4X?5c?5?$CD04045c?$AA@ 1000b370     bncs_style.obj
 0003:00002380       ??_C@_0N@NHDF@?$CDi?5c?5?$CD030360?$AA@ 1000b380     bncs_style.obj
 0003:00002390       ??_C@_0N@NAAC@?$CDv?5c?5?$CD030357?$AA@ 1000b390     bncs_style.obj
 0003:000023a0       ??_C@_0N@PIAN@?$CDh?5c?5?$CD02025e?$AA@ 1000b3a0     bncs_style.obj
 0003:000023b0       ??_C@_0N@FCHD@?41?5c?5?$CD02025d?$AA@ 1000b3b0     bncs_style.obj
 0003:000023c0       ??_C@_0N@CDBC@?4O?5c?5?$CD02025a?$AA@ 1000b3c0     bncs_style.obj
 0003:000023d0       ??_C@_0N@OBCD@?$CDm?5c?5?$CD020257?$AA@ 1000b3d0     bncs_style.obj
 0003:000023e0       ??_C@_0N@JAIB@?$CDb?5c?5?$CD01015f?$AA@ 1000b3e0     bncs_style.obj
 0003:000023f0       ??_C@_0N@PKDP@?$CDa?5c?5?$CD01015d?$AA@ 1000b3f0     bncs_style.obj
 0003:00002400       ??_C@_0N@GOKD@?$CDj?5c?5?$CD01015b?$AA@ 1000b400     bncs_style.obj
 0003:00002410       ??_C@_0N@KBMK@?$CDq?5c?5?$CD010157?$AA@ 1000b410     bncs_style.obj
 0003:00002420       ??_C@_0N@GPCI@?4W?5c?5?$CD010155?$AA@ 1000b420     bncs_style.obj
 0003:00002430       ??_C@_0N@CCGB@?$CDc?5c?5?$CD00005b?$AA@ 1000b430     bncs_style.obj
 0003:00002440       ??_C@_0N@CGCA@?$CD?$CD?5c?5?$CD000059?$AA@ 1000b440     bncs_style.obj
 0003:00002450       ??_C@_0N@HLNA@?42?5c?5?$CD000058?$AA@ 1000b450     bncs_style.obj
 0003:00002460       ??_C@_0N@LLLF@?$CDd?5c?5?$CD000057?$AA@ 1000b460     bncs_style.obj
 0003:00002470       ??_C@_0N@PHAN@?4P?5c?5?$CD000056?$AA@ 1000b470     bncs_style.obj
 0003:00002480       ??_C@_0N@MMAK@?$CD?4?5c?5?$CD000055?$AA@ 1000b480     bncs_style.obj
 0003:00002490       ??_C@_0N@GPLL@?43?5c?5?$CD000054?$AA@ 1000b490     bncs_style.obj
 0003:000024a0       ??_C@_0N@PLGG@?$CDe?5c?5?$CD000053?$AA@ 1000b4a0     bncs_style.obj
 0003:000024b0       ??_C@_0N@HKKP@?$CDk?5c?5?$CD000052?$AA@ 1000b4b0     bncs_style.obj
 0003:000024c0       ??_C@_0N@PKNP@?44?5c?5?$CD000051?$AA@ 1000b4c0     bncs_style.obj
 0003:000024d0       ??_C@_0N@EEIG@?49?5c?5?$CD000050?$AA@ 1000b4d0     bncs_style.obj
 0003:000024e0       ??_C@_0N@JCDH@?4V?5c?5?$CD00004f?$AA@ 1000b4e0     bncs_style.obj
 0003:000024f0       ??_C@_0N@GDON@?$CDw?5c?5?$CD00004e?$AA@ 1000b4f0     bncs_style.obj
 0003:00002500       ??_C@_0N@KNGM@?4U?5c?5?$CD00004c?$AA@ 1000b500     bncs_style.obj
 0003:00002510       ??_C@_0N@JOPE@?$CDg?5c?5?$CD00004b?$AA@ 1000b510     bncs_style.obj
 0003:00002520       ??_C@_0N@BCMN@?4T?5c?5?$CD00004a?$AA@ 1000b520     bncs_style.obj
 0003:00002530       ??_C@_0N@NPGK@?4S?5c?5?$CD000049?$AA@ 1000b530     bncs_style.obj
 0003:00002540       ??_C@_0N@JPHC@?4R?5c?5?$CD000048?$AA@ 1000b540     bncs_style.obj
 0003:00002550       ??_C@_0N@ONEG@?48?5c?5?$CD000047?$AA@ 1000b550     bncs_style.obj
 0003:00002560       ??_C@_0N@HJLJ@?47?5c?5?$CD000045?$AA@ 1000b560     bncs_style.obj
 0003:00002570       ??_C@_0N@GMEE@?46?5c?5?$CD000043?$AA@ 1000b570     bncs_style.obj
 0003:00002580       ??_C@_0N@PJED@?45?5c?5?$CD000042?$AA@ 1000b580     bncs_style.obj
 0003:00002590       ??_C@_09GAB@?4e?5c?5None?$AA@ 1000b590     bncs_style.obj
 0003:0000259c       ??_C@_09EOCP@?4d?5c?5None?$AA@ 1000b59c     bncs_style.obj
 0003:000025a8       ??_C@_09PFL@?4l?5c?5None?$AA@ 1000b5a8     bncs_style.obj
 0003:000025b4       ??_C@_09HECB@?$CDx?5c?5None?$AA@ 1000b5b4     bncs_style.obj
 0003:000025c0       ??_C@_09DEAP@?4s?5c?5None?$AA@ 1000b5c0     bncs_style.obj
 0003:000025cc       ??_C@_09ELPN@?4D?5c?5None?$AA@ 1000b5cc     bncs_style.obj
 0003:000025d8       ??_C@_09KBIA@?4Q?5c?5None?$AA@ 1000b5d8     bncs_style.obj
 0003:000025e4       ??_C@_09HFL@?$CDf?5c?5None?$AA@ 1000b5e4     bncs_style.obj
 0003:000025f0       ??_C@_09NGHC@?$CDl?5c?5None?$AA@ 1000b5f0     bncs_style.obj
 0003:000025fc       ??_C@_0M@LNFE@16?516?5110?52?$AA@ 1000b5fc     bncs_style.obj
 0003:00002608       ??_C@_0CB@KJBM@?4f?4n?4f?4F?4Q?44?40?44QtQtQtQtQtQtQtQt@ 1000b608     bncs_style.obj
 0003:0000262c       ??_C@_0CB@OMJO@?4f?4n?4f?4F?4P?$CDj?$CDA?$CDjQtQtQtQtQtQtQtQt@ 1000b62c     bncs_style.obj
 0003:00002650       ??_C@_0CB@CJKJ@?4f?4n?4f?4F?4O?42?$CD?4?43QtQtQtQtQtQtQtQt@ 1000b650     bncs_style.obj
 0003:00002674       ??_C@_0CB@BHAF@?4v?4m?$CDw?$CDx?4N?$CDy?$CDz?$CDcQtQtQtQtQtQtQtQt@ 1000b674     bncs_style.obj
 0003:00002698       ??_C@_0CB@GLMO@?4u?$CDr?$CDs?4C?$CDt?41?$CD?$CD?$CDu?$CDvQtQtQtQtQtQtQt@ 1000b698     bncs_style.obj
 0003:000026bc       ??_C@_0CB@IPBL@?4o?$CDk?$CDo?4B?$CDp?$CDq?$CD?$CD?$CDh?$CDiQtQtQtQtQtQtQt@ 1000b6bc     bncs_style.obj
 0003:000026e0       ??_C@_0CB@EGJM@?$CDk?$CDl?4s?4A?4K?4Y?$CD?$CD?$CDh?$CDm?$CDi?$CDnQtQtQtQtQt@ 1000b6e0     bncs_style.obj
 0003:00002704       ??_C@_0CB@GNFB@?4a?4j?4k?4s?$CDd?$CDe?$CDf?$CDg?$CDh?$CDi?$CDg?$CDc?42?$CDj?44?44@ 1000b704     bncs_style.obj
 0003:00002728       ??_C@_0CB@NDLB@?45?4i?4a?46?47?48?49?$CD?4?$CD?$CD?$CDa?$CDa?$CD?$CD?$CDb?$CDc?40?40@ 1000b728     bncs_style.obj
 0003:0000274c       ??_C@_0CB@DEMF@Qt?4R?4S?4T?4U?4V?4W?4X?4Y?4Z?40?41?42?43?44?44@ 1000b74c     bncs_style.obj
 0003:00002770       ??_C@_0CB@CNBJ@Qt?4g?4x?4x?4G?4H?4I?4J?4K?4L?4M?4N?4O?4P?4Q?4Q@ 1000b770     bncs_style.obj
 0003:00002794       ??_C@_0CB@FJGB@QtQt?4p?4w?4x?4y?4z?4s?4A?4B?4C?4D?4E?4F?4F?4F@ 1000b794     bncs_style.obj
 0003:000027b8       ??_C@_0CB@CCFD@QtQtQt?4p?4q?4r?4a?4k?4s?4t?4o?4u?4v?4f?4f?4f@ 1000b7b8     bncs_style.obj
 0003:000027dc       ??_C@_0CB@LJCH@QtQtQtQt?4g?4h?4i?4j?4k?4b?4l?4m?4n?4o?4o?4o@ 1000b7dc     bncs_style.obj
 0003:00002800       ??_C@_0CB@FFOP@QtQtQtQtQtQt?4?$CD?4a?4b?4c?4d?4e?4f?4f?4f?4f@ 1000b800     bncs_style.obj
 0003:00002824       ??_C@_0N@NNPE@?4w?5c?5?$CD8989b8?$AA@ 1000b824     bncs_style.obj
 0003:00002834       ??_C@_0N@DNKO@?4x?5c?5?$CD8383b5?$AA@ 1000b834     bncs_style.obj
 0003:00002844       ??_C@_0N@NLPL@?4q?5c?5?$CD8282b4?$AA@ 1000b844     bncs_style.obj
 0003:00002854       ??_C@_0N@EJPB@?4S?5c?5?$CD7d7db1?$AA@ 1000b854     bncs_style.obj
 0003:00002864       ??_C@_0N@IGIK@?4r?5c?5?$CD7c7cb0?$AA@ 1000b864     bncs_style.obj
 0003:00002874       ??_C@_0N@MIPM@?4R?5c?5?$CD7878ae?$AA@ 1000b874     bncs_style.obj
 0003:00002884       ??_C@_0N@FFAK@?4h?5c?5?$CD7777ad?$AA@ 1000b884     bncs_style.obj
 0003:00002894       ??_C@_0N@IGJC@?4G?5c?5?$CD7474ac?$AA@ 1000b894     bncs_style.obj
 0003:000028a4       ??_C@_0N@HOCM@?4T?5c?5?$CD7171aa?$AA@ 1000b8a4     bncs_style.obj
 0003:000028b4       ??_C@_0N@JBCB@?4y?5c?5?$CD7070a9?$AA@ 1000b8b4     bncs_style.obj
 0003:000028c4       ??_C@_0N@LGIF@?4i?5c?5?$CD6e6ea8?$AA@ 1000b8c4     bncs_style.obj
 0003:000028d4       ??_C@_0N@BBJF@?4a?5c?5?$CD6d6da7?$AA@ 1000b8d4     bncs_style.obj
 0003:000028e4       ??_C@_0N@DMFH@?4j?5c?5?$CD6767a4?$AA@ 1000b8e4     bncs_style.obj
 0003:000028f4       ??_C@_0N@MMIG@?4U?5c?5?$CD6363a1?$AA@ 1000b8f4     bncs_style.obj
 0003:00002904       ??_C@_0N@EPOO@?46?5c?5?$CD6161a0?$AA@ 1000b904     bncs_style.obj
 0003:00002914       ??_C@_0N@OAGM@?4z?5c?5?$CD6060a0?$AA@ 1000b914     bncs_style.obj
 0003:00002924       ??_C@_0N@OHCL@?4H?5c?5?$CD5f5f9e?$AA@ 1000b924     bncs_style.obj
 0003:00002934       ??_C@_0N@GNCE@?4k?5c?5?$CD5d5d9e?$AA@ 1000b934     bncs_style.obj
 0003:00002944       ??_C@_0N@MLKA@?$CDl?5c?5?$CD5b5b9d?$AA@ 1000b944     bncs_style.obj
 0003:00002954       ??_C@_0N@DCCP@?4b?5c?5?$CD56569a?$AA@ 1000b954     bncs_style.obj
 0003:00002964       ??_C@_0N@CPDC@?$CDk?5c?5?$CD545498?$AA@ 1000b964     bncs_style.obj
 0003:00002974       ??_C@_0N@FNAF@?4s?5c?5?$CD515197?$AA@ 1000b974     bncs_style.obj
 0003:00002984       ??_C@_0N@KAKO@?4l?5c?5?$CD4f4f95?$AA@ 1000b984     bncs_style.obj
 0003:00002994       ??_C@_0N@GKNL@?47?5c?5?$CD4f4f94?$AA@ 1000b994     bncs_style.obj
 0003:000029a4       ??_C@_0N@NIOI@?$CDr?5c?5?$CD4d4d94?$AA@ 1000b9a4     bncs_style.obj
 0003:000029b4       ??_C@_0N@NHFC@?4t?5c?5?$CD4a4a92?$AA@ 1000b9b4     bncs_style.obj
 0003:000029c4       ??_C@_0N@JPAK@?$CDo?5c?5?$CD494992?$AA@ 1000b9c4     bncs_style.obj
 0003:000029d4       ??_C@_0N@PCIL@?4m?5c?5?$CD484891?$AA@ 1000b9d4     bncs_style.obj
 0003:000029e4       ??_C@_0N@HKLA@?4V?5c?5?$CD48488d?$AA@ 1000b9e4     bncs_style.obj
 0003:000029f4       ??_C@_0N@FMJJ@?4I?5c?5?$CD47478d?$AA@ 1000b9f4     bncs_style.obj
 0003:00002a04       ??_C@_0N@MOHF@?4c?5c?5?$CD464690?$AA@ 1000ba04     bncs_style.obj
 0003:00002a14       ??_C@_0N@CJIH@?4n?5c?5?$CD45458f?$AA@ 1000ba14     bncs_style.obj
 0003:00002a24       ??_C@_0N@DBDL@?4o?5c?5?$CD44448f?$AA@ 1000ba24     bncs_style.obj
 0003:00002a34       ??_C@_0N@BID@?$CDs?5c?5?$CD42428e?$AA@ 1000ba34     bncs_style.obj
 0003:00002a44       ??_C@_0N@DFAH@?4d?5c?5?$CD41418d?$AA@ 1000ba44     bncs_style.obj
 0003:00002a54       ??_C@_0N@HBKK@?4A?5c?5?$CD41418c?$AA@ 1000ba54     bncs_style.obj
 0003:00002a64       ??_C@_0N@PNNG@?4u?5c?5?$CD3e3e8b?$AA@ 1000ba64     bncs_style.obj
 0003:00002a74       ??_C@_0N@EOMM@?$CDw?5c?5?$CD3c3c8a?$AA@ 1000ba74     bncs_style.obj
 0003:00002a84       ??_C@_0N@CMAA@?4e?5c?5?$CD3b3b89?$AA@ 1000ba84     bncs_style.obj
 0003:00002a94       ??_C@_0N@INHP@?$CDd?5c?5?$CD3b3b85?$AA@ 1000ba94     bncs_style.obj
 0003:00002aa4       ??_C@_0N@KNDI@?4v?5c?5?$CD3a3a89?$AA@ 1000baa4     bncs_style.obj
 0003:00002ab4       ??_C@_0N@JBAN@?4f?5c?5?$CD393988?$AA@ 1000bab4     bncs_style.obj
 0003:00002ac4       ??_C@_0N@CFAI@?4J?5c?5?$CD363680?$AA@ 1000bac4     bncs_style.obj
 0003:00002ad4       ??_C@_0N@DPIG@?4B?5c?5?$CD343481?$AA@ 1000bad4     bncs_style.obj
 0003:00002ae4       ??_C@_0N@DFGJ@?48?5c?5?$CD2f2f78?$AA@ 1000bae4     bncs_style.obj
 0003:00002af4       ??_C@_0N@DDKJ@?4C?5c?5?$CD2c2c7b?$AA@ 1000baf4     bncs_style.obj
 0003:00002b04       ??_C@_0N@IDCK@?4D?5c?5?$CD282878?$AA@ 1000bb04     bncs_style.obj
 0003:00002b14       ??_C@_0N@HOHP@?$CDx?5c?5?$CD272778?$AA@ 1000bb14     bncs_style.obj
 0003:00002b24       ??_C@_0N@NFMP@?4E?5c?5?$CD262677?$AA@ 1000bb24     bncs_style.obj
 0003:00002b34       ??_C@_0N@FEMN@?4K?5c?5?$CD262673?$AA@ 1000bb34     bncs_style.obj
 0003:00002b44       ??_C@_0N@PMAL@?4F?5c?5?$CD252577?$AA@ 1000bb44     bncs_style.obj
 0003:00002b54       ??_C@_0N@CCJG@?4W?5c?5?$CD23236c?$AA@ 1000bb54     bncs_style.obj
 0003:00002b64       ??_C@_0N@LENK@?$CDe?5c?5?$CD181861?$AA@ 1000bb64     bncs_style.obj
 0003:00002b74       ??_C@_0N@IEM@?$CDp?5c?5?$CD151562?$AA@ 1000bb74     bncs_style.obj
 0003:00002b84       ??_C@_0N@EFKE@?4L?5c?5?$CD151561?$AA@ 1000bb84     bncs_style.obj
 0003:00002b94       ??_C@_0N@OAOP@?4X?5c?5?$CD111159?$AA@ 1000bb94     bncs_style.obj
 0003:00002ba4       ??_C@_0N@NPIN@?$CDt?5c?5?$CD0d0d59?$AA@ 1000bba4     bncs_style.obj
 0003:00002bb4       ??_C@_0N@IHPL@?4M?5c?5?$CD0d0d58?$AA@ 1000bbb4     bncs_style.obj
 0003:00002bc4       ??_C@_0N@HGKG@?49?5c?5?$CD0d0d52?$AA@ 1000bbc4     bncs_style.obj
 0003:00002bd4       ??_C@_0N@GGPA@?4N?5c?5?$CD0c0c58?$AA@ 1000bbd4     bncs_style.obj
 0003:00002be4       ??_C@_0N@PHB@?4Q?5c?5?$CD0b0b5a?$AA@ 1000bbe4     bncs_style.obj
 0003:00002bf4       ??_C@_0N@LNPG@?4P?5c?5?$CD0b0b59?$AA@ 1000bbf4     bncs_style.obj
 0003:00002c04       ??_C@_0N@HOEM@?4O?5c?5?$CD0b0b58?$AA@ 1000bc04     bncs_style.obj
 0003:00002c14       ??_C@_0N@EBOL@?4Y?5c?5?$CD0a0a51?$AA@ 1000bc14     bncs_style.obj
 0003:00002c24       ??_C@_0N@BKJD@?$CDf?5c?5?$CD040443?$AA@ 1000bc24     bncs_style.obj
 0003:00002c34       ??_C@_0N@FCFK@?$CDq?5c?5?$CD030348?$AA@ 1000bc34     bncs_style.obj
 0003:00002c44       ??_C@_0N@HGJC@?4Z?5c?5?$CD030346?$AA@ 1000bc44     bncs_style.obj
 0003:00002c54       ??_C@_0N@BCFK@?44?5c?5?$CD000048?$AA@ 1000bc54     bncs_style.obj
 0003:00002c64       ??_C@_0N@IGEB@?$CDj?5c?5?$CD000047?$AA@ 1000bc64     bncs_style.obj
 0003:00002c74       ??_C@_0N@CMDP@?43?5c?5?$CD000046?$AA@ 1000bc74     bncs_style.obj
 0003:00002c84       ??_C@_0N@DJAJ@?42?5c?5?$CD000045?$AA@ 1000bc84     bncs_style.obj
 0003:00002c94       ??_C@_0N@OOJE@?$CDy?5c?5?$CD000044?$AA@ 1000bc94     bncs_style.obj
 0003:00002ca4       ??_C@_0N@PJOL@?41?5c?5?$CD000043?$AA@ 1000bca4     bncs_style.obj
 0003:00002cb4       ??_C@_0N@LJPD@?40?5c?5?$CD000042?$AA@ 1000bcb4     bncs_style.obj
 0003:00002cc4       ??_C@_0N@EDCF@?$CDA?5c?5?$CD000041?$AA@ 1000bcc4     bncs_style.obj
 0003:00002cd4       ??_C@_0N@GNFF@?$CDc?5c?5?$CD000040?$AA@ 1000bcd4     bncs_style.obj
 0003:00002ce4       ??_C@_0N@EIPM@?$CD?4?5c?5?$CD00003f?$AA@ 1000bce4     bncs_style.obj
 0003:00002cf4       ??_C@_0N@OKPE@?$CDb?5c?5?$CD00003e?$AA@ 1000bcf4     bncs_style.obj
 0003:00002d04       ??_C@_0N@LMOB@?$CDz?5c?5?$CD00003d?$AA@ 1000bd04     bncs_style.obj
 0003:00002d14       ??_C@_0N@FMPJ@?$CD?$CD?5c?5?$CD00003c?$AA@ 1000bd14     bncs_style.obj
 0003:00002d24       ??_C@_0N@IAIB@?$CDa?5c?5?$CD00003b?$AA@ 1000bd24     bncs_style.obj
 0003:00002d34       ??_C@_0N@IPGE@?$CDu?5c?5?$CD000038?$AA@ 1000bd34     bncs_style.obj
 0003:00002d44       ??_C@_0N@PDNK@?$CDg?5c?5?$CD000037?$AA@ 1000bd44     bncs_style.obj
 0003:00002d54       ??_C@_0N@JIFH@?$CDh?5c?5?$CD000033?$AA@ 1000bd54     bncs_style.obj
 0003:00002d64       ??_C@_0N@NIEP@?$CDi?5c?5?$CD000032?$AA@ 1000bd64     bncs_style.obj
 0003:00002d74       ??_C@_0N@CHFO@?$CDm?5c?5?$CD000030?$AA@ 1000bd74     bncs_style.obj
 0003:00002d84       ??_C@_09GOPD@Qt?5c?5None?$AA@ 1000bd84     bncs_style.obj
 0003:00002d90       ??_C@_09JGFM@?4g?5c?5None?$AA@ 1000bd90     bncs_style.obj
 0003:00002d9c       ??_C@_09OMHM@?4p?5c?5None?$AA@ 1000bd9c     bncs_style.obj
 0003:00002da8       ??_C@_09IPEN@?45?5c?5None?$AA@ 1000bda8     bncs_style.obj
 0003:00002db4       ??_C@_09LNED@?4?$CD?5c?5None?$AA@ 1000bdb4     bncs_style.obj
 0003:00002dc0       ??_C@_09IFLC@?$CDv?5c?5None?$AA@ 1000bdc0     bncs_style.obj
 0003:00002dcc       ??_C@_09EGCP@?$CDn?5c?5None?$AA@ 1000bdcc     bncs_style.obj
 0003:00002dd8       ??_C@_0L@PCJE@16?516?593?52?$AA@ 1000bdd8     bncs_style.obj
 0003:00002de4       ??_C@_0M@KEBP@a?5c?5?$CD44448f?$AA@ 1000bde4     bncs_style.obj
 0003:00002df0       ??_C@_0BB@GAGF@eeeeeeeeeeeeeeee?$AA@ 1000bdf0     bncs_style.obj
 0003:00002e04       ??_C@_0BB@CAJD@dddddddddddddddd?$AA@ 1000be04     bncs_style.obj
 0003:00002e18       ??_C@_0BB@OCFB@cccccccccccccccc?$AA@ 1000be18     bncs_style.obj
 0003:00002e2c       ??_C@_0BB@KCKH@bbbbbbbbbbbbbbbb?$AA@ 1000be2c     bncs_style.obj
 0003:00002e40       ??_C@_0BB@GDLN@aaaaaaaaaaaaaaaa?$AA@ 1000be40     bncs_style.obj
 0003:00002e54       ??_C@_0BB@NPNM@?$CD?$CD?$CD?$CD?$CD?$CD?$CD?$CD?$CD?$CD?$CD?$CD?$CD?$CD?$CD?$CD?$AA@ 1000be54     bncs_style.obj
 0003:00002e68       ??_C@_0BB@JLED@?4?4?4?4?4?4?4?4?4?4?4?4?4?4?4?4?$AA@ 1000be68     bncs_style.obj
 0003:00002e7c       ??_C@_0M@NCPA@?$CD?5c?5?$CD44448f?$AA@ 1000be7c     bncs_style.obj
 0003:00002e88       ??_C@_0BB@LDCB@?4?4?4?4?4?4?4?4?$CDa?$CDbcded?$AA@ 1000be88     bncs_style.obj
 0003:00002e9c       ??_C@_0M@FGCM@a?5c?5?$CD45458f?$AA@ 1000be9c     bncs_style.obj
 0003:00002ea8       ??_C@_0M@MMDH@?$CD?5c?5?$CD393988?$AA@ 1000bea8     bncs_style.obj
 0003:00002eb4       ??_C@_0M@LJLG@b?5c?5?$CD252577?$AA@ 1000beb4     bncs_style.obj
 0003:00002ec0       ??_C@_0M@JNBA@c?5c?5?$CD0b0b5a?$AA@ 1000bec0     bncs_style.obj
 0003:00002ecc       ??_C@_0M@KHCM@d?5c?5?$CD000048?$AA@ 1000becc     bncs_style.obj
 0003:00002ed8       ??_C@_0M@EMDF@e?5c?5?$CD000042?$AA@ 1000bed8     bncs_style.obj
 0003:00002ee4       ??_C@_08ECFH@?4?5c?5None?$AA@ 1000bee4     bncs_style.obj
 0003:00002ef0       ??_C@_0BB@JEBJ@?4?$CD?4abcdceeeeeeee?$AA@ 1000bef0     bncs_style.obj
 0003:00002f04       ??_C@_0M@CAMD@?$CD?5c?5?$CD45458f?$AA@ 1000bf04     bncs_style.obj
 0003:00002f10       ??_C@_0M@NIPJ@?4?5c?5?$CD393988?$AA@ 1000bf10     bncs_style.obj
 0003:00002f1c       ??_C@_0M@IGCG@a?5c?5?$CD252577?$AA@ 1000bf1c     bncs_style.obj
 0003:00002f28       ??_C@_0M@HHJP@b?5c?5?$CD0b0b5a?$AA@ 1000bf28     bncs_style.obj
 0003:00002f34       ??_C@_0M@DCID@c?5c?5?$CD000048?$AA@ 1000bf34     bncs_style.obj
 0003:00002f40       ??_C@_0M@KGLK@d?5c?5?$CD000042?$AA@ 1000bf40     bncs_style.obj
 0003:00002f4c       ??_C@_08NAPF@e?5c?5None?$AA@ 1000bf4c     bncs_style.obj
 0003:00002f58       ??_C@_09EOI@16?516?57?51?$AA@ 1000bf58     bncs_style.obj
 0003:00002f64       ??_C@_0OB@MJJC@?4x?4a?4dQt?4x?4g?4gQt?4xQt?4x?4b?4eQt?4x?4n@ 1000bf64     bncs_style.obj
 0003:00003048       ??_C@_0OB@JKCM@?4d?4d?4d?4a?4f?4f?4a?4c?4f?4fQt?4e?4eQt?4x?4n@ 1000c048     bncs_style.obj
 0003:0000312c       ??_C@_0OB@MKEP@?4?$CD?4c?4d?4c?4d?4f?4a?4v?4g?4g?4f?4x?4xQt?4x?4n@ 1000c12c     bncs_style.obj
 0003:00003210       ??_C@_0OB@HPJJ@?4P?4x?4F?4?$CD?4f?4f?4i?4v?4?$CD?4x?4c?4c?4xQt?4bQt@ 1000c210     bncs_style.obj
 0003:000032f4       ??_C@_0OB@OOHD@?4eQt?4n?4dQt?4n?4e?4f?4v?4b?4fQt?4e?4a?4d?4v@ 1000c2f4     bncs_style.obj
 0003:000033d8       ??_C@_0OB@MDGA@Qt?4k?4g?4f?4dQtQt?4c?4EQt?4r?4c?4g?4d?4n?4h@ 1000c3d8     bncs_style.obj
 0003:000034bc       ??_C@_0OB@JKPE@?4c?4q?4j?4g?4E?4?$CD?4r?4A?$CDk?4V?4D?4w?4v?4o?4i?4d@ 1000c4bc     bncs_style.obj
 0003:000035a0       ??_C@_0OB@DGEE@?4a?4P?4c?4k?4a?4x?4k?4f?4i?4e?4c?4r?4i?4E?4f?4q@ 1000c5a0     bncs_style.obj
 0003:00003684       ??_C@_0OB@HCKG@?4r?4e?4d?4g?4c?4f?4e?4g?4d?4e?4v?4w?4A?4T?4vQt@ 1000c684     bncs_style.obj
 0003:00003768       ??_C@_0OB@PHFP@?4o?4w?4r?4s?4B?4A?4u?4B?4S?4v?4i?4x?4e?4j?4j?4v@ 1000c768     bncs_style.obj
 0003:0000384c       ??_C@_0OB@GEOG@Qt?4d?4l?4i?4gQt?4gQt?4B?4A?$CDd?45?4t?4N?4?$CD?4b@ 1000c84c     bncs_style.obj
 0003:00003930       ??_C@_0OB@IBAN@?4c?4g?4f?4g?4g?4fQt?4g?4?$CD?4b?4b?4d?4w?$CDd?4t?4x@ 1000c930     bncs_style.obj
 0003:00003a14       ??_C@_0OB@OAMP@?4x?4k?4p?4h?4b?4x?4f?4a?4g?4f?4r?4?$CD?4i?4s?4N?4o@ 1000ca14     bncs_style.obj
 0003:00003af8       ??_C@_0OB@ECIJ@?4e?4h?4q?4e?4a?4r?4?$CD?4v?4i?4g?4x?4x?4f?4A?4t?4s@ 1000caf8     bncs_style.obj
 0003:00003bdc       ??_C@_0OB@CHOC@?4p?4P?4P?4b?4a?4c?4d?4d?4v?4g?4h?4l?4p?4d?4A?4u@ 1000cbdc     bncs_style.obj
 0003:00003cc0       ??_C@_0OB@CAGA@?4x?4k?4q?4b?4f?4g?4a?4d?4f?4r?4c?4n?4l?4y?4g?4o@ 1000ccc0     bncs_style.obj
 0003:00003da4       ??_C@_0OB@KFBD@?4j?4d?4x?4e?4x?4f?4r?4j?4f?4v?4?$CD?4a?4g?4b?4n?4a@ 1000cda4     bncs_style.obj
 0003:00003e88       ??_C@_0OB@MPIK@?4c?4f?4b?4n?4h?4h?4x?4d?4i?4v?4g?4f?4v?4r?4b?4e@ 1000ce88     bncs_style.obj
 0003:00003f6c       ??_C@_0OB@LGJM@?4g?4g?4d?4c?4g?4xQt?4d?4a?4j?4d?4e?4f?4b?4b?4v@ 1000cf6c     bncs_style.obj
 0003:00004050       ??_C@_0OB@FOPF@?4x?4g?4aQt?4e?4xQtQt?4c?4r?4r?4aQt?4x?4b?4h@ 1000d050     bncs_style.obj
 0003:00004134       ??_C@_0OB@JAAK@?4n?4f?4aQt?4b?4b?4xQt?4g?4gQt?4b?4x?4d?4c?4f@ 1000d134     bncs_style.obj
 0003:00004218       ??_C@_0OB@FHIF@?4b?4g?4a?4f?4b?4b?4b?4bQt?4gQt?4n?4f?4v?4E?4r@ 1000d218     bncs_style.obj
 0003:000042fc       ??_C@_0OB@MGHF@?4g?4d?4d?4a?4g?4f?4b?4p?4b?4a?4a?4e?4e?4d?4cQt@ 1000d2fc     bncs_style.obj
 0003:000043e0       ??_C@_0OB@LNE@?4c?4d?4g?4d?4i?4?$CDQt?4y?4n?4g?4d?4b?4y?4y?4n?4e@ 1000d3e0     bncs_style.obj
 0003:000044c4       ??_C@_0OB@PLCI@?4c?4g?4x?4f?4i?4E?4c?4bQt?4a?4d?4x?4P?4M?4n?4i@ 1000d4c4     bncs_style.obj
 0003:000045a8       ??_C@_0OB@HCKA@?4r?4a?4x?4bQt?4c?4c?4fQtQt?4d?4i?4x?4P?4n?4j@ 1000d5a8     bncs_style.obj
 0003:0000468c       ??_C@_0OB@JCOE@?4v?4rQt?4h?4q?4b?4g?4a?4h?4q?4g?4o?4i?4p?4p?4a@ 1000d68c     bncs_style.obj
 0003:00004770       ??_C@_0OB@HFFP@?4q?4fQt?4nQt?4g?4a?4i?4a?4x?4I?4d?4a?4c?4M?4c@ 1000d770     bncs_style.obj
 0003:00004854       ??_C@_0OB@PPLN@?4v?4v?4f?4n?4a?4r?4d?4a?4c?4d?40?4r?4e?4V?4q?4r@ 1000d854     bncs_style.obj
 0003:00004938       ??_C@_0OB@NBGF@?4E?4jQt?4p?4h?4n?4k?4b?4P?4p?4z?4e?4r?$CDc?4v?4c@ 1000d938     bncs_style.obj
 0003:00004a1c       ??_C@_0OB@NAFE@?4g?4?$CD?4d?4k?4l?4M?4p?4d?4P?4Q?4G?40?4r?4V?4t?4c@ 1000da1c     bncs_style.obj
 0003:00004b00       ??_C@_0OB@NOHO@?4a?4E?4E?4c?4f?4x?4c?4D?4w?4x?4P?44?4y?4a?4V?4r@ 1000db00     bncs_style.obj
 0003:00004be4       ??_C@_0OB@JPHI@?4?$CD?4v?4r?4i?4w?4E?4w?4V?4s?4j?4b?4k?4l?4i?4v?4a@ 1000dbe4     bncs_style.obj
 0003:00004cc8       ??_C@_0OB@OPHD@?4?$CD?4i?4a?4a?4?$CD?4i?4i?4A?4j?4cQt?4AQt?4w?4i?4a@ 1000dcc8     bncs_style.obj
 0003:00004dac       ??_C@_0OB@OCAN@?4?$CD?4E?4v?4c?4a?4x?4g?4u?4DQtQt?4c?4a?4a?4w?4v@ 1000ddac     bncs_style.obj
 0003:00004e90       ??_C@_0OB@CBAC@?4r?4i?4c?4x?4x?4d?4?$CD?4?$CD?4w?4uQt?4f?4b?4c?4h?4k@ 1000de90     bncs_style.obj
 0003:00004f74       ??_C@_0OB@OKP@?4g?4gQt?4b?4e?4g?4g?4xQt?4f?4b?4h?4a?4c?4g?4f@ 1000df74     bncs_style.obj
 0003:00005058       ??_C@_0OB@JBNL@?4x?4x?4e?4bQt?4a?4g?4x?4gQt?4g?4p?4?$CD?4f?4d?4x@ 1000e058     bncs_style.obj
 0003:0000513c       ??_C@_0OB@FCNA@?4b?4b?4n?4n?4x?4g?4r?4i?4E?4j?4?$CD?4e?4i?4g?4f?4e@ 1000e13c     bncs_style.obj
 0003:00005220       ??_C@_0OB@IKOL@?4n?4b?4b?4h?4p?4k?4a?4E?4w?4B?4i?4i?4c?4v?4f?4a@ 1000e220     bncs_style.obj
 0003:00005304       ??_C@_0OB@IMFD@?4eQt?4f?4e?4y?4P?4e?4v?4v?4s?4i?4w?4c?4E?4x?4f@ 1000e304     bncs_style.obj
 0003:000053e8       ??_C@_0OB@HHOJ@?4b?4x?4g?4g?4n?4y?4hQt?4d?4w?4E?4w?4w?4v?4x?4n@ 1000e3e8     bncs_style.obj
 0003:000054cc       ??_C@_0OB@JKAD@?4l?4p?4e?4g?4e?4y?4F?4y?4k?4a?4A?4v?4S?4j?4c?4e@ 1000e4cc     bncs_style.obj
 0003:000055b0       ??_C@_0OB@DOGP@?4f?4k?4n?4g?4e?4e?4b?4n?4g?4b?4a?4r?4N?4j?4i?4i@ 1000e5b0     bncs_style.obj
 0003:00005694       ??_C@_0OB@NCMF@?4f?4n?4b?4a?4g?4f?4x?4b?4gQtQt?4g?4u?4j?4c?4c@ 1000e694     bncs_style.obj
 0003:00005778       ??_C@_0OB@LOIC@?4b?4q?4k?4x?4r?4c?4d?4f?4f?4a?4n?4x?4i?4o?4c?4a@ 1000e778     bncs_style.obj
 0003:0000585c       ??_C@_0OB@HDMD@?4k?4y?4l?4F?4f?4x?4x?4n?4x?4r?4k?4x?4g?4B?4cQt@ 1000e85c     bncs_style.obj
 0003:00005940       ??_C@_0OB@FJEF@?4r?4f?4n?4H?4a?4x?4fQt?4e?4i?4bQt?4f?4AQt?4h@ 1000e940     bncs_style.obj
 0003:00005a24       ??_C@_0OB@HGHP@?4P?4F?4C?4Z?4y?4M?4q?4k?4x?4i?4fQt?4a?4?$CD?4n?4P@ 1000ea24     bncs_style.obj
 0003:00005b08       ??_C@_0OB@HDNF@QtQt?4b?41?4g?4k?4g?4r?4x?4a?4dQt?4?$CD?4c?4f?4b@ 1000eb08     bncs_style.obj
 0003:00005bec       ??_C@_0OB@IIGN@?4c?4rQt?4W?4n?4G?4J?4M?4bQt?4rQt?4A?4i?4v?4?$CD@ 1000ebec     bncs_style.obj
 0003:00005cd0       ??_C@_0OB@PJIH@?4i?4a?4g?4F?4b?4k?4e?4F?4fQt?4d?4x?4j?4j?4E?4f@ 1000ecd0     bncs_style.obj
 0003:00005db4       ??_C@_0OB@OLGL@?4x?4x?4a?4pQt?4e?4d?4bQt?4g?4?$CDQt?4i?4d?4r?4x@ 1000edb4     bncs_style.obj
 0003:00005e98       ??_C@_0OB@PMMK@?4e?4g?4i?4x?4f?4x?4d?4f?4n?4g?4E?4g?4r?4g?4i?4a@ 1000ee98     bncs_style.obj
 0003:00005f7c       ??_C@_0OB@FPBI@?4h?4x?4dQt?4x?4e?4fQt?4e?4d?4w?4d?4i?4g?4i?4a@ 1000ef7c     bncs_style.obj
 0003:00006060       ??_C@_0OB@JGI@?4M?4y?4h?4b?4n?4f?4f?4g?4c?4i?4w?4g?4i?4g?4c?4e@ 1000f060     bncs_style.obj
 0003:00006144       ??_C@_0OB@NPEO@?4h?4e?4n?4f?4b?4a?4g?4r?4g?4g?4r?4e?4r?4c?4?$CDQt@ 1000f144     bncs_style.obj
 0003:00006228       ??_C@_0OB@LMAE@?4a?4i?4a?4i?4k?4f?4f?4j?4g?4f?4c?4n?4c?4c?4j?4d@ 1000f228     bncs_style.obj
 0003:0000630c       ??_C@_0OB@IOPP@?4n?4aQt?4c?4P?4b?4f?4A?4E?4j?4w?4x?4a?4x?4d?4x@ 1000f30c     bncs_style.obj
 0003:000063f0       ??_C@_0OB@DFCN@?4d?4f?4c?4j?4g?4l?4p?4i?4a?4V?4k?4x?4g?4E?4?$CD?4d@ 1000f3f0     bncs_style.obj
 0003:000064d4       ??_C@_0OB@CIIC@?4d?4eQt?4?$CD?4r?4n?4k?4d?4r?4S?4g?4r?4?$CD?4A?4iQt@ 1000f4d4     bncs_style.obj
 0003:000065b8       ??_C@_0OB@IHIN@?4a?4h?4pQt?4a?4k?4l?4l?4f?4w?4f?4c?4v?4u?4j?4a@ 1000f5b8     bncs_style.obj
 0003:0000669c       ??_C@_0OB@NMHK@?4jQt?4n?4g?4i?4a?4b?4hQt?4a?4n?4b?4g?4j?4j?4d@ 1000f69c     bncs_style.obj
 0003:00006780       ??_C@_0OB@FEFH@?4r?4x?4k?4x?4c?4c?4g?4f?4c?4f?4g?4e?4g?4?$CD?4rQt@ 1000f780     bncs_style.obj
 0003:00006864       ??_C@_0OB@JBDK@?4dQt?4k?4h?4n?4n?4h?4p?4a?4k?4i?4d?4E?4A?4E?4g@ 1000f864     bncs_style.obj
 0003:00006948       ??_C@_0OB@EBBJ@?4o?4j?4c?4g?4f?4f?4b?4p?4b?4J?4c?4g?4E?4B?4u?4i@ 1000f948     bncs_style.obj
 0003:00006a2c       ??_C@_0OB@KLPC@?4r?4d?4g?4f?4d?4r?4g?4k?4e?4X?4f?4h?4a?4v?4E?4d@ 1000fa2c     bncs_style.obj
 0003:00006b10       ??_C@_0OB@ODKJ@?4f?4i?4i?4n?4w?4d?4e?4qQt?4l?4qQt?4g?4f?4pQt@ 1000fb10     bncs_style.obj
 0003:00006bf4       ??_C@_0OB@PBNG@?4?$CD?4w?4?$CD?4x?4j?4v?4d?4g?4g?4PQt?4d?4c?4p?4G?4J@ 1000fbf4     bncs_style.obj
 0003:00006cd8       ??_C@_0OB@JNGO@?4w?4s?4?$CD?4d?4r?4E?4a?4f?4b?4Q?4a?4r?4u?4p?4C?4Q@ 1000fcd8     bncs_style.obj
 0003:00006dbc       ??_C@_0OB@NIOG@?4a?4v?4g?4i?4a?4w?4g?4e?4b?4G?4a?4c?45?4g?4n?4k@ 1000fdbc     bncs_style.obj
 0003:00006ea0       ??_C@_0OB@BKNE@?4k?4x?4k?4dQt?4A?4?$CD?4a?4?$CD?4F?4a?4a?45?4v?4c?4f@ 1000fea0     bncs_style.obj
 0003:00006f84       ??_C@_0OB@FDBJ@?4r?4a?4xQt?4b?4?$CD?4j?4a?4E?4h?4g?4x?4s?4w?4i?4a@ 1000ff84     bncs_style.obj
 0003:00007068       ??_C@_0OB@LMBH@?4u?4r?4r?4x?4e?4f?4i?4k?4r?4e?4g?4e?4r?4j?4dQt@ 10010068     bncs_style.obj
 0003:0000714c       ??_C@_0OB@DLNG@?4?$CD?4x?4i?4x?4f?4f?4?$CD?4p?4c?4c?4iQt?4e?4c?4k?4y@ 1001014c     bncs_style.obj
 0003:00007230       ??_C@_0OB@HAGN@?4e?4n?4x?4u?4r?4i?4a?4r?4f?4r?4a?4h?4k?4o?4E?4P@ 10010230     bncs_style.obj
 0003:00007314       ??_C@_0OB@PEGO@?4r?4b?4p?4r?4a?4r?4e?4b?4x?4rQt?4x?4H?4d?4f?4p@ 10010314     bncs_style.obj
 0003:000073f8       ??_C@_0OB@FLPA@?4d?4e?4P?4fQt?4r?4x?4x?4e?4?$CD?4a?4j?4Q?4k?4F?4y@ 100103f8     bncs_style.obj
 0003:000074dc       ??_C@_0OB@GPOC@?4n?4f?4n?4f?4k?4x?4n?4d?4r?4j?4u?4N?4f?4n?4p?4b@ 100104dc     bncs_style.obj
 0003:000075c0       ??_C@_0OB@OFOD@?4h?4c?4xQt?4h?4b?4P?4b?4n?4F?4g?4r?4r?4l?4k?4e@ 100105c0     bncs_style.obj
 0003:000076a4       ??_C@_0OB@IJF@?4h?4c?4h?4nQt?4r?4q?4k?4F?4K?4Q?4M?4g?4HQt?4g@ 100106a4     bncs_style.obj
 0003:00007788       ??_C@_0OB@JIKD@?4q?4r?4q?4p?4b?4d?4l?4p?4a?4J?4q?4f?4wQt?4r?4r@ 10010788     bncs_style.obj
 0003:0000786c       ??_C@_0OB@NFKP@?4p?4w?4x?4l?4Q?4J?4L?4G?4j?4n?4x?4w?4w?4f?4h?4y@ 1001086c     bncs_style.obj
 0003:00007950       ??_C@_0OB@GPKE@?4n?4?$CD?4b?4c?4y?4k?4f?4p?4b?4n?4r?4v?4u?4D?4aQt@ 10010950     bncs_style.obj
 0003:00007a34       ??_C@_0OB@OKLO@?4i?4v?4i?4u?4cQt?4b?4l?4p?4x?4r?4b?4c?4a?4f?4e@ 10010a34     bncs_style.obj
 0003:00007b18       ??_C@_0OB@PLBB@?4a?4e?4i?4f?4f?4c?4r?4a?4q?4d?4rQt?4v?4k?4e?4f@ 10010b18     bncs_style.obj
 0003:00007bfc       ??_C@_0OB@JILF@?4c?4g?4D?4q?4y?4nQt?4e?4k?4a?4n?4w?4s?4e?4l?4e@ 10010bfc     bncs_style.obj
 0003:00007ce0       ??_C@_0OB@MAIE@?4f?4x?45?4j?4g?4p?4q?4x?4P?4b?4J?4j?4v?4v?4M?4F@ 10010ce0     bncs_style.obj
 0003:00007dc4       ??_C@_0OB@LCAE@?4c?4q?4j?4T?4E?4y?4h?4w?4q?4k?4p?4g?4f?45?4f?4P@ 10010dc4     bncs_style.obj
 0003:00007ea8       ??_C@_0OB@OCOM@?4D?4c?4f?4D?4v?4h?4q?4e?4f?4G?4c?4a?4i?45?4w?4c@ 10010ea8     bncs_style.obj
 0003:00007f8c       ??_C@_0OB@KCCL@?4f?4r?4k?4s?4A?4B?4i?4C?4a?$CD?4?4?$CD?4r?4u?4j?4i?4u@ 10010f8c     bncs_style.obj
 0003:00008070       ??_C@_0OB@OON@?4f?4?$CD?4n?4r?4?$CD?4d?4w?4F?4b?4O?4F?4w?4c?4uQt?4c@ 10011070     bncs_style.obj
 0003:00008154       ??_C@_0OB@NDKL@?4p?4g?4k?4r?4j?4E?4T?4n?4a?42?4O?40?4k?4N?4f?4x@ 10011154     bncs_style.obj
 0003:00008238       ??_C@_0OB@GPAI@?4U?4p?4F?4n?4f?4?$CD?4D?4n?4b?4c?4x?4I?40?4e?4l?4c@ 10011238     bncs_style.obj
 0003:0000831c       ??_C@_0OB@GOOO@?4F?4e?4h?4h?4n?4i?4V?4f?4p?4a?4a?4P?4Q?4c?4n?4b@ 1001131c     bncs_style.obj
 0003:00008400       ??_C@_0OB@EGGA@?4n?4f?4n?4l?4MQt?4w?4g?4b?4l?4p?4n?4CQt?4h?4I@ 10011400     bncs_style.obj
 0003:000084e4       ??_C@_0OB@DICP@?4h?4h?4p?4Q?4I?4P?4f?4e?4g?4h?4f?4c?42?41?4l?4l@ 100114e4     bncs_style.obj
 0003:000085c8       ??_C@_0OB@EJMC@?4n?4h?4x?4k?4l?4q?4xQt?4d?4n?4y?4f?4l?4q?4e?4f@ 100115c8     bncs_style.obj
 0003:000086ac       ??_C@_0OB@OOBE@?4p?4l?4x?4x?4y?4y?4y?4h?4f?4?$CD?4n?4a?4e?4q?4J?4q@ 100116ac     bncs_style.obj
 0003:00008790       ??_C@_0OB@EIDE@?4r?4x?4p?4n?4f?4k?4q?4a?4dQt?4r?4i?4b?4e?4a?4e@ 10011790     bncs_style.obj
 0003:00008874       ??_C@_0OB@ENHM@?4D?4v?4x?4d?4A?4A?4v?4E?4e?4x?4c?4?$CD?4c?4r?4?$CD?4i@ 10011874     bncs_style.obj
 0003:00008958       ??_C@_0OB@PGLM@?4r?4v?4c?4f?4a?4g?4g?4?$CD?4d?4r?4g?4xQtQtQt?4d@ 10011958     bncs_style.obj
 0003:00008a3c       ??_C@_0OB@DPN@Qt?4j?4v?4fQt?4f?4a?4v?4E?4B?4v?4d?4i?4f?4q?4b@ 10011a3c     bncs_style.obj
 0003:00008b20       ??_C@_0OB@HHJH@?4a?4c?4b?4k?4i?4u?4E?4r?4a?4o?4A?4s?4R?4u?4f?4x@ 10011b20     bncs_style.obj
 0003:00008c04       ??_C@_0OB@ELNL@?4x?4g?4n?4pQt?4d?4f?4x?4x?4f?4g?4c?4E?4v?4gQt@ 10011c04     bncs_style.obj
 0003:00008ce8       ??_C@_0OB@KHOM@Qt?4i?4i?4gQt?4eQt?4i?4iQt?4e?4xQt?4a?4d?4x@ 10011ce8     bncs_style.obj
 0003:00008dcc       ??_C@_0OB@EJPF@?4x?4f?4x?4f?4i?4i?4i?4w?4u?4?$CD?4A?4S?4D?4D?4u?4f@ 10011dcc     bncs_style.obj
 0003:00008eb0       ??_C@_0OB@NCFL@?4c?4k?4f?4?$CD?4a?4d?4?$CD?4d?4gQt?4e?4x?4r?4u?4V?4D@ 10011eb0     bncs_style.obj
 0003:00008f94       ??_C@_0OB@FBCJ@?4f?4q?4e?4d?4xQt?4dQt?4h?4h?4k?4e?4d?4v?4rQt@ 10011f94     bncs_style.obj
 0003:00009078       ??_C@_0OB@CCOA@?4a?4bQt?4d?4g?4g?4d?4f?4f?4e?4h?4p?4n?4g?4g?4x@ 10012078     bncs_style.obj
 0003:0000915c       ??_C@_0OB@GFKK@?4a?4f?4g?4c?4c?4r?4i?4c?4r?4d?4x?4h?4hQt?4c?4r@ 1001215c     bncs_style.obj
 0003:00009240       ??_C@_0OB@HLFC@?4e?4x?4xQt?4a?4d?4a?4a?4b?4a?4i?4c?4f?4g?4d?4r@ 10012240     bncs_style.obj
 0003:00009324       ??_C@_0OB@MLKP@?4h?4x?4b?4n?4g?4aQt?4f?4e?4c?4?$CD?4c?4f?4g?4r?4j@ 10012324     bncs_style.obj
 0003:00009408       ??_C@_0OB@PFPF@?4b?4cQt?4b?4d?4d?4x?4f?4d?4r?4cQt?4e?4f?4r?4v@ 10012408     bncs_style.obj
 0003:000094ec       ??_C@_0OB@OCLN@Qt?4?$CD?4a?4b?4c?4d?4eQt?4e?4f?4g?4g?4g?4f?4e?4h@ 100124ec     bncs_style.obj
 0003:000095d0       ??_C@_0N@ODCP@?4Y?5c?5?$CD8c8aa2?$AA@ 100125d0     bncs_style.obj
 0003:000095e0       ??_C@_0N@EBCE@?43?5c?5?$CD89879f?$AA@ 100125e0     bncs_style.obj
 0003:000095f0       ??_C@_0N@KLGB@?46?5c?5?$CD7e7c94?$AA@ 100125f0     bncs_style.obj
 0003:00009600       ??_C@_0N@NKGO@?47?5c?5?$CD7c7a92?$AA@ 10012600     bncs_style.obj
 0003:00009610       ??_C@_0N@LPGO@?$CD?4?5c?5?$CD716f87?$AA@ 10012610     bncs_style.obj
 0003:00009620       ??_C@_0N@LGKK@?$CDr?5c?5?$CD706e86?$AA@ 10012620     bncs_style.obj
 0003:00009630       ??_C@_0N@KPPE@?$CDs?5c?5?$CD6f6d85?$AA@ 10012630     bncs_style.obj
 0003:00009640       ??_C@_0N@FAGB@?$CD?$CD?5c?5?$CD6e6c84?$AA@ 10012640     bncs_style.obj
 0003:00009650       ??_C@_0N@OKLG@?$CDj?5c?5?$CD6d6b83?$AA@ 10012650     bncs_style.obj
 0003:00009660       ??_C@_0N@FFEC@?$CDt?5c?5?$CD6c6a82?$AA@ 10012660     bncs_style.obj
 0003:00009670       ??_C@_0N@DMIB@?49?5c?5?$CD6b6981?$AA@ 10012670     bncs_style.obj
 0003:00009680       ??_C@_0N@MOOA@?48?5c?5?$CD6a6880?$AA@ 10012680     bncs_style.obj
 0003:00009690       ??_C@_0N@CIH@?4O?5c?5?$CD69677f?$AA@ 10012690     bncs_style.obj
 0003:000096a0       ??_C@_0N@MALP@?$CDa?5c?5?$CD68667e?$AA@ 100126a0     bncs_style.obj
 0003:000096b0       ??_C@_0N@NKDN@?4Z?5c?5?$CD67657d?$AA@ 100126b0     bncs_style.obj
 0003:000096c0       ??_C@_0N@KELN@?44?5c?5?$CD66647c?$AA@ 100126c0     bncs_style.obj
 0003:000096d0       ??_C@_0N@MLAB@?4K?5c?5?$CD65637b?$AA@ 100126d0     bncs_style.obj
 0003:000096e0       ??_C@_0N@JMJG@?$CDb?5c?5?$CD64627a?$AA@ 100126e0     bncs_style.obj
 0003:000096f0       ??_C@_0N@JNON@?4L?5c?5?$CD636179?$AA@ 100126f0     bncs_style.obj
 0003:00009700       ??_C@_0N@LEOD@?42?5c?5?$CD626078?$AA@ 10012700     bncs_style.obj
 0003:00009710       ??_C@_0N@MACI@?4W?5c?5?$CD615f77?$AA@ 10012710     bncs_style.obj
 0003:00009720       ??_C@_0N@HJJH@?4z?5c?5?$CD605e76?$AA@ 10012720     bncs_style.obj
 0003:00009730       ??_C@_0N@IDJH@?40?5c?5?$CD5f5d75?$AA@ 10012730     bncs_style.obj
 0003:00009740       ??_C@_0N@JNIB@?41?5c?5?$CD5e5c74?$AA@ 10012740     bncs_style.obj
 0003:00009750       ??_C@_0N@MPBK@?4m?5c?5?$CD5d5b73?$AA@ 10012750     bncs_style.obj
 0003:00009760       ??_C@_0N@FODG@?4U?5c?5?$CD5c5a72?$AA@ 10012760     bncs_style.obj
 0003:00009770       ??_C@_0N@GDGC@?4I?5c?5?$CD5b5971?$AA@ 10012770     bncs_style.obj
 0003:00009780       ??_C@_0N@FANC@?4G?5c?5?$CD5a5870?$AA@ 10012780     bncs_style.obj
 0003:00009790       ??_C@_0N@PIGI@?4X?5c?5?$CD59576f?$AA@ 10012790     bncs_style.obj
 0003:000097a0       ??_C@_0N@DGPA@?4C?5c?5?$CD58566e?$AA@ 100127a0     bncs_style.obj
 0003:000097b0       ??_C@_0N@HGGP@?4Q?5c?5?$CD57556d?$AA@ 100127b0     bncs_style.obj
 0003:000097c0       ??_C@_0N@BCKL@?4J?5c?5?$CD56546c?$AA@ 100127c0     bncs_style.obj
 0003:000097d0       ??_C@_0N@DDCN@?4H?5c?5?$CD55536b?$AA@ 100127d0     bncs_style.obj
 0003:000097e0       ??_C@_0N@HOBH@?4M?5c?5?$CD54526a?$AA@ 100127e0     bncs_style.obj
 0003:000097f0       ??_C@_0N@NLDA@?4F?5c?5?$CD535169?$AA@ 100127f0     bncs_style.obj
 0003:00009800       ??_C@_0N@FDAN@?4l?5c?5?$CD525068?$AA@ 10012800     bncs_style.obj
 0003:00009810       ??_C@_0N@NIJP@?4P?5c?5?$CD514f67?$AA@ 10012810     bncs_style.obj
 0003:00009820       ??_C@_0N@MLBP@?4y?5c?5?$CD504e66?$AA@ 10012820     bncs_style.obj
 0003:00009830       ??_C@_0N@IGDP@?4p?5c?5?$CD4f4d65?$AA@ 10012830     bncs_style.obj
 0003:00009840       ??_C@_0N@JICJ@?4q?5c?5?$CD4e4c64?$AA@ 10012840     bncs_style.obj
 0003:00009850       ??_C@_0N@CJPC@?4h?5c?5?$CD4d4b63?$AA@ 10012850     bncs_style.obj
 0003:00009860       ??_C@_0N@CKDE@?4k?5c?5?$CD4c4a62?$AA@ 10012860     bncs_style.obj
 0003:00009870       ??_C@_0N@BGN@?4n?5c?5?$CD4b4961?$AA@ 10012870     bncs_style.obj
 0003:00009880       ??_C@_0N@OHMC@?4b?5c?5?$CD4a4860?$AA@ 10012880     bncs_style.obj
 0003:00009890       ??_C@_0N@JOKP@?4e?5c?5?$CD49475f?$AA@ 10012890     bncs_style.obj
 0003:000098a0       ??_C@_0N@CPBH@?4x?5c?5?$CD48465e?$AA@ 100128a0     bncs_style.obj
 0003:000098b0       ??_C@_0N@JLLB@Qt?5c?5?$CD47455d?$AA@ 100128b0     bncs_style.obj
 0003:000098c0       ??_C@_0N@DGBP@?4f?5c?5?$CD46445c?$AA@ 100128c0     bncs_style.obj
 0003:000098d0       ??_C@_0N@CIAJ@?4g?5c?5?$CD45435b?$AA@ 100128d0     bncs_style.obj
 0003:000098e0       ??_C@_0N@FKKD@?4a?5c?5?$CD44425a?$AA@ 100128e0     bncs_style.obj
 0003:000098f0       ??_C@_0N@NENK@?4d?5c?5?$CD434159?$AA@ 100128f0     bncs_style.obj
 0003:00009900       ??_C@_0N@BJNB@?4c?5c?5?$CD424058?$AA@ 10012900     bncs_style.obj
 0003:00009910       ??_C@_0N@IJJ@?4r?5c?5?$CD413f57?$AA@ 10012910     bncs_style.obj
 0003:00009920       ??_C@_0N@DHAC@?4i?5c?5?$CD403e56?$AA@ 10012920     bncs_style.obj
 0003:00009930       ??_C@_0N@JLIC@?4?$CD?5c?5?$CD3f3d55?$AA@ 10012930     bncs_style.obj
 0003:00009940       ??_C@_0N@CEKH@?4v?5c?5?$CD3e3c54?$AA@ 10012940     bncs_style.obj
 0003:00009950       ??_C@_0N@NFMM@?4j?5c?5?$CD3d3b53?$AA@ 10012950     bncs_style.obj
 0003:00009960       ??_C@_0N@HJLD@?4E?5c?5?$CD3c3a52?$AA@ 10012960     bncs_style.obj
 0003:00009970       ??_C@_0N@DOEB@?4w?5c?5?$CD3b3951?$AA@ 10012970     bncs_style.obj
 0003:00009980       ??_C@_0N@NKCN@?4o?5c?5?$CD3a3850?$AA@ 10012980     bncs_style.obj
 0003:00009990       ??_C@_0N@GBBM@?4A?5c?5?$CD39374f?$AA@ 10012990     bncs_style.obj
 0003:000099a0       ??_C@_0N@DPKN@?4u?5c?5?$CD38364e?$AA@ 100129a0     bncs_style.obj
 0003:000099b0       ??_C@_0N@GOHK@?4B?5c?5?$CD37354d?$AA@ 100129b0     bncs_style.obj
 0003:000099c0       ??_C@_0N@NKCH@?4s?5c?5?$CD36344c?$AA@ 100129c0     bncs_style.obj
 0003:000099d0       ??_C@_0N@ECBF@?4D?5c?5?$CD35334b?$AA@ 100129d0     bncs_style.obj
 0003:000099e0       ??_C@_0N@DCHM@?4V?5c?5?$CD34324a?$AA@ 100129e0     bncs_style.obj
 0003:000099f0       ??_C@_0N@CJKK@?4T?5c?5?$CD333149?$AA@ 100129f0     bncs_style.obj
 0003:00009a00       ??_C@_0N@OEKB@?4S?5c?5?$CD323048?$AA@ 10012a00     bncs_style.obj
 0003:00009a10       ??_C@_0N@KMCB@?4t?5c?5?$CD312f47?$AA@ 10012a10     bncs_style.obj
 0003:00009a20       ??_C@_0N@CIMN@?4N?5c?5?$CD302e46?$AA@ 10012a20     bncs_style.obj
 0003:00009a30       ??_C@_0N@INKB@?4R?5c?5?$CD2f2d45?$AA@ 10012a30     bncs_style.obj
 0003:00009a40       ??_C@_0N@BOJP@?45?5c?5?$CD2e2c44?$AA@ 10012a40     bncs_style.obj
 0003:00009a50       ??_C@_0N@ONNO@?$CDd?5c?5?$CD2d2b43?$AA@ 10012a50     bncs_style.obj
 0003:00009a60       ??_C@_0N@DLAH@?$CDe?5c?5?$CD2c2a42?$AA@ 10012a60     bncs_style.obj
 0003:00009a70       ??_C@_0N@KOKP@?$CDi?5c?5?$CD2b2941?$AA@ 10012a70     bncs_style.obj
 0003:00009a80       ??_C@_0N@HHJA@?$CDf?5c?5?$CD2a2840?$AA@ 10012a80     bncs_style.obj
 0003:00009a90       ??_C@_0N@IBEI@?$CDc?5c?5?$CD29273f?$AA@ 10012a90     bncs_style.obj
 0003:00009aa0       ??_C@_0N@BLKO@?$CDp?5c?5?$CD28263e?$AA@ 10012aa0     bncs_style.obj
 0003:00009ab0       ??_C@_0N@NKFA@?$CDh?5c?5?$CD27253d?$AA@ 10012ab0     bncs_style.obj
 0003:00009ac0       ??_C@_0N@CKG@?$CDn?5c?5?$CD26243c?$AA@ 10012ac0     bncs_style.obj
 0003:00009ad0       ??_C@_0N@LGIP@?$CDk?5c?5?$CD25233b?$AA@ 10012ad0     bncs_style.obj
 0003:00009ae0       ??_C@_0N@EFEE@?$CDg?5c?5?$CD24223a?$AA@ 10012ae0     bncs_style.obj
 0003:00009af0       ??_C@_0N@OAGD@?$CDl?5c?5?$CD232139?$AA@ 10012af0     bncs_style.obj
 0003:00009b00       ??_C@_0N@FCEI@?$CDm?5c?5?$CD222038?$AA@ 10012b00     bncs_style.obj
 0003:00009b10       ??_C@_0N@GILJ@?$CDu?5c?5?$CD211f37?$AA@ 10012b10     bncs_style.obj
 0003:00009b20       ??_C@_0N@DOAP@?$CDq?5c?5?$CD201e36?$AA@ 10012b20     bncs_style.obj
 0003:00009b30       ??_C@_0N@JBKF@?$CDo?5c?5?$CD1e1c34?$AA@ 10012b30     bncs_style.obj
 0003:00009b40       ??_C@_0N@MPFH@112?5115?587?52?$AA@ 10012b40     bncs_style.obj
 0003:00009b50       ??_C@_04JKMM@dark?$AA@     10012b50     bncs_style.obj
 0003:00009b58       ??_C@_07MHME@?$CD400000?$AA@ 10012b58     bncs_style.obj
 0003:00009b60       ??_C@_03MMPD@mid?$AA@      10012b60     bncs_style.obj
 0003:00009b64       ??_C@_07DMEF@?$CD800000?$AA@ 10012b64     bncs_style.obj
 0003:00009b6c       ??_C@_07FKBN@colours?$AA@  10012b6c     bncs_style.obj
 0003:00009b74       ??_C@_05DKPF@light?$AA@    10012b74     bncs_style.obj
 0003:00009b7c       ??_C@_07BFFB@?$CDff0000?$AA@ 10012b7c     bncs_style.obj
 0003:00009b84       ??_C@_0M@MOGL@?2style2?4col?$AA@ 10012b84     bncs_style.obj
 0003:00009b90       ??_C@_0M@MBPF@?1style2?4png?$AA@ 10012b90     bncs_style.obj
 0003:00009b9c       ??_C@_09EFEJ@CC_SYSTEM?$AA@ 10012b9c     bncs_style.obj
 0003:00009ba8       ??_C@_01PCFE@?2?$AA@       10012ba8     bncs_style.obj
 0003:00009bac       ??_C@_07FCNI@CC_ROOT?$AA@  10012bac     bncs_style.obj
 0003:00009bb4       ??_C@_07MHJP@?$CDffffff?$AA@ 10012bb4     bncs_style.obj
 0003:00009bbc       ??_C@_07JBEE@?$CD000000?$AA@ 10012bbc     bncs_style.obj
 0003:00009bc4       ??_C@_0M@DOKO@bncs_vis_ed?$AA@ 10012bc4     bncs_style.obj
 0003:00009bd0       ??_C@_06CPLI@Tahoma?$AA@   10012bd0     bncs_style.obj
 0003:00009bd8       ??_C@_08ODBD@FontSize?$AA@ 10012bd8     bncs_style.obj
 0003:00009be4       ??_C@_02FCMB@10?$AA@       10012be4     bncs_style.obj
 0003:00009be8       ??_C@_04CLJC@Font?$AA@     10012be8     bncs_style.obj
 0003:00009bf0       ??_C@_05CNHG@Arial?$AA@    10012bf0     bncs_style.obj
 0003:00009bf8       ??_C@_05GMF@white?$AA@     10012bf8     bncs_style.obj
 0003:00009c00       ??_C@_0BE@DMCF@?1config?1stylesheet?1?$AA@ 10012c00     bncs_style.obj
 0003:00009c14       ??_C@_0BE@PHAH@BackgroundImageName?$AA@ 10012c14     bncs_style.obj
 0003:00009c28       ??_C@_0P@NHEH@background?4png?$AA@ 10012c28     bncs_style.obj
 0003:00009c38       ??_C@_0L@IKLA@TextColour?$AA@ 10012c38     bncs_style.obj
 0003:00009c44       ??_C@_05IBOL@black?$AA@    10012c44     bncs_style.obj
 0003:00009c4c       ??_C@_0N@JFPN@ButtonColour?$AA@ 10012c4c     bncs_style.obj
 0003:00009c5c       ??_C@_06CKHP@Styles?$AA@   10012c5c     bncs_style.obj
 0003:00009c64       ??_C@_0BB@CLNL@BackgroundColour?$AA@ 10012c64     bncs_style.obj
 0003:00009c78       ??_C@_07DJLL@?$CDD6D3CE?$AA@ 10012c78     bncs_style.obj
 0003:00009c80       ??_C@_0BF@PBCH@?2config?2g_pnlman?4ini?$AA@ 10012c80     bncs_style.obj
 0003:00009c98       ??_C@_07CEKE@QSlider?$AA@  10012c98     bncs_style.obj
 0003:00009ca4       ??_C@_0EO@MOAO@pattern?$DNQT_UCM_VERIFICATION_DATA@ 10012ca4     plugin.obj
 0003:00009cf4       ??_C@_0M@INNG@bncs_style5?$AA@ 10012cf4     plugin.obj
 0003:00009d00       ??_C@_0M@CHEB@bncs_style4?$AA@ 10012d00     plugin.obj
 0003:00009d0c       ??_C@_0M@HCKE@bncs_style3?$AA@ 10012d0c     plugin.obj
 0003:00009d18       ??_C@_0M@NIDD@bncs_style2?$AA@ 10012d18     plugin.obj
 0003:00009d24       ??_C@_0L@INMI@bncs_style?$AA@ 10012d24     plugin.obj
 0003:00009d34       ?metaObj@bncs_style@@0PAVQMetaObject@@A 10012d34     moc_bncs_style.obj
 0003:00009d3c       __adjust_fdiv              10012d3c     <common>
 0003:00009d40       __pRawDllMain              10012d40     <common>
 0003:00009d44       ___onexitend               10012d44     <common>
 0003:00009d48       ___onexitbegin             10012d48     <common>

 entry point at        0001:00003dd9

 Static symbols

 0001:00003900       _$E103                     10004900 f   moc_bncs_style.obj
 0001:00003910       _$E100                     10004910 f   moc_bncs_style.obj
 0001:00003930       _$E102                     10004930 f   moc_bncs_style.obj
 0001:00003940       _$E101                     10004940 f   moc_bncs_style.obj
 0001:00003cce       ?ArrayUnwindFilter@@YAHPAU_EXCEPTION_POINTERS@@@Z 10004cce f   MSVCRT:ehvecdtr.obj
