 AlarmControl

 Timestamp is 56de003d (Mon Mar 07 22:27:09 2016)

 Preferred load address is 00400000

 Start         Length     Name                   Class
 0001:00000000 0001a2a4H .text                   CODE
 0001:0001a2b0 0000275eH .text$x                 CODE
 0002:00000000 00001168H .idata$5                DATA
 0002:00001168 00002decH .rdata                  DATA
 0002:00003f58 00001374H .rdata$r                DATA
 0002:000052d0 00002ac8H .xdata$x                DATA
 0002:00007d98 000000a0H .idata$2                DATA
 0002:00007e38 00000014H .idata$3                DATA
 0002:00007e4c 00001168H .idata$4                DATA
 0002:00008fb4 0000b190H .idata$6                DATA
 0002:00014144 00000000H .edata                  DATA
 0003:00000000 00000004H .CRT$XCA                DATA
 0003:00000004 00000034H .CRT$XCU                DATA
 0003:00000038 00000004H .CRT$XCZ                DATA
 0003:0000003c 00000004H .CRT$XIA                DATA
 0003:00000040 00000004H .CRT$XIZ                DATA
 0003:00000050 00004704H .data                   DATA
 0003:00004758 00000148H .bss                    DATA
 0004:00000000 00000148H .rsrc$01                DATA
 0004:00000150 00000900H .rsrc$02                DATA

  Address         Publics by Value              Rva+Base     Lib:Object

 0001:00000000       ??0CAcqStore@@QAE@H@Z      00401000 f   AcqStore.obj
 0001:00000020       ??_ECAcqStore@@UAEPAXI@Z   00401020 f i AcqStore.obj
 0001:00000020       ??_GCAcqStore@@UAEPAXI@Z   00401020 f i AcqStore.obj
 0001:00000040       ??1CAcqStore@@UAE@XZ       00401040 f   AcqStore.obj
 0001:00000050       ?getState@CAcqStore@@QAEHH@Z 00401050 f   AcqStore.obj
 0001:00000080       ?setData@CAcqStore@@QAEX_NHPAH@Z 00401080 f   AcqStore.obj
 0001:00000130       ??0AlarmControlMainWindow@@QAE@PAVQWidget@@PBDI@Z 00401130 f   alarmcontrolmainwindow.obj
 0001:00002190       ??8@YA_NVQChar@@D@Z        00403190 f i alarmcontrolmainwindow.obj
 0001:000021b0       ?metaObject@AlarmControlMainWindow@@UBEPAVQMetaObject@@XZ 004031b0 f i alarmcontrolmainwindow.obj
 0001:000021c0       ??_GAlarmControlMainWindow@@UAEPAXI@Z 004031c0 f i alarmcontrolmainwindow.obj
 0001:000021c0       ??_EAlarmControlMainWindow@@UAEPAXI@Z 004031c0 f i alarmcontrolmainwindow.obj
 0001:000021e0       ??_GQSemaphore@@UAEPAXI@Z  004031e0 f i alarmcontrolmainwindow.obj
 0001:000021e0       ??_EQSemaphore@@UAEPAXI@Z  004031e0 f i alarmcontrolmainwindow.obj
 0001:00002200       ??_GQMenuBar@@UAEPAXI@Z    00403200 f i alarmcontrolmainwindow.obj
 0001:00002200       ??_EQMenuBar@@UAEPAXI@Z    00403200 f i alarmcontrolmainwindow.obj
 0001:00002220       ??_EQPopupMenu@@UAEPAXI@Z  00403220 f i alarmcontrolmainwindow.obj
 0001:00002220       ??_GQPopupMenu@@UAEPAXI@Z  00403220 f i alarmcontrolmainwindow.obj
 0001:00002240       ??1AlarmControlMainWindow@@UAE@XZ 00403240 f   alarmcontrolmainwindow.obj
 0001:00002720       ?Start@AlarmControlMainWindow@@QAE_NXZ 00403720 f   alarmcontrolmainwindow.obj
 0001:000031a0       ??1?$map@VQString@@HU?$less@VQString@@@std@@V?$allocator@H@3@@std@@QAE@XZ 004041a0 f i alarmcontrolmainwindow.obj
 0001:000032a0       ??_EQTimer@@UAEPAXI@Z      004042a0 f i alarmcontrolmainwindow.obj
 0001:000032a0       ??_GQTimer@@UAEPAXI@Z      004042a0 f i alarmcontrolmainwindow.obj
 0001:000032c0       ?checkStartupOk@LoadDirectoryInputs@AlarmControlMainWindow@@QBE_NXZ 004042c0 f   alarmcontrolmainwindow.obj
 0001:00003370       ?GetDateTimeString@AlmConfig@@QBE?AVQString@@XZ 00404370 f   alarmcontrolmainwindow.obj
 0001:00003450       ?getCfgIndex@AlmConfig@@QBEHXZ 00404450 f   alarmcontrolmainwindow.obj
 0001:00003460       ??0AlmConfig@@QAE@PAVAlarmControlMainWindow@@PAVQLibrary@@H@Z 00404460 f   alarmcontrolmainwindow.obj
 0001:00003570       ??_EAlmConfig@@UAEPAXI@Z   00404570 f i alarmcontrolmainwindow.obj
 0001:00003570       ??_GAlmConfig@@UAEPAXI@Z   00404570 f i alarmcontrolmainwindow.obj
 0001:00003590       ??1AlmConfig@@UAE@XZ       00404590 f   alarmcontrolmainwindow.obj
 0001:00003610       ?Debug@AlmConfig@@UAEXABVQString@@@Z 00404610 f   alarmcontrolmainwindow.obj
 0001:00003690       ?Log@AlmConfig@@UAEXABVQString@@@Z 00404690 f   alarmcontrolmainwindow.obj
 0001:000036b0       ?AppendLog@AlmConfig@@UAEXABVQString@@@Z 004046b0 f   alarmcontrolmainwindow.obj
 0001:000037d0       ?SetPrefix@AlmConfig@@UAEXABVQString@@@Z 004047d0 f   alarmcontrolmainwindow.obj
 0001:000037f0       ?getModuleLog@AlmConfig@@QBE?AVQStringList@@XZ 004047f0 f   alarmcontrolmainwindow.obj
 0001:00003810       ?getIsNewLogEntry@AlmConfig@@QBE_NXZ 00404810 f   alarmcontrolmainwindow.obj
 0001:00003820       ?setIsNewLogEntry@AlmConfig@@QAEX_N@Z 00404820 f   alarmcontrolmainwindow.obj
 0001:00003830       ?checkLibLoaded@AlmConfig@@IAEXXZ 00404830 f   alarmcontrolmainwindow.obj
 0001:000038c0       ?moduleChangeEvent@AlmConfig@@EAEXXZ 004048c0 f   alarmcontrolmainwindow.obj
 0001:000038d0       ??0AcqConfig@@QAE@PAVAlarmControlMainWindow@@PAVQLibrary@@H@Z 004048d0 f   alarmcontrolmainwindow.obj
 0001:00003910       ??_EAcqConfig@@UAEPAXI@Z   00404910 f i alarmcontrolmainwindow.obj
 0001:00003910       ??_GAcqConfig@@UAEPAXI@Z   00404910 f i alarmcontrolmainwindow.obj
 0001:00003930       ??1AcqConfig@@UAE@XZ       00404930 f   alarmcontrolmainwindow.obj
 0001:000039e0       ?getBase@AcqConfig@@QBEPAValarms_input_base@@XZ 004049e0 f   alarmcontrolmainwindow.obj
 0001:000039e0       ?getBase@OutConfig@@QBEPAValarms_output_base@@XZ 004049e0 f   alarmcontrolmainwindow.obj
 0001:000039f0       ?extractCreate@AcqConfig@@QAE_NXZ 004049f0 f   alarmcontrolmainwindow.obj
 0001:00003ab0       ?doInitialization@AcqConfig@@QAE_NABVQString@@0W4EAlarmTestMode@alarms_input_base@@HQAPAVCAcqStore@@_NH@Z 00404ab0 f   alarmcontrolmainwindow.obj
 0001:00003b50       ??0OutConfig@@QAE@PAVAlarmControlMainWindow@@PAVQLibrary@@H@Z 00404b50 f   alarmcontrolmainwindow.obj
 0001:00003b90       ??_GOutConfig@@UAEPAXI@Z   00404b90 f i alarmcontrolmainwindow.obj
 0001:00003b90       ??_EOutConfig@@UAEPAXI@Z   00404b90 f i alarmcontrolmainwindow.obj
 0001:00003bb0       ??1OutConfig@@UAE@XZ       00404bb0 f   alarmcontrolmainwindow.obj
 0001:00003c60       ?extractCreate@OutConfig@@QAE_NXZ 00404c60 f   alarmcontrolmainwindow.obj
 0001:00003d30       ?doInitialization@OutConfig@@QAE_NABVQString@@00ABVQStringList@@QAV?$list@PAVCalarm_Process@@V?$allocator@PAVCalarm_Process@@@std@@@std@@QAVQSemaphore@@QAHH_NH@Z 00404d30 f   alarmcontrolmainwindow.obj
 0001:00003e10       ?about@AlarmControlMainWindow@@AAEXXZ 00404e10 f   alarmcontrolmainwindow.obj
 0001:00004230       ?DebugOn@AlarmControlMainWindow@@AAEXXZ 00405230 f   alarmcontrolmainwindow.obj
 0001:000042c0       ?DebugClear@AlarmControlMainWindow@@AAEXXZ 004052c0 f   alarmcontrolmainwindow.obj
 0001:000042c0       ?DebugMenuShow@AlarmControlMainWindow@@AAEXXZ 004052c0 f   alarmcontrolmainwindow.obj
 0001:000042c0       ?Dummy@AlarmControlMainWindow@@AAEXXZ 004052c0 f   alarmcontrolmainwindow.obj
 0001:000042c0       ?testGetData@AlarmControlMainWindow@@AAEXXZ 004052c0 f   alarmcontrolmainwindow.obj
 0001:000042d0       ??0LoadDirectory@AlarmControlMainWindow@@IAE@PAV1@@Z 004052d0 f   alarmcontrolmainwindow.obj
 0001:000042f0       ??_GLoadDirectory@AlarmControlMainWindow@@MAEPAXI@Z 004052f0 f i alarmcontrolmainwindow.obj
 0001:000042f0       ??_ELoadDirectory@AlarmControlMainWindow@@MAEPAXI@Z 004052f0 f i alarmcontrolmainwindow.obj
 0001:00004310       ?loadDirectory@LoadDirectory@AlarmControlMainWindow@@QAE_NABVQString@@0@Z 00405310 f   alarmcontrolmainwindow.obj
 0001:00004c30       ??_GQLibrary@@UAEPAXI@Z    00405c30 f i alarmcontrolmainwindow.obj
 0001:00004c30       ??_EQLibrary@@UAEPAXI@Z    00405c30 f i alarmcontrolmainwindow.obj
 0001:00004c50       ??0LoadDirectoryInputs@AlarmControlMainWindow@@QAE@PAV1@@Z 00405c50 f   alarmcontrolmainwindow.obj
 0001:00004cc0       ??1LoadDirectory@AlarmControlMainWindow@@MAE@XZ 00405cc0 f i alarmcontrolmainwindow.obj
 0001:00004cd0       ??_ELoadDirectoryInputs@AlarmControlMainWindow@@UAEPAXI@Z 00405cd0 f i alarmcontrolmainwindow.obj
 0001:00004cd0       ??_GLoadDirectoryInputs@AlarmControlMainWindow@@UAEPAXI@Z 00405cd0 f i alarmcontrolmainwindow.obj
 0001:00004cf0       ??1LoadDirectoryInputs@AlarmControlMainWindow@@UAE@XZ 00405cf0 f   alarmcontrolmainwindow.obj
 0001:00004d60       ?insert@LoadDirectoryInputs@AlarmControlMainWindow@@UAEXPAV2@PAVQLibrary@@PAVQFileInfo@@H@Z 00405d60 f   alarmcontrolmainwindow.obj
 0001:00004e20       ?getFolder@LoadDirectoryInputs@AlarmControlMainWindow@@UBE?AVQString@@XZ 00405e20 f   alarmcontrolmainwindow.obj
 0001:00004e50       ?getFileNamePrefix@LoadDirectoryInputs@AlarmControlMainWindow@@UBE?AVQString@@XZ 00405e50 f   alarmcontrolmainwindow.obj
 0001:00004e80       ??0LoadDirectoryOutputs@AlarmControlMainWindow@@QAE@PAV1@@Z 00405e80 f   alarmcontrolmainwindow.obj
 0001:00004ef0       ??_GLoadDirectoryOutputs@AlarmControlMainWindow@@UAEPAXI@Z 00405ef0 f i alarmcontrolmainwindow.obj
 0001:00004ef0       ??_ELoadDirectoryOutputs@AlarmControlMainWindow@@UAEPAXI@Z 00405ef0 f i alarmcontrolmainwindow.obj
 0001:00004f10       ??1LoadDirectoryOutputs@AlarmControlMainWindow@@UAE@XZ 00405f10 f   alarmcontrolmainwindow.obj
 0001:00004f80       ?insert@LoadDirectoryOutputs@AlarmControlMainWindow@@UAEXPAV2@PAVQLibrary@@PAVQFileInfo@@H@Z 00405f80 f   alarmcontrolmainwindow.obj
 0001:00005040       ?getFolder@LoadDirectoryOutputs@AlarmControlMainWindow@@UBE?AVQString@@XZ 00406040 f   alarmcontrolmainwindow.obj
 0001:00005070       ?getFileNamePrefix@LoadDirectoryOutputs@AlarmControlMainWindow@@UBE?AVQString@@XZ 00406070 f   alarmcontrolmainwindow.obj
 0001:000050a0       ?getInitialHeading@LoadDirectoryInputs@AlarmControlMainWindow@@UBE?AW4ELastEvent@ModuleListViewItem@@XZ 004060a0 f   alarmcontrolmainwindow.obj
 0001:000050a0       ?getInitialHeading@LoadDirectoryOutputs@AlarmControlMainWindow@@UBE?AW4ELastEvent@ModuleListViewItem@@XZ 004060a0 f   alarmcontrolmainwindow.obj
 0001:000050a0       ?getType@LoadDirectoryInputs@AlarmControlMainWindow@@UBE?AW4EType@ModuleListViewItem@@XZ 004060a0 f   alarmcontrolmainwindow.obj
 0001:000050b0       ?getType@LoadDirectoryOutputs@AlarmControlMainWindow@@UBE?AW4EType@ModuleListViewItem@@XZ 004060b0 f   alarmcontrolmainwindow.obj
 0001:000050c0       ?loadDirectory@AlarmControlMainWindow@@AAE_NABVQString@@0@Z 004060c0 f   alarmcontrolmainwindow.obj
 0001:000054f0       ?CreateAcqStore@AlarmControlMainWindow@@AAE_NXZ 004064f0 f   alarmcontrolmainwindow.obj
 0001:00005650       ?loadInputs@AlarmControlMainWindow@@AAE_NXZ 00406650 f   alarmcontrolmainwindow.obj
 0001:00005ab0       ?loadOutputs@AlarmControlMainWindow@@AAE_NXZ 00406ab0 f   alarmcontrolmainwindow.obj
 0001:00005ec0       ?UpdateDisplayFast@AlarmControlMainWindow@@AAEXXZ 00406ec0 f   alarmcontrolmainwindow.obj
 0001:00006350       ?UpdateDisplaySlow@AlarmControlMainWindow@@AAEXXZ 00407350 f   alarmcontrolmainwindow.obj
 0001:000066c0       ?UpdateTxRx@AlarmControlMainWindow@@AAEXXZ 004076c0 f   alarmcontrolmainwindow.obj
 0001:00006ae0       ?UpdateDisplay@AlarmControlMainWindow@@AAEXPAVModuleListViewItem@@PAValarms_base@@AAH2@Z 00407ae0 f   alarmcontrolmainwindow.obj
 0001:00006b90       ?UpdateDisplay@AlarmControlMainWindow@@AAEXPAVModuleListViewItem@@W4ELoadedness@1@@Z 00407b90 f   alarmcontrolmainwindow.obj
 0001:00006bf0       ?UpdateDisplay@AlarmControlMainWindow@@AAEXVQString@@W4ELoadedness@1@@Z 00407bf0 f   alarmcontrolmainwindow.obj
 0001:00006c90       ?UpdateDisplay@AlarmControlMainWindow@@AAEXABVQString@@QAValarms_base@@AA_NAAH3@Z 00407c90 f   alarmcontrolmainwindow.obj
 0001:00006d30       ?AddModuleLog@AlarmControlMainWindow@@AAEXAAVQStringList@@@Z 00407d30 f   alarmcontrolmainwindow.obj
 0001:00006d80       ?processLoop@AlarmControlMainWindow@@AAEXXZ 00407d80 f   alarmcontrolmainwindow.obj
 0001:00006dd0       ?getAcqState@AlarmControlMainWindow@@QAEHHH@Z 00407dd0 f   alarmcontrolmainwindow.obj
 0001:00006f60       ?timerEvent@AlarmControlMainWindow@@EAEXPAVQTimerEvent@@@Z 00407f60 f   alarmcontrolmainwindow.obj
 0001:00007170       ?getInputData@AlarmControlMainWindow@@AAEXXZ 00408170 f   alarmcontrolmainwindow.obj
 0001:00007360       ?loadConfig@AlarmControlMainWindow@@AAE_NABVQString@@ABV?$map@VQString@@HU?$less@VQString@@@std@@V?$allocator@H@3@@std@@@Z 00408360 f   alarmcontrolmainwindow.obj
 0001:00008010       ?AddOneProcess@AlarmControlMainWindow@@AAEXPAVCalarm_Process@@ABVQString@@1ABV?$map@VQString@@HU?$less@VQString@@@std@@V?$allocator@H@3@@std@@@Z 00409010 f   alarmcontrolmainwindow.obj
 0001:000081d0       ?doCalculations@AlarmControlMainWindow@@AAE_NXZ 004091d0 f   alarmcontrolmainwindow.obj
 0001:000087f0       ?sendDataOutputs@AlarmControlMainWindow@@AAE_NXZ 004097f0 f   alarmcontrolmainwindow.obj
 0001:00008950       ?printData@AlarmControlMainWindow@@AAEXXZ 00409950 f   alarmcontrolmainwindow.obj
 0001:00008a80       ?changeSelected@AlarmControlMainWindow@@AAEXPAVQListViewItem@@@Z 00409a80 f   alarmcontrolmainwindow.obj
 0001:00008a90       ?changeSelected@AlarmControlMainWindow@@AAEXXZ 00409a90 f   alarmcontrolmainwindow.obj
 0001:00008ab0       ?changeSelected@AlarmControlMainWindow@@AAEXPAVQListViewItem@@_N@Z 00409ab0 f   alarmcontrolmainwindow.obj
 0001:00008d60       ?showMessageList@LoadDirectory@AlarmControlMainWindow@@QAE_NPAVAlmConfig@@_N@Z 00409d60 f   alarmcontrolmainwindow.obj
 0001:00008ea0       ?getDatFileFolder@AlarmControlMainWindow@@AAEXPAD@Z 00409ea0 f   alarmcontrolmainwindow.obj
 0001:00008ef0       ?loadFileData@AlarmControlMainWindow@@AAEXAAV?$map@VQString@@HU?$less@VQString@@@std@@V?$allocator@H@3@@std@@@Z 00409ef0 f   alarmcontrolmainwindow.obj
 0001:000091c0       ??1?$pair@$$CBVQString@@H@std@@QAE@XZ 0040a1c0 f i alarmcontrolmainwindow.obj
 0001:000091c0       ??1?$pair@VQString@@H@std@@QAE@XZ 0040a1c0 f i alarmcontrolmainwindow.obj
 0001:000091e0       ?saveFileData@AlarmControlMainWindow@@AAEXXZ 0040a1e0 f   alarmcontrolmainwindow.obj
 0001:00009620       ?LogOn@AlarmControlMainWindow@@AAEXH@Z 0040a620 f   alarmcontrolmainwindow.obj
 0001:000099e0       ?SwitchDebug@AlarmControlMainWindow@@AAEXXZ 0040a9e0 f   alarmcontrolmainwindow.obj
 0001:00009c10       ?diagnosticsOn@AlarmControlMainWindow@@AAEXXZ 0040ac10 f   alarmcontrolmainwindow.obj
 0001:00009d90       ?fillDiagnostics@AlarmControlMainWindow@@AAEXXZ 0040ad90 f   alarmcontrolmainwindow.obj
 0001:0000a150       ?diagHide@AlarmControlMainWindow@@AAEXXZ 0040b150 f   alarmcontrolmainwindow.obj
 0001:0000a180       ?UpdateDiagnosticsScreen@AlarmControlMainWindow@@AAEXXZ 0040b180 f   alarmcontrolmainwindow.obj
 0001:0000a190       ?updateDiagnosticsProcess@AlarmControlMainWindow@@AAEXPAVQListViewItem@@H@Z 0040b190 f   alarmcontrolmainwindow.obj
 0001:0000a260       ?updateProcesses@AlarmControlMainWindow@@AAEXXZ 0040b260 f   alarmcontrolmainwindow.obj
 0001:0000a380       ?diagForceState@AlarmControlMainWindow@@AAEXHABVQStringList@@@Z 0040b380 f   alarmcontrolmainwindow.obj
 0001:0000a4f0       ?findFilterProcess@AlarmControlMainWindow@@AAEXABVQString@@AA_N@Z 0040b4f0 f   alarmcontrolmainwindow.obj
 0001:0000a670       ?Debug@AlarmControlMainWindow@@AAAXPBDZZ 0040b670 f   alarmcontrolmainwindow.obj
 0001:0000a7c0       ?Debug@AlarmControlMainWindow@@QAEXABVQString@@@Z 0040b7c0 f   alarmcontrolmainwindow.obj
 0001:0000a7e0       ?loadColouringSettings@AlarmControlMainWindow@@AAEXABVQString@@AAW4EColouringActive@1@AAH@Z 0040b7e0 f   alarmcontrolmainwindow.obj
 0001:0000ade0       ?greeningClicked@AlarmControlMainWindow@@AAEXXZ 0040bde0 f   alarmcontrolmainwindow.obj
 0001:0000af60       ?reddingClicked@AlarmControlMainWindow@@AAEXXZ 0040bf60 f   alarmcontrolmainwindow.obj
 0001:0000b0e0       ?startGreening@AlarmControlMainWindow@@AAEXXZ 0040c0e0 f   alarmcontrolmainwindow.obj
 0001:0000b1b0       ?stopGreening@AlarmControlMainWindow@@AAEXXZ 0040c1b0 f   alarmcontrolmainwindow.obj
 0001:0000b2f0       ?startRedding@AlarmControlMainWindow@@AAEXXZ 0040c2f0 f   alarmcontrolmainwindow.obj
 0001:0000b3c0       ?stopRedding@AlarmControlMainWindow@@AAEXXZ 0040c3c0 f   alarmcontrolmainwindow.obj
 0001:0000b500       ?AppendLog@AlarmControlMainWindow@@QAEXABVQString@@@Z 0040c500 f   alarmcontrolmainwindow.obj
 0001:0000b630       ?StartExtraNetworkActivity@AlarmControlMainWindow@@AAEXXZ 0040c630 f   alarmcontrolmainwindow.obj
 0001:0000b6d0       ?moduleChangeEvent@AlarmControlMainWindow@@QAEXXZ 0040c6d0 f   alarmcontrolmainwindow.obj
 0001:0000b740       ?contextMenuRequested@AlarmControlMainWindow@@AAEXPAVQListViewItem@@ABVQPoint@@H@Z 0040c740 f   alarmcontrolmainwindow.obj
 0001:0000b9d0       ?restartAllPolls@AlarmControlMainWindow@@AAEXXZ 0040c9d0 f   alarmcontrolmainwindow.obj
 0001:0000baa0       ?forceRxOnly@AlarmControlMainWindow@@AAEXXZ 0040caa0 f   alarmcontrolmainwindow.obj
 0001:0000bcd0       ??1?$list@PAVCalarm_Process@@V?$allocator@PAVCalarm_Process@@@std@@@std@@QAE@XZ 0040ccd0 f i alarmcontrolmainwindow.obj
 0001:0000bd20       ?count@?$QDict@VOutConfig@@@@UBEIXZ 0040cd20 f i alarmcontrolmainwindow.obj
 0001:0000bd20       ?count@?$QDict@VAcqConfig@@@@UBEIXZ 0040cd20 f i alarmcontrolmainwindow.obj
 0001:0000bd30       ?clear@?$QDict@VAcqConfig@@@@UAEXXZ 0040cd30 f i alarmcontrolmainwindow.obj
 0001:0000bd30       ?clear@?$QDict@VOutConfig@@@@UAEXXZ 0040cd30 f i alarmcontrolmainwindow.obj
 0001:0000bd40       ??1?$QValueVector@H@@QAE@XZ 0040cd40 f i alarmcontrolmainwindow.obj
 0001:0000bd60       ??1?$_Tree@VQString@@U?$pair@$$CBVQString@@H@std@@U_Kfn@?$map@VQString@@HU?$less@VQString@@@std@@V?$allocator@H@3@@3@U?$less@VQString@@@3@V?$allocator@H@3@@std@@QAE@XZ 0040cd60 f i alarmcontrolmainwindow.obj
 0001:0000be50       ??1?$QDictIterator@VOutConfig@@@@QAE@XZ 0040ce50 f i alarmcontrolmainwindow.obj
 0001:0000be50       ??1?$QDictIterator@VAcqConfig@@@@QAE@XZ 0040ce50 f i alarmcontrolmainwindow.obj
 0001:0000be60       ?currentKey@?$QDictIterator@VOutConfig@@@@QBE?AVQString@@XZ 0040ce60 f i alarmcontrolmainwindow.obj
 0001:0000be60       ?currentKey@?$QDictIterator@VAcqConfig@@@@QBE?AVQString@@XZ 0040ce60 f i alarmcontrolmainwindow.obj
 0001:0000be80       ??1?$QPtrListIterator@VQFileInfo@@@@QAE@XZ 0040ce80 f i alarmcontrolmainwindow.obj
 0001:0000be90       ??_G?$QDict@VAcqConfig@@@@UAEPAXI@Z 0040ce90 f i alarmcontrolmainwindow.obj
 0001:0000be90       ??_E?$QDict@VAcqConfig@@@@UAEPAXI@Z 0040ce90 f i alarmcontrolmainwindow.obj
 0001:0000beb0       ??1?$QDict@VAcqConfig@@@@UAE@XZ 0040ceb0 f i alarmcontrolmainwindow.obj
 0001:0000bf10       ??_G?$QDict@VOutConfig@@@@UAEPAXI@Z 0040cf10 f i alarmcontrolmainwindow.obj
 0001:0000bf10       ??_E?$QDict@VOutConfig@@@@UAEPAXI@Z 0040cf10 f i alarmcontrolmainwindow.obj
 0001:0000bf30       ??1?$QDict@VOutConfig@@@@UAE@XZ 0040cf30 f i alarmcontrolmainwindow.obj
 0001:0000bf90       ?insert@?$list@PAVCalarm_Process@@V?$allocator@PAVCalarm_Process@@@std@@@std@@QAE?AViterator@12@V312@ABQAVCalarm_Process@@@Z 0040cf90 f i alarmcontrolmainwindow.obj
 0001:0000bff0       ?detach@?$QValueVector@H@@IAEXXZ 0040cff0 f i alarmcontrolmainwindow.obj
 0001:0000c000       ?begin@?$_Tree@VQString@@U?$pair@$$CBVQString@@H@std@@U_Kfn@?$map@VQString@@HU?$less@VQString@@@std@@V?$allocator@H@3@@3@U?$less@VQString@@@3@V?$allocator@H@3@@std@@QAE?AViterator@12@XZ 0040d000 f i alarmcontrolmainwindow.obj
 0001:0000c010       ?insert@?$_Tree@VQString@@U?$pair@$$CBVQString@@H@std@@U_Kfn@?$map@VQString@@HU?$less@VQString@@@std@@V?$allocator@H@3@@3@U?$less@VQString@@@3@V?$allocator@H@3@@std@@QAE?AU?$pair@Viterator@?$_Tree@VQString@@U?$pair@$$CBVQString@@H@std@@U_Kfn@?$map@VQString@@HU?$less@VQString@@@std@@V?$allocator@H@3@@3@U?$less@VQString@@@3@V?$allocator@H@3@@std@@_N@2@ABU?$pair@$$CBVQString@@H@2@@Z 0040d010 f i alarmcontrolmainwindow.obj
 0001:0000c260       ?erase@?$_Tree@VQString@@U?$pair@$$CBVQString@@H@std@@U_Kfn@?$map@VQString@@HU?$less@VQString@@@std@@V?$allocator@H@3@@3@U?$less@VQString@@@3@V?$allocator@H@3@@std@@QAE?AViterator@12@V312@0@Z 0040d260 f i alarmcontrolmainwindow.obj
 0001:0000c340       ??_G?$QValueListNode@VQString@@@@UAEPAXI@Z 0040d340 f i alarmcontrolmainwindow.obj
 0001:0000c340       ??_E?$QValueListNode@VQString@@@@UAEPAXI@Z 0040d340 f i alarmcontrolmainwindow.obj
 0001:0000c360       ??1?$QValueListNode@VQString@@@@UAE@XZ 0040d360 f i alarmcontrolmainwindow.obj
 0001:0000c390       ??_E?$QValueVectorPrivate@H@@UAEPAXI@Z 0040d390 f i alarmcontrolmainwindow.obj
 0001:0000c390       ??_G?$QValueVectorPrivate@H@@UAEPAXI@Z 0040d390 f i alarmcontrolmainwindow.obj
 0001:0000c3c0       ?erase@?$list@PAVCalarm_Process@@V?$allocator@PAVCalarm_Process@@@std@@@std@@QAE?AViterator@12@V312@@Z 0040d3c0 f i alarmcontrolmainwindow.obj
 0001:0000c400       ?erase@?$_Tree@VQString@@U?$pair@$$CBVQString@@H@std@@U_Kfn@?$map@VQString@@HU?$less@VQString@@@std@@V?$allocator@H@3@@3@U?$less@VQString@@@3@V?$allocator@H@3@@std@@QAE?AViterator@12@V312@@Z 0040d400 f i alarmcontrolmainwindow.obj
 0001:0000c820       ?_Erase@?$_Tree@VQString@@U?$pair@$$CBVQString@@H@std@@U_Kfn@?$map@VQString@@HU?$less@VQString@@@std@@V?$allocator@H@3@@3@U?$less@VQString@@@3@V?$allocator@H@3@@std@@IAEXPAU_Node@12@@Z 0040d820 f i alarmcontrolmainwindow.obj
 0001:0000c870       ?_Init@?$_Tree@VQString@@U?$pair@$$CBVQString@@H@std@@U_Kfn@?$map@VQString@@HU?$less@VQString@@@std@@V?$allocator@H@3@@3@U?$less@VQString@@@3@V?$allocator@H@3@@std@@IAEXXZ 0040d870 f i alarmcontrolmainwindow.obj
 0001:0000c910       ?_Insert@?$_Tree@VQString@@U?$pair@$$CBVQString@@H@std@@U_Kfn@?$map@VQString@@HU?$less@VQString@@@std@@V?$allocator@H@3@@3@U?$less@VQString@@@3@V?$allocator@H@3@@std@@IAE?AViterator@12@PAU_Node@12@0ABU?$pair@$$CBVQString@@H@2@@Z 0040d910 f i alarmcontrolmainwindow.obj
 0001:0000cb80       ?_Lbound@?$_Tree@VQString@@U?$pair@$$CBVQString@@H@std@@U_Kfn@?$map@VQString@@HU?$less@VQString@@@std@@V?$allocator@H@3@@3@U?$less@VQString@@@3@V?$allocator@H@3@@std@@IBEPAU_Node@12@ABVQString@@@Z 0040db80 f i alarmcontrolmainwindow.obj
 0001:0000cbd0       ?_Lrotate@?$_Tree@VQString@@U?$pair@$$CBVQString@@H@std@@U_Kfn@?$map@VQString@@HU?$less@VQString@@@std@@V?$allocator@H@3@@3@U?$less@VQString@@@3@V?$allocator@H@3@@std@@IAEXPAU_Node@12@@Z 0040dbd0 f i alarmcontrolmainwindow.obj
 0001:0000cc30       ?_Min@?$_Tree@VQString@@U?$pair@$$CBVQString@@H@std@@U_Kfn@?$map@VQString@@HU?$less@VQString@@@std@@V?$allocator@H@3@@3@U?$less@VQString@@@3@V?$allocator@H@3@@std@@KAPAU_Node@12@PAU312@@Z 0040dc30 f i alarmcontrolmainwindow.obj
 0001:0000cc50       ?_Rrotate@?$_Tree@VQString@@U?$pair@$$CBVQString@@H@std@@U_Kfn@?$map@VQString@@HU?$less@VQString@@@std@@V?$allocator@H@3@@3@U?$less@VQString@@@3@V?$allocator@H@3@@std@@IAEXPAU_Node@12@@Z 0040dc50 f i alarmcontrolmainwindow.obj
 0001:0000ccb0       ?_Buynode@?$_Tree@VQString@@U?$pair@$$CBVQString@@H@std@@U_Kfn@?$map@VQString@@HU?$less@VQString@@@std@@V?$allocator@H@3@@3@U?$less@VQString@@@3@V?$allocator@H@3@@std@@IAEPAU_Node@12@PAU312@W4_Redbl@12@@Z 0040dcb0 f i alarmcontrolmainwindow.obj
 0001:0000ccd0       ?_Dec@const_iterator@?$_Tree@VQString@@U?$pair@$$CBVQString@@H@std@@U_Kfn@?$map@VQString@@HU?$less@VQString@@@std@@V?$allocator@H@3@@3@U?$less@VQString@@@3@V?$allocator@H@3@@std@@QAEXXZ 0040dcd0 f i alarmcontrolmainwindow.obj
 0001:0000cd30       ?_Inc@const_iterator@?$_Tree@VQString@@U?$pair@$$CBVQString@@H@std@@U_Kfn@?$map@VQString@@HU?$less@VQString@@@std@@V?$allocator@H@3@@3@U?$less@VQString@@@3@V?$allocator@H@3@@std@@QAEXXZ 0040dd30 f i alarmcontrolmainwindow.obj
 0001:0000cd80       ?deleteItem@?$QDict@VOutConfig@@@@EAEXPAX@Z 0040dd80 f i alarmcontrolmainwindow.obj
 0001:0000cd80       ?deleteItem@?$QDict@VAcqConfig@@@@EAEXPAX@Z 0040dd80 f i alarmcontrolmainwindow.obj
 0001:0000cda0       ?insert@?$QValueVector@H@@QAEPAHPAHIABH@Z 0040dda0 f i alarmcontrolmainwindow.obj
 0001:0000cf80       ?detachInternal@?$QValueVector@H@@IAEXXZ 0040df80 f i alarmcontrolmainwindow.obj
 0001:0000d070       ??0?$QValueListPrivate@VQString@@@@QAE@XZ 0040e070 f i alarmcontrolmainwindow.obj
 0001:0000d110       ?insert@?$QValueListPrivate@VQString@@@@QAE?AV?$QValueListIterator@VQString@@@@V2@ABVQString@@@Z 0040e110 f i alarmcontrolmainwindow.obj
 0001:0000d190       ?at@?$QValueListPrivate@VQString@@@@QBEPAV?$QValueListNode@VQString@@@@I@Z 0040e190 f i alarmcontrolmainwindow.obj
 0001:0000d1d0       ?_Construct@std@@YAXPAU?$pair@$$CBVQString@@H@1@ABU21@@Z 0040e1d0 f i alarmcontrolmainwindow.obj
 0001:0000d220       ??3@YAXPAX0@Z              0040e220 f i alarmcontrolmainwindow.obj
 0001:0000d230       ??_E?$QValueListPrivate@VQString@@@@UAEPAXI@Z 0040e230 f i alarmcontrolmainwindow.obj
 0001:0000d230       ??_G?$QValueListPrivate@VQString@@@@UAEPAXI@Z 0040e230 f i alarmcontrolmainwindow.obj
 0001:0000d280       ??_G?$pair@$$CBVQString@@H@std@@QAEPAXI@Z 0040e280 f i alarmcontrolmainwindow.obj
 0001:0000d2a0       ??0?$QValueListPrivate@VQString@@@@QAE@ABV0@@Z 0040e2a0 f i alarmcontrolmainwindow.obj
 0001:0000d380       ??0?$QValueVectorPrivate@H@@QAE@ABV0@@Z 0040e380 f i alarmcontrolmainwindow.obj
 0001:0000d400       ??_EQMenuBar@@WCI@AEPAXI@Z 0040e400 f i alarmcontrolmainwindow.obj
 0001:0000d410       ??_EQMenuBar@@WIM@AEPAXI@Z 0040e410 f i alarmcontrolmainwindow.obj
 0001:0000d420       ??_EAlarmControlMainWindow@@WCI@AEPAXI@Z 0040e420 f i alarmcontrolmainwindow.obj
 0001:0000d430       ??_EQPopupMenu@@WCI@AEPAXI@Z 0040e430 f i alarmcontrolmainwindow.obj
 0001:0000d440       ??_EQPopupMenu@@WIM@AEPAXI@Z 0040e440 f i alarmcontrolmainwindow.obj
 0001:0000d450       ??0diagnostics@@QAE@PAVQWidget@@PBD_NI@Z 0040e450 f   diagnosticsimpl.obj
 0001:0000d7e0       ?metaObject@diagnostics@@UBEPAVQMetaObject@@XZ 0040e7e0 f i diagnosticsimpl.obj
 0001:0000d7f0       ??_Gdiagnostics@@UAEPAXI@Z 0040e7f0 f i diagnosticsimpl.obj
 0001:0000d7f0       ??_Ediagnostics@@UAEPAXI@Z 0040e7f0 f i diagnosticsimpl.obj
 0001:0000d810       ??1FilterStackItem@diagnostics@@QAE@XZ 0040e810 f i diagnosticsimpl.obj
 0001:0000d890       ??1diagnostics@@UAE@XZ     0040e890 f   diagnosticsimpl.obj
 0001:0000da10       ?Debug@diagnostics@@AAAXPBDZZ 0040ea10 f   diagnosticsimpl.obj
 0001:0000db10       ?hideEvent@diagnostics@@EAEXPAVQHideEvent@@@Z 0040eb10 f   diagnosticsimpl.obj
 0001:0000db20       ??0DiagnosticsListViewItem@@QAE@PAVQListView@@ABVQString@@1111111@Z 0040eb20 f   diagnosticsimpl.obj
 0001:0000dc10       ??_EDiagnosticsListViewItem@@UAEPAXI@Z 0040ec10 f i diagnosticsimpl.obj
 0001:0000dc10       ??_GDiagnosticsListViewItem@@UAEPAXI@Z 0040ec10 f i diagnosticsimpl.obj
 0001:0000dc30       ??1DiagnosticsListViewItem@@UAE@XZ 0040ec30 f i diagnosticsimpl.obj
 0001:0000dc40       ?paintCell@DiagnosticsListViewItem@@UAEXPAVQPainter@@ABVQColorGroup@@HHH@Z 0040ec40 f   diagnosticsimpl.obj
 0001:0000e090       ?timerEvent@diagnostics@@EAEXPAVQTimerEvent@@@Z 0040f090 f   diagnosticsimpl.obj
 0001:0000e0d0       ?setButtonState@diagnostics@@AAEX_NPAVQPushButton@@ABVQString@@@Z 0040f0d0 f   diagnosticsimpl.obj
 0001:0000e1b0       ?setDiagButton@diagnostics@@AAEX_N@Z 0040f1b0 f   diagnosticsimpl.obj
 0001:0000e530       ?diagForceOff@diagnostics@@AAEXXZ 0040f530 f   diagnosticsimpl.obj
 0001:0000e540       ?diagForceOn@diagnostics@@AAEXXZ 0040f540 f   diagnosticsimpl.obj
 0001:0000e550       ?diagForceAck@diagnostics@@AAEXXZ 0040f550 f   diagnosticsimpl.obj
 0001:0000e560       ?diagForceIgnore@diagnostics@@AAEXXZ 0040f560 f   diagnosticsimpl.obj
 0001:0000e570       ?diagForceNormal@diagnostics@@AAEXXZ 0040f570 f   diagnosticsimpl.obj
 0001:0000e580       ?diagForceAckAll@diagnostics@@AAEXXZ 0040f580 f   diagnosticsimpl.obj
 0001:0000e590       ?diagForceClear@diagnostics@@AAEXXZ 0040f590 f   diagnosticsimpl.obj
 0001:0000e5a0       ?diagForceAckContribImmed@diagnostics@@AAEXXZ 0040f5a0 f   diagnosticsimpl.obj
 0001:0000e5b0       ?diagForceAckContribAll@diagnostics@@AAEXXZ 0040f5b0 f   diagnosticsimpl.obj
 0001:0000e5c0       ?setButtonForce@diagnostics@@AAEXW4DIAG_BUTTONS@1@H@Z 0040f5c0 f   diagnosticsimpl.obj
 0001:0000e640       ?diagForceState@diagnostics@@AAEXH@Z 0040f640 f   diagnosticsimpl.obj
 0001:0000e820       ?startFillDiagnostics@diagnostics@@QAEXXZ 0040f820 f   diagnosticsimpl.obj
 0001:0000e890       ?fillDiagnosticsEntry@diagnostics@@QAEXABVQString@@000H0_NH@Z 0040f890 f   diagnosticsimpl.obj
 0001:0000ead0       ??_EQListViewItem@@UAEPAXI@Z 0040fad0 f i diagnosticsimpl.obj
 0001:0000ead0       ??_GQListViewItem@@UAEPAXI@Z 0040fad0 f i diagnosticsimpl.obj
 0001:0000eaf0       ?endFillDiagnostics@diagnostics@@QAEXXZ 0040faf0 f   diagnosticsimpl.obj
 0001:0000eb50       ?errorToString@diagnostics@@AAE?AVQString@@H@Z 0040fb50 f   diagnosticsimpl.obj
 0001:0000ec20       ?updateDiagnosticsScreen@diagnostics@@QAEXXZ 0040fc20 f   diagnosticsimpl.obj
 0001:0000ed40       ?updateDiagnosticsState@diagnostics@@QAEXPAVQListViewItem@@HABVQString@@H@Z 0040fd40 f   diagnosticsimpl.obj
 0001:0000ee50       ?wrapLabel@diagnostics@@AAE?AVQString@@AAV2@I@Z 0040fe50 f   diagnosticsimpl.obj
 0001:0000eea0       ?updateProcess@diagnostics@@QAEXABVQString@@H@Z 0040fea0 f   diagnosticsimpl.obj
 0001:0000efc0       ?diagProcessCurrentChanged@diagnostics@@AAEXPAVQListViewItem@@@Z 0040ffc0 f   diagnosticsimpl.obj
 0001:0000efe0       ?diagProcessDoubleClicked@diagnostics@@AAEXPAVQListViewItem@@@Z 0040ffe0 f   diagnosticsimpl.obj
 0001:0000f060       ?diagProcessSelectionChanged@diagnostics@@AAEXXZ 00410060 f   diagnosticsimpl.obj
 0001:0000f080       ?diagProcessSelectionChanged@diagnostics@@AAEXPAVQListViewItem@@@Z 00410080 f   diagnosticsimpl.obj
 0001:0000f140       ?enableStateButtons@diagnostics@@AAEX_N@Z 00410140 f   diagnosticsimpl.obj
 0001:0000f1c0       ?disableStateButtons@diagnostics@@AAEXXZ 004101c0 f   diagnosticsimpl.obj
 0001:0000f240       ?diagSetFilter@diagnostics@@AAEXABVQString@@@Z 00410240 f   diagnosticsimpl.obj
 0001:0000f3d0       ?diagSetProcessInputFilter@diagnostics@@AAEXABVQString@@@Z 004103d0 f   diagnosticsimpl.obj
 0001:0000f950       ?appendProcessName@diagnostics@@QAEXABVQString@@@Z 00410950 f   diagnosticsimpl.obj
 0001:0000f990       ?diagFilterBack@diagnostics@@AAEXXZ 00410990 f   diagnosticsimpl.obj
 0001:0000fa10       ?updateDisplayFromSelections@diagnostics@@AAEXXZ 00410a10 f   diagnosticsimpl.obj
 0001:000101c0       ?contextMenuRequested@diagnostics@@AAEXPAVQListViewItem@@ABVQPoint@@H@Z 004111c0 f   diagnosticsimpl.obj
 0001:000103b0       ??1?$QPtrStack@UFilterStackItem@diagnostics@@@@UAE@XZ 004113b0 f i diagnosticsimpl.obj
 0001:00010410       ?clear@?$QPtrList@VQListViewItem@@@@UAEXXZ 00411410 f i diagnosticsimpl.obj
 0001:00010410       ?clear@?$QPtrStack@UFilterStackItem@diagnostics@@@@UAEXXZ 00411410 f i diagnosticsimpl.obj
 0001:00010410       ?clear@?$QPtrList@VDiagnosticsListViewItem@@@@UAEXXZ 00411410 f i diagnosticsimpl.obj
 0001:00010420       ??1?$QPtrList@VDiagnosticsListViewItem@@@@UAE@XZ 00411420 f i diagnosticsimpl.obj
 0001:00010480       ??1?$QPtrList@VQListViewItem@@@@UAE@XZ 00411480 f i diagnosticsimpl.obj
 0001:000104e0       ?count@?$QPtrList@VDiagnosticsListViewItem@@@@UBEIXZ 004114e0 f i diagnosticsimpl.obj
 0001:000104e0       ?count@?$QPtrList@VQListViewItem@@@@UBEIXZ 004114e0 f i diagnosticsimpl.obj
 0001:000104e0       ?count@?$QPtrStack@UFilterStackItem@diagnostics@@@@UBEIXZ 004114e0 f i diagnosticsimpl.obj
 0001:000104f0       ??_E?$QPtrStack@UFilterStackItem@diagnostics@@@@UAEPAXI@Z 004114f0 f i diagnosticsimpl.obj
 0001:000104f0       ??_G?$QPtrStack@UFilterStackItem@diagnostics@@@@UAEPAXI@Z 004114f0 f i diagnosticsimpl.obj
 0001:00010510       ??_E?$QPtrList@VDiagnosticsListViewItem@@@@UAEPAXI@Z 00411510 f i diagnosticsimpl.obj
 0001:00010510       ??_G?$QPtrList@VDiagnosticsListViewItem@@@@UAEPAXI@Z 00411510 f i diagnosticsimpl.obj
 0001:00010530       ??_E?$QPtrList@VQListViewItem@@@@UAEPAXI@Z 00411530 f i diagnosticsimpl.obj
 0001:00010530       ??_G?$QPtrList@VQListViewItem@@@@UAEPAXI@Z 00411530 f i diagnosticsimpl.obj
 0001:00010550       ?deleteItem@?$QPtrStack@UFilterStackItem@diagnostics@@@@EAEXPAX@Z 00411550 f i diagnosticsimpl.obj
 0001:00010580       ?deleteItem@?$QPtrList@VQListViewItem@@@@EAEXPAX@Z 00411580 f i diagnosticsimpl.obj
 0001:00010580       ?deleteItem@?$QPtrList@VDiagnosticsListViewItem@@@@EAEXPAX@Z 00411580 f i diagnosticsimpl.obj
 0001:000105a0       ?remove@?$QValueListPrivate@VQString@@@@QAEIABVQString@@@Z 004115a0 f i diagnosticsimpl.obj
 0001:000105f0       ?remove@?$QValueListPrivate@VQString@@@@QAE?AV?$QValueListIterator@VQString@@@@V2@@Z 004115f0 f i diagnosticsimpl.obj
 0001:00010650       ??0?$QValueListNode@VQString@@@@QAE@XZ 00411650 f i diagnosticsimpl.obj
 0001:00010680       ??_Ediagnostics@@WCI@AEPAXI@Z 00411680 f i diagnosticsimpl.obj
 0001:00010710       ??0structured_exception@@QAE@ABU_EXCEPTION_POINTERS@@@Z 00411710 f   except.obj
 0001:00010730       ?install@structured_exception@@SAXXZ 00411730 f   except.obj
 0001:00010770       ?what@structured_exception@@QBEIXZ 00411770 f   except.obj
 0001:00010780       ?where@structured_exception@@QBEPBXXZ 00411780 f   except.obj
 0001:00010790       ?GetDateString@Logger@@AAEXPAD@Z 00411790 f   except.obj
 0001:000107e0       ?GetTimeString@Logger@@AAEXPAD@Z 004117e0 f   except.obj
 0001:00010830       ?Log@Logger@@QAEXPBD@Z     00411830 f   except.obj
 0001:00010c30       ?getInstance@Logger@@SAPAV1@XZ 00411c30 f   except.obj
 0001:00010ca0       ?destroy@Logger@@SAXXZ     00411ca0 f   except.obj
 0001:00010cc0       ?Log@@YAXPBDZZ             00411cc0 f   except.obj
 0001:00010d00       ?setModule@Logger@@QAEXPBD@Z 00411d00 f   except.obj
 0001:00010d70       ?setPerSessionLogging@Logger@@QAEXXZ 00411d70 f   except.obj
 0001:00010de0       ??0Logger@@AAE@XZ          00411de0 f   except.obj
 0001:00010e00       ??_GLogger@@EAEPAXI@Z      00411e00 f i except.obj
 0001:00010e00       ??_ELogger@@EAEPAXI@Z      00411e00 f i except.obj
 0001:00010e20       ??1Logger@@EAE@XZ          00411e20 f   except.obj
 0001:00010ed0       _main                      00411ed0 f   main.obj
 0001:00011020       ??0ModuleListViewItem@@QAE@PAVQListView@@W4EType@0@ABVQString@@H22W4ELastEvent@0@@Z 00412020 f   ModuleListViewItem.obj
 0001:00011240       ??_GModuleListViewItem@@UAEPAXI@Z 00412240 f i ModuleListViewItem.obj
 0001:00011240       ??_EModuleListViewItem@@UAEPAXI@Z 00412240 f i ModuleListViewItem.obj
 0001:00011260       ??1ModuleListViewItem@@UAE@XZ 00412260 f   ModuleListViewItem.obj
 0001:00011270       ?paintCell@ModuleListViewItem@@EAEXPAVQPainter@@ABVQColorGroup@@HHH@Z 00412270 f   ModuleListViewItem.obj
 0001:00011490       ?setStatus@ModuleListViewItem@@QAEXW4EStatus@1@@Z 00412490 f   ModuleListViewItem.obj
 0001:000115c0       ?setLastEvent@ModuleListViewItem@@QAEXW4ELastEvent@1@@Z 004125c0 f   ModuleListViewItem.obj
 0001:00011740       ?setTxCount@ModuleListViewItem@@QAEXK@Z 00412740 f   ModuleListViewItem.obj
 0001:000117e0       ?setRxCount@ModuleListViewItem@@QAEXK@Z 004127e0 f   ModuleListViewItem.obj
 0001:00011880       ?setProgress@ModuleListViewItem@@QAEXHH@Z 00412880 f   ModuleListViewItem.obj
 0001:000119f0       ??0UDP_socket@@QAE@ABVQString@@0HHH@Z 004129f0 f   UDP_socket.obj
 0001:00011d80       ?metaObject@UDP_socket@@UBEPAVQMetaObject@@XZ 00412d80 f i UDP_socket.obj
 0001:00011d90       ??_EUDP_socket@@UAEPAXI@Z  00412d90 f i UDP_socket.obj
 0001:00011d90       ??_GUDP_socket@@UAEPAXI@Z  00412d90 f i UDP_socket.obj
 0001:00011db0       ??_EQSocketDevice@@UAEPAXI@Z 00412db0 f i UDP_socket.obj
 0001:00011db0       ??_GQSocketDevice@@UAEPAXI@Z 00412db0 f i UDP_socket.obj
 0001:00011dd0       ??_GQSocketNotifier@@UAEPAXI@Z 00412dd0 f i UDP_socket.obj
 0001:00011dd0       ??_EQSocketNotifier@@UAEPAXI@Z 00412dd0 f i UDP_socket.obj
 0001:00011df0       ??1UDP_socket@@UAE@XZ      00412df0 f   UDP_socket.obj
 0001:00011ed0       ?ok@UDP_socket@@QBE_NXZ    00412ed0 f   UDP_socket.obj
 0001:00011ee0       ?Start@UDP_socket@@QAEXXZ  00412ee0 f   UDP_socket.obj
 0001:00011f10       ?setStatus@UDP_socket@@QAEX_N@Z 00412f10 f   UDP_socket.obj
 0001:00011f40       ?getTxMode@UDP_socket@@QAE_NXZ 00412f40 f   UDP_socket.obj
 0001:00011f50       ?broadcast@UDP_socket@@AAEXVQString@@@Z 00412f50 f   UDP_socket.obj
 0001:000122f0       ?rxData@UDP_socket@@AAEXH@Z 004132f0 f   UDP_socket.obj
 0001:00012f50       ?timerEvent@UDP_socket@@EAEXPAVQTimerEvent@@@Z 00413f50 f   UDP_socket.obj
 0001:00013090       ?getAddress@UDP_socket@@AAE?AVQStringList@@XZ 00414090 f   UDP_socket.obj
 0001:00013290       ?Debug@UDP_socket@@AAAXPBDZZ 00414290 f   UDP_socket.obj
 0001:000133f0       ?DebugMastership@UDP_socket@@AAAXPBDZZ 004143f0 f   UDP_socket.obj
 0001:00013550       ?SetLogging@UDP_socket@@QAEXH@Z 00414550 f   UDP_socket.obj
 0001:00013560       ?setDebugMode@UDP_socket@@QAE_N_N@Z 00414560 f   UDP_socket.obj
 0001:00013570       ?forceRxOnly@UDP_socket@@QAEXXZ 00414570 f   UDP_socket.obj
 0001:000135b0       ??0AlarmControlMainWindowBase@@QAE@PAVQWidget@@PBDI@Z 004145b0 f   alarmcontrolmainwindowbase.obj
 0001:000146f0       ?metaObject@AlarmControlMainWindowBase@@UBEPAVQMetaObject@@XZ 004156f0 f i alarmcontrolmainwindowbase.obj
 0001:00014700       ??_EQSpacerItem@@UAEPAXI@Z 00415700 f i alarmcontrolmainwindowbase.obj
 0001:00014700       ??_GQSpacerItem@@UAEPAXI@Z 00415700 f i alarmcontrolmainwindowbase.obj
 0001:00014720       ??_EAlarmControlMainWindowBase@@UAEPAXI@Z 00415720 f i alarmcontrolmainwindowbase.obj
 0001:00014720       ??_GAlarmControlMainWindowBase@@UAEPAXI@Z 00415720 f i alarmcontrolmainwindowbase.obj
 0001:00014740       ??_GQWidget@@UAEPAXI@Z     00415740 f i alarmcontrolmainwindowbase.obj
 0001:00014740       ??_EQWidget@@UAEPAXI@Z     00415740 f i alarmcontrolmainwindowbase.obj
 0001:00014760       ??_EQVBoxLayout@@UAEPAXI@Z 00415760 f i alarmcontrolmainwindowbase.obj
 0001:00014760       ??_GQVBoxLayout@@UAEPAXI@Z 00415760 f i alarmcontrolmainwindowbase.obj
 0001:00014780       ??_GQHBoxLayout@@UAEPAXI@Z 00415780 f i alarmcontrolmainwindowbase.obj
 0001:00014780       ??_EQHBoxLayout@@UAEPAXI@Z 00415780 f i alarmcontrolmainwindowbase.obj
 0001:000147a0       ??_GQLabel@@UAEPAXI@Z      004157a0 f i alarmcontrolmainwindowbase.obj
 0001:000147a0       ??_EQLabel@@UAEPAXI@Z      004157a0 f i alarmcontrolmainwindowbase.obj
 0001:000147c0       ??_EQPushButton@@UAEPAXI@Z 004157c0 f i alarmcontrolmainwindowbase.obj
 0001:000147c0       ??_GQPushButton@@UAEPAXI@Z 004157c0 f i alarmcontrolmainwindowbase.obj
 0001:000147e0       ??_GQButtonGroup@@UAEPAXI@Z 004157e0 f i alarmcontrolmainwindowbase.obj
 0001:000147e0       ??_EQButtonGroup@@UAEPAXI@Z 004157e0 f i alarmcontrolmainwindowbase.obj
 0001:00014800       ??_GQSplitter@@UAEPAXI@Z   00415800 f i alarmcontrolmainwindowbase.obj
 0001:00014800       ??_EQSplitter@@UAEPAXI@Z   00415800 f i alarmcontrolmainwindowbase.obj
 0001:00014820       ??_EQListView@@UAEPAXI@Z   00415820 f i alarmcontrolmainwindowbase.obj
 0001:00014820       ??_GQListView@@UAEPAXI@Z   00415820 f i alarmcontrolmainwindowbase.obj
 0001:00014840       ??_GQTextEdit@@UAEPAXI@Z   00415840 f i alarmcontrolmainwindowbase.obj
 0001:00014840       ??_EQTextEdit@@UAEPAXI@Z   00415840 f i alarmcontrolmainwindowbase.obj
 0001:00014860       ??1AlarmControlMainWindowBase@@UAE@XZ 00415860 f   alarmcontrolmainwindowbase.obj
 0001:00014880       ?languageChange@AlarmControlMainWindowBase@@MAEXXZ 00415880 f   alarmcontrolmainwindowbase.obj
 0001:000151a0       ??_EQWidget@@WCI@AEPAXI@Z  004161a0 f i alarmcontrolmainwindowbase.obj
 0001:000151b0       ??_EQHBoxLayout@@WCI@AEPAXI@Z 004161b0 f i alarmcontrolmainwindowbase.obj
 0001:000151c0       ??_EQVBoxLayout@@WCI@AEPAXI@Z 004161c0 f i alarmcontrolmainwindowbase.obj
 0001:000151d0       ??_EQLabel@@WCI@AEPAXI@Z   004161d0 f i alarmcontrolmainwindowbase.obj
 0001:000151e0       ??_EQPushButton@@WCI@AEPAXI@Z 004161e0 f i alarmcontrolmainwindowbase.obj
 0001:000151f0       ??_EQButtonGroup@@WCI@AEPAXI@Z 004161f0 f i alarmcontrolmainwindowbase.obj
 0001:00015200       ??_EQSplitter@@WCI@AEPAXI@Z 00416200 f i alarmcontrolmainwindowbase.obj
 0001:00015210       ??_EQListView@@WCI@AEPAXI@Z 00416210 f i alarmcontrolmainwindowbase.obj
 0001:00015220       ??_EQTextEdit@@WCI@AEPAXI@Z 00416220 f i alarmcontrolmainwindowbase.obj
 0001:00015230       ??_EAlarmControlMainWindowBase@@WCI@AEPAXI@Z 00416230 f i alarmcontrolmainwindowbase.obj
 0001:00015240       ??0diagnosticsBase@@QAE@PAVQWidget@@PBD_NI@Z 00416240 f   diagnostics.obj
 0001:00016660       ?metaObject@diagnosticsBase@@UBEPAVQMetaObject@@XZ 00417660 f i diagnostics.obj
 0001:00016670       ??_GdiagnosticsBase@@UAEPAXI@Z 00417670 f i diagnostics.obj
 0001:00016670       ??_EdiagnosticsBase@@UAEPAXI@Z 00417670 f i diagnostics.obj
 0001:00016690       ??_GQGridLayout@@UAEPAXI@Z 00417690 f i diagnostics.obj
 0001:00016690       ??_EQGridLayout@@UAEPAXI@Z 00417690 f i diagnostics.obj
 0001:000166b0       ??_GQLineEdit@@UAEPAXI@Z   004176b0 f i diagnostics.obj
 0001:000166b0       ??_EQLineEdit@@UAEPAXI@Z   004176b0 f i diagnostics.obj
 0001:000166d0       ??1diagnosticsBase@@UAE@XZ 004176d0 f   diagnostics.obj
 0001:000166f0       ?languageChange@diagnosticsBase@@MAEXXZ 004176f0 f   diagnostics.obj
 0001:000170a0       ??_EQGridLayout@@WCI@AEPAXI@Z 004180a0 f i diagnostics.obj
 0001:000170b0       ??_EQLineEdit@@WCI@AEPAXI@Z 004180b0 f i diagnostics.obj
 0001:000170c0       ??_EdiagnosticsBase@@WCI@AEPAXI@Z 004180c0 f i diagnostics.obj
 0001:000170d0       ?className@AlarmControlMainWindow@@UBEPBDXZ 004180d0 f   moc_alarmcontrolmainwindow.obj
 0001:00017130       ?staticMetaObject@AlarmControlMainWindow@@SAPAVQMetaObject@@XZ 00418130 f   moc_alarmcontrolmainwindow.obj
 0001:00017340       ?qt_cast@AlarmControlMainWindow@@UAEPAXPBD@Z 00418340 f   moc_alarmcontrolmainwindow.obj
 0001:000173b0       ?qt_invoke@AlarmControlMainWindow@@UAE_NHPAUQUObject@@@Z 004183b0 f   moc_alarmcontrolmainwindow.obj
 0001:00017630       ?qt_emit@AlarmControlMainWindow@@UAE_NHPAUQUObject@@@Z 00418630 f   moc_alarmcontrolmainwindow.obj
 0001:00017650       ?qt_property@AlarmControlMainWindow@@UAE_NHHPAVQVariant@@@Z 00418650 f   moc_alarmcontrolmainwindow.obj
 0001:00017670       ?className@AlarmControlMainWindowBase@@UBEPBDXZ 00418670 f   moc_alarmcontrolmainwindowbase.obj
 0001:000176d0       ?tr@AlarmControlMainWindowBase@@SA?AVQString@@PBD0@Z 004186d0 f   moc_alarmcontrolmainwindowbase.obj
 0001:00017720       ?staticMetaObject@AlarmControlMainWindowBase@@SAPAVQMetaObject@@XZ 00418720 f   moc_alarmcontrolmainwindowbase.obj
 0001:00017770       ?qt_cast@AlarmControlMainWindowBase@@UAEPAXPBD@Z 00418770 f   moc_alarmcontrolmainwindowbase.obj
 0001:000177e0       ?qt_invoke@AlarmControlMainWindowBase@@UAE_NHPAUQUObject@@@Z 004187e0 f   moc_alarmcontrolmainwindowbase.obj
 0001:00017820       ?qt_emit@AlarmControlMainWindowBase@@UAE_NHPAUQUObject@@@Z 00418820 f   moc_alarmcontrolmainwindowbase.obj
 0001:00017840       ?qt_property@AlarmControlMainWindowBase@@UAE_NHHPAVQVariant@@@Z 00418840 f   moc_alarmcontrolmainwindowbase.obj
 0001:00017860       ?className@diagnosticsBase@@UBEPBDXZ 00418860 f   moc_diagnostics.obj
 0001:000178c0       ?tr@diagnosticsBase@@SA?AVQString@@PBD0@Z 004188c0 f   moc_diagnostics.obj
 0001:00017910       ?staticMetaObject@diagnosticsBase@@SAPAVQMetaObject@@XZ 00418910 f   moc_diagnostics.obj
 0001:00017960       ?qt_cast@diagnosticsBase@@UAEPAXPBD@Z 00418960 f   moc_diagnostics.obj
 0001:000179d0       ?qt_invoke@diagnosticsBase@@UAE_NHPAUQUObject@@@Z 004189d0 f   moc_diagnostics.obj
 0001:00017a10       ?qt_emit@diagnosticsBase@@UAE_NHPAUQUObject@@@Z 00418a10 f   moc_diagnostics.obj
 0001:00017a30       ?qt_property@diagnosticsBase@@UAE_NHHPAVQVariant@@@Z 00418a30 f   moc_diagnostics.obj
 0001:00017a50       ?className@diagnostics@@UBEPBDXZ 00418a50 f   moc_diagnosticsimpl.obj
 0001:00017ab0       ?staticMetaObject@diagnostics@@SAPAVQMetaObject@@XZ 00418ab0 f   moc_diagnosticsimpl.obj
 0001:00017d90       ?qt_cast@diagnostics@@UAEPAXPBD@Z 00418d90 f   moc_diagnosticsimpl.obj
 0001:00017e00       ?diagHidden@diagnostics@@IAEXXZ 00418e00 f   moc_diagnosticsimpl.obj
 0001:00017e20       ?diagForceState@diagnostics@@IAEXHABVQStringList@@@Z 00418e20 f   moc_diagnosticsimpl.obj
 0001:00017ef0       ?updateDiagnosticsProcess@diagnostics@@IAEXPAVQListViewItem@@H@Z 00418ef0 f   moc_diagnosticsimpl.obj
 0001:00017fd0       ?updateProcesses@diagnostics@@IAEXXZ 00418fd0 f   moc_diagnosticsimpl.obj
 0001:00017ff0       ?Debug@diagnostics@@IAEXABVQString@@@Z 00418ff0 f   moc_diagnosticsimpl.obj
 0001:00018050       ?findFilterProcess@diagnostics@@IAEXABVQString@@AA_N@Z 00419050 f   moc_diagnosticsimpl.obj
 0001:00018130       ?qt_invoke@diagnostics@@UAE_NHPAUQUObject@@@Z 00419130 f   moc_diagnosticsimpl.obj
 0001:00018340       ?qt_emit@diagnostics@@UAE_NHPAUQUObject@@@Z 00419340 f   moc_diagnosticsimpl.obj
 0001:00018410       ?qt_property@diagnostics@@UAE_NHHPAVQVariant@@@Z 00419410 f   moc_diagnosticsimpl.obj
 0001:00018430       ?className@UDP_socket@@UBEPBDXZ 00419430 f   moc_UDP_socket.obj
 0001:00018490       ?staticMetaObject@UDP_socket@@SAPAVQMetaObject@@XZ 00419490 f   moc_UDP_socket.obj
 0001:00018520       ?qt_cast@UDP_socket@@UAEPAXPBD@Z 00419520 f   moc_UDP_socket.obj
 0001:00018590       ?qt_invoke@UDP_socket@@UAE_NHPAUQUObject@@@Z 00419590 f   moc_UDP_socket.obj
 0001:000185e0       ?qt_emit@UDP_socket@@UAE_NHPAUQUObject@@@Z 004195e0 f   moc_UDP_socket.obj
 0001:00018600       ?qt_property@UDP_socket@@UAE_NHHPAVQVariant@@@Z 00419600 f   moc_UDP_socket.obj
 0001:00018620       _setsockopt@20             00419620 f   wsock32:WSOCK32.dll
 0001:00018626       _htonl@4                   00419626 f   wsock32:WSOCK32.dll
 0001:0001862c       _gethostbyname@4           0041962c f   wsock32:WSOCK32.dll
 0001:00018632       _gethostname@8             00419632 f   wsock32:WSOCK32.dll
 0001:00018640       ??0cBncsVersion@@QAE@PBD@Z 00419640 f   bncsversioninfo:cBncsVersion.obj
 0001:00018b50       ??_GcBncsVersion@@UAEPAXI@Z 00419b50 f i bncsversioninfo:cBncsVersion.obj
 0001:00018b50       ??_EcBncsVersion@@UAEPAXI@Z 00419b50 f i bncsversioninfo:cBncsVersion.obj
 0001:00018b70       ??1cBncsVersion@@UAE@XZ    00419b70 f   bncsversioninfo:cBncsVersion.obj
 0001:00018c50       ?menuDelPopup@QPopupMenu@@EAEXPAV1@@Z 00419c50 f   qt-mt323:qt-mt323.dll
 0001:00018c56       ?menuInsPopup@QPopupMenu@@EAEXPAV1@@Z 00419c56 f   qt-mt323:qt-mt323.dll
 0001:00018c5c       ?menuStateChanged@QPopupMenu@@EAEXXZ 00419c5c f   qt-mt323:qt-mt323.dll
 0001:00018c62       ?menuContentsChanged@QPopupMenu@@EAEXXZ 00419c62 f   qt-mt323:qt-mt323.dll
 0001:00018c68       ?activateItemAt@QPopupMenu@@UAEXH@Z 00419c68 f   qt-mt323:qt-mt323.dll
 0001:00018c6e       ?updateItem@QPopupMenu@@UAEXH@Z 00419c6e f   qt-mt323:qt-mt323.dll
 0001:00018c74       ?setFirstItemActive@QPopupMenu@@EAEXXZ 00419c74 f   qt-mt323:qt-mt323.dll
 0001:00018c7a       ?setActiveItem@QPopupMenu@@UAEXH@Z 00419c7a f   qt-mt323:qt-mt323.dll
 0001:00018c80       ?setCheckable@QPopupMenu@@UAEX_N@Z 00419c80 f   qt-mt323:qt-mt323.dll
 0001:00018c86       ?frameChanged@QPopupMenu@@EAEXXZ 00419c86 f   qt-mt323:qt-mt323.dll
 0001:00018c8c       ?drawContents@QPopupMenu@@MAEXPAVQPainter@@@Z 00419c8c f   qt-mt323:qt-mt323.dll
 0001:00018c92       ?focusNextPrevChild@QPopupMenu@@MAE_N_N@Z 00419c92 f   qt-mt323:qt-mt323.dll
 0001:00018c98       ?enabledChange@QPopupMenu@@MAEX_N@Z 00419c98 f   qt-mt323:qt-mt323.dll
 0001:00018c9e       ?styleChange@QPopupMenu@@MAEXAAVQStyle@@@Z 00419c9e f   qt-mt323:qt-mt323.dll
 0001:00018ca4       ?closeEvent@QPopupMenu@@MAEXPAVQCloseEvent@@@Z 00419ca4 f   qt-mt323:qt-mt323.dll
 0001:00018caa       ?resizeEvent@QFrame@@MAEXPAVQResizeEvent@@@Z 00419caa f   qt-mt323:qt-mt323.dll
 0001:00018cb0       ?paintEvent@QPopupMenu@@MAEXPAVQPaintEvent@@@Z 00419cb0 f   qt-mt323:qt-mt323.dll
 0001:00018cb6       ?leaveEvent@QPopupMenu@@MAEXPAVQEvent@@@Z 00419cb6 f   qt-mt323:qt-mt323.dll
 0001:00018cbc       ?focusOutEvent@QPopupMenu@@MAEXPAVQFocusEvent@@@Z 00419cbc f   qt-mt323:qt-mt323.dll
 0001:00018cc2       ?focusInEvent@QPopupMenu@@MAEXPAVQFocusEvent@@@Z 00419cc2 f   qt-mt323:qt-mt323.dll
 0001:00018cc8       ?keyPressEvent@QPopupMenu@@MAEXPAVQKeyEvent@@@Z 00419cc8 f   qt-mt323:qt-mt323.dll
 0001:00018cce       ?mouseMoveEvent@QPopupMenu@@MAEXPAVQMouseEvent@@@Z 00419cce f   qt-mt323:qt-mt323.dll
 0001:00018cd4       ?mouseReleaseEvent@QPopupMenu@@MAEXPAVQMouseEvent@@@Z 00419cd4 f   qt-mt323:qt-mt323.dll
 0001:00018cda       ?mousePressEvent@QPopupMenu@@MAEXPAVQMouseEvent@@@Z 00419cda f   qt-mt323:qt-mt323.dll
 0001:00018ce0       ?customWhatsThis@QPopupMenu@@UBE_NXZ 00419ce0 f   qt-mt323:qt-mt323.dll
 0001:00018ce6       ?minimumSizeHint@QWidget@@UBE?AVQSize@@XZ 00419ce6 f   qt-mt323:qt-mt323.dll
 0001:00018cec       ?sizeHint@QPopupMenu@@UBE?AVQSize@@XZ 00419cec f   qt-mt323:qt-mt323.dll
 0001:00018cf2       ?hide@QPopupMenu@@UAEXXZ   00419cf2 f   qt-mt323:qt-mt323.dll
 0001:00018cf8       ?show@QPopupMenu@@UAEXXZ   00419cf8 f   qt-mt323:qt-mt323.dll
 0001:00018cfe       ?setFont@QPopupMenu@@UAEXABVQFont@@@Z 00419cfe f   qt-mt323:qt-mt323.dll
 0001:00018d04       ?timerEvent@QPopupMenu@@MAEXPAVQTimerEvent@@@Z 00419d04 f   qt-mt323:qt-mt323.dll
 0001:00018d0a       ?eventFilter@QObject@@UAE_NPAV1@PAVQEvent@@@Z 00419d0a f   qt-mt323:qt-mt323.dll
 0001:00018d10       ?qt_property@QPopupMenu@@UAE_NHHPAVQVariant@@@Z 00419d10 f   qt-mt323:qt-mt323.dll
 0001:00018d16       ?qt_emit@QPopupMenu@@UAE_NHPAUQUObject@@@Z 00419d16 f   qt-mt323:qt-mt323.dll
 0001:00018d1c       ?qt_invoke@QPopupMenu@@UAE_NHPAUQUObject@@@Z 00419d1c f   qt-mt323:qt-mt323.dll
 0001:00018d22       ?qt_cast@QPopupMenu@@UAEPAXPBD@Z 00419d22 f   qt-mt323:qt-mt323.dll
 0001:00018d28       ?className@QPopupMenu@@UBEPBDXZ 00419d28 f   qt-mt323:qt-mt323.dll
 0001:00018d2e       ?metaObject@QPopupMenu@@UBEPAVQMetaObject@@XZ 00419d2e f   qt-mt323:qt-mt323.dll
 0001:00018d34       ?setToolTipGroup@QMainWindow@@EAEXPAVQToolTipGroup@@@Z 00419d34 f   qt-mt323:qt-mt323.dll
 0001:00018d3a       ?setStatusBar@QMainWindow@@EAEXPAVQStatusBar@@@Z 00419d3a f   qt-mt323:qt-mt323.dll
 0001:00018d40       ?setMenuBar@QMainWindow@@EAEXPAVQMenuBar@@@Z 00419d40 f   qt-mt323:qt-mt323.dll
 0001:00018d46       ?showDockMenu@QMainWindow@@MAE_NABVQPoint@@@Z 00419d46 f   qt-mt323:qt-mt323.dll
 0001:00018d4c       ?setUpLayout@QMainWindow@@MAEXXZ 00419d4c f   qt-mt323:qt-mt323.dll
 0001:00018d52       ?customize@QMainWindow@@UAEXXZ 00419d52 f   qt-mt323:qt-mt323.dll
 0001:00018d58       ?setAppropriate@QMainWindow@@UAEXPAVQDockWindow@@_N@Z 00419d58 f   qt-mt323:qt-mt323.dll
 0001:00018d5e       ?whatsThis@QMainWindow@@UAEXXZ 00419d5e f   qt-mt323:qt-mt323.dll
 0001:00018d64       ?setDockMenuEnabled@QMainWindow@@UAEX_N@Z 00419d64 f   qt-mt323:qt-mt323.dll
 0001:00018d6a       ?setOpaqueMoving@QMainWindow@@UAEX_N@Z 00419d6a f   qt-mt323:qt-mt323.dll
 0001:00018d70       ?setDockWindowsMovable@QMainWindow@@UAEX_N@Z 00419d70 f   qt-mt323:qt-mt323.dll
 0001:00018d76       ?setUsesTextLabel@QMainWindow@@UAEX_N@Z 00419d76 f   qt-mt323:qt-mt323.dll
 0001:00018d7c       ?setUsesBigPixmaps@QMainWindow@@UAEX_N@Z 00419d7c f   qt-mt323:qt-mt323.dll
 0001:00018d82       ?setRightJustification@QMainWindow@@UAEX_N@Z 00419d82 f   qt-mt323:qt-mt323.dll
 0001:00018d88       ?isCustomizable@QMainWindow@@UBE_NXZ 00419d88 f   qt-mt323:qt-mt323.dll
 0001:00018d8e       ?dockingArea@QMainWindow@@UAEPAVQDockArea@@ABVQPoint@@@Z 00419d8e f   qt-mt323:qt-mt323.dll
 0001:00018d94       ?removeDockWindow@QMainWindow@@UAEXPAVQDockWindow@@@Z 00419d94 f   qt-mt323:qt-mt323.dll
 0001:00018d9a       ?moveDockWindow@QMainWindow@@UAEXPAVQDockWindow@@W4Dock@Qt@@@Z 00419d9a f   qt-mt323:qt-mt323.dll
 0001:00018da0       ?moveDockWindow@QMainWindow@@UAEXPAVQDockWindow@@W4Dock@Qt@@_NHH@Z 00419da0 f   qt-mt323:qt-mt323.dll
 0001:00018da6       ?addDockWindow@QMainWindow@@UAEXPAVQDockWindow@@W4Dock@Qt@@_N@Z 00419da6 f   qt-mt323:qt-mt323.dll
 0001:00018dac       ?addDockWindow@QMainWindow@@UAEXPAVQDockWindow@@ABVQString@@W4Dock@Qt@@_N@Z 00419dac f   qt-mt323:qt-mt323.dll
 0001:00018db2       ?setDockEnabled@QMainWindow@@UAEXW4Dock@Qt@@_N@Z 00419db2 f   qt-mt323:qt-mt323.dll
 0001:00018db8       ?setDockEnabled@QMainWindow@@UAEXPAVQDockWindow@@W4Dock@Qt@@_N@Z 00419db8 f   qt-mt323:qt-mt323.dll
 0001:00018dbe       ?setCentralWidget@QMainWindow@@UAEXPAVQWidget@@@Z 00419dbe f   qt-mt323:qt-mt323.dll
 0001:00018dc4       ?fontChange@QWidget@@MAEXABVQFont@@@Z 00419dc4 f   qt-mt323:qt-mt323.dll
 0001:00018dca       ?styleChange@QMainWindow@@MAEXAAVQStyle@@@Z 00419dca f   qt-mt323:qt-mt323.dll
 0001:00018dd0       ?resizeEvent@QWidget@@MAEXPAVQResizeEvent@@@Z 00419dd0 f   qt-mt323:qt-mt323.dll
 0001:00018dd6       ?paintEvent@QMainWindow@@MAEXPAVQPaintEvent@@@Z 00419dd6 f   qt-mt323:qt-mt323.dll
 0001:00018ddc       ?leaveEvent@QWidget@@MAEXPAVQEvent@@@Z 00419ddc f   qt-mt323:qt-mt323.dll
 0001:00018de2       ?focusOutEvent@QWidget@@MAEXPAVQFocusEvent@@@Z 00419de2 f   qt-mt323:qt-mt323.dll
 0001:00018de8       ?focusInEvent@QWidget@@MAEXPAVQFocusEvent@@@Z 00419de8 f   qt-mt323:qt-mt323.dll
 0001:00018dee       ?keyPressEvent@QWidget@@MAEXPAVQKeyEvent@@@Z 00419dee f   qt-mt323:qt-mt323.dll
 0001:00018df4       ?mouseMoveEvent@QWidget@@MAEXPAVQMouseEvent@@@Z 00419df4 f   qt-mt323:qt-mt323.dll
 0001:00018dfa       ?mouseReleaseEvent@QWidget@@MAEXPAVQMouseEvent@@@Z 00419dfa f   qt-mt323:qt-mt323.dll
 0001:00018e00       ?mousePressEvent@QWidget@@MAEXPAVQMouseEvent@@@Z 00419e00 f   qt-mt323:qt-mt323.dll
 0001:00018e06       ?customWhatsThis@QWidget@@UBE_NXZ 00419e06 f   qt-mt323:qt-mt323.dll
 0001:00018e0c       ?heightForWidth@QWidget@@UBEHH@Z 00419e0c f   qt-mt323:qt-mt323.dll
 0001:00018e12       ?minimumSizeHint@QMainWindow@@UBE?AVQSize@@XZ 00419e12 f   qt-mt323:qt-mt323.dll
 0001:00018e18       ?sizeHint@QMainWindow@@UBE?AVQSize@@XZ 00419e18 f   qt-mt323:qt-mt323.dll
 0001:00018e1e       ?hide@QMainWindow@@UAEXXZ  00419e1e f   qt-mt323:qt-mt323.dll
 0001:00018e24       ?show@QMainWindow@@UAEXXZ  00419e24 f   qt-mt323:qt-mt323.dll
 0001:00018e2a       ?childEvent@QMainWindow@@MAEXPAVQChildEvent@@@Z 00419e2a f   qt-mt323:qt-mt323.dll
 0001:00018e30       ?eventFilter@QMainWindow@@UAE_NPAVQObject@@PAVQEvent@@@Z 00419e30 f   qt-mt323:qt-mt323.dll
 0001:00018e36       ?event@QMainWindow@@MAE_NPAVQEvent@@@Z 00419e36 f   qt-mt323:qt-mt323.dll
 0001:00018e3c       ?menuDelPopup@QMenuBar@@EAEXPAVQPopupMenu@@@Z 00419e3c f   qt-mt323:qt-mt323.dll
 0001:00018e42       ?menuInsPopup@QMenuBar@@EAEXPAVQPopupMenu@@@Z 00419e42 f   qt-mt323:qt-mt323.dll
 0001:00018e48       ?menuStateChanged@QMenuBar@@MAEXXZ 00419e48 f   qt-mt323:qt-mt323.dll
 0001:00018e4e       ?menuContentsChanged@QMenuBar@@MAEXXZ 00419e4e f   qt-mt323:qt-mt323.dll
 0001:00018e54       ?activateItemAt@QMenuBar@@UAEXH@Z 00419e54 f   qt-mt323:qt-mt323.dll
 0001:00018e5a       ?setId@QMenuData@@UAEXHH@Z 00419e5a f   qt-mt323:qt-mt323.dll
 0001:00018e60       ?updateItem@QMenuBar@@UAEXH@Z 00419e60 f   qt-mt323:qt-mt323.dll
 0001:00018e66       ?fontInf@QPaintDevice@@MBEHPAVQFont@@H@Z 00419e66 f   qt-mt323:qt-mt323.dll
 0001:00018e6c       ?fontMet@QPaintDevice@@MBEHPAVQFont@@HPBDH@Z 00419e6c f   qt-mt323:qt-mt323.dll
 0001:00018e72       ?metric@QWidget@@MBEHH@Z   00419e72 f   qt-mt323:qt-mt323.dll
 0001:00018e78       ?cmd@QPaintDevice@@MAE_NHPAVQPainter@@PATQPDevCmdParam@@@Z 00419e78 f   qt-mt323:qt-mt323.dll
 0001:00018e7e       ?handle@QPaintDevice@@UBEPAUHDC__@@XZ 00419e7e f   qt-mt323:qt-mt323.dll
 0001:00018e84       ?resolution@QPaintDevice@@UBEHXZ 00419e84 f   qt-mt323:qt-mt323.dll
 0001:00018e8a       ?setResolution@QPaintDevice@@UAEXH@Z 00419e8a f   qt-mt323:qt-mt323.dll
 0001:00018e90       ?setSeparator@QMenuBar@@UAEXW4Separator@1@@Z 00419e90 f   qt-mt323:qt-mt323.dll
 0001:00018e96       ?frameChanged@QMenuBar@@EAEXXZ 00419e96 f   qt-mt323:qt-mt323.dll
 0001:00018e9c       ?drawContents@QMenuBar@@MAEXPAVQPainter@@@Z 00419e9c f   qt-mt323:qt-mt323.dll
 0001:00018ea2       ?drawFrame@QFrame@@MAEXPAVQPainter@@@Z 00419ea2 f   qt-mt323:qt-mt323.dll
 0001:00018ea8       ?setFrameRect@QFrame@@UAEXABVQRect@@@Z 00419ea8 f   qt-mt323:qt-mt323.dll
 0001:00018eae       ?setMidLineWidth@QFrame@@UAEXH@Z 00419eae f   qt-mt323:qt-mt323.dll
 0001:00018eb4       ?setMargin@QFrame@@UAEXH@Z 00419eb4 f   qt-mt323:qt-mt323.dll
 0001:00018eba       ?setLineWidth@QFrame@@UAEXH@Z 00419eba f   qt-mt323:qt-mt323.dll
 0001:00018ec0       ?setFrameStyle@QFrame@@UAEXH@Z 00419ec0 f   qt-mt323:qt-mt323.dll
 0001:00018ec6       ?setMicroFocusHint@QWidget@@MAEXHHHH_NPAVQFont@@@Z 00419ec6 f   qt-mt323:qt-mt323.dll
 0001:00018ecc       ?setKeyCompression@QWidget@@MAEX_N@Z 00419ecc f   qt-mt323:qt-mt323.dll
 0001:00018ed2       ?focusNextPrevChild@QWidget@@MAE_N_N@Z 00419ed2 f   qt-mt323:qt-mt323.dll
 0001:00018ed8       ?setWFlags@QWidget@@MAEXI@Z 00419ed8 f   qt-mt323:qt-mt323.dll
 0001:00018ede       ?setWState@QWidget@@MAEXI@Z 00419ede f   qt-mt323:qt-mt323.dll
 0001:00018ee4       ?destroy@QWidget@@MAEX_N0@Z 00419ee4 f   qt-mt323:qt-mt323.dll
 0001:00018eea       ?create@QWidget@@MAEXPAUHWND__@@_N1@Z 00419eea f   qt-mt323:qt-mt323.dll
 0001:00018ef0       ?windowActivationChange@QWidget@@MAEX_N@Z 00419ef0 f   qt-mt323:qt-mt323.dll
 0001:00018ef6       ?fontChange@QMenuBar@@MAEXABVQFont@@@Z 00419ef6 f   qt-mt323:qt-mt323.dll
 0001:00018efc       ?paletteChange@QWidget@@MAEXABVQPalette@@@Z 00419efc f   qt-mt323:qt-mt323.dll
 0001:00018f02       ?enabledChange@QWidget@@MAEX_N@Z 00419f02 f   qt-mt323:qt-mt323.dll
 0001:00018f08       ?styleChange@QMenuBar@@MAEXAAVQStyle@@@Z 00419f08 f   qt-mt323:qt-mt323.dll
 0001:00018f0e       ?updateMask@QWidget@@MAEXXZ 00419f0e f   qt-mt323:qt-mt323.dll
 0001:00018f14       ?winEvent@QWidget@@MAE_NPAUtagMSG@@@Z 00419f14 f   qt-mt323:qt-mt323.dll
 0001:00018f1a       ?hideEvent@QWidget@@MAEXPAVQHideEvent@@@Z 00419f1a f   qt-mt323:qt-mt323.dll
 0001:00018f20       ?showEvent@QWidget@@MAEXPAVQShowEvent@@@Z 00419f20 f   qt-mt323:qt-mt323.dll
 0001:00018f26       ?dropEvent@QWidget@@MAEXPAVQDropEvent@@@Z 00419f26 f   qt-mt323:qt-mt323.dll
 0001:00018f2c       ?dragLeaveEvent@QWidget@@MAEXPAVQDragLeaveEvent@@@Z 00419f2c f   qt-mt323:qt-mt323.dll
 0001:00018f32       ?dragMoveEvent@QWidget@@MAEXPAVQDragMoveEvent@@@Z 00419f32 f   qt-mt323:qt-mt323.dll
 0001:00018f38       ?dragEnterEvent@QWidget@@MAEXPAVQDragEnterEvent@@@Z 00419f38 f   qt-mt323:qt-mt323.dll
 0001:00018f3e       ?tabletEvent@QWidget@@MAEXPAVQTabletEvent@@@Z 00419f3e f   qt-mt323:qt-mt323.dll
 0001:00018f44       ?imEndEvent@QWidget@@MAEXPAVQIMEvent@@@Z 00419f44 f   qt-mt323:qt-mt323.dll
 0001:00018f4a       ?imComposeEvent@QWidget@@MAEXPAVQIMEvent@@@Z 00419f4a f   qt-mt323:qt-mt323.dll
 0001:00018f50       ?imStartEvent@QWidget@@MAEXPAVQIMEvent@@@Z 00419f50 f   qt-mt323:qt-mt323.dll
 0001:00018f56       ?contextMenuEvent@QWidget@@MAEXPAVQContextMenuEvent@@@Z 00419f56 f   qt-mt323:qt-mt323.dll
 0001:00018f5c       ?closeEvent@QWidget@@MAEXPAVQCloseEvent@@@Z 00419f5c f   qt-mt323:qt-mt323.dll
 0001:00018f62       ?resizeEvent@QMenuBar@@MAEXPAVQResizeEvent@@@Z 00419f62 f   qt-mt323:qt-mt323.dll
 0001:00018f68       ?moveEvent@QWidget@@MAEXPAVQMoveEvent@@@Z 00419f68 f   qt-mt323:qt-mt323.dll
 0001:00018f6e       ?paintEvent@QFrame@@MAEXPAVQPaintEvent@@@Z 00419f6e f   qt-mt323:qt-mt323.dll
 0001:00018f74       ?leaveEvent@QMenuBar@@MAEXPAVQEvent@@@Z 00419f74 f   qt-mt323:qt-mt323.dll
 0001:00018f7a       ?enterEvent@QWidget@@MAEXPAVQEvent@@@Z 00419f7a f   qt-mt323:qt-mt323.dll
 0001:00018f80       ?focusOutEvent@QMenuBar@@MAEXPAVQFocusEvent@@@Z 00419f80 f   qt-mt323:qt-mt323.dll
 0001:00018f86       ?focusInEvent@QMenuBar@@MAEXPAVQFocusEvent@@@Z 00419f86 f   qt-mt323:qt-mt323.dll
 0001:00018f8c       ?keyReleaseEvent@QWidget@@MAEXPAVQKeyEvent@@@Z 00419f8c f   qt-mt323:qt-mt323.dll
 0001:00018f92       ?keyPressEvent@QMenuBar@@MAEXPAVQKeyEvent@@@Z 00419f92 f   qt-mt323:qt-mt323.dll
 0001:00018f98       ?wheelEvent@QWidget@@MAEXPAVQWheelEvent@@@Z 00419f98 f   qt-mt323:qt-mt323.dll
 0001:00018f9e       ?mouseMoveEvent@QMenuBar@@MAEXPAVQMouseEvent@@@Z 00419f9e f   qt-mt323:qt-mt323.dll
 0001:00018fa4       ?mouseDoubleClickEvent@QWidget@@MAEXPAVQMouseEvent@@@Z 00419fa4 f   qt-mt323:qt-mt323.dll
 0001:00018faa       ?mouseReleaseEvent@QMenuBar@@MAEXPAVQMouseEvent@@@Z 00419faa f   qt-mt323:qt-mt323.dll
 0001:00018fb0       ?mousePressEvent@QMenuBar@@MAEXPAVQMouseEvent@@@Z 00419fb0 f   qt-mt323:qt-mt323.dll
 0001:00018fb6       ?customWhatsThis@QMenuBar@@UBE_NXZ 00419fb6 f   qt-mt323:qt-mt323.dll
 0001:00018fbc       ?setBackgroundOrigin@QWidget@@UAEXW4BackgroundOrigin@1@@Z 00419fbc f   qt-mt323:qt-mt323.dll
 0001:00018fc2       ?setAutoMask@QWidget@@UAEX_N@Z 00419fc2 f   qt-mt323:qt-mt323.dll
 0001:00018fc8       ?setAcceptDrops@QWidget@@UAEX_N@Z 00419fc8 f   qt-mt323:qt-mt323.dll
 0001:00018fce       ?reparent@QWidget@@UAEXPAV1@IABVQPoint@@_N@Z 00419fce f   qt-mt323:qt-mt323.dll
 0001:00018fd4       ?adjustSize@QWidget@@UAEXXZ 00419fd4 f   qt-mt323:qt-mt323.dll
 0001:00018fda       ?heightForWidth@QMenuBar@@UBEHH@Z 00419fda f   qt-mt323:qt-mt323.dll
 0001:00018fe0       ?setSizePolicy@QWidget@@UAEXVQSizePolicy@@@Z 00419fe0 f   qt-mt323:qt-mt323.dll
 0001:00018fe6       ?sizePolicy@QWidget@@UBE?AVQSizePolicy@@XZ 00419fe6 f   qt-mt323:qt-mt323.dll
 0001:00018fec       ?minimumSizeHint@QMenuBar@@UBE?AVQSize@@XZ 00419fec f   qt-mt323:qt-mt323.dll
 0001:00018ff2       ?sizeHint@QMenuBar@@UBE?AVQSize@@XZ 00419ff2 f   qt-mt323:qt-mt323.dll
 0001:00018ff8       ?setGeometry@QWidget@@UAEXHHHH@Z 00419ff8 f   qt-mt323:qt-mt323.dll
 0001:00018ffe       ?setGeometry@QWidget@@UAEXABVQRect@@@Z 00419ffe f   qt-mt323:qt-mt323.dll
 0001:00019004       ?resize@QWidget@@UAEXHH@Z  0041a004 f   qt-mt323:qt-mt323.dll
 0001:0001900a       ?move@QWidget@@UAEXHH@Z    0041a00a f   qt-mt323:qt-mt323.dll
 0001:00019010       ?close@QWidget@@UAE_N_N@Z  0041a010 f   qt-mt323:qt-mt323.dll
 0001:00019016       ?polish@QWidget@@UAEXXZ    0041a016 f   qt-mt323:qt-mt323.dll
 0001:0001901c       ?showNormal@QWidget@@UAEXXZ 0041a01c f   qt-mt323:qt-mt323.dll
 0001:00019022       ?showMaximized@QWidget@@UAEXXZ 0041a022 f   qt-mt323:qt-mt323.dll
 0001:00019028       ?showMinimized@QWidget@@UAEXXZ 0041a028 f   qt-mt323:qt-mt323.dll
 0001:0001902e       ?hide@QMenuBar@@UAEXXZ     0041a02e f   qt-mt323:qt-mt323.dll
 0001:00019034       ?show@QMenuBar@@UAEXXZ     0041a034 f   qt-mt323:qt-mt323.dll
 0001:0001903a       ?setUpdatesEnabled@QWidget@@UAEX_N@Z 0041a03a f   qt-mt323:qt-mt323.dll
 0001:00019040       ?setFocusProxy@QWidget@@UAEXPAV1@@Z 0041a040 f   qt-mt323:qt-mt323.dll
 0001:00019046       ?setFocusPolicy@QWidget@@UAEXW4FocusPolicy@1@@Z 0041a046 f   qt-mt323:qt-mt323.dll
 0001:0001904c       ?setActiveWindow@QWidget@@UAEXXZ 0041a04c f   qt-mt323:qt-mt323.dll
 0001:00019052       ?setFocus@QWidget@@UAEXXZ  0041a052 f   qt-mt323:qt-mt323.dll
 0001:00019058       ?setMouseTracking@QWidget@@UAEX_N@Z 0041a058 f   qt-mt323:qt-mt323.dll
 0001:0001905e       ?setIconText@QWidget@@UAEXABVQString@@@Z 0041a05e f   qt-mt323:qt-mt323.dll
 0001:00019064       ?setIcon@QWidget@@UAEXABVQPixmap@@@Z 0041a064 f   qt-mt323:qt-mt323.dll
 0001:0001906a       ?setCaption@QWidget@@UAEXABVQString@@@Z 0041a06a f   qt-mt323:qt-mt323.dll
 0001:00019070       ?setBackgroundPixmap@QWidget@@UAEXABVQPixmap@@@Z 0041a070 f   qt-mt323:qt-mt323.dll
 0001:00019076       ?setBackgroundColor@QWidget@@UAEXABVQColor@@@Z 0041a076 f   qt-mt323:qt-mt323.dll
 0001:0001907c       ?setMask@QWidget@@UAEXABVQBitmap@@@Z 0041a07c f   qt-mt323:qt-mt323.dll
 0001:00019082       ?setMask@QWidget@@UAEXABVQRegion@@@Z 0041a082 f   qt-mt323:qt-mt323.dll
 0001:00019088       ?unsetCursor@QWidget@@UAEXXZ 0041a088 f   qt-mt323:qt-mt323.dll
 0001:0001908e       ?setCursor@QWidget@@UAEXABVQCursor@@@Z 0041a08e f   qt-mt323:qt-mt323.dll
 0001:00019094       ?setFont@QWidget@@UAEXABVQFont@@@Z 0041a094 f   qt-mt323:qt-mt323.dll
 0001:0001909a       ?setPaletteBackgroundPixmap@QWidget@@UAEXABVQPixmap@@@Z 0041a09a f   qt-mt323:qt-mt323.dll
 0001:000190a0       ?setPaletteBackgroundColor@QWidget@@UAEXABVQColor@@@Z 0041a0a0 f   qt-mt323:qt-mt323.dll
 0001:000190a6       ?setPalette@QWidget@@UAEXABVQPalette@@@Z 0041a0a6 f   qt-mt323:qt-mt323.dll
 0001:000190ac       ?setErasePixmap@QWidget@@UAEXABVQPixmap@@@Z 0041a0ac f   qt-mt323:qt-mt323.dll
 0001:000190b2       ?setEraseColor@QWidget@@UAEXABVQColor@@@Z 0041a0b2 f   qt-mt323:qt-mt323.dll
 0001:000190b8       ?setBackgroundMode@QWidget@@UAEXW4BackgroundMode@Qt@@@Z 0041a0b8 f   qt-mt323:qt-mt323.dll
 0001:000190be       ?setSizeIncrement@QWidget@@UAEXHH@Z 0041a0be f   qt-mt323:qt-mt323.dll
 0001:000190c4       ?setMaximumSize@QWidget@@UAEXHH@Z 0041a0c4 f   qt-mt323:qt-mt323.dll
 0001:000190ca       ?setMinimumSize@QWidget@@UAEXHH@Z 0041a0ca f   qt-mt323:qt-mt323.dll
 0001:000190d0       ?setEnabled@QWidget@@UAEX_N@Z 0041a0d0 f   qt-mt323:qt-mt323.dll
 0001:000190d6       ?checkConnectArgs@QObject@@MAE_NPBDPBV1@0@Z 0041a0d6 f   qt-mt323:qt-mt323.dll
 0001:000190dc       ?disconnectNotify@QObject@@MAEXPBD@Z 0041a0dc f   qt-mt323:qt-mt323.dll
 0001:000190e2       ?connectNotify@QObject@@MAEXPBD@Z 0041a0e2 f   qt-mt323:qt-mt323.dll
 0001:000190e8       ?customEvent@QObject@@MAEXPAVQCustomEvent@@@Z 0041a0e8 f   qt-mt323:qt-mt323.dll
 0001:000190ee       ?childEvent@QObject@@MAEXPAVQChildEvent@@@Z 0041a0ee f   qt-mt323:qt-mt323.dll
 0001:000190f4       ?timerEvent@QObject@@MAEXPAVQTimerEvent@@@Z 0041a0f4 f   qt-mt323:qt-mt323.dll
 0001:000190fa       ?property@QObject@@UBE?AVQVariant@@PBD@Z 0041a0fa f   qt-mt323:qt-mt323.dll
 0001:00019100       ?setProperty@QObject@@UAE_NPBDABVQVariant@@@Z 0041a100 f   qt-mt323:qt-mt323.dll
 0001:00019106       ?removeChild@QObject@@UAEXPAV1@@Z 0041a106 f   qt-mt323:qt-mt323.dll
 0001:0001910c       ?insertChild@QObject@@UAEXPAV1@@Z 0041a10c f   qt-mt323:qt-mt323.dll
 0001:00019112       ?setName@QWidget@@UAEXPBD@Z 0041a112 f   qt-mt323:qt-mt323.dll
 0001:00019118       ?eventFilter@QMenuBar@@UAE_NPAVQObject@@PAVQEvent@@@Z 0041a118 f   qt-mt323:qt-mt323.dll
 0001:0001911e       ?event@QWidget@@MAE_NPAVQEvent@@@Z 0041a11e f   qt-mt323:qt-mt323.dll
 0001:00019124       ?qt_property@QMenuBar@@UAE_NHHPAVQVariant@@@Z 0041a124 f   qt-mt323:qt-mt323.dll
 0001:0001912a       ?qt_emit@QMenuBar@@UAE_NHPAUQUObject@@@Z 0041a12a f   qt-mt323:qt-mt323.dll
 0001:00019130       ?qt_invoke@QMenuBar@@UAE_NHPAUQUObject@@@Z 0041a130 f   qt-mt323:qt-mt323.dll
 0001:00019136       ?qt_cast@QMenuBar@@UAEPAXPBD@Z 0041a136 f   qt-mt323:qt-mt323.dll
 0001:0001913c       ?className@QMenuBar@@UBEPBDXZ 0041a13c f   qt-mt323:qt-mt323.dll
 0001:00019142       ?metaObject@QMenuBar@@UBEPAVQMetaObject@@XZ 0041a142 f   qt-mt323:qt-mt323.dll
 0001:00019148       ?setName@QObject@@UAEXPBD@Z 0041a148 f   qt-mt323:qt-mt323.dll
 0001:0001914e       ?event@QTimer@@MAE_NPAVQEvent@@@Z 0041a14e f   qt-mt323:qt-mt323.dll
 0001:00019154       ?qt_property@QTimer@@UAE_NHHPAVQVariant@@@Z 0041a154 f   qt-mt323:qt-mt323.dll
 0001:0001915a       ?qt_emit@QTimer@@UAE_NHPAUQUObject@@@Z 0041a15a f   qt-mt323:qt-mt323.dll
 0001:00019160       ?qt_invoke@QTimer@@UAE_NHPAUQUObject@@@Z 0041a160 f   qt-mt323:qt-mt323.dll
 0001:00019166       ?qt_cast@QTimer@@UAEPAXPBD@Z 0041a166 f   qt-mt323:qt-mt323.dll
 0001:0001916c       ?className@QTimer@@UBEPBDXZ 0041a16c f   qt-mt323:qt-mt323.dll
 0001:00019172       ?metaObject@QTimer@@UBEPAVQMetaObject@@XZ 0041a172 f   qt-mt323:qt-mt323.dll
 0001:00019178       ?unload@QLibrary@@UAE_NXZ  0041a178 f   qt-mt323:qt-mt323.dll
 0001:0001917e       ?write@QGDict@@MBEAAVQDataStream@@AAV2@PAX@Z 0041a17e f   qt-mt323:qt-mt323.dll
 0001:00019184       ?read@QGDict@@MAEAAVQDataStream@@AAV2@AAPAX@Z 0041a184 f   qt-mt323:qt-mt323.dll
 0001:0001918a       ?newItem@QPtrCollection@@MAEPAXPAX@Z 0041a18a f   qt-mt323:qt-mt323.dll
 0001:00019190       ?show@QDialog@@UAEXXZ      0041a190 f   qt-mt323:qt-mt323.dll
 0001:00019196       ?reject@QDialog@@MAEXXZ    0041a196 f   qt-mt323:qt-mt323.dll
 0001:0001919c       ?accept@QDialog@@MAEXXZ    0041a19c f   qt-mt323:qt-mt323.dll
 0001:000191a2       ?done@QDialog@@MAEXH@Z     0041a1a2 f   qt-mt323:qt-mt323.dll
 0001:000191a8       ?styleChange@QWidget@@MAEXAAVQStyle@@@Z 0041a1a8 f   qt-mt323:qt-mt323.dll
 0001:000191ae       ?contextMenuEvent@QDialog@@MAEXPAVQContextMenuEvent@@@Z 0041a1ae f   qt-mt323:qt-mt323.dll
 0001:000191b4       ?closeEvent@QDialog@@MAEXPAVQCloseEvent@@@Z 0041a1b4 f   qt-mt323:qt-mt323.dll
 0001:000191ba       ?resizeEvent@QDialog@@MAEXPAVQResizeEvent@@@Z 0041a1ba f   qt-mt323:qt-mt323.dll
 0001:000191c0       ?paintEvent@QWidget@@MAEXPAVQPaintEvent@@@Z 0041a1c0 f   qt-mt323:qt-mt323.dll
 0001:000191c6       ?keyPressEvent@QDialog@@MAEXPAVQKeyEvent@@@Z 0041a1c6 f   qt-mt323:qt-mt323.dll
 0001:000191cc       ?minimumSizeHint@QDialog@@UBE?AVQSize@@XZ 0041a1cc f   qt-mt323:qt-mt323.dll
 0001:000191d2       ?sizeHint@QDialog@@UBE?AVQSize@@XZ 0041a1d2 f   qt-mt323:qt-mt323.dll
 0001:000191d8       ?setGeometry@QDialog@@UAEXHHHH@Z 0041a1d8 f   qt-mt323:qt-mt323.dll
 0001:000191de       ?setGeometry@QDialog@@UAEXABVQRect@@@Z 0041a1de f   qt-mt323:qt-mt323.dll
 0001:000191e4       ?resize@QDialog@@UAEXHH@Z  0041a1e4 f   qt-mt323:qt-mt323.dll
 0001:000191ea       ?move@QDialog@@UAEXHH@Z    0041a1ea f   qt-mt323:qt-mt323.dll
 0001:000191f0       ?hide@QDialog@@UAEXXZ      0041a1f0 f   qt-mt323:qt-mt323.dll
 0001:000191f6       ?eventFilter@QDialog@@MAE_NPAVQObject@@PAVQEvent@@@Z 0041a1f6 f   qt-mt323:qt-mt323.dll
 0001:000191fc       ?compareItems@QGList@@MAEHPAX0@Z 0041a1fc f   qt-mt323:qt-mt323.dll
 0001:00019202       ?write@QGList@@MBEAAVQDataStream@@AAV2@PAX@Z 0041a202 f   qt-mt323:qt-mt323.dll
 0001:00019208       ?read@QGList@@MAEAAVQDataStream@@AAV2@AAPAX@Z 0041a208 f   qt-mt323:qt-mt323.dll
 0001:0001920e       ?cancelRename@QListViewItem@@MAEXH@Z 0041a20e f   qt-mt323:qt-mt323.dll
 0001:00019214       ?okRename@QListViewItem@@MAEXH@Z 0041a214 f   qt-mt323:qt-mt323.dll
 0001:0001921a       ?dragLeft@QListViewItem@@MAEXXZ 0041a21a f   qt-mt323:qt-mt323.dll
 0001:00019220       ?dragEntered@QListViewItem@@MAEXXZ 0041a220 f   qt-mt323:qt-mt323.dll
 0001:00019226       ?dropped@QListViewItem@@MAEXPAVQDropEvent@@@Z 0041a226 f   qt-mt323:qt-mt323.dll
 0001:0001922c       ?activate@QListViewItem@@MAEXXZ 0041a22c f   qt-mt323:qt-mt323.dll
 0001:00019232       ?setHeight@QListViewItem@@MAEXH@Z 0041a232 f   qt-mt323:qt-mt323.dll
 0001:00019238       ?enforceSortOrder@QListViewItem@@MBEXXZ 0041a238 f   qt-mt323:qt-mt323.dll
 0001:0001923e       ?setMultiLinesEnabled@QListViewItem@@UAEX_N@Z 0041a23e f   qt-mt323:qt-mt323.dll
 0001:00019244       ?rtti@QListViewItem@@UBEHXZ 0041a244 f   qt-mt323:qt-mt323.dll
 0001:0001924a       ?setEnabled@QListViewItem@@UAEX_N@Z 0041a24a f   qt-mt323:qt-mt323.dll
 0001:00019250       ?startRename@QListViewItem@@UAEXH@Z 0041a250 f   qt-mt323:qt-mt323.dll
 0001:00019256       ?setRenameEnabled@QListViewItem@@UAEXH_N@Z 0041a256 f   qt-mt323:qt-mt323.dll
 0001:0001925c       ?acceptDrop@QListViewItem@@UBE_NPBVQMimeSource@@@Z 0041a25c f   qt-mt323:qt-mt323.dll
 0001:00019262       ?setDropEnabled@QListViewItem@@UAEX_N@Z 0041a262 f   qt-mt323:qt-mt323.dll
 0001:00019268       ?setDragEnabled@QListViewItem@@UAEX_N@Z 0041a268 f   qt-mt323:qt-mt323.dll
 0001:0001926e       ?sort@QListViewItem@@UAEXXZ 0041a26e f   qt-mt323:qt-mt323.dll
 0001:00019274       ?setExpandable@QListViewItem@@UAEX_N@Z 0041a274 f   qt-mt323:qt-mt323.dll
 0001:0001927a       ?setSelectable@QListViewItem@@UAEX_N@Z 0041a27a f   qt-mt323:qt-mt323.dll
 0001:00019280       ?paintFocus@QListViewItem@@UAEXPAVQPainter@@ABVQColorGroup@@ABVQRect@@@Z 0041a280 f   qt-mt323:qt-mt323.dll
 0001:00019286       ?paintBranches@QListViewItem@@UAEXPAVQPainter@@ABVQColorGroup@@HHH@Z 0041a286 f   qt-mt323:qt-mt323.dll
 0001:0001928c       ?setSelected@QListViewItem@@UAEX_N@Z 0041a28c f   qt-mt323:qt-mt323.dll
 0001:00019292       ?setup@QListViewItem@@UAEXXZ 0041a292 f   qt-mt323:qt-mt323.dll
 0001:00019298       ?setOpen@QListViewItem@@UAEX_N@Z 0041a298 f   qt-mt323:qt-mt323.dll
 0001:0001929e       ?sortChildItems@QListViewItem@@UAEXH_N@Z 0041a29e f   qt-mt323:qt-mt323.dll
 0001:000192a4       ?compare@QListViewItem@@UBEHPAV1@H_N@Z 0041a2a4 f   qt-mt323:qt-mt323.dll
 0001:000192aa       ?key@QListViewItem@@UBE?AVQString@@H_N@Z 0041a2aa f   qt-mt323:qt-mt323.dll
 0001:000192b0       ?pixmap@QListViewItem@@UBEPBVQPixmap@@H@Z 0041a2b0 f   qt-mt323:qt-mt323.dll
 0001:000192b6       ?setPixmap@QListViewItem@@UAEXHABVQPixmap@@@Z 0041a2b6 f   qt-mt323:qt-mt323.dll
 0001:000192bc       ?text@QListViewItem@@UBE?AVQString@@H@Z 0041a2bc f   qt-mt323:qt-mt323.dll
 0001:000192c2       ?setText@QListViewItem@@UAEXHABVQString@@@Z 0041a2c2 f   qt-mt323:qt-mt323.dll
 0001:000192c8       ?width@QListViewItem@@UBEHABVQFontMetrics@@PBVQListView@@H@Z 0041a2c8 f   qt-mt323:qt-mt323.dll
 0001:000192ce       ?invalidateHeight@QListViewItem@@UAEXXZ 0041a2ce f   qt-mt323:qt-mt323.dll
 0001:000192d4       ?removeItem@QListViewItem@@UAEXPAV1@@Z 0041a2d4 f   qt-mt323:qt-mt323.dll
 0001:000192da       ?takeItem@QListViewItem@@UAEXPAV1@@Z 0041a2da f   qt-mt323:qt-mt323.dll
 0001:000192e0       ?insertItem@QListViewItem@@UAEXPAV1@@Z 0041a2e0 f   qt-mt323:qt-mt323.dll
 0001:000192e6       ?paintCell@QListViewItem@@UAEXPAVQPainter@@ABVQColorGroup@@HHH@Z 0041a2e6 f   qt-mt323:qt-mt323.dll
 0001:000192ec       ?setEnabled@QSocketNotifier@@UAEX_N@Z 0041a2ec f   qt-mt323:qt-mt323.dll
 0001:000192f2       ?event@QSocketNotifier@@MAE_NPAVQEvent@@@Z 0041a2f2 f   qt-mt323:qt-mt323.dll
 0001:000192f8       ?qt_property@QSocketNotifier@@UAE_NHHPAVQVariant@@@Z 0041a2f8 f   qt-mt323:qt-mt323.dll
 0001:000192fe       ?qt_emit@QSocketNotifier@@UAE_NHPAUQUObject@@@Z 0041a2fe f   qt-mt323:qt-mt323.dll
 0001:00019304       ?qt_invoke@QSocketNotifier@@UAE_NHPAUQUObject@@@Z 0041a304 f   qt-mt323:qt-mt323.dll
 0001:0001930a       ?qt_cast@QSocketNotifier@@UAEPAXPBD@Z 0041a30a f   qt-mt323:qt-mt323.dll
 0001:00019310       ?className@QSocketNotifier@@UBEPBDXZ 0041a310 f   qt-mt323:qt-mt323.dll
 0001:00019316       ?metaObject@QSocketNotifier@@UBEPAVQMetaObject@@XZ 0041a316 f   qt-mt323:qt-mt323.dll
 0001:0001931c       ?event@QObject@@UAE_NPAVQEvent@@@Z 0041a31c f   qt-mt323:qt-mt323.dll
 0001:00019322       ?setOption@QSocketDevice@@EAEXW4Option@1@H@Z 0041a322 f   qt-mt323:qt-mt323.dll
 0001:00019328       ?writeBlock@QSocketDevice@@UAEJPBDKABVQHostAddress@@G@Z 0041a328 f   qt-mt323:qt-mt323.dll
 0001:0001932e       ?accept@QSocketDevice@@UAEHXZ 0041a32e f   qt-mt323:qt-mt323.dll
 0001:00019334       ?listen@QSocketDevice@@UAE_NH@Z 0041a334 f   qt-mt323:qt-mt323.dll
 0001:0001933a       ?bind@QSocketDevice@@UAE_NABVQHostAddress@@G@Z 0041a33a f   qt-mt323:qt-mt323.dll
 0001:00019340       ?connect@QSocketDevice@@UAE_NABVQHostAddress@@G@Z 0041a340 f   qt-mt323:qt-mt323.dll
 0001:00019346       ?setSendBufferSize@QSocketDevice@@UAEXI@Z 0041a346 f   qt-mt323:qt-mt323.dll
 0001:0001934c       ?setReceiveBufferSize@QSocketDevice@@UAEXI@Z 0041a34c f   qt-mt323:qt-mt323.dll
 0001:00019352       ?setAddressReusable@QSocketDevice@@UAEX_N@Z 0041a352 f   qt-mt323:qt-mt323.dll
 0001:00019358       ?setBlocking@QSocketDevice@@UAEX_N@Z 0041a358 f   qt-mt323:qt-mt323.dll
 0001:0001935e       ?setSocket@QSocketDevice@@UAEXHW4Type@1@@Z 0041a35e f   qt-mt323:qt-mt323.dll
 0001:00019364       ?ungetch@QSocketDevice@@UAEHH@Z 0041a364 f   qt-mt323:qt-mt323.dll
 0001:0001936a       ?putch@QSocketDevice@@UAEHH@Z 0041a36a f   qt-mt323:qt-mt323.dll
 0001:00019370       ?getch@QSocketDevice@@UAEHXZ 0041a370 f   qt-mt323:qt-mt323.dll
 0001:00019376       ?readAll@QIODevice@@UAE?AV?$QMemArray@D@@XZ 0041a376 f   qt-mt323:qt-mt323.dll
 0001:0001937c       ?readLine@QIODevice@@UAEJPADK@Z 0041a37c f   qt-mt323:qt-mt323.dll
 0001:00019382       ?writeBlock@QSocketDevice@@UAEJPBDK@Z 0041a382 f   qt-mt323:qt-mt323.dll
 0001:00019388       ?readBlock@QSocketDevice@@UAEJPADK@Z 0041a388 f   qt-mt323:qt-mt323.dll
 0001:0001938e       ?atEnd@QSocketDevice@@UBE_NXZ 0041a38e f   qt-mt323:qt-mt323.dll
 0001:00019394       ?at@QSocketDevice@@UBEKXZ  0041a394 f   qt-mt323:qt-mt323.dll
 0001:0001939a       ?at@QSocketDevice@@UAE_NK@Z 0041a39a f   qt-mt323:qt-mt323.dll
 0001:000193a0       ?size@QSocketDevice@@UBEKXZ 0041a3a0 f   qt-mt323:qt-mt323.dll
 0001:000193a6       ?flush@QSocketDevice@@UAEXXZ 0041a3a6 f   qt-mt323:qt-mt323.dll
 0001:000193ac       ?close@QSocketDevice@@UAEXXZ 0041a3ac f   qt-mt323:qt-mt323.dll
 0001:000193b2       ?open@QSocketDevice@@UAE_NH@Z 0041a3b2 f   qt-mt323:qt-mt323.dll
 0001:000193b8       ?emitLinkClicked@QTextEdit@@EAEXABVQString@@@Z 0041a3b8 f   qt-mt323:qt-mt323.dll
 0001:000193be       ?emitHighlighted@QTextEdit@@EAEXABVQString@@@Z 0041a3be f   qt-mt323:qt-mt323.dll
 0001:000193c4       ?linksEnabled@QTextEdit@@EBE_NXZ 0041a3c4 f   qt-mt323:qt-mt323.dll
 0001:000193ca       ?doChangeInterval@QTextEdit@@MAEXXZ 0041a3ca f   qt-mt323:qt-mt323.dll
 0001:000193d0       ?createPopupMenu@QTextEdit@@MAEPAVQPopupMenu@@ABVQPoint@@@Z 0041a3d0 f   qt-mt323:qt-mt323.dll
 0001:000193d6       ?createPopupMenu@QTextEdit@@MAEPAVQPopupMenu@@XZ 0041a3d6 f   qt-mt323:qt-mt323.dll
 0001:000193dc       ?setUndoRedoEnabled@QTextEdit@@UAEX_N@Z 0041a3dc f   qt-mt323:qt-mt323.dll
 0001:000193e2       ?clearParagraphBackground@QTextEdit@@UAEXH@Z 0041a3e2 f   qt-mt323:qt-mt323.dll
 0001:000193e8       ?setParagraphBackgroundColor@QTextEdit@@UAEXHABVQColor@@@Z 0041a3e8 f   qt-mt323:qt-mt323.dll
 0001:000193ee       ?insertParagraph@QTextEdit@@UAEXABVQString@@H@Z 0041a3ee f   qt-mt323:qt-mt323.dll
 0001:000193f4       ?removeParagraph@QTextEdit@@UAEXH@Z 0041a3f4 f   qt-mt323:qt-mt323.dll
 0001:000193fa       ?insertAt@QTextEdit@@UAEXABVQString@@HH@Z 0041a3fa f   qt-mt323:qt-mt323.dll
 0001:00019400       ?insert@QTextEdit@@UAEXABVQString@@_N11@Z 0041a400 f   qt-mt323:qt-mt323.dll
 0001:00019406       ?scrollToBottom@QTextEdit@@UAEXXZ 0041a406 f   qt-mt323:qt-mt323.dll
 0001:0001940c       ?setOverwriteMode@QTextEdit@@UAEX_N@Z 0041a40c f   qt-mt323:qt-mt323.dll
 0001:00019412       ?setCurrentFont@QTextEdit@@UAEXABVQFont@@@Z 0041a412 f   qt-mt323:qt-mt323.dll
 0001:00019418       ?removeSelection@QTextEdit@@UAEXH@Z 0041a418 f   qt-mt323:qt-mt323.dll
 0001:0001941e       ?removeSelectedText@QTextEdit@@UAEXH@Z 0041a41e f   qt-mt323:qt-mt323.dll
 0001:00019424       ?doKeyboardAction@QTextEdit@@UAEXW4KeyboardAction@1@@Z 0041a424 f   qt-mt323:qt-mt323.dll
 0001:0001942a       ?moveCursor@QTextEdit@@UAEXW4CursorAction@1@_N@Z 0041a42a f   qt-mt323:qt-mt323.dll
 0001:00019430       ?placeCursor@QTextEdit@@UAEXABVQPoint@@PAVQTextCursor@@@Z 0041a430 f   qt-mt323:qt-mt323.dll
 0001:00019436       ?ensureCursorVisible@QTextEdit@@UAEXXZ 0041a436 f   qt-mt323:qt-mt323.dll
 0001:0001943c       ?setFormat@QTextEdit@@UAEXPAVQTextFormat@@H@Z 0041a43c f   qt-mt323:qt-mt323.dll
 0001:00019442       ?setUndoDepth@QTextEdit@@UAEXH@Z 0041a442 f   qt-mt323:qt-mt323.dll
 0001:00019448       ?resetFormat@QTextEdit@@UAEXXZ 0041a448 f   qt-mt323:qt-mt323.dll
 0001:0001944e       ?setModified@QTextEdit@@UAEX_N@Z 0041a44e f   qt-mt323:qt-mt323.dll
 0001:00019454       ?setSelectionAttributes@QTextEdit@@UAEXHABVQColor@@_N@Z 0041a454 f   qt-mt323:qt-mt323.dll
 0001:0001945a       ?setSelection@QTextEdit@@UAEXHHHHH@Z 0041a45a f   qt-mt323:qt-mt323.dll
 0001:00019460       ?setCursorPosition@QTextEdit@@UAEXHH@Z 0041a460 f   qt-mt323:qt-mt323.dll
 0001:00019466       ?setParagType@QTextEdit@@UAEXW4DisplayMode@QStyleSheetItem@@W4ListStyle@3@@Z 0041a466 f   qt-mt323:qt-mt323.dll
 0001:0001946c       ?setAlignment@QTextEdit@@UAEXH@Z 0041a46c f   qt-mt323:qt-mt323.dll
 0001:00019472       ?setVerticalAlignment@QTextEdit@@UAEXW4VerticalAlignment@1@@Z 0041a472 f   qt-mt323:qt-mt323.dll
 0001:00019478       ?setColor@QTextEdit@@UAEXABVQColor@@@Z 0041a478 f   qt-mt323:qt-mt323.dll
 0001:0001947e       ?setPointSize@QTextEdit@@UAEXH@Z 0041a47e f   qt-mt323:qt-mt323.dll
 0001:00019484       ?setFamily@QTextEdit@@UAEXABVQString@@@Z 0041a484 f   qt-mt323:qt-mt323.dll
 0001:0001948a       ?setUnderline@QTextEdit@@UAEX_N@Z 0041a48a f   qt-mt323:qt-mt323.dll
 0001:00019490       ?setBold@QTextEdit@@UAEX_N@Z 0041a490 f   qt-mt323:qt-mt323.dll
 0001:00019496       ?setItalic@QTextEdit@@UAEX_N@Z 0041a496 f   qt-mt323:qt-mt323.dll
 0001:0001949c       ?indent@QTextEdit@@UAEXXZ  0041a49c f   qt-mt323:qt-mt323.dll
 0001:000194a2       ?del@QTextEdit@@UAEXXZ     0041a4a2 f   qt-mt323:qt-mt323.dll
 0001:000194a8       ?clear@QTextEdit@@UAEXXZ   0041a4a8 f   qt-mt323:qt-mt323.dll
 0001:000194ae       ?pasteSubType@QTextEdit@@UAEXABVQCString@@@Z 0041a4ae f   qt-mt323:qt-mt323.dll
 0001:000194b4       ?paste@QTextEdit@@UAEXXZ   0041a4b4 f   qt-mt323:qt-mt323.dll
 0001:000194ba       ?cut@QTextEdit@@UAEXXZ     0041a4ba f   qt-mt323:qt-mt323.dll
 0001:000194c0       ?redo@QTextEdit@@UAEXXZ    0041a4c0 f   qt-mt323:qt-mt323.dll
 0001:000194c6       ?undo@QTextEdit@@UAEXXZ    0041a4c6 f   qt-mt323:qt-mt323.dll
 0001:000194cc       ?setReadOnly@QTextEdit@@UAEX_N@Z 0041a4cc f   qt-mt323:qt-mt323.dll
 0001:000194d2       ?sync@QTextEdit@@UAEXXZ    0041a4d2 f   qt-mt323:qt-mt323.dll
 0001:000194d8       ?zoomTo@QTextEdit@@UAEXH@Z 0041a4d8 f   qt-mt323:qt-mt323.dll
 0001:000194de       ?zoomOut@QTextEdit@@UAEXH@Z 0041a4de f   qt-mt323:qt-mt323.dll
 0001:000194e4       ?zoomOut@QTextEdit@@UAEXXZ 0041a4e4 f   qt-mt323:qt-mt323.dll
 0001:000194ea       ?zoomIn@QTextEdit@@UAEXH@Z 0041a4ea f   qt-mt323:qt-mt323.dll
 0001:000194f0       ?zoomIn@QTextEdit@@UAEXXZ  0041a4f0 f   qt-mt323:qt-mt323.dll
 0001:000194f6       ?setTabStopWidth@QTextEdit@@UAEXH@Z 0041a4f6 f   qt-mt323:qt-mt323.dll
 0001:000194fc       ?selectAll@QTextEdit@@UAEX_N@Z 0041a4fc f   qt-mt323:qt-mt323.dll
 0001:00019502       ?setTextFormat@QTextEdit@@UAEXW4TextFormat@Qt@@@Z 0041a502 f   qt-mt323:qt-mt323.dll
 0001:00019508       ?setText@QTextEdit@@UAEXABVQString@@0@Z 0041a508 f   qt-mt323:qt-mt323.dll
 0001:0001950e       ?append@QTextEdit@@UAEXABVQString@@@Z 0041a50e f   qt-mt323:qt-mt323.dll
 0001:00019514       ?copy@QTextEdit@@UAEXXZ    0041a514 f   qt-mt323:qt-mt323.dll
 0001:0001951a       ?setWrapPolicy@QTextEdit@@UAEXW4WrapPolicy@1@@Z 0041a51a f   qt-mt323:qt-mt323.dll
 0001:00019520       ?setWrapColumnOrWidth@QTextEdit@@UAEXH@Z 0041a520 f   qt-mt323:qt-mt323.dll
 0001:00019526       ?setWordWrap@QTextEdit@@UAEXW4WordWrap@1@@Z 0041a526 f   qt-mt323:qt-mt323.dll
 0001:0001952c       ?setLinkUnderline@QTextEdit@@UAEX_N@Z 0041a52c f   qt-mt323:qt-mt323.dll
 0001:00019532       ?setPaper@QTextEdit@@UAEXABVQBrush@@@Z 0041a532 f   qt-mt323:qt-mt323.dll
 0001:00019538       ?scrollToAnchor@QTextEdit@@UAEXABVQString@@@Z 0041a538 f   qt-mt323:qt-mt323.dll
 0001:0001953e       ?setStyleSheet@QTextEdit@@UAEXPAVQStyleSheet@@@Z 0041a53e f   qt-mt323:qt-mt323.dll
 0001:00019544       ?setMimeSourceFactory@QTextEdit@@UAEXPAVQMimeSourceFactory@@@Z 0041a544 f   qt-mt323:qt-mt323.dll
 0001:0001954a       ?getParagraphFormat@QTextEdit@@UAE_NHPAVQFont@@PAVQColor@@PAW4VerticalAlignment@1@PAHPAW4DisplayMode@QStyleSheetItem@@PAW4ListStyle@6@3@Z 0041a54a f   qt-mt323:qt-mt323.dll
 0001:00019550       ?getFormat@QTextEdit@@UAE_NHHPAVQFont@@PAVQColor@@PAW4VerticalAlignment@1@@Z 0041a550 f   qt-mt323:qt-mt323.dll
 0001:00019556       ?find@QTextEdit@@UAE_NABVQString@@_N11PAH2@Z 0041a556 f   qt-mt323:qt-mt323.dll
 0001:0001955c       ?viewportResizeEvent@QTextEdit@@MAEXPAVQResizeEvent@@@Z 0041a55c f   qt-mt323:qt-mt323.dll
 0001:00019562       ?contentsContextMenuEvent@QTextEdit@@MAEXPAVQContextMenuEvent@@@Z 0041a562 f   qt-mt323:qt-mt323.dll
 0001:00019568       ?contentsWheelEvent@QTextEdit@@MAEXPAVQWheelEvent@@@Z 0041a568 f   qt-mt323:qt-mt323.dll
 0001:0001956e       ?contentsDropEvent@QTextEdit@@MAEXPAVQDropEvent@@@Z 0041a56e f   qt-mt323:qt-mt323.dll
 0001:00019574       ?contentsDragLeaveEvent@QTextEdit@@MAEXPAVQDragLeaveEvent@@@Z 0041a574 f   qt-mt323:qt-mt323.dll
 0001:0001957a       ?contentsDragMoveEvent@QTextEdit@@MAEXPAVQDragMoveEvent@@@Z 0041a57a f   qt-mt323:qt-mt323.dll
 0001:00019580       ?contentsDragEnterEvent@QTextEdit@@MAEXPAVQDragEnterEvent@@@Z 0041a580 f   qt-mt323:qt-mt323.dll
 0001:00019586       ?contentsMouseMoveEvent@QTextEdit@@MAEXPAVQMouseEvent@@@Z 0041a586 f   qt-mt323:qt-mt323.dll
 0001:0001958c       ?contentsMouseDoubleClickEvent@QTextEdit@@MAEXPAVQMouseEvent@@@Z 0041a58c f   qt-mt323:qt-mt323.dll
 0001:00019592       ?contentsMouseReleaseEvent@QTextEdit@@MAEXPAVQMouseEvent@@@Z 0041a592 f   qt-mt323:qt-mt323.dll
 0001:00019598       ?contentsMousePressEvent@QTextEdit@@MAEXPAVQMouseEvent@@@Z 0041a598 f   qt-mt323:qt-mt323.dll
 0001:0001959e       ?drawContentsOffset@QScrollView@@MAEXPAVQPainter@@HHHHHH@Z 0041a59e f   qt-mt323:qt-mt323.dll
 0001:000195a4       ?drawContents@QTextEdit@@MAEXPAVQPainter@@HHHH@Z 0041a5a4 f   qt-mt323:qt-mt323.dll
 0001:000195aa       ?setContentsPos@QScrollView@@UAEXHH@Z 0041a5aa f   qt-mt323:qt-mt323.dll
 0001:000195b0       ?drawContents@QTextEdit@@EAEXPAVQPainter@@@Z 0041a5b0 f   qt-mt323:qt-mt323.dll
 0001:000195b6       ?focusNextPrevChild@QTextEdit@@MAE_N_N@Z 0041a5b6 f   qt-mt323:qt-mt323.dll
 0001:000195bc       ?windowActivationChange@QTextEdit@@MAEX_N@Z 0041a5bc f   qt-mt323:qt-mt323.dll
 0001:000195c2       ?styleChange@QScrollView@@UAEXAAVQStyle@@@Z 0041a5c2 f   qt-mt323:qt-mt323.dll
 0001:000195c8       ?imEndEvent@QTextEdit@@MAEXPAVQIMEvent@@@Z 0041a5c8 f   qt-mt323:qt-mt323.dll
 0001:000195ce       ?imComposeEvent@QTextEdit@@MAEXPAVQIMEvent@@@Z 0041a5ce f   qt-mt323:qt-mt323.dll
 0001:000195d4       ?imStartEvent@QTextEdit@@MAEXPAVQIMEvent@@@Z 0041a5d4 f   qt-mt323:qt-mt323.dll
 0001:000195da       ?resizeEvent@QTextEdit@@MAEXPAVQResizeEvent@@@Z 0041a5da f   qt-mt323:qt-mt323.dll
 0001:000195e0       ?keyPressEvent@QTextEdit@@MAEXPAVQKeyEvent@@@Z 0041a5e0 f   qt-mt323:qt-mt323.dll
 0001:000195e6       ?heightForWidth@QTextEdit@@UBEHH@Z 0041a5e6 f   qt-mt323:qt-mt323.dll
 0001:000195ec       ?minimumSizeHint@QScrollView@@UBE?AVQSize@@XZ 0041a5ec f   qt-mt323:qt-mt323.dll
 0001:000195f2       ?sizeHint@QTextEdit@@UBE?AVQSize@@XZ 0041a5f2 f   qt-mt323:qt-mt323.dll
 0001:000195f8       ?polish@QTextEdit@@UAEXXZ  0041a5f8 f   qt-mt323:qt-mt323.dll
 0001:000195fe       ?show@QScrollView@@UAEXXZ  0041a5fe f   qt-mt323:qt-mt323.dll
 0001:00019604       ?setFont@QTextEdit@@UAEXABVQFont@@@Z 0041a604 f   qt-mt323:qt-mt323.dll
 0001:0001960a       ?setPalette@QTextEdit@@UAEXABVQPalette@@@Z 0041a60a f   qt-mt323:qt-mt323.dll
 0001:00019610       ?setEnabled@QTextEdit@@UAEX_N@Z 0041a610 f   qt-mt323:qt-mt323.dll
 0001:00019616       ?eventFilter@QTextEdit@@UAE_NPAVQObject@@PAVQEvent@@@Z 0041a616 f   qt-mt323:qt-mt323.dll
 0001:0001961c       ?event@QTextEdit@@MAE_NPAVQEvent@@@Z 0041a61c f   qt-mt323:qt-mt323.dll
 0001:00019622       ?qt_property@QTextEdit@@UAE_NHHPAVQVariant@@@Z 0041a622 f   qt-mt323:qt-mt323.dll
 0001:00019628       ?qt_emit@QTextEdit@@UAE_NHPAUQUObject@@@Z 0041a628 f   qt-mt323:qt-mt323.dll
 0001:0001962e       ?qt_invoke@QTextEdit@@UAE_NHPAUQUObject@@@Z 0041a62e f   qt-mt323:qt-mt323.dll
 0001:00019634       ?qt_cast@QTextEdit@@UAEPAXPBD@Z 0041a634 f   qt-mt323:qt-mt323.dll
 0001:0001963a       ?className@QTextEdit@@UBEPBDXZ 0041a63a f   qt-mt323:qt-mt323.dll
 0001:00019640       ?metaObject@QTextEdit@@UBEPAVQMetaObject@@XZ 0041a640 f   qt-mt323:qt-mt323.dll
 0001:00019646       ?paintEmptyArea@QListView@@MAEXPAVQPainter@@ABVQRect@@@Z 0041a646 f   qt-mt323:qt-mt323.dll
 0001:0001964c       ?startDrag@QListView@@MAEXXZ 0041a64c f   qt-mt323:qt-mt323.dll
 0001:00019652       ?dragObject@QListView@@MAEPAVQDragObject@@XZ 0041a652 f   qt-mt323:qt-mt323.dll
 0001:00019658       ?selectAll@QListView@@UAEX_N@Z 0041a658 f   qt-mt323:qt-mt323.dll
 0001:0001965e       ?invertSelection@QListView@@UAEXXZ 0041a65e f   qt-mt323:qt-mt323.dll
 0001:00019664       ?clear@QListView@@UAEXXZ   0041a664 f   qt-mt323:qt-mt323.dll
 0001:0001966a       ?setDefaultRenameAction@QListView@@UAEXW4RenameAction@1@@Z 0041a66a f   qt-mt323:qt-mt323.dll
 0001:00019670       ?setResizeMode@QListView@@UAEXW4ResizeMode@1@@Z 0041a670 f   qt-mt323:qt-mt323.dll
 0001:00019676       ?setShowToolTips@QListView@@UAEX_N@Z 0041a676 f   qt-mt323:qt-mt323.dll
 0001:0001967c       ?setShowSortIndicator@QListView@@UAEX_N@Z 0041a67c f   qt-mt323:qt-mt323.dll
 0001:00019682       ?sort@QListView@@UAEXXZ    0041a682 f   qt-mt323:qt-mt323.dll
 0001:00019688       ?setSorting@QListView@@UAEXH_N@Z 0041a688 f   qt-mt323:qt-mt323.dll
 0001:0001968e       ?setRootIsDecorated@QListView@@UAEX_N@Z 0041a68e f   qt-mt323:qt-mt323.dll
 0001:00019694       ?setItemMargin@QListView@@UAEXH@Z 0041a694 f   qt-mt323:qt-mt323.dll
 0001:0001969a       ?setAllColumnsShowFocus@QListView@@UAEX_N@Z 0041a69a f   qt-mt323:qt-mt323.dll
 0001:000196a0       ?setCurrentItem@QListView@@UAEXPAVQListViewItem@@@Z 0041a6a0 f   qt-mt323:qt-mt323.dll
 0001:000196a6       ?setOpen@QListView@@UAEXPAVQListViewItem@@_N@Z 0041a6a6 f   qt-mt323:qt-mt323.dll
 0001:000196ac       ?setSelected@QListView@@UAEXPAVQListViewItem@@_N@Z 0041a6ac f   qt-mt323:qt-mt323.dll
 0001:000196b2       ?clearSelection@QListView@@UAEXXZ 0041a6b2 f   qt-mt323:qt-mt323.dll
 0001:000196b8       ?setMultiSelection@QListView@@UAEX_N@Z 0041a6b8 f   qt-mt323:qt-mt323.dll
 0001:000196be       ?setColumnAlignment@QListView@@UAEXHH@Z 0041a6be f   qt-mt323:qt-mt323.dll
 0001:000196c4       ?setColumnWidthMode@QListView@@UAEXHW4WidthMode@1@@Z 0041a6c4 f   qt-mt323:qt-mt323.dll
 0001:000196ca       ?setColumnWidth@QListView@@UAEXHH@Z 0041a6ca f   qt-mt323:qt-mt323.dll
 0001:000196d0       ?setColumnText@QListView@@UAEXHABVQString@@@Z 0041a6d0 f   qt-mt323:qt-mt323.dll
 0001:000196d6       ?setColumnText@QListView@@UAEXHABVQIconSet@@ABVQString@@@Z 0041a6d6 f   qt-mt323:qt-mt323.dll
 0001:000196dc       ?removeColumn@QListView@@UAEXH@Z 0041a6dc f   qt-mt323:qt-mt323.dll
 0001:000196e2       ?addColumn@QListView@@UAEHABVQString@@H@Z 0041a6e2 f   qt-mt323:qt-mt323.dll
 0001:000196e8       ?addColumn@QListView@@UAEHABVQIconSet@@ABVQString@@H@Z 0041a6e8 f   qt-mt323:qt-mt323.dll
 0001:000196ee       ?removeItem@QListView@@UAEXPAVQListViewItem@@@Z 0041a6ee f   qt-mt323:qt-mt323.dll
 0001:000196f4       ?takeItem@QListView@@UAEXPAVQListViewItem@@@Z 0041a6f4 f   qt-mt323:qt-mt323.dll
 0001:000196fa       ?insertItem@QListView@@UAEXPAVQListViewItem@@@Z 0041a6fa f   qt-mt323:qt-mt323.dll
 0001:00019700       ?setTreeStepSize@QListView@@UAEXH@Z 0041a700 f   qt-mt323:qt-mt323.dll
 0001:00019706       ?setVBarGeometry@QScrollView@@MAEXAAVQScrollBar@@HHHH@Z 0041a706 f   qt-mt323:qt-mt323.dll
 0001:0001970c       ?setHBarGeometry@QScrollView@@MAEXAAVQScrollBar@@HHHH@Z 0041a70c f   qt-mt323:qt-mt323.dll
 0001:00019712       ?setMargins@QScrollView@@MAEXHHHH@Z 0041a712 f   qt-mt323:qt-mt323.dll
 0001:00019718       ?viewportContextMenuEvent@QScrollView@@MAEXPAVQContextMenuEvent@@@Z 0041a718 f   qt-mt323:qt-mt323.dll
 0001:0001971e       ?viewportWheelEvent@QScrollView@@MAEXPAVQWheelEvent@@@Z 0041a71e f   qt-mt323:qt-mt323.dll
 0001:00019724       ?viewportDropEvent@QScrollView@@MAEXPAVQDropEvent@@@Z 0041a724 f   qt-mt323:qt-mt323.dll
 0001:0001972a       ?viewportDragLeaveEvent@QScrollView@@MAEXPAVQDragLeaveEvent@@@Z 0041a72a f   qt-mt323:qt-mt323.dll
 0001:00019730       ?viewportDragMoveEvent@QScrollView@@MAEXPAVQDragMoveEvent@@@Z 0041a730 f   qt-mt323:qt-mt323.dll
 0001:00019736       ?viewportDragEnterEvent@QScrollView@@MAEXPAVQDragEnterEvent@@@Z 0041a736 f   qt-mt323:qt-mt323.dll
 0001:0001973c       ?viewportMouseMoveEvent@QScrollView@@MAEXPAVQMouseEvent@@@Z 0041a73c f   qt-mt323:qt-mt323.dll
 0001:00019742       ?viewportMouseDoubleClickEvent@QScrollView@@MAEXPAVQMouseEvent@@@Z 0041a742 f   qt-mt323:qt-mt323.dll
 0001:00019748       ?viewportMouseReleaseEvent@QScrollView@@MAEXPAVQMouseEvent@@@Z 0041a748 f   qt-mt323:qt-mt323.dll
 0001:0001974e       ?viewportMousePressEvent@QScrollView@@MAEXPAVQMouseEvent@@@Z 0041a74e f   qt-mt323:qt-mt323.dll
 0001:00019754       ?viewportResizeEvent@QListView@@MAEXPAVQResizeEvent@@@Z 0041a754 f   qt-mt323:qt-mt323.dll
 0001:0001975a       ?viewportPaintEvent@QScrollView@@MAEXPAVQPaintEvent@@@Z 0041a75a f   qt-mt323:qt-mt323.dll
 0001:00019760       ?contentsContextMenuEvent@QListView@@MAEXPAVQContextMenuEvent@@@Z 0041a760 f   qt-mt323:qt-mt323.dll
 0001:00019766       ?contentsWheelEvent@QScrollView@@MAEXPAVQWheelEvent@@@Z 0041a766 f   qt-mt323:qt-mt323.dll
 0001:0001976c       ?contentsDropEvent@QListView@@MAEXPAVQDropEvent@@@Z 0041a76c f   qt-mt323:qt-mt323.dll
 0001:00019772       ?contentsDragLeaveEvent@QListView@@MAEXPAVQDragLeaveEvent@@@Z 0041a772 f   qt-mt323:qt-mt323.dll
 0001:00019778       ?contentsDragMoveEvent@QListView@@MAEXPAVQDragMoveEvent@@@Z 0041a778 f   qt-mt323:qt-mt323.dll
 0001:0001977e       ?contentsDragEnterEvent@QListView@@MAEXPAVQDragEnterEvent@@@Z 0041a77e f   qt-mt323:qt-mt323.dll
 0001:00019784       ?contentsMouseMoveEvent@QListView@@MAEXPAVQMouseEvent@@@Z 0041a784 f   qt-mt323:qt-mt323.dll
 0001:0001978a       ?contentsMouseDoubleClickEvent@QListView@@MAEXPAVQMouseEvent@@@Z 0041a78a f   qt-mt323:qt-mt323.dll
 0001:00019790       ?contentsMouseReleaseEvent@QListView@@MAEXPAVQMouseEvent@@@Z 0041a790 f   qt-mt323:qt-mt323.dll
 0001:00019796       ?contentsMousePressEvent@QListView@@MAEXPAVQMouseEvent@@@Z 0041a796 f   qt-mt323:qt-mt323.dll
 0001:0001979c       ?drawContentsOffset@QListView@@MAEXPAVQPainter@@HHHHHH@Z 0041a79c f   qt-mt323:qt-mt323.dll
 0001:000197a2       ?drawContents@QScrollView@@MAEXPAVQPainter@@HHHH@Z 0041a7a2 f   qt-mt323:qt-mt323.dll
 0001:000197a8       ?setContentsPos@QListView@@UAEXHH@Z 0041a7a8 f   qt-mt323:qt-mt323.dll
 0001:000197ae       ?resizeContents@QScrollView@@UAEXHH@Z 0041a7ae f   qt-mt323:qt-mt323.dll
 0001:000197b4       ?setDragAutoScroll@QScrollView@@UAEX_N@Z 0041a7b4 f   qt-mt323:qt-mt323.dll
 0001:000197ba       ?setCornerWidget@QScrollView@@UAEXPAVQWidget@@@Z 0041a7ba f   qt-mt323:qt-mt323.dll
 0001:000197c0       ?setHScrollBarMode@QScrollView@@UAEXW4ScrollBarMode@1@@Z 0041a7c0 f   qt-mt323:qt-mt323.dll
 0001:000197c6       ?setVScrollBarMode@QScrollView@@UAEXW4ScrollBarMode@1@@Z 0041a7c6 f   qt-mt323:qt-mt323.dll
 0001:000197cc       ?moveChild@QScrollView@@UAEXPAVQWidget@@HH@Z 0041a7cc f   qt-mt323:qt-mt323.dll
 0001:000197d2       ?addChild@QScrollView@@UAEXPAVQWidget@@HH@Z 0041a7d2 f   qt-mt323:qt-mt323.dll
 0001:000197d8       ?setResizePolicy@QScrollView@@UAEXW4ResizePolicy@1@@Z 0041a7d8 f   qt-mt323:qt-mt323.dll
 0001:000197de       ?frameChanged@QScrollView@@MAEXXZ 0041a7de f   qt-mt323:qt-mt323.dll
 0001:000197e4       ?drawContents@QScrollView@@EAEXPAVQPainter@@@Z 0041a7e4 f   qt-mt323:qt-mt323.dll
 0001:000197ea       ?focusNextPrevChild@QScrollView@@MAE_N_N@Z 0041a7ea f   qt-mt323:qt-mt323.dll
 0001:000197f0       ?windowActivationChange@QListView@@MAEX_N@Z 0041a7f0 f   qt-mt323:qt-mt323.dll
 0001:000197f6       ?fontChange@QScrollView@@MAEXABVQFont@@@Z 0041a7f6 f   qt-mt323:qt-mt323.dll
 0001:000197fc       ?styleChange@QListView@@MAEXAAVQStyle@@@Z 0041a7fc f   qt-mt323:qt-mt323.dll
 0001:00019802       ?showEvent@QListView@@MAEXPAVQShowEvent@@@Z 0041a802 f   qt-mt323:qt-mt323.dll
 0001:00019808       ?contextMenuEvent@QScrollView@@MAEXPAVQContextMenuEvent@@@Z 0041a808 f   qt-mt323:qt-mt323.dll
 0001:0001980e       ?resizeEvent@QListView@@MAEXPAVQResizeEvent@@@Z 0041a80e f   qt-mt323:qt-mt323.dll
 0001:00019814       ?focusOutEvent@QListView@@MAEXPAVQFocusEvent@@@Z 0041a814 f   qt-mt323:qt-mt323.dll
 0001:0001981a       ?focusInEvent@QListView@@MAEXPAVQFocusEvent@@@Z 0041a81a f   qt-mt323:qt-mt323.dll
 0001:00019820       ?keyPressEvent@QListView@@MAEXPAVQKeyEvent@@@Z 0041a820 f   qt-mt323:qt-mt323.dll
 0001:00019826       ?wheelEvent@QScrollView@@MAEXPAVQWheelEvent@@@Z 0041a826 f   qt-mt323:qt-mt323.dll
 0001:0001982c       ?mouseMoveEvent@QScrollView@@MAEXPAVQMouseEvent@@@Z 0041a82c f   qt-mt323:qt-mt323.dll
 0001:00019832       ?mouseDoubleClickEvent@QScrollView@@MAEXPAVQMouseEvent@@@Z 0041a832 f   qt-mt323:qt-mt323.dll
 0001:00019838       ?mouseReleaseEvent@QScrollView@@MAEXPAVQMouseEvent@@@Z 0041a838 f   qt-mt323:qt-mt323.dll
 0001:0001983e       ?mousePressEvent@QScrollView@@MAEXPAVQMouseEvent@@@Z 0041a83e f   qt-mt323:qt-mt323.dll
 0001:00019844       ?minimumSizeHint@QListView@@UBE?AVQSize@@XZ 0041a844 f   qt-mt323:qt-mt323.dll
 0001:0001984a       ?sizeHint@QListView@@UBE?AVQSize@@XZ 0041a84a f   qt-mt323:qt-mt323.dll
 0001:00019850       ?resize@QScrollView@@UAEXHH@Z 0041a850 f   qt-mt323:qt-mt323.dll
 0001:00019856       ?show@QListView@@UAEXXZ    0041a856 f   qt-mt323:qt-mt323.dll
 0001:0001985c       ?setFont@QListView@@UAEXABVQFont@@@Z 0041a85c f   qt-mt323:qt-mt323.dll
 0001:00019862       ?setPalette@QListView@@UAEXABVQPalette@@@Z 0041a862 f   qt-mt323:qt-mt323.dll
 0001:00019868       ?setEnabled@QScrollView@@UAEX_N@Z 0041a868 f   qt-mt323:qt-mt323.dll
 0001:0001986e       ?removeChild@QScrollView@@UAEXPAVQObject@@@Z 0041a86e f   qt-mt323:qt-mt323.dll
 0001:00019874       ?eventFilter@QListView@@UAE_NPAVQObject@@PAVQEvent@@@Z 0041a874 f   qt-mt323:qt-mt323.dll
 0001:0001987a       ?qt_property@QListView@@UAE_NHHPAVQVariant@@@Z 0041a87a f   qt-mt323:qt-mt323.dll
 0001:00019880       ?qt_emit@QListView@@UAE_NHPAUQUObject@@@Z 0041a880 f   qt-mt323:qt-mt323.dll
 0001:00019886       ?qt_invoke@QListView@@UAE_NHPAUQUObject@@@Z 0041a886 f   qt-mt323:qt-mt323.dll
 0001:0001988c       ?qt_cast@QListView@@UAEPAXPBD@Z 0041a88c f   qt-mt323:qt-mt323.dll
 0001:00019892       ?className@QListView@@UBEPBDXZ 0041a892 f   qt-mt323:qt-mt323.dll
 0001:00019898       ?metaObject@QListView@@UBEPAVQMetaObject@@XZ 0041a898 f   qt-mt323:qt-mt323.dll
 0001:0001989e       ?setRubberband@QSplitter@@MAEXH@Z 0041a89e f   qt-mt323:qt-mt323.dll
 0001:000198a4       ?drawSplitter@QSplitter@@MAEXPAVQPainter@@HHHH@Z 0041a8a4 f   qt-mt323:qt-mt323.dll
 0001:000198aa       ?setOpaqueResize@QSplitter@@UAEX_N@Z 0041a8aa f   qt-mt323:qt-mt323.dll
 0001:000198b0       ?setResizeMode@QSplitter@@UAEXPAVQWidget@@W4ResizeMode@1@@Z 0041a8b0 f   qt-mt323:qt-mt323.dll
 0001:000198b6       ?setOrientation@QSplitter@@UAEXW4Orientation@Qt@@@Z 0041a8b6 f   qt-mt323:qt-mt323.dll
 0001:000198bc       ?styleChange@QSplitter@@MAEXAAVQStyle@@@Z 0041a8bc f   qt-mt323:qt-mt323.dll
 0001:000198c2       ?resizeEvent@QSplitter@@MAEXPAVQResizeEvent@@@Z 0041a8c2 f   qt-mt323:qt-mt323.dll
 0001:000198c8       ?minimumSizeHint@QSplitter@@UBE?AVQSize@@XZ 0041a8c8 f   qt-mt323:qt-mt323.dll
 0001:000198ce       ?sizeHint@QSplitter@@UBE?AVQSize@@XZ 0041a8ce f   qt-mt323:qt-mt323.dll
 0001:000198d4       ?childEvent@QSplitter@@MAEXPAVQChildEvent@@@Z 0041a8d4 f   qt-mt323:qt-mt323.dll
 0001:000198da       ?event@QSplitter@@MAE_NPAVQEvent@@@Z 0041a8da f   qt-mt323:qt-mt323.dll
 0001:000198e0       ?qt_property@QSplitter@@UAE_NHHPAVQVariant@@@Z 0041a8e0 f   qt-mt323:qt-mt323.dll
 0001:000198e6       ?qt_emit@QSplitter@@UAE_NHPAUQUObject@@@Z 0041a8e6 f   qt-mt323:qt-mt323.dll
 0001:000198ec       ?qt_invoke@QSplitter@@UAE_NHPAUQUObject@@@Z 0041a8ec f   qt-mt323:qt-mt323.dll
 0001:000198f2       ?qt_cast@QSplitter@@UAEPAXPBD@Z 0041a8f2 f   qt-mt323:qt-mt323.dll
 0001:000198f8       ?className@QSplitter@@UBEPBDXZ 0041a8f8 f   qt-mt323:qt-mt323.dll
 0001:000198fe       ?metaObject@QSplitter@@UBEPAVQMetaObject@@XZ 0041a8fe f   qt-mt323:qt-mt323.dll
 0001:00019904       ?moveFocus@QButtonGroup@@UAEXH@Z 0041a904 f   qt-mt323:qt-mt323.dll
 0001:0001990a       ?setButton@QButtonGroup@@UAEXH@Z 0041a90a f   qt-mt323:qt-mt323.dll
 0001:00019910       ?setRadioButtonExclusive@QButtonGroup@@UAEX_N@Z 0041a910 f   qt-mt323:qt-mt323.dll
 0001:00019916       ?setExclusive@QButtonGroup@@UAEX_N@Z 0041a916 f   qt-mt323:qt-mt323.dll
 0001:0001991c       ?setAlignment@QGroupBox@@UAEXH@Z 0041a91c f   qt-mt323:qt-mt323.dll
 0001:00019922       ?setTitle@QGroupBox@@UAEXABVQString@@@Z 0041a922 f   qt-mt323:qt-mt323.dll
 0001:00019928       ?setColumnLayout@QGroupBox@@UAEXHW4Orientation@Qt@@@Z 0041a928 f   qt-mt323:qt-mt323.dll
 0001:0001992e       ?drawContents@QFrame@@MAEXPAVQPainter@@@Z 0041a92e f   qt-mt323:qt-mt323.dll
 0001:00019934       ?fontChange@QGroupBox@@MAEXABVQFont@@@Z 0041a934 f   qt-mt323:qt-mt323.dll
 0001:0001993a       ?resizeEvent@QGroupBox@@MAEXPAVQResizeEvent@@@Z 0041a93a f   qt-mt323:qt-mt323.dll
 0001:00019940       ?paintEvent@QGroupBox@@MAEXPAVQPaintEvent@@@Z 0041a940 f   qt-mt323:qt-mt323.dll
 0001:00019946       ?focusInEvent@QGroupBox@@MAEXPAVQFocusEvent@@@Z 0041a946 f   qt-mt323:qt-mt323.dll
 0001:0001994c       ?sizeHint@QGroupBox@@UBE?AVQSize@@XZ 0041a94c f   qt-mt323:qt-mt323.dll
 0001:00019952       ?setEnabled@QGroupBox@@UAEX_N@Z 0041a952 f   qt-mt323:qt-mt323.dll
 0001:00019958       ?childEvent@QGroupBox@@MAEXPAVQChildEvent@@@Z 0041a958 f   qt-mt323:qt-mt323.dll
 0001:0001995e       ?event@QButtonGroup@@MAE_NPAVQEvent@@@Z 0041a95e f   qt-mt323:qt-mt323.dll
 0001:00019964       ?qt_property@QButtonGroup@@UAE_NHHPAVQVariant@@@Z 0041a964 f   qt-mt323:qt-mt323.dll
 0001:0001996a       ?qt_emit@QButtonGroup@@UAE_NHPAUQUObject@@@Z 0041a96a f   qt-mt323:qt-mt323.dll
 0001:00019970       ?qt_invoke@QButtonGroup@@UAE_NHPAUQUObject@@@Z 0041a970 f   qt-mt323:qt-mt323.dll
 0001:00019976       ?qt_cast@QButtonGroup@@UAEPAXPBD@Z 0041a976 f   qt-mt323:qt-mt323.dll
 0001:0001997c       ?className@QButtonGroup@@UBEPBDXZ 0041a97c f   qt-mt323:qt-mt323.dll
 0001:00019982       ?metaObject@QButtonGroup@@UBEPAVQMetaObject@@XZ 0041a982 f   qt-mt323:qt-mt323.dll
 0001:00019988       ?setOn@QPushButton@@UAEX_N@Z 0041a988 f   qt-mt323:qt-mt323.dll
 0001:0001998e       ?setIsMenuButton@QPushButton@@UAEX_N@Z 0041a98e f   qt-mt323:qt-mt323.dll
 0001:00019994       ?setDefault@QPushButton@@UAEX_N@Z 0041a994 f   qt-mt323:qt-mt323.dll
 0001:0001999a       ?setAutoDefault@QPushButton@@UAEX_N@Z 0041a99a f   qt-mt323:qt-mt323.dll
 0001:000199a0       ?setGroup@QButton@@EAEXPAVQButtonGroup@@@Z 0041a9a0 f   qt-mt323:qt-mt323.dll
 0001:000199a6       ?drawButtonLabel@QPushButton@@MAEXPAVQPainter@@@Z 0041a9a6 f   qt-mt323:qt-mt323.dll
 0001:000199ac       ?drawButton@QPushButton@@MAEXPAVQPainter@@@Z 0041a9ac f   qt-mt323:qt-mt323.dll
 0001:000199b2       ?hitButton@QButton@@MBE_NABVQPoint@@@Z 0041a9b2 f   qt-mt323:qt-mt323.dll
 0001:000199b8       ?setState@QButton@@MAEXW4ToggleState@1@@Z 0041a9b8 f   qt-mt323:qt-mt323.dll
 0001:000199be       ?setToggleType@QButton@@MAEXW4ToggleType@1@@Z 0041a9be f   qt-mt323:qt-mt323.dll
 0001:000199c4       ?setAutoRepeat@QButton@@UAEX_N@Z 0041a9c4 f   qt-mt323:qt-mt323.dll
 0001:000199ca       ?setDown@QButton@@UAEX_N@Z 0041a9ca f   qt-mt323:qt-mt323.dll
 0001:000199d0       ?setAccel@QButton@@UAEXABVQKeySequence@@@Z 0041a9d0 f   qt-mt323:qt-mt323.dll
 0001:000199d6       ?setPixmap@QButton@@UAEXABVQPixmap@@@Z 0041a9d6 f   qt-mt323:qt-mt323.dll
 0001:000199dc       ?setText@QButton@@UAEXABVQString@@@Z 0041a9dc f   qt-mt323:qt-mt323.dll
 0001:000199e2       ?enabledChange@QButton@@MAEX_N@Z 0041a9e2 f   qt-mt323:qt-mt323.dll
 0001:000199e8       ?updateMask@QPushButton@@MAEXXZ 0041a9e8 f   qt-mt323:qt-mt323.dll
 0001:000199ee       ?resizeEvent@QPushButton@@MAEXPAVQResizeEvent@@@Z 0041a9ee f   qt-mt323:qt-mt323.dll
 0001:000199f4       ?paintEvent@QButton@@MAEXPAVQPaintEvent@@@Z 0041a9f4 f   qt-mt323:qt-mt323.dll
 0001:000199fa       ?focusOutEvent@QPushButton@@MAEXPAVQFocusEvent@@@Z 0041a9fa f   qt-mt323:qt-mt323.dll
 0001:00019a00       ?focusInEvent@QPushButton@@MAEXPAVQFocusEvent@@@Z 0041aa00 f   qt-mt323:qt-mt323.dll
 0001:00019a06       ?keyReleaseEvent@QButton@@MAEXPAVQKeyEvent@@@Z 0041aa06 f   qt-mt323:qt-mt323.dll
 0001:00019a0c       ?keyPressEvent@QButton@@MAEXPAVQKeyEvent@@@Z 0041aa0c f   qt-mt323:qt-mt323.dll
 0001:00019a12       ?mouseMoveEvent@QButton@@MAEXPAVQMouseEvent@@@Z 0041aa12 f   qt-mt323:qt-mt323.dll
 0001:00019a18       ?mouseReleaseEvent@QButton@@MAEXPAVQMouseEvent@@@Z 0041aa18 f   qt-mt323:qt-mt323.dll
 0001:00019a1e       ?mousePressEvent@QButton@@MAEXPAVQMouseEvent@@@Z 0041aa1e f   qt-mt323:qt-mt323.dll
 0001:00019a24       ?sizeHint@QPushButton@@UBE?AVQSize@@XZ 0041aa24 f   qt-mt323:qt-mt323.dll
 0001:00019a2a       ?setGeometry@QPushButton@@UAEXHHHH@Z 0041aa2a f   qt-mt323:qt-mt323.dll
 0001:00019a30       ?setGeometry@QPushButton@@UAEXABVQRect@@@Z 0041aa30 f   qt-mt323:qt-mt323.dll
 0001:00019a36       ?resize@QPushButton@@UAEXHH@Z 0041aa36 f   qt-mt323:qt-mt323.dll
 0001:00019a3c       ?move@QPushButton@@UAEXHH@Z 0041aa3c f   qt-mt323:qt-mt323.dll
 0001:00019a42       ?qt_property@QPushButton@@UAE_NHHPAVQVariant@@@Z 0041aa42 f   qt-mt323:qt-mt323.dll
 0001:00019a48       ?qt_emit@QPushButton@@UAE_NHPAUQUObject@@@Z 0041aa48 f   qt-mt323:qt-mt323.dll
 0001:00019a4e       ?qt_invoke@QPushButton@@UAE_NHPAUQUObject@@@Z 0041aa4e f   qt-mt323:qt-mt323.dll
 0001:00019a54       ?qt_cast@QPushButton@@UAEPAXPBD@Z 0041aa54 f   qt-mt323:qt-mt323.dll
 0001:00019a5a       ?className@QPushButton@@UBEPBDXZ 0041aa5a f   qt-mt323:qt-mt323.dll
 0001:00019a60       ?metaObject@QPushButton@@UBEPAVQMetaObject@@XZ 0041aa60 f   qt-mt323:qt-mt323.dll
 0001:00019a66       ?setNum@QLabel@@UAEXH@Z    0041aa66 f   qt-mt323:qt-mt323.dll
 0001:00019a6c       ?setNum@QLabel@@UAEXN@Z    0041aa6c f   qt-mt323:qt-mt323.dll
 0001:00019a72       ?setMovie@QLabel@@UAEXABVQMovie@@@Z 0041aa72 f   qt-mt323:qt-mt323.dll
 0001:00019a78       ?setPicture@QLabel@@UAEXABVQPicture@@@Z 0041aa78 f   qt-mt323:qt-mt323.dll
 0001:00019a7e       ?setPixmap@QLabel@@UAEXABVQPixmap@@@Z 0041aa7e f   qt-mt323:qt-mt323.dll
 0001:00019a84       ?setText@QLabel@@UAEXABVQString@@@Z 0041aa84 f   qt-mt323:qt-mt323.dll
 0001:00019a8a       ?setBuddy@QLabel@@UAEXPAVQWidget@@@Z 0041aa8a f   qt-mt323:qt-mt323.dll
 0001:00019a90       ?setAutoResize@QLabel@@UAEX_N@Z 0041aa90 f   qt-mt323:qt-mt323.dll
 0001:00019a96       ?setAlignment@QLabel@@UAEXH@Z 0041aa96 f   qt-mt323:qt-mt323.dll
 0001:00019a9c       ?frameChanged@QFrame@@MAEXXZ 0041aa9c f   qt-mt323:qt-mt323.dll
 0001:00019aa2       ?drawContents@QLabel@@MAEXPAVQPainter@@@Z 0041aaa2 f   qt-mt323:qt-mt323.dll
 0001:00019aa8       ?fontChange@QLabel@@MAEXABVQFont@@@Z 0041aaa8 f   qt-mt323:qt-mt323.dll
 0001:00019aae       ?styleChange@QFrame@@MAEXAAVQStyle@@@Z 0041aaae f   qt-mt323:qt-mt323.dll
 0001:00019ab4       ?resizeEvent@QLabel@@MAEXPAVQResizeEvent@@@Z 0041aab4 f   qt-mt323:qt-mt323.dll
 0001:00019aba       ?heightForWidth@QLabel@@UBEHH@Z 0041aaba f   qt-mt323:qt-mt323.dll
 0001:00019ac0       ?minimumSizeHint@QLabel@@UBE?AVQSize@@XZ 0041aac0 f   qt-mt323:qt-mt323.dll
 0001:00019ac6       ?sizeHint@QLabel@@UBE?AVQSize@@XZ 0041aac6 f   qt-mt323:qt-mt323.dll
 0001:00019acc       ?setFont@QLabel@@UAEXABVQFont@@@Z 0041aacc f   qt-mt323:qt-mt323.dll
 0001:00019ad2       ?qt_property@QLabel@@UAE_NHHPAVQVariant@@@Z 0041aad2 f   qt-mt323:qt-mt323.dll
 0001:00019ad8       ?qt_emit@QLabel@@UAE_NHPAUQUObject@@@Z 0041aad8 f   qt-mt323:qt-mt323.dll
 0001:00019ade       ?qt_invoke@QLabel@@UAE_NHPAUQUObject@@@Z 0041aade f   qt-mt323:qt-mt323.dll
 0001:00019ae4       ?qt_cast@QLabel@@UAEPAXPBD@Z 0041aae4 f   qt-mt323:qt-mt323.dll
 0001:00019aea       ?className@QLabel@@UBEPBDXZ 0041aaea f   qt-mt323:qt-mt323.dll
 0001:00019af0       ?metaObject@QLabel@@UBEPAVQMetaObject@@XZ 0041aaf0 f   qt-mt323:qt-mt323.dll
 0001:00019af6       ?qt_property@QVBoxLayout@@UAE_NHHPAVQVariant@@@Z 0041aaf6 f   qt-mt323:qt-mt323.dll
 0001:00019afc       ?qt_emit@QVBoxLayout@@UAE_NHPAUQUObject@@@Z 0041aafc f   qt-mt323:qt-mt323.dll
 0001:00019b02       ?qt_invoke@QVBoxLayout@@UAE_NHPAUQUObject@@@Z 0041ab02 f   qt-mt323:qt-mt323.dll
 0001:00019b08       ?qt_cast@QVBoxLayout@@UAEPAXPBD@Z 0041ab08 f   qt-mt323:qt-mt323.dll
 0001:00019b0e       ?className@QVBoxLayout@@UBEPBDXZ 0041ab0e f   qt-mt323:qt-mt323.dll
 0001:00019b14       ?metaObject@QVBoxLayout@@UBEPAVQMetaObject@@XZ 0041ab14 f   qt-mt323:qt-mt323.dll
 0001:00019b1a       ?spacerItem@QLayoutItem@@UAEPAVQSpacerItem@@XZ 0041ab1a f   qt-mt323:qt-mt323.dll
 0001:00019b20       ?layout@QLayout@@UAEPAV1@XZ 0041ab20 f   qt-mt323:qt-mt323.dll
 0001:00019b26       ?iterator@QBoxLayout@@UAE?AVQLayoutIterator@@XZ 0041ab26 f   qt-mt323:qt-mt323.dll
 0001:00019b2c       ?invalidate@QBoxLayout@@UAEXXZ 0041ab2c f   qt-mt323:qt-mt323.dll
 0001:00019b32       ?heightForWidth@QBoxLayout@@UBEHH@Z 0041ab32 f   qt-mt323:qt-mt323.dll
 0001:00019b38       ?hasHeightForWidth@QBoxLayout@@UBE_NXZ 0041ab38 f   qt-mt323:qt-mt323.dll
 0001:00019b3e       ?isEmpty@QLayout@@UBE_NXZ  0041ab3e f   qt-mt323:qt-mt323.dll
 0001:00019b44       ?geometry@QLayout@@UBE?AVQRect@@XZ 0041ab44 f   qt-mt323:qt-mt323.dll
 0001:00019b4a       ?setGeometry@QBoxLayout@@UAEXABVQRect@@@Z 0041ab4a f   qt-mt323:qt-mt323.dll
 0001:00019b50       ?expanding@QBoxLayout@@UBE?AW4ExpandData@QSizePolicy@@XZ 0041ab50 f   qt-mt323:qt-mt323.dll
 0001:00019b56       ?maximumSize@QBoxLayout@@UBE?AVQSize@@XZ 0041ab56 f   qt-mt323:qt-mt323.dll
 0001:00019b5c       ?minimumSize@QBoxLayout@@UBE?AVQSize@@XZ 0041ab5c f   qt-mt323:qt-mt323.dll
 0001:00019b62       ?sizeHint@QBoxLayout@@UBE?AVQSize@@XZ 0041ab62 f   qt-mt323:qt-mt323.dll
 0001:00019b68       ?addItem@QBoxLayout@@UAEXPAVQLayoutItem@@@Z 0041ab68 f   qt-mt323:qt-mt323.dll
 0001:00019b6e       ?setAutoAdd@QLayout@@UAEX_N@Z 0041ab6e f   qt-mt323:qt-mt323.dll
 0001:00019b74       ?setMenuBar@QLayout@@UAEXPAVQMenuBar@@@Z 0041ab74 f   qt-mt323:qt-mt323.dll
 0001:00019b7a       ?setSpacing@QLayout@@UAEXH@Z 0041ab7a f   qt-mt323:qt-mt323.dll
 0001:00019b80       ?setMargin@QLayout@@UAEXH@Z 0041ab80 f   qt-mt323:qt-mt323.dll
 0001:00019b86       ?childEvent@QLayout@@MAEXPAVQChildEvent@@@Z 0041ab86 f   qt-mt323:qt-mt323.dll
 0001:00019b8c       ?eventFilter@QLayout@@MAE_NPAVQObject@@PAVQEvent@@@Z 0041ab8c f   qt-mt323:qt-mt323.dll
 0001:00019b92       ?qt_property@QHBoxLayout@@UAE_NHHPAVQVariant@@@Z 0041ab92 f   qt-mt323:qt-mt323.dll
 0001:00019b98       ?qt_emit@QHBoxLayout@@UAE_NHPAUQUObject@@@Z 0041ab98 f   qt-mt323:qt-mt323.dll
 0001:00019b9e       ?qt_invoke@QHBoxLayout@@UAE_NHPAUQUObject@@@Z 0041ab9e f   qt-mt323:qt-mt323.dll
 0001:00019ba4       ?qt_cast@QHBoxLayout@@UAEPAXPBD@Z 0041aba4 f   qt-mt323:qt-mt323.dll
 0001:00019baa       ?className@QHBoxLayout@@UBEPBDXZ 0041abaa f   qt-mt323:qt-mt323.dll
 0001:00019bb0       ?metaObject@QHBoxLayout@@UBEPAVQMetaObject@@XZ 0041abb0 f   qt-mt323:qt-mt323.dll
 0001:00019bb6       ?setAlignment@QLayoutItem@@UAEXH@Z 0041abb6 f   qt-mt323:qt-mt323.dll
 0001:00019bbc       ?spacerItem@QSpacerItem@@UAEPAV1@XZ 0041abbc f   qt-mt323:qt-mt323.dll
 0001:00019bc2       ?layout@QLayoutItem@@UAEPAVQLayout@@XZ 0041abc2 f   qt-mt323:qt-mt323.dll
 0001:00019bc8       ?iterator@QLayoutItem@@UAE?AVQLayoutIterator@@XZ 0041abc8 f   qt-mt323:qt-mt323.dll
 0001:00019bce       ?widget@QLayoutItem@@UAEPAVQWidget@@XZ 0041abce f   qt-mt323:qt-mt323.dll
 0001:00019bd4       ?invalidate@QLayoutItem@@UAEXXZ 0041abd4 f   qt-mt323:qt-mt323.dll
 0001:00019bda       ?heightForWidth@QLayoutItem@@UBEHH@Z 0041abda f   qt-mt323:qt-mt323.dll
 0001:00019be0       ?hasHeightForWidth@QLayoutItem@@UBE_NXZ 0041abe0 f   qt-mt323:qt-mt323.dll
 0001:00019be6       ?isEmpty@QSpacerItem@@UBE_NXZ 0041abe6 f   qt-mt323:qt-mt323.dll
 0001:00019bec       ?geometry@QSpacerItem@@UBE?AVQRect@@XZ 0041abec f   qt-mt323:qt-mt323.dll
 0001:00019bf2       ?setGeometry@QSpacerItem@@UAEXABVQRect@@@Z 0041abf2 f   qt-mt323:qt-mt323.dll
 0001:00019bf8       ?expanding@QSpacerItem@@UBE?AW4ExpandData@QSizePolicy@@XZ 0041abf8 f   qt-mt323:qt-mt323.dll
 0001:00019bfe       ?maximumSize@QSpacerItem@@UBE?AVQSize@@XZ 0041abfe f   qt-mt323:qt-mt323.dll
 0001:00019c04       ?minimumSize@QSpacerItem@@UBE?AVQSize@@XZ 0041ac04 f   qt-mt323:qt-mt323.dll
 0001:00019c0a       ?sizeHint@QSpacerItem@@UBE?AVQSize@@XZ 0041ac0a f   qt-mt323:qt-mt323.dll
 0001:00019c10       ?sizeHint@QWidget@@UBE?AVQSize@@XZ 0041ac10 f   qt-mt323:qt-mt323.dll
 0001:00019c16       ?hide@QWidget@@UAEXXZ      0041ac16 f   qt-mt323:qt-mt323.dll
 0001:00019c1c       ?show@QWidget@@UAEXXZ      0041ac1c f   qt-mt323:qt-mt323.dll
 0001:00019c22       ?qt_property@QWidget@@UAE_NHHPAVQVariant@@@Z 0041ac22 f   qt-mt323:qt-mt323.dll
 0001:00019c28       ?qt_emit@QWidget@@UAE_NHPAUQUObject@@@Z 0041ac28 f   qt-mt323:qt-mt323.dll
 0001:00019c2e       ?qt_invoke@QWidget@@UAE_NHPAUQUObject@@@Z 0041ac2e f   qt-mt323:qt-mt323.dll
 0001:00019c34       ?qt_cast@QWidget@@UAEPAXPBD@Z 0041ac34 f   qt-mt323:qt-mt323.dll
 0001:00019c3a       ?className@QWidget@@UBEPBDXZ 0041ac3a f   qt-mt323:qt-mt323.dll
 0001:00019c40       ?metaObject@QWidget@@UBEPAVQMetaObject@@XZ 0041ac40 f   qt-mt323:qt-mt323.dll
 0001:00019c46       ?createPopupMenu@QLineEdit@@MAEPAVQPopupMenu@@XZ 0041ac46 f   qt-mt323:qt-mt323.dll
 0001:00019c4c       ?setDragEnabled@QLineEdit@@UAEX_N@Z 0041ac4c f   qt-mt323:qt-mt323.dll
 0001:00019c52       ?paste@QLineEdit@@UAEXXZ   0041ac52 f   qt-mt323:qt-mt323.dll
 0001:00019c58       ?copy@QLineEdit@@UBEXXZ    0041ac58 f   qt-mt323:qt-mt323.dll
 0001:00019c5e       ?cut@QLineEdit@@UAEXXZ     0041ac5e f   qt-mt323:qt-mt323.dll
 0001:00019c64       ?setAlignment@QLineEdit@@UAEXH@Z 0041ac64 f   qt-mt323:qt-mt323.dll
 0001:00019c6a       ?setCursorPosition@QLineEdit@@UAEXH@Z 0041ac6a f   qt-mt323:qt-mt323.dll
 0001:00019c70       ?setSelection@QLineEdit@@UAEXHH@Z 0041ac70 f   qt-mt323:qt-mt323.dll
 0001:00019c76       ?setValidator@QLineEdit@@UAEXPBVQValidator@@@Z 0041ac76 f   qt-mt323:qt-mt323.dll
 0001:00019c7c       ?setReadOnly@QLineEdit@@UAEX_N@Z 0041ac7c f   qt-mt323:qt-mt323.dll
 0001:00019c82       ?setEchoMode@QLineEdit@@UAEXW4EchoMode@1@@Z 0041ac82 f   qt-mt323:qt-mt323.dll
 0001:00019c88       ?setFrame@QLineEdit@@UAEX_N@Z 0041ac88 f   qt-mt323:qt-mt323.dll
 0001:00019c8e       ?setMaxLength@QLineEdit@@UAEXH@Z 0041ac8e f   qt-mt323:qt-mt323.dll
 0001:00019c94       ?redo@QLineEdit@@UAEXXZ    0041ac94 f   qt-mt323:qt-mt323.dll
 0001:00019c9a       ?undo@QLineEdit@@UAEXXZ    0041ac9a f   qt-mt323:qt-mt323.dll
 0001:00019ca0       ?clear@QLineEdit@@UAEXXZ   0041aca0 f   qt-mt323:qt-mt323.dll
 0001:00019ca6       ?insert@QLineEdit@@UAEXABVQString@@@Z 0041aca6 f   qt-mt323:qt-mt323.dll
 0001:00019cac       ?clearValidator@QLineEdit@@UAEXXZ 0041acac f   qt-mt323:qt-mt323.dll
 0001:00019cb2       ?deselect@QLineEdit@@UAEXXZ 0041acb2 f   qt-mt323:qt-mt323.dll
 0001:00019cb8       ?selectAll@QLineEdit@@UAEXXZ 0041acb8 f   qt-mt323:qt-mt323.dll
 0001:00019cbe       ?setText@QLineEdit@@UAEXABVQString@@@Z 0041acbe f   qt-mt323:qt-mt323.dll
 0001:00019cc4       ?drawContents@QLineEdit@@MAEXPAVQPainter@@@Z 0041acc4 f   qt-mt323:qt-mt323.dll
 0001:00019cca       ?windowActivationChange@QLineEdit@@MAEX_N@Z 0041acca f   qt-mt323:qt-mt323.dll
 0001:00019cd0       ?dropEvent@QLineEdit@@MAEXPAVQDropEvent@@@Z 0041acd0 f   qt-mt323:qt-mt323.dll
 0001:00019cd6       ?dragLeaveEvent@QLineEdit@@MAEXPAVQDragLeaveEvent@@@Z 0041acd6 f   qt-mt323:qt-mt323.dll
 0001:00019cdc       ?dragMoveEvent@QLineEdit@@MAEXPAVQDragMoveEvent@@@Z 0041acdc f   qt-mt323:qt-mt323.dll
 0001:00019ce2       ?dragEnterEvent@QLineEdit@@MAEXPAVQDragEnterEvent@@@Z 0041ace2 f   qt-mt323:qt-mt323.dll
 0001:00019ce8       ?imEndEvent@QLineEdit@@MAEXPAVQIMEvent@@@Z 0041ace8 f   qt-mt323:qt-mt323.dll
 0001:00019cee       ?imComposeEvent@QLineEdit@@MAEXPAVQIMEvent@@@Z 0041acee f   qt-mt323:qt-mt323.dll
 0001:00019cf4       ?imStartEvent@QLineEdit@@MAEXPAVQIMEvent@@@Z 0041acf4 f   qt-mt323:qt-mt323.dll
 0001:00019cfa       ?contextMenuEvent@QLineEdit@@MAEXPAVQContextMenuEvent@@@Z 0041acfa f   qt-mt323:qt-mt323.dll
 0001:00019d00       ?resizeEvent@QLineEdit@@MAEXPAVQResizeEvent@@@Z 0041ad00 f   qt-mt323:qt-mt323.dll
 0001:00019d06       ?focusOutEvent@QLineEdit@@MAEXPAVQFocusEvent@@@Z 0041ad06 f   qt-mt323:qt-mt323.dll
 0001:00019d0c       ?focusInEvent@QLineEdit@@MAEXPAVQFocusEvent@@@Z 0041ad0c f   qt-mt323:qt-mt323.dll
 0001:00019d12       ?keyPressEvent@QLineEdit@@MAEXPAVQKeyEvent@@@Z 0041ad12 f   qt-mt323:qt-mt323.dll
 0001:00019d18       ?mouseMoveEvent@QLineEdit@@MAEXPAVQMouseEvent@@@Z 0041ad18 f   qt-mt323:qt-mt323.dll
 0001:00019d1e       ?mouseDoubleClickEvent@QLineEdit@@MAEXPAVQMouseEvent@@@Z 0041ad1e f   qt-mt323:qt-mt323.dll
 0001:00019d24       ?mouseReleaseEvent@QLineEdit@@MAEXPAVQMouseEvent@@@Z 0041ad24 f   qt-mt323:qt-mt323.dll
 0001:00019d2a       ?mousePressEvent@QLineEdit@@MAEXPAVQMouseEvent@@@Z 0041ad2a f   qt-mt323:qt-mt323.dll
 0001:00019d30       ?minimumSizeHint@QLineEdit@@UBE?AVQSize@@XZ 0041ad30 f   qt-mt323:qt-mt323.dll
 0001:00019d36       ?sizeHint@QLineEdit@@UBE?AVQSize@@XZ 0041ad36 f   qt-mt323:qt-mt323.dll
 0001:00019d3c       ?setFont@QLineEdit@@UAEXABVQFont@@@Z 0041ad3c f   qt-mt323:qt-mt323.dll
 0001:00019d42       ?setPalette@QLineEdit@@UAEXABVQPalette@@@Z 0041ad42 f   qt-mt323:qt-mt323.dll
 0001:00019d48       ?event@QLineEdit@@MAE_NPAVQEvent@@@Z 0041ad48 f   qt-mt323:qt-mt323.dll
 0001:00019d4e       ?qt_property@QLineEdit@@UAE_NHHPAVQVariant@@@Z 0041ad4e f   qt-mt323:qt-mt323.dll
 0001:00019d54       ?qt_emit@QLineEdit@@UAE_NHPAUQUObject@@@Z 0041ad54 f   qt-mt323:qt-mt323.dll
 0001:00019d5a       ?qt_invoke@QLineEdit@@UAE_NHPAUQUObject@@@Z 0041ad5a f   qt-mt323:qt-mt323.dll
 0001:00019d60       ?qt_cast@QLineEdit@@UAEPAXPBD@Z 0041ad60 f   qt-mt323:qt-mt323.dll
 0001:00019d66       ?className@QLineEdit@@UBEPBDXZ 0041ad66 f   qt-mt323:qt-mt323.dll
 0001:00019d6c       ?metaObject@QLineEdit@@UBEPAVQMetaObject@@XZ 0041ad6c f   qt-mt323:qt-mt323.dll
 0001:00019d72       ?iterator@QGridLayout@@UAE?AVQLayoutIterator@@XZ 0041ad72 f   qt-mt323:qt-mt323.dll
 0001:00019d78       ?invalidate@QGridLayout@@UAEXXZ 0041ad78 f   qt-mt323:qt-mt323.dll
 0001:00019d7e       ?heightForWidth@QGridLayout@@UBEHH@Z 0041ad7e f   qt-mt323:qt-mt323.dll
 0001:00019d84       ?hasHeightForWidth@QGridLayout@@UBE_NXZ 0041ad84 f   qt-mt323:qt-mt323.dll
 0001:00019d8a       ?setGeometry@QGridLayout@@UAEXABVQRect@@@Z 0041ad8a f   qt-mt323:qt-mt323.dll
 0001:00019d90       ?expanding@QGridLayout@@UBE?AW4ExpandData@QSizePolicy@@XZ 0041ad90 f   qt-mt323:qt-mt323.dll
 0001:00019d96       ?maximumSize@QGridLayout@@UBE?AVQSize@@XZ 0041ad96 f   qt-mt323:qt-mt323.dll
 0001:00019d9c       ?minimumSize@QGridLayout@@UBE?AVQSize@@XZ 0041ad9c f   qt-mt323:qt-mt323.dll
 0001:00019da2       ?sizeHint@QGridLayout@@UBE?AVQSize@@XZ 0041ada2 f   qt-mt323:qt-mt323.dll
 0001:00019da8       ?setColStretch@QGridLayout@@UAEXHH@Z 0041ada8 f   qt-mt323:qt-mt323.dll
 0001:00019dae       ?setRowStretch@QGridLayout@@UAEXHH@Z 0041adae f   qt-mt323:qt-mt323.dll
 0001:00019db4       ?addItem@QGridLayout@@UAEXPAVQLayoutItem@@@Z 0041adb4 f   qt-mt323:qt-mt323.dll
 0001:00019dba       ?qt_property@QGridLayout@@UAE_NHHPAVQVariant@@@Z 0041adba f   qt-mt323:qt-mt323.dll
 0001:00019dc0       ?qt_emit@QGridLayout@@UAE_NHPAUQUObject@@@Z 0041adc0 f   qt-mt323:qt-mt323.dll
 0001:00019dc6       ?qt_invoke@QGridLayout@@UAE_NHPAUQUObject@@@Z 0041adc6 f   qt-mt323:qt-mt323.dll
 0001:00019dcc       ?qt_cast@QGridLayout@@UAEPAXPBD@Z 0041adcc f   qt-mt323:qt-mt323.dll
 0001:00019dd2       ?className@QGridLayout@@UBEPBDXZ 0041add2 f   qt-mt323:qt-mt323.dll
 0001:00019dd8       ?metaObject@QGridLayout@@UBEPAVQMetaObject@@XZ 0041add8 f   qt-mt323:qt-mt323.dll
 0001:00019dde       ??_Gtype_info@@UAEPAXI@Z   0041adde f i MSVCRT:ti_inst.obj
 0001:00019dde       ??_Etype_info@@UAEPAXI@Z   0041adde f i MSVCRT:ti_inst.obj
 0001:00019dfa       ??3@YAXPAX@Z               0041adfa f   MSVCRT:MSVCRT.dll
 0001:00019e00       __onexit                   0041ae00 f   MSVCRT:atonexit.obj
 0001:00019e2c       _atexit                    0041ae2c f   MSVCRT:atonexit.obj
 0001:00019e3e       ??2@YAPAXI@Z               0041ae3e f   MSVCRT:MSVCRT.dll
 0001:00019e44       ___CxxFrameHandler         0041ae44 f   MSVCRT:MSVCRT.dll
 0001:00019e50       __purecall                 0041ae50 f   MSVCRT:MSVCRT.dll
 0001:00019e56       ___RTDynamicCast           0041ae56 f   MSVCRT:MSVCRT.dll
 0001:00019e60       __alloca_probe             0041ae60 f   MSVCRT:chkstk.obj
 0001:00019e60       __chkstk                   0041ae60 f   MSVCRT:chkstk.obj
 0001:00019e90       __CxxThrowException@8      0041ae90 f   MSVCRT:MSVCRT.dll
 0001:00019e96       _malloc                    0041ae96 f   MSVCRT:MSVCRT.dll
 0001:00019e9c       _free                      0041ae9c f   MSVCRT:MSVCRT.dll
 0001:00019ea2       ??_M@YGXPAXIHP6EX0@Z@Z     0041aea2 f   MSVCRT:ehvecdtr.obj
 0001:00019f22       ?__ArrayUnwind@@YGXPAXIHP6EX0@Z@Z 0041af22 f   MSVCRT:ehvecdtr.obj
 0001:00019f96       ??_L@YGXPAXIHP6EX0@Z1@Z    0041af96 f   MSVCRT:ehvecctr.obj
 0001:0001a018       _WinMainCRTStartup         0041b018 f   MSVCRT:crtexew.obj
 0001:0001a176       _strpbrk                   0041b176 f   MSVCRT:MSVCRT.dll
 0001:0001a17c       ??1type_info@@UAE@XZ       0041b17c f   MSVCRT:MSVCRT.dll
 0001:0001a182       ___dllonexit               0041b182 f   MSVCRT:MSVCRT.dll
 0001:0001a188       __except_handler3          0041b188 f   MSVCRT:MSVCRT.dll
 0001:0001a18e       ?terminate@@YAXXZ          0041b18e f   MSVCRT:MSVCRT.dll
 0001:0001a194       __XcptFilter               0041b194 f   MSVCRT:MSVCRT.dll
 0001:0001a19a       __initterm                 0041b19a f   MSVCRT:MSVCRT.dll
 0001:0001a1a0       __setdefaultprecision      0041b1a0 f   MSVCRT:fp8.obj
 0001:0001a1b2       __matherr                  0041b1b2 f   MSVCRT:merr.obj
 0001:0001a1b5       __setargv                  0041b1b5 f   MSVCRT:dllargv.obj
 0001:0001a1b6       __controlfp                0041b1b6 f   MSVCRT:MSVCRT.dll
 0001:0001a1bc       _VerQueryValueA@16         0041b1bc f   version:VERSION.dll
 0001:0001a1c2       _GetFileVersionInfoA@16    0041b1c2 f   version:VERSION.dll
 0001:0001a1c8       _GetFileVersionInfoSizeA@8 0041b1c8 f   version:VERSION.dll
 0001:0001a1ce       _WinMain@16                0041b1ce f   qtmain:qtmain_win.obj
 0001:0001a25b       ?detach@?$QMemArray@PAD@@UAEXXZ 0041b25b f i qtmain:qtmain_win.obj
 0001:0001a263       ??_E?$QMemArray@PAD@@UAEPAXI@Z 0041b263 f i qtmain:qtmain_win.obj
 0001:0001a263       ??_G?$QMemArray@PAD@@UAEPAXI@Z 0041b263 f i qtmain:qtmain_win.obj
 0001:0001a286       _strcpy                    0041b286 f   MSVCRT:MSVCRT.dll
 0001:0001a28c       _strlen                    0041b28c f   MSVCRT:MSVCRT.dll
 0001:0001a292       ?deleteData@QGArray@@MAEXPAUarray_data@1@@Z 0041b292 f   qt-mt323:qt-mt323.dll
 0001:0001a298       ?newData@QGArray@@MAEPAUarray_data@1@XZ 0041b298 f   qt-mt323:qt-mt323.dll
 0001:0001a29e       ?qWinMain@@YAXPAUHINSTANCE__@@0PADHAAHAAV?$QMemArray@PAD@@@Z 0041b29e f   qt-mt323:qt-mt323.dll
 0002:00000000       __imp_?Override@Calarm_Process@@QAEXHH@Z 0041e000     Calarm_Process:Calarm_Process.dll
 0002:00000004       __imp_?getInputProcessNames@Calarm_Process@@QAEPAV?$list@V?$basic_string@DU?$char_traits@D@std@@V?$allocator@D@2@@std@@V?$allocator@V?$basic_string@DU?$char_traits@D@std@@V?$allocator@D@2@@std@@@2@@std@@XZ 0041e004     Calarm_Process:Calarm_Process.dll
 0002:00000008       __imp_?ProcessType@Calarm_Process@@QAEHXZ 0041e008     Calarm_Process:Calarm_Process.dll
 0002:0000000c       __imp_?ProcMaskName@Calarm_Process@@QAE?AV?$basic_string@DU?$char_traits@D@std@@V?$allocator@D@2@@std@@XZ 0041e00c     Calarm_Process:Calarm_Process.dll
 0002:00000010       __imp_?InitProc@Calarm_Process@@QAE_NPAH00H@Z 0041e010     Calarm_Process:Calarm_Process.dll
 0002:00000014       __imp_?GetOverrideEndTime@Calarm_Process@@QAEHXZ 0041e014     Calarm_Process:Calarm_Process.dll
 0002:00000018       __imp_??1Calarm_Process@@QAE@XZ 0041e018     Calarm_Process:Calarm_Process.dll
 0002:0000001c       __imp_?SetGreeningRequired@Calarm_Process@@SAX_N@Z 0041e01c     Calarm_Process:Calarm_Process.dll
 0002:00000020       __imp_?ProcName@Calarm_Process@@QAE?AV?$basic_string@DU?$char_traits@D@std@@V?$allocator@D@2@@std@@XZ 0041e020     Calarm_Process:Calarm_Process.dll
 0002:00000024       __imp_??0Calarm_Process@@QAE@HQBD_N@Z 0041e024     Calarm_Process:Calarm_Process.dll
 0002:00000028       __imp_?setInitialState@Calarm_Process@@QAEXH@Z 0041e028     Calarm_Process:Calarm_Process.dll
 0002:0000002c       __imp_?LoadSettings@Calarm_Process@@QAE_NPADK@Z 0041e02c     Calarm_Process:Calarm_Process.dll
 0002:00000030       __imp_?CalcNow@Calarm_Process@@QAE_NXZ 0041e030     Calarm_Process:Calarm_Process.dll
 0002:00000034       __imp_?SetInputState@Calarm_Process@@QAE_NH@Z 0041e034     Calarm_Process:Calarm_Process.dll
 0002:00000038       __imp_?getAcqSettings@Calarm_Process@@QAE_NAAH0@Z 0041e038     Calarm_Process:Calarm_Process.dll
 0002:0000003c       __imp_?GetProcessNumber@Calarm_Process@@QAEHXZ 0041e03c     Calarm_Process:Calarm_Process.dll
 0002:00000040       \177Calarm_Process_NULL_THUNK_DATA 0041e040     Calarm_Process:Calarm_Process.dll
 0002:00000044       __imp__lstrcpynA@12        0041e044     kernel32:KERNEL32.dll
 0002:00000048       __imp__GetModuleHandleA@4  0041e048     kernel32:KERNEL32.dll
 0002:0000004c       __imp__GetStartupInfoA@4   0041e04c     kernel32:KERNEL32.dll
 0002:00000050       __imp__GetPrivateProfileIntA@16 0041e050     kernel32:KERNEL32.dll
 0002:00000054       __imp__WritePrivateProfileStringA@16 0041e054     kernel32:KERNEL32.dll
 0002:00000058       __imp__GetDiskFreeSpaceExA@16 0041e058     kernel32:KERNEL32.dll
 0002:0000005c       __imp__GetLastError@0      0041e05c     kernel32:KERNEL32.dll
 0002:00000060       __imp__FormatMessageA@28   0041e060     kernel32:KERNEL32.dll
 0002:00000064       __imp__LocalFree@4         0041e064     kernel32:KERNEL32.dll
 0002:00000068       __imp__GetLocalTime@4      0041e068     kernel32:KERNEL32.dll
 0002:0000006c       __imp__GetPrivateProfileStringA@24 0041e06c     kernel32:KERNEL32.dll
 0002:00000070       \177KERNEL32_NULL_THUNK_DATA 0041e070     kernel32:KERNEL32.dll
 0002:00000074       __imp_??0_Winit@std@@QAE@XZ 0041e074     msvcprt:MSVCP60.dll
 0002:00000078       __imp_??1_Winit@std@@QAE@XZ 0041e078     msvcprt:MSVCP60.dll
 0002:0000007c       __imp_??1Init@ios_base@std@@QAE@XZ 0041e07c     msvcprt:MSVCP60.dll
 0002:00000080       __imp_?_C@?1??_Nullstr@?$basic_string@DU?$char_traits@D@std@@V?$allocator@D@2@@std@@CAPBDXZ@4DB 0041e080     msvcprt:MSVCP60.dll
 0002:00000084       __imp_?_Tidy@?$basic_string@DU?$char_traits@D@std@@V?$allocator@D@2@@std@@AAEX_N@Z 0041e084     msvcprt:MSVCP60.dll
 0002:00000088       __imp_??1?$basic_string@DU?$char_traits@D@std@@V?$allocator@D@2@@std@@QAE@XZ 0041e088     msvcprt:MSVCP60.dll
 0002:0000008c       __imp_??0_Lockit@std@@QAE@XZ 0041e08c     msvcprt:MSVCP60.dll
 0002:00000090       __imp_??1_Lockit@std@@QAE@XZ 0041e090     msvcprt:MSVCP60.dll
 0002:00000094       __imp_??0Init@ios_base@std@@QAE@XZ 0041e094     msvcprt:MSVCP60.dll
 0002:00000098       \177MSVCP60_NULL_THUNK_DATA 0041e098     msvcprt:MSVCP60.dll
 0002:0000009c       __imp__getenv              0041e09c     MSVCRT:MSVCRT.dll
 0002:000000a0       __imp__strlen              0041e0a0     MSVCRT:MSVCRT.dll
 0002:000000a4       __imp__strcpy              0041e0a4     MSVCRT:MSVCRT.dll
 0002:000000a8       __imp___controlfp          0041e0a8     MSVCRT:MSVCRT.dll
 0002:000000ac       __imp____set_app_type      0041e0ac     MSVCRT:MSVCRT.dll
 0002:000000b0       __imp____p__fmode          0041e0b0     MSVCRT:MSVCRT.dll
 0002:000000b4       __imp____p__commode        0041e0b4     MSVCRT:MSVCRT.dll
 0002:000000b8       __imp___adjust_fdiv        0041e0b8     MSVCRT:MSVCRT.dll
 0002:000000bc       __imp____setusermatherr    0041e0bc     MSVCRT:MSVCRT.dll
 0002:000000c0       __imp___initterm           0041e0c0     MSVCRT:MSVCRT.dll
 0002:000000c4       __imp____getmainargs       0041e0c4     MSVCRT:MSVCRT.dll
 0002:000000c8       __imp___acmdln             0041e0c8     MSVCRT:MSVCRT.dll
 0002:000000cc       __imp___XcptFilter         0041e0cc     MSVCRT:MSVCRT.dll
 0002:000000d0       __imp___exit               0041e0d0     MSVCRT:MSVCRT.dll
 0002:000000d4       __imp_?terminate@@YAXXZ    0041e0d4     MSVCRT:MSVCRT.dll
 0002:000000d8       __imp___except_handler3    0041e0d8     MSVCRT:MSVCRT.dll
 0002:000000dc       __imp___onexit             0041e0dc     MSVCRT:MSVCRT.dll
 0002:000000e0       __imp____dllonexit         0041e0e0     MSVCRT:MSVCRT.dll
 0002:000000e4       __imp_??1type_info@@UAE@XZ 0041e0e4     MSVCRT:MSVCRT.dll
 0002:000000e8       __imp__strpbrk             0041e0e8     MSVCRT:MSVCRT.dll
 0002:000000ec       __imp__free                0041e0ec     MSVCRT:MSVCRT.dll
 0002:000000f0       __imp__malloc              0041e0f0     MSVCRT:MSVCRT.dll
 0002:000000f4       __imp___mkdir              0041e0f4     MSVCRT:MSVCRT.dll
 0002:000000f8       __imp__fputs               0041e0f8     MSVCRT:MSVCRT.dll
 0002:000000fc       __imp___CxxThrowException@8 0041e0fc     MSVCRT:MSVCRT.dll
 0002:00000100       __imp_?_set_se_translator@@YAP6AXIPAU_EXCEPTION_POINTERS@@@ZP6AXI0@Z@Z 0041e100     MSVCRT:MSVCRT.dll
 0002:00000104       __imp__vsprintf            0041e104     MSVCRT:MSVCRT.dll
 0002:00000108       __imp__fprintf             0041e108     MSVCRT:MSVCRT.dll
 0002:0000010c       __imp__fopen               0041e10c     MSVCRT:MSVCRT.dll
 0002:00000110       __imp__fgetc               0041e110     MSVCRT:MSVCRT.dll
 0002:00000114       __imp__fclose              0041e114     MSVCRT:MSVCRT.dll
 0002:00000118       __imp____RTDynamicCast     0041e118     MSVCRT:MSVCRT.dll
 0002:0000011c       __imp__exit                0041e11c     MSVCRT:MSVCRT.dll
 0002:00000120       __imp__sprintf             0041e120     MSVCRT:MSVCRT.dll
 0002:00000124       __imp___purecall           0041e124     MSVCRT:MSVCRT.dll
 0002:00000128       __imp____CxxFrameHandler   0041e128     MSVCRT:MSVCRT.dll
 0002:0000012c       __imp_??2@YAPAXI@Z         0041e12c     MSVCRT:MSVCRT.dll
 0002:00000130       __imp_??3@YAXPAX@Z         0041e130     MSVCRT:MSVCRT.dll
 0002:00000134       \177MSVCRT_NULL_THUNK_DATA 0041e134     MSVCRT:MSVCRT.dll
 0002:00000138       __imp__wsprintfA           0041e138     user32:USER32.dll
 0002:0000013c       \177USER32_NULL_THUNK_DATA 0041e13c     user32:USER32.dll
 0002:00000140       __imp__GetFileVersionInfoSizeA@8 0041e140     version:VERSION.dll
 0002:00000144       __imp__GetFileVersionInfoA@16 0041e144     version:VERSION.dll
 0002:00000148       __imp__VerQueryValueA@16   0041e148     version:VERSION.dll
 0002:0000014c       \177VERSION_NULL_THUNK_DATA 0041e14c     version:VERSION.dll
 0002:00000150       __imp__htonl@4             0041e150     wsock32:WSOCK32.dll
 0002:00000154       __imp__gethostbyname@4     0041e154     wsock32:WSOCK32.dll
 0002:00000158       __imp__gethostname@8       0041e158     wsock32:WSOCK32.dll
 0002:0000015c       __imp__setsockopt@20       0041e15c     wsock32:WSOCK32.dll
 0002:00000160       \177WSOCK32_NULL_THUNK_DATA 0041e160     wsock32:WSOCK32.dll
 0002:00000164       __imp_?leaveEvent@QWidget@@MAEXPAVQEvent@@@Z 0041e164     qt-mt323:qt-mt323.dll
 0002:00000168       __imp_?focusOutEvent@QWidget@@MAEXPAVQFocusEvent@@@Z 0041e168     qt-mt323:qt-mt323.dll
 0002:0000016c       __imp_?focusInEvent@QWidget@@MAEXPAVQFocusEvent@@@Z 0041e16c     qt-mt323:qt-mt323.dll
 0002:00000170       __imp_?keyPressEvent@QWidget@@MAEXPAVQKeyEvent@@@Z 0041e170     qt-mt323:qt-mt323.dll
 0002:00000174       __imp_?mouseMoveEvent@QWidget@@MAEXPAVQMouseEvent@@@Z 0041e174     qt-mt323:qt-mt323.dll
 0002:00000178       __imp_?mouseReleaseEvent@QWidget@@MAEXPAVQMouseEvent@@@Z 0041e178     qt-mt323:qt-mt323.dll
 0002:0000017c       __imp_?mousePressEvent@QWidget@@MAEXPAVQMouseEvent@@@Z 0041e17c     qt-mt323:qt-mt323.dll
 0002:00000180       __imp_?customWhatsThis@QWidget@@UBE_NXZ 0041e180     qt-mt323:qt-mt323.dll
 0002:00000184       __imp_?heightForWidth@QWidget@@UBEHH@Z 0041e184     qt-mt323:qt-mt323.dll
 0002:00000188       __imp_?minimumSizeHint@QMainWindow@@UBE?AVQSize@@XZ 0041e188     qt-mt323:qt-mt323.dll
 0002:0000018c       __imp_?sizeHint@QMainWindow@@UBE?AVQSize@@XZ 0041e18c     qt-mt323:qt-mt323.dll
 0002:00000190       __imp_?hide@QMainWindow@@UAEXXZ 0041e190     qt-mt323:qt-mt323.dll
 0002:00000194       __imp_?show@QMainWindow@@UAEXXZ 0041e194     qt-mt323:qt-mt323.dll
 0002:00000198       __imp_?childEvent@QMainWindow@@MAEXPAVQChildEvent@@@Z 0041e198     qt-mt323:qt-mt323.dll
 0002:0000019c       __imp_?eventFilter@QMainWindow@@UAE_NPAVQObject@@PAVQEvent@@@Z 0041e19c     qt-mt323:qt-mt323.dll
 0002:000001a0       __imp_?event@QMainWindow@@MAE_NPAVQEvent@@@Z 0041e1a0     qt-mt323:qt-mt323.dll
 0002:000001a4       __imp_?menuDelPopup@QMenuBar@@EAEXPAVQPopupMenu@@@Z 0041e1a4     qt-mt323:qt-mt323.dll
 0002:000001a8       __imp_?menuInsPopup@QMenuBar@@EAEXPAVQPopupMenu@@@Z 0041e1a8     qt-mt323:qt-mt323.dll
 0002:000001ac       __imp_?menuStateChanged@QMenuBar@@MAEXXZ 0041e1ac     qt-mt323:qt-mt323.dll
 0002:000001b0       __imp_?menuContentsChanged@QMenuBar@@MAEXXZ 0041e1b0     qt-mt323:qt-mt323.dll
 0002:000001b4       __imp_?activateItemAt@QMenuBar@@UAEXH@Z 0041e1b4     qt-mt323:qt-mt323.dll
 0002:000001b8       __imp_?setId@QMenuData@@UAEXHH@Z 0041e1b8     qt-mt323:qt-mt323.dll
 0002:000001bc       __imp_?updateItem@QMenuBar@@UAEXH@Z 0041e1bc     qt-mt323:qt-mt323.dll
 0002:000001c0       __imp_?fontInf@QPaintDevice@@MBEHPAVQFont@@H@Z 0041e1c0     qt-mt323:qt-mt323.dll
 0002:000001c4       __imp_?fontMet@QPaintDevice@@MBEHPAVQFont@@HPBDH@Z 0041e1c4     qt-mt323:qt-mt323.dll
 0002:000001c8       __imp_?metric@QWidget@@MBEHH@Z 0041e1c8     qt-mt323:qt-mt323.dll
 0002:000001cc       __imp_?cmd@QPaintDevice@@MAE_NHPAVQPainter@@PATQPDevCmdParam@@@Z 0041e1cc     qt-mt323:qt-mt323.dll
 0002:000001d0       __imp_?handle@QPaintDevice@@UBEPAUHDC__@@XZ 0041e1d0     qt-mt323:qt-mt323.dll
 0002:000001d4       __imp_?resolution@QPaintDevice@@UBEHXZ 0041e1d4     qt-mt323:qt-mt323.dll
 0002:000001d8       __imp_?setResolution@QPaintDevice@@UAEXH@Z 0041e1d8     qt-mt323:qt-mt323.dll
 0002:000001dc       __imp_?setSeparator@QMenuBar@@UAEXW4Separator@1@@Z 0041e1dc     qt-mt323:qt-mt323.dll
 0002:000001e0       __imp_?frameChanged@QMenuBar@@EAEXXZ 0041e1e0     qt-mt323:qt-mt323.dll
 0002:000001e4       __imp_?drawContents@QMenuBar@@MAEXPAVQPainter@@@Z 0041e1e4     qt-mt323:qt-mt323.dll
 0002:000001e8       __imp_?drawFrame@QFrame@@MAEXPAVQPainter@@@Z 0041e1e8     qt-mt323:qt-mt323.dll
 0002:000001ec       __imp_?setFrameRect@QFrame@@UAEXABVQRect@@@Z 0041e1ec     qt-mt323:qt-mt323.dll
 0002:000001f0       __imp_?setMidLineWidth@QFrame@@UAEXH@Z 0041e1f0     qt-mt323:qt-mt323.dll
 0002:000001f4       __imp_?setMargin@QFrame@@UAEXH@Z 0041e1f4     qt-mt323:qt-mt323.dll
 0002:000001f8       __imp_?setLineWidth@QFrame@@UAEXH@Z 0041e1f8     qt-mt323:qt-mt323.dll
 0002:000001fc       __imp_?setFrameStyle@QFrame@@UAEXH@Z 0041e1fc     qt-mt323:qt-mt323.dll
 0002:00000200       __imp_?setMicroFocusHint@QWidget@@MAEXHHHH_NPAVQFont@@@Z 0041e200     qt-mt323:qt-mt323.dll
 0002:00000204       __imp_?setKeyCompression@QWidget@@MAEX_N@Z 0041e204     qt-mt323:qt-mt323.dll
 0002:00000208       __imp_?focusNextPrevChild@QWidget@@MAE_N_N@Z 0041e208     qt-mt323:qt-mt323.dll
 0002:0000020c       __imp_?setWFlags@QWidget@@MAEXI@Z 0041e20c     qt-mt323:qt-mt323.dll
 0002:00000210       __imp_?setWState@QWidget@@MAEXI@Z 0041e210     qt-mt323:qt-mt323.dll
 0002:00000214       __imp_?destroy@QWidget@@MAEX_N0@Z 0041e214     qt-mt323:qt-mt323.dll
 0002:00000218       __imp_?create@QWidget@@MAEXPAUHWND__@@_N1@Z 0041e218     qt-mt323:qt-mt323.dll
 0002:0000021c       __imp_?windowActivationChange@QWidget@@MAEX_N@Z 0041e21c     qt-mt323:qt-mt323.dll
 0002:00000220       __imp_?fontChange@QMenuBar@@MAEXABVQFont@@@Z 0041e220     qt-mt323:qt-mt323.dll
 0002:00000224       __imp_?paletteChange@QWidget@@MAEXABVQPalette@@@Z 0041e224     qt-mt323:qt-mt323.dll
 0002:00000228       __imp_?enabledChange@QWidget@@MAEX_N@Z 0041e228     qt-mt323:qt-mt323.dll
 0002:0000022c       __imp_?styleChange@QMenuBar@@MAEXAAVQStyle@@@Z 0041e22c     qt-mt323:qt-mt323.dll
 0002:00000230       __imp_?updateMask@QWidget@@MAEXXZ 0041e230     qt-mt323:qt-mt323.dll
 0002:00000234       __imp_?winEvent@QWidget@@MAE_NPAUtagMSG@@@Z 0041e234     qt-mt323:qt-mt323.dll
 0002:00000238       __imp_?hideEvent@QWidget@@MAEXPAVQHideEvent@@@Z 0041e238     qt-mt323:qt-mt323.dll
 0002:0000023c       __imp_?showEvent@QWidget@@MAEXPAVQShowEvent@@@Z 0041e23c     qt-mt323:qt-mt323.dll
 0002:00000240       __imp_?dropEvent@QWidget@@MAEXPAVQDropEvent@@@Z 0041e240     qt-mt323:qt-mt323.dll
 0002:00000244       __imp_?dragLeaveEvent@QWidget@@MAEXPAVQDragLeaveEvent@@@Z 0041e244     qt-mt323:qt-mt323.dll
 0002:00000248       __imp_?dragMoveEvent@QWidget@@MAEXPAVQDragMoveEvent@@@Z 0041e248     qt-mt323:qt-mt323.dll
 0002:0000024c       __imp_?dragEnterEvent@QWidget@@MAEXPAVQDragEnterEvent@@@Z 0041e24c     qt-mt323:qt-mt323.dll
 0002:00000250       __imp_?tabletEvent@QWidget@@MAEXPAVQTabletEvent@@@Z 0041e250     qt-mt323:qt-mt323.dll
 0002:00000254       __imp_?imEndEvent@QWidget@@MAEXPAVQIMEvent@@@Z 0041e254     qt-mt323:qt-mt323.dll
 0002:00000258       __imp_?imComposeEvent@QWidget@@MAEXPAVQIMEvent@@@Z 0041e258     qt-mt323:qt-mt323.dll
 0002:0000025c       __imp_?imStartEvent@QWidget@@MAEXPAVQIMEvent@@@Z 0041e25c     qt-mt323:qt-mt323.dll
 0002:00000260       __imp_?contextMenuEvent@QWidget@@MAEXPAVQContextMenuEvent@@@Z 0041e260     qt-mt323:qt-mt323.dll
 0002:00000264       __imp_?closeEvent@QWidget@@MAEXPAVQCloseEvent@@@Z 0041e264     qt-mt323:qt-mt323.dll
 0002:00000268       __imp_?resizeEvent@QMenuBar@@MAEXPAVQResizeEvent@@@Z 0041e268     qt-mt323:qt-mt323.dll
 0002:0000026c       __imp_?moveEvent@QWidget@@MAEXPAVQMoveEvent@@@Z 0041e26c     qt-mt323:qt-mt323.dll
 0002:00000270       __imp_?paintEvent@QFrame@@MAEXPAVQPaintEvent@@@Z 0041e270     qt-mt323:qt-mt323.dll
 0002:00000274       __imp_?leaveEvent@QMenuBar@@MAEXPAVQEvent@@@Z 0041e274     qt-mt323:qt-mt323.dll
 0002:00000278       __imp_?enterEvent@QWidget@@MAEXPAVQEvent@@@Z 0041e278     qt-mt323:qt-mt323.dll
 0002:0000027c       __imp_?focusOutEvent@QMenuBar@@MAEXPAVQFocusEvent@@@Z 0041e27c     qt-mt323:qt-mt323.dll
 0002:00000280       __imp_?focusInEvent@QMenuBar@@MAEXPAVQFocusEvent@@@Z 0041e280     qt-mt323:qt-mt323.dll
 0002:00000284       __imp_?keyReleaseEvent@QWidget@@MAEXPAVQKeyEvent@@@Z 0041e284     qt-mt323:qt-mt323.dll
 0002:00000288       __imp_?keyPressEvent@QMenuBar@@MAEXPAVQKeyEvent@@@Z 0041e288     qt-mt323:qt-mt323.dll
 0002:0000028c       __imp_?wheelEvent@QWidget@@MAEXPAVQWheelEvent@@@Z 0041e28c     qt-mt323:qt-mt323.dll
 0002:00000290       __imp_?mouseMoveEvent@QMenuBar@@MAEXPAVQMouseEvent@@@Z 0041e290     qt-mt323:qt-mt323.dll
 0002:00000294       __imp_?mouseDoubleClickEvent@QWidget@@MAEXPAVQMouseEvent@@@Z 0041e294     qt-mt323:qt-mt323.dll
 0002:00000298       __imp_?mouseReleaseEvent@QMenuBar@@MAEXPAVQMouseEvent@@@Z 0041e298     qt-mt323:qt-mt323.dll
 0002:0000029c       __imp_?mousePressEvent@QMenuBar@@MAEXPAVQMouseEvent@@@Z 0041e29c     qt-mt323:qt-mt323.dll
 0002:000002a0       __imp_?customWhatsThis@QMenuBar@@UBE_NXZ 0041e2a0     qt-mt323:qt-mt323.dll
 0002:000002a4       __imp_?setBackgroundOrigin@QWidget@@UAEXW4BackgroundOrigin@1@@Z 0041e2a4     qt-mt323:qt-mt323.dll
 0002:000002a8       __imp_?setAutoMask@QWidget@@UAEX_N@Z 0041e2a8     qt-mt323:qt-mt323.dll
 0002:000002ac       __imp_?setAcceptDrops@QWidget@@UAEX_N@Z 0041e2ac     qt-mt323:qt-mt323.dll
 0002:000002b0       __imp_?reparent@QWidget@@UAEXPAV1@IABVQPoint@@_N@Z 0041e2b0     qt-mt323:qt-mt323.dll
 0002:000002b4       __imp_?adjustSize@QWidget@@UAEXXZ 0041e2b4     qt-mt323:qt-mt323.dll
 0002:000002b8       __imp_?heightForWidth@QMenuBar@@UBEHH@Z 0041e2b8     qt-mt323:qt-mt323.dll
 0002:000002bc       __imp_?setSizePolicy@QWidget@@UAEXVQSizePolicy@@@Z 0041e2bc     qt-mt323:qt-mt323.dll
 0002:000002c0       __imp_?sizePolicy@QWidget@@UBE?AVQSizePolicy@@XZ 0041e2c0     qt-mt323:qt-mt323.dll
 0002:000002c4       __imp_?minimumSizeHint@QMenuBar@@UBE?AVQSize@@XZ 0041e2c4     qt-mt323:qt-mt323.dll
 0002:000002c8       __imp_?sizeHint@QMenuBar@@UBE?AVQSize@@XZ 0041e2c8     qt-mt323:qt-mt323.dll
 0002:000002cc       __imp_?setGeometry@QWidget@@UAEXHHHH@Z 0041e2cc     qt-mt323:qt-mt323.dll
 0002:000002d0       __imp_?setGeometry@QWidget@@UAEXABVQRect@@@Z 0041e2d0     qt-mt323:qt-mt323.dll
 0002:000002d4       __imp_?resize@QWidget@@UAEXHH@Z 0041e2d4     qt-mt323:qt-mt323.dll
 0002:000002d8       __imp_?move@QWidget@@UAEXHH@Z 0041e2d8     qt-mt323:qt-mt323.dll
 0002:000002dc       __imp_?close@QWidget@@UAE_N_N@Z 0041e2dc     qt-mt323:qt-mt323.dll
 0002:000002e0       __imp_?polish@QWidget@@UAEXXZ 0041e2e0     qt-mt323:qt-mt323.dll
 0002:000002e4       __imp_?showNormal@QWidget@@UAEXXZ 0041e2e4     qt-mt323:qt-mt323.dll
 0002:000002e8       __imp_?showMaximized@QWidget@@UAEXXZ 0041e2e8     qt-mt323:qt-mt323.dll
 0002:000002ec       __imp_?showMinimized@QWidget@@UAEXXZ 0041e2ec     qt-mt323:qt-mt323.dll
 0002:000002f0       __imp_?hide@QMenuBar@@UAEXXZ 0041e2f0     qt-mt323:qt-mt323.dll
 0002:000002f4       __imp_?show@QMenuBar@@UAEXXZ 0041e2f4     qt-mt323:qt-mt323.dll
 0002:000002f8       __imp_?setUpdatesEnabled@QWidget@@UAEX_N@Z 0041e2f8     qt-mt323:qt-mt323.dll
 0002:000002fc       __imp_?setFocusProxy@QWidget@@UAEXPAV1@@Z 0041e2fc     qt-mt323:qt-mt323.dll
 0002:00000300       __imp_?setFocusPolicy@QWidget@@UAEXW4FocusPolicy@1@@Z 0041e300     qt-mt323:qt-mt323.dll
 0002:00000304       __imp_?setActiveWindow@QWidget@@UAEXXZ 0041e304     qt-mt323:qt-mt323.dll
 0002:00000308       __imp_?setFocus@QWidget@@UAEXXZ 0041e308     qt-mt323:qt-mt323.dll
 0002:0000030c       __imp_?setMouseTracking@QWidget@@UAEX_N@Z 0041e30c     qt-mt323:qt-mt323.dll
 0002:00000310       __imp_?setIconText@QWidget@@UAEXABVQString@@@Z 0041e310     qt-mt323:qt-mt323.dll
 0002:00000314       __imp_?setIcon@QWidget@@UAEXABVQPixmap@@@Z 0041e314     qt-mt323:qt-mt323.dll
 0002:00000318       __imp_?setCaption@QWidget@@UAEXABVQString@@@Z 0041e318     qt-mt323:qt-mt323.dll
 0002:0000031c       __imp_?setBackgroundPixmap@QWidget@@UAEXABVQPixmap@@@Z 0041e31c     qt-mt323:qt-mt323.dll
 0002:00000320       __imp_?setBackgroundColor@QWidget@@UAEXABVQColor@@@Z 0041e320     qt-mt323:qt-mt323.dll
 0002:00000324       __imp_?setMask@QWidget@@UAEXABVQBitmap@@@Z 0041e324     qt-mt323:qt-mt323.dll
 0002:00000328       __imp_?setMask@QWidget@@UAEXABVQRegion@@@Z 0041e328     qt-mt323:qt-mt323.dll
 0002:0000032c       __imp_?unsetCursor@QWidget@@UAEXXZ 0041e32c     qt-mt323:qt-mt323.dll
 0002:00000330       __imp_?setCursor@QWidget@@UAEXABVQCursor@@@Z 0041e330     qt-mt323:qt-mt323.dll
 0002:00000334       __imp_?setFont@QWidget@@UAEXABVQFont@@@Z 0041e334     qt-mt323:qt-mt323.dll
 0002:00000338       __imp_?setPaletteBackgroundPixmap@QWidget@@UAEXABVQPixmap@@@Z 0041e338     qt-mt323:qt-mt323.dll
 0002:0000033c       __imp_?setPaletteBackgroundColor@QWidget@@UAEXABVQColor@@@Z 0041e33c     qt-mt323:qt-mt323.dll
 0002:00000340       __imp_?setPalette@QWidget@@UAEXABVQPalette@@@Z 0041e340     qt-mt323:qt-mt323.dll
 0002:00000344       __imp_?setErasePixmap@QWidget@@UAEXABVQPixmap@@@Z 0041e344     qt-mt323:qt-mt323.dll
 0002:00000348       __imp_?setEraseColor@QWidget@@UAEXABVQColor@@@Z 0041e348     qt-mt323:qt-mt323.dll
 0002:0000034c       __imp_?setBackgroundMode@QWidget@@UAEXW4BackgroundMode@Qt@@@Z 0041e34c     qt-mt323:qt-mt323.dll
 0002:00000350       __imp_?setSizeIncrement@QWidget@@UAEXHH@Z 0041e350     qt-mt323:qt-mt323.dll
 0002:00000354       __imp_?setMaximumSize@QWidget@@UAEXHH@Z 0041e354     qt-mt323:qt-mt323.dll
 0002:00000358       __imp_?setMinimumSize@QWidget@@UAEXHH@Z 0041e358     qt-mt323:qt-mt323.dll
 0002:0000035c       __imp_?setEnabled@QWidget@@UAEX_N@Z 0041e35c     qt-mt323:qt-mt323.dll
 0002:00000360       __imp_?checkConnectArgs@QObject@@MAE_NPBDPBV1@0@Z 0041e360     qt-mt323:qt-mt323.dll
 0002:00000364       __imp_?disconnectNotify@QObject@@MAEXPBD@Z 0041e364     qt-mt323:qt-mt323.dll
 0002:00000368       __imp_?connectNotify@QObject@@MAEXPBD@Z 0041e368     qt-mt323:qt-mt323.dll
 0002:0000036c       __imp_?customEvent@QObject@@MAEXPAVQCustomEvent@@@Z 0041e36c     qt-mt323:qt-mt323.dll
 0002:00000370       __imp_?childEvent@QObject@@MAEXPAVQChildEvent@@@Z 0041e370     qt-mt323:qt-mt323.dll
 0002:00000374       __imp_?timerEvent@QObject@@MAEXPAVQTimerEvent@@@Z 0041e374     qt-mt323:qt-mt323.dll
 0002:00000378       __imp_?property@QObject@@UBE?AVQVariant@@PBD@Z 0041e378     qt-mt323:qt-mt323.dll
 0002:0000037c       __imp_?setProperty@QObject@@UAE_NPBDABVQVariant@@@Z 0041e37c     qt-mt323:qt-mt323.dll
 0002:00000380       __imp_?removeChild@QObject@@UAEXPAV1@@Z 0041e380     qt-mt323:qt-mt323.dll
 0002:00000384       __imp_?insertChild@QObject@@UAEXPAV1@@Z 0041e384     qt-mt323:qt-mt323.dll
 0002:00000388       __imp_?setName@QWidget@@UAEXPBD@Z 0041e388     qt-mt323:qt-mt323.dll
 0002:0000038c       __imp_?eventFilter@QMenuBar@@UAE_NPAVQObject@@PAVQEvent@@@Z 0041e38c     qt-mt323:qt-mt323.dll
 0002:00000390       __imp_?event@QWidget@@MAE_NPAVQEvent@@@Z 0041e390     qt-mt323:qt-mt323.dll
 0002:00000394       __imp_?qt_property@QMenuBar@@UAE_NHHPAVQVariant@@@Z 0041e394     qt-mt323:qt-mt323.dll
 0002:00000398       __imp_?qt_emit@QMenuBar@@UAE_NHPAUQUObject@@@Z 0041e398     qt-mt323:qt-mt323.dll
 0002:0000039c       __imp_?qt_invoke@QMenuBar@@UAE_NHPAUQUObject@@@Z 0041e39c     qt-mt323:qt-mt323.dll
 0002:000003a0       __imp_?qt_cast@QMenuBar@@UAEPAXPBD@Z 0041e3a0     qt-mt323:qt-mt323.dll
 0002:000003a4       __imp_?className@QMenuBar@@UBEPBDXZ 0041e3a4     qt-mt323:qt-mt323.dll
 0002:000003a8       __imp_?metaObject@QMenuBar@@UBEPAVQMetaObject@@XZ 0041e3a8     qt-mt323:qt-mt323.dll
 0002:000003ac       __imp_??1QStringList@@QAE@XZ 0041e3ac     qt-mt323:qt-mt323.dll
 0002:000003b0       __imp_??1QString@@QAE@XZ   0041e3b0     qt-mt323:qt-mt323.dll
 0002:000003b4       __imp_??H@YA?BVQString@@PBDABV0@@Z 0041e3b4     qt-mt323:qt-mt323.dll
 0002:000003b8       __imp_?ascii@QString@@QBEPBDXZ 0041e3b8     qt-mt323:qt-mt323.dll
 0002:000003bc       __imp_?addLibraryPath@QApplication@@SAXABVQString@@@Z 0041e3bc     qt-mt323:qt-mt323.dll
 0002:000003c0       __imp_??H@YA?BVQString@@ABV0@0@Z 0041e3c0     qt-mt323:qt-mt323.dll
 0002:000003c4       __imp_??BQCharRef@@QBE?AVQChar@@XZ 0041e3c4     qt-mt323:qt-mt323.dll
 0002:000003c8       __imp_??AQString@@QAE?AVQCharRef@@H@Z 0041e3c8     qt-mt323:qt-mt323.dll
 0002:000003cc       __imp_??8@YA_NABVQString@@PBD@Z 0041e3cc     qt-mt323:qt-mt323.dll
 0002:000003d0       __imp_?toInt@QString@@QBEHPA_NH@Z 0041e3d0     qt-mt323:qt-mt323.dll
 0002:000003d4       __imp_?latin1@QString@@QBEPBDXZ 0041e3d4     qt-mt323:qt-mt323.dll
 0002:000003d8       __imp_?section@QString@@QBE?AV1@DHHH@Z 0041e3d8     qt-mt323:qt-mt323.dll
 0002:000003dc       __imp_?startsWith@QString@@QBE_NABV1@@Z 0041e3dc     qt-mt323:qt-mt323.dll
 0002:000003e0       __imp_?upper@QString@@QBE?AV1@XZ 0041e3e0     qt-mt323:qt-mt323.dll
 0002:000003e4       __imp_?setItemChecked@QMenuData@@QAEXH_N@Z 0041e3e4     qt-mt323:qt-mt323.dll
 0002:000003e8       __imp_?arg@QString@@QBE?AV1@ABV1@H@Z 0041e3e8     qt-mt323:qt-mt323.dll
 0002:000003ec       __imp_?arg@QString@@QBE?AV1@HHH@Z 0041e3ec     qt-mt323:qt-mt323.dll
 0002:000003f0       __imp_?insertSeparator@QMenuData@@QAEHH@Z 0041e3f0     qt-mt323:qt-mt323.dll
 0002:000003f4       __imp_??1QKeySequence@@QAE@XZ 0041e3f4     qt-mt323:qt-mt323.dll
 0002:000003f8       __imp_?insertItem@QMenuData@@QAEHABVQString@@PBVQObject@@PBDABVQKeySequence@@HH@Z 0041e3f8     qt-mt323:qt-mt323.dll
 0002:000003fc       __imp_??0QKeySequence@@QAE@H@Z 0041e3fc     qt-mt323:qt-mt323.dll
 0002:00000400       __imp_?insertItem@QMenuData@@QAEHABVQString@@PAVQPopupMenu@@HH@Z 0041e400     qt-mt323:qt-mt323.dll
 0002:00000404       __imp_?qt_check_pointer@@YA_N_NPBDH@Z 0041e404     qt-mt323:qt-mt323.dll
 0002:00000408       __imp_??0QPopupMenu@@QAE@PAVQWidget@@PBD@Z 0041e408     qt-mt323:qt-mt323.dll
 0002:0000040c       __imp_??0QMenuBar@@QAE@PAVQWidget@@PBD@Z 0041e40c     qt-mt323:qt-mt323.dll
 0002:00000410       __imp_??4QString@@QAEAAV0@ABV0@@Z 0041e410     qt-mt323:qt-mt323.dll
 0002:00000414       __imp_??H@YA?BVQString@@ABV0@PBD@Z 0041e414     qt-mt323:qt-mt323.dll
 0002:00000418       __imp_?qApp@@3PAVQApplication@@A 0041e418     qt-mt323:qt-mt323.dll
 0002:0000041c       __imp_?join@QStringList@@QBE?AVQString@@ABV2@@Z 0041e41c     qt-mt323:qt-mt323.dll
 0002:00000420       __imp_?deleteSelf@QStringData@@QAEXXZ 0041e420     qt-mt323:qt-mt323.dll
 0002:00000424       __imp_?end@?$QValueList@VQString@@@@QAE?AV?$QValueListIterator@VQString@@@@XZ 0041e424     qt-mt323:qt-mt323.dll
 0002:00000428       __imp_?detachInternal@?$QValueList@VQString@@@@AAEXXZ 0041e428     qt-mt323:qt-mt323.dll
 0002:0000042c       __imp_?setMaxLogLines@QTextEdit@@QAEXH@Z 0041e42c     qt-mt323:qt-mt323.dll
 0002:00000430       __imp_?connect@QObject@@SA_NPBV1@PBD01@Z 0041e430     qt-mt323:qt-mt323.dll
 0002:00000434       __imp_??0QSemaphore@@QAE@H@Z 0041e434     qt-mt323:qt-mt323.dll
 0002:00000438       __imp_??0QString@@QAE@PBD@Z 0041e438     qt-mt323:qt-mt323.dll
 0002:0000043c       __imp_?makeSharedNull@QString@@CAPAUQStringData@@XZ 0041e43c     qt-mt323:qt-mt323.dll
 0002:00000440       __imp_?shared_null@QString@@0PAUQStringData@@A 0041e440     qt-mt323:qt-mt323.dll
 0002:00000444       __imp_??1QSemaphore@@UAE@XZ 0041e444     qt-mt323:qt-mt323.dll
 0002:00000448       __imp_??1QMenuBar@@UAE@XZ  0041e448     qt-mt323:qt-mt323.dll
 0002:0000044c       __imp_??1QPopupMenu@@UAE@XZ 0041e44c     qt-mt323:qt-mt323.dll
 0002:00000450       __imp_?killTimer@QObject@@QAEXH@Z 0041e450     qt-mt323:qt-mt323.dll
 0002:00000454       __imp_??FQSemaphore@@QAEHH@Z 0041e454     qt-mt323:qt-mt323.dll
 0002:00000458       __imp_??EQSemaphore@@QAEHH@Z 0041e458     qt-mt323:qt-mt323.dll
 0002:0000045c       __imp_?setName@QObject@@UAEXPBD@Z 0041e45c     qt-mt323:qt-mt323.dll
 0002:00000460       __imp_?event@QTimer@@MAE_NPAVQEvent@@@Z 0041e460     qt-mt323:qt-mt323.dll
 0002:00000464       __imp_?qt_property@QTimer@@UAE_NHHPAVQVariant@@@Z 0041e464     qt-mt323:qt-mt323.dll
 0002:00000468       __imp_?qt_emit@QTimer@@UAE_NHPAUQUObject@@@Z 0041e468     qt-mt323:qt-mt323.dll
 0002:0000046c       __imp_?qt_invoke@QTimer@@UAE_NHPAUQUObject@@@Z 0041e46c     qt-mt323:qt-mt323.dll
 0002:00000470       __imp_?qt_cast@QTimer@@UAEPAXPBD@Z 0041e470     qt-mt323:qt-mt323.dll
 0002:00000474       __imp_?className@QTimer@@UBEPBDXZ 0041e474     qt-mt323:qt-mt323.dll
 0002:00000478       __imp_?metaObject@QTimer@@UBEPAVQMetaObject@@XZ 0041e478     qt-mt323:qt-mt323.dll
 0002:0000047c       __imp_?setRgb@QColor@@QAEXHHH@Z 0041e47c     qt-mt323:qt-mt323.dll
 0002:00000480       __imp_?debug@@YAXPBDZZ     0041e480     qt-mt323:qt-mt323.dll
 0002:00000484       __imp_?setFixedSize@QWidget@@QAEXABVQSize@@@Z 0041e484     qt-mt323:qt-mt323.dll
 0002:00000488       __imp_?startTimer@QObject@@QAEHH@Z 0041e488     qt-mt323:qt-mt323.dll
 0002:0000048c       __imp_?start@QTimer@@QAEHH_N@Z 0041e48c     qt-mt323:qt-mt323.dll
 0002:00000490       __imp_??0QTimer@@QAE@PAVQObject@@PBD@Z 0041e490     qt-mt323:qt-mt323.dll
 0002:00000494       __imp_?sprintf@QString@@QAAAAV1@PBDZZ 0041e494     qt-mt323:qt-mt323.dll
 0002:00000498       __imp_??1QTimer@@UAE@XZ    0041e498     qt-mt323:qt-mt323.dll
 0002:0000049c       __imp_??1QGDictIterator@@QAE@XZ 0041e49c     qt-mt323:qt-mt323.dll
 0002:000004a0       __imp_??EQGDictIterator@@QAEPAXXZ 0041e4a0     qt-mt323:qt-mt323.dll
 0002:000004a4       __imp_??0QGDictIterator@@QAE@ABVQGDict@@@Z 0041e4a4     qt-mt323:qt-mt323.dll
 0002:000004a8       __imp_??0QString@@QAE@ABV0@@Z 0041e4a8     qt-mt323:qt-mt323.dll
 0002:000004ac       __imp_?toString@QDateTime@@QBE?AVQString@@ABV2@@Z 0041e4ac     qt-mt323:qt-mt323.dll
 0002:000004b0       __imp_?currentDateTime@QDateTime@@SA?AV1@XZ 0041e4b0     qt-mt323:qt-mt323.dll
 0002:000004b4       __imp_?isLoaded@QLibrary@@QBE_NXZ 0041e4b4     qt-mt323:qt-mt323.dll
 0002:000004b8       __imp_?load@QLibrary@@QAE_NXZ 0041e4b8     qt-mt323:qt-mt323.dll
 0002:000004bc       __imp_?resolve@QLibrary@@QAEPAXPBD@Z 0041e4bc     qt-mt323:qt-mt323.dll
 0002:000004c0       __imp_?about@QMessageBox@@SAXPAVQWidget@@ABVQString@@1@Z 0041e4c0     qt-mt323:qt-mt323.dll
 0002:000004c4       __imp_?isItemChecked@QMenuData@@QBE_NH@Z 0041e4c4     qt-mt323:qt-mt323.dll
 0002:000004c8       __imp_?unload@QLibrary@@UAE_NXZ 0041e4c8     qt-mt323:qt-mt323.dll
 0002:000004cc       __imp_??1QGListIterator@@IAE@XZ 0041e4cc     qt-mt323:qt-mt323.dll
 0002:000004d0       __imp_??1QRegExp@@QAE@XZ   0041e4d0     qt-mt323:qt-mt323.dll
 0002:000004d4       __imp_??EQGListIterator@@IAEPAXXZ 0041e4d4     qt-mt323:qt-mt323.dll
 0002:000004d8       __imp_??0QLibrary@@QAE@ABVQString@@@Z 0041e4d8     qt-mt323:qt-mt323.dll
 0002:000004dc       __imp_?cap@QRegExp@@QAE?AVQString@@H@Z 0041e4dc     qt-mt323:qt-mt323.dll
 0002:000004e0       __imp_?search@QRegExp@@QBEHABVQString@@H@Z 0041e4e0     qt-mt323:qt-mt323.dll
 0002:000004e4       __imp_?lower@QString@@QBE?AV1@XZ 0041e4e4     qt-mt323:qt-mt323.dll
 0002:000004e8       __imp_?fileName@QFileInfo@@QBE?AVQString@@XZ 0041e4e8     qt-mt323:qt-mt323.dll
 0002:000004ec       __imp_??0QRegExp@@QAE@ABVQString@@_N1@Z 0041e4ec     qt-mt323:qt-mt323.dll
 0002:000004f0       __imp_??0QGListIterator@@IAE@ABVQGList@@@Z 0041e4f0     qt-mt323:qt-mt323.dll
 0002:000004f4       __imp_?entryInfoList@QDir@@UBEPBV?$QPtrList@VQFileInfo@@@@HH@Z 0041e4f4     qt-mt323:qt-mt323.dll
 0002:000004f8       __imp_??1QDir@@UAE@XZ      0041e4f8     qt-mt323:qt-mt323.dll
 0002:000004fc       __imp_?exists@QDir@@UBE_NXZ 0041e4fc     qt-mt323:qt-mt323.dll
 0002:00000500       __imp_?setFilter@QDir@@UAEXH@Z 0041e500     qt-mt323:qt-mt323.dll
 0002:00000504       __imp_??0QDir@@QAE@ABVQString@@0HH@Z 0041e504     qt-mt323:qt-mt323.dll
 0002:00000508       __imp_?null@QString@@2V1@A 0041e508     qt-mt323:qt-mt323.dll
 0002:0000050c       __imp_??1QLibrary@@UAE@XZ  0041e50c     qt-mt323:qt-mt323.dll
 0002:00000510       __imp_?write@QGDict@@MBEAAVQDataStream@@AAV2@PAX@Z 0041e510     qt-mt323:qt-mt323.dll
 0002:00000514       __imp_?read@QGDict@@MAEAAVQDataStream@@AAV2@AAPAX@Z 0041e514     qt-mt323:qt-mt323.dll
 0002:00000518       __imp_?newItem@QPtrCollection@@MAEPAXPAX@Z 0041e518     qt-mt323:qt-mt323.dll
 0002:0000051c       __imp_??0QGDict@@IAE@IW4KeyType@0@_N1@Z 0041e51c     qt-mt323:qt-mt323.dll
 0002:00000520       __imp_??1QGDict@@MAE@XZ    0041e520     qt-mt323:qt-mt323.dll
 0002:00000524       __imp_?clear@QGDict@@MAEXXZ 0041e524     qt-mt323:qt-mt323.dll
 0002:00000528       __imp_?look_string@QGDict@@QAEPAXABVQString@@PAXH@Z 0041e528     qt-mt323:qt-mt323.dll
 0002:0000052c       __imp_?elapsed@QTime@@QBEHXZ 0041e52c     qt-mt323:qt-mt323.dll
 0002:00000530       __imp_?start@QTime@@QAEXXZ 0041e530     qt-mt323:qt-mt323.dll
 0002:00000534       __imp_??1QProgressDialog@@UAE@XZ 0041e534     qt-mt323:qt-mt323.dll
 0002:00000538       __imp_?setProgress@QProgressDialog@@QAEXH@Z 0041e538     qt-mt323:qt-mt323.dll
 0002:0000053c       __imp_?show@QDialog@@UAEXXZ 0041e53c     qt-mt323:qt-mt323.dll
 0002:00000540       __imp_??0QProgressDialog@@QAE@ABVQString@@0HPAVQWidget@@PBD_NI@Z 0041e540     qt-mt323:qt-mt323.dll
 0002:00000544       __imp_?available@QSemaphore@@QBEHXZ 0041e544     qt-mt323:qt-mt323.dll
 0002:00000548       __imp_?findItem@QListView@@QBEPAVQListViewItem@@ABVQString@@HI@Z 0041e548     qt-mt323:qt-mt323.dll
 0002:0000054c       __imp_?erase@?$QValueList@VQString@@@@QAE?AV?$QValueListIterator@VQString@@@@V2@@Z 0041e54c     qt-mt323:qt-mt323.dll
 0002:00000550       __imp_??M@YA_NABVQString@@0@Z 0041e550     qt-mt323:qt-mt323.dll
 0002:00000554       __imp_??1QTextStream@@UAE@XZ 0041e554     qt-mt323:qt-mt323.dll
 0002:00000558       __imp_?close@QFile@@UAEXXZ 0041e558     qt-mt323:qt-mt323.dll
 0002:0000055c       __imp_??YQString@@QAEAAV0@ABV0@@Z 0041e55c     qt-mt323:qt-mt323.dll
 0002:00000560       __imp_??H@YA?BVQString@@ABV0@VQChar@@@Z 0041e560     qt-mt323:qt-mt323.dll
 0002:00000564       __imp_??4QString@@QAEAAV0@PBD@Z 0041e564     qt-mt323:qt-mt323.dll
 0002:00000568       __imp_?setProgress@QProgressDialog@@QAEXHH@Z 0041e568     qt-mt323:qt-mt323.dll
 0002:0000056c       __imp_?remove@QString@@QAEAAV1@II@Z 0041e56c     qt-mt323:qt-mt323.dll
 0002:00000570       __imp_?endsWith@QString@@QBE_NABV1@@Z 0041e570     qt-mt323:qt-mt323.dll
 0002:00000574       __imp_?stripWhiteSpace@QString@@QBE?AV1@XZ 0041e574     qt-mt323:qt-mt323.dll
 0002:00000578       __imp_?readLine@QTextStream@@QAE?AVQString@@XZ 0041e578     qt-mt323:qt-mt323.dll
 0002:0000057c       __imp_??0QTextStream@@QAE@PAVQIODevice@@@Z 0041e57c     qt-mt323:qt-mt323.dll
 0002:00000580       __imp_?open@QFile@@UAE_NH@Z 0041e580     qt-mt323:qt-mt323.dll
 0002:00000584       __imp_??1QFile@@UAE@XZ     0041e584     qt-mt323:qt-mt323.dll
 0002:00000588       __imp_?exists@QFile@@QBE_NXZ 0041e588     qt-mt323:qt-mt323.dll
 0002:0000058c       __imp_??0QFile@@QAE@ABVQString@@@Z 0041e58c     qt-mt323:qt-mt323.dll
 0002:00000590       __imp_??9@YA_NABVQString@@0@Z 0041e590     qt-mt323:qt-mt323.dll
 0002:00000594       __imp_?secsTo@QDateTime@@QBEHABV1@@Z 0041e594     qt-mt323:qt-mt323.dll
 0002:00000598       __imp_?addSecs@QDateTime@@QBE?AV1@H@Z 0041e598     qt-mt323:qt-mt323.dll
 0002:0000059c       __imp_?fromString@QDateTime@@SA?AV1@ABVQString@@W4DateFormat@Qt@@@Z 0041e59c     qt-mt323:qt-mt323.dll
 0002:000005a0       __imp_?currentDateTime@QDateTime@@SA?AV1@W4TimeSpec@Qt@@@Z 0041e5a0     qt-mt323:qt-mt323.dll
 0002:000005a4       __imp_?selectedItem@QListView@@QBEPAVQListViewItem@@XZ 0041e5a4     qt-mt323:qt-mt323.dll
 0002:000005a8       __imp_?clear@QLabel@@QAEXXZ 0041e5a8     qt-mt323:qt-mt323.dll
 0002:000005ac       __imp_?contains@QString@@QBEHPBD_N@Z 0041e5ac     qt-mt323:qt-mt323.dll
 0002:000005b0       __imp_??YQString@@QAEAAV0@D@Z 0041e5b0     qt-mt323:qt-mt323.dll
 0002:000005b4       __imp_?mkdir@QDir@@UBE_NABVQString@@_N@Z 0041e5b4     qt-mt323:qt-mt323.dll
 0002:000005b8       __imp_?setPath@QDir@@UAEXABVQString@@@Z 0041e5b8     qt-mt323:qt-mt323.dll
 0002:000005bc       __imp_??YQString@@QAEAAV0@PBD@Z 0041e5bc     qt-mt323:qt-mt323.dll
 0002:000005c0       __imp_?split@QStringList@@SA?AV1@ABVQRegExp@@ABVQString@@_N@Z 0041e5c0     qt-mt323:qt-mt323.dll
 0002:000005c4       __imp_?restart@QTime@@QAEHXZ 0041e5c4     qt-mt323:qt-mt323.dll
 0002:000005c8       __imp_??8@YA_NABVQString@@0@Z 0041e5c8     qt-mt323:qt-mt323.dll
 0002:000005cc       __imp_?qDebug@@YAXPBDZZ    0041e5cc     qt-mt323:qt-mt323.dll
 0002:000005d0       __imp_?compare@QString@@QBEHABV1@@Z 0041e5d0     qt-mt323:qt-mt323.dll
 0002:000005d4       __imp_?unsetPalette@QWidget@@QAEXXZ 0041e5d4     qt-mt323:qt-mt323.dll
 0002:000005d8       __imp_?exec@QPopupMenu@@QAEHABVQPoint@@H@Z 0041e5d8     qt-mt323:qt-mt323.dll
 0002:000005dc       __imp_?pos@QCursor@@SA?AVQPoint@@XZ 0041e5dc     qt-mt323:qt-mt323.dll
 0002:000005e0       __imp_?setItemEnabled@QMenuData@@QAEXH_N@Z 0041e5e0     qt-mt323:qt-mt323.dll
 0002:000005e4       __imp_?insertItem@QMenuData@@QAEHABVQString@@HH@Z 0041e5e4     qt-mt323:qt-mt323.dll
 0002:000005e8       __imp_?firstChild@QListView@@QBEPAVQListViewItem@@XZ 0041e5e8     qt-mt323:qt-mt323.dll
 0002:000005ec       __imp_?getKeyString@QGDictIterator@@QBE?AVQString@@XZ 0041e5ec     qt-mt323:qt-mt323.dll
 0002:000005f0       __imp_?qWarning@@YAXPBDZZ  0041e5f0     qt-mt323:qt-mt323.dll
 0002:000005f4       __imp_??0?$QValueListIterator@VQString@@@@QAE@ABV0@@Z 0041e5f4     qt-mt323:qt-mt323.dll
 0002:000005f8       __imp_?reject@QDialog@@MAEXXZ 0041e5f8     qt-mt323:qt-mt323.dll
 0002:000005fc       __imp_?accept@QDialog@@MAEXXZ 0041e5fc     qt-mt323:qt-mt323.dll
 0002:00000600       __imp_?done@QDialog@@MAEXH@Z 0041e600     qt-mt323:qt-mt323.dll
 0002:00000604       __imp_?styleChange@QWidget@@MAEXAAVQStyle@@@Z 0041e604     qt-mt323:qt-mt323.dll
 0002:00000608       __imp_?contextMenuEvent@QDialog@@MAEXPAVQContextMenuEvent@@@Z 0041e608     qt-mt323:qt-mt323.dll
 0002:0000060c       __imp_?closeEvent@QDialog@@MAEXPAVQCloseEvent@@@Z 0041e60c     qt-mt323:qt-mt323.dll
 0002:00000610       __imp_?resizeEvent@QDialog@@MAEXPAVQResizeEvent@@@Z 0041e610     qt-mt323:qt-mt323.dll
 0002:00000614       __imp_?paintEvent@QWidget@@MAEXPAVQPaintEvent@@@Z 0041e614     qt-mt323:qt-mt323.dll
 0002:00000618       __imp_?keyPressEvent@QDialog@@MAEXPAVQKeyEvent@@@Z 0041e618     qt-mt323:qt-mt323.dll
 0002:0000061c       __imp_?minimumSizeHint@QDialog@@UBE?AVQSize@@XZ 0041e61c     qt-mt323:qt-mt323.dll
 0002:00000620       __imp_?sizeHint@QDialog@@UBE?AVQSize@@XZ 0041e620     qt-mt323:qt-mt323.dll
 0002:00000624       __imp_?setGeometry@QDialog@@UAEXHHHH@Z 0041e624     qt-mt323:qt-mt323.dll
 0002:00000628       __imp_?setGeometry@QDialog@@UAEXABVQRect@@@Z 0041e628     qt-mt323:qt-mt323.dll
 0002:0000062c       __imp_?resize@QDialog@@UAEXHH@Z 0041e62c     qt-mt323:qt-mt323.dll
 0002:00000630       __imp_?move@QDialog@@UAEXHH@Z 0041e630     qt-mt323:qt-mt323.dll
 0002:00000634       __imp_?hide@QDialog@@UAEXXZ 0041e634     qt-mt323:qt-mt323.dll
 0002:00000638       __imp_?eventFilter@QDialog@@MAE_NPAVQObject@@PAVQEvent@@@Z 0041e638     qt-mt323:qt-mt323.dll
 0002:0000063c       __imp_?compareItems@QGList@@MAEHPAX0@Z 0041e63c     qt-mt323:qt-mt323.dll
 0002:00000640       __imp_?write@QGList@@MBEAAVQDataStream@@AAV2@PAX@Z 0041e640     qt-mt323:qt-mt323.dll
 0002:00000644       __imp_?read@QGList@@MAEAAVQDataStream@@AAV2@AAPAX@Z 0041e644     qt-mt323:qt-mt323.dll
 0002:00000648       __imp_??0QGList@@IAE@XZ    0041e648     qt-mt323:qt-mt323.dll
 0002:0000064c       __imp_??1QGList@@MAE@XZ    0041e64c     qt-mt323:qt-mt323.dll
 0002:00000650       __imp_?clear@QGList@@MAEXXZ 0041e650     qt-mt323:qt-mt323.dll
 0002:00000654       __imp_?cancelRename@QListViewItem@@MAEXH@Z 0041e654     qt-mt323:qt-mt323.dll
 0002:00000658       __imp_?okRename@QListViewItem@@MAEXH@Z 0041e658     qt-mt323:qt-mt323.dll
 0002:0000065c       __imp_?dragLeft@QListViewItem@@MAEXXZ 0041e65c     qt-mt323:qt-mt323.dll
 0002:00000660       __imp_?dragEntered@QListViewItem@@MAEXXZ 0041e660     qt-mt323:qt-mt323.dll
 0002:00000664       __imp_?dropped@QListViewItem@@MAEXPAVQDropEvent@@@Z 0041e664     qt-mt323:qt-mt323.dll
 0002:00000668       __imp_?activate@QListViewItem@@MAEXXZ 0041e668     qt-mt323:qt-mt323.dll
 0002:0000066c       __imp_?setHeight@QListViewItem@@MAEXH@Z 0041e66c     qt-mt323:qt-mt323.dll
 0002:00000670       __imp_?enforceSortOrder@QListViewItem@@MBEXXZ 0041e670     qt-mt323:qt-mt323.dll
 0002:00000674       __imp_?setMultiLinesEnabled@QListViewItem@@UAEX_N@Z 0041e674     qt-mt323:qt-mt323.dll
 0002:00000678       __imp_?rtti@QListViewItem@@UBEHXZ 0041e678     qt-mt323:qt-mt323.dll
 0002:0000067c       __imp_?setEnabled@QListViewItem@@UAEX_N@Z 0041e67c     qt-mt323:qt-mt323.dll
 0002:00000680       __imp_?startRename@QListViewItem@@UAEXH@Z 0041e680     qt-mt323:qt-mt323.dll
 0002:00000684       __imp_?setRenameEnabled@QListViewItem@@UAEXH_N@Z 0041e684     qt-mt323:qt-mt323.dll
 0002:00000688       __imp_?acceptDrop@QListViewItem@@UBE_NPBVQMimeSource@@@Z 0041e688     qt-mt323:qt-mt323.dll
 0002:0000068c       __imp_?setDropEnabled@QListViewItem@@UAEX_N@Z 0041e68c     qt-mt323:qt-mt323.dll
 0002:00000690       __imp_?setDragEnabled@QListViewItem@@UAEX_N@Z 0041e690     qt-mt323:qt-mt323.dll
 0002:00000694       __imp_?sort@QListViewItem@@UAEXXZ 0041e694     qt-mt323:qt-mt323.dll
 0002:00000698       __imp_?setExpandable@QListViewItem@@UAEX_N@Z 0041e698     qt-mt323:qt-mt323.dll
 0002:0000069c       __imp_?setSelectable@QListViewItem@@UAEX_N@Z 0041e69c     qt-mt323:qt-mt323.dll
 0002:000006a0       __imp_?paintFocus@QListViewItem@@UAEXPAVQPainter@@ABVQColorGroup@@ABVQRect@@@Z 0041e6a0     qt-mt323:qt-mt323.dll
 0002:000006a4       __imp_?paintBranches@QListViewItem@@UAEXPAVQPainter@@ABVQColorGroup@@HHH@Z 0041e6a4     qt-mt323:qt-mt323.dll
 0002:000006a8       __imp_?setSelected@QListViewItem@@UAEX_N@Z 0041e6a8     qt-mt323:qt-mt323.dll
 0002:000006ac       __imp_?setup@QListViewItem@@UAEXXZ 0041e6ac     qt-mt323:qt-mt323.dll
 0002:000006b0       __imp_?setOpen@QListViewItem@@UAEX_N@Z 0041e6b0     qt-mt323:qt-mt323.dll
 0002:000006b4       __imp_?sortChildItems@QListViewItem@@UAEXH_N@Z 0041e6b4     qt-mt323:qt-mt323.dll
 0002:000006b8       __imp_?compare@QListViewItem@@UBEHPAV1@H_N@Z 0041e6b8     qt-mt323:qt-mt323.dll
 0002:000006bc       __imp_?key@QListViewItem@@UBE?AVQString@@H_N@Z 0041e6bc     qt-mt323:qt-mt323.dll
 0002:000006c0       __imp_?pixmap@QListViewItem@@UBEPBVQPixmap@@H@Z 0041e6c0     qt-mt323:qt-mt323.dll
 0002:000006c4       __imp_?setPixmap@QListViewItem@@UAEXHABVQPixmap@@@Z 0041e6c4     qt-mt323:qt-mt323.dll
 0002:000006c8       __imp_?text@QListViewItem@@UBE?AVQString@@H@Z 0041e6c8     qt-mt323:qt-mt323.dll
 0002:000006cc       __imp_?setText@QListViewItem@@UAEXHABVQString@@@Z 0041e6cc     qt-mt323:qt-mt323.dll
 0002:000006d0       __imp_?width@QListViewItem@@UBEHABVQFontMetrics@@PBVQListView@@H@Z 0041e6d0     qt-mt323:qt-mt323.dll
 0002:000006d4       __imp_?invalidateHeight@QListViewItem@@UAEXXZ 0041e6d4     qt-mt323:qt-mt323.dll
 0002:000006d8       __imp_?removeItem@QListViewItem@@UAEXPAV1@@Z 0041e6d8     qt-mt323:qt-mt323.dll
 0002:000006dc       __imp_?takeItem@QListViewItem@@UAEXPAV1@@Z 0041e6dc     qt-mt323:qt-mt323.dll
 0002:000006e0       __imp_?insertItem@QListViewItem@@UAEXPAV1@@Z 0041e6e0     qt-mt323:qt-mt323.dll
 0002:000006e4       __imp_??0QListViewItem@@QAE@PAVQListView@@VQString@@1111111@Z 0041e6e4     qt-mt323:qt-mt323.dll
 0002:000006e8       __imp_??1QListViewItem@@UAE@XZ 0041e6e8     qt-mt323:qt-mt323.dll
 0002:000006ec       __imp_??1QColorGroup@@QAE@XZ 0041e6ec     qt-mt323:qt-mt323.dll
 0002:000006f0       __imp_?paintCell@QListViewItem@@UAEXPAVQPainter@@ABVQColorGroup@@HHH@Z 0041e6f0     qt-mt323:qt-mt323.dll
 0002:000006f4       __imp_?setColor@QColorGroup@@QAEXW4ColorRole@1@ABVQColor@@@Z 0041e6f4     qt-mt323:qt-mt323.dll
 0002:000006f8       __imp_??0QColorGroup@@QAE@ABV0@@Z 0041e6f8     qt-mt323:qt-mt323.dll
 0002:000006fc       __imp_??1QListViewItemIterator@@QAE@XZ 0041e6fc     qt-mt323:qt-mt323.dll
 0002:00000700       __imp_??EQListViewItemIterator@@QAEAAV0@XZ 0041e700     qt-mt323:qt-mt323.dll
 0002:00000704       __imp_?current@QListViewItemIterator@@QBEPAVQListViewItem@@XZ 0041e704     qt-mt323:qt-mt323.dll
 0002:00000708       __imp_??0QListViewItemIterator@@QAE@PAVQListView@@@Z 0041e708     qt-mt323:qt-mt323.dll
 0002:0000070c       __imp_?blockSignals@QObject@@QAEX_N@Z 0041e70c     qt-mt323:qt-mt323.dll
 0002:00000710       __imp_?append@QGList@@IAEXPAX@Z 0041e710     qt-mt323:qt-mt323.dll
 0002:00000714       __imp_?triggerUpdate@QListView@@QAEXXZ 0041e714     qt-mt323:qt-mt323.dll
 0002:00000718       __imp_?next@QGList@@IAEPAXXZ 0041e718     qt-mt323:qt-mt323.dll
 0002:0000071c       __imp_?first@QGList@@IAEPAXXZ 0041e71c     qt-mt323:qt-mt323.dll
 0002:00000720       __imp_?insertHelper@QString@@AAEAAV1@IPBDI@Z 0041e720     qt-mt323:qt-mt323.dll
 0002:00000724       __imp_?setVisible@QListViewItem@@QAEX_N@Z 0041e724     qt-mt323:qt-mt323.dll
 0002:00000728       __imp_?contains@QString@@QBEHABVQRegExp@@@Z 0041e728     qt-mt323:qt-mt323.dll
 0002:0000072c       __imp_??D?$QValueListIterator@VQString@@@@QAEAAVQString@@XZ 0041e72c     qt-mt323:qt-mt323.dll
 0002:00000730       __imp_?insertAt@QGList@@IAE_NIPAX@Z 0041e730     qt-mt323:qt-mt323.dll
 0002:00000734       __imp_?takeFirst@QGList@@IAEPAXXZ 0041e734     qt-mt323:qt-mt323.dll
 0002:00000738       __imp_??1QApplication@@UAE@XZ 0041e738     qt-mt323:qt-mt323.dll
 0002:0000073c       __imp_?exec@QApplication@@QAEHXZ 0041e73c     qt-mt323:qt-mt323.dll
 0002:00000740       __imp_?setMainWidget@QApplication@@UAEXPAVQWidget@@@Z 0041e740     qt-mt323:qt-mt323.dll
 0002:00000744       __imp_??0QApplication@@QAE@AAHPAPAD@Z 0041e744     qt-mt323:qt-mt323.dll
 0002:00000748       __imp_?white@Qt@@2AAVQColor@@A 0041e748     qt-mt323:qt-mt323.dll
 0002:0000074c       __imp_?darkGreen@Qt@@2AAVQColor@@A 0041e74c     qt-mt323:qt-mt323.dll
 0002:00000750       __imp_?black@Qt@@2AAVQColor@@A 0041e750     qt-mt323:qt-mt323.dll
 0002:00000754       __imp_??0QColor@@QAE@PBD@Z 0041e754     qt-mt323:qt-mt323.dll
 0002:00000758       __imp_??1QBrush@@QAE@XZ    0041e758     qt-mt323:qt-mt323.dll
 0002:0000075c       __imp_?setBrush@QColorGroup@@QAEXW4ColorRole@1@ABVQBrush@@@Z 0041e75c     qt-mt323:qt-mt323.dll
 0002:00000760       __imp_??0QBrush@@QAE@ABVQColor@@W4BrushStyle@Qt@@@Z 0041e760     qt-mt323:qt-mt323.dll
 0002:00000764       __imp_?red@Qt@@2AAVQColor@@A 0041e764     qt-mt323:qt-mt323.dll
 0002:00000768       __imp_?setEnabled@QSocketNotifier@@UAEX_N@Z 0041e768     qt-mt323:qt-mt323.dll
 0002:0000076c       __imp_?event@QSocketNotifier@@MAE_NPAVQEvent@@@Z 0041e76c     qt-mt323:qt-mt323.dll
 0002:00000770       __imp_?qt_property@QSocketNotifier@@UAE_NHHPAVQVariant@@@Z 0041e770     qt-mt323:qt-mt323.dll
 0002:00000774       __imp_?qt_emit@QSocketNotifier@@UAE_NHPAUQUObject@@@Z 0041e774     qt-mt323:qt-mt323.dll
 0002:00000778       __imp_?qt_invoke@QSocketNotifier@@UAE_NHPAUQUObject@@@Z 0041e778     qt-mt323:qt-mt323.dll
 0002:0000077c       __imp_?qt_cast@QSocketNotifier@@UAEPAXPBD@Z 0041e77c     qt-mt323:qt-mt323.dll
 0002:00000780       __imp_?className@QSocketNotifier@@UBEPBDXZ 0041e780     qt-mt323:qt-mt323.dll
 0002:00000784       __imp_?metaObject@QSocketNotifier@@UBEPAVQMetaObject@@XZ 0041e784     qt-mt323:qt-mt323.dll
 0002:00000788       __imp_?event@QObject@@UAE_NPAVQEvent@@@Z 0041e788     qt-mt323:qt-mt323.dll
 0002:0000078c       __imp_?setOption@QSocketDevice@@EAEXW4Option@1@H@Z 0041e78c     qt-mt323:qt-mt323.dll
 0002:00000790       __imp_?writeBlock@QSocketDevice@@UAEJPBDKABVQHostAddress@@G@Z 0041e790     qt-mt323:qt-mt323.dll
 0002:00000794       __imp_?accept@QSocketDevice@@UAEHXZ 0041e794     qt-mt323:qt-mt323.dll
 0002:00000798       __imp_?listen@QSocketDevice@@UAE_NH@Z 0041e798     qt-mt323:qt-mt323.dll
 0002:0000079c       __imp_?bind@QSocketDevice@@UAE_NABVQHostAddress@@G@Z 0041e79c     qt-mt323:qt-mt323.dll
 0002:000007a0       __imp_?connect@QSocketDevice@@UAE_NABVQHostAddress@@G@Z 0041e7a0     qt-mt323:qt-mt323.dll
 0002:000007a4       __imp_?setSendBufferSize@QSocketDevice@@UAEXI@Z 0041e7a4     qt-mt323:qt-mt323.dll
 0002:000007a8       __imp_?setReceiveBufferSize@QSocketDevice@@UAEXI@Z 0041e7a8     qt-mt323:qt-mt323.dll
 0002:000007ac       __imp_?setAddressReusable@QSocketDevice@@UAEX_N@Z 0041e7ac     qt-mt323:qt-mt323.dll
 0002:000007b0       __imp_?setBlocking@QSocketDevice@@UAEX_N@Z 0041e7b0     qt-mt323:qt-mt323.dll
 0002:000007b4       __imp_?setSocket@QSocketDevice@@UAEXHW4Type@1@@Z 0041e7b4     qt-mt323:qt-mt323.dll
 0002:000007b8       __imp_?ungetch@QSocketDevice@@UAEHH@Z 0041e7b8     qt-mt323:qt-mt323.dll
 0002:000007bc       __imp_?putch@QSocketDevice@@UAEHH@Z 0041e7bc     qt-mt323:qt-mt323.dll
 0002:000007c0       __imp_?getch@QSocketDevice@@UAEHXZ 0041e7c0     qt-mt323:qt-mt323.dll
 0002:000007c4       __imp_?readAll@QIODevice@@UAE?AV?$QMemArray@D@@XZ 0041e7c4     qt-mt323:qt-mt323.dll
 0002:000007c8       __imp_?readLine@QIODevice@@UAEJPADK@Z 0041e7c8     qt-mt323:qt-mt323.dll
 0002:000007cc       __imp_?writeBlock@QSocketDevice@@UAEJPBDK@Z 0041e7cc     qt-mt323:qt-mt323.dll
 0002:000007d0       __imp_?readBlock@QSocketDevice@@UAEJPADK@Z 0041e7d0     qt-mt323:qt-mt323.dll
 0002:000007d4       __imp_?atEnd@QSocketDevice@@UBE_NXZ 0041e7d4     qt-mt323:qt-mt323.dll
 0002:000007d8       __imp_?at@QSocketDevice@@UBEKXZ 0041e7d8     qt-mt323:qt-mt323.dll
 0002:000007dc       __imp_?at@QSocketDevice@@UAE_NK@Z 0041e7dc     qt-mt323:qt-mt323.dll
 0002:000007e0       __imp_?size@QSocketDevice@@UBEKXZ 0041e7e0     qt-mt323:qt-mt323.dll
 0002:000007e4       __imp_?flush@QSocketDevice@@UAEXXZ 0041e7e4     qt-mt323:qt-mt323.dll
 0002:000007e8       __imp_?close@QSocketDevice@@UAEXXZ 0041e7e8     qt-mt323:qt-mt323.dll
 0002:000007ec       __imp_?open@QSocketDevice@@UAE_NH@Z 0041e7ec     qt-mt323:qt-mt323.dll
 0002:000007f0       __imp_??1QObject@@UAE@XZ   0041e7f0     qt-mt323:qt-mt323.dll
 0002:000007f4       __imp_??1QHostAddress@@UAE@XZ 0041e7f4     qt-mt323:qt-mt323.dll
 0002:000007f8       __imp_??0QSocketNotifier@@QAE@HW4Type@0@PAVQObject@@PBD@Z 0041e7f8     qt-mt323:qt-mt323.dll
 0002:000007fc       __imp_?setAddress@QHostAddress@@QAE_NABVQString@@@Z 0041e7fc     qt-mt323:qt-mt323.dll
 0002:00000800       __imp_??0QHostAddress@@QAE@XZ 0041e800     qt-mt323:qt-mt323.dll
 0002:00000804       __imp_?socket@QSocketDevice@@QBEHXZ 0041e804     qt-mt323:qt-mt323.dll
 0002:00000808       __imp_??0QSocketDevice@@QAE@W4Type@0@@Z 0041e808     qt-mt323:qt-mt323.dll
 0002:0000080c       __imp_??0QObject@@QAE@PAV0@PBD@Z 0041e80c     qt-mt323:qt-mt323.dll
 0002:00000810       __imp_??1QSocketDevice@@UAE@XZ 0041e810     qt-mt323:qt-mt323.dll
 0002:00000814       __imp_??1QSocketNotifier@@UAE@XZ 0041e814     qt-mt323:qt-mt323.dll
 0002:00000818       __imp_?port@QSocketDevice@@QBEGXZ 0041e818     qt-mt323:qt-mt323.dll
 0002:0000081c       __imp_?number@QString@@SA?AV1@HH@Z 0041e81c     qt-mt323:qt-mt323.dll
 0002:00000820       __imp_?peerPort@QSocketDevice@@QBEGXZ 0041e820     qt-mt323:qt-mt323.dll
 0002:00000824       __imp_?toString@QHostAddress@@QBE?AVQString@@XZ 0041e824     qt-mt323:qt-mt323.dll
 0002:00000828       __imp_?peerAddress@QSocketDevice@@QBE?AVQHostAddress@@XZ 0041e828     qt-mt323:qt-mt323.dll
 0002:0000082c       __imp_?setAddress@QHostAddress@@QAEXI@Z 0041e82c     qt-mt323:qt-mt323.dll
 0002:00000830       __imp_?emitLinkClicked@QTextEdit@@EAEXABVQString@@@Z 0041e830     qt-mt323:qt-mt323.dll
 0002:00000834       __imp_?emitHighlighted@QTextEdit@@EAEXABVQString@@@Z 0041e834     qt-mt323:qt-mt323.dll
 0002:00000838       __imp_?linksEnabled@QTextEdit@@EBE_NXZ 0041e838     qt-mt323:qt-mt323.dll
 0002:0000083c       __imp_?doChangeInterval@QTextEdit@@MAEXXZ 0041e83c     qt-mt323:qt-mt323.dll
 0002:00000840       __imp_?createPopupMenu@QTextEdit@@MAEPAVQPopupMenu@@ABVQPoint@@@Z 0041e840     qt-mt323:qt-mt323.dll
 0002:00000844       __imp_?createPopupMenu@QTextEdit@@MAEPAVQPopupMenu@@XZ 0041e844     qt-mt323:qt-mt323.dll
 0002:00000848       __imp_?setUndoRedoEnabled@QTextEdit@@UAEX_N@Z 0041e848     qt-mt323:qt-mt323.dll
 0002:0000084c       __imp_?clearParagraphBackground@QTextEdit@@UAEXH@Z 0041e84c     qt-mt323:qt-mt323.dll
 0002:00000850       __imp_?setParagraphBackgroundColor@QTextEdit@@UAEXHABVQColor@@@Z 0041e850     qt-mt323:qt-mt323.dll
 0002:00000854       __imp_?insertParagraph@QTextEdit@@UAEXABVQString@@H@Z 0041e854     qt-mt323:qt-mt323.dll
 0002:00000858       __imp_?removeParagraph@QTextEdit@@UAEXH@Z 0041e858     qt-mt323:qt-mt323.dll
 0002:0000085c       __imp_?insertAt@QTextEdit@@UAEXABVQString@@HH@Z 0041e85c     qt-mt323:qt-mt323.dll
 0002:00000860       __imp_?insert@QTextEdit@@UAEXABVQString@@_N11@Z 0041e860     qt-mt323:qt-mt323.dll
 0002:00000864       __imp_?scrollToBottom@QTextEdit@@UAEXXZ 0041e864     qt-mt323:qt-mt323.dll
 0002:00000868       __imp_?setOverwriteMode@QTextEdit@@UAEX_N@Z 0041e868     qt-mt323:qt-mt323.dll
 0002:0000086c       __imp_?setCurrentFont@QTextEdit@@UAEXABVQFont@@@Z 0041e86c     qt-mt323:qt-mt323.dll
 0002:00000870       __imp_?removeSelection@QTextEdit@@UAEXH@Z 0041e870     qt-mt323:qt-mt323.dll
 0002:00000874       __imp_?removeSelectedText@QTextEdit@@UAEXH@Z 0041e874     qt-mt323:qt-mt323.dll
 0002:00000878       __imp_?doKeyboardAction@QTextEdit@@UAEXW4KeyboardAction@1@@Z 0041e878     qt-mt323:qt-mt323.dll
 0002:0000087c       __imp_?moveCursor@QTextEdit@@UAEXW4CursorAction@1@_N@Z 0041e87c     qt-mt323:qt-mt323.dll
 0002:00000880       __imp_?placeCursor@QTextEdit@@UAEXABVQPoint@@PAVQTextCursor@@@Z 0041e880     qt-mt323:qt-mt323.dll
 0002:00000884       __imp_?ensureCursorVisible@QTextEdit@@UAEXXZ 0041e884     qt-mt323:qt-mt323.dll
 0002:00000888       __imp_?setFormat@QTextEdit@@UAEXPAVQTextFormat@@H@Z 0041e888     qt-mt323:qt-mt323.dll
 0002:0000088c       __imp_?setUndoDepth@QTextEdit@@UAEXH@Z 0041e88c     qt-mt323:qt-mt323.dll
 0002:00000890       __imp_?resetFormat@QTextEdit@@UAEXXZ 0041e890     qt-mt323:qt-mt323.dll
 0002:00000894       __imp_?setModified@QTextEdit@@UAEX_N@Z 0041e894     qt-mt323:qt-mt323.dll
 0002:00000898       __imp_?setSelectionAttributes@QTextEdit@@UAEXHABVQColor@@_N@Z 0041e898     qt-mt323:qt-mt323.dll
 0002:0000089c       __imp_?setSelection@QTextEdit@@UAEXHHHHH@Z 0041e89c     qt-mt323:qt-mt323.dll
 0002:000008a0       __imp_?setCursorPosition@QTextEdit@@UAEXHH@Z 0041e8a0     qt-mt323:qt-mt323.dll
 0002:000008a4       __imp_?setParagType@QTextEdit@@UAEXW4DisplayMode@QStyleSheetItem@@W4ListStyle@3@@Z 0041e8a4     qt-mt323:qt-mt323.dll
 0002:000008a8       __imp_?setAlignment@QTextEdit@@UAEXH@Z 0041e8a8     qt-mt323:qt-mt323.dll
 0002:000008ac       __imp_?setVerticalAlignment@QTextEdit@@UAEXW4VerticalAlignment@1@@Z 0041e8ac     qt-mt323:qt-mt323.dll
 0002:000008b0       __imp_?setColor@QTextEdit@@UAEXABVQColor@@@Z 0041e8b0     qt-mt323:qt-mt323.dll
 0002:000008b4       __imp_?setPointSize@QTextEdit@@UAEXH@Z 0041e8b4     qt-mt323:qt-mt323.dll
 0002:000008b8       __imp_?setFamily@QTextEdit@@UAEXABVQString@@@Z 0041e8b8     qt-mt323:qt-mt323.dll
 0002:000008bc       __imp_?setUnderline@QTextEdit@@UAEX_N@Z 0041e8bc     qt-mt323:qt-mt323.dll
 0002:000008c0       __imp_?moveDockWindow@QMainWindow@@UAEXPAVQDockWindow@@W4Dock@Qt@@_NHH@Z 0041e8c0     qt-mt323:qt-mt323.dll
 0002:000008c4       __imp_?setItalic@QTextEdit@@UAEX_N@Z 0041e8c4     qt-mt323:qt-mt323.dll
 0002:000008c8       __imp_?indent@QTextEdit@@UAEXXZ 0041e8c8     qt-mt323:qt-mt323.dll
 0002:000008cc       __imp_?del@QTextEdit@@UAEXXZ 0041e8cc     qt-mt323:qt-mt323.dll
 0002:000008d0       __imp_?clear@QTextEdit@@UAEXXZ 0041e8d0     qt-mt323:qt-mt323.dll
 0002:000008d4       __imp_?pasteSubType@QTextEdit@@UAEXABVQCString@@@Z 0041e8d4     qt-mt323:qt-mt323.dll
 0002:000008d8       __imp_?paste@QTextEdit@@UAEXXZ 0041e8d8     qt-mt323:qt-mt323.dll
 0002:000008dc       __imp_?cut@QTextEdit@@UAEXXZ 0041e8dc     qt-mt323:qt-mt323.dll
 0002:000008e0       __imp_?redo@QTextEdit@@UAEXXZ 0041e8e0     qt-mt323:qt-mt323.dll
 0002:000008e4       __imp_?undo@QTextEdit@@UAEXXZ 0041e8e4     qt-mt323:qt-mt323.dll
 0002:000008e8       __imp_?setReadOnly@QTextEdit@@UAEX_N@Z 0041e8e8     qt-mt323:qt-mt323.dll
 0002:000008ec       __imp_?sync@QTextEdit@@UAEXXZ 0041e8ec     qt-mt323:qt-mt323.dll
 0002:000008f0       __imp_?zoomTo@QTextEdit@@UAEXH@Z 0041e8f0     qt-mt323:qt-mt323.dll
 0002:000008f4       __imp_?zoomOut@QTextEdit@@UAEXH@Z 0041e8f4     qt-mt323:qt-mt323.dll
 0002:000008f8       __imp_?zoomOut@QTextEdit@@UAEXXZ 0041e8f8     qt-mt323:qt-mt323.dll
 0002:000008fc       __imp_?zoomIn@QTextEdit@@UAEXH@Z 0041e8fc     qt-mt323:qt-mt323.dll
 0002:00000900       __imp_?zoomIn@QTextEdit@@UAEXXZ 0041e900     qt-mt323:qt-mt323.dll
 0002:00000904       __imp_?setTabStopWidth@QTextEdit@@UAEXH@Z 0041e904     qt-mt323:qt-mt323.dll
 0002:00000908       __imp_?selectAll@QTextEdit@@UAEX_N@Z 0041e908     qt-mt323:qt-mt323.dll
 0002:0000090c       __imp_?setTextFormat@QTextEdit@@UAEXW4TextFormat@Qt@@@Z 0041e90c     qt-mt323:qt-mt323.dll
 0002:00000910       __imp_?setText@QTextEdit@@UAEXABVQString@@0@Z 0041e910     qt-mt323:qt-mt323.dll
 0002:00000914       __imp_?append@QTextEdit@@UAEXABVQString@@@Z 0041e914     qt-mt323:qt-mt323.dll
 0002:00000918       __imp_?copy@QTextEdit@@UAEXXZ 0041e918     qt-mt323:qt-mt323.dll
 0002:0000091c       __imp_?setWrapPolicy@QTextEdit@@UAEXW4WrapPolicy@1@@Z 0041e91c     qt-mt323:qt-mt323.dll
 0002:00000920       __imp_?setWrapColumnOrWidth@QTextEdit@@UAEXH@Z 0041e920     qt-mt323:qt-mt323.dll
 0002:00000924       __imp_?setWordWrap@QTextEdit@@UAEXW4WordWrap@1@@Z 0041e924     qt-mt323:qt-mt323.dll
 0002:00000928       __imp_?setLinkUnderline@QTextEdit@@UAEX_N@Z 0041e928     qt-mt323:qt-mt323.dll
 0002:0000092c       __imp_?setPaper@QTextEdit@@UAEXABVQBrush@@@Z 0041e92c     qt-mt323:qt-mt323.dll
 0002:00000930       __imp_?scrollToAnchor@QTextEdit@@UAEXABVQString@@@Z 0041e930     qt-mt323:qt-mt323.dll
 0002:00000934       __imp_?setStyleSheet@QTextEdit@@UAEXPAVQStyleSheet@@@Z 0041e934     qt-mt323:qt-mt323.dll
 0002:00000938       __imp_?setMimeSourceFactory@QTextEdit@@UAEXPAVQMimeSourceFactory@@@Z 0041e938     qt-mt323:qt-mt323.dll
 0002:0000093c       __imp_?getParagraphFormat@QTextEdit@@UAE_NHPAVQFont@@PAVQColor@@PAW4VerticalAlignment@1@PAHPAW4DisplayMode@QStyleSheetItem@@PAW4ListStyle@6@3@Z 0041e93c     qt-mt323:qt-mt323.dll
 0002:00000940       __imp_?getFormat@QTextEdit@@UAE_NHHPAVQFont@@PAVQColor@@PAW4VerticalAlignment@1@@Z 0041e940     qt-mt323:qt-mt323.dll
 0002:00000944       __imp_?find@QTextEdit@@UAE_NABVQString@@_N11PAH2@Z 0041e944     qt-mt323:qt-mt323.dll
 0002:00000948       __imp_?viewportResizeEvent@QTextEdit@@MAEXPAVQResizeEvent@@@Z 0041e948     qt-mt323:qt-mt323.dll
 0002:0000094c       __imp_?contentsContextMenuEvent@QTextEdit@@MAEXPAVQContextMenuEvent@@@Z 0041e94c     qt-mt323:qt-mt323.dll
 0002:00000950       __imp_?contentsWheelEvent@QTextEdit@@MAEXPAVQWheelEvent@@@Z 0041e950     qt-mt323:qt-mt323.dll
 0002:00000954       __imp_?contentsDropEvent@QTextEdit@@MAEXPAVQDropEvent@@@Z 0041e954     qt-mt323:qt-mt323.dll
 0002:00000958       __imp_?contentsDragLeaveEvent@QTextEdit@@MAEXPAVQDragLeaveEvent@@@Z 0041e958     qt-mt323:qt-mt323.dll
 0002:0000095c       __imp_?paintEvent@QMainWindow@@MAEXPAVQPaintEvent@@@Z 0041e95c     qt-mt323:qt-mt323.dll
 0002:00000960       __imp_?contentsDragEnterEvent@QTextEdit@@MAEXPAVQDragEnterEvent@@@Z 0041e960     qt-mt323:qt-mt323.dll
 0002:00000964       __imp_?contentsMouseMoveEvent@QTextEdit@@MAEXPAVQMouseEvent@@@Z 0041e964     qt-mt323:qt-mt323.dll
 0002:00000968       __imp_?contentsMouseDoubleClickEvent@QTextEdit@@MAEXPAVQMouseEvent@@@Z 0041e968     qt-mt323:qt-mt323.dll
 0002:0000096c       __imp_?contentsMouseReleaseEvent@QTextEdit@@MAEXPAVQMouseEvent@@@Z 0041e96c     qt-mt323:qt-mt323.dll
 0002:00000970       __imp_?contentsMousePressEvent@QTextEdit@@MAEXPAVQMouseEvent@@@Z 0041e970     qt-mt323:qt-mt323.dll
 0002:00000974       __imp_?drawContentsOffset@QScrollView@@MAEXPAVQPainter@@HHHHHH@Z 0041e974     qt-mt323:qt-mt323.dll
 0002:00000978       __imp_?drawContents@QTextEdit@@MAEXPAVQPainter@@HHHH@Z 0041e978     qt-mt323:qt-mt323.dll
 0002:0000097c       __imp_?setContentsPos@QScrollView@@UAEXHH@Z 0041e97c     qt-mt323:qt-mt323.dll
 0002:00000980       __imp_?drawContents@QTextEdit@@EAEXPAVQPainter@@@Z 0041e980     qt-mt323:qt-mt323.dll
 0002:00000984       __imp_?focusNextPrevChild@QTextEdit@@MAE_N_N@Z 0041e984     qt-mt323:qt-mt323.dll
 0002:00000988       __imp_?windowActivationChange@QTextEdit@@MAEX_N@Z 0041e988     qt-mt323:qt-mt323.dll
 0002:0000098c       __imp_?styleChange@QScrollView@@UAEXAAVQStyle@@@Z 0041e98c     qt-mt323:qt-mt323.dll
 0002:00000990       __imp_?imEndEvent@QTextEdit@@MAEXPAVQIMEvent@@@Z 0041e990     qt-mt323:qt-mt323.dll
 0002:00000994       __imp_?imComposeEvent@QTextEdit@@MAEXPAVQIMEvent@@@Z 0041e994     qt-mt323:qt-mt323.dll
 0002:00000998       __imp_?imStartEvent@QTextEdit@@MAEXPAVQIMEvent@@@Z 0041e998     qt-mt323:qt-mt323.dll
 0002:0000099c       __imp_?resizeEvent@QTextEdit@@MAEXPAVQResizeEvent@@@Z 0041e99c     qt-mt323:qt-mt323.dll
 0002:000009a0       __imp_?keyPressEvent@QTextEdit@@MAEXPAVQKeyEvent@@@Z 0041e9a0     qt-mt323:qt-mt323.dll
 0002:000009a4       __imp_?heightForWidth@QTextEdit@@UBEHH@Z 0041e9a4     qt-mt323:qt-mt323.dll
 0002:000009a8       __imp_?minimumSizeHint@QScrollView@@UBE?AVQSize@@XZ 0041e9a8     qt-mt323:qt-mt323.dll
 0002:000009ac       __imp_?sizeHint@QTextEdit@@UBE?AVQSize@@XZ 0041e9ac     qt-mt323:qt-mt323.dll
 0002:000009b0       __imp_?polish@QTextEdit@@UAEXXZ 0041e9b0     qt-mt323:qt-mt323.dll
 0002:000009b4       __imp_?show@QScrollView@@UAEXXZ 0041e9b4     qt-mt323:qt-mt323.dll
 0002:000009b8       __imp_?setFont@QTextEdit@@UAEXABVQFont@@@Z 0041e9b8     qt-mt323:qt-mt323.dll
 0002:000009bc       __imp_?setPalette@QTextEdit@@UAEXABVQPalette@@@Z 0041e9bc     qt-mt323:qt-mt323.dll
 0002:000009c0       __imp_?setEnabled@QTextEdit@@UAEX_N@Z 0041e9c0     qt-mt323:qt-mt323.dll
 0002:000009c4       __imp_?eventFilter@QTextEdit@@UAE_NPAVQObject@@PAVQEvent@@@Z 0041e9c4     qt-mt323:qt-mt323.dll
 0002:000009c8       __imp_?event@QTextEdit@@MAE_NPAVQEvent@@@Z 0041e9c8     qt-mt323:qt-mt323.dll
 0002:000009cc       __imp_?qt_property@QTextEdit@@UAE_NHHPAVQVariant@@@Z 0041e9cc     qt-mt323:qt-mt323.dll
 0002:000009d0       __imp_?qt_emit@QTextEdit@@UAE_NHPAUQUObject@@@Z 0041e9d0     qt-mt323:qt-mt323.dll
 0002:000009d4       __imp_?qt_invoke@QTextEdit@@UAE_NHPAUQUObject@@@Z 0041e9d4     qt-mt323:qt-mt323.dll
 0002:000009d8       __imp_?qt_cast@QTextEdit@@UAEPAXPBD@Z 0041e9d8     qt-mt323:qt-mt323.dll
 0002:000009dc       __imp_?className@QTextEdit@@UBEPBDXZ 0041e9dc     qt-mt323:qt-mt323.dll
 0002:000009e0       __imp_?metaObject@QTextEdit@@UBEPAVQMetaObject@@XZ 0041e9e0     qt-mt323:qt-mt323.dll
 0002:000009e4       __imp_?paintEmptyArea@QListView@@MAEXPAVQPainter@@ABVQRect@@@Z 0041e9e4     qt-mt323:qt-mt323.dll
 0002:000009e8       __imp_?startDrag@QListView@@MAEXXZ 0041e9e8     qt-mt323:qt-mt323.dll
 0002:000009ec       __imp_?dragObject@QListView@@MAEPAVQDragObject@@XZ 0041e9ec     qt-mt323:qt-mt323.dll
 0002:000009f0       __imp_?selectAll@QListView@@UAEX_N@Z 0041e9f0     qt-mt323:qt-mt323.dll
 0002:000009f4       __imp_?invertSelection@QListView@@UAEXXZ 0041e9f4     qt-mt323:qt-mt323.dll
 0002:000009f8       __imp_?clear@QListView@@UAEXXZ 0041e9f8     qt-mt323:qt-mt323.dll
 0002:000009fc       __imp_?setDefaultRenameAction@QListView@@UAEXW4RenameAction@1@@Z 0041e9fc     qt-mt323:qt-mt323.dll
 0002:00000a00       __imp_?setResizeMode@QListView@@UAEXW4ResizeMode@1@@Z 0041ea00     qt-mt323:qt-mt323.dll
 0002:00000a04       __imp_?setShowToolTips@QListView@@UAEX_N@Z 0041ea04     qt-mt323:qt-mt323.dll
 0002:00000a08       __imp_?setShowSortIndicator@QListView@@UAEX_N@Z 0041ea08     qt-mt323:qt-mt323.dll
 0002:00000a0c       __imp_?sort@QListView@@UAEXXZ 0041ea0c     qt-mt323:qt-mt323.dll
 0002:00000a10       __imp_?setSorting@QListView@@UAEXH_N@Z 0041ea10     qt-mt323:qt-mt323.dll
 0002:00000a14       __imp_?setRootIsDecorated@QListView@@UAEX_N@Z 0041ea14     qt-mt323:qt-mt323.dll
 0002:00000a18       __imp_?setItemMargin@QListView@@UAEXH@Z 0041ea18     qt-mt323:qt-mt323.dll
 0002:00000a1c       __imp_?setAllColumnsShowFocus@QListView@@UAEX_N@Z 0041ea1c     qt-mt323:qt-mt323.dll
 0002:00000a20       __imp_?setCurrentItem@QListView@@UAEXPAVQListViewItem@@@Z 0041ea20     qt-mt323:qt-mt323.dll
 0002:00000a24       __imp_?setOpen@QListView@@UAEXPAVQListViewItem@@_N@Z 0041ea24     qt-mt323:qt-mt323.dll
 0002:00000a28       __imp_?setSelected@QListView@@UAEXPAVQListViewItem@@_N@Z 0041ea28     qt-mt323:qt-mt323.dll
 0002:00000a2c       __imp_?clearSelection@QListView@@UAEXXZ 0041ea2c     qt-mt323:qt-mt323.dll
 0002:00000a30       __imp_?setMultiSelection@QListView@@UAEX_N@Z 0041ea30     qt-mt323:qt-mt323.dll
 0002:00000a34       __imp_?setColumnAlignment@QListView@@UAEXHH@Z 0041ea34     qt-mt323:qt-mt323.dll
 0002:00000a38       __imp_?setColumnWidthMode@QListView@@UAEXHW4WidthMode@1@@Z 0041ea38     qt-mt323:qt-mt323.dll
 0002:00000a3c       __imp_?setColumnWidth@QListView@@UAEXHH@Z 0041ea3c     qt-mt323:qt-mt323.dll
 0002:00000a40       __imp_?setColumnText@QListView@@UAEXHABVQString@@@Z 0041ea40     qt-mt323:qt-mt323.dll
 0002:00000a44       __imp_?setColumnText@QListView@@UAEXHABVQIconSet@@ABVQString@@@Z 0041ea44     qt-mt323:qt-mt323.dll
 0002:00000a48       __imp_?removeColumn@QListView@@UAEXH@Z 0041ea48     qt-mt323:qt-mt323.dll
 0002:00000a4c       __imp_?addColumn@QListView@@UAEHABVQString@@H@Z 0041ea4c     qt-mt323:qt-mt323.dll
 0002:00000a50       __imp_?addColumn@QListView@@UAEHABVQIconSet@@ABVQString@@H@Z 0041ea50     qt-mt323:qt-mt323.dll
 0002:00000a54       __imp_?removeItem@QListView@@UAEXPAVQListViewItem@@@Z 0041ea54     qt-mt323:qt-mt323.dll
 0002:00000a58       __imp_?takeItem@QListView@@UAEXPAVQListViewItem@@@Z 0041ea58     qt-mt323:qt-mt323.dll
 0002:00000a5c       __imp_?insertItem@QListView@@UAEXPAVQListViewItem@@@Z 0041ea5c     qt-mt323:qt-mt323.dll
 0002:00000a60       __imp_?setTreeStepSize@QListView@@UAEXH@Z 0041ea60     qt-mt323:qt-mt323.dll
 0002:00000a64       __imp_?setVBarGeometry@QScrollView@@MAEXAAVQScrollBar@@HHHH@Z 0041ea64     qt-mt323:qt-mt323.dll
 0002:00000a68       __imp_?setHBarGeometry@QScrollView@@MAEXAAVQScrollBar@@HHHH@Z 0041ea68     qt-mt323:qt-mt323.dll
 0002:00000a6c       __imp_?setMargins@QScrollView@@MAEXHHHH@Z 0041ea6c     qt-mt323:qt-mt323.dll
 0002:00000a70       __imp_?viewportContextMenuEvent@QScrollView@@MAEXPAVQContextMenuEvent@@@Z 0041ea70     qt-mt323:qt-mt323.dll
 0002:00000a74       __imp_?viewportWheelEvent@QScrollView@@MAEXPAVQWheelEvent@@@Z 0041ea74     qt-mt323:qt-mt323.dll
 0002:00000a78       __imp_?viewportDropEvent@QScrollView@@MAEXPAVQDropEvent@@@Z 0041ea78     qt-mt323:qt-mt323.dll
 0002:00000a7c       __imp_?viewportDragLeaveEvent@QScrollView@@MAEXPAVQDragLeaveEvent@@@Z 0041ea7c     qt-mt323:qt-mt323.dll
 0002:00000a80       __imp_?viewportDragMoveEvent@QScrollView@@MAEXPAVQDragMoveEvent@@@Z 0041ea80     qt-mt323:qt-mt323.dll
 0002:00000a84       __imp_?viewportDragEnterEvent@QScrollView@@MAEXPAVQDragEnterEvent@@@Z 0041ea84     qt-mt323:qt-mt323.dll
 0002:00000a88       __imp_?viewportMouseMoveEvent@QScrollView@@MAEXPAVQMouseEvent@@@Z 0041ea88     qt-mt323:qt-mt323.dll
 0002:00000a8c       __imp_?viewportMouseDoubleClickEvent@QScrollView@@MAEXPAVQMouseEvent@@@Z 0041ea8c     qt-mt323:qt-mt323.dll
 0002:00000a90       __imp_?viewportMouseReleaseEvent@QScrollView@@MAEXPAVQMouseEvent@@@Z 0041ea90     qt-mt323:qt-mt323.dll
 0002:00000a94       __imp_?viewportMousePressEvent@QScrollView@@MAEXPAVQMouseEvent@@@Z 0041ea94     qt-mt323:qt-mt323.dll
 0002:00000a98       __imp_?viewportResizeEvent@QListView@@MAEXPAVQResizeEvent@@@Z 0041ea98     qt-mt323:qt-mt323.dll
 0002:00000a9c       __imp_?viewportPaintEvent@QScrollView@@MAEXPAVQPaintEvent@@@Z 0041ea9c     qt-mt323:qt-mt323.dll
 0002:00000aa0       __imp_?contentsContextMenuEvent@QListView@@MAEXPAVQContextMenuEvent@@@Z 0041eaa0     qt-mt323:qt-mt323.dll
 0002:00000aa4       __imp_?contentsWheelEvent@QScrollView@@MAEXPAVQWheelEvent@@@Z 0041eaa4     qt-mt323:qt-mt323.dll
 0002:00000aa8       __imp_?contentsDropEvent@QListView@@MAEXPAVQDropEvent@@@Z 0041eaa8     qt-mt323:qt-mt323.dll
 0002:00000aac       __imp_?contentsDragLeaveEvent@QListView@@MAEXPAVQDragLeaveEvent@@@Z 0041eaac     qt-mt323:qt-mt323.dll
 0002:00000ab0       __imp_?contentsDragMoveEvent@QListView@@MAEXPAVQDragMoveEvent@@@Z 0041eab0     qt-mt323:qt-mt323.dll
 0002:00000ab4       __imp_?contentsDragEnterEvent@QListView@@MAEXPAVQDragEnterEvent@@@Z 0041eab4     qt-mt323:qt-mt323.dll
 0002:00000ab8       __imp_?contentsMouseMoveEvent@QListView@@MAEXPAVQMouseEvent@@@Z 0041eab8     qt-mt323:qt-mt323.dll
 0002:00000abc       __imp_?contentsMouseDoubleClickEvent@QListView@@MAEXPAVQMouseEvent@@@Z 0041eabc     qt-mt323:qt-mt323.dll
 0002:00000ac0       __imp_?contentsMouseReleaseEvent@QListView@@MAEXPAVQMouseEvent@@@Z 0041eac0     qt-mt323:qt-mt323.dll
 0002:00000ac4       __imp_?contentsMousePressEvent@QListView@@MAEXPAVQMouseEvent@@@Z 0041eac4     qt-mt323:qt-mt323.dll
 0002:00000ac8       __imp_?drawContentsOffset@QListView@@MAEXPAVQPainter@@HHHHHH@Z 0041eac8     qt-mt323:qt-mt323.dll
 0002:00000acc       __imp_?drawContents@QScrollView@@MAEXPAVQPainter@@HHHH@Z 0041eacc     qt-mt323:qt-mt323.dll
 0002:00000ad0       __imp_?setContentsPos@QListView@@UAEXHH@Z 0041ead0     qt-mt323:qt-mt323.dll
 0002:00000ad4       __imp_?resizeContents@QScrollView@@UAEXHH@Z 0041ead4     qt-mt323:qt-mt323.dll
 0002:00000ad8       __imp_?setDragAutoScroll@QScrollView@@UAEX_N@Z 0041ead8     qt-mt323:qt-mt323.dll
 0002:00000adc       __imp_?setCornerWidget@QScrollView@@UAEXPAVQWidget@@@Z 0041eadc     qt-mt323:qt-mt323.dll
 0002:00000ae0       __imp_?setHScrollBarMode@QScrollView@@UAEXW4ScrollBarMode@1@@Z 0041eae0     qt-mt323:qt-mt323.dll
 0002:00000ae4       __imp_?setVScrollBarMode@QScrollView@@UAEXW4ScrollBarMode@1@@Z 0041eae4     qt-mt323:qt-mt323.dll
 0002:00000ae8       __imp_?moveChild@QScrollView@@UAEXPAVQWidget@@HH@Z 0041eae8     qt-mt323:qt-mt323.dll
 0002:00000aec       __imp_?addChild@QScrollView@@UAEXPAVQWidget@@HH@Z 0041eaec     qt-mt323:qt-mt323.dll
 0002:00000af0       __imp_?setResizePolicy@QScrollView@@UAEXW4ResizePolicy@1@@Z 0041eaf0     qt-mt323:qt-mt323.dll
 0002:00000af4       __imp_?frameChanged@QScrollView@@MAEXXZ 0041eaf4     qt-mt323:qt-mt323.dll
 0002:00000af8       __imp_?drawContents@QScrollView@@EAEXPAVQPainter@@@Z 0041eaf8     qt-mt323:qt-mt323.dll
 0002:00000afc       __imp_?focusNextPrevChild@QScrollView@@MAE_N_N@Z 0041eafc     qt-mt323:qt-mt323.dll
 0002:00000b00       __imp_?windowActivationChange@QListView@@MAEX_N@Z 0041eb00     qt-mt323:qt-mt323.dll
 0002:00000b04       __imp_?fontChange@QScrollView@@MAEXABVQFont@@@Z 0041eb04     qt-mt323:qt-mt323.dll
 0002:00000b08       __imp_?styleChange@QListView@@MAEXAAVQStyle@@@Z 0041eb08     qt-mt323:qt-mt323.dll
 0002:00000b0c       __imp_?showEvent@QListView@@MAEXPAVQShowEvent@@@Z 0041eb0c     qt-mt323:qt-mt323.dll
 0002:00000b10       __imp_?contextMenuEvent@QScrollView@@MAEXPAVQContextMenuEvent@@@Z 0041eb10     qt-mt323:qt-mt323.dll
 0002:00000b14       __imp_?resizeEvent@QListView@@MAEXPAVQResizeEvent@@@Z 0041eb14     qt-mt323:qt-mt323.dll
 0002:00000b18       __imp_?focusOutEvent@QListView@@MAEXPAVQFocusEvent@@@Z 0041eb18     qt-mt323:qt-mt323.dll
 0002:00000b1c       __imp_?focusInEvent@QListView@@MAEXPAVQFocusEvent@@@Z 0041eb1c     qt-mt323:qt-mt323.dll
 0002:00000b20       __imp_?keyPressEvent@QListView@@MAEXPAVQKeyEvent@@@Z 0041eb20     qt-mt323:qt-mt323.dll
 0002:00000b24       __imp_?wheelEvent@QScrollView@@MAEXPAVQWheelEvent@@@Z 0041eb24     qt-mt323:qt-mt323.dll
 0002:00000b28       __imp_?mouseMoveEvent@QScrollView@@MAEXPAVQMouseEvent@@@Z 0041eb28     qt-mt323:qt-mt323.dll
 0002:00000b2c       __imp_?mouseDoubleClickEvent@QScrollView@@MAEXPAVQMouseEvent@@@Z 0041eb2c     qt-mt323:qt-mt323.dll
 0002:00000b30       __imp_?mouseReleaseEvent@QScrollView@@MAEXPAVQMouseEvent@@@Z 0041eb30     qt-mt323:qt-mt323.dll
 0002:00000b34       __imp_?mousePressEvent@QScrollView@@MAEXPAVQMouseEvent@@@Z 0041eb34     qt-mt323:qt-mt323.dll
 0002:00000b38       __imp_?minimumSizeHint@QListView@@UBE?AVQSize@@XZ 0041eb38     qt-mt323:qt-mt323.dll
 0002:00000b3c       __imp_?sizeHint@QListView@@UBE?AVQSize@@XZ 0041eb3c     qt-mt323:qt-mt323.dll
 0002:00000b40       __imp_?resize@QScrollView@@UAEXHH@Z 0041eb40     qt-mt323:qt-mt323.dll
 0002:00000b44       __imp_?show@QListView@@UAEXXZ 0041eb44     qt-mt323:qt-mt323.dll
 0002:00000b48       __imp_?setFont@QListView@@UAEXABVQFont@@@Z 0041eb48     qt-mt323:qt-mt323.dll
 0002:00000b4c       __imp_?setPalette@QListView@@UAEXABVQPalette@@@Z 0041eb4c     qt-mt323:qt-mt323.dll
 0002:00000b50       __imp_?setEnabled@QScrollView@@UAEX_N@Z 0041eb50     qt-mt323:qt-mt323.dll
 0002:00000b54       __imp_?removeChild@QScrollView@@UAEXPAVQObject@@@Z 0041eb54     qt-mt323:qt-mt323.dll
 0002:00000b58       __imp_?eventFilter@QListView@@UAE_NPAVQObject@@PAVQEvent@@@Z 0041eb58     qt-mt323:qt-mt323.dll
 0002:00000b5c       __imp_?qt_property@QListView@@UAE_NHHPAVQVariant@@@Z 0041eb5c     qt-mt323:qt-mt323.dll
 0002:00000b60       __imp_?qt_emit@QListView@@UAE_NHPAUQUObject@@@Z 0041eb60     qt-mt323:qt-mt323.dll
 0002:00000b64       __imp_?qt_invoke@QListView@@UAE_NHPAUQUObject@@@Z 0041eb64     qt-mt323:qt-mt323.dll
 0002:00000b68       __imp_?qt_cast@QListView@@UAEPAXPBD@Z 0041eb68     qt-mt323:qt-mt323.dll
 0002:00000b6c       __imp_?className@QListView@@UBEPBDXZ 0041eb6c     qt-mt323:qt-mt323.dll
 0002:00000b70       __imp_?metaObject@QListView@@UBEPAVQMetaObject@@XZ 0041eb70     qt-mt323:qt-mt323.dll
 0002:00000b74       __imp_?setRubberband@QSplitter@@MAEXH@Z 0041eb74     qt-mt323:qt-mt323.dll
 0002:00000b78       __imp_?drawSplitter@QSplitter@@MAEXPAVQPainter@@HHHH@Z 0041eb78     qt-mt323:qt-mt323.dll
 0002:00000b7c       __imp_?setOpaqueResize@QSplitter@@UAEX_N@Z 0041eb7c     qt-mt323:qt-mt323.dll
 0002:00000b80       __imp_?setResizeMode@QSplitter@@UAEXPAVQWidget@@W4ResizeMode@1@@Z 0041eb80     qt-mt323:qt-mt323.dll
 0002:00000b84       __imp_?setOrientation@QSplitter@@UAEXW4Orientation@Qt@@@Z 0041eb84     qt-mt323:qt-mt323.dll
 0002:00000b88       __imp_?styleChange@QSplitter@@MAEXAAVQStyle@@@Z 0041eb88     qt-mt323:qt-mt323.dll
 0002:00000b8c       __imp_?resizeEvent@QSplitter@@MAEXPAVQResizeEvent@@@Z 0041eb8c     qt-mt323:qt-mt323.dll
 0002:00000b90       __imp_?minimumSizeHint@QSplitter@@UBE?AVQSize@@XZ 0041eb90     qt-mt323:qt-mt323.dll
 0002:00000b94       __imp_?sizeHint@QSplitter@@UBE?AVQSize@@XZ 0041eb94     qt-mt323:qt-mt323.dll
 0002:00000b98       __imp_?childEvent@QSplitter@@MAEXPAVQChildEvent@@@Z 0041eb98     qt-mt323:qt-mt323.dll
 0002:00000b9c       __imp_?event@QSplitter@@MAE_NPAVQEvent@@@Z 0041eb9c     qt-mt323:qt-mt323.dll
 0002:00000ba0       __imp_?qt_property@QSplitter@@UAE_NHHPAVQVariant@@@Z 0041eba0     qt-mt323:qt-mt323.dll
 0002:00000ba4       __imp_?qt_emit@QSplitter@@UAE_NHPAUQUObject@@@Z 0041eba4     qt-mt323:qt-mt323.dll
 0002:00000ba8       __imp_?qt_invoke@QSplitter@@UAE_NHPAUQUObject@@@Z 0041eba8     qt-mt323:qt-mt323.dll
 0002:00000bac       __imp_?qt_cast@QSplitter@@UAEPAXPBD@Z 0041ebac     qt-mt323:qt-mt323.dll
 0002:00000bb0       __imp_?className@QSplitter@@UBEPBDXZ 0041ebb0     qt-mt323:qt-mt323.dll
 0002:00000bb4       __imp_?metaObject@QSplitter@@UBEPAVQMetaObject@@XZ 0041ebb4     qt-mt323:qt-mt323.dll
 0002:00000bb8       __imp_?moveFocus@QButtonGroup@@UAEXH@Z 0041ebb8     qt-mt323:qt-mt323.dll
 0002:00000bbc       __imp_?setButton@QButtonGroup@@UAEXH@Z 0041ebbc     qt-mt323:qt-mt323.dll
 0002:00000bc0       __imp_?setRadioButtonExclusive@QButtonGroup@@UAEX_N@Z 0041ebc0     qt-mt323:qt-mt323.dll
 0002:00000bc4       __imp_?setExclusive@QButtonGroup@@UAEX_N@Z 0041ebc4     qt-mt323:qt-mt323.dll
 0002:00000bc8       __imp_?setAlignment@QGroupBox@@UAEXH@Z 0041ebc8     qt-mt323:qt-mt323.dll
 0002:00000bcc       __imp_?setTitle@QGroupBox@@UAEXABVQString@@@Z 0041ebcc     qt-mt323:qt-mt323.dll
 0002:00000bd0       __imp_?setColumnLayout@QGroupBox@@UAEXHW4Orientation@Qt@@@Z 0041ebd0     qt-mt323:qt-mt323.dll
 0002:00000bd4       __imp_?drawContents@QFrame@@MAEXPAVQPainter@@@Z 0041ebd4     qt-mt323:qt-mt323.dll
 0002:00000bd8       __imp_?fontChange@QGroupBox@@MAEXABVQFont@@@Z 0041ebd8     qt-mt323:qt-mt323.dll
 0002:00000bdc       __imp_?resizeEvent@QGroupBox@@MAEXPAVQResizeEvent@@@Z 0041ebdc     qt-mt323:qt-mt323.dll
 0002:00000be0       __imp_?paintEvent@QGroupBox@@MAEXPAVQPaintEvent@@@Z 0041ebe0     qt-mt323:qt-mt323.dll
 0002:00000be4       __imp_?focusInEvent@QGroupBox@@MAEXPAVQFocusEvent@@@Z 0041ebe4     qt-mt323:qt-mt323.dll
 0002:00000be8       __imp_?sizeHint@QGroupBox@@UBE?AVQSize@@XZ 0041ebe8     qt-mt323:qt-mt323.dll
 0002:00000bec       __imp_?setEnabled@QGroupBox@@UAEX_N@Z 0041ebec     qt-mt323:qt-mt323.dll
 0002:00000bf0       __imp_?childEvent@QGroupBox@@MAEXPAVQChildEvent@@@Z 0041ebf0     qt-mt323:qt-mt323.dll
 0002:00000bf4       __imp_?event@QButtonGroup@@MAE_NPAVQEvent@@@Z 0041ebf4     qt-mt323:qt-mt323.dll
 0002:00000bf8       __imp_?qt_property@QButtonGroup@@UAE_NHHPAVQVariant@@@Z 0041ebf8     qt-mt323:qt-mt323.dll
 0002:00000bfc       __imp_?qt_emit@QButtonGroup@@UAE_NHPAUQUObject@@@Z 0041ebfc     qt-mt323:qt-mt323.dll
 0002:00000c00       __imp_?qt_invoke@QButtonGroup@@UAE_NHPAUQUObject@@@Z 0041ec00     qt-mt323:qt-mt323.dll
 0002:00000c04       __imp_?qt_cast@QButtonGroup@@UAEPAXPBD@Z 0041ec04     qt-mt323:qt-mt323.dll
 0002:00000c08       __imp_?className@QButtonGroup@@UBEPBDXZ 0041ec08     qt-mt323:qt-mt323.dll
 0002:00000c0c       __imp_?metaObject@QButtonGroup@@UBEPAVQMetaObject@@XZ 0041ec0c     qt-mt323:qt-mt323.dll
 0002:00000c10       __imp_?setOn@QPushButton@@UAEX_N@Z 0041ec10     qt-mt323:qt-mt323.dll
 0002:00000c14       __imp_?setIsMenuButton@QPushButton@@UAEX_N@Z 0041ec14     qt-mt323:qt-mt323.dll
 0002:00000c18       __imp_?setDefault@QPushButton@@UAEX_N@Z 0041ec18     qt-mt323:qt-mt323.dll
 0002:00000c1c       __imp_?setAutoDefault@QPushButton@@UAEX_N@Z 0041ec1c     qt-mt323:qt-mt323.dll
 0002:00000c20       __imp_?setGroup@QButton@@EAEXPAVQButtonGroup@@@Z 0041ec20     qt-mt323:qt-mt323.dll
 0002:00000c24       __imp_?drawButtonLabel@QPushButton@@MAEXPAVQPainter@@@Z 0041ec24     qt-mt323:qt-mt323.dll
 0002:00000c28       __imp_?drawButton@QPushButton@@MAEXPAVQPainter@@@Z 0041ec28     qt-mt323:qt-mt323.dll
 0002:00000c2c       __imp_?hitButton@QButton@@MBE_NABVQPoint@@@Z 0041ec2c     qt-mt323:qt-mt323.dll
 0002:00000c30       __imp_?setState@QButton@@MAEXW4ToggleState@1@@Z 0041ec30     qt-mt323:qt-mt323.dll
 0002:00000c34       __imp_?setToggleType@QButton@@MAEXW4ToggleType@1@@Z 0041ec34     qt-mt323:qt-mt323.dll
 0002:00000c38       __imp_?setAutoRepeat@QButton@@UAEX_N@Z 0041ec38     qt-mt323:qt-mt323.dll
 0002:00000c3c       __imp_?setDown@QButton@@UAEX_N@Z 0041ec3c     qt-mt323:qt-mt323.dll
 0002:00000c40       __imp_?setAccel@QButton@@UAEXABVQKeySequence@@@Z 0041ec40     qt-mt323:qt-mt323.dll
 0002:00000c44       __imp_?setPixmap@QButton@@UAEXABVQPixmap@@@Z 0041ec44     qt-mt323:qt-mt323.dll
 0002:00000c48       __imp_?setText@QButton@@UAEXABVQString@@@Z 0041ec48     qt-mt323:qt-mt323.dll
 0002:00000c4c       __imp_?enabledChange@QButton@@MAEX_N@Z 0041ec4c     qt-mt323:qt-mt323.dll
 0002:00000c50       __imp_?updateMask@QPushButton@@MAEXXZ 0041ec50     qt-mt323:qt-mt323.dll
 0002:00000c54       __imp_?resizeEvent@QPushButton@@MAEXPAVQResizeEvent@@@Z 0041ec54     qt-mt323:qt-mt323.dll
 0002:00000c58       __imp_?paintEvent@QButton@@MAEXPAVQPaintEvent@@@Z 0041ec58     qt-mt323:qt-mt323.dll
 0002:00000c5c       __imp_?focusOutEvent@QPushButton@@MAEXPAVQFocusEvent@@@Z 0041ec5c     qt-mt323:qt-mt323.dll
 0002:00000c60       __imp_?focusInEvent@QPushButton@@MAEXPAVQFocusEvent@@@Z 0041ec60     qt-mt323:qt-mt323.dll
 0002:00000c64       __imp_?keyReleaseEvent@QButton@@MAEXPAVQKeyEvent@@@Z 0041ec64     qt-mt323:qt-mt323.dll
 0002:00000c68       __imp_?keyPressEvent@QButton@@MAEXPAVQKeyEvent@@@Z 0041ec68     qt-mt323:qt-mt323.dll
 0002:00000c6c       __imp_?mouseMoveEvent@QButton@@MAEXPAVQMouseEvent@@@Z 0041ec6c     qt-mt323:qt-mt323.dll
 0002:00000c70       __imp_?mouseReleaseEvent@QButton@@MAEXPAVQMouseEvent@@@Z 0041ec70     qt-mt323:qt-mt323.dll
 0002:00000c74       __imp_?mousePressEvent@QButton@@MAEXPAVQMouseEvent@@@Z 0041ec74     qt-mt323:qt-mt323.dll
 0002:00000c78       __imp_?sizeHint@QPushButton@@UBE?AVQSize@@XZ 0041ec78     qt-mt323:qt-mt323.dll
 0002:00000c7c       __imp_?setGeometry@QPushButton@@UAEXHHHH@Z 0041ec7c     qt-mt323:qt-mt323.dll
 0002:00000c80       __imp_?setGeometry@QPushButton@@UAEXABVQRect@@@Z 0041ec80     qt-mt323:qt-mt323.dll
 0002:00000c84       __imp_?resize@QPushButton@@UAEXHH@Z 0041ec84     qt-mt323:qt-mt323.dll
 0002:00000c88       __imp_?move@QPushButton@@UAEXHH@Z 0041ec88     qt-mt323:qt-mt323.dll
 0002:00000c8c       __imp_?qt_property@QPushButton@@UAE_NHHPAVQVariant@@@Z 0041ec8c     qt-mt323:qt-mt323.dll
 0002:00000c90       __imp_?qt_emit@QPushButton@@UAE_NHPAUQUObject@@@Z 0041ec90     qt-mt323:qt-mt323.dll
 0002:00000c94       __imp_?qt_invoke@QPushButton@@UAE_NHPAUQUObject@@@Z 0041ec94     qt-mt323:qt-mt323.dll
 0002:00000c98       __imp_?qt_cast@QPushButton@@UAEPAXPBD@Z 0041ec98     qt-mt323:qt-mt323.dll
 0002:00000c9c       __imp_?className@QPushButton@@UBEPBDXZ 0041ec9c     qt-mt323:qt-mt323.dll
 0002:00000ca0       __imp_?metaObject@QPushButton@@UBEPAVQMetaObject@@XZ 0041eca0     qt-mt323:qt-mt323.dll
 0002:00000ca4       __imp_?setNum@QLabel@@UAEXH@Z 0041eca4     qt-mt323:qt-mt323.dll
 0002:00000ca8       __imp_?setNum@QLabel@@UAEXN@Z 0041eca8     qt-mt323:qt-mt323.dll
 0002:00000cac       __imp_?setMovie@QLabel@@UAEXABVQMovie@@@Z 0041ecac     qt-mt323:qt-mt323.dll
 0002:00000cb0       __imp_?setPicture@QLabel@@UAEXABVQPicture@@@Z 0041ecb0     qt-mt323:qt-mt323.dll
 0002:00000cb4       __imp_?setPixmap@QLabel@@UAEXABVQPixmap@@@Z 0041ecb4     qt-mt323:qt-mt323.dll
 0002:00000cb8       __imp_?setText@QLabel@@UAEXABVQString@@@Z 0041ecb8     qt-mt323:qt-mt323.dll
 0002:00000cbc       __imp_?setBuddy@QLabel@@UAEXPAVQWidget@@@Z 0041ecbc     qt-mt323:qt-mt323.dll
 0002:00000cc0       __imp_?setAutoResize@QLabel@@UAEX_N@Z 0041ecc0     qt-mt323:qt-mt323.dll
 0002:00000cc4       __imp_?setAlignment@QLabel@@UAEXH@Z 0041ecc4     qt-mt323:qt-mt323.dll
 0002:00000cc8       __imp_?frameChanged@QFrame@@MAEXXZ 0041ecc8     qt-mt323:qt-mt323.dll
 0002:00000ccc       __imp_?drawContents@QLabel@@MAEXPAVQPainter@@@Z 0041eccc     qt-mt323:qt-mt323.dll
 0002:00000cd0       __imp_?fontChange@QLabel@@MAEXABVQFont@@@Z 0041ecd0     qt-mt323:qt-mt323.dll
 0002:00000cd4       __imp_?styleChange@QFrame@@MAEXAAVQStyle@@@Z 0041ecd4     qt-mt323:qt-mt323.dll
 0002:00000cd8       __imp_?resizeEvent@QLabel@@MAEXPAVQResizeEvent@@@Z 0041ecd8     qt-mt323:qt-mt323.dll
 0002:00000cdc       __imp_?heightForWidth@QLabel@@UBEHH@Z 0041ecdc     qt-mt323:qt-mt323.dll
 0002:00000ce0       __imp_?minimumSizeHint@QLabel@@UBE?AVQSize@@XZ 0041ece0     qt-mt323:qt-mt323.dll
 0002:00000ce4       __imp_?sizeHint@QLabel@@UBE?AVQSize@@XZ 0041ece4     qt-mt323:qt-mt323.dll
 0002:00000ce8       __imp_?setFont@QLabel@@UAEXABVQFont@@@Z 0041ece8     qt-mt323:qt-mt323.dll
 0002:00000cec       __imp_?qt_property@QLabel@@UAE_NHHPAVQVariant@@@Z 0041ecec     qt-mt323:qt-mt323.dll
 0002:00000cf0       __imp_?qt_emit@QLabel@@UAE_NHPAUQUObject@@@Z 0041ecf0     qt-mt323:qt-mt323.dll
 0002:00000cf4       __imp_?qt_invoke@QLabel@@UAE_NHPAUQUObject@@@Z 0041ecf4     qt-mt323:qt-mt323.dll
 0002:00000cf8       __imp_?qt_cast@QLabel@@UAEPAXPBD@Z 0041ecf8     qt-mt323:qt-mt323.dll
 0002:00000cfc       __imp_?className@QLabel@@UBEPBDXZ 0041ecfc     qt-mt323:qt-mt323.dll
 0002:00000d00       __imp_?metaObject@QLabel@@UBEPAVQMetaObject@@XZ 0041ed00     qt-mt323:qt-mt323.dll
 0002:00000d04       __imp_?qt_property@QVBoxLayout@@UAE_NHHPAVQVariant@@@Z 0041ed04     qt-mt323:qt-mt323.dll
 0002:00000d08       __imp_?qt_emit@QVBoxLayout@@UAE_NHPAUQUObject@@@Z 0041ed08     qt-mt323:qt-mt323.dll
 0002:00000d0c       __imp_?qt_invoke@QVBoxLayout@@UAE_NHPAUQUObject@@@Z 0041ed0c     qt-mt323:qt-mt323.dll
 0002:00000d10       __imp_?qt_cast@QVBoxLayout@@UAEPAXPBD@Z 0041ed10     qt-mt323:qt-mt323.dll
 0002:00000d14       __imp_?className@QVBoxLayout@@UBEPBDXZ 0041ed14     qt-mt323:qt-mt323.dll
 0002:00000d18       __imp_?metaObject@QVBoxLayout@@UBEPAVQMetaObject@@XZ 0041ed18     qt-mt323:qt-mt323.dll
 0002:00000d1c       __imp_?spacerItem@QLayoutItem@@UAEPAVQSpacerItem@@XZ 0041ed1c     qt-mt323:qt-mt323.dll
 0002:00000d20       __imp_?layout@QLayout@@UAEPAV1@XZ 0041ed20     qt-mt323:qt-mt323.dll
 0002:00000d24       __imp_?iterator@QBoxLayout@@UAE?AVQLayoutIterator@@XZ 0041ed24     qt-mt323:qt-mt323.dll
 0002:00000d28       __imp_?invalidate@QBoxLayout@@UAEXXZ 0041ed28     qt-mt323:qt-mt323.dll
 0002:00000d2c       __imp_?heightForWidth@QBoxLayout@@UBEHH@Z 0041ed2c     qt-mt323:qt-mt323.dll
 0002:00000d30       __imp_?hasHeightForWidth@QBoxLayout@@UBE_NXZ 0041ed30     qt-mt323:qt-mt323.dll
 0002:00000d34       __imp_?isEmpty@QLayout@@UBE_NXZ 0041ed34     qt-mt323:qt-mt323.dll
 0002:00000d38       __imp_?geometry@QLayout@@UBE?AVQRect@@XZ 0041ed38     qt-mt323:qt-mt323.dll
 0002:00000d3c       __imp_?setGeometry@QBoxLayout@@UAEXABVQRect@@@Z 0041ed3c     qt-mt323:qt-mt323.dll
 0002:00000d40       __imp_?expanding@QBoxLayout@@UBE?AW4ExpandData@QSizePolicy@@XZ 0041ed40     qt-mt323:qt-mt323.dll
 0002:00000d44       __imp_?maximumSize@QBoxLayout@@UBE?AVQSize@@XZ 0041ed44     qt-mt323:qt-mt323.dll
 0002:00000d48       __imp_?minimumSize@QBoxLayout@@UBE?AVQSize@@XZ 0041ed48     qt-mt323:qt-mt323.dll
 0002:00000d4c       __imp_?sizeHint@QBoxLayout@@UBE?AVQSize@@XZ 0041ed4c     qt-mt323:qt-mt323.dll
 0002:00000d50       __imp_?addItem@QBoxLayout@@UAEXPAVQLayoutItem@@@Z 0041ed50     qt-mt323:qt-mt323.dll
 0002:00000d54       __imp_?setAutoAdd@QLayout@@UAEX_N@Z 0041ed54     qt-mt323:qt-mt323.dll
 0002:00000d58       __imp_?setMenuBar@QLayout@@UAEXPAVQMenuBar@@@Z 0041ed58     qt-mt323:qt-mt323.dll
 0002:00000d5c       __imp_?setSpacing@QLayout@@UAEXH@Z 0041ed5c     qt-mt323:qt-mt323.dll
 0002:00000d60       __imp_?setMargin@QLayout@@UAEXH@Z 0041ed60     qt-mt323:qt-mt323.dll
 0002:00000d64       __imp_?childEvent@QLayout@@MAEXPAVQChildEvent@@@Z 0041ed64     qt-mt323:qt-mt323.dll
 0002:00000d68       __imp_?eventFilter@QLayout@@MAE_NPAVQObject@@PAVQEvent@@@Z 0041ed68     qt-mt323:qt-mt323.dll
 0002:00000d6c       __imp_?qt_property@QHBoxLayout@@UAE_NHHPAVQVariant@@@Z 0041ed6c     qt-mt323:qt-mt323.dll
 0002:00000d70       __imp_?qt_emit@QHBoxLayout@@UAE_NHPAUQUObject@@@Z 0041ed70     qt-mt323:qt-mt323.dll
 0002:00000d74       __imp_?qt_invoke@QHBoxLayout@@UAE_NHPAUQUObject@@@Z 0041ed74     qt-mt323:qt-mt323.dll
 0002:00000d78       __imp_?qt_cast@QHBoxLayout@@UAEPAXPBD@Z 0041ed78     qt-mt323:qt-mt323.dll
 0002:00000d7c       __imp_?className@QHBoxLayout@@UBEPBDXZ 0041ed7c     qt-mt323:qt-mt323.dll
 0002:00000d80       __imp_?metaObject@QHBoxLayout@@UBEPAVQMetaObject@@XZ 0041ed80     qt-mt323:qt-mt323.dll
 0002:00000d84       __imp_?setAlignment@QLayoutItem@@UAEXH@Z 0041ed84     qt-mt323:qt-mt323.dll
 0002:00000d88       __imp_?spacerItem@QSpacerItem@@UAEPAV1@XZ 0041ed88     qt-mt323:qt-mt323.dll
 0002:00000d8c       __imp_?layout@QLayoutItem@@UAEPAVQLayout@@XZ 0041ed8c     qt-mt323:qt-mt323.dll
 0002:00000d90       __imp_?iterator@QLayoutItem@@UAE?AVQLayoutIterator@@XZ 0041ed90     qt-mt323:qt-mt323.dll
 0002:00000d94       __imp_?widget@QLayoutItem@@UAEPAVQWidget@@XZ 0041ed94     qt-mt323:qt-mt323.dll
 0002:00000d98       __imp_?invalidate@QLayoutItem@@UAEXXZ 0041ed98     qt-mt323:qt-mt323.dll
 0002:00000d9c       __imp_?heightForWidth@QLayoutItem@@UBEHH@Z 0041ed9c     qt-mt323:qt-mt323.dll
 0002:00000da0       __imp_?hasHeightForWidth@QLayoutItem@@UBE_NXZ 0041eda0     qt-mt323:qt-mt323.dll
 0002:00000da4       __imp_?isEmpty@QSpacerItem@@UBE_NXZ 0041eda4     qt-mt323:qt-mt323.dll
 0002:00000da8       __imp_?geometry@QSpacerItem@@UBE?AVQRect@@XZ 0041eda8     qt-mt323:qt-mt323.dll
 0002:00000dac       __imp_?setGeometry@QSpacerItem@@UAEXABVQRect@@@Z 0041edac     qt-mt323:qt-mt323.dll
 0002:00000db0       __imp_?expanding@QSpacerItem@@UBE?AW4ExpandData@QSizePolicy@@XZ 0041edb0     qt-mt323:qt-mt323.dll
 0002:00000db4       __imp_?maximumSize@QSpacerItem@@UBE?AVQSize@@XZ 0041edb4     qt-mt323:qt-mt323.dll
 0002:00000db8       __imp_?minimumSize@QSpacerItem@@UBE?AVQSize@@XZ 0041edb8     qt-mt323:qt-mt323.dll
 0002:00000dbc       __imp_?sizeHint@QSpacerItem@@UBE?AVQSize@@XZ 0041edbc     qt-mt323:qt-mt323.dll
 0002:00000dc0       __imp_?sizeHint@QWidget@@UBE?AVQSize@@XZ 0041edc0     qt-mt323:qt-mt323.dll
 0002:00000dc4       __imp_?hide@QWidget@@UAEXXZ 0041edc4     qt-mt323:qt-mt323.dll
 0002:00000dc8       __imp_?show@QWidget@@UAEXXZ 0041edc8     qt-mt323:qt-mt323.dll
 0002:00000dcc       __imp_?qt_property@QWidget@@UAE_NHHPAVQVariant@@@Z 0041edcc     qt-mt323:qt-mt323.dll
 0002:00000dd0       __imp_?qt_emit@QWidget@@UAE_NHPAUQUObject@@@Z 0041edd0     qt-mt323:qt-mt323.dll
 0002:00000dd4       __imp_?qt_invoke@QWidget@@UAE_NHPAUQUObject@@@Z 0041edd4     qt-mt323:qt-mt323.dll
 0002:00000dd8       __imp_?qt_cast@QWidget@@UAEPAXPBD@Z 0041edd8     qt-mt323:qt-mt323.dll
 0002:00000ddc       __imp_?className@QWidget@@UBEPBDXZ 0041eddc     qt-mt323:qt-mt323.dll
 0002:00000de0       __imp_?metaObject@QWidget@@UBEPAVQMetaObject@@XZ 0041ede0     qt-mt323:qt-mt323.dll
 0002:00000de4       __imp_??1QMainWindow@@UAE@XZ 0041ede4     qt-mt323:qt-mt323.dll
 0002:00000de8       __imp_??1QFont@@QAE@XZ     0041ede8     qt-mt323:qt-mt323.dll
 0002:00000dec       __imp_?setTabOrder@QWidget@@SAXPAV1@0@Z 0041edec     qt-mt323:qt-mt323.dll
 0002:00000df0       __imp_??0QTextEdit@@QAE@PAVQWidget@@PBD@Z 0041edf0     qt-mt323:qt-mt323.dll
 0002:00000df4       __imp_??0QListView@@QAE@PAVQWidget@@PBDI@Z 0041edf4     qt-mt323:qt-mt323.dll
 0002:00000df8       __imp_??0QSplitter@@QAE@PAVQWidget@@PBD@Z 0041edf8     qt-mt323:qt-mt323.dll
 0002:00000dfc       __imp_??0QHBoxLayout@@QAE@PAVQLayout@@HPBD@Z 0041edfc     qt-mt323:qt-mt323.dll
 0002:00000e00       __imp_??0QButtonGroup@@QAE@PAVQWidget@@PBD@Z 0041ee00     qt-mt323:qt-mt323.dll
 0002:00000e04       __imp_??0QPushButton@@QAE@PAVQWidget@@PBD@Z 0041ee04     qt-mt323:qt-mt323.dll
 0002:00000e08       __imp_?addLayout@QBoxLayout@@QAEXPAVQLayout@@H@Z 0041ee08     qt-mt323:qt-mt323.dll
 0002:00000e0c       __imp_?setPointSize@QFont@@QAEXH@Z 0041ee0c     qt-mt323:qt-mt323.dll
 0002:00000e10       __imp_?setFamily@QFont@@QAEXABVQString@@@Z 0041ee10     qt-mt323:qt-mt323.dll
 0002:00000e14       __imp_?font@QWidget@@QBE?AVQFont@@XZ 0041ee14     qt-mt323:qt-mt323.dll
 0002:00000e18       __imp_?addWidget@QBoxLayout@@QAEXPAVQWidget@@HH@Z 0041ee18     qt-mt323:qt-mt323.dll
 0002:00000e1c       __imp_??0QLabel@@QAE@PAVQWidget@@PBDI@Z 0041ee1c     qt-mt323:qt-mt323.dll
 0002:00000e20       __imp_??0QHBoxLayout@@QAE@PAVQWidget@@HHPBD@Z 0041ee20     qt-mt323:qt-mt323.dll
 0002:00000e24       __imp_??0QVBoxLayout@@QAE@PAVQWidget@@HHPBD@Z 0041ee24     qt-mt323:qt-mt323.dll
 0002:00000e28       __imp_?centralWidget@QMainWindow@@QBEPAVQWidget@@XZ 0041ee28     qt-mt323:qt-mt323.dll
 0002:00000e2c       __imp_??0QWidget@@QAE@PAV0@PBDI@Z 0041ee2c     qt-mt323:qt-mt323.dll
 0002:00000e30       __imp_?statusBar@QMainWindow@@QBEPAVQStatusBar@@XZ 0041ee30     qt-mt323:qt-mt323.dll
 0002:00000e34       __imp_??0QMainWindow@@QAE@PAVQWidget@@PBDI@Z 0041ee34     qt-mt323:qt-mt323.dll
 0002:00000e38       __imp_??1QSpacerItem@@UAE@XZ 0041ee38     qt-mt323:qt-mt323.dll
 0002:00000e3c       __imp_??1QWidget@@UAE@XZ   0041ee3c     qt-mt323:qt-mt323.dll
 0002:00000e40       __imp_??1QVBoxLayout@@UAE@XZ 0041ee40     qt-mt323:qt-mt323.dll
 0002:00000e44       __imp_??1QHBoxLayout@@UAE@XZ 0041ee44     qt-mt323:qt-mt323.dll
 0002:00000e48       __imp_??1QLabel@@UAE@XZ    0041ee48     qt-mt323:qt-mt323.dll
 0002:00000e4c       __imp_??1QPushButton@@UAE@XZ 0041ee4c     qt-mt323:qt-mt323.dll
 0002:00000e50       __imp_??1QButtonGroup@@UAE@XZ 0041ee50     qt-mt323:qt-mt323.dll
 0002:00000e54       __imp_??1QSplitter@@UAE@XZ 0041ee54     qt-mt323:qt-mt323.dll
 0002:00000e58       __imp_??1QListView@@UAE@XZ 0041ee58     qt-mt323:qt-mt323.dll
 0002:00000e5c       __imp_??1QTextEdit@@UAE@XZ 0041ee5c     qt-mt323:qt-mt323.dll
 0002:00000e60       __imp_?header@QListView@@QBEPAVQHeader@@XZ 0041ee60     qt-mt323:qt-mt323.dll
 0002:00000e64       __imp_?createPopupMenu@QLineEdit@@MAEPAVQPopupMenu@@XZ 0041ee64     qt-mt323:qt-mt323.dll
 0002:00000e68       __imp_?setDragEnabled@QLineEdit@@UAEX_N@Z 0041ee68     qt-mt323:qt-mt323.dll
 0002:00000e6c       __imp_?paste@QLineEdit@@UAEXXZ 0041ee6c     qt-mt323:qt-mt323.dll
 0002:00000e70       __imp_?copy@QLineEdit@@UBEXXZ 0041ee70     qt-mt323:qt-mt323.dll
 0002:00000e74       __imp_?cut@QLineEdit@@UAEXXZ 0041ee74     qt-mt323:qt-mt323.dll
 0002:00000e78       __imp_?setAlignment@QLineEdit@@UAEXH@Z 0041ee78     qt-mt323:qt-mt323.dll
 0002:00000e7c       __imp_?setCursorPosition@QLineEdit@@UAEXH@Z 0041ee7c     qt-mt323:qt-mt323.dll
 0002:00000e80       __imp_?setSelection@QLineEdit@@UAEXHH@Z 0041ee80     qt-mt323:qt-mt323.dll
 0002:00000e84       __imp_?setValidator@QLineEdit@@UAEXPBVQValidator@@@Z 0041ee84     qt-mt323:qt-mt323.dll
 0002:00000e88       __imp_?setReadOnly@QLineEdit@@UAEX_N@Z 0041ee88     qt-mt323:qt-mt323.dll
 0002:00000e8c       __imp_?setEchoMode@QLineEdit@@UAEXW4EchoMode@1@@Z 0041ee8c     qt-mt323:qt-mt323.dll
 0002:00000e90       __imp_?setFrame@QLineEdit@@UAEX_N@Z 0041ee90     qt-mt323:qt-mt323.dll
 0002:00000e94       __imp_?setMaxLength@QLineEdit@@UAEXH@Z 0041ee94     qt-mt323:qt-mt323.dll
 0002:00000e98       __imp_?redo@QLineEdit@@UAEXXZ 0041ee98     qt-mt323:qt-mt323.dll
 0002:00000e9c       __imp_?undo@QLineEdit@@UAEXXZ 0041ee9c     qt-mt323:qt-mt323.dll
 0002:00000ea0       __imp_?clear@QLineEdit@@UAEXXZ 0041eea0     qt-mt323:qt-mt323.dll
 0002:00000ea4       __imp_?insert@QLineEdit@@UAEXABVQString@@@Z 0041eea4     qt-mt323:qt-mt323.dll
 0002:00000ea8       __imp_?clearValidator@QLineEdit@@UAEXXZ 0041eea8     qt-mt323:qt-mt323.dll
 0002:00000eac       __imp_?deselect@QLineEdit@@UAEXXZ 0041eeac     qt-mt323:qt-mt323.dll
 0002:00000eb0       __imp_?selectAll@QLineEdit@@UAEXXZ 0041eeb0     qt-mt323:qt-mt323.dll
 0002:00000eb4       __imp_?setText@QLineEdit@@UAEXABVQString@@@Z 0041eeb4     qt-mt323:qt-mt323.dll
 0002:00000eb8       __imp_?drawContents@QLineEdit@@MAEXPAVQPainter@@@Z 0041eeb8     qt-mt323:qt-mt323.dll
 0002:00000ebc       __imp_?windowActivationChange@QLineEdit@@MAEX_N@Z 0041eebc     qt-mt323:qt-mt323.dll
 0002:00000ec0       __imp_?dropEvent@QLineEdit@@MAEXPAVQDropEvent@@@Z 0041eec0     qt-mt323:qt-mt323.dll
 0002:00000ec4       __imp_?dragLeaveEvent@QLineEdit@@MAEXPAVQDragLeaveEvent@@@Z 0041eec4     qt-mt323:qt-mt323.dll
 0002:00000ec8       __imp_?dragMoveEvent@QLineEdit@@MAEXPAVQDragMoveEvent@@@Z 0041eec8     qt-mt323:qt-mt323.dll
 0002:00000ecc       __imp_?dragEnterEvent@QLineEdit@@MAEXPAVQDragEnterEvent@@@Z 0041eecc     qt-mt323:qt-mt323.dll
 0002:00000ed0       __imp_?imEndEvent@QLineEdit@@MAEXPAVQIMEvent@@@Z 0041eed0     qt-mt323:qt-mt323.dll
 0002:00000ed4       __imp_?imComposeEvent@QLineEdit@@MAEXPAVQIMEvent@@@Z 0041eed4     qt-mt323:qt-mt323.dll
 0002:00000ed8       __imp_?imStartEvent@QLineEdit@@MAEXPAVQIMEvent@@@Z 0041eed8     qt-mt323:qt-mt323.dll
 0002:00000edc       __imp_?contextMenuEvent@QLineEdit@@MAEXPAVQContextMenuEvent@@@Z 0041eedc     qt-mt323:qt-mt323.dll
 0002:00000ee0       __imp_?resizeEvent@QLineEdit@@MAEXPAVQResizeEvent@@@Z 0041eee0     qt-mt323:qt-mt323.dll
 0002:00000ee4       __imp_?focusOutEvent@QLineEdit@@MAEXPAVQFocusEvent@@@Z 0041eee4     qt-mt323:qt-mt323.dll
 0002:00000ee8       __imp_?focusInEvent@QLineEdit@@MAEXPAVQFocusEvent@@@Z 0041eee8     qt-mt323:qt-mt323.dll
 0002:00000eec       __imp_?keyPressEvent@QLineEdit@@MAEXPAVQKeyEvent@@@Z 0041eeec     qt-mt323:qt-mt323.dll
 0002:00000ef0       __imp_?mouseMoveEvent@QLineEdit@@MAEXPAVQMouseEvent@@@Z 0041eef0     qt-mt323:qt-mt323.dll
 0002:00000ef4       __imp_?mouseDoubleClickEvent@QLineEdit@@MAEXPAVQMouseEvent@@@Z 0041eef4     qt-mt323:qt-mt323.dll
 0002:00000ef8       __imp_?mouseReleaseEvent@QLineEdit@@MAEXPAVQMouseEvent@@@Z 0041eef8     qt-mt323:qt-mt323.dll
 0002:00000efc       __imp_?mousePressEvent@QLineEdit@@MAEXPAVQMouseEvent@@@Z 0041eefc     qt-mt323:qt-mt323.dll
 0002:00000f00       __imp_?minimumSizeHint@QLineEdit@@UBE?AVQSize@@XZ 0041ef00     qt-mt323:qt-mt323.dll
 0002:00000f04       __imp_?sizeHint@QLineEdit@@UBE?AVQSize@@XZ 0041ef04     qt-mt323:qt-mt323.dll
 0002:00000f08       __imp_?setFont@QLineEdit@@UAEXABVQFont@@@Z 0041ef08     qt-mt323:qt-mt323.dll
 0002:00000f0c       __imp_?setPalette@QLineEdit@@UAEXABVQPalette@@@Z 0041ef0c     qt-mt323:qt-mt323.dll
 0002:00000f10       __imp_?event@QLineEdit@@MAE_NPAVQEvent@@@Z 0041ef10     qt-mt323:qt-mt323.dll
 0002:00000f14       __imp_?qt_property@QLineEdit@@UAE_NHHPAVQVariant@@@Z 0041ef14     qt-mt323:qt-mt323.dll
 0002:00000f18       __imp_?qt_emit@QLineEdit@@UAE_NHPAUQUObject@@@Z 0041ef18     qt-mt323:qt-mt323.dll
 0002:00000f1c       __imp_?qt_invoke@QLineEdit@@UAE_NHPAUQUObject@@@Z 0041ef1c     qt-mt323:qt-mt323.dll
 0002:00000f20       __imp_?qt_cast@QLineEdit@@UAEPAXPBD@Z 0041ef20     qt-mt323:qt-mt323.dll
 0002:00000f24       __imp_?className@QLineEdit@@UBEPBDXZ 0041ef24     qt-mt323:qt-mt323.dll
 0002:00000f28       __imp_?metaObject@QLineEdit@@UBEPAVQMetaObject@@XZ 0041ef28     qt-mt323:qt-mt323.dll
 0002:00000f2c       __imp_?iterator@QGridLayout@@UAE?AVQLayoutIterator@@XZ 0041ef2c     qt-mt323:qt-mt323.dll
 0002:00000f30       __imp_?invalidate@QGridLayout@@UAEXXZ 0041ef30     qt-mt323:qt-mt323.dll
 0002:00000f34       __imp_?heightForWidth@QGridLayout@@UBEHH@Z 0041ef34     qt-mt323:qt-mt323.dll
 0002:00000f38       __imp_?hasHeightForWidth@QGridLayout@@UBE_NXZ 0041ef38     qt-mt323:qt-mt323.dll
 0002:00000f3c       __imp_?setGeometry@QGridLayout@@UAEXABVQRect@@@Z 0041ef3c     qt-mt323:qt-mt323.dll
 0002:00000f40       __imp_?expanding@QGridLayout@@UBE?AW4ExpandData@QSizePolicy@@XZ 0041ef40     qt-mt323:qt-mt323.dll
 0002:00000f44       __imp_?maximumSize@QGridLayout@@UBE?AVQSize@@XZ 0041ef44     qt-mt323:qt-mt323.dll
 0002:00000f48       __imp_?minimumSize@QGridLayout@@UBE?AVQSize@@XZ 0041ef48     qt-mt323:qt-mt323.dll
 0002:00000f4c       __imp_?sizeHint@QGridLayout@@UBE?AVQSize@@XZ 0041ef4c     qt-mt323:qt-mt323.dll
 0002:00000f50       __imp_?setColStretch@QGridLayout@@UAEXHH@Z 0041ef50     qt-mt323:qt-mt323.dll
 0002:00000f54       __imp_?setRowStretch@QGridLayout@@UAEXHH@Z 0041ef54     qt-mt323:qt-mt323.dll
 0002:00000f58       __imp_?addItem@QGridLayout@@UAEXPAVQLayoutItem@@@Z 0041ef58     qt-mt323:qt-mt323.dll
 0002:00000f5c       __imp_?qt_property@QGridLayout@@UAE_NHHPAVQVariant@@@Z 0041ef5c     qt-mt323:qt-mt323.dll
 0002:00000f60       __imp_?qt_emit@QGridLayout@@UAE_NHPAUQUObject@@@Z 0041ef60     qt-mt323:qt-mt323.dll
 0002:00000f64       __imp_?qt_invoke@QGridLayout@@UAE_NHPAUQUObject@@@Z 0041ef64     qt-mt323:qt-mt323.dll
 0002:00000f68       __imp_?qt_cast@QGridLayout@@UAEPAXPBD@Z 0041ef68     qt-mt323:qt-mt323.dll
 0002:00000f6c       __imp_?className@QGridLayout@@UBEPBDXZ 0041ef6c     qt-mt323:qt-mt323.dll
 0002:00000f70       __imp_?metaObject@QGridLayout@@UBEPAVQMetaObject@@XZ 0041ef70     qt-mt323:qt-mt323.dll
 0002:00000f74       __imp_??1QDialog@@UAE@XZ   0041ef74     qt-mt323:qt-mt323.dll
 0002:00000f78       __imp_?resize@QDialog@@QAEXABVQSize@@@Z 0041ef78     qt-mt323:qt-mt323.dll
 0002:00000f7c       __imp_?addLayout@QGridLayout@@QAEXPAVQLayout@@HH@Z 0041ef7c     qt-mt323:qt-mt323.dll
 0002:00000f80       __imp_??0QVBoxLayout@@QAE@PAVQLayout@@HPBD@Z 0041ef80     qt-mt323:qt-mt323.dll
 0002:00000f84       __imp_?setScaledContents@QLabel@@QAEX_N@Z 0041ef84     qt-mt323:qt-mt323.dll
 0002:00000f88       __imp_?setSelectionMode@QListView@@QAEXW4SelectionMode@1@@Z 0041ef88     qt-mt323:qt-mt323.dll
 0002:00000f8c       __imp_??0QLineEdit@@QAE@PAVQWidget@@PBD@Z 0041ef8c     qt-mt323:qt-mt323.dll
 0002:00000f90       __imp_?addWidget@QGridLayout@@QAEXPAVQWidget@@HHH@Z 0041ef90     qt-mt323:qt-mt323.dll
 0002:00000f94       __imp_??0QGridLayout@@QAE@PAVQWidget@@HHHHPBD@Z 0041ef94     qt-mt323:qt-mt323.dll
 0002:00000f98       __imp_?setSizeGripEnabled@QDialog@@QAEX_N@Z 0041ef98     qt-mt323:qt-mt323.dll
 0002:00000f9c       __imp_??0QDialog@@QAE@PAVQWidget@@PBD_NI@Z 0041ef9c     qt-mt323:qt-mt323.dll
 0002:00000fa0       __imp_??1QGridLayout@@UAE@XZ 0041efa0     qt-mt323:qt-mt323.dll
 0002:00000fa4       __imp_??1QLineEdit@@UAE@XZ 0041efa4     qt-mt323:qt-mt323.dll
 0002:00000fa8       __imp_??0QListViewItem@@QAE@PAVQListView@@PAV0@@Z 0041efa8     qt-mt323:qt-mt323.dll
 0002:00000fac       __imp_??0QMetaObjectCleanUp@@QAE@PBDP6APAVQMetaObject@@XZ@Z 0041efac     qt-mt323:qt-mt323.dll
 0002:00000fb0       __imp_??1QMetaObjectCleanUp@@QAE@XZ 0041efb0     qt-mt323:qt-mt323.dll
 0002:00000fb4       __imp_?fromLatin1@QString@@SA?AV1@PBDH@Z 0041efb4     qt-mt323:qt-mt323.dll
 0002:00000fb8       __imp_?translate@QApplication@@QBE?AVQString@@PBD00W4Encoding@1@@Z 0041efb8     qt-mt323:qt-mt323.dll
 0002:00000fbc       __imp_?setMetaObject@QMetaObjectCleanUp@@QAEXAAPAVQMetaObject@@@Z 0041efbc     qt-mt323:qt-mt323.dll
 0002:00000fc0       __imp_?new_metaobject@QMetaObject@@SAPAV1@PBDPAV1@QBUQMetaData@@H2HQBVQMetaProperty@@HQBUQMetaEnum@@HQBUQClassInfo@@H@Z 0041efc0     qt-mt323:qt-mt323.dll
 0002:00000fc4       __imp_?static_QUType_bool@@3UQUType_bool@@A 0041efc4     qt-mt323:qt-mt323.dll
 0002:00000fc8       __imp_?static_QUType_QString@@3UQUType_QString@@A 0041efc8     qt-mt323:qt-mt323.dll
 0002:00000fcc       __imp_?static_QUType_ptr@@3UQUType_ptr@@A 0041efcc     qt-mt323:qt-mt323.dll
 0002:00000fd0       __imp_?static_QUType_varptr@@3UQUType_varptr@@A 0041efd0     qt-mt323:qt-mt323.dll
 0002:00000fd4       __imp_?static_QUType_int@@3UQUType_int@@A 0041efd4     qt-mt323:qt-mt323.dll
 0002:00000fd8       __imp_?staticMetaObject@QMainWindow@@SAPAVQMetaObject@@XZ 0041efd8     qt-mt323:qt-mt323.dll
 0002:00000fdc       __imp_?qt_cast@QMainWindow@@UAEPAXPBD@Z 0041efdc     qt-mt323:qt-mt323.dll
 0002:00000fe0       __imp_?qt_invoke@QMainWindow@@UAE_NHPAUQUObject@@@Z 0041efe0     qt-mt323:qt-mt323.dll
 0002:00000fe4       __imp_?qt_emit@QMainWindow@@UAE_NHPAUQUObject@@@Z 0041efe4     qt-mt323:qt-mt323.dll
 0002:00000fe8       __imp_?qt_property@QMainWindow@@UAE_NHHPAVQVariant@@@Z 0041efe8     qt-mt323:qt-mt323.dll
 0002:00000fec       __imp_?staticMetaObject@QDialog@@SAPAVQMetaObject@@XZ 0041efec     qt-mt323:qt-mt323.dll
 0002:00000ff0       __imp_?qt_cast@QDialog@@UAEPAXPBD@Z 0041eff0     qt-mt323:qt-mt323.dll
 0002:00000ff4       __imp_?qt_invoke@QDialog@@UAE_NHPAUQUObject@@@Z 0041eff4     qt-mt323:qt-mt323.dll
 0002:00000ff8       __imp_?qt_emit@QDialog@@UAE_NHPAUQUObject@@@Z 0041eff8     qt-mt323:qt-mt323.dll
 0002:00000ffc       __imp_?qt_property@QDialog@@UAE_NHHPAVQVariant@@@Z 0041effc     qt-mt323:qt-mt323.dll
 0002:00001000       __imp_?activate_signal@QObject@@IAEXH@Z 0041f000     qt-mt323:qt-mt323.dll
 0002:00001004       __imp_?activate_signal@QObject@@IAEXPAVQConnectionList@@PAUQUObject@@@Z 0041f004     qt-mt323:qt-mt323.dll
 0002:00001008       __imp_?set@QUType_varptr@@QAEXPAUQUObject@@PBX@Z 0041f008     qt-mt323:qt-mt323.dll
 0002:0000100c       __imp_?set@QUType_int@@QAEXPAUQUObject@@H@Z 0041f00c     qt-mt323:qt-mt323.dll
 0002:00001010       __imp_??0QUObject@@QAE@XZ  0041f010     qt-mt323:qt-mt323.dll
 0002:00001014       __imp_??1QUObject@@QAE@XZ  0041f014     qt-mt323:qt-mt323.dll
 0002:00001018       __imp_?receivers@QObject@@IBEPAVQConnectionList@@H@Z 0041f018     qt-mt323:qt-mt323.dll
 0002:0000101c       __imp_?set@QUType_ptr@@QAEXPAUQUObject@@PBX@Z 0041f01c     qt-mt323:qt-mt323.dll
 0002:00001020       __imp_?activate_signal@QObject@@IAEXHVQString@@@Z 0041f020     qt-mt323:qt-mt323.dll
 0002:00001024       __imp_?signalOffset@QMetaObject@@QBEHXZ 0041f024     qt-mt323:qt-mt323.dll
 0002:00001028       __imp_?set@QUType_bool@@QAEXPAUQUObject@@_N@Z 0041f028     qt-mt323:qt-mt323.dll
 0002:0000102c       __imp_?set@QUType_QString@@QAEXPAUQUObject@@ABVQString@@@Z 0041f02c     qt-mt323:qt-mt323.dll
 0002:00001030       __imp_?staticMetaObject@QObject@@SAPAVQMetaObject@@XZ 0041f030     qt-mt323:qt-mt323.dll
 0002:00001034       __imp_?qt_cast@QObject@@UAEPAXPBD@Z 0041f034     qt-mt323:qt-mt323.dll
 0002:00001038       __imp_?qt_invoke@QObject@@UAE_NHPAUQUObject@@@Z 0041f038     qt-mt323:qt-mt323.dll
 0002:0000103c       __imp_?qt_emit@QObject@@UAE_NHPAUQUObject@@@Z 0041f03c     qt-mt323:qt-mt323.dll
 0002:00001040       __imp_?qt_property@QObject@@UAE_NHHPAVQVariant@@@Z 0041f040     qt-mt323:qt-mt323.dll
 0002:00001044       __imp_?moveDockWindow@QMainWindow@@UAEXPAVQDockWindow@@W4Dock@Qt@@@Z 0041f044     qt-mt323:qt-mt323.dll
 0002:00001048       __imp_?removeDockWindow@QMainWindow@@UAEXPAVQDockWindow@@@Z 0041f048     qt-mt323:qt-mt323.dll
 0002:0000104c       __imp_?dockingArea@QMainWindow@@UAEPAVQDockArea@@ABVQPoint@@@Z 0041f04c     qt-mt323:qt-mt323.dll
 0002:00001050       __imp_?isCustomizable@QMainWindow@@UBE_NXZ 0041f050     qt-mt323:qt-mt323.dll
 0002:00001054       __imp_?setRightJustification@QMainWindow@@UAEX_N@Z 0041f054     qt-mt323:qt-mt323.dll
 0002:00001058       __imp_?setUsesBigPixmaps@QMainWindow@@UAEX_N@Z 0041f058     qt-mt323:qt-mt323.dll
 0002:0000105c       __imp_?setUsesTextLabel@QMainWindow@@UAEX_N@Z 0041f05c     qt-mt323:qt-mt323.dll
 0002:00001060       __imp_?setDockWindowsMovable@QMainWindow@@UAEX_N@Z 0041f060     qt-mt323:qt-mt323.dll
 0002:00001064       __imp_?setOpaqueMoving@QMainWindow@@UAEX_N@Z 0041f064     qt-mt323:qt-mt323.dll
 0002:00001068       __imp_?setDockMenuEnabled@QMainWindow@@UAEX_N@Z 0041f068     qt-mt323:qt-mt323.dll
 0002:0000106c       __imp_?whatsThis@QMainWindow@@UAEXXZ 0041f06c     qt-mt323:qt-mt323.dll
 0002:00001070       __imp_?setAppropriate@QMainWindow@@UAEXPAVQDockWindow@@_N@Z 0041f070     qt-mt323:qt-mt323.dll
 0002:00001074       __imp_?customize@QMainWindow@@UAEXXZ 0041f074     qt-mt323:qt-mt323.dll
 0002:00001078       __imp_?setUpLayout@QMainWindow@@MAEXXZ 0041f078     qt-mt323:qt-mt323.dll
 0002:0000107c       __imp_?showDockMenu@QMainWindow@@MAE_NABVQPoint@@@Z 0041f07c     qt-mt323:qt-mt323.dll
 0002:00001080       __imp_?setMenuBar@QMainWindow@@EAEXPAVQMenuBar@@@Z 0041f080     qt-mt323:qt-mt323.dll
 0002:00001084       __imp_?setStatusBar@QMainWindow@@EAEXPAVQStatusBar@@@Z 0041f084     qt-mt323:qt-mt323.dll
 0002:00001088       __imp_?setToolTipGroup@QMainWindow@@EAEXPAVQToolTipGroup@@@Z 0041f088     qt-mt323:qt-mt323.dll
 0002:0000108c       __imp_?metaObject@QPopupMenu@@UBEPAVQMetaObject@@XZ 0041f08c     qt-mt323:qt-mt323.dll
 0002:00001090       __imp_?className@QPopupMenu@@UBEPBDXZ 0041f090     qt-mt323:qt-mt323.dll
 0002:00001094       __imp_?qt_cast@QPopupMenu@@UAEPAXPBD@Z 0041f094     qt-mt323:qt-mt323.dll
 0002:00001098       __imp_?qt_invoke@QPopupMenu@@UAE_NHPAUQUObject@@@Z 0041f098     qt-mt323:qt-mt323.dll
 0002:0000109c       __imp_?qt_emit@QPopupMenu@@UAE_NHPAUQUObject@@@Z 0041f09c     qt-mt323:qt-mt323.dll
 0002:000010a0       __imp_?qt_property@QPopupMenu@@UAE_NHHPAVQVariant@@@Z 0041f0a0     qt-mt323:qt-mt323.dll
 0002:000010a4       __imp_?eventFilter@QObject@@UAE_NPAV1@PAVQEvent@@@Z 0041f0a4     qt-mt323:qt-mt323.dll
 0002:000010a8       __imp_?timerEvent@QPopupMenu@@MAEXPAVQTimerEvent@@@Z 0041f0a8     qt-mt323:qt-mt323.dll
 0002:000010ac       __imp_?setFont@QPopupMenu@@UAEXABVQFont@@@Z 0041f0ac     qt-mt323:qt-mt323.dll
 0002:000010b0       __imp_?show@QPopupMenu@@UAEXXZ 0041f0b0     qt-mt323:qt-mt323.dll
 0002:000010b4       __imp_?hide@QPopupMenu@@UAEXXZ 0041f0b4     qt-mt323:qt-mt323.dll
 0002:000010b8       __imp_?sizeHint@QPopupMenu@@UBE?AVQSize@@XZ 0041f0b8     qt-mt323:qt-mt323.dll
 0002:000010bc       __imp_?minimumSizeHint@QWidget@@UBE?AVQSize@@XZ 0041f0bc     qt-mt323:qt-mt323.dll
 0002:000010c0       __imp_?customWhatsThis@QPopupMenu@@UBE_NXZ 0041f0c0     qt-mt323:qt-mt323.dll
 0002:000010c4       __imp_?mousePressEvent@QPopupMenu@@MAEXPAVQMouseEvent@@@Z 0041f0c4     qt-mt323:qt-mt323.dll
 0002:000010c8       __imp_?mouseReleaseEvent@QPopupMenu@@MAEXPAVQMouseEvent@@@Z 0041f0c8     qt-mt323:qt-mt323.dll
 0002:000010cc       __imp_?mouseMoveEvent@QPopupMenu@@MAEXPAVQMouseEvent@@@Z 0041f0cc     qt-mt323:qt-mt323.dll
 0002:000010d0       __imp_?keyPressEvent@QPopupMenu@@MAEXPAVQKeyEvent@@@Z 0041f0d0     qt-mt323:qt-mt323.dll
 0002:000010d4       __imp_?focusInEvent@QPopupMenu@@MAEXPAVQFocusEvent@@@Z 0041f0d4     qt-mt323:qt-mt323.dll
 0002:000010d8       __imp_?focusOutEvent@QPopupMenu@@MAEXPAVQFocusEvent@@@Z 0041f0d8     qt-mt323:qt-mt323.dll
 0002:000010dc       __imp_?leaveEvent@QPopupMenu@@MAEXPAVQEvent@@@Z 0041f0dc     qt-mt323:qt-mt323.dll
 0002:000010e0       __imp_?paintEvent@QPopupMenu@@MAEXPAVQPaintEvent@@@Z 0041f0e0     qt-mt323:qt-mt323.dll
 0002:000010e4       __imp_?resizeEvent@QFrame@@MAEXPAVQResizeEvent@@@Z 0041f0e4     qt-mt323:qt-mt323.dll
 0002:000010e8       __imp_?closeEvent@QPopupMenu@@MAEXPAVQCloseEvent@@@Z 0041f0e8     qt-mt323:qt-mt323.dll
 0002:000010ec       __imp_?styleChange@QPopupMenu@@MAEXAAVQStyle@@@Z 0041f0ec     qt-mt323:qt-mt323.dll
 0002:000010f0       __imp_?enabledChange@QPopupMenu@@MAEX_N@Z 0041f0f0     qt-mt323:qt-mt323.dll
 0002:000010f4       __imp_?focusNextPrevChild@QPopupMenu@@MAE_N_N@Z 0041f0f4     qt-mt323:qt-mt323.dll
 0002:000010f8       __imp_?drawContents@QPopupMenu@@MAEXPAVQPainter@@@Z 0041f0f8     qt-mt323:qt-mt323.dll
 0002:000010fc       __imp_?frameChanged@QPopupMenu@@EAEXXZ 0041f0fc     qt-mt323:qt-mt323.dll
 0002:00001100       __imp_?setCheckable@QPopupMenu@@UAEX_N@Z 0041f100     qt-mt323:qt-mt323.dll
 0002:00001104       __imp_?setActiveItem@QPopupMenu@@UAEXH@Z 0041f104     qt-mt323:qt-mt323.dll
 0002:00001108       __imp_?setFirstItemActive@QPopupMenu@@EAEXXZ 0041f108     qt-mt323:qt-mt323.dll
 0002:0000110c       __imp_?updateItem@QPopupMenu@@UAEXH@Z 0041f10c     qt-mt323:qt-mt323.dll
 0002:00001110       __imp_?activateItemAt@QPopupMenu@@UAEXH@Z 0041f110     qt-mt323:qt-mt323.dll
 0002:00001114       __imp_?menuContentsChanged@QPopupMenu@@EAEXXZ 0041f114     qt-mt323:qt-mt323.dll
 0002:00001118       __imp_?menuStateChanged@QPopupMenu@@EAEXXZ 0041f118     qt-mt323:qt-mt323.dll
 0002:0000111c       __imp_?menuInsPopup@QPopupMenu@@EAEXPAV1@@Z 0041f11c     qt-mt323:qt-mt323.dll
 0002:00001120       __imp_?menuDelPopup@QPopupMenu@@EAEXPAV1@@Z 0041f120     qt-mt323:qt-mt323.dll
 0002:00001124       __imp_?resizeEvent@QWidget@@MAEXPAVQResizeEvent@@@Z 0041f124     qt-mt323:qt-mt323.dll
 0002:00001128       __imp_?styleChange@QMainWindow@@MAEXAAVQStyle@@@Z 0041f128     qt-mt323:qt-mt323.dll
 0002:0000112c       __imp_?fontChange@QWidget@@MAEXABVQFont@@@Z 0041f12c     qt-mt323:qt-mt323.dll
 0002:00001130       __imp_?setCentralWidget@QMainWindow@@UAEXPAVQWidget@@@Z 0041f130     qt-mt323:qt-mt323.dll
 0002:00001134       __imp_?setDockEnabled@QMainWindow@@UAEXPAVQDockWindow@@W4Dock@Qt@@_N@Z 0041f134     qt-mt323:qt-mt323.dll
 0002:00001138       __imp_?setDockEnabled@QMainWindow@@UAEXW4Dock@Qt@@_N@Z 0041f138     qt-mt323:qt-mt323.dll
 0002:0000113c       __imp_?addDockWindow@QMainWindow@@UAEXPAVQDockWindow@@ABVQString@@W4Dock@Qt@@_N@Z 0041f13c     qt-mt323:qt-mt323.dll
 0002:00001140       __imp_?contentsDragMoveEvent@QTextEdit@@MAEXPAVQDragMoveEvent@@@Z 0041f140     qt-mt323:qt-mt323.dll
 0002:00001144       __imp_?addDockWindow@QMainWindow@@UAEXPAVQDockWindow@@W4Dock@Qt@@_N@Z 0041f144     qt-mt323:qt-mt323.dll
 0002:00001148       __imp_?setBold@QTextEdit@@UAEX_N@Z 0041f148     qt-mt323:qt-mt323.dll
 0002:0000114c       __imp_?deleteData@QGArray@@MAEXPAUarray_data@1@@Z 0041f14c     qt-mt323:qt-mt323.dll
 0002:00001150       __imp_?newData@QGArray@@MAEPAUarray_data@1@XZ 0041f150     qt-mt323:qt-mt323.dll
 0002:00001154       __imp_??1QGArray@@MAE@XZ   0041f154     qt-mt323:qt-mt323.dll
 0002:00001158       __imp_?qWinMain@@YAXPAUHINSTANCE__@@0PADHAAHAAV?$QMemArray@PAD@@@Z 0041f158     qt-mt323:qt-mt323.dll
 0002:0000115c       __imp_??0QGArray@@IAE@H@Z  0041f15c     qt-mt323:qt-mt323.dll
 0002:00001160       __imp_?duplicate@QGArray@@IAEAAV1@ABV1@@Z 0041f160     qt-mt323:qt-mt323.dll
 0002:00001164       \177qt-mt323_NULL_THUNK_DATA 0041f164     qt-mt323:qt-mt323.dll
 0002:0000116c       ??_7CAcqStore@@6B@         0041f16c     AcqStore.obj
 0002:00001174       ??_SQPopupMenu@@6B@        0041f174     alarmcontrolmainwindow.obj
 0002:00001198       ??_SQPopupMenu@@6BQPaintDevice@@@ 0041f198     alarmcontrolmainwindow.obj
 0002:000011bc       ??_SQPopupMenu@@6BQObject@@@ 0041f1bc     alarmcontrolmainwindow.obj
 0002:0000139c       ??_SQMenuBar@@6B@          0041f39c     alarmcontrolmainwindow.obj
 0002:000013c0       ??_SQMenuBar@@6BQPaintDevice@@@ 0041f3c0     alarmcontrolmainwindow.obj
 0002:000013e4       ??_SQMenuBar@@6BQObject@@@ 0041f3e4     alarmcontrolmainwindow.obj
 0002:000015bc       ??_SQSemaphore@@6B@        0041f5bc     alarmcontrolmainwindow.obj
 0002:000015c4       ??_7AlarmControlMainWindow@@6BQPaintDevice@@@ 0041f5c4     alarmcontrolmainwindow.obj
 0002:000015e8       ??_7AlarmControlMainWindow@@6BQObject@@@ 0041f5e8     alarmcontrolmainwindow.obj
 0002:00001800       ??_7?$QValueVectorPrivate@H@@6B@ 0041f800     alarmcontrolmainwindow.obj
 0002:00001808       ??_SQTimer@@6B@            0041f808     alarmcontrolmainwindow.obj
 0002:0000185c       ??_7AlmConfig@@6BIAlarmEvent@@@ 0041f85c     alarmcontrolmainwindow.obj
 0002:00001864       ??_7AlmConfig@@6BIDebug@@@ 0041f864     alarmcontrolmainwindow.obj
 0002:0000187c       ??_7?$QValueListNode@VQString@@@@6B@ 0041f87c     alarmcontrolmainwindow.obj
 0002:00001884       ??_7?$QValueListPrivate@VQString@@@@6B@ 0041f884     alarmcontrolmainwindow.obj
 0002:0000188c       ??_7IAlarmEvent@@6B@       0041f88c     alarmcontrolmainwindow.obj
 0002:00001894       ??_7IDebug@@6B@            0041f894     alarmcontrolmainwindow.obj
 0002:000018a8       ??_7AcqConfig@@6BIAlarmEvent@@@ 0041f8a8     alarmcontrolmainwindow.obj
 0002:000018b0       ??_7AcqConfig@@6BIDebug@@@ 0041f8b0     alarmcontrolmainwindow.obj
 0002:000018c8       ??_7OutConfig@@6BIAlarmEvent@@@ 0041f8c8     alarmcontrolmainwindow.obj
 0002:000018d0       ??_7OutConfig@@6BIDebug@@@ 0041f8d0     alarmcontrolmainwindow.obj
 0002:000018e8       ??_7LoadDirectory@AlarmControlMainWindow@@6B@ 0041f8e8     alarmcontrolmainwindow.obj
 0002:00001904       ??_SQLibrary@@6B@          0041f904     alarmcontrolmainwindow.obj
 0002:00001910       ??_7LoadDirectoryInputs@AlarmControlMainWindow@@6B@ 0041f910     alarmcontrolmainwindow.obj
 0002:0000192c       ??_7?$QDict@VAcqConfig@@@@6B@ 0041f92c     alarmcontrolmainwindow.obj
 0002:0000194c       ??_7LoadDirectoryOutputs@AlarmControlMainWindow@@6B@ 0041f94c     alarmcontrolmainwindow.obj
 0002:00001968       ??_7?$QDict@VOutConfig@@@@6B@ 0041f968     alarmcontrolmainwindow.obj
 0002:00001988       ??_7diagnostics@@6BQPaintDevice@@@ 0041f988     diagnosticsimpl.obj
 0002:000019ac       ??_7diagnostics@@6BQObject@@@ 0041f9ac     diagnosticsimpl.obj
 0002:00001b70       ??_7?$QPtrList@VQListViewItem@@@@6B@ 0041fb70     diagnosticsimpl.obj
 0002:00001b94       ??_7?$QPtrList@VDiagnosticsListViewItem@@@@6B@ 0041fb94     diagnosticsimpl.obj
 0002:00001bb8       ??_7?$QPtrStack@UFilterStackItem@diagnostics@@@@6B@ 0041fbb8     diagnosticsimpl.obj
 0002:00001bdc       ??_7DiagnosticsListViewItem@@6B@ 0041fbdc     diagnosticsimpl.obj
 0002:00001c78       ??_SQListViewItem@@6B@     0041fc78     diagnosticsimpl.obj
 0002:00001d14       ??_7Logger@@6B@            0041fd14     except.obj
 0002:00001d1c       ??_7ModuleListViewItem@@6B@ 0041fd1c     ModuleListViewItem.obj
 0002:00001db8       ??_SQSocketNotifier@@6B@   0041fdb8     UDP_socket.obj
 0002:00001e10       ??_SQSocketDevice@@6B@     0041fe10     UDP_socket.obj
 0002:00001e7c       ??_7UDP_socket@@6B@        0041fe7c     UDP_socket.obj
 0002:00001ed0       ??_SQTextEdit@@6BQPaintDevice@@@ 0041fed0     alarmcontrolmainwindowbase.obj
 0002:00001ef4       ??_SQTextEdit@@6BQObject@@@ 0041fef4     alarmcontrolmainwindowbase.obj
 0002:00002270       ??_SQListView@@6BQPaintDevice@@@ 00420270     alarmcontrolmainwindowbase.obj
 0002:00002294       ??_SQListView@@6BQObject@@@ 00420294     alarmcontrolmainwindowbase.obj
 0002:00002578       ??_SQSplitter@@6BQPaintDevice@@@ 00420578     alarmcontrolmainwindowbase.obj
 0002:0000259c       ??_SQSplitter@@6BQObject@@@ 0042059c     alarmcontrolmainwindowbase.obj
 0002:00002784       ??_SQButtonGroup@@6BQPaintDevice@@@ 00420784     alarmcontrolmainwindowbase.obj
 0002:000027a8       ??_SQButtonGroup@@6BQObject@@@ 004207a8     alarmcontrolmainwindowbase.obj
 0002:00002998       ??_SQPushButton@@6BQObject@@@ 00420998     alarmcontrolmainwindowbase.obj
 0002:00002b88       ??_SQPushButton@@6BQPaintDevice@@@ 00420b88     alarmcontrolmainwindowbase.obj
 0002:00002bac       ??_SQSpacerItem@@6B@       00420bac     alarmcontrolmainwindowbase.obj
 0002:00002bf0       ??_SQLabel@@6BQPaintDevice@@@ 00420bf0     alarmcontrolmainwindowbase.obj
 0002:00002c14       ??_SQLabel@@6BQObject@@@   00420c14     alarmcontrolmainwindowbase.obj
 0002:00002e0c       ??_SQHBoxLayout@@6BQLayoutItem@@@ 00420e0c     alarmcontrolmainwindowbase.obj
 0002:00002e50       ??_SQHBoxLayout@@6BQObject@@@ 00420e50     alarmcontrolmainwindowbase.obj
 0002:00002eb8       ??_SQVBoxLayout@@6BQLayoutItem@@@ 00420eb8     alarmcontrolmainwindowbase.obj
 0002:00002efc       ??_SQVBoxLayout@@6BQObject@@@ 00420efc     alarmcontrolmainwindowbase.obj
 0002:00002f64       ??_SQWidget@@6BQPaintDevice@@@ 00420f64     alarmcontrolmainwindowbase.obj
 0002:00002f88       ??_SQWidget@@6BQObject@@@  00420f88     alarmcontrolmainwindowbase.obj
 0002:0000313c       ??_7AlarmControlMainWindowBase@@6BQPaintDevice@@@ 0042113c     alarmcontrolmainwindowbase.obj
 0002:00003160       ??_7AlarmControlMainWindowBase@@6BQObject@@@ 00421160     alarmcontrolmainwindowbase.obj
 0002:00003378       ??_SQLineEdit@@6BQPaintDevice@@@ 00421378     diagnostics.obj
 0002:0000339c       ??_SQLineEdit@@6BQObject@@@ 0042139c     diagnostics.obj
 0002:000035c4       ??_SQGridLayout@@6BQLayoutItem@@@ 004215c4     diagnostics.obj
 0002:00003608       ??_SQGridLayout@@6BQObject@@@ 00421608     diagnostics.obj
 0002:00003678       ??_7diagnosticsBase@@6BQPaintDevice@@@ 00421678     diagnostics.obj
 0002:0000369c       ??_7diagnosticsBase@@6BQObject@@@ 0042169c     diagnostics.obj
 0002:00003ef8       ??_7cBncsVersion@@6B@      00421ef8     bncsversioninfo:cBncsVersion.obj
 0002:00003f00       ??_7type_info@@6B@         00421f00     MSVCRT:ti_inst.obj
 0002:00003f44       ??_7?$QMemArray@PAD@@6B@   00421f44     qtmain:qtmain_win.obj
 0002:00003f58       ??_R1A@?0A@A@CAcqStore@@8  00421f58     AcqStore.obj
 0002:00003f70       ??_R2CAcqStore@@8          00421f70     AcqStore.obj
 0002:00003f78       ??_R3CAcqStore@@8          00421f78     AcqStore.obj
 0002:00003f88       ??_R4CAcqStore@@6B@        00421f88     AcqStore.obj
 0002:00003fa0       ??_R13?0A@A@QShared@@8     00421fa0     alarmcontrolmainwindow.obj
 0002:00003fb8       ??_R1A@?0A@A@?$QValueVectorPrivate@H@@8 00421fb8     alarmcontrolmainwindow.obj
 0002:00003fd0       ??_R2?$QValueVectorPrivate@H@@8 00421fd0     alarmcontrolmainwindow.obj
 0002:00003fe0       ??_R3?$QValueVectorPrivate@H@@8 00421fe0     alarmcontrolmainwindow.obj
 0002:00003ff0       ??_R4?$QValueVectorPrivate@H@@6B@ 00421ff0     alarmcontrolmainwindow.obj
 0002:00004008       ??_R4QPopupMenu@@6B@       00422008     alarmcontrolmainwindow.obj
 0002:00004020       ??_R4QPopupMenu@@6BQPaintDevice@@@ 00422020     alarmcontrolmainwindow.obj
 0002:00004038       ??_R1A@?0A@A@QPopupMenu@@8 00422038     alarmcontrolmainwindow.obj
 0002:00004050       ??_R2QPopupMenu@@8         00422050     alarmcontrolmainwindow.obj
 0002:00004070       ??_R3QPopupMenu@@8         00422070     alarmcontrolmainwindow.obj
 0002:00004080       ??_R4QPopupMenu@@6BQObject@@@ 00422080     alarmcontrolmainwindow.obj
 0002:00004098       ??_R4AlarmControlMainWindow@@6BQPaintDevice@@@ 00422098     alarmcontrolmainwindow.obj
 0002:000040b0       ??_R1A@?0A@A@QMainWindow@@8 004220b0     alarmcontrolmainwindow.obj
 0002:000040c8       ??_R1A@?0A@A@AlarmControlMainWindowBase@@8 004220c8     alarmcontrolmainwindow.obj
 0002:000040e0       ??_R1A@?0A@A@AlarmControlMainWindow@@8 004220e0     alarmcontrolmainwindow.obj
 0002:000040f8       ??_R2AlarmControlMainWindow@@8 004220f8     alarmcontrolmainwindow.obj
 0002:00004118       ??_R3AlarmControlMainWindow@@8 00422118     alarmcontrolmainwindow.obj
 0002:00004128       ??_R4AlarmControlMainWindow@@6BQObject@@@ 00422128     alarmcontrolmainwindow.obj
 0002:00004140       ??_R4QMenuBar@@6B@         00422140     alarmcontrolmainwindow.obj
 0002:00004158       ??_R4QMenuBar@@6BQPaintDevice@@@ 00422158     alarmcontrolmainwindow.obj
 0002:00004170       ??_R1IM@?0A@A@QMenuData@@8 00422170     alarmcontrolmainwindow.obj
 0002:00004188       ??_R1CI@?0A@A@QPaintDevice@@8 00422188     alarmcontrolmainwindow.obj
 0002:000041a0       ??_R13?0A@A@Qt@@8          004221a0     alarmcontrolmainwindow.obj
 0002:000041b8       ??_R1A@?0A@A@QObject@@8    004221b8     alarmcontrolmainwindow.obj
 0002:000041d0       ??_R1A@?0A@A@QWidget@@8    004221d0     alarmcontrolmainwindow.obj
 0002:000041e8       ??_R1A@?0A@A@QFrame@@8     004221e8     alarmcontrolmainwindow.obj
 0002:00004200       ??_R1A@?0A@A@QMenuBar@@8   00422200     alarmcontrolmainwindow.obj
 0002:00004218       ??_R2QMenuBar@@8           00422218     alarmcontrolmainwindow.obj
 0002:00004238       ??_R3QMenuBar@@8           00422238     alarmcontrolmainwindow.obj
 0002:00004248       ??_R4QMenuBar@@6BQObject@@@ 00422248     alarmcontrolmainwindow.obj
 0002:00004260       ??_R1A@?0A@A@QSemaphore@@8 00422260     alarmcontrolmainwindow.obj
 0002:00004278       ??_R2QSemaphore@@8         00422278     alarmcontrolmainwindow.obj
 0002:00004280       ??_R3QSemaphore@@8         00422280     alarmcontrolmainwindow.obj
 0002:00004290       ??_R4QSemaphore@@6B@       00422290     alarmcontrolmainwindow.obj
 0002:000042a8       ??_R1A@?0A@A@QTimer@@8     004222a8     alarmcontrolmainwindow.obj
 0002:000042c0       ??_R2QTimer@@8             004222c0     alarmcontrolmainwindow.obj
 0002:000042d0       ??_R3QTimer@@8             004222d0     alarmcontrolmainwindow.obj
 0002:000042e0       ??_R4QTimer@@6B@           004222e0     alarmcontrolmainwindow.obj
 0002:000042f8       ??_R1A@?0A@A@IAlarmEvent@@8 004222f8     alarmcontrolmainwindow.obj
 0002:00004310       ??_R2IAlarmEvent@@8        00422310     alarmcontrolmainwindow.obj
 0002:00004318       ??_R3IAlarmEvent@@8        00422318     alarmcontrolmainwindow.obj
 0002:00004328       ??_R4IAlarmEvent@@6B@      00422328     alarmcontrolmainwindow.obj
 0002:0000433c       ??_R2IDebug@@8             0042233c     alarmcontrolmainwindow.obj
 0002:00004348       ??_R3IDebug@@8             00422348     alarmcontrolmainwindow.obj
 0002:00004358       ??_R4IDebug@@6B@           00422358     alarmcontrolmainwindow.obj
 0002:00004370       ??_R1A@?0A@A@?$QValueListPrivate@VQString@@@@8 00422370     alarmcontrolmainwindow.obj
 0002:00004388       ??_R2?$QValueListPrivate@VQString@@@@8 00422388     alarmcontrolmainwindow.obj
 0002:00004398       ??_R3?$QValueListPrivate@VQString@@@@8 00422398     alarmcontrolmainwindow.obj
 0002:000043a8       ??_R4?$QValueListPrivate@VQString@@@@6B@ 004223a8     alarmcontrolmainwindow.obj
 0002:000043c0       ??_R4AlmConfig@@6BIAlarmEvent@@@ 004223c0     alarmcontrolmainwindow.obj
 0002:000043d8       ??_R13?0A@A@IAlarmEvent@@8 004223d8     alarmcontrolmainwindow.obj
 0002:000043f0       ??_R1A@?0A@A@IDebug@@8     004223f0     alarmcontrolmainwindow.obj
 0002:00004408       ??_R1A@?0A@A@AlmConfig@@8  00422408     alarmcontrolmainwindow.obj
 0002:00004420       ??_R2AlmConfig@@8          00422420     alarmcontrolmainwindow.obj
 0002:00004430       ??_R3AlmConfig@@8          00422430     alarmcontrolmainwindow.obj
 0002:00004440       ??_R4AlmConfig@@6BIDebug@@@ 00422440     alarmcontrolmainwindow.obj
 0002:00004458       ??_R1A@?0A@A@?$QValueListNode@VQString@@@@8 00422458     alarmcontrolmainwindow.obj
 0002:00004470       ??_R2?$QValueListNode@VQString@@@@8 00422470     alarmcontrolmainwindow.obj
 0002:00004478       ??_R3?$QValueListNode@VQString@@@@8 00422478     alarmcontrolmainwindow.obj
 0002:00004488       ??_R4?$QValueListNode@VQString@@@@6B@ 00422488     alarmcontrolmainwindow.obj
 0002:000044a0       ??_R4AcqConfig@@6BIAlarmEvent@@@ 004224a0     alarmcontrolmainwindow.obj
 0002:000044b8       ??_R1A@?0A@A@AcqConfig@@8  004224b8     alarmcontrolmainwindow.obj
 0002:000044d0       ??_R2AcqConfig@@8          004224d0     alarmcontrolmainwindow.obj
 0002:000044e8       ??_R3AcqConfig@@8          004224e8     alarmcontrolmainwindow.obj
 0002:000044f8       ??_R4AcqConfig@@6BIDebug@@@ 004224f8     alarmcontrolmainwindow.obj
 0002:00004510       ??_R4OutConfig@@6BIAlarmEvent@@@ 00422510     alarmcontrolmainwindow.obj
 0002:00004528       ??_R1A@?0A@A@OutConfig@@8  00422528     alarmcontrolmainwindow.obj
 0002:00004540       ??_R2OutConfig@@8          00422540     alarmcontrolmainwindow.obj
 0002:00004558       ??_R3OutConfig@@8          00422558     alarmcontrolmainwindow.obj
 0002:00004568       ??_R4OutConfig@@6BIDebug@@@ 00422568     alarmcontrolmainwindow.obj
 0002:00004580       ??_R1A@?0A@A@LoadDirectory@AlarmControlMainWindow@@8 00422580     alarmcontrolmainwindow.obj
 0002:00004598       ??_R2LoadDirectory@AlarmControlMainWindow@@8 00422598     alarmcontrolmainwindow.obj
 0002:000045a0       ??_R3LoadDirectory@AlarmControlMainWindow@@8 004225a0     alarmcontrolmainwindow.obj
 0002:000045b0       ??_R4LoadDirectory@AlarmControlMainWindow@@6B@ 004225b0     alarmcontrolmainwindow.obj
 0002:000045c8       ??_R1A@?0A@A@QLibrary@@8   004225c8     alarmcontrolmainwindow.obj
 0002:000045e0       ??_R2QLibrary@@8           004225e0     alarmcontrolmainwindow.obj
 0002:000045e8       ??_R3QLibrary@@8           004225e8     alarmcontrolmainwindow.obj
 0002:000045f8       ??_R4QLibrary@@6B@         004225f8     alarmcontrolmainwindow.obj
 0002:00004610       ??_R1A@?0A@A@QPtrCollection@@8 00422610     alarmcontrolmainwindow.obj
 0002:00004628       ??_R1A@?0A@A@QGDict@@8     00422628     alarmcontrolmainwindow.obj
 0002:00004640       ??_R1A@?0A@A@?$QDict@VAcqConfig@@@@8 00422640     alarmcontrolmainwindow.obj
 0002:00004658       ??_R2?$QDict@VAcqConfig@@@@8 00422658     alarmcontrolmainwindow.obj
 0002:00004668       ??_R3?$QDict@VAcqConfig@@@@8 00422668     alarmcontrolmainwindow.obj
 0002:00004678       ??_R4?$QDict@VAcqConfig@@@@6B@ 00422678     alarmcontrolmainwindow.obj
 0002:00004690       ??_R1A@?0A@A@LoadDirectoryInputs@AlarmControlMainWindow@@8 00422690     alarmcontrolmainwindow.obj
 0002:000046a8       ??_R2LoadDirectoryInputs@AlarmControlMainWindow@@8 004226a8     alarmcontrolmainwindow.obj
 0002:000046b8       ??_R3LoadDirectoryInputs@AlarmControlMainWindow@@8 004226b8     alarmcontrolmainwindow.obj
 0002:000046c8       ??_R4LoadDirectoryInputs@AlarmControlMainWindow@@6B@ 004226c8     alarmcontrolmainwindow.obj
 0002:000046e0       ??_R1A@?0A@A@?$QDict@VOutConfig@@@@8 004226e0     alarmcontrolmainwindow.obj
 0002:000046f8       ??_R2?$QDict@VOutConfig@@@@8 004226f8     alarmcontrolmainwindow.obj
 0002:00004708       ??_R3?$QDict@VOutConfig@@@@8 00422708     alarmcontrolmainwindow.obj
 0002:00004718       ??_R4?$QDict@VOutConfig@@@@6B@ 00422718     alarmcontrolmainwindow.obj
 0002:00004730       ??_R1A@?0A@A@LoadDirectoryOutputs@AlarmControlMainWindow@@8 00422730     alarmcontrolmainwindow.obj
 0002:00004748       ??_R2LoadDirectoryOutputs@AlarmControlMainWindow@@8 00422748     alarmcontrolmainwindow.obj
 0002:00004758       ??_R3LoadDirectoryOutputs@AlarmControlMainWindow@@8 00422758     alarmcontrolmainwindow.obj
 0002:00004768       ??_R4LoadDirectoryOutputs@AlarmControlMainWindow@@6B@ 00422768     alarmcontrolmainwindow.obj
 0002:00004780       ??_R1A@?0A@A@?$QPtrList@VDiagnosticsListViewItem@@@@8 00422780     diagnosticsimpl.obj
 0002:00004798       ??_R2?$QPtrList@VDiagnosticsListViewItem@@@@8 00422798     diagnosticsimpl.obj
 0002:000047a8       ??_R3?$QPtrList@VDiagnosticsListViewItem@@@@8 004227a8     diagnosticsimpl.obj
 0002:000047b8       ??_R4?$QPtrList@VDiagnosticsListViewItem@@@@6B@ 004227b8     diagnosticsimpl.obj
 0002:000047d0       ??_R1A@?0A@A@QGList@@8     004227d0     diagnosticsimpl.obj
 0002:000047e8       ??_R1A@?0A@A@?$QPtrList@VQListViewItem@@@@8 004227e8     diagnosticsimpl.obj
 0002:00004800       ??_R2?$QPtrList@VQListViewItem@@@@8 00422800     diagnosticsimpl.obj
 0002:00004810       ??_R3?$QPtrList@VQListViewItem@@@@8 00422810     diagnosticsimpl.obj
 0002:00004820       ??_R4?$QPtrList@VQListViewItem@@@@6B@ 00422820     diagnosticsimpl.obj
 0002:00004838       ??_R4diagnostics@@6BQPaintDevice@@@ 00422838     diagnosticsimpl.obj
 0002:00004850       ??_R1A@?0A@A@QDialog@@8    00422850     diagnosticsimpl.obj
 0002:00004868       ??_R1A@?0A@A@diagnosticsBase@@8 00422868     diagnosticsimpl.obj
 0002:00004880       ??_R1A@?0A@A@diagnostics@@8 00422880     diagnosticsimpl.obj
 0002:00004898       ??_R2diagnostics@@8        00422898     diagnosticsimpl.obj
 0002:000048b8       ??_R3diagnostics@@8        004228b8     diagnosticsimpl.obj
 0002:000048c8       ??_R4diagnostics@@6BQObject@@@ 004228c8     diagnosticsimpl.obj
 0002:000048e0       ??_R1A@?0A@8QPtrCollection@@8 004228e0     diagnosticsimpl.obj
 0002:000048f8       ??_R1A@?0A@8QGList@@8      004228f8     diagnosticsimpl.obj
 0002:00004910       ??_R1A@?0A@A@?$QPtrStack@UFilterStackItem@diagnostics@@@@8 00422910     diagnosticsimpl.obj
 0002:00004928       ??_R2?$QPtrStack@UFilterStackItem@diagnostics@@@@8 00422928     diagnosticsimpl.obj
 0002:00004938       ??_R3?$QPtrStack@UFilterStackItem@diagnostics@@@@8 00422938     diagnosticsimpl.obj
 0002:00004948       ??_R4?$QPtrStack@UFilterStackItem@diagnostics@@@@6B@ 00422948     diagnosticsimpl.obj
 0002:00004960       ??_R1A@?0A@A@QListViewItem@@8 00422960     diagnosticsimpl.obj
 0002:00004978       ??_R1A@?0A@A@DiagnosticsListViewItem@@8 00422978     diagnosticsimpl.obj
 0002:00004990       ??_R2DiagnosticsListViewItem@@8 00422990     diagnosticsimpl.obj
 0002:000049a0       ??_R3DiagnosticsListViewItem@@8 004229a0     diagnosticsimpl.obj
 0002:000049b0       ??_R4DiagnosticsListViewItem@@6B@ 004229b0     diagnosticsimpl.obj
 0002:000049c8       ??_R2QListViewItem@@8      004229c8     diagnosticsimpl.obj
 0002:000049d8       ??_R3QListViewItem@@8      004229d8     diagnosticsimpl.obj
 0002:000049e8       ??_R4QListViewItem@@6B@    004229e8     diagnosticsimpl.obj
 0002:00004a00       ??_R1A@?0A@A@Logger@@8     00422a00     except.obj
 0002:00004a18       ??_R2Logger@@8             00422a18     except.obj
 0002:00004a20       ??_R3Logger@@8             00422a20     except.obj
 0002:00004a30       ??_R4Logger@@6B@           00422a30     except.obj
 0002:00004a48       ??_R13?0A@8Qt@@8           00422a48     ModuleListViewItem.obj
 0002:00004a60       ??_R1A@?0A@8QListViewItem@@8 00422a60     ModuleListViewItem.obj
 0002:00004a78       ??_R1A@?0A@A@ModuleListViewItem@@8 00422a78     ModuleListViewItem.obj
 0002:00004a90       ??_R2ModuleListViewItem@@8 00422a90     ModuleListViewItem.obj
 0002:00004aa0       ??_R3ModuleListViewItem@@8 00422aa0     ModuleListViewItem.obj
 0002:00004ab0       ??_R4ModuleListViewItem@@6B@ 00422ab0     ModuleListViewItem.obj
 0002:00004ac8       ??_R1A@?0A@A@QSocketNotifier@@8 00422ac8     UDP_socket.obj
 0002:00004ae0       ??_R2QSocketNotifier@@8    00422ae0     UDP_socket.obj
 0002:00004af0       ??_R3QSocketNotifier@@8    00422af0     UDP_socket.obj
 0002:00004b00       ??_R4QSocketNotifier@@6B@  00422b00     UDP_socket.obj
 0002:00004b18       ??_R1A@?0A@A@UDP_socket@@8 00422b18     UDP_socket.obj
 0002:00004b30       ??_R2UDP_socket@@8         00422b30     UDP_socket.obj
 0002:00004b40       ??_R3UDP_socket@@8         00422b40     UDP_socket.obj
 0002:00004b50       ??_R4UDP_socket@@6B@       00422b50     UDP_socket.obj
 0002:00004b68       ??_R1A@?0A@A@QIODevice@@8  00422b68     UDP_socket.obj
 0002:00004b80       ??_R1A@?0A@A@QSocketDevice@@8 00422b80     UDP_socket.obj
 0002:00004b98       ??_R2QSocketDevice@@8      00422b98     UDP_socket.obj
 0002:00004ba8       ??_R3QSocketDevice@@8      00422ba8     UDP_socket.obj
 0002:00004bb8       ??_R4QSocketDevice@@6B@    00422bb8     UDP_socket.obj
 0002:00004bd0       ??_R4AlarmControlMainWindowBase@@6BQPaintDevice@@@ 00422bd0     alarmcontrolmainwindowbase.obj
 0002:00004be8       ??_R2AlarmControlMainWindowBase@@8 00422be8     alarmcontrolmainwindowbase.obj
 0002:00004c08       ??_R3AlarmControlMainWindowBase@@8 00422c08     alarmcontrolmainwindowbase.obj
 0002:00004c18       ??_R4AlarmControlMainWindowBase@@6BQObject@@@ 00422c18     alarmcontrolmainwindowbase.obj
 0002:00004c30       ??_R4QTextEdit@@6BQPaintDevice@@@ 00422c30     alarmcontrolmainwindowbase.obj
 0002:00004c48       ??_R1A@?0A@A@QTextEdit@@8  00422c48     alarmcontrolmainwindowbase.obj
 0002:00004c60       ??_R2QTextEdit@@8          00422c60     alarmcontrolmainwindowbase.obj
 0002:00004c80       ??_R3QTextEdit@@8          00422c80     alarmcontrolmainwindowbase.obj
 0002:00004c90       ??_R4QTextEdit@@6BQObject@@@ 00422c90     alarmcontrolmainwindowbase.obj
 0002:00004ca8       ??_R4QListView@@6BQPaintDevice@@@ 00422ca8     alarmcontrolmainwindowbase.obj
 0002:00004cc0       ??_R1A@?0A@A@QScrollView@@8 00422cc0     alarmcontrolmainwindowbase.obj
 0002:00004cd8       ??_R1A@?0A@A@QListView@@8  00422cd8     alarmcontrolmainwindowbase.obj
 0002:00004cf0       ??_R2QListView@@8          00422cf0     alarmcontrolmainwindowbase.obj
 0002:00004d10       ??_R3QListView@@8          00422d10     alarmcontrolmainwindowbase.obj
 0002:00004d20       ??_R4QListView@@6BQObject@@@ 00422d20     alarmcontrolmainwindowbase.obj
 0002:00004d38       ??_R4QSplitter@@6BQPaintDevice@@@ 00422d38     alarmcontrolmainwindowbase.obj
 0002:00004d50       ??_R1A@?0A@A@QSplitter@@8  00422d50     alarmcontrolmainwindowbase.obj
 0002:00004d68       ??_R2QSplitter@@8          00422d68     alarmcontrolmainwindowbase.obj
 0002:00004d88       ??_R3QSplitter@@8          00422d88     alarmcontrolmainwindowbase.obj
 0002:00004d98       ??_R4QSplitter@@6BQObject@@@ 00422d98     alarmcontrolmainwindowbase.obj
 0002:00004db0       ??_R4QButtonGroup@@6BQPaintDevice@@@ 00422db0     alarmcontrolmainwindowbase.obj
 0002:00004dc8       ??_R1A@?0A@A@QGroupBox@@8  00422dc8     alarmcontrolmainwindowbase.obj
 0002:00004de0       ??_R1A@?0A@A@QButtonGroup@@8 00422de0     alarmcontrolmainwindowbase.obj
 0002:00004df8       ??_R2QButtonGroup@@8       00422df8     alarmcontrolmainwindowbase.obj
 0002:00004e18       ??_R3QButtonGroup@@8       00422e18     alarmcontrolmainwindowbase.obj
 0002:00004e28       ??_R4QButtonGroup@@6BQObject@@@ 00422e28     alarmcontrolmainwindowbase.obj
 0002:00004e40       ??_R4QPushButton@@6BQPaintDevice@@@ 00422e40     alarmcontrolmainwindowbase.obj
 0002:00004e58       ??_R1A@?0A@A@QButton@@8    00422e58     alarmcontrolmainwindowbase.obj
 0002:00004e70       ??_R1A@?0A@A@QPushButton@@8 00422e70     alarmcontrolmainwindowbase.obj
 0002:00004e88       ??_R2QPushButton@@8        00422e88     alarmcontrolmainwindowbase.obj
 0002:00004ea8       ??_R3QPushButton@@8        00422ea8     alarmcontrolmainwindowbase.obj
 0002:00004eb8       ??_R4QPushButton@@6BQObject@@@ 00422eb8     alarmcontrolmainwindowbase.obj
 0002:00004ed0       ??_R4QLabel@@6BQPaintDevice@@@ 00422ed0     alarmcontrolmainwindowbase.obj
 0002:00004ee8       ??_R1A@?0A@A@QLabel@@8     00422ee8     alarmcontrolmainwindowbase.obj
 0002:00004f00       ??_R2QLabel@@8             00422f00     alarmcontrolmainwindowbase.obj
 0002:00004f20       ??_R3QLabel@@8             00422f20     alarmcontrolmainwindowbase.obj
 0002:00004f30       ??_R4QLabel@@6BQObject@@@  00422f30     alarmcontrolmainwindowbase.obj
 0002:00004f48       ??_R4QVBoxLayout@@6BQLayoutItem@@@ 00422f48     alarmcontrolmainwindowbase.obj
 0002:00004f60       ??_R1A@?0A@A@QVBoxLayout@@8 00422f60     alarmcontrolmainwindowbase.obj
 0002:00004f78       ??_R2QVBoxLayout@@8        00422f78     alarmcontrolmainwindowbase.obj
 0002:00004f98       ??_R3QVBoxLayout@@8        00422f98     alarmcontrolmainwindowbase.obj
 0002:00004fa8       ??_R4QVBoxLayout@@6BQObject@@@ 00422fa8     alarmcontrolmainwindowbase.obj
 0002:00004fc0       ??_R4QHBoxLayout@@6BQLayoutItem@@@ 00422fc0     alarmcontrolmainwindowbase.obj
 0002:00004fd8       ??_R1CI@?0A@A@QLayoutItem@@8 00422fd8     alarmcontrolmainwindowbase.obj
 0002:00004ff0       ??_R1A@?0A@A@QLayout@@8    00422ff0     alarmcontrolmainwindowbase.obj
 0002:00005008       ??_R1A@?0A@A@QBoxLayout@@8 00423008     alarmcontrolmainwindowbase.obj
 0002:00005020       ??_R1A@?0A@A@QHBoxLayout@@8 00423020     alarmcontrolmainwindowbase.obj
 0002:00005038       ??_R2QHBoxLayout@@8        00423038     alarmcontrolmainwindowbase.obj
 0002:00005058       ??_R3QHBoxLayout@@8        00423058     alarmcontrolmainwindowbase.obj
 0002:00005068       ??_R4QHBoxLayout@@6BQObject@@@ 00423068     alarmcontrolmainwindowbase.obj
 0002:00005080       ??_R1A@?0A@A@QLayoutItem@@8 00423080     alarmcontrolmainwindowbase.obj
 0002:00005098       ??_R1A@?0A@A@QSpacerItem@@8 00423098     alarmcontrolmainwindowbase.obj
 0002:000050b0       ??_R2QSpacerItem@@8        004230b0     alarmcontrolmainwindowbase.obj
 0002:000050c0       ??_R3QSpacerItem@@8        004230c0     alarmcontrolmainwindowbase.obj
 0002:000050d0       ??_R4QSpacerItem@@6B@      004230d0     alarmcontrolmainwindowbase.obj
 0002:000050e8       ??_R4QWidget@@6BQPaintDevice@@@ 004230e8     alarmcontrolmainwindowbase.obj
 0002:00005100       ??_R2QWidget@@8            00423100     alarmcontrolmainwindowbase.obj
 0002:00005118       ??_R3QWidget@@8            00423118     alarmcontrolmainwindowbase.obj
 0002:00005128       ??_R4QWidget@@6BQObject@@@ 00423128     alarmcontrolmainwindowbase.obj
 0002:00005140       ??_R4diagnosticsBase@@6BQPaintDevice@@@ 00423140     diagnostics.obj
 0002:00005158       ??_R2diagnosticsBase@@8    00423158     diagnostics.obj
 0002:00005178       ??_R3diagnosticsBase@@8    00423178     diagnostics.obj
 0002:00005188       ??_R4diagnosticsBase@@6BQObject@@@ 00423188     diagnostics.obj
 0002:000051a0       ??_R4QLineEdit@@6BQPaintDevice@@@ 004231a0     diagnostics.obj
 0002:000051b8       ??_R1A@?0A@A@QLineEdit@@8  004231b8     diagnostics.obj
 0002:000051d0       ??_R2QLineEdit@@8          004231d0     diagnostics.obj
 0002:000051f0       ??_R3QLineEdit@@8          004231f0     diagnostics.obj
 0002:00005200       ??_R4QLineEdit@@6BQObject@@@ 00423200     diagnostics.obj
 0002:00005218       ??_R4QGridLayout@@6BQLayoutItem@@@ 00423218     diagnostics.obj
 0002:00005230       ??_R1A@?0A@A@QGridLayout@@8 00423230     diagnostics.obj
 0002:00005248       ??_R2QGridLayout@@8        00423248     diagnostics.obj
 0002:00005260       ??_R3QGridLayout@@8        00423260     diagnostics.obj
 0002:00005270       ??_R4QGridLayout@@6BQObject@@@ 00423270     diagnostics.obj
 0002:00005288       ??_R1A@?0A@A@type_info@@8  00423288     MSVCRT:ti_inst.obj
 0002:000052a0       ??_R2type_info@@8          004232a0     MSVCRT:ti_inst.obj
 0002:000052a8       ??_R3type_info@@8          004232a8     MSVCRT:ti_inst.obj
 0002:000052b8       ??_R4type_info@@6B@        004232b8     MSVCRT:ti_inst.obj
 0002:00007270       __CT??_R0?AVstructured_exception@@@88 00425270     except.obj
 0002:00007290       __CTA1?AVstructured_exception@@ 00425290     except.obj
 0002:00007298       __TI1?AVstructured_exception@@ 00425298     except.obj
 0002:00007d98       __IMPORT_DESCRIPTOR_USER32 00425d98     user32:USER32.dll
 0002:00007dac       __IMPORT_DESCRIPTOR_WSOCK32 00425dac     wsock32:WSOCK32.dll
 0002:00007dc0       __IMPORT_DESCRIPTOR_Calarm_Process 00425dc0     Calarm_Process:Calarm_Process.dll
 0002:00007dd4       __IMPORT_DESCRIPTOR_qt-mt323 00425dd4     qt-mt323:qt-mt323.dll
 0002:00007de8       __IMPORT_DESCRIPTOR_MSVCRT 00425de8     MSVCRT:MSVCRT.dll
 0002:00007dfc       __IMPORT_DESCRIPTOR_MSVCP60 00425dfc     msvcprt:MSVCP60.dll
 0002:00007e10       __IMPORT_DESCRIPTOR_KERNEL32 00425e10     kernel32:KERNEL32.dll
 0002:00007e24       __IMPORT_DESCRIPTOR_VERSION 00425e24     version:VERSION.dll
 0002:00007e38       __NULL_IMPORT_DESCRIPTOR   00425e38     user32:USER32.dll
 0003:00000000       ___xc_a                    00433000     MSVCRT:cinitexe.obj
 0003:00000038       ___xc_z                    00433038     MSVCRT:cinitexe.obj
 0003:0000003c       ___xi_a                    0043303c     MSVCRT:cinitexe.obj
 0003:00000040       ___xi_z                    00433040     MSVCRT:cinitexe.obj
 0003:00000050       ??_R0?AVCAcqStore@@@8      00433050     AcqStore.obj
 0003:00000068       ??_R0?AUQShared@@@8        00433068     alarmcontrolmainwindow.obj
 0003:00000080       ??_R0?AV?$QValueVectorPrivate@H@@@8 00433080     alarmcontrolmainwindow.obj
 0003:000000a8       ??_R0?AVQPopupMenu@@@8     004330a8     alarmcontrolmainwindow.obj
 0003:000000c8       ??_R0?AVQMainWindow@@@8    004330c8     alarmcontrolmainwindow.obj
 0003:000000e8       ??_R0?AVAlarmControlMainWindowBase@@@8 004330e8     alarmcontrolmainwindow.obj
 0003:00000118       ??_R0?AVAlarmControlMainWindow@@@8 00433118     alarmcontrolmainwindow.obj
 0003:00000140       ??_R0?AVQMenuData@@@8      00433140     alarmcontrolmainwindow.obj
 0003:00000158       ??_R0?AVQPaintDevice@@@8   00433158     alarmcontrolmainwindow.obj
 0003:00000178       ??_R0?AVQt@@@8             00433178     alarmcontrolmainwindow.obj
 0003:00000190       ??_R0?AVQObject@@@8        00433190     alarmcontrolmainwindow.obj
 0003:000001a8       ??_R0?AVQWidget@@@8        004331a8     alarmcontrolmainwindow.obj
 0003:000001c0       ??_R0?AVQFrame@@@8         004331c0     alarmcontrolmainwindow.obj
 0003:000001d8       ??_R0?AVQMenuBar@@@8       004331d8     alarmcontrolmainwindow.obj
 0003:000001f0       ??_R0?AVQSemaphore@@@8     004331f0     alarmcontrolmainwindow.obj
 0003:0000020c       ??_C@_01HAF@?8?$AA@        0043320c     alarmcontrolmainwindow.obj
 0003:00000210       ??_C@_0CP@KACH@ERROR?3?5Cannot?5find?5config?5direct@ 00433210     alarmcontrolmainwindow.obj
 0003:00000240       ??_C@_0CH@EMEI@Alarm?5Control?5Starting?0?5AlarmSys@ 00433240     alarmcontrolmainwindow.obj
 0003:00000268       ??_C@_0EA@LFOF@ERROR?5?3You?5must?5Supply?5a?5Command@ 00433268     alarmcontrolmainwindow.obj
 0003:000002a8       ??_C@_0BI@IACP@?1windows?1lib?1qt_plugins?$AA@ 004332a8     alarmcontrolmainwindow.obj
 0003:000002c0       ??_C@_01PCFE@?2?$AA@       004332c0     alarmcontrolmainwindow.obj
 0003:000002c4       ??_C@_0CC@GGJK@Got?5an?5unrecognized?5qualifier?3?5?$CF@ 004332c4     alarmcontrolmainwindow.obj
 0003:000002e8       ??_C@_0CK@HMBM@CC_SYSTEM?5override?5flag?5for?5conf@ 004332e8     alarmcontrolmainwindow.obj
 0003:00000314       ??_C@_0L@GMFN@?1CC_SYSTEM?$AA@ 00433314     alarmcontrolmainwindow.obj
 0003:00000320       ??_C@_0CI@HBIB@CC_ROOT?5override?5flag?5for?5config@ 00433320     alarmcontrolmainwindow.obj
 0003:00000348       ??_C@_08OOLH@?1CC_ROOT?$AA@ 00433348     alarmcontrolmainwindow.obj
 0003:00000354       ??_C@_0N@MHEH@?1EVENTDRIVEN?$AA@ 00433354     alarmcontrolmainwindow.obj
 0003:00000364       ??_C@_0N@NMBC@?1LOCALCONFIG?$AA@ 00433364     alarmcontrolmainwindow.obj
 0003:00000374       ??_C@_03HDMP@YES?$AA@      00433374     alarmcontrolmainwindow.obj
 0003:00000378       ??_C@_0P@NHDJ@Udp?5flag?5?$DN?$DN?5?$CFs?$AA@ 00433378     alarmcontrolmainwindow.obj
 0003:00000388       ??_C@_04DIFP@?1UDP?$AA@    00433388     alarmcontrolmainwindow.obj
 0003:00000390       ??_C@_0P@GEGL@NetDelay?5?$DN?$DN?5?$CFs?$AA@ 00433390     alarmcontrolmainwindow.obj
 0003:000003a0       ??_C@_0L@FGCG@?1NETDELAY?$DN?$AA@ 004333a0     alarmcontrolmainwindow.obj
 0003:000003ac       ??_C@_05JHHH@?1ASFU?$AA@   004333ac     alarmcontrolmainwindow.obj
 0003:000003b4       ??_C@_0BA@HDPE@Log?5Level?5?$DN?$DN?5?$CFs?$AA@ 004333b4     alarmcontrolmainwindow.obj
 0003:000003c4       ??_C@_05EBEK@?1LOG?$DN?$AA@ 004333c4     alarmcontrolmainwindow.obj
 0003:000003cc       ??_C@_0N@GJ@Period?5?$DN?$DN?5?$CFs?$AA@ 004333cc     alarmcontrolmainwindow.obj
 0003:000003dc       ??_C@_08LPOK@?1PERIOD?$DN?$AA@ 004333dc     alarmcontrolmainwindow.obj
 0003:000003e8       ??_C@_0BD@HDAG@ALARM?5SYSTEM?5?$DN?$DN?5?$CFs?$AA@ 004333e8     alarmcontrolmainwindow.obj
 0003:000003fc       ??_C@_0O@BMHH@?1ALARMSYSTEM?$DN?$AA@ 004333fc     alarmcontrolmainwindow.obj
 0003:0000040c       ??_C@_07DBNN@Rx?5Only?$AA@ 0043340c     alarmcontrolmainwindow.obj
 0003:00000414       ??_C@_0DO@OFGN@2contextMenuRequested?$CI?5QListView@ 00433414     alarmcontrolmainwindow.obj
 0003:00000454       ??_C@_0DO@PLBL@1contextMenuRequested?$CI?5QListView@ 00433454     alarmcontrolmainwindow.obj
 0003:00000494       ??_C@_0CD@JDHK@2selectionChanged?$CIQListViewItem?5@ 00433494     alarmcontrolmainwindow.obj
 0003:000004b8       ??_C@_0CC@DKNF@1changeSelected?$CIQListViewItem?5?$CK?5@ 004334b8     alarmcontrolmainwindow.obj
 0003:000004dc       ??_C@_0BE@PFLA@2selectionChanged?$CI?$CJ?$AA@ 004334dc     alarmcontrolmainwindow.obj
 0003:000004f0       ??_C@_0BC@MBEM@1changeSelected?$CI?$CJ?$AA@ 004334f0     alarmcontrolmainwindow.obj
 0003:00000504       ??_C@_08HEEF@1about?$CI?$CJ?$AA@ 00433504     alarmcontrolmainwindow.obj
 0003:00000510       ??_C@_05FJOL@About?$AA@    00433510     alarmcontrolmainwindow.obj
 0003:00000518       ??_C@_05KJAK@?$CGHelp?$AA@ 00433518     alarmcontrolmainwindow.obj
 0003:00000520       ??_C@_0P@CLNL@1forceRxOnly?$CI?$CJ?$AA@ 00433520     alarmcontrolmainwindow.obj
 0003:00000530       ??_C@_0O@DFIE@?$CGForce?5RxOnly?$AA@ 00433530     alarmcontrolmainwindow.obj
 0003:00000540       ??_C@_0BD@DGEA@1restartAllPolls?$CI?$CJ?$AA@ 00433540     alarmcontrolmainwindow.obj
 0003:00000554       ??_C@_0BD@FBJP@?$CGRestart?5All?5Polls?$AA@ 00433554     alarmcontrolmainwindow.obj
 0003:00000568       ??_C@_0BN@OLB@1StartExtraNetworkActivity?$CI?$CJ?$AA@ 00433568     alarmcontrolmainwindow.obj
 0003:00000588       ??_C@_0BO@OCN@?$CGStart?5Extra?5Network?5Activity?$AA@ 00433588     alarmcontrolmainwindow.obj
 0003:000005a8       ??_C@_0P@LPOB@1SwitchDebug?$CI?$CJ?$AA@ 004335a8     alarmcontrolmainwindow.obj
 0003:000005b8       ??_C@_06JGBB@?$CGDebug?$AA@ 004335b8     alarmcontrolmainwindow.obj
 0003:000005c0       ??_C@_0M@GKOJ@1LogOn?$CIint?$CJ?$AA@ 004335c0     alarmcontrolmainwindow.obj
 0003:000005cc       ??_C@_0M@MKEC@Log?5?$CF1?5?$CI?$CF2?$CJ?$AA@ 004335cc     alarmcontrolmainwindow.obj
 0003:000005d8       ??_C@_07HPAB@Verbose?$AA@  004335d8     alarmcontrolmainwindow.obj
 0003:000005e0       ??_C@_0BE@JENC@Per?9session?5Logging?$AA@ 004335e0     alarmcontrolmainwindow.obj
 0003:000005f4       ??_C@_0L@BGHP@Mastership?$AA@ 004335f4     alarmcontrolmainwindow.obj
 0003:00000600       ??_C@_0L@KEBK@UDP?5System?$AA@ 00433600     alarmcontrolmainwindow.obj
 0003:0000060c       ??_C@_08DBOB@Plug?9ins?$AA@ 0043360c     alarmcontrolmainwindow.obj
 0003:00000618       ??_C@_0N@JNIH@AlarmControl?$AA@ 00433618     alarmcontrolmainwindow.obj
 0003:00000628       ??_C@_0BB@OIPA@1diagnosticsOn?$CI?$CJ?$AA@ 00433628     alarmcontrolmainwindow.obj
 0003:0000063c       ??_C@_04JJNL@Show?$AA@     0043363c     alarmcontrolmainwindow.obj
 0003:00000644       ??_C@_0N@ICCF@?$CGDiagnostics?$AA@ 00433644     alarmcontrolmainwindow.obj
 0003:00000654       ??_C@_08FFDP@1close?$CI?$CJ?$AA@ 00433654     alarmcontrolmainwindow.obj
 0003:00000660       ??_C@_05COP@E?$CGxit?$AA@  00433660     alarmcontrolmainwindow.obj
 0003:00000668       ??_C@_05CNCC@?$CGFile?$AA@ 00433668     alarmcontrolmainwindow.obj
 0003:00000670       ??_C@_0EH@KFMB@w?3?2core_svn?2Source?2windows?2bin?2A@ 00433670     alarmcontrolmainwindow.obj
 0003:000006b8       ??_C@_03DMDD@?5?9?5?$AA@   004336b8     alarmcontrolmainwindow.obj
 0003:000006bc       ??_C@_01BJG@?6?$AA@        004336bc     alarmcontrolmainwindow.obj
 0003:000006c0       ??_C@_0BD@JLDL@No?5Module?5Selected?$AA@ 004336c0     alarmcontrolmainwindow.obj
 0003:000006d4       ??_C@_0BC@BDEN@1reddingClicked?$CI?$CJ?$AA@ 004336d4     alarmcontrolmainwindow.obj
 0003:000006e8       ??_C@_0L@EHAF@2clicked?$CI?$CJ?$AA@ 004336e8     alarmcontrolmainwindow.obj
 0003:000006f4       ??_C@_0BD@BMDC@1greeningClicked?$CI?$CJ?$AA@ 004336f4     alarmcontrolmainwindow.obj
 0003:00000708       ??_C@_09EFEJ@CC_SYSTEM?$AA@ 00433708     alarmcontrolmainwindow.obj
 0003:00000714       ??_C@_07FCNI@CC_ROOT?$AA@  00433714     alarmcontrolmainwindow.obj
 0003:0000071c       ??_C@_0CL@LLFA@Alarm?5Control?5Closing?4?5End?5of?5de@ 0043371c     alarmcontrolmainwindow.obj
 0003:00000748       ??_C@_0BH@IKDK@END?5OF?5main?5destructor?$AA@ 00433748     alarmcontrolmainwindow.obj
 0003:00000760       ??_C@_0CB@HADH@main?5destructor?5delete?5?$CFi?5?9?50x?$CFx@ 00433760     alarmcontrolmainwindow.obj
 0003:00000784       ??_C@_0BP@JJPM@Alarm?5Control?5Closing?4?5Main?51?4?$AA@ 00433784     alarmcontrolmainwindow.obj
 0003:000007a4       ??_C@_0BC@PIOB@main?5destructor?51?$AA@ 004337a4     alarmcontrolmainwindow.obj
 0003:000007b8       ??_C@_0CL@OLMK@Alarm?5Control?5Closing?4?5Clear?5up?5@ 004337b8     alarmcontrolmainwindow.obj
 0003:000007e4       ??_C@_0CG@INLN@Alarm?5Control?5Closing?0?5AlarmSyst@ 004337e4     alarmcontrolmainwindow.obj
 0003:00000810       ??_R0?AVQTimer@@@8         00433810     alarmcontrolmainwindow.obj
 0003:00000828       ??_C@_0DH@KLME@ERROR?5?9?5No?5valid?5Proc?4def?5config@ 00433828     alarmcontrolmainwindow.obj
 0003:00000860       ??_C@_0O@INJN@Stop?5Greening?$AA@ 00433860     alarmcontrolmainwindow.obj
 0003:00000870       ??_C@_0N@DDLC@Stop?5Redding?$AA@ 00433870     alarmcontrolmainwindow.obj
 0003:00000880       ??_C@_0DL@LEND@AlarmControlMainWindow?3?3Start?$CI?$CJ?5@ 00433880     alarmcontrolmainwindow.obj
 0003:000008bc       ??_C@_0DB@OMHC@Starting?5network?5activity?5timer?5@ 004338bc     alarmcontrolmainwindow.obj
 0003:000008f0       ??_C@_0CO@NIKN@Starting?5process?5delay?5timer?5?9?5d@ 004338f0     alarmcontrolmainwindow.obj
 0003:00000920       ??_C@_0O@LEHN@1UpdateTxRx?$CI?$CJ?$AA@ 00433920     alarmcontrolmainwindow.obj
 0003:00000930       ??_C@_0BF@JJBG@1UpdateDisplaySlow?$CI?$CJ?$AA@ 00433930     alarmcontrolmainwindow.obj
 0003:00000948       ??_C@_0L@HHKD@2timeout?$CI?$CJ?$AA@ 00433948     alarmcontrolmainwindow.obj
 0003:00000954       ??_C@_0BF@DNGM@1UpdateDisplayFast?$CI?$CJ?$AA@ 00433954     alarmcontrolmainwindow.obj
 0003:0000096c       ??_C@_0CA@BDDF@Acquisition?5Startup?5Failure?4?5?$CB?$CB?$AA@ 0043396c     alarmcontrolmainwindow.obj
 0003:0000098c       ??_C@_0EO@CHHM@ERROR?5?9?5Acquisition?5Startup?5Fail@ 0043398c     alarmcontrolmainwindow.obj
 0003:000009dc       ??_C@_0BI@HOAJ@Acquisition?5Startup?5Ok?4?$AA@ 004339dc     alarmcontrolmainwindow.obj
 0003:000009f4       ??_C@_0BN@BHKL@failed?5to?5set?9up?5UDP?5system?4?$AA@ 004339f4     alarmcontrolmainwindow.obj
 0003:00000a14       ??_C@_07HKHC@Network?$AA@  00433a14     alarmcontrolmainwindow.obj
 0003:00000a1c       ??_C@_07IADE@Channel?$AA@  00433a1c     alarmcontrolmainwindow.obj
 0003:00000a24       ??_C@_0BP@CED@?2config?2system?2bncs_system?4ini?$AA@ 00433a24     alarmcontrolmainwindow.obj
 0003:00000a44       ??_C@_02MECO@?$CFd?$AA@    00433a44     alarmcontrolmainwindow.obj
 0003:00000a48       ??_C@_0P@NIEE@CC_WORKSTATION?$AA@ 00433a48     alarmcontrolmainwindow.obj
 0003:00000a58       ??_C@_0BG@JBFN@dd?1MM?1yy?5hh?3mm?3ss?4zzz?$AA@ 00433a58     alarmcontrolmainwindow.obj
 0003:00000a70       ??_R0?AV?$QValueListPrivate@VQString@@@@@8 00433a70     alarmcontrolmainwindow.obj
 0003:00000aa0       ??_R0?AUIAlarmEvent@@@8    00433aa0     alarmcontrolmainwindow.obj
 0003:00000ac0       ??_R0?AUIDebug@@@8         00433ac0     alarmcontrolmainwindow.obj
 0003:00000ad8       ??_R0?AVAlmConfig@@@8      00433ad8     alarmcontrolmainwindow.obj
 0003:00000af0       ??_R0?AV?$QValueListNode@VQString@@@@@8 00433af0     alarmcontrolmainwindow.obj
 0003:00000b1c       ??_C@_01FCOA@?5?$AA@       00433b1c     alarmcontrolmainwindow.obj
 0003:00000b20       ??_C@_0CG@LHNC@Unable?5to?5load?5input?1output?5libr@ 00433b20     alarmcontrolmainwindow.obj
 0003:00000b48       ??_R0?AVAcqConfig@@@8      00433b48     alarmcontrolmainwindow.obj
 0003:00000b60       ??_C@_0BD@OMJP@Destruct?5AcqConfig?$AA@ 00433b60     alarmcontrolmainwindow.obj
 0003:00000b74       ??_C@_0BJ@JAJI@CreateNewInput?5NOT?5FOUND?$AA@ 00433b74     alarmcontrolmainwindow.obj
 0003:00000b90       ??_C@_0BO@FPNC@Loaded?5?8createNewInput?8?5at?5?$CFx?$AA@ 00433b90     alarmcontrolmainwindow.obj
 0003:00000bb0       ??_C@_0P@HNAD@createNewInput?$AA@ 00433bb0     alarmcontrolmainwindow.obj
 0003:00000bc0       ??_R0?AVOutConfig@@@8      00433bc0     alarmcontrolmainwindow.obj
 0003:00000bd8       ??_C@_0BD@NFKD@Destruct?5OutConfig?$AA@ 00433bd8     alarmcontrolmainwindow.obj
 0003:00000bec       ??_C@_0BK@NLCC@CreateNewOutput?5NOT?5FOUND?$AA@ 00433bec     alarmcontrolmainwindow.obj
 0003:00000c08       ??_C@_0BP@NLMH@Loaded?5?8createNewOutput?8?5at?5?$CFx?$AA@ 00433c08     alarmcontrolmainwindow.obj
 0003:00000c28       ??_C@_0BA@CLAP@createNewOutput?$AA@ 00433c28     alarmcontrolmainwindow.obj
 0003:00000c38       ??_C@_0CA@EGGN@No?5Old?5states?5to?5send?5to?5output?$AA@ 00433c38     alarmcontrolmainwindow.obj
 0003:00000c58       ??_C@_0BB@DLLK@Atos?5IT?5Services?$AA@ 00433c58     alarmcontrolmainwindow.obj
 0003:00000c6c       ??_C@_0DH@MMDP@Author?5?9?5Charlotte?5Jones?0?5Mark?5B@ 00433c6c     alarmcontrolmainwindow.obj
 0003:00000ca4       ??_C@_08HECK@22?326?358?$AA@ 00433ca4     alarmcontrolmainwindow.obj
 0003:00000cb0       ??_C@_0M@OFFK@Mar?5?57?52016?$AA@ 00433cb0     alarmcontrolmainwindow.obj
 0003:00000cbc       ??_C@_06JPND@Built?5?$AA@  00433cbc     alarmcontrolmainwindow.obj
 0003:00000cc4       ??_C@_03BBGG@?5?1?5?$AA@   00433cc4     alarmcontrolmainwindow.obj
 0003:00000cc8       ??_C@_0L@HCKM@Version?5?9?5?$AA@ 00433cc8     alarmcontrolmainwindow.obj
 0003:00000cd4       ??_C@_02JJJH@?6?6?$AA@     00433cd4     alarmcontrolmainwindow.obj
 0003:00000cd8       ??_C@_05EOAM@?5?9?5?$CFs?$AA@ 00433cd8     alarmcontrolmainwindow.obj
 0003:00000ce0       ??_R0?AVLoadDirectory@AlarmControlMainWindow@@@8 00433ce0     alarmcontrolmainwindow.obj
 0003:00000d18       ??_R0?AVQLibrary@@@8       00433d18     alarmcontrolmainwindow.obj
 0003:00000d30       ??_C@_0DJ@MHLK@Unable?5to?5load?5?$CFs?5?8?$CFs?8?5from?5?1win@ 00433d30     alarmcontrolmainwindow.obj
 0003:00000d6c       ??_C@_0BF@NOHB@?1windows?1lib?1alarms?1?$AA@ 00433d6c     alarmcontrolmainwindow.obj
 0003:00000d84       ??_C@_04EFNI@Name?$AA@     00433d84     alarmcontrolmainwindow.obj
 0003:00000d8c       ??_C@_06NILE@System?$AA@   00433d8c     alarmcontrolmainwindow.obj
 0003:00000d94       ??_C@_06JKDC@Module?$AA@   00433d94     alarmcontrolmainwindow.obj
 0003:00000d9c       ??_C@_0N@HHDL@?$CI?2d?$HL4?$HN?$CJ?4cfg$?$AA@ 00433d9c     alarmcontrolmainwindow.obj
 0003:00000dac       ??_C@_01KHHK@?$FO?$AA@     00433dac     alarmcontrolmainwindow.obj
 0003:00000db0       ??_C@_0BH@IGNH@No?5alarms?5?$CF1?5directory?$AA@ 00433db0     alarmcontrolmainwindow.obj
 0003:00000dc8       ??_C@_0BE@PNKM@?5config?5directory?5?8?$AA@ 00433dc8     alarmcontrolmainwindow.obj
 0003:00000ddc       ??_C@_0BE@MFCG@ERROR?3?5Cannot?5find?5?$AA@ 00433ddc     alarmcontrolmainwindow.obj
 0003:00000df0       ??_C@_01FDLN@?1?$AA@       00433df0     alarmcontrolmainwindow.obj
 0003:00000df8       ??_R0?AVQPtrCollection@@@8 00433df8     alarmcontrolmainwindow.obj
 0003:00000e18       ??_R0?AVQGDict@@@8         00433e18     alarmcontrolmainwindow.obj
 0003:00000e30       ??_R0?AV?$QDict@VAcqConfig@@@@@8 00433e30     alarmcontrolmainwindow.obj
 0003:00000e58       ??_R0?AVLoadDirectoryInputs@AlarmControlMainWindow@@@8 00433e58     alarmcontrolmainwindow.obj
 0003:00000e94       ??_C@_06JBAF@inputs?$AA@   00433e94     alarmcontrolmainwindow.obj
 0003:00000e9c       ??_C@_07PANM@al_acq_?$AA@  00433e9c     alarmcontrolmainwindow.obj
 0003:00000ea8       ??_R0?AV?$QDict@VOutConfig@@@@@8 00433ea8     alarmcontrolmainwindow.obj
 0003:00000ed0       ??_R0?AVLoadDirectoryOutputs@AlarmControlMainWindow@@@8 00433ed0     alarmcontrolmainwindow.obj
 0003:00000f0c       ??_C@_07LJCK@outputs?$AA@  00433f0c     alarmcontrolmainwindow.obj
 0003:00000f14       ??_C@_07IELN@al_out_?$AA@  00433f14     alarmcontrolmainwindow.obj
 0003:00000f20       ??_R0?AVstructured_exception@@@8 00433f20     alarmcontrolmainwindow.obj
 0003:00000f44       ??_C@_0CD@IJHI@Load?5Directory?5?9?5Unknown?5excepti@ 00433f44     alarmcontrolmainwindow.obj
 0003:00000f68       ??_C@_0CN@LLLF@Load?5Directory?5?9thrown?5exception@ 00433f68     alarmcontrolmainwindow.obj
 0003:00000f98       ??_C@_0CO@LEGH@Load?5Directory?5?9?5thrown?5exceptio@ 00433f98     alarmcontrolmainwindow.obj
 0003:00000fc8       ??_C@_0CD@OOMD@Load?5Directory?5Outputs?5took?3?5?$CFd?5@ 00433fc8     alarmcontrolmainwindow.obj
 0003:00000fec       ??_C@_0CC@CIE@Load?5Directory?5Inputs?5took?3?5?$CFd?5m@ 00433fec     alarmcontrolmainwindow.obj
 0003:00001010       ??_C@_0BO@CFHN@Can?8t?5find?5config?5folder?5?8?$CFs?8?$AA@ 00434010     alarmcontrolmainwindow.obj
 0003:00001030       ??_C@_0BA@CDOA@?1config?1alarms?1?$AA@ 00434030     alarmcontrolmainwindow.obj
 0003:00001040       ??_C@_05OBHG@?5?5?9?5?5?$AA@ 00434040     alarmcontrolmainwindow.obj
 0003:00001048       ??_C@_0BE@OJJB@Created?5array?5of?5?$CFd?$AA@ 00434048     alarmcontrolmainwindow.obj
 0003:0000105c       ??_C@_0BP@PLPJ@Acq?5Initialization?5took?3?5?$CFd?5ms?$AA@ 0043405c     alarmcontrolmainwindow.obj
 0003:0000107c       ??_C@_08FKED@?1inputs?1?$AA@ 0043407c     alarmcontrolmainwindow.obj
 0003:00001088       ??_C@_08LOKJ@?1alarms?1?$AA@ 00434088     alarmcontrolmainwindow.obj
 0003:00001094       ??_C@_07DPEN@?1config?$AA@ 00434094     alarmcontrolmainwindow.obj
 0003:0000109c       ??_C@_0CE@KOHO@Loading?5Input?5Modules?5?9?5Please?5W@ 0043409c     alarmcontrolmainwindow.obj
 0003:000010c0       ??_C@_0BP@FJAG@Out?5Initialization?5took?3?5?$CFd?5ms?$AA@ 004340c0     alarmcontrolmainwindow.obj
 0003:000010e0       ??_C@_0BK@JLGL@Initialize?5Output?5from?5?$CFs?$AA@ 004340e0     alarmcontrolmainwindow.obj
 0003:000010fc       ??_C@_09LOLI@?1outputs?1?$AA@ 004340fc     alarmcontrolmainwindow.obj
 0003:00001108       ??_C@_0CF@DPM@Loading?5Output?5Modules?5?9?5Please?5@ 00434108     alarmcontrolmainwindow.obj
 0003:00001130       ??_C@_0CG@FOAN@UpdateDisplayFast?5?9?5unknown?5exce@ 00434130     alarmcontrolmainwindow.obj
 0003:00001158       ??_C@_0DF@OOAE@Alarm?5Control?3?5UpdateDisplayFast@ 00434158     alarmcontrolmainwindow.obj
 0003:00001190       ??_C@_0DP@MLKA@Alarm?5Control?3?5UpdateDisplayFast@ 00434190     alarmcontrolmainwindow.obj
 0003:000011d0       ??_C@_0DA@NMHH@UpdateDisplayFast?5?9?5thrown?5excep@ 004341d0     alarmcontrolmainwindow.obj
 0003:00001200       ??_C@_03KDOD@?$CF1?$CF?$AA@ 00434200     alarmcontrolmainwindow.obj
 0003:00001204       ??_C@_05OGOB@?$CF08lu?$AA@ 00434204     alarmcontrolmainwindow.obj
 0003:0000120c       ??_C@_04KAJP@?$CF03d?$AA@  0043420c     alarmcontrolmainwindow.obj
 0003:00001214       ??_C@_0CG@HMDL@UpdateDisplaySlow?5?9?5unknown?5exce@ 00434214     alarmcontrolmainwindow.obj
 0003:0000123c       ??_C@_0DF@MMDC@Alarm?5Control?3?5UpdateDisplaySlow@ 0043423c     alarmcontrolmainwindow.obj
 0003:00001274       ??_C@_0DP@CEO@Alarm?5Control?3?5UpdateDisplaySlow@ 00434274     alarmcontrolmainwindow.obj
 0003:000012b4       ??_C@_0DA@BFJJ@UpdateDisplaySlow?5?9?5thrown?5excep@ 004342b4     alarmcontrolmainwindow.obj
 0003:000012e4       ??_C@_0BP@JHEC@UpdateTxRx?5?9?5unknown?5exception?$AA@ 004342e4     alarmcontrolmainwindow.obj
 0003:00001304       ??_C@_0CO@ICCP@Alarm?5Control?3?5UpdateTxRx?5?9?5unkn@ 00434304     alarmcontrolmainwindow.obj
 0003:00001334       ??_C@_0DI@CACF@Alarm?5Control?3?5UpdateTxRx?5?9?5thro@ 00434334     alarmcontrolmainwindow.obj
 0003:0000136c       ??_C@_0CJ@GLBL@UpdateTxRx?5?9?5thrown?5exception?5?$CFx@ 0043436c     alarmcontrolmainwindow.obj
 0003:00001398       ??_C@_05KPIG@Tx?5Rx?$AA@   00434398     alarmcontrolmainwindow.obj
 0003:000013a0       ??_C@_0CI@FDHP@UDP?5Reports?5change?5of?5mastership@ 004343a0     alarmcontrolmainwindow.obj
 0003:000013c8       ??_R0?AValarms_base@@@8    004343c8     alarmcontrolmainwindow.obj
 0003:000013e8       ??_R0?AValarms_input_base@@@8 004343e8     alarmcontrolmainwindow.obj
 0003:00001408       ??_R0?AVQListViewItem@@@8  00434408     alarmcontrolmainwindow.obj
 0003:00001428       ??_R0?AVModuleListViewItem@@@8 00434428     alarmcontrolmainwindow.obj
 0003:0000144c       ??_C@_0BF@GJDA@lvi?5for?5?$CFs?5NOT?5found?$AA@ 0043444c     alarmcontrolmainwindow.obj
 0003:00001464       ??_C@_0BG@MNPO@?9?5check?5configuration?$AA@ 00434464     alarmcontrolmainwindow.obj
 0003:0000147c       ??_C@_0CL@MCHB@CALCULATION?5ERROR?5?9?5Cannot?5find?5@ 0043447c     alarmcontrolmainwindow.obj
 0003:000014a8       ??_C@_0BJ@JMAB@?5?3Unknown?5timer?5event?5?$CFd?$AA@ 004344a8     alarmcontrolmainwindow.obj
 0003:000014c4       ??_C@_0BK@IJMP@Next?5process?5timer?5event?4?$AA@ 004344c4     alarmcontrolmainwindow.obj
 0003:000014e0       ??_C@_0GB@OABM@AlarmControlMainWindow?3?3timerEve@ 004344e0     alarmcontrolmainwindow.obj
 0003:00001544       ??_C@_0EM@HPNB@AlarmControlMainWindow?3?3timerEve@ 00434544     alarmcontrolmainwindow.obj
 0003:00001590       ??_C@_0BE@EICA@STARTING?5PROCESSING?$AA@ 00434590     alarmcontrolmainwindow.obj
 0003:000015a4       ??_C@_0BL@BFOM@Stopping?5process?5timer?5?$CFd?4?$AA@ 004345a4     alarmcontrolmainwindow.obj
 0003:000015c0       ??_C@_0BL@BDMA@process?5timer?5?$CFd?5timed?5out?$AA@ 004345c0     alarmcontrolmainwindow.obj
 0003:000015dc       ??_C@_0DA@POLA@Alarm?5Control?3?5GetInputData?5?9?5Un@ 004345dc     alarmcontrolmainwindow.obj
 0003:0000160c       ??_C@_0CB@PJFC@GetInputData?5?9?5Unknown?5exception@ 0043460c     alarmcontrolmainwindow.obj
 0003:00001630       ??_C@_0DL@MKNE@Alarm?5Control?3?5GetInputData?5?9?5th@ 00434630     alarmcontrolmainwindow.obj
 0003:0000166c       ??_C@_0CM@HJGA@GetInputData?5?9?5thrown?5exception?5@ 0043466c     alarmcontrolmainwindow.obj
 0003:00001698       ??_C@_0BO@PKDN@loadConfig?5?9unknown?5exception?$AA@ 00434698     alarmcontrolmainwindow.obj
 0003:000016b8       ??_C@_0CO@OMHC@Alarm?5Control?3?5loadConfig?5?9?5unkn@ 004346b8     alarmcontrolmainwindow.obj
 0003:000016e8       ??_C@_0CK@GBKK@loadConfig?5?9?5thrown?5exception?5?$CFx@ 004346e8     alarmcontrolmainwindow.obj
 0003:00001714       ??_C@_0DI@BJC@Alarm?5Control?3?5loadConfig?5?9?5thro@ 00434714     alarmcontrolmainwindow.obj
 0003:0000174c       ??_C@_0BI@CDIL@There?5are?5?$CFd?5processes?4?$AA@ 0043474c     alarmcontrolmainwindow.obj
 0003:00001764       ??_C@_04NHGA@?$CF05d?$AA@  00434764     alarmcontrolmainwindow.obj
 0003:0000176c       ??_C@_0CC@MPEO@Load?5process?5settings?5took?3?5?$CFd?5m@ 0043476c     alarmcontrolmainwindow.obj
 0003:00001790       ??_C@_0BP@FGNN@Load?5process?5names?5took?3?5?$CFd?5ms?$AA@ 00434790     alarmcontrolmainwindow.obj
 0003:000017b0       ??_C@_01FIMD@?$FN?$AA@     004347b0     alarmcontrolmainwindow.obj
 0003:000017b4       ??_C@_01KHLB@?$FL?$AA@     004347b4     alarmcontrolmainwindow.obj
 0003:000017b8       ??_C@_0BN@LJAJ@Loading?5Config?5?9?5Please?5Wait?$AA@ 004347b8     alarmcontrolmainwindow.obj
 0003:000017d8       ??_C@_0O@CJPC@?1proc_def?4cfg?$AA@ 004347d8     alarmcontrolmainwindow.obj
 0003:000017e8       ??_C@_0CA@KDBC@Failed?5to?5load?5settings?5for?5?$CFs?6?$AA@ 004347e8     alarmcontrolmainwindow.obj
 0003:00001808       ??_C@_08JMOO@?$CB?$CB?$CB?$CBHELP?$AA@ 00434808     alarmcontrolmainwindow.obj
 0003:00001814       ??_C@_0CN@LHBE@DoCalculations?5?9?5unknown?5excepti@ 00434814     alarmcontrolmainwindow.obj
 0003:00001844       ??_C@_0CM@IALO@DoCalculations?5?9?5unknown?5excepti@ 00434844     alarmcontrolmainwindow.obj
 0003:00001870       ??_C@_0DK@PFGK@DoCalculations?5?9?5thrown?5exceptio@ 00434870     alarmcontrolmainwindow.obj
 0003:000018ac       ??_C@_0DI@NOOJ@DoCalculations?5?9?5thrown?5exceptio@ 004348ac     alarmcontrolmainwindow.obj
 0003:000018e4       ??_C@_0BE@JFPG@calculations?5failed?$AA@ 004348e4     alarmcontrolmainwindow.obj
 0003:000018f8       ??_C@_0DC@PKBL@ERROR?5?9?5calculations?5failed?5?9?5CH@ 004348f8     alarmcontrolmainwindow.obj
 0003:0000192c       ??_C@_0M@JBMO@End?5of?5calc?$AA@ 0043492c     alarmcontrolmainwindow.obj
 0003:00001938       ??_C@_08LDOL@Calc?5Now?$AA@ 00434938     alarmcontrolmainwindow.obj
 0003:00001944       ??_C@_0DH@DPGC@Timer?5wasn?8t?5active?5for?5next?5pro@ 00434944     alarmcontrolmainwindow.obj
 0003:0000197c       ??_C@_0DM@HBCK@now?5?8?$CFs?8?5base?5?8?$CFs?8?5end?5?8?$CFs?8?5time@ 0043497c     alarmcontrolmainwindow.obj
 0003:000019b8       ??_C@_0BI@OIDN@dd?9MM?9yyyy?5hh?3mm?3ss?4zzz?$AA@ 004349b8     alarmcontrolmainwindow.obj
 0003:000019d0       ??_C@_0BF@IOJJ@1970?901?901T00?300?300Z?$AA@ 004349d0     alarmcontrolmainwindow.obj
 0003:000019e8       ??_C@_0L@KFLL@input?5proc?$AA@ 004349e8     alarmcontrolmainwindow.obj
 0003:000019f4       ??_C@_0CJ@JCEO@Process?5?$CFd?5override?5end?5time?5?$CFd?4@ 004349f4     alarmcontrolmainwindow.obj
 0003:00001a20       ??_C@_0BC@DHFA@calling?5init?5proc?$AA@ 00434a20     alarmcontrolmainwindow.obj
 0003:00001a34       ??_C@_0BE@MNHF@initialising?5memory?$AA@ 00434a34     alarmcontrolmainwindow.obj
 0003:00001a48       ??_C@_05IIAE@start?$AA@    00434a48     alarmcontrolmainwindow.obj
 0003:00001a50       ??_C@_0CE@LJDI@SendDataOutputs?5?9?5Unknown?5Except@ 00434a50     alarmcontrolmainwindow.obj
 0003:00001a74       ??_C@_0CP@HOED@SendDataOutputs?5?9?5thrown?5excepti@ 00434a74     alarmcontrolmainwindow.obj
 0003:00001aa4       ??_C@_0BN@IBAI@process?5?$CFd?0?$CFs?5is?5in?5state?5?$CFd?$AA@ 00434aa4     alarmcontrolmainwindow.obj
 0003:00001ac4       ??_C@_0BJ@IBEF@?3Print?5data?5?$CFd?5processes?$AA@ 00434ac4     alarmcontrolmainwindow.obj
 0003:00001ae0       ??_C@_06HHJK@Output?$AA@   00434ae0     alarmcontrolmainwindow.obj
 0003:00001ae8       ??_C@_06FAJP@al_out?$AA@   00434ae8     alarmcontrolmainwindow.obj
 0003:00001af0       ??_C@_0M@HNLI@Acquisition?$AA@ 00434af0     alarmcontrolmainwindow.obj
 0003:00001afc       ??_C@_06DBMA@al_acq?$AA@   00434afc     alarmcontrolmainwindow.obj
 0003:00001b04       ??_C@_0BJ@ENPE@?$CFs?1colledia_alarms?1?$CFs?1?$CFs?$AA@ 00434b04     alarmcontrolmainwindow.obj
 0003:00001b20       ??_C@_04FEEL@TEMP?$AA@     00434b20     alarmcontrolmainwindow.obj
 0003:00001b28       ??_C@_0DN@MIFD@LoadData?5Previous?5state?5file?5loa@ 00434b28     alarmcontrolmainwindow.obj
 0003:00001b68       ??_C@_0DB@IOKG@LoadData?5Failed?5to?5open?5previous@ 00434b68     alarmcontrolmainwindow.obj
 0003:00001b9c       ??_C@_0BL@OPOE@Load?5File?5Data?5took?3?5?$CFd?5ms?$AA@ 00434b9c     alarmcontrolmainwindow.obj
 0003:00001bb8       ??_C@_01LHO@r?$AA@         00434bb8     alarmcontrolmainwindow.obj
 0003:00001bbc       ??_C@_0BE@FPO@?$CFs?1AlarmControl?4dat?$AA@ 00434bbc     alarmcontrolmainwindow.obj
 0003:00001bd0       ??_C@_0BE@OGJ@Failed?5to?5open?5file?$AA@ 00434bd0     alarmcontrolmainwindow.obj
 0003:00001be4       ??_C@_06IBFL@?$CFs?$DN?$CFd?6?$AA@ 00434be4     alarmcontrolmainwindow.obj
 0003:00001bec       ??_C@_01LLF@w?$AA@         00434bec     alarmcontrolmainwindow.obj
 0003:00001bf0       ??_C@_0BO@NCNG@Failed?5to?5create?5directory?5?$CFs?$AA@ 00434bf0     alarmcontrolmainwindow.obj
 0003:00001c10       ??_C@_05JLDG@?$FL?1?2?2?$FN?$AA@ 00434c10     alarmcontrolmainwindow.obj
 0003:00001c18       ??_C@_0BK@JEMD@LogOn?5?9?5unknown?5exception?$AA@ 00434c18     alarmcontrolmainwindow.obj
 0003:00001c34       ??_C@_0CE@INKA@LogOn?5?9?5thrown?5exception?5?$CFx?5from@ 00434c34     alarmcontrolmainwindow.obj
 0003:00001c58       ??_C@_0N@OMGM@Switch?5Debug?$AA@ 00434c58     alarmcontrolmainwindow.obj
 0003:00001c68       ??_C@_0CO@DHP@2findFilterProcess?$CI?5const?5QStrin@ 00434c68     alarmcontrolmainwindow.obj
 0003:00001c98       ??_C@_0CO@EMGD@1findFilterProcess?$CI?5const?5QStrin@ 00434c98     alarmcontrolmainwindow.obj
 0003:00001cc8       ??_C@_0BK@ENPJ@2Debug?$CI?5const?5QString?5?$CG?5?$CJ?$AA@ 00434cc8     alarmcontrolmainwindow.obj
 0003:00001ce4       ??_C@_0BK@KOEO@1Debug?$CI?5const?5QString?5?$CG?5?$CJ?$AA@ 00434ce4     alarmcontrolmainwindow.obj
 0003:00001d00       ??_C@_0CL@OJAA@2diagForceState?$CIint?0?5const?5QStri@ 00434d00     alarmcontrolmainwindow.obj
 0003:00001d2c       ??_C@_0CL@BBBP@1diagForceState?$CIint?0?5const?5QStri@ 00434d2c     alarmcontrolmainwindow.obj
 0003:00001d58       ??_C@_0BD@BCGE@2updateProcesses?$CI?$CJ?$AA@ 00434d58     alarmcontrolmainwindow.obj
 0003:00001d6c       ??_C@_0BD@CMHI@1updateProcesses?$CI?$CJ?$AA@ 00434d6c     alarmcontrolmainwindow.obj
 0003:00001d80       ??_C@_0DB@LOCA@2updateDiagnosticsProcess?$CIQListV@ 00434d80     alarmcontrolmainwindow.obj
 0003:00001db4       ??_C@_0DA@NJBA@1updateDiagnosticsProcess?$CIQListV@ 00434db4     alarmcontrolmainwindow.obj
 0003:00001de4       ??_C@_0O@OPIM@2diagHidden?$CI?$CJ?$AA@ 00434de4     alarmcontrolmainwindow.obj
 0003:00001df4       ??_C@_0M@MELP@1diagHide?$CI?$CJ?$AA@ 00434df4     alarmcontrolmainwindow.obj
 0003:00001e00       ??_C@_03NMFM@?$DP?$DP?$DP?$AA@ 00434e00     alarmcontrolmainwindow.obj
 0003:00001e04       ??_C@_07KGBD@INVALID?$AA@  00434e04     alarmcontrolmainwindow.obj
 0003:00001e0c       ??_C@_07JJBN@HOLDOFF?$AA@  00434e0c     alarmcontrolmainwindow.obj
 0003:00001e14       ??_C@_04OAHI@Time?$AA@     00434e14     alarmcontrolmainwindow.obj
 0003:00001e1c       ??_C@_05BFMG@TRUTH?$AA@    00434e1c     alarmcontrolmainwindow.obj
 0003:00001e24       ??_C@_03CBCA@NOT?$AA@      00434e24     alarmcontrolmainwindow.obj
 0003:00001e28       ??_C@_02CHDK@OR?$AA@       00434e28     alarmcontrolmainwindow.obj
 0003:00001e2c       ??_C@_03LACO@AND?$AA@      00434e2c     alarmcontrolmainwindow.obj
 0003:00001e30       ??_C@_05OIKH@Input?$AA@    00434e30     alarmcontrolmainwindow.obj
 0003:00001e38       ??_C@_03LMOA@AC?3?$AA@     00434e38     alarmcontrolmainwindow.obj
 0003:00001e3c       ??_C@_0IG@JDPD@loadColouringSettings?$CI?$CJ?5Initial?5@ 00434e3c     alarmcontrolmainwindow.obj
 0003:00001ec4       ??_C@_0BI@DCEB@AutomaticReddingTimeout?$AA@ 00434ec4     alarmcontrolmainwindow.obj
 0003:00001edc       ??_C@_0BL@OHCE@SetInitialStateFailTimeout?$AA@ 00434edc     alarmcontrolmainwindow.obj
 0003:00001ef8       ??_C@_02HPJE@30?$AA@       00434ef8     alarmcontrolmainwindow.obj
 0003:00001efc       ??_C@_0BJ@JNNK@AutomaticGreeningTimeout?$AA@ 00434efc     alarmcontrolmainwindow.obj
 0003:00001f18       ??_C@_03NBOP@300?$AA@      00434f18     alarmcontrolmainwindow.obj
 0003:00001f1c       ??_C@_0BJ@GOAM@SetInitialStateOKTimeout?$AA@ 00434f1c     alarmcontrolmainwindow.obj
 0003:00001f38       ??_C@_05NAGO@false?$AA@    00434f38     alarmcontrolmainwindow.obj
 0003:00001f40       ??_C@_04NCCD@true?$AA@     00434f40     alarmcontrolmainwindow.obj
 0003:00001f48       ??_C@_04LNAG@TRUE?$AA@     00434f48     alarmcontrolmainwindow.obj
 0003:00001f50       ??_C@_0GI@OINM@Greening?5ini?5file?5contains?5Enabl@ 00434f50     alarmcontrolmainwindow.obj
 0003:00001fb8       ??_C@_07PCJF@Redding?$AA@  00434fb8     alarmcontrolmainwindow.obj
 0003:00001fc0       ??_C@_0BE@POPM@SetInitialStateFail?$AA@ 00434fc0     alarmcontrolmainwindow.obj
 0003:00001fd4       ??_C@_08BDFM@Greening?$AA@ 00434fd4     alarmcontrolmainwindow.obj
 0003:00001fe0       ??_C@_0BC@KDLG@SetInitialStateOK?$AA@ 00434fe0     alarmcontrolmainwindow.obj
 0003:00001ff4       ??_C@_09JHEO@Colouring?$AA@ 00434ff4     alarmcontrolmainwindow.obj
 0003:00002000       ??_C@_0BG@GEMI@EnableSetInitialState?$AA@ 00435000     alarmcontrolmainwindow.obj
 0003:00002018       ??_C@_0BF@DNNN@Greening?5ini?5file?$DN?$CFs?$AA@ 00435018     alarmcontrolmainwindow.obj
 0003:00002030       ??_C@_0O@KMFA@?1greening?4ini?$AA@ 00435030     alarmcontrolmainwindow.obj
 0003:00002040       ??_C@_0P@GAEM@Start?5Greening?$AA@ 00435040     alarmcontrolmainwindow.obj
 0003:00002050       ??_C@_0O@OCPF@Start?5Redding?$AA@ 00435050     alarmcontrolmainwindow.obj
 0003:00002060       ??_C@_0CO@CDPJ@AlarmControlMainWindow?3?3startGre@ 00435060     alarmcontrolmainwindow.obj
 0003:00002090       ??_C@_0DB@NFIJ@stopGreening?$CI?$CJ?5?9?5killing?5the?5gre@ 00435090     alarmcontrolmainwindow.obj
 0003:000020c4       ??_C@_0DE@DAMN@stopGreening?$CI?$CJ?5?9?5killing?5the?5ini@ 004350c4     alarmcontrolmainwindow.obj
 0003:000020f8       ??_C@_0CN@CPHG@AlarmControlMainWindow?3?3stopGree@ 004350f8     alarmcontrolmainwindow.obj
 0003:00002128       ??_C@_0CN@ODHD@AlarmControlMainWindow?3?3startRed@ 00435128     alarmcontrolmainwindow.obj
 0003:00002158       ??_C@_0CP@NHLD@stopRedding?$CI?$CJ?5?9?5killing?5the?5redd@ 00435158     alarmcontrolmainwindow.obj
 0003:00002188       ??_C@_0DC@IGMJ@stopRedding?$CI?$CJ?5?9?5killing?5the?5init@ 00435188     alarmcontrolmainwindow.obj
 0003:000021bc       ??_C@_0CM@GMKB@AlarmControlMainWindow?3?3stopRedd@ 004351bc     alarmcontrolmainwindow.obj
 0003:000021e8       ??_C@_0CA@COBF@Starting?5Extra?5Network?5Activity?$AA@ 004351e8     alarmcontrolmainwindow.obj
 0003:00002208       ??_C@_0DA@PCHI@Module?5Change?5Event?5signaled?4?5Pr@ 00435208     alarmcontrolmainwindow.obj
 0003:00002238       ??_C@_0DI@PNCJ@Module?5Change?5Event?5signaled?4?5Pr@ 00435238     alarmcontrolmainwindow.obj
 0003:00002270       ??_C@_0BB@MKJK@Retry?5Connection?$AA@ 00435270     alarmcontrolmainwindow.obj
 0003:00002284       ??_C@_0O@LNMD@Next?5Poll?5Now?$AA@ 00435284     alarmcontrolmainwindow.obj
 0003:00002294       ??_C@_0N@HPGA@Restart?5Poll?$AA@ 00435294     alarmcontrolmainwindow.obj
 0003:000022a4       ??_C@_0CA@NCNG@forceRxOnly?5?9?5unknown?5exception?$AA@ 004352a4     alarmcontrolmainwindow.obj
 0003:000022c4       ??_C@_0CK@EEG@forceRxOnly?5?9?5thrown?5exception?5?$CF@ 004352c4     alarmcontrolmainwindow.obj
 0003:000022f0       ??_C@_0M@CAD@forceRxOnly?$AA@ 004352f0     alarmcontrolmainwindow.obj
 0003:000022fc       ??_C@_0BI@PHJO@ASSERT?3?5?$CC?$CFs?$CC?5in?5?$CFs?5?$CI?$CFd?$CJ?$AA@ 004352fc     alarmcontrolmainwindow.obj
 0003:00002314       ??_C@_0L@MGKG@i?5?$DM?$DN?5nodes?$AA@ 00435314     alarmcontrolmainwindow.obj
 0003:00002320       ??_C@_0CB@GILJ@C?3?2Qt?23?42?43?2include?2qvaluelist?4h@ 00435320     alarmcontrolmainwindow.obj
 0003:00002348       ??_R0?AV?$QPtrList@VDiagnosticsListViewItem@@@@@8 00435348     diagnosticsimpl.obj
 0003:00002380       ??_R0?AV?$QPtrList@VQListViewItem@@@@@8 00435380     diagnosticsimpl.obj
 0003:000023b0       ??_R0?AVQDialog@@@8        004353b0     diagnosticsimpl.obj
 0003:000023c8       ??_R0?AVdiagnosticsBase@@@8 004353c8     diagnosticsimpl.obj
 0003:000023e8       ??_R0?AVdiagnostics@@@8    004353e8     diagnosticsimpl.obj
 0003:00002408       ??_R0?AVQGList@@@8         00435408     diagnosticsimpl.obj
 0003:00002420       ??_R0?AV?$QPtrStack@UFilterStackItem@diagnostics@@@@@8 00435420     diagnosticsimpl.obj
 0003:0000245c       ??_C@_0CC@NCAI@2selectionChanged?$CIQListViewItem?$CK@ 0043545c     diagnosticsimpl.obj
 0003:00002480       ??_C@_0CO@LIJ@1diagProcessSelectionChanged?$CIQLi@ 00435480     diagnosticsimpl.obj
 0003:000024b0       ??_C@_0BP@LGDN@1diagProcessSelectionChanged?$CI?$CJ?$AA@ 004354b0     diagnosticsimpl.obj
 0003:000024d0       ??_C@_0BP@CJPP@2doubleClicked?$CIQListViewItem?$CK?$CJ?$AA@ 004354d0     diagnosticsimpl.obj
 0003:000024f0       ??_C@_0CL@ODND@1diagProcessDoubleClicked?$CIQListV@ 004354f0     diagnosticsimpl.obj
 0003:0000251c       ??_C@_0CA@NHAM@2currentChanged?$CIQListViewItem?$CK?$CJ?$AA@ 0043551c     diagnosticsimpl.obj
 0003:0000253c       ??_C@_0CM@BABK@1diagProcessCurrentChanged?$CIQList@ 0043553c     diagnosticsimpl.obj
 0003:00002568       ??_C@_0BK@LELK@1diagForceAckContribAll?$CI?$CJ?$AA@ 00435568     diagnosticsimpl.obj
 0003:00002584       ??_C@_0BM@PGOD@1diagForceAckContribImmed?$CI?$CJ?$AA@ 00435584     diagnosticsimpl.obj
 0003:000025a0       ??_C@_0BC@BEJF@1diagForceClear?$CI?$CJ?$AA@ 004355a0     diagnosticsimpl.obj
 0003:000025b4       ??_C@_0BD@CPKP@1diagForceAckAll?$CI?$CJ?$AA@ 004355b4     diagnosticsimpl.obj
 0003:000025c8       ??_C@_0BD@CFNF@1diagForceNormal?$CI?$CJ?$AA@ 004355c8     diagnosticsimpl.obj
 0003:000025dc       ??_C@_0BD@LAAM@1diagForceIgnore?$CI?$CJ?$AA@ 004355dc     diagnosticsimpl.obj
 0003:000025f0       ??_C@_0BA@EGLK@1diagForceAck?$CI?$CJ?$AA@ 004355f0     diagnosticsimpl.obj
 0003:00002600       ??_C@_0P@DBOF@1diagForceOn?$CI?$CJ?$AA@ 00435600     diagnosticsimpl.obj
 0003:00002610       ??_C@_0BA@LNKM@1diagForceOff?$CI?$CJ?$AA@ 00435610     diagnosticsimpl.obj
 0003:00002620       ??_C@_0BC@PKDC@1diagFilterBack?$CI?$CJ?$AA@ 00435620     diagnosticsimpl.obj
 0003:00002634       ??_C@_0CM@HHBI@1diagSetProcessInputFilter?$CIconst@ 00435634     diagnosticsimpl.obj
 0003:00002660       ??_C@_0BP@PMHB@2textChanged?5?$CIconst?5QString?5?$CG?$CJ?$AA@ 00435660     diagnosticsimpl.obj
 0003:00002680       ??_C@_0CA@KCAL@1diagSetFilter?$CIconst?5QString?5?$CG?$CJ?$AA@ 00435680     diagnosticsimpl.obj
 0003:000026a0       ??_C@_0M@FDAL@Diagnostics?$AA@ 004356a0     diagnosticsimpl.obj
 0003:000026ac       ??_C@_04NNBN@ACd?3?$AA@    004356ac     diagnosticsimpl.obj
 0003:000026b8       ??_R0?AVDiagnosticsListViewItem@@@8 004356b8     diagnosticsimpl.obj
 0003:000026e0       ??_C@_0N@BDDG@Press?5again?$CB?$AA@ 004356e0     diagnosticsimpl.obj
 0003:000026f0       ??_C@_0BF@NFEG@Ack?5All?5Contributors?$AA@ 004356f0     diagnosticsimpl.obj
 0003:00002708       ??_C@_0BL@KBNG@Ack?5Immediate?5Contributors?$AA@ 00435708     diagnosticsimpl.obj
 0003:00002724       ??_C@_05BHDE@Clear?$AA@    00435724     diagnosticsimpl.obj
 0003:0000272c       ??_C@_0BA@KAIJ@Acknowledge?5All?$AA@ 0043572c     diagnosticsimpl.obj
 0003:0000273c       ??_C@_06BILL@Normal?$AA@   0043573c     diagnosticsimpl.obj
 0003:00002744       ??_C@_06BAFM@Ignore?$AA@   00435744     diagnosticsimpl.obj
 0003:0000274c       ??_C@_0M@KBJH@Acknowledge?$AA@ 0043574c     diagnosticsimpl.obj
 0003:00002758       ??_C@_08BPED@Force?5On?$AA@ 00435758     diagnosticsimpl.obj
 0003:00002764       ??_C@_09CFBJ@Force?5Off?$AA@ 00435764     diagnosticsimpl.obj
 0003:00002770       ??_C@_0BD@PLC@?$CFd?5items?5selected?4?$AA@ 00435770     diagnosticsimpl.obj
 0003:00002784       ??_C@_07PCHH@Unknown?$AA@  00435784     diagnosticsimpl.obj
 0003:0000278c       ??_C@_07FHA@Latched?$AA@   0043578c     diagnosticsimpl.obj
 0003:00002794       ??_C@_03EICH@ACK?$AA@      00435794     diagnosticsimpl.obj
 0003:00002798       ??_C@_08ENKD@Force?5ON?$AA@ 00435798     diagnosticsimpl.obj
 0003:000027a4       ??_C@_09KCKL@Force?5OFF?$AA@ 004357a4     diagnosticsimpl.obj
 0003:000027b0       ??_C@_02HAKO@ON?$AA@       004357b0     diagnosticsimpl.obj
 0003:000027b4       ??_C@_03CMJG@OFF?$AA@      004357b4     diagnosticsimpl.obj
 0003:000027b8       ??_C@_0M@FPGO@Other?5error?$AA@ 004357b8     diagnosticsimpl.obj
 0003:000027c4       ??_C@_0CC@GDJJ@Internal?5error?5during?5calculatio@ 004357c4     diagnosticsimpl.obj
 0003:000027e8       ??_C@_0BN@DMLF@Mask?5invalid?5or?5uncalculated?$AA@ 004357e8     diagnosticsimpl.obj
 0003:00002808       ??_C@_0BO@DHFL@Input?5invalid?5or?5uncalculated?$AA@ 00435808     diagnosticsimpl.obj
 0003:00002828       ??_C@_0BF@MPFD@Invalid?5process?5rule?$AA@ 00435828     diagnosticsimpl.obj
 0003:00002840       ??_C@_09LJLA@Undefined?$AA@ 00435840     diagnosticsimpl.obj
 0003:0000284c       ??_C@_03KLCE@Off?$AA@      0043584c     diagnosticsimpl.obj
 0003:00002850       ??_C@_04ELLI@?$DMbr?$DO?$AA@ 00435850     diagnosticsimpl.obj
 0003:00002858       ??_C@_0BL@EKOG@Process?5Current?5Changed?5?$CFx?$AA@ 00435858     diagnosticsimpl.obj
 0003:00002874       ??_C@_0BK@CGBJ@Process?5Selection?5Changed?$AA@ 00435874     diagnosticsimpl.obj
 0003:00002890       ??_C@_0BN@FMGB@Process?5Selection?5Changed?5?$CFx?$AA@ 00435890     diagnosticsimpl.obj
 0003:000028b0       ??_C@_0BG@MKLK@?$CF1?5processes?5selected?$AA@ 004358b0     diagnosticsimpl.obj
 0003:000028c8       ??_C@_0BE@HENB@no?5process?5selected?$AA@ 004358c8     diagnosticsimpl.obj
 0003:000028dc       ??_C@_0BN@HLFO@Copy?5to?5Process?5Input?5Filter?$AA@ 004358dc     diagnosticsimpl.obj
 0003:000028fc       ??_C@_0P@EHCE@Copy?5to?5Filter?$AA@ 004358fc     diagnosticsimpl.obj
 0003:0000290c       ??_C@_0BA@GNEL@it?4node?5?$CB?$DN?5node?$AA@ 0043590c     diagnosticsimpl.obj
 0003:0000291c       ??_C@_0P@HECP@?$CF04d_?$CF02d_?$CF02d?$AA@ 0043591c     except.obj
 0003:0000292c       ??_C@_0BE@DDIC@?$CF02d?3?$CF02d?3?$CF02d?4?$CF03d?$AA@ 0043592c     except.obj
 0003:00002940       ??_C@_0GA@NMPL@Restarting?5logging?5due?5to?5free?5s@ 00435940     except.obj
 0003:000029a0       ??_C@_0GC@FCCN@AC?3?5Stopping?5logging?5due?5to?5free@ 004359a0     except.obj
 0003:00002a04       ??_C@_01FNLH@a?$AA@        00435a04     except.obj
 0003:00002a08       ??_C@_09GIAM@?$CFs?1?$CFs?4log?$AA@ 00435a08     except.obj
 0003:00002a14       ??_C@_07BEPK@?1alarms?$AA@ 00435a14     except.obj
 0003:00002a1c       ??_C@_05HCIF@?1logs?$AA@   00435a1c     except.obj
 0003:00002a24       ??_C@_09NGBF@cc_system?$AA@ 00435a24     except.obj
 0003:00002a30       ??_C@_07FLEN@cc_root?$AA@  00435a30     except.obj
 0003:00002a38       ??_C@_0BO@NMFB@?$CF04d_?$CF02d_?$CF02d?9?$CF02d_?$CF02d_?$CF02d?$AA@ 00435a38     except.obj
 0003:00002a58       ??_R0?AVLogger@@@8         00435a58     except.obj
 0003:00002a70       ??_C@_0CH@DDGJ@Alarm?5Control?5Main?5?9?5unknown?5exc@ 00435a70     main.obj
 0003:00002a98       ??_C@_0DB@CKI@Alarm?5Control?5Main?5?9?5thrown?5exce@ 00435a98     main.obj
 0003:00002acc       ??_C@_0BM@INLP@Alarm?5Control?5Closing?4?5End?4?$AA@ 00435acc     main.obj
 0003:00002ae8       ??_C@_0BH@JIPD@Alarm?5Control?5Closing?4?$AA@ 00435ae8     main.obj
 0003:00002b00       ??_C@_04MBMK@?$CF04d?$AA@  00435b00     ModuleListViewItem.obj
 0003:00002b08       ??_C@_01PLJA@0?$AA@        00435b08     ModuleListViewItem.obj
 0003:00002b0c       ??_C@_07BNKP@?$CDc00000?$AA@ 00435b0c     ModuleListViewItem.obj
 0003:00002b14       ??_C@_02HAGF@OK?$AA@       00435b14     ModuleListViewItem.obj
 0003:00002b18       ??_C@_04MLMN@Fail?$AA@     00435b18     ModuleListViewItem.obj
 0003:00002b20       ??_C@_0BA@BLCN@DLL?5Init?5Failed?$AA@ 00435b20     ModuleListViewItem.obj
 0003:00002b30       ??_C@_07IJMD@Running?$AA@  00435b30     ModuleListViewItem.obj
 0003:00002b38       ??_C@_0N@KKGC@Initializing?$AA@ 00435b38     ModuleListViewItem.obj
 0003:00002b48       ??_C@_09FLHN@NotLoaded?$AA@ 00435b48     ModuleListViewItem.obj
 0003:00002b58       ??_R0?AVQSocketNotifier@@@8 00435b58     UDP_socket.obj
 0003:00002b78       ??_R0?AVUDP_socket@@@8     00435b78     UDP_socket.obj
 0003:00002b98       ??_R0?AVQIODevice@@@8      00435b98     UDP_socket.obj
 0003:00002bb0       ??_R0?AVQSocketDevice@@@8  00435bb0     UDP_socket.obj
 0003:00002bcc       ??_C@_0BG@BHNC@Receive?5Timer?5started?$AA@ 00435bcc     UDP_socket.obj
 0003:00002be4       ??_C@_0BF@LMKP@Notifier?5not?5created?$AA@ 00435be4     UDP_socket.obj
 0003:00002bfc       ??_C@_0BA@IGJB@2activated?$CIint?$CJ?$AA@ 00435bfc     UDP_socket.obj
 0003:00002c0c       ??_C@_0N@BHBJ@1rxData?$CIint?$CJ?$AA@ 00435c0c     UDP_socket.obj
 0003:00002c1c       ??_C@_0BN@MNHP@Can?8t?5bind?5UDP?5listen?5socket?$AA@ 00435c1c     UDP_socket.obj
 0003:00002c3c       ??_C@_0BG@FAEP@List?5of?5addresses?5is?5?$AA@ 00435c3c     UDP_socket.obj
 0003:00002c54       ??_C@_0BJ@GEFC@Can?8t?5set?5socket?5address?$AA@ 00435c54     UDP_socket.obj
 0003:00002c70       ??_C@_07IJDM@0?40?40?40?$AA@ 00435c70     UDP_socket.obj
 0003:00002c78       ??_C@_0CG@HJHB@can?8t?5set?5UDP?5sockopt?5?9?5Reuse?5ad@ 00435c78     UDP_socket.obj
 0003:00002ca0       ??_C@_0CC@DHGN@can?8t?5set?5UDP?5sockopt?5?9?5Broadcas@ 00435ca0     UDP_socket.obj
 0003:00002cc4       ??_C@_0CI@JEGH@Changing?5mastership?4?5Starting?5as@ 00435cc4     UDP_socket.obj
 0003:00002cec       ??_C@_02DCHH@NC?$AA@       00435cec     UDP_socket.obj
 0003:00002cf0       ??_C@_0BD@JGMB@Send?5Timer?5started?$AA@ 00435cf0     UDP_socket.obj
 0003:00002d04       ??_C@_0O@GJEI@set?5Status?5?$CFx?$AA@ 00435d04     UDP_socket.obj
 0003:00002d14       ??_C@_0CE@FHEE@?$CK?$CKBroadcasting?5WS?3?$CFd?5Master?3?$CFd?5?8@ 00435d14     UDP_socket.obj
 0003:00002d38       ??_C@_0BK@IIIG@client?5socket?5write?5error?$AA@ 00435d38     UDP_socket.obj
 0003:00002d54       ??_C@_0BA@HDBA@255?4255?4255?4255?$AA@ 00435d54     UDP_socket.obj
 0003:00002d64       ??_C@_01PKAG@?3?$AA@       00435d64     UDP_socket.obj
 0003:00002d68       ??_C@_0CE@HDOL@?5UNKNOWN?5MESSAGE?5CODE?5RECEIVED?5?8@ 00435d68     UDP_socket.obj
 0003:00002d8c       ??_C@_0EH@EGFJ@Changing?5mastership?4?5Going?5to?5ma@ 00435d8c     UDP_socket.obj
 0003:00002dd4       ??_C@_0P@MPIO@?5NC?4?5go?5master?$AA@ 00435dd4     UDP_socket.obj
 0003:00002de4       ??_C@_0EG@BJEL@Changing?5mastership?4?5Going?5to?5sl@ 00435de4     UDP_socket.obj
 0003:00002e2c       ??_C@_0BB@KGP@?5NO?4?5go?5to?5slave?$AA@ 00435e2c     UDP_socket.obj
 0003:00002e40       ??_C@_0FL@IBKN@?5NU?4?5Someone?5else?5is?5master?5and?5@ 00435e40     UDP_socket.obj
 0003:00002e9c       ??_C@_0EG@LBKN@Changing?5mastership?4?5Going?5to?5sl@ 00435e9c     UDP_socket.obj
 0003:00002ee4       ??_C@_0CC@EGPL@?5NU?4?5We?5were?5master?4?5Go?5to?5slave@ 00435ee4     UDP_socket.obj
 0003:00002f08       ??_C@_0EH@BAFL@Changing?5mastership?4?5Going?5to?5ma@ 00435f08     UDP_socket.obj
 0003:00002f50       ??_C@_0EA@JJAC@?5NU?4?5Someone?5else?5is?5master?5and?5@ 00435f50     UDP_socket.obj
 0003:00002f90       ??_C@_02GEHF@NU?$AA@       00435f90     UDP_socket.obj
 0003:00002f94       ??_C@_0CD@LIIM@?5NA?4?5We?5are?5slave?4?5ws?5?$CFd?5is?5mast@ 00435f94     UDP_socket.obj
 0003:00002fb8       ??_C@_02MMJD@NO?$AA@       00435fb8     UDP_socket.obj
 0003:00002fbc       ??_C@_0EO@HOJP@Received?5NA?5and?5we?8re?5not?5OK?4?5Th@ 00435fbc     UDP_socket.obj
 0003:0000300c       ??_C@_0DF@MDDN@?5NA?4?5They?5are?5not?5Ok?5too?5so?5stay@ 0043600c     UDP_socket.obj
 0003:00003044       ??_C@_0GD@HJLK@Received?5NA?$CLOK?5and?5we?8re?5not?5OK?4@ 00436044     UDP_socket.obj
 0003:000030a8       ??_C@_0DH@CPGI@?5NA?4?5We?5are?5failing?5so?5going?5to?5@ 004360a8     UDP_socket.obj
 0003:000030e0       ??_C@_0EL@FALJ@Received?5NA?5and?5we?8re?5OK?4?5We?5are@ 004360e0     UDP_socket.obj
 0003:0000312c       ??_C@_0DG@FHPD@?5NA?4?5We?5are?5master?5?9?5tell?5other?5@ 0043612c     UDP_socket.obj
 0003:00003164       ??_C@_02GHFJ@NA?$AA@       00436164     UDP_socket.obj
 0003:00003168       ??_C@_0DB@BJJG@Received?5Data?5is?5?8?$CFs?8?4?5Address?5?$CF@ 00436168     UDP_socket.obj
 0003:0000319c       ??_C@_0DK@CIJI@Received?5Data?5is?5?8?$CFs?8?4?5Not?5my?5ch@ 0043619c     UDP_socket.obj
 0003:000031d8       ??_C@_0DI@IEMK@Received?5Data?5is?5?8?$CFs?8?4?5It?8s?5from@ 004361d8     UDP_socket.obj
 0003:00003210       ??_C@_0EA@PHIB@Received?5Data?5is?5?8?$CFs?8?4?5Not?5our?5a@ 00436210     UDP_socket.obj
 0003:00003250       ??_C@_0DN@NKCP@Received?5Data?5is?5?8?$CFs?8?4?5Not?5our?5C@ 00436250     UDP_socket.obj
 0003:00003290       ??_C@_0DO@CKNE@Received?5Data?5is?5?8?$CFs?8?4?5Not?5curre@ 00436290     UDP_socket.obj
 0003:000032d0       ??_C@_0CK@NLLC@?5Rx?5Timer?4?5We?5are?5master?4?5Master@ 004362d0     UDP_socket.obj
 0003:000032fc       ??_C@_0EM@KPAI@Changing?5mastership?4?5Going?5to?5ma@ 004362fc     UDP_socket.obj
 0003:00003348       ??_C@_0FN@CDKC@?5Rx?5Timer?4?5Ws?5?$CFd?5is?5master?4?5No?5m@ 00436348     UDP_socket.obj
 0003:000033a8       ??_C@_0BL@DFFM@?5Rx?5Timer?4?5Master?5ws?5is?5?$CFd?$AA@ 004363a8     UDP_socket.obj
 0003:000033c4       ??_C@_0CE@LALC@?5Tx?5Timer?4?5Slave?4?5?$CIws?5?$CFd?5is?5mast@ 004363c4     UDP_socket.obj
 0003:000033e8       ??_C@_0CF@IELC@?5Tx?5Timer?4?5Master?5?$CL?5Unhappy?4?5Sen@ 004363e8     UDP_socket.obj
 0003:00003410       ??_C@_0CD@HBLG@?5Tx?5Timer?4?5Master?5?$CL?5Happy?4?5Send?5@ 00436410     UDP_socket.obj
 0003:00003434       ??_C@_04EGEE@UDP?3?$AA@    00436434     UDP_socket.obj
 0003:0000343c       ??_C@_0CD@CPMI@Forcing?5Rx?5Only?0?5from?5?$CFd?4?5Send?5N@ 0043643c     UDP_socket.obj
 0003:00003460       ??_R0?AVQTextEdit@@@8      00436460     alarmcontrolmainwindowbase.obj
 0003:00003478       ??_R0?AVQScrollView@@@8    00436478     alarmcontrolmainwindowbase.obj
 0003:00003498       ??_R0?AVQListView@@@8      00436498     alarmcontrolmainwindowbase.obj
 0003:000034b0       ??_R0?AVQSplitter@@@8      004364b0     alarmcontrolmainwindowbase.obj
 0003:000034c8       ??_R0?AVQGroupBox@@@8      004364c8     alarmcontrolmainwindowbase.obj
 0003:000034e0       ??_R0?AVQButtonGroup@@@8   004364e0     alarmcontrolmainwindowbase.obj
 0003:00003500       ??_R0?AVQButton@@@8        00436500     alarmcontrolmainwindowbase.obj
 0003:00003518       ??_R0?AVQPushButton@@@8    00436518     alarmcontrolmainwindowbase.obj
 0003:00003538       ??_R0?AVQLabel@@@8         00436538     alarmcontrolmainwindowbase.obj
 0003:00003550       ??_R0?AVQVBoxLayout@@@8    00436550     alarmcontrolmainwindowbase.obj
 0003:00003570       ??_R0?AVQLayout@@@8        00436570     alarmcontrolmainwindowbase.obj
 0003:00003588       ??_R0?AVQBoxLayout@@@8     00436588     alarmcontrolmainwindowbase.obj
 0003:000035a8       ??_R0?AVQHBoxLayout@@@8    004365a8     alarmcontrolmainwindowbase.obj
 0003:000035c8       ??_R0?AVQLayoutItem@@@8    004365c8     alarmcontrolmainwindowbase.obj
 0003:000035e8       ??_R0?AVQSpacerItem@@@8    004365e8     alarmcontrolmainwindowbase.obj
 0003:00003604       ??_C@_0N@BIJN@textEditLogs?$AA@ 00436604     alarmcontrolmainwindowbase.obj
 0003:00003614       ??_C@_0P@DLKL@textConfigName?$AA@ 00436614     alarmcontrolmainwindowbase.obj
 0003:00003624       ??_C@_0BA@GGLO@textLabelModule?$AA@ 00436624     alarmcontrolmainwindowbase.obj
 0003:00003634       ??_C@_0N@OJLK@textLabel1_3?$AA@ 00436634     alarmcontrolmainwindowbase.obj
 0003:00003644       ??_C@_07MHED@layout3?$AA@  00436644     alarmcontrolmainwindowbase.obj
 0003:0000364c       ??_C@_07GNBP@layout7?$AA@  0043664c     alarmcontrolmainwindowbase.obj
 0003:00003654       ??_C@_08NLA@Progress?$AA@  00436654     alarmcontrolmainwindowbase.obj
 0003:00003660       ??_C@_0L@KFHL@Last?5Event?$AA@ 00436660     alarmcontrolmainwindowbase.obj
 0003:0000366c       ??_C@_06IOLI@Status?$AA@   0043666c     alarmcontrolmainwindowbase.obj
 0003:00003674       ??_C@_07EIMM@RxCount?$AA@  00436674     alarmcontrolmainwindowbase.obj
 0003:0000367c       ??_C@_08IFAC@Tx?5Count?$AA@ 0043667c     alarmcontrolmainwindowbase.obj
 0003:00003688       ??_C@_06OELI@Config?$AA@   00436688     alarmcontrolmainwindowbase.obj
 0003:00003690       ??_C@_08ICOJ@Instance?$AA@ 00436690     alarmcontrolmainwindowbase.obj
 0003:0000369c       ??_C@_04FCOP@Type?$AA@     0043669c     alarmcontrolmainwindowbase.obj
 0003:000036a4       ??_C@_09DLGF@lvModules?$AA@ 004366a4     alarmcontrolmainwindowbase.obj
 0003:000036b0       ??_C@_09JCFH@splitter2?$AA@ 004366b0     alarmcontrolmainwindowbase.obj
 0003:000036bc       ??_C@_0BC@EAPF@textProcessCycles?$AA@ 004366bc     alarmcontrolmainwindowbase.obj
 0003:000036d0       ??_C@_0O@IIPF@textLabel10_2?$AA@ 004366d0     alarmcontrolmainwindowbase.obj
 0003:000036e0       ??_C@_0O@PJCH@textLoopcount?$AA@ 004366e0     alarmcontrolmainwindowbase.obj
 0003:000036f0       ??_C@_0M@GFDE@textLabel10?$AA@ 004366f0     alarmcontrolmainwindowbase.obj
 0003:000036fc       ??_C@_0BC@IOHC@m_pqLabelProgress?$AA@ 004366fc     alarmcontrolmainwindowbase.obj
 0003:00003710       ??_C@_0N@LMFP@textLabel1_4?$AA@ 00436710     alarmcontrolmainwindowbase.obj
 0003:00003720       ??_C@_0BB@HFPJ@textProcessCount?$AA@ 00436720     alarmcontrolmainwindowbase.obj
 0003:00003734       ??_C@_0O@CCGC@textLabel10_3?$AA@ 00436734     alarmcontrolmainwindowbase.obj
 0003:00003744       ??_C@_0N@DBJO@buttonGroup1?$AA@ 00436744     alarmcontrolmainwindowbase.obj
 0003:00003754       ??_C@_0L@OKBO@textSystem?$AA@ 00436754     alarmcontrolmainwindowbase.obj
 0003:00003760       ??_C@_0N@LNLE@pushGreening?$AA@ 00436760     alarmcontrolmainwindowbase.obj
 0003:00003770       ??_C@_0M@BKAC@pushRedding?$AA@ 00436770     alarmcontrolmainwindowbase.obj
 0003:0000377c       ??_C@_0N@EDCN@textLabel1_2?$AA@ 0043677c     alarmcontrolmainwindowbase.obj
 0003:0000378c       ??_C@_07JCKG@layout4?$AA@  0043678c     alarmcontrolmainwindowbase.obj
 0003:00003794       ??_C@_05CNHG@Arial?$AA@    00436794     alarmcontrolmainwindowbase.obj
 0003:0000379c       ??_C@_0N@MBAM@textTxRxMode?$AA@ 0043679c     alarmcontrolmainwindowbase.obj
 0003:000037ac       ??_C@_0P@IGPK@textLabel1_2_2?$AA@ 004367ac     alarmcontrolmainwindowbase.obj
 0003:000037bc       ??_C@_0L@KEKH@textLabel1?$AA@ 004367bc     alarmcontrolmainwindowbase.obj
 0003:000037c8       ??_C@_08DAC@layout10?$AA@  004367c8     alarmcontrolmainwindowbase.obj
 0003:000037d4       ??_C@_0CB@INII@AlarmControlMainWindowBaseLayout@ 004367d4     alarmcontrolmainwindowbase.obj
 0003:000037f8       ??_C@_0BC@OAFG@qt_central_widget?$AA@ 004367f8     alarmcontrolmainwindowbase.obj
 0003:0000380c       ??_C@_0BL@FJIA@AlarmControlMainWindowBase?$AA@ 0043680c     alarmcontrolmainwindowbase.obj
 0003:00003828       ??_C@_09NHGH@Logs?5from?$AA@ 00436828     alarmcontrolmainwindowbase.obj
 0003:00003834       ??_C@_0P@FEML@Process?5Cycles?$AA@ 00436834     alarmcontrolmainwindowbase.obj
 0003:00003844       ??_C@_0BA@BBFE@Calc?5Loop?5Count?$AA@ 00436844     alarmcontrolmainwindowbase.obj
 0003:00003854       ??_C@_04COF@None?$AA@      00436854     alarmcontrolmainwindowbase.obj
 0003:0000385c       ??_C@_0BE@FKJP@Number?5of?5Processes?$AA@ 0043685c     alarmcontrolmainwindowbase.obj
 0003:00003870       ??_C@_0M@EBGO@Calculation?$AA@ 00436870     alarmcontrolmainwindowbase.obj
 0003:0000387c       ??_C@_0BH@EMC@?$DMh2?$DOSystem?$DMb?$DO?$DM?1b?$DO?$DM?1h2?$DO?$AA@ 0043687c     alarmcontrolmainwindowbase.obj
 0003:00003894       ??_C@_0BK@GJEE@?$DMh3?$DOTxRx?5Mode?$DMb?$DO?$DM?1b?$DO?$DM?1h3?$DO?$AA@ 00436894     alarmcontrolmainwindowbase.obj
 0003:000038b0       ??_C@_0CC@JDPN@?$DMh2?$DOBNCS?5Alarm?5System?$DMb?$DO?$DM?1b?$DO?$DM?1h2@ 004368b0     alarmcontrolmainwindowbase.obj
 0003:000038d8       ??_R0?AVQLineEdit@@@8      004368d8     diagnostics.obj
 0003:000038f0       ??_R0?AVQGridLayout@@@8    004368f0     diagnostics.obj
 0003:0000390c       ??_C@_0BN@CANE@Warning?5?9?5Invalid?5processes?$CB?$AA@ 0043690c     diagnostics.obj
 0003:0000392c       ??_C@_0BJ@GOAA@listViewInvalidProcesses?$AA@ 0043692c     diagnostics.obj
 0003:00003948       ??_C@_0BC@JFIL@pushAckContribAll?$AA@ 00436948     diagnostics.obj
 0003:0000395c       ??_C@_0BE@FK@pushAckContribImmed?$AA@ 0043695c     diagnostics.obj
 0003:00003970       ??_C@_09JAIG@pushClear?$AA@ 00436970     diagnostics.obj
 0003:0000397c       ??_C@_0L@HCGP@pushAckAll?$AA@ 0043697c     diagnostics.obj
 0003:00003988       ??_C@_0L@IPDM@pushNormal?$AA@ 00436988     diagnostics.obj
 0003:00003994       ??_C@_0L@IHNL@pushIgnore?$AA@ 00436994     diagnostics.obj
 0003:000039a0       ??_C@_07CPKP@pushAck?$AA@  004369a0     diagnostics.obj
 0003:000039a8       ??_C@_0M@BCED@pushForceOn?$AA@ 004369a8     diagnostics.obj
 0003:000039b4       ??_C@_0N@HKBE@pushForceOff?$AA@ 004369b4     diagnostics.obj
 0003:000039c4       ??_C@_09BGEL@labelMask?$AA@ 004369c4     diagnostics.obj
 0003:000039d0       ??_C@_0O@KCCO@textLabelMask?$AA@ 004369d0     diagnostics.obj
 0003:000039e0       ??_C@_0P@KHMF@labelProcState?$AA@ 004369e0     diagnostics.obj
 0003:000039f0       ??_C@_0O@DGKL@labelProcName?$AA@ 004369f0     diagnostics.obj
 0003:00003a00       ??_C@_07MGNF@layout9?$AA@  00436a00     diagnostics.obj
 0003:00003a08       ??_C@_0M@KEPJ@Error?5Cause?$AA@ 00436a08     diagnostics.obj
 0003:00003a14       ??_C@_08GDIB@lvErrors?$AA@ 00436a14     diagnostics.obj
 0003:00003a20       ??_C@_07GMEC@layout8?$AA@  00436a20     diagnostics.obj
 0003:00003a28       ??_C@_04CJOG@Mask?$AA@     00436a28     diagnostics.obj
 0003:00003a30       ??_C@_0L@FGIK@State?5Name?$AA@ 00436a30     diagnostics.obj
 0003:00003a3c       ??_C@_05PILG@State?$AA@    00436a3c     diagnostics.obj
 0003:00003a44       ??_C@_04NALL@Rule?$AA@     00436a44     diagnostics.obj
 0003:00003a4c       ??_C@_0N@JNPG@Process?5Name?$AA@ 00436a4c     diagnostics.obj
 0003:00003a5c       ??_C@_0P@JIHM@Process?5Number?$AA@ 00436a5c     diagnostics.obj
 0003:00003a6c       ??_C@_0M@LBGL@lvProcesses?$AA@ 00436a6c     diagnostics.obj
 0003:00003a78       ??_C@_0P@DFGM@pushFilterBack?$AA@ 00436a78     diagnostics.obj
 0003:00003a88       ??_C@_0BL@JBF@lineEditProcessInputFilter?$AA@ 00436a88     diagnostics.obj
 0003:00003aa4       ??_C@_0BF@CCFN@textLabelInputFilter?$AA@ 00436aa4     diagnostics.obj
 0003:00003abc       ??_C@_0P@JIHH@lineEditFilter?$AA@ 00436abc     diagnostics.obj
 0003:00003acc       ??_C@_0BA@JCGN@textLabelFilter?$AA@ 00436acc     diagnostics.obj
 0003:00003adc       ??_C@_08DMJ@layout15?$AA@  00436adc     diagnostics.obj
 0003:00003ae8       ??_C@_0L@FMOO@TextLabel1?$AA@ 00436ae8     diagnostics.obj
 0003:00003af4       ??_C@_0BG@MOI@diagnosticsBaseLayout?$AA@ 00436af4     diagnostics.obj
 0003:00003b0c       ??_C@_0BA@EMJB@diagnosticsBase?$AA@ 00436b0c     diagnostics.obj
 0003:00003b1c       ??_C@_0N@PABP@Change?5State?$AA@ 00436b1c     diagnostics.obj
 0003:00003b2c       ??_C@_0O@IIKG@Current?5State?$AA@ 00436b2c     diagnostics.obj
 0003:00003b3c       ??_C@_0BK@GAJL@?$DMh2?$DOSelected?5Process?$DM?1h2?$DO?$AA@ 00436b3c     diagnostics.obj
 0003:00003b58       ??_C@_0BH@HAF@Uncalculated?5processes?$AA@ 00436b58     diagnostics.obj
 0003:00003b70       ??_C@_02FFHB@?$DM?$DM?$AA@ 00436b70     diagnostics.obj
 0003:00003b74       ??_C@_0BF@NHNI@Process?5Input?5Filter?$AA@ 00436b74     diagnostics.obj
 0003:00003b8c       ??_C@_06GOOB@Filter?$AA@   00436b8c     diagnostics.obj
 0003:00003b94       ??_C@_0BL@ONFK@Process?5diagnostics?5screen?$AA@ 00436b94     diagnostics.obj
 0003:00003bb0       ??_C@_0M@CPD@diagnostics?$AA@ 00436bb0     diagnostics.obj
 0003:00003bbc       ??_C@_0BG@IJJO@Debug?$CIconst?5QString?$CG?$CJ?$AA@ 00436bbc     moc_alarmcontrolmainwindow.obj
 0003:00003bd4       ??_C@_0O@IELB@forceRxOnly?$CI?$CJ?$AA@ 00436bd4     moc_alarmcontrolmainwindow.obj
 0003:00003be4       ??_C@_0BC@MCHC@restartAllPolls?$CI?$CJ?$AA@ 00436be4     moc_alarmcontrolmainwindow.obj
 0003:00003bf8       ??_C@_0DH@MJIJ@contextMenuRequested?$CIQListViewIt@ 00436bf8     moc_alarmcontrolmainwindow.obj
 0003:00003c30       ??_C@_0BM@DKMP@StartExtraNetworkActivity?$CI?$CJ?$AA@ 00436c30     moc_alarmcontrolmainwindow.obj
 0003:00003c4c       ??_C@_0BB@CBEI@reddingClicked?$CI?$CJ?$AA@ 00436c4c     moc_alarmcontrolmainwindow.obj
 0003:00003c60       ??_C@_0BC@OIAA@greeningClicked?$CI?$CJ?$AA@ 00436c60     moc_alarmcontrolmainwindow.obj
 0003:00003c74       ??_C@_0O@BAIL@SwitchDebug?$CI?$CJ?$AA@ 00436c74     moc_alarmcontrolmainwindow.obj
 0003:00003c84       ??_C@_0L@HJGC@LogOn?$CIint?$CJ?$AA@ 00436c84     moc_alarmcontrolmainwindow.obj
 0003:00003c90       ??_C@_0N@NOHD@UpdateTxRx?$CI?$CJ?$AA@ 00436c90     moc_alarmcontrolmainwindow.obj
 0003:00003ca0       ??_C@_0BE@JKML@UpdateDisplaySlow?$CI?$CJ?$AA@ 00436ca0     moc_alarmcontrolmainwindow.obj
 0003:00003cb4       ??_C@_0BE@DOLB@UpdateDisplayFast?$CI?$CJ?$AA@ 00436cb4     moc_alarmcontrolmainwindow.obj
 0003:00003cc8       ??_C@_0N@CDME@DebugClear?$CI?$CJ?$AA@ 00436cc8     moc_alarmcontrolmainwindow.obj
 0003:00003cd8       ??_C@_09MML@DebugOn?$CI?$CJ?$AA@ 00436cd8     moc_alarmcontrolmainwindow.obj
 0003:00003ce4       ??_C@_0BA@MLB@DebugMenuShow?$CI?$CJ?$AA@ 00436ce4     moc_alarmcontrolmainwindow.obj
 0003:00003cf4       ??_C@_07LLFA@about?$CI?$CJ?$AA@ 00436cf4     moc_alarmcontrolmainwindow.obj
 0003:00003cfc       ??_C@_0O@PNBC@testGetData?$CI?$CJ?$AA@ 00436cfc     moc_alarmcontrolmainwindow.obj
 0003:00003d0c       ??_C@_0M@JFOA@printData?$CI?$CJ?$AA@ 00436d0c     moc_alarmcontrolmainwindow.obj
 0003:00003d18       ??_C@_0BP@OFDD@changeSelected?$CIQListViewItem?$CK?$CJ?$AA@ 00436d18     moc_alarmcontrolmainwindow.obj
 0003:00003d38       ??_C@_0BB@PDEJ@changeSelected?$CI?$CJ?$AA@ 00436d38     moc_alarmcontrolmainwindow.obj
 0003:00003d4c       ??_C@_0BA@ONEM@diagnosticsOn?$CI?$CJ?$AA@ 00436d4c     moc_alarmcontrolmainwindow.obj
 0003:00003d5c       ??_C@_0L@NHDE@diagHide?$CI?$CJ?$AA@ 00436d5c     moc_alarmcontrolmainwindow.obj
 0003:00003d68       ??_C@_0CI@LDJF@findFilterProcess?$CIconst?5QString?$CG@ 00436d68     moc_alarmcontrolmainwindow.obj
 0003:00003d90       ??_C@_0BC@NIEK@updateProcesses?$CI?$CJ?$AA@ 00436d90     moc_alarmcontrolmainwindow.obj
 0003:00003da4       ??_C@_0CN@CALG@updateDiagnosticsProcess?$CIQListVi@ 00436da4     moc_alarmcontrolmainwindow.obj
 0003:00003dd4       ??_C@_0BK@GKDN@UpdateDiagnosticsScreen?$CI?$CJ?$AA@ 00436dd4     moc_alarmcontrolmainwindow.obj
 0003:00003df0       ??_C@_0CH@CPHO@diagForceState?$CIint?0const?5QString@ 00436df0     moc_alarmcontrolmainwindow.obj
 0003:00003e18       ??_C@_07PKEH@Dummy?$CI?$CJ?$AA@ 00436e18     moc_alarmcontrolmainwindow.obj
 0003:00003e20       ??_C@_05FPNF@Debug?$AA@    00436e20     moc_alarmcontrolmainwindow.obj
 0003:00003e28       ??_C@_0BA@ICIO@restartAllPolls?$AA@ 00436e28     moc_alarmcontrolmainwindow.obj
 0003:00003e38       ??_C@_0BF@HMMN@contextMenuRequested?$AA@ 00436e38     moc_alarmcontrolmainwindow.obj
 0003:00003e50       ??_C@_0BK@FFBC@StartExtraNetworkActivity?$AA@ 00436e50     moc_alarmcontrolmainwindow.obj
 0003:00003e6c       ??_C@_0P@FJBK@reddingClicked?$AA@ 00436e6c     moc_alarmcontrolmainwindow.obj
 0003:00003e7c       ??_C@_0BA@EOO@greeningClicked?$AA@ 00436e7c     moc_alarmcontrolmainwindow.obj
 0003:00003e8c       ??_C@_0M@OCLE@SwitchDebug?$AA@ 00436e8c     moc_alarmcontrolmainwindow.obj
 0003:00003e98       ??_C@_05PNFC@LogOn?$AA@    00436e98     moc_alarmcontrolmainwindow.obj
 0003:00003ea0       ??_C@_0L@MMEJ@UpdateTxRx?$AA@ 00436ea0     moc_alarmcontrolmainwindow.obj
 0003:00003eac       ??_C@_0BC@BJ@UpdateDisplaySlow?$AA@ 00436eac     moc_alarmcontrolmainwindow.obj
 0003:00003ec0       ??_C@_0BC@BFDF@UpdateDisplayFast?$AA@ 00436ec0     moc_alarmcontrolmainwindow.obj
 0003:00003ed4       ??_C@_0L@GIML@DebugClear?$AA@ 00436ed4     moc_alarmcontrolmainwindow.obj
 0003:00003ee0       ??_C@_07NAL@DebugOn?$AA@   00436ee0     moc_alarmcontrolmainwindow.obj
 0003:00003ee8       ??_C@_0O@IPPM@DebugMenuShow?$AA@ 00436ee8     moc_alarmcontrolmainwindow.obj
 0003:00003ef8       ??_C@_05FNEB@about?$AA@    00436ef8     moc_alarmcontrolmainwindow.obj
 0003:00003f00       ??_C@_0M@OHNP@testGetData?$AA@ 00436f00     moc_alarmcontrolmainwindow.obj
 0003:00003f0c       ??_C@_09LLO@printData?$AA@ 00436f0c     moc_alarmcontrolmainwindow.obj
 0003:00003f88       ??_C@_04MPOO@item?$AA@     00436f88     moc_alarmcontrolmainwindow.obj
 0003:00003f90       ??_C@_0P@COIG@changeSelected?$AA@ 00436f90     moc_alarmcontrolmainwindow.obj
 0003:00003fa0       ??_C@_0O@IIAN@diagnosticsOn?$AA@ 00436fa0     moc_alarmcontrolmainwindow.obj
 0003:00003fb0       ??_C@_08IOPP@diagHide?$AA@ 00436fb0     moc_alarmcontrolmainwindow.obj
 0003:00003fbc       ??_C@_0BC@NGBA@findFilterProcess?$AA@ 00436fbc     moc_alarmcontrolmainwindow.obj
 0003:00003fd0       ??_C@_04LHJL@text?$AA@     00436fd0     moc_alarmcontrolmainwindow.obj
 0003:00003fd8       ??_C@_0BA@LNLJ@updateProcesses?$AA@ 00436fd8     moc_alarmcontrolmainwindow.obj
 0003:00003fe8       ??_C@_0BJ@NKAM@updateDiagnosticsProcess?$AA@ 00436fe8     moc_alarmcontrolmainwindow.obj
 0003:00004004       ??_C@_03HEDO@lvi?$AA@      00437004     moc_alarmcontrolmainwindow.obj
 0003:00004008       ??_C@_0BI@FMBO@UpdateDiagnosticsScreen?$AA@ 00437008     moc_alarmcontrolmainwindow.obj
 0003:00004020       ??_C@_0P@FHNL@diagForceState?$AA@ 00437020     moc_alarmcontrolmainwindow.obj
 0003:00004030       ??_C@_0M@OFGL@iForceState?$AA@ 00437030     moc_alarmcontrolmainwindow.obj
 0003:0000403c       ??_C@_05PJGH@Dummy?$AA@    0043703c     moc_alarmcontrolmainwindow.obj
 0003:00004044       ??_C@_0BH@KIIK@AlarmControlMainWindow?$AA@ 00437044     moc_alarmcontrolmainwindow.obj
 0003:0000405c       ??_C@_01KLMK@?$AO?$AA@     0043705c     moc_alarmcontrolmainwindow.obj
 0003:00004060       ??_C@_07KDML@bFilled?$AA@  00437060     moc_alarmcontrolmainwindow.obj
 0003:00004068       ??_C@_07NBNA@iProcNo?$AA@  00437068     moc_alarmcontrolmainwindow.obj
 0003:00004070       ??_C@_0O@GBOH@QListViewItem?$AA@ 00437070     moc_alarmcontrolmainwindow.obj
 0003:00004080       ??_C@_01KKFM@?$AE?$AA@     00437080     moc_alarmcontrolmainwindow.obj
 0003:00004084       ??_C@_0M@OCDG@slProcNames?$AA@ 00437084     moc_alarmcontrolmainwindow.obj
 0003:00004090       ??_C@_0BB@MOGM@languageChange?$CI?$CJ?$AA@ 00437090     moc_alarmcontrolmainwindowbase.obj
 0003:000040a4       ??_C@_0P@COD@languageChange?$AA@ 004370a4     moc_alarmcontrolmainwindowbase.obj
 0003:000040b4       ??_C@_0N@HGDE@diagHidden?$CI?$CJ?$AA@ 004370b4     moc_diagnosticsimpl.obj
 0003:00004178       ??_C@_0L@CGPG@diagHidden?$AA@ 00437178     moc_diagnosticsimpl.obj
 0003:00004184       ??_C@_0BB@MIDH@diagFilterBack?$CI?$CJ?$AA@ 00437184     moc_diagnosticsimpl.obj
 0003:00004198       ??_C@_0CK@HHMJ@diagSetProcessInputFilter?$CIconst?5@ 00437198     moc_diagnosticsimpl.obj
 0003:000041c4       ??_C@_0BO@LJPC@diagSetFilter?$CIconst?5QString?$CG?$CJ?$AA@ 004371c4     moc_diagnosticsimpl.obj
 0003:000041e4       ??_C@_0CM@HELM@diagProcessSelectionChanged?$CIQLis@ 004371e4     moc_diagnosticsimpl.obj
 0003:00004210       ??_C@_0BO@LNEL@diagProcessSelectionChanged?$CI?$CJ?$AA@ 00437210     moc_diagnosticsimpl.obj
 0003:00004230       ??_C@_0CK@PNML@diagProcessCurrentChanged?$CIQListV@ 00437230     moc_diagnosticsimpl.obj
 0003:0000425c       ??_C@_0BJ@JBMG@enableStateButtons?$CIbool?$CJ?$AA@ 0043725c     moc_diagnosticsimpl.obj
 0003:00004278       ??_C@_0BG@ONKE@disableStateButtons?$CI?$CJ?$AA@ 00437278     moc_diagnosticsimpl.obj
 0003:00004290       ??_C@_0CJ@OOAK@diagProcessDoubleClicked?$CIQListVi@ 00437290     moc_diagnosticsimpl.obj
 0003:000042bc       ??_C@_0BE@PDEH@diagForceState?$CIint?$CJ?$AA@ 004372bc     moc_diagnosticsimpl.obj
 0003:000042d0       ??_C@_0BJ@NBFK@diagForceAckContribAll?$CI?$CJ?$AA@ 004372d0     moc_diagnosticsimpl.obj
 0003:000042ec       ??_C@_0BL@IICA@diagForceAckContribImmed?$CI?$CJ?$AA@ 004372ec     moc_diagnosticsimpl.obj
 0003:00004308       ??_C@_0BB@CGJA@diagForceClear?$CI?$CJ?$AA@ 00437308     moc_diagnosticsimpl.obj
 0003:0000431c       ??_C@_0BC@NLJN@diagForceAckAll?$CI?$CJ?$AA@ 0043731c     moc_diagnosticsimpl.obj
 0003:00004330       ??_C@_0P@BAD@diagForceOff?$CI?$CJ?$AA@ 00437330     moc_diagnosticsimpl.obj
 0003:00004340       ??_C@_0O@JOIP@diagForceOn?$CI?$CJ?$AA@ 00437340     moc_diagnosticsimpl.obj
 0003:00004350       ??_C@_0P@PKBF@diagForceAck?$CI?$CJ?$AA@ 00437350     moc_diagnosticsimpl.obj
 0003:00004360       ??_C@_0BC@EEDO@diagForceIgnore?$CI?$CJ?$AA@ 00437360     moc_diagnosticsimpl.obj
 0003:00004374       ??_C@_0BC@NBOH@diagForceNormal?$CI?$CJ?$AA@ 00437374     moc_diagnosticsimpl.obj
 0003:00004388       ??_C@_0BJ@CFBD@timerEvent?$CIQTimerEvent?$CK?$CJ?$AA@ 00437388     moc_diagnosticsimpl.obj
 0003:000043a4       ??_C@_07CIPD@dummy?$CI?$CJ?$AA@ 004373a4     moc_diagnosticsimpl.obj
 0003:000043ac       ??_C@_0P@KNJF@diagFilterBack?$AA@ 004373ac     moc_diagnosticsimpl.obj
 0003:000043bc       ??_C@_0BK@EDMJ@diagSetProcessInputFilter?$AA@ 004373bc     moc_diagnosticsimpl.obj
 0003:000043d8       ??_C@_0O@JFKM@diagSetFilter?$AA@ 004373d8     moc_diagnosticsimpl.obj
 0003:000043e8       ??_C@_0BM@IEOO@diagProcessSelectionChanged?$AA@ 004373e8     moc_diagnosticsimpl.obj
 0003:00004404       ??_C@_0BK@GIHK@diagProcessCurrentChanged?$AA@ 00437404     moc_diagnosticsimpl.obj
 0003:00004420       ??_C@_0BD@HHKE@enableStateButtons?$AA@ 00437420     moc_diagnosticsimpl.obj
 0003:00004434       ??_C@_05OMAN@input?$AA@    00437434     moc_diagnosticsimpl.obj
 0003:0000443c       ??_C@_0BE@PHPF@disableStateButtons?$AA@ 0043743c     moc_diagnosticsimpl.obj
 0003:00004450       ??_C@_0BJ@IOPE@diagProcessDoubleClicked?$AA@ 00437450     moc_diagnosticsimpl.obj
 0003:0000446c       ??_C@_0BH@LPAN@diagForceAckContribAll?$AA@ 0043746c     moc_diagnosticsimpl.obj
 0003:00004484       ??_C@_0BJ@FHG@diagForceAckContribImmed?$AA@ 00437484     moc_diagnosticsimpl.obj
 0003:000044a0       ??_C@_0P@LIFJ@diagForceClear?$AA@ 004374a0     moc_diagnosticsimpl.obj
 0003:000044b0       ??_C@_0BA@FEH@diagForceAckAll?$AA@ 004374b0     moc_diagnosticsimpl.obj
 0003:000044c0       ??_C@_0N@PLLC@diagForceOff?$AA@ 004374c0     moc_diagnosticsimpl.obj
 0003:000044d0       ??_C@_0M@LEBA@diagForceOn?$AA@ 004374d0     moc_diagnosticsimpl.obj
 0003:000044dc       ??_C@_0N@JPAD@diagForceAck?$AA@ 004374dc     moc_diagnosticsimpl.obj
 0003:000044ec       ??_C@_0BA@PAPD@diagForceIgnore?$AA@ 004374ec     moc_diagnosticsimpl.obj
 0003:000044fc       ??_C@_0BA@PIBE@diagForceNormal?$AA@ 004374fc     moc_diagnosticsimpl.obj
 0003:0000450c       ??_C@_0L@GALL@timerEvent?$AA@ 0043750c     moc_diagnosticsimpl.obj
 0003:00004518       ??_C@_01PHOL@e?$AA@        00437518     moc_diagnosticsimpl.obj
 0003:0000451c       ??_C@_05PNMN@dummy?$AA@    0043751c     moc_diagnosticsimpl.obj
 0003:00004524       ??_C@_0L@KKCL@sProcNames?$AA@ 00437524     moc_diagnosticsimpl.obj
 0003:00004530       ??_C@_0M@HJHB@QTimerEvent?$AA@ 00437530     moc_diagnosticsimpl.obj
 0003:0000453c       ??_C@_0M@BJAK@rxData?$CIint?$CJ?$AA@ 0043753c     moc_UDP_socket.obj
 0003:00004548       ??_C@_06OFCJ@rxData?$AA@   00437548     moc_UDP_socket.obj
 0003:00004560       ??_C@_01KBOJ@s?$AA@        00437560     moc_UDP_socket.obj
 0003:00004564       ??_C@_0L@PMJH@UDP_socket?$AA@ 00437564     moc_UDP_socket.obj
 0003:00004570       ??_C@_0CA@NIKF@?2StringFileInfo?2?$CFs?2SpecialBuild?$AA@ 00437570     bncsversioninfo:cBncsVersion.obj
 0003:00004590       ??_C@_0CE@CKA@?2StringFileInfo?2?$CFs?2OriginalFileN@ 00437590     bncsversioninfo:cBncsVersion.obj
 0003:000045b4       ??_C@_0CA@BBDI@?2StringFileInfo?2?$CFs?2PrivateBuild?$AA@ 004375b4     bncsversioninfo:cBncsVersion.obj
 0003:000045d4       ??_C@_0CD@GCNL@?2StringFileInfo?2?$CFs?2LegalTradeMar@ 004375d4     bncsversioninfo:cBncsVersion.obj
 0003:000045f8       ??_C@_0CC@KILK@?2StringFileInfo?2?$CFs?2ProductVersio@ 004375f8     bncsversioninfo:cBncsVersion.obj
 0003:0000461c       ??_C@_0CC@OKGI@?2StringFileInfo?2?$CFs?2LegalCopyrigh@ 0043761c     bncsversioninfo:cBncsVersion.obj
 0003:00004640       ??_C@_0BP@HFNO@?2StringFileInfo?2?$CFs?2CompanyName?$AA@ 00437640     bncsversioninfo:cBncsVersion.obj
 0003:00004660       ??_C@_0BP@OKDL@?2StringFileInfo?2?$CFs?2ProductName?$AA@ 00437660     bncsversioninfo:cBncsVersion.obj
 0003:00004680       ??_C@_0CA@FECA@?2StringFileInfo?2?$CFs?2InternalName?$AA@ 00437680     bncsversioninfo:cBncsVersion.obj
 0003:000046a0       ??_C@_0BM@IIGK@?2StringFileInfo?2?$CFs?2Comments?$AA@ 004376a0     bncsversioninfo:cBncsVersion.obj
 0003:000046bc       ??_C@_0CD@LFKN@?2StringFileInfo?2?$CFs?2FileDescripti@ 004376bc     bncsversioninfo:cBncsVersion.obj
 0003:000046e0       ??_C@_01KMAE@?0?$AA@       004376e0     bncsversioninfo:cBncsVersion.obj
 0003:000046e4       ??_C@_0BP@EOHM@?2StringFileInfo?2?$CFs?2FileVersion?$AA@ 004376e4     bncsversioninfo:cBncsVersion.obj
 0003:00004704       ??_C@_08CALL@?$CF04X?$CF04X?$AA@ 00437704     bncsversioninfo:cBncsVersion.obj
 0003:00004710       ??_C@_0BJ@KCFH@?2VarFileInfo?2Translation?$AA@ 00437710     bncsversioninfo:cBncsVersion.obj
 0003:00004730       ??_R0?AVtype_info@@@8      00437730     MSVCRT:ti_inst.obj
 0003:00004750       ___defaultmatherr          00437750     MSVCRT:merr.obj
 0003:00004758       ?menu@@3PAVQMenuBar@@A     00437758     alarmcontrolmainwindow.obj
 0003:00004768       ?_Nilrefs@?$_Tree@VQString@@U?$pair@$$CBVQString@@H@std@@U_Kfn@?$map@VQString@@HU?$less@VQString@@@std@@V?$allocator@H@3@@3@U?$less@VQString@@@3@V?$allocator@H@3@@std@@1IA 00437768     alarmcontrolmainwindow.obj
 0003:0000476c       ?_Nil@?$_Tree@VQString@@U?$pair@$$CBVQString@@H@std@@U_Kfn@?$map@VQString@@HU?$less@VQString@@@std@@V?$allocator@H@3@@3@U?$less@VQString@@@3@V?$allocator@H@3@@std@@1PAU_Node@12@A 0043776c     alarmcontrolmainwindow.obj
 0003:00004770       ??_C@_00A@?$AA@            00437770     alarmcontrolmainwindow.obj
 0003:00004778       ?sm_pLogger@Logger@@0PAV1@A 00437778     except.obj
 0003:00004790       ?metaObj@AlarmControlMainWindow@@0PAVQMetaObject@@A 00437790     moc_alarmcontrolmainwindow.obj
 0003:000047ec       ?metaObj@AlarmControlMainWindowBase@@0PAVQMetaObject@@A 004377ec     moc_alarmcontrolmainwindowbase.obj
 0003:000047f4       ?metaObj@diagnosticsBase@@0PAVQMetaObject@@A 004377f4     moc_diagnostics.obj
 0003:00004800       ?metaObj@diagnostics@@0PAVQMetaObject@@A 00437800     moc_diagnosticsimpl.obj
 0003:00004880       ?metaObj@UDP_socket@@0PAVQMetaObject@@A 00437880     moc_UDP_socket.obj
 0003:00004884       __dowildcard               00437884     MSVCRT:wildcard.obj
 0003:00004888       __newmode                  00437888     MSVCRT:_newmode.obj
 0003:0000488c       __commode                  0043788c     MSVCRT:xncommod.obj
 0003:00004890       __fmode                    00437890     MSVCRT:xtxtmode.obj
 0003:00004894       __adjust_fdiv              00437894     <common>
 0003:00004898       ___onexitend               00437898     <common>
 0003:0000489c       ___onexitbegin             0043789c     <common>

 entry point at        0001:0001a018

 Static symbols

 0001:00018440       _$E101                     00419440 f   moc_UDP_socket.obj
 0001:00018450       _$E98                      00419450 f   moc_UDP_socket.obj
 0001:00018470       _$E100                     00419470 f   moc_UDP_socket.obj
 0001:00018480       _$E99                      00419480 f   moc_UDP_socket.obj
 0001:00017a60       _$E108                     00418a60 f   moc_diagnosticsimpl.obj
 0001:00017a70       _$E105                     00418a70 f   moc_diagnosticsimpl.obj
 0001:00017a90       _$E107                     00418a90 f   moc_diagnosticsimpl.obj
 0001:00017aa0       _$E106                     00418aa0 f   moc_diagnosticsimpl.obj
 0001:00017870       _$E100                     00418870 f   moc_diagnostics.obj
 0001:00017880       _$E97                      00418880 f   moc_diagnostics.obj
 0001:000178a0       _$E99                      004188a0 f   moc_diagnostics.obj
 0001:000178b0       _$E98                      004188b0 f   moc_diagnostics.obj
 0001:00017680       _$E103                     00418680 f   moc_alarmcontrolmainwindowbase.obj
 0001:00017690       _$E100                     00418690 f   moc_alarmcontrolmainwindowbase.obj
 0001:000176b0       _$E102                     004186b0 f   moc_alarmcontrolmainwindowbase.obj
 0001:000176c0       _$E101                     004186c0 f   moc_alarmcontrolmainwindowbase.obj
 0001:000170e0       _$E141                     004180e0 f   moc_alarmcontrolmainwindow.obj
 0001:000170f0       _$E138                     004180f0 f   moc_alarmcontrolmainwindow.obj
 0001:00017110       _$E140                     00418110 f   moc_alarmcontrolmainwindow.obj
 0001:00017120       _$E139                     00418120 f   moc_alarmcontrolmainwindow.obj
 0001:00011970       _$E76                      00412970 f   UDP_socket.obj
 0001:00011980       _$E73                      00412980 f   UDP_socket.obj
 0001:00011990       _$E75                      00412990 f   UDP_socket.obj
 0001:000119a0       _$E74                      004129a0 f   UDP_socket.obj
 0001:000119b0       _$E82                      004129b0 f   UDP_socket.obj
 0001:000119c0       _$E79                      004129c0 f   UDP_socket.obj
 0001:000119d0       _$E81                      004129d0 f   UDP_socket.obj
 0001:000119e0       _$E80                      004129e0 f   UDP_socket.obj
 0001:00010e50       _$E141                     00411e50 f   main.obj
 0001:00010e60       _$E138                     00411e60 f   main.obj
 0001:00010e70       _$E140                     00411e70 f   main.obj
 0001:00010e80       _$E139                     00411e80 f   main.obj
 0001:00010e90       _$E147                     00411e90 f   main.obj
 0001:00010ea0       _$E144                     00411ea0 f   main.obj
 0001:00010eb0       _$E146                     00411eb0 f   main.obj
 0001:00010ec0       _$E145                     00411ec0 f   main.obj
 0001:00010690       _$E25                      00411690 f   except.obj
 0001:000106a0       _$E22                      004116a0 f   except.obj
 0001:000106b0       _$E24                      004116b0 f   except.obj
 0001:000106c0       _$E23                      004116c0 f   except.obj
 0001:000106d0       _$E31                      004116d0 f   except.obj
 0001:000106e0       _$E28                      004116e0 f   except.obj
 0001:000106f0       _$E30                      004116f0 f   except.obj
 0001:00010700       _$E29                      00411700 f   except.obj
 0001:00010740       ?my_translator@@YAXIPAU_EXCEPTION_POINTERS@@@Z 00411740 f   except.obj
 0001:000000b0       _$E144                     004010b0 f   alarmcontrolmainwindow.obj
 0001:000000c0       _$E141                     004010c0 f   alarmcontrolmainwindow.obj
 0001:000000d0       _$E143                     004010d0 f   alarmcontrolmainwindow.obj
 0001:000000e0       _$E142                     004010e0 f   alarmcontrolmainwindow.obj
 0001:000000f0       _$E150                     004010f0 f   alarmcontrolmainwindow.obj
 0001:00000100       _$E147                     00401100 f   alarmcontrolmainwindow.obj
 0001:00000110       _$E149                     00401110 f   alarmcontrolmainwindow.obj
 0001:00000120       _$E148                     00401120 f   alarmcontrolmainwindow.obj
 0001:00019f80       ?ArrayUnwindFilter@@YAHPAU_EXCEPTION_POINTERS@@@Z 0041af80 f   MSVCRT:ehvecdtr.obj

Line numbers for .\Release\moc_UDP_socket.obj(w:\core_svn\Source\windows\bin\AlarmControl\moc_UDP_socket.cpp) segment .text

    23 0001:00018430    25 0001:00018435    28 0001:00018450    51 0001:00018490
    53 0001:00018497    54 0001:00018499    57 0001:0001849f    72 0001:000184d2
    73 0001:000184f8    74 0001:0001850d    75 0001:00018512    78 0001:00018520
    80 0001:0001857b    82 0001:0001857f    81 0001:00018582    82 0001:0001858d
    85 0001:00018590    86 0001:00018594    90 0001:000185ac    93 0001:000185bc
    88 0001:000185bf    92 0001:000185cf    93 0001:000185d2    96 0001:000185e0
    98 0001:000185f0   102 0001:00018600   104 0001:00018615

Line numbers for .\Release\moc_diagnosticsimpl.obj(w:\core_svn\Source\windows\bin\AlarmControl\moc_diagnosticsimpl.cpp) segment .text

    23 0001:00017a50    25 0001:00017a55    28 0001:00017a70    51 0001:00017ab0
    52 0001:00017ab1    53 0001:00017abb    54 0001:00017ac3    57 0001:00017ac8
    70 0001:00017aff    74 0001:00017b23    79 0001:00017b47    83 0001:00017b6e
    88 0001:00017b8d    92 0001:00017bac    96 0001:00017bd2   101 0001:00017bf2
   103 0001:00017c07   132 0001:00017c58   133 0001:00017c7c   137 0001:00017ca1
   138 0001:00017cac   143 0001:00017ce1   147 0001:00017d01   148 0001:00017d15
   167 0001:00017d47   168 0001:00017d6e   169 0001:00017d83   170 0001:00017d8b
   173 0001:00017d90   175 0001:00017deb   177 0001:00017def   176 0001:00017df2
   177 0001:00017dfc   181 0001:00017e00   182 0001:00017e03   183 0001:00017e15
   190 0001:00017e20   191 0001:00017e3c   193 0001:00017e4a   194 0001:00017e5e
   196 0001:00017e62   197 0001:00017e7e   198 0001:00017e9c   199 0001:00017eb2
   200 0001:00017ec0   204 0001:00017ef0   205 0001:00017f0c   207 0001:00017f1a
   208 0001:00017f30   210 0001:00017f34   211 0001:00017f50   212 0001:00017f6e
   213 0001:00017f84   214 0001:00017f92   218 0001:00017fd0   219 0001:00017fd3
   220 0001:00017fe8   224 0001:00017ff0   225 0001:00018006   226 0001:0001803c
   230 0001:00018050   231 0001:0001806c   233 0001:0001807a   234 0001:00018090
   236 0001:00018098   237 0001:000180b5   238 0001:000180d3   239 0001:000180eb
   241 0001:000180f9   244 0001:00018130   245 0001:00018134   247 0001:00018154
   271 0001:00018164   272 0001:00018167   248 0001:0001816a   271 0001:00018172
   272 0001:00018175   249 0001:00018178   271 0001:00018180   272 0001:00018183
   250 0001:00018186   271 0001:0001818e   272 0001:00018191   251 0001:00018194
   271 0001:0001819c   272 0001:0001819f   252 0001:000181a2   271 0001:000181aa
   272 0001:000181ad   253 0001:000181b0   271 0001:000181b8   272 0001:000181bb
   254 0001:000181be   271 0001:000181c6   272 0001:000181c9   255 0001:000181cc
   271 0001:000181d4   272 0001:000181d7   256 0001:000181da   271 0001:000181e2
   272 0001:000181e5   257 0001:000181e8   271 0001:000181f8   272 0001:000181fb
   258 0001:000181fe   271 0001:0001820e   272 0001:00018211   259 0001:00018214
   271 0001:0001821c   272 0001:0001821f   260 0001:00018222   271 0001:00018232
   272 0001:00018235   261 0001:00018238   271 0001:00018248   272 0001:0001824b
   262 0001:0001824e   271 0001:00018256   272 0001:00018259   263 0001:0001825c
   271 0001:0001826c   272 0001:0001826f   264 0001:00018272   271 0001:00018282
   272 0001:00018285   265 0001:00018288   271 0001:00018298   272 0001:0001829b
   266 0001:0001829e   271 0001:000182a6   272 0001:000182a9   267 0001:000182ac
   271 0001:000182c4   272 0001:000182c7   269 0001:000182ca   272 0001:000182d9
   275 0001:00018340   276 0001:00018344   277 0001:00018364   286 0001:0001836c
   287 0001:0001836f   278 0001:00018372   286 0001:00018386   287 0001:00018389
   279 0001:0001838c   286 0001:000183a0   287 0001:000183a3   280 0001:000183a6
   286 0001:000183ae   287 0001:000183b1   281 0001:000183b4   286 0001:000183c4
   287 0001:000183c7   282 0001:000183ca   286 0001:000183de   287 0001:000183e1
   284 0001:000183e4   287 0001:000183f3   291 0001:00018410   293 0001:00018424

Line numbers for .\Release\moc_diagnostics.obj(w:\core_svn\Source\windows\bin\AlarmControl\moc_diagnostics.cpp) segment .text

    23 0001:00017860    25 0001:00017865    28 0001:00017880    32 0001:000178c0
    33 0001:000178c1    34 0001:000178d5    36 0001:000178f1    37 0001:000178f4
    36 0001:000178f6    37 0001:0001790e    51 0001:00017910    53 0001:00017917
    54 0001:00017919    67 0001:0001791f    68 0001:00017945    69 0001:0001795a
    70 0001:0001795f    73 0001:00017960    75 0001:000179bb    77 0001:000179bf
    76 0001:000179c2    77 0001:000179cd    80 0001:000179d0    81 0001:000179d4
    84 0001:000179e6    87 0001:000179f6    82 0001:000179f9    86 0001:00017a04
    87 0001:00017a07    90 0001:00017a10    92 0001:00017a20    96 0001:00017a30
    98 0001:00017a45

Line numbers for .\Release\moc_alarmcontrolmainwindowbase.obj(w:\core_svn\Source\windows\bin\AlarmControl\moc_alarmcontrolmainwindowbase.cpp) segment .text

    23 0001:00017670    25 0001:00017675    28 0001:00017690    32 0001:000176d0
    33 0001:000176d1    34 0001:000176e5    36 0001:00017701    37 0001:00017704
    36 0001:00017706    37 0001:0001771e    51 0001:00017720    53 0001:00017727
    54 0001:00017729    67 0001:0001772f    68 0001:00017755    69 0001:0001776a
    70 0001:0001776f    73 0001:00017770    75 0001:000177cb    77 0001:000177cf
    76 0001:000177d2    77 0001:000177dd    80 0001:000177e0    81 0001:000177e4
    84 0001:000177f6    87 0001:00017806    82 0001:00017809    86 0001:00017814
    87 0001:00017817    90 0001:00017820    92 0001:00017830    96 0001:00017840
    98 0001:00017855

Line numbers for .\Release\moc_alarmcontrolmainwindow.obj(w:\core_svn\Source\windows\bin\AlarmControl\moc_alarmcontrolmainwindow.cpp) segment .text

    23 0001:000170d0    25 0001:000170d5    28 0001:000170f0    51 0001:00017130
    52 0001:00017131    53 0001:0001713b    54 0001:00017143    57 0001:00017148
    58 0001:00017161    63 0001:0001719f    64 0001:000171c9    69 0001:000171e5
    70 0001:000171f7    77 0001:0001722d    90 0001:00017251    98 0001:00017271
    99 0001:00017276   100 0001:000172b5   106 0001:000172cf   147 0001:000172f5
   148 0001:00017317   149 0001:0001732c   150 0001:00017332   153 0001:00017340
   155 0001:0001739b   157 0001:0001739f   156 0001:000173a2   157 0001:000173ac
   160 0001:000173b0   161 0001:000173b4   162 0001:000173d4   193 0001:000173dc
   194 0001:000173df   163 0001:000173e2   193 0001:000173f6   194 0001:000173f9
   164 0001:000173fc   193 0001:00017404   194 0001:00017407   165 0001:0001740a
   193 0001:0001741e   194 0001:00017421   166 0001:00017424   193 0001:0001742c
   194 0001:0001742f   167 0001:00017432   193 0001:00017446   194 0001:00017449
   168 0001:0001744c   193 0001:00017454   194 0001:00017457   169 0001:0001745a
   193 0001:00017462   194 0001:00017465   170 0001:00017468   193 0001:00017470
   194 0001:00017473   171 0001:00017476   193 0001:00017486   194 0001:00017489
   172 0001:0001748c   193 0001:00017494   194 0001:00017497   173 0001:0001749a
   193 0001:000174a2   194 0001:000174a5   174 0001:000174a8   193 0001:000174b0
   194 0001:000174b3   175 0001:000174b6   193 0001:000174be   194 0001:000174c1
   176 0001:000174c4   193 0001:000174cc   194 0001:000174cf   177 0001:000174d2
   193 0001:000174da   194 0001:000174dd   178 0001:000174e0   193 0001:000174e8
   194 0001:000174eb   179 0001:000174ee   193 0001:000174f6   194 0001:000174f9
   180 0001:000174fc   193 0001:00017504   194 0001:00017507   181 0001:0001750a
   193 0001:0001751a   194 0001:0001751d   182 0001:00017520   193 0001:00017528
   194 0001:0001752b   183 0001:0001752e   193 0001:00017536   194 0001:00017539
   184 0001:0001753c   193 0001:00017544   194 0001:00017547   185 0001:0001754a
   193 0001:00017552   194 0001:00017555   186 0001:00017558   193 0001:00017570
   194 0001:00017573   187 0001:00017576   193 0001:0001757e   194 0001:00017581
   188 0001:00017584   193 0001:0001758c   194 0001:0001758f   189 0001:00017592
   193 0001:000175a2   194 0001:000175a5   191 0001:000175a8   194 0001:000175b7
   197 0001:00017630   199 0001:0001763f   203 0001:00017650   205 0001:00017664

Line numbers for .\Release\diagnostics.obj(w:\core_svn\Source\windows\bin\AlarmControl\diagnostics.h) segment .text

    29 0001:00016660

Line numbers for .\Release\diagnostics.obj(w:\core_svn\Source\windows\bin\AlarmControl\diagnostics.cpp) segment .text

    36 0001:00015240    37 0001:00015286    38 0001:00015295    39 0001:000152a2
    40 0001:000152b3    41 0001:000152bd    43 0001:000152fd    45 0001:00015343
    47 0001:0001535a    49 0001:00015395    50 0001:000153df    52 0001:000153ed
    53 0001:0001542b    55 0001:0001546f    56 0001:000154bd   198 0001:000154e6
    59 0001:0001554b    60 0001:00015553    61 0001:0001556a    62 0001:00015581
    64 0001:00015592    65 0001:000155db   198 0001:00015604    68 0001:0001565d
    70 0001:0001565f    71 0001:000156b1   198 0001:000156da    76 0001:0001576c
    77 0001:00015774    78 0001:000157a9    79 0001:000157ba    81 0001:000157ce
    82 0001:0001580f    83 0001:0001586a    84 0001:000158b5    85 0001:00015900
    86 0001:0001594b    87 0001:00015996    88 0001:000159e1    89 0001:000159f1
    90 0001:000159ff    91 0001:00015a0f    92 0001:00015a1f    94 0001:00015a30
    95 0001:00015a73    97 0001:00015ab8    98 0001:00015b0b   198 0001:00015b34
   101 0001:00015b92   102 0001:00015b94   103 0001:00015bed   104 0001:00015c3c
   105 0001:00015c4d   107 0001:00015c5b   109 0001:00015c97   110 0001:00015ce6
   198 0001:00015d0f   115 0001:00015d94   116 0001:00015d9c   198 0001:00015dc5
   124 0001:00015e86   125 0001:00015e8e   126 0001:00015e9d   127 0001:00015eb2
   129 0001:00015ec3   130 0001:00015f08   131 0001:00015f18   132 0001:00015f2d
   133 0001:00015f46   135 0001:00015f57   136 0001:00015f9c   137 0001:00015fab
   138 0001:00015fc0   140 0001:00015fd1   141 0001:00016016   142 0001:00016026
   143 0001:0001603b   144 0001:00016054   146 0001:00016065   147 0001:000160a9
   148 0001:000160b8   149 0001:000160cd   150 0001:000160dd   151 0001:000160ee
   152 0001:000160fe   153 0001:0001610e   154 0001:0001614e   156 0001:00016162
   157 0001:000161a4   159 0001:000161b9   160 0001:000161fb   162 0001:00016210
   163 0001:00016252   165 0001:00016267   166 0001:000162a9   168 0001:000162be
   169 0001:00016300   171 0001:00016315   172 0001:00016357   174 0001:0001636c
   175 0001:000163ae   177 0001:000163c3   178 0001:00016405   180 0001:0001641a
   181 0001:0001645c   182 0001:00016471   184 0001:00016482   185 0001:000164bf
   186 0001:0001651a   187 0001:00016549   188 0001:0001655a   189 0001:0001656f
   190 0001:00016580   191 0001:000165bc   192 0001:000165c8   194 0001:000165dc
   195 0001:000165f2   196 0001:000165f9   197 0001:00016639   198 0001:0001663c
   204 0001:000166d0   206 0001:000166dd   213 0001:000166f0   214 0001:0001670c
   215 0001:00016768   216 0001:000167b2   217 0001:000167ff   218 0001:0001684c
   219 0001:00016899   220 0001:000168f9   221 0001:00016953   222 0001:000169ad
   223 0001:00016a07   224 0001:00016a61   225 0001:00016abb   226 0001:00016b0c
   227 0001:00016b66   228 0001:00016bca   229 0001:00016c17   230 0001:00016c2b
   231 0001:00016c78   232 0001:00016c8c   233 0001:00016cd9   234 0001:00016ced
   235 0001:00016d3a   236 0001:00016d87   237 0001:00016dd4   238 0001:00016e21
   239 0001:00016e6e   240 0001:00016ebb   241 0001:00016f08   242 0001:00016f55
   243 0001:00016fa2   244 0001:00016fef   245 0001:00017049   246 0001:00017057
   248 0001:0001708a

Line numbers for .\Release\alarmcontrolmainwindowbase.obj(w:\core_svn\Source\windows\bin\AlarmControl\alarmcontrolmainwindowbase.h) segment .text

    33 0001:000146f0

Line numbers for .\Release\alarmcontrolmainwindowbase.obj(w:\core_svn\Source\windows\bin\AlarmControl\alarmcontrolmainwindowbase.cpp) segment .text

    35 0001:000135b0    36 0001:000135eb    37 0001:00013604    38 0001:00013608
    39 0001:00013615    40 0001:0001365c    42 0001:000136a2    44 0001:000136e8
    45 0001:00013738    46 0001:00013748    47 0001:0001375c    48 0001:0001379b
    50 0001:000137a7    51 0001:000137f0    52 0001:000137fd    53 0001:00013809
    55 0001:00013817    56 0001:00013860    57 0001:0001386d    58 0001:0001387b
    59 0001:000138cb    60 0001:000138d7    61 0001:000138e4    62 0001:000138fc
    63 0001:0001390a    65 0001:0001391e    67 0001:00013959    68 0001:000139ad
    69 0001:000139bb    71 0001:000139cf    72 0001:00013a1d    73 0001:00013a29
    75 0001:00013a40    76 0001:00013a83    77 0001:00013a8f    79 0001:00013aa8
    80 0001:00013afd    81 0001:00013b0e    82 0001:00013b1f    83 0001:00013b6f
    84 0001:00013b7b    85 0001:00013b8b    86 0001:00013ba6    87 0001:00013bb9
    89 0001:00013bce    90 0001:00013c19    91 0001:00013c2a    92 0001:00013c3a
    93 0001:00013c4a    94 0001:00013c8a    96 0001:00013c9f    97 0001:00013cde
    99 0001:00013cf6   100 0001:00013d35   102 0001:00013d4d   103 0001:00013d8c
   105 0001:00013da4   106 0001:00013de3   108 0001:00013dfb   109 0001:00013e3a
   111 0001:00013e52   112 0001:00013e91   114 0001:00013ea9   115 0001:00013ee8
   117 0001:00013f00   118 0001:00013f3f   119 0001:00013f57   121 0001:00013f6a
   122 0001:00013fb5   124 0001:00013fc4   125 0001:00014007   126 0001:0001406d
   127 0001:000140ba   128 0001:00014107   129 0001:00014154   130 0001:000141a1
   131 0001:000141ee   132 0001:0001423b   133 0001:00014288   134 0001:000142d5
   135 0001:00014322   137 0001:00014332   138 0001:00014372   140 0001:000143b4
   142 0001:000143fd   143 0001:00014442   145 0001:0001445e   146 0001:00014498
   148 0001:000144b4   149 0001:000144f6   150 0001:00014507   151 0001:0001451a
   152 0001:00014568   153 0001:00014574   154 0001:00014584   155 0001:0001459f
   156 0001:000145b6   158 0001:000145cb   159 0001:00014607   160 0001:00014624
   164 0001:00014637   165 0001:0001463e   166 0001:00014675   169 0001:00014678
   170 0001:00014694   171 0001:000146a4   177 0001:00014860   179 0001:0001486d
   186 0001:00014880   187 0001:0001489b   188 0001:000148f7   189 0001:00014941
   190 0001:0001498b   191 0001:0001499c   192 0001:000149e6   193 0001:00014a33
   194 0001:00014a80   195 0001:00014a94   196 0001:00014ae1   197 0001:00014b2e
   198 0001:00014b7b   199 0001:00014bc8   200 0001:00014c15   201 0001:00014c62
   202 0001:00014caf   203 0001:00014cfc   204 0001:00014d4a   205 0001:00014daa
   206 0001:00014e04   207 0001:00014e5e   208 0001:00014eb8   209 0001:00014f12
   210 0001:00014f6c   211 0001:00014fc6   212 0001:00015020   213 0001:0001507a
   214 0001:000150df   215 0001:0001512c   216 0001:00015179   217 0001:0001518d

Line numbers for .\Release\UDP_socket.obj(w:\core_svn\Source\windows\bin\AlarmControl\UDP_socket.h) segment .text

    20 0001:00011d80

Line numbers for .\Release\UDP_socket.obj(w:\core_svn\Source\windows\bin\AlarmControl\UDP_socket.cpp) segment .text

    30 0001:000119f0    33 0001:00011a5d    35 0001:00011a85    39 0001:00011ab4
    41 0001:00011ae5    42 0001:00011af3    46 0001:00011af7    48 0001:00011b18
    49 0001:00011b26    52 0001:00011b2a    53 0001:00011b34    55 0001:00011b8f
    56 0001:00011b9d    61 0001:00011ba1    62 0001:00011bad    63 0001:00011bfe
    67 0001:00011c53    69 0001:00011c69    70 0001:00011c77    74 0001:00011c7b
    75 0001:00011cb1    77 0001:00011cbc    79 0001:00011cd1    81 0001:00011cd3
    82 0001:00011ce1    90 0001:00011ce5    92 0001:00011cec    94 0001:00011cfc
    95 0001:00011d07    98 0001:00011df0    99 0001:00011e16   100 0001:00011e2b
   101 0001:00011e2e   102 0001:00011e35   104 0001:00011e3a   106 0001:00011e53
   108 0001:00011e5a   110 0001:00011e60   113 0001:00011ed0   115 0001:00011ed3
   119 0001:00011ee0   121 0001:00011ee3   123 0001:00011eea   125 0001:00011ef8
   126 0001:00011f07   129 0001:00011f10   138 0001:00011f1f   140 0001:00011f33
   141 0001:00011f38   144 0001:00011f40   151 0001:00011f43   159 0001:00011f50
   183 0001:00011f6d   184 0001:00011f91   185 0001:00011f9d   186 0001:00011fa2
   187 0001:00011fa4   189 0001:00011fb3   190 0001:00011fc6   192 0001:00011fdb
   199 0001:00011ff7   201 0001:000121cb   208 0001:000121d6   209 0001:000121e2
   210 0001:00012217   211 0001:00012220   212 0001:00012249   213 0001:0001224d
   214 0001:0001225b   215 0001:0001225d   216 0001:0001227e   217 0001:0001228d
   227 0001:000122f0   234 0001:00012311   235 0001:00012323   236 0001:00012328
   240 0001:00012337   241 0001:00012350   243 0001:00012367   244 0001:0001236a
   246 0001:00012382   249 0001:0001239e   250 0001:000123c1   253 0001:00012439
   254 0001:00012450   255 0001:0001246f   256 0001:0001248e   257 0001:000124ad
   261 0001:000124c5   262 0001:000124e0   263 0001:000124f2   265 0001:0001250d
   268 0001:000125b4   269 0001:000125db   271 0001:00012742   274 0001:000127db
   275 0001:00012802   277 0001:00012953   280 0001:00012962   281 0001:00012989
   283 0001:00012aa5   286 0001:00012ab4   287 0001:00012adb   291 0001:00012c34
   293 0001:00012c61   298 0001:00012c7e   300 0001:00012c89   302 0001:00012c90
   303 0001:00012c9e   304 0001:00012ca9   306 0001:00012cb2   309 0001:00012cc7
   312 0001:00012cd6   313 0001:00012cf1   315 0001:00012cf5   317 0001:00012cfa
   318 0001:00012d08   319 0001:00012d13   322 0001:00012d2e   325 0001:00012d33
   328 0001:00012d3c   332 0001:00012d58   334 0001:00012d5f   336 0001:00012d6a
   337 0001:00012d85   338 0001:00012d89   340 0001:00012d90   342 0001:00012d9c
   344 0001:00012da7   345 0001:00012dc2   347 0001:00012dc6   349 0001:00012dcb
   350 0001:00012dd9   353 0001:00012ddc   356 0001:00012df4   358 0001:00012dff
   359 0001:00012e1a   360 0001:00012e1e   362 0001:00012e21   365 0001:00012e36
   367 0001:00012e41   368 0001:00012e5c   369 0001:00012e60   371 0001:00012e67
   372 0001:00012e69   373 0001:00012e82   376 0001:00012f50   379 0001:00012f5f
   381 0001:00012f66   383 0001:00012f6d   384 0001:00012f78   386 0001:00012f81
   388 0001:00012f86   389 0001:00012f91   433 0001:00012fac   394 0001:00012fb0
   431 0001:00012fb9   433 0001:00012fc2   397 0001:00012fc6   399 0001:00012fcf
   401 0001:00012fda   426 0001:00012fe6   427 0001:00012ff5   433 0001:00012ffc
   404 0001:00013000   406 0001:0001300c   410 0001:00013024   413 0001:0001302c
   433 0001:00013052   418 0001:00013056   433 0001:0001306c   431 0001:00013070
   433 0001:00013082   440 0001:00013090   446 0001:000130ae   441 0001:00013100
   444 0001:0001311c   446 0001:0001313e   449 0001:0001314a   451 0001:00013156
   452 0001:00013160   455 0001:00013182   456 0001:00013194   452 0001:00013202
   458 0001:0001321c   460 0001:0001322e   461 0001:00013266   464 0001:00013290
   472 0001:000132af   475 0001:000132ce   479 0001:000132f1   480 0001:0001330f
   481 0001:00013361   484 0001:00013374   486 0001:0001337e   488 0001:0001338d
   489 0001:000133b5   492 0001:000133f0   500 0001:0001340f   503 0001:0001342e
   507 0001:00013451   508 0001:0001346f   509 0001:000134c1   512 0001:000134d4
   514 0001:000134de   516 0001:000134ed   517 0001:00013515   520 0001:00013550
   522 0001:00013557   525 0001:00013560   528 0001:00013567   536 0001:00013570
   537 0001:00013574   543 0001:00013585   544 0001:000135a4

Line numbers for .\Release\UDP_socket.obj(C:\Program Files\Microsoft Visual Studio\VC98\INCLUDE\iostream) segment .text

    16 0001:00011980    29 0001:000119c0

Line numbers for .\Release\ModuleListViewItem.obj(w:\core_svn\Source\windows\bin\AlarmControl\ModuleListViewItem.cpp) segment .text

    24 0001:00011020    27 0001:000110fa    32 0001:0001111f    33 0001:0001115b
    29 0001:0001115d    37 0001:0001119f    38 0001:000111aa    39 0001:000111cd
    43 0001:000111d8    45 0001:000111e1    49 0001:000111ea    50 0001:000111f6
    53 0001:00011260    55 0001:00011266    58 0001:00011270    60 0001:00011288
   125 0001:00011298   128 0001:000112b6    63 0001:000112c7    66 0001:000112d9
    76 0001:000112f0    77 0001:0001132a    78 0001:0001135a    79 0001:00011381
    70 0001:00011386    71 0001:000113c1    72 0001:000113e9    73 0001:00011412
    82 0001:0001143f    83 0001:0001145d   128 0001:0001146f   131 0001:00011490
   132 0001:0001149e   135 0001:000114b2   143 0001:000114c5   144 0001:00011509
   140 0001:0001150b   141 0001:00011555   137 0001:00011557   146 0001:000115a7
   149 0001:000115c0   150 0001:000115ce   153 0001:000115dc   155 0001:000115f2
   156 0001:00011636   161 0001:0001163b   162 0001:0001167f   164 0001:00011681
   165 0001:000116cb   167 0001:000116cd   170 0001:0001171d   173 0001:00011740
   174 0001:00011756   175 0001:00011773   177 0001:00011790   178 0001:000117a1
   181 0001:000117e0   182 0001:000117f6   183 0001:00011813   185 0001:00011830
   186 0001:00011841   189 0001:00011880   196 0001:00011899   198 0001:000118a5
   222 0001:000118ad   223 0001:000118ca   226 0001:00011920   227 0001:0001192e
   228 0001:00011955

Line numbers for .\Release\main.obj(w:\core_svn\Source\windows\bin\AlarmControl\main.cpp) segment .text

     7 0001:00010ed0     8 0001:00010ef4    13 0001:00010ef9    34 0001:00010f12
    35 0001:00010f25    37 0001:00010f39    39 0001:00010f45    41 0001:00010f54
    44 0001:00010f60    45 0001:00010f6d    58 0001:00010f88    59 0001:00010f9c
    62 0001:00010fa1    48 0001:00010fb5    49 0001:00010fd6    51 0001:00010ff3
    54 0001:00010ff9    55 0001:00011006    56 0001:00011014

Line numbers for .\Release\main.obj(C:\Program Files\Microsoft Visual Studio\VC98\INCLUDE\iostream) segment .text

    16 0001:00010e60    29 0001:00010ea0

Line numbers for .\Release\except.obj(w:\core_svn\Source\windows\bin\AlarmControl\except.cpp) segment .text

    16 0001:00010710    17 0001:00010712    18 0001:00010718    19 0001:0001071d
    20 0001:00010722    23 0001:00010730    25 0001:0001073c     7 0001:00010740
     8 0001:00010743    28 0001:00010770    30 0001:00010773    33 0001:00010780
    35 0001:00010782    39 0001:00010790    41 0001:00010793    43 0001:0001079e
    44 0001:000107ce    47 0001:000107e0    51 0001:000107e3    53 0001:000107ee
    54 0001:00010829    67 0001:00010830    76 0001:00010836    79 0001:00010849
    83 0001:00010858    85 0001:00010876    86 0001:000108e6    87 0001:00010910
    88 0001:00010924    89 0001:0001092e    90 0001:00010955    91 0001:00010963
    92 0001:0001096d    94 0001:00010974    95 0001:0001099d    96 0001:000109c4
    97 0001:000109d2    99 0001:000109ea   101 0001:000109f1   102 0001:00010a1a
   103 0001:00010a42   104 0001:00010a50   116 0001:00010a5a   124 0001:00010a81
   126 0001:00010a9b   139 0001:00010a9f   145 0001:00010abf   155 0001:00010aca
   157 0001:00010ad5   159 0001:00010af5   160 0001:00010b06   161 0001:00010b0e
   162 0001:00010b19   164 0001:00010b21   166 0001:00010b38   167 0001:00010b43
   172 0001:00010b4b   173 0001:00010b74   174 0001:00010b7f   177 0001:00010b83
   199 0001:00010b91   182 0001:00010b9a   184 0001:00010bac   186 0001:00010bc8
   187 0001:00010bd9   192 0001:00010be1   193 0001:00010c0a   194 0001:00010c12
   196 0001:00010c1c   199 0001:00010c24   202 0001:00010c30   203 0001:00010c46
   205 0001:00010c4f   209 0001:00010c75   205 0001:00010c84   209 0001:00010c8b
   212 0001:00010ca0   215 0001:00010caa   216 0001:00010cb0   218 0001:00010cba
   221 0001:00010cc0   228 0001:00010ce1   229 0001:00010cf2   232 0001:00010d00
   233 0001:00010d05   235 0001:00010d0c   236 0001:00010d16   239 0001:00010d1d
   240 0001:00010d2d   242 0001:00010d31   243 0001:00010d3b   246 0001:00010d61
   247 0001:00010d67   250 0001:00010d70   252 0001:00010d73   259 0001:00010d81
   261 0001:00010dd3   262 0001:00010dd8   265 0001:00010de0   266 0001:00010df8
   267 0001:00010dfb   270 0001:00010e20   271 0001:00010e23   273 0001:00010e30
   274 0001:00010e3a   276 0001:00010e42

Line numbers for .\Release\except.obj(C:\Program Files\Microsoft Visual Studio\VC98\INCLUDE\iostream) segment .text

    16 0001:000106a0    29 0001:000106e0

Line numbers for .\Release\diagnosticsimpl.obj(C:\Qt\3.2.3\include\qvaluelist.h) segment .text

   355 0001:000105a0   356 0001:000105a7   357 0001:000105a9   359 0001:000105af
   360 0001:000105b3   361 0001:000105c9   362 0001:000105dc   363 0001:000105dd
   364 0001:000105df   359 0001:000105e2   367 0001:000105e6   300 0001:000105f0
   301 0001:000105f4   303 0001:0001061d   306 0001:00010623   307 0001:00010635
   308 0001:0001063c   309 0001:00010645    63 0001:00010650

Line numbers for .\Release\diagnosticsimpl.obj(C:\Qt\3.2.3\include\qptrlist.h) segment .text

    70 0001:00010420    70 0001:00010480    77 0001:000104e0   149 0001:00010580
   151 0001:00010595

Line numbers for .\Release\diagnosticsimpl.obj(C:\Qt\3.2.3\include\qptrstack.h) segment .text

    51 0001:000103b0    61 0001:00010410    83 0001:00010550    85 0001:00010571

Line numbers for .\Release\diagnosticsimpl.obj(w:\core_svn\Source\windows\bin\AlarmControl\diagnosticsimpl.h) segment .text

    22 0001:0000d7e0

Line numbers for .\Release\diagnosticsimpl.obj(w:\core_svn\Source\windows\bin\AlarmControl\diagnosticsimpl.cpp) segment .text

    26 0001:0000d450    27 0001:0000d5d7    29 0001:0000d5e1    30 0001:0000d5e8
    33 0001:0000d5fa    34 0001:0000d64a    37 0001:0000d657    39 0001:0000d671
    41 0001:0000d685    43 0001:0000d699    44 0001:0000d6ad    45 0001:0000d6c4
    46 0001:0000d6d8    47 0001:0000d6ec    48 0001:0000d700    49 0001:0000d717
    50 0001:0000d72b    51 0001:0000d73f    54 0001:0000d756    56 0001:0000d76a
    59 0001:0000d77e    61 0001:0000d792    64 0001:0000d7a6    65 0001:0000d7bd
    71 0001:0000d890    74 0001:0000d8bd    77 0001:0000da10    85 0001:0000da2b
    89 0001:0000da48    90 0001:0000da59    93 0001:0000da6d    95 0001:0000dab5
    96 0001:0000dac1    99 0001:0000db10   101 0001:0000db15   108 0001:0000db20
   109 0001:0000dbeb   115 0001:0000dc40   117 0001:0000dc5b   119 0001:0000dc72
   124 0001:0000dcd0   141 0001:0000dcdc   144 0001:0000dcef   145 0001:0000dd17
   147 0001:0000dd39   148 0001:0000dd5e   150 0001:0000dd77   153 0001:0000dd7c
   154 0001:0000ddad   156 0001:0000ddc6   157 0001:0000ddee   159 0001:0000de05
   162 0001:0000de0a   163 0001:0000de3b   165 0001:0000de57   166 0001:0000de7f
   168 0001:0000de99   171 0001:0000de9e   172 0001:0000dec6   174 0001:0000dedf
   175 0001:0000df01   177 0001:0000df17   180 0001:0000df1c   182 0001:0000df4a
   184 0001:0000df6c   187 0001:0000df71   188 0001:0000dfa2   190 0001:0000dfca
   191 0001:0000dff2   198 0001:0000e01a   199 0001:0000e047   202 0001:0000e090
   206 0001:0000e0a2   207 0001:0000e0ab   211 0001:0000e0b6   210 0001:0000e0b9
   211 0001:0000e0c9   214 0001:0000e0d0   215 0001:0000e0de   217 0001:0000e0f5
   218 0001:0000e14a   225 0001:0000e16a   222 0001:0000e17b   223 0001:0000e18e
   225 0001:0000e196   230 0001:0000e1b0   232 0001:0000e1cb   234 0001:0000e1e2
   235 0001:0000e237   237 0001:0000e23c   238 0001:0000e28a   240 0001:0000e28f
   241 0001:0000e2e4   243 0001:0000e2e9   244 0001:0000e337   246 0001:0000e33c
   247 0001:0000e391   249 0001:0000e396   250 0001:0000e3e4   252 0001:0000e3e9
   253 0001:0000e444   255 0001:0000e449   256 0001:0000e49d   258 0001:0000e49f
   263 0001:0000e4f8   266 0001:0000e530   268 0001:0000e539   271 0001:0000e540
   273 0001:0000e549   276 0001:0000e550   278 0001:0000e559   281 0001:0000e560
   283 0001:0000e569   286 0001:0000e570   288 0001:0000e579   291 0001:0000e580
   293 0001:0000e589   296 0001:0000e590   298 0001:0000e599   301 0001:0000e5a0
   303 0001:0000e5a9   306 0001:0000e5b0   308 0001:0000e5b9   311 0001:0000e5c0
   312 0001:0000e5c3   313 0001:0000e5ca   316 0001:0000e5d8   317 0001:0000e5ec
   319 0001:0000e5f5   327 0001:0000e60c   324 0001:0000e60f   325 0001:0000e61e
   327 0001:0000e632   330 0001:0000e640   334 0001:0000e65d   336 0001:0000e669
   339 0001:0000e690   341 0001:0000e6a9   343 0001:0000e6c5   346 0001:0000e6d4
   347 0001:0000e6e3   348 0001:0000e745   341 0001:0000e76d   351 0001:0000e786
   354 0001:0000e795   356 0001:0000e799   363 0001:0000e7c5   364 0001:0000e7d6
   367 0001:0000e820   368 0001:0000e823   369 0001:0000e833   370 0001:0000e841
   371 0001:0000e84f   372 0001:0000e85e   373 0001:0000e86c   374 0001:0000e87b
   375 0001:0000e88a   380 0001:0000e890   381 0001:0000e89e   384 0001:0000e8c8
   386 0001:0000e8e0   387 0001:0000e8e5   389 0001:0000e8e7   390 0001:0000e8ec
   392 0001:0000e8ee   393 0001:0000e8f3   395 0001:0000e8f5   396 0001:0000e8fa
   398 0001:0000e8fc   399 0001:0000e901   401 0001:0000e903   402 0001:0000e908
   404 0001:0000e90a   405 0001:0000e90f   407 0001:0000e911   413 0001:0000e920
   414 0001:0000e96f   415 0001:0000e978   418 0001:0000e985   419 0001:0000e991
   420 0001:0000ea6c   423 0001:0000eaf0   424 0001:0000eaf3   425 0001:0000eb03
   427 0001:0000eb11   428 0001:0000eb23   429 0001:0000eb35   430 0001:0000eb42
   433 0001:0000eb50   435 0001:0000eb51   447 0001:0000eb6b   449 0001:0000eb7f
   447 0001:0000eb83   449 0001:0000eb97   447 0001:0000eb9b   449 0001:0000ebaf
   447 0001:0000ebb3   449 0001:0000ebc7   447 0001:0000ebcb   449 0001:0000ebdf
   447 0001:0000ebe3   449 0001:0000ebf7   452 0001:0000ec20   453 0001:0000ec3a
   454 0001:0000ec4a   458 0001:0000ec58   460 0001:0000ec72   462 0001:0000ec74
   464 0001:0000ecbf   468 0001:0000ecdc   469 0001:0000ecec   470 0001:0000ecfa
   473 0001:0000ed06   498 0001:0000ed0d   500 0001:0000ed1b   501 0001:0000ed22
   504 0001:0000ed40   505 0001:0000ed56   509 0001:0000ed71   512 0001:0000ed8b
   514 0001:0000ed9b   515 0001:0000eda0   517 0001:0000eda2   518 0001:0000eda7
   520 0001:0000eda9   521 0001:0000edae   523 0001:0000edb0   524 0001:0000edb5
   526 0001:0000edb7   527 0001:0000edbc   529 0001:0000edbe   530 0001:0000edc3
   532 0001:0000edc5   533 0001:0000edca   535 0001:0000edcc   538 0001:0000eddb
   539 0001:0000ede9   543 0001:0000ee50   544 0001:0000ee52   546 0001:0000ee71
   548 0001:0000ee81   549 0001:0000ee91   552 0001:0000eea0   553 0001:0000eebd
   554 0001:0000ef9f   557 0001:0000efc0   592 0001:0000efd3   595 0001:0000efe0
   596 0001:0000eff8   597 0001:0000f049   600 0001:0000f060   603 0001:0000f063
   605 0001:0000f071   606 0001:0000f079   609 0001:0000f080   612 0001:0000f098
   615 0001:0000f0ad   616 0001:0000f0c3   618 0001:0000f0de   620 0001:0000f0f3
   616 0001:0000f0f4   624 0001:0000f105   625 0001:0000f114   628 0001:0000f140
   634 0001:0000f144   635 0001:0000f154   636 0001:0000f160   637 0001:0000f16c
   639 0001:0000f178   641 0001:0000f185   642 0001:0000f192   644 0001:0000f19f
   645 0001:0000f1ac   646 0001:0000f1bb   649 0001:0000f1c0   654 0001:0000f1c3
   655 0001:0000f1d0   656 0001:0000f1dd   657 0001:0000f1ea   658 0001:0000f1f7
   660 0001:0000f204   661 0001:0000f211   663 0001:0000f21e   664 0001:0000f22b
   665 0001:0000f239   668 0001:0000f240   669 0001:0000f259   672 0001:0000f273
   674 0001:0000f27c   682 0001:0000f28d   683 0001:0000f2aa   685 0001:0000f2c3
   686 0001:0000f2cb   688 0001:0000f319   689 0001:0000f323   691 0001:0000f32c
   693 0001:0000f337   696 0001:0000f33b   698 0001:0000f343   701 0001:0000f347
   703 0001:0000f349   704 0001:0000f353   714 0001:0000f374   716 0001:0000f384
   718 0001:0000f395   722 0001:0000f3d0   723 0001:0000f3e9   726 0001:0000f3ff
   729 0001:0000f40d   731 0001:0000f48b   734 0001:0000f49b   736 0001:0000f4b0
   737 0001:0000f4ef   739 0001:0000f506   743 0001:0000f513   746 0001:0000f526
   748 0001:0000f533   750 0001:0000f541   753 0001:0000f546   761 0001:0000f553
   764 0001:0000f565   766 0001:0000f575   769 0001:0000f57d   771 0001:0000f5b6
   772 0001:0000f5cd   775 0001:0000f5da   782 0001:0000f5ed   787 0001:0000f5ef
   788 0001:0000f608   790 0001:0000f622   791 0001:0000f62e   793 0001:0000f697
   794 0001:0000f6a1   796 0001:0000f6aa   798 0001:0000f6b4   801 0001:0000f6b8
   803 0001:0000f6c0   806 0001:0000f6c4   808 0001:0000f6c6   809 0001:0000f6d0
   814 0001:0000f6f5   816 0001:0000f705   820 0001:0000f716   823 0001:0000f727
   824 0001:0000f736   825 0001:0000f744   827 0001:0000f752   830 0001:0000f811
   831 0001:0000f8ec   832 0001:0000f8f5   835 0001:0000f912   838 0001:0000f924
   840 0001:0000f92e   842 0001:0000f935   845 0001:0000f950   846 0001:0000f951
   847 0001:0000f988   850 0001:0000f990   851 0001:0000f995   853 0001:0000f9a9
   855 0001:0000f9b3   857 0001:0000f9b7   859 0001:0000f9c6   861 0001:0000f9df
   865 0001:0000f9ef   867 0001:0000f9f9   869 0001:0000fa08   872 0001:0000fa10
   874 0001:0000fa2e   877 0001:0000fa43   880 0001:0000fa64   882 0001:0000fa85
   884 0001:0000faa3   887 0001:0000fabb   890 0001:0000fac4   891 0001:0000fad2
   893 0001:0000fadf   894 0001:0000faee   896 0001:0000faf3   900 0001:0000faf5
   902 0001:0000fb0c   907 0001:0000fb1b   908 0001:0000fb29   910 0001:0000fb36
   911 0001:0000fb45   913 0001:0000fb4a   917 0001:0000fb4c   919 0001:0000fb63
   922 0001:0000fb72   882 0001:0000fbc1   925 0001:0000fbd9   927 0001:0000fbe8
   930 0001:0000fbf0   931 0001:0000fc41   932 0001:0000fc88   933 0001:0000fcd0
   935 0001:0000fcd7   941 0001:0000fce5   943 0001:0000fced   945 0001:0000fcfb
   947 0001:0000fd08   948 0001:0000fd65   950 0001:0000fdaa   951 0001:0000fdb8
   953 0001:0000fe07   954 0001:0000fe15   955 0001:0000fe35   956 0001:0000fea5
   958 0001:0000feaa   959 0001:0000ff01   960 0001:0000ff45   961 0001:0000ff88
   964 0001:0000ff8f   966 0001:0000ff94   967 0001:0000ffec   968 0001:0001002f
   969 0001:00010073   972 0001:0001007a   978 0001:0001007f   979 0001:0001008e
   981 0001:000100df   982 0001:000100f2   983 0001:00010105   984 0001:00010118
   985 0001:00010121   986 0001:00010148   989 0001:000101c0   990 0001:000101df
   992 0001:000101ef   994 0001:0001020f   995 0001:0001026b   998 0001:000102c8
  1006 0001:000102ec  1008 0001:00010334  1001 0001:00010336  1015 0001:00010380

Line numbers for .\Release\alarmcontrolmainwindow.obj(C:\Program Files\Microsoft Visual Studio\VC98\INCLUDE\new) segment .text

    45 0001:0000d220

Line numbers for .\Release\alarmcontrolmainwindow.obj(C:\Program Files\Microsoft Visual Studio\VC98\INCLUDE\xmemory) segment .text

    34 0001:0000d1d0

Line numbers for .\Release\alarmcontrolmainwindow.obj(C:\Qt\3.2.3\include\qvaluelist.h) segment .text

    66 0001:0000c360   259 0001:0000d070   260 0001:0000d08a   261 0001:0000d0e8
   288 0001:0000d110   289 0001:0000d12a   290 0001:0000d15a   291 0001:0000d161
   292 0001:0000d167   293 0001:0000d16d   294 0001:0000d170   295 0001:0000d177
   296 0001:0000d17f   371 0001:0000d190   372 0001:0000d194   373 0001:0000d1ba
   374 0001:0000d1bd   375 0001:0000d1c4   377 0001:0000d1cc   266 0001:0000d2a0
   267 0001:0000d2bd   268 0001:0000d309   270 0001:0000d324   271 0001:0000d334
   272 0001:0000d338   273 0001:0000d363

Line numbers for .\Release\alarmcontrolmainwindow.obj(C:\Qt\3.2.3\include\qptrlist.h) segment .text

   158 0001:0000be80

Line numbers for .\Release\alarmcontrolmainwindow.obj(C:\Program Files\Microsoft Visual Studio\VC98\INCLUDE\xtree) segment .text

   174 0001:0000bd60   175 0001:0000bdf3   176 0001:0000bdff   178 0001:0000be05
   179 0001:0000be11   180 0001:0000be1e   181 0001:0000be24   182 0001:0000be34
   183 0001:0000be38   191 0001:0000c000   217 0001:0000c010   220 0001:0000c017
   222 0001:0000c02d   223 0001:0000c03d   220 0001:0000c049   224 0001:0000c051
   225 0001:0000c05c   234 0001:0000c1da   235 0001:0000c1df   227 0001:0000c1e3
   229 0001:0000c1eb   230 0001:0000c1f2   232 0001:0000c1fc   233 0001:0000c205
   234 0001:0000c21b   235 0001:0000c23a   363 0001:0000c260   368 0001:0000c280
   369 0001:0000c2b7   370 0001:0000c2bd   371 0001:0000c2cf   364 0001:0000c2e1
   365 0001:0000c2e5   366 0001:0000c329   371 0001:0000c333   261 0001:0000c400
   262 0001:0000c40b   264 0001:0000c418   265 0001:0000c420   266 0001:0000c42f
   268 0001:0000c435   269 0001:0000c437   270 0001:0000c44f   271 0001:0000c459
   272 0001:0000c461   273 0001:0000c466   274 0001:0000c46a   275 0001:0000c470
   276 0001:0000c473   277 0001:0000c475   278 0001:0000c47b   279 0001:0000c480
   280 0001:0000c485   281 0001:0000c48a   282 0001:0000c496   283 0001:0000c499
   284 0001:0000c4a2   285 0001:0000c4a4   286 0001:0000c4a6   287 0001:0000c4a9
   289 0001:0000c4ac   290 0001:0000c4bf   291 0001:0000c4c6   292 0001:0000c4c9
   293 0001:0000c4d8   294 0001:0000c4db   295 0001:0000c4e4   296 0001:0000c4e6
   297 0001:0000c4e8   298 0001:0000c4eb   300 0001:0000c4f6   301 0001:0000c500
   302 0001:0000c505   303 0001:0000c507   304 0001:0000c523   306 0001:0000c52b
   307 0001:0000c537   308 0001:0000c53a   309 0001:0000c53c   290 0001:0000c551
   310 0001:0000c555   311 0001:0000c565   312 0001:0000c57c   313 0001:0000c585
   314 0001:0000c588   315 0001:0000c58d   316 0001:0000c590   317 0001:0000c596
   318 0001:0000c5d4   320 0001:0000c5da   334 0001:0000c5f1   336 0001:0000c5f3
   337 0001:0000c5f8   338 0001:0000c5fb   339 0001:0000c601   340 0001:0000c641
   342 0001:0000c646   343 0001:0000c65d   344 0001:0000c663   324 0001:0000c674
   325 0001:0000c67c   327 0001:0000c681   328 0001:0000c6c1   329 0001:0000c6c7
   330 0001:0000c6d0   331 0001:0000c6d6   332 0001:0000c6dc   333 0001:0000c707
   332 0001:0000c70c   333 0001:0000c717   332 0001:0000c71c   333 0001:0000c721
   346 0001:0000c726   347 0001:0000c72d   349 0001:0000c733   350 0001:0000c771
   351 0001:0000c776   352 0001:0000c77f   353 0001:0000c785   354 0001:0000c78a
   356 0001:0000c7ca   357 0001:0000c7cd   358 0001:0000c7d7   359 0001:0000c7f7
   360 0001:0000c7fd   361 0001:0000c800   444 0001:0000c820   445 0001:0000c834
   446 0001:0000c83f   447 0001:0000c841   448 0001:0000c849   450 0001:0000c870
   451 0001:0000c885   452 0001:0000c89b   453 0001:0000c8a3   455 0001:0000c8a9
   456 0001:0000c8b5   457 0001:0000c8cc   458 0001:0000c8d0   459 0001:0000c8d9
   460 0001:0000c8f2   462 0001:0000c910   464 0001:0000c921   465 0001:0000c94c
   467 0001:0000c94f   475 0001:0000c97d   476 0001:0000c980   477 0001:0000c988
   468 0001:0000c98d   469 0001:0000c98f   470 0001:0000c996   471 0001:0000c999
   472 0001:0000c99f   473 0001:0000c9a5   479 0001:0000c9a7   480 0001:0000c9c3
   481 0001:0000c9d0   482 0001:0000c9d3   483 0001:0000c9d8   484 0001:0000c9e0
   485 0001:0000c9e3   486 0001:0000c9ec   487 0001:0000c9f2   488 0001:0000c9f7
   489 0001:0000c9fc   490 0001:0000c9fe   491 0001:0000ca39   492 0001:0000ca43
   493 0001:0000ca4c   494 0001:0000ca7b   493 0001:0000ca80   494 0001:0000ca8e
   493 0001:0000ca93   494 0001:0000ca98   496 0001:0000ca9d   497 0001:0000caa2
   498 0001:0000caaa   499 0001:0000caad   500 0001:0000cab6   501 0001:0000cabc
   502 0001:0000cac1   503 0001:0000cac5   504 0001:0000cac7   505 0001:0000cb04
   506 0001:0000cb0e   507 0001:0000cb17   508 0001:0000cb64   509 0001:0000cb73
   511 0001:0000cb80   512 0001:0000cb85   513 0001:0000cb8a   514 0001:0000cb9f
   515 0001:0000cbad   516 0001:0000cbb0   517 0001:0000cbb2   518 0001:0000cbbf
   524 0001:0000cbd0   525 0001:0000cbd8   526 0001:0000cbdd   527 0001:0000cbe7
   528 0001:0000cbea   529 0001:0000cbf0   530 0001:0000cbf8   535 0001:0000cbfb
   536 0001:0000cbfd   531 0001:0000cc04   532 0001:0000cc0b   535 0001:0000cc0d
   536 0001:0000cc0f   534 0001:0000cc16   535 0001:0000cc19   536 0001:0000cc1b
   542 0001:0000cc30   543 0001:0000cc40   544 0001:0000cc48   554 0001:0000cc50
   555 0001:0000cc57   556 0001:0000cc5c   557 0001:0000cc67   558 0001:0000cc6a
   559 0001:0000cc70   560 0001:0000cc78   565 0001:0000cc7b   566 0001:0000cc7e
   561 0001:0000cc85   562 0001:0000cc8d   565 0001:0000cc90   566 0001:0000cc93
   564 0001:0000cc9a   565 0001:0000cc9c   566 0001:0000cc9f   577 0001:0000ccb0
   579 0001:0000ccb7   580 0001:0000ccbb   581 0001:0000ccc8    92 0001:0000ccd0
    94 0001:0000cce2   101 0001:0000cce6    95 0001:0000cce9    96 0001:0000ccf5
   101 0001:0000cd08    99 0001:0000cd09   100 0001:0000cd12   101 0001:0000cd1d
   103 0001:0000cd30   104 0001:0000cd40   110 0001:0000cd51   107 0001:0000cd52
   108 0001:0000cd5c   109 0001:0000cd68   110 0001:0000cd6f

Line numbers for .\Release\alarmcontrolmainwindow.obj(C:\Qt\3.2.3\include\qvaluevector.h) segment .text

   277 0001:0000bd40   279 0001:0000bd55   478 0001:0000bff0   480 0001:0000bffd
   529 0001:0000cda0   531 0001:0000cdb2   532 0001:0000cdbb   533 0001:0000cdd3
   534 0001:0000cde3   536 0001:0000ce63   537 0001:0000ce69   534 0001:0000ce6c
   536 0001:0000ced5   537 0001:0000cedb   534 0001:0000cede   536 0001:0000cf54
   537 0001:0000cf63   536 0001:0000cf66   537 0001:0000cf6e   497 0001:0000cf80
   499 0001:0000cf9a   500 0001:0000d01e   499 0001:0000d02d   500 0001:0000d03c
   121 0001:0000d380   123 0001:0000d39e   124 0001:0000d3a7   125 0001:0000d3b4
   126 0001:0000d3bd   130 0001:0000d3c0   137 0001:0000d3dd   133 0001:0000d3e5
   134 0001:0000d3e8   135 0001:0000d3eb   137 0001:0000d3ee

Line numbers for .\Release\alarmcontrolmainwindow.obj(C:\Qt\3.2.3\include\qdict.h) segment .text

    60 0001:0000bd20    75 0001:0000bd30   105 0001:0000be50   112 0001:0000be60
    57 0001:0000beb0    57 0001:0000bf30    96 0001:0000cd80    98 0001:0000cd96

Line numbers for .\Release\alarmcontrolmainwindow.obj(C:\Program Files\Microsoft Visual Studio\VC98\INCLUDE\list) segment .text

   151 0001:0000bcd0   152 0001:0000bd05   153 0001:0000bd11   218 0001:0000bf90
   221 0001:0000bfbe   222 0001:0000bfc3   223 0001:0000bfd2   224 0001:0000bfdb
   235 0001:0000c3c0   236 0001:0000c3c8   239 0001:0000c3cf   240 0001:0000c3df
   241 0001:0000c3e9

Line numbers for .\Release\alarmcontrolmainwindow.obj(w:\core_svn\Source\windows\bin\AlarmControl\alarmcontrolmainwindow.h) segment .text

   109 0001:000021b0   132 0001:00004cc0

Line numbers for .\Release\alarmcontrolmainwindow.obj(C:\Qt\3.2.3\include\qstring.h) segment .text

   304 0001:00002190   306 0001:000021a2

Line numbers for .\Release\alarmcontrolmainwindow.obj(w:\core_svn\Source\windows\bin\AlarmControl\alarmcontrolmainwindow.cpp) segment .text

    89 0001:00000130    93 0001:00000425   108 0001:0000042a   109 0001:0000049e
   110 0001:000004d8   111 0001:00000512   113 0001:0000054c   114 0001:00000574
   117 0001:00000588   118 0001:0000059b   119 0001:000005a9   120 0001:000005d2
   121 0001:00000652   122 0001:0000069f   126 0001:000006ab   128 0001:000006c5
   130 0001:000006e8   131 0001:000007bd   133 0001:000007ca   135 0001:0000080e
   136 0001:00000860   137 0001:00000881   138 0001:000008da   140 0001:0000095d
   141 0001:000009a1   142 0001:000009c8   145 0001:00000a27   146 0001:00000a37
   147 0001:00000a4d   149 0001:00000adb   152 0001:00000aeb   154 0001:00000b96
   155 0001:00000bbf   156 0001:00000c48   157 0001:00000cb4   158 0001:00000d21
   159 0001:00000d8d   160 0001:00000dfa   162 0001:00000e6a   165 0001:00000e6e
   169 0001:00000ff3   170 0001:00001007   171 0001:000010a1   174 0001:000010bc
   175 0001:000010d0   181 0001:00001151   184 0001:000011d2   186 0001:00001253
   187 0001:00001298   188 0001:000012b9   189 0001:00001312   190 0001:00001353
   193 0001:000013df   194 0001:000013f9   201 0001:0000140d   204 0001:00001424
   209 0001:00001471   208 0001:00001487   211 0001:0000148f   212 0001:000014a2
   213 0001:000014b9   215 0001:00001516   216 0001:0000156f   218 0001:0000157d
   220 0001:000015d5   221 0001:000015ec   223 0001:0000160d   224 0001:0000161e
   226 0001:00001626   228 0001:0000162c   229 0001:0000165f   231 0001:000016b6
   232 0001:000016cd   234 0001:000016ee   235 0001:000016ff   237 0001:00001707
   239 0001:0000170d   240 0001:0000172c   244 0001:00001790   246 0001:000017df
   247 0001:000017f6   249 0001:00001817   250 0001:00001828   252 0001:00001830
   254 0001:00001836   255 0001:00001855   257 0001:000018ad   258 0001:000018c4
   259 0001:000018e5   260 0001:0000193c   261 0001:00001962   263 0001:000019b6
   265 0001:000019bd   267 0001:00001a11   269 0001:00001a18   271 0001:00001a6c
   272 0001:00001a83   273 0001:00001aa4   274 0001:00001ab5   275 0001:00001ad4
   277 0001:00001b28   278 0001:00001b3f   279 0001:00001b60   280 0001:00001b71
   281 0001:00001b8c   287 0001:00001bc6   289 0001:00001bdf   209 0001:00001c34
   294 0001:00001c54   295 0001:00001cf9   297 0001:00001d55   299 0001:00001d68
   302 0001:00001db6   304 0001:00001dbd   307 0001:00001e4e   309 0001:00001e57
   312 0001:00001e63   315 0001:00001e76   317 0001:00001ece   319 0001:00001ed3
   320 0001:00001eeb   321 0001:00001f00   323 0001:00001f12   326 0001:00001f2d
   327 0001:00001f94   330 0001:00001fa0   334 0001:000020a8   337 0001:00002240
   339 0001:00002274   340 0001:00002279   343 0001:00002290   344 0001:0000229d
   345 0001:000022a6   346 0001:000022b0   348 0001:000022bc   351 0001:000022c6
   353 0001:000022d9   355 0001:000022e3   357 0001:000022f5   358 0001:000022fc
   355 0001:00002315   361 0001:0000231b   362 0001:00002341   364 0001:00002351
   365 0001:0000235f   368 0001:00002369   369 0001:00002376   370 0001:00002385
   372 0001:0000238f   373 0001:00002399   374 0001:000023a8   376 0001:000023b2
   377 0001:000023bc   379 0001:000023c3   380 0001:000023cd   382 0001:000023d4
   383 0001:000023de   385 0001:000023e5   387 0001:000023ef   389 0001:000023f9
   391 0001:00002405   393 0001:00002412   394 0001:0000241f   398 0001:00002440
   400 0001:0000244c   404 0001:00002463   405 0001:0000246d   406 0001:00002473
   407 0001:0000247d   408 0001:00002483   409 0001:0000248d   410 0001:00002493
   411 0001:0000249d   412 0001:000024a3   413 0001:000024ad   414 0001:000024b4
   415 0001:000024c4   416 0001:000024c9   417 0001:000024d3   418 0001:000024d8
   419 0001:000024e2   421 0001:000024e7   422 0001:000024f5   423 0001:000024ff
   426 0001:00002720   427 0001:0000273e   430 0001:00002746   433 0001:0000274c
   436 0001:0000275d   437 0001:0000277b   441 0001:0000278f   442 0001:000027aa
   443 0001:00002829   446 0001:00002833   448 0001:0000284f   449 0001:0000287b
   450 0001:00002886   455 0001:0000289a   457 0001:000028a8   459 0001:000028e1
   461 0001:000028fb   462 0001:00002906   463 0001:00002917   464 0001:0000292a
   466 0001:00002936   475 0001:000029dd   476 0001:000029f5   478 0001:000029fd
   481 0001:00002a03   485 0001:00002a18   488 0001:00002a1f   489 0001:00002a2a
   491 0001:00002a2e   492 0001:00002a39   493 0001:00002a4a   494 0001:00002a5d
   495 0001:00002a69   496 0001:00002a92   498 0001:00002aa5   499 0001:00002ab0
   500 0001:00002ac1   501 0001:00002ad4   502 0001:00002ae0   596 0001:00002b93
   506 0001:00002ba2   507 0001:00002bad   508 0001:00002bbe   509 0001:00002bd1
   510 0001:00002bdd   512 0001:00002c05   515 0001:00002c0c   516 0001:00002c3a
   517 0001:00002c5c   518 0001:00002c74   519 0001:00002ca2   520 0001:00002cbe
   521 0001:00002cd0   522 0001:00002cfe   523 0001:00002d1a   534 0001:00002d2c
   537 0001:00002d42   538 0001:00002d4c   541 0001:00002d51   542 0001:00002d62
   545 0001:00002d7a   546 0001:00002d8c   547 0001:00002d91   550 0001:00002da3
   552 0001:00002db0   553 0001:00002dcd   554 0001:00002dd9   555 0001:00002dee
   558 0001:00002dfe   560 0001:00002e06   564 0001:00002e0c   565 0001:00002e21
   570 0001:00002e32   575 0001:00002e3d   585 0001:00002e4d   586 0001:00002e9c
   587 0001:00002ebd   589 0001:00002ec3   578 0001:00002ec5   579 0001:00002f14
   580 0001:00002f35   593 0001:00002f44   527 0001:000030b1   528 0001:000030bc
   529 0001:000030cd   530 0001:000030d9   596 0001:00003186   599 0001:000032c0
   603 0001:000032d5   605 0001:000032e2   606 0001:000032ff   609 0001:0000330d
   611 0001:00003312   617 0001:00003316   618 0001:0000331d   620 0001:00003329
   624 0001:0000332b   626 0001:0000333d   627 0001:00003341   631 0001:00003370
   633 0001:00003389   638 0001:000033a0   640 0001:000033f4   641 0001:00003431
   644 0001:00003450   646 0001:00003453   653 0001:00003460   654 0001:0000354e
   657 0001:00003590   658 0001:000035ba   662 0001:00003610   663 0001:0000361e
   664 0001:0000367a   667 0001:00003690   669 0001:000036a1   672 0001:000036b0
   673 0001:000036cb   675 0001:000037b1   678 0001:000037d0   680 0001:000037de
   683 0001:000037f0   684 0001:000037f1   685 0001:00003809   688 0001:00003810
   690 0001:00003813   693 0001:00003820   695 0001:00003827   698 0001:00003830
   699 0001:0000384a   700 0001:0000384d   701 0001:00003855   703 0001:00003861
   705 0001:000038af   708 0001:000038c0   715 0001:000038d0   716 0001:000038fd
   719 0001:00003930   720 0001:0000395c   721 0001:000039ac   723 0001:000039b3
   725 0001:000039b9   728 0001:000039e0   730 0001:000039e3   733 0001:000039f0
   734 0001:00003a0a   738 0001:00003a0f   739 0001:00003a1f   741 0001:00003a2d
   743 0001:00003a31   744 0001:00003a37   746 0001:00003a3a   748 0001:00003a3c
   752 0001:00003a89   761 0001:00003ab0   763 0001:00003ac9   766 0001:00003ace
   768 0001:00003afa   769 0001:00003aff   772 0001:00003b05   775 0001:00003b2b
   779 0001:00003b32   784 0001:00003b50   785 0001:00003b7d   788 0001:00003bb0
   789 0001:00003bdc   790 0001:00003c2c   792 0001:00003c33   794 0001:00003c39
   802 0001:00003c60   803 0001:00003c7a   807 0001:00003c7f   808 0001:00003c8f
   810 0001:00003c9d   812 0001:00003ca1   813 0001:00003caf   815 0001:00003cb2
   812 0001:00003cb4   813 0001:00003cbd   815 0001:00003cc0   817 0001:00003cc2
   821 0001:00003d0f   833 0001:00003d30   835 0001:00003d4a   837 0001:00003d4f
   842 0001:00003d82   845 0001:00003d95   846 0001:00003d9d   847 0001:00003daa
   848 0001:00003dac   854 0001:00003df9   857 0001:00003e10   862 0001:00003e2b
   872 0001:00003e46   880 0001:00004204   883 0001:00004230   890 0001:00004248
   892 0001:00004261   894 0001:00004281   897 0001:0000429c   915 0001:000042c0
   926 0001:000042d0   927 0001:000042df   931 0001:00004310   932 0001:00004330
   933 0001:000043d7   934 0001:000043f4   936 0001:0000440b   937 0001:00004417
   939 0001:00004434   940 0001:0000450b   941 0001:00004518   942 0001:00004527
   943 0001:0000457e   944 0001:0000458b   945 0001:0000459b   948 0001:00004657
   950 0001:00004668   953 0001:00004673   954 0001:00004687   959 0001:0000469a
   961 0001:00004736   963 0001:0000474c   965 0001:00004797   968 0001:000047a8
   974 0001:000047b0   975 0001:000047c1   976 0001:000047d7   979 0001:00004868
   980 0001:00004894   983 0001:000048a8   984 0001:000048d9   986 0001:000048e7
   988 0001:000048f6  1006 0001:0000496c   988 0001:0000499a   992 0001:000049a0
  1006 0001:00004a31   992 0001:00004a58  1006 0001:00004a6d   992 0001:00004a93
   993 0001:00004a95   994 0001:00004a9d   997 0001:00004aa9   998 0001:00004b19
  1002 0001:00004b1e  1003 0001:00004b30  1004 0001:00004b7e  1006 0001:00004b9f
  1007 0001:00004c15  1011 0001:00004c50  1013 0001:00004c93  1016 0001:00004cf0
  1017 0001:00004d16  1021 0001:00004d60  1022 0001:00004d7a  1023 0001:00004db0
  1024 0001:00004e08  1026 0001:00004e20  1027 0001:00004e22  1028 0001:00004e3e
  1030 0001:00004e50  1031 0001:00004e52  1032 0001:00004e6e  1044 0001:00004e80
  1046 0001:00004ec3  1049 0001:00004f10  1050 0001:00004f36  1054 0001:00004f80
  1055 0001:00004f9a  1056 0001:00004fd0  1057 0001:00005028  1059 0001:00005040
  1060 0001:00005042  1061 0001:0000505e  1063 0001:00005070  1064 0001:00005072
  1065 0001:0000508e  1067 0001:000050a0  1069 0001:000050a2  1071 0001:000050b0
  1073 0001:000050b5  1076 0001:000050c0  1082 0001:000050dc  1084 0001:0000513a
  1086 0001:0000514c  1090 0001:00005164  1093 0001:000051e5  1095 0001:000051f3
  1096 0001:00005272  1097 0001:00005287  1098 0001:00005293  1100 0001:0000529e
  1102 0001:000052ab  1103 0001:000052c4  1104 0001:000052d6  1112 0001:0000530f
  1114 0001:00005323  1116 0001:00005333  1118 0001:0000534e  1120 0001:00005357
  1122 0001:00005364  1124 0001:0000537b  1126 0001:00005383  1129 0001:00005389
  1131 0001:0000538d  1149 0001:000053f7  1148 0001:0000540a  1149 0001:0000545e
  1138 0001:00005473  1139 0001:00005497  1140 0001:000054b4  1144 0001:000054bc
  1145 0001:000054cd  1146 0001:000054da  1152 0001:000054f0  1155 0001:0000550d
  1156 0001:0000553c  1158 0001:00005549  1159 0001:00005557  1163 0001:00005565
  1165 0001:0000556a  1166 0001:00005572  1167 0001:00005578  1156 0001:00005597
  1168 0001:0000559f  1169 0001:000055a9  1170 0001:000055bf  1171 0001:000055c9
  1179 0001:000055e0  1172 0001:000055ef  1174 0001:000055fb  1176 0001:00005614
  1178 0001:00005629  1179 0001:0000563b  1182 0001:00005650  1183 0001:00005671
  1184 0001:0000567b  1189 0001:00005682  1190 0001:0000569a  1191 0001:00005739
  1192 0001:00005743  1195 0001:0000574f  1196 0001:0000575e  1199 0001:00005767
  1201 0001:00005772  1202 0001:00005781  1203 0001:0000578a  1206 0001:000057a6
  1207 0001:000057b9  1209 0001:000057cd  1210 0001:000057db  1211 0001:000057fa
  1214 0001:000058e8  1216 0001:000058f6  1219 0001:00005905  1222 0001:00005913
  1227 0001:0000592d  1232 0001:0000593b  1233 0001:00005940  1229 0001:00005942
  1239 0001:00005947  1241 0001:00005971  1244 0001:0000598c  1247 0001:000059ad
  1248 0001:000059c3  1207 0001:00005a44  1251 0001:00005a53  1252 0001:00005a62
  1253 0001:00005a6b  1254 0001:00005a94  1257 0001:00005ab0  1258 0001:00005ad1
  1259 0001:00005adb  1264 0001:00005ae2  1265 0001:00005afa  1266 0001:00005ba0
  1267 0001:00005baa  1270 0001:00005bb6  1271 0001:00005bc9  1273 0001:00005bde
  1274 0001:00005bec  1275 0001:00005c0b  1277 0001:00005ceb  1279 0001:00005cf9
  1281 0001:00005d08  1284 0001:00005d21  1287 0001:00005d33  1292 0001:00005d4e
  1294 0001:00005d8d  1297 0001:00005da8  1300 0001:00005dc9  1301 0001:00005ddf
  1271 0001:00005e60  1302 0001:00005e75  1303 0001:00005e9e  1306 0001:00005ec0
  1314 0001:00005ede  1321 0001:00005ee6  1322 0001:00005f00  1324 0001:00005f0f
  1325 0001:00005f24  1327 0001:00005f37  1328 0001:00005f43  1329 0001:00005f54
  1330 0001:00005f59  1332 0001:00005f5d  1339 0001:00005f7c  1342 0001:00005f9b
  1343 0001:00005fa6  1325 0001:00005fcf  1344 0001:00005fdd  1345 0001:00005fea
  1348 0001:00005ffa  1349 0001:00006007  1351 0001:00006013  1352 0001:00006028
  1354 0001:0000603b  1355 0001:00006047  1356 0001:00006058  1357 0001:0000605d
  1359 0001:00006061  1366 0001:00006081  1369 0001:000060a0  1370 0001:000060ab
  1352 0001:000060d4  1371 0001:000060e2  1372 0001:000060f2  1377 0001:000060ff
  1379 0001:00006112  1383 0001:0000611b  1384 0001:00006134  1385 0001:00006153
  1387 0001:00006168  1388 0001:0000617a  1390 0001:0000618f  1392 0001:00006197
  1417 0001:0000619e  1418 0001:000061ba  1421 0001:00006203  1422 0001:00006218
  1423 0001:0000623d  1442 0001:00006261  1426 0001:00006272  1427 0001:00006293
  1428 0001:000062a8  1429 0001:000062b5  1430 0001:000062c1  1431 0001:000062ce
  1432 0001:000062eb  1435 0001:000062f1  1436 0001:000062fb  1437 0001:00006313
  1438 0001:00006320  1439 0001:0000632c  1440 0001:00006339  1441 0001:00006347
  1445 0001:00006350  1454 0001:00006373  1456 0001:0000638b  1458 0001:00006399
  1459 0001:000063af  1461 0001:000063c3  1462 0001:000063cf  1463 0001:000063df
  1465 0001:000063e6  1467 0001:000063ea  1470 0001:0000640b  1471 0001:00006419
  1472 0001:0000644b  1459 0001:00006470  1473 0001:0000647e  1474 0001:0000648b
  1477 0001:00006499  1479 0001:000064a7  1481 0001:000064b5  1482 0001:000064ca
  1484 0001:000064de  1485 0001:000064ea  1487 0001:000064fb  1489 0001:00006502
  1491 0001:00006506  1494 0001:00006526  1495 0001:00006534  1496 0001:00006567
  1482 0001:0000658b  1497 0001:00006599  1498 0001:000065a6  1501 0001:000065b4
  1503 0001:000065be  1524 0001:000065c5  1508 0001:000065d6  1509 0001:000065f7
  1510 0001:0000660c  1511 0001:00006619  1512 0001:00006625  1513 0001:00006632
  1514 0001:0000664f  1517 0001:00006655  1518 0001:0000665f  1519 0001:00006677
  1520 0001:00006684  1521 0001:00006690  1522 0001:0000669d  1523 0001:000066ab
  1527 0001:000066c0  1538 0001:000066e6  1540 0001:000066f7  1671 0001:000066fe
  1547 0001:0000670f  1549 0001:0000671d  1551 0001:00006727  1552 0001:0000672e
  1554 0001:0000673b  1556 0001:00006753  1558 0001:00006761  1564 0001:00006767
  1567 0001:00006775  1568 0001:0000678f  1571 0001:0000679c  1572 0001:000067a1
  1577 0001:000067a5  1579 0001:000067b0  1583 0001:000067b4  1585 0001:000067c1
  1587 0001:000067cf  1588 0001:000067ea  1590 0001:000067fe  1591 0001:0000680a
  1568 0001:00006819  1591 0001:00006823  1592 0001:00006825  1593 0001:0000682c
  1595 0001:00006830  1614 0001:0000684e  1599 0001:0000685b  1601 0001:00006865
  1603 0001:0000686c  1605 0001:00006871  1607 0001:00006873  1610 0001:00006878
  1612 0001:0000687a  1614 0001:0000687f  1588 0001:0000689f  1615 0001:000068ad
  1616 0001:000068c2  1620 0001:000068d0  1622 0001:000068de  1623 0001:0000691f
  1626 0001:00006929  1634 0001:00006935  1635 0001:00006942  1671 0001:0000694f
  1631 0001:00006960  1671 0001:0000696d  1628 0001:0000697e  1640 0001:00006984
  1642 0001:00006986  1646 0001:000069c8  1648 0001:000069d6  1649 0001:000069e3
  1671 0001:000069f0  1655 0001:00006a01  1656 0001:00006a22  1657 0001:00006a37
  1658 0001:00006a44  1659 0001:00006a50  1660 0001:00006a5d  1661 0001:00006a7a
  1664 0001:00006a80  1665 0001:00006a8a  1666 0001:00006aa2  1667 0001:00006aaf
  1668 0001:00006abb  1669 0001:00006ac8  1670 0001:00006ad6  1675 0001:00006ae0
  1681 0001:00006aef  1682 0001:00006af7  1683 0001:00006b02  1685 0001:00006b09
  1686 0001:00006b17  1688 0001:00006b1f  1690 0001:00006b24  1692 0001:00006b26
  1694 0001:00006b28  1697 0001:00006b31  1698 0001:00006b48  1702 0001:00006b4c
  1703 0001:00006b65  1705 0001:00006b76  1706 0001:00006b7e  1708 0001:00006b8d
  1711 0001:00006b90  1716 0001:00006b99  1726 0001:00006ba8  1727 0001:00006bb1
  1731 0001:00006bbb  1722 0001:00006bbe  1723 0001:00006bc7  1731 0001:00006bd1
  1718 0001:00006bd4  1719 0001:00006bdd  1731 0001:00006be7  1734 0001:00006bf0
  1736 0001:00006c08  1737 0001:00006c25  1738 0001:00006c39  1739 0001:00006c49
  1744 0001:00006c90  1749 0001:00006cac  1751 0001:00006cb0  1753 0001:00006cc4
  1754 0001:00006cde  1756 0001:00006ce8  1765 0001:00006cf2  1766 0001:00006cf9
  1768 0001:00006cfd  1771 0001:00006d07  1761 0001:00006d0a  1771 0001:00006d24
  1774 0001:00006d30  1779 0001:00006d31  1781 0001:00006d3e  1783 0001:00006d70
  1854 0001:00006d80  1868 0001:00006d83  1873 0001:00006d88  1881 0001:00006d8f
  1882 0001:00006d99  1889 0001:00006da0  1892 0001:00006db3  1896 0001:00006dba
  1898 0001:00006dc8  1901 0001:00006dd0  1909 0001:00006de9  1910 0001:00006df3
  1941 0001:00006df7  1914 0001:00006e08  1915 0001:00006e17  1919 0001:00006e1a
  1923 0001:00006e22  1925 0001:00006e2f  1926 0001:00006e49  1928 0001:00006e70
  1929 0001:00006ec8  1930 0001:00006ed4  1931 0001:00006f1e  1932 0001:00006f2b
  1941 0001:00006f2e  1937 0001:00006f3f  1941 0001:00006f49  1944 0001:00006f60
  1948 0001:00006f72  1950 0001:00006f7c  1953 0001:00006f8b  1957 0001:00006f92
  1963 0001:00006fa0  1965 0001:00006fad  1968 0001:00006fb3  1970 0001:00006fc5
  1971 0001:00006fd7  2052 0001:00006fe2  1975 0001:00006fe5  1977 0001:00006fed
  1978 0001:00006ffb  1981 0001:00007007  1984 0001:00007016  1989 0001:0000702e
  2052 0001:00007044  1992 0001:00007047  1994 0001:0000704f  1996 0001:00007056
  1997 0001:00007065  2052 0001:00007070  1999 0001:00007073  2005 0001:0000707b
  2006 0001:0000708e  2010 0001:000070a0  2015 0001:000070ba  2052 0001:000070c2
  2012 0001:000070c5  2052 0001:000070cd  2021 0001:000070d0  2027 0001:000070d8
  2029 0001:000070eb  2034 0001:000070fa  2052 0001:00007102  2031 0001:00007105
  2052 0001:0000710d  2040 0001:00007110  2042 0001:0000711e  2043 0001:00007129
  2048 0001:0000713b  2052 0001:0000714d  2051 0001:00007150  2052 0001:00007160
  2055 0001:00007170  2061 0001:00007190  2064 0001:000071a6  2065 0001:000071c1
  2067 0001:000071cb  2070 0001:000071d8  2072 0001:000071e1  2078 0001:000071e5
  2079 0001:000071ec  2081 0001:000071f0  2083 0001:000071f2  2088 0001:00007207
  2091 0001:00007211  2092 0001:00007219  2094 0001:00007222  2096 0001:00007226
  2101 0001:00007244  2102 0001:00007254  2124 0001:0000725e  2106 0001:0000727f
  2107 0001:000072a3  2108 0001:000072bd  2109 0001:000072d2  2110 0001:000072df
  2111 0001:000072eb  2112 0001:000072f8  2116 0001:00007300  2117 0001:00007311
  2118 0001:0000731b  2119 0001:00007330  2120 0001:0000733d  2121 0001:00007349
  2122 0001:00007356  2127 0001:00007360  2128 0001:0000737e  2129 0001:000073a2
  2130 0001:000073f7  2131 0001:00007407  2132 0001:0000741b  2263 0001:0000744e
  2323 0001:00007450  2139 0001:00007463  2140 0001:000074ed  2142 0001:000074f9
  2143 0001:00007509  2145 0001:0000751f  2148 0001:00007532  2170 0001:00007544
  2153 0001:00007567  2154 0001:00007580  2155 0001:000075c5  2156 0001:000075fd
  2158 0001:0000768c  2159 0001:0000769b  2162 0001:000076b0  2163 0001:000076f1
  2164 0001:0000770f  2166 0001:000077a3  2169 0001:000077b0  2170 0001:000077c6
  2174 0001:000077f3  2176 0001:0000780b  2180 0001:00007828  2184 0001:00007845
  2186 0001:00007860  2189 0001:00007869  2191 0001:0000787a  2192 0001:00007888
  2194 0001:0000789f  2195 0001:000078b8  2196 0001:00007901  2197 0001:0000793d
  2200 0001:000079d8  2203 0001:000079ec  2209 0001:00007a03  2212 0001:00007a05
  2213 0001:00007a14  2214 0001:00007a29  2215 0001:00007a36  2217 0001:00007a44
  2220 0001:00007a46  2223 0001:00007a95  2224 0001:00007aab  2225 0001:00007adc
  2229 0001:00007ae8  2232 0001:00007aff  2234 0001:00007b17  2235 0001:00007b23
  2238 0001:00007b8d  2239 0001:00007ba6  2240 0001:00007bc0  2241 0001:00007bd5
  2243 0001:00007be6  2245 0001:00007bf3  2246 0001:00007bfc  2247 0001:00007c09
  2248 0001:00007c13  2249 0001:00007c1c  2253 0001:00007c26  2255 0001:00007c31
  2256 0001:00007c4a  2257 0001:00007c66  2258 0001:00007c7e  2259 0001:00007c9a
  2260 0001:00007cb0  2265 0001:00007cdd  2267 0001:00007ce7  2268 0001:00007cf6
  2269 0001:00007d04  2270 0001:00007d12  2275 0001:00007d22  2277 0001:00007d46
  2279 0001:00007d70  2280 0001:00007d7d  2281 0001:00007dbe  2284 0001:00007dc8
  2287 0001:00007dd7  2289 0001:00007dd9  2291 0001:00007de9  2277 0001:00007e0e
  2292 0001:00007e17  2295 0001:00007e1a  2298 0001:00007e34  2323 0001:00007ea0
  2262 0001:00007eb5  2263 0001:00007ec3  2303 0001:00007ee3  2263 0001:00007f2d
  2302 0001:00007f34  2303 0001:00007f42  2309 0001:00007f65  2310 0001:00007f82
  2311 0001:00007f98  2312 0001:00007fa5  2313 0001:00007fc3  2317 0001:00007fcb
  2318 0001:00007fd5  2319 0001:00007feb  2320 0001:00007ff8  2321 0001:00008006
  2327 0001:00008010  2328 0001:0000802f  2329 0001:0000806c  2331 0001:00008081
  2332 0001:0000808c  2338 0001:000080bd  2339 0001:000080cc  2340 0001:000080d8
  2341 0001:000080ef  2344 0001:00008102  2345 0001:0000811f  2347 0001:00008134
  2348 0001:00008171  2350 0001:00008178  2351 0001:0000817b  2353 0001:00008184
  2356 0001:000081d0  2365 0001:000081f3  2378 0001:00008208  2381 0001:00008217
  2613 0001:00008240  2386 0001:00008251  2394 0001:00008264  2397 0001:00008272
  2399 0001:0000827c  2400 0001:0000828b  2401 0001:00008295  2405 0001:000082a5
  2409 0001:000082ae  2410 0001:000082b7  2412 0001:000082d0  2413 0001:000082de
  2414 0001:000082e1  2416 0001:00008308  2417 0001:00008312  2420 0001:00008316
  2423 0001:0000832f  2428 0001:00008337  2432 0001:00008339  2434 0001:0000833d
  2441 0001:00008340  2443 0001:0000835c  2446 0001:0000836a  2449 0001:00008378
  2450 0001:00008381  2455 0001:0000839e  2457 0001:000083ac  2465 0001:000083b7
  2473 0001:000083c3  2474 0001:00008412  2476 0001:00008420  2477 0001:0000842a
  2478 0001:00008441  2479 0001:00008452  2482 0001:00008463  2486 0001:00008476
  2488 0001:000084c0  2491 0001:000084c4  2493 0001:000084ce  2494 0001:000084d7
  2497 0001:000084ec  2502 0001:000084f0  2504 0001:000084fa  2512 0001:0000858c
  2514 0001:0000859a  2515 0001:000085a1  2518 0001:000085aa  2519 0001:000085b0
  2522 0001:000085bc  2524 0001:000085c8  2528 0001:000085d6  2529 0001:000085da
  2531 0001:000085e4  2532 0001:000085f0  2529 0001:000085f4  2534 0001:000085f7
  2536 0001:000085fd  2539 0001:00008600  2549 0001:00008602  2553 0001:00008615
  2554 0001:00008617  2556 0001:00008621  2557 0001:00008627  2554 0001:00008628
  2565 0001:0000862b  2567 0001:00008635  2570 0001:0000864a  2572 0001:00008658
  2574 0001:00008666  2577 0001:0000866d  2579 0001:00008676  2580 0001:000086b7
  2582 0001:000086c5  2583 0001:000086d0  2585 0001:000086d7  2586 0001:000086d9
  2612 0001:000086e0  2613 0001:00008708  2591 0001:0000871b  2592 0001:00008744
  2593 0001:0000875a  2596 0001:00008767  2597 0001:0000878b  2601 0001:00008793
  2602 0001:000087a9  2603 0001:000087bf  2604 0001:000087cc  2605 0001:000087e0
  2616 0001:000087f0  2625 0001:00008813  2626 0001:00008815  2627 0001:0000882b
  2629 0001:0000883c  2633 0001:0000884b  2635 0001:00008850  2640 0001:00008854
  2644 0001:00008875  2645 0001:00008882  2663 0001:0000888e  2648 0001:000088a1
  2649 0001:000088c1  2650 0001:000088df  2651 0001:000088f2  2652 0001:000088ff
  2656 0001:00008907  2657 0001:00008911  2658 0001:00008922  2659 0001:00008935
  2660 0001:00008942  2666 0001:00008950  2667 0001:0000896d  2670 0001:0000897b
  2671 0001:00008983  2672 0001:00008995  2675 0001:000089b2  2678 0001:000089c3
  2679 0001:00008a39  2682 0001:00008a52  2683 0001:00008a60  2686 0001:00008a80
  2689 0001:00008a8c  2692 0001:00008a90  2695 0001:00008a93  2696 0001:00008a9f
  2698 0001:00008aa3  2700 0001:00008aad  2703 0001:00008ab0  2711 0001:00008aca
  2713 0001:00008ada  2714 0001:00008ae8  2715 0001:00008b03  2716 0001:00008b4b
  2717 0001:00008b5e  2719 0001:00008bab  2721 0001:00008bf3  2722 0001:00008c08
  2724 0001:00008c1d  2727 0001:00008c2d  2728 0001:00008c3c  2730 0001:00008c4b
  2732 0001:00008c85  2733 0001:00008c9d  2737 0001:00008c9f  2739 0001:00008cab
  2740 0001:00008cb9  2741 0001:00008d10  2742 0001:00008d23  2743 0001:00008d49
  2746 0001:00008d60  2748 0001:00008d77  2751 0001:00008d83  2774 0001:00008d86
  2755 0001:00008d97  2757 0001:00008dae  2759 0001:00008db7  2765 0001:00008dc3
  2767 0001:00008ddc  2768 0001:00008e2e  2769 0001:00008e44  2770 0001:00008e68
  2774 0001:00008e87  2789 0001:00008ea0  2793 0001:00008ea4  2801 0001:00008ee0
  2804 0001:00008ef0  2815 0001:00008f0d  2818 0001:00008f21  2823 0001:00008f39
  2826 0001:00008f5d  2828 0001:00008f6b  2831 0001:00008fa6  2833 0001:00008fd2
  2835 0001:00008fda  2841 0001:00008fe6  2843 0001:00009083  2844 0001:00009096
  2846 0001:000090a1  2848 0001:000090a3  2849 0001:000090a7  2850 0001:000090a9
  2852 0001:000090ab  2853 0001:000090af  2854 0001:000090b8  2855 0001:000090ba
  2860 0001:000090eb  2862 0001:000090f5  2863 0001:0000910b  2864 0001:00009167
  2865 0001:00009169  2867 0001:0000917c  2870 0001:0000918a  2876 0001:0000919f
  2879 0001:000091e0  2880 0001:00009201  2892 0001:0000920d  2901 0001:00009219
  2902 0001:00009284  2909 0001:00009296  2910 0001:000092e3  2911 0001:00009337
  2912 0001:00009352  2913 0001:00009363  2915 0001:0000939b  2916 0001:000093a6
  2917 0001:000093b0  2918 0001:000093bf  2920 0001:000093cd  2913 0001:000093e2
  2922 0001:000093e7  2923 0001:000093fd  2927 0001:00009462  2931 0001:000094bf
  2934 0001:000094d7  2936 0001:000094f7  2938 0001:00009505  2940 0001:00009529
  2942 0001:00009554  2943 0001:00009562  2944 0001:00009568  2945 0001:0000958b
  2940 0001:000095b9  2946 0001:000095c2  2947 0001:000095c9  2949 0001:000095da
  2950 0001:000095dc  2955 0001:000095ea  2958 0001:00009620  2963 0001:00009640
  2964 0001:0000964b  2965 0001:0000964e  2968 0001:00009651  2970 0001:00009661
  2971 0001:0000969c  2973 0001:000096a3  2976 0001:000096ae  2978 0001:000096d1
  2981 0001:0000970b  2982 0001:00009744  2984 0001:00009748  2989 0001:00009762
  2990 0001:0000976b  2992 0001:00009775  2996 0001:0000977e  2997 0001:0000978e
  2999 0001:0000979c  3000 0001:000097b6  3002 0001:000097c2  3003 0001:000097ce
  3004 0001:000097df  3006 0001:000097e4  3007 0001:000097f2  3000 0001:00009813
  3008 0001:0000981e  3009 0001:0000982b  3011 0001:0000983b  3012 0001:00009845
  3014 0001:00009853  3015 0001:0000986d  3017 0001:00009879  3018 0001:00009885
  3019 0001:00009896  3021 0001:0000989b  3022 0001:000098a9  3015 0001:000098ca
  3023 0001:000098d5  3024 0001:000098e2  3044 0001:000098ec  3028 0001:000098ff
  3029 0001:00009914  3030 0001:00009921  3031 0001:0000992d  3032 0001:0000993a
  3033 0001:0000995b  3034 0001:00009978  3037 0001:0000997e  3038 0001:00009993
  3039 0001:000099a0  3040 0001:000099ac  3041 0001:000099b9  3042 0001:000099c7
  3043 0001:000099d4  3047 0001:000099e0  3048 0001:000099fe  3050 0001:00009a09
  3051 0001:00009a27  3052 0001:00009a46  3054 0001:00009a5b  3056 0001:00009a6d
  3060 0001:00009a73  3061 0001:00009a83  3063 0001:00009a91  3064 0001:00009aac
  3066 0001:00009ab9  3067 0001:00009ac7  3068 0001:00009ad9  3070 0001:00009ade
  3071 0001:00009ae6  3064 0001:00009b0d  3072 0001:00009b19  3073 0001:00009b2b
  3075 0001:00009b39  3076 0001:00009b43  3078 0001:00009b51  3079 0001:00009b6b
  3081 0001:00009b78  3082 0001:00009b86  3083 0001:00009b99  3085 0001:00009b9e
  3086 0001:00009ba6  3079 0001:00009bcc  3087 0001:00009bd8  3088 0001:00009bea
  3089 0001:00009bf8  3092 0001:00009c10  3093 0001:00009c29  3094 0001:00009c4e
  3097 0001:00009c58  3098 0001:00009c69  3099 0001:00009c70  3138 0001:00009c7b
  3106 0001:00009c8a  3108 0001:00009c9f  3110 0001:00009cd0  3118 0001:00009cf2
  3120 0001:00009d06  3122 0001:00009d1a  3124 0001:00009d2e  3126 0001:00009d45
  3128 0001:00009d5c  3130 0001:00009d64  3133 0001:00009d66  3135 0001:00009d6d
  3138 0001:00009d7b  3141 0001:00009d90  3142 0001:00009db0  3145 0001:00009dbb
  3147 0001:00009dc9  3152 0001:00009dd1  3154 0001:00009deb  3199 0001:00009dfc
  3156 0001:00009e1a  3158 0001:00009e9a  3160 0001:00009ea6  3162 0001:00009ebb
  3163 0001:00009ec0  3165 0001:00009ec2  3166 0001:00009ec7  3168 0001:00009ec9
  3169 0001:00009ece  3171 0001:00009ed0  3172 0001:00009ed5  3174 0001:00009ed7
  3175 0001:00009edc  3177 0001:00009ede  3178 0001:00009ee3  3180 0001:00009ee5
  3181 0001:00009eea  3183 0001:00009eec  3184 0001:00009ef1  3186 0001:00009ef3
  3190 0001:00009efe  3192 0001:00009f04  3193 0001:00009f3d  3194 0001:00009f5c
  3195 0001:00009f7b  3199 0001:00009fd8  3200 0001:0000a01a  3154 0001:0000a0dd
  3203 0001:0000a0fc  3205 0001:0000a10a  3206 0001:0000a115  3209 0001:0000a150
  3212 0001:0000a172  3215 0001:0000a180  3222 0001:0000a190  3223 0001:0000a1a6
  3224 0001:0000a1c4  3226 0001:0000a1f8  3227 0001:0000a218  3230 0001:0000a260
  3232 0001:0000a27e  3234 0001:0000a298  3236 0001:0000a2a7  3239 0001:0000a361
  3242 0001:0000a380  3245 0001:0000a39b  3247 0001:0000a3ad  3249 0001:0000a3ca
  3251 0001:0000a3cd  3253 0001:0000a49d  3260 0001:0000a4ce  3261 0001:0000a4dc
  3265 0001:0000a4f0  3270 0001:0000a508  3272 0001:0000a529  3275 0001:0000a5aa
  3281 0001:0000a5b9  3282 0001:0000a5be  3284 0001:0000a5c2  3282 0001:0000a61f
  3287 0001:0000a628  3289 0001:0000a62f  3294 0001:0000a654  3297 0001:0000a670
  3305 0001:0000a692  3306 0001:0000a6b4  3315 0001:0000a6c5  3316 0001:0000a6e3
  3319 0001:0000a73e  3321 0001:0000a748  3324 0001:0000a758  3326 0001:0000a761
  3328 0001:0000a770  3331 0001:0000a7c0  3332 0001:0000a7c3  3333 0001:0000a7d8
  3339 0001:0000a7e0  3346 0001:0000a7fb  3347 0001:0000a813  3349 0001:0000a82d
  3352 0001:0000a843  3353 0001:0000a84a  3357 0001:0000a851  3358 0001:0000a898
  3361 0001:0000a8ac  3362 0001:0000a8d9  3365 0001:0000a8e7  3366 0001:0000a911
  3369 0001:0000a91c  3371 0001:0000a947  3374 0001:0000a952  3376 0001:0000a9ba
  3378 0001:0000a9c1  3382 0001:0000a9d7  3388 0001:0000aa2b  3390 0001:0000aa3e
  3395 0001:0000aa40  3399 0001:0000aa5c  3401 0001:0000aab0  3403 0001:0000aabd
  3406 0001:0000aacc  3410 0001:0000aae8  3411 0001:0000ab01  3416 0001:0000ab0a
  3420 0001:0000ab2e  3421 0001:0000ab47  3426 0001:0000ab52  3429 0001:0000ab78
  3431 0001:0000abcb  3433 0001:0000abd8  3436 0001:0000abe7  3440 0001:0000ac03
  3441 0001:0000ac20  3446 0001:0000ac25  3450 0001:0000ac46  3451 0001:0000ac5b
  3456 0001:0000ac66  3460 0001:0000ac8c  3465 0001:0000ac9b  3466 0001:0000aca4
  3462 0001:0000aca6  3471 0001:0000acb3  3474 0001:0000acbd  3479 0001:0000acc3
  3480 0001:0000aced  3484 0001:0000ade0  3485 0001:0000adfb  3487 0001:0000ae09
  3489 0001:0000ae0e  3490 0001:0000ae6c  3491 0001:0000ae8f  3493 0001:0000aeaa
  3502 0001:0000aeba  3504 0001:0000aebe  3497 0001:0000aecd  3499 0001:0000aed2
  3500 0001:0000af30  3502 0001:0000af3c  3504 0001:0000af49  3508 0001:0000af60
  3509 0001:0000af7b  3511 0001:0000af89  3513 0001:0000af8e  3514 0001:0000afec
  3515 0001:0000b00f  3517 0001:0000b02a  3526 0001:0000b03a  3528 0001:0000b03e
  3521 0001:0000b04d  3523 0001:0000b052  3524 0001:0000b0b0  3526 0001:0000b0bc
  3528 0001:0000b0c9  3532 0001:0000b0e0  3533 0001:0000b0fc  3536 0001:0000b107
  3539 0001:0000b10f  3540 0001:0000b122  3541 0001:0000b12c  3542 0001:0000b14b
  3545 0001:0000b159  3546 0001:0000b15e  3548 0001:0000b171  3549 0001:0000b181
  3550 0001:0000b18b  3554 0001:0000b1b0  3555 0001:0000b1cc  3557 0001:0000b1d7
  3559 0001:0000b1ea  3560 0001:0000b1f5  3561 0001:0000b203  3563 0001:0000b20d
  3565 0001:0000b217  3566 0001:0000b222  3567 0001:0000b230  3571 0001:0000b23a
  3572 0001:0000b24a  3573 0001:0000b254  3574 0001:0000b273  3577 0001:0000b281
  3578 0001:0000b286  3580 0001:0000b299  3581 0001:0000b2a9  3584 0001:0000b2b3
  3585 0001:0000b2be  3589 0001:0000b2f0  3590 0001:0000b30c  3593 0001:0000b317
  3596 0001:0000b31f  3597 0001:0000b332  3598 0001:0000b33c  3599 0001:0000b35b
  3602 0001:0000b369  3603 0001:0000b36e  3605 0001:0000b381  3606 0001:0000b391
  3607 0001:0000b39b  3611 0001:0000b3c0  3612 0001:0000b3dc  3614 0001:0000b3e7
  3616 0001:0000b3fa  3617 0001:0000b405  3618 0001:0000b413  3620 0001:0000b41d
  3622 0001:0000b427  3623 0001:0000b432  3624 0001:0000b440  3628 0001:0000b44a
  3629 0001:0000b45a  3630 0001:0000b464  3631 0001:0000b483  3634 0001:0000b491
  3635 0001:0000b496  3637 0001:0000b4a9  3638 0001:0000b4b9  3641 0001:0000b4c3
  3642 0001:0000b4ce  3645 0001:0000b500  3646 0001:0000b51c  3648 0001:0000b581
  3649 0001:0000b58f  3650 0001:0000b5e2  3651 0001:0000b5f5  3654 0001:0000b630
  3655 0001:0000b64b  3659 0001:0000b656  3661 0001:0000b663  3662 0001:0000b682
  3665 0001:0000b690  3667 0001:0000b695  3669 0001:0000b699  3672 0001:0000b6aa
  3673 0001:0000b6bc  3676 0001:0000b6d0  3677 0001:0000b6d3  3679 0001:0000b6dd
  3684 0001:0000b6e7  3686 0001:0000b6f4  3688 0001:0000b704  3691 0001:0000b70a
  3693 0001:0000b70c  3695 0001:0000b716  3702 0001:0000b725  3709 0001:0000b730
  3712 0001:0000b740  3713 0001:0000b761  3715 0001:0000b76f  3716 0001:0000b78f
  3718 0001:0000b7af  3719 0001:0000b7cb  3721 0001:0000b7dc  3722 0001:0000b83a
  3726 0001:0000b889  3730 0001:0000b88d  3731 0001:0000b89c  3734 0001:0000b8ac
  3736 0001:0000b8fb  3740 0001:0000b903  3751 0001:0000b913  3793 0001:0000b937
  3795 0001:0000b93b  3796 0001:0000b942  3799 0001:0000b949  3777 0001:0000b94b
  3779 0001:0000b94f  3780 0001:0000b956  3783 0001:0000b95d  3761 0001:0000b95f
  3763 0001:0000b963  3764 0001:0000b96a  3806 0001:0000b971  3809 0001:0000b9d0
  3811 0001:0000b9ea  3816 0001:0000ba01  3819 0001:0000ba47  3821 0001:0000ba4b
  3822 0001:0000ba52  3824 0001:0000ba59  3811 0001:0000ba83  3825 0001:0000ba8b
  3828 0001:0000baa0  3831 0001:0000bac3  3843 0001:0000bad8  3845 0001:0000baf3
  3847 0001:0000bb01  3848 0001:0000bb1c  3850 0001:0000bb30  3851 0001:0000bb3c
  3852 0001:0000bb4d  3853 0001:0000bb52  3855 0001:0000bb56  3860 0001:0000bb74
  3859 0001:0000bb81  3860 0001:0000bb88  3848 0001:0000bba7  3861 0001:0000bbb5
  3862 0001:0000bbc2  3865 0001:0000bbd0  3867 0001:0000bbda  3888 0001:0000bbdf
  3872 0001:0000bbf0  3873 0001:0000bc05  3874 0001:0000bc12  3875 0001:0000bc1e
  3876 0001:0000bc2b  3877 0001:0000bc4c  3878 0001:0000bc69  3881 0001:0000bc6f
  3882 0001:0000bc84  3883 0001:0000bc91  3884 0001:0000bc9d  3885 0001:0000bcaa
  3886 0001:0000bcb8  3887 0001:0000bcc5

Line numbers for .\Release\alarmcontrolmainwindow.obj(C:\Program Files\Microsoft Visual Studio\VC98\INCLUDE\iostream) segment .text

    16 0001:000000c0    29 0001:00000100

Line numbers for .\Release\AcqStore.obj(w:\core_svn\Source\windows\bin\AlarmControl\AcqStore.cpp) segment .text

    18 0001:00000000    19 0001:0000001a    22 0001:00000040    24 0001:00000046
    27 0001:00000050    36 0001:00000053    38 0001:00000057    55 0001:00000064
    56 0001:00000068    52 0001:0000006b    56 0001:0000006e    59 0001:00000080
    61 0001:00000087    63 0001:0000008f    69 0001:00000096    67 0001:00000099
    69 0001:000000a0

 336 bytes saved through ICF

