 bCommand

 Timestamp is 5e9dbb60 (Mon Apr 20 16:10:24 2020)

 Preferred load address is 00400000

 Start         Length     Name                   Class
 0001:00000000 000000b8H .text                   CODE
 0001:000000c0 00000181H .text$di                CODE
 0001:00000250 0000f62aH .text$mn                CODE
 0001:0000f880 00001b16H .text$x                 CODE
 0001:000113a0 000000abH .text$yd                CODE
 0002:00000000 00000fdcH .idata$5                DATA
 0002:00000fdc 00000004H .CRT$XCA                DATA
 0002:00000fe0 00000004H .CRT$XCAA               DATA
 0002:00000fe4 0000002cH .CRT$XCU                DATA
 0002:00001010 00000004H .CRT$XCZ                DATA
 0002:00001014 00000004H .CRT$XIA                DATA
 0002:00001018 00000004H .CRT$XIAA               DATA
 0002:0000101c 00000004H .CRT$XIC                DATA
 0002:00001020 00000004H .CRT$XIY                DATA
 0002:00001024 00000004H .CRT$XIZ                DATA
 0002:00001028 000064d8H .rdata                  DATA
 0002:00007500 00001100H .rdata$r                DATA
 0002:00008600 00000004H .rtc$IAA                DATA
 0002:00008604 00000004H .rtc$IZZ                DATA
 0002:00008608 00000004H .rtc$TAA                DATA
 0002:0000860c 00000004H .rtc$TZZ                DATA
 0002:00008610 00001784H .xdata$x                DATA
 0002:00009d94 00000000H .edata                  DATA
 0002:00009d94 0000008cH .idata$2                DATA
 0002:00009e20 00000014H .idata$3                DATA
 0002:00009e34 00000fdcH .idata$4                DATA
 0002:0000ae10 0000a0b8H .idata$6                DATA
 0003:00000000 00000682H .data                   DATA
 0003:00000684 00000544H .data$r                 DATA
 0003:00000bc8 0000072cH .bss                    DATA
 0004:00000000 00000190H .rsrc$01                DATA
 0004:00000190 00004048H .rsrc$02                DATA

  Address         Publics by Value              Rva+Base       Lib:Object

 0000:00000000       ___guard_flags             00000000     <absolute>
 0000:00000000       ___guard_fids_count        00000000     <absolute>
 0000:00000000       __except_list              00000000     <absolute>
 0000:00000000       ___guard_fids_table        00000000     <absolute>
 0000:00000000       ___safe_se_handler_table   00000000     <absolute>
 0000:00000000       ___safe_se_handler_count   00000000     <absolute>
 0000:00009876       __fltused                  00009876     <absolute>
 0000:00009876       __ldused                   00009876     <absolute>
 0000:00000000       ___ImageBase               00400000     <linker-defined>
 0001:00000000       _WinMain@16                00401000 f   qtmain:qtmain_win.obj
 0001:0000008d       ?detach@?$QMemArray@PAD@@UAEXXZ 0040108d f i qtmain:qtmain_win.obj
 0001:00000095       ??_E?$QMemArray@PAD@@UAEPAXI@Z 00401095 f i qtmain:qtmain_win.obj
 0001:00000095       ??_G?$QMemArray@PAD@@UAEPAXI@Z 00401095 f i qtmain:qtmain_win.obj
 0001:00000250       ??0?$basic_string@DU?$char_traits@D@std@@V?$allocator@D@2@@std@@QAE@PBD@Z 00401250 f i bcommandmainwindow.obj
 0001:000002b0       ??0bCommandMainWindow@@QAE@PAVQWidget@@PBDI@Z 004012b0 f   bcommandmainwindow.obj
 0001:000014d0       ??1?$basic_string@DU?$char_traits@D@std@@V?$allocator@D@2@@std@@QAE@XZ 004024d0 f i bcommandmainwindow.obj
 0001:00001500       ??1bCommandMainWindow@@UAE@XZ 00402500 f   bcommandmainwindow.obj
 0001:00001680       ??3@YAXPAX0@Z              00402680 f i bcommandmainwindow.obj
 0001:00001680       ?cccDisconnected@IccClientCallback@@MAEXXZ 00402680 f i bcommandmainwindow.obj
 0001:00001680       ?aboutToQuit@bCommandMainWindow@@QAEXXZ 00402680 f i bcommandmainwindow.obj
 0001:00001680       ?cccConnected@IccClientCallback@@MAEXXZ 00402680 f i bcommandmainwindow.obj
 0001:00001681       ??_EQCheckBox@@WCI@AEPAXI@Z 00402681 f i bcommandmainwindow.obj
 0001:00001689       ??_EQFrame@@WCI@AEPAXI@Z   00402689 f i bcommandmainwindow.obj
 0001:00001691       ??_EQHBoxLayout@@WCI@AEPAXI@Z 00402691 f i bcommandmainwindow.obj
 0001:00001699       ??_EQLabel@@WCI@AEPAXI@Z   00402699 f i bcommandmainwindow.obj
 0001:000016a1       ??_EQPopupMenu@@WCI@AEPAXI@Z 004026a1 f i bcommandmainwindow.obj
 0001:000016a9       ??_EQPopupMenu@@WIM@AEPAXI@Z 004026a9 f i bcommandmainwindow.obj
 0001:000016b4       ??_EQPushButton@@WCI@AEPAXI@Z 004026b4 f i bcommandmainwindow.obj
 0001:000016bc       ??_EQSpinBox@@WCI@AEPAXI@Z 004026bc f i bcommandmainwindow.obj
 0001:000016c4       ??_EQSpinBox@@WGM@AEPAXI@Z 004026c4 f i bcommandmainwindow.obj
 0001:000016cc       ??_EQToolBar@@WCI@AEPAXI@Z 004026cc f i bcommandmainwindow.obj
 0001:000016d4       ??_EQVBoxLayout@@WCI@AEPAXI@Z 004026d4 f i bcommandmainwindow.obj
 0001:000016dc       ??_EbCommandMainWindow@@WCI@AEPAXI@Z 004026dc f i bcommandmainwindow.obj
 0001:000016f0       ??_EQAction@@UAEPAXI@Z     004026f0 f i bcommandmainwindow.obj
 0001:000016f0       ??_GQAction@@UAEPAXI@Z     004026f0 f i bcommandmainwindow.obj
 0001:00001720       ??_EQCheckBox@@UAEPAXI@Z   00402720 f i bcommandmainwindow.obj
 0001:00001720       ??_GQCheckBox@@UAEPAXI@Z   00402720 f i bcommandmainwindow.obj
 0001:00001750       ??_GQFrame@@UAEPAXI@Z      00402750 f i bcommandmainwindow.obj
 0001:00001750       ??_EQFrame@@UAEPAXI@Z      00402750 f i bcommandmainwindow.obj
 0001:00001780       ??_EQHBoxLayout@@UAEPAXI@Z 00402780 f i bcommandmainwindow.obj
 0001:00001780       ??_GQHBoxLayout@@UAEPAXI@Z 00402780 f i bcommandmainwindow.obj
 0001:000017b0       ??_EQLabel@@UAEPAXI@Z      004027b0 f i bcommandmainwindow.obj
 0001:000017b0       ??_GQLabel@@UAEPAXI@Z      004027b0 f i bcommandmainwindow.obj
 0001:000017e0       ??_EQPopupMenu@@UAEPAXI@Z  004027e0 f i bcommandmainwindow.obj
 0001:000017e0       ??_GQPopupMenu@@UAEPAXI@Z  004027e0 f i bcommandmainwindow.obj
 0001:00001810       ??_EQPushButton@@UAEPAXI@Z 00402810 f i bcommandmainwindow.obj
 0001:00001810       ??_GQPushButton@@UAEPAXI@Z 00402810 f i bcommandmainwindow.obj
 0001:00001840       ??_EQSpacerItem@@UAEPAXI@Z 00402840 f i bcommandmainwindow.obj
 0001:00001840       ??_GQSpacerItem@@UAEPAXI@Z 00402840 f i bcommandmainwindow.obj
 0001:00001870       ??_GQSpinBox@@UAEPAXI@Z    00402870 f i bcommandmainwindow.obj
 0001:00001870       ??_EQSpinBox@@UAEPAXI@Z    00402870 f i bcommandmainwindow.obj
 0001:000018a0       ??_EQToolBar@@UAEPAXI@Z    004028a0 f i bcommandmainwindow.obj
 0001:000018a0       ??_GQToolBar@@UAEPAXI@Z    004028a0 f i bcommandmainwindow.obj
 0001:000018d0       ??_GQVBoxLayout@@UAEPAXI@Z 004028d0 f i bcommandmainwindow.obj
 0001:000018d0       ??_EQVBoxLayout@@UAEPAXI@Z 004028d0 f i bcommandmainwindow.obj
 0001:00001900       ??_GbCommandMainWindow@@UAEPAXI@Z 00402900 f i bcommandmainwindow.obj
 0001:00001900       ??_EbCommandMainWindow@@UAEPAXI@Z 00402900 f i bcommandmainwindow.obj
 0001:00001930       ??_Eerror_category@std@@UAEPAXI@Z 00402930 f i bcommandmainwindow.obj
 0001:00001930       ??_E_Generic_error_category@std@@UAEPAXI@Z 00402930 f i bcommandmainwindow.obj
 0001:00001930       ??_G_System_error_category@std@@UAEPAXI@Z 00402930 f i bcommandmainwindow.obj
 0001:00001930       ??_G_Generic_error_category@std@@UAEPAXI@Z 00402930 f i bcommandmainwindow.obj
 0001:00001930       ??_E_System_error_category@std@@UAEPAXI@Z 00402930 f i bcommandmainwindow.obj
 0001:00001930       ??_E_Iostream_error_category@std@@UAEPAXI@Z 00402930 f i bcommandmainwindow.obj
 0001:00001930       ??_G_Iostream_error_category@std@@UAEPAXI@Z 00402930 f i bcommandmainwindow.obj
 0001:00001930       ??_Gerror_category@std@@UAEPAXI@Z 00402930 f i bcommandmainwindow.obj
 0001:00001960       ?_Copy@?$basic_string@DU?$char_traits@D@std@@V?$allocator@D@2@@std@@QAEXII@Z 00402960 f i bcommandmainwindow.obj
 0001:00001ab0       ?_Grow@?$basic_string@DU?$char_traits@D@std@@V?$allocator@D@2@@std@@QAE_NI_N@Z 00402ab0 f i bcommandmainwindow.obj
 0001:00001b60       ?about@bCommandMainWindow@@QAEXXZ 00402b60 f   bcommandmainwindow.obj
 0001:00001d80       ?addRecentFile@bCommandMainWindow@@AAEXVQString@@@Z 00402d80 f   bcommandmainwindow.obj
 0001:00001e40       ?allocate@?$_Wrap_alloc@V?$allocator@D@std@@@std@@QAEPADI@Z 00402e40 f i bcommandmainwindow.obj
 0001:00001e70       ?assign@?$basic_string@DU?$char_traits@D@std@@V?$allocator@D@2@@std@@QAEAAV12@ABV12@II@Z 00402e70 f i bcommandmainwindow.obj
 0001:00001fa0       ?assign@?$basic_string@DU?$char_traits@D@std@@V?$allocator@D@2@@std@@QAEAAV12@PBDI@Z 00402fa0 f i bcommandmainwindow.obj
 0001:000020a0       ?cccConfigChangeMessage@IccClientCallback@@MAEXABV?$basic_string@DU?$char_traits@D@std@@V?$allocator@D@2@@std@@@Z 004030a0 f i bcommandmainwindow.obj
 0001:000020b0       ?cccGpiRevertive@IccClientCallback@@MAEXHH_N@Z 004030b0 f i bcommandmainwindow.obj
 0001:000020b0       ?cccRtrRevertive@IccClientCallback@@MAEXHHH@Z 004030b0 f i bcommandmainwindow.obj
 0001:000020b0       ?cccDeviceMode@IccClientCallback@@MAEXHHW4redundancyState@cc@@@Z 004030b0 f i bcommandmainwindow.obj
 0001:000020b0       ?cccInfoRevertive@IccClientCallback@@MAEXHHABV?$basic_string@DU?$char_traits@D@std@@V?$allocator@D@2@@std@@@Z 004030b0 f i bcommandmainwindow.obj
 0001:000020b0       ?cccDatabaseChange@IccClientCallback@@MAEXHHH@Z 004030b0 f i bcommandmainwindow.obj
 0001:000020c0       ?cccDatabaseChange@bCommandMainWindow@@MAEXHHH@Z 004030c0 f   bcommandmainwindow.obj
 0001:000020d0       ?cccDeviceMessage@IccClientCallback@@MAEXHHABV?$basic_string@DU?$char_traits@D@std@@V?$allocator@D@2@@std@@H@Z 004030d0 f i bcommandmainwindow.obj
 0001:000020e0       ?cccDeviceMessage@bCommandMainWindow@@MAEXHHABV?$basic_string@DU?$char_traits@D@std@@V?$allocator@D@2@@std@@H@Z 004030e0 f   bcommandmainwindow.obj
 0001:000020f0       ?cccDisconnected@bCommandMainWindow@@MAEXXZ 004030f0 f   bcommandmainwindow.obj
 0001:00002100       ?cccGpiRevertive@bCommandMainWindow@@MAEXHH_N@Z 00403100 f   bcommandmainwindow.obj
 0001:00002110       ?cccInfoRevertive@bCommandMainWindow@@MAEXHHABV?$basic_string@DU?$char_traits@D@std@@V?$allocator@D@2@@std@@@Z 00403110 f   bcommandmainwindow.obj
 0001:00002120       ?cccSerialNumberError@IccClientCallback@@MAEXHH@Z 00403120 f i bcommandmainwindow.obj
 0001:00002120       ?cccPollError@IccClientCallback@@MAEXHH@Z 00403120 f i bcommandmainwindow.obj
 0001:00002130       ?cccRtrRevertive@bCommandMainWindow@@MAEXHHH@Z 00403130 f   bcommandmainwindow.obj
 0001:00002140       ?clearCurrent@bCommandMainWindow@@QAEXXZ 00403140 f   bcommandmainwindow.obj
 0001:00002300       ?copySettings@bCommandMainWindow@@QAEXXZ 00403300 f   bcommandmainwindow.obj
 0001:00002340       ?default_error_condition@_System_error_category@std@@UBE?AVerror_condition@2@H@Z 00403340 f i bcommandmainwindow.obj
 0001:00002380       ?default_error_condition@error_category@std@@UBE?AVerror_condition@2@H@Z 00403380 f i bcommandmainwindow.obj
 0001:000023a0       ?equivalent@error_category@std@@UBE_NABVerror_code@2@H@Z 004033a0 f i bcommandmainwindow.obj
 0001:000023c0       ?equivalent@error_category@std@@UBE_NHABVerror_condition@2@@Z 004033c0 f i bcommandmainwindow.obj
 0001:00002400       ?erase@?$basic_string@DU?$char_traits@D@std@@V?$allocator@D@2@@std@@QAEAAV12@II@Z 00403400 f i bcommandmainwindow.obj
 0001:000024a0       ?loadFile@bCommandMainWindow@@AAEXVQString@@@Z 004034a0 f   bcommandmainwindow.obj
 0001:00002800       ?loadRecentFile@bCommandMainWindow@@QAEXABVQVariant@@@Z 00403800 f   bcommandmainwindow.obj
 0001:00002940       ?loadSettings@bCommandMainWindow@@AAEXVQStringList@@@Z 00403940 f   bcommandmainwindow.obj
 0001:00002a90       ?message@_Generic_error_category@std@@UBE?AV?$basic_string@DU?$char_traits@D@std@@V?$allocator@D@2@@2@H@Z 00403a90 f i bcommandmainwindow.obj
 0001:00002b10       ?message@_Iostream_error_category@std@@UBE?AV?$basic_string@DU?$char_traits@D@std@@V?$allocator@D@2@@2@H@Z 00403b10 f i bcommandmainwindow.obj
 0001:00002b60       ?message@_System_error_category@std@@UBE?AV?$basic_string@DU?$char_traits@D@std@@V?$allocator@D@2@@2@H@Z 00403b60 f i bcommandmainwindow.obj
 0001:00002be0       ?metaObject@bCommandMainWindow@@UBEPAVQMetaObject@@XZ 00403be0 f i bcommandmainwindow.obj
 0001:00002bf0       ?name@_Generic_error_category@std@@UBEPBDXZ 00403bf0 f i bcommandmainwindow.obj
 0001:00002c00       ?name@_Iostream_error_category@std@@UBEPBDXZ 00403c00 f i bcommandmainwindow.obj
 0001:00002c10       ?name@_System_error_category@std@@UBEPBDXZ 00403c10 f i bcommandmainwindow.obj
 0001:00002c20       ?open@bCommandMainWindow@@QAEXXZ 00403c20 f   bcommandmainwindow.obj
 0001:00002d50       ?promptForSave@bCommandMainWindow@@AAE_NXZ 00403d50 f   bcommandmainwindow.obj
 0001:00002eb0       ?save@bCommandMainWindow@@QAEXXZ 00403eb0 f   bcommandmainwindow.obj
 0001:00002ef0       ?saveAs@bCommandMainWindow@@QAEXXZ 00403ef0 f   bcommandmainwindow.obj
 0001:000031a0       ?saveFile@bCommandMainWindow@@AAEXVQString@@@Z 004041a0 f   bcommandmainwindow.obj
 0001:00003480       ?showFileMenu@bCommandMainWindow@@QAEXXZ 00404480 f   bcommandmainwindow.obj
 0001:000035e0       ?slot_scriptDirty@bCommandMainWindow@@QAEX_N@Z 004045e0 f   bcommandmainwindow.obj
 0001:00003790       ?timerEvent@bCommandMainWindow@@UAEXPAVQTimerEvent@@@Z 00404790 f   bcommandmainwindow.obj
 0001:00003810       ?timerValueChanged@bCommandMainWindow@@QAEXH@Z 00404810 f   bcommandmainwindow.obj
 0001:00003880       ?toggleTimer@bCommandMainWindow@@QAEX_N@Z 00404880 f   bcommandmainwindow.obj
 0001:000038e0       ??0commandEdit@@QAE@PAVQWidget@@PBD@Z 004048e0 f   commandEdit.obj
 0001:00003959       ??_EcommandEdit@@WCI@AEPAXI@Z 00404959 f i commandEdit.obj
 0001:00003970       ??_GcommandEdit@@UAEPAXI@Z 00404970 f i commandEdit.obj
 0001:00003970       ??_EcommandEdit@@UAEPAXI@Z 00404970 f i commandEdit.obj
 0001:000039a0       ?keyPressEvent@commandEdit@@MAEXPAVQKeyEvent@@@Z 004049a0 f   commandEdit.obj
 0001:000039e0       ?metaObject@commandEdit@@UBEPAVQMetaObject@@XZ 004049e0 f i commandEdit.obj
 0001:000039f0       ?slot_thisTextChanged@commandEdit@@QAEXABVQString@@@Z 004049f0 f   commandEdit.obj
 0001:00003a10       ??0command@@QAE@PAVccClient@@PAVQWidget@@PBDI@Z 00404a10 f   commandimpl.obj
 0001:00003e6e       ??_Ecommand@@WCI@AEPAXI@Z  00404e6e f i commandimpl.obj
 0001:00003e80       ??_E?$QPtrList@VcommandLine@@@@UAEPAXI@Z 00404e80 f i commandimpl.obj
 0001:00003e80       ??_G?$QPtrList@VcommandLine@@@@UAEPAXI@Z 00404e80 f i commandimpl.obj
 0001:00003ef0       ??_Ecommand@@UAEPAXI@Z     00404ef0 f i commandimpl.obj
 0001:00003ef0       ??_Gcommand@@UAEPAXI@Z     00404ef0 f i commandimpl.obj
 0001:00003f70       ?allGo@command@@QAEXXZ     00404f70 f   commandimpl.obj
 0001:00003fa0       ?clear@?$QPtrList@VcommandLine@@@@UAEXXZ 00404fa0 f i commandimpl.obj
 0001:00003fb0       ?clear@command@@QAEXXZ     00404fb0 f   commandimpl.obj
 0001:00003fe0       ?count@?$QPtrList@VcommandLine@@@@UBEIXZ 00404fe0 f i commandimpl.obj
 0001:00003ff0       ?deleteItem@?$QPtrList@VcommandLine@@@@EAEXPAX@Z 00404ff0 f i commandimpl.obj
 0001:00004020       ?dirty@command@@QAEX_N@Z   00405020 f   commandimpl.obj
 0001:00004040       ?loadSettings@command@@QAEXVQStringList@@@Z 00405040 f   commandimpl.obj
 0001:000040e0       ?metaObject@command@@UBEPAVQMetaObject@@XZ 004050e0 f i commandimpl.obj
 0001:000040f0       ?save@command@@QAE?AVQStringList@@XZ 004050f0 f   commandimpl.obj
 0001:000041a0       ?setCheckBoxes@command@@QAEXXZ 004051a0 f   commandimpl.obj
 0001:00004270       ?slot_hasChanged@command@@QAEXXZ 00405270 f   commandimpl.obj
 0001:00004280       ??0commandLine@@QAE@PAVccClient@@PAVQWidget@@PBDI@Z 00405280 f   commandLine.obj
 0001:00004494       ??_EcommandLine@@WCI@AEPAXI@Z 00405494 f i commandLine.obj
 0001:000044a0       ??_EcommandLine@@UAEPAXI@Z 004054a0 f i commandLine.obj
 0001:000044a0       ??_GcommandLine@@UAEPAXI@Z 004054a0 f i commandLine.obj
 0001:000044d0       ?autoGo@commandLine@@QAEXXZ 004054d0 f   commandLine.obj
 0001:00004510       ?clear@commandLine@@QAEXXZ 00405510 f   commandLine.obj
 0001:00004530       ?getMathsValue@commandLine@@AAEHVQString@@@Z 00405530 f   commandLine.obj
 0001:000045e0       ?getStringValue@commandLine@@AAE?AVQString@@V2@@Z 004055e0 f   commandLine.obj
 0001:000046d0       ?loadSetting@commandLine@@QAE_NVQString@@@Z 004056d0 f   commandLine.obj
 0001:000047e0       ?metaObject@commandLine@@UBEPAVQMetaObject@@XZ 004057e0 f i commandLine.obj
 0001:000047f0       ?nextCommand@commandLine@@IAEXXZ 004057f0 f   commandLine.obj
 0001:00004810       ?performMaths@commandLine@@AAEXVQString@@@Z 00405810 f   commandLine.obj
 0001:00005200       ?prevCommand@commandLine@@IAEXXZ 00406200 f   commandLine.obj
 0001:00005220       ?replaceVariables@commandLine@@AAE?AVQString@@V2@@Z 00406220 f   commandLine.obj
 0001:00005510       ?saveSetting@commandLine@@QAE?AVQString@@XZ 00406510 f   commandLine.obj
 0001:000055c0       ?sendCommand@commandLine@@QAEXXZ 004065c0 f   commandLine.obj
 0001:00005ef0       ?setEdit@commandLine@@IAEXH@Z 00406ef0 f   commandLine.obj
 0001:00005f30       ?setMathsVariable@commandLine@@AAEXVQString@@H@Z 00406f30 f   commandLine.obj
 0001:00006080       ?setString@commandLine@@AAEXVQString@@@Z 00407080 f   commandLine.obj
 0001:00006450       ?setStringVariable@commandLine@@AAEXVQString@@0@Z 00407450 f   commandLine.obj
 0001:000065b0       ?setTickBox@commandLine@@QAEX_N@Z 004075b0 f   commandLine.obj
 0001:000065c0       ?setWhatsThis@commandLine@@AAEXXZ 004075c0 f   commandLine.obj
 0001:00006690       ?timerEvent@commandLine@@MAEXPAVQTimerEvent@@@Z 00407690 f   commandLine.obj
 0001:000066d0       _main                      004076d0 f   main.obj
 0001:00006860       ?className@commandEdit@@UBEPBDXZ 00407860 f   moc_commandEdit.obj
 0001:00006870       ?modified@commandEdit@@IAEXXZ 00407870 f   moc_commandEdit.obj
 0001:00006890       ?nextEdit@commandEdit@@IAEXXZ 00407890 f   moc_commandEdit.obj
 0001:000068b0       ?previousEdit@commandEdit@@IAEXXZ 004078b0 f   moc_commandEdit.obj
 0001:000068d0       ?qt_cast@commandEdit@@UAEPAXPBD@Z 004078d0 f   moc_commandEdit.obj
 0001:00006930       ?qt_emit@commandEdit@@UAE_NHPAUQUObject@@@Z 00407930 f   moc_commandEdit.obj
 0001:000069b0       ?qt_invoke@commandEdit@@UAE_NHPAUQUObject@@@Z 004079b0 f   moc_commandEdit.obj
 0001:000069f0       ?qt_property@commandEdit@@UAE_NHHPAVQVariant@@@Z 004079f0 f   moc_commandEdit.obj
 0001:00006a00       ?staticMetaObject@commandEdit@@SAPAVQMetaObject@@XZ 00407a00 f   moc_commandEdit.obj
 0001:00006a90       ??0revertiveImpl@@QAE@PAVccClient@@PAVQWidget@@PBDI@Z 00407a90 f   revertiveImpl.obj
 0001:00006bbf       ??_ErevertiveImpl@@WCI@AEPAXI@Z 00407bbf f i revertiveImpl.obj
 0001:00006bd0       ??_GrevertiveImpl@@UAEPAXI@Z 00407bd0 f i revertiveImpl.obj
 0001:00006bd0       ??_ErevertiveImpl@@UAEPAXI@Z 00407bd0 f i revertiveImpl.obj
 0001:00006c50       ?addRegistration@revertiveImpl@@QAEXABH00@Z 00407c50 f   revertiveImpl.obj
 0001:00006da0       ?addRegistration@revertiveImpl@@QAEXXZ 00407da0 f   revertiveImpl.obj
 0001:00006df0       ?cccDatabaseChange@revertiveImpl@@QAEXHHH@Z 00407df0 f   revertiveImpl.obj
 0001:00006ed0       ?cccDeviceMessage@revertiveImpl@@QAEXHHABV?$basic_string@DU?$char_traits@D@std@@V?$allocator@D@2@@std@@H@Z 00407ed0 f   revertiveImpl.obj
 0001:00006ff0       ?cccGpiRevertive@revertiveImpl@@QAEXHH_N@Z 00407ff0 f   revertiveImpl.obj
 0001:000070d0       ?cccInfoRevertive@revertiveImpl@@QAEXHHABV?$basic_string@DU?$char_traits@D@std@@V?$allocator@D@2@@std@@@Z 004080d0 f   revertiveImpl.obj
 0001:000071d0       ?cccRtrRevertive@revertiveImpl@@QAEXHHH@Z 004081d0 f   revertiveImpl.obj
 0001:000072b0       ?clear@revertiveImpl@@QAEXXZ 004082b0 f   revertiveImpl.obj
 0001:000072e0       ?loadSettings@revertiveImpl@@QAEXVQStringList@@@Z 004082e0 f   revertiveImpl.obj
 0001:00007550       ?logRevertiveToDisplay@revertiveImpl@@QAEXABVQString@@@Z 00408550 f   revertiveImpl.obj
 0001:00007650       ?metaObject@revertiveImpl@@UBEPAVQMetaObject@@XZ 00408650 f i revertiveImpl.obj
 0001:00007660       ?pauseDisplay@revertiveImpl@@QAEX_N@Z 00408660 f   revertiveImpl.obj
 0001:00007670       ?save@revertiveImpl@@QAE?AVQStringList@@XZ 00408670 f   revertiveImpl.obj
 0001:00007750       ?setLogLength@revertiveImpl@@QAEXH@Z 00408750 f   revertiveImpl.obj
 0001:00007780       ?slot_addRegistration@revertiveImpl@@QAEXABH00@Z 00408780 f   revertiveImpl.obj
 0001:000077a0       ?className@bCommandMainWindow@@UBEPBDXZ 004087a0 f   moc_bcommandmainwindow.obj
 0001:000077b0       ?qt_cast@bCommandMainWindow@@UAEPAXPBD@Z 004087b0 f   moc_bcommandmainwindow.obj
 0001:00007860       ?qt_emit@bCommandMainWindow@@UAE_NHPAUQUObject@@@Z 00408860 f   moc_bcommandmainwindow.obj
 0001:00007870       ?qt_invoke@bCommandMainWindow@@UAE_NHPAUQUObject@@@Z 00408870 f   moc_bcommandmainwindow.obj
 0001:000079c0       ?qt_property@bCommandMainWindow@@UAE_NHHPAVQVariant@@@Z 004089c0 f   moc_bcommandmainwindow.obj
 0001:000079d0       ?staticMetaObject@bCommandMainWindow@@SAPAVQMetaObject@@XZ 004089d0 f   moc_bcommandmainwindow.obj
 0001:00007b10       ?className@command@@UBEPBDXZ 00408b10 f   moc_commandimpl.obj
 0001:00007b20       ?qt_cast@command@@UAEPAXPBD@Z 00408b20 f   moc_commandimpl.obj
 0001:00007b80       ?qt_emit@command@@UAE_NHPAUQUObject@@@Z 00408b80 f   moc_commandimpl.obj
 0001:00007c90       ?qt_invoke@command@@UAE_NHPAUQUObject@@@Z 00408c90 f   moc_commandimpl.obj
 0001:00007e30       ?qt_property@commandLine@@UAE_NHHPAVQVariant@@@Z 00408e30 f   moc_commandLine.obj
 0001:00007e30       ?qt_property@revertiveDisplay@@UAE_NHHPAVQVariant@@@Z 00408e30 f   moc_revertiveDisplay.obj
 0001:00007e30       ?qt_property@command@@UAE_NHHPAVQVariant@@@Z 00408e30 f   moc_commandimpl.obj
 0001:00007e40       ?sig_commandChanged@command@@IAEX_N@Z 00408e40 f   moc_commandimpl.obj
 0001:00007e60       ?sig_commandRegisterFor@command@@IAEXABH00@Z 00408e60 f   moc_commandimpl.obj
 0001:00007f60       ?staticMetaObject@command@@SAPAVQMetaObject@@XZ 00408f60 f   moc_commandimpl.obj
 0001:00008160       ?className@commandLine@@UBEPBDXZ 00409160 f   moc_commandLine.obj
 0001:00008170       ?log@commandLine@@IAEXABVQString@@@Z 00409170 f   moc_commandLine.obj
 0001:000081e0       ?nextEdit@commandLine@@IAEXH@Z 004091e0 f   moc_commandLine.obj
 0001:00008200       ?previousEdit@commandLine@@IAEXH@Z 00409200 f   moc_commandLine.obj
 0001:00008220       ?qt_cast@commandLine@@UAEPAXPBD@Z 00409220 f   moc_commandLine.obj
 0001:00008280       ?qt_emit@commandLine@@UAE_NHPAUQUObject@@@Z 00409280 f   moc_commandLine.obj
 0001:00008360       ?qt_invoke@commandLine@@UAE_NHPAUQUObject@@@Z 00409360 f   moc_commandLine.obj
 0001:00008540       ?sig_commandLineRegisterFor@commandLine@@IAEXABH00@Z 00409540 f   moc_commandLine.obj
 0001:00008640       ?staticMetaObject@commandLine@@SAPAVQMetaObject@@XZ 00409640 f   moc_commandLine.obj
 0001:00008840       ?className@revertiveDisplay@@UBEPBDXZ 00409840 f   moc_revertiveDisplay.obj
 0001:00008850       ?qt_cast@revertiveDisplay@@UAEPAXPBD@Z 00409850 f   moc_revertiveDisplay.obj
 0001:000088b0       ?qt_emit@revertiveDisplay@@UAE_NHPAUQUObject@@@Z 004098b0 f   moc_revertiveDisplay.obj
 0001:000088c0       ?qt_invoke@revertiveDisplay@@UAE_NHPAUQUObject@@@Z 004098c0 f   moc_revertiveDisplay.obj
 0001:00008950       ?staticMetaObject@revertiveDisplay@@SAPAVQMetaObject@@XZ 00409950 f   moc_revertiveDisplay.obj
 0001:000089a0       ?tr@revertiveDisplay@@SA?AVQString@@PBD0@Z 004099a0 f   moc_revertiveDisplay.obj
 0001:000089f0       ?className@revertiveImpl@@UBEPBDXZ 004099f0 f   moc_revertiveImpl.obj
 0001:00008a00       ?qt_cast@revertiveImpl@@UAEPAXPBD@Z 00409a00 f   moc_revertiveImpl.obj
 0001:00008a60       ?qt_emit@revertiveImpl@@UAE_NHPAUQUObject@@@Z 00409a60 f   moc_revertiveImpl.obj
 0001:00008a70       ?qt_invoke@revertiveImpl@@UAE_NHPAUQUObject@@@Z 00409a70 f   moc_revertiveImpl.obj
 0001:00008ca0       ?qt_property@revertiveImpl@@UAE_NHHPAVQVariant@@@Z 00409ca0 f   moc_revertiveImpl.obj
 0001:00008cb0       ?staticMetaObject@revertiveImpl@@SAPAVQMetaObject@@XZ 00409cb0 f   moc_revertiveImpl.obj
 0001:00008f10       ??0revertiveDisplay@@QAE@PAVQWidget@@PBDI@Z 00409f10 f   revertiveDisplay.obj
 0001:00009930       ??1revertiveDisplay@@UAE@XZ 0040a930 f   revertiveDisplay.obj
 0001:00009943       ??_EQGridLayout@@WCI@AEPAXI@Z 0040a943 f i revertiveDisplay.obj
 0001:0000994b       ??_EQGroupBox@@WCI@AEPAXI@Z 0040a94b f i revertiveDisplay.obj
 0001:00009953       ??_EQLineEdit@@WCI@AEPAXI@Z 0040a953 f i revertiveDisplay.obj
 0001:0000995b       ??_EQListBox@@WCI@AEPAXI@Z 0040a95b f i revertiveDisplay.obj
 0001:00009963       ??_EQTextEdit@@WCI@AEPAXI@Z 0040a963 f i revertiveDisplay.obj
 0001:0000996b       ??_ErevertiveDisplay@@WCI@AEPAXI@Z 0040a96b f i revertiveDisplay.obj
 0001:00009980       ??_GQGridLayout@@UAEPAXI@Z 0040a980 f i revertiveDisplay.obj
 0001:00009980       ??_EQGridLayout@@UAEPAXI@Z 0040a980 f i revertiveDisplay.obj
 0001:000099b0       ??_GQGroupBox@@UAEPAXI@Z   0040a9b0 f i revertiveDisplay.obj
 0001:000099b0       ??_EQGroupBox@@UAEPAXI@Z   0040a9b0 f i revertiveDisplay.obj
 0001:000099e0       ??_GQLineEdit@@UAEPAXI@Z   0040a9e0 f i revertiveDisplay.obj
 0001:000099e0       ??_EQLineEdit@@UAEPAXI@Z   0040a9e0 f i revertiveDisplay.obj
 0001:00009a10       ??_EQListBox@@UAEPAXI@Z    0040aa10 f i revertiveDisplay.obj
 0001:00009a10       ??_GQListBox@@UAEPAXI@Z    0040aa10 f i revertiveDisplay.obj
 0001:00009a40       ??_GQTextEdit@@UAEPAXI@Z   0040aa40 f i revertiveDisplay.obj
 0001:00009a40       ??_EQTextEdit@@UAEPAXI@Z   0040aa40 f i revertiveDisplay.obj
 0001:00009a70       ??_ErevertiveDisplay@@UAEPAXI@Z 0040aa70 f i revertiveDisplay.obj
 0001:00009a70       ??_GrevertiveDisplay@@UAEPAXI@Z 0040aa70 f i revertiveDisplay.obj
 0001:00009aa0       ?languageChange@revertiveDisplay@@MAEXXZ 0040aaa0 f   revertiveDisplay.obj
 0001:00009d50       ?metaObject@revertiveDisplay@@UBEPAVQMetaObject@@XZ 0040ad50 f i revertiveDisplay.obj
 0001:00009d60       ??0?$basic_string@DU?$char_traits@D@std@@V?$allocator@D@2@@std@@QAE@$$QAV01@@Z 0040ad60 f i ccLibrary_vs2013:ccClient.obj
 0001:00009dd0       ??0ccClient@@QAE@PAVIccClientCallback@@ABV?$basic_string@DU?$char_traits@D@std@@V?$allocator@D@2@@std@@@Z 0040add0 f   ccLibrary_vs2013:ccClient.obj
 0001:00009fc0       ??1?$queue@V?$basic_string@DU?$char_traits@D@std@@V?$allocator@D@2@@std@@V?$deque@V?$basic_string@DU?$char_traits@D@std@@V?$allocator@D@2@@std@@V?$allocator@V?$basic_string@DU?$char_traits@D@std@@V?$allocator@D@2@@std@@@2@@2@@std@@QAE@XZ 0040afc0 f i ccLibrary_vs2013:ccClient.obj
 0001:00009ff0       ??1ccClient@@UAE@XZ        0040aff0 f   ccLibrary_vs2013:ccClient.obj
 0001:0000a0a0       ??4?$basic_string@DU?$char_traits@D@std@@V?$allocator@D@2@@std@@QAEAAV01@PBD@Z 0040b0a0 f i ccLibrary_vs2013:ccClient.obj
 0001:0000a0e0       ??_GccClient@@UAEPAXI@Z    0040b0e0 f i ccLibrary_vs2013:ccClient.obj
 0001:0000a0e0       ??_EccClient@@UAEPAXI@Z    0040b0e0 f i ccLibrary_vs2013:ccClient.obj
 0001:0000a110       ?BNCSSendMessage@ccClient@@AAEJIIJHHH@Z 0040b110 f   ccLibrary_vs2013:ccClient.obj
 0001:0000a170       ?WndProc@ccClient@@CGJPAUHWND__@@IIJ@Z 0040b170 f   ccLibrary_vs2013:ccClient.obj
 0001:0000ab20       ?_Growmap@?$deque@V?$basic_string@DU?$char_traits@D@std@@V?$allocator@D@2@@std@@V?$allocator@V?$basic_string@DU?$char_traits@D@std@@V?$allocator@D@2@@std@@@2@@std@@IAEXI@Z 0040bb20 f i ccLibrary_vs2013:ccClient.obj
 0001:0000aca0       ?_Tidy@?$deque@V?$basic_string@DU?$char_traits@D@std@@V?$allocator@D@2@@std@@V?$allocator@V?$basic_string@DU?$char_traits@D@std@@V?$allocator@D@2@@std@@@2@@std@@IAEXXZ 0040bca0 f i ccLibrary_vs2013:ccClient.obj
 0001:0000ad40       ?begin@?$deque@V?$basic_string@DU?$char_traits@D@std@@V?$allocator@D@2@@std@@V?$allocator@V?$basic_string@DU?$char_traits@D@std@@V?$allocator@D@2@@std@@@2@@std@@QAE?AV?$_Deque_iterator@V?$_Deque_val@U?$_Deque_simple_types@V?$basic_string@DU?$char_traits@D@std@@V?$allocator@D@2@@std@@@std@@@std@@@2@XZ 0040bd40 f i ccLibrary_vs2013:ccClient.obj
 0001:0000ad60       ?connect@ccClient@@QAE_NW4ipcType@cc@@J@Z 0040bd60 f   ccLibrary_vs2013:ccClient.obj
 0001:0000aff0       ?databaseModify@ccClient@@QAE_NHHHABV?$basic_string@DU?$char_traits@D@std@@V?$allocator@D@2@@std@@_N1H@Z 0040bff0 f   ccLibrary_vs2013:ccClient.obj
 0001:0000b140       ?databaseName@ccClient@@QAE_NHHHAAV?$basic_string@DU?$char_traits@D@std@@V?$allocator@D@2@@std@@@Z 0040c140 f   ccLibrary_vs2013:ccClient.obj
 0001:0000b2a0       ?deviceLock@ccClient@@AAEXDHHH_N0H@Z 0040c2a0 f   ccLibrary_vs2013:ccClient.obj
 0001:0000b410       ?deviceMessage@ccClient@@QAEXHHABV?$basic_string@DU?$char_traits@D@std@@V?$allocator@D@2@@std@@H@Z 0040c410 f   ccLibrary_vs2013:ccClient.obj
 0001:0000b4d0       ?devicePoll@ccClient@@AAEXDHHH_N@Z 0040c4d0 f   ccLibrary_vs2013:ccClient.obj
 0001:0000b610       ?deviceQuery@ccClient@@AAEXDHHH_N@Z 0040c610 f   ccLibrary_vs2013:ccClient.obj
 0001:0000b750       ?disconnect@ccClient@@QAE_NXZ 0040c750 f   ccLibrary_vs2013:ccClient.obj
 0001:0000b7b0       ?gpiLock@ccClient@@QAEXHHH_N0H@Z 0040c7b0 f   ccLibrary_vs2013:ccClient.obj
 0001:0000b7d0       ?gpiPoll@ccClient@@QAEXHHH_N@Z 0040c7d0 f   ccLibrary_vs2013:ccClient.obj
 0001:0000b7f0       ?gpiQuery@ccClient@@QAEXHHH_N@Z 0040c7f0 f   ccLibrary_vs2013:ccClient.obj
 0001:0000b810       ?gpiSwitch@ccClient@@QAEXHH_N0H@Z 0040c810 f   ccLibrary_vs2013:ccClient.obj
 0001:0000b8f0       ?infoLock@ccClient@@QAEXHHH_N0H@Z 0040c8f0 f   ccLibrary_vs2013:ccClient.obj
 0001:0000b910       ?infoPoll@ccClient@@QAEXHHH_N@Z 0040c910 f   ccLibrary_vs2013:ccClient.obj
 0001:0000b930       ?infoQuery@ccClient@@QAEXHHH_N@Z 0040c930 f   ccLibrary_vs2013:ccClient.obj
 0001:0000b950       ?infoWrite@ccClient@@QAEXHHABV?$basic_string@DU?$char_traits@D@std@@V?$allocator@D@2@@std@@_NH@Z 0040c950 f   ccLibrary_vs2013:ccClient.obj
 0001:0000ba40       ?maxDevices@ccClient@@QAEIXZ 0040ca40 f   ccLibrary_vs2013:ccClient.obj
 0001:0000ba60       ?maxIndexes@ccClient@@QAEIXZ 0040ca60 f   ccLibrary_vs2013:ccClient.obj
 0001:0000ba80       ?push_back@?$deque@V?$basic_string@DU?$char_traits@D@std@@V?$allocator@D@2@@std@@V?$allocator@V?$basic_string@DU?$char_traits@D@std@@V?$allocator@D@2@@std@@@2@@std@@QAEX$$QAV?$basic_string@DU?$char_traits@D@std@@V?$allocator@D@2@@2@@Z 0040ca80 f i ccLibrary_vs2013:ccClient.obj
 0001:0000baf0       ?push_back@?$deque@V?$basic_string@DU?$char_traits@D@std@@V?$allocator@D@2@@std@@V?$allocator@V?$basic_string@DU?$char_traits@D@std@@V?$allocator@D@2@@std@@@2@@std@@QAEXABV?$basic_string@DU?$char_traits@D@std@@V?$allocator@D@2@@2@@Z 0040caf0 f i ccLibrary_vs2013:ccClient.obj
 0001:0000bbb0       ?revertiveDeregisterAll@ccClient@@QAEXXZ 0040cbb0 f   ccLibrary_vs2013:ccClient.obj
 0001:0000bbd0       ?revertiveRegister@ccClient@@QAEXHHH_NH@Z 0040cbd0 f   ccLibrary_vs2013:ccClient.obj
 0001:0000bc70       ?routerCrosspoint@ccClient@@QAEXHHHABV?$basic_string@DU?$char_traits@D@std@@V?$allocator@D@2@@std@@_NH@Z 0040cc70 f   ccLibrary_vs2013:ccClient.obj
 0001:0000bd60       ?routerLock@ccClient@@QAEXHHH_N0H@Z 0040cd60 f   ccLibrary_vs2013:ccClient.obj
 0001:0000bd80       ?routerPoll@ccClient@@QAEXHHH_N@Z 0040cd80 f   ccLibrary_vs2013:ccClient.obj
 0001:0000bda0       ?routerQuery@ccClient@@QAEXHHH_N@Z 0040cda0 f   ccLibrary_vs2013:ccClient.obj
 0001:0000bdc0       ??$?HDU?$char_traits@D@std@@V?$allocator@D@1@@std@@YA?AV?$basic_string@DU?$char_traits@D@std@@V?$allocator@D@2@@0@$$QAV10@ABV10@@Z 0040cdc0 f i ccLibrary_vs2013:ccCheck.obj
 0001:0000be40       ??$?HDU?$char_traits@D@std@@V?$allocator@D@1@@std@@YA?AV?$basic_string@DU?$char_traits@D@std@@V?$allocator@D@2@@0@$$QAV10@PBD@Z 0040ce40 f i ccLibrary_vs2013:ccCheck.obj
 0001:0000bee0       ??$?HDU?$char_traits@D@std@@V?$allocator@D@1@@std@@YA?AV?$basic_string@DU?$char_traits@D@std@@V?$allocator@D@2@@0@ABV10@PBD@Z 0040cee0 f i ccLibrary_vs2013:ccCheck.obj
 0001:0000bfd0       ??$?HDU?$char_traits@D@std@@V?$allocator@D@1@@std@@YA?AV?$basic_string@DU?$char_traits@D@std@@V?$allocator@D@2@@0@PBDABV10@@Z 0040cfd0 f i ccLibrary_vs2013:ccCheck.obj
 0001:0000c0c0       ??0ccCheck@@QAE@ABV?$basic_string@DU?$char_traits@D@std@@V?$allocator@D@2@@std@@@Z 0040d0c0 f   ccLibrary_vs2013:ccCheck.obj
 0001:0000c120       ??1ccCheck@@UAE@XZ         0040d120 f   ccLibrary_vs2013:ccCheck.obj
 0001:0000c150       ??_GccCheck@@UAEPAXI@Z     0040d150 f i ccLibrary_vs2013:ccCheck.obj
 0001:0000c150       ??_EccCheck@@UAEPAXI@Z     0040d150 f i ccLibrary_vs2013:ccCheck.obj
 0001:0000c1a0       ?append@?$basic_string@DU?$char_traits@D@std@@V?$allocator@D@2@@std@@QAEAAV12@ABV12@II@Z 0040d1a0 f i ccLibrary_vs2013:ccCheck.obj
 0001:0000c260       ?append@?$basic_string@DU?$char_traits@D@std@@V?$allocator@D@2@@std@@QAEAAV12@PBDI@Z 0040d260 f i ccLibrary_vs2013:ccCheck.obj
 0001:0000c350       ?checkDatabase@ccCheck@@QAE_NII@Z 0040d350 f   ccLibrary_vs2013:ccCheck.obj
 0001:0000c3f0       ?checkDevice@ccCheck@@QAE_NI@Z 0040d3f0 f   ccLibrary_vs2013:ccCheck.obj
 0001:0000c4d0       ?checkIndex@ccCheck@@QAE_NI@Z 0040d4d0 f   ccLibrary_vs2013:ccCheck.obj
 0001:0000c5b0       ?checkIndexRange@ccCheck@@QAE_NII@Z 0040d5b0 f   ccLibrary_vs2013:ccCheck.obj
 0001:0000c660       ?checkSource@ccCheck@@QAE_NH@Z 0040d660 f   ccLibrary_vs2013:ccCheck.obj
 0001:0000c740       ?checkString@ccCheck@@QAE_NABV?$basic_string@DU?$char_traits@D@std@@V?$allocator@D@2@@std@@@Z 0040d740 f   ccLibrary_vs2013:ccCheck.obj
 0001:0000c7d0       ?checkWorkstation@ccCheck@@QAE_NI@Z 0040d7d0 f   ccLibrary_vs2013:ccCheck.obj
 0001:0000c8f0       ?log@ccCheck@@QAEXABV?$basic_string@DU?$char_traits@D@std@@V?$allocator@D@2@@std@@@Z 0040d8f0 f   ccLibrary_vs2013:ccCheck.obj
 0001:0000c9e0       ?setMaxDatabase@ccCheck@@QAEXI@Z 0040d9e0 f   ccLibrary_vs2013:ccCheck.obj
 0001:0000c9f0       ?setMaxDevice@ccCheck@@QAEXI@Z 0040d9f0 f   ccLibrary_vs2013:ccCheck.obj
 0001:0000ca00       ?setMaxIndex@ccCheck@@QAEXI@Z 0040da00 f   ccLibrary_vs2013:ccCheck.obj
 0001:0000ca10       ?setMaxSource@ccCheck@@QAEXH@Z 0040da10 f   ccLibrary_vs2013:ccCheck.obj
 0001:0000ca20       ?setMaxString@ccCheck@@QAEXI@Z 0040da20 f   ccLibrary_vs2013:ccCheck.obj
 0001:0000ca40       ?getDevPath@ccConfig@@SA?AV?$basic_string@DU?$char_traits@D@std@@V?$allocator@D@2@@std@@XZ 0040da40 f   ccLibrary_vs2013:ccConfig.obj
 0001:0000cc50       ?getInt@ccConfig@@SAHABV?$basic_string@DU?$char_traits@D@std@@V?$allocator@D@2@@std@@00H_N@Z 0040dc50 f   ccLibrary_vs2013:ccConfig.obj
 0001:0000cda0       ?isV3Based@ccConfig@@SA_NXZ 0040dda0 f   ccLibrary_vs2013:ccConfig.obj
 0001:0000ce50       ?workstation@ccConfig@@SAHXZ 0040de50 f   ccLibrary_vs2013:ccConfig.obj
 0001:0000d1b0       ??0cBncsVersion@@QAE@PBD@Z 0040e1b0 f   BncsVersionInfo:cBncsVersion.obj
 0001:0000d7d0       ??1cBncsVersion@@UAE@XZ    0040e7d0 f   BncsVersionInfo:cBncsVersion.obj
 0001:0000d8b0       ??_GcBncsVersion@@UAEPAXI@Z 0040e8b0 f i BncsVersionInfo:cBncsVersion.obj
 0001:0000d8b0       ??_EcBncsVersion@@UAEPAXI@Z 0040e8b0 f i BncsVersionInfo:cBncsVersion.obj
 0001:0000d8e0       ??0decodeBNCSString@@QAE@PBDD@Z 0040e8e0 f   decodecaptionstring:decodeBNCSString.obj
 0001:0000d910       ??1decodeBNCSString@@UAE@XZ 0040e910 f   decodecaptionstring:decodeBNCSString.obj
 0001:0000d930       ??_EdecodeBNCSString@@UAEPAXI@Z 0040e930 f i decodecaptionstring:decodeBNCSString.obj
 0001:0000d930       ??_GdecodeBNCSString@@UAEPAXI@Z 0040e930 f i decodecaptionstring:decodeBNCSString.obj
 0001:0000d970       ?split@decodeBNCSString@@AAEXPBD@Z 0040e970 f i decodecaptionstring:decodeBNCSString.obj
 0001:0000db92       ?setCaption@QWidget@@UAEXABVQString@@@Z 0040eb92 f   qt-mt323:qt-mt323.dll
 0001:0000db98       ?setIcon@QWidget@@UAEXABVQPixmap@@@Z 0040eb98 f   qt-mt323:qt-mt323.dll
 0001:0000db9e       ?setCentralWidget@QMainWindow@@UAEXPAVQWidget@@@Z 0040eb9e f   qt-mt323:qt-mt323.dll
 0001:0000dba4       ?activateItemAt@QPopupMenu@@UAEXH@Z 0040eba4 f   qt-mt323:qt-mt323.dll
 0001:0000dbaa       ?addDockWindow@QMainWindow@@UAEXPAVQDockWindow@@ABVQString@@W4Dock@Qt@@_N@Z 0040ebaa f   qt-mt323:qt-mt323.dll
 0001:0000dbb0       ?addDockWindow@QMainWindow@@UAEXPAVQDockWindow@@W4Dock@Qt@@_N@Z 0040ebb0 f   qt-mt323:qt-mt323.dll
 0001:0000dbb6       ?addItem@QBoxLayout@@UAEXPAVQLayoutItem@@@Z 0040ebb6 f   qt-mt323:qt-mt323.dll
 0001:0000dbbc       ?addTo@QAction@@UAE_NPAVQWidget@@@Z 0040ebbc f   qt-mt323:qt-mt323.dll
 0001:0000dbc2       ?addedTo@QAction@@MAEXHPAVQPopupMenu@@@Z 0040ebc2 f   qt-mt323:qt-mt323.dll
 0001:0000dbc8       ?addedTo@QAction@@MAEXPAVQWidget@@0@Z 0040ebc8 f   qt-mt323:qt-mt323.dll
 0001:0000dbce       ?adjustSize@QWidget@@UAEXXZ 0040ebce f   qt-mt323:qt-mt323.dll
 0001:0000dbd4       ?checkConnectArgs@QObject@@MAE_NPBDPBV1@0@Z 0040ebd4 f   qt-mt323:qt-mt323.dll
 0001:0000dbda       ?childEvent@QLayout@@MAEXPAVQChildEvent@@@Z 0040ebda f   qt-mt323:qt-mt323.dll
 0001:0000dbe0       ?childEvent@QMainWindow@@MAEXPAVQChildEvent@@@Z 0040ebe0 f   qt-mt323:qt-mt323.dll
 0001:0000dbe6       ?childEvent@QObject@@MAEXPAVQChildEvent@@@Z 0040ebe6 f   qt-mt323:qt-mt323.dll
 0001:0000dbec       ?className@QAction@@UBEPBDXZ 0040ebec f   qt-mt323:qt-mt323.dll
 0001:0000dbf2       ?className@QCheckBox@@UBEPBDXZ 0040ebf2 f   qt-mt323:qt-mt323.dll
 0001:0000dbf8       ?className@QFrame@@UBEPBDXZ 0040ebf8 f   qt-mt323:qt-mt323.dll
 0001:0000dbfe       ?className@QHBoxLayout@@UBEPBDXZ 0040ebfe f   qt-mt323:qt-mt323.dll
 0001:0000dc04       ?className@QLabel@@UBEPBDXZ 0040ec04 f   qt-mt323:qt-mt323.dll
 0001:0000dc0a       ?className@QPopupMenu@@UBEPBDXZ 0040ec0a f   qt-mt323:qt-mt323.dll
 0001:0000dc10       ?className@QPushButton@@UBEPBDXZ 0040ec10 f   qt-mt323:qt-mt323.dll
 0001:0000dc16       ?className@QSpinBox@@UBEPBDXZ 0040ec16 f   qt-mt323:qt-mt323.dll
 0001:0000dc1c       ?className@QToolBar@@UBEPBDXZ 0040ec1c f   qt-mt323:qt-mt323.dll
 0001:0000dc22       ?className@QVBoxLayout@@UBEPBDXZ 0040ec22 f   qt-mt323:qt-mt323.dll
 0001:0000dc28       ?cleanText@QSpinBox@@UBE?AVQString@@XZ 0040ec28 f   qt-mt323:qt-mt323.dll
 0001:0000dc2e       ?clear@QToolBar@@UAEXXZ    0040ec2e f   qt-mt323:qt-mt323.dll
 0001:0000dc34       ?close@QWidget@@UAE_N_N@Z  0040ec34 f   qt-mt323:qt-mt323.dll
 0001:0000dc3a       ?closeEvent@QPopupMenu@@MAEXPAVQCloseEvent@@@Z 0040ec3a f   qt-mt323:qt-mt323.dll
 0001:0000dc40       ?closeEvent@QWidget@@MAEXPAVQCloseEvent@@@Z 0040ec40 f   qt-mt323:qt-mt323.dll
 0001:0000dc46       ?cmd@QPaintDevice@@MAE_NHPAVQPainter@@PATQPDevCmdParam@@@Z 0040ec46 f   qt-mt323:qt-mt323.dll
 0001:0000dc4c       ?connectNotify@QObject@@MAEXPBD@Z 0040ec4c f   qt-mt323:qt-mt323.dll
 0001:0000dc52       ?contextMenuEvent@QDockWindow@@MAEXPAVQContextMenuEvent@@@Z 0040ec52 f   qt-mt323:qt-mt323.dll
 0001:0000dc58       ?contextMenuEvent@QWidget@@MAEXPAVQContextMenuEvent@@@Z 0040ec58 f   qt-mt323:qt-mt323.dll
 0001:0000dc5e       ?create@QWidget@@MAEXPAUHWND__@@_N1@Z 0040ec5e f   qt-mt323:qt-mt323.dll
 0001:0000dc64       ?customEvent@QObject@@MAEXPAVQCustomEvent@@@Z 0040ec64 f   qt-mt323:qt-mt323.dll
 0001:0000dc6a       ?customWhatsThis@QPopupMenu@@UBE_NXZ 0040ec6a f   qt-mt323:qt-mt323.dll
 0001:0000dc70       ?customWhatsThis@QWidget@@UBE_NXZ 0040ec70 f   qt-mt323:qt-mt323.dll
 0001:0000dc76       ?customize@QMainWindow@@UAEXXZ 0040ec76 f   qt-mt323:qt-mt323.dll
 0001:0000dc7c       ?destroy@QWidget@@MAEX_N0@Z 0040ec7c f   qt-mt323:qt-mt323.dll
 0001:0000dc82       ?disconnectNotify@QObject@@MAEXPBD@Z 0040ec82 f   qt-mt323:qt-mt323.dll
 0001:0000dc88       ?dock@QDockWindow@@UAEXXZ  0040ec88 f   qt-mt323:qt-mt323.dll
 0001:0000dc8e       ?dockingArea@QMainWindow@@UAEPAVQDockArea@@ABVQPoint@@@Z 0040ec8e f   qt-mt323:qt-mt323.dll
 0001:0000dc94       ?dragEnterEvent@QWidget@@MAEXPAVQDragEnterEvent@@@Z 0040ec94 f   qt-mt323:qt-mt323.dll
 0001:0000dc9a       ?dragLeaveEvent@QWidget@@MAEXPAVQDragLeaveEvent@@@Z 0040ec9a f   qt-mt323:qt-mt323.dll
 0001:0000dca0       ?dragMoveEvent@QWidget@@MAEXPAVQDragMoveEvent@@@Z 0040eca0 f   qt-mt323:qt-mt323.dll
 0001:0000dca6       ?drawButton@QCheckBox@@MAEXPAVQPainter@@@Z 0040eca6 f   qt-mt323:qt-mt323.dll
 0001:0000dcac       ?drawButton@QPushButton@@MAEXPAVQPainter@@@Z 0040ecac f   qt-mt323:qt-mt323.dll
 0001:0000dcb2       ?drawButtonLabel@QCheckBox@@MAEXPAVQPainter@@@Z 0040ecb2 f   qt-mt323:qt-mt323.dll
 0001:0000dcb8       ?drawButtonLabel@QPushButton@@MAEXPAVQPainter@@@Z 0040ecb8 f   qt-mt323:qt-mt323.dll
 0001:0000dcbe       ?drawContents@QDockWindow@@MAEXPAVQPainter@@@Z 0040ecbe f   qt-mt323:qt-mt323.dll
 0001:0000dcc4       ?drawContents@QFrame@@MAEXPAVQPainter@@@Z 0040ecc4 f   qt-mt323:qt-mt323.dll
 0001:0000dcca       ?drawContents@QLabel@@MAEXPAVQPainter@@@Z 0040ecca f   qt-mt323:qt-mt323.dll
 0001:0000dcd0       ?drawContents@QPopupMenu@@MAEXPAVQPainter@@@Z 0040ecd0 f   qt-mt323:qt-mt323.dll
 0001:0000dcd6       ?drawFrame@QDockWindow@@MAEXPAVQPainter@@@Z 0040ecd6 f   qt-mt323:qt-mt323.dll
 0001:0000dcdc       ?drawFrame@QFrame@@MAEXPAVQPainter@@@Z 0040ecdc f   qt-mt323:qt-mt323.dll
 0001:0000dce2       ?dropEvent@QWidget@@MAEXPAVQDropEvent@@@Z 0040ece2 f   qt-mt323:qt-mt323.dll
 0001:0000dce8       ?enabledChange@QButton@@MAEX_N@Z 0040ece8 f   qt-mt323:qt-mt323.dll
 0001:0000dcee       ?enabledChange@QPopupMenu@@MAEX_N@Z 0040ecee f   qt-mt323:qt-mt323.dll
 0001:0000dcf4       ?enabledChange@QWidget@@MAEX_N@Z 0040ecf4 f   qt-mt323:qt-mt323.dll
 0001:0000dcfa       ?enterEvent@QWidget@@MAEXPAVQEvent@@@Z 0040ecfa f   qt-mt323:qt-mt323.dll
 0001:0000dd00       ?event@QMainWindow@@MAE_NPAVQEvent@@@Z 0040ed00 f   qt-mt323:qt-mt323.dll
 0001:0000dd06       ?event@QObject@@UAE_NPAVQEvent@@@Z 0040ed06 f   qt-mt323:qt-mt323.dll
 0001:0000dd0c       ?event@QToolBar@@UAE_NPAVQEvent@@@Z 0040ed0c f   qt-mt323:qt-mt323.dll
 0001:0000dd12       ?event@QWidget@@MAE_NPAVQEvent@@@Z 0040ed12 f   qt-mt323:qt-mt323.dll
 0001:0000dd18       ?eventFilter@QDockWindow@@UAE_NPAVQObject@@PAVQEvent@@@Z 0040ed18 f   qt-mt323:qt-mt323.dll
 0001:0000dd1e       ?eventFilter@QLayout@@MAE_NPAVQObject@@PAVQEvent@@@Z 0040ed1e f   qt-mt323:qt-mt323.dll
 0001:0000dd24       ?eventFilter@QMainWindow@@UAE_NPAVQObject@@PAVQEvent@@@Z 0040ed24 f   qt-mt323:qt-mt323.dll
 0001:0000dd2a       ?eventFilter@QObject@@UAE_NPAV1@PAVQEvent@@@Z 0040ed2a f   qt-mt323:qt-mt323.dll
 0001:0000dd30       ?eventFilter@QSpinBox@@MAE_NPAVQObject@@PAVQEvent@@@Z 0040ed30 f   qt-mt323:qt-mt323.dll
 0001:0000dd36       ?expanding@QBoxLayout@@UBE?AW4ExpandData@QSizePolicy@@XZ 0040ed36 f   qt-mt323:qt-mt323.dll
 0001:0000dd3c       ?expanding@QSpacerItem@@UBE?AW4ExpandData@QSizePolicy@@XZ 0040ed3c f   qt-mt323:qt-mt323.dll
 0001:0000dd42       ?focusInEvent@QButton@@MAEXPAVQFocusEvent@@@Z 0040ed42 f   qt-mt323:qt-mt323.dll
 0001:0000dd48       ?focusInEvent@QPopupMenu@@MAEXPAVQFocusEvent@@@Z 0040ed48 f   qt-mt323:qt-mt323.dll
 0001:0000dd4e       ?focusInEvent@QPushButton@@MAEXPAVQFocusEvent@@@Z 0040ed4e f   qt-mt323:qt-mt323.dll
 0001:0000dd54       ?focusInEvent@QWidget@@MAEXPAVQFocusEvent@@@Z 0040ed54 f   qt-mt323:qt-mt323.dll
 0001:0000dd5a       ?focusNextPrevChild@QPopupMenu@@MAE_N_N@Z 0040ed5a f   qt-mt323:qt-mt323.dll
 0001:0000dd60       ?focusNextPrevChild@QWidget@@MAE_N_N@Z 0040ed60 f   qt-mt323:qt-mt323.dll
 0001:0000dd66       ?focusOutEvent@QButton@@MAEXPAVQFocusEvent@@@Z 0040ed66 f   qt-mt323:qt-mt323.dll
 0001:0000dd6c       ?focusOutEvent@QPopupMenu@@MAEXPAVQFocusEvent@@@Z 0040ed6c f   qt-mt323:qt-mt323.dll
 0001:0000dd72       ?focusOutEvent@QPushButton@@MAEXPAVQFocusEvent@@@Z 0040ed72 f   qt-mt323:qt-mt323.dll
 0001:0000dd78       ?focusOutEvent@QWidget@@MAEXPAVQFocusEvent@@@Z 0040ed78 f   qt-mt323:qt-mt323.dll
 0001:0000dd7e       ?fontChange@QLabel@@MAEXABVQFont@@@Z 0040ed7e f   qt-mt323:qt-mt323.dll
 0001:0000dd84       ?fontChange@QWidget@@MAEXABVQFont@@@Z 0040ed84 f   qt-mt323:qt-mt323.dll
 0001:0000dd8a       ?fontInf@QPaintDevice@@MBEHPAVQFont@@H@Z 0040ed8a f   qt-mt323:qt-mt323.dll
 0001:0000dd90       ?fontMet@QPaintDevice@@MBEHPAVQFont@@HPBDH@Z 0040ed90 f   qt-mt323:qt-mt323.dll
 0001:0000dd96       ?frameChanged@QFrame@@MAEXXZ 0040ed96 f   qt-mt323:qt-mt323.dll
 0001:0000dd9c       ?frameChanged@QPopupMenu@@EAEXXZ 0040ed9c f   qt-mt323:qt-mt323.dll
 0001:0000dda2       ?geometry@QLayout@@UBE?AVQRect@@XZ 0040eda2 f   qt-mt323:qt-mt323.dll
 0001:0000dda8       ?geometry@QSpacerItem@@UBE?AVQRect@@XZ 0040eda8 f   qt-mt323:qt-mt323.dll
 0001:0000ddae       ?handle@QPaintDevice@@UBEPAUHDC__@@XZ 0040edae f   qt-mt323:qt-mt323.dll
 0001:0000ddb4       ?hasHeightForWidth@QBoxLayout@@UBE_NXZ 0040edb4 f   qt-mt323:qt-mt323.dll
 0001:0000ddba       ?hasHeightForWidth@QLayoutItem@@UBE_NXZ 0040edba f   qt-mt323:qt-mt323.dll
 0001:0000ddc0       ?heightForWidth@QBoxLayout@@UBEHH@Z 0040edc0 f   qt-mt323:qt-mt323.dll
 0001:0000ddc6       ?heightForWidth@QLabel@@UBEHH@Z 0040edc6 f   qt-mt323:qt-mt323.dll
 0001:0000ddcc       ?heightForWidth@QLayoutItem@@UBEHH@Z 0040edcc f   qt-mt323:qt-mt323.dll
 0001:0000ddd2       ?heightForWidth@QWidget@@UBEHH@Z 0040edd2 f   qt-mt323:qt-mt323.dll
 0001:0000ddd8       ?hide@QMainWindow@@UAEXXZ  0040edd8 f   qt-mt323:qt-mt323.dll
 0001:0000ddde       ?hide@QPopupMenu@@UAEXXZ   0040edde f   qt-mt323:qt-mt323.dll
 0001:0000dde4       ?hide@QToolBar@@UAEXXZ     0040ede4 f   qt-mt323:qt-mt323.dll
 0001:0000ddea       ?hide@QWidget@@UAEXXZ      0040edea f   qt-mt323:qt-mt323.dll
 0001:0000ddf0       ?hideEvent@QDockWindow@@MAEXPAVQHideEvent@@@Z 0040edf0 f   qt-mt323:qt-mt323.dll
 0001:0000ddf6       ?hideEvent@QWidget@@MAEXPAVQHideEvent@@@Z 0040edf6 f   qt-mt323:qt-mt323.dll
 0001:0000ddfc       ?hitButton@QButton@@MBE_NABVQPoint@@@Z 0040edfc f   qt-mt323:qt-mt323.dll
 0001:0000de02       ?hitButton@QCheckBox@@MBE_NABVQPoint@@@Z 0040ee02 f   qt-mt323:qt-mt323.dll
 0001:0000de08       ?imComposeEvent@QWidget@@MAEXPAVQIMEvent@@@Z 0040ee08 f   qt-mt323:qt-mt323.dll
 0001:0000de0e       ?imEndEvent@QWidget@@MAEXPAVQIMEvent@@@Z 0040ee0e f   qt-mt323:qt-mt323.dll
 0001:0000de14       ?imStartEvent@QWidget@@MAEXPAVQIMEvent@@@Z 0040ee14 f   qt-mt323:qt-mt323.dll
 0001:0000de1a       ?insertChild@QObject@@UAEXPAV1@@Z 0040ee1a f   qt-mt323:qt-mt323.dll
 0001:0000de20       ?interpretText@QSpinBox@@MAEXXZ 0040ee20 f   qt-mt323:qt-mt323.dll
 0001:0000de26       ?invalidate@QBoxLayout@@UAEXXZ 0040ee26 f   qt-mt323:qt-mt323.dll
 0001:0000de2c       ?invalidate@QLayoutItem@@UAEXXZ 0040ee2c f   qt-mt323:qt-mt323.dll
 0001:0000de32       ?isCustomizable@QMainWindow@@UBE_NXZ 0040ee32 f   qt-mt323:qt-mt323.dll
 0001:0000de38       ?isEmpty@QLayout@@UBE_NXZ  0040ee38 f   qt-mt323:qt-mt323.dll
 0001:0000de3e       ?isEmpty@QSpacerItem@@UBE_NXZ 0040ee3e f   qt-mt323:qt-mt323.dll
 0001:0000de44       ?iterator@QBoxLayout@@UAE?AVQLayoutIterator@@XZ 0040ee44 f   qt-mt323:qt-mt323.dll
 0001:0000de4a       ?iterator@QLayoutItem@@UAE?AVQLayoutIterator@@XZ 0040ee4a f   qt-mt323:qt-mt323.dll
 0001:0000de50       ?keyPressEvent@QButton@@MAEXPAVQKeyEvent@@@Z 0040ee50 f   qt-mt323:qt-mt323.dll
 0001:0000de56       ?keyPressEvent@QPopupMenu@@MAEXPAVQKeyEvent@@@Z 0040ee56 f   qt-mt323:qt-mt323.dll
 0001:0000de5c       ?keyPressEvent@QWidget@@MAEXPAVQKeyEvent@@@Z 0040ee5c f   qt-mt323:qt-mt323.dll
 0001:0000de62       ?keyReleaseEvent@QButton@@MAEXPAVQKeyEvent@@@Z 0040ee62 f   qt-mt323:qt-mt323.dll
 0001:0000de68       ?keyReleaseEvent@QWidget@@MAEXPAVQKeyEvent@@@Z 0040ee68 f   qt-mt323:qt-mt323.dll
 0001:0000de6e       ?layout@QLayout@@UAEPAV1@XZ 0040ee6e f   qt-mt323:qt-mt323.dll
 0001:0000de74       ?layout@QLayoutItem@@UAEPAVQLayout@@XZ 0040ee74 f   qt-mt323:qt-mt323.dll
 0001:0000de7a       ?leaveEvent@QPopupMenu@@MAEXPAVQEvent@@@Z 0040ee7a f   qt-mt323:qt-mt323.dll
 0001:0000de80       ?leaveEvent@QSpinBox@@MAEXPAVQEvent@@@Z 0040ee80 f   qt-mt323:qt-mt323.dll
 0001:0000de86       ?leaveEvent@QWidget@@MAEXPAVQEvent@@@Z 0040ee86 f   qt-mt323:qt-mt323.dll
 0001:0000de8c       ?mapTextToValue@QSpinBox@@MAEHPA_N@Z 0040ee8c f   qt-mt323:qt-mt323.dll
 0001:0000de92       ?mapValueToText@QSpinBox@@MAE?AVQString@@H@Z 0040ee92 f   qt-mt323:qt-mt323.dll
 0001:0000de98       ?maximumSize@QBoxLayout@@UBE?AVQSize@@XZ 0040ee98 f   qt-mt323:qt-mt323.dll
 0001:0000de9e       ?maximumSize@QSpacerItem@@UBE?AVQSize@@XZ 0040ee9e f   qt-mt323:qt-mt323.dll
 0001:0000dea4       ?menuContentsChanged@QPopupMenu@@EAEXXZ 0040eea4 f   qt-mt323:qt-mt323.dll
 0001:0000deaa       ?menuDelPopup@QPopupMenu@@EAEXPAV1@@Z 0040eeaa f   qt-mt323:qt-mt323.dll
 0001:0000deb0       ?menuInsPopup@QPopupMenu@@EAEXPAV1@@Z 0040eeb0 f   qt-mt323:qt-mt323.dll
 0001:0000deb6       ?menuStateChanged@QPopupMenu@@EAEXXZ 0040eeb6 f   qt-mt323:qt-mt323.dll
 0001:0000debc       ?metaObject@QAction@@UBEPAVQMetaObject@@XZ 0040eebc f   qt-mt323:qt-mt323.dll
 0001:0000dec2       ?metaObject@QCheckBox@@UBEPAVQMetaObject@@XZ 0040eec2 f   qt-mt323:qt-mt323.dll
 0001:0000dec8       ?metaObject@QFrame@@UBEPAVQMetaObject@@XZ 0040eec8 f   qt-mt323:qt-mt323.dll
 0001:0000dece       ?metaObject@QHBoxLayout@@UBEPAVQMetaObject@@XZ 0040eece f   qt-mt323:qt-mt323.dll
 0001:0000ded4       ?metaObject@QLabel@@UBEPAVQMetaObject@@XZ 0040eed4 f   qt-mt323:qt-mt323.dll
 0001:0000deda       ?metaObject@QPopupMenu@@UBEPAVQMetaObject@@XZ 0040eeda f   qt-mt323:qt-mt323.dll
 0001:0000dee0       ?metaObject@QPushButton@@UBEPAVQMetaObject@@XZ 0040eee0 f   qt-mt323:qt-mt323.dll
 0001:0000dee6       ?metaObject@QSpinBox@@UBEPAVQMetaObject@@XZ 0040eee6 f   qt-mt323:qt-mt323.dll
 0001:0000deec       ?metaObject@QToolBar@@UBEPAVQMetaObject@@XZ 0040eeec f   qt-mt323:qt-mt323.dll
 0001:0000def2       ?metaObject@QVBoxLayout@@UBEPAVQMetaObject@@XZ 0040eef2 f   qt-mt323:qt-mt323.dll
 0001:0000def8       ?metric@QWidget@@MBEHH@Z   0040eef8 f   qt-mt323:qt-mt323.dll
 0001:0000defe       ?minimumSize@QBoxLayout@@UBE?AVQSize@@XZ 0040eefe f   qt-mt323:qt-mt323.dll
 0001:0000df04       ?minimumSize@QSpacerItem@@UBE?AVQSize@@XZ 0040ef04 f   qt-mt323:qt-mt323.dll
 0001:0000df0a       ?minimumSizeHint@QLabel@@UBE?AVQSize@@XZ 0040ef0a f   qt-mt323:qt-mt323.dll
 0001:0000df10       ?minimumSizeHint@QMainWindow@@UBE?AVQSize@@XZ 0040ef10 f   qt-mt323:qt-mt323.dll
 0001:0000df16       ?minimumSizeHint@QSpinBox@@UBE?AVQSize@@XZ 0040ef16 f   qt-mt323:qt-mt323.dll
 0001:0000df1c       ?minimumSizeHint@QToolBar@@UBE?AVQSize@@XZ 0040ef1c f   qt-mt323:qt-mt323.dll
 0001:0000df22       ?minimumSizeHint@QWidget@@UBE?AVQSize@@XZ 0040ef22 f   qt-mt323:qt-mt323.dll
 0001:0000df28       ?mouseDoubleClickEvent@QWidget@@MAEXPAVQMouseEvent@@@Z 0040ef28 f   qt-mt323:qt-mt323.dll
 0001:0000df2e       ?mouseMoveEvent@QButton@@MAEXPAVQMouseEvent@@@Z 0040ef2e f   qt-mt323:qt-mt323.dll
 0001:0000df34       ?mouseMoveEvent@QPopupMenu@@MAEXPAVQMouseEvent@@@Z 0040ef34 f   qt-mt323:qt-mt323.dll
 0001:0000df3a       ?mouseMoveEvent@QWidget@@MAEXPAVQMouseEvent@@@Z 0040ef3a f   qt-mt323:qt-mt323.dll
 0001:0000df40       ?mousePressEvent@QButton@@MAEXPAVQMouseEvent@@@Z 0040ef40 f   qt-mt323:qt-mt323.dll
 0001:0000df46       ?mousePressEvent@QPopupMenu@@MAEXPAVQMouseEvent@@@Z 0040ef46 f   qt-mt323:qt-mt323.dll
 0001:0000df4c       ?mousePressEvent@QWidget@@MAEXPAVQMouseEvent@@@Z 0040ef4c f   qt-mt323:qt-mt323.dll
 0001:0000df52       ?mouseReleaseEvent@QButton@@MAEXPAVQMouseEvent@@@Z 0040ef52 f   qt-mt323:qt-mt323.dll
 0001:0000df58       ?mouseReleaseEvent@QPopupMenu@@MAEXPAVQMouseEvent@@@Z 0040ef58 f   qt-mt323:qt-mt323.dll
 0001:0000df5e       ?mouseReleaseEvent@QWidget@@MAEXPAVQMouseEvent@@@Z 0040ef5e f   qt-mt323:qt-mt323.dll
 0001:0000df64       ?move@QPushButton@@UAEXHH@Z 0040ef64 f   qt-mt323:qt-mt323.dll
 0001:0000df6a       ?move@QWidget@@UAEXHH@Z    0040ef6a f   qt-mt323:qt-mt323.dll
 0001:0000df70       ?moveDockWindow@QMainWindow@@UAEXPAVQDockWindow@@W4Dock@Qt@@@Z 0040ef70 f   qt-mt323:qt-mt323.dll
 0001:0000df76       ?moveDockWindow@QMainWindow@@UAEXPAVQDockWindow@@W4Dock@Qt@@_NHH@Z 0040ef76 f   qt-mt323:qt-mt323.dll
 0001:0000df7c       ?moveEvent@QWidget@@MAEXPAVQMoveEvent@@@Z 0040ef7c f   qt-mt323:qt-mt323.dll
 0001:0000df82       ?paintEvent@QButton@@MAEXPAVQPaintEvent@@@Z 0040ef82 f   qt-mt323:qt-mt323.dll
 0001:0000df88       ?paintEvent@QFrame@@MAEXPAVQPaintEvent@@@Z 0040ef88 f   qt-mt323:qt-mt323.dll
 0001:0000df8e       ?paintEvent@QMainWindow@@MAEXPAVQPaintEvent@@@Z 0040ef8e f   qt-mt323:qt-mt323.dll
 0001:0000df94       ?paintEvent@QPopupMenu@@MAEXPAVQPaintEvent@@@Z 0040ef94 f   qt-mt323:qt-mt323.dll
 0001:0000df9a       ?paintEvent@QWidget@@MAEXPAVQPaintEvent@@@Z 0040ef9a f   qt-mt323:qt-mt323.dll
 0001:0000dfa0       ?paletteChange@QWidget@@MAEXABVQPalette@@@Z 0040efa0 f   qt-mt323:qt-mt323.dll
 0001:0000dfa6       ?polish@QWidget@@UAEXXZ    0040efa6 f   qt-mt323:qt-mt323.dll
 0001:0000dfac       ?prefix@QSpinBox@@UBE?AVQString@@XZ 0040efac f   qt-mt323:qt-mt323.dll
 0001:0000dfb2       ?property@QObject@@UBE?AVQVariant@@PBD@Z 0040efb2 f   qt-mt323:qt-mt323.dll
 0001:0000dfb8       ?qt_cast@QAction@@UAEPAXPBD@Z 0040efb8 f   qt-mt323:qt-mt323.dll
 0001:0000dfbe       ?qt_cast@QCheckBox@@UAEPAXPBD@Z 0040efbe f   qt-mt323:qt-mt323.dll
 0001:0000dfc4       ?qt_cast@QFrame@@UAEPAXPBD@Z 0040efc4 f   qt-mt323:qt-mt323.dll
 0001:0000dfca       ?qt_cast@QHBoxLayout@@UAEPAXPBD@Z 0040efca f   qt-mt323:qt-mt323.dll
 0001:0000dfd0       ?qt_cast@QLabel@@UAEPAXPBD@Z 0040efd0 f   qt-mt323:qt-mt323.dll
 0001:0000dfd6       ?qt_cast@QPopupMenu@@UAEPAXPBD@Z 0040efd6 f   qt-mt323:qt-mt323.dll
 0001:0000dfdc       ?qt_cast@QPushButton@@UAEPAXPBD@Z 0040efdc f   qt-mt323:qt-mt323.dll
 0001:0000dfe2       ?qt_cast@QSpinBox@@UAEPAXPBD@Z 0040efe2 f   qt-mt323:qt-mt323.dll
 0001:0000dfe8       ?qt_cast@QToolBar@@UAEPAXPBD@Z 0040efe8 f   qt-mt323:qt-mt323.dll
 0001:0000dfee       ?qt_cast@QVBoxLayout@@UAEPAXPBD@Z 0040efee f   qt-mt323:qt-mt323.dll
 0001:0000dff4       ?qt_emit@QAction@@UAE_NHPAUQUObject@@@Z 0040eff4 f   qt-mt323:qt-mt323.dll
 0001:0000dffa       ?qt_emit@QCheckBox@@UAE_NHPAUQUObject@@@Z 0040effa f   qt-mt323:qt-mt323.dll
 0001:0000e000       ?qt_emit@QFrame@@UAE_NHPAUQUObject@@@Z 0040f000 f   qt-mt323:qt-mt323.dll
 0001:0000e006       ?qt_emit@QHBoxLayout@@UAE_NHPAUQUObject@@@Z 0040f006 f   qt-mt323:qt-mt323.dll
 0001:0000e00c       ?qt_emit@QLabel@@UAE_NHPAUQUObject@@@Z 0040f00c f   qt-mt323:qt-mt323.dll
 0001:0000e012       ?qt_emit@QPopupMenu@@UAE_NHPAUQUObject@@@Z 0040f012 f   qt-mt323:qt-mt323.dll
 0001:0000e018       ?qt_emit@QPushButton@@UAE_NHPAUQUObject@@@Z 0040f018 f   qt-mt323:qt-mt323.dll
 0001:0000e01e       ?qt_emit@QSpinBox@@UAE_NHPAUQUObject@@@Z 0040f01e f   qt-mt323:qt-mt323.dll
 0001:0000e024       ?qt_emit@QToolBar@@UAE_NHPAUQUObject@@@Z 0040f024 f   qt-mt323:qt-mt323.dll
 0001:0000e02a       ?qt_emit@QVBoxLayout@@UAE_NHPAUQUObject@@@Z 0040f02a f   qt-mt323:qt-mt323.dll
 0001:0000e030       ?qt_invoke@QAction@@UAE_NHPAUQUObject@@@Z 0040f030 f   qt-mt323:qt-mt323.dll
 0001:0000e036       ?qt_invoke@QCheckBox@@UAE_NHPAUQUObject@@@Z 0040f036 f   qt-mt323:qt-mt323.dll
 0001:0000e03c       ?qt_invoke@QFrame@@UAE_NHPAUQUObject@@@Z 0040f03c f   qt-mt323:qt-mt323.dll
 0001:0000e042       ?qt_invoke@QHBoxLayout@@UAE_NHPAUQUObject@@@Z 0040f042 f   qt-mt323:qt-mt323.dll
 0001:0000e048       ?qt_invoke@QLabel@@UAE_NHPAUQUObject@@@Z 0040f048 f   qt-mt323:qt-mt323.dll
 0001:0000e04e       ?qt_invoke@QPopupMenu@@UAE_NHPAUQUObject@@@Z 0040f04e f   qt-mt323:qt-mt323.dll
 0001:0000e054       ?qt_invoke@QPushButton@@UAE_NHPAUQUObject@@@Z 0040f054 f   qt-mt323:qt-mt323.dll
 0001:0000e05a       ?qt_invoke@QSpinBox@@UAE_NHPAUQUObject@@@Z 0040f05a f   qt-mt323:qt-mt323.dll
 0001:0000e060       ?qt_invoke@QToolBar@@UAE_NHPAUQUObject@@@Z 0040f060 f   qt-mt323:qt-mt323.dll
 0001:0000e066       ?qt_invoke@QVBoxLayout@@UAE_NHPAUQUObject@@@Z 0040f066 f   qt-mt323:qt-mt323.dll
 0001:0000e06c       ?qt_property@QAction@@UAE_NHHPAVQVariant@@@Z 0040f06c f   qt-mt323:qt-mt323.dll
 0001:0000e072       ?qt_property@QCheckBox@@UAE_NHHPAVQVariant@@@Z 0040f072 f   qt-mt323:qt-mt323.dll
 0001:0000e078       ?qt_property@QFrame@@UAE_NHHPAVQVariant@@@Z 0040f078 f   qt-mt323:qt-mt323.dll
 0001:0000e07e       ?qt_property@QHBoxLayout@@UAE_NHHPAVQVariant@@@Z 0040f07e f   qt-mt323:qt-mt323.dll
 0001:0000e084       ?qt_property@QLabel@@UAE_NHHPAVQVariant@@@Z 0040f084 f   qt-mt323:qt-mt323.dll
 0001:0000e08a       ?qt_property@QPopupMenu@@UAE_NHHPAVQVariant@@@Z 0040f08a f   qt-mt323:qt-mt323.dll
 0001:0000e090       ?qt_property@QPushButton@@UAE_NHHPAVQVariant@@@Z 0040f090 f   qt-mt323:qt-mt323.dll
 0001:0000e096       ?qt_property@QSpinBox@@UAE_NHHPAVQVariant@@@Z 0040f096 f   qt-mt323:qt-mt323.dll
 0001:0000e09c       ?qt_property@QToolBar@@UAE_NHHPAVQVariant@@@Z 0040f09c f   qt-mt323:qt-mt323.dll
 0001:0000e0a2       ?qt_property@QVBoxLayout@@UAE_NHHPAVQVariant@@@Z 0040f0a2 f   qt-mt323:qt-mt323.dll
 0001:0000e0a8       ?rangeChange@QSpinBox@@MAEXXZ 0040f0a8 f   qt-mt323:qt-mt323.dll
 0001:0000e0ae       ?removeChild@QObject@@UAEXPAV1@@Z 0040f0ae f   qt-mt323:qt-mt323.dll
 0001:0000e0b4       ?removeDockWindow@QMainWindow@@UAEXPAVQDockWindow@@@Z 0040f0b4 f   qt-mt323:qt-mt323.dll
 0001:0000e0ba       ?removeFrom@QAction@@UAE_NPAVQWidget@@@Z 0040f0ba f   qt-mt323:qt-mt323.dll
 0001:0000e0c0       ?reparent@QWidget@@UAEXPAV1@IABVQPoint@@_N@Z 0040f0c0 f   qt-mt323:qt-mt323.dll
 0001:0000e0c6       ?resize@QPushButton@@UAEXHH@Z 0040f0c6 f   qt-mt323:qt-mt323.dll
 0001:0000e0cc       ?resize@QWidget@@UAEXHH@Z  0040f0cc f   qt-mt323:qt-mt323.dll
 0001:0000e0d2       ?resizeEvent@QCheckBox@@MAEXPAVQResizeEvent@@@Z 0040f0d2 f   qt-mt323:qt-mt323.dll
 0001:0000e0d8       ?resizeEvent@QFrame@@MAEXPAVQResizeEvent@@@Z 0040f0d8 f   qt-mt323:qt-mt323.dll
 0001:0000e0de       ?resizeEvent@QLabel@@MAEXPAVQResizeEvent@@@Z 0040f0de f   qt-mt323:qt-mt323.dll
 0001:0000e0e4       ?resizeEvent@QPushButton@@MAEXPAVQResizeEvent@@@Z 0040f0e4 f   qt-mt323:qt-mt323.dll
 0001:0000e0ea       ?resizeEvent@QSpinBox@@MAEXPAVQResizeEvent@@@Z 0040f0ea f   qt-mt323:qt-mt323.dll
 0001:0000e0f0       ?resizeEvent@QToolBar@@MAEXPAVQResizeEvent@@@Z 0040f0f0 f   qt-mt323:qt-mt323.dll
 0001:0000e0f6       ?resizeEvent@QWidget@@MAEXPAVQResizeEvent@@@Z 0040f0f6 f   qt-mt323:qt-mt323.dll
 0001:0000e0fc       ?resolution@QPaintDevice@@UBEHXZ 0040f0fc f   qt-mt323:qt-mt323.dll
 0001:0000e102       ?selectAll@QSpinBox@@UAEXXZ 0040f102 f   qt-mt323:qt-mt323.dll
 0001:0000e108       ?setAccel@QAction@@UAEXABVQKeySequence@@@Z 0040f108 f   qt-mt323:qt-mt323.dll
 0001:0000e10e       ?setAccel@QButton@@UAEXABVQKeySequence@@@Z 0040f10e f   qt-mt323:qt-mt323.dll
 0001:0000e114       ?setAcceptDrops@QWidget@@UAEX_N@Z 0040f114 f   qt-mt323:qt-mt323.dll
 0001:0000e11a       ?setActiveItem@QPopupMenu@@UAEXH@Z 0040f11a f   qt-mt323:qt-mt323.dll
 0001:0000e120       ?setActiveWindow@QWidget@@UAEXXZ 0040f120 f   qt-mt323:qt-mt323.dll
 0001:0000e126       ?setAlignment@QLabel@@UAEXH@Z 0040f126 f   qt-mt323:qt-mt323.dll
 0001:0000e12c       ?setAlignment@QLayoutItem@@UAEXH@Z 0040f12c f   qt-mt323:qt-mt323.dll
 0001:0000e132       ?setAppropriate@QMainWindow@@UAEXPAVQDockWindow@@_N@Z 0040f132 f   qt-mt323:qt-mt323.dll
 0001:0000e138       ?setAutoAdd@QLayout@@UAEX_N@Z 0040f138 f   qt-mt323:qt-mt323.dll
 0001:0000e13e       ?setAutoDefault@QPushButton@@UAEX_N@Z 0040f13e f   qt-mt323:qt-mt323.dll
 0001:0000e144       ?setAutoMask@QWidget@@UAEX_N@Z 0040f144 f   qt-mt323:qt-mt323.dll
 0001:0000e14a       ?setAutoRepeat@QButton@@UAEX_N@Z 0040f14a f   qt-mt323:qt-mt323.dll
 0001:0000e150       ?setAutoResize@QLabel@@UAEX_N@Z 0040f150 f   qt-mt323:qt-mt323.dll
 0001:0000e156       ?setBackgroundColor@QWidget@@UAEXABVQColor@@@Z 0040f156 f   qt-mt323:qt-mt323.dll
 0001:0000e15c       ?setBackgroundMode@QWidget@@UAEXW4BackgroundMode@Qt@@@Z 0040f15c f   qt-mt323:qt-mt323.dll
 0001:0000e162       ?setBackgroundOrigin@QWidget@@UAEXW4BackgroundOrigin@1@@Z 0040f162 f   qt-mt323:qt-mt323.dll
 0001:0000e168       ?setBackgroundPixmap@QWidget@@UAEXABVQPixmap@@@Z 0040f168 f   qt-mt323:qt-mt323.dll
 0001:0000e16e       ?setBuddy@QLabel@@UAEXPAVQWidget@@@Z 0040f16e f   qt-mt323:qt-mt323.dll
 0001:0000e174       ?setButtonSymbols@QSpinBox@@UAEXW4ButtonSymbols@1@@Z 0040f174 f   qt-mt323:qt-mt323.dll
 0001:0000e17a       ?setCaption@QDockWindow@@UAEXABVQString@@@Z 0040f17a f   qt-mt323:qt-mt323.dll
 0001:0000e180       ?setCheckable@QPopupMenu@@UAEX_N@Z 0040f180 f   qt-mt323:qt-mt323.dll
 0001:0000e186       ?setCloseMode@QDockWindow@@UAEXH@Z 0040f186 f   qt-mt323:qt-mt323.dll
 0001:0000e18c       ?setCursor@QWidget@@UAEXABVQCursor@@@Z 0040f18c f   qt-mt323:qt-mt323.dll
 0001:0000e192       ?setDefault@QPushButton@@UAEX_N@Z 0040f192 f   qt-mt323:qt-mt323.dll
 0001:0000e198       ?setDockEnabled@QMainWindow@@UAEXPAVQDockWindow@@W4Dock@Qt@@_N@Z 0040f198 f   qt-mt323:qt-mt323.dll
 0001:0000e19e       ?setDockEnabled@QMainWindow@@UAEXW4Dock@Qt@@_N@Z 0040f19e f   qt-mt323:qt-mt323.dll
 0001:0000e1a4       ?setDockMenuEnabled@QMainWindow@@UAEX_N@Z 0040f1a4 f   qt-mt323:qt-mt323.dll
 0001:0000e1aa       ?setDockWindowsMovable@QMainWindow@@UAEX_N@Z 0040f1aa f   qt-mt323:qt-mt323.dll
 0001:0000e1b0       ?setDown@QButton@@UAEX_N@Z 0040f1b0 f   qt-mt323:qt-mt323.dll
 0001:0000e1b6       ?setEnabled@QAction@@UAEX_N@Z 0040f1b6 f   qt-mt323:qt-mt323.dll
 0001:0000e1bc       ?setEnabled@QSpinBox@@UAEX_N@Z 0040f1bc f   qt-mt323:qt-mt323.dll
 0001:0000e1c2       ?setEnabled@QWidget@@UAEX_N@Z 0040f1c2 f   qt-mt323:qt-mt323.dll
 0001:0000e1c8       ?setEraseColor@QWidget@@UAEXABVQColor@@@Z 0040f1c8 f   qt-mt323:qt-mt323.dll
 0001:0000e1ce       ?setErasePixmap@QWidget@@UAEXABVQPixmap@@@Z 0040f1ce f   qt-mt323:qt-mt323.dll
 0001:0000e1d4       ?setFirstItemActive@QPopupMenu@@EAEXXZ 0040f1d4 f   qt-mt323:qt-mt323.dll
 0001:0000e1da       ?setFixedExtentHeight@QDockWindow@@UAEXH@Z 0040f1da f   qt-mt323:qt-mt323.dll
 0001:0000e1e0       ?setFixedExtentWidth@QDockWindow@@UAEXH@Z 0040f1e0 f   qt-mt323:qt-mt323.dll
 0001:0000e1e6       ?setFocus@QWidget@@UAEXXZ  0040f1e6 f   qt-mt323:qt-mt323.dll
 0001:0000e1ec       ?setFocusPolicy@QWidget@@UAEXW4FocusPolicy@1@@Z 0040f1ec f   qt-mt323:qt-mt323.dll
 0001:0000e1f2       ?setFocusProxy@QWidget@@UAEXPAV1@@Z 0040f1f2 f   qt-mt323:qt-mt323.dll
 0001:0000e1f8       ?setFont@QLabel@@UAEXABVQFont@@@Z 0040f1f8 f   qt-mt323:qt-mt323.dll
 0001:0000e1fe       ?setFont@QPopupMenu@@UAEXABVQFont@@@Z 0040f1fe f   qt-mt323:qt-mt323.dll
 0001:0000e204       ?setFont@QWidget@@UAEXABVQFont@@@Z 0040f204 f   qt-mt323:qt-mt323.dll
 0001:0000e20a       ?setFrameRect@QFrame@@UAEXABVQRect@@@Z 0040f20a f   qt-mt323:qt-mt323.dll
 0001:0000e210       ?setFrameStyle@QFrame@@UAEXH@Z 0040f210 f   qt-mt323:qt-mt323.dll
 0001:0000e216       ?setGeometry@QBoxLayout@@UAEXABVQRect@@@Z 0040f216 f   qt-mt323:qt-mt323.dll
 0001:0000e21c       ?setGeometry@QPushButton@@UAEXABVQRect@@@Z 0040f21c f   qt-mt323:qt-mt323.dll
 0001:0000e222       ?setGeometry@QPushButton@@UAEXHHHH@Z 0040f222 f   qt-mt323:qt-mt323.dll
 0001:0000e228       ?setGeometry@QSpacerItem@@UAEXABVQRect@@@Z 0040f228 f   qt-mt323:qt-mt323.dll
 0001:0000e22e       ?setGeometry@QWidget@@UAEXABVQRect@@@Z 0040f22e f   qt-mt323:qt-mt323.dll
 0001:0000e234       ?setGeometry@QWidget@@UAEXHHHH@Z 0040f234 f   qt-mt323:qt-mt323.dll
 0001:0000e23a       ?setGroup@QButton@@EAEXPAVQButtonGroup@@@Z 0040f23a f   qt-mt323:qt-mt323.dll
 0001:0000e240       ?setHorizontallyStretchable@QDockWindow@@UAEX_N@Z 0040f240 f   qt-mt323:qt-mt323.dll
 0001:0000e246       ?setIconSet@QAction@@UAEXABVQIconSet@@@Z 0040f246 f   qt-mt323:qt-mt323.dll
 0001:0000e24c       ?setIconText@QWidget@@UAEXABVQString@@@Z 0040f24c f   qt-mt323:qt-mt323.dll
 0001:0000e252       ?setId@QMenuData@@UAEXHH@Z 0040f252 f   qt-mt323:qt-mt323.dll
 0001:0000e258       ?setIsMenuButton@QPushButton@@UAEX_N@Z 0040f258 f   qt-mt323:qt-mt323.dll
 0001:0000e25e       ?setKeyCompression@QWidget@@MAEX_N@Z 0040f25e f   qt-mt323:qt-mt323.dll
 0001:0000e264       ?setLabel@QToolBar@@UAEXABVQString@@@Z 0040f264 f   qt-mt323:qt-mt323.dll
 0001:0000e26a       ?setLineWidth@QFrame@@UAEXH@Z 0040f26a f   qt-mt323:qt-mt323.dll
 0001:0000e270       ?setMargin@QFrame@@UAEXH@Z 0040f270 f   qt-mt323:qt-mt323.dll
 0001:0000e276       ?setMargin@QLayout@@UAEXH@Z 0040f276 f   qt-mt323:qt-mt323.dll
 0001:0000e27c       ?setMask@QWidget@@UAEXABVQBitmap@@@Z 0040f27c f   qt-mt323:qt-mt323.dll
 0001:0000e282       ?setMask@QWidget@@UAEXABVQRegion@@@Z 0040f282 f   qt-mt323:qt-mt323.dll
 0001:0000e288       ?setMaximumSize@QWidget@@UAEXHH@Z 0040f288 f   qt-mt323:qt-mt323.dll
 0001:0000e28e       ?setMenuBar@QLayout@@UAEXPAVQMenuBar@@@Z 0040f28e f   qt-mt323:qt-mt323.dll
 0001:0000e294       ?setMenuBar@QMainWindow@@EAEXPAVQMenuBar@@@Z 0040f294 f   qt-mt323:qt-mt323.dll
 0001:0000e29a       ?setMenuText@QAction@@UAEXABVQString@@@Z 0040f29a f   qt-mt323:qt-mt323.dll
 0001:0000e2a0       ?setMicroFocusHint@QWidget@@MAEXHHHH_NPAVQFont@@@Z 0040f2a0 f   qt-mt323:qt-mt323.dll
 0001:0000e2a6       ?setMidLineWidth@QFrame@@UAEXH@Z 0040f2a6 f   qt-mt323:qt-mt323.dll
 0001:0000e2ac       ?setMinimumSize@QToolBar@@UAEXHH@Z 0040f2ac f   qt-mt323:qt-mt323.dll
 0001:0000e2b2       ?setMinimumSize@QWidget@@UAEXHH@Z 0040f2b2 f   qt-mt323:qt-mt323.dll
 0001:0000e2b8       ?setMouseTracking@QWidget@@UAEX_N@Z 0040f2b8 f   qt-mt323:qt-mt323.dll
 0001:0000e2be       ?setMovie@QLabel@@UAEXABVQMovie@@@Z 0040f2be f   qt-mt323:qt-mt323.dll
 0001:0000e2c4       ?setMovingEnabled@QDockWindow@@UAEX_N@Z 0040f2c4 f   qt-mt323:qt-mt323.dll
 0001:0000e2ca       ?setName@QObject@@UAEXPBD@Z 0040f2ca f   qt-mt323:qt-mt323.dll
 0001:0000e2d0       ?setName@QWidget@@UAEXPBD@Z 0040f2d0 f   qt-mt323:qt-mt323.dll
 0001:0000e2d6       ?setNewLine@QDockWindow@@UAEX_N@Z 0040f2d6 f   qt-mt323:qt-mt323.dll
 0001:0000e2dc       ?setNum@QLabel@@UAEXH@Z    0040f2dc f   qt-mt323:qt-mt323.dll
 0001:0000e2e2       ?setNum@QLabel@@UAEXN@Z    0040f2e2 f   qt-mt323:qt-mt323.dll
 0001:0000e2e8       ?setOffset@QDockWindow@@UAEXH@Z 0040f2e8 f   qt-mt323:qt-mt323.dll
 0001:0000e2ee       ?setOn@QAction@@UAEX_N@Z   0040f2ee f   qt-mt323:qt-mt323.dll
 0001:0000e2f4       ?setOn@QPushButton@@UAEX_N@Z 0040f2f4 f   qt-mt323:qt-mt323.dll
 0001:0000e2fa       ?setOpaqueMoving@QDockWindow@@UAEX_N@Z 0040f2fa f   qt-mt323:qt-mt323.dll
 0001:0000e300       ?setOpaqueMoving@QMainWindow@@UAEX_N@Z 0040f300 f   qt-mt323:qt-mt323.dll
 0001:0000e306       ?setOrientation@QToolBar@@UAEXW4Orientation@Qt@@@Z 0040f306 f   qt-mt323:qt-mt323.dll
 0001:0000e30c       ?setPalette@QWidget@@UAEXABVQPalette@@@Z 0040f30c f   qt-mt323:qt-mt323.dll
 0001:0000e312       ?setPaletteBackgroundColor@QWidget@@UAEXABVQColor@@@Z 0040f312 f   qt-mt323:qt-mt323.dll
 0001:0000e318       ?setPaletteBackgroundPixmap@QWidget@@UAEXABVQPixmap@@@Z 0040f318 f   qt-mt323:qt-mt323.dll
 0001:0000e31e       ?setPicture@QLabel@@UAEXABVQPicture@@@Z 0040f31e f   qt-mt323:qt-mt323.dll
 0001:0000e324       ?setPixmap@QButton@@UAEXABVQPixmap@@@Z 0040f324 f   qt-mt323:qt-mt323.dll
 0001:0000e32a       ?setPixmap@QLabel@@UAEXABVQPixmap@@@Z 0040f32a f   qt-mt323:qt-mt323.dll
 0001:0000e330       ?setPrefix@QSpinBox@@UAEXABVQString@@@Z 0040f330 f   qt-mt323:qt-mt323.dll
 0001:0000e336       ?setProperty@QObject@@UAE_NPBDABVQVariant@@@Z 0040f336 f   qt-mt323:qt-mt323.dll
 0001:0000e33c       ?setResizeEnabled@QDockWindow@@UAEX_N@Z 0040f33c f   qt-mt323:qt-mt323.dll
 0001:0000e342       ?setResolution@QPaintDevice@@UAEXH@Z 0040f342 f   qt-mt323:qt-mt323.dll
 0001:0000e348       ?setRightJustification@QMainWindow@@UAEX_N@Z 0040f348 f   qt-mt323:qt-mt323.dll
 0001:0000e34e       ?setSizeIncrement@QWidget@@UAEXHH@Z 0040f34e f   qt-mt323:qt-mt323.dll
 0001:0000e354       ?setSizePolicy@QWidget@@UAEXVQSizePolicy@@@Z 0040f354 f   qt-mt323:qt-mt323.dll
 0001:0000e35a       ?setSpacing@QLayout@@UAEXH@Z 0040f35a f   qt-mt323:qt-mt323.dll
 0001:0000e360       ?setSpecialValueText@QSpinBox@@UAEXABVQString@@@Z 0040f360 f   qt-mt323:qt-mt323.dll
 0001:0000e366       ?setState@QButton@@MAEXW4ToggleState@1@@Z 0040f366 f   qt-mt323:qt-mt323.dll
 0001:0000e36c       ?setStatusBar@QMainWindow@@EAEXPAVQStatusBar@@@Z 0040f36c f   qt-mt323:qt-mt323.dll
 0001:0000e372       ?setStatusTip@QAction@@UAEXABVQString@@@Z 0040f372 f   qt-mt323:qt-mt323.dll
 0001:0000e378       ?setStretchableWidget@QToolBar@@UAEXPAVQWidget@@@Z 0040f378 f   qt-mt323:qt-mt323.dll
 0001:0000e37e       ?setSuffix@QSpinBox@@UAEXABVQString@@@Z 0040f37e f   qt-mt323:qt-mt323.dll
 0001:0000e384       ?setText@QAction@@UAEXABVQString@@@Z 0040f384 f   qt-mt323:qt-mt323.dll
 0001:0000e38a       ?setText@QButton@@UAEXABVQString@@@Z 0040f38a f   qt-mt323:qt-mt323.dll
 0001:0000e390       ?setText@QLabel@@UAEXABVQString@@@Z 0040f390 f   qt-mt323:qt-mt323.dll
 0001:0000e396       ?setToggleAction@QAction@@UAEX_N@Z 0040f396 f   qt-mt323:qt-mt323.dll
 0001:0000e39c       ?setToggleType@QButton@@MAEXW4ToggleType@1@@Z 0040f39c f   qt-mt323:qt-mt323.dll
 0001:0000e3a2       ?setToolTip@QAction@@UAEXABVQString@@@Z 0040f3a2 f   qt-mt323:qt-mt323.dll
 0001:0000e3a8       ?setToolTipGroup@QMainWindow@@EAEXPAVQToolTipGroup@@@Z 0040f3a8 f   qt-mt323:qt-mt323.dll
 0001:0000e3ae       ?setUpLayout@QMainWindow@@MAEXXZ 0040f3ae f   qt-mt323:qt-mt323.dll
 0001:0000e3b4       ?setUpdatesEnabled@QWidget@@UAEX_N@Z 0040f3b4 f   qt-mt323:qt-mt323.dll
 0001:0000e3ba       ?setUsesBigPixmaps@QMainWindow@@UAEX_N@Z 0040f3ba f   qt-mt323:qt-mt323.dll
 0001:0000e3c0       ?setUsesTextLabel@QMainWindow@@UAEX_N@Z 0040f3c0 f   qt-mt323:qt-mt323.dll
 0001:0000e3c6       ?setValidator@QSpinBox@@UAEXPBVQValidator@@@Z 0040f3c6 f   qt-mt323:qt-mt323.dll
 0001:0000e3cc       ?setValue@QSpinBox@@UAEXH@Z 0040f3cc f   qt-mt323:qt-mt323.dll
 0001:0000e3d2       ?setVerticallyStretchable@QDockWindow@@UAEX_N@Z 0040f3d2 f   qt-mt323:qt-mt323.dll
 0001:0000e3d8       ?setWFlags@QWidget@@MAEXI@Z 0040f3d8 f   qt-mt323:qt-mt323.dll
 0001:0000e3de       ?setWState@QWidget@@MAEXI@Z 0040f3de f   qt-mt323:qt-mt323.dll
 0001:0000e3e4       ?setWhatsThis@QAction@@UAEXABVQString@@@Z 0040f3e4 f   qt-mt323:qt-mt323.dll
 0001:0000e3ea       ?setWidget@QDockWindow@@UAEXPAVQWidget@@@Z 0040f3ea f   qt-mt323:qt-mt323.dll
 0001:0000e3f0       ?setWrapping@QSpinBox@@UAEX_N@Z 0040f3f0 f   qt-mt323:qt-mt323.dll
 0001:0000e3f6       ?show@QMainWindow@@UAEXXZ  0040f3f6 f   qt-mt323:qt-mt323.dll
 0001:0000e3fc       ?show@QPopupMenu@@UAEXXZ   0040f3fc f   qt-mt323:qt-mt323.dll
 0001:0000e402       ?show@QToolBar@@UAEXXZ     0040f402 f   qt-mt323:qt-mt323.dll
 0001:0000e408       ?show@QWidget@@UAEXXZ      0040f408 f   qt-mt323:qt-mt323.dll
 0001:0000e40e       ?showDockMenu@QMainWindow@@MAE_NABVQPoint@@@Z 0040f40e f   qt-mt323:qt-mt323.dll
 0001:0000e414       ?showEvent@QDockWindow@@MAEXPAVQShowEvent@@@Z 0040f414 f   qt-mt323:qt-mt323.dll
 0001:0000e41a       ?showEvent@QWidget@@MAEXPAVQShowEvent@@@Z 0040f41a f   qt-mt323:qt-mt323.dll
 0001:0000e420       ?showMaximized@QWidget@@UAEXXZ 0040f420 f   qt-mt323:qt-mt323.dll
 0001:0000e426       ?showMinimized@QWidget@@UAEXXZ 0040f426 f   qt-mt323:qt-mt323.dll
 0001:0000e42c       ?showNormal@QWidget@@UAEXXZ 0040f42c f   qt-mt323:qt-mt323.dll
 0001:0000e432       ?sizeHint@QBoxLayout@@UBE?AVQSize@@XZ 0040f432 f   qt-mt323:qt-mt323.dll
 0001:0000e438       ?sizeHint@QCheckBox@@UBE?AVQSize@@XZ 0040f438 f   qt-mt323:qt-mt323.dll
 0001:0000e43e       ?sizeHint@QDockWindow@@UBE?AVQSize@@XZ 0040f43e f   qt-mt323:qt-mt323.dll
 0001:0000e444       ?sizeHint@QFrame@@UBE?AVQSize@@XZ 0040f444 f   qt-mt323:qt-mt323.dll
 0001:0000e44a       ?sizeHint@QLabel@@UBE?AVQSize@@XZ 0040f44a f   qt-mt323:qt-mt323.dll
 0001:0000e450       ?sizeHint@QMainWindow@@UBE?AVQSize@@XZ 0040f450 f   qt-mt323:qt-mt323.dll
 0001:0000e456       ?sizeHint@QPopupMenu@@UBE?AVQSize@@XZ 0040f456 f   qt-mt323:qt-mt323.dll
 0001:0000e45c       ?sizeHint@QPushButton@@UBE?AVQSize@@XZ 0040f45c f   qt-mt323:qt-mt323.dll
 0001:0000e462       ?sizeHint@QSpacerItem@@UBE?AVQSize@@XZ 0040f462 f   qt-mt323:qt-mt323.dll
 0001:0000e468       ?sizeHint@QSpinBox@@UBE?AVQSize@@XZ 0040f468 f   qt-mt323:qt-mt323.dll
 0001:0000e46e       ?sizePolicy@QWidget@@UBE?AVQSizePolicy@@XZ 0040f46e f   qt-mt323:qt-mt323.dll
 0001:0000e474       ?spacerItem@QLayoutItem@@UAEPAVQSpacerItem@@XZ 0040f474 f   qt-mt323:qt-mt323.dll
 0001:0000e47a       ?spacerItem@QSpacerItem@@UAEPAV1@XZ 0040f47a f   qt-mt323:qt-mt323.dll
 0001:0000e480       ?stepChange@QRangeControl@@MAEXXZ 0040f480 f   qt-mt323:qt-mt323.dll
 0001:0000e486       ?stepDown@QSpinBox@@UAEXXZ 0040f486 f   qt-mt323:qt-mt323.dll
 0001:0000e48c       ?stepUp@QSpinBox@@UAEXXZ   0040f48c f   qt-mt323:qt-mt323.dll
 0001:0000e492       ?styleChange@QFrame@@MAEXAAVQStyle@@@Z 0040f492 f   qt-mt323:qt-mt323.dll
 0001:0000e498       ?styleChange@QMainWindow@@MAEXAAVQStyle@@@Z 0040f498 f   qt-mt323:qt-mt323.dll
 0001:0000e49e       ?styleChange@QPopupMenu@@MAEXAAVQStyle@@@Z 0040f49e f   qt-mt323:qt-mt323.dll
 0001:0000e4a4       ?styleChange@QSpinBox@@MAEXAAVQStyle@@@Z 0040f4a4 f   qt-mt323:qt-mt323.dll
 0001:0000e4aa       ?styleChange@QToolBar@@MAEXAAVQStyle@@@Z 0040f4aa f   qt-mt323:qt-mt323.dll
 0001:0000e4b0       ?styleChange@QWidget@@MAEXAAVQStyle@@@Z 0040f4b0 f   qt-mt323:qt-mt323.dll
 0001:0000e4b6       ?suffix@QSpinBox@@UBE?AVQString@@XZ 0040f4b6 f   qt-mt323:qt-mt323.dll
 0001:0000e4bc       ?tabletEvent@QWidget@@MAEXPAVQTabletEvent@@@Z 0040f4bc f   qt-mt323:qt-mt323.dll
 0001:0000e4c2       ?timerEvent@QObject@@MAEXPAVQTimerEvent@@@Z 0040f4c2 f   qt-mt323:qt-mt323.dll
 0001:0000e4c8       ?timerEvent@QPopupMenu@@MAEXPAVQTimerEvent@@@Z 0040f4c8 f   qt-mt323:qt-mt323.dll
 0001:0000e4ce       ?undock@QDockWindow@@UAEXPAVQWidget@@@Z 0040f4ce f   qt-mt323:qt-mt323.dll
 0001:0000e4d4       ?undock@QDockWindow@@UAEXXZ 0040f4d4 f   qt-mt323:qt-mt323.dll
 0001:0000e4da       ?unsetCursor@QWidget@@UAEXXZ 0040f4da f   qt-mt323:qt-mt323.dll
 0001:0000e4e0       ?updateDisplay@QSpinBox@@MAEXXZ 0040f4e0 f   qt-mt323:qt-mt323.dll
 0001:0000e4e6       ?updateItem@QPopupMenu@@UAEXH@Z 0040f4e6 f   qt-mt323:qt-mt323.dll
 0001:0000e4ec       ?updateMask@QCheckBox@@MAEXXZ 0040f4ec f   qt-mt323:qt-mt323.dll
 0001:0000e4f2       ?updateMask@QPushButton@@MAEXXZ 0040f4f2 f   qt-mt323:qt-mt323.dll
 0001:0000e4f8       ?updateMask@QWidget@@MAEXXZ 0040f4f8 f   qt-mt323:qt-mt323.dll
 0001:0000e4fe       ?valueChange@QSpinBox@@MAEXXZ 0040f4fe f   qt-mt323:qt-mt323.dll
 0001:0000e504       ?whatsThis@QMainWindow@@UAEXXZ 0040f504 f   qt-mt323:qt-mt323.dll
 0001:0000e50a       ?wheelEvent@QSpinBox@@MAEXPAVQWheelEvent@@@Z 0040f50a f   qt-mt323:qt-mt323.dll
 0001:0000e510       ?wheelEvent@QWidget@@MAEXPAVQWheelEvent@@@Z 0040f510 f   qt-mt323:qt-mt323.dll
 0001:0000e516       ?widget@QLayoutItem@@UAEPAVQWidget@@XZ 0040f516 f   qt-mt323:qt-mt323.dll
 0001:0000e51c       ?winEvent@QWidget@@MAE_NPAUtagMSG@@@Z 0040f51c f   qt-mt323:qt-mt323.dll
 0001:0000e522       ?windowActivationChange@QWidget@@MAEX_N@Z 0040f522 f   qt-mt323:qt-mt323.dll
 0001:0000e528       ?keyPressEvent@QLineEdit@@MAEXPAVQKeyEvent@@@Z 0040f528 f   qt-mt323:qt-mt323.dll
 0001:0000e52e       ?clear@QLineEdit@@UAEXXZ   0040f52e f   qt-mt323:qt-mt323.dll
 0001:0000e534       ?clearValidator@QLineEdit@@UAEXXZ 0040f534 f   qt-mt323:qt-mt323.dll
 0001:0000e53a       ?contextMenuEvent@QLineEdit@@MAEXPAVQContextMenuEvent@@@Z 0040f53a f   qt-mt323:qt-mt323.dll
 0001:0000e540       ?copy@QLineEdit@@UBEXXZ    0040f540 f   qt-mt323:qt-mt323.dll
 0001:0000e546       ?createPopupMenu@QLineEdit@@MAEPAVQPopupMenu@@XZ 0040f546 f   qt-mt323:qt-mt323.dll
 0001:0000e54c       ?cut@QLineEdit@@UAEXXZ     0040f54c f   qt-mt323:qt-mt323.dll
 0001:0000e552       ?deselect@QLineEdit@@UAEXXZ 0040f552 f   qt-mt323:qt-mt323.dll
 0001:0000e558       ?dragEnterEvent@QLineEdit@@MAEXPAVQDragEnterEvent@@@Z 0040f558 f   qt-mt323:qt-mt323.dll
 0001:0000e55e       ?dragLeaveEvent@QLineEdit@@MAEXPAVQDragLeaveEvent@@@Z 0040f55e f   qt-mt323:qt-mt323.dll
 0001:0000e564       ?dragMoveEvent@QLineEdit@@MAEXPAVQDragMoveEvent@@@Z 0040f564 f   qt-mt323:qt-mt323.dll
 0001:0000e56a       ?drawContents@QLineEdit@@MAEXPAVQPainter@@@Z 0040f56a f   qt-mt323:qt-mt323.dll
 0001:0000e570       ?dropEvent@QLineEdit@@MAEXPAVQDropEvent@@@Z 0040f570 f   qt-mt323:qt-mt323.dll
 0001:0000e576       ?event@QLineEdit@@MAE_NPAVQEvent@@@Z 0040f576 f   qt-mt323:qt-mt323.dll
 0001:0000e57c       ?focusInEvent@QLineEdit@@MAEXPAVQFocusEvent@@@Z 0040f57c f   qt-mt323:qt-mt323.dll
 0001:0000e582       ?focusOutEvent@QLineEdit@@MAEXPAVQFocusEvent@@@Z 0040f582 f   qt-mt323:qt-mt323.dll
 0001:0000e588       ?imComposeEvent@QLineEdit@@MAEXPAVQIMEvent@@@Z 0040f588 f   qt-mt323:qt-mt323.dll
 0001:0000e58e       ?imEndEvent@QLineEdit@@MAEXPAVQIMEvent@@@Z 0040f58e f   qt-mt323:qt-mt323.dll
 0001:0000e594       ?imStartEvent@QLineEdit@@MAEXPAVQIMEvent@@@Z 0040f594 f   qt-mt323:qt-mt323.dll
 0001:0000e59a       ?insert@QLineEdit@@UAEXABVQString@@@Z 0040f59a f   qt-mt323:qt-mt323.dll
 0001:0000e5a0       ?minimumSizeHint@QLineEdit@@UBE?AVQSize@@XZ 0040f5a0 f   qt-mt323:qt-mt323.dll
 0001:0000e5a6       ?mouseDoubleClickEvent@QLineEdit@@MAEXPAVQMouseEvent@@@Z 0040f5a6 f   qt-mt323:qt-mt323.dll
 0001:0000e5ac       ?mouseMoveEvent@QLineEdit@@MAEXPAVQMouseEvent@@@Z 0040f5ac f   qt-mt323:qt-mt323.dll
 0001:0000e5b2       ?mousePressEvent@QLineEdit@@MAEXPAVQMouseEvent@@@Z 0040f5b2 f   qt-mt323:qt-mt323.dll
 0001:0000e5b8       ?mouseReleaseEvent@QLineEdit@@MAEXPAVQMouseEvent@@@Z 0040f5b8 f   qt-mt323:qt-mt323.dll
 0001:0000e5be       ?paste@QLineEdit@@UAEXXZ   0040f5be f   qt-mt323:qt-mt323.dll
 0001:0000e5c4       ?redo@QLineEdit@@UAEXXZ    0040f5c4 f   qt-mt323:qt-mt323.dll
 0001:0000e5ca       ?resizeEvent@QLineEdit@@MAEXPAVQResizeEvent@@@Z 0040f5ca f   qt-mt323:qt-mt323.dll
 0001:0000e5d0       ?selectAll@QLineEdit@@UAEXXZ 0040f5d0 f   qt-mt323:qt-mt323.dll
 0001:0000e5d6       ?setAlignment@QLineEdit@@UAEXH@Z 0040f5d6 f   qt-mt323:qt-mt323.dll
 0001:0000e5dc       ?setCursorPosition@QLineEdit@@UAEXH@Z 0040f5dc f   qt-mt323:qt-mt323.dll
 0001:0000e5e2       ?setDragEnabled@QLineEdit@@UAEX_N@Z 0040f5e2 f   qt-mt323:qt-mt323.dll
 0001:0000e5e8       ?setEchoMode@QLineEdit@@UAEXW4EchoMode@1@@Z 0040f5e8 f   qt-mt323:qt-mt323.dll
 0001:0000e5ee       ?setFont@QLineEdit@@UAEXABVQFont@@@Z 0040f5ee f   qt-mt323:qt-mt323.dll
 0001:0000e5f4       ?setFrame@QLineEdit@@UAEX_N@Z 0040f5f4 f   qt-mt323:qt-mt323.dll
 0001:0000e5fa       ?setMaxLength@QLineEdit@@UAEXH@Z 0040f5fa f   qt-mt323:qt-mt323.dll
 0001:0000e600       ?setPalette@QLineEdit@@UAEXABVQPalette@@@Z 0040f600 f   qt-mt323:qt-mt323.dll
 0001:0000e606       ?setReadOnly@QLineEdit@@UAEX_N@Z 0040f606 f   qt-mt323:qt-mt323.dll
 0001:0000e60c       ?setSelection@QLineEdit@@UAEXHH@Z 0040f60c f   qt-mt323:qt-mt323.dll
 0001:0000e612       ?setText@QLineEdit@@UAEXABVQString@@@Z 0040f612 f   qt-mt323:qt-mt323.dll
 0001:0000e618       ?setValidator@QLineEdit@@UAEXPBVQValidator@@@Z 0040f618 f   qt-mt323:qt-mt323.dll
 0001:0000e61e       ?sizeHint@QLineEdit@@UBE?AVQSize@@XZ 0040f61e f   qt-mt323:qt-mt323.dll
 0001:0000e624       ?undo@QLineEdit@@UAEXXZ    0040f624 f   qt-mt323:qt-mt323.dll
 0001:0000e62a       ?windowActivationChange@QLineEdit@@MAEX_N@Z 0040f62a f   qt-mt323:qt-mt323.dll
 0001:0000e630       ?compareItems@QGList@@MAEHPAX0@Z 0040f630 f   qt-mt323:qt-mt323.dll
 0001:0000e636       ?newItem@QPtrCollection@@MAEPAXPAX@Z 0040f636 f   qt-mt323:qt-mt323.dll
 0001:0000e63c       ?read@QGList@@MAEAAVQDataStream@@AAV2@AAPAX@Z 0040f63c f   qt-mt323:qt-mt323.dll
 0001:0000e642       ?sizeHint@QWidget@@UBE?AVQSize@@XZ 0040f642 f   qt-mt323:qt-mt323.dll
 0001:0000e648       ?write@QGList@@MBEAAVQDataStream@@AAV2@PAX@Z 0040f648 f   qt-mt323:qt-mt323.dll
 0001:0000e64e       ?qt_cast@QLineEdit@@UAEPAXPBD@Z 0040f64e f   qt-mt323:qt-mt323.dll
 0001:0000e654       ?qt_invoke@QLineEdit@@UAE_NHPAUQUObject@@@Z 0040f654 f   qt-mt323:qt-mt323.dll
 0001:0000e65a       ?qt_emit@QLineEdit@@UAE_NHPAUQUObject@@@Z 0040f65a f   qt-mt323:qt-mt323.dll
 0001:0000e660       ?qt_property@QLineEdit@@UAE_NHHPAVQVariant@@@Z 0040f660 f   qt-mt323:qt-mt323.dll
 0001:0000e666       ?addChild@QScrollView@@UAEXPAVQWidget@@HH@Z 0040f666 f   qt-mt323:qt-mt323.dll
 0001:0000e66c       ?addItem@QGridLayout@@UAEXPAVQLayoutItem@@@Z 0040f66c f   qt-mt323:qt-mt323.dll
 0001:0000e672       ?append@QTextEdit@@UAEXABVQString@@@Z 0040f672 f   qt-mt323:qt-mt323.dll
 0001:0000e678       ?childEvent@QGroupBox@@MAEXPAVQChildEvent@@@Z 0040f678 f   qt-mt323:qt-mt323.dll
 0001:0000e67e       ?className@QGridLayout@@UBEPBDXZ 0040f67e f   qt-mt323:qt-mt323.dll
 0001:0000e684       ?className@QGroupBox@@UBEPBDXZ 0040f684 f   qt-mt323:qt-mt323.dll
 0001:0000e68a       ?className@QLineEdit@@UBEPBDXZ 0040f68a f   qt-mt323:qt-mt323.dll
 0001:0000e690       ?className@QListBox@@UBEPBDXZ 0040f690 f   qt-mt323:qt-mt323.dll
 0001:0000e696       ?className@QTextEdit@@UBEPBDXZ 0040f696 f   qt-mt323:qt-mt323.dll
 0001:0000e69c       ?clear@QTextEdit@@UAEXXZ   0040f69c f   qt-mt323:qt-mt323.dll
 0001:0000e6a2       ?clearParagraphBackground@QTextEdit@@UAEXH@Z 0040f6a2 f   qt-mt323:qt-mt323.dll
 0001:0000e6a8       ?clearSelection@QListBox@@UAEXXZ 0040f6a8 f   qt-mt323:qt-mt323.dll
 0001:0000e6ae       ?contentsContextMenuEvent@QListBox@@MAEXPAVQContextMenuEvent@@@Z 0040f6ae f   qt-mt323:qt-mt323.dll
 0001:0000e6b4       ?contentsContextMenuEvent@QTextEdit@@MAEXPAVQContextMenuEvent@@@Z 0040f6b4 f   qt-mt323:qt-mt323.dll
 0001:0000e6ba       ?contentsDragEnterEvent@QScrollView@@MAEXPAVQDragEnterEvent@@@Z 0040f6ba f   qt-mt323:qt-mt323.dll
 0001:0000e6c0       ?contentsDragEnterEvent@QTextEdit@@MAEXPAVQDragEnterEvent@@@Z 0040f6c0 f   qt-mt323:qt-mt323.dll
 0001:0000e6c6       ?contentsDragLeaveEvent@QScrollView@@MAEXPAVQDragLeaveEvent@@@Z 0040f6c6 f   qt-mt323:qt-mt323.dll
 0001:0000e6cc       ?contentsDragLeaveEvent@QTextEdit@@MAEXPAVQDragLeaveEvent@@@Z 0040f6cc f   qt-mt323:qt-mt323.dll
 0001:0000e6d2       ?contentsDragMoveEvent@QScrollView@@MAEXPAVQDragMoveEvent@@@Z 0040f6d2 f   qt-mt323:qt-mt323.dll
 0001:0000e6d8       ?contentsDragMoveEvent@QTextEdit@@MAEXPAVQDragMoveEvent@@@Z 0040f6d8 f   qt-mt323:qt-mt323.dll
 0001:0000e6de       ?contentsDropEvent@QScrollView@@MAEXPAVQDropEvent@@@Z 0040f6de f   qt-mt323:qt-mt323.dll
 0001:0000e6e4       ?contentsDropEvent@QTextEdit@@MAEXPAVQDropEvent@@@Z 0040f6e4 f   qt-mt323:qt-mt323.dll
 0001:0000e6ea       ?contentsMouseDoubleClickEvent@QScrollView@@MAEXPAVQMouseEvent@@@Z 0040f6ea f   qt-mt323:qt-mt323.dll
 0001:0000e6f0       ?contentsMouseDoubleClickEvent@QTextEdit@@MAEXPAVQMouseEvent@@@Z 0040f6f0 f   qt-mt323:qt-mt323.dll
 0001:0000e6f6       ?contentsMouseMoveEvent@QScrollView@@MAEXPAVQMouseEvent@@@Z 0040f6f6 f   qt-mt323:qt-mt323.dll
 0001:0000e6fc       ?contentsMouseMoveEvent@QTextEdit@@MAEXPAVQMouseEvent@@@Z 0040f6fc f   qt-mt323:qt-mt323.dll
 0001:0000e702       ?contentsMousePressEvent@QScrollView@@MAEXPAVQMouseEvent@@@Z 0040f702 f   qt-mt323:qt-mt323.dll
 0001:0000e708       ?contentsMousePressEvent@QTextEdit@@MAEXPAVQMouseEvent@@@Z 0040f708 f   qt-mt323:qt-mt323.dll
 0001:0000e70e       ?contentsMouseReleaseEvent@QScrollView@@MAEXPAVQMouseEvent@@@Z 0040f70e f   qt-mt323:qt-mt323.dll
 0001:0000e714       ?contentsMouseReleaseEvent@QTextEdit@@MAEXPAVQMouseEvent@@@Z 0040f714 f   qt-mt323:qt-mt323.dll
 0001:0000e71a       ?contentsWheelEvent@QScrollView@@MAEXPAVQWheelEvent@@@Z 0040f71a f   qt-mt323:qt-mt323.dll
 0001:0000e720       ?contentsWheelEvent@QTextEdit@@MAEXPAVQWheelEvent@@@Z 0040f720 f   qt-mt323:qt-mt323.dll
 0001:0000e726       ?contextMenuEvent@QScrollView@@MAEXPAVQContextMenuEvent@@@Z 0040f726 f   qt-mt323:qt-mt323.dll
 0001:0000e72c       ?copy@QTextEdit@@UAEXXZ    0040f72c f   qt-mt323:qt-mt323.dll
 0001:0000e732       ?createPopupMenu@QTextEdit@@MAEPAVQPopupMenu@@ABVQPoint@@@Z 0040f732 f   qt-mt323:qt-mt323.dll
 0001:0000e738       ?createPopupMenu@QTextEdit@@MAEPAVQPopupMenu@@XZ 0040f738 f   qt-mt323:qt-mt323.dll
 0001:0000e73e       ?cut@QTextEdit@@UAEXXZ     0040f73e f   qt-mt323:qt-mt323.dll
 0001:0000e744       ?del@QTextEdit@@UAEXXZ     0040f744 f   qt-mt323:qt-mt323.dll
 0001:0000e74a       ?doChangeInterval@QTextEdit@@MAEXXZ 0040f74a f   qt-mt323:qt-mt323.dll
 0001:0000e750       ?doKeyboardAction@QTextEdit@@UAEXW4KeyboardAction@1@@Z 0040f750 f   qt-mt323:qt-mt323.dll
 0001:0000e756       ?drawContents@QScrollView@@EAEXPAVQPainter@@@Z 0040f756 f   qt-mt323:qt-mt323.dll
 0001:0000e75c       ?drawContents@QScrollView@@MAEXPAVQPainter@@HHHH@Z 0040f75c f   qt-mt323:qt-mt323.dll
 0001:0000e762       ?drawContents@QTextEdit@@EAEXPAVQPainter@@@Z 0040f762 f   qt-mt323:qt-mt323.dll
 0001:0000e768       ?drawContents@QTextEdit@@MAEXPAVQPainter@@HHHH@Z 0040f768 f   qt-mt323:qt-mt323.dll
 0001:0000e76e       ?drawContentsOffset@QScrollView@@MAEXPAVQPainter@@HHHHHH@Z 0040f76e f   qt-mt323:qt-mt323.dll
 0001:0000e774       ?emitHighlighted@QTextEdit@@EAEXABVQString@@@Z 0040f774 f   qt-mt323:qt-mt323.dll
 0001:0000e77a       ?emitLinkClicked@QTextEdit@@EAEXABVQString@@@Z 0040f77a f   qt-mt323:qt-mt323.dll
 0001:0000e780       ?ensureCurrentVisible@QListBox@@UAEXXZ 0040f780 f   qt-mt323:qt-mt323.dll
 0001:0000e786       ?ensureCursorVisible@QTextEdit@@UAEXXZ 0040f786 f   qt-mt323:qt-mt323.dll
 0001:0000e78c       ?event@QGroupBox@@MAE_NPAVQEvent@@@Z 0040f78c f   qt-mt323:qt-mt323.dll
 0001:0000e792       ?event@QTextEdit@@MAE_NPAVQEvent@@@Z 0040f792 f   qt-mt323:qt-mt323.dll
 0001:0000e798       ?eventFilter@QListBox@@MAE_NPAVQObject@@PAVQEvent@@@Z 0040f798 f   qt-mt323:qt-mt323.dll
 0001:0000e79e       ?eventFilter@QTextEdit@@UAE_NPAVQObject@@PAVQEvent@@@Z 0040f79e f   qt-mt323:qt-mt323.dll
 0001:0000e7a4       ?expanding@QGridLayout@@UBE?AW4ExpandData@QSizePolicy@@XZ 0040f7a4 f   qt-mt323:qt-mt323.dll
 0001:0000e7aa       ?find@QTextEdit@@UAE_NABVQString@@_N11PAH2@Z 0040f7aa f   qt-mt323:qt-mt323.dll
 0001:0000e7b0       ?focusInEvent@QGroupBox@@MAEXPAVQFocusEvent@@@Z 0040f7b0 f   qt-mt323:qt-mt323.dll
 0001:0000e7b6       ?focusInEvent@QListBox@@MAEXPAVQFocusEvent@@@Z 0040f7b6 f   qt-mt323:qt-mt323.dll
 0001:0000e7bc       ?focusNextPrevChild@QScrollView@@MAE_N_N@Z 0040f7bc f   qt-mt323:qt-mt323.dll
 0001:0000e7c2       ?focusNextPrevChild@QTextEdit@@MAE_N_N@Z 0040f7c2 f   qt-mt323:qt-mt323.dll
 0001:0000e7c8       ?focusOutEvent@QListBox@@MAEXPAVQFocusEvent@@@Z 0040f7c8 f   qt-mt323:qt-mt323.dll
 0001:0000e7ce       ?fontChange@QGroupBox@@MAEXABVQFont@@@Z 0040f7ce f   qt-mt323:qt-mt323.dll
 0001:0000e7d4       ?fontChange@QScrollView@@MAEXABVQFont@@@Z 0040f7d4 f   qt-mt323:qt-mt323.dll
 0001:0000e7da       ?frameChanged@QScrollView@@MAEXXZ 0040f7da f   qt-mt323:qt-mt323.dll
 0001:0000e7e0       ?getFormat@QTextEdit@@UAE_NHHPAVQFont@@PAVQColor@@PAW4VerticalAlignment@1@@Z 0040f7e0 f   qt-mt323:qt-mt323.dll
 0001:0000e7e6       ?getParagraphFormat@QTextEdit@@UAE_NHPAVQFont@@PAVQColor@@PAW4VerticalAlignment@1@PAHPAW4DisplayMode@QStyleSheetItem@@PAW4ListStyle@6@3@Z 0040f7e6 f   qt-mt323:qt-mt323.dll
 0001:0000e7ec       ?hasHeightForWidth@QGridLayout@@UBE_NXZ 0040f7ec f   qt-mt323:qt-mt323.dll
 0001:0000e7f2       ?heightForWidth@QGridLayout@@UBEHH@Z 0040f7f2 f   qt-mt323:qt-mt323.dll
 0001:0000e7f8       ?heightForWidth@QTextEdit@@UBEHH@Z 0040f7f8 f   qt-mt323:qt-mt323.dll
 0001:0000e7fe       ?imComposeEvent@QTextEdit@@MAEXPAVQIMEvent@@@Z 0040f7fe f   qt-mt323:qt-mt323.dll
 0001:0000e804       ?imEndEvent@QTextEdit@@MAEXPAVQIMEvent@@@Z 0040f804 f   qt-mt323:qt-mt323.dll
 0001:0000e80a       ?imStartEvent@QTextEdit@@MAEXPAVQIMEvent@@@Z 0040f80a f   qt-mt323:qt-mt323.dll
 0001:0000e810       ?indent@QTextEdit@@UAEXXZ  0040f810 f   qt-mt323:qt-mt323.dll
 0001:0000e816       ?insert@QTextEdit@@UAEXABVQString@@_N11@Z 0040f816 f   qt-mt323:qt-mt323.dll
 0001:0000e81c       ?insertAt@QTextEdit@@UAEXABVQString@@HH@Z 0040f81c f   qt-mt323:qt-mt323.dll
 0001:0000e822       ?insertParagraph@QTextEdit@@UAEXABVQString@@H@Z 0040f822 f   qt-mt323:qt-mt323.dll
 0001:0000e828       ?invalidate@QGridLayout@@UAEXXZ 0040f828 f   qt-mt323:qt-mt323.dll
 0001:0000e82e       ?invertSelection@QListBox@@UAEXXZ 0040f82e f   qt-mt323:qt-mt323.dll
 0001:0000e834       ?iterator@QGridLayout@@UAE?AVQLayoutIterator@@XZ 0040f834 f   qt-mt323:qt-mt323.dll
 0001:0000e83a       ?keyPressEvent@QListBox@@MAEXPAVQKeyEvent@@@Z 0040f83a f   qt-mt323:qt-mt323.dll
 0001:0000e840       ?keyPressEvent@QTextEdit@@MAEXPAVQKeyEvent@@@Z 0040f840 f   qt-mt323:qt-mt323.dll
 0001:0000e846       ?linksEnabled@QTextEdit@@EBE_NXZ 0040f846 f   qt-mt323:qt-mt323.dll
 0001:0000e84c       ?maximumSize@QGridLayout@@UBE?AVQSize@@XZ 0040f84c f   qt-mt323:qt-mt323.dll
 0001:0000e852       ?metaObject@QGridLayout@@UBEPAVQMetaObject@@XZ 0040f852 f   qt-mt323:qt-mt323.dll
 0001:0000e858       ?metaObject@QGroupBox@@UBEPAVQMetaObject@@XZ 0040f858 f   qt-mt323:qt-mt323.dll
 0001:0000e85e       ?metaObject@QLineEdit@@UBEPAVQMetaObject@@XZ 0040f85e f   qt-mt323:qt-mt323.dll
 0001:0000e864       ?metaObject@QListBox@@UBEPAVQMetaObject@@XZ 0040f864 f   qt-mt323:qt-mt323.dll
 0001:0000e86a       ?metaObject@QTextEdit@@UBEPAVQMetaObject@@XZ 0040f86a f   qt-mt323:qt-mt323.dll
 0001:0000e870       ?minimumSize@QGridLayout@@UBE?AVQSize@@XZ 0040f870 f   qt-mt323:qt-mt323.dll
 0001:0000e876       ?minimumSizeHint@QListBox@@UBE?AVQSize@@XZ 0040f876 f   qt-mt323:qt-mt323.dll
 0001:0000e87c       ?minimumSizeHint@QScrollView@@UBE?AVQSize@@XZ 0040f87c f   qt-mt323:qt-mt323.dll
 0001:0000e882       ?mouseDoubleClickEvent@QListBox@@MAEXPAVQMouseEvent@@@Z 0040f882 f   qt-mt323:qt-mt323.dll
 0001:0000e888       ?mouseDoubleClickEvent@QScrollView@@MAEXPAVQMouseEvent@@@Z 0040f888 f   qt-mt323:qt-mt323.dll
 0001:0000e88e       ?mouseMoveEvent@QListBox@@MAEXPAVQMouseEvent@@@Z 0040f88e f   qt-mt323:qt-mt323.dll
 0001:0000e894       ?mouseMoveEvent@QScrollView@@MAEXPAVQMouseEvent@@@Z 0040f894 f   qt-mt323:qt-mt323.dll
 0001:0000e89a       ?mousePressEvent@QListBox@@MAEXPAVQMouseEvent@@@Z 0040f89a f   qt-mt323:qt-mt323.dll
 0001:0000e8a0       ?mousePressEvent@QScrollView@@MAEXPAVQMouseEvent@@@Z 0040f8a0 f   qt-mt323:qt-mt323.dll
 0001:0000e8a6       ?mouseReleaseEvent@QListBox@@MAEXPAVQMouseEvent@@@Z 0040f8a6 f   qt-mt323:qt-mt323.dll
 0001:0000e8ac       ?mouseReleaseEvent@QScrollView@@MAEXPAVQMouseEvent@@@Z 0040f8ac f   qt-mt323:qt-mt323.dll
 0001:0000e8b2       ?moveChild@QScrollView@@UAEXPAVQWidget@@HH@Z 0040f8b2 f   qt-mt323:qt-mt323.dll
 0001:0000e8b8       ?moveCursor@QTextEdit@@UAEXW4CursorAction@1@_N@Z 0040f8b8 f   qt-mt323:qt-mt323.dll
 0001:0000e8be       ?paintCell@QListBox@@MAEXPAVQPainter@@HH@Z 0040f8be f   qt-mt323:qt-mt323.dll
 0001:0000e8c4       ?paintEvent@QGroupBox@@MAEXPAVQPaintEvent@@@Z 0040f8c4 f   qt-mt323:qt-mt323.dll
 0001:0000e8ca       ?paste@QTextEdit@@UAEXXZ   0040f8ca f   qt-mt323:qt-mt323.dll
 0001:0000e8d0       ?pasteSubType@QTextEdit@@UAEXABVQCString@@@Z 0040f8d0 f   qt-mt323:qt-mt323.dll
 0001:0000e8d6       ?placeCursor@QTextEdit@@UAEXABVQPoint@@PAVQTextCursor@@@Z 0040f8d6 f   qt-mt323:qt-mt323.dll
 0001:0000e8dc       ?polish@QTextEdit@@UAEXXZ  0040f8dc f   qt-mt323:qt-mt323.dll
 0001:0000e8e2       ?qt_cast@QGridLayout@@UAEPAXPBD@Z 0040f8e2 f   qt-mt323:qt-mt323.dll
 0001:0000e8e8       ?qt_cast@QGroupBox@@UAEPAXPBD@Z 0040f8e8 f   qt-mt323:qt-mt323.dll
 0001:0000e8ee       ?qt_cast@QListBox@@UAEPAXPBD@Z 0040f8ee f   qt-mt323:qt-mt323.dll
 0001:0000e8f4       ?qt_cast@QTextEdit@@UAEPAXPBD@Z 0040f8f4 f   qt-mt323:qt-mt323.dll
 0001:0000e8fa       ?qt_emit@QGridLayout@@UAE_NHPAUQUObject@@@Z 0040f8fa f   qt-mt323:qt-mt323.dll
 0001:0000e900       ?qt_emit@QGroupBox@@UAE_NHPAUQUObject@@@Z 0040f900 f   qt-mt323:qt-mt323.dll
 0001:0000e906       ?qt_emit@QListBox@@UAE_NHPAUQUObject@@@Z 0040f906 f   qt-mt323:qt-mt323.dll
 0001:0000e90c       ?qt_emit@QTextEdit@@UAE_NHPAUQUObject@@@Z 0040f90c f   qt-mt323:qt-mt323.dll
 0001:0000e912       ?qt_invoke@QGridLayout@@UAE_NHPAUQUObject@@@Z 0040f912 f   qt-mt323:qt-mt323.dll
 0001:0000e918       ?qt_invoke@QGroupBox@@UAE_NHPAUQUObject@@@Z 0040f918 f   qt-mt323:qt-mt323.dll
 0001:0000e91e       ?qt_invoke@QListBox@@UAE_NHPAUQUObject@@@Z 0040f91e f   qt-mt323:qt-mt323.dll
 0001:0000e924       ?qt_invoke@QTextEdit@@UAE_NHPAUQUObject@@@Z 0040f924 f   qt-mt323:qt-mt323.dll
 0001:0000e92a       ?qt_property@QGridLayout@@UAE_NHHPAVQVariant@@@Z 0040f92a f   qt-mt323:qt-mt323.dll
 0001:0000e930       ?qt_property@QGroupBox@@UAE_NHHPAVQVariant@@@Z 0040f930 f   qt-mt323:qt-mt323.dll
 0001:0000e936       ?qt_property@QListBox@@UAE_NHHPAVQVariant@@@Z 0040f936 f   qt-mt323:qt-mt323.dll
 0001:0000e93c       ?qt_property@QTextEdit@@UAE_NHHPAVQVariant@@@Z 0040f93c f   qt-mt323:qt-mt323.dll
 0001:0000e942       ?redo@QTextEdit@@UAEXXZ    0040f942 f   qt-mt323:qt-mt323.dll
 0001:0000e948       ?removeChild@QScrollView@@UAEXPAVQObject@@@Z 0040f948 f   qt-mt323:qt-mt323.dll
 0001:0000e94e       ?removeParagraph@QTextEdit@@UAEXH@Z 0040f94e f   qt-mt323:qt-mt323.dll
 0001:0000e954       ?removeSelectedText@QTextEdit@@UAEXH@Z 0040f954 f   qt-mt323:qt-mt323.dll
 0001:0000e95a       ?removeSelection@QTextEdit@@UAEXH@Z 0040f95a f   qt-mt323:qt-mt323.dll
 0001:0000e960       ?resetFormat@QTextEdit@@UAEXXZ 0040f960 f   qt-mt323:qt-mt323.dll
 0001:0000e966       ?resize@QScrollView@@UAEXHH@Z 0040f966 f   qt-mt323:qt-mt323.dll
 0001:0000e96c       ?resizeContents@QScrollView@@UAEXHH@Z 0040f96c f   qt-mt323:qt-mt323.dll
 0001:0000e972       ?resizeEvent@QGroupBox@@MAEXPAVQResizeEvent@@@Z 0040f972 f   qt-mt323:qt-mt323.dll
 0001:0000e978       ?resizeEvent@QListBox@@MAEXPAVQResizeEvent@@@Z 0040f978 f   qt-mt323:qt-mt323.dll
 0001:0000e97e       ?resizeEvent@QTextEdit@@MAEXPAVQResizeEvent@@@Z 0040f97e f   qt-mt323:qt-mt323.dll
 0001:0000e984       ?scrollToAnchor@QTextEdit@@UAEXABVQString@@@Z 0040f984 f   qt-mt323:qt-mt323.dll
 0001:0000e98a       ?scrollToBottom@QTextEdit@@UAEXXZ 0040f98a f   qt-mt323:qt-mt323.dll
 0001:0000e990       ?selectAll@QListBox@@UAEX_N@Z 0040f990 f   qt-mt323:qt-mt323.dll
 0001:0000e996       ?selectAll@QTextEdit@@UAEX_N@Z 0040f996 f   qt-mt323:qt-mt323.dll
 0001:0000e99c       ?setAlignment@QGroupBox@@UAEXH@Z 0040f99c f   qt-mt323:qt-mt323.dll
 0001:0000e9a2       ?setAlignment@QTextEdit@@UAEXH@Z 0040f9a2 f   qt-mt323:qt-mt323.dll
 0001:0000e9a8       ?setBold@QTextEdit@@UAEX_N@Z 0040f9a8 f   qt-mt323:qt-mt323.dll
 0001:0000e9ae       ?setBottomItem@QListBox@@UAEXH@Z 0040f9ae f   qt-mt323:qt-mt323.dll
 0001:0000e9b4       ?setColStretch@QGridLayout@@UAEXHH@Z 0040f9b4 f   qt-mt323:qt-mt323.dll
 0001:0000e9ba       ?setColor@QTextEdit@@UAEXABVQColor@@@Z 0040f9ba f   qt-mt323:qt-mt323.dll
 0001:0000e9c0       ?setColumnLayout@QGroupBox@@UAEXHW4Orientation@Qt@@@Z 0040f9c0 f   qt-mt323:qt-mt323.dll
 0001:0000e9c6       ?setColumnMode@QListBox@@UAEXH@Z 0040f9c6 f   qt-mt323:qt-mt323.dll
 0001:0000e9cc       ?setColumnMode@QListBox@@UAEXW4LayoutMode@1@@Z 0040f9cc f   qt-mt323:qt-mt323.dll
 0001:0000e9d2       ?setContentsPos@QScrollView@@UAEXHH@Z 0040f9d2 f   qt-mt323:qt-mt323.dll
 0001:0000e9d8       ?setCornerWidget@QScrollView@@UAEXPAVQWidget@@@Z 0040f9d8 f   qt-mt323:qt-mt323.dll
 0001:0000e9de       ?setCurrentFont@QTextEdit@@UAEXABVQFont@@@Z 0040f9de f   qt-mt323:qt-mt323.dll
 0001:0000e9e4       ?setCurrentItem@QListBox@@UAEXH@Z 0040f9e4 f   qt-mt323:qt-mt323.dll
 0001:0000e9ea       ?setCurrentItem@QListBox@@UAEXPAVQListBoxItem@@@Z 0040f9ea f   qt-mt323:qt-mt323.dll
 0001:0000e9f0       ?setCursorPosition@QTextEdit@@UAEXHH@Z 0040f9f0 f   qt-mt323:qt-mt323.dll
 0001:0000e9f6       ?setDragAutoScroll@QScrollView@@UAEX_N@Z 0040f9f6 f   qt-mt323:qt-mt323.dll
 0001:0000e9fc       ?setEnabled@QGroupBox@@UAEX_N@Z 0040f9fc f   qt-mt323:qt-mt323.dll
 0001:0000ea02       ?setEnabled@QScrollView@@UAEX_N@Z 0040fa02 f   qt-mt323:qt-mt323.dll
 0001:0000ea08       ?setEnabled@QTextEdit@@UAEX_N@Z 0040fa08 f   qt-mt323:qt-mt323.dll
 0001:0000ea0e       ?setFamily@QTextEdit@@UAEXABVQString@@@Z 0040fa0e f   qt-mt323:qt-mt323.dll
 0001:0000ea14       ?setFont@QListBox@@UAEXABVQFont@@@Z 0040fa14 f   qt-mt323:qt-mt323.dll
 0001:0000ea1a       ?setFont@QTextEdit@@UAEXABVQFont@@@Z 0040fa1a f   qt-mt323:qt-mt323.dll
 0001:0000ea20       ?setFormat@QTextEdit@@UAEXPAVQTextFormat@@H@Z 0040fa20 f   qt-mt323:qt-mt323.dll
 0001:0000ea26       ?setGeometry@QGridLayout@@UAEXABVQRect@@@Z 0040fa26 f   qt-mt323:qt-mt323.dll
 0001:0000ea2c       ?setHBarGeometry@QScrollView@@MAEXAAVQScrollBar@@HHHH@Z 0040fa2c f   qt-mt323:qt-mt323.dll
 0001:0000ea32       ?setHScrollBarMode@QScrollView@@UAEXW4ScrollBarMode@1@@Z 0040fa32 f   qt-mt323:qt-mt323.dll
 0001:0000ea38       ?setItalic@QTextEdit@@UAEX_N@Z 0040fa38 f   qt-mt323:qt-mt323.dll
 0001:0000ea3e       ?setLinkUnderline@QTextEdit@@UAEX_N@Z 0040fa3e f   qt-mt323:qt-mt323.dll
 0001:0000ea44       ?setMargins@QScrollView@@MAEXHHHH@Z 0040fa44 f   qt-mt323:qt-mt323.dll
 0001:0000ea4a       ?setMimeSourceFactory@QTextEdit@@UAEXPAVQMimeSourceFactory@@@Z 0040fa4a f   qt-mt323:qt-mt323.dll
 0001:0000ea50       ?setModified@QTextEdit@@UAEX_N@Z 0040fa50 f   qt-mt323:qt-mt323.dll
 0001:0000ea56       ?setOverwriteMode@QTextEdit@@UAEX_N@Z 0040fa56 f   qt-mt323:qt-mt323.dll
 0001:0000ea5c       ?setPalette@QTextEdit@@UAEXABVQPalette@@@Z 0040fa5c f   qt-mt323:qt-mt323.dll
 0001:0000ea62       ?setPaper@QTextEdit@@UAEXABVQBrush@@@Z 0040fa62 f   qt-mt323:qt-mt323.dll
 0001:0000ea68       ?setParagType@QTextEdit@@UAEXW4DisplayMode@QStyleSheetItem@@W4ListStyle@3@@Z 0040fa68 f   qt-mt323:qt-mt323.dll
 0001:0000ea6e       ?setParagraphBackgroundColor@QTextEdit@@UAEXHABVQColor@@@Z 0040fa6e f   qt-mt323:qt-mt323.dll
 0001:0000ea74       ?setPointSize@QTextEdit@@UAEXH@Z 0040fa74 f   qt-mt323:qt-mt323.dll
 0001:0000ea7a       ?setReadOnly@QTextEdit@@UAEX_N@Z 0040fa7a f   qt-mt323:qt-mt323.dll
 0001:0000ea80       ?setResizePolicy@QScrollView@@UAEXW4ResizePolicy@1@@Z 0040fa80 f   qt-mt323:qt-mt323.dll
 0001:0000ea86       ?setRowMode@QListBox@@UAEXH@Z 0040fa86 f   qt-mt323:qt-mt323.dll
 0001:0000ea8c       ?setRowMode@QListBox@@UAEXW4LayoutMode@1@@Z 0040fa8c f   qt-mt323:qt-mt323.dll
 0001:0000ea92       ?setRowStretch@QGridLayout@@UAEXHH@Z 0040fa92 f   qt-mt323:qt-mt323.dll
 0001:0000ea98       ?setSelected@QListBox@@UAEXPAVQListBoxItem@@_N@Z 0040fa98 f   qt-mt323:qt-mt323.dll
 0001:0000ea9e       ?setSelection@QTextEdit@@UAEXHHHHH@Z 0040fa9e f   qt-mt323:qt-mt323.dll
 0001:0000eaa4       ?setSelectionAttributes@QTextEdit@@UAEXHABVQColor@@_N@Z 0040faa4 f   qt-mt323:qt-mt323.dll
 0001:0000eaaa       ?setSelectionMode@QListBox@@UAEXW4SelectionMode@1@@Z 0040faaa f   qt-mt323:qt-mt323.dll
 0001:0000eab0       ?setStyleSheet@QTextEdit@@UAEXPAVQStyleSheet@@@Z 0040fab0 f   qt-mt323:qt-mt323.dll
 0001:0000eab6       ?setTabStopWidth@QTextEdit@@UAEXH@Z 0040fab6 f   qt-mt323:qt-mt323.dll
 0001:0000eabc       ?setText@QTextEdit@@UAEXABVQString@@0@Z 0040fabc f   qt-mt323:qt-mt323.dll
 0001:0000eac2       ?setTextFormat@QTextEdit@@UAEXW4TextFormat@Qt@@@Z 0040fac2 f   qt-mt323:qt-mt323.dll
 0001:0000eac8       ?setTitle@QGroupBox@@UAEXABVQString@@@Z 0040fac8 f   qt-mt323:qt-mt323.dll
 0001:0000eace       ?setTopItem@QListBox@@UAEXH@Z 0040face f   qt-mt323:qt-mt323.dll
 0001:0000ead4       ?setUnderline@QTextEdit@@UAEX_N@Z 0040fad4 f   qt-mt323:qt-mt323.dll
 0001:0000eada       ?setUndoDepth@QTextEdit@@UAEXH@Z 0040fada f   qt-mt323:qt-mt323.dll
 0001:0000eae0       ?setUndoRedoEnabled@QTextEdit@@UAEX_N@Z 0040fae0 f   qt-mt323:qt-mt323.dll
 0001:0000eae6       ?setVBarGeometry@QScrollView@@MAEXAAVQScrollBar@@HHHH@Z 0040fae6 f   qt-mt323:qt-mt323.dll
 0001:0000eaec       ?setVScrollBarMode@QScrollView@@UAEXW4ScrollBarMode@1@@Z 0040faec f   qt-mt323:qt-mt323.dll
 0001:0000eaf2       ?setVariableHeight@QListBox@@UAEX_N@Z 0040faf2 f   qt-mt323:qt-mt323.dll
 0001:0000eaf8       ?setVariableWidth@QListBox@@UAEX_N@Z 0040faf8 f   qt-mt323:qt-mt323.dll
 0001:0000eafe       ?setVerticalAlignment@QTextEdit@@UAEXW4VerticalAlignment@1@@Z 0040fafe f   qt-mt323:qt-mt323.dll
 0001:0000eb04       ?setWordWrap@QTextEdit@@UAEXW4WordWrap@1@@Z 0040fb04 f   qt-mt323:qt-mt323.dll
 0001:0000eb0a       ?setWrapColumnOrWidth@QTextEdit@@UAEXH@Z 0040fb0a f   qt-mt323:qt-mt323.dll
 0001:0000eb10       ?setWrapPolicy@QTextEdit@@UAEXW4WrapPolicy@1@@Z 0040fb10 f   qt-mt323:qt-mt323.dll
 0001:0000eb16       ?show@QScrollView@@UAEXXZ  0040fb16 f   qt-mt323:qt-mt323.dll
 0001:0000eb1c       ?showEvent@QListBox@@MAEXPAVQShowEvent@@@Z 0040fb1c f   qt-mt323:qt-mt323.dll
 0001:0000eb22       ?sizeHint@QGridLayout@@UBE?AVQSize@@XZ 0040fb22 f   qt-mt323:qt-mt323.dll
 0001:0000eb28       ?sizeHint@QGroupBox@@UBE?AVQSize@@XZ 0040fb28 f   qt-mt323:qt-mt323.dll
 0001:0000eb2e       ?sizeHint@QListBox@@UBE?AVQSize@@XZ 0040fb2e f   qt-mt323:qt-mt323.dll
 0001:0000eb34       ?sizeHint@QTextEdit@@UBE?AVQSize@@XZ 0040fb34 f   qt-mt323:qt-mt323.dll
 0001:0000eb3a       ?styleChange@QScrollView@@UAEXAAVQStyle@@@Z 0040fb3a f   qt-mt323:qt-mt323.dll
 0001:0000eb40       ?sync@QTextEdit@@UAEXXZ    0040fb40 f   qt-mt323:qt-mt323.dll
 0001:0000eb46       ?undo@QTextEdit@@UAEXXZ    0040fb46 f   qt-mt323:qt-mt323.dll
 0001:0000eb4c       ?viewportContextMenuEvent@QScrollView@@MAEXPAVQContextMenuEvent@@@Z 0040fb4c f   qt-mt323:qt-mt323.dll
 0001:0000eb52       ?viewportDragEnterEvent@QScrollView@@MAEXPAVQDragEnterEvent@@@Z 0040fb52 f   qt-mt323:qt-mt323.dll
 0001:0000eb58       ?viewportDragLeaveEvent@QScrollView@@MAEXPAVQDragLeaveEvent@@@Z 0040fb58 f   qt-mt323:qt-mt323.dll
 0001:0000eb5e       ?viewportDragMoveEvent@QScrollView@@MAEXPAVQDragMoveEvent@@@Z 0040fb5e f   qt-mt323:qt-mt323.dll
 0001:0000eb64       ?viewportDropEvent@QScrollView@@MAEXPAVQDropEvent@@@Z 0040fb64 f   qt-mt323:qt-mt323.dll
 0001:0000eb6a       ?viewportMouseDoubleClickEvent@QScrollView@@MAEXPAVQMouseEvent@@@Z 0040fb6a f   qt-mt323:qt-mt323.dll
 0001:0000eb70       ?viewportMouseMoveEvent@QScrollView@@MAEXPAVQMouseEvent@@@Z 0040fb70 f   qt-mt323:qt-mt323.dll
 0001:0000eb76       ?viewportMousePressEvent@QScrollView@@MAEXPAVQMouseEvent@@@Z 0040fb76 f   qt-mt323:qt-mt323.dll
 0001:0000eb7c       ?viewportMouseReleaseEvent@QScrollView@@MAEXPAVQMouseEvent@@@Z 0040fb7c f   qt-mt323:qt-mt323.dll
 0001:0000eb82       ?viewportPaintEvent@QListBox@@UAEXPAVQPaintEvent@@@Z 0040fb82 f   qt-mt323:qt-mt323.dll
 0001:0000eb88       ?viewportPaintEvent@QScrollView@@MAEXPAVQPaintEvent@@@Z 0040fb88 f   qt-mt323:qt-mt323.dll
 0001:0000eb8e       ?viewportResizeEvent@QScrollView@@MAEXPAVQResizeEvent@@@Z 0040fb8e f   qt-mt323:qt-mt323.dll
 0001:0000eb94       ?viewportResizeEvent@QTextEdit@@MAEXPAVQResizeEvent@@@Z 0040fb94 f   qt-mt323:qt-mt323.dll
 0001:0000eb9a       ?viewportWheelEvent@QScrollView@@MAEXPAVQWheelEvent@@@Z 0040fb9a f   qt-mt323:qt-mt323.dll
 0001:0000eba0       ?wheelEvent@QScrollView@@MAEXPAVQWheelEvent@@@Z 0040fba0 f   qt-mt323:qt-mt323.dll
 0001:0000eba6       ?windowActivationChange@QListBox@@MAEX_N@Z 0040fba6 f   qt-mt323:qt-mt323.dll
 0001:0000ebac       ?windowActivationChange@QTextEdit@@MAEX_N@Z 0040fbac f   qt-mt323:qt-mt323.dll
 0001:0000ebb2       ?zoomIn@QTextEdit@@UAEXH@Z 0040fbb2 f   qt-mt323:qt-mt323.dll
 0001:0000ebb8       ?zoomIn@QTextEdit@@UAEXXZ  0040fbb8 f   qt-mt323:qt-mt323.dll
 0001:0000ebbe       ?zoomOut@QTextEdit@@UAEXH@Z 0040fbbe f   qt-mt323:qt-mt323.dll
 0001:0000ebc4       ?zoomOut@QTextEdit@@UAEXXZ 0040fbc4 f   qt-mt323:qt-mt323.dll
 0001:0000ebca       ?zoomTo@QTextEdit@@UAEXH@Z 0040fbca f   qt-mt323:qt-mt323.dll
 0001:0000ebd0       ??_U@YAPAXI@Z              0040fbd0 f   msvcprt:newaop_s.obj
 0001:0000ebda       __purecall                 0040fbda f   MSVCRT:MSVCR120.dll
 0001:0000ebe0       ??2@YAPAXI@Z               0040fbe0 f   MSVCRT:MSVCR120.dll
 0001:0000ebe6       ??3@YAXPAX@Z               0040fbe6 f   MSVCRT:MSVCR120.dll
 0001:0000ebec       ___atonexitinit            0040fbec f   MSVCRT:atonexit.obj
 0001:0000ec28       __onexit                   0040fc28 f   MSVCRT:atonexit.obj
 0001:0000ecd1       _atexit                    0040fcd1 f   MSVCRT:atonexit.obj
 0001:0000ece6       @__security_check_cookie@4 0040fce6 f   MSVCRT:secchk.obj
 0001:0000ecf6       __CxxThrowException@8      0040fcf6 f   MSVCRT:MSVCR120.dll
 0001:0000ecfc       ___CxxFrameHandler3        0040fcfc f   MSVCRT:MSVCR120.dll
 0001:0000ed02       _memcpy                    0040fd02 f   MSVCRT:MSVCR120.dll
 0001:0000ed08       ??_Etype_info@@UAEPAXI@Z   0040fd08 f i MSVCRT:ti_inst.obj
 0001:0000ed60       ??_L@YGXPAXIHP6EX0@Z1@Z    0040fd60 f   MSVCRT:ehvecctr.obj
 0001:0000edc2       ??_M@YGXPAXIHP6EX0@Z@Z     0040fdc2 f   MSVCRT:ehvecdtr.obj
 0001:0000ee31       ?__ArrayUnwind@@YGXPAXIHP6EX0@Z@Z 0040fe31 f   MSVCRT:ehvecdtr.obj
 0001:0000ef93       _WinMainCRTStartup         0040ff93 f   MSVCRT:crtexew.obj
 0001:0000f152       ??_V@YAXPAX@Z              00410152 f   MSVCRT:MSVCR120.dll
 0001:0000f158       _strpbrk                   00410158 f   MSVCRT:MSVCR120.dll
 0001:0000f15e       _free                      0041015e f   MSVCRT:MSVCR120.dll
 0001:0000f164       _malloc                    00410164 f   MSVCRT:MSVCR120.dll
 0001:0000f16a       __lock                     0041016a f   MSVCRT:MSVCR120.dll
 0001:0000f170       __unlock                   00410170 f   MSVCRT:MSVCR120.dll
 0001:0000f176       ___dllonexit               00410176 f   MSVCRT:MSVCR120.dll
 0001:0000f180       __SEH_prolog4              00410180 f   MSVCRT:sehprolg4.obj
 0001:0000f1c5       __SEH_epilog4              004101c5 f   MSVCRT:sehprolg4.obj
 0001:0000f1d9       __except_handler4          004101d9 f   MSVCRT:chandler4gs.obj
 0001:0000f1fc       ___raise_securityfailure   004101fc f   MSVCRT:gs_report.obj
 0001:0000f239       ___report_gsfailure        00410239 f   MSVCRT:gs_report.obj
 0001:0000f334       ??1type_info@@UAE@XZ       00410334 f   MSVCRT:MSVCR120.dll
 0001:0000f33a       ?terminate@@YAXXZ          0041033a f   MSVCRT:MSVCR120.dll
 0001:0000f340       ?__CxxUnhandledExceptionFilter@@YGJPAU_EXCEPTION_POINTERS@@@Z 00410340 f   MSVCRT:unhandld.obj
 0001:0000f381       ___CxxSetUnhandledExceptionFilter 00410381 f   MSVCRT:unhandld.obj
 0001:0000f390       __XcptFilter               00410390 f   MSVCRT:MSVCR120.dll
 0001:0000f396       __amsg_exit                00410396 f   MSVCRT:MSVCR120.dll
 0001:0000f39c       __setargv                  0041039c f   MSVCRT:dllargv.obj
 0001:0000f39c       __matherr                  0041039c f   MSVCRT:merr.obj
 0001:0000f3a0       __FindPESection            004103a0 f   MSVCRT:pesect.obj
 0001:0000f3f0       __IsNonwritableInCurrentImage 004103f0 f   MSVCRT:pesect.obj
 0001:0000f4b0       __ValidateImageBase        004104b0 f   MSVCRT:pesect.obj
 0001:0000f4e1       ___security_init_cookie    004104e1 f   MSVCRT:gs_support.obj
 0001:0000f57d       __RTC_Initialize           0041057d f   MSVCRT:initsect.obj
 0001:0000f59d       __RTC_Terminate            0041059d f   MSVCRT:initsect.obj
 0001:0000f5bd       __setdefaultprecision      004105bd f   MSVCRT:fp8.obj
 0001:0000f5e4       __initterm_e               004105e4 f   MSVCRT:MSVCR120.dll
 0001:0000f5ea       __initterm                 004105ea f   MSVCRT:MSVCR120.dll
 0001:0000f5f0       __except_handler4_common   004105f0 f   MSVCRT:MSVCR120.dll
 0001:0000f5f6       __crt_debugger_hook        004105f6 f   MSVCRT:MSVCR120.dll
 0001:0000f5fc       ___crtUnhandledException   004105fc f   MSVCRT:MSVCR120.dll
 0001:0000f602       ___crtTerminateProcess     00410602 f   MSVCRT:MSVCR120.dll
 0001:0000f608       ___crtSetUnhandledExceptionFilter 00410608 f   MSVCRT:MSVCR120.dll
 0001:0000f60e       __invoke_watson            0041060e f   MSVCRT:MSVCR120.dll
 0001:0000f614       __controlfp_s              00410614 f   MSVCRT:MSVCR120.dll
 0001:0000f620       _BNCS32ReceiveMessage      00410620 f   bncswm32:BncsWM32.obj
 0001:0000f770       _BNCS32SendMessage         00410770 f   bncswm32:BncsWM32.obj
 0001:0000f844       _GetFileVersionInfoSizeA@8 00410844 f   version:VERSION.dll
 0001:0000f84a       _GetFileVersionInfoA@16    0041084a f   version:VERSION.dll
 0001:0000f850       _VerQueryValueA@16         00410850 f   version:VERSION.dll
 0001:0000f856       _IsProcessorFeaturePresent@4 00410856 f   kernel32:KERNEL32.dll
 0001:0000f85c       _strcpy                    0041085c f   MSVCRT:MSVCR120.dll
 0001:0000f862       _strlen                    00410862 f   MSVCRT:MSVCR120.dll
 0001:0000f868       ?deleteData@QGArray@@MAEXPAUarray_data@1@@Z 00410868 f   qt-mt323:qt-mt323.dll
 0001:0000f86e       ?newData@QGArray@@MAEPAUarray_data@1@XZ 0041086e f   qt-mt323:qt-mt323.dll
 0001:0000f874       ?qWinMain@@YAXPAUHINSTANCE__@@0PADHAAHAAV?$QMemArray@PAD@@@Z 00410874 f   qt-mt323:qt-mt323.dll
 0002:00000000       __imp__BNCS32RxMessage     00413000     bncsif32:BNCSIF32.dll
 0002:00000004       __imp__BNCS32TxMessage     00413004     bncsif32:BNCSIF32.dll
 0002:00000008       \177BNCSIF32_NULL_THUNK_DATA 00413008     bncsif32:BNCSIF32.dll
 0002:0000000c       __imp__GetCurrentThreadId@0 0041300c     kernel32:KERNEL32.dll
 0002:00000010       __imp__GetCurrentProcessId@0 00413010     kernel32:KERNEL32.dll
 0002:00000014       __imp__QueryPerformanceCounter@4 00413014     kernel32:KERNEL32.dll
 0002:00000018       __imp__GetSystemTimeAsFileTime@4 00413018     kernel32:KERNEL32.dll
 0002:0000001c       __imp__IsDebuggerPresent@0 0041301c     kernel32:KERNEL32.dll
 0002:00000020       __imp__DecodePointer@4     00413020     kernel32:KERNEL32.dll
 0002:00000024       __imp__EncodePointer@4     00413024     kernel32:KERNEL32.dll
 0002:00000028       __imp__GetLastError@0      00413028     kernel32:KERNEL32.dll
 0002:0000002c       __imp__IsProcessorFeaturePresent@4 0041302c     kernel32:KERNEL32.dll
 0002:00000030       __imp__FreeLibrary@4       00413030     kernel32:KERNEL32.dll
 0002:00000034       __imp__LoadLibraryA@4      00413034     kernel32:KERNEL32.dll
 0002:00000038       __imp__OutputDebugStringA@4 00413038     kernel32:KERNEL32.dll
 0002:0000003c       __imp__GetPrivateProfileIntA@16 0041303c     kernel32:KERNEL32.dll
 0002:00000040       __imp__GetPrivateProfileStringA@24 00413040     kernel32:KERNEL32.dll
 0002:00000044       __imp__WritePrivateProfileStringA@16 00413044     kernel32:KERNEL32.dll
 0002:00000048       __imp__lstrcpynA@12        00413048     kernel32:KERNEL32.dll
 0002:0000004c       __imp__GetProcAddress@8    0041304c     kernel32:KERNEL32.dll
 0002:00000050       \177KERNEL32_NULL_THUNK_DATA 00413050     kernel32:KERNEL32.dll
 0002:00000054       __imp_?_Xbad_alloc@std@@YAXXZ 00413054     msvcprt:MSVCP120.dll
 0002:00000058       __imp_?_Xout_of_range@std@@YAXPBD@Z 00413058     msvcprt:MSVCP120.dll
 0002:0000005c       __imp_?_Syserror_map@std@@YAPBDH@Z 0041305c     msvcprt:MSVCP120.dll
 0002:00000060       __imp_?_Winerror_map@std@@YAPBDH@Z 00413060     msvcprt:MSVCP120.dll
 0002:00000064       __imp_?_Xlength_error@std@@YAXPBD@Z 00413064     msvcprt:MSVCP120.dll
 0002:00000068       \177MSVCP120_NULL_THUNK_DATA 00413068     msvcprt:MSVCP120.dll
 0002:0000006c       __imp___configthreadlocale 0041306c     MSVCRT:MSVCR120.dll
 0002:00000070       __imp___ismbblead          00413070     MSVCRT:MSVCR120.dll
 0002:00000074       __imp___cexit              00413074     MSVCRT:MSVCR120.dll
 0002:00000078       __imp___exit               00413078     MSVCRT:MSVCR120.dll
 0002:0000007c       __imp__exit                0041307c     MSVCRT:MSVCR120.dll
 0002:00000080       __imp____set_app_type      00413080     MSVCRT:MSVCR120.dll
 0002:00000084       __imp____getmainargs       00413084     MSVCRT:MSVCR120.dll
 0002:00000088       __imp___amsg_exit          00413088     MSVCRT:MSVCR120.dll
 0002:0000008c       __imp____crtGetShowWindowMode 0041308c     MSVCRT:MSVCR120.dll
 0002:00000090       __imp___XcptFilter         00413090     MSVCRT:MSVCR120.dll
 0002:00000094       __imp_?terminate@@YAXXZ    00413094     MSVCRT:MSVCR120.dll
 0002:00000098       __imp_??1type_info@@UAE@XZ 00413098     MSVCRT:MSVCR120.dll
 0002:0000009c       __imp___onexit             0041309c     MSVCRT:MSVCR120.dll
 0002:000000a0       __imp____dllonexit         004130a0     MSVCRT:MSVCR120.dll
 0002:000000a4       __imp___calloc_crt         004130a4     MSVCRT:MSVCR120.dll
 0002:000000a8       __imp___unlock             004130a8     MSVCRT:MSVCR120.dll
 0002:000000ac       __imp___lock               004130ac     MSVCRT:MSVCR120.dll
 0002:000000b0       __imp__malloc              004130b0     MSVCRT:MSVCR120.dll
 0002:000000b4       __imp__strpbrk             004130b4     MSVCRT:MSVCR120.dll
 0002:000000b8       __imp____setusermatherr    004130b8     MSVCRT:MSVCR120.dll
 0002:000000bc       __imp__sprintf_s           004130bc     MSVCRT:MSVCR120.dll
 0002:000000c0       __imp_??_V@YAXPAX@Z        004130c0     MSVCRT:MSVCR120.dll
 0002:000000c4       __imp__sprintf             004130c4     MSVCRT:MSVCR120.dll
 0002:000000c8       __imp__strncpy             004130c8     MSVCRT:MSVCR120.dll
 0002:000000cc       __imp__atoi                004130cc     MSVCRT:MSVCR120.dll
 0002:000000d0       __imp__memcpy              004130d0     MSVCRT:MSVCR120.dll
 0002:000000d4       __imp____CxxFrameHandler3  004130d4     MSVCRT:MSVCR120.dll
 0002:000000d8       __imp___CxxThrowException@8 004130d8     MSVCRT:MSVCR120.dll
 0002:000000dc       __imp__getenv              004130dc     MSVCRT:MSVCR120.dll
 0002:000000e0       __imp__fprintf             004130e0     MSVCRT:MSVCR120.dll
 0002:000000e4       __imp__fopen               004130e4     MSVCRT:MSVCR120.dll
 0002:000000e8       __imp__fgetc               004130e8     MSVCRT:MSVCR120.dll
 0002:000000ec       __imp__fclose              004130ec     MSVCRT:MSVCR120.dll
 0002:000000f0       __imp__memmove             004130f0     MSVCRT:MSVCR120.dll
 0002:000000f4       __imp_??3@YAXPAX@Z         004130f4     MSVCRT:MSVCR120.dll
 0002:000000f8       __imp_??2@YAPAXI@Z         004130f8     MSVCRT:MSVCR120.dll
 0002:000000fc       __imp___purecall           004130fc     MSVCRT:MSVCR120.dll
 0002:00000100       __imp___initterm_e         00413100     MSVCRT:MSVCR120.dll
 0002:00000104       __imp___initterm           00413104     MSVCRT:MSVCR120.dll
 0002:00000108       __imp___acmdln             00413108     MSVCRT:MSVCR120.dll
 0002:0000010c       __imp___fmode              0041310c     MSVCRT:MSVCR120.dll
 0002:00000110       __imp___commode            00413110     MSVCRT:MSVCR120.dll
 0002:00000114       __imp___except_handler4_common 00413114     MSVCRT:MSVCR120.dll
 0002:00000118       __imp___crt_debugger_hook  00413118     MSVCRT:MSVCR120.dll
 0002:0000011c       __imp____crtUnhandledException 0041311c     MSVCRT:MSVCR120.dll
 0002:00000120       __imp____crtTerminateProcess 00413120     MSVCRT:MSVCR120.dll
 0002:00000124       __imp____crtSetUnhandledExceptionFilter 00413124     MSVCRT:MSVCR120.dll
 0002:00000128       __imp___invoke_watson      00413128     MSVCRT:MSVCR120.dll
 0002:0000012c       __imp___controlfp_s        0041312c     MSVCRT:MSVCR120.dll
 0002:00000130       __imp__sscanf              00413130     MSVCRT:MSVCR120.dll
 0002:00000134       __imp__free                00413134     MSVCRT:MSVCR120.dll
 0002:00000138       __imp__strlen              00413138     MSVCRT:MSVCR120.dll
 0002:0000013c       __imp__strcpy              0041313c     MSVCRT:MSVCR120.dll
 0002:00000140       \177MSVCR120_NULL_THUNK_DATA 00413140     MSVCRT:MSVCR120.dll
 0002:00000144       __imp__MessageBoxA@16      00413144     user32:USER32.dll
 0002:00000148       __imp__PostMessageA@16     00413148     user32:USER32.dll
 0002:0000014c       __imp__DefWindowProcA@16   0041314c     user32:USER32.dll
 0002:00000150       __imp__wsprintfA           00413150     user32:USER32.dll
 0002:00000154       __imp__GetClassNameA@12    00413154     user32:USER32.dll
 0002:00000158       __imp__SetWindowLongA@12   00413158     user32:USER32.dll
 0002:0000015c       __imp__GetWindowLongA@8    0041315c     user32:USER32.dll
 0002:00000160       __imp__SendMessageA@16     00413160     user32:USER32.dll
 0002:00000164       __imp__DestroyWindow@4     00413164     user32:USER32.dll
 0002:00000168       __imp__IsWindow@4          00413168     user32:USER32.dll
 0002:0000016c       __imp__CreateWindowExA@48  0041316c     user32:USER32.dll
 0002:00000170       __imp__UnregisterClassA@8  00413170     user32:USER32.dll
 0002:00000174       __imp__RegisterClassA@4    00413174     user32:USER32.dll
 0002:00000178       \177USER32_NULL_THUNK_DATA 00413178     user32:USER32.dll
 0002:0000017c       __imp__GetFileVersionInfoA@16 0041317c     version:VERSION.dll
 0002:00000180       __imp__GetFileVersionInfoSizeA@8 00413180     version:VERSION.dll
 0002:00000184       __imp__VerQueryValueA@16   00413184     version:VERSION.dll
 0002:00000188       \177VERSION_NULL_THUNK_DATA 00413188     version:VERSION.dll
 0002:0000018c       __imp_?checkConnectArgs@QObject@@MAE_NPBDPBV1@0@Z 0041318c     qt-mt323:qt-mt323.dll
 0002:00000190       __imp_?childEvent@QLayout@@MAEXPAVQChildEvent@@@Z 00413190     qt-mt323:qt-mt323.dll
 0002:00000194       __imp_?childEvent@QMainWindow@@MAEXPAVQChildEvent@@@Z 00413194     qt-mt323:qt-mt323.dll
 0002:00000198       __imp_?childEvent@QObject@@MAEXPAVQChildEvent@@@Z 00413198     qt-mt323:qt-mt323.dll
 0002:0000019c       __imp_?className@QAction@@UBEPBDXZ 0041319c     qt-mt323:qt-mt323.dll
 0002:000001a0       __imp_?className@QCheckBox@@UBEPBDXZ 004131a0     qt-mt323:qt-mt323.dll
 0002:000001a4       __imp_?className@QFrame@@UBEPBDXZ 004131a4     qt-mt323:qt-mt323.dll
 0002:000001a8       __imp_?className@QHBoxLayout@@UBEPBDXZ 004131a8     qt-mt323:qt-mt323.dll
 0002:000001ac       __imp_?className@QLabel@@UBEPBDXZ 004131ac     qt-mt323:qt-mt323.dll
 0002:000001b0       __imp_?className@QPopupMenu@@UBEPBDXZ 004131b0     qt-mt323:qt-mt323.dll
 0002:000001b4       __imp_?className@QPushButton@@UBEPBDXZ 004131b4     qt-mt323:qt-mt323.dll
 0002:000001b8       __imp_?className@QSpinBox@@UBEPBDXZ 004131b8     qt-mt323:qt-mt323.dll
 0002:000001bc       __imp_?className@QToolBar@@UBEPBDXZ 004131bc     qt-mt323:qt-mt323.dll
 0002:000001c0       __imp_?className@QVBoxLayout@@UBEPBDXZ 004131c0     qt-mt323:qt-mt323.dll
 0002:000001c4       __imp_?cleanText@QSpinBox@@UBE?AVQString@@XZ 004131c4     qt-mt323:qt-mt323.dll
 0002:000001c8       __imp_?clear@QToolBar@@UAEXXZ 004131c8     qt-mt323:qt-mt323.dll
 0002:000001cc       __imp_?close@QWidget@@UAE_N_N@Z 004131cc     qt-mt323:qt-mt323.dll
 0002:000001d0       __imp_?closeEvent@QPopupMenu@@MAEXPAVQCloseEvent@@@Z 004131d0     qt-mt323:qt-mt323.dll
 0002:000001d4       __imp_?closeEvent@QWidget@@MAEXPAVQCloseEvent@@@Z 004131d4     qt-mt323:qt-mt323.dll
 0002:000001d8       __imp_?cmd@QPaintDevice@@MAE_NHPAVQPainter@@PATQPDevCmdParam@@@Z 004131d8     qt-mt323:qt-mt323.dll
 0002:000001dc       __imp_?connectNotify@QObject@@MAEXPBD@Z 004131dc     qt-mt323:qt-mt323.dll
 0002:000001e0       __imp_?contextMenuEvent@QDockWindow@@MAEXPAVQContextMenuEvent@@@Z 004131e0     qt-mt323:qt-mt323.dll
 0002:000001e4       __imp_?contextMenuEvent@QWidget@@MAEXPAVQContextMenuEvent@@@Z 004131e4     qt-mt323:qt-mt323.dll
 0002:000001e8       __imp_?create@QWidget@@MAEXPAUHWND__@@_N1@Z 004131e8     qt-mt323:qt-mt323.dll
 0002:000001ec       __imp_?customEvent@QObject@@MAEXPAVQCustomEvent@@@Z 004131ec     qt-mt323:qt-mt323.dll
 0002:000001f0       __imp_?customWhatsThis@QPopupMenu@@UBE_NXZ 004131f0     qt-mt323:qt-mt323.dll
 0002:000001f4       __imp_?customWhatsThis@QWidget@@UBE_NXZ 004131f4     qt-mt323:qt-mt323.dll
 0002:000001f8       __imp_?customize@QMainWindow@@UAEXXZ 004131f8     qt-mt323:qt-mt323.dll
 0002:000001fc       __imp_?destroy@QWidget@@MAEX_N0@Z 004131fc     qt-mt323:qt-mt323.dll
 0002:00000200       __imp_?disconnectNotify@QObject@@MAEXPBD@Z 00413200     qt-mt323:qt-mt323.dll
 0002:00000204       __imp_?dock@QDockWindow@@UAEXXZ 00413204     qt-mt323:qt-mt323.dll
 0002:00000208       __imp_?dockingArea@QMainWindow@@UAEPAVQDockArea@@ABVQPoint@@@Z 00413208     qt-mt323:qt-mt323.dll
 0002:0000020c       __imp_?dragEnterEvent@QWidget@@MAEXPAVQDragEnterEvent@@@Z 0041320c     qt-mt323:qt-mt323.dll
 0002:00000210       __imp_?dragLeaveEvent@QWidget@@MAEXPAVQDragLeaveEvent@@@Z 00413210     qt-mt323:qt-mt323.dll
 0002:00000214       __imp_?dragMoveEvent@QWidget@@MAEXPAVQDragMoveEvent@@@Z 00413214     qt-mt323:qt-mt323.dll
 0002:00000218       __imp_?drawButton@QCheckBox@@MAEXPAVQPainter@@@Z 00413218     qt-mt323:qt-mt323.dll
 0002:0000021c       __imp_?drawButton@QPushButton@@MAEXPAVQPainter@@@Z 0041321c     qt-mt323:qt-mt323.dll
 0002:00000220       __imp_?drawButtonLabel@QCheckBox@@MAEXPAVQPainter@@@Z 00413220     qt-mt323:qt-mt323.dll
 0002:00000224       __imp_?drawButtonLabel@QPushButton@@MAEXPAVQPainter@@@Z 00413224     qt-mt323:qt-mt323.dll
 0002:00000228       __imp_?drawContents@QDockWindow@@MAEXPAVQPainter@@@Z 00413228     qt-mt323:qt-mt323.dll
 0002:0000022c       __imp_?drawContents@QFrame@@MAEXPAVQPainter@@@Z 0041322c     qt-mt323:qt-mt323.dll
 0002:00000230       __imp_?drawContents@QLabel@@MAEXPAVQPainter@@@Z 00413230     qt-mt323:qt-mt323.dll
 0002:00000234       __imp_?drawContents@QPopupMenu@@MAEXPAVQPainter@@@Z 00413234     qt-mt323:qt-mt323.dll
 0002:00000238       __imp_?drawFrame@QDockWindow@@MAEXPAVQPainter@@@Z 00413238     qt-mt323:qt-mt323.dll
 0002:0000023c       __imp_?drawFrame@QFrame@@MAEXPAVQPainter@@@Z 0041323c     qt-mt323:qt-mt323.dll
 0002:00000240       __imp_?dropEvent@QWidget@@MAEXPAVQDropEvent@@@Z 00413240     qt-mt323:qt-mt323.dll
 0002:00000244       __imp_?enabledChange@QButton@@MAEX_N@Z 00413244     qt-mt323:qt-mt323.dll
 0002:00000248       __imp_?enabledChange@QPopupMenu@@MAEX_N@Z 00413248     qt-mt323:qt-mt323.dll
 0002:0000024c       __imp_?enabledChange@QWidget@@MAEX_N@Z 0041324c     qt-mt323:qt-mt323.dll
 0002:00000250       __imp_?enterEvent@QWidget@@MAEXPAVQEvent@@@Z 00413250     qt-mt323:qt-mt323.dll
 0002:00000254       __imp_?event@QMainWindow@@MAE_NPAVQEvent@@@Z 00413254     qt-mt323:qt-mt323.dll
 0002:00000258       __imp_?event@QObject@@UAE_NPAVQEvent@@@Z 00413258     qt-mt323:qt-mt323.dll
 0002:0000025c       __imp_?event@QToolBar@@UAE_NPAVQEvent@@@Z 0041325c     qt-mt323:qt-mt323.dll
 0002:00000260       __imp_?event@QWidget@@MAE_NPAVQEvent@@@Z 00413260     qt-mt323:qt-mt323.dll
 0002:00000264       __imp_?eventFilter@QDockWindow@@UAE_NPAVQObject@@PAVQEvent@@@Z 00413264     qt-mt323:qt-mt323.dll
 0002:00000268       __imp_?eventFilter@QLayout@@MAE_NPAVQObject@@PAVQEvent@@@Z 00413268     qt-mt323:qt-mt323.dll
 0002:0000026c       __imp_?eventFilter@QMainWindow@@UAE_NPAVQObject@@PAVQEvent@@@Z 0041326c     qt-mt323:qt-mt323.dll
 0002:00000270       __imp_?eventFilter@QObject@@UAE_NPAV1@PAVQEvent@@@Z 00413270     qt-mt323:qt-mt323.dll
 0002:00000274       __imp_?eventFilter@QSpinBox@@MAE_NPAVQObject@@PAVQEvent@@@Z 00413274     qt-mt323:qt-mt323.dll
 0002:00000278       __imp_?expanding@QBoxLayout@@UBE?AW4ExpandData@QSizePolicy@@XZ 00413278     qt-mt323:qt-mt323.dll
 0002:0000027c       __imp_?expanding@QSpacerItem@@UBE?AW4ExpandData@QSizePolicy@@XZ 0041327c     qt-mt323:qt-mt323.dll
 0002:00000280       __imp_?focusInEvent@QButton@@MAEXPAVQFocusEvent@@@Z 00413280     qt-mt323:qt-mt323.dll
 0002:00000284       __imp_?focusInEvent@QPopupMenu@@MAEXPAVQFocusEvent@@@Z 00413284     qt-mt323:qt-mt323.dll
 0002:00000288       __imp_?focusInEvent@QPushButton@@MAEXPAVQFocusEvent@@@Z 00413288     qt-mt323:qt-mt323.dll
 0002:0000028c       __imp_?focusInEvent@QWidget@@MAEXPAVQFocusEvent@@@Z 0041328c     qt-mt323:qt-mt323.dll
 0002:00000290       __imp_?focusNextPrevChild@QPopupMenu@@MAE_N_N@Z 00413290     qt-mt323:qt-mt323.dll
 0002:00000294       __imp_?focusNextPrevChild@QWidget@@MAE_N_N@Z 00413294     qt-mt323:qt-mt323.dll
 0002:00000298       __imp_?focusOutEvent@QButton@@MAEXPAVQFocusEvent@@@Z 00413298     qt-mt323:qt-mt323.dll
 0002:0000029c       __imp_?focusOutEvent@QPopupMenu@@MAEXPAVQFocusEvent@@@Z 0041329c     qt-mt323:qt-mt323.dll
 0002:000002a0       __imp_?focusOutEvent@QPushButton@@MAEXPAVQFocusEvent@@@Z 004132a0     qt-mt323:qt-mt323.dll
 0002:000002a4       __imp_?focusOutEvent@QWidget@@MAEXPAVQFocusEvent@@@Z 004132a4     qt-mt323:qt-mt323.dll
 0002:000002a8       __imp_?fontChange@QLabel@@MAEXABVQFont@@@Z 004132a8     qt-mt323:qt-mt323.dll
 0002:000002ac       __imp_?fontChange@QWidget@@MAEXABVQFont@@@Z 004132ac     qt-mt323:qt-mt323.dll
 0002:000002b0       __imp_?fontInf@QPaintDevice@@MBEHPAVQFont@@H@Z 004132b0     qt-mt323:qt-mt323.dll
 0002:000002b4       __imp_?fontMet@QPaintDevice@@MBEHPAVQFont@@HPBDH@Z 004132b4     qt-mt323:qt-mt323.dll
 0002:000002b8       __imp_?frameChanged@QFrame@@MAEXXZ 004132b8     qt-mt323:qt-mt323.dll
 0002:000002bc       __imp_?frameChanged@QPopupMenu@@EAEXXZ 004132bc     qt-mt323:qt-mt323.dll
 0002:000002c0       __imp_?geometry@QLayout@@UBE?AVQRect@@XZ 004132c0     qt-mt323:qt-mt323.dll
 0002:000002c4       __imp_?geometry@QSpacerItem@@UBE?AVQRect@@XZ 004132c4     qt-mt323:qt-mt323.dll
 0002:000002c8       __imp_?handle@QPaintDevice@@UBEPAUHDC__@@XZ 004132c8     qt-mt323:qt-mt323.dll
 0002:000002cc       __imp_?hasHeightForWidth@QBoxLayout@@UBE_NXZ 004132cc     qt-mt323:qt-mt323.dll
 0002:000002d0       __imp_?hasHeightForWidth@QLayoutItem@@UBE_NXZ 004132d0     qt-mt323:qt-mt323.dll
 0002:000002d4       __imp_?heightForWidth@QBoxLayout@@UBEHH@Z 004132d4     qt-mt323:qt-mt323.dll
 0002:000002d8       __imp_?heightForWidth@QLabel@@UBEHH@Z 004132d8     qt-mt323:qt-mt323.dll
 0002:000002dc       __imp_?heightForWidth@QLayoutItem@@UBEHH@Z 004132dc     qt-mt323:qt-mt323.dll
 0002:000002e0       __imp_?heightForWidth@QWidget@@UBEHH@Z 004132e0     qt-mt323:qt-mt323.dll
 0002:000002e4       __imp_?hide@QMainWindow@@UAEXXZ 004132e4     qt-mt323:qt-mt323.dll
 0002:000002e8       __imp_?hide@QPopupMenu@@UAEXXZ 004132e8     qt-mt323:qt-mt323.dll
 0002:000002ec       __imp_?hide@QToolBar@@UAEXXZ 004132ec     qt-mt323:qt-mt323.dll
 0002:000002f0       __imp_?hide@QWidget@@UAEXXZ 004132f0     qt-mt323:qt-mt323.dll
 0002:000002f4       __imp_?hideEvent@QDockWindow@@MAEXPAVQHideEvent@@@Z 004132f4     qt-mt323:qt-mt323.dll
 0002:000002f8       __imp_?hideEvent@QWidget@@MAEXPAVQHideEvent@@@Z 004132f8     qt-mt323:qt-mt323.dll
 0002:000002fc       __imp_?hitButton@QButton@@MBE_NABVQPoint@@@Z 004132fc     qt-mt323:qt-mt323.dll
 0002:00000300       __imp_?hitButton@QCheckBox@@MBE_NABVQPoint@@@Z 00413300     qt-mt323:qt-mt323.dll
 0002:00000304       __imp_?imComposeEvent@QWidget@@MAEXPAVQIMEvent@@@Z 00413304     qt-mt323:qt-mt323.dll
 0002:00000308       __imp_?imEndEvent@QWidget@@MAEXPAVQIMEvent@@@Z 00413308     qt-mt323:qt-mt323.dll
 0002:0000030c       __imp_?imStartEvent@QWidget@@MAEXPAVQIMEvent@@@Z 0041330c     qt-mt323:qt-mt323.dll
 0002:00000310       __imp_?insertChild@QObject@@UAEXPAV1@@Z 00413310     qt-mt323:qt-mt323.dll
 0002:00000314       __imp_?interpretText@QSpinBox@@MAEXXZ 00413314     qt-mt323:qt-mt323.dll
 0002:00000318       __imp_?invalidate@QBoxLayout@@UAEXXZ 00413318     qt-mt323:qt-mt323.dll
 0002:0000031c       __imp_?invalidate@QLayoutItem@@UAEXXZ 0041331c     qt-mt323:qt-mt323.dll
 0002:00000320       __imp_?isCustomizable@QMainWindow@@UBE_NXZ 00413320     qt-mt323:qt-mt323.dll
 0002:00000324       __imp_?isEmpty@QLayout@@UBE_NXZ 00413324     qt-mt323:qt-mt323.dll
 0002:00000328       __imp_?isEmpty@QSpacerItem@@UBE_NXZ 00413328     qt-mt323:qt-mt323.dll
 0002:0000032c       __imp_?iterator@QBoxLayout@@UAE?AVQLayoutIterator@@XZ 0041332c     qt-mt323:qt-mt323.dll
 0002:00000330       __imp_?iterator@QLayoutItem@@UAE?AVQLayoutIterator@@XZ 00413330     qt-mt323:qt-mt323.dll
 0002:00000334       __imp_?keyPressEvent@QButton@@MAEXPAVQKeyEvent@@@Z 00413334     qt-mt323:qt-mt323.dll
 0002:00000338       __imp_?keyPressEvent@QPopupMenu@@MAEXPAVQKeyEvent@@@Z 00413338     qt-mt323:qt-mt323.dll
 0002:0000033c       __imp_?keyPressEvent@QWidget@@MAEXPAVQKeyEvent@@@Z 0041333c     qt-mt323:qt-mt323.dll
 0002:00000340       __imp_?keyReleaseEvent@QButton@@MAEXPAVQKeyEvent@@@Z 00413340     qt-mt323:qt-mt323.dll
 0002:00000344       __imp_?keyReleaseEvent@QWidget@@MAEXPAVQKeyEvent@@@Z 00413344     qt-mt323:qt-mt323.dll
 0002:00000348       __imp_?layout@QLayout@@UAEPAV1@XZ 00413348     qt-mt323:qt-mt323.dll
 0002:0000034c       __imp_?layout@QLayoutItem@@UAEPAVQLayout@@XZ 0041334c     qt-mt323:qt-mt323.dll
 0002:00000350       __imp_?leaveEvent@QPopupMenu@@MAEXPAVQEvent@@@Z 00413350     qt-mt323:qt-mt323.dll
 0002:00000354       __imp_?leaveEvent@QSpinBox@@MAEXPAVQEvent@@@Z 00413354     qt-mt323:qt-mt323.dll
 0002:00000358       __imp_?leaveEvent@QWidget@@MAEXPAVQEvent@@@Z 00413358     qt-mt323:qt-mt323.dll
 0002:0000035c       __imp_?mapTextToValue@QSpinBox@@MAEHPA_N@Z 0041335c     qt-mt323:qt-mt323.dll
 0002:00000360       __imp_?mapValueToText@QSpinBox@@MAE?AVQString@@H@Z 00413360     qt-mt323:qt-mt323.dll
 0002:00000364       __imp_?maximumSize@QBoxLayout@@UBE?AVQSize@@XZ 00413364     qt-mt323:qt-mt323.dll
 0002:00000368       __imp_?maximumSize@QSpacerItem@@UBE?AVQSize@@XZ 00413368     qt-mt323:qt-mt323.dll
 0002:0000036c       __imp_?menuContentsChanged@QPopupMenu@@EAEXXZ 0041336c     qt-mt323:qt-mt323.dll
 0002:00000370       __imp_?menuDelPopup@QPopupMenu@@EAEXPAV1@@Z 00413370     qt-mt323:qt-mt323.dll
 0002:00000374       __imp_?menuInsPopup@QPopupMenu@@EAEXPAV1@@Z 00413374     qt-mt323:qt-mt323.dll
 0002:00000378       __imp_?menuStateChanged@QPopupMenu@@EAEXXZ 00413378     qt-mt323:qt-mt323.dll
 0002:0000037c       __imp_?metaObject@QAction@@UBEPAVQMetaObject@@XZ 0041337c     qt-mt323:qt-mt323.dll
 0002:00000380       __imp_?metaObject@QCheckBox@@UBEPAVQMetaObject@@XZ 00413380     qt-mt323:qt-mt323.dll
 0002:00000384       __imp_?metaObject@QFrame@@UBEPAVQMetaObject@@XZ 00413384     qt-mt323:qt-mt323.dll
 0002:00000388       __imp_?metaObject@QHBoxLayout@@UBEPAVQMetaObject@@XZ 00413388     qt-mt323:qt-mt323.dll
 0002:0000038c       __imp_?metaObject@QLabel@@UBEPAVQMetaObject@@XZ 0041338c     qt-mt323:qt-mt323.dll
 0002:00000390       __imp_?metaObject@QPopupMenu@@UBEPAVQMetaObject@@XZ 00413390     qt-mt323:qt-mt323.dll
 0002:00000394       __imp_?metaObject@QPushButton@@UBEPAVQMetaObject@@XZ 00413394     qt-mt323:qt-mt323.dll
 0002:00000398       __imp_?metaObject@QSpinBox@@UBEPAVQMetaObject@@XZ 00413398     qt-mt323:qt-mt323.dll
 0002:0000039c       __imp_?metaObject@QToolBar@@UBEPAVQMetaObject@@XZ 0041339c     qt-mt323:qt-mt323.dll
 0002:000003a0       __imp_?metaObject@QVBoxLayout@@UBEPAVQMetaObject@@XZ 004133a0     qt-mt323:qt-mt323.dll
 0002:000003a4       __imp_?metric@QWidget@@MBEHH@Z 004133a4     qt-mt323:qt-mt323.dll
 0002:000003a8       __imp_?minimumSize@QBoxLayout@@UBE?AVQSize@@XZ 004133a8     qt-mt323:qt-mt323.dll
 0002:000003ac       __imp_?minimumSize@QSpacerItem@@UBE?AVQSize@@XZ 004133ac     qt-mt323:qt-mt323.dll
 0002:000003b0       __imp_?minimumSizeHint@QLabel@@UBE?AVQSize@@XZ 004133b0     qt-mt323:qt-mt323.dll
 0002:000003b4       __imp_?minimumSizeHint@QMainWindow@@UBE?AVQSize@@XZ 004133b4     qt-mt323:qt-mt323.dll
 0002:000003b8       __imp_?minimumSizeHint@QSpinBox@@UBE?AVQSize@@XZ 004133b8     qt-mt323:qt-mt323.dll
 0002:000003bc       __imp_?minimumSizeHint@QToolBar@@UBE?AVQSize@@XZ 004133bc     qt-mt323:qt-mt323.dll
 0002:000003c0       __imp_?minimumSizeHint@QWidget@@UBE?AVQSize@@XZ 004133c0     qt-mt323:qt-mt323.dll
 0002:000003c4       __imp_?mouseDoubleClickEvent@QWidget@@MAEXPAVQMouseEvent@@@Z 004133c4     qt-mt323:qt-mt323.dll
 0002:000003c8       __imp_?mouseMoveEvent@QButton@@MAEXPAVQMouseEvent@@@Z 004133c8     qt-mt323:qt-mt323.dll
 0002:000003cc       __imp_?mouseMoveEvent@QPopupMenu@@MAEXPAVQMouseEvent@@@Z 004133cc     qt-mt323:qt-mt323.dll
 0002:000003d0       __imp_?mouseMoveEvent@QWidget@@MAEXPAVQMouseEvent@@@Z 004133d0     qt-mt323:qt-mt323.dll
 0002:000003d4       __imp_?mousePressEvent@QButton@@MAEXPAVQMouseEvent@@@Z 004133d4     qt-mt323:qt-mt323.dll
 0002:000003d8       __imp_?mousePressEvent@QPopupMenu@@MAEXPAVQMouseEvent@@@Z 004133d8     qt-mt323:qt-mt323.dll
 0002:000003dc       __imp_?mousePressEvent@QWidget@@MAEXPAVQMouseEvent@@@Z 004133dc     qt-mt323:qt-mt323.dll
 0002:000003e0       __imp_?mouseReleaseEvent@QButton@@MAEXPAVQMouseEvent@@@Z 004133e0     qt-mt323:qt-mt323.dll
 0002:000003e4       __imp_?mouseReleaseEvent@QPopupMenu@@MAEXPAVQMouseEvent@@@Z 004133e4     qt-mt323:qt-mt323.dll
 0002:000003e8       __imp_?mouseReleaseEvent@QWidget@@MAEXPAVQMouseEvent@@@Z 004133e8     qt-mt323:qt-mt323.dll
 0002:000003ec       __imp_?move@QPushButton@@UAEXHH@Z 004133ec     qt-mt323:qt-mt323.dll
 0002:000003f0       __imp_?move@QWidget@@UAEXHH@Z 004133f0     qt-mt323:qt-mt323.dll
 0002:000003f4       __imp_?moveDockWindow@QMainWindow@@UAEXPAVQDockWindow@@W4Dock@Qt@@@Z 004133f4     qt-mt323:qt-mt323.dll
 0002:000003f8       __imp_?moveDockWindow@QMainWindow@@UAEXPAVQDockWindow@@W4Dock@Qt@@_NHH@Z 004133f8     qt-mt323:qt-mt323.dll
 0002:000003fc       __imp_?moveEvent@QWidget@@MAEXPAVQMoveEvent@@@Z 004133fc     qt-mt323:qt-mt323.dll
 0002:00000400       __imp_?paintEvent@QButton@@MAEXPAVQPaintEvent@@@Z 00413400     qt-mt323:qt-mt323.dll
 0002:00000404       __imp_?paintEvent@QFrame@@MAEXPAVQPaintEvent@@@Z 00413404     qt-mt323:qt-mt323.dll
 0002:00000408       __imp_?paintEvent@QMainWindow@@MAEXPAVQPaintEvent@@@Z 00413408     qt-mt323:qt-mt323.dll
 0002:0000040c       __imp_?paintEvent@QPopupMenu@@MAEXPAVQPaintEvent@@@Z 0041340c     qt-mt323:qt-mt323.dll
 0002:00000410       __imp_?paintEvent@QWidget@@MAEXPAVQPaintEvent@@@Z 00413410     qt-mt323:qt-mt323.dll
 0002:00000414       __imp_?paletteChange@QWidget@@MAEXABVQPalette@@@Z 00413414     qt-mt323:qt-mt323.dll
 0002:00000418       __imp_?polish@QWidget@@UAEXXZ 00413418     qt-mt323:qt-mt323.dll
 0002:0000041c       __imp_?prefix@QSpinBox@@UBE?AVQString@@XZ 0041341c     qt-mt323:qt-mt323.dll
 0002:00000420       __imp_?property@QObject@@UBE?AVQVariant@@PBD@Z 00413420     qt-mt323:qt-mt323.dll
 0002:00000424       __imp_?qt_cast@QAction@@UAEPAXPBD@Z 00413424     qt-mt323:qt-mt323.dll
 0002:00000428       __imp_?qt_cast@QCheckBox@@UAEPAXPBD@Z 00413428     qt-mt323:qt-mt323.dll
 0002:0000042c       __imp_?qt_cast@QFrame@@UAEPAXPBD@Z 0041342c     qt-mt323:qt-mt323.dll
 0002:00000430       __imp_?qt_cast@QHBoxLayout@@UAEPAXPBD@Z 00413430     qt-mt323:qt-mt323.dll
 0002:00000434       __imp_?qt_cast@QLabel@@UAEPAXPBD@Z 00413434     qt-mt323:qt-mt323.dll
 0002:00000438       __imp_?qt_cast@QPopupMenu@@UAEPAXPBD@Z 00413438     qt-mt323:qt-mt323.dll
 0002:0000043c       __imp_?qt_cast@QPushButton@@UAEPAXPBD@Z 0041343c     qt-mt323:qt-mt323.dll
 0002:00000440       __imp_?qt_cast@QSpinBox@@UAEPAXPBD@Z 00413440     qt-mt323:qt-mt323.dll
 0002:00000444       __imp_?qt_cast@QToolBar@@UAEPAXPBD@Z 00413444     qt-mt323:qt-mt323.dll
 0002:00000448       __imp_?qt_cast@QVBoxLayout@@UAEPAXPBD@Z 00413448     qt-mt323:qt-mt323.dll
 0002:0000044c       __imp_?qt_emit@QAction@@UAE_NHPAUQUObject@@@Z 0041344c     qt-mt323:qt-mt323.dll
 0002:00000450       __imp_?qt_emit@QCheckBox@@UAE_NHPAUQUObject@@@Z 00413450     qt-mt323:qt-mt323.dll
 0002:00000454       __imp_?qt_emit@QFrame@@UAE_NHPAUQUObject@@@Z 00413454     qt-mt323:qt-mt323.dll
 0002:00000458       __imp_?qt_emit@QHBoxLayout@@UAE_NHPAUQUObject@@@Z 00413458     qt-mt323:qt-mt323.dll
 0002:0000045c       __imp_?qt_emit@QLabel@@UAE_NHPAUQUObject@@@Z 0041345c     qt-mt323:qt-mt323.dll
 0002:00000460       __imp_?qt_emit@QPopupMenu@@UAE_NHPAUQUObject@@@Z 00413460     qt-mt323:qt-mt323.dll
 0002:00000464       __imp_?qt_emit@QPushButton@@UAE_NHPAUQUObject@@@Z 00413464     qt-mt323:qt-mt323.dll
 0002:00000468       __imp_?qt_emit@QSpinBox@@UAE_NHPAUQUObject@@@Z 00413468     qt-mt323:qt-mt323.dll
 0002:0000046c       __imp_?qt_emit@QToolBar@@UAE_NHPAUQUObject@@@Z 0041346c     qt-mt323:qt-mt323.dll
 0002:00000470       __imp_?qt_emit@QVBoxLayout@@UAE_NHPAUQUObject@@@Z 00413470     qt-mt323:qt-mt323.dll
 0002:00000474       __imp_?qt_invoke@QAction@@UAE_NHPAUQUObject@@@Z 00413474     qt-mt323:qt-mt323.dll
 0002:00000478       __imp_?qt_invoke@QCheckBox@@UAE_NHPAUQUObject@@@Z 00413478     qt-mt323:qt-mt323.dll
 0002:0000047c       __imp_?qt_invoke@QFrame@@UAE_NHPAUQUObject@@@Z 0041347c     qt-mt323:qt-mt323.dll
 0002:00000480       __imp_?qt_invoke@QHBoxLayout@@UAE_NHPAUQUObject@@@Z 00413480     qt-mt323:qt-mt323.dll
 0002:00000484       __imp_?qt_invoke@QLabel@@UAE_NHPAUQUObject@@@Z 00413484     qt-mt323:qt-mt323.dll
 0002:00000488       __imp_?qt_invoke@QPopupMenu@@UAE_NHPAUQUObject@@@Z 00413488     qt-mt323:qt-mt323.dll
 0002:0000048c       __imp_?qt_invoke@QPushButton@@UAE_NHPAUQUObject@@@Z 0041348c     qt-mt323:qt-mt323.dll
 0002:00000490       __imp_?qt_invoke@QSpinBox@@UAE_NHPAUQUObject@@@Z 00413490     qt-mt323:qt-mt323.dll
 0002:00000494       __imp_?qt_invoke@QToolBar@@UAE_NHPAUQUObject@@@Z 00413494     qt-mt323:qt-mt323.dll
 0002:00000498       __imp_?qt_invoke@QVBoxLayout@@UAE_NHPAUQUObject@@@Z 00413498     qt-mt323:qt-mt323.dll
 0002:0000049c       __imp_?qt_property@QAction@@UAE_NHHPAVQVariant@@@Z 0041349c     qt-mt323:qt-mt323.dll
 0002:000004a0       __imp_?qt_property@QCheckBox@@UAE_NHHPAVQVariant@@@Z 004134a0     qt-mt323:qt-mt323.dll
 0002:000004a4       __imp_?qt_property@QFrame@@UAE_NHHPAVQVariant@@@Z 004134a4     qt-mt323:qt-mt323.dll
 0002:000004a8       __imp_?qt_property@QHBoxLayout@@UAE_NHHPAVQVariant@@@Z 004134a8     qt-mt323:qt-mt323.dll
 0002:000004ac       __imp_?qt_property@QLabel@@UAE_NHHPAVQVariant@@@Z 004134ac     qt-mt323:qt-mt323.dll
 0002:000004b0       __imp_?qt_property@QPopupMenu@@UAE_NHHPAVQVariant@@@Z 004134b0     qt-mt323:qt-mt323.dll
 0002:000004b4       __imp_?qt_property@QPushButton@@UAE_NHHPAVQVariant@@@Z 004134b4     qt-mt323:qt-mt323.dll
 0002:000004b8       __imp_?qt_property@QSpinBox@@UAE_NHHPAVQVariant@@@Z 004134b8     qt-mt323:qt-mt323.dll
 0002:000004bc       __imp_?qt_property@QToolBar@@UAE_NHHPAVQVariant@@@Z 004134bc     qt-mt323:qt-mt323.dll
 0002:000004c0       __imp_?qt_property@QVBoxLayout@@UAE_NHHPAVQVariant@@@Z 004134c0     qt-mt323:qt-mt323.dll
 0002:000004c4       __imp_?rangeChange@QSpinBox@@MAEXXZ 004134c4     qt-mt323:qt-mt323.dll
 0002:000004c8       __imp_?removeChild@QObject@@UAEXPAV1@@Z 004134c8     qt-mt323:qt-mt323.dll
 0002:000004cc       __imp_?removeDockWindow@QMainWindow@@UAEXPAVQDockWindow@@@Z 004134cc     qt-mt323:qt-mt323.dll
 0002:000004d0       __imp_?removeFrom@QAction@@UAE_NPAVQWidget@@@Z 004134d0     qt-mt323:qt-mt323.dll
 0002:000004d4       __imp_?reparent@QWidget@@UAEXPAV1@IABVQPoint@@_N@Z 004134d4     qt-mt323:qt-mt323.dll
 0002:000004d8       __imp_?resize@QPushButton@@UAEXHH@Z 004134d8     qt-mt323:qt-mt323.dll
 0002:000004dc       __imp_?resize@QWidget@@UAEXHH@Z 004134dc     qt-mt323:qt-mt323.dll
 0002:000004e0       __imp_?resizeEvent@QCheckBox@@MAEXPAVQResizeEvent@@@Z 004134e0     qt-mt323:qt-mt323.dll
 0002:000004e4       __imp_?resizeEvent@QFrame@@MAEXPAVQResizeEvent@@@Z 004134e4     qt-mt323:qt-mt323.dll
 0002:000004e8       __imp_?resizeEvent@QLabel@@MAEXPAVQResizeEvent@@@Z 004134e8     qt-mt323:qt-mt323.dll
 0002:000004ec       __imp_?resizeEvent@QPushButton@@MAEXPAVQResizeEvent@@@Z 004134ec     qt-mt323:qt-mt323.dll
 0002:000004f0       __imp_?resizeEvent@QSpinBox@@MAEXPAVQResizeEvent@@@Z 004134f0     qt-mt323:qt-mt323.dll
 0002:000004f4       __imp_?resizeEvent@QToolBar@@MAEXPAVQResizeEvent@@@Z 004134f4     qt-mt323:qt-mt323.dll
 0002:000004f8       __imp_?resizeEvent@QWidget@@MAEXPAVQResizeEvent@@@Z 004134f8     qt-mt323:qt-mt323.dll
 0002:000004fc       __imp_?resolution@QPaintDevice@@UBEHXZ 004134fc     qt-mt323:qt-mt323.dll
 0002:00000500       __imp_?selectAll@QSpinBox@@UAEXXZ 00413500     qt-mt323:qt-mt323.dll
 0002:00000504       __imp_?setAccel@QAction@@UAEXABVQKeySequence@@@Z 00413504     qt-mt323:qt-mt323.dll
 0002:00000508       __imp_?setAccel@QButton@@UAEXABVQKeySequence@@@Z 00413508     qt-mt323:qt-mt323.dll
 0002:0000050c       __imp_?setAcceptDrops@QWidget@@UAEX_N@Z 0041350c     qt-mt323:qt-mt323.dll
 0002:00000510       __imp_?setActiveItem@QPopupMenu@@UAEXH@Z 00413510     qt-mt323:qt-mt323.dll
 0002:00000514       __imp_?setActiveWindow@QWidget@@UAEXXZ 00413514     qt-mt323:qt-mt323.dll
 0002:00000518       __imp_?setAlignment@QLabel@@UAEXH@Z 00413518     qt-mt323:qt-mt323.dll
 0002:0000051c       __imp_?setAlignment@QLayoutItem@@UAEXH@Z 0041351c     qt-mt323:qt-mt323.dll
 0002:00000520       __imp_?setAppropriate@QMainWindow@@UAEXPAVQDockWindow@@_N@Z 00413520     qt-mt323:qt-mt323.dll
 0002:00000524       __imp_?setAutoAdd@QLayout@@UAEX_N@Z 00413524     qt-mt323:qt-mt323.dll
 0002:00000528       __imp_?setAutoDefault@QPushButton@@UAEX_N@Z 00413528     qt-mt323:qt-mt323.dll
 0002:0000052c       __imp_?setAutoMask@QWidget@@UAEX_N@Z 0041352c     qt-mt323:qt-mt323.dll
 0002:00000530       __imp_?setAutoRepeat@QButton@@UAEX_N@Z 00413530     qt-mt323:qt-mt323.dll
 0002:00000534       __imp_?setAutoResize@QLabel@@UAEX_N@Z 00413534     qt-mt323:qt-mt323.dll
 0002:00000538       __imp_?setBackgroundColor@QWidget@@UAEXABVQColor@@@Z 00413538     qt-mt323:qt-mt323.dll
 0002:0000053c       __imp_?setBackgroundMode@QWidget@@UAEXW4BackgroundMode@Qt@@@Z 0041353c     qt-mt323:qt-mt323.dll
 0002:00000540       __imp_?setBackgroundOrigin@QWidget@@UAEXW4BackgroundOrigin@1@@Z 00413540     qt-mt323:qt-mt323.dll
 0002:00000544       __imp_?setBackgroundPixmap@QWidget@@UAEXABVQPixmap@@@Z 00413544     qt-mt323:qt-mt323.dll
 0002:00000548       __imp_?setBuddy@QLabel@@UAEXPAVQWidget@@@Z 00413548     qt-mt323:qt-mt323.dll
 0002:0000054c       __imp_?setButtonSymbols@QSpinBox@@UAEXW4ButtonSymbols@1@@Z 0041354c     qt-mt323:qt-mt323.dll
 0002:00000550       __imp_?setCaption@QDockWindow@@UAEXABVQString@@@Z 00413550     qt-mt323:qt-mt323.dll
 0002:00000554       __imp_?setCheckable@QPopupMenu@@UAEX_N@Z 00413554     qt-mt323:qt-mt323.dll
 0002:00000558       __imp_?setCloseMode@QDockWindow@@UAEXH@Z 00413558     qt-mt323:qt-mt323.dll
 0002:0000055c       __imp_?setCursor@QWidget@@UAEXABVQCursor@@@Z 0041355c     qt-mt323:qt-mt323.dll
 0002:00000560       __imp_?setDefault@QPushButton@@UAEX_N@Z 00413560     qt-mt323:qt-mt323.dll
 0002:00000564       __imp_?setDockEnabled@QMainWindow@@UAEXPAVQDockWindow@@W4Dock@Qt@@_N@Z 00413564     qt-mt323:qt-mt323.dll
 0002:00000568       __imp_?setDockEnabled@QMainWindow@@UAEXW4Dock@Qt@@_N@Z 00413568     qt-mt323:qt-mt323.dll
 0002:0000056c       __imp_?setDockMenuEnabled@QMainWindow@@UAEX_N@Z 0041356c     qt-mt323:qt-mt323.dll
 0002:00000570       __imp_?setDockWindowsMovable@QMainWindow@@UAEX_N@Z 00413570     qt-mt323:qt-mt323.dll
 0002:00000574       __imp_?setDown@QButton@@UAEX_N@Z 00413574     qt-mt323:qt-mt323.dll
 0002:00000578       __imp_?setEnabled@QAction@@UAEX_N@Z 00413578     qt-mt323:qt-mt323.dll
 0002:0000057c       __imp_?setEnabled@QSpinBox@@UAEX_N@Z 0041357c     qt-mt323:qt-mt323.dll
 0002:00000580       __imp_?setEnabled@QWidget@@UAEX_N@Z 00413580     qt-mt323:qt-mt323.dll
 0002:00000584       __imp_?setEraseColor@QWidget@@UAEXABVQColor@@@Z 00413584     qt-mt323:qt-mt323.dll
 0002:00000588       __imp_?setErasePixmap@QWidget@@UAEXABVQPixmap@@@Z 00413588     qt-mt323:qt-mt323.dll
 0002:0000058c       __imp_?setFirstItemActive@QPopupMenu@@EAEXXZ 0041358c     qt-mt323:qt-mt323.dll
 0002:00000590       __imp_?setFixedExtentHeight@QDockWindow@@UAEXH@Z 00413590     qt-mt323:qt-mt323.dll
 0002:00000594       __imp_?setFixedExtentWidth@QDockWindow@@UAEXH@Z 00413594     qt-mt323:qt-mt323.dll
 0002:00000598       __imp_?setFocus@QWidget@@UAEXXZ 00413598     qt-mt323:qt-mt323.dll
 0002:0000059c       __imp_?setFocusPolicy@QWidget@@UAEXW4FocusPolicy@1@@Z 0041359c     qt-mt323:qt-mt323.dll
 0002:000005a0       __imp_?setFocusProxy@QWidget@@UAEXPAV1@@Z 004135a0     qt-mt323:qt-mt323.dll
 0002:000005a4       __imp_?setFont@QLabel@@UAEXABVQFont@@@Z 004135a4     qt-mt323:qt-mt323.dll
 0002:000005a8       __imp_?setFont@QPopupMenu@@UAEXABVQFont@@@Z 004135a8     qt-mt323:qt-mt323.dll
 0002:000005ac       __imp_?setFont@QWidget@@UAEXABVQFont@@@Z 004135ac     qt-mt323:qt-mt323.dll
 0002:000005b0       __imp_?setFrameRect@QFrame@@UAEXABVQRect@@@Z 004135b0     qt-mt323:qt-mt323.dll
 0002:000005b4       __imp_?setFrameStyle@QFrame@@UAEXH@Z 004135b4     qt-mt323:qt-mt323.dll
 0002:000005b8       __imp_?setGeometry@QBoxLayout@@UAEXABVQRect@@@Z 004135b8     qt-mt323:qt-mt323.dll
 0002:000005bc       __imp_?setGeometry@QPushButton@@UAEXABVQRect@@@Z 004135bc     qt-mt323:qt-mt323.dll
 0002:000005c0       __imp_?setGeometry@QPushButton@@UAEXHHHH@Z 004135c0     qt-mt323:qt-mt323.dll
 0002:000005c4       __imp_?setGeometry@QSpacerItem@@UAEXABVQRect@@@Z 004135c4     qt-mt323:qt-mt323.dll
 0002:000005c8       __imp_?setGeometry@QWidget@@UAEXABVQRect@@@Z 004135c8     qt-mt323:qt-mt323.dll
 0002:000005cc       __imp_?setGeometry@QWidget@@UAEXHHHH@Z 004135cc     qt-mt323:qt-mt323.dll
 0002:000005d0       __imp_?setGroup@QButton@@EAEXPAVQButtonGroup@@@Z 004135d0     qt-mt323:qt-mt323.dll
 0002:000005d4       __imp_?setHorizontallyStretchable@QDockWindow@@UAEX_N@Z 004135d4     qt-mt323:qt-mt323.dll
 0002:000005d8       __imp_?setIconSet@QAction@@UAEXABVQIconSet@@@Z 004135d8     qt-mt323:qt-mt323.dll
 0002:000005dc       __imp_?setIconText@QWidget@@UAEXABVQString@@@Z 004135dc     qt-mt323:qt-mt323.dll
 0002:000005e0       __imp_?setId@QMenuData@@UAEXHH@Z 004135e0     qt-mt323:qt-mt323.dll
 0002:000005e4       __imp_?setIsMenuButton@QPushButton@@UAEX_N@Z 004135e4     qt-mt323:qt-mt323.dll
 0002:000005e8       __imp_?setKeyCompression@QWidget@@MAEX_N@Z 004135e8     qt-mt323:qt-mt323.dll
 0002:000005ec       __imp_?setLabel@QToolBar@@UAEXABVQString@@@Z 004135ec     qt-mt323:qt-mt323.dll
 0002:000005f0       __imp_?setLineWidth@QFrame@@UAEXH@Z 004135f0     qt-mt323:qt-mt323.dll
 0002:000005f4       __imp_?setMargin@QFrame@@UAEXH@Z 004135f4     qt-mt323:qt-mt323.dll
 0002:000005f8       __imp_?setMargin@QLayout@@UAEXH@Z 004135f8     qt-mt323:qt-mt323.dll
 0002:000005fc       __imp_?setMask@QWidget@@UAEXABVQBitmap@@@Z 004135fc     qt-mt323:qt-mt323.dll
 0002:00000600       __imp_?setMask@QWidget@@UAEXABVQRegion@@@Z 00413600     qt-mt323:qt-mt323.dll
 0002:00000604       __imp_?setMaximumSize@QWidget@@UAEXHH@Z 00413604     qt-mt323:qt-mt323.dll
 0002:00000608       __imp_?setMenuBar@QLayout@@UAEXPAVQMenuBar@@@Z 00413608     qt-mt323:qt-mt323.dll
 0002:0000060c       __imp_?setMenuBar@QMainWindow@@EAEXPAVQMenuBar@@@Z 0041360c     qt-mt323:qt-mt323.dll
 0002:00000610       __imp_?setMenuText@QAction@@UAEXABVQString@@@Z 00413610     qt-mt323:qt-mt323.dll
 0002:00000614       __imp_?setMicroFocusHint@QWidget@@MAEXHHHH_NPAVQFont@@@Z 00413614     qt-mt323:qt-mt323.dll
 0002:00000618       __imp_?setMidLineWidth@QFrame@@UAEXH@Z 00413618     qt-mt323:qt-mt323.dll
 0002:0000061c       __imp_?setMinimumSize@QToolBar@@UAEXHH@Z 0041361c     qt-mt323:qt-mt323.dll
 0002:00000620       __imp_?setMinimumSize@QWidget@@UAEXHH@Z 00413620     qt-mt323:qt-mt323.dll
 0002:00000624       __imp_?setMouseTracking@QWidget@@UAEX_N@Z 00413624     qt-mt323:qt-mt323.dll
 0002:00000628       __imp_?setMovie@QLabel@@UAEXABVQMovie@@@Z 00413628     qt-mt323:qt-mt323.dll
 0002:0000062c       __imp_?setMovingEnabled@QDockWindow@@UAEX_N@Z 0041362c     qt-mt323:qt-mt323.dll
 0002:00000630       __imp_?setName@QObject@@UAEXPBD@Z 00413630     qt-mt323:qt-mt323.dll
 0002:00000634       __imp_?setName@QWidget@@UAEXPBD@Z 00413634     qt-mt323:qt-mt323.dll
 0002:00000638       __imp_?setNewLine@QDockWindow@@UAEX_N@Z 00413638     qt-mt323:qt-mt323.dll
 0002:0000063c       __imp_?setNum@QLabel@@UAEXH@Z 0041363c     qt-mt323:qt-mt323.dll
 0002:00000640       __imp_?setNum@QLabel@@UAEXN@Z 00413640     qt-mt323:qt-mt323.dll
 0002:00000644       __imp_?setOffset@QDockWindow@@UAEXH@Z 00413644     qt-mt323:qt-mt323.dll
 0002:00000648       __imp_?setOn@QAction@@UAEX_N@Z 00413648     qt-mt323:qt-mt323.dll
 0002:0000064c       __imp_?setOn@QPushButton@@UAEX_N@Z 0041364c     qt-mt323:qt-mt323.dll
 0002:00000650       __imp_?setOpaqueMoving@QDockWindow@@UAEX_N@Z 00413650     qt-mt323:qt-mt323.dll
 0002:00000654       __imp_?setOpaqueMoving@QMainWindow@@UAEX_N@Z 00413654     qt-mt323:qt-mt323.dll
 0002:00000658       __imp_?setOrientation@QToolBar@@UAEXW4Orientation@Qt@@@Z 00413658     qt-mt323:qt-mt323.dll
 0002:0000065c       __imp_?setPalette@QWidget@@UAEXABVQPalette@@@Z 0041365c     qt-mt323:qt-mt323.dll
 0002:00000660       __imp_?setPaletteBackgroundColor@QWidget@@UAEXABVQColor@@@Z 00413660     qt-mt323:qt-mt323.dll
 0002:00000664       __imp_?setPaletteBackgroundPixmap@QWidget@@UAEXABVQPixmap@@@Z 00413664     qt-mt323:qt-mt323.dll
 0002:00000668       __imp_?setPicture@QLabel@@UAEXABVQPicture@@@Z 00413668     qt-mt323:qt-mt323.dll
 0002:0000066c       __imp_?setPixmap@QButton@@UAEXABVQPixmap@@@Z 0041366c     qt-mt323:qt-mt323.dll
 0002:00000670       __imp_?setPixmap@QLabel@@UAEXABVQPixmap@@@Z 00413670     qt-mt323:qt-mt323.dll
 0002:00000674       __imp_?setPrefix@QSpinBox@@UAEXABVQString@@@Z 00413674     qt-mt323:qt-mt323.dll
 0002:00000678       __imp_?setProperty@QObject@@UAE_NPBDABVQVariant@@@Z 00413678     qt-mt323:qt-mt323.dll
 0002:0000067c       __imp_?setResizeEnabled@QDockWindow@@UAEX_N@Z 0041367c     qt-mt323:qt-mt323.dll
 0002:00000680       __imp_?setResolution@QPaintDevice@@UAEXH@Z 00413680     qt-mt323:qt-mt323.dll
 0002:00000684       __imp_?setRightJustification@QMainWindow@@UAEX_N@Z 00413684     qt-mt323:qt-mt323.dll
 0002:00000688       __imp_?setSizeIncrement@QWidget@@UAEXHH@Z 00413688     qt-mt323:qt-mt323.dll
 0002:0000068c       __imp_?setSizePolicy@QWidget@@UAEXVQSizePolicy@@@Z 0041368c     qt-mt323:qt-mt323.dll
 0002:00000690       __imp_?setSpacing@QLayout@@UAEXH@Z 00413690     qt-mt323:qt-mt323.dll
 0002:00000694       __imp_?setSpecialValueText@QSpinBox@@UAEXABVQString@@@Z 00413694     qt-mt323:qt-mt323.dll
 0002:00000698       __imp_?setState@QButton@@MAEXW4ToggleState@1@@Z 00413698     qt-mt323:qt-mt323.dll
 0002:0000069c       __imp_?setStatusBar@QMainWindow@@EAEXPAVQStatusBar@@@Z 0041369c     qt-mt323:qt-mt323.dll
 0002:000006a0       __imp_?setStatusTip@QAction@@UAEXABVQString@@@Z 004136a0     qt-mt323:qt-mt323.dll
 0002:000006a4       __imp_?setStretchableWidget@QToolBar@@UAEXPAVQWidget@@@Z 004136a4     qt-mt323:qt-mt323.dll
 0002:000006a8       __imp_?setSuffix@QSpinBox@@UAEXABVQString@@@Z 004136a8     qt-mt323:qt-mt323.dll
 0002:000006ac       __imp_?setText@QAction@@UAEXABVQString@@@Z 004136ac     qt-mt323:qt-mt323.dll
 0002:000006b0       __imp_?setText@QButton@@UAEXABVQString@@@Z 004136b0     qt-mt323:qt-mt323.dll
 0002:000006b4       __imp_?setText@QLabel@@UAEXABVQString@@@Z 004136b4     qt-mt323:qt-mt323.dll
 0002:000006b8       __imp_?setToggleAction@QAction@@UAEX_N@Z 004136b8     qt-mt323:qt-mt323.dll
 0002:000006bc       __imp_?setToggleType@QButton@@MAEXW4ToggleType@1@@Z 004136bc     qt-mt323:qt-mt323.dll
 0002:000006c0       __imp_?setToolTip@QAction@@UAEXABVQString@@@Z 004136c0     qt-mt323:qt-mt323.dll
 0002:000006c4       __imp_?setToolTipGroup@QMainWindow@@EAEXPAVQToolTipGroup@@@Z 004136c4     qt-mt323:qt-mt323.dll
 0002:000006c8       __imp_?setUpLayout@QMainWindow@@MAEXXZ 004136c8     qt-mt323:qt-mt323.dll
 0002:000006cc       __imp_?setUpdatesEnabled@QWidget@@UAEX_N@Z 004136cc     qt-mt323:qt-mt323.dll
 0002:000006d0       __imp_?setUsesBigPixmaps@QMainWindow@@UAEX_N@Z 004136d0     qt-mt323:qt-mt323.dll
 0002:000006d4       __imp_?setUsesTextLabel@QMainWindow@@UAEX_N@Z 004136d4     qt-mt323:qt-mt323.dll
 0002:000006d8       __imp_?setValidator@QSpinBox@@UAEXPBVQValidator@@@Z 004136d8     qt-mt323:qt-mt323.dll
 0002:000006dc       __imp_?setValue@QSpinBox@@UAEXH@Z 004136dc     qt-mt323:qt-mt323.dll
 0002:000006e0       __imp_?setVerticallyStretchable@QDockWindow@@UAEX_N@Z 004136e0     qt-mt323:qt-mt323.dll
 0002:000006e4       __imp_?setWFlags@QWidget@@MAEXI@Z 004136e4     qt-mt323:qt-mt323.dll
 0002:000006e8       __imp_?setWState@QWidget@@MAEXI@Z 004136e8     qt-mt323:qt-mt323.dll
 0002:000006ec       __imp_?setWhatsThis@QAction@@UAEXABVQString@@@Z 004136ec     qt-mt323:qt-mt323.dll
 0002:000006f0       __imp_?setWidget@QDockWindow@@UAEXPAVQWidget@@@Z 004136f0     qt-mt323:qt-mt323.dll
 0002:000006f4       __imp_?setWrapping@QSpinBox@@UAEX_N@Z 004136f4     qt-mt323:qt-mt323.dll
 0002:000006f8       __imp_?show@QMainWindow@@UAEXXZ 004136f8     qt-mt323:qt-mt323.dll
 0002:000006fc       __imp_?show@QPopupMenu@@UAEXXZ 004136fc     qt-mt323:qt-mt323.dll
 0002:00000700       __imp_?show@QToolBar@@UAEXXZ 00413700     qt-mt323:qt-mt323.dll
 0002:00000704       __imp_?show@QWidget@@UAEXXZ 00413704     qt-mt323:qt-mt323.dll
 0002:00000708       __imp_?showDockMenu@QMainWindow@@MAE_NABVQPoint@@@Z 00413708     qt-mt323:qt-mt323.dll
 0002:0000070c       __imp_?showEvent@QDockWindow@@MAEXPAVQShowEvent@@@Z 0041370c     qt-mt323:qt-mt323.dll
 0002:00000710       __imp_?showEvent@QWidget@@MAEXPAVQShowEvent@@@Z 00413710     qt-mt323:qt-mt323.dll
 0002:00000714       __imp_?showMaximized@QWidget@@UAEXXZ 00413714     qt-mt323:qt-mt323.dll
 0002:00000718       __imp_?showMinimized@QWidget@@UAEXXZ 00413718     qt-mt323:qt-mt323.dll
 0002:0000071c       __imp_?showNormal@QWidget@@UAEXXZ 0041371c     qt-mt323:qt-mt323.dll
 0002:00000720       __imp_?sizeHint@QBoxLayout@@UBE?AVQSize@@XZ 00413720     qt-mt323:qt-mt323.dll
 0002:00000724       __imp_?sizeHint@QCheckBox@@UBE?AVQSize@@XZ 00413724     qt-mt323:qt-mt323.dll
 0002:00000728       __imp_?sizeHint@QDockWindow@@UBE?AVQSize@@XZ 00413728     qt-mt323:qt-mt323.dll
 0002:0000072c       __imp_?sizeHint@QFrame@@UBE?AVQSize@@XZ 0041372c     qt-mt323:qt-mt323.dll
 0002:00000730       __imp_?sizeHint@QLabel@@UBE?AVQSize@@XZ 00413730     qt-mt323:qt-mt323.dll
 0002:00000734       __imp_?sizeHint@QMainWindow@@UBE?AVQSize@@XZ 00413734     qt-mt323:qt-mt323.dll
 0002:00000738       __imp_?sizeHint@QPopupMenu@@UBE?AVQSize@@XZ 00413738     qt-mt323:qt-mt323.dll
 0002:0000073c       __imp_?sizeHint@QPushButton@@UBE?AVQSize@@XZ 0041373c     qt-mt323:qt-mt323.dll
 0002:00000740       __imp_?sizeHint@QSpacerItem@@UBE?AVQSize@@XZ 00413740     qt-mt323:qt-mt323.dll
 0002:00000744       __imp_?sizeHint@QSpinBox@@UBE?AVQSize@@XZ 00413744     qt-mt323:qt-mt323.dll
 0002:00000748       __imp_?sizePolicy@QWidget@@UBE?AVQSizePolicy@@XZ 00413748     qt-mt323:qt-mt323.dll
 0002:0000074c       __imp_?spacerItem@QLayoutItem@@UAEPAVQSpacerItem@@XZ 0041374c     qt-mt323:qt-mt323.dll
 0002:00000750       __imp_?spacerItem@QSpacerItem@@UAEPAV1@XZ 00413750     qt-mt323:qt-mt323.dll
 0002:00000754       __imp_?stepChange@QRangeControl@@MAEXXZ 00413754     qt-mt323:qt-mt323.dll
 0002:00000758       __imp_?stepDown@QSpinBox@@UAEXXZ 00413758     qt-mt323:qt-mt323.dll
 0002:0000075c       __imp_?stepUp@QSpinBox@@UAEXXZ 0041375c     qt-mt323:qt-mt323.dll
 0002:00000760       __imp_?styleChange@QFrame@@MAEXAAVQStyle@@@Z 00413760     qt-mt323:qt-mt323.dll
 0002:00000764       __imp_?styleChange@QMainWindow@@MAEXAAVQStyle@@@Z 00413764     qt-mt323:qt-mt323.dll
 0002:00000768       __imp_?styleChange@QPopupMenu@@MAEXAAVQStyle@@@Z 00413768     qt-mt323:qt-mt323.dll
 0002:0000076c       __imp_?styleChange@QSpinBox@@MAEXAAVQStyle@@@Z 0041376c     qt-mt323:qt-mt323.dll
 0002:00000770       __imp_?styleChange@QToolBar@@MAEXAAVQStyle@@@Z 00413770     qt-mt323:qt-mt323.dll
 0002:00000774       __imp_?styleChange@QWidget@@MAEXAAVQStyle@@@Z 00413774     qt-mt323:qt-mt323.dll
 0002:00000778       __imp_?suffix@QSpinBox@@UBE?AVQString@@XZ 00413778     qt-mt323:qt-mt323.dll
 0002:0000077c       __imp_?tabletEvent@QWidget@@MAEXPAVQTabletEvent@@@Z 0041377c     qt-mt323:qt-mt323.dll
 0002:00000780       __imp_?timerEvent@QObject@@MAEXPAVQTimerEvent@@@Z 00413780     qt-mt323:qt-mt323.dll
 0002:00000784       __imp_?timerEvent@QPopupMenu@@MAEXPAVQTimerEvent@@@Z 00413784     qt-mt323:qt-mt323.dll
 0002:00000788       __imp_?undock@QDockWindow@@UAEXPAVQWidget@@@Z 00413788     qt-mt323:qt-mt323.dll
 0002:0000078c       __imp_?undock@QDockWindow@@UAEXXZ 0041378c     qt-mt323:qt-mt323.dll
 0002:00000790       __imp_?unsetCursor@QWidget@@UAEXXZ 00413790     qt-mt323:qt-mt323.dll
 0002:00000794       __imp_?updateDisplay@QSpinBox@@MAEXXZ 00413794     qt-mt323:qt-mt323.dll
 0002:00000798       __imp_?updateItem@QPopupMenu@@UAEXH@Z 00413798     qt-mt323:qt-mt323.dll
 0002:0000079c       __imp_?updateMask@QCheckBox@@MAEXXZ 0041379c     qt-mt323:qt-mt323.dll
 0002:000007a0       __imp_?updateMask@QPushButton@@MAEXXZ 004137a0     qt-mt323:qt-mt323.dll
 0002:000007a4       __imp_?updateMask@QWidget@@MAEXXZ 004137a4     qt-mt323:qt-mt323.dll
 0002:000007a8       __imp_?valueChange@QSpinBox@@MAEXXZ 004137a8     qt-mt323:qt-mt323.dll
 0002:000007ac       __imp_?whatsThis@QMainWindow@@UAEXXZ 004137ac     qt-mt323:qt-mt323.dll
 0002:000007b0       __imp_?wheelEvent@QSpinBox@@MAEXPAVQWheelEvent@@@Z 004137b0     qt-mt323:qt-mt323.dll
 0002:000007b4       __imp_?wheelEvent@QWidget@@MAEXPAVQWheelEvent@@@Z 004137b4     qt-mt323:qt-mt323.dll
 0002:000007b8       __imp_?widget@QLayoutItem@@UAEPAVQWidget@@XZ 004137b8     qt-mt323:qt-mt323.dll
 0002:000007bc       __imp_?winEvent@QWidget@@MAE_NPAUtagMSG@@@Z 004137bc     qt-mt323:qt-mt323.dll
 0002:000007c0       __imp_?windowActivationChange@QWidget@@MAEX_N@Z 004137c0     qt-mt323:qt-mt323.dll
 0002:000007c4       __imp_?null@QString@@2V1@A 004137c4     qt-mt323:qt-mt323.dll
 0002:000007c8       __imp_?qApp@@3PAVQApplication@@A 004137c8     qt-mt323:qt-mt323.dll
 0002:000007cc       __imp_?about@QMessageBox@@SAXPAVQWidget@@ABVQString@@1@Z 004137cc     qt-mt323:qt-mt323.dll
 0002:000007d0       __imp_??1QLineEdit@@UAE@XZ 004137d0     qt-mt323:qt-mt323.dll
 0002:000007d4       __imp_?keyPressEvent@QLineEdit@@MAEXPAVQKeyEvent@@@Z 004137d4     qt-mt323:qt-mt323.dll
 0002:000007d8       __imp_?clear@QLineEdit@@UAEXXZ 004137d8     qt-mt323:qt-mt323.dll
 0002:000007dc       __imp_?clearValidator@QLineEdit@@UAEXXZ 004137dc     qt-mt323:qt-mt323.dll
 0002:000007e0       __imp_?contextMenuEvent@QLineEdit@@MAEXPAVQContextMenuEvent@@@Z 004137e0     qt-mt323:qt-mt323.dll
 0002:000007e4       __imp_?copy@QLineEdit@@UBEXXZ 004137e4     qt-mt323:qt-mt323.dll
 0002:000007e8       __imp_?createPopupMenu@QLineEdit@@MAEPAVQPopupMenu@@XZ 004137e8     qt-mt323:qt-mt323.dll
 0002:000007ec       __imp_?cut@QLineEdit@@UAEXXZ 004137ec     qt-mt323:qt-mt323.dll
 0002:000007f0       __imp_?deselect@QLineEdit@@UAEXXZ 004137f0     qt-mt323:qt-mt323.dll
 0002:000007f4       __imp_?dragEnterEvent@QLineEdit@@MAEXPAVQDragEnterEvent@@@Z 004137f4     qt-mt323:qt-mt323.dll
 0002:000007f8       __imp_?dragLeaveEvent@QLineEdit@@MAEXPAVQDragLeaveEvent@@@Z 004137f8     qt-mt323:qt-mt323.dll
 0002:000007fc       __imp_?dragMoveEvent@QLineEdit@@MAEXPAVQDragMoveEvent@@@Z 004137fc     qt-mt323:qt-mt323.dll
 0002:00000800       __imp_?drawContents@QLineEdit@@MAEXPAVQPainter@@@Z 00413800     qt-mt323:qt-mt323.dll
 0002:00000804       __imp_?dropEvent@QLineEdit@@MAEXPAVQDropEvent@@@Z 00413804     qt-mt323:qt-mt323.dll
 0002:00000808       __imp_?event@QLineEdit@@MAE_NPAVQEvent@@@Z 00413808     qt-mt323:qt-mt323.dll
 0002:0000080c       __imp_?focusInEvent@QLineEdit@@MAEXPAVQFocusEvent@@@Z 0041380c     qt-mt323:qt-mt323.dll
 0002:00000810       __imp_?focusOutEvent@QLineEdit@@MAEXPAVQFocusEvent@@@Z 00413810     qt-mt323:qt-mt323.dll
 0002:00000814       __imp_?imComposeEvent@QLineEdit@@MAEXPAVQIMEvent@@@Z 00413814     qt-mt323:qt-mt323.dll
 0002:00000818       __imp_?imEndEvent@QLineEdit@@MAEXPAVQIMEvent@@@Z 00413818     qt-mt323:qt-mt323.dll
 0002:0000081c       __imp_?imStartEvent@QLineEdit@@MAEXPAVQIMEvent@@@Z 0041381c     qt-mt323:qt-mt323.dll
 0002:00000820       __imp_?insert@QLineEdit@@UAEXABVQString@@@Z 00413820     qt-mt323:qt-mt323.dll
 0002:00000824       __imp_?minimumSizeHint@QLineEdit@@UBE?AVQSize@@XZ 00413824     qt-mt323:qt-mt323.dll
 0002:00000828       __imp_?mouseDoubleClickEvent@QLineEdit@@MAEXPAVQMouseEvent@@@Z 00413828     qt-mt323:qt-mt323.dll
 0002:0000082c       __imp_?mouseMoveEvent@QLineEdit@@MAEXPAVQMouseEvent@@@Z 0041382c     qt-mt323:qt-mt323.dll
 0002:00000830       __imp_?mousePressEvent@QLineEdit@@MAEXPAVQMouseEvent@@@Z 00413830     qt-mt323:qt-mt323.dll
 0002:00000834       __imp_?mouseReleaseEvent@QLineEdit@@MAEXPAVQMouseEvent@@@Z 00413834     qt-mt323:qt-mt323.dll
 0002:00000838       __imp_?paste@QLineEdit@@UAEXXZ 00413838     qt-mt323:qt-mt323.dll
 0002:0000083c       __imp_?redo@QLineEdit@@UAEXXZ 0041383c     qt-mt323:qt-mt323.dll
 0002:00000840       __imp_?resizeEvent@QLineEdit@@MAEXPAVQResizeEvent@@@Z 00413840     qt-mt323:qt-mt323.dll
 0002:00000844       __imp_?selectAll@QLineEdit@@UAEXXZ 00413844     qt-mt323:qt-mt323.dll
 0002:00000848       __imp_?setAlignment@QLineEdit@@UAEXH@Z 00413848     qt-mt323:qt-mt323.dll
 0002:0000084c       __imp_?setCursorPosition@QLineEdit@@UAEXH@Z 0041384c     qt-mt323:qt-mt323.dll
 0002:00000850       __imp_?setDragEnabled@QLineEdit@@UAEX_N@Z 00413850     qt-mt323:qt-mt323.dll
 0002:00000854       __imp_?setEchoMode@QLineEdit@@UAEXW4EchoMode@1@@Z 00413854     qt-mt323:qt-mt323.dll
 0002:00000858       __imp_?setFont@QLineEdit@@UAEXABVQFont@@@Z 00413858     qt-mt323:qt-mt323.dll
 0002:0000085c       __imp_?setFrame@QLineEdit@@UAEX_N@Z 0041385c     qt-mt323:qt-mt323.dll
 0002:00000860       __imp_?setMaxLength@QLineEdit@@UAEXH@Z 00413860     qt-mt323:qt-mt323.dll
 0002:00000864       __imp_?setPalette@QLineEdit@@UAEXABVQPalette@@@Z 00413864     qt-mt323:qt-mt323.dll
 0002:00000868       __imp_?setReadOnly@QLineEdit@@UAEX_N@Z 00413868     qt-mt323:qt-mt323.dll
 0002:0000086c       __imp_?adjustSize@QWidget@@UAEXXZ 0041386c     qt-mt323:qt-mt323.dll
 0002:00000870       __imp_?setText@QLineEdit@@UAEXABVQString@@@Z 00413870     qt-mt323:qt-mt323.dll
 0002:00000874       __imp_?setValidator@QLineEdit@@UAEXPBVQValidator@@@Z 00413874     qt-mt323:qt-mt323.dll
 0002:00000878       __imp_?sizeHint@QLineEdit@@UBE?AVQSize@@XZ 00413878     qt-mt323:qt-mt323.dll
 0002:0000087c       __imp_?undo@QLineEdit@@UAEXXZ 0041387c     qt-mt323:qt-mt323.dll
 0002:00000880       __imp_?windowActivationChange@QLineEdit@@MAEX_N@Z 00413880     qt-mt323:qt-mt323.dll
 0002:00000884       __imp_?arg@QString@@QBE?AV1@HHH@Z 00413884     qt-mt323:qt-mt323.dll
 0002:00000888       __imp_?ascii@QString@@QBEPBDXZ 00413888     qt-mt323:qt-mt323.dll
 0002:0000088c       __imp_??0QGList@@IAE@XZ    0041388c     qt-mt323:qt-mt323.dll
 0002:00000890       __imp_??1QGList@@MAE@XZ    00413890     qt-mt323:qt-mt323.dll
 0002:00000894       __imp_?append@QGList@@IAEXPAX@Z 00413894     qt-mt323:qt-mt323.dll
 0002:00000898       __imp_?clear@QGList@@MAEXXZ 00413898     qt-mt323:qt-mt323.dll
 0002:0000089c       __imp_?first@QGList@@IAEPAXXZ 0041389c     qt-mt323:qt-mt323.dll
 0002:000008a0       __imp_?next@QGList@@IAEPAXXZ 004138a0     qt-mt323:qt-mt323.dll
 0002:000008a4       __imp_??0QWidget@@QAE@PAV0@PBDI@Z 004138a4     qt-mt323:qt-mt323.dll
 0002:000008a8       __imp_??0QHBoxLayout@@QAE@HPBD@Z 004138a8     qt-mt323:qt-mt323.dll
 0002:000008ac       __imp_?compareItems@QGList@@MAEHPAX0@Z 004138ac     qt-mt323:qt-mt323.dll
 0002:000008b0       __imp_?newItem@QPtrCollection@@MAEPAXPAX@Z 004138b0     qt-mt323:qt-mt323.dll
 0002:000008b4       __imp_?read@QGList@@MAEAAVQDataStream@@AAV2@AAPAX@Z 004138b4     qt-mt323:qt-mt323.dll
 0002:000008b8       __imp_?sizeHint@QWidget@@UBE?AVQSize@@XZ 004138b8     qt-mt323:qt-mt323.dll
 0002:000008bc       __imp_?write@QGList@@MBEAAVQDataStream@@AAV2@PAX@Z 004138bc     qt-mt323:qt-mt323.dll
 0002:000008c0       __imp_?find@QString@@QBEHVQChar@@H_N@Z 004138c0     qt-mt323:qt-mt323.dll
 0002:000008c4       __imp_?contains@QString@@QBEHPBD_N@Z 004138c4     qt-mt323:qt-mt323.dll
 0002:000008c8       __imp_?section@QString@@QBE?AV1@PBDHHH@Z 004138c8     qt-mt323:qt-mt323.dll
 0002:000008cc       __imp_?section@QString@@QBE?AV1@ABVQRegExp@@HHH@Z 004138cc     qt-mt323:qt-mt323.dll
 0002:000008d0       __imp_?left@QString@@QBE?AV1@I@Z 004138d0     qt-mt323:qt-mt323.dll
 0002:000008d4       __imp_?mid@QString@@QBE?AV1@II@Z 004138d4     qt-mt323:qt-mt323.dll
 0002:000008d8       __imp_?stripWhiteSpace@QString@@QBE?AV1@XZ 004138d8     qt-mt323:qt-mt323.dll
 0002:000008dc       __imp_?remove@QString@@QAEAAV1@II@Z 004138dc     qt-mt323:qt-mt323.dll
 0002:000008e0       __imp_?replace@QString@@QAEAAV1@ABV1@0@Z 004138e0     qt-mt323:qt-mt323.dll
 0002:000008e4       __imp_?setNum@QString@@QAEAAV1@_JH@Z 004138e4     qt-mt323:qt-mt323.dll
 0002:000008e8       __imp_?number@QString@@SA?AV1@HH@Z 004138e8     qt-mt323:qt-mt323.dll
 0002:000008ec       __imp_??YQString@@QAEAAV0@ABV0@@Z 004138ec     qt-mt323:qt-mt323.dll
 0002:000008f0       __imp_?at@QString@@QBE?AVQChar@@I@Z 004138f0     qt-mt323:qt-mt323.dll
 0002:000008f4       __imp_?startsWith@QString@@QBE_NABV1@@Z 004138f4     qt-mt323:qt-mt323.dll
 0002:000008f8       __imp_?setLength@QString@@QAEXI@Z 004138f8     qt-mt323:qt-mt323.dll
 0002:000008fc       __imp_??H@YA?BVQString@@PBDABV0@@Z 004138fc     qt-mt323:qt-mt323.dll
 0002:00000900       __imp_??0?$QMap@VQString@@V1@@@QAE@XZ 00413900     qt-mt323:qt-mt323.dll
 0002:00000904       __imp_??1?$QMap@VQString@@V1@@@QAE@XZ 00413904     qt-mt323:qt-mt323.dll
 0002:00000908       __imp_?end@?$QMap@VQString@@V1@@@QAE?AV?$QMapIterator@VQString@@V1@@@XZ 00413908     qt-mt323:qt-mt323.dll
 0002:0000090c       __imp_?find@?$QMap@VQString@@V1@@@QAE?AV?$QMapIterator@VQString@@V1@@@ABVQString@@@Z 0041390c     qt-mt323:qt-mt323.dll
 0002:00000910       __imp_?insert@?$QMap@VQString@@V1@@@QAE?AV?$QMapIterator@VQString@@V1@@@ABVQString@@0_N@Z 00413910     qt-mt323:qt-mt323.dll
 0002:00000914       __imp_??0?$QMap@VQString@@H@@QAE@XZ 00413914     qt-mt323:qt-mt323.dll
 0002:00000918       __imp_??1?$QMap@VQString@@H@@QAE@XZ 00413918     qt-mt323:qt-mt323.dll
 0002:0000091c       __imp_?end@?$QMap@VQString@@H@@QAE?AV?$QMapIterator@VQString@@H@@XZ 0041391c     qt-mt323:qt-mt323.dll
 0002:00000920       __imp_?find@?$QMap@VQString@@H@@QAE?AV?$QMapIterator@VQString@@H@@ABVQString@@@Z 00413920     qt-mt323:qt-mt323.dll
 0002:00000924       __imp_?insert@?$QMap@VQString@@H@@QAE?AV?$QMapIterator@VQString@@H@@ABVQString@@ABH_N@Z 00413924     qt-mt323:qt-mt323.dll
 0002:00000928       __imp_?inherits@QObject@@QBE_NPBD@Z 00413928     qt-mt323:qt-mt323.dll
 0002:0000092c       __imp_?topLevelWidget@QWidget@@QBEPAV1@XZ 0041392c     qt-mt323:qt-mt323.dll
 0002:00000930       __imp_??0QHBoxLayout@@QAE@PAVQWidget@@HHPBD@Z 00413930     qt-mt323:qt-mt323.dll
 0002:00000934       __imp_??0QCheckBox@@QAE@PAVQWidget@@PBD@Z 00413934     qt-mt323:qt-mt323.dll
 0002:00000938       __imp_?cursorPosition@QLineEdit@@QBEHXZ 00413938     qt-mt323:qt-mt323.dll
 0002:0000093c       __imp_??0QRegExp@@QAE@ABVQString@@_N1@Z 0041393c     qt-mt323:qt-mt323.dll
 0002:00000940       __imp_??1QRegExp@@QAE@XZ   00413940     qt-mt323:qt-mt323.dll
 0002:00000944       __imp_?message@QStatusBar@@QAEXABVQString@@@Z 00413944     qt-mt323:qt-mt323.dll
 0002:00000948       __imp_??0QApplication@@QAE@AAHPAPAD@Z 00413948     qt-mt323:qt-mt323.dll
 0002:0000094c       __imp_??1QApplication@@UAE@XZ 0041394c     qt-mt323:qt-mt323.dll
 0002:00000950       __imp_?setMainWidget@QApplication@@UAEXPAVQWidget@@@Z 00413950     qt-mt323:qt-mt323.dll
 0002:00000954       __imp_?exec@QApplication@@QAEHXZ 00413954     qt-mt323:qt-mt323.dll
 0002:00000958       __imp_?warning@QMessageBox@@SAHPAVQWidget@@ABVQString@@1111HH@Z 00413958     qt-mt323:qt-mt323.dll
 0002:0000095c       __imp_?fromLatin1@QString@@SA?AV1@PBDH@Z 0041395c     qt-mt323:qt-mt323.dll
 0002:00000960       __imp_?activate_signal@QObject@@IAEXH@Z 00413960     qt-mt323:qt-mt323.dll
 0002:00000964       __imp_?qt_cast@QLineEdit@@UAEPAXPBD@Z 00413964     qt-mt323:qt-mt323.dll
 0002:00000968       __imp_?qt_invoke@QLineEdit@@UAE_NHPAUQUObject@@@Z 00413968     qt-mt323:qt-mt323.dll
 0002:0000096c       __imp_?qt_emit@QLineEdit@@UAE_NHPAUQUObject@@@Z 0041396c     qt-mt323:qt-mt323.dll
 0002:00000970       __imp_?qt_property@QLineEdit@@UAE_NHHPAVQVariant@@@Z 00413970     qt-mt323:qt-mt323.dll
 0002:00000974       __imp_?staticMetaObject@QLineEdit@@SAPAVQMetaObject@@XZ 00413974     qt-mt323:qt-mt323.dll
 0002:00000978       __imp_?new_metaobject@QMetaObject@@SAPAV1@PBDPAV1@QBUQMetaData@@H2HQBVQMetaProperty@@HQBUQMetaEnum@@HQBUQClassInfo@@H@Z 00413978     qt-mt323:qt-mt323.dll
 0002:0000097c       __imp_??0QMetaObjectCleanUp@@QAE@PBDP6APAVQMetaObject@@XZ@Z 0041397c     qt-mt323:qt-mt323.dll
 0002:00000980       __imp_??1QMetaObjectCleanUp@@QAE@XZ 00413980     qt-mt323:qt-mt323.dll
 0002:00000984       __imp_?setMetaObject@QMetaObjectCleanUp@@QAEXAAPAVQMetaObject@@@Z 00413984     qt-mt323:qt-mt323.dll
 0002:00000988       __imp_?translate@QApplication@@QBE?AVQString@@PBD00W4Encoding@1@@Z 00413988     qt-mt323:qt-mt323.dll
 0002:0000098c       __imp_?static_QUType_QString@@3UQUType_QString@@A 0041398c     qt-mt323:qt-mt323.dll
 0002:00000990       __imp_?sprintf@QString@@QAAAAV1@PBDZZ 00413990     qt-mt323:qt-mt323.dll
 0002:00000994       __imp_?setMaxLogLines@QTextEdit@@QAEXH@Z 00413994     qt-mt323:qt-mt323.dll
 0002:00000998       __imp_?toString@QTime@@QBE?AVQString@@ABV2@@Z 00413998     qt-mt323:qt-mt323.dll
 0002:0000099c       __imp_?currentTime@QTime@@SA?AV1@XZ 0041399c     qt-mt323:qt-mt323.dll
 0002:000009a0       __imp_?insertItem@QListBox@@QAEXABVQString@@H@Z 004139a0     qt-mt323:qt-mt323.dll
 0002:000009a4       __imp_?clear@QListBox@@QAEXXZ 004139a4     qt-mt323:qt-mt323.dll
 0002:000009a8       __imp_?qt_cast@QMainWindow@@UAEPAXPBD@Z 004139a8     qt-mt323:qt-mt323.dll
 0002:000009ac       __imp_?qt_invoke@QMainWindow@@UAE_NHPAUQUObject@@@Z 004139ac     qt-mt323:qt-mt323.dll
 0002:000009b0       __imp_?qt_emit@QMainWindow@@UAE_NHPAUQUObject@@@Z 004139b0     qt-mt323:qt-mt323.dll
 0002:000009b4       __imp_?qt_property@QMainWindow@@UAE_NHHPAVQVariant@@@Z 004139b4     qt-mt323:qt-mt323.dll
 0002:000009b8       __imp_?staticMetaObject@QMainWindow@@SAPAVQMetaObject@@XZ 004139b8     qt-mt323:qt-mt323.dll
 0002:000009bc       __imp_?get@QUType_QVariant@@QAEAAVQVariant@@PAUQUObject@@@Z 004139bc     qt-mt323:qt-mt323.dll
 0002:000009c0       __imp_?static_QUType_ptr@@3UQUType_ptr@@A 004139c0     qt-mt323:qt-mt323.dll
 0002:000009c4       __imp_?static_QUType_bool@@3UQUType_bool@@A 004139c4     qt-mt323:qt-mt323.dll
 0002:000009c8       __imp_?static_QUType_int@@3UQUType_int@@A 004139c8     qt-mt323:qt-mt323.dll
 0002:000009cc       __imp_?static_QUType_QVariant@@3UQUType_QVariant@@A 004139cc     qt-mt323:qt-mt323.dll
 0002:000009d0       __imp_??1QVariant@@QAE@XZ  004139d0     qt-mt323:qt-mt323.dll
 0002:000009d4       __imp_??0QVariant@@QAE@ABVQStringList@@@Z 004139d4     qt-mt323:qt-mt323.dll
 0002:000009d8       __imp_?receivers@QObject@@IBEPAVQConnectionList@@H@Z 004139d8     qt-mt323:qt-mt323.dll
 0002:000009dc       __imp_?activate_signal@QObject@@IAEXHVQString@@@Z 004139dc     qt-mt323:qt-mt323.dll
 0002:000009e0       __imp_?activate_signal_bool@QObject@@IAEXH_N@Z 004139e0     qt-mt323:qt-mt323.dll
 0002:000009e4       __imp_?activate_signal@QObject@@IAEXPAVQConnectionList@@PAUQUObject@@@Z 004139e4     qt-mt323:qt-mt323.dll
 0002:000009e8       __imp_?qt_cast@QWidget@@UAEPAXPBD@Z 004139e8     qt-mt323:qt-mt323.dll
 0002:000009ec       __imp_?qt_invoke@QWidget@@UAE_NHPAUQUObject@@@Z 004139ec     qt-mt323:qt-mt323.dll
 0002:000009f0       __imp_?qt_emit@QWidget@@UAE_NHPAUQUObject@@@Z 004139f0     qt-mt323:qt-mt323.dll
 0002:000009f4       __imp_?qt_property@QWidget@@UAE_NHHPAVQVariant@@@Z 004139f4     qt-mt323:qt-mt323.dll
 0002:000009f8       __imp_?staticMetaObject@QWidget@@SAPAVQMetaObject@@XZ 004139f8     qt-mt323:qt-mt323.dll
 0002:000009fc       __imp_??0QUObject@@QAE@XZ  004139fc     qt-mt323:qt-mt323.dll
 0002:00000a00       __imp_??1QUObject@@QAE@XZ  00413a00     qt-mt323:qt-mt323.dll
 0002:00000a04       __imp_?set@QUType_int@@QAEXPAUQUObject@@H@Z 00413a04     qt-mt323:qt-mt323.dll
 0002:00000a08       __imp_?set@QUType_QVariant@@QAEXPAUQUObject@@ABVQVariant@@@Z 00413a08     qt-mt323:qt-mt323.dll
 0002:00000a0c       __imp_?static_QUType_varptr@@3UQUType_varptr@@A 00413a0c     qt-mt323:qt-mt323.dll
 0002:00000a10       __imp_?activate_signal@QObject@@IAEXHH@Z 00413a10     qt-mt323:qt-mt323.dll
 0002:00000a14       __imp_?set@QUType_bool@@QAEXPAUQUObject@@_N@Z 00413a14     qt-mt323:qt-mt323.dll
 0002:00000a18       __imp_?set@QUType_QString@@QAEXPAUQUObject@@ABVQString@@@Z 00413a18     qt-mt323:qt-mt323.dll
 0002:00000a1c       __imp_?resize@QWidget@@QAEXABVQSize@@@Z 00413a1c     qt-mt323:qt-mt323.dll
 0002:00000a20       __imp_??0QPushButton@@QAE@PAVQWidget@@PBD@Z 00413a20     qt-mt323:qt-mt323.dll
 0002:00000a24       __imp_?setFrameShape@QFrame@@QAEXW4Shape@1@@Z 00413a24     qt-mt323:qt-mt323.dll
 0002:00000a28       __imp_?setFrameShadow@QFrame@@QAEXW4Shadow@1@@Z 00413a28     qt-mt323:qt-mt323.dll
 0002:00000a2c       __imp_??0QTextEdit@@QAE@PAVQWidget@@PBD@Z 00413a2c     qt-mt323:qt-mt323.dll
 0002:00000a30       __imp_??1QTextEdit@@UAE@XZ 00413a30     qt-mt323:qt-mt323.dll
 0002:00000a34       __imp_?setAutoFormatting@QTextEdit@@QAEXI@Z 00413a34     qt-mt323:qt-mt323.dll
 0002:00000a38       __imp_??0QLabel@@QAE@PAVQWidget@@PBDI@Z 00413a38     qt-mt323:qt-mt323.dll
 0002:00000a3c       __imp_??0QSpinBox@@QAE@PAVQWidget@@PBD@Z 00413a3c     qt-mt323:qt-mt323.dll
 0002:00000a40       __imp_?setMinValue@QSpinBox@@QAEXH@Z 00413a40     qt-mt323:qt-mt323.dll
 0002:00000a44       __imp_??0QListBox@@QAE@PAVQWidget@@PBDI@Z 00413a44     qt-mt323:qt-mt323.dll
 0002:00000a48       __imp_??1QListBox@@UAE@XZ  00413a48     qt-mt323:qt-mt323.dll
 0002:00000a4c       __imp_??0QGroupBox@@QAE@PAVQWidget@@PBD@Z 00413a4c     qt-mt323:qt-mt323.dll
 0002:00000a50       __imp_??1QGroupBox@@UAE@XZ 00413a50     qt-mt323:qt-mt323.dll
 0002:00000a54       __imp_??0QGridLayout@@QAE@PAVQWidget@@HHHHPBD@Z 00413a54     qt-mt323:qt-mt323.dll
 0002:00000a58       __imp_??0QGridLayout@@QAE@PAVQLayout@@HHHPBD@Z 00413a58     qt-mt323:qt-mt323.dll
 0002:00000a5c       __imp_??1QGridLayout@@UAE@XZ 00413a5c     qt-mt323:qt-mt323.dll
 0002:00000a60       __imp_?addWidget@QGridLayout@@QAEXPAVQWidget@@HHH@Z 00413a60     qt-mt323:qt-mt323.dll
 0002:00000a64       __imp_?addMultiCellWidget@QGridLayout@@QAEXPAVQWidget@@HHHHH@Z 00413a64     qt-mt323:qt-mt323.dll
 0002:00000a68       __imp_?addLayout@QGridLayout@@QAEXPAVQLayout@@HH@Z 00413a68     qt-mt323:qt-mt323.dll
 0002:00000a6c       __imp_?addChild@QScrollView@@UAEXPAVQWidget@@HH@Z 00413a6c     qt-mt323:qt-mt323.dll
 0002:00000a70       __imp_?addItem@QGridLayout@@UAEXPAVQLayoutItem@@@Z 00413a70     qt-mt323:qt-mt323.dll
 0002:00000a74       __imp_?append@QTextEdit@@UAEXABVQString@@@Z 00413a74     qt-mt323:qt-mt323.dll
 0002:00000a78       __imp_?childEvent@QGroupBox@@MAEXPAVQChildEvent@@@Z 00413a78     qt-mt323:qt-mt323.dll
 0002:00000a7c       __imp_?className@QGridLayout@@UBEPBDXZ 00413a7c     qt-mt323:qt-mt323.dll
 0002:00000a80       __imp_?className@QGroupBox@@UBEPBDXZ 00413a80     qt-mt323:qt-mt323.dll
 0002:00000a84       __imp_?className@QLineEdit@@UBEPBDXZ 00413a84     qt-mt323:qt-mt323.dll
 0002:00000a88       __imp_?className@QListBox@@UBEPBDXZ 00413a88     qt-mt323:qt-mt323.dll
 0002:00000a8c       __imp_?className@QTextEdit@@UBEPBDXZ 00413a8c     qt-mt323:qt-mt323.dll
 0002:00000a90       __imp_?clear@QTextEdit@@UAEXXZ 00413a90     qt-mt323:qt-mt323.dll
 0002:00000a94       __imp_?clearParagraphBackground@QTextEdit@@UAEXH@Z 00413a94     qt-mt323:qt-mt323.dll
 0002:00000a98       __imp_?clearSelection@QListBox@@UAEXXZ 00413a98     qt-mt323:qt-mt323.dll
 0002:00000a9c       __imp_?contentsContextMenuEvent@QListBox@@MAEXPAVQContextMenuEvent@@@Z 00413a9c     qt-mt323:qt-mt323.dll
 0002:00000aa0       __imp_?contentsContextMenuEvent@QTextEdit@@MAEXPAVQContextMenuEvent@@@Z 00413aa0     qt-mt323:qt-mt323.dll
 0002:00000aa4       __imp_?contentsDragEnterEvent@QScrollView@@MAEXPAVQDragEnterEvent@@@Z 00413aa4     qt-mt323:qt-mt323.dll
 0002:00000aa8       __imp_?contentsDragEnterEvent@QTextEdit@@MAEXPAVQDragEnterEvent@@@Z 00413aa8     qt-mt323:qt-mt323.dll
 0002:00000aac       __imp_?contentsDragLeaveEvent@QScrollView@@MAEXPAVQDragLeaveEvent@@@Z 00413aac     qt-mt323:qt-mt323.dll
 0002:00000ab0       __imp_?contentsDragLeaveEvent@QTextEdit@@MAEXPAVQDragLeaveEvent@@@Z 00413ab0     qt-mt323:qt-mt323.dll
 0002:00000ab4       __imp_?contentsDragMoveEvent@QScrollView@@MAEXPAVQDragMoveEvent@@@Z 00413ab4     qt-mt323:qt-mt323.dll
 0002:00000ab8       __imp_?contentsDragMoveEvent@QTextEdit@@MAEXPAVQDragMoveEvent@@@Z 00413ab8     qt-mt323:qt-mt323.dll
 0002:00000abc       __imp_?contentsDropEvent@QScrollView@@MAEXPAVQDropEvent@@@Z 00413abc     qt-mt323:qt-mt323.dll
 0002:00000ac0       __imp_?contentsDropEvent@QTextEdit@@MAEXPAVQDropEvent@@@Z 00413ac0     qt-mt323:qt-mt323.dll
 0002:00000ac4       __imp_?contentsMouseDoubleClickEvent@QScrollView@@MAEXPAVQMouseEvent@@@Z 00413ac4     qt-mt323:qt-mt323.dll
 0002:00000ac8       __imp_?contentsMouseDoubleClickEvent@QTextEdit@@MAEXPAVQMouseEvent@@@Z 00413ac8     qt-mt323:qt-mt323.dll
 0002:00000acc       __imp_?contentsMouseMoveEvent@QScrollView@@MAEXPAVQMouseEvent@@@Z 00413acc     qt-mt323:qt-mt323.dll
 0002:00000ad0       __imp_?contentsMouseMoveEvent@QTextEdit@@MAEXPAVQMouseEvent@@@Z 00413ad0     qt-mt323:qt-mt323.dll
 0002:00000ad4       __imp_?contentsMousePressEvent@QScrollView@@MAEXPAVQMouseEvent@@@Z 00413ad4     qt-mt323:qt-mt323.dll
 0002:00000ad8       __imp_?contentsMousePressEvent@QTextEdit@@MAEXPAVQMouseEvent@@@Z 00413ad8     qt-mt323:qt-mt323.dll
 0002:00000adc       __imp_?contentsMouseReleaseEvent@QScrollView@@MAEXPAVQMouseEvent@@@Z 00413adc     qt-mt323:qt-mt323.dll
 0002:00000ae0       __imp_?contentsMouseReleaseEvent@QTextEdit@@MAEXPAVQMouseEvent@@@Z 00413ae0     qt-mt323:qt-mt323.dll
 0002:00000ae4       __imp_?contentsWheelEvent@QScrollView@@MAEXPAVQWheelEvent@@@Z 00413ae4     qt-mt323:qt-mt323.dll
 0002:00000ae8       __imp_?contentsWheelEvent@QTextEdit@@MAEXPAVQWheelEvent@@@Z 00413ae8     qt-mt323:qt-mt323.dll
 0002:00000aec       __imp_?contextMenuEvent@QScrollView@@MAEXPAVQContextMenuEvent@@@Z 00413aec     qt-mt323:qt-mt323.dll
 0002:00000af0       __imp_?copy@QTextEdit@@UAEXXZ 00413af0     qt-mt323:qt-mt323.dll
 0002:00000af4       __imp_?createPopupMenu@QTextEdit@@MAEPAVQPopupMenu@@ABVQPoint@@@Z 00413af4     qt-mt323:qt-mt323.dll
 0002:00000af8       __imp_?createPopupMenu@QTextEdit@@MAEPAVQPopupMenu@@XZ 00413af8     qt-mt323:qt-mt323.dll
 0002:00000afc       __imp_?cut@QTextEdit@@UAEXXZ 00413afc     qt-mt323:qt-mt323.dll
 0002:00000b00       __imp_?del@QTextEdit@@UAEXXZ 00413b00     qt-mt323:qt-mt323.dll
 0002:00000b04       __imp_?doChangeInterval@QTextEdit@@MAEXXZ 00413b04     qt-mt323:qt-mt323.dll
 0002:00000b08       __imp_?doKeyboardAction@QTextEdit@@UAEXW4KeyboardAction@1@@Z 00413b08     qt-mt323:qt-mt323.dll
 0002:00000b0c       __imp_?drawContents@QScrollView@@EAEXPAVQPainter@@@Z 00413b0c     qt-mt323:qt-mt323.dll
 0002:00000b10       __imp_?drawContents@QScrollView@@MAEXPAVQPainter@@HHHH@Z 00413b10     qt-mt323:qt-mt323.dll
 0002:00000b14       __imp_?drawContents@QTextEdit@@EAEXPAVQPainter@@@Z 00413b14     qt-mt323:qt-mt323.dll
 0002:00000b18       __imp_?drawContents@QTextEdit@@MAEXPAVQPainter@@HHHH@Z 00413b18     qt-mt323:qt-mt323.dll
 0002:00000b1c       __imp_?drawContentsOffset@QScrollView@@MAEXPAVQPainter@@HHHHHH@Z 00413b1c     qt-mt323:qt-mt323.dll
 0002:00000b20       __imp_?emitHighlighted@QTextEdit@@EAEXABVQString@@@Z 00413b20     qt-mt323:qt-mt323.dll
 0002:00000b24       __imp_?emitLinkClicked@QTextEdit@@EAEXABVQString@@@Z 00413b24     qt-mt323:qt-mt323.dll
 0002:00000b28       __imp_?ensureCurrentVisible@QListBox@@UAEXXZ 00413b28     qt-mt323:qt-mt323.dll
 0002:00000b2c       __imp_?ensureCursorVisible@QTextEdit@@UAEXXZ 00413b2c     qt-mt323:qt-mt323.dll
 0002:00000b30       __imp_?event@QGroupBox@@MAE_NPAVQEvent@@@Z 00413b30     qt-mt323:qt-mt323.dll
 0002:00000b34       __imp_?event@QTextEdit@@MAE_NPAVQEvent@@@Z 00413b34     qt-mt323:qt-mt323.dll
 0002:00000b38       __imp_?eventFilter@QListBox@@MAE_NPAVQObject@@PAVQEvent@@@Z 00413b38     qt-mt323:qt-mt323.dll
 0002:00000b3c       __imp_?eventFilter@QTextEdit@@UAE_NPAVQObject@@PAVQEvent@@@Z 00413b3c     qt-mt323:qt-mt323.dll
 0002:00000b40       __imp_?expanding@QGridLayout@@UBE?AW4ExpandData@QSizePolicy@@XZ 00413b40     qt-mt323:qt-mt323.dll
 0002:00000b44       __imp_?find@QTextEdit@@UAE_NABVQString@@_N11PAH2@Z 00413b44     qt-mt323:qt-mt323.dll
 0002:00000b48       __imp_?focusInEvent@QGroupBox@@MAEXPAVQFocusEvent@@@Z 00413b48     qt-mt323:qt-mt323.dll
 0002:00000b4c       __imp_?focusInEvent@QListBox@@MAEXPAVQFocusEvent@@@Z 00413b4c     qt-mt323:qt-mt323.dll
 0002:00000b50       __imp_?focusNextPrevChild@QScrollView@@MAE_N_N@Z 00413b50     qt-mt323:qt-mt323.dll
 0002:00000b54       __imp_?focusNextPrevChild@QTextEdit@@MAE_N_N@Z 00413b54     qt-mt323:qt-mt323.dll
 0002:00000b58       __imp_?focusOutEvent@QListBox@@MAEXPAVQFocusEvent@@@Z 00413b58     qt-mt323:qt-mt323.dll
 0002:00000b5c       __imp_?fontChange@QGroupBox@@MAEXABVQFont@@@Z 00413b5c     qt-mt323:qt-mt323.dll
 0002:00000b60       __imp_?fontChange@QScrollView@@MAEXABVQFont@@@Z 00413b60     qt-mt323:qt-mt323.dll
 0002:00000b64       __imp_?frameChanged@QScrollView@@MAEXXZ 00413b64     qt-mt323:qt-mt323.dll
 0002:00000b68       __imp_?getFormat@QTextEdit@@UAE_NHHPAVQFont@@PAVQColor@@PAW4VerticalAlignment@1@@Z 00413b68     qt-mt323:qt-mt323.dll
 0002:00000b6c       __imp_?getParagraphFormat@QTextEdit@@UAE_NHPAVQFont@@PAVQColor@@PAW4VerticalAlignment@1@PAHPAW4DisplayMode@QStyleSheetItem@@PAW4ListStyle@6@3@Z 00413b6c     qt-mt323:qt-mt323.dll
 0002:00000b70       __imp_?hasHeightForWidth@QGridLayout@@UBE_NXZ 00413b70     qt-mt323:qt-mt323.dll
 0002:00000b74       __imp_?heightForWidth@QGridLayout@@UBEHH@Z 00413b74     qt-mt323:qt-mt323.dll
 0002:00000b78       __imp_?heightForWidth@QTextEdit@@UBEHH@Z 00413b78     qt-mt323:qt-mt323.dll
 0002:00000b7c       __imp_?imComposeEvent@QTextEdit@@MAEXPAVQIMEvent@@@Z 00413b7c     qt-mt323:qt-mt323.dll
 0002:00000b80       __imp_?imEndEvent@QTextEdit@@MAEXPAVQIMEvent@@@Z 00413b80     qt-mt323:qt-mt323.dll
 0002:00000b84       __imp_?imStartEvent@QTextEdit@@MAEXPAVQIMEvent@@@Z 00413b84     qt-mt323:qt-mt323.dll
 0002:00000b88       __imp_?indent@QTextEdit@@UAEXXZ 00413b88     qt-mt323:qt-mt323.dll
 0002:00000b8c       __imp_?insert@QTextEdit@@UAEXABVQString@@_N11@Z 00413b8c     qt-mt323:qt-mt323.dll
 0002:00000b90       __imp_?insertAt@QTextEdit@@UAEXABVQString@@HH@Z 00413b90     qt-mt323:qt-mt323.dll
 0002:00000b94       __imp_?insertParagraph@QTextEdit@@UAEXABVQString@@H@Z 00413b94     qt-mt323:qt-mt323.dll
 0002:00000b98       __imp_?invalidate@QGridLayout@@UAEXXZ 00413b98     qt-mt323:qt-mt323.dll
 0002:00000b9c       __imp_?invertSelection@QListBox@@UAEXXZ 00413b9c     qt-mt323:qt-mt323.dll
 0002:00000ba0       __imp_?iterator@QGridLayout@@UAE?AVQLayoutIterator@@XZ 00413ba0     qt-mt323:qt-mt323.dll
 0002:00000ba4       __imp_?keyPressEvent@QListBox@@MAEXPAVQKeyEvent@@@Z 00413ba4     qt-mt323:qt-mt323.dll
 0002:00000ba8       __imp_?keyPressEvent@QTextEdit@@MAEXPAVQKeyEvent@@@Z 00413ba8     qt-mt323:qt-mt323.dll
 0002:00000bac       __imp_?linksEnabled@QTextEdit@@EBE_NXZ 00413bac     qt-mt323:qt-mt323.dll
 0002:00000bb0       __imp_?maximumSize@QGridLayout@@UBE?AVQSize@@XZ 00413bb0     qt-mt323:qt-mt323.dll
 0002:00000bb4       __imp_?metaObject@QGridLayout@@UBEPAVQMetaObject@@XZ 00413bb4     qt-mt323:qt-mt323.dll
 0002:00000bb8       __imp_?metaObject@QGroupBox@@UBEPAVQMetaObject@@XZ 00413bb8     qt-mt323:qt-mt323.dll
 0002:00000bbc       __imp_?metaObject@QLineEdit@@UBEPAVQMetaObject@@XZ 00413bbc     qt-mt323:qt-mt323.dll
 0002:00000bc0       __imp_?metaObject@QListBox@@UBEPAVQMetaObject@@XZ 00413bc0     qt-mt323:qt-mt323.dll
 0002:00000bc4       __imp_?metaObject@QTextEdit@@UBEPAVQMetaObject@@XZ 00413bc4     qt-mt323:qt-mt323.dll
 0002:00000bc8       __imp_?minimumSize@QGridLayout@@UBE?AVQSize@@XZ 00413bc8     qt-mt323:qt-mt323.dll
 0002:00000bcc       __imp_?minimumSizeHint@QListBox@@UBE?AVQSize@@XZ 00413bcc     qt-mt323:qt-mt323.dll
 0002:00000bd0       __imp_?minimumSizeHint@QScrollView@@UBE?AVQSize@@XZ 00413bd0     qt-mt323:qt-mt323.dll
 0002:00000bd4       __imp_?mouseDoubleClickEvent@QListBox@@MAEXPAVQMouseEvent@@@Z 00413bd4     qt-mt323:qt-mt323.dll
 0002:00000bd8       __imp_?mouseDoubleClickEvent@QScrollView@@MAEXPAVQMouseEvent@@@Z 00413bd8     qt-mt323:qt-mt323.dll
 0002:00000bdc       __imp_?mouseMoveEvent@QListBox@@MAEXPAVQMouseEvent@@@Z 00413bdc     qt-mt323:qt-mt323.dll
 0002:00000be0       __imp_?mouseMoveEvent@QScrollView@@MAEXPAVQMouseEvent@@@Z 00413be0     qt-mt323:qt-mt323.dll
 0002:00000be4       __imp_?mousePressEvent@QListBox@@MAEXPAVQMouseEvent@@@Z 00413be4     qt-mt323:qt-mt323.dll
 0002:00000be8       __imp_?mousePressEvent@QScrollView@@MAEXPAVQMouseEvent@@@Z 00413be8     qt-mt323:qt-mt323.dll
 0002:00000bec       __imp_?mouseReleaseEvent@QListBox@@MAEXPAVQMouseEvent@@@Z 00413bec     qt-mt323:qt-mt323.dll
 0002:00000bf0       __imp_?mouseReleaseEvent@QScrollView@@MAEXPAVQMouseEvent@@@Z 00413bf0     qt-mt323:qt-mt323.dll
 0002:00000bf4       __imp_?moveChild@QScrollView@@UAEXPAVQWidget@@HH@Z 00413bf4     qt-mt323:qt-mt323.dll
 0002:00000bf8       __imp_?moveCursor@QTextEdit@@UAEXW4CursorAction@1@_N@Z 00413bf8     qt-mt323:qt-mt323.dll
 0002:00000bfc       __imp_?paintCell@QListBox@@MAEXPAVQPainter@@HH@Z 00413bfc     qt-mt323:qt-mt323.dll
 0002:00000c00       __imp_?paintEvent@QGroupBox@@MAEXPAVQPaintEvent@@@Z 00413c00     qt-mt323:qt-mt323.dll
 0002:00000c04       __imp_?paste@QTextEdit@@UAEXXZ 00413c04     qt-mt323:qt-mt323.dll
 0002:00000c08       __imp_?pasteSubType@QTextEdit@@UAEXABVQCString@@@Z 00413c08     qt-mt323:qt-mt323.dll
 0002:00000c0c       __imp_?placeCursor@QTextEdit@@UAEXABVQPoint@@PAVQTextCursor@@@Z 00413c0c     qt-mt323:qt-mt323.dll
 0002:00000c10       __imp_?polish@QTextEdit@@UAEXXZ 00413c10     qt-mt323:qt-mt323.dll
 0002:00000c14       __imp_?qt_cast@QGridLayout@@UAEPAXPBD@Z 00413c14     qt-mt323:qt-mt323.dll
 0002:00000c18       __imp_?qt_cast@QGroupBox@@UAEPAXPBD@Z 00413c18     qt-mt323:qt-mt323.dll
 0002:00000c1c       __imp_?qt_cast@QListBox@@UAEPAXPBD@Z 00413c1c     qt-mt323:qt-mt323.dll
 0002:00000c20       __imp_?qt_cast@QTextEdit@@UAEPAXPBD@Z 00413c20     qt-mt323:qt-mt323.dll
 0002:00000c24       __imp_?qt_emit@QGridLayout@@UAE_NHPAUQUObject@@@Z 00413c24     qt-mt323:qt-mt323.dll
 0002:00000c28       __imp_?qt_emit@QGroupBox@@UAE_NHPAUQUObject@@@Z 00413c28     qt-mt323:qt-mt323.dll
 0002:00000c2c       __imp_?qt_emit@QListBox@@UAE_NHPAUQUObject@@@Z 00413c2c     qt-mt323:qt-mt323.dll
 0002:00000c30       __imp_?qt_emit@QTextEdit@@UAE_NHPAUQUObject@@@Z 00413c30     qt-mt323:qt-mt323.dll
 0002:00000c34       __imp_?qt_invoke@QGridLayout@@UAE_NHPAUQUObject@@@Z 00413c34     qt-mt323:qt-mt323.dll
 0002:00000c38       __imp_?qt_invoke@QGroupBox@@UAE_NHPAUQUObject@@@Z 00413c38     qt-mt323:qt-mt323.dll
 0002:00000c3c       __imp_?qt_invoke@QListBox@@UAE_NHPAUQUObject@@@Z 00413c3c     qt-mt323:qt-mt323.dll
 0002:00000c40       __imp_?qt_invoke@QTextEdit@@UAE_NHPAUQUObject@@@Z 00413c40     qt-mt323:qt-mt323.dll
 0002:00000c44       __imp_?qt_property@QGridLayout@@UAE_NHHPAVQVariant@@@Z 00413c44     qt-mt323:qt-mt323.dll
 0002:00000c48       __imp_?qt_property@QGroupBox@@UAE_NHHPAVQVariant@@@Z 00413c48     qt-mt323:qt-mt323.dll
 0002:00000c4c       __imp_?qt_property@QListBox@@UAE_NHHPAVQVariant@@@Z 00413c4c     qt-mt323:qt-mt323.dll
 0002:00000c50       __imp_?qt_property@QTextEdit@@UAE_NHHPAVQVariant@@@Z 00413c50     qt-mt323:qt-mt323.dll
 0002:00000c54       __imp_?redo@QTextEdit@@UAEXXZ 00413c54     qt-mt323:qt-mt323.dll
 0002:00000c58       __imp_?removeChild@QScrollView@@UAEXPAVQObject@@@Z 00413c58     qt-mt323:qt-mt323.dll
 0002:00000c5c       __imp_?removeParagraph@QTextEdit@@UAEXH@Z 00413c5c     qt-mt323:qt-mt323.dll
 0002:00000c60       __imp_?removeSelectedText@QTextEdit@@UAEXH@Z 00413c60     qt-mt323:qt-mt323.dll
 0002:00000c64       __imp_?removeSelection@QTextEdit@@UAEXH@Z 00413c64     qt-mt323:qt-mt323.dll
 0002:00000c68       __imp_?resetFormat@QTextEdit@@UAEXXZ 00413c68     qt-mt323:qt-mt323.dll
 0002:00000c6c       __imp_?resize@QScrollView@@UAEXHH@Z 00413c6c     qt-mt323:qt-mt323.dll
 0002:00000c70       __imp_?resizeContents@QScrollView@@UAEXHH@Z 00413c70     qt-mt323:qt-mt323.dll
 0002:00000c74       __imp_?resizeEvent@QGroupBox@@MAEXPAVQResizeEvent@@@Z 00413c74     qt-mt323:qt-mt323.dll
 0002:00000c78       __imp_?resizeEvent@QListBox@@MAEXPAVQResizeEvent@@@Z 00413c78     qt-mt323:qt-mt323.dll
 0002:00000c7c       __imp_?resizeEvent@QTextEdit@@MAEXPAVQResizeEvent@@@Z 00413c7c     qt-mt323:qt-mt323.dll
 0002:00000c80       __imp_?scrollToAnchor@QTextEdit@@UAEXABVQString@@@Z 00413c80     qt-mt323:qt-mt323.dll
 0002:00000c84       __imp_?scrollToBottom@QTextEdit@@UAEXXZ 00413c84     qt-mt323:qt-mt323.dll
 0002:00000c88       __imp_?selectAll@QListBox@@UAEX_N@Z 00413c88     qt-mt323:qt-mt323.dll
 0002:00000c8c       __imp_?selectAll@QTextEdit@@UAEX_N@Z 00413c8c     qt-mt323:qt-mt323.dll
 0002:00000c90       __imp_?setAlignment@QGroupBox@@UAEXH@Z 00413c90     qt-mt323:qt-mt323.dll
 0002:00000c94       __imp_?setAlignment@QTextEdit@@UAEXH@Z 00413c94     qt-mt323:qt-mt323.dll
 0002:00000c98       __imp_?setBold@QTextEdit@@UAEX_N@Z 00413c98     qt-mt323:qt-mt323.dll
 0002:00000c9c       __imp_?setBottomItem@QListBox@@UAEXH@Z 00413c9c     qt-mt323:qt-mt323.dll
 0002:00000ca0       __imp_?setColStretch@QGridLayout@@UAEXHH@Z 00413ca0     qt-mt323:qt-mt323.dll
 0002:00000ca4       __imp_?setColor@QTextEdit@@UAEXABVQColor@@@Z 00413ca4     qt-mt323:qt-mt323.dll
 0002:00000ca8       __imp_?setColumnLayout@QGroupBox@@UAEXHW4Orientation@Qt@@@Z 00413ca8     qt-mt323:qt-mt323.dll
 0002:00000cac       __imp_?setColumnMode@QListBox@@UAEXH@Z 00413cac     qt-mt323:qt-mt323.dll
 0002:00000cb0       __imp_?setColumnMode@QListBox@@UAEXW4LayoutMode@1@@Z 00413cb0     qt-mt323:qt-mt323.dll
 0002:00000cb4       __imp_?setContentsPos@QScrollView@@UAEXHH@Z 00413cb4     qt-mt323:qt-mt323.dll
 0002:00000cb8       __imp_?setCornerWidget@QScrollView@@UAEXPAVQWidget@@@Z 00413cb8     qt-mt323:qt-mt323.dll
 0002:00000cbc       __imp_?setCurrentFont@QTextEdit@@UAEXABVQFont@@@Z 00413cbc     qt-mt323:qt-mt323.dll
 0002:00000cc0       __imp_?setCurrentItem@QListBox@@UAEXH@Z 00413cc0     qt-mt323:qt-mt323.dll
 0002:00000cc4       __imp_?setCurrentItem@QListBox@@UAEXPAVQListBoxItem@@@Z 00413cc4     qt-mt323:qt-mt323.dll
 0002:00000cc8       __imp_?setCursorPosition@QTextEdit@@UAEXHH@Z 00413cc8     qt-mt323:qt-mt323.dll
 0002:00000ccc       __imp_?setDragAutoScroll@QScrollView@@UAEX_N@Z 00413ccc     qt-mt323:qt-mt323.dll
 0002:00000cd0       __imp_?setEnabled@QGroupBox@@UAEX_N@Z 00413cd0     qt-mt323:qt-mt323.dll
 0002:00000cd4       __imp_?setEnabled@QScrollView@@UAEX_N@Z 00413cd4     qt-mt323:qt-mt323.dll
 0002:00000cd8       __imp_?setEnabled@QTextEdit@@UAEX_N@Z 00413cd8     qt-mt323:qt-mt323.dll
 0002:00000cdc       __imp_?setFamily@QTextEdit@@UAEXABVQString@@@Z 00413cdc     qt-mt323:qt-mt323.dll
 0002:00000ce0       __imp_?setFont@QListBox@@UAEXABVQFont@@@Z 00413ce0     qt-mt323:qt-mt323.dll
 0002:00000ce4       __imp_?setFont@QTextEdit@@UAEXABVQFont@@@Z 00413ce4     qt-mt323:qt-mt323.dll
 0002:00000ce8       __imp_?setFormat@QTextEdit@@UAEXPAVQTextFormat@@H@Z 00413ce8     qt-mt323:qt-mt323.dll
 0002:00000cec       __imp_?setGeometry@QGridLayout@@UAEXABVQRect@@@Z 00413cec     qt-mt323:qt-mt323.dll
 0002:00000cf0       __imp_?setHBarGeometry@QScrollView@@MAEXAAVQScrollBar@@HHHH@Z 00413cf0     qt-mt323:qt-mt323.dll
 0002:00000cf4       __imp_?setHScrollBarMode@QScrollView@@UAEXW4ScrollBarMode@1@@Z 00413cf4     qt-mt323:qt-mt323.dll
 0002:00000cf8       __imp_?setItalic@QTextEdit@@UAEX_N@Z 00413cf8     qt-mt323:qt-mt323.dll
 0002:00000cfc       __imp_?setLinkUnderline@QTextEdit@@UAEX_N@Z 00413cfc     qt-mt323:qt-mt323.dll
 0002:00000d00       __imp_?setMargins@QScrollView@@MAEXHHHH@Z 00413d00     qt-mt323:qt-mt323.dll
 0002:00000d04       __imp_?setMimeSourceFactory@QTextEdit@@UAEXPAVQMimeSourceFactory@@@Z 00413d04     qt-mt323:qt-mt323.dll
 0002:00000d08       __imp_?setModified@QTextEdit@@UAEX_N@Z 00413d08     qt-mt323:qt-mt323.dll
 0002:00000d0c       __imp_?setOverwriteMode@QTextEdit@@UAEX_N@Z 00413d0c     qt-mt323:qt-mt323.dll
 0002:00000d10       __imp_?setPalette@QTextEdit@@UAEXABVQPalette@@@Z 00413d10     qt-mt323:qt-mt323.dll
 0002:00000d14       __imp_?setPaper@QTextEdit@@UAEXABVQBrush@@@Z 00413d14     qt-mt323:qt-mt323.dll
 0002:00000d18       __imp_?setParagType@QTextEdit@@UAEXW4DisplayMode@QStyleSheetItem@@W4ListStyle@3@@Z 00413d18     qt-mt323:qt-mt323.dll
 0002:00000d1c       __imp_?setParagraphBackgroundColor@QTextEdit@@UAEXHABVQColor@@@Z 00413d1c     qt-mt323:qt-mt323.dll
 0002:00000d20       __imp_?setPointSize@QTextEdit@@UAEXH@Z 00413d20     qt-mt323:qt-mt323.dll
 0002:00000d24       __imp_?setReadOnly@QTextEdit@@UAEX_N@Z 00413d24     qt-mt323:qt-mt323.dll
 0002:00000d28       __imp_?setResizePolicy@QScrollView@@UAEXW4ResizePolicy@1@@Z 00413d28     qt-mt323:qt-mt323.dll
 0002:00000d2c       __imp_?setRowMode@QListBox@@UAEXH@Z 00413d2c     qt-mt323:qt-mt323.dll
 0002:00000d30       __imp_?setRowMode@QListBox@@UAEXW4LayoutMode@1@@Z 00413d30     qt-mt323:qt-mt323.dll
 0002:00000d34       __imp_?setRowStretch@QGridLayout@@UAEXHH@Z 00413d34     qt-mt323:qt-mt323.dll
 0002:00000d38       __imp_?setSelected@QListBox@@UAEXPAVQListBoxItem@@_N@Z 00413d38     qt-mt323:qt-mt323.dll
 0002:00000d3c       __imp_?setSelection@QTextEdit@@UAEXHHHHH@Z 00413d3c     qt-mt323:qt-mt323.dll
 0002:00000d40       __imp_?setSelectionAttributes@QTextEdit@@UAEXHABVQColor@@_N@Z 00413d40     qt-mt323:qt-mt323.dll
 0002:00000d44       __imp_?setSelectionMode@QListBox@@UAEXW4SelectionMode@1@@Z 00413d44     qt-mt323:qt-mt323.dll
 0002:00000d48       __imp_?setStyleSheet@QTextEdit@@UAEXPAVQStyleSheet@@@Z 00413d48     qt-mt323:qt-mt323.dll
 0002:00000d4c       __imp_?setTabStopWidth@QTextEdit@@UAEXH@Z 00413d4c     qt-mt323:qt-mt323.dll
 0002:00000d50       __imp_?setText@QTextEdit@@UAEXABVQString@@0@Z 00413d50     qt-mt323:qt-mt323.dll
 0002:00000d54       __imp_?setTextFormat@QTextEdit@@UAEXW4TextFormat@Qt@@@Z 00413d54     qt-mt323:qt-mt323.dll
 0002:00000d58       __imp_?setTitle@QGroupBox@@UAEXABVQString@@@Z 00413d58     qt-mt323:qt-mt323.dll
 0002:00000d5c       __imp_?setTopItem@QListBox@@UAEXH@Z 00413d5c     qt-mt323:qt-mt323.dll
 0002:00000d60       __imp_?setUnderline@QTextEdit@@UAEX_N@Z 00413d60     qt-mt323:qt-mt323.dll
 0002:00000d64       __imp_?setUndoDepth@QTextEdit@@UAEXH@Z 00413d64     qt-mt323:qt-mt323.dll
 0002:00000d68       __imp_?setUndoRedoEnabled@QTextEdit@@UAEX_N@Z 00413d68     qt-mt323:qt-mt323.dll
 0002:00000d6c       __imp_?setVBarGeometry@QScrollView@@MAEXAAVQScrollBar@@HHHH@Z 00413d6c     qt-mt323:qt-mt323.dll
 0002:00000d70       __imp_?setVScrollBarMode@QScrollView@@UAEXW4ScrollBarMode@1@@Z 00413d70     qt-mt323:qt-mt323.dll
 0002:00000d74       __imp_?setVariableHeight@QListBox@@UAEX_N@Z 00413d74     qt-mt323:qt-mt323.dll
 0002:00000d78       __imp_?setVariableWidth@QListBox@@UAEX_N@Z 00413d78     qt-mt323:qt-mt323.dll
 0002:00000d7c       __imp_?setVerticalAlignment@QTextEdit@@UAEXW4VerticalAlignment@1@@Z 00413d7c     qt-mt323:qt-mt323.dll
 0002:00000d80       __imp_?setWordWrap@QTextEdit@@UAEXW4WordWrap@1@@Z 00413d80     qt-mt323:qt-mt323.dll
 0002:00000d84       __imp_?setWrapColumnOrWidth@QTextEdit@@UAEXH@Z 00413d84     qt-mt323:qt-mt323.dll
 0002:00000d88       __imp_?setWrapPolicy@QTextEdit@@UAEXW4WrapPolicy@1@@Z 00413d88     qt-mt323:qt-mt323.dll
 0002:00000d8c       __imp_?show@QScrollView@@UAEXXZ 00413d8c     qt-mt323:qt-mt323.dll
 0002:00000d90       __imp_?showEvent@QListBox@@MAEXPAVQShowEvent@@@Z 00413d90     qt-mt323:qt-mt323.dll
 0002:00000d94       __imp_?sizeHint@QGridLayout@@UBE?AVQSize@@XZ 00413d94     qt-mt323:qt-mt323.dll
 0002:00000d98       __imp_?sizeHint@QGroupBox@@UBE?AVQSize@@XZ 00413d98     qt-mt323:qt-mt323.dll
 0002:00000d9c       __imp_?sizeHint@QListBox@@UBE?AVQSize@@XZ 00413d9c     qt-mt323:qt-mt323.dll
 0002:00000da0       __imp_?sizeHint@QTextEdit@@UBE?AVQSize@@XZ 00413da0     qt-mt323:qt-mt323.dll
 0002:00000da4       __imp_?styleChange@QScrollView@@UAEXAAVQStyle@@@Z 00413da4     qt-mt323:qt-mt323.dll
 0002:00000da8       __imp_?sync@QTextEdit@@UAEXXZ 00413da8     qt-mt323:qt-mt323.dll
 0002:00000dac       __imp_?undo@QTextEdit@@UAEXXZ 00413dac     qt-mt323:qt-mt323.dll
 0002:00000db0       __imp_?viewportContextMenuEvent@QScrollView@@MAEXPAVQContextMenuEvent@@@Z 00413db0     qt-mt323:qt-mt323.dll
 0002:00000db4       __imp_?viewportDragEnterEvent@QScrollView@@MAEXPAVQDragEnterEvent@@@Z 00413db4     qt-mt323:qt-mt323.dll
 0002:00000db8       __imp_?viewportDragLeaveEvent@QScrollView@@MAEXPAVQDragLeaveEvent@@@Z 00413db8     qt-mt323:qt-mt323.dll
 0002:00000dbc       __imp_?viewportDragMoveEvent@QScrollView@@MAEXPAVQDragMoveEvent@@@Z 00413dbc     qt-mt323:qt-mt323.dll
 0002:00000dc0       __imp_?viewportDropEvent@QScrollView@@MAEXPAVQDropEvent@@@Z 00413dc0     qt-mt323:qt-mt323.dll
 0002:00000dc4       __imp_?viewportMouseDoubleClickEvent@QScrollView@@MAEXPAVQMouseEvent@@@Z 00413dc4     qt-mt323:qt-mt323.dll
 0002:00000dc8       __imp_?viewportMouseMoveEvent@QScrollView@@MAEXPAVQMouseEvent@@@Z 00413dc8     qt-mt323:qt-mt323.dll
 0002:00000dcc       __imp_?viewportMousePressEvent@QScrollView@@MAEXPAVQMouseEvent@@@Z 00413dcc     qt-mt323:qt-mt323.dll
 0002:00000dd0       __imp_?viewportMouseReleaseEvent@QScrollView@@MAEXPAVQMouseEvent@@@Z 00413dd0     qt-mt323:qt-mt323.dll
 0002:00000dd4       __imp_?viewportPaintEvent@QListBox@@UAEXPAVQPaintEvent@@@Z 00413dd4     qt-mt323:qt-mt323.dll
 0002:00000dd8       __imp_?viewportPaintEvent@QScrollView@@MAEXPAVQPaintEvent@@@Z 00413dd8     qt-mt323:qt-mt323.dll
 0002:00000ddc       __imp_?viewportResizeEvent@QScrollView@@MAEXPAVQResizeEvent@@@Z 00413ddc     qt-mt323:qt-mt323.dll
 0002:00000de0       __imp_?viewportResizeEvent@QTextEdit@@MAEXPAVQResizeEvent@@@Z 00413de0     qt-mt323:qt-mt323.dll
 0002:00000de4       __imp_?viewportWheelEvent@QScrollView@@MAEXPAVQWheelEvent@@@Z 00413de4     qt-mt323:qt-mt323.dll
 0002:00000de8       __imp_?wheelEvent@QScrollView@@MAEXPAVQWheelEvent@@@Z 00413de8     qt-mt323:qt-mt323.dll
 0002:00000dec       __imp_?windowActivationChange@QListBox@@MAEX_N@Z 00413dec     qt-mt323:qt-mt323.dll
 0002:00000df0       __imp_?windowActivationChange@QTextEdit@@MAEX_N@Z 00413df0     qt-mt323:qt-mt323.dll
 0002:00000df4       __imp_?zoomIn@QTextEdit@@UAEXH@Z 00413df4     qt-mt323:qt-mt323.dll
 0002:00000df8       __imp_?zoomIn@QTextEdit@@UAEXXZ 00413df8     qt-mt323:qt-mt323.dll
 0002:00000dfc       __imp_?zoomOut@QTextEdit@@UAEXH@Z 00413dfc     qt-mt323:qt-mt323.dll
 0002:00000e00       __imp_?zoomOut@QTextEdit@@UAEXXZ 00413e00     qt-mt323:qt-mt323.dll
 0002:00000e04       __imp_?zoomTo@QTextEdit@@UAEXH@Z 00413e04     qt-mt323:qt-mt323.dll
 0002:00000e08       __imp_?critical@QMessageBox@@SAHPAVQWidget@@ABVQString@@1111HH@Z 00413e08     qt-mt323:qt-mt323.dll
 0002:00000e0c       __imp_?question@QMessageBox@@SAHPAVQWidget@@ABVQString@@1111HH@Z 00413e0c     qt-mt323:qt-mt323.dll
 0002:00000e10       __imp_?information@QMessageBox@@SAHPAVQWidget@@ABVQString@@1111HH@Z 00413e10     qt-mt323:qt-mt323.dll
 0002:00000e14       __imp_?getSaveFileName@QFileDialog@@SA?AVQString@@ABV2@0PAVQWidget@@PBD0PAV2@_N@Z 00413e14     qt-mt323:qt-mt323.dll
 0002:00000e18       __imp_?getOpenFileName@QFileDialog@@SA?AVQString@@ABV2@0PAVQWidget@@PBD0PAV2@_N@Z 00413e18     qt-mt323:qt-mt323.dll
 0002:00000e1c       __imp_?exists@QFileInfo@@QBE_NXZ 00413e1c     qt-mt323:qt-mt323.dll
 0002:00000e20       __imp_??1QFileInfo@@QAE@XZ 00413e20     qt-mt323:qt-mt323.dll
 0002:00000e24       __imp_??0QFileInfo@@QAE@ABVQString@@@Z 00413e24     qt-mt323:qt-mt323.dll
 0002:00000e28       __imp_??1QLabel@@UAE@XZ    00413e28     qt-mt323:qt-mt323.dll
 0002:00000e2c       __imp_??0QLabel@@QAE@ABVQString@@PAVQWidget@@PBDI@Z 00413e2c     qt-mt323:qt-mt323.dll
 0002:00000e30       __imp_?addedTo@QAction@@MAEXPAVQWidget@@0@Z 00413e30     qt-mt323:qt-mt323.dll
 0002:00000e34       __imp_?addedTo@QAction@@MAEXHPAVQPopupMenu@@@Z 00413e34     qt-mt323:qt-mt323.dll
 0002:00000e38       __imp_?addTo@QAction@@UAE_NPAVQWidget@@@Z 00413e38     qt-mt323:qt-mt323.dll
 0002:00000e3c       __imp_?addItem@QBoxLayout@@UAEXPAVQLayoutItem@@@Z 00413e3c     qt-mt323:qt-mt323.dll
 0002:00000e40       __imp_?addDockWindow@QMainWindow@@UAEXPAVQDockWindow@@W4Dock@Qt@@_N@Z 00413e40     qt-mt323:qt-mt323.dll
 0002:00000e44       __imp_?addDockWindow@QMainWindow@@UAEXPAVQDockWindow@@ABVQString@@W4Dock@Qt@@_N@Z 00413e44     qt-mt323:qt-mt323.dll
 0002:00000e48       __imp_?activateItemAt@QPopupMenu@@UAEXH@Z 00413e48     qt-mt323:qt-mt323.dll
 0002:00000e4c       __imp_?text@QLineEdit@@QBE?AVQString@@XZ 00413e4c     qt-mt323:qt-mt323.dll
 0002:00000e50       __imp_?whatsThisButton@QWhatsThis@@SAPAVQToolButton@@PAVQWidget@@@Z 00413e50     qt-mt323:qt-mt323.dll
 0002:00000e54       __imp_?add@QWhatsThis@@SAXPAVQWidget@@ABVQString@@@Z 00413e54     qt-mt323:qt-mt323.dll
 0002:00000e58       __imp_?setPath@QSettings@@QAEXABVQString@@0W4Scope@1@@Z 00413e58     qt-mt323:qt-mt323.dll
 0002:00000e5c       __imp_?readEntry@QSettings@@QAE?AVQString@@ABV2@0PA_N@Z 00413e5c     qt-mt323:qt-mt323.dll
 0002:00000e60       __imp_?readListEntry@QSettings@@QAE?AVQStringList@@ABVQString@@PA_N@Z 00413e60     qt-mt323:qt-mt323.dll
 0002:00000e64       __imp_?writeEntry@QSettings@@QAE_NABVQString@@ABVQStringList@@@Z 00413e64     qt-mt323:qt-mt323.dll
 0002:00000e68       __imp_??1QAction@@UAE@XZ   00413e68     qt-mt323:qt-mt323.dll
 0002:00000e6c       __imp_??0QAction@@QAE@ABVQIconSet@@ABVQString@@VQKeySequence@@PAVQObject@@PBD@Z 00413e6c     qt-mt323:qt-mt323.dll
 0002:00000e70       __imp_??0QAction@@QAE@ABVQString@@VQKeySequence@@PAVQObject@@PBD@Z 00413e70     qt-mt323:qt-mt323.dll
 0002:00000e74       __imp_??1QPopupMenu@@UAE@XZ 00413e74     qt-mt323:qt-mt323.dll
 0002:00000e78       __imp_??0QPopupMenu@@QAE@PAVQWidget@@PBD@Z 00413e78     qt-mt323:qt-mt323.dll
 0002:00000e7c       __imp_?clear@QMenuData@@QAEXXZ 00413e7c     qt-mt323:qt-mt323.dll
 0002:00000e80       __imp_?insertSeparator@QMenuData@@QAEHH@Z 00413e80     qt-mt323:qt-mt323.dll
 0002:00000e84       __imp_?insertItem@QMenuData@@QAEHABVQString@@PAVQPopupMenu@@HH@Z 00413e84     qt-mt323:qt-mt323.dll
 0002:00000e88       __imp_?insertItem@QMenuData@@QAEHABVQString@@PBVQObject@@PBDABVQKeySequence@@HH@Z 00413e88     qt-mt323:qt-mt323.dll
 0002:00000e8c       __imp_?toInt@QVariant@@QBEHPA_N@Z 00413e8c     qt-mt323:qt-mt323.dll
 0002:00000e90       __imp_?value@QSpinBox@@QBEHXZ 00413e90     qt-mt323:qt-mt323.dll
 0002:00000e94       __imp_?setMaxValue@QSpinBox@@QAEXH@Z 00413e94     qt-mt323:qt-mt323.dll
 0002:00000e98       __imp_??1QSpinBox@@UAE@XZ  00413e98     qt-mt323:qt-mt323.dll
 0002:00000e9c       __imp_??0QSpinBox@@QAE@HHHPAVQWidget@@PBD@Z 00413e9c     qt-mt323:qt-mt323.dll
 0002:00000ea0       __imp_?setChecked@QCheckBox@@QAEX_N@Z 00413ea0     qt-mt323:qt-mt323.dll
 0002:00000ea4       __imp_??0QCheckBox@@QAE@ABVQString@@PAVQWidget@@PBD@Z 00413ea4     qt-mt323:qt-mt323.dll
 0002:00000ea8       __imp_??1QPushButton@@UAE@XZ 00413ea8     qt-mt323:qt-mt323.dll
 0002:00000eac       __imp_??0QPushButton@@QAE@ABVQString@@PAVQWidget@@PBD@Z 00413eac     qt-mt323:qt-mt323.dll
 0002:00000eb0       __imp_??1QIconSet@@UAE@XZ  00413eb0     qt-mt323:qt-mt323.dll
 0002:00000eb4       __imp_??0QIconSet@@QAE@ABVQPixmap@@W4Size@0@@Z 00413eb4     qt-mt323:qt-mt323.dll
 0002:00000eb8       __imp_??1QPixmap@@UAE@XZ   00413eb8     qt-mt323:qt-mt323.dll
 0002:00000ebc       __imp_??0QPixmap@@QAE@QAPBD@Z 00413ebc     qt-mt323:qt-mt323.dll
 0002:00000ec0       __imp_?animateClick@QButton@@QAEXXZ 00413ec0     qt-mt323:qt-mt323.dll
 0002:00000ec4       __imp_??1QButton@@UAE@XZ   00413ec4     qt-mt323:qt-mt323.dll
 0002:00000ec8       __imp_??1QKeySequence@@QAE@XZ 00413ec8     qt-mt323:qt-mt323.dll
 0002:00000ecc       __imp_??0QKeySequence@@QAE@H@Z 00413ecc     qt-mt323:qt-mt323.dll
 0002:00000ed0       __imp_??1QVBoxLayout@@UAE@XZ 00413ed0     qt-mt323:qt-mt323.dll
 0002:00000ed4       __imp_??0QVBoxLayout@@QAE@PAVQWidget@@HHPBD@Z 00413ed4     qt-mt323:qt-mt323.dll
 0002:00000ed8       __imp_??1QHBoxLayout@@UAE@XZ 00413ed8     qt-mt323:qt-mt323.dll
 0002:00000edc       __imp_??0QHBoxLayout@@QAE@PAVQLayout@@HPBD@Z 00413edc     qt-mt323:qt-mt323.dll
 0002:00000ee0       __imp_?addWidget@QBoxLayout@@QAEXPAVQWidget@@HH@Z 00413ee0     qt-mt323:qt-mt323.dll
 0002:00000ee4       __imp_??1QLayoutItem@@UAE@XZ 00413ee4     qt-mt323:qt-mt323.dll
 0002:00000ee8       __imp_?setCentralWidget@QMainWindow@@UAEXPAVQWidget@@@Z 00413ee8     qt-mt323:qt-mt323.dll
 0002:00000eec       __imp_?statusBar@QMainWindow@@QBEPAVQStatusBar@@XZ 00413eec     qt-mt323:qt-mt323.dll
 0002:00000ef0       __imp_?menuBar@QMainWindow@@QBEPAVQMenuBar@@XZ 00413ef0     qt-mt323:qt-mt323.dll
 0002:00000ef4       __imp_??1QMainWindow@@UAE@XZ 00413ef4     qt-mt323:qt-mt323.dll
 0002:00000ef8       __imp_??0QMainWindow@@QAE@PAVQWidget@@PBDI@Z 00413ef8     qt-mt323:qt-mt323.dll
 0002:00000efc       __imp_??1QToolBar@@UAE@XZ  00413efc     qt-mt323:qt-mt323.dll
 0002:00000f00       __imp_??0QToolBar@@QAE@PAVQMainWindow@@PBD@Z 00413f00     qt-mt323:qt-mt323.dll
 0002:00000f04       __imp_??0QFrame@@QAE@PAVQWidget@@PBDI@Z 00413f04     qt-mt323:qt-mt323.dll
 0002:00000f08       __imp_?close@QWidget@@QAE_NXZ 00413f08     qt-mt323:qt-mt323.dll
 0002:00000f0c       __imp_?setIcon@QWidget@@UAEXABVQPixmap@@@Z 00413f0c     qt-mt323:qt-mt323.dll
 0002:00000f10       __imp_?setCaption@QWidget@@UAEXABVQString@@@Z 00413f10     qt-mt323:qt-mt323.dll
 0002:00000f14       __imp_??1QWidget@@UAE@XZ   00413f14     qt-mt323:qt-mt323.dll
 0002:00000f18       __imp_??4QStringList@@QAEAAV0@ABV0@@Z 00413f18     qt-mt323:qt-mt323.dll
 0002:00000f1c       __imp_??1QStringList@@QAE@XZ 00413f1c     qt-mt323:qt-mt323.dll
 0002:00000f20       __imp_?join@QStringList@@QBE?AVQString@@ABV2@@Z 00413f20     qt-mt323:qt-mt323.dll
 0002:00000f24       __imp_??0QStringList@@QAE@ABV0@@Z 00413f24     qt-mt323:qt-mt323.dll
 0002:00000f28       __imp_??0QStringList@@QAE@XZ 00413f28     qt-mt323:qt-mt323.dll
 0002:00000f2c       __imp_?connect@QObject@@SA_NPBV1@PBD01@Z 00413f2c     qt-mt323:qt-mt323.dll
 0002:00000f30       __imp_?killTimer@QObject@@QAEXH@Z 00413f30     qt-mt323:qt-mt323.dll
 0002:00000f34       __imp_?startTimer@QObject@@QAEHH@Z 00413f34     qt-mt323:qt-mt323.dll
 0002:00000f38       __imp_?name@QObject@@QBEPBDXZ 00413f38     qt-mt323:qt-mt323.dll
 0002:00000f3c       __imp_?detachInternal@?$QValueList@VQString@@@@AAEXXZ 00413f3c     qt-mt323:qt-mt323.dll
 0002:00000f40       __imp_?find@?$QValueList@VQString@@@@QAE?AV?$QValueListIterator@VQString@@@@ABVQString@@@Z 00413f40     qt-mt323:qt-mt323.dll
 0002:00000f44       __imp_??A?$QValueList@VQString@@@@QAEAAVQString@@I@Z 00413f44     qt-mt323:qt-mt323.dll
 0002:00000f48       __imp_?remove@?$QValueList@VQString@@@@QAE?AV?$QValueListIterator@VQString@@@@V2@@Z 00413f48     qt-mt323:qt-mt323.dll
 0002:00000f4c       __imp_?prepend@?$QValueList@VQString@@@@QAE?AV?$QValueListIterator@VQString@@@@ABVQString@@@Z 00413f4c     qt-mt323:qt-mt323.dll
 0002:00000f50       __imp_?append@?$QValueList@VQString@@@@QAE?AV?$QValueListIterator@VQString@@@@ABVQString@@@Z 00413f50     qt-mt323:qt-mt323.dll
 0002:00000f54       __imp_?pop_back@?$QValueList@VQString@@@@QAEXXZ 00413f54     qt-mt323:qt-mt323.dll
 0002:00000f58       __imp_?clear@?$QValueList@VQString@@@@QAEXXZ 00413f58     qt-mt323:qt-mt323.dll
 0002:00000f5c       __imp_?remove@?$QValueList@VQString@@@@QAEIABVQString@@@Z 00413f5c     qt-mt323:qt-mt323.dll
 0002:00000f60       __imp_??H@YA?BVQString@@ABV0@PBD@Z 00413f60     qt-mt323:qt-mt323.dll
 0002:00000f64       __imp_??H@YA?BVQString@@ABV0@0@Z 00413f64     qt-mt323:qt-mt323.dll
 0002:00000f68       __imp_??8@YA_NABVQString@@PBD@Z 00413f68     qt-mt323:qt-mt323.dll
 0002:00000f6c       __imp_?endsWith@QString@@QBE_NABV1@@Z 00413f6c     qt-mt323:qt-mt323.dll
 0002:00000f70       __imp_?latin1@QString@@QBEPBDXZ 00413f70     qt-mt323:qt-mt323.dll
 0002:00000f74       __imp_??YQString@@QAEAAV0@D@Z 00413f74     qt-mt323:qt-mt323.dll
 0002:00000f78       __imp_??YQString@@QAEAAV0@PBD@Z 00413f78     qt-mt323:qt-mt323.dll
 0002:00000f7c       __imp_?toInt@QString@@QBEHPA_NH@Z 00413f7c     qt-mt323:qt-mt323.dll
 0002:00000f80       __imp_?remove@QString@@QAEAAV1@ABV1@@Z 00413f80     qt-mt323:qt-mt323.dll
 0002:00000f84       __imp_?writeEntry@QSettings@@QAE_NABVQString@@0@Z 00413f84     qt-mt323:qt-mt323.dll
 0002:00000f88       __imp_??1QSettings@@QAE@XZ 00413f88     qt-mt323:qt-mt323.dll
 0002:00000f8c       __imp_?setSelection@QLineEdit@@UAEXHH@Z 00413f8c     qt-mt323:qt-mt323.dll
 0002:00000f90       __imp_??0QSettings@@QAE@XZ 00413f90     qt-mt323:qt-mt323.dll
 0002:00000f94       __imp_?section@QString@@QBE?AV1@DHHH@Z 00413f94     qt-mt323:qt-mt323.dll
 0002:00000f98       __imp_?find@QString@@QBEHABV1@H_N@Z 00413f98     qt-mt323:qt-mt323.dll
 0002:00000f9c       __imp_?arg@QString@@QBE?AV1@ABV1@H@Z 00413f9c     qt-mt323:qt-mt323.dll
 0002:00000fa0       __imp_??4QString@@QAEAAV0@PBD@Z 00413fa0     qt-mt323:qt-mt323.dll
 0002:00000fa4       __imp_??4QString@@QAEAAV0@ABV0@@Z 00413fa4     qt-mt323:qt-mt323.dll
 0002:00000fa8       __imp_??1QString@@QAE@XZ   00413fa8     qt-mt323:qt-mt323.dll
 0002:00000fac       __imp_??0QString@@QAE@PBD@Z 00413fac     qt-mt323:qt-mt323.dll
 0002:00000fb0       __imp_??0QString@@QAE@ABV0@@Z 00413fb0     qt-mt323:qt-mt323.dll
 0002:00000fb4       __imp_??0QString@@QAE@XZ   00413fb4     qt-mt323:qt-mt323.dll
 0002:00000fb8       __imp_??0QLineEdit@@QAE@PAVQWidget@@PBD@Z 00413fb8     qt-mt323:qt-mt323.dll
 0002:00000fbc       __imp_?qDebug@@YAXPBDZZ    00413fbc     qt-mt323:qt-mt323.dll
 0002:00000fc0       __imp_?deleteData@QGArray@@MAEXPAUarray_data@1@@Z 00413fc0     qt-mt323:qt-mt323.dll
 0002:00000fc4       __imp_?newData@QGArray@@MAEPAUarray_data@1@XZ 00413fc4     qt-mt323:qt-mt323.dll
 0002:00000fc8       __imp_??1QGArray@@MAE@XZ   00413fc8     qt-mt323:qt-mt323.dll
 0002:00000fcc       __imp_?qWinMain@@YAXPAUHINSTANCE__@@0PADHAAHAAV?$QMemArray@PAD@@@Z 00413fcc     qt-mt323:qt-mt323.dll
 0002:00000fd0       __imp_??0QGArray@@IAE@H@Z  00413fd0     qt-mt323:qt-mt323.dll
 0002:00000fd4       __imp_?duplicate@QGArray@@IAEAAV1@ABV1@@Z 00413fd4     qt-mt323:qt-mt323.dll
 0002:00000fd8       \177qt-mt323_NULL_THUNK_DATA 00413fd8     qt-mt323:qt-mt323.dll
 0002:00000fdc       ___xc_a                    00413fdc     MSVCRT:cinitexe.obj
 0002:00001010       ___xc_z                    00414010     MSVCRT:cinitexe.obj
 0002:00001014       ___xi_a                    00414014     MSVCRT:cinitexe.obj
 0002:00001024       ___xi_z                    00414024     MSVCRT:cinitexe.obj
 0002:00001028       ??_C@_09KDLGOOHH@16?516?54?51?$AA@ 00414028     bcommandmainwindow.obj
 0002:00001034       ??_C@_0M@KEPPNGJB@?$CD?5c?5?$CD000000?$AA@ 00414034     bcommandmainwindow.obj
 0002:00001040       ??_C@_0M@HLDIPKFI@a?5c?5?$CD808000?$AA@ 00414040     bcommandmainwindow.obj
 0002:0000104c       ??_C@_08IMFNEMJ@?4?5c?5none?$AA@ 0041404c     bcommandmainwindow.obj
 0002:00001058       ??_C@_0M@CIICNBFG@b?5c?5?$CDd4d0c8?$AA@ 00414058     bcommandmainwindow.obj
 0002:00001064       ??_C@_0BB@DDKGLOCG@?4?4?4?4?4?4?4?4?4?4?4?4?4?4?4?4?$AA@ 00414064     bcommandmainwindow.obj
 0002:00001078       ??_C@_0BB@CDNAFGKI@?4?$CD?$CD?$CD?$CD?$CD?$CD?$CD?$CD?$CD?$CD?$CD?$CD?$CD?$CD?4?$AA@ 00414078     bcommandmainwindow.obj
 0002:0000108c       ??_C@_0BB@MFMAMICP@?4?$CDa?$CDbbbbbbbb?$CDb?$CD?4?$AA@ 0041408c     bcommandmainwindow.obj
 0002:000010a0       ??_C@_0BB@OGGIPHHH@?4?$CDa?$CDbbbbbbbb?$CD?$CD?$CD?4?$AA@ 004140a0     bcommandmainwindow.obj
 0002:000010b4       ??_C@_0BB@NHHFGHMB@?4?$CDa?$CDbbbbbbbb?$CDa?$CD?4?$AA@ 004140b4     bcommandmainwindow.obj
 0002:000010c8       ??_C@_0BB@PCFEDEIH@?4?$CDaa?$CD?$CD?$CD?$CD?$CD?$CD?$CD?$CDaa?$CD?4?$AA@ 004140c8     bcommandmainwindow.obj
 0002:000010dc       ??_C@_0BB@ONGOGPJN@?4?$CDaaaaaaaaaaaa?$CD?4?$AA@ 004140dc     bcommandmainwindow.obj
 0002:000010f0       ??_C@_0BB@NAGHDPKO@?4?$CDaa?$CD?$CD?$CD?$CD?$CD?$CD?$CD?$CD?$CDa?$CD?4?$AA@ 004140f0     bcommandmainwindow.obj
 0002:00001104       ??_C@_0BB@PGBPJIKK@?4?$CDaa?$CD?$CD?$CD?$CD?$CD?$CDbb?$CDa?$CD?4?$AA@ 00414104     bcommandmainwindow.obj
 0002:00001118       ??_C@_0BB@CKJKBEPB@?4?4?$CD?$CD?$CD?$CD?$CD?$CD?$CD?$CD?$CD?$CD?$CD?$CD?$CD?4?$AA@ 00414118     bcommandmainwindow.obj
 0002:0000112c       ??_C@_09BLAKIJBC@16?516?55?51?$AA@ 0041412c     bcommandmainwindow.obj
 0002:00001138       ??_C@_0M@JHADGEMH@c?5c?5?$CD808000?$AA@ 00414138     bcommandmainwindow.obj
 0002:00001144       ??_C@_0M@MMNOHAHM@b?5c?5?$CDffff00?$AA@ 00414144     bcommandmainwindow.obj
 0002:00001150       ??_C@_0M@DPJAAKFM@a?5c?5?$CDffffff?$AA@ 00414150     bcommandmainwindow.obj
 0002:0000115c       ??_C@_0BB@HFOKNJOJ@?4?4?4?4?4?4?4?4?4?$CD?$CD?$CD?4?4?4?4?$AA@ 0041415c     bcommandmainwindow.obj
 0002:00001170       ??_C@_0BB@DCKBAOJD@?4?4?4?4?4?4?4?4?$CD?4?4?4?$CD?4?$CD?4?$AA@ 00414170     bcommandmainwindow.obj
 0002:00001184       ??_C@_0BB@MJBEPFKI@?4?4?4?4?4?4?4?4?4?4?4?4?4?$CD?$CD?4?$AA@ 00414184     bcommandmainwindow.obj
 0002:00001198       ??_C@_0BB@HDDKHBBH@?4?$CD?$CD?$CD?4?4?4?4?4?4?4?4?$CD?$CD?$CD?4?$AA@ 00414198     bcommandmainwindow.obj
 0002:000011ac       ??_C@_0BB@PFNLCJAL@?$CDaba?$CD?$CD?$CD?$CD?$CD?$CD?$CD?4?4?4?4?4?$AA@ 004141ac     bcommandmainwindow.obj
 0002:000011c0       ??_C@_0BB@CNBHCIGG@?$CDbabababab?$CD?4?4?4?4?4?$AA@ 004141c0     bcommandmainwindow.obj
 0002:000011d4       ??_C@_0BB@GGEAILCM@?$CDababababa?$CD?4?4?4?4?4?$AA@ 004141d4     bcommandmainwindow.obj
 0002:000011e8       ??_C@_0BB@NCGCGKFK@?$CDbaba?$CD?$CD?$CD?$CD?$CD?$CD?$CD?$CD?$CD?$CD?4?$AA@ 004141e8     bcommandmainwindow.obj
 0002:000011fc       ??_C@_0BB@EMENKCNO@?$CDaba?$CDccccccccc?$CD?4?$AA@ 004141fc     bcommandmainwindow.obj
 0002:00001210       ??_C@_0BB@PKGOBFMM@?$CDba?$CDccccccccc?$CD?4?4?$AA@ 00414210     bcommandmainwindow.obj
 0002:00001224       ??_C@_0BB@FKPLBMLH@?$CDa?$CDccccccccc?$CD?4?4?4?$AA@ 00414224     bcommandmainwindow.obj
 0002:00001238       ??_C@_0BB@MOBGHKIO@?$CD?$CDccccccccc?$CD?4?4?4?4?$AA@ 00414238     bcommandmainwindow.obj
 0002:0000124c       ??_C@_0BB@IPNCGJFL@?$CD?$CD?$CD?$CD?$CD?$CD?$CD?$CD?$CD?$CD?$CD?4?4?4?4?4?$AA@ 0041424c     bcommandmainwindow.obj
 0002:00001260       ??_C@_09DOGBNGMO@16?516?53?51?$AA@ 00414260     bcommandmainwindow.obj
 0002:0000126c       ??_C@_0BB@PFPBOJNA@?4?4?$CD?$CD?$CD?$CD?$CD?$CD?$CD?$CD?4?4?4?4?4?4?$AA@ 0041426c     bcommandmainwindow.obj
 0002:00001280       ??_C@_0BB@NBHHOKPB@?4?4?$CDaaaaaa?$CD?$CD?4?4?4?4?4?$AA@ 00414280     bcommandmainwindow.obj
 0002:00001294       ??_C@_0BB@LOHNJNHP@?4?4?$CDaaaaaa?$CDa?$CD?4?4?4?4?$AA@ 00414294     bcommandmainwindow.obj
 0002:000012a8       ??_C@_0BB@JFHJDNJO@?4?4?$CDaaaaaa?$CD?$CD?$CD?$CD?4?4?4?$AA@ 004142a8     bcommandmainwindow.obj
 0002:000012bc       ??_C@_0BB@GPMFDHDJ@?4?4?$CDaaaaaaaaa?$CD?4?4?4?$AA@ 004142bc     bcommandmainwindow.obj
 0002:000012d0       ??_C@_0BB@NACIFPHP@?4?4?$CD?$CD?$CD?$CD?$CD?$CD?$CD?$CD?$CD?$CD?$CD?4?4?4?$AA@ 004142d0     bcommandmainwindow.obj
 0002:000012e4       ??_C@_0N@IDNHKFN@32?532?5127?52?5?$AA@ 004142e4     bcommandmainwindow.obj
 0002:000012f4       ??_C@_0N@MBCHPPO@?5?5?5c?5?$CD6C6C00?$AA@ 004142f4     bcommandmainwindow.obj
 0002:00001304       ??_C@_0N@JDDJAJIL@?4?5?5c?5?$CD7A7A01?$AA@ 00414304     bcommandmainwindow.obj
 0002:00001314       ??_C@_0N@LCOEAGGF@X?5?5c?5?$CD7E7E0A?$AA@ 00414314     bcommandmainwindow.obj
 0002:00001324       ??_C@_0N@HCDCCDJD@o?5?5c?5?$CD7F7F11?$AA@ 00414324     bcommandmainwindow.obj
 0002:00001334       ??_C@_0N@KKIDBIPE@O?5?5c?5?$CD838300?$AA@ 00414334     bcommandmainwindow.obj
 0002:00001344       ??_C@_0N@GOCPIAOA@?$CL?5?5c?5?$CD8B8B01?$AA@ 00414344     bcommandmainwindow.obj
 0002:00001354       ??_C@_0N@CBGBBILD@?$EA?5?5c?5?$CD81810D?$AA@ 00414354     bcommandmainwindow.obj
 0002:00001364       ??_C@_0N@LCFBCIJB@?$CD?5?5c?5?$CD929204?$AA@ 00414364     bcommandmainwindow.obj
 0002:00001374       ??_C@_0N@EFHFEMHI@$?5?5c?5?$CD94940B?$AA@ 00414374     bcommandmainwindow.obj
 0002:00001384       ??_C@_0N@MJLHPOKH@?$CF?5?5c?5?$CD9A9A0D?$AA@ 00414384     bcommandmainwindow.obj
 0002:00001394       ??_C@_0N@JAKPBLG@?$CG?5?5c?5?$CD838313?$AA@ 00414394     bcommandmainwindow.obj
 0002:000013a4       ??_C@_0N@FGKGLMDL@?$CK?5?5c?5?$CD85851B?$AA@ 004143a4     bcommandmainwindow.obj
 0002:000013b4       ??_C@_0N@PEJMMEPM@?$DN?5?5c?5?$CD89891D?$AA@ 004143b4     bcommandmainwindow.obj
 0002:000013c4       ??_C@_0N@MNCPAAN@?9?5?5c?5?$CD9C9C12?$AA@ 004143c4     bcommandmainwindow.obj
 0002:000013d4       ??_C@_0N@KMGILNDA@?$DL?5?5c?5?$CDBABA00?$AA@ 004143d4     bcommandmainwindow.obj
 0002:000013e4       ??_C@_0N@NHPCANJE@?3?5?5c?5?$CDA3A316?$AA@ 004143e4     bcommandmainwindow.obj
 0002:000013f4       ??_C@_0N@NMMKNDPB@?$DO?5?5c?5?$CDA4A41B?$AA@ 004143f4     bcommandmainwindow.obj
 0002:00001404       ??_C@_0N@FJMFKLDK@?0?5?5c?5?$CDAAAA1D?$AA@ 00414404     bcommandmainwindow.obj
 0002:00001414       ??_C@_0N@JBOHFKFC@?$DM?5?5c?5?$CD878723?$AA@ 00414414     bcommandmainwindow.obj
 0002:00001424       ??_C@_0N@IHJPFBHG@1?5?5c?5?$CD8B8B25?$AA@ 00414424     bcommandmainwindow.obj
 0002:00001434       ??_C@_0N@FKCLNCIJ@2?5?5c?5?$CD8B8B2B?$AA@ 00414434     bcommandmainwindow.obj
 0002:00001444       ??_C@_0N@JGJOJOEP@3?5?5c?5?$CD8F8F31?$AA@ 00414444     bcommandmainwindow.obj
 0002:00001454       ??_C@_0N@ONECOLAK@4?5?5c?5?$CD919134?$AA@ 00414454     bcommandmainwindow.obj
 0002:00001464       ??_C@_0N@COKCINHO@5?5?5c?5?$CD94943B?$AA@ 00414464     bcommandmainwindow.obj
 0002:00001474       ??_C@_0N@NCLGFLCP@6?5?5c?5?$CDADAD23?$AA@ 00414474     bcommandmainwindow.obj
 0002:00001484       ??_C@_0N@CPFBAHAN@7?5?5c?5?$CDB4B42B?$AA@ 00414484     bcommandmainwindow.obj
 0002:00001494       ??_C@_0N@FPMOCIHK@8?5?5c?5?$CDB9B92C?$AA@ 00414494     bcommandmainwindow.obj
 0002:000014a4       ??_C@_0N@HBHODIKB@9?5?5c?5?$CDBBBB33?$AA@ 004144a4     bcommandmainwindow.obj
 0002:000014b4       ??_C@_0N@FJAGEDLO@0?5?5c?5?$CDBEBE3C?$AA@ 004144b4     bcommandmainwindow.obj
 0002:000014c4       ??_C@_0N@MEEDBAKF@q?5?5c?5?$CDC5C500?$AA@ 004144c4     bcommandmainwindow.obj
 0002:000014d4       ??_C@_0N@ELLGCCF@w?5?5c?5?$CDCECE00?$AA@ 004144d4     bcommandmainwindow.obj
 0002:000014e4       ??_C@_0N@LDJEEGGL@e?5?5c?5?$CDDADA00?$AA@ 004144e4     bcommandmainwindow.obj
 0002:000014f4       ??_C@_0N@FOPLEKGO@r?5?5c?5?$CDEBEB03?$AA@ 004144f4     bcommandmainwindow.obj
 0002:00001504       ??_C@_0N@NBCBOMEF@t?5?5c?5?$CDEBEB0C?$AA@ 00414504     bcommandmainwindow.obj
 0002:00001514       ??_C@_0N@OOLBOOJP@y?5?5c?5?$CDF3F301?$AA@ 00414514     bcommandmainwindow.obj
 0002:00001524       ??_C@_0N@OHCEEGPI@u?5?5c?5?$CDFEFE01?$AA@ 00414524     bcommandmainwindow.obj
 0002:00001534       ??_C@_0N@GBHKOEPC@i?5?5c?5?$CDF7F70A?$AA@ 00414534     bcommandmainwindow.obj
 0002:00001544       ??_C@_0N@GJEHKGBL@p?5?5c?5?$CDFCFC0F?$AA@ 00414544     bcommandmainwindow.obj
 0002:00001554       ??_C@_0N@GDMMEEBD@a?5?5c?5?$CDE7E711?$AA@ 00414554     bcommandmainwindow.obj
 0002:00001564       ??_C@_0N@PBEPENBM@s?5?5c?5?$CDECEC13?$AA@ 00414564     bcommandmainwindow.obj
 0002:00001574       ??_C@_0N@LHKHBJMO@d?5?5c?5?$CDF4F412?$AA@ 00414574     bcommandmainwindow.obj
 0002:00001584       ??_C@_0N@COCPDIJI@f?5?5c?5?$CDFCFC13?$AA@ 00414584     bcommandmainwindow.obj
 0002:00001594       ??_C@_0N@NMIGJIOL@g?5?5c?5?$CDFCFC1C?$AA@ 00414594     bcommandmainwindow.obj
 0002:000015a4       ??_C@_0N@FKBJDBFF@h?5?5c?5?$CDCBCB37?$AA@ 004145a4     bcommandmainwindow.obj
 0002:000015b4       ??_C@_0N@NAAPELPC@j?5?5c?5?$CDC4C43A?$AA@ 004145b4     bcommandmainwindow.obj
 0002:000015c4       ??_C@_0N@NPGAFFKJ@k?5?5c?5?$CDCCCC3C?$AA@ 004145c4     bcommandmainwindow.obj
 0002:000015d4       ??_C@_0N@JADDAPHE@l?5?5c?5?$CDD2D23E?$AA@ 004145d4     bcommandmainwindow.obj
 0002:000015e4       ??_C@_0N@OBCAEACL@z?5?5c?5?$CDFCFC28?$AA@ 004145e4     bcommandmainwindow.obj
 0002:000015f4       ??_C@_0N@EGPAFFNK@x?5?5c?5?$CDFBFB35?$AA@ 004145f4     bcommandmainwindow.obj
 0002:00001604       ??_C@_0N@PBFBLPOM@c?5?5c?5?$CD888848?$AA@ 00414604     bcommandmainwindow.obj
 0002:00001614       ??_C@_0N@KCICKAKK@v?5?5c?5?$CD979740?$AA@ 00414614     bcommandmainwindow.obj
 0002:00001624       ??_C@_0N@CBHPLIHO@b?5?5c?5?$CD9A9A44?$AA@ 00414624     bcommandmainwindow.obj
 0002:00001634       ??_C@_0N@MPEIDLPF@n?5?5c?5?$CD9E9E4C?$AA@ 00414634     bcommandmainwindow.obj
 0002:00001644       ??_C@_0N@PLMJEEPJ@m?5?5c?5?$CD8D8D54?$AA@ 00414644     bcommandmainwindow.obj
 0002:00001654       ??_C@_0N@NHNJCJIM@M?5?5c?5?$CDAEAE4C?$AA@ 00414654     bcommandmainwindow.obj
 0002:00001664       ??_C@_0N@CJGDILFB@N?5?5c?5?$CDB0B04A?$AA@ 00414664     bcommandmainwindow.obj
 0002:00001674       ??_C@_0N@BLCBFJGC@B?5?5c?5?$CDA3A355?$AA@ 00414674     bcommandmainwindow.obj
 0002:00001684       ??_C@_0N@DADPPMJN@V?5?5c?5?$CDA7A75A?$AA@ 00414684     bcommandmainwindow.obj
 0002:00001694       ??_C@_0N@FEEOIOND@C?5?5c?5?$CDA8A85E?$AA@ 00414694     bcommandmainwindow.obj
 0002:000016a4       ??_C@_0N@PKOAMPKH@Z?5?5c?5?$CD8D8D6B?$AA@ 004146a4     bcommandmainwindow.obj
 0002:000016b4       ??_C@_0N@HHOJHNDC@A?5?5c?5?$CD98987C?$AA@ 004146b4     bcommandmainwindow.obj
 0002:000016c4       ??_C@_0N@EGLBJCLP@S?5?5c?5?$CDACAC63?$AA@ 004146c4     bcommandmainwindow.obj
 0002:000016d4       ??_C@_0N@BCDJLLDG@D?5?5c?5?$CDAFAF69?$AA@ 004146d4     bcommandmainwindow.obj
 0002:000016e4       ??_C@_0N@OKFCBBJH@F?5?5c?5?$CDB2B26D?$AA@ 004146e4     bcommandmainwindow.obj
 0002:000016f4       ??_C@_0N@ECILJIFF@G?5?5c?5?$CDB6B673?$AA@ 004146f4     bcommandmainwindow.obj
 0002:00001704       ??_C@_0N@MCFJKPGG@H?5?5c?5?$CDB8B876?$AA@ 00414704     bcommandmainwindow.obj
 0002:00001714       ??_C@_0N@OCAFNDMH@J?5?5c?5?$CDBDBD7D?$AA@ 00414714     bcommandmainwindow.obj
 0002:00001724       ??_C@_0N@ONJBCKON@K?5?5c?5?$CDCDCD40?$AA@ 00414724     bcommandmainwindow.obj
 0002:00001734       ??_C@_0N@GDMGKOHD@L?5?5c?5?$CDD3D344?$AA@ 00414734     bcommandmainwindow.obj
 0002:00001744       ??_C@_0N@PIJBBHAN@P?5?5c?5?$CDDADA46?$AA@ 00414744     bcommandmainwindow.obj
 0002:00001754       ??_C@_0N@KMFEACKM@I?5?5c?5?$CDD6D649?$AA@ 00414754     bcommandmainwindow.obj
 0002:00001764       ??_C@_0N@FADHEACN@U?5?5c?5?$CDDCDC4C?$AA@ 00414764     bcommandmainwindow.obj
 0002:00001774       ??_C@_0N@CFHEDEFE@Y?5?5c?5?$CDDEDE51?$AA@ 00414774     bcommandmainwindow.obj
 0002:00001784       ??_C@_0N@FDBBAFLH@T?5?5c?5?$CDE2E24E?$AA@ 00414784     bcommandmainwindow.obj
 0002:00001794       ??_C@_0N@DHCAEECL@R?5?5c?5?$CDE4E454?$AA@ 00414794     bcommandmainwindow.obj
 0002:000017a4       ??_C@_0N@KJLLBOOL@E?5?5c?5?$CDE9E955?$AA@ 004147a4     bcommandmainwindow.obj
 0002:000017b4       ??_C@_0N@PFFKAMPE@W?5?5c?5?$CDE5E558?$AA@ 004147b4     bcommandmainwindow.obj
 0002:000017c4       ??_C@_0N@BDEAFDMJ@Q?5?5c?5?$CDECEC5B?$AA@ 004147c4     bcommandmainwindow.obj
 0002:000017d4       ??_C@_0N@OHKCMFL@?$CB?5?5c?5?$CDF1F15D?$AA@ 004147d4     bcommandmainwindow.obj
 0002:000017e4       ??_C@_0N@BOHMBDDI@?$HO?5?5c?5?$CDD3D365?$AA@ 004147e4     bcommandmainwindow.obj
 0002:000017f4       ??_C@_0N@NEAEMENB@?$FO?5?5c?5?$CDDCDC64?$AA@ 004147f4     bcommandmainwindow.obj
 0002:00001804       ??_C@_0N@MMMPIONB@?1?5?5c?5?$CDEDED60?$AA@ 00414804     bcommandmainwindow.obj
 0002:00001814       ??_C@_0N@MDIFIAJN@?$CI?5?5c?5?$CDF4F464?$AA@ 00414814     bcommandmainwindow.obj
 0002:00001824       ??_C@_0N@MCBLBONF@?$CJ?5?5c?5?$CD8A8A87?$AA@ 00414824     bcommandmainwindow.obj
 0002:00001834       ??_C@_0M@JCGGKFG@_?5?5c?5gray59?$AA@ 00414834     bcommandmainwindow.obj
 0002:00001840       ??_C@_0N@FHINCBJH@?$GA?5?5c?5?$CD9D9D9B?$AA@ 00414840     bcommandmainwindow.obj
 0002:00001850       ??_C@_0N@LDBIHFCL@?8?5?5c?5?$CDBEBE83?$AA@ 00414850     bcommandmainwindow.obj
 0002:00001860       ??_C@_0N@DNGAPHBO@?$FN?5?5c?5?$CDB6B689?$AA@ 00414860     bcommandmainwindow.obj
 0002:00001870       ??_C@_0N@JKILOEBP@?$FL?5?5c?5?$CDBCBC89?$AA@ 00414870     bcommandmainwindow.obj
 0002:00001880       ??_C@_0N@LFMLEMNG@?$HL?5?5c?5?$CDBFBF93?$AA@ 00414880     bcommandmainwindow.obj
 0002:00001890       ??_C@_0N@LOFIAOHD@?$HN?5?5c?5?$CDA4A4A3?$AA@ 00414890     bcommandmainwindow.obj
 0002:000018a0       ??_C@_0N@EJFGNJPB@?$HM?5?5c?5?$CDA9A9A7?$AA@ 004148a0     bcommandmainwindow.obj
 0002:000018b0       ??_C@_0N@LMMENDEJ@?5?4?5c?5?$CDABABAB?$AA@ 004148b0     bcommandmainwindow.obj
 0002:000018c0       ??_C@_0N@LCJNELIA@?4?4?5c?5?$CDB5B5B5?$AA@ 004148c0     bcommandmainwindow.obj
 0002:000018d0       ??_C@_0N@CIDNKCLE@X?4?5c?5?$CDBBBBBB?$AA@ 004148d0     bcommandmainwindow.obj
 0002:000018e0       ??_C@_0N@IJDOPFGM@o?4?5c?5?$CDC2C284?$AA@ 004148e0     bcommandmainwindow.obj
 0002:000018f0       ??_C@_0N@LABHNMCI@O?4?5c?5?$CDC4C48B?$AA@ 004148f0     bcommandmainwindow.obj
 0002:00001900       ??_C@_0N@LHGBBGKB@?$CL?4?5c?5?$CDC6C692?$AA@ 00414900     bcommandmainwindow.obj
 0002:00001910       ??_C@_0N@FJFFLPIA@?$EA?4?5c?5?$CDCCCC92?$AA@ 00414910     bcommandmainwindow.obj
 0002:00001920       ??_C@_0N@PJPCFCOB@?$CD?4?5c?5?$CDCBCB9E?$AA@ 00414920     bcommandmainwindow.obj
 0002:00001930       ??_C@_0N@NMFKINLN@$?4?5c?5?$CDD2D29B?$AA@ 00414930     bcommandmainwindow.obj
 0002:00001940       ??_C@_0N@EPFEOJLB@?$CF?4?5c?5?$CDF1F183?$AA@ 00414940     bcommandmainwindow.obj
 0002:00001950       ??_C@_0N@FOJDDPCK@?$CG?4?5c?5?$CDCECEA2?$AA@ 00414950     bcommandmainwindow.obj
 0002:00001960       ??_C@_0N@FDLGGJF@?$CK?4?5c?5?$CDD2D2A4?$AA@ 00414960     bcommandmainwindow.obj
 0002:00001970       ??_C@_0N@GIJCIAJE@?$DN?4?5c?5?$CDD9D9A5?$AA@ 00414970     bcommandmainwindow.obj
 0002:00001980       ??_C@_0N@GLNGDLDM@?9?4?5c?5?$CDD3D3AC?$AA@ 00414980     bcommandmainwindow.obj
 0002:00001990       ??_C@_0N@EGLOFANF@?$DL?4?5c?5?$CDD7D7B3?$AA@ 00414990     bcommandmainwindow.obj
 0002:000019a0       ??_C@_0N@GEEHIMFF@?3?4?5c?5?$CDD8D8B5?$AA@ 004149a0     bcommandmainwindow.obj
 0002:000019b0       ??_C@_0N@NFLHOJCO@?$DO?4?5c?5?$CDDADABA?$AA@ 004149b0     bcommandmainwindow.obj
 0002:000019c0       ??_C@_0N@CCOPDDHJ@?0?4?5c?5?$CDC4C4C4?$AA@ 004149c0     bcommandmainwindow.obj
 0002:000019d0       ??_C@_0N@PECOOIP@?$DM?4?5c?5?$CDCCCCCB?$AA@ 004149d0     bcommandmainwindow.obj
 0002:000019e0       ??_C@_0N@KDAMABMG@1?4?5c?5?$CDD4D4D4?$AA@ 004149e0     bcommandmainwindow.obj
 0002:000019f0       ??_C@_0N@PEIMKCOE@2?4?5c?5?$CDDBDBDB?$AA@ 004149f0     bcommandmainwindow.obj
 0002:00001a00       ??_C@_0N@ICNIDAP@3?4?5c?5?$CDE1E1C6?$AA@ 00414a00     bcommandmainwindow.obj
 0002:00001a10       ??_C@_0N@PCOBADOG@4?4?5c?5?$CDE3E3CA?$AA@ 00414a10     bcommandmainwindow.obj
 0002:00001a20       ??_C@_0N@BBPEGAFB@5?4?5c?5?$CDE7E7D1?$AA@ 00414a20     bcommandmainwindow.obj
 0002:00001a30       ??_C@_0N@HAFAILME@6?4?5c?5?$CDEAEAD6?$AA@ 00414a30     bcommandmainwindow.obj
 0002:00001a40       ??_C@_0N@BFEIHDD@7?4?5c?5?$CDECECDB?$AA@ 00414a40     bcommandmainwindow.obj
 0002:00001a50       ??_C@_0N@LOEMEDBN@8?4?5c?5?$CDE4E4E4?$AA@ 00414a50     bcommandmainwindow.obj
 0002:00001a60       ??_C@_0N@JJHBKKAA@9?4?5c?5?$CDEFEFE1?$AA@ 00414a60     bcommandmainwindow.obj
 0002:00001a70       ??_C@_0N@GEPONKBN@0?4?5c?5?$CDECECEC?$AA@ 00414a70     bcommandmainwindow.obj
 0002:00001a80       ??_C@_0N@IMBEOIND@q?4?5c?5?$CDF1F1E5?$AA@ 00414a80     bcommandmainwindow.obj
 0002:00001a90       ??_C@_0N@EBGHDMDP@w?4?5c?5?$CDF5F5EC?$AA@ 00414a90     bcommandmainwindow.obj
 0002:00001aa0       ??_C@_0N@CMGEDFEB@e?4?5c?5?$CDF6F6F3?$AA@ 00414aa0     bcommandmainwindow.obj
 0002:00001ab0       ??_C@_0N@FDIFJHBJ@r?4?5c?5?$CDFAFAF5?$AA@ 00414ab0     bcommandmainwindow.obj
 0002:00001ac0       ??_C@_0N@MIKMOEHD@t?4?5c?5?$CDFEFEFE?$AA@ 00414ac0     bcommandmainwindow.obj
 0002:00001ad0       ??_C@_09MGNLCJEH@y?4?5c?5None?$AA@ 00414ad0     bcommandmainwindow.obj
 0002:00001ae0       ??_C@_0EB@MNNGFADK@y?4y?4y?4y?4y?4y?4?$CF?4?$CI?5?$CI?5?$CB?5?$CI?5?$CB?5?$CI?5?$CB?5?$CI?5?$CB?5@ 00414ae0     bcommandmainwindow.obj
 0002:00001b28       ??_C@_0EB@HPFKOBOF@y?4y?4y?4y?4y?4?$CF?4x?5p?5s?5t?5i?5r?5r?5s?5t?5r?5@ 00414b28     bcommandmainwindow.obj
 0002:00001b70       ??_C@_0EB@NPIKBIAN@y?4y?4y?4y?4?$CF?4z?5f?5?9?5?$EA?5?$CG?5?$EA?5?$EA?5?$EA?5?$CG?5?$CG?5?$EA?5@ 00414b70     bcommandmainwindow.obj
 0002:00001bb8       ??_C@_0EB@HBOHIECC@y?4y?4y?4?$CF?4g?5i?5?9?5X?5?4?5?$CG?5?$CG?5?4?5?$CG?5?$CG?5?$CG?5?$CG?5@ 00414bb8     bcommandmainwindow.obj
 0002:00001c00       ??_C@_0EB@OGDDAOOH@y?4y?4?$CF?4g?5y?5?9?5?$CG?5?$CG?5?$CG?5?$CG?5?$EA?5?4?5?$CG?5?$EA?5?$CG?5?$CG?5@ 00414c00     bcommandmainwindow.obj
 0002:00001c48       ??_C@_0EB@GCIANAEK@y?4?$CF?4f?5y?5?$CD?5?$CG?5?$CG?5X?5?$EA?5?$CG?5?$EA?5?$EA?5?$CG?5?$EA?5X?5?$CG?5@ 00414c48     bcommandmainwindow.obj
 0002:00001c90       ??_C@_0EB@OLJDOENA@?$CF?4f?5r?5?$CL?5X?51?5?$DN?5X?5?4?5?$CG?5?$CG?5?$EA?5?$CG?5?4?5?4?5?$CG?5@ 00414c90     bcommandmainwindow.obj
 0002:00001cd8       ??_C@_0EB@JNAAPAHG@?$CI?5u?5?$CL?5?4?5?$EA?5t?4t?4?3?4?$EA?5?$CG?5?$EA?5?$CG?5?$CG?5?4?5?4?5?$CG?5@ 00414cd8     bcommandmainwindow.obj
 0002:00001d20       ??_C@_0EB@ILIEKMNH@?$CI?5y?5?4?5?4?5?$CG?5t?4t?4?$DO?4?$EA?5X?5?4?5?$CG?5?$EA?5?4?5?4?5X?5@ 00414d20     bcommandmainwindow.obj
 0002:00001d68       ??_C@_0EB@BGJMJNIB@?$CI?5y?5?4?5?4?5?4?5r?4t?4?$DL?4?4?5?4?5?4?5?4?5?4?5?4?5?4?5?4?5@ 00414d68     bcommandmainwindow.obj
 0002:00001db0       ??_C@_0EB@FAFIBBMN@?$CI?5y?5?4?5?4?5?4?5r?4t?4?$DL?4?4?5?4?5?4?5?4?5?4?5?4?5?4?5?4?5@ 00414db0     bcommandmainwindow.obj
 0002:00001df8       ??_C@_0EB@IOCFFFGB@?$CI?5y?5?4?5?4?5?4?5t?4t?4?9?41?5?$CD?46?47?4?$CL?4?$CG?5?4?5?4?5@ 00414df8     bcommandmainwindow.obj
 0002:00001e40       ??_C@_0EB@DBGHMNAN@?$CI?5y?5?4?5?4?5?4?5r?4t?43?4w?4t?4t?4t?4t?45?4X?5?4?5@ 00414e40     bcommandmainwindow.obj
 0002:00001e88       ??_C@_0EB@FPMBBKJN@?$CI?5y?5?4?5?4?5?4?5r?4t?4t?4t?4?$CK?4G?56?4t?4t?4H?5?4?5@ 00414e88     bcommandmainwindow.obj
 0002:00001ed0       ??_C@_0EB@BCBJDMHJ@?$CI?5r?5?4?5?4?5?4?5t?4t?4t?4O?4?4?5?4?51?5t?4t?44?4?4?5@ 00414ed0     bcommandmainwindow.obj
 0002:00001f18       ??_C@_0EB@DHAGLAIC@?$CI?5i?5?4?5?4?5?4?5r?4t?44?4?4?5?4?5?4?5?4?57?4t?4t?4?4?5@ 00414f18     bcommandmainwindow.obj
 0002:00001f60       ??_C@_0EB@LBJGABME@?1?5y?5?4?5?4?5?4?5r?4t?4?3?4?4?5?4?5?4?5?4?53?4t?4t?4?$EA?5@ 00414f60     bcommandmainwindow.obj
 0002:00001fa8       ??_C@_0EB@MHCPKCIJ@?1?5y?5?4?5?4?5?4?5t?4t?4?3?4?4?5?4?5?4?5?4?56?4t?4t?4?4?5@ 00414fa8     bcommandmainwindow.obj
 0002:00001ff0       ??_C@_0EB@LJNLKBKE@Q?5y?5?4?5?4?5?4?5r?4t?4?3?4?4?5?4?5?4?5?$EA?5r?4t?49?4?4?5@ 00414ff0     bcommandmainwindow.obj
 0002:00002038       ??_C@_0EB@HEMAHBFC@Q?5y?5?4?5?4?5?4?5r?4t?4?3?4?4?5?4?5?4?5O?4t?4t?4O?4?4?5@ 00415038     bcommandmainwindow.obj
 0002:00002080       ??_C@_0EB@FPAMIEBN@W?5y?5?4?5?4?5?4?5r?4t?4q?4?8?5J?5?$DO?4t?4t?4w?4?$CK?5?4?5@ 00415080     bcommandmainwindow.obj
 0002:000020c8       ??_C@_0EB@PIEFNJIA@R?5y?5?4?5?4?5?4?5r?4t?4t?4t?4t?4t?4t?49?4v?5o?5o?5@ 004150c8     bcommandmainwindow.obj
 0002:00002110       ??_C@_0EB@ELNCDIFH@Y?5y?5?4?5?4?5?4?51?5S?5?$FL?5?$CG?4?9?4?$CG?4D?5o?5o?5?$CK?5?$CK?5@ 00415110     bcommandmainwindow.obj
 0002:00002158       ??_C@_0EB@DMAEIHFF@U?5r?5?4?5?4?5?4?5?4?5X?5X?5X?5o?5?$CG?5?$CK?5?$CK?5?$DM?52?53?5@ 00415158     bcommandmainwindow.obj
 0002:000021a0       ??_C@_0EB@GIDMAFPL@U?5y?5?4?5?4?5?4?5X?5o?5o?5?$CG?5?$CK?5?$DM?5?$DM?52?53?55?55?5@ 004151a0     bcommandmainwindow.obj
 0002:000021e8       ??_C@_0EB@NBLPKHEN@I?5y?5X?5X?5o?5o?5?$CK?5?$DM?5?$DM?52?53?5c?5?$GA?5?$HN?5Z?5n?5@ 004151e8     bcommandmainwindow.obj
 0002:00002230       ??_C@_0EB@PHLOKMLG@L?5y?5o?5?$CG?5?$CK?5?$DM?5?$DM?52?53?53?5c?5m?5?0?41?4A?5S?5@ 00415230     bcommandmainwindow.obj
 0002:00002278       ??_C@_0EB@KJKAOJI@K?5s?5?$CJ?5_?5_?5?$GA?5?$GA?5?$GA?5?$HN?5?$HN?5?$HM?5?5?4?$DM?42?4?4?4?4?4@ 00415278     bcommandmainwindow.obj
 0002:000022c0       ??_C@_0EB@ICKEFIEI@K?5a?5?5?4?0?4?$DM?4?$DM?4?$DM?4?$DM?4?$DM?41?41?42?42?42?48?48?4@ 004152c0     bcommandmainwindow.obj
 0002:00002308       ??_C@_0EB@PBBPMDP@k?5a?5_?5?$HM?5?5?4?5?4?4?4?4?4?4?4X?4X?4X?4?0?4?0?4?$DM?4?$DM?4@ 00415308     bcommandmainwindow.obj
 0002:00002350       ??_C@_0EB@DIFMHJOF@j?5u?5s?5a?5s?5a?5s?5s?5a?5a?5s?5a?5a?5s?5s?5s?5@ 00415350     bcommandmainwindow.obj
 0002:00002398       ??_C@_0EB@OGFIAPEG@M?50?59?59?57?57?56?56?56?56?5?$DO?5?$DO?5?9?5?9?5$?5$?5@ 00415398     bcommandmainwindow.obj
 0002:000023e4       ??_SQFrame@@6BQObject@@@   004153e4     bcommandmainwindow.obj
 0002:000025b8       ??_SQFrame@@6BQPaintDevice@@@ 004155b8     bcommandmainwindow.obj
 0002:000025dc       ??_SQToolBar@@6BQObject@@@ 004155dc     bcommandmainwindow.obj
 0002:000027f8       ??_SQToolBar@@6BQPaintDevice@@@ 004157f8     bcommandmainwindow.obj
 0002:00002818       ??_C@_01NBENCBCI@?$CK?$AA@ 00415818     bcommandmainwindow.obj
 0002:0000281a       ??_C@_00CNPNBAHC@?$AA@     0041581a     bcommandmainwindow.obj
 0002:00002820       ??_7error_category@std@@6B@ 00415820     bcommandmainwindow.obj
 0002:0000283c       ??_7_Generic_error_category@std@@6B@ 0041583c     bcommandmainwindow.obj
 0002:00002854       ??_C@_07DCLBNMLN@generic?$AA@ 00415854     bcommandmainwindow.obj
 0002:0000285c       ??_C@_0O@BFJCFAAK@unknown?5error?$AA@ 0041585c     bcommandmainwindow.obj
 0002:00002870       ??_7_Iostream_error_category@std@@6B@ 00415870     bcommandmainwindow.obj
 0002:00002888       ??_C@_08LLGCOLLL@iostream?$AA@ 00415888     bcommandmainwindow.obj
 0002:00002894       ??_C@_0BG@PADBLCHM@iostream?5stream?5error?$AA@ 00415894     bcommandmainwindow.obj
 0002:000028b0       ??_7_System_error_category@std@@6B@ 004158b0     bcommandmainwindow.obj
 0002:000028c8       ??_C@_06FHFOAHML@system?$AA@ 004158c8     bcommandmainwindow.obj
 0002:000028d4       ??_7IccClientCallback@@6B@ 004158d4     bcommandmainwindow.obj
 0002:00002904       ??_7bCommandMainWindow@@6BQObject@@@ 00415904     bcommandmainwindow.obj
 0002:00002b18       ??_7bCommandMainWindow@@6BQPaintDevice@@@ 00415b18     bcommandmainwindow.obj
 0002:00002b3c       ??_7bCommandMainWindow@@6B@ 00415b3c     bcommandmainwindow.obj
 0002:00002b6c       ??_SQSpacerItem@@6B@       00415b6c     bcommandmainwindow.obj
 0002:00002bb4       ??_SQHBoxLayout@@6BQObject@@@ 00415bb4     bcommandmainwindow.obj
 0002:00002c1c       ??_SQHBoxLayout@@6BQLayoutItem@@@ 00415c1c     bcommandmainwindow.obj
 0002:00002c64       ??_SQVBoxLayout@@6BQObject@@@ 00415c64     bcommandmainwindow.obj
 0002:00002ccc       ??_SQVBoxLayout@@6BQLayoutItem@@@ 00415ccc     bcommandmainwindow.obj
 0002:00002d14       ??_SQPushButton@@6BQObject@@@ 00415d14     bcommandmainwindow.obj
 0002:00002f04       ??_SQPushButton@@6BQPaintDevice@@@ 00415f04     bcommandmainwindow.obj
 0002:00002f2c       ??_SQCheckBox@@6BQObject@@@ 00415f2c     bcommandmainwindow.obj
 0002:0000310c       ??_SQCheckBox@@6BQPaintDevice@@@ 0041610c     bcommandmainwindow.obj
 0002:00003134       ??_SQSpinBox@@6BQObject@@@ 00416134     bcommandmainwindow.obj
 0002:0000332c       ??_SQSpinBox@@6BQPaintDevice@@@ 0041632c     bcommandmainwindow.obj
 0002:00003350       ??_SQSpinBox@@6B@          00416350     bcommandmainwindow.obj
 0002:00003364       ??_SQPopupMenu@@6BQObject@@@ 00416364     bcommandmainwindow.obj
 0002:00003544       ??_SQPopupMenu@@6BQPaintDevice@@@ 00416544     bcommandmainwindow.obj
 0002:00003568       ??_SQPopupMenu@@6B@        00416568     bcommandmainwindow.obj
 0002:0000358c       ??_SQAction@@6B@           0041658c     bcommandmainwindow.obj
 0002:0000361c       ??_SQLabel@@6BQObject@@@   0041661c     bcommandmainwindow.obj
 0002:00003814       ??_SQLabel@@6BQPaintDevice@@@ 00416814     bcommandmainwindow.obj
 0002:00003834       ??_C@_07JBEBLGDD@CC_ROOT?$AA@ 00416834     bcommandmainwindow.obj
 0002:0000383c       ??_C@_09DDAHAMBK@CC_SYSTEM?$AA@ 0041683c     bcommandmainwindow.obj
 0002:00003848       ??_C@_0P@PCEDNJBJ@1aboutToQuit?$CI?$CJ?$AA@ 00416848     bcommandmainwindow.obj
 0002:00003858       ??_C@_0P@ODDOLDGA@2aboutToQuit?$CI?$CJ?$AA@ 00416858     bcommandmainwindow.obj
 0002:00003868       ??_C@_05FHBCAALB@?$CGFile?$AA@ 00416868     bcommandmainwindow.obj
 0002:00003870       ??_C@_05JFEBOHHM@?$CGHelp?$AA@ 00416870     bcommandmainwindow.obj
 0002:00003878       ??_C@_03CLCAEGCJ@new?$AA@  00416878     bcommandmainwindow.obj
 0002:0000387c       ??_C@_04CCPFBLLC@?$CGNew?$AA@ 0041687c     bcommandmainwindow.obj
 0002:00003884       ??_C@_0BA@NHPHGDF@1clearCurrent?$CI?$CJ?$AA@ 00416884     bcommandmainwindow.obj
 0002:00003894       ??_C@_0N@KCMOKDBB@2activated?$CI?$CJ?$AA@ 00416894     bcommandmainwindow.obj
 0002:000038a4       ??_C@_04PMOCAHAA@open?$AA@ 004168a4     bcommandmainwindow.obj
 0002:000038ac       ??_C@_05JLDGJIJB@?$CGOpen?$AA@ 004168ac     bcommandmainwindow.obj
 0002:000038b4       ??_C@_07FNFFLCAG@1open?$CI?$CJ?$AA@ 004168b4     bcommandmainwindow.obj
 0002:000038bc       ??_C@_07PEFPMDEJ@save?5as?$AA@ 004168bc     bcommandmainwindow.obj
 0002:000038c4       ??_C@_08KIDLFPBL@Save?5?$CGAs?$AA@ 004168c4     bcommandmainwindow.obj
 0002:000038d0       ??_C@_09PHKLKMHK@1saveAs?$CI?$CJ?$AA@ 004168d0     bcommandmainwindow.obj
 0002:000038dc       ??_C@_04EMMDIJJL@save?$AA@ 004168dc     bcommandmainwindow.obj
 0002:000038e4       ??_C@_05CLBHBGAK@?$CGSave?$AA@ 004168e4     bcommandmainwindow.obj
 0002:000038ec       ??_C@_07MFOAPPNB@1save?$CI?$CJ?$AA@ 004168ec     bcommandmainwindow.obj
 0002:000038f4       ??_C@_04MKNBDEPB@exit?$AA@ 004168f4     bcommandmainwindow.obj
 0002:000038fc       ??_C@_05PNPHNLAJ@E?$CGxit?$AA@ 004168fc     bcommandmainwindow.obj
 0002:00003904       ??_C@_08LPOBGBL@1close?$CI?$CJ?$AA@ 00416904     bcommandmainwindow.obj
 0002:00003910       ??_C@_08HOABKPGB@1about?$CI?$CJ?$AA@ 00416910     bcommandmainwindow.obj
 0002:0000391c       ??_C@_06JDCECANP@?$CGAbout?$AA@ 0041691c     bcommandmainwindow.obj
 0002:00003924       ??_C@_0N@INJJCLFL@1whatsThis?$CI?$CJ?$AA@ 00416924     bcommandmainwindow.obj
 0002:00003934       ??_C@_0N@GOMGDEGL@What?8s?5?$CGThis?$AA@ 00416934     bcommandmainwindow.obj
 0002:00003944       ??_C@_0N@DEJJEIFH@Timer?5period?$AA@ 00416944     bcommandmainwindow.obj
 0002:00003954       ??_C@_02NBCHHAAJ@mS?$AA@   00416954     bcommandmainwindow.obj
 0002:00003958       ??_C@_09IIBIKOMP@Run?5Timer?$AA@ 00416958     bcommandmainwindow.obj
 0002:00003964       ??_C@_0BD@LGHICAME@Copy?5Settings?5?9?9?9?$DO?$AA@ 00416964     bcommandmainwindow.obj
 0002:00003978       ??_C@_0CP@DIFDDFOA@Copies?5the?5comands?5from?5the?5left@ 00416978     bcommandmainwindow.obj
 0002:000039a8       ??_C@_0O@GFNNJOBL@bcommandFrame?$AA@ 004169a8     bcommandmainwindow.obj
 0002:000039b8       ??_C@_08LJGJBJHI@ccClient?$AA@ 004169b8     bcommandmainwindow.obj
 0002:000039c4       ??_C@_0BJ@HIHCPMND@Failed?5to?5connect?5to?5CSI?$AA@ 004169c4     bcommandmainwindow.obj
 0002:000039e0       ??_C@_08KEAFMMOG@bCommand?$AA@ 004169e0     bcommandmainwindow.obj
 0002:000039ec       ??_C@_08NNPAGPAF@command1?$AA@ 004169ec     bcommandmainwindow.obj
 0002:000039f8       ??_C@_08PGNNDMMG@command2?$AA@ 004169f8     bcommandmainwindow.obj
 0002:00003a04       ??_C@_0CK@BAMHDCEJ@1logRevertiveToDisplay?$CI?5const?5QS@ 00416a04     bcommandmainwindow.obj
 0002:00003a30       ??_C@_0BI@JOBLCDHJ@2log?$CI?5const?5QString?5?$CG?5?$CJ?$AA@ 00416a30     bcommandmainwindow.obj
 0002:00003a48       ??_C@_0BI@KEMBFLPD@1timerValueChanged?$CIint?$CJ?$AA@ 00416a48     bcommandmainwindow.obj
 0002:00003a60       ??_C@_0BD@OIBDOPAP@2valueChanged?$CIint?$CJ?$AA@ 00416a60     bcommandmainwindow.obj
 0002:00003a74       ??_C@_0BD@BELJPDMF@1toggleTimer?$CIbool?$CJ?$AA@ 00416a74     bcommandmainwindow.obj
 0002:00003a88       ??_C@_0P@POCECEMJ@2toggled?$CIbool?$CJ?$AA@ 00416a88     bcommandmainwindow.obj
 0002:00003a98       ??_C@_0BA@NJINJNBK@1showFileMenu?$CI?$CJ?$AA@ 00416a98     bcommandmainwindow.obj
 0002:00003aa8       ??_C@_0P@FGBMOJEC@2aboutToShow?$CI?$CJ?$AA@ 00416aa8     bcommandmainwindow.obj
 0002:00003ab8       ??_C@_0BK@OJDJFJMM@1slot_scriptDirty?$CI?5bool?5?$CJ?$AA@ 00416ab8     bcommandmainwindow.obj
 0002:00003ad4       ??_C@_0BM@CCODBOMP@2sig_commandChanged?$CI?5bool?5?$CJ?$AA@ 00416ad4     bcommandmainwindow.obj
 0002:00003af0       ??_C@_0DM@GLHCMEHG@1slot_addRegistration?$CI?5const?5int@ 00416af0     bcommandmainwindow.obj
 0002:00003b2c       ??_C@_0DO@KEOMNJNM@2sig_commandRegisterFor?$CI?5const?5i@ 00416b2c     bcommandmainwindow.obj
 0002:00003b6c       ??_C@_0BA@JJLOIBFO@1copySettings?$CI?$CJ?$AA@ 00416b6c     bcommandmainwindow.obj
 0002:00003b7c       ??_C@_0M@PIBNEBIG@2released?$CI?$CJ?$AA@ 00416b7c     bcommandmainwindow.obj
 0002:00003b88       ??_C@_06JJJOPNGN@?1load?$DN?$AA@ 00416b88     bcommandmainwindow.obj
 0002:00003b90       ??_C@_0BA@KJIGFIAE@CollediaControl?$AA@ 00416b90     bcommandmainwindow.obj
 0002:00003ba0       ??_C@_0N@KMIKIIN@?1recentFiles?$AA@ 00416ba0     bcommandmainwindow.obj
 0002:00003bb0       ??_C@_09IBNMCAOG@?1lastFile?$AA@ 00416bb0     bcommandmainwindow.obj
 0002:00003bbc       ??_C@_06GLNOLMNC@?$CF1?2?$CF2?2?$AA@ 00416bbc     bcommandmainwindow.obj
 0002:00003bc4       ??_C@_0BO@BJPHPGKL@open?5file?5dialogChoose?5a?5file?$AA@ 00416bc4     bcommandmainwindow.obj
 0002:00003be4       ??_C@_0CC@EHGAIJI@bCommand?5?$CI?$CK?4bcm?$CJ?$DL?$DLAll?5Files?5?$CI?$CK?4?$CK@ 00416be4     bcommandmainwindow.obj
 0002:00003c08       ??_C@_0BB@KLEJDDHA@bCommand?5?$CI?$CK?4bcm?$CJ?$AA@ 00416c08     bcommandmainwindow.obj
 0002:00003c1c       ??_C@_04EMMBMGJM@?4bcm?$AA@ 00416c1c     bcommandmainwindow.obj
 0002:00003c24       ??_C@_0CF@FBAJED@?6Do?5you?5want?5to?5overwrite?5this?5f@ 00416c24     bcommandmainwindow.obj
 0002:00003c4c       ??_C@_0BG@IPPGPODP@?6File?5already?5exists?4?$AA@ 00416c4c     bcommandmainwindow.obj
 0002:00003c64       ??_C@_02JINPPBEP@No?$AA@   00416c64     bcommandmainwindow.obj
 0002:00003c68       ??_C@_03CCLAEDDF@Yes?$AA@  00416c68     bcommandmainwindow.obj
 0002:00003c6c       ??_C@_07KGMMFLDN@Warning?$AA@ 00416c6c     bcommandmainwindow.obj
 0002:00003c74       ??_C@_03NLJIHOMM@?5?9?5?$AA@ 00416c74     bcommandmainwindow.obj
 0002:00003c78       ??_C@_01NOFIACDB@w?$AA@    00416c78     bcommandmainwindow.obj
 0002:00003c7c       ??_C@_0M@OFNGAGED@?$FLCommand1?$FN?6?$AA@ 00416c7c     bcommandmainwindow.obj
 0002:00003c88       ??_C@_03OFAPEBGM@?$CFs?6?$AA@ 00416c88     bcommandmainwindow.obj
 0002:00003c8c       ??_C@_0M@PHGDKJKN@?$FLCommand2?$FN?6?$AA@ 00416c8c     bcommandmainwindow.obj
 0002:00003c98       ??_C@_0L@JMNCELIN@?$FLComment?$FN?6?$AA@ 00416c98     bcommandmainwindow.obj
 0002:00003ca4       ??_C@_0O@DNMAIJBL@?$FLRevertives?$FN?6?$AA@ 00416ca4     bcommandmainwindow.obj
 0002:00003cb4       ??_C@_07KFLFMHCF@?$FLMain?$FN?6?$AA@ 00416cb4     bcommandmainwindow.obj
 0002:00003cbc       ??_C@_09PDKMFEOL@Timer?$DN?$CFd?6?$AA@ 00416cbc     bcommandmainwindow.obj
 0002:00003cc8       ??_C@_06HBOKHKDI@?$FLEND?$FN?6?$AA@ 00416cc8     bcommandmainwindow.obj
 0002:00003cd0       ??_C@_0BE@HJPJFJPJ@Failed?5to?5open?5file?$AA@ 00416cd0     bcommandmainwindow.obj
 0002:00003ce4       ??_C@_01KDCPPGHE@r?$AA@    00416ce4     bcommandmainwindow.obj
 0002:00003ce8       ??_C@_08FPABONKG@Command1?$AA@ 00416ce8     bcommandmainwindow.obj
 0002:00003cf4       ??_C@_08HECMLOGF@Command2?$AA@ 00416cf4     bcommandmainwindow.obj
 0002:00003d00       ??_C@_07JABLCLAF@Comment?$AA@ 00416d00     bcommandmainwindow.obj
 0002:00003d08       ??_C@_0L@ODOKLGBF@Revertives?$AA@ 00416d08     bcommandmainwindow.obj
 0002:00003d14       ??_C@_04KGFMLCPK@Main?$AA@ 00416d14     bcommandmainwindow.obj
 0002:00003d1c       ??_C@_0CM@PNOKGJI@LoadData?5Failed?5to?5open?5previous@ 00416d1c     bcommandmainwindow.obj
 0002:00003d48       ??_C@_05NHFJDMOA@Timer?$AA@ 00416d48     bcommandmainwindow.obj
 0002:00003d50       ??_C@_0BH@OHOKOCFI@Author?5?9?5Mark?5Baldry?6?6?$AA@ 00416d50     bcommandmainwindow.obj
 0002:00003d68       ??_C@_01EEMJAFIK@?6?$AA@   00416d68     bcommandmainwindow.obj
 0002:00003d6c       ??_C@_0L@LJKMINK@Version?5?9?5?$AA@ 00416d6c     bcommandmainwindow.obj
 0002:00003d78       ??_C@_02PHMGELLB@?6?6?$AA@ 00416d78     bcommandmainwindow.obj
 0002:00003d7c       ??_C@_0CB@PKKIIJO@1loadRecentFile?$CIconst?5QVariant?$CG?$CJ@ 00416d7c     bcommandmainwindow.obj
 0002:00003da0       ??_C@_0BA@NKKPKFAM@?6Does?5not?5exist?$AA@ 00416da0     bcommandmainwindow.obj
 0002:00003db0       ??_C@_0BE@CKOFLKOB@File?5does?5not?5exist?$AA@ 00416db0     bcommandmainwindow.obj
 0002:00003dc4       ??_C@_04LHIPGBGI@?$CK?5?9?5?$AA@ 00416dc4     bcommandmainwindow.obj
 0002:00003dcc       ??_C@_0M@PJBNBMBC@?$CGDon?8t?5Save?$AA@ 00416dcc     bcommandmainwindow.obj
 0002:00003dd8       ??_C@_0CC@HJHAIOMD@Do?5you?5want?5to?5save?5this?5script?5@ 00416dd8     bcommandmainwindow.obj
 0002:00003dfc       ??_C@_0BI@CBBGKMIC@bCommand?5unsaved?5script?$AA@ 00416dfc     bcommandmainwindow.obj
 0002:00003e14       ??_C@_0BA@JFNIOLAK@string?5too?5long?$AA@ 00416e14     bcommandmainwindow.obj
 0002:00003e24       ??_C@_0BI@CFPLBAOH@invalid?5string?5position?$AA@ 00416e24     bcommandmainwindow.obj
 0002:00003e40       ??_7commandEdit@@6BQObject@@@ 00416e40     commandEdit.obj
 0002:00004068       ??_7commandEdit@@6BQPaintDevice@@@ 00417068     commandEdit.obj
 0002:00004088       ??_C@_0CJ@FMKKBKKB@1slot_thisTextChanged?$CI?5const?5QSt@ 00417088     commandEdit.obj
 0002:000040b4       ??_C@_0CA@MFAIELPF@2textChanged?$CI?5const?5QString?5?$CG?5?$CJ?$AA@ 004170b4     commandEdit.obj
 0002:000040d8       ??_7command@@6BQObject@@@  004170d8     commandimpl.obj
 0002:0000428c       ??_7command@@6BQPaintDevice@@@ 0041728c     commandimpl.obj
 0002:000042b0       ??_7?$QPtrList@VcommandLine@@@@6B@ 004172b0     commandimpl.obj
 0002:000042d0       ??_C@_08FEDDJFIP@deselect?$AA@ 004172d0     commandimpl.obj
 0002:000042dc       ??_C@_0N@PBNGBON@Deselect?5All?$AA@ 004172dc     commandimpl.obj
 0002:000042ec       ??_C@_0DD@BKBANPIF@Select?1Deselect?5all?5lines?5to?5be?5@ 004172ec     commandimpl.obj
 0002:00004320       ??_C@_05OLIDKIJF@goAll?$AA@ 00417320     commandimpl.obj
 0002:00004328       ??_C@_06HAHBNAEK@Go?5All?$AA@ 00417328     commandimpl.obj
 0002:00004330       ??_C@_0BN@DCMLDHHE@Action?5all?5selected?5commands?$AA@ 00417330     commandimpl.obj
 0002:00004350       ??_C@_07LCOJGAO@line_?$CF1?$AA@ 00417350     commandimpl.obj
 0002:00004358       ??_C@_0BD@BPJCJNKG@1slot_hasChanged?$CI?$CJ?$AA@ 00417358     commandimpl.obj
 0002:0000436c       ??_C@_0BL@NMAFIJJG@2sig_commandLineModified?$CI?$CJ?$AA@ 0041736c     commandimpl.obj
 0002:00004388       ??_C@_0EC@JNNEFLBE@1slot_commandRegisterFor?$CI?5const?5@ 00417388     commandimpl.obj
 0002:000043d0       ??_C@_0EF@MNBCMOEF@2sig_commandLineRegisterFor?$CI?5con@ 004173d0     commandimpl.obj
 0002:00004418       ??_C@_0O@PMKMBHAN@1setEdit?$CIint?$CJ?$AA@ 00417418     commandimpl.obj
 0002:00004428       ??_C@_0P@GJCPJHBD@2nextEdit?$CIint?$CJ?$AA@ 00417428     commandimpl.obj
 0002:00004438       ??_C@_0BD@LHPPEKIM@2previousEdit?$CIint?$CJ?$AA@ 00417438     commandimpl.obj
 0002:0000444c       ??_C@_08PEFDJNOK@1allGo?$CI?$CJ?$AA@ 0041744c     commandimpl.obj
 0002:00004458       ??_C@_0L@JDNBNJNJ@2pressed?$CI?$CJ?$AA@ 00417458     commandimpl.obj
 0002:00004464       ??_C@_0BB@LMJLNKHE@1setCheckBoxes?$CI?$CJ?$AA@ 00417464     commandimpl.obj
 0002:00004478       ??_C@_0L@CALHPJHB@Select?5All?$AA@ 00417478     commandimpl.obj
 0002:00004488       ??_7commandLine@@6BQObject@@@ 00417488     commandLine.obj
 0002:0000463c       ??_7commandLine@@6BQPaintDevice@@@ 0041763c     commandLine.obj
 0002:0000465c       ??_C@_02JHAOMKMA@Go?$AA@   0041765c     commandLine.obj
 0002:00004660       ??_C@_0P@INOCLEPD@1sendCommand?$CI?$CJ?$AA@ 00417660     commandLine.obj
 0002:00004670       ??_C@_0P@BBHJHEBD@1nextCommand?$CI?$CJ?$AA@ 00417670     commandLine.obj
 0002:00004680       ??_C@_0M@KNAEKAHA@2nextEdit?$CI?$CJ?$AA@ 00417680     commandLine.obj
 0002:0000468c       ??_C@_0P@LPPPOIKO@1prevCommand?$CI?$CJ?$AA@ 0041768c     commandLine.obj
 0002:0000469c       ??_C@_0BA@KEKFGOEI@2previousEdit?$CI?$CJ?$AA@ 0041769c     commandLine.obj
 0002:000046ac       ??_C@_0BM@OGCFOEFL@1slot_commandEditModified?$CI?$CJ?$AA@ 004176ac     commandLine.obj
 0002:000046c8       ??_C@_0M@FJKMEJGG@2modified?$CI?$CJ?$AA@ 004176c8     commandLine.obj
 0002:000046d4       ??_C@_01FGNFDNOH@?$CF?$AA@ 004176d4     commandLine.obj
 0002:000046d8       ??_C@_01EPMOAMKG@$?$AA@    004176d8     commandLine.obj
 0002:000046dc       ??_C@_02IKAPFLDB@IW?$AA@   004176dc     commandLine.obj
 0002:000046e0       ??_C@_02MFEOMNPG@IP?$AA@   004176e0     commandLine.obj
 0002:000046e4       ??_C@_02NMFFPMLH@IQ?$AA@   004176e4     commandLine.obj
 0002:000046e8       ??_C@_02CDDJJAKL@IL?$AA@   004176e8     commandLine.obj
 0002:000046ec       ??_C@_02OEPNLDDP@GS?$AA@   004176ec     commandLine.obj
 0002:000046f0       ??_C@_02MPNAOAPM@GP?$AA@   004176f0     commandLine.obj
 0002:000046f4       ??_C@_02NGMLNBLN@GQ?$AA@   004176f4     commandLine.obj
 0002:000046f8       ??_C@_02CJKHLNKB@GL?$AA@   004176f8     commandLine.obj
 0002:000046fc       ??_C@_02LENCMAPF@RC?$AA@   004176fc     commandLine.obj
 0002:00004700       ??_C@_02NFDNIBGH@RP?$AA@   00417700     commandLine.obj
 0002:00004704       ??_C@_02MMCGLACG@RQ?$AA@   00417704     commandLine.obj
 0002:00004708       ??_C@_02DDEKNMDK@RL?$AA@   00417708     commandLine.obj
 0002:0000470c       ??_C@_02CKFBONHL@RM?$AA@   0041770c     commandLine.obj
 0002:00004710       ??_C@_02BHMLOLI@RN?$AA@    00417710     commandLine.obj
 0002:00004714       ??_C@_0CM@MHLOPFJL@device?$DN?$CF1?0?5database?$DN?$CF2?0?5index?$DN?$CF3@ 00417714     commandLine.obj
 0002:00004740       ??_C@_02DCPKDCLJ@DM?$AA@   00417740     commandLine.obj
 0002:00004744       ??_C@_02OLCMIILA@NS?$AA@   00417744     commandLine.obj
 0002:00004748       ??_C@_0DE@MNLGBIB@commandLine?3?3sendCommand?$CI?$CJ?5?9?5don@ 00417748     commandLine.obj
 0002:0000477c       ??_C@_02BJKFEGHC@1?$DL?$AA@ 0041777c     commandLine.obj
 0002:00004780       ??_C@_02BIGHCMEF@0?$DL?$AA@ 00417780     commandLine.obj
 0002:00004784       ??_C@_01HIHLOKLC@1?$AA@    00417784     commandLine.obj
 0002:00004788       ??_C@_05OPJLJKEE@?$FL?$CL?9?$DN?$FN?$AA@ 00417788     commandLine.obj
 0002:00004790       ??_C@_01NEMOKFLO@?$DN?$AA@ 00417790     commandLine.obj
 0002:00004794       ??_C@_06NFOFNMML@?$FL?$CL?9?1?$CK?$FN?$AA@ 00417794     commandLine.obj
 0002:0000479c       ??_C@_0BH@KNMCCPJM@Unknown?5operation?5?8?$CFc?8?$AA@ 0041779c     commandLine.obj
 0002:000047b4       ??_C@_02FOEOMHFC@?$CL?$DN?$AA@ 004177b4     commandLine.obj
 0002:000047b8       ??_C@_02FKMDLLOA@?9?$DN?$AA@ 004177b8     commandLine.obj
 0002:000047bc       ??_C@_02ECNGHCIF@?$CL?$CL?$AA@ 004177bc     commandLine.obj
 0002:000047c0       ??_C@_02BAABKJLB@?9?9?$AA@ 004177c0     commandLine.obj
 0002:000047c4       ??_C@_0M@ENJGNCNM@QMainWindow?$AA@ 004177c4     commandLine.obj
 0002:000047d0       ??_C@_08DHGGDGE@?5set?5to?5?$AA@ 004177d0     commandLine.obj
 0002:000047dc       ??_C@_01GEODFPGF@?8?$AA@   004177dc     commandLine.obj
 0002:000047e0       ??_C@_09JABJGBEH@?5set?5to?5?8?$AA@ 004177e0     commandLine.obj
 0002:000047ec       ??_C@_01DCLJPIOD@?$CB?$AA@ 004177ec     commandLine.obj
 0002:000047f0       ??_C@_0GHL@NIHIAKFF@?$DMb?$DOCommand?5Entry?$DM?1b?$DO?$DMbr?$DOEnter?5th@ 004177f0     commandLine.obj
 0002:00004e6c       ??_C@_0CP@BBKAIHBL@Either?5sends?5the?5command?0?5or?5set@ 00417e6c     commandLine.obj
 0002:00004e9c       ??_C@_0DI@PMNAOABC@If?5checked?5the?5?8Go?5All?8?5button?5w@ 00417e9c     commandLine.obj
 0002:00004ed4       ??_C@_0CN@FPMLFBOO@Your?5CC_ROOT?5environment?5variabl@ 00417ed4     main.obj
 0002:00004f04       ??_C@_0BB@CFIIIIPE@bCommand?5Warning?$AA@ 00417f04     main.obj
 0002:00004f18       ??_C@_0CP@FFIAPLAI@Your?5CC_SYSTEM?5environment?5varia@ 00417f18     main.obj
 0002:00004f48       ??_C@_0M@ONFACNEE@commandEdit?$AA@ 00417f48     moc_commandEdit.obj
 0002:00004f60       ??_C@_0BF@JBLLCPKM@slot_thisTextChanged?$AA@ 00417f60     moc_commandEdit.obj
 0002:00004f84       ??_C@_0CF@CIIFHMHB@slot_thisTextChanged?$CIconst?5QStri@ 00417f84     moc_commandEdit.obj
 0002:00004fb8       ??_C@_08HCGKDFBD@nextEdit?$AA@ 00417fb8     moc_commandEdit.obj
 0002:00004fd0       ??_C@_0N@LKDFOLAM@previousEdit?$AA@ 00417fd0     moc_commandEdit.obj
 0002:00004fec       ??_C@_08PCMCJENN@modified?$AA@ 00417fec     moc_commandEdit.obj
 0002:0000501c       ??_C@_0L@EFEEHPGI@nextEdit?$CI?$CJ?$AA@ 0041801c     moc_commandEdit.obj
 0002:00005028       ??_C@_0P@OJHFEGHK@previousEdit?$CI?$CJ?$AA@ 00418028     moc_commandEdit.obj
 0002:00005038       ??_C@_0L@LBOMJGHO@modified?$CI?$CJ?$AA@ 00418038     moc_commandEdit.obj
 0002:00005048       ??_7revertiveImpl@@6BQObject@@@ 00418048     revertiveImpl.obj
 0002:00005200       ??_7revertiveImpl@@6BQPaintDevice@@@ 00418200     revertiveImpl.obj
 0002:00005220       ??_C@_0BD@BFOEBCAN@1addRegistration?$CI?$CJ?$AA@ 00418220     revertiveImpl.obj
 0002:00005234       ??_C@_08HNILJOLJ@1clear?$CI?$CJ?$AA@ 00418234     revertiveImpl.obj
 0002:00005240       ??_C@_0BD@IOPJALNN@1setLogLength?$CIint?$CJ?$AA@ 00418240     revertiveImpl.obj
 0002:00005254       ??_C@_0BE@IDLGIECE@1pauseDisplay?$CIbool?$CJ?$AA@ 00418254     revertiveImpl.obj
 0002:00005268       ??_C@_0BM@IBDPENJC@1slot_autoRegisterRev?$CIbool?$CJ?$AA@ 00418268     revertiveImpl.obj
 0002:00005284       ??_C@_08GDAMKODC@?$CFd?0?$CFd?0?$CFd?$AA@ 00418284     revertiveImpl.obj
 0002:00005290       ??_C@_01GPOEFGEJ@?7?$AA@   00418290     revertiveImpl.obj
 0002:00005294       ??_C@_0N@HLCLAHBI@hh?3mm?3ss?4zzz?$AA@ 00418294     revertiveImpl.obj
 0002:000052a4       ??_C@_0O@HMPNPJLI@IR?5?$CF1?5?8?$CF2?8?5?$CF3?$AA@ 004182a4     revertiveImpl.obj
 0002:000052b4       ??_C@_0M@JDAGAGMD@RR?5?$CF1?5?$CF2?5?$CF3?$AA@ 004182b4     revertiveImpl.obj
 0002:000052c0       ??_C@_0M@HLNJMCP@GR?5?$CF1?5?$CF2?5?$CF3?$AA@ 004182c0     revertiveImpl.obj
 0002:000052cc       ??_C@_0M@BPFLFFNE@DC?5?$CF1?5?$CF2?5?$CF3?$AA@ 004182cc     revertiveImpl.obj
 0002:000052d8       ??_C@_0BB@GLKEPIFN@NS?5?$CF1?5?$CF2?5?8?$CF3?8?5?$CF4?$AA@ 004182d8     revertiveImpl.obj
 0002:000052ec       ??_C@_09LGDEBGLO@maxLines?$DN?$AA@ 004182ec     revertiveImpl.obj
 0002:000052f8       ??_C@_08KFDMPCO@maxLines?$AA@ 004182f8     revertiveImpl.obj
 0002:00005304       ??_C@_0BD@PBGJIJFM@bCommandMainWindow?$AA@ 00418304     moc_bcommandmainwindow.obj
 0002:00005324       ??_C@_0N@MEMLMGOL@showFileMenu?$AA@ 00418324     moc_bcommandmainwindow.obj
 0002:00005340       ??_C@_05BEELFHJC@about?$AA@ 00418340     moc_bcommandmainwindow.obj
 0002:00005354       ??_C@_0N@HGEBOIAN@clearCurrent?$AA@ 00418354     moc_bcommandmainwindow.obj
 0002:0000537c       ??_C@_06HDJLOJFE@saveAs?$AA@ 0041837c     moc_bcommandmainwindow.obj
 0002:0000539c       ??_C@_0N@LABLAKCK@copySettings?$AA@ 0041839c     moc_bcommandmainwindow.obj
 0002:000053ac       ??_C@_06DJHIOBEC@iValue?$AA@ 004183ac     moc_bcommandmainwindow.obj
 0002:000053c0       ??_C@_0BC@FHJLBPPP@timerValueChanged?$AA@ 004183c0     moc_bcommandmainwindow.obj
 0002:000053d4       ??_C@_01KGKMHCOC@e?$AA@    004183d4     moc_bcommandmainwindow.obj
 0002:000053d8       ??_C@_0M@KEFEHEJI@QTimerEvent?$AA@ 004183d8     moc_bcommandmainwindow.obj
 0002:000053f0       ??_C@_0L@JFEEJKKP@timerEvent?$AA@ 004183f0     moc_bcommandmainwindow.obj
 0002:000053fc       ??_C@_06DABKIOBD@bState?$AA@ 004183fc     moc_bcommandmainwindow.obj
 0002:00005410       ??_C@_0M@KMNNKGIL@toggleTimer?$AA@ 00418410     moc_bcommandmainwindow.obj
 0002:00005428       ??_C@_0P@GEIGAHKK@loadRecentFile?$AA@ 00418428     moc_bcommandmainwindow.obj
 0002:00005444       ??_C@_0BB@BEODAODD@slot_scriptDirty?$AA@ 00418444     moc_bcommandmainwindow.obj
 0002:00005464       ??_C@_0M@PGFIPKKA@aboutToQuit?$AA@ 00418464     moc_bcommandmainwindow.obj
 0002:0000550c       ??_C@_0P@LNJFABNK@showFileMenu?$CI?$CJ?$AA@ 0041850c     moc_bcommandmainwindow.obj
 0002:0000551c       ??_C@_07MEGALADH@about?$CI?$CJ?$AA@ 0041851c     moc_bcommandmainwindow.obj
 0002:00005524       ??_C@_0P@GJGHOKPF@clearCurrent?$CI?$CJ?$AA@ 00418524     moc_bcommandmainwindow.obj
 0002:00005534       ??_C@_06OMHMOBPC@open?$CI?$CJ?$AA@ 00418534     moc_bcommandmainwindow.obj
 0002:0000553c       ??_C@_08HFBJDJKE@saveAs?$CI?$CJ?$AA@ 0041853c     moc_bcommandmainwindow.obj
 0002:00005548       ??_C@_06HEMJKMCF@save?$CI?$CJ?$AA@ 00418548     moc_bcommandmainwindow.obj
 0002:00005550       ??_C@_0P@PNKGBNJO@copySettings?$CI?$CJ?$AA@ 00418550     moc_bcommandmainwindow.obj
 0002:00005560       ??_C@_0BH@HFDIFBPH@timerValueChanged?$CIint?$CJ?$AA@ 00418560     moc_bcommandmainwindow.obj
 0002:00005578       ??_C@_0BJ@FLPACOCB@timerEvent?$CIQTimerEvent?$CK?$CJ?$AA@ 00418578     moc_bcommandmainwindow.obj
 0002:00005594       ??_C@_0BC@ELIODIKB@toggleTimer?$CIbool?$CJ?$AA@ 00418594     moc_bcommandmainwindow.obj
 0002:000055a8       ??_C@_0CA@OLACHFNK@loadRecentFile?$CIconst?5QVariant?$CG?$CJ?$AA@ 004185a8     moc_bcommandmainwindow.obj
 0002:000055c8       ??_C@_0BH@CGPJFNNE@slot_scriptDirty?$CIbool?$CJ?$AA@ 004185c8     moc_bcommandmainwindow.obj
 0002:000055e0       ??_C@_0O@IBHHNJAA@aboutToQuit?$CI?$CJ?$AA@ 004185e0     moc_bcommandmainwindow.obj
 0002:000055f0       ??_C@_0BC@DHCLDELL@IccClientCallback?$AA@ 004185f0     moc_bcommandmainwindow.obj
 0002:00005604       ??_C@_07KMMNMMFF@command?$AA@ 00418604     moc_commandimpl.obj
 0002:00005618       ??_C@_0O@HNBGGDNA@setCheckBoxes?$AA@ 00418618     moc_commandimpl.obj
 0002:00005634       ??_C@_05MEHLAELG@clear?$AA@ 00418634     moc_commandimpl.obj
 0002:0000563c       ??_C@_06FNPGGBJI@slCmds?$AA@ 0041863c     moc_commandimpl.obj
 0002:00005644       ??_C@_01NKEKCIAE@?$AE?$AA@ 00418644     moc_commandimpl.obj
 0002:00005654       ??_C@_0N@CKEDMOEM@loadSettings?$AA@ 00418654     moc_commandimpl.obj
 0002:0000567c       ??_C@_05DHBHLMHJ@allGo?$AA@ 0041867c     moc_commandimpl.obj
 0002:00005690       ??_C@_0BA@CELOKFI@slot_hasChanged?$AA@ 00418690     moc_commandimpl.obj
 0002:000056a0       ??_C@_04IOPAAFAP@iDev?$AA@ 004186a0     moc_commandimpl.obj
 0002:000056a8       ??_C@_04HIPJCLLI@iMin?$AA@ 004186a8     moc_commandimpl.obj
 0002:000056b0       ??_C@_04GKHCMPNH@iMax?$AA@ 004186b0     moc_commandimpl.obj
 0002:000056c4       ??_C@_0BI@GALEAKKP@slot_commandRegisterFor?$AA@ 004186c4     moc_commandimpl.obj
 0002:00005734       ??_C@_0BA@CHJLAAFI@setCheckBoxes?$CI?$CJ?$AA@ 00418734     moc_commandimpl.obj
 0002:00005744       ??_C@_07MHOKIBOP@clear?$CI?$CJ?$AA@ 00418744     moc_commandimpl.obj
 0002:0000574c       ??_C@_0BK@KNMIMDLI@loadSettings?$CIQStringList?$CJ?$AA@ 0041874c     moc_commandimpl.obj
 0002:00005768       ??_C@_07EODCICLM@allGo?$CI?$CJ?$AA@ 00418768     moc_commandimpl.obj
 0002:00005770       ??_C@_0BC@EAKFFGMC@slot_hasChanged?$CI?$CJ?$AA@ 00418770     moc_commandimpl.obj
 0002:00005784       ??_C@_0DK@OEMEPAOP@slot_commandRegisterFor?$CIconst?5in@ 00418784     moc_commandimpl.obj
 0002:000057c0       ??_C@_06BCGCEKCP@bDirty?$AA@ 004187c0     moc_commandimpl.obj
 0002:000057d4       ??_C@_0BD@MOCNJBDE@sig_commandChanged?$AA@ 004187d4     moc_commandimpl.obj
 0002:000057f4       ??_C@_0BH@HLNDKBFK@sig_commandRegisterFor?$AA@ 004187f4     moc_commandimpl.obj
 0002:0000580c       ??_C@_03GLPMCEFE@msg?$AA@  0041880c     moc_commandimpl.obj
 0002:0000581c       ??_C@_03MGHMBJCF@log?$AA@  0041881c     moc_commandimpl.obj
 0002:00005844       ??_C@_0BJ@HOCGPEHO@sig_commandChanged?$CIbool?$CJ?$AA@ 00418844     moc_commandimpl.obj
 0002:00005860       ??_C@_0DJ@GFPNHAF@sig_commandRegisterFor?$CIconst?5int@ 00418860     moc_commandimpl.obj
 0002:0000589c       ??_C@_0BE@JEKAGJIC@log?$CIconst?5QString?$CG?$CJ?$AA@ 0041889c     moc_commandimpl.obj
 0002:000058b0       ??_C@_0M@EELMKCHN@commandLine?$AA@ 004188b0     moc_commandLine.obj
 0002:000058d4       ??_C@_06OMBKLGNF@autoGo?$AA@ 004188d4     moc_commandLine.obj
 0002:000058dc       ??_C@_08GAMFCJDN@sSetting?$AA@ 004188dc     moc_commandLine.obj
 0002:000058f4       ??_C@_0M@OFOJPIHN@loadSetting?$AA@ 004188f4     moc_commandLine.obj
 0002:0000590c       ??_C@_0M@BLBKCPCE@saveSetting?$AA@ 0041890c     moc_commandLine.obj
 0002:00005924       ??_C@_0M@PHLKDKBA@sendCommand?$AA@ 00418924     moc_commandLine.obj
 0002:00005930       ??_C@_04CBGLLEFE@iPos?$AA@ 00418930     moc_commandLine.obj
 0002:00005944       ??_C@_07NJDNGBEA@setEdit?$AA@ 00418944     moc_commandLine.obj
 0002:00005958       ??_C@_0M@ODHNGFNM@nextCommand?$AA@ 00418958     moc_commandLine.obj
 0002:00005970       ??_C@_0M@HNDPKIKI@prevCommand?$AA@ 00418970     moc_commandLine.obj
 0002:00005988       ??_C@_0BJ@GAOIGDJP@slot_commandEditModified?$AA@ 00418988     moc_commandLine.obj
 0002:00005a14       ??_C@_08KMFFEDEK@autoGo?$CI?$CJ?$AA@ 00418a14     moc_commandLine.obj
 0002:00005a20       ??_C@_0BF@HBBCPAM@loadSetting?$CIQString?$CJ?$AA@ 00418a20     moc_commandLine.obj
 0002:00005a38       ??_C@_0O@CICBEPFG@saveSetting?$CI?$CJ?$AA@ 00418a38     moc_commandLine.obj
 0002:00005a48       ??_C@_0O@PONGLEOK@sendCommand?$CI?$CJ?$AA@ 00418a48     moc_commandLine.obj
 0002:00005a58       ??_C@_0N@BELKINIK@setEdit?$CIint?$CJ?$AA@ 00418a58     moc_commandLine.obj
 0002:00005a68       ??_C@_0O@GCENHEAK@nextCommand?$CI?$CJ?$AA@ 00418a68     moc_commandLine.obj
 0002:00005a78       ??_C@_0O@MMMLOILH@prevCommand?$CI?$CJ?$AA@ 00418a78     moc_commandLine.obj
 0002:00005a88       ??_C@_0BL@FAHKEOGM@slot_commandEditModified?$CI?$CJ?$AA@ 00418a88     moc_commandLine.obj
 0002:00005ac8       ??_C@_0BI@FFEJPGPE@sig_commandLineModified?$AA@ 00418ac8     moc_commandLine.obj
 0002:00005aec       ??_C@_0BL@LFDAMFLH@sig_commandLineRegisterFor?$AA@ 00418aec     moc_commandLine.obj
 0002:00005b50       ??_C@_0O@LGGPNHD@nextEdit?$CIint?$CJ?$AA@ 00418b50     moc_commandLine.obj
 0002:00005b60       ??_C@_0BC@ELJOAHEB@previousEdit?$CIint?$CJ?$AA@ 00418b60     moc_commandLine.obj
 0002:00005b74       ??_C@_0BK@FGBGKOGK@sig_commandLineModified?$CI?$CJ?$AA@ 00418b74     moc_commandLine.obj
 0002:00005b90       ??_C@_0DN@CKGFPHID@sig_commandLineRegisterFor?$CIconst@ 00418b90     moc_commandLine.obj
 0002:00005bd0       ??_C@_0BB@NDADHECC@revertiveDisplay?$AA@ 00418bd0     moc_revertiveDisplay.obj
 0002:00005bf0       ??_C@_0P@DMEOIADN@languageChange?$AA@ 00418bf0     moc_revertiveDisplay.obj
 0002:00005c0c       ??_C@_0BB@PFEIHPGD@languageChange?$CI?$CJ?$AA@ 00418c0c     moc_revertiveDisplay.obj
 0002:00005c20       ??_C@_0O@JKKNNIPK@revertiveImpl?$AA@ 00418c20     moc_revertiveImpl.obj
 0002:00005c30       ??_C@_08FBCJMBOB@bChecked?$AA@ 00418c30     moc_revertiveImpl.obj
 0002:00005c48       ??_C@_0N@HMPCJAMN@pauseDisplay?$AA@ 00418c48     moc_revertiveImpl.obj
 0002:00005c70       ??_C@_0N@HBHADFPG@setLogLength?$AA@ 00418c70     moc_revertiveImpl.obj
 0002:00005c80       ??_C@_06NKGAIAFL@slRevs?$AA@ 00418c80     moc_revertiveImpl.obj
 0002:00005cac       ??_C@_0BG@LEOFCKHC@logRevertiveToDisplay?$AA@ 00418cac     moc_revertiveImpl.obj
 0002:00005cd0       ??_C@_0BA@PPIGPEBI@addRegistration?$AA@ 00418cd0     moc_revertiveImpl.obj
 0002:00005ce0       ??_C@_06GFEJIFEL@iStart?$AA@ 00418ce0     moc_revertiveImpl.obj
 0002:00005ce8       ??_C@_04ECONPNFI@iEnd?$AA@ 00418ce8     moc_revertiveImpl.obj
 0002:00005d08       ??_C@_0BF@JLJOMPPG@slot_addRegistration?$AA@ 00418d08     moc_revertiveImpl.obj
 0002:00005d20       ??_C@_03MPCMJDLP@bOn?$AA@  00418d20     moc_revertiveImpl.obj
 0002:00005d30       ??_C@_0BF@IKHIENMA@slot_autoRegisterRev?$AA@ 00418d30     moc_revertiveImpl.obj
 0002:00005dc0       ??_C@_0BD@MJDGBGKO@pauseDisplay?$CIbool?$CJ?$AA@ 00418dc0     moc_revertiveImpl.obj
 0002:00005dd4       ??_C@_0BC@NBMOMALJ@setLogLength?$CIint?$CJ?$AA@ 00418dd4     moc_revertiveImpl.obj
 0002:00005de8       ??_C@_0CG@ONOFHHDK@logRevertiveToDisplay?$CIconst?5QStr@ 00418de8     moc_revertiveImpl.obj
 0002:00005e10       ??_C@_0BC@EKNDNJGJ@addRegistration?$CI?$CJ?$AA@ 00418e10     moc_revertiveImpl.obj
 0002:00005e24       ??_C@_0DC@PBHNNJCP@addRegistration?$CIconst?5int?$CG?0const@ 00418e24     moc_revertiveImpl.obj
 0002:00005e58       ??_C@_0DH@LFPOMBPI@slot_addRegistration?$CIconst?5int?$CG?0@ 00418e58     moc_revertiveImpl.obj
 0002:00005e90       ??_C@_0BL@DHGAOHKF@slot_autoRegisterRev?$CIbool?$CJ?$AA@ 00418e90     moc_revertiveImpl.obj
 0002:00005eb0       ??_7revertiveDisplay@@6BQObject@@@ 00418eb0     revertiveDisplay.obj
 0002:00006068       ??_7revertiveDisplay@@6BQPaintDevice@@@ 00419068     revertiveDisplay.obj
 0002:0000608c       ??_SQTextEdit@@6BQObject@@@ 0041908c     revertiveDisplay.obj
 0002:00006408       ??_SQTextEdit@@6BQPaintDevice@@@ 00419408     revertiveDisplay.obj
 0002:0000642c       ??_SQListBox@@6BQObject@@@ 0041942c     revertiveDisplay.obj
 0002:000066d4       ??_SQListBox@@6BQPaintDevice@@@ 004196d4     revertiveDisplay.obj
 0002:000066fc       ??_SQGroupBox@@6BQObject@@@ 004196fc     revertiveDisplay.obj
 0002:000068dc       ??_SQGroupBox@@6BQPaintDevice@@@ 004198dc     revertiveDisplay.obj
 0002:00006904       ??_SQLineEdit@@6BQObject@@@ 00419904     revertiveDisplay.obj
 0002:00006b2c       ??_SQLineEdit@@6BQPaintDevice@@@ 00419b2c     revertiveDisplay.obj
 0002:00006b54       ??_SQGridLayout@@6BQObject@@@ 00419b54     revertiveDisplay.obj
 0002:00006bc4       ??_SQGridLayout@@6BQLayoutItem@@@ 00419bc4     revertiveDisplay.obj
 0002:00006c04       ??_C@_0BH@BFKBHGOF@revertiveDisplayLayout?$AA@ 00419c04     revertiveDisplay.obj
 0002:00006c1c       ??_C@_06GGABBMAJ@frame6?$AA@ 00419c1c     revertiveDisplay.obj
 0002:00006c24       ??_C@_0N@LIBEELOM@frame6Layout?$AA@ 00419c24     revertiveDisplay.obj
 0002:00006c34       ??_C@_07DHLIGHOL@results?$AA@ 00419c34     revertiveDisplay.obj
 0002:00006c3c       ??_C@_07IBBCGPPB@layout6?$AA@ 00419c3c     revertiveDisplay.obj
 0002:00006c44       ??_C@_0L@KGLFILOJ@textLabel1?$AA@ 00419c44     revertiveDisplay.obj
 0002:00006c50       ??_C@_0L@EFDFAOMC@deviceSpin?$AA@ 00419c50     revertiveDisplay.obj
 0002:00006c5c       ??_C@_0N@HPEGIJEE@textLabel1_2?$AA@ 00419c5c     revertiveDisplay.obj
 0002:00006c6c       ??_C@_07FFBHFBOB@minSpin?$AA@ 00419c6c     revertiveDisplay.obj
 0002:00006c74       ??_C@_0N@GGFNLIAF@textLabel1_3?$AA@ 00419c74     revertiveDisplay.obj
 0002:00006c84       ??_C@_07LDHHPOAA@maxSpin?$AA@ 00419c84     revertiveDisplay.obj
 0002:00006c8c       ??_C@_0P@PAJBPMDK@registerButton?$AA@ 00419c8c     revertiveDisplay.obj
 0002:00006c9c       ??_C@_08JJFIDMGL@addCheck?$AA@ 00419c9c     revertiveDisplay.obj
 0002:00006ca8       ??_C@_07HOBOINOB@regList?$AA@ 00419ca8     revertiveDisplay.obj
 0002:00006cb0       ??_C@_09JAGLPBKP@groupBox1?$AA@ 00419cb0     revertiveDisplay.obj
 0002:00006cbc       ??_C@_0BA@CPEHJICH@lineEditComment?$AA@ 00419cbc     revertiveDisplay.obj
 0002:00006ccc       ??_C@_07PMGFJLLE@layout3?$AA@ 00419ccc     revertiveDisplay.obj
 0002:00006cd4       ??_C@_0N@CJBMCOMC@textLabel1_4?$AA@ 00419cd4     revertiveDisplay.obj
 0002:00006ce4       ??_C@_0N@LGMCBMFG@logCountSpin?$AA@ 00419ce4     revertiveDisplay.obj
 0002:00006cf4       ??_C@_0M@MLAKAMHL@clearButton?$AA@ 00419cf4     revertiveDisplay.obj
 0002:00006d00       ??_C@_0L@PFPEIEGP@pauseCheck?$AA@ 00419d00     revertiveDisplay.obj
 0002:00006d0c       ??_C@_0N@FNGPGGHD@autoRegister?$AA@ 00419d0c     revertiveDisplay.obj
 0002:00006d1c       ??_C@_05MLDKGAGH@Form1?$AA@ 00419d1c     revertiveDisplay.obj
 0002:00006d24       ??_C@_06OIEJKIHP@Device?$AA@ 00419d24     revertiveDisplay.obj
 0002:00006d2c       ??_C@_08CDDBELFA@Min?5Slot?$AA@ 00419d2c     revertiveDisplay.obj
 0002:00006d38       ??_C@_08PENKPJBB@Max?5Slot?$AA@ 00419d38     revertiveDisplay.obj
 0002:00006d44       ??_C@_08LFIJLPOM@Register?$AA@ 00419d44     revertiveDisplay.obj
 0002:00006d50       ??_C@_0BE@BGMMDIHO@Add?5to?5Registration?$AA@ 00419d50     revertiveDisplay.obj
 0002:00006d64       ??_C@_0O@MADIDPBE@Max?5Log?5Lines?$AA@ 00419d64     revertiveDisplay.obj
 0002:00006d74       ??_C@_09FJLLKFCC@Clear?5Log?$AA@ 00419d74     revertiveDisplay.obj
 0002:00006d80       ??_C@_0O@LFLJLAGN@Pause?5Display?$AA@ 00419d80     revertiveDisplay.obj
 0002:00006d90       ??_C@_0O@FCGLNADA@Auto?5Register?$AA@ 00419d90     revertiveDisplay.obj
 0002:00006da0       ??_C@_02GMHACPFF@?$CFu?$AA@ 00419da0     ccLibrary_vs2013:ccClient.obj
 0002:00006da8       ??_7ccClient@@6B@          00419da8     ccLibrary_vs2013:ccClient.obj
 0002:00006dac       ??_C@_0BJ@JOJMAJDN@ccClientMessageWindow_?$CFp?$AA@ 00419dac     ccLibrary_vs2013:ccClient.obj
 0002:00006dc8       ??_C@_0CI@HDLJCNHG@Cannot?5create?5ccClientMessageWin@ 00419dc8     ccLibrary_vs2013:ccClient.obj
 0002:00006df0       ??_C@_0BE@FKAJGBAE@Very?5Serious?5Error?$CB?$AA@ 00419df0     ccLibrary_vs2013:ccClient.obj
 0002:00006e04       ??_C@_0BL@HLDPIAEG@ccclient?5message?5window?5?$CFd?$AA@ 00419e04     ccLibrary_vs2013:ccClient.obj
 0002:00006e20       ??_C@_0BA@OPCDEPBM@handleShare?4dll?$AA@ 00419e20     ccLibrary_vs2013:ccClient.obj
 0002:00006e30       ??_C@_07OLHBNAMO@csiHwnd?$AA@ 00419e30     ccLibrary_vs2013:ccClient.obj
 0002:00006e38       ??_C@_0CK@BMPKJFHD@ccClient?3?5CSI?5handle?5from?5handle@ 00419e38     ccLibrary_vs2013:ccClient.obj
 0002:00006e64       ??_C@_0DP@KMLDKLPC@ccClient?3?5REQUESTING?5CSI?5handle?5@ 00419e64     ccLibrary_vs2013:ccClient.obj
 0002:00006ea4       ??_C@_0DE@GHIGEGJI@ccClient?3?5CSI?5handle?5from?5Broadc@ 00419ea4     ccLibrary_vs2013:ccClient.obj
 0002:00006ed8       ??_C@_0BN@DDDBHADP@?$CL?$CL?5number?5of?5databases?5is?5?$CFd?$AA@ 00419ed8     ccLibrary_vs2013:ccClient.obj
 0002:00006ef8       ??_C@_05HOPBAMFM@?9?5?9?5?9?$AA@ 00419ef8     ccLibrary_vs2013:ccClient.obj
 0002:00006f00       ??_C@_02JDNIPIGD@NA?$AA@   00419f00     ccLibrary_vs2013:ccClient.obj
 0002:00006f04       ??_C@_02FLABHCGL@NI?$AA@   00419f04     ccLibrary_vs2013:ccClient.obj
 0002:00006f08       ??_C@_02LIPFKLKA@NB?$AA@   00419f08     ccLibrary_vs2013:ccClient.obj
 0002:00006f0c       ??_C@_02PHHIKPHE@IR?$AA@   00419f0c     ccLibrary_vs2013:ccClient.obj
 0002:00006f10       ??_C@_02OHALODOF@RR?$AA@   00419f10     ccLibrary_vs2013:ccClient.obj
 0002:00006f14       ??_C@_02PNOGICHO@GR?$AA@   00419f14     ccLibrary_vs2013:ccClient.obj
 0002:00006f18       ??_C@_02KMHJBPDH@DC?$AA@   00419f18     ccLibrary_vs2013:ccClient.obj
 0002:00006f1c       ??_C@_0DG@EAEPBJGP@shim?3?5database?5modify?5index?5?$DM1?5o@ 00419f1c     ccLibrary_vs2013:ccClient.obj
 0002:00006f54       ??_C@_0M@EADEFJIO@DC?5?$CFd?5?$CFd?5?$CFd?$AA@ 00419f54     ccLibrary_vs2013:ccClient.obj
 0002:00006f60       ??_C@_0BE@NOLEOGLE@RC?5?$CFd?5?$CFd?5?$CFd?5?8?$CFs?8?5?$CFd?$AA@ 00419f60     ccLibrary_vs2013:ccClient.obj
 0002:00006f74       ??_C@_0BG@HODKLCHC@Bum?5device?5query?5type?$AA@ 00419f74     ccLibrary_vs2013:ccClient.obj
 0002:00006f8c       ??_C@_0BA@GBFKGHBO@?$CFcP?5?$CFd?5?$CFd?5?$CFd?5?$CFd?$AA@ 00419f8c     ccLibrary_vs2013:ccClient.obj
 0002:00006f9c       ??_C@_0BB@HPDMKDPM@IW?5?$CFd?5?8?$CFs?8?5?$CFd?5?$CFd?$AA@ 00419f9c     ccLibrary_vs2013:ccClient.obj
 0002:00006fb0       ??_C@_0BA@PMFFIGGI@?$CFcQ?5?$CFd?5?$CFd?5?$CFd?5?$CFd?$AA@ 00419fb0     ccLibrary_vs2013:ccClient.obj
 0002:00006fc0       ??_C@_0BD@KKNGLPCL@?$CFcL?5?$CFd?5?$CFd?5?$CFd?5?$CFd?5?$CFd?$AA@ 00419fc0     ccLibrary_vs2013:ccClient.obj
 0002:00006fd4       ??_C@_0P@EJIMPHOB@GS?5?$CFd?5?$CFd?5?$CFd?5?$CFd?$AA@ 00419fd4     ccLibrary_vs2013:ccClient.obj
 0002:00006fe4       ??_C@_0BH@OGFJFCDI@NS?5?$CFd?5?$CFd?5?8?$CFs?8?5?$CFd?5?$CFu?5?$CFd?$AA@ 00419fe4     ccLibrary_vs2013:ccClient.obj
 0002:00006ffc       ??_C@_0DA@ICCPEBHB@database?5modify?5index?5?$DM0?5or?5?$DO?5ma@ 00419ffc     ccLibrary_vs2013:ccClient.obj
 0002:0000702c       ??_C@_0BK@BPFDKEPI@RM?5?$CFd?5?$CFd?5?$CFd?5?8?$CFs?8?5?$CFd?5?$CFd?5?$CFd?$AA@ 0041a02c     ccLibrary_vs2013:ccClient.obj
 0002:00007048       ??_C@_0BC@KBDMBKEH@deque?$DMT?$DO?5too?5long?$AA@ 0041a048     ccLibrary_vs2013:ccClient.obj
 0002:0000705c       ??_C@_02LMMGGCAJ@?3?5?$AA@ 0041a05c     ccLibrary_vs2013:ccCheck.obj
 0002:00007064       ??_7ccCheck@@6B@           0041a064     ccLibrary_vs2013:ccCheck.obj
 0002:00007068       ??_C@_0CJ@PMKCGGCL@Device?5Number?5of?5out?5range?5?$CIless@ 0041a068     ccLibrary_vs2013:ccCheck.obj
 0002:00007094       ??_C@_0CL@LCKFFHKG@Device?5Number?5of?5out?5range?5?$CI?$DO?5MA@ 0041a094     ccLibrary_vs2013:ccCheck.obj
 0002:000070c0       ??_C@_0CI@IGLAJDJI@Index?5Number?5of?5out?5range?5?$CIless?5@ 0041a0c0     ccLibrary_vs2013:ccCheck.obj
 0002:000070e8       ??_C@_0CI@PMCCDFOB@Index?5Number?5of?5out?5range?5?$CI?$DO?5MAX@ 0041a0e8     ccLibrary_vs2013:ccCheck.obj
 0002:00007110       ??_C@_0DC@OGFBPEGN@Source?5Number?5of?5out?5range?5?$CIless@ 0041a110     ccLibrary_vs2013:ccCheck.obj
 0002:00007144       ??_C@_0CJ@EKBPLHLJ@Source?5Number?5of?5out?5range?5?$CI?$DO?5MA@ 0041a144     ccLibrary_vs2013:ccCheck.obj
 0002:00007170       ??_C@_0BK@BPKEILLL@Invalid?5range?5?$CIstart?$DOend?$CJ?$AA@ 0041a170     ccLibrary_vs2013:ccCheck.obj
 0002:0000718c       ??_C@_0BK@LPOMIHEL@Invalid?5database?5?$CI?$CFd?$DO?$DN?$CFd?$CJ?$AA@ 0041a18c     ccLibrary_vs2013:ccCheck.obj
 0002:000071a8       ??_C@_0BM@OBNIHFBG@Note?3?5string?5?$DO?5characters?3?5?$AA@ 0041a1a8     ccLibrary_vs2013:ccCheck.obj
 0002:000071c4       ??_C@_0CF@IABOACOB@Workstation?5number?5invalid?5?$CI?$DM?51?$CJ@ 0041a1c4     ccLibrary_vs2013:ccCheck.obj
 0002:000071ec       ??_C@_0DE@NBJHIANK@Workstation?5number?5invalid?5?$CI?$DO?5MA@ 0041a1ec     ccLibrary_vs2013:ccCheck.obj
 0002:00007220       ??_C@_02DPKJAMEF@?$CFd?$AA@ 0041a220     ccLibrary_vs2013:ccConfig.obj
 0002:00007224       ??_C@_01KICIPPFI@?2?$AA@   0041a224     ccLibrary_vs2013:ccConfig.obj
 0002:00007228       ??_C@_07IOFNEBNE@?2config?$AA@ 0041a228     ccLibrary_vs2013:ccConfig.obj
 0002:00007230       ??_C@_0BD@FFAKGAPP@c?3?2bncs_config?4ini?$AA@ 0041a230     ccLibrary_vs2013:ccConfig.obj
 0002:00007244       ??_C@_0L@DHJBNFFA@ConfigPath?$AA@ 0041a244     ccLibrary_vs2013:ccConfig.obj
 0002:00007250       ??_C@_06LLCHJONG@Config?$AA@ 0041a250     ccLibrary_vs2013:ccConfig.obj
 0002:00007258       ??_C@_06KIMFAMMH@WINDIR?$AA@ 0041a258     ccLibrary_vs2013:ccConfig.obj
 0002:00007260       ??_C@_0P@PKHJHOPF@CC_WORKSTATION?$AA@ 0041a260     ccLibrary_vs2013:ccConfig.obj
 0002:00007270       ??_C@_0M@CILGCIDH@Workstation?$AA@ 0041a270     ccLibrary_vs2013:ccConfig.obj
 0002:0000727c       ??_C@_07BGDMAJAE@Network?$AA@ 0041a27c     ccLibrary_vs2013:ccConfig.obj
 0002:00007284       ??_C@_0BO@GPPILLIC@config?2system?2bncs_system?4ini?$AA@ 0041a284     ccLibrary_vs2013:ccConfig.obj
 0002:000072a4       ??_C@_07PIGLAMMC@csi?4ini?$AA@ 0041a2a4     ccLibrary_vs2013:ccConfig.obj
 0002:000072ac       ??_C@_06JIODDOFH@System?$AA@ 0041a2ac     ccLibrary_vs2013:ccConfig.obj
 0002:000072b4       ??_C@_0N@LDBPMCOK@applcore?4ini?$AA@ 0041a2b4     ccLibrary_vs2013:ccConfig.obj
 0002:000072c8       ??_7cBncsVersion@@6B@      0041a2c8     BncsVersionInfo:cBncsVersion.obj
 0002:000072cc       ??_C@_0BJ@KPNNKBCP@?2VarFileInfo?2Translation?$AA@ 0041a2cc     BncsVersionInfo:cBncsVersion.obj
 0002:000072e8       ??_C@_08EAKGLGNO@?$CF04X?$CF04X?$AA@ 0041a2e8     BncsVersionInfo:cBncsVersion.obj
 0002:000072f4       ??_C@_0BP@OKGDDKKJ@?2StringFileInfo?2?$CFs?2FileVersion?$AA@ 0041a2f4     BncsVersionInfo:cBncsVersion.obj
 0002:00007314       ??_C@_01IHBHIGKO@?0?$AA@   0041a314     BncsVersionInfo:cBncsVersion.obj
 0002:00007318       ??_C@_0CD@DNOFBAPJ@?2StringFileInfo?2?$CFs?2FileDescripti@ 0041a318     BncsVersionInfo:cBncsVersion.obj
 0002:0000733c       ??_C@_0BM@HLKDAPDC@?2StringFileInfo?2?$CFs?2Comments?$AA@ 0041a33c     BncsVersionInfo:cBncsVersion.obj
 0002:00007358       ??_C@_0CA@EHAODNDK@?2StringFileInfo?2?$CFs?2InternalName?$AA@ 0041a358     BncsVersionInfo:cBncsVersion.obj
 0002:00007378       ??_C@_0BP@MGNIHEJF@?2StringFileInfo?2?$CFs?2ProductName?$AA@ 0041a378     BncsVersionInfo:cBncsVersion.obj
 0002:00007398       ??_C@_0BP@IFNEMNK@?2StringFileInfo?2?$CFs?2CompanyName?$AA@ 0041a398     BncsVersionInfo:cBncsVersion.obj
 0002:000073b8       ??_C@_0CC@BENIJKPI@?2StringFileInfo?2?$CFs?2LegalCopyrigh@ 0041a3b8     BncsVersionInfo:cBncsVersion.obj
 0002:000073dc       ??_C@_0CC@IAGJDCJF@?2StringFileInfo?2?$CFs?2ProductVersio@ 0041a3dc     BncsVersionInfo:cBncsVersion.obj
 0002:00007400       ??_C@_0CD@CHCCGCCP@?2StringFileInfo?2?$CFs?2LegalTradeMar@ 0041a400     BncsVersionInfo:cBncsVersion.obj
 0002:00007424       ??_C@_0CA@GODGGLFO@?2StringFileInfo?2?$CFs?2PrivateBuild?$AA@ 0041a424     BncsVersionInfo:cBncsVersion.obj
 0002:00007444       ??_C@_0CE@NLHFPOLE@?2StringFileInfo?2?$CFs?2OriginalFileN@ 0041a444     BncsVersionInfo:cBncsVersion.obj
 0002:00007468       ??_C@_0CA@OOEBJJOA@?2StringFileInfo?2?$CFs?2SpecialBuild?$AA@ 0041a468     BncsVersionInfo:cBncsVersion.obj
 0002:0000748c       ??_7decodeBNCSString@@6B@  0041a48c     decodecaptionstring:decodeBNCSString.obj
 0002:00007494       ??_7type_info@@6B@         0041a494     MSVCRT:ti_inst.obj
 0002:000074a0       ??_C@_05CLMJGDKL@?$CF08lx?$AA@ 0041a4a0     bncswm32:BncsWM32.obj
 0002:000074a8       ??_7?$QMemArray@PAD@@6B@   0041a4a8     qtmain:qtmain_win.obj
 0002:000074b8       __load_config_used         0041a4b8     MSVCRT:loadcfg.obj
 0002:00007500       ??_R4QFrame@@6BQObject@@@  0041a500     bcommandmainwindow.obj
 0002:00007514       ??_R3QFrame@@8             0041a514     bcommandmainwindow.obj
 0002:00007524       ??_R2QFrame@@8             0041a524     bcommandmainwindow.obj
 0002:0000753c       ??_R1A@?0A@EA@QFrame@@8    0041a53c     bcommandmainwindow.obj
 0002:00007558       ??_R1A@?0A@EA@QWidget@@8   0041a558     bcommandmainwindow.obj
 0002:00007574       ??_R3QWidget@@8            0041a574     bcommandmainwindow.obj
 0002:00007584       ??_R2QWidget@@8            0041a584     bcommandmainwindow.obj
 0002:00007598       ??_R1A@?0A@EA@QObject@@8   0041a598     bcommandmainwindow.obj
 0002:000075b4       ??_R3QObject@@8            0041a5b4     bcommandmainwindow.obj
 0002:000075c4       ??_R2QObject@@8            0041a5c4     bcommandmainwindow.obj
 0002:000075d0       ??_R13?0A@EA@Qt@@8         0041a5d0     bcommandmainwindow.obj
 0002:000075ec       ??_R3Qt@@8                 0041a5ec     bcommandmainwindow.obj
 0002:000075fc       ??_R2Qt@@8                 0041a5fc     bcommandmainwindow.obj
 0002:00007604       ??_R1A@?0A@EA@Qt@@8        0041a604     bcommandmainwindow.obj
 0002:00007620       ??_R1CI@?0A@EA@QPaintDevice@@8 0041a620     bcommandmainwindow.obj
 0002:0000763c       ??_R3QPaintDevice@@8       0041a63c     bcommandmainwindow.obj
 0002:0000764c       ??_R2QPaintDevice@@8       0041a64c     bcommandmainwindow.obj
 0002:00007654       ??_R1A@?0A@EA@QPaintDevice@@8 0041a654     bcommandmainwindow.obj
 0002:00007670       ??_R4QFrame@@6BQPaintDevice@@@ 0041a670     bcommandmainwindow.obj
 0002:00007684       ??_R4QHBoxLayout@@6BQObject@@@ 0041a684     bcommandmainwindow.obj
 0002:00007698       ??_R3QHBoxLayout@@8        0041a698     bcommandmainwindow.obj
 0002:000076a8       ??_R2QHBoxLayout@@8        0041a6a8     bcommandmainwindow.obj
 0002:000076c4       ??_R1A@?0A@EA@QHBoxLayout@@8 0041a6c4     bcommandmainwindow.obj
 0002:000076e0       ??_R1A@?0A@EA@QBoxLayout@@8 0041a6e0     bcommandmainwindow.obj
 0002:000076fc       ??_R3QBoxLayout@@8         0041a6fc     bcommandmainwindow.obj
 0002:0000770c       ??_R2QBoxLayout@@8         0041a70c     bcommandmainwindow.obj
 0002:00007724       ??_R1A@?0A@EA@QLayout@@8   0041a724     bcommandmainwindow.obj
 0002:00007740       ??_R3QLayout@@8            0041a740     bcommandmainwindow.obj
 0002:00007750       ??_R2QLayout@@8            0041a750     bcommandmainwindow.obj
 0002:00007764       ??_R1CI@?0A@EA@QLayoutItem@@8 0041a764     bcommandmainwindow.obj
 0002:00007780       ??_R3QLayoutItem@@8        0041a780     bcommandmainwindow.obj
 0002:00007790       ??_R2QLayoutItem@@8        0041a790     bcommandmainwindow.obj
 0002:00007798       ??_R1A@?0A@EA@QLayoutItem@@8 0041a798     bcommandmainwindow.obj
 0002:000077b4       ??_R4QHBoxLayout@@6BQLayoutItem@@@ 0041a7b4     bcommandmainwindow.obj
 0002:000077c8       ??_R4QVBoxLayout@@6BQObject@@@ 0041a7c8     bcommandmainwindow.obj
 0002:000077dc       ??_R3QVBoxLayout@@8        0041a7dc     bcommandmainwindow.obj
 0002:000077ec       ??_R2QVBoxLayout@@8        0041a7ec     bcommandmainwindow.obj
 0002:00007808       ??_R1A@?0A@EA@QVBoxLayout@@8 0041a808     bcommandmainwindow.obj
 0002:00007824       ??_R4QVBoxLayout@@6BQLayoutItem@@@ 0041a824     bcommandmainwindow.obj
 0002:00007838       ??_R4QToolBar@@6BQObject@@@ 0041a838     bcommandmainwindow.obj
 0002:0000784c       ??_R3QToolBar@@8           0041a84c     bcommandmainwindow.obj
 0002:0000785c       ??_R2QToolBar@@8           0041a85c     bcommandmainwindow.obj
 0002:0000787c       ??_R1A@?0A@EA@QToolBar@@8  0041a87c     bcommandmainwindow.obj
 0002:00007898       ??_R1A@?0A@EA@QDockWindow@@8 0041a898     bcommandmainwindow.obj
 0002:000078b4       ??_R3QDockWindow@@8        0041a8b4     bcommandmainwindow.obj
 0002:000078c4       ??_R2QDockWindow@@8        0041a8c4     bcommandmainwindow.obj
 0002:000078e0       ??_R4QToolBar@@6BQPaintDevice@@@ 0041a8e0     bcommandmainwindow.obj
 0002:000078f4       ??_R4QPopupMenu@@6BQObject@@@ 0041a8f4     bcommandmainwindow.obj
 0002:00007908       ??_R3QPopupMenu@@8         0041a908     bcommandmainwindow.obj
 0002:00007918       ??_R2QPopupMenu@@8         0041a918     bcommandmainwindow.obj
 0002:00007938       ??_R1A@?0A@EA@QPopupMenu@@8 0041a938     bcommandmainwindow.obj
 0002:00007954       ??_R1IM@?0A@EA@QMenuData@@8 0041a954     bcommandmainwindow.obj
 0002:00007970       ??_R3QMenuData@@8          0041a970     bcommandmainwindow.obj
 0002:00007980       ??_R2QMenuData@@8          0041a980     bcommandmainwindow.obj
 0002:00007988       ??_R1A@?0A@EA@QMenuData@@8 0041a988     bcommandmainwindow.obj
 0002:000079a4       ??_R4QPopupMenu@@6BQPaintDevice@@@ 0041a9a4     bcommandmainwindow.obj
 0002:000079b8       ??_R4QPopupMenu@@6B@       0041a9b8     bcommandmainwindow.obj
 0002:000079cc       ??_R4error_category@std@@6B@ 0041a9cc     bcommandmainwindow.obj
 0002:000079e0       ??_R3error_category@std@@8 0041a9e0     bcommandmainwindow.obj
 0002:000079f0       ??_R2error_category@std@@8 0041a9f0     bcommandmainwindow.obj
 0002:000079f8       ??_R1A@?0A@EA@error_category@std@@8 0041a9f8     bcommandmainwindow.obj
 0002:00007a14       ??_R4_Generic_error_category@std@@6B@ 0041aa14     bcommandmainwindow.obj
 0002:00007a28       ??_R3_Generic_error_category@std@@8 0041aa28     bcommandmainwindow.obj
 0002:00007a38       ??_R2_Generic_error_category@std@@8 0041aa38     bcommandmainwindow.obj
 0002:00007a44       ??_R1A@?0A@EA@_Generic_error_category@std@@8 0041aa44     bcommandmainwindow.obj
 0002:00007a60       ??_R4_Iostream_error_category@std@@6B@ 0041aa60     bcommandmainwindow.obj
 0002:00007a74       ??_R3_Iostream_error_category@std@@8 0041aa74     bcommandmainwindow.obj
 0002:00007a84       ??_R2_Iostream_error_category@std@@8 0041aa84     bcommandmainwindow.obj
 0002:00007a94       ??_R1A@?0A@EA@_Iostream_error_category@std@@8 0041aa94     bcommandmainwindow.obj
 0002:00007ab0       ??_R4_System_error_category@std@@6B@ 0041aab0     bcommandmainwindow.obj
 0002:00007ac4       ??_R3_System_error_category@std@@8 0041aac4     bcommandmainwindow.obj
 0002:00007ad4       ??_R2_System_error_category@std@@8 0041aad4     bcommandmainwindow.obj
 0002:00007ae4       ??_R1A@?0A@EA@_System_error_category@std@@8 0041aae4     bcommandmainwindow.obj
 0002:00007b00       ??_R4IccClientCallback@@6B@ 0041ab00     bcommandmainwindow.obj
 0002:00007b14       ??_R3IccClientCallback@@8  0041ab14     bcommandmainwindow.obj
 0002:00007b24       ??_R2IccClientCallback@@8  0041ab24     bcommandmainwindow.obj
 0002:00007b2c       ??_R1A@?0A@EA@IccClientCallback@@8 0041ab2c     bcommandmainwindow.obj
 0002:00007b48       ??_R4QSpinBox@@6BQObject@@@ 0041ab48     bcommandmainwindow.obj
 0002:00007b5c       ??_R3QSpinBox@@8           0041ab5c     bcommandmainwindow.obj
 0002:00007b6c       ??_R2QSpinBox@@8           0041ab6c     bcommandmainwindow.obj
 0002:00007b88       ??_R1A@?0A@EA@QSpinBox@@8  0041ab88     bcommandmainwindow.obj
 0002:00007ba4       ??_R1GM@?0A@EA@QRangeControl@@8 0041aba4     bcommandmainwindow.obj
 0002:00007bc0       ??_R3QRangeControl@@8      0041abc0     bcommandmainwindow.obj
 0002:00007bd0       ??_R2QRangeControl@@8      0041abd0     bcommandmainwindow.obj
 0002:00007bd8       ??_R1A@?0A@EA@QRangeControl@@8 0041abd8     bcommandmainwindow.obj
 0002:00007bf4       ??_R4QSpinBox@@6BQPaintDevice@@@ 0041abf4     bcommandmainwindow.obj
 0002:00007c08       ??_R4QSpinBox@@6B@         0041ac08     bcommandmainwindow.obj
 0002:00007c1c       ??_R4QCheckBox@@6BQObject@@@ 0041ac1c     bcommandmainwindow.obj
 0002:00007c30       ??_R3QCheckBox@@8          0041ac30     bcommandmainwindow.obj
 0002:00007c40       ??_R2QCheckBox@@8          0041ac40     bcommandmainwindow.obj
 0002:00007c5c       ??_R1A@?0A@EA@QCheckBox@@8 0041ac5c     bcommandmainwindow.obj
 0002:00007c78       ??_R1A@?0A@EA@QButton@@8   0041ac78     bcommandmainwindow.obj
 0002:00007c94       ??_R3QButton@@8            0041ac94     bcommandmainwindow.obj
 0002:00007ca4       ??_R2QButton@@8            0041aca4     bcommandmainwindow.obj
 0002:00007cbc       ??_R4QCheckBox@@6BQPaintDevice@@@ 0041acbc     bcommandmainwindow.obj
 0002:00007cd0       ??_R4QAction@@6B@          0041acd0     bcommandmainwindow.obj
 0002:00007ce4       ??_R3QAction@@8            0041ace4     bcommandmainwindow.obj
 0002:00007cf4       ??_R2QAction@@8            0041acf4     bcommandmainwindow.obj
 0002:00007d04       ??_R1A@?0A@EA@QAction@@8   0041ad04     bcommandmainwindow.obj
 0002:00007d20       ??_R4bCommandMainWindow@@6BQObject@@@ 0041ad20     bcommandmainwindow.obj
 0002:00007d34       ??_R3bCommandMainWindow@@8 0041ad34     bcommandmainwindow.obj
 0002:00007d44       ??_R2bCommandMainWindow@@8 0041ad44     bcommandmainwindow.obj
 0002:00007d64       ??_R1A@?0A@EA@bCommandMainWindow@@8 0041ad64     bcommandmainwindow.obj
 0002:00007d80       ??_R1A@?0A@EA@QMainWindow@@8 0041ad80     bcommandmainwindow.obj
 0002:00007d9c       ??_R3QMainWindow@@8        0041ad9c     bcommandmainwindow.obj
 0002:00007dac       ??_R2QMainWindow@@8        0041adac     bcommandmainwindow.obj
 0002:00007dc4       ??_R1HA@?0A@EN@IccClientCallback@@8 0041adc4     bcommandmainwindow.obj
 0002:00007de0       ??_R4bCommandMainWindow@@6BQPaintDevice@@@ 0041ade0     bcommandmainwindow.obj
 0002:00007df4       ??_R4bCommandMainWindow@@6B@ 0041adf4     bcommandmainwindow.obj
 0002:00007e08       ??_R4QSpacerItem@@6B@      0041ae08     bcommandmainwindow.obj
 0002:00007e1c       ??_R3QSpacerItem@@8        0041ae1c     bcommandmainwindow.obj
 0002:00007e2c       ??_R2QSpacerItem@@8        0041ae2c     bcommandmainwindow.obj
 0002:00007e38       ??_R1A@?0A@EA@QSpacerItem@@8 0041ae38     bcommandmainwindow.obj
 0002:00007e54       ??_R4QPushButton@@6BQObject@@@ 0041ae54     bcommandmainwindow.obj
 0002:00007e68       ??_R3QPushButton@@8        0041ae68     bcommandmainwindow.obj
 0002:00007e78       ??_R2QPushButton@@8        0041ae78     bcommandmainwindow.obj
 0002:00007e94       ??_R1A@?0A@EA@QPushButton@@8 0041ae94     bcommandmainwindow.obj
 0002:00007eb0       ??_R4QPushButton@@6BQPaintDevice@@@ 0041aeb0     bcommandmainwindow.obj
 0002:00007ec4       ??_R4QLabel@@6BQObject@@@  0041aec4     bcommandmainwindow.obj
 0002:00007ed8       ??_R3QLabel@@8             0041aed8     bcommandmainwindow.obj
 0002:00007ee8       ??_R2QLabel@@8             0041aee8     bcommandmainwindow.obj
 0002:00007f04       ??_R1A@?0A@EA@QLabel@@8    0041af04     bcommandmainwindow.obj
 0002:00007f20       ??_R4QLabel@@6BQPaintDevice@@@ 0041af20     bcommandmainwindow.obj
 0002:00007f34       ??_R4commandEdit@@6BQObject@@@ 0041af34     commandEdit.obj
 0002:00007f48       ??_R3commandEdit@@8        0041af48     commandEdit.obj
 0002:00007f58       ??_R2commandEdit@@8        0041af58     commandEdit.obj
 0002:00007f78       ??_R1A@?0A@EA@commandEdit@@8 0041af78     commandEdit.obj
 0002:00007f94       ??_R1A@?0A@EA@QLineEdit@@8 0041af94     commandEdit.obj
 0002:00007fb0       ??_R3QLineEdit@@8          0041afb0     commandEdit.obj
 0002:00007fc0       ??_R2QLineEdit@@8          0041afc0     commandEdit.obj
 0002:00007fdc       ??_R4commandEdit@@6BQPaintDevice@@@ 0041afdc     commandEdit.obj
 0002:00007ff0       ??_R1A@?0A@EA@QGList@@8    0041aff0     commandimpl.obj
 0002:0000800c       ??_R3QGList@@8             0041b00c     commandimpl.obj
 0002:0000801c       ??_R2QGList@@8             0041b01c     commandimpl.obj
 0002:00008028       ??_R1A@?0A@EA@QPtrCollection@@8 0041b028     commandimpl.obj
 0002:00008044       ??_R3QPtrCollection@@8     0041b044     commandimpl.obj
 0002:00008054       ??_R2QPtrCollection@@8     0041b054     commandimpl.obj
 0002:0000805c       ??_R4command@@6BQObject@@@ 0041b05c     commandimpl.obj
 0002:00008070       ??_R3command@@8            0041b070     commandimpl.obj
 0002:00008080       ??_R2command@@8            0041b080     commandimpl.obj
 0002:00008098       ??_R1A@?0A@EA@command@@8   0041b098     commandimpl.obj
 0002:000080b4       ??_R4command@@6BQPaintDevice@@@ 0041b0b4     commandimpl.obj
 0002:000080c8       ??_R4?$QPtrList@VcommandLine@@@@6B@ 0041b0c8     commandimpl.obj
 0002:000080dc       ??_R3?$QPtrList@VcommandLine@@@@8 0041b0dc     commandimpl.obj
 0002:000080ec       ??_R2?$QPtrList@VcommandLine@@@@8 0041b0ec     commandimpl.obj
 0002:000080fc       ??_R1A@?0A@EA@?$QPtrList@VcommandLine@@@@8 0041b0fc     commandimpl.obj
 0002:00008118       ??_R4commandLine@@6BQObject@@@ 0041b118     commandLine.obj
 0002:0000812c       ??_R3commandLine@@8        0041b12c     commandLine.obj
 0002:0000813c       ??_R2commandLine@@8        0041b13c     commandLine.obj
 0002:00008154       ??_R1A@?0A@EA@commandLine@@8 0041b154     commandLine.obj
 0002:00008170       ??_R4commandLine@@6BQPaintDevice@@@ 0041b170     commandLine.obj
 0002:00008184       ??_R4revertiveImpl@@6BQObject@@@ 0041b184     revertiveImpl.obj
 0002:00008198       ??_R3revertiveImpl@@8      0041b198     revertiveImpl.obj
 0002:000081a8       ??_R2revertiveImpl@@8      0041b1a8     revertiveImpl.obj
 0002:000081c4       ??_R1A@?0A@EA@revertiveImpl@@8 0041b1c4     revertiveImpl.obj
 0002:000081e0       ??_R1A@?0A@EA@revertiveDisplay@@8 0041b1e0     revertiveImpl.obj
 0002:000081fc       ??_R3revertiveDisplay@@8   0041b1fc     revertiveImpl.obj
 0002:0000820c       ??_R2revertiveDisplay@@8   0041b20c     revertiveImpl.obj
 0002:00008224       ??_R4revertiveImpl@@6BQPaintDevice@@@ 0041b224     revertiveImpl.obj
 0002:00008238       ??_R4QGridLayout@@6BQObject@@@ 0041b238     revertiveDisplay.obj
 0002:0000824c       ??_R3QGridLayout@@8        0041b24c     revertiveDisplay.obj
 0002:0000825c       ??_R2QGridLayout@@8        0041b25c     revertiveDisplay.obj
 0002:00008274       ??_R1A@?0A@EA@QGridLayout@@8 0041b274     revertiveDisplay.obj
 0002:00008290       ??_R4QGridLayout@@6BQLayoutItem@@@ 0041b290     revertiveDisplay.obj
 0002:000082a4       ??_R4QTextEdit@@6BQObject@@@ 0041b2a4     revertiveDisplay.obj
 0002:000082b8       ??_R3QTextEdit@@8          0041b2b8     revertiveDisplay.obj
 0002:000082c8       ??_R2QTextEdit@@8          0041b2c8     revertiveDisplay.obj
 0002:000082e8       ??_R1A@?0A@EA@QTextEdit@@8 0041b2e8     revertiveDisplay.obj
 0002:00008304       ??_R1A@?0A@EA@QScrollView@@8 0041b304     revertiveDisplay.obj
 0002:00008320       ??_R3QScrollView@@8        0041b320     revertiveDisplay.obj
 0002:00008330       ??_R2QScrollView@@8        0041b330     revertiveDisplay.obj
 0002:0000834c       ??_R4QTextEdit@@6BQPaintDevice@@@ 0041b34c     revertiveDisplay.obj
 0002:00008360       ??_R4QListBox@@6BQObject@@@ 0041b360     revertiveDisplay.obj
 0002:00008374       ??_R3QListBox@@8           0041b374     revertiveDisplay.obj
 0002:00008384       ??_R2QListBox@@8           0041b384     revertiveDisplay.obj
 0002:000083a4       ??_R1A@?0A@EA@QListBox@@8  0041b3a4     revertiveDisplay.obj
 0002:000083c0       ??_R4QListBox@@6BQPaintDevice@@@ 0041b3c0     revertiveDisplay.obj
 0002:000083d4       ??_R4QGroupBox@@6BQObject@@@ 0041b3d4     revertiveDisplay.obj
 0002:000083e8       ??_R3QGroupBox@@8          0041b3e8     revertiveDisplay.obj
 0002:000083f8       ??_R2QGroupBox@@8          0041b3f8     revertiveDisplay.obj
 0002:00008414       ??_R1A@?0A@EA@QGroupBox@@8 0041b414     revertiveDisplay.obj
 0002:00008430       ??_R4QGroupBox@@6BQPaintDevice@@@ 0041b430     revertiveDisplay.obj
 0002:00008444       ??_R4QLineEdit@@6BQObject@@@ 0041b444     revertiveDisplay.obj
 0002:00008458       ??_R4QLineEdit@@6BQPaintDevice@@@ 0041b458     revertiveDisplay.obj
 0002:0000846c       ??_R4revertiveDisplay@@6BQObject@@@ 0041b46c     revertiveDisplay.obj
 0002:00008480       ??_R4revertiveDisplay@@6BQPaintDevice@@@ 0041b480     revertiveDisplay.obj
 0002:00008494       ??_R4ccClient@@6B@         0041b494     ccLibrary_vs2013:ccClient.obj
 0002:000084a8       ??_R3ccClient@@8           0041b4a8     ccLibrary_vs2013:ccClient.obj
 0002:000084b8       ??_R2ccClient@@8           0041b4b8     ccLibrary_vs2013:ccClient.obj
 0002:000084c4       ??_R1A@?0A@EA@ccClient@@8  0041b4c4     ccLibrary_vs2013:ccClient.obj
 0002:000084e0       ??_R1A@?0A@EA@ccCheck@@8   0041b4e0     ccLibrary_vs2013:ccClient.obj
 0002:000084fc       ??_R3ccCheck@@8            0041b4fc     ccLibrary_vs2013:ccClient.obj
 0002:0000850c       ??_R2ccCheck@@8            0041b50c     ccLibrary_vs2013:ccClient.obj
 0002:00008514       ??_R4ccCheck@@6B@          0041b514     ccLibrary_vs2013:ccCheck.obj
 0002:00008528       ??_R4cBncsVersion@@6B@     0041b528     BncsVersionInfo:cBncsVersion.obj
 0002:0000853c       ??_R3cBncsVersion@@8       0041b53c     BncsVersionInfo:cBncsVersion.obj
 0002:0000854c       ??_R2cBncsVersion@@8       0041b54c     BncsVersionInfo:cBncsVersion.obj
 0002:00008554       ??_R1A@?0A@EA@cBncsVersion@@8 0041b554     BncsVersionInfo:cBncsVersion.obj
 0002:00008570       ??_R4decodeBNCSString@@6B@ 0041b570     decodecaptionstring:decodeBNCSString.obj
 0002:00008584       ??_R3decodeBNCSString@@8   0041b584     decodecaptionstring:decodeBNCSString.obj
 0002:00008594       ??_R2decodeBNCSString@@8   0041b594     decodecaptionstring:decodeBNCSString.obj
 0002:0000859c       ??_R1A@?0A@EA@decodeBNCSString@@8 0041b59c     decodecaptionstring:decodeBNCSString.obj
 0002:000085b8       ??_R4type_info@@6B@        0041b5b8     MSVCRT:ti_inst.obj
 0002:000085cc       ??_R3type_info@@8          0041b5cc     MSVCRT:ti_inst.obj
 0002:000085dc       ??_R2type_info@@8          0041b5dc     MSVCRT:ti_inst.obj
 0002:000085e4       ??_R1A@?0A@EA@type_info@@8 0041b5e4     MSVCRT:ti_inst.obj
 0002:00008600       ___rtc_iaa                 0041b600     MSVCRT:initsect.obj
 0002:00008604       ___rtc_izz                 0041b604     MSVCRT:initsect.obj
 0002:00008608       ___rtc_taa                 0041b608     MSVCRT:initsect.obj
 0002:0000860c       ___rtc_tzz                 0041b60c     MSVCRT:initsect.obj
 0002:00009d94       __IMPORT_DESCRIPTOR_qt-mt323 0041cd94     qt-mt323:qt-mt323.dll
 0002:00009da8       __IMPORT_DESCRIPTOR_KERNEL32 0041cda8     kernel32:KERNEL32.dll
 0002:00009dbc       __IMPORT_DESCRIPTOR_USER32 0041cdbc     user32:USER32.dll
 0002:00009dd0       __IMPORT_DESCRIPTOR_MSVCP120 0041cdd0     msvcprt:MSVCP120.dll
 0002:00009de4       __IMPORT_DESCRIPTOR_MSVCR120 0041cde4     MSVCRT:MSVCR120.dll
 0002:00009df8       __IMPORT_DESCRIPTOR_BNCSIF32 0041cdf8     bncsif32:BNCSIF32.dll
 0002:00009e0c       __IMPORT_DESCRIPTOR_VERSION 0041ce0c     version:VERSION.dll
 0002:00009e20       __NULL_IMPORT_DESCRIPTOR   0041ce20     qt-mt323:qt-mt323.dll
 0003:00000380       ?_Generic_object@?$_Error_objects@H@std@@2V_Generic_error_category@2@A 00428380     bcommandmainwindow.obj
 0003:00000384       ?_Iostream_object@?$_Error_objects@H@std@@2V_Iostream_error_category@2@A 00428384     bcommandmainwindow.obj
 0003:00000388       ?_System_object@?$_Error_objects@H@std@@2V_System_error_category@2@A 00428388     bcommandmainwindow.obj
 0003:00000618       ___security_cookie         00428618     MSVCRT:gs_cookie.obj
 0003:0000061c       ___security_cookie_complement 0042861c     MSVCRT:gs_cookie.obj
 0003:00000620       ___defaultmatherr          00428620     MSVCRT:merr.obj
 0003:00000624       ___globallocalestatus      00428624     MSVCRT:xthdloc.obj
 0003:00000628       ___native_dllmain_reason   00428628     MSVCRT:natstart.obj
 0003:00000684       ??_R0?AVQFrame@@@8         00428684     bcommandmainwindow.obj
 0003:0000069c       ??_R0?AVQWidget@@@8        0042869c     bcommandmainwindow.obj
 0003:000006b4       ??_R0?AVQObject@@@8        004286b4     bcommandmainwindow.obj
 0003:000006cc       ??_R0?AVQt@@@8             004286cc     bcommandmainwindow.obj
 0003:000006e0       ??_R0?AVQPaintDevice@@@8   004286e0     bcommandmainwindow.obj
 0003:000006fc       ??_R0?AVQHBoxLayout@@@8    004286fc     bcommandmainwindow.obj
 0003:00000718       ??_R0?AVQBoxLayout@@@8     00428718     bcommandmainwindow.obj
 0003:00000734       ??_R0?AVQLayout@@@8        00428734     bcommandmainwindow.obj
 0003:0000074c       ??_R0?AVQLayoutItem@@@8    0042874c     bcommandmainwindow.obj
 0003:00000768       ??_R0?AVQVBoxLayout@@@8    00428768     bcommandmainwindow.obj
 0003:00000784       ??_R0?AVQToolBar@@@8       00428784     bcommandmainwindow.obj
 0003:0000079c       ??_R0?AVQDockWindow@@@8    0042879c     bcommandmainwindow.obj
 0003:000007b8       ??_R0?AVQPopupMenu@@@8     004287b8     bcommandmainwindow.obj
 0003:000007d4       ??_R0?AVQMenuData@@@8      004287d4     bcommandmainwindow.obj
 0003:000007ec       ??_R0?AVerror_category@std@@@8 004287ec     bcommandmainwindow.obj
 0003:00000810       ??_R0?AV_Generic_error_category@std@@@8 00428810     bcommandmainwindow.obj
 0003:0000083c       ??_R0?AV_Iostream_error_category@std@@@8 0042883c     bcommandmainwindow.obj
 0003:00000868       ??_R0?AV_System_error_category@std@@@8 00428868     bcommandmainwindow.obj
 0003:00000894       ??_R0?AVIccClientCallback@@@8 00428894     bcommandmainwindow.obj
 0003:000008b4       ??_R0?AVQSpinBox@@@8       004288b4     bcommandmainwindow.obj
 0003:000008cc       ??_R0?AVQRangeControl@@@8  004288cc     bcommandmainwindow.obj
 0003:000008e8       ??_R0?AVQCheckBox@@@8      004288e8     bcommandmainwindow.obj
 0003:00000900       ??_R0?AVQButton@@@8        00428900     bcommandmainwindow.obj
 0003:00000918       ??_R0?AVQAction@@@8        00428918     bcommandmainwindow.obj
 0003:00000930       ??_R0?AVbCommandMainWindow@@@8 00428930     bcommandmainwindow.obj
 0003:00000954       ??_R0?AVQMainWindow@@@8    00428954     bcommandmainwindow.obj
 0003:00000970       ??_R0?AVQSpacerItem@@@8    00428970     bcommandmainwindow.obj
 0003:0000098c       ??_R0?AVQPushButton@@@8    0042898c     bcommandmainwindow.obj
 0003:000009a8       ??_R0?AVQLabel@@@8         004289a8     bcommandmainwindow.obj
 0003:000009c0       ??_R0?AVcommandEdit@@@8    004289c0     commandEdit.obj
 0003:000009dc       ??_R0?AVQLineEdit@@@8      004289dc     commandEdit.obj
 0003:000009f4       ??_R0?AVQGList@@@8         004289f4     commandimpl.obj
 0003:00000a0c       ??_R0?AVQPtrCollection@@@8 00428a0c     commandimpl.obj
 0003:00000a2c       ??_R0?AVcommand@@@8        00428a2c     commandimpl.obj
 0003:00000a44       ??_R0?AV?$QPtrList@VcommandLine@@@@@8 00428a44     commandimpl.obj
 0003:00000a6c       ??_R0?AVcommandLine@@@8    00428a6c     commandLine.obj
 0003:00000a88       ??_R0?AVrevertiveImpl@@@8  00428a88     revertiveImpl.obj
 0003:00000aa4       ??_R0?AVrevertiveDisplay@@@8 00428aa4     revertiveImpl.obj
 0003:00000ac4       ??_R0?AVQGridLayout@@@8    00428ac4     revertiveDisplay.obj
 0003:00000ae0       ??_R0?AVQTextEdit@@@8      00428ae0     revertiveDisplay.obj
 0003:00000af8       ??_R0?AVQScrollView@@@8    00428af8     revertiveDisplay.obj
 0003:00000b14       ??_R0?AVQListBox@@@8       00428b14     revertiveDisplay.obj
 0003:00000b2c       ??_R0?AVQGroupBox@@@8      00428b2c     revertiveDisplay.obj
 0003:00000b44       ??_R0?AVccClient@@@8       00428b44     ccLibrary_vs2013:ccClient.obj
 0003:00000b5c       ??_R0?AVccCheck@@@8        00428b5c     ccLibrary_vs2013:ccClient.obj
 0003:00000b74       ??_R0?AVcBncsVersion@@@8   00428b74     BncsVersionInfo:cBncsVersion.obj
 0003:00000b90       ??_R0?AVdecodeBNCSString@@@8 00428b90     decodecaptionstring:decodeBNCSString.obj
 0003:00000bb0       ??_R0?AVtype_info@@@8      00428bb0     MSVCRT:ti_inst.obj
 0003:00000bcc       ?id@?$num_put@DV?$back_insert_iterator@V?$basic_string@DU?$char_traits@D@std@@V?$allocator@D@2@@std@@@std@@@std@@2V0locale@2@A 00428bcc     bcommandmainwindow.obj
 0003:00000bd0       ?id@?$num_put@_WV?$back_insert_iterator@V?$basic_string@_WU?$char_traits@_W@std@@V?$allocator@_W@2@@std@@@std@@@std@@2V0locale@2@A 00428bd0     bcommandmainwindow.obj
 0003:00000bdc       ?stringMap@@3V?$QMap@VQString@@V1@@@A 00428bdc     commandLine.obj
 0003:00000be0       ?mathsMap@@3V?$QMap@VQString@@H@@A 00428be0     commandLine.obj
 0003:00000be8       ?metaObj@commandEdit@@0PAVQMetaObject@@A 00428be8     moc_commandEdit.obj
 0003:00000c08       ?metaObj@bCommandMainWindow@@0PAVQMetaObject@@A 00428c08     moc_bcommandmainwindow.obj
 0003:00000c38       ?metaObj@command@@0PAVQMetaObject@@A 00428c38     moc_commandimpl.obj
 0003:00000c84       ?metaObj@commandLine@@0PAVQMetaObject@@A 00428c84     moc_commandLine.obj
 0003:00000d14       ?metaObj@revertiveDisplay@@0PAVQMetaObject@@A 00428d14     moc_revertiveDisplay.obj
 0003:00000d1c       ?metaObj@revertiveImpl@@0PAVQMetaObject@@A 00428d1c     moc_revertiveImpl.obj
 0003:00001098       __commode                  00429098     MSVCRT:xncommod.obj
 0003:0000109c       __dowildcard               0042909c     MSVCRT:wildcard.obj
 0003:000010a0       __newmode                  004290a0     MSVCRT:_newmode.obj
 0003:000010a4       __fmode                    004290a4     MSVCRT:xtxtmode.obj
 0003:000012e0       ___native_startup_lock     004292e0     <common>
 0003:000012e4       ___native_startup_state    004292e4     <common>
 0003:000012e8       ___dyn_tls_init_callback   004292e8     <common>
 0003:000012ec       ___onexitend               004292ec     <common>
 0003:000012f0       ___onexitbegin             004292f0     <common>

 entry point at        0001:0000ef93

 Static symbols

 0001:000000c0       ??__E?_Generic_object@?$_Error_objects@H@std@@2V_Generic_error_category@2@A@@YAXXZ 004010c0 f   bcommandmainwindow.obj
 0001:000000d0       ??__E?_Iostream_object@?$_Error_objects@H@std@@2V_Iostream_error_category@2@A@@YAXXZ 004010d0 f   bcommandmainwindow.obj
 0001:000000e0       ??__E?_System_object@?$_Error_objects@H@std@@2V_System_error_category@2@A@@YAXXZ 004010e0 f   bcommandmainwindow.obj
 0001:000000f0       ??__EmathsMap@@YAXXZ       004010f0 f   commandLine.obj
 0001:00000110       ??__EstringMap@@YAXXZ      00401110 f   commandLine.obj
 0001:00000130       ??__EcleanUp_commandEdit@@YAXXZ 00401130 f   moc_commandEdit.obj
 0001:00000160       ??__EcleanUp_bCommandMainWindow@@YAXXZ 00401160 f   moc_bcommandmainwindow.obj
 0001:00000190       ??__EcleanUp_command@@YAXXZ 00401190 f   moc_commandimpl.obj
 0001:000001c0       ??__EcleanUp_commandLine@@YAXXZ 004011c0 f   moc_commandLine.obj
 0001:000001f0       ??__EcleanUp_revertiveDisplay@@YAXXZ 004011f0 f   moc_revertiveDisplay.obj
 0001:00000220       ??__EcleanUp_revertiveImpl@@YAXXZ 00401220 f   moc_revertiveImpl.obj
 0001:000019f6       __catch$?_Copy@?$basic_string@DU?$char_traits@D@std@@V?$allocator@D@2@@std@@QAEXII@Z$0 004029f6 f i bcommandmainwindow.obj
 0001:00001a33       __catch$?_Copy@?$basic_string@DU?$char_traits@D@std@@V?$allocator@D@2@@std@@QAEXII@Z$1 00402a33 f i bcommandmainwindow.obj
 0001:000051b4       $LN516                     004061b4     commandLine.obj
 0001:000051cc       $LN510                     004061cc     commandLine.obj
 0001:0000798c       $LN30                      0040898c     moc_bcommandmainwindow.obj
 0001:00007e14       $LN29                      00408e14     moc_commandimpl.obj
 0001:00008348       $LN38                      00409348     moc_commandLine.obj
 0001:0000851c       $LN36                      0040951c     moc_commandLine.obj
 0001:00008c6c       $LN46                      00409c6c     moc_revertiveImpl.obj
 0001:0000ee8f       _pre_c_init                0040fe8f f   MSVCRT:crtexew.obj
 0001:0000ef48       _pre_cpp_init              0040ff48 f   MSVCRT:crtexew.obj
 0001:0000ef9d       ___tmainCRTStartup         0040ff9d f   MSVCRT:crtexew.obj
 0001:0000f180       $$000000                   00410180     MSVCRT:sehprolg4.obj
 0001:0000f880       __unwindfunclet$??0bCommandMainWindow@@QAE@PAVQWidget@@PBDI@Z$0 00410880 f   bcommandmainwindow.obj
 0001:0000f889       __unwindfunclet$??0bCommandMainWindow@@QAE@PAVQWidget@@PBDI@Z$1 00410889 f   bcommandmainwindow.obj
 0001:0000f895       __unwindfunclet$??0bCommandMainWindow@@QAE@PAVQWidget@@PBDI@Z$2 00410895 f   bcommandmainwindow.obj
 0001:0000f8a1       __unwindfunclet$??0bCommandMainWindow@@QAE@PAVQWidget@@PBDI@Z$3 004108a1 f   bcommandmainwindow.obj
 0001:0000f8b0       __unwindfunclet$??0bCommandMainWindow@@QAE@PAVQWidget@@PBDI@Z$4 004108b0 f   bcommandmainwindow.obj
 0001:0000f8bf       __unwindfunclet$??0bCommandMainWindow@@QAE@PAVQWidget@@PBDI@Z$5 004108bf f   bcommandmainwindow.obj
 0001:0000f8c8       __unwindfunclet$??0bCommandMainWindow@@QAE@PAVQWidget@@PBDI@Z$6 004108c8 f   bcommandmainwindow.obj
 0001:0000f8d1       __unwindfunclet$??0bCommandMainWindow@@QAE@PAVQWidget@@PBDI@Z$7 004108d1 f   bcommandmainwindow.obj
 0001:0000f8dc       __unwindfunclet$??0bCommandMainWindow@@QAE@PAVQWidget@@PBDI@Z$8 004108dc f   bcommandmainwindow.obj
 0001:0000f8e7       __unwindfunclet$??0bCommandMainWindow@@QAE@PAVQWidget@@PBDI@Z$9 004108e7 f   bcommandmainwindow.obj
 0001:0000f8f0       __unwindfunclet$??0bCommandMainWindow@@QAE@PAVQWidget@@PBDI@Z$10 004108f0 f   bcommandmainwindow.obj
 0001:0000f8f9       __unwindfunclet$??0bCommandMainWindow@@QAE@PAVQWidget@@PBDI@Z$11 004108f9 f   bcommandmainwindow.obj
 0001:0000f904       __unwindfunclet$??0bCommandMainWindow@@QAE@PAVQWidget@@PBDI@Z$12 00410904 f   bcommandmainwindow.obj
 0001:0000f90f       __unwindfunclet$??0bCommandMainWindow@@QAE@PAVQWidget@@PBDI@Z$13 0041090f f   bcommandmainwindow.obj
 0001:0000f91a       __unwindfunclet$??0bCommandMainWindow@@QAE@PAVQWidget@@PBDI@Z$14 0041091a f   bcommandmainwindow.obj
 0001:0000f925       __unwindfunclet$??0bCommandMainWindow@@QAE@PAVQWidget@@PBDI@Z$15 00410925 f   bcommandmainwindow.obj
 0001:0000f93f       __unwindfunclet$??0bCommandMainWindow@@QAE@PAVQWidget@@PBDI@Z$16 0041093f f   bcommandmainwindow.obj
 0001:0000f959       __unwindfunclet$??0bCommandMainWindow@@QAE@PAVQWidget@@PBDI@Z$17 00410959 f   bcommandmainwindow.obj
 0001:0000f973       __unwindfunclet$??0bCommandMainWindow@@QAE@PAVQWidget@@PBDI@Z$19 00410973 f   bcommandmainwindow.obj
 0001:0000f97e       __unwindfunclet$??0bCommandMainWindow@@QAE@PAVQWidget@@PBDI@Z$20 0041097e f   bcommandmainwindow.obj
 0001:0000f998       __unwindfunclet$??0bCommandMainWindow@@QAE@PAVQWidget@@PBDI@Z$21 00410998 f   bcommandmainwindow.obj
 0001:0000f9b2       __unwindfunclet$??0bCommandMainWindow@@QAE@PAVQWidget@@PBDI@Z$22 004109b2 f   bcommandmainwindow.obj
 0001:0000f9cc       __unwindfunclet$??0bCommandMainWindow@@QAE@PAVQWidget@@PBDI@Z$24 004109cc f   bcommandmainwindow.obj
 0001:0000f9d7       __unwindfunclet$??0bCommandMainWindow@@QAE@PAVQWidget@@PBDI@Z$25 004109d7 f   bcommandmainwindow.obj
 0001:0000f9f1       __unwindfunclet$??0bCommandMainWindow@@QAE@PAVQWidget@@PBDI@Z$27 004109f1 f   bcommandmainwindow.obj
 0001:0000f9fc       __unwindfunclet$??0bCommandMainWindow@@QAE@PAVQWidget@@PBDI@Z$28 004109fc f   bcommandmainwindow.obj
 0001:0000fa1b       __unwindfunclet$??0bCommandMainWindow@@QAE@PAVQWidget@@PBDI@Z$29 00410a1b f   bcommandmainwindow.obj
 0001:0000fa3a       __unwindfunclet$??0bCommandMainWindow@@QAE@PAVQWidget@@PBDI@Z$30 00410a3a f   bcommandmainwindow.obj
 0001:0000fa59       __unwindfunclet$??0bCommandMainWindow@@QAE@PAVQWidget@@PBDI@Z$32 00410a59 f   bcommandmainwindow.obj
 0001:0000fa64       __unwindfunclet$??0bCommandMainWindow@@QAE@PAVQWidget@@PBDI@Z$33 00410a64 f   bcommandmainwindow.obj
 0001:0000fa83       __unwindfunclet$??0bCommandMainWindow@@QAE@PAVQWidget@@PBDI@Z$35 00410a83 f   bcommandmainwindow.obj
 0001:0000fa8c       __unwindfunclet$??0bCommandMainWindow@@QAE@PAVQWidget@@PBDI@Z$36 00410a8c f   bcommandmainwindow.obj
 0001:0000fa95       __unwindfunclet$??0bCommandMainWindow@@QAE@PAVQWidget@@PBDI@Z$37 00410a95 f   bcommandmainwindow.obj
 0001:0000fa9e       __unwindfunclet$??0bCommandMainWindow@@QAE@PAVQWidget@@PBDI@Z$38 00410a9e f   bcommandmainwindow.obj
 0001:0000faa7       __unwindfunclet$??0bCommandMainWindow@@QAE@PAVQWidget@@PBDI@Z$39 00410aa7 f   bcommandmainwindow.obj
 0001:0000fab2       __unwindfunclet$??0bCommandMainWindow@@QAE@PAVQWidget@@PBDI@Z$40 00410ab2 f   bcommandmainwindow.obj
 0001:0000fad1       __unwindfunclet$??0bCommandMainWindow@@QAE@PAVQWidget@@PBDI@Z$41 00410ad1 f   bcommandmainwindow.obj
 0001:0000fadc       __unwindfunclet$??0bCommandMainWindow@@QAE@PAVQWidget@@PBDI@Z$42 00410adc f   bcommandmainwindow.obj
 0001:0000fae7       __unwindfunclet$??0bCommandMainWindow@@QAE@PAVQWidget@@PBDI@Z$43 00410ae7 f   bcommandmainwindow.obj
 0001:0000fb06       __unwindfunclet$??0bCommandMainWindow@@QAE@PAVQWidget@@PBDI@Z$44 00410b06 f   bcommandmainwindow.obj
 0001:0000fb11       __unwindfunclet$??0bCommandMainWindow@@QAE@PAVQWidget@@PBDI@Z$45 00410b11 f   bcommandmainwindow.obj
 0001:0000fb30       __unwindfunclet$??0bCommandMainWindow@@QAE@PAVQWidget@@PBDI@Z$46 00410b30 f   bcommandmainwindow.obj
 0001:0000fb3b       __unwindfunclet$??0bCommandMainWindow@@QAE@PAVQWidget@@PBDI@Z$47 00410b3b f   bcommandmainwindow.obj
 0001:0000fb5a       __unwindfunclet$??0bCommandMainWindow@@QAE@PAVQWidget@@PBDI@Z$48 00410b5a f   bcommandmainwindow.obj
 0001:0000fb63       __unwindfunclet$??0bCommandMainWindow@@QAE@PAVQWidget@@PBDI@Z$49 00410b63 f   bcommandmainwindow.obj
 0001:0000fb6e       __unwindfunclet$??0bCommandMainWindow@@QAE@PAVQWidget@@PBDI@Z$50 00410b6e f   bcommandmainwindow.obj
 0001:0000fb79       __unwindfunclet$??0bCommandMainWindow@@QAE@PAVQWidget@@PBDI@Z$51 00410b79 f   bcommandmainwindow.obj
 0001:0000fb97       __unwindfunclet$??0bCommandMainWindow@@QAE@PAVQWidget@@PBDI@Z$52 00410b97 f   bcommandmainwindow.obj
 0001:0000fba0       __unwindfunclet$??0bCommandMainWindow@@QAE@PAVQWidget@@PBDI@Z$53 00410ba0 f   bcommandmainwindow.obj
 0001:0000fba9       __unwindfunclet$??0bCommandMainWindow@@QAE@PAVQWidget@@PBDI@Z$54 00410ba9 f   bcommandmainwindow.obj
 0001:0000fbb4       __unwindfunclet$??0bCommandMainWindow@@QAE@PAVQWidget@@PBDI@Z$55 00410bb4 f   bcommandmainwindow.obj
 0001:0000fbbf       __unwindfunclet$??0bCommandMainWindow@@QAE@PAVQWidget@@PBDI@Z$56 00410bbf f   bcommandmainwindow.obj
 0001:0000fbca       __unwindfunclet$??0bCommandMainWindow@@QAE@PAVQWidget@@PBDI@Z$57 00410bca f   bcommandmainwindow.obj
 0001:0000fbd5       __unwindfunclet$??0bCommandMainWindow@@QAE@PAVQWidget@@PBDI@Z$58 00410bd5 f   bcommandmainwindow.obj
 0001:0000fbe0       __unwindfunclet$??0bCommandMainWindow@@QAE@PAVQWidget@@PBDI@Z$59 00410be0 f   bcommandmainwindow.obj
 0001:0000fbeb       __unwindfunclet$??0bCommandMainWindow@@QAE@PAVQWidget@@PBDI@Z$62 00410beb f   bcommandmainwindow.obj
 0001:0000fbf4       __unwindfunclet$??0bCommandMainWindow@@QAE@PAVQWidget@@PBDI@Z$63 00410bf4 f   bcommandmainwindow.obj
 0001:0000fbfd       __unwindfunclet$??0bCommandMainWindow@@QAE@PAVQWidget@@PBDI@Z$64 00410bfd f   bcommandmainwindow.obj
 0001:0000fc06       __unwindfunclet$??0bCommandMainWindow@@QAE@PAVQWidget@@PBDI@Z$65 00410c06 f   bcommandmainwindow.obj
 0001:0000fc0f       __unwindfunclet$??0bCommandMainWindow@@QAE@PAVQWidget@@PBDI@Z$66 00410c0f f   bcommandmainwindow.obj
 0001:0000fc18       __unwindfunclet$??0bCommandMainWindow@@QAE@PAVQWidget@@PBDI@Z$67 00410c18 f   bcommandmainwindow.obj
 0001:0000fc21       __unwindfunclet$??0bCommandMainWindow@@QAE@PAVQWidget@@PBDI@Z$68 00410c21 f   bcommandmainwindow.obj
 0001:0000fc2a       __unwindfunclet$??0bCommandMainWindow@@QAE@PAVQWidget@@PBDI@Z$69 00410c2a f   bcommandmainwindow.obj
 0001:0000fc33       __unwindfunclet$??0bCommandMainWindow@@QAE@PAVQWidget@@PBDI@Z$70 00410c33 f   bcommandmainwindow.obj
 0001:0000fc3c       __unwindfunclet$??0bCommandMainWindow@@QAE@PAVQWidget@@PBDI@Z$71 00410c3c f   bcommandmainwindow.obj
 0001:0000fc45       __ehhandler$??0bCommandMainWindow@@QAE@PAVQWidget@@PBDI@Z 00410c45 f   bcommandmainwindow.obj
 0001:0000fc70       __unwindfunclet$??1bCommandMainWindow@@UAE@XZ$0 00410c70 f   bcommandmainwindow.obj
 0001:0000fc79       __unwindfunclet$??1bCommandMainWindow@@UAE@XZ$1 00410c79 f   bcommandmainwindow.obj
 0001:0000fc85       __unwindfunclet$??1bCommandMainWindow@@UAE@XZ$2 00410c85 f   bcommandmainwindow.obj
 0001:0000fc91       __unwindfunclet$??1bCommandMainWindow@@UAE@XZ$3 00410c91 f   bcommandmainwindow.obj
 0001:0000fca0       __unwindfunclet$??1bCommandMainWindow@@UAE@XZ$4 00410ca0 f   bcommandmainwindow.obj
 0001:0000fcaf       __unwindfunclet$??1bCommandMainWindow@@UAE@XZ$5 00410caf f   bcommandmainwindow.obj
 0001:0000fcb8       __unwindfunclet$??1bCommandMainWindow@@UAE@XZ$6 00410cb8 f   bcommandmainwindow.obj
 0001:0000fcc1       __unwindfunclet$??1bCommandMainWindow@@UAE@XZ$7 00410cc1 f   bcommandmainwindow.obj
 0001:0000fcca       __unwindfunclet$??1bCommandMainWindow@@UAE@XZ$8 00410cca f   bcommandmainwindow.obj
 0001:0000fcd3       __unwindfunclet$??1bCommandMainWindow@@UAE@XZ$9 00410cd3 f   bcommandmainwindow.obj
 0001:0000fcdc       __ehhandler$??1bCommandMainWindow@@UAE@XZ 00410cdc f   bcommandmainwindow.obj
 0001:0000fd00       __ehhandler$?_Copy@?$basic_string@DU?$char_traits@D@std@@V?$allocator@D@2@@std@@QAEXII@Z 00410d00 f   bcommandmainwindow.obj
 0001:0000fd20       __unwindfunclet$?about@bCommandMainWindow@@QAEXXZ$0 00410d20 f   bcommandmainwindow.obj
 0001:0000fd28       __unwindfunclet$?about@bCommandMainWindow@@QAEXXZ$1 00410d28 f   bcommandmainwindow.obj
 0001:0000fd31       __unwindfunclet$?about@bCommandMainWindow@@QAEXXZ$2 00410d31 f   bcommandmainwindow.obj
 0001:0000fd3a       __unwindfunclet$?about@bCommandMainWindow@@QAEXXZ$3 00410d3a f   bcommandmainwindow.obj
 0001:0000fd43       __unwindfunclet$?about@bCommandMainWindow@@QAEXXZ$4 00410d43 f   bcommandmainwindow.obj
 0001:0000fd4c       __unwindfunclet$?about@bCommandMainWindow@@QAEXXZ$5 00410d4c f   bcommandmainwindow.obj
 0001:0000fd55       __unwindfunclet$?about@bCommandMainWindow@@QAEXXZ$6 00410d55 f   bcommandmainwindow.obj
 0001:0000fd5e       __unwindfunclet$?about@bCommandMainWindow@@QAEXXZ$7 00410d5e f   bcommandmainwindow.obj
 0001:0000fd67       __unwindfunclet$?about@bCommandMainWindow@@QAEXXZ$8 00410d67 f   bcommandmainwindow.obj
 0001:0000fd70       __unwindfunclet$?about@bCommandMainWindow@@QAEXXZ$9 00410d70 f   bcommandmainwindow.obj
 0001:0000fd79       __unwindfunclet$?about@bCommandMainWindow@@QAEXXZ$10 00410d79 f   bcommandmainwindow.obj
 0001:0000fd82       __unwindfunclet$?about@bCommandMainWindow@@QAEXXZ$11 00410d82 f   bcommandmainwindow.obj
 0001:0000fd8b       __unwindfunclet$?about@bCommandMainWindow@@QAEXXZ$12 00410d8b f   bcommandmainwindow.obj
 0001:0000fd94       __unwindfunclet$?about@bCommandMainWindow@@QAEXXZ$13 00410d94 f   bcommandmainwindow.obj
 0001:0000fd9d       __ehhandler$?about@bCommandMainWindow@@QAEXXZ 00410d9d f   bcommandmainwindow.obj
 0001:0000fdc0       __unwindfunclet$?addRecentFile@bCommandMainWindow@@AAEXVQString@@@Z$0 00410dc0 f   bcommandmainwindow.obj
 0001:0000fdc9       __ehhandler$?addRecentFile@bCommandMainWindow@@AAEXVQString@@@Z 00410dc9 f   bcommandmainwindow.obj
 0001:0000fdf0       __unwindfunclet$?clearCurrent@bCommandMainWindow@@QAEXXZ$0 00410df0 f   bcommandmainwindow.obj
 0001:0000fdf9       __unwindfunclet$?clearCurrent@bCommandMainWindow@@QAEXXZ$1 00410df9 f   bcommandmainwindow.obj
 0001:0000fe02       __unwindfunclet$?clearCurrent@bCommandMainWindow@@QAEXXZ$2 00410e02 f   bcommandmainwindow.obj
 0001:0000fe0b       __unwindfunclet$?clearCurrent@bCommandMainWindow@@QAEXXZ$3 00410e0b f   bcommandmainwindow.obj
 0001:0000fe14       __unwindfunclet$?clearCurrent@bCommandMainWindow@@QAEXXZ$4 00410e14 f   bcommandmainwindow.obj
 0001:0000fe1d       __unwindfunclet$?clearCurrent@bCommandMainWindow@@QAEXXZ$5 00410e1d f   bcommandmainwindow.obj
 0001:0000fe26       __ehhandler$?clearCurrent@bCommandMainWindow@@QAEXXZ 00410e26 f   bcommandmainwindow.obj
 0001:0000fe50       __unwindfunclet$?loadFile@bCommandMainWindow@@AAEXVQString@@@Z$0 00410e50 f   bcommandmainwindow.obj
 0001:0000fe59       __unwindfunclet$?loadFile@bCommandMainWindow@@AAEXVQString@@@Z$1 00410e59 f   bcommandmainwindow.obj
 0001:0000fe62       __unwindfunclet$?loadFile@bCommandMainWindow@@AAEXVQString@@@Z$2 00410e62 f   bcommandmainwindow.obj
 0001:0000fe6b       __unwindfunclet$?loadFile@bCommandMainWindow@@AAEXVQString@@@Z$3 00410e6b f   bcommandmainwindow.obj
 0001:0000fe74       __unwindfunclet$?loadFile@bCommandMainWindow@@AAEXVQString@@@Z$4 00410e74 f   bcommandmainwindow.obj
 0001:0000fe7d       __unwindfunclet$?loadFile@bCommandMainWindow@@AAEXVQString@@@Z$5 00410e7d f   bcommandmainwindow.obj
 0001:0000fe86       __unwindfunclet$?loadFile@bCommandMainWindow@@AAEXVQString@@@Z$6 00410e86 f   bcommandmainwindow.obj
 0001:0000fe8f       __unwindfunclet$?loadFile@bCommandMainWindow@@AAEXVQString@@@Z$10 00410e8f f   bcommandmainwindow.obj
 0001:0000fe98       __unwindfunclet$?loadFile@bCommandMainWindow@@AAEXVQString@@@Z$11 00410e98 f   bcommandmainwindow.obj
 0001:0000fea1       __ehhandler$?loadFile@bCommandMainWindow@@AAEXVQString@@@Z 00410ea1 f   bcommandmainwindow.obj
 0001:0000fec0       __unwindfunclet$?loadRecentFile@bCommandMainWindow@@QAEXABVQVariant@@@Z$0 00410ec0 f   bcommandmainwindow.obj
 0001:0000fec9       __unwindfunclet$?loadRecentFile@bCommandMainWindow@@QAEXABVQVariant@@@Z$1 00410ec9 f   bcommandmainwindow.obj
 0001:0000fed2       __unwindfunclet$?loadRecentFile@bCommandMainWindow@@QAEXABVQVariant@@@Z$3 00410ed2 f   bcommandmainwindow.obj
 0001:0000fedb       __unwindfunclet$?loadRecentFile@bCommandMainWindow@@QAEXABVQVariant@@@Z$4 00410edb f   bcommandmainwindow.obj
 0001:0000fee4       __ehhandler$?loadRecentFile@bCommandMainWindow@@QAEXABVQVariant@@@Z 00410ee4 f   bcommandmainwindow.obj
 0001:0000ff00       __unwindfunclet$?loadSettings@bCommandMainWindow@@AAEXVQStringList@@@Z$0 00410f00 f   bcommandmainwindow.obj
 0001:0000ff09       __unwindfunclet$?loadSettings@bCommandMainWindow@@AAEXVQStringList@@@Z$1 00410f09 f   bcommandmainwindow.obj
 0001:0000ff12       __unwindfunclet$?loadSettings@bCommandMainWindow@@AAEXVQStringList@@@Z$2 00410f12 f   bcommandmainwindow.obj
 0001:0000ff1b       __ehhandler$?loadSettings@bCommandMainWindow@@AAEXVQStringList@@@Z 00410f1b f   bcommandmainwindow.obj
 0001:0000ff40       __unwindfunclet$?open@bCommandMainWindow@@QAEXXZ$0 00410f40 f   bcommandmainwindow.obj
 0001:0000ff49       __unwindfunclet$?open@bCommandMainWindow@@QAEXXZ$1 00410f49 f   bcommandmainwindow.obj
 0001:0000ff52       __unwindfunclet$?open@bCommandMainWindow@@QAEXXZ$2 00410f52 f   bcommandmainwindow.obj
 0001:0000ff5b       __unwindfunclet$?open@bCommandMainWindow@@QAEXXZ$3 00410f5b f   bcommandmainwindow.obj
 0001:0000ff64       __unwindfunclet$?open@bCommandMainWindow@@QAEXXZ$4 00410f64 f   bcommandmainwindow.obj
 0001:0000ff6d       __ehhandler$?open@bCommandMainWindow@@QAEXXZ 00410f6d f   bcommandmainwindow.obj
 0001:0000ff90       __unwindfunclet$?promptForSave@bCommandMainWindow@@AAE_NXZ$0 00410f90 f   bcommandmainwindow.obj
 0001:0000ff99       __unwindfunclet$?promptForSave@bCommandMainWindow@@AAE_NXZ$1 00410f99 f   bcommandmainwindow.obj
 0001:0000ffa2       __unwindfunclet$?promptForSave@bCommandMainWindow@@AAE_NXZ$2 00410fa2 f   bcommandmainwindow.obj
 0001:0000ffab       __unwindfunclet$?promptForSave@bCommandMainWindow@@AAE_NXZ$3 00410fab f   bcommandmainwindow.obj
 0001:0000ffb4       __unwindfunclet$?promptForSave@bCommandMainWindow@@AAE_NXZ$4 00410fb4 f   bcommandmainwindow.obj
 0001:0000ffbd       __ehhandler$?promptForSave@bCommandMainWindow@@AAE_NXZ 00410fbd f   bcommandmainwindow.obj
 0001:0000ffe0       __unwindfunclet$?saveAs@bCommandMainWindow@@QAEXXZ$0 00410fe0 f   bcommandmainwindow.obj
 0001:0000ffe9       __unwindfunclet$?saveAs@bCommandMainWindow@@QAEXXZ$1 00410fe9 f   bcommandmainwindow.obj
 0001:0000fff2       __unwindfunclet$?saveAs@bCommandMainWindow@@QAEXXZ$2 00410ff2 f   bcommandmainwindow.obj
 0001:0000fffb       __unwindfunclet$?saveAs@bCommandMainWindow@@QAEXXZ$3 00410ffb f   bcommandmainwindow.obj
 0001:00010004       __unwindfunclet$?saveAs@bCommandMainWindow@@QAEXXZ$4 00411004 f   bcommandmainwindow.obj
 0001:0001000d       __unwindfunclet$?saveAs@bCommandMainWindow@@QAEXXZ$5 0041100d f   bcommandmainwindow.obj
 0001:00010016       __unwindfunclet$?saveAs@bCommandMainWindow@@QAEXXZ$6 00411016 f   bcommandmainwindow.obj
 0001:0001001f       __unwindfunclet$?saveAs@bCommandMainWindow@@QAEXXZ$7 0041101f f   bcommandmainwindow.obj
 0001:00010028       __unwindfunclet$?saveAs@bCommandMainWindow@@QAEXXZ$8 00411028 f   bcommandmainwindow.obj
 0001:00010031       __unwindfunclet$?saveAs@bCommandMainWindow@@QAEXXZ$9 00411031 f   bcommandmainwindow.obj
 0001:0001003a       __unwindfunclet$?saveAs@bCommandMainWindow@@QAEXXZ$10 0041103a f   bcommandmainwindow.obj
 0001:00010043       __unwindfunclet$?saveAs@bCommandMainWindow@@QAEXXZ$12 00411043 f   bcommandmainwindow.obj
 0001:0001004c       __unwindfunclet$?saveAs@bCommandMainWindow@@QAEXXZ$13 0041104c f   bcommandmainwindow.obj
 0001:00010055       __unwindfunclet$?saveAs@bCommandMainWindow@@QAEXXZ$14 00411055 f   bcommandmainwindow.obj
 0001:0001005e       __ehhandler$?saveAs@bCommandMainWindow@@QAEXXZ 0041105e f   bcommandmainwindow.obj
 0001:00010080       __unwindfunclet$?saveFile@bCommandMainWindow@@AAEXVQString@@@Z$0 00411080 f   bcommandmainwindow.obj
 0001:00010089       __unwindfunclet$?saveFile@bCommandMainWindow@@AAEXVQString@@@Z$1 00411089 f   bcommandmainwindow.obj
 0001:00010092       __unwindfunclet$?saveFile@bCommandMainWindow@@AAEXVQString@@@Z$3 00411092 f   bcommandmainwindow.obj
 0001:0001009b       __unwindfunclet$?saveFile@bCommandMainWindow@@AAEXVQString@@@Z$4 0041109b f   bcommandmainwindow.obj
 0001:000100a4       __unwindfunclet$?saveFile@bCommandMainWindow@@AAEXVQString@@@Z$5 004110a4 f   bcommandmainwindow.obj
 0001:000100ad       __unwindfunclet$?saveFile@bCommandMainWindow@@AAEXVQString@@@Z$6 004110ad f   bcommandmainwindow.obj
 0001:000100b6       __ehhandler$?saveFile@bCommandMainWindow@@AAEXVQString@@@Z 004110b6 f   bcommandmainwindow.obj
 0001:000100e0       __unwindfunclet$?showFileMenu@bCommandMainWindow@@QAEXXZ$0 004110e0 f   bcommandmainwindow.obj
 0001:000100e9       __ehhandler$?showFileMenu@bCommandMainWindow@@QAEXXZ 004110e9 f   bcommandmainwindow.obj
 0001:00010110       __unwindfunclet$?slot_scriptDirty@bCommandMainWindow@@QAEX_N@Z$0 00411110 f   bcommandmainwindow.obj
 0001:00010119       __unwindfunclet$?slot_scriptDirty@bCommandMainWindow@@QAEX_N@Z$1 00411119 f   bcommandmainwindow.obj
 0001:00010122       __unwindfunclet$?slot_scriptDirty@bCommandMainWindow@@QAEX_N@Z$2 00411122 f   bcommandmainwindow.obj
 0001:0001012b       __unwindfunclet$?slot_scriptDirty@bCommandMainWindow@@QAEX_N@Z$3 0041112b f   bcommandmainwindow.obj
 0001:00010134       __unwindfunclet$?slot_scriptDirty@bCommandMainWindow@@QAEX_N@Z$4 00411134 f   bcommandmainwindow.obj
 0001:0001013d       __unwindfunclet$?slot_scriptDirty@bCommandMainWindow@@QAEX_N@Z$5 0041113d f   bcommandmainwindow.obj
 0001:00010146       __unwindfunclet$?slot_scriptDirty@bCommandMainWindow@@QAEX_N@Z$6 00411146 f   bcommandmainwindow.obj
 0001:0001014f       __unwindfunclet$?slot_scriptDirty@bCommandMainWindow@@QAEX_N@Z$7 0041114f f   bcommandmainwindow.obj
 0001:00010158       __unwindfunclet$?slot_scriptDirty@bCommandMainWindow@@QAEX_N@Z$8 00411158 f   bcommandmainwindow.obj
 0001:00010161       __ehhandler$?slot_scriptDirty@bCommandMainWindow@@QAEX_N@Z 00411161 f   bcommandmainwindow.obj
 0001:00010180       __unwindfunclet$??0commandEdit@@QAE@PAVQWidget@@PBD@Z$0 00411180 f   commandEdit.obj
 0001:00010189       __ehhandler$??0commandEdit@@QAE@PAVQWidget@@PBD@Z 00411189 f   commandEdit.obj
 0001:000101b0       __unwindfunclet$??0command@@QAE@PAVccClient@@PAVQWidget@@PBDI@Z$0 004111b0 f   commandimpl.obj
 0001:000101b9       __unwindfunclet$??0command@@QAE@PAVccClient@@PAVQWidget@@PBDI@Z$1 004111b9 f   commandimpl.obj
 0001:000101c4       __unwindfunclet$??0command@@QAE@PAVccClient@@PAVQWidget@@PBDI@Z$2 004111c4 f   commandimpl.obj
 0001:000101cf       __unwindfunclet$??0command@@QAE@PAVccClient@@PAVQWidget@@PBDI@Z$3 004111cf f   commandimpl.obj
 0001:000101da       __unwindfunclet$??0command@@QAE@PAVccClient@@PAVQWidget@@PBDI@Z$4 004111da f   commandimpl.obj
 0001:000101f4       __unwindfunclet$??0command@@QAE@PAVccClient@@PAVQWidget@@PBDI@Z$5 004111f4 f   commandimpl.obj
 0001:000101fd       __unwindfunclet$??0command@@QAE@PAVccClient@@PAVQWidget@@PBDI@Z$6 004111fd f   commandimpl.obj
 0001:00010208       __unwindfunclet$??0command@@QAE@PAVccClient@@PAVQWidget@@PBDI@Z$7 00411208 f   commandimpl.obj
 0001:00010222       __unwindfunclet$??0command@@QAE@PAVccClient@@PAVQWidget@@PBDI@Z$8 00411222 f   commandimpl.obj
 0001:0001022b       __unwindfunclet$??0command@@QAE@PAVccClient@@PAVQWidget@@PBDI@Z$10 0041122b f   commandimpl.obj
 0001:00010236       __unwindfunclet$??0command@@QAE@PAVccClient@@PAVQWidget@@PBDI@Z$11 00411236 f   commandimpl.obj
 0001:00010241       __unwindfunclet$??0command@@QAE@PAVccClient@@PAVQWidget@@PBDI@Z$12 00411241 f   commandimpl.obj
 0001:0001025b       __unwindfunclet$??0command@@QAE@PAVccClient@@PAVQWidget@@PBDI@Z$13 0041125b f   commandimpl.obj
 0001:00010275       __ehhandler$??0command@@QAE@PAVccClient@@PAVQWidget@@PBDI@Z 00411275 f   commandimpl.obj
 0001:00010290       __unwindfunclet$??_G?$QPtrList@VcommandLine@@@@UAEPAXI@Z$0 00411290 f   commandimpl.obj
 0001:00010299       __ehhandler$??_G?$QPtrList@VcommandLine@@@@UAEPAXI@Z 00411299 f   commandimpl.obj
 0001:000102c0       __unwindfunclet$??_Gcommand@@UAEPAXI@Z$0 004112c0 f   commandimpl.obj
 0001:000102c9       __ehhandler$??_Gcommand@@UAEPAXI@Z 004112c9 f   commandimpl.obj
 0001:000102f0       __unwindfunclet$?loadSettings@command@@QAEXVQStringList@@@Z$0 004112f0 f   commandimpl.obj
 0001:000102f9       __ehhandler$?loadSettings@command@@QAEXVQStringList@@@Z 004112f9 f   commandimpl.obj
 0001:00010320       __unwindfunclet$?save@command@@QAE?AVQStringList@@XZ$0 00411320 f   commandimpl.obj
 0001:0001033a       __unwindfunclet$?save@command@@QAE?AVQStringList@@XZ$1 0041133a f   commandimpl.obj
 0001:00010343       __ehhandler$?save@command@@QAE?AVQStringList@@XZ 00411343 f   commandimpl.obj
 0001:00010360       __unwindfunclet$?setCheckBoxes@command@@QAEXXZ$0 00411360 f   commandimpl.obj
 0001:00010369       __unwindfunclet$?setCheckBoxes@command@@QAEXXZ$1 00411369 f   commandimpl.obj
 0001:00010372       __ehhandler$?setCheckBoxes@command@@QAEXXZ 00411372 f   commandimpl.obj
 0001:00010390       __unwindfunclet$??0commandLine@@QAE@PAVccClient@@PAVQWidget@@PBDI@Z$0 00411390 f   commandLine.obj
 0001:00010399       __unwindfunclet$??0commandLine@@QAE@PAVccClient@@PAVQWidget@@PBDI@Z$1 00411399 f   commandLine.obj
 0001:000103a4       __unwindfunclet$??0commandLine@@QAE@PAVccClient@@PAVQWidget@@PBDI@Z$2 004113a4 f   commandLine.obj
 0001:000103af       __unwindfunclet$??0commandLine@@QAE@PAVccClient@@PAVQWidget@@PBDI@Z$3 004113af f   commandLine.obj
 0001:000103ba       __unwindfunclet$??0commandLine@@QAE@PAVccClient@@PAVQWidget@@PBDI@Z$4 004113ba f   commandLine.obj
 0001:000103d4       __unwindfunclet$??0commandLine@@QAE@PAVccClient@@PAVQWidget@@PBDI@Z$5 004113d4 f   commandLine.obj
 0001:000103df       __ehhandler$??0commandLine@@QAE@PAVccClient@@PAVQWidget@@PBDI@Z 004113df f   commandLine.obj
 0001:00010400       __unwindfunclet$?getMathsValue@commandLine@@AAEHVQString@@@Z$0 00411400 f   commandLine.obj
 0001:00010409       __ehhandler$?getMathsValue@commandLine@@AAEHVQString@@@Z 00411409 f   commandLine.obj
 0001:00010430       __unwindfunclet$?getStringValue@commandLine@@AAE?AVQString@@V2@@Z$0 00411430 f   commandLine.obj
 0001:00010439       __unwindfunclet$?getStringValue@commandLine@@AAE?AVQString@@V2@@Z$1 00411439 f   commandLine.obj
 0001:00010453       __unwindfunclet$?getStringValue@commandLine@@AAE?AVQString@@V2@@Z$2 00411453 f   commandLine.obj
 0001:0001045c       __ehhandler$?getStringValue@commandLine@@AAE?AVQString@@V2@@Z 0041145c f   commandLine.obj
 0001:00010480       __unwindfunclet$?loadSetting@commandLine@@QAE_NVQString@@@Z$0 00411480 f   commandLine.obj
 0001:00010489       __unwindfunclet$?loadSetting@commandLine@@QAE_NVQString@@@Z$1 00411489 f   commandLine.obj
 0001:00010492       __unwindfunclet$?loadSetting@commandLine@@QAE_NVQString@@@Z$2 00411492 f   commandLine.obj
 0001:0001049b       __unwindfunclet$?loadSetting@commandLine@@QAE_NVQString@@@Z$3 0041149b f   commandLine.obj
 0001:000104a4       __ehhandler$?loadSetting@commandLine@@QAE_NVQString@@@Z 004114a4 f   commandLine.obj
 0001:000104c0       __unwindfunclet$?performMaths@commandLine@@AAEXVQString@@@Z$0 004114c0 f   commandLine.obj
 0001:000104c9       __unwindfunclet$?performMaths@commandLine@@AAEXVQString@@@Z$1 004114c9 f   commandLine.obj
 0001:000104d2       __unwindfunclet$?performMaths@commandLine@@AAEXVQString@@@Z$2 004114d2 f   commandLine.obj
 0001:000104db       __unwindfunclet$?performMaths@commandLine@@AAEXVQString@@@Z$3 004114db f   commandLine.obj
 0001:000104e4       __unwindfunclet$?performMaths@commandLine@@AAEXVQString@@@Z$4 004114e4 f   commandLine.obj
 0001:000104ed       __unwindfunclet$?performMaths@commandLine@@AAEXVQString@@@Z$5 004114ed f   commandLine.obj
 0001:000104f6       __unwindfunclet$?performMaths@commandLine@@AAEXVQString@@@Z$6 004114f6 f   commandLine.obj
 0001:000104ff       __unwindfunclet$?performMaths@commandLine@@AAEXVQString@@@Z$7 004114ff f   commandLine.obj
 0001:00010508       __unwindfunclet$?performMaths@commandLine@@AAEXVQString@@@Z$8 00411508 f   commandLine.obj
 0001:00010511       __unwindfunclet$?performMaths@commandLine@@AAEXVQString@@@Z$9 00411511 f   commandLine.obj
 0001:0001052b       __unwindfunclet$?performMaths@commandLine@@AAEXVQString@@@Z$10 0041152b f   commandLine.obj
 0001:00010545       __unwindfunclet$?performMaths@commandLine@@AAEXVQString@@@Z$12 00411545 f   commandLine.obj
 0001:0001054e       __unwindfunclet$?performMaths@commandLine@@AAEXVQString@@@Z$13 0041154e f   commandLine.obj
 0001:00010557       __unwindfunclet$?performMaths@commandLine@@AAEXVQString@@@Z$14 00411557 f   commandLine.obj
 0001:00010560       __unwindfunclet$?performMaths@commandLine@@AAEXVQString@@@Z$15 00411560 f   commandLine.obj
 0001:00010569       __unwindfunclet$?performMaths@commandLine@@AAEXVQString@@@Z$16 00411569 f   commandLine.obj
 0001:00010572       __unwindfunclet$?performMaths@commandLine@@AAEXVQString@@@Z$17 00411572 f   commandLine.obj
 0001:0001057b       __unwindfunclet$?performMaths@commandLine@@AAEXVQString@@@Z$18 0041157b f   commandLine.obj
 0001:00010584       __unwindfunclet$?performMaths@commandLine@@AAEXVQString@@@Z$19 00411584 f   commandLine.obj
 0001:0001058d       __unwindfunclet$?performMaths@commandLine@@AAEXVQString@@@Z$20 0041158d f   commandLine.obj
 0001:00010596       __unwindfunclet$?performMaths@commandLine@@AAEXVQString@@@Z$21 00411596 f   commandLine.obj
 0001:000105b0       __unwindfunclet$?performMaths@commandLine@@AAEXVQString@@@Z$22 004115b0 f   commandLine.obj
 0001:000105ca       __unwindfunclet$?performMaths@commandLine@@AAEXVQString@@@Z$24 004115ca f   commandLine.obj
 0001:000105e4       __unwindfunclet$?performMaths@commandLine@@AAEXVQString@@@Z$25 004115e4 f   commandLine.obj
 0001:000105fe       __unwindfunclet$?performMaths@commandLine@@AAEXVQString@@@Z$28 004115fe f   commandLine.obj
 0001:00010607       __unwindfunclet$?performMaths@commandLine@@AAEXVQString@@@Z$29 00411607 f   commandLine.obj
 0001:00010610       __unwindfunclet$?performMaths@commandLine@@AAEXVQString@@@Z$30 00411610 f   commandLine.obj
 0001:0001062a       __unwindfunclet$?performMaths@commandLine@@AAEXVQString@@@Z$31 0041162a f   commandLine.obj
 0001:00010649       __unwindfunclet$?performMaths@commandLine@@AAEXVQString@@@Z$35 00411649 f   commandLine.obj
 0001:00010652       __unwindfunclet$?performMaths@commandLine@@AAEXVQString@@@Z$36 00411652 f   commandLine.obj
 0001:0001065b       __unwindfunclet$?performMaths@commandLine@@AAEXVQString@@@Z$37 0041165b f   commandLine.obj
 0001:0001067a       __unwindfunclet$?performMaths@commandLine@@AAEXVQString@@@Z$38 0041167a f   commandLine.obj
 0001:00010699       __ehhandler$?performMaths@commandLine@@AAEXVQString@@@Z 00411699 f   commandLine.obj
 0001:000106c0       __unwindfunclet$?replaceVariables@commandLine@@AAE?AVQString@@V2@@Z$0 004116c0 f   commandLine.obj
 0001:000106c9       __unwindfunclet$?replaceVariables@commandLine@@AAE?AVQString@@V2@@Z$1 004116c9 f   commandLine.obj
 0001:000106e3       __unwindfunclet$?replaceVariables@commandLine@@AAE?AVQString@@V2@@Z$2 004116e3 f   commandLine.obj
 0001:000106ec       __unwindfunclet$?replaceVariables@commandLine@@AAE?AVQString@@V2@@Z$3 004116ec f   commandLine.obj
 0001:000106f5       __unwindfunclet$?replaceVariables@commandLine@@AAE?AVQString@@V2@@Z$4 004116f5 f   commandLine.obj
 0001:000106fe       __unwindfunclet$?replaceVariables@commandLine@@AAE?AVQString@@V2@@Z$13 004116fe f   commandLine.obj
 0001:00010707       __unwindfunclet$?replaceVariables@commandLine@@AAE?AVQString@@V2@@Z$6 00411707 f   commandLine.obj
 0001:00010710       __unwindfunclet$?replaceVariables@commandLine@@AAE?AVQString@@V2@@Z$7 00411710 f   commandLine.obj
 0001:00010719       __unwindfunclet$?replaceVariables@commandLine@@AAE?AVQString@@V2@@Z$8 00411719 f   commandLine.obj
 0001:00010722       __unwindfunclet$?replaceVariables@commandLine@@AAE?AVQString@@V2@@Z$10 00411722 f   commandLine.obj
 0001:0001072b       __unwindfunclet$?replaceVariables@commandLine@@AAE?AVQString@@V2@@Z$11 0041172b f   commandLine.obj
 0001:00010734       __unwindfunclet$?replaceVariables@commandLine@@AAE?AVQString@@V2@@Z$12 00411734 f   commandLine.obj
 0001:0001073d       __ehhandler$?replaceVariables@commandLine@@AAE?AVQString@@V2@@Z 0041173d f   commandLine.obj
 0001:00010760       __unwindfunclet$?saveSetting@commandLine@@QAE?AVQString@@XZ$0 00411760 f   commandLine.obj
 0001:0001077a       __unwindfunclet$?saveSetting@commandLine@@QAE?AVQString@@XZ$1 0041177a f   commandLine.obj
 0001:00010783       __ehhandler$?saveSetting@commandLine@@QAE?AVQString@@XZ 00411783 f   commandLine.obj
 0001:000107a0       __unwindfunclet$?sendCommand@commandLine@@QAEXXZ$0 004117a0 f   commandLine.obj
 0001:000107a9       __unwindfunclet$?sendCommand@commandLine@@QAEXXZ$1 004117a9 f   commandLine.obj
 0001:000107b2       __unwindfunclet$?sendCommand@commandLine@@QAEXXZ$3 004117b2 f   commandLine.obj
 0001:000107bb       __unwindfunclet$?sendCommand@commandLine@@QAEXXZ$6 004117bb f   commandLine.obj
 0001:000107c4       __unwindfunclet$?sendCommand@commandLine@@QAEXXZ$7 004117c4 f   commandLine.obj
 0001:000107cf       __unwindfunclet$?sendCommand@commandLine@@QAEXXZ$8 004117cf f   commandLine.obj
 0001:000107d8       __unwindfunclet$?sendCommand@commandLine@@QAEXXZ$9 004117d8 f   commandLine.obj
 0001:000107e0       __unwindfunclet$?sendCommand@commandLine@@QAEXXZ$10 004117e0 f   commandLine.obj
 0001:000107e8       __unwindfunclet$?sendCommand@commandLine@@QAEXXZ$11 004117e8 f   commandLine.obj
 0001:000107f0       __unwindfunclet$?sendCommand@commandLine@@QAEXXZ$12 004117f0 f   commandLine.obj
 0001:000107f8       __unwindfunclet$?sendCommand@commandLine@@QAEXXZ$13 004117f8 f   commandLine.obj
 0001:00010801       __unwindfunclet$?sendCommand@commandLine@@QAEXXZ$14 00411801 f   commandLine.obj
 0001:0001080a       __unwindfunclet$?sendCommand@commandLine@@QAEXXZ$15 0041180a f   commandLine.obj
 0001:00010813       __unwindfunclet$?sendCommand@commandLine@@QAEXXZ$16 00411813 f   commandLine.obj
 0001:0001081c       __unwindfunclet$?sendCommand@commandLine@@QAEXXZ$17 0041181c f   commandLine.obj
 0001:00010825       __unwindfunclet$?sendCommand@commandLine@@QAEXXZ$18 00411825 f   commandLine.obj
 0001:0001082e       __unwindfunclet$?sendCommand@commandLine@@QAEXXZ$20 0041182e f   commandLine.obj
 0001:00010837       __unwindfunclet$?sendCommand@commandLine@@QAEXXZ$19 00411837 f   commandLine.obj
 0001:0001083f       __ehhandler$?sendCommand@commandLine@@QAEXXZ 0041183f f   commandLine.obj
 0001:00010870       __unwindfunclet$?setMathsVariable@commandLine@@AAEXVQString@@H@Z$0 00411870 f   commandLine.obj
 0001:00010879       __unwindfunclet$?setMathsVariable@commandLine@@AAEXVQString@@H@Z$1 00411879 f   commandLine.obj
 0001:00010882       __unwindfunclet$?setMathsVariable@commandLine@@AAEXVQString@@H@Z$2 00411882 f   commandLine.obj
 0001:0001088b       __unwindfunclet$?setMathsVariable@commandLine@@AAEXVQString@@H@Z$3 0041188b f   commandLine.obj
 0001:00010894       __ehhandler$?setMathsVariable@commandLine@@AAEXVQString@@H@Z 00411894 f   commandLine.obj
 0001:000108b0       __unwindfunclet$?setString@commandLine@@AAEXVQString@@@Z$0 004118b0 f   commandLine.obj
 0001:000108b9       __unwindfunclet$?setString@commandLine@@AAEXVQString@@@Z$1 004118b9 f   commandLine.obj
 0001:000108c2       __unwindfunclet$?setString@commandLine@@AAEXVQString@@@Z$2 004118c2 f   commandLine.obj
 0001:000108cb       __unwindfunclet$?setString@commandLine@@AAEXVQString@@@Z$3 004118cb f   commandLine.obj
 0001:000108d4       __unwindfunclet$?setString@commandLine@@AAEXVQString@@@Z$4 004118d4 f   commandLine.obj
 0001:000108dd       __unwindfunclet$?setString@commandLine@@AAEXVQString@@@Z$5 004118dd f   commandLine.obj
 0001:000108e6       __unwindfunclet$?setString@commandLine@@AAEXVQString@@@Z$6 004118e6 f   commandLine.obj
 0001:000108ef       __unwindfunclet$?setString@commandLine@@AAEXVQString@@@Z$7 004118ef f   commandLine.obj
 0001:00010909       __unwindfunclet$?setString@commandLine@@AAEXVQString@@@Z$8 00411909 f   commandLine.obj
 0001:00010923       __unwindfunclet$?setString@commandLine@@AAEXVQString@@@Z$11 00411923 f   commandLine.obj
 0001:0001092c       __unwindfunclet$?setString@commandLine@@AAEXVQString@@@Z$12 0041192c f   commandLine.obj
 0001:00010935       __unwindfunclet$?setString@commandLine@@AAEXVQString@@@Z$13 00411935 f   commandLine.obj
 0001:0001093e       __unwindfunclet$?setString@commandLine@@AAEXVQString@@@Z$14 0041193e f   commandLine.obj
 0001:00010958       __unwindfunclet$?setString@commandLine@@AAEXVQString@@@Z$15 00411958 f   commandLine.obj
 0001:00010972       __unwindfunclet$?setString@commandLine@@AAEXVQString@@@Z$17 00411972 f   commandLine.obj
 0001:0001097b       __unwindfunclet$?setString@commandLine@@AAEXVQString@@@Z$19 0041197b f   commandLine.obj
 0001:00010984       __ehhandler$?setString@commandLine@@AAEXVQString@@@Z 00411984 f   commandLine.obj
 0001:000109a0       __unwindfunclet$?setStringVariable@commandLine@@AAEXVQString@@0@Z$0 004119a0 f   commandLine.obj
 0001:000109a9       __unwindfunclet$?setStringVariable@commandLine@@AAEXVQString@@0@Z$1 004119a9 f   commandLine.obj
 0001:000109b2       __unwindfunclet$?setStringVariable@commandLine@@AAEXVQString@@0@Z$2 004119b2 f   commandLine.obj
 0001:000109bb       __unwindfunclet$?setStringVariable@commandLine@@AAEXVQString@@0@Z$3 004119bb f   commandLine.obj
 0001:000109c4       __unwindfunclet$?setStringVariable@commandLine@@AAEXVQString@@0@Z$4 004119c4 f   commandLine.obj
 0001:000109cd       __ehhandler$?setStringVariable@commandLine@@AAEXVQString@@0@Z 004119cd f   commandLine.obj
 0001:000109f0       __unwindfunclet$?setWhatsThis@commandLine@@AAEXXZ$0 004119f0 f   commandLine.obj
 0001:000109f9       __unwindfunclet$?setWhatsThis@commandLine@@AAEXXZ$1 004119f9 f   commandLine.obj
 0001:00010a02       __unwindfunclet$?setWhatsThis@commandLine@@AAEXXZ$2 00411a02 f   commandLine.obj
 0001:00010a0b       __ehhandler$?setWhatsThis@commandLine@@AAEXXZ 00411a0b f   commandLine.obj
 0001:00010a30       __unwindfunclet$_main$0    00411a30 f   main.obj
 0001:00010a39       __unwindfunclet$_main$1    00411a39 f   main.obj
 0001:00010a42       __unwindfunclet$_main$2    00411a42 f   main.obj
 0001:00010a4b       __unwindfunclet$_main$3    00411a4b f   main.obj
 0001:00010a54       __unwindfunclet$_main$4    00411a54 f   main.obj
 0001:00010a5d       __unwindfunclet$_main$5    00411a5d f   main.obj
 0001:00010a68       __ehhandler$_main          00411a68 f   main.obj
 0001:00010a90       __unwindfunclet$??0revertiveImpl@@QAE@PAVccClient@@PAVQWidget@@PBDI@Z$0 00411a90 f   revertiveImpl.obj
 0001:00010a98       __unwindfunclet$??0revertiveImpl@@QAE@PAVccClient@@PAVQWidget@@PBDI@Z$1 00411a98 f   revertiveImpl.obj
 0001:00010aa7       __ehhandler$??0revertiveImpl@@QAE@PAVccClient@@PAVQWidget@@PBDI@Z 00411aa7 f   revertiveImpl.obj
 0001:00010ad0       __unwindfunclet$??_GrevertiveImpl@@UAEPAXI@Z$0 00411ad0 f   revertiveImpl.obj
 0001:00010ad8       __ehhandler$??_GrevertiveImpl@@UAEPAXI@Z 00411ad8 f   revertiveImpl.obj
 0001:00010b00       __unwindfunclet$?addRegistration@revertiveImpl@@QAEXABH00@Z$0 00411b00 f   revertiveImpl.obj
 0001:00010b09       __ehhandler$?addRegistration@revertiveImpl@@QAEXABH00@Z 00411b09 f   revertiveImpl.obj
 0001:00010b30       __unwindfunclet$?cccDeviceMessage@revertiveImpl@@QAEXHHABV?$basic_string@DU?$char_traits@D@std@@V?$allocator@D@2@@std@@H@Z$0 00411b30 f   revertiveImpl.obj
 0001:00010b39       __unwindfunclet$?cccDeviceMessage@revertiveImpl@@QAEXHHABV?$basic_string@DU?$char_traits@D@std@@V?$allocator@D@2@@std@@H@Z$1 00411b39 f   revertiveImpl.obj
 0001:00010b42       __unwindfunclet$?cccDeviceMessage@revertiveImpl@@QAEXHHABV?$basic_string@DU?$char_traits@D@std@@V?$allocator@D@2@@std@@H@Z$2 00411b42 f   revertiveImpl.obj
 0001:00010b4b       __unwindfunclet$?cccDeviceMessage@revertiveImpl@@QAEXHHABV?$basic_string@DU?$char_traits@D@std@@V?$allocator@D@2@@std@@H@Z$3 00411b4b f   revertiveImpl.obj
 0001:00010b54       __unwindfunclet$?cccDeviceMessage@revertiveImpl@@QAEXHHABV?$basic_string@DU?$char_traits@D@std@@V?$allocator@D@2@@std@@H@Z$4 00411b54 f   revertiveImpl.obj
 0001:00010b5d       __unwindfunclet$?cccDeviceMessage@revertiveImpl@@QAEXHHABV?$basic_string@DU?$char_traits@D@std@@V?$allocator@D@2@@std@@H@Z$5 00411b5d f   revertiveImpl.obj
 0001:00010b66       __ehhandler$?cccDeviceMessage@revertiveImpl@@QAEXHHABV?$basic_string@DU?$char_traits@D@std@@V?$allocator@D@2@@std@@H@Z 00411b66 f   revertiveImpl.obj
 0001:00010b90       __unwindfunclet$?cccInfoRevertive@revertiveImpl@@QAEXHHABV?$basic_string@DU?$char_traits@D@std@@V?$allocator@D@2@@std@@@Z$0 00411b90 f   revertiveImpl.obj
 0001:00010b99       __unwindfunclet$?cccInfoRevertive@revertiveImpl@@QAEXHHABV?$basic_string@DU?$char_traits@D@std@@V?$allocator@D@2@@std@@@Z$1 00411b99 f   revertiveImpl.obj
 0001:00010ba2       __unwindfunclet$?cccInfoRevertive@revertiveImpl@@QAEXHHABV?$basic_string@DU?$char_traits@D@std@@V?$allocator@D@2@@std@@@Z$2 00411ba2 f   revertiveImpl.obj
 0001:00010bab       __unwindfunclet$?cccInfoRevertive@revertiveImpl@@QAEXHHABV?$basic_string@DU?$char_traits@D@std@@V?$allocator@D@2@@std@@@Z$3 00411bab f   revertiveImpl.obj
 0001:00010bb4       __unwindfunclet$?cccInfoRevertive@revertiveImpl@@QAEXHHABV?$basic_string@DU?$char_traits@D@std@@V?$allocator@D@2@@std@@@Z$4 00411bb4 f   revertiveImpl.obj
 0001:00010bbd       __ehhandler$?cccInfoRevertive@revertiveImpl@@QAEXHHABV?$basic_string@DU?$char_traits@D@std@@V?$allocator@D@2@@std@@@Z 00411bbd f   revertiveImpl.obj
 0001:00010be0       __unwindfunclet$?cccDatabaseChange@revertiveImpl@@QAEXHHH@Z$0 00411be0 f   revertiveImpl.obj
 0001:00010be0       __unwindfunclet$?cccRtrRevertive@revertiveImpl@@QAEXHHH@Z$0 00411be0 f   revertiveImpl.obj
 0001:00010be0       __unwindfunclet$?cccGpiRevertive@revertiveImpl@@QAEXHH_N@Z$0 00411be0 f   revertiveImpl.obj
 0001:00010be9       __unwindfunclet$?cccRtrRevertive@revertiveImpl@@QAEXHHH@Z$1 00411be9 f   revertiveImpl.obj
 0001:00010be9       __unwindfunclet$?cccGpiRevertive@revertiveImpl@@QAEXHH_N@Z$1 00411be9 f   revertiveImpl.obj
 0001:00010be9       __unwindfunclet$?cccDatabaseChange@revertiveImpl@@QAEXHHH@Z$1 00411be9 f   revertiveImpl.obj
 0001:00010bf2       __unwindfunclet$?cccRtrRevertive@revertiveImpl@@QAEXHHH@Z$2 00411bf2 f   revertiveImpl.obj
 0001:00010bf2       __unwindfunclet$?cccGpiRevertive@revertiveImpl@@QAEXHH_N@Z$2 00411bf2 f   revertiveImpl.obj
 0001:00010bf2       __unwindfunclet$?cccDatabaseChange@revertiveImpl@@QAEXHHH@Z$2 00411bf2 f   revertiveImpl.obj
 0001:00010bfb       __unwindfunclet$?cccRtrRevertive@revertiveImpl@@QAEXHHH@Z$3 00411bfb f   revertiveImpl.obj
 0001:00010bfb       __unwindfunclet$?cccGpiRevertive@revertiveImpl@@QAEXHH_N@Z$3 00411bfb f   revertiveImpl.obj
 0001:00010bfb       __unwindfunclet$?cccDatabaseChange@revertiveImpl@@QAEXHHH@Z$3 00411bfb f   revertiveImpl.obj
 0001:00010c04       __ehhandler$?cccGpiRevertive@revertiveImpl@@QAEXHH_N@Z 00411c04 f   revertiveImpl.obj
 0001:00010c04       __ehhandler$?cccDatabaseChange@revertiveImpl@@QAEXHHH@Z 00411c04 f   revertiveImpl.obj
 0001:00010c04       __ehhandler$?cccRtrRevertive@revertiveImpl@@QAEXHHH@Z 00411c04 f   revertiveImpl.obj
 0001:00010c20       __unwindfunclet$?loadSettings@revertiveImpl@@QAEXVQStringList@@@Z$0 00411c20 f   revertiveImpl.obj
 0001:00010c29       __unwindfunclet$?loadSettings@revertiveImpl@@QAEXVQStringList@@@Z$1 00411c29 f   revertiveImpl.obj
 0001:00010c32       __unwindfunclet$?loadSettings@revertiveImpl@@QAEXVQStringList@@@Z$2 00411c32 f   revertiveImpl.obj
 0001:00010c3b       __unwindfunclet$?loadSettings@revertiveImpl@@QAEXVQStringList@@@Z$3 00411c3b f   revertiveImpl.obj
 0001:00010c44       __unwindfunclet$?loadSettings@revertiveImpl@@QAEXVQStringList@@@Z$4 00411c44 f   revertiveImpl.obj
 0001:00010c4d       __unwindfunclet$?loadSettings@revertiveImpl@@QAEXVQStringList@@@Z$5 00411c4d f   revertiveImpl.obj
 0001:00010c56       __unwindfunclet$?loadSettings@revertiveImpl@@QAEXVQStringList@@@Z$6 00411c56 f   revertiveImpl.obj
 0001:00010c5f       __ehhandler$?loadSettings@revertiveImpl@@QAEXVQStringList@@@Z 00411c5f f   revertiveImpl.obj
 0001:00010c80       __unwindfunclet$?logRevertiveToDisplay@revertiveImpl@@QAEXABVQString@@@Z$0 00411c80 f   revertiveImpl.obj
 0001:00010c89       __unwindfunclet$?logRevertiveToDisplay@revertiveImpl@@QAEXABVQString@@@Z$1 00411c89 f   revertiveImpl.obj
 0001:00010c92       __unwindfunclet$?logRevertiveToDisplay@revertiveImpl@@QAEXABVQString@@@Z$2 00411c92 f   revertiveImpl.obj
 0001:00010c9b       __unwindfunclet$?logRevertiveToDisplay@revertiveImpl@@QAEXABVQString@@@Z$3 00411c9b f   revertiveImpl.obj
 0001:00010ca4       __ehhandler$?logRevertiveToDisplay@revertiveImpl@@QAEXABVQString@@@Z 00411ca4 f   revertiveImpl.obj
 0001:00010cc0       __unwindfunclet$?save@revertiveImpl@@QAE?AVQStringList@@XZ$0 00411cc0 f   revertiveImpl.obj
 0001:00010cda       __unwindfunclet$?save@revertiveImpl@@QAE?AVQStringList@@XZ$1 00411cda f   revertiveImpl.obj
 0001:00010ce3       __unwindfunclet$?save@revertiveImpl@@QAE?AVQStringList@@XZ$2 00411ce3 f   revertiveImpl.obj
 0001:00010cec       __ehhandler$?save@revertiveImpl@@QAE?AVQStringList@@XZ 00411cec f   revertiveImpl.obj
 0001:00010d10       __unwindfunclet$?qt_emit@command@@UAE_NHPAUQUObject@@@Z$0 00411d10 f   moc_commandimpl.obj
 0001:00010d19       __ehhandler$?qt_emit@command@@UAE_NHPAUQUObject@@@Z 00411d19 f   moc_commandimpl.obj
 0001:00010d40       __unwindfunclet$?qt_invoke@revertiveImpl@@UAE_NHPAUQUObject@@@Z$1 00411d40 f   moc_commandimpl.obj
 0001:00010d40       __unwindfunclet$?qt_invoke@command@@UAE_NHPAUQUObject@@@Z$1 00411d40 f   moc_commandimpl.obj
 0001:00010d49       __unwindfunclet$?qt_invoke@command@@UAE_NHPAUQUObject@@@Z$2 00411d49 f   moc_commandimpl.obj
 0001:00010d49       __unwindfunclet$?qt_invoke@revertiveImpl@@UAE_NHPAUQUObject@@@Z$2 00411d49 f   moc_commandimpl.obj
 0001:00010d52       __ehhandler$?qt_invoke@command@@UAE_NHPAUQUObject@@@Z 00411d52 f   moc_commandimpl.obj
 0001:00010d52       __ehhandler$?qt_invoke@revertiveImpl@@UAE_NHPAUQUObject@@@Z 00411d52 f   moc_commandimpl.obj
 0001:00010d70       __unwindfunclet$?log@commandLine@@IAEXABVQString@@@Z$0 00411d70 f   moc_commandLine.obj
 0001:00010d79       __ehhandler$?log@commandLine@@IAEXABVQString@@@Z 00411d79 f   moc_commandLine.obj
 0001:00010da0       __unwindfunclet$?qt_invoke@commandLine@@UAE_NHPAUQUObject@@@Z$1 00411da0 f   moc_commandLine.obj
 0001:00010da9       __ehhandler$?qt_invoke@commandLine@@UAE_NHPAUQUObject@@@Z 00411da9 f   moc_commandLine.obj
 0001:00010dd0       __unwindfunclet$?sig_commandLineRegisterFor@commandLine@@IAEXABH00@Z$0 00411dd0 f   moc_commandLine.obj
 0001:00010dd0       __unwindfunclet$?sig_commandRegisterFor@command@@IAEXABH00@Z$0 00411dd0 f   moc_commandLine.obj
 0001:00010de4       __ehhandler$?sig_commandLineRegisterFor@commandLine@@IAEXABH00@Z 00411de4 f   moc_commandLine.obj
 0001:00010de4       __ehhandler$?sig_commandRegisterFor@command@@IAEXABH00@Z 00411de4 f   moc_commandLine.obj
 0001:00010e10       __unwindfunclet$??0revertiveDisplay@@QAE@PAVQWidget@@PBDI@Z$0 00411e10 f   revertiveDisplay.obj
 0001:00010e19       __unwindfunclet$??0revertiveDisplay@@QAE@PAVQWidget@@PBDI@Z$1 00411e19 f   revertiveDisplay.obj
 0001:00010e24       __unwindfunclet$??0revertiveDisplay@@QAE@PAVQWidget@@PBDI@Z$2 00411e24 f   revertiveDisplay.obj
 0001:00010e2f       __unwindfunclet$??0revertiveDisplay@@QAE@PAVQWidget@@PBDI@Z$3 00411e2f f   revertiveDisplay.obj
 0001:00010e3a       __unwindfunclet$??0revertiveDisplay@@QAE@PAVQWidget@@PBDI@Z$4 00411e3a f   revertiveDisplay.obj
 0001:00010e45       __unwindfunclet$??0revertiveDisplay@@QAE@PAVQWidget@@PBDI@Z$5 00411e45 f   revertiveDisplay.obj
 0001:00010e50       __unwindfunclet$??0revertiveDisplay@@QAE@PAVQWidget@@PBDI@Z$6 00411e50 f   revertiveDisplay.obj
 0001:00010e5b       __unwindfunclet$??0revertiveDisplay@@QAE@PAVQWidget@@PBDI@Z$7 00411e5b f   revertiveDisplay.obj
 0001:00010e66       __unwindfunclet$??0revertiveDisplay@@QAE@PAVQWidget@@PBDI@Z$8 00411e66 f   revertiveDisplay.obj
 0001:00010e71       __unwindfunclet$??0revertiveDisplay@@QAE@PAVQWidget@@PBDI@Z$9 00411e71 f   revertiveDisplay.obj
 0001:00010e7c       __unwindfunclet$??0revertiveDisplay@@QAE@PAVQWidget@@PBDI@Z$10 00411e7c f   revertiveDisplay.obj
 0001:00010e87       __unwindfunclet$??0revertiveDisplay@@QAE@PAVQWidget@@PBDI@Z$11 00411e87 f   revertiveDisplay.obj
 0001:00010e92       __unwindfunclet$??0revertiveDisplay@@QAE@PAVQWidget@@PBDI@Z$12 00411e92 f   revertiveDisplay.obj
 0001:00010e9d       __unwindfunclet$??0revertiveDisplay@@QAE@PAVQWidget@@PBDI@Z$13 00411e9d f   revertiveDisplay.obj
 0001:00010ea8       __unwindfunclet$??0revertiveDisplay@@QAE@PAVQWidget@@PBDI@Z$15 00411ea8 f   revertiveDisplay.obj
 0001:00010eb3       __unwindfunclet$??0revertiveDisplay@@QAE@PAVQWidget@@PBDI@Z$16 00411eb3 f   revertiveDisplay.obj
 0001:00010ebe       __unwindfunclet$??0revertiveDisplay@@QAE@PAVQWidget@@PBDI@Z$17 00411ebe f   revertiveDisplay.obj
 0001:00010ec9       __unwindfunclet$??0revertiveDisplay@@QAE@PAVQWidget@@PBDI@Z$18 00411ec9 f   revertiveDisplay.obj
 0001:00010ed4       __unwindfunclet$??0revertiveDisplay@@QAE@PAVQWidget@@PBDI@Z$19 00411ed4 f   revertiveDisplay.obj
 0001:00010edf       __unwindfunclet$??0revertiveDisplay@@QAE@PAVQWidget@@PBDI@Z$20 00411edf f   revertiveDisplay.obj
 0001:00010eea       __unwindfunclet$??0revertiveDisplay@@QAE@PAVQWidget@@PBDI@Z$21 00411eea f   revertiveDisplay.obj
 0001:00010ef5       __unwindfunclet$??0revertiveDisplay@@QAE@PAVQWidget@@PBDI@Z$22 00411ef5 f   revertiveDisplay.obj
 0001:00010f00       __unwindfunclet$??0revertiveDisplay@@QAE@PAVQWidget@@PBDI@Z$23 00411f00 f   revertiveDisplay.obj
 0001:00010f0b       __unwindfunclet$??0revertiveDisplay@@QAE@PAVQWidget@@PBDI@Z$25 00411f0b f   revertiveDisplay.obj
 0001:00010f16       __ehhandler$??0revertiveDisplay@@QAE@PAVQWidget@@PBDI@Z 00411f16 f   revertiveDisplay.obj
 0001:00010f40       __unwindfunclet$?languageChange@revertiveDisplay@@MAEXXZ$0 00411f40 f   revertiveDisplay.obj
 0001:00010f49       __unwindfunclet$?languageChange@revertiveDisplay@@MAEXXZ$1 00411f49 f   revertiveDisplay.obj
 0001:00010f52       __unwindfunclet$?languageChange@revertiveDisplay@@MAEXXZ$2 00411f52 f   revertiveDisplay.obj
 0001:00010f5b       __unwindfunclet$?languageChange@revertiveDisplay@@MAEXXZ$3 00411f5b f   revertiveDisplay.obj
 0001:00010f64       __unwindfunclet$?languageChange@revertiveDisplay@@MAEXXZ$4 00411f64 f   revertiveDisplay.obj
 0001:00010f6d       __unwindfunclet$?languageChange@revertiveDisplay@@MAEXXZ$5 00411f6d f   revertiveDisplay.obj
 0001:00010f76       __unwindfunclet$?languageChange@revertiveDisplay@@MAEXXZ$6 00411f76 f   revertiveDisplay.obj
 0001:00010f7f       __unwindfunclet$?languageChange@revertiveDisplay@@MAEXXZ$7 00411f7f f   revertiveDisplay.obj
 0001:00010f88       __unwindfunclet$?languageChange@revertiveDisplay@@MAEXXZ$8 00411f88 f   revertiveDisplay.obj
 0001:00010f91       __unwindfunclet$?languageChange@revertiveDisplay@@MAEXXZ$9 00411f91 f   revertiveDisplay.obj
 0001:00010f9a       __unwindfunclet$?languageChange@revertiveDisplay@@MAEXXZ$10 00411f9a f   revertiveDisplay.obj
 0001:00010fa3       __ehhandler$?languageChange@revertiveDisplay@@MAEXXZ 00411fa3 f   revertiveDisplay.obj
 0001:00010fc0       __unwindfunclet$??0ccClient@@QAE@PAVIccClientCallback@@ABV?$basic_string@DU?$char_traits@D@std@@V?$allocator@D@2@@std@@@Z$0 00411fc0 f   ccLibrary_vs2013:ccClient.obj
 0001:00010fcb       __unwindfunclet$??0ccClient@@QAE@PAVIccClientCallback@@ABV?$basic_string@DU?$char_traits@D@std@@V?$allocator@D@2@@std@@@Z$1 00411fcb f   ccLibrary_vs2013:ccClient.obj
 0001:00010fd9       __ehhandler$??0ccClient@@QAE@PAVIccClientCallback@@ABV?$basic_string@DU?$char_traits@D@std@@V?$allocator@D@2@@std@@@Z 00411fd9 f   ccLibrary_vs2013:ccClient.obj
 0001:00011010       __unwindfunclet$?WndProc@ccClient@@CGJPAUHWND__@@IIJ@Z$5 00412010 f   ccLibrary_vs2013:ccClient.obj
 0001:00011018       __unwindfunclet$?WndProc@ccClient@@CGJPAUHWND__@@IIJ@Z$6 00412018 f   ccLibrary_vs2013:ccClient.obj
 0001:00011023       __unwindfunclet$?WndProc@ccClient@@CGJPAUHWND__@@IIJ@Z$1 00412023 f   ccLibrary_vs2013:ccClient.obj
 0001:0001102b       __unwindfunclet$?WndProc@ccClient@@CGJPAUHWND__@@IIJ@Z$2 0041202b f   ccLibrary_vs2013:ccClient.obj
 0001:00011036       __unwindfunclet$?WndProc@ccClient@@CGJPAUHWND__@@IIJ@Z$3 00412036 f   ccLibrary_vs2013:ccClient.obj
 0001:0001103e       __unwindfunclet$?WndProc@ccClient@@CGJPAUHWND__@@IIJ@Z$4 0041203e f   ccLibrary_vs2013:ccClient.obj
 0001:00011046       __unwindfunclet$?WndProc@ccClient@@CGJPAUHWND__@@IIJ@Z$7 00412046 f   ccLibrary_vs2013:ccClient.obj
 0001:0001104e       __unwindfunclet$?WndProc@ccClient@@CGJPAUHWND__@@IIJ@Z$0 0041204e f   ccLibrary_vs2013:ccClient.obj
 0001:00011059       __ehhandler$?WndProc@ccClient@@CGJPAUHWND__@@IIJ@Z 00412059 f   ccLibrary_vs2013:ccClient.obj
 0001:00011090       __unwindfunclet$?deviceQuery@ccClient@@AAEXDHHH_N@Z$0 00412090 f   ccLibrary_vs2013:ccClient.obj
 0001:00011090       __unwindfunclet$?deviceLock@ccClient@@AAEXDHHH_N0H@Z$0 00412090 f   ccLibrary_vs2013:ccClient.obj
 0001:00011090       __unwindfunclet$?devicePoll@ccClient@@AAEXDHHH_N@Z$0 00412090 f   ccLibrary_vs2013:ccClient.obj
 0001:0001109b       __ehhandler$?deviceQuery@ccClient@@AAEXDHHH_N@Z 0041209b f   ccLibrary_vs2013:ccClient.obj
 0001:0001109b       __ehhandler$?devicePoll@ccClient@@AAEXDHHH_N@Z 0041209b f   ccLibrary_vs2013:ccClient.obj
 0001:0001109b       __ehhandler$?deviceLock@ccClient@@AAEXDHHH_N0H@Z 0041209b f   ccLibrary_vs2013:ccClient.obj
 0001:000110d0       __unwindfunclet$?push_back@?$deque@V?$basic_string@DU?$char_traits@D@std@@V?$allocator@D@2@@std@@V?$allocator@V?$basic_string@DU?$char_traits@D@std@@V?$allocator@D@2@@std@@@2@@std@@QAEXABV?$basic_string@DU?$char_traits@D@std@@V?$allocator@D@2@@2@@Z$0 004120d0 f   ccLibrary_vs2013:ccClient.obj
 0001:000110e1       __ehhandler$?push_back@?$deque@V?$basic_string@DU?$char_traits@D@std@@V?$allocator@D@2@@std@@V?$allocator@V?$basic_string@DU?$char_traits@D@std@@V?$allocator@D@2@@std@@@2@@std@@QAEXABV?$basic_string@DU?$char_traits@D@std@@V?$allocator@D@2@@2@@Z 004120e1 f   ccLibrary_vs2013:ccClient.obj
 0001:00011100       __unwindfunclet$??$?HDU?$char_traits@D@std@@V?$allocator@D@1@@std@@YA?AV?$basic_string@DU?$char_traits@D@std@@V?$allocator@D@2@@0@PBDABV10@@Z$0 00412100 f   ccLibrary_vs2013:ccCheck.obj
 0001:00011100       __unwindfunclet$??$?HDU?$char_traits@D@std@@V?$allocator@D@1@@std@@YA?AV?$basic_string@DU?$char_traits@D@std@@V?$allocator@D@2@@0@ABV10@PBD@Z$0 00412100 f   ccLibrary_vs2013:ccCheck.obj
 0001:00011119       __ehhandler$??$?HDU?$char_traits@D@std@@V?$allocator@D@1@@std@@YA?AV?$basic_string@DU?$char_traits@D@std@@V?$allocator@D@2@@0@PBDABV10@@Z 00412119 f   ccLibrary_vs2013:ccCheck.obj
 0001:00011119       __ehhandler$??$?HDU?$char_traits@D@std@@V?$allocator@D@1@@std@@YA?AV?$basic_string@DU?$char_traits@D@std@@V?$allocator@D@2@@0@ABV10@PBD@Z 00412119 f   ccLibrary_vs2013:ccCheck.obj
 0001:00011140       __unwindfunclet$?checkDatabase@ccCheck@@QAE_NII@Z$1 00412140 f   ccLibrary_vs2013:ccCheck.obj
 0001:00011148       __ehhandler$?checkDatabase@ccCheck@@QAE_NII@Z 00412148 f   ccLibrary_vs2013:ccCheck.obj
 0001:00011170       __unwindfunclet$?checkIndexRange@ccCheck@@QAE_NII@Z$0 00412170 f   ccLibrary_vs2013:ccCheck.obj
 0001:00011178       __ehhandler$?checkIndexRange@ccCheck@@QAE_NII@Z 00412178 f   ccLibrary_vs2013:ccCheck.obj
 0001:000111a0       __unwindfunclet$?checkSource@ccCheck@@QAE_NH@Z$0 004121a0 f   ccLibrary_vs2013:ccCheck.obj
 0001:000111a0       __unwindfunclet$?checkDevice@ccCheck@@QAE_NI@Z$0 004121a0 f   ccLibrary_vs2013:ccCheck.obj
 0001:000111a0       __unwindfunclet$?checkIndex@ccCheck@@QAE_NI@Z$0 004121a0 f   ccLibrary_vs2013:ccCheck.obj
 0001:000111a8       __unwindfunclet$?checkSource@ccCheck@@QAE_NH@Z$1 004121a8 f   ccLibrary_vs2013:ccCheck.obj
 0001:000111a8       __unwindfunclet$?checkIndex@ccCheck@@QAE_NI@Z$1 004121a8 f   ccLibrary_vs2013:ccCheck.obj
 0001:000111a8       __unwindfunclet$?checkDevice@ccCheck@@QAE_NI@Z$1 004121a8 f   ccLibrary_vs2013:ccCheck.obj
 0001:000111b0       __ehhandler$?checkDevice@ccCheck@@QAE_NI@Z 004121b0 f   ccLibrary_vs2013:ccCheck.obj
 0001:000111b0       __ehhandler$?checkIndex@ccCheck@@QAE_NI@Z 004121b0 f   ccLibrary_vs2013:ccCheck.obj
 0001:000111b0       __ehhandler$?checkSource@ccCheck@@QAE_NH@Z 004121b0 f   ccLibrary_vs2013:ccCheck.obj
 0001:000111e0       __unwindfunclet$?checkString@ccCheck@@QAE_NABV?$basic_string@DU?$char_traits@D@std@@V?$allocator@D@2@@std@@@Z$0 004121e0 f   ccLibrary_vs2013:ccCheck.obj
 0001:000111e8       __ehhandler$?checkString@ccCheck@@QAE_NABV?$basic_string@DU?$char_traits@D@std@@V?$allocator@D@2@@std@@@Z 004121e8 f   ccLibrary_vs2013:ccCheck.obj
 0001:00011210       __unwindfunclet$?checkWorkstation@ccCheck@@QAE_NI@Z$0 00412210 f   ccLibrary_vs2013:ccCheck.obj
 0001:00011218       __unwindfunclet$?checkWorkstation@ccCheck@@QAE_NI@Z$1 00412218 f   ccLibrary_vs2013:ccCheck.obj
 0001:00011220       __ehhandler$?checkWorkstation@ccCheck@@QAE_NI@Z 00412220 f   ccLibrary_vs2013:ccCheck.obj
 0001:00011250       __unwindfunclet$?log@ccCheck@@QAEXABV?$basic_string@DU?$char_traits@D@std@@V?$allocator@D@2@@std@@@Z$0 00412250 f   ccLibrary_vs2013:ccCheck.obj
 0001:00011258       __unwindfunclet$?log@ccCheck@@QAEXABV?$basic_string@DU?$char_traits@D@std@@V?$allocator@D@2@@std@@@Z$1 00412258 f   ccLibrary_vs2013:ccCheck.obj
 0001:00011260       __ehhandler$?log@ccCheck@@QAEXABV?$basic_string@DU?$char_traits@D@std@@V?$allocator@D@2@@std@@@Z 00412260 f   ccLibrary_vs2013:ccCheck.obj
 0001:00011290       __unwindfunclet$?getDevPath@ccConfig@@SA?AV?$basic_string@DU?$char_traits@D@std@@V?$allocator@D@2@@std@@XZ$0 00412290 f   ccLibrary_vs2013:ccConfig.obj
 0001:0001129b       __unwindfunclet$?getDevPath@ccConfig@@SA?AV?$basic_string@DU?$char_traits@D@std@@V?$allocator@D@2@@std@@XZ$1 0041229b f   ccLibrary_vs2013:ccConfig.obj
 0001:000112a6       __unwindfunclet$?getDevPath@ccConfig@@SA?AV?$basic_string@DU?$char_traits@D@std@@V?$allocator@D@2@@std@@XZ$2 004122a6 f   ccLibrary_vs2013:ccConfig.obj
 0001:000112b1       __ehhandler$?getDevPath@ccConfig@@SA?AV?$basic_string@DU?$char_traits@D@std@@V?$allocator@D@2@@std@@XZ 004122b1 f   ccLibrary_vs2013:ccConfig.obj
 0001:000112e0       __unwindfunclet$?getInt@ccConfig@@SAHABV?$basic_string@DU?$char_traits@D@std@@V?$allocator@D@2@@std@@00H_N@Z$0 004122e0 f   ccLibrary_vs2013:ccConfig.obj
 0001:000112e8       __unwindfunclet$?getInt@ccConfig@@SAHABV?$basic_string@DU?$char_traits@D@std@@V?$allocator@D@2@@std@@00H_N@Z$1 004122e8 f   ccLibrary_vs2013:ccConfig.obj
 0001:000112f3       __ehhandler$?getInt@ccConfig@@SAHABV?$basic_string@DU?$char_traits@D@std@@V?$allocator@D@2@@std@@00H_N@Z 004122f3 f   ccLibrary_vs2013:ccConfig.obj
 0001:00011320       __unwindfunclet$?workstation@ccConfig@@SAHXZ$0 00412320 f   ccLibrary_vs2013:ccConfig.obj
 0001:00011328       __unwindfunclet$?workstation@ccConfig@@SAHXZ$1 00412328 f   ccLibrary_vs2013:ccConfig.obj
 0001:00011330       __unwindfunclet$?workstation@ccConfig@@SAHXZ$2 00412330 f   ccLibrary_vs2013:ccConfig.obj
 0001:00011338       __unwindfunclet$?workstation@ccConfig@@SAHXZ$3 00412338 f   ccLibrary_vs2013:ccConfig.obj
 0001:00011340       __unwindfunclet$?workstation@ccConfig@@SAHXZ$4 00412340 f   ccLibrary_vs2013:ccConfig.obj
 0001:00011348       __unwindfunclet$?workstation@ccConfig@@SAHXZ$5 00412348 f   ccLibrary_vs2013:ccConfig.obj
 0001:00011350       __unwindfunclet$?workstation@ccConfig@@SAHXZ$6 00412350 f   ccLibrary_vs2013:ccConfig.obj
 0001:0001135b       __unwindfunclet$?workstation@ccConfig@@SAHXZ$7 0041235b f   ccLibrary_vs2013:ccConfig.obj
 0001:00011366       __unwindfunclet$?workstation@ccConfig@@SAHXZ$8 00412366 f   ccLibrary_vs2013:ccConfig.obj
 0001:0001136e       __ehhandler$?workstation@ccConfig@@SAHXZ 0041236e f   ccLibrary_vs2013:ccConfig.obj
 0001:000113a0       ??__F?_Generic_object@?$_Error_objects@H@std@@2V_Generic_error_category@2@A@@YAXXZ 004123a0 f   bcommandmainwindow.obj
 0001:000113b0       ??__F?_Iostream_object@?$_Error_objects@H@std@@2V_Iostream_error_category@2@A@@YAXXZ 004123b0 f   bcommandmainwindow.obj
 0001:000113c0       ??__F?_System_object@?$_Error_objects@H@std@@2V_System_error_category@2@A@@YAXXZ 004123c0 f   bcommandmainwindow.obj
 0001:000113d0       ??__FmathsMap@@YAXXZ       004123d0 f   commandLine.obj
 0001:000113e0       ??__FstringMap@@YAXXZ      004123e0 f   commandLine.obj
 0001:000113f0       ??__FcleanUp_commandEdit@@YAXXZ 004123f0 f   moc_commandEdit.obj
 0001:00011400       ??__FcleanUp_bCommandMainWindow@@YAXXZ 00412400 f   moc_bcommandmainwindow.obj
 0001:00011410       ??__FcleanUp_command@@YAXXZ 00412410 f   moc_commandimpl.obj
 0001:00011420       ??__FcleanUp_commandLine@@YAXXZ 00412420 f   moc_commandLine.obj
 0001:00011430       ??__FcleanUp_revertiveDisplay@@YAXXZ 00412430 f   moc_revertiveDisplay.obj
 0001:00011440       ??__FcleanUp_revertiveImpl@@YAXXZ 00412440 f   moc_revertiveImpl.obj
 0002:00000fe0       _pcppinit                  00413fe0     MSVCRT:crtexew.obj
 0002:00000fe4       ?_Generic_object$initializer$@?$_Error_objects@H@std@@2P6AXXZA 00413fe4     bcommandmainwindow.obj
 0002:00000fe8       ?_Iostream_object$initializer$@?$_Error_objects@H@std@@2P6AXXZA 00413fe8     bcommandmainwindow.obj
 0002:00000fec       ?_System_object$initializer$@?$_Error_objects@H@std@@2P6AXXZA 00413fec     bcommandmainwindow.obj
 0002:00000ff0       _mathsMap$initializer$     00413ff0     commandLine.obj
 0002:00000ff4       _stringMap$initializer$    00413ff4     commandLine.obj
 0002:00000ff8       _cleanUp_commandEdit$initializer$ 00413ff8     moc_commandEdit.obj
 0002:00000ffc       _cleanUp_bCommandMainWindow$initializer$ 00413ffc     moc_bcommandmainwindow.obj
 0002:00001000       _cleanUp_command$initializer$ 00414000     moc_commandimpl.obj
 0002:00001004       _cleanUp_commandLine$initializer$ 00414004     moc_commandLine.obj
 0002:00001008       _cleanUp_revertiveDisplay$initializer$ 00414008     moc_revertiveDisplay.obj
 0002:0000100c       _cleanUp_revertiveImpl$initializer$ 0041400c     moc_revertiveImpl.obj
 0002:00001018       _pcinit                    00414018     MSVCRT:crtexew.obj
 0002:0000101c       _pinit                     0041401c     MSVCRT:atonexit.obj
 0002:00001020       _pinit                     00414020     MSVCRT:crtexew.obj
 0002:00004f54       ?slot_0@?3??staticMetaObject@commandEdit@@SAPAVQMetaObject@@XZ@4UQUMethod@@B 00417f54     moc_commandEdit.obj
 0002:00004f78       ?slot_tbl@?3??staticMetaObject@commandEdit@@SAPAVQMetaObject@@XZ@4QBUQMetaData@@B 00417f78     moc_commandEdit.obj
 0002:00004fac       ?signal_0@?3??staticMetaObject@commandEdit@@SAPAVQMetaObject@@XZ@4UQUMethod@@B 00417fac     moc_commandEdit.obj
 0002:00004fc4       ?signal_1@?3??staticMetaObject@commandEdit@@SAPAVQMetaObject@@XZ@4UQUMethod@@B 00417fc4     moc_commandEdit.obj
 0002:00004fe0       ?signal_2@?3??staticMetaObject@commandEdit@@SAPAVQMetaObject@@XZ@4UQUMethod@@B 00417fe0     moc_commandEdit.obj
 0002:00004ff8       ?signal_tbl@?3??staticMetaObject@commandEdit@@SAPAVQMetaObject@@XZ@4QBUQMetaData@@B 00417ff8     moc_commandEdit.obj
 0002:00005318       ?slot_0@?3??staticMetaObject@bCommandMainWindow@@SAPAVQMetaObject@@XZ@4UQUMethod@@B 00418318     moc_bcommandmainwindow.obj
 0002:00005334       ?slot_1@?3??staticMetaObject@bCommandMainWindow@@SAPAVQMetaObject@@XZ@4UQUMethod@@B 00418334     moc_bcommandmainwindow.obj
 0002:00005348       ?slot_2@?3??staticMetaObject@bCommandMainWindow@@SAPAVQMetaObject@@XZ@4UQUMethod@@B 00418348     moc_bcommandmainwindow.obj
 0002:00005364       ?slot_3@?3??staticMetaObject@bCommandMainWindow@@SAPAVQMetaObject@@XZ@4UQUMethod@@B 00418364     moc_bcommandmainwindow.obj
 0002:00005370       ?slot_4@?3??staticMetaObject@bCommandMainWindow@@SAPAVQMetaObject@@XZ@4UQUMethod@@B 00418370     moc_bcommandmainwindow.obj
 0002:00005384       ?slot_5@?3??staticMetaObject@bCommandMainWindow@@SAPAVQMetaObject@@XZ@4UQUMethod@@B 00418384     moc_bcommandmainwindow.obj
 0002:00005390       ?slot_6@?3??staticMetaObject@bCommandMainWindow@@SAPAVQMetaObject@@XZ@4UQUMethod@@B 00418390     moc_bcommandmainwindow.obj
 0002:000053b4       ?slot_7@?3??staticMetaObject@bCommandMainWindow@@SAPAVQMetaObject@@XZ@4UQUMethod@@B 004183b4     moc_bcommandmainwindow.obj
 0002:000053e4       ?slot_8@?3??staticMetaObject@bCommandMainWindow@@SAPAVQMetaObject@@XZ@4UQUMethod@@B 004183e4     moc_bcommandmainwindow.obj
 0002:00005404       ?slot_9@?3??staticMetaObject@bCommandMainWindow@@SAPAVQMetaObject@@XZ@4UQUMethod@@B 00418404     moc_bcommandmainwindow.obj
 0002:0000541c       ?slot_10@?3??staticMetaObject@bCommandMainWindow@@SAPAVQMetaObject@@XZ@4UQUMethod@@B 0041841c     moc_bcommandmainwindow.obj
 0002:00005438       ?slot_11@?3??staticMetaObject@bCommandMainWindow@@SAPAVQMetaObject@@XZ@4UQUMethod@@B 00418438     moc_bcommandmainwindow.obj
 0002:00005458       ?slot_12@?3??staticMetaObject@bCommandMainWindow@@SAPAVQMetaObject@@XZ@4UQUMethod@@B 00418458     moc_bcommandmainwindow.obj
 0002:00005470       ?slot_tbl@?3??staticMetaObject@bCommandMainWindow@@SAPAVQMetaObject@@XZ@4QBUQMetaData@@B 00418470     moc_bcommandmainwindow.obj
 0002:0000560c       ?slot_0@?3??staticMetaObject@command@@SAPAVQMetaObject@@XZ@4UQUMethod@@B 0041860c     moc_commandimpl.obj
 0002:00005628       ?slot_1@?3??staticMetaObject@command@@SAPAVQMetaObject@@XZ@4UQUMethod@@B 00418628     moc_commandimpl.obj
 0002:00005648       ?slot_2@?3??staticMetaObject@command@@SAPAVQMetaObject@@XZ@4UQUMethod@@B 00418648     moc_commandimpl.obj
 0002:00005664       ?slot_3@?3??staticMetaObject@command@@SAPAVQMetaObject@@XZ@4UQUMethod@@B 00418664     moc_commandimpl.obj
 0002:00005670       ?slot_4@?3??staticMetaObject@command@@SAPAVQMetaObject@@XZ@4UQUMethod@@B 00418670     moc_commandimpl.obj
 0002:00005684       ?slot_5@?3??staticMetaObject@command@@SAPAVQMetaObject@@XZ@4UQUMethod@@B 00418684     moc_commandimpl.obj
 0002:000056b8       ?slot_6@?3??staticMetaObject@command@@SAPAVQMetaObject@@XZ@4UQUMethod@@B 004186b8     moc_commandimpl.obj
 0002:000056e0       ?slot_tbl@?3??staticMetaObject@command@@SAPAVQMetaObject@@XZ@4QBUQMetaData@@B 004186e0     moc_commandimpl.obj
 0002:000057c8       ?signal_0@?3??staticMetaObject@command@@SAPAVQMetaObject@@XZ@4UQUMethod@@B 004187c8     moc_commandimpl.obj
 0002:000057e8       ?signal_1@?3??staticMetaObject@command@@SAPAVQMetaObject@@XZ@4UQUMethod@@B 004187e8     moc_commandimpl.obj
 0002:00005810       ?signal_2@?3??staticMetaObject@command@@SAPAVQMetaObject@@XZ@4UQUMethod@@B 00418810     moc_commandimpl.obj
 0002:00005820       ?signal_tbl@?3??staticMetaObject@command@@SAPAVQMetaObject@@XZ@4QBUQMetaData@@B 00418820     moc_commandimpl.obj
 0002:000058bc       ?slot_0@?3??staticMetaObject@commandLine@@SAPAVQMetaObject@@XZ@4UQUMethod@@B 004188bc     moc_commandLine.obj
 0002:000058c8       ?slot_1@?3??staticMetaObject@commandLine@@SAPAVQMetaObject@@XZ@4UQUMethod@@B 004188c8     moc_commandLine.obj
 0002:000058e8       ?slot_2@?3??staticMetaObject@commandLine@@SAPAVQMetaObject@@XZ@4UQUMethod@@B 004188e8     moc_commandLine.obj
 0002:00005900       ?slot_3@?3??staticMetaObject@commandLine@@SAPAVQMetaObject@@XZ@4UQUMethod@@B 00418900     moc_commandLine.obj
 0002:00005918       ?slot_4@?3??staticMetaObject@commandLine@@SAPAVQMetaObject@@XZ@4UQUMethod@@B 00418918     moc_commandLine.obj
 0002:00005938       ?slot_5@?3??staticMetaObject@commandLine@@SAPAVQMetaObject@@XZ@4UQUMethod@@B 00418938     moc_commandLine.obj
 0002:0000594c       ?slot_6@?3??staticMetaObject@commandLine@@SAPAVQMetaObject@@XZ@4UQUMethod@@B 0041894c     moc_commandLine.obj
 0002:00005964       ?slot_7@?3??staticMetaObject@commandLine@@SAPAVQMetaObject@@XZ@4UQUMethod@@B 00418964     moc_commandLine.obj
 0002:0000597c       ?slot_8@?3??staticMetaObject@commandLine@@SAPAVQMetaObject@@XZ@4UQUMethod@@B 0041897c     moc_commandLine.obj
 0002:000059a8       ?slot_tbl@?3??staticMetaObject@commandLine@@SAPAVQMetaObject@@XZ@4QBUQMetaData@@B 004189a8     moc_commandLine.obj
 0002:00005aa4       ?signal_0@?3??staticMetaObject@commandLine@@SAPAVQMetaObject@@XZ@4UQUMethod@@B 00418aa4     moc_commandLine.obj
 0002:00005ab0       ?signal_1@?3??staticMetaObject@commandLine@@SAPAVQMetaObject@@XZ@4UQUMethod@@B 00418ab0     moc_commandLine.obj
 0002:00005abc       ?signal_2@?3??staticMetaObject@commandLine@@SAPAVQMetaObject@@XZ@4UQUMethod@@B 00418abc     moc_commandLine.obj
 0002:00005ae0       ?signal_3@?3??staticMetaObject@commandLine@@SAPAVQMetaObject@@XZ@4UQUMethod@@B 00418ae0     moc_commandLine.obj
 0002:00005b08       ?signal_4@?3??staticMetaObject@commandLine@@SAPAVQMetaObject@@XZ@4UQUMethod@@B 00418b08     moc_commandLine.obj
 0002:00005b14       ?signal_tbl@?3??staticMetaObject@commandLine@@SAPAVQMetaObject@@XZ@4QBUQMetaData@@B 00418b14     moc_commandLine.obj
 0002:00005be4       ?slot_0@?3??staticMetaObject@revertiveDisplay@@SAPAVQMetaObject@@XZ@4UQUMethod@@B 00418be4     moc_revertiveDisplay.obj
 0002:00005c00       ?slot_tbl@?3??staticMetaObject@revertiveDisplay@@SAPAVQMetaObject@@XZ@4QBUQMetaData@@B 00418c00     moc_revertiveDisplay.obj
 0002:00005c3c       ?slot_0@?3??staticMetaObject@revertiveImpl@@SAPAVQMetaObject@@XZ@4UQUMethod@@B 00418c3c     moc_revertiveImpl.obj
 0002:00005c58       ?slot_1@?3??staticMetaObject@revertiveImpl@@SAPAVQMetaObject@@XZ@4UQUMethod@@B 00418c58     moc_revertiveImpl.obj
 0002:00005c64       ?slot_2@?3??staticMetaObject@revertiveImpl@@SAPAVQMetaObject@@XZ@4UQUMethod@@B 00418c64     moc_revertiveImpl.obj
 0002:00005c88       ?slot_3@?3??staticMetaObject@revertiveImpl@@SAPAVQMetaObject@@XZ@4UQUMethod@@B 00418c88     moc_revertiveImpl.obj
 0002:00005c94       ?slot_4@?3??staticMetaObject@revertiveImpl@@SAPAVQMetaObject@@XZ@4UQUMethod@@B 00418c94     moc_revertiveImpl.obj
 0002:00005ca0       ?slot_5@?3??staticMetaObject@revertiveImpl@@SAPAVQMetaObject@@XZ@4UQUMethod@@B 00418ca0     moc_revertiveImpl.obj
 0002:00005cc4       ?slot_6@?3??staticMetaObject@revertiveImpl@@SAPAVQMetaObject@@XZ@4UQUMethod@@B 00418cc4     moc_revertiveImpl.obj
 0002:00005cf0       ?slot_7@?3??staticMetaObject@revertiveImpl@@SAPAVQMetaObject@@XZ@4UQUMethod@@B 00418cf0     moc_revertiveImpl.obj
 0002:00005cfc       ?slot_8@?3??staticMetaObject@revertiveImpl@@SAPAVQMetaObject@@XZ@4UQUMethod@@B 00418cfc     moc_revertiveImpl.obj
 0002:00005d24       ?slot_9@?3??staticMetaObject@revertiveImpl@@SAPAVQMetaObject@@XZ@4UQUMethod@@B 00418d24     moc_revertiveImpl.obj
 0002:00005d48       ?slot_tbl@?3??staticMetaObject@revertiveImpl@@SAPAVQMetaObject@@XZ@4QBUQMetaData@@B 00418d48     moc_revertiveImpl.obj
 0002:00007498       _GS_ExceptionPointers      0041a498     MSVCRT:gs_report.obj
 0002:00008610       __catchsym$?_Copy@?$basic_string@DU?$char_traits@D@std@@V?$allocator@D@2@@std@@QAEXII@Z$5 0041b610     bcommandmainwindow.obj
 0002:00008620       __catchsym$?_Copy@?$basic_string@DU?$char_traits@D@std@@V?$allocator@D@2@@std@@QAEXII@Z$4 0041b620     bcommandmainwindow.obj
 0002:00008630       __unwindtable$?_Copy@?$basic_string@DU?$char_traits@D@std@@V?$allocator@D@2@@std@@QAEXII@Z 0041b630     bcommandmainwindow.obj
 0002:00008650       __ehfuncinfo$?_Copy@?$basic_string@DU?$char_traits@D@std@@V?$allocator@D@2@@std@@QAEXII@Z 0041b650     bcommandmainwindow.obj
 0002:00008674       __tryblocktable$?_Copy@?$basic_string@DU?$char_traits@D@std@@V?$allocator@D@2@@std@@QAEXII@Z 0041b674     bcommandmainwindow.obj
 0002:0000869c       __ehfuncinfo$??0bCommandMainWindow@@QAE@PAVQWidget@@PBDI@Z 0041b69c     bcommandmainwindow.obj
 0002:000086c0       __unwindtable$??0bCommandMainWindow@@QAE@PAVQWidget@@PBDI@Z 0041b6c0     bcommandmainwindow.obj
 0002:00008948       __ehfuncinfo$??1bCommandMainWindow@@UAE@XZ 0041b948     bcommandmainwindow.obj
 0002:0000896c       __unwindtable$??1bCommandMainWindow@@UAE@XZ 0041b96c     bcommandmainwindow.obj
 0002:000089bc       __unwindtable$?showFileMenu@bCommandMainWindow@@QAEXXZ 0041b9bc     bcommandmainwindow.obj
 0002:000089c4       __ehfuncinfo$?showFileMenu@bCommandMainWindow@@QAEXXZ 0041b9c4     bcommandmainwindow.obj
 0002:000089e8       __ehfuncinfo$?about@bCommandMainWindow@@QAEXXZ 0041b9e8     bcommandmainwindow.obj
 0002:00008a0c       __unwindtable$?about@bCommandMainWindow@@QAEXXZ 0041ba0c     bcommandmainwindow.obj
 0002:00008a7c       __ehfuncinfo$?clearCurrent@bCommandMainWindow@@QAEXXZ 0041ba7c     bcommandmainwindow.obj
 0002:00008aa0       __unwindtable$?clearCurrent@bCommandMainWindow@@QAEXXZ 0041baa0     bcommandmainwindow.obj
 0002:00008ad0       __ehfuncinfo$?open@bCommandMainWindow@@QAEXXZ 0041bad0     bcommandmainwindow.obj
 0002:00008af4       __unwindtable$?open@bCommandMainWindow@@QAEXXZ 0041baf4     bcommandmainwindow.obj
 0002:00008b34       __ehfuncinfo$?saveAs@bCommandMainWindow@@QAEXXZ 0041bb34     bcommandmainwindow.obj
 0002:00008b58       __unwindtable$?saveAs@bCommandMainWindow@@QAEXXZ 0041bb58     bcommandmainwindow.obj
 0002:00008be0       __unwindtable$?loadRecentFile@bCommandMainWindow@@QAEXABVQVariant@@@Z 0041bbe0     bcommandmainwindow.obj
 0002:00008c00       __ehfuncinfo$?loadRecentFile@bCommandMainWindow@@QAEXABVQVariant@@@Z 0041bc00     bcommandmainwindow.obj
 0002:00008c24       __ehfuncinfo$?slot_scriptDirty@bCommandMainWindow@@QAEX_N@Z 0041bc24     bcommandmainwindow.obj
 0002:00008c48       __unwindtable$?slot_scriptDirty@bCommandMainWindow@@QAEX_N@Z 0041bc48     bcommandmainwindow.obj
 0002:00008c90       __ehfuncinfo$?loadFile@bCommandMainWindow@@AAEXVQString@@@Z 0041bc90     bcommandmainwindow.obj
 0002:00008cb4       __unwindtable$?loadFile@bCommandMainWindow@@AAEXVQString@@@Z 0041bcb4     bcommandmainwindow.obj
 0002:00008cfc       __unwindtable$?addRecentFile@bCommandMainWindow@@AAEXVQString@@@Z 0041bcfc     bcommandmainwindow.obj
 0002:00008d04       __ehfuncinfo$?addRecentFile@bCommandMainWindow@@AAEXVQString@@@Z 0041bd04     bcommandmainwindow.obj
 0002:00008d28       __unwindtable$?loadSettings@bCommandMainWindow@@AAEXVQStringList@@@Z 0041bd28     bcommandmainwindow.obj
 0002:00008d40       __ehfuncinfo$?loadSettings@bCommandMainWindow@@AAEXVQStringList@@@Z 0041bd40     bcommandmainwindow.obj
 0002:00008d64       __ehfuncinfo$?saveFile@bCommandMainWindow@@AAEXVQString@@@Z 0041bd64     bcommandmainwindow.obj
 0002:00008d88       __unwindtable$?saveFile@bCommandMainWindow@@AAEXVQString@@@Z 0041bd88     bcommandmainwindow.obj
 0002:00008db8       __ehfuncinfo$?promptForSave@bCommandMainWindow@@AAE_NXZ 0041bdb8     bcommandmainwindow.obj
 0002:00008ddc       __unwindtable$?promptForSave@bCommandMainWindow@@AAE_NXZ 0041bddc     bcommandmainwindow.obj
 0002:00008e04       __unwindtable$??0commandEdit@@QAE@PAVQWidget@@PBD@Z 0041be04     commandEdit.obj
 0002:00008e0c       __ehfuncinfo$??0commandEdit@@QAE@PAVQWidget@@PBD@Z 0041be0c     commandEdit.obj
 0002:00008e30       __ehfuncinfo$??0command@@QAE@PAVccClient@@PAVQWidget@@PBDI@Z 0041be30     commandimpl.obj
 0002:00008e54       __unwindtable$??0command@@QAE@PAVccClient@@PAVQWidget@@PBDI@Z 0041be54     commandimpl.obj
 0002:00008edc       __unwindtable$?setCheckBoxes@command@@QAEXXZ 0041bedc     commandimpl.obj
 0002:00008eec       __ehfuncinfo$?setCheckBoxes@command@@QAEXXZ 0041beec     commandimpl.obj
 0002:00008f10       __unwindtable$?loadSettings@command@@QAEXVQStringList@@@Z 0041bf10     commandimpl.obj
 0002:00008f18       __ehfuncinfo$?loadSettings@command@@QAEXVQStringList@@@Z 0041bf18     commandimpl.obj
 0002:00008f3c       __unwindtable$?save@command@@QAE?AVQStringList@@XZ 0041bf3c     commandimpl.obj
 0002:00008f4c       __ehfuncinfo$?save@command@@QAE?AVQStringList@@XZ 0041bf4c     commandimpl.obj
 0002:00008f70       __unwindtable$??_Gcommand@@UAEPAXI@Z 0041bf70     commandimpl.obj
 0002:00008f78       __ehfuncinfo$??_Gcommand@@UAEPAXI@Z 0041bf78     commandimpl.obj
 0002:00008f9c       __unwindtable$??_G?$QPtrList@VcommandLine@@@@UAEPAXI@Z 0041bf9c     commandimpl.obj
 0002:00008fa4       __ehfuncinfo$??_G?$QPtrList@VcommandLine@@@@UAEPAXI@Z 0041bfa4     commandimpl.obj
 0002:00008fc8       __ehfuncinfo$??0commandLine@@QAE@PAVccClient@@PAVQWidget@@PBDI@Z 0041bfc8     commandLine.obj
 0002:00008fec       __unwindtable$??0commandLine@@QAE@PAVccClient@@PAVQWidget@@PBDI@Z 0041bfec     commandLine.obj
 0002:00009024       __unwindtable$?loadSetting@commandLine@@QAE_NVQString@@@Z 0041c024     commandLine.obj
 0002:00009044       __ehfuncinfo$?loadSetting@commandLine@@QAE_NVQString@@@Z 0041c044     commandLine.obj
 0002:00009068       __unwindtable$?saveSetting@commandLine@@QAE?AVQString@@XZ 0041c068     commandLine.obj
 0002:00009078       __ehfuncinfo$?saveSetting@commandLine@@QAE?AVQString@@XZ 0041c078     commandLine.obj
 0002:0000909c       __ehfuncinfo$?sendCommand@commandLine@@QAEXXZ 0041c09c     commandLine.obj
 0002:000090c0       __unwindtable$?sendCommand@commandLine@@QAEXXZ 0041c0c0     commandLine.obj
 0002:00009150       __unwindtable$?setWhatsThis@commandLine@@AAEXXZ 0041c150     commandLine.obj
 0002:00009168       __ehfuncinfo$?setWhatsThis@commandLine@@AAEXXZ 0041c168     commandLine.obj
 0002:0000918c       __ehfuncinfo$?setString@commandLine@@AAEXVQString@@@Z 0041c18c     commandLine.obj
 0002:000091b0       __unwindtable$?setString@commandLine@@AAEXVQString@@@Z 0041c1b0     commandLine.obj
 0002:00009230       __ehfuncinfo$?setStringVariable@commandLine@@AAEXVQString@@0@Z 0041c230     commandLine.obj
 0002:00009254       __unwindtable$?setStringVariable@commandLine@@AAEXVQString@@0@Z 0041c254     commandLine.obj
 0002:0000927c       __unwindtable$?getStringValue@commandLine@@AAE?AVQString@@V2@@Z 0041c27c     commandLine.obj
 0002:00009294       __ehfuncinfo$?getStringValue@commandLine@@AAE?AVQString@@V2@@Z 0041c294     commandLine.obj
 0002:000092b8       __ehfuncinfo$?replaceVariables@commandLine@@AAE?AVQString@@V2@@Z 0041c2b8     commandLine.obj
 0002:000092dc       __unwindtable$?replaceVariables@commandLine@@AAE?AVQString@@V2@@Z 0041c2dc     commandLine.obj
 0002:0000933c       __unwindtable$?setMathsVariable@commandLine@@AAEXVQString@@H@Z 0041c33c     commandLine.obj
 0002:0000935c       __ehfuncinfo$?setMathsVariable@commandLine@@AAEXVQString@@H@Z 0041c35c     commandLine.obj
 0002:00009380       __unwindtable$?getMathsValue@commandLine@@AAEHVQString@@@Z 0041c380     commandLine.obj
 0002:00009388       __ehfuncinfo$?getMathsValue@commandLine@@AAEHVQString@@@Z 0041c388     commandLine.obj
 0002:000093ac       __ehfuncinfo$?performMaths@commandLine@@AAEXVQString@@@Z 0041c3ac     commandLine.obj
 0002:000093d0       __unwindtable$?performMaths@commandLine@@AAEXVQString@@@Z 0041c3d0     commandLine.obj
 0002:000094d0       __ehfuncinfo$_main         0041c4d0     main.obj
 0002:000094f4       __unwindtable$_main        0041c4f4     main.obj
 0002:00009524       __unwindtable$??0revertiveImpl@@QAE@PAVccClient@@PAVQWidget@@PBDI@Z 0041c524     revertiveImpl.obj
 0002:00009534       __ehfuncinfo$??0revertiveImpl@@QAE@PAVccClient@@PAVQWidget@@PBDI@Z 0041c534     revertiveImpl.obj
 0002:00009558       __ehfuncinfo$?loadSettings@revertiveImpl@@QAEXVQStringList@@@Z 0041c558     revertiveImpl.obj
 0002:0000957c       __unwindtable$?loadSettings@revertiveImpl@@QAEXVQStringList@@@Z 0041c57c     revertiveImpl.obj
 0002:000095b4       __unwindtable$?save@revertiveImpl@@QAE?AVQStringList@@XZ 0041c5b4     revertiveImpl.obj
 0002:000095cc       __ehfuncinfo$?save@revertiveImpl@@QAE?AVQStringList@@XZ 0041c5cc     revertiveImpl.obj
 0002:000095f0       __unwindtable$?logRevertiveToDisplay@revertiveImpl@@QAEXABVQString@@@Z 0041c5f0     revertiveImpl.obj
 0002:00009610       __ehfuncinfo$?logRevertiveToDisplay@revertiveImpl@@QAEXABVQString@@@Z 0041c610     revertiveImpl.obj
 0002:00009634       __unwindtable$?addRegistration@revertiveImpl@@QAEXABH00@Z 0041c634     revertiveImpl.obj
 0002:0000963c       __ehfuncinfo$?addRegistration@revertiveImpl@@QAEXABH00@Z 0041c63c     revertiveImpl.obj
 0002:00009660       __ehfuncinfo$?cccInfoRevertive@revertiveImpl@@QAEXHHABV?$basic_string@DU?$char_traits@D@std@@V?$allocator@D@2@@std@@@Z 0041c660     revertiveImpl.obj
 0002:00009684       __unwindtable$?cccInfoRevertive@revertiveImpl@@QAEXHHABV?$basic_string@DU?$char_traits@D@std@@V?$allocator@D@2@@std@@@Z 0041c684     revertiveImpl.obj
 0002:000096ac       __unwindtable$?cccRtrRevertive@revertiveImpl@@QAEXHHH@Z 0041c6ac     revertiveImpl.obj
 0002:000096ac       __unwindtable$?cccDatabaseChange@revertiveImpl@@QAEXHHH@Z 0041c6ac     revertiveImpl.obj
 0002:000096ac       __unwindtable$?cccGpiRevertive@revertiveImpl@@QAEXHH_N@Z 0041c6ac     revertiveImpl.obj
 0002:000096cc       __ehfuncinfo$?cccRtrRevertive@revertiveImpl@@QAEXHHH@Z 0041c6cc     revertiveImpl.obj
 0002:000096cc       __ehfuncinfo$?cccGpiRevertive@revertiveImpl@@QAEXHH_N@Z 0041c6cc     revertiveImpl.obj
 0002:000096cc       __ehfuncinfo$?cccDatabaseChange@revertiveImpl@@QAEXHHH@Z 0041c6cc     revertiveImpl.obj
 0002:000096f0       __ehfuncinfo$?cccDeviceMessage@revertiveImpl@@QAEXHHABV?$basic_string@DU?$char_traits@D@std@@V?$allocator@D@2@@std@@H@Z 0041c6f0     revertiveImpl.obj
 0002:00009714       __unwindtable$?cccDeviceMessage@revertiveImpl@@QAEXHHABV?$basic_string@DU?$char_traits@D@std@@V?$allocator@D@2@@std@@H@Z 0041c714     revertiveImpl.obj
 0002:00009744       __unwindtable$??_GrevertiveImpl@@UAEPAXI@Z 0041c744     revertiveImpl.obj
 0002:0000974c       __ehfuncinfo$??_GrevertiveImpl@@UAEPAXI@Z 0041c74c     revertiveImpl.obj
 0002:00009770       __unwindtable$?qt_invoke@revertiveImpl@@UAE_NHPAUQUObject@@@Z 0041c770     moc_commandimpl.obj
 0002:00009770       __unwindtable$?qt_invoke@command@@UAE_NHPAUQUObject@@@Z 0041c770     moc_commandimpl.obj
 0002:00009780       __ehfuncinfo$?qt_invoke@revertiveImpl@@UAE_NHPAUQUObject@@@Z 0041c780     moc_commandimpl.obj
 0002:00009780       __ehfuncinfo$?qt_invoke@command@@UAE_NHPAUQUObject@@@Z 0041c780     moc_commandimpl.obj
 0002:000097a4       __unwindtable$?qt_emit@command@@UAE_NHPAUQUObject@@@Z 0041c7a4     moc_commandimpl.obj
 0002:000097ac       __ehfuncinfo$?qt_emit@command@@UAE_NHPAUQUObject@@@Z 0041c7ac     moc_commandimpl.obj
 0002:000097d0       __unwindtable$?qt_invoke@commandLine@@UAE_NHPAUQUObject@@@Z 0041c7d0     moc_commandLine.obj
 0002:000097d8       __ehfuncinfo$?qt_invoke@commandLine@@UAE_NHPAUQUObject@@@Z 0041c7d8     moc_commandLine.obj
 0002:000097fc       __unwindtable$?sig_commandLineRegisterFor@commandLine@@IAEXABH00@Z 0041c7fc     moc_commandLine.obj
 0002:000097fc       __unwindtable$?sig_commandRegisterFor@command@@IAEXABH00@Z 0041c7fc     moc_commandLine.obj
 0002:00009804       __ehfuncinfo$?sig_commandRegisterFor@command@@IAEXABH00@Z 0041c804     moc_commandLine.obj
 0002:00009804       __ehfuncinfo$?sig_commandLineRegisterFor@commandLine@@IAEXABH00@Z 0041c804     moc_commandLine.obj
 0002:00009828       __unwindtable$?log@commandLine@@IAEXABVQString@@@Z 0041c828     moc_commandLine.obj
 0002:00009830       __ehfuncinfo$?log@commandLine@@IAEXABVQString@@@Z 0041c830     moc_commandLine.obj
 0002:00009854       __ehfuncinfo$??0revertiveDisplay@@QAE@PAVQWidget@@PBDI@Z 0041c854     revertiveDisplay.obj
 0002:00009878       __unwindtable$??0revertiveDisplay@@QAE@PAVQWidget@@PBDI@Z 0041c878     revertiveDisplay.obj
 0002:00009938       __ehfuncinfo$?languageChange@revertiveDisplay@@MAEXXZ 0041c938     revertiveDisplay.obj
 0002:0000995c       __unwindtable$?languageChange@revertiveDisplay@@MAEXXZ 0041c95c     revertiveDisplay.obj
 0002:000099b4       __unwindtable$??0ccClient@@QAE@PAVIccClientCallback@@ABV?$basic_string@DU?$char_traits@D@std@@V?$allocator@D@2@@std@@@Z 0041c9b4     ccLibrary_vs2013:ccClient.obj
 0002:000099c4       __ehfuncinfo$??0ccClient@@QAE@PAVIccClientCallback@@ABV?$basic_string@DU?$char_traits@D@std@@V?$allocator@D@2@@std@@@Z 0041c9c4     ccLibrary_vs2013:ccClient.obj
 0002:000099e8       __unwindtable$?push_back@?$deque@V?$basic_string@DU?$char_traits@D@std@@V?$allocator@D@2@@std@@V?$allocator@V?$basic_string@DU?$char_traits@D@std@@V?$allocator@D@2@@std@@@2@@std@@QAEXABV?$basic_string@DU?$char_traits@D@std@@V?$allocator@D@2@@2@@Z 0041c9e8     ccLibrary_vs2013:ccClient.obj
 0002:000099f0       __ehfuncinfo$?push_back@?$deque@V?$basic_string@DU?$char_traits@D@std@@V?$allocator@D@2@@std@@V?$allocator@V?$basic_string@DU?$char_traits@D@std@@V?$allocator@D@2@@std@@@2@@std@@QAEXABV?$basic_string@DU?$char_traits@D@std@@V?$allocator@D@2@@2@@Z 0041c9f0     ccLibrary_vs2013:ccClient.obj
 0002:00009a14       __ehfuncinfo$?WndProc@ccClient@@CGJPAUHWND__@@IIJ@Z 0041ca14     ccLibrary_vs2013:ccClient.obj
 0002:00009a38       __unwindtable$?WndProc@ccClient@@CGJPAUHWND__@@IIJ@Z 0041ca38     ccLibrary_vs2013:ccClient.obj
 0002:00009a78       __unwindtable$?devicePoll@ccClient@@AAEXDHHH_N@Z 0041ca78     ccLibrary_vs2013:ccClient.obj
 0002:00009a78       __unwindtable$?deviceLock@ccClient@@AAEXDHHH_N0H@Z 0041ca78     ccLibrary_vs2013:ccClient.obj
 0002:00009a78       __unwindtable$?deviceQuery@ccClient@@AAEXDHHH_N@Z 0041ca78     ccLibrary_vs2013:ccClient.obj
 0002:00009a80       __ehfuncinfo$?deviceQuery@ccClient@@AAEXDHHH_N@Z 0041ca80     ccLibrary_vs2013:ccClient.obj
 0002:00009a80       __ehfuncinfo$?deviceLock@ccClient@@AAEXDHHH_N0H@Z 0041ca80     ccLibrary_vs2013:ccClient.obj
 0002:00009a80       __ehfuncinfo$?devicePoll@ccClient@@AAEXDHHH_N@Z 0041ca80     ccLibrary_vs2013:ccClient.obj
 0002:00009aa4       __unwindtable$?checkIndex@ccCheck@@QAE_NI@Z 0041caa4     ccLibrary_vs2013:ccCheck.obj
 0002:00009aa4       __unwindtable$?checkSource@ccCheck@@QAE_NH@Z 0041caa4     ccLibrary_vs2013:ccCheck.obj
 0002:00009aa4       __unwindtable$?checkDevice@ccCheck@@QAE_NI@Z 0041caa4     ccLibrary_vs2013:ccCheck.obj
 0002:00009ab4       __ehfuncinfo$?checkDevice@ccCheck@@QAE_NI@Z 0041cab4     ccLibrary_vs2013:ccCheck.obj
 0002:00009ab4       __ehfuncinfo$?checkIndex@ccCheck@@QAE_NI@Z 0041cab4     ccLibrary_vs2013:ccCheck.obj
 0002:00009ab4       __ehfuncinfo$?checkSource@ccCheck@@QAE_NH@Z 0041cab4     ccLibrary_vs2013:ccCheck.obj
 0002:00009ad8       __unwindtable$?checkIndexRange@ccCheck@@QAE_NII@Z 0041cad8     ccLibrary_vs2013:ccCheck.obj
 0002:00009ae0       __ehfuncinfo$?checkIndexRange@ccCheck@@QAE_NII@Z 0041cae0     ccLibrary_vs2013:ccCheck.obj
 0002:00009b04       __unwindtable$?checkDatabase@ccCheck@@QAE_NII@Z 0041cb04     ccLibrary_vs2013:ccCheck.obj
 0002:00009b14       __ehfuncinfo$?checkDatabase@ccCheck@@QAE_NII@Z 0041cb14     ccLibrary_vs2013:ccCheck.obj
 0002:00009b38       __unwindtable$?checkString@ccCheck@@QAE_NABV?$basic_string@DU?$char_traits@D@std@@V?$allocator@D@2@@std@@@Z 0041cb38     ccLibrary_vs2013:ccCheck.obj
 0002:00009b40       __ehfuncinfo$?checkString@ccCheck@@QAE_NABV?$basic_string@DU?$char_traits@D@std@@V?$allocator@D@2@@std@@@Z 0041cb40     ccLibrary_vs2013:ccCheck.obj
 0002:00009b64       __unwindtable$?checkWorkstation@ccCheck@@QAE_NI@Z 0041cb64     ccLibrary_vs2013:ccCheck.obj
 0002:00009b74       __ehfuncinfo$?checkWorkstation@ccCheck@@QAE_NI@Z 0041cb74     ccLibrary_vs2013:ccCheck.obj
 0002:00009b98       __unwindtable$?log@ccCheck@@QAEXABV?$basic_string@DU?$char_traits@D@std@@V?$allocator@D@2@@std@@@Z 0041cb98     ccLibrary_vs2013:ccCheck.obj
 0002:00009ba8       __ehfuncinfo$?log@ccCheck@@QAEXABV?$basic_string@DU?$char_traits@D@std@@V?$allocator@D@2@@std@@@Z 0041cba8     ccLibrary_vs2013:ccCheck.obj
 0002:00009bcc       __unwindtable$??$?HDU?$char_traits@D@std@@V?$allocator@D@1@@std@@YA?AV?$basic_string@DU?$char_traits@D@std@@V?$allocator@D@2@@0@PBDABV10@@Z 0041cbcc     ccLibrary_vs2013:ccCheck.obj
 0002:00009bcc       __unwindtable$??$?HDU?$char_traits@D@std@@V?$allocator@D@1@@std@@YA?AV?$basic_string@DU?$char_traits@D@std@@V?$allocator@D@2@@0@ABV10@PBD@Z 0041cbcc     ccLibrary_vs2013:ccCheck.obj
 0002:00009bd4       __ehfuncinfo$??$?HDU?$char_traits@D@std@@V?$allocator@D@1@@std@@YA?AV?$basic_string@DU?$char_traits@D@std@@V?$allocator@D@2@@0@PBDABV10@@Z 0041cbd4     ccLibrary_vs2013:ccCheck.obj
 0002:00009bd4       __ehfuncinfo$??$?HDU?$char_traits@D@std@@V?$allocator@D@1@@std@@YA?AV?$basic_string@DU?$char_traits@D@std@@V?$allocator@D@2@@0@ABV10@PBD@Z 0041cbd4     ccLibrary_vs2013:ccCheck.obj
 0002:00009bf8       __unwindtable$?getInt@ccConfig@@SAHABV?$basic_string@DU?$char_traits@D@std@@V?$allocator@D@2@@std@@00H_N@Z 0041cbf8     ccLibrary_vs2013:ccConfig.obj
 0002:00009c08       __ehfuncinfo$?getInt@ccConfig@@SAHABV?$basic_string@DU?$char_traits@D@std@@V?$allocator@D@2@@std@@00H_N@Z 0041cc08     ccLibrary_vs2013:ccConfig.obj
 0002:00009c2c       __unwindtable$?getDevPath@ccConfig@@SA?AV?$basic_string@DU?$char_traits@D@std@@V?$allocator@D@2@@std@@XZ 0041cc2c     ccLibrary_vs2013:ccConfig.obj
 0002:00009c44       __ehfuncinfo$?getDevPath@ccConfig@@SA?AV?$basic_string@DU?$char_traits@D@std@@V?$allocator@D@2@@std@@XZ 0041cc44     ccLibrary_vs2013:ccConfig.obj
 0002:00009c68       __ehfuncinfo$?workstation@ccConfig@@SAHXZ 0041cc68     ccLibrary_vs2013:ccConfig.obj
 0002:00009c8c       __unwindtable$?workstation@ccConfig@@SAHXZ 0041cc8c     ccLibrary_vs2013:ccConfig.obj
 0002:00009cd8       __sehtable$__onexit        0041ccd8     MSVCRT:atonexit.obj
 0002:00009cf8       __sehtable$??_L@YGXPAXIHP6EX0@Z1@Z 0041ccf8     MSVCRT:ehvecctr.obj
 0002:00009d18       __sehtable$??_M@YGXPAXIHP6EX0@Z@Z 0041cd18     MSVCRT:ehvecdtr.obj
 0002:00009d38       __sehtable$?__ArrayUnwind@@YGXPAXIHP6EX0@Z@Z 0041cd38     MSVCRT:ehvecdtr.obj
 0002:00009d58       __sehtable$___tmainCRTStartup 0041cd58     MSVCRT:crtexew.obj
 0002:00009d78       __sehtable$__IsNonwritableInCurrentImage 0041cd78     MSVCRT:pesect.obj
 0002:00014770       .idata$6                   00427770     qt-mt323:qt-mt323.dll
 0002:00014832       .idata$6                   00427832     kernel32:KERNEL32.dll
 0002:00014914       .idata$6                   00427914     user32:USER32.dll
 0002:000149ba       .idata$6                   004279ba     msvcprt:MSVCP120.dll
 0002:00014ab6       .idata$6                   00427ab6     MSVCRT:MSVCR120.dll
 0002:00014cb4       .idata$6                   00427cb4     bncsif32:BNCSIF32.dll
 0002:00014d04       .idata$6                   00427d04     version:VERSION.dll
 0003:00000000       _save_pxm                  00428000     bcommandmainwindow.obj
 0003:00000058       _open_xpm                  00428058     bcommandmainwindow.obj
 0003:000000b0       _new_xpm                   004280b0     bcommandmainwindow.obj
 0003:00000100       _bC_large_Icon_32          00428100     bcommandmainwindow.obj
 0003:0000038c       ?param_slot_7@?3??staticMetaObject@bCommandMainWindow@@SAPAVQMetaObject@@XZ@4QBUQUParameter@@B 0042838c     moc_bcommandmainwindow.obj
 0003:0000039c       ?param_slot_8@?3??staticMetaObject@bCommandMainWindow@@SAPAVQMetaObject@@XZ@4QBUQUParameter@@B 0042839c     moc_bcommandmainwindow.obj
 0003:000003ac       ?param_slot_9@?3??staticMetaObject@bCommandMainWindow@@SAPAVQMetaObject@@XZ@4QBUQUParameter@@B 004283ac     moc_bcommandmainwindow.obj
 0003:000003bc       ?param_slot_2@?3??staticMetaObject@command@@SAPAVQMetaObject@@XZ@4QBUQUParameter@@B 004283bc     moc_commandimpl.obj
 0003:000003cc       ?param_slot_6@?3??staticMetaObject@command@@SAPAVQMetaObject@@XZ@4QBUQUParameter@@B 004283cc     moc_commandimpl.obj
 0003:000003fc       ?param_signal_0@?3??staticMetaObject@command@@SAPAVQMetaObject@@XZ@4QBUQUParameter@@B 004283fc     moc_commandimpl.obj
 0003:0000040c       ?param_signal_2@?3??staticMetaObject@command@@SAPAVQMetaObject@@XZ@4QBUQUParameter@@B 0042840c     moc_commandimpl.obj
 0003:0000041c       ?param_slot_5@?3??staticMetaObject@commandLine@@SAPAVQMetaObject@@XZ@4QBUQUParameter@@B 0042841c     moc_commandLine.obj
 0003:0000042c       ?param_signal_4@?3??staticMetaObject@commandLine@@SAPAVQMetaObject@@XZ@4QBUQUParameter@@B 0042842c     moc_commandLine.obj
 0003:0000043c       ?param_slot_0@?3??staticMetaObject@revertiveImpl@@SAPAVQMetaObject@@XZ@4QBUQUParameter@@B 0042843c     moc_revertiveImpl.obj
 0003:0000044c       ?param_slot_3@?3??staticMetaObject@revertiveImpl@@SAPAVQMetaObject@@XZ@4QBUQUParameter@@B 0042844c     moc_revertiveImpl.obj
 0003:0000045c       ?param_slot_5@?3??staticMetaObject@revertiveImpl@@SAPAVQMetaObject@@XZ@4QBUQUParameter@@B 0042845c     moc_revertiveImpl.obj
 0003:0000046c       ?param_slot_7@?3??staticMetaObject@revertiveImpl@@SAPAVQMetaObject@@XZ@4QBUQUParameter@@B 0042846c     moc_revertiveImpl.obj
 0003:0000049c       ?param_slot_8@?3??staticMetaObject@revertiveImpl@@SAPAVQMetaObject@@XZ@4QBUQUParameter@@B 0042849c     moc_revertiveImpl.obj
 0003:000004cc       ?param_slot_9@?3??staticMetaObject@revertiveImpl@@SAPAVQMetaObject@@XZ@4QBUQUParameter@@B 004284cc     moc_revertiveImpl.obj
 0003:000004e0       _BNCS_CCCLIENT_SIG         004284e0     ccLibrary_vs2013:ccClient.obj
 0003:00000548       _BNCS_CCCHECK_SIG          00428548     ccLibrary_vs2013:ccCheck.obj
 0003:000005b0       _BNCS_CCCONFIG_SIG         004285b0     ccLibrary_vs2013:ccConfig.obj
 0003:00000630       _BNCS_BNCSWM32_SIG         00428630     bncswm32:BncsWM32.obj
 0003:00000bc8       _allocator_arg             00428bc8     bcommandmainwindow.obj
 0003:00000bc9       _piecewise_construct       00428bc9     bcommandmainwindow.obj
 0003:00000bd4       _allocator_arg             00428bd4     commandimpl.obj
 0003:00000bd5       _piecewise_construct       00428bd5     commandimpl.obj
 0003:00000bd8       _allocator_arg             00428bd8     commandLine.obj
 0003:00000bd9       _piecewise_construct       00428bd9     commandLine.obj
 0003:00000be4       _allocator_arg             00428be4     main.obj
 0003:00000be5       _piecewise_construct       00428be5     main.obj
 0003:00000bec       _cleanUp_commandEdit       00428bec     moc_commandEdit.obj
 0003:00000bf0       ?param_slot_0@?3??staticMetaObject@commandEdit@@SAPAVQMetaObject@@XZ@4QBUQUParameter@@B 00428bf0     moc_commandEdit.obj
 0003:00000c00       ?$S1@?3??staticMetaObject@commandEdit@@SAPAVQMetaObject@@XZ@4IA 00428c00     moc_commandEdit.obj
 0003:00000c04       _allocator_arg             00428c04     revertiveImpl.obj
 0003:00000c05       _piecewise_construct       00428c05     revertiveImpl.obj
 0003:00000c0c       _cleanUp_bCommandMainWindow 00428c0c     moc_bcommandmainwindow.obj
 0003:00000c10       _allocator_arg             00428c10     moc_bcommandmainwindow.obj
 0003:00000c11       _piecewise_construct       00428c11     moc_bcommandmainwindow.obj
 0003:00000c14       ?$S1@?3??staticMetaObject@bCommandMainWindow@@SAPAVQMetaObject@@XZ@4IA 00428c14     moc_bcommandmainwindow.obj
 0003:00000c18       ?param_slot_10@?3??staticMetaObject@bCommandMainWindow@@SAPAVQMetaObject@@XZ@4QBUQUParameter@@B 00428c18     moc_bcommandmainwindow.obj
 0003:00000c28       ?param_slot_11@?3??staticMetaObject@bCommandMainWindow@@SAPAVQMetaObject@@XZ@4QBUQUParameter@@B 00428c28     moc_bcommandmainwindow.obj
 0003:00000c3c       _cleanUp_command           00428c3c     moc_commandimpl.obj
 0003:00000c40       ?$S1@?3??staticMetaObject@command@@SAPAVQMetaObject@@XZ@4IA 00428c40     moc_commandimpl.obj
 0003:00000c44       ?param_slot_3@?3??staticMetaObject@command@@SAPAVQMetaObject@@XZ@4QBUQUParameter@@B 00428c44     moc_commandimpl.obj
 0003:00000c54       ?param_signal_1@?3??staticMetaObject@command@@SAPAVQMetaObject@@XZ@4QBUQUParameter@@B 00428c54     moc_commandimpl.obj
 0003:00000c88       _allocator_arg             00428c88     moc_commandLine.obj
 0003:00000c89       _piecewise_construct       00428c89     moc_commandLine.obj
 0003:00000c8c       _cleanUp_commandLine       00428c8c     moc_commandLine.obj
 0003:00000c90       ?param_slot_2@?3??staticMetaObject@commandLine@@SAPAVQMetaObject@@XZ@4QBUQUParameter@@B 00428c90     moc_commandLine.obj
 0003:00000cb0       ?$S1@?3??staticMetaObject@commandLine@@SAPAVQMetaObject@@XZ@4IA 00428cb0     moc_commandLine.obj
 0003:00000cb4       ?param_slot_3@?3??staticMetaObject@commandLine@@SAPAVQMetaObject@@XZ@4QBUQUParameter@@B 00428cb4     moc_commandLine.obj
 0003:00000cc4       ?param_signal_0@?3??staticMetaObject@commandLine@@SAPAVQMetaObject@@XZ@4QBUQUParameter@@B 00428cc4     moc_commandLine.obj
 0003:00000cd4       ?param_signal_1@?3??staticMetaObject@commandLine@@SAPAVQMetaObject@@XZ@4QBUQUParameter@@B 00428cd4     moc_commandLine.obj
 0003:00000ce4       ?param_signal_3@?3??staticMetaObject@commandLine@@SAPAVQMetaObject@@XZ@4QBUQUParameter@@B 00428ce4     moc_commandLine.obj
 0003:00000d18       _cleanUp_revertiveDisplay  00428d18     moc_revertiveDisplay.obj
 0003:00000d20       _allocator_arg             00428d20     moc_revertiveImpl.obj
 0003:00000d21       _piecewise_construct       00428d21     moc_revertiveImpl.obj
 0003:00000d24       _cleanUp_revertiveImpl     00428d24     moc_revertiveImpl.obj
 0003:00000d28       ?$S1@?3??staticMetaObject@revertiveImpl@@SAPAVQMetaObject@@XZ@4IA 00428d28     moc_revertiveImpl.obj
 0003:00000d2c       ?param_slot_2@?3??staticMetaObject@revertiveImpl@@SAPAVQMetaObject@@XZ@4QBUQUParameter@@B 00428d2c     moc_revertiveImpl.obj
 0003:00000d3c       ?param_slot_4@?3??staticMetaObject@revertiveImpl@@SAPAVQMetaObject@@XZ@4QBUQUParameter@@B 00428d3c     moc_revertiveImpl.obj
 0003:00000d4c       __Tuple_alloc              00428d4c     ccLibrary_vs2013:ccClient.obj
 0003:00000d4d       _ignore                    00428d4d     ccLibrary_vs2013:ccClient.obj
 0003:00000d4e       _allocator_arg             00428d4e     ccLibrary_vs2013:ccClient.obj
 0003:00000d4f       _piecewise_construct       00428d4f     ccLibrary_vs2013:ccClient.obj
 0003:00000d50       _allocator_arg             00428d50     ccLibrary_vs2013:ccCheck.obj
 0003:00000d51       _piecewise_construct       00428d51     ccLibrary_vs2013:ccCheck.obj
 0003:00000d52       __Tuple_alloc              00428d52     ccLibrary_vs2013:ccConfig.obj
 0003:00000d53       _ignore                    00428d53     ccLibrary_vs2013:ccConfig.obj
 0003:00000d54       _allocator_arg             00428d54     ccLibrary_vs2013:ccConfig.obj
 0003:00000d55       _piecewise_construct       00428d55     ccLibrary_vs2013:ccConfig.obj
 0003:00000d58       _has_cctor                 00428d58     MSVCRT:crtexew.obj
 0003:00000d5c       _mainret                   00428d5c     MSVCRT:crtexew.obj
 0003:00000d60       _managedapp                00428d60     MSVCRT:crtexew.obj
 0003:00000d64       _argc                      00428d64     MSVCRT:crtexew.obj
 0003:00000d68       _argv                      00428d68     MSVCRT:crtexew.obj
 0003:00000d6c       _envp                      00428d6c     MSVCRT:crtexew.obj
 0003:00000d70       _argret                    00428d70     MSVCRT:crtexew.obj
 0003:00000d74       _startinfo                 00428d74     MSVCRT:crtexew.obj
 0003:00000d78       _GS_ExceptionRecord        00428d78     MSVCRT:gs_report.obj
 0003:00000dc8       _GS_ContextRecord          00428dc8     MSVCRT:gs_report.obj
 0003:00001094       _DebuggerWasPresent        00429094     MSVCRT:gs_report.obj
 0003:000010a8       _acCopyDataResult          004290a8     bncswm32:BncsWM32.obj
 0003:000012ac       _lCopyDataResult           004292ac     bncswm32:BncsWM32.obj
 0003:000012b0       ?lResult@?1??BNCS32SendMessage@@9@4JA 004292b0     bncswm32:BncsWM32.obj
 0003:000012b4       ?acNumericData@?1??BNCS32SendMessage@@9@4PADA 004292b4     bncswm32:BncsWM32.obj
 0003:000012c4       ?CDS@?1??BNCS32SendMessage@@9@4UtagCOPYDATASTRUCT@@A 004292c4     bncswm32:BncsWM32.obj
 0003:000012d0       ?uMsg@?1??BNCS32ReceiveMessage@@9@4IA 004292d0     bncswm32:BncsWM32.obj
 0003:000012d4       ?wParam@?1??BNCS32ReceiveMessage@@9@4IA 004292d4     bncswm32:BncsWM32.obj
 0003:000012d8       ?lParam@?1??BNCS32ReceiveMessage@@9@4JA 004292d8     bncswm32:BncsWM32.obj
 0003:000012dc       ?lResult@?1??BNCS32ReceiveMessage@@9@4JA 004292dc     bncswm32:BncsWM32.obj
 0004:00000190       $R000000                   0042a190     version.res
 0004:00000570       $R0003E0                   0042a570     version.res
 0004:00001618       $R001488                   0042b618     version.res
 0004:00003bc0       $R003A30                   0042dbc0     version.res
 0004:00004028       $R003E98                   0042e028     version.res
 0004:00004058       $R003EC8                   0042e058     version.res
