 bCommand

 Timestamp is 56ddffc2 (Mon Mar 07 22:25:06 2016)

 Preferred load address is 00400000

 Start         Length     Name                   Class
 0001:00000000 0000e056H .text                   CODE
 0001:0000e060 0000140dH .text$x                 CODE
 0002:00000000 00000f6cH .idata$5                DATA
 0002:00000f70 00002e34H .rdata                  DATA
 0002:00003da8 000013f8H .xdata$x                DATA
 0002:000051a0 0000008cH .idata$2                DATA
 0002:0000522c 00000014H .idata$3                DATA
 0002:00005240 00000f6cH .idata$4                DATA
 0002:000061ac 0000a278H .idata$6                DATA
 0002:00010424 00000000H .edata                  DATA
 0003:00000000 00000004H .CRT$XCA                DATA
 0003:00000004 00000020H .CRT$XCU                DATA
 0003:00000024 00000004H .CRT$XCZ                DATA
 0003:00000028 00000004H .CRT$XIA                DATA
 0003:0000002c 00000004H .CRT$XIZ                DATA
 0003:00000030 00003424H .data                   DATA
 0003:00003458 00000194H .bss                    DATA
 0004:00000000 00000148H .rsrc$01                DATA
 0004:00000150 00003f80H .rsrc$02                DATA

  Address         Publics by Value              Rva+Base     Lib:Object

 0001:00000000       ??0bCommandMainWindow@@QAE@PAVQWidget@@PBDI@Z 00401000 f   bcommandmainwindow.obj
 0001:00001630       ?cccDisconnected@IccClientCallback@@MAEXXZ 00402630 f i bcommandmainwindow.obj
 0001:00001630       ?cccConnected@IccClientCallback@@MAEXXZ 00402630 f i bcommandmainwindow.obj
 0001:00001640       ?cccGpiRevertive@IccClientCallback@@MAEXHH_N@Z 00402640 f i bcommandmainwindow.obj
 0001:00001640       ?cccDeviceMode@IccClientCallback@@MAEXHHW4redundancyState@cc@@@Z 00402640 f i bcommandmainwindow.obj
 0001:00001640       ?cccDatabaseChange@IccClientCallback@@MAEXHHH@Z 00402640 f i bcommandmainwindow.obj
 0001:00001640       ?cccInfoRevertive@IccClientCallback@@MAEXHHABV?$basic_string@DU?$char_traits@D@std@@V?$allocator@D@2@@std@@@Z 00402640 f i bcommandmainwindow.obj
 0001:00001640       ?cccRtrRevertive@IccClientCallback@@MAEXHHH@Z 00402640 f i bcommandmainwindow.obj
 0001:00001650       ?cccDeviceMessage@IccClientCallback@@MAEXHHABV?$basic_string@DU?$char_traits@D@std@@V?$allocator@D@2@@std@@H@Z 00402650 f i bcommandmainwindow.obj
 0001:00001660       ?cccSerialNumberError@IccClientCallback@@MAEXHH@Z 00402660 f i bcommandmainwindow.obj
 0001:00001660       ?cccPollError@IccClientCallback@@MAEXHH@Z 00402660 f i bcommandmainwindow.obj
 0001:00001670       ?cccConfigChangeMessage@IccClientCallback@@MAEXABV?$basic_string@DU?$char_traits@D@std@@V?$allocator@D@2@@std@@@Z 00402670 f i bcommandmainwindow.obj
 0001:00001680       ?metaObject@bCommandMainWindow@@UBEPAVQMetaObject@@XZ 00402680 f i bcommandmainwindow.obj
 0001:00001690       ??_GQSpacerItem@@UAEPAXI@Z 00402690 f i bcommandmainwindow.obj
 0001:00001690       ??_EQSpacerItem@@UAEPAXI@Z 00402690 f i bcommandmainwindow.obj
 0001:000016b0       ??_EbCommandMainWindow@@UAEPAXI@Z 004026b0 f i bcommandmainwindow.obj
 0001:000016b0       ??_GbCommandMainWindow@@UAEPAXI@Z 004026b0 f i bcommandmainwindow.obj
 0001:000016d0       ??_GQPopupMenu@@UAEPAXI@Z  004026d0 f i bcommandmainwindow.obj
 0001:000016d0       ??_EQPopupMenu@@UAEPAXI@Z  004026d0 f i bcommandmainwindow.obj
 0001:000016f0       ??_GQToolBar@@UAEPAXI@Z    004026f0 f i bcommandmainwindow.obj
 0001:000016f0       ??_EQToolBar@@UAEPAXI@Z    004026f0 f i bcommandmainwindow.obj
 0001:00001710       ??_GQAction@@UAEPAXI@Z     00402710 f i bcommandmainwindow.obj
 0001:00001710       ??_EQAction@@UAEPAXI@Z     00402710 f i bcommandmainwindow.obj
 0001:00001730       ??_GQLabel@@UAEPAXI@Z      00402730 f i bcommandmainwindow.obj
 0001:00001730       ??_EQLabel@@UAEPAXI@Z      00402730 f i bcommandmainwindow.obj
 0001:00001750       ??_GQSpinBox@@UAEPAXI@Z    00402750 f i bcommandmainwindow.obj
 0001:00001750       ??_EQSpinBox@@UAEPAXI@Z    00402750 f i bcommandmainwindow.obj
 0001:00001770       ??_EQCheckBox@@UAEPAXI@Z   00402770 f i bcommandmainwindow.obj
 0001:00001770       ??_GQCheckBox@@UAEPAXI@Z   00402770 f i bcommandmainwindow.obj
 0001:00001790       ??_EQPushButton@@UAEPAXI@Z 00402790 f i bcommandmainwindow.obj
 0001:00001790       ??_GQPushButton@@UAEPAXI@Z 00402790 f i bcommandmainwindow.obj
 0001:000017b0       ??_GQFrame@@UAEPAXI@Z      004027b0 f i bcommandmainwindow.obj
 0001:000017b0       ??_EQFrame@@UAEPAXI@Z      004027b0 f i bcommandmainwindow.obj
 0001:000017d0       ??_GQVBoxLayout@@UAEPAXI@Z 004027d0 f i bcommandmainwindow.obj
 0001:000017d0       ??_EQVBoxLayout@@UAEPAXI@Z 004027d0 f i bcommandmainwindow.obj
 0001:000017f0       ??_EQHBoxLayout@@UAEPAXI@Z 004027f0 f i bcommandmainwindow.obj
 0001:000017f0       ??_GQHBoxLayout@@UAEPAXI@Z 004027f0 f i bcommandmainwindow.obj
 0001:00001810       ??1bCommandMainWindow@@UAE@XZ 00402810 f   bcommandmainwindow.obj
 0001:00001a40       ?toggleTimer@bCommandMainWindow@@QAEX_N@Z 00402a40 f   bcommandmainwindow.obj
 0001:00001aa0       ?timerEvent@bCommandMainWindow@@UAEXPAVQTimerEvent@@@Z 00402aa0 f   bcommandmainwindow.obj
 0001:00001b20       ?timerValueChanged@bCommandMainWindow@@QAEXH@Z 00402b20 f   bcommandmainwindow.obj
 0001:00001b80       ?open@bCommandMainWindow@@QAEXXZ 00402b80 f   bcommandmainwindow.obj
 0001:00001d80       ?save@bCommandMainWindow@@QAEXXZ 00402d80 f   bcommandmainwindow.obj
 0001:00001dc0       ?saveAs@bCommandMainWindow@@QAEXXZ 00402dc0 f   bcommandmainwindow.obj
 0001:00002210       ?saveFile@bCommandMainWindow@@AAEXVQString@@@Z 00403210 f   bcommandmainwindow.obj
 0001:00002590       ?loadFile@bCommandMainWindow@@AAEXVQString@@@Z 00403590 f   bcommandmainwindow.obj
 0001:00002ab0       ?loadSettings@bCommandMainWindow@@AAEXVQStringList@@@Z 00403ab0 f   bcommandmainwindow.obj
 0001:00002c40       ?clearCurrent@bCommandMainWindow@@QAEXXZ 00403c40 f   bcommandmainwindow.obj
 0001:00002e80       ?about@bCommandMainWindow@@QAEXXZ 00403e80 f   bcommandmainwindow.obj
 0001:00003130       ?addRecentFile@bCommandMainWindow@@AAEXVQString@@@Z 00404130 f   bcommandmainwindow.obj
 0001:00003260       ?showFileMenu@bCommandMainWindow@@QAEXXZ 00404260 f   bcommandmainwindow.obj
 0001:000033f0       ?loadRecentFile@bCommandMainWindow@@QAEXABVQVariant@@@Z 004043f0 f   bcommandmainwindow.obj
 0001:00003640       ?copySettings@bCommandMainWindow@@QAEXXZ 00404640 f   bcommandmainwindow.obj
 0001:00003680       ?slot_scriptDirty@bCommandMainWindow@@QAEX_N@Z 00404680 f   bcommandmainwindow.obj
 0001:00003960       ?promptForSave@bCommandMainWindow@@AAE_NXZ 00404960 f   bcommandmainwindow.obj
 0001:00003b10       ?cccDisconnected@bCommandMainWindow@@MAEXXZ 00404b10 f   bcommandmainwindow.obj
 0001:00003b10       ?aboutToQuit@bCommandMainWindow@@QAEXXZ 00404b10 f   bcommandmainwindow.obj
 0001:00003b20       ?derefAndDelete@?$QValueListPrivate@VQString@@@@QAEXXZ 00404b20 f i bcommandmainwindow.obj
 0001:00003b40       ??_E?$QValueListNode@VQString@@@@UAEPAXI@Z 00404b40 f i bcommandmainwindow.obj
 0001:00003b40       ??_G?$QValueListNode@VQString@@@@UAEPAXI@Z 00404b40 f i bcommandmainwindow.obj
 0001:00003b60       ??1?$QValueListNode@VQString@@@@UAE@XZ 00404b60 f i bcommandmainwindow.obj
 0001:00003b90       ??0?$QValueListPrivate@VQString@@@@QAE@XZ 00404b90 f i bcommandmainwindow.obj
 0001:00003c30       ?insert@?$QValueListPrivate@VQString@@@@QAE?AV?$QValueListIterator@VQString@@@@V2@ABVQString@@@Z 00404c30 f i bcommandmainwindow.obj
 0001:00003cb0       ?remove@?$QValueListPrivate@VQString@@@@QAE?AV?$QValueListIterator@VQString@@@@V2@@Z 00404cb0 f i bcommandmainwindow.obj
 0001:00003d10       ?find@?$QValueListPrivate@VQString@@@@QBEPAV?$QValueListNode@VQString@@@@PAV2@ABVQString@@@Z 00404d10 f i bcommandmainwindow.obj
 0001:00003d50       ??_E?$QValueListPrivate@VQString@@@@UAEPAXI@Z 00404d50 f i bcommandmainwindow.obj
 0001:00003d50       ??_G?$QValueListPrivate@VQString@@@@UAEPAXI@Z 00404d50 f i bcommandmainwindow.obj
 0001:00003da0       ??0?$QValueListPrivate@VQString@@@@QAE@ABV0@@Z 00404da0 f i bcommandmainwindow.obj
 0001:00003e80       ?clear@?$QValueListPrivate@VQString@@@@QAEXXZ 00404e80 f i bcommandmainwindow.obj
 0001:00003ec0       ??_EQPopupMenu@@WCI@AEPAXI@Z 00404ec0 f i bcommandmainwindow.obj
 0001:00003ed0       ??_EQPopupMenu@@WIM@AEPAXI@Z 00404ed0 f i bcommandmainwindow.obj
 0001:00003ee0       ??_EQPushButton@@WCI@AEPAXI@Z 00404ee0 f i bcommandmainwindow.obj
 0001:00003ef0       ??_EQLabel@@WCI@AEPAXI@Z   00404ef0 f i bcommandmainwindow.obj
 0001:00003f00       ??_EQHBoxLayout@@WCI@AEPAXI@Z 00404f00 f i bcommandmainwindow.obj
 0001:00003f10       ??_EQVBoxLayout@@WCI@AEPAXI@Z 00404f10 f i bcommandmainwindow.obj
 0001:00003f20       ??_EQToolBar@@WCI@AEPAXI@Z 00404f20 f i bcommandmainwindow.obj
 0001:00003f30       ??_EQFrame@@WCI@AEPAXI@Z   00404f30 f i bcommandmainwindow.obj
 0001:00003f40       ??_EQSpinBox@@WCI@AEPAXI@Z 00404f40 f i bcommandmainwindow.obj
 0001:00003f50       ??_EQSpinBox@@WGM@AEPAXI@Z 00404f50 f i bcommandmainwindow.obj
 0001:00003f60       ??_EQCheckBox@@WCI@AEPAXI@Z 00404f60 f i bcommandmainwindow.obj
 0001:00003f70       ??_EbCommandMainWindow@@WCI@AEPAXI@Z 00404f70 f i bcommandmainwindow.obj
 0001:00003f80       ??0commandEdit@@QAE@PAVQWidget@@PBD@Z 00404f80 f   commandEdit.obj
 0001:00004000       ?metaObject@commandEdit@@UBEPAVQMetaObject@@XZ 00405000 f i commandEdit.obj
 0001:00004010       ??_EcommandEdit@@UAEPAXI@Z 00405010 f i commandEdit.obj
 0001:00004010       ??_GcommandEdit@@UAEPAXI@Z 00405010 f i commandEdit.obj
 0001:00004030       ??1commandEdit@@UAE@XZ     00405030 f   commandEdit.obj
 0001:00004050       ?keyPressEvent@commandEdit@@MAEXPAVQKeyEvent@@@Z 00405050 f   commandEdit.obj
 0001:00004090       ?slot_thisTextChanged@commandEdit@@QAEXABVQString@@@Z 00405090 f   commandEdit.obj
 0001:000040b0       ??_EcommandEdit@@WCI@AEPAXI@Z 004050b0 f i commandEdit.obj
 0001:000040c0       ??0command@@QAE@PAVQWidget@@PBDI@Z 004050c0 f   commandimpl.obj
 0001:000044f0       ?metaObject@command@@UBEPAVQMetaObject@@XZ 004054f0 f i commandimpl.obj
 0001:00004500       ??_Gcommand@@UAEPAXI@Z     00405500 f i commandimpl.obj
 0001:00004500       ??_Ecommand@@UAEPAXI@Z     00405500 f i commandimpl.obj
 0001:00004520       ??1command@@UAE@XZ         00405520 f   commandimpl.obj
 0001:00004580       ?allGo@command@@QAEXXZ     00405580 f   commandimpl.obj
 0001:000045b0       ?save@command@@QAE?AVQStringList@@XZ 004055b0 f   commandimpl.obj
 0001:00004710       ?loadSettings@command@@QAEXVQStringList@@@Z 00405710 f   commandimpl.obj
 0001:000047c0       ?clear@command@@QAEXXZ     004057c0 f   commandimpl.obj
 0001:000047f0       ?setCheckBoxes@command@@QAEXXZ 004057f0 f   commandimpl.obj
 0001:00004900       ?slot_hasChanged@command@@QAEXXZ 00405900 f   commandimpl.obj
 0001:00004910       ?dirty@command@@QAEX_N@Z   00405910 f   commandimpl.obj
 0001:00004920       ?count@?$QPtrList@VcommandLine@@@@UBEIXZ 00405920 f i commandimpl.obj
 0001:00004930       ?clear@?$QPtrList@VcommandLine@@@@UAEXXZ 00405930 f i commandimpl.obj
 0001:00004940       ??_G?$QPtrList@VcommandLine@@@@UAEPAXI@Z 00405940 f i commandimpl.obj
 0001:00004940       ??_E?$QPtrList@VcommandLine@@@@UAEPAXI@Z 00405940 f i commandimpl.obj
 0001:00004960       ??1?$QPtrList@VcommandLine@@@@UAE@XZ 00405960 f i commandimpl.obj
 0001:000049c0       ?deleteItem@?$QPtrList@VcommandLine@@@@EAEXPAX@Z 004059c0 f i commandimpl.obj
 0001:000049e0       ??_Ecommand@@WCI@AEPAXI@Z  004059e0 f i commandimpl.obj
 0001:00004b90       ??0commandLine@@QAE@PAVQWidget@@PBDI@Z 00405b90 f   commandLine.obj
 0001:00004e10       ?metaObject@commandLine@@UBEPAVQMetaObject@@XZ 00405e10 f i commandLine.obj
 0001:00004e20       ??_GcommandLine@@UAEPAXI@Z 00405e20 f i commandLine.obj
 0001:00004e20       ??_EcommandLine@@UAEPAXI@Z 00405e20 f i commandLine.obj
 0001:00004e40       ??_Gbncs_shim_loader@@UAEPAXI@Z 00405e40 f i commandLine.obj
 0001:00004e40       ??_Ebncs_shim_loader@@UAEPAXI@Z 00405e40 f i commandLine.obj
 0001:00004e60       ??1commandLine@@UAE@XZ     00405e60 f   commandLine.obj
 0001:00004ec0       ?sendCommand@commandLine@@QAEXXZ 00405ec0 f   commandLine.obj
 0001:00005a50       ?saveSetting@commandLine@@QAE?AVQString@@XZ 00406a50 f   commandLine.obj
 0001:00005b50       ?loadSetting@commandLine@@QAE_NVQString@@@Z 00406b50 f   commandLine.obj
 0001:00005d00       ?autoGo@commandLine@@QAEXXZ 00406d00 f   commandLine.obj
 0001:00005d40       ?timerEvent@commandLine@@MAEXPAVQTimerEvent@@@Z 00406d40 f   commandLine.obj
 0001:00005d80       ?clear@commandLine@@QAEXXZ 00406d80 f   commandLine.obj
 0001:00005da0       ?setTickBox@commandLine@@QAEX_N@Z 00406da0 f   commandLine.obj
 0001:00005dc0       ?nextCommand@commandLine@@IAEXXZ 00406dc0 f   commandLine.obj
 0001:00005de0       ?prevCommand@commandLine@@IAEXXZ 00406de0 f   commandLine.obj
 0001:00005e00       ?setEdit@commandLine@@IAEXH@Z 00406e00 f   commandLine.obj
 0001:00005e30       ?performMaths@commandLine@@AAEXVQString@@@Z 00406e30 f   commandLine.obj
 0001:00006f10       ?getMathsValue@commandLine@@AAEHVQString@@@Z 00407f10 f   commandLine.obj
 0001:00007040       ?setMathsVariable@commandLine@@AAEXVQString@@H@Z 00408040 f   commandLine.obj
 0001:00007260       ?replaceVariables@commandLine@@AAE?AVQString@@V2@@Z 00408260 f   commandLine.obj
 0001:000075e0       ?getStringValue@commandLine@@AAE?AVQString@@V2@@Z 004085e0 f   commandLine.obj
 0001:00007780       ?setStringVariable@commandLine@@AAEXVQString@@0@Z 00408780 f   commandLine.obj
 0001:000079d0       ?setString@commandLine@@AAEXVQString@@@Z 004089d0 f   commandLine.obj
 0001:00008000       ?setWhatsThis@commandLine@@AAEXXZ 00409000 f   commandLine.obj
 0001:00008120       ??1?$QMapNode@VQString@@V1@@@QAE@XZ 00409120 f i commandLine.obj
 0001:000081a0       ??1?$QMapNode@VQString@@H@@QAE@XZ 004091a0 f i commandLine.obj
 0001:000081c0       ?find@?$QMapPrivate@VQString@@H@@QBE?AV?$QMapConstIterator@VQString@@H@@ABVQString@@@Z 004091c0 f i commandLine.obj
 0001:000081c0       ?find@?$QMapPrivate@VQString@@V1@@@QBE?AV?$QMapConstIterator@VQString@@V1@@@ABVQString@@@Z 004091c0 f i commandLine.obj
 0001:00008230       ?clear@?$QMapPrivate@VQString@@V1@@@QAEXPAU?$QMapNode@VQString@@V1@@@@Z 00409230 f i commandLine.obj
 0001:00008270       ?insertSingle@?$QMapPrivate@VQString@@V1@@@QAE?AV?$QMapIterator@VQString@@V1@@@ABVQString@@@Z 00409270 f i commandLine.obj
 0001:00008350       ?clear@?$QMapPrivate@VQString@@H@@QAEXPAU?$QMapNode@VQString@@H@@@Z 00409350 f i commandLine.obj
 0001:00008390       ?insertSingle@?$QMapPrivate@VQString@@H@@QAE?AV?$QMapIterator@VQString@@H@@ABVQString@@@Z 00409390 f i commandLine.obj
 0001:00008470       ?insert@?$QMapPrivate@VQString@@V1@@@QAE?AV?$QMapIterator@VQString@@V1@@@PAUQMapNodeBase@@0ABVQString@@@Z 00409470 f i commandLine.obj
 0001:000085a0       ?insert@?$QMapPrivate@VQString@@H@@QAE?AV?$QMapIterator@VQString@@H@@PAUQMapNodeBase@@0ABVQString@@@Z 004095a0 f i commandLine.obj
 0001:000086b0       ??_EcommandLine@@WCI@AEPAXI@Z 004096b0 f i commandLine.obj
 0001:000086c0       _main                      004096c0 f   main.obj
 0001:000088f0       ?className@commandEdit@@UBEPBDXZ 004098f0 f   moc_commandEdit.obj
 0001:00008950       ?staticMetaObject@commandEdit@@SAPAVQMetaObject@@XZ 00409950 f   moc_commandEdit.obj
 0001:000089e0       ?qt_cast@commandEdit@@UAEPAXPBD@Z 004099e0 f   moc_commandEdit.obj
 0001:00008a50       ?nextEdit@commandEdit@@IAEXXZ 00409a50 f   moc_commandEdit.obj
 0001:00008a70       ?previousEdit@commandEdit@@IAEXXZ 00409a70 f   moc_commandEdit.obj
 0001:00008a90       ?modified@commandEdit@@IAEXXZ 00409a90 f   moc_commandEdit.obj
 0001:00008ab0       ?qt_invoke@commandEdit@@UAE_NHPAUQUObject@@@Z 00409ab0 f   moc_commandEdit.obj
 0001:00008af0       ?qt_emit@commandEdit@@UAE_NHPAUQUObject@@@Z 00409af0 f   moc_commandEdit.obj
 0001:00008b50       ?qt_property@commandEdit@@UAE_NHHPAVQVariant@@@Z 00409b50 f   moc_commandEdit.obj
 0001:00008b70       ??0revertiveImpl@@QAE@PAVQWidget@@PBDI@Z 00409b70 f   revertiveImpl.obj
 0001:00008d60       ?metaObject@revertiveImpl@@UBEPAVQMetaObject@@XZ 00409d60 f i revertiveImpl.obj
 0001:00008d70       ??_ErevertiveImpl@@UAEPAXI@Z 00409d70 f i revertiveImpl.obj
 0001:00008d70       ??_GrevertiveImpl@@UAEPAXI@Z 00409d70 f i revertiveImpl.obj
 0001:00008d90       ??1revertiveImpl@@UAE@XZ   00409d90 f   revertiveImpl.obj
 0001:00008e20       ?addRegistration@revertiveImpl@@QAEXXZ 00409e20 f   revertiveImpl.obj
 0001:00008e70       ?slot_addRegistration@revertiveImpl@@QAEXABH00@Z 00409e70 f   revertiveImpl.obj
 0001:00008ea0       ?addRegistration@revertiveImpl@@QAEXABH00@Z 00409ea0 f   revertiveImpl.obj
 0001:00009100       ?logRevertiveToDisplay@revertiveImpl@@QAEXABVQString@@@Z 0040a100 f   revertiveImpl.obj
 0001:00009260       ?cccInfoRevertive@revertiveImpl@@EAEXHHABV?$basic_string@DU?$char_traits@D@std@@V?$allocator@D@2@@std@@@Z 0040a260 f   revertiveImpl.obj
 0001:000093e0       ?cccRtrRevertive@revertiveImpl@@EAEXHHH@Z 0040a3e0 f   revertiveImpl.obj
 0001:00009520       ?cccGpiRevertive@revertiveImpl@@EAEXHH_N@Z 0040a520 f   revertiveImpl.obj
 0001:00009660       ?cccDatabaseChange@revertiveImpl@@EAEXHHH@Z 0040a660 f   revertiveImpl.obj
 0001:000097a0       ?cccDisconnected@revertiveImpl@@EAEXXZ 0040a7a0 f   revertiveImpl.obj
 0001:000097c0       ?save@revertiveImpl@@QAE?AVQStringList@@XZ 0040a7c0 f   revertiveImpl.obj
 0001:00009910       ?loadSettings@revertiveImpl@@QAEXVQStringList@@@Z 0040a910 f   revertiveImpl.obj
 0001:00009c80       ?setLogLength@revertiveImpl@@QAEXH@Z 0040ac80 f   revertiveImpl.obj
 0001:00009cc0       ?clear@revertiveImpl@@QAEXXZ 0040acc0 f   revertiveImpl.obj
 0001:00009d00       ?pauseDisplay@revertiveImpl@@QAEX_N@Z 0040ad00 f   revertiveImpl.obj
 0001:00009d10       ??_ErevertiveImpl@@WCI@AEPAXI@Z 0040ad10 f i revertiveImpl.obj
 0001:00009d20       ?className@bCommandMainWindow@@UBEPBDXZ 0040ad20 f   moc_bcommandmainwindow.obj
 0001:00009d80       ?staticMetaObject@bCommandMainWindow@@SAPAVQMetaObject@@XZ 0040ad80 f   moc_bcommandmainwindow.obj
 0001:00009ea0       ?qt_cast@bCommandMainWindow@@UAEPAXPBD@Z 0040aea0 f   moc_bcommandmainwindow.obj
 0001:00009f80       ?qt_invoke@bCommandMainWindow@@UAE_NHPAUQUObject@@@Z 0040af80 f   moc_bcommandmainwindow.obj
 0001:0000a0e0       ?qt_emit@bCommandMainWindow@@UAE_NHPAUQUObject@@@Z 0040b0e0 f   moc_bcommandmainwindow.obj
 0001:0000a100       ?qt_property@bCommandMainWindow@@UAE_NHHPAVQVariant@@@Z 0040b100 f   moc_bcommandmainwindow.obj
 0001:0000a120       ?className@command@@UBEPBDXZ 0040b120 f   moc_commandimpl.obj
 0001:0000a180       ?staticMetaObject@command@@SAPAVQMetaObject@@XZ 0040b180 f   moc_commandimpl.obj
 0001:0000a310       ?qt_cast@command@@UAEPAXPBD@Z 0040b310 f   moc_commandimpl.obj
 0001:0000a380       ?sig_commandChanged@command@@IAEX_N@Z 0040b380 f   moc_commandimpl.obj
 0001:0000a3a0       ?sig_commandRegisterFor@command@@IAEXABH00@Z 0040b3a0 f   moc_commandimpl.obj
 0001:0000a4a0       ?qt_invoke@command@@UAE_NHPAUQUObject@@@Z 0040b4a0 f   moc_commandimpl.obj
 0001:0000a670       ?qt_emit@command@@UAE_NHPAUQUObject@@@Z 0040b670 f   moc_commandimpl.obj
 0001:0000a6d0       ?qt_property@command@@UAE_NHHPAVQVariant@@@Z 0040b6d0 f   moc_commandimpl.obj
 0001:0000a6d0       ?qt_property@commandLine@@UAE_NHHPAVQVariant@@@Z 0040b6d0 f   moc_commandimpl.obj
 0001:0000a6d0       ?qt_property@revertiveDisplay@@UAE_NHHPAVQVariant@@@Z 0040b6d0 f   moc_commandimpl.obj
 0001:0000a6f0       ?className@commandLine@@UBEPBDXZ 0040b6f0 f   moc_commandLine.obj
 0001:0000a750       ?staticMetaObject@commandLine@@SAPAVQMetaObject@@XZ 0040b750 f   moc_commandLine.obj
 0001:0000a8e0       ?qt_cast@commandLine@@UAEPAXPBD@Z 0040b8e0 f   moc_commandLine.obj
 0001:0000a950       ?nextEdit@commandLine@@IAEXH@Z 0040b950 f   moc_commandLine.obj
 0001:0000a970       ?previousEdit@commandLine@@IAEXH@Z 0040b970 f   moc_commandLine.obj
 0001:0000a990       ?sig_commandLineModified@commandLine@@IAEXXZ 0040b990 f   moc_commandLine.obj
 0001:0000a9b0       ?sig_commandLineRegisterFor@commandLine@@IAEXABH00@Z 0040b9b0 f   moc_commandLine.obj
 0001:0000aab0       ?qt_invoke@commandLine@@UAE_NHPAUQUObject@@@Z 0040bab0 f   moc_commandLine.obj
 0001:0000acc0       ?qt_emit@commandLine@@UAE_NHPAUQUObject@@@Z 0040bcc0 f   moc_commandLine.obj
 0001:0000ad60       ?className@revertiveDisplay@@UBEPBDXZ 0040bd60 f   moc_revertiveDisplay.obj
 0001:0000adc0       ?tr@revertiveDisplay@@SA?AVQString@@PBD0@Z 0040bdc0 f   moc_revertiveDisplay.obj
 0001:0000ae10       ?staticMetaObject@revertiveDisplay@@SAPAVQMetaObject@@XZ 0040be10 f   moc_revertiveDisplay.obj
 0001:0000ae60       ?qt_cast@revertiveDisplay@@UAEPAXPBD@Z 0040be60 f   moc_revertiveDisplay.obj
 0001:0000aed0       ?qt_invoke@revertiveDisplay@@UAE_NHPAUQUObject@@@Z 0040bed0 f   moc_revertiveDisplay.obj
 0001:0000af10       ?qt_emit@revertiveDisplay@@UAE_NHPAUQUObject@@@Z 0040bf10 f   moc_revertiveDisplay.obj
 0001:0000af30       ?className@revertiveImpl@@UBEPBDXZ 0040bf30 f   moc_revertiveImpl.obj
 0001:0000af90       ?staticMetaObject@revertiveImpl@@SAPAVQMetaObject@@XZ 0040bf90 f   moc_revertiveImpl.obj
 0001:0000b190       ?qt_cast@revertiveImpl@@UAEPAXPBD@Z 0040c190 f   moc_revertiveImpl.obj
 0001:0000b270       ?qt_invoke@revertiveImpl@@UAE_NHPAUQUObject@@@Z 0040c270 f   moc_revertiveImpl.obj
 0001:0000b4d0       ?qt_emit@revertiveImpl@@UAE_NHPAUQUObject@@@Z 0040c4d0 f   moc_revertiveImpl.obj
 0001:0000b4f0       ?qt_property@revertiveImpl@@UAE_NHHPAVQVariant@@@Z 0040c4f0 f   moc_revertiveImpl.obj
 0001:0000b510       ??0revertiveDisplay@@QAE@PAVQWidget@@PBDI@Z 0040c510 f   revertiveDisplay.obj
 0001:0000bf30       ?metaObject@revertiveDisplay@@UBEPAVQMetaObject@@XZ 0040cf30 f i revertiveDisplay.obj
 0001:0000bf40       ??_ErevertiveDisplay@@UAEPAXI@Z 0040cf40 f i revertiveDisplay.obj
 0001:0000bf40       ??_GrevertiveDisplay@@UAEPAXI@Z 0040cf40 f i revertiveDisplay.obj
 0001:0000bf60       ??_EQGridLayout@@UAEPAXI@Z 0040cf60 f i revertiveDisplay.obj
 0001:0000bf60       ??_GQGridLayout@@UAEPAXI@Z 0040cf60 f i revertiveDisplay.obj
 0001:0000bf80       ??_GQTextEdit@@UAEPAXI@Z   0040cf80 f i revertiveDisplay.obj
 0001:0000bf80       ??_EQTextEdit@@UAEPAXI@Z   0040cf80 f i revertiveDisplay.obj
 0001:0000bfa0       ??_GQListBox@@UAEPAXI@Z    0040cfa0 f i revertiveDisplay.obj
 0001:0000bfa0       ??_EQListBox@@UAEPAXI@Z    0040cfa0 f i revertiveDisplay.obj
 0001:0000bfc0       ??_GQGroupBox@@UAEPAXI@Z   0040cfc0 f i revertiveDisplay.obj
 0001:0000bfc0       ??_EQGroupBox@@UAEPAXI@Z   0040cfc0 f i revertiveDisplay.obj
 0001:0000bfe0       ??_EQLineEdit@@UAEPAXI@Z   0040cfe0 f i revertiveDisplay.obj
 0001:0000bfe0       ??_GQLineEdit@@UAEPAXI@Z   0040cfe0 f i revertiveDisplay.obj
 0001:0000c000       ??1revertiveDisplay@@UAE@XZ 0040d000 f   revertiveDisplay.obj
 0001:0000c020       ?languageChange@revertiveDisplay@@MAEXXZ 0040d020 f   revertiveDisplay.obj
 0001:0000c3a0       ??_EQTextEdit@@WCI@AEPAXI@Z 0040d3a0 f i revertiveDisplay.obj
 0001:0000c3b0       ??_EQListBox@@WCI@AEPAXI@Z 0040d3b0 f i revertiveDisplay.obj
 0001:0000c3c0       ??_EQGroupBox@@WCI@AEPAXI@Z 0040d3c0 f i revertiveDisplay.obj
 0001:0000c3d0       ??_EQLineEdit@@WCI@AEPAXI@Z 0040d3d0 f i revertiveDisplay.obj
 0001:0000c3e0       ??_ErevertiveDisplay@@WCI@AEPAXI@Z 0040d3e0 f i revertiveDisplay.obj
 0001:0000c3f0       ??_EQGridLayout@@WCI@AEPAXI@Z 0040d3f0 f i revertiveDisplay.obj
 0001:0000c400       ??0cBncsVersion@@QAE@PBD@Z 0040d400 f   BncsVersionInfo:cBncsVersion.obj
 0001:0000c910       ??_EcBncsVersion@@UAEPAXI@Z 0040d910 f i BncsVersionInfo:cBncsVersion.obj
 0001:0000c910       ??_GcBncsVersion@@UAEPAXI@Z 0040d910 f i BncsVersionInfo:cBncsVersion.obj
 0001:0000c930       ??1cBncsVersion@@UAE@XZ    0040d930 f   BncsVersionInfo:cBncsVersion.obj
 0001:0000ca10       ?connect@ccClient@@QAE_NW4ipcType@cc@@J@Z 0040da10 f   bncs_shim_loader:bncs_shim_loader.dll
 0001:0000ca16       ??0ccClient@@QAE@PAVIccClientCallback@@ABV?$basic_string@DU?$char_traits@D@std@@V?$allocator@D@2@@std@@@Z 0040da16 f   bncs_shim_loader:bncs_shim_loader.dll
 0001:0000ca20       ??0decodeBNCSString@@QAE@PBDD@Z 0040da20 f   decodecaptionstring:decodeBNCSString.obj
 0001:0000cb70       ??_GdecodeBNCSString@@UAEPAXI@Z 0040db70 f i decodecaptionstring:decodeBNCSString.obj
 0001:0000cb70       ??_EdecodeBNCSString@@UAEPAXI@Z 0040db70 f i decodecaptionstring:decodeBNCSString.obj
 0001:0000cb90       ??1decodeBNCSString@@UAE@XZ 0040db90 f   decodecaptionstring:decodeBNCSString.obj
 0001:0000cbb0       ?setToolTipGroup@QMainWindow@@EAEXPAVQToolTipGroup@@@Z 0040dbb0 f   qt-mt323:qt-mt323.dll
 0001:0000cbb6       ?setStatusBar@QMainWindow@@EAEXPAVQStatusBar@@@Z 0040dbb6 f   qt-mt323:qt-mt323.dll
 0001:0000cbbc       ?setMenuBar@QMainWindow@@EAEXPAVQMenuBar@@@Z 0040dbbc f   qt-mt323:qt-mt323.dll
 0001:0000cbc2       ?showDockMenu@QMainWindow@@MAE_NABVQPoint@@@Z 0040dbc2 f   qt-mt323:qt-mt323.dll
 0001:0000cbc8       ?setUpLayout@QMainWindow@@MAEXXZ 0040dbc8 f   qt-mt323:qt-mt323.dll
 0001:0000cbce       ?customize@QMainWindow@@UAEXXZ 0040dbce f   qt-mt323:qt-mt323.dll
 0001:0000cbd4       ?setAppropriate@QMainWindow@@UAEXPAVQDockWindow@@_N@Z 0040dbd4 f   qt-mt323:qt-mt323.dll
 0001:0000cbda       ?whatsThis@QMainWindow@@UAEXXZ 0040dbda f   qt-mt323:qt-mt323.dll
 0001:0000cbe0       ?setDockMenuEnabled@QMainWindow@@UAEX_N@Z 0040dbe0 f   qt-mt323:qt-mt323.dll
 0001:0000cbe6       ?setOpaqueMoving@QMainWindow@@UAEX_N@Z 0040dbe6 f   qt-mt323:qt-mt323.dll
 0001:0000cbec       ?setDockWindowsMovable@QMainWindow@@UAEX_N@Z 0040dbec f   qt-mt323:qt-mt323.dll
 0001:0000cbf2       ?setUsesTextLabel@QMainWindow@@UAEX_N@Z 0040dbf2 f   qt-mt323:qt-mt323.dll
 0001:0000cbf8       ?setUsesBigPixmaps@QMainWindow@@UAEX_N@Z 0040dbf8 f   qt-mt323:qt-mt323.dll
 0001:0000cbfe       ?setRightJustification@QMainWindow@@UAEX_N@Z 0040dbfe f   qt-mt323:qt-mt323.dll
 0001:0000cc04       ?isCustomizable@QMainWindow@@UBE_NXZ 0040dc04 f   qt-mt323:qt-mt323.dll
 0001:0000cc0a       ?dockingArea@QMainWindow@@UAEPAVQDockArea@@ABVQPoint@@@Z 0040dc0a f   qt-mt323:qt-mt323.dll
 0001:0000cc10       ?removeDockWindow@QMainWindow@@UAEXPAVQDockWindow@@@Z 0040dc10 f   qt-mt323:qt-mt323.dll
 0001:0000cc16       ?moveDockWindow@QMainWindow@@UAEXPAVQDockWindow@@W4Dock@Qt@@@Z 0040dc16 f   qt-mt323:qt-mt323.dll
 0001:0000cc1c       ?moveDockWindow@QMainWindow@@UAEXPAVQDockWindow@@W4Dock@Qt@@_NHH@Z 0040dc1c f   qt-mt323:qt-mt323.dll
 0001:0000cc22       ?addDockWindow@QMainWindow@@UAEXPAVQDockWindow@@W4Dock@Qt@@_N@Z 0040dc22 f   qt-mt323:qt-mt323.dll
 0001:0000cc28       ?addDockWindow@QMainWindow@@UAEXPAVQDockWindow@@ABVQString@@W4Dock@Qt@@_N@Z 0040dc28 f   qt-mt323:qt-mt323.dll
 0001:0000cc2e       ?setDockEnabled@QMainWindow@@UAEXW4Dock@Qt@@_N@Z 0040dc2e f   qt-mt323:qt-mt323.dll
 0001:0000cc34       ?setDockEnabled@QMainWindow@@UAEXPAVQDockWindow@@W4Dock@Qt@@_N@Z 0040dc34 f   qt-mt323:qt-mt323.dll
 0001:0000cc3a       ?setCentralWidget@QMainWindow@@UAEXPAVQWidget@@@Z 0040dc3a f   qt-mt323:qt-mt323.dll
 0001:0000cc40       ?styleChange@QMainWindow@@MAEXAAVQStyle@@@Z 0040dc40 f   qt-mt323:qt-mt323.dll
 0001:0000cc46       ?resizeEvent@QWidget@@MAEXPAVQResizeEvent@@@Z 0040dc46 f   qt-mt323:qt-mt323.dll
 0001:0000cc4c       ?paintEvent@QMainWindow@@MAEXPAVQPaintEvent@@@Z 0040dc4c f   qt-mt323:qt-mt323.dll
 0001:0000cc52       ?minimumSizeHint@QMainWindow@@UBE?AVQSize@@XZ 0040dc52 f   qt-mt323:qt-mt323.dll
 0001:0000cc58       ?sizeHint@QMainWindow@@UBE?AVQSize@@XZ 0040dc58 f   qt-mt323:qt-mt323.dll
 0001:0000cc5e       ?hide@QMainWindow@@UAEXXZ  0040dc5e f   qt-mt323:qt-mt323.dll
 0001:0000cc64       ?show@QMainWindow@@UAEXXZ  0040dc64 f   qt-mt323:qt-mt323.dll
 0001:0000cc6a       ?childEvent@QMainWindow@@MAEXPAVQChildEvent@@@Z 0040dc6a f   qt-mt323:qt-mt323.dll
 0001:0000cc70       ?eventFilter@QMainWindow@@UAE_NPAVQObject@@PAVQEvent@@@Z 0040dc70 f   qt-mt323:qt-mt323.dll
 0001:0000cc76       ?event@QMainWindow@@MAE_NPAVQEvent@@@Z 0040dc76 f   qt-mt323:qt-mt323.dll
 0001:0000cc7c       ?setEnabled@QAction@@UAEX_N@Z 0040dc7c f   qt-mt323:qt-mt323.dll
 0001:0000cc82       ?setOn@QAction@@UAEX_N@Z   0040dc82 f   qt-mt323:qt-mt323.dll
 0001:0000cc88       ?addedTo@QAction@@MAEXPAVQWidget@@0@Z 0040dc88 f   qt-mt323:qt-mt323.dll
 0001:0000cc8e       ?addedTo@QAction@@MAEXHPAVQPopupMenu@@@Z 0040dc8e f   qt-mt323:qt-mt323.dll
 0001:0000cc94       ?removeFrom@QAction@@UAE_NPAVQWidget@@@Z 0040dc94 f   qt-mt323:qt-mt323.dll
 0001:0000cc9a       ?addTo@QAction@@UAE_NPAVQWidget@@@Z 0040dc9a f   qt-mt323:qt-mt323.dll
 0001:0000cca0       ?setToggleAction@QAction@@UAEX_N@Z 0040dca0 f   qt-mt323:qt-mt323.dll
 0001:0000cca6       ?setAccel@QAction@@UAEXABVQKeySequence@@@Z 0040dca6 f   qt-mt323:qt-mt323.dll
 0001:0000ccac       ?setWhatsThis@QAction@@UAEXABVQString@@@Z 0040dcac f   qt-mt323:qt-mt323.dll
 0001:0000ccb2       ?setStatusTip@QAction@@UAEXABVQString@@@Z 0040dcb2 f   qt-mt323:qt-mt323.dll
 0001:0000ccb8       ?setToolTip@QAction@@UAEXABVQString@@@Z 0040dcb8 f   qt-mt323:qt-mt323.dll
 0001:0000ccbe       ?setMenuText@QAction@@UAEXABVQString@@@Z 0040dcbe f   qt-mt323:qt-mt323.dll
 0001:0000ccc4       ?setText@QAction@@UAEXABVQString@@@Z 0040dcc4 f   qt-mt323:qt-mt323.dll
 0001:0000ccca       ?setIconSet@QAction@@UAEXABVQIconSet@@@Z 0040dcca f   qt-mt323:qt-mt323.dll
 0001:0000ccd0       ?qt_property@QAction@@UAE_NHHPAVQVariant@@@Z 0040dcd0 f   qt-mt323:qt-mt323.dll
 0001:0000ccd6       ?qt_emit@QAction@@UAE_NHPAUQUObject@@@Z 0040dcd6 f   qt-mt323:qt-mt323.dll
 0001:0000ccdc       ?qt_invoke@QAction@@UAE_NHPAUQUObject@@@Z 0040dcdc f   qt-mt323:qt-mt323.dll
 0001:0000cce2       ?qt_cast@QAction@@UAEPAXPBD@Z 0040dce2 f   qt-mt323:qt-mt323.dll
 0001:0000cce8       ?className@QAction@@UBEPBDXZ 0040dce8 f   qt-mt323:qt-mt323.dll
 0001:0000ccee       ?metaObject@QAction@@UBEPAVQMetaObject@@XZ 0040dcee f   qt-mt323:qt-mt323.dll
 0001:0000ccf4       ?drawButtonLabel@QCheckBox@@MAEXPAVQPainter@@@Z 0040dcf4 f   qt-mt323:qt-mt323.dll
 0001:0000ccfa       ?drawButton@QCheckBox@@MAEXPAVQPainter@@@Z 0040dcfa f   qt-mt323:qt-mt323.dll
 0001:0000cd00       ?hitButton@QCheckBox@@MBE_NABVQPoint@@@Z 0040dd00 f   qt-mt323:qt-mt323.dll
 0001:0000cd06       ?updateMask@QCheckBox@@MAEXXZ 0040dd06 f   qt-mt323:qt-mt323.dll
 0001:0000cd0c       ?resizeEvent@QCheckBox@@MAEXPAVQResizeEvent@@@Z 0040dd0c f   qt-mt323:qt-mt323.dll
 0001:0000cd12       ?focusOutEvent@QButton@@MAEXPAVQFocusEvent@@@Z 0040dd12 f   qt-mt323:qt-mt323.dll
 0001:0000cd18       ?focusInEvent@QButton@@MAEXPAVQFocusEvent@@@Z 0040dd18 f   qt-mt323:qt-mt323.dll
 0001:0000cd1e       ?sizeHint@QCheckBox@@UBE?AVQSize@@XZ 0040dd1e f   qt-mt323:qt-mt323.dll
 0001:0000cd24       ?qt_property@QCheckBox@@UAE_NHHPAVQVariant@@@Z 0040dd24 f   qt-mt323:qt-mt323.dll
 0001:0000cd2a       ?qt_emit@QCheckBox@@UAE_NHPAUQUObject@@@Z 0040dd2a f   qt-mt323:qt-mt323.dll
 0001:0000cd30       ?qt_invoke@QCheckBox@@UAE_NHPAUQUObject@@@Z 0040dd30 f   qt-mt323:qt-mt323.dll
 0001:0000cd36       ?qt_cast@QCheckBox@@UAEPAXPBD@Z 0040dd36 f   qt-mt323:qt-mt323.dll
 0001:0000cd3c       ?className@QCheckBox@@UBEPBDXZ 0040dd3c f   qt-mt323:qt-mt323.dll
 0001:0000cd42       ?metaObject@QCheckBox@@UBEPAVQMetaObject@@XZ 0040dd42 f   qt-mt323:qt-mt323.dll
 0001:0000cd48       ?stepChange@QRangeControl@@MAEXXZ 0040dd48 f   qt-mt323:qt-mt323.dll
 0001:0000cd4e       ?rangeChange@QSpinBox@@MAEXXZ 0040dd4e f   qt-mt323:qt-mt323.dll
 0001:0000cd54       ?valueChange@QSpinBox@@MAEXXZ 0040dd54 f   qt-mt323:qt-mt323.dll
 0001:0000cd5a       ?interpretText@QSpinBox@@MAEXXZ 0040dd5a f   qt-mt323:qt-mt323.dll
 0001:0000cd60       ?updateDisplay@QSpinBox@@MAEXXZ 0040dd60 f   qt-mt323:qt-mt323.dll
 0001:0000cd66       ?mapTextToValue@QSpinBox@@MAEHPA_N@Z 0040dd66 f   qt-mt323:qt-mt323.dll
 0001:0000cd6c       ?mapValueToText@QSpinBox@@MAE?AVQString@@H@Z 0040dd6c f   qt-mt323:qt-mt323.dll
 0001:0000cd72       ?selectAll@QSpinBox@@UAEXXZ 0040dd72 f   qt-mt323:qt-mt323.dll
 0001:0000cd78       ?stepDown@QSpinBox@@UAEXXZ 0040dd78 f   qt-mt323:qt-mt323.dll
 0001:0000cd7e       ?stepUp@QSpinBox@@UAEXXZ   0040dd7e f   qt-mt323:qt-mt323.dll
 0001:0000cd84       ?setSuffix@QSpinBox@@UAEXABVQString@@@Z 0040dd84 f   qt-mt323:qt-mt323.dll
 0001:0000cd8a       ?setPrefix@QSpinBox@@UAEXABVQString@@@Z 0040dd8a f   qt-mt323:qt-mt323.dll
 0001:0000cd90       ?setValue@QSpinBox@@UAEXH@Z 0040dd90 f   qt-mt323:qt-mt323.dll
 0001:0000cd96       ?setValidator@QSpinBox@@UAEXPBVQValidator@@@Z 0040dd96 f   qt-mt323:qt-mt323.dll
 0001:0000cd9c       ?setButtonSymbols@QSpinBox@@UAEXW4ButtonSymbols@1@@Z 0040dd9c f   qt-mt323:qt-mt323.dll
 0001:0000cda2       ?setWrapping@QSpinBox@@UAEX_N@Z 0040dda2 f   qt-mt323:qt-mt323.dll
 0001:0000cda8       ?setSpecialValueText@QSpinBox@@UAEXABVQString@@@Z 0040dda8 f   qt-mt323:qt-mt323.dll
 0001:0000cdae       ?cleanText@QSpinBox@@UBE?AVQString@@XZ 0040ddae f   qt-mt323:qt-mt323.dll
 0001:0000cdb4       ?suffix@QSpinBox@@UBE?AVQString@@XZ 0040ddb4 f   qt-mt323:qt-mt323.dll
 0001:0000cdba       ?prefix@QSpinBox@@UBE?AVQString@@XZ 0040ddba f   qt-mt323:qt-mt323.dll
 0001:0000cdc0       ?styleChange@QSpinBox@@MAEXAAVQStyle@@@Z 0040ddc0 f   qt-mt323:qt-mt323.dll
 0001:0000cdc6       ?resizeEvent@QSpinBox@@MAEXPAVQResizeEvent@@@Z 0040ddc6 f   qt-mt323:qt-mt323.dll
 0001:0000cdcc       ?paintEvent@QWidget@@MAEXPAVQPaintEvent@@@Z 0040ddcc f   qt-mt323:qt-mt323.dll
 0001:0000cdd2       ?leaveEvent@QSpinBox@@MAEXPAVQEvent@@@Z 0040ddd2 f   qt-mt323:qt-mt323.dll
 0001:0000cdd8       ?wheelEvent@QSpinBox@@MAEXPAVQWheelEvent@@@Z 0040ddd8 f   qt-mt323:qt-mt323.dll
 0001:0000cdde       ?minimumSizeHint@QSpinBox@@UBE?AVQSize@@XZ 0040ddde f   qt-mt323:qt-mt323.dll
 0001:0000cde4       ?sizeHint@QSpinBox@@UBE?AVQSize@@XZ 0040dde4 f   qt-mt323:qt-mt323.dll
 0001:0000cdea       ?setEnabled@QSpinBox@@UAEX_N@Z 0040ddea f   qt-mt323:qt-mt323.dll
 0001:0000cdf0       ?eventFilter@QSpinBox@@MAE_NPAVQObject@@PAVQEvent@@@Z 0040ddf0 f   qt-mt323:qt-mt323.dll
 0001:0000cdf6       ?qt_property@QSpinBox@@UAE_NHHPAVQVariant@@@Z 0040ddf6 f   qt-mt323:qt-mt323.dll
 0001:0000cdfc       ?qt_emit@QSpinBox@@UAE_NHPAUQUObject@@@Z 0040ddfc f   qt-mt323:qt-mt323.dll
 0001:0000ce02       ?qt_invoke@QSpinBox@@UAE_NHPAUQUObject@@@Z 0040de02 f   qt-mt323:qt-mt323.dll
 0001:0000ce08       ?qt_cast@QSpinBox@@UAEPAXPBD@Z 0040de08 f   qt-mt323:qt-mt323.dll
 0001:0000ce0e       ?className@QSpinBox@@UBEPBDXZ 0040de0e f   qt-mt323:qt-mt323.dll
 0001:0000ce14       ?metaObject@QSpinBox@@UBEPAVQMetaObject@@XZ 0040de14 f   qt-mt323:qt-mt323.dll
 0001:0000ce1a       ?spacerItem@QSpacerItem@@UAEPAV1@XZ 0040de1a f   qt-mt323:qt-mt323.dll
 0001:0000ce20       ?layout@QLayoutItem@@UAEPAVQLayout@@XZ 0040de20 f   qt-mt323:qt-mt323.dll
 0001:0000ce26       ?iterator@QLayoutItem@@UAE?AVQLayoutIterator@@XZ 0040de26 f   qt-mt323:qt-mt323.dll
 0001:0000ce2c       ?invalidate@QLayoutItem@@UAEXXZ 0040de2c f   qt-mt323:qt-mt323.dll
 0001:0000ce32       ?heightForWidth@QLayoutItem@@UBEHH@Z 0040de32 f   qt-mt323:qt-mt323.dll
 0001:0000ce38       ?hasHeightForWidth@QLayoutItem@@UBE_NXZ 0040de38 f   qt-mt323:qt-mt323.dll
 0001:0000ce3e       ?isEmpty@QSpacerItem@@UBE_NXZ 0040de3e f   qt-mt323:qt-mt323.dll
 0001:0000ce44       ?geometry@QSpacerItem@@UBE?AVQRect@@XZ 0040de44 f   qt-mt323:qt-mt323.dll
 0001:0000ce4a       ?setGeometry@QSpacerItem@@UAEXABVQRect@@@Z 0040de4a f   qt-mt323:qt-mt323.dll
 0001:0000ce50       ?expanding@QSpacerItem@@UBE?AW4ExpandData@QSizePolicy@@XZ 0040de50 f   qt-mt323:qt-mt323.dll
 0001:0000ce56       ?maximumSize@QSpacerItem@@UBE?AVQSize@@XZ 0040de56 f   qt-mt323:qt-mt323.dll
 0001:0000ce5c       ?minimumSize@QSpacerItem@@UBE?AVQSize@@XZ 0040de5c f   qt-mt323:qt-mt323.dll
 0001:0000ce62       ?sizeHint@QSpacerItem@@UBE?AVQSize@@XZ 0040de62 f   qt-mt323:qt-mt323.dll
 0001:0000ce68       ?drawContents@QFrame@@MAEXPAVQPainter@@@Z 0040de68 f   qt-mt323:qt-mt323.dll
 0001:0000ce6e       ?sizeHint@QFrame@@UBE?AVQSize@@XZ 0040de6e f   qt-mt323:qt-mt323.dll
 0001:0000ce74       ?qt_property@QFrame@@UAE_NHHPAVQVariant@@@Z 0040de74 f   qt-mt323:qt-mt323.dll
 0001:0000ce7a       ?qt_emit@QFrame@@UAE_NHPAUQUObject@@@Z 0040de7a f   qt-mt323:qt-mt323.dll
 0001:0000ce80       ?qt_invoke@QFrame@@UAE_NHPAUQUObject@@@Z 0040de80 f   qt-mt323:qt-mt323.dll
 0001:0000ce86       ?qt_cast@QFrame@@UAEPAXPBD@Z 0040de86 f   qt-mt323:qt-mt323.dll
 0001:0000ce8c       ?className@QFrame@@UBEPBDXZ 0040de8c f   qt-mt323:qt-mt323.dll
 0001:0000ce92       ?metaObject@QFrame@@UBEPAVQMetaObject@@XZ 0040de92 f   qt-mt323:qt-mt323.dll
 0001:0000ce98       ?clear@QToolBar@@UAEXXZ    0040de98 f   qt-mt323:qt-mt323.dll
 0001:0000ce9e       ?setLabel@QToolBar@@UAEXABVQString@@@Z 0040de9e f   qt-mt323:qt-mt323.dll
 0001:0000cea4       ?setStretchableWidget@QToolBar@@UAEXPAVQWidget@@@Z 0040dea4 f   qt-mt323:qt-mt323.dll
 0001:0000ceaa       ?setOrientation@QToolBar@@UAEXW4Orientation@Qt@@@Z 0040deaa f   qt-mt323:qt-mt323.dll
 0001:0000ceb0       ?dock@QDockWindow@@UAEXXZ  0040deb0 f   qt-mt323:qt-mt323.dll
 0001:0000ceb6       ?undock@QDockWindow@@UAEXPAVQWidget@@@Z 0040deb6 f   qt-mt323:qt-mt323.dll
 0001:0000cebc       ?undock@QDockWindow@@UAEXXZ 0040debc f   qt-mt323:qt-mt323.dll
 0001:0000cec2       ?setOpaqueMoving@QDockWindow@@UAEX_N@Z 0040dec2 f   qt-mt323:qt-mt323.dll
 0001:0000cec8       ?setNewLine@QDockWindow@@UAEX_N@Z 0040dec8 f   qt-mt323:qt-mt323.dll
 0001:0000cece       ?setFixedExtentHeight@QDockWindow@@UAEXH@Z 0040dece f   qt-mt323:qt-mt323.dll
 0001:0000ced4       ?setFixedExtentWidth@QDockWindow@@UAEXH@Z 0040ded4 f   qt-mt323:qt-mt323.dll
 0001:0000ceda       ?setOffset@QDockWindow@@UAEXH@Z 0040deda f   qt-mt323:qt-mt323.dll
 0001:0000cee0       ?setVerticallyStretchable@QDockWindow@@UAEX_N@Z 0040dee0 f   qt-mt323:qt-mt323.dll
 0001:0000cee6       ?setHorizontallyStretchable@QDockWindow@@UAEX_N@Z 0040dee6 f   qt-mt323:qt-mt323.dll
 0001:0000ceec       ?setMovingEnabled@QDockWindow@@UAEX_N@Z 0040deec f   qt-mt323:qt-mt323.dll
 0001:0000cef2       ?setResizeEnabled@QDockWindow@@UAEX_N@Z 0040def2 f   qt-mt323:qt-mt323.dll
 0001:0000cef8       ?setCloseMode@QDockWindow@@UAEXH@Z 0040def8 f   qt-mt323:qt-mt323.dll
 0001:0000cefe       ?setWidget@QDockWindow@@UAEXPAVQWidget@@@Z 0040defe f   qt-mt323:qt-mt323.dll
 0001:0000cf04       ?drawContents@QDockWindow@@MAEXPAVQPainter@@@Z 0040df04 f   qt-mt323:qt-mt323.dll
 0001:0000cf0a       ?drawFrame@QDockWindow@@MAEXPAVQPainter@@@Z 0040df0a f   qt-mt323:qt-mt323.dll
 0001:0000cf10       ?styleChange@QToolBar@@MAEXAAVQStyle@@@Z 0040df10 f   qt-mt323:qt-mt323.dll
 0001:0000cf16       ?hideEvent@QDockWindow@@MAEXPAVQHideEvent@@@Z 0040df16 f   qt-mt323:qt-mt323.dll
 0001:0000cf1c       ?showEvent@QDockWindow@@MAEXPAVQShowEvent@@@Z 0040df1c f   qt-mt323:qt-mt323.dll
 0001:0000cf22       ?contextMenuEvent@QDockWindow@@MAEXPAVQContextMenuEvent@@@Z 0040df22 f   qt-mt323:qt-mt323.dll
 0001:0000cf28       ?resizeEvent@QToolBar@@MAEXPAVQResizeEvent@@@Z 0040df28 f   qt-mt323:qt-mt323.dll
 0001:0000cf2e       ?minimumSizeHint@QToolBar@@UBE?AVQSize@@XZ 0040df2e f   qt-mt323:qt-mt323.dll
 0001:0000cf34       ?sizeHint@QDockWindow@@UBE?AVQSize@@XZ 0040df34 f   qt-mt323:qt-mt323.dll
 0001:0000cf3a       ?hide@QToolBar@@UAEXXZ     0040df3a f   qt-mt323:qt-mt323.dll
 0001:0000cf40       ?show@QToolBar@@UAEXXZ     0040df40 f   qt-mt323:qt-mt323.dll
 0001:0000cf46       ?setCaption@QDockWindow@@UAEXABVQString@@@Z 0040df46 f   qt-mt323:qt-mt323.dll
 0001:0000cf4c       ?setMinimumSize@QToolBar@@UAEXHH@Z 0040df4c f   qt-mt323:qt-mt323.dll
 0001:0000cf52       ?eventFilter@QDockWindow@@UAE_NPAVQObject@@PAVQEvent@@@Z 0040df52 f   qt-mt323:qt-mt323.dll
 0001:0000cf58       ?event@QToolBar@@UAE_NPAVQEvent@@@Z 0040df58 f   qt-mt323:qt-mt323.dll
 0001:0000cf5e       ?qt_property@QToolBar@@UAE_NHHPAVQVariant@@@Z 0040df5e f   qt-mt323:qt-mt323.dll
 0001:0000cf64       ?qt_emit@QToolBar@@UAE_NHPAUQUObject@@@Z 0040df64 f   qt-mt323:qt-mt323.dll
 0001:0000cf6a       ?qt_invoke@QToolBar@@UAE_NHPAUQUObject@@@Z 0040df6a f   qt-mt323:qt-mt323.dll
 0001:0000cf70       ?qt_cast@QToolBar@@UAEPAXPBD@Z 0040df70 f   qt-mt323:qt-mt323.dll
 0001:0000cf76       ?className@QToolBar@@UBEPBDXZ 0040df76 f   qt-mt323:qt-mt323.dll
 0001:0000cf7c       ?metaObject@QToolBar@@UBEPAVQMetaObject@@XZ 0040df7c f   qt-mt323:qt-mt323.dll
 0001:0000cf82       ?qt_property@QVBoxLayout@@UAE_NHHPAVQVariant@@@Z 0040df82 f   qt-mt323:qt-mt323.dll
 0001:0000cf88       ?qt_emit@QVBoxLayout@@UAE_NHPAUQUObject@@@Z 0040df88 f   qt-mt323:qt-mt323.dll
 0001:0000cf8e       ?qt_invoke@QVBoxLayout@@UAE_NHPAUQUObject@@@Z 0040df8e f   qt-mt323:qt-mt323.dll
 0001:0000cf94       ?qt_cast@QVBoxLayout@@UAEPAXPBD@Z 0040df94 f   qt-mt323:qt-mt323.dll
 0001:0000cf9a       ?className@QVBoxLayout@@UBEPBDXZ 0040df9a f   qt-mt323:qt-mt323.dll
 0001:0000cfa0       ?metaObject@QVBoxLayout@@UBEPAVQMetaObject@@XZ 0040dfa0 f   qt-mt323:qt-mt323.dll
 0001:0000cfa6       ?setAlignment@QLayoutItem@@UAEXH@Z 0040dfa6 f   qt-mt323:qt-mt323.dll
 0001:0000cfac       ?spacerItem@QLayoutItem@@UAEPAVQSpacerItem@@XZ 0040dfac f   qt-mt323:qt-mt323.dll
 0001:0000cfb2       ?layout@QLayout@@UAEPAV1@XZ 0040dfb2 f   qt-mt323:qt-mt323.dll
 0001:0000cfb8       ?iterator@QBoxLayout@@UAE?AVQLayoutIterator@@XZ 0040dfb8 f   qt-mt323:qt-mt323.dll
 0001:0000cfbe       ?widget@QLayoutItem@@UAEPAVQWidget@@XZ 0040dfbe f   qt-mt323:qt-mt323.dll
 0001:0000cfc4       ?invalidate@QBoxLayout@@UAEXXZ 0040dfc4 f   qt-mt323:qt-mt323.dll
 0001:0000cfca       ?heightForWidth@QBoxLayout@@UBEHH@Z 0040dfca f   qt-mt323:qt-mt323.dll
 0001:0000cfd0       ?hasHeightForWidth@QBoxLayout@@UBE_NXZ 0040dfd0 f   qt-mt323:qt-mt323.dll
 0001:0000cfd6       ?isEmpty@QLayout@@UBE_NXZ  0040dfd6 f   qt-mt323:qt-mt323.dll
 0001:0000cfdc       ?geometry@QLayout@@UBE?AVQRect@@XZ 0040dfdc f   qt-mt323:qt-mt323.dll
 0001:0000cfe2       ?setGeometry@QBoxLayout@@UAEXABVQRect@@@Z 0040dfe2 f   qt-mt323:qt-mt323.dll
 0001:0000cfe8       ?expanding@QBoxLayout@@UBE?AW4ExpandData@QSizePolicy@@XZ 0040dfe8 f   qt-mt323:qt-mt323.dll
 0001:0000cfee       ?maximumSize@QBoxLayout@@UBE?AVQSize@@XZ 0040dfee f   qt-mt323:qt-mt323.dll
 0001:0000cff4       ?minimumSize@QBoxLayout@@UBE?AVQSize@@XZ 0040dff4 f   qt-mt323:qt-mt323.dll
 0001:0000cffa       ?sizeHint@QBoxLayout@@UBE?AVQSize@@XZ 0040dffa f   qt-mt323:qt-mt323.dll
 0001:0000d000       ?addItem@QBoxLayout@@UAEXPAVQLayoutItem@@@Z 0040e000 f   qt-mt323:qt-mt323.dll
 0001:0000d006       ?setAutoAdd@QLayout@@UAEX_N@Z 0040e006 f   qt-mt323:qt-mt323.dll
 0001:0000d00c       ?setMenuBar@QLayout@@UAEXPAVQMenuBar@@@Z 0040e00c f   qt-mt323:qt-mt323.dll
 0001:0000d012       ?setSpacing@QLayout@@UAEXH@Z 0040e012 f   qt-mt323:qt-mt323.dll
 0001:0000d018       ?setMargin@QLayout@@UAEXH@Z 0040e018 f   qt-mt323:qt-mt323.dll
 0001:0000d01e       ?childEvent@QLayout@@MAEXPAVQChildEvent@@@Z 0040e01e f   qt-mt323:qt-mt323.dll
 0001:0000d024       ?setName@QObject@@UAEXPBD@Z 0040e024 f   qt-mt323:qt-mt323.dll
 0001:0000d02a       ?eventFilter@QLayout@@MAE_NPAVQObject@@PAVQEvent@@@Z 0040e02a f   qt-mt323:qt-mt323.dll
 0001:0000d030       ?event@QObject@@UAE_NPAVQEvent@@@Z 0040e030 f   qt-mt323:qt-mt323.dll
 0001:0000d036       ?qt_property@QHBoxLayout@@UAE_NHHPAVQVariant@@@Z 0040e036 f   qt-mt323:qt-mt323.dll
 0001:0000d03c       ?qt_emit@QHBoxLayout@@UAE_NHPAUQUObject@@@Z 0040e03c f   qt-mt323:qt-mt323.dll
 0001:0000d042       ?qt_invoke@QHBoxLayout@@UAE_NHPAUQUObject@@@Z 0040e042 f   qt-mt323:qt-mt323.dll
 0001:0000d048       ?qt_cast@QHBoxLayout@@UAEPAXPBD@Z 0040e048 f   qt-mt323:qt-mt323.dll
 0001:0000d04e       ?className@QHBoxLayout@@UBEPBDXZ 0040e04e f   qt-mt323:qt-mt323.dll
 0001:0000d054       ?metaObject@QHBoxLayout@@UBEPAVQMetaObject@@XZ 0040e054 f   qt-mt323:qt-mt323.dll
 0001:0000d05a       ?setNum@QLabel@@UAEXH@Z    0040e05a f   qt-mt323:qt-mt323.dll
 0001:0000d060       ?setNum@QLabel@@UAEXN@Z    0040e060 f   qt-mt323:qt-mt323.dll
 0001:0000d066       ?setMovie@QLabel@@UAEXABVQMovie@@@Z 0040e066 f   qt-mt323:qt-mt323.dll
 0001:0000d06c       ?setPicture@QLabel@@UAEXABVQPicture@@@Z 0040e06c f   qt-mt323:qt-mt323.dll
 0001:0000d072       ?setPixmap@QLabel@@UAEXABVQPixmap@@@Z 0040e072 f   qt-mt323:qt-mt323.dll
 0001:0000d078       ?setText@QLabel@@UAEXABVQString@@@Z 0040e078 f   qt-mt323:qt-mt323.dll
 0001:0000d07e       ?setBuddy@QLabel@@UAEXPAVQWidget@@@Z 0040e07e f   qt-mt323:qt-mt323.dll
 0001:0000d084       ?setAutoResize@QLabel@@UAEX_N@Z 0040e084 f   qt-mt323:qt-mt323.dll
 0001:0000d08a       ?setAlignment@QLabel@@UAEXH@Z 0040e08a f   qt-mt323:qt-mt323.dll
 0001:0000d090       ?frameChanged@QFrame@@MAEXXZ 0040e090 f   qt-mt323:qt-mt323.dll
 0001:0000d096       ?drawContents@QLabel@@MAEXPAVQPainter@@@Z 0040e096 f   qt-mt323:qt-mt323.dll
 0001:0000d09c       ?fontChange@QLabel@@MAEXABVQFont@@@Z 0040e09c f   qt-mt323:qt-mt323.dll
 0001:0000d0a2       ?enabledChange@QWidget@@MAEX_N@Z 0040e0a2 f   qt-mt323:qt-mt323.dll
 0001:0000d0a8       ?styleChange@QFrame@@MAEXAAVQStyle@@@Z 0040e0a8 f   qt-mt323:qt-mt323.dll
 0001:0000d0ae       ?resizeEvent@QLabel@@MAEXPAVQResizeEvent@@@Z 0040e0ae f   qt-mt323:qt-mt323.dll
 0001:0000d0b4       ?paintEvent@QFrame@@MAEXPAVQPaintEvent@@@Z 0040e0b4 f   qt-mt323:qt-mt323.dll
 0001:0000d0ba       ?focusOutEvent@QWidget@@MAEXPAVQFocusEvent@@@Z 0040e0ba f   qt-mt323:qt-mt323.dll
 0001:0000d0c0       ?focusInEvent@QWidget@@MAEXPAVQFocusEvent@@@Z 0040e0c0 f   qt-mt323:qt-mt323.dll
 0001:0000d0c6       ?keyPressEvent@QWidget@@MAEXPAVQKeyEvent@@@Z 0040e0c6 f   qt-mt323:qt-mt323.dll
 0001:0000d0cc       ?mouseMoveEvent@QWidget@@MAEXPAVQMouseEvent@@@Z 0040e0cc f   qt-mt323:qt-mt323.dll
 0001:0000d0d2       ?mouseReleaseEvent@QWidget@@MAEXPAVQMouseEvent@@@Z 0040e0d2 f   qt-mt323:qt-mt323.dll
 0001:0000d0d8       ?mousePressEvent@QWidget@@MAEXPAVQMouseEvent@@@Z 0040e0d8 f   qt-mt323:qt-mt323.dll
 0001:0000d0de       ?heightForWidth@QLabel@@UBEHH@Z 0040e0de f   qt-mt323:qt-mt323.dll
 0001:0000d0e4       ?minimumSizeHint@QLabel@@UBE?AVQSize@@XZ 0040e0e4 f   qt-mt323:qt-mt323.dll
 0001:0000d0ea       ?sizeHint@QLabel@@UBE?AVQSize@@XZ 0040e0ea f   qt-mt323:qt-mt323.dll
 0001:0000d0f0       ?setFont@QLabel@@UAEXABVQFont@@@Z 0040e0f0 f   qt-mt323:qt-mt323.dll
 0001:0000d0f6       ?qt_property@QLabel@@UAE_NHHPAVQVariant@@@Z 0040e0f6 f   qt-mt323:qt-mt323.dll
 0001:0000d0fc       ?qt_emit@QLabel@@UAE_NHPAUQUObject@@@Z 0040e0fc f   qt-mt323:qt-mt323.dll
 0001:0000d102       ?qt_invoke@QLabel@@UAE_NHPAUQUObject@@@Z 0040e102 f   qt-mt323:qt-mt323.dll
 0001:0000d108       ?qt_cast@QLabel@@UAEPAXPBD@Z 0040e108 f   qt-mt323:qt-mt323.dll
 0001:0000d10e       ?className@QLabel@@UBEPBDXZ 0040e10e f   qt-mt323:qt-mt323.dll
 0001:0000d114       ?metaObject@QLabel@@UBEPAVQMetaObject@@XZ 0040e114 f   qt-mt323:qt-mt323.dll
 0001:0000d11a       ?setOn@QPushButton@@UAEX_N@Z 0040e11a f   qt-mt323:qt-mt323.dll
 0001:0000d120       ?setIsMenuButton@QPushButton@@UAEX_N@Z 0040e120 f   qt-mt323:qt-mt323.dll
 0001:0000d126       ?setDefault@QPushButton@@UAEX_N@Z 0040e126 f   qt-mt323:qt-mt323.dll
 0001:0000d12c       ?setAutoDefault@QPushButton@@UAEX_N@Z 0040e12c f   qt-mt323:qt-mt323.dll
 0001:0000d132       ?setGroup@QButton@@EAEXPAVQButtonGroup@@@Z 0040e132 f   qt-mt323:qt-mt323.dll
 0001:0000d138       ?drawButtonLabel@QPushButton@@MAEXPAVQPainter@@@Z 0040e138 f   qt-mt323:qt-mt323.dll
 0001:0000d13e       ?drawButton@QPushButton@@MAEXPAVQPainter@@@Z 0040e13e f   qt-mt323:qt-mt323.dll
 0001:0000d144       ?hitButton@QButton@@MBE_NABVQPoint@@@Z 0040e144 f   qt-mt323:qt-mt323.dll
 0001:0000d14a       ?setState@QButton@@MAEXW4ToggleState@1@@Z 0040e14a f   qt-mt323:qt-mt323.dll
 0001:0000d150       ?setToggleType@QButton@@MAEXW4ToggleType@1@@Z 0040e150 f   qt-mt323:qt-mt323.dll
 0001:0000d156       ?setAutoRepeat@QButton@@UAEX_N@Z 0040e156 f   qt-mt323:qt-mt323.dll
 0001:0000d15c       ?setDown@QButton@@UAEX_N@Z 0040e15c f   qt-mt323:qt-mt323.dll
 0001:0000d162       ?setAccel@QButton@@UAEXABVQKeySequence@@@Z 0040e162 f   qt-mt323:qt-mt323.dll
 0001:0000d168       ?setPixmap@QButton@@UAEXABVQPixmap@@@Z 0040e168 f   qt-mt323:qt-mt323.dll
 0001:0000d16e       ?setText@QButton@@UAEXABVQString@@@Z 0040e16e f   qt-mt323:qt-mt323.dll
 0001:0000d174       ?focusNextPrevChild@QWidget@@MAE_N_N@Z 0040e174 f   qt-mt323:qt-mt323.dll
 0001:0000d17a       ?enabledChange@QButton@@MAEX_N@Z 0040e17a f   qt-mt323:qt-mt323.dll
 0001:0000d180       ?styleChange@QWidget@@MAEXAAVQStyle@@@Z 0040e180 f   qt-mt323:qt-mt323.dll
 0001:0000d186       ?updateMask@QPushButton@@MAEXXZ 0040e186 f   qt-mt323:qt-mt323.dll
 0001:0000d18c       ?closeEvent@QWidget@@MAEXPAVQCloseEvent@@@Z 0040e18c f   qt-mt323:qt-mt323.dll
 0001:0000d192       ?resizeEvent@QPushButton@@MAEXPAVQResizeEvent@@@Z 0040e192 f   qt-mt323:qt-mt323.dll
 0001:0000d198       ?paintEvent@QButton@@MAEXPAVQPaintEvent@@@Z 0040e198 f   qt-mt323:qt-mt323.dll
 0001:0000d19e       ?leaveEvent@QWidget@@MAEXPAVQEvent@@@Z 0040e19e f   qt-mt323:qt-mt323.dll
 0001:0000d1a4       ?focusOutEvent@QPushButton@@MAEXPAVQFocusEvent@@@Z 0040e1a4 f   qt-mt323:qt-mt323.dll
 0001:0000d1aa       ?focusInEvent@QPushButton@@MAEXPAVQFocusEvent@@@Z 0040e1aa f   qt-mt323:qt-mt323.dll
 0001:0000d1b0       ?keyReleaseEvent@QButton@@MAEXPAVQKeyEvent@@@Z 0040e1b0 f   qt-mt323:qt-mt323.dll
 0001:0000d1b6       ?keyPressEvent@QButton@@MAEXPAVQKeyEvent@@@Z 0040e1b6 f   qt-mt323:qt-mt323.dll
 0001:0000d1bc       ?mouseMoveEvent@QButton@@MAEXPAVQMouseEvent@@@Z 0040e1bc f   qt-mt323:qt-mt323.dll
 0001:0000d1c2       ?mouseReleaseEvent@QButton@@MAEXPAVQMouseEvent@@@Z 0040e1c2 f   qt-mt323:qt-mt323.dll
 0001:0000d1c8       ?mousePressEvent@QButton@@MAEXPAVQMouseEvent@@@Z 0040e1c8 f   qt-mt323:qt-mt323.dll
 0001:0000d1ce       ?customWhatsThis@QWidget@@UBE_NXZ 0040e1ce f   qt-mt323:qt-mt323.dll
 0001:0000d1d4       ?sizeHint@QPushButton@@UBE?AVQSize@@XZ 0040e1d4 f   qt-mt323:qt-mt323.dll
 0001:0000d1da       ?setGeometry@QPushButton@@UAEXHHHH@Z 0040e1da f   qt-mt323:qt-mt323.dll
 0001:0000d1e0       ?setGeometry@QPushButton@@UAEXABVQRect@@@Z 0040e1e0 f   qt-mt323:qt-mt323.dll
 0001:0000d1e6       ?resize@QPushButton@@UAEXHH@Z 0040e1e6 f   qt-mt323:qt-mt323.dll
 0001:0000d1ec       ?move@QPushButton@@UAEXHH@Z 0040e1ec f   qt-mt323:qt-mt323.dll
 0001:0000d1f2       ?hide@QWidget@@UAEXXZ      0040e1f2 f   qt-mt323:qt-mt323.dll
 0001:0000d1f8       ?show@QWidget@@UAEXXZ      0040e1f8 f   qt-mt323:qt-mt323.dll
 0001:0000d1fe       ?setFont@QWidget@@UAEXABVQFont@@@Z 0040e1fe f   qt-mt323:qt-mt323.dll
 0001:0000d204       ?timerEvent@QObject@@MAEXPAVQTimerEvent@@@Z 0040e204 f   qt-mt323:qt-mt323.dll
 0001:0000d20a       ?qt_property@QPushButton@@UAE_NHHPAVQVariant@@@Z 0040e20a f   qt-mt323:qt-mt323.dll
 0001:0000d210       ?qt_emit@QPushButton@@UAE_NHPAUQUObject@@@Z 0040e210 f   qt-mt323:qt-mt323.dll
 0001:0000d216       ?qt_invoke@QPushButton@@UAE_NHPAUQUObject@@@Z 0040e216 f   qt-mt323:qt-mt323.dll
 0001:0000d21c       ?qt_cast@QPushButton@@UAEPAXPBD@Z 0040e21c f   qt-mt323:qt-mt323.dll
 0001:0000d222       ?className@QPushButton@@UBEPBDXZ 0040e222 f   qt-mt323:qt-mt323.dll
 0001:0000d228       ?metaObject@QPushButton@@UBEPAVQMetaObject@@XZ 0040e228 f   qt-mt323:qt-mt323.dll
 0001:0000d22e       ?menuDelPopup@QPopupMenu@@EAEXPAV1@@Z 0040e22e f   qt-mt323:qt-mt323.dll
 0001:0000d234       ?menuInsPopup@QPopupMenu@@EAEXPAV1@@Z 0040e234 f   qt-mt323:qt-mt323.dll
 0001:0000d23a       ?menuStateChanged@QPopupMenu@@EAEXXZ 0040e23a f   qt-mt323:qt-mt323.dll
 0001:0000d240       ?menuContentsChanged@QPopupMenu@@EAEXXZ 0040e240 f   qt-mt323:qt-mt323.dll
 0001:0000d246       ?activateItemAt@QPopupMenu@@UAEXH@Z 0040e246 f   qt-mt323:qt-mt323.dll
 0001:0000d24c       ?setId@QMenuData@@UAEXHH@Z 0040e24c f   qt-mt323:qt-mt323.dll
 0001:0000d252       ?updateItem@QPopupMenu@@UAEXH@Z 0040e252 f   qt-mt323:qt-mt323.dll
 0001:0000d258       ?fontInf@QPaintDevice@@MBEHPAVQFont@@H@Z 0040e258 f   qt-mt323:qt-mt323.dll
 0001:0000d25e       ?fontMet@QPaintDevice@@MBEHPAVQFont@@HPBDH@Z 0040e25e f   qt-mt323:qt-mt323.dll
 0001:0000d264       ?metric@QWidget@@MBEHH@Z   0040e264 f   qt-mt323:qt-mt323.dll
 0001:0000d26a       ?cmd@QPaintDevice@@MAE_NHPAVQPainter@@PATQPDevCmdParam@@@Z 0040e26a f   qt-mt323:qt-mt323.dll
 0001:0000d270       ?handle@QPaintDevice@@UBEPAUHDC__@@XZ 0040e270 f   qt-mt323:qt-mt323.dll
 0001:0000d276       ?resolution@QPaintDevice@@UBEHXZ 0040e276 f   qt-mt323:qt-mt323.dll
 0001:0000d27c       ?setResolution@QPaintDevice@@UAEXH@Z 0040e27c f   qt-mt323:qt-mt323.dll
 0001:0000d282       ?setFirstItemActive@QPopupMenu@@EAEXXZ 0040e282 f   qt-mt323:qt-mt323.dll
 0001:0000d288       ?setActiveItem@QPopupMenu@@UAEXH@Z 0040e288 f   qt-mt323:qt-mt323.dll
 0001:0000d28e       ?setCheckable@QPopupMenu@@UAEX_N@Z 0040e28e f   qt-mt323:qt-mt323.dll
 0001:0000d294       ?frameChanged@QPopupMenu@@EAEXXZ 0040e294 f   qt-mt323:qt-mt323.dll
 0001:0000d29a       ?drawContents@QPopupMenu@@MAEXPAVQPainter@@@Z 0040e29a f   qt-mt323:qt-mt323.dll
 0001:0000d2a0       ?drawFrame@QFrame@@MAEXPAVQPainter@@@Z 0040e2a0 f   qt-mt323:qt-mt323.dll
 0001:0000d2a6       ?setFrameRect@QFrame@@UAEXABVQRect@@@Z 0040e2a6 f   qt-mt323:qt-mt323.dll
 0001:0000d2ac       ?setMidLineWidth@QFrame@@UAEXH@Z 0040e2ac f   qt-mt323:qt-mt323.dll
 0001:0000d2b2       ?setMargin@QFrame@@UAEXH@Z 0040e2b2 f   qt-mt323:qt-mt323.dll
 0001:0000d2b8       ?setLineWidth@QFrame@@UAEXH@Z 0040e2b8 f   qt-mt323:qt-mt323.dll
 0001:0000d2be       ?setFrameStyle@QFrame@@UAEXH@Z 0040e2be f   qt-mt323:qt-mt323.dll
 0001:0000d2c4       ?setMicroFocusHint@QWidget@@MAEXHHHH_NPAVQFont@@@Z 0040e2c4 f   qt-mt323:qt-mt323.dll
 0001:0000d2ca       ?setKeyCompression@QWidget@@MAEX_N@Z 0040e2ca f   qt-mt323:qt-mt323.dll
 0001:0000d2d0       ?focusNextPrevChild@QPopupMenu@@MAE_N_N@Z 0040e2d0 f   qt-mt323:qt-mt323.dll
 0001:0000d2d6       ?setWFlags@QWidget@@MAEXI@Z 0040e2d6 f   qt-mt323:qt-mt323.dll
 0001:0000d2dc       ?setWState@QWidget@@MAEXI@Z 0040e2dc f   qt-mt323:qt-mt323.dll
 0001:0000d2e2       ?destroy@QWidget@@MAEX_N0@Z 0040e2e2 f   qt-mt323:qt-mt323.dll
 0001:0000d2e8       ?create@QWidget@@MAEXPAUHWND__@@_N1@Z 0040e2e8 f   qt-mt323:qt-mt323.dll
 0001:0000d2ee       ?windowActivationChange@QWidget@@MAEX_N@Z 0040e2ee f   qt-mt323:qt-mt323.dll
 0001:0000d2f4       ?fontChange@QWidget@@MAEXABVQFont@@@Z 0040e2f4 f   qt-mt323:qt-mt323.dll
 0001:0000d2fa       ?paletteChange@QWidget@@MAEXABVQPalette@@@Z 0040e2fa f   qt-mt323:qt-mt323.dll
 0001:0000d300       ?enabledChange@QPopupMenu@@MAEX_N@Z 0040e300 f   qt-mt323:qt-mt323.dll
 0001:0000d306       ?styleChange@QPopupMenu@@MAEXAAVQStyle@@@Z 0040e306 f   qt-mt323:qt-mt323.dll
 0001:0000d30c       ?updateMask@QWidget@@MAEXXZ 0040e30c f   qt-mt323:qt-mt323.dll
 0001:0000d312       ?winEvent@QWidget@@MAE_NPAUtagMSG@@@Z 0040e312 f   qt-mt323:qt-mt323.dll
 0001:0000d318       ?hideEvent@QWidget@@MAEXPAVQHideEvent@@@Z 0040e318 f   qt-mt323:qt-mt323.dll
 0001:0000d31e       ?showEvent@QWidget@@MAEXPAVQShowEvent@@@Z 0040e31e f   qt-mt323:qt-mt323.dll
 0001:0000d324       ?dropEvent@QWidget@@MAEXPAVQDropEvent@@@Z 0040e324 f   qt-mt323:qt-mt323.dll
 0001:0000d32a       ?dragLeaveEvent@QWidget@@MAEXPAVQDragLeaveEvent@@@Z 0040e32a f   qt-mt323:qt-mt323.dll
 0001:0000d330       ?dragMoveEvent@QWidget@@MAEXPAVQDragMoveEvent@@@Z 0040e330 f   qt-mt323:qt-mt323.dll
 0001:0000d336       ?dragEnterEvent@QWidget@@MAEXPAVQDragEnterEvent@@@Z 0040e336 f   qt-mt323:qt-mt323.dll
 0001:0000d33c       ?tabletEvent@QWidget@@MAEXPAVQTabletEvent@@@Z 0040e33c f   qt-mt323:qt-mt323.dll
 0001:0000d342       ?imEndEvent@QWidget@@MAEXPAVQIMEvent@@@Z 0040e342 f   qt-mt323:qt-mt323.dll
 0001:0000d348       ?imComposeEvent@QWidget@@MAEXPAVQIMEvent@@@Z 0040e348 f   qt-mt323:qt-mt323.dll
 0001:0000d34e       ?imStartEvent@QWidget@@MAEXPAVQIMEvent@@@Z 0040e34e f   qt-mt323:qt-mt323.dll
 0001:0000d354       ?contextMenuEvent@QWidget@@MAEXPAVQContextMenuEvent@@@Z 0040e354 f   qt-mt323:qt-mt323.dll
 0001:0000d35a       ?closeEvent@QPopupMenu@@MAEXPAVQCloseEvent@@@Z 0040e35a f   qt-mt323:qt-mt323.dll
 0001:0000d360       ?resizeEvent@QFrame@@MAEXPAVQResizeEvent@@@Z 0040e360 f   qt-mt323:qt-mt323.dll
 0001:0000d366       ?moveEvent@QWidget@@MAEXPAVQMoveEvent@@@Z 0040e366 f   qt-mt323:qt-mt323.dll
 0001:0000d36c       ?paintEvent@QPopupMenu@@MAEXPAVQPaintEvent@@@Z 0040e36c f   qt-mt323:qt-mt323.dll
 0001:0000d372       ?leaveEvent@QPopupMenu@@MAEXPAVQEvent@@@Z 0040e372 f   qt-mt323:qt-mt323.dll
 0001:0000d378       ?enterEvent@QWidget@@MAEXPAVQEvent@@@Z 0040e378 f   qt-mt323:qt-mt323.dll
 0001:0000d37e       ?focusOutEvent@QPopupMenu@@MAEXPAVQFocusEvent@@@Z 0040e37e f   qt-mt323:qt-mt323.dll
 0001:0000d384       ?focusInEvent@QPopupMenu@@MAEXPAVQFocusEvent@@@Z 0040e384 f   qt-mt323:qt-mt323.dll
 0001:0000d38a       ?keyReleaseEvent@QWidget@@MAEXPAVQKeyEvent@@@Z 0040e38a f   qt-mt323:qt-mt323.dll
 0001:0000d390       ?keyPressEvent@QPopupMenu@@MAEXPAVQKeyEvent@@@Z 0040e390 f   qt-mt323:qt-mt323.dll
 0001:0000d396       ?wheelEvent@QWidget@@MAEXPAVQWheelEvent@@@Z 0040e396 f   qt-mt323:qt-mt323.dll
 0001:0000d39c       ?mouseMoveEvent@QPopupMenu@@MAEXPAVQMouseEvent@@@Z 0040e39c f   qt-mt323:qt-mt323.dll
 0001:0000d3a2       ?mouseDoubleClickEvent@QWidget@@MAEXPAVQMouseEvent@@@Z 0040e3a2 f   qt-mt323:qt-mt323.dll
 0001:0000d3a8       ?mouseReleaseEvent@QPopupMenu@@MAEXPAVQMouseEvent@@@Z 0040e3a8 f   qt-mt323:qt-mt323.dll
 0001:0000d3ae       ?mousePressEvent@QPopupMenu@@MAEXPAVQMouseEvent@@@Z 0040e3ae f   qt-mt323:qt-mt323.dll
 0001:0000d3b4       ?customWhatsThis@QPopupMenu@@UBE_NXZ 0040e3b4 f   qt-mt323:qt-mt323.dll
 0001:0000d3ba       ?setBackgroundOrigin@QWidget@@UAEXW4BackgroundOrigin@1@@Z 0040e3ba f   qt-mt323:qt-mt323.dll
 0001:0000d3c0       ?setAutoMask@QWidget@@UAEX_N@Z 0040e3c0 f   qt-mt323:qt-mt323.dll
 0001:0000d3c6       ?setAcceptDrops@QWidget@@UAEX_N@Z 0040e3c6 f   qt-mt323:qt-mt323.dll
 0001:0000d3cc       ?reparent@QWidget@@UAEXPAV1@IABVQPoint@@_N@Z 0040e3cc f   qt-mt323:qt-mt323.dll
 0001:0000d3d2       ?adjustSize@QWidget@@UAEXXZ 0040e3d2 f   qt-mt323:qt-mt323.dll
 0001:0000d3d8       ?heightForWidth@QWidget@@UBEHH@Z 0040e3d8 f   qt-mt323:qt-mt323.dll
 0001:0000d3de       ?setSizePolicy@QWidget@@UAEXVQSizePolicy@@@Z 0040e3de f   qt-mt323:qt-mt323.dll
 0001:0000d3e4       ?sizePolicy@QWidget@@UBE?AVQSizePolicy@@XZ 0040e3e4 f   qt-mt323:qt-mt323.dll
 0001:0000d3ea       ?minimumSizeHint@QWidget@@UBE?AVQSize@@XZ 0040e3ea f   qt-mt323:qt-mt323.dll
 0001:0000d3f0       ?sizeHint@QPopupMenu@@UBE?AVQSize@@XZ 0040e3f0 f   qt-mt323:qt-mt323.dll
 0001:0000d3f6       ?setGeometry@QWidget@@UAEXHHHH@Z 0040e3f6 f   qt-mt323:qt-mt323.dll
 0001:0000d3fc       ?setGeometry@QWidget@@UAEXABVQRect@@@Z 0040e3fc f   qt-mt323:qt-mt323.dll
 0001:0000d402       ?resize@QWidget@@UAEXHH@Z  0040e402 f   qt-mt323:qt-mt323.dll
 0001:0000d408       ?move@QWidget@@UAEXHH@Z    0040e408 f   qt-mt323:qt-mt323.dll
 0001:0000d40e       ?close@QWidget@@UAE_N_N@Z  0040e40e f   qt-mt323:qt-mt323.dll
 0001:0000d414       ?polish@QWidget@@UAEXXZ    0040e414 f   qt-mt323:qt-mt323.dll
 0001:0000d41a       ?showNormal@QWidget@@UAEXXZ 0040e41a f   qt-mt323:qt-mt323.dll
 0001:0000d420       ?showMaximized@QWidget@@UAEXXZ 0040e420 f   qt-mt323:qt-mt323.dll
 0001:0000d426       ?showMinimized@QWidget@@UAEXXZ 0040e426 f   qt-mt323:qt-mt323.dll
 0001:0000d42c       ?hide@QPopupMenu@@UAEXXZ   0040e42c f   qt-mt323:qt-mt323.dll
 0001:0000d432       ?show@QPopupMenu@@UAEXXZ   0040e432 f   qt-mt323:qt-mt323.dll
 0001:0000d438       ?setUpdatesEnabled@QWidget@@UAEX_N@Z 0040e438 f   qt-mt323:qt-mt323.dll
 0001:0000d43e       ?setFocusProxy@QWidget@@UAEXPAV1@@Z 0040e43e f   qt-mt323:qt-mt323.dll
 0001:0000d444       ?setFocusPolicy@QWidget@@UAEXW4FocusPolicy@1@@Z 0040e444 f   qt-mt323:qt-mt323.dll
 0001:0000d44a       ?setActiveWindow@QWidget@@UAEXXZ 0040e44a f   qt-mt323:qt-mt323.dll
 0001:0000d450       ?setFocus@QWidget@@UAEXXZ  0040e450 f   qt-mt323:qt-mt323.dll
 0001:0000d456       ?setMouseTracking@QWidget@@UAEX_N@Z 0040e456 f   qt-mt323:qt-mt323.dll
 0001:0000d45c       ?setIconText@QWidget@@UAEXABVQString@@@Z 0040e45c f   qt-mt323:qt-mt323.dll
 0001:0000d462       ?setIcon@QWidget@@UAEXABVQPixmap@@@Z 0040e462 f   qt-mt323:qt-mt323.dll
 0001:0000d468       ?setCaption@QWidget@@UAEXABVQString@@@Z 0040e468 f   qt-mt323:qt-mt323.dll
 0001:0000d46e       ?setBackgroundPixmap@QWidget@@UAEXABVQPixmap@@@Z 0040e46e f   qt-mt323:qt-mt323.dll
 0001:0000d474       ?setBackgroundColor@QWidget@@UAEXABVQColor@@@Z 0040e474 f   qt-mt323:qt-mt323.dll
 0001:0000d47a       ?setMask@QWidget@@UAEXABVQBitmap@@@Z 0040e47a f   qt-mt323:qt-mt323.dll
 0001:0000d480       ?setMask@QWidget@@UAEXABVQRegion@@@Z 0040e480 f   qt-mt323:qt-mt323.dll
 0001:0000d486       ?unsetCursor@QWidget@@UAEXXZ 0040e486 f   qt-mt323:qt-mt323.dll
 0001:0000d48c       ?setCursor@QWidget@@UAEXABVQCursor@@@Z 0040e48c f   qt-mt323:qt-mt323.dll
 0001:0000d492       ?setFont@QPopupMenu@@UAEXABVQFont@@@Z 0040e492 f   qt-mt323:qt-mt323.dll
 0001:0000d498       ?setPaletteBackgroundPixmap@QWidget@@UAEXABVQPixmap@@@Z 0040e498 f   qt-mt323:qt-mt323.dll
 0001:0000d49e       ?setPaletteBackgroundColor@QWidget@@UAEXABVQColor@@@Z 0040e49e f   qt-mt323:qt-mt323.dll
 0001:0000d4a4       ?setPalette@QWidget@@UAEXABVQPalette@@@Z 0040e4a4 f   qt-mt323:qt-mt323.dll
 0001:0000d4aa       ?setErasePixmap@QWidget@@UAEXABVQPixmap@@@Z 0040e4aa f   qt-mt323:qt-mt323.dll
 0001:0000d4b0       ?setEraseColor@QWidget@@UAEXABVQColor@@@Z 0040e4b0 f   qt-mt323:qt-mt323.dll
 0001:0000d4b6       ?setBackgroundMode@QWidget@@UAEXW4BackgroundMode@Qt@@@Z 0040e4b6 f   qt-mt323:qt-mt323.dll
 0001:0000d4bc       ?setSizeIncrement@QWidget@@UAEXHH@Z 0040e4bc f   qt-mt323:qt-mt323.dll
 0001:0000d4c2       ?setMaximumSize@QWidget@@UAEXHH@Z 0040e4c2 f   qt-mt323:qt-mt323.dll
 0001:0000d4c8       ?setMinimumSize@QWidget@@UAEXHH@Z 0040e4c8 f   qt-mt323:qt-mt323.dll
 0001:0000d4ce       ?setEnabled@QWidget@@UAEX_N@Z 0040e4ce f   qt-mt323:qt-mt323.dll
 0001:0000d4d4       ?checkConnectArgs@QObject@@MAE_NPBDPBV1@0@Z 0040e4d4 f   qt-mt323:qt-mt323.dll
 0001:0000d4da       ?disconnectNotify@QObject@@MAEXPBD@Z 0040e4da f   qt-mt323:qt-mt323.dll
 0001:0000d4e0       ?connectNotify@QObject@@MAEXPBD@Z 0040e4e0 f   qt-mt323:qt-mt323.dll
 0001:0000d4e6       ?customEvent@QObject@@MAEXPAVQCustomEvent@@@Z 0040e4e6 f   qt-mt323:qt-mt323.dll
 0001:0000d4ec       ?childEvent@QObject@@MAEXPAVQChildEvent@@@Z 0040e4ec f   qt-mt323:qt-mt323.dll
 0001:0000d4f2       ?timerEvent@QPopupMenu@@MAEXPAVQTimerEvent@@@Z 0040e4f2 f   qt-mt323:qt-mt323.dll
 0001:0000d4f8       ?property@QObject@@UBE?AVQVariant@@PBD@Z 0040e4f8 f   qt-mt323:qt-mt323.dll
 0001:0000d4fe       ?setProperty@QObject@@UAE_NPBDABVQVariant@@@Z 0040e4fe f   qt-mt323:qt-mt323.dll
 0001:0000d504       ?removeChild@QObject@@UAEXPAV1@@Z 0040e504 f   qt-mt323:qt-mt323.dll
 0001:0000d50a       ?insertChild@QObject@@UAEXPAV1@@Z 0040e50a f   qt-mt323:qt-mt323.dll
 0001:0000d510       ?setName@QWidget@@UAEXPBD@Z 0040e510 f   qt-mt323:qt-mt323.dll
 0001:0000d516       ?eventFilter@QObject@@UAE_NPAV1@PAVQEvent@@@Z 0040e516 f   qt-mt323:qt-mt323.dll
 0001:0000d51c       ?event@QWidget@@MAE_NPAVQEvent@@@Z 0040e51c f   qt-mt323:qt-mt323.dll
 0001:0000d522       ?qt_property@QPopupMenu@@UAE_NHHPAVQVariant@@@Z 0040e522 f   qt-mt323:qt-mt323.dll
 0001:0000d528       ?qt_emit@QPopupMenu@@UAE_NHPAUQUObject@@@Z 0040e528 f   qt-mt323:qt-mt323.dll
 0001:0000d52e       ?qt_invoke@QPopupMenu@@UAE_NHPAUQUObject@@@Z 0040e52e f   qt-mt323:qt-mt323.dll
 0001:0000d534       ?qt_cast@QPopupMenu@@UAEPAXPBD@Z 0040e534 f   qt-mt323:qt-mt323.dll
 0001:0000d53a       ?className@QPopupMenu@@UBEPBDXZ 0040e53a f   qt-mt323:qt-mt323.dll
 0001:0000d540       ?metaObject@QPopupMenu@@UBEPAVQMetaObject@@XZ 0040e540 f   qt-mt323:qt-mt323.dll
 0001:0000d546       ?createPopupMenu@QLineEdit@@MAEPAVQPopupMenu@@XZ 0040e546 f   qt-mt323:qt-mt323.dll
 0001:0000d54c       ?setDragEnabled@QLineEdit@@UAEX_N@Z 0040e54c f   qt-mt323:qt-mt323.dll
 0001:0000d552       ?paste@QLineEdit@@UAEXXZ   0040e552 f   qt-mt323:qt-mt323.dll
 0001:0000d558       ?copy@QLineEdit@@UBEXXZ    0040e558 f   qt-mt323:qt-mt323.dll
 0001:0000d55e       ?cut@QLineEdit@@UAEXXZ     0040e55e f   qt-mt323:qt-mt323.dll
 0001:0000d564       ?setAlignment@QLineEdit@@UAEXH@Z 0040e564 f   qt-mt323:qt-mt323.dll
 0001:0000d56a       ?setCursorPosition@QLineEdit@@UAEXH@Z 0040e56a f   qt-mt323:qt-mt323.dll
 0001:0000d570       ?setSelection@QLineEdit@@UAEXHH@Z 0040e570 f   qt-mt323:qt-mt323.dll
 0001:0000d576       ?setValidator@QLineEdit@@UAEXPBVQValidator@@@Z 0040e576 f   qt-mt323:qt-mt323.dll
 0001:0000d57c       ?setReadOnly@QLineEdit@@UAEX_N@Z 0040e57c f   qt-mt323:qt-mt323.dll
 0001:0000d582       ?setEchoMode@QLineEdit@@UAEXW4EchoMode@1@@Z 0040e582 f   qt-mt323:qt-mt323.dll
 0001:0000d588       ?setFrame@QLineEdit@@UAEX_N@Z 0040e588 f   qt-mt323:qt-mt323.dll
 0001:0000d58e       ?setMaxLength@QLineEdit@@UAEXH@Z 0040e58e f   qt-mt323:qt-mt323.dll
 0001:0000d594       ?redo@QLineEdit@@UAEXXZ    0040e594 f   qt-mt323:qt-mt323.dll
 0001:0000d59a       ?undo@QLineEdit@@UAEXXZ    0040e59a f   qt-mt323:qt-mt323.dll
 0001:0000d5a0       ?clear@QLineEdit@@UAEXXZ   0040e5a0 f   qt-mt323:qt-mt323.dll
 0001:0000d5a6       ?insert@QLineEdit@@UAEXABVQString@@@Z 0040e5a6 f   qt-mt323:qt-mt323.dll
 0001:0000d5ac       ?clearValidator@QLineEdit@@UAEXXZ 0040e5ac f   qt-mt323:qt-mt323.dll
 0001:0000d5b2       ?deselect@QLineEdit@@UAEXXZ 0040e5b2 f   qt-mt323:qt-mt323.dll
 0001:0000d5b8       ?selectAll@QLineEdit@@UAEXXZ 0040e5b8 f   qt-mt323:qt-mt323.dll
 0001:0000d5be       ?setText@QLineEdit@@UAEXABVQString@@@Z 0040e5be f   qt-mt323:qt-mt323.dll
 0001:0000d5c4       ?drawContents@QLineEdit@@MAEXPAVQPainter@@@Z 0040e5c4 f   qt-mt323:qt-mt323.dll
 0001:0000d5ca       ?windowActivationChange@QLineEdit@@MAEX_N@Z 0040e5ca f   qt-mt323:qt-mt323.dll
 0001:0000d5d0       ?dropEvent@QLineEdit@@MAEXPAVQDropEvent@@@Z 0040e5d0 f   qt-mt323:qt-mt323.dll
 0001:0000d5d6       ?dragLeaveEvent@QLineEdit@@MAEXPAVQDragLeaveEvent@@@Z 0040e5d6 f   qt-mt323:qt-mt323.dll
 0001:0000d5dc       ?dragMoveEvent@QLineEdit@@MAEXPAVQDragMoveEvent@@@Z 0040e5dc f   qt-mt323:qt-mt323.dll
 0001:0000d5e2       ?dragEnterEvent@QLineEdit@@MAEXPAVQDragEnterEvent@@@Z 0040e5e2 f   qt-mt323:qt-mt323.dll
 0001:0000d5e8       ?imEndEvent@QLineEdit@@MAEXPAVQIMEvent@@@Z 0040e5e8 f   qt-mt323:qt-mt323.dll
 0001:0000d5ee       ?imComposeEvent@QLineEdit@@MAEXPAVQIMEvent@@@Z 0040e5ee f   qt-mt323:qt-mt323.dll
 0001:0000d5f4       ?imStartEvent@QLineEdit@@MAEXPAVQIMEvent@@@Z 0040e5f4 f   qt-mt323:qt-mt323.dll
 0001:0000d5fa       ?contextMenuEvent@QLineEdit@@MAEXPAVQContextMenuEvent@@@Z 0040e5fa f   qt-mt323:qt-mt323.dll
 0001:0000d600       ?resizeEvent@QLineEdit@@MAEXPAVQResizeEvent@@@Z 0040e600 f   qt-mt323:qt-mt323.dll
 0001:0000d606       ?focusOutEvent@QLineEdit@@MAEXPAVQFocusEvent@@@Z 0040e606 f   qt-mt323:qt-mt323.dll
 0001:0000d60c       ?focusInEvent@QLineEdit@@MAEXPAVQFocusEvent@@@Z 0040e60c f   qt-mt323:qt-mt323.dll
 0001:0000d612       ?mouseMoveEvent@QLineEdit@@MAEXPAVQMouseEvent@@@Z 0040e612 f   qt-mt323:qt-mt323.dll
 0001:0000d618       ?mouseDoubleClickEvent@QLineEdit@@MAEXPAVQMouseEvent@@@Z 0040e618 f   qt-mt323:qt-mt323.dll
 0001:0000d61e       ?mouseReleaseEvent@QLineEdit@@MAEXPAVQMouseEvent@@@Z 0040e61e f   qt-mt323:qt-mt323.dll
 0001:0000d624       ?mousePressEvent@QLineEdit@@MAEXPAVQMouseEvent@@@Z 0040e624 f   qt-mt323:qt-mt323.dll
 0001:0000d62a       ?minimumSizeHint@QLineEdit@@UBE?AVQSize@@XZ 0040e62a f   qt-mt323:qt-mt323.dll
 0001:0000d630       ?sizeHint@QLineEdit@@UBE?AVQSize@@XZ 0040e630 f   qt-mt323:qt-mt323.dll
 0001:0000d636       ?setFont@QLineEdit@@UAEXABVQFont@@@Z 0040e636 f   qt-mt323:qt-mt323.dll
 0001:0000d63c       ?setPalette@QLineEdit@@UAEXABVQPalette@@@Z 0040e63c f   qt-mt323:qt-mt323.dll
 0001:0000d642       ?event@QLineEdit@@MAE_NPAVQEvent@@@Z 0040e642 f   qt-mt323:qt-mt323.dll
 0001:0000d648       ?keyPressEvent@QLineEdit@@MAEXPAVQKeyEvent@@@Z 0040e648 f   qt-mt323:qt-mt323.dll
 0001:0000d64e       ?compareItems@QGList@@MAEHPAX0@Z 0040e64e f   qt-mt323:qt-mt323.dll
 0001:0000d654       ?write@QGList@@MBEAAVQDataStream@@AAV2@PAX@Z 0040e654 f   qt-mt323:qt-mt323.dll
 0001:0000d65a       ?read@QGList@@MAEAAVQDataStream@@AAV2@AAPAX@Z 0040e65a f   qt-mt323:qt-mt323.dll
 0001:0000d660       ?newItem@QPtrCollection@@MAEPAXPAX@Z 0040e660 f   qt-mt323:qt-mt323.dll
 0001:0000d666       ?sizeHint@QWidget@@UBE?AVQSize@@XZ 0040e666 f   qt-mt323:qt-mt323.dll
 0001:0000d66c       ?qt_cast@QLineEdit@@UAEPAXPBD@Z 0040e66c f   qt-mt323:qt-mt323.dll
 0001:0000d672       ?qt_invoke@QLineEdit@@UAE_NHPAUQUObject@@@Z 0040e672 f   qt-mt323:qt-mt323.dll
 0001:0000d678       ?qt_emit@QLineEdit@@UAE_NHPAUQUObject@@@Z 0040e678 f   qt-mt323:qt-mt323.dll
 0001:0000d67e       ?qt_property@QLineEdit@@UAE_NHHPAVQVariant@@@Z 0040e67e f   qt-mt323:qt-mt323.dll
 0001:0000d684       ?iterator@QGridLayout@@UAE?AVQLayoutIterator@@XZ 0040e684 f   qt-mt323:qt-mt323.dll
 0001:0000d68a       ?invalidate@QGridLayout@@UAEXXZ 0040e68a f   qt-mt323:qt-mt323.dll
 0001:0000d690       ?heightForWidth@QGridLayout@@UBEHH@Z 0040e690 f   qt-mt323:qt-mt323.dll
 0001:0000d696       ?hasHeightForWidth@QGridLayout@@UBE_NXZ 0040e696 f   qt-mt323:qt-mt323.dll
 0001:0000d69c       ?setGeometry@QGridLayout@@UAEXABVQRect@@@Z 0040e69c f   qt-mt323:qt-mt323.dll
 0001:0000d6a2       ?expanding@QGridLayout@@UBE?AW4ExpandData@QSizePolicy@@XZ 0040e6a2 f   qt-mt323:qt-mt323.dll
 0001:0000d6a8       ?maximumSize@QGridLayout@@UBE?AVQSize@@XZ 0040e6a8 f   qt-mt323:qt-mt323.dll
 0001:0000d6ae       ?minimumSize@QGridLayout@@UBE?AVQSize@@XZ 0040e6ae f   qt-mt323:qt-mt323.dll
 0001:0000d6b4       ?sizeHint@QGridLayout@@UBE?AVQSize@@XZ 0040e6b4 f   qt-mt323:qt-mt323.dll
 0001:0000d6ba       ?setColStretch@QGridLayout@@UAEXHH@Z 0040e6ba f   qt-mt323:qt-mt323.dll
 0001:0000d6c0       ?setRowStretch@QGridLayout@@UAEXHH@Z 0040e6c0 f   qt-mt323:qt-mt323.dll
 0001:0000d6c6       ?addItem@QGridLayout@@UAEXPAVQLayoutItem@@@Z 0040e6c6 f   qt-mt323:qt-mt323.dll
 0001:0000d6cc       ?qt_property@QGridLayout@@UAE_NHHPAVQVariant@@@Z 0040e6cc f   qt-mt323:qt-mt323.dll
 0001:0000d6d2       ?qt_emit@QGridLayout@@UAE_NHPAUQUObject@@@Z 0040e6d2 f   qt-mt323:qt-mt323.dll
 0001:0000d6d8       ?qt_invoke@QGridLayout@@UAE_NHPAUQUObject@@@Z 0040e6d8 f   qt-mt323:qt-mt323.dll
 0001:0000d6de       ?qt_cast@QGridLayout@@UAEPAXPBD@Z 0040e6de f   qt-mt323:qt-mt323.dll
 0001:0000d6e4       ?className@QGridLayout@@UBEPBDXZ 0040e6e4 f   qt-mt323:qt-mt323.dll
 0001:0000d6ea       ?metaObject@QGridLayout@@UBEPAVQMetaObject@@XZ 0040e6ea f   qt-mt323:qt-mt323.dll
 0001:0000d6f0       ?className@QLineEdit@@UBEPBDXZ 0040e6f0 f   qt-mt323:qt-mt323.dll
 0001:0000d6f6       ?metaObject@QLineEdit@@UBEPAVQMetaObject@@XZ 0040e6f6 f   qt-mt323:qt-mt323.dll
 0001:0000d6fc       ?setAlignment@QGroupBox@@UAEXH@Z 0040e6fc f   qt-mt323:qt-mt323.dll
 0001:0000d702       ?setTitle@QGroupBox@@UAEXABVQString@@@Z 0040e702 f   qt-mt323:qt-mt323.dll
 0001:0000d708       ?setColumnLayout@QGroupBox@@UAEXHW4Orientation@Qt@@@Z 0040e708 f   qt-mt323:qt-mt323.dll
 0001:0000d70e       ?fontChange@QGroupBox@@MAEXABVQFont@@@Z 0040e70e f   qt-mt323:qt-mt323.dll
 0001:0000d714       ?resizeEvent@QGroupBox@@MAEXPAVQResizeEvent@@@Z 0040e714 f   qt-mt323:qt-mt323.dll
 0001:0000d71a       ?paintEvent@QGroupBox@@MAEXPAVQPaintEvent@@@Z 0040e71a f   qt-mt323:qt-mt323.dll
 0001:0000d720       ?focusInEvent@QGroupBox@@MAEXPAVQFocusEvent@@@Z 0040e720 f   qt-mt323:qt-mt323.dll
 0001:0000d726       ?sizeHint@QGroupBox@@UBE?AVQSize@@XZ 0040e726 f   qt-mt323:qt-mt323.dll
 0001:0000d72c       ?setEnabled@QGroupBox@@UAEX_N@Z 0040e72c f   qt-mt323:qt-mt323.dll
 0001:0000d732       ?childEvent@QGroupBox@@MAEXPAVQChildEvent@@@Z 0040e732 f   qt-mt323:qt-mt323.dll
 0001:0000d738       ?event@QGroupBox@@MAE_NPAVQEvent@@@Z 0040e738 f   qt-mt323:qt-mt323.dll
 0001:0000d73e       ?qt_property@QGroupBox@@UAE_NHHPAVQVariant@@@Z 0040e73e f   qt-mt323:qt-mt323.dll
 0001:0000d744       ?qt_emit@QGroupBox@@UAE_NHPAUQUObject@@@Z 0040e744 f   qt-mt323:qt-mt323.dll
 0001:0000d74a       ?qt_invoke@QGroupBox@@UAE_NHPAUQUObject@@@Z 0040e74a f   qt-mt323:qt-mt323.dll
 0001:0000d750       ?qt_cast@QGroupBox@@UAEPAXPBD@Z 0040e750 f   qt-mt323:qt-mt323.dll
 0001:0000d756       ?className@QGroupBox@@UBEPBDXZ 0040e756 f   qt-mt323:qt-mt323.dll
 0001:0000d75c       ?metaObject@QGroupBox@@UBEPAVQMetaObject@@XZ 0040e75c f   qt-mt323:qt-mt323.dll
 0001:0000d762       ?paintCell@QListBox@@MAEXPAVQPainter@@HH@Z 0040e762 f   qt-mt323:qt-mt323.dll
 0001:0000d768       ?invertSelection@QListBox@@UAEXXZ 0040e768 f   qt-mt323:qt-mt323.dll
 0001:0000d76e       ?selectAll@QListBox@@UAEX_N@Z 0040e76e f   qt-mt323:qt-mt323.dll
 0001:0000d774       ?clearSelection@QListBox@@UAEXXZ 0040e774 f   qt-mt323:qt-mt323.dll
 0001:0000d77a       ?ensureCurrentVisible@QListBox@@UAEXXZ 0040e77a f   qt-mt323:qt-mt323.dll
 0001:0000d780       ?setVariableHeight@QListBox@@UAEX_N@Z 0040e780 f   qt-mt323:qt-mt323.dll
 0001:0000d786       ?setVariableWidth@QListBox@@UAEX_N@Z 0040e786 f   qt-mt323:qt-mt323.dll
 0001:0000d78c       ?setRowMode@QListBox@@UAEXW4LayoutMode@1@@Z 0040e78c f   qt-mt323:qt-mt323.dll
 0001:0000d792       ?setRowMode@QListBox@@UAEXH@Z 0040e792 f   qt-mt323:qt-mt323.dll
 0001:0000d798       ?setColumnMode@QListBox@@UAEXW4LayoutMode@1@@Z 0040e798 f   qt-mt323:qt-mt323.dll
 0001:0000d79e       ?setColumnMode@QListBox@@UAEXH@Z 0040e79e f   qt-mt323:qt-mt323.dll
 0001:0000d7a4       ?setSelected@QListBox@@UAEXPAVQListBoxItem@@_N@Z 0040e7a4 f   qt-mt323:qt-mt323.dll
 0001:0000d7aa       ?setSelectionMode@QListBox@@UAEXW4SelectionMode@1@@Z 0040e7aa f   qt-mt323:qt-mt323.dll
 0001:0000d7b0       ?setBottomItem@QListBox@@UAEXH@Z 0040e7b0 f   qt-mt323:qt-mt323.dll
 0001:0000d7b6       ?setTopItem@QListBox@@UAEXH@Z 0040e7b6 f   qt-mt323:qt-mt323.dll
 0001:0000d7bc       ?setCurrentItem@QListBox@@UAEXH@Z 0040e7bc f   qt-mt323:qt-mt323.dll
 0001:0000d7c2       ?setCurrentItem@QListBox@@UAEXPAVQListBoxItem@@@Z 0040e7c2 f   qt-mt323:qt-mt323.dll
 0001:0000d7c8       ?viewportResizeEvent@QScrollView@@MAEXPAVQResizeEvent@@@Z 0040e7c8 f   qt-mt323:qt-mt323.dll
 0001:0000d7ce       ?viewportPaintEvent@QListBox@@UAEXPAVQPaintEvent@@@Z 0040e7ce f   qt-mt323:qt-mt323.dll
 0001:0000d7d4       ?contentsContextMenuEvent@QListBox@@MAEXPAVQContextMenuEvent@@@Z 0040e7d4 f   qt-mt323:qt-mt323.dll
 0001:0000d7da       ?contentsWheelEvent@QScrollView@@MAEXPAVQWheelEvent@@@Z 0040e7da f   qt-mt323:qt-mt323.dll
 0001:0000d7e0       ?contentsDropEvent@QScrollView@@MAEXPAVQDropEvent@@@Z 0040e7e0 f   qt-mt323:qt-mt323.dll
 0001:0000d7e6       ?contentsDragLeaveEvent@QScrollView@@MAEXPAVQDragLeaveEvent@@@Z 0040e7e6 f   qt-mt323:qt-mt323.dll
 0001:0000d7ec       ?contentsDragMoveEvent@QScrollView@@MAEXPAVQDragMoveEvent@@@Z 0040e7ec f   qt-mt323:qt-mt323.dll
 0001:0000d7f2       ?contentsDragEnterEvent@QScrollView@@MAEXPAVQDragEnterEvent@@@Z 0040e7f2 f   qt-mt323:qt-mt323.dll
 0001:0000d7f8       ?contentsMouseMoveEvent@QScrollView@@MAEXPAVQMouseEvent@@@Z 0040e7f8 f   qt-mt323:qt-mt323.dll
 0001:0000d7fe       ?contentsMouseDoubleClickEvent@QScrollView@@MAEXPAVQMouseEvent@@@Z 0040e7fe f   qt-mt323:qt-mt323.dll
 0001:0000d804       ?contentsMouseReleaseEvent@QScrollView@@MAEXPAVQMouseEvent@@@Z 0040e804 f   qt-mt323:qt-mt323.dll
 0001:0000d80a       ?contentsMousePressEvent@QScrollView@@MAEXPAVQMouseEvent@@@Z 0040e80a f   qt-mt323:qt-mt323.dll
 0001:0000d810       ?drawContents@QScrollView@@MAEXPAVQPainter@@HHHH@Z 0040e810 f   qt-mt323:qt-mt323.dll
 0001:0000d816       ?drawContents@QScrollView@@EAEXPAVQPainter@@@Z 0040e816 f   qt-mt323:qt-mt323.dll
 0001:0000d81c       ?focusNextPrevChild@QScrollView@@MAE_N_N@Z 0040e81c f   qt-mt323:qt-mt323.dll
 0001:0000d822       ?windowActivationChange@QListBox@@MAEX_N@Z 0040e822 f   qt-mt323:qt-mt323.dll
 0001:0000d828       ?showEvent@QListBox@@MAEXPAVQShowEvent@@@Z 0040e828 f   qt-mt323:qt-mt323.dll
 0001:0000d82e       ?resizeEvent@QListBox@@MAEXPAVQResizeEvent@@@Z 0040e82e f   qt-mt323:qt-mt323.dll
 0001:0000d834       ?focusOutEvent@QListBox@@MAEXPAVQFocusEvent@@@Z 0040e834 f   qt-mt323:qt-mt323.dll
 0001:0000d83a       ?focusInEvent@QListBox@@MAEXPAVQFocusEvent@@@Z 0040e83a f   qt-mt323:qt-mt323.dll
 0001:0000d840       ?keyPressEvent@QListBox@@MAEXPAVQKeyEvent@@@Z 0040e840 f   qt-mt323:qt-mt323.dll
 0001:0000d846       ?mouseMoveEvent@QListBox@@MAEXPAVQMouseEvent@@@Z 0040e846 f   qt-mt323:qt-mt323.dll
 0001:0000d84c       ?mouseDoubleClickEvent@QListBox@@MAEXPAVQMouseEvent@@@Z 0040e84c f   qt-mt323:qt-mt323.dll
 0001:0000d852       ?mouseReleaseEvent@QListBox@@MAEXPAVQMouseEvent@@@Z 0040e852 f   qt-mt323:qt-mt323.dll
 0001:0000d858       ?mousePressEvent@QListBox@@MAEXPAVQMouseEvent@@@Z 0040e858 f   qt-mt323:qt-mt323.dll
 0001:0000d85e       ?minimumSizeHint@QListBox@@UBE?AVQSize@@XZ 0040e85e f   qt-mt323:qt-mt323.dll
 0001:0000d864       ?sizeHint@QListBox@@UBE?AVQSize@@XZ 0040e864 f   qt-mt323:qt-mt323.dll
 0001:0000d86a       ?setFont@QListBox@@UAEXABVQFont@@@Z 0040e86a f   qt-mt323:qt-mt323.dll
 0001:0000d870       ?setEnabled@QScrollView@@UAEX_N@Z 0040e870 f   qt-mt323:qt-mt323.dll
 0001:0000d876       ?eventFilter@QListBox@@MAE_NPAVQObject@@PAVQEvent@@@Z 0040e876 f   qt-mt323:qt-mt323.dll
 0001:0000d87c       ?qt_property@QListBox@@UAE_NHHPAVQVariant@@@Z 0040e87c f   qt-mt323:qt-mt323.dll
 0001:0000d882       ?qt_emit@QListBox@@UAE_NHPAUQUObject@@@Z 0040e882 f   qt-mt323:qt-mt323.dll
 0001:0000d888       ?qt_invoke@QListBox@@UAE_NHPAUQUObject@@@Z 0040e888 f   qt-mt323:qt-mt323.dll
 0001:0000d88e       ?qt_cast@QListBox@@UAEPAXPBD@Z 0040e88e f   qt-mt323:qt-mt323.dll
 0001:0000d894       ?className@QListBox@@UBEPBDXZ 0040e894 f   qt-mt323:qt-mt323.dll
 0001:0000d89a       ?metaObject@QListBox@@UBEPAVQMetaObject@@XZ 0040e89a f   qt-mt323:qt-mt323.dll
 0001:0000d8a0       ?emitLinkClicked@QTextEdit@@EAEXABVQString@@@Z 0040e8a0 f   qt-mt323:qt-mt323.dll
 0001:0000d8a6       ?emitHighlighted@QTextEdit@@EAEXABVQString@@@Z 0040e8a6 f   qt-mt323:qt-mt323.dll
 0001:0000d8ac       ?linksEnabled@QTextEdit@@EBE_NXZ 0040e8ac f   qt-mt323:qt-mt323.dll
 0001:0000d8b2       ?doChangeInterval@QTextEdit@@MAEXXZ 0040e8b2 f   qt-mt323:qt-mt323.dll
 0001:0000d8b8       ?createPopupMenu@QTextEdit@@MAEPAVQPopupMenu@@ABVQPoint@@@Z 0040e8b8 f   qt-mt323:qt-mt323.dll
 0001:0000d8be       ?createPopupMenu@QTextEdit@@MAEPAVQPopupMenu@@XZ 0040e8be f   qt-mt323:qt-mt323.dll
 0001:0000d8c4       ?setUndoRedoEnabled@QTextEdit@@UAEX_N@Z 0040e8c4 f   qt-mt323:qt-mt323.dll
 0001:0000d8ca       ?clearParagraphBackground@QTextEdit@@UAEXH@Z 0040e8ca f   qt-mt323:qt-mt323.dll
 0001:0000d8d0       ?setParagraphBackgroundColor@QTextEdit@@UAEXHABVQColor@@@Z 0040e8d0 f   qt-mt323:qt-mt323.dll
 0001:0000d8d6       ?insertParagraph@QTextEdit@@UAEXABVQString@@H@Z 0040e8d6 f   qt-mt323:qt-mt323.dll
 0001:0000d8dc       ?removeParagraph@QTextEdit@@UAEXH@Z 0040e8dc f   qt-mt323:qt-mt323.dll
 0001:0000d8e2       ?insertAt@QTextEdit@@UAEXABVQString@@HH@Z 0040e8e2 f   qt-mt323:qt-mt323.dll
 0001:0000d8e8       ?insert@QTextEdit@@UAEXABVQString@@_N11@Z 0040e8e8 f   qt-mt323:qt-mt323.dll
 0001:0000d8ee       ?scrollToBottom@QTextEdit@@UAEXXZ 0040e8ee f   qt-mt323:qt-mt323.dll
 0001:0000d8f4       ?setOverwriteMode@QTextEdit@@UAEX_N@Z 0040e8f4 f   qt-mt323:qt-mt323.dll
 0001:0000d8fa       ?setCurrentFont@QTextEdit@@UAEXABVQFont@@@Z 0040e8fa f   qt-mt323:qt-mt323.dll
 0001:0000d900       ?removeSelection@QTextEdit@@UAEXH@Z 0040e900 f   qt-mt323:qt-mt323.dll
 0001:0000d906       ?removeSelectedText@QTextEdit@@UAEXH@Z 0040e906 f   qt-mt323:qt-mt323.dll
 0001:0000d90c       ?doKeyboardAction@QTextEdit@@UAEXW4KeyboardAction@1@@Z 0040e90c f   qt-mt323:qt-mt323.dll
 0001:0000d912       ?moveCursor@QTextEdit@@UAEXW4CursorAction@1@_N@Z 0040e912 f   qt-mt323:qt-mt323.dll
 0001:0000d918       ?placeCursor@QTextEdit@@UAEXABVQPoint@@PAVQTextCursor@@@Z 0040e918 f   qt-mt323:qt-mt323.dll
 0001:0000d91e       ?ensureCursorVisible@QTextEdit@@UAEXXZ 0040e91e f   qt-mt323:qt-mt323.dll
 0001:0000d924       ?setFormat@QTextEdit@@UAEXPAVQTextFormat@@H@Z 0040e924 f   qt-mt323:qt-mt323.dll
 0001:0000d92a       ?setUndoDepth@QTextEdit@@UAEXH@Z 0040e92a f   qt-mt323:qt-mt323.dll
 0001:0000d930       ?resetFormat@QTextEdit@@UAEXXZ 0040e930 f   qt-mt323:qt-mt323.dll
 0001:0000d936       ?setModified@QTextEdit@@UAEX_N@Z 0040e936 f   qt-mt323:qt-mt323.dll
 0001:0000d93c       ?setSelectionAttributes@QTextEdit@@UAEXHABVQColor@@_N@Z 0040e93c f   qt-mt323:qt-mt323.dll
 0001:0000d942       ?setSelection@QTextEdit@@UAEXHHHHH@Z 0040e942 f   qt-mt323:qt-mt323.dll
 0001:0000d948       ?setCursorPosition@QTextEdit@@UAEXHH@Z 0040e948 f   qt-mt323:qt-mt323.dll
 0001:0000d94e       ?setParagType@QTextEdit@@UAEXW4DisplayMode@QStyleSheetItem@@W4ListStyle@3@@Z 0040e94e f   qt-mt323:qt-mt323.dll
 0001:0000d954       ?setAlignment@QTextEdit@@UAEXH@Z 0040e954 f   qt-mt323:qt-mt323.dll
 0001:0000d95a       ?setVerticalAlignment@QTextEdit@@UAEXW4VerticalAlignment@1@@Z 0040e95a f   qt-mt323:qt-mt323.dll
 0001:0000d960       ?setColor@QTextEdit@@UAEXABVQColor@@@Z 0040e960 f   qt-mt323:qt-mt323.dll
 0001:0000d966       ?setPointSize@QTextEdit@@UAEXH@Z 0040e966 f   qt-mt323:qt-mt323.dll
 0001:0000d96c       ?setFamily@QTextEdit@@UAEXABVQString@@@Z 0040e96c f   qt-mt323:qt-mt323.dll
 0001:0000d972       ?setUnderline@QTextEdit@@UAEX_N@Z 0040e972 f   qt-mt323:qt-mt323.dll
 0001:0000d978       ?setBold@QTextEdit@@UAEX_N@Z 0040e978 f   qt-mt323:qt-mt323.dll
 0001:0000d97e       ?setItalic@QTextEdit@@UAEX_N@Z 0040e97e f   qt-mt323:qt-mt323.dll
 0001:0000d984       ?indent@QTextEdit@@UAEXXZ  0040e984 f   qt-mt323:qt-mt323.dll
 0001:0000d98a       ?del@QTextEdit@@UAEXXZ     0040e98a f   qt-mt323:qt-mt323.dll
 0001:0000d990       ?clear@QTextEdit@@UAEXXZ   0040e990 f   qt-mt323:qt-mt323.dll
 0001:0000d996       ?pasteSubType@QTextEdit@@UAEXABVQCString@@@Z 0040e996 f   qt-mt323:qt-mt323.dll
 0001:0000d99c       ?paste@QTextEdit@@UAEXXZ   0040e99c f   qt-mt323:qt-mt323.dll
 0001:0000d9a2       ?cut@QTextEdit@@UAEXXZ     0040e9a2 f   qt-mt323:qt-mt323.dll
 0001:0000d9a8       ?redo@QTextEdit@@UAEXXZ    0040e9a8 f   qt-mt323:qt-mt323.dll
 0001:0000d9ae       ?undo@QTextEdit@@UAEXXZ    0040e9ae f   qt-mt323:qt-mt323.dll
 0001:0000d9b4       ?setReadOnly@QTextEdit@@UAEX_N@Z 0040e9b4 f   qt-mt323:qt-mt323.dll
 0001:0000d9ba       ?sync@QTextEdit@@UAEXXZ    0040e9ba f   qt-mt323:qt-mt323.dll
 0001:0000d9c0       ?zoomTo@QTextEdit@@UAEXH@Z 0040e9c0 f   qt-mt323:qt-mt323.dll
 0001:0000d9c6       ?zoomOut@QTextEdit@@UAEXH@Z 0040e9c6 f   qt-mt323:qt-mt323.dll
 0001:0000d9cc       ?zoomOut@QTextEdit@@UAEXXZ 0040e9cc f   qt-mt323:qt-mt323.dll
 0001:0000d9d2       ?zoomIn@QTextEdit@@UAEXH@Z 0040e9d2 f   qt-mt323:qt-mt323.dll
 0001:0000d9d8       ?zoomIn@QTextEdit@@UAEXXZ  0040e9d8 f   qt-mt323:qt-mt323.dll
 0001:0000d9de       ?setTabStopWidth@QTextEdit@@UAEXH@Z 0040e9de f   qt-mt323:qt-mt323.dll
 0001:0000d9e4       ?selectAll@QTextEdit@@UAEX_N@Z 0040e9e4 f   qt-mt323:qt-mt323.dll
 0001:0000d9ea       ?setTextFormat@QTextEdit@@UAEXW4TextFormat@Qt@@@Z 0040e9ea f   qt-mt323:qt-mt323.dll
 0001:0000d9f0       ?setText@QTextEdit@@UAEXABVQString@@0@Z 0040e9f0 f   qt-mt323:qt-mt323.dll
 0001:0000d9f6       ?append@QTextEdit@@UAEXABVQString@@@Z 0040e9f6 f   qt-mt323:qt-mt323.dll
 0001:0000d9fc       ?copy@QTextEdit@@UAEXXZ    0040e9fc f   qt-mt323:qt-mt323.dll
 0001:0000da02       ?setWrapPolicy@QTextEdit@@UAEXW4WrapPolicy@1@@Z 0040ea02 f   qt-mt323:qt-mt323.dll
 0001:0000da08       ?setWrapColumnOrWidth@QTextEdit@@UAEXH@Z 0040ea08 f   qt-mt323:qt-mt323.dll
 0001:0000da0e       ?setWordWrap@QTextEdit@@UAEXW4WordWrap@1@@Z 0040ea0e f   qt-mt323:qt-mt323.dll
 0001:0000da14       ?setLinkUnderline@QTextEdit@@UAEX_N@Z 0040ea14 f   qt-mt323:qt-mt323.dll
 0001:0000da1a       ?setPaper@QTextEdit@@UAEXABVQBrush@@@Z 0040ea1a f   qt-mt323:qt-mt323.dll
 0001:0000da20       ?scrollToAnchor@QTextEdit@@UAEXABVQString@@@Z 0040ea20 f   qt-mt323:qt-mt323.dll
 0001:0000da26       ?setStyleSheet@QTextEdit@@UAEXPAVQStyleSheet@@@Z 0040ea26 f   qt-mt323:qt-mt323.dll
 0001:0000da2c       ?setMimeSourceFactory@QTextEdit@@UAEXPAVQMimeSourceFactory@@@Z 0040ea2c f   qt-mt323:qt-mt323.dll
 0001:0000da32       ?getParagraphFormat@QTextEdit@@UAE_NHPAVQFont@@PAVQColor@@PAW4VerticalAlignment@1@PAHPAW4DisplayMode@QStyleSheetItem@@PAW4ListStyle@6@3@Z 0040ea32 f   qt-mt323:qt-mt323.dll
 0001:0000da38       ?getFormat@QTextEdit@@UAE_NHHPAVQFont@@PAVQColor@@PAW4VerticalAlignment@1@@Z 0040ea38 f   qt-mt323:qt-mt323.dll
 0001:0000da3e       ?find@QTextEdit@@UAE_NABVQString@@_N11PAH2@Z 0040ea3e f   qt-mt323:qt-mt323.dll
 0001:0000da44       ?setVBarGeometry@QScrollView@@MAEXAAVQScrollBar@@HHHH@Z 0040ea44 f   qt-mt323:qt-mt323.dll
 0001:0000da4a       ?setHBarGeometry@QScrollView@@MAEXAAVQScrollBar@@HHHH@Z 0040ea4a f   qt-mt323:qt-mt323.dll
 0001:0000da50       ?setMargins@QScrollView@@MAEXHHHH@Z 0040ea50 f   qt-mt323:qt-mt323.dll
 0001:0000da56       ?viewportContextMenuEvent@QScrollView@@MAEXPAVQContextMenuEvent@@@Z 0040ea56 f   qt-mt323:qt-mt323.dll
 0001:0000da5c       ?viewportWheelEvent@QScrollView@@MAEXPAVQWheelEvent@@@Z 0040ea5c f   qt-mt323:qt-mt323.dll
 0001:0000da62       ?viewportDropEvent@QScrollView@@MAEXPAVQDropEvent@@@Z 0040ea62 f   qt-mt323:qt-mt323.dll
 0001:0000da68       ?viewportDragLeaveEvent@QScrollView@@MAEXPAVQDragLeaveEvent@@@Z 0040ea68 f   qt-mt323:qt-mt323.dll
 0001:0000da6e       ?viewportDragMoveEvent@QScrollView@@MAEXPAVQDragMoveEvent@@@Z 0040ea6e f   qt-mt323:qt-mt323.dll
 0001:0000da74       ?viewportDragEnterEvent@QScrollView@@MAEXPAVQDragEnterEvent@@@Z 0040ea74 f   qt-mt323:qt-mt323.dll
 0001:0000da7a       ?viewportMouseMoveEvent@QScrollView@@MAEXPAVQMouseEvent@@@Z 0040ea7a f   qt-mt323:qt-mt323.dll
 0001:0000da80       ?viewportMouseDoubleClickEvent@QScrollView@@MAEXPAVQMouseEvent@@@Z 0040ea80 f   qt-mt323:qt-mt323.dll
 0001:0000da86       ?viewportMouseReleaseEvent@QScrollView@@MAEXPAVQMouseEvent@@@Z 0040ea86 f   qt-mt323:qt-mt323.dll
 0001:0000da8c       ?viewportMousePressEvent@QScrollView@@MAEXPAVQMouseEvent@@@Z 0040ea8c f   qt-mt323:qt-mt323.dll
 0001:0000da92       ?viewportResizeEvent@QTextEdit@@MAEXPAVQResizeEvent@@@Z 0040ea92 f   qt-mt323:qt-mt323.dll
 0001:0000da98       ?viewportPaintEvent@QScrollView@@MAEXPAVQPaintEvent@@@Z 0040ea98 f   qt-mt323:qt-mt323.dll
 0001:0000da9e       ?contentsContextMenuEvent@QTextEdit@@MAEXPAVQContextMenuEvent@@@Z 0040ea9e f   qt-mt323:qt-mt323.dll
 0001:0000daa4       ?contentsWheelEvent@QTextEdit@@MAEXPAVQWheelEvent@@@Z 0040eaa4 f   qt-mt323:qt-mt323.dll
 0001:0000daaa       ?contentsDropEvent@QTextEdit@@MAEXPAVQDropEvent@@@Z 0040eaaa f   qt-mt323:qt-mt323.dll
 0001:0000dab0       ?contentsDragLeaveEvent@QTextEdit@@MAEXPAVQDragLeaveEvent@@@Z 0040eab0 f   qt-mt323:qt-mt323.dll
 0001:0000dab6       ?contentsDragMoveEvent@QTextEdit@@MAEXPAVQDragMoveEvent@@@Z 0040eab6 f   qt-mt323:qt-mt323.dll
 0001:0000dabc       ?contentsDragEnterEvent@QTextEdit@@MAEXPAVQDragEnterEvent@@@Z 0040eabc f   qt-mt323:qt-mt323.dll
 0001:0000dac2       ?contentsMouseMoveEvent@QTextEdit@@MAEXPAVQMouseEvent@@@Z 0040eac2 f   qt-mt323:qt-mt323.dll
 0001:0000dac8       ?contentsMouseDoubleClickEvent@QTextEdit@@MAEXPAVQMouseEvent@@@Z 0040eac8 f   qt-mt323:qt-mt323.dll
 0001:0000dace       ?contentsMouseReleaseEvent@QTextEdit@@MAEXPAVQMouseEvent@@@Z 0040eace f   qt-mt323:qt-mt323.dll
 0001:0000dad4       ?contentsMousePressEvent@QTextEdit@@MAEXPAVQMouseEvent@@@Z 0040ead4 f   qt-mt323:qt-mt323.dll
 0001:0000dada       ?drawContentsOffset@QScrollView@@MAEXPAVQPainter@@HHHHHH@Z 0040eada f   qt-mt323:qt-mt323.dll
 0001:0000dae0       ?drawContents@QTextEdit@@MAEXPAVQPainter@@HHHH@Z 0040eae0 f   qt-mt323:qt-mt323.dll
 0001:0000dae6       ?setContentsPos@QScrollView@@UAEXHH@Z 0040eae6 f   qt-mt323:qt-mt323.dll
 0001:0000daec       ?resizeContents@QScrollView@@UAEXHH@Z 0040eaec f   qt-mt323:qt-mt323.dll
 0001:0000daf2       ?setDragAutoScroll@QScrollView@@UAEX_N@Z 0040eaf2 f   qt-mt323:qt-mt323.dll
 0001:0000daf8       ?setCornerWidget@QScrollView@@UAEXPAVQWidget@@@Z 0040eaf8 f   qt-mt323:qt-mt323.dll
 0001:0000dafe       ?setHScrollBarMode@QScrollView@@UAEXW4ScrollBarMode@1@@Z 0040eafe f   qt-mt323:qt-mt323.dll
 0001:0000db04       ?setVScrollBarMode@QScrollView@@UAEXW4ScrollBarMode@1@@Z 0040eb04 f   qt-mt323:qt-mt323.dll
 0001:0000db0a       ?moveChild@QScrollView@@UAEXPAVQWidget@@HH@Z 0040eb0a f   qt-mt323:qt-mt323.dll
 0001:0000db10       ?addChild@QScrollView@@UAEXPAVQWidget@@HH@Z 0040eb10 f   qt-mt323:qt-mt323.dll
 0001:0000db16       ?setResizePolicy@QScrollView@@UAEXW4ResizePolicy@1@@Z 0040eb16 f   qt-mt323:qt-mt323.dll
 0001:0000db1c       ?frameChanged@QScrollView@@MAEXXZ 0040eb1c f   qt-mt323:qt-mt323.dll
 0001:0000db22       ?drawContents@QTextEdit@@EAEXPAVQPainter@@@Z 0040eb22 f   qt-mt323:qt-mt323.dll
 0001:0000db28       ?focusNextPrevChild@QTextEdit@@MAE_N_N@Z 0040eb28 f   qt-mt323:qt-mt323.dll
 0001:0000db2e       ?windowActivationChange@QTextEdit@@MAEX_N@Z 0040eb2e f   qt-mt323:qt-mt323.dll
 0001:0000db34       ?fontChange@QScrollView@@MAEXABVQFont@@@Z 0040eb34 f   qt-mt323:qt-mt323.dll
 0001:0000db3a       ?styleChange@QScrollView@@UAEXAAVQStyle@@@Z 0040eb3a f   qt-mt323:qt-mt323.dll
 0001:0000db40       ?imEndEvent@QTextEdit@@MAEXPAVQIMEvent@@@Z 0040eb40 f   qt-mt323:qt-mt323.dll
 0001:0000db46       ?imComposeEvent@QTextEdit@@MAEXPAVQIMEvent@@@Z 0040eb46 f   qt-mt323:qt-mt323.dll
 0001:0000db4c       ?imStartEvent@QTextEdit@@MAEXPAVQIMEvent@@@Z 0040eb4c f   qt-mt323:qt-mt323.dll
 0001:0000db52       ?contextMenuEvent@QScrollView@@MAEXPAVQContextMenuEvent@@@Z 0040eb52 f   qt-mt323:qt-mt323.dll
 0001:0000db58       ?resizeEvent@QTextEdit@@MAEXPAVQResizeEvent@@@Z 0040eb58 f   qt-mt323:qt-mt323.dll
 0001:0000db5e       ?keyPressEvent@QTextEdit@@MAEXPAVQKeyEvent@@@Z 0040eb5e f   qt-mt323:qt-mt323.dll
 0001:0000db64       ?wheelEvent@QScrollView@@MAEXPAVQWheelEvent@@@Z 0040eb64 f   qt-mt323:qt-mt323.dll
 0001:0000db6a       ?mouseMoveEvent@QScrollView@@MAEXPAVQMouseEvent@@@Z 0040eb6a f   qt-mt323:qt-mt323.dll
 0001:0000db70       ?mouseDoubleClickEvent@QScrollView@@MAEXPAVQMouseEvent@@@Z 0040eb70 f   qt-mt323:qt-mt323.dll
 0001:0000db76       ?mouseReleaseEvent@QScrollView@@MAEXPAVQMouseEvent@@@Z 0040eb76 f   qt-mt323:qt-mt323.dll
 0001:0000db7c       ?mousePressEvent@QScrollView@@MAEXPAVQMouseEvent@@@Z 0040eb7c f   qt-mt323:qt-mt323.dll
 0001:0000db82       ?heightForWidth@QTextEdit@@UBEHH@Z 0040eb82 f   qt-mt323:qt-mt323.dll
 0001:0000db88       ?minimumSizeHint@QScrollView@@UBE?AVQSize@@XZ 0040eb88 f   qt-mt323:qt-mt323.dll
 0001:0000db8e       ?sizeHint@QTextEdit@@UBE?AVQSize@@XZ 0040eb8e f   qt-mt323:qt-mt323.dll
 0001:0000db94       ?resize@QScrollView@@UAEXHH@Z 0040eb94 f   qt-mt323:qt-mt323.dll
 0001:0000db9a       ?polish@QTextEdit@@UAEXXZ  0040eb9a f   qt-mt323:qt-mt323.dll
 0001:0000dba0       ?show@QScrollView@@UAEXXZ  0040eba0 f   qt-mt323:qt-mt323.dll
 0001:0000dba6       ?setFont@QTextEdit@@UAEXABVQFont@@@Z 0040eba6 f   qt-mt323:qt-mt323.dll
 0001:0000dbac       ?setPalette@QTextEdit@@UAEXABVQPalette@@@Z 0040ebac f   qt-mt323:qt-mt323.dll
 0001:0000dbb2       ?setEnabled@QTextEdit@@UAEX_N@Z 0040ebb2 f   qt-mt323:qt-mt323.dll
 0001:0000dbb8       ?removeChild@QScrollView@@UAEXPAVQObject@@@Z 0040ebb8 f   qt-mt323:qt-mt323.dll
 0001:0000dbbe       ?eventFilter@QTextEdit@@UAE_NPAVQObject@@PAVQEvent@@@Z 0040ebbe f   qt-mt323:qt-mt323.dll
 0001:0000dbc4       ?event@QTextEdit@@MAE_NPAVQEvent@@@Z 0040ebc4 f   qt-mt323:qt-mt323.dll
 0001:0000dbca       ?qt_property@QTextEdit@@UAE_NHHPAVQVariant@@@Z 0040ebca f   qt-mt323:qt-mt323.dll
 0001:0000dbd0       ?qt_emit@QTextEdit@@UAE_NHPAUQUObject@@@Z 0040ebd0 f   qt-mt323:qt-mt323.dll
 0001:0000dbd6       ?qt_invoke@QTextEdit@@UAE_NHPAUQUObject@@@Z 0040ebd6 f   qt-mt323:qt-mt323.dll
 0001:0000dbdc       ?qt_cast@QTextEdit@@UAEPAXPBD@Z 0040ebdc f   qt-mt323:qt-mt323.dll
 0001:0000dbe2       ?className@QTextEdit@@UBEPBDXZ 0040ebe2 f   qt-mt323:qt-mt323.dll
 0001:0000dbe8       ?metaObject@QTextEdit@@UBEPAVQMetaObject@@XZ 0040ebe8 f   qt-mt323:qt-mt323.dll
 0001:0000dbee       ??3@YAXPAX@Z               0040ebee f   msvcprt:delop_s.obj
 0001:0000dbfa       ??2@YAPAXI@Z               0040ebfa f   MSVCRT:MSVCRT.dll
 0001:0000dc00       ___CxxFrameHandler         0040ec00 f   MSVCRT:MSVCRT.dll
 0001:0000dc10       __onexit                   0040ec10 f   MSVCRT:atonexit.obj
 0001:0000dc3c       _atexit                    0040ec3c f   MSVCRT:atonexit.obj
 0001:0000dc4e       ??_M@YGXPAXIHP6EX0@Z@Z     0040ec4e f   MSVCRT:ehvecdtr.obj
 0001:0000dcce       ?__ArrayUnwind@@YGXPAXIHP6EX0@Z@Z 0040ecce f   MSVCRT:ehvecdtr.obj
 0001:0000dd42       ??_L@YGXPAXIHP6EX0@Z1@Z    0040ed42 f   MSVCRT:ehvecctr.obj
 0001:0000ddc4       _WinMainCRTStartup         0040edc4 f   MSVCRT:crtexew.obj
 0001:0000df22       _free                      0040ef22 f   MSVCRT:MSVCRT.dll
 0001:0000df28       _strpbrk                   0040ef28 f   MSVCRT:MSVCRT.dll
 0001:0000df2e       _malloc                    0040ef2e f   MSVCRT:MSVCRT.dll
 0001:0000df34       ___dllonexit               0040ef34 f   MSVCRT:MSVCRT.dll
 0001:0000df3a       __except_handler3          0040ef3a f   MSVCRT:MSVCRT.dll
 0001:0000df40       ?terminate@@YAXXZ          0040ef40 f   MSVCRT:MSVCRT.dll
 0001:0000df46       __XcptFilter               0040ef46 f   MSVCRT:MSVCRT.dll
 0001:0000df4c       __initterm                 0040ef4c f   MSVCRT:MSVCRT.dll
 0001:0000df52       __setdefaultprecision      0040ef52 f   MSVCRT:fp8.obj
 0001:0000df64       __matherr                  0040ef64 f   MSVCRT:merr.obj
 0001:0000df67       __setargv                  0040ef67 f   MSVCRT:dllargv.obj
 0001:0000df68       __controlfp                0040ef68 f   MSVCRT:MSVCRT.dll
 0001:0000df6e       _VerQueryValueA@16         0040ef6e f   version:VERSION.dll
 0001:0000df74       _GetFileVersionInfoA@16    0040ef74 f   version:VERSION.dll
 0001:0000df7a       _GetFileVersionInfoSizeA@8 0040ef7a f   version:VERSION.dll
 0001:0000df80       _WinMain@16                0040ef80 f   qtmain:qtmain_win.obj
 0001:0000e00d       ?detach@?$QMemArray@PAD@@UAEXXZ 0040f00d f i qtmain:qtmain_win.obj
 0001:0000e015       ??_G?$QMemArray@PAD@@UAEPAXI@Z 0040f015 f i qtmain:qtmain_win.obj
 0001:0000e015       ??_E?$QMemArray@PAD@@UAEPAXI@Z 0040f015 f i qtmain:qtmain_win.obj
 0001:0000e038       _strcpy                    0040f038 f   MSVCRT:MSVCRT.dll
 0001:0000e03e       _strlen                    0040f03e f   MSVCRT:MSVCRT.dll
 0001:0000e044       ?deleteData@QGArray@@MAEXPAUarray_data@1@@Z 0040f044 f   qt-mt323:qt-mt323.dll
 0001:0000e04a       ?newData@QGArray@@MAEPAUarray_data@1@XZ 0040f04a f   qt-mt323:qt-mt323.dll
 0001:0000e050       ?qWinMain@@YAXPAUHINSTANCE__@@0PADHAAHAAV?$QMemArray@PAD@@@Z 0040f050 f   qt-mt323:qt-mt323.dll
 0002:00000000       __imp__lstrcpynA@12        00411000     kernel32:KERNEL32.dll
 0002:00000004       __imp__GetStartupInfoA@4   00411004     kernel32:KERNEL32.dll
 0002:00000008       __imp__GetModuleHandleA@4  00411008     kernel32:KERNEL32.dll
 0002:0000000c       \177KERNEL32_NULL_THUNK_DATA 0041100c     kernel32:KERNEL32.dll
 0002:00000010       __imp_?_Xlen@std@@YAXXZ    00411010     msvcprt:MSVCP60.dll
 0002:00000014       __imp_?_Tidy@?$basic_string@DU?$char_traits@D@std@@V?$allocator@D@2@@std@@AAEX_N@Z 00411014     msvcprt:MSVCP60.dll
 0002:00000018       __imp_?_Copy@?$basic_string@DU?$char_traits@D@std@@V?$allocator@D@2@@std@@AAEXI@Z 00411018     msvcprt:MSVCP60.dll
 0002:0000001c       __imp_?_C@?1??_Nullstr@?$basic_string@DU?$char_traits@D@std@@V?$allocator@D@2@@std@@CAPBDXZ@4DB 0041101c     msvcprt:MSVCP60.dll
 0002:00000020       __imp_?_Grow@?$basic_string@DU?$char_traits@D@std@@V?$allocator@D@2@@std@@AAE_NI_N@Z 00411020     msvcprt:MSVCP60.dll
 0002:00000024       __imp_??1?$basic_string@DU?$char_traits@D@std@@V?$allocator@D@2@@std@@QAE@XZ 00411024     msvcprt:MSVCP60.dll
 0002:00000028       \177MSVCP60_NULL_THUNK_DATA 00411028     msvcprt:MSVCP60.dll
 0002:0000002c       __imp__fopen               0041102c     MSVCRT:MSVCRT.dll
 0002:00000030       __imp__fgetc               00411030     MSVCRT:MSVCRT.dll
 0002:00000034       __imp__atoi                00411034     MSVCRT:MSVCRT.dll
 0002:00000038       __imp__strncpy             00411038     MSVCRT:MSVCRT.dll
 0002:0000003c       __imp__free                0041103c     MSVCRT:MSVCRT.dll
 0002:00000040       __imp__fprintf             00411040     MSVCRT:MSVCRT.dll
 0002:00000044       __imp__malloc              00411044     MSVCRT:MSVCRT.dll
 0002:00000048       __imp____dllonexit         00411048     MSVCRT:MSVCRT.dll
 0002:0000004c       __imp___onexit             0041104c     MSVCRT:MSVCRT.dll
 0002:00000050       __imp___except_handler3    00411050     MSVCRT:MSVCRT.dll
 0002:00000054       __imp__strcpy              00411054     MSVCRT:MSVCRT.dll
 0002:00000058       __imp_?terminate@@YAXXZ    00411058     MSVCRT:MSVCRT.dll
 0002:0000005c       __imp___exit               0041105c     MSVCRT:MSVCRT.dll
 0002:00000060       __imp___XcptFilter         00411060     MSVCRT:MSVCRT.dll
 0002:00000064       __imp__exit                00411064     MSVCRT:MSVCRT.dll
 0002:00000068       __imp___acmdln             00411068     MSVCRT:MSVCRT.dll
 0002:0000006c       __imp____getmainargs       0041106c     MSVCRT:MSVCRT.dll
 0002:00000070       __imp__fclose              00411070     MSVCRT:MSVCRT.dll
 0002:00000074       __imp____CxxFrameHandler   00411074     MSVCRT:MSVCRT.dll
 0002:00000078       __imp_??2@YAPAXI@Z         00411078     MSVCRT:MSVCRT.dll
 0002:0000007c       __imp__getenv              0041107c     MSVCRT:MSVCRT.dll
 0002:00000080       __imp__strpbrk             00411080     MSVCRT:MSVCRT.dll
 0002:00000084       __imp___controlfp          00411084     MSVCRT:MSVCRT.dll
 0002:00000088       __imp____set_app_type      00411088     MSVCRT:MSVCRT.dll
 0002:0000008c       __imp____p__fmode          0041108c     MSVCRT:MSVCRT.dll
 0002:00000090       __imp____p__commode        00411090     MSVCRT:MSVCRT.dll
 0002:00000094       __imp___adjust_fdiv        00411094     MSVCRT:MSVCRT.dll
 0002:00000098       __imp____setusermatherr    00411098     MSVCRT:MSVCRT.dll
 0002:0000009c       __imp___initterm           0041109c     MSVCRT:MSVCRT.dll
 0002:000000a0       __imp__strlen              004110a0     MSVCRT:MSVCRT.dll
 0002:000000a4       \177MSVCRT_NULL_THUNK_DATA 004110a4     MSVCRT:MSVCRT.dll
 0002:000000a8       __imp__wsprintfA           004110a8     user32:USER32.dll
 0002:000000ac       \177USER32_NULL_THUNK_DATA 004110ac     user32:USER32.dll
 0002:000000b0       __imp__GetFileVersionInfoA@16 004110b0     version:VERSION.dll
 0002:000000b4       __imp__GetFileVersionInfoSizeA@8 004110b4     version:VERSION.dll
 0002:000000b8       __imp__VerQueryValueA@16   004110b8     version:VERSION.dll
 0002:000000bc       \177VERSION_NULL_THUNK_DATA 004110bc     version:VERSION.dll
 0002:000000c0       __imp_?reg@bncs_dll_client_shim@@QAE_NPAVIccClientCallback@@HHHH@Z 004110c0     bncs_shim_loader:bncs_shim_loader.dll
 0002:000000c4       __imp_?infoPoll@bncs_dll_client_shim@@QAEXHHH_N@Z 004110c4     bncs_shim_loader:bncs_shim_loader.dll
 0002:000000c8       __imp_?infoQuery@ccClient@@QAEXHHH_N@Z 004110c8     bncs_shim_loader:bncs_shim_loader.dll
 0002:000000cc       __imp_?infoLock@ccClient@@QAEXHHH_N0@Z 004110cc     bncs_shim_loader:bncs_shim_loader.dll
 0002:000000d0       __imp_?gpiSwitch@ccClient@@QAEXHH_N0@Z 004110d0     bncs_shim_loader:bncs_shim_loader.dll
 0002:000000d4       __imp_?infoWrite@ccClient@@QAEXHHABV?$basic_string@DU?$char_traits@D@std@@V?$allocator@D@2@@std@@_N@Z 004110d4     bncs_shim_loader:bncs_shim_loader.dll
 0002:000000d8       __imp_?unreg@bncs_dll_client_shim@@QAEXPAVIccClientCallback@@HH@Z 004110d8     bncs_shim_loader:bncs_shim_loader.dll
 0002:000000dc       __imp_?gpiQuery@ccClient@@QAEXHHH_N@Z 004110dc     bncs_shim_loader:bncs_shim_loader.dll
 0002:000000e0       __imp_?gpiLock@ccClient@@QAEXHHH_N0@Z 004110e0     bncs_shim_loader:bncs_shim_loader.dll
 0002:000000e4       __imp_?routerCrosspoint@ccClient@@QAEXHHHABV?$basic_string@DU?$char_traits@D@std@@V?$allocator@D@2@@std@@_N@Z 004110e4     bncs_shim_loader:bncs_shim_loader.dll
 0002:000000e8       __imp_?routerPoll@bncs_dll_client_shim@@QAEXHHH_N@Z 004110e8     bncs_shim_loader:bncs_shim_loader.dll
 0002:000000ec       __imp_?routerQuery@ccClient@@QAEXHHH_N@Z 004110ec     bncs_shim_loader:bncs_shim_loader.dll
 0002:000000f0       __imp_?routerLock@ccClient@@QAEXHHH_N0@Z 004110f0     bncs_shim_loader:bncs_shim_loader.dll
 0002:000000f4       __imp_?databaseModify@ccClient@@QAE_NHHHABV?$basic_string@DU?$char_traits@D@std@@V?$allocator@D@2@@std@@_N@Z 004110f4     bncs_shim_loader:bncs_shim_loader.dll
 0002:000000f8       __imp_?deviceMessage@ccClient@@QAEXHHABV?$basic_string@DU?$char_traits@D@std@@V?$allocator@D@2@@std@@H@Z 004110f8     bncs_shim_loader:bncs_shim_loader.dll
 0002:000000fc       __imp_??1bncs_shim_loader@@UAE@XZ 004110fc     bncs_shim_loader:bncs_shim_loader.dll
 0002:00000100       __imp_??0bncs_shim_loader@@QAE@XZ 00411100     bncs_shim_loader:bncs_shim_loader.dll
 0002:00000104       __imp_?getShim@bncs_shim_loader@@QAEPAVbncs_dll_client_shim@@XZ 00411104     bncs_shim_loader:bncs_shim_loader.dll
 0002:00000108       __imp_??0ccClient@@QAE@PAVIccClientCallback@@ABV?$basic_string@DU?$char_traits@D@std@@V?$allocator@D@2@@std@@@Z 00411108     bncs_shim_loader:bncs_shim_loader.dll
 0002:0000010c       __imp_?gpiPoll@bncs_dll_client_shim@@QAEXHHH_N@Z 0041110c     bncs_shim_loader:bncs_shim_loader.dll
 0002:00000110       __imp_?connect@ccClient@@QAE_NW4ipcType@cc@@J@Z 00411110     bncs_shim_loader:bncs_shim_loader.dll
 0002:00000114       \177bncs_shim_loader_NULL_THUNK_DATA 00411114     bncs_shim_loader:bncs_shim_loader.dll
 0002:00000118       __imp_?qt_emit@QAction@@UAE_NHPAUQUObject@@@Z 00411118     qt-mt323:qt-mt323.dll
 0002:0000011c       __imp_?qt_invoke@QAction@@UAE_NHPAUQUObject@@@Z 0041111c     qt-mt323:qt-mt323.dll
 0002:00000120       __imp_?qt_cast@QAction@@UAEPAXPBD@Z 00411120     qt-mt323:qt-mt323.dll
 0002:00000124       __imp_?className@QAction@@UBEPBDXZ 00411124     qt-mt323:qt-mt323.dll
 0002:00000128       __imp_?metaObject@QAction@@UBEPAVQMetaObject@@XZ 00411128     qt-mt323:qt-mt323.dll
 0002:0000012c       __imp_?drawButtonLabel@QCheckBox@@MAEXPAVQPainter@@@Z 0041112c     qt-mt323:qt-mt323.dll
 0002:00000130       __imp_?drawButton@QCheckBox@@MAEXPAVQPainter@@@Z 00411130     qt-mt323:qt-mt323.dll
 0002:00000134       __imp_?hitButton@QCheckBox@@MBE_NABVQPoint@@@Z 00411134     qt-mt323:qt-mt323.dll
 0002:00000138       __imp_?updateMask@QCheckBox@@MAEXXZ 00411138     qt-mt323:qt-mt323.dll
 0002:0000013c       __imp_?resizeEvent@QCheckBox@@MAEXPAVQResizeEvent@@@Z 0041113c     qt-mt323:qt-mt323.dll
 0002:00000140       __imp_?focusOutEvent@QButton@@MAEXPAVQFocusEvent@@@Z 00411140     qt-mt323:qt-mt323.dll
 0002:00000144       __imp_?focusInEvent@QButton@@MAEXPAVQFocusEvent@@@Z 00411144     qt-mt323:qt-mt323.dll
 0002:00000148       __imp_?sizeHint@QCheckBox@@UBE?AVQSize@@XZ 00411148     qt-mt323:qt-mt323.dll
 0002:0000014c       __imp_?qt_property@QCheckBox@@UAE_NHHPAVQVariant@@@Z 0041114c     qt-mt323:qt-mt323.dll
 0002:00000150       __imp_?qt_emit@QCheckBox@@UAE_NHPAUQUObject@@@Z 00411150     qt-mt323:qt-mt323.dll
 0002:00000154       __imp_?qt_invoke@QCheckBox@@UAE_NHPAUQUObject@@@Z 00411154     qt-mt323:qt-mt323.dll
 0002:00000158       __imp_?qt_cast@QCheckBox@@UAEPAXPBD@Z 00411158     qt-mt323:qt-mt323.dll
 0002:0000015c       __imp_?className@QCheckBox@@UBEPBDXZ 0041115c     qt-mt323:qt-mt323.dll
 0002:00000160       __imp_?metaObject@QCheckBox@@UBEPAVQMetaObject@@XZ 00411160     qt-mt323:qt-mt323.dll
 0002:00000164       __imp_?stepChange@QRangeControl@@MAEXXZ 00411164     qt-mt323:qt-mt323.dll
 0002:00000168       __imp_?rangeChange@QSpinBox@@MAEXXZ 00411168     qt-mt323:qt-mt323.dll
 0002:0000016c       __imp_?valueChange@QSpinBox@@MAEXXZ 0041116c     qt-mt323:qt-mt323.dll
 0002:00000170       __imp_?interpretText@QSpinBox@@MAEXXZ 00411170     qt-mt323:qt-mt323.dll
 0002:00000174       __imp_?updateDisplay@QSpinBox@@MAEXXZ 00411174     qt-mt323:qt-mt323.dll
 0002:00000178       __imp_?mapTextToValue@QSpinBox@@MAEHPA_N@Z 00411178     qt-mt323:qt-mt323.dll
 0002:0000017c       __imp_?mapValueToText@QSpinBox@@MAE?AVQString@@H@Z 0041117c     qt-mt323:qt-mt323.dll
 0002:00000180       __imp_?selectAll@QSpinBox@@UAEXXZ 00411180     qt-mt323:qt-mt323.dll
 0002:00000184       __imp_?stepDown@QSpinBox@@UAEXXZ 00411184     qt-mt323:qt-mt323.dll
 0002:00000188       __imp_?stepUp@QSpinBox@@UAEXXZ 00411188     qt-mt323:qt-mt323.dll
 0002:0000018c       __imp_?setSuffix@QSpinBox@@UAEXABVQString@@@Z 0041118c     qt-mt323:qt-mt323.dll
 0002:00000190       __imp_?setPrefix@QSpinBox@@UAEXABVQString@@@Z 00411190     qt-mt323:qt-mt323.dll
 0002:00000194       __imp_?setValue@QSpinBox@@UAEXH@Z 00411194     qt-mt323:qt-mt323.dll
 0002:00000198       __imp_?setValidator@QSpinBox@@UAEXPBVQValidator@@@Z 00411198     qt-mt323:qt-mt323.dll
 0002:0000019c       __imp_?setButtonSymbols@QSpinBox@@UAEXW4ButtonSymbols@1@@Z 0041119c     qt-mt323:qt-mt323.dll
 0002:000001a0       __imp_?setWrapping@QSpinBox@@UAEX_N@Z 004111a0     qt-mt323:qt-mt323.dll
 0002:000001a4       __imp_?setSpecialValueText@QSpinBox@@UAEXABVQString@@@Z 004111a4     qt-mt323:qt-mt323.dll
 0002:000001a8       __imp_?cleanText@QSpinBox@@UBE?AVQString@@XZ 004111a8     qt-mt323:qt-mt323.dll
 0002:000001ac       __imp_?suffix@QSpinBox@@UBE?AVQString@@XZ 004111ac     qt-mt323:qt-mt323.dll
 0002:000001b0       __imp_?prefix@QSpinBox@@UBE?AVQString@@XZ 004111b0     qt-mt323:qt-mt323.dll
 0002:000001b4       __imp_?styleChange@QSpinBox@@MAEXAAVQStyle@@@Z 004111b4     qt-mt323:qt-mt323.dll
 0002:000001b8       __imp_?resizeEvent@QSpinBox@@MAEXPAVQResizeEvent@@@Z 004111b8     qt-mt323:qt-mt323.dll
 0002:000001bc       __imp_?paintEvent@QWidget@@MAEXPAVQPaintEvent@@@Z 004111bc     qt-mt323:qt-mt323.dll
 0002:000001c0       __imp_?leaveEvent@QSpinBox@@MAEXPAVQEvent@@@Z 004111c0     qt-mt323:qt-mt323.dll
 0002:000001c4       __imp_?wheelEvent@QSpinBox@@MAEXPAVQWheelEvent@@@Z 004111c4     qt-mt323:qt-mt323.dll
 0002:000001c8       __imp_?minimumSizeHint@QSpinBox@@UBE?AVQSize@@XZ 004111c8     qt-mt323:qt-mt323.dll
 0002:000001cc       __imp_?sizeHint@QSpinBox@@UBE?AVQSize@@XZ 004111cc     qt-mt323:qt-mt323.dll
 0002:000001d0       __imp_?setEnabled@QSpinBox@@UAEX_N@Z 004111d0     qt-mt323:qt-mt323.dll
 0002:000001d4       __imp_?eventFilter@QSpinBox@@MAE_NPAVQObject@@PAVQEvent@@@Z 004111d4     qt-mt323:qt-mt323.dll
 0002:000001d8       __imp_?qt_property@QSpinBox@@UAE_NHHPAVQVariant@@@Z 004111d8     qt-mt323:qt-mt323.dll
 0002:000001dc       __imp_?qt_emit@QSpinBox@@UAE_NHPAUQUObject@@@Z 004111dc     qt-mt323:qt-mt323.dll
 0002:000001e0       __imp_?qt_invoke@QSpinBox@@UAE_NHPAUQUObject@@@Z 004111e0     qt-mt323:qt-mt323.dll
 0002:000001e4       __imp_?qt_cast@QSpinBox@@UAEPAXPBD@Z 004111e4     qt-mt323:qt-mt323.dll
 0002:000001e8       __imp_?className@QSpinBox@@UBEPBDXZ 004111e8     qt-mt323:qt-mt323.dll
 0002:000001ec       __imp_?metaObject@QSpinBox@@UBEPAVQMetaObject@@XZ 004111ec     qt-mt323:qt-mt323.dll
 0002:000001f0       __imp_?spacerItem@QSpacerItem@@UAEPAV1@XZ 004111f0     qt-mt323:qt-mt323.dll
 0002:000001f4       __imp_?layout@QLayoutItem@@UAEPAVQLayout@@XZ 004111f4     qt-mt323:qt-mt323.dll
 0002:000001f8       __imp_?iterator@QLayoutItem@@UAE?AVQLayoutIterator@@XZ 004111f8     qt-mt323:qt-mt323.dll
 0002:000001fc       __imp_?invalidate@QLayoutItem@@UAEXXZ 004111fc     qt-mt323:qt-mt323.dll
 0002:00000200       __imp_?heightForWidth@QLayoutItem@@UBEHH@Z 00411200     qt-mt323:qt-mt323.dll
 0002:00000204       __imp_?hasHeightForWidth@QLayoutItem@@UBE_NXZ 00411204     qt-mt323:qt-mt323.dll
 0002:00000208       __imp_?isEmpty@QSpacerItem@@UBE_NXZ 00411208     qt-mt323:qt-mt323.dll
 0002:0000020c       __imp_?geometry@QSpacerItem@@UBE?AVQRect@@XZ 0041120c     qt-mt323:qt-mt323.dll
 0002:00000210       __imp_?setGeometry@QSpacerItem@@UAEXABVQRect@@@Z 00411210     qt-mt323:qt-mt323.dll
 0002:00000214       __imp_?expanding@QSpacerItem@@UBE?AW4ExpandData@QSizePolicy@@XZ 00411214     qt-mt323:qt-mt323.dll
 0002:00000218       __imp_?maximumSize@QSpacerItem@@UBE?AVQSize@@XZ 00411218     qt-mt323:qt-mt323.dll
 0002:0000021c       __imp_?minimumSize@QSpacerItem@@UBE?AVQSize@@XZ 0041121c     qt-mt323:qt-mt323.dll
 0002:00000220       __imp_?sizeHint@QSpacerItem@@UBE?AVQSize@@XZ 00411220     qt-mt323:qt-mt323.dll
 0002:00000224       __imp_?drawContents@QFrame@@MAEXPAVQPainter@@@Z 00411224     qt-mt323:qt-mt323.dll
 0002:00000228       __imp_?sizeHint@QFrame@@UBE?AVQSize@@XZ 00411228     qt-mt323:qt-mt323.dll
 0002:0000022c       __imp_?qt_property@QFrame@@UAE_NHHPAVQVariant@@@Z 0041122c     qt-mt323:qt-mt323.dll
 0002:00000230       __imp_?qt_emit@QFrame@@UAE_NHPAUQUObject@@@Z 00411230     qt-mt323:qt-mt323.dll
 0002:00000234       __imp_?qt_invoke@QFrame@@UAE_NHPAUQUObject@@@Z 00411234     qt-mt323:qt-mt323.dll
 0002:00000238       __imp_?qt_cast@QFrame@@UAEPAXPBD@Z 00411238     qt-mt323:qt-mt323.dll
 0002:0000023c       __imp_?className@QFrame@@UBEPBDXZ 0041123c     qt-mt323:qt-mt323.dll
 0002:00000240       __imp_?metaObject@QFrame@@UBEPAVQMetaObject@@XZ 00411240     qt-mt323:qt-mt323.dll
 0002:00000244       __imp_?clear@QToolBar@@UAEXXZ 00411244     qt-mt323:qt-mt323.dll
 0002:00000248       __imp_?setLabel@QToolBar@@UAEXABVQString@@@Z 00411248     qt-mt323:qt-mt323.dll
 0002:0000024c       __imp_?setStretchableWidget@QToolBar@@UAEXPAVQWidget@@@Z 0041124c     qt-mt323:qt-mt323.dll
 0002:00000250       __imp_?setOrientation@QToolBar@@UAEXW4Orientation@Qt@@@Z 00411250     qt-mt323:qt-mt323.dll
 0002:00000254       __imp_?dock@QDockWindow@@UAEXXZ 00411254     qt-mt323:qt-mt323.dll
 0002:00000258       __imp_?undock@QDockWindow@@UAEXPAVQWidget@@@Z 00411258     qt-mt323:qt-mt323.dll
 0002:0000025c       __imp_?undock@QDockWindow@@UAEXXZ 0041125c     qt-mt323:qt-mt323.dll
 0002:00000260       __imp_?setOpaqueMoving@QDockWindow@@UAEX_N@Z 00411260     qt-mt323:qt-mt323.dll
 0002:00000264       __imp_?setNewLine@QDockWindow@@UAEX_N@Z 00411264     qt-mt323:qt-mt323.dll
 0002:00000268       __imp_?setFixedExtentHeight@QDockWindow@@UAEXH@Z 00411268     qt-mt323:qt-mt323.dll
 0002:0000026c       __imp_?setFixedExtentWidth@QDockWindow@@UAEXH@Z 0041126c     qt-mt323:qt-mt323.dll
 0002:00000270       __imp_?setOffset@QDockWindow@@UAEXH@Z 00411270     qt-mt323:qt-mt323.dll
 0002:00000274       __imp_?setVerticallyStretchable@QDockWindow@@UAEX_N@Z 00411274     qt-mt323:qt-mt323.dll
 0002:00000278       __imp_?setHorizontallyStretchable@QDockWindow@@UAEX_N@Z 00411278     qt-mt323:qt-mt323.dll
 0002:0000027c       __imp_?setMovingEnabled@QDockWindow@@UAEX_N@Z 0041127c     qt-mt323:qt-mt323.dll
 0002:00000280       __imp_?setResizeEnabled@QDockWindow@@UAEX_N@Z 00411280     qt-mt323:qt-mt323.dll
 0002:00000284       __imp_?setCloseMode@QDockWindow@@UAEXH@Z 00411284     qt-mt323:qt-mt323.dll
 0002:00000288       __imp_?setWidget@QDockWindow@@UAEXPAVQWidget@@@Z 00411288     qt-mt323:qt-mt323.dll
 0002:0000028c       __imp_?drawContents@QDockWindow@@MAEXPAVQPainter@@@Z 0041128c     qt-mt323:qt-mt323.dll
 0002:00000290       __imp_?drawFrame@QDockWindow@@MAEXPAVQPainter@@@Z 00411290     qt-mt323:qt-mt323.dll
 0002:00000294       __imp_?styleChange@QToolBar@@MAEXAAVQStyle@@@Z 00411294     qt-mt323:qt-mt323.dll
 0002:00000298       __imp_?hideEvent@QDockWindow@@MAEXPAVQHideEvent@@@Z 00411298     qt-mt323:qt-mt323.dll
 0002:0000029c       __imp_?showEvent@QDockWindow@@MAEXPAVQShowEvent@@@Z 0041129c     qt-mt323:qt-mt323.dll
 0002:000002a0       __imp_?contextMenuEvent@QDockWindow@@MAEXPAVQContextMenuEvent@@@Z 004112a0     qt-mt323:qt-mt323.dll
 0002:000002a4       __imp_?resizeEvent@QToolBar@@MAEXPAVQResizeEvent@@@Z 004112a4     qt-mt323:qt-mt323.dll
 0002:000002a8       __imp_?minimumSizeHint@QToolBar@@UBE?AVQSize@@XZ 004112a8     qt-mt323:qt-mt323.dll
 0002:000002ac       __imp_?sizeHint@QDockWindow@@UBE?AVQSize@@XZ 004112ac     qt-mt323:qt-mt323.dll
 0002:000002b0       __imp_?hide@QToolBar@@UAEXXZ 004112b0     qt-mt323:qt-mt323.dll
 0002:000002b4       __imp_?show@QToolBar@@UAEXXZ 004112b4     qt-mt323:qt-mt323.dll
 0002:000002b8       __imp_?setCaption@QDockWindow@@UAEXABVQString@@@Z 004112b8     qt-mt323:qt-mt323.dll
 0002:000002bc       __imp_?setMinimumSize@QToolBar@@UAEXHH@Z 004112bc     qt-mt323:qt-mt323.dll
 0002:000002c0       __imp_?eventFilter@QDockWindow@@UAE_NPAVQObject@@PAVQEvent@@@Z 004112c0     qt-mt323:qt-mt323.dll
 0002:000002c4       __imp_?event@QToolBar@@UAE_NPAVQEvent@@@Z 004112c4     qt-mt323:qt-mt323.dll
 0002:000002c8       __imp_?qt_property@QToolBar@@UAE_NHHPAVQVariant@@@Z 004112c8     qt-mt323:qt-mt323.dll
 0002:000002cc       __imp_?qt_emit@QToolBar@@UAE_NHPAUQUObject@@@Z 004112cc     qt-mt323:qt-mt323.dll
 0002:000002d0       __imp_?qt_invoke@QToolBar@@UAE_NHPAUQUObject@@@Z 004112d0     qt-mt323:qt-mt323.dll
 0002:000002d4       __imp_?qt_cast@QToolBar@@UAEPAXPBD@Z 004112d4     qt-mt323:qt-mt323.dll
 0002:000002d8       __imp_?className@QToolBar@@UBEPBDXZ 004112d8     qt-mt323:qt-mt323.dll
 0002:000002dc       __imp_?metaObject@QToolBar@@UBEPAVQMetaObject@@XZ 004112dc     qt-mt323:qt-mt323.dll
 0002:000002e0       __imp_?qt_property@QVBoxLayout@@UAE_NHHPAVQVariant@@@Z 004112e0     qt-mt323:qt-mt323.dll
 0002:000002e4       __imp_?qt_emit@QVBoxLayout@@UAE_NHPAUQUObject@@@Z 004112e4     qt-mt323:qt-mt323.dll
 0002:000002e8       __imp_?qt_invoke@QVBoxLayout@@UAE_NHPAUQUObject@@@Z 004112e8     qt-mt323:qt-mt323.dll
 0002:000002ec       __imp_?qt_cast@QVBoxLayout@@UAEPAXPBD@Z 004112ec     qt-mt323:qt-mt323.dll
 0002:000002f0       __imp_?className@QVBoxLayout@@UBEPBDXZ 004112f0     qt-mt323:qt-mt323.dll
 0002:000002f4       __imp_?metaObject@QVBoxLayout@@UBEPAVQMetaObject@@XZ 004112f4     qt-mt323:qt-mt323.dll
 0002:000002f8       __imp_?setAlignment@QLayoutItem@@UAEXH@Z 004112f8     qt-mt323:qt-mt323.dll
 0002:000002fc       __imp_?spacerItem@QLayoutItem@@UAEPAVQSpacerItem@@XZ 004112fc     qt-mt323:qt-mt323.dll
 0002:00000300       __imp_?layout@QLayout@@UAEPAV1@XZ 00411300     qt-mt323:qt-mt323.dll
 0002:00000304       __imp_?iterator@QBoxLayout@@UAE?AVQLayoutIterator@@XZ 00411304     qt-mt323:qt-mt323.dll
 0002:00000308       __imp_?widget@QLayoutItem@@UAEPAVQWidget@@XZ 00411308     qt-mt323:qt-mt323.dll
 0002:0000030c       __imp_?invalidate@QBoxLayout@@UAEXXZ 0041130c     qt-mt323:qt-mt323.dll
 0002:00000310       __imp_?heightForWidth@QBoxLayout@@UBEHH@Z 00411310     qt-mt323:qt-mt323.dll
 0002:00000314       __imp_?hasHeightForWidth@QBoxLayout@@UBE_NXZ 00411314     qt-mt323:qt-mt323.dll
 0002:00000318       __imp_?isEmpty@QLayout@@UBE_NXZ 00411318     qt-mt323:qt-mt323.dll
 0002:0000031c       __imp_?geometry@QLayout@@UBE?AVQRect@@XZ 0041131c     qt-mt323:qt-mt323.dll
 0002:00000320       __imp_?setGeometry@QBoxLayout@@UAEXABVQRect@@@Z 00411320     qt-mt323:qt-mt323.dll
 0002:00000324       __imp_?expanding@QBoxLayout@@UBE?AW4ExpandData@QSizePolicy@@XZ 00411324     qt-mt323:qt-mt323.dll
 0002:00000328       __imp_?maximumSize@QBoxLayout@@UBE?AVQSize@@XZ 00411328     qt-mt323:qt-mt323.dll
 0002:0000032c       __imp_?minimumSize@QBoxLayout@@UBE?AVQSize@@XZ 0041132c     qt-mt323:qt-mt323.dll
 0002:00000330       __imp_?sizeHint@QBoxLayout@@UBE?AVQSize@@XZ 00411330     qt-mt323:qt-mt323.dll
 0002:00000334       __imp_?addItem@QBoxLayout@@UAEXPAVQLayoutItem@@@Z 00411334     qt-mt323:qt-mt323.dll
 0002:00000338       __imp_?setAutoAdd@QLayout@@UAEX_N@Z 00411338     qt-mt323:qt-mt323.dll
 0002:0000033c       __imp_?setMenuBar@QLayout@@UAEXPAVQMenuBar@@@Z 0041133c     qt-mt323:qt-mt323.dll
 0002:00000340       __imp_?setSpacing@QLayout@@UAEXH@Z 00411340     qt-mt323:qt-mt323.dll
 0002:00000344       __imp_?setMargin@QLayout@@UAEXH@Z 00411344     qt-mt323:qt-mt323.dll
 0002:00000348       __imp_?childEvent@QLayout@@MAEXPAVQChildEvent@@@Z 00411348     qt-mt323:qt-mt323.dll
 0002:0000034c       __imp_?setName@QObject@@UAEXPBD@Z 0041134c     qt-mt323:qt-mt323.dll
 0002:00000350       __imp_?eventFilter@QLayout@@MAE_NPAVQObject@@PAVQEvent@@@Z 00411350     qt-mt323:qt-mt323.dll
 0002:00000354       __imp_?event@QObject@@UAE_NPAVQEvent@@@Z 00411354     qt-mt323:qt-mt323.dll
 0002:00000358       __imp_?qt_property@QHBoxLayout@@UAE_NHHPAVQVariant@@@Z 00411358     qt-mt323:qt-mt323.dll
 0002:0000035c       __imp_?qt_emit@QHBoxLayout@@UAE_NHPAUQUObject@@@Z 0041135c     qt-mt323:qt-mt323.dll
 0002:00000360       __imp_?qt_invoke@QHBoxLayout@@UAE_NHPAUQUObject@@@Z 00411360     qt-mt323:qt-mt323.dll
 0002:00000364       __imp_?qt_cast@QHBoxLayout@@UAEPAXPBD@Z 00411364     qt-mt323:qt-mt323.dll
 0002:00000368       __imp_?className@QHBoxLayout@@UBEPBDXZ 00411368     qt-mt323:qt-mt323.dll
 0002:0000036c       __imp_?metaObject@QHBoxLayout@@UBEPAVQMetaObject@@XZ 0041136c     qt-mt323:qt-mt323.dll
 0002:00000370       __imp_?setNum@QLabel@@UAEXH@Z 00411370     qt-mt323:qt-mt323.dll
 0002:00000374       __imp_?setNum@QLabel@@UAEXN@Z 00411374     qt-mt323:qt-mt323.dll
 0002:00000378       __imp_?setMovie@QLabel@@UAEXABVQMovie@@@Z 00411378     qt-mt323:qt-mt323.dll
 0002:0000037c       __imp_?setPicture@QLabel@@UAEXABVQPicture@@@Z 0041137c     qt-mt323:qt-mt323.dll
 0002:00000380       __imp_?setPixmap@QLabel@@UAEXABVQPixmap@@@Z 00411380     qt-mt323:qt-mt323.dll
 0002:00000384       __imp_?setText@QLabel@@UAEXABVQString@@@Z 00411384     qt-mt323:qt-mt323.dll
 0002:00000388       __imp_?setBuddy@QLabel@@UAEXPAVQWidget@@@Z 00411388     qt-mt323:qt-mt323.dll
 0002:0000038c       __imp_?setAutoResize@QLabel@@UAEX_N@Z 0041138c     qt-mt323:qt-mt323.dll
 0002:00000390       __imp_?setAlignment@QLabel@@UAEXH@Z 00411390     qt-mt323:qt-mt323.dll
 0002:00000394       __imp_?frameChanged@QFrame@@MAEXXZ 00411394     qt-mt323:qt-mt323.dll
 0002:00000398       __imp_?drawContents@QLabel@@MAEXPAVQPainter@@@Z 00411398     qt-mt323:qt-mt323.dll
 0002:0000039c       __imp_?fontChange@QLabel@@MAEXABVQFont@@@Z 0041139c     qt-mt323:qt-mt323.dll
 0002:000003a0       __imp_?enabledChange@QWidget@@MAEX_N@Z 004113a0     qt-mt323:qt-mt323.dll
 0002:000003a4       __imp_?styleChange@QFrame@@MAEXAAVQStyle@@@Z 004113a4     qt-mt323:qt-mt323.dll
 0002:000003a8       __imp_?resizeEvent@QLabel@@MAEXPAVQResizeEvent@@@Z 004113a8     qt-mt323:qt-mt323.dll
 0002:000003ac       __imp_?paintEvent@QFrame@@MAEXPAVQPaintEvent@@@Z 004113ac     qt-mt323:qt-mt323.dll
 0002:000003b0       __imp_?focusOutEvent@QWidget@@MAEXPAVQFocusEvent@@@Z 004113b0     qt-mt323:qt-mt323.dll
 0002:000003b4       __imp_?focusInEvent@QWidget@@MAEXPAVQFocusEvent@@@Z 004113b4     qt-mt323:qt-mt323.dll
 0002:000003b8       __imp_?keyPressEvent@QWidget@@MAEXPAVQKeyEvent@@@Z 004113b8     qt-mt323:qt-mt323.dll
 0002:000003bc       __imp_?mouseMoveEvent@QWidget@@MAEXPAVQMouseEvent@@@Z 004113bc     qt-mt323:qt-mt323.dll
 0002:000003c0       __imp_?mouseReleaseEvent@QWidget@@MAEXPAVQMouseEvent@@@Z 004113c0     qt-mt323:qt-mt323.dll
 0002:000003c4       __imp_?mousePressEvent@QWidget@@MAEXPAVQMouseEvent@@@Z 004113c4     qt-mt323:qt-mt323.dll
 0002:000003c8       __imp_?heightForWidth@QLabel@@UBEHH@Z 004113c8     qt-mt323:qt-mt323.dll
 0002:000003cc       __imp_?minimumSizeHint@QLabel@@UBE?AVQSize@@XZ 004113cc     qt-mt323:qt-mt323.dll
 0002:000003d0       __imp_?sizeHint@QLabel@@UBE?AVQSize@@XZ 004113d0     qt-mt323:qt-mt323.dll
 0002:000003d4       __imp_?setFont@QLabel@@UAEXABVQFont@@@Z 004113d4     qt-mt323:qt-mt323.dll
 0002:000003d8       __imp_?qt_property@QLabel@@UAE_NHHPAVQVariant@@@Z 004113d8     qt-mt323:qt-mt323.dll
 0002:000003dc       __imp_?qt_emit@QLabel@@UAE_NHPAUQUObject@@@Z 004113dc     qt-mt323:qt-mt323.dll
 0002:000003e0       __imp_?qt_invoke@QLabel@@UAE_NHPAUQUObject@@@Z 004113e0     qt-mt323:qt-mt323.dll
 0002:000003e4       __imp_?qt_cast@QLabel@@UAEPAXPBD@Z 004113e4     qt-mt323:qt-mt323.dll
 0002:000003e8       __imp_?className@QLabel@@UBEPBDXZ 004113e8     qt-mt323:qt-mt323.dll
 0002:000003ec       __imp_?metaObject@QLabel@@UBEPAVQMetaObject@@XZ 004113ec     qt-mt323:qt-mt323.dll
 0002:000003f0       __imp_?setOn@QPushButton@@UAEX_N@Z 004113f0     qt-mt323:qt-mt323.dll
 0002:000003f4       __imp_?setIsMenuButton@QPushButton@@UAEX_N@Z 004113f4     qt-mt323:qt-mt323.dll
 0002:000003f8       __imp_?setDefault@QPushButton@@UAEX_N@Z 004113f8     qt-mt323:qt-mt323.dll
 0002:000003fc       __imp_?setAutoDefault@QPushButton@@UAEX_N@Z 004113fc     qt-mt323:qt-mt323.dll
 0002:00000400       __imp_?setGroup@QButton@@EAEXPAVQButtonGroup@@@Z 00411400     qt-mt323:qt-mt323.dll
 0002:00000404       __imp_?drawButtonLabel@QPushButton@@MAEXPAVQPainter@@@Z 00411404     qt-mt323:qt-mt323.dll
 0002:00000408       __imp_?drawButton@QPushButton@@MAEXPAVQPainter@@@Z 00411408     qt-mt323:qt-mt323.dll
 0002:0000040c       __imp_?hitButton@QButton@@MBE_NABVQPoint@@@Z 0041140c     qt-mt323:qt-mt323.dll
 0002:00000410       __imp_?setState@QButton@@MAEXW4ToggleState@1@@Z 00411410     qt-mt323:qt-mt323.dll
 0002:00000414       __imp_?setToggleType@QButton@@MAEXW4ToggleType@1@@Z 00411414     qt-mt323:qt-mt323.dll
 0002:00000418       __imp_?setAutoRepeat@QButton@@UAEX_N@Z 00411418     qt-mt323:qt-mt323.dll
 0002:0000041c       __imp_?setDown@QButton@@UAEX_N@Z 0041141c     qt-mt323:qt-mt323.dll
 0002:00000420       __imp_?setAccel@QButton@@UAEXABVQKeySequence@@@Z 00411420     qt-mt323:qt-mt323.dll
 0002:00000424       __imp_?setPixmap@QButton@@UAEXABVQPixmap@@@Z 00411424     qt-mt323:qt-mt323.dll
 0002:00000428       __imp_?setText@QButton@@UAEXABVQString@@@Z 00411428     qt-mt323:qt-mt323.dll
 0002:0000042c       __imp_?focusNextPrevChild@QWidget@@MAE_N_N@Z 0041142c     qt-mt323:qt-mt323.dll
 0002:00000430       __imp_?enabledChange@QButton@@MAEX_N@Z 00411430     qt-mt323:qt-mt323.dll
 0002:00000434       __imp_?styleChange@QWidget@@MAEXAAVQStyle@@@Z 00411434     qt-mt323:qt-mt323.dll
 0002:00000438       __imp_?updateMask@QPushButton@@MAEXXZ 00411438     qt-mt323:qt-mt323.dll
 0002:0000043c       __imp_?closeEvent@QWidget@@MAEXPAVQCloseEvent@@@Z 0041143c     qt-mt323:qt-mt323.dll
 0002:00000440       __imp_?resizeEvent@QPushButton@@MAEXPAVQResizeEvent@@@Z 00411440     qt-mt323:qt-mt323.dll
 0002:00000444       __imp_?paintEvent@QButton@@MAEXPAVQPaintEvent@@@Z 00411444     qt-mt323:qt-mt323.dll
 0002:00000448       __imp_?leaveEvent@QWidget@@MAEXPAVQEvent@@@Z 00411448     qt-mt323:qt-mt323.dll
 0002:0000044c       __imp_?focusOutEvent@QPushButton@@MAEXPAVQFocusEvent@@@Z 0041144c     qt-mt323:qt-mt323.dll
 0002:00000450       __imp_?focusInEvent@QPushButton@@MAEXPAVQFocusEvent@@@Z 00411450     qt-mt323:qt-mt323.dll
 0002:00000454       __imp_?keyReleaseEvent@QButton@@MAEXPAVQKeyEvent@@@Z 00411454     qt-mt323:qt-mt323.dll
 0002:00000458       __imp_?keyPressEvent@QButton@@MAEXPAVQKeyEvent@@@Z 00411458     qt-mt323:qt-mt323.dll
 0002:0000045c       __imp_?mouseMoveEvent@QButton@@MAEXPAVQMouseEvent@@@Z 0041145c     qt-mt323:qt-mt323.dll
 0002:00000460       __imp_?mouseReleaseEvent@QButton@@MAEXPAVQMouseEvent@@@Z 00411460     qt-mt323:qt-mt323.dll
 0002:00000464       __imp_?mousePressEvent@QButton@@MAEXPAVQMouseEvent@@@Z 00411464     qt-mt323:qt-mt323.dll
 0002:00000468       __imp_?customWhatsThis@QWidget@@UBE_NXZ 00411468     qt-mt323:qt-mt323.dll
 0002:0000046c       __imp_?sizeHint@QPushButton@@UBE?AVQSize@@XZ 0041146c     qt-mt323:qt-mt323.dll
 0002:00000470       __imp_?setGeometry@QPushButton@@UAEXHHHH@Z 00411470     qt-mt323:qt-mt323.dll
 0002:00000474       __imp_?setGeometry@QPushButton@@UAEXABVQRect@@@Z 00411474     qt-mt323:qt-mt323.dll
 0002:00000478       __imp_?resize@QPushButton@@UAEXHH@Z 00411478     qt-mt323:qt-mt323.dll
 0002:0000047c       __imp_?move@QPushButton@@UAEXHH@Z 0041147c     qt-mt323:qt-mt323.dll
 0002:00000480       __imp_?hide@QWidget@@UAEXXZ 00411480     qt-mt323:qt-mt323.dll
 0002:00000484       __imp_?show@QWidget@@UAEXXZ 00411484     qt-mt323:qt-mt323.dll
 0002:00000488       __imp_?setFont@QWidget@@UAEXABVQFont@@@Z 00411488     qt-mt323:qt-mt323.dll
 0002:0000048c       __imp_?timerEvent@QObject@@MAEXPAVQTimerEvent@@@Z 0041148c     qt-mt323:qt-mt323.dll
 0002:00000490       __imp_?qt_property@QPushButton@@UAE_NHHPAVQVariant@@@Z 00411490     qt-mt323:qt-mt323.dll
 0002:00000494       __imp_?qt_emit@QPushButton@@UAE_NHPAUQUObject@@@Z 00411494     qt-mt323:qt-mt323.dll
 0002:00000498       __imp_?qt_invoke@QPushButton@@UAE_NHPAUQUObject@@@Z 00411498     qt-mt323:qt-mt323.dll
 0002:0000049c       __imp_?qt_cast@QPushButton@@UAEPAXPBD@Z 0041149c     qt-mt323:qt-mt323.dll
 0002:000004a0       __imp_?className@QPushButton@@UBEPBDXZ 004114a0     qt-mt323:qt-mt323.dll
 0002:000004a4       __imp_?metaObject@QPushButton@@UBEPAVQMetaObject@@XZ 004114a4     qt-mt323:qt-mt323.dll
 0002:000004a8       __imp_?menuDelPopup@QPopupMenu@@EAEXPAV1@@Z 004114a8     qt-mt323:qt-mt323.dll
 0002:000004ac       __imp_?menuInsPopup@QPopupMenu@@EAEXPAV1@@Z 004114ac     qt-mt323:qt-mt323.dll
 0002:000004b0       __imp_?menuStateChanged@QPopupMenu@@EAEXXZ 004114b0     qt-mt323:qt-mt323.dll
 0002:000004b4       __imp_?menuContentsChanged@QPopupMenu@@EAEXXZ 004114b4     qt-mt323:qt-mt323.dll
 0002:000004b8       __imp_?activateItemAt@QPopupMenu@@UAEXH@Z 004114b8     qt-mt323:qt-mt323.dll
 0002:000004bc       __imp_?setId@QMenuData@@UAEXHH@Z 004114bc     qt-mt323:qt-mt323.dll
 0002:000004c0       __imp_?updateItem@QPopupMenu@@UAEXH@Z 004114c0     qt-mt323:qt-mt323.dll
 0002:000004c4       __imp_?fontInf@QPaintDevice@@MBEHPAVQFont@@H@Z 004114c4     qt-mt323:qt-mt323.dll
 0002:000004c8       __imp_?fontMet@QPaintDevice@@MBEHPAVQFont@@HPBDH@Z 004114c8     qt-mt323:qt-mt323.dll
 0002:000004cc       __imp_?metric@QWidget@@MBEHH@Z 004114cc     qt-mt323:qt-mt323.dll
 0002:000004d0       __imp_?cmd@QPaintDevice@@MAE_NHPAVQPainter@@PATQPDevCmdParam@@@Z 004114d0     qt-mt323:qt-mt323.dll
 0002:000004d4       __imp_?handle@QPaintDevice@@UBEPAUHDC__@@XZ 004114d4     qt-mt323:qt-mt323.dll
 0002:000004d8       __imp_?resolution@QPaintDevice@@UBEHXZ 004114d8     qt-mt323:qt-mt323.dll
 0002:000004dc       __imp_?setResolution@QPaintDevice@@UAEXH@Z 004114dc     qt-mt323:qt-mt323.dll
 0002:000004e0       __imp_?setFirstItemActive@QPopupMenu@@EAEXXZ 004114e0     qt-mt323:qt-mt323.dll
 0002:000004e4       __imp_?setActiveItem@QPopupMenu@@UAEXH@Z 004114e4     qt-mt323:qt-mt323.dll
 0002:000004e8       __imp_?setCheckable@QPopupMenu@@UAEX_N@Z 004114e8     qt-mt323:qt-mt323.dll
 0002:000004ec       __imp_?frameChanged@QPopupMenu@@EAEXXZ 004114ec     qt-mt323:qt-mt323.dll
 0002:000004f0       __imp_?drawContents@QPopupMenu@@MAEXPAVQPainter@@@Z 004114f0     qt-mt323:qt-mt323.dll
 0002:000004f4       __imp_?drawFrame@QFrame@@MAEXPAVQPainter@@@Z 004114f4     qt-mt323:qt-mt323.dll
 0002:000004f8       __imp_?setFrameRect@QFrame@@UAEXABVQRect@@@Z 004114f8     qt-mt323:qt-mt323.dll
 0002:000004fc       __imp_?setMidLineWidth@QFrame@@UAEXH@Z 004114fc     qt-mt323:qt-mt323.dll
 0002:00000500       __imp_?setMargin@QFrame@@UAEXH@Z 00411500     qt-mt323:qt-mt323.dll
 0002:00000504       __imp_?setLineWidth@QFrame@@UAEXH@Z 00411504     qt-mt323:qt-mt323.dll
 0002:00000508       __imp_?setFrameStyle@QFrame@@UAEXH@Z 00411508     qt-mt323:qt-mt323.dll
 0002:0000050c       __imp_?setMicroFocusHint@QWidget@@MAEXHHHH_NPAVQFont@@@Z 0041150c     qt-mt323:qt-mt323.dll
 0002:00000510       __imp_?setKeyCompression@QWidget@@MAEX_N@Z 00411510     qt-mt323:qt-mt323.dll
 0002:00000514       __imp_?focusNextPrevChild@QPopupMenu@@MAE_N_N@Z 00411514     qt-mt323:qt-mt323.dll
 0002:00000518       __imp_?setWFlags@QWidget@@MAEXI@Z 00411518     qt-mt323:qt-mt323.dll
 0002:0000051c       __imp_?setWState@QWidget@@MAEXI@Z 0041151c     qt-mt323:qt-mt323.dll
 0002:00000520       __imp_?destroy@QWidget@@MAEX_N0@Z 00411520     qt-mt323:qt-mt323.dll
 0002:00000524       __imp_?create@QWidget@@MAEXPAUHWND__@@_N1@Z 00411524     qt-mt323:qt-mt323.dll
 0002:00000528       __imp_?windowActivationChange@QWidget@@MAEX_N@Z 00411528     qt-mt323:qt-mt323.dll
 0002:0000052c       __imp_?fontChange@QWidget@@MAEXABVQFont@@@Z 0041152c     qt-mt323:qt-mt323.dll
 0002:00000530       __imp_?paletteChange@QWidget@@MAEXABVQPalette@@@Z 00411530     qt-mt323:qt-mt323.dll
 0002:00000534       __imp_?enabledChange@QPopupMenu@@MAEX_N@Z 00411534     qt-mt323:qt-mt323.dll
 0002:00000538       __imp_?styleChange@QPopupMenu@@MAEXAAVQStyle@@@Z 00411538     qt-mt323:qt-mt323.dll
 0002:0000053c       __imp_?updateMask@QWidget@@MAEXXZ 0041153c     qt-mt323:qt-mt323.dll
 0002:00000540       __imp_?winEvent@QWidget@@MAE_NPAUtagMSG@@@Z 00411540     qt-mt323:qt-mt323.dll
 0002:00000544       __imp_?hideEvent@QWidget@@MAEXPAVQHideEvent@@@Z 00411544     qt-mt323:qt-mt323.dll
 0002:00000548       __imp_?showEvent@QWidget@@MAEXPAVQShowEvent@@@Z 00411548     qt-mt323:qt-mt323.dll
 0002:0000054c       __imp_?dropEvent@QWidget@@MAEXPAVQDropEvent@@@Z 0041154c     qt-mt323:qt-mt323.dll
 0002:00000550       __imp_?dragLeaveEvent@QWidget@@MAEXPAVQDragLeaveEvent@@@Z 00411550     qt-mt323:qt-mt323.dll
 0002:00000554       __imp_?dragMoveEvent@QWidget@@MAEXPAVQDragMoveEvent@@@Z 00411554     qt-mt323:qt-mt323.dll
 0002:00000558       __imp_?dragEnterEvent@QWidget@@MAEXPAVQDragEnterEvent@@@Z 00411558     qt-mt323:qt-mt323.dll
 0002:0000055c       __imp_?tabletEvent@QWidget@@MAEXPAVQTabletEvent@@@Z 0041155c     qt-mt323:qt-mt323.dll
 0002:00000560       __imp_?imEndEvent@QWidget@@MAEXPAVQIMEvent@@@Z 00411560     qt-mt323:qt-mt323.dll
 0002:00000564       __imp_?imComposeEvent@QWidget@@MAEXPAVQIMEvent@@@Z 00411564     qt-mt323:qt-mt323.dll
 0002:00000568       __imp_?imStartEvent@QWidget@@MAEXPAVQIMEvent@@@Z 00411568     qt-mt323:qt-mt323.dll
 0002:0000056c       __imp_?contextMenuEvent@QWidget@@MAEXPAVQContextMenuEvent@@@Z 0041156c     qt-mt323:qt-mt323.dll
 0002:00000570       __imp_?closeEvent@QPopupMenu@@MAEXPAVQCloseEvent@@@Z 00411570     qt-mt323:qt-mt323.dll
 0002:00000574       __imp_?resizeEvent@QFrame@@MAEXPAVQResizeEvent@@@Z 00411574     qt-mt323:qt-mt323.dll
 0002:00000578       __imp_?moveEvent@QWidget@@MAEXPAVQMoveEvent@@@Z 00411578     qt-mt323:qt-mt323.dll
 0002:0000057c       __imp_?paintEvent@QPopupMenu@@MAEXPAVQPaintEvent@@@Z 0041157c     qt-mt323:qt-mt323.dll
 0002:00000580       __imp_?leaveEvent@QPopupMenu@@MAEXPAVQEvent@@@Z 00411580     qt-mt323:qt-mt323.dll
 0002:00000584       __imp_?enterEvent@QWidget@@MAEXPAVQEvent@@@Z 00411584     qt-mt323:qt-mt323.dll
 0002:00000588       __imp_?focusOutEvent@QPopupMenu@@MAEXPAVQFocusEvent@@@Z 00411588     qt-mt323:qt-mt323.dll
 0002:0000058c       __imp_?focusInEvent@QPopupMenu@@MAEXPAVQFocusEvent@@@Z 0041158c     qt-mt323:qt-mt323.dll
 0002:00000590       __imp_?keyReleaseEvent@QWidget@@MAEXPAVQKeyEvent@@@Z 00411590     qt-mt323:qt-mt323.dll
 0002:00000594       __imp_?keyPressEvent@QPopupMenu@@MAEXPAVQKeyEvent@@@Z 00411594     qt-mt323:qt-mt323.dll
 0002:00000598       __imp_?wheelEvent@QWidget@@MAEXPAVQWheelEvent@@@Z 00411598     qt-mt323:qt-mt323.dll
 0002:0000059c       __imp_?mouseMoveEvent@QPopupMenu@@MAEXPAVQMouseEvent@@@Z 0041159c     qt-mt323:qt-mt323.dll
 0002:000005a0       __imp_?mouseDoubleClickEvent@QWidget@@MAEXPAVQMouseEvent@@@Z 004115a0     qt-mt323:qt-mt323.dll
 0002:000005a4       __imp_?mouseReleaseEvent@QPopupMenu@@MAEXPAVQMouseEvent@@@Z 004115a4     qt-mt323:qt-mt323.dll
 0002:000005a8       __imp_?mousePressEvent@QPopupMenu@@MAEXPAVQMouseEvent@@@Z 004115a8     qt-mt323:qt-mt323.dll
 0002:000005ac       __imp_?customWhatsThis@QPopupMenu@@UBE_NXZ 004115ac     qt-mt323:qt-mt323.dll
 0002:000005b0       __imp_?setBackgroundOrigin@QWidget@@UAEXW4BackgroundOrigin@1@@Z 004115b0     qt-mt323:qt-mt323.dll
 0002:000005b4       __imp_?setAutoMask@QWidget@@UAEX_N@Z 004115b4     qt-mt323:qt-mt323.dll
 0002:000005b8       __imp_?setAcceptDrops@QWidget@@UAEX_N@Z 004115b8     qt-mt323:qt-mt323.dll
 0002:000005bc       __imp_?reparent@QWidget@@UAEXPAV1@IABVQPoint@@_N@Z 004115bc     qt-mt323:qt-mt323.dll
 0002:000005c0       __imp_?adjustSize@QWidget@@UAEXXZ 004115c0     qt-mt323:qt-mt323.dll
 0002:000005c4       __imp_?heightForWidth@QWidget@@UBEHH@Z 004115c4     qt-mt323:qt-mt323.dll
 0002:000005c8       __imp_?setSizePolicy@QWidget@@UAEXVQSizePolicy@@@Z 004115c8     qt-mt323:qt-mt323.dll
 0002:000005cc       __imp_?sizePolicy@QWidget@@UBE?AVQSizePolicy@@XZ 004115cc     qt-mt323:qt-mt323.dll
 0002:000005d0       __imp_?minimumSizeHint@QWidget@@UBE?AVQSize@@XZ 004115d0     qt-mt323:qt-mt323.dll
 0002:000005d4       __imp_?sizeHint@QPopupMenu@@UBE?AVQSize@@XZ 004115d4     qt-mt323:qt-mt323.dll
 0002:000005d8       __imp_?setGeometry@QWidget@@UAEXHHHH@Z 004115d8     qt-mt323:qt-mt323.dll
 0002:000005dc       __imp_?setGeometry@QWidget@@UAEXABVQRect@@@Z 004115dc     qt-mt323:qt-mt323.dll
 0002:000005e0       __imp_?resize@QWidget@@UAEXHH@Z 004115e0     qt-mt323:qt-mt323.dll
 0002:000005e4       __imp_?move@QWidget@@UAEXHH@Z 004115e4     qt-mt323:qt-mt323.dll
 0002:000005e8       __imp_?close@QWidget@@UAE_N_N@Z 004115e8     qt-mt323:qt-mt323.dll
 0002:000005ec       __imp_?polish@QWidget@@UAEXXZ 004115ec     qt-mt323:qt-mt323.dll
 0002:000005f0       __imp_?showNormal@QWidget@@UAEXXZ 004115f0     qt-mt323:qt-mt323.dll
 0002:000005f4       __imp_?showMaximized@QWidget@@UAEXXZ 004115f4     qt-mt323:qt-mt323.dll
 0002:000005f8       __imp_?showMinimized@QWidget@@UAEXXZ 004115f8     qt-mt323:qt-mt323.dll
 0002:000005fc       __imp_?hide@QPopupMenu@@UAEXXZ 004115fc     qt-mt323:qt-mt323.dll
 0002:00000600       __imp_?show@QPopupMenu@@UAEXXZ 00411600     qt-mt323:qt-mt323.dll
 0002:00000604       __imp_?setUpdatesEnabled@QWidget@@UAEX_N@Z 00411604     qt-mt323:qt-mt323.dll
 0002:00000608       __imp_?setFocusProxy@QWidget@@UAEXPAV1@@Z 00411608     qt-mt323:qt-mt323.dll
 0002:0000060c       __imp_?setFocusPolicy@QWidget@@UAEXW4FocusPolicy@1@@Z 0041160c     qt-mt323:qt-mt323.dll
 0002:00000610       __imp_?setActiveWindow@QWidget@@UAEXXZ 00411610     qt-mt323:qt-mt323.dll
 0002:00000614       __imp_?setFocus@QWidget@@UAEXXZ 00411614     qt-mt323:qt-mt323.dll
 0002:00000618       __imp_?setMouseTracking@QWidget@@UAEX_N@Z 00411618     qt-mt323:qt-mt323.dll
 0002:0000061c       __imp_?setIconText@QWidget@@UAEXABVQString@@@Z 0041161c     qt-mt323:qt-mt323.dll
 0002:00000620       __imp_?setIcon@QWidget@@UAEXABVQPixmap@@@Z 00411620     qt-mt323:qt-mt323.dll
 0002:00000624       __imp_?setCaption@QWidget@@UAEXABVQString@@@Z 00411624     qt-mt323:qt-mt323.dll
 0002:00000628       __imp_?setBackgroundPixmap@QWidget@@UAEXABVQPixmap@@@Z 00411628     qt-mt323:qt-mt323.dll
 0002:0000062c       __imp_?setBackgroundColor@QWidget@@UAEXABVQColor@@@Z 0041162c     qt-mt323:qt-mt323.dll
 0002:00000630       __imp_?setMask@QWidget@@UAEXABVQBitmap@@@Z 00411630     qt-mt323:qt-mt323.dll
 0002:00000634       __imp_?setMask@QWidget@@UAEXABVQRegion@@@Z 00411634     qt-mt323:qt-mt323.dll
 0002:00000638       __imp_?unsetCursor@QWidget@@UAEXXZ 00411638     qt-mt323:qt-mt323.dll
 0002:0000063c       __imp_?setCursor@QWidget@@UAEXABVQCursor@@@Z 0041163c     qt-mt323:qt-mt323.dll
 0002:00000640       __imp_?setFont@QPopupMenu@@UAEXABVQFont@@@Z 00411640     qt-mt323:qt-mt323.dll
 0002:00000644       __imp_?setPaletteBackgroundPixmap@QWidget@@UAEXABVQPixmap@@@Z 00411644     qt-mt323:qt-mt323.dll
 0002:00000648       __imp_?setPaletteBackgroundColor@QWidget@@UAEXABVQColor@@@Z 00411648     qt-mt323:qt-mt323.dll
 0002:0000064c       __imp_?setPalette@QWidget@@UAEXABVQPalette@@@Z 0041164c     qt-mt323:qt-mt323.dll
 0002:00000650       __imp_?setErasePixmap@QWidget@@UAEXABVQPixmap@@@Z 00411650     qt-mt323:qt-mt323.dll
 0002:00000654       __imp_?setEraseColor@QWidget@@UAEXABVQColor@@@Z 00411654     qt-mt323:qt-mt323.dll
 0002:00000658       __imp_?setBackgroundMode@QWidget@@UAEXW4BackgroundMode@Qt@@@Z 00411658     qt-mt323:qt-mt323.dll
 0002:0000065c       __imp_?setSizeIncrement@QWidget@@UAEXHH@Z 0041165c     qt-mt323:qt-mt323.dll
 0002:00000660       __imp_?setMaximumSize@QWidget@@UAEXHH@Z 00411660     qt-mt323:qt-mt323.dll
 0002:00000664       __imp_?setMinimumSize@QWidget@@UAEXHH@Z 00411664     qt-mt323:qt-mt323.dll
 0002:00000668       __imp_?setEnabled@QWidget@@UAEX_N@Z 00411668     qt-mt323:qt-mt323.dll
 0002:0000066c       __imp_?checkConnectArgs@QObject@@MAE_NPBDPBV1@0@Z 0041166c     qt-mt323:qt-mt323.dll
 0002:00000670       __imp_?disconnectNotify@QObject@@MAEXPBD@Z 00411670     qt-mt323:qt-mt323.dll
 0002:00000674       __imp_?connectNotify@QObject@@MAEXPBD@Z 00411674     qt-mt323:qt-mt323.dll
 0002:00000678       __imp_?customEvent@QObject@@MAEXPAVQCustomEvent@@@Z 00411678     qt-mt323:qt-mt323.dll
 0002:0000067c       __imp_?childEvent@QObject@@MAEXPAVQChildEvent@@@Z 0041167c     qt-mt323:qt-mt323.dll
 0002:00000680       __imp_?timerEvent@QPopupMenu@@MAEXPAVQTimerEvent@@@Z 00411680     qt-mt323:qt-mt323.dll
 0002:00000684       __imp_?property@QObject@@UBE?AVQVariant@@PBD@Z 00411684     qt-mt323:qt-mt323.dll
 0002:00000688       __imp_?setProperty@QObject@@UAE_NPBDABVQVariant@@@Z 00411688     qt-mt323:qt-mt323.dll
 0002:0000068c       __imp_?removeChild@QObject@@UAEXPAV1@@Z 0041168c     qt-mt323:qt-mt323.dll
 0002:00000690       __imp_?insertChild@QObject@@UAEXPAV1@@Z 00411690     qt-mt323:qt-mt323.dll
 0002:00000694       __imp_?setName@QWidget@@UAEXPBD@Z 00411694     qt-mt323:qt-mt323.dll
 0002:00000698       __imp_?eventFilter@QObject@@UAE_NPAV1@PAVQEvent@@@Z 00411698     qt-mt323:qt-mt323.dll
 0002:0000069c       __imp_?event@QWidget@@MAE_NPAVQEvent@@@Z 0041169c     qt-mt323:qt-mt323.dll
 0002:000006a0       __imp_?qt_property@QPopupMenu@@UAE_NHHPAVQVariant@@@Z 004116a0     qt-mt323:qt-mt323.dll
 0002:000006a4       __imp_?qt_emit@QPopupMenu@@UAE_NHPAUQUObject@@@Z 004116a4     qt-mt323:qt-mt323.dll
 0002:000006a8       __imp_?qt_invoke@QPopupMenu@@UAE_NHPAUQUObject@@@Z 004116a8     qt-mt323:qt-mt323.dll
 0002:000006ac       __imp_?qt_cast@QPopupMenu@@UAEPAXPBD@Z 004116ac     qt-mt323:qt-mt323.dll
 0002:000006b0       __imp_?className@QPopupMenu@@UBEPBDXZ 004116b0     qt-mt323:qt-mt323.dll
 0002:000006b4       __imp_?metaObject@QPopupMenu@@UBEPAVQMetaObject@@XZ 004116b4     qt-mt323:qt-mt323.dll
 0002:000006b8       __imp_??1QString@@QAE@XZ   004116b8     qt-mt323:qt-mt323.dll
 0002:000006bc       __imp_??1QStringList@@QAE@XZ 004116bc     qt-mt323:qt-mt323.dll
 0002:000006c0       __imp_??1QMainWindow@@UAE@XZ 004116c0     qt-mt323:qt-mt323.dll
 0002:000006c4       __imp_??1QSettings@@QAE@XZ 004116c4     qt-mt323:qt-mt323.dll
 0002:000006c8       __imp_??1QFileInfo@@QAE@XZ 004116c8     qt-mt323:qt-mt323.dll
 0002:000006cc       __imp_?critical@QMessageBox@@SAHPAVQWidget@@ABVQString@@1111HH@Z 004116cc     qt-mt323:qt-mt323.dll
 0002:000006d0       __imp_??0QString@@QAE@ABV0@@Z 004116d0     qt-mt323:qt-mt323.dll
 0002:000006d4       __imp_?exists@QFileInfo@@QBE_NXZ 004116d4     qt-mt323:qt-mt323.dll
 0002:000006d8       __imp_??0QFileInfo@@QAE@ABVQString@@@Z 004116d8     qt-mt323:qt-mt323.dll
 0002:000006dc       __imp_?readEntry@QSettings@@QAE?AVQString@@ABV2@0PA_N@Z 004116dc     qt-mt323:qt-mt323.dll
 0002:000006e0       __imp_?null@QString@@2V1@A 004116e0     qt-mt323:qt-mt323.dll
 0002:000006e4       __imp_?readListEntry@QSettings@@QAE?AVQStringList@@ABVQString@@PA_N@Z 004116e4     qt-mt323:qt-mt323.dll
 0002:000006e8       __imp_?setPath@QSettings@@QAEXABVQString@@0W4Scope@1@@Z 004116e8     qt-mt323:qt-mt323.dll
 0002:000006ec       __imp_??0QSettings@@QAE@XZ 004116ec     qt-mt323:qt-mt323.dll
 0002:000006f0       __imp_??4QString@@QAEAAV0@ABV0@@Z 004116f0     qt-mt323:qt-mt323.dll
 0002:000006f4       __imp_?remove@QString@@QAEAAV1@ABV1@@Z 004116f4     qt-mt323:qt-mt323.dll
 0002:000006f8       __imp_?find@QString@@QBEHABV1@H_N@Z 004116f8     qt-mt323:qt-mt323.dll
 0002:000006fc       __imp_?statusBar@QMainWindow@@QBEPAVQStatusBar@@XZ 004116fc     qt-mt323:qt-mt323.dll
 0002:00000700       __imp_?addWidget@QBoxLayout@@QAEXPAVQWidget@@HH@Z 00411700     qt-mt323:qt-mt323.dll
 0002:00000704       __imp_??0QHBoxLayout@@QAE@PAVQLayout@@HPBD@Z 00411704     qt-mt323:qt-mt323.dll
 0002:00000708       __imp_??0QVBoxLayout@@QAE@PAVQWidget@@HHPBD@Z 00411708     qt-mt323:qt-mt323.dll
 0002:0000070c       __imp_??0QFrame@@QAE@PAVQWidget@@PBDI@Z 0041170c     qt-mt323:qt-mt323.dll
 0002:00000710       __imp_?add@QWhatsThis@@SAXPAVQWidget@@ABVQString@@@Z 00411710     qt-mt323:qt-mt323.dll
 0002:00000714       __imp_??0QPushButton@@QAE@ABVQString@@PAVQWidget@@PBD@Z 00411714     qt-mt323:qt-mt323.dll
 0002:00000718       __imp_??0QCheckBox@@QAE@ABVQString@@PAVQWidget@@PBD@Z 00411718     qt-mt323:qt-mt323.dll
 0002:0000071c       __imp_??0QSpinBox@@QAE@HHHPAVQWidget@@PBD@Z 0041171c     qt-mt323:qt-mt323.dll
 0002:00000720       __imp_??0QLabel@@QAE@ABVQString@@PAVQWidget@@PBDI@Z 00411720     qt-mt323:qt-mt323.dll
 0002:00000724       __imp_??1QKeySequence@@QAE@XZ 00411724     qt-mt323:qt-mt323.dll
 0002:00000728       __imp_?insertItem@QMenuData@@QAEHABVQString@@PBVQObject@@PBDABVQKeySequence@@HH@Z 00411728     qt-mt323:qt-mt323.dll
 0002:0000072c       __imp_?insertSeparator@QMenuData@@QAEHH@Z 0041172c     qt-mt323:qt-mt323.dll
 0002:00000730       __imp_??0QAction@@QAE@ABVQString@@VQKeySequence@@PAVQObject@@PBD@Z 00411730     qt-mt323:qt-mt323.dll
 0002:00000734       __imp_??1QIconSet@@UAE@XZ  00411734     qt-mt323:qt-mt323.dll
 0002:00000738       __imp_??0QAction@@QAE@ABVQIconSet@@ABVQString@@VQKeySequence@@PAVQObject@@PBD@Z 00411738     qt-mt323:qt-mt323.dll
 0002:0000073c       __imp_??0QIconSet@@QAE@ABVQPixmap@@W4Size@0@@Z 0041173c     qt-mt323:qt-mt323.dll
 0002:00000740       __imp_??0QKeySequence@@QAE@H@Z 00411740     qt-mt323:qt-mt323.dll
 0002:00000744       __imp_?whatsThisButton@QWhatsThis@@SAPAVQToolButton@@PAVQWidget@@@Z 00411744     qt-mt323:qt-mt323.dll
 0002:00000748       __imp_??0QToolBar@@QAE@PAVQMainWindow@@PBD@Z 00411748     qt-mt323:qt-mt323.dll
 0002:0000074c       __imp_?insertItem@QMenuData@@QAEHABVQString@@PAVQPopupMenu@@HH@Z 0041174c     qt-mt323:qt-mt323.dll
 0002:00000750       __imp_?menuBar@QMainWindow@@QBEPAVQMenuBar@@XZ 00411750     qt-mt323:qt-mt323.dll
 0002:00000754       __imp_??0QPopupMenu@@QAE@PAVQWidget@@PBD@Z 00411754     qt-mt323:qt-mt323.dll
 0002:00000758       __imp_?connect@QObject@@SA_NPBV1@PBD01@Z 00411758     qt-mt323:qt-mt323.dll
 0002:0000075c       __imp_?qApp@@3PAVQApplication@@A 0041175c     qt-mt323:qt-mt323.dll
 0002:00000760       __imp_??4QString@@QAEAAV0@PBD@Z 00411760     qt-mt323:qt-mt323.dll
 0002:00000764       __imp_??1QPixmap@@UAE@XZ   00411764     qt-mt323:qt-mt323.dll
 0002:00000768       __imp_??0QPixmap@@QAE@QAPBD@Z 00411768     qt-mt323:qt-mt323.dll
 0002:0000076c       __imp_?deleteSelf@QStringData@@QAEXXZ 0041176c     qt-mt323:qt-mt323.dll
 0002:00000770       __imp_??0QString@@QAE@PBD@Z 00411770     qt-mt323:qt-mt323.dll
 0002:00000774       __imp_?makeSharedNull@QString@@CAPAUQStringData@@XZ 00411774     qt-mt323:qt-mt323.dll
 0002:00000778       __imp_?shared_null@QString@@0PAUQStringData@@A 00411778     qt-mt323:qt-mt323.dll
 0002:0000077c       __imp_??0QString@@QAE@XZ   0041177c     qt-mt323:qt-mt323.dll
 0002:00000780       __imp_??0QMainWindow@@QAE@PAVQWidget@@PBDI@Z 00411780     qt-mt323:qt-mt323.dll
 0002:00000784       __imp_??1QSpacerItem@@UAE@XZ 00411784     qt-mt323:qt-mt323.dll
 0002:00000788       __imp_??1QPopupMenu@@UAE@XZ 00411788     qt-mt323:qt-mt323.dll
 0002:0000078c       __imp_??1QToolBar@@UAE@XZ  0041178c     qt-mt323:qt-mt323.dll
 0002:00000790       __imp_??1QAction@@UAE@XZ   00411790     qt-mt323:qt-mt323.dll
 0002:00000794       __imp_??1QLabel@@UAE@XZ    00411794     qt-mt323:qt-mt323.dll
 0002:00000798       __imp_??1QSpinBox@@UAE@XZ  00411798     qt-mt323:qt-mt323.dll
 0002:0000079c       __imp_??1QCheckBox@@UAE@XZ 0041179c     qt-mt323:qt-mt323.dll
 0002:000007a0       __imp_??1QPushButton@@UAE@XZ 004117a0     qt-mt323:qt-mt323.dll
 0002:000007a4       __imp_??1QFrame@@UAE@XZ    004117a4     qt-mt323:qt-mt323.dll
 0002:000007a8       __imp_??1QVBoxLayout@@UAE@XZ 004117a8     qt-mt323:qt-mt323.dll
 0002:000007ac       __imp_??1QHBoxLayout@@UAE@XZ 004117ac     qt-mt323:qt-mt323.dll
 0002:000007b0       __imp_?writeEntry@QSettings@@QAE_NABVQString@@ABVQStringList@@@Z 004117b0     qt-mt323:qt-mt323.dll
 0002:000007b4       __imp_?writeEntry@QSettings@@QAE_NABVQString@@0@Z 004117b4     qt-mt323:qt-mt323.dll
 0002:000007b8       __imp_?killTimer@QObject@@QAEXH@Z 004117b8     qt-mt323:qt-mt323.dll
 0002:000007bc       __imp_?startTimer@QObject@@QAEHH@Z 004117bc     qt-mt323:qt-mt323.dll
 0002:000007c0       __imp_?value@QSpinBox@@QBEHXZ 004117c0     qt-mt323:qt-mt323.dll
 0002:000007c4       __imp_?animateClick@QButton@@QAEXXZ 004117c4     qt-mt323:qt-mt323.dll
 0002:000007c8       __imp_?getOpenFileName@QFileDialog@@SA?AVQString@@ABV2@0PAVQWidget@@PBD0PAV2@_N@Z 004117c8     qt-mt323:qt-mt323.dll
 0002:000007cc       __imp_?arg@QString@@QBE?AV1@ABV1@H@Z 004117cc     qt-mt323:qt-mt323.dll
 0002:000007d0       __imp_??H@YA?BVQString@@ABV0@0@Z 004117d0     qt-mt323:qt-mt323.dll
 0002:000007d4       __imp_?name@QObject@@QBEPBDXZ 004117d4     qt-mt323:qt-mt323.dll
 0002:000007d8       __imp_?question@QMessageBox@@SAHPAVQWidget@@ABVQString@@1111HH@Z 004117d8     qt-mt323:qt-mt323.dll
 0002:000007dc       __imp_??H@YA?BVQString@@ABV0@PBD@Z 004117dc     qt-mt323:qt-mt323.dll
 0002:000007e0       __imp_??YQString@@QAEAAV0@PBD@Z 004117e0     qt-mt323:qt-mt323.dll
 0002:000007e4       __imp_?endsWith@QString@@QBE_NABV1@@Z 004117e4     qt-mt323:qt-mt323.dll
 0002:000007e8       __imp_?getSaveFileName@QFileDialog@@SA?AVQString@@ABV2@0PAVQWidget@@PBD0PAV2@_N@Z 004117e8     qt-mt323:qt-mt323.dll
 0002:000007ec       __imp_?qDebug@@YAXPBDZZ    004117ec     qt-mt323:qt-mt323.dll
 0002:000007f0       __imp_?text@QLineEdit@@QBE?AVQString@@XZ 004117f0     qt-mt323:qt-mt323.dll
 0002:000007f4       __imp_?qt_property@QAction@@UAE_NHHPAVQVariant@@@Z 004117f4     qt-mt323:qt-mt323.dll
 0002:000007f8       __imp_??4?$QValueList@VQString@@@@QAEAAV0@ABV0@@Z 004117f8     qt-mt323:qt-mt323.dll
 0002:000007fc       __imp_??0?$QValueList@VQString@@@@QAE@XZ 004117fc     qt-mt323:qt-mt323.dll
 0002:00000800       __imp_?latin1@QString@@QBEPBDXZ 00411800     qt-mt323:qt-mt323.dll
 0002:00000804       __imp_??YQString@@QAEAAV0@D@Z 00411804     qt-mt323:qt-mt323.dll
 0002:00000808       __imp_?end@?$QValueList@VQString@@@@QAE?AV?$QValueListIterator@VQString@@@@XZ 00411808     qt-mt323:qt-mt323.dll
 0002:0000080c       __imp_?join@QStringList@@QBE?AVQString@@ABV2@@Z 0041180c     qt-mt323:qt-mt323.dll
 0002:00000810       __imp_??8@YA_NABVQString@@PBD@Z 00411810     qt-mt323:qt-mt323.dll
 0002:00000814       __imp_?toInt@QString@@QBEHPA_NH@Z 00411814     qt-mt323:qt-mt323.dll
 0002:00000818       __imp_?section@QString@@QBE?AV1@DHHH@Z 00411818     qt-mt323:qt-mt323.dll
 0002:0000081c       __imp_?about@QMessageBox@@SAXPAVQWidget@@ABVQString@@1@Z 0041181c     qt-mt323:qt-mt323.dll
 0002:00000820       __imp_?erase@?$QValueList@VQString@@@@QAE?AV?$QValueListIterator@VQString@@@@V2@@Z 00411820     qt-mt323:qt-mt323.dll
 0002:00000824       __imp_??F?$QValueListIterator@VQString@@@@QAEAAV0@XZ 00411824     qt-mt323:qt-mt323.dll
 0002:00000828       __imp_?begin@?$QValueList@VQString@@@@QAE?AV?$QValueListIterator@VQString@@@@XZ 00411828     qt-mt323:qt-mt323.dll
 0002:0000082c       __imp_?remove@?$QValueList@VQString@@@@QAE?AV?$QValueListIterator@VQString@@@@V2@@Z 0041182c     qt-mt323:qt-mt323.dll
 0002:00000830       __imp_?clear@QMenuData@@QAEXXZ 00411830     qt-mt323:qt-mt323.dll
 0002:00000834       __imp_??8@YA_NABVQString@@0@Z 00411834     qt-mt323:qt-mt323.dll
 0002:00000838       __imp_?information@QMessageBox@@SAHPAVQWidget@@ABVQString@@1111HH@Z 00411838     qt-mt323:qt-mt323.dll
 0002:0000083c       __imp_?qWarning@@YAXPBDZZ  0041183c     qt-mt323:qt-mt323.dll
 0002:00000840       __imp_?toInt@QVariant@@QBEHPA_N@Z 00411840     qt-mt323:qt-mt323.dll
 0002:00000844       __imp_??0?$QValueListIterator@VQString@@@@QAE@ABV0@@Z 00411844     qt-mt323:qt-mt323.dll
 0002:00000848       __imp_?createPopupMenu@QLineEdit@@MAEPAVQPopupMenu@@XZ 00411848     qt-mt323:qt-mt323.dll
 0002:0000084c       __imp_?setDragEnabled@QLineEdit@@UAEX_N@Z 0041184c     qt-mt323:qt-mt323.dll
 0002:00000850       __imp_?paste@QLineEdit@@UAEXXZ 00411850     qt-mt323:qt-mt323.dll
 0002:00000854       __imp_?copy@QLineEdit@@UBEXXZ 00411854     qt-mt323:qt-mt323.dll
 0002:00000858       __imp_?cut@QLineEdit@@UAEXXZ 00411858     qt-mt323:qt-mt323.dll
 0002:0000085c       __imp_?setAlignment@QLineEdit@@UAEXH@Z 0041185c     qt-mt323:qt-mt323.dll
 0002:00000860       __imp_?setCursorPosition@QLineEdit@@UAEXH@Z 00411860     qt-mt323:qt-mt323.dll
 0002:00000864       __imp_?setSelection@QLineEdit@@UAEXHH@Z 00411864     qt-mt323:qt-mt323.dll
 0002:00000868       __imp_?setValidator@QLineEdit@@UAEXPBVQValidator@@@Z 00411868     qt-mt323:qt-mt323.dll
 0002:0000086c       __imp_?setReadOnly@QLineEdit@@UAEX_N@Z 0041186c     qt-mt323:qt-mt323.dll
 0002:00000870       __imp_?setEchoMode@QLineEdit@@UAEXW4EchoMode@1@@Z 00411870     qt-mt323:qt-mt323.dll
 0002:00000874       __imp_?setFrame@QLineEdit@@UAEX_N@Z 00411874     qt-mt323:qt-mt323.dll
 0002:00000878       __imp_?setMaxLength@QLineEdit@@UAEXH@Z 00411878     qt-mt323:qt-mt323.dll
 0002:0000087c       __imp_?redo@QLineEdit@@UAEXXZ 0041187c     qt-mt323:qt-mt323.dll
 0002:00000880       __imp_?undo@QLineEdit@@UAEXXZ 00411880     qt-mt323:qt-mt323.dll
 0002:00000884       __imp_?clear@QLineEdit@@UAEXXZ 00411884     qt-mt323:qt-mt323.dll
 0002:00000888       __imp_?insert@QLineEdit@@UAEXABVQString@@@Z 00411888     qt-mt323:qt-mt323.dll
 0002:0000088c       __imp_?clearValidator@QLineEdit@@UAEXXZ 0041188c     qt-mt323:qt-mt323.dll
 0002:00000890       __imp_?deselect@QLineEdit@@UAEXXZ 00411890     qt-mt323:qt-mt323.dll
 0002:00000894       __imp_?selectAll@QLineEdit@@UAEXXZ 00411894     qt-mt323:qt-mt323.dll
 0002:00000898       __imp_?setText@QLineEdit@@UAEXABVQString@@@Z 00411898     qt-mt323:qt-mt323.dll
 0002:0000089c       __imp_?drawContents@QLineEdit@@MAEXPAVQPainter@@@Z 0041189c     qt-mt323:qt-mt323.dll
 0002:000008a0       __imp_?windowActivationChange@QLineEdit@@MAEX_N@Z 004118a0     qt-mt323:qt-mt323.dll
 0002:000008a4       __imp_?dropEvent@QLineEdit@@MAEXPAVQDropEvent@@@Z 004118a4     qt-mt323:qt-mt323.dll
 0002:000008a8       __imp_?dragLeaveEvent@QLineEdit@@MAEXPAVQDragLeaveEvent@@@Z 004118a8     qt-mt323:qt-mt323.dll
 0002:000008ac       __imp_?dragMoveEvent@QLineEdit@@MAEXPAVQDragMoveEvent@@@Z 004118ac     qt-mt323:qt-mt323.dll
 0002:000008b0       __imp_?dragEnterEvent@QLineEdit@@MAEXPAVQDragEnterEvent@@@Z 004118b0     qt-mt323:qt-mt323.dll
 0002:000008b4       __imp_?imEndEvent@QLineEdit@@MAEXPAVQIMEvent@@@Z 004118b4     qt-mt323:qt-mt323.dll
 0002:000008b8       __imp_?imComposeEvent@QLineEdit@@MAEXPAVQIMEvent@@@Z 004118b8     qt-mt323:qt-mt323.dll
 0002:000008bc       __imp_?imStartEvent@QLineEdit@@MAEXPAVQIMEvent@@@Z 004118bc     qt-mt323:qt-mt323.dll
 0002:000008c0       __imp_?contextMenuEvent@QLineEdit@@MAEXPAVQContextMenuEvent@@@Z 004118c0     qt-mt323:qt-mt323.dll
 0002:000008c4       __imp_?resizeEvent@QLineEdit@@MAEXPAVQResizeEvent@@@Z 004118c4     qt-mt323:qt-mt323.dll
 0002:000008c8       __imp_?focusOutEvent@QLineEdit@@MAEXPAVQFocusEvent@@@Z 004118c8     qt-mt323:qt-mt323.dll
 0002:000008cc       __imp_?focusInEvent@QLineEdit@@MAEXPAVQFocusEvent@@@Z 004118cc     qt-mt323:qt-mt323.dll
 0002:000008d0       __imp_?mouseMoveEvent@QLineEdit@@MAEXPAVQMouseEvent@@@Z 004118d0     qt-mt323:qt-mt323.dll
 0002:000008d4       __imp_?mouseDoubleClickEvent@QLineEdit@@MAEXPAVQMouseEvent@@@Z 004118d4     qt-mt323:qt-mt323.dll
 0002:000008d8       __imp_?mouseReleaseEvent@QLineEdit@@MAEXPAVQMouseEvent@@@Z 004118d8     qt-mt323:qt-mt323.dll
 0002:000008dc       __imp_?mousePressEvent@QLineEdit@@MAEXPAVQMouseEvent@@@Z 004118dc     qt-mt323:qt-mt323.dll
 0002:000008e0       __imp_?minimumSizeHint@QLineEdit@@UBE?AVQSize@@XZ 004118e0     qt-mt323:qt-mt323.dll
 0002:000008e4       __imp_?sizeHint@QLineEdit@@UBE?AVQSize@@XZ 004118e4     qt-mt323:qt-mt323.dll
 0002:000008e8       __imp_?setFont@QLineEdit@@UAEXABVQFont@@@Z 004118e8     qt-mt323:qt-mt323.dll
 0002:000008ec       __imp_?setPalette@QLineEdit@@UAEXABVQPalette@@@Z 004118ec     qt-mt323:qt-mt323.dll
 0002:000008f0       __imp_?event@QLineEdit@@MAE_NPAVQEvent@@@Z 004118f0     qt-mt323:qt-mt323.dll
 0002:000008f4       __imp_??1QLineEdit@@UAE@XZ 004118f4     qt-mt323:qt-mt323.dll
 0002:000008f8       __imp_??0QLineEdit@@QAE@PAVQWidget@@PBD@Z 004118f8     qt-mt323:qt-mt323.dll
 0002:000008fc       __imp_?keyPressEvent@QLineEdit@@MAEXPAVQKeyEvent@@@Z 004118fc     qt-mt323:qt-mt323.dll
 0002:00000900       __imp_?compareItems@QGList@@MAEHPAX0@Z 00411900     qt-mt323:qt-mt323.dll
 0002:00000904       __imp_?write@QGList@@MBEAAVQDataStream@@AAV2@PAX@Z 00411904     qt-mt323:qt-mt323.dll
 0002:00000908       __imp_?read@QGList@@MAEAAVQDataStream@@AAV2@AAPAX@Z 00411908     qt-mt323:qt-mt323.dll
 0002:0000090c       __imp_?newItem@QPtrCollection@@MAEPAXPAX@Z 0041190c     qt-mt323:qt-mt323.dll
 0002:00000910       __imp_?sizeHint@QWidget@@UBE?AVQSize@@XZ 00411910     qt-mt323:qt-mt323.dll
 0002:00000914       __imp_??1QWidget@@UAE@XZ   00411914     qt-mt323:qt-mt323.dll
 0002:00000918       __imp_?append@QGList@@IAEXPAX@Z 00411918     qt-mt323:qt-mt323.dll
 0002:0000091c       __imp_??0QHBoxLayout@@QAE@HPBD@Z 0041191c     qt-mt323:qt-mt323.dll
 0002:00000920       __imp_??0QGList@@IAE@XZ    00411920     qt-mt323:qt-mt323.dll
 0002:00000924       __imp_??0QWidget@@QAE@PAV0@PBDI@Z 00411924     qt-mt323:qt-mt323.dll
 0002:00000928       __imp_?next@QGList@@IAEPAXXZ 00411928     qt-mt323:qt-mt323.dll
 0002:0000092c       __imp_?first@QGList@@IAEPAXXZ 0041192c     qt-mt323:qt-mt323.dll
 0002:00000930       __imp_??A?$QValueList@VQString@@@@QAEAAVQString@@I@Z 00411930     qt-mt323:qt-mt323.dll
 0002:00000934       __imp_?clear@QGList@@MAEXXZ 00411934     qt-mt323:qt-mt323.dll
 0002:00000938       __imp_??1QGList@@MAE@XZ    00411938     qt-mt323:qt-mt323.dll
 0002:0000093c       __imp_??0?$QMap@VQString@@H@@QAE@XZ 0041193c     qt-mt323:qt-mt323.dll
 0002:00000940       __imp_??0?$QMap@VQString@@V1@@@QAE@XZ 00411940     qt-mt323:qt-mt323.dll
 0002:00000944       __imp_??0QHBoxLayout@@QAE@PAVQWidget@@HHPBD@Z 00411944     qt-mt323:qt-mt323.dll
 0002:00000948       __imp_??0QCheckBox@@QAE@PAVQWidget@@PBD@Z 00411948     qt-mt323:qt-mt323.dll
 0002:0000094c       __imp_??H@YA?BVQString@@PBDABV0@@Z 0041194c     qt-mt323:qt-mt323.dll
 0002:00000950       __imp_?ascii@QString@@QBEPBDXZ 00411950     qt-mt323:qt-mt323.dll
 0002:00000954       __imp_?startsWith@QString@@QBE_NABV1@@Z 00411954     qt-mt323:qt-mt323.dll
 0002:00000958       __imp_??YQString@@QAEAAV0@ABV0@@Z 00411958     qt-mt323:qt-mt323.dll
 0002:0000095c       __imp_?mid@QString@@QBE?AV1@II@Z 0041195c     qt-mt323:qt-mt323.dll
 0002:00000960       __imp_?left@QString@@QBE?AV1@I@Z 00411960     qt-mt323:qt-mt323.dll
 0002:00000964       __imp_?find@QString@@QBEHVQChar@@H_N@Z 00411964     qt-mt323:qt-mt323.dll
 0002:00000968       __imp_??0QChar@@QAE@D@Z    00411968     qt-mt323:qt-mt323.dll
 0002:0000096c       __imp_?cursorPosition@QLineEdit@@QBEHXZ 0041196c     qt-mt323:qt-mt323.dll
 0002:00000970       __imp_?null@QChar@@2V1@A   00411970     qt-mt323:qt-mt323.dll
 0002:00000974       __imp_?remove@QString@@QAEAAV1@II@Z 00411974     qt-mt323:qt-mt323.dll
 0002:00000978       __imp_??1QRegExp@@QAE@XZ   00411978     qt-mt323:qt-mt323.dll
 0002:0000097c       __imp_?stripWhiteSpace@QString@@QBE?AV1@XZ 0041197c     qt-mt323:qt-mt323.dll
 0002:00000980       __imp_?section@QString@@QBE?AV1@ABVQRegExp@@HHH@Z 00411980     qt-mt323:qt-mt323.dll
 0002:00000984       __imp_??0QRegExp@@QAE@ABVQString@@_N1@Z 00411984     qt-mt323:qt-mt323.dll
 0002:00000988       __imp_?detachInternal@?$QMap@VQString@@H@@AAEXXZ 00411988     qt-mt323:qt-mt323.dll
 0002:0000098c       __imp_?message@QStatusBar@@QAEXABVQString@@@Z 0041198c     qt-mt323:qt-mt323.dll
 0002:00000990       __imp_?number@QString@@SA?AV1@HH@Z 00411990     qt-mt323:qt-mt323.dll
 0002:00000994       __imp_?inherits@QObject@@QBE_NPBD@Z 00411994     qt-mt323:qt-mt323.dll
 0002:00000998       __imp_?topLevelWidget@QWidget@@QBEPAV1@XZ 00411998     qt-mt323:qt-mt323.dll
 0002:0000099c       __imp_?section@QString@@QBE?AV1@PBDHHH@Z 0041199c     qt-mt323:qt-mt323.dll
 0002:000009a0       __imp_?setNum@QString@@QAEAAV1@_JH@Z 004119a0     qt-mt323:qt-mt323.dll
 0002:000009a4       __imp_?replace@QString@@QAEAAV1@ABV1@0@Z 004119a4     qt-mt323:qt-mt323.dll
 0002:000009a8       __imp_?contains@QString@@QBEHPBD_N@Z 004119a8     qt-mt323:qt-mt323.dll
 0002:000009ac       __imp_?detachInternal@?$QMap@VQString@@V1@@@AAEXXZ 004119ac     qt-mt323:qt-mt323.dll
 0002:000009b0       __imp_?detach@?$QMap@VQString@@V1@@@IAEXXZ 004119b0     qt-mt323:qt-mt323.dll
 0002:000009b4       __imp_?setLength@QString@@QAEXI@Z 004119b4     qt-mt323:qt-mt323.dll
 0002:000009b8       __imp_??M@YA_NABVQString@@0@Z 004119b8     qt-mt323:qt-mt323.dll
 0002:000009bc       __imp_?rebalance@QMapPrivateBase@@QAEXPAUQMapNodeBase@@AAPAU2@@Z 004119bc     qt-mt323:qt-mt323.dll
 0002:000009c0       __imp_??1QApplication@@UAE@XZ 004119c0     qt-mt323:qt-mt323.dll
 0002:000009c4       __imp_?exec@QApplication@@QAEHXZ 004119c4     qt-mt323:qt-mt323.dll
 0002:000009c8       __imp_?setMainWidget@QApplication@@UAEXPAVQWidget@@@Z 004119c8     qt-mt323:qt-mt323.dll
 0002:000009cc       __imp_?warning@QMessageBox@@SAHPAVQWidget@@ABVQString@@1111HH@Z 004119cc     qt-mt323:qt-mt323.dll
 0002:000009d0       __imp_??0QApplication@@QAE@AAHPAPAD@Z 004119d0     qt-mt323:qt-mt323.dll
 0002:000009d4       __imp_??0QMetaObjectCleanUp@@QAE@PBDP6APAVQMetaObject@@XZ@Z 004119d4     qt-mt323:qt-mt323.dll
 0002:000009d8       __imp_??1QMetaObjectCleanUp@@QAE@XZ 004119d8     qt-mt323:qt-mt323.dll
 0002:000009dc       __imp_?fromLatin1@QString@@SA?AV1@PBDH@Z 004119dc     qt-mt323:qt-mt323.dll
 0002:000009e0       __imp_?translate@QApplication@@QBE?AVQString@@PBD00W4Encoding@1@@Z 004119e0     qt-mt323:qt-mt323.dll
 0002:000009e4       __imp_?setMetaObject@QMetaObjectCleanUp@@QAEXAAPAVQMetaObject@@@Z 004119e4     qt-mt323:qt-mt323.dll
 0002:000009e8       __imp_?new_metaobject@QMetaObject@@SAPAV1@PBDPAV1@QBUQMetaData@@H2HQBVQMetaProperty@@HQBUQMetaEnum@@HQBUQClassInfo@@H@Z 004119e8     qt-mt323:qt-mt323.dll
 0002:000009ec       __imp_?static_QUType_QString@@3UQUType_QString@@A 004119ec     qt-mt323:qt-mt323.dll
 0002:000009f0       __imp_?staticMetaObject@QLineEdit@@SAPAVQMetaObject@@XZ 004119f0     qt-mt323:qt-mt323.dll
 0002:000009f4       __imp_?qt_cast@QLineEdit@@UAEPAXPBD@Z 004119f4     qt-mt323:qt-mt323.dll
 0002:000009f8       __imp_?activate_signal@QObject@@IAEXH@Z 004119f8     qt-mt323:qt-mt323.dll
 0002:000009fc       __imp_?qt_invoke@QLineEdit@@UAE_NHPAUQUObject@@@Z 004119fc     qt-mt323:qt-mt323.dll
 0002:00000a00       __imp_?qt_emit@QLineEdit@@UAE_NHPAUQUObject@@@Z 00411a00     qt-mt323:qt-mt323.dll
 0002:00000a04       __imp_?qt_property@QLineEdit@@UAE_NHHPAVQVariant@@@Z 00411a04     qt-mt323:qt-mt323.dll
 0002:00000a08       __imp_?insertItem@QListBox@@QAEXABVQString@@H@Z 00411a08     qt-mt323:qt-mt323.dll
 0002:00000a0c       __imp_?clear@QListBox@@QAEXXZ 00411a0c     qt-mt323:qt-mt323.dll
 0002:00000a10       __imp_?sprintf@QString@@QAAAAV1@PBDZZ 00411a10     qt-mt323:qt-mt323.dll
 0002:00000a14       __imp_?toString@QTime@@QBE?AVQString@@ABV2@@Z 00411a14     qt-mt323:qt-mt323.dll
 0002:00000a18       __imp_?currentTime@QTime@@SA?AV1@XZ 00411a18     qt-mt323:qt-mt323.dll
 0002:00000a1c       __imp_?arg@QString@@QBE?AV1@HHH@Z 00411a1c     qt-mt323:qt-mt323.dll
 0002:00000a20       __imp_?main_widget@QApplication@@0PAVQWidget@@A 00411a20     qt-mt323:qt-mt323.dll
 0002:00000a24       __imp_?append@?$QValueList@VQString@@@@QAE?AV?$QValueListIterator@VQString@@@@ABVQString@@@Z 00411a24     qt-mt323:qt-mt323.dll
 0002:00000a28       __imp_?setMaxLogLines@QTextEdit@@QAEXH@Z 00411a28     qt-mt323:qt-mt323.dll
 0002:00000a2c       __imp_?clear@?$QValueList@VQString@@@@QAEXXZ 00411a2c     qt-mt323:qt-mt323.dll
 0002:00000a30       __imp_?static_QUType_QVariant@@3UQUType_QVariant@@A 00411a30     qt-mt323:qt-mt323.dll
 0002:00000a34       __imp_?static_QUType_bool@@3UQUType_bool@@A 00411a34     qt-mt323:qt-mt323.dll
 0002:00000a38       __imp_?static_QUType_ptr@@3UQUType_ptr@@A 00411a38     qt-mt323:qt-mt323.dll
 0002:00000a3c       __imp_?static_QUType_int@@3UQUType_int@@A 00411a3c     qt-mt323:qt-mt323.dll
 0002:00000a40       __imp_?staticMetaObject@QMainWindow@@SAPAVQMetaObject@@XZ 00411a40     qt-mt323:qt-mt323.dll
 0002:00000a44       __imp_?qt_cast@QMainWindow@@UAEPAXPBD@Z 00411a44     qt-mt323:qt-mt323.dll
 0002:00000a48       __imp_?qt_invoke@QMainWindow@@UAE_NHPAUQUObject@@@Z 00411a48     qt-mt323:qt-mt323.dll
 0002:00000a4c       __imp_?get@QUType_QVariant@@QAEAAVQVariant@@PAUQUObject@@@Z 00411a4c     qt-mt323:qt-mt323.dll
 0002:00000a50       __imp_?qt_emit@QMainWindow@@UAE_NHPAUQUObject@@@Z 00411a50     qt-mt323:qt-mt323.dll
 0002:00000a54       __imp_?qt_property@QMainWindow@@UAE_NHHPAVQVariant@@@Z 00411a54     qt-mt323:qt-mt323.dll
 0002:00000a58       __imp_?static_QUType_varptr@@3UQUType_varptr@@A 00411a58     qt-mt323:qt-mt323.dll
 0002:00000a5c       __imp_?staticMetaObject@QWidget@@SAPAVQMetaObject@@XZ 00411a5c     qt-mt323:qt-mt323.dll
 0002:00000a60       __imp_?qt_cast@QWidget@@UAEPAXPBD@Z 00411a60     qt-mt323:qt-mt323.dll
 0002:00000a64       __imp_?activate_signal_bool@QObject@@IAEXH_N@Z 00411a64     qt-mt323:qt-mt323.dll
 0002:00000a68       __imp_?activate_signal@QObject@@IAEXPAVQConnectionList@@PAUQUObject@@@Z 00411a68     qt-mt323:qt-mt323.dll
 0002:00000a6c       __imp_?set@QUType_int@@QAEXPAUQUObject@@H@Z 00411a6c     qt-mt323:qt-mt323.dll
 0002:00000a70       __imp_??0QUObject@@QAE@XZ  00411a70     qt-mt323:qt-mt323.dll
 0002:00000a74       __imp_??1QUObject@@QAE@XZ  00411a74     qt-mt323:qt-mt323.dll
 0002:00000a78       __imp_?receivers@QObject@@IBEPAVQConnectionList@@H@Z 00411a78     qt-mt323:qt-mt323.dll
 0002:00000a7c       __imp_?qt_invoke@QWidget@@UAE_NHPAUQUObject@@@Z 00411a7c     qt-mt323:qt-mt323.dll
 0002:00000a80       __imp_??1QVariant@@QAE@XZ  00411a80     qt-mt323:qt-mt323.dll
 0002:00000a84       __imp_?set@QUType_QVariant@@QAEXPAUQUObject@@ABVQVariant@@@Z 00411a84     qt-mt323:qt-mt323.dll
 0002:00000a88       __imp_??0QVariant@@QAE@ABVQStringList@@@Z 00411a88     qt-mt323:qt-mt323.dll
 0002:00000a8c       __imp_?get@QUType_ptr@@QAEAAPAXPAUQUObject@@@Z 00411a8c     qt-mt323:qt-mt323.dll
 0002:00000a90       __imp_?qt_emit@QWidget@@UAE_NHPAUQUObject@@@Z 00411a90     qt-mt323:qt-mt323.dll
 0002:00000a94       __imp_?qt_property@QWidget@@UAE_NHHPAVQVariant@@@Z 00411a94     qt-mt323:qt-mt323.dll
 0002:00000a98       __imp_?activate_signal@QObject@@IAEXHH@Z 00411a98     qt-mt323:qt-mt323.dll
 0002:00000a9c       __imp_?set@QUType_QString@@QAEXPAUQUObject@@ABVQString@@@Z 00411a9c     qt-mt323:qt-mt323.dll
 0002:00000aa0       __imp_?set@QUType_bool@@QAEXPAUQUObject@@_N@Z 00411aa0     qt-mt323:qt-mt323.dll
 0002:00000aa4       __imp_?get@QUType_QString@@QAEAAVQString@@PAUQUObject@@@Z 00411aa4     qt-mt323:qt-mt323.dll
 0002:00000aa8       __imp_?iterator@QGridLayout@@UAE?AVQLayoutIterator@@XZ 00411aa8     qt-mt323:qt-mt323.dll
 0002:00000aac       __imp_?invalidate@QGridLayout@@UAEXXZ 00411aac     qt-mt323:qt-mt323.dll
 0002:00000ab0       __imp_?heightForWidth@QGridLayout@@UBEHH@Z 00411ab0     qt-mt323:qt-mt323.dll
 0002:00000ab4       __imp_?hasHeightForWidth@QGridLayout@@UBE_NXZ 00411ab4     qt-mt323:qt-mt323.dll
 0002:00000ab8       __imp_?setGeometry@QGridLayout@@UAEXABVQRect@@@Z 00411ab8     qt-mt323:qt-mt323.dll
 0002:00000abc       __imp_?expanding@QGridLayout@@UBE?AW4ExpandData@QSizePolicy@@XZ 00411abc     qt-mt323:qt-mt323.dll
 0002:00000ac0       __imp_?maximumSize@QGridLayout@@UBE?AVQSize@@XZ 00411ac0     qt-mt323:qt-mt323.dll
 0002:00000ac4       __imp_?minimumSize@QGridLayout@@UBE?AVQSize@@XZ 00411ac4     qt-mt323:qt-mt323.dll
 0002:00000ac8       __imp_?sizeHint@QGridLayout@@UBE?AVQSize@@XZ 00411ac8     qt-mt323:qt-mt323.dll
 0002:00000acc       __imp_?setColStretch@QGridLayout@@UAEXHH@Z 00411acc     qt-mt323:qt-mt323.dll
 0002:00000ad0       __imp_?setRowStretch@QGridLayout@@UAEXHH@Z 00411ad0     qt-mt323:qt-mt323.dll
 0002:00000ad4       __imp_?addItem@QGridLayout@@UAEXPAVQLayoutItem@@@Z 00411ad4     qt-mt323:qt-mt323.dll
 0002:00000ad8       __imp_?qt_property@QGridLayout@@UAE_NHHPAVQVariant@@@Z 00411ad8     qt-mt323:qt-mt323.dll
 0002:00000adc       __imp_?qt_emit@QGridLayout@@UAE_NHPAUQUObject@@@Z 00411adc     qt-mt323:qt-mt323.dll
 0002:00000ae0       __imp_?qt_invoke@QGridLayout@@UAE_NHPAUQUObject@@@Z 00411ae0     qt-mt323:qt-mt323.dll
 0002:00000ae4       __imp_?qt_cast@QGridLayout@@UAEPAXPBD@Z 00411ae4     qt-mt323:qt-mt323.dll
 0002:00000ae8       __imp_?className@QGridLayout@@UBEPBDXZ 00411ae8     qt-mt323:qt-mt323.dll
 0002:00000aec       __imp_?metaObject@QGridLayout@@UBEPAVQMetaObject@@XZ 00411aec     qt-mt323:qt-mt323.dll
 0002:00000af0       __imp_?className@QLineEdit@@UBEPBDXZ 00411af0     qt-mt323:qt-mt323.dll
 0002:00000af4       __imp_?metaObject@QLineEdit@@UBEPAVQMetaObject@@XZ 00411af4     qt-mt323:qt-mt323.dll
 0002:00000af8       __imp_?setAlignment@QGroupBox@@UAEXH@Z 00411af8     qt-mt323:qt-mt323.dll
 0002:00000afc       __imp_?setTitle@QGroupBox@@UAEXABVQString@@@Z 00411afc     qt-mt323:qt-mt323.dll
 0002:00000b00       __imp_?setColumnLayout@QGroupBox@@UAEXHW4Orientation@Qt@@@Z 00411b00     qt-mt323:qt-mt323.dll
 0002:00000b04       __imp_?fontChange@QGroupBox@@MAEXABVQFont@@@Z 00411b04     qt-mt323:qt-mt323.dll
 0002:00000b08       __imp_?resizeEvent@QGroupBox@@MAEXPAVQResizeEvent@@@Z 00411b08     qt-mt323:qt-mt323.dll
 0002:00000b0c       __imp_?paintEvent@QGroupBox@@MAEXPAVQPaintEvent@@@Z 00411b0c     qt-mt323:qt-mt323.dll
 0002:00000b10       __imp_?focusInEvent@QGroupBox@@MAEXPAVQFocusEvent@@@Z 00411b10     qt-mt323:qt-mt323.dll
 0002:00000b14       __imp_?sizeHint@QGroupBox@@UBE?AVQSize@@XZ 00411b14     qt-mt323:qt-mt323.dll
 0002:00000b18       __imp_?setEnabled@QGroupBox@@UAEX_N@Z 00411b18     qt-mt323:qt-mt323.dll
 0002:00000b1c       __imp_?childEvent@QGroupBox@@MAEXPAVQChildEvent@@@Z 00411b1c     qt-mt323:qt-mt323.dll
 0002:00000b20       __imp_?event@QGroupBox@@MAE_NPAVQEvent@@@Z 00411b20     qt-mt323:qt-mt323.dll
 0002:00000b24       __imp_?qt_property@QGroupBox@@UAE_NHHPAVQVariant@@@Z 00411b24     qt-mt323:qt-mt323.dll
 0002:00000b28       __imp_?qt_emit@QGroupBox@@UAE_NHPAUQUObject@@@Z 00411b28     qt-mt323:qt-mt323.dll
 0002:00000b2c       __imp_?qt_invoke@QGroupBox@@UAE_NHPAUQUObject@@@Z 00411b2c     qt-mt323:qt-mt323.dll
 0002:00000b30       __imp_?qt_cast@QGroupBox@@UAEPAXPBD@Z 00411b30     qt-mt323:qt-mt323.dll
 0002:00000b34       __imp_?className@QGroupBox@@UBEPBDXZ 00411b34     qt-mt323:qt-mt323.dll
 0002:00000b38       __imp_?metaObject@QGroupBox@@UBEPAVQMetaObject@@XZ 00411b38     qt-mt323:qt-mt323.dll
 0002:00000b3c       __imp_?paintCell@QListBox@@MAEXPAVQPainter@@HH@Z 00411b3c     qt-mt323:qt-mt323.dll
 0002:00000b40       __imp_?invertSelection@QListBox@@UAEXXZ 00411b40     qt-mt323:qt-mt323.dll
 0002:00000b44       __imp_?selectAll@QListBox@@UAEX_N@Z 00411b44     qt-mt323:qt-mt323.dll
 0002:00000b48       __imp_?clearSelection@QListBox@@UAEXXZ 00411b48     qt-mt323:qt-mt323.dll
 0002:00000b4c       __imp_?ensureCurrentVisible@QListBox@@UAEXXZ 00411b4c     qt-mt323:qt-mt323.dll
 0002:00000b50       __imp_?setVariableHeight@QListBox@@UAEX_N@Z 00411b50     qt-mt323:qt-mt323.dll
 0002:00000b54       __imp_?setVariableWidth@QListBox@@UAEX_N@Z 00411b54     qt-mt323:qt-mt323.dll
 0002:00000b58       __imp_?setRowMode@QListBox@@UAEXW4LayoutMode@1@@Z 00411b58     qt-mt323:qt-mt323.dll
 0002:00000b5c       __imp_?setRowMode@QListBox@@UAEXH@Z 00411b5c     qt-mt323:qt-mt323.dll
 0002:00000b60       __imp_?setColumnMode@QListBox@@UAEXW4LayoutMode@1@@Z 00411b60     qt-mt323:qt-mt323.dll
 0002:00000b64       __imp_?setColumnMode@QListBox@@UAEXH@Z 00411b64     qt-mt323:qt-mt323.dll
 0002:00000b68       __imp_?setSelected@QListBox@@UAEXPAVQListBoxItem@@_N@Z 00411b68     qt-mt323:qt-mt323.dll
 0002:00000b6c       __imp_?setSelectionMode@QListBox@@UAEXW4SelectionMode@1@@Z 00411b6c     qt-mt323:qt-mt323.dll
 0002:00000b70       __imp_?setBottomItem@QListBox@@UAEXH@Z 00411b70     qt-mt323:qt-mt323.dll
 0002:00000b74       __imp_?setTopItem@QListBox@@UAEXH@Z 00411b74     qt-mt323:qt-mt323.dll
 0002:00000b78       __imp_?setCurrentItem@QListBox@@UAEXH@Z 00411b78     qt-mt323:qt-mt323.dll
 0002:00000b7c       __imp_?setCurrentItem@QListBox@@UAEXPAVQListBoxItem@@@Z 00411b7c     qt-mt323:qt-mt323.dll
 0002:00000b80       __imp_?viewportResizeEvent@QScrollView@@MAEXPAVQResizeEvent@@@Z 00411b80     qt-mt323:qt-mt323.dll
 0002:00000b84       __imp_?viewportPaintEvent@QListBox@@UAEXPAVQPaintEvent@@@Z 00411b84     qt-mt323:qt-mt323.dll
 0002:00000b88       __imp_?contentsContextMenuEvent@QListBox@@MAEXPAVQContextMenuEvent@@@Z 00411b88     qt-mt323:qt-mt323.dll
 0002:00000b8c       __imp_?contentsWheelEvent@QScrollView@@MAEXPAVQWheelEvent@@@Z 00411b8c     qt-mt323:qt-mt323.dll
 0002:00000b90       __imp_?contentsDropEvent@QScrollView@@MAEXPAVQDropEvent@@@Z 00411b90     qt-mt323:qt-mt323.dll
 0002:00000b94       __imp_?contentsDragLeaveEvent@QScrollView@@MAEXPAVQDragLeaveEvent@@@Z 00411b94     qt-mt323:qt-mt323.dll
 0002:00000b98       __imp_?contentsDragMoveEvent@QScrollView@@MAEXPAVQDragMoveEvent@@@Z 00411b98     qt-mt323:qt-mt323.dll
 0002:00000b9c       __imp_?contentsDragEnterEvent@QScrollView@@MAEXPAVQDragEnterEvent@@@Z 00411b9c     qt-mt323:qt-mt323.dll
 0002:00000ba0       __imp_?contentsMouseMoveEvent@QScrollView@@MAEXPAVQMouseEvent@@@Z 00411ba0     qt-mt323:qt-mt323.dll
 0002:00000ba4       __imp_?contentsMouseDoubleClickEvent@QScrollView@@MAEXPAVQMouseEvent@@@Z 00411ba4     qt-mt323:qt-mt323.dll
 0002:00000ba8       __imp_?contentsMouseReleaseEvent@QScrollView@@MAEXPAVQMouseEvent@@@Z 00411ba8     qt-mt323:qt-mt323.dll
 0002:00000bac       __imp_?contentsMousePressEvent@QScrollView@@MAEXPAVQMouseEvent@@@Z 00411bac     qt-mt323:qt-mt323.dll
 0002:00000bb0       __imp_?drawContents@QScrollView@@MAEXPAVQPainter@@HHHH@Z 00411bb0     qt-mt323:qt-mt323.dll
 0002:00000bb4       __imp_?drawContents@QScrollView@@EAEXPAVQPainter@@@Z 00411bb4     qt-mt323:qt-mt323.dll
 0002:00000bb8       __imp_?focusNextPrevChild@QScrollView@@MAE_N_N@Z 00411bb8     qt-mt323:qt-mt323.dll
 0002:00000bbc       __imp_?windowActivationChange@QListBox@@MAEX_N@Z 00411bbc     qt-mt323:qt-mt323.dll
 0002:00000bc0       __imp_?showEvent@QListBox@@MAEXPAVQShowEvent@@@Z 00411bc0     qt-mt323:qt-mt323.dll
 0002:00000bc4       __imp_?resizeEvent@QListBox@@MAEXPAVQResizeEvent@@@Z 00411bc4     qt-mt323:qt-mt323.dll
 0002:00000bc8       __imp_?focusOutEvent@QListBox@@MAEXPAVQFocusEvent@@@Z 00411bc8     qt-mt323:qt-mt323.dll
 0002:00000bcc       __imp_?focusInEvent@QListBox@@MAEXPAVQFocusEvent@@@Z 00411bcc     qt-mt323:qt-mt323.dll
 0002:00000bd0       __imp_?keyPressEvent@QListBox@@MAEXPAVQKeyEvent@@@Z 00411bd0     qt-mt323:qt-mt323.dll
 0002:00000bd4       __imp_?mouseMoveEvent@QListBox@@MAEXPAVQMouseEvent@@@Z 00411bd4     qt-mt323:qt-mt323.dll
 0002:00000bd8       __imp_?mouseDoubleClickEvent@QListBox@@MAEXPAVQMouseEvent@@@Z 00411bd8     qt-mt323:qt-mt323.dll
 0002:00000bdc       __imp_?mouseReleaseEvent@QListBox@@MAEXPAVQMouseEvent@@@Z 00411bdc     qt-mt323:qt-mt323.dll
 0002:00000be0       __imp_?mousePressEvent@QListBox@@MAEXPAVQMouseEvent@@@Z 00411be0     qt-mt323:qt-mt323.dll
 0002:00000be4       __imp_?minimumSizeHint@QListBox@@UBE?AVQSize@@XZ 00411be4     qt-mt323:qt-mt323.dll
 0002:00000be8       __imp_?sizeHint@QListBox@@UBE?AVQSize@@XZ 00411be8     qt-mt323:qt-mt323.dll
 0002:00000bec       __imp_?setFont@QListBox@@UAEXABVQFont@@@Z 00411bec     qt-mt323:qt-mt323.dll
 0002:00000bf0       __imp_?setEnabled@QScrollView@@UAEX_N@Z 00411bf0     qt-mt323:qt-mt323.dll
 0002:00000bf4       __imp_?eventFilter@QListBox@@MAE_NPAVQObject@@PAVQEvent@@@Z 00411bf4     qt-mt323:qt-mt323.dll
 0002:00000bf8       __imp_?qt_property@QListBox@@UAE_NHHPAVQVariant@@@Z 00411bf8     qt-mt323:qt-mt323.dll
 0002:00000bfc       __imp_?qt_emit@QListBox@@UAE_NHPAUQUObject@@@Z 00411bfc     qt-mt323:qt-mt323.dll
 0002:00000c00       __imp_?qt_invoke@QListBox@@UAE_NHPAUQUObject@@@Z 00411c00     qt-mt323:qt-mt323.dll
 0002:00000c04       __imp_?qt_cast@QListBox@@UAEPAXPBD@Z 00411c04     qt-mt323:qt-mt323.dll
 0002:00000c08       __imp_?className@QListBox@@UBEPBDXZ 00411c08     qt-mt323:qt-mt323.dll
 0002:00000c0c       __imp_?metaObject@QListBox@@UBEPAVQMetaObject@@XZ 00411c0c     qt-mt323:qt-mt323.dll
 0002:00000c10       __imp_?emitLinkClicked@QTextEdit@@EAEXABVQString@@@Z 00411c10     qt-mt323:qt-mt323.dll
 0002:00000c14       __imp_?emitHighlighted@QTextEdit@@EAEXABVQString@@@Z 00411c14     qt-mt323:qt-mt323.dll
 0002:00000c18       __imp_?linksEnabled@QTextEdit@@EBE_NXZ 00411c18     qt-mt323:qt-mt323.dll
 0002:00000c1c       __imp_?doChangeInterval@QTextEdit@@MAEXXZ 00411c1c     qt-mt323:qt-mt323.dll
 0002:00000c20       __imp_?createPopupMenu@QTextEdit@@MAEPAVQPopupMenu@@ABVQPoint@@@Z 00411c20     qt-mt323:qt-mt323.dll
 0002:00000c24       __imp_?createPopupMenu@QTextEdit@@MAEPAVQPopupMenu@@XZ 00411c24     qt-mt323:qt-mt323.dll
 0002:00000c28       __imp_?setUndoRedoEnabled@QTextEdit@@UAEX_N@Z 00411c28     qt-mt323:qt-mt323.dll
 0002:00000c2c       __imp_?clearParagraphBackground@QTextEdit@@UAEXH@Z 00411c2c     qt-mt323:qt-mt323.dll
 0002:00000c30       __imp_?setParagraphBackgroundColor@QTextEdit@@UAEXHABVQColor@@@Z 00411c30     qt-mt323:qt-mt323.dll
 0002:00000c34       __imp_?insertParagraph@QTextEdit@@UAEXABVQString@@H@Z 00411c34     qt-mt323:qt-mt323.dll
 0002:00000c38       __imp_?removeParagraph@QTextEdit@@UAEXH@Z 00411c38     qt-mt323:qt-mt323.dll
 0002:00000c3c       __imp_?insertAt@QTextEdit@@UAEXABVQString@@HH@Z 00411c3c     qt-mt323:qt-mt323.dll
 0002:00000c40       __imp_?insert@QTextEdit@@UAEXABVQString@@_N11@Z 00411c40     qt-mt323:qt-mt323.dll
 0002:00000c44       __imp_?scrollToBottom@QTextEdit@@UAEXXZ 00411c44     qt-mt323:qt-mt323.dll
 0002:00000c48       __imp_?setOverwriteMode@QTextEdit@@UAEX_N@Z 00411c48     qt-mt323:qt-mt323.dll
 0002:00000c4c       __imp_?setCurrentFont@QTextEdit@@UAEXABVQFont@@@Z 00411c4c     qt-mt323:qt-mt323.dll
 0002:00000c50       __imp_?removeSelection@QTextEdit@@UAEXH@Z 00411c50     qt-mt323:qt-mt323.dll
 0002:00000c54       __imp_?removeSelectedText@QTextEdit@@UAEXH@Z 00411c54     qt-mt323:qt-mt323.dll
 0002:00000c58       __imp_?doKeyboardAction@QTextEdit@@UAEXW4KeyboardAction@1@@Z 00411c58     qt-mt323:qt-mt323.dll
 0002:00000c5c       __imp_?moveCursor@QTextEdit@@UAEXW4CursorAction@1@_N@Z 00411c5c     qt-mt323:qt-mt323.dll
 0002:00000c60       __imp_?placeCursor@QTextEdit@@UAEXABVQPoint@@PAVQTextCursor@@@Z 00411c60     qt-mt323:qt-mt323.dll
 0002:00000c64       __imp_?ensureCursorVisible@QTextEdit@@UAEXXZ 00411c64     qt-mt323:qt-mt323.dll
 0002:00000c68       __imp_?setFormat@QTextEdit@@UAEXPAVQTextFormat@@H@Z 00411c68     qt-mt323:qt-mt323.dll
 0002:00000c6c       __imp_?setUndoDepth@QTextEdit@@UAEXH@Z 00411c6c     qt-mt323:qt-mt323.dll
 0002:00000c70       __imp_?resetFormat@QTextEdit@@UAEXXZ 00411c70     qt-mt323:qt-mt323.dll
 0002:00000c74       __imp_?setModified@QTextEdit@@UAEX_N@Z 00411c74     qt-mt323:qt-mt323.dll
 0002:00000c78       __imp_?setSelectionAttributes@QTextEdit@@UAEXHABVQColor@@_N@Z 00411c78     qt-mt323:qt-mt323.dll
 0002:00000c7c       __imp_?setSelection@QTextEdit@@UAEXHHHHH@Z 00411c7c     qt-mt323:qt-mt323.dll
 0002:00000c80       __imp_?setCursorPosition@QTextEdit@@UAEXHH@Z 00411c80     qt-mt323:qt-mt323.dll
 0002:00000c84       __imp_?setParagType@QTextEdit@@UAEXW4DisplayMode@QStyleSheetItem@@W4ListStyle@3@@Z 00411c84     qt-mt323:qt-mt323.dll
 0002:00000c88       __imp_?setAlignment@QTextEdit@@UAEXH@Z 00411c88     qt-mt323:qt-mt323.dll
 0002:00000c8c       __imp_?setVerticalAlignment@QTextEdit@@UAEXW4VerticalAlignment@1@@Z 00411c8c     qt-mt323:qt-mt323.dll
 0002:00000c90       __imp_?setColor@QTextEdit@@UAEXABVQColor@@@Z 00411c90     qt-mt323:qt-mt323.dll
 0002:00000c94       __imp_?setPointSize@QTextEdit@@UAEXH@Z 00411c94     qt-mt323:qt-mt323.dll
 0002:00000c98       __imp_?setFamily@QTextEdit@@UAEXABVQString@@@Z 00411c98     qt-mt323:qt-mt323.dll
 0002:00000c9c       __imp_?setUnderline@QTextEdit@@UAEX_N@Z 00411c9c     qt-mt323:qt-mt323.dll
 0002:00000ca0       __imp_?setBold@QTextEdit@@UAEX_N@Z 00411ca0     qt-mt323:qt-mt323.dll
 0002:00000ca4       __imp_?setItalic@QTextEdit@@UAEX_N@Z 00411ca4     qt-mt323:qt-mt323.dll
 0002:00000ca8       __imp_?indent@QTextEdit@@UAEXXZ 00411ca8     qt-mt323:qt-mt323.dll
 0002:00000cac       __imp_?del@QTextEdit@@UAEXXZ 00411cac     qt-mt323:qt-mt323.dll
 0002:00000cb0       __imp_?clear@QTextEdit@@UAEXXZ 00411cb0     qt-mt323:qt-mt323.dll
 0002:00000cb4       __imp_?pasteSubType@QTextEdit@@UAEXABVQCString@@@Z 00411cb4     qt-mt323:qt-mt323.dll
 0002:00000cb8       __imp_?paste@QTextEdit@@UAEXXZ 00411cb8     qt-mt323:qt-mt323.dll
 0002:00000cbc       __imp_?cut@QTextEdit@@UAEXXZ 00411cbc     qt-mt323:qt-mt323.dll
 0002:00000cc0       __imp_?redo@QTextEdit@@UAEXXZ 00411cc0     qt-mt323:qt-mt323.dll
 0002:00000cc4       __imp_?undo@QTextEdit@@UAEXXZ 00411cc4     qt-mt323:qt-mt323.dll
 0002:00000cc8       __imp_?setReadOnly@QTextEdit@@UAEX_N@Z 00411cc8     qt-mt323:qt-mt323.dll
 0002:00000ccc       __imp_?sync@QTextEdit@@UAEXXZ 00411ccc     qt-mt323:qt-mt323.dll
 0002:00000cd0       __imp_?zoomTo@QTextEdit@@UAEXH@Z 00411cd0     qt-mt323:qt-mt323.dll
 0002:00000cd4       __imp_?zoomOut@QTextEdit@@UAEXH@Z 00411cd4     qt-mt323:qt-mt323.dll
 0002:00000cd8       __imp_?zoomOut@QTextEdit@@UAEXXZ 00411cd8     qt-mt323:qt-mt323.dll
 0002:00000cdc       __imp_?zoomIn@QTextEdit@@UAEXH@Z 00411cdc     qt-mt323:qt-mt323.dll
 0002:00000ce0       __imp_?zoomIn@QTextEdit@@UAEXXZ 00411ce0     qt-mt323:qt-mt323.dll
 0002:00000ce4       __imp_?setTabStopWidth@QTextEdit@@UAEXH@Z 00411ce4     qt-mt323:qt-mt323.dll
 0002:00000ce8       __imp_?selectAll@QTextEdit@@UAEX_N@Z 00411ce8     qt-mt323:qt-mt323.dll
 0002:00000cec       __imp_?setTextFormat@QTextEdit@@UAEXW4TextFormat@Qt@@@Z 00411cec     qt-mt323:qt-mt323.dll
 0002:00000cf0       __imp_?setText@QTextEdit@@UAEXABVQString@@0@Z 00411cf0     qt-mt323:qt-mt323.dll
 0002:00000cf4       __imp_?append@QTextEdit@@UAEXABVQString@@@Z 00411cf4     qt-mt323:qt-mt323.dll
 0002:00000cf8       __imp_?copy@QTextEdit@@UAEXXZ 00411cf8     qt-mt323:qt-mt323.dll
 0002:00000cfc       __imp_?setWrapPolicy@QTextEdit@@UAEXW4WrapPolicy@1@@Z 00411cfc     qt-mt323:qt-mt323.dll
 0002:00000d00       __imp_?setWrapColumnOrWidth@QTextEdit@@UAEXH@Z 00411d00     qt-mt323:qt-mt323.dll
 0002:00000d04       __imp_?setWordWrap@QTextEdit@@UAEXW4WordWrap@1@@Z 00411d04     qt-mt323:qt-mt323.dll
 0002:00000d08       __imp_?setLinkUnderline@QTextEdit@@UAEX_N@Z 00411d08     qt-mt323:qt-mt323.dll
 0002:00000d0c       __imp_?setPaper@QTextEdit@@UAEXABVQBrush@@@Z 00411d0c     qt-mt323:qt-mt323.dll
 0002:00000d10       __imp_?scrollToAnchor@QTextEdit@@UAEXABVQString@@@Z 00411d10     qt-mt323:qt-mt323.dll
 0002:00000d14       __imp_?setStyleSheet@QTextEdit@@UAEXPAVQStyleSheet@@@Z 00411d14     qt-mt323:qt-mt323.dll
 0002:00000d18       __imp_?setMimeSourceFactory@QTextEdit@@UAEXPAVQMimeSourceFactory@@@Z 00411d18     qt-mt323:qt-mt323.dll
 0002:00000d1c       __imp_?getParagraphFormat@QTextEdit@@UAE_NHPAVQFont@@PAVQColor@@PAW4VerticalAlignment@1@PAHPAW4DisplayMode@QStyleSheetItem@@PAW4ListStyle@6@3@Z 00411d1c     qt-mt323:qt-mt323.dll
 0002:00000d20       __imp_?getFormat@QTextEdit@@UAE_NHHPAVQFont@@PAVQColor@@PAW4VerticalAlignment@1@@Z 00411d20     qt-mt323:qt-mt323.dll
 0002:00000d24       __imp_?find@QTextEdit@@UAE_NABVQString@@_N11PAH2@Z 00411d24     qt-mt323:qt-mt323.dll
 0002:00000d28       __imp_?setVBarGeometry@QScrollView@@MAEXAAVQScrollBar@@HHHH@Z 00411d28     qt-mt323:qt-mt323.dll
 0002:00000d2c       __imp_?setHBarGeometry@QScrollView@@MAEXAAVQScrollBar@@HHHH@Z 00411d2c     qt-mt323:qt-mt323.dll
 0002:00000d30       __imp_?setMargins@QScrollView@@MAEXHHHH@Z 00411d30     qt-mt323:qt-mt323.dll
 0002:00000d34       __imp_?viewportContextMenuEvent@QScrollView@@MAEXPAVQContextMenuEvent@@@Z 00411d34     qt-mt323:qt-mt323.dll
 0002:00000d38       __imp_?viewportWheelEvent@QScrollView@@MAEXPAVQWheelEvent@@@Z 00411d38     qt-mt323:qt-mt323.dll
 0002:00000d3c       __imp_?viewportDropEvent@QScrollView@@MAEXPAVQDropEvent@@@Z 00411d3c     qt-mt323:qt-mt323.dll
 0002:00000d40       __imp_?viewportDragLeaveEvent@QScrollView@@MAEXPAVQDragLeaveEvent@@@Z 00411d40     qt-mt323:qt-mt323.dll
 0002:00000d44       __imp_?viewportDragMoveEvent@QScrollView@@MAEXPAVQDragMoveEvent@@@Z 00411d44     qt-mt323:qt-mt323.dll
 0002:00000d48       __imp_?viewportDragEnterEvent@QScrollView@@MAEXPAVQDragEnterEvent@@@Z 00411d48     qt-mt323:qt-mt323.dll
 0002:00000d4c       __imp_?viewportMouseMoveEvent@QScrollView@@MAEXPAVQMouseEvent@@@Z 00411d4c     qt-mt323:qt-mt323.dll
 0002:00000d50       __imp_?viewportMouseDoubleClickEvent@QScrollView@@MAEXPAVQMouseEvent@@@Z 00411d50     qt-mt323:qt-mt323.dll
 0002:00000d54       __imp_?viewportMouseReleaseEvent@QScrollView@@MAEXPAVQMouseEvent@@@Z 00411d54     qt-mt323:qt-mt323.dll
 0002:00000d58       __imp_?viewportMousePressEvent@QScrollView@@MAEXPAVQMouseEvent@@@Z 00411d58     qt-mt323:qt-mt323.dll
 0002:00000d5c       __imp_?viewportResizeEvent@QTextEdit@@MAEXPAVQResizeEvent@@@Z 00411d5c     qt-mt323:qt-mt323.dll
 0002:00000d60       __imp_?viewportPaintEvent@QScrollView@@MAEXPAVQPaintEvent@@@Z 00411d60     qt-mt323:qt-mt323.dll
 0002:00000d64       __imp_?contentsContextMenuEvent@QTextEdit@@MAEXPAVQContextMenuEvent@@@Z 00411d64     qt-mt323:qt-mt323.dll
 0002:00000d68       __imp_?contentsWheelEvent@QTextEdit@@MAEXPAVQWheelEvent@@@Z 00411d68     qt-mt323:qt-mt323.dll
 0002:00000d6c       __imp_?contentsDropEvent@QTextEdit@@MAEXPAVQDropEvent@@@Z 00411d6c     qt-mt323:qt-mt323.dll
 0002:00000d70       __imp_?contentsDragLeaveEvent@QTextEdit@@MAEXPAVQDragLeaveEvent@@@Z 00411d70     qt-mt323:qt-mt323.dll
 0002:00000d74       __imp_?contentsDragMoveEvent@QTextEdit@@MAEXPAVQDragMoveEvent@@@Z 00411d74     qt-mt323:qt-mt323.dll
 0002:00000d78       __imp_?contentsDragEnterEvent@QTextEdit@@MAEXPAVQDragEnterEvent@@@Z 00411d78     qt-mt323:qt-mt323.dll
 0002:00000d7c       __imp_?contentsMouseMoveEvent@QTextEdit@@MAEXPAVQMouseEvent@@@Z 00411d7c     qt-mt323:qt-mt323.dll
 0002:00000d80       __imp_?contentsMouseDoubleClickEvent@QTextEdit@@MAEXPAVQMouseEvent@@@Z 00411d80     qt-mt323:qt-mt323.dll
 0002:00000d84       __imp_?contentsMouseReleaseEvent@QTextEdit@@MAEXPAVQMouseEvent@@@Z 00411d84     qt-mt323:qt-mt323.dll
 0002:00000d88       __imp_?contentsMousePressEvent@QTextEdit@@MAEXPAVQMouseEvent@@@Z 00411d88     qt-mt323:qt-mt323.dll
 0002:00000d8c       __imp_?drawContentsOffset@QScrollView@@MAEXPAVQPainter@@HHHHHH@Z 00411d8c     qt-mt323:qt-mt323.dll
 0002:00000d90       __imp_?drawContents@QTextEdit@@MAEXPAVQPainter@@HHHH@Z 00411d90     qt-mt323:qt-mt323.dll
 0002:00000d94       __imp_?setContentsPos@QScrollView@@UAEXHH@Z 00411d94     qt-mt323:qt-mt323.dll
 0002:00000d98       __imp_?resizeContents@QScrollView@@UAEXHH@Z 00411d98     qt-mt323:qt-mt323.dll
 0002:00000d9c       __imp_?setDragAutoScroll@QScrollView@@UAEX_N@Z 00411d9c     qt-mt323:qt-mt323.dll
 0002:00000da0       __imp_?setCornerWidget@QScrollView@@UAEXPAVQWidget@@@Z 00411da0     qt-mt323:qt-mt323.dll
 0002:00000da4       __imp_?setHScrollBarMode@QScrollView@@UAEXW4ScrollBarMode@1@@Z 00411da4     qt-mt323:qt-mt323.dll
 0002:00000da8       __imp_?setVScrollBarMode@QScrollView@@UAEXW4ScrollBarMode@1@@Z 00411da8     qt-mt323:qt-mt323.dll
 0002:00000dac       __imp_?moveChild@QScrollView@@UAEXPAVQWidget@@HH@Z 00411dac     qt-mt323:qt-mt323.dll
 0002:00000db0       __imp_?addChild@QScrollView@@UAEXPAVQWidget@@HH@Z 00411db0     qt-mt323:qt-mt323.dll
 0002:00000db4       __imp_?setResizePolicy@QScrollView@@UAEXW4ResizePolicy@1@@Z 00411db4     qt-mt323:qt-mt323.dll
 0002:00000db8       __imp_?frameChanged@QScrollView@@MAEXXZ 00411db8     qt-mt323:qt-mt323.dll
 0002:00000dbc       __imp_?drawContents@QTextEdit@@EAEXPAVQPainter@@@Z 00411dbc     qt-mt323:qt-mt323.dll
 0002:00000dc0       __imp_?focusNextPrevChild@QTextEdit@@MAE_N_N@Z 00411dc0     qt-mt323:qt-mt323.dll
 0002:00000dc4       __imp_?windowActivationChange@QTextEdit@@MAEX_N@Z 00411dc4     qt-mt323:qt-mt323.dll
 0002:00000dc8       __imp_?fontChange@QScrollView@@MAEXABVQFont@@@Z 00411dc8     qt-mt323:qt-mt323.dll
 0002:00000dcc       __imp_?styleChange@QScrollView@@UAEXAAVQStyle@@@Z 00411dcc     qt-mt323:qt-mt323.dll
 0002:00000dd0       __imp_?imEndEvent@QTextEdit@@MAEXPAVQIMEvent@@@Z 00411dd0     qt-mt323:qt-mt323.dll
 0002:00000dd4       __imp_?imComposeEvent@QTextEdit@@MAEXPAVQIMEvent@@@Z 00411dd4     qt-mt323:qt-mt323.dll
 0002:00000dd8       __imp_?imStartEvent@QTextEdit@@MAEXPAVQIMEvent@@@Z 00411dd8     qt-mt323:qt-mt323.dll
 0002:00000ddc       __imp_?contextMenuEvent@QScrollView@@MAEXPAVQContextMenuEvent@@@Z 00411ddc     qt-mt323:qt-mt323.dll
 0002:00000de0       __imp_?resizeEvent@QTextEdit@@MAEXPAVQResizeEvent@@@Z 00411de0     qt-mt323:qt-mt323.dll
 0002:00000de4       __imp_?keyPressEvent@QTextEdit@@MAEXPAVQKeyEvent@@@Z 00411de4     qt-mt323:qt-mt323.dll
 0002:00000de8       __imp_?wheelEvent@QScrollView@@MAEXPAVQWheelEvent@@@Z 00411de8     qt-mt323:qt-mt323.dll
 0002:00000dec       __imp_?mouseMoveEvent@QScrollView@@MAEXPAVQMouseEvent@@@Z 00411dec     qt-mt323:qt-mt323.dll
 0002:00000df0       __imp_?mouseDoubleClickEvent@QScrollView@@MAEXPAVQMouseEvent@@@Z 00411df0     qt-mt323:qt-mt323.dll
 0002:00000df4       __imp_?mouseReleaseEvent@QScrollView@@MAEXPAVQMouseEvent@@@Z 00411df4     qt-mt323:qt-mt323.dll
 0002:00000df8       __imp_?mousePressEvent@QScrollView@@MAEXPAVQMouseEvent@@@Z 00411df8     qt-mt323:qt-mt323.dll
 0002:00000dfc       __imp_?heightForWidth@QTextEdit@@UBEHH@Z 00411dfc     qt-mt323:qt-mt323.dll
 0002:00000e00       __imp_?minimumSizeHint@QScrollView@@UBE?AVQSize@@XZ 00411e00     qt-mt323:qt-mt323.dll
 0002:00000e04       __imp_?sizeHint@QTextEdit@@UBE?AVQSize@@XZ 00411e04     qt-mt323:qt-mt323.dll
 0002:00000e08       __imp_?resize@QScrollView@@UAEXHH@Z 00411e08     qt-mt323:qt-mt323.dll
 0002:00000e0c       __imp_?polish@QTextEdit@@UAEXXZ 00411e0c     qt-mt323:qt-mt323.dll
 0002:00000e10       __imp_?show@QScrollView@@UAEXXZ 00411e10     qt-mt323:qt-mt323.dll
 0002:00000e14       __imp_?setFont@QTextEdit@@UAEXABVQFont@@@Z 00411e14     qt-mt323:qt-mt323.dll
 0002:00000e18       __imp_?setPalette@QTextEdit@@UAEXABVQPalette@@@Z 00411e18     qt-mt323:qt-mt323.dll
 0002:00000e1c       __imp_?setEnabled@QTextEdit@@UAEX_N@Z 00411e1c     qt-mt323:qt-mt323.dll
 0002:00000e20       __imp_?removeChild@QScrollView@@UAEXPAVQObject@@@Z 00411e20     qt-mt323:qt-mt323.dll
 0002:00000e24       __imp_?eventFilter@QTextEdit@@UAE_NPAVQObject@@PAVQEvent@@@Z 00411e24     qt-mt323:qt-mt323.dll
 0002:00000e28       __imp_?event@QTextEdit@@MAE_NPAVQEvent@@@Z 00411e28     qt-mt323:qt-mt323.dll
 0002:00000e2c       __imp_?qt_property@QTextEdit@@UAE_NHHPAVQVariant@@@Z 00411e2c     qt-mt323:qt-mt323.dll
 0002:00000e30       __imp_?qt_emit@QTextEdit@@UAE_NHPAUQUObject@@@Z 00411e30     qt-mt323:qt-mt323.dll
 0002:00000e34       __imp_?qt_invoke@QTextEdit@@UAE_NHPAUQUObject@@@Z 00411e34     qt-mt323:qt-mt323.dll
 0002:00000e38       __imp_?qt_cast@QTextEdit@@UAEPAXPBD@Z 00411e38     qt-mt323:qt-mt323.dll
 0002:00000e3c       __imp_?className@QTextEdit@@UBEPBDXZ 00411e3c     qt-mt323:qt-mt323.dll
 0002:00000e40       __imp_?metaObject@QTextEdit@@UBEPAVQMetaObject@@XZ 00411e40     qt-mt323:qt-mt323.dll
 0002:00000e44       __imp_?setMinValue@QSpinBox@@QAEXH@Z 00411e44     qt-mt323:qt-mt323.dll
 0002:00000e48       __imp_?addWidget@QGridLayout@@QAEXPAVQWidget@@HHH@Z 00411e48     qt-mt323:qt-mt323.dll
 0002:00000e4c       __imp_??0QGridLayout@@QAE@PAVQLayout@@HHHPBD@Z 00411e4c     qt-mt323:qt-mt323.dll
 0002:00000e50       __imp_??0QGroupBox@@QAE@PAVQWidget@@PBD@Z 00411e50     qt-mt323:qt-mt323.dll
 0002:00000e54       __imp_??0QListBox@@QAE@PAVQWidget@@PBDI@Z 00411e54     qt-mt323:qt-mt323.dll
 0002:00000e58       __imp_?addLayout@QGridLayout@@QAEXPAVQLayout@@HH@Z 00411e58     qt-mt323:qt-mt323.dll
 0002:00000e5c       __imp_??0QPushButton@@QAE@PAVQWidget@@PBD@Z 00411e5c     qt-mt323:qt-mt323.dll
 0002:00000e60       __imp_?setMaxValue@QSpinBox@@QAEXH@Z 00411e60     qt-mt323:qt-mt323.dll
 0002:00000e64       __imp_??0QSpinBox@@QAE@PAVQWidget@@PBD@Z 00411e64     qt-mt323:qt-mt323.dll
 0002:00000e68       __imp_??0QLabel@@QAE@PAVQWidget@@PBDI@Z 00411e68     qt-mt323:qt-mt323.dll
 0002:00000e6c       __imp_?addMultiCellWidget@QGridLayout@@QAEXPAVQWidget@@HHHHH@Z 00411e6c     qt-mt323:qt-mt323.dll
 0002:00000e70       __imp_?setAutoFormatting@QTextEdit@@QAEXI@Z 00411e70     qt-mt323:qt-mt323.dll
 0002:00000e74       __imp_??0QTextEdit@@QAE@PAVQWidget@@PBD@Z 00411e74     qt-mt323:qt-mt323.dll
 0002:00000e78       __imp_??0QGridLayout@@QAE@PAVQWidget@@HHHHPBD@Z 00411e78     qt-mt323:qt-mt323.dll
 0002:00000e7c       __imp_??1QGridLayout@@UAE@XZ 00411e7c     qt-mt323:qt-mt323.dll
 0002:00000e80       __imp_??1QTextEdit@@UAE@XZ 00411e80     qt-mt323:qt-mt323.dll
 0002:00000e84       __imp_??1QListBox@@UAE@XZ  00411e84     qt-mt323:qt-mt323.dll
 0002:00000e88       __imp_??1QGroupBox@@UAE@XZ 00411e88     qt-mt323:qt-mt323.dll
 0002:00000e8c       __imp_?setIconSet@QAction@@UAEXABVQIconSet@@@Z 00411e8c     qt-mt323:qt-mt323.dll
 0002:00000e90       __imp_?setText@QAction@@UAEXABVQString@@@Z 00411e90     qt-mt323:qt-mt323.dll
 0002:00000e94       __imp_?setMenuText@QAction@@UAEXABVQString@@@Z 00411e94     qt-mt323:qt-mt323.dll
 0002:00000e98       __imp_?setToolTip@QAction@@UAEXABVQString@@@Z 00411e98     qt-mt323:qt-mt323.dll
 0002:00000e9c       __imp_?setStatusTip@QAction@@UAEXABVQString@@@Z 00411e9c     qt-mt323:qt-mt323.dll
 0002:00000ea0       __imp_?setWhatsThis@QAction@@UAEXABVQString@@@Z 00411ea0     qt-mt323:qt-mt323.dll
 0002:00000ea4       __imp_?setAccel@QAction@@UAEXABVQKeySequence@@@Z 00411ea4     qt-mt323:qt-mt323.dll
 0002:00000ea8       __imp_?setToggleAction@QAction@@UAEX_N@Z 00411ea8     qt-mt323:qt-mt323.dll
 0002:00000eac       __imp_?addTo@QAction@@UAE_NPAVQWidget@@@Z 00411eac     qt-mt323:qt-mt323.dll
 0002:00000eb0       __imp_?removeFrom@QAction@@UAE_NPAVQWidget@@@Z 00411eb0     qt-mt323:qt-mt323.dll
 0002:00000eb4       __imp_?addedTo@QAction@@MAEXHPAVQPopupMenu@@@Z 00411eb4     qt-mt323:qt-mt323.dll
 0002:00000eb8       __imp_?addedTo@QAction@@MAEXPAVQWidget@@0@Z 00411eb8     qt-mt323:qt-mt323.dll
 0002:00000ebc       __imp_?setOn@QAction@@UAEX_N@Z 00411ebc     qt-mt323:qt-mt323.dll
 0002:00000ec0       __imp_?setEnabled@QAction@@UAEX_N@Z 00411ec0     qt-mt323:qt-mt323.dll
 0002:00000ec4       __imp_?event@QMainWindow@@MAE_NPAVQEvent@@@Z 00411ec4     qt-mt323:qt-mt323.dll
 0002:00000ec8       __imp_?eventFilter@QMainWindow@@UAE_NPAVQObject@@PAVQEvent@@@Z 00411ec8     qt-mt323:qt-mt323.dll
 0002:00000ecc       __imp_?childEvent@QMainWindow@@MAEXPAVQChildEvent@@@Z 00411ecc     qt-mt323:qt-mt323.dll
 0002:00000ed0       __imp_?show@QMainWindow@@UAEXXZ 00411ed0     qt-mt323:qt-mt323.dll
 0002:00000ed4       __imp_?hide@QMainWindow@@UAEXXZ 00411ed4     qt-mt323:qt-mt323.dll
 0002:00000ed8       __imp_?sizeHint@QMainWindow@@UBE?AVQSize@@XZ 00411ed8     qt-mt323:qt-mt323.dll
 0002:00000edc       __imp_?minimumSizeHint@QMainWindow@@UBE?AVQSize@@XZ 00411edc     qt-mt323:qt-mt323.dll
 0002:00000ee0       __imp_?paintEvent@QMainWindow@@MAEXPAVQPaintEvent@@@Z 00411ee0     qt-mt323:qt-mt323.dll
 0002:00000ee4       __imp_?resizeEvent@QWidget@@MAEXPAVQResizeEvent@@@Z 00411ee4     qt-mt323:qt-mt323.dll
 0002:00000ee8       __imp_?styleChange@QMainWindow@@MAEXAAVQStyle@@@Z 00411ee8     qt-mt323:qt-mt323.dll
 0002:00000eec       __imp_?setCentralWidget@QMainWindow@@UAEXPAVQWidget@@@Z 00411eec     qt-mt323:qt-mt323.dll
 0002:00000ef0       __imp_?setDockEnabled@QMainWindow@@UAEXPAVQDockWindow@@W4Dock@Qt@@_N@Z 00411ef0     qt-mt323:qt-mt323.dll
 0002:00000ef4       __imp_?setDockEnabled@QMainWindow@@UAEXW4Dock@Qt@@_N@Z 00411ef4     qt-mt323:qt-mt323.dll
 0002:00000ef8       __imp_?addDockWindow@QMainWindow@@UAEXPAVQDockWindow@@ABVQString@@W4Dock@Qt@@_N@Z 00411ef8     qt-mt323:qt-mt323.dll
 0002:00000efc       __imp_?addDockWindow@QMainWindow@@UAEXPAVQDockWindow@@W4Dock@Qt@@_N@Z 00411efc     qt-mt323:qt-mt323.dll
 0002:00000f00       __imp_?moveDockWindow@QMainWindow@@UAEXPAVQDockWindow@@W4Dock@Qt@@_NHH@Z 00411f00     qt-mt323:qt-mt323.dll
 0002:00000f04       __imp_?moveDockWindow@QMainWindow@@UAEXPAVQDockWindow@@W4Dock@Qt@@@Z 00411f04     qt-mt323:qt-mt323.dll
 0002:00000f08       __imp_?removeDockWindow@QMainWindow@@UAEXPAVQDockWindow@@@Z 00411f08     qt-mt323:qt-mt323.dll
 0002:00000f0c       __imp_?dockingArea@QMainWindow@@UAEPAVQDockArea@@ABVQPoint@@@Z 00411f0c     qt-mt323:qt-mt323.dll
 0002:00000f10       __imp_?isCustomizable@QMainWindow@@UBE_NXZ 00411f10     qt-mt323:qt-mt323.dll
 0002:00000f14       __imp_?setRightJustification@QMainWindow@@UAEX_N@Z 00411f14     qt-mt323:qt-mt323.dll
 0002:00000f18       __imp_?setUsesBigPixmaps@QMainWindow@@UAEX_N@Z 00411f18     qt-mt323:qt-mt323.dll
 0002:00000f1c       __imp_?setUsesTextLabel@QMainWindow@@UAEX_N@Z 00411f1c     qt-mt323:qt-mt323.dll
 0002:00000f20       __imp_?setDockWindowsMovable@QMainWindow@@UAEX_N@Z 00411f20     qt-mt323:qt-mt323.dll
 0002:00000f24       __imp_?setOpaqueMoving@QMainWindow@@UAEX_N@Z 00411f24     qt-mt323:qt-mt323.dll
 0002:00000f28       __imp_?setDockMenuEnabled@QMainWindow@@UAEX_N@Z 00411f28     qt-mt323:qt-mt323.dll
 0002:00000f2c       __imp_?whatsThis@QMainWindow@@UAEXXZ 00411f2c     qt-mt323:qt-mt323.dll
 0002:00000f30       __imp_?setAppropriate@QMainWindow@@UAEXPAVQDockWindow@@_N@Z 00411f30     qt-mt323:qt-mt323.dll
 0002:00000f34       __imp_?customize@QMainWindow@@UAEXXZ 00411f34     qt-mt323:qt-mt323.dll
 0002:00000f38       __imp_?setUpLayout@QMainWindow@@MAEXXZ 00411f38     qt-mt323:qt-mt323.dll
 0002:00000f3c       __imp_?showDockMenu@QMainWindow@@MAE_NABVQPoint@@@Z 00411f3c     qt-mt323:qt-mt323.dll
 0002:00000f40       __imp_?setMenuBar@QMainWindow@@EAEXPAVQMenuBar@@@Z 00411f40     qt-mt323:qt-mt323.dll
 0002:00000f44       __imp_?setStatusBar@QMainWindow@@EAEXPAVQStatusBar@@@Z 00411f44     qt-mt323:qt-mt323.dll
 0002:00000f48       __imp_?setToolTipGroup@QMainWindow@@EAEXPAVQToolTipGroup@@@Z 00411f48     qt-mt323:qt-mt323.dll
 0002:00000f4c       __imp_?detachInternal@?$QValueList@VQString@@@@AAEXXZ 00411f4c     qt-mt323:qt-mt323.dll
 0002:00000f50       __imp_?deleteData@QGArray@@MAEXPAUarray_data@1@@Z 00411f50     qt-mt323:qt-mt323.dll
 0002:00000f54       __imp_?newData@QGArray@@MAEPAUarray_data@1@XZ 00411f54     qt-mt323:qt-mt323.dll
 0002:00000f58       __imp_??1QGArray@@MAE@XZ   00411f58     qt-mt323:qt-mt323.dll
 0002:00000f5c       __imp_?qWinMain@@YAXPAUHINSTANCE__@@0PADHAAHAAV?$QMemArray@PAD@@@Z 00411f5c     qt-mt323:qt-mt323.dll
 0002:00000f60       __imp_??0QGArray@@IAE@H@Z  00411f60     qt-mt323:qt-mt323.dll
 0002:00000f64       __imp_?duplicate@QGArray@@IAEAAV1@ABV1@@Z 00411f64     qt-mt323:qt-mt323.dll
 0002:00000f68       \177qt-mt323_NULL_THUNK_DATA 00411f68     qt-mt323:qt-mt323.dll
 0002:00000f70       ??_SQSpacerItem@@6B@       00411f70     bcommandmainwindow.obj
 0002:00000fb0       ??_SQHBoxLayout@@6BQLayoutItem@@@ 00411fb0     bcommandmainwindow.obj
 0002:00000ff0       ??_SQHBoxLayout@@6BQObject@@@ 00411ff0     bcommandmainwindow.obj
 0002:00001054       ??_SQVBoxLayout@@6BQLayoutItem@@@ 00412054     bcommandmainwindow.obj
 0002:00001094       ??_SQVBoxLayout@@6BQObject@@@ 00412094     bcommandmainwindow.obj
 0002:000010f8       ??_SQFrame@@6BQPaintDevice@@@ 004120f8     bcommandmainwindow.obj
 0002:00001118       ??_SQFrame@@6BQObject@@@   00412118     bcommandmainwindow.obj
 0002:000012e8       ??_SQPushButton@@6BQPaintDevice@@@ 004122e8     bcommandmainwindow.obj
 0002:00001308       ??_SQPushButton@@6BQObject@@@ 00412308     bcommandmainwindow.obj
 0002:000014f4       ??_SQCheckBox@@6BQPaintDevice@@@ 004124f4     bcommandmainwindow.obj
 0002:00001514       ??_SQCheckBox@@6BQObject@@@ 00412514     bcommandmainwindow.obj
 0002:000016f0       ??_SQSpinBox@@6B@          004126f0     bcommandmainwindow.obj
 0002:00001700       ??_SQSpinBox@@6BQPaintDevice@@@ 00412700     bcommandmainwindow.obj
 0002:00001720       ??_SQSpinBox@@6BQObject@@@ 00412720     bcommandmainwindow.obj
 0002:00001914       ??_SQLabel@@6BQPaintDevice@@@ 00412914     bcommandmainwindow.obj
 0002:00001934       ??_SQLabel@@6BQObject@@@   00412934     bcommandmainwindow.obj
 0002:00001b28       ??_SQAction@@6B@           00412b28     bcommandmainwindow.obj
 0002:00001bb0       ??_SQToolBar@@6BQPaintDevice@@@ 00412bb0     bcommandmainwindow.obj
 0002:00001bd0       ??_SQToolBar@@6BQObject@@@ 00412bd0     bcommandmainwindow.obj
 0002:00001de8       ??_SQPopupMenu@@6B@        00412de8     bcommandmainwindow.obj
 0002:00001e08       ??_SQPopupMenu@@6BQPaintDevice@@@ 00412e08     bcommandmainwindow.obj
 0002:00001e28       ??_SQPopupMenu@@6BQObject@@@ 00412e28     bcommandmainwindow.obj
 0002:00002004       ??_7bCommandMainWindow@@6B@ 00413004     bcommandmainwindow.obj
 0002:00002030       ??_7bCommandMainWindow@@6BQPaintDevice@@@ 00413030     bcommandmainwindow.obj
 0002:00002050       ??_7bCommandMainWindow@@6BQObject@@@ 00413050     bcommandmainwindow.obj
 0002:00002260       ??_7?$QValueListNode@VQString@@@@6B@ 00413260     bcommandmainwindow.obj
 0002:00002264       ??_7?$QValueListPrivate@VQString@@@@6B@ 00413264     bcommandmainwindow.obj
 0002:00002268       ??_7IccClientCallback@@6B@ 00413268     bcommandmainwindow.obj
 0002:00002294       ??_7commandEdit@@6BQPaintDevice@@@ 00413294     commandEdit.obj
 0002:000022b4       ??_7commandEdit@@6BQObject@@@ 004132b4     commandEdit.obj
 0002:000024d8       ??_7?$QPtrList@VcommandLine@@@@6B@ 004134d8     commandimpl.obj
 0002:000024f8       ??_7command@@6BQPaintDevice@@@ 004134f8     commandimpl.obj
 0002:00002518       ??_7command@@6BQObject@@@  00413518     commandimpl.obj
 0002:000026c8       ??_Sbncs_shim_loader@@6B@  004136c8     commandLine.obj
 0002:000026cc       ??_7commandLine@@6BQPaintDevice@@@ 004136cc     commandLine.obj
 0002:000026ec       ??_7commandLine@@6BQObject@@@ 004136ec     commandLine.obj
 0002:00002914       ??_7revertiveImpl@@6B@     00413914     revertiveImpl.obj
 0002:00002940       ??_7revertiveImpl@@6BQPaintDevice@@@ 00413940     revertiveImpl.obj
 0002:00002960       ??_7revertiveImpl@@6BQObject@@@ 00413960     revertiveImpl.obj
 0002:00003030       ??_SQLineEdit@@6BQPaintDevice@@@ 00414030     revertiveDisplay.obj
 0002:00003050       ??_SQLineEdit@@6BQObject@@@ 00414050     revertiveDisplay.obj
 0002:00003274       ??_SQGroupBox@@6BQPaintDevice@@@ 00414274     revertiveDisplay.obj
 0002:00003294       ??_SQGroupBox@@6BQObject@@@ 00414294     revertiveDisplay.obj
 0002:00003470       ??_SQListBox@@6BQPaintDevice@@@ 00414470     revertiveDisplay.obj
 0002:00003490       ??_SQListBox@@6BQObject@@@ 00414490     revertiveDisplay.obj
 0002:00003734       ??_SQTextEdit@@6BQPaintDevice@@@ 00414734     revertiveDisplay.obj
 0002:00003754       ??_SQTextEdit@@6BQObject@@@ 00414754     revertiveDisplay.obj
 0002:00003acc       ??_SQGridLayout@@6BQLayoutItem@@@ 00414acc     revertiveDisplay.obj
 0002:00003b0c       ??_SQGridLayout@@6BQObject@@@ 00414b0c     revertiveDisplay.obj
 0002:00003b78       ??_7revertiveDisplay@@6BQPaintDevice@@@ 00414b78     revertiveDisplay.obj
 0002:00003b98       ??_7revertiveDisplay@@6BQObject@@@ 00414b98     revertiveDisplay.obj
 0002:00003d4c       ??_7cBncsVersion@@6B@      00414d4c     BncsVersionInfo:cBncsVersion.obj
 0002:00003d50       ??_7decodeBNCSString@@6B@  00414d50     decodecaptionstring:decodeBNCSString.obj
 0002:00003d94       ??_7?$QMemArray@PAD@@6B@   00414d94     qtmain:qtmain_win.obj
 0002:000051a0       __IMPORT_DESCRIPTOR_bncs_shim_loader 004161a0     bncs_shim_loader:bncs_shim_loader.dll
 0002:000051b4       __IMPORT_DESCRIPTOR_qt-mt323 004161b4     qt-mt323:qt-mt323.dll
 0002:000051c8       __IMPORT_DESCRIPTOR_MSVCP60 004161c8     msvcprt:MSVCP60.dll
 0002:000051dc       __IMPORT_DESCRIPTOR_MSVCRT 004161dc     MSVCRT:MSVCRT.dll
 0002:000051f0       __IMPORT_DESCRIPTOR_KERNEL32 004161f0     kernel32:KERNEL32.dll
 0002:00005204       __IMPORT_DESCRIPTOR_USER32 00416204     user32:USER32.dll
 0002:00005218       __IMPORT_DESCRIPTOR_VERSION 00416218     version:VERSION.dll
 0002:0000522c       __NULL_IMPORT_DESCRIPTOR   0041622c     bncs_shim_loader:bncs_shim_loader.dll
 0003:00000000       ___xc_a                    00422000     MSVCRT:cinitexe.obj
 0003:00000024       ___xc_z                    00422024     MSVCRT:cinitexe.obj
 0003:00000028       ___xi_a                    00422028     MSVCRT:cinitexe.obj
 0003:0000002c       ___xi_z                    0042202c     MSVCRT:cinitexe.obj
 0003:000003ac       ??_C@_0EB@DPAF@M?50?59?59?57?57?56?56?56?56?5?$DO?5?$DO?5?9?5?9?5$?5$?5@ 004223ac     bcommandmainwindow.obj
 0003:000003f0       ??_C@_0EB@PJDO@j?5u?5s?5a?5s?5a?5s?5s?5a?5a?5s?5a?5a?5s?5s?5s?5@ 004223f0     bcommandmainwindow.obj
 0003:00000434       ??_C@_0EB@FOP@k?5a?5_?5?$HM?5?5?4?5?4?4?4?4?4?4?4X?4X?4X?4?0?4?0?4?$DM?4?$DM?4@ 00422434     bcommandmainwindow.obj
 0003:00000478       ??_C@_0EB@HICD@K?5a?5?5?4?0?4?$DM?4?$DM?4?$DM?4?$DM?4?$DM?41?41?42?42?42?48?48?4@ 00422478     bcommandmainwindow.obj
 0003:000004bc       ??_C@_0EB@CMMA@K?5s?5?$CJ?5_?5_?5?$GA?5?$GA?5?$GA?5?$HN?5?$HN?5?$HM?5?5?4?$DM?42?4?4?4?4?4@ 004224bc     bcommandmainwindow.obj
 0003:00000500       ??_C@_0EB@HGNJ@L?5y?5o?5?$CG?5?$CK?5?$DM?5?$DM?52?53?53?5c?5m?5?0?41?4A?5S?5@ 00422500     bcommandmainwindow.obj
 0003:00000544       ??_C@_0EB@PFDP@I?5y?5X?5X?5o?5o?5?$CK?5?$DM?5?$DM?52?53?5c?5?$GA?5?$HN?5Z?5n?5@ 00422544     bcommandmainwindow.obj
 0003:00000588       ??_C@_0EB@MAAB@U?5y?5?4?5?4?5?4?5X?5o?5o?5?$CG?5?$CK?5?$DM?5?$DM?52?53?55?55?5@ 00422588     bcommandmainwindow.obj
 0003:000005cc       ??_C@_0EB@ONG@U?5r?5?4?5?4?5?4?5?4?5X?5X?5X?5o?5?$CG?5?$CK?5?$CK?5?$DM?52?53?5@ 004225cc     bcommandmainwindow.obj
 0003:00000610       ??_C@_0EB@DOKG@Y?5y?5?4?5?4?5?4?51?5S?5?$FL?5?$CG?4?9?4?$CG?4D?5o?5o?5?$CK?5?$CK?5@ 00422610     bcommandmainwindow.obj
 0003:00000654       ??_C@_0EB@FCNC@R?5y?5?4?5?4?5?4?5r?4t?4t?4t?4t?4t?4t?49?4v?5o?5o?5@ 00422654     bcommandmainwindow.obj
 0003:00000698       ??_C@_0EB@LGNG@W?5y?5?4?5?4?5?4?5r?4t?4q?4?8?5J?5?$DO?4t?4t?4w?4?$CK?5?4?5@ 00422698     bcommandmainwindow.obj
 0003:000006dc       ??_C@_0EB@LNCK@Q?5y?5?4?5?4?5?4?5r?4t?4?3?4?4?5?4?5?4?5O?4t?4t?4O?4?4?5@ 004226dc     bcommandmainwindow.obj
 0003:00000720       ??_C@_0EB@NIKE@Q?5y?5?4?5?4?5?4?5r?4t?4?3?4?4?5?4?5?4?5?$EA?5r?4t?49?4?4?5@ 00422720     bcommandmainwindow.obj
 0003:00000764       ??_C@_0EB@FMCL@?1?5y?5?4?5?4?5?4?5t?4t?4?3?4?4?5?4?5?4?5?4?56?4t?4t?4?4?5@ 00422764     bcommandmainwindow.obj
 0003:000007a8       ??_C@_0EB@ECAJ@?1?5y?5?4?5?4?5?4?5r?4t?4?3?4?4?5?4?5?4?5?4?53?4t?4t?4?$EA?5@ 004227a8     bcommandmainwindow.obj
 0003:000007ec       ??_C@_0EB@BDJC@?$CI?5i?5?4?5?4?5?4?5r?4t?44?4?4?5?4?5?4?5?4?57?4t?4t?4?4?5@ 004227ec     bcommandmainwindow.obj
 0003:00000830       ??_C@_0EB@MJGF@?$CI?5r?5?4?5?4?5?4?5t?4t?4t?4O?4?4?5?4?51?5t?4t?44?4?4?5@ 00422830     bcommandmainwindow.obj
 0003:00000874       ??_C@_0EB@NBNA@?$CI?5y?5?4?5?4?5?4?5r?4t?4t?4t?4?$CK?4G?56?4t?4t?4H?5?4?5@ 00422874     bcommandmainwindow.obj
 0003:000008b8       ??_C@_0EB@IOJD@?$CI?5y?5?4?5?4?5?4?5r?4t?43?4w?4t?4t?4t?4t?45?4X?5?4?5@ 004228b8     bcommandmainwindow.obj
 0003:000008fc       ??_C@_0EB@KKDF@?$CI?5y?5?4?5?4?5?4?5t?4t?4?9?41?5?$CD?46?47?4?$CL?4?$CG?5?4?5?4?5@ 004228fc     bcommandmainwindow.obj
 0003:00000940       ??_C@_0EB@IHD@?$CI?5y?5?4?5?4?5?4?5r?4t?4?$DL?4?4?5?4?5?4?5?4?5?4?5?4?5?4?5?4?5@ 00422940     bcommandmainwindow.obj
 0003:00000984       ??_C@_0EB@PLPF@?$CI?5y?5?4?5?4?5?4?5r?4t?4?$DL?4?4?5?4?5?4?5?4?5?4?5?4?5?4?5?4?5@ 00422984     bcommandmainwindow.obj
 0003:000009c8       ??_C@_0EB@BGFJ@?$CI?5y?5?4?5?4?5?$CG?5t?4t?4?$DO?4?$EA?5X?5?4?5?$CG?5?$EA?5?4?5?4?5X?5@ 004229c8     bcommandmainwindow.obj
 0003:00000a0c       ??_C@_0EB@JLLN@?$CI?5u?5?$CL?5?4?5?$EA?5t?4t?4?3?4?$EA?5?$CG?5?$EA?5?$CG?5?$CG?5?4?5?4?5?$CG?5@ 00422a0c     bcommandmainwindow.obj
 0003:00000a50       ??_C@_0EB@BIHO@?$CF?4f?5r?5?$CL?5X?51?5?$DN?5X?5?4?5?$CG?5?$CG?5?$EA?5?$CG?5?4?5?4?5?$CG?5@ 00422a50     bcommandmainwindow.obj
 0003:00000a94       ??_C@_0EB@DMBC@y?4?$CF?4f?5y?5?$CD?5?$CG?5?$CG?5X?5?$EA?5?$CG?5?$EA?5?$EA?5?$CG?5?$EA?5X?5?$CG?5@ 00422a94     bcommandmainwindow.obj
 0003:00000ad8       ??_C@_0EB@EEMI@y?4y?4?$CF?4g?5y?5?9?5?$CG?5?$CG?5?$CG?5?$CG?5?$EA?5?4?5?$CG?5?$EA?5?$CG?5?$CG?5@ 00422ad8     bcommandmainwindow.obj
 0003:00000b1c       ??_C@_0EB@OKBB@y?4y?4y?4?$CF?4g?5i?5?9?5X?5?4?5?$CG?5?$CG?5?4?5?$CG?5?$CG?5?$CG?5?$CG?5@ 00422b1c     bcommandmainwindow.obj
 0003:00000b60       ??_C@_0EB@KGNF@y?4y?4y?4y?4?$CF?4z?5f?5?9?5?$EA?5?$CG?5?$EA?5?$EA?5?$EA?5?$CG?5?$CG?5?$EA?5@ 00422b60     bcommandmainwindow.obj
 0003:00000ba4       ??_C@_0EB@HFJI@y?4y?4y?4y?4y?4?$CF?4x?5p?5s?5t?5i?5r?5r?5s?5t?5r?5@ 00422ba4     bcommandmainwindow.obj
 0003:00000be8       ??_C@_0EB@MLJN@y?4y?4y?4y?4y?4y?4?$CF?4?$CI?5?$CI?5?$CB?5?$CI?5?$CB?5?$CI?5?$CB?5?$CI?5?$CB?5@ 00422be8     bcommandmainwindow.obj
 0003:00000c2c       ??_C@_09GNNC@y?4?5c?5None?$AA@ 00422c2c     bcommandmainwindow.obj
 0003:00000c38       ??_C@_0N@EFOC@t?4?5c?5?$CDFEFEFE?$AA@ 00422c38     bcommandmainwindow.obj
 0003:00000c48       ??_C@_0N@LPAC@r?4?5c?5?$CDFAFAF5?$AA@ 00422c48     bcommandmainwindow.obj
 0003:00000c58       ??_C@_0N@KIGI@e?4?5c?5?$CDF6F6F3?$AA@ 00422c58     bcommandmainwindow.obj
 0003:00000c68       ??_C@_0N@NOOO@w?4?5c?5?$CDF5F5EC?$AA@ 00422c68     bcommandmainwindow.obj
 0003:00000c78       ??_C@_0N@NLHM@q?4?5c?5?$CDF1F1E5?$AA@ 00422c78     bcommandmainwindow.obj
 0003:00000c88       ??_C@_0N@LBNI@0?4?5c?5?$CDECECEC?$AA@ 00422c88     bcommandmainwindow.obj
 0003:00000c98       ??_C@_0N@ICOE@9?4?5c?5?$CDEFEFE1?$AA@ 00422c98     bcommandmainwindow.obj
 0003:00000ca8       ??_C@_0N@OCBM@8?4?5c?5?$CDE4E4E4?$AA@ 00422ca8     bcommandmainwindow.obj
 0003:00000cb8       ??_C@_0N@MHA@7?4?5c?5?$CDECECDB?$AA@ 00422cb8     bcommandmainwindow.obj
 0003:00000cc8       ??_C@_0N@HBPB@6?4?5c?5?$CDEAEAD6?$AA@ 00422cc8     bcommandmainwindow.obj
 0003:00000cd8       ??_C@_0N@FHDN@5?4?5c?5?$CDE7E7D1?$AA@ 00422cd8     bcommandmainwindow.obj
 0003:00000ce8       ??_C@_0N@MNBN@4?4?5c?5?$CDE3E3CA?$AA@ 00422ce8     bcommandmainwindow.obj
 0003:00000cf8       ??_C@_0N@CDFK@3?4?5c?5?$CDE1E1C6?$AA@ 00422cf8     bcommandmainwindow.obj
 0003:00000d08       ??_C@_0N@JEPB@2?4?5c?5?$CDDBDBDB?$AA@ 00422d08     bcommandmainwindow.obj
 0003:00000d18       ??_C@_0N@EGPK@1?4?5c?5?$CDD4D4D4?$AA@ 00422d18     bcommandmainwindow.obj
 0003:00000d28       ??_C@_0N@BGGC@?$DM?4?5c?5?$CDCCCCCB?$AA@ 00422d28     bcommandmainwindow.obj
 0003:00000d38       ??_C@_0N@FOMN@?0?4?5c?5?$CDC4C4C4?$AA@ 00422d38     bcommandmainwindow.obj
 0003:00000d48       ??_C@_0N@NCBN@?$DO?4?5c?5?$CDDADABA?$AA@ 00422d48     bcommandmainwindow.obj
 0003:00000d58       ??_C@_0N@BLKJ@?3?4?5c?5?$CDD8D8B5?$AA@ 00422d58     bcommandmainwindow.obj
 0003:00000d68       ??_C@_0N@MGDF@?$DL?4?5c?5?$CDD7D7B3?$AA@ 00422d68     bcommandmainwindow.obj
 0003:00000d78       ??_C@_0N@NJIC@?9?4?5c?5?$CDD3D3AC?$AA@ 00422d78     bcommandmainwindow.obj
 0003:00000d88       ??_C@_0N@NDPA@?$DN?4?5c?5?$CDD9D9A5?$AA@ 00422d88     bcommandmainwindow.obj
 0003:00000d98       ??_C@_0N@CBJB@?$CK?4?5c?5?$CDD2D2A4?$AA@ 00422d98     bcommandmainwindow.obj
 0003:00000da8       ??_C@_0N@CDOG@?$CG?4?5c?5?$CDCECEA2?$AA@ 00422da8     bcommandmainwindow.obj
 0003:00000db8       ??_C@_0N@NLKF@?$CF?4?5c?5?$CDF1F183?$AA@ 00422db8     bcommandmainwindow.obj
 0003:00000dc8       ??_C@_0N@CDJC@$?4?5c?5?$CDD2D29B?$AA@ 00422dc8     bcommandmainwindow.obj
 0003:00000dd8       ??_C@_0N@IMIC@?$CD?4?5c?5?$CDCBCB9E?$AA@ 00422dd8     bcommandmainwindow.obj
 0003:00000de8       ??_C@_0N@EMJ@?$EA?4?5c?5?$CDCCCC92?$AA@ 00422de8     bcommandmainwindow.obj
 0003:00000df8       ??_C@_0N@MJBC@?$CL?4?5c?5?$CDC6C692?$AA@ 00422df8     bcommandmainwindow.obj
 0003:00000e08       ??_C@_0N@BFNH@O?4?5c?5?$CDC4C48B?$AA@ 00422e08     bcommandmainwindow.obj
 0003:00000e18       ??_C@_0N@CFAM@o?4?5c?5?$CDC2C284?$AA@ 00422e18     bcommandmainwindow.obj
 0003:00000e28       ??_C@_0N@DCFB@X?4?5c?5?$CDBBBBBB?$AA@ 00422e28     bcommandmainwindow.obj
 0003:00000e38       ??_C@_0N@HLOE@?4?4?5c?5?$CDB5B5B5?$AA@ 00422e38     bcommandmainwindow.obj
 0003:00000e48       ??_C@_0N@KOLG@?5?4?5c?5?$CDABABAB?$AA@ 00422e48     bcommandmainwindow.obj
 0003:00000e58       ??_C@_0N@MJPD@?$HM?5?5c?5?$CDA9A9A7?$AA@ 00422e58     bcommandmainwindow.obj
 0003:00000e68       ??_C@_0N@KFCG@?$HN?5?5c?5?$CDA4A4A3?$AA@ 00422e68     bcommandmainwindow.obj
 0003:00000e78       ??_C@_0N@LFJM@?$HL?5?5c?5?$CDBFBF93?$AA@ 00422e78     bcommandmainwindow.obj
 0003:00000e88       ??_C@_0N@CFAN@?$FL?5?5c?5?$CDBCBC89?$AA@ 00422e88     bcommandmainwindow.obj
 0003:00000e98       ??_C@_0N@JKDA@?$FN?5?5c?5?$CDB6B689?$AA@ 00422e98     bcommandmainwindow.obj
 0003:00000ea8       ??_C@_0N@MJJH@?8?5?5c?5?$CDBEBE83?$AA@ 00422ea8     bcommandmainwindow.obj
 0003:00000eb8       ??_C@_0N@NJJB@?$GA?5?5c?5?$CD9D9D9B?$AA@ 00422eb8     bcommandmainwindow.obj
 0003:00000ec8       ??_C@_0M@NMK@_?5?5c?5gray59?$AA@ 00422ec8     bcommandmainwindow.obj
 0003:00000ed4       ??_C@_0N@GDLD@?$CJ?5?5c?5?$CD8A8A87?$AA@ 00422ed4     bcommandmainwindow.obj
 0003:00000ee4       ??_C@_0N@OIFN@?$CI?5?5c?5?$CDF4F464?$AA@ 00422ee4     bcommandmainwindow.obj
 0003:00000ef4       ??_C@_0N@HLDM@?1?5?5c?5?$CDEDED60?$AA@ 00422ef4     bcommandmainwindow.obj
 0003:00000f04       ??_C@_0N@MLLJ@?$FO?5?5c?5?$CDDCDC64?$AA@ 00422f04     bcommandmainwindow.obj
 0003:00000f14       ??_C@_0N@DFMB@?$HO?5?5c?5?$CDD3D365?$AA@ 00422f14     bcommandmainwindow.obj
 0003:00000f24       ??_C@_0N@LFLA@?$CB?5?5c?5?$CDF1F15D?$AA@ 00422f24     bcommandmainwindow.obj
 0003:00000f34       ??_C@_0N@IPFH@Q?5?5c?5?$CDECEC5B?$AA@ 00422f34     bcommandmainwindow.obj
 0003:00000f44       ??_C@_0N@HJPI@W?5?5c?5?$CDE5E558?$AA@ 00422f44     bcommandmainwindow.obj
 0003:00000f54       ??_C@_0N@HBKG@E?5?5c?5?$CDE9E955?$AA@ 00422f54     bcommandmainwindow.obj
 0003:00000f64       ??_C@_0N@KPGP@R?5?5c?5?$CDE4E454?$AA@ 00422f64     bcommandmainwindow.obj
 0003:00000f74       ??_C@_0N@NNF@T?5?5c?5?$CDE2E24E?$AA@ 00422f74     bcommandmainwindow.obj
 0003:00000f84       ??_C@_0N@NNLA@Y?5?5c?5?$CDDEDE51?$AA@ 00422f84     bcommandmainwindow.obj
 0003:00000f94       ??_C@_0N@DEDC@U?5?5c?5?$CDDCDC4C?$AA@ 00422f94     bcommandmainwindow.obj
 0003:00000fa4       ??_C@_0N@LOOA@I?5?5c?5?$CDD6D649?$AA@ 00422fa4     bcommandmainwindow.obj
 0003:00000fb4       ??_C@_0N@FEIO@P?5?5c?5?$CDDADA46?$AA@ 00422fb4     bcommandmainwindow.obj
 0003:00000fc4       ??_C@_0N@KCP@L?5?5c?5?$CDD3D344?$AA@ 00422fc4     bcommandmainwindow.obj
 0003:00000fd4       ??_C@_0N@IEBN@K?5?5c?5?$CDCDCD40?$AA@ 00422fd4     bcommandmainwindow.obj
 0003:00000fe4       ??_C@_0N@JGPG@J?5?5c?5?$CDBDBD7D?$AA@ 00422fe4     bcommandmainwindow.obj
 0003:00000ff4       ??_C@_0N@PGLD@H?5?5c?5?$CDB8B876?$AA@ 00422ff4     bcommandmainwindow.obj
 0003:00001004       ??_C@_0N@CFIO@G?5?5c?5?$CDB6B673?$AA@ 00423004     bcommandmainwindow.obj
 0003:00001014       ??_C@_0N@JNLE@F?5?5c?5?$CDB2B26D?$AA@ 00423014     bcommandmainwindow.obj
 0003:00001024       ??_C@_0N@LMCF@D?5?5c?5?$CDAFAF69?$AA@ 00423024     bcommandmainwindow.obj
 0003:00001034       ??_C@_0N@FIHC@S?5?5c?5?$CDACAC63?$AA@ 00423034     bcommandmainwindow.obj
 0003:00001044       ??_C@_0N@NBPI@A?5?5c?5?$CD98987C?$AA@ 00423044     bcommandmainwindow.obj
 0003:00001054       ??_C@_0N@GKBK@Z?5?5c?5?$CD8D8D6B?$AA@ 00423054     bcommandmainwindow.obj
 0003:00001064       ??_C@_0N@HCHC@C?5?5c?5?$CDA8A85E?$AA@ 00423064     bcommandmainwindow.obj
 0003:00001074       ??_C@_0N@JDMC@V?5?5c?5?$CDA7A75A?$AA@ 00423074     bcommandmainwindow.obj
 0003:00001084       ??_C@_0N@MGAD@B?5?5c?5?$CDA3A355?$AA@ 00423084     bcommandmainwindow.obj
 0003:00001094       ??_C@_0N@DLBJ@N?5?5c?5?$CDB0B04A?$AA@ 00423094     bcommandmainwindow.obj
 0003:000010a4       ??_C@_0N@NKFM@M?5?5c?5?$CDAEAE4C?$AA@ 004230a4     bcommandmainwindow.obj
 0003:000010b4       ??_C@_0N@JCKL@m?5?5c?5?$CD8D8D54?$AA@ 004230b4     bcommandmainwindow.obj
 0003:000010c4       ??_C@_0N@HLEK@n?5?5c?5?$CD9E9E4C?$AA@ 004230c4     bcommandmainwindow.obj
 0003:000010d4       ??_C@_0N@GAMO@b?5?5c?5?$CD9A9A44?$AA@ 004230d4     bcommandmainwindow.obj
 0003:000010e4       ??_C@_0N@GGIG@v?5?5c?5?$CD979740?$AA@ 004230e4     bcommandmainwindow.obj
 0003:000010f4       ??_C@_0N@MJCA@c?5?5c?5?$CD888848?$AA@ 004230f4     bcommandmainwindow.obj
 0003:00001104       ??_C@_0N@GPNH@x?5?5c?5?$CDFBFB35?$AA@ 00423104     bcommandmainwindow.obj
 0003:00001114       ??_C@_0N@EOI@z?5?5c?5?$CDFCFC28?$AA@ 00423114     bcommandmainwindow.obj
 0003:00001124       ??_C@_0N@NANP@l?5?5c?5?$CDD2D23E?$AA@ 00423124     bcommandmainwindow.obj
 0003:00001134       ??_C@_0N@CHGL@k?5?5c?5?$CDCCCC3C?$AA@ 00423134     bcommandmainwindow.obj
 0003:00001144       ??_C@_0N@CIIK@j?5?5c?5?$CDC4C43A?$AA@ 00423144     bcommandmainwindow.obj
 0003:00001154       ??_C@_0N@JHGL@h?5?5c?5?$CDCBCB37?$AA@ 00423154     bcommandmainwindow.obj
 0003:00001164       ??_C@_0N@KBPK@g?5?5c?5?$CDFCFC1C?$AA@ 00423164     bcommandmainwindow.obj
 0003:00001174       ??_C@_0N@JCEA@f?5?5c?5?$CDFCFC13?$AA@ 00423174     bcommandmainwindow.obj
 0003:00001184       ??_C@_0N@NECH@d?5?5c?5?$CDF4F412?$AA@ 00423184     bcommandmainwindow.obj
 0003:00001194       ??_C@_0N@EHLO@s?5?5c?5?$CDECEC13?$AA@ 00423194     bcommandmainwindow.obj
 0003:000011a4       ??_C@_0N@DGJM@a?5?5c?5?$CDE7E711?$AA@ 004231a4     bcommandmainwindow.obj
 0003:000011b4       ??_C@_0N@GIKG@p?5?5c?5?$CDFCFC0F?$AA@ 004231b4     bcommandmainwindow.obj
 0003:000011c4       ??_C@_0N@MACE@i?5?5c?5?$CDF7F70A?$AA@ 004231c4     bcommandmainwindow.obj
 0003:000011d4       ??_C@_0N@JFPL@u?5?5c?5?$CDFEFE01?$AA@ 004231d4     bcommandmainwindow.obj
 0003:000011e4       ??_C@_0N@IIBD@y?5?5c?5?$CDF3F301?$AA@ 004231e4     bcommandmainwindow.obj
 0003:000011f4       ??_C@_0N@PMOC@t?5?5c?5?$CDEBEB0C?$AA@ 004231f4     bcommandmainwindow.obj
 0003:00001204       ??_C@_0N@MOMN@r?5?5c?5?$CDEBEB03?$AA@ 00423204     bcommandmainwindow.obj
 0003:00001214       ??_C@_0N@EIOP@e?5?5c?5?$CDDADA00?$AA@ 00423214     bcommandmainwindow.obj
 0003:00001224       ??_C@_0N@JHID@w?5?5c?5?$CDCECE00?$AA@ 00423224     bcommandmainwindow.obj
 0003:00001234       ??_C@_0N@BCEC@q?5?5c?5?$CDC5C500?$AA@ 00423234     bcommandmainwindow.obj
 0003:00001244       ??_C@_0N@MGFB@0?5?5c?5?$CDBEBE3C?$AA@ 00423244     bcommandmainwindow.obj
 0003:00001254       ??_C@_0N@EECE@9?5?5c?5?$CDBBBB33?$AA@ 00423254     bcommandmainwindow.obj
 0003:00001264       ??_C@_0N@PEB@8?5?5c?5?$CDB9B92C?$AA@ 00423264     bcommandmainwindow.obj
 0003:00001274       ??_C@_0N@GAHE@7?5?5c?5?$CDB4B42B?$AA@ 00423274     bcommandmainwindow.obj
 0003:00001284       ??_C@_0N@MBPB@6?5?5c?5?$CDADAD23?$AA@ 00423284     bcommandmainwindow.obj
 0003:00001294       ??_C@_0N@NGGF@5?5?5c?5?$CD94943B?$AA@ 00423294     bcommandmainwindow.obj
 0003:000012a4       ??_C@_0N@CAFB@4?5?5c?5?$CD919134?$AA@ 004232a4     bcommandmainwindow.obj
 0003:000012b4       ??_C@_0N@KGNI@3?5?5c?5?$CD8F8F31?$AA@ 004232b4     bcommandmainwindow.obj
 0003:000012c4       ??_C@_0N@LELO@2?5?5c?5?$CD8B8B2B?$AA@ 004232c4     bcommandmainwindow.obj
 0003:000012d4       ??_C@_0N@JDE@1?5?5c?5?$CD8B8B25?$AA@ 004232d4     bcommandmainwindow.obj
 0003:000012e4       ??_C@_0N@JABA@?$DM?5?5c?5?$CD878723?$AA@ 004232e4     bcommandmainwindow.obj
 0003:000012f4       ??_C@_0N@KBGO@?0?5?5c?5?$CDAAAA1D?$AA@ 004232f4     bcommandmainwindow.obj
 0003:00001304       ??_C@_0N@IICD@?$DO?5?5c?5?$CDA4A41B?$AA@ 00423304     bcommandmainwindow.obj
 0003:00001314       ??_C@_0N@BFBO@?3?5?5c?5?$CDA3A316?$AA@ 00423314     bcommandmainwindow.obj
 0003:00001324       ??_C@_0N@ENOD@?$DL?5?5c?5?$CDBABA00?$AA@ 00423324     bcommandmainwindow.obj
 0003:00001334       ??_C@_0N@CDLJ@?9?5?5c?5?$CD9C9C12?$AA@ 00423334     bcommandmainwindow.obj
 0003:00001344       ??_C@_0N@HAIH@?$DN?5?5c?5?$CD89891D?$AA@ 00423344     bcommandmainwindow.obj
 0003:00001354       ??_C@_0N@JJI@?$CK?5?5c?5?$CD85851B?$AA@ 00423354     bcommandmainwindow.obj
 0003:00001364       ??_C@_0N@JAJ@?$CG?5?5c?5?$CD838313?$AA@ 00423364     bcommandmainwindow.obj
 0003:00001374       ??_C@_0N@BPAC@?$CF?5?5c?5?$CD9A9A0D?$AA@ 00423374     bcommandmainwindow.obj
 0003:00001384       ??_C@_0N@FONI@$?5?5c?5?$CD94940B?$AA@ 00423384     bcommandmainwindow.obj
 0003:00001394       ??_C@_0N@NCMH@?$CD?5?5c?5?$CD929204?$AA@ 00423394     bcommandmainwindow.obj
 0003:000013a4       ??_C@_0N@FLPM@?$EA?5?5c?5?$CD81810D?$AA@ 004233a4     bcommandmainwindow.obj
 0003:000013b4       ??_C@_0N@OEBE@?$CL?5?5c?5?$CD8B8B01?$AA@ 004233b4     bcommandmainwindow.obj
 0003:000013c4       ??_C@_0N@CFFG@O?5?5c?5?$CD838300?$AA@ 004233c4     bcommandmainwindow.obj
 0003:000013d4       ??_C@_0N@GCDH@o?5?5c?5?$CD7F7F11?$AA@ 004233d4     bcommandmainwindow.obj
 0003:000013e4       ??_C@_0N@FOPF@X?5?5c?5?$CD7E7E0A?$AA@ 004233e4     bcommandmainwindow.obj
 0003:000013f4       ??_C@_0N@LNEP@?4?5?5c?5?$CD7A7A01?$AA@ 004233f4     bcommandmainwindow.obj
 0003:00001404       ??_C@_0N@EAGG@?5?5?5c?5?$CD6C6C00?$AA@ 00423404     bcommandmainwindow.obj
 0003:00001414       ??_C@_0N@FFEM@32?532?5127?52?5?$AA@ 00423414     bcommandmainwindow.obj
 0003:00001424       ??_C@_0BB@INPM@?4?4?$CD?$CD?$CD?$CD?$CD?$CD?$CD?$CD?$CD?$CD?$CD?4?4?4?$AA@ 00423424     bcommandmainwindow.obj
 0003:00001438       ??_C@_0BB@DDKF@?4?4?$CDaaaaaaaaa?$CD?4?4?4?$AA@ 00423438     bcommandmainwindow.obj
 0003:0000144c       ??_C@_0BB@MBLB@?4?4?$CDaaaaaa?$CD?$CD?$CD?$CD?4?4?4?$AA@ 0042344c     bcommandmainwindow.obj
 0003:00001460       ??_C@_0BB@BIHC@?4?4?$CDaaaaaa?$CDa?$CD?4?4?4?4?$AA@ 00423460     bcommandmainwindow.obj
 0003:00001474       ??_C@_0BB@HKKB@?4?4?$CDaaaaaa?$CD?$CD?4?4?4?4?4?$AA@ 00423474     bcommandmainwindow.obj
 0003:00001488       ??_C@_0BB@FIMN@?4?4?$CD?$CD?$CD?$CD?$CD?$CD?$CD?$CD?4?4?4?4?4?4?$AA@ 00423488     bcommandmainwindow.obj
 0003:0000149c       ??_C@_09EMLC@16?516?53?51?$AA@ 0042349c     bcommandmainwindow.obj
 0003:000014a8       ??_C@_0BB@EDBC@?$CD?$CD?$CD?$CD?$CD?$CD?$CD?$CD?$CD?$CD?$CD?4?4?4?4?4?$AA@ 004234a8     bcommandmainwindow.obj
 0003:000014bc       ??_C@_0BB@FAKH@?$CD?$CDccccccccc?$CD?4?4?4?4?$AA@ 004234bc     bcommandmainwindow.obj
 0003:000014d0       ??_C@_0BB@PKHG@?$CDa?$CDccccccccc?$CD?4?4?4?$AA@ 004234d0     bcommandmainwindow.obj
 0003:000014e4       ??_C@_0BB@GMGJ@?$CDba?$CDccccccccc?$CD?4?4?$AA@ 004234e4     bcommandmainwindow.obj
 0003:000014f8       ??_C@_0BB@DEIG@?$CDaba?$CDccccccccc?$CD?4?$AA@ 004234f8     bcommandmainwindow.obj
 0003:0000150c       ??_C@_0BB@BOID@?$CDbaba?$CD?$CD?$CD?$CD?$CD?$CD?$CD?$CD?$CD?$CD?4?$AA@ 0042350c     bcommandmainwindow.obj
 0003:00001520       ??_C@_0BB@JAEI@?$CDababababa?$CD?4?4?4?4?4?$AA@ 00423520     bcommandmainwindow.obj
 0003:00001534       ??_C@_0BB@DABB@?$CDbabababab?$CD?4?4?4?4?4?$AA@ 00423534     bcommandmainwindow.obj
 0003:00001548       ??_C@_0BB@CDON@?$CDaba?$CD?$CD?$CD?$CD?$CD?$CD?$CD?4?4?4?4?4?$AA@ 00423548     bcommandmainwindow.obj
 0003:0000155c       ??_C@_0BB@BDGN@?4?$CD?$CD?$CD?4?4?4?4?4?4?4?4?$CD?$CD?$CD?4?$AA@ 0042355c     bcommandmainwindow.obj
 0003:00001570       ??_C@_0BB@OIOO@?4?4?4?4?4?4?4?4?4?4?4?4?4?$CD?$CD?4?$AA@ 00423570     bcommandmainwindow.obj
 0003:00001584       ??_C@_0BB@NBHN@?4?4?4?4?4?4?4?4?$CD?4?4?4?$CD?4?$CD?4?$AA@ 00423584     bcommandmainwindow.obj
 0003:00001598       ??_C@_0BB@DEJG@?4?4?4?4?4?4?4?4?4?$CD?$CD?$CD?4?4?4?4?$AA@ 00423598     bcommandmainwindow.obj
 0003:000015ac       ??_C@_0M@LPFF@a?5c?5?$CDffffff?$AA@ 004235ac     bcommandmainwindow.obj
 0003:000015b8       ??_C@_0M@MEPE@b?5c?5?$CDffff00?$AA@ 004235b8     bcommandmainwindow.obj
 0003:000015c4       ??_C@_0M@LLAA@c?5c?5?$CD808000?$AA@ 004235c4     bcommandmainwindow.obj
 0003:000015d0       ??_C@_09KAMF@16?516?55?51?$AA@ 004235d0     bcommandmainwindow.obj
 0003:000015dc       ??_C@_0BB@POFB@?4?4?$CD?$CD?$CD?$CD?$CD?$CD?$CD?$CD?$CD?$CD?$CD?$CD?$CD?4?$AA@ 004235dc     bcommandmainwindow.obj
 0003:000015f0       ??_C@_0BB@PLHF@?4?$CDaa?$CD?$CD?$CD?$CD?$CD?$CDbb?$CDa?$CD?4?$AA@ 004235f0     bcommandmainwindow.obj
 0003:00001604       ??_C@_0BB@KPKN@?4?$CDaa?$CD?$CD?$CD?$CD?$CD?$CD?$CD?$CD?$CDa?$CD?4?$AA@ 00423604     bcommandmainwindow.obj
 0003:00001618       ??_C@_0BB@PGHE@?4?$CDaaaaaaaaaaaa?$CD?4?$AA@ 00423618     bcommandmainwindow.obj
 0003:0000162c       ??_C@_0BB@LBIM@?4?$CDaa?$CD?$CD?$CD?$CD?$CD?$CD?$CD?$CDaa?$CD?4?$AA@ 0042362c     bcommandmainwindow.obj
 0003:00001640       ??_C@_0BB@LLIH@?4?$CDa?$CDbbbbbbbb?$CDa?$CD?4?$AA@ 00423640     bcommandmainwindow.obj
 0003:00001654       ??_C@_0BB@JKAA@?4?$CDa?$CDbbbbbbbb?$CD?$CD?$CD?4?$AA@ 00423654     bcommandmainwindow.obj
 0003:00001668       ??_C@_0BB@ENLM@?4?$CDa?$CDbbbbbbbb?$CDb?$CD?4?$AA@ 00423668     bcommandmainwindow.obj
 0003:0000167c       ??_C@_0BB@CDHC@?4?$CD?$CD?$CD?$CD?$CD?$CD?$CD?$CD?$CD?$CD?$CD?$CD?$CD?$CD?4?$AA@ 0042367c     bcommandmainwindow.obj
 0003:00001690       ??_C@_0BB@JLED@?4?4?4?4?4?4?4?4?4?4?4?4?4?4?4?4?$AA@ 00423690     bcommandmainwindow.obj
 0003:000016a4       ??_C@_0M@JKH@b?5c?5?$CDd4d0c8?$AA@ 004236a4     bcommandmainwindow.obj
 0003:000016b0       ??_C@_08OIBF@?4?5c?5none?$AA@ 004236b0     bcommandmainwindow.obj
 0003:000016bc       ??_C@_0M@GOBP@a?5c?5?$CD808000?$AA@ 004236bc     bcommandmainwindow.obj
 0003:000016c8       ??_C@_0M@JPGB@?$CD?5c?5?$CD000000?$AA@ 004236c8     bcommandmainwindow.obj
 0003:000016d4       ??_C@_09PCND@16?516?54?51?$AA@ 004236d4     bcommandmainwindow.obj
 0003:000016e0       ??_C@_0BJ@IJLP@Failed?5to?5connect?5to?5CSI?$AA@ 004236e0     bcommandmainwindow.obj
 0003:000016fc       ??_C@_08ONKI@ccClient?$AA@ 004236fc     bcommandmainwindow.obj
 0003:00001708       ??_C@_09HMMK@?1lastFile?$AA@ 00423708     bcommandmainwindow.obj
 0003:00001714       ??_C@_0N@JONN@?1recentFiles?$AA@ 00423714     bcommandmainwindow.obj
 0003:00001724       ??_C@_0BA@KAIN@CollediaControl?$AA@ 00423724     bcommandmainwindow.obj
 0003:00001734       ??_C@_08OMPA@bCommand?$AA@ 00423734     bcommandmainwindow.obj
 0003:00001740       ??_C@_06EMBK@?1load?$DN?$AA@ 00423740     bcommandmainwindow.obj
 0003:00001748       ??_C@_0M@PAPI@2released?$CI?$CJ?$AA@ 00423748     bcommandmainwindow.obj
 0003:00001754       ??_C@_0BA@IH@1copySettings?$CI?$CJ?$AA@ 00423754     bcommandmainwindow.obj
 0003:00001764       ??_C@_0DO@JAKK@2sig_commandRegisterFor?$CI?5const?5i@ 00423764     bcommandmainwindow.obj
 0003:000017a4       ??_C@_0DM@BBIP@1slot_addRegistration?$CI?5const?5int@ 004237a4     bcommandmainwindow.obj
 0003:000017e0       ??_C@_0BM@OJHK@2sig_commandChanged?$CI?5bool?5?$CJ?$AA@ 004237e0     bcommandmainwindow.obj
 0003:000017fc       ??_C@_0BK@MLDF@1slot_scriptDirty?$CI?5bool?5?$CJ?$AA@ 004237fc     bcommandmainwindow.obj
 0003:00001818       ??_C@_0P@KMFB@2aboutToShow?$CI?$CJ?$AA@ 00423818     bcommandmainwindow.obj
 0003:00001828       ??_C@_0BA@JLAP@1showFileMenu?$CI?$CJ?$AA@ 00423828     bcommandmainwindow.obj
 0003:00001838       ??_C@_0P@MHAE@2toggled?$CIbool?$CJ?$AA@ 00423838     bcommandmainwindow.obj
 0003:00001848       ??_C@_0BD@HCDD@1toggleTimer?$CIbool?$CJ?$AA@ 00423848     bcommandmainwindow.obj
 0003:0000185c       ??_C@_0BD@HEFH@2valueChanged?$CIint?$CJ?$AA@ 0042385c     bcommandmainwindow.obj
 0003:00001870       ??_C@_0BI@IFPH@1timerValueChanged?$CIint?$CJ?$AA@ 00423870     bcommandmainwindow.obj
 0003:00001888       ??_C@_0CP@JDJO@Copies?5the?5comands?5from?5the?5left@ 00423888     bcommandmainwindow.obj
 0003:000018b8       ??_C@_0BD@JHEC@Copy?5Settings?5?9?9?9?$DO?$AA@ 004238b8     bcommandmainwindow.obj
 0003:000018cc       ??_C@_09IJIF@Run?5Timer?$AA@ 004238cc     bcommandmainwindow.obj
 0003:000018d8       ??_C@_02HFKK@mS?$AA@       004238d8     bcommandmainwindow.obj
 0003:000018dc       ??_C@_0N@POBO@Timer?5period?$AA@ 004238dc     bcommandmainwindow.obj
 0003:000018ec       ??_C@_0N@KKGG@1whatsThis?$CI?$CJ?$AA@ 004238ec     bcommandmainwindow.obj
 0003:000018fc       ??_C@_0N@KMMJ@What?8s?5?$CGThis?$AA@ 004238fc     bcommandmainwindow.obj
 0003:0000190c       ??_C@_08HEEF@1about?$CI?$CJ?$AA@ 0042390c     bcommandmainwindow.obj
 0003:00001918       ??_C@_06JACP@?$CGAbout?$AA@ 00423918     bcommandmainwindow.obj
 0003:00001920       ??_C@_08FFDP@1close?$CI?$CJ?$AA@ 00423920     bcommandmainwindow.obj
 0003:0000192c       ??_C@_04BAHI@exit?$AA@     0042392c     bcommandmainwindow.obj
 0003:00001934       ??_C@_05COP@E?$CGxit?$AA@  00423934     bcommandmainwindow.obj
 0003:0000193c       ??_C@_07OFLP@1save?$CI?$CJ?$AA@ 0042393c     bcommandmainwindow.obj
 0003:00001944       ??_C@_04MEDD@save?$AA@     00423944     bcommandmainwindow.obj
 0003:0000194c       ??_C@_05KKAE@?$CGSave?$AA@ 0042394c     bcommandmainwindow.obj
 0003:00001954       ??_C@_09NJNK@1saveAs?$CI?$CJ?$AA@ 00423954     bcommandmainwindow.obj
 0003:00001960       ??_C@_07KPFN@save?5as?$AA@ 00423960     bcommandmainwindow.obj
 0003:00001968       ??_C@_08MHPB@Save?5?$CGAs?$AA@ 00423968     bcommandmainwindow.obj
 0003:00001974       ??_C@_07LKBF@1open?$CI?$CJ?$AA@ 00423974     bcommandmainwindow.obj
 0003:0000197c       ??_C@_04KHOB@open?$AA@     0042397c     bcommandmainwindow.obj
 0003:00001984       ??_C@_05MJNG@?$CGOpen?$AA@ 00423984     bcommandmainwindow.obj
 0003:0000198c       ??_C@_0N@HLOO@2activated?$CI?$CJ?$AA@ 0042398c     bcommandmainwindow.obj
 0003:0000199c       ??_C@_0BA@ODD@1clearCurrent?$CI?$CJ?$AA@ 0042399c     bcommandmainwindow.obj
 0003:000019ac       ??_C@_03IDPP@new?$AA@      004239ac     bcommandmainwindow.obj
 0003:000019b0       ??_C@_04LEIE@?$CGNew?$AA@  004239b0     bcommandmainwindow.obj
 0003:000019b8       ??_C@_05KJAK@?$CGHelp?$AA@ 004239b8     bcommandmainwindow.obj
 0003:000019c0       ??_C@_05CNCC@?$CGFile?$AA@ 004239c0     bcommandmainwindow.obj
 0003:000019c8       ??_C@_0P@INAJ@2aboutToQuit?$CI?$CJ?$AA@ 004239c8     bcommandmainwindow.obj
 0003:000019d8       ??_C@_0P@GNPK@1aboutToQuit?$CI?$CJ?$AA@ 004239d8     bcommandmainwindow.obj
 0003:000019e8       ??_C@_09EFEJ@CC_SYSTEM?$AA@ 004239e8     bcommandmainwindow.obj
 0003:000019f4       ??_C@_07FCNI@CC_ROOT?$AA@  004239f4     bcommandmainwindow.obj
 0003:000019fc       ??_C@_0BO@EJCE@open?5file?5dialogChoose?5a?5file?$AA@ 004239fc     bcommandmainwindow.obj
 0003:00001a1c       ??_C@_0CC@JBAN@bCommand?5?$CI?$CK?4bcm?$CJ?$DL?$DLAll?5Files?5?$CI?$CK?4?$CK@ 00423a1c     bcommandmainwindow.obj
 0003:00001a40       ??_C@_06FHOB@?$CF1?2?$CF2?2?$AA@ 00423a40     bcommandmainwindow.obj
 0003:00001a48       ??_C@_03DMDD@?5?9?5?$AA@   00423a48     bcommandmainwindow.obj
 0003:00001a4c       ??_C@_07JCGI@Warning?$AA@  00423a4c     bcommandmainwindow.obj
 0003:00001a54       ??_C@_03PEHN@Yes?$AA@      00423a54     bcommandmainwindow.obj
 0003:00001a58       ??_C@_02JOHD@No?$AA@       00423a58     bcommandmainwindow.obj
 0003:00001a5c       ??_C@_0CF@NNLC@?6Do?5you?5want?5to?5overwrite?5this?5f@ 00423a5c     bcommandmainwindow.obj
 0003:00001a84       ??_C@_0BG@JHGH@?6File?5already?5exists?4?$AA@ 00423a84     bcommandmainwindow.obj
 0003:00001a9c       ??_C@_04NLDH@?4bcm?$AA@    00423a9c     bcommandmainwindow.obj
 0003:00001aa4       ??_C@_0BB@GFCF@bCommand?5?$CI?$CK?4bcm?$CJ?$AA@ 00423aa4     bcommandmainwindow.obj
 0003:00001ab8       ??_C@_0BE@OGJ@Failed?5to?5open?5file?$AA@ 00423ab8     bcommandmainwindow.obj
 0003:00001acc       ??_C@_06FMMJ@?$FLEND?$FN?6?$AA@ 00423acc     bcommandmainwindow.obj
 0003:00001ad4       ??_C@_09GGEB@Timer?$DN?$CFd?6?$AA@ 00423ad4     bcommandmainwindow.obj
 0003:00001ae0       ??_C@_07JCKE@?$FLMain?$FN?6?$AA@ 00423ae0     bcommandmainwindow.obj
 0003:00001ae8       ??_C@_0O@EJPJ@?$FLRevertives?$FN?6?$AA@ 00423ae8     bcommandmainwindow.obj
 0003:00001af8       ??_C@_0L@BEBB@?$FLComment?$FN?6?$AA@ 00423af8     bcommandmainwindow.obj
 0003:00001b04       ??_C@_0M@CHNB@?$FLCommand2?$FN?6?$AA@ 00423b04     bcommandmainwindow.obj
 0003:00001b10       ??_C@_03HHKO@?$CFs?6?$AA@  00423b10     bcommandmainwindow.obj
 0003:00001b14       ??_C@_0M@NBOK@?$FLCommand1?$FN?6?$AA@ 00423b14     bcommandmainwindow.obj
 0003:00001b20       ??_C@_01LLF@w?$AA@         00423b20     bcommandmainwindow.obj
 0003:00001b24       ??_C@_0CM@MNME@LoadData?5Failed?5to?5open?5previous@ 00423b24     bcommandmainwindow.obj
 0003:00001b50       ??_C@_04NLIF@Main?$AA@     00423b50     bcommandmainwindow.obj
 0003:00001b58       ??_C@_0L@JHDK@Revertives?$AA@ 00423b58     bcommandmainwindow.obj
 0003:00001b64       ??_C@_07JDPA@Comment?$AA@  00423b64     bcommandmainwindow.obj
 0003:00001b6c       ??_C@_08GMMM@Command2?$AA@ 00423b6c     bcommandmainwindow.obj
 0003:00001b78       ??_C@_08JDHF@Command1?$AA@ 00423b78     bcommandmainwindow.obj
 0003:00001b84       ??_C@_01LHO@r?$AA@         00423b84     bcommandmainwindow.obj
 0003:00001b88       ??_C@_05PJO@Timer?$AA@     00423b88     bcommandmainwindow.obj
 0003:00001b90       ??_C@_0BH@FGGE@Author?5?9?5Mark?5Baldry?6?6?$AA@ 00423b90     bcommandmainwindow.obj
 0003:00001ba8       ??_C@_0L@HCKM@Version?5?9?5?$AA@ 00423ba8     bcommandmainwindow.obj
 0003:00001bb4       ??_C@_02JJJH@?6?6?$AA@     00423bb4     bcommandmainwindow.obj
 0003:00001bb8       ??_C@_01BJG@?6?$AA@        00423bb8     bcommandmainwindow.obj
 0003:00001bbc       ??_C@_0CB@EGGJ@1loadRecentFile?$CIconst?5QVariant?$CG?$CJ@ 00423bbc     bcommandmainwindow.obj
 0003:00001be0       ??_C@_0BA@NOMC@?6Does?5not?5exist?$AA@ 00423be0     bcommandmainwindow.obj
 0003:00001bf0       ??_C@_0BE@PLIK@File?5does?5not?5exist?$AA@ 00423bf0     bcommandmainwindow.obj
 0003:00001c04       ??_C@_0BI@PHJO@ASSERT?3?5?$CC?$CFs?$CC?5in?5?$CFs?5?$CI?$CFd?$CJ?$AA@ 00423c04     bcommandmainwindow.obj
 0003:00001c1c       ??_C@_0L@MGKG@i?5?$DM?$DN?5nodes?$AA@ 00423c1c     bcommandmainwindow.obj
 0003:00001c28       ??_C@_0CB@GILJ@C?3?2Qt?23?42?43?2include?2qvaluelist?4h@ 00423c28     bcommandmainwindow.obj
 0003:00001c4c       ??_C@_01FDHG@?$CK?$AA@     00423c4c     bcommandmainwindow.obj
 0003:00001c50       ??_C@_04PGEF@?$CK?5?9?5?$AA@ 00423c50     bcommandmainwindow.obj
 0003:00001c58       ??_C@_0BI@KPKD@bCommand?5unsaved?5script?$AA@ 00423c58     bcommandmainwindow.obj
 0003:00001c70       ??_C@_0CC@GDGI@Do?5you?5want?5to?5save?5this?5script?5@ 00423c70     bcommandmainwindow.obj
 0003:00001c94       ??_C@_0M@DJBI@?$CGDon?8t?5Save?$AA@ 00423c94     bcommandmainwindow.obj
 0003:00001ca0       ??_C@_0BA@GNEL@it?4node?5?$CB?$DN?5node?$AA@ 00423ca0     bcommandmainwindow.obj
 0003:00001cb0       ??_C@_0CA@PEMD@2textChanged?$CI?5const?5QString?5?$CG?5?$CJ?$AA@ 00423cb0     commandEdit.obj
 0003:00001cd0       ??_C@_0CJ@POCP@1slot_thisTextChanged?$CI?5const?5QSt@ 00423cd0     commandEdit.obj
 0003:00001cfc       ??_C@_0BB@KLED@1setCheckBoxes?$CI?$CJ?$AA@ 00423cfc     commandimpl.obj
 0003:00001d10       ??_C@_0L@MBKD@2pressed?$CI?$CJ?$AA@ 00423d10     commandimpl.obj
 0003:00001d1c       ??_C@_08LGMI@1allGo?$CI?$CJ?$AA@ 00423d1c     commandimpl.obj
 0003:00001d28       ??_C@_0BD@KAFM@2previousEdit?$CIint?$CJ?$AA@ 00423d28     commandimpl.obj
 0003:00001d3c       ??_C@_0P@KLFF@2nextEdit?$CIint?$CJ?$AA@ 00423d3c     commandimpl.obj
 0003:00001d4c       ??_C@_0O@JKOD@1setEdit?$CIint?$CJ?$AA@ 00423d4c     commandimpl.obj
 0003:00001d5c       ??_C@_0EF@HGKM@2sig_commandLineRegisterFor?$CI?5con@ 00423d5c     commandimpl.obj
 0003:00001da4       ??_C@_0EC@HFJN@1slot_commandRegisterFor?$CI?5const?5@ 00423da4     commandimpl.obj
 0003:00001de8       ??_C@_0BL@PKEI@2sig_commandLineModified?$CI?$CJ?$AA@ 00423de8     commandimpl.obj
 0003:00001e04       ??_C@_0BD@NDIN@1slot_hasChanged?$CI?$CJ?$AA@ 00423e04     commandimpl.obj
 0003:00001e18       ??_C@_0BN@IFDG@Action?5all?5selected?5commands?$AA@ 00423e18     commandimpl.obj
 0003:00001e38       ??_C@_06IHE@Go?5All?$AA@   00423e38     commandimpl.obj
 0003:00001e40       ??_C@_0DD@JHNO@Select?1Deselect?5all?5lines?5to?5be?5@ 00423e40     commandimpl.obj
 0003:00001e74       ??_C@_0N@IOCI@Deselect?5All?$AA@ 00423e74     commandimpl.obj
 0003:00001e84       ??_C@_0L@JNA@Select?5All?$AA@ 00423e84     commandimpl.obj
 0003:00001e90       ??_C@_0M@GPIK@2modified?$CI?$CJ?$AA@ 00423e90     commandLine.obj
 0003:00001e9c       ??_C@_0BM@ODDD@1slot_commandEditModified?$CI?$CJ?$AA@ 00423e9c     commandLine.obj
 0003:00001eb8       ??_C@_0BA@NJME@2previousEdit?$CI?$CJ?$AA@ 00423eb8     commandLine.obj
 0003:00001ec8       ??_C@_0P@MIDN@1prevCommand?$CI?$CJ?$AA@ 00423ec8     commandLine.obj
 0003:00001ed8       ??_C@_0M@DGMC@2nextEdit?$CI?$CJ?$AA@ 00423ed8     commandLine.obj
 0003:00001ee4       ??_C@_0P@MOGL@1nextCommand?$CI?$CJ?$AA@ 00423ee4     commandLine.obj
 0003:00001ef4       ??_C@_0P@GMPI@1sendCommand?$CI?$CJ?$AA@ 00423ef4     commandLine.obj
 0003:00001f04       ??_C@_02DNIN@Go?$AA@       00423f04     commandLine.obj
 0003:00001f08       ??_C@_0DE@EKBM@commandLine?3?3sendCommand?$CI?$CJ?5?9?5don@ 00423f08     commandLine.obj
 0003:00001f3c       ??_C@_02BLM@DM?$AA@        00423f3c     commandLine.obj
 0003:00001f40       ??_C@_02BMOK@RM?$AA@       00423f40     commandLine.obj
 0003:00001f44       ??_C@_02LGHN@RL?$AA@       00423f44     commandLine.obj
 0003:00001f48       ??_C@_02ELHO@RQ?$AA@       00423f48     commandLine.obj
 0003:00001f4c       ??_C@_02OBOJ@RP?$AA@       00423f4c     commandLine.obj
 0003:00001f50       ??_C@_02LHCA@RC?$AA@       00423f50     commandLine.obj
 0003:00001f54       ??_C@_02JANE@GL?$AA@       00423f54     commandLine.obj
 0003:00001f58       ??_C@_02GNNH@GQ?$AA@       00423f58     commandLine.obj
 0003:00001f5c       ??_C@_02MHEA@GP?$AA@       00423f5c     commandLine.obj
 0003:00001f60       ??_C@_02DIPJ@GS?$AA@       00423f60     commandLine.obj
 0003:00001f64       ??_C@_02FCHP@IL?$AA@       00423f64     commandLine.obj
 0003:00001f68       ??_C@_02KPHM@IQ?$AA@       00423f68     commandLine.obj
 0003:00001f6c       ??_C@_02FOL@IP?$AA@        00423f6c     commandLine.obj
 0003:00001f70       ??_C@_02FAAO@IW?$AA@       00423f70     commandLine.obj
 0003:00001f74       ??_C@_01PILM@$?$AA@        00423f74     commandLine.obj
 0003:00001f78       ??_C@_01FCCL@?$CF?$AA@     00423f78     commandLine.obj
 0003:00001f7c       ??_C@_02OPGK@0?$DL?$AA@    00423f7c     commandLine.obj
 0003:00001f80       ??_C@_02PJMA@1?$DL?$AA@    00423f80     commandLine.obj
 0003:00001f84       ??_C@_01FBAH@1?$AA@        00423f84     commandLine.obj
 0003:00001f88       ??_C@_02CKJF@?9?9?$AA@     00423f88     commandLine.obj
 0003:00001f8c       ??_C@_02KCBI@?$CL?$CL?$AA@ 00423f8c     commandLine.obj
 0003:00001f90       ??_C@_02IDOF@?9?$DN?$AA@   00423f90     commandLine.obj
 0003:00001f94       ??_C@_02PEBK@?$CL?$DN?$AA@ 00423f94     commandLine.obj
 0003:00001f98       ??_C@_0BH@PEP@Unknown?5operation?5?8?$CFc?8?$AA@ 00423f98     commandLine.obj
 0003:00001fb0       ??_C@_06INFM@?$FL?$CL?9?1?$CK?$FN?$AA@ 00423fb0     commandLine.obj
 0003:00001fb8       ??_C@_01KPOD@?$DN?$AA@     00423fb8     commandLine.obj
 0003:00001fbc       ??_C@_05NDCA@?$FL?$CL?9?$DN?$FN?$AA@ 00423fbc     commandLine.obj
 0003:00001fc4       ??_C@_08IFOC@?5set?5to?5?$AA@ 00423fc4     commandLine.obj
 0003:00001fd0       ??_C@_0M@HHOI@QMainWindow?$AA@ 00423fd0     commandLine.obj
 0003:00001fdc       ??_C@_01HAF@?8?$AA@        00423fdc     commandLine.obj
 0003:00001fe0       ??_C@_09CPIA@?5set?5to?5?8?$AA@ 00423fe0     commandLine.obj
 0003:00001fec       ??_C@_01PIHH@?$CB?$AA@     00423fec     commandLine.obj
 0003:00001ff0       ??_C@_0DI@OGJL@If?5checked?5the?5?8Go?5All?8?5button?5w@ 00423ff0     commandLine.obj
 0003:00002028       ??_C@_0CP@HKLJ@Either?5sends?5the?5command?0?5or?5set@ 00424028     commandLine.obj
 0003:00002058       ??_C@_0GHL@OBAL@?$DMb?$DOCommand?5Entry?$DM?1b?$DO?$DMbr?$DOEnter?5th@ 00424058     commandLine.obj
 0003:000026d4       ??_C@_0CP@DOAO@Your?5CC_SYSTEM?5environment?5varia@ 004246d4     main.obj
 0003:00002704       ??_C@_0BB@JAF@bCommand?5Warning?$AA@ 00424704     main.obj
 0003:00002718       ??_C@_0CN@FACF@Your?5CC_ROOT?5environment?5variabl@ 00424718     main.obj
 0003:00002748       ??_C@_0L@EDJB@modified?$CI?$CJ?$AA@ 00424748     moc_commandEdit.obj
 0003:00002754       ??_C@_0P@CCIL@previousEdit?$CI?$CJ?$AA@ 00424754     moc_commandEdit.obj
 0003:00002764       ??_C@_0L@BKNJ@nextEdit?$CI?$CJ?$AA@ 00424764     moc_commandEdit.obj
 0003:00002770       ??_C@_08IBAO@modified?$AA@ 00424770     moc_commandEdit.obj
 0003:0000277c       ??_C@_0N@HIHN@previousEdit?$AA@ 0042477c     moc_commandEdit.obj
 0003:0000278c       ??_C@_08PLHE@nextEdit?$AA@ 0042478c     moc_commandEdit.obj
 0003:00002798       ??_C@_0CF@HIPP@slot_thisTextChanged?$CIconst?5QStri@ 00424798     moc_commandEdit.obj
 0003:000027c0       ??_C@_0BF@CFFF@slot_thisTextChanged?$AA@ 004247c0     moc_commandEdit.obj
 0003:000027d8       ??_C@_0M@KKPP@commandEdit?$AA@ 004247d8     moc_commandEdit.obj
 0003:000027e4       ??_C@_0BM@IDME@1slot_autoRegisterRev?$CIbool?$CJ?$AA@ 004247e4     revertiveImpl.obj
 0003:00002800       ??_C@_0BE@MCHD@1pauseDisplay?$CIbool?$CJ?$AA@ 00424800     revertiveImpl.obj
 0003:00002814       ??_C@_0BD@KAMO@1setLogLength?$CIint?$CJ?$AA@ 00424814     revertiveImpl.obj
 0003:00002828       ??_C@_08JENB@1clear?$CI?$CJ?$AA@ 00424828     revertiveImpl.obj
 0003:00002834       ??_C@_0BD@POCC@1addRegistration?$CI?$CJ?$AA@ 00424834     revertiveImpl.obj
 0003:00002848       ??_C@_08POMI@?$CFd?0?$CFd?0?$CFd?$AA@ 00424848     revertiveImpl.obj
 0003:00002854       ??_C@_01POCP@?7?$AA@       00424854     revertiveImpl.obj
 0003:00002858       ??_C@_0N@NEPC@hh?3mm?3ss?4zzz?$AA@ 00424858     revertiveImpl.obj
 0003:00002868       ??_C@_0O@OIFO@IR?5?$CF1?5?8?$CF2?8?5?$CF3?$AA@ 00424868     revertiveImpl.obj
 0003:00002878       ??_C@_0M@GGO@RR?5?$CF1?5?$CF2?5?$CF3?$AA@ 00424878     revertiveImpl.obj
 0003:00002884       ??_C@_0M@OOCC@GR?5?$CF1?5?$CF2?5?$CF3?$AA@ 00424884     revertiveImpl.obj
 0003:00002890       ??_C@_0M@KCFE@DC?5?$CF1?5?$CF2?5?$CF3?$AA@ 00424890     revertiveImpl.obj
 0003:0000289c       ??_C@_09MGOG@maxLines?$DN?$AA@ 0042489c     revertiveImpl.obj
 0003:000028a8       ??_C@_08FJN@maxLines?$AA@  004248a8     revertiveImpl.obj
 0003:000028b4       ??_C@_0O@MCJA@aboutToQuit?$CI?$CJ?$AA@ 004248b4     moc_bcommandmainwindow.obj
 0003:000028c4       ??_C@_0BH@JAHJ@slot_scriptDirty?$CIbool?$CJ?$AA@ 004248c4     moc_bcommandmainwindow.obj
 0003:000028dc       ??_C@_0CA@FACC@loadRecentFile?$CIconst?5QVariant?$CG?$CJ?$AA@ 004248dc     moc_bcommandmainwindow.obj
 0003:000028fc       ??_C@_0BC@IGAB@toggleTimer?$CIbool?$CJ?$AA@ 004248fc     moc_bcommandmainwindow.obj
 0003:00002910       ??_C@_0BJ@CFBD@timerEvent?$CIQTimerEvent?$CK?$CJ?$AA@ 00424910     moc_bcommandmainwindow.obj
 0003:0000292c       ??_C@_0BH@CANG@timerValueChanged?$CIint?$CJ?$AA@ 0042492c     moc_bcommandmainwindow.obj
 0003:00002944       ??_C@_0P@LMCI@copySettings?$CI?$CJ?$AA@ 00424944     moc_bcommandmainwindow.obj
 0003:00002954       ??_C@_06PAME@save?$CI?$CJ?$AA@ 00424954     moc_bcommandmainwindow.obj
 0003:0000295c       ??_C@_08HGBF@saveAs?$CI?$CJ?$AA@ 0042495c     moc_bcommandmainwindow.obj
 0003:00002968       ??_C@_06KPGO@open?$CI?$CJ?$AA@ 00424968     moc_bcommandmainwindow.obj
 0003:00002970       ??_C@_0P@LCJM@clearCurrent?$CI?$CJ?$AA@ 00424970     moc_bcommandmainwindow.obj
 0003:00002980       ??_C@_07LLFA@about?$CI?$CJ?$AA@ 00424980     moc_bcommandmainwindow.obj
 0003:00002988       ??_C@_0P@CHKA@showFileMenu?$CI?$CJ?$AA@ 00424988     moc_bcommandmainwindow.obj
 0003:00002998       ??_C@_0M@LBLK@aboutToQuit?$AA@ 00424998     moc_bcommandmainwindow.obj
 0003:000029a4       ??_C@_0BB@FNJF@slot_scriptDirty?$AA@ 004249a4     moc_bcommandmainwindow.obj
 0003:000029b8       ??_C@_0P@HINE@loadRecentFile?$AA@ 004249b8     moc_bcommandmainwindow.obj
 0003:000029c8       ??_C@_0M@OCJB@toggleTimer?$AA@ 004249c8     moc_bcommandmainwindow.obj
 0003:00002a08       ??_C@_06PPL@bState?$AA@    00424a08     moc_bcommandmainwindow.obj
 0003:00002a10       ??_C@_0L@GALL@timerEvent?$AA@ 00424a10     moc_bcommandmainwindow.obj
 0003:00002a1c       ??_C@_01PHOL@e?$AA@        00424a1c     moc_bcommandmainwindow.obj
 0003:00002a20       ??_C@_0BC@HIHO@timerValueChanged?$AA@ 00424a20     moc_bcommandmainwindow.obj
 0003:00002a34       ??_C@_06EFMC@iValue?$AA@   00424a34     moc_bcommandmainwindow.obj
 0003:00002a3c       ??_C@_0N@IBAM@copySettings?$AA@ 00424a3c     moc_bcommandmainwindow.obj
 0003:00002a4c       ??_C@_06CBOL@saveAs?$AA@   00424a4c     moc_bcommandmainwindow.obj
 0003:00002a54       ??_C@_0N@GJCI@clearCurrent?$AA@ 00424a54     moc_bcommandmainwindow.obj
 0003:00002a64       ??_C@_05FNEB@about?$AA@    00424a64     moc_bcommandmainwindow.obj
 0003:00002a6c       ??_C@_0N@MHO@showFileMenu?$AA@ 00424a6c     moc_bcommandmainwindow.obj
 0003:00002a7c       ??_C@_0BD@GOCJ@bCommandMainWindow?$AA@ 00424a7c     moc_bcommandmainwindow.obj
 0003:00002a90       ??_C@_0M@HJHB@QTimerEvent?$AA@ 00424a90     moc_bcommandmainwindow.obj
 0003:00002a9c       ??_C@_0BC@EPMA@IccClientCallback?$AA@ 00424a9c     moc_bcommandmainwindow.obj
 0003:00002ab0       ??_C@_0DJ@MLBA@sig_commandRegisterFor?$CIconst?5int@ 00424ab0     moc_commandimpl.obj
 0003:00002aec       ??_C@_0BJ@PJOL@sig_commandChanged?$CIbool?$CJ?$AA@ 00424aec     moc_commandimpl.obj
 0003:00002b08       ??_C@_0BH@NLIL@sig_commandRegisterFor?$AA@ 00424b08     moc_commandimpl.obj
 0003:00002b20       ??_C@_0BD@NGHO@sig_commandChanged?$AA@ 00424b20     moc_commandimpl.obj
 0003:00002b88       ??_C@_06CCDK@bDirty?$AA@   00424b88     moc_commandimpl.obj
 0003:00002b90       ??_C@_0DK@MENM@slot_commandRegisterFor?$CIconst?5in@ 00424b90     moc_commandimpl.obj
 0003:00002bcc       ??_C@_0BC@CHLP@slot_hasChanged?$CI?$CJ?$AA@ 00424bcc     moc_commandimpl.obj
 0003:00002be0       ??_C@_07HJNN@allGo?$CI?$CJ?$AA@ 00424be0     moc_commandimpl.obj
 0003:00002be8       ??_C@_0BK@NPPK@loadSettings?$CIQStringList?$CJ?$AA@ 00424be8     moc_commandimpl.obj
 0003:00002c04       ??_C@_07FLME@clear?$CI?$CJ?$AA@ 00424c04     moc_commandimpl.obj
 0003:00002c0c       ??_C@_0BA@KOPP@setCheckBoxes?$CI?$CJ?$AA@ 00424c0c     moc_commandimpl.obj
 0003:00002c1c       ??_C@_0BI@KNKH@slot_commandRegisterFor?$AA@ 00424c1c     moc_commandimpl.obj
 0003:00002c34       ??_C@_04KOCA@iDev?$AA@     00424c34     moc_commandimpl.obj
 0003:00002c3c       ??_C@_0BA@OIK@slot_hasChanged?$AA@ 00424c3c     moc_commandimpl.obj
 0003:00002c4c       ??_C@_05MONJ@allGo?$AA@    00424c4c     moc_commandimpl.obj
 0003:00002c54       ??_C@_0N@GBIA@loadSettings?$AA@ 00424c54     moc_commandimpl.obj
 0003:00002c64       ??_C@_06EGOP@slCmds?$AA@   00424c64     moc_commandimpl.obj
 0003:00002c6c       ??_C@_05BDJO@clear?$AA@    00424c6c     moc_commandimpl.obj
 0003:00002c74       ??_C@_0O@PJGJ@setCheckBoxes?$AA@ 00424c74     moc_commandimpl.obj
 0003:00002c84       ??_C@_07KAGO@command?$AA@  00424c84     moc_commandimpl.obj
 0003:00002c8c       ??_C@_04JNOD@iMax?$AA@     00424c8c     moc_commandimpl.obj
 0003:00002c94       ??_C@_04HOLF@iMin?$AA@     00424c94     moc_commandimpl.obj
 0003:00002c9c       ??_C@_01KKFM@?$AE?$AA@     00424c9c     moc_commandimpl.obj
 0003:00002ca0       ??_C@_0DN@FFAG@sig_commandLineRegisterFor?$CIconst@ 00424ca0     moc_commandLine.obj
 0003:00002ce0       ??_C@_0BK@POMO@sig_commandLineModified?$CI?$CJ?$AA@ 00424ce0     moc_commandLine.obj
 0003:00002cfc       ??_C@_0BC@GKHC@previousEdit?$CIint?$CJ?$AA@ 00424cfc     moc_commandLine.obj
 0003:00002d10       ??_C@_0O@OEMM@nextEdit?$CIint?$CJ?$AA@ 00424d10     moc_commandLine.obj
 0003:00002d20       ??_C@_0BL@JHD@sig_commandLineRegisterFor?$AA@ 00424d20     moc_commandLine.obj
 0003:00002d3c       ??_C@_0BI@MEEM@sig_commandLineModified?$AA@ 00424d3c     moc_commandLine.obj
 0003:00002d54       ??_C@_0BL@JNPA@slot_commandEditModified?$CI?$CJ?$AA@ 00424d54     moc_commandLine.obj
 0003:00002d70       ??_C@_0O@GHFH@prevCommand?$CI?$CJ?$AA@ 00424d70     moc_commandLine.obj
 0003:00002d80       ??_C@_0O@GBAB@nextCommand?$CI?$CJ?$AA@ 00424d80     moc_commandLine.obj
 0003:00002d90       ??_C@_0N@PAON@setEdit?$CIint?$CJ?$AA@ 00424d90     moc_commandLine.obj
 0003:00002da0       ??_C@_0O@MDJC@sendCommand?$CI?$CJ?$AA@ 00424da0     moc_commandLine.obj
 0003:00002db0       ??_C@_0O@NEAD@saveSetting?$CI?$CJ?$AA@ 00424db0     moc_commandLine.obj
 0003:00002dc0       ??_C@_0BF@KLBD@loadSetting?$CIQString?$CJ?$AA@ 00424dc0     moc_commandLine.obj
 0003:00002dd8       ??_C@_08HLOE@autoGo?$CI?$CJ?$AA@ 00424dd8     moc_commandLine.obj
 0003:00002de4       ??_C@_0BJ@FMP@slot_commandEditModified?$AA@ 00424de4     moc_commandLine.obj
 0003:00002e00       ??_C@_0M@OPEK@prevCommand?$AA@ 00424e00     moc_commandLine.obj
 0003:00002e0c       ??_C@_0M@FCHF@nextCommand?$AA@ 00424e0c     moc_commandLine.obj
 0003:00002e18       ??_C@_07DOJE@setEdit?$AA@  00424e18     moc_commandLine.obj
 0003:00002e30       ??_C@_04FPNK@iPos?$AA@     00424e30     moc_commandLine.obj
 0003:00002e38       ??_C@_0M@MFJM@sendCommand?$AA@ 00424e38     moc_commandLine.obj
 0003:00002e44       ??_C@_0M@HNNG@saveSetting?$AA@ 00424e44     moc_commandLine.obj
 0003:00002e50       ??_C@_0M@GJDA@loadSetting?$AA@ 00424e50     moc_commandLine.obj
 0003:00002e5c       ??_C@_06IMDO@autoGo?$AA@   00424e5c     moc_commandLine.obj
 0003:00002e64       ??_C@_0M@ENHG@commandLine?$AA@ 00424e64     moc_commandLine.obj
 0003:00002e70       ??_C@_08NPJJ@sSetting?$AA@ 00424e70     moc_commandLine.obj
 0003:00002e7c       ??_C@_0BB@MOGM@languageChange?$CI?$CJ?$AA@ 00424e7c     moc_revertiveDisplay.obj
 0003:00002e90       ??_C@_0P@COD@languageChange?$AA@ 00424e90     moc_revertiveDisplay.obj
 0003:00002ea0       ??_C@_0BB@CNGE@revertiveDisplay?$AA@ 00424ea0     moc_revertiveDisplay.obj
 0003:00002eb4       ??_C@_0BL@PNAH@slot_autoRegisterRev?$CIbool?$CJ?$AA@ 00424eb4     moc_revertiveImpl.obj
 0003:00002ed0       ??_C@_0DH@GFMH@slot_addRegistration?$CIconst?5int?$CG?0@ 00424ed0     moc_revertiveImpl.obj
 0003:00002f08       ??_C@_0DC@NODI@addRegistration?$CIconst?5int?$CG?0const@ 00424f08     moc_revertiveImpl.obj
 0003:00002f3c       ??_C@_0BC@KBA@addRegistration?$CI?$CJ?$AA@ 00424f3c     moc_revertiveImpl.obj
 0003:00002f50       ??_C@_0CG@DGAL@logRevertiveToDisplay?$CIconst?5QStr@ 00424f50     moc_revertiveImpl.obj
 0003:00002f78       ??_C@_0BC@FEPM@setLogLength?$CIint?$CJ?$AA@ 00424f78     moc_revertiveImpl.obj
 0003:00002f8c       ??_C@_0BD@BPIH@pauseDisplay?$CIbool?$CJ?$AA@ 00424f8c     moc_revertiveImpl.obj
 0003:00002fa0       ??_C@_0BF@LGHL@slot_autoRegisterRev?$AA@ 00424fa0     moc_revertiveImpl.obj
 0003:00003058       ??_C@_03EBBM@bOn?$AA@      00425058     moc_revertiveImpl.obj
 0003:0000305c       ??_C@_0BF@OHLI@slot_addRegistration?$AA@ 0042505c     moc_revertiveImpl.obj
 0003:00003074       ??_C@_0BA@EPMP@addRegistration?$AA@ 00425074     moc_revertiveImpl.obj
 0003:00003084       ??_C@_0BG@HANI@logRevertiveToDisplay?$AA@ 00425084     moc_revertiveImpl.obj
 0003:0000309c       ??_C@_03MBOC@msg?$AA@      0042509c     moc_revertiveImpl.obj
 0003:000030a0       ??_C@_06OBNF@slRevs?$AA@   004250a0     moc_revertiveImpl.obj
 0003:000030a8       ??_C@_0N@HGLA@setLogLength?$AA@ 004250a8     moc_revertiveImpl.obj
 0003:000030b8       ??_C@_0N@PDFM@pauseDisplay?$AA@ 004250b8     moc_revertiveImpl.obj
 0003:000030c8       ??_C@_08EKPF@bChecked?$AA@ 004250c8     moc_revertiveImpl.obj
 0003:000030d4       ??_C@_0O@GELC@revertiveImpl?$AA@ 004250d4     moc_revertiveImpl.obj
 0003:000030e4       ??_C@_04IOMD@iEnd?$AA@     004250e4     moc_revertiveImpl.obj
 0003:000030ec       ??_C@_06GIAC@iStart?$AA@   004250ec     moc_revertiveImpl.obj
 0003:000030f4       ??_C@_0N@MNFJ@autoRegister?$AA@ 004250f4     revertiveDisplay.obj
 0003:00003104       ??_C@_0L@DNA@pauseCheck?$AA@ 00425104     revertiveDisplay.obj
 0003:00003110       ??_C@_0M@BKGF@clearButton?$AA@ 00425110     revertiveDisplay.obj
 0003:0000311c       ??_C@_0N@GJEL@logCountSpin?$AA@ 0042511c     revertiveDisplay.obj
 0003:0000312c       ??_C@_0N@LMFP@textLabel1_4?$AA@ 0042512c     revertiveDisplay.obj
 0003:0000313c       ??_C@_07MHED@layout3?$AA@  0042513c     revertiveDisplay.obj
 0003:00003144       ??_C@_0BA@LIAG@lineEditComment?$AA@ 00425144     revertiveDisplay.obj
 0003:00003154       ??_C@_09OKP@groupBox1?$AA@ 00425154     revertiveDisplay.obj
 0003:00003160       ??_C@_07IFKI@regList?$AA@  00425160     revertiveDisplay.obj
 0003:00003168       ??_C@_08PJCI@addCheck?$AA@ 00425168     revertiveDisplay.obj
 0003:00003174       ??_C@_0P@IPLF@registerButton?$AA@ 00425174     revertiveDisplay.obj
 0003:00003184       ??_C@_07NIDK@maxSpin?$AA@  00425184     revertiveDisplay.obj
 0003:0000318c       ??_C@_0N@OJLK@textLabel1_3?$AA@ 0042518c     revertiveDisplay.obj
 0003:0000319c       ??_C@_07LHLB@minSpin?$AA@  0042519c     revertiveDisplay.obj
 0003:000031a4       ??_C@_0N@EDCN@textLabel1_2?$AA@ 004251a4     revertiveDisplay.obj
 0003:000031b4       ??_C@_0L@HBCO@deviceSpin?$AA@ 004251b4     revertiveDisplay.obj
 0003:000031c0       ??_C@_0L@KEKH@textLabel1?$AA@ 004251c0     revertiveDisplay.obj
 0003:000031cc       ??_C@_07MHII@layout6?$AA@  004251cc     revertiveDisplay.obj
 0003:000031d4       ??_C@_07NJDF@results?$AA@  004251d4     revertiveDisplay.obj
 0003:000031dc       ??_C@_0N@MFKG@frame6Layout?$AA@ 004251dc     revertiveDisplay.obj
 0003:000031ec       ??_C@_06EPCK@frame6?$AA@   004251ec     revertiveDisplay.obj
 0003:000031f4       ??_C@_0BH@CLKJ@revertiveDisplayLayout?$AA@ 004251f4     revertiveDisplay.obj
 0003:0000320c       ??_C@_0O@JJAB@Auto?5Register?$AA@ 0042520c     revertiveDisplay.obj
 0003:0000321c       ??_C@_0O@OFPH@Pause?5Display?$AA@ 0042521c     revertiveDisplay.obj
 0003:0000322c       ??_C@_09KAAN@Clear?5Log?$AA@ 0042522c     revertiveDisplay.obj
 0003:00003238       ??_C@_0O@PMMJ@Max?5Log?5Lines?$AA@ 00425238     revertiveDisplay.obj
 0003:00003248       ??_C@_0BE@NKPB@Add?5to?5Registration?$AA@ 00425248     revertiveDisplay.obj
 0003:0000325c       ??_C@_08DAEE@Register?$AA@ 0042525c     revertiveDisplay.obj
 0003:00003268       ??_C@_08HKJA@Max?5Slot?$AA@ 00425268     revertiveDisplay.obj
 0003:00003274       ??_C@_08CJPP@Min?5Slot?$AA@ 00425274     revertiveDisplay.obj
 0003:00003280       ??_C@_06NBPC@Device?$AA@   00425280     revertiveDisplay.obj
 0003:00003288       ??_C@_05HCPO@Form1?$AA@    00425288     revertiveDisplay.obj
 0003:00003290       ??_C@_0CA@NIKF@?2StringFileInfo?2?$CFs?2SpecialBuild?$AA@ 00425290     BncsVersionInfo:cBncsVersion.obj
 0003:000032b0       ??_C@_0CE@CKA@?2StringFileInfo?2?$CFs?2OriginalFileN@ 004252b0     BncsVersionInfo:cBncsVersion.obj
 0003:000032d4       ??_C@_0CA@BBDI@?2StringFileInfo?2?$CFs?2PrivateBuild?$AA@ 004252d4     BncsVersionInfo:cBncsVersion.obj
 0003:000032f4       ??_C@_0CD@GCNL@?2StringFileInfo?2?$CFs?2LegalTradeMar@ 004252f4     BncsVersionInfo:cBncsVersion.obj
 0003:00003318       ??_C@_0CC@KILK@?2StringFileInfo?2?$CFs?2ProductVersio@ 00425318     BncsVersionInfo:cBncsVersion.obj
 0003:0000333c       ??_C@_0CC@OKGI@?2StringFileInfo?2?$CFs?2LegalCopyrigh@ 0042533c     BncsVersionInfo:cBncsVersion.obj
 0003:00003360       ??_C@_0BP@HFNO@?2StringFileInfo?2?$CFs?2CompanyName?$AA@ 00425360     BncsVersionInfo:cBncsVersion.obj
 0003:00003380       ??_C@_0BP@OKDL@?2StringFileInfo?2?$CFs?2ProductName?$AA@ 00425380     BncsVersionInfo:cBncsVersion.obj
 0003:000033a0       ??_C@_0CA@FECA@?2StringFileInfo?2?$CFs?2InternalName?$AA@ 004253a0     BncsVersionInfo:cBncsVersion.obj
 0003:000033c0       ??_C@_0BM@IIGK@?2StringFileInfo?2?$CFs?2Comments?$AA@ 004253c0     BncsVersionInfo:cBncsVersion.obj
 0003:000033dc       ??_C@_0CD@LFKN@?2StringFileInfo?2?$CFs?2FileDescripti@ 004253dc     BncsVersionInfo:cBncsVersion.obj
 0003:00003400       ??_C@_01KMAE@?0?$AA@       00425400     BncsVersionInfo:cBncsVersion.obj
 0003:00003404       ??_C@_0BP@EOHM@?2StringFileInfo?2?$CFs?2FileVersion?$AA@ 00425404     BncsVersionInfo:cBncsVersion.obj
 0003:00003424       ??_C@_08CALL@?$CF04X?$CF04X?$AA@ 00425424     BncsVersionInfo:cBncsVersion.obj
 0003:00003430       ??_C@_0BJ@KCFH@?2VarFileInfo?2Translation?$AA@ 00425430     BncsVersionInfo:cBncsVersion.obj
 0003:00003450       ___defaultmatherr          00425450     MSVCRT:merr.obj
 0003:00003458       ??_C@_00A@?$AA@            00425458     bcommandmainwindow.obj
 0003:0000345c       ?stringMap@@3V?$QMap@VQString@@V1@@@A 0042545c     commandLine.obj
 0003:00003460       ?mathsMap@@3V?$QMap@VQString@@H@@A 00425460     commandLine.obj
 0003:00003470       ?metaObj@commandEdit@@0PAVQMetaObject@@A 00425470     moc_commandEdit.obj
 0003:00003490       ?metaObj@bCommandMainWindow@@0PAVQMetaObject@@A 00425490     moc_bcommandmainwindow.obj
 0003:000034c0       ?metaObj@command@@0PAVQMetaObject@@A 004254c0     moc_commandimpl.obj
 0003:00003510       ?metaObj@commandLine@@0PAVQMetaObject@@A 00425510     moc_commandLine.obj
 0003:0000359c       ?metaObj@revertiveDisplay@@0PAVQMetaObject@@A 0042559c     moc_revertiveDisplay.obj
 0003:000035a8       ?metaObj@revertiveImpl@@0PAVQMetaObject@@A 004255a8     moc_revertiveImpl.obj
 0003:000035d0       __dowildcard               004255d0     MSVCRT:wildcard.obj
 0003:000035d4       __newmode                  004255d4     MSVCRT:_newmode.obj
 0003:000035d8       __commode                  004255d8     MSVCRT:xncommod.obj
 0003:000035dc       __fmode                    004255dc     MSVCRT:xtxtmode.obj
 0003:000035e0       __adjust_fdiv              004255e0     <common>
 0003:000035e4       ___onexitend               004255e4     <common>
 0003:000035e8       ___onexitbegin             004255e8     <common>

 entry point at        0001:0000ddc4

 Static symbols

 0001:0000af40       _$E121                     0040bf40 f   moc_revertiveImpl.obj
 0001:0000af50       _$E118                     0040bf50 f   moc_revertiveImpl.obj
 0001:0000af70       _$E120                     0040bf70 f   moc_revertiveImpl.obj
 0001:0000af80       _$E119                     0040bf80 f   moc_revertiveImpl.obj
 0001:0000ad70       _$E99                      0040bd70 f   moc_revertiveDisplay.obj
 0001:0000ad80       _$E96                      0040bd80 f   moc_revertiveDisplay.obj
 0001:0000ada0       _$E98                      0040bda0 f   moc_revertiveDisplay.obj
 0001:0000adb0       _$E97                      0040bdb0 f   moc_revertiveDisplay.obj
 0001:0000a700       _$E99                      0040b700 f   moc_commandLine.obj
 0001:0000a710       _$E96                      0040b710 f   moc_commandLine.obj
 0001:0000a730       _$E98                      0040b730 f   moc_commandLine.obj
 0001:0000a740       _$E97                      0040b740 f   moc_commandLine.obj
 0001:0000a130       _$E99                      0040b130 f   moc_commandimpl.obj
 0001:0000a140       _$E96                      0040b140 f   moc_commandimpl.obj
 0001:0000a160       _$E98                      0040b160 f   moc_commandimpl.obj
 0001:0000a170       _$E97                      0040b170 f   moc_commandimpl.obj
 0001:00009d30       _$E124                     0040ad30 f   moc_bcommandmainwindow.obj
 0001:00009d40       _$E121                     0040ad40 f   moc_bcommandmainwindow.obj
 0001:00009d60       _$E123                     0040ad60 f   moc_bcommandmainwindow.obj
 0001:00009d70       _$E122                     0040ad70 f   moc_bcommandmainwindow.obj
 0001:00008900       _$E101                     00409900 f   moc_commandEdit.obj
 0001:00008910       _$E98                      00409910 f   moc_commandEdit.obj
 0001:00008930       _$E100                     00409930 f   moc_commandEdit.obj
 0001:00008940       _$E99                      00409940 f   moc_commandEdit.obj
 0001:000049f0       _$E106                     004059f0 f   commandLine.obj
 0001:00004a00       _$E103                     00405a00 f   commandLine.obj
 0001:00004a10       _$E105                     00405a10 f   commandLine.obj
 0001:00004a20       _$E104                     00405a20 f   commandLine.obj
 0001:00004ac0       _$E111                     00405ac0 f   commandLine.obj
 0001:00004ad0       _$E108                     00405ad0 f   commandLine.obj
 0001:00004ae0       _$E110                     00405ae0 f   commandLine.obj
 0001:00004af0       _$E109                     00405af0 f   commandLine.obj
 0001:0000dd2c       ?ArrayUnwindFilter@@YAHPAU_EXCEPTION_POINTERS@@@Z 0040ed2c f   MSVCRT:ehvecdtr.obj

 288 bytes saved through ICF

