 bncs_v45_hostdb

 Timestamp is 5e9dbbc2 (Mon Apr 20 16:12:02 2020)

 Preferred load address is 00400000

 Start         Length     Name                   Class
 0001:00000000 00011a9bH .textbss                DATA
 0002:00000000 00002b06H .text                   CODE
 0002:00002b10 00001ce5H .text$di                CODE
 0002:00004800 0002134dH .text$mn                CODE
 0002:00025b50 00003551H .text$x                 CODE
 0002:000290b0 000014ecH .text$yd                CODE
 0003:00000000 00000104H .CRT$XCA                DATA
 0003:00000104 00000104H .CRT$XCAA               DATA
 0003:00000208 0000016fH .CRT$XCU                DATA
 0003:00000378 00000104H .CRT$XCZ                DATA
 0003:0000047c 00000104H .CRT$XIA                DATA
 0003:00000580 00000104H .CRT$XIAA               DATA
 0003:00000684 00000104H .CRT$XIC                DATA
 0003:00000788 00000104H .CRT$XIY                DATA
 0003:0000088c 00000104H .CRT$XIZ                DATA
 0003:00000990 00004747H .rdata                  DATA
 0003:000050d8 00000173H .rdata$debug            DATA
 0003:0000524c 000008c9H .rdata$r                DATA
 0003:00005b18 00000104H .rtc$IAA                DATA
 0003:00005c1c 00000130H .rtc$IMZ                DATA
 0003:00005d4c 00000104H .rtc$IZZ                DATA
 0003:00005e50 00000104H .rtc$TAA                DATA
 0003:00005f54 00000130H .rtc$TMZ                DATA
 0003:00006084 00000104H .rtc$TZZ                DATA
 0003:00006188 00001f68H .xdata$x                DATA
 0003:000080f0 00001c87H .edata                  DATA
 0004:00000000 000004ebH .data                   DATA
 0004:000004ec 00000412H .data$r                 DATA
 0004:00000900 0000050cH .bss                    DATA
 0005:00000000 000008fcH .idata$5                DATA
 0005:000008fc 0000008cH .idata$2                DATA
 0005:00000988 00000014H .idata$3                DATA
 0005:0000099c 000008fcH .idata$4                DATA
 0005:00001298 00003b18H .idata$6                DATA
 0006:00000000 000002e0H .rsrc$01                DATA
 0006:000002e0 00004e36H .rsrc$02                DATA

  Address         Publics by Value              Rva+Base       Lib:Object

 0000:00000000       ___guard_flags             00000000     <absolute>
 0000:00000000       ___guard_fids_count        00000000     <absolute>
 0000:00000000       __except_list              00000000     <absolute>
 0000:00000000       ___safe_se_handler_count   00000000     <absolute>
 0000:00000000       ___safe_se_handler_table   00000000     <absolute>
 0000:00000000       ___guard_fids_table        00000000     <absolute>
 0000:00009876       __fltused                  00009876     <absolute>
 0000:00009876       __ldused                   00009876     <absolute>
 0000:00000000       ___ImageBase               00400000     <linker-defined>
 0001:00000000       __enc$textbss$begin        00401000     <linker-defined>
 0001:00011a9b       __enc$textbss$end          00412a9b     <linker-defined>
 0002:000027a1       _WinMain@16                004157a1 f   qtmain:qtmain_win.obj
 0002:00002851       ?detach@?$QMemArray@PAD@@UAEXXZ 00415851 f i qtmain:qtmain_win.obj
 0002:0000285b       ??_G?$QMemArray@H@@UAEPAXI@Z 0041585b f i qtmain:qtmain_win.obj
 0002:00002888       ??_G?$QMemArray@_N@@UAEPAXI@Z 00415888 f i qtmain:qtmain_win.obj
 0002:000028b5       ??_G?$QMemArray@D@@UAEPAXI@Z 004158b5 f i qtmain:qtmain_win.obj
 0002:000028e2       ??_G?$QMemArray@VQPoint@@@@UAEPAXI@Z 004158e2 f i qtmain:qtmain_win.obj
 0002:0000290f       ??_G?$QPtrList@D@@UAEPAXI@Z 0041590f f i qtmain:qtmain_win.obj
 0002:00002946       ??_G?$QPtrList@VQObject@@@@UAEPAXI@Z 00415946 f i qtmain:qtmain_win.obj
 0002:0000297d       ??_G?$QPtrList@VQWidget@@@@UAEPAXI@Z 0041597d f i qtmain:qtmain_win.obj
 0002:000029b4       ??_E?$QMemArray@PAD@@UAEPAXI@Z 004159b4 f i qtmain:qtmain_win.obj
 0002:000029b4       ??_G?$QMemArray@PAD@@UAEPAXI@Z 004159b4 f i qtmain:qtmain_win.obj
 0002:00004800       ??0bncs_clientMainWindowImpl@@QAE@PAVQWidget@@PBDI@Z 00417800 f   bncs_clientmainwindowimpl.obj
 0002:00004950       ?mySetForegroundWindow@bncs_clientMainWindowImpl@@AAEXPAUHWND__@@@Z 00417950 f   bncs_clientmainwindowimpl.obj
 0002:00004ac0       ?notifyIn@bncs_clientMainWindowImpl@@QAEXAAVQString@@@Z 00417ac0 f   bncs_clientmainwindowimpl.obj
 0002:00005680       ?singletonMessageReceived@bncs_clientMainWindowImpl@@QAEXABVQString@@@Z 00418680 f   bncs_clientmainwindowimpl.obj
 0002:000057b0       ?timerEvent@bncs_clientMainWindowImpl@@UAEXPAVQTimerEvent@@@Z 004187b0 f   bncs_clientmainwindowimpl.obj
 0002:00006d00       ?cccDisconnected@bncs_clientMainWindowImpl@@MAEXXZ 00419d00 f   bncs_clientmainwindowimpl.obj
 0002:000076b0       ??$_Allocate@D@std@@YAPADIPAD@Z 0041a6b0 f i bncs_clientmainwindowimpl.obj
 0002:00007740       ??$_Allocate@U_Container_proxy@std@@@std@@YAPAU_Container_proxy@0@IPAU10@@Z 0041a740 f i bncs_clientmainwindowimpl.obj
 0002:000077e0       ??$_Debug_pointer@D@std@@YAXPBDPB_WI@Z 0041a7e0 f i bncs_clientmainwindowimpl.obj
 0002:00007850       ??$addressof@D@std@@YAPADAAD@Z 0041a850 f i bncs_clientmainwindowimpl.obj
 0002:00007890       ??$construct@PADAAPAD@?$_Wrap_alloc@V?$allocator@D@std@@@std@@QAEXPAPADAAPAD@Z 0041a890 f i bncs_clientmainwindowimpl.obj
 0002:00007900       ??$construct@PADAAPAD@?$allocator@D@std@@QAEXPAPADAAPAD@Z 0041a900 f i bncs_clientmainwindowimpl.obj
 0002:00007a00       ??$construct@PADAAPAD@?$allocator_traits@V?$allocator@D@std@@@std@@SAXAAV?$allocator@D@1@PAPADAAPAD@Z 0041aa00 f i bncs_clientmainwindowimpl.obj
 0002:00007a60       ??$construct@U_Container_proxy@std@@U12@@?$allocator@U_Container_proxy@std@@@std@@QAEXPAU_Container_proxy@1@$$QAU21@@Z 0041aa60 f i bncs_clientmainwindowimpl.obj
 0002:00007b70       ??$destroy@PAD@?$_Wrap_alloc@V?$allocator@D@std@@@std@@QAEXPAPAD@Z 0041ab70 f i bncs_clientmainwindowimpl.obj
 0002:00007bd0       ??$destroy@PAD@?$allocator@D@std@@QAEXPAPAD@Z 0041abd0 f i bncs_clientmainwindowimpl.obj
 0002:00007c10       ??$destroy@PAD@?$allocator_traits@V?$allocator@D@std@@@std@@SAXAAV?$allocator@D@1@PAPAD@Z 0041ac10 f i bncs_clientmainwindowimpl.obj
 0002:00007c60       ??$destroy@U_Container_proxy@std@@@?$allocator@U_Container_proxy@std@@@std@@QAEXPAU_Container_proxy@1@@Z 0041ac60 f i bncs_clientmainwindowimpl.obj
 0002:00007ca0       ??$forward@AAPAD@std@@YAAAPADAAPAD@Z 0041aca0 f i bncs_clientmainwindowimpl.obj
 0002:00007ce0       ??$forward@U_Container_proxy@std@@@std@@YA$$QAU_Container_proxy@0@AAU10@@Z 0041ace0 f i bncs_clientmainwindowimpl.obj
 0002:00007d20       ??0?$QPtrList@VsignalConnection@@@@QAE@ABV0@@Z 0041ad20 f i bncs_clientmainwindowimpl.obj
 0002:00007da0       ??0?$QPtrList@VsignalConnection@@@@QAE@XZ 0041ada0 f i bncs_clientmainwindowimpl.obj
 0002:00007e10       ??0?$QPtrListIterator@VsignalConnection@@@@QAE@ABV0@@Z 0041ae10 f i bncs_clientmainwindowimpl.obj
 0002:00007e80       ??0?$QPtrListIterator@VsignalConnection@@@@QAE@ABV?$QPtrList@VsignalConnection@@@@@Z 0041ae80 f i bncs_clientmainwindowimpl.obj
 0002:00007ef0       ??0?$QPtrListStdIterator@VsignalConnection@@@@QAE@PAVQLNode@@@Z 0041aef0 f i bncs_clientmainwindowimpl.obj
 0002:00007f60       ??0?$_String_alloc@$0A@U?$_String_base_types@DV?$allocator@D@std@@@std@@@std@@QAE@ABV?$allocator@D@1@@Z 0041af60 f i bncs_clientmainwindowimpl.obj
 0002:00008010       ??0?$_String_val@U?$_Simple_types@D@std@@@std@@QAE@XZ 0041b010 f i bncs_clientmainwindowimpl.obj
 0002:00008090       ??0?$_Wrap_alloc@V?$allocator@D@std@@@std@@QAE@XZ 0041b090 f i bncs_clientmainwindowimpl.obj
 0002:000080f0       ??0?$allocator@D@std@@QAE@XZ 0041b0f0 f i bncs_clientmainwindowimpl.obj
 0002:00008130       ??0?$allocator@U_Container_proxy@std@@@std@@QAE@XZ 0041b130 f i bncs_clientmainwindowimpl.obj
 0002:00008170       ??0?$basic_string@DU?$char_traits@D@std@@V?$allocator@D@2@@std@@QAE@PBD@Z 0041b170 f i bncs_clientmainwindowimpl.obj
 0002:00008240       ??0IccClientCallback@@QAE@XZ 0041b240 f i bncs_clientmainwindowimpl.obj
 0002:00008290       ??0_Container_proxy@std@@QAE@XZ 0041b290 f i bncs_clientmainwindowimpl.obj
 0002:000082e0       ??0_Generic_error_category@std@@QAE@XZ 0041b2e0 f i bncs_clientmainwindowimpl.obj
 0002:00008340       ??0_Ignore@std@@QAE@XZ     0041b340 f i bncs_clientmainwindowimpl.obj
 0002:00008380       ??0_Iostream_error_category@std@@QAE@XZ 0041b380 f i bncs_clientmainwindowimpl.obj
 0002:000083e0       ??0_System_error_category@std@@QAE@XZ 0041b3e0 f i bncs_clientmainwindowimpl.obj
 0002:00008440       ??0error_category@std@@QAE@XZ 0041b440 f i bncs_clientmainwindowimpl.obj
 0002:00008490       ??0error_condition@std@@QAE@HABVerror_category@1@@Z 0041b490 f i bncs_clientmainwindowimpl.obj
 0002:000084e0       ??0signalConnection@@QAE@ABV0@@Z 0041b4e0 f i bncs_clientmainwindowimpl.obj
 0002:00008630       ??0signalConnection@@QAE@ABVQString@@0000@Z 0041b630 f i bncs_clientmainwindowimpl.obj
 0002:000087f0       ??0signalConnectionRefList@@QAE@ABV0@@Z 0041b7f0 f i bncs_clientmainwindowimpl.obj
 0002:00008860       ??0signalConnectionRefList@@QAE@XZ 0041b860 f i bncs_clientmainwindowimpl.obj
 0002:000088c0       ??0signalConnectionRefListIt@@QAE@ABV0@@Z 0041b8c0 f i bncs_clientmainwindowimpl.obj
 0002:00008920       ??0signalConnectionRefListIt@@QAE@ABVsignalConnectionRefList@@@Z 0041b920 f i bncs_clientmainwindowimpl.obj
 0002:00008980       ??1?$QPtrList@VsignalConnection@@@@UAE@XZ 0041b980 f i bncs_clientmainwindowimpl.obj
 0002:00008a40       ??1?$QPtrListIterator@VsignalConnection@@@@QAE@XZ 0041ba40 f i bncs_clientmainwindowimpl.obj
 0002:00008aa0       ??1?$_String_alloc@$0A@U?$_String_base_types@DV?$allocator@D@std@@@std@@@std@@QAE@XZ 0041baa0 f i bncs_clientmainwindowimpl.obj
 0002:00008b00       ??1?$_String_val@U?$_Simple_types@D@std@@@std@@QAE@XZ 0041bb00 f i bncs_clientmainwindowimpl.obj
 0002:00008b60       ??1_Generic_error_category@std@@UAE@XZ 0041bb60 f i bncs_clientmainwindowimpl.obj
 0002:00008bb0       ??1_Iostream_error_category@std@@UAE@XZ 0041bbb0 f i bncs_clientmainwindowimpl.obj
 0002:00008c00       ??1_System_error_category@std@@UAE@XZ 0041bc00 f i bncs_clientmainwindowimpl.obj
 0002:00008c50       ??1bncs_clientMainWindowImpl@@UAE@XZ 0041bc50 f i bncs_clientmainwindowimpl.obj
 0002:00008ca0       ??1error_category@std@@UAE@XZ 0041bca0 f i bncs_clientmainwindowimpl.obj
 0002:00008ce0       ??1signalConnection@@QAE@XZ 0041bce0 f i bncs_clientmainwindowimpl.obj
 0002:00008e00       ??1signalConnectionRefList@@UAE@XZ 0041be00 f i bncs_clientmainwindowimpl.obj
 0002:00008eb0       ??1signalConnectionRefListIt@@QAE@XZ 0041beb0 f i bncs_clientmainwindowimpl.obj
 0002:00008f00       ??2@YAPAXIPAX@Z            0041bf00 f i bncs_clientmainwindowimpl.obj
 0002:00008f40       ??3@YAXPAX0@Z              0041bf40 f i bncs_clientmainwindowimpl.obj
 0002:00008f70       ??4?$QPtrList@VsignalConnection@@@@QAEAAV0@ABV0@@Z 0041bf70 f i bncs_clientmainwindowimpl.obj
 0002:00008fe0       ??4?$QPtrListIterator@VsignalConnection@@@@QAEAAV0@ABV0@@Z 0041bfe0 f i bncs_clientmainwindowimpl.obj
 0002:00009050       ??4signalConnection@@QAEAAV0@ABV0@@Z 0041c050 f i bncs_clientmainwindowimpl.obj
 0002:00009150       ??4signalConnectionRefList@@QAEAAV0@ABV0@@Z 0041c150 f i bncs_clientmainwindowimpl.obj
 0002:000091b0       ??4signalConnectionRefListIt@@QAEAAV0@ABV0@@Z 0041c1b0 f i bncs_clientmainwindowimpl.obj
 0002:00009210       ??8?$QPtrList@VsignalConnection@@@@QBE_NABV0@@Z 0041c210 f i bncs_clientmainwindowimpl.obj
 0002:00009280       ??8error_category@std@@QBE_NABV01@@Z 0041c280 f i bncs_clientmainwindowimpl.obj
 0002:000092f0       ??8error_condition@std@@QBE_NABV01@@Z 0041c2f0 f i bncs_clientmainwindowimpl.obj
 0002:000093a0       ??9?$QPtrList@VsignalConnection@@@@QBE_NABV0@@Z 0041c3a0 f i bncs_clientmainwindowimpl.obj
 0002:00009430       ??B?$QPtrListIterator@VsignalConnection@@@@QBEPAVsignalConnection@@XZ 0041c430 f i bncs_clientmainwindowimpl.obj
 0002:00009490       ??D?$QPtrListIterator@VsignalConnection@@@@QAEPAVsignalConnection@@XZ 0041c490 f i bncs_clientmainwindowimpl.obj
 0002:000094f0       ??E?$QPtrListIterator@VsignalConnection@@@@QAEPAVsignalConnection@@XZ 0041c4f0 f i bncs_clientmainwindowimpl.obj
 0002:00009550       ??F?$QPtrListIterator@VsignalConnection@@@@QAEPAVsignalConnection@@XZ 0041c550 f i bncs_clientmainwindowimpl.obj
 0002:000095b0       ??H@YA?BVQPoint@@ABV0@0@Z  0041c5b0 f i bncs_clientmainwindowimpl.obj
 0002:00009630       ??R?$QPtrListIterator@VsignalConnection@@@@QAEPAVsignalConnection@@XZ 0041c630 f i bncs_clientmainwindowimpl.obj
 0002:00009690       ??Y?$QPtrListIterator@VsignalConnection@@@@QAEPAVsignalConnection@@I@Z 0041c690 f i bncs_clientmainwindowimpl.obj
 0002:00009700       ??Z?$QPtrListIterator@VsignalConnection@@@@QAEPAVsignalConnection@@I@Z 0041c700 f i bncs_clientmainwindowimpl.obj
 0002:00009770       ??_E?$QPtrList@VsignalConnection@@@@UAEPAXI@Z 0041c770 f i bncs_clientmainwindowimpl.obj
 0002:0000982b       ??_Ebncs_clientMainWindowImpl@@WCI@AEPAXI@Z 0041c82b f i bncs_clientmainwindowimpl.obj
 0002:00009840       ??_EsignalConnectionRefList@@UAEPAXI@Z 0041c840 f i bncs_clientmainwindowimpl.obj
 0002:00009900       ??_G?$QPtrList@VsignalConnection@@@@UAEPAXI@Z 0041c900 f i bncs_clientmainwindowimpl.obj
 0002:00009970       ??_G_Generic_error_category@std@@UAEPAXI@Z 0041c970 f i bncs_clientmainwindowimpl.obj
 0002:00009970       ??_E_Generic_error_category@std@@UAEPAXI@Z 0041c970 f i bncs_clientmainwindowimpl.obj
 0002:000099e0       ??_G_Iostream_error_category@std@@UAEPAXI@Z 0041c9e0 f i bncs_clientmainwindowimpl.obj
 0002:000099e0       ??_E_Iostream_error_category@std@@UAEPAXI@Z 0041c9e0 f i bncs_clientmainwindowimpl.obj
 0002:00009a50       ??_G_System_error_category@std@@UAEPAXI@Z 0041ca50 f i bncs_clientmainwindowimpl.obj
 0002:00009a50       ??_E_System_error_category@std@@UAEPAXI@Z 0041ca50 f i bncs_clientmainwindowimpl.obj
 0002:00009ac0       ??_Ebncs_clientMainWindowImpl@@UAEPAXI@Z 0041cac0 f i bncs_clientmainwindowimpl.obj
 0002:00009ac0       ??_Gbncs_clientMainWindowImpl@@UAEPAXI@Z 0041cac0 f i bncs_clientmainwindowimpl.obj
 0002:00009b30       ??_Eerror_category@std@@UAEPAXI@Z 0041cb30 f i bncs_clientmainwindowimpl.obj
 0002:00009b30       ??_Gerror_category@std@@UAEPAXI@Z 0041cb30 f i bncs_clientmainwindowimpl.obj
 0002:00009ba0       ??_GsignalConnection@@QAEPAXI@Z 0041cba0 f i bncs_clientmainwindowimpl.obj
 0002:00009c10       ??_GsignalConnectionRefList@@UAEPAXI@Z 0041cc10 f i bncs_clientmainwindowimpl.obj
 0002:00009c80       ?_Alloc_proxy@?$_String_alloc@$0A@U?$_String_base_types@DV?$allocator@D@std@@@std@@@std@@QAEXXZ 0041cc80 f i bncs_clientmainwindowimpl.obj
 0002:00009d50       ?_Copy@?$basic_string@DU?$char_traits@D@std@@V?$allocator@D@2@@std@@QAEXII@Z 0041cd50 f i bncs_clientmainwindowimpl.obj
 0002:0000a010       ?_Eos@?$basic_string@DU?$char_traits@D@std@@V?$allocator@D@2@@std@@QAEXI@Z 0041d010 f i bncs_clientmainwindowimpl.obj
 0002:0000a090       ?_Free_proxy@?$_String_alloc@$0A@U?$_String_base_types@DV?$allocator@D@std@@@std@@@std@@QAEXXZ 0041d090 f i bncs_clientmainwindowimpl.obj
 0002:0000a170       ?_Getal@?$_String_alloc@$0A@U?$_String_base_types@DV?$allocator@D@std@@@std@@@std@@QBE?AU?$_Wrap_alloc@V?$allocator@D@std@@@2@XZ 0041d170 f i bncs_clientmainwindowimpl.obj
 0002:0000a1d0       ?_Grow@?$basic_string@DU?$char_traits@D@std@@V?$allocator@D@2@@std@@QAE_NI_N@Z 0041d1d0 f i bncs_clientmainwindowimpl.obj
 0002:0000a2f0       ?_Inside@?$basic_string@DU?$char_traits@D@std@@V?$allocator@D@2@@std@@QAE_NPBD@Z 0041d2f0 f i bncs_clientmainwindowimpl.obj
 0002:0000a370       ?_Myptr@?$_String_val@U?$_Simple_types@D@std@@@std@@QAEPADXZ 0041d370 f i bncs_clientmainwindowimpl.obj
 0002:0000a400       ?_Myptr@?$_String_val@U?$_Simple_types@D@std@@@std@@QBEPBDXZ 0041d400 f i bncs_clientmainwindowimpl.obj
 0002:0000a490       ?_Tidy@?$basic_string@DU?$char_traits@D@std@@V?$allocator@D@2@@std@@QAEX_NI@Z 0041d490 f i bncs_clientmainwindowimpl.obj
 0002:0000a5a0       ?_Xlen@?$basic_string@DU?$char_traits@D@std@@V?$allocator@D@2@@std@@QBEXXZ 0041d5a0 f i bncs_clientmainwindowimpl.obj
 0002:0000a600       ?_Xran@?$basic_string@DU?$char_traits@D@std@@V?$allocator@D@2@@std@@QBEXXZ 0041d600 f i bncs_clientmainwindowimpl.obj
 0002:0000a660       ?allocate@?$_Wrap_alloc@V?$allocator@D@std@@@std@@QAEPADI@Z 0041d660 f i bncs_clientmainwindowimpl.obj
 0002:0000a6c0       ?allocate@?$allocator@D@std@@QAEPADI@Z 0041d6c0 f i bncs_clientmainwindowimpl.obj
 0002:0000a720       ?allocate@?$allocator@U_Container_proxy@std@@@std@@QAEPAU_Container_proxy@2@I@Z 0041d720 f i bncs_clientmainwindowimpl.obj
 0002:0000a780       ?append@?$QPtrList@VsignalConnection@@@@QAEXPBVsignalConnection@@@Z 0041d780 f i bncs_clientmainwindowimpl.obj
 0002:0000a7f0       ?assign@?$basic_string@DU?$char_traits@D@std@@V?$allocator@D@2@@std@@QAEAAV12@ABV12@II@Z 0041d7f0 f i bncs_clientmainwindowimpl.obj
 0002:0000a900       ?assign@?$basic_string@DU?$char_traits@D@std@@V?$allocator@D@2@@std@@QAEAAV12@PBD@Z 0041d900 f i bncs_clientmainwindowimpl.obj
 0002:0000a990       ?assign@?$basic_string@DU?$char_traits@D@std@@V?$allocator@D@2@@std@@QAEAAV12@PBDI@Z 0041d990 f i bncs_clientmainwindowimpl.obj
 0002:0000aa90       ?assign@?$char_traits@D@std@@SAXAADABD@Z 0041da90 f i bncs_clientmainwindowimpl.obj
 0002:0000aad0       ?at@?$QPtrList@VsignalConnection@@@@QAEPAVsignalConnection@@I@Z 0041dad0 f i bncs_clientmainwindowimpl.obj
 0002:0000ab40       ?at@?$QPtrList@VsignalConnection@@@@QBEHXZ 0041db40 f i bncs_clientmainwindowimpl.obj
 0002:0000aba0       ?atFirst@?$QPtrListIterator@VsignalConnection@@@@QBE_NXZ 0041dba0 f i bncs_clientmainwindowimpl.obj
 0002:0000ac00       ?atLast@?$QPtrListIterator@VsignalConnection@@@@QBE_NXZ 0041dc00 f i bncs_clientmainwindowimpl.obj
 0002:0000ac60       ?begin@?$QPtrList@VsignalConnection@@@@QAE?AV?$QPtrListStdIterator@VsignalConnection@@@@XZ 0041dc60 f i bncs_clientmainwindowimpl.obj
 0002:0000acd0       ?begin@?$QPtrList@VsignalConnection@@@@QBE?AV?$QPtrListStdIterator@VsignalConnection@@@@XZ 0041dcd0 f i bncs_clientmainwindowimpl.obj
 0002:0000ad40       ?category@error_code@std@@QBEABVerror_category@2@XZ 0041dd40 f i bncs_clientmainwindowimpl.obj
 0002:0000ad80       ?category@error_condition@std@@QBEABVerror_category@2@XZ 0041dd80 f i bncs_clientmainwindowimpl.obj
 0002:0000adc0       ?cccConfigChangeMessage@IccClientCallback@@MAEXABV?$basic_string@DU?$char_traits@D@std@@V?$allocator@D@2@@std@@@Z 0041ddc0 f i bncs_clientmainwindowimpl.obj
 0002:0000ae00       ?cccConnected@IccClientCallback@@MAEXXZ 0041de00 f i bncs_clientmainwindowimpl.obj
 0002:0000ae40       ?cccDatabaseChange@IccClientCallback@@MAEXHHH@Z 0041de40 f i bncs_clientmainwindowimpl.obj
 0002:0000ae80       ?cccDeviceMessage@IccClientCallback@@MAEXHHABV?$basic_string@DU?$char_traits@D@std@@V?$allocator@D@2@@std@@H@Z 0041de80 f i bncs_clientmainwindowimpl.obj
 0002:0000aec0       ?cccDeviceMode@IccClientCallback@@MAEXHHW4redundancyState@cc@@@Z 0041dec0 f i bncs_clientmainwindowimpl.obj
 0002:0000af00       ?cccDisconnected@IccClientCallback@@MAEXXZ 0041df00 f i bncs_clientmainwindowimpl.obj
 0002:0000af40       ?cccGpiRevertive@IccClientCallback@@MAEXHH_N@Z 0041df40 f i bncs_clientmainwindowimpl.obj
 0002:0000af80       ?cccInfoRevertive@IccClientCallback@@MAEXHHABV?$basic_string@DU?$char_traits@D@std@@V?$allocator@D@2@@std@@@Z 0041df80 f i bncs_clientmainwindowimpl.obj
 0002:0000afc0       ?cccPollError@IccClientCallback@@MAEXHH@Z 0041dfc0 f i bncs_clientmainwindowimpl.obj
 0002:0000b000       ?cccRtrRevertive@IccClientCallback@@MAEXHHH@Z 0041e000 f i bncs_clientmainwindowimpl.obj
 0002:0000b040       ?cccSerialNumberError@IccClientCallback@@MAEXHH@Z 0041e040 f i bncs_clientmainwindowimpl.obj
 0002:0000b080       ?clear@?$QPtrList@VsignalConnection@@@@UAEXXZ 0041e080 f i bncs_clientmainwindowimpl.obj
 0002:0000b0e0       ?constBegin@?$QPtrList@VsignalConnection@@@@QBE?AV?$QPtrListStdIterator@VsignalConnection@@@@XZ 0041e0e0 f i bncs_clientmainwindowimpl.obj
 0002:0000b150       ?constEnd@?$QPtrList@VsignalConnection@@@@QBE?AV?$QPtrListStdIterator@VsignalConnection@@@@XZ 0041e150 f i bncs_clientmainwindowimpl.obj
 0002:0000b1c0       ?contains@?$QPtrList@VsignalConnection@@@@QBEIPBVsignalConnection@@@Z 0041e1c0 f i bncs_clientmainwindowimpl.obj
 0002:0000b230       ?containsRef@?$QPtrList@VsignalConnection@@@@QBEIPBVsignalConnection@@@Z 0041e230 f i bncs_clientmainwindowimpl.obj
 0002:0000b2a0       ?copy@?$char_traits@D@std@@SAPADPADPBDI@Z 0041e2a0 f i bncs_clientmainwindowimpl.obj
 0002:0000b320       ?count@?$QPtrList@VsignalConnection@@@@UBEIXZ 0041e320 f i bncs_clientmainwindowimpl.obj
 0002:0000b380       ?count@?$QPtrListIterator@VsignalConnection@@@@QBEIXZ 0041e380 f i bncs_clientmainwindowimpl.obj
 0002:0000b3f0       ?current@?$QPtrList@VsignalConnection@@@@QBEPAVsignalConnection@@XZ 0041e3f0 f i bncs_clientmainwindowimpl.obj
 0002:0000b450       ?current@?$QPtrListIterator@VsignalConnection@@@@QBEPAVsignalConnection@@XZ 0041e450 f i bncs_clientmainwindowimpl.obj
 0002:0000b4b0       ?currentNode@?$QPtrList@VsignalConnection@@@@QBEPAVQLNode@@XZ 0041e4b0 f i bncs_clientmainwindowimpl.obj
 0002:0000b510       ?deallocate@?$_Wrap_alloc@V?$allocator@D@std@@@std@@QAEXPADI@Z 0041e510 f i bncs_clientmainwindowimpl.obj
 0002:0000b570       ?deallocate@?$allocator@D@std@@QAEXPADI@Z 0041e570 f i bncs_clientmainwindowimpl.obj
 0002:0000b5d0       ?deallocate@?$allocator@U_Container_proxy@std@@@std@@QAEXPAU_Container_proxy@2@I@Z 0041e5d0 f i bncs_clientmainwindowimpl.obj
 0002:0000b630       ?default_error_condition@_System_error_category@std@@UBE?AVerror_condition@2@H@Z 0041e630 f i bncs_clientmainwindowimpl.obj
 0002:0000b6e0       ?default_error_condition@error_category@std@@UBE?AVerror_condition@2@H@Z 0041e6e0 f i bncs_clientmainwindowimpl.obj
 0002:0000b740       ?deleteItem@?$QPtrList@VsignalConnection@@@@EAEXPAX@Z 0041e740 f i bncs_clientmainwindowimpl.obj
 0002:0000b7f0       ?end@?$QPtrList@VsignalConnection@@@@QAE?AV?$QPtrListStdIterator@VsignalConnection@@@@XZ 0041e7f0 f i bncs_clientmainwindowimpl.obj
 0002:0000b860       ?end@?$QPtrList@VsignalConnection@@@@QBE?AV?$QPtrListStdIterator@VsignalConnection@@@@XZ 0041e860 f i bncs_clientmainwindowimpl.obj
 0002:0000b8d0       ?equivalent@error_category@std@@UBE_NABVerror_code@2@H@Z 0041e8d0 f i bncs_clientmainwindowimpl.obj
 0002:0000b970       ?equivalent@error_category@std@@UBE_NHABVerror_condition@2@@Z 0041e970 f i bncs_clientmainwindowimpl.obj
 0002:0000b9f0       ?erase@?$QPtrList@VsignalConnection@@@@QAE?AV?$QPtrListStdIterator@VsignalConnection@@@@V2@@Z 0041e9f0 f i bncs_clientmainwindowimpl.obj
 0002:0000ba80       ?erase@?$basic_string@DU?$char_traits@D@std@@V?$allocator@D@2@@std@@QAEAAV12@I@Z 0041ea80 f i bncs_clientmainwindowimpl.obj
 0002:0000bb00       ?erase@?$basic_string@DU?$char_traits@D@std@@V?$allocator@D@2@@std@@QAEAAV12@II@Z 0041eb00 f i bncs_clientmainwindowimpl.obj
 0002:0000bbe0       ?find@?$QPtrList@VsignalConnection@@@@QAEHPBVsignalConnection@@@Z 0041ebe0 f i bncs_clientmainwindowimpl.obj
 0002:0000bc50       ?findNext@?$QPtrList@VsignalConnection@@@@QAEHPBVsignalConnection@@@Z 0041ec50 f i bncs_clientmainwindowimpl.obj
 0002:0000bcc0       ?findNextRef@?$QPtrList@VsignalConnection@@@@QAEHPBVsignalConnection@@@Z 0041ecc0 f i bncs_clientmainwindowimpl.obj
 0002:0000bd30       ?findRef@?$QPtrList@VsignalConnection@@@@QAEHPBVsignalConnection@@@Z 0041ed30 f i bncs_clientmainwindowimpl.obj
 0002:0000bda0       ?first@?$QPtrList@VsignalConnection@@@@QAEPAVsignalConnection@@XZ 0041eda0 f i bncs_clientmainwindowimpl.obj
 0002:0000be00       ?generic_category@std@@YAABVerror_category@1@XZ 0041ee00 f i bncs_clientmainwindowimpl.obj
 0002:0000be40       ?getFirst@?$QPtrList@VsignalConnection@@@@QBEPAVsignalConnection@@XZ 0041ee40 f i bncs_clientmainwindowimpl.obj
 0002:0000bea0       ?getLast@?$QPtrList@VsignalConnection@@@@QBEPAVsignalConnection@@XZ 0041eea0 f i bncs_clientmainwindowimpl.obj
 0002:0000bf00       ?inSort@?$QPtrList@VsignalConnection@@@@QAEXPBVsignalConnection@@@Z 0041ef00 f i bncs_clientmainwindowimpl.obj
 0002:0000bf70       ?insert@?$QPtrList@VsignalConnection@@@@QAE_NIPBVsignalConnection@@@Z 0041ef70 f i bncs_clientmainwindowimpl.obj
 0002:0000bfe0       ?isEmpty@?$QPtrList@VsignalConnection@@@@QBE_NXZ 0041efe0 f i bncs_clientmainwindowimpl.obj
 0002:0000c070       ?isEmpty@?$QPtrListIterator@VsignalConnection@@@@QBE_NXZ 0041f070 f i bncs_clientmainwindowimpl.obj
 0002:0000c100       ?last@?$QPtrList@VsignalConnection@@@@QAEPAVsignalConnection@@XZ 0041f100 f i bncs_clientmainwindowimpl.obj
 0002:0000c160       ?length@?$char_traits@D@std@@SAIPBD@Z 0041f160 f i bncs_clientmainwindowimpl.obj
 0002:0000c1e0       ?max_size@?$_Wrap_alloc@V?$allocator@D@std@@@std@@QBEIXZ 0041f1e0 f i bncs_clientmainwindowimpl.obj
 0002:0000c240       ?max_size@?$allocator@D@std@@QBEIXZ 0041f240 f i bncs_clientmainwindowimpl.obj
 0002:0000c280       ?max_size@?$allocator_traits@V?$allocator@D@std@@@std@@SAIABV?$allocator@D@2@@Z 0041f280 f i bncs_clientmainwindowimpl.obj
 0002:0000c2d0       ?max_size@?$basic_string@DU?$char_traits@D@std@@V?$allocator@D@2@@std@@QBEIXZ 0041f2d0 f i bncs_clientmainwindowimpl.obj
 0002:0000c370       ?message@_Generic_error_category@std@@UBE?AV?$basic_string@DU?$char_traits@D@std@@V?$allocator@D@2@@2@H@Z 0041f370 f i bncs_clientmainwindowimpl.obj
 0002:0000c430       ?message@_Iostream_error_category@std@@UBE?AV?$basic_string@DU?$char_traits@D@std@@V?$allocator@D@2@@2@H@Z 0041f430 f i bncs_clientmainwindowimpl.obj
 0002:0000c4f0       ?message@_System_error_category@std@@UBE?AV?$basic_string@DU?$char_traits@D@std@@V?$allocator@D@2@@2@H@Z 0041f4f0 f i bncs_clientmainwindowimpl.obj
 0002:0000c5b0       ?metaObject@bncs_clientMainWindowImpl@@UBEPAVQMetaObject@@XZ 0041f5b0 f i bncs_clientmainwindowimpl.obj
 0002:0000c600       ?move@?$char_traits@D@std@@SAPADPADPBDI@Z 0041f600 f i bncs_clientmainwindowimpl.obj
 0002:0000c690       ?name@_Generic_error_category@std@@UBEPBDXZ 0041f690 f i bncs_clientmainwindowimpl.obj
 0002:0000c6d0       ?name@_Iostream_error_category@std@@UBEPBDXZ 0041f6d0 f i bncs_clientmainwindowimpl.obj
 0002:0000c710       ?name@_System_error_category@std@@UBEPBDXZ 0041f710 f i bncs_clientmainwindowimpl.obj
 0002:0000c750       ?next@?$QPtrList@VsignalConnection@@@@QAEPAVsignalConnection@@XZ 0041f750 f i bncs_clientmainwindowimpl.obj
 0002:0000c7b0       ?path@global@@SA?AVQString@@XZ 0041f7b0 f i bncs_clientmainwindowimpl.obj
 0002:0000c970       ?prepend@?$QPtrList@VsignalConnection@@@@QAEXPBVsignalConnection@@@Z 0041f970 f i bncs_clientmainwindowimpl.obj
 0002:0000c9e0       ?prev@?$QPtrList@VsignalConnection@@@@QAEPAVsignalConnection@@XZ 0041f9e0 f i bncs_clientmainwindowimpl.obj
 0002:0000ca40       ?remove@?$QPtrList@VsignalConnection@@@@QAE_NI@Z 0041fa40 f i bncs_clientmainwindowimpl.obj
 0002:0000cab0       ?remove@?$QPtrList@VsignalConnection@@@@QAE_NPBVsignalConnection@@@Z 0041fab0 f i bncs_clientmainwindowimpl.obj
 0002:0000cb20       ?remove@?$QPtrList@VsignalConnection@@@@QAE_NXZ 0041fb20 f i bncs_clientmainwindowimpl.obj
 0002:0000cb80       ?removeFirst@?$QPtrList@VsignalConnection@@@@QAE_NXZ 0041fb80 f i bncs_clientmainwindowimpl.obj
 0002:0000cbe0       ?removeLast@?$QPtrList@VsignalConnection@@@@QAE_NXZ 0041fbe0 f i bncs_clientmainwindowimpl.obj
 0002:0000cc40       ?removeNode@?$QPtrList@VsignalConnection@@@@QAEXPAVQLNode@@@Z 0041fc40 f i bncs_clientmainwindowimpl.obj
 0002:0000ccb0       ?removeRef@?$QPtrList@VsignalConnection@@@@QAE_NPBVsignalConnection@@@Z 0041fcb0 f i bncs_clientmainwindowimpl.obj
 0002:0000cd20       ?replace@?$QPtrList@VsignalConnection@@@@QAE_NIPBVsignalConnection@@@Z 0041fd20 f i bncs_clientmainwindowimpl.obj
 0002:0000cd90       ?size@?$basic_string@DU?$char_traits@D@std@@V?$allocator@D@2@@std@@QBEIXZ 0041fd90 f i bncs_clientmainwindowimpl.obj
 0002:0000cdd0       ?sort@?$QPtrList@VsignalConnection@@@@QAEXXZ 0041fdd0 f i bncs_clientmainwindowimpl.obj
 0002:0000ce30       ?system_category@std@@YAABVerror_category@1@XZ 0041fe30 f i bncs_clientmainwindowimpl.obj
 0002:0000ce70       ?take@?$QPtrList@VsignalConnection@@@@QAEPAVsignalConnection@@I@Z 0041fe70 f i bncs_clientmainwindowimpl.obj
 0002:0000cee0       ?take@?$QPtrList@VsignalConnection@@@@QAEPAVsignalConnection@@XZ 0041fee0 f i bncs_clientmainwindowimpl.obj
 0002:0000cf40       ?takeNode@?$QPtrList@VsignalConnection@@@@QAEPAVsignalConnection@@PAVQLNode@@@Z 0041ff40 f i bncs_clientmainwindowimpl.obj
 0002:0000cfb0       ?toFirst@?$QPtrListIterator@VsignalConnection@@@@QAEPAVsignalConnection@@XZ 0041ffb0 f i bncs_clientmainwindowimpl.obj
 0002:0000d010       ?toLast@?$QPtrListIterator@VsignalConnection@@@@QAEPAVsignalConnection@@XZ 00420010 f i bncs_clientmainwindowimpl.obj
 0002:0000d070       ?toVector@?$QPtrList@VsignalConnection@@@@QBEXPAVQGVector@@@Z 00420070 f i bncs_clientmainwindowimpl.obj
 0002:0000d0e0       ?value@error_code@std@@QBEHXZ 004200e0 f i bncs_clientmainwindowimpl.obj
 0002:0000d120       ?value@error_condition@std@@QBEHXZ 00420120 f i bncs_clientmainwindowimpl.obj
 0002:0000d160       _hypot                     00420160 f i bncs_clientmainwindowimpl.obj
 0002:0000d1e0       ?readConfigSection@ccConfig@@SAXABV?$basic_string@DU?$char_traits@D@std@@V?$allocator@D@2@@std@@0AAV?$map@V?$basic_string@DU?$char_traits@D@std@@V?$allocator@D@2@@std@@V12@U?$less@V?$basic_string@DU?$char_traits@D@std@@V?$allocator@D@2@@std@@@2@V?$allocator@U?$pair@$$CBV?$basic_string@DU?$char_traits@D@std@@V?$allocator@D@2@@std@@V12@@std@@@2@@3@@Z 004201e0 f   ccConfig.obj
 0002:0000d3e0       ?readConfigSectionRoot@ccConfig@@SAXABV?$basic_string@DU?$char_traits@D@std@@V?$allocator@D@2@@std@@0AAV?$map@V?$basic_string@DU?$char_traits@D@std@@V?$allocator@D@2@@std@@V12@U?$less@V?$basic_string@DU?$char_traits@D@std@@V?$allocator@D@2@@std@@@2@V?$allocator@U?$pair@$$CBV?$basic_string@DU?$char_traits@D@std@@V?$allocator@D@2@@std@@V12@@std@@@2@@3@@Z 004203e0 f   ccConfig.obj
 0002:0000d520       ?readConfigSection@ccConfig@@SAXHABV?$basic_string@DU?$char_traits@D@std@@V?$allocator@D@2@@std@@AAV?$map@V?$basic_string@DU?$char_traits@D@std@@V?$allocator@D@2@@std@@V12@U?$less@V?$basic_string@DU?$char_traits@D@std@@V?$allocator@D@2@@std@@@2@V?$allocator@U?$pair@$$CBV?$basic_string@DU?$char_traits@D@std@@V?$allocator@D@2@@std@@V12@@std@@@2@@3@@Z 00420520 f   ccConfig.obj
 0002:0000d690       ?deleteKeysFromSectionRoot@ccConfig@@SAXABV?$basic_string@DU?$char_traits@D@std@@V?$allocator@D@2@@std@@00@Z 00420690 f   ccConfig.obj
 0002:0000d900       ?writeConfigSection@ccConfig@@SAXABV?$basic_string@DU?$char_traits@D@std@@V?$allocator@D@2@@std@@0ABV?$map@V?$basic_string@DU?$char_traits@D@std@@V?$allocator@D@2@@std@@V12@U?$less@V?$basic_string@DU?$char_traits@D@std@@V?$allocator@D@2@@std@@@2@V?$allocator@U?$pair@$$CBV?$basic_string@DU?$char_traits@D@std@@V?$allocator@D@2@@std@@V12@@std@@@2@@3@@Z 00420900 f   ccConfig.obj
 0002:0000db00       ?writeConfigSectionRoot@ccConfig@@SAXABV?$basic_string@DU?$char_traits@D@std@@V?$allocator@D@2@@std@@0ABV?$map@V?$basic_string@DU?$char_traits@D@std@@V?$allocator@D@2@@std@@V12@U?$less@V?$basic_string@DU?$char_traits@D@std@@V?$allocator@D@2@@std@@@2@V?$allocator@U?$pair@$$CBV?$basic_string@DU?$char_traits@D@std@@V?$allocator@D@2@@std@@V12@@std@@@2@@3@@Z 00420b00 f   ccConfig.obj
 0002:0000dc40       ?writeConfigSection@ccConfig@@SAXHABV?$basic_string@DU?$char_traits@D@std@@V?$allocator@D@2@@std@@ABV?$map@V?$basic_string@DU?$char_traits@D@std@@V?$allocator@D@2@@std@@V12@U?$less@V?$basic_string@DU?$char_traits@D@std@@V?$allocator@D@2@@std@@@2@V?$allocator@U?$pair@$$CBV?$basic_string@DU?$char_traits@D@std@@V?$allocator@D@2@@std@@V12@@std@@@2@@3@@Z 00420c40 f   ccConfig.obj
 0002:0000ddb0       ?getString@ccConfig@@SA?AV?$basic_string@DU?$char_traits@D@std@@V?$allocator@D@2@@std@@ABV23@000_N@Z 00420db0 f   ccConfig.obj
 0002:0000dfc0       ?getString@ccConfig@@SA?AV?$basic_string@DU?$char_traits@D@std@@V?$allocator@D@2@@std@@HABV23@00_N@Z 00420fc0 f   ccConfig.obj
 0002:0000e1d0       ?setString@ccConfig@@SAXABV?$basic_string@DU?$char_traits@D@std@@V?$allocator@D@2@@std@@000@Z 004211d0 f   ccConfig.obj
 0002:0000e330       ?setString@ccConfig@@SAXHABV?$basic_string@DU?$char_traits@D@std@@V?$allocator@D@2@@std@@00@Z 00421330 f   ccConfig.obj
 0002:0000e4a0       ?getInt@ccConfig@@SAHABV?$basic_string@DU?$char_traits@D@std@@V?$allocator@D@2@@std@@00H_N@Z 004214a0 f   ccConfig.obj
 0002:0000e680       ?getInt@ccConfig@@SAHHABV?$basic_string@DU?$char_traits@D@std@@V?$allocator@D@2@@std@@0H_N@Z 00421680 f   ccConfig.obj
 0002:0000e870       ?getDevPath@ccConfig@@SA?AV?$basic_string@DU?$char_traits@D@std@@V?$allocator@D@2@@std@@XZ 00421870 f   ccConfig.obj
 0002:0000eac0       ?getSystem@ccConfig@@SA?AV?$basic_string@DU?$char_traits@D@std@@V?$allocator@D@2@@std@@XZ 00421ac0 f   ccConfig.obj
 0002:0000ec40       ?getDevPath@ccConfig@@SA?AV?$basic_string@DU?$char_traits@D@std@@V?$allocator@D@2@@std@@H@Z 00421c40 f   ccConfig.obj
 0002:0000eda0       ?getDevPath@ccConfig@@SA?AV?$basic_string@DU?$char_traits@D@std@@V?$allocator@D@2@@std@@ABV23@@Z 00421da0 f   ccConfig.obj
 0002:0000eed0       ?isV4Based@ccConfig@@SA_NXZ 00421ed0 f   ccConfig.obj
 0002:0000ef80       ?isV3Based@ccConfig@@SA_NXZ 00421f80 f   ccConfig.obj
 0002:0000f050       ?workstation@ccConfig@@SAHXZ 00422050 f   ccConfig.obj
 0002:0000f2e0       ?sectionsAbs@ccConfig@@SAXABV?$basic_string@DU?$char_traits@D@std@@V?$allocator@D@2@@std@@AAV?$list@V?$basic_string@DU?$char_traits@D@std@@V?$allocator@D@2@@std@@V?$allocator@V?$basic_string@DU?$char_traits@D@std@@V?$allocator@D@2@@std@@@2@@3@@Z 004222e0 f   ccConfig.obj
 0002:0000f4f0       ?sections@ccConfig@@SAXABV?$basic_string@DU?$char_traits@D@std@@V?$allocator@D@2@@std@@AAV?$list@V?$basic_string@DU?$char_traits@D@std@@V?$allocator@D@2@@std@@V?$allocator@V?$basic_string@DU?$char_traits@D@std@@V?$allocator@D@2@@std@@@2@@3@@Z 004224f0 f   ccConfig.obj
 0002:0000f6e0       ?sectionsRoot@ccConfig@@SAXABV?$basic_string@DU?$char_traits@D@std@@V?$allocator@D@2@@std@@AAV?$list@V?$basic_string@DU?$char_traits@D@std@@V?$allocator@D@2@@std@@V?$allocator@V?$basic_string@DU?$char_traits@D@std@@V?$allocator@D@2@@std@@@2@@3@@Z 004226e0 f   ccConfig.obj
 0002:0000f820       ?sections@ccConfig@@SAXHAAV?$list@V?$basic_string@DU?$char_traits@D@std@@V?$allocator@D@2@@std@@V?$allocator@V?$basic_string@DU?$char_traits@D@std@@V?$allocator@D@2@@std@@@2@@std@@@Z 00422820 f   ccConfig.obj
 0002:0000f990       ?deleteSectionRoot@ccConfig@@SAXABV?$basic_string@DU?$char_traits@D@std@@V?$allocator@D@2@@std@@0@Z 00422990 f   ccConfig.obj
 0002:0000fad0       ??0ccConfig@@QAE@XZ        00422ad0 f   ccConfig.obj
 0002:0000fb70       ??0ccConfig@@QAE@ABV?$basic_string@DU?$char_traits@D@std@@V?$allocator@D@2@@std@@0@Z 00422b70 f   ccConfig.obj
 0002:0000fc90       ??0ccConfig@@QAE@HABV?$basic_string@DU?$char_traits@D@std@@V?$allocator@D@2@@std@@@Z 00422c90 f   ccConfig.obj
 0002:0000fdb0       ??1ccConfig@@UAE@XZ        00422db0 f   ccConfig.obj
 0002:0000fe20       ?getString@ccConfig@@QAE?AV?$basic_string@DU?$char_traits@D@std@@V?$allocator@D@2@@std@@ABV23@0_N@Z 00422e20 f   ccConfig.obj
 0002:0000ffe0       ?setString@ccConfig@@QAEXABV?$basic_string@DU?$char_traits@D@std@@V?$allocator@D@2@@std@@0@Z 00422fe0 f   ccConfig.obj
 0002:00010140       ?getInt@ccConfig@@QAEHABV?$basic_string@DU?$char_traits@D@std@@V?$allocator@D@2@@std@@H_N@Z 00423140 f   ccConfig.obj
 0002:00010320       ?developerMode@ccConfig@@SA_NXZ 00423320 f   ccConfig.obj
 0002:000103c0       ?getLogPath@ccConfig@@SA?AV?$basic_string@DU?$char_traits@D@std@@V?$allocator@D@2@@std@@ABV23@0@Z 004233c0 f   ccConfig.obj
 0002:00010590       ?readConfigSectionAbs@ccConfig@@CAXABV?$basic_string@DU?$char_traits@D@std@@V?$allocator@D@2@@std@@0AAV?$map@V?$basic_string@DU?$char_traits@D@std@@V?$allocator@D@2@@std@@V12@U?$less@V?$basic_string@DU?$char_traits@D@std@@V?$allocator@D@2@@std@@@2@V?$allocator@U?$pair@$$CBV?$basic_string@DU?$char_traits@D@std@@V?$allocator@D@2@@std@@V12@@std@@@2@@3@@Z 00423590 f   ccConfig.obj
 0002:00010990       ?writeConfigSectionAbs@ccConfig@@CAXABV?$basic_string@DU?$char_traits@D@std@@V?$allocator@D@2@@std@@0ABV?$map@V?$basic_string@DU?$char_traits@D@std@@V?$allocator@D@2@@std@@V12@U?$less@V?$basic_string@DU?$char_traits@D@std@@V?$allocator@D@2@@std@@@2@V?$allocator@U?$pair@$$CBV?$basic_string@DU?$char_traits@D@std@@V?$allocator@D@2@@std@@V12@@std@@@2@@3@@Z 00423990 f   ccConfig.obj
 0002:00010f90       ?buftolower@ccConfig@@CAPADPAD@Z 00423f90 f   ccConfig.obj
 0002:00011030       ?strtolower@ccConfig@@CA?AV?$basic_string@DU?$char_traits@D@std@@V?$allocator@D@2@@std@@ABV23@@Z 00424030 f   ccConfig.obj
 0002:00011180       ?find@ccConfig@@AAE?AV?$_Tree_iterator@V?$_Tree_val@U?$_Tree_simple_types@U?$pair@$$CBV?$basic_string@DU?$char_traits@D@std@@V?$allocator@D@2@@std@@V12@@std@@@std@@@std@@@std@@ABV?$basic_string@DU?$char_traits@D@std@@V?$allocator@D@2@@3@@Z 00424180 f   ccConfig.obj
 0002:00012430       ??$?0AAV?$_Tree_iterator@V?$_Tree_val@U?$_Tree_simple_types@U?$pair@$$CBV?$basic_string@DU?$char_traits@D@std@@V?$allocator@D@2@@std@@V12@@std@@@std@@@std@@@std@@_NX@?$pair@V?$_Tree_iterator@V?$_Tree_val@U?$_Tree_simple_types@U?$pair@$$CBV?$basic_string@DU?$char_traits@D@std@@V?$allocator@D@2@@std@@V12@@std@@@std@@@std@@@std@@_N@std@@QAE@AAV?$_Tree_iterator@V?$_Tree_val@U?$_Tree_simple_types@U?$pair@$$CBV?$basic_string@DU?$char_traits@D@std@@V?$allocator@D@2@@std@@V12@@std@@@std@@@std@@@1@$$QA_N@Z 00425430 f i ccConfig.obj
 0002:00012500       ??$?0AAV?$basic_string@DU?$char_traits@D@std@@V?$allocator@D@2@@std@@AAV01@X@?$pair@V?$basic_string@DU?$char_traits@D@std@@V?$allocator@D@2@@std@@V12@@std@@QAE@AAV?$basic_string@DU?$char_traits@D@std@@V?$allocator@D@2@@1@0@Z 00425500 f i ccConfig.obj
 0002:000125d0       ??$?0U?$_Tree_node@U?$pair@$$CBV?$basic_string@DU?$char_traits@D@std@@V?$allocator@D@2@@std@@V12@@std@@PAX@std@@@?$allocator@U_Container_proxy@std@@@std@@QAE@ABV?$allocator@U?$_Tree_node@U?$pair@$$CBV?$basic_string@DU?$char_traits@D@std@@V?$allocator@D@2@@std@@V12@@std@@PAX@std@@@1@@Z 004255d0 f i ccConfig.obj
 0002:00012610       ??$?0U?$_Wrap_alloc@V?$allocator@U?$_Tree_node@U?$pair@$$CBV?$basic_string@DU?$char_traits@D@std@@V?$allocator@D@2@@std@@V12@@std@@PAX@std@@@std@@@std@@@?$_Wrap_alloc@V?$allocator@U_Container_proxy@std@@@std@@@std@@QAE@ABU?$_Wrap_alloc@V?$allocator@U?$_Tree_node@U?$pair@$$CBV?$basic_string@DU?$char_traits@D@std@@V?$allocator@D@2@@std@@V12@@std@@PAX@std@@@std@@@1@@Z 00425610 f i ccConfig.obj
 0002:00012670       ??$?0V?$_Tree_iterator@V?$_Tree_val@U?$_Tree_simple_types@U?$pair@$$CBV?$basic_string@DU?$char_traits@D@std@@V?$allocator@D@2@@std@@V12@@std@@@std@@@std@@@std@@_NX@?$pair@V?$_Tree_iterator@V?$_Tree_val@U?$_Tree_simple_types@U?$pair@$$CBV?$basic_string@DU?$char_traits@D@std@@V?$allocator@D@2@@std@@V12@@std@@@std@@@std@@@std@@_N@std@@QAE@$$QAV?$_Tree_iterator@V?$_Tree_val@U?$_Tree_simple_types@U?$pair@$$CBV?$basic_string@DU?$char_traits@D@std@@V?$allocator@D@2@@std@@V12@@std@@@std@@@std@@@1@$$QA_N@Z 00425670 f i ccConfig.obj
 0002:00012740       ??$?0V?$basic_string@DU?$char_traits@D@std@@V?$allocator@D@2@@std@@V01@X@?$pair@$$CBV?$basic_string@DU?$char_traits@D@std@@V?$allocator@D@2@@std@@V12@@std@@QAE@$$QAU?$pair@V?$basic_string@DU?$char_traits@D@std@@V?$allocator@D@2@@std@@V12@@1@@Z 00425740 f i ccConfig.obj
 0002:00012810       ??$?8DD@std@@YA_NABV?$allocator@D@0@0@Z 00425810 f i ccConfig.obj
 0002:00012840       ??$?8DU?$char_traits@D@std@@V?$allocator@D@1@@std@@YA_NABV?$basic_string@DU?$char_traits@D@std@@V?$allocator@D@2@@0@0@Z 00425840 f i ccConfig.obj
 0002:000128c0       ??$?8DU?$char_traits@D@std@@V?$allocator@D@1@@std@@YA_NABV?$basic_string@DU?$char_traits@D@std@@V?$allocator@D@2@@0@PBD@Z 004258c0 f i ccConfig.obj
 0002:00012940       ??$?8V?$allocator@D@std@@V01@@std@@YA_NABU?$_Wrap_alloc@V?$allocator@D@std@@@0@0@Z 00425940 f i ccConfig.obj
 0002:000129b0       ??$?9V?$allocator@D@std@@V01@@std@@YA_NABU?$_Wrap_alloc@V?$allocator@D@std@@@0@0@Z 004259b0 f i ccConfig.obj
 0002:00012a30       ??$?HDU?$char_traits@D@std@@V?$allocator@D@1@@std@@YA?AV?$basic_string@DU?$char_traits@D@std@@V?$allocator@D@2@@0@$$QAV10@ABV10@@Z 00425a30 f i ccConfig.obj
 0002:00012ac0       ??$?HDU?$char_traits@D@std@@V?$allocator@D@1@@std@@YA?AV?$basic_string@DU?$char_traits@D@std@@V?$allocator@D@2@@0@$$QAV10@PBD@Z 00425ac0 f i ccConfig.obj
 0002:00012b50       ??$?HDU?$char_traits@D@std@@V?$allocator@D@1@@std@@YA?AV?$basic_string@DU?$char_traits@D@std@@V?$allocator@D@2@@0@ABV10@PBD@Z 00425b50 f i ccConfig.obj
 0002:00012cb0       ??$?HDU?$char_traits@D@std@@V?$allocator@D@1@@std@@YA?AV?$basic_string@DU?$char_traits@D@std@@V?$allocator@D@2@@0@PBDABV10@@Z 00425cb0 f i ccConfig.obj
 0002:00012e10       ??$?MDU?$char_traits@D@std@@V?$allocator@D@1@@std@@YA_NABV?$basic_string@DU?$char_traits@D@std@@V?$allocator@D@2@@0@0@Z 00425e10 f i ccConfig.obj
 0002:00012e90       ??$_Allocate@U?$_List_node@V?$basic_string@DU?$char_traits@D@std@@V?$allocator@D@2@@std@@PAX@std@@@std@@YAPAU?$_List_node@V?$basic_string@DU?$char_traits@D@std@@V?$allocator@D@2@@std@@PAX@0@IPAU10@@Z 00425e90 f i ccConfig.obj
 0002:00012f20       ??$_Allocate@U?$_Tree_node@U?$pair@$$CBV?$basic_string@DU?$char_traits@D@std@@V?$allocator@D@2@@std@@V12@@std@@PAX@std@@@std@@YAPAU?$_Tree_node@U?$pair@$$CBV?$basic_string@DU?$char_traits@D@std@@V?$allocator@D@2@@std@@V12@@std@@PAX@0@IPAU10@@Z 00425f20 f i ccConfig.obj
 0002:00012fb0       ??$_Buynode@U?$pair@V?$basic_string@DU?$char_traits@D@std@@V?$allocator@D@2@@std@@V12@@std@@@?$_Tree_buy@U?$pair@$$CBV?$basic_string@DU?$char_traits@D@std@@V?$allocator@D@2@@std@@V12@@std@@V?$allocator@U?$pair@$$CBV?$basic_string@DU?$char_traits@D@std@@V?$allocator@D@2@@std@@V12@@std@@@2@@std@@QAEPAU?$_Tree_node@U?$pair@$$CBV?$basic_string@DU?$char_traits@D@std@@V?$allocator@D@2@@std@@V12@@std@@PAX@1@$$QAU?$pair@V?$basic_string@DU?$char_traits@D@std@@V?$allocator@D@2@@std@@V12@@1@@Z 00425fb0 f i ccConfig.obj
 0002:00013120       ??$_Buynode@V?$basic_string@DU?$char_traits@D@std@@V?$allocator@D@2@@std@@@?$_List_buy@V?$basic_string@DU?$char_traits@D@std@@V?$allocator@D@2@@std@@V?$allocator@V?$basic_string@DU?$char_traits@D@std@@V?$allocator@D@2@@std@@@2@@std@@QAEPAU?$_List_node@V?$basic_string@DU?$char_traits@D@std@@V?$allocator@D@2@@std@@PAX@1@PAU21@0$$QAV?$basic_string@DU?$char_traits@D@std@@V?$allocator@D@2@@1@@Z 00426120 f i ccConfig.obj
 0002:00013290       ??$_Buynode_if_nil@AAU?$pair@$$CBV?$basic_string@DU?$char_traits@D@std@@V?$allocator@D@2@@std@@V12@@std@@@?$_Tree@V?$_Tmap_traits@V?$basic_string@DU?$char_traits@D@std@@V?$allocator@D@2@@std@@V12@U?$less@V?$basic_string@DU?$char_traits@D@std@@V?$allocator@D@2@@std@@@2@V?$allocator@U?$pair@$$CBV?$basic_string@DU?$char_traits@D@std@@V?$allocator@D@2@@std@@V12@@std@@@2@$0A@@std@@@std@@IAEPAU?$_Tree_node@U?$pair@$$CBV?$basic_string@DU?$char_traits@D@std@@V?$allocator@D@2@@std@@V12@@std@@PAX@1@PAU21@AAU?$pair@$$CBV?$basic_string@DU?$char_traits@D@std@@V?$allocator@D@2@@std@@V12@@1@@Z 00426290 f i ccConfig.obj
 0002:000132d0       ??$_Debug_lt_pred@U?$less@V?$basic_string@DU?$char_traits@D@std@@V?$allocator@D@2@@std@@@std@@ABV?$basic_string@DU?$char_traits@D@std@@V?$allocator@D@2@@2@ABV32@@std@@YA_NU?$less@V?$basic_string@DU?$char_traits@D@std@@V?$allocator@D@2@@std@@@0@ABV?$basic_string@DU?$char_traits@D@std@@V?$allocator@D@2@@0@1PB_WI@Z 004262d0 f i ccConfig.obj
 0002:000133b0       ??$_Insert@V?$basic_string@DU?$char_traits@D@std@@V?$allocator@D@2@@std@@@?$list@V?$basic_string@DU?$char_traits@D@std@@V?$allocator@D@2@@std@@V?$allocator@V?$basic_string@DU?$char_traits@D@std@@V?$allocator@D@2@@std@@@2@@std@@QAEXV?$_List_unchecked_const_iterator@V?$_List_val@U?$_List_simple_types@V?$basic_string@DU?$char_traits@D@std@@V?$allocator@D@2@@std@@@std@@@std@@U_Iterator_base0@2@@1@$$QAV?$basic_string@DU?$char_traits@D@std@@V?$allocator@D@2@@1@@Z 004263b0 f i ccConfig.obj
 0002:00013480       ??$_Insert_at@AAU?$pair@$$CBV?$basic_string@DU?$char_traits@D@std@@V?$allocator@D@2@@std@@V12@@std@@PAU?$_Tree_node@U?$pair@$$CBV?$basic_string@DU?$char_traits@D@std@@V?$allocator@D@2@@std@@V12@@std@@PAX@2@@?$_Tree@V?$_Tmap_traits@V?$basic_string@DU?$char_traits@D@std@@V?$allocator@D@2@@std@@V12@U?$less@V?$basic_string@DU?$char_traits@D@std@@V?$allocator@D@2@@std@@@2@V?$allocator@U?$pair@$$CBV?$basic_string@DU?$char_traits@D@std@@V?$allocator@D@2@@std@@V12@@std@@@2@$0A@@std@@@std@@IAE?AV?$_Tree_iterator@V?$_Tree_val@U?$_Tree_simple_types@U?$pair@$$CBV?$basic_string@DU?$char_traits@D@std@@V?$allocator@D@2@@std@@V12@@std@@@std@@@std@@@1@_NPAU?$_Tree_node@U?$pair@$$CBV?$basic_string@DU?$char_traits@D@std@@V?$allocator@D@2@@std@@V12@@std@@PAX@1@AAU?$pair@$$CBV?$basic_string@DU?$char_traits@D@std@@V?$allocator@D@2@@std@@V12@@1@1@Z 00426480 f i ccConfig.obj
 0002:00013a10       ??$_Insert_nohint@AAU?$pair@$$CBV?$basic_string@DU?$char_traits@D@std@@V?$allocator@D@2@@std@@V12@@std@@PAU?$_Tree_node@U?$pair@$$CBV?$basic_string@DU?$char_traits@D@std@@V?$allocator@D@2@@std@@V12@@std@@PAX@2@@?$_Tree@V?$_Tmap_traits@V?$basic_string@DU?$char_traits@D@std@@V?$allocator@D@2@@std@@V12@U?$less@V?$basic_string@DU?$char_traits@D@std@@V?$allocator@D@2@@std@@@2@V?$allocator@U?$pair@$$CBV?$basic_string@DU?$char_traits@D@std@@V?$allocator@D@2@@std@@V12@@std@@@2@$0A@@std@@@std@@IAE?AU?$pair@V?$_Tree_iterator@V?$_Tree_val@U?$_Tree_simple_types@U?$pair@$$CBV?$basic_string@DU?$char_traits@D@std@@V?$allocator@D@2@@std@@V12@@std@@@std@@@std@@@std@@_N@1@_NAAU?$pair@$$CBV?$basic_string@DU?$char_traits@D@std@@V?$allocator@D@2@@std@@V12@@1@PAU?$_Tree_node@U?$pair@$$CBV?$basic_string@DU?$char_traits@D@std@@V?$allocator@D@2@@std@@V12@@std@@PAX@1@@Z 00426a10 f i ccConfig.obj
 0002:00014150       ??$_Kfn@$$CBV?$basic_string@DU?$char_traits@D@std@@V?$allocator@D@2@@std@@V12@@?$_Tmap_traits@V?$basic_string@DU?$char_traits@D@std@@V?$allocator@D@2@@std@@V12@U?$less@V?$basic_string@DU?$char_traits@D@std@@V?$allocator@D@2@@std@@@2@V?$allocator@U?$pair@$$CBV?$basic_string@DU?$char_traits@D@std@@V?$allocator@D@2@@std@@V12@@std@@@2@$0A@@std@@SAABV?$basic_string@DU?$char_traits@D@std@@V?$allocator@D@2@@1@ABU?$pair@$$CBV?$basic_string@DU?$char_traits@D@std@@V?$allocator@D@2@@std@@V12@@1@@Z 00427150 f i ccConfig.obj
 0002:00014190       ??$_Move@AAD@std@@YA$$QADAAD@Z 00427190 f i ccConfig.obj
 0002:000141d0       ??$addressof@$$CBU?$pair@$$CBV?$basic_string@DU?$char_traits@D@std@@V?$allocator@D@2@@std@@V12@@std@@@std@@YAPBU?$pair@$$CBV?$basic_string@DU?$char_traits@D@std@@V?$allocator@D@2@@std@@V12@@0@ABU10@@Z 004271d0 f i ccConfig.obj
 0002:00014210       ??$addressof@PAU?$_List_node@V?$basic_string@DU?$char_traits@D@std@@V?$allocator@D@2@@std@@PAX@std@@@std@@YAPAPAU?$_List_node@V?$basic_string@DU?$char_traits@D@std@@V?$allocator@D@2@@std@@PAX@0@AAPAU10@@Z 00427210 f i ccConfig.obj
 0002:00014250       ??$addressof@PAU?$_Tree_node@U?$pair@$$CBV?$basic_string@DU?$char_traits@D@std@@V?$allocator@D@2@@std@@V12@@std@@PAX@std@@@std@@YAPAPAU?$_Tree_node@U?$pair@$$CBV?$basic_string@DU?$char_traits@D@std@@V?$allocator@D@2@@std@@V12@@std@@PAX@0@AAPAU10@@Z 00427250 f i ccConfig.obj
 0002:00014290       ??$addressof@U?$pair@$$CBV?$basic_string@DU?$char_traits@D@std@@V?$allocator@D@2@@std@@V12@@std@@@std@@YAPAU?$pair@$$CBV?$basic_string@DU?$char_traits@D@std@@V?$allocator@D@2@@std@@V12@@0@AAU10@@Z 00427290 f i ccConfig.obj
 0002:000142d0       ??$addressof@V?$basic_string@DU?$char_traits@D@std@@V?$allocator@D@2@@std@@@std@@YAPAV?$basic_string@DU?$char_traits@D@std@@V?$allocator@D@2@@0@AAV10@@Z 004272d0 f i ccConfig.obj
 0002:00014310       ??$assign@V?$_String_iterator@V?$_String_val@U?$_Simple_types@D@std@@@std@@@std@@@?$basic_string@DU?$char_traits@D@std@@V?$allocator@D@2@@std@@QAEAAV01@V?$_String_iterator@V?$_String_val@U?$_Simple_types@D@std@@@std@@@1@0@Z 00427310 f i ccConfig.obj
 0002:00014530       ??$construct@PAU?$_List_node@V?$basic_string@DU?$char_traits@D@std@@V?$allocator@D@2@@std@@PAX@std@@AAPAU12@@?$_Wrap_alloc@V?$allocator@U?$_List_node@V?$basic_string@DU?$char_traits@D@std@@V?$allocator@D@2@@std@@PAX@std@@@std@@@std@@QAEXPAPAU?$_List_node@V?$basic_string@DU?$char_traits@D@std@@V?$allocator@D@2@@std@@PAX@1@AAPAU21@@Z 00427530 f i ccConfig.obj
 0002:000145a0       ??$construct@PAU?$_List_node@V?$basic_string@DU?$char_traits@D@std@@V?$allocator@D@2@@std@@PAX@std@@AAPAU12@@?$allocator@U?$_List_node@V?$basic_string@DU?$char_traits@D@std@@V?$allocator@D@2@@std@@PAX@std@@@std@@QAEXPAPAU?$_List_node@V?$basic_string@DU?$char_traits@D@std@@V?$allocator@D@2@@std@@PAX@1@AAPAU21@@Z 004275a0 f i ccConfig.obj
 0002:000146a0       ??$construct@PAU?$_List_node@V?$basic_string@DU?$char_traits@D@std@@V?$allocator@D@2@@std@@PAX@std@@AAPAU12@@?$allocator_traits@V?$allocator@U?$_List_node@V?$basic_string@DU?$char_traits@D@std@@V?$allocator@D@2@@std@@PAX@std@@@std@@@std@@SAXAAV?$allocator@U?$_List_node@V?$basic_string@DU?$char_traits@D@std@@V?$allocator@D@2@@std@@PAX@std@@@1@PAPAU?$_List_node@V?$basic_string@DU?$char_traits@D@std@@V?$allocator@D@2@@std@@PAX@1@AAPAU31@@Z 004276a0 f i ccConfig.obj
 0002:00014700       ??$construct@PAU?$_Tree_node@U?$pair@$$CBV?$basic_string@DU?$char_traits@D@std@@V?$allocator@D@2@@std@@V12@@std@@PAX@std@@AAPAU12@@?$_Wrap_alloc@V?$allocator@U?$_Tree_node@U?$pair@$$CBV?$basic_string@DU?$char_traits@D@std@@V?$allocator@D@2@@std@@V12@@std@@PAX@std@@@std@@@std@@QAEXPAPAU?$_Tree_node@U?$pair@$$CBV?$basic_string@DU?$char_traits@D@std@@V?$allocator@D@2@@std@@V12@@std@@PAX@1@AAPAU21@@Z 00427700 f i ccConfig.obj
 0002:00014770       ??$construct@PAU?$_Tree_node@U?$pair@$$CBV?$basic_string@DU?$char_traits@D@std@@V?$allocator@D@2@@std@@V12@@std@@PAX@std@@AAPAU12@@?$allocator@U?$_Tree_node@U?$pair@$$CBV?$basic_string@DU?$char_traits@D@std@@V?$allocator@D@2@@std@@V12@@std@@PAX@std@@@std@@QAEXPAPAU?$_Tree_node@U?$pair@$$CBV?$basic_string@DU?$char_traits@D@std@@V?$allocator@D@2@@std@@V12@@std@@PAX@1@AAPAU21@@Z 00427770 f i ccConfig.obj
 0002:00014870       ??$construct@PAU?$_Tree_node@U?$pair@$$CBV?$basic_string@DU?$char_traits@D@std@@V?$allocator@D@2@@std@@V12@@std@@PAX@std@@AAPAU12@@?$allocator_traits@V?$allocator@U?$_Tree_node@U?$pair@$$CBV?$basic_string@DU?$char_traits@D@std@@V?$allocator@D@2@@std@@V12@@std@@PAX@std@@@std@@@std@@SAXAAV?$allocator@U?$_Tree_node@U?$pair@$$CBV?$basic_string@DU?$char_traits@D@std@@V?$allocator@D@2@@std@@V12@@std@@PAX@std@@@1@PAPAU?$_Tree_node@U?$pair@$$CBV?$basic_string@DU?$char_traits@D@std@@V?$allocator@D@2@@std@@V12@@std@@PAX@1@AAPAU31@@Z 00427870 f i ccConfig.obj
 0002:000148d0       ??$construct@U?$pair@$$CBV?$basic_string@DU?$char_traits@D@std@@V?$allocator@D@2@@std@@V12@@std@@U?$pair@V?$basic_string@DU?$char_traits@D@std@@V?$allocator@D@2@@std@@V12@@2@@?$_Wrap_alloc@V?$allocator@U?$_Tree_node@U?$pair@$$CBV?$basic_string@DU?$char_traits@D@std@@V?$allocator@D@2@@std@@V12@@std@@PAX@std@@@std@@@std@@QAEXPAU?$pair@$$CBV?$basic_string@DU?$char_traits@D@std@@V?$allocator@D@2@@std@@V12@@1@$$QAU?$pair@V?$basic_string@DU?$char_traits@D@std@@V?$allocator@D@2@@std@@V12@@1@@Z 004278d0 f i ccConfig.obj
 0002:00014940       ??$construct@U?$pair@$$CBV?$basic_string@DU?$char_traits@D@std@@V?$allocator@D@2@@std@@V12@@std@@U?$pair@V?$basic_string@DU?$char_traits@D@std@@V?$allocator@D@2@@std@@V12@@2@@?$allocator@U?$_Tree_node@U?$pair@$$CBV?$basic_string@DU?$char_traits@D@std@@V?$allocator@D@2@@std@@V12@@std@@PAX@std@@@std@@QAEXPAU?$pair@$$CBV?$basic_string@DU?$char_traits@D@std@@V?$allocator@D@2@@std@@V12@@1@$$QAU?$pair@V?$basic_string@DU?$char_traits@D@std@@V?$allocator@D@2@@std@@V12@@1@@Z 00427940 f i ccConfig.obj
 0002:00014a40       ??$construct@U?$pair@$$CBV?$basic_string@DU?$char_traits@D@std@@V?$allocator@D@2@@std@@V12@@std@@U?$pair@V?$basic_string@DU?$char_traits@D@std@@V?$allocator@D@2@@std@@V12@@2@@?$allocator_traits@V?$allocator@U?$_Tree_node@U?$pair@$$CBV?$basic_string@DU?$char_traits@D@std@@V?$allocator@D@2@@std@@V12@@std@@PAX@std@@@std@@@std@@SAXAAV?$allocator@U?$_Tree_node@U?$pair@$$CBV?$basic_string@DU?$char_traits@D@std@@V?$allocator@D@2@@std@@V12@@std@@PAX@std@@@1@PAU?$pair@$$CBV?$basic_string@DU?$char_traits@D@std@@V?$allocator@D@2@@std@@V12@@1@$$QAU?$pair@V?$basic_string@DU?$char_traits@D@std@@V?$allocator@D@2@@std@@V12@@1@@Z 00427a40 f i ccConfig.obj
 0002:00014aa0       ??$construct@U_Container_proxy@std@@U12@@?$_Wrap_alloc@V?$allocator@U_Container_proxy@std@@@std@@@std@@QAEXPAU_Container_proxy@1@$$QAU21@@Z 00427aa0 f i ccConfig.obj
 0002:00014b10       ??$construct@U_Container_proxy@std@@U12@@?$allocator_traits@V?$allocator@U_Container_proxy@std@@@std@@@std@@SAXAAV?$allocator@U_Container_proxy@std@@@1@PAU_Container_proxy@1@$$QAU31@@Z 00427b10 f i ccConfig.obj
 0002:00014b70       ??$construct@V?$basic_string@DU?$char_traits@D@std@@V?$allocator@D@2@@std@@V12@@?$_Wrap_alloc@V?$allocator@U?$_List_node@V?$basic_string@DU?$char_traits@D@std@@V?$allocator@D@2@@std@@PAX@std@@@std@@@std@@QAEXPAV?$basic_string@DU?$char_traits@D@std@@V?$allocator@D@2@@1@$$QAV21@@Z 00427b70 f i ccConfig.obj
 0002:00014be0       ??$construct@V?$basic_string@DU?$char_traits@D@std@@V?$allocator@D@2@@std@@V12@@?$allocator@U?$_List_node@V?$basic_string@DU?$char_traits@D@std@@V?$allocator@D@2@@std@@PAX@std@@@std@@QAEXPAV?$basic_string@DU?$char_traits@D@std@@V?$allocator@D@2@@1@$$QAV21@@Z 00427be0 f i ccConfig.obj
 0002:00014ce0       ??$construct@V?$basic_string@DU?$char_traits@D@std@@V?$allocator@D@2@@std@@V12@@?$allocator_traits@V?$allocator@U?$_List_node@V?$basic_string@DU?$char_traits@D@std@@V?$allocator@D@2@@std@@PAX@std@@@std@@@std@@SAXAAV?$allocator@U?$_List_node@V?$basic_string@DU?$char_traits@D@std@@V?$allocator@D@2@@std@@PAX@std@@@1@PAV?$basic_string@DU?$char_traits@D@std@@V?$allocator@D@2@@1@$$QAV31@@Z 00427ce0 f i ccConfig.obj
 0002:00014d40       ??$destroy@PAU?$_Tree_node@U?$pair@$$CBV?$basic_string@DU?$char_traits@D@std@@V?$allocator@D@2@@std@@V12@@std@@PAX@std@@@?$_Wrap_alloc@V?$allocator@U?$_Tree_node@U?$pair@$$CBV?$basic_string@DU?$char_traits@D@std@@V?$allocator@D@2@@std@@V12@@std@@PAX@std@@@std@@@std@@QAEXPAPAU?$_Tree_node@U?$pair@$$CBV?$basic_string@DU?$char_traits@D@std@@V?$allocator@D@2@@std@@V12@@std@@PAX@1@@Z 00427d40 f i ccConfig.obj
 0002:00014da0       ??$destroy@PAU?$_Tree_node@U?$pair@$$CBV?$basic_string@DU?$char_traits@D@std@@V?$allocator@D@2@@std@@V12@@std@@PAX@std@@@?$allocator@U?$_Tree_node@U?$pair@$$CBV?$basic_string@DU?$char_traits@D@std@@V?$allocator@D@2@@std@@V12@@std@@PAX@std@@@std@@QAEXPAPAU?$_Tree_node@U?$pair@$$CBV?$basic_string@DU?$char_traits@D@std@@V?$allocator@D@2@@std@@V12@@std@@PAX@1@@Z 00427da0 f i ccConfig.obj
 0002:00014de0       ??$destroy@PAU?$_Tree_node@U?$pair@$$CBV?$basic_string@DU?$char_traits@D@std@@V?$allocator@D@2@@std@@V12@@std@@PAX@std@@@?$allocator_traits@V?$allocator@U?$_Tree_node@U?$pair@$$CBV?$basic_string@DU?$char_traits@D@std@@V?$allocator@D@2@@std@@V12@@std@@PAX@std@@@std@@@std@@SAXAAV?$allocator@U?$_Tree_node@U?$pair@$$CBV?$basic_string@DU?$char_traits@D@std@@V?$allocator@D@2@@std@@V12@@std@@PAX@std@@@1@PAPAU?$_Tree_node@U?$pair@$$CBV?$basic_string@DU?$char_traits@D@std@@V?$allocator@D@2@@std@@V12@@std@@PAX@1@@Z 00427de0 f i ccConfig.obj
 0002:00014e30       ??$destroy@U?$pair@$$CBV?$basic_string@DU?$char_traits@D@std@@V?$allocator@D@2@@std@@V12@@std@@@?$_Wrap_alloc@V?$allocator@U?$_Tree_node@U?$pair@$$CBV?$basic_string@DU?$char_traits@D@std@@V?$allocator@D@2@@std@@V12@@std@@PAX@std@@@std@@@std@@QAEXPAU?$pair@$$CBV?$basic_string@DU?$char_traits@D@std@@V?$allocator@D@2@@std@@V12@@1@@Z 00427e30 f i ccConfig.obj
 0002:00014e90       ??$destroy@U?$pair@$$CBV?$basic_string@DU?$char_traits@D@std@@V?$allocator@D@2@@std@@V12@@std@@@?$allocator@U?$_Tree_node@U?$pair@$$CBV?$basic_string@DU?$char_traits@D@std@@V?$allocator@D@2@@std@@V12@@std@@PAX@std@@@std@@QAEXPAU?$pair@$$CBV?$basic_string@DU?$char_traits@D@std@@V?$allocator@D@2@@std@@V12@@1@@Z 00427e90 f i ccConfig.obj
 0002:00014ef0       ??$destroy@U?$pair@$$CBV?$basic_string@DU?$char_traits@D@std@@V?$allocator@D@2@@std@@V12@@std@@@?$allocator_traits@V?$allocator@U?$_Tree_node@U?$pair@$$CBV?$basic_string@DU?$char_traits@D@std@@V?$allocator@D@2@@std@@V12@@std@@PAX@std@@@std@@@std@@SAXAAV?$allocator@U?$_Tree_node@U?$pair@$$CBV?$basic_string@DU?$char_traits@D@std@@V?$allocator@D@2@@std@@V12@@std@@PAX@std@@@1@PAU?$pair@$$CBV?$basic_string@DU?$char_traits@D@std@@V?$allocator@D@2@@std@@V12@@1@@Z 00427ef0 f i ccConfig.obj
 0002:00014f40       ??$destroy@U_Container_proxy@std@@@?$_Wrap_alloc@V?$allocator@U_Container_proxy@std@@@std@@@std@@QAEXPAU_Container_proxy@1@@Z 00427f40 f i ccConfig.obj
 0002:00014fa0       ??$destroy@U_Container_proxy@std@@@?$allocator_traits@V?$allocator@U_Container_proxy@std@@@std@@@std@@SAXAAV?$allocator@U_Container_proxy@std@@@1@PAU_Container_proxy@1@@Z 00427fa0 f i ccConfig.obj
 0002:00014ff0       ??$forward@AAPAU?$_List_node@V?$basic_string@DU?$char_traits@D@std@@V?$allocator@D@2@@std@@PAX@std@@@std@@YAAAPAU?$_List_node@V?$basic_string@DU?$char_traits@D@std@@V?$allocator@D@2@@std@@PAX@0@AAPAU10@@Z 00427ff0 f i ccConfig.obj
 0002:00015030       ??$forward@AAPAU?$_Tree_node@U?$pair@$$CBV?$basic_string@DU?$char_traits@D@std@@V?$allocator@D@2@@std@@V12@@std@@PAX@std@@@std@@YAAAPAU?$_Tree_node@U?$pair@$$CBV?$basic_string@DU?$char_traits@D@std@@V?$allocator@D@2@@std@@V12@@std@@PAX@0@AAPAU10@@Z 00428030 f i ccConfig.obj
 0002:00015070       ??$forward@AAU?$pair@$$CBV?$basic_string@DU?$char_traits@D@std@@V?$allocator@D@2@@std@@V12@@std@@@std@@YAAAU?$pair@$$CBV?$basic_string@DU?$char_traits@D@std@@V?$allocator@D@2@@std@@V12@@0@AAU10@@Z 00428070 f i ccConfig.obj
 0002:000150b0       ??$forward@AAV?$_Tree_iterator@V?$_Tree_val@U?$_Tree_simple_types@U?$pair@$$CBV?$basic_string@DU?$char_traits@D@std@@V?$allocator@D@2@@std@@V12@@std@@@std@@@std@@@std@@@std@@YAAAV?$_Tree_iterator@V?$_Tree_val@U?$_Tree_simple_types@U?$pair@$$CBV?$basic_string@DU?$char_traits@D@std@@V?$allocator@D@2@@std@@V12@@std@@@std@@@std@@@0@AAV10@@Z 004280b0 f i ccConfig.obj
 0002:000150f0       ??$forward@AAV?$basic_string@DU?$char_traits@D@std@@V?$allocator@D@2@@std@@@std@@YAAAV?$basic_string@DU?$char_traits@D@std@@V?$allocator@D@2@@0@AAV10@@Z 004280f0 f i ccConfig.obj
 0002:00015130       ??$forward@ABV?$basic_string@DU?$char_traits@D@std@@V?$allocator@D@2@@std@@@std@@YAABV?$basic_string@DU?$char_traits@D@std@@V?$allocator@D@2@@0@ABV10@@Z 00428130 f i ccConfig.obj
 0002:00015170       ??$forward@U?$pair@V?$basic_string@DU?$char_traits@D@std@@V?$allocator@D@2@@std@@V12@@std@@@std@@YA$$QAU?$pair@V?$basic_string@DU?$char_traits@D@std@@V?$allocator@D@2@@std@@V12@@0@AAU10@@Z 00428170 f i ccConfig.obj
 0002:000151b0       ??$forward@V?$_Tree_iterator@V?$_Tree_val@U?$_Tree_simple_types@U?$pair@$$CBV?$basic_string@DU?$char_traits@D@std@@V?$allocator@D@2@@std@@V12@@std@@@std@@@std@@@std@@@std@@YA$$QAV?$_Tree_iterator@V?$_Tree_val@U?$_Tree_simple_types@U?$pair@$$CBV?$basic_string@DU?$char_traits@D@std@@V?$allocator@D@2@@std@@V12@@std@@@std@@@std@@@0@AAV10@@Z 004281b0 f i ccConfig.obj
 0002:000151f0       ??$forward@V?$basic_string@DU?$char_traits@D@std@@V?$allocator@D@2@@std@@@std@@YA$$QAV?$basic_string@DU?$char_traits@D@std@@V?$allocator@D@2@@0@AAV10@@Z 004281f0 f i ccConfig.obj
 0002:00015230       ??$forward@_N@std@@YA$$QA_NAA_N@Z 00428230 f i ccConfig.obj
 0002:00015270       ??$insert@U?$pair@V?$basic_string@DU?$char_traits@D@std@@V?$allocator@D@2@@std@@V12@@std@@@?$_Tree@V?$_Tmap_traits@V?$basic_string@DU?$char_traits@D@std@@V?$allocator@D@2@@std@@V12@U?$less@V?$basic_string@DU?$char_traits@D@std@@V?$allocator@D@2@@std@@@2@V?$allocator@U?$pair@$$CBV?$basic_string@DU?$char_traits@D@std@@V?$allocator@D@2@@std@@V12@@std@@@2@$0A@@std@@@std@@QAE?AU?$pair@V?$_Tree_iterator@V?$_Tree_val@U?$_Tree_simple_types@U?$pair@$$CBV?$basic_string@DU?$char_traits@D@std@@V?$allocator@D@2@@std@@V12@@std@@@std@@@std@@@std@@_N@1@$$QAU?$pair@V?$basic_string@DU?$char_traits@D@std@@V?$allocator@D@2@@std@@V12@@1@@Z 00428270 f i ccConfig.obj
 0002:00015320       ??$move@AAV?$basic_string@DU?$char_traits@D@std@@V?$allocator@D@2@@std@@@std@@YA$$QAV?$basic_string@DU?$char_traits@D@std@@V?$allocator@D@2@@0@AAV10@@Z 00428320 f i ccConfig.obj
 0002:00015360       ??$swap@D@std@@YAXAAD0@Z   00428360 f i ccConfig.obj
 0002:00015420       ??0?$_Iterator012@Ubidirectional_iterator_tag@std@@U?$pair@$$CBV?$basic_string@DU?$char_traits@D@std@@V?$allocator@D@2@@std@@V12@@2@HPBU32@ABU32@U_Iterator_base12@2@@std@@QAE@ABU01@@Z 00428420 f i ccConfig.obj
 0002:00015480       ??0?$_Iterator012@Ubidirectional_iterator_tag@std@@U?$pair@$$CBV?$basic_string@DU?$char_traits@D@std@@V?$allocator@D@2@@std@@V12@@2@HPBU32@ABU32@U_Iterator_base12@2@@std@@QAE@XZ 00428480 f i ccConfig.obj
 0002:000154e0       ??0?$_Iterator012@Urandom_access_iterator_tag@std@@DHPBDABDU_Iterator_base12@2@@std@@QAE@ABU01@@Z 004284e0 f i ccConfig.obj
 0002:00015540       ??0?$_Iterator012@Urandom_access_iterator_tag@std@@DHPBDABDU_Iterator_base12@2@@std@@QAE@XZ 00428540 f i ccConfig.obj
 0002:000155a0       ??0?$_List_unchecked_const_iterator@V?$_List_val@U?$_List_simple_types@V?$basic_string@DU?$char_traits@D@std@@V?$allocator@D@2@@std@@@std@@@std@@U_Iterator_base0@2@@std@@QAE@PAU?$_List_node@V?$basic_string@DU?$char_traits@D@std@@V?$allocator@D@2@@std@@PAX@1@PBV?$_List_val@U?$_List_simple_types@V?$basic_string@DU?$char_traits@D@std@@V?$allocator@D@2@@std@@@std@@@1@@Z 004285a0 f i ccConfig.obj
 0002:00015610       ??0?$_List_unchecked_iterator@V?$_List_val@U?$_List_simple_types@V?$basic_string@DU?$char_traits@D@std@@V?$allocator@D@2@@std@@@std@@@std@@@std@@QAE@PAU?$_List_node@V?$basic_string@DU?$char_traits@D@std@@V?$allocator@D@2@@std@@PAX@1@PBV?$_List_val@U?$_List_simple_types@V?$basic_string@DU?$char_traits@D@std@@V?$allocator@D@2@@std@@@std@@@1@@Z 00428610 f i ccConfig.obj
 0002:00015670       ??0?$_String_const_iterator@V?$_String_val@U?$_Simple_types@D@std@@@std@@@std@@QAE@ABV01@@Z 00428670 f i ccConfig.obj
 0002:000156e0       ??0?$_String_const_iterator@V?$_String_val@U?$_Simple_types@D@std@@@std@@@std@@QAE@PBDPBU_Container_base12@1@@Z 004286e0 f i ccConfig.obj
 0002:000157a0       ??0?$_String_iterator@V?$_String_val@U?$_Simple_types@D@std@@@std@@@std@@QAE@ABV01@@Z 004287a0 f i ccConfig.obj
 0002:00015800       ??0?$_String_iterator@V?$_String_val@U?$_Simple_types@D@std@@@std@@@std@@QAE@PADPBU_Container_base12@1@@Z 00428800 f i ccConfig.obj
 0002:00015860       ??0?$_Tree@V?$_Tmap_traits@V?$basic_string@DU?$char_traits@D@std@@V?$allocator@D@2@@std@@V12@U?$less@V?$basic_string@DU?$char_traits@D@std@@V?$allocator@D@2@@std@@@2@V?$allocator@U?$pair@$$CBV?$basic_string@DU?$char_traits@D@std@@V?$allocator@D@2@@std@@V12@@std@@@2@$0A@@std@@@std@@QAE@ABU?$less@V?$basic_string@DU?$char_traits@D@std@@V?$allocator@D@2@@std@@@1@ABV?$allocator@U?$pair@$$CBV?$basic_string@DU?$char_traits@D@std@@V?$allocator@D@2@@std@@V12@@std@@@1@@Z 00428860 f i ccConfig.obj
 0002:000158c0       ??0?$_Tree_alloc@$0A@U?$_Tree_base_types@U?$pair@$$CBV?$basic_string@DU?$char_traits@D@std@@V?$allocator@D@2@@std@@V12@@std@@V?$allocator@U?$pair@$$CBV?$basic_string@DU?$char_traits@D@std@@V?$allocator@D@2@@std@@V12@@std@@@2@@std@@@std@@QAE@ABV?$allocator@U?$pair@$$CBV?$basic_string@DU?$char_traits@D@std@@V?$allocator@D@2@@std@@V12@@std@@@1@@Z 004288c0 f i ccConfig.obj
 0002:000159c0       ??0?$_Tree_buy@U?$pair@$$CBV?$basic_string@DU?$char_traits@D@std@@V?$allocator@D@2@@std@@V12@@std@@V?$allocator@U?$pair@$$CBV?$basic_string@DU?$char_traits@D@std@@V?$allocator@D@2@@std@@V12@@std@@@2@@std@@QAE@ABV?$allocator@U?$pair@$$CBV?$basic_string@DU?$char_traits@D@std@@V?$allocator@D@2@@std@@V12@@std@@@1@@Z 004289c0 f i ccConfig.obj
 0002:00015a20       ??0?$_Tree_comp@$0A@V?$_Tmap_traits@V?$basic_string@DU?$char_traits@D@std@@V?$allocator@D@2@@std@@V12@U?$less@V?$basic_string@DU?$char_traits@D@std@@V?$allocator@D@2@@std@@@2@V?$allocator@U?$pair@$$CBV?$basic_string@DU?$char_traits@D@std@@V?$allocator@D@2@@std@@V12@@std@@@2@$0A@@std@@@std@@QAE@ABU?$less@V?$basic_string@DU?$char_traits@D@std@@V?$allocator@D@2@@std@@@1@ABV?$allocator@U?$pair@$$CBV?$basic_string@DU?$char_traits@D@std@@V?$allocator@D@2@@std@@V12@@std@@@1@@Z 00428a20 f i ccConfig.obj
 0002:00015a80       ??0?$_Tree_const_iterator@V?$_Tree_val@U?$_Tree_simple_types@U?$pair@$$CBV?$basic_string@DU?$char_traits@D@std@@V?$allocator@D@2@@std@@V12@@std@@@std@@@std@@@std@@QAE@ABV01@@Z 00428a80 f i ccConfig.obj
 0002:00015ae0       ??0?$_Tree_const_iterator@V?$_Tree_val@U?$_Tree_simple_types@U?$pair@$$CBV?$basic_string@DU?$char_traits@D@std@@V?$allocator@D@2@@std@@V12@@std@@@std@@@std@@@std@@QAE@PAU?$_Tree_node@U?$pair@$$CBV?$basic_string@DU?$char_traits@D@std@@V?$allocator@D@2@@std@@V12@@std@@PAX@1@PBV?$_Tree_val@U?$_Tree_simple_types@U?$pair@$$CBV?$basic_string@DU?$char_traits@D@std@@V?$allocator@D@2@@std@@V12@@std@@@std@@@1@@Z 00428ae0 f i ccConfig.obj
 0002:00015b40       ??0?$_Tree_iterator@V?$_Tree_val@U?$_Tree_simple_types@U?$pair@$$CBV?$basic_string@DU?$char_traits@D@std@@V?$allocator@D@2@@std@@V12@@std@@@std@@@std@@@std@@QAE@ABV01@@Z 00428b40 f i ccConfig.obj
 0002:00015ba0       ??0?$_Tree_iterator@V?$_Tree_val@U?$_Tree_simple_types@U?$pair@$$CBV?$basic_string@DU?$char_traits@D@std@@V?$allocator@D@2@@std@@V12@@std@@@std@@@std@@@std@@QAE@PAU?$_Tree_node@U?$pair@$$CBV?$basic_string@DU?$char_traits@D@std@@V?$allocator@D@2@@std@@V12@@std@@PAX@1@PBV?$_Tree_val@U?$_Tree_simple_types@U?$pair@$$CBV?$basic_string@DU?$char_traits@D@std@@V?$allocator@D@2@@std@@V12@@std@@@std@@@1@@Z 00428ba0 f i ccConfig.obj
 0002:00015c00       ??0?$_Tree_unchecked_const_iterator@V?$_Tree_val@U?$_Tree_simple_types@U?$pair@$$CBV?$basic_string@DU?$char_traits@D@std@@V?$allocator@D@2@@std@@V12@@std@@@std@@@std@@U_Iterator_base12@2@@std@@QAE@ABV01@@Z 00428c00 f i ccConfig.obj
 0002:00015c70       ??0?$_Tree_unchecked_const_iterator@V?$_Tree_val@U?$_Tree_simple_types@U?$pair@$$CBV?$basic_string@DU?$char_traits@D@std@@V?$allocator@D@2@@std@@V12@@std@@@std@@@std@@U_Iterator_base12@2@@std@@QAE@PAU?$_Tree_node@U?$pair@$$CBV?$basic_string@DU?$char_traits@D@std@@V?$allocator@D@2@@std@@V12@@std@@PAX@1@PBV?$_Tree_val@U?$_Tree_simple_types@U?$pair@$$CBV?$basic_string@DU?$char_traits@D@std@@V?$allocator@D@2@@std@@V12@@std@@@std@@@1@@Z 00428c70 f i ccConfig.obj
 0002:00015d30       ??0?$_Tree_val@U?$_Tree_simple_types@U?$pair@$$CBV?$basic_string@DU?$char_traits@D@std@@V?$allocator@D@2@@std@@V12@@std@@@std@@@std@@QAE@XZ 00428d30 f i ccConfig.obj
 0002:00015db0       ??0?$_Wrap_alloc@V?$allocator@D@std@@@std@@QAE@ABV?$allocator@D@1@@Z 00428db0 f i ccConfig.obj
 0002:00015e10       ??0?$_Wrap_alloc@V?$allocator@U?$_List_node@V?$basic_string@DU?$char_traits@D@std@@V?$allocator@D@2@@std@@PAX@std@@@std@@@std@@QAE@XZ 00428e10 f i ccConfig.obj
 0002:00015e70       ??0?$_Wrap_alloc@V?$allocator@U?$_Tree_node@U?$pair@$$CBV?$basic_string@DU?$char_traits@D@std@@V?$allocator@D@2@@std@@V12@@std@@PAX@std@@@std@@@std@@QAE@XZ 00428e70 f i ccConfig.obj
 0002:00015ed0       ??0?$allocator@D@std@@QAE@ABV01@@Z 00428ed0 f i ccConfig.obj
 0002:00015f10       ??0?$allocator@U?$_List_node@V?$basic_string@DU?$char_traits@D@std@@V?$allocator@D@2@@std@@PAX@std@@@std@@QAE@XZ 00428f10 f i ccConfig.obj
 0002:00015f50       ??0?$allocator@U?$_Tree_node@U?$pair@$$CBV?$basic_string@DU?$char_traits@D@std@@V?$allocator@D@2@@std@@V12@@std@@PAX@std@@@std@@QAE@XZ 00428f50 f i ccConfig.obj
 0002:00015f90       ??0?$allocator@U?$pair@$$CBV?$basic_string@DU?$char_traits@D@std@@V?$allocator@D@2@@std@@V12@@std@@@std@@QAE@XZ 00428f90 f i ccConfig.obj
 0002:00015fd0       ??0?$basic_string@DU?$char_traits@D@std@@V?$allocator@D@2@@std@@QAE@$$QAV01@@Z 00428fd0 f i ccConfig.obj
 0002:00016070       ??0?$basic_string@DU?$char_traits@D@std@@V?$allocator@D@2@@std@@QAE@ABV01@@Z 00429070 f i ccConfig.obj
 0002:00016160       ??0?$basic_string@DU?$char_traits@D@std@@V?$allocator@D@2@@std@@QAE@XZ 00429160 f i ccConfig.obj
 0002:00016220       ??0?$map@V?$basic_string@DU?$char_traits@D@std@@V?$allocator@D@2@@std@@V12@U?$less@V?$basic_string@DU?$char_traits@D@std@@V?$allocator@D@2@@std@@@2@V?$allocator@U?$pair@$$CBV?$basic_string@DU?$char_traits@D@std@@V?$allocator@D@2@@std@@V12@@std@@@2@@std@@QAE@XZ 00429220 f i ccConfig.obj
 0002:00016290       ??0_Iterator_base12@std@@QAE@ABU01@@Z 00429290 f i ccConfig.obj
 0002:00016310       ??0_Iterator_base12@std@@QAE@XZ 00429310 f i ccConfig.obj
 0002:00016360       ??1?$_Iterator012@Ubidirectional_iterator_tag@std@@U?$pair@$$CBV?$basic_string@DU?$char_traits@D@std@@V?$allocator@D@2@@std@@V12@@2@HPBU32@ABU32@U_Iterator_base12@2@@std@@QAE@XZ 00429360 f i ccConfig.obj
 0002:000163b0       ??1?$_Iterator012@Urandom_access_iterator_tag@std@@DHPBDABDU_Iterator_base12@2@@std@@QAE@XZ 004293b0 f i ccConfig.obj
 0002:00016400       ??1?$_String_const_iterator@V?$_String_val@U?$_Simple_types@D@std@@@std@@@std@@QAE@XZ 00429400 f i ccConfig.obj
 0002:00016450       ??1?$_String_iterator@V?$_String_val@U?$_Simple_types@D@std@@@std@@@std@@QAE@XZ 00429450 f i ccConfig.obj
 0002:000164a0       ??1?$_Tree@V?$_Tmap_traits@V?$basic_string@DU?$char_traits@D@std@@V?$allocator@D@2@@std@@V12@U?$less@V?$basic_string@DU?$char_traits@D@std@@V?$allocator@D@2@@std@@@2@V?$allocator@U?$pair@$$CBV?$basic_string@DU?$char_traits@D@std@@V?$allocator@D@2@@std@@V12@@std@@@2@$0A@@std@@@std@@QAE@XZ 004294a0 f i ccConfig.obj
 0002:00016500       ??1?$_Tree_alloc@$0A@U?$_Tree_base_types@U?$pair@$$CBV?$basic_string@DU?$char_traits@D@std@@V?$allocator@D@2@@std@@V12@@std@@V?$allocator@U?$pair@$$CBV?$basic_string@DU?$char_traits@D@std@@V?$allocator@D@2@@std@@V12@@std@@@2@@std@@@std@@QAE@XZ 00429500 f i ccConfig.obj
 0002:00016570       ??1?$_Tree_buy@U?$pair@$$CBV?$basic_string@DU?$char_traits@D@std@@V?$allocator@D@2@@std@@V12@@std@@V?$allocator@U?$pair@$$CBV?$basic_string@DU?$char_traits@D@std@@V?$allocator@D@2@@std@@V12@@std@@@2@@std@@QAE@XZ 00429570 f i ccConfig.obj
 0002:000165c0       ??1?$_Tree_comp@$0A@V?$_Tmap_traits@V?$basic_string@DU?$char_traits@D@std@@V?$allocator@D@2@@std@@V12@U?$less@V?$basic_string@DU?$char_traits@D@std@@V?$allocator@D@2@@std@@@2@V?$allocator@U?$pair@$$CBV?$basic_string@DU?$char_traits@D@std@@V?$allocator@D@2@@std@@V12@@std@@@2@$0A@@std@@@std@@QAE@XZ 004295c0 f i ccConfig.obj
 0002:00016610       ??1?$_Tree_const_iterator@V?$_Tree_val@U?$_Tree_simple_types@U?$pair@$$CBV?$basic_string@DU?$char_traits@D@std@@V?$allocator@D@2@@std@@V12@@std@@@std@@@std@@@std@@QAE@XZ 00429610 f i ccConfig.obj
 0002:00016660       ??1?$_Tree_iterator@V?$_Tree_val@U?$_Tree_simple_types@U?$pair@$$CBV?$basic_string@DU?$char_traits@D@std@@V?$allocator@D@2@@std@@V12@@std@@@std@@@std@@@std@@QAE@XZ 00429660 f i ccConfig.obj
 0002:000166b0       ??1?$_Tree_unchecked_const_iterator@V?$_Tree_val@U?$_Tree_simple_types@U?$pair@$$CBV?$basic_string@DU?$char_traits@D@std@@V?$allocator@D@2@@std@@V12@@std@@@std@@@std@@U_Iterator_base12@2@@std@@QAE@XZ 004296b0 f i ccConfig.obj
 0002:00016700       ??1?$_Tree_val@U?$_Tree_simple_types@U?$pair@$$CBV?$basic_string@DU?$char_traits@D@std@@V?$allocator@D@2@@std@@V12@@std@@@std@@@std@@QAE@XZ 00429700 f i ccConfig.obj
 0002:00016760       ??1?$basic_string@DU?$char_traits@D@std@@V?$allocator@D@2@@std@@QAE@XZ 00429760 f i ccConfig.obj
 0002:000167c0       ??1?$map@V?$basic_string@DU?$char_traits@D@std@@V?$allocator@D@2@@std@@V12@U?$less@V?$basic_string@DU?$char_traits@D@std@@V?$allocator@D@2@@std@@@2@V?$allocator@U?$pair@$$CBV?$basic_string@DU?$char_traits@D@std@@V?$allocator@D@2@@std@@V12@@std@@@2@@std@@QAE@XZ 004297c0 f i ccConfig.obj
 0002:00016810       ??1?$pair@$$CBV?$basic_string@DU?$char_traits@D@std@@V?$allocator@D@2@@std@@V12@@std@@QAE@XZ 00429810 f i ccConfig.obj
 0002:00016870       ??1?$pair@V?$_Tree_iterator@V?$_Tree_val@U?$_Tree_simple_types@U?$pair@$$CBV?$basic_string@DU?$char_traits@D@std@@V?$allocator@D@2@@std@@V12@@std@@@std@@@std@@@std@@_N@std@@QAE@XZ 00429870 f i ccConfig.obj
 0002:000168c0       ??1?$pair@V?$basic_string@DU?$char_traits@D@std@@V?$allocator@D@2@@std@@V12@@std@@QAE@XZ 004298c0 f i ccConfig.obj
 0002:00016920       ??1_Iterator_base12@std@@QAE@XZ 00429920 f i ccConfig.obj
 0002:000169e0       ??4?$_Iterator012@Ubidirectional_iterator_tag@std@@U?$pair@$$CBV?$basic_string@DU?$char_traits@D@std@@V?$allocator@D@2@@std@@V12@@2@HPBU32@ABU32@U_Iterator_base12@2@@std@@QAEAAU01@ABU01@@Z 004299e0 f i ccConfig.obj
 0002:00016a40       ??4?$_Tree_const_iterator@V?$_Tree_val@U?$_Tree_simple_types@U?$pair@$$CBV?$basic_string@DU?$char_traits@D@std@@V?$allocator@D@2@@std@@V12@@std@@@std@@@std@@@std@@QAEAAV01@ABV01@@Z 00429a40 f i ccConfig.obj
 0002:00016aa0       ??4?$_Tree_iterator@V?$_Tree_val@U?$_Tree_simple_types@U?$pair@$$CBV?$basic_string@DU?$char_traits@D@std@@V?$allocator@D@2@@std@@V12@@std@@@std@@@std@@@std@@QAEAAV01@ABV01@@Z 00429aa0 f i ccConfig.obj
 0002:00016b00       ??4?$_Tree_unchecked_const_iterator@V?$_Tree_val@U?$_Tree_simple_types@U?$pair@$$CBV?$basic_string@DU?$char_traits@D@std@@V?$allocator@D@2@@std@@V12@@std@@@std@@@std@@U_Iterator_base12@2@@std@@QAEAAV01@ABV01@@Z 00429b00 f i ccConfig.obj
 0002:00016b70       ??4?$basic_string@DU?$char_traits@D@std@@V?$allocator@D@2@@std@@QAEAAV01@$$QAV01@@Z 00429b70 f i ccConfig.obj
 0002:00016c90       ??4?$basic_string@DU?$char_traits@D@std@@V?$allocator@D@2@@std@@QAEAAV01@ABV01@@Z 00429c90 f i ccConfig.obj
 0002:00016d60       ??4_Iterator_base12@std@@QAEAAU01@ABU01@@Z 00429d60 f i ccConfig.obj
 0002:00016ea0       ??8?$_String_const_iterator@V?$_String_val@U?$_Simple_types@D@std@@@std@@@std@@QBE_NABV01@@Z 00429ea0 f i ccConfig.obj
 0002:00016f30       ??8?$_Tree_const_iterator@V?$_Tree_val@U?$_Tree_simple_types@U?$pair@$$CBV?$basic_string@DU?$char_traits@D@std@@V?$allocator@D@2@@std@@V12@@std@@@std@@@std@@@std@@QBE_NABV01@@Z 00429f30 f i ccConfig.obj
 0002:00017090       ??9?$_Tree_const_iterator@V?$_Tree_val@U?$_Tree_simple_types@U?$pair@$$CBV?$basic_string@DU?$char_traits@D@std@@V?$allocator@D@2@@std@@V12@@std@@@std@@@std@@@std@@QBE_NABV01@@Z 0042a090 f i ccConfig.obj
 0002:00017120       ??C?$_Tree_const_iterator@V?$_Tree_val@U?$_Tree_simple_types@U?$pair@$$CBV?$basic_string@DU?$char_traits@D@std@@V?$allocator@D@2@@std@@V12@@std@@@std@@@std@@@std@@QBEPBU?$pair@$$CBV?$basic_string@DU?$char_traits@D@std@@V?$allocator@D@2@@std@@V12@@1@XZ 0042a120 f i ccConfig.obj
 0002:00017180       ??C?$_Tree_iterator@V?$_Tree_val@U?$_Tree_simple_types@U?$pair@$$CBV?$basic_string@DU?$char_traits@D@std@@V?$allocator@D@2@@std@@V12@@std@@@std@@@std@@@std@@QBEPAU?$pair@$$CBV?$basic_string@DU?$char_traits@D@std@@V?$allocator@D@2@@std@@V12@@1@XZ 0042a180 f i ccConfig.obj
 0002:000171e0       ??D?$_String_const_iterator@V?$_String_val@U?$_Simple_types@D@std@@@std@@@std@@QBEABDXZ 0042a1e0 f i ccConfig.obj
 0002:00017330       ??D?$_String_iterator@V?$_String_val@U?$_Simple_types@D@std@@@std@@@std@@QBEAADXZ 0042a330 f i ccConfig.obj
 0002:00017380       ??D?$_Tree_const_iterator@V?$_Tree_val@U?$_Tree_simple_types@U?$pair@$$CBV?$basic_string@DU?$char_traits@D@std@@V?$allocator@D@2@@std@@V12@@std@@@std@@@std@@@std@@QBEABU?$pair@$$CBV?$basic_string@DU?$char_traits@D@std@@V?$allocator@D@2@@std@@V12@@1@XZ 0042a380 f i ccConfig.obj
 0002:000174c0       ??D?$_Tree_iterator@V?$_Tree_val@U?$_Tree_simple_types@U?$pair@$$CBV?$basic_string@DU?$char_traits@D@std@@V?$allocator@D@2@@std@@V12@@std@@@std@@@std@@@std@@QBEAAU?$pair@$$CBV?$basic_string@DU?$char_traits@D@std@@V?$allocator@D@2@@std@@V12@@1@XZ 0042a4c0 f i ccConfig.obj
 0002:00017510       ??E?$_Tree_const_iterator@V?$_Tree_val@U?$_Tree_simple_types@U?$pair@$$CBV?$basic_string@DU?$char_traits@D@std@@V?$allocator@D@2@@std@@V12@@std@@@std@@@std@@@std@@QAE?AV01@H@Z 0042a510 f i ccConfig.obj
 0002:00017630       ??E?$_Tree_const_iterator@V?$_Tree_val@U?$_Tree_simple_types@U?$pair@$$CBV?$basic_string@DU?$char_traits@D@std@@V?$allocator@D@2@@std@@V12@@std@@@std@@@std@@@std@@QAEAAV01@XZ 0042a630 f i ccConfig.obj
 0002:00017770       ??E?$_Tree_iterator@V?$_Tree_val@U?$_Tree_simple_types@U?$pair@$$CBV?$basic_string@DU?$char_traits@D@std@@V?$allocator@D@2@@std@@V12@@std@@@std@@@std@@@std@@QAE?AV01@H@Z 0042a770 f i ccConfig.obj
 0002:00017890       ??E?$_Tree_iterator@V?$_Tree_val@U?$_Tree_simple_types@U?$pair@$$CBV?$basic_string@DU?$char_traits@D@std@@V?$allocator@D@2@@std@@V12@@std@@@std@@@std@@@std@@QAEAAV01@XZ 0042a890 f i ccConfig.obj
 0002:000178f0       ??E?$_Tree_unchecked_const_iterator@V?$_Tree_val@U?$_Tree_simple_types@U?$pair@$$CBV?$basic_string@DU?$char_traits@D@std@@V?$allocator@D@2@@std@@V12@@std@@@std@@@std@@U_Iterator_base12@2@@std@@QAEAAV01@XZ 0042a8f0 f i ccConfig.obj
 0002:00017a20       ??F?$_Tree_const_iterator@V?$_Tree_val@U?$_Tree_simple_types@U?$pair@$$CBV?$basic_string@DU?$char_traits@D@std@@V?$allocator@D@2@@std@@V12@@std@@@std@@@std@@@std@@QAEAAV01@XZ 0042aa20 f i ccConfig.obj
 0002:00017c00       ??F?$_Tree_iterator@V?$_Tree_val@U?$_Tree_simple_types@U?$pair@$$CBV?$basic_string@DU?$char_traits@D@std@@V?$allocator@D@2@@std@@V12@@std@@@std@@@std@@@std@@QAEAAV01@XZ 0042ac00 f i ccConfig.obj
 0002:00017c60       ??F?$_Tree_unchecked_const_iterator@V?$_Tree_val@U?$_Tree_simple_types@U?$pair@$$CBV?$basic_string@DU?$char_traits@D@std@@V?$allocator@D@2@@std@@V12@@std@@@std@@@std@@U_Iterator_base12@2@@std@@QAEAAV01@XZ 0042ac60 f i ccConfig.obj
 0002:00017dc0       ??G?$_String_const_iterator@V?$_String_val@U?$_Simple_types@D@std@@@std@@@std@@QBEHABV01@@Z 0042adc0 f i ccConfig.obj
 0002:00017e30       ??G?$_String_iterator@V?$_String_val@U?$_Simple_types@D@std@@@std@@@std@@QBEHABV?$_String_const_iterator@V?$_String_val@U?$_Simple_types@D@std@@@std@@@1@@Z 0042ae30 f i ccConfig.obj
 0002:00017f20       ??R?$less@V?$basic_string@DU?$char_traits@D@std@@V?$allocator@D@2@@std@@@std@@QBE_NABV?$basic_string@DU?$char_traits@D@std@@V?$allocator@D@2@@1@0@Z 0042af20 f i ccConfig.obj
 0002:00017f80       ??Y?$basic_string@DU?$char_traits@D@std@@V?$allocator@D@2@@std@@QAEAAV01@ABV01@@Z 0042af80 f i ccConfig.obj
 0002:00017fe0       ??Y?$basic_string@DU?$char_traits@D@std@@V?$allocator@D@2@@std@@QAEAAV01@PBD@Z 0042afe0 f i ccConfig.obj
 0002:00018040       ??_G?$pair@$$CBV?$basic_string@DU?$char_traits@D@std@@V?$allocator@D@2@@std@@V12@@std@@QAEPAXI@Z 0042b040 f i ccConfig.obj
 0002:000180b0       ??_GccConfig@@UAEPAXI@Z    0042b0b0 f i ccConfig.obj
 0002:000180b0       ??_EccConfig@@UAEPAXI@Z    0042b0b0 f i ccConfig.obj
 0002:00018120       ?_Adopt@_Iterator_base0@std@@QAEXPBX@Z 0042b120 f i ccConfig.obj
 0002:00018160       ?_Adopt@_Iterator_base12@std@@QAEXPBU_Container_base12@2@@Z 0042b160 f i ccConfig.obj
 0002:00018310       ?_Alloc_proxy@?$_Tree_alloc@$0A@U?$_Tree_base_types@U?$pair@$$CBV?$basic_string@DU?$char_traits@D@std@@V?$allocator@D@2@@std@@V12@@std@@V?$allocator@U?$pair@$$CBV?$basic_string@DU?$char_traits@D@std@@V?$allocator@D@2@@std@@V12@@std@@@2@@std@@@std@@QAEXXZ 0042b310 f i ccConfig.obj
 0002:000183f0       ?_Assign_rv@?$basic_string@DU?$char_traits@D@std@@V?$allocator@D@2@@std@@QAEX$$QAV12@@Z 0042b3f0 f i ccConfig.obj
 0002:000184e0       ?_Buyheadnode@?$_Tree_alloc@$0A@U?$_Tree_base_types@U?$pair@$$CBV?$basic_string@DU?$char_traits@D@std@@V?$allocator@D@2@@std@@V12@@std@@V?$allocator@U?$pair@$$CBV?$basic_string@DU?$char_traits@D@std@@V?$allocator@D@2@@std@@V12@@std@@@2@@std@@@std@@QAEPAU?$_Tree_node@U?$pair@$$CBV?$basic_string@DU?$char_traits@D@std@@V?$allocator@D@2@@std@@V12@@std@@PAX@2@XZ 0042b4e0 f i ccConfig.obj
 0002:00018740       ?_Buynode0@?$_List_alloc@$0A@U?$_List_base_types@V?$basic_string@DU?$char_traits@D@std@@V?$allocator@D@2@@std@@V?$allocator@V?$basic_string@DU?$char_traits@D@std@@V?$allocator@D@2@@std@@@2@@std@@@std@@QAEPAU?$_List_node@V?$basic_string@DU?$char_traits@D@std@@V?$allocator@D@2@@std@@PAX@2@PAU32@0@Z 0042b740 f i ccConfig.obj
 0002:00018900       ?_Buynode0@?$_Tree_buy@U?$pair@$$CBV?$basic_string@DU?$char_traits@D@std@@V?$allocator@D@2@@std@@V12@@std@@V?$allocator@U?$pair@$$CBV?$basic_string@DU?$char_traits@D@std@@V?$allocator@D@2@@std@@V12@@std@@@2@@std@@QAEPAU?$_Tree_node@U?$pair@$$CBV?$basic_string@DU?$char_traits@D@std@@V?$allocator@D@2@@std@@V12@@std@@PAX@2@XZ 0042b900 f i ccConfig.obj
 0002:00018b10       ?_Change_alloc@?$_String_alloc@$0A@U?$_String_base_types@DV?$allocator@D@std@@@std@@@std@@QAEXABU?$_Wrap_alloc@V?$allocator@D@std@@@2@@Z 0042bb10 f i ccConfig.obj
 0002:00018b50       ?_Clrcont@_Iterator_base12@std@@QAEXXZ 0042bb50 f i ccConfig.obj
 0002:00018b90       ?_Color@?$_Tree_val@U?$_Tree_simple_types@U?$pair@$$CBV?$basic_string@DU?$char_traits@D@std@@V?$allocator@D@2@@std@@V12@@std@@@std@@@std@@SAAADPAU?$_Tree_node@U?$pair@$$CBV?$basic_string@DU?$char_traits@D@std@@V?$allocator@D@2@@std@@V12@@std@@PAX@2@@Z 0042bb90 f i ccConfig.obj
 0002:00018bd0       ?_Compat@?$_String_const_iterator@V?$_String_val@U?$_Simple_types@D@std@@@std@@@std@@QBEXABV12@@Z 0042bbd0 f i ccConfig.obj
 0002:00018cf0       ?_Destroy_if_not_nil@?$_Tree@V?$_Tmap_traits@V?$basic_string@DU?$char_traits@D@std@@V?$allocator@D@2@@std@@V12@U?$less@V?$basic_string@DU?$char_traits@D@std@@V?$allocator@D@2@@std@@@2@V?$allocator@U?$pair@$$CBV?$basic_string@DU?$char_traits@D@std@@V?$allocator@D@2@@std@@V12@@std@@@2@$0A@@std@@@std@@IAEXPAU?$_Tree_node@U?$pair@$$CBV?$basic_string@DU?$char_traits@D@std@@V?$allocator@D@2@@std@@V12@@std@@PAX@2@@Z 0042bcf0 f i ccConfig.obj
 0002:00018da0       ?_Erase@?$_Tree@V?$_Tmap_traits@V?$basic_string@DU?$char_traits@D@std@@V?$allocator@D@2@@std@@V12@U?$less@V?$basic_string@DU?$char_traits@D@std@@V?$allocator@D@2@@std@@@2@V?$allocator@U?$pair@$$CBV?$basic_string@DU?$char_traits@D@std@@V?$allocator@D@2@@std@@V12@@std@@@2@$0A@@std@@@std@@IAEXPAU?$_Tree_node@U?$pair@$$CBV?$basic_string@DU?$char_traits@D@std@@V?$allocator@D@2@@std@@V12@@std@@PAX@2@@Z 0042bda0 f i ccConfig.obj
 0002:00018eb0       ?_Free_proxy@?$_Tree_alloc@$0A@U?$_Tree_base_types@U?$pair@$$CBV?$basic_string@DU?$char_traits@D@std@@V?$allocator@D@2@@std@@V12@@std@@V?$allocator@U?$pair@$$CBV?$basic_string@DU?$char_traits@D@std@@V?$allocator@D@2@@std@@V12@@std@@@2@@std@@@std@@QAEXXZ 0042beb0 f i ccConfig.obj
 0002:00018fa0       ?_Freeheadnode@?$_Tree_alloc@$0A@U?$_Tree_base_types@U?$pair@$$CBV?$basic_string@DU?$char_traits@D@std@@V?$allocator@D@2@@std@@V12@@std@@V?$allocator@U?$pair@$$CBV?$basic_string@DU?$char_traits@D@std@@V?$allocator@D@2@@std@@V12@@std@@@2@@std@@@std@@QAEXPAU?$_Tree_node@U?$pair@$$CBV?$basic_string@DU?$char_traits@D@std@@V?$allocator@D@2@@std@@V12@@std@@PAX@2@@Z 0042bfa0 f i ccConfig.obj
 0002:000190b0       ?_Freenode0@?$_Tree_buy@U?$pair@$$CBV?$basic_string@DU?$char_traits@D@std@@V?$allocator@D@2@@std@@V12@@std@@V?$allocator@U?$pair@$$CBV?$basic_string@DU?$char_traits@D@std@@V?$allocator@D@2@@std@@V12@@std@@@2@@std@@QAEXPAU?$_Tree_node@U?$pair@$$CBV?$basic_string@DU?$char_traits@D@std@@V?$allocator@D@2@@std@@V12@@std@@PAX@2@@Z 0042c0b0 f i ccConfig.obj
 0002:000191c0       ?_Getal@?$_List_alloc@$0A@U?$_List_base_types@V?$basic_string@DU?$char_traits@D@std@@V?$allocator@D@2@@std@@V?$allocator@V?$basic_string@DU?$char_traits@D@std@@V?$allocator@D@2@@std@@@2@@std@@@std@@QBE?AU?$_Wrap_alloc@V?$allocator@U?$_List_node@V?$basic_string@DU?$char_traits@D@std@@V?$allocator@D@2@@std@@PAX@std@@@std@@@2@XZ 0042c1c0 f i ccConfig.obj
 0002:00019220       ?_Getal@?$_Tree_alloc@$0A@U?$_Tree_base_types@U?$pair@$$CBV?$basic_string@DU?$char_traits@D@std@@V?$allocator@D@2@@std@@V12@@std@@V?$allocator@U?$pair@$$CBV?$basic_string@DU?$char_traits@D@std@@V?$allocator@D@2@@std@@V12@@std@@@2@@std@@@std@@QBE?AU?$_Wrap_alloc@V?$allocator@U?$_Tree_node@U?$pair@$$CBV?$basic_string@DU?$char_traits@D@std@@V?$allocator@D@2@@std@@V12@@std@@PAX@std@@@std@@@2@XZ 0042c220 f i ccConfig.obj
 0002:00019280       ?_Getcomp@?$_Tree_comp@$0A@V?$_Tmap_traits@V?$basic_string@DU?$char_traits@D@std@@V?$allocator@D@2@@std@@V12@U?$less@V?$basic_string@DU?$char_traits@D@std@@V?$allocator@D@2@@std@@@2@V?$allocator@U?$pair@$$CBV?$basic_string@DU?$char_traits@D@std@@V?$allocator@D@2@@std@@V12@@std@@@2@$0A@@std@@@std@@QBE?AU?$less@V?$basic_string@DU?$char_traits@D@std@@V?$allocator@D@2@@std@@@2@XZ 0042c280 f i ccConfig.obj
 0002:000192c0       ?_Getcont@_Iterator_base12@std@@QBEPBU_Container_base12@2@XZ 0042c2c0 f i ccConfig.obj
 0002:00019330       ?_Getpnext@_Iterator_base12@std@@QAEPAPAU12@XZ 0042c330 f i ccConfig.obj
 0002:00019370       ?_Incsize@?$list@V?$basic_string@DU?$char_traits@D@std@@V?$allocator@D@2@@std@@V?$allocator@V?$basic_string@DU?$char_traits@D@std@@V?$allocator@D@2@@std@@@2@@std@@QAEXI@Z 0042c370 f i ccConfig.obj
 0002:00019400       ?_Isnil@?$_Tree_val@U?$_Tree_simple_types@U?$pair@$$CBV?$basic_string@DU?$char_traits@D@std@@V?$allocator@D@2@@std@@V12@@std@@@std@@@std@@SAAADPAU?$_Tree_node@U?$pair@$$CBV?$basic_string@DU?$char_traits@D@std@@V?$allocator@D@2@@std@@V12@@std@@PAX@2@@Z 0042c400 f i ccConfig.obj
 0002:00019440       ?_Key@?$_Tree@V?$_Tmap_traits@V?$basic_string@DU?$char_traits@D@std@@V?$allocator@D@2@@std@@V12@U?$less@V?$basic_string@DU?$char_traits@D@std@@V?$allocator@D@2@@std@@@2@V?$allocator@U?$pair@$$CBV?$basic_string@DU?$char_traits@D@std@@V?$allocator@D@2@@std@@V12@@std@@@2@$0A@@std@@@std@@IBEABV?$basic_string@DU?$char_traits@D@std@@V?$allocator@D@2@@2@PAU?$_Tree_node@U?$pair@$$CBV?$basic_string@DU?$char_traits@D@std@@V?$allocator@D@2@@std@@V12@@std@@PAX@2@@Z 0042c440 f i ccConfig.obj
 0002:000194b0       ?_Kfn@?$_Tree@V?$_Tmap_traits@V?$basic_string@DU?$char_traits@D@std@@V?$allocator@D@2@@std@@V12@U?$less@V?$basic_string@DU?$char_traits@D@std@@V?$allocator@D@2@@std@@@2@V?$allocator@U?$pair@$$CBV?$basic_string@DU?$char_traits@D@std@@V?$allocator@D@2@@std@@V12@@std@@@2@$0A@@std@@@std@@IBEABV?$basic_string@DU?$char_traits@D@std@@V?$allocator@D@2@@2@ABU?$pair@$$CBV?$basic_string@DU?$char_traits@D@std@@V?$allocator@D@2@@std@@V12@@2@@Z 0042c4b0 f i ccConfig.obj
 0002:00019510       ?_Left@?$_Tree_val@U?$_Tree_simple_types@U?$pair@$$CBV?$basic_string@DU?$char_traits@D@std@@V?$allocator@D@2@@std@@V12@@std@@@std@@@std@@SAAAPAU?$_Tree_node@U?$pair@$$CBV?$basic_string@DU?$char_traits@D@std@@V?$allocator@D@2@@std@@V12@@std@@PAX@2@PAU32@@Z 0042c510 f i ccConfig.obj
 0002:00019550       ?_Lmost@?$_Tree@V?$_Tmap_traits@V?$basic_string@DU?$char_traits@D@std@@V?$allocator@D@2@@std@@V12@U?$less@V?$basic_string@DU?$char_traits@D@std@@V?$allocator@D@2@@std@@@2@V?$allocator@U?$pair@$$CBV?$basic_string@DU?$char_traits@D@std@@V?$allocator@D@2@@std@@V12@@std@@@2@$0A@@std@@@std@@IBEAAPAU?$_Tree_node@U?$pair@$$CBV?$basic_string@DU?$char_traits@D@std@@V?$allocator@D@2@@std@@V12@@std@@PAX@2@XZ 0042c550 f i ccConfig.obj
 0002:000195b0       ?_Lrotate@?$_Tree@V?$_Tmap_traits@V?$basic_string@DU?$char_traits@D@std@@V?$allocator@D@2@@std@@V12@U?$less@V?$basic_string@DU?$char_traits@D@std@@V?$allocator@D@2@@std@@@2@V?$allocator@U?$pair@$$CBV?$basic_string@DU?$char_traits@D@std@@V?$allocator@D@2@@std@@V12@@std@@@2@$0A@@std@@@std@@IAEXPAU?$_Tree_node@U?$pair@$$CBV?$basic_string@DU?$char_traits@D@std@@V?$allocator@D@2@@std@@V12@@std@@PAX@2@@Z 0042c5b0 f i ccConfig.obj
 0002:00019760       ?_Max@?$_Tree_val@U?$_Tree_simple_types@U?$pair@$$CBV?$basic_string@DU?$char_traits@D@std@@V?$allocator@D@2@@std@@V12@@std@@@std@@@std@@SAPAU?$_Tree_node@U?$pair@$$CBV?$basic_string@DU?$char_traits@D@std@@V?$allocator@D@2@@std@@V12@@std@@PAX@2@PAU32@@Z 0042c760 f i ccConfig.obj
 0002:000197e0       ?_Min@?$_Tree_val@U?$_Tree_simple_types@U?$pair@$$CBV?$basic_string@DU?$char_traits@D@std@@V?$allocator@D@2@@std@@V12@@std@@@std@@@std@@SAPAU?$_Tree_node@U?$pair@$$CBV?$basic_string@DU?$char_traits@D@std@@V?$allocator@D@2@@std@@V12@@std@@PAX@2@PAU32@@Z 0042c7e0 f i ccConfig.obj
 0002:00019860       ?_Mynode@?$_List_unchecked_const_iterator@V?$_List_val@U?$_List_simple_types@V?$basic_string@DU?$char_traits@D@std@@V?$allocator@D@2@@std@@@std@@@std@@U_Iterator_base0@2@@std@@QBEPAU?$_List_node@V?$basic_string@DU?$char_traits@D@std@@V?$allocator@D@2@@std@@PAX@2@XZ 0042c860 f i ccConfig.obj
 0002:000198a0       ?_Mynode@?$_Tree_unchecked_const_iterator@V?$_Tree_val@U?$_Tree_simple_types@U?$pair@$$CBV?$basic_string@DU?$char_traits@D@std@@V?$allocator@D@2@@std@@V12@@std@@@std@@@std@@U_Iterator_base12@2@@std@@QBEPAU?$_Tree_node@U?$pair@$$CBV?$basic_string@DU?$char_traits@D@std@@V?$allocator@D@2@@std@@V12@@std@@PAX@2@XZ 0042c8a0 f i ccConfig.obj
 0002:000198e0       ?_Myval@?$_List_val@U?$_List_simple_types@V?$basic_string@DU?$char_traits@D@std@@V?$allocator@D@2@@std@@@std@@@std@@SAAAV?$basic_string@DU?$char_traits@D@std@@V?$allocator@D@2@@2@PAU?$_List_node@V?$basic_string@DU?$char_traits@D@std@@V?$allocator@D@2@@std@@PAX@2@@Z 0042c8e0 f i ccConfig.obj
 0002:00019920       ?_Myval@?$_Tree_val@U?$_Tree_simple_types@U?$pair@$$CBV?$basic_string@DU?$char_traits@D@std@@V?$allocator@D@2@@std@@V12@@std@@@std@@@std@@SAAAU?$pair@$$CBV?$basic_string@DU?$char_traits@D@std@@V?$allocator@D@2@@std@@V12@@2@PAU?$_Tree_node@U?$pair@$$CBV?$basic_string@DU?$char_traits@D@std@@V?$allocator@D@2@@std@@V12@@std@@PAX@2@@Z 0042c920 f i ccConfig.obj
 0002:00019960       ?_Nextnode@?$_List_val@U?$_List_simple_types@V?$basic_string@DU?$char_traits@D@std@@V?$allocator@D@2@@std@@@std@@@std@@SAAAPAU?$_List_node@V?$basic_string@DU?$char_traits@D@std@@V?$allocator@D@2@@std@@PAX@2@PAU32@@Z 0042c960 f i ccConfig.obj
 0002:000199a0       ?_Orphan_me@_Iterator_base12@std@@QAEXXZ 0042c9a0 f i ccConfig.obj
 0002:00019a70       ?_Orphan_ptr@?$_Tree@V?$_Tmap_traits@V?$basic_string@DU?$char_traits@D@std@@V?$allocator@D@2@@std@@V12@U?$less@V?$basic_string@DU?$char_traits@D@std@@V?$allocator@D@2@@std@@@2@V?$allocator@U?$pair@$$CBV?$basic_string@DU?$char_traits@D@std@@V?$allocator@D@2@@std@@V12@@std@@@2@$0A@@std@@@std@@IBEXAAV12@PAU?$_Tree_node@U?$pair@$$CBV?$basic_string@DU?$char_traits@D@std@@V?$allocator@D@2@@std@@V12@@std@@PAX@2@@Z 0042ca70 f i ccConfig.obj
 0002:00019c00       ?_Parent@?$_Tree_val@U?$_Tree_simple_types@U?$pair@$$CBV?$basic_string@DU?$char_traits@D@std@@V?$allocator@D@2@@std@@V12@@std@@@std@@@std@@SAAAPAU?$_Tree_node@U?$pair@$$CBV?$basic_string@DU?$char_traits@D@std@@V?$allocator@D@2@@std@@V12@@std@@PAX@2@PAU32@@Z 0042cc00 f i ccConfig.obj
 0002:00019c40       ?_Pdif@?$basic_string@DU?$char_traits@D@std@@V?$allocator@D@2@@std@@SAIV?$_String_const_iterator@V?$_String_val@U?$_Simple_types@D@std@@@std@@@2@0@Z 0042cc40 f i ccConfig.obj
 0002:00019d30       ?_Prevnode@?$_List_val@U?$_List_simple_types@V?$basic_string@DU?$char_traits@D@std@@V?$allocator@D@2@@std@@@std@@@std@@SAAAPAU?$_List_node@V?$basic_string@DU?$char_traits@D@std@@V?$allocator@D@2@@std@@PAX@2@PAU32@@Z 0042cd30 f i ccConfig.obj
 0002:00019d70       ?_Right@?$_Tree_val@U?$_Tree_simple_types@U?$pair@$$CBV?$basic_string@DU?$char_traits@D@std@@V?$allocator@D@2@@std@@V12@@std@@@std@@@std@@SAAAPAU?$_Tree_node@U?$pair@$$CBV?$basic_string@DU?$char_traits@D@std@@V?$allocator@D@2@@std@@V12@@std@@PAX@2@PAU32@@Z 0042cd70 f i ccConfig.obj
 0002:00019db0       ?_Rmost@?$_Tree@V?$_Tmap_traits@V?$basic_string@DU?$char_traits@D@std@@V?$allocator@D@2@@std@@V12@U?$less@V?$basic_string@DU?$char_traits@D@std@@V?$allocator@D@2@@std@@@2@V?$allocator@U?$pair@$$CBV?$basic_string@DU?$char_traits@D@std@@V?$allocator@D@2@@std@@V12@@std@@@2@$0A@@std@@@std@@IBEAAPAU?$_Tree_node@U?$pair@$$CBV?$basic_string@DU?$char_traits@D@std@@V?$allocator@D@2@@std@@V12@@std@@PAX@2@XZ 0042cdb0 f i ccConfig.obj
 0002:00019e10       ?_Root@?$_Tree@V?$_Tmap_traits@V?$basic_string@DU?$char_traits@D@std@@V?$allocator@D@2@@std@@V12@U?$less@V?$basic_string@DU?$char_traits@D@std@@V?$allocator@D@2@@std@@@2@V?$allocator@U?$pair@$$CBV?$basic_string@DU?$char_traits@D@std@@V?$allocator@D@2@@std@@V12@@std@@@2@$0A@@std@@@std@@IBEAAPAU?$_Tree_node@U?$pair@$$CBV?$basic_string@DU?$char_traits@D@std@@V?$allocator@D@2@@std@@V12@@std@@PAX@2@XZ 0042ce10 f i ccConfig.obj
 0002:00019e70       ?_Rrotate@?$_Tree@V?$_Tmap_traits@V?$basic_string@DU?$char_traits@D@std@@V?$allocator@D@2@@std@@V12@U?$less@V?$basic_string@DU?$char_traits@D@std@@V?$allocator@D@2@@std@@@2@V?$allocator@U?$pair@$$CBV?$basic_string@DU?$char_traits@D@std@@V?$allocator@D@2@@std@@V12@@std@@@2@$0A@@std@@@std@@IAEXPAU?$_Tree_node@U?$pair@$$CBV?$basic_string@DU?$char_traits@D@std@@V?$allocator@D@2@@std@@V12@@std@@PAX@2@@Z 0042ce70 f i ccConfig.obj
 0002:0001a020       ?_Tidy@?$_Tree@V?$_Tmap_traits@V?$basic_string@DU?$char_traits@D@std@@V?$allocator@D@2@@std@@V12@U?$less@V?$basic_string@DU?$char_traits@D@std@@V?$allocator@D@2@@std@@@2@V?$allocator@U?$pair@$$CBV?$basic_string@DU?$char_traits@D@std@@V?$allocator@D@2@@std@@V12@@std@@@2@$0A@@std@@@std@@IAEXXZ 0042d020 f i ccConfig.obj
 0002:0001a1b0       ?_Unchecked_end@?$list@V?$basic_string@DU?$char_traits@D@std@@V?$allocator@D@2@@std@@V?$allocator@V?$basic_string@DU?$char_traits@D@std@@V?$allocator@D@2@@std@@@2@@std@@QAE?AV?$_List_unchecked_iterator@V?$_List_val@U?$_List_simple_types@V?$basic_string@DU?$char_traits@D@std@@V?$allocator@D@2@@std@@@std@@@std@@@2@XZ 0042d1b0 f i ccConfig.obj
 0002:0001a220       ?allocate@?$_Wrap_alloc@V?$allocator@U?$_List_node@V?$basic_string@DU?$char_traits@D@std@@V?$allocator@D@2@@std@@PAX@std@@@std@@@std@@QAEPAU?$_List_node@V?$basic_string@DU?$char_traits@D@std@@V?$allocator@D@2@@std@@PAX@2@I@Z 0042d220 f i ccConfig.obj
 0002:0001a280       ?allocate@?$_Wrap_alloc@V?$allocator@U?$_Tree_node@U?$pair@$$CBV?$basic_string@DU?$char_traits@D@std@@V?$allocator@D@2@@std@@V12@@std@@PAX@std@@@std@@@std@@QAEPAU?$_Tree_node@U?$pair@$$CBV?$basic_string@DU?$char_traits@D@std@@V?$allocator@D@2@@std@@V12@@std@@PAX@2@I@Z 0042d280 f i ccConfig.obj
 0002:0001a2e0       ?allocate@?$_Wrap_alloc@V?$allocator@U_Container_proxy@std@@@std@@@std@@QAEPAU_Container_proxy@2@I@Z 0042d2e0 f i ccConfig.obj
 0002:0001a340       ?allocate@?$allocator@U?$_List_node@V?$basic_string@DU?$char_traits@D@std@@V?$allocator@D@2@@std@@PAX@std@@@std@@QAEPAU?$_List_node@V?$basic_string@DU?$char_traits@D@std@@V?$allocator@D@2@@std@@PAX@2@I@Z 0042d340 f i ccConfig.obj
 0002:0001a3a0       ?allocate@?$allocator@U?$_Tree_node@U?$pair@$$CBV?$basic_string@DU?$char_traits@D@std@@V?$allocator@D@2@@std@@V12@@std@@PAX@std@@@std@@QAEPAU?$_Tree_node@U?$pair@$$CBV?$basic_string@DU?$char_traits@D@std@@V?$allocator@D@2@@std@@V12@@std@@PAX@2@I@Z 0042d3a0 f i ccConfig.obj
 0002:0001a400       ?append@?$basic_string@DU?$char_traits@D@std@@V?$allocator@D@2@@std@@QAEAAV12@ABV12@@Z 0042d400 f i ccConfig.obj
 0002:0001a460       ?append@?$basic_string@DU?$char_traits@D@std@@V?$allocator@D@2@@std@@QAEAAV12@ABV12@II@Z 0042d460 f i ccConfig.obj
 0002:0001a580       ?append@?$basic_string@DU?$char_traits@D@std@@V?$allocator@D@2@@std@@QAEAAV12@PBD@Z 0042d580 f i ccConfig.obj
 0002:0001a610       ?append@?$basic_string@DU?$char_traits@D@std@@V?$allocator@D@2@@std@@QAEAAV12@PBDI@Z 0042d610 f i ccConfig.obj
 0002:0001a750       ?assign@?$basic_string@DU?$char_traits@D@std@@V?$allocator@D@2@@std@@QAEAAV12@ABV12@@Z 0042d750 f i ccConfig.obj
 0002:0001a7b0       ?begin@?$_Tree@V?$_Tmap_traits@V?$basic_string@DU?$char_traits@D@std@@V?$allocator@D@2@@std@@V12@U?$less@V?$basic_string@DU?$char_traits@D@std@@V?$allocator@D@2@@std@@@2@V?$allocator@U?$pair@$$CBV?$basic_string@DU?$char_traits@D@std@@V?$allocator@D@2@@std@@V12@@std@@@2@$0A@@std@@@std@@QAE?AV?$_Tree_iterator@V?$_Tree_val@U?$_Tree_simple_types@U?$pair@$$CBV?$basic_string@DU?$char_traits@D@std@@V?$allocator@D@2@@std@@V12@@std@@@std@@@std@@@2@XZ 0042d7b0 f i ccConfig.obj
 0002:0001a820       ?begin@?$_Tree@V?$_Tmap_traits@V?$basic_string@DU?$char_traits@D@std@@V?$allocator@D@2@@std@@V12@U?$less@V?$basic_string@DU?$char_traits@D@std@@V?$allocator@D@2@@std@@@2@V?$allocator@U?$pair@$$CBV?$basic_string@DU?$char_traits@D@std@@V?$allocator@D@2@@std@@V12@@std@@@2@$0A@@std@@@std@@QBE?AV?$_Tree_const_iterator@V?$_Tree_val@U?$_Tree_simple_types@U?$pair@$$CBV?$basic_string@DU?$char_traits@D@std@@V?$allocator@D@2@@std@@V12@@std@@@std@@@std@@@2@XZ 0042d820 f i ccConfig.obj
 0002:0001a890       ?begin@?$basic_string@DU?$char_traits@D@std@@V?$allocator@D@2@@std@@QAE?AV?$_String_iterator@V?$_String_val@U?$_Simple_types@D@std@@@std@@@2@XZ 0042d890 f i ccConfig.obj
 0002:0001a900       ?c_str@?$basic_string@DU?$char_traits@D@std@@V?$allocator@D@2@@std@@QBEPBDXZ 0042d900 f i ccConfig.obj
 0002:0001a950       ?clear@?$_Tree@V?$_Tmap_traits@V?$basic_string@DU?$char_traits@D@std@@V?$allocator@D@2@@std@@V12@U?$less@V?$basic_string@DU?$char_traits@D@std@@V?$allocator@D@2@@std@@@2@V?$allocator@U?$pair@$$CBV?$basic_string@DU?$char_traits@D@std@@V?$allocator@D@2@@std@@V12@@std@@@2@$0A@@std@@@std@@QAEXXZ 0042d950 f i ccConfig.obj
 0002:0001aa10       ?compare@?$basic_string@DU?$char_traits@D@std@@V?$allocator@D@2@@std@@QBEHABV12@@Z 0042da10 f i ccConfig.obj
 0002:0001aa90       ?compare@?$basic_string@DU?$char_traits@D@std@@V?$allocator@D@2@@std@@QBEHIIPBDI@Z 0042da90 f i ccConfig.obj
 0002:0001ac00       ?compare@?$basic_string@DU?$char_traits@D@std@@V?$allocator@D@2@@std@@QBEHPBD@Z 0042dc00 f i ccConfig.obj
 0002:0001ac90       ?compare@?$char_traits@D@std@@SAHPBD0I@Z 0042dc90 f i ccConfig.obj
 0002:0001ad10       ?deallocate@?$_Wrap_alloc@V?$allocator@U?$_List_node@V?$basic_string@DU?$char_traits@D@std@@V?$allocator@D@2@@std@@PAX@std@@@std@@@std@@QAEXPAU?$_List_node@V?$basic_string@DU?$char_traits@D@std@@V?$allocator@D@2@@std@@PAX@2@I@Z 0042dd10 f i ccConfig.obj
 0002:0001ad70       ?deallocate@?$_Wrap_alloc@V?$allocator@U?$_Tree_node@U?$pair@$$CBV?$basic_string@DU?$char_traits@D@std@@V?$allocator@D@2@@std@@V12@@std@@PAX@std@@@std@@@std@@QAEXPAU?$_Tree_node@U?$pair@$$CBV?$basic_string@DU?$char_traits@D@std@@V?$allocator@D@2@@std@@V12@@std@@PAX@2@I@Z 0042dd70 f i ccConfig.obj
 0002:0001add0       ?deallocate@?$_Wrap_alloc@V?$allocator@U_Container_proxy@std@@@std@@@std@@QAEXPAU_Container_proxy@2@I@Z 0042ddd0 f i ccConfig.obj
 0002:0001ae30       ?deallocate@?$allocator@U?$_List_node@V?$basic_string@DU?$char_traits@D@std@@V?$allocator@D@2@@std@@PAX@std@@@std@@QAEXPAU?$_List_node@V?$basic_string@DU?$char_traits@D@std@@V?$allocator@D@2@@std@@PAX@2@I@Z 0042de30 f i ccConfig.obj
 0002:0001ae90       ?deallocate@?$allocator@U?$_Tree_node@U?$pair@$$CBV?$basic_string@DU?$char_traits@D@std@@V?$allocator@D@2@@std@@V12@@std@@PAX@std@@@std@@QAEXPAU?$_Tree_node@U?$pair@$$CBV?$basic_string@DU?$char_traits@D@std@@V?$allocator@D@2@@std@@V12@@std@@PAX@2@I@Z 0042de90 f i ccConfig.obj
 0002:0001aef0       ?end@?$_Tree@V?$_Tmap_traits@V?$basic_string@DU?$char_traits@D@std@@V?$allocator@D@2@@std@@V12@U?$less@V?$basic_string@DU?$char_traits@D@std@@V?$allocator@D@2@@std@@@2@V?$allocator@U?$pair@$$CBV?$basic_string@DU?$char_traits@D@std@@V?$allocator@D@2@@std@@V12@@std@@@2@$0A@@std@@@std@@QAE?AV?$_Tree_iterator@V?$_Tree_val@U?$_Tree_simple_types@U?$pair@$$CBV?$basic_string@DU?$char_traits@D@std@@V?$allocator@D@2@@std@@V12@@std@@@std@@@std@@@2@XZ 0042def0 f i ccConfig.obj
 0002:0001af60       ?end@?$_Tree@V?$_Tmap_traits@V?$basic_string@DU?$char_traits@D@std@@V?$allocator@D@2@@std@@V12@U?$less@V?$basic_string@DU?$char_traits@D@std@@V?$allocator@D@2@@std@@@2@V?$allocator@U?$pair@$$CBV?$basic_string@DU?$char_traits@D@std@@V?$allocator@D@2@@std@@V12@@std@@@2@$0A@@std@@@std@@QBE?AV?$_Tree_const_iterator@V?$_Tree_val@U?$_Tree_simple_types@U?$pair@$$CBV?$basic_string@DU?$char_traits@D@std@@V?$allocator@D@2@@std@@V12@@std@@@std@@@std@@@2@XZ 0042df60 f i ccConfig.obj
 0002:0001afd0       ?end@?$basic_string@DU?$char_traits@D@std@@V?$allocator@D@2@@std@@QAE?AV?$_String_iterator@V?$_String_val@U?$_Simple_types@D@std@@@std@@@2@XZ 0042dfd0 f i ccConfig.obj
 0002:0001b040       ?erase@?$_Tree@V?$_Tmap_traits@V?$basic_string@DU?$char_traits@D@std@@V?$allocator@D@2@@std@@V12@U?$less@V?$basic_string@DU?$char_traits@D@std@@V?$allocator@D@2@@std@@@2@V?$allocator@U?$pair@$$CBV?$basic_string@DU?$char_traits@D@std@@V?$allocator@D@2@@std@@V12@@std@@@2@$0A@@std@@@std@@QAE?AV?$_Tree_iterator@V?$_Tree_val@U?$_Tree_simple_types@U?$pair@$$CBV?$basic_string@DU?$char_traits@D@std@@V?$allocator@D@2@@std@@V12@@std@@@std@@@std@@@2@V?$_Tree_const_iterator@V?$_Tree_val@U?$_Tree_simple_types@U?$pair@$$CBV?$basic_string@DU?$char_traits@D@std@@V?$allocator@D@2@@std@@V12@@std@@@std@@@std@@@2@0@Z 0042e040 f i ccConfig.obj
 0002:0001b360       ?erase@?$_Tree@V?$_Tmap_traits@V?$basic_string@DU?$char_traits@D@std@@V?$allocator@D@2@@std@@V12@U?$less@V?$basic_string@DU?$char_traits@D@std@@V?$allocator@D@2@@std@@@2@V?$allocator@U?$pair@$$CBV?$basic_string@DU?$char_traits@D@std@@V?$allocator@D@2@@std@@V12@@std@@@2@$0A@@std@@@std@@QAE?AV?$_Tree_iterator@V?$_Tree_val@U?$_Tree_simple_types@U?$pair@$$CBV?$basic_string@DU?$char_traits@D@std@@V?$allocator@D@2@@std@@V12@@std@@@std@@@std@@@2@V?$_Tree_const_iterator@V?$_Tree_val@U?$_Tree_simple_types@U?$pair@$$CBV?$basic_string@DU?$char_traits@D@std@@V?$allocator@D@2@@std@@V12@@std@@@std@@@std@@@2@@Z 0042e360 f i ccConfig.obj
 0002:0001bde0       ?find@?$basic_string@DU?$char_traits@D@std@@V?$allocator@D@2@@std@@QBEIABV12@I@Z 0042ede0 f i ccConfig.obj
 0002:0001be50       ?find@?$basic_string@DU?$char_traits@D@std@@V?$allocator@D@2@@std@@QBEIPBDII@Z 0042ee50 f i ccConfig.obj
 0002:0001bfb0       ?find@?$char_traits@D@std@@SAPBDPBDIABD@Z 0042efb0 f i ccConfig.obj
 0002:0001c040       ?length@?$basic_string@DU?$char_traits@D@std@@V?$allocator@D@2@@std@@QBEIXZ 0042f040 f i ccConfig.obj
 0002:0001c080       ?max_size@?$_Tree@V?$_Tmap_traits@V?$basic_string@DU?$char_traits@D@std@@V?$allocator@D@2@@std@@V12@U?$less@V?$basic_string@DU?$char_traits@D@std@@V?$allocator@D@2@@std@@@2@V?$allocator@U?$pair@$$CBV?$basic_string@DU?$char_traits@D@std@@V?$allocator@D@2@@std@@V12@@std@@@2@$0A@@std@@@std@@QBEIXZ 0042f080 f i ccConfig.obj
 0002:0001c0e0       ?max_size@?$_Wrap_alloc@V?$allocator@U?$_List_node@V?$basic_string@DU?$char_traits@D@std@@V?$allocator@D@2@@std@@PAX@std@@@std@@@std@@QBEIXZ 0042f0e0 f i ccConfig.obj
 0002:0001c140       ?max_size@?$_Wrap_alloc@V?$allocator@U?$_Tree_node@U?$pair@$$CBV?$basic_string@DU?$char_traits@D@std@@V?$allocator@D@2@@std@@V12@@std@@PAX@std@@@std@@@std@@QBEIXZ 0042f140 f i ccConfig.obj
 0002:0001c1a0       ?max_size@?$allocator@U?$_List_node@V?$basic_string@DU?$char_traits@D@std@@V?$allocator@D@2@@std@@PAX@std@@@std@@QBEIXZ 0042f1a0 f i ccConfig.obj
 0002:0001c1e0       ?max_size@?$allocator@U?$_Tree_node@U?$pair@$$CBV?$basic_string@DU?$char_traits@D@std@@V?$allocator@D@2@@std@@V12@@std@@PAX@std@@@std@@QBEIXZ 0042f1e0 f i ccConfig.obj
 0002:0001c220       ?max_size@?$allocator_traits@V?$allocator@U?$_List_node@V?$basic_string@DU?$char_traits@D@std@@V?$allocator@D@2@@std@@PAX@std@@@std@@@std@@SAIABV?$allocator@U?$_List_node@V?$basic_string@DU?$char_traits@D@std@@V?$allocator@D@2@@std@@PAX@std@@@2@@Z 0042f220 f i ccConfig.obj
 0002:0001c270       ?max_size@?$allocator_traits@V?$allocator@U?$_Tree_node@U?$pair@$$CBV?$basic_string@DU?$char_traits@D@std@@V?$allocator@D@2@@std@@V12@@std@@PAX@std@@@std@@@std@@SAIABV?$allocator@U?$_Tree_node@U?$pair@$$CBV?$basic_string@DU?$char_traits@D@std@@V?$allocator@D@2@@std@@V12@@std@@PAX@std@@@2@@Z 0042f270 f i ccConfig.obj
 0002:0001c2c0       ?max_size@?$list@V?$basic_string@DU?$char_traits@D@std@@V?$allocator@D@2@@std@@V?$allocator@V?$basic_string@DU?$char_traits@D@std@@V?$allocator@D@2@@std@@@2@@std@@QBEIXZ 0042f2c0 f i ccConfig.obj
 0002:0001c320       ?pointer_to@?$pointer_traits@PAU?$pair@$$CBV?$basic_string@DU?$char_traits@D@std@@V?$allocator@D@2@@std@@V12@@std@@@std@@SAPAU?$pair@$$CBV?$basic_string@DU?$char_traits@D@std@@V?$allocator@D@2@@std@@V12@@2@AAU32@@Z 0042f320 f i ccConfig.obj
 0002:0001c370       ?pointer_to@?$pointer_traits@PBU?$pair@$$CBV?$basic_string@DU?$char_traits@D@std@@V?$allocator@D@2@@std@@V12@@std@@@std@@SAPBU?$pair@$$CBV?$basic_string@DU?$char_traits@D@std@@V?$allocator@D@2@@std@@V12@@2@ABU32@@Z 0042f370 f i ccConfig.obj
 0002:0001c3c0       ?push_back@?$list@V?$basic_string@DU?$char_traits@D@std@@V?$allocator@D@2@@std@@V?$allocator@V?$basic_string@DU?$char_traits@D@std@@V?$allocator@D@2@@std@@@2@@std@@QAEX$$QAV?$basic_string@DU?$char_traits@D@std@@V?$allocator@D@2@@2@@Z 0042f3c0 f i ccConfig.obj
 0002:0001c450       ?replace@?$basic_string@DU?$char_traits@D@std@@V?$allocator@D@2@@std@@QAEAAV12@IIABV12@II@Z 0042f450 f i ccConfig.obj
 0002:0001c7f0       ?replace@?$basic_string@DU?$char_traits@D@std@@V?$allocator@D@2@@std@@QAEAAV12@IIPBDI@Z 0042f7f0 f i ccConfig.obj
 0002:0001ca10       ?replace@?$basic_string@DU?$char_traits@D@std@@V?$allocator@D@2@@std@@QAEAAV12@V?$_String_const_iterator@V?$_String_val@U?$_Simple_types@D@std@@@std@@@2@0V?$_String_iterator@V?$_String_val@U?$_Simple_types@D@std@@@std@@@2@1@Z 0042fa10 f i ccConfig.obj
 0002:0001cda0       ?reserve@?$basic_string@DU?$char_traits@D@std@@V?$allocator@D@2@@std@@QAEXI@Z 0042fda0 f i ccConfig.obj
 0002:0001ce40       ?select_on_container_copy_construction@?$_Wrap_alloc@V?$allocator@D@std@@@std@@QBE?AU12@XZ 0042fe40 f i ccConfig.obj
 0002:0001ceb0       ?select_on_container_copy_construction@?$allocator@D@std@@QBE?AV12@XZ 0042feb0 f i ccConfig.obj
 0002:0001cf10       ?select_on_container_copy_construction@?$allocator_traits@V?$allocator@D@std@@@std@@SA?AV?$allocator@D@2@ABV32@@Z 0042ff10 f i ccConfig.obj
 0002:0001cf70       ?strchr@@YAPADPADH@Z       0042ff70 f i ccConfig.obj
 0002:0001cfd0       _main                      0042ffd0 f   main.obj
 0002:0001e420       ??0bncs_clientMainWindow@@QAE@PAVQWidget@@PBDI@Z 00431420 f   bncs_clientmainwindow.obj
 0002:0001e570       ??1bncs_clientMainWindow@@UAE@XZ 00431570 f   bncs_clientmainwindow.obj
 0002:0001e5d0       ?languageChange@bncs_clientMainWindow@@MAEXXZ 004315d0 f   bncs_clientmainwindow.obj
 0002:0001e670       ??_Ebncs_clientMainWindow@@WCI@AEPAXI@Z 00431670 f i bncs_clientmainwindow.obj
 0002:0001e680       ??_Ebncs_clientMainWindow@@UAEPAXI@Z 00431680 f i bncs_clientmainwindow.obj
 0002:0001e680       ??_Gbncs_clientMainWindow@@UAEPAXI@Z 00431680 f i bncs_clientmainwindow.obj
 0002:0001e6f0       ?metaObject@bncs_clientMainWindow@@UBEPAVQMetaObject@@XZ 004316f0 f i bncs_clientmainwindow.obj
 0002:0001e740       ?className@bncs_clientMainWindow@@UBEPBDXZ 00431740 f   moc_bncs_clientmainwindow.obj
 0002:0001e770       ?qt_cast@bncs_clientMainWindow@@UAEPAXPBD@Z 00431770 f   moc_bncs_clientmainwindow.obj
 0002:0001e7f0       ?qt_invoke@bncs_clientMainWindow@@UAE_NHPAUQUObject@@@Z 004317f0 f   moc_bncs_clientmainwindow.obj
 0002:0001e890       ?qt_emit@bncs_clientMainWindow@@UAE_NHPAUQUObject@@@Z 00431890 f   moc_bncs_clientmainwindow.obj
 0002:0001e8f0       ?qt_property@bncs_clientMainWindow@@UAE_NHHPAVQVariant@@@Z 004318f0 f   moc_bncs_clientmainwindow.obj
 0002:0001e950       ?qt_static_property@bncs_clientMainWindow@@SA_NPAVQObject@@HHPAVQVariant@@@Z 00431950 f   moc_bncs_clientmainwindow.obj
 0002:0001e980       ?staticMetaObject@bncs_clientMainWindow@@SAPAVQMetaObject@@XZ 00431980 f   moc_bncs_clientmainwindow.obj
 0002:0001ea30       ?tr@bncs_clientMainWindow@@SA?AVQString@@PBD0@Z 00431a30 f   moc_bncs_clientmainwindow.obj
 0002:0001eaf0       ?trUtf8@bncs_clientMainWindow@@SA?AVQString@@PBD0@Z 00431af0 f   moc_bncs_clientmainwindow.obj
 0002:0001ecc0       ?className@bncs_clientMainWindowImpl@@UBEPBDXZ 00431cc0 f   moc_bncs_clientmainwindowimpl.obj
 0002:0001ecf0       ?qt_cast@bncs_clientMainWindowImpl@@UAEPAXPBD@Z 00431cf0 f   moc_bncs_clientmainwindowimpl.obj
 0002:0001eda0       ?qt_invoke@bncs_clientMainWindowImpl@@UAE_NHPAUQUObject@@@Z 00431da0 f   moc_bncs_clientmainwindowimpl.obj
 0002:0001eeb0       ?qt_emit@bncs_clientMainWindowImpl@@UAE_NHPAUQUObject@@@Z 00431eb0 f   moc_bncs_clientmainwindowimpl.obj
 0002:0001ef00       ?qt_property@bncs_clientMainWindowImpl@@UAE_NHHPAVQVariant@@@Z 00431f00 f   moc_bncs_clientmainwindowimpl.obj
 0002:0001ef50       ?qt_static_property@bncs_clientMainWindowImpl@@SA_NPAVQObject@@HHPAVQVariant@@@Z 00431f50 f   moc_bncs_clientmainwindowimpl.obj
 0002:0001ef80       ?staticMetaObject@bncs_clientMainWindowImpl@@SAPAVQMetaObject@@XZ 00431f80 f   moc_bncs_clientmainwindowimpl.obj
 0002:0001f0d0       ?tr@bncs_clientMainWindowImpl@@SA?AVQString@@PBD0@Z 004320d0 f   moc_bncs_clientmainwindowimpl.obj
 0002:0001f190       ?trUtf8@bncs_clientMainWindowImpl@@SA?AVQString@@PBD0@Z 00432190 f   moc_bncs_clientmainwindowimpl.obj
 0002:0001f3a4       ?csiShim@bncs_shim_loader@@SAPAVbncs_dll_client_shim@@XZ 004323a4 f   bncs_shim_loaderdb:bncs_shim_loaderdb.dll
 0002:0001f3aa       ?reg@bncs_dll_client_shim@@QAE_NPAVIccClientCallback@@HHHH@Z 004323aa f   bncs_shim_loaderdb:bncs_shim_loaderdb.dll
 0002:0001f3b0       ??0QtSingleApplication@@QAE@ABVQString@@AAHPAPADW4Type@QApplication@@@Z 004323b0 f   qtsingleapplicationdb:qtsingleapplication.obj
 0002:0001f4d0       ??1QtSingleApplication@@UAE@XZ 004324d0 f   qtsingleapplicationdb:qtsingleapplication.obj
 0002:0001f5b0       ?id@QtSingleApplication@@QBE?AVQString@@XZ 004325b0 f   qtsingleapplicationdb:qtsingleapplication.obj
 0002:0001f620       ?activateMainWidget@QtSingleApplication@@UAEXXZ 00432620 f   qtsingleapplicationdb:qtsingleapplication.obj
 0002:0001f760       ??0QtSingletonPrivate@@QAE@XZ 00432760 f i qtsingleapplicationdb:qtsingleapplication.obj
 0002:0001f7c0       ??1QtSingletonPrivate@@QAE@XZ 004327c0 f i qtsingleapplicationdb:qtsingleapplication.obj
 0002:0001f820       ??_GQtSingleApplication@@UAEPAXI@Z 00432820 f i qtsingleapplicationdb:qtsingleapplication.obj
 0002:0001f820       ??_EQtSingleApplication@@UAEPAXI@Z 00432820 f i qtsingleapplicationdb:qtsingleapplication.obj
 0002:0001f890       ??_GQtSingletonPrivate@@QAEPAXI@Z 00432890 f i qtsingleapplicationdb:qtsingleapplication.obj
 0002:0001f900       ?metaObject@QtSingleApplication@@UBEPAVQMetaObject@@XZ 00432900 f i qtsingleapplicationdb:qtsingleapplication.obj
 0002:0001f950       ?isRunning@QtSingleApplication@@QBE_NXZ 00432950 f   qtsingleapplicationdb:qtsingleapplication_win.obj
 0002:0001fa90       ?initialize@QtSingleApplication@@QAEX_N@Z 00432a90 f   qtsingleapplicationdb:qtsingleapplication_win.obj
 0002:0001fc50       ?winEventFilter@QtSingleApplication@@MAE_NPAUtagMSG@@@Z 00432c50 f   qtsingleapplicationdb:qtsingleapplication_win.obj
 0002:0001fd80       ?sendMessage@QtSingleApplication@@QAE_NABVQString@@H@Z 00432d80 f   qtsingleapplicationdb:qtsingleapplication_win.obj
 0002:0001ff70       ?sysInit@QtSingleApplication@@AAEXXZ 00432f70 f   qtsingleapplicationdb:qtsingleapplication_win.obj
 0002:0001ffd0       ?sysCleanup@QtSingleApplication@@AAEXXZ 00432fd0 f   qtsingleapplicationdb:qtsingleapplication_win.obj
 0002:000201d6       ??_EQWidget@@WCI@AEPAXI@Z  004331d6 f i qtsingleapplicationdb:qtsingleapplication_win.obj
 0002:000201e0       ??_EQWidget@@UAEPAXI@Z     004331e0 f i qtsingleapplicationdb:qtsingleapplication_win.obj
 0002:000201e0       ??_GQWidget@@UAEPAXI@Z     004331e0 f i qtsingleapplicationdb:qtsingleapplication_win.obj
 0002:00020260       ?className@QtSingleApplication@@UBEPBDXZ 00433260 f   qtsingleapplicationdb:moc_qtsingleapplication.obj
 0002:00020290       ?qt_cast@QtSingleApplication@@UAEPAXPBD@Z 00433290 f   qtsingleapplicationdb:moc_qtsingleapplication.obj
 0002:00020310       ?qt_invoke@QtSingleApplication@@UAE_NHPAUQUObject@@@Z 00433310 f   qtsingleapplicationdb:moc_qtsingleapplication.obj
 0002:00020470       ?qt_emit@QtSingleApplication@@UAE_NHPAUQUObject@@@Z 00433470 f   qtsingleapplicationdb:moc_qtsingleapplication.obj
 0002:00020520       ?qt_property@QtSingleApplication@@UAE_NHHPAVQVariant@@@Z 00433520 f   qtsingleapplicationdb:moc_qtsingleapplication.obj
 0002:00020580       ?qt_static_property@QtSingleApplication@@SA_NPAVQObject@@HHPAVQVariant@@@Z 00433580 f   qtsingleapplicationdb:moc_qtsingleapplication.obj
 0002:000205b0       ?staticMetaObject@QtSingleApplication@@SAPAVQMetaObject@@XZ 004335b0 f   qtsingleapplicationdb:moc_qtsingleapplication.obj
 0002:00020780       ?tr@QtSingleApplication@@SA?AVQString@@PBD0@Z 00433780 f   qtsingleapplicationdb:moc_qtsingleapplication.obj
 0002:00020840       ?trUtf8@QtSingleApplication@@SA?AVQString@@PBD0@Z 00433840 f   qtsingleapplicationdb:moc_qtsingleapplication.obj
 0002:00020900       ?messageReceived@QtSingleApplication@@IAEXABVQString@@@Z 00433900 f   qtsingleapplicationdb:moc_qtsingleapplication.obj
 0002:00020ba0       ??0decodeBNCSString@@QAE@PBDD@Z 00433ba0 f   decodecaptionstringdb:decodeBNCSString.obj
 0002:00020c00       ??0decodeBNCSString@@QAE@ABV0@@Z 00433c00 f   decodecaptionstringdb:decodeBNCSString.obj
 0002:00020c80       ??1decodeBNCSString@@UAE@XZ 00433c80 f   decodecaptionstringdb:decodeBNCSString.obj
 0002:00020d40       ??_EdecodeBNCSString@@UAEPAXI@Z 00433d40 f i decodecaptionstringdb:decodeBNCSString.obj
 0002:00020d40       ??_GdecodeBNCSString@@UAEPAXI@Z 00433d40 f i decodecaptionstringdb:decodeBNCSString.obj
 0002:00020db0       ?split@decodeBNCSString@@AAEXPBD@Z 00433db0 f i decodecaptionstringdb:decodeBNCSString.obj
 0002:00021130       ??0dCW@@QAE@XZ             00434130 f   dcwdb:dcwdb.dll
 0002:00021136       ?create@dCW@@QAEPAVQWidget@@ABVQString@@PAVQObject@@PAV2@PBD_N4NN44@Z 00434136 f   dcwdb:dcwdb.dll
 0002:0002113c       ??1dCW@@UAE@XZ             0043413c f   dcwdb:dcwdb.dll
 0002:00021142       ?qDebug@@YAXPBDZZ          00434142 f   qt-mt323:qt-mt323.dll
 0002:00021148       ??0QChar@@QAE@D@Z          00434148 f   qt-mt323:qt-mt323.dll
 0002:0002114e       ??0QString@@QAE@XZ         0043414e f   qt-mt323:qt-mt323.dll
 0002:00021154       ??0QString@@QAE@ABV0@@Z    00434154 f   qt-mt323:qt-mt323.dll
 0002:0002115a       ??0QString@@QAE@PBD@Z      0043415a f   qt-mt323:qt-mt323.dll
 0002:00021160       ??1QString@@QAE@XZ         00434160 f   qt-mt323:qt-mt323.dll
 0002:00021166       ??4QString@@QAEAAV0@ABV0@@Z 00434166 f   qt-mt323:qt-mt323.dll
 0002:0002116c       ?length@QString@@QBEIXZ    0043416c f   qt-mt323:qt-mt323.dll
 0002:00021172       ?arg@QString@@QBE?AV1@HHH@Z 00434172 f   qt-mt323:qt-mt323.dll
 0002:00021178       ?arg@QString@@QBE?AV1@ABV1@H@Z 00434178 f   qt-mt323:qt-mt323.dll
 0002:0002117e       ?leftJustify@QString@@QBE?AV1@IVQChar@@_N@Z 0043417e f   qt-mt323:qt-mt323.dll
 0002:00021184       ?rightJustify@QString@@QBE?AV1@IVQChar@@_N@Z 00434184 f   qt-mt323:qt-mt323.dll
 0002:0002118a       ?upper@QString@@QBE?AV1@XZ 0043418a f   qt-mt323:qt-mt323.dll
 0002:00021190       ?toInt@QString@@QBEHPA_NH@Z 00434190 f   qt-mt323:qt-mt323.dll
 0002:00021196       ?latin1@QString@@QBEPBDXZ  00434196 f   qt-mt323:qt-mt323.dll
 0002:0002119c       ??BQString@@QBEPBDXZ       0043419c f   qt-mt323:qt-mt323.dll
 0002:000211a2       ?startsWith@QString@@QBE_NABV1@@Z 004341a2 f   qt-mt323:qt-mt323.dll
 0002:000211a8       ??8@YA_NABVQString@@PBD@Z  004341a8 f   qt-mt323:qt-mt323.dll
 0002:000211ae       ??H@YA?BVQString@@ABV0@PBD@Z 004341ae f   qt-mt323:qt-mt323.dll
 0002:000211b4       ??H@YA?BVQString@@PBDABV0@@Z 004341b4 f   qt-mt323:qt-mt323.dll
 0002:000211ba       ??A?$QValueList@VQString@@@@QAEAAVQString@@I@Z 004341ba f   qt-mt323:qt-mt323.dll
 0002:000211c0       ?count@QGList@@UBEIXZ      004341c0 f   qt-mt323:qt-mt323.dll
 0002:000211c6       ??0QGList@@IAE@XZ          004341c6 f   qt-mt323:qt-mt323.dll
 0002:000211cc       ??0QGList@@IAE@ABV0@@Z     004341cc f   qt-mt323:qt-mt323.dll
 0002:000211d2       ??1QGList@@MAE@XZ          004341d2 f   qt-mt323:qt-mt323.dll
 0002:000211d8       ??4QGList@@IAEAAV0@ABV0@@Z 004341d8 f   qt-mt323:qt-mt323.dll
 0002:000211de       ??8QGList@@IBE_NABV0@@Z    004341de f   qt-mt323:qt-mt323.dll
 0002:000211e4       ?inSort@QGList@@IAEXPAX@Z  004341e4 f   qt-mt323:qt-mt323.dll
 0002:000211ea       ?append@QGList@@IAEXPAX@Z  004341ea f   qt-mt323:qt-mt323.dll
 0002:000211f0       ?insertAt@QGList@@IAE_NIPAX@Z 004341f0 f   qt-mt323:qt-mt323.dll
 0002:000211f6       ?removeNode@QGList@@IAE_NPAVQLNode@@@Z 004341f6 f   qt-mt323:qt-mt323.dll
 0002:000211fc       ?remove@QGList@@IAE_NPAX@Z 004341fc f   qt-mt323:qt-mt323.dll
 0002:00021202       ?removeRef@QGList@@IAE_NPAX@Z 00434202 f   qt-mt323:qt-mt323.dll
 0002:00021208       ?removeFirst@QGList@@IAE_NXZ 00434208 f   qt-mt323:qt-mt323.dll
 0002:0002120e       ?removeLast@QGList@@IAE_NXZ 0043420e f   qt-mt323:qt-mt323.dll
 0002:00021214       ?removeAt@QGList@@IAE_NI@Z 00434214 f   qt-mt323:qt-mt323.dll
 0002:0002121a       ?replaceAt@QGList@@IAE_NIPAX@Z 0043421a f   qt-mt323:qt-mt323.dll
 0002:00021220       ?takeNode@QGList@@IAEPAXPAVQLNode@@@Z 00434220 f   qt-mt323:qt-mt323.dll
 0002:00021226       ?take@QGList@@IAEPAXXZ     00434226 f   qt-mt323:qt-mt323.dll
 0002:0002122c       ?takeAt@QGList@@IAEPAXI@Z  0043422c f   qt-mt323:qt-mt323.dll
 0002:00021232       ?sort@QGList@@IAEXXZ       00434232 f   qt-mt323:qt-mt323.dll
 0002:00021238       ?clear@QGList@@MAEXXZ      00434238 f   qt-mt323:qt-mt323.dll
 0002:0002123e       ?findRef@QGList@@IAEHPAX_N@Z 0043423e f   qt-mt323:qt-mt323.dll
 0002:00021244       ?find@QGList@@IAEHPAX_N@Z  00434244 f   qt-mt323:qt-mt323.dll
 0002:0002124a       ?containsRef@QGList@@IBEIPAX@Z 0043424a f   qt-mt323:qt-mt323.dll
 0002:00021250       ?contains@QGList@@IBEIPAX@Z 00434250 f   qt-mt323:qt-mt323.dll
 0002:00021256       ?at@QGList@@IAEPAXI@Z      00434256 f   qt-mt323:qt-mt323.dll
 0002:0002125c       ?at@QGList@@IBEHXZ         0043425c f   qt-mt323:qt-mt323.dll
 0002:00021262       ?currentNode@QGList@@IBEPAVQLNode@@XZ 00434262 f   qt-mt323:qt-mt323.dll
 0002:00021268       ?get@QGList@@IBEPAXXZ      00434268 f   qt-mt323:qt-mt323.dll
 0002:0002126e       ?cfirst@QGList@@IBEPAXXZ   0043426e f   qt-mt323:qt-mt323.dll
 0002:00021274       ?clast@QGList@@IBEPAXXZ    00434274 f   qt-mt323:qt-mt323.dll
 0002:0002127a       ?first@QGList@@IAEPAXXZ    0043427a f   qt-mt323:qt-mt323.dll
 0002:00021280       ?last@QGList@@IAEPAXXZ     00434280 f   qt-mt323:qt-mt323.dll
 0002:00021286       ?next@QGList@@IAEPAXXZ     00434286 f   qt-mt323:qt-mt323.dll
 0002:0002128c       ?prev@QGList@@IAEPAXXZ     0043428c f   qt-mt323:qt-mt323.dll
 0002:00021292       ?toVector@QGList@@IBEXPAVQGVector@@@Z 00434292 f   qt-mt323:qt-mt323.dll
 0002:00021298       ?begin@QGList@@IBEPAVQLNode@@XZ 00434298 f   qt-mt323:qt-mt323.dll
 0002:0002129e       ?end@QGList@@IBEPAVQLNode@@XZ 0043429e f   qt-mt323:qt-mt323.dll
 0002:000212a4       ?erase@QGList@@IAEPAVQLNode@@PAV2@@Z 004342a4 f   qt-mt323:qt-mt323.dll
 0002:000212aa       ??0QGListIterator@@IAE@ABVQGList@@@Z 004342aa f   qt-mt323:qt-mt323.dll
 0002:000212b0       ??0QGListIterator@@IAE@ABV0@@Z 004342b0 f   qt-mt323:qt-mt323.dll
 0002:000212b6       ??4QGListIterator@@IAEAAV0@ABV0@@Z 004342b6 f   qt-mt323:qt-mt323.dll
 0002:000212bc       ??1QGListIterator@@IAE@XZ  004342bc f   qt-mt323:qt-mt323.dll
 0002:000212c2       ?atFirst@QGListIterator@@IBE_NXZ 004342c2 f   qt-mt323:qt-mt323.dll
 0002:000212c8       ?atLast@QGListIterator@@IBE_NXZ 004342c8 f   qt-mt323:qt-mt323.dll
 0002:000212ce       ?toFirst@QGListIterator@@IAEPAXXZ 004342ce f   qt-mt323:qt-mt323.dll
 0002:000212d4       ?toLast@QGListIterator@@IAEPAXXZ 004342d4 f   qt-mt323:qt-mt323.dll
 0002:000212da       ?get@QGListIterator@@IBEPAXXZ 004342da f   qt-mt323:qt-mt323.dll
 0002:000212e0       ??RQGListIterator@@IAEPAXXZ 004342e0 f   qt-mt323:qt-mt323.dll
 0002:000212e6       ??EQGListIterator@@IAEPAXXZ 004342e6 f   qt-mt323:qt-mt323.dll
 0002:000212ec       ??YQGListIterator@@IAEPAXI@Z 004342ec f   qt-mt323:qt-mt323.dll
 0002:000212f2       ??FQGListIterator@@IAEPAXXZ 004342f2 f   qt-mt323:qt-mt323.dll
 0002:000212f8       ??ZQGListIterator@@IAEPAXI@Z 004342f8 f   qt-mt323:qt-mt323.dll
 0002:000212fe       ??0QGListStdIterator@@QAE@PAVQLNode@@@Z 004342fe f   qt-mt323:qt-mt323.dll
 0002:00021304       ??BQGListStdIterator@@QAEPAVQLNode@@XZ 00434304 f   qt-mt323:qt-mt323.dll
 0002:0002130a       ?split@QStringList@@SA?AV1@ABVQString@@0_N@Z 0043430a f   qt-mt323:qt-mt323.dll
 0002:00021310       ??1QStringList@@QAE@XZ     00434310 f   qt-mt323:qt-mt323.dll
 0002:00021316       ??0QPoint@@QAE@HH@Z        00434316 f   qt-mt323:qt-mt323.dll
 0002:0002131c       ?timerId@QTimerEvent@@QBEHXZ 0043431c f   qt-mt323:qt-mt323.dll
 0002:00021322       ?startTimer@QObject@@QAEHH@Z 00434322 f   qt-mt323:qt-mt323.dll
 0002:00021328       ?killTimer@QObject@@QAEXH@Z 00434328 f   qt-mt323:qt-mt323.dll
 0002:0002132e       ?connect@QObject@@SA_NPBV1@PBD01@Z 0043432e f   qt-mt323:qt-mt323.dll
 0002:00021334       ?parent@QObject@@QBEPAV1@XZ 00434334 f   qt-mt323:qt-mt323.dll
 0002:0002133a       ?winId@QWidget@@QBEPAUHWND__@@XZ 0043433a f   qt-mt323:qt-mt323.dll
 0002:00021340       ?x@QWidget@@QBEHXZ         00434340 f   qt-mt323:qt-mt323.dll
 0002:00021346       ?y@QWidget@@QBEHXZ         00434346 f   qt-mt323:qt-mt323.dll
 0002:0002134c       ?width@QWidget@@QBEHXZ     0043434c f   qt-mt323:qt-mt323.dll
 0002:00021352       ?height@QWidget@@QBEHXZ    00434352 f   qt-mt323:qt-mt323.dll
 0002:00021358       ?setIcon@QWidget@@UAEXABVQPixmap@@@Z 00434358 f   qt-mt323:qt-mt323.dll
 0002:0002135e       ?update@QWidget@@QAEXXZ    0043435e f   qt-mt323:qt-mt323.dll
 0002:00021364       ?close@QWidget@@QAE_NXZ    00434364 f   qt-mt323:qt-mt323.dll
 0002:0002136a       ?argc@QApplication@@QBEHXZ 0043436a f   qt-mt323:qt-mt323.dll
 0002:00021370       ?argv@QApplication@@QBEPAPADXZ 00434370 f   qt-mt323:qt-mt323.dll
 0002:00021376       ??0QFileInfo@@QAE@ABVQString@@@Z 00434376 f   qt-mt323:qt-mt323.dll
 0002:0002137c       ??1QFileInfo@@QAE@XZ       0043437c f   qt-mt323:qt-mt323.dll
 0002:00021382       ?exists@QFileInfo@@QBE_NXZ 00434382 f   qt-mt323:qt-mt323.dll
 0002:00021388       ?baseName@QFileInfo@@QBE?AVQString@@_N@Z 00434388 f   qt-mt323:qt-mt323.dll
 0002:0002138e       ?dirPath@QFileInfo@@QBE?AVQString@@_N@Z 0043438e f   qt-mt323:qt-mt323.dll
 0002:00021394       ?isFile@QFileInfo@@QBE_NXZ 00434394 f   qt-mt323:qt-mt323.dll
 0002:0002139a       ?critical@QMessageBox@@SAHPAVQWidget@@ABVQString@@1111HH@Z 0043439a f   qt-mt323:qt-mt323.dll
 0002:000213a0       ??0QProcess@@QAE@PAVQObject@@PBD@Z 004343a0 f   qt-mt323:qt-mt323.dll
 0002:000213a6       ??1QProcess@@UAE@XZ        004343a6 f   qt-mt323:qt-mt323.dll
 0002:000213ac       ?addArgument@QProcess@@UAEXABVQString@@@Z 004343ac f   qt-mt323:qt-mt323.dll
 0002:000213b2       ?start@QProcess@@UAE_NPAVQStringList@@@Z 004343b2 f   qt-mt323:qt-mt323.dll
 0002:000213b8       ??0QPixmap@@QAE@QAPBD@Z    004343b8 f   qt-mt323:qt-mt323.dll
 0002:000213be       ??1QPixmap@@UAE@XZ         004343be f   qt-mt323:qt-mt323.dll
 0002:000213c4       ?adjustSize@QWidget@@UAEXXZ 004343c4 f   qt-mt323:qt-mt323.dll
 0002:000213ca       ?checkConnectArgs@QObject@@MAE_NPBDPBV1@0@Z 004343ca f   qt-mt323:qt-mt323.dll
 0002:000213d0       ?childEvent@QObject@@MAEXPAVQChildEvent@@@Z 004343d0 f   qt-mt323:qt-mt323.dll
 0002:000213d6       ?close@QWidget@@UAE_N_N@Z  004343d6 f   qt-mt323:qt-mt323.dll
 0002:000213dc       ?closeEvent@QWidget@@MAEXPAVQCloseEvent@@@Z 004343dc f   qt-mt323:qt-mt323.dll
 0002:000213e2       ?cmd@QPaintDevice@@MAE_NHPAVQPainter@@PATQPDevCmdParam@@@Z 004343e2 f   qt-mt323:qt-mt323.dll
 0002:000213e8       ?compareItems@QGList@@MAEHPAX0@Z 004343e8 f   qt-mt323:qt-mt323.dll
 0002:000213ee       ?connectNotify@QObject@@MAEXPBD@Z 004343ee f   qt-mt323:qt-mt323.dll
 0002:000213f4       ?contextMenuEvent@QWidget@@MAEXPAVQContextMenuEvent@@@Z 004343f4 f   qt-mt323:qt-mt323.dll
 0002:000213fa       ?create@QWidget@@MAEXPAUHWND__@@_N1@Z 004343fa f   qt-mt323:qt-mt323.dll
 0002:00021400       ?customEvent@QObject@@MAEXPAVQCustomEvent@@@Z 00434400 f   qt-mt323:qt-mt323.dll
 0002:00021406       ?customWhatsThis@QWidget@@UBE_NXZ 00434406 f   qt-mt323:qt-mt323.dll
 0002:0002140c       ?destroy@QWidget@@MAEX_N0@Z 0043440c f   qt-mt323:qt-mt323.dll
 0002:00021412       ?disconnectNotify@QObject@@MAEXPBD@Z 00434412 f   qt-mt323:qt-mt323.dll
 0002:00021418       ?dragEnterEvent@QWidget@@MAEXPAVQDragEnterEvent@@@Z 00434418 f   qt-mt323:qt-mt323.dll
 0002:0002141e       ?dragLeaveEvent@QWidget@@MAEXPAVQDragLeaveEvent@@@Z 0043441e f   qt-mt323:qt-mt323.dll
 0002:00021424       ?dragMoveEvent@QWidget@@MAEXPAVQDragMoveEvent@@@Z 00434424 f   qt-mt323:qt-mt323.dll
 0002:0002142a       ?dropEvent@QWidget@@MAEXPAVQDropEvent@@@Z 0043442a f   qt-mt323:qt-mt323.dll
 0002:00021430       ?enabledChange@QWidget@@MAEX_N@Z 00434430 f   qt-mt323:qt-mt323.dll
 0002:00021436       ?enterEvent@QWidget@@MAEXPAVQEvent@@@Z 00434436 f   qt-mt323:qt-mt323.dll
 0002:0002143c       ?event@QWidget@@MAE_NPAVQEvent@@@Z 0043443c f   qt-mt323:qt-mt323.dll
 0002:00021442       ?eventFilter@QObject@@UAE_NPAV1@PAVQEvent@@@Z 00434442 f   qt-mt323:qt-mt323.dll
 0002:00021448       ?focusInEvent@QWidget@@MAEXPAVQFocusEvent@@@Z 00434448 f   qt-mt323:qt-mt323.dll
 0002:0002144e       ?focusNextPrevChild@QWidget@@MAE_N_N@Z 0043444e f   qt-mt323:qt-mt323.dll
 0002:00021454       ?focusOutEvent@QWidget@@MAEXPAVQFocusEvent@@@Z 00434454 f   qt-mt323:qt-mt323.dll
 0002:0002145a       ?fontChange@QWidget@@MAEXABVQFont@@@Z 0043445a f   qt-mt323:qt-mt323.dll
 0002:00021460       ?fontInf@QPaintDevice@@MBEHPAVQFont@@H@Z 00434460 f   qt-mt323:qt-mt323.dll
 0002:00021466       ?fontMet@QPaintDevice@@MBEHPAVQFont@@HPBDH@Z 00434466 f   qt-mt323:qt-mt323.dll
 0002:0002146c       ?handle@QPaintDevice@@UBEPAUHDC__@@XZ 0043446c f   qt-mt323:qt-mt323.dll
 0002:00021472       ?heightForWidth@QWidget@@UBEHH@Z 00434472 f   qt-mt323:qt-mt323.dll
 0002:00021478       ?hide@QWidget@@UAEXXZ      00434478 f   qt-mt323:qt-mt323.dll
 0002:0002147e       ?hideEvent@QWidget@@MAEXPAVQHideEvent@@@Z 0043447e f   qt-mt323:qt-mt323.dll
 0002:00021484       ?imComposeEvent@QWidget@@MAEXPAVQIMEvent@@@Z 00434484 f   qt-mt323:qt-mt323.dll
 0002:0002148a       ?imEndEvent@QWidget@@MAEXPAVQIMEvent@@@Z 0043448a f   qt-mt323:qt-mt323.dll
 0002:00021490       ?imStartEvent@QWidget@@MAEXPAVQIMEvent@@@Z 00434490 f   qt-mt323:qt-mt323.dll
 0002:00021496       ?insertChild@QObject@@UAEXPAV1@@Z 00434496 f   qt-mt323:qt-mt323.dll
 0002:0002149c       ?keyPressEvent@QWidget@@MAEXPAVQKeyEvent@@@Z 0043449c f   qt-mt323:qt-mt323.dll
 0002:000214a2       ?keyReleaseEvent@QWidget@@MAEXPAVQKeyEvent@@@Z 004344a2 f   qt-mt323:qt-mt323.dll
 0002:000214a8       ?leaveEvent@QWidget@@MAEXPAVQEvent@@@Z 004344a8 f   qt-mt323:qt-mt323.dll
 0002:000214ae       ?metric@QWidget@@MBEHH@Z   004344ae f   qt-mt323:qt-mt323.dll
 0002:000214b4       ?minimumSizeHint@QWidget@@UBE?AVQSize@@XZ 004344b4 f   qt-mt323:qt-mt323.dll
 0002:000214ba       ?mouseDoubleClickEvent@QWidget@@MAEXPAVQMouseEvent@@@Z 004344ba f   qt-mt323:qt-mt323.dll
 0002:000214c0       ?mouseMoveEvent@QWidget@@MAEXPAVQMouseEvent@@@Z 004344c0 f   qt-mt323:qt-mt323.dll
 0002:000214c6       ?mousePressEvent@QWidget@@MAEXPAVQMouseEvent@@@Z 004344c6 f   qt-mt323:qt-mt323.dll
 0002:000214cc       ?mouseReleaseEvent@QWidget@@MAEXPAVQMouseEvent@@@Z 004344cc f   qt-mt323:qt-mt323.dll
 0002:000214d2       ?move@QWidget@@UAEXHH@Z    004344d2 f   qt-mt323:qt-mt323.dll
 0002:000214d8       ?moveEvent@QWidget@@MAEXPAVQMoveEvent@@@Z 004344d8 f   qt-mt323:qt-mt323.dll
 0002:000214de       ?newItem@QPtrCollection@@MAEPAXPAX@Z 004344de f   qt-mt323:qt-mt323.dll
 0002:000214e4       ?paintEvent@QWidget@@MAEXPAVQPaintEvent@@@Z 004344e4 f   qt-mt323:qt-mt323.dll
 0002:000214ea       ?paletteChange@QWidget@@MAEXABVQPalette@@@Z 004344ea f   qt-mt323:qt-mt323.dll
 0002:000214f0       ?polish@QWidget@@UAEXXZ    004344f0 f   qt-mt323:qt-mt323.dll
 0002:000214f6       ?property@QObject@@UBE?AVQVariant@@PBD@Z 004344f6 f   qt-mt323:qt-mt323.dll
 0002:000214fc       ?read@QGList@@MAEAAVQDataStream@@AAV2@AAPAX@Z 004344fc f   qt-mt323:qt-mt323.dll
 0002:00021502       ?removeChild@QObject@@UAEXPAV1@@Z 00434502 f   qt-mt323:qt-mt323.dll
 0002:00021508       ?reparent@QWidget@@UAEXPAV1@IABVQPoint@@_N@Z 00434508 f   qt-mt323:qt-mt323.dll
 0002:0002150e       ?resize@QWidget@@UAEXHH@Z  0043450e f   qt-mt323:qt-mt323.dll
 0002:00021514       ?resizeEvent@QWidget@@MAEXPAVQResizeEvent@@@Z 00434514 f   qt-mt323:qt-mt323.dll
 0002:0002151a       ?resolution@QPaintDevice@@UBEHXZ 0043451a f   qt-mt323:qt-mt323.dll
 0002:00021520       ?setAcceptDrops@QWidget@@UAEX_N@Z 00434520 f   qt-mt323:qt-mt323.dll
 0002:00021526       ?setActiveWindow@QWidget@@UAEXXZ 00434526 f   qt-mt323:qt-mt323.dll
 0002:0002152c       ?setAutoMask@QWidget@@UAEX_N@Z 0043452c f   qt-mt323:qt-mt323.dll
 0002:00021532       ?setBackgroundColor@QWidget@@UAEXABVQColor@@@Z 00434532 f   qt-mt323:qt-mt323.dll
 0002:00021538       ?setBackgroundMode@QWidget@@UAEXW4BackgroundMode@Qt@@@Z 00434538 f   qt-mt323:qt-mt323.dll
 0002:0002153e       ?setBackgroundOrigin@QWidget@@UAEXW4BackgroundOrigin@1@@Z 0043453e f   qt-mt323:qt-mt323.dll
 0002:00021544       ?setBackgroundPixmap@QWidget@@UAEXABVQPixmap@@@Z 00434544 f   qt-mt323:qt-mt323.dll
 0002:0002154a       ?setCaption@QWidget@@UAEXABVQString@@@Z 0043454a f   qt-mt323:qt-mt323.dll
 0002:00021550       ?setCursor@QWidget@@UAEXABVQCursor@@@Z 00434550 f   qt-mt323:qt-mt323.dll
 0002:00021556       ?setEnabled@QWidget@@UAEX_N@Z 00434556 f   qt-mt323:qt-mt323.dll
 0002:0002155c       ?setEraseColor@QWidget@@UAEXABVQColor@@@Z 0043455c f   qt-mt323:qt-mt323.dll
 0002:00021562       ?setErasePixmap@QWidget@@UAEXABVQPixmap@@@Z 00434562 f   qt-mt323:qt-mt323.dll
 0002:00021568       ?setFocus@QWidget@@UAEXXZ  00434568 f   qt-mt323:qt-mt323.dll
 0002:0002156e       ?setFocusPolicy@QWidget@@UAEXW4FocusPolicy@1@@Z 0043456e f   qt-mt323:qt-mt323.dll
 0002:00021574       ?setFocusProxy@QWidget@@UAEXPAV1@@Z 00434574 f   qt-mt323:qt-mt323.dll
 0002:0002157a       ?setFont@QWidget@@UAEXABVQFont@@@Z 0043457a f   qt-mt323:qt-mt323.dll
 0002:00021580       ?setGeometry@QWidget@@UAEXABVQRect@@@Z 00434580 f   qt-mt323:qt-mt323.dll
 0002:00021586       ?setGeometry@QWidget@@UAEXHHHH@Z 00434586 f   qt-mt323:qt-mt323.dll
 0002:0002158c       ?setIconText@QWidget@@UAEXABVQString@@@Z 0043458c f   qt-mt323:qt-mt323.dll
 0002:00021592       ?setKeyCompression@QWidget@@MAEX_N@Z 00434592 f   qt-mt323:qt-mt323.dll
 0002:00021598       ?setMask@QWidget@@UAEXABVQBitmap@@@Z 00434598 f   qt-mt323:qt-mt323.dll
 0002:0002159e       ?setMask@QWidget@@UAEXABVQRegion@@@Z 0043459e f   qt-mt323:qt-mt323.dll
 0002:000215a4       ?setMaximumSize@QWidget@@UAEXHH@Z 004345a4 f   qt-mt323:qt-mt323.dll
 0002:000215aa       ?setMicroFocusHint@QWidget@@MAEXHHHH_NPAVQFont@@@Z 004345aa f   qt-mt323:qt-mt323.dll
 0002:000215b0       ?setMinimumSize@QWidget@@UAEXHH@Z 004345b0 f   qt-mt323:qt-mt323.dll
 0002:000215b6       ?setMouseTracking@QWidget@@UAEX_N@Z 004345b6 f   qt-mt323:qt-mt323.dll
 0002:000215bc       ?setName@QWidget@@UAEXPBD@Z 004345bc f   qt-mt323:qt-mt323.dll
 0002:000215c2       ?setPalette@QWidget@@UAEXABVQPalette@@@Z 004345c2 f   qt-mt323:qt-mt323.dll
 0002:000215c8       ?setPaletteBackgroundColor@QWidget@@UAEXABVQColor@@@Z 004345c8 f   qt-mt323:qt-mt323.dll
 0002:000215ce       ?setPaletteBackgroundPixmap@QWidget@@UAEXABVQPixmap@@@Z 004345ce f   qt-mt323:qt-mt323.dll
 0002:000215d4       ?setProperty@QObject@@UAE_NPBDABVQVariant@@@Z 004345d4 f   qt-mt323:qt-mt323.dll
 0002:000215da       ?setResolution@QPaintDevice@@UAEXH@Z 004345da f   qt-mt323:qt-mt323.dll
 0002:000215e0       ?setSizeIncrement@QWidget@@UAEXHH@Z 004345e0 f   qt-mt323:qt-mt323.dll
 0002:000215e6       ?setSizePolicy@QWidget@@UAEXVQSizePolicy@@@Z 004345e6 f   qt-mt323:qt-mt323.dll
 0002:000215ec       ?setUpdatesEnabled@QWidget@@UAEX_N@Z 004345ec f   qt-mt323:qt-mt323.dll
 0002:000215f2       ?setWFlags@QWidget@@MAEXI@Z 004345f2 f   qt-mt323:qt-mt323.dll
 0002:000215f8       ?setWState@QWidget@@MAEXI@Z 004345f8 f   qt-mt323:qt-mt323.dll
 0002:000215fe       ?show@QWidget@@UAEXXZ      004345fe f   qt-mt323:qt-mt323.dll
 0002:00021604       ?showEvent@QWidget@@MAEXPAVQShowEvent@@@Z 00434604 f   qt-mt323:qt-mt323.dll
 0002:0002160a       ?showMaximized@QWidget@@UAEXXZ 0043460a f   qt-mt323:qt-mt323.dll
 0002:00021610       ?showMinimized@QWidget@@UAEXXZ 00434610 f   qt-mt323:qt-mt323.dll
 0002:00021616       ?showNormal@QWidget@@UAEXXZ 00434616 f   qt-mt323:qt-mt323.dll
 0002:0002161c       ?sizeHint@QWidget@@UBE?AVQSize@@XZ 0043461c f   qt-mt323:qt-mt323.dll
 0002:00021622       ?sizePolicy@QWidget@@UBE?AVQSizePolicy@@XZ 00434622 f   qt-mt323:qt-mt323.dll
 0002:00021628       ?styleChange@QWidget@@MAEXAAVQStyle@@@Z 00434628 f   qt-mt323:qt-mt323.dll
 0002:0002162e       ?tabletEvent@QWidget@@MAEXPAVQTabletEvent@@@Z 0043462e f   qt-mt323:qt-mt323.dll
 0002:00021634       ?unsetCursor@QWidget@@UAEXXZ 00434634 f   qt-mt323:qt-mt323.dll
 0002:0002163a       ?updateMask@QWidget@@MAEXXZ 0043463a f   qt-mt323:qt-mt323.dll
 0002:00021640       ?wheelEvent@QWidget@@MAEXPAVQWheelEvent@@@Z 00434640 f   qt-mt323:qt-mt323.dll
 0002:00021646       ?winEvent@QWidget@@MAE_NPAUtagMSG@@@Z 00434646 f   qt-mt323:qt-mt323.dll
 0002:0002164c       ?windowActivationChange@QWidget@@MAEX_N@Z 0043464c f   qt-mt323:qt-mt323.dll
 0002:00021652       ?write@QGList@@MBEAAVQDataStream@@AAV2@PAX@Z 00434652 f   qt-mt323:qt-mt323.dll
 0002:00021658       ??YQString@@QAEAAV0@ABV0@@Z 00434658 f   qt-mt323:qt-mt323.dll
 0002:0002165e       ??YQString@@QAEAAV0@PBD@Z  0043465e f   qt-mt323:qt-mt323.dll
 0002:00021664       ?setStyle@QApplication@@SAPAVQStyle@@ABVQString@@@Z 00434664 f   qt-mt323:qt-mt323.dll
 0002:0002166a       ?setMainWidget@QApplication@@UAEXPAVQWidget@@@Z 0043466a f   qt-mt323:qt-mt323.dll
 0002:00021670       ?exec@QApplication@@QAEHXZ 00434670 f   qt-mt323:qt-mt323.dll
 0002:00021676       ?addLibraryPath@QApplication@@SAXABVQString@@@Z 00434676 f   qt-mt323:qt-mt323.dll
 0002:0002167c       ??0QDir@@QAE@ABVQString@@0HH@Z 0043467c f   qt-mt323:qt-mt323.dll
 0002:00021682       ??1QDir@@UAE@XZ            00434682 f   qt-mt323:qt-mt323.dll
 0002:00021688       ?exists@QDir@@UBE_NXZ      00434688 f   qt-mt323:qt-mt323.dll
 0002:0002168e       ??0QSize@@QAE@HH@Z         0043468e f   qt-mt323:qt-mt323.dll
 0002:00021694       ?expandedTo@QSize@@QBE?AV1@ABV1@@Z 00434694 f   qt-mt323:qt-mt323.dll
 0002:0002169a       ??0QWidget@@QAE@PAV0@PBDI@Z 0043469a f   qt-mt323:qt-mt323.dll
 0002:000216a0       ??1QWidget@@UAE@XZ         004346a0 f   qt-mt323:qt-mt323.dll
 0002:000216a6       ?resize@QWidget@@QAEXABVQSize@@@Z 004346a6 f   qt-mt323:qt-mt323.dll
 0002:000216ac       ?clearWState@QWidget@@IAEXI@Z 004346ac f   qt-mt323:qt-mt323.dll
 0002:000216b2       ?timerEvent@QObject@@MAEXPAVQTimerEvent@@@Z 004346b2 f   qt-mt323:qt-mt323.dll
 0002:000216b8       ?qstrcmp@@YAHPBD0@Z        004346b8 f   qt-mt323:qt-mt323.dll
 0002:000216be       ?fromLatin1@QString@@SA?AV1@PBDH@Z 004346be f   qt-mt323:qt-mt323.dll
 0002:000216c4       ?fromUtf8@QString@@SA?AV1@PBDH@Z 004346c4 f   qt-mt323:qt-mt323.dll
 0002:000216ca       ?qt_cast@QWidget@@UAEPAXPBD@Z 004346ca f   qt-mt323:qt-mt323.dll
 0002:000216d0       ?qt_invoke@QWidget@@UAE_NHPAUQUObject@@@Z 004346d0 f   qt-mt323:qt-mt323.dll
 0002:000216d6       ?qt_emit@QWidget@@UAE_NHPAUQUObject@@@Z 004346d6 f   qt-mt323:qt-mt323.dll
 0002:000216dc       ?qt_property@QWidget@@UAE_NHHPAVQVariant@@@Z 004346dc f   qt-mt323:qt-mt323.dll
 0002:000216e2       ?staticMetaObject@QWidget@@SAPAVQMetaObject@@XZ 004346e2 f   qt-mt323:qt-mt323.dll
 0002:000216e8       ?slotOffset@QMetaObject@@QBEHXZ 004346e8 f   qt-mt323:qt-mt323.dll
 0002:000216ee       ?new_metaobject@QMetaObject@@SAPAV1@PBDPAV1@QBUQMetaData@@H2HQBVQMetaProperty@@HQBUQMetaEnum@@HQBUQClassInfo@@H@Z 004346ee f   qt-mt323:qt-mt323.dll
 0002:000216f4       ??0QMetaObjectCleanUp@@QAE@PBDP6APAVQMetaObject@@XZ@Z 004346f4 f   qt-mt323:qt-mt323.dll
 0002:000216fa       ??1QMetaObjectCleanUp@@QAE@XZ 004346fa f   qt-mt323:qt-mt323.dll
 0002:00021700       ?setMetaObject@QMetaObjectCleanUp@@QAEXAAPAVQMetaObject@@@Z 00434700 f   qt-mt323:qt-mt323.dll
 0002:00021706       ?translate@QApplication@@QBE?AVQString@@PBD00W4Encoding@1@@Z 00434706 f   qt-mt323:qt-mt323.dll
 0002:0002170c       ?get@QUType_ptr@@QAEAAPAXPAUQUObject@@@Z 0043470c f   qt-mt323:qt-mt323.dll
 0002:00021712       ?get@QUType_QString@@QAEAAVQString@@PAUQUObject@@@Z 00434712 f   qt-mt323:qt-mt323.dll
 0002:00021718       ?raise@QWidget@@QAEXXZ     00434718 f   qt-mt323:qt-mt323.dll
 0002:0002171e       ??0QApplication@@QAE@AAHPAPADW4Type@0@@Z 0043471e f   qt-mt323:qt-mt323.dll
 0002:00021724       ??1QApplication@@UAE@XZ    00434724 f   qt-mt323:qt-mt323.dll
 0002:0002172a       ?mainWidget@QApplication@@QBEPAVQWidget@@XZ 0043472a f   qt-mt323:qt-mt323.dll
 0002:00021730       ?commitData@QApplication@@UAEXAAVQSessionManager@@@Z 00434730 f   qt-mt323:qt-mt323.dll
 0002:00021736       ?event@QApplication@@MAE_NPAVQEvent@@@Z 00434736 f   qt-mt323:qt-mt323.dll
 0002:0002173c       ?notify@QApplication@@UAE_NPAVQObject@@PAVQEvent@@@Z 0043473c f   qt-mt323:qt-mt323.dll
 0002:00021742       ?polish@QApplication@@UAEXPAVQWidget@@@Z 00434742 f   qt-mt323:qt-mt323.dll
 0002:00021748       ?saveState@QApplication@@UAEXAAVQSessionManager@@@Z 00434748 f   qt-mt323:qt-mt323.dll
 0002:0002174e       ?setName@QObject@@UAEXPBD@Z 0043474e f   qt-mt323:qt-mt323.dll
 0002:00021754       ??1QCString@@UAE@XZ        00434754 f   qt-mt323:qt-mt323.dll
 0002:0002175a       ??BQCString@@QBEPBDXZ      0043475a f   qt-mt323:qt-mt323.dll
 0002:00021760       ?local8Bit@QString@@QBE?AVQCString@@XZ 00434760 f   qt-mt323:qt-mt323.dll
 0002:00021766       ?fromUcs2@QString@@SA?AV1@PBG@Z 00434766 f   qt-mt323:qt-mt323.dll
 0002:0002176c       ?ucs2@QString@@QBEPBGXZ    0043476c f   qt-mt323:qt-mt323.dll
 0002:00021772       ?winEventFilter@QApplication@@UAE_NPAUtagMSG@@@Z 00434772 f   qt-mt323:qt-mt323.dll
 0002:00021778       ?className@QWidget@@UBEPBDXZ 00434778 f   qt-mt323:qt-mt323.dll
 0002:0002177e       ?metaObject@QWidget@@UBEPAVQMetaObject@@XZ 0043477e f   qt-mt323:qt-mt323.dll
 0002:00021784       ?activate_signal@QObject@@IAEXHVQString@@@Z 00434784 f   qt-mt323:qt-mt323.dll
 0002:0002178a       ?qt_cast@QApplication@@UAEPAXPBD@Z 0043478a f   qt-mt323:qt-mt323.dll
 0002:00021790       ?qt_invoke@QApplication@@UAE_NHPAUQUObject@@@Z 00434790 f   qt-mt323:qt-mt323.dll
 0002:00021796       ?qt_emit@QApplication@@UAE_NHPAUQUObject@@@Z 00434796 f   qt-mt323:qt-mt323.dll
 0002:0002179c       ?qt_property@QApplication@@UAE_NHHPAVQVariant@@@Z 0043479c f   qt-mt323:qt-mt323.dll
 0002:000217a2       ?staticMetaObject@QApplication@@SAPAVQMetaObject@@XZ 004347a2 f   qt-mt323:qt-mt323.dll
 0002:000217a8       ?signalOffset@QMetaObject@@QBEHXZ 004347a8 f   qt-mt323:qt-mt323.dll
 0002:000217ae       ?set@QUType_bool@@QAEXPAUQUObject@@_N@Z 004347ae f   qt-mt323:qt-mt323.dll
 0002:000217b4       ?get@QUType_int@@QAEAAHPAUQUObject@@@Z 004347b4 f   qt-mt323:qt-mt323.dll
 0002:000217ba       _GetPrivateProfileIntA@16  004347ba f   kernel32:KERNEL32.dll
 0002:000217c0       _GetPrivateProfileStringA@24 004347c0 f   kernel32:KERNEL32.dll
 0002:000217c6       _WritePrivateProfileStringA@16 004347c6 f   kernel32:KERNEL32.dll
 0002:000217cc       _OutputDebugStringA@4      004347cc f   kernel32:KERNEL32.dll
 0002:000217d2       _AttachThreadInput@12      004347d2 f   user32:USER32.dll
 0002:000217d8       _ShowWindow@8              004347d8 f   user32:USER32.dll
 0002:000217de       _IsIconic@4                004347de f   user32:USER32.dll
 0002:000217e4       _GetSystemMetrics@4        004347e4 f   user32:USER32.dll
 0002:000217ea       _GetForegroundWindow@0     004347ea f   user32:USER32.dll
 0002:000217f0       _SetForegroundWindow@4     004347f0 f   user32:USER32.dll
 0002:000217f6       _MessageBoxA@16            004347f6 f   user32:USER32.dll
 0002:000217fc       _FindWindowA@8             004347fc f   user32:USER32.dll
 0002:00021802       _GetWindowThreadProcessId@8 00434802 f   user32:USER32.dll
 0002:00021808       _SystemParametersInfoA@16  00434808 f   user32:USER32.dll
 0002:0002180e       _SendMessageTimeoutA@28    0043480e f   user32:USER32.dll
 0002:00021814       ?_Debug_message@std@@YAXPB_W0I@Z 00434814 f   msvcprtd:MSVCP120D.dll
 0002:0002181a       ??0_Container_base12@std@@QAE@XZ 0043481a f   msvcprtd:MSVCP120D.dll
 0002:00021820       ??1_Container_base12@std@@QAE@XZ 00434820 f   msvcprtd:MSVCP120D.dll
 0002:00021826       ?_Orphan_all@_Container_base12@std@@QAEXXZ 00434826 f   msvcprtd:MSVCP120D.dll
 0002:0002182c       ?_Xbad_alloc@std@@YAXXZ    0043482c f   msvcprtd:MSVCP120D.dll
 0002:00021832       ?_Xlength_error@std@@YAXPBD@Z 00434832 f   msvcprtd:MSVCP120D.dll
 0002:00021838       ?_Xout_of_range@std@@YAXPBD@Z 00434838 f   msvcprtd:MSVCP120D.dll
 0002:0002183e       ??0id@locale@std@@QAE@I@Z  0043483e f   msvcprtd:MSVCP120D.dll
 0002:00021844       ?_Syserror_map@std@@YAPBDH@Z 00434844 f   msvcprtd:MSVCP120D.dll
 0002:0002184a       ?_Winerror_map@std@@YAPBDH@Z 0043484a f   msvcprtd:MSVCP120D.dll
 0002:00021850       ??0_Lockit@std@@QAE@H@Z    00434850 f   msvcprtd:MSVCP120D.dll
 0002:00021856       ??1_Lockit@std@@QAE@XZ     00434856 f   msvcprtd:MSVCP120D.dll
 0002:00021860       ??_U@YAPAXI@Z              00434860 f   msvcprtd:newaop_s.obj
 0002:00021876       ?_Getpfirst@_Container_base12@std@@QBEPAPAU_Iterator_base12@2@XZ 00434876 f   msvcprtd:MSVCP120D.dll
 0002:00021880       ??_M@YGXPAXIHP6EX0@Z@Z     00434880 f   MSVCRTD:ehvecdtr.obj
 0002:000219a0       ?__ArrayUnwind@@YGXPAXIHP6EX0@Z@Z 004349a0 f   MSVCRTD:ehvecdtr.obj
 0002:00021a4c       __purecall                 00434a4c f   MSVCRTD:MSVCR120D.dll
 0002:00021a52       ??2@YAPAXI@Z               00434a52 f   MSVCRTD:MSVCR120D.dll
 0002:00021a58       ??3@YAXPAX@Z               00434a58 f   MSVCRTD:MSVCR120D.dll
 0002:00021a60       ___atonexitinit            00434a60 f   MSVCRTD:atonexit.obj
 0002:00021b40       __onexit                   00434b40 f   MSVCRTD:atonexit.obj
 0002:00021c80       _atexit                    00434c80 f   MSVCRTD:atonexit.obj
 0002:00021cb6       _memcpy                    00434cb6 f   MSVCRTD:MSVCR120D.dll
 0002:00021cbc       _strlen                    00434cbc f   MSVCRTD:MSVCR120D.dll
 0002:00021cc2       _memmove                   00434cc2 f   MSVCRTD:MSVCR120D.dll
 0002:00021cc8       _atoi                      00434cc8 f   MSVCRTD:MSVCR120D.dll
 0002:00021cce       _getenv                    00434cce f   MSVCRTD:MSVCR120D.dll
 0002:00021cd4       __hypot                    00434cd4 f   MSVCRTD:MSVCR120D.dll
 0002:00021cda       ??_V@YAXPAX@Z              00434cda f   MSVCRTD:MSVCR120D.dll
 0002:00021ce0       @_RTC_AllocaHelper@12      00434ce0 f   MSVCRTD:stack.obj
 0002:00021d20       @_RTC_CheckStackVars2@12   00434d20 f   MSVCRTD:stack.obj
 0002:00021e30       @_RTC_CheckStackVars@8     00434e30 f   MSVCRTD:stack.obj
 0002:00021ea0       __RTC_CheckEsp             00434ea0 f   MSVCRTD:stack.obj
 0002:00021ed0       @__security_check_cookie@4 00434ed0 f   MSVCRTD:secchk.obj
 0002:00021ee2       __CxxThrowException@8      00434ee2 f   MSVCRTD:MSVCR120D.dll
 0002:00021ef0       __RTC_InitBase             00434ef0 f   MSVCRTD:init.obj
 0002:00021f30       __RTC_Shutdown             00434f30 f   MSVCRTD:init.obj
 0002:00021f48       ___CxxFrameHandler3        00434f48 f   MSVCRTD:MSVCR120D.dll
 0002:00021f50       ??0type_info@@AAE@ABV0@@Z  00434f50 f   MSVCRTD:ti_inst.obj
 0002:00021f70       ??4type_info@@AAEAAV0@ABV0@@Z 00434f70 f   MSVCRTD:ti_inst.obj
 0002:00021f90       ??_Etype_info@@UAEPAXI@Z   00434f90 f i MSVCRTD:ti_inst.obj
 0002:00022020       __invalid_parameter        00435020 f   MSVCRTD:MSVCR120D.dll
 0002:00022026       _tolower                   00435026 f   MSVCRTD:MSVCR120D.dll
 0002:0002202c       _memchr                    0043502c f   MSVCRTD:MSVCR120D.dll
 0002:00022032       _memcmp                    00435032 f   MSVCRTD:MSVCR120D.dll
 0002:00022038       _memset                    00435038 f   MSVCRTD:MSVCR120D.dll
 0002:0002203e       _strcpy                    0043503e f   MSVCRTD:MSVCR120D.dll
 0002:00022044       _strcat                    00435044 f   MSVCRTD:MSVCR120D.dll
 0002:0002204a       _strchr                    0043504a f   MSVCRTD:MSVCR120D.dll
 0002:00022050       __stricmp                  00435050 f   MSVCRTD:MSVCR120D.dll
 0002:00022056       __mkdir                    00435056 f   MSVCRTD:MSVCR120D.dll
 0002:0002205c       _fclose                    0043505c f   MSVCRTD:MSVCR120D.dll
 0002:00022062       _fgets                     00435062 f   MSVCRTD:MSVCR120D.dll
 0002:00022068       _fopen                     00435068 f   MSVCRTD:MSVCR120D.dll
 0002:0002206e       _fprintf                   0043506e f   MSVCRTD:MSVCR120D.dll
 0002:00022074       _fputs                     00435074 f   MSVCRTD:MSVCR120D.dll
 0002:0002207a       _remove                    0043507a f   MSVCRTD:MSVCR120D.dll
 0002:00022080       _rename                    00435080 f   MSVCRTD:MSVCR120D.dll
 0002:00022086       _sprintf                   00435086 f   MSVCRTD:MSVCR120D.dll
 0002:0002208c       __CrtDbgReportW            0043508c f   MSVCRTD:MSVCR120D.dll
 0002:00022092       __chdir                    00435092 f   MSVCRTD:MSVCR120D.dll
 0002:000221c0       _NtCurrentTeb              004351c0 f i MSVCRTD:crtexew.obj
 0002:000221d0       _WinMainCRTStartup         004351d0 f   MSVCRTD:crtexew.obj
 0002:00022632       _strncpy                   00435632 f   MSVCRTD:MSVCR120D.dll
 0002:00022638       ?terminate@@YAXXZ          00435638 f   MSVCRTD:MSVCR120D.dll
 0002:00022640       __except_handler4          00435640 f   MSVCRTD:chandler4gs.obj
 0002:00022670       __lock                     00435670 f   MSVCRTD:MSVCR120D.dll
 0002:00022676       __unlock                   00435676 f   MSVCRTD:MSVCR120D.dll
 0002:0002267c       __calloc_dbg               0043567c f   MSVCRTD:MSVCR120D.dll
 0002:00022682       ___dllonexit               00435682 f   MSVCRTD:MSVCR120D.dll
 0002:00022830       ?_RTC_AllocaFailure@@YAXPAXPAU_RTC_ALLOCA_NODE@@H@Z 00435830 f   MSVCRTD:error.obj
 0002:00022a10       ?_RTC_Failure@@YAXPAXH@Z   00435a10 f   MSVCRTD:error.obj
 0002:00022a80       ?_RTC_StackFailure@@YAXPAXPBD@Z 00435a80 f   MSVCRTD:error.obj
 0002:00022ee0       __RTC_UninitUse            00435ee0 f   MSVCRTD:error.obj
 0002:00023010       ___raise_securityfailure   00436010 f   MSVCRTD:gs_report.obj
 0002:00023070       ___report_gsfailure        00436070 f   MSVCRTD:gs_report.obj
 0002:000231c0       ___report_rangecheckfailure 004361c0 f   MSVCRTD:gs_report.obj
 0002:000231d0       ___report_securityfailure  004361d0 f   MSVCRTD:gs_report.obj
 0002:000232e0       ___report_securityfailureEx 004362e0 f   MSVCRTD:gs_report.obj
 0002:00023450       ?_RTC_GetErrorFunc@@YAP6AHHPBDH00ZZPBX@Z 00436450 f   MSVCRTD:userapi.obj
 0002:00023460       ?_RTC_GetErrorFuncW@@YAP6AHHPB_WH00ZZPBX@Z 00436460 f   MSVCRTD:userapi.obj
 0002:00023470       __RTC_GetErrDesc           00436470 f   MSVCRTD:userapi.obj
 0002:00023490       __RTC_NumErrors            00436490 f   MSVCRTD:userapi.obj
 0002:000234a0       __RTC_SetErrorFunc         004364a0 f   MSVCRTD:userapi.obj
 0002:000234d0       __RTC_SetErrorFuncW        004364d0 f   MSVCRTD:userapi.obj
 0002:00023500       __RTC_SetErrorType         00436500 f   MSVCRTD:userapi.obj
 0002:0002352c       __CRT_RTC_INITW            0043652c f   MSVCRTD:MSVCR120D.dll
 0002:00023532       ??1type_info@@UAE@XZ       00436532 f   MSVCRTD:MSVCR120D.dll
 0002:00023540       ?__CxxUnhandledExceptionFilter@@YGJPAU_EXCEPTION_POINTERS@@@Z 00436540 f   MSVCRTD:unhandld.obj
 0002:000235c0       ___CxxSetUnhandledExceptionFilter 004365c0 f   MSVCRTD:unhandld.obj
 0002:000235da       __XcptFilter               004365da f   MSVCRTD:MSVCR120D.dll
 0002:000235e0       ___crtGetShowWindowMode    004365e0 f   MSVCRTD:MSVCR120D.dll
 0002:000235e6       __amsg_exit                004365e6 f   MSVCRTD:MSVCR120D.dll
 0002:000235f0       __setargv                  004365f0 f   MSVCRTD:dllargv.obj
 0002:000235f8       ___getmainargs             004365f8 f   MSVCRTD:MSVCR120D.dll
 0002:000235fe       ___set_app_type            004365fe f   MSVCRTD:MSVCR120D.dll
 0002:00023604       __CrtSetCheckCount         00436604 f   MSVCRTD:MSVCR120D.dll
 0002:00023610       __FindPESection            00436610 f   MSVCRTD:pesect.obj
 0002:000236a0       __IsNonwritableInCurrentImage 004366a0 f   MSVCRTD:pesect.obj
 0002:00023820       __ValidateImageBase        00436820 f   MSVCRTD:pesect.obj
 0002:00023894       _exit                      00436894 f   MSVCRTD:MSVCR120D.dll
 0002:0002389a       __exit                     0043689a f   MSVCRTD:MSVCR120D.dll
 0002:000238a0       __cexit                    004368a0 f   MSVCRTD:MSVCR120D.dll
 0002:000238b0       ___security_init_cookie    004368b0 f   MSVCRTD:gs_support.obj
 0002:000239d0       __matherr                  004369d0 f   MSVCRTD:merr.obj
 0002:000239d8       __ismbblead                004369d8 f   MSVCRTD:MSVCR120D.dll
 0002:000239e0       __RTC_Initialize           004369e0 f   MSVCRTD:initsect.obj
 0002:00023a10       __RTC_Terminate            00436a10 f   MSVCRTD:initsect.obj
 0002:00023a3e       __configthreadlocale       00436a3e f   MSVCRTD:MSVCR120D.dll
 0002:00023a50       __invoke_watson_if_error   00436a50 f i MSVCRTD:fp8.obj
 0002:00023a80       __setdefaultprecision      00436a80 f   MSVCRTD:fp8.obj
 0002:00023ac2       ___setusermatherr          00436ac2 f   MSVCRTD:MSVCR120D.dll
 0002:00023ac8       __initterm_e               00436ac8 f   MSVCRTD:MSVCR120D.dll
 0002:00023ace       __initterm                 00436ace f   MSVCRTD:MSVCR120D.dll
 0002:00023ad4       __except_handler4_common   00436ad4 f   MSVCRTD:MSVCR120D.dll
 0002:00024040       ?_RTC_GetSrcLine@@YAHPAEPA_WKPAH1K@Z 00437040 f   MSVCRTD:pdblkup.obj
 0002:0002439a       __crt_debugger_hook        0043739a f   MSVCRTD:MSVCR120D.dll
 0002:000243a0       ___crtUnhandledException   004373a0 f   MSVCRTD:MSVCR120D.dll
 0002:000243a6       ___crtTerminateProcess     004373a6 f   MSVCRTD:MSVCR120D.dll
 0002:000243ac       ___crtSetUnhandledExceptionFilter 004373ac f   MSVCRTD:MSVCR120D.dll
 0002:000243b2       __invoke_watson            004373b2 f   MSVCRTD:MSVCR120D.dll
 0002:000243b8       __controlfp_s              004373b8 f   MSVCRTD:MSVCR120D.dll
 0002:000243be       _wcscpy_s                  004373be f   MSVCRTD:MSVCR120D.dll
 0002:000243c4       __wmakepath_s              004373c4 f   MSVCRTD:MSVCR120D.dll
 0002:000243ca       __wsplitpath_s             004373ca f   MSVCRTD:MSVCR120D.dll
 0002:000243d0       _EncodePointer@4           004373d0 f   kernel32:KERNEL32.dll
 0002:000243d6       _DecodePointer@4           004373d6 f   kernel32:KERNEL32.dll
 0002:000243dc       _IsDebuggerPresent@0       004373dc f   kernel32:KERNEL32.dll
 0002:000243e2       _RaiseException@16         004373e2 f   kernel32:KERNEL32.dll
 0002:000243e8       _GetLastError@0            004373e8 f   kernel32:KERNEL32.dll
 0002:000243ee       _GetProcAddress@8          004373ee f   kernel32:KERNEL32.dll
 0002:000243f4       _LoadLibraryExW@12         004373f4 f   kernel32:KERNEL32.dll
 0002:000243fa       _MultiByteToWideChar@24    004373fa f   kernel32:KERNEL32.dll
 0002:00024400       _WideCharToMultiByte@32    00437400 f   kernel32:KERNEL32.dll
 0002:00024406       _IsProcessorFeaturePresent@4 00437406 f   kernel32:KERNEL32.dll
 0002:0002440c       _QueryPerformanceCounter@4 0043740c f   kernel32:KERNEL32.dll
 0002:00024412       _GetCurrentProcessId@0     00437412 f   kernel32:KERNEL32.dll
 0002:00024418       _GetCurrentThreadId@0      00437418 f   kernel32:KERNEL32.dll
 0002:0002441e       _GetSystemTimeAsFileTime@4 0043741e f   kernel32:KERNEL32.dll
 0002:00024424       _HeapAlloc@12              00437424 f   kernel32:KERNEL32.dll
 0002:0002442a       _HeapFree@12               0043742a f   kernel32:KERNEL32.dll
 0002:00024430       _GetProcessHeap@0          00437430 f   kernel32:KERNEL32.dll
 0002:00024436       _VirtualQuery@12           00437436 f   kernel32:KERNEL32.dll
 0002:0002443c       _FreeLibrary@4             0043743c f   kernel32:KERNEL32.dll
 0002:00024442       _GetModuleFileNameW@12     00437442 f   kernel32:KERNEL32.dll
 0002:00024448       _GetModuleHandleW@4        00437448 f   kernel32:KERNEL32.dll
 0002:0002444e       ?deleteData@QGArray@@MAEXPAUarray_data@1@@Z 0043744e f   qt-mt323:qt-mt323.dll
 0002:00024454       ?newData@QGArray@@MAEPAUarray_data@1@XZ 00437454 f   qt-mt323:qt-mt323.dll
 0002:0002445a       ??1QGArray@@MAE@XZ         0043745a f   qt-mt323:qt-mt323.dll
 0002:00024460       ?qWinMain@@YAXPAUHINSTANCE__@@0PADHAAHAAV?$QMemArray@PAD@@@Z 00437460 f   qt-mt323:qt-mt323.dll
 0002:00024466       ??0QGArray@@IAE@H@Z        00437466 f   qt-mt323:qt-mt323.dll
 0002:0002446c       ?duplicate@QGArray@@IAEAAV1@ABV1@@Z 0043746c f   qt-mt323:qt-mt323.dll
 0003:00000000       ___xc_a                    0043e000     MSVCRTD:cinitexe.obj
 0003:00000378       ___xc_z                    0043e378     MSVCRTD:cinitexe.obj
 0003:0000047c       ___xi_a                    0043e47c     MSVCRTD:cinitexe.obj
 0003:0000088c       ___xi_z                    0043e88c     MSVCRTD:cinitexe.obj
 0003:000009c8       ??_C@_0N@DFFNFDON@32?532?5126?52?5?$AA@ 0043e9c8     bncs_clientmainwindowimpl.obj
 0003:000009d8       ??_C@_0N@PKEHNDKL@?5?5?5c?5?$CD6C006C?$AA@ 0043e9d8     bncs_clientmainwindowimpl.obj
 0003:000009e8       ??_C@_0N@GAFGBKHE@?4?5?5c?5?$CD7A017A?$AA@ 0043e9e8     bncs_clientmainwindowimpl.obj
 0003:000009f8       ??_C@_0N@OOIFJOKD@X?5?5c?5?$CD7E0A7E?$AA@ 0043e9f8     bncs_clientmainwindowimpl.obj
 0003:00000a08       ??_C@_0N@GPGJNNJF@o?5?5c?5?$CD7F117F?$AA@ 0043ea08     bncs_clientmainwindowimpl.obj
 0003:00000a18       ??_C@_0N@KNHIPOKA@O?5?5c?5?$CD830083?$AA@ 0043ea18     bncs_clientmainwindowimpl.obj
 0003:00000a28       ??_C@_0N@PIJBLKCK@?$CL?5?5c?5?$CD810D81?$AA@ 0043ea28     bncs_clientmainwindowimpl.obj
 0003:00000a38       ??_C@_0N@MEOONKCD@?$EA?5?5c?5?$CD8B018B?$AA@ 0043ea38     bncs_clientmainwindowimpl.obj
 0003:00000a48       ??_C@_0N@BGOEBLFL@?$CD?5?5c?5?$CD831383?$AA@ 0043ea48     bncs_clientmainwindowimpl.obj
 0003:00000a58       ??_C@_0N@FCOMBLOA@$?5?5c?5?$CD841C84?$AA@ 0043ea58     bncs_clientmainwindowimpl.obj
 0003:00000a68       ??_C@_0N@OMLBCKHH@?$CF?5?5c?5?$CD881B88?$AA@ 0043ea68     bncs_clientmainwindowimpl.obj
 0003:00000a78       ??_C@_0N@NOIODKCG@?$CG?5?5c?5?$CD920492?$AA@ 0043ea78     bncs_clientmainwindowimpl.obj
 0003:00000a88       ??_C@_0N@IKGDDIAG@?$CK?5?5c?5?$CD940B94?$AA@ 0043ea88     bncs_clientmainwindowimpl.obj
 0003:00000a98       ??_C@_0N@GPNLNGJJ@?$DN?5?5c?5?$CD9A0D9A?$AA@ 0043ea98     bncs_clientmainwindowimpl.obj
 0003:00000aa8       ??_C@_0N@NHBGGFDK@?9?5?5c?5?$CD9C129C?$AA@ 0043eaa8     bncs_clientmainwindowimpl.obj
 0003:00000ab8       ??_C@_0N@EALNJDCO@?$DL?5?5c?5?$CD872387?$AA@ 0043eab8     bncs_clientmainwindowimpl.obj
 0003:00000ac8       ??_C@_0N@JFLGDND@?3?5?5c?5?$CD8B248B?$AA@ 0043eac8     bncs_clientmainwindowimpl.obj
 0003:00000ad8       ??_C@_0N@DPAKJBGA@?$DO?5?5c?5?$CD8B2C8B?$AA@ 0043ead8     bncs_clientmainwindowimpl.obj
 0003:00000ae8       ??_C@_0N@PKEPOLKK@?0?5?5c?5?$CD8F328F?$AA@ 0043eae8     bncs_clientmainwindowimpl.obj
 0003:00000af8       ??_C@_0N@BLLMJFHD@?$DM?5?5c?5?$CD902B90?$AA@ 0043eaf8     bncs_clientmainwindowimpl.obj
 0003:00000b08       ??_C@_0N@FAFKOAHE@1?5?5c?5?$CD923492?$AA@ 0043eb08     bncs_clientmainwindowimpl.obj
 0003:00000b18       ??_C@_0N@JLHLFAAE@2?5?5c?5?$CD943C94?$AA@ 0043eb18     bncs_clientmainwindowimpl.obj
 0003:00000b28       ??_C@_0N@NFCNEJBP@3?5?5c?5?$CD9B3F9B?$AA@ 0043eb28     bncs_clientmainwindowimpl.obj
 0003:00000b38       ??_C@_0N@MKJOINMM@4?5?5c?5?$CDA316A3?$AA@ 0043eb38     bncs_clientmainwindowimpl.obj
 0003:00000b48       ??_C@_0N@KBBBMFPN@5?5?5c?5?$CDA41BA4?$AA@ 0043eb48     bncs_clientmainwindowimpl.obj
 0003:00000b58       ??_C@_0N@DABHOHCO@6?5?5c?5?$CDAA1DAA?$AA@ 0043eb58     bncs_clientmainwindowimpl.obj
 0003:00000b68       ??_C@_0N@HBCIEBE@7?5?5c?5?$CDBA00BA?$AA@ 0043eb68     bncs_clientmainwindowimpl.obj
 0003:00000b78       ??_C@_0N@FGADGMJN@8?5?5c?5?$CDAD23AD?$AA@ 0043eb78     bncs_clientmainwindowimpl.obj
 0003:00000b88       ??_C@_0N@EPKFKCBC@9?5?5c?5?$CDB42BB4?$AA@ 0043eb88     bncs_clientmainwindowimpl.obj
 0003:00000b98       ??_C@_0N@HJLMKCAM@0?5?5c?5?$CDB92CB9?$AA@ 0043eb98     bncs_clientmainwindowimpl.obj
 0003:00000ba8       ??_C@_0N@OCNGDODB@q?5?5c?5?$CDBB33BB?$AA@ 0043eba8     bncs_clientmainwindowimpl.obj
 0003:00000bb8       ??_C@_0N@HLEIOHAP@w?5?5c?5?$CDBE3CBE?$AA@ 0043ebb8     bncs_clientmainwindowimpl.obj
 0003:00000bc8       ??_C@_0N@JNFOHEFE@e?5?5c?5?$CD884888?$AA@ 0043ebc8     bncs_clientmainwindowimpl.obj
 0003:00000bd8       ??_C@_0N@NMPGLJJO@r?5?5c?5?$CD8D548D?$AA@ 0043ebd8     bncs_clientmainwindowimpl.obj
 0003:00000be8       ??_C@_0N@OAAAOMHN@t?5?5c?5?$CD974097?$AA@ 0043ebe8     bncs_clientmainwindowimpl.obj
 0003:00000bf8       ??_C@_0N@CBOJAKJF@y?5?5c?5?$CD9B449B?$AA@ 0043ebf8     bncs_clientmainwindowimpl.obj
 0003:00000c08       ??_C@_0N@BPPPINDE@u?5?5c?5?$CD9E4C9E?$AA@ 0043ec08     bncs_clientmainwindowimpl.obj
 0003:00000c18       ??_C@_0N@IGMMCFHH@i?5?5c?5?$CD8D6B8D?$AA@ 0043ec18     bncs_clientmainwindowimpl.obj
 0003:00000c28       ??_C@_0N@GIFNFNFD@p?5?5c?5?$CD987C98?$AA@ 0043ec28     bncs_clientmainwindowimpl.obj
 0003:00000c38       ??_C@_0N@HNOECGEC@a?5?5c?5?$CDA34FA3?$AA@ 0043ec38     bncs_clientmainwindowimpl.obj
 0003:00000c48       ??_C@_0N@DKHPPFEN@s?5?5c?5?$CDAE4CAE?$AA@ 0043ec48     bncs_clientmainwindowimpl.obj
 0003:00000c58       ??_C@_0N@JMJNNEPG@d?5?5c?5?$CDA354A3?$AA@ 0043ec58     bncs_clientmainwindowimpl.obj
 0003:00000c68       ??_C@_0N@ENGIBJOP@f?5?5c?5?$CDA75BA7?$AA@ 0043ec68     bncs_clientmainwindowimpl.obj
 0003:00000c78       ??_C@_0N@BBBMNDEI@g?5?5c?5?$CDA95DA9?$AA@ 0043ec78     bncs_clientmainwindowimpl.obj
 0003:00000c88       ??_C@_0N@PJLBJBLK@h?5?5c?5?$CDB04AB0?$AA@ 0043ec88     bncs_clientmainwindowimpl.obj
 0003:00000c98       ??_C@_0N@OPDOBHLL@j?5?5c?5?$CDAD65AD?$AA@ 0043ec98     bncs_clientmainwindowimpl.obj
 0003:00000ca8       ??_C@_0N@LPDMNFGK@k?5?5c?5?$CDAF68AF?$AA@ 0043eca8     bncs_clientmainwindowimpl.obj
 0003:00000cb8       ??_C@_0N@JGDPKDEO@l?5?5c?5?$CDB26CB2?$AA@ 0043ecb8     bncs_clientmainwindowimpl.obj
 0003:00000cc8       ??_C@_0N@OBEILKL@z?5?5c?5?$CDB675B6?$AA@ 0043ecc8     bncs_clientmainwindowimpl.obj
 0003:00000cd8       ??_C@_0N@NIHENNPA@x?5?5c?5?$CDB876B8?$AA@ 0043ecd8     bncs_clientmainwindowimpl.obj
 0003:00000ce8       ??_C@_0N@LFOGFHNO@c?5?5c?5?$CDBD7DBD?$AA@ 0043ece8     bncs_clientmainwindowimpl.obj
 0003:00000cf8       ??_C@_0N@BLFMFOJM@v?5?5c?5?$CDC500C5?$AA@ 0043ecf8     bncs_clientmainwindowimpl.obj
 0003:00000d08       ??_C@_0N@ELPPOGOH@b?5?5c?5?$CDCE00CE?$AA@ 0043ed08     bncs_clientmainwindowimpl.obj
 0003:00000d18       ??_C@_0N@OOFAPAAF@n?5?5c?5?$CDDA00DA?$AA@ 0043ed18     bncs_clientmainwindowimpl.obj
 0003:00000d28       ??_C@_0N@OPGBICI@m?5?5c?5?$CDC43AC4?$AA@ 0043ed28     bncs_clientmainwindowimpl.obj
 0003:00000d38       ??_C@_0N@FHMCJMDB@M?5?5c?5?$CDCB37CB?$AA@ 0043ed38     bncs_clientmainwindowimpl.obj
 0003:00000d48       ??_C@_0N@NMBCCFNA@N?5?5c?5?$CDCC3CCC?$AA@ 0043ed48     bncs_clientmainwindowimpl.obj
 0003:00000d58       ??_C@_0N@FFHBHNCP@B?5?5c?5?$CDD23ED2?$AA@ 0043ed58     bncs_clientmainwindowimpl.obj
 0003:00000d68       ??_C@_0N@KLJDCBEH@V?5?5c?5?$CDEB03EB?$AA@ 0043ed68     bncs_clientmainwindowimpl.obj
 0003:00000d78       ??_C@_0N@GJIEJEBC@C?5?5c?5?$CDEB0CEB?$AA@ 0043ed78     bncs_clientmainwindowimpl.obj
 0003:00000d88       ??_C@_0N@KPOHGIEG@Z?5?5c?5?$CDE711E7?$AA@ 0043ed88     bncs_clientmainwindowimpl.obj
 0003:00000d98       ??_C@_0N@INMAEKJB@A?5?5c?5?$CDEC13EC?$AA@ 0043ed98     bncs_clientmainwindowimpl.obj
 0003:00000da8       ??_C@_0N@NJEBGIMI@S?5?5c?5?$CDF301F3?$AA@ 0043eda8     bncs_clientmainwindowimpl.obj
 0003:00000db8       ??_C@_0N@IEPHOPME@D?5?5c?5?$CDF70AF7?$AA@ 0043edb8     bncs_clientmainwindowimpl.obj
 0003:00000dc8       ??_C@_0N@NEHHENKN@F?5?5c?5?$CDFE01FE?$AA@ 0043edc8     bncs_clientmainwindowimpl.obj
 0003:00000dd8       ??_C@_0N@HPAKEIJG@G?5?5c?5?$CDFC0FFC?$AA@ 0043edd8     bncs_clientmainwindowimpl.obj
 0003:00000de8       ??_C@_0N@PHBOFBJA@H?5?5c?5?$CDF412F4?$AA@ 0043ede8     bncs_clientmainwindowimpl.obj
 0003:00000df8       ??_C@_0N@FJKHFBPG@J?5?5c?5?$CDFC13FC?$AA@ 0043edf8     bncs_clientmainwindowimpl.obj
 0003:00000e08       ??_C@_0N@OPAOCIOP@K?5?5c?5?$CDFC1CFC?$AA@ 0043ee08     bncs_clientmainwindowimpl.obj
 0003:00000e18       ??_C@_0N@GJODHDPK@L?5?5c?5?$CDFC28FC?$AA@ 0043ee18     bncs_clientmainwindowimpl.obj
 0003:00000e28       ??_C@_0N@FKBDHPFC@P?5?5c?5?$CDFB35FB?$AA@ 0043ee28     bncs_clientmainwindowimpl.obj
 0003:00000e38       ??_C@_0N@DIIPFGJF@I?5?5c?5?$CDCD40CD?$AA@ 0043ee38     bncs_clientmainwindowimpl.obj
 0003:00000e48       ??_C@_0N@CPOBCEKA@U?5?5c?5?$CDD344D3?$AA@ 0043ee48     bncs_clientmainwindowimpl.obj
 0003:00000e58       ??_C@_0N@GKILCAHA@Y?5?5c?5?$CDD649D6?$AA@ 0043ee58     bncs_clientmainwindowimpl.obj
 0003:00000e68       ??_C@_0N@DJNICBA@T?5?5c?5?$CDDA46DA?$AA@ 0043ee68     bncs_clientmainwindowimpl.obj
 0003:00000e78       ??_C@_0N@IAGHMOOK@R?5?5c?5?$CDDC4CDC?$AA@ 0043ee78     bncs_clientmainwindowimpl.obj
 0003:00000e88       ??_C@_0N@DFEGGLFE@E?5?5c?5?$CDDE51DE?$AA@ 0043ee88     bncs_clientmainwindowimpl.obj
 0003:00000e98       ??_C@_0N@INMBKFOO@W?5?5c?5?$CDD365D3?$AA@ 0043ee98     bncs_clientmainwindowimpl.obj
 0003:00000ea8       ??_C@_0N@LBIFGJGB@Q?5?5c?5?$CDDC64DC?$AA@ 0043eea8     bncs_clientmainwindowimpl.obj
 0003:00000eb8       ??_C@_0N@PDNNHGCM@?$CB?5?5c?5?$CDE24EE2?$AA@ 0043eeb8     bncs_clientmainwindowimpl.obj
 0003:00000ec8       ??_C@_0N@LDMHDOLK@?$HO?5?5c?5?$CDE454E4?$AA@ 0043eec8     bncs_clientmainwindowimpl.obj
 0003:00000ed8       ??_C@_0N@JICICIBD@?$FO?5?5c?5?$CDE558E5?$AA@ 0043eed8     bncs_clientmainwindowimpl.obj
 0003:00000ee8       ??_C@_0N@NGFHNKLI@?1?5?5c?5?$CDE955E9?$AA@ 0043eee8     bncs_clientmainwindowimpl.obj
 0003:00000ef8       ??_C@_0N@CCKFPLBO@?$CI?5?5c?5?$CDEC5BEC?$AA@ 0043eef8     bncs_clientmainwindowimpl.obj
 0003:00000f08       ??_C@_0N@LCBFGODN@?$CJ?5?5c?5?$CDF15DF1?$AA@ 0043ef08     bncs_clientmainwindowimpl.obj
 0003:00000f18       ??_C@_0N@DBPADFHK@_?5?5c?5?$CDED60ED?$AA@ 0043ef18     bncs_clientmainwindowimpl.obj
 0003:00000f28       ??_C@_0N@IJCIEKME@?$GA?5?5c?5?$CDF464F4?$AA@ 0043ef28     bncs_clientmainwindowimpl.obj
 0003:00000f38       ??_C@_0N@PMMDDFF@?8?5?5c?5?$CD8A878A?$AA@ 0043ef38     bncs_clientmainwindowimpl.obj
 0003:00000f48       ??_C@_0M@OFBNPEMJ@?$FN?5?5c?5gray59?$AA@ 0043ef48     bncs_clientmainwindowimpl.obj
 0003:00000f58       ??_C@_0N@MEAMILEB@?$FL?5?5c?5?$CD9D9B9D?$AA@ 0043ef58     bncs_clientmainwindowimpl.obj
 0003:00000f68       ??_C@_0N@BLAEHKEH@?$HL?5?5c?5?$CDB689B6?$AA@ 0043ef68     bncs_clientmainwindowimpl.obj
 0003:00000f78       ??_C@_0N@MACPCIBN@?$HN?5?5c?5?$CDBE84BE?$AA@ 0043ef78     bncs_clientmainwindowimpl.obj
 0003:00000f88       ??_C@_0N@GPNAGNNO@?$HM?5?5c?5?$CDBC89BC?$AA@ 0043ef88     bncs_clientmainwindowimpl.obj
 0003:00000f98       ??_C@_0N@GKLGJMGI@?5?4?5c?5?$CDBF93BF?$AA@ 0043ef98     bncs_clientmainwindowimpl.obj
 0003:00000fa8       ??_C@_0N@DBLPCIKM@?4?4?5c?5?$CDA4A3A4?$AA@ 0043efa8     bncs_clientmainwindowimpl.obj
 0003:00000fb8       ??_C@_0N@KNPMHBDB@X?4?5c?5?$CDA9A7A9?$AA@ 0043efb8     bncs_clientmainwindowimpl.obj
 0003:00000fc8       ??_C@_0N@CGDJJHNH@o?4?5c?5?$CDABABAB?$AA@ 0043efc8     bncs_clientmainwindowimpl.obj
 0003:00000fd8       ??_C@_0N@GBPIEIFL@O?4?5c?5?$CDB5B5B5?$AA@ 0043efd8     bncs_clientmainwindowimpl.obj
 0003:00000fe8       ??_C@_0N@CPADLCPO@?$CL?4?5c?5?$CDBBBBBB?$AA@ 0043efe8     bncs_clientmainwindowimpl.obj
 0003:00000ff8       ??_C@_0N@LIKHMFJJ@?$EA?4?5c?5?$CDC284C2?$AA@ 0043eff8     bncs_clientmainwindowimpl.obj
 0003:00001008       ??_C@_0N@KPDCENFD@?$CD?4?5c?5?$CDC58CC5?$AA@ 0043f008     bncs_clientmainwindowimpl.obj
 0003:00001018       ??_C@_0N@COBHAKKM@$?4?5c?5?$CDC591C5?$AA@ 0043f018     bncs_clientmainwindowimpl.obj
 0003:00001028       ??_C@_0N@JHGNKOIP@?$CF?4?5c?5?$CDCB92CB?$AA@ 0043f028     bncs_clientmainwindowimpl.obj
 0003:00001038       ??_C@_0N@FMEMBOPP@?$CG?4?5c?5?$CDCD9ECD?$AA@ 0043f038     bncs_clientmainwindowimpl.obj
 0003:00001048       ??_C@_0N@DPNHIHBK@?$CK?4?5c?5?$CDD29BD2?$AA@ 0043f048     bncs_clientmainwindowimpl.obj
 0003:00001058       ??_C@_0N@OCIPNGEJ@?$DN?4?5c?5?$CDCEA2CE?$AA@ 0043f058     bncs_clientmainwindowimpl.obj
 0003:00001068       ??_C@_0N@NHBKCCM@?9?4?5c?5?$CDD6A1D6?$AA@ 0043f068     bncs_clientmainwindowimpl.obj
 0003:00001078       ??_C@_0N@DKIMEIAM@?$DL?4?5c?5?$CDD4ADD4?$AA@ 0043f078     bncs_clientmainwindowimpl.obj
 0003:00001088       ??_C@_0N@DNKJDLOD@?3?4?5c?5?$CDD9A5D9?$AA@ 0043f088     bncs_clientmainwindowimpl.obj
 0003:00001098       ??_C@_0N@BALJODCO@?$DO?4?5c?5?$CDD9B7D9?$AA@ 0043f098     bncs_clientmainwindowimpl.obj
 0003:000010a8       ??_C@_0N@EIHDFCKE@?0?4?5c?5?$CDF183F1?$AA@ 0043f0a8     bncs_clientmainwindowimpl.obj
 0003:000010b8       ??_C@_0N@JGOIJFKD@?$DM?4?5c?5?$CDC4C4C4?$AA@ 0043f0b8     bncs_clientmainwindowimpl.obj
 0003:000010c8       ??_C@_0N@OJMJNINF@1?4?5c?5?$CDCCCBCC?$AA@ 0043f0c8     bncs_clientmainwindowimpl.obj
 0003:000010d8       ??_C@_0N@BOMGGNAI@2?4?5c?5?$CDD4D4D4?$AA@ 0043f0d8     bncs_clientmainwindowimpl.obj
 0003:000010e8       ??_C@_0N@CJBKHLGB@3?4?5c?5?$CDDBDBDB?$AA@ 0043f0e8     bncs_clientmainwindowimpl.obj
 0003:000010f8       ??_C@_0N@FEELIIFE@4?4?5c?5?$CDE0C4E0?$AA@ 0043f0f8     bncs_clientmainwindowimpl.obj
 0003:00001108       ??_C@_0N@IAMIEOOG@5?4?5c?5?$CDE4CCE4?$AA@ 0043f108     bncs_clientmainwindowimpl.obj
 0003:00001118       ??_C@_0N@DPGKNBND@6?4?5c?5?$CDE8D3E8?$AA@ 0043f118     bncs_clientmainwindowimpl.obj
 0003:00001128       ??_C@_0N@IBIFOOLC@7?4?5c?5?$CDEEDEEE?$AA@ 0043f128     bncs_clientmainwindowimpl.obj
 0003:00001138       ??_C@_0N@LOEMEDBN@8?4?5c?5?$CDE4E4E4?$AA@ 0043f138     bncs_clientmainwindowimpl.obj
 0003:00001148       ??_C@_0N@LHFLLKHB@9?4?5c?5?$CDEFE0EF?$AA@ 0043f148     bncs_clientmainwindowimpl.obj
 0003:00001158       ??_C@_0N@GEPONKBN@0?4?5c?5?$CDECECEC?$AA@ 0043f158     bncs_clientmainwindowimpl.obj
 0003:00001168       ??_C@_0N@JKEABJGM@q?4?5c?5?$CDF1E4F1?$AA@ 0043f168     bncs_clientmainwindowimpl.obj
 0003:00001178       ??_C@_0N@ELPOPDOJ@w?4?5c?5?$CDF4EAF4?$AA@ 0043f178     bncs_clientmainwindowimpl.obj
 0003:00001188       ??_C@_0M@CLMMHKJO@e?4?5c?5gray96?$AA@ 0043f188     bncs_clientmainwindowimpl.obj
 0003:00001198       ??_C@_0N@NHEFLFCN@r?4?5c?5?$CDFFFFFF?$AA@ 0043f198     bncs_clientmainwindowimpl.obj
 0003:000011a8       ??_C@_09DDCFKCPH@t?4?5c?5None?$AA@ 0043f1a8     bncs_clientmainwindowimpl.obj
 0003:000011b8       ??_C@_0EB@MOCDMHHO@t?4t?4t?4t?4t?4t?4?0?4?$GA?5?$GA?5?$CJ?5?$GA?5?$GA?5?$GA?5?$GA?5?$GA?5?$CJ?5@ 0043f1b8     bncs_clientmainwindowimpl.obj
 0003:00001208       ??_C@_0EB@EOPMMFPB@t?4t?4t?4t?4t?4?0?4P?5G?5A?5C?5S?5V?5V?5C?5C?5V?5@ 0043f208     bncs_clientmainwindowimpl.obj
 0003:00001258       ??_C@_0EB@LAKAOLPB@t?4t?4t?4t?4?0?4L?5J?5?9?5?$CL?5?$CD?5?$CD?5X?5?$CL?5?$CD?5?$CD?5?$CL?5@ 0043f258     bncs_clientmainwindowimpl.obj
 0003:000012a8       ??_C@_0EB@MONHLJIG@t?4t?4t?4?0?4K?5D?5?9?5X?5?4?5?$CD?5?$CD?5?4?5?$CD?5?$CD?5?$CD?5?$CD?5@ 0043f2a8     bncs_clientmainwindowimpl.obj
 0003:000012f8       ??_C@_0EB@HBNKBKEK@t?4t?4?0?4J?5S?5?9?5?$CD?5?$CD?5?$CD?5?$CD?5O?5?4?5?$CD?5?$CL?5?$CD?5?$CD?5@ 0043f2f8     bncs_clientmainwindowimpl.obj
 0003:00001348       ??_C@_0EB@BMIFDLGL@t?4?0?4J?5S?5?$CG?5?$CD?5?$CD?5X?5?$CL?5?$CD?5?$CD?5X?5?$CD?5X?5?$CL?5?$CD?5@ 0043f348     bncs_clientmainwindowimpl.obj
 0003:00001398       ??_C@_0EB@EGIGBGH@?0?4J?5V?5?$CG?5X?5?$CD?5?$CL?5?4?5?4?5?$CD?5?$CD?5?$CL?5?$CD?5?4?5?4?5?$CD?5@ 0043f398     bncs_clientmainwindowimpl.obj
 0003:000013e8       ??_C@_0EB@IJIOJBOL@?$GA?5F?5?$EA?5?4?5?$CL?5?$CD?5?$CL?5X?5?$CL?5?$CD?5?$CL?5?$CD?5?$CD?5?4?5?4?5?$CD?5@ 0043f3e8     bncs_clientmainwindowimpl.obj
 0003:00001438       ??_C@_0EB@BPMCLLFD@?$GA?5S?5?4?5?4?5l?5q?49?4y?5?$CL?5?$CL?5?4?5?$CD?54?47?4?$DO?4X?5@ 0043f438     bncs_clientmainwindowimpl.obj
 0003:00001488       ??_C@_0EB@BDGCDCIJ@?$GA?5S?5?4?5?4?5z?5r?4r?43?5?4?5?4?5?4?5?4?57?4r?46?4?4?5@ 0043f488     bncs_clientmainwindowimpl.obj
 0003:000014d8       ??_C@_0EB@OAHIKPDN@?$GA?5S?5?4?5?4?5z?5r?4r?43?5?4?5?4?5?4?5?4?57?4r?46?4?4?5@ 0043f4d8     bncs_clientmainwindowimpl.obj
 0003:00001528       ??_C@_0EB@BBNKNNIB@?$GA?5S?5?4?5?4?5z?5r?4r?43?5?4?5?4?5?4?5?4?57?4r?46?4?4?5@ 0043f528     bncs_clientmainwindowimpl.obj
 0003:00001578       ??_C@_0EB@FEAMHIKG@?$GA?5S?5?4?5?4?5z?5r?4r?43?5?4?5?4?5?4?5?4?5q?4r?46?4?4?5@ 0043f578     bncs_clientmainwindowimpl.obj
 0003:000015c8       ??_C@_0EB@HLLPKDF@?$GA?5S?5?4?5?4?5z?5r?4r?4f?5?3?5?3?5?$CF?5?3?5q?4r?46?4?4?5@ 0043f5c8     bncs_clientmainwindowimpl.obj
 0003:00001618       ??_C@_0EB@DNKBOAFG@?$GA?5S?5?4?5?4?5z?5r?4r?4r?4r?4r?4r?4r?4r?4r?46?4?4?5@ 0043f618     bncs_clientmainwindowimpl.obj
 0003:00001668       ??_C@_0EB@LPEGKCKJ@?$GA?5C?5?4?5?4?5z?5r?4r?4r?4r?4r?4r?4r?4r?4r?46?4?4?5@ 0043f668     bncs_clientmainwindowimpl.obj
 0003:000016b8       ??_C@_0EB@IHJCBCDN@_?5S?5?4?5?4?5z?5r?4r?4k?51?51?51?51?5w?4r?46?4?4?5@ 0043f6b8     bncs_clientmainwindowimpl.obj
 0003:00001708       ??_C@_0EB@COFPKNKN@_?5S?5?4?5?4?5z?5r?4r?43?5?4?5?4?5?4?5?4?57?4e?46?4?4?5@ 0043f708     bncs_clientmainwindowimpl.obj
 0003:00001758       ??_C@_0EB@FLMLMDAM@?$CI?5S?5?4?5?4?5x?5r?4r?43?5?4?5?4?5?4?5?4?59?4r?46?4?4?5@ 0043f758     bncs_clientmainwindowimpl.obj
 0003:000017a8       ??_C@_0EB@IJOEIKHA@?$CI?5S?5?4?5?4?5z?5r?4r?43?5?4?5?4?5?4?5?4?57?4r?46?4?4?5@ 0043f7a8     bncs_clientmainwindowimpl.obj
 0003:000017f8       ??_C@_0EB@BNAMCBKH@?$FO?5S?5?4?5?4?5z?5r?4r?43?5?4?5?4?5?4?5?4?59?4r?46?4X?5@ 0043f7f8     bncs_clientmainwindowimpl.obj
 0003:00001848       ??_C@_0EB@OGGLGMAN@?$HO?5S?5?4?5?4?5z?5r?4r?43?5?4?5?4?5?4?5?4?5q?4e?46?4?$CD?5@ 0043f848     bncs_clientmainwindowimpl.obj
 0003:00001898       ??_C@_0EB@HHFNKAAM@E?5S?5?4?5?4?51?5z?5z?5?$CF?5?4?5X?5X?5?$CL?5l?5?$HM?5l?5$?5@ 0043f898     bncs_clientmainwindowimpl.obj
 0003:000018e8       ??_C@_0EB@PJEANAPD@R?5V?5?4?5?4?5?4?5?4?5X?5X?5X?5o?5o?5?$CF?5?$DL?5?$DL?5?$DO?5?0?5@ 0043f8e8     bncs_clientmainwindowimpl.obj
 0003:00001938       ??_C@_0EB@JEMMPJKH@R?5S?5?4?5?4?5X?5X?5o?5o?5o?5?$DL?5?$DL?5?$DL?5?$DO?5?0?5?0?52?5@ 0043f938     bncs_clientmainwindowimpl.obj
 0003:00001988       ??_C@_0EB@DNGMDKMN@Y?5S?5?4?5X?5o?5o?5$?5$?5?$DL?5?$DO?5?$DO?5e?5?$FL?5?4?4i?5u?5@ 0043f988     bncs_clientmainwindowimpl.obj
 0003:000019d8       ??_C@_0EB@DGFGBMJM@U?5S?5o?5?$CD?5$?5?$DL?5?$DL?5?$DL?5?0?5?0?52?5r?5?$DM?42?4p?5j?5@ 0043f9d8     bncs_clientmainwindowimpl.obj
 0003:00001a28       ??_C@_0EB@NBGCFPCL@I?5Z?5?8?5?$FL?5?$FL?5?$FL?5?$FL?5?4?4?4?4?4?4?4?4X?42?43?4O?4O?4@ 0043fa28     bncs_clientmainwindowimpl.obj
 0003:00001a78       ??_C@_0EB@MOFODALN@I?5Z?5o?4?$DM?4?$DM?41?42?41?42?42?42?43?43?43?48?48?4@ 0043fa78     bncs_clientmainwindowimpl.obj
 0003:00001ac8       ??_C@_0EB@EJPKDMJA@I?5Z?5?$FN?5o?4o?4o?4o?4O?4O?4O?4?$CL?4?$CL?4?$DM?4?$DM?4?$DM?41?4@ 0043fac8     bncs_clientmainwindowimpl.obj
 0003:00001b18       ??_C@_0EB@ODAELBAM@m?5F?5A?5Z?5Z?5A?5A?5A?5A?5A?5A?5A?5A?5A?5A?5A?5@ 0043fb18     bncs_clientmainwindowimpl.obj
 0003:00001b68       ??_C@_0EB@DPNJMJDB@s?5q?5q?5q?59?59?58?58?58?56?55?5?$DM?5?9?5?9?5?9?5?$CK?5@ 0043fb68     bncs_clientmainwindowimpl.obj
 0003:00001bbc       ??_7error_category@std@@6B@ 0043fbbc     bncs_clientmainwindowimpl.obj
 0003:00001be0       ??_7_Generic_error_category@std@@6B@ 0043fbe0     bncs_clientmainwindowimpl.obj
 0003:00001c00       ??_C@_07DCLBNMLN@generic?$AA@ 0043fc00     bncs_clientmainwindowimpl.obj
 0003:00001c0c       ??_C@_0O@BFJCFAAK@unknown?5error?$AA@ 0043fc0c     bncs_clientmainwindowimpl.obj
 0003:00001c20       ??_7_Iostream_error_category@std@@6B@ 0043fc20     bncs_clientmainwindowimpl.obj
 0003:00001c40       ??_C@_08LLGCOLLL@iostream?$AA@ 0043fc40     bncs_clientmainwindowimpl.obj
 0003:00001c4c       ??_C@_0BG@PADBLCHM@iostream?5stream?5error?$AA@ 0043fc4c     bncs_clientmainwindowimpl.obj
 0003:00001c6c       ??_7_System_error_category@std@@6B@ 0043fc6c     bncs_clientmainwindowimpl.obj
 0003:00001c8c       ??_C@_06FHFOAHML@system?$AA@ 0043fc8c     bncs_clientmainwindowimpl.obj
 0003:00001c98       ??_7IccClientCallback@@6B@ 0043fc98     bncs_clientmainwindowimpl.obj
 0003:00001cd4       ??_7bncs_clientMainWindowImpl@@6BQObject@@@ 0043fcd4     bncs_clientmainwindowimpl.obj
 0003:00001ee4       ??_7bncs_clientMainWindowImpl@@6BQPaintDevice@@@ 0043fee4     bncs_clientmainwindowimpl.obj
 0003:00001f10       ??_7bncs_clientMainWindowImpl@@6B@ 0043ff10     bncs_clientmainwindowimpl.obj
 0003:00001f4c       ??_7?$QPtrList@VsignalConnection@@@@6B@ 0043ff4c     bncs_clientmainwindowimpl.obj
 0003:00001f78       ??_7signalConnectionRefList@@6B@ 0043ff78     bncs_clientmainwindowimpl.obj
 0003:00001fa0       ??_C@_09DDAHAMBK@CC_SYSTEM?$AA@ 0043ffa0     bncs_clientmainwindowimpl.obj
 0003:00001fac       ??_C@_01KICIPPFI@?2?$AA@   0043ffac     bncs_clientmainwindowimpl.obj
 0003:00001fb0       ??_C@_07JBEBLGDD@CC_ROOT?$AA@ 0043ffb0     bncs_clientmainwindowimpl.obj
 0003:00001fbc       ??_C@_06GPCKMHLM@?1CLOSE?$AA@ 0043ffbc     bncs_clientmainwindowimpl.obj
 0003:00001fc4       ??_C@_02JPINBHIC@EA?$AA@   0043ffc4     bncs_clientmainwindowimpl.obj
 0003:00001fc8       ??_C@_05BGAGFDJI@?$CF1?4?$CF2?$AA@ 0043ffc8     bncs_clientmainwindowimpl.obj
 0003:00001fd0       ??_C@_02PIGFKFFE@?$CF1?$AA@ 0043ffd0     bncs_clientmainwindowimpl.obj
 0003:00001fd4       ??_C@_0BD@MONCFOHL@adding?5argument?5?$CFs?$AA@ 0043ffd4     bncs_clientmainwindowimpl.obj
 0003:00001fec       ??_C@_0BC@LOGFNIIJ@Cannot?5start?5?$CC?$CF1?$CC?$AA@ 0043ffec     bncs_clientmainwindowimpl.obj
 0003:00002004       ??_C@_0CG@GFHIHLNA@Panel?5Host?5Application?3?5bncs_v45@ 00440004     bncs_clientmainwindowimpl.obj
 0003:00002034       ??_C@_02KNLLHFAA@EC?$AA@   00440034     bncs_clientmainwindowimpl.obj
 0003:00002038       ??_C@_09HHBDIMAF@instance?$DN?$AA@ 00440038     bncs_clientmainwindowimpl.obj
 0003:00002044       ??_C@_0M@GJLBAGLM@bncs_client?$AA@ 00440044     bncs_clientmainwindowimpl.obj
 0003:00002054       ??_C@_0BF@CNMPGPPM@Can?8t?5connect?5to?5CSI?$AA@ 00440054     bncs_clientmainwindowimpl.obj
 0003:00002070       ??_C@_01NEMOKFLO@?$DN?$AA@ 00440070     bncs_clientmainwindowimpl.obj
 0003:00002074       ??_C@_05MPMEJLBC@?1load?$AA@ 00440074     bncs_clientmainwindowimpl.obj
 0003:0000207c       ??_C@_02NEEJNEMO@?1x?$AA@  0044007c     bncs_clientmainwindowimpl.obj
 0003:00002080       ??_C@_02MNFCOFIP@?1y?$AA@  00440080     bncs_clientmainwindowimpl.obj
 0003:00002084       ??_C@_02FDNBMIAB@?1w?$AA@  00440084     bncs_clientmainwindowimpl.obj
 0003:00002088       ??_C@_02JOILMGJP@?1h?$AA@  00440088     bncs_clientmainwindowimpl.obj
 0003:0000208c       ??_C@_09PHABPLJF@?1instance?$AA@ 0044008c     bncs_clientmainwindowimpl.obj
 0003:00002098       ??_C@_0N@JBCFIAPJ@?$CF1?2panels?2?$CF2?$AA@ 00440098     bncs_clientmainwindowimpl.obj
 0003:000020a8       ??_C@_0BE@LMFJCPAI@?$CF1?2panels?2?$CF2?2?$CF3?4dll?$AA@ 004400a8     bncs_clientmainwindowimpl.obj
 0003:000020c0       ??_C@_0BI@DELEGFEN@?$CF1?2panels?2?$CF2?2?$CF3?4bncs_ui?$AA@ 004400c0     bncs_clientmainwindowimpl.obj
 0003:000020dc       ??_C@_0BC@FOKNEDCG@path?$DN?$CF1?2panels?2?$CF2?$AA@ 004400dc     bncs_clientmainwindowimpl.obj
 0003:000020f4       ??_C@_0BH@CEIAEGLK@1notifyIn?$CI?5QString?5?$CG?5?$CJ?$AA@ 004400f4     bncs_clientmainwindowimpl.obj
 0003:00002110       ??_C@_0BF@EBOIPJED@2notify?$CI?5QString?5?$CG?5?$CJ?$AA@ 00440110     bncs_clientmainwindowimpl.obj
 0003:0000212c       ??_C@_0BD@EHOCENCJ@Cannot?5load?5panel?5?$AA@ 0044012c     bncs_clientmainwindowimpl.obj
 0003:00002144       ??_C@_03CEGCICDL@Doh?$AA@  00440144     bncs_clientmainwindowimpl.obj
 0003:00002148       ??_C@_1IO@JLPDPDPD@?$AAc?$AA?3?$AA?2?$AAp?$AAr?$AAo?$AAg?$AAr?$AAa?$AAm?$AA?5?$AAf?$AAi?$AAl?$AAe?$AAs?$AA?5?$AA?$CI?$AAx?$AA8?$AA6?$AA?$CJ?$AA?2?$AAm?$AAi?$AAc?$AAr?$AAo?$AAs?$AAo?$AAf?$AAt@ 00440148     bncs_clientmainwindowimpl.obj
 0003:000021f4       ??_C@_0BA@JFNIOLAK@string?5too?5long?$AA@ 004401f4     bncs_clientmainwindowimpl.obj
 0003:00002208       ??_C@_0BI@CFPLBAOH@invalid?5string?5position?$AA@ 00440208     bncs_clientmainwindowimpl.obj
 0003:00002224       ??_C@_1CK@EOPGIILJ@?$AAi?$AAn?$AAv?$AAa?$AAl?$AAi?$AAd?$AA?5?$AAn?$AAu?$AAl?$AAl?$AA?5?$AAp?$AAo?$AAi?$AAn?$AAt?$AAe?$AAr?$AA?$AA@ 00440224     bncs_clientmainwindowimpl.obj
 0003:00002258       __real@3ff0000000000000    00440258     bncs_clientmainwindowimpl.obj
 0003:00002268       ??_C@_1JA@EKKHPHED@?$AAc?$AA?3?$AA?2?$AAp?$AAr?$AAo?$AAg?$AAr?$AAa?$AAm?$AA?5?$AAf?$AAi?$AAl?$AAe?$AAs?$AA?5?$AA?$CI?$AAx?$AA8?$AA6?$AA?$CJ?$AA?2?$AAm?$AAi?$AAc?$AAr?$AAo?$AAs?$AAo?$AAf?$AAt@ 00440268     ccConfig.obj
 0003:00002314       ??_C@_1DC@POOIKBAO@?$AAI?$AAT?$AAE?$AAR?$AAA?$AAT?$AAO?$AAR?$AA?5?$AAL?$AAI?$AAS?$AAT?$AA?5?$AAC?$AAO?$AAR?$AAR?$AAU?$AAP?$AAT?$AAE?$AAD?$AA?$CB?$AA?$AA@ 00440314     ccConfig.obj
 0003:00002350       ?npos@?$basic_string@DU?$char_traits@D@std@@V?$allocator@D@2@@std@@2IB 00440350     ccConfig.obj
 0003:00002354       ??_C@_04LOAJBDKD@true?$AA@ 00440354     ccConfig.obj
 0003:0000235a       ??_C@_00CNPNBAHC@?$AA@     0044035a     ccConfig.obj
 0003:0000235c       ??_C@_02DPKJAMEF@?$CFd?$AA@ 0044035c     ccConfig.obj
 0003:00002364       ??_7ccConfig@@6B@          00440364     ccConfig.obj
 0003:0000236c       ??_C@_0BH@OFHILIGP@?$CFs?2system?2dev_?$CF03d?4ini?$AA@ 0044036c     ccConfig.obj
 0003:00002388       ??_C@_0BA@MNCCGPDL@?$CFs?2dev_?$CF03d?4ini?$AA@ 00440388     ccConfig.obj
 0003:0000239c       ??_C@_07IOFNEBNE@?2config?$AA@ 0044039c     ccConfig.obj
 0003:000023a8       ??_C@_0BD@FFAKGAPP@c?3?2bncs_config?4ini?$AA@ 004403a8     ccConfig.obj
 0003:000023c0       ??_C@_0L@DHJBNFFA@ConfigPath?$AA@ 004403c0     ccConfig.obj
 0003:000023d0       ??_C@_06LLCHJONG@Config?$AA@ 004403d0     ccConfig.obj
 0003:000023d8       ??_C@_06KIMFAMMH@WINDIR?$AA@ 004403d8     ccConfig.obj
 0003:000023e0       ??_C@_0P@PKHJHOPF@CC_WORKSTATION?$AA@ 004403e0     ccConfig.obj
 0003:000023f4       ??_C@_0M@CILGCIDH@Workstation?$AA@ 004403f4     ccConfig.obj
 0003:00002404       ??_C@_07BGDMAJAE@Network?$AA@ 00440404     ccConfig.obj
 0003:00002410       ??_C@_0BO@GPPILLIC@config?2system?2bncs_system?4ini?$AA@ 00440410     ccConfig.obj
 0003:00002434       ??_C@_07PIGLAMMC@csi?4ini?$AA@ 00440434     ccConfig.obj
 0003:00002440       ??_C@_06JIODDOFH@System?$AA@ 00440440     ccConfig.obj
 0003:00002448       ??_C@_0N@LDBPMCOK@applcore?4ini?$AA@ 00440448     ccConfig.obj
 0003:00002458       ??_C@_08NKCCOMC@?2system?2?$AA@ 00440458     ccConfig.obj
 0003:00002464       ??_C@_01KDCPPGHE@r?$AA@    00440464     ccConfig.obj
 0003:00002468       ??_C@_01LBDDMOBJ@?$FN?$AA@ 00440468     ccConfig.obj
 0003:0000246c       ??_C@_01OHGJGJJP@?$FL?$AA@ 0044046c     ccConfig.obj
 0003:00002470       ??_C@_0N@ENLBDDCH@CC_DEVELOPER?$AA@ 00440470     ccConfig.obj
 0003:00002480       ??_C@_02CHHAKFFB@w?$CL?$AA@ 00440480     ccConfig.obj
 0003:00002484       ??_C@_04MMEBIPMJ@?4tmp?$AA@ 00440484     ccConfig.obj
 0003:0000248c       ??_C@_05MGFEFMAH@?$FL?$CFs?$FN?6?$AA@ 0044048c     ccConfig.obj
 0003:00002494       ??_C@_06BAKFFEGN@?$CFs?$DN?$CFs?6?$AA@ 00440494     ccConfig.obj
 0003:0000249c       ??_C@_01EEMJAFIK@?6?$AA@   0044049c     ccConfig.obj
 0003:000024a0       ??_C@_06EOIKHNJE@?6?$FL?$CFs?$FN?6?$AA@ 004404a0     ccConfig.obj
 0003:000024a8       ??_C@_0O@MNGJAKAH@?$CFs?2?$CFs?2logs?2?$CFs?$AA@ 004404a8     ccConfig.obj
 0003:000024b8       ??_C@_0BB@HAIBDJBK@?$CFs?2?$CFs?2logs?2?$CFs?2?$CFs?$AA@ 004404b8     ccConfig.obj
 0003:000024cc       ??_C@_0BC@GKMJDDNM@c?3?2bncslogs?2?$CFs?2?$CFs?$AA@ 004404cc     ccConfig.obj
 0003:000024e8       ??_C@_1IK@HBAODOLH@?$AAc?$AA?3?$AA?2?$AAp?$AAr?$AAo?$AAg?$AAr?$AAa?$AAm?$AA?5?$AAf?$AAi?$AAl?$AAe?$AAs?$AA?5?$AA?$CI?$AAx?$AA8?$AA6?$AA?$CJ?$AA?2?$AAm?$AAi?$AAc?$AAr?$AAo?$AAs?$AAo?$AAf?$AAt@ 004404e8     ccConfig.obj
 0003:00002590       ??_C@_1EK@PPDBPCAN@?$AAm?$AAa?$AAp?$AA?1?$AAs?$AAe?$AAt?$AA?5?$AAe?$AAr?$AAa?$AAs?$AAe?$AA?5?$AAi?$AAt?$AAe?$AAr?$AAa?$AAt?$AAo?$AAr?$AA?5?$AAo?$AAu?$AAt?$AAs?$AAi?$AAd?$AAe?$AA?5?$AAr@ 00440590     ccConfig.obj
 0003:000025e8       ??_C@_1EG@EHJFMBHJ@?$AAm?$AAa?$AAp?$AA?1?$AAs?$AAe?$AAt?$AA?5?$AAi?$AAt?$AAe?$AAr?$AAa?$AAt?$AAo?$AAr?$AA?5?$AAn?$AAo?$AAt?$AA?5?$AAi?$AAn?$AAc?$AAr?$AAe?$AAm?$AAe?$AAn?$AAt?$AAa?$AAb@ 004405e8     ccConfig.obj
 0003:0000263c       ??_C@_0CE@OFMIGAMM@Standard?5C?$CL?$CL?5Libraries?5Out?5of?5Ra@ 0044063c     ccConfig.obj
 0003:00002668       ??_C@_1FG@IBPIFFN@?$AA?$CC?$AAS?$AAt?$AAa?$AAn?$AAd?$AAa?$AAr?$AAd?$AA?5?$AAC?$AA?$CL?$AA?$CL?$AA?5?$AAL?$AAi?$AAb?$AAr?$AAa?$AAr?$AAi?$AAe?$AAs?$AA?5?$AAO?$AAu?$AAt?$AA?5?$AAo?$AAf?$AA?5?$AAR@ 00440668     ccConfig.obj
 0003:000026d0       ??_C@_15GANGMFKL@?$AA?$CF?$AAs?$AA?$AA@ 004406d0     ccConfig.obj
 0003:000026d8       ??_C@_1CFG@PGGKMBNC@?$AAs?$AAt?$AAd?$AA?3?$AA?3?$AA_?$AAT?$AAr?$AAe?$AAe?$AA_?$AAc?$AAo?$AAn?$AAs?$AAt?$AA_?$AAi?$AAt?$AAe?$AAr?$AAa?$AAt?$AAo?$AAr?$AA?$DM?$AAc?$AAl?$AAa?$AAs?$AAs?$AA?5@ 004406d8     ccConfig.obj
 0003:000029a8       ??_C@_1BO@MEPPHOO@?$AA?$CC?$AAo?$AAu?$AAt?$AA?5?$AAo?$AAf?$AA?5?$AAr?$AAa?$AAn?$AAg?$AAe?$AA?$CC?$AA?$AA@ 004409a8     ccConfig.obj
 0003:000029d0       ??_C@_1EI@FHEHNNNM@?$AAm?$AAa?$AAp?$AA?1?$AAs?$AAe?$AAt?$AA?5?$AAi?$AAt?$AAe?$AAr?$AAa?$AAt?$AAo?$AAr?$AA?5?$AAn?$AAo?$AAt?$AA?5?$AAd?$AAe?$AAr?$AAe?$AAf?$AAe?$AAr?$AAe?$AAn?$AAc?$AAa@ 004409d0     ccConfig.obj
 0003:00002a28       ??_C@_1CFE@PPLBLEGL@?$AAs?$AAt?$AAd?$AA?3?$AA?3?$AA_?$AAT?$AAr?$AAe?$AAe?$AA_?$AAc?$AAo?$AAn?$AAs?$AAt?$AA_?$AAi?$AAt?$AAe?$AAr?$AAa?$AAt?$AAo?$AAr?$AA?$DM?$AAc?$AAl?$AAa?$AAs?$AAs?$AA?5@ 00440a28     ccConfig.obj
 0003:00002cf4       ??_C@_1DO@CFEEPGGJ@?$AAm?$AAa?$AAp?$AA?1?$AAs?$AAe?$AAt?$AA?5?$AAi?$AAt?$AAe?$AAr?$AAa?$AAt?$AAo?$AAr?$AAs?$AA?5?$AAi?$AAn?$AAc?$AAo?$AAm?$AAp?$AAa?$AAt?$AAi?$AAb?$AAl?$AAe?$AA?$AA@ 00440cf4     ccConfig.obj
 0003:00002d40       ??_C@_0CI@FNPHFCCM@Standard?5C?$CL?$CL?5Libraries?5Invalid?5A@ 00440d40     ccConfig.obj
 0003:00002d70       ??_C@_1FO@GJIHNDLM@?$AA?$CC?$AAS?$AAt?$AAa?$AAn?$AAd?$AAa?$AAr?$AAd?$AA?5?$AAC?$AA?$CL?$AA?$CL?$AA?5?$AAL?$AAi?$AAb?$AAr?$AAa?$AAr?$AAi?$AAe?$AAs?$AA?5?$AAI?$AAn?$AAv?$AAa?$AAl?$AAi?$AAd?$AA?5@ 00440d70     ccConfig.obj
 0003:00002de0       ??_C@_1CFG@FGJHCIBH@?$AAs?$AAt?$AAd?$AA?3?$AA?3?$AA_?$AAT?$AAr?$AAe?$AAe?$AA_?$AAc?$AAo?$AAn?$AAs?$AAt?$AA_?$AAi?$AAt?$AAe?$AAr?$AAa?$AAt?$AAo?$AAr?$AA?$DM?$AAc?$AAl?$AAa?$AAs?$AAs?$AA?5@ 00440de0     ccConfig.obj
 0003:000030b0       ??_C@_1CG@JNLFBNGN@?$AA?$CC?$AAi?$AAn?$AAv?$AAa?$AAl?$AAi?$AAd?$AA?5?$AAa?$AAr?$AAg?$AAu?$AAm?$AAe?$AAn?$AAt?$AA?$CC?$AA?$AA@ 004410b0     ccConfig.obj
 0003:000030e0       ??_C@_1DM@KDEKGMPF@?$AAs?$AAt?$AAr?$AAi?$AAn?$AAg?$AA?5?$AAi?$AAt?$AAe?$AAr?$AAa?$AAt?$AAo?$AAr?$AAs?$AA?5?$AAi?$AAn?$AAc?$AAo?$AAm?$AAp?$AAa?$AAt?$AAi?$AAb?$AAl?$AAe?$AA?$AA@ 004410e0     ccConfig.obj
 0003:00003128       ??_C@_1MA@BDELDFHB@?$AAs?$AAt?$AAd?$AA?3?$AA?3?$AA_?$AAS?$AAt?$AAr?$AAi?$AAn?$AAg?$AA_?$AAc?$AAo?$AAn?$AAs?$AAt?$AA_?$AAi?$AAt?$AAe?$AAr?$AAa?$AAt?$AAo?$AAr?$AA?$DM?$AAc?$AAl?$AAa?$AAs@ 00441128     ccConfig.obj
 0003:00003210       ??_C@_0BB@MOGOBHAF@list?$DMT?$DO?5too?5long?$AA@ 00441210     ccConfig.obj
 0003:00003228       ??_C@_1EG@CNCHLAOB@?$AAs?$AAt?$AAr?$AAi?$AAn?$AAg?$AA?5?$AAi?$AAt?$AAe?$AAr?$AAa?$AAt?$AAo?$AAr?$AA?5?$AAn?$AAo?$AAt?$AA?5?$AAd?$AAe?$AAr?$AAe?$AAf?$AAe?$AAr?$AAe?$AAn?$AAc?$AAa?$AAb@ 00441228     ccConfig.obj
 0003:00003280       ??_C@_1MG@GDGHDIKC@?$AAs?$AAt?$AAd?$AA?3?$AA?3?$AA_?$AAS?$AAt?$AAr?$AAi?$AAn?$AAg?$AA_?$AAc?$AAo?$AAn?$AAs?$AAt?$AA_?$AAi?$AAt?$AAe?$AAr?$AAa?$AAt?$AAo?$AAr?$AA?$DM?$AAc?$AAl?$AAa?$AAs@ 00441280     ccConfig.obj
 0003:00003370       ??_C@_1EG@OKCGOALM@?$AAm?$AAa?$AAp?$AA?1?$AAs?$AAe?$AAt?$AA?5?$AAi?$AAt?$AAe?$AAr?$AAa?$AAt?$AAo?$AAr?$AA?5?$AAn?$AAo?$AAt?$AA?5?$AAd?$AAe?$AAc?$AAr?$AAe?$AAm?$AAe?$AAn?$AAt?$AAa?$AAb@ 00441370     ccConfig.obj
 0003:000033c8       ??_C@_1CFG@FFIHNBD@?$AAs?$AAt?$AAd?$AA?3?$AA?3?$AA_?$AAT?$AAr?$AAe?$AAe?$AA_?$AAc?$AAo?$AAn?$AAs?$AAt?$AA_?$AAi?$AAt?$AAe?$AAr?$AAa?$AAt?$AAo?$AAr?$AA?$DM?$AAc?$AAl?$AAa?$AAs?$AAs?$AA?5@ 004413c8     ccConfig.obj
 0003:00003698       ??_C@_1CE@IGJMOCCK@?$AAi?$AAn?$AAv?$AAa?$AAl?$AAi?$AAd?$AA?5?$AAo?$AAp?$AAe?$AAr?$AAa?$AAt?$AAo?$AAr?$AA?$DM?$AA?$AA@ 00441698     ccConfig.obj
 0003:000036c4       ??_C@_0BE@JONHPENG@map?1set?$DMT?$DO?5too?5long?$AA@ 004416c4     ccConfig.obj
 0003:000036dc       ??_C@_0CG@PEKHANBF@Environment?5variable?5CC_ROOT?5not@ 004416dc     main.obj
 0003:0000370c       ??_C@_0CI@CGJOBJDM@Environment?5variable?5CC_SYSTEM?5n@ 0044170c     main.obj
 0003:0000373c       ??_C@_0CN@CIOPCBKB@Environment?5variable?5CC_WORKSTAT@ 0044173c     main.obj
 0003:00003774       ??_C@_0BK@HNKADEDL@?$CF1?1windows?1lib?1qt_plugins?$AA@ 00441774     main.obj
 0003:00003794       ??_C@_0DB@LBDFBMEJ@V4?45?5custom?5control?1plugins?5path@ 00441794     main.obj
 0003:000037d0       ??_C@_0CF@JLAHCEDA@?6Look?5in?5the?5help?$CB?5?$CIbncs_client?4@ 004417d0     main.obj
 0003:000037fc       ??_C@_0BH@PONEIIHL@bncs_client?3?5v4?45?5host?$AA@ 004417fc     main.obj
 0003:00003818       ??_C@_03EMEPGGA@?$CK?$CK?9?$AA@ 00441818     main.obj
 0003:0000381c       ??_C@_07NILBBMKH@?2panels?$AA@ 0044181c     main.obj
 0003:00003828       ??_C@_0M@BJDFFDCJ@bncs_style5?$AA@ 00441828     main.obj
 0003:00003838       ??_C@_05IHAFCALK@Style?$AA@ 00441838     main.obj
 0003:00003840       ??_C@_06CPCBHFIH@Styles?$AA@ 00441840     main.obj
 0003:00003848       ??_C@_0N@NMMHDHLP@g_pnlman?4ini?$AA@ 00441848     main.obj
 0003:00003858       ??_C@_0CM@CGNNKEII@1singletonMessageReceived?$CI?5const@ 00441858     main.obj
 0003:0000388c       ??_C@_0CD@MMNICAAE@2messageReceived?$CI?5const?5QString?$CG@ 0044188c     main.obj
 0003:000038bc       ??_7bncs_clientMainWindow@@6BQObject@@@ 004418bc     bncs_clientmainwindow.obj
 0003:00003acc       ??_7bncs_clientMainWindow@@6BQPaintDevice@@@ 00441acc     bncs_clientmainwindow.obj
 0003:00003af4       ??_C@_0BG@INMADABN@bncs_clientMainWindow?$AA@ 00441af4     bncs_clientmainwindow.obj
 0003:00003b2c       ??_C@_0P@DMEOIADN@languageChange?$AA@ 00441b2c     moc_bncs_clientmainwindow.obj
 0003:00003b40       ??_C@_0BB@PFEIHPGD@languageChange?$CI?$CJ?$AA@ 00441b40     moc_bncs_clientmainwindow.obj
 0003:00003b54       ??_C@_02LMMGJAGL@in?$AA@   00441b54     moc_bncs_clientmainwindowimpl.obj
 0003:00003bb0       ??_C@_08DHDADEEH@notifyIn?$AA@ 00441bb0     moc_bncs_clientmainwindowimpl.obj
 0003:00003bbc       ??_C@_0BJ@FNJIIOEB@singletonMessageReceived?$AA@ 00441bbc     moc_bncs_clientmainwindowimpl.obj
 0003:00003bdc       ??_C@_02ELMMHJID@te?$AA@   00441bdc     moc_bncs_clientmainwindowimpl.obj
 0003:00003be0       ??_C@_0L@JFEEJKKP@timerEvent?$AA@ 00441be0     moc_bncs_clientmainwindowimpl.obj
 0003:00003bf0       ??_C@_0BD@ECIHBICE@notifyIn?$CIQString?$CG?$CJ?$AA@ 00441bf0     moc_bncs_clientmainwindowimpl.obj
 0003:00003c08       ??_C@_0CJ@NJCBLNC@singletonMessageReceived?$CIconst?5Q@ 00441c08     moc_bncs_clientmainwindowimpl.obj
 0003:00003c3c       ??_C@_0BJ@FLPACOCB@timerEvent?$CIQTimerEvent?$CK?$CJ?$AA@ 00441c3c     moc_bncs_clientmainwindowimpl.obj
 0003:00003c5c       ??_C@_0BK@NPPNBLBM@bncs_clientMainWindowImpl?$AA@ 00441c5c     moc_bncs_clientmainwindowimpl.obj
 0003:00003c7c       ??_C@_0M@KEFEHEJI@QTimerEvent?$AA@ 00441c7c     moc_bncs_clientmainwindowimpl.obj
 0003:00003c8c       ??_C@_0BC@DHCLDELL@IccClientCallback?$AA@ 00441c8c     moc_bncs_clientmainwindowimpl.obj
 0003:00003ca8       ??_7QtSingleApplication@@6B@ 00441ca8     qtsingleapplicationdb:qtsingleapplication.obj
 0003:00003d34       ??_SQWidget@@6BQObject@@@  00441d34     qtsingleapplicationdb:qtsingleapplication_win.obj
 0003:00003f40       ??_SQWidget@@6BQPaintDevice@@@ 00441f40     qtsingleapplicationdb:qtsingleapplication_win.obj
 0003:00003f68       ??_C@_0BG@JKLICJAA@1activateMainWidget?$CI?$CJ?$AA@ 00441f68     qtsingleapplicationdb:qtsingleapplication_win.obj
 0003:00003f84       ??_C@_0CB@LALAPPDK@2messageReceived?$CIconst?5QString?$CG?$CJ@ 00441f84     qtsingleapplicationdb:qtsingleapplication_win.obj
 0003:00003fac       ??_C@_07ONPBMBOP@message?$AA@ 00441fac     qtsingleapplicationdb:moc_qtsingleapplication.obj
 0003:0000402c       ??_C@_0M@LGIGDHKK@sendMessage?$AA@ 0044202c     qtsingleapplicationdb:moc_qtsingleapplication.obj
 0003:0000403c       ??_C@_0BD@IIEHKCFN@activateMainWidget?$AA@ 0044203c     qtsingleapplicationdb:moc_qtsingleapplication.obj
 0003:00004054       ??_C@_0BM@CCNODPBP@sendMessage?$CIconst?5QString?$CG?$CJ?$AA@ 00442054     qtsingleapplicationdb:moc_qtsingleapplication.obj
 0003:00004078       ??_C@_0CA@OFDOBHMJ@sendMessage?$CIconst?5QString?$CG?0int?$CJ?$AA@ 00442078     qtsingleapplicationdb:moc_qtsingleapplication.obj
 0003:000040a0       ??_C@_0BF@EFNFOBCJ@activateMainWidget?$CI?$CJ?$AA@ 004420a0     qtsingleapplicationdb:moc_qtsingleapplication.obj
 0003:000040bc       ??_C@_0BA@INCDCIIK@messageReceived?$AA@ 004420bc     qtsingleapplicationdb:moc_qtsingleapplication.obj
 0003:000040d0       ??_C@_0CA@PAPLDGL@messageReceived?$CIconst?5QString?$CG?$CJ?$AA@ 004420d0     qtsingleapplicationdb:moc_qtsingleapplication.obj
 0003:000040f8       ??_C@_0BE@JFAHMHGH@QtSingleApplication?$AA@ 004420f8     qtsingleapplicationdb:moc_qtsingleapplication.obj
 0003:00004110       ??_C@_07DDHNKDGP@timeout?$AA@ 00442110     qtsingleapplicationdb:moc_qtsingleapplication.obj
 0003:00004120       ??_7decodeBNCSString@@6B@  00442120     decodecaptionstringdb:decodeBNCSString.obj
 0003:00004128       ??_C@_0BB@DPGIINKI@copy?5con?5BNCSstr?$AA@ 00442128     decodecaptionstringdb:decodeBNCSString.obj
 0003:0000413c       ?value@?$integral_constant@_N$0A@@std@@2_NB 0044213c     msvcprtd:newaop_s.obj
 0003:0000413d       ?value@?$integral_constant@_N$00@std@@2_NB 0044213d     msvcprtd:newaop_s.obj
 0003:00004140       ??_C@_1MC@KPMPFEII@?$AA?$CI?$AA_?$AA_?$AAo?$AAn?$AAe?$AAx?$AAi?$AAt?$AAb?$AAe?$AAg?$AAi?$AAn?$AA?5?$AA?$CB?$AA?$DN?$AA?5?$AAN?$AAU?$AAL?$AAL?$AA?5?$AA?$CG?$AA?$CG?$AA?5?$AA_?$AA_?$AAo?$AAn?$AAe?$AAx@ 00442140     MSVCRTD:atonexit.obj
 0003:00004228       ??_C@_1FK@IGIDCAPD@?$AAf?$AA?3?$AA?2?$AAd?$AAd?$AA?2?$AAv?$AAc?$AAt?$AAo?$AAo?$AAl?$AAs?$AA?2?$AAc?$AAr?$AAt?$AA?2?$AAc?$AAr?$AAt?$AAw?$AA3?$AA2?$AA?2?$AAd?$AAl?$AAl?$AAs?$AAt?$AAu?$AAf@ 00442228     MSVCRTD:atonexit.obj
 0003:00004294       ??_C@_0CN@LMJJPMEG@f?3?2dd?2vctools?2crt?2crtw32?2dllstuf@ 00442294     MSVCRTD:atonexit.obj
 0003:000042d0       ??_7type_info@@6B@         004422d0     MSVCRTD:ti_inst.obj
 0003:000042d8       ??_C@_1FA@DALEHHGL@?$AA_?$AA_?$AAn?$AAa?$AAt?$AAi?$AAv?$AAe?$AA_?$AAs?$AAt?$AAa?$AAr?$AAt?$AAu?$AAp?$AA_?$AAs?$AAt?$AAa?$AAt?$AAe?$AA?5?$AA?$DN?$AA?$DN?$AA?5?$AA_?$AA_?$AAi?$AAn?$AAi?$AAt@ 004422d8     MSVCRTD:crtexew.obj
 0003:00004338       ??_C@_1FG@DKNDLLJO@?$AAf?$AA?3?$AA?2?$AAd?$AAd?$AA?2?$AAv?$AAc?$AAt?$AAo?$AAo?$AAl?$AAs?$AA?2?$AAc?$AAr?$AAt?$AA?2?$AAc?$AAr?$AAt?$AAw?$AA3?$AA2?$AA?2?$AAd?$AAl?$AAl?$AAs?$AAt?$AAu?$AAf@ 00442338     MSVCRTD:crtexew.obj
 0003:00004460       ??_C@_0NN@NGPKDKPD@The?5value?5of?5ESP?5was?5not?5properl@ 00442460     MSVCRTD:error.obj
 0003:00004570       ??_C@_0BBN@GPMLNJCF@A?5cast?5to?5a?5smaller?5data?5type?5ha@ 00442570     MSVCRTD:error.obj
 0003:000046c8       ??_C@_0BN@FFOINMNJ@Stack?5memory?5was?5corrupted?6?$AN?$AA@ 004426c8     MSVCRTD:error.obj
 0003:000046ec       ??_C@_0DG@HKJMLLLP@A?5local?5variable?5was?5used?5before@ 004426ec     MSVCRTD:error.obj
 0003:0000472c       ??_C@_0CM@NGINOKPC@Stack?5memory?5around?5_alloca?5was?5@ 0044272c     MSVCRTD:error.obj
 0003:00004760       ??_C@_0BO@GNIAFIKK@Unknown?5Runtime?5Check?5Error?6?$AN?$AA@ 00442760     MSVCRTD:error.obj
 0003:00004788       ??_C@_1GM@OLMCBDMB@?$AAR?$AAu?$AAn?$AAt?$AAi?$AAm?$AAe?$AA?5?$AAC?$AAh?$AAe?$AAc?$AAk?$AA?5?$AAE?$AAr?$AAr?$AAo?$AAr?$AA?4?$AA?6?$AA?$AN?$AA?5?$AAU?$AAn?$AAa?$AAb?$AAl?$AAe?$AA?5?$AAt?$AAo@ 00442788     MSVCRTD:error.obj
 0003:00004810       ??_C@_1EA@NFKNIFJP@?$AAR?$AAu?$AAn?$AA?9?$AAT?$AAi?$AAm?$AAe?$AA?5?$AAC?$AAh?$AAe?$AAc?$AAk?$AA?5?$AAF?$AAa?$AAi?$AAl?$AAu?$AAr?$AAe?$AA?5?$AA?$CD?$AA?$CF?$AAd?$AA?5?$AA?9?$AA?5?$AA?$CF?$AAs?$AA?$AA@ 00442810     MSVCRTD:error.obj
 0003:0000485c       ??_C@_0BB@PFFGGCJP@Unknown?5Filename?$AA@ 0044285c     MSVCRTD:error.obj
 0003:00004870       ??_C@_0BE@GNBOBNCK@Unknown?5Module?5Name?$AA@ 00442870     MSVCRTD:error.obj
 0003:00004888       ??_C@_0CA@IODNCDPG@Run?9Time?5Check?5Failure?5?$CD?$CFd?5?9?5?$CFs?$AA@ 00442888     MSVCRTD:error.obj
 0003:000048b0       ??_C@_0CG@IAFNJNEE@Stack?5corrupted?5near?5unknown?5var@ 004428b0     MSVCRTD:error.obj
 0003:000048e0       ??_C@_05MKKEDADM@?$CF?42X?5?$AA@ 004428e0     MSVCRTD:error.obj
 0003:000048e8       ??_C@_1BG@OILDLIOJ@?$AAu?$AAs?$AAe?$AAr?$AA3?$AA2?$AA?4?$AAd?$AAl?$AAl?$AA?$AA@ 004428e8     MSVCRTD:error.obj
 0003:00004904       ??_C@_09FOPFMPEJ@wsprintfA?$AA@ 00442904     MSVCRTD:error.obj
 0003:00004910       ??_C@_0EJ@LJKNEOLN@Stack?5area?5around?5_alloca?5memory@ 00442910     MSVCRTD:error.obj
 0003:00004968       ??_C@_08OMAHNMHJ@?6Data?3?5?$DM?$AA@ 00442968     MSVCRTD:error.obj
 0003:00004974       ??_C@_0CK@DKGBICFE@?6Allocation?5number?5within?5this?5f@ 00442974     MSVCRTD:error.obj
 0003:000049a8       ??_C@_07DFDJCKFN@?6Size?3?5?$AA@ 004429a8     MSVCRTD:error.obj
 0003:000049b4       ??_C@_0N@MHFFIMFG@?6Address?3?50x?$AA@ 004429b4     MSVCRTD:error.obj
 0003:000049c8       ??_C@_0EI@CLEPFNGI@Stack?5area?5around?5_alloca?5memory@ 004429c8     MSVCRTD:error.obj
 0003:00004a20       ??_C@_0BC@KIBAILCI@?$CFs?$CFs?$CFp?$CFs?$CFld?$CFs?$CFd?$CFs?$AA@ 00442a20     MSVCRTD:error.obj
 0003:00004a38       ??_C@_02LLMPMKNF@?$DO?5?$AA@ 00442a38     MSVCRTD:error.obj
 0003:00004a3c       ??_C@_08KJEDNCKC@?$CFs?$CFs?$CFs?$CFs?$AA@ 00442a3c     MSVCRTD:error.obj
 0003:00004a48       ??_C@_0DE@OHJBPMBP@A?5variable?5is?5being?5used?5without@ 00442a48     MSVCRTD:error.obj
 0003:00004aac       ??_C@_0BJ@HEGAHDFO@Stack?5pointer?5corruption?$AA@ 00442aac     MSVCRTD:userapi.obj
 0003:00004acc       ??_C@_0CK@FEGOIOPB@Cast?5to?5smaller?5type?5causing?5los@ 00442acc     MSVCRTD:userapi.obj
 0003:00004b00       ??_C@_0BI@CIGMDCBH@Stack?5memory?5corruption?$AA@ 00442b00     MSVCRTD:userapi.obj
 0003:00004b1c       ??_C@_0CK@CNLNOEPB@Local?5variable?5used?5before?5initi@ 00442b1c     MSVCRTD:userapi.obj
 0003:00004b50       ??_C@_0BP@OGBCLIBO@Stack?5around?5_alloca?5corrupted?$AA@ 00442b50     MSVCRTD:userapi.obj
 0003:00004b78       ?ProcessDetach@NativeDll@<CrtImplementationDetails>@@0IB 00442b78     MSVCRTD:unhandld.obj
 0003:00004b7c       ?ProcessAttach@NativeDll@<CrtImplementationDetails>@@0IB 00442b7c     MSVCRTD:unhandld.obj
 0003:00004b80       ?ThreadAttach@NativeDll@<CrtImplementationDetails>@@0IB 00442b80     MSVCRTD:unhandld.obj
 0003:00004b84       ?ThreadDetach@NativeDll@<CrtImplementationDetails>@@0IB 00442b84     MSVCRTD:unhandld.obj
 0003:00004b88       ?ProcessVerifier@NativeDll@<CrtImplementationDetails>@@0IB 00442b88     MSVCRTD:unhandld.obj
 0003:00004b90       ??_C@_1FI@JJOJLGLE@?$AAf?$AA?3?$AA?2?$AAd?$AAd?$AA?2?$AAv?$AAc?$AAt?$AAo?$AAo?$AAl?$AAs?$AA?2?$AAc?$AAr?$AAt?$AA?2?$AAc?$AAr?$AAt?$AAw?$AA3?$AA2?$AA?2?$AAs?$AAt?$AAa?$AAr?$AAt?$AAu?$AAp@ 00442b90     MSVCRTD:fp8.obj
 0003:00004bfc       ??_C@_1CK@JMKHCBEI@?$AA_?$AAs?$AAe?$AAt?$AAd?$AAe?$AAf?$AAa?$AAu?$AAl?$AAt?$AAp?$AAr?$AAe?$AAc?$AAi?$AAs?$AAi?$AAo?$AAn?$AA?$AA@ 00442bfc     MSVCRTD:fp8.obj
 0003:00004c30       ??_C@_1GE@KOCFNGPB@?$AA_?$AAc?$AAo?$AAn?$AAt?$AAr?$AAo?$AAl?$AAf?$AAp?$AA_?$AAs?$AA?$CI?$AA?$CI?$AA?$CI?$AAv?$AAo?$AAi?$AAd?$AA?5?$AA?$CK?$AA?$CJ?$AA0?$AA?$CJ?$AA?0?$AA?5?$AA0?$AAx?$AA0?$AA0?$AA0?$AA1@ 00442c30     MSVCRTD:fp8.obj
 0003:00004cf4       ?LocalIdBitWidth@CrossScopeId@CodeViewInfo@@2IB 00442cf4     MSVCRTD:pdblkup.obj
 0003:00004cf8       ?IdScopeBitWidth@CrossScopeId@CodeViewInfo@@2IB 00442cf8     MSVCRTD:pdblkup.obj
 0003:00004cfc       ?StartCrossScopeId@CrossScopeId@CodeViewInfo@@2IB 00442cfc     MSVCRTD:pdblkup.obj
 0003:00004d00       ?LocalIdMask@CrossScopeId@CodeViewInfo@@2IB 00442d00     MSVCRTD:pdblkup.obj
 0003:00004d04       ?ScopeIdMask@CrossScopeId@CodeViewInfo@@2IB 00442d04     MSVCRTD:pdblkup.obj
 0003:00004d08       ?MaxLocalId@CrossScopeId@CodeViewInfo@@2IB 00442d08     MSVCRTD:pdblkup.obj
 0003:00004d0c       ?MaxScopeId@CrossScopeId@CodeViewInfo@@2IB 00442d0c     MSVCRTD:pdblkup.obj
 0003:00004d10       ??_C@_1BK@GAEMIDIL@?$AAA?$AAD?$AAV?$AAA?$AAP?$AAI?$AA3?$AA2?$AA?4?$AAD?$AAL?$AAL?$AA?$AA@ 00442d10     MSVCRTD:pdblkup.obj
 0003:00004d30       ??_C@_0O@COHOBMLB@RegOpenKeyExW?$AA@ 00442d30     MSVCRTD:pdblkup.obj
 0003:00004d40       ??_C@_0BB@GLNAEDBD@RegQueryValueExW?$AA@ 00442d40     MSVCRTD:pdblkup.obj
 0003:00004d54       ??_C@_0M@HLOHPNFA@RegCloseKey?$AA@ 00442d54     MSVCRTD:pdblkup.obj
 0003:00004d68       ??_C@_1FM@EGIBBNPP@?$AAS?$AAO?$AAF?$AAT?$AAW?$AAA?$AAR?$AAE?$AA?2?$AAM?$AAi?$AAc?$AAr?$AAo?$AAs?$AAo?$AAf?$AAt?$AA?2?$AAV?$AAi?$AAs?$AAu?$AAa?$AAl?$AAS?$AAt?$AAu?$AAd?$AAi?$AAo?$AA?2@ 00442d68     MSVCRTD:pdblkup.obj
 0003:00004dd8       ??_C@_1BG@EABPBLLF@?$AAP?$AAr?$AAo?$AAd?$AAu?$AAc?$AAt?$AAD?$AAi?$AAr?$AA?$AA@ 00442dd8     MSVCRTD:pdblkup.obj
 0003:00004e18       ??_C@_1BC@EOIMGOME@?$AAM?$AAS?$AAP?$AAD?$AAB?$AA1?$AA2?$AA0?$AA?$AA@ 00442e18     MSVCRTD:pdblkup.obj
 0003:00004e30       ??_C@_0BB@KCIACLNC@PDBOpenValidate5?$AA@ 00442e30     MSVCRTD:pdblkup.obj
 0003:00004e44       ??_7?$QMemArray@PAD@@6B@   00442e44     qtmain:qtmain_win.obj
 0003:00004e58       __load_config_used         00442e58     MSVCRTD:loadcfg.obj
 0003:0000524c       ??_R1A@?0A@EA@QGList@@8    0044324c     bncs_clientmainwindowimpl.obj
 0003:00005270       ??_R3QGList@@8             00443270     bncs_clientmainwindowimpl.obj
 0003:00005284       ??_R2QGList@@8             00443284     bncs_clientmainwindowimpl.obj
 0003:00005290       ??_R1A@?0A@EA@QPtrCollection@@8 00443290     bncs_clientmainwindowimpl.obj
 0003:000052b4       ??_R3QPtrCollection@@8     004432b4     bncs_clientmainwindowimpl.obj
 0003:000052c8       ??_R2QPtrCollection@@8     004432c8     bncs_clientmainwindowimpl.obj
 0003:000052d0       ??_R4error_category@std@@6B@ 004432d0     bncs_clientmainwindowimpl.obj
 0003:000052e8       ??_R3error_category@std@@8 004432e8     bncs_clientmainwindowimpl.obj
 0003:000052fc       ??_R2error_category@std@@8 004432fc     bncs_clientmainwindowimpl.obj
 0003:00005304       ??_R1A@?0A@EA@error_category@std@@8 00443304     bncs_clientmainwindowimpl.obj
 0003:00005328       ??_R4_Generic_error_category@std@@6B@ 00443328     bncs_clientmainwindowimpl.obj
 0003:00005340       ??_R3_Generic_error_category@std@@8 00443340     bncs_clientmainwindowimpl.obj
 0003:00005354       ??_R2_Generic_error_category@std@@8 00443354     bncs_clientmainwindowimpl.obj
 0003:00005360       ??_R1A@?0A@EA@_Generic_error_category@std@@8 00443360     bncs_clientmainwindowimpl.obj
 0003:00005384       ??_R4_Iostream_error_category@std@@6B@ 00443384     bncs_clientmainwindowimpl.obj
 0003:0000539c       ??_R3_Iostream_error_category@std@@8 0044339c     bncs_clientmainwindowimpl.obj
 0003:000053b0       ??_R2_Iostream_error_category@std@@8 004433b0     bncs_clientmainwindowimpl.obj
 0003:000053c0       ??_R1A@?0A@EA@_Iostream_error_category@std@@8 004433c0     bncs_clientmainwindowimpl.obj
 0003:000053e4       ??_R4_System_error_category@std@@6B@ 004433e4     bncs_clientmainwindowimpl.obj
 0003:000053fc       ??_R3_System_error_category@std@@8 004433fc     bncs_clientmainwindowimpl.obj
 0003:00005410       ??_R2_System_error_category@std@@8 00443410     bncs_clientmainwindowimpl.obj
 0003:00005420       ??_R1A@?0A@EA@_System_error_category@std@@8 00443420     bncs_clientmainwindowimpl.obj
 0003:00005444       ??_R4IccClientCallback@@6B@ 00443444     bncs_clientmainwindowimpl.obj
 0003:0000545c       ??_R3IccClientCallback@@8  0044345c     bncs_clientmainwindowimpl.obj
 0003:00005470       ??_R2IccClientCallback@@8  00443470     bncs_clientmainwindowimpl.obj
 0003:00005478       ??_R1A@?0A@EA@IccClientCallback@@8 00443478     bncs_clientmainwindowimpl.obj
 0003:0000549c       ??_R4bncs_clientMainWindowImpl@@6BQObject@@@ 0044349c     bncs_clientmainwindowimpl.obj
 0003:000054b4       ??_R3bncs_clientMainWindowImpl@@8 004434b4     bncs_clientmainwindowimpl.obj
 0003:000054c8       ??_R2bncs_clientMainWindowImpl@@8 004434c8     bncs_clientmainwindowimpl.obj
 0003:000054ec       ??_R1A@?0A@EA@bncs_clientMainWindowImpl@@8 004434ec     bncs_clientmainwindowimpl.obj
 0003:00005510       ??_R1A@?0A@EA@bncs_clientMainWindow@@8 00443510     bncs_clientmainwindowimpl.obj
 0003:00005534       ??_R3bncs_clientMainWindow@@8 00443534     bncs_clientmainwindowimpl.obj
 0003:00005548       ??_R2bncs_clientMainWindow@@8 00443548     bncs_clientmainwindowimpl.obj
 0003:00005564       ??_R1A@?0A@EA@QWidget@@8   00443564     bncs_clientmainwindowimpl.obj
 0003:00005588       ??_R3QWidget@@8            00443588     bncs_clientmainwindowimpl.obj
 0003:0000559c       ??_R2QWidget@@8            0044359c     bncs_clientmainwindowimpl.obj
 0003:000055b0       ??_R1A@?0A@EA@QObject@@8   004435b0     bncs_clientmainwindowimpl.obj
 0003:000055d4       ??_R3QObject@@8            004435d4     bncs_clientmainwindowimpl.obj
 0003:000055e8       ??_R2QObject@@8            004435e8     bncs_clientmainwindowimpl.obj
 0003:000055f4       ??_R13?0A@EA@Qt@@8         004435f4     bncs_clientmainwindowimpl.obj
 0003:00005618       ??_R3Qt@@8                 00443618     bncs_clientmainwindowimpl.obj
 0003:0000562c       ??_R2Qt@@8                 0044362c     bncs_clientmainwindowimpl.obj
 0003:00005634       ??_R1A@?0A@EA@Qt@@8        00443634     bncs_clientmainwindowimpl.obj
 0003:00005658       ??_R1CI@?0A@EA@QPaintDevice@@8 00443658     bncs_clientmainwindowimpl.obj
 0003:0000567c       ??_R3QPaintDevice@@8       0044367c     bncs_clientmainwindowimpl.obj
 0003:00005690       ??_R2QPaintDevice@@8       00443690     bncs_clientmainwindowimpl.obj
 0003:00005698       ??_R1A@?0A@EA@QPaintDevice@@8 00443698     bncs_clientmainwindowimpl.obj
 0003:000056bc       ??_R1GM@?0A@EN@IccClientCallback@@8 004436bc     bncs_clientmainwindowimpl.obj
 0003:000056e0       ??_R4bncs_clientMainWindowImpl@@6BQPaintDevice@@@ 004436e0     bncs_clientmainwindowimpl.obj
 0003:000056f8       ??_R4bncs_clientMainWindowImpl@@6B@ 004436f8     bncs_clientmainwindowimpl.obj
 0003:00005710       ??_R4signalConnectionRefList@@6B@ 00443710     bncs_clientmainwindowimpl.obj
 0003:00005728       ??_R3signalConnectionRefList@@8 00443728     bncs_clientmainwindowimpl.obj
 0003:0000573c       ??_R2signalConnectionRefList@@8 0044373c     bncs_clientmainwindowimpl.obj
 0003:00005750       ??_R1A@?0A@EA@signalConnectionRefList@@8 00443750     bncs_clientmainwindowimpl.obj
 0003:00005774       ??_R1A@?0A@EA@?$QPtrList@VsignalConnection@@@@8 00443774     bncs_clientmainwindowimpl.obj
 0003:00005798       ??_R3?$QPtrList@VsignalConnection@@@@8 00443798     bncs_clientmainwindowimpl.obj
 0003:000057ac       ??_R2?$QPtrList@VsignalConnection@@@@8 004437ac     bncs_clientmainwindowimpl.obj
 0003:000057bc       ??_R4?$QPtrList@VsignalConnection@@@@6B@ 004437bc     bncs_clientmainwindowimpl.obj
 0003:000057d4       ??_R4ccConfig@@6B@         004437d4     ccConfig.obj
 0003:000057ec       ??_R3ccConfig@@8           004437ec     ccConfig.obj
 0003:00005800       ??_R2ccConfig@@8           00443800     ccConfig.obj
 0003:00005808       ??_R1A@?0A@EA@ccConfig@@8  00443808     ccConfig.obj
 0003:0000582c       ??_R4bncs_clientMainWindow@@6BQObject@@@ 0044382c     bncs_clientmainwindow.obj
 0003:00005844       ??_R4bncs_clientMainWindow@@6BQPaintDevice@@@ 00443844     bncs_clientmainwindow.obj
 0003:0000585c       ??_R4QtSingleApplication@@6B@ 0044385c     qtsingleapplicationdb:qtsingleapplication.obj
 0003:00005874       ??_R3QtSingleApplication@@8 00443874     qtsingleapplicationdb:qtsingleapplication.obj
 0003:00005888       ??_R2QtSingleApplication@@8 00443888     qtsingleapplicationdb:qtsingleapplication.obj
 0003:0000589c       ??_R1A@?0A@EA@QtSingleApplication@@8 0044389c     qtsingleapplicationdb:qtsingleapplication.obj
 0003:000058c0       ??_R1A@?0A@EA@QApplication@@8 004438c0     qtsingleapplicationdb:qtsingleapplication.obj
 0003:000058e4       ??_R3QApplication@@8       004438e4     qtsingleapplicationdb:qtsingleapplication.obj
 0003:000058f8       ??_R2QApplication@@8       004438f8     qtsingleapplicationdb:qtsingleapplication.obj
 0003:00005908       ??_R4QWidget@@6BQObject@@@ 00443908     qtsingleapplicationdb:qtsingleapplication_win.obj
 0003:00005920       ??_R4QWidget@@6BQPaintDevice@@@ 00443920     qtsingleapplicationdb:qtsingleapplication_win.obj
 0003:00005938       ??_R4decodeBNCSString@@6B@ 00443938     decodecaptionstringdb:decodeBNCSString.obj
 0003:00005950       ??_R3decodeBNCSString@@8   00443950     decodecaptionstringdb:decodeBNCSString.obj
 0003:00005964       ??_R2decodeBNCSString@@8   00443964     decodecaptionstringdb:decodeBNCSString.obj
 0003:0000596c       ??_R1A@?0A@EA@decodeBNCSString@@8 0044396c     decodecaptionstringdb:decodeBNCSString.obj
 0003:00005990       ??_R4type_info@@6B@        00443990     MSVCRTD:ti_inst.obj
 0003:000059a8       ??_R3type_info@@8          004439a8     MSVCRTD:ti_inst.obj
 0003:000059bc       ??_R2type_info@@8          004439bc     MSVCRTD:ti_inst.obj
 0003:000059c4       ??_R1A@?0A@EA@type_info@@8 004439c4     MSVCRTD:ti_inst.obj
 0003:00005b18       ___rtc_iaa                 00443b18     MSVCRTD:initsect.obj
 0003:00005d4c       ___rtc_izz                 00443d4c     MSVCRTD:initsect.obj
 0003:00005e50       ___rtc_taa                 00443e50     MSVCRTD:initsect.obj
 0003:00006084       ___rtc_tzz                 00444084     MSVCRTD:initsect.obj
 0004:000003b8       ___security_cookie         004483b8     MSVCRTD:gs_cookie.obj
 0004:000003bc       ___security_cookie_complement 004483bc     MSVCRTD:gs_cookie.obj
 0004:000003c0       ?_RTC_ErrorLevels@@3PAHA   004483c0     MSVCRTD:error.obj
 0004:000003d8       ___defaultmatherr          004483d8     MSVCRTD:merr.obj
 0004:000003dc       ___globallocalestatus      004483dc     MSVCRTD:xthdloc.obj
 0004:000003e0       ___native_dllmain_reason   004483e0     MSVCRTD:natstart.obj
 0004:000004ec       ??_R0?AVQGList@@@8         004484ec     bncs_clientmainwindowimpl.obj
 0004:00000508       ??_R0?AVQPtrCollection@@@8 00448508     bncs_clientmainwindowimpl.obj
 0004:0000052c       ??_R0?AVerror_category@std@@@8 0044852c     bncs_clientmainwindowimpl.obj
 0004:00000554       ??_R0?AV_Generic_error_category@std@@@8 00448554     bncs_clientmainwindowimpl.obj
 0004:00000588       ??_R0?AV_Iostream_error_category@std@@@8 00448588     bncs_clientmainwindowimpl.obj
 0004:000005bc       ??_R0?AV_System_error_category@std@@@8 004485bc     bncs_clientmainwindowimpl.obj
 0004:000005f0       ??_R0?AVIccClientCallback@@@8 004485f0     bncs_clientmainwindowimpl.obj
 0004:00000618       ??_R0?AVbncs_clientMainWindowImpl@@@8 00448618     bncs_clientmainwindowimpl.obj
 0004:00000648       ??_R0?AVbncs_clientMainWindow@@@8 00448648     bncs_clientmainwindowimpl.obj
 0004:00000674       ??_R0?AVQWidget@@@8        00448674     bncs_clientmainwindowimpl.obj
 0004:00000690       ??_R0?AVQObject@@@8        00448690     bncs_clientmainwindowimpl.obj
 0004:000006ac       ??_R0?AVQt@@@8             004486ac     bncs_clientmainwindowimpl.obj
 0004:000006c0       ??_R0?AVQPaintDevice@@@8   004486c0     bncs_clientmainwindowimpl.obj
 0004:000006e0       ??_R0?AVsignalConnectionRefList@@@8 004486e0     bncs_clientmainwindowimpl.obj
 0004:00000710       ??_R0?AV?$QPtrList@VsignalConnection@@@@@8 00448710     bncs_clientmainwindowimpl.obj
 0004:00000748       ??_R0?AVccConfig@@@8       00448748     ccConfig.obj
 0004:00000764       ??_R0?AVQtSingleApplication@@@8 00448764     qtsingleapplicationdb:qtsingleapplication.obj
 0004:0000078c       ??_R0?AVQApplication@@@8   0044878c     qtsingleapplicationdb:qtsingleapplication.obj
 0004:000007ac       ??_R0?AVdecodeBNCSString@@@8 004487ac     decodecaptionstringdb:decodeBNCSString.obj
 0004:000007d4       ??_R0?AVtype_info@@@8      004487d4     MSVCRTD:ti_inst.obj
 0004:00000904       ?_Generic_object@?$_Error_objects@H@std@@2V_Generic_error_category@2@A 00448904     bncs_clientmainwindowimpl.obj
 0004:00000908       ?_Iostream_object@?$_Error_objects@H@std@@2V_Iostream_error_category@2@A 00448908     bncs_clientmainwindowimpl.obj
 0004:0000090c       ?_System_object@?$_Error_objects@H@std@@2V_System_error_category@2@A 0044890c     bncs_clientmainwindowimpl.obj
 0004:00000910       ?id@?$num_put@DV?$back_insert_iterator@V?$basic_string@DU?$char_traits@D@std@@V?$allocator@D@2@@std@@@std@@@std@@2V0locale@2@A 00448910     bncs_clientmainwindowimpl.obj
 0004:00000914       ?id@?$num_put@_WV?$back_insert_iterator@V?$basic_string@_WU?$char_traits@_W@std@@V?$allocator@_W@2@@std@@@std@@@std@@2V0locale@2@A 00448914     bncs_clientmainwindowimpl.obj
 0004:00000920       ?metaObj@bncs_clientMainWindow@@0PAVQMetaObject@@A 00448920     moc_bncs_clientmainwindow.obj
 0004:0000093c       ?metaObj@bncs_clientMainWindowImpl@@0PAVQMetaObject@@A 0044893c     moc_bncs_clientmainwindowimpl.obj
 0004:00000954       ?metaObj@QtSingleApplication@@0PAVQMetaObject@@A 00448954     qtsingleapplicationdb:moc_qtsingleapplication.obj
 0004:000009ec       ?wsprintffp@@3P6AHPADPBDZZA 004489ec     MSVCRTD:error.obj
 0004:00000dbc       __commode                  00448dbc     MSVCRTD:xncommod.obj
 0004:00000dc0       __dowildcard               00448dc0     MSVCRTD:wildcard.obj
 0004:00000dc4       __newmode                  00448dc4     MSVCRTD:_newmode.obj
 0004:00000dc8       __fmode                    00448dc8     MSVCRTD:xtxtmode.obj
 0004:00000dd4       ___native_startup_lock     00448dd4     <common>
 0004:00000de4       ___native_startup_state    00448de4     <common>
 0004:00000de8       ___dyn_tls_init_callback   00448de8     <common>
 0004:00000df8       ___onexitend               00448df8     <common>
 0004:00000e08       ___onexitbegin             00448e08     <common>
 0005:00000000       __imp__GetModuleHandleW@4  00449000     kernel32:KERNEL32.dll
 0005:00000004       __imp__GetPrivateProfileStringA@24 00449004     kernel32:KERNEL32.dll
 0005:00000008       __imp__WritePrivateProfileStringA@16 00449008     kernel32:KERNEL32.dll
 0005:0000000c       __imp__GetModuleFileNameW@12 0044900c     kernel32:KERNEL32.dll
 0005:00000010       __imp__FreeLibrary@4       00449010     kernel32:KERNEL32.dll
 0005:00000014       __imp__VirtualQuery@12     00449014     kernel32:KERNEL32.dll
 0005:00000018       __imp__GetProcessHeap@0    00449018     kernel32:KERNEL32.dll
 0005:0000001c       __imp__HeapFree@12         0044901c     kernel32:KERNEL32.dll
 0005:00000020       __imp__HeapAlloc@12        00449020     kernel32:KERNEL32.dll
 0005:00000024       __imp__GetSystemTimeAsFileTime@4 00449024     kernel32:KERNEL32.dll
 0005:00000028       __imp__GetCurrentThreadId@0 00449028     kernel32:KERNEL32.dll
 0005:0000002c       __imp__GetCurrentProcessId@0 0044902c     kernel32:KERNEL32.dll
 0005:00000030       __imp__QueryPerformanceCounter@4 00449030     kernel32:KERNEL32.dll
 0005:00000034       __imp__IsProcessorFeaturePresent@4 00449034     kernel32:KERNEL32.dll
 0005:00000038       __imp__WideCharToMultiByte@32 00449038     kernel32:KERNEL32.dll
 0005:0000003c       __imp__MultiByteToWideChar@24 0044903c     kernel32:KERNEL32.dll
 0005:00000040       __imp__LoadLibraryExW@12   00449040     kernel32:KERNEL32.dll
 0005:00000044       __imp__GetProcAddress@8    00449044     kernel32:KERNEL32.dll
 0005:00000048       __imp__GetLastError@0      00449048     kernel32:KERNEL32.dll
 0005:0000004c       __imp__RaiseException@16   0044904c     kernel32:KERNEL32.dll
 0005:00000050       __imp__IsDebuggerPresent@0 00449050     kernel32:KERNEL32.dll
 0005:00000054       __imp__DecodePointer@4     00449054     kernel32:KERNEL32.dll
 0005:00000058       __imp__EncodePointer@4     00449058     kernel32:KERNEL32.dll
 0005:0000005c       __imp__OutputDebugStringA@4 0044905c     kernel32:KERNEL32.dll
 0005:00000060       __imp__GetPrivateProfileIntA@16 00449060     kernel32:KERNEL32.dll
 0005:00000064       \177KERNEL32_NULL_THUNK_DATA 00449064     kernel32:KERNEL32.dll
 0005:000000a4       __imp_?_Debug_message@std@@YAXPB_W0I@Z 004490a4     msvcprtd:MSVCP120D.dll
 0005:000000a8       __imp_??1_Container_base12@std@@QAE@XZ 004490a8     msvcprtd:MSVCP120D.dll
 0005:000000ac       __imp_?_Orphan_all@_Container_base12@std@@QAEXXZ 004490ac     msvcprtd:MSVCP120D.dll
 0005:000000b0       __imp_?_Xbad_alloc@std@@YAXXZ 004490b0     msvcprtd:MSVCP120D.dll
 0005:000000b4       __imp_?_Xlength_error@std@@YAXPBD@Z 004490b4     msvcprtd:MSVCP120D.dll
 0005:000000b8       __imp_?_Xout_of_range@std@@YAXPBD@Z 004490b8     msvcprtd:MSVCP120D.dll
 0005:000000bc       __imp_??0id@locale@std@@QAE@I@Z 004490bc     msvcprtd:MSVCP120D.dll
 0005:000000c0       __imp_?_Syserror_map@std@@YAPBDH@Z 004490c0     msvcprtd:MSVCP120D.dll
 0005:000000c4       __imp_?_Winerror_map@std@@YAPBDH@Z 004490c4     msvcprtd:MSVCP120D.dll
 0005:000000c8       __imp_??0_Lockit@std@@QAE@H@Z 004490c8     msvcprtd:MSVCP120D.dll
 0005:000000cc       __imp_??1_Lockit@std@@QAE@XZ 004490cc     msvcprtd:MSVCP120D.dll
 0005:000000d0       __imp_?_Getpfirst@_Container_base12@std@@QBEPAPAU_Iterator_base12@2@XZ 004490d0     msvcprtd:MSVCP120D.dll
 0005:000000d4       __imp_??0_Container_base12@std@@QAE@XZ 004490d4     msvcprtd:MSVCP120D.dll
 0005:000000d8       \177MSVCP120D_NULL_THUNK_DATA 004490d8     msvcprtd:MSVCP120D.dll
 0005:0000010c       __imp___configthreadlocale 0044910c     MSVCRTD:MSVCR120D.dll
 0005:00000110       __imp___ismbblead          00449110     MSVCRTD:MSVCR120D.dll
 0005:00000114       __imp___cexit              00449114     MSVCRTD:MSVCR120D.dll
 0005:00000118       __imp___exit               00449118     MSVCRTD:MSVCR120D.dll
 0005:0000011c       __imp__exit                0044911c     MSVCRTD:MSVCR120D.dll
 0005:00000120       __imp___CrtSetCheckCount   00449120     MSVCRTD:MSVCR120D.dll
 0005:00000124       __imp____set_app_type      00449124     MSVCRTD:MSVCR120D.dll
 0005:00000128       __imp____getmainargs       00449128     MSVCRTD:MSVCR120D.dll
 0005:0000012c       __imp___amsg_exit          0044912c     MSVCRTD:MSVCR120D.dll
 0005:00000130       __imp____crtGetShowWindowMode 00449130     MSVCRTD:MSVCR120D.dll
 0005:00000134       __imp___XcptFilter         00449134     MSVCRTD:MSVCR120D.dll
 0005:00000138       __imp_??1type_info@@UAE@XZ 00449138     MSVCRTD:MSVCR120D.dll
 0005:0000013c       __imp___CRT_RTC_INITW      0044913c     MSVCRTD:MSVCR120D.dll
 0005:00000140       __imp___onexit             00449140     MSVCRTD:MSVCR120D.dll
 0005:00000144       __imp____dllonexit         00449144     MSVCRTD:MSVCR120D.dll
 0005:00000148       __imp___calloc_dbg         00449148     MSVCRTD:MSVCR120D.dll
 0005:0000014c       __imp___unlock             0044914c     MSVCRTD:MSVCR120D.dll
 0005:00000150       __imp___lock               00449150     MSVCRTD:MSVCR120D.dll
 0005:00000154       __imp_?terminate@@YAXXZ    00449154     MSVCRTD:MSVCR120D.dll
 0005:00000158       __imp__strncpy             00449158     MSVCRTD:MSVCR120D.dll
 0005:0000015c       __imp___chdir              0044915c     MSVCRTD:MSVCR120D.dll
 0005:00000160       __imp__wcscpy_s            00449160     MSVCRTD:MSVCR120D.dll
 0005:00000164       __imp__sprintf             00449164     MSVCRTD:MSVCR120D.dll
 0005:00000168       __imp__rename              00449168     MSVCRTD:MSVCR120D.dll
 0005:0000016c       __imp__remove              0044916c     MSVCRTD:MSVCR120D.dll
 0005:00000170       __imp____setusermatherr    00449170     MSVCRTD:MSVCR120D.dll
 0005:00000174       __imp__fprintf             00449174     MSVCRTD:MSVCR120D.dll
 0005:00000178       __imp__fopen               00449178     MSVCRTD:MSVCR120D.dll
 0005:0000017c       __imp__fgets               0044917c     MSVCRTD:MSVCR120D.dll
 0005:00000180       __imp__fclose              00449180     MSVCRTD:MSVCR120D.dll
 0005:00000184       __imp___mkdir              00449184     MSVCRTD:MSVCR120D.dll
 0005:00000188       __imp___stricmp            00449188     MSVCRTD:MSVCR120D.dll
 0005:00000188       __imp__stricmp             00449188     MSVCRTD:MSVCR120D.dll
 0005:0000018c       __imp__strchr              0044918c     MSVCRTD:MSVCR120D.dll
 0005:00000190       __imp__strcat              00449190     MSVCRTD:MSVCR120D.dll
 0005:00000194       __imp__strcpy              00449194     MSVCRTD:MSVCR120D.dll
 0005:00000198       __imp__memset              00449198     MSVCRTD:MSVCR120D.dll
 0005:0000019c       __imp__memcmp              0044919c     MSVCRTD:MSVCR120D.dll
 0005:000001a0       __imp__memchr              004491a0     MSVCRTD:MSVCR120D.dll
 0005:000001a4       __imp__tolower             004491a4     MSVCRTD:MSVCR120D.dll
 0005:000001a8       __imp___invalid_parameter  004491a8     MSVCRTD:MSVCR120D.dll
 0005:000001ac       __imp____CxxFrameHandler3  004491ac     MSVCRTD:MSVCR120D.dll
 0005:000001b0       __imp___CxxThrowException@8 004491b0     MSVCRTD:MSVCR120D.dll
 0005:000001b4       __imp_??_V@YAXPAX@Z        004491b4     MSVCRTD:MSVCR120D.dll
 0005:000001b8       __imp___hypot              004491b8     MSVCRTD:MSVCR120D.dll
 0005:000001bc       __imp__getenv              004491bc     MSVCRTD:MSVCR120D.dll
 0005:000001c0       __imp__atoi                004491c0     MSVCRTD:MSVCR120D.dll
 0005:000001c4       __imp__memmove             004491c4     MSVCRTD:MSVCR120D.dll
 0005:000001c8       __imp__strlen              004491c8     MSVCRTD:MSVCR120D.dll
 0005:000001cc       __imp__memcpy              004491cc     MSVCRTD:MSVCR120D.dll
 0005:000001d0       __imp_??3@YAXPAX@Z         004491d0     MSVCRTD:MSVCR120D.dll
 0005:000001d4       __imp_??2@YAPAXI@Z         004491d4     MSVCRTD:MSVCR120D.dll
 0005:000001d8       __imp___purecall           004491d8     MSVCRTD:MSVCR120D.dll
 0005:000001dc       __imp___initterm_e         004491dc     MSVCRTD:MSVCR120D.dll
 0005:000001e0       __imp___initterm           004491e0     MSVCRTD:MSVCR120D.dll
 0005:000001e4       __imp___acmdln             004491e4     MSVCRTD:MSVCR120D.dll
 0005:000001e8       __imp___fmode              004491e8     MSVCRTD:MSVCR120D.dll
 0005:000001ec       __imp___commode            004491ec     MSVCRTD:MSVCR120D.dll
 0005:000001f0       __imp___except_handler4_common 004491f0     MSVCRTD:MSVCR120D.dll
 0005:000001f4       __imp___crt_debugger_hook  004491f4     MSVCRTD:MSVCR120D.dll
 0005:000001f8       __imp____crtUnhandledException 004491f8     MSVCRTD:MSVCR120D.dll
 0005:000001fc       __imp____crtTerminateProcess 004491fc     MSVCRTD:MSVCR120D.dll
 0005:00000200       __imp____crtSetUnhandledExceptionFilter 00449200     MSVCRTD:MSVCR120D.dll
 0005:00000204       __imp___invoke_watson      00449204     MSVCRTD:MSVCR120D.dll
 0005:00000208       __imp__fputs               00449208     MSVCRTD:MSVCR120D.dll
 0005:0000020c       __imp___controlfp_s        0044920c     MSVCRTD:MSVCR120D.dll
 0005:00000210       __imp___wsplitpath_s       00449210     MSVCRTD:MSVCR120D.dll
 0005:00000214       __imp___wmakepath_s        00449214     MSVCRTD:MSVCR120D.dll
 0005:00000218       __imp___CrtDbgReportW      00449218     MSVCRTD:MSVCR120D.dll
 0005:0000021c       \177MSVCR120D_NULL_THUNK_DATA 0044921c     MSVCRTD:MSVCR120D.dll
 0005:0000027c       __imp__GetWindowThreadProcessId@8 0044927c     user32:USER32.dll
 0005:00000280       __imp__FindWindowA@8       00449280     user32:USER32.dll
 0005:00000284       __imp__MessageBoxA@16      00449284     user32:USER32.dll
 0005:00000288       __imp__SetForegroundWindow@4 00449288     user32:USER32.dll
 0005:0000028c       __imp__GetForegroundWindow@0 0044928c     user32:USER32.dll
 0005:00000290       __imp__GetSystemMetrics@4  00449290     user32:USER32.dll
 0005:00000294       __imp__IsIconic@4          00449294     user32:USER32.dll
 0005:00000298       __imp__ShowWindow@8        00449298     user32:USER32.dll
 0005:0000029c       __imp__AttachThreadInput@12 0044929c     user32:USER32.dll
 0005:000002a0       __imp__SendMessageTimeoutA@28 004492a0     user32:USER32.dll
 0005:000002a4       __imp__SystemParametersInfoA@16 004492a4     user32:USER32.dll
 0005:000002a8       \177USER32_NULL_THUNK_DATA 004492a8     user32:USER32.dll
 0005:000002dc       __imp_?reg@bncs_dll_client_shim@@QAE_NPAVIccClientCallback@@HHHH@Z 004492dc     bncs_shim_loaderdb:bncs_shim_loaderdb.dll
 0005:000002e0       __imp_?csiShim@bncs_shim_loader@@SAPAVbncs_dll_client_shim@@XZ 004492e0     bncs_shim_loaderdb:bncs_shim_loaderdb.dll
 0005:000002e4       \177bncs_shim_loaderdb_NULL_THUNK_DATA 004492e4     bncs_shim_loaderdb:bncs_shim_loaderdb.dll
 0005:00000310       __imp_??0dCW@@QAE@XZ       00449310     dcwdb:dcwdb.dll
 0005:00000314       __imp_??1dCW@@UAE@XZ       00449314     dcwdb:dcwdb.dll
 0005:00000318       __imp_?create@dCW@@QAEPAVQWidget@@ABVQString@@PAVQObject@@PAV2@PBD_N4NN44@Z 00449318     dcwdb:dcwdb.dll
 0005:0000031c       \177dcwdb_NULL_THUNK_DATA  0044931c     dcwdb:dcwdb.dll
 0005:00000348       __imp_?dragEnterEvent@QWidget@@MAEXPAVQDragEnterEvent@@@Z 00449348     qt-mt323:qt-mt323.dll
 0005:0000034c       __imp_?dragLeaveEvent@QWidget@@MAEXPAVQDragLeaveEvent@@@Z 0044934c     qt-mt323:qt-mt323.dll
 0005:00000350       __imp_?dragMoveEvent@QWidget@@MAEXPAVQDragMoveEvent@@@Z 00449350     qt-mt323:qt-mt323.dll
 0005:00000354       __imp_?dropEvent@QWidget@@MAEXPAVQDropEvent@@@Z 00449354     qt-mt323:qt-mt323.dll
 0005:00000358       __imp_?enabledChange@QWidget@@MAEX_N@Z 00449358     qt-mt323:qt-mt323.dll
 0005:0000035c       __imp_?enterEvent@QWidget@@MAEXPAVQEvent@@@Z 0044935c     qt-mt323:qt-mt323.dll
 0005:00000360       __imp_?event@QWidget@@MAE_NPAVQEvent@@@Z 00449360     qt-mt323:qt-mt323.dll
 0005:00000364       __imp_?eventFilter@QObject@@UAE_NPAV1@PAVQEvent@@@Z 00449364     qt-mt323:qt-mt323.dll
 0005:00000368       __imp_?focusInEvent@QWidget@@MAEXPAVQFocusEvent@@@Z 00449368     qt-mt323:qt-mt323.dll
 0005:0000036c       __imp_?focusNextPrevChild@QWidget@@MAE_N_N@Z 0044936c     qt-mt323:qt-mt323.dll
 0005:00000370       __imp_?focusOutEvent@QWidget@@MAEXPAVQFocusEvent@@@Z 00449370     qt-mt323:qt-mt323.dll
 0005:00000374       __imp_?fontChange@QWidget@@MAEXABVQFont@@@Z 00449374     qt-mt323:qt-mt323.dll
 0005:00000378       __imp_?fontInf@QPaintDevice@@MBEHPAVQFont@@H@Z 00449378     qt-mt323:qt-mt323.dll
 0005:0000037c       __imp_?fontMet@QPaintDevice@@MBEHPAVQFont@@HPBDH@Z 0044937c     qt-mt323:qt-mt323.dll
 0005:00000380       __imp_?handle@QPaintDevice@@UBEPAUHDC__@@XZ 00449380     qt-mt323:qt-mt323.dll
 0005:00000384       __imp_?heightForWidth@QWidget@@UBEHH@Z 00449384     qt-mt323:qt-mt323.dll
 0005:00000388       __imp_?hide@QWidget@@UAEXXZ 00449388     qt-mt323:qt-mt323.dll
 0005:0000038c       __imp_?hideEvent@QWidget@@MAEXPAVQHideEvent@@@Z 0044938c     qt-mt323:qt-mt323.dll
 0005:00000390       __imp_?imComposeEvent@QWidget@@MAEXPAVQIMEvent@@@Z 00449390     qt-mt323:qt-mt323.dll
 0005:00000394       __imp_?imEndEvent@QWidget@@MAEXPAVQIMEvent@@@Z 00449394     qt-mt323:qt-mt323.dll
 0005:00000398       __imp_?imStartEvent@QWidget@@MAEXPAVQIMEvent@@@Z 00449398     qt-mt323:qt-mt323.dll
 0005:0000039c       __imp_?insertChild@QObject@@UAEXPAV1@@Z 0044939c     qt-mt323:qt-mt323.dll
 0005:000003a0       __imp_?keyPressEvent@QWidget@@MAEXPAVQKeyEvent@@@Z 004493a0     qt-mt323:qt-mt323.dll
 0005:000003a4       __imp_?keyReleaseEvent@QWidget@@MAEXPAVQKeyEvent@@@Z 004493a4     qt-mt323:qt-mt323.dll
 0005:000003a8       __imp_?leaveEvent@QWidget@@MAEXPAVQEvent@@@Z 004493a8     qt-mt323:qt-mt323.dll
 0005:000003ac       __imp_?metric@QWidget@@MBEHH@Z 004493ac     qt-mt323:qt-mt323.dll
 0005:000003b0       __imp_?minimumSizeHint@QWidget@@UBE?AVQSize@@XZ 004493b0     qt-mt323:qt-mt323.dll
 0005:000003b4       __imp_?mouseDoubleClickEvent@QWidget@@MAEXPAVQMouseEvent@@@Z 004493b4     qt-mt323:qt-mt323.dll
 0005:000003b8       __imp_?mouseMoveEvent@QWidget@@MAEXPAVQMouseEvent@@@Z 004493b8     qt-mt323:qt-mt323.dll
 0005:000003bc       __imp_?mousePressEvent@QWidget@@MAEXPAVQMouseEvent@@@Z 004493bc     qt-mt323:qt-mt323.dll
 0005:000003c0       __imp_?mouseReleaseEvent@QWidget@@MAEXPAVQMouseEvent@@@Z 004493c0     qt-mt323:qt-mt323.dll
 0005:000003c4       __imp_?move@QWidget@@UAEXHH@Z 004493c4     qt-mt323:qt-mt323.dll
 0005:000003c8       __imp_?moveEvent@QWidget@@MAEXPAVQMoveEvent@@@Z 004493c8     qt-mt323:qt-mt323.dll
 0005:000003cc       __imp_?newItem@QPtrCollection@@MAEPAXPAX@Z 004493cc     qt-mt323:qt-mt323.dll
 0005:000003d0       __imp_?paintEvent@QWidget@@MAEXPAVQPaintEvent@@@Z 004493d0     qt-mt323:qt-mt323.dll
 0005:000003d4       __imp_?paletteChange@QWidget@@MAEXABVQPalette@@@Z 004493d4     qt-mt323:qt-mt323.dll
 0005:000003d8       __imp_?polish@QWidget@@UAEXXZ 004493d8     qt-mt323:qt-mt323.dll
 0005:000003dc       __imp_?property@QObject@@UBE?AVQVariant@@PBD@Z 004493dc     qt-mt323:qt-mt323.dll
 0005:000003e0       __imp_?read@QGList@@MAEAAVQDataStream@@AAV2@AAPAX@Z 004493e0     qt-mt323:qt-mt323.dll
 0005:000003e4       __imp_?removeChild@QObject@@UAEXPAV1@@Z 004493e4     qt-mt323:qt-mt323.dll
 0005:000003e8       __imp_?reparent@QWidget@@UAEXPAV1@IABVQPoint@@_N@Z 004493e8     qt-mt323:qt-mt323.dll
 0005:000003ec       __imp_?resize@QWidget@@UAEXHH@Z 004493ec     qt-mt323:qt-mt323.dll
 0005:000003f0       __imp_?resizeEvent@QWidget@@MAEXPAVQResizeEvent@@@Z 004493f0     qt-mt323:qt-mt323.dll
 0005:000003f4       __imp_?resolution@QPaintDevice@@UBEHXZ 004493f4     qt-mt323:qt-mt323.dll
 0005:000003f8       __imp_?setAcceptDrops@QWidget@@UAEX_N@Z 004493f8     qt-mt323:qt-mt323.dll
 0005:000003fc       __imp_?setActiveWindow@QWidget@@UAEXXZ 004493fc     qt-mt323:qt-mt323.dll
 0005:00000400       __imp_?setAutoMask@QWidget@@UAEX_N@Z 00449400     qt-mt323:qt-mt323.dll
 0005:00000404       __imp_?setBackgroundColor@QWidget@@UAEXABVQColor@@@Z 00449404     qt-mt323:qt-mt323.dll
 0005:00000408       __imp_?setBackgroundMode@QWidget@@UAEXW4BackgroundMode@Qt@@@Z 00449408     qt-mt323:qt-mt323.dll
 0005:0000040c       __imp_?setBackgroundOrigin@QWidget@@UAEXW4BackgroundOrigin@1@@Z 0044940c     qt-mt323:qt-mt323.dll
 0005:00000410       __imp_?setBackgroundPixmap@QWidget@@UAEXABVQPixmap@@@Z 00449410     qt-mt323:qt-mt323.dll
 0005:00000414       __imp_?setCaption@QWidget@@UAEXABVQString@@@Z 00449414     qt-mt323:qt-mt323.dll
 0005:00000418       __imp_?setCursor@QWidget@@UAEXABVQCursor@@@Z 00449418     qt-mt323:qt-mt323.dll
 0005:0000041c       __imp_?setEnabled@QWidget@@UAEX_N@Z 0044941c     qt-mt323:qt-mt323.dll
 0005:00000420       __imp_?setEraseColor@QWidget@@UAEXABVQColor@@@Z 00449420     qt-mt323:qt-mt323.dll
 0005:00000424       __imp_?setErasePixmap@QWidget@@UAEXABVQPixmap@@@Z 00449424     qt-mt323:qt-mt323.dll
 0005:00000428       __imp_?setFocus@QWidget@@UAEXXZ 00449428     qt-mt323:qt-mt323.dll
 0005:0000042c       __imp_?setFocusPolicy@QWidget@@UAEXW4FocusPolicy@1@@Z 0044942c     qt-mt323:qt-mt323.dll
 0005:00000430       __imp_?setFocusProxy@QWidget@@UAEXPAV1@@Z 00449430     qt-mt323:qt-mt323.dll
 0005:00000434       __imp_?setFont@QWidget@@UAEXABVQFont@@@Z 00449434     qt-mt323:qt-mt323.dll
 0005:00000438       __imp_?setGeometry@QWidget@@UAEXABVQRect@@@Z 00449438     qt-mt323:qt-mt323.dll
 0005:0000043c       __imp_?setGeometry@QWidget@@UAEXHHHH@Z 0044943c     qt-mt323:qt-mt323.dll
 0005:00000440       __imp_?setIconText@QWidget@@UAEXABVQString@@@Z 00449440     qt-mt323:qt-mt323.dll
 0005:00000444       __imp_?setKeyCompression@QWidget@@MAEX_N@Z 00449444     qt-mt323:qt-mt323.dll
 0005:00000448       __imp_?setMask@QWidget@@UAEXABVQBitmap@@@Z 00449448     qt-mt323:qt-mt323.dll
 0005:0000044c       __imp_?setMask@QWidget@@UAEXABVQRegion@@@Z 0044944c     qt-mt323:qt-mt323.dll
 0005:00000450       __imp_?setMaximumSize@QWidget@@UAEXHH@Z 00449450     qt-mt323:qt-mt323.dll
 0005:00000454       __imp_?setMicroFocusHint@QWidget@@MAEXHHHH_NPAVQFont@@@Z 00449454     qt-mt323:qt-mt323.dll
 0005:00000458       __imp_?setMinimumSize@QWidget@@UAEXHH@Z 00449458     qt-mt323:qt-mt323.dll
 0005:0000045c       __imp_?setMouseTracking@QWidget@@UAEX_N@Z 0044945c     qt-mt323:qt-mt323.dll
 0005:00000460       __imp_?setName@QWidget@@UAEXPBD@Z 00449460     qt-mt323:qt-mt323.dll
 0005:00000464       __imp_?setPalette@QWidget@@UAEXABVQPalette@@@Z 00449464     qt-mt323:qt-mt323.dll
 0005:00000468       __imp_?setPaletteBackgroundColor@QWidget@@UAEXABVQColor@@@Z 00449468     qt-mt323:qt-mt323.dll
 0005:0000046c       __imp_?setPaletteBackgroundPixmap@QWidget@@UAEXABVQPixmap@@@Z 0044946c     qt-mt323:qt-mt323.dll
 0005:00000470       __imp_?setProperty@QObject@@UAE_NPBDABVQVariant@@@Z 00449470     qt-mt323:qt-mt323.dll
 0005:00000474       __imp_?setResolution@QPaintDevice@@UAEXH@Z 00449474     qt-mt323:qt-mt323.dll
 0005:00000478       __imp_?setSizeIncrement@QWidget@@UAEXHH@Z 00449478     qt-mt323:qt-mt323.dll
 0005:0000047c       __imp_?create@QWidget@@MAEXPAUHWND__@@_N1@Z 0044947c     qt-mt323:qt-mt323.dll
 0005:00000480       __imp_?setUpdatesEnabled@QWidget@@UAEX_N@Z 00449480     qt-mt323:qt-mt323.dll
 0005:00000484       __imp_?setWFlags@QWidget@@MAEXI@Z 00449484     qt-mt323:qt-mt323.dll
 0005:00000488       __imp_?setWState@QWidget@@MAEXI@Z 00449488     qt-mt323:qt-mt323.dll
 0005:0000048c       __imp_?show@QWidget@@UAEXXZ 0044948c     qt-mt323:qt-mt323.dll
 0005:00000490       __imp_?showEvent@QWidget@@MAEXPAVQShowEvent@@@Z 00449490     qt-mt323:qt-mt323.dll
 0005:00000494       __imp_?showMaximized@QWidget@@UAEXXZ 00449494     qt-mt323:qt-mt323.dll
 0005:00000498       __imp_?showMinimized@QWidget@@UAEXXZ 00449498     qt-mt323:qt-mt323.dll
 0005:0000049c       __imp_?showNormal@QWidget@@UAEXXZ 0044949c     qt-mt323:qt-mt323.dll
 0005:000004a0       __imp_?sizeHint@QWidget@@UBE?AVQSize@@XZ 004494a0     qt-mt323:qt-mt323.dll
 0005:000004a4       __imp_?sizePolicy@QWidget@@UBE?AVQSizePolicy@@XZ 004494a4     qt-mt323:qt-mt323.dll
 0005:000004a8       __imp_?styleChange@QWidget@@MAEXAAVQStyle@@@Z 004494a8     qt-mt323:qt-mt323.dll
 0005:000004ac       __imp_?tabletEvent@QWidget@@MAEXPAVQTabletEvent@@@Z 004494ac     qt-mt323:qt-mt323.dll
 0005:000004b0       __imp_?unsetCursor@QWidget@@UAEXXZ 004494b0     qt-mt323:qt-mt323.dll
 0005:000004b4       __imp_?updateMask@QWidget@@MAEXXZ 004494b4     qt-mt323:qt-mt323.dll
 0005:000004b8       __imp_?wheelEvent@QWidget@@MAEXPAVQWheelEvent@@@Z 004494b8     qt-mt323:qt-mt323.dll
 0005:000004bc       __imp_?winEvent@QWidget@@MAE_NPAUtagMSG@@@Z 004494bc     qt-mt323:qt-mt323.dll
 0005:000004c0       __imp_?windowActivationChange@QWidget@@MAEX_N@Z 004494c0     qt-mt323:qt-mt323.dll
 0005:000004c4       __imp_?write@QGList@@MBEAAVQDataStream@@AAV2@PAX@Z 004494c4     qt-mt323:qt-mt323.dll
 0005:000004c8       __imp_?null@QString@@2V1@A 004494c8     qt-mt323:qt-mt323.dll
 0005:000004cc       __imp_?qApp@@3PAVQApplication@@A 004494cc     qt-mt323:qt-mt323.dll
 0005:000004d0       __imp_??YQString@@QAEAAV0@ABV0@@Z 004494d0     qt-mt323:qt-mt323.dll
 0005:000004d4       __imp_??YQString@@QAEAAV0@PBD@Z 004494d4     qt-mt323:qt-mt323.dll
 0005:000004d8       __imp_?setStyle@QApplication@@SAPAVQStyle@@ABVQString@@@Z 004494d8     qt-mt323:qt-mt323.dll
 0005:000004dc       __imp_?setMainWidget@QApplication@@UAEXPAVQWidget@@@Z 004494dc     qt-mt323:qt-mt323.dll
 0005:000004e0       __imp_?exec@QApplication@@QAEHXZ 004494e0     qt-mt323:qt-mt323.dll
 0005:000004e4       __imp_?addLibraryPath@QApplication@@SAXABVQString@@@Z 004494e4     qt-mt323:qt-mt323.dll
 0005:000004e8       __imp_??0QDir@@QAE@ABVQString@@0HH@Z 004494e8     qt-mt323:qt-mt323.dll
 0005:000004ec       __imp_??1QDir@@UAE@XZ      004494ec     qt-mt323:qt-mt323.dll
 0005:000004f0       __imp_?exists@QDir@@UBE_NXZ 004494f0     qt-mt323:qt-mt323.dll
 0005:000004f4       __imp_??0QSize@@QAE@HH@Z   004494f4     qt-mt323:qt-mt323.dll
 0005:000004f8       __imp_?expandedTo@QSize@@QBE?AV1@ABV1@@Z 004494f8     qt-mt323:qt-mt323.dll
 0005:000004fc       __imp_??0QWidget@@QAE@PAV0@PBDI@Z 004494fc     qt-mt323:qt-mt323.dll
 0005:00000500       __imp_??1QWidget@@UAE@XZ   00449500     qt-mt323:qt-mt323.dll
 0005:00000504       __imp_?resize@QWidget@@QAEXABVQSize@@@Z 00449504     qt-mt323:qt-mt323.dll
 0005:00000508       __imp_?clearWState@QWidget@@IAEXI@Z 00449508     qt-mt323:qt-mt323.dll
 0005:0000050c       __imp_?timerEvent@QObject@@MAEXPAVQTimerEvent@@@Z 0044950c     qt-mt323:qt-mt323.dll
 0005:00000510       __imp_?qstrcmp@@YAHPBD0@Z  00449510     qt-mt323:qt-mt323.dll
 0005:00000514       __imp_?fromLatin1@QString@@SA?AV1@PBDH@Z 00449514     qt-mt323:qt-mt323.dll
 0005:00000518       __imp_?fromUtf8@QString@@SA?AV1@PBDH@Z 00449518     qt-mt323:qt-mt323.dll
 0005:0000051c       __imp_?qt_cast@QWidget@@UAEPAXPBD@Z 0044951c     qt-mt323:qt-mt323.dll
 0005:00000520       __imp_?qt_invoke@QWidget@@UAE_NHPAUQUObject@@@Z 00449520     qt-mt323:qt-mt323.dll
 0005:00000524       __imp_?qt_emit@QWidget@@UAE_NHPAUQUObject@@@Z 00449524     qt-mt323:qt-mt323.dll
 0005:00000528       __imp_?qt_property@QWidget@@UAE_NHHPAVQVariant@@@Z 00449528     qt-mt323:qt-mt323.dll
 0005:0000052c       __imp_?staticMetaObject@QWidget@@SAPAVQMetaObject@@XZ 0044952c     qt-mt323:qt-mt323.dll
 0005:00000530       __imp_?slotOffset@QMetaObject@@QBEHXZ 00449530     qt-mt323:qt-mt323.dll
 0005:00000534       __imp_?new_metaobject@QMetaObject@@SAPAV1@PBDPAV1@QBUQMetaData@@H2HQBVQMetaProperty@@HQBUQMetaEnum@@HQBUQClassInfo@@H@Z 00449534     qt-mt323:qt-mt323.dll
 0005:00000538       __imp_??0QMetaObjectCleanUp@@QAE@PBDP6APAVQMetaObject@@XZ@Z 00449538     qt-mt323:qt-mt323.dll
 0005:0000053c       __imp_??1QMetaObjectCleanUp@@QAE@XZ 0044953c     qt-mt323:qt-mt323.dll
 0005:00000540       __imp_?setMetaObject@QMetaObjectCleanUp@@QAEXAAPAVQMetaObject@@@Z 00449540     qt-mt323:qt-mt323.dll
 0005:00000544       __imp_?translate@QApplication@@QBE?AVQString@@PBD00W4Encoding@1@@Z 00449544     qt-mt323:qt-mt323.dll
 0005:00000548       __imp_?get@QUType_ptr@@QAEAAPAXPAUQUObject@@@Z 00449548     qt-mt323:qt-mt323.dll
 0005:0000054c       __imp_?get@QUType_QString@@QAEAAVQString@@PAUQUObject@@@Z 0044954c     qt-mt323:qt-mt323.dll
 0005:00000550       __imp_?static_QUType_ptr@@3UQUType_ptr@@A 00449550     qt-mt323:qt-mt323.dll
 0005:00000554       __imp_?static_QUType_QString@@3UQUType_QString@@A 00449554     qt-mt323:qt-mt323.dll
 0005:00000558       __imp_?raise@QWidget@@QAEXXZ 00449558     qt-mt323:qt-mt323.dll
 0005:0000055c       __imp_??0QApplication@@QAE@AAHPAPADW4Type@0@@Z 0044955c     qt-mt323:qt-mt323.dll
 0005:00000560       __imp_??1QApplication@@UAE@XZ 00449560     qt-mt323:qt-mt323.dll
 0005:00000564       __imp_?mainWidget@QApplication@@QBEPAVQWidget@@XZ 00449564     qt-mt323:qt-mt323.dll
 0005:00000568       __imp_?commitData@QApplication@@UAEXAAVQSessionManager@@@Z 00449568     qt-mt323:qt-mt323.dll
 0005:0000056c       __imp_?event@QApplication@@MAE_NPAVQEvent@@@Z 0044956c     qt-mt323:qt-mt323.dll
 0005:00000570       __imp_?disconnectNotify@QObject@@MAEXPBD@Z 00449570     qt-mt323:qt-mt323.dll
 0005:00000574       __imp_?polish@QApplication@@UAEXPAVQWidget@@@Z 00449574     qt-mt323:qt-mt323.dll
 0005:00000578       __imp_?saveState@QApplication@@UAEXAAVQSessionManager@@@Z 00449578     qt-mt323:qt-mt323.dll
 0005:0000057c       __imp_?setName@QObject@@UAEXPBD@Z 0044957c     qt-mt323:qt-mt323.dll
 0005:00000580       __imp_??1QCString@@UAE@XZ  00449580     qt-mt323:qt-mt323.dll
 0005:00000584       __imp_??BQCString@@QBEPBDXZ 00449584     qt-mt323:qt-mt323.dll
 0005:00000588       __imp_?local8Bit@QString@@QBE?AVQCString@@XZ 00449588     qt-mt323:qt-mt323.dll
 0005:0000058c       __imp_?fromUcs2@QString@@SA?AV1@PBG@Z 0044958c     qt-mt323:qt-mt323.dll
 0005:00000590       __imp_?ucs2@QString@@QBEPBGXZ 00449590     qt-mt323:qt-mt323.dll
 0005:00000594       __imp_?winEventFilter@QApplication@@UAE_NPAUtagMSG@@@Z 00449594     qt-mt323:qt-mt323.dll
 0005:00000598       __imp_?className@QWidget@@UBEPBDXZ 00449598     qt-mt323:qt-mt323.dll
 0005:0000059c       __imp_?metaObject@QWidget@@UBEPAVQMetaObject@@XZ 0044959c     qt-mt323:qt-mt323.dll
 0005:000005a0       __imp_?activate_signal@QObject@@IAEXHVQString@@@Z 004495a0     qt-mt323:qt-mt323.dll
 0005:000005a4       __imp_?qt_cast@QApplication@@UAEPAXPBD@Z 004495a4     qt-mt323:qt-mt323.dll
 0005:000005a8       __imp_?qt_invoke@QApplication@@UAE_NHPAUQUObject@@@Z 004495a8     qt-mt323:qt-mt323.dll
 0005:000005ac       __imp_?qt_emit@QApplication@@UAE_NHPAUQUObject@@@Z 004495ac     qt-mt323:qt-mt323.dll
 0005:000005b0       __imp_?qt_property@QApplication@@UAE_NHHPAVQVariant@@@Z 004495b0     qt-mt323:qt-mt323.dll
 0005:000005b4       __imp_?staticMetaObject@QApplication@@SAPAVQMetaObject@@XZ 004495b4     qt-mt323:qt-mt323.dll
 0005:000005b8       __imp_?signalOffset@QMetaObject@@QBEHXZ 004495b8     qt-mt323:qt-mt323.dll
 0005:000005bc       __imp_?set@QUType_bool@@QAEXPAUQUObject@@_N@Z 004495bc     qt-mt323:qt-mt323.dll
 0005:000005c0       __imp_?get@QUType_int@@QAEAAHPAUQUObject@@@Z 004495c0     qt-mt323:qt-mt323.dll
 0005:000005c4       __imp_?static_QUType_bool@@3UQUType_bool@@A 004495c4     qt-mt323:qt-mt323.dll
 0005:000005c8       __imp_?static_QUType_int@@3UQUType_int@@A 004495c8     qt-mt323:qt-mt323.dll
 0005:000005cc       __imp_?contextMenuEvent@QWidget@@MAEXPAVQContextMenuEvent@@@Z 004495cc     qt-mt323:qt-mt323.dll
 0005:000005d0       __imp_?connectNotify@QObject@@MAEXPBD@Z 004495d0     qt-mt323:qt-mt323.dll
 0005:000005d4       __imp_?compareItems@QGList@@MAEHPAX0@Z 004495d4     qt-mt323:qt-mt323.dll
 0005:000005d8       __imp_?cmd@QPaintDevice@@MAE_NHPAVQPainter@@PATQPDevCmdParam@@@Z 004495d8     qt-mt323:qt-mt323.dll
 0005:000005dc       __imp_?closeEvent@QWidget@@MAEXPAVQCloseEvent@@@Z 004495dc     qt-mt323:qt-mt323.dll
 0005:000005e0       __imp_?close@QWidget@@UAE_N_N@Z 004495e0     qt-mt323:qt-mt323.dll
 0005:000005e4       __imp_?childEvent@QObject@@MAEXPAVQChildEvent@@@Z 004495e4     qt-mt323:qt-mt323.dll
 0005:000005e8       __imp_?checkConnectArgs@QObject@@MAE_NPBDPBV1@0@Z 004495e8     qt-mt323:qt-mt323.dll
 0005:000005ec       __imp_?adjustSize@QWidget@@UAEXXZ 004495ec     qt-mt323:qt-mt323.dll
 0005:000005f0       __imp_??1QPixmap@@UAE@XZ   004495f0     qt-mt323:qt-mt323.dll
 0005:000005f4       __imp_??0QPixmap@@QAE@QAPBD@Z 004495f4     qt-mt323:qt-mt323.dll
 0005:000005f8       __imp_?start@QProcess@@UAE_NPAVQStringList@@@Z 004495f8     qt-mt323:qt-mt323.dll
 0005:000005fc       __imp_?addArgument@QProcess@@UAEXABVQString@@@Z 004495fc     qt-mt323:qt-mt323.dll
 0005:00000600       __imp_??1QProcess@@UAE@XZ  00449600     qt-mt323:qt-mt323.dll
 0005:00000604       __imp_??0QProcess@@QAE@PAVQObject@@PBD@Z 00449604     qt-mt323:qt-mt323.dll
 0005:00000608       __imp_?critical@QMessageBox@@SAHPAVQWidget@@ABVQString@@1111HH@Z 00449608     qt-mt323:qt-mt323.dll
 0005:0000060c       __imp_?isFile@QFileInfo@@QBE_NXZ 0044960c     qt-mt323:qt-mt323.dll
 0005:00000610       __imp_?dirPath@QFileInfo@@QBE?AVQString@@_N@Z 00449610     qt-mt323:qt-mt323.dll
 0005:00000614       __imp_?baseName@QFileInfo@@QBE?AVQString@@_N@Z 00449614     qt-mt323:qt-mt323.dll
 0005:00000618       __imp_?exists@QFileInfo@@QBE_NXZ 00449618     qt-mt323:qt-mt323.dll
 0005:0000061c       __imp_??1QFileInfo@@QAE@XZ 0044961c     qt-mt323:qt-mt323.dll
 0005:00000620       __imp_??0QFileInfo@@QAE@ABVQString@@@Z 00449620     qt-mt323:qt-mt323.dll
 0005:00000624       __imp_?argv@QApplication@@QBEPAPADXZ 00449624     qt-mt323:qt-mt323.dll
 0005:00000628       __imp_?argc@QApplication@@QBEHXZ 00449628     qt-mt323:qt-mt323.dll
 0005:0000062c       __imp_?close@QWidget@@QAE_NXZ 0044962c     qt-mt323:qt-mt323.dll
 0005:00000630       __imp_?update@QWidget@@QAEXXZ 00449630     qt-mt323:qt-mt323.dll
 0005:00000634       __imp_?setIcon@QWidget@@UAEXABVQPixmap@@@Z 00449634     qt-mt323:qt-mt323.dll
 0005:00000638       __imp_?height@QWidget@@QBEHXZ 00449638     qt-mt323:qt-mt323.dll
 0005:0000063c       __imp_?width@QWidget@@QBEHXZ 0044963c     qt-mt323:qt-mt323.dll
 0005:00000640       __imp_?y@QWidget@@QBEHXZ   00449640     qt-mt323:qt-mt323.dll
 0005:00000644       __imp_?x@QWidget@@QBEHXZ   00449644     qt-mt323:qt-mt323.dll
 0005:00000648       __imp_?winId@QWidget@@QBEPAUHWND__@@XZ 00449648     qt-mt323:qt-mt323.dll
 0005:0000064c       __imp_?parent@QObject@@QBEPAV1@XZ 0044964c     qt-mt323:qt-mt323.dll
 0005:00000650       __imp_?connect@QObject@@SA_NPBV1@PBD01@Z 00449650     qt-mt323:qt-mt323.dll
 0005:00000654       __imp_?killTimer@QObject@@QAEXH@Z 00449654     qt-mt323:qt-mt323.dll
 0005:00000658       __imp_?startTimer@QObject@@QAEHH@Z 00449658     qt-mt323:qt-mt323.dll
 0005:0000065c       __imp_?timerId@QTimerEvent@@QBEHXZ 0044965c     qt-mt323:qt-mt323.dll
 0005:00000660       __imp_??0QPoint@@QAE@HH@Z  00449660     qt-mt323:qt-mt323.dll
 0005:00000664       __imp_??1QStringList@@QAE@XZ 00449664     qt-mt323:qt-mt323.dll
 0005:00000668       __imp_?split@QStringList@@SA?AV1@ABVQString@@0_N@Z 00449668     qt-mt323:qt-mt323.dll
 0005:0000066c       __imp_??BQGListStdIterator@@QAEPAVQLNode@@XZ 0044966c     qt-mt323:qt-mt323.dll
 0005:00000670       __imp_??0QGListStdIterator@@QAE@PAVQLNode@@@Z 00449670     qt-mt323:qt-mt323.dll
 0005:00000674       __imp_??ZQGListIterator@@IAEPAXI@Z 00449674     qt-mt323:qt-mt323.dll
 0005:00000678       __imp_??FQGListIterator@@IAEPAXXZ 00449678     qt-mt323:qt-mt323.dll
 0005:0000067c       __imp_??YQGListIterator@@IAEPAXI@Z 0044967c     qt-mt323:qt-mt323.dll
 0005:00000680       __imp_??EQGListIterator@@IAEPAXXZ 00449680     qt-mt323:qt-mt323.dll
 0005:00000684       __imp_??RQGListIterator@@IAEPAXXZ 00449684     qt-mt323:qt-mt323.dll
 0005:00000688       __imp_?get@QGListIterator@@IBEPAXXZ 00449688     qt-mt323:qt-mt323.dll
 0005:0000068c       __imp_?toLast@QGListIterator@@IAEPAXXZ 0044968c     qt-mt323:qt-mt323.dll
 0005:00000690       __imp_?toFirst@QGListIterator@@IAEPAXXZ 00449690     qt-mt323:qt-mt323.dll
 0005:00000694       __imp_?atLast@QGListIterator@@IBE_NXZ 00449694     qt-mt323:qt-mt323.dll
 0005:00000698       __imp_?atFirst@QGListIterator@@IBE_NXZ 00449698     qt-mt323:qt-mt323.dll
 0005:0000069c       __imp_??1QGListIterator@@IAE@XZ 0044969c     qt-mt323:qt-mt323.dll
 0005:000006a0       __imp_??4QGListIterator@@IAEAAV0@ABV0@@Z 004496a0     qt-mt323:qt-mt323.dll
 0005:000006a4       __imp_??0QGListIterator@@IAE@ABV0@@Z 004496a4     qt-mt323:qt-mt323.dll
 0005:000006a8       __imp_??0QGListIterator@@IAE@ABVQGList@@@Z 004496a8     qt-mt323:qt-mt323.dll
 0005:000006ac       __imp_?erase@QGList@@IAEPAVQLNode@@PAV2@@Z 004496ac     qt-mt323:qt-mt323.dll
 0005:000006b0       __imp_?end@QGList@@IBEPAVQLNode@@XZ 004496b0     qt-mt323:qt-mt323.dll
 0005:000006b4       __imp_?begin@QGList@@IBEPAVQLNode@@XZ 004496b4     qt-mt323:qt-mt323.dll
 0005:000006b8       __imp_?toVector@QGList@@IBEXPAVQGVector@@@Z 004496b8     qt-mt323:qt-mt323.dll
 0005:000006bc       __imp_?prev@QGList@@IAEPAXXZ 004496bc     qt-mt323:qt-mt323.dll
 0005:000006c0       __imp_?next@QGList@@IAEPAXXZ 004496c0     qt-mt323:qt-mt323.dll
 0005:000006c4       __imp_?last@QGList@@IAEPAXXZ 004496c4     qt-mt323:qt-mt323.dll
 0005:000006c8       __imp_?first@QGList@@IAEPAXXZ 004496c8     qt-mt323:qt-mt323.dll
 0005:000006cc       __imp_?clast@QGList@@IBEPAXXZ 004496cc     qt-mt323:qt-mt323.dll
 0005:000006d0       __imp_?cfirst@QGList@@IBEPAXXZ 004496d0     qt-mt323:qt-mt323.dll
 0005:000006d4       __imp_?get@QGList@@IBEPAXXZ 004496d4     qt-mt323:qt-mt323.dll
 0005:000006d8       __imp_?currentNode@QGList@@IBEPAVQLNode@@XZ 004496d8     qt-mt323:qt-mt323.dll
 0005:000006dc       __imp_?at@QGList@@IBEHXZ   004496dc     qt-mt323:qt-mt323.dll
 0005:000006e0       __imp_?at@QGList@@IAEPAXI@Z 004496e0     qt-mt323:qt-mt323.dll
 0005:000006e4       __imp_?contains@QGList@@IBEIPAX@Z 004496e4     qt-mt323:qt-mt323.dll
 0005:000006e8       __imp_?containsRef@QGList@@IBEIPAX@Z 004496e8     qt-mt323:qt-mt323.dll
 0005:000006ec       __imp_?find@QGList@@IAEHPAX_N@Z 004496ec     qt-mt323:qt-mt323.dll
 0005:000006f0       __imp_?findRef@QGList@@IAEHPAX_N@Z 004496f0     qt-mt323:qt-mt323.dll
 0005:000006f4       __imp_?clear@QGList@@MAEXXZ 004496f4     qt-mt323:qt-mt323.dll
 0005:000006f8       __imp_?sort@QGList@@IAEXXZ 004496f8     qt-mt323:qt-mt323.dll
 0005:000006fc       __imp_?takeAt@QGList@@IAEPAXI@Z 004496fc     qt-mt323:qt-mt323.dll
 0005:00000700       __imp_?take@QGList@@IAEPAXXZ 00449700     qt-mt323:qt-mt323.dll
 0005:00000704       __imp_?takeNode@QGList@@IAEPAXPAVQLNode@@@Z 00449704     qt-mt323:qt-mt323.dll
 0005:00000708       __imp_?replaceAt@QGList@@IAE_NIPAX@Z 00449708     qt-mt323:qt-mt323.dll
 0005:0000070c       __imp_?removeAt@QGList@@IAE_NI@Z 0044970c     qt-mt323:qt-mt323.dll
 0005:00000710       __imp_?removeLast@QGList@@IAE_NXZ 00449710     qt-mt323:qt-mt323.dll
 0005:00000714       __imp_?removeFirst@QGList@@IAE_NXZ 00449714     qt-mt323:qt-mt323.dll
 0005:00000718       __imp_?removeRef@QGList@@IAE_NPAX@Z 00449718     qt-mt323:qt-mt323.dll
 0005:0000071c       __imp_?remove@QGList@@IAE_NPAX@Z 0044971c     qt-mt323:qt-mt323.dll
 0005:00000720       __imp_?removeNode@QGList@@IAE_NPAVQLNode@@@Z 00449720     qt-mt323:qt-mt323.dll
 0005:00000724       __imp_?insertAt@QGList@@IAE_NIPAX@Z 00449724     qt-mt323:qt-mt323.dll
 0005:00000728       __imp_?append@QGList@@IAEXPAX@Z 00449728     qt-mt323:qt-mt323.dll
 0005:0000072c       __imp_?inSort@QGList@@IAEXPAX@Z 0044972c     qt-mt323:qt-mt323.dll
 0005:00000730       __imp_??8QGList@@IBE_NABV0@@Z 00449730     qt-mt323:qt-mt323.dll
 0005:00000734       __imp_??4QGList@@IAEAAV0@ABV0@@Z 00449734     qt-mt323:qt-mt323.dll
 0005:00000738       __imp_??1QGList@@MAE@XZ    00449738     qt-mt323:qt-mt323.dll
 0005:0000073c       __imp_??0QGList@@IAE@ABV0@@Z 0044973c     qt-mt323:qt-mt323.dll
 0005:00000740       __imp_??0QGList@@IAE@XZ    00449740     qt-mt323:qt-mt323.dll
 0005:00000744       __imp_?count@QGList@@UBEIXZ 00449744     qt-mt323:qt-mt323.dll
 0005:00000748       __imp_??A?$QValueList@VQString@@@@QAEAAVQString@@I@Z 00449748     qt-mt323:qt-mt323.dll
 0005:0000074c       __imp_??H@YA?BVQString@@PBDABV0@@Z 0044974c     qt-mt323:qt-mt323.dll
 0005:00000750       __imp_??H@YA?BVQString@@ABV0@PBD@Z 00449750     qt-mt323:qt-mt323.dll
 0005:00000754       __imp_??8@YA_NABVQString@@PBD@Z 00449754     qt-mt323:qt-mt323.dll
 0005:00000758       __imp_?startsWith@QString@@QBE_NABV1@@Z 00449758     qt-mt323:qt-mt323.dll
 0005:0000075c       __imp_??BQString@@QBEPBDXZ 0044975c     qt-mt323:qt-mt323.dll
 0005:00000760       __imp_?latin1@QString@@QBEPBDXZ 00449760     qt-mt323:qt-mt323.dll
 0005:00000764       __imp_?toInt@QString@@QBEHPA_NH@Z 00449764     qt-mt323:qt-mt323.dll
 0005:00000768       __imp_?upper@QString@@QBE?AV1@XZ 00449768     qt-mt323:qt-mt323.dll
 0005:0000076c       __imp_?rightJustify@QString@@QBE?AV1@IVQChar@@_N@Z 0044976c     qt-mt323:qt-mt323.dll
 0005:00000770       __imp_?leftJustify@QString@@QBE?AV1@IVQChar@@_N@Z 00449770     qt-mt323:qt-mt323.dll
 0005:00000774       __imp_?arg@QString@@QBE?AV1@ABV1@H@Z 00449774     qt-mt323:qt-mt323.dll
 0005:00000778       __imp_?arg@QString@@QBE?AV1@HHH@Z 00449778     qt-mt323:qt-mt323.dll
 0005:0000077c       __imp_?length@QString@@QBEIXZ 0044977c     qt-mt323:qt-mt323.dll
 0005:00000780       __imp_??4QString@@QAEAAV0@ABV0@@Z 00449780     qt-mt323:qt-mt323.dll
 0005:00000784       __imp_??1QString@@QAE@XZ   00449784     qt-mt323:qt-mt323.dll
 0005:00000788       __imp_??0QString@@QAE@PBD@Z 00449788     qt-mt323:qt-mt323.dll
 0005:0000078c       __imp_??0QString@@QAE@ABV0@@Z 0044978c     qt-mt323:qt-mt323.dll
 0005:00000790       __imp_??0QString@@QAE@XZ   00449790     qt-mt323:qt-mt323.dll
 0005:00000794       __imp_??0QChar@@QAE@D@Z    00449794     qt-mt323:qt-mt323.dll
 0005:00000798       __imp_?qDebug@@YAXPBDZZ    00449798     qt-mt323:qt-mt323.dll
 0005:0000079c       __imp_?destroy@QWidget@@MAEX_N0@Z 0044979c     qt-mt323:qt-mt323.dll
 0005:000007a0       __imp_?customWhatsThis@QWidget@@UBE_NXZ 004497a0     qt-mt323:qt-mt323.dll
 0005:000007a4       __imp_?notify@QApplication@@UAE_NPAVQObject@@PAVQEvent@@@Z 004497a4     qt-mt323:qt-mt323.dll
 0005:000007a8       __imp_?customEvent@QObject@@MAEXPAVQCustomEvent@@@Z 004497a8     qt-mt323:qt-mt323.dll
 0005:000007ac       __imp_?setSizePolicy@QWidget@@UAEXVQSizePolicy@@@Z 004497ac     qt-mt323:qt-mt323.dll
 0005:000007b0       __imp_?deleteData@QGArray@@MAEXPAUarray_data@1@@Z 004497b0     qt-mt323:qt-mt323.dll
 0005:000007b4       __imp_?newData@QGArray@@MAEPAUarray_data@1@XZ 004497b4     qt-mt323:qt-mt323.dll
 0005:000007b8       __imp_??1QGArray@@MAE@XZ   004497b8     qt-mt323:qt-mt323.dll
 0005:000007bc       __imp_?qWinMain@@YAXPAUHINSTANCE__@@0PADHAAHAAV?$QMemArray@PAD@@@Z 004497bc     qt-mt323:qt-mt323.dll
 0005:000007c0       __imp_??0QGArray@@IAE@H@Z  004497c0     qt-mt323:qt-mt323.dll
 0005:000007c4       __imp_?duplicate@QGArray@@IAEAAV1@ABV1@@Z 004497c4     qt-mt323:qt-mt323.dll
 0005:000007c8       __imp_??_7?$QMemArray@H@@6B@ 004497c8     qt-mt323:qt-mt323.dll
 0005:000007cc       __imp_??_7?$QMemArray@_N@@6B@ 004497cc     qt-mt323:qt-mt323.dll
 0005:000007d0       __imp_??_7?$QMemArray@D@@6B@ 004497d0     qt-mt323:qt-mt323.dll
 0005:000007d4       __imp_??_7?$QMemArray@VQPoint@@@@6B@ 004497d4     qt-mt323:qt-mt323.dll
 0005:000007d8       __imp_??_7?$QPtrList@D@@6B@ 004497d8     qt-mt323:qt-mt323.dll
 0005:000007dc       __imp_??_7?$QPtrList@VQObject@@@@6B@ 004497dc     qt-mt323:qt-mt323.dll
 0005:000007e0       __imp_??_7?$QPtrList@VQWidget@@@@6B@ 004497e0     qt-mt323:qt-mt323.dll
 0005:000007e4       \177qt-mt323_NULL_THUNK_DATA 004497e4     qt-mt323:qt-mt323.dll
 0005:000008fc       __IMPORT_DESCRIPTOR_bncs_shim_loaderdb 004498fc     bncs_shim_loaderdb:bncs_shim_loaderdb.dll
 0005:00000910       __IMPORT_DESCRIPTOR_dcwdb  00449910     dcwdb:dcwdb.dll
 0005:00000924       __IMPORT_DESCRIPTOR_qt-mt323 00449924     qt-mt323:qt-mt323.dll
 0005:00000938       __IMPORT_DESCRIPTOR_KERNEL32 00449938     kernel32:KERNEL32.dll
 0005:0000094c       __IMPORT_DESCRIPTOR_USER32 0044994c     user32:USER32.dll
 0005:00000960       __IMPORT_DESCRIPTOR_MSVCP120D 00449960     msvcprtd:MSVCP120D.dll
 0005:00000974       __IMPORT_DESCRIPTOR_MSVCR120D 00449974     MSVCRTD:MSVCR120D.dll
 0005:00000988       __NULL_IMPORT_DESCRIPTOR   00449988     bncs_shim_loaderdb:bncs_shim_loaderdb.dll
