 bncs_csi

 Timestamp is 5e9dbcd1 (Mon Apr 20 16:16:33 2020)

 Preferred load address is 00400000

 Start         Length     Name                   Class
 0001:00000000 000000f8H .text                   CODE
 0001:00000100 0000006bH .text$di                CODE
 0001:00000170 00017f84H .text$mn                CODE
 0001:00018100 00001e14H .text$x                 CODE
 0001:00019f20 0000004aH .text$yd                CODE
 0002:00000000 00000900H .idata$5                DATA
 0002:00000900 00000004H .CRT$XCA                DATA
 0002:00000904 00000004H .CRT$XCAA               DATA
 0002:00000908 00000018H .CRT$XCU                DATA
 0002:00000920 00000004H .CRT$XCZ                DATA
 0002:00000924 00000004H .CRT$XIA                DATA
 0002:00000928 00000004H .CRT$XIAA               DATA
 0002:0000092c 00000004H .CRT$XIC                DATA
 0002:00000930 00000004H .CRT$XIY                DATA
 0002:00000934 00000004H .CRT$XIZ                DATA
 0002:00000940 00003fc0H .rdata                  DATA
 0002:00004900 00000f0cH .rdata$r                DATA
 0002:0000580c 00000004H .rtc$IAA                DATA
 0002:00005810 00000004H .rtc$IZZ                DATA
 0002:00005814 00000004H .rtc$TAA                DATA
 0002:00005818 00000004H .rtc$TZZ                DATA
 0002:00005820 00001f04H .xdata$x                DATA
 0002:00007724 00000000H .edata                  DATA
 0002:00007724 0000012cH .idata$2                DATA
 0002:00007850 00000014H .idata$3                DATA
 0002:00007864 00000900H .idata$4                DATA
 0002:00008164 00005972H .idata$6                DATA
 0003:00000000 000003fcH .data                   DATA
 0003:000003fc 00000544H .data$r                 DATA
 0003:00000940 00000608H .bss                    DATA
 0004:00000000 00000190H .rsrc$01                DATA
 0004:00000190 00004058H .rsrc$02                DATA

  Address         Publics by Value              Rva+Base       Lib:Object

 0000:00000000       ___safe_se_handler_count   00000000     <absolute>
 0000:00000000       ___guard_fids_table        00000000     <absolute>
 0000:00000000       __except_list              00000000     <absolute>
 0000:00000000       ___safe_se_handler_table   00000000     <absolute>
 0000:00000000       ___guard_flags             00000000     <absolute>
 0000:00000000       ___guard_fids_count        00000000     <absolute>
 0000:00009876       __ldused                   00009876     <absolute>
 0000:00009876       __fltused                  00009876     <absolute>
 0000:00000000       ___ImageBase               00400000     <linker-defined>
 0001:00000000       _HtmlHelpA@16              00401000 f   htmlhelp:init.obj
 0001:00000170       ??$?HDU?$char_traits@D@std@@V?$allocator@D@1@@std@@YA?AV?$basic_string@DU?$char_traits@D@std@@V?$allocator@D@2@@0@$$QAV10@ABV10@@Z 00401170 f i ccConfig.obj
 0001:000001f0       ??$?HDU?$char_traits@D@std@@V?$allocator@D@1@@std@@YA?AV?$basic_string@DU?$char_traits@D@std@@V?$allocator@D@2@@0@$$QAV10@PBD@Z 004011f0 f i ccConfig.obj
 0001:00000290       ??$?HDU?$char_traits@D@std@@V?$allocator@D@1@@std@@YA?AV?$basic_string@DU?$char_traits@D@std@@V?$allocator@D@2@@0@ABV10@PBD@Z 00401290 f i ccConfig.obj
 0001:00000380       ??0?$basic_string@DU?$char_traits@D@std@@V?$allocator@D@2@@std@@QAE@PBD@Z 00401380 f i ccConfig.obj
 0001:000003e0       ??1?$basic_string@DU?$char_traits@D@std@@V?$allocator@D@2@@std@@QAE@XZ 004013e0 f i ccConfig.obj
 0001:00000410       ??1initializer@?A0x81f7e962@@QAE@XZ 00401410 f i qrc_bncs_csi.obj
 0001:00000410       ??3@YAXPAX0@Z              00401410 f i ccConfig.obj
 0001:00000420       ??_G_System_error_category@std@@UAEPAXI@Z 00401420 f i ccConfig.obj
 0001:00000420       ??_E_Iostream_error_category@std@@UAEPAXI@Z 00401420 f i ccConfig.obj
 0001:00000420       ??_G_Iostream_error_category@std@@UAEPAXI@Z 00401420 f i ccConfig.obj
 0001:00000420       ??_G_Generic_error_category@std@@UAEPAXI@Z 00401420 f i ccConfig.obj
 0001:00000420       ??_E_Generic_error_category@std@@UAEPAXI@Z 00401420 f i ccConfig.obj
 0001:00000420       ??_Eerror_category@std@@UAEPAXI@Z 00401420 f i ccConfig.obj
 0001:00000420       ??_E_System_error_category@std@@UAEPAXI@Z 00401420 f i ccConfig.obj
 0001:00000420       ??_Gerror_category@std@@UAEPAXI@Z 00401420 f i ccConfig.obj
 0001:00000450       ?_Assign_rv@?$basic_string@DU?$char_traits@D@std@@V?$allocator@D@2@@std@@QAEX$$QAV12@@Z 00401450 f i ccConfig.obj
 0001:000004b0       ?_Copy@?$basic_string@DU?$char_traits@D@std@@V?$allocator@D@2@@std@@QAEXII@Z 004014b0 f i ccConfig.obj
 0001:00000600       ?_Grow@?$basic_string@DU?$char_traits@D@std@@V?$allocator@D@2@@std@@QAE_NI_N@Z 00401600 f i ccConfig.obj
 0001:000006b0       ?allocate@?$_Wrap_alloc@V?$allocator@D@std@@@std@@QAEPADI@Z 004016b0 f i ccConfig.obj
 0001:000006e0       ?append@?$basic_string@DU?$char_traits@D@std@@V?$allocator@D@2@@std@@QAEAAV12@ABV12@II@Z 004016e0 f i ccConfig.obj
 0001:000007a0       ?append@?$basic_string@DU?$char_traits@D@std@@V?$allocator@D@2@@std@@QAEAAV12@PBDI@Z 004017a0 f i ccConfig.obj
 0001:00000890       ?assign@?$basic_string@DU?$char_traits@D@std@@V?$allocator@D@2@@std@@QAEAAV12@ABV12@II@Z 00401890 f i ccConfig.obj
 0001:000009b0       ?assign@?$basic_string@DU?$char_traits@D@std@@V?$allocator@D@2@@std@@QAEAAV12@PBDI@Z 004019b0 f i ccConfig.obj
 0001:00000ab0       ?compare@?$basic_string@DU?$char_traits@D@std@@V?$allocator@D@2@@std@@QBEHIIPBDI@Z 00401ab0 f i ccConfig.obj
 0001:00000b20       ?compare@?$char_traits@D@std@@SAHPBD0I@Z 00401b20 f i ccConfig.obj
 0001:00000b90       ?default_error_condition@_System_error_category@std@@UBE?AVerror_condition@2@H@Z 00401b90 f i ccConfig.obj
 0001:00000bd0       ?default_error_condition@error_category@std@@UBE?AVerror_condition@2@H@Z 00401bd0 f i ccConfig.obj
 0001:00000bf0       ?equivalent@error_category@std@@UBE_NABVerror_code@2@H@Z 00401bf0 f i ccConfig.obj
 0001:00000c10       ?equivalent@error_category@std@@UBE_NHABVerror_condition@2@@Z 00401c10 f i ccConfig.obj
 0001:00000c50       ?erase@?$basic_string@DU?$char_traits@D@std@@V?$allocator@D@2@@std@@QAEAAV12@II@Z 00401c50 f i ccConfig.obj
 0001:00000cf0       ?getDevPath@ccConfig@@SA?AV?$basic_string@DU?$char_traits@D@std@@V?$allocator@D@2@@std@@ABV23@@Z 00401cf0 f   ccConfig.obj
 0001:00000db0       ?getDevPath@ccConfig@@SA?AV?$basic_string@DU?$char_traits@D@std@@V?$allocator@D@2@@std@@XZ 00401db0 f   ccConfig.obj
 0001:00000fc0       ?getInt@ccConfig@@SAHABV?$basic_string@DU?$char_traits@D@std@@V?$allocator@D@2@@std@@00H_N@Z 00401fc0 f   ccConfig.obj
 0001:00001110       ?isV3Based@ccConfig@@SA_NXZ 00402110 f   ccConfig.obj
 0001:000011c0       ?message@_Generic_error_category@std@@UBE?AV?$basic_string@DU?$char_traits@D@std@@V?$allocator@D@2@@2@H@Z 004021c0 f i ccConfig.obj
 0001:00001240       ?message@_Iostream_error_category@std@@UBE?AV?$basic_string@DU?$char_traits@D@std@@V?$allocator@D@2@@2@H@Z 00402240 f i ccConfig.obj
 0001:00001290       ?message@_System_error_category@std@@UBE?AV?$basic_string@DU?$char_traits@D@std@@V?$allocator@D@2@@2@H@Z 00402290 f i ccConfig.obj
 0001:00001310       ?name@_Generic_error_category@std@@UBEPBDXZ 00402310 f i ccConfig.obj
 0001:00001320       ?name@_Iostream_error_category@std@@UBEPBDXZ 00402320 f i ccConfig.obj
 0001:00001330       ?name@_System_error_category@std@@UBEPBDXZ 00402330 f i ccConfig.obj
 0001:00001340       ?workstation@ccConfig@@SAHXZ 00402340 f   ccConfig.obj
 0001:000016a0       ??$?0HV?$basic_string@DU?$char_traits@D@std@@V?$allocator@D@2@@std@@X@?$pair@$$CBHV?$basic_string@DU?$char_traits@D@std@@V?$allocator@D@2@@std@@@std@@QAE@$$QAU?$pair@HV?$basic_string@DU?$char_traits@D@std@@V?$allocator@D@2@@std@@@1@@Z 004026a0 f i database.obj
 0001:00001710       ??$_Buynode@U?$pair@HV?$basic_string@DU?$char_traits@D@std@@V?$allocator@D@2@@std@@@std@@@?$_Tree_buy@U?$pair@$$CBHV?$basic_string@DU?$char_traits@D@std@@V?$allocator@D@2@@std@@@std@@V?$allocator@U?$pair@$$CBHV?$basic_string@DU?$char_traits@D@std@@V?$allocator@D@2@@std@@@std@@@2@@std@@QAEPAU?$_Tree_node@U?$pair@$$CBHV?$basic_string@DU?$char_traits@D@std@@V?$allocator@D@2@@std@@@std@@PAX@1@$$QAU?$pair@HV?$basic_string@DU?$char_traits@D@std@@V?$allocator@D@2@@std@@@1@@Z 00402710 f i database.obj
 0001:00001740       ??$_Insert_at@AAU?$pair@$$CBHV?$basic_string@DU?$char_traits@D@std@@V?$allocator@D@2@@std@@@std@@PAU?$_Tree_node@U?$pair@$$CBHV?$basic_string@DU?$char_traits@D@std@@V?$allocator@D@2@@std@@@std@@PAX@2@@?$_Tree@V?$_Tmap_traits@HV?$basic_string@DU?$char_traits@D@std@@V?$allocator@D@2@@std@@U?$less@H@2@V?$allocator@U?$pair@$$CBHV?$basic_string@DU?$char_traits@D@std@@V?$allocator@D@2@@std@@@std@@@2@$0A@@std@@@std@@IAE?AV?$_Tree_iterator@V?$_Tree_val@U?$_Tree_simple_types@U?$pair@$$CBHV?$basic_string@DU?$char_traits@D@std@@V?$allocator@D@2@@std@@@std@@@std@@@std@@@1@_NPAU?$_Tree_node@U?$pair@$$CBHV?$basic_string@DU?$char_traits@D@std@@V?$allocator@D@2@@std@@@std@@PAX@1@AAU?$pair@$$CBHV?$basic_string@DU?$char_traits@D@std@@V?$allocator@D@2@@std@@@1@1@Z 00402740 f i database.obj
 0001:00001970       ??$_Insert_nohint@AAU?$pair@$$CBHV?$basic_string@DU?$char_traits@D@std@@V?$allocator@D@2@@std@@@std@@PAU?$_Tree_node@U?$pair@$$CBHV?$basic_string@DU?$char_traits@D@std@@V?$allocator@D@2@@std@@@std@@PAX@2@@?$_Tree@V?$_Tmap_traits@HV?$basic_string@DU?$char_traits@D@std@@V?$allocator@D@2@@std@@U?$less@H@2@V?$allocator@U?$pair@$$CBHV?$basic_string@DU?$char_traits@D@std@@V?$allocator@D@2@@std@@@std@@@2@$0A@@std@@@std@@IAE?AU?$pair@V?$_Tree_iterator@V?$_Tree_val@U?$_Tree_simple_types@U?$pair@$$CBHV?$basic_string@DU?$char_traits@D@std@@V?$allocator@D@2@@std@@@std@@@std@@@std@@@std@@_N@1@_NAAU?$pair@$$CBHV?$basic_string@DU?$char_traits@D@std@@V?$allocator@D@2@@std@@@1@PAU?$_Tree_node@U?$pair@$$CBHV?$basic_string@DU?$char_traits@D@std@@V?$allocator@D@2@@std@@@std@@PAX@1@@Z 00402970 f i database.obj
 0001:00001ab0       ??0database@@QAE@PBDHH@Z   00402ab0 f   database.obj
 0001:00001b60       ??1?$map@HV?$basic_string@DU?$char_traits@D@std@@V?$allocator@D@2@@std@@U?$less@H@2@V?$allocator@U?$pair@$$CBHV?$basic_string@DU?$char_traits@D@std@@V?$allocator@D@2@@std@@@std@@@2@@std@@QAE@XZ 00402b60 f i database.obj
 0001:00001b90       ??1?$pair@HV?$basic_string@DU?$char_traits@D@std@@V?$allocator@D@2@@std@@@std@@QAE@XZ 00402b90 f i database.obj
 0001:00001bc0       ??_Edatabase@@UAEPAXI@Z    00402bc0 f i database.obj
 0001:00001bc0       ??_Gdatabase@@UAEPAXI@Z    00402bc0 f i database.obj
 0001:00001c30       ?_Buyheadnode@?$_Tree_alloc@$0A@U?$_Tree_base_types@U?$pair@$$CBHV?$basic_string@DU?$char_traits@D@std@@V?$allocator@D@2@@std@@@std@@V?$allocator@U?$pair@$$CBHV?$basic_string@DU?$char_traits@D@std@@V?$allocator@D@2@@std@@@std@@@2@@std@@@std@@QAEPAU?$_Tree_node@U?$pair@$$CBHV?$basic_string@DU?$char_traits@D@std@@V?$allocator@D@2@@std@@@std@@PAX@2@XZ 00402c30 f i database.obj
 0001:00001c60       ?_Buynode0@?$_Tree_buy@U?$pair@$$CBHV?$basic_string@DU?$char_traits@D@std@@V?$allocator@D@2@@std@@@std@@V?$allocator@U?$pair@$$CBHV?$basic_string@DU?$char_traits@D@std@@V?$allocator@D@2@@std@@@std@@@2@@std@@QAEPAU?$_Tree_node@U?$pair@$$CBHV?$basic_string@DU?$char_traits@D@std@@V?$allocator@D@2@@std@@@std@@PAX@2@XZ 00402c60 f i database.obj
 0001:00001ca0       ?_Destroy_if_not_nil@?$_Tree@V?$_Tmap_traits@HV?$basic_string@DU?$char_traits@D@std@@V?$allocator@D@2@@std@@U?$less@H@2@V?$allocator@U?$pair@$$CBHV?$basic_string@DU?$char_traits@D@std@@V?$allocator@D@2@@std@@@std@@@2@$0A@@std@@@std@@IAEXPAU?$_Tree_node@U?$pair@$$CBHV?$basic_string@DU?$char_traits@D@std@@V?$allocator@D@2@@std@@@std@@PAX@2@@Z 00402ca0 f i database.obj
 0001:00001ce0       ?_Erase@?$_Tree@V?$_Tmap_traits@HV?$basic_string@DU?$char_traits@D@std@@V?$allocator@D@2@@std@@U?$less@H@2@V?$allocator@U?$pair@$$CBHV?$basic_string@DU?$char_traits@D@std@@V?$allocator@D@2@@std@@@std@@@2@$0A@@std@@@std@@IAEXPAU?$_Tree_node@U?$pair@$$CBHV?$basic_string@DU?$char_traits@D@std@@V?$allocator@D@2@@std@@@std@@PAX@2@@Z 00402ce0 f i database.obj
 0001:00001d40       ?erase@?$_Tree@V?$_Tmap_traits@HV?$basic_string@DU?$char_traits@D@std@@V?$allocator@D@2@@std@@U?$less@H@2@V?$allocator@U?$pair@$$CBHV?$basic_string@DU?$char_traits@D@std@@V?$allocator@D@2@@std@@@std@@@2@$0A@@std@@@std@@QAE?AV?$_Tree_iterator@V?$_Tree_val@U?$_Tree_simple_types@U?$pair@$$CBHV?$basic_string@DU?$char_traits@D@std@@V?$allocator@D@2@@std@@@std@@@std@@@std@@@2@V?$_Tree_const_iterator@V?$_Tree_val@U?$_Tree_simple_types@U?$pair@$$CBHV?$basic_string@DU?$char_traits@D@std@@V?$allocator@D@2@@std@@@std@@@std@@@std@@@2@0@Z 00402d40 f i database.obj
 0001:00001e00       ?erase@?$_Tree@V?$_Tmap_traits@HV?$basic_string@DU?$char_traits@D@std@@V?$allocator@D@2@@std@@U?$less@H@2@V?$allocator@U?$pair@$$CBHV?$basic_string@DU?$char_traits@D@std@@V?$allocator@D@2@@std@@@std@@@2@$0A@@std@@@std@@QAE?AV?$_Tree_iterator@V?$_Tree_val@U?$_Tree_simple_types@U?$pair@$$CBHV?$basic_string@DU?$char_traits@D@std@@V?$allocator@D@2@@std@@@std@@@std@@@std@@@2@V?$_Tree_const_iterator@V?$_Tree_val@U?$_Tree_simple_types@U?$pair@$$CBHV?$basic_string@DU?$char_traits@D@std@@V?$allocator@D@2@@std@@@std@@@std@@@std@@@2@@Z 00402e00 f i database.obj
 0001:000020b0       ?exists@database@@QAE_NH@Z 004030b0 f   database.obj
 0001:00002100       ?find@?$_Tree@V?$_Tmap_traits@HV?$basic_string@DU?$char_traits@D@std@@V?$allocator@D@2@@std@@U?$less@H@2@V?$allocator@U?$pair@$$CBHV?$basic_string@DU?$char_traits@D@std@@V?$allocator@D@2@@std@@@std@@@2@$0A@@std@@@std@@QAE?AV?$_Tree_iterator@V?$_Tree_val@U?$_Tree_simple_types@U?$pair@$$CBHV?$basic_string@DU?$char_traits@D@std@@V?$allocator@D@2@@std@@@std@@@std@@@std@@@2@ABH@Z 00403100 f i database.obj
 0001:00002150       ?getIndex@database@@QAEHPBDHH@Z 00403150 f   database.obj
 0001:00002300       ?getIndex@database@@QAEHPBD_N1@Z 00403300 f   database.obj
 0001:00002480       ?getName@database@@QAEPBDH@Z 00403480 f   database.obj
 0001:00002500       ?getName@database@@QAE_NHPADH@Z 00403500 f   database.obj
 0001:00002580       ?load@database@@AAEXPBDHH@Z 00403580 f   database.obj
 0001:00002aa0       ?setName@database@@QAE_NHPBD_NPA_N@Z 00403aa0 f   database.obj
 0001:00002d50       ?numLoaded@databaseMgr@@QAEHXZ 00403d50 f   databaseMgr.obj
 0001:00002d50       ?size@database@@QAEHXZ     00403d50 f   database.obj
 0001:00002d60       ??$_Buynode@U?$pair@HPAVdatabase@@@std@@@?$_Tree_buy@U?$pair@$$CBHPAVdatabase@@@std@@V?$allocator@U?$pair@$$CBHPAVdatabase@@@std@@@2@@std@@QAEPAU?$_Tree_node@U?$pair@$$CBHPAVdatabase@@@std@@PAX@1@$$QAU?$pair@HPAVdatabase@@@1@@Z 00403d60 f i databaseMgr.obj
 0001:00002d90       ??$_Insert_at@AAU?$pair@$$CBHPAVdatabase@@@std@@PAU?$_Tree_node@U?$pair@$$CBHPAVdatabase@@@std@@PAX@2@@?$_Tree@V?$_Tmap_traits@HPAVdatabase@@U?$less@H@std@@V?$allocator@U?$pair@$$CBHPAVdatabase@@@std@@@3@$0A@@std@@@std@@IAE?AV?$_Tree_iterator@V?$_Tree_val@U?$_Tree_simple_types@U?$pair@$$CBHPAVdatabase@@@std@@@std@@@std@@@1@_NPAU?$_Tree_node@U?$pair@$$CBHPAVdatabase@@@std@@PAX@1@AAU?$pair@$$CBHPAVdatabase@@@1@1@Z 00403d90 f i databaseMgr.obj
 0001:00002fa0       ??$_Insert_nohint@AAU?$pair@$$CBHPAVdatabase@@@std@@PAU?$_Tree_node@U?$pair@$$CBHPAVdatabase@@@std@@PAX@2@@?$_Tree@V?$_Tmap_traits@HPAVdatabase@@U?$less@H@std@@V?$allocator@U?$pair@$$CBHPAVdatabase@@@std@@@3@$0A@@std@@@std@@IAE?AU?$pair@V?$_Tree_iterator@V?$_Tree_val@U?$_Tree_simple_types@U?$pair@$$CBHPAVdatabase@@@std@@@std@@@std@@@std@@_N@1@_NAAU?$pair@$$CBHPAVdatabase@@@1@PAU?$_Tree_node@U?$pair@$$CBHPAVdatabase@@@std@@PAX@1@@Z 00403fa0 f i databaseMgr.obj
 0001:000030c0       ??0databaseMgr@@QAE@PBD@Z  004040c0 f   databaseMgr.obj
 0001:00003130       ??0databaseMgr@@QAE@XZ     00404130 f   databaseMgr.obj
 0001:00003220       ??_GdatabaseMgr@@UAEPAXI@Z 00404220 f i databaseMgr.obj
 0001:00003220       ??_EdatabaseMgr@@UAEPAXI@Z 00404220 f i databaseMgr.obj
 0001:000032a0       ?_Buyheadnode@?$_Tree_alloc@$0A@U?$_Tree_base_types@U?$pair@$$CBHPAVdatabase@@@std@@V?$allocator@U?$pair@$$CBHPAVdatabase@@@std@@@2@@std@@@std@@QAEPAU?$_Tree_node@U?$pair@$$CBHPAVdatabase@@@std@@PAX@2@XZ 004042a0 f i databaseMgr.obj
 0001:000032d0       ?_Buynode0@?$_Tree_buy@U?$pair@$$CBHPAVdatabase@@@std@@V?$allocator@U?$pair@$$CBHPAVdatabase@@@std@@@2@@std@@QAEPAU?$_Tree_node@U?$pair@$$CBHPAVdatabase@@@std@@PAX@2@XZ 004042d0 f i databaseMgr.obj
 0001:00003310       ?clear@databaseMgr@@QAEXH@Z 00404310 f   databaseMgr.obj
 0001:00003450       ?exists@databaseMgr@@QAEHHH@Z 00404450 f   databaseMgr.obj
 0001:00003470       ?exists@databaseMgr@@QAE_NHHHH@Z 00404470 f   databaseMgr.obj
 0001:000034d0       ?getDatabaseObject@databaseMgr@@AAEPAVdatabase@@HH_N@Z 004044d0 f i databaseMgr.obj
 0001:000035f0       ?getIndex@databaseMgr@@QAEHHHPBDHH@Z 004045f0 f   databaseMgr.obj
 0001:00003620       ?getIndex@databaseMgr@@QAEHHHPBD_N1@Z 00404620 f   databaseMgr.obj
 0001:00003650       ?getName@databaseMgr@@QAEPBDHHH@Z 00404650 f   databaseMgr.obj
 0001:00003690       ?getName@databaseMgr@@QAE_NHHHPADH@Z 00404690 f   databaseMgr.obj
 0001:000036f0       ?setName@databaseMgr@@QAE_NHHHPBD_NPA_N@Z 004046f0 f   databaseMgr.obj
 0001:00003730       ?setPath@databaseMgr@@QAEXPBD@Z 00404730 f   databaseMgr.obj
 0001:000037a0       ?size@databaseMgr@@QAEHHH@Z 004047a0 f   databaseMgr.obj
 0001:00003810       ??0decodeBNCSString@@QAE@PBDD@Z 00404810 f   decodeBNCSString.obj
 0001:00003840       ??1decodeBNCSString@@UAE@XZ 00404840 f   decodeBNCSString.obj
 0001:00003860       ??_EdecodeBNCSString@@UAEPAXI@Z 00404860 f i decodeBNCSString.obj
 0001:00003860       ??_GdecodeBNCSString@@UAEPAXI@Z 00404860 f i decodeBNCSString.obj
 0001:000038a0       ?split@decodeBNCSString@@AAEXPBD@Z 004048a0 f i decodeBNCSString.obj
 0001:00003ad0       ??$_Buynode@ABK@?$_Tree_buy@KV?$allocator@K@std@@@std@@QAEPAU?$_Tree_node@KPAX@1@ABK@Z 00404ad0 f i bncs_csi.obj
 0001:00003ad0       ??$_Buynode@K@?$_Tree_buy@KV?$allocator@K@std@@@std@@QAEPAU?$_Tree_node@KPAX@1@$$QAK@Z 00404ad0 f i bncs_csi.obj
 0001:00003af0       ??$_Buynode@U?$pair@HVdriver@@@std@@@?$_Tree_buy@U?$pair@$$CBKVdriver@@@std@@V?$allocator@U?$pair@$$CBKVdriver@@@std@@@2@@std@@QAEPAU?$_Tree_node@U?$pair@$$CBKVdriver@@@std@@PAX@1@$$QAU?$pair@HVdriver@@@1@@Z 00404af0 f i bncs_csi.obj
 0001:00003b40       ??$_Buynode@U?$pair@KVdeviceStatus@@@std@@@?$_Tree_buy@U?$pair@$$CBKVdeviceStatus@@@std@@V?$allocator@U?$pair@$$CBKVdeviceStatus@@@std@@@2@@std@@QAEPAU?$_Tree_node@U?$pair@$$CBKVdeviceStatus@@@std@@PAX@1@$$QAU?$pair@KVdeviceStatus@@@1@@Z 00404b40 f i bncs_csi.obj
 0001:00003bf0       ??$_Buynode@U?$pair@KVworkstationStatus@@@std@@@?$_Tree_buy@U?$pair@$$CBKVworkstationStatus@@@std@@V?$allocator@U?$pair@$$CBKVworkstationStatus@@@std@@@2@@std@@QAEPAU?$_Tree_node@U?$pair@$$CBKVworkstationStatus@@@std@@PAX@1@$$QAU?$pair@KVworkstationStatus@@@1@@Z 00404bf0 f i bncs_csi.obj
 0001:00003c30       ??$_Copy@U?$integral_constant@_N$0A@@std@@@?$_Tree@V?$_Tmap_traits@HVdeviceStatusOnHost@@U?$less@H@std@@V?$allocator@U?$pair@$$CBHVdeviceStatusOnHost@@@std@@@3@$0A@@std@@@std@@IAEXABV01@U?$integral_constant@_N$0A@@1@@Z 00404c30 f i bncs_csi.obj
 0001:00003c30       ??$_Copy@U?$integral_constant@_N$0A@@std@@@?$_Tree@V?$_Tset_traits@VclientIPC@@U?$less@VclientIPC@@@std@@V?$allocator@VclientIPC@@@3@$0A@@std@@@std@@IAEXABV01@U?$integral_constant@_N$0A@@1@@Z 00404c30 f i messageWindow.obj
 0001:00003cb0       ??$_Copy_nodes@U?$integral_constant@_N$0A@@std@@@?$_Tree@V?$_Tset_traits@VclientIPC@@U?$less@VclientIPC@@@std@@V?$allocator@VclientIPC@@@3@$0A@@std@@@std@@IAEPAU?$_Tree_node@VclientIPC@@PAX@1@PAU21@0U?$integral_constant@_N$0A@@1@@Z 00404cb0 f i messageWindow.obj
 0001:00003cb0       ??$_Copy_nodes@U?$integral_constant@_N$0A@@std@@@?$_Tree@V?$_Tmap_traits@HVdeviceStatusOnHost@@U?$less@H@std@@V?$allocator@U?$pair@$$CBHVdeviceStatusOnHost@@@std@@@3@$0A@@std@@@std@@IAEPAU?$_Tree_node@U?$pair@$$CBHVdeviceStatusOnHost@@@std@@PAX@1@PAU21@0U?$integral_constant@_N$0A@@1@@Z 00404cb0 f i bncs_csi.obj
 0001:00003d70       ??$_Insert_at@AAU?$pair@$$CBKVdeviceStatus@@@std@@PAU?$_Tree_node@U?$pair@$$CBKVdeviceStatus@@@std@@PAX@2@@?$_Tree@V?$_Tmap_traits@KVdeviceStatus@@U?$less@K@std@@V?$allocator@U?$pair@$$CBKVdeviceStatus@@@std@@@3@$0A@@std@@@std@@IAE?AV?$_Tree_iterator@V?$_Tree_val@U?$_Tree_simple_types@U?$pair@$$CBKVdeviceStatus@@@std@@@std@@@std@@@1@_NPAU?$_Tree_node@U?$pair@$$CBKVdeviceStatus@@@std@@PAX@1@AAU?$pair@$$CBKVdeviceStatus@@@1@1@Z 00404d70 f i bncs_csi.obj
 0001:00003f80       ??$_Insert_at@AAU?$pair@$$CBKVdriver@@@std@@PAU?$_Tree_node@U?$pair@$$CBKVdriver@@@std@@PAX@2@@?$_Tree@V?$_Tmap_traits@KVdriver@@U?$less@K@std@@V?$allocator@U?$pair@$$CBKVdriver@@@std@@@3@$0A@@std@@@std@@IAE?AV?$_Tree_iterator@V?$_Tree_val@U?$_Tree_simple_types@U?$pair@$$CBKVdriver@@@std@@@std@@@std@@@1@_NPAU?$_Tree_node@U?$pair@$$CBKVdriver@@@std@@PAX@1@AAU?$pair@$$CBKVdriver@@@1@1@Z 00404f80 f i bncs_csi.obj
 0001:00004190       ??$_Insert_at@AAU?$pair@$$CBKVworkstationStatus@@@std@@PAU?$_Tree_node@U?$pair@$$CBKVworkstationStatus@@@std@@PAX@2@@?$_Tree@V?$_Tmap_traits@KVworkstationStatus@@U?$less@K@std@@V?$allocator@U?$pair@$$CBKVworkstationStatus@@@std@@@3@$0A@@std@@@std@@IAE?AV?$_Tree_iterator@V?$_Tree_val@U?$_Tree_simple_types@U?$pair@$$CBKVworkstationStatus@@@std@@@std@@@std@@@1@_NPAU?$_Tree_node@U?$pair@$$CBKVworkstationStatus@@@std@@PAX@1@AAU?$pair@$$CBKVworkstationStatus@@@1@1@Z 00405190 f i bncs_csi.obj
 0001:000043a0       ??$_Insert_at@ABKU_Nil@std@@@?$_Tree@V?$_Tset_traits@KU?$less@K@std@@V?$allocator@K@2@$0A@@std@@@std@@IAE?AV?$_Tree_const_iterator@V?$_Tree_val@U?$_Tree_simple_types@K@std@@@std@@@1@_NPAU?$_Tree_node@KPAX@1@ABKU_Nil@1@@Z 004053a0 f i bncs_csi.obj
 0001:000043a0       ??$_Insert_at@KU_Nil@std@@@?$_Tree@V?$_Tset_traits@KU?$less@K@std@@V?$allocator@K@2@$0A@@std@@@std@@IAE?AV?$_Tree_const_iterator@V?$_Tree_val@U?$_Tree_simple_types@K@std@@@std@@@1@_NPAU?$_Tree_node@KPAX@1@$$QAKU_Nil@1@@Z 004053a0 f i bncs_csi.obj
 0001:000045a0       ??$_Insert_nohint@AAU?$pair@$$CBKVdeviceStatus@@@std@@PAU?$_Tree_node@U?$pair@$$CBKVdeviceStatus@@@std@@PAX@2@@?$_Tree@V?$_Tmap_traits@KVdeviceStatus@@U?$less@K@std@@V?$allocator@U?$pair@$$CBKVdeviceStatus@@@std@@@3@$0A@@std@@@std@@IAE?AU?$pair@V?$_Tree_iterator@V?$_Tree_val@U?$_Tree_simple_types@U?$pair@$$CBKVdeviceStatus@@@std@@@std@@@std@@@std@@_N@1@_NAAU?$pair@$$CBKVdeviceStatus@@@1@PAU?$_Tree_node@U?$pair@$$CBKVdeviceStatus@@@std@@PAX@1@@Z 004055a0 f i bncs_csi.obj
 0001:000046c0       ??$_Insert_nohint@AAU?$pair@$$CBKVdriver@@@std@@PAU?$_Tree_node@U?$pair@$$CBKVdriver@@@std@@PAX@2@@?$_Tree@V?$_Tmap_traits@KVdriver@@U?$less@K@std@@V?$allocator@U?$pair@$$CBKVdriver@@@std@@@3@$0A@@std@@@std@@IAE?AU?$pair@V?$_Tree_iterator@V?$_Tree_val@U?$_Tree_simple_types@U?$pair@$$CBKVdriver@@@std@@@std@@@std@@@std@@_N@1@_NAAU?$pair@$$CBKVdriver@@@1@PAU?$_Tree_node@U?$pair@$$CBKVdriver@@@std@@PAX@1@@Z 004056c0 f i bncs_csi.obj
 0001:000047e0       ??$_Insert_nohint@AAU?$pair@$$CBKVworkstationStatus@@@std@@PAU?$_Tree_node@U?$pair@$$CBKVworkstationStatus@@@std@@PAX@2@@?$_Tree@V?$_Tmap_traits@KVworkstationStatus@@U?$less@K@std@@V?$allocator@U?$pair@$$CBKVworkstationStatus@@@std@@@3@$0A@@std@@@std@@IAE?AU?$pair@V?$_Tree_iterator@V?$_Tree_val@U?$_Tree_simple_types@U?$pair@$$CBKVworkstationStatus@@@std@@@std@@@std@@@std@@_N@1@_NAAU?$pair@$$CBKVworkstationStatus@@@1@PAU?$_Tree_node@U?$pair@$$CBKVworkstationStatus@@@std@@PAX@1@@Z 004057e0 f i bncs_csi.obj
 0001:00004900       ??$_Insert_nohint@ABKU_Nil@std@@@?$_Tree@V?$_Tset_traits@KU?$less@K@std@@V?$allocator@K@2@$0A@@std@@@std@@IAE?AU?$pair@V?$_Tree_const_iterator@V?$_Tree_val@U?$_Tree_simple_types@K@std@@@std@@@std@@_N@1@_NABKU_Nil@1@@Z 00405900 f i bncs_csi.obj
 0001:00004900       ??$_Insert_nohint@KU_Nil@std@@@?$_Tree@V?$_Tset_traits@KU?$less@K@std@@V?$allocator@K@2@$0A@@std@@@std@@IAE?AU?$pair@V?$_Tree_const_iterator@V?$_Tree_val@U?$_Tree_simple_types@K@std@@@std@@@std@@_N@1@_N$$QAKU_Nil@1@@Z 00405900 f i bncs_csi.obj
 0001:00004a10       ??0?$_Tree@V?$_Tmap_traits@HVdeviceStatusOnHost@@U?$less@H@std@@V?$allocator@U?$pair@$$CBHVdeviceStatusOnHost@@@std@@@3@$0A@@std@@@std@@QAE@ABV01@ABV?$allocator@U?$pair@$$CBHVdeviceStatusOnHost@@@std@@@1@@Z 00405a10 f i bncs_csi.obj
 0001:00004a10       ??0?$_Tree@V?$_Tset_traits@VclientIPC@@U?$less@VclientIPC@@@std@@V?$allocator@VclientIPC@@@3@$0A@@std@@@std@@QAE@ABV01@ABV?$allocator@VclientIPC@@@1@@Z 00405a10 f i messageWindow.obj
 0001:00004ab0       ??0?$list@IV?$allocator@I@std@@@std@@QAE@XZ 00405ab0 f i bncs_csi.obj
 0001:00004ad0       ??0bncs_csi@@QAE@PAVQWidget@@@Z 00405ad0 f   bncs_csi.obj
 0001:00005850       ??0deferredPoll@@QAE@DHHH@Z 00406850 f i bncs_csi.obj
 0001:00005890       ??1?$QList@PAVQTreeWidgetItem@@@@QAE@XZ 00406890 f i bncs_csi.obj
 0001:000058c0       ??1?$QList@VQString@@@@QAE@XZ 004068c0 f i bncs_csi.obj
 0001:00005920       ??1?$list@VdeviceStatusOnHost@@V?$allocator@VdeviceStatusOnHost@@@std@@@std@@QAE@XZ 00406920 f i bncs_csi.obj
 0001:00005920       ??1?$list@VclientIPC@@V?$allocator@VclientIPC@@@std@@@std@@QAE@XZ 00406920 f i messageWindow.obj
 0001:00005920       ??1?$list@IV?$allocator@I@std@@@std@@QAE@XZ 00406920 f i bncs_csi.obj
 0001:00005920       ??1?$list@PAVsingleReg@@V?$allocator@PAVsingleReg@@@std@@@std@@QAE@XZ 00406920 f i clientsRegistration.obj
 0001:00005960       ??1?$map@KVdeviceStatus@@U?$less@K@std@@V?$allocator@U?$pair@$$CBKVdeviceStatus@@@std@@@3@@std@@QAE@XZ 00406960 f i bncs_csi.obj
 0001:00005990       ??1?$map@KVdriver@@U?$less@K@std@@V?$allocator@U?$pair@$$CBKVdriver@@@std@@@3@@std@@QAE@XZ 00406990 f i bncs_csi.obj
 0001:000059c0       ??1?$map@HPAVdatabase@@U?$less@H@std@@V?$allocator@U?$pair@$$CBHPAVdatabase@@@std@@@3@@std@@QAE@XZ 004069c0 f i databaseMgr.obj
 0001:000059c0       ??1?$set@KU?$less@K@std@@V?$allocator@K@2@@std@@QAE@XZ 004069c0 f i bncs_csi.obj
 0001:000059c0       ??1?$map@IVdriverIPC@@U?$less@I@std@@V?$allocator@U?$pair@$$CBIVdriverIPC@@@std@@@3@@std@@QAE@XZ 004069c0 f i messageWindow.obj
 0001:000059c0       ??1?$set@VclientIPC@@U?$less@VclientIPC@@@std@@V?$allocator@VclientIPC@@@3@@std@@QAE@XZ 004069c0 f i messageWindow.obj
 0001:000059c0       ??1?$map@KVworkstationStatus@@U?$less@K@std@@V?$allocator@U?$pair@$$CBKVworkstationStatus@@@std@@@3@@std@@QAE@XZ 004069c0 f i bncs_csi.obj
 0001:000059f0       ??1?$pair@HVdriver@@@std@@QAE@XZ 004069f0 f i bncs_csi.obj
 0001:00005a00       ??1?$pair@KVdeviceStatus@@@std@@QAE@XZ 00406a00 f i bncs_csi.obj
 0001:00005a10       ??1QStringList@@QAE@XZ     00406a10 f i bncs_csi.obj
 0001:00005a20       ??1bncs_csi@@UAE@XZ        00406a20 f   bncs_csi.obj
 0001:00005c00       ??1driver@@UAE@XZ          00406c00 f i bncs_csi.obj
 0001:00005c10       ??A?$QList@VQString@@@@QAEAAVQString@@H@Z 00406c10 f i bncs_csi.obj
 0001:00005c40       ??E?$_Tree_unchecked_const_iterator@V?$_Tree_val@U?$_Tree_simple_types@U?$pair@$$CBIVdriverIPC@@@std@@@std@@@std@@U_Iterator_base0@2@@std@@QAEAAV01@XZ 00406c40 f i messageWindow.obj
 0001:00005c40       ??E?$_Tree_unchecked_const_iterator@V?$_Tree_val@U?$_Tree_simple_types@U?$pair@$$CBKVworkstationStatus@@@std@@@std@@@std@@U_Iterator_base0@2@@std@@QAEAAV01@XZ 00406c40 f i bncs_csi.obj
 0001:00005c40       ??E?$_Tree_unchecked_const_iterator@V?$_Tree_val@U?$_Tree_simple_types@U?$pair@$$CBHPAVdatabase@@@std@@@std@@@std@@U_Iterator_base0@2@@std@@QAEAAV01@XZ 00406c40 f i databaseMgr.obj
 0001:00005c40       ??E?$_Tree_unchecked_const_iterator@V?$_Tree_val@U?$_Tree_simple_types@VclientIPC@@@std@@@std@@U_Iterator_base0@2@@std@@QAEAAV01@XZ 00406c40 f i messageWindow.obj
 0001:00005c40       ??E?$_Tree_unchecked_const_iterator@V?$_Tree_val@U?$_Tree_simple_types@U?$pair@$$CBKVdriver@@@std@@@std@@@std@@U_Iterator_base0@2@@std@@QAEAAV01@XZ 00406c40 f i bncs_csi.obj
 0001:00005c40       ??E?$_Tree_unchecked_const_iterator@V?$_Tree_val@U?$_Tree_simple_types@U?$pair@$$CBHV?$basic_string@DU?$char_traits@D@std@@V?$allocator@D@2@@std@@@std@@@std@@@std@@U_Iterator_base0@2@@std@@QAEAAV01@XZ 00406c40 f i database.obj
 0001:00005c40       ??E?$_Tree_unchecked_const_iterator@V?$_Tree_val@U?$_Tree_simple_types@K@std@@@std@@U_Iterator_base0@2@@std@@QAEAAV01@XZ 00406c40 f i bncs_csi.obj
 0001:00005c40       ??E?$_Tree_unchecked_const_iterator@V?$_Tree_val@U?$_Tree_simple_types@U?$pair@$$CBKVdeviceStatus@@@std@@@std@@@std@@U_Iterator_base0@2@@std@@QAEAAV01@XZ 00406c40 f i bncs_csi.obj
 0001:00005c40       ??E?$_Tree_unchecked_const_iterator@V?$_Tree_val@U?$_Tree_simple_types@U?$pair@$$CBHVdeviceStatusOnHost@@@std@@@std@@@std@@U_Iterator_base0@2@@std@@QAEAAV01@XZ 00406c40 f i bncs_csi.obj
 0001:00005c90       ??H@YA?BVQString@@PBDABV0@@Z 00406c90 f i bncs_csi.obj
 0001:000063da       ??_EQGroupBox@@W7AEPAXI@Z  004073da f i bncs_csi.obj
 0001:000063e2       ??_EQHBoxLayout@@W7AEPAXI@Z 004073e2 f i bncs_csi.obj
 0001:000063ea       ??_EQLabel@@W7AEPAXI@Z     004073ea f i bncs_csi.obj
 0001:000063f2       ??_EQMenu@@W7AEPAXI@Z      004073f2 f i bncs_csi.obj
 0001:000063fa       ??_EQMenuBar@@W7AEPAXI@Z   004073fa f i bncs_csi.obj
 0001:00006402       ??_EQSplitter@@W7AEPAXI@Z  00407402 f i bncs_csi.obj
 0001:0000640a       ??_EQStatusBar@@W7AEPAXI@Z 0040740a f i bncs_csi.obj
 0001:00006412       ??_EQToolBar@@W7AEPAXI@Z   00407412 f i bncs_csi.obj
 0001:0000641a       ??_EQTreeWidget@@W7AEPAXI@Z 0040741a f i bncs_csi.obj
 0001:00006422       ??_EQVBoxLayout@@W7AEPAXI@Z 00407422 f i bncs_csi.obj
 0001:0000642a       ??_EQWidget@@W7AEPAXI@Z    0040742a f i bncs_csi.obj
 0001:00006432       ??_Ebncs_csi@@W7AEPAXI@Z   00407432 f i bncs_csi.obj
 0001:00006440       ??_GQAction@@UAEPAXI@Z     00407440 f i bncs_csi.obj
 0001:00006440       ??_EQAction@@UAEPAXI@Z     00407440 f i bncs_csi.obj
 0001:00006470       ??_GQGroupBox@@UAEPAXI@Z   00407470 f i bncs_csi.obj
 0001:00006470       ??_EQGroupBox@@UAEPAXI@Z   00407470 f i bncs_csi.obj
 0001:000064a0       ??_GQHBoxLayout@@UAEPAXI@Z 004074a0 f i bncs_csi.obj
 0001:000064a0       ??_EQHBoxLayout@@UAEPAXI@Z 004074a0 f i bncs_csi.obj
 0001:000064d0       ??_GQLabel@@UAEPAXI@Z      004074d0 f i bncs_csi.obj
 0001:000064d0       ??_EQLabel@@UAEPAXI@Z      004074d0 f i bncs_csi.obj
 0001:00006500       ??_EQMenu@@UAEPAXI@Z       00407500 f i bncs_csi.obj
 0001:00006500       ??_GQMenu@@UAEPAXI@Z       00407500 f i bncs_csi.obj
 0001:00006530       ??_EQMenuBar@@UAEPAXI@Z    00407530 f i bncs_csi.obj
 0001:00006530       ??_GQMenuBar@@UAEPAXI@Z    00407530 f i bncs_csi.obj
 0001:00006560       ??_EQSpacerItem@@UAEPAXI@Z 00407560 f i bncs_csi.obj
 0001:00006560       ??_GQSpacerItem@@UAEPAXI@Z 00407560 f i bncs_csi.obj
 0001:00006590       ??_GQSplitter@@UAEPAXI@Z   00407590 f i bncs_csi.obj
 0001:00006590       ??_EQSplitter@@UAEPAXI@Z   00407590 f i bncs_csi.obj
 0001:000065c0       ??_GQStatusBar@@UAEPAXI@Z  004075c0 f i bncs_csi.obj
 0001:000065c0       ??_EQStatusBar@@UAEPAXI@Z  004075c0 f i bncs_csi.obj
 0001:000065f0       ??_EQToolBar@@UAEPAXI@Z    004075f0 f i bncs_csi.obj
 0001:000065f0       ??_GQToolBar@@UAEPAXI@Z    004075f0 f i bncs_csi.obj
 0001:00006620       ??_GQTreeWidget@@UAEPAXI@Z 00407620 f i bncs_csi.obj
 0001:00006620       ??_EQTreeWidget@@UAEPAXI@Z 00407620 f i bncs_csi.obj
 0001:00006650       ??_EQTreeWidgetItem@@UAEPAXI@Z 00407650 f i bncs_csi.obj
 0001:00006650       ??_GQTreeWidgetItem@@UAEPAXI@Z 00407650 f i bncs_csi.obj
 0001:00006680       ??_GQVBoxLayout@@UAEPAXI@Z 00407680 f i bncs_csi.obj
 0001:00006680       ??_EQVBoxLayout@@UAEPAXI@Z 00407680 f i bncs_csi.obj
 0001:000066b0       ??_GQWidget@@UAEPAXI@Z     004076b0 f i bncs_csi.obj
 0001:000066b0       ??_EQWidget@@UAEPAXI@Z     004076b0 f i bncs_csi.obj
 0001:000066e0       ??_Gbncs_csi@@UAEPAXI@Z    004076e0 f i bncs_csi.obj
 0001:000066e0       ??_Ebncs_csi@@UAEPAXI@Z    004076e0 f i bncs_csi.obj
 0001:00006710       ??_EdeferredPoll@@UAEPAXI@Z 00407710 f i bncs_csi.obj
 0001:00006710       ??_GdeferredPoll@@UAEPAXI@Z 00407710 f i bncs_csi.obj
 0001:00006740       ??_GdeviceStatus@@UAEPAXI@Z 00407740 f i bncs_csi.obj
 0001:00006740       ??_EdeviceStatus@@UAEPAXI@Z 00407740 f i bncs_csi.obj
 0001:00006770       ??_Edriver@@UAEPAXI@Z      00407770 f i bncs_csi.obj
 0001:00006770       ??_Gdriver@@UAEPAXI@Z      00407770 f i bncs_csi.obj
 0001:000067a0       ?EnumChildProc@@YGHPAUHWND__@@J@Z 004077a0 f   bncs_csi.obj
 0001:000067e0       ?_Buyheadnode@?$_Tree_alloc@$0A@U?$_Tree_base_types@KV?$allocator@K@std@@@std@@@std@@QAEPAU?$_Tree_node@KPAX@2@XZ 004077e0 f i bncs_csi.obj
 0001:00006810       ?_Buyheadnode@?$_Tree_alloc@$0A@U?$_Tree_base_types@U?$pair@$$CBHVdeviceStatusOnHost@@@std@@V?$allocator@U?$pair@$$CBHVdeviceStatusOnHost@@@std@@@2@@std@@@std@@QAEPAU?$_Tree_node@U?$pair@$$CBHVdeviceStatusOnHost@@@std@@PAX@2@XZ 00407810 f i bncs_csi.obj
 0001:00006810       ?_Buyheadnode@?$_Tree_alloc@$0A@U?$_Tree_base_types@VclientIPC@@V?$allocator@VclientIPC@@@std@@@std@@@std@@QAEPAU?$_Tree_node@VclientIPC@@PAX@2@XZ 00407810 f i messageWindow.obj
 0001:00006840       ?_Buyheadnode@?$_Tree_alloc@$0A@U?$_Tree_base_types@U?$pair@$$CBKVdriver@@@std@@V?$allocator@U?$pair@$$CBKVdriver@@@std@@@2@@std@@@std@@QAEPAU?$_Tree_node@U?$pair@$$CBKVdriver@@@std@@PAX@2@XZ 00407840 f i bncs_csi.obj
 0001:00006840       ?_Buyheadnode@?$_Tree_alloc@$0A@U?$_Tree_base_types@U?$pair@$$CBKVdeviceStatus@@@std@@V?$allocator@U?$pair@$$CBKVdeviceStatus@@@std@@@2@@std@@@std@@QAEPAU?$_Tree_node@U?$pair@$$CBKVdeviceStatus@@@std@@PAX@2@XZ 00407840 f i bncs_csi.obj
 0001:00006870       ?_Buyheadnode@?$_Tree_alloc@$0A@U?$_Tree_base_types@U?$pair@$$CBKVworkstationStatus@@@std@@V?$allocator@U?$pair@$$CBKVworkstationStatus@@@std@@@2@@std@@@std@@QAEPAU?$_Tree_node@U?$pair@$$CBKVworkstationStatus@@@std@@PAX@2@XZ 00407870 f i bncs_csi.obj
 0001:000068a0       ?_Buynode0@?$_List_alloc@$0A@U?$_List_base_types@PAVsingleReg@@V?$allocator@PAVsingleReg@@@std@@@std@@@std@@QAEPAU?$_List_node@PAVsingleReg@@PAX@2@PAU32@0@Z 004078a0 f i clientsRegistration.obj
 0001:000068a0       ?_Buynode0@?$_List_alloc@$0A@U?$_List_base_types@IV?$allocator@I@std@@@std@@@std@@QAEPAU?$_List_node@IPAX@2@PAU32@0@Z 004078a0 f i bncs_csi.obj
 0001:000068e0       ?_Buynode0@?$_List_alloc@$0A@U?$_List_base_types@VdeviceStatusOnHost@@V?$allocator@VdeviceStatusOnHost@@@std@@@std@@@std@@QAEPAU?$_List_node@VdeviceStatusOnHost@@PAX@2@PAU32@0@Z 004078e0 f i bncs_csi.obj
 0001:00006920       ?_Buynode0@?$_Tree_buy@KV?$allocator@K@std@@@std@@QAEPAU?$_Tree_node@KPAX@2@XZ 00407920 f i bncs_csi.obj
 0001:00006960       ?_Buynode0@?$_Tree_buy@U?$pair@$$CBKVdriver@@@std@@V?$allocator@U?$pair@$$CBKVdriver@@@std@@@2@@std@@QAEPAU?$_Tree_node@U?$pair@$$CBKVdriver@@@std@@PAX@2@XZ 00407960 f i bncs_csi.obj
 0001:00006960       ?_Buynode0@?$_Tree_buy@U?$pair@$$CBKVdeviceStatus@@@std@@V?$allocator@U?$pair@$$CBKVdeviceStatus@@@std@@@2@@std@@QAEPAU?$_Tree_node@U?$pair@$$CBKVdeviceStatus@@@std@@PAX@2@XZ 00407960 f i bncs_csi.obj
 0001:000069a0       ?_Buynode0@?$_Tree_buy@U?$pair@$$CBKVworkstationStatus@@@std@@V?$allocator@U?$pair@$$CBKVworkstationStatus@@@std@@@2@@std@@QAEPAU?$_Tree_node@U?$pair@$$CBKVworkstationStatus@@@std@@PAX@2@XZ 004079a0 f i bncs_csi.obj
 0001:000069e0       ?_Destroy_if_not_nil@?$_Tree@V?$_Tmap_traits@KVdeviceStatus@@U?$less@K@std@@V?$allocator@U?$pair@$$CBKVdeviceStatus@@@std@@@3@$0A@@std@@@std@@IAEXPAU?$_Tree_node@U?$pair@$$CBKVdeviceStatus@@@std@@PAX@2@@Z 004079e0 f i bncs_csi.obj
 0001:00006a00       ?_Destroy_if_not_nil@?$_Tree@V?$_Tmap_traits@KVdriver@@U?$less@K@std@@V?$allocator@U?$pair@$$CBKVdriver@@@std@@@3@$0A@@std@@@std@@IAEXPAU?$_Tree_node@U?$pair@$$CBKVdriver@@@std@@PAX@2@@Z 00407a00 f i bncs_csi.obj
 0001:00006a20       ?_Eqrange@?$_Tree@V?$_Tmap_traits@KVdriver@@U?$less@K@std@@V?$allocator@U?$pair@$$CBKVdriver@@@std@@@3@$0A@@std@@@std@@IAE?AU?$pair@V?$_Tree_iterator@V?$_Tree_val@U?$_Tree_simple_types@U?$pair@$$CBKVdriver@@@std@@@std@@@std@@@std@@V12@@2@ABK@Z 00407a20 f i bncs_csi.obj
 0001:00006aa0       ?_Erase@?$_Tree@V?$_Tmap_traits@KVdeviceStatus@@U?$less@K@std@@V?$allocator@U?$pair@$$CBKVdeviceStatus@@@std@@@3@$0A@@std@@@std@@IAEXPAU?$_Tree_node@U?$pair@$$CBKVdeviceStatus@@@std@@PAX@2@@Z 00407aa0 f i bncs_csi.obj
 0001:00006ae0       ?_Erase@?$_Tree@V?$_Tmap_traits@KVdriver@@U?$less@K@std@@V?$allocator@U?$pair@$$CBKVdriver@@@std@@@3@$0A@@std@@@std@@IAEXPAU?$_Tree_node@U?$pair@$$CBKVdriver@@@std@@PAX@2@@Z 00407ae0 f i bncs_csi.obj
 0001:00006b20       ?_Erase@?$_Tree@V?$_Tset_traits@KU?$less@K@std@@V?$allocator@K@2@$0A@@std@@@std@@IAEXPAU?$_Tree_node@KPAX@2@@Z 00407b20 f i bncs_csi.obj
 0001:00006b20       ?_Erase@?$_Tree@V?$_Tmap_traits@IVdriverIPC@@U?$less@I@std@@V?$allocator@U?$pair@$$CBIVdriverIPC@@@std@@@3@$0A@@std@@@std@@IAEXPAU?$_Tree_node@U?$pair@$$CBIVdriverIPC@@@std@@PAX@2@@Z 00407b20 f i messageWindow.obj
 0001:00006b20       ?_Erase@?$_Tree@V?$_Tmap_traits@HVdeviceStatusOnHost@@U?$less@H@std@@V?$allocator@U?$pair@$$CBHVdeviceStatusOnHost@@@std@@@3@$0A@@std@@@std@@IAEXPAU?$_Tree_node@U?$pair@$$CBHVdeviceStatusOnHost@@@std@@PAX@2@@Z 00407b20 f i bncs_csi.obj
 0001:00006b20       ?_Erase@?$_Tree@V?$_Tmap_traits@HPAVdatabase@@U?$less@H@std@@V?$allocator@U?$pair@$$CBHPAVdatabase@@@std@@@3@$0A@@std@@@std@@IAEXPAU?$_Tree_node@U?$pair@$$CBHPAVdatabase@@@std@@PAX@2@@Z 00407b20 f i databaseMgr.obj
 0001:00006b20       ?_Erase@?$_Tree@V?$_Tmap_traits@KVworkstationStatus@@U?$less@K@std@@V?$allocator@U?$pair@$$CBKVworkstationStatus@@@std@@@3@$0A@@std@@@std@@IAEXPAU?$_Tree_node@U?$pair@$$CBKVworkstationStatus@@@std@@PAX@2@@Z 00407b20 f i bncs_csi.obj
 0001:00006b20       ?_Erase@?$_Tree@V?$_Tset_traits@VclientIPC@@U?$less@VclientIPC@@@std@@V?$allocator@VclientIPC@@@3@$0A@@std@@@std@@IAEXPAU?$_Tree_node@VclientIPC@@PAX@2@@Z 00407b20 f i messageWindow.obj
 0001:00006b60       ?append@?$QList@VQString@@@@QAEXABVQString@@@Z 00407b60 f i bncs_csi.obj
 0001:00006c10       ?buildDeviceStatusSlot@bncs_csi@@AAEXABVdeviceStatus@@AAV?$basic_string@DU?$char_traits@D@std@@V?$allocator@D@2@@std@@@Z 00407c10 f   bncs_csi.obj
 0001:00006df0       ?clear@?$_Tree@V?$_Tmap_traits@KVdriver@@U?$less@K@std@@V?$allocator@U?$pair@$$CBKVdriver@@@std@@@3@$0A@@std@@@std@@QAEXXZ 00407df0 f i bncs_csi.obj
 0001:00006e40       ?clear@?$_Tree@V?$_Tset_traits@VclientIPC@@U?$less@VclientIPC@@@std@@V?$allocator@VclientIPC@@@3@$0A@@std@@@std@@QAEXXZ 00407e40 f i messageWindow.obj
 0001:00006e40       ?clear@?$_Tree@V?$_Tmap_traits@KVworkstationStatus@@U?$less@K@std@@V?$allocator@U?$pair@$$CBKVworkstationStatus@@@std@@@3@$0A@@std@@@std@@QAEXXZ 00407e40 f i bncs_csi.obj
 0001:00006e40       ?clear@?$_Tree@V?$_Tset_traits@KU?$less@K@std@@V?$allocator@K@2@$0A@@std@@@std@@QAEXXZ 00407e40 f i bncs_csi.obj
 0001:00006e40       ?clear@?$_Tree@V?$_Tmap_traits@HVdeviceStatusOnHost@@U?$less@H@std@@V?$allocator@U?$pair@$$CBHVdeviceStatusOnHost@@@std@@@3@$0A@@std@@@std@@QAEXXZ 00407e40 f i bncs_csi.obj
 0001:00006e40       ?clear@?$_Tree@V?$_Tmap_traits@IVdriverIPC@@U?$less@I@std@@V?$allocator@U?$pair@$$CBIVdriverIPC@@@std@@@3@$0A@@std@@@std@@QAEXXZ 00407e40 f i messageWindow.obj
 0001:00006e40       ?clear@?$_Tree@V?$_Tmap_traits@HPAVdatabase@@U?$less@H@std@@V?$allocator@U?$pair@$$CBHPAVdatabase@@@std@@@3@$0A@@std@@@std@@QAEXXZ 00407e40 f i databaseMgr.obj
 0001:00006e90       ?clearDriverFlag@bncs_csi@@AAE_NKI@Z 00407e90 f   bncs_csi.obj
 0001:00006f10       ?clientConnected@bncs_csi@@MAEXABVclientIPC@@@Z 00407f10 f   bncs_csi.obj
 0001:00007060       ?clientDisconnected@bncs_csi@@MAEXABVclientIPC@@_N@Z 00408060 f   bncs_csi.obj
 0001:00007180       ?customEvent@bncs_csi@@MAEXPAVQEvent@@@Z 00408180 f   bncs_csi.obj
 0001:000072c0       ?detach_helper@?$QList@PAVQTreeWidgetItem@@@@AAEXH@Z 004082c0 f i bncs_csi.obj
 0001:00007390       ?detach_helper@?$QList@VQString@@@@AAEXH@Z 00408390 f i bncs_csi.obj
 0001:00007480       ?detach_helper_grow@?$QList@VQString@@@@AAEPAUNode@1@HH@Z 00408480 f i bncs_csi.obj
 0001:00007600       ?deviceStatusFindOrCreate@bncs_csi@@AAEAAVdeviceStatus@@K@Z 00408600 f   bncs_csi.obj
 0001:00007700       ?doAbout@bncs_csi@@AAEXXZ  00408700 f   bncs_csi.obj
 0001:00007980       ?doFlushCache@bncs_csi@@AAEXXZ 00408980 f   bncs_csi.obj
 0001:00007990       ?doFlushDatabases@bncs_csi@@AAEXXZ 00408990 f   bncs_csi.obj
 0001:000079a0       ?doHelp@bncs_csi@@AAEXXZ   004089a0 f   bncs_csi.obj
 0001:00007b70       ?doOpenOSPL@bncs_csi@@AAEXXZ 00408b70 f   bncs_csi.obj
 0001:00007d30       ?doOpenOsplError@bncs_csi@@AAEXXZ 00408d30 f   bncs_csi.obj
 0001:00007e30       ?doOpenOsplInfo@bncs_csi@@AAEXXZ 00408e30 f   bncs_csi.obj
 0001:00007f30       ?doOpenQoS@bncs_csi@@AAEXXZ 00408f30 f   bncs_csi.obj
 0001:000080f0       ?driverConnected@bncs_csi@@MAEXABVdriverIPC@@@Z 004090f0 f   bncs_csi.obj
 0001:00008390       ?driverDisconnected@bncs_csi@@MAEXABVdriverIPC@@_N@Z 00409390 f   bncs_csi.obj
 0001:00008630       ?driverObj@bncs_csi@@AAEAAVdriver@@K@Z 00409630 f   bncs_csi.obj
 0001:00008700       ?erase@?$_Tree@V?$_Tmap_traits@KVdeviceStatus@@U?$less@K@std@@V?$allocator@U?$pair@$$CBKVdeviceStatus@@@std@@@3@$0A@@std@@@std@@QAE?AV?$_Tree_iterator@V?$_Tree_val@U?$_Tree_simple_types@U?$pair@$$CBKVdeviceStatus@@@std@@@std@@@std@@@2@V?$_Tree_const_iterator@V?$_Tree_val@U?$_Tree_simple_types@U?$pair@$$CBKVdeviceStatus@@@std@@@std@@@std@@@2@0@Z 00409700 f i bncs_csi.obj
 0001:000087c0       ?erase@?$_Tree@V?$_Tmap_traits@KVdeviceStatus@@U?$less@K@std@@V?$allocator@U?$pair@$$CBKVdeviceStatus@@@std@@@3@$0A@@std@@@std@@QAE?AV?$_Tree_iterator@V?$_Tree_val@U?$_Tree_simple_types@U?$pair@$$CBKVdeviceStatus@@@std@@@std@@@std@@@2@V?$_Tree_const_iterator@V?$_Tree_val@U?$_Tree_simple_types@U?$pair@$$CBKVdeviceStatus@@@std@@@std@@@std@@@2@@Z 004097c0 f i bncs_csi.obj
 0001:00008a30       ?erase@?$_Tree@V?$_Tmap_traits@KVdriver@@U?$less@K@std@@V?$allocator@U?$pair@$$CBKVdriver@@@std@@@3@$0A@@std@@@std@@QAE?AV?$_Tree_iterator@V?$_Tree_val@U?$_Tree_simple_types@U?$pair@$$CBKVdriver@@@std@@@std@@@std@@@2@V?$_Tree_const_iterator@V?$_Tree_val@U?$_Tree_simple_types@U?$pair@$$CBKVdriver@@@std@@@std@@@std@@@2@0@Z 00409a30 f i bncs_csi.obj
 0001:00008ad0       ?erase@?$_Tree@V?$_Tmap_traits@KVdriver@@U?$less@K@std@@V?$allocator@U?$pair@$$CBKVdriver@@@std@@@3@$0A@@std@@@std@@QAE?AV?$_Tree_iterator@V?$_Tree_val@U?$_Tree_simple_types@U?$pair@$$CBKVdriver@@@std@@@std@@@std@@@2@V?$_Tree_const_iterator@V?$_Tree_val@U?$_Tree_simple_types@U?$pair@$$CBKVdriver@@@std@@@std@@@std@@@2@@Z 00409ad0 f i bncs_csi.obj
 0001:00008d40       ?erase@?$_Tree@V?$_Tset_traits@KU?$less@K@std@@V?$allocator@K@2@$0A@@std@@@std@@QAE?AV?$_Tree_const_iterator@V?$_Tree_val@U?$_Tree_simple_types@K@std@@@std@@@2@V32@0@Z 00409d40 f i bncs_csi.obj
 0001:00008d40       ?erase@?$_Tree@V?$_Tmap_traits@HVdeviceStatusOnHost@@U?$less@H@std@@V?$allocator@U?$pair@$$CBHVdeviceStatusOnHost@@@std@@@3@$0A@@std@@@std@@QAE?AV?$_Tree_iterator@V?$_Tree_val@U?$_Tree_simple_types@U?$pair@$$CBHVdeviceStatusOnHost@@@std@@@std@@@std@@@2@V?$_Tree_const_iterator@V?$_Tree_val@U?$_Tree_simple_types@U?$pair@$$CBHVdeviceStatusOnHost@@@std@@@std@@@std@@@2@0@Z 00409d40 f i bncs_csi.obj
 0001:00008d40       ?erase@?$_Tree@V?$_Tmap_traits@IVdriverIPC@@U?$less@I@std@@V?$allocator@U?$pair@$$CBIVdriverIPC@@@std@@@3@$0A@@std@@@std@@QAE?AV?$_Tree_iterator@V?$_Tree_val@U?$_Tree_simple_types@U?$pair@$$CBIVdriverIPC@@@std@@@std@@@std@@@2@V?$_Tree_const_iterator@V?$_Tree_val@U?$_Tree_simple_types@U?$pair@$$CBIVdriverIPC@@@std@@@std@@@std@@@2@0@Z 00409d40 f i messageWindow.obj
 0001:00008d40       ?erase@?$_Tree@V?$_Tmap_traits@KVworkstationStatus@@U?$less@K@std@@V?$allocator@U?$pair@$$CBKVworkstationStatus@@@std@@@3@$0A@@std@@@std@@QAE?AV?$_Tree_iterator@V?$_Tree_val@U?$_Tree_simple_types@U?$pair@$$CBKVworkstationStatus@@@std@@@std@@@std@@@2@V?$_Tree_const_iterator@V?$_Tree_val@U?$_Tree_simple_types@U?$pair@$$CBKVworkstationStatus@@@std@@@std@@@std@@@2@0@Z 00409d40 f i bncs_csi.obj
 0001:00008d40       ?erase@?$_Tree@V?$_Tset_traits@VclientIPC@@U?$less@VclientIPC@@@std@@V?$allocator@VclientIPC@@@3@$0A@@std@@@std@@QAE?AV?$_Tree_const_iterator@V?$_Tree_val@U?$_Tree_simple_types@VclientIPC@@@std@@@std@@@2@V32@0@Z 00409d40 f i messageWindow.obj
 0001:00008d40       ?erase@?$_Tree@V?$_Tmap_traits@HPAVdatabase@@U?$less@H@std@@V?$allocator@U?$pair@$$CBHPAVdatabase@@@std@@@3@$0A@@std@@@std@@QAE?AV?$_Tree_iterator@V?$_Tree_val@U?$_Tree_simple_types@U?$pair@$$CBHPAVdatabase@@@std@@@std@@@std@@@2@V?$_Tree_const_iterator@V?$_Tree_val@U?$_Tree_simple_types@U?$pair@$$CBHPAVdatabase@@@std@@@std@@@std@@@2@0@Z 00409d40 f i databaseMgr.obj
 0001:00008de0       ?erase@?$_Tree@V?$_Tset_traits@KU?$less@K@std@@V?$allocator@K@2@$0A@@std@@@std@@QAE?AV?$_Tree_const_iterator@V?$_Tree_val@U?$_Tree_simple_types@K@std@@@std@@@2@V32@@Z 00409de0 f i bncs_csi.obj
 0001:00008de0       ?erase@?$_Tree@V?$_Tset_traits@VclientIPC@@U?$less@VclientIPC@@@std@@V?$allocator@VclientIPC@@@3@$0A@@std@@@std@@QAE?AV?$_Tree_const_iterator@V?$_Tree_val@U?$_Tree_simple_types@VclientIPC@@@std@@@std@@@2@V32@@Z 00409de0 f i messageWindow.obj
 0001:00008de0       ?erase@?$_Tree@V?$_Tmap_traits@HPAVdatabase@@U?$less@H@std@@V?$allocator@U?$pair@$$CBHPAVdatabase@@@std@@@3@$0A@@std@@@std@@QAE?AV?$_Tree_iterator@V?$_Tree_val@U?$_Tree_simple_types@U?$pair@$$CBHPAVdatabase@@@std@@@std@@@std@@@2@V?$_Tree_const_iterator@V?$_Tree_val@U?$_Tree_simple_types@U?$pair@$$CBHPAVdatabase@@@std@@@std@@@std@@@2@@Z 00409de0 f i databaseMgr.obj
 0001:00008de0       ?erase@?$_Tree@V?$_Tmap_traits@IVdriverIPC@@U?$less@I@std@@V?$allocator@U?$pair@$$CBIVdriverIPC@@@std@@@3@$0A@@std@@@std@@QAE?AV?$_Tree_iterator@V?$_Tree_val@U?$_Tree_simple_types@U?$pair@$$CBIVdriverIPC@@@std@@@std@@@std@@@2@V?$_Tree_const_iterator@V?$_Tree_val@U?$_Tree_simple_types@U?$pair@$$CBIVdriverIPC@@@std@@@std@@@std@@@2@@Z 00409de0 f i messageWindow.obj
 0001:00008de0       ?erase@?$_Tree@V?$_Tmap_traits@HVdeviceStatusOnHost@@U?$less@H@std@@V?$allocator@U?$pair@$$CBHVdeviceStatusOnHost@@@std@@@3@$0A@@std@@@std@@QAE?AV?$_Tree_iterator@V?$_Tree_val@U?$_Tree_simple_types@U?$pair@$$CBHVdeviceStatusOnHost@@@std@@@std@@@std@@@2@V?$_Tree_const_iterator@V?$_Tree_val@U?$_Tree_simple_types@U?$pair@$$CBHVdeviceStatusOnHost@@@std@@@std@@@std@@@2@@Z 00409de0 f i bncs_csi.obj
 0001:00008de0       ?erase@?$_Tree@V?$_Tmap_traits@KVworkstationStatus@@U?$less@K@std@@V?$allocator@U?$pair@$$CBKVworkstationStatus@@@std@@@3@$0A@@std@@@std@@QAE?AV?$_Tree_iterator@V?$_Tree_val@U?$_Tree_simple_types@U?$pair@$$CBKVworkstationStatus@@@std@@@std@@@std@@@2@V?$_Tree_const_iterator@V?$_Tree_val@U?$_Tree_simple_types@U?$pair@$$CBKVworkstationStatus@@@std@@@std@@@std@@@2@@Z 00409de0 f i bncs_csi.obj
 0001:00009050       ?heartbeatTimeout@bncs_csi@@AAEXXZ 0040a050 f   bncs_csi.obj
 0001:00009220       ?isTxRx@bncs_csi@@AAE_NK@Z 0040a220 f   bncs_csi.obj
 0001:00009290       ?mwDeviceMessage@bncs_csi@@EAEXIIABVQString@@III@Z 0040a290 f   bncs_csi.obj
 0001:00009470       ?mwDeviceResponse@bncs_csi@@EAEXIIABVQString@@III@Z 0040a470 f   bncs_csi.obj
 0001:00009650       ?mwGetDevTxRxMode@bncs_csi@@EAEII@Z 0040a650 f   bncs_csi.obj
 0001:00009700       ?mwGpiLock@bncs_csi@@EAEXIIIII@Z 0040a700 f   bncs_csi.obj
 0001:000097a0       ?mwGpiPoll@bncs_csi@@EAEXIIII@Z 0040a7a0 f   bncs_csi.obj
 0001:00009830       ?mwGpiRevertive@bncs_csi@@EAEXIIII@Z 0040a830 f   bncs_csi.obj
 0001:000098e0       ?mwGpiSwitch@bncs_csi@@EAEXIIII@Z 0040a8e0 f   bncs_csi.obj
 0001:00009980       ?mwInfoLock@bncs_csi@@EAEXIIIII@Z 0040a980 f   bncs_csi.obj
 0001:00009a20       ?mwInfoPoll@bncs_csi@@EAEXIIII@Z 0040aa20 f   bncs_csi.obj
 0001:00009b30       ?mwInfoRevertive@bncs_csi@@EAEXIIABVQString@@I@Z 0040ab30 f   bncs_csi.obj
 0001:00009c30       ?mwInfoWrite@bncs_csi@@EAEXIIABVQString@@I@Z 0040ac30 f   bncs_csi.obj
 0001:00009d20       ?mwRouterCrosspoint@bncs_csi@@EAEXIIIABVQString@@I@Z 0040ad20 f   bncs_csi.obj
 0001:00009e10       ?mwRouterDatabase@bncs_csi@@EAEXIIIABVQString@@_NI@Z 0040ae10 f   bncs_csi.obj
 0001:00009f00       ?mwRouterLock@bncs_csi@@EAEXIIIII@Z 0040af00 f   bncs_csi.obj
 0001:00009fa0       ?mwRouterModify@bncs_csi@@EAEXIIIABVQString@@_NIPAUHWND__@@@Z 0040afa0 f   bncs_csi.obj
 0001:0000a0a0       ?mwRouterPoll@bncs_csi@@EAEXIIII@Z 0040b0a0 f   bncs_csi.obj
 0001:0000a130       ?mwRouterRevertive@bncs_csi@@EAEXIIII@Z 0040b130 f   bncs_csi.obj
 0001:0000a1e0       ?mwSetDevTxRxMode@bncs_csi@@EAEXII@Z 0040b1e0 f   bncs_csi.obj
 0001:0000a4e0       ?mwSetRedundancyMaster@bncs_csi@@EAEIII@Z 0040b4e0 f   bncs_csi.obj
 0001:0000a5c0       ?netWsStatusMsg@bncs_csi@@EAEXK_K00@Z 0040b5c0 f   bncs_csi.obj
 0001:0000a6c0       ?node_copy@?$QList@PAVQTreeWidgetItem@@@@AAEXPAUNode@1@00@Z 0040b6c0 f i bncs_csi.obj
 0001:0000a6f0       ?node_copy@?$QList@VQString@@@@AAEXPAUNode@1@00@Z 0040b6f0 f i bncs_csi.obj
 0001:0000a730       ?node_destruct@?$QList@VQString@@@@AAEXPAUNode@1@0@Z 0040b730 f i bncs_csi.obj
 0001:0000a760       ?processNameFromWindowHandle@bncs_csi@@AAE?AVQString@@PAUHWND__@@@Z 0040b760 f   bncs_csi.obj
 0001:0000a970       ?receive_bncs_legacyMessage@bncs_csi@@MAEXPAVIbncs_legacyMessageCommand@@ABVbncs_legacyMessage@@@Z 0040b970 f   bncs_csi.obj
 0001:0000ae60       ?receive_bncs_netStatusMessage@bncs_csi@@MAEXPAVIbncs_netStatusMessageCommand@@ABVbncs_netStatusMessage@@@Z 0040be60 f   bncs_csi.obj
 0001:0000b060       ?receive_bncs_redundancyMessage@bncs_csi@@MAEXPAVIbncs_redundancyMessageCommand@@ABVbncs_redundancyMessage@@@Z 0040c060 f   bncs_csi.obj
 0001:0000b2a0       ?reconcileTxRxStates@bncs_csi@@AAEXI@Z 0040c2a0 f   bncs_csi.obj
 0001:0000b510       ?removeDriverFromUI@bncs_csi@@AAEXI@Z 0040c510 f   bncs_csi.obj
 0001:0000b630       ?retranslateUi@Ui_bncs_csiClass@@QAEXPAVQMainWindow@@@Z 0040c630 f i bncs_csi.obj
 0001:0000c150       ?sendDeviceStatus@bncs_csi@@AAEXXZ 0040d150 f   bncs_csi.obj
 0001:0000c400       ?sendDeviceStatusRevertive@bncs_csi@@AAEXABVdeviceStatus@@@Z 0040d400 f   bncs_csi.obj
 0001:0000c4f0       ?setDeviceListUi@bncs_csi@@AAEXKHABVQString@@@Z 0040d4f0 f   bncs_csi.obj
 0001:0000c690       ?setDriverFlag@bncs_csi@@AAE_NKI@Z 0040d690 f   bncs_csi.obj
 0001:0000c710       ?setupUi@Ui_bncs_csiClass@@QAEXPAVQMainWindow@@@Z 0040d710 f i bncs_csi.obj
 0001:0000e250       ?statusTimeout@bncs_csi@@AAEXXZ 0040f250 f   bncs_csi.obj
 0001:0000e3d0       ?timerEvent@bncs_csi@@MAEXPAVQTimerEvent@@@Z 0040f3d0 f   bncs_csi.obj
 0001:0000e4a0       ?updateUI@bncs_csi@@AAEXXZ 0040f4a0 f   bncs_csi.obj
 0001:0000e880       ??$_Buynode@ABI@?$_List_buy@IV?$allocator@I@std@@@std@@QAEPAU?$_List_node@IPAX@1@PAU21@0ABI@Z 0040f880 f i bncs_csi.obj
 0001:0000e880       ??$_Buynode@I@?$_List_buy@IV?$allocator@I@std@@@std@@QAEPAU?$_List_node@IPAX@1@PAU21@0$$QAI@Z 0040f880 f i clientsRegistration.obj
 0001:0000e880       ??$_Buynode@ABQAVsingleReg@@@?$_List_buy@PAVsingleReg@@V?$allocator@PAVsingleReg@@@std@@@std@@QAEPAU?$_List_node@PAVsingleReg@@PAX@1@PAU21@0ABQAVsingleReg@@@Z 0040f880 f i clientsRegistration.obj
 0001:0000e8a0       ??$_Buynode@VclientIPC@@@?$_List_buy@VclientIPC@@V?$allocator@VclientIPC@@@std@@@std@@QAEPAU?$_List_node@VclientIPC@@PAX@1@PAU21@0$$QAVclientIPC@@@Z 0040f8a0 f i clientsRegistration.obj
 0001:0000e8d0       ??0clientsRegistration@@QAE@XZ 0040f8d0 f   clientsRegistration.obj
 0001:0000e910       ??1clientsRegistration@@UAE@XZ 0040f910 f   clientsRegistration.obj
 0001:0000e9d0       ??_GclientsRegistration@@UAEPAXI@Z 0040f9d0 f i clientsRegistration.obj
 0001:0000e9d0       ??_EclientsRegistration@@UAEPAXI@Z 0040f9d0 f i clientsRegistration.obj
 0001:0000ea00       ?_Buynode0@?$_List_alloc@$0A@U?$_List_base_types@VclientIPC@@V?$allocator@VclientIPC@@@std@@@std@@@std@@QAEPAU?$_List_node@VclientIPC@@PAX@2@PAU32@0@Z 0040fa00 f i clientsRegistration.obj
 0001:0000ea40       ?addRegistration@clientsRegistration@@QAEXVclientIPC@@III_N@Z 0040fa40 f   clientsRegistration.obj
 0001:0000eaa0       ?deleteAllRegistrations@clientsRegistration@@QAEXVclientIPC@@I@Z 0040faa0 f   clientsRegistration.obj
 0001:0000eb30       ?deleteRegistration@clientsRegistration@@QAEXVclientIPC@@III@Z 0040fb30 f   clientsRegistration.obj
 0001:0000ebe0       ?getClientList@clientsRegistration@@QAEXAAV?$list@VclientIPC@@V?$allocator@VclientIPC@@@std@@@std@@@Z 0040fbe0 f   clientsRegistration.obj
 0001:0000ec70       ?getClientList@clientsRegistration@@QAEXIAAV?$list@VclientIPC@@V?$allocator@VclientIPC@@@std@@@std@@@Z 0040fc70 f   clientsRegistration.obj
 0001:0000ed10       ?getClientList@clientsRegistration@@QAEXIIAAV?$list@VclientIPC@@V?$allocator@VclientIPC@@@std@@@std@@@Z 0040fd10 f   clientsRegistration.obj
 0001:0000edc0       ?getRegForClient@clientsRegistration@@QAEXVclientIPC@@AAV?$list@IV?$allocator@I@std@@@std@@@Z 0040fdc0 f   clientsRegistration.obj
 0001:0000ee60       ?getRegObject@clientsRegistration@@AAEPAVsingleReg@@VclientIPC@@I_N@Z 0040fe60 f   clientsRegistration.obj
 0001:0000ef80       ??$_Buynode@ABVdeviceStatusOnHost@@@?$_List_buy@VdeviceStatusOnHost@@V?$allocator@VdeviceStatusOnHost@@@std@@@std@@QAEPAU?$_List_node@VdeviceStatusOnHost@@PAX@1@PAU21@0ABVdeviceStatusOnHost@@@Z 0040ff80 f i deviceStatus.obj
 0001:0000efb0       ??$_Buynode@U?$pair@HVdeviceStatusOnHost@@@std@@@?$_Tree_buy@U?$pair@$$CBHVdeviceStatusOnHost@@@std@@V?$allocator@U?$pair@$$CBHVdeviceStatusOnHost@@@std@@@2@@std@@QAEPAU?$_Tree_node@U?$pair@$$CBHVdeviceStatusOnHost@@@std@@PAX@1@$$QAU?$pair@HVdeviceStatusOnHost@@@1@@Z 0040ffb0 f i deviceStatus.obj
 0001:0000eff0       ??$_Insert_at@AAU?$pair@$$CBHVdeviceStatusOnHost@@@std@@PAU?$_Tree_node@U?$pair@$$CBHVdeviceStatusOnHost@@@std@@PAX@2@@?$_Tree@V?$_Tmap_traits@HVdeviceStatusOnHost@@U?$less@H@std@@V?$allocator@U?$pair@$$CBHVdeviceStatusOnHost@@@std@@@3@$0A@@std@@@std@@IAE?AV?$_Tree_iterator@V?$_Tree_val@U?$_Tree_simple_types@U?$pair@$$CBHVdeviceStatusOnHost@@@std@@@std@@@std@@@1@_NPAU?$_Tree_node@U?$pair@$$CBHVdeviceStatusOnHost@@@std@@PAX@1@AAU?$pair@$$CBHVdeviceStatusOnHost@@@1@1@Z 0040fff0 f i deviceStatus.obj
 0001:0000f200       ??$_Insert_nohint@AAU?$pair@$$CBHVdeviceStatusOnHost@@@std@@PAU?$_Tree_node@U?$pair@$$CBHVdeviceStatusOnHost@@@std@@PAX@2@@?$_Tree@V?$_Tmap_traits@HVdeviceStatusOnHost@@U?$less@H@std@@V?$allocator@U?$pair@$$CBHVdeviceStatusOnHost@@@std@@@3@$0A@@std@@@std@@IAE?AU?$pair@V?$_Tree_iterator@V?$_Tree_val@U?$_Tree_simple_types@U?$pair@$$CBHVdeviceStatusOnHost@@@std@@@std@@@std@@@std@@_N@1@_NAAU?$pair@$$CBHVdeviceStatusOnHost@@@1@PAU?$_Tree_node@U?$pair@$$CBHVdeviceStatusOnHost@@@std@@PAX@1@@Z 00410200 f i deviceStatus.obj
 0001:0000f320       ??0deviceStatus@@QAE@H@Z   00410320 f   deviceStatus.obj
 0001:0000f360       ??1deviceStatus@@UAE@XZ    00410360 f   deviceStatus.obj
 0001:0000f390       ??F?$_Tree_unchecked_const_iterator@V?$_Tree_val@U?$_Tree_simple_types@U?$pair@$$CBHVdeviceStatusOnHost@@@std@@@std@@@std@@U_Iterator_base0@2@@std@@QAEAAV01@XZ 00410390 f i deviceStatus.obj
 0001:0000f390       ??F?$_Tree_unchecked_const_iterator@V?$_Tree_val@U?$_Tree_simple_types@U?$pair@$$CBKVdriver@@@std@@@std@@@std@@U_Iterator_base0@2@@std@@QAEAAV01@XZ 00410390 f i bncs_csi.obj
 0001:0000f390       ??F?$_Tree_unchecked_const_iterator@V?$_Tree_val@U?$_Tree_simple_types@U?$pair@$$CBHV?$basic_string@DU?$char_traits@D@std@@V?$allocator@D@2@@std@@@std@@@std@@@std@@U_Iterator_base0@2@@std@@QAEAAV01@XZ 00410390 f i database.obj
 0001:0000f390       ??F?$_Tree_unchecked_const_iterator@V?$_Tree_val@U?$_Tree_simple_types@U?$pair@$$CBKVdeviceStatus@@@std@@@std@@@std@@U_Iterator_base0@2@@std@@QAEAAV01@XZ 00410390 f i bncs_csi.obj
 0001:0000f390       ??F?$_Tree_unchecked_const_iterator@V?$_Tree_val@U?$_Tree_simple_types@VclientIPC@@@std@@@std@@U_Iterator_base0@2@@std@@QAEAAV01@XZ 00410390 f i messageWindow.obj
 0001:0000f390       ??F?$_Tree_unchecked_const_iterator@V?$_Tree_val@U?$_Tree_simple_types@U?$pair@$$CBKVworkstationStatus@@@std@@@std@@@std@@U_Iterator_base0@2@@std@@QAEAAV01@XZ 00410390 f i bncs_csi.obj
 0001:0000f390       ??F?$_Tree_unchecked_const_iterator@V?$_Tree_val@U?$_Tree_simple_types@U?$pair@$$CBIVdriverIPC@@@std@@@std@@@std@@U_Iterator_base0@2@@std@@QAEAAV01@XZ 00410390 f i messageWindow.obj
 0001:0000f390       ??F?$_Tree_unchecked_const_iterator@V?$_Tree_val@U?$_Tree_simple_types@K@std@@@std@@U_Iterator_base0@2@@std@@QAEAAV01@XZ 00410390 f i bncs_csi.obj
 0001:0000f390       ??F?$_Tree_unchecked_const_iterator@V?$_Tree_val@U?$_Tree_simple_types@U?$pair@$$CBHPAVdatabase@@@std@@@std@@@std@@U_Iterator_base0@2@@std@@QAEAAV01@XZ 00410390 f i databaseMgr.obj
 0001:0000f3f0       ?decrementTimeout@deviceStatus@@QAE_NH@Z 004103f0 f   deviceStatus.obj
 0001:0000f480       ?device@deviceStatus@@QBEHXZ 00410480 f   deviceStatus.obj
 0001:0000f490       ?deviceUpdate@deviceStatus@@QAE_NHHH@Z 00410490 f   deviceStatus.obj
 0001:0000f5d0       ?hosts@deviceStatus@@QBEHXZ 004105d0 f   deviceStatus.obj
 0001:0000f5e0       ?status@deviceStatus@@QBEXAAV?$list@VdeviceStatusOnHost@@V?$allocator@VdeviceStatusOnHost@@@std@@@std@@@Z 004105e0 f   deviceStatus.obj
 0001:0000f690       ?domainFromOspl@@YAHH@Z    00410690 f   domainFromOspl.obj
 0001:0000f940       ??0initializer@?A0x81f7e962@@QAE@XZ 00410940 f i qrc_bncs_csi.obj
 0001:0000f950       ?metaObject@bncs_csi@@UBEPBUQMetaObject@@XZ 00410950 f   moc_bncs_csi.obj
 0001:0000f970       ?qt_metacall@bncs_csi@@UAEHW4Call@QMetaObject@@HPAPAX@Z 00410970 f   moc_bncs_csi.obj
 0001:0000f9e0       ?qt_metacast@bncs_csi@@UAEPAXPBD@Z 004109e0 f   moc_bncs_csi.obj
 0001:0000fb40       ?qt_static_metacall@bncs_csi@@CAXPAVQObject@@W4Call@QMetaObject@@HPAPAX@Z 00410b40 f   moc_bncs_csi.obj
 0001:0000fc70       ?sigReconcileTxRxStates@bncs_csi@@QAEXI@Z 00410c70 f   moc_bncs_csi.obj
 0001:0000fca0       ?sigRemoveDriverFromUI@bncs_csi@@QAEXI@Z 00410ca0 f   moc_bncs_csi.obj
 0001:0000fcd0       ?log@messageWindow@@QAEXABVQString@@@Z 00410cd0 f   moc_messageWindow.obj
 0001:0000fd00       ?logError@messageWindow@@QAEXABVQString@@@Z 00410d00 f   moc_messageWindow.obj
 0001:0000fd30       ?metaObject@messageWindow@@UBEPBUQMetaObject@@XZ 00410d30 f   moc_messageWindow.obj
 0001:0000fd50       ?qt_metacall@messageWindow@@UAEHW4Call@QMetaObject@@HPAPAX@Z 00410d50 f   moc_messageWindow.obj
 0001:0000fdc0       ?qt_metacast@messageWindow@@UAEPAXPBD@Z 00410dc0 f   moc_messageWindow.obj
 0001:0000fe20       ?qt_static_metacall@messageWindow@@CAXPAVQObject@@W4Call@QMetaObject@@HPAPAX@Z 00410e20 f   moc_messageWindow.obj
 0001:0000feb0       _main                      00410eb0 f   main.obj
 0001:00010120       ??$_Buynode@AAU?$pair@$$CBIVdriverIPC@@@std@@@?$_Tree_buy@U?$pair@$$CBIVdriverIPC@@@std@@V?$allocator@U?$pair@$$CBIVdriverIPC@@@std@@@2@@std@@QAEPAU?$_Tree_node@U?$pair@$$CBIVdriverIPC@@@std@@PAX@1@AAU?$pair@$$CBIVdriverIPC@@@1@@Z 00411120 f i messageWindow.obj
 0001:00010150       ??$_Buynode@AAVclientIPC@@@?$_Tree_buy@VclientIPC@@V?$allocator@VclientIPC@@@std@@@std@@QAEPAU?$_Tree_node@VclientIPC@@PAX@1@AAVclientIPC@@@Z 00411150 f i messageWindow.obj
 0001:00010150       ??$_Buynode@AAU?$pair@$$CBHVdeviceStatusOnHost@@@std@@@?$_Tree_buy@U?$pair@$$CBHVdeviceStatusOnHost@@@std@@V?$allocator@U?$pair@$$CBHVdeviceStatusOnHost@@@std@@@2@@std@@QAEPAU?$_Tree_node@U?$pair@$$CBHVdeviceStatusOnHost@@@std@@PAX@1@AAU?$pair@$$CBHVdeviceStatusOnHost@@@1@@Z 00411150 f i bncs_csi.obj
 0001:00010150       ??$_Buynode@ABVclientIPC@@@?$_Tree_buy@VclientIPC@@V?$allocator@VclientIPC@@@std@@@std@@QAEPAU?$_Tree_node@VclientIPC@@PAX@1@ABVclientIPC@@@Z 00411150 f i messageWindow.obj
 0001:00010180       ??$_Buynode@U?$pair@HVdriverIPC@@@std@@@?$_Tree_buy@U?$pair@$$CBIVdriverIPC@@@std@@V?$allocator@U?$pair@$$CBIVdriverIPC@@@std@@@2@@std@@QAEPAU?$_Tree_node@U?$pair@$$CBIVdriverIPC@@@std@@PAX@1@$$QAU?$pair@HVdriverIPC@@@1@@Z 00411180 f i messageWindow.obj
 0001:000101c0       ??$_Copy@U?$integral_constant@_N$0A@@std@@@?$_Tree@V?$_Tmap_traits@IVdriverIPC@@U?$less@I@std@@V?$allocator@U?$pair@$$CBIVdriverIPC@@@std@@@3@$0A@@std@@@std@@IAEXABV01@U?$integral_constant@_N$0A@@1@@Z 004111c0 f i messageWindow.obj
 0001:00010240       ??$_Copy_nodes@U?$integral_constant@_N$0A@@std@@@?$_Tree@V?$_Tmap_traits@IVdriverIPC@@U?$less@I@std@@V?$allocator@U?$pair@$$CBIVdriverIPC@@@std@@@3@$0A@@std@@@std@@IAEPAU?$_Tree_node@U?$pair@$$CBIVdriverIPC@@@std@@PAX@1@PAU21@0U?$integral_constant@_N$0A@@1@@Z 00411240 f i messageWindow.obj
 0001:00010300       ??$_Insert_at@AAU?$pair@$$CBIVdriverIPC@@@std@@PAU?$_Tree_node@U?$pair@$$CBIVdriverIPC@@@std@@PAX@2@@?$_Tree@V?$_Tmap_traits@IVdriverIPC@@U?$less@I@std@@V?$allocator@U?$pair@$$CBIVdriverIPC@@@std@@@3@$0A@@std@@@std@@IAE?AV?$_Tree_iterator@V?$_Tree_val@U?$_Tree_simple_types@U?$pair@$$CBIVdriverIPC@@@std@@@std@@@std@@@1@_NPAU?$_Tree_node@U?$pair@$$CBIVdriverIPC@@@std@@PAX@1@AAU?$pair@$$CBIVdriverIPC@@@1@1@Z 00411300 f i messageWindow.obj
 0001:00010510       ??$_Insert_at@ABVclientIPC@@U_Nil@std@@@?$_Tree@V?$_Tset_traits@VclientIPC@@U?$less@VclientIPC@@@std@@V?$allocator@VclientIPC@@@3@$0A@@std@@@std@@IAE?AV?$_Tree_const_iterator@V?$_Tree_val@U?$_Tree_simple_types@VclientIPC@@@std@@@std@@@1@_NPAU?$_Tree_node@VclientIPC@@PAX@1@ABVclientIPC@@U_Nil@1@@Z 00411510 f i messageWindow.obj
 0001:00010710       ??$_Insert_nohint@AAU?$pair@$$CBIVdriverIPC@@@std@@PAU?$_Tree_node@U?$pair@$$CBIVdriverIPC@@@std@@PAX@2@@?$_Tree@V?$_Tmap_traits@IVdriverIPC@@U?$less@I@std@@V?$allocator@U?$pair@$$CBIVdriverIPC@@@std@@@3@$0A@@std@@@std@@IAE?AU?$pair@V?$_Tree_iterator@V?$_Tree_val@U?$_Tree_simple_types@U?$pair@$$CBIVdriverIPC@@@std@@@std@@@std@@@std@@_N@1@_NAAU?$pair@$$CBIVdriverIPC@@@1@PAU?$_Tree_node@U?$pair@$$CBIVdriverIPC@@@std@@PAX@1@@Z 00411710 f i messageWindow.obj
 0001:00010830       ??$_Insert_nohint@ABVclientIPC@@U_Nil@std@@@?$_Tree@V?$_Tset_traits@VclientIPC@@U?$less@VclientIPC@@@std@@V?$allocator@VclientIPC@@@3@$0A@@std@@@std@@IAE?AU?$pair@V?$_Tree_const_iterator@V?$_Tree_val@U?$_Tree_simple_types@VclientIPC@@@std@@@std@@@std@@_N@1@_NABVclientIPC@@U_Nil@1@@Z 00411830 f i messageWindow.obj
 0001:00010940       ??0?$_Tree@V?$_Tmap_traits@IVdriverIPC@@U?$less@I@std@@V?$allocator@U?$pair@$$CBIVdriverIPC@@@std@@@3@$0A@@std@@@std@@QAE@ABV01@ABV?$allocator@U?$pair@$$CBIVdriverIPC@@@std@@@1@@Z 00411940 f i messageWindow.obj
 0001:000109e0       ??0messageWindow@@QAE@PAVmessageWindowCallback@@PAUHINSTANCE__@@PADH@Z 004119e0 f   messageWindow.obj
 0001:00010bb0       ??1?$_Tree_comp@$0A@V?$_Tset_traits@VclientIPC@@U?$less@VclientIPC@@@std@@V?$allocator@VclientIPC@@@3@$0A@@std@@@std@@QAE@XZ 00411bb0 f i messageWindow.obj
 0001:00010bb0       ??1?$_Tree_comp@$0A@V?$_Tmap_traits@HVdeviceStatusOnHost@@U?$less@H@std@@V?$allocator@U?$pair@$$CBHVdeviceStatusOnHost@@@std@@@3@$0A@@std@@@std@@QAE@XZ 00411bb0 f i bncs_csi.obj
 0001:00010bb0       ??1?$_Tree_comp@$0A@V?$_Tmap_traits@IVdriverIPC@@U?$less@I@std@@V?$allocator@U?$pair@$$CBIVdriverIPC@@@std@@@3@$0A@@std@@@std@@QAE@XZ 00411bb0 f i messageWindow.obj
 0001:00010bc0       ??1messageWindow@@UAE@XZ   00411bc0 f   messageWindow.obj
 0001:00010fe0       ??_GmessageWindow@@UAEPAXI@Z 00411fe0 f i messageWindow.obj
 0001:00010fe0       ??_EmessageWindow@@UAEPAXI@Z 00411fe0 f i messageWindow.obj
 0001:00011010       ?InitInstance@messageWindow@@AAEHPAUHINSTANCE__@@H@Z 00412010 f   messageWindow.obj
 0001:00011080       ?WndProc@@YGJPAUHWND__@@IIJ@Z 00412080 f   messageWindow.obj
 0001:000132c0       ?_Buyheadnode@?$_Tree_alloc@$0A@U?$_Tree_base_types@U?$pair@$$CBIVdriverIPC@@@std@@V?$allocator@U?$pair@$$CBIVdriverIPC@@@std@@@2@@std@@@std@@QAEPAU?$_Tree_node@U?$pair@$$CBIVdriverIPC@@@std@@PAX@2@XZ 004142c0 f i messageWindow.obj
 0001:000132f0       ?_Buynode0@?$_Tree_buy@U?$pair@$$CBIVdriverIPC@@@std@@V?$allocator@U?$pair@$$CBIVdriverIPC@@@std@@@2@@std@@QAEPAU?$_Tree_node@U?$pair@$$CBIVdriverIPC@@@std@@PAX@2@XZ 004142f0 f i messageWindow.obj
 0001:00013330       ?_Buynode0@?$_Tree_buy@U?$pair@$$CBHVdeviceStatusOnHost@@@std@@V?$allocator@U?$pair@$$CBHVdeviceStatusOnHost@@@std@@@2@@std@@QAEPAU?$_Tree_node@U?$pair@$$CBHVdeviceStatusOnHost@@@std@@PAX@2@XZ 00414330 f i bncs_csi.obj
 0001:00013330       ?_Buynode0@?$_Tree_buy@VclientIPC@@V?$allocator@VclientIPC@@@std@@@std@@QAEPAU?$_Tree_node@VclientIPC@@PAX@2@XZ 00414330 f i messageWindow.obj
 0001:00013370       ?_Lrotate@?$_Tree@V?$_Tset_traits@VclientIPC@@U?$less@VclientIPC@@@std@@V?$allocator@VclientIPC@@@3@$0A@@std@@@std@@IAEXPAU?$_Tree_node@VclientIPC@@PAX@2@@Z 00414370 f i messageWindow.obj
 0001:00013370       ?_Lrotate@?$_Tree@V?$_Tmap_traits@KVworkstationStatus@@U?$less@K@std@@V?$allocator@U?$pair@$$CBKVworkstationStatus@@@std@@@3@$0A@@std@@@std@@IAEXPAU?$_Tree_node@U?$pair@$$CBKVworkstationStatus@@@std@@PAX@2@@Z 00414370 f i bncs_csi.obj
 0001:00013370       ?_Lrotate@?$_Tree@V?$_Tmap_traits@KVdriver@@U?$less@K@std@@V?$allocator@U?$pair@$$CBKVdriver@@@std@@@3@$0A@@std@@@std@@IAEXPAU?$_Tree_node@U?$pair@$$CBKVdriver@@@std@@PAX@2@@Z 00414370 f i bncs_csi.obj
 0001:00013370       ?_Lrotate@?$_Tree@V?$_Tmap_traits@KVdeviceStatus@@U?$less@K@std@@V?$allocator@U?$pair@$$CBKVdeviceStatus@@@std@@@3@$0A@@std@@@std@@IAEXPAU?$_Tree_node@U?$pair@$$CBKVdeviceStatus@@@std@@PAX@2@@Z 00414370 f i bncs_csi.obj
 0001:00013370       ?_Lrotate@?$_Tree@V?$_Tmap_traits@IVdriverIPC@@U?$less@I@std@@V?$allocator@U?$pair@$$CBIVdriverIPC@@@std@@@3@$0A@@std@@@std@@IAEXPAU?$_Tree_node@U?$pair@$$CBIVdriverIPC@@@std@@PAX@2@@Z 00414370 f i messageWindow.obj
 0001:00013370       ?_Lrotate@?$_Tree@V?$_Tmap_traits@HV?$basic_string@DU?$char_traits@D@std@@V?$allocator@D@2@@std@@U?$less@H@2@V?$allocator@U?$pair@$$CBHV?$basic_string@DU?$char_traits@D@std@@V?$allocator@D@2@@std@@@std@@@2@$0A@@std@@@std@@IAEXPAU?$_Tree_node@U?$pair@$$CBHV?$basic_string@DU?$char_traits@D@std@@V?$allocator@D@2@@std@@@std@@PAX@2@@Z 00414370 f i database.obj
 0001:00013370       ?_Lrotate@?$_Tree@V?$_Tmap_traits@HVdeviceStatusOnHost@@U?$less@H@std@@V?$allocator@U?$pair@$$CBHVdeviceStatusOnHost@@@std@@@3@$0A@@std@@@std@@IAEXPAU?$_Tree_node@U?$pair@$$CBHVdeviceStatusOnHost@@@std@@PAX@2@@Z 00414370 f i bncs_csi.obj
 0001:00013370       ?_Lrotate@?$_Tree@V?$_Tset_traits@KU?$less@K@std@@V?$allocator@K@2@$0A@@std@@@std@@IAEXPAU?$_Tree_node@KPAX@2@@Z 00414370 f i bncs_csi.obj
 0001:00013370       ?_Lrotate@?$_Tree@V?$_Tmap_traits@HPAVdatabase@@U?$less@H@std@@V?$allocator@U?$pair@$$CBHPAVdatabase@@@std@@@3@$0A@@std@@@std@@IAEXPAU?$_Tree_node@U?$pair@$$CBHPAVdatabase@@@std@@PAX@2@@Z 00414370 f i databaseMgr.obj
 0001:000133d0       ?_Rrotate@?$_Tree@V?$_Tmap_traits@HPAVdatabase@@U?$less@H@std@@V?$allocator@U?$pair@$$CBHPAVdatabase@@@std@@@3@$0A@@std@@@std@@IAEXPAU?$_Tree_node@U?$pair@$$CBHPAVdatabase@@@std@@PAX@2@@Z 004143d0 f i databaseMgr.obj
 0001:000133d0       ?_Rrotate@?$_Tree@V?$_Tmap_traits@KVworkstationStatus@@U?$less@K@std@@V?$allocator@U?$pair@$$CBKVworkstationStatus@@@std@@@3@$0A@@std@@@std@@IAEXPAU?$_Tree_node@U?$pair@$$CBKVworkstationStatus@@@std@@PAX@2@@Z 004143d0 f i bncs_csi.obj
 0001:000133d0       ?_Rrotate@?$_Tree@V?$_Tmap_traits@HV?$basic_string@DU?$char_traits@D@std@@V?$allocator@D@2@@std@@U?$less@H@2@V?$allocator@U?$pair@$$CBHV?$basic_string@DU?$char_traits@D@std@@V?$allocator@D@2@@std@@@std@@@2@$0A@@std@@@std@@IAEXPAU?$_Tree_node@U?$pair@$$CBHV?$basic_string@DU?$char_traits@D@std@@V?$allocator@D@2@@std@@@std@@PAX@2@@Z 004143d0 f i database.obj
 0001:000133d0       ?_Rrotate@?$_Tree@V?$_Tset_traits@VclientIPC@@U?$less@VclientIPC@@@std@@V?$allocator@VclientIPC@@@3@$0A@@std@@@std@@IAEXPAU?$_Tree_node@VclientIPC@@PAX@2@@Z 004143d0 f i messageWindow.obj
 0001:000133d0       ?_Rrotate@?$_Tree@V?$_Tmap_traits@KVdriver@@U?$less@K@std@@V?$allocator@U?$pair@$$CBKVdriver@@@std@@@3@$0A@@std@@@std@@IAEXPAU?$_Tree_node@U?$pair@$$CBKVdriver@@@std@@PAX@2@@Z 004143d0 f i bncs_csi.obj
 0001:000133d0       ?_Rrotate@?$_Tree@V?$_Tmap_traits@HVdeviceStatusOnHost@@U?$less@H@std@@V?$allocator@U?$pair@$$CBHVdeviceStatusOnHost@@@std@@@3@$0A@@std@@@std@@IAEXPAU?$_Tree_node@U?$pair@$$CBHVdeviceStatusOnHost@@@std@@PAX@2@@Z 004143d0 f i bncs_csi.obj
 0001:000133d0       ?_Rrotate@?$_Tree@V?$_Tmap_traits@IVdriverIPC@@U?$less@I@std@@V?$allocator@U?$pair@$$CBIVdriverIPC@@@std@@@3@$0A@@std@@@std@@IAEXPAU?$_Tree_node@U?$pair@$$CBIVdriverIPC@@@std@@PAX@2@@Z 004143d0 f i messageWindow.obj
 0001:000133d0       ?_Rrotate@?$_Tree@V?$_Tset_traits@KU?$less@K@std@@V?$allocator@K@2@$0A@@std@@@std@@IAEXPAU?$_Tree_node@KPAX@2@@Z 004143d0 f i bncs_csi.obj
 0001:000133d0       ?_Rrotate@?$_Tree@V?$_Tmap_traits@KVdeviceStatus@@U?$less@K@std@@V?$allocator@U?$pair@$$CBKVdeviceStatus@@@std@@@3@$0A@@std@@@std@@IAEXPAU?$_Tree_node@U?$pair@$$CBKVdeviceStatus@@@std@@PAX@2@@Z 004143d0 f i bncs_csi.obj
 0001:00013430       ?addClient@messageWindow@@AAEXPAUHWND__@@W4messagingScheme@clientIPC@@@Z 00414430 f   messageWindow.obj
 0001:000134a0       ?cacheClear@messageWindow@@QAEXXZ 004144a0 f   messageWindow.obj
 0001:000134d0       ?checkClientAlive@messageWindow@@AAEXABVclientIPC@@@Z 004144d0 f   messageWindow.obj
 0001:00013620       ?checkDriverAlive@messageWindow@@AAEXABVdriverIPC@@@Z 00414620 f   messageWindow.obj
 0001:00013780       ?clientDeviceMessage@messageWindow@@QAEXIIABVQString@@III@Z 00414780 f   messageWindow.obj
 0001:00013990       ?clientGpiRevertive@messageWindow@@QAEXII_NI@Z 00414990 f   messageWindow.obj
 0001:00013b80       ?clientInfoRevertive@messageWindow@@QAEXIIABVQString@@I@Z 00414b80 f   messageWindow.obj
 0001:00013d70       ?clientRouterModify@messageWindow@@QAEXPAUHWND__@@IIIABVQString@@I@Z 00414d70 f   messageWindow.obj
 0001:00014170       ?clientRouterRevertive@messageWindow@@QAEXIIHI@Z 00415170 f   messageWindow.obj
 0001:000143b0       ?customEvent@messageWindow@@EAEXPAVQEvent@@@Z 004153b0 f   messageWindow.obj
 0001:00014670       ?databaseClear@messageWindow@@QAEXI@Z 00415670 f   messageWindow.obj
 0001:00014680       ?databasesLoaded@messageWindow@@QAEIXZ 00415680 f   messageWindow.obj
 0001:00014690       ?deleteClient@messageWindow@@AAEXPAUHWND__@@@Z 00415690 f   messageWindow.obj
 0001:000146e0       ?deleteDriverByDevice@messageWindow@@QAEXI@Z 004156e0 f   messageWindow.obj
 0001:000147c0       ?deleteDriverByHWND@messageWindow@@AAEXPAUHWND__@@_N@Z 004157c0 f   messageWindow.obj
 0001:000148a0       ?devicesCached@messageWindow@@QAEIXZ 004158a0 f   messageWindow.obj
 0001:000148d0       ?driverDeviceInUse@messageWindow@@QAEXII@Z 004158d0 f   messageWindow.obj
 0001:00014940       ?driverDeviceMessage@messageWindow@@QAEXIIABVQString@@III@Z 00415940 f   messageWindow.obj
 0001:00014ae0       ?driverGoTxRx@messageWindow@@QAEXI@Z 00415ae0 f   messageWindow.obj
 0001:00014b50       ?driverGpiLock@messageWindow@@QAEXIIIII@Z 00415b50 f   messageWindow.obj
 0001:00014cc0       ?driverGpiPoll@messageWindow@@QAEXIIII@Z 00415cc0 f   messageWindow.obj
 0001:00014e30       ?driverGpiSwitch@messageWindow@@QAEXIIII@Z 00415e30 f   messageWindow.obj
 0001:00014f80       ?driverInfoLock@messageWindow@@QAEXIIIII@Z 00415f80 f   messageWindow.obj
 0001:000150f0       ?driverInfoPoll@messageWindow@@QAEXIIII@Z 004160f0 f   messageWindow.obj
 0001:00015240       ?driverInfoWrite@messageWindow@@QAEXIIABVQString@@I@Z 00416240 f   messageWindow.obj
 0001:000153e0       ?driverInquireGoTxRx@messageWindow@@QAE_NI@Z 004163e0 f   messageWindow.obj
 0001:00015470       ?driverRequestGoRxOnly@messageWindow@@QAE_NII_N@Z 00416470 f   messageWindow.obj
 0001:00015520       ?driverRequestTxRx@messageWindow@@QAE_NI@Z 00416520 f   messageWindow.obj
 0001:000155b0       ?driverRouterCrosspoint@messageWindow@@QAEXIIIABVQString@@I@Z 004165b0 f   messageWindow.obj
 0001:00015750       ?driverRouterLock@messageWindow@@QAEXIIIII@Z 00416750 f   messageWindow.obj
 0001:000158c0       ?driverRouterModify@messageWindow@@QAEXPAUHWND__@@IIIABVQString@@I@Z 004168c0 f   messageWindow.obj
 0001:00015ae0       ?driverRouterPoll@messageWindow@@QAEXIIII@Z 00416ae0 f   messageWindow.obj
 0001:00015c50       ?find@?$_Tree@V?$_Tmap_traits@IVdriverIPC@@U?$less@I@std@@V?$allocator@U?$pair@$$CBIVdriverIPC@@@std@@@3@$0A@@std@@@std@@QAE?AV?$_Tree_iterator@V?$_Tree_val@U?$_Tree_simple_types@U?$pair@$$CBIVdriverIPC@@@std@@@std@@@std@@@2@ABI@Z 00416c50 f i messageWindow.obj
 0001:00015c50       ?find@?$_Tree@V?$_Tmap_traits@KVdriver@@U?$less@K@std@@V?$allocator@U?$pair@$$CBKVdriver@@@std@@@3@$0A@@std@@@std@@QAE?AV?$_Tree_iterator@V?$_Tree_val@U?$_Tree_simple_types@U?$pair@$$CBKVdriver@@@std@@@std@@@std@@@2@ABK@Z 00416c50 f i bncs_csi.obj
 0001:00015ca0       ?removeClient@messageWindow@@AAEXPAUHWND__@@@Z 00416ca0 f   messageWindow.obj
 0001:00015d60       ??0singleReg@@QAE@VclientIPC@@H@Z 00416d60 f   singleReg.obj
 0001:00015dc0       ??_EsingleReg@@UAEPAXI@Z   00416dc0 f i singleReg.obj
 0001:00015dc0       ??_GsingleReg@@UAEPAXI@Z   00416dc0 f i singleReg.obj
 0001:00015df0       ?addRegistration@singleReg@@QAEXHH@Z 00416df0 f   singleReg.obj
 0001:00015e60       ?client@singleReg@@QBE?AVclientIPC@@XZ 00416e60 f   singleReg.obj
 0001:00015e80       ?device@singleReg@@QBEHXZ  00416e80 f   singleReg.obj
 0001:00015e90       ?hasAnyRegistrations@singleReg@@QBE_NXZ 00416e90 f   singleReg.obj
 0001:00015eb0       ?isRegistered@singleReg@@QBE_NH@Z 00416eb0 f   singleReg.obj
 0001:00015f00       ?removeAllRegistration@singleReg@@QAEXXZ 00416f00 f   singleReg.obj
 0001:00015f20       ?removeRegistration@singleReg@@QAEXHH@Z 00416f20 f   singleReg.obj
 0001:00015f90       ??0bncs_disklog@@QAE@PBDW4filetype@0@@Z 00416f90 f   bncs_disklog:bncs_disklog.obj
 0001:00015fc0       ??1bncs_disklog@@UAE@XZ    00416fc0 f   bncs_disklog:bncs_disklog.obj
 0001:00015fd0       ??_Gbncs_disklog@@UAEPAXI@Z 00416fd0 f i bncs_disklog:bncs_disklog.obj
 0001:00015fd0       ??_Ebncs_disklog@@UAEPAXI@Z 00416fd0 f i bncs_disklog:bncs_disklog.obj
 0001:00016000       ?cleanup@bncs_disklog@@AAEXXZ 00417000 f   bncs_disklog:bncs_disklog.obj
 0001:00016020       ?createDirectory@bncs_disklog@@AAEXPBD@Z 00417020 f   bncs_disklog:bncs_disklog.obj
 0001:00016120       ?initVars@bncs_disklog@@AAEXXZ 00417120 f   bncs_disklog:bncs_disklog.obj
 0001:00016140       ?openLogFile@bncs_disklog@@AAEXPBDW4filetype@1@@Z 00417140 f   bncs_disklog:bncs_disklog.obj
 0001:00016370       ?write@bncs_disklog@@QAEXPBD00000@Z 00417370 f   bncs_disklog:bncs_disklog.obj
 0001:000165a0       ??0cBncsVersion@@QAE@PBD@Z 004175a0 f   BncsVersionInfo:cBncsVersion.obj
 0001:00016bc0       ??1cBncsVersion@@UAE@XZ    00417bc0 f   BncsVersionInfo:cBncsVersion.obj
 0001:00016ca0       ??_GcBncsVersion@@UAEPAXI@Z 00417ca0 f i BncsVersionInfo:cBncsVersion.obj
 0001:00016ca0       ??_EcBncsVersion@@UAEPAXI@Z 00417ca0 f i BncsVersionInfo:cBncsVersion.obj
 0001:00016cd0       _BNCS32ReceiveMessage      00417cd0 f   bncswm32:BncsWM32.obj
 0001:00016e20       _BNCS32SendMessage         00417e20 f   bncswm32:BncsWM32.obj
 0001:00016ef4       ?childEvent@QObject@@MAEXPAVQChildEvent@@@Z 00417ef4 f   Qt5Core:Qt5Core.dll
 0001:00016efa       ?connectNotify@QObject@@MAEXABVQMetaMethod@@@Z 00417efa f   Qt5Core:Qt5Core.dll
 0001:00016f00       ?customEvent@QObject@@MAEXPAVQEvent@@@Z 00417f00 f   Qt5Core:Qt5Core.dll
 0001:00016f06       ?disconnectNotify@QObject@@MAEXABVQMetaMethod@@@Z 00417f06 f   Qt5Core:Qt5Core.dll
 0001:00016f0c       ?event@QObject@@UAE_NPAVQEvent@@@Z 00417f0c f   Qt5Core:Qt5Core.dll
 0001:00016f12       ?eventFilter@QObject@@UAE_NPAV1@PAVQEvent@@@Z 00417f12 f   Qt5Core:Qt5Core.dll
 0001:00016f18       ?timerEvent@QObject@@MAEXPAVQTimerEvent@@@Z 00417f18 f   Qt5Core:Qt5Core.dll
 0001:00016f1e       ??MQTreeWidgetItem@@UBE_NABV0@@Z 00417f1e f   Qt5Widgets:Qt5Widgets.dll
 0001:00016f24       ?actionEvent@QMenu@@MAEXPAVQActionEvent@@@Z 00417f24 f   Qt5Widgets:Qt5Widgets.dll
 0001:00016f2a       ?actionEvent@QMenuBar@@MAEXPAVQActionEvent@@@Z 00417f2a f   Qt5Widgets:Qt5Widgets.dll
 0001:00016f30       ?actionEvent@QToolBar@@MAEXPAVQActionEvent@@@Z 00417f30 f   Qt5Widgets:Qt5Widgets.dll
 0001:00016f36       ?actionEvent@QWidget@@MAEXPAVQActionEvent@@@Z 00417f36 f   Qt5Widgets:Qt5Widgets.dll
 0001:00016f3c       ?addItem@QBoxLayout@@UAEXPAVQLayoutItem@@@Z 00417f3c f   Qt5Widgets:Qt5Widgets.dll
 0001:00016f42       ?changeEvent@QFrame@@MAEXPAVQEvent@@@Z 00417f42 f   Qt5Widgets:Qt5Widgets.dll
 0001:00016f48       ?changeEvent@QGroupBox@@MAEXPAVQEvent@@@Z 00417f48 f   Qt5Widgets:Qt5Widgets.dll
 0001:00016f4e       ?changeEvent@QLabel@@MAEXPAVQEvent@@@Z 00417f4e f   Qt5Widgets:Qt5Widgets.dll
 0001:00016f54       ?changeEvent@QMenu@@MAEXPAVQEvent@@@Z 00417f54 f   Qt5Widgets:Qt5Widgets.dll
 0001:00016f5a       ?changeEvent@QMenuBar@@MAEXPAVQEvent@@@Z 00417f5a f   Qt5Widgets:Qt5Widgets.dll
 0001:00016f60       ?changeEvent@QSplitter@@MAEXPAVQEvent@@@Z 00417f60 f   Qt5Widgets:Qt5Widgets.dll
 0001:00016f66       ?changeEvent@QToolBar@@MAEXPAVQEvent@@@Z 00417f66 f   Qt5Widgets:Qt5Widgets.dll
 0001:00016f6c       ?changeEvent@QWidget@@MAEXPAVQEvent@@@Z 00417f6c f   Qt5Widgets:Qt5Widgets.dll
 0001:00016f72       ?childEvent@QGroupBox@@MAEXPAVQChildEvent@@@Z 00417f72 f   Qt5Widgets:Qt5Widgets.dll
 0001:00016f78       ?childEvent@QLayout@@MAEXPAVQChildEvent@@@Z 00417f78 f   Qt5Widgets:Qt5Widgets.dll
 0001:00016f7e       ?childEvent@QSplitter@@MAEXPAVQChildEvent@@@Z 00417f7e f   Qt5Widgets:Qt5Widgets.dll
 0001:00016f84       ?clone@QTreeWidgetItem@@UBEPAV1@XZ 00417f84 f   Qt5Widgets:Qt5Widgets.dll
 0001:00016f8a       ?closeEditor@QAbstractItemView@@MAEXPAVQWidget@@W4EndEditHint@QAbstractItemDelegate@@@Z 00417f8a f   Qt5Widgets:Qt5Widgets.dll
 0001:00016f90       ?closeEvent@QWidget@@MAEXPAVQCloseEvent@@@Z 00417f90 f   Qt5Widgets:Qt5Widgets.dll
 0001:00016f96       ?commitData@QAbstractItemView@@MAEXPAVQWidget@@@Z 00417f96 f   Qt5Widgets:Qt5Widgets.dll
 0001:00016f9c       ?contextMenuEvent@QAbstractScrollArea@@MAEXPAVQContextMenuEvent@@@Z 00417f9c f   Qt5Widgets:Qt5Widgets.dll
 0001:00016fa2       ?contextMenuEvent@QLabel@@MAEXPAVQContextMenuEvent@@@Z 00417fa2 f   Qt5Widgets:Qt5Widgets.dll
 0001:00016fa8       ?contextMenuEvent@QMainWindow@@MAEXPAVQContextMenuEvent@@@Z 00417fa8 f   Qt5Widgets:Qt5Widgets.dll
 0001:00016fae       ?contextMenuEvent@QWidget@@MAEXPAVQContextMenuEvent@@@Z 00417fae f   Qt5Widgets:Qt5Widgets.dll
 0001:00016fb4       ?controlTypes@QLayout@@UBE?AV?$QFlags@W4ControlType@QSizePolicy@@@@XZ 00417fb4 f   Qt5Widgets:Qt5Widgets.dll
 0001:00016fba       ?controlTypes@QLayoutItem@@UBE?AV?$QFlags@W4ControlType@QSizePolicy@@@@XZ 00417fba f   Qt5Widgets:Qt5Widgets.dll
 0001:00016fc0       ?count@QBoxLayout@@UBEHXZ  00417fc0 f   Qt5Widgets:Qt5Widgets.dll
 0001:00016fc6       ?createHandle@QSplitter@@MAEPAVQSplitterHandle@@XZ 00417fc6 f   Qt5Widgets:Qt5Widgets.dll
 0001:00016fcc       ?createPopupMenu@QMainWindow@@UAEPAVQMenu@@XZ 00417fcc f   Qt5Widgets:Qt5Widgets.dll
 0001:00016fd2       ?currentChanged@QTreeView@@MAEXABVQModelIndex@@0@Z 00417fd2 f   Qt5Widgets:Qt5Widgets.dll
 0001:00016fd8       ?data@QTreeWidgetItem@@UBE?AVQVariant@@HH@Z 00417fd8 f   Qt5Widgets:Qt5Widgets.dll
 0001:00016fde       ?dataChanged@QTreeView@@UAEXABVQModelIndex@@0ABV?$QVector@H@@@Z 00417fde f   Qt5Widgets:Qt5Widgets.dll
 0001:00016fe4       ?devType@QWidget@@UBEHXZ   00417fe4 f   Qt5Widgets:Qt5Widgets.dll
 0001:00016fea       ?doItemsLayout@QTreeView@@UAEXXZ 00417fea f   Qt5Widgets:Qt5Widgets.dll
 0001:00016ff0       ?dragEnterEvent@QAbstractItemView@@MAEXPAVQDragEnterEvent@@@Z 00417ff0 f   Qt5Widgets:Qt5Widgets.dll
 0001:00016ff6       ?dragEnterEvent@QWidget@@MAEXPAVQDragEnterEvent@@@Z 00417ff6 f   Qt5Widgets:Qt5Widgets.dll
 0001:00016ffe       ?dragLeaveEvent@QAbstractItemView@@MAEXPAVQDragLeaveEvent@@@Z 00417ffe f   Qt5Widgets:Qt5Widgets.dll
 0001:00017004       ?dragLeaveEvent@QWidget@@MAEXPAVQDragLeaveEvent@@@Z 00418004 f   Qt5Widgets:Qt5Widgets.dll
 0001:0001700a       ?dragMoveEvent@QTreeView@@MAEXPAVQDragMoveEvent@@@Z 0041800a f   Qt5Widgets:Qt5Widgets.dll
 0001:00017010       ?dragMoveEvent@QWidget@@MAEXPAVQDragMoveEvent@@@Z 00418010 f   Qt5Widgets:Qt5Widgets.dll
 0001:00017016       ?drawBranches@QTreeView@@MBEXPAVQPainter@@ABVQRect@@ABVQModelIndex@@@Z 00418016 f   Qt5Widgets:Qt5Widgets.dll
 0001:0001701c       ?drawRow@QTreeView@@MBEXPAVQPainter@@ABVQStyleOptionViewItem@@ABVQModelIndex@@@Z 0041801c f   Qt5Widgets:Qt5Widgets.dll
 0001:00017022       ?dropEvent@QTreeWidget@@MAEXPAVQDropEvent@@@Z 00418022 f   Qt5Widgets:Qt5Widgets.dll
 0001:00017028       ?dropEvent@QWidget@@MAEXPAVQDropEvent@@@Z 00418028 f   Qt5Widgets:Qt5Widgets.dll
 0001:0001702e       ?dropMimeData@QTreeWidget@@MAE_NPAVQTreeWidgetItem@@HPBVQMimeData@@W4DropAction@Qt@@@Z 0041802e f   Qt5Widgets:Qt5Widgets.dll
 0001:00017034       ?edit@QAbstractItemView@@MAE_NABVQModelIndex@@W4EditTrigger@1@PAVQEvent@@@Z 00418034 f   Qt5Widgets:Qt5Widgets.dll
 0001:0001703a       ?editorDestroyed@QAbstractItemView@@MAEXPAVQObject@@@Z 0041803a f   Qt5Widgets:Qt5Widgets.dll
 0001:00017040       ?enterEvent@QMenu@@MAEXPAVQEvent@@@Z 00418040 f   Qt5Widgets:Qt5Widgets.dll
 0001:00017046       ?enterEvent@QWidget@@MAEXPAVQEvent@@@Z 00418046 f   Qt5Widgets:Qt5Widgets.dll
 0001:0001704c       ?event@QAction@@MAE_NPAVQEvent@@@Z 0041804c f   Qt5Widgets:Qt5Widgets.dll
 0001:00017052       ?event@QGroupBox@@MAE_NPAVQEvent@@@Z 00418052 f   Qt5Widgets:Qt5Widgets.dll
 0001:00017058       ?event@QLabel@@MAE_NPAVQEvent@@@Z 00418058 f   Qt5Widgets:Qt5Widgets.dll
 0001:0001705e       ?event@QMainWindow@@MAE_NPAVQEvent@@@Z 0041805e f   Qt5Widgets:Qt5Widgets.dll
 0001:00017064       ?event@QMenu@@MAE_NPAVQEvent@@@Z 00418064 f   Qt5Widgets:Qt5Widgets.dll
 0001:0001706a       ?event@QMenuBar@@MAE_NPAVQEvent@@@Z 0041806a f   Qt5Widgets:Qt5Widgets.dll
 0001:00017070       ?event@QSplitter@@MAE_NPAVQEvent@@@Z 00418070 f   Qt5Widgets:Qt5Widgets.dll
 0001:00017076       ?event@QStatusBar@@MAE_NPAVQEvent@@@Z 00418076 f   Qt5Widgets:Qt5Widgets.dll
 0001:0001707c       ?event@QToolBar@@MAE_NPAVQEvent@@@Z 0041807c f   Qt5Widgets:Qt5Widgets.dll
 0001:00017082       ?event@QTreeWidget@@MAE_NPAVQEvent@@@Z 00418082 f   Qt5Widgets:Qt5Widgets.dll
 0001:00017088       ?event@QWidget@@MAE_NPAVQEvent@@@Z 00418088 f   Qt5Widgets:Qt5Widgets.dll
 0001:0001708e       ?eventFilter@QAbstractScrollArea@@MAE_NPAVQObject@@PAVQEvent@@@Z 0041808e f   Qt5Widgets:Qt5Widgets.dll
 0001:00017094       ?eventFilter@QMenuBar@@MAE_NPAVQObject@@PAVQEvent@@@Z 00418094 f   Qt5Widgets:Qt5Widgets.dll
 0001:0001709a       ?expandingDirections@QBoxLayout@@UBE?AV?$QFlags@W4Orientation@Qt@@@@XZ 0041809a f   Qt5Widgets:Qt5Widgets.dll
 0001:000170a0       ?expandingDirections@QSpacerItem@@UBE?AV?$QFlags@W4Orientation@Qt@@@@XZ 004180a0 f   Qt5Widgets:Qt5Widgets.dll
 0001:000170a6       ?focusInEvent@QAbstractItemView@@MAEXPAVQFocusEvent@@@Z 004180a6 f   Qt5Widgets:Qt5Widgets.dll
 0001:000170ac       ?focusInEvent@QGroupBox@@MAEXPAVQFocusEvent@@@Z 004180ac f   Qt5Widgets:Qt5Widgets.dll
 0001:000170b2       ?focusInEvent@QLabel@@MAEXPAVQFocusEvent@@@Z 004180b2 f   Qt5Widgets:Qt5Widgets.dll
 0001:000170b8       ?focusInEvent@QMenuBar@@MAEXPAVQFocusEvent@@@Z 004180b8 f   Qt5Widgets:Qt5Widgets.dll
 0001:000170be       ?focusInEvent@QWidget@@MAEXPAVQFocusEvent@@@Z 004180be f   Qt5Widgets:Qt5Widgets.dll
 0001:000170c4       ?focusNextPrevChild@QAbstractItemView@@MAE_N_N@Z 004180c4 f   Qt5Widgets:Qt5Widgets.dll
 0001:000170ca       ?focusNextPrevChild@QLabel@@MAE_N_N@Z 004180ca f   Qt5Widgets:Qt5Widgets.dll
 0001:000170d0       ?focusNextPrevChild@QMenu@@MAE_N_N@Z 004180d0 f   Qt5Widgets:Qt5Widgets.dll
 0001:000170d6       ?focusNextPrevChild@QWidget@@MAE_N_N@Z 004180d6 f   Qt5Widgets:Qt5Widgets.dll
 0001:000170dc       ?focusOutEvent@QAbstractItemView@@MAEXPAVQFocusEvent@@@Z 004180dc f   Qt5Widgets:Qt5Widgets.dll
 0001:000170e2       ?focusOutEvent@QLabel@@MAEXPAVQFocusEvent@@@Z 004180e2 f   Qt5Widgets:Qt5Widgets.dll
 0001:000170e8       ?focusOutEvent@QMenuBar@@MAEXPAVQFocusEvent@@@Z 004180e8 f   Qt5Widgets:Qt5Widgets.dll
 0001:000170ee       ?focusOutEvent@QWidget@@MAEXPAVQFocusEvent@@@Z 004180ee f   Qt5Widgets:Qt5Widgets.dll
 0001:000170f4       ?geometry@QLayout@@UBE?AVQRect@@XZ 004180f4 f   Qt5Widgets:Qt5Widgets.dll
 0001:000170fa       ?geometry@QSpacerItem@@UBE?AVQRect@@XZ 004180fa f   Qt5Widgets:Qt5Widgets.dll
 0001:00017100       ?hasHeightForWidth@QBoxLayout@@UBE_NXZ 00418100 f   Qt5Widgets:Qt5Widgets.dll
 0001:00017106       ?hasHeightForWidth@QLayoutItem@@UBE_NXZ 00418106 f   Qt5Widgets:Qt5Widgets.dll
 0001:0001710c       ?hasHeightForWidth@QWidget@@UBE_NXZ 0041810c f   Qt5Widgets:Qt5Widgets.dll
 0001:00017112       ?heightForWidth@QBoxLayout@@UBEHH@Z 00418112 f   Qt5Widgets:Qt5Widgets.dll
 0001:00017118       ?heightForWidth@QLabel@@UBEHH@Z 00418118 f   Qt5Widgets:Qt5Widgets.dll
 0001:0001711e       ?heightForWidth@QLayoutItem@@UBEHH@Z 0041811e f   Qt5Widgets:Qt5Widgets.dll
 0001:00017124       ?heightForWidth@QMenuBar@@UBEHH@Z 00418124 f   Qt5Widgets:Qt5Widgets.dll
 0001:0001712a       ?heightForWidth@QWidget@@UBEHH@Z 0041812a f   Qt5Widgets:Qt5Widgets.dll
 0001:00017130       ?hideEvent@QMenu@@MAEXPAVQHideEvent@@@Z 00418130 f   Qt5Widgets:Qt5Widgets.dll
 0001:00017136       ?hideEvent@QWidget@@MAEXPAVQHideEvent@@@Z 00418136 f   Qt5Widgets:Qt5Widgets.dll
 0001:0001713c       ?horizontalOffset@QTreeView@@MBEHXZ 0041813c f   Qt5Widgets:Qt5Widgets.dll
 0001:00017142       ?horizontalScrollbarAction@QTreeView@@MAEXH@Z 00418142 f   Qt5Widgets:Qt5Widgets.dll
 0001:00017148       ?horizontalScrollbarValueChanged@QAbstractItemView@@MAEXH@Z 00418148 f   Qt5Widgets:Qt5Widgets.dll
 0001:0001714e       ?indexAt@QTreeView@@UBE?AVQModelIndex@@ABVQPoint@@@Z 0041814e f   Qt5Widgets:Qt5Widgets.dll
 0001:00017154       ?indexOf@QLayout@@UBEHPAVQWidget@@@Z 00418154 f   Qt5Widgets:Qt5Widgets.dll
 0001:0001715a       ?initPainter@QWidget@@MBEXPAVQPainter@@@Z 0041815a f   Qt5Widgets:Qt5Widgets.dll
 0001:00017160       ?inputMethodEvent@QAbstractItemView@@MAEXPAVQInputMethodEvent@@@Z 00418160 f   Qt5Widgets:Qt5Widgets.dll
 0001:00017166       ?inputMethodEvent@QWidget@@MAEXPAVQInputMethodEvent@@@Z 00418166 f   Qt5Widgets:Qt5Widgets.dll
 0001:0001716c       ?inputMethodQuery@QAbstractItemView@@UBE?AVQVariant@@W4InputMethodQuery@Qt@@@Z 0041816c f   Qt5Widgets:Qt5Widgets.dll
 0001:00017172       ?inputMethodQuery@QWidget@@UBE?AVQVariant@@W4InputMethodQuery@Qt@@@Z 00418172 f   Qt5Widgets:Qt5Widgets.dll
 0001:00017178       ?invalidate@QBoxLayout@@UAEXXZ 00418178 f   Qt5Widgets:Qt5Widgets.dll
 0001:0001717e       ?invalidate@QLayoutItem@@UAEXXZ 0041817e f   Qt5Widgets:Qt5Widgets.dll
 0001:00017184       ?isEmpty@QLayout@@UBE_NXZ  00418184 f   Qt5Widgets:Qt5Widgets.dll
 0001:0001718a       ?isEmpty@QSpacerItem@@UBE_NXZ 0041818a f   Qt5Widgets:Qt5Widgets.dll
 0001:00017190       ?isIndexHidden@QTreeView@@MBE_NABVQModelIndex@@@Z 00418190 f   Qt5Widgets:Qt5Widgets.dll
 0001:00017196       ?itemAt@QBoxLayout@@UBEPAVQLayoutItem@@H@Z 00418196 f   Qt5Widgets:Qt5Widgets.dll
 0001:0001719c       ?keyPressEvent@QLabel@@MAEXPAVQKeyEvent@@@Z 0041819c f   Qt5Widgets:Qt5Widgets.dll
 0001:000171a2       ?keyPressEvent@QMenu@@MAEXPAVQKeyEvent@@@Z 004181a2 f   Qt5Widgets:Qt5Widgets.dll
 0001:000171a8       ?keyPressEvent@QMenuBar@@MAEXPAVQKeyEvent@@@Z 004181a8 f   Qt5Widgets:Qt5Widgets.dll
 0001:000171ae       ?keyPressEvent@QTreeView@@MAEXPAVQKeyEvent@@@Z 004181ae f   Qt5Widgets:Qt5Widgets.dll
 0001:000171b4       ?keyPressEvent@QWidget@@MAEXPAVQKeyEvent@@@Z 004181b4 f   Qt5Widgets:Qt5Widgets.dll
 0001:000171ba       ?keyReleaseEvent@QWidget@@MAEXPAVQKeyEvent@@@Z 004181ba f   Qt5Widgets:Qt5Widgets.dll
 0001:000171c0       ?keyboardSearch@QTreeView@@UAEXABVQString@@@Z 004181c0 f   Qt5Widgets:Qt5Widgets.dll
 0001:000171c6       ?layout@QLayout@@UAEPAV1@XZ 004181c6 f   Qt5Widgets:Qt5Widgets.dll
 0001:000171cc       ?layout@QLayoutItem@@UAEPAVQLayout@@XZ 004181cc f   Qt5Widgets:Qt5Widgets.dll
 0001:000171d2       ?leaveEvent@QMenu@@MAEXPAVQEvent@@@Z 004181d2 f   Qt5Widgets:Qt5Widgets.dll
 0001:000171d8       ?leaveEvent@QMenuBar@@MAEXPAVQEvent@@@Z 004181d8 f   Qt5Widgets:Qt5Widgets.dll
 0001:000171de       ?leaveEvent@QWidget@@MAEXPAVQEvent@@@Z 004181de f   Qt5Widgets:Qt5Widgets.dll
 0001:000171e4       ?maximumSize@QBoxLayout@@UBE?AVQSize@@XZ 004181e4 f   Qt5Widgets:Qt5Widgets.dll
 0001:000171ea       ?maximumSize@QSpacerItem@@UBE?AVQSize@@XZ 004181ea f   Qt5Widgets:Qt5Widgets.dll
 0001:000171f0       ?metaObject@QAction@@UBEPBUQMetaObject@@XZ 004181f0 f   Qt5Widgets:Qt5Widgets.dll
 0001:000171f6       ?metaObject@QGroupBox@@UBEPBUQMetaObject@@XZ 004181f6 f   Qt5Widgets:Qt5Widgets.dll
 0001:000171fc       ?metaObject@QHBoxLayout@@UBEPBUQMetaObject@@XZ 004181fc f   Qt5Widgets:Qt5Widgets.dll
 0001:00017202       ?metaObject@QLabel@@UBEPBUQMetaObject@@XZ 00418202 f   Qt5Widgets:Qt5Widgets.dll
 0001:00017208       ?metaObject@QMenu@@UBEPBUQMetaObject@@XZ 00418208 f   Qt5Widgets:Qt5Widgets.dll
 0001:0001720e       ?metaObject@QMenuBar@@UBEPBUQMetaObject@@XZ 0041820e f   Qt5Widgets:Qt5Widgets.dll
 0001:00017214       ?metaObject@QSplitter@@UBEPBUQMetaObject@@XZ 00418214 f   Qt5Widgets:Qt5Widgets.dll
 0001:0001721a       ?metaObject@QStatusBar@@UBEPBUQMetaObject@@XZ 0041821a f   Qt5Widgets:Qt5Widgets.dll
 0001:00017220       ?metaObject@QToolBar@@UBEPBUQMetaObject@@XZ 00418220 f   Qt5Widgets:Qt5Widgets.dll
 0001:00017226       ?metaObject@QTreeWidget@@UBEPBUQMetaObject@@XZ 00418226 f   Qt5Widgets:Qt5Widgets.dll
 0001:0001722c       ?metaObject@QVBoxLayout@@UBEPBUQMetaObject@@XZ 0041822c f   Qt5Widgets:Qt5Widgets.dll
 0001:00017232       ?metaObject@QWidget@@UBEPBUQMetaObject@@XZ 00418232 f   Qt5Widgets:Qt5Widgets.dll
 0001:00017238       ?metric@QWidget@@MBEHW4PaintDeviceMetric@QPaintDevice@@@Z 00418238 f   Qt5Widgets:Qt5Widgets.dll
 0001:0001723e       ?mimeData@QTreeWidget@@MBEPAVQMimeData@@V?$QList@PAVQTreeWidgetItem@@@@@Z 0041823e f   Qt5Widgets:Qt5Widgets.dll
 0001:00017244       ?mimeTypes@QTreeWidget@@MBE?AVQStringList@@XZ 00418244 f   Qt5Widgets:Qt5Widgets.dll
 0001:0001724a       ?minimumHeightForWidth@QBoxLayout@@UBEHH@Z 0041824a f   Qt5Widgets:Qt5Widgets.dll
 0001:00017250       ?minimumHeightForWidth@QLayoutItem@@UBEHH@Z 00418250 f   Qt5Widgets:Qt5Widgets.dll
 0001:00017256       ?minimumSize@QBoxLayout@@UBE?AVQSize@@XZ 00418256 f   Qt5Widgets:Qt5Widgets.dll
 0001:0001725c       ?minimumSize@QSpacerItem@@UBE?AVQSize@@XZ 0041825c f   Qt5Widgets:Qt5Widgets.dll
 0001:00017262       ?minimumSizeHint@QAbstractScrollArea@@UBE?AVQSize@@XZ 00418262 f   Qt5Widgets:Qt5Widgets.dll
 0001:00017268       ?minimumSizeHint@QGroupBox@@UBE?AVQSize@@XZ 00418268 f   Qt5Widgets:Qt5Widgets.dll
 0001:0001726e       ?minimumSizeHint@QLabel@@UBE?AVQSize@@XZ 0041826e f   Qt5Widgets:Qt5Widgets.dll
 0001:00017274       ?minimumSizeHint@QMenuBar@@UBE?AVQSize@@XZ 00418274 f   Qt5Widgets:Qt5Widgets.dll
 0001:0001727a       ?minimumSizeHint@QSplitter@@UBE?AVQSize@@XZ 0041827a f   Qt5Widgets:Qt5Widgets.dll
 0001:00017280       ?minimumSizeHint@QWidget@@UBE?AVQSize@@XZ 00418280 f   Qt5Widgets:Qt5Widgets.dll
 0001:00017286       ?mouseDoubleClickEvent@QTreeView@@MAEXPAVQMouseEvent@@@Z 00418286 f   Qt5Widgets:Qt5Widgets.dll
 0001:0001728c       ?mouseDoubleClickEvent@QWidget@@MAEXPAVQMouseEvent@@@Z 0041828c f   Qt5Widgets:Qt5Widgets.dll
 0001:00017292       ?mouseMoveEvent@QGroupBox@@MAEXPAVQMouseEvent@@@Z 00418292 f   Qt5Widgets:Qt5Widgets.dll
 0001:00017298       ?mouseMoveEvent@QLabel@@MAEXPAVQMouseEvent@@@Z 00418298 f   Qt5Widgets:Qt5Widgets.dll
 0001:0001729e       ?mouseMoveEvent@QMenu@@MAEXPAVQMouseEvent@@@Z 0041829e f   Qt5Widgets:Qt5Widgets.dll
 0001:000172a4       ?mouseMoveEvent@QMenuBar@@MAEXPAVQMouseEvent@@@Z 004182a4 f   Qt5Widgets:Qt5Widgets.dll
 0001:000172aa       ?mouseMoveEvent@QTreeView@@MAEXPAVQMouseEvent@@@Z 004182aa f   Qt5Widgets:Qt5Widgets.dll
 0001:000172b0       ?mouseMoveEvent@QWidget@@MAEXPAVQMouseEvent@@@Z 004182b0 f   Qt5Widgets:Qt5Widgets.dll
 0001:000172b6       ?mousePressEvent@QGroupBox@@MAEXPAVQMouseEvent@@@Z 004182b6 f   Qt5Widgets:Qt5Widgets.dll
 0001:000172bc       ?mousePressEvent@QLabel@@MAEXPAVQMouseEvent@@@Z 004182bc f   Qt5Widgets:Qt5Widgets.dll
 0001:000172c2       ?mousePressEvent@QMenu@@MAEXPAVQMouseEvent@@@Z 004182c2 f   Qt5Widgets:Qt5Widgets.dll
 0001:000172c8       ?mousePressEvent@QMenuBar@@MAEXPAVQMouseEvent@@@Z 004182c8 f   Qt5Widgets:Qt5Widgets.dll
 0001:000172ce       ?mousePressEvent@QTreeView@@MAEXPAVQMouseEvent@@@Z 004182ce f   Qt5Widgets:Qt5Widgets.dll
 0001:000172d4       ?mousePressEvent@QWidget@@MAEXPAVQMouseEvent@@@Z 004182d4 f   Qt5Widgets:Qt5Widgets.dll
 0001:000172da       ?mouseReleaseEvent@QGroupBox@@MAEXPAVQMouseEvent@@@Z 004182da f   Qt5Widgets:Qt5Widgets.dll
 0001:000172e0       ?mouseReleaseEvent@QLabel@@MAEXPAVQMouseEvent@@@Z 004182e0 f   Qt5Widgets:Qt5Widgets.dll
 0001:000172e6       ?mouseReleaseEvent@QMenu@@MAEXPAVQMouseEvent@@@Z 004182e6 f   Qt5Widgets:Qt5Widgets.dll
 0001:000172ec       ?mouseReleaseEvent@QMenuBar@@MAEXPAVQMouseEvent@@@Z 004182ec f   Qt5Widgets:Qt5Widgets.dll
 0001:000172f2       ?mouseReleaseEvent@QTreeView@@MAEXPAVQMouseEvent@@@Z 004182f2 f   Qt5Widgets:Qt5Widgets.dll
 0001:000172f8       ?mouseReleaseEvent@QWidget@@MAEXPAVQMouseEvent@@@Z 004182f8 f   Qt5Widgets:Qt5Widgets.dll
 0001:000172fe       ?moveCursor@QTreeView@@MAE?AVQModelIndex@@W4CursorAction@QAbstractItemView@@V?$QFlags@W4KeyboardModifier@Qt@@@@@Z 004182fe f   Qt5Widgets:Qt5Widgets.dll
 0001:00017304       ?moveEvent@QWidget@@MAEXPAVQMoveEvent@@@Z 00418304 f   Qt5Widgets:Qt5Widgets.dll
 0001:0001730a       ?nativeEvent@QWidget@@MAE_NABVQByteArray@@PAXPAJ@Z 0041830a f   Qt5Widgets:Qt5Widgets.dll
 0001:00017310       ?paintEngine@QWidget@@UBEPAVQPaintEngine@@XZ 00418310 f   Qt5Widgets:Qt5Widgets.dll
 0001:00017316       ?paintEvent@QFrame@@MAEXPAVQPaintEvent@@@Z 00418316 f   Qt5Widgets:Qt5Widgets.dll
 0001:0001731c       ?paintEvent@QGroupBox@@MAEXPAVQPaintEvent@@@Z 0041831c f   Qt5Widgets:Qt5Widgets.dll
 0001:00017322       ?paintEvent@QLabel@@MAEXPAVQPaintEvent@@@Z 00418322 f   Qt5Widgets:Qt5Widgets.dll
 0001:00017328       ?paintEvent@QMenu@@MAEXPAVQPaintEvent@@@Z 00418328 f   Qt5Widgets:Qt5Widgets.dll
 0001:0001732e       ?paintEvent@QMenuBar@@MAEXPAVQPaintEvent@@@Z 0041832e f   Qt5Widgets:Qt5Widgets.dll
 0001:00017334       ?paintEvent@QStatusBar@@MAEXPAVQPaintEvent@@@Z 00418334 f   Qt5Widgets:Qt5Widgets.dll
 0001:0001733a       ?paintEvent@QToolBar@@MAEXPAVQPaintEvent@@@Z 0041833a f   Qt5Widgets:Qt5Widgets.dll
 0001:00017340       ?paintEvent@QTreeView@@MAEXPAVQPaintEvent@@@Z 00418340 f   Qt5Widgets:Qt5Widgets.dll
 0001:00017346       ?paintEvent@QWidget@@MAEXPAVQPaintEvent@@@Z 00418346 f   Qt5Widgets:Qt5Widgets.dll
 0001:0001734c       ?qt_metacall@QAction@@UAEHW4Call@QMetaObject@@HPAPAX@Z 0041834c f   Qt5Widgets:Qt5Widgets.dll
 0001:00017352       ?qt_metacall@QGroupBox@@UAEHW4Call@QMetaObject@@HPAPAX@Z 00418352 f   Qt5Widgets:Qt5Widgets.dll
 0001:00017358       ?qt_metacall@QHBoxLayout@@UAEHW4Call@QMetaObject@@HPAPAX@Z 00418358 f   Qt5Widgets:Qt5Widgets.dll
 0001:0001735e       ?qt_metacall@QLabel@@UAEHW4Call@QMetaObject@@HPAPAX@Z 0041835e f   Qt5Widgets:Qt5Widgets.dll
 0001:00017364       ?qt_metacall@QMenu@@UAEHW4Call@QMetaObject@@HPAPAX@Z 00418364 f   Qt5Widgets:Qt5Widgets.dll
 0001:0001736a       ?qt_metacall@QMenuBar@@UAEHW4Call@QMetaObject@@HPAPAX@Z 0041836a f   Qt5Widgets:Qt5Widgets.dll
 0001:00017370       ?qt_metacall@QSplitter@@UAEHW4Call@QMetaObject@@HPAPAX@Z 00418370 f   Qt5Widgets:Qt5Widgets.dll
 0001:00017376       ?qt_metacall@QStatusBar@@UAEHW4Call@QMetaObject@@HPAPAX@Z 00418376 f   Qt5Widgets:Qt5Widgets.dll
 0001:0001737c       ?qt_metacall@QToolBar@@UAEHW4Call@QMetaObject@@HPAPAX@Z 0041837c f   Qt5Widgets:Qt5Widgets.dll
 0001:00017382       ?qt_metacall@QTreeWidget@@UAEHW4Call@QMetaObject@@HPAPAX@Z 00418382 f   Qt5Widgets:Qt5Widgets.dll
 0001:00017388       ?qt_metacall@QVBoxLayout@@UAEHW4Call@QMetaObject@@HPAPAX@Z 00418388 f   Qt5Widgets:Qt5Widgets.dll
 0001:0001738e       ?qt_metacall@QWidget@@UAEHW4Call@QMetaObject@@HPAPAX@Z 0041838e f   Qt5Widgets:Qt5Widgets.dll
 0001:00017394       ?qt_metacast@QAction@@UAEPAXPBD@Z 00418394 f   Qt5Widgets:Qt5Widgets.dll
 0001:0001739a       ?qt_metacast@QGroupBox@@UAEPAXPBD@Z 0041839a f   Qt5Widgets:Qt5Widgets.dll
 0001:000173a0       ?qt_metacast@QHBoxLayout@@UAEPAXPBD@Z 004183a0 f   Qt5Widgets:Qt5Widgets.dll
 0001:000173a6       ?qt_metacast@QLabel@@UAEPAXPBD@Z 004183a6 f   Qt5Widgets:Qt5Widgets.dll
 0001:000173ac       ?qt_metacast@QMenu@@UAEPAXPBD@Z 004183ac f   Qt5Widgets:Qt5Widgets.dll
 0001:000173b2       ?qt_metacast@QMenuBar@@UAEPAXPBD@Z 004183b2 f   Qt5Widgets:Qt5Widgets.dll
 0001:000173b8       ?qt_metacast@QSplitter@@UAEPAXPBD@Z 004183b8 f   Qt5Widgets:Qt5Widgets.dll
 0001:000173be       ?qt_metacast@QStatusBar@@UAEPAXPBD@Z 004183be f   Qt5Widgets:Qt5Widgets.dll
 0001:000173c4       ?qt_metacast@QToolBar@@UAEPAXPBD@Z 004183c4 f   Qt5Widgets:Qt5Widgets.dll
 0001:000173ca       ?qt_metacast@QTreeWidget@@UAEPAXPBD@Z 004183ca f   Qt5Widgets:Qt5Widgets.dll
 0001:000173d0       ?qt_metacast@QVBoxLayout@@UAEPAXPBD@Z 004183d0 f   Qt5Widgets:Qt5Widgets.dll
 0001:000173d6       ?qt_metacast@QWidget@@UAEPAXPBD@Z 004183d6 f   Qt5Widgets:Qt5Widgets.dll
 0001:000173dc       ?read@QTreeWidgetItem@@UAEXAAVQDataStream@@@Z 004183dc f   Qt5Widgets:Qt5Widgets.dll
 0001:000173e2       ?redirected@QWidget@@MBEPAVQPaintDevice@@PAVQPoint@@@Z 004183e2 f   Qt5Widgets:Qt5Widgets.dll
 0001:000173e8       ?reset@QTreeView@@UAEXXZ   004183e8 f   Qt5Widgets:Qt5Widgets.dll
 0001:000173ee       ?resizeEvent@QAbstractItemView@@MAEXPAVQResizeEvent@@@Z 004183ee f   Qt5Widgets:Qt5Widgets.dll
 0001:000173f4       ?resizeEvent@QGroupBox@@MAEXPAVQResizeEvent@@@Z 004183f4 f   Qt5Widgets:Qt5Widgets.dll
 0001:000173fa       ?resizeEvent@QMenuBar@@MAEXPAVQResizeEvent@@@Z 004183fa f   Qt5Widgets:Qt5Widgets.dll
 0001:00017400       ?resizeEvent@QSplitter@@MAEXPAVQResizeEvent@@@Z 00418400 f   Qt5Widgets:Qt5Widgets.dll
 0001:00017406       ?resizeEvent@QStatusBar@@MAEXPAVQResizeEvent@@@Z 00418406 f   Qt5Widgets:Qt5Widgets.dll
 0001:0001740c       ?resizeEvent@QWidget@@MAEXPAVQResizeEvent@@@Z 0041840c f   Qt5Widgets:Qt5Widgets.dll
 0001:00017412       ?rowsAboutToBeRemoved@QTreeView@@MAEXABVQModelIndex@@HH@Z 00418412 f   Qt5Widgets:Qt5Widgets.dll
 0001:00017418       ?rowsInserted@QTreeView@@MAEXABVQModelIndex@@HH@Z 00418418 f   Qt5Widgets:Qt5Widgets.dll
 0001:0001741e       ?scrollContentsBy@QTreeView@@MAEXHH@Z 0041841e f   Qt5Widgets:Qt5Widgets.dll
 0001:00017424       ?scrollTo@QTreeView@@UAEXABVQModelIndex@@W4ScrollHint@QAbstractItemView@@@Z 00418424 f   Qt5Widgets:Qt5Widgets.dll
 0001:0001742a       ?selectAll@QTreeView@@UAEXXZ 0041842a f   Qt5Widgets:Qt5Widgets.dll
 0001:00017430       ?selectedIndexes@QTreeView@@MBE?AV?$QList@VQModelIndex@@@@XZ 00418430 f   Qt5Widgets:Qt5Widgets.dll
 0001:00017436       ?selectionChanged@QTreeView@@MAEXABVQItemSelection@@0@Z 00418436 f   Qt5Widgets:Qt5Widgets.dll
 0001:0001743c       ?selectionCommand@QAbstractItemView@@MBE?AV?$QFlags@W4SelectionFlag@QItemSelectionModel@@@@ABVQModelIndex@@PBVQEvent@@@Z 0041843c f   Qt5Widgets:Qt5Widgets.dll
 0001:00017442       ?setData@QTreeWidgetItem@@UAEXHHABVQVariant@@@Z 00418442 f   Qt5Widgets:Qt5Widgets.dll
 0001:00017448       ?setGeometry@QBoxLayout@@UAEXABVQRect@@@Z 00418448 f   Qt5Widgets:Qt5Widgets.dll
 0001:0001744e       ?setGeometry@QSpacerItem@@UAEXABVQRect@@@Z 0041844e f   Qt5Widgets:Qt5Widgets.dll
 0001:00017454       ?setModel@QTreeWidget@@EAEXPAVQAbstractItemModel@@@Z 00418454 f   Qt5Widgets:Qt5Widgets.dll
 0001:0001745a       ?setRootIndex@QTreeView@@UAEXABVQModelIndex@@@Z 0041845a f   Qt5Widgets:Qt5Widgets.dll
 0001:00017460       ?setSelection@QTreeView@@MAEXABVQRect@@V?$QFlags@W4SelectionFlag@QItemSelectionModel@@@@@Z 00418460 f   Qt5Widgets:Qt5Widgets.dll
 0001:00017466       ?setSelectionModel@QTreeWidget@@UAEXPAVQItemSelectionModel@@@Z 00418466 f   Qt5Widgets:Qt5Widgets.dll
 0001:0001746c       ?setVisible@QMenuBar@@UAEX_N@Z 0041846c f   Qt5Widgets:Qt5Widgets.dll
 0001:00017472       ?setVisible@QWidget@@UAEX_N@Z 00418472 f   Qt5Widgets:Qt5Widgets.dll
 0001:00017478       ?setupViewport@QAbstractScrollArea@@UAEXPAVQWidget@@@Z 00418478 f   Qt5Widgets:Qt5Widgets.dll
 0001:0001747e       ?sharedPainter@QWidget@@MBEPAVQPainter@@XZ 0041847e f   Qt5Widgets:Qt5Widgets.dll
 0001:00017484       ?showEvent@QStatusBar@@MAEXPAVQShowEvent@@@Z 00418484 f   Qt5Widgets:Qt5Widgets.dll
 0001:0001748a       ?showEvent@QWidget@@MAEXPAVQShowEvent@@@Z 0041848a f   Qt5Widgets:Qt5Widgets.dll
 0001:00017490       ?sizeHint@QAbstractScrollArea@@UBE?AVQSize@@XZ 00418490 f   Qt5Widgets:Qt5Widgets.dll
 0001:00017496       ?sizeHint@QBoxLayout@@UBE?AVQSize@@XZ 00418496 f   Qt5Widgets:Qt5Widgets.dll
 0001:0001749c       ?sizeHint@QLabel@@UBE?AVQSize@@XZ 0041849c f   Qt5Widgets:Qt5Widgets.dll
 0001:000174a2       ?sizeHint@QMenu@@UBE?AVQSize@@XZ 004184a2 f   Qt5Widgets:Qt5Widgets.dll
 0001:000174a8       ?sizeHint@QMenuBar@@UBE?AVQSize@@XZ 004184a8 f   Qt5Widgets:Qt5Widgets.dll
 0001:000174ae       ?sizeHint@QSpacerItem@@UBE?AVQSize@@XZ 004184ae f   Qt5Widgets:Qt5Widgets.dll
 0001:000174b4       ?sizeHint@QSplitter@@UBE?AVQSize@@XZ 004184b4 f   Qt5Widgets:Qt5Widgets.dll
 0001:000174ba       ?sizeHint@QWidget@@UBE?AVQSize@@XZ 004184ba f   Qt5Widgets:Qt5Widgets.dll
 0001:000174c0       ?sizeHintForColumn@QTreeView@@MBEHH@Z 004184c0 f   Qt5Widgets:Qt5Widgets.dll
 0001:000174c6       ?sizeHintForRow@QAbstractItemView@@UBEHH@Z 004184c6 f   Qt5Widgets:Qt5Widgets.dll
 0001:000174cc       ?spacerItem@QLayoutItem@@UAEPAVQSpacerItem@@XZ 004184cc f   Qt5Widgets:Qt5Widgets.dll
 0001:000174d2       ?spacerItem@QSpacerItem@@UAEPAV1@XZ 004184d2 f   Qt5Widgets:Qt5Widgets.dll
 0001:000174d8       ?startDrag@QAbstractItemView@@MAEXV?$QFlags@W4DropAction@Qt@@@@@Z 004184d8 f   Qt5Widgets:Qt5Widgets.dll
 0001:000174de       ?supportedDropActions@QTreeWidget@@MBE?AV?$QFlags@W4DropAction@Qt@@@@XZ 004184de f   Qt5Widgets:Qt5Widgets.dll
 0001:000174e4       ?tabletEvent@QWidget@@MAEXPAVQTabletEvent@@@Z 004184e4 f   Qt5Widgets:Qt5Widgets.dll
 0001:000174ea       ?takeAt@QBoxLayout@@UAEPAVQLayoutItem@@H@Z 004184ea f   Qt5Widgets:Qt5Widgets.dll
 0001:000174f0       ?timerEvent@QMenu@@MAEXPAVQTimerEvent@@@Z 004184f0 f   Qt5Widgets:Qt5Widgets.dll
 0001:000174f6       ?timerEvent@QMenuBar@@MAEXPAVQTimerEvent@@@Z 004184f6 f   Qt5Widgets:Qt5Widgets.dll
 0001:000174fc       ?timerEvent@QTreeView@@MAEXPAVQTimerEvent@@@Z 004184fc f   Qt5Widgets:Qt5Widgets.dll
 0001:00017502       ?updateEditorData@QAbstractItemView@@MAEXXZ 00418502 f   Qt5Widgets:Qt5Widgets.dll
 0001:00017508       ?updateEditorGeometries@QAbstractItemView@@MAEXXZ 00418508 f   Qt5Widgets:Qt5Widgets.dll
 0001:0001750e       ?updateGeometries@QTreeView@@MAEXXZ 0041850e f   Qt5Widgets:Qt5Widgets.dll
 0001:00017514       ?verticalOffset@QTreeView@@MBEHXZ 00418514 f   Qt5Widgets:Qt5Widgets.dll
 0001:0001751a       ?verticalScrollbarAction@QAbstractItemView@@MAEXH@Z 0041851a f   Qt5Widgets:Qt5Widgets.dll
 0001:00017520       ?verticalScrollbarValueChanged@QAbstractItemView@@MAEXH@Z 00418520 f   Qt5Widgets:Qt5Widgets.dll
 0001:00017526       ?viewOptions@QAbstractItemView@@MBE?AVQStyleOptionViewItem@@XZ 00418526 f   Qt5Widgets:Qt5Widgets.dll
 0001:0001752c       ?viewportEvent@QTreeView@@MAE_NPAVQEvent@@@Z 0041852c f   Qt5Widgets:Qt5Widgets.dll
 0001:00017532       ?viewportSizeHint@QTreeView@@MBE?AVQSize@@XZ 00418532 f   Qt5Widgets:Qt5Widgets.dll
 0001:00017538       ?visualRect@QTreeView@@UBE?AVQRect@@ABVQModelIndex@@@Z 00418538 f   Qt5Widgets:Qt5Widgets.dll
 0001:0001753e       ?visualRegionForSelection@QTreeView@@MBE?AVQRegion@@ABVQItemSelection@@@Z 0041853e f   Qt5Widgets:Qt5Widgets.dll
 0001:00017544       ?wheelEvent@QAbstractScrollArea@@MAEXPAVQWheelEvent@@@Z 00418544 f   Qt5Widgets:Qt5Widgets.dll
 0001:0001754a       ?wheelEvent@QMenu@@MAEXPAVQWheelEvent@@@Z 0041854a f   Qt5Widgets:Qt5Widgets.dll
 0001:00017550       ?wheelEvent@QWidget@@MAEXPAVQWheelEvent@@@Z 00418550 f   Qt5Widgets:Qt5Widgets.dll
 0001:00017556       ?widget@QLayoutItem@@UAEPAVQWidget@@XZ 00418556 f   Qt5Widgets:Qt5Widgets.dll
 0001:0001755c       ?write@QTreeWidgetItem@@UBEXAAVQDataStream@@@Z 0041855c f   Qt5Widgets:Qt5Widgets.dll
 0001:00017562       _GetProcessImageFileNameA@12 00418562 f   Psapi:PSAPI.DLL
 0001:00017568       ??_U@YAPAXI@Z              00418568 f   msvcprt:newaop_s.obj
 0001:00017572       __purecall                 00418572 f   MSVCRT:MSVCR120.dll
 0001:00017578       ??2@YAPAXI@Z               00418578 f   MSVCRT:MSVCR120.dll
 0001:0001757e       ??3@YAXPAX@Z               0041857e f   MSVCRT:MSVCR120.dll
 0001:00017584       ___atonexitinit            00418584 f   MSVCRT:atonexit.obj
 0001:000175c0       __onexit                   004185c0 f   MSVCRT:atonexit.obj
 0001:00017669       _atexit                    00418669 f   MSVCRT:atonexit.obj
 0001:0001767e       _getenv                    0041867e f   MSVCRT:MSVCR120.dll
 0001:00017684       __mkdir                    00418684 f   MSVCRT:MSVCR120.dll
 0001:0001768a       _sprintf                   0041868a f   MSVCRT:MSVCR120.dll
 0001:00017690       ??_V@YAXPAX@Z              00418690 f   MSVCRT:MSVCR120.dll
 0001:00017696       @__security_check_cookie@4 00418696 f   MSVCRT:secchk.obj
 0001:000176a6       __CxxThrowException@8      004186a6 f   MSVCRT:MSVCR120.dll
 0001:000176ac       ___CxxFrameHandler3        004186ac f   MSVCRT:MSVCR120.dll
 0001:000176b2       _memcpy                    004186b2 f   MSVCRT:MSVCR120.dll
 0001:000176b8       _memset                    004186b8 f   MSVCRT:MSVCR120.dll
 0001:000176be       ??_Etype_info@@UAEPAXI@Z   004186be f i MSVCRT:ti_inst.obj
 0001:00017710       ___raise_securityfailure   00418710 f   MSVCRT:gs_report.obj
 0001:0001774d       ___report_gsfailure        0041874d f   MSVCRT:gs_report.obj
 0001:00017848       _strncpy                   00418848 f   MSVCRT:MSVCR120.dll
 0001:00017850       __chkstk                   00418850 f   MSVCRT:chkstk.obj
 0001:00017850       __alloca_probe             00418850 f   MSVCRT:chkstk.obj
 0001:0001797f       _WinMainCRTStartup         0041897f f   MSVCRT:crtexew.obj
 0001:00017b3e       _strtok                    00418b3e f   MSVCRT:MSVCR120.dll
 0001:00017b44       __localtime64              00418b44 f   MSVCRT:MSVCR120.dll
 0001:00017b4a       __time64                   00418b4a f   MSVCRT:MSVCR120.dll
 0001:00017b50       _strpbrk                   00418b50 f   MSVCRT:MSVCR120.dll
 0001:00017b56       _free                      00418b56 f   MSVCRT:MSVCR120.dll
 0001:00017b5c       _malloc                    00418b5c f   MSVCRT:MSVCR120.dll
 0001:00017b62       __lock                     00418b62 f   MSVCRT:MSVCR120.dll
 0001:00017b68       __unlock                   00418b68 f   MSVCRT:MSVCR120.dll
 0001:00017b6e       ___dllonexit               00418b6e f   MSVCRT:MSVCR120.dll
 0001:00017b80       __SEH_prolog4              00418b80 f   MSVCRT:sehprolg4.obj
 0001:00017bc5       __SEH_epilog4              00418bc5 f   MSVCRT:sehprolg4.obj
 0001:00017bd9       __except_handler4          00418bd9 f   MSVCRT:chandler4gs.obj
 0001:00017bfc       ??_M@YGXPAXIHP6EX0@Z@Z     00418bfc f   MSVCRT:ehvecdtr.obj
 0001:00017c6b       ?__ArrayUnwind@@YGXPAXIHP6EX0@Z@Z 00418c6b f   MSVCRT:ehvecdtr.obj
 0001:00017cca       ??1type_info@@UAE@XZ       00418cca f   MSVCRT:MSVCR120.dll
 0001:00017cd0       __crt_debugger_hook        00418cd0 f   MSVCRT:MSVCR120.dll
 0001:00017cd6       ___crtUnhandledException   00418cd6 f   MSVCRT:MSVCR120.dll
 0001:00017cdc       ___crtTerminateProcess     00418cdc f   MSVCRT:MSVCR120.dll
 0001:00017ce2       ?__CxxUnhandledExceptionFilter@@YGJPAU_EXCEPTION_POINTERS@@@Z 00418ce2 f   MSVCRT:unhandld.obj
 0001:00017d23       ___CxxSetUnhandledExceptionFilter 00418d23 f   MSVCRT:unhandld.obj
 0001:00017d32       __XcptFilter               00418d32 f   MSVCRT:MSVCR120.dll
 0001:00017d38       __amsg_exit                00418d38 f   MSVCRT:MSVCR120.dll
 0001:00017d40       __FindPESection            00418d40 f   MSVCRT:pesect.obj
 0001:00017d90       __IsNonwritableInCurrentImage 00418d90 f   MSVCRT:pesect.obj
 0001:00017e50       __ValidateImageBase        00418e50 f   MSVCRT:pesect.obj
 0001:00017e81       ___security_init_cookie    00418e81 f   MSVCRT:gs_support.obj
 0001:00017f1d       __matherr                  00418f1d f   MSVCRT:merr.obj
 0001:00017f1d       __setargv                  00418f1d f   MSVCRT:dllargv.obj
 0001:00017f20       __RTC_Initialize           00418f20 f   MSVCRT:initsect.obj
 0001:00017f40       __RTC_Terminate            00418f40 f   MSVCRT:initsect.obj
 0001:00017f60       __setdefaultprecision      00418f60 f   MSVCRT:fp8.obj
 0001:00017f88       __initterm_e               00418f88 f   MSVCRT:MSVCR120.dll
 0001:00017f8e       __initterm                 00418f8e f   MSVCRT:MSVCR120.dll
 0001:00017f94       __except_handler4_common   00418f94 f   MSVCRT:MSVCR120.dll
 0001:00017f9a       ?terminate@@YAXXZ          00418f9a f   MSVCRT:MSVCR120.dll
 0001:00017fa0       ___crtSetUnhandledExceptionFilter 00418fa0 f   MSVCRT:MSVCR120.dll
 0001:00017fa6       __invoke_watson            00418fa6 f   MSVCRT:MSVCR120.dll
 0001:00017fac       __controlfp_s              00418fac f   MSVCRT:MSVCR120.dll
 0001:00017fb2       _GetFileVersionInfoSizeA@8 00418fb2 f   version:VERSION.dll
 0001:00017fb8       _GetFileVersionInfoA@16    00418fb8 f   version:VERSION.dll
 0001:00017fbe       _VerQueryValueA@16         00418fbe f   version:VERSION.dll
 0001:00017fd0       _WinMain@16                00418fd0 f   qtmain:qtmain_win.obj
 0001:000180ee       _IsProcessorFeaturePresent@4 004190ee f   kernel32:KERNEL32.dll
 0002:00000000       __imp__RegQueryValueExA@24 0041b000     advapi32:ADVAPI32.dll
 0002:00000004       __imp__RegCloseKey@4       0041b004     advapi32:ADVAPI32.dll
 0002:00000008       __imp__RegOpenKeyExA@20    0041b008     advapi32:ADVAPI32.dll
 0002:0000000c       \177ADVAPI32_NULL_THUNK_DATA 0041b00c     advapi32:ADVAPI32.dll
 0002:00000010       __imp__BNCS32RxMessage     0041b010     bncsif32:BNCSIF32.dll
 0002:00000014       __imp__BNCS32TxMessage     0041b014     bncsif32:BNCSIF32.dll
 0002:00000018       \177BNCSIF32_NULL_THUNK_DATA 0041b018     bncsif32:BNCSIF32.dll
 0002:0000001c       __imp__QueryPerformanceCounter@4 0041b01c     kernel32:KERNEL32.dll
 0002:00000020       __imp__IsProcessorFeaturePresent@4 0041b020     kernel32:KERNEL32.dll
 0002:00000024       __imp__IsDebuggerPresent@0 0041b024     kernel32:KERNEL32.dll
 0002:00000028       __imp__GetCurrentProcessId@0 0041b028     kernel32:KERNEL32.dll
 0002:0000002c       __imp__EncodePointer@4     0041b02c     kernel32:KERNEL32.dll
 0002:00000030       __imp__WritePrivateProfileStringA@16 0041b030     kernel32:KERNEL32.dll
 0002:00000034       __imp__OutputDebugStringA@4 0041b034     kernel32:KERNEL32.dll
 0002:00000038       __imp__GetWindowsDirectoryA@8 0041b038     kernel32:KERNEL32.dll
 0002:0000003c       __imp__GetCurrentThreadId@0 0041b03c     kernel32:KERNEL32.dll
 0002:00000040       __imp__DecodePointer@4     0041b040     kernel32:KERNEL32.dll
 0002:00000044       __imp__GetSystemTimeAsFileTime@4 0041b044     kernel32:KERNEL32.dll
 0002:00000048       __imp__OpenProcess@12      0041b048     kernel32:KERNEL32.dll
 0002:0000004c       __imp__CloseHandle@4       0041b04c     kernel32:KERNEL32.dll
 0002:00000050       __imp__WinExec@8           0041b050     kernel32:KERNEL32.dll
 0002:00000054       __imp__GetCommandLineW@0   0041b054     kernel32:KERNEL32.dll
 0002:00000058       __imp__SystemTimeToFileTime@8 0041b058     kernel32:KERNEL32.dll
 0002:0000005c       __imp__GetModuleFileNameA@12 0041b05c     kernel32:KERNEL32.dll
 0002:00000060       __imp__GetModuleHandleA@4  0041b060     kernel32:KERNEL32.dll
 0002:00000064       __imp__GetCurrentDirectoryA@8 0041b064     kernel32:KERNEL32.dll
 0002:00000068       __imp__ReleaseMutex@4      0041b068     kernel32:KERNEL32.dll
 0002:0000006c       __imp__WaitForSingleObject@8 0041b06c     kernel32:KERNEL32.dll
 0002:00000070       __imp__CreateMutexA@12     0041b070     kernel32:KERNEL32.dll
 0002:00000074       __imp__GetLastError@0      0041b074     kernel32:KERNEL32.dll
 0002:00000078       __imp__WriteFile@20        0041b078     kernel32:KERNEL32.dll
 0002:0000007c       __imp__SetFilePointer@16   0041b07c     kernel32:KERNEL32.dll
 0002:00000080       __imp__GetLocalTime@4      0041b080     kernel32:KERNEL32.dll
 0002:00000084       __imp__CreateFileA@28      0041b084     kernel32:KERNEL32.dll
 0002:00000088       __imp__lstrcpynA@12        0041b088     kernel32:KERNEL32.dll
 0002:0000008c       __imp__GetProcAddress@8    0041b08c     kernel32:KERNEL32.dll
 0002:00000090       __imp__LoadLibraryA@4      0041b090     kernel32:KERNEL32.dll
 0002:00000094       __imp__LocalFree@4         0041b094     kernel32:KERNEL32.dll
 0002:00000098       __imp__WideCharToMultiByte@32 0041b098     kernel32:KERNEL32.dll
 0002:0000009c       __imp__GetSystemTime@4     0041b09c     kernel32:KERNEL32.dll
 0002:000000a0       __imp__GetPrivateProfileIntA@16 0041b0a0     kernel32:KERNEL32.dll
 0002:000000a4       __imp__GetPrivateProfileStringA@24 0041b0a4     kernel32:KERNEL32.dll
 0002:000000a8       \177KERNEL32_NULL_THUNK_DATA 0041b0a8     kernel32:KERNEL32.dll
 0002:000000ac       __imp_?_Xbad_alloc@std@@YAXXZ 0041b0ac     msvcprt:MSVCP120.dll
 0002:000000b0       __imp_?_Xout_of_range@std@@YAXPBD@Z 0041b0b0     msvcprt:MSVCP120.dll
 0002:000000b4       __imp_?_Syserror_map@std@@YAPBDH@Z 0041b0b4     msvcprt:MSVCP120.dll
 0002:000000b8       __imp_?_Winerror_map@std@@YAPBDH@Z 0041b0b8     msvcprt:MSVCP120.dll
 0002:000000bc       __imp_?_Xlength_error@std@@YAXPBD@Z 0041b0bc     msvcprt:MSVCP120.dll
 0002:000000c0       \177MSVCP120_NULL_THUNK_DATA 0041b0c0     msvcprt:MSVCP120.dll
 0002:000000c4       __imp__memmove             0041b0c4     MSVCRT:MSVCR120.dll
 0002:000000c8       __imp__strchr              0041b0c8     MSVCRT:MSVCR120.dll
 0002:000000cc       __imp__atoi                0041b0cc     MSVCRT:MSVCR120.dll
 0002:000000d0       __imp__fopen               0041b0d0     MSVCRT:MSVCR120.dll
 0002:000000d4       __imp_??2@YAPAXI@Z         0041b0d4     MSVCRT:MSVCR120.dll
 0002:000000d8       __imp___purecall           0041b0d8     MSVCRT:MSVCR120.dll
 0002:000000dc       __imp___mkdir              0041b0dc     MSVCRT:MSVCR120.dll
 0002:000000e0       __imp__fclose              0041b0e0     MSVCRT:MSVCR120.dll
 0002:000000e4       __imp__getenv              0041b0e4     MSVCRT:MSVCR120.dll
 0002:000000e8       __imp__fgets               0041b0e8     MSVCRT:MSVCR120.dll
 0002:000000ec       __imp___calloc_crt         0041b0ec     MSVCRT:MSVCR120.dll
 0002:000000f0       __imp____dllonexit         0041b0f0     MSVCRT:MSVCR120.dll
 0002:000000f4       __imp____set_app_type      0041b0f4     MSVCRT:MSVCR120.dll
 0002:000000f8       __imp__exit                0041b0f8     MSVCRT:MSVCR120.dll
 0002:000000fc       __imp___exit               0041b0fc     MSVCRT:MSVCR120.dll
 0002:00000100       __imp___cexit              0041b100     MSVCRT:MSVCR120.dll
 0002:00000104       __imp___ismbblead          0041b104     MSVCRT:MSVCR120.dll
 0002:00000108       __imp___configthreadlocale 0041b108     MSVCRT:MSVCR120.dll
 0002:0000010c       __imp____setusermatherr    0041b10c     MSVCRT:MSVCR120.dll
 0002:00000110       __imp___initterm_e         0041b110     MSVCRT:MSVCR120.dll
 0002:00000114       __imp___initterm           0041b114     MSVCRT:MSVCR120.dll
 0002:00000118       __imp___acmdln             0041b118     MSVCRT:MSVCR120.dll
 0002:0000011c       __imp___fmode              0041b11c     MSVCRT:MSVCR120.dll
 0002:00000120       __imp___commode            0041b120     MSVCRT:MSVCR120.dll
 0002:00000124       __imp___except_handler4_common 0041b124     MSVCRT:MSVCR120.dll
 0002:00000128       __imp_?terminate@@YAXXZ    0041b128     MSVCRT:MSVCR120.dll
 0002:0000012c       __imp__sprintf             0041b12c     MSVCRT:MSVCR120.dll
 0002:00000130       __imp_??_V@YAXPAX@Z        0041b130     MSVCRT:MSVCR120.dll
 0002:00000134       __imp___CxxThrowException@8 0041b134     MSVCRT:MSVCR120.dll
 0002:00000138       __imp____CxxFrameHandler3  0041b138     MSVCRT:MSVCR120.dll
 0002:0000013c       __imp__memcpy              0041b13c     MSVCRT:MSVCR120.dll
 0002:00000140       __imp__memset              0041b140     MSVCRT:MSVCR120.dll
 0002:00000144       __imp___strlwr             0041b144     MSVCRT:MSVCR120.dll
 0002:00000144       __imp__strlwr              0041b144     MSVCRT:MSVCR120.dll
 0002:00000148       __imp__strncmp             0041b148     MSVCRT:MSVCR120.dll
 0002:0000014c       __imp__strncpy             0041b14c     MSVCRT:MSVCR120.dll
 0002:00000150       __imp__strstr              0041b150     MSVCRT:MSVCR120.dll
 0002:00000154       __imp__sprintf_s           0041b154     MSVCRT:MSVCR120.dll
 0002:00000158       __imp__strtoul             0041b158     MSVCRT:MSVCR120.dll
 0002:0000015c       __imp__strtok              0041b15c     MSVCRT:MSVCR120.dll
 0002:00000160       __imp___localtime64        0041b160     MSVCRT:MSVCR120.dll
 0002:00000164       __imp___time64             0041b164     MSVCRT:MSVCR120.dll
 0002:00000168       __imp__strpbrk             0041b168     MSVCRT:MSVCR120.dll
 0002:0000016c       __imp__free                0041b16c     MSVCRT:MSVCR120.dll
 0002:00000170       __imp__malloc              0041b170     MSVCRT:MSVCR120.dll
 0002:00000174       __imp__sscanf              0041b174     MSVCRT:MSVCR120.dll
 0002:00000178       __imp___lock               0041b178     MSVCRT:MSVCR120.dll
 0002:0000017c       __imp____crtSetUnhandledExceptionFilter 0041b17c     MSVCRT:MSVCR120.dll
 0002:00000180       __imp___invoke_watson      0041b180     MSVCRT:MSVCR120.dll
 0002:00000184       __imp___controlfp_s        0041b184     MSVCRT:MSVCR120.dll
 0002:00000188       __imp_??3@YAXPAX@Z         0041b188     MSVCRT:MSVCR120.dll
 0002:0000018c       __imp____getmainargs       0041b18c     MSVCRT:MSVCR120.dll
 0002:00000190       __imp___onexit             0041b190     MSVCRT:MSVCR120.dll
 0002:00000194       __imp_??1type_info@@UAE@XZ 0041b194     MSVCRT:MSVCR120.dll
 0002:00000198       __imp___crt_debugger_hook  0041b198     MSVCRT:MSVCR120.dll
 0002:0000019c       __imp____crtUnhandledException 0041b19c     MSVCRT:MSVCR120.dll
 0002:000001a0       __imp____crtTerminateProcess 0041b1a0     MSVCRT:MSVCR120.dll
 0002:000001a4       __imp___XcptFilter         0041b1a4     MSVCRT:MSVCR120.dll
 0002:000001a8       __imp____crtGetShowWindowMode 0041b1a8     MSVCRT:MSVCR120.dll
 0002:000001ac       __imp___amsg_exit          0041b1ac     MSVCRT:MSVCR120.dll
 0002:000001b0       __imp___unlock             0041b1b0     MSVCRT:MSVCR120.dll
 0002:000001b4       \177MSVCR120_NULL_THUNK_DATA 0041b1b4     MSVCRT:MSVCR120.dll
 0002:000001b8       __imp__GetProcessImageFileNameA@12 0041b1b8     Psapi:PSAPI.DLL
 0002:000001bc       \177PSAPI_NULL_THUNK_DATA  0041b1bc     Psapi:PSAPI.DLL
 0002:000001c0       __imp_??1QMutex@@QAE@XZ    0041b1c0     Qt5Core:Qt5Core.dll
 0002:000001c4       __imp_?lock@QMutex@@QAEXXZ 0041b1c4     Qt5Core:Qt5Core.dll
 0002:000001c8       __imp_?unlock@QMutex@@QAEXXZ 0041b1c8     Qt5Core:Qt5Core.dll
 0002:000001cc       __imp_?connectSlotsByName@QMetaObject@@SAXPAVQObject@@@Z 0041b1cc     Qt5Core:Qt5Core.dll
 0002:000001d0       __imp_??1Connection@QMetaObject@@QAE@XZ 0041b1d0     Qt5Core:Qt5Core.dll
 0002:000001d4       __imp_??0QChar@@QAE@UQLatin1Char@@@Z 0041b1d4     Qt5Core:Qt5Core.dll
 0002:000001d8       __imp_??1QByteArray@@QAE@XZ 0041b1d8     Qt5Core:Qt5Core.dll
 0002:000001dc       __imp_??BQByteArray@@QBEPBDXZ 0041b1dc     Qt5Core:Qt5Core.dll
 0002:000001e0       __imp_??0QString@@QAE@ABV0@@Z 0041b1e0     Qt5Core:Qt5Core.dll
 0002:000001e4       __imp_??1QString@@QAE@XZ   0041b1e4     Qt5Core:Qt5Core.dll
 0002:000001e8       __imp_?arg@QString@@QBE?AV1@KHHVQChar@@@Z 0041b1e8     Qt5Core:Qt5Core.dll
 0002:000001ec       __imp_?arg@QString@@QBE?AV1@HHHVQChar@@@Z 0041b1ec     Qt5Core:Qt5Core.dll
 0002:000001f0       __imp_?arg@QString@@QBE?AV1@IHHVQChar@@@Z 0041b1f0     Qt5Core:Qt5Core.dll
 0002:000001f4       __imp_?arg@QString@@QBE?AV1@ABV1@HVQChar@@@Z 0041b1f4     Qt5Core:Qt5Core.dll
 0002:000001f8       __imp_?section@QString@@QBE?AV1@ABV1@HHV?$QFlags@W4SectionFlag@QString@@@@@Z 0041b1f8     Qt5Core:Qt5Core.dll
 0002:000001fc       __imp_?startsWith@QString@@QBE_NABV1@W4CaseSensitivity@Qt@@@Z 0041b1fc     Qt5Core:Qt5Core.dll
 0002:00000200       __imp_?toLower@QString@@QBE?AV1@XZ 0041b200     Qt5Core:Qt5Core.dll
 0002:00000204       __imp_?append@QString@@QAEAAV1@ABV1@@Z 0041b204     Qt5Core:Qt5Core.dll
 0002:00000208       __imp_?remove@QString@@QAEAAV1@HH@Z 0041b208     Qt5Core:Qt5Core.dll
 0002:0000020c       __imp_?replace@QString@@QAEAAV1@ABV1@0W4CaseSensitivity@Qt@@@Z 0041b20c     Qt5Core:Qt5Core.dll
 0002:00000210       __imp_?split@QString@@QBE?AVQStringList@@ABV1@W4SplitBehavior@1@W4CaseSensitivity@Qt@@@Z 0041b210     Qt5Core:Qt5Core.dll
 0002:00000214       __imp_?toLatin1@QString@@QBE?AVQByteArray@@XZ 0041b214     Qt5Core:Qt5Core.dll
 0002:00000218       __imp_?fromUtf8@QString@@SA?AV1@PBDH@Z 0041b218     Qt5Core:Qt5Core.dll
 0002:0000021c       __imp_?toInt@QString@@QBEHPA_NH@Z 0041b21c     Qt5Core:Qt5Core.dll
 0002:00000220       __imp_?toStdString@QString@@QBE?AV?$basic_string@DU?$char_traits@D@std@@V?$allocator@D@2@@std@@XZ 0041b220     Qt5Core:Qt5Core.dll
 0002:00000224       __imp_?fromAscii_helper@QString@@CAPAU?$QTypedArrayData@G@@PBDH@Z 0041b224     Qt5Core:Qt5Core.dll
 0002:00000228       __imp_?detach@QListData@@QAEPAUData@1@H@Z 0041b228     Qt5Core:Qt5Core.dll
 0002:0000022c       __imp_?detach_grow@QListData@@QAEPAUData@1@PAHH@Z 0041b22c     Qt5Core:Qt5Core.dll
 0002:00000230       __imp_?dispose@QListData@@SAXPAUData@1@@Z 0041b230     Qt5Core:Qt5Core.dll
 0002:00000234       __imp_?append@QListData@@QAEPAPAXXZ 0041b234     Qt5Core:Qt5Core.dll
 0002:00000238       __imp_?objectName@QObject@@QBE?AVQString@@XZ 0041b238     Qt5Core:Qt5Core.dll
 0002:0000023c       __imp_?setObjectName@QObject@@QAEXABVQString@@@Z 0041b23c     Qt5Core:Qt5Core.dll
 0002:00000240       __imp_?startTimer@QObject@@QAEHHW4TimerType@Qt@@@Z 0041b240     Qt5Core:Qt5Core.dll
 0002:00000244       __imp_?killTimer@QObject@@QAEXH@Z 0041b244     Qt5Core:Qt5Core.dll
 0002:00000248       __imp_??0QMutex@@QAE@W4RecursionMode@0@@Z 0041b248     Qt5Core:Qt5Core.dll
 0002:0000024c       __imp_??0QEvent@@QAE@W4Type@0@@Z 0041b24c     Qt5Core:Qt5Core.dll
 0002:00000250       __imp_??1QEvent@@UAE@XZ    0041b250     Qt5Core:Qt5Core.dll
 0002:00000254       __imp_?arguments@QCoreApplication@@SA?AVQStringList@@XZ 0041b254     Qt5Core:Qt5Core.dll
 0002:00000258       __imp_?postEvent@QCoreApplication@@SAXPAVQObject@@PAVQEvent@@H@Z 0041b258     Qt5Core:Qt5Core.dll
 0002:0000025c       __imp_?translate@QCoreApplication@@SA?AVQString@@PBD00H@Z 0041b25c     Qt5Core:Qt5Core.dll
 0002:00000260       __imp_?childEvent@QObject@@MAEXPAVQChildEvent@@@Z 0041b260     Qt5Core:Qt5Core.dll
 0002:00000264       __imp_?connectNotify@QObject@@MAEXABVQMetaMethod@@@Z 0041b264     Qt5Core:Qt5Core.dll
 0002:00000268       __imp_?customEvent@QObject@@MAEXPAVQEvent@@@Z 0041b268     Qt5Core:Qt5Core.dll
 0002:0000026c       __imp_?disconnectNotify@QObject@@MAEXABVQMetaMethod@@@Z 0041b26c     Qt5Core:Qt5Core.dll
 0002:00000270       __imp_?event@QObject@@UAE_NPAVQEvent@@@Z 0041b270     Qt5Core:Qt5Core.dll
 0002:00000274       __imp_?eventFilter@QObject@@UAE_NPAV1@PAVQEvent@@@Z 0041b274     Qt5Core:Qt5Core.dll
 0002:00000278       __imp_?timerEvent@QObject@@MAEXPAVQTimerEvent@@@Z 0041b278     Qt5Core:Qt5Core.dll
 0002:0000027c       __imp_?shared_null@QListData@@2UData@1@B 0041b27c     Qt5Core:Qt5Core.dll
 0002:00000280       __imp_??0QString@@QAE@XZ   0041b280     Qt5Core:Qt5Core.dll
 0002:00000284       __imp_?indexOf@QString@@QBEHABV1@HW4CaseSensitivity@Qt@@@Z 0041b284     Qt5Core:Qt5Core.dll
 0002:00000288       __imp_??0QUrl@@QAE@XZ      0041b288     Qt5Core:Qt5Core.dll
 0002:0000028c       __imp_??1QUrl@@QAE@XZ      0041b28c     Qt5Core:Qt5Core.dll
 0002:00000290       __imp_?activate@QMetaObject@@SAXPAVQObject@@PBU1@HPAPAX@Z 0041b290     Qt5Core:Qt5Core.dll
 0002:00000294       __imp_?dynamicMetaObject@QObjectData@@QBEPAUQMetaObject@@XZ 0041b294     Qt5Core:Qt5Core.dll
 0002:00000298       __imp_?qt_metacast@QObject@@UAEPAXPBD@Z 0041b298     Qt5Core:Qt5Core.dll
 0002:0000029c       __imp_?qt_metacall@QObject@@UAEHW4Call@QMetaObject@@HPAPAX@Z 0041b29c     Qt5Core:Qt5Core.dll
 0002:000002a0       __imp_?staticMetaObject@QObject@@2UQMetaObject@@B 0041b2a0     Qt5Core:Qt5Core.dll
 0002:000002a4       __imp_?setLibraryPaths@QCoreApplication@@SAXABVQStringList@@@Z 0041b2a4     Qt5Core:Qt5Core.dll
 0002:000002a8       __imp_?debug@QMessageLogger@@QBE?AVQDebug@@XZ 0041b2a8     Qt5Core:Qt5Core.dll
 0002:000002ac       __imp_?data@QByteArray@@QAEPADXZ 0041b2ac     Qt5Core:Qt5Core.dll
 0002:000002b0       __imp_?sprintf@QString@@QAAAAV1@PBDZZ 0041b2b0     Qt5Core:Qt5Core.dll
 0002:000002b4       __imp_?split@QString@@QBE?AVQStringList@@VQChar@@W4SplitBehavior@1@W4CaseSensitivity@Qt@@@Z 0041b2b4     Qt5Core:Qt5Core.dll
 0002:000002b8       __imp_?fromLatin1@QString@@SA?AV1@PBDH@Z 0041b2b8     Qt5Core:Qt5Core.dll
 0002:000002bc       __imp_??8@YA_NABVQString@@0@Z 0041b2bc     Qt5Core:Qt5Core.dll
 0002:000002c0       __imp_??8QString@@QBE_NPBD@Z 0041b2c0     Qt5Core:Qt5Core.dll
 0002:000002c4       __imp_??0QObject@@QAE@PAV0@@Z 0041b2c4     Qt5Core:Qt5Core.dll
 0002:000002c8       __imp_??1QObject@@UAE@XZ   0041b2c8     Qt5Core:Qt5Core.dll
 0002:000002cc       __imp_??1QDebug@@QAE@XZ    0041b2cc     Qt5Core:Qt5Core.dll
 0002:000002d0       __imp_??6QDebug@@QAEAAV0@ABVQString@@@Z 0041b2d0     Qt5Core:Qt5Core.dll
 0002:000002d4       __imp_?connect@QObject@@SA?AVConnection@QMetaObject@@PBV1@PBD01W4ConnectionType@Qt@@@Z 0041b2d4     Qt5Core:Qt5Core.dll
 0002:000002d8       __imp_??0QMessageLogger@@QAE@PBDH0@Z 0041b2d8     Qt5Core:Qt5Core.dll
 0002:000002dc       __imp_?debug@QMessageLogger@@QBAXPBDZZ 0041b2dc     Qt5Core:Qt5Core.dll
 0002:000002e0       \177Qt5Core_NULL_THUNK_DATA 0041b2e0     Qt5Core:Qt5Core.dll
 0002:000002e4       __imp_??0QPixmap@@QAE@QBQBD@Z 0041b2e4     Qt5Gui:Qt5Gui.dll
 0002:000002e8       __imp_??0QKeySequence@@QAE@ABVQString@@W4SequenceFormat@0@@Z 0041b2e8     Qt5Gui:Qt5Gui.dll
 0002:000002ec       __imp_??1QKeySequence@@QAE@XZ 0041b2ec     Qt5Gui:Qt5Gui.dll
 0002:000002f0       __imp_??0QIcon@@QAE@ABVQPixmap@@@Z 0041b2f0     Qt5Gui:Qt5Gui.dll
 0002:000002f4       __imp_??1QIcon@@QAE@XZ     0041b2f4     Qt5Gui:Qt5Gui.dll
 0002:000002f8       __imp_??1QPixmap@@UAE@XZ   0041b2f8     Qt5Gui:Qt5Gui.dll
 0002:000002fc       \177Qt5Gui_NULL_THUNK_DATA 0041b2fc     Qt5Gui:Qt5Gui.dll
 0002:00000300       __imp_?dragMoveEvent@QTreeView@@MAEXPAVQDragMoveEvent@@@Z 0041b300     Qt5Widgets:Qt5Widgets.dll
 0002:00000304       __imp_?dragMoveEvent@QWidget@@MAEXPAVQDragMoveEvent@@@Z 0041b304     Qt5Widgets:Qt5Widgets.dll
 0002:00000308       __imp_?drawBranches@QTreeView@@MBEXPAVQPainter@@ABVQRect@@ABVQModelIndex@@@Z 0041b308     Qt5Widgets:Qt5Widgets.dll
 0002:0000030c       __imp_?drawRow@QTreeView@@MBEXPAVQPainter@@ABVQStyleOptionViewItem@@ABVQModelIndex@@@Z 0041b30c     Qt5Widgets:Qt5Widgets.dll
 0002:00000310       __imp_?dropEvent@QTreeWidget@@MAEXPAVQDropEvent@@@Z 0041b310     Qt5Widgets:Qt5Widgets.dll
 0002:00000314       __imp_?dropEvent@QWidget@@MAEXPAVQDropEvent@@@Z 0041b314     Qt5Widgets:Qt5Widgets.dll
 0002:00000318       __imp_?dropMimeData@QTreeWidget@@MAE_NPAVQTreeWidgetItem@@HPBVQMimeData@@W4DropAction@Qt@@@Z 0041b318     Qt5Widgets:Qt5Widgets.dll
 0002:0000031c       __imp_?edit@QAbstractItemView@@MAE_NABVQModelIndex@@W4EditTrigger@1@PAVQEvent@@@Z 0041b31c     Qt5Widgets:Qt5Widgets.dll
 0002:00000320       __imp_?editorDestroyed@QAbstractItemView@@MAEXPAVQObject@@@Z 0041b320     Qt5Widgets:Qt5Widgets.dll
 0002:00000324       __imp_?enterEvent@QMenu@@MAEXPAVQEvent@@@Z 0041b324     Qt5Widgets:Qt5Widgets.dll
 0002:00000328       __imp_?enterEvent@QWidget@@MAEXPAVQEvent@@@Z 0041b328     Qt5Widgets:Qt5Widgets.dll
 0002:0000032c       __imp_?event@QAction@@MAE_NPAVQEvent@@@Z 0041b32c     Qt5Widgets:Qt5Widgets.dll
 0002:00000330       __imp_?event@QGroupBox@@MAE_NPAVQEvent@@@Z 0041b330     Qt5Widgets:Qt5Widgets.dll
 0002:00000334       __imp_?event@QLabel@@MAE_NPAVQEvent@@@Z 0041b334     Qt5Widgets:Qt5Widgets.dll
 0002:00000338       __imp_?event@QMainWindow@@MAE_NPAVQEvent@@@Z 0041b338     Qt5Widgets:Qt5Widgets.dll
 0002:0000033c       __imp_?event@QMenu@@MAE_NPAVQEvent@@@Z 0041b33c     Qt5Widgets:Qt5Widgets.dll
 0002:00000340       __imp_?event@QMenuBar@@MAE_NPAVQEvent@@@Z 0041b340     Qt5Widgets:Qt5Widgets.dll
 0002:00000344       __imp_?event@QSplitter@@MAE_NPAVQEvent@@@Z 0041b344     Qt5Widgets:Qt5Widgets.dll
 0002:00000348       __imp_?event@QStatusBar@@MAE_NPAVQEvent@@@Z 0041b348     Qt5Widgets:Qt5Widgets.dll
 0002:0000034c       __imp_?event@QToolBar@@MAE_NPAVQEvent@@@Z 0041b34c     Qt5Widgets:Qt5Widgets.dll
 0002:00000350       __imp_?event@QTreeWidget@@MAE_NPAVQEvent@@@Z 0041b350     Qt5Widgets:Qt5Widgets.dll
 0002:00000354       __imp_?event@QWidget@@MAE_NPAVQEvent@@@Z 0041b354     Qt5Widgets:Qt5Widgets.dll
 0002:00000358       __imp_?eventFilter@QAbstractScrollArea@@MAE_NPAVQObject@@PAVQEvent@@@Z 0041b358     Qt5Widgets:Qt5Widgets.dll
 0002:0000035c       __imp_?eventFilter@QMenuBar@@MAE_NPAVQObject@@PAVQEvent@@@Z 0041b35c     Qt5Widgets:Qt5Widgets.dll
 0002:00000360       __imp_?expandingDirections@QBoxLayout@@UBE?AV?$QFlags@W4Orientation@Qt@@@@XZ 0041b360     Qt5Widgets:Qt5Widgets.dll
 0002:00000364       __imp_?expandingDirections@QSpacerItem@@UBE?AV?$QFlags@W4Orientation@Qt@@@@XZ 0041b364     Qt5Widgets:Qt5Widgets.dll
 0002:00000368       __imp_?focusInEvent@QAbstractItemView@@MAEXPAVQFocusEvent@@@Z 0041b368     Qt5Widgets:Qt5Widgets.dll
 0002:0000036c       __imp_?focusInEvent@QGroupBox@@MAEXPAVQFocusEvent@@@Z 0041b36c     Qt5Widgets:Qt5Widgets.dll
 0002:00000370       __imp_?focusInEvent@QLabel@@MAEXPAVQFocusEvent@@@Z 0041b370     Qt5Widgets:Qt5Widgets.dll
 0002:00000374       __imp_?focusInEvent@QMenuBar@@MAEXPAVQFocusEvent@@@Z 0041b374     Qt5Widgets:Qt5Widgets.dll
 0002:00000378       __imp_?focusInEvent@QWidget@@MAEXPAVQFocusEvent@@@Z 0041b378     Qt5Widgets:Qt5Widgets.dll
 0002:0000037c       __imp_?focusNextPrevChild@QAbstractItemView@@MAE_N_N@Z 0041b37c     Qt5Widgets:Qt5Widgets.dll
 0002:00000380       __imp_?focusNextPrevChild@QLabel@@MAE_N_N@Z 0041b380     Qt5Widgets:Qt5Widgets.dll
 0002:00000384       __imp_?focusNextPrevChild@QMenu@@MAE_N_N@Z 0041b384     Qt5Widgets:Qt5Widgets.dll
 0002:00000388       __imp_?focusNextPrevChild@QWidget@@MAE_N_N@Z 0041b388     Qt5Widgets:Qt5Widgets.dll
 0002:0000038c       __imp_?focusOutEvent@QAbstractItemView@@MAEXPAVQFocusEvent@@@Z 0041b38c     Qt5Widgets:Qt5Widgets.dll
 0002:00000390       __imp_?focusOutEvent@QLabel@@MAEXPAVQFocusEvent@@@Z 0041b390     Qt5Widgets:Qt5Widgets.dll
 0002:00000394       __imp_?focusOutEvent@QMenuBar@@MAEXPAVQFocusEvent@@@Z 0041b394     Qt5Widgets:Qt5Widgets.dll
 0002:00000398       __imp_?focusOutEvent@QWidget@@MAEXPAVQFocusEvent@@@Z 0041b398     Qt5Widgets:Qt5Widgets.dll
 0002:0000039c       __imp_?geometry@QLayout@@UBE?AVQRect@@XZ 0041b39c     Qt5Widgets:Qt5Widgets.dll
 0002:000003a0       __imp_?geometry@QSpacerItem@@UBE?AVQRect@@XZ 0041b3a0     Qt5Widgets:Qt5Widgets.dll
 0002:000003a4       __imp_?hasHeightForWidth@QBoxLayout@@UBE_NXZ 0041b3a4     Qt5Widgets:Qt5Widgets.dll
 0002:000003a8       __imp_?hasHeightForWidth@QLayoutItem@@UBE_NXZ 0041b3a8     Qt5Widgets:Qt5Widgets.dll
 0002:000003ac       __imp_?hasHeightForWidth@QWidget@@UBE_NXZ 0041b3ac     Qt5Widgets:Qt5Widgets.dll
 0002:000003b0       __imp_?heightForWidth@QBoxLayout@@UBEHH@Z 0041b3b0     Qt5Widgets:Qt5Widgets.dll
 0002:000003b4       __imp_?heightForWidth@QLabel@@UBEHH@Z 0041b3b4     Qt5Widgets:Qt5Widgets.dll
 0002:000003b8       __imp_?heightForWidth@QLayoutItem@@UBEHH@Z 0041b3b8     Qt5Widgets:Qt5Widgets.dll
 0002:000003bc       __imp_?heightForWidth@QMenuBar@@UBEHH@Z 0041b3bc     Qt5Widgets:Qt5Widgets.dll
 0002:000003c0       __imp_?heightForWidth@QWidget@@UBEHH@Z 0041b3c0     Qt5Widgets:Qt5Widgets.dll
 0002:000003c4       __imp_?hideEvent@QMenu@@MAEXPAVQHideEvent@@@Z 0041b3c4     Qt5Widgets:Qt5Widgets.dll
 0002:000003c8       __imp_?hideEvent@QWidget@@MAEXPAVQHideEvent@@@Z 0041b3c8     Qt5Widgets:Qt5Widgets.dll
 0002:000003cc       __imp_?horizontalOffset@QTreeView@@MBEHXZ 0041b3cc     Qt5Widgets:Qt5Widgets.dll
 0002:000003d0       __imp_?horizontalScrollbarAction@QTreeView@@MAEXH@Z 0041b3d0     Qt5Widgets:Qt5Widgets.dll
 0002:000003d4       __imp_?horizontalScrollbarValueChanged@QAbstractItemView@@MAEXH@Z 0041b3d4     Qt5Widgets:Qt5Widgets.dll
 0002:000003d8       __imp_?indexAt@QTreeView@@UBE?AVQModelIndex@@ABVQPoint@@@Z 0041b3d8     Qt5Widgets:Qt5Widgets.dll
 0002:000003dc       __imp_?indexOf@QLayout@@UBEHPAVQWidget@@@Z 0041b3dc     Qt5Widgets:Qt5Widgets.dll
 0002:000003e0       __imp_?initPainter@QWidget@@MBEXPAVQPainter@@@Z 0041b3e0     Qt5Widgets:Qt5Widgets.dll
 0002:000003e4       __imp_?inputMethodEvent@QAbstractItemView@@MAEXPAVQInputMethodEvent@@@Z 0041b3e4     Qt5Widgets:Qt5Widgets.dll
 0002:000003e8       __imp_?inputMethodEvent@QWidget@@MAEXPAVQInputMethodEvent@@@Z 0041b3e8     Qt5Widgets:Qt5Widgets.dll
 0002:000003ec       __imp_?inputMethodQuery@QAbstractItemView@@UBE?AVQVariant@@W4InputMethodQuery@Qt@@@Z 0041b3ec     Qt5Widgets:Qt5Widgets.dll
 0002:000003f0       __imp_?inputMethodQuery@QWidget@@UBE?AVQVariant@@W4InputMethodQuery@Qt@@@Z 0041b3f0     Qt5Widgets:Qt5Widgets.dll
 0002:000003f4       __imp_?invalidate@QBoxLayout@@UAEXXZ 0041b3f4     Qt5Widgets:Qt5Widgets.dll
 0002:000003f8       __imp_?invalidate@QLayoutItem@@UAEXXZ 0041b3f8     Qt5Widgets:Qt5Widgets.dll
 0002:000003fc       __imp_?isEmpty@QLayout@@UBE_NXZ 0041b3fc     Qt5Widgets:Qt5Widgets.dll
 0002:00000400       __imp_?isEmpty@QSpacerItem@@UBE_NXZ 0041b400     Qt5Widgets:Qt5Widgets.dll
 0002:00000404       __imp_?isIndexHidden@QTreeView@@MBE_NABVQModelIndex@@@Z 0041b404     Qt5Widgets:Qt5Widgets.dll
 0002:00000408       __imp_?itemAt@QBoxLayout@@UBEPAVQLayoutItem@@H@Z 0041b408     Qt5Widgets:Qt5Widgets.dll
 0002:0000040c       __imp_?keyPressEvent@QLabel@@MAEXPAVQKeyEvent@@@Z 0041b40c     Qt5Widgets:Qt5Widgets.dll
 0002:00000410       __imp_?setFrameShadow@QFrame@@QAEXW4Shadow@1@@Z 0041b410     Qt5Widgets:Qt5Widgets.dll
 0002:00000414       __imp_?keyPressEvent@QMenuBar@@MAEXPAVQKeyEvent@@@Z 0041b414     Qt5Widgets:Qt5Widgets.dll
 0002:00000418       __imp_?keyPressEvent@QTreeView@@MAEXPAVQKeyEvent@@@Z 0041b418     Qt5Widgets:Qt5Widgets.dll
 0002:0000041c       __imp_?keyPressEvent@QWidget@@MAEXPAVQKeyEvent@@@Z 0041b41c     Qt5Widgets:Qt5Widgets.dll
 0002:00000420       __imp_?keyReleaseEvent@QWidget@@MAEXPAVQKeyEvent@@@Z 0041b420     Qt5Widgets:Qt5Widgets.dll
 0002:00000424       __imp_?keyboardSearch@QTreeView@@UAEXABVQString@@@Z 0041b424     Qt5Widgets:Qt5Widgets.dll
 0002:00000428       __imp_?layout@QLayout@@UAEPAV1@XZ 0041b428     Qt5Widgets:Qt5Widgets.dll
 0002:0000042c       __imp_?layout@QLayoutItem@@UAEPAVQLayout@@XZ 0041b42c     Qt5Widgets:Qt5Widgets.dll
 0002:00000430       __imp_?leaveEvent@QMenu@@MAEXPAVQEvent@@@Z 0041b430     Qt5Widgets:Qt5Widgets.dll
 0002:00000434       __imp_?leaveEvent@QMenuBar@@MAEXPAVQEvent@@@Z 0041b434     Qt5Widgets:Qt5Widgets.dll
 0002:00000438       __imp_?leaveEvent@QWidget@@MAEXPAVQEvent@@@Z 0041b438     Qt5Widgets:Qt5Widgets.dll
 0002:0000043c       __imp_?maximumSize@QBoxLayout@@UBE?AVQSize@@XZ 0041b43c     Qt5Widgets:Qt5Widgets.dll
 0002:00000440       __imp_?maximumSize@QSpacerItem@@UBE?AVQSize@@XZ 0041b440     Qt5Widgets:Qt5Widgets.dll
 0002:00000444       __imp_?metaObject@QAction@@UBEPBUQMetaObject@@XZ 0041b444     Qt5Widgets:Qt5Widgets.dll
 0002:00000448       __imp_?metaObject@QGroupBox@@UBEPBUQMetaObject@@XZ 0041b448     Qt5Widgets:Qt5Widgets.dll
 0002:0000044c       __imp_?metaObject@QHBoxLayout@@UBEPBUQMetaObject@@XZ 0041b44c     Qt5Widgets:Qt5Widgets.dll
 0002:00000450       __imp_?metaObject@QLabel@@UBEPBUQMetaObject@@XZ 0041b450     Qt5Widgets:Qt5Widgets.dll
 0002:00000454       __imp_?metaObject@QMenu@@UBEPBUQMetaObject@@XZ 0041b454     Qt5Widgets:Qt5Widgets.dll
 0002:00000458       __imp_?metaObject@QMenuBar@@UBEPBUQMetaObject@@XZ 0041b458     Qt5Widgets:Qt5Widgets.dll
 0002:0000045c       __imp_?metaObject@QSplitter@@UBEPBUQMetaObject@@XZ 0041b45c     Qt5Widgets:Qt5Widgets.dll
 0002:00000460       __imp_?metaObject@QStatusBar@@UBEPBUQMetaObject@@XZ 0041b460     Qt5Widgets:Qt5Widgets.dll
 0002:00000464       __imp_?metaObject@QToolBar@@UBEPBUQMetaObject@@XZ 0041b464     Qt5Widgets:Qt5Widgets.dll
 0002:00000468       __imp_?metaObject@QTreeWidget@@UBEPBUQMetaObject@@XZ 0041b468     Qt5Widgets:Qt5Widgets.dll
 0002:0000046c       __imp_?setFrameShape@QFrame@@QAEXW4Shape@1@@Z 0041b46c     Qt5Widgets:Qt5Widgets.dll
 0002:00000470       __imp_?metaObject@QWidget@@UBEPBUQMetaObject@@XZ 0041b470     Qt5Widgets:Qt5Widgets.dll
 0002:00000474       __imp_?metric@QWidget@@MBEHW4PaintDeviceMetric@QPaintDevice@@@Z 0041b474     Qt5Widgets:Qt5Widgets.dll
 0002:00000478       __imp_?mimeData@QTreeWidget@@MBEPAVQMimeData@@V?$QList@PAVQTreeWidgetItem@@@@@Z 0041b478     Qt5Widgets:Qt5Widgets.dll
 0002:0000047c       __imp_?mimeTypes@QTreeWidget@@MBE?AVQStringList@@XZ 0041b47c     Qt5Widgets:Qt5Widgets.dll
 0002:00000480       __imp_?minimumHeightForWidth@QBoxLayout@@UBEHH@Z 0041b480     Qt5Widgets:Qt5Widgets.dll
 0002:00000484       __imp_?minimumHeightForWidth@QLayoutItem@@UBEHH@Z 0041b484     Qt5Widgets:Qt5Widgets.dll
 0002:00000488       __imp_?minimumSize@QBoxLayout@@UBE?AVQSize@@XZ 0041b488     Qt5Widgets:Qt5Widgets.dll
 0002:0000048c       __imp_?minimumSize@QSpacerItem@@UBE?AVQSize@@XZ 0041b48c     Qt5Widgets:Qt5Widgets.dll
 0002:00000490       __imp_?minimumSizeHint@QAbstractScrollArea@@UBE?AVQSize@@XZ 0041b490     Qt5Widgets:Qt5Widgets.dll
 0002:00000494       __imp_?minimumSizeHint@QGroupBox@@UBE?AVQSize@@XZ 0041b494     Qt5Widgets:Qt5Widgets.dll
 0002:00000498       __imp_?minimumSizeHint@QLabel@@UBE?AVQSize@@XZ 0041b498     Qt5Widgets:Qt5Widgets.dll
 0002:0000049c       __imp_?minimumSizeHint@QMenuBar@@UBE?AVQSize@@XZ 0041b49c     Qt5Widgets:Qt5Widgets.dll
 0002:000004a0       __imp_?minimumSizeHint@QSplitter@@UBE?AVQSize@@XZ 0041b4a0     Qt5Widgets:Qt5Widgets.dll
 0002:000004a4       __imp_?minimumSizeHint@QWidget@@UBE?AVQSize@@XZ 0041b4a4     Qt5Widgets:Qt5Widgets.dll
 0002:000004a8       __imp_?mouseDoubleClickEvent@QTreeView@@MAEXPAVQMouseEvent@@@Z 0041b4a8     Qt5Widgets:Qt5Widgets.dll
 0002:000004ac       __imp_?mouseDoubleClickEvent@QWidget@@MAEXPAVQMouseEvent@@@Z 0041b4ac     Qt5Widgets:Qt5Widgets.dll
 0002:000004b0       __imp_?mouseMoveEvent@QGroupBox@@MAEXPAVQMouseEvent@@@Z 0041b4b0     Qt5Widgets:Qt5Widgets.dll
 0002:000004b4       __imp_?mouseMoveEvent@QLabel@@MAEXPAVQMouseEvent@@@Z 0041b4b4     Qt5Widgets:Qt5Widgets.dll
 0002:000004b8       __imp_?mouseMoveEvent@QMenu@@MAEXPAVQMouseEvent@@@Z 0041b4b8     Qt5Widgets:Qt5Widgets.dll
 0002:000004bc       __imp_?mouseMoveEvent@QMenuBar@@MAEXPAVQMouseEvent@@@Z 0041b4bc     Qt5Widgets:Qt5Widgets.dll
 0002:000004c0       __imp_?mouseMoveEvent@QTreeView@@MAEXPAVQMouseEvent@@@Z 0041b4c0     Qt5Widgets:Qt5Widgets.dll
 0002:000004c4       __imp_?mouseMoveEvent@QWidget@@MAEXPAVQMouseEvent@@@Z 0041b4c4     Qt5Widgets:Qt5Widgets.dll
 0002:000004c8       __imp_?mousePressEvent@QGroupBox@@MAEXPAVQMouseEvent@@@Z 0041b4c8     Qt5Widgets:Qt5Widgets.dll
 0002:000004cc       __imp_?mousePressEvent@QLabel@@MAEXPAVQMouseEvent@@@Z 0041b4cc     Qt5Widgets:Qt5Widgets.dll
 0002:000004d0       __imp_?mousePressEvent@QMenu@@MAEXPAVQMouseEvent@@@Z 0041b4d0     Qt5Widgets:Qt5Widgets.dll
 0002:000004d4       __imp_?mousePressEvent@QMenuBar@@MAEXPAVQMouseEvent@@@Z 0041b4d4     Qt5Widgets:Qt5Widgets.dll
 0002:000004d8       __imp_?mousePressEvent@QTreeView@@MAEXPAVQMouseEvent@@@Z 0041b4d8     Qt5Widgets:Qt5Widgets.dll
 0002:000004dc       __imp_?mousePressEvent@QWidget@@MAEXPAVQMouseEvent@@@Z 0041b4dc     Qt5Widgets:Qt5Widgets.dll
 0002:000004e0       __imp_?mouseReleaseEvent@QGroupBox@@MAEXPAVQMouseEvent@@@Z 0041b4e0     Qt5Widgets:Qt5Widgets.dll
 0002:000004e4       __imp_?mouseReleaseEvent@QLabel@@MAEXPAVQMouseEvent@@@Z 0041b4e4     Qt5Widgets:Qt5Widgets.dll
 0002:000004e8       __imp_?mouseReleaseEvent@QMenu@@MAEXPAVQMouseEvent@@@Z 0041b4e8     Qt5Widgets:Qt5Widgets.dll
 0002:000004ec       __imp_?mouseReleaseEvent@QMenuBar@@MAEXPAVQMouseEvent@@@Z 0041b4ec     Qt5Widgets:Qt5Widgets.dll
 0002:000004f0       __imp_?mouseReleaseEvent@QTreeView@@MAEXPAVQMouseEvent@@@Z 0041b4f0     Qt5Widgets:Qt5Widgets.dll
 0002:000004f4       __imp_?mouseReleaseEvent@QWidget@@MAEXPAVQMouseEvent@@@Z 0041b4f4     Qt5Widgets:Qt5Widgets.dll
 0002:000004f8       __imp_?moveCursor@QTreeView@@MAE?AVQModelIndex@@W4CursorAction@QAbstractItemView@@V?$QFlags@W4KeyboardModifier@Qt@@@@@Z 0041b4f8     Qt5Widgets:Qt5Widgets.dll
 0002:000004fc       __imp_?data@QTreeWidgetItem@@UBE?AVQVariant@@HH@Z 0041b4fc     Qt5Widgets:Qt5Widgets.dll
 0002:00000500       __imp_?dragLeaveEvent@QWidget@@MAEXPAVQDragLeaveEvent@@@Z 0041b500     Qt5Widgets:Qt5Widgets.dll
 0002:00000504       __imp_?paintEngine@QWidget@@UBEPAVQPaintEngine@@XZ 0041b504     Qt5Widgets:Qt5Widgets.dll
 0002:00000508       __imp_?paintEvent@QFrame@@MAEXPAVQPaintEvent@@@Z 0041b508     Qt5Widgets:Qt5Widgets.dll
 0002:0000050c       __imp_?paintEvent@QGroupBox@@MAEXPAVQPaintEvent@@@Z 0041b50c     Qt5Widgets:Qt5Widgets.dll
 0002:00000510       __imp_?paintEvent@QLabel@@MAEXPAVQPaintEvent@@@Z 0041b510     Qt5Widgets:Qt5Widgets.dll
 0002:00000514       __imp_?paintEvent@QMenu@@MAEXPAVQPaintEvent@@@Z 0041b514     Qt5Widgets:Qt5Widgets.dll
 0002:00000518       __imp_?paintEvent@QMenuBar@@MAEXPAVQPaintEvent@@@Z 0041b518     Qt5Widgets:Qt5Widgets.dll
 0002:0000051c       __imp_?paintEvent@QStatusBar@@MAEXPAVQPaintEvent@@@Z 0041b51c     Qt5Widgets:Qt5Widgets.dll
 0002:00000520       __imp_?paintEvent@QToolBar@@MAEXPAVQPaintEvent@@@Z 0041b520     Qt5Widgets:Qt5Widgets.dll
 0002:00000524       __imp_?paintEvent@QTreeView@@MAEXPAVQPaintEvent@@@Z 0041b524     Qt5Widgets:Qt5Widgets.dll
 0002:00000528       __imp_?paintEvent@QWidget@@MAEXPAVQPaintEvent@@@Z 0041b528     Qt5Widgets:Qt5Widgets.dll
 0002:0000052c       __imp_?qt_metacall@QAction@@UAEHW4Call@QMetaObject@@HPAPAX@Z 0041b52c     Qt5Widgets:Qt5Widgets.dll
 0002:00000530       __imp_?qt_metacall@QGroupBox@@UAEHW4Call@QMetaObject@@HPAPAX@Z 0041b530     Qt5Widgets:Qt5Widgets.dll
 0002:00000534       __imp_?qt_metacall@QHBoxLayout@@UAEHW4Call@QMetaObject@@HPAPAX@Z 0041b534     Qt5Widgets:Qt5Widgets.dll
 0002:00000538       __imp_?qt_metacall@QLabel@@UAEHW4Call@QMetaObject@@HPAPAX@Z 0041b538     Qt5Widgets:Qt5Widgets.dll
 0002:0000053c       __imp_?qt_metacall@QMenu@@UAEHW4Call@QMetaObject@@HPAPAX@Z 0041b53c     Qt5Widgets:Qt5Widgets.dll
 0002:00000540       __imp_?qt_metacall@QMenuBar@@UAEHW4Call@QMetaObject@@HPAPAX@Z 0041b540     Qt5Widgets:Qt5Widgets.dll
 0002:00000544       __imp_?qt_metacall@QSplitter@@UAEHW4Call@QMetaObject@@HPAPAX@Z 0041b544     Qt5Widgets:Qt5Widgets.dll
 0002:00000548       __imp_?qt_metacall@QStatusBar@@UAEHW4Call@QMetaObject@@HPAPAX@Z 0041b548     Qt5Widgets:Qt5Widgets.dll
 0002:0000054c       __imp_?qt_metacall@QToolBar@@UAEHW4Call@QMetaObject@@HPAPAX@Z 0041b54c     Qt5Widgets:Qt5Widgets.dll
 0002:00000550       __imp_?qt_metacall@QTreeWidget@@UAEHW4Call@QMetaObject@@HPAPAX@Z 0041b550     Qt5Widgets:Qt5Widgets.dll
 0002:00000554       __imp_?qt_metacall@QVBoxLayout@@UAEHW4Call@QMetaObject@@HPAPAX@Z 0041b554     Qt5Widgets:Qt5Widgets.dll
 0002:00000558       __imp_?qt_metacall@QWidget@@UAEHW4Call@QMetaObject@@HPAPAX@Z 0041b558     Qt5Widgets:Qt5Widgets.dll
 0002:0000055c       __imp_?qt_metacast@QAction@@UAEPAXPBD@Z 0041b55c     Qt5Widgets:Qt5Widgets.dll
 0002:00000560       __imp_?qt_metacast@QGroupBox@@UAEPAXPBD@Z 0041b560     Qt5Widgets:Qt5Widgets.dll
 0002:00000564       __imp_?qt_metacast@QHBoxLayout@@UAEPAXPBD@Z 0041b564     Qt5Widgets:Qt5Widgets.dll
 0002:00000568       __imp_?qt_metacast@QLabel@@UAEPAXPBD@Z 0041b568     Qt5Widgets:Qt5Widgets.dll
 0002:0000056c       __imp_?qt_metacast@QMenu@@UAEPAXPBD@Z 0041b56c     Qt5Widgets:Qt5Widgets.dll
 0002:00000570       __imp_?qt_metacast@QMenuBar@@UAEPAXPBD@Z 0041b570     Qt5Widgets:Qt5Widgets.dll
 0002:00000574       __imp_?qt_metacast@QSplitter@@UAEPAXPBD@Z 0041b574     Qt5Widgets:Qt5Widgets.dll
 0002:00000578       __imp_?qt_metacast@QStatusBar@@UAEPAXPBD@Z 0041b578     Qt5Widgets:Qt5Widgets.dll
 0002:0000057c       __imp_?qt_metacast@QToolBar@@UAEPAXPBD@Z 0041b57c     Qt5Widgets:Qt5Widgets.dll
 0002:00000580       __imp_?qt_metacast@QTreeWidget@@UAEPAXPBD@Z 0041b580     Qt5Widgets:Qt5Widgets.dll
 0002:00000584       __imp_?qt_metacast@QVBoxLayout@@UAEPAXPBD@Z 0041b584     Qt5Widgets:Qt5Widgets.dll
 0002:00000588       __imp_?qt_metacast@QWidget@@UAEPAXPBD@Z 0041b588     Qt5Widgets:Qt5Widgets.dll
 0002:0000058c       __imp_?read@QTreeWidgetItem@@UAEXAAVQDataStream@@@Z 0041b58c     Qt5Widgets:Qt5Widgets.dll
 0002:00000590       __imp_?redirected@QWidget@@MBEPAVQPaintDevice@@PAVQPoint@@@Z 0041b590     Qt5Widgets:Qt5Widgets.dll
 0002:00000594       __imp_?reset@QTreeView@@UAEXXZ 0041b594     Qt5Widgets:Qt5Widgets.dll
 0002:00000598       __imp_?resizeEvent@QAbstractItemView@@MAEXPAVQResizeEvent@@@Z 0041b598     Qt5Widgets:Qt5Widgets.dll
 0002:0000059c       __imp_?resizeEvent@QGroupBox@@MAEXPAVQResizeEvent@@@Z 0041b59c     Qt5Widgets:Qt5Widgets.dll
 0002:000005a0       __imp_?resizeEvent@QMenuBar@@MAEXPAVQResizeEvent@@@Z 0041b5a0     Qt5Widgets:Qt5Widgets.dll
 0002:000005a4       __imp_?resizeEvent@QSplitter@@MAEXPAVQResizeEvent@@@Z 0041b5a4     Qt5Widgets:Qt5Widgets.dll
 0002:000005a8       __imp_?resizeEvent@QStatusBar@@MAEXPAVQResizeEvent@@@Z 0041b5a8     Qt5Widgets:Qt5Widgets.dll
 0002:000005ac       __imp_?resizeEvent@QWidget@@MAEXPAVQResizeEvent@@@Z 0041b5ac     Qt5Widgets:Qt5Widgets.dll
 0002:000005b0       __imp_?rowsAboutToBeRemoved@QTreeView@@MAEXABVQModelIndex@@HH@Z 0041b5b0     Qt5Widgets:Qt5Widgets.dll
 0002:000005b4       __imp_?rowsInserted@QTreeView@@MAEXABVQModelIndex@@HH@Z 0041b5b4     Qt5Widgets:Qt5Widgets.dll
 0002:000005b8       __imp_?scrollContentsBy@QTreeView@@MAEXHH@Z 0041b5b8     Qt5Widgets:Qt5Widgets.dll
 0002:000005bc       __imp_?scrollTo@QTreeView@@UAEXABVQModelIndex@@W4ScrollHint@QAbstractItemView@@@Z 0041b5bc     Qt5Widgets:Qt5Widgets.dll
 0002:000005c0       __imp_?selectAll@QTreeView@@UAEXXZ 0041b5c0     Qt5Widgets:Qt5Widgets.dll
 0002:000005c4       __imp_?selectedIndexes@QTreeView@@MBE?AV?$QList@VQModelIndex@@@@XZ 0041b5c4     Qt5Widgets:Qt5Widgets.dll
 0002:000005c8       __imp_?selectionChanged@QTreeView@@MAEXABVQItemSelection@@0@Z 0041b5c8     Qt5Widgets:Qt5Widgets.dll
 0002:000005cc       __imp_?selectionCommand@QAbstractItemView@@MBE?AV?$QFlags@W4SelectionFlag@QItemSelectionModel@@@@ABVQModelIndex@@PBVQEvent@@@Z 0041b5cc     Qt5Widgets:Qt5Widgets.dll
 0002:000005d0       __imp_?setData@QTreeWidgetItem@@UAEXHHABVQVariant@@@Z 0041b5d0     Qt5Widgets:Qt5Widgets.dll
 0002:000005d4       __imp_?setGeometry@QBoxLayout@@UAEXABVQRect@@@Z 0041b5d4     Qt5Widgets:Qt5Widgets.dll
 0002:000005d8       __imp_?setGeometry@QSpacerItem@@UAEXABVQRect@@@Z 0041b5d8     Qt5Widgets:Qt5Widgets.dll
 0002:000005dc       __imp_?setModel@QTreeWidget@@EAEXPAVQAbstractItemModel@@@Z 0041b5dc     Qt5Widgets:Qt5Widgets.dll
 0002:000005e0       __imp_?setRootIndex@QTreeView@@UAEXABVQModelIndex@@@Z 0041b5e0     Qt5Widgets:Qt5Widgets.dll
 0002:000005e4       __imp_?setSelection@QTreeView@@MAEXABVQRect@@V?$QFlags@W4SelectionFlag@QItemSelectionModel@@@@@Z 0041b5e4     Qt5Widgets:Qt5Widgets.dll
 0002:000005e8       __imp_?setSelectionModel@QTreeWidget@@UAEXPAVQItemSelectionModel@@@Z 0041b5e8     Qt5Widgets:Qt5Widgets.dll
 0002:000005ec       __imp_?setVisible@QMenuBar@@UAEX_N@Z 0041b5ec     Qt5Widgets:Qt5Widgets.dll
 0002:000005f0       __imp_?setVisible@QWidget@@UAEX_N@Z 0041b5f0     Qt5Widgets:Qt5Widgets.dll
 0002:000005f4       __imp_?setupViewport@QAbstractScrollArea@@UAEXPAVQWidget@@@Z 0041b5f4     Qt5Widgets:Qt5Widgets.dll
 0002:000005f8       __imp_?sharedPainter@QWidget@@MBEPAVQPainter@@XZ 0041b5f8     Qt5Widgets:Qt5Widgets.dll
 0002:000005fc       __imp_?showEvent@QStatusBar@@MAEXPAVQShowEvent@@@Z 0041b5fc     Qt5Widgets:Qt5Widgets.dll
 0002:00000600       __imp_?showEvent@QWidget@@MAEXPAVQShowEvent@@@Z 0041b600     Qt5Widgets:Qt5Widgets.dll
 0002:00000604       __imp_?sizeHint@QAbstractScrollArea@@UBE?AVQSize@@XZ 0041b604     Qt5Widgets:Qt5Widgets.dll
 0002:00000608       __imp_?sizeHint@QBoxLayout@@UBE?AVQSize@@XZ 0041b608     Qt5Widgets:Qt5Widgets.dll
 0002:0000060c       __imp_?sizeHint@QLabel@@UBE?AVQSize@@XZ 0041b60c     Qt5Widgets:Qt5Widgets.dll
 0002:00000610       __imp_?sizeHint@QMenu@@UBE?AVQSize@@XZ 0041b610     Qt5Widgets:Qt5Widgets.dll
 0002:00000614       __imp_?sizeHint@QMenuBar@@UBE?AVQSize@@XZ 0041b614     Qt5Widgets:Qt5Widgets.dll
 0002:00000618       __imp_?sizeHint@QSpacerItem@@UBE?AVQSize@@XZ 0041b618     Qt5Widgets:Qt5Widgets.dll
 0002:0000061c       __imp_?sizeHint@QSplitter@@UBE?AVQSize@@XZ 0041b61c     Qt5Widgets:Qt5Widgets.dll
 0002:00000620       __imp_?sizeHint@QWidget@@UBE?AVQSize@@XZ 0041b620     Qt5Widgets:Qt5Widgets.dll
 0002:00000624       __imp_?sizeHintForColumn@QTreeView@@MBEHH@Z 0041b624     Qt5Widgets:Qt5Widgets.dll
 0002:00000628       __imp_?sizeHintForRow@QAbstractItemView@@UBEHH@Z 0041b628     Qt5Widgets:Qt5Widgets.dll
 0002:0000062c       __imp_?spacerItem@QLayoutItem@@UAEPAVQSpacerItem@@XZ 0041b62c     Qt5Widgets:Qt5Widgets.dll
 0002:00000630       __imp_?spacerItem@QSpacerItem@@UAEPAV1@XZ 0041b630     Qt5Widgets:Qt5Widgets.dll
 0002:00000634       __imp_?startDrag@QAbstractItemView@@MAEXV?$QFlags@W4DropAction@Qt@@@@@Z 0041b634     Qt5Widgets:Qt5Widgets.dll
 0002:00000638       __imp_?supportedDropActions@QTreeWidget@@MBE?AV?$QFlags@W4DropAction@Qt@@@@XZ 0041b638     Qt5Widgets:Qt5Widgets.dll
 0002:0000063c       __imp_?tabletEvent@QWidget@@MAEXPAVQTabletEvent@@@Z 0041b63c     Qt5Widgets:Qt5Widgets.dll
 0002:00000640       __imp_?takeAt@QBoxLayout@@UAEPAVQLayoutItem@@H@Z 0041b640     Qt5Widgets:Qt5Widgets.dll
 0002:00000644       __imp_?timerEvent@QMenu@@MAEXPAVQTimerEvent@@@Z 0041b644     Qt5Widgets:Qt5Widgets.dll
 0002:00000648       __imp_?timerEvent@QMenuBar@@MAEXPAVQTimerEvent@@@Z 0041b648     Qt5Widgets:Qt5Widgets.dll
 0002:0000064c       __imp_?timerEvent@QTreeView@@MAEXPAVQTimerEvent@@@Z 0041b64c     Qt5Widgets:Qt5Widgets.dll
 0002:00000650       __imp_?updateEditorData@QAbstractItemView@@MAEXXZ 0041b650     Qt5Widgets:Qt5Widgets.dll
 0002:00000654       __imp_?updateEditorGeometries@QAbstractItemView@@MAEXXZ 0041b654     Qt5Widgets:Qt5Widgets.dll
 0002:00000658       __imp_?updateGeometries@QTreeView@@MAEXXZ 0041b658     Qt5Widgets:Qt5Widgets.dll
 0002:0000065c       __imp_?verticalOffset@QTreeView@@MBEHXZ 0041b65c     Qt5Widgets:Qt5Widgets.dll
 0002:00000660       __imp_?verticalScrollbarAction@QAbstractItemView@@MAEXH@Z 0041b660     Qt5Widgets:Qt5Widgets.dll
 0002:00000664       __imp_?verticalScrollbarValueChanged@QAbstractItemView@@MAEXH@Z 0041b664     Qt5Widgets:Qt5Widgets.dll
 0002:00000668       __imp_?viewOptions@QAbstractItemView@@MBE?AVQStyleOptionViewItem@@XZ 0041b668     Qt5Widgets:Qt5Widgets.dll
 0002:0000066c       __imp_?viewportEvent@QTreeView@@MAE_NPAVQEvent@@@Z 0041b66c     Qt5Widgets:Qt5Widgets.dll
 0002:00000670       __imp_?viewportSizeHint@QTreeView@@MBE?AVQSize@@XZ 0041b670     Qt5Widgets:Qt5Widgets.dll
 0002:00000674       __imp_?visualRect@QTreeView@@UBE?AVQRect@@ABVQModelIndex@@@Z 0041b674     Qt5Widgets:Qt5Widgets.dll
 0002:00000678       __imp_?visualRegionForSelection@QTreeView@@MBE?AVQRegion@@ABVQItemSelection@@@Z 0041b678     Qt5Widgets:Qt5Widgets.dll
 0002:0000067c       __imp_?wheelEvent@QAbstractScrollArea@@MAEXPAVQWheelEvent@@@Z 0041b67c     Qt5Widgets:Qt5Widgets.dll
 0002:00000680       __imp_?wheelEvent@QMenu@@MAEXPAVQWheelEvent@@@Z 0041b680     Qt5Widgets:Qt5Widgets.dll
 0002:00000684       __imp_?wheelEvent@QWidget@@MAEXPAVQWheelEvent@@@Z 0041b684     Qt5Widgets:Qt5Widgets.dll
 0002:00000688       __imp_?widget@QLayoutItem@@UAEPAVQWidget@@XZ 0041b688     Qt5Widgets:Qt5Widgets.dll
 0002:0000068c       __imp_?write@QTreeWidgetItem@@UBEXAAVQDataStream@@@Z 0041b68c     Qt5Widgets:Qt5Widgets.dll
 0002:00000690       __imp_?qt_metacast@QMainWindow@@UAEPAXPBD@Z 0041b690     Qt5Widgets:Qt5Widgets.dll
 0002:00000694       __imp_?qt_metacall@QMainWindow@@UAEHW4Call@QMetaObject@@HPAPAX@Z 0041b694     Qt5Widgets:Qt5Widgets.dll
 0002:00000698       __imp_?staticMetaObject@QMainWindow@@2UQMetaObject@@B 0041b698     Qt5Widgets:Qt5Widgets.dll
 0002:0000069c       __imp_?showMinimized@QWidget@@QAEXXZ 0041b69c     Qt5Widgets:Qt5Widgets.dll
 0002:000006a0       __imp_??0QApplication@@QAE@AAHPAPADH@Z 0041b6a0     Qt5Widgets:Qt5Widgets.dll
 0002:000006a4       __imp_??1QApplication@@UAE@XZ 0041b6a4     Qt5Widgets:Qt5Widgets.dll
 0002:000006a8       __imp_?exec@QApplication@@SAHXZ 0041b6a8     Qt5Widgets:Qt5Widgets.dll
 0002:000006ac       __imp_?currentChanged@QTreeView@@MAEXABVQModelIndex@@0@Z 0041b6ac     Qt5Widgets:Qt5Widgets.dll
 0002:000006b0       __imp_?createPopupMenu@QMainWindow@@UAEPAVQMenu@@XZ 0041b6b0     Qt5Widgets:Qt5Widgets.dll
 0002:000006b4       __imp_?setShortcut@QAction@@QAEXABVQKeySequence@@@Z 0041b6b4     Qt5Widgets:Qt5Widgets.dll
 0002:000006b8       __imp_?setText@QAction@@QAEXABVQString@@@Z 0041b6b8     Qt5Widgets:Qt5Widgets.dll
 0002:000006bc       __imp_??1QAction@@UAE@XZ   0041b6bc     Qt5Widgets:Qt5Widgets.dll
 0002:000006c0       __imp_??0QAction@@QAE@PAVQObject@@@Z 0041b6c0     Qt5Widgets:Qt5Widgets.dll
 0002:000006c4       __imp_?addToolBar@QMainWindow@@QAEXW4ToolBarArea@Qt@@PAVQToolBar@@@Z 0041b6c4     Qt5Widgets:Qt5Widgets.dll
 0002:000006c8       __imp_?setCentralWidget@QMainWindow@@QAEXPAVQWidget@@@Z 0041b6c8     Qt5Widgets:Qt5Widgets.dll
 0002:000006cc       __imp_?setStatusBar@QMainWindow@@QAEXPAVQStatusBar@@@Z 0041b6cc     Qt5Widgets:Qt5Widgets.dll
 0002:000006d0       __imp_?setMenuBar@QMainWindow@@QAEXPAVQMenuBar@@@Z 0041b6d0     Qt5Widgets:Qt5Widgets.dll
 0002:000006d4       __imp_??1QMainWindow@@UAE@XZ 0041b6d4     Qt5Widgets:Qt5Widgets.dll
 0002:000006d8       __imp_??0QMainWindow@@QAE@PAVQWidget@@V?$QFlags@W4WindowType@Qt@@@@@Z 0041b6d8     Qt5Widgets:Qt5Widgets.dll
 0002:000006dc       __imp_?addAction@QWidget@@QAEXPAVQAction@@@Z 0041b6dc     Qt5Widgets:Qt5Widgets.dll
 0002:000006e0       __imp_?setGeometry@QWidget@@QAEXABVQRect@@@Z 0041b6e0     Qt5Widgets:Qt5Widgets.dll
 0002:000006e4       __imp_?resize@QWidget@@QAEXABVQSize@@@Z 0041b6e4     Qt5Widgets:Qt5Widgets.dll
 0002:000006e8       __imp_?close@QWidget@@QAE_NXZ 0041b6e8     Qt5Widgets:Qt5Widgets.dll
 0002:000006ec       __imp_?update@QWidget@@QAEXXZ 0041b6ec     Qt5Widgets:Qt5Widgets.dll
 0002:000006f0       __imp_?setWindowIcon@QWidget@@QAEXABVQIcon@@@Z 0041b6f0     Qt5Widgets:Qt5Widgets.dll
 0002:000006f4       __imp_?setWindowTitle@QWidget@@QAEXABVQString@@@Z 0041b6f4     Qt5Widgets:Qt5Widgets.dll
 0002:000006f8       __imp_?winId@QWidget@@QBEIXZ 0041b6f8     Qt5Widgets:Qt5Widgets.dll
 0002:000006fc       __imp_??1QWidget@@UAE@XZ   0041b6fc     Qt5Widgets:Qt5Widgets.dll
 0002:00000700       __imp_??0QWidget@@QAE@PAV0@V?$QFlags@W4WindowType@Qt@@@@@Z 0041b700     Qt5Widgets:Qt5Widgets.dll
 0002:00000704       __imp_?dragLeaveEvent@QAbstractItemView@@MAEXPAVQDragLeaveEvent@@@Z 0041b704     Qt5Widgets:Qt5Widgets.dll
 0002:00000708       __imp_?dragEnterEvent@QWidget@@MAEXPAVQDragEnterEvent@@@Z 0041b708     Qt5Widgets:Qt5Widgets.dll
 0002:0000070c       __imp_?dragEnterEvent@QAbstractItemView@@MAEXPAVQDragEnterEvent@@@Z 0041b70c     Qt5Widgets:Qt5Widgets.dll
 0002:00000710       __imp_?doItemsLayout@QTreeView@@UAEXXZ 0041b710     Qt5Widgets:Qt5Widgets.dll
 0002:00000714       __imp_?devType@QWidget@@UBEHXZ 0041b714     Qt5Widgets:Qt5Widgets.dll
 0002:00000718       __imp_?nativeEvent@QWidget@@MAE_NABVQByteArray@@PAXPAJ@Z 0041b718     Qt5Widgets:Qt5Widgets.dll
 0002:0000071c       __imp_?dataChanged@QTreeView@@UAEXABVQModelIndex@@0ABV?$QVector@H@@@Z 0041b71c     Qt5Widgets:Qt5Widgets.dll
 0002:00000720       __imp_?createHandle@QSplitter@@MAEPAVQSplitterHandle@@XZ 0041b720     Qt5Widgets:Qt5Widgets.dll
 0002:00000724       __imp_?count@QBoxLayout@@UBEHXZ 0041b724     Qt5Widgets:Qt5Widgets.dll
 0002:00000728       __imp_?controlTypes@QLayoutItem@@UBE?AV?$QFlags@W4ControlType@QSizePolicy@@@@XZ 0041b728     Qt5Widgets:Qt5Widgets.dll
 0002:0000072c       __imp_?controlTypes@QLayout@@UBE?AV?$QFlags@W4ControlType@QSizePolicy@@@@XZ 0041b72c     Qt5Widgets:Qt5Widgets.dll
 0002:00000730       __imp_?contextMenuEvent@QWidget@@MAEXPAVQContextMenuEvent@@@Z 0041b730     Qt5Widgets:Qt5Widgets.dll
 0002:00000734       __imp_?contextMenuEvent@QMainWindow@@MAEXPAVQContextMenuEvent@@@Z 0041b734     Qt5Widgets:Qt5Widgets.dll
 0002:00000738       __imp_?contextMenuEvent@QLabel@@MAEXPAVQContextMenuEvent@@@Z 0041b738     Qt5Widgets:Qt5Widgets.dll
 0002:0000073c       __imp_?contextMenuEvent@QAbstractScrollArea@@MAEXPAVQContextMenuEvent@@@Z 0041b73c     Qt5Widgets:Qt5Widgets.dll
 0002:00000740       __imp_?commitData@QAbstractItemView@@MAEXPAVQWidget@@@Z 0041b740     Qt5Widgets:Qt5Widgets.dll
 0002:00000744       __imp_?closeEvent@QWidget@@MAEXPAVQCloseEvent@@@Z 0041b744     Qt5Widgets:Qt5Widgets.dll
 0002:00000748       __imp_?closeEditor@QAbstractItemView@@MAEXPAVQWidget@@W4EndEditHint@QAbstractItemDelegate@@@Z 0041b748     Qt5Widgets:Qt5Widgets.dll
 0002:0000074c       __imp_?clone@QTreeWidgetItem@@UBEPAV1@XZ 0041b74c     Qt5Widgets:Qt5Widgets.dll
 0002:00000750       __imp_?childEvent@QSplitter@@MAEXPAVQChildEvent@@@Z 0041b750     Qt5Widgets:Qt5Widgets.dll
 0002:00000754       __imp_?childEvent@QLayout@@MAEXPAVQChildEvent@@@Z 0041b754     Qt5Widgets:Qt5Widgets.dll
 0002:00000758       __imp_?childEvent@QGroupBox@@MAEXPAVQChildEvent@@@Z 0041b758     Qt5Widgets:Qt5Widgets.dll
 0002:0000075c       __imp_?changeEvent@QWidget@@MAEXPAVQEvent@@@Z 0041b75c     Qt5Widgets:Qt5Widgets.dll
 0002:00000760       __imp_?changeEvent@QToolBar@@MAEXPAVQEvent@@@Z 0041b760     Qt5Widgets:Qt5Widgets.dll
 0002:00000764       __imp_?changeEvent@QSplitter@@MAEXPAVQEvent@@@Z 0041b764     Qt5Widgets:Qt5Widgets.dll
 0002:00000768       __imp_?changeEvent@QMenuBar@@MAEXPAVQEvent@@@Z 0041b768     Qt5Widgets:Qt5Widgets.dll
 0002:0000076c       __imp_?changeEvent@QMenu@@MAEXPAVQEvent@@@Z 0041b76c     Qt5Widgets:Qt5Widgets.dll
 0002:00000770       __imp_?changeEvent@QLabel@@MAEXPAVQEvent@@@Z 0041b770     Qt5Widgets:Qt5Widgets.dll
 0002:00000774       __imp_?changeEvent@QGroupBox@@MAEXPAVQEvent@@@Z 0041b774     Qt5Widgets:Qt5Widgets.dll
 0002:00000778       __imp_?changeEvent@QFrame@@MAEXPAVQEvent@@@Z 0041b778     Qt5Widgets:Qt5Widgets.dll
 0002:0000077c       __imp_?addItem@QBoxLayout@@UAEXPAVQLayoutItem@@@Z 0041b77c     Qt5Widgets:Qt5Widgets.dll
 0002:00000780       __imp_?actionEvent@QWidget@@MAEXPAVQActionEvent@@@Z 0041b780     Qt5Widgets:Qt5Widgets.dll
 0002:00000784       __imp_?actionEvent@QToolBar@@MAEXPAVQActionEvent@@@Z 0041b784     Qt5Widgets:Qt5Widgets.dll
 0002:00000788       __imp_?actionEvent@QMenuBar@@MAEXPAVQActionEvent@@@Z 0041b788     Qt5Widgets:Qt5Widgets.dll
 0002:0000078c       __imp_?actionEvent@QMenu@@MAEXPAVQActionEvent@@@Z 0041b78c     Qt5Widgets:Qt5Widgets.dll
 0002:00000790       __imp_??MQTreeWidgetItem@@UBE_NABV0@@Z 0041b790     Qt5Widgets:Qt5Widgets.dll
 0002:00000794       __imp_?critical@QMessageBox@@SAHPAVQWidget@@ABVQString@@1W4StandardButton@1@2@Z 0041b794     Qt5Widgets:Qt5Widgets.dll
 0002:00000798       __imp_?critical@QMessageBox@@SA?AW4StandardButton@1@PAVQWidget@@ABVQString@@1V?$QFlags@W4StandardButton@QMessageBox@@@@W421@@Z 0041b798     Qt5Widgets:Qt5Widgets.dll
 0002:0000079c       __imp_?information@QMessageBox@@SA?AW4StandardButton@1@PAVQWidget@@ABVQString@@1V?$QFlags@W4StandardButton@QMessageBox@@@@W421@@Z 0041b79c     Qt5Widgets:Qt5Widgets.dll
 0002:000007a0       __imp_?findItems@QTreeWidget@@QBE?AV?$QList@PAVQTreeWidgetItem@@@@ABVQString@@V?$QFlags@W4MatchFlag@Qt@@@@H@Z 0041b7a0     Qt5Widgets:Qt5Widgets.dll
 0002:000007a4       __imp_?setHeaderItem@QTreeWidget@@QAEXPAVQTreeWidgetItem@@@Z 0041b7a4     Qt5Widgets:Qt5Widgets.dll
 0002:000007a8       __imp_?headerItem@QTreeWidget@@QBEPAVQTreeWidgetItem@@XZ 0041b7a8     Qt5Widgets:Qt5Widgets.dll
 0002:000007ac       __imp_??1QTreeWidget@@UAE@XZ 0041b7ac     Qt5Widgets:Qt5Widgets.dll
 0002:000007b0       __imp_??0QTreeWidget@@QAE@PAVQWidget@@@Z 0041b7b0     Qt5Widgets:Qt5Widgets.dll
 0002:000007b4       __imp_?setText@QTreeWidgetItem@@QAEXHABVQString@@@Z 0041b7b4     Qt5Widgets:Qt5Widgets.dll
 0002:000007b8       __imp_??1QTreeWidgetItem@@UAE@XZ 0041b7b8     Qt5Widgets:Qt5Widgets.dll
 0002:000007bc       __imp_??0QTreeWidgetItem@@QAE@PAVQTreeWidget@@ABVQStringList@@H@Z 0041b7bc     Qt5Widgets:Qt5Widgets.dll
 0002:000007c0       __imp_??0QTreeWidgetItem@@QAE@H@Z 0041b7c0     Qt5Widgets:Qt5Widgets.dll
 0002:000007c4       __imp_??1QToolBar@@UAE@XZ  0041b7c4     Qt5Widgets:Qt5Widgets.dll
 0002:000007c8       __imp_??0QToolBar@@QAE@PAVQWidget@@@Z 0041b7c8     Qt5Widgets:Qt5Widgets.dll
 0002:000007cc       __imp_??1QStatusBar@@UAE@XZ 0041b7cc     Qt5Widgets:Qt5Widgets.dll
 0002:000007d0       __imp_??0QStatusBar@@QAE@PAVQWidget@@@Z 0041b7d0     Qt5Widgets:Qt5Widgets.dll
 0002:000007d4       __imp_?setOrientation@QSplitter@@QAEXW4Orientation@Qt@@@Z 0041b7d4     Qt5Widgets:Qt5Widgets.dll
 0002:000007d8       __imp_?addWidget@QSplitter@@QAEXPAVQWidget@@@Z 0041b7d8     Qt5Widgets:Qt5Widgets.dll
 0002:000007dc       __imp_??1QSplitter@@UAE@XZ 0041b7dc     Qt5Widgets:Qt5Widgets.dll
 0002:000007e0       __imp_??0QSplitter@@QAE@PAVQWidget@@@Z 0041b7e0     Qt5Widgets:Qt5Widgets.dll
 0002:000007e4       __imp_??1QMenuBar@@UAE@XZ  0041b7e4     Qt5Widgets:Qt5Widgets.dll
 0002:000007e8       __imp_??0QMenuBar@@QAE@PAVQWidget@@@Z 0041b7e8     Qt5Widgets:Qt5Widgets.dll
 0002:000007ec       __imp_?setTitle@QMenu@@QAEXABVQString@@@Z 0041b7ec     Qt5Widgets:Qt5Widgets.dll
 0002:000007f0       __imp_?menuAction@QMenu@@QBEPAVQAction@@XZ 0041b7f0     Qt5Widgets:Qt5Widgets.dll
 0002:000007f4       __imp_??1QMenu@@UAE@XZ     0041b7f4     Qt5Widgets:Qt5Widgets.dll
 0002:000007f8       __imp_??0QMenu@@QAE@PAVQWidget@@@Z 0041b7f8     Qt5Widgets:Qt5Widgets.dll
 0002:000007fc       __imp_?setText@QLabel@@QAEXABVQString@@@Z 0041b7fc     Qt5Widgets:Qt5Widgets.dll
 0002:00000800       __imp_??1QLabel@@UAE@XZ    0041b800     Qt5Widgets:Qt5Widgets.dll
 0002:00000804       __imp_??0QLabel@@QAE@PAVQWidget@@V?$QFlags@W4WindowType@Qt@@@@@Z 0041b804     Qt5Widgets:Qt5Widgets.dll
 0002:00000808       __imp_??1QVBoxLayout@@UAE@XZ 0041b808     Qt5Widgets:Qt5Widgets.dll
 0002:0000080c       __imp_??0QVBoxLayout@@QAE@PAVQWidget@@@Z 0041b80c     Qt5Widgets:Qt5Widgets.dll
 0002:00000810       __imp_??1QHBoxLayout@@UAE@XZ 0041b810     Qt5Widgets:Qt5Widgets.dll
 0002:00000814       __imp_??0QHBoxLayout@@QAE@PAVQWidget@@@Z 0041b814     Qt5Widgets:Qt5Widgets.dll
 0002:00000818       __imp_??0QHBoxLayout@@QAE@XZ 0041b818     Qt5Widgets:Qt5Widgets.dll
 0002:0000081c       __imp_?setSpacing@QBoxLayout@@QAEXH@Z 0041b81c     Qt5Widgets:Qt5Widgets.dll
 0002:00000820       __imp_?addLayout@QBoxLayout@@QAEXPAVQLayout@@H@Z 0041b820     Qt5Widgets:Qt5Widgets.dll
 0002:00000824       __imp_?addWidget@QBoxLayout@@QAEXPAVQWidget@@HV?$QFlags@W4AlignmentFlag@Qt@@@@@Z 0041b824     Qt5Widgets:Qt5Widgets.dll
 0002:00000828       __imp_?setContentsMargins@QLayout@@QAEXHHHH@Z 0041b828     Qt5Widgets:Qt5Widgets.dll
 0002:0000082c       __imp_??1QSpacerItem@@UAE@XZ 0041b82c     Qt5Widgets:Qt5Widgets.dll
 0002:00000830       __imp_??0QSpacerItem@@QAE@HHW4Policy@QSizePolicy@@0@Z 0041b830     Qt5Widgets:Qt5Widgets.dll
 0002:00000834       __imp_?setTitle@QGroupBox@@QAEXABVQString@@@Z 0041b834     Qt5Widgets:Qt5Widgets.dll
 0002:00000838       __imp_??1QGroupBox@@UAE@XZ 0041b838     Qt5Widgets:Qt5Widgets.dll
 0002:0000083c       __imp_?moveEvent@QWidget@@MAEXPAVQMoveEvent@@@Z 0041b83c     Qt5Widgets:Qt5Widgets.dll
 0002:00000840       __imp_??0QGroupBox@@QAE@PAVQWidget@@@Z 0041b840     Qt5Widgets:Qt5Widgets.dll
 0002:00000844       __imp_?keyPressEvent@QMenu@@MAEXPAVQKeyEvent@@@Z 0041b844     Qt5Widgets:Qt5Widgets.dll
 0002:00000848       __imp_?metaObject@QVBoxLayout@@UBEPBUQMetaObject@@XZ 0041b848     Qt5Widgets:Qt5Widgets.dll
 0002:0000084c       \177Qt5Widgets_NULL_THUNK_DATA 0041b84c     Qt5Widgets:Qt5Widgets.dll
 0002:00000850       __imp_??0QXmlNamePool@@QAE@XZ 0041b850     Qt5XmlPatterns:Qt5XmlPatterns.dll
 0002:00000854       __imp_?evaluateTo@QXmlQuery@@QBE_NPAVQString@@@Z 0041b854     Qt5XmlPatterns:Qt5XmlPatterns.dll
 0002:00000858       __imp_?setQuery@QXmlQuery@@QAEXABVQString@@ABVQUrl@@@Z 0041b858     Qt5XmlPatterns:Qt5XmlPatterns.dll
 0002:0000085c       __imp_??1QXmlQuery@@QAE@XZ 0041b85c     Qt5XmlPatterns:Qt5XmlPatterns.dll
 0002:00000860       __imp_??0QXmlQuery@@QAE@W4QueryLanguage@0@ABVQXmlNamePool@@@Z 0041b860     Qt5XmlPatterns:Qt5XmlPatterns.dll
 0002:00000864       __imp_??1QXmlNamePool@@QAE@XZ 0041b864     Qt5XmlPatterns:Qt5XmlPatterns.dll
 0002:00000868       \177Qt5XmlPatterns_NULL_THUNK_DATA 0041b868     Qt5XmlPatterns:Qt5XmlPatterns.dll
 0002:0000086c       __imp__CommandLineToArgvW@8 0041b86c     shell32:SHELL32.dll
 0002:00000870       __imp__ShellExecuteA@24    0041b870     shell32:SHELL32.dll
 0002:00000874       \177SHELL32_NULL_THUNK_DATA 0041b874     shell32:SHELL32.dll
 0002:00000878       __imp__wsprintfA           0041b878     user32:USER32.dll
 0002:0000087c       __imp__SetWindowLongA@12   0041b87c     user32:USER32.dll
 0002:00000880       __imp__DestroyWindow@4     0041b880     user32:USER32.dll
 0002:00000884       __imp__IsWindow@4          0041b884     user32:USER32.dll
 0002:00000888       __imp__CreateWindowExA@48  0041b888     user32:USER32.dll
 0002:0000088c       __imp__RegisterClassExA@4  0041b88c     user32:USER32.dll
 0002:00000890       __imp__DefWindowProcA@16   0041b890     user32:USER32.dll
 0002:00000894       __imp__SendMessageA@16     0041b894     user32:USER32.dll
 0002:00000898       __imp__GetWindowThreadProcessId@8 0041b898     user32:USER32.dll
 0002:0000089c       __imp__FindWindowA@8       0041b89c     user32:USER32.dll
 0002:000008a0       __imp__EnumChildWindows@12 0041b8a0     user32:USER32.dll
 0002:000008a4       __imp__GetWindowLongA@8    0041b8a4     user32:USER32.dll
 0002:000008a8       __imp__MessageBoxA@16      0041b8a8     user32:USER32.dll
 0002:000008ac       __imp__PostMessageA@16     0041b8ac     user32:USER32.dll
 0002:000008b0       \177USER32_NULL_THUNK_DATA 0041b8b0     user32:USER32.dll
 0002:000008b4       __imp__GetFileVersionInfoA@16 0041b8b4     version:VERSION.dll
 0002:000008b8       __imp__GetFileVersionInfoSizeA@8 0041b8b8     version:VERSION.dll
 0002:000008bc       __imp__VerQueryValueA@16   0041b8bc     version:VERSION.dll
 0002:000008c0       \177VERSION_NULL_THUNK_DATA 0041b8c0     version:VERSION.dll
 0002:000008c4       __imp__setCsiHwnd          0041b8c4     handleshare:handleShare.dll
 0002:000008c8       \177handleShare_NULL_THUNK_DATA 0041b8c8     handleshare:handleShare.dll
 0002:000008cc       __imp_??_7Ibncs_redundancyMessageEvent@@6B@ 0041b8cc     netLegacy:netLegacy.dll
 0002:000008d0       __imp_?release@bncs_netStatusMessagingFactory@@SAXPAVIbncs_netStatusMessageCommand@@@Z 0041b8d0     netLegacy:netLegacy.dll
 0002:000008d4       __imp_?create@bncs_netStatusMessagingFactory@@SAPAVIbncs_netStatusMessageCommand@@HPBD00PAVIbncs_netStatusMessageEvent@@@Z 0041b8d4     netLegacy:netLegacy.dll
 0002:000008d8       __imp_?release@bncs_redundancyMessagingFactory@@SAXPAVIbncs_redundancyMessageCommand@@@Z 0041b8d8     netLegacy:netLegacy.dll
 0002:000008dc       __imp_?create@bncs_redundancyMessagingFactory@@SAPAVIbncs_redundancyMessageCommand@@HPBD00PAVIbncs_redundancyMessageEvent@@@Z 0041b8dc     netLegacy:netLegacy.dll
 0002:000008e0       __imp_?release@bncs_legacyMessagingFactory@@SAXPAVIbncs_legacyMessageCommand@@@Z 0041b8e0     netLegacy:netLegacy.dll
 0002:000008e4       __imp_?create@bncs_legacyMessagingFactory@@SAPAVIbncs_legacyMessageCommand@@HPBD00PAVIbncs_legacyMessageEvent@@@Z 0041b8e4     netLegacy:netLegacy.dll
 0002:000008e8       __imp_??1bncs_netStatusMessage@@QAE@XZ 0041b8e8     netLegacy:netLegacy.dll
 0002:000008ec       __imp_??0bncs_netStatusMessage@@QAE@XZ 0041b8ec     netLegacy:netLegacy.dll
 0002:000008f0       __imp_??1bncs_legacyMessage@@QAE@XZ 0041b8f0     netLegacy:netLegacy.dll
 0002:000008f4       __imp_??0bncs_legacyMessage@@QAE@XZ 0041b8f4     netLegacy:netLegacy.dll
 0002:000008f8       __imp_??_7Ibncs_legacyMessageEvent@@6B@ 0041b8f8     netLegacy:netLegacy.dll
 0002:000008fc       \177netLegacy_NULL_THUNK_DATA 0041b8fc     netLegacy:netLegacy.dll
 0002:00000900       ___xc_a                    0041b900     MSVCRT:cinitexe.obj
 0002:00000920       ___xc_z                    0041b920     MSVCRT:cinitexe.obj
 0002:00000924       ___xi_a                    0041b924     MSVCRT:cinitexe.obj
 0002:00000934       ___xi_z                    0041b934     MSVCRT:cinitexe.obj
 0002:00000940       ??_C@_00CNPNBAHC@?$AA@     0041b940     ccConfig.obj
 0002:00000948       ??_7error_category@std@@6B@ 0041b948     ccConfig.obj
 0002:00000964       ??_7_Generic_error_category@std@@6B@ 0041b964     ccConfig.obj
 0002:0000097c       ??_C@_07DCLBNMLN@generic?$AA@ 0041b97c     ccConfig.obj
 0002:00000984       ??_C@_0O@BFJCFAAK@unknown?5error?$AA@ 0041b984     ccConfig.obj
 0002:00000998       ??_7_Iostream_error_category@std@@6B@ 0041b998     ccConfig.obj
 0002:000009b0       ??_C@_08LLGCOLLL@iostream?$AA@ 0041b9b0     ccConfig.obj
 0002:000009bc       ??_C@_0BG@PADBLCHM@iostream?5stream?5error?$AA@ 0041b9bc     ccConfig.obj
 0002:000009d8       ??_7_System_error_category@std@@6B@ 0041b9d8     ccConfig.obj
 0002:000009f0       ??_C@_06FHFOAHML@system?$AA@ 0041b9f0     ccConfig.obj
 0002:000009f8       ??_C@_02DPKJAMEF@?$CFd?$AA@ 0041b9f8     ccConfig.obj
 0002:000009fc       ??_C@_01KICIPPFI@?2?$AA@   0041b9fc     ccConfig.obj
 0002:00000a00       ??_C@_0BA@MNCCGPDL@?$CFs?2dev_?$CF03d?4ini?$AA@ 0041ba00     ccConfig.obj
 0002:00000a10       ??_C@_07IOFNEBNE@?2config?$AA@ 0041ba10     ccConfig.obj
 0002:00000a18       ??_C@_09DDAHAMBK@CC_SYSTEM?$AA@ 0041ba18     ccConfig.obj
 0002:00000a24       ??_C@_07JBEBLGDD@CC_ROOT?$AA@ 0041ba24     ccConfig.obj
 0002:00000a2c       ??_C@_0BD@FFAKGAPP@c?3?2bncs_config?4ini?$AA@ 0041ba2c     ccConfig.obj
 0002:00000a40       ??_C@_0L@DHJBNFFA@ConfigPath?$AA@ 0041ba40     ccConfig.obj
 0002:00000a4c       ??_C@_06LLCHJONG@Config?$AA@ 0041ba4c     ccConfig.obj
 0002:00000a54       ??_C@_06KIMFAMMH@WINDIR?$AA@ 0041ba54     ccConfig.obj
 0002:00000a5c       ??_C@_0P@PKHJHOPF@CC_WORKSTATION?$AA@ 0041ba5c     ccConfig.obj
 0002:00000a6c       ??_C@_0M@CILGCIDH@Workstation?$AA@ 0041ba6c     ccConfig.obj
 0002:00000a78       ??_C@_07BGDMAJAE@Network?$AA@ 0041ba78     ccConfig.obj
 0002:00000a80       ??_C@_0BO@GPPILLIC@config?2system?2bncs_system?4ini?$AA@ 0041ba80     ccConfig.obj
 0002:00000aa0       ??_C@_07PIGLAMMC@csi?4ini?$AA@ 0041baa0     ccConfig.obj
 0002:00000aa8       ??_C@_06JIODDOFH@System?$AA@ 0041baa8     ccConfig.obj
 0002:00000ab0       ??_C@_0N@LDBPMCOK@applcore?4ini?$AA@ 0041bab0     ccConfig.obj
 0002:00000ac0       ??_C@_01KDCPPGHE@r?$AA@    0041bac0     ccConfig.obj
 0002:00000ac4       ??_C@_01EEMJAFIK@?6?$AA@   0041bac4     ccConfig.obj
 0002:00000ac8       ??_C@_0BA@JFNIOLAK@string?5too?5long?$AA@ 0041bac8     ccConfig.obj
 0002:00000ad8       ??_C@_0BI@CFPLBAOH@invalid?5string?5position?$AA@ 0041bad8     ccConfig.obj
 0002:00000af0       ??_C@_0BB@MOGOBHAF@list?$DMT?$DO?5too?5long?$AA@ 0041baf0     ccConfig.obj
 0002:00000b04       ??_C@_0BE@JONHPENG@map?1set?$DMT?$DO?5too?5long?$AA@ 0041bb04     ccConfig.obj
 0002:00000b1c       ??_7database@@6B@          0041bb1c     database.obj
 0002:00000b20       ??_C@_0BA@POEEPAJD@DatabaseSize_?$CFd?$AA@ 0041bb20     database.obj
 0002:00000b30       ??_C@_08HDBDMMBI@Database?$AA@ 0041bb30     database.obj
 0002:00000b3c       ??_C@_0BA@BPJACOFK@DatabaseFile_?$CFd?$AA@ 0041bb3c     database.obj
 0002:00000b4c       ??_C@_0BA@JEKJJHOL@dev_?$CF03d?4db?$CF04d?$AA@ 0041bb4c     database.obj
 0002:00000b5c       ??_C@_0BN@EOGGJMBF@database?3?3load?5?9?5Can?8t?5find?5?$AA@ 0041bb5c     database.obj
 0002:00000b7c       ??_C@_0BD@EHJDLHKE@?5setting?5in?5file?3?5?$AA@ 0041bb7c     database.obj
 0002:00000b90       ??_C@_0BJ@FGPGKDMA@?4?5Does?5this?5file?5exist?$DP?6?$AA@ 0041bb90     database.obj
 0002:00000bac       ??_C@_05BMGBEOOC@?$CFs?2?$CFs?$AA@ 0041bbac     database.obj
 0002:00000bb4       ??_C@_0L@PNKOEJPL@?$FLDatabase_?$AA@ 0041bbb4     database.obj
 0002:00000bc0       ??_C@_0CD@HAOBKGHO@database?3?3load?5?9?5can?8t?5open?5file@ 0041bbc0     database.obj
 0002:00000be4       ??_C@_03JMFMNIFM@?9?9?9?$AA@ 0041bbe4     database.obj
 0002:00000be8       ??_C@_03HDCFNBIM@?$CB?$CB?$CB?$AA@ 0041bbe8     database.obj
 0002:00000bec       ??_C@_0M@FNLNBOHL@Database_?$CFd?$AA@ 0041bbec     database.obj
 0002:00000bf8       ??_C@_04OCCELDNI@?$CF04d?$AA@ 0041bbf8     database.obj
 0002:00000c00       ??_C@_01BJJEKLCA@?$CC?$AA@ 0041bc00     database.obj
 0002:00000c08       ??_7databaseMgr@@6B@       0041bc08     databaseMgr.obj
 0002:00000c0c       ??_C@_0BE@PHFFEGCA@?$CFs?2?$CFs?2config?2system?$AA@ 0041bc0c     databaseMgr.obj
 0002:00000c20       ??_C@_04FABLJDN@Name?$AA@  0041bc20     databaseMgr.obj
 0002:00000c2c       ??_7decodeBNCSString@@6B@  0041bc2c     decodeBNCSString.obj
 0002:00000c30       ??_C@_0M@OEELMHNC@32?532?5123?52?$AA@ 0041bc30     bncs_csi.obj
 0002:00000c3c       ??_C@_09KNCBCGCK@?5?5?7c?5None?$AA@ 0041bc3c     bncs_csi.obj
 0002:00000c48       ??_C@_0N@FAJGKCHL@?4?5?7c?5?$CDF18383?$AA@ 0041bc48     bncs_csi.obj
 0002:00000c58       ??_C@_0N@HKEMLNMO@?$CL?5?7c?5?$CDF46464?$AA@ 0041bc58     bncs_csi.obj
 0002:00000c68       ??_C@_0N@MCFNFEGD@?$EA?5?7c?5?$CDF15D5D?$AA@ 0041bc68     bncs_csi.obj
 0002:00000c78       ??_C@_0N@HFFHKMPO@?$CD?5?7c?5?$CDEC5B5B?$AA@ 0041bc78     bncs_csi.obj
 0002:00000c88       ??_C@_0N@DEALPDBF@$?5?7c?5?$CDE95555?$AA@ 0041bc88     bncs_csi.obj
 0002:00000c98       ??_C@_0N@PEKEGPGK@?$CF?5?7c?5?$CDE45454?$AA@ 0041bc98     bncs_csi.obj
 0002:00000ca8       ??_C@_0N@EGDCCMHA@?$CG?5?7c?5?$CDE24E4E?$AA@ 0041bca8     bncs_csi.obj
 0002:00000cb8       ??_C@_0N@IKNBMEBH@?$CK?5?7c?5?$CDDA4646?$AA@ 0041bcb8     bncs_csi.obj
 0002:00000cc8       ??_C@_0N@JNHAGCFG@?$DN?5?7c?5?$CDD34444?$AA@ 0041bcc8     bncs_csi.obj
 0002:00000cd8       ??_C@_0N@LAODFCPC@?9?5?7c?5?$CDD23E3E?$AA@ 0041bcd8     bncs_csi.obj
 0002:00000ce8       ??_C@_0N@LGLLGLNJ@?$DL?5?7c?5?$CDCB3737?$AA@ 0041bce8     bncs_csi.obj
 0002:00000cf8       ??_C@_0N@MLFHJEBB@?$DO?5?7c?5?$CDB04A4A?$AA@ 0041bcf8     bncs_csi.obj
 0002:00000d08       ??_C@_0N@LFMIEOPF@?0?5?7c?5?$CDFB3535?$AA@ 0041bd08     bncs_csi.obj
 0002:00000d18       ??_C@_0N@KBCDMDDN@?8?5?7c?5?$CDFC0F0F?$AA@ 0041bd18     bncs_csi.obj
 0002:00000d28       ??_C@_0N@FICGELIK@?$CJ?5?7c?5?$CDEC1313?$AA@ 0041bd28     bncs_csi.obj
 0002:00000d38       ??_C@_0N@LBNLNBKP@?$CB?5?7c?5?$CDEB0C0C?$AA@ 0041bd38     bncs_csi.obj
 0002:00000d48       ??_C@_0N@GNBJBPAN@?$HO?5?7c?5?$CDF70A0A?$AA@ 0041bd48     bncs_csi.obj
 0002:00000d58       ??_C@_0N@MGAOFJJC@?$HL?5?7c?5?$CDEB0303?$AA@ 0041bd58     bncs_csi.obj
 0002:00000d68       ??_C@_0N@PCOHKBLG@?$FN?5?7c?5?$CDC43A3A?$AA@ 0041bd68     bncs_csi.obj
 0002:00000d78       ??_C@_0N@NPFKLBII@?$FO?5?7c?5?$CDFC2828?$AA@ 0041bd78     bncs_csi.obj
 0002:00000d88       ??_C@_0N@MJCLIOMK@?1?5?7c?5?$CDFC1313?$AA@ 0041bd88     bncs_csi.obj
 0002:00000d98       ??_C@_0N@PNPHOHE@?$CI?5?7c?5?$CD9C1212?$AA@ 0041bd98     bncs_csi.obj
 0002:00000da8       ??_C@_0N@CDFGMBGB@_?5?7c?5?$CD810D0D?$AA@ 0041bda8     bncs_csi.obj
 0002:00000db8       ??_C@_0N@NHHGDNLE@?3?5?7c?5?$CD831313?$AA@ 0041bdb8     bncs_csi.obj
 0002:00000dc8       ??_C@_0N@GDKMNHME@?$DM?5?7c?5?$CD7A0101?$AA@ 0041bdc8     bncs_csi.obj
 0002:00000dd8       ??_C@_0N@MPLNJALO@?$FL?5?7c?5?$CD7E0A0A?$AA@ 0041bdd8     bncs_csi.obj
 0002:00000de8       ??_C@_0N@BHHNGHKN@?$HN?5?7c?5?$CDF41212?$AA@ 0041bde8     bncs_csi.obj
 0002:00000df8       ??_C@_0N@GCDJEMBP@?$HM?5?7c?5?$CDBE3C3C?$AA@ 0041bdf8     bncs_csi.obj
 0002:00000e08       ??_C@_0N@MDMKPNMK@1?5?7c?5?$CDFC1C1C?$AA@ 0041be08     bncs_csi.obj
 0002:00000e18       ??_C@_0N@JFLPKMCB@2?5?7c?5?$CDF30101?$AA@ 0041be18     bncs_csi.obj
 0002:00000e28       ??_C@_0N@KBMBOBFD@3?5?7c?5?$CDBB3333?$AA@ 0041be28     bncs_csi.obj
 0002:00000e38       ??_C@_0N@MFPFIAOE@4?5?7c?5?$CDB92C2C?$AA@ 0041be38     bncs_csi.obj
 0002:00000e48       ??_C@_0N@HDBJNNGJ@5?5?7c?5?$CD920404?$AA@ 0041be48     bncs_csi.obj
 0002:00000e58       ??_C@_0N@LIJAHAFF@6?5?7c?5?$CDB42B2B?$AA@ 0041be58     bncs_csi.obj
 0002:00000e68       ??_C@_0N@FFOLPBOO@7?5?7c?5?$CDFE0101?$AA@ 0041be68     bncs_csi.obj
 0002:00000e78       ??_C@_0N@NDMJLPBF@8?5?7c?5?$CD8B0101?$AA@ 0041be78     bncs_csi.obj
 0002:00000e88       ??_C@_0N@EAINDNHC@9?5?7c?5?$CDAD2323?$AA@ 0041be88     bncs_csi.obj
 0002:00000e98       ??_C@_0N@EEKFBFLE@0?5?7c?5?$CDAA1D1D?$AA@ 0041be98     bncs_csi.obj
 0002:00000ea8       ??_C@_0N@JBBHCNCN@a?5?7c?5?$CD9B4343?$AA@ 0041bea8     bncs_csi.obj
 0002:00000eb8       ??_C@_0N@IAACGCKL@b?5?7c?5?$CDEEDEDE?$AA@ 0041beb8     bncs_csi.obj
 0002:00000ec8       ??_C@_0N@BFDICGLN@c?5?7c?5?$CDFEFEFE?$AA@ 0041bec8     bncs_csi.obj
 0002:00000ed8       ??_C@_0N@HDGLCIJO@d?5?7c?5?$CDF6F2F2?$AA@ 0041bed8     bncs_csi.obj
 0002:00000ee8       ??_C@_0N@MBALANFM@e?5?7c?5?$CDA24C4C?$AA@ 0041bee8     bncs_csi.obj
 0002:00000ef8       ??_C@_0N@DFJNDOME@f?5?7c?5?$CD8A1E1E?$AA@ 0041bef8     bncs_csi.obj
 0002:00000f08       ??_C@_0N@JJANDNBD@g?5?7c?5?$CDE4CCCC?$AA@ 0041bf08     bncs_csi.obj
 0002:00000f18       ??_C@_0N@ELHFHAAM@h?5?7c?5?$CDCB9B9B?$AA@ 0041bf18     bncs_csi.obj
 0002:00000f28       ??_C@_0N@OHDHPLHN@i?5?7c?5?$CDF6EEEE?$AA@ 0041bf28     bncs_csi.obj
 0002:00000f38       ??_C@_0N@BDOKEGEK@j?5?7c?5?$CDB77979?$AA@ 0041bf38     bncs_csi.obj
 0002:00000f48       ??_C@_0N@NGHMLHCE@k?5?7c?5?$CDF9F4F4?$AA@ 0041bf48     bncs_csi.obj
 0002:00000f58       ??_C@_0N@EIBMLLHL@l?5?7c?5?$CDBE8282?$AA@ 0041bf58     bncs_csi.obj
 0002:00000f68       ??_C@_0N@CCNNCGJD@m?5?7c?5?$CDA41B1B?$AA@ 0041bf68     bncs_csi.obj
 0002:00000f78       ??_C@_0N@MGPNACEH@n?5?7c?5?$CDAD6363?$AA@ 0041bf78     bncs_csi.obj
 0002:00000f88       ??_C@_0N@CFAHBOLF@o?5?7c?5?$CDDBBBBB?$AA@ 0041bf88     bncs_csi.obj
 0002:00000f98       ??_C@_0N@LFOJJJDP@p?5?7c?5?$CDA45555?$AA@ 0041bf98     bncs_csi.obj
 0002:00000fa8       ??_C@_0N@LOGLICDD@q?5?7c?5?$CDA31616?$AA@ 0041bfa8     bncs_csi.obj
 0002:00000fb8       ??_C@_0N@CEPEBNKL@r?5?7c?5?$CDC48B8B?$AA@ 0041bfb8     bncs_csi.obj
 0002:00000fc8       ??_C@_0N@INFBDDFE@s?5?7c?5?$CD8B2B2B?$AA@ 0041bfc8     bncs_csi.obj
 0002:00000fd8       ??_C@_0N@FGOEFBMO@t?5?7c?5?$CD923434?$AA@ 0041bfd8     bncs_csi.obj
 0002:00000fe8       ??_C@_0N@EPDNFCM@u?5?7c?5?$CDD4A4A4?$AA@ 0041bfe8     bncs_csi.obj
 0002:00000ff8       ??_C@_0N@NEHOFJCN@v?5?7c?5?$CD8B2222?$AA@ 0041bff8     bncs_csi.obj
 0002:00001008       ??_C@_0N@NILDGMJF@w?5?7c?5?$CDC28484?$AA@ 0041c008     bncs_csi.obj
 0002:00001018       ??_C@_0N@IGFAMLII@x?5?7c?5?$CDBC7C7C?$AA@ 0041c018     bncs_csi.obj
 0002:00001028       ??_C@_0N@JNJIFDDM@y?5?7c?5?$CD9A0D0D?$AA@ 0041c028     bncs_csi.obj
 0002:00001038       ??_C@_0N@MGCEIPFH@z?5?7c?5?$CDD4AEAE?$AA@ 0041c038     bncs_csi.obj
 0002:00001048       ??_C@_0N@NKJOHOC@A?5?7c?5?$CDE6D0D0?$AA@ 0041c048     bncs_csi.obj
 0002:00001058       ??_C@_0N@FCOIMNAG@B?5?7c?5?$CDF0E3E3?$AA@ 0041c058     bncs_csi.obj
 0002:00001068       ??_C@_0N@GMKBPCIH@C?5?7c?5?$CDAE6969?$AA@ 0041c068     bncs_csi.obj
 0002:00001078       ??_C@_0N@ICALPHKK@D?5?7c?5?$CDED6060?$AA@ 0041c078     bncs_csi.obj
 0002:00001088       ??_C@_0N@PONJCHEL@E?5?7c?5?$CDB57272?$AA@ 0041c088     bncs_csi.obj
 0002:00001098       ??_C@_0N@GBPIJFC@F?5?7c?5?$CD9E4C4C?$AA@ 0041c098     bncs_csi.obj
 0002:000010a8       ??_C@_0N@PENJKHNB@G?5?7c?5?$CD872323?$AA@ 0041c0a8     bncs_csi.obj
 0002:000010b8       ??_C@_0N@DIEGLCOJ@H?5?7c?5?$CD7F1111?$AA@ 0041c0b8     bncs_csi.obj
 0002:000010c8       ??_C@_0N@ENNCCPNO@I?5?7c?5?$CDE55858?$AA@ 0041c0c8     bncs_csi.obj
 0002:000010d8       ??_C@_0N@IHNLPGGM@J?5?7c?5?$CD912C2C?$AA@ 0041c0d8     bncs_csi.obj
 0002:000010e8       ??_C@_0N@GBJIIBKO@K?5?7c?5?$CDB26B6B?$AA@ 0041c0e8     bncs_csi.obj
 0002:000010f8       ??_C@_0N@HMLCIIAF@L?5?7c?5?$CDCB9292?$AA@ 0041c0f8     bncs_csi.obj
 0002:00001108       ??_C@_0N@LHADGMPJ@M?5?7c?5?$CDC59292?$AA@ 0041c108     bncs_csi.obj
 0002:00001118       ??_C@_0N@NLONKMGE@N?5?7c?5?$CDDFC4C4?$AA@ 0041c118     bncs_csi.obj
 0002:00001128       ??_C@_0N@FNDJPLEN@O?5?7c?5?$CDBF9393?$AA@ 0041c128     bncs_csi.obj
 0002:00001138       ??_C@_0N@BEJLPNLK@P?5?7c?5?$CDE8D5D5?$AA@ 0041c138     bncs_csi.obj
 0002:00001148       ??_C@_0N@LNEABFBB@Q?5?7c?5?$CD8F3232?$AA@ 0041c148     bncs_csi.obj
 0002:00001158       ??_C@_0N@EALMNOLE@R?5?7c?5?$CDAA5F5F?$AA@ 0041c158     bncs_csi.obj
 0002:00001168       ??_C@_0N@MCBFBNJE@S?5?7c?5?$CDDE5151?$AA@ 0041c168     bncs_csi.obj
 0002:00001178       ??_C@_0N@EPCNIBG@T?5?7c?5?$CD943B3B?$AA@ 0041c178     bncs_csi.obj
 0002:00001188       ??_C@_0N@HBLDHNBJ@U?5?7c?5?$CDB68989?$AA@ 0041c188     bncs_csi.obj
 0002:00001198       ??_C@_0N@OJPOHNHO@V?5?7c?5?$CDDC4C4C?$AA@ 0041c198     bncs_csi.obj
 0002:000011a8       ??_C@_0N@MPALNOD@W?5?7c?5?$CD851C1C?$AA@ 0041c1a8     bncs_csi.obj
 0002:000011b8       ??_C@_0N@EMJGAEBN@X?5?7c?5?$CDA75B5B?$AA@ 0041c1b8     bncs_csi.obj
 0002:000011c8       ??_C@_0N@FCHHBGDP@Y?5?7c?5?$CD8D5454?$AA@ 0041c1c8     bncs_csi.obj
 0002:000011d8       ??_C@_0N@DKDOBFCJ@Z?5?7c?5?$CDB87676?$AA@ 0041c1d8     bncs_csi.obj
 0002:000011e8       ??_C@_0N@LDFOEHD@?$GA?5?7c?5?$CDD36565?$AA@ 0041c1e8     bncs_csi.obj
 0002:000011f8       ??_C@_0N@JAGDEAMP@?5?4?7c?5?$CDD64949?$AA@ 0041c1f8     bncs_csi.obj
 0002:00001208       ??_C@_0N@NKOAMBHE@?4?4?7c?5?$CD884848?$AA@ 0041c208     bncs_csi.obj
 0002:00001218       ??_C@_0N@DMECDCAP@?$CL?4?7c?5?$CD9D9B9B?$AA@ 0041c218     bncs_csi.obj
 0002:00001228       ??_C@_0N@HHDKNJNH@?$EA?4?7c?5?$CDA4A3A3?$AA@ 0041c228     bncs_csi.obj
 0002:00001238       ??_C@_0N@EJDKDKDK@?$CD?4?7c?5?$CD8D6B6B?$AA@ 0041c238     bncs_csi.obj
 0002:00001248       ??_C@_0N@IFDNFBEG@$?4?7c?5?$CDC4C4C4?$AA@ 0041c248     bncs_csi.obj
 0002:00001258       ??_C@_0N@CKGDHMNI@?$CF?4?7c?5?$CDD4D4D4?$AA@ 0041c258     bncs_csi.obj
 0002:00001268       ??_C@_0N@BDIHFKIE@?$CG?4?7c?5?$CD987C7C?$AA@ 0041c268     bncs_csi.obj
 0002:00001278       ??_C@_0N@NOABKBIM@?$CK?4?7c?5?$CDD9A5A5?$AA@ 0041c278     bncs_csi.obj
 0002:00001288       ??_C@_0N@GCHDLIH@?$DN?4?7c?5?$CDDC6464?$AA@ 0041c288     bncs_csi.obj
 0002:00001298       ??_C@_0N@JPCLOHBH@?9?4?7c?5?$CDDA0000?$AA@ 0041c298     bncs_csi.obj
 0002:000012a8       ??_C@_0N@LNPGPOBJ@?$DL?4?7c?5?$CD6C0000?$AA@ 0041c2a8     bncs_csi.obj
 0002:000012b8       ??_C@_0N@PBAFIMCC@?$DO?4?7c?5?$CDCD4040?$AA@ 0041c2b8     bncs_csi.obj
 0002:000012c8       ??_C@_0N@KELEMOFJ@?0?4?7c?5?$CDE71111?$AA@ 0041c2c8     bncs_csi.obj
 0002:000012d8       ??_C@_0N@GCEJIPGJ@?8?4?7c?5?$CD8A8787?$AA@ 0041c2d8     bncs_csi.obj
 0002:000012e8       ??_C@_0N@KJMMEIOM@?$CJ?4?7c?5?$CDA9A7A7?$AA@ 0041c2e8     bncs_csi.obj
 0002:000012f8       ??_C@_0N@JMIDLLJO@?$CB?4?7c?5?$CDABABAB?$AA@ 0041c2f8     bncs_csi.obj
 0002:00001308       ??_C@_0N@JHPOBMFI@?$HO?4?7c?5?$CDCCCBCB?$AA@ 0041c308     bncs_csi.obj
 0002:00001318       ??_C@_0N@DDEFIIPF@?$HL?4?7c?5?$CDDBDBDB?$AA@ 0041c318     bncs_csi.obj
 0002:00001328       ??_C@_0N@EIHCOKJI@?$FN?4?7c?5?$CDB5B5B5?$AA@ 0041c328     bncs_csi.obj
 0002:00001338       ??_C@_0N@HFAJMMDL@?$FO?4?7c?5?$CDBBBBBB?$AA@ 0041c338     bncs_csi.obj
 0002:00001348       ??_C@_0N@EDMGCINH@?1?4?7c?5?$CDBC8989?$AA@ 0041c348     bncs_csi.obj
 0002:00001358       ??_C@_0N@NMDCCIJM@?$CI?4?7c?5?$CDCE0000?$AA@ 0041c358     bncs_csi.obj
 0002:00001368       ??_C@_0N@DABNCOEJ@_?4?7c?5?$CDE4E4E4?$AA@ 0041c368     bncs_csi.obj
 0002:00001378       ??_C@_0N@KDHAANGJ@?3?4?7c?5?$CDECECEC?$AA@ 0041c378     bncs_csi.obj
 0002:00001388       ??_C@_0N@KDKOOJBB@?$DM?4?7c?5?$CDC50000?$AA@ 0041c388     bncs_csi.obj
 0002:00001398       ??_C@_0N@GPFCGJHI@?$FL?4?7c?5?$CD969696?$AA@ 0041c398     bncs_csi.obj
 0002:000013a8       ??_C@_0N@PFHBOFFM@?$HN?4?7c?5?$CDBA0000?$AA@ 0041c3a8     bncs_csi.obj
 0002:000013b8       ??_C@_0N@NIPEPAJ@?$HM?4?7c?5?$CDAE4C4C?$AA@ 0041c3b8     bncs_csi.obj
 0002:000013c8       ??_C@_0N@LLPJKGMM@1?4?7c?5?$CD940B0B?$AA@ 0041c3c8     bncs_csi.obj
 0002:000013d8       ??_C@_0N@GBHOICGN@2?4?7c?5?$CD830000?$AA@ 0041c3d8     bncs_csi.obj
 0002:000013e8       ??_C@_0EB@KCBMCJOB@?5?5?5?5?5?5?5?5?5?5?5?5?4?5?$CL?5?$CL?5?$EA?5?$CL?5?$EA?5?$CL?5?$EA?5?$CL?5?$EA?5@ 0041c3e8     bncs_csi.obj
 0002:00001430       ??_C@_0EB@IODCNLHG@?5?5?5?5?5?5?5?5?5?5?4?5?0?5?8?5?$CJ?5?$CB?5?$HO?5?$HL?5?$HL?5?$CJ?5?$CB?5?$HL?5@ 0041c430     bncs_csi.obj
 0002:00001478       ??_C@_0EB@EJCNIEEB@?5?5?5?5?5?5?5?5?4?5?$FO?5?1?5?$CI?5_?5?3?5_?5_?5_?5?3?5?3?5_?5@ 0041c478     bncs_csi.obj
 0002:000014c0       ??_C@_0EB@GCMOJEE@?5?5?5?5?5?5?4?51?5?$HO?5?$CI?5?$FL?5?$DM?5?3?5?3?5?$DM?5?3?5?3?5?3?5?3?5@ 0041c4c0     bncs_csi.obj
 0002:00001508       ??_C@_0EB@KACMBNNF@?5?5?5?5?4?5?1?52?5?$CI?5?3?5?3?5?3?5?3?5?$FL?5?$DM?5?3?5_?5?3?5?3?5@ 0041c508     bncs_csi.obj
 0002:00001550       ??_C@_0EB@IJIFHEEJ@?5?5?4?5?1?52?55?5?3?5?3?5?$FL?5?3?5?3?5_?5_?5?3?5?$FL?5?$FL?5?3?5@ 0041c550     bncs_csi.obj
 0002:00001598       ??_C@_0EB@OBGOMJNN@?4?5?1?5?$HL?55?5?$FL?5?3?5_?5?$DM?5?$DM?5?3?5?3?5_?5?3?5?$FL?5?$DM?5?3?5@ 0041c598     bncs_csi.obj
 0002:000015e0       ??_C@_0EB@FPGAFPBI@?$CL?57?58?5?$DM?5_?5?3?5_?5?$FL?5_?5?3?5_?5_?5?3?5?$DM?5?$DM?5?3?5@ 0041c5e0     bncs_csi.obj
 0002:00001628       ??_C@_0EB@JKKMAHCA@?$CL?52?5?$DM?5?$DM?5_?5?3?5?3?5?3?5_?5_?5?$DM?5?3?5_?5?$DM?5?$DM?5?$FL?5@ 0041c628     bncs_csi.obj
 0002:00001670       ??_C@_0EB@LMICIMCI@?$CL?5?$HO?5?$DM?5?$DM?5?$DM?5?$DM?5_?5?$DM?5?$DM?5?$DM?5?$DM?5?$DM?5_?5?$FL?5?$DM?5?$DM?5@ 0041c670     bncs_csi.obj
 0002:000016b8       ??_C@_0EB@GGMMFDOP@?$CL?52?5?$DM?5?$DM?5a?5b?5c?5d?5e?5?$DM?5f?5g?5c?5c?5h?5?$DM?5@ 0041c6b8     bncs_csi.obj
 0002:00001700       ??_C@_0EB@KLFKJHJE@?$CL?5?$HL?5?$DM?5f?5k?5c?5c?5c?5n?5?$DM?5o?5c?5i?5i?5o?5?$DM?5@ 0041c700     bncs_csi.obj
 0002:00001748       ??_C@_0EB@NIAPBEPE@?$CL?52?5?$DM?5r?5c?5l?5?$DM?5s?5t?5?3?5c?5u?5?$DM?5?$FL?5v?5?$DM?5@ 0041c748     bncs_csi.obj
 0002:00001790       ??_C@_0EB@CKEDLBCA@?$CL?52?5?$DM?5b?5b?5?$DM?5?$DM?5?$DM?5?$DM?5v?5c?5x?5?$DM?5?$DM?5?$DM?5?$DM?5@ 0041c790     bncs_csi.obj
 0002:000017d8       ??_C@_0EB@OBBLNGJL@?$CL?52?5?$FL?5c?5h?5?$DM?5?$DM?5?$DM?5?$DM?5_?5c?5k?5p?5?$DM?5?$DM?5?$DM?5@ 0041c7d8     bncs_csi.obj
 0002:00001820       ??_C@_0EB@PLEEAIGC@?$CL?52?5?3?5c?5l?5?$DM?5?$DM?5?$DM?5?$DM?5?$DM?5z?5c?5c?5z?5?3?5?$DM?5@ 0041c820     bncs_csi.obj
 0002:00001868       ??_C@_0EB@OBMEMIML@?$CL?52?5v?5c?5j?5?$DM?5?$DM?5?$DM?5?$DM?5?$DM?5?3?5o?5c?5c?5o?5?$DM?5@ 0041c868     bncs_csi.obj
 0002:000018b0       ??_C@_0EB@LBONCGN@?$CD?52?5?3?5c?5r?5?$DM?5?$DM?5?$DM?5?$DM?5?$DM?5?$DM?5?$DM?5p?5i?5c?5v?5@ 0041c8b0     bncs_csi.obj
 0002:000018f8       ??_C@_0EB@PHAMJLBD@D?52?5?$DM?5c?5o?5?$DM?5?$DM?5?$DM?5?$DM?5?$DM?5?$DM?5?$DM?5?$DM?5E?5c?5F?5@ 0041c8f8     bncs_csi.obj
 0002:00001940       ??_C@_0EB@LNIEFLMB@I?52?5?$DM?5g?5c?5J?5?$DM?5?$DM?5?3?5_?5?$DM?5?$DM?5?$DM?5K?5c?5t?5@ 0041c940     bncs_csi.obj
 0002:00001988       ??_C@_0EB@DGNBDOPD@I?52?5?$DM?5E?5c?5B?5L?5g?5n?5a?5b?5L?5M?5i?5i?5H?5@ 0041c988     bncs_csi.obj
 0002:000019d0       ??_C@_0EB@KEJENKFO@I?52?5?$DM?5?$FL?5g?5c?5c?5c?5R?5a?5c?5c?5c?5c?5C?5H?5@ 0041c9d0     bncs_csi.obj
 0002:00001a18       ??_C@_0EB@LAJDKMDJ@S?52?5?$DM?5?$DM?5?$FL?5p?5E?5T?5?$DM?5?$FL?5p?5x?5U?5a?5H?5H?5@ 0041ca18     bncs_csi.obj
 0002:00001a60       ??_C@_0EB@JNHDPGPL@V?52?5?$DM?5?$DM?5?$DM?5?$DM?5?$FL?5?$FL?5?$FL?5H?5?3?5W?5H?5s?5Q?5s?5@ 0041ca60     bncs_csi.obj
 0002:00001aa8       ??_C@_0EB@GLLDLPPJ@V?52?5?$DM?5?$DM?5?$DM?5?$FL?5H?5H?5H?5G?5G?5s?5s?5Q?5t?5a?5@ 0041caa8     bncs_csi.obj
 0002:00001af0       ??_C@_0EB@JOBIDPGJ@?5?42?5?$FL?5?$FL?5H?5H?5?3?5G?5G?5s?5s?5?4?4?$CL?4?$EA?4?$CD?4F?5@ 0041caf0     bncs_csi.obj
 0002:00001b38       ??_C@_0EB@OGBLLFOA@?$DN?52?5H?5H?5H?5G?5G?5s?5s?5t?5T?5Y?5$?4?$CF?4?$CG?4n?5@ 0041cb38     bncs_csi.obj
 0002:00001b80       ??_C@_0EB@HEJAFDJI@?$DO?4?0?4?8?4?$CL?4?$CL?4?$CL?4?$CL?4?$EA?4?$EA?4?$EA?4?$CJ?4?$CB?4?$HO?4?$HL?4?$FN?4?$FN?4@ 0041cb80     bncs_csi.obj
 0002:00001bc8       ??_C@_0EB@MBGGHAOE@?$DO?4?0?4?$CB?4$?4?$HO?4?$HO?4?$HO?4?$HO?4?$HO?4?$CF?4?$CF?4?$HL?4?$HL?4?$HL?4_?4_?4@ 0041cbc8     bncs_csi.obj
 0002:00001c10       ??_C@_0EB@OEIEJN@?$DO?4?0?4?$FL?4?$CB?4?$CB?4?$CB?4?$FN?4?$FN?4?$FN?4?$FO?4?$FO?4?$FO?4$?4$?4$?4?$HO?4@ 0041cc10     bncs_csi.obj
 0002:00001c58       ??_C@_0EB@BJGIOEKA@?$HM?57?5?0?4?$CJ?5?0?4?$CJ?5?$CJ?5?$CJ?5?0?4?$CJ?5?$CJ?5?$CJ?5?$CJ?5?$CJ?5?$CJ?5?$CJ?5@ 0041cc58     bncs_csi.obj
 0002:00001ca0       ??_C@_0EB@LPIOOMKI@?$HM?43?53?56?53?56?59?59?59?50?59?5f?5?$CI?5?$CI?51?41?4@ 0041cca0     bncs_csi.obj
 0002:00001cec       ??_SQWidget@@6BQObject@@@  0041ccec     bncs_csi.obj
 0002:00001da4       ??_SQWidget@@6BQPaintDevice@@@ 0041cda4     bncs_csi.obj
 0002:00001dc4       ??_SQAction@@6B@           0041cdc4     bncs_csi.obj
 0002:00001df4       ??_SQGroupBox@@6BQObject@@@ 0041cdf4     bncs_csi.obj
 0002:00001eac       ??_SQGroupBox@@6BQPaintDevice@@@ 0041ceac     bncs_csi.obj
 0002:00001ecc       ??_SQSpacerItem@@6B@       0041cecc     bncs_csi.obj
 0002:00001f14       ??_SQHBoxLayout@@6BQObject@@@ 0041cf14     bncs_csi.obj
 0002:00001f5c       ??_SQHBoxLayout@@6BQLayoutItem@@@ 0041cf5c     bncs_csi.obj
 0002:00001fa4       ??_SQVBoxLayout@@6BQObject@@@ 0041cfa4     bncs_csi.obj
 0002:00001fec       ??_SQVBoxLayout@@6BQLayoutItem@@@ 0041cfec     bncs_csi.obj
 0002:00002034       ??_SQLabel@@6BQObject@@@   0041d034     bncs_csi.obj
 0002:000020ec       ??_SQLabel@@6BQPaintDevice@@@ 0041d0ec     bncs_csi.obj
 0002:0000210c       ??_SQMenu@@6BQObject@@@    0041d10c     bncs_csi.obj
 0002:000021c4       ??_SQMenu@@6BQPaintDevice@@@ 0041d1c4     bncs_csi.obj
 0002:000021e4       ??_SQMenuBar@@6BQObject@@@ 0041d1e4     bncs_csi.obj
 0002:0000229c       ??_SQMenuBar@@6BQPaintDevice@@@ 0041d29c     bncs_csi.obj
 0002:000022bc       ??_SQSplitter@@6BQObject@@@ 0041d2bc     bncs_csi.obj
 0002:00002378       ??_SQSplitter@@6BQPaintDevice@@@ 0041d378     bncs_csi.obj
 0002:0000239c       ??_SQStatusBar@@6BQObject@@@ 0041d39c     bncs_csi.obj
 0002:00002454       ??_SQStatusBar@@6BQPaintDevice@@@ 0041d454     bncs_csi.obj
 0002:00002474       ??_SQToolBar@@6BQObject@@@ 0041d474     bncs_csi.obj
 0002:0000252c       ??_SQToolBar@@6BQPaintDevice@@@ 0041d52c     bncs_csi.obj
 0002:0000254c       ??_SQTreeWidgetItem@@6B@   0041d54c     bncs_csi.obj
 0002:0000256c       ??_SQTreeWidget@@6BQObject@@@ 0041d56c     bncs_csi.obj
 0002:000026e4       ??_SQTreeWidget@@6BQPaintDevice@@@ 0041d6e4     bncs_csi.obj
 0002:00002700       ??_C@_08OILCNPPN@bncs_csi?$AA@ 0041d700     bncs_csi.obj
 0002:0000270c       ??_C@_0O@JKNPOAGN@bncs_csiClass?$AA@ 0041d70c     bncs_csi.obj
 0002:0000271c       ??_C@_05PNPHNLAJ@E?$CGxit?$AA@ 0041d71c     bncs_csi.obj
 0002:00002724       ??_C@_06ELIFPNNI@Alt?$CLF4?$AA@ 0041d724     bncs_csi.obj
 0002:0000272c       ??_C@_06JDCECANP@?$CGAbout?$AA@ 0041d72c     bncs_csi.obj
 0002:00002734       ??_C@_09CGBJIDBA@?$CGContents?$AA@ 0041d734     bncs_csi.obj
 0002:00002740       ??_C@_02LCPENACN@F1?$AA@   0041d740     bncs_csi.obj
 0002:00002744       ??_C@_0BB@NIEENBDB@Flush?5?$CGDatabases?$AA@ 0041d744     bncs_csi.obj
 0002:00002758       ??_C@_05JCKLAJBC@Alt?$CLD?$AA@ 0041d758     bncs_csi.obj
 0002:00002760       ??_C@_0N@LKFDCAEM@Flush?5?$CGCache?$AA@ 0041d760     bncs_csi.obj
 0002:00002770       ??_C@_05NNOKJPNF@Alt?$CLC?$AA@ 0041d770     bncs_csi.obj
 0002:00002778       ??_C@_04NGPADIAL@?$CGQoS?$AA@ 0041d778     bncs_csi.obj
 0002:00002780       ??_C@_05KMKDPJBK@?$CGOSPL?$AA@ 0041d780     bncs_csi.obj
 0002:00002788       ??_C@_0P@GANIAKOI@?$CGDDS?5Error?5Log?$AA@ 0041d788     bncs_csi.obj
 0002:00002798       ??_C@_0O@FLPPALCK@DDS?5?$CGInfo?5Log?$AA@ 0041d798     bncs_csi.obj
 0002:000027a8       ??_C@_06HFDFFJHI@Domain?$AA@ 0041d7a8     bncs_csi.obj
 0002:000027b0       ??_C@_01GBGANLPD@0?$AA@    0041d7b0     bncs_csi.obj
 0002:000027b4       ??_C@_06PJIGMIJB@Client?$AA@ 0041d7b4     bncs_csi.obj
 0002:000027bc       ??_C@_03OFJPFPIH@Tx?3?$AA@ 0041d7bc     bncs_csi.obj
 0002:000027c0       ??_C@_03MAPEAAFL@Rx?3?$AA@ 0041d7c0     bncs_csi.obj
 0002:000027c4       ??_C@_07EKALPHEE@Drivers?$AA@ 0041d7c4     bncs_csi.obj
 0002:000027cc       ??_C@_0L@OFHALJGB@Redundancy?$AA@ 0041d7cc     bncs_csi.obj
 0002:000027d8       ??_C@_05BEHOCFPE@Cache?$AA@ 0041d7d8     bncs_csi.obj
 0002:000027e0       ??_C@_06FCODEIEA@In?5use?$AA@ 0041d7e0     bncs_csi.obj
 0002:000027e8       ??_C@_09BHANKBKP@Databases?$AA@ 0041d7e8     bncs_csi.obj
 0002:000027f4       ??_C@_06EHABBLMC@Loaded?$AA@ 0041d7f4     bncs_csi.obj
 0002:000027fc       ??_C@_09IFCKDLLH@Driver?5ID?$AA@ 0041d7fc     bncs_csi.obj
 0002:00002808       ??_C@_05FHBCAALB@?$CGFile?$AA@ 0041d808     bncs_csi.obj
 0002:00002810       ??_C@_05JFEBOHHM@?$CGHelp?$AA@ 0041d810     bncs_csi.obj
 0002:00002818       ??_C@_05DIPBMGIO@D?$CGata?$AA@ 0041d818     bncs_csi.obj
 0002:00002820       ??_C@_07MEDBFDID@Co?$CGnfig?$AA@ 0041d820     bncs_csi.obj
 0002:00003154       ??_7messageWindowCallback@@6B@ 0041e154     bncs_csi.obj
 0002:000031b4       ??_7driver@@6B@            0041e1b4     bncs_csi.obj
 0002:000031bc       ??_7deviceStatus@@6B@      0041e1bc     bncs_csi.obj
 0002:000031c4       ??_7bncs_csi@@6BQObject@@@ 0041e1c4     bncs_csi.obj
 0002:00003284       ??_7bncs_csi@@6BQPaintDevice@@@ 0041e284     bncs_csi.obj
 0002:000032a4       ??_7bncs_csi@@6BIbncs_legacyMessageEvent@@@ 0041e2a4     bncs_csi.obj
 0002:000032ac       ??_7bncs_csi@@6BIbncs_redundancyMessageEvent@@@ 0041e2ac     bncs_csi.obj
 0002:000032b4       ??_7bncs_csi@@6BmessageWindowCallback@@@ 0041e2b4     bncs_csi.obj
 0002:00003314       ??_7bncs_csi@@6BIbncs_netStatusMessageEvent@@@ 0041e314     bncs_csi.obj
 0002:0000331c       ??_7deferredPoll@@6B@      0041e31c     bncs_csi.obj
 0002:00003320       ??_C@_0CC@NEKIGOIP@1removeDriverFromUI?$CIunsigned?5int@ 0041e320     bncs_csi.obj
 0002:00003344       ??_C@_0CF@BMFLFPFI@2sigRemoveDriverFromUI?$CIunsigned?5@ 0041e344     bncs_csi.obj
 0002:0000336c       ??_C@_08BDFGGAAK@?1domain?$DN?$AA@ 0041e36c     bncs_csi.obj
 0002:00003378       ??_C@_0P@CLLKKJPH@?1devicestatus?$DN?$AA@ 0041e378     bncs_csi.obj
 0002:00003388       ??_C@_02PIGFKFFE@?$CF1?$AA@ 0041e388     bncs_csi.obj
 0002:0000338c       ??_C@_0DF@KCHCKDMM@BNCS?5DDS?5CSI?5?9?5Workstation?5?$CF1?5Ve@ 0041e38c     bncs_csi.obj
 0002:000033c4       ??_C@_09PJDIALKE@1doHelp?$CI?$CJ?$AA@ 0041e3c4     bncs_csi.obj
 0002:000033d0       ??_C@_0N@NBJIAFIH@2triggered?$CI?$CJ?$AA@ 0041e3d0     bncs_csi.obj
 0002:000033e0       ??_C@_0L@IBIBMCEH@1doAbout?$CI?$CJ?$AA@ 0041e3e0     bncs_csi.obj
 0002:000033ec       ??_C@_0BA@MIKOLLEL@1doFlushCache?$CI?$CJ?$AA@ 0041e3ec     bncs_csi.obj
 0002:000033fc       ??_C@_0BE@BBGPLNLD@1doFlushDatabases?$CI?$CJ?$AA@ 0041e3fc     bncs_csi.obj
 0002:00003410       ??_C@_0CD@NKFDPIGO@1reconcileTxRxStates?$CIunsigned?5in@ 0041e410     bncs_csi.obj
 0002:00003434       ??_C@_0CG@MCCMEMCI@2sigReconcileTxRxStates?$CIunsigned@ 0041e434     bncs_csi.obj
 0002:0000345c       ??_C@_0N@GJJMKNPA@1doOpenQoS?$CI?$CJ?$AA@ 0041e45c     bncs_csi.obj
 0002:0000346c       ??_C@_0O@EPONKBKM@1doOpenOSPL?$CI?$CJ?$AA@ 0041e46c     bncs_csi.obj
 0002:0000347c       ??_C@_0BD@FJHBLGLP@1doOpenOsplError?$CI?$CJ?$AA@ 0041e47c     bncs_csi.obj
 0002:00003490       ??_C@_0BC@NONNDDOB@1doOpenOsplInfo?$CI?$CJ?$AA@ 0041e490     bncs_csi.obj
 0002:000034a4       ??_C@_0O@MBLIOFEO@bncs_commands?$AA@ 0041e4a4     bncs_csi.obj
 0002:000034b4       ??_C@_08BPLPECIC@commands?$AA@ 0041e4b4     bncs_csi.obj
 0002:000034c0       ??_C@_0BF@INOOIFFJ@DDS?5error?5?$CIcommands?$CJ?$AA@ 0041e4c0     bncs_csi.obj
 0002:000034d8       ??_C@_0BA@EKILEJMM@bncs_revertives?$AA@ 0041e4d8     bncs_csi.obj
 0002:000034e8       ??_C@_0L@GFHGDJMC@revertives?$AA@ 0041e4e8     bncs_csi.obj
 0002:000034f4       ??_C@_0BH@GBPIPKMN@DDS?5error?5?$CIrevertives?$CJ?$AA@ 0041e4f4     bncs_csi.obj
 0002:0000350c       ??_C@_0BA@EMBBEGLI@bncs_redundancy?$AA@ 0041e50c     bncs_csi.obj
 0002:0000351c       ??_C@_0L@GDOMDGLG@redundancy?$AA@ 0041e51c     bncs_csi.obj
 0002:00003528       ??_C@_0BH@DGJGNFOH@DDS?5error?5?$CIredundancy?$CJ?$AA@ 0041e528     bncs_csi.obj
 0002:00003540       ??_C@_0P@CEKNBNCO@bncs_netstatus?$AA@ 0041e540     bncs_csi.obj
 0002:00003550       ??_C@_0BC@GEKDEOGI@netStatusCommands?$AA@ 0041e550     bncs_csi.obj
 0002:00003564       ??_C@_0BP@HGIBPFOM@DDS?5error?5?$CInetStatus?5commands?$CJ?$AA@ 0041e564     bncs_csi.obj
 0002:00003584       ??_C@_0BD@JKAKAPNK@netStatusResponses?$AA@ 0041e584     bncs_csi.obj
 0002:00003598       ??_C@_0CA@IAMMBFHM@DDS?5error?5?$CInetStatus?5responses?$CJ?$AA@ 0041e598     bncs_csi.obj
 0002:000035b8       ??_C@_0N@GHEGDKMD@csi32fix?4exe?$AA@ 0041e5b8     bncs_csi.obj
 0002:000035c8       ??_C@_0M@MNAONKKF@csi32?5Error?$AA@ 0041e5c8     bncs_csi.obj
 0002:000035d8       ??_C@_0JM@ILMJPPHO@Cannot?5start?5csi32fix?4exe?5?9?5this@ 0041e5d8     bncs_csi.obj
 0002:00003674       ??_C@_0CC@ILHGOCFA@CSI32?5?9?5Messaging?5Fix?5applicatio@ 0041e674     bncs_csi.obj
 0002:00003698       ??_C@_0CC@CHLPFHOJ@inf32?5?9?5Messaging?5Fix?5applicatio@ 0041e698     bncs_csi.obj
 0002:000036bc       ??_C@_0CC@FFPAPCBO@grd32?5?9?5Messaging?5Fix?5applicatio@ 0041e6bc     bncs_csi.obj
 0002:000036e0       ??_C@_01NEMOKFLO@?$DN?$AA@ 0041e6e0     bncs_csi.obj
 0002:000036e4       ??_C@_04NCBLOALK@TxRx?$AA@ 0041e6e4     bncs_csi.obj
 0002:000036ec       ??_C@_0CF@KJJCCLMA@device?5?$CFd?5needs?5removing?5?$CImaster@ 0041e6ec     bncs_csi.obj
 0002:00003714       ??_C@_0BE@DLLOILDI@trying?5to?5delete?5?$CFd?$AA@ 0041e714     bncs_csi.obj
 0002:00003728       ??_C@_0BO@HGIIBJFJ@found?5truncated?5window?5handle?$AA@ 0041e728     bncs_csi.obj
 0002:00003748       ??_C@_0HJ@PHKABEKM@bncs_csi?3?5Request?5to?5set?5state?5o@ 0041e748     bncs_csi.obj
 0002:000037c4       ??_C@_06IPMCOIOA@RxOnly?$AA@ 0041e7c4     bncs_csi.obj
 0002:000037cc       ??_C@_0BK@GABJIGEJ@can?8t?5find?5item?5for?5?$CFd?5?$CFd?$AA@ 0041e7cc     bncs_csi.obj
 0002:000037e8       ??_C@_04PICIEOBI@?4chm?$AA@ 0041e7e8     bncs_csi.obj
 0002:000037f0       ??_C@_04JLMDILM@?4exe?$AA@ 0041e7f0     bncs_csi.obj
 0002:000037f8       ??_C@_0HJ@FFCNJPCP@Can?8t?5open?5help?5file?6?6This?5needs@ 0041e7f8     bncs_csi.obj
 0002:00003874       ??_C@_05JIPHKDEJ@Ooops?$AA@ 0041e874     bncs_csi.obj
 0002:0000387c       ??_C@_08BFFHFOCM@?$CF1?6?$CF2?6?$CF3?$AA@ 0041e87c     bncs_csi.obj
 0002:00003888       ??_C@_0BD@DJCPBCJN@About?5BNCS?5CSI?5DDS?$AA@ 0041e888     bncs_csi.obj
 0002:0000389c       ??_C@_0CH@DMDFIFCN@request?5redundancy?5master?5for?5?$CFd@ 0041e89c     bncs_csi.obj
 0002:000038c4       ??_C@_0CH@KFDCNIAN@setting?5redundancy?5master?5for?5?$CFd@ 0041e8c4     bncs_csi.obj
 0002:000038ec       ??_C@_0BB@LBCLJMEC@TxRx?5?$CIMaster?3?$CF1?$CJ?$AA@ 0041e8ec     bncs_csi.obj
 0002:00003900       ??_C@_0BD@PNLNMNMI@RxOnly?5?$CIMaster?3?$CF1?$CJ?$AA@ 0041e900     bncs_csi.obj
 0002:00003914       ??_C@_0BB@FCMIOILO@dds?1ospl?4xml?4qos?$AA@ 0041e914     bncs_csi.obj
 0002:00003928       ??_C@_04PMOCAHAA@open?$AA@ 0041e928     bncs_csi.obj
 0002:00003930       ??_C@_08CNFNLJMA@BNCS?5CSI?$AA@ 0041e930     bncs_csi.obj
 0002:0000393c       ??_C@_0BM@IHILHDLE@Can?8t?5open?5dds?1ospl?4xml?4qos?$AA@ 0041e93c     bncs_csi.obj
 0002:00003958       ??_C@_0N@KHGFJAKP@dds?1ospl?4xml?$AA@ 0041e958     bncs_csi.obj
 0002:00003968       ??_C@_0BI@GNJIMPAJ@Can?8t?5open?5dds?1ospl?4xml?$AA@ 0041e968     bncs_csi.obj
 0002:00003980       ??_C@_0P@CIPMPJMK@ospl?9error?4log?$AA@ 0041e980     bncs_csi.obj
 0002:00003990       ??_C@_0BK@MLFKBPAD@Can?8t?5open?5error?5log?5file?$AA@ 0041e990     bncs_csi.obj
 0002:000039ac       ??_C@_0O@HFEHEJED@ospl?9info?4log?$AA@ 0041e9ac     bncs_csi.obj
 0002:000039bc       ??_C@_0BO@FDJOPGJK@Can?8t?5open?5ospl?9info?5log?5file?$AA@ 0041e9bc     bncs_csi.obj
 0002:000039dc       ??_C@_08LBGAIFHM@starting?$AA@ 0041e9dc     bncs_csi.obj
 0002:000039e8       ??_C@_05MLOKNOLM@?$CF03dT?$AA@ 0041e9e8     bncs_csi.obj
 0002:000039f0       ??_C@_05JNLAHJDK@?$CF03dR?$AA@ 0041e9f0     bncs_csi.obj
 0002:000039f8       ??_C@_05NHHCGLGL@?$CF03dB?$AA@ 0041e9f8     bncs_csi.obj
 0002:00003a00       ??_C@_05PJNMLMDO@?$CF03dV?$AA@ 0041ea00     bncs_csi.obj
 0002:00003a08       ??_C@_01IHBHIGKO@?0?$AA@   0041ea08     bncs_csi.obj
 0002:00003a10       __xmm@000000140000027d0000000000000000 0041ea10     bncs_csi.obj
 0002:00003a24       ??_7clientsRegistration@@6B@ 0041ea24     clientsRegistration.obj
 0002:00003a28       ??_C@_08JACIFJBK@OSPL_URI?$AA@ 0041ea28     domainFromOspl.obj
 0002:00003a34       ??_C@_08NPMJDGGI@file?3?1?1?1?$AA@ 0041ea34     domainFromOspl.obj
 0002:00003a40       ??_C@_07CAIJGPF@file?3?1?1?$AA@ 0041ea40     domainFromOspl.obj
 0002:00003a48       ??_C@_01KMDKNFGN@?1?$AA@   0041ea48     domainFromOspl.obj
 0002:00003a4c       ??_C@_03LBPOHIOC@?$CF20?$AA@ 0041ea4c     domainFromOspl.obj
 0002:00003a50       ??_C@_01CLKCMJKC@?5?$AA@   0041ea50     domainFromOspl.obj
 0002:00003a54       ??_C@_0CG@CKHOKOMN@doc?$CI?8?$CF1?8?$CJ?1OpenSplice?1Domain?1Id?1t@ 0041ea54     domainFromOspl.obj
 0002:00003dcc       ??_C@_0BJ@EBMIABKO@Ibncs_legacyMessageEvent?$AA@ 0041edcc     moc_bncs_csi.obj
 0002:00003de8       ??_C@_0BN@NICIBKBH@Ibncs_redundancyMessageEvent?$AA@ 0041ede8     moc_bncs_csi.obj
 0002:00003e08       ??_C@_0BG@PBKHBGBB@messageWindowCallback?$AA@ 0041ee08     moc_bncs_csi.obj
 0002:00003e20       ??_C@_0BM@JOIBLOOF@Ibncs_netStatusMessageEvent?$AA@ 0041ee20     moc_bncs_csi.obj
 0002:00003f1c       ??_C@_0BH@KADLOJBJ@CSI32_MAIN_APPLICATION?$AA@ 0041ef1c     main.obj
 0002:00003f38       ??_C@_0EF@OBMHJMIE@Request?5to?5start?5bncs_csi?5when?5a@ 0041ef38     main.obj
 0002:00003f80       ??_C@_0BC@BGDLIIAA@?$CF1?2?$CF2?2windows?2lib?$AA@ 0041ef80     main.obj
 0002:00003f98       ??_C@_0HO@JLPJPIJL@This?5application?5requires?5OSPL_U@ 0041ef98     main.obj
 0002:0000401c       ??_7messageWindow@@6B@     0041f01c     messageWindow.obj
 0002:00004048       ??_C@_0BH@NLGHLNGO@bncs_csi?9messageWindow?$AA@ 0041f048     messageWindow.obj
 0002:00004060       ??_C@_0CC@FDDFLMAP@could?5not?5create?5messaging?5Windo@ 0041f060     messageWindow.obj
 0002:00004084       ??_C@_0CN@HBJAKKAL@Driver?5device?3?5?$CF1?5handle?3?5?$CF2?5dea@ 0041f084     messageWindow.obj
 0002:000040b4       ??_C@_0BB@OJOCGGFA@adding?5driver?5?$CFd?$AA@ 0041f0b4     messageWindow.obj
 0002:000040c8       ??_C@_0BG@DNBGMIMF@BBC_DEVDRVCLOSE?5?$CFd?5?$CFd?$AA@ 0041f0c8     messageWindow.obj
 0002:000040e0       ??_C@_02PHHIKPHE@IR?$AA@   0041f0e0     messageWindow.obj
 0002:000040e4       ??_C@_02OHALODOF@RR?$AA@   0041f0e4     messageWindow.obj
 0002:000040e8       ??_C@_02PNOGICHO@GR?$AA@   0041f0e8     messageWindow.obj
 0002:000040ec       ??_C@_02PLJDFGDC@RD?$AA@   0041f0ec     messageWindow.obj
 0002:000040f0       ??_C@_02MIBFNKDD@DG?$AA@   0041f0f0     messageWindow.obj
 0002:000040f4       ??_C@_05HOPBAMFM@?9?5?9?5?9?$AA@ 0041f0f4     messageWindow.obj
 0002:000040fc       ??_C@_0DC@MDHGMHEC@BBC_GETCACHEDDATA?3?5wrong?5number?5@ 0041f0fc     messageWindow.obj
 0002:00004130       ??_C@_02FGJGPHLN@DI?$AA@   0041f130     messageWindow.obj
 0002:00004134       ??_C@_0DD@EIPKKHED@BBC_GETCACHEDINDEX?3?5wrong?5number@ 0041f134     messageWindow.obj
 0002:00004168       ??_C@_0BA@NJMCIGOH@?$CF03d?52?50?5?$CFd?5?$CFd?5?$AA@ 0041f168     messageWindow.obj
 0002:00004178       ??_C@_03FFMPJLOG@?$CF1?0?$AA@ 0041f178     messageWindow.obj
 0002:0000417c       ??_C@_0N@DJGNLGNB@?$CF03d?50?50?50?50?$AA@ 0041f17c     messageWindow.obj
 0002:0000418c       ??_C@_02LENCMAPF@RC?$AA@   0041f18c     messageWindow.obj
 0002:00004190       ??_C@_02DDEKNMDK@RL?$AA@   0041f190     messageWindow.obj
 0002:00004194       ??_C@_02NFDNIBGH@RP?$AA@   0041f194     messageWindow.obj
 0002:00004198       ??_C@_02MMCGLACG@RQ?$AA@   0041f198     messageWindow.obj
 0002:0000419c       ??_C@_02CKFBONHL@RM?$AA@   0041f19c     messageWindow.obj
 0002:000041a0       ??_C@_0CF@DPALEBMN@Router?5command?5?$CC?$CF1?$CC?5is?5not?5suppo@ 0041f1a0     messageWindow.obj
 0002:000041c8       ??_C@_02IKAPFLDB@IW?$AA@   0041f1c8     messageWindow.obj
 0002:000041cc       ??_C@_02CDDJJAKL@IL?$AA@   0041f1cc     messageWindow.obj
 0002:000041d0       ??_C@_02MFEOMNPG@IP?$AA@   0041f1d0     messageWindow.obj
 0002:000041d4       ??_C@_02NMFFPMLH@IQ?$AA@   0041f1d4     messageWindow.obj
 0002:000041d8       ??_C@_0CJ@GNKFJLMF@Infodriver?5command?5?$CC?$CF1?$CC?5is?5not?5s@ 0041f1d8     messageWindow.obj
 0002:00004204       ??_C@_02OEPNLDDP@GS?$AA@   0041f204     messageWindow.obj
 0002:00004208       ??_C@_02CJKHLNKB@GL?$AA@   0041f208     messageWindow.obj
 0002:0000420c       ??_C@_02MPNAOAPM@GP?$AA@   0041f20c     messageWindow.obj
 0002:00004210       ??_C@_02NGMLNBLN@GQ?$AA@   0041f210     messageWindow.obj
 0002:00004214       ??_C@_0CC@JGLIJPKF@GPI?5command?5?$CC?$CF1?$CC?5is?5not?5supporte@ 0041f214     messageWindow.obj
 0002:00004238       ??_C@_0BB@PMDBAAKK@RR?5?$CFd?5?$CFd?5?$CFd?5?8?$CFs?8?$AA@ 0041f238     messageWindow.obj
 0002:0000424c       ??_C@_0BB@FOOKINMN@IR?5?$CFd?5?$CFd?5?$CFd?5?8?$CFs?8?$AA@ 0041f24c     messageWindow.obj
 0002:00004260       ??_C@_01HIHLOKLC@1?$AA@    0041f260     messageWindow.obj
 0002:00004264       ??_C@_0BB@GKHMAKO@GR?5?$CFd?5?$CFd?5?$CFd?5?8?$CFd?8?$AA@ 0041f264     messageWindow.obj
 0002:00004278       ??_C@_09BODOCOIB@driver?5?$CFd?$AA@ 0041f278     messageWindow.obj
 0002:00004284       ??_C@_0DD@KFIAAPPH@driver?5swallowing?5notification?5f@ 0041f284     messageWindow.obj
 0002:000042b8       ??_C@_0BH@LJMPHKNL@RM?5?$CFu?5?$CFu?5?$CFu?5?8?$CFs?8?5?$CFu?5?$CFu?$AA@ 0041f2b8     messageWindow.obj
 0002:000042d0       ??_C@_0FB@CHOOEDPN@Name?5change?5device?5?$CF1?5database?5?$CF@ 0041f2d0     messageWindow.obj
 0002:00004324       ??_C@_09CLFBCPCL@client?5?$CFd?$AA@ 0041f324     messageWindow.obj
 0002:00004330       ??_C@_0CM@HEPELGCB@swallowing?5notification?5for?5ws?5?$CF@ 0041f330     messageWindow.obj
 0002:0000435c       ??_C@_0BN@OIMOOHDO@name?5is?5same?5?9?5not?5notifying?$AA@ 0041f35c     messageWindow.obj
 0002:0000437c       ??_C@_0BB@BPMOHFFL@GR?5?$CFd?5?$CFd?5?$CFd?5?8?$CFs?8?$AA@ 0041f37c     messageWindow.obj
 0002:00004390       ??_C@_0BB@HPDMKDPM@IW?5?$CFd?5?8?$CFs?8?5?$CFd?5?$CFd?$AA@ 0041f390     messageWindow.obj
 0002:000043a4       ??_C@_0P@NIJOMKEP@IP?5?$CFd?5?$CFd?5?$CFd?5?$CFd?$AA@ 0041f3a4     messageWindow.obj
 0002:000043b4       ??_C@_0BC@EAAIDPBI@IL?5?$CFd?5?$CFd?5?$CFd?5?$CFd?5?$CFd?$AA@ 0041f3b4     messageWindow.obj
 0002:000043c8       ??_C@_0P@ECAIPDPO@RP?5?$CFd?5?$CFd?5?$CFd?5?$CFd?$AA@ 0041f3c8     messageWindow.obj
 0002:000043d8       ??_C@_0BC@JDHMBAGO@RL?5?$CFd?5?$CFd?5?$CFd?5?$CFd?5?$CFd?$AA@ 0041f3d8     messageWindow.obj
 0002:000043ec       ??_C@_0BC@FJCFCNJB@GL?5?$CFd?5?$CFd?5?$CFd?5?$CFd?5?$CFd?$AA@ 0041f3ec     messageWindow.obj
 0002:00004400       ??_C@_0P@DFONNCDK@GP?5?$CFd?5?$CFd?5?$CFd?5?$CFd?$AA@ 0041f400     messageWindow.obj
 0002:00004410       ??_C@_0BE@NOLEOGLE@RC?5?$CFd?5?$CFd?5?$CFd?5?8?$CFs?8?5?$CFd?$AA@ 0041f410     messageWindow.obj
 0002:00004424       ??_C@_0P@EJIMPHOB@GS?5?$CFd?5?$CFd?5?$CFd?5?$CFd?$AA@ 0041f424     messageWindow.obj
 0002:00004434       ??_C@_0DN@CFMIJDJA@clientDeivceMessage?5worksation?5?$DN@ 0041f434     messageWindow.obj
 0002:00004474       ??_C@_0BH@OGFJFCDI@NS?5?$CFd?5?$CFd?5?8?$CFs?8?5?$CFd?5?$CFu?5?$CFd?$AA@ 0041f474     messageWindow.obj
 0002:0000448c       ??_C@_0BF@JDDLGFAK@checkClientAlive?3?5?$CFd?$AA@ 0041f48c     messageWindow.obj
 0002:000044a8       ??_C@_0FF@JFAAIPAO@checkClientAlive?3?5IPC?5breakdown?5@ 0041f4a8     messageWindow.obj
 0002:00004500       ??_C@_0BP@LNCGJLEO@checkDriverAlive?3?5?$CFd?5device?5?$CFd?$AA@ 0041f500     messageWindow.obj
 0002:00004520       ??_C@_0FP@KMBIEFEG@checkDriverAlive?3?5IPC?5breakdown?5@ 0041f520     messageWindow.obj
 0002:00004580       ??_C@_0BJ@LNKOGEII@Delete?5driver?5by?5HWND?5?$CFd?$AA@ 0041f580     messageWindow.obj
 0002:0000459c       ??_C@_0BL@OODPNEHL@Delete?5driver?5by?5device?5?$CFd?$AA@ 0041f59c     messageWindow.obj
 0002:000045bc       ??_7singleReg@@6B@         0041f5bc     singleReg.obj
 0002:000045c4       ??_7bncs_disklog@@6B@      0041f5c4     bncs_disklog:bncs_disklog.obj
 0002:000045c8       ??_C@_0L@ILPMAFPO@?$CFs?2?$CFs?2logs?$AA@ 0041f5c8     bncs_disklog:bncs_disklog.obj
 0002:000045d4       ??_C@_0M@EEBKEKAD@c?3?2bncslogs?$AA@ 0041f5d4     bncs_disklog:bncs_disklog.obj
 0002:000045e0       ??_C@_0BG@DPKAAFIM@localtime?5has?5failed?6?$AA@ 0041f5e0     bncs_disklog:bncs_disklog.obj
 0002:000045f8       ??_C@_0N@GLHMENIG@?$CFs?2?$CFs?2?$CFs?4log?$AA@ 0041f5f8     bncs_disklog:bncs_disklog.obj
 0002:00004608       ??_C@_0BH@EBDFGIGN@?$CFs?2?$CFs?2?$CF04d?$CF02d?$CF02d?4log?$AA@ 0041f608     bncs_disklog:bncs_disklog.obj
 0002:00004620       ??_C@_0BM@MFEMPJOF@?$CFs?2?$CFs?2?$CF04d?$CF02d?$CF02d?9?$CF02d?4log?$AA@ 0041f620     bncs_disklog:bncs_disklog.obj
 0002:0000463c       ??_C@_0CE@NIPIAOPO@bncs_disklog?3?5Can?8t?5open?5log?5fil@ 0041f63c     bncs_disklog:bncs_disklog.obj
 0002:00004660       ??_C@_0CE@NLINMDII@?$CF02d?1?$CF02d?1?$CF04d?5?$CF02d?3?$CF02d?3?$CF02d?4?$CF0@ 0041f660     bncs_disklog:bncs_disklog.obj
 0002:00004684       ??_C@_02KEGNLNML@?0?5?$AA@ 0041f684     bncs_disklog:bncs_disklog.obj
 0002:00004688       ??_C@_02PCIJFNDE@?$AN?6?$AA@ 0041f688     bncs_disklog:bncs_disklog.obj
 0002:00004690       ??_7cBncsVersion@@6B@      0041f690     BncsVersionInfo:cBncsVersion.obj
 0002:00004694       ??_C@_0BJ@KPNNKBCP@?2VarFileInfo?2Translation?$AA@ 0041f694     BncsVersionInfo:cBncsVersion.obj
 0002:000046b0       ??_C@_08EAKGLGNO@?$CF04X?$CF04X?$AA@ 0041f6b0     BncsVersionInfo:cBncsVersion.obj
 0002:000046bc       ??_C@_0BP@OKGDDKKJ@?2StringFileInfo?2?$CFs?2FileVersion?$AA@ 0041f6bc     BncsVersionInfo:cBncsVersion.obj
 0002:000046dc       ??_C@_0CD@DNOFBAPJ@?2StringFileInfo?2?$CFs?2FileDescripti@ 0041f6dc     BncsVersionInfo:cBncsVersion.obj
 0002:00004700       ??_C@_0BM@HLKDAPDC@?2StringFileInfo?2?$CFs?2Comments?$AA@ 0041f700     BncsVersionInfo:cBncsVersion.obj
 0002:0000471c       ??_C@_0CA@EHAODNDK@?2StringFileInfo?2?$CFs?2InternalName?$AA@ 0041f71c     BncsVersionInfo:cBncsVersion.obj
 0002:0000473c       ??_C@_0BP@MGNIHEJF@?2StringFileInfo?2?$CFs?2ProductName?$AA@ 0041f73c     BncsVersionInfo:cBncsVersion.obj
 0002:0000475c       ??_C@_0BP@IFNEMNK@?2StringFileInfo?2?$CFs?2CompanyName?$AA@ 0041f75c     BncsVersionInfo:cBncsVersion.obj
 0002:0000477c       ??_C@_0CC@BENIJKPI@?2StringFileInfo?2?$CFs?2LegalCopyrigh@ 0041f77c     BncsVersionInfo:cBncsVersion.obj
 0002:000047a0       ??_C@_0CC@IAGJDCJF@?2StringFileInfo?2?$CFs?2ProductVersio@ 0041f7a0     BncsVersionInfo:cBncsVersion.obj
 0002:000047c4       ??_C@_0CD@CHCCGCCP@?2StringFileInfo?2?$CFs?2LegalTradeMar@ 0041f7c4     BncsVersionInfo:cBncsVersion.obj
 0002:000047e8       ??_C@_0CA@GODGGLFO@?2StringFileInfo?2?$CFs?2PrivateBuild?$AA@ 0041f7e8     BncsVersionInfo:cBncsVersion.obj
 0002:00004808       ??_C@_0CE@NLHFPOLE@?2StringFileInfo?2?$CFs?2OriginalFileN@ 0041f808     BncsVersionInfo:cBncsVersion.obj
 0002:0000482c       ??_C@_0CA@OOEBJJOA@?2StringFileInfo?2?$CFs?2SpecialBuild?$AA@ 0041f82c     BncsVersionInfo:cBncsVersion.obj
 0002:0000489c       ??_C@_00A@?$AA@            0041f89c     htmlhelp:init.obj
 0002:000048a0       ??_C@_05CLMJGDKL@?$CF08lx?$AA@ 0041f8a0     bncswm32:BncsWM32.obj
 0002:000048ac       ??_7type_info@@6B@         0041f8ac     MSVCRT:ti_inst.obj
 0002:000048b8       __load_config_used         0041f8b8     MSVCRT:loadcfg.obj
 0002:00004900       ??_R4error_category@std@@6B@ 0041f900     ccConfig.obj
 0002:00004914       ??_R3error_category@std@@8 0041f914     ccConfig.obj
 0002:00004924       ??_R2error_category@std@@8 0041f924     ccConfig.obj
 0002:0000492c       ??_R1A@?0A@EA@error_category@std@@8 0041f92c     ccConfig.obj
 0002:00004948       ??_R4_Generic_error_category@std@@6B@ 0041f948     ccConfig.obj
 0002:0000495c       ??_R3_Generic_error_category@std@@8 0041f95c     ccConfig.obj
 0002:0000496c       ??_R2_Generic_error_category@std@@8 0041f96c     ccConfig.obj
 0002:00004978       ??_R1A@?0A@EA@_Generic_error_category@std@@8 0041f978     ccConfig.obj
 0002:00004994       ??_R4_Iostream_error_category@std@@6B@ 0041f994     ccConfig.obj
 0002:000049a8       ??_R3_Iostream_error_category@std@@8 0041f9a8     ccConfig.obj
 0002:000049b8       ??_R2_Iostream_error_category@std@@8 0041f9b8     ccConfig.obj
 0002:000049c8       ??_R1A@?0A@EA@_Iostream_error_category@std@@8 0041f9c8     ccConfig.obj
 0002:000049e4       ??_R4_System_error_category@std@@6B@ 0041f9e4     ccConfig.obj
 0002:000049f8       ??_R3_System_error_category@std@@8 0041f9f8     ccConfig.obj
 0002:00004a08       ??_R2_System_error_category@std@@8 0041fa08     ccConfig.obj
 0002:00004a18       ??_R1A@?0A@EA@_System_error_category@std@@8 0041fa18     ccConfig.obj
 0002:00004a34       ??_R4database@@6B@         0041fa34     database.obj
 0002:00004a48       ??_R3database@@8           0041fa48     database.obj
 0002:00004a58       ??_R2database@@8           0041fa58     database.obj
 0002:00004a60       ??_R1A@?0A@EA@database@@8  0041fa60     database.obj
 0002:00004a7c       ??_R4databaseMgr@@6B@      0041fa7c     databaseMgr.obj
 0002:00004a90       ??_R3databaseMgr@@8        0041fa90     databaseMgr.obj
 0002:00004aa0       ??_R2databaseMgr@@8        0041faa0     databaseMgr.obj
 0002:00004aa8       ??_R1A@?0A@EA@databaseMgr@@8 0041faa8     databaseMgr.obj
 0002:00004ac4       ??_R4decodeBNCSString@@6B@ 0041fac4     decodeBNCSString.obj
 0002:00004ad8       ??_R3decodeBNCSString@@8   0041fad8     decodeBNCSString.obj
 0002:00004ae8       ??_R2decodeBNCSString@@8   0041fae8     decodeBNCSString.obj
 0002:00004af0       ??_R1A@?0A@EA@decodeBNCSString@@8 0041faf0     decodeBNCSString.obj
 0002:00004b0c       ??_R4QWidget@@6BQObject@@@ 0041fb0c     bncs_csi.obj
 0002:00004b20       ??_R3QWidget@@8            0041fb20     bncs_csi.obj
 0002:00004b30       ??_R2QWidget@@8            0041fb30     bncs_csi.obj
 0002:00004b40       ??_R1A@?0A@EA@QWidget@@8   0041fb40     bncs_csi.obj
 0002:00004b5c       ??_R1A@?0A@EA@QObject@@8   0041fb5c     bncs_csi.obj
 0002:00004b78       ??_R3QObject@@8            0041fb78     bncs_csi.obj
 0002:00004b88       ??_R2QObject@@8            0041fb88     bncs_csi.obj
 0002:00004b90       ??_R17?0A@EA@QPaintDevice@@8 0041fb90     bncs_csi.obj
 0002:00004bac       ??_R3QPaintDevice@@8       0041fbac     bncs_csi.obj
 0002:00004bbc       ??_R2QPaintDevice@@8       0041fbbc     bncs_csi.obj
 0002:00004bc4       ??_R1A@?0A@EA@QPaintDevice@@8 0041fbc4     bncs_csi.obj
 0002:00004be0       ??_R4QWidget@@6BQPaintDevice@@@ 0041fbe0     bncs_csi.obj
 0002:00004bf4       ??_R4QAction@@6B@          0041fbf4     bncs_csi.obj
 0002:00004c08       ??_R3QAction@@8            0041fc08     bncs_csi.obj
 0002:00004c18       ??_R2QAction@@8            0041fc18     bncs_csi.obj
 0002:00004c24       ??_R1A@?0A@EA@QAction@@8   0041fc24     bncs_csi.obj
 0002:00004c40       ??_R4QMenuBar@@6BQObject@@@ 0041fc40     bncs_csi.obj
 0002:00004c54       ??_R3QMenuBar@@8           0041fc54     bncs_csi.obj
 0002:00004c64       ??_R2QMenuBar@@8           0041fc64     bncs_csi.obj
 0002:00004c78       ??_R1A@?0A@EA@QMenuBar@@8  0041fc78     bncs_csi.obj
 0002:00004c94       ??_R4QMenuBar@@6BQPaintDevice@@@ 0041fc94     bncs_csi.obj
 0002:00004ca8       ??_R4QStatusBar@@6BQObject@@@ 0041fca8     bncs_csi.obj
 0002:00004cbc       ??_R3QStatusBar@@8         0041fcbc     bncs_csi.obj
 0002:00004ccc       ??_R2QStatusBar@@8         0041fccc     bncs_csi.obj
 0002:00004ce0       ??_R1A@?0A@EA@QStatusBar@@8 0041fce0     bncs_csi.obj
 0002:00004cfc       ??_R4QStatusBar@@6BQPaintDevice@@@ 0041fcfc     bncs_csi.obj
 0002:00004d10       ??_R4QToolBar@@6BQObject@@@ 0041fd10     bncs_csi.obj
 0002:00004d24       ??_R3QToolBar@@8           0041fd24     bncs_csi.obj
 0002:00004d34       ??_R2QToolBar@@8           0041fd34     bncs_csi.obj
 0002:00004d48       ??_R1A@?0A@EA@QToolBar@@8  0041fd48     bncs_csi.obj
 0002:00004d64       ??_R4QToolBar@@6BQPaintDevice@@@ 0041fd64     bncs_csi.obj
 0002:00004d78       ??_R4QMenu@@6BQObject@@@   0041fd78     bncs_csi.obj
 0002:00004d8c       ??_R3QMenu@@8              0041fd8c     bncs_csi.obj
 0002:00004d9c       ??_R2QMenu@@8              0041fd9c     bncs_csi.obj
 0002:00004db0       ??_R1A@?0A@EA@QMenu@@8     0041fdb0     bncs_csi.obj
 0002:00004dcc       ??_R4QMenu@@6BQPaintDevice@@@ 0041fdcc     bncs_csi.obj
 0002:00004de0       ??_R4QGroupBox@@6BQObject@@@ 0041fde0     bncs_csi.obj
 0002:00004df4       ??_R3QGroupBox@@8          0041fdf4     bncs_csi.obj
 0002:00004e04       ??_R2QGroupBox@@8          0041fe04     bncs_csi.obj
 0002:00004e18       ??_R1A@?0A@EA@QGroupBox@@8 0041fe18     bncs_csi.obj
 0002:00004e34       ??_R4QGroupBox@@6BQPaintDevice@@@ 0041fe34     bncs_csi.obj
 0002:00004e48       ??_R4QSpacerItem@@6B@      0041fe48     bncs_csi.obj
 0002:00004e5c       ??_R3QSpacerItem@@8        0041fe5c     bncs_csi.obj
 0002:00004e6c       ??_R2QSpacerItem@@8        0041fe6c     bncs_csi.obj
 0002:00004e78       ??_R1A@?0A@EA@QSpacerItem@@8 0041fe78     bncs_csi.obj
 0002:00004e94       ??_R1A@?0A@EA@QLayoutItem@@8 0041fe94     bncs_csi.obj
 0002:00004eb0       ??_R3QLayoutItem@@8        0041feb0     bncs_csi.obj
 0002:00004ec0       ??_R2QLayoutItem@@8        0041fec0     bncs_csi.obj
 0002:00004ec8       ??_R4QHBoxLayout@@6BQObject@@@ 0041fec8     bncs_csi.obj
 0002:00004edc       ??_R3QHBoxLayout@@8        0041fedc     bncs_csi.obj
 0002:00004eec       ??_R2QHBoxLayout@@8        0041feec     bncs_csi.obj
 0002:00004f04       ??_R1A@?0A@EA@QHBoxLayout@@8 0041ff04     bncs_csi.obj
 0002:00004f20       ??_R1A@?0A@EA@QBoxLayout@@8 0041ff20     bncs_csi.obj
 0002:00004f3c       ??_R3QBoxLayout@@8         0041ff3c     bncs_csi.obj
 0002:00004f4c       ??_R2QBoxLayout@@8         0041ff4c     bncs_csi.obj
 0002:00004f60       ??_R1A@?0A@EA@QLayout@@8   0041ff60     bncs_csi.obj
 0002:00004f7c       ??_R3QLayout@@8            0041ff7c     bncs_csi.obj
 0002:00004f8c       ??_R2QLayout@@8            0041ff8c     bncs_csi.obj
 0002:00004f9c       ??_R17?0A@EA@QLayoutItem@@8 0041ff9c     bncs_csi.obj
 0002:00004fb8       ??_R4QHBoxLayout@@6BQLayoutItem@@@ 0041ffb8     bncs_csi.obj
 0002:00004fcc       ??_R4QVBoxLayout@@6BQObject@@@ 0041ffcc     bncs_csi.obj
 0002:00004fe0       ??_R3QVBoxLayout@@8        0041ffe0     bncs_csi.obj
 0002:00004ff0       ??_R2QVBoxLayout@@8        0041fff0     bncs_csi.obj
 0002:00005008       ??_R1A@?0A@EA@QVBoxLayout@@8 00420008     bncs_csi.obj
 0002:00005024       ??_R4QVBoxLayout@@6BQLayoutItem@@@ 00420024     bncs_csi.obj
 0002:00005038       ??_R4QLabel@@6BQObject@@@  00420038     bncs_csi.obj
 0002:0000504c       ??_R3QLabel@@8             0042004c     bncs_csi.obj
 0002:0000505c       ??_R2QLabel@@8             0042005c     bncs_csi.obj
 0002:00005074       ??_R1A@?0A@EA@QLabel@@8    00420074     bncs_csi.obj
 0002:00005090       ??_R1A@?0A@EA@QFrame@@8    00420090     bncs_csi.obj
 0002:000050ac       ??_R3QFrame@@8             004200ac     bncs_csi.obj
 0002:000050bc       ??_R2QFrame@@8             004200bc     bncs_csi.obj
 0002:000050d0       ??_R4QLabel@@6BQPaintDevice@@@ 004200d0     bncs_csi.obj
 0002:000050e4       ??_R4QSplitter@@6BQObject@@@ 004200e4     bncs_csi.obj
 0002:000050f8       ??_R3QSplitter@@8          004200f8     bncs_csi.obj
 0002:00005108       ??_R2QSplitter@@8          00420108     bncs_csi.obj
 0002:00005120       ??_R1A@?0A@EA@QSplitter@@8 00420120     bncs_csi.obj
 0002:0000513c       ??_R4QSplitter@@6BQPaintDevice@@@ 0042013c     bncs_csi.obj
 0002:00005150       ??_R4QTreeWidget@@6BQObject@@@ 00420150     bncs_csi.obj
 0002:00005164       ??_R3QTreeWidget@@8        00420164     bncs_csi.obj
 0002:00005174       ??_R2QTreeWidget@@8        00420174     bncs_csi.obj
 0002:00005198       ??_R1A@?0A@EA@QTreeWidget@@8 00420198     bncs_csi.obj
 0002:000051b4       ??_R1A@?0A@EA@QTreeView@@8 004201b4     bncs_csi.obj
 0002:000051d0       ??_R3QTreeView@@8          004201d0     bncs_csi.obj
 0002:000051e0       ??_R2QTreeView@@8          004201e0     bncs_csi.obj
 0002:00005200       ??_R1A@?0A@EA@QAbstractItemView@@8 00420200     bncs_csi.obj
 0002:0000521c       ??_R3QAbstractItemView@@8  0042021c     bncs_csi.obj
 0002:0000522c       ??_R2QAbstractItemView@@8  0042022c     bncs_csi.obj
 0002:00005248       ??_R1A@?0A@EA@QAbstractScrollArea@@8 00420248     bncs_csi.obj
 0002:00005264       ??_R3QAbstractScrollArea@@8 00420264     bncs_csi.obj
 0002:00005274       ??_R2QAbstractScrollArea@@8 00420274     bncs_csi.obj
 0002:0000528c       ??_R4QTreeWidget@@6BQPaintDevice@@@ 0042028c     bncs_csi.obj
 0002:000052a0       ??_R4QTreeWidgetItem@@6B@  004202a0     bncs_csi.obj
 0002:000052b4       ??_R3QTreeWidgetItem@@8    004202b4     bncs_csi.obj
 0002:000052c4       ??_R2QTreeWidgetItem@@8    004202c4     bncs_csi.obj
 0002:000052cc       ??_R1A@?0A@EA@QTreeWidgetItem@@8 004202cc     bncs_csi.obj
 0002:000052e8       ??_R4messageWindowCallback@@6B@ 004202e8     bncs_csi.obj
 0002:000052fc       ??_R3messageWindowCallback@@8 004202fc     bncs_csi.obj
 0002:0000530c       ??_R2messageWindowCallback@@8 0042030c     bncs_csi.obj
 0002:00005314       ??_R1A@?0A@EA@messageWindowCallback@@8 00420314     bncs_csi.obj
 0002:00005330       ??_R4driver@@6B@           00420330     bncs_csi.obj
 0002:00005344       ??_R3driver@@8             00420344     bncs_csi.obj
 0002:00005354       ??_R2driver@@8             00420354     bncs_csi.obj
 0002:0000535c       ??_R1A@?0A@EA@driver@@8    0042035c     bncs_csi.obj
 0002:00005378       ??_R4deviceStatus@@6B@     00420378     bncs_csi.obj
 0002:0000538c       ??_R3deviceStatus@@8       0042038c     bncs_csi.obj
 0002:0000539c       ??_R2deviceStatus@@8       0042039c     bncs_csi.obj
 0002:000053a4       ??_R1A@?0A@EA@deviceStatus@@8 004203a4     bncs_csi.obj
 0002:000053c0       ??_R4bncs_csi@@6BQObject@@@ 004203c0     bncs_csi.obj
 0002:000053d4       ??_R3bncs_csi@@8           004203d4     bncs_csi.obj
 0002:000053e4       ??_R2bncs_csi@@8           004203e4     bncs_csi.obj
 0002:0000540c       ??_R1A@?0A@EA@bncs_csi@@8  0042040c     bncs_csi.obj
 0002:00005428       ??_R1A@?0A@EA@QMainWindow@@8 00420428     bncs_csi.obj
 0002:00005444       ??_R3QMainWindow@@8        00420444     bncs_csi.obj
 0002:00005454       ??_R2QMainWindow@@8        00420454     bncs_csi.obj
 0002:00005468       ??_R1BI@?0A@EN@Ibncs_legacyMessageEvent@@8 00420468     bncs_csi.obj
 0002:00005484       ??_R3Ibncs_legacyMessageEvent@@8 00420484     bncs_csi.obj
 0002:00005494       ??_R2Ibncs_legacyMessageEvent@@8 00420494     bncs_csi.obj
 0002:0000549c       ??_R1A@?0A@EA@Ibncs_legacyMessageEvent@@8 0042049c     bncs_csi.obj
 0002:000054b8       ??_R1BM@?0A@EN@Ibncs_redundancyMessageEvent@@8 004204b8     bncs_csi.obj
 0002:000054d4       ??_R3Ibncs_redundancyMessageEvent@@8 004204d4     bncs_csi.obj
 0002:000054e4       ??_R2Ibncs_redundancyMessageEvent@@8 004204e4     bncs_csi.obj
 0002:000054ec       ??_R1A@?0A@EA@Ibncs_redundancyMessageEvent@@8 004204ec     bncs_csi.obj
 0002:00005508       ??_R1CA@?0A@EN@messageWindowCallback@@8 00420508     bncs_csi.obj
 0002:00005524       ??_R1CE@?0A@EN@Ibncs_netStatusMessageEvent@@8 00420524     bncs_csi.obj
 0002:00005540       ??_R3Ibncs_netStatusMessageEvent@@8 00420540     bncs_csi.obj
 0002:00005550       ??_R2Ibncs_netStatusMessageEvent@@8 00420550     bncs_csi.obj
 0002:00005558       ??_R1A@?0A@EA@Ibncs_netStatusMessageEvent@@8 00420558     bncs_csi.obj
 0002:00005574       ??_R4bncs_csi@@6BQPaintDevice@@@ 00420574     bncs_csi.obj
 0002:00005588       ??_R4bncs_csi@@6BIbncs_legacyMessageEvent@@@ 00420588     bncs_csi.obj
 0002:0000559c       ??_R4bncs_csi@@6BIbncs_redundancyMessageEvent@@@ 0042059c     bncs_csi.obj
 0002:000055b0       ??_R4bncs_csi@@6BmessageWindowCallback@@@ 004205b0     bncs_csi.obj
 0002:000055c4       ??_R4bncs_csi@@6BIbncs_netStatusMessageEvent@@@ 004205c4     bncs_csi.obj
 0002:000055d8       ??_R4deferredPoll@@6B@     004205d8     bncs_csi.obj
 0002:000055ec       ??_R3deferredPoll@@8       004205ec     bncs_csi.obj
 0002:000055fc       ??_R2deferredPoll@@8       004205fc     bncs_csi.obj
 0002:00005608       ??_R1A@?0A@EA@deferredPoll@@8 00420608     bncs_csi.obj
 0002:00005624       ??_R1A@?0A@EA@QEvent@@8    00420624     bncs_csi.obj
 0002:00005640       ??_R3QEvent@@8             00420640     bncs_csi.obj
 0002:00005650       ??_R2QEvent@@8             00420650     bncs_csi.obj
 0002:00005658       ??_R4clientsRegistration@@6B@ 00420658     clientsRegistration.obj
 0002:0000566c       ??_R3clientsRegistration@@8 0042066c     clientsRegistration.obj
 0002:0000567c       ??_R2clientsRegistration@@8 0042067c     clientsRegistration.obj
 0002:00005684       ??_R1A@?0A@EA@clientsRegistration@@8 00420684     clientsRegistration.obj
 0002:000056a0       ??_R4messageWindow@@6B@    004206a0     messageWindow.obj
 0002:000056b4       ??_R3messageWindow@@8      004206b4     messageWindow.obj
 0002:000056c4       ??_R2messageWindow@@8      004206c4     messageWindow.obj
 0002:000056d0       ??_R1A@?0A@EA@messageWindow@@8 004206d0     messageWindow.obj
 0002:000056ec       ??_R4singleReg@@6B@        004206ec     singleReg.obj
 0002:00005700       ??_R3singleReg@@8          00420700     singleReg.obj
 0002:00005710       ??_R2singleReg@@8          00420710     singleReg.obj
 0002:00005718       ??_R1A@?0A@EA@singleReg@@8 00420718     singleReg.obj
 0002:00005734       ??_R4bncs_disklog@@6B@     00420734     bncs_disklog:bncs_disklog.obj
 0002:00005748       ??_R3bncs_disklog@@8       00420748     bncs_disklog:bncs_disklog.obj
 0002:00005758       ??_R2bncs_disklog@@8       00420758     bncs_disklog:bncs_disklog.obj
 0002:00005760       ??_R1A@?0A@EA@bncs_disklog@@8 00420760     bncs_disklog:bncs_disklog.obj
 0002:0000577c       ??_R4cBncsVersion@@6B@     0042077c     BncsVersionInfo:cBncsVersion.obj
 0002:00005790       ??_R3cBncsVersion@@8       00420790     BncsVersionInfo:cBncsVersion.obj
 0002:000057a0       ??_R2cBncsVersion@@8       004207a0     BncsVersionInfo:cBncsVersion.obj
 0002:000057a8       ??_R1A@?0A@EA@cBncsVersion@@8 004207a8     BncsVersionInfo:cBncsVersion.obj
 0002:000057c4       ??_R4type_info@@6B@        004207c4     MSVCRT:ti_inst.obj
 0002:000057d8       ??_R3type_info@@8          004207d8     MSVCRT:ti_inst.obj
 0002:000057e8       ??_R2type_info@@8          004207e8     MSVCRT:ti_inst.obj
 0002:000057f0       ??_R1A@?0A@EA@type_info@@8 004207f0     MSVCRT:ti_inst.obj
 0002:0000580c       ___rtc_iaa                 0042080c     MSVCRT:initsect.obj
 0002:00005810       ___rtc_izz                 00420810     MSVCRT:initsect.obj
 0002:00005814       ___rtc_taa                 00420814     MSVCRT:initsect.obj
 0002:00005818       ___rtc_tzz                 00420818     MSVCRT:initsect.obj
 0002:00007724       __IMPORT_DESCRIPTOR_handleShare 00422724     handleshare:handleShare.dll
 0002:00007738       __IMPORT_DESCRIPTOR_netLegacy 00422738     netLegacy:netLegacy.dll
 0002:0000774c       __IMPORT_DESCRIPTOR_BNCSIF32 0042274c     bncsif32:BNCSIF32.dll
 0002:00007760       __IMPORT_DESCRIPTOR_Qt5Core 00422760     Qt5Core:Qt5Core.dll
 0002:00007774       __IMPORT_DESCRIPTOR_Qt5Gui 00422774     Qt5Gui:Qt5Gui.dll
 0002:00007788       __IMPORT_DESCRIPTOR_Qt5Widgets 00422788     Qt5Widgets:Qt5Widgets.dll
 0002:0000779c       __IMPORT_DESCRIPTOR_PSAPI  0042279c     Psapi:PSAPI.DLL
 0002:000077b0       __IMPORT_DESCRIPTOR_Qt5XmlPatterns 004227b0     Qt5XmlPatterns:Qt5XmlPatterns.dll
 0002:000077c4       __IMPORT_DESCRIPTOR_KERNEL32 004227c4     kernel32:KERNEL32.dll
 0002:000077d8       __IMPORT_DESCRIPTOR_USER32 004227d8     user32:USER32.dll
 0002:000077ec       __IMPORT_DESCRIPTOR_ADVAPI32 004227ec     advapi32:ADVAPI32.dll
 0002:00007800       __IMPORT_DESCRIPTOR_SHELL32 00422800     shell32:SHELL32.dll
 0002:00007814       __IMPORT_DESCRIPTOR_MSVCP120 00422814     msvcprt:MSVCP120.dll
 0002:00007828       __IMPORT_DESCRIPTOR_MSVCR120 00422828     MSVCRT:MSVCR120.dll
 0002:0000783c       __IMPORT_DESCRIPTOR_VERSION 0042283c     version:VERSION.dll
 0002:00007850       __NULL_IMPORT_DESCRIPTOR   00422850     handleshare:handleShare.dll
 0003:00000068       ?_Generic_object@?$_Error_objects@H@std@@2V_Generic_error_category@2@A 00429068     ccConfig.obj
 0003:0000006c       ?_Iostream_object@?$_Error_objects@H@std@@2V_Iostream_error_category@2@A 0042906c     ccConfig.obj
 0003:00000070       ?_System_object@?$_Error_objects@H@std@@2V_System_error_category@2@A 00429070     ccConfig.obj
 0003:000002e8       ?staticMetaObject@bncs_csi@@2UQMetaObject@@B 004292e8     moc_bncs_csi.obj
 0003:00000300       ?staticMetaObject@messageWindow@@2UQMetaObject@@B 00429300     moc_messageWindow.obj
 0003:000003dc       ___security_cookie         004293dc     MSVCRT:gs_cookie.obj
 0003:000003e0       ___security_cookie_complement 004293e0     MSVCRT:gs_cookie.obj
 0003:000003f0       ___defaultmatherr          004293f0     MSVCRT:merr.obj
 0003:000003f4       ___globallocalestatus      004293f4     MSVCRT:xthdloc.obj
 0003:000003f8       ___native_dllmain_reason   004293f8     MSVCRT:natstart.obj
 0003:000003fc       ??_R0?AVerror_category@std@@@8 004293fc     ccConfig.obj
 0003:00000420       ??_R0?AV_Generic_error_category@std@@@8 00429420     ccConfig.obj
 0003:0000044c       ??_R0?AV_Iostream_error_category@std@@@8 0042944c     ccConfig.obj
 0003:00000478       ??_R0?AV_System_error_category@std@@@8 00429478     ccConfig.obj
 0003:000004a4       ??_R0?AVdatabase@@@8       004294a4     database.obj
 0003:000004bc       ??_R0?AVdatabaseMgr@@@8    004294bc     databaseMgr.obj
 0003:000004d8       ??_R0?AVdecodeBNCSString@@@8 004294d8     decodeBNCSString.obj
 0003:000004f8       ??_R0?AVQWidget@@@8        004294f8     bncs_csi.obj
 0003:00000510       ??_R0?AVQObject@@@8        00429510     bncs_csi.obj
 0003:00000528       ??_R0?AVQPaintDevice@@@8   00429528     bncs_csi.obj
 0003:00000544       ??_R0?AVQAction@@@8        00429544     bncs_csi.obj
 0003:0000055c       ??_R0?AVQMenuBar@@@8       0042955c     bncs_csi.obj
 0003:00000574       ??_R0?AVQStatusBar@@@8     00429574     bncs_csi.obj
 0003:00000590       ??_R0?AVQToolBar@@@8       00429590     bncs_csi.obj
 0003:000005a8       ??_R0?AVQMenu@@@8          004295a8     bncs_csi.obj
 0003:000005bc       ??_R0?AVQGroupBox@@@8      004295bc     bncs_csi.obj
 0003:000005d4       ??_R0?AVQSpacerItem@@@8    004295d4     bncs_csi.obj
 0003:000005f0       ??_R0?AVQLayoutItem@@@8    004295f0     bncs_csi.obj
 0003:0000060c       ??_R0?AVQHBoxLayout@@@8    0042960c     bncs_csi.obj
 0003:00000628       ??_R0?AVQBoxLayout@@@8     00429628     bncs_csi.obj
 0003:00000644       ??_R0?AVQLayout@@@8        00429644     bncs_csi.obj
 0003:0000065c       ??_R0?AVQVBoxLayout@@@8    0042965c     bncs_csi.obj
 0003:00000678       ??_R0?AVQLabel@@@8         00429678     bncs_csi.obj
 0003:00000690       ??_R0?AVQFrame@@@8         00429690     bncs_csi.obj
 0003:000006a8       ??_R0?AVQSplitter@@@8      004296a8     bncs_csi.obj
 0003:000006c0       ??_R0?AVQTreeWidget@@@8    004296c0     bncs_csi.obj
 0003:000006dc       ??_R0?AVQTreeView@@@8      004296dc     bncs_csi.obj
 0003:000006f4       ??_R0?AVQAbstractItemView@@@8 004296f4     bncs_csi.obj
 0003:00000714       ??_R0?AVQAbstractScrollArea@@@8 00429714     bncs_csi.obj
 0003:00000738       ??_R0?AVQTreeWidgetItem@@@8 00429738     bncs_csi.obj
 0003:00000758       ??_R0?AVmessageWindowCallback@@@8 00429758     bncs_csi.obj
 0003:0000077c       ??_R0?AVdriver@@@8         0042977c     bncs_csi.obj
 0003:00000794       ??_R0?AVdeviceStatus@@@8   00429794     bncs_csi.obj
 0003:000007b0       ??_R0?AVbncs_csi@@@8       004297b0     bncs_csi.obj
 0003:000007c8       ??_R0?AVQMainWindow@@@8    004297c8     bncs_csi.obj
 0003:000007e4       ??_R0?AVIbncs_legacyMessageEvent@@@8 004297e4     bncs_csi.obj
 0003:0000080c       ??_R0?AVIbncs_redundancyMessageEvent@@@8 0042980c     bncs_csi.obj
 0003:00000838       ??_R0?AVIbncs_netStatusMessageEvent@@@8 00429838     bncs_csi.obj
 0003:00000864       ??_R0?AVdeferredPoll@@@8   00429864     bncs_csi.obj
 0003:00000880       ??_R0?AVQEvent@@@8         00429880     bncs_csi.obj
 0003:00000898       ??_R0?AVclientsRegistration@@@8 00429898     clientsRegistration.obj
 0003:000008bc       ??_R0?AVmessageWindow@@@8  004298bc     messageWindow.obj
 0003:000008d8       ??_R0?AVsingleReg@@@8      004298d8     singleReg.obj
 0003:000008f0       ??_R0?AVbncs_disklog@@@8   004298f0     bncs_disklog:bncs_disklog.obj
 0003:0000090c       ??_R0?AVcBncsVersion@@@8   0042990c     BncsVersionInfo:cBncsVersion.obj
 0003:00000928       ??_R0?AVtype_info@@@8      00429928     MSVCRT:ti_inst.obj
 0003:00000944       ?id@?$num_put@DV?$back_insert_iterator@V?$basic_string@DU?$char_traits@D@std@@V?$allocator@D@2@@std@@@std@@@std@@2V0locale@2@A 00429944     ccConfig.obj
 0003:00000948       ?id@?$num_put@_WV?$back_insert_iterator@V?$basic_string@_WU?$char_traits@_W@std@@V?$allocator@_W@2@@std@@@std@@@std@@2V0locale@2@A 00429948     ccConfig.obj
 0003:0000097e       ?dummy@?A0x81f7e962@@3Uinitializer@1@A 0042997e     qrc_bncs_csi.obj
 0003:000009a0       ?pHtmlHelpW@@3P6GPAUHWND__@@PAU1@PBGIK@ZA 004299a0     htmlhelp:init.obj
 0003:000009a4       ?pHtmlHelpA@@3P6GPAUHWND__@@PAU1@PBDIK@ZA 004299a4     htmlhelp:init.obj
 0003:00000f20       __commode                  00429f20     MSVCRT:xncommod.obj
 0003:00000f24       __dowildcard               00429f24     MSVCRT:wildcard.obj
 0003:00000f28       __newmode                  00429f28     MSVCRT:_newmode.obj
 0003:00000f2c       __fmode                    00429f2c     MSVCRT:xtxtmode.obj
 0003:00000f34       ___native_startup_lock     00429f34     <common>
 0003:00000f38       ___native_startup_state    00429f38     <common>
 0003:00000f3c       ___dyn_tls_init_callback   00429f3c     <common>
 0003:00000f40       ___onexitend               00429f40     <common>
 0003:00000f44       ___onexitbegin             00429f44     <common>

 entry point at        0001:0001797f

 Static symbols

 0001:00000100       ??__E?_Generic_object@?$_Error_objects@H@std@@2V_Generic_error_category@2@A@@YAXXZ 00401100 f   ccConfig.obj
 0001:00000110       ??__E?_Iostream_object@?$_Error_objects@H@std@@2V_Iostream_error_category@2@A@@YAXXZ 00401110 f   ccConfig.obj
 0001:00000120       ??__E?_System_object@?$_Error_objects@H@std@@2V_System_error_category@2@A@@YAXXZ 00401120 f   ccConfig.obj
 0001:00000130       ??__Edummy@?A0x81f7e962@@YAXXZ 00401130 f   qrc_bncs_csi.obj
 0001:00000150       ??__E?staticMetaObject@bncs_csi@@2UQMetaObject@@B@@YAXXZ 00401150 f   moc_bncs_csi.obj
 0001:00000160       ??__E?staticMetaObject@messageWindow@@2UQMetaObject@@B@@YAXXZ 00401160 f   moc_messageWindow.obj
 0001:00000546       __catch$?_Copy@?$basic_string@DU?$char_traits@D@std@@V?$allocator@D@2@@std@@QAEXII@Z$0 00401546 f i ccConfig.obj
 0001:00000583       __catch$?_Copy@?$basic_string@DU?$char_traits@D@std@@V?$allocator@D@2@@std@@QAEXII@Z$1 00401583 f i ccConfig.obj
 0001:00001a48       __catch$??$_Insert_nohint@AAU?$pair@$$CBHV?$basic_string@DU?$char_traits@D@std@@V?$allocator@D@2@@std@@@std@@PAU?$_Tree_node@U?$pair@$$CBHV?$basic_string@DU?$char_traits@D@std@@V?$allocator@D@2@@std@@@std@@PAX@2@@?$_Tree@V?$_Tmap_traits@HV?$basic_string@DU?$char_traits@D@std@@V?$allocator@D@2@@std@@U?$less@H@2@V?$allocator@U?$pair@$$CBHV?$basic_string@DU?$char_traits@D@std@@V?$allocator@D@2@@std@@@std@@@2@$0A@@std@@@std@@IAE?AU?$pair@V?$_Tree_iterator@V?$_Tree_val@U?$_Tree_simple_types@U?$pair@$$CBHV?$basic_string@DU?$char_traits@D@std@@V?$allocator@D@2@@std@@@std@@@std@@@std@@@std@@_N@1@_NAAU?$pair@$$CBHV?$basic_string@DU?$char_traits@D@std@@V?$allocator@D@2@@std@@@1@PAU?$_Tree_node@U?$pair@$$CBHV?$basic_string@DU?$char_traits@D@std@@V?$allocator@D@2@@std@@@std@@PAX@1@@Z$0 00402a48 f i database.obj
 0001:0000307a       __catch$??$_Insert_nohint@AAU?$pair@$$CBHPAVdatabase@@@std@@PAU?$_Tree_node@U?$pair@$$CBHPAVdatabase@@@std@@PAX@2@@?$_Tree@V?$_Tmap_traits@HPAVdatabase@@U?$less@H@std@@V?$allocator@U?$pair@$$CBHPAVdatabase@@@std@@@3@$0A@@std@@@std@@IAE?AU?$pair@V?$_Tree_iterator@V?$_Tree_val@U?$_Tree_simple_types@U?$pair@$$CBHPAVdatabase@@@std@@@std@@@std@@@std@@_N@1@_NAAU?$pair@$$CBHPAVdatabase@@@1@PAU?$_Tree_node@U?$pair@$$CBHPAVdatabase@@@std@@PAX@1@@Z$0 0040407a f i databaseMgr.obj
 0001:00003bcd       __catch$??$_Buynode@U?$pair@KVdeviceStatus@@@std@@@?$_Tree_buy@U?$pair@$$CBKVdeviceStatus@@@std@@V?$allocator@U?$pair@$$CBKVdeviceStatus@@@std@@@2@@std@@QAEPAU?$_Tree_node@U?$pair@$$CBKVdeviceStatus@@@std@@PAX@1@$$QAU?$pair@KVdeviceStatus@@@1@@Z$0 00404bcd f i bncs_csi.obj
 0001:00003d4f       __catch$??$_Copy_nodes@U?$integral_constant@_N$0A@@std@@@?$_Tree@V?$_Tset_traits@VclientIPC@@U?$less@VclientIPC@@@std@@V?$allocator@VclientIPC@@@3@$0A@@std@@@std@@IAEPAU?$_Tree_node@VclientIPC@@PAX@1@PAU21@0U?$integral_constant@_N$0A@@1@@Z$0 00404d4f f i bncs_csi.obj
 0001:00003d4f       __catch$??$_Copy_nodes@U?$integral_constant@_N$0A@@std@@@?$_Tree@V?$_Tmap_traits@HVdeviceStatusOnHost@@U?$less@H@std@@V?$allocator@U?$pair@$$CBHVdeviceStatusOnHost@@@std@@@3@$0A@@std@@@std@@IAEPAU?$_Tree_node@U?$pair@$$CBHVdeviceStatusOnHost@@@std@@PAX@1@PAU21@0U?$integral_constant@_N$0A@@1@@Z$0 00404d4f f i bncs_csi.obj
 0001:000046a9       __catch$??$_Insert_nohint@AAU?$pair@$$CBKVdeviceStatus@@@std@@PAU?$_Tree_node@U?$pair@$$CBKVdeviceStatus@@@std@@PAX@2@@?$_Tree@V?$_Tmap_traits@KVdeviceStatus@@U?$less@K@std@@V?$allocator@U?$pair@$$CBKVdeviceStatus@@@std@@@3@$0A@@std@@@std@@IAE?AU?$pair@V?$_Tree_iterator@V?$_Tree_val@U?$_Tree_simple_types@U?$pair@$$CBKVdeviceStatus@@@std@@@std@@@std@@@std@@_N@1@_NAAU?$pair@$$CBKVdeviceStatus@@@1@PAU?$_Tree_node@U?$pair@$$CBKVdeviceStatus@@@std@@PAX@1@@Z$0 004056a9 f i bncs_csi.obj
 0001:00004798       __catch$??$_Insert_nohint@AAU?$pair@$$CBKVdriver@@@std@@PAU?$_Tree_node@U?$pair@$$CBKVdriver@@@std@@PAX@2@@?$_Tree@V?$_Tmap_traits@KVdriver@@U?$less@K@std@@V?$allocator@U?$pair@$$CBKVdriver@@@std@@@3@$0A@@std@@@std@@IAE?AU?$pair@V?$_Tree_iterator@V?$_Tree_val@U?$_Tree_simple_types@U?$pair@$$CBKVdriver@@@std@@@std@@@std@@@std@@_N@1@_NAAU?$pair@$$CBKVdriver@@@1@PAU?$_Tree_node@U?$pair@$$CBKVdriver@@@std@@PAX@1@@Z$0 00405798 f i bncs_csi.obj
 0001:000048ba       __catch$??$_Insert_nohint@AAU?$pair@$$CBKVworkstationStatus@@@std@@PAU?$_Tree_node@U?$pair@$$CBKVworkstationStatus@@@std@@PAX@2@@?$_Tree@V?$_Tmap_traits@KVworkstationStatus@@U?$less@K@std@@V?$allocator@U?$pair@$$CBKVworkstationStatus@@@std@@@3@$0A@@std@@@std@@IAE?AU?$pair@V?$_Tree_iterator@V?$_Tree_val@U?$_Tree_simple_types@U?$pair@$$CBKVworkstationStatus@@@std@@@std@@@std@@@std@@_N@1@_NAAU?$pair@$$CBKVworkstationStatus@@@1@PAU?$_Tree_node@U?$pair@$$CBKVworkstationStatus@@@std@@PAX@1@@Z$0 004058ba f i bncs_csi.obj
 0001:000049df       __catch$??$_Insert_nohint@KU_Nil@std@@@?$_Tree@V?$_Tset_traits@KU?$less@K@std@@V?$allocator@K@2@$0A@@std@@@std@@IAE?AU?$pair@V?$_Tree_const_iterator@V?$_Tree_val@U?$_Tree_simple_types@K@std@@@std@@@std@@_N@1@_N$$QAKU_Nil@1@@Z$0 004059df f i bncs_csi.obj
 0001:000049df       __catch$??$_Insert_nohint@ABKU_Nil@std@@@?$_Tree@V?$_Tset_traits@KU?$less@K@std@@V?$allocator@K@2@$0A@@std@@@std@@IAE?AU?$pair@V?$_Tree_const_iterator@V?$_Tree_val@U?$_Tree_simple_types@K@std@@@std@@@std@@_N@1@_NABKU_Nil@1@@Z$0 004059df f i bncs_csi.obj
 0001:00004a86       __catch$??0?$_Tree@V?$_Tset_traits@VclientIPC@@U?$less@VclientIPC@@@std@@V?$allocator@VclientIPC@@@3@$0A@@std@@@std@@QAE@ABV01@ABV?$allocator@VclientIPC@@@1@@Z$0 00405a86 f i bncs_csi.obj
 0001:00004a86       __catch$??0?$_Tree@V?$_Tmap_traits@HVdeviceStatusOnHost@@U?$less@H@std@@V?$allocator@U?$pair@$$CBHVdeviceStatusOnHost@@@std@@@3@$0A@@std@@@std@@QAE@ABV01@ABV?$allocator@U?$pair@$$CBHVdeviceStatusOnHost@@@std@@@1@@Z$0 00405a86 f i bncs_csi.obj
 0001:00005d00       ??R<lambda_0d38a1946a849434236a69fd994aba4b>@@QBE?AVQString@@XZ 00406d00 f   bncs_csi.obj
 0001:00005d20       ??R<lambda_11b8077cc486afedf3c3e2d866d7e739>@@QBE?AVQString@@XZ 00406d20 f   bncs_csi.obj
 0001:00005d40       ??R<lambda_1c29a7e58d72eac73f2325253d0a3cc5>@@QBE?AVQString@@XZ 00406d40 f   bncs_csi.obj
 0001:00005d60       ??R<lambda_1cb58be9b2d0f9daf6f60d643120333f>@@QBE?AVQString@@XZ 00406d60 f   bncs_csi.obj
 0001:00005d80       ??R<lambda_1d62bf7a707aa95fc3bdaf00a4453434>@@QBE?AVQString@@XZ 00406d80 f   bncs_csi.obj
 0001:00005da0       ??R<lambda_20fe3d784c9546b9a4e815c33df1d392>@@QBE?AVQString@@XZ 00406da0 f   bncs_csi.obj
 0001:00005dc0       ??R<lambda_2181b273dc27e59be7e72547830fdeb6>@@QBE?AVQString@@XZ 00406dc0 f   bncs_csi.obj
 0001:00005de0       ??R<lambda_2443db8e689628538be2ebd15c4fb1ab>@@QBE?AVQString@@XZ 00406de0 f   bncs_csi.obj
 0001:00005e00       ??R<lambda_288c1dd3389a161955d98746f38a9211>@@QBE?AVQString@@XZ 00406e00 f   bncs_csi.obj
 0001:00005e20       ??R<lambda_340c549a29ad1c68c1623cecc007ea55>@@QBE?AVQString@@XZ 00406e20 f   bncs_csi.obj
 0001:00005e40       ??R<lambda_34e66e49488c973ca3cc223c0be534dc>@@QBE?AVQString@@XZ 00406e40 f   bncs_csi.obj
 0001:00005e60       ??R<lambda_36eb8a5a9a4bc3c311ce2f75724e8e3a>@@QBE?AVQString@@XZ 00406e60 f   bncs_csi.obj
 0001:00005e80       ??R<lambda_376f5899dea57471feb141240872e370>@@QBE?AVQString@@XZ 00406e80 f   bncs_csi.obj
 0001:00005ea0       ??R<lambda_416b37dfa60b996ac9459bb6c343f181>@@QBE?AVQString@@XZ 00406ea0 f   bncs_csi.obj
 0001:00005ec0       ??R<lambda_4b12b2e5e799f187f857e9772af69f5c>@@QBE?AVQString@@XZ 00406ec0 f   bncs_csi.obj
 0001:00005ee0       ??R<lambda_4b9b26d06ed426994b82df7a05fb47ab>@@QBE?AVQString@@XZ 00406ee0 f   bncs_csi.obj
 0001:00005f00       ??R<lambda_59c7111310ef036daadf08440294634a>@@QBE?AVQString@@XZ 00406f00 f   bncs_csi.obj
 0001:00005f20       ??R<lambda_621d403e1a0e51917129288999392ecb>@@QBE?AVQString@@XZ 00406f20 f   bncs_csi.obj
 0001:00005f40       ??R<lambda_6851f57a9214babd8fd6310dd6c9acc7>@@QBE?AVQString@@XZ 00406f40 f   bncs_csi.obj
 0001:00005f60       ??R<lambda_68899d209a29dd6956eea1b1ccab795e>@@QBE?AVQString@@XZ 00406f60 f   bncs_csi.obj
 0001:00005f80       ??R<lambda_6a38dc1584574f08b43bc4e5285ddc71>@@QBE?AVQString@@XZ 00406f80 f   bncs_csi.obj
 0001:00005fa0       ??R<lambda_6ec1ccad30f3916b640be4cfaf06e6c8>@@QBE?AVQString@@XZ 00406fa0 f   bncs_csi.obj
 0001:00005fc0       ??R<lambda_7112738a5592221aeefcd3f37f268309>@@QBE?AVQString@@XZ 00406fc0 f   bncs_csi.obj
 0001:00005fe0       ??R<lambda_74b9a583aa76413fe1a81e1cfae15609>@@QBE?AVQString@@XZ 00406fe0 f   bncs_csi.obj
 0001:00006000       ??R<lambda_770d0e39c4467a3943cfba485722730a>@@QBE?AVQString@@XZ 00407000 f   bncs_csi.obj
 0001:00006020       ??R<lambda_77a7c57e6b73d85b75be72a6e5c99cb5>@@QBE?AVQString@@XZ 00407020 f   bncs_csi.obj
 0001:00006040       ??R<lambda_7ede04f9697efb67d857f3df6fbed6ee>@@QBE?AVQString@@XZ 00407040 f   bncs_csi.obj
 0001:00006060       ??R<lambda_84912617ce214f99c7bd234f92b3b28d>@@QBE?AVQString@@XZ 00407060 f   bncs_csi.obj
 0001:00006080       ??R<lambda_8833b320a2b3eb7a6f113274ff91a99e>@@QBE?AVQString@@XZ 00407080 f   bncs_csi.obj
 0001:000060a0       ??R<lambda_8bfaf2cbae1fb9139db0abc5a9bf6796>@@QBE?AVQString@@XZ 004070a0 f   bncs_csi.obj
 0001:000060c0       ??R<lambda_8cd30b143d5843eefb5c6aa2c41b9bb6>@@QBE?AVQString@@XZ 004070c0 f   bncs_csi.obj
 0001:000060e0       ??R<lambda_8d0afe78a08e0495784adbc611699724>@@QBE?AVQString@@XZ 004070e0 f   bncs_csi.obj
 0001:00006100       ??R<lambda_90ec8983c8334ffccc0ec050be7eec43>@@QBE?AVQString@@XZ 00407100 f   bncs_csi.obj
 0001:00006120       ??R<lambda_924fc3bb38bf79cc7ae1d0049c672033>@@QBE?AVQString@@XZ 00407120 f   bncs_csi.obj
 0001:00006140       ??R<lambda_945613928d69137b71232c542f2e9d18>@@QBE?AVQString@@XZ 00407140 f   bncs_csi.obj
 0001:00006160       ??R<lambda_9d98717f234a2225413ac61034c53534>@@QBE?AVQString@@XZ 00407160 f   bncs_csi.obj
 0001:00006180       ??R<lambda_9e52daa6760b19abb028df4e329f37af>@@QBE?AVQString@@XZ 00407180 f   bncs_csi.obj
 0001:000061a0       ??R<lambda_a032000fabf4c754095b245b964298fc>@@QBE?AVQString@@XZ 004071a0 f   bncs_csi.obj
 0001:000061c0       ??R<lambda_a3cab08b74bfacdf26007d12a542a203>@@QBE?AVQString@@XZ 004071c0 f   bncs_csi.obj
 0001:000061e0       ??R<lambda_a93053f043fd081d90d36b6b1f5e230a>@@QBE?AVQString@@XZ 004071e0 f   bncs_csi.obj
 0001:00006200       ??R<lambda_ad31f64ad5732174768c1e2c97737311>@@QBE?AVQString@@XZ 00407200 f   bncs_csi.obj
 0001:00006220       ??R<lambda_b2a899724017792b1a9c0ddc47cd7f23>@@QBE?AVQString@@XZ 00407220 f   bncs_csi.obj
 0001:00006240       ??R<lambda_b2bcd47991c0efbee448e7170425bb82>@@QBE?AVQString@@XZ 00407240 f   bncs_csi.obj
 0001:00006260       ??R<lambda_c2784df85e7db630d6a052e5e170b062>@@QBE?AVQString@@XZ 00407260 f   bncs_csi.obj
 0001:00006280       ??R<lambda_c2bad83eb01518d07b52a173297d8e35>@@QBE?AVQString@@XZ 00407280 f   bncs_csi.obj
 0001:000062a0       ??R<lambda_c3872128a5723a20eac7a0571631e046>@@QBE?AVQString@@XZ 004072a0 f   bncs_csi.obj
 0001:000062c0       ??R<lambda_cb1f48651f2870b140ff5fef5a60c98c>@@QBE?AVQString@@XZ 004072c0 f   bncs_csi.obj
 0001:000062e0       ??R<lambda_cd69ca7b7355ce13adf626005d245baa>@@QBE?AVQString@@XZ 004072e0 f   bncs_csi.obj
 0001:00006300       ??R<lambda_de39fdbfd97a588a7ef86b2ce247cbf3>@@QBE?AVQString@@XZ 00407300 f   bncs_csi.obj
 0001:00006320       ??R<lambda_f15c57b630895855db119b3ef8ce34ad>@@QBE?AVQString@@XZ 00407320 f   bncs_csi.obj
 0001:00006340       ??R<lambda_f34f8eb7fdfeb8fa3ea96eeaf3d64111>@@QBE?AVQString@@XZ 00407340 f   bncs_csi.obj
 0001:00006360       ??R<lambda_f411af00677aa74936de07536cbc7b18>@@QBE?AVQString@@XZ 00407360 f   bncs_csi.obj
 0001:00006380       ??R<lambda_f64ca8aa0fe1da2d11aab9ee15acccfe>@@QBE?AVQString@@XZ 00407380 f   bncs_csi.obj
 0001:000063a0       ??R<lambda_fb5bcef9f4b6f9f8fca2266cd3face10>@@QBE?AVQString@@XZ 004073a0 f   bncs_csi.obj
 0001:000063c0       ??R<lambda_fc641fe35c2d36c6064f501a6357f38f>@@QBE?AVQString@@XZ 004073c0 f   bncs_csi.obj
 0001:00006bfb       __catch$?append@?$QList@VQString@@@@QAEXABVQString@@@Z$4 00407bfb f i bncs_csi.obj
 0001:0000736c       __catch$?detach_helper@?$QList@PAVQTreeWidgetItem@@@@AAEXH@Z$0 0040836c f i bncs_csi.obj
 0001:00007461       __catch$?detach_helper@?$QList@VQString@@@@AAEXH@Z$0 00408461 f i bncs_csi.obj
 0001:0000759e       __catch$?detach_helper_grow@?$QList@VQString@@@@AAEPAUNode@1@HH@Z$2 0040859e f i bncs_csi.obj
 0001:000075d9       __catch$?detach_helper_grow@?$QList@VQString@@@@AAEPAUNode@1@HH@Z$0 004085d9 f i bncs_csi.obj
 0001:0000ae14       $LN112                     0040be14     bncs_csi.obj
 0001:0000f2da       __catch$??$_Insert_nohint@AAU?$pair@$$CBHVdeviceStatusOnHost@@@std@@PAU?$_Tree_node@U?$pair@$$CBHVdeviceStatusOnHost@@@std@@PAX@2@@?$_Tree@V?$_Tmap_traits@HVdeviceStatusOnHost@@U?$less@H@std@@V?$allocator@U?$pair@$$CBHVdeviceStatusOnHost@@@std@@@3@$0A@@std@@@std@@IAE?AU?$pair@V?$_Tree_iterator@V?$_Tree_val@U?$_Tree_simple_types@U?$pair@$$CBHVdeviceStatusOnHost@@@std@@@std@@@std@@@std@@_N@1@_NAAU?$pair@$$CBHVdeviceStatusOnHost@@@1@PAU?$_Tree_node@U?$pair@$$CBHVdeviceStatusOnHost@@@std@@PAX@1@@Z$0 004102da f i deviceStatus.obj
 0001:0000fc34       $LN34                      00410c34     moc_bncs_csi.obj
 0001:000102df       __catch$??$_Copy_nodes@U?$integral_constant@_N$0A@@std@@@?$_Tree@V?$_Tmap_traits@IVdriverIPC@@U?$less@I@std@@V?$allocator@U?$pair@$$CBIVdriverIPC@@@std@@@3@$0A@@std@@@std@@IAEPAU?$_Tree_node@U?$pair@$$CBIVdriverIPC@@@std@@PAX@1@PAU21@0U?$integral_constant@_N$0A@@1@@Z$0 004112df f i messageWindow.obj
 0001:000107ea       __catch$??$_Insert_nohint@AAU?$pair@$$CBIVdriverIPC@@@std@@PAU?$_Tree_node@U?$pair@$$CBIVdriverIPC@@@std@@PAX@2@@?$_Tree@V?$_Tmap_traits@IVdriverIPC@@U?$less@I@std@@V?$allocator@U?$pair@$$CBIVdriverIPC@@@std@@@3@$0A@@std@@@std@@IAE?AU?$pair@V?$_Tree_iterator@V?$_Tree_val@U?$_Tree_simple_types@U?$pair@$$CBIVdriverIPC@@@std@@@std@@@std@@@std@@_N@1@_NAAU?$pair@$$CBIVdriverIPC@@@1@PAU?$_Tree_node@U?$pair@$$CBIVdriverIPC@@@std@@PAX@1@@Z$0 004117ea f i messageWindow.obj
 0001:0001090f       __catch$??$_Insert_nohint@ABVclientIPC@@U_Nil@std@@@?$_Tree@V?$_Tset_traits@VclientIPC@@U?$less@VclientIPC@@@std@@V?$allocator@VclientIPC@@@3@$0A@@std@@@std@@IAE?AU?$pair@V?$_Tree_const_iterator@V?$_Tree_val@U?$_Tree_simple_types@VclientIPC@@@std@@@std@@@std@@_N@1@_NABVclientIPC@@U_Nil@1@@Z$0 0041190f f i messageWindow.obj
 0001:000109b6       __catch$??0?$_Tree@V?$_Tmap_traits@IVdriverIPC@@U?$less@I@std@@V?$allocator@U?$pair@$$CBIVdriverIPC@@@std@@@3@$0A@@std@@@std@@QAE@ABV01@ABV?$allocator@U?$pair@$$CBIVdriverIPC@@@std@@@1@@Z$0 004119b6 f i messageWindow.obj
 0001:00013140       $LN652                     00414140     messageWindow.obj
 0001:000131b0       $LN562                     004141b0     messageWindow.obj
 0001:000132a4       $LN653                     004142a4     messageWindow.obj
 0001:00017850       $$000000                   00418850     MSVCRT:chkstk.obj
 0001:0001787b       _pre_c_init                0041887b f   MSVCRT:crtexew.obj
 0001:00017934       _pre_cpp_init              00418934 f   MSVCRT:crtexew.obj
 0001:00017989       ___tmainCRTStartup         00418989 f   MSVCRT:crtexew.obj
 0001:00017b80       $$000000                   00418b80     MSVCRT:sehprolg4.obj
 0001:00018100       __unwindfunclet$??$?HDU?$char_traits@D@std@@V?$allocator@D@1@@std@@YA?AV?$basic_string@DU?$char_traits@D@std@@V?$allocator@D@2@@0@ABV10@PBD@Z$0 00419100 f   ccConfig.obj
 0001:00018119       __ehhandler$??$?HDU?$char_traits@D@std@@V?$allocator@D@1@@std@@YA?AV?$basic_string@DU?$char_traits@D@std@@V?$allocator@D@2@@0@ABV10@PBD@Z 00419119 f   ccConfig.obj
 0001:00018140       __ehhandler$?_Copy@?$basic_string@DU?$char_traits@D@std@@V?$allocator@D@2@@std@@QAEXII@Z 00419140 f   ccConfig.obj
 0001:00018160       __unwindfunclet$?getDevPath@ccConfig@@SA?AV?$basic_string@DU?$char_traits@D@std@@V?$allocator@D@2@@std@@ABV23@@Z$0 00419160 f   ccConfig.obj
 0001:00018168       __unwindfunclet$?getDevPath@ccConfig@@SA?AV?$basic_string@DU?$char_traits@D@std@@V?$allocator@D@2@@std@@ABV23@@Z$1 00419168 f   ccConfig.obj
 0001:00018170       __ehhandler$?getDevPath@ccConfig@@SA?AV?$basic_string@DU?$char_traits@D@std@@V?$allocator@D@2@@std@@ABV23@@Z 00419170 f   ccConfig.obj
 0001:000181a0       __unwindfunclet$?getDevPath@ccConfig@@SA?AV?$basic_string@DU?$char_traits@D@std@@V?$allocator@D@2@@std@@XZ$0 004191a0 f   ccConfig.obj
 0001:000181ab       __unwindfunclet$?getDevPath@ccConfig@@SA?AV?$basic_string@DU?$char_traits@D@std@@V?$allocator@D@2@@std@@XZ$1 004191ab f   ccConfig.obj
 0001:000181b6       __unwindfunclet$?getDevPath@ccConfig@@SA?AV?$basic_string@DU?$char_traits@D@std@@V?$allocator@D@2@@std@@XZ$2 004191b6 f   ccConfig.obj
 0001:000181c1       __ehhandler$?getDevPath@ccConfig@@SA?AV?$basic_string@DU?$char_traits@D@std@@V?$allocator@D@2@@std@@XZ 004191c1 f   ccConfig.obj
 0001:000181f0       __unwindfunclet$?getInt@ccConfig@@SAHABV?$basic_string@DU?$char_traits@D@std@@V?$allocator@D@2@@std@@00H_N@Z$0 004191f0 f   ccConfig.obj
 0001:000181f8       __unwindfunclet$?getInt@ccConfig@@SAHABV?$basic_string@DU?$char_traits@D@std@@V?$allocator@D@2@@std@@00H_N@Z$1 004191f8 f   ccConfig.obj
 0001:00018203       __ehhandler$?getInt@ccConfig@@SAHABV?$basic_string@DU?$char_traits@D@std@@V?$allocator@D@2@@std@@00H_N@Z 00419203 f   ccConfig.obj
 0001:00018230       __unwindfunclet$?workstation@ccConfig@@SAHXZ$0 00419230 f   ccConfig.obj
 0001:00018238       __unwindfunclet$?workstation@ccConfig@@SAHXZ$1 00419238 f   ccConfig.obj
 0001:00018240       __unwindfunclet$?workstation@ccConfig@@SAHXZ$2 00419240 f   ccConfig.obj
 0001:00018248       __unwindfunclet$?workstation@ccConfig@@SAHXZ$3 00419248 f   ccConfig.obj
 0001:00018250       __unwindfunclet$?workstation@ccConfig@@SAHXZ$4 00419250 f   ccConfig.obj
 0001:00018258       __unwindfunclet$?workstation@ccConfig@@SAHXZ$5 00419258 f   ccConfig.obj
 0001:00018260       __unwindfunclet$?workstation@ccConfig@@SAHXZ$6 00419260 f   ccConfig.obj
 0001:0001826b       __unwindfunclet$?workstation@ccConfig@@SAHXZ$7 0041926b f   ccConfig.obj
 0001:00018276       __unwindfunclet$?workstation@ccConfig@@SAHXZ$8 00419276 f   ccConfig.obj
 0001:0001827e       __ehhandler$?workstation@ccConfig@@SAHXZ 0041927e f   ccConfig.obj
 0001:000182b0       __ehhandler$??$_Insert_nohint@AAU?$pair@$$CBHV?$basic_string@DU?$char_traits@D@std@@V?$allocator@D@2@@std@@@std@@PAU?$_Tree_node@U?$pair@$$CBHV?$basic_string@DU?$char_traits@D@std@@V?$allocator@D@2@@std@@@std@@PAX@2@@?$_Tree@V?$_Tmap_traits@HV?$basic_string@DU?$char_traits@D@std@@V?$allocator@D@2@@std@@U?$less@H@2@V?$allocator@U?$pair@$$CBHV?$basic_string@DU?$char_traits@D@std@@V?$allocator@D@2@@std@@@std@@@2@$0A@@std@@@std@@IAE?AU?$pair@V?$_Tree_iterator@V?$_Tree_val@U?$_Tree_simple_types@U?$pair@$$CBHV?$basic_string@DU?$char_traits@D@std@@V?$allocator@D@2@@std@@@std@@@std@@@std@@@std@@_N@1@_NAAU?$pair@$$CBHV?$basic_string@DU?$char_traits@D@std@@V?$allocator@D@2@@std@@@1@PAU?$_Tree_node@U?$pair@$$CBHV?$basic_string@DU?$char_traits@D@std@@V?$allocator@D@2@@std@@@std@@PAX@1@@Z 004192b0 f   database.obj
 0001:000182d0       __unwindfunclet$??0database@@QAE@PBDHH@Z$0 004192d0 f   database.obj
 0001:000182db       __unwindfunclet$??0database@@QAE@PBDHH@Z$1 004192db f   database.obj
 0001:000182e6       __ehhandler$??0database@@QAE@PBDHH@Z 004192e6 f   database.obj
 0001:00018310       __unwindfunclet$?load@database@@AAEXPBDHH@Z$0 00419310 f   database.obj
 0001:0001831b       __unwindfunclet$?load@database@@AAEXPBDHH@Z$1 0041931b f   database.obj
 0001:00018326       __ehhandler$?load@database@@AAEXPBDHH@Z 00419326 f   database.obj
 0001:00018350       __unwindfunclet$?setName@database@@QAE_NHPBD_NPA_N@Z$0 00419350 f   database.obj
 0001:00018358       __ehhandler$?setName@database@@QAE_NHPBD_NPA_N@Z 00419358 f   database.obj
 0001:00018380       __ehhandler$??$_Insert_nohint@AAU?$pair@$$CBHPAVdatabase@@@std@@PAU?$_Tree_node@U?$pair@$$CBHPAVdatabase@@@std@@PAX@2@@?$_Tree@V?$_Tmap_traits@HPAVdatabase@@U?$less@H@std@@V?$allocator@U?$pair@$$CBHPAVdatabase@@@std@@@3@$0A@@std@@@std@@IAE?AU?$pair@V?$_Tree_iterator@V?$_Tree_val@U?$_Tree_simple_types@U?$pair@$$CBHPAVdatabase@@@std@@@std@@@std@@@std@@_N@1@_NAAU?$pair@$$CBHPAVdatabase@@@1@PAU?$_Tree_node@U?$pair@$$CBHPAVdatabase@@@std@@PAX@1@@Z 00419380 f   databaseMgr.obj
 0001:000183a0       __unwindfunclet$??_GdatabaseMgr@@UAEPAXI@Z$0 004193a0 f   databaseMgr.obj
 0001:000183a0       __unwindfunclet$??0databaseMgr@@QAE@PBD@Z$0 004193a0 f   databaseMgr.obj
 0001:000183ab       __ehhandler$??0databaseMgr@@QAE@PBD@Z 004193ab f   databaseMgr.obj
 0001:000183ab       __ehhandler$??_GdatabaseMgr@@UAEPAXI@Z 004193ab f   databaseMgr.obj
 0001:000183d0       __unwindfunclet$?getDatabaseObject@databaseMgr@@AAEPAVdatabase@@HH_N@Z$0 004193d0 f   databaseMgr.obj
 0001:000183db       __ehhandler$?getDatabaseObject@databaseMgr@@AAEPAVdatabase@@HH_N@Z 004193db f   databaseMgr.obj
 0001:00018400       __unwindfunclet$??$_Buynode@U?$pair@KVdeviceStatus@@@std@@@?$_Tree_buy@U?$pair@$$CBKVdeviceStatus@@@std@@V?$allocator@U?$pair@$$CBKVdeviceStatus@@@std@@@2@@std@@QAEPAU?$_Tree_node@U?$pair@$$CBKVdeviceStatus@@@std@@PAX@1@$$QAU?$pair@KVdeviceStatus@@@1@@Z$2 00419400 f   bncs_csi.obj
 0001:00018411       __ehhandler$??$_Buynode@U?$pair@KVdeviceStatus@@@std@@@?$_Tree_buy@U?$pair@$$CBKVdeviceStatus@@@std@@V?$allocator@U?$pair@$$CBKVdeviceStatus@@@std@@@2@@std@@QAEPAU?$_Tree_node@U?$pair@$$CBKVdeviceStatus@@@std@@PAX@1@$$QAU?$pair@KVdeviceStatus@@@1@@Z 00419411 f   bncs_csi.obj
 0001:00018430       __ehhandler$??$_Copy_nodes@U?$integral_constant@_N$0A@@std@@@?$_Tree@V?$_Tset_traits@VclientIPC@@U?$less@VclientIPC@@@std@@V?$allocator@VclientIPC@@@3@$0A@@std@@@std@@IAEPAU?$_Tree_node@VclientIPC@@PAX@1@PAU21@0U?$integral_constant@_N$0A@@1@@Z 00419430 f   bncs_csi.obj
 0001:00018430       __ehhandler$??$_Copy_nodes@U?$integral_constant@_N$0A@@std@@@?$_Tree@V?$_Tmap_traits@HVdeviceStatusOnHost@@U?$less@H@std@@V?$allocator@U?$pair@$$CBHVdeviceStatusOnHost@@@std@@@3@$0A@@std@@@std@@IAEPAU?$_Tree_node@U?$pair@$$CBHVdeviceStatusOnHost@@@std@@PAX@1@PAU21@0U?$integral_constant@_N$0A@@1@@Z 00419430 f   bncs_csi.obj
 0001:00018450       __ehhandler$??$_Insert_nohint@AAU?$pair@$$CBKVdeviceStatus@@@std@@PAU?$_Tree_node@U?$pair@$$CBKVdeviceStatus@@@std@@PAX@2@@?$_Tree@V?$_Tmap_traits@KVdeviceStatus@@U?$less@K@std@@V?$allocator@U?$pair@$$CBKVdeviceStatus@@@std@@@3@$0A@@std@@@std@@IAE?AU?$pair@V?$_Tree_iterator@V?$_Tree_val@U?$_Tree_simple_types@U?$pair@$$CBKVdeviceStatus@@@std@@@std@@@std@@@std@@_N@1@_NAAU?$pair@$$CBKVdeviceStatus@@@1@PAU?$_Tree_node@U?$pair@$$CBKVdeviceStatus@@@std@@PAX@1@@Z 00419450 f   bncs_csi.obj
 0001:00018470       __ehhandler$??$_Insert_nohint@AAU?$pair@$$CBKVdriver@@@std@@PAU?$_Tree_node@U?$pair@$$CBKVdriver@@@std@@PAX@2@@?$_Tree@V?$_Tmap_traits@KVdriver@@U?$less@K@std@@V?$allocator@U?$pair@$$CBKVdriver@@@std@@@3@$0A@@std@@@std@@IAE?AU?$pair@V?$_Tree_iterator@V?$_Tree_val@U?$_Tree_simple_types@U?$pair@$$CBKVdriver@@@std@@@std@@@std@@@std@@_N@1@_NAAU?$pair@$$CBKVdriver@@@1@PAU?$_Tree_node@U?$pair@$$CBKVdriver@@@std@@PAX@1@@Z 00419470 f   bncs_csi.obj
 0001:00018490       __ehhandler$??$_Insert_nohint@AAU?$pair@$$CBKVworkstationStatus@@@std@@PAU?$_Tree_node@U?$pair@$$CBKVworkstationStatus@@@std@@PAX@2@@?$_Tree@V?$_Tmap_traits@KVworkstationStatus@@U?$less@K@std@@V?$allocator@U?$pair@$$CBKVworkstationStatus@@@std@@@3@$0A@@std@@@std@@IAE?AU?$pair@V?$_Tree_iterator@V?$_Tree_val@U?$_Tree_simple_types@U?$pair@$$CBKVworkstationStatus@@@std@@@std@@@std@@@std@@_N@1@_NAAU?$pair@$$CBKVworkstationStatus@@@1@PAU?$_Tree_node@U?$pair@$$CBKVworkstationStatus@@@std@@PAX@1@@Z 00419490 f   bncs_csi.obj
 0001:000184b0       __ehhandler$??$_Insert_nohint@KU_Nil@std@@@?$_Tree@V?$_Tset_traits@KU?$less@K@std@@V?$allocator@K@2@$0A@@std@@@std@@IAE?AU?$pair@V?$_Tree_const_iterator@V?$_Tree_val@U?$_Tree_simple_types@K@std@@@std@@@std@@_N@1@_N$$QAKU_Nil@1@@Z 004194b0 f   bncs_csi.obj
 0001:000184b0       __ehhandler$??$_Insert_nohint@ABKU_Nil@std@@@?$_Tree@V?$_Tset_traits@KU?$less@K@std@@V?$allocator@K@2@$0A@@std@@@std@@IAE?AU?$pair@V?$_Tree_const_iterator@V?$_Tree_val@U?$_Tree_simple_types@K@std@@@std@@@std@@_N@1@_NABKU_Nil@1@@Z 004194b0 f   bncs_csi.obj
 0001:000184d0       __unwindfunclet$??0?$_Tree@V?$_Tmap_traits@HVdeviceStatusOnHost@@U?$less@H@std@@V?$allocator@U?$pair@$$CBHVdeviceStatusOnHost@@@std@@@3@$0A@@std@@@std@@QAE@ABV01@ABV?$allocator@U?$pair@$$CBHVdeviceStatusOnHost@@@std@@@1@@Z$2 004194d0 f   bncs_csi.obj
 0001:000184d0       __unwindfunclet$??0?$_Tree@V?$_Tset_traits@VclientIPC@@U?$less@VclientIPC@@@std@@V?$allocator@VclientIPC@@@3@$0A@@std@@@std@@QAE@ABV01@ABV?$allocator@VclientIPC@@@1@@Z$2 004194d0 f   bncs_csi.obj
 0001:000184d8       __ehhandler$??0?$_Tree@V?$_Tset_traits@VclientIPC@@U?$less@VclientIPC@@@std@@V?$allocator@VclientIPC@@@3@$0A@@std@@@std@@QAE@ABV01@ABV?$allocator@VclientIPC@@@1@@Z 004194d8 f   bncs_csi.obj
 0001:000184d8       __ehhandler$??0?$_Tree@V?$_Tmap_traits@HVdeviceStatusOnHost@@U?$less@H@std@@V?$allocator@U?$pair@$$CBHVdeviceStatusOnHost@@@std@@@3@$0A@@std@@@std@@QAE@ABV01@ABV?$allocator@U?$pair@$$CBHVdeviceStatusOnHost@@@std@@@1@@Z 004194d8 f   bncs_csi.obj
 0001:00018500       __unwindfunclet$??0bncs_csi@@QAE@PAVQWidget@@@Z$0 00419500 f   bncs_csi.obj
 0001:0001850c       __unwindfunclet$??0bncs_csi@@QAE@PAVQWidget@@@Z$1 0041950c f   bncs_csi.obj
 0001:0001851d       __unwindfunclet$??0bncs_csi@@QAE@PAVQWidget@@@Z$2 0041951d f   bncs_csi.obj
 0001:0001852f       __unwindfunclet$??0bncs_csi@@QAE@PAVQWidget@@@Z$3 0041952f f   bncs_csi.obj
 0001:00018540       __unwindfunclet$??0bncs_csi@@QAE@PAVQWidget@@@Z$4 00419540 f   bncs_csi.obj
 0001:00018551       __unwindfunclet$??0bncs_csi@@QAE@PAVQWidget@@@Z$5 00419551 f   bncs_csi.obj
 0001:00018563       __unwindfunclet$??0bncs_csi@@QAE@PAVQWidget@@@Z$6 00419563 f   bncs_csi.obj
 0001:00018574       __unwindfunclet$??0bncs_csi@@QAE@PAVQWidget@@@Z$8 00419574 f   bncs_csi.obj
 0001:0001857f       __unwindfunclet$??0bncs_csi@@QAE@PAVQWidget@@@Z$9 0041957f f   bncs_csi.obj
 0001:0001858b       __unwindfunclet$??0bncs_csi@@QAE@PAVQWidget@@@Z$10 0041958b f   bncs_csi.obj
 0001:00018597       __unwindfunclet$??0bncs_csi@@QAE@PAVQWidget@@@Z$11 00419597 f   bncs_csi.obj
 0001:000185a3       __unwindfunclet$??0bncs_csi@@QAE@PAVQWidget@@@Z$12 004195a3 f   bncs_csi.obj
 0001:000185af       __unwindfunclet$??0bncs_csi@@QAE@PAVQWidget@@@Z$13 004195af f   bncs_csi.obj
 0001:000185bb       __unwindfunclet$??0bncs_csi@@QAE@PAVQWidget@@@Z$14 004195bb f   bncs_csi.obj
 0001:000185c7       __unwindfunclet$??0bncs_csi@@QAE@PAVQWidget@@@Z$15 004195c7 f   bncs_csi.obj
 0001:000185d3       __unwindfunclet$??0bncs_csi@@QAE@PAVQWidget@@@Z$16 004195d3 f   bncs_csi.obj
 0001:000185de       __unwindfunclet$??0bncs_csi@@QAE@PAVQWidget@@@Z$17 004195de f   bncs_csi.obj
 0001:000185ea       __unwindfunclet$??0bncs_csi@@QAE@PAVQWidget@@@Z$18 004195ea f   bncs_csi.obj
 0001:000185f6       __unwindfunclet$??0bncs_csi@@QAE@PAVQWidget@@@Z$19 004195f6 f   bncs_csi.obj
 0001:00018602       __unwindfunclet$??0bncs_csi@@QAE@PAVQWidget@@@Z$20 00419602 f   bncs_csi.obj
 0001:0001860e       __unwindfunclet$??0bncs_csi@@QAE@PAVQWidget@@@Z$21 0041960e f   bncs_csi.obj
 0001:0001861a       __unwindfunclet$??0bncs_csi@@QAE@PAVQWidget@@@Z$22 0041961a f   bncs_csi.obj
 0001:00018626       __unwindfunclet$??0bncs_csi@@QAE@PAVQWidget@@@Z$23 00419626 f   bncs_csi.obj
 0001:00018632       __unwindfunclet$??0bncs_csi@@QAE@PAVQWidget@@@Z$33 00419632 f   bncs_csi.obj
 0001:0001863d       __unwindfunclet$??0bncs_csi@@QAE@PAVQWidget@@@Z$34 0041963d f   bncs_csi.obj
 0001:00018649       __unwindfunclet$??0bncs_csi@@QAE@PAVQWidget@@@Z$35 00419649 f   bncs_csi.obj
 0001:00018655       __unwindfunclet$??0bncs_csi@@QAE@PAVQWidget@@@Z$36 00419655 f   bncs_csi.obj
 0001:00018661       __unwindfunclet$??0bncs_csi@@QAE@PAVQWidget@@@Z$37 00419661 f   bncs_csi.obj
 0001:0001866d       __unwindfunclet$??0bncs_csi@@QAE@PAVQWidget@@@Z$38 0041966d f   bncs_csi.obj
 0001:00018679       __unwindfunclet$??0bncs_csi@@QAE@PAVQWidget@@@Z$39 00419679 f   bncs_csi.obj
 0001:00018685       __unwindfunclet$??0bncs_csi@@QAE@PAVQWidget@@@Z$40 00419685 f   bncs_csi.obj
 0001:00018691       __unwindfunclet$??0bncs_csi@@QAE@PAVQWidget@@@Z$41 00419691 f   bncs_csi.obj
 0001:0001869d       __unwindfunclet$??0bncs_csi@@QAE@PAVQWidget@@@Z$42 0041969d f   bncs_csi.obj
 0001:000186a9       __unwindfunclet$??0bncs_csi@@QAE@PAVQWidget@@@Z$43 004196a9 f   bncs_csi.obj
 0001:000186b5       __unwindfunclet$??0bncs_csi@@QAE@PAVQWidget@@@Z$44 004196b5 f   bncs_csi.obj
 0001:000186c3       __ehhandler$??0bncs_csi@@QAE@PAVQWidget@@@Z 004196c3 f   bncs_csi.obj
 0001:000186f0       __unwindfunclet$??1bncs_csi@@UAE@XZ$0 004196f0 f   bncs_csi.obj
 0001:000186f9       __unwindfunclet$??1bncs_csi@@UAE@XZ$1 004196f9 f   bncs_csi.obj
 0001:00018707       __unwindfunclet$??1bncs_csi@@UAE@XZ$2 00419707 f   bncs_csi.obj
 0001:00018716       __unwindfunclet$??1bncs_csi@@UAE@XZ$3 00419716 f   bncs_csi.obj
 0001:00018724       __unwindfunclet$??1bncs_csi@@UAE@XZ$4 00419724 f   bncs_csi.obj
 0001:00018732       __unwindfunclet$??1bncs_csi@@UAE@XZ$5 00419732 f   bncs_csi.obj
 0001:00018741       __unwindfunclet$??1bncs_csi@@UAE@XZ$6 00419741 f   bncs_csi.obj
 0001:0001874f       __ehhandler$??1bncs_csi@@UAE@XZ 0041974f f   bncs_csi.obj
 0001:00018770       __unwindfunclet$??H@YA?BVQString@@PBDABV0@@Z$0 00419770 f   bncs_csi.obj
 0001:0001878a       __ehhandler$??H@YA?BVQString@@PBDABV0@@Z 0041978a f   bncs_csi.obj
 0001:000187b0       __ehhandler$?append@?$QList@VQString@@@@QAEXABVQString@@@Z 004197b0 f   bncs_csi.obj
 0001:000187d0       __unwindfunclet$?buildDeviceStatusSlot@bncs_csi@@AAEXABVdeviceStatus@@AAV?$basic_string@DU?$char_traits@D@std@@V?$allocator@D@2@@std@@@Z$0 004197d0 f   bncs_csi.obj
 0001:000187d8       __ehhandler$?buildDeviceStatusSlot@bncs_csi@@AAEXABVdeviceStatus@@AAV?$basic_string@DU?$char_traits@D@std@@V?$allocator@D@2@@std@@@Z 004197d8 f   bncs_csi.obj
 0001:00018800       __unwindfunclet$?clientConnected@bncs_csi@@MAEXABVclientIPC@@@Z$0 00419800 f   bncs_csi.obj
 0001:00018809       __unwindfunclet$?clientConnected@bncs_csi@@MAEXABVclientIPC@@@Z$1 00419809 f   bncs_csi.obj
 0001:00018812       __unwindfunclet$?clientConnected@bncs_csi@@MAEXABVclientIPC@@@Z$2 00419812 f   bncs_csi.obj
 0001:0001881b       __unwindfunclet$?clientConnected@bncs_csi@@MAEXABVclientIPC@@@Z$3 0041981b f   bncs_csi.obj
 0001:00018826       __unwindfunclet$?clientConnected@bncs_csi@@MAEXABVclientIPC@@@Z$4 00419826 f   bncs_csi.obj
 0001:0001883f       __ehhandler$?clientConnected@bncs_csi@@MAEXABVclientIPC@@@Z 0041983f f   bncs_csi.obj
 0001:00018860       __unwindfunclet$?clientDisconnected@bncs_csi@@MAEXABVclientIPC@@_N@Z$0 00419860 f   bncs_csi.obj
 0001:00018860       __unwindfunclet$?removeDriverFromUI@bncs_csi@@AAEXI@Z$0 00419860 f   bncs_csi.obj
 0001:00018869       __unwindfunclet$?clientDisconnected@bncs_csi@@MAEXABVclientIPC@@_N@Z$1 00419869 f   bncs_csi.obj
 0001:00018869       __unwindfunclet$?removeDriverFromUI@bncs_csi@@AAEXI@Z$1 00419869 f   bncs_csi.obj
 0001:00018872       __unwindfunclet$?removeDriverFromUI@bncs_csi@@AAEXI@Z$2 00419872 f   bncs_csi.obj
 0001:00018872       __unwindfunclet$?clientDisconnected@bncs_csi@@MAEXABVclientIPC@@_N@Z$2 00419872 f   bncs_csi.obj
 0001:0001887a       __ehhandler$?clientDisconnected@bncs_csi@@MAEXABVclientIPC@@_N@Z 0041987a f   bncs_csi.obj
 0001:0001887a       __ehhandler$?removeDriverFromUI@bncs_csi@@AAEXI@Z 0041987a f   bncs_csi.obj
 0001:000188a0       __unwindfunclet$?customEvent@bncs_csi@@MAEXPAVQEvent@@@Z$0 004198a0 f   bncs_csi.obj
 0001:000188a8       __unwindfunclet$?customEvent@bncs_csi@@MAEXPAVQEvent@@@Z$1 004198a8 f   bncs_csi.obj
 0001:000188b0       __ehhandler$?customEvent@bncs_csi@@MAEXPAVQEvent@@@Z 004198b0 f   bncs_csi.obj
 0001:000188d0       __ehhandler$?detach_helper@?$QList@PAVQTreeWidgetItem@@@@AAEXH@Z 004198d0 f   bncs_csi.obj
 0001:000188f0       __ehhandler$?detach_helper@?$QList@VQString@@@@AAEXH@Z 004198f0 f   bncs_csi.obj
 0001:00018910       __ehhandler$?detach_helper_grow@?$QList@VQString@@@@AAEPAUNode@1@HH@Z 00419910 f   bncs_csi.obj
 0001:00018930       __unwindfunclet$?deviceStatusFindOrCreate@bncs_csi@@AAEAAVdeviceStatus@@K@Z$0 00419930 f   bncs_csi.obj
 0001:00018938       __unwindfunclet$?deviceStatusFindOrCreate@bncs_csi@@AAEAAVdeviceStatus@@K@Z$1 00419938 f   bncs_csi.obj
 0001:00018940       __ehhandler$?deviceStatusFindOrCreate@bncs_csi@@AAEAAVdeviceStatus@@K@Z 00419940 f   bncs_csi.obj
 0001:00018960       __unwindfunclet$?doAbout@bncs_csi@@AAEXXZ$0 00419960 f   bncs_csi.obj
 0001:0001896b       __unwindfunclet$?doAbout@bncs_csi@@AAEXXZ$1 0041996b f   bncs_csi.obj
 0001:00018977       __unwindfunclet$?doAbout@bncs_csi@@AAEXXZ$2 00419977 f   bncs_csi.obj
 0001:00018983       __unwindfunclet$?doAbout@bncs_csi@@AAEXXZ$3 00419983 f   bncs_csi.obj
 0001:0001898f       __unwindfunclet$?doAbout@bncs_csi@@AAEXXZ$4 0041998f f   bncs_csi.obj
 0001:0001899b       __unwindfunclet$?doAbout@bncs_csi@@AAEXXZ$5 0041999b f   bncs_csi.obj
 0001:000189a7       __unwindfunclet$?doAbout@bncs_csi@@AAEXXZ$6 004199a7 f   bncs_csi.obj
 0001:000189b3       __unwindfunclet$?doAbout@bncs_csi@@AAEXXZ$7 004199b3 f   bncs_csi.obj
 0001:000189bf       __unwindfunclet$?doAbout@bncs_csi@@AAEXXZ$8 004199bf f   bncs_csi.obj
 0001:000189cb       __ehhandler$?doAbout@bncs_csi@@AAEXXZ 004199cb f   bncs_csi.obj
 0001:00018a00       __unwindfunclet$?doHelp@bncs_csi@@AAEXXZ$0 00419a00 f   bncs_csi.obj
 0001:00018a0c       __unwindfunclet$?doHelp@bncs_csi@@AAEXXZ$1 00419a0c f   bncs_csi.obj
 0001:00018a18       __unwindfunclet$?doHelp@bncs_csi@@AAEXXZ$2 00419a18 f   bncs_csi.obj
 0001:00018a24       __unwindfunclet$?doHelp@bncs_csi@@AAEXXZ$3 00419a24 f   bncs_csi.obj
 0001:00018a30       __unwindfunclet$?doHelp@bncs_csi@@AAEXXZ$4 00419a30 f   bncs_csi.obj
 0001:00018a3c       __unwindfunclet$?doHelp@bncs_csi@@AAEXXZ$5 00419a3c f   bncs_csi.obj
 0001:00018a48       __ehhandler$?doHelp@bncs_csi@@AAEXXZ 00419a48 f   bncs_csi.obj
 0001:00018a70       __unwindfunclet$?doOpenOSPL@bncs_csi@@AAEXXZ$0 00419a70 f   bncs_csi.obj
 0001:00018a70       __unwindfunclet$?doOpenQoS@bncs_csi@@AAEXXZ$0 00419a70 f   bncs_csi.obj
 0001:00018a78       __unwindfunclet$?doOpenOSPL@bncs_csi@@AAEXXZ$1 00419a78 f   bncs_csi.obj
 0001:00018a78       __unwindfunclet$?doOpenQoS@bncs_csi@@AAEXXZ$1 00419a78 f   bncs_csi.obj
 0001:00018a80       __unwindfunclet$?doOpenQoS@bncs_csi@@AAEXXZ$2 00419a80 f   bncs_csi.obj
 0001:00018a80       __unwindfunclet$?doOpenOSPL@bncs_csi@@AAEXXZ$2 00419a80 f   bncs_csi.obj
 0001:00018a89       __unwindfunclet$?doOpenOSPL@bncs_csi@@AAEXXZ$3 00419a89 f   bncs_csi.obj
 0001:00018a89       __unwindfunclet$?doOpenQoS@bncs_csi@@AAEXXZ$3 00419a89 f   bncs_csi.obj
 0001:00018a92       __unwindfunclet$?doOpenOSPL@bncs_csi@@AAEXXZ$4 00419a92 f   bncs_csi.obj
 0001:00018a92       __unwindfunclet$?doOpenQoS@bncs_csi@@AAEXXZ$4 00419a92 f   bncs_csi.obj
 0001:00018a9b       __unwindfunclet$?doOpenOSPL@bncs_csi@@AAEXXZ$5 00419a9b f   bncs_csi.obj
 0001:00018a9b       __unwindfunclet$?doOpenQoS@bncs_csi@@AAEXXZ$5 00419a9b f   bncs_csi.obj
 0001:00018aa4       __ehhandler$?doOpenOSPL@bncs_csi@@AAEXXZ 00419aa4 f   bncs_csi.obj
 0001:00018aa4       __ehhandler$?doOpenQoS@bncs_csi@@AAEXXZ 00419aa4 f   bncs_csi.obj
 0001:00018ad0       __unwindfunclet$?doOpenOsplInfo@bncs_csi@@AAEXXZ$0 00419ad0 f   bncs_csi.obj
 0001:00018ad0       __unwindfunclet$?doOpenOsplError@bncs_csi@@AAEXXZ$0 00419ad0 f   bncs_csi.obj
 0001:00018adc       __unwindfunclet$?doOpenOsplInfo@bncs_csi@@AAEXXZ$1 00419adc f   bncs_csi.obj
 0001:00018adc       __unwindfunclet$?doOpenOsplError@bncs_csi@@AAEXXZ$1 00419adc f   bncs_csi.obj
 0001:00018ae8       __ehhandler$?doOpenOsplError@bncs_csi@@AAEXXZ 00419ae8 f   bncs_csi.obj
 0001:00018ae8       __ehhandler$?doOpenOsplInfo@bncs_csi@@AAEXXZ 00419ae8 f   bncs_csi.obj
 0001:00018b10       __unwindfunclet$?driverConnected@bncs_csi@@MAEXABVdriverIPC@@@Z$0 00419b10 f   bncs_csi.obj
 0001:00018b19       __unwindfunclet$?driverConnected@bncs_csi@@MAEXABVdriverIPC@@@Z$1 00419b19 f   bncs_csi.obj
 0001:00018b22       __unwindfunclet$?driverConnected@bncs_csi@@MAEXABVdriverIPC@@@Z$2 00419b22 f   bncs_csi.obj
 0001:00018b2b       __unwindfunclet$?driverConnected@bncs_csi@@MAEXABVdriverIPC@@@Z$3 00419b2b f   bncs_csi.obj
 0001:00018b34       __unwindfunclet$?driverConnected@bncs_csi@@MAEXABVdriverIPC@@@Z$4 00419b34 f   bncs_csi.obj
 0001:00018b3d       __unwindfunclet$?driverConnected@bncs_csi@@MAEXABVdriverIPC@@@Z$5 00419b3d f   bncs_csi.obj
 0001:00018b48       __unwindfunclet$?driverConnected@bncs_csi@@MAEXABVdriverIPC@@@Z$6 00419b48 f   bncs_csi.obj
 0001:00018b62       __unwindfunclet$?driverConnected@bncs_csi@@MAEXABVdriverIPC@@@Z$7 00419b62 f   bncs_csi.obj
 0001:00018b7b       __unwindfunclet$?driverConnected@bncs_csi@@MAEXABVdriverIPC@@@Z$8 00419b7b f   bncs_csi.obj
 0001:00018b83       __unwindfunclet$?driverConnected@bncs_csi@@MAEXABVdriverIPC@@@Z$9 00419b83 f   bncs_csi.obj
 0001:00018b8b       __ehhandler$?driverConnected@bncs_csi@@MAEXABVdriverIPC@@@Z 00419b8b f   bncs_csi.obj
 0001:00018bb0       __unwindfunclet$?driverDisconnected@bncs_csi@@MAEXABVdriverIPC@@_N@Z$0 00419bb0 f   bncs_csi.obj
 0001:00018bb8       __ehhandler$?driverDisconnected@bncs_csi@@MAEXABVdriverIPC@@_N@Z 00419bb8 f   bncs_csi.obj
 0001:00018be0       __unwindfunclet$?heartbeatTimeout@bncs_csi@@AAEXXZ$0 00419be0 f   bncs_csi.obj
 0001:00018beb       __unwindfunclet$?heartbeatTimeout@bncs_csi@@AAEXXZ$1 00419beb f   bncs_csi.obj
 0001:00018bf6       __ehhandler$?heartbeatTimeout@bncs_csi@@AAEXXZ 00419bf6 f   bncs_csi.obj
 0001:00018c20       __unwindfunclet$?mwDeviceResponse@bncs_csi@@EAEXIIABVQString@@III@Z$0 00419c20 f   bncs_csi.obj
 0001:00018c20       __unwindfunclet$?mwDeviceMessage@bncs_csi@@EAEXIIABVQString@@III@Z$0 00419c20 f   bncs_csi.obj
 0001:00018c29       __unwindfunclet$?mwDeviceResponse@bncs_csi@@EAEXIIABVQString@@III@Z$1 00419c29 f   bncs_csi.obj
 0001:00018c29       __unwindfunclet$?mwDeviceMessage@bncs_csi@@EAEXIIABVQString@@III@Z$1 00419c29 f   bncs_csi.obj
 0001:00018c32       __unwindfunclet$?mwDeviceMessage@bncs_csi@@EAEXIIABVQString@@III@Z$2 00419c32 f   bncs_csi.obj
 0001:00018c32       __unwindfunclet$?mwDeviceResponse@bncs_csi@@EAEXIIABVQString@@III@Z$2 00419c32 f   bncs_csi.obj
 0001:00018c3b       __unwindfunclet$?mwDeviceMessage@bncs_csi@@EAEXIIABVQString@@III@Z$3 00419c3b f   bncs_csi.obj
 0001:00018c3b       __unwindfunclet$?mwDeviceResponse@bncs_csi@@EAEXIIABVQString@@III@Z$3 00419c3b f   bncs_csi.obj
 0001:00018c44       __unwindfunclet$?mwDeviceMessage@bncs_csi@@EAEXIIABVQString@@III@Z$4 00419c44 f   bncs_csi.obj
 0001:00018c44       __unwindfunclet$?mwDeviceResponse@bncs_csi@@EAEXIIABVQString@@III@Z$4 00419c44 f   bncs_csi.obj
 0001:00018c4d       __ehhandler$?mwDeviceMessage@bncs_csi@@EAEXIIABVQString@@III@Z 00419c4d f   bncs_csi.obj
 0001:00018c4d       __ehhandler$?mwDeviceResponse@bncs_csi@@EAEXIIABVQString@@III@Z 00419c4d f   bncs_csi.obj
 0001:00018c80       __unwindfunclet$?mwGpiRevertive@bncs_csi@@EAEXIIII@Z$0 00419c80 f   bncs_csi.obj
 0001:00018c80       __unwindfunclet$?mwRouterRevertive@bncs_csi@@EAEXIIII@Z$0 00419c80 f   bncs_csi.obj
 0001:00018c89       __ehhandler$?mwGpiRevertive@bncs_csi@@EAEXIIII@Z 00419c89 f   bncs_csi.obj
 0001:00018c89       __ehhandler$?mwRouterRevertive@bncs_csi@@EAEXIIII@Z 00419c89 f   bncs_csi.obj
 0001:00018cb0       __unwindfunclet$?mwInfoPoll@bncs_csi@@EAEXIIII@Z$0 00419cb0 f   bncs_csi.obj
 0001:00018cbb       __unwindfunclet$?mwInfoPoll@bncs_csi@@EAEXIIII@Z$1 00419cbb f   bncs_csi.obj
 0001:00018cc4       __ehhandler$?mwInfoPoll@bncs_csi@@EAEXIIII@Z 00419cc4 f   bncs_csi.obj
 0001:00018cf0       __unwindfunclet$?mwInfoRevertive@bncs_csi@@EAEXIIABVQString@@I@Z$0 00419cf0 f   bncs_csi.obj
 0001:00018cf0       __unwindfunclet$?mwRouterModify@bncs_csi@@EAEXIIIABVQString@@_NIPAUHWND__@@@Z$0 00419cf0 f   bncs_csi.obj
 0001:00018cf9       __ehhandler$?mwInfoRevertive@bncs_csi@@EAEXIIABVQString@@I@Z 00419cf9 f   bncs_csi.obj
 0001:00018cf9       __ehhandler$?mwRouterModify@bncs_csi@@EAEXIIIABVQString@@_NIPAUHWND__@@@Z 00419cf9 f   bncs_csi.obj
 0001:00018d20       __unwindfunclet$?mwRouterDatabase@bncs_csi@@EAEXIIIABVQString@@_NI@Z$0 00419d20 f   bncs_csi.obj
 0001:00018d20       __unwindfunclet$?mwInfoWrite@bncs_csi@@EAEXIIABVQString@@I@Z$0 00419d20 f   bncs_csi.obj
 0001:00018d20       __unwindfunclet$?mwRouterCrosspoint@bncs_csi@@EAEXIIIABVQString@@I@Z$0 00419d20 f   bncs_csi.obj
 0001:00018d29       __ehhandler$?mwRouterDatabase@bncs_csi@@EAEXIIIABVQString@@_NI@Z 00419d29 f   bncs_csi.obj
 0001:00018d29       __ehhandler$?mwRouterCrosspoint@bncs_csi@@EAEXIIIABVQString@@I@Z 00419d29 f   bncs_csi.obj
 0001:00018d29       __ehhandler$?mwInfoWrite@bncs_csi@@EAEXIIABVQString@@I@Z 00419d29 f   bncs_csi.obj
 0001:00018d50       __unwindfunclet$?mwRouterLock@bncs_csi@@EAEXIIIII@Z$0 00419d50 f   bncs_csi.obj
 0001:00018d50       __unwindfunclet$?mwInfoLock@bncs_csi@@EAEXIIIII@Z$0 00419d50 f   bncs_csi.obj
 0001:00018d50       __unwindfunclet$?mwRouterPoll@bncs_csi@@EAEXIIII@Z$0 00419d50 f   bncs_csi.obj
 0001:00018d50       __unwindfunclet$?mwGpiSwitch@bncs_csi@@EAEXIIII@Z$0 00419d50 f   bncs_csi.obj
 0001:00018d50       __unwindfunclet$?mwGpiPoll@bncs_csi@@EAEXIIII@Z$0 00419d50 f   bncs_csi.obj
 0001:00018d50       __unwindfunclet$?mwGpiLock@bncs_csi@@EAEXIIIII@Z$0 00419d50 f   bncs_csi.obj
 0001:00018d59       __ehhandler$?mwGpiPoll@bncs_csi@@EAEXIIII@Z 00419d59 f   bncs_csi.obj
 0001:00018d59       __ehhandler$?mwGpiSwitch@bncs_csi@@EAEXIIII@Z 00419d59 f   bncs_csi.obj
 0001:00018d59       __ehhandler$?mwInfoLock@bncs_csi@@EAEXIIIII@Z 00419d59 f   bncs_csi.obj
 0001:00018d59       __ehhandler$?mwRouterPoll@bncs_csi@@EAEXIIII@Z 00419d59 f   bncs_csi.obj
 0001:00018d59       __ehhandler$?mwRouterLock@bncs_csi@@EAEXIIIII@Z 00419d59 f   bncs_csi.obj
 0001:00018d59       __ehhandler$?mwGpiLock@bncs_csi@@EAEXIIIII@Z 00419d59 f   bncs_csi.obj
 0001:00018d80       __unwindfunclet$?mwSetDevTxRxMode@bncs_csi@@EAEXII@Z$0 00419d80 f   bncs_csi.obj
 0001:00018d89       __unwindfunclet$?mwSetDevTxRxMode@bncs_csi@@EAEXII@Z$1 00419d89 f   bncs_csi.obj
 0001:00018d92       __ehhandler$?mwSetDevTxRxMode@bncs_csi@@EAEXII@Z 00419d92 f   bncs_csi.obj
 0001:00018db0       __unwindfunclet$?processNameFromWindowHandle@bncs_csi@@AAE?AVQString@@PAUHWND__@@@Z$0 00419db0 f   bncs_csi.obj
 0001:00018dbc       __unwindfunclet$?processNameFromWindowHandle@bncs_csi@@AAE?AVQString@@PAUHWND__@@@Z$1 00419dbc f   bncs_csi.obj
 0001:00018dc8       __unwindfunclet$?processNameFromWindowHandle@bncs_csi@@AAE?AVQString@@PAUHWND__@@@Z$2 00419dc8 f   bncs_csi.obj
 0001:00018dd3       __unwindfunclet$?processNameFromWindowHandle@bncs_csi@@AAE?AVQString@@PAUHWND__@@@Z$3 00419dd3 f   bncs_csi.obj
 0001:00018df6       __ehhandler$?processNameFromWindowHandle@bncs_csi@@AAE?AVQString@@PAUHWND__@@@Z 00419df6 f   bncs_csi.obj
 0001:00018e20       __unwindfunclet$?receive_bncs_legacyMessage@bncs_csi@@MAEXPAVIbncs_legacyMessageCommand@@ABVbncs_legacyMessage@@@Z$0 00419e20 f   bncs_csi.obj
 0001:00018e29       __unwindfunclet$?receive_bncs_legacyMessage@bncs_csi@@MAEXPAVIbncs_legacyMessageCommand@@ABVbncs_legacyMessage@@@Z$1 00419e29 f   bncs_csi.obj
 0001:00018e32       __unwindfunclet$?receive_bncs_legacyMessage@bncs_csi@@MAEXPAVIbncs_legacyMessageCommand@@ABVbncs_legacyMessage@@@Z$2 00419e32 f   bncs_csi.obj
 0001:00018e3b       __unwindfunclet$?receive_bncs_legacyMessage@bncs_csi@@MAEXPAVIbncs_legacyMessageCommand@@ABVbncs_legacyMessage@@@Z$3 00419e3b f   bncs_csi.obj
 0001:00018e44       __unwindfunclet$?receive_bncs_legacyMessage@bncs_csi@@MAEXPAVIbncs_legacyMessageCommand@@ABVbncs_legacyMessage@@@Z$4 00419e44 f   bncs_csi.obj
 0001:00018e4d       __unwindfunclet$?receive_bncs_legacyMessage@bncs_csi@@MAEXPAVIbncs_legacyMessageCommand@@ABVbncs_legacyMessage@@@Z$5 00419e4d f   bncs_csi.obj
 0001:00018e56       __ehhandler$?receive_bncs_legacyMessage@bncs_csi@@MAEXPAVIbncs_legacyMessageCommand@@ABVbncs_legacyMessage@@@Z 00419e56 f   bncs_csi.obj
 0001:00018e80       __unwindfunclet$?receive_bncs_netStatusMessage@bncs_csi@@MAEXPAVIbncs_netStatusMessageCommand@@ABVbncs_netStatusMessage@@@Z$0 00419e80 f   bncs_csi.obj
 0001:00018e88       __unwindfunclet$?receive_bncs_netStatusMessage@bncs_csi@@MAEXPAVIbncs_netStatusMessageCommand@@ABVbncs_netStatusMessage@@@Z$1 00419e88 f   bncs_csi.obj
 0001:00018e90       __unwindfunclet$?receive_bncs_netStatusMessage@bncs_csi@@MAEXPAVIbncs_netStatusMessageCommand@@ABVbncs_netStatusMessage@@@Z$2 00419e90 f   bncs_csi.obj
 0001:00018e99       __unwindfunclet$?receive_bncs_netStatusMessage@bncs_csi@@MAEXPAVIbncs_netStatusMessageCommand@@ABVbncs_netStatusMessage@@@Z$3 00419e99 f   bncs_csi.obj
 0001:00018ea1       __unwindfunclet$?receive_bncs_netStatusMessage@bncs_csi@@MAEXPAVIbncs_netStatusMessageCommand@@ABVbncs_netStatusMessage@@@Z$4 00419ea1 f   bncs_csi.obj
 0001:00018ea9       __unwindfunclet$?receive_bncs_netStatusMessage@bncs_csi@@MAEXPAVIbncs_netStatusMessageCommand@@ABVbncs_netStatusMessage@@@Z$5 00419ea9 f   bncs_csi.obj
 0001:00018eb2       __ehhandler$?receive_bncs_netStatusMessage@bncs_csi@@MAEXPAVIbncs_netStatusMessageCommand@@ABVbncs_netStatusMessage@@@Z 00419eb2 f   bncs_csi.obj
 0001:00018ee0       __unwindfunclet$?reconcileTxRxStates@bncs_csi@@AAEXI@Z$0 00419ee0 f   bncs_csi.obj
 0001:00018ee9       __unwindfunclet$?reconcileTxRxStates@bncs_csi@@AAEXI@Z$1 00419ee9 f   bncs_csi.obj
 0001:00018ef2       __unwindfunclet$?reconcileTxRxStates@bncs_csi@@AAEXI@Z$2 00419ef2 f   bncs_csi.obj
 0001:00018efb       __unwindfunclet$?reconcileTxRxStates@bncs_csi@@AAEXI@Z$3 00419efb f   bncs_csi.obj
 0001:00018f04       __unwindfunclet$?reconcileTxRxStates@bncs_csi@@AAEXI@Z$4 00419f04 f   bncs_csi.obj
 0001:00018f0d       __unwindfunclet$?reconcileTxRxStates@bncs_csi@@AAEXI@Z$5 00419f0d f   bncs_csi.obj
 0001:00018f16       __ehhandler$?reconcileTxRxStates@bncs_csi@@AAEXI@Z 00419f16 f   bncs_csi.obj
 0001:00018f40       __unwindfunclet$?retranslateUi@Ui_bncs_csiClass@@QAEXPAVQMainWindow@@@Z$0 00419f40 f   bncs_csi.obj
 0001:00018f49       __unwindfunclet$?retranslateUi@Ui_bncs_csiClass@@QAEXPAVQMainWindow@@@Z$1 00419f49 f   bncs_csi.obj
 0001:00018f52       __unwindfunclet$?retranslateUi@Ui_bncs_csiClass@@QAEXPAVQMainWindow@@@Z$2 00419f52 f   bncs_csi.obj
 0001:00018f5b       __unwindfunclet$?retranslateUi@Ui_bncs_csiClass@@QAEXPAVQMainWindow@@@Z$3 00419f5b f   bncs_csi.obj
 0001:00018f64       __unwindfunclet$?retranslateUi@Ui_bncs_csiClass@@QAEXPAVQMainWindow@@@Z$4 00419f64 f   bncs_csi.obj
 0001:00018f6d       __unwindfunclet$?retranslateUi@Ui_bncs_csiClass@@QAEXPAVQMainWindow@@@Z$5 00419f6d f   bncs_csi.obj
 0001:00018f76       __unwindfunclet$?retranslateUi@Ui_bncs_csiClass@@QAEXPAVQMainWindow@@@Z$6 00419f76 f   bncs_csi.obj
 0001:00018f7f       __unwindfunclet$?retranslateUi@Ui_bncs_csiClass@@QAEXPAVQMainWindow@@@Z$7 00419f7f f   bncs_csi.obj
 0001:00018f88       __unwindfunclet$?retranslateUi@Ui_bncs_csiClass@@QAEXPAVQMainWindow@@@Z$8 00419f88 f   bncs_csi.obj
 0001:00018f91       __unwindfunclet$?retranslateUi@Ui_bncs_csiClass@@QAEXPAVQMainWindow@@@Z$9 00419f91 f   bncs_csi.obj
 0001:00018f9a       __unwindfunclet$?retranslateUi@Ui_bncs_csiClass@@QAEXPAVQMainWindow@@@Z$10 00419f9a f   bncs_csi.obj
 0001:00018fa3       __unwindfunclet$?retranslateUi@Ui_bncs_csiClass@@QAEXPAVQMainWindow@@@Z$11 00419fa3 f   bncs_csi.obj
 0001:00018fac       __unwindfunclet$?retranslateUi@Ui_bncs_csiClass@@QAEXPAVQMainWindow@@@Z$12 00419fac f   bncs_csi.obj
 0001:00018fb5       __unwindfunclet$?retranslateUi@Ui_bncs_csiClass@@QAEXPAVQMainWindow@@@Z$13 00419fb5 f   bncs_csi.obj
 0001:00018fbe       __unwindfunclet$?retranslateUi@Ui_bncs_csiClass@@QAEXPAVQMainWindow@@@Z$14 00419fbe f   bncs_csi.obj
 0001:00018fc7       __unwindfunclet$?retranslateUi@Ui_bncs_csiClass@@QAEXPAVQMainWindow@@@Z$15 00419fc7 f   bncs_csi.obj
 0001:00018fd0       __unwindfunclet$?retranslateUi@Ui_bncs_csiClass@@QAEXPAVQMainWindow@@@Z$16 00419fd0 f   bncs_csi.obj
 0001:00018fd9       __unwindfunclet$?retranslateUi@Ui_bncs_csiClass@@QAEXPAVQMainWindow@@@Z$17 00419fd9 f   bncs_csi.obj
 0001:00018fe2       __unwindfunclet$?retranslateUi@Ui_bncs_csiClass@@QAEXPAVQMainWindow@@@Z$18 00419fe2 f   bncs_csi.obj
 0001:00018feb       __unwindfunclet$?retranslateUi@Ui_bncs_csiClass@@QAEXPAVQMainWindow@@@Z$19 00419feb f   bncs_csi.obj
 0001:00018ff4       __unwindfunclet$?retranslateUi@Ui_bncs_csiClass@@QAEXPAVQMainWindow@@@Z$20 00419ff4 f   bncs_csi.obj
 0001:00018ffd       __unwindfunclet$?retranslateUi@Ui_bncs_csiClass@@QAEXPAVQMainWindow@@@Z$21 00419ffd f   bncs_csi.obj
 0001:00019006       __unwindfunclet$?retranslateUi@Ui_bncs_csiClass@@QAEXPAVQMainWindow@@@Z$22 0041a006 f   bncs_csi.obj
 0001:0001900f       __unwindfunclet$?retranslateUi@Ui_bncs_csiClass@@QAEXPAVQMainWindow@@@Z$23 0041a00f f   bncs_csi.obj
 0001:00019018       __unwindfunclet$?retranslateUi@Ui_bncs_csiClass@@QAEXPAVQMainWindow@@@Z$24 0041a018 f   bncs_csi.obj
 0001:00019021       __unwindfunclet$?retranslateUi@Ui_bncs_csiClass@@QAEXPAVQMainWindow@@@Z$25 0041a021 f   bncs_csi.obj
 0001:0001902a       __unwindfunclet$?retranslateUi@Ui_bncs_csiClass@@QAEXPAVQMainWindow@@@Z$26 0041a02a f   bncs_csi.obj
 0001:00019033       __unwindfunclet$?retranslateUi@Ui_bncs_csiClass@@QAEXPAVQMainWindow@@@Z$27 0041a033 f   bncs_csi.obj
 0001:0001903c       __unwindfunclet$?retranslateUi@Ui_bncs_csiClass@@QAEXPAVQMainWindow@@@Z$28 0041a03c f   bncs_csi.obj
 0001:00019045       __unwindfunclet$?retranslateUi@Ui_bncs_csiClass@@QAEXPAVQMainWindow@@@Z$29 0041a045 f   bncs_csi.obj
 0001:0001904e       __unwindfunclet$?retranslateUi@Ui_bncs_csiClass@@QAEXPAVQMainWindow@@@Z$30 0041a04e f   bncs_csi.obj
 0001:00019057       __unwindfunclet$?retranslateUi@Ui_bncs_csiClass@@QAEXPAVQMainWindow@@@Z$31 0041a057 f   bncs_csi.obj
 0001:00019060       __unwindfunclet$?retranslateUi@Ui_bncs_csiClass@@QAEXPAVQMainWindow@@@Z$32 0041a060 f   bncs_csi.obj
 0001:00019069       __unwindfunclet$?retranslateUi@Ui_bncs_csiClass@@QAEXPAVQMainWindow@@@Z$33 0041a069 f   bncs_csi.obj
 0001:00019072       __unwindfunclet$?retranslateUi@Ui_bncs_csiClass@@QAEXPAVQMainWindow@@@Z$34 0041a072 f   bncs_csi.obj
 0001:0001907b       __unwindfunclet$?retranslateUi@Ui_bncs_csiClass@@QAEXPAVQMainWindow@@@Z$35 0041a07b f   bncs_csi.obj
 0001:00019084       __unwindfunclet$?retranslateUi@Ui_bncs_csiClass@@QAEXPAVQMainWindow@@@Z$36 0041a084 f   bncs_csi.obj
 0001:0001908d       __unwindfunclet$?retranslateUi@Ui_bncs_csiClass@@QAEXPAVQMainWindow@@@Z$37 0041a08d f   bncs_csi.obj
 0001:00019096       __unwindfunclet$?retranslateUi@Ui_bncs_csiClass@@QAEXPAVQMainWindow@@@Z$38 0041a096 f   bncs_csi.obj
 0001:0001909f       __unwindfunclet$?retranslateUi@Ui_bncs_csiClass@@QAEXPAVQMainWindow@@@Z$39 0041a09f f   bncs_csi.obj
 0001:000190a8       __unwindfunclet$?retranslateUi@Ui_bncs_csiClass@@QAEXPAVQMainWindow@@@Z$40 0041a0a8 f   bncs_csi.obj
 0001:000190b1       __unwindfunclet$?retranslateUi@Ui_bncs_csiClass@@QAEXPAVQMainWindow@@@Z$41 0041a0b1 f   bncs_csi.obj
 0001:000190ba       __unwindfunclet$?retranslateUi@Ui_bncs_csiClass@@QAEXPAVQMainWindow@@@Z$42 0041a0ba f   bncs_csi.obj
 0001:000190c3       __unwindfunclet$?retranslateUi@Ui_bncs_csiClass@@QAEXPAVQMainWindow@@@Z$43 0041a0c3 f   bncs_csi.obj
 0001:000190cc       __unwindfunclet$?retranslateUi@Ui_bncs_csiClass@@QAEXPAVQMainWindow@@@Z$44 0041a0cc f   bncs_csi.obj
 0001:000190d5       __unwindfunclet$?retranslateUi@Ui_bncs_csiClass@@QAEXPAVQMainWindow@@@Z$45 0041a0d5 f   bncs_csi.obj
 0001:000190de       __unwindfunclet$?retranslateUi@Ui_bncs_csiClass@@QAEXPAVQMainWindow@@@Z$46 0041a0de f   bncs_csi.obj
 0001:000190e7       __unwindfunclet$?retranslateUi@Ui_bncs_csiClass@@QAEXPAVQMainWindow@@@Z$47 0041a0e7 f   bncs_csi.obj
 0001:000190f0       __unwindfunclet$?retranslateUi@Ui_bncs_csiClass@@QAEXPAVQMainWindow@@@Z$48 0041a0f0 f   bncs_csi.obj
 0001:000190f9       __unwindfunclet$?retranslateUi@Ui_bncs_csiClass@@QAEXPAVQMainWindow@@@Z$49 0041a0f9 f   bncs_csi.obj
 0001:00019102       __ehhandler$?retranslateUi@Ui_bncs_csiClass@@QAEXPAVQMainWindow@@@Z 0041a102 f   bncs_csi.obj
 0001:00019120       __unwindfunclet$?sendDeviceStatus@bncs_csi@@AAEXXZ$0 0041a120 f   bncs_csi.obj
 0001:00019128       __unwindfunclet$?sendDeviceStatus@bncs_csi@@AAEXXZ$1 0041a128 f   bncs_csi.obj
 0001:00019131       __ehhandler$?sendDeviceStatus@bncs_csi@@AAEXXZ 0041a131 f   bncs_csi.obj
 0001:00019150       __unwindfunclet$?sendDeviceStatusRevertive@bncs_csi@@AAEXABVdeviceStatus@@@Z$0 0041a150 f   bncs_csi.obj
 0001:00019158       __unwindfunclet$?sendDeviceStatusRevertive@bncs_csi@@AAEXABVdeviceStatus@@@Z$1 0041a158 f   bncs_csi.obj
 0001:00019161       __ehhandler$?sendDeviceStatusRevertive@bncs_csi@@AAEXABVdeviceStatus@@@Z 0041a161 f   bncs_csi.obj
 0001:00019190       __unwindfunclet$?setDeviceListUi@bncs_csi@@AAEXKHABVQString@@@Z$0 0041a190 f   bncs_csi.obj
 0001:00019199       __unwindfunclet$?setDeviceListUi@bncs_csi@@AAEXKHABVQString@@@Z$1 0041a199 f   bncs_csi.obj
 0001:000191a2       __unwindfunclet$?setDeviceListUi@bncs_csi@@AAEXKHABVQString@@@Z$2 0041a1a2 f   bncs_csi.obj
 0001:000191aa       __unwindfunclet$?setDeviceListUi@bncs_csi@@AAEXKHABVQString@@@Z$3 0041a1aa f   bncs_csi.obj
 0001:000191b3       __unwindfunclet$?setDeviceListUi@bncs_csi@@AAEXKHABVQString@@@Z$4 0041a1b3 f   bncs_csi.obj
 0001:000191bc       __ehhandler$?setDeviceListUi@bncs_csi@@AAEXKHABVQString@@@Z 0041a1bc f   bncs_csi.obj
 0001:000191e0       __unwindfunclet$?setupUi@Ui_bncs_csiClass@@QAEXPAVQMainWindow@@@Z$1 0041a1e0 f   bncs_csi.obj
 0001:000191e9       __unwindfunclet$?setupUi@Ui_bncs_csiClass@@QAEXPAVQMainWindow@@@Z$2 0041a1e9 f   bncs_csi.obj
 0001:000191f4       __unwindfunclet$?setupUi@Ui_bncs_csiClass@@QAEXPAVQMainWindow@@@Z$3 0041a1f4 f   bncs_csi.obj
 0001:000191fd       __unwindfunclet$?setupUi@Ui_bncs_csiClass@@QAEXPAVQMainWindow@@@Z$4 0041a1fd f   bncs_csi.obj
 0001:00019208       __unwindfunclet$?setupUi@Ui_bncs_csiClass@@QAEXPAVQMainWindow@@@Z$5 0041a208 f   bncs_csi.obj
 0001:00019211       __unwindfunclet$?setupUi@Ui_bncs_csiClass@@QAEXPAVQMainWindow@@@Z$6 0041a211 f   bncs_csi.obj
 0001:0001921c       __unwindfunclet$?setupUi@Ui_bncs_csiClass@@QAEXPAVQMainWindow@@@Z$7 0041a21c f   bncs_csi.obj
 0001:00019225       __unwindfunclet$?setupUi@Ui_bncs_csiClass@@QAEXPAVQMainWindow@@@Z$8 0041a225 f   bncs_csi.obj
 0001:00019230       __unwindfunclet$?setupUi@Ui_bncs_csiClass@@QAEXPAVQMainWindow@@@Z$9 0041a230 f   bncs_csi.obj
 0001:00019239       __unwindfunclet$?setupUi@Ui_bncs_csiClass@@QAEXPAVQMainWindow@@@Z$10 0041a239 f   bncs_csi.obj
 0001:00019244       __unwindfunclet$?setupUi@Ui_bncs_csiClass@@QAEXPAVQMainWindow@@@Z$11 0041a244 f   bncs_csi.obj
 0001:0001924d       __unwindfunclet$?setupUi@Ui_bncs_csiClass@@QAEXPAVQMainWindow@@@Z$12 0041a24d f   bncs_csi.obj
 0001:00019258       __unwindfunclet$?setupUi@Ui_bncs_csiClass@@QAEXPAVQMainWindow@@@Z$13 0041a258 f   bncs_csi.obj
 0001:00019261       __unwindfunclet$?setupUi@Ui_bncs_csiClass@@QAEXPAVQMainWindow@@@Z$14 0041a261 f   bncs_csi.obj
 0001:0001926c       __unwindfunclet$?setupUi@Ui_bncs_csiClass@@QAEXPAVQMainWindow@@@Z$15 0041a26c f   bncs_csi.obj
 0001:00019275       __unwindfunclet$?setupUi@Ui_bncs_csiClass@@QAEXPAVQMainWindow@@@Z$16 0041a275 f   bncs_csi.obj
 0001:00019280       __unwindfunclet$?setupUi@Ui_bncs_csiClass@@QAEXPAVQMainWindow@@@Z$17 0041a280 f   bncs_csi.obj
 0001:00019289       __unwindfunclet$?setupUi@Ui_bncs_csiClass@@QAEXPAVQMainWindow@@@Z$18 0041a289 f   bncs_csi.obj
 0001:00019294       __unwindfunclet$?setupUi@Ui_bncs_csiClass@@QAEXPAVQMainWindow@@@Z$19 0041a294 f   bncs_csi.obj
 0001:0001929d       __unwindfunclet$?setupUi@Ui_bncs_csiClass@@QAEXPAVQMainWindow@@@Z$20 0041a29d f   bncs_csi.obj
 0001:000192a8       __unwindfunclet$?setupUi@Ui_bncs_csiClass@@QAEXPAVQMainWindow@@@Z$21 0041a2a8 f   bncs_csi.obj
 0001:000192b1       __unwindfunclet$?setupUi@Ui_bncs_csiClass@@QAEXPAVQMainWindow@@@Z$22 0041a2b1 f   bncs_csi.obj
 0001:000192bc       __unwindfunclet$?setupUi@Ui_bncs_csiClass@@QAEXPAVQMainWindow@@@Z$23 0041a2bc f   bncs_csi.obj
 0001:000192c5       __unwindfunclet$?setupUi@Ui_bncs_csiClass@@QAEXPAVQMainWindow@@@Z$24 0041a2c5 f   bncs_csi.obj
 0001:000192d0       __unwindfunclet$?setupUi@Ui_bncs_csiClass@@QAEXPAVQMainWindow@@@Z$25 0041a2d0 f   bncs_csi.obj
 0001:000192d9       __unwindfunclet$?setupUi@Ui_bncs_csiClass@@QAEXPAVQMainWindow@@@Z$26 0041a2d9 f   bncs_csi.obj
 0001:000192e4       __unwindfunclet$?setupUi@Ui_bncs_csiClass@@QAEXPAVQMainWindow@@@Z$27 0041a2e4 f   bncs_csi.obj
 0001:000192ed       __unwindfunclet$?setupUi@Ui_bncs_csiClass@@QAEXPAVQMainWindow@@@Z$28 0041a2ed f   bncs_csi.obj
 0001:000192f8       __unwindfunclet$?setupUi@Ui_bncs_csiClass@@QAEXPAVQMainWindow@@@Z$29 0041a2f8 f   bncs_csi.obj
 0001:00019301       __unwindfunclet$?setupUi@Ui_bncs_csiClass@@QAEXPAVQMainWindow@@@Z$30 0041a301 f   bncs_csi.obj
 0001:0001930c       __unwindfunclet$?setupUi@Ui_bncs_csiClass@@QAEXPAVQMainWindow@@@Z$31 0041a30c f   bncs_csi.obj
 0001:00019315       __unwindfunclet$?setupUi@Ui_bncs_csiClass@@QAEXPAVQMainWindow@@@Z$32 0041a315 f   bncs_csi.obj
 0001:00019320       __unwindfunclet$?setupUi@Ui_bncs_csiClass@@QAEXPAVQMainWindow@@@Z$33 0041a320 f   bncs_csi.obj
 0001:00019329       __unwindfunclet$?setupUi@Ui_bncs_csiClass@@QAEXPAVQMainWindow@@@Z$34 0041a329 f   bncs_csi.obj
 0001:00019334       __unwindfunclet$?setupUi@Ui_bncs_csiClass@@QAEXPAVQMainWindow@@@Z$35 0041a334 f   bncs_csi.obj
 0001:0001933d       __unwindfunclet$?setupUi@Ui_bncs_csiClass@@QAEXPAVQMainWindow@@@Z$36 0041a33d f   bncs_csi.obj
 0001:00019348       __unwindfunclet$?setupUi@Ui_bncs_csiClass@@QAEXPAVQMainWindow@@@Z$37 0041a348 f   bncs_csi.obj
 0001:00019351       __unwindfunclet$?setupUi@Ui_bncs_csiClass@@QAEXPAVQMainWindow@@@Z$38 0041a351 f   bncs_csi.obj
 0001:0001935c       __unwindfunclet$?setupUi@Ui_bncs_csiClass@@QAEXPAVQMainWindow@@@Z$39 0041a35c f   bncs_csi.obj
 0001:00019365       __unwindfunclet$?setupUi@Ui_bncs_csiClass@@QAEXPAVQMainWindow@@@Z$40 0041a365 f   bncs_csi.obj
 0001:00019370       __unwindfunclet$?setupUi@Ui_bncs_csiClass@@QAEXPAVQMainWindow@@@Z$41 0041a370 f   bncs_csi.obj
 0001:00019379       __unwindfunclet$?setupUi@Ui_bncs_csiClass@@QAEXPAVQMainWindow@@@Z$42 0041a379 f   bncs_csi.obj
 0001:00019384       __unwindfunclet$?setupUi@Ui_bncs_csiClass@@QAEXPAVQMainWindow@@@Z$43 0041a384 f   bncs_csi.obj
 0001:0001938d       __unwindfunclet$?setupUi@Ui_bncs_csiClass@@QAEXPAVQMainWindow@@@Z$44 0041a38d f   bncs_csi.obj
 0001:00019398       __unwindfunclet$?setupUi@Ui_bncs_csiClass@@QAEXPAVQMainWindow@@@Z$45 0041a398 f   bncs_csi.obj
 0001:000193a1       __unwindfunclet$?setupUi@Ui_bncs_csiClass@@QAEXPAVQMainWindow@@@Z$46 0041a3a1 f   bncs_csi.obj
 0001:000193ac       __unwindfunclet$?setupUi@Ui_bncs_csiClass@@QAEXPAVQMainWindow@@@Z$47 0041a3ac f   bncs_csi.obj
 0001:000193b5       __unwindfunclet$?setupUi@Ui_bncs_csiClass@@QAEXPAVQMainWindow@@@Z$48 0041a3b5 f   bncs_csi.obj
 0001:000193c0       __unwindfunclet$?setupUi@Ui_bncs_csiClass@@QAEXPAVQMainWindow@@@Z$49 0041a3c0 f   bncs_csi.obj
 0001:000193c9       __unwindfunclet$?setupUi@Ui_bncs_csiClass@@QAEXPAVQMainWindow@@@Z$50 0041a3c9 f   bncs_csi.obj
 0001:000193d4       __unwindfunclet$?setupUi@Ui_bncs_csiClass@@QAEXPAVQMainWindow@@@Z$51 0041a3d4 f   bncs_csi.obj
 0001:000193dd       __unwindfunclet$?setupUi@Ui_bncs_csiClass@@QAEXPAVQMainWindow@@@Z$52 0041a3dd f   bncs_csi.obj
 0001:000193e8       __unwindfunclet$?setupUi@Ui_bncs_csiClass@@QAEXPAVQMainWindow@@@Z$53 0041a3e8 f   bncs_csi.obj
 0001:000193f1       __unwindfunclet$?setupUi@Ui_bncs_csiClass@@QAEXPAVQMainWindow@@@Z$54 0041a3f1 f   bncs_csi.obj
 0001:000193fc       __unwindfunclet$?setupUi@Ui_bncs_csiClass@@QAEXPAVQMainWindow@@@Z$55 0041a3fc f   bncs_csi.obj
 0001:00019405       __unwindfunclet$?setupUi@Ui_bncs_csiClass@@QAEXPAVQMainWindow@@@Z$56 0041a405 f   bncs_csi.obj
 0001:00019410       __unwindfunclet$?setupUi@Ui_bncs_csiClass@@QAEXPAVQMainWindow@@@Z$57 0041a410 f   bncs_csi.obj
 0001:00019419       __unwindfunclet$?setupUi@Ui_bncs_csiClass@@QAEXPAVQMainWindow@@@Z$58 0041a419 f   bncs_csi.obj
 0001:00019424       __unwindfunclet$?setupUi@Ui_bncs_csiClass@@QAEXPAVQMainWindow@@@Z$59 0041a424 f   bncs_csi.obj
 0001:0001942d       __unwindfunclet$?setupUi@Ui_bncs_csiClass@@QAEXPAVQMainWindow@@@Z$60 0041a42d f   bncs_csi.obj
 0001:00019438       __unwindfunclet$?setupUi@Ui_bncs_csiClass@@QAEXPAVQMainWindow@@@Z$61 0041a438 f   bncs_csi.obj
 0001:00019441       __unwindfunclet$?setupUi@Ui_bncs_csiClass@@QAEXPAVQMainWindow@@@Z$62 0041a441 f   bncs_csi.obj
 0001:0001944c       __unwindfunclet$?setupUi@Ui_bncs_csiClass@@QAEXPAVQMainWindow@@@Z$63 0041a44c f   bncs_csi.obj
 0001:00019455       __unwindfunclet$?setupUi@Ui_bncs_csiClass@@QAEXPAVQMainWindow@@@Z$64 0041a455 f   bncs_csi.obj
 0001:00019460       __unwindfunclet$?setupUi@Ui_bncs_csiClass@@QAEXPAVQMainWindow@@@Z$65 0041a460 f   bncs_csi.obj
 0001:00019469       __unwindfunclet$?setupUi@Ui_bncs_csiClass@@QAEXPAVQMainWindow@@@Z$66 0041a469 f   bncs_csi.obj
 0001:00019474       __unwindfunclet$?setupUi@Ui_bncs_csiClass@@QAEXPAVQMainWindow@@@Z$67 0041a474 f   bncs_csi.obj
 0001:0001947d       __unwindfunclet$?setupUi@Ui_bncs_csiClass@@QAEXPAVQMainWindow@@@Z$68 0041a47d f   bncs_csi.obj
 0001:00019488       __unwindfunclet$?setupUi@Ui_bncs_csiClass@@QAEXPAVQMainWindow@@@Z$69 0041a488 f   bncs_csi.obj
 0001:00019491       __unwindfunclet$?setupUi@Ui_bncs_csiClass@@QAEXPAVQMainWindow@@@Z$70 0041a491 f   bncs_csi.obj
 0001:0001949c       __unwindfunclet$?setupUi@Ui_bncs_csiClass@@QAEXPAVQMainWindow@@@Z$71 0041a49c f   bncs_csi.obj
 0001:000194a5       __unwindfunclet$?setupUi@Ui_bncs_csiClass@@QAEXPAVQMainWindow@@@Z$72 0041a4a5 f   bncs_csi.obj
 0001:000194b0       __unwindfunclet$?setupUi@Ui_bncs_csiClass@@QAEXPAVQMainWindow@@@Z$73 0041a4b0 f   bncs_csi.obj
 0001:000194b9       __unwindfunclet$?setupUi@Ui_bncs_csiClass@@QAEXPAVQMainWindow@@@Z$74 0041a4b9 f   bncs_csi.obj
 0001:000194c4       __unwindfunclet$?setupUi@Ui_bncs_csiClass@@QAEXPAVQMainWindow@@@Z$75 0041a4c4 f   bncs_csi.obj
 0001:000194cd       __unwindfunclet$?setupUi@Ui_bncs_csiClass@@QAEXPAVQMainWindow@@@Z$76 0041a4cd f   bncs_csi.obj
 0001:000194d8       __unwindfunclet$?setupUi@Ui_bncs_csiClass@@QAEXPAVQMainWindow@@@Z$77 0041a4d8 f   bncs_csi.obj
 0001:000194e1       __unwindfunclet$?setupUi@Ui_bncs_csiClass@@QAEXPAVQMainWindow@@@Z$78 0041a4e1 f   bncs_csi.obj
 0001:000194ec       __unwindfunclet$?setupUi@Ui_bncs_csiClass@@QAEXPAVQMainWindow@@@Z$79 0041a4ec f   bncs_csi.obj
 0001:000194f5       __unwindfunclet$?setupUi@Ui_bncs_csiClass@@QAEXPAVQMainWindow@@@Z$80 0041a4f5 f   bncs_csi.obj
 0001:00019500       __unwindfunclet$?setupUi@Ui_bncs_csiClass@@QAEXPAVQMainWindow@@@Z$81 0041a500 f   bncs_csi.obj
 0001:00019509       __unwindfunclet$?setupUi@Ui_bncs_csiClass@@QAEXPAVQMainWindow@@@Z$82 0041a509 f   bncs_csi.obj
 0001:00019514       __unwindfunclet$?setupUi@Ui_bncs_csiClass@@QAEXPAVQMainWindow@@@Z$83 0041a514 f   bncs_csi.obj
 0001:0001951d       __unwindfunclet$?setupUi@Ui_bncs_csiClass@@QAEXPAVQMainWindow@@@Z$84 0041a51d f   bncs_csi.obj
 0001:00019528       __unwindfunclet$?setupUi@Ui_bncs_csiClass@@QAEXPAVQMainWindow@@@Z$85 0041a528 f   bncs_csi.obj
 0001:00019531       __unwindfunclet$?setupUi@Ui_bncs_csiClass@@QAEXPAVQMainWindow@@@Z$86 0041a531 f   bncs_csi.obj
 0001:0001953c       __unwindfunclet$?setupUi@Ui_bncs_csiClass@@QAEXPAVQMainWindow@@@Z$87 0041a53c f   bncs_csi.obj
 0001:00019547       __unwindfunclet$?setupUi@Ui_bncs_csiClass@@QAEXPAVQMainWindow@@@Z$88 0041a547 f   bncs_csi.obj
 0001:00019550       __unwindfunclet$?setupUi@Ui_bncs_csiClass@@QAEXPAVQMainWindow@@@Z$89 0041a550 f   bncs_csi.obj
 0001:0001955b       __unwindfunclet$?setupUi@Ui_bncs_csiClass@@QAEXPAVQMainWindow@@@Z$90 0041a55b f   bncs_csi.obj
 0001:00019566       __unwindfunclet$?setupUi@Ui_bncs_csiClass@@QAEXPAVQMainWindow@@@Z$91 0041a566 f   bncs_csi.obj
 0001:0001956f       __unwindfunclet$?setupUi@Ui_bncs_csiClass@@QAEXPAVQMainWindow@@@Z$92 0041a56f f   bncs_csi.obj
 0001:00019578       __unwindfunclet$?setupUi@Ui_bncs_csiClass@@QAEXPAVQMainWindow@@@Z$93 0041a578 f   bncs_csi.obj
 0001:00019583       __unwindfunclet$?setupUi@Ui_bncs_csiClass@@QAEXPAVQMainWindow@@@Z$94 0041a583 f   bncs_csi.obj
 0001:0001958e       __unwindfunclet$?setupUi@Ui_bncs_csiClass@@QAEXPAVQMainWindow@@@Z$95 0041a58e f   bncs_csi.obj
 0001:00019597       __unwindfunclet$?setupUi@Ui_bncs_csiClass@@QAEXPAVQMainWindow@@@Z$96 0041a597 f   bncs_csi.obj
 0001:000195a0       __unwindfunclet$?setupUi@Ui_bncs_csiClass@@QAEXPAVQMainWindow@@@Z$97 0041a5a0 f   bncs_csi.obj
 0001:000195ab       __unwindfunclet$?setupUi@Ui_bncs_csiClass@@QAEXPAVQMainWindow@@@Z$98 0041a5ab f   bncs_csi.obj
 0001:000195b4       __unwindfunclet$?setupUi@Ui_bncs_csiClass@@QAEXPAVQMainWindow@@@Z$99 0041a5b4 f   bncs_csi.obj
 0001:000195bf       __unwindfunclet$?setupUi@Ui_bncs_csiClass@@QAEXPAVQMainWindow@@@Z$100 0041a5bf f   bncs_csi.obj
 0001:000195c8       __unwindfunclet$?setupUi@Ui_bncs_csiClass@@QAEXPAVQMainWindow@@@Z$101 0041a5c8 f   bncs_csi.obj
 0001:000195d3       __unwindfunclet$?setupUi@Ui_bncs_csiClass@@QAEXPAVQMainWindow@@@Z$102 0041a5d3 f   bncs_csi.obj
 0001:000195dc       __unwindfunclet$?setupUi@Ui_bncs_csiClass@@QAEXPAVQMainWindow@@@Z$103 0041a5dc f   bncs_csi.obj
 0001:000195e7       __unwindfunclet$?setupUi@Ui_bncs_csiClass@@QAEXPAVQMainWindow@@@Z$104 0041a5e7 f   bncs_csi.obj
 0001:000195f0       __unwindfunclet$?setupUi@Ui_bncs_csiClass@@QAEXPAVQMainWindow@@@Z$105 0041a5f0 f   bncs_csi.obj
 0001:000195fb       __unwindfunclet$?setupUi@Ui_bncs_csiClass@@QAEXPAVQMainWindow@@@Z$106 0041a5fb f   bncs_csi.obj
 0001:00019604       __unwindfunclet$?setupUi@Ui_bncs_csiClass@@QAEXPAVQMainWindow@@@Z$107 0041a604 f   bncs_csi.obj
 0001:0001960f       __unwindfunclet$?setupUi@Ui_bncs_csiClass@@QAEXPAVQMainWindow@@@Z$108 0041a60f f   bncs_csi.obj
 0001:00019618       __unwindfunclet$?setupUi@Ui_bncs_csiClass@@QAEXPAVQMainWindow@@@Z$109 0041a618 f   bncs_csi.obj
 0001:00019623       __unwindfunclet$?setupUi@Ui_bncs_csiClass@@QAEXPAVQMainWindow@@@Z$110 0041a623 f   bncs_csi.obj
 0001:0001962c       __ehhandler$?setupUi@Ui_bncs_csiClass@@QAEXPAVQMainWindow@@@Z 0041a62c f   bncs_csi.obj
 0001:00019650       __unwindfunclet$?statusTimeout@bncs_csi@@AAEXXZ$0 0041a650 f   bncs_csi.obj
 0001:00019658       __unwindfunclet$?statusTimeout@bncs_csi@@AAEXXZ$1 0041a658 f   bncs_csi.obj
 0001:00019660       __ehhandler$?statusTimeout@bncs_csi@@AAEXXZ 0041a660 f   bncs_csi.obj
 0001:00019680       __unwindfunclet$?updateUI@bncs_csi@@AAEXXZ$0 0041a680 f   bncs_csi.obj
 0001:00019689       __unwindfunclet$?updateUI@bncs_csi@@AAEXXZ$1 0041a689 f   bncs_csi.obj
 0001:00019692       __unwindfunclet$?updateUI@bncs_csi@@AAEXXZ$2 0041a692 f   bncs_csi.obj
 0001:0001969b       __unwindfunclet$?updateUI@bncs_csi@@AAEXXZ$3 0041a69b f   bncs_csi.obj
 0001:000196a4       __unwindfunclet$?updateUI@bncs_csi@@AAEXXZ$4 0041a6a4 f   bncs_csi.obj
 0001:000196ad       __unwindfunclet$?updateUI@bncs_csi@@AAEXXZ$5 0041a6ad f   bncs_csi.obj
 0001:000196b6       __unwindfunclet$?updateUI@bncs_csi@@AAEXXZ$6 0041a6b6 f   bncs_csi.obj
 0001:000196bf       __unwindfunclet$?updateUI@bncs_csi@@AAEXXZ$7 0041a6bf f   bncs_csi.obj
 0001:000196c8       __unwindfunclet$?updateUI@bncs_csi@@AAEXXZ$8 0041a6c8 f   bncs_csi.obj
 0001:000196d1       __unwindfunclet$?updateUI@bncs_csi@@AAEXXZ$9 0041a6d1 f   bncs_csi.obj
 0001:000196da       __unwindfunclet$?updateUI@bncs_csi@@AAEXXZ$10 0041a6da f   bncs_csi.obj
 0001:000196e3       __unwindfunclet$?updateUI@bncs_csi@@AAEXXZ$11 0041a6e3 f   bncs_csi.obj
 0001:000196ec       __unwindfunclet$?updateUI@bncs_csi@@AAEXXZ$12 0041a6ec f   bncs_csi.obj
 0001:000196f5       __unwindfunclet$?updateUI@bncs_csi@@AAEXXZ$13 0041a6f5 f   bncs_csi.obj
 0001:000196fe       __unwindfunclet$?updateUI@bncs_csi@@AAEXXZ$14 0041a6fe f   bncs_csi.obj
 0001:00019707       __unwindfunclet$?updateUI@bncs_csi@@AAEXXZ$15 0041a707 f   bncs_csi.obj
 0001:00019710       __ehhandler$?updateUI@bncs_csi@@AAEXXZ 0041a710 f   bncs_csi.obj
 0001:00019730       __unwindfunclet$??1clientsRegistration@@UAE@XZ$0 0041a730 f   clientsRegistration.obj
 0001:0001973b       __ehhandler$??1clientsRegistration@@UAE@XZ 0041a73b f   clientsRegistration.obj
 0001:00019760       __unwindfunclet$?getRegObject@clientsRegistration@@AAEPAVsingleReg@@VclientIPC@@I_N@Z$0 0041a760 f   clientsRegistration.obj
 0001:0001976b       __ehhandler$?getRegObject@clientsRegistration@@AAEPAVsingleReg@@VclientIPC@@I_N@Z 0041a76b f   clientsRegistration.obj
 0001:00019790       __ehhandler$??$_Insert_nohint@AAU?$pair@$$CBHVdeviceStatusOnHost@@@std@@PAU?$_Tree_node@U?$pair@$$CBHVdeviceStatusOnHost@@@std@@PAX@2@@?$_Tree@V?$_Tmap_traits@HVdeviceStatusOnHost@@U?$less@H@std@@V?$allocator@U?$pair@$$CBHVdeviceStatusOnHost@@@std@@@3@$0A@@std@@@std@@IAE?AU?$pair@V?$_Tree_iterator@V?$_Tree_val@U?$_Tree_simple_types@U?$pair@$$CBHVdeviceStatusOnHost@@@std@@@std@@@std@@@std@@_N@1@_NAAU?$pair@$$CBHVdeviceStatusOnHost@@@1@PAU?$_Tree_node@U?$pair@$$CBHVdeviceStatusOnHost@@@std@@PAX@1@@Z 0041a790 f   deviceStatus.obj
 0001:000197b0       __unwindfunclet$?domainFromOspl@@YAHH@Z$0 0041a7b0 f   domainFromOspl.obj
 0001:000197b9       __unwindfunclet$?domainFromOspl@@YAHH@Z$1 0041a7b9 f   domainFromOspl.obj
 0001:000197c2       __unwindfunclet$?domainFromOspl@@YAHH@Z$2 0041a7c2 f   domainFromOspl.obj
 0001:000197cb       __unwindfunclet$?domainFromOspl@@YAHH@Z$3 0041a7cb f   domainFromOspl.obj
 0001:000197d4       __unwindfunclet$?domainFromOspl@@YAHH@Z$4 0041a7d4 f   domainFromOspl.obj
 0001:000197dd       __unwindfunclet$?domainFromOspl@@YAHH@Z$5 0041a7dd f   domainFromOspl.obj
 0001:000197e6       __unwindfunclet$?domainFromOspl@@YAHH@Z$6 0041a7e6 f   domainFromOspl.obj
 0001:000197ef       __unwindfunclet$?domainFromOspl@@YAHH@Z$7 0041a7ef f   domainFromOspl.obj
 0001:000197f8       __unwindfunclet$?domainFromOspl@@YAHH@Z$8 0041a7f8 f   domainFromOspl.obj
 0001:00019801       __unwindfunclet$?domainFromOspl@@YAHH@Z$9 0041a801 f   domainFromOspl.obj
 0001:0001980a       __unwindfunclet$?domainFromOspl@@YAHH@Z$10 0041a80a f   domainFromOspl.obj
 0001:00019813       __unwindfunclet$?domainFromOspl@@YAHH@Z$11 0041a813 f   domainFromOspl.obj
 0001:0001981c       __unwindfunclet$?domainFromOspl@@YAHH@Z$12 0041a81c f   domainFromOspl.obj
 0001:00019825       __unwindfunclet$?domainFromOspl@@YAHH@Z$13 0041a825 f   domainFromOspl.obj
 0001:0001982e       __ehhandler$?domainFromOspl@@YAHH@Z 0041a82e f   domainFromOspl.obj
 0001:00019850       __unwindfunclet$_main$0    0041a850 f   main.obj
 0001:00019859       __unwindfunclet$_main$1    0041a859 f   main.obj
 0001:00019862       __unwindfunclet$_main$2    0041a862 f   main.obj
 0001:0001986b       __unwindfunclet$_main$3    0041a86b f   main.obj
 0001:00019874       __unwindfunclet$_main$4    0041a874 f   main.obj
 0001:0001987d       __unwindfunclet$_main$5    0041a87d f   main.obj
 0001:00019886       __unwindfunclet$_main$6    0041a886 f   main.obj
 0001:0001988e       __unwindfunclet$_main$7    0041a88e f   main.obj
 0001:00019897       __unwindfunclet$_main$8    0041a897 f   main.obj
 0001:000198a2       __ehhandler$_main          0041a8a2 f   main.obj
 0001:000198c0       __ehhandler$??$_Copy_nodes@U?$integral_constant@_N$0A@@std@@@?$_Tree@V?$_Tmap_traits@IVdriverIPC@@U?$less@I@std@@V?$allocator@U?$pair@$$CBIVdriverIPC@@@std@@@3@$0A@@std@@@std@@IAEPAU?$_Tree_node@U?$pair@$$CBIVdriverIPC@@@std@@PAX@1@PAU21@0U?$integral_constant@_N$0A@@1@@Z 0041a8c0 f   messageWindow.obj
 0001:000198e0       __ehhandler$??$_Insert_nohint@AAU?$pair@$$CBIVdriverIPC@@@std@@PAU?$_Tree_node@U?$pair@$$CBIVdriverIPC@@@std@@PAX@2@@?$_Tree@V?$_Tmap_traits@IVdriverIPC@@U?$less@I@std@@V?$allocator@U?$pair@$$CBIVdriverIPC@@@std@@@3@$0A@@std@@@std@@IAE?AU?$pair@V?$_Tree_iterator@V?$_Tree_val@U?$_Tree_simple_types@U?$pair@$$CBIVdriverIPC@@@std@@@std@@@std@@@std@@_N@1@_NAAU?$pair@$$CBIVdriverIPC@@@1@PAU?$_Tree_node@U?$pair@$$CBIVdriverIPC@@@std@@PAX@1@@Z 0041a8e0 f   messageWindow.obj
 0001:00019900       __ehhandler$??$_Insert_nohint@ABVclientIPC@@U_Nil@std@@@?$_Tree@V?$_Tset_traits@VclientIPC@@U?$less@VclientIPC@@@std@@V?$allocator@VclientIPC@@@3@$0A@@std@@@std@@IAE?AU?$pair@V?$_Tree_const_iterator@V?$_Tree_val@U?$_Tree_simple_types@VclientIPC@@@std@@@std@@@std@@_N@1@_NABVclientIPC@@U_Nil@1@@Z 0041a900 f   messageWindow.obj
 0001:00019920       __unwindfunclet$??0?$_Tree@V?$_Tmap_traits@IVdriverIPC@@U?$less@I@std@@V?$allocator@U?$pair@$$CBIVdriverIPC@@@std@@@3@$0A@@std@@@std@@QAE@ABV01@ABV?$allocator@U?$pair@$$CBIVdriverIPC@@@std@@@1@@Z$2 0041a920 f   messageWindow.obj
 0001:00019928       __ehhandler$??0?$_Tree@V?$_Tmap_traits@IVdriverIPC@@U?$less@I@std@@V?$allocator@U?$pair@$$CBIVdriverIPC@@@std@@@3@$0A@@std@@@std@@QAE@ABV01@ABV?$allocator@U?$pair@$$CBIVdriverIPC@@@std@@@1@@Z 0041a928 f   messageWindow.obj
 0001:00019950       __unwindfunclet$??0messageWindow@@QAE@PAVmessageWindowCallback@@PAUHINSTANCE__@@PADH@Z$0 0041a950 f   messageWindow.obj
 0001:00019959       __unwindfunclet$??0messageWindow@@QAE@PAVmessageWindowCallback@@PAUHINSTANCE__@@PADH@Z$1 0041a959 f   messageWindow.obj
 0001:00019964       __unwindfunclet$??0messageWindow@@QAE@PAVmessageWindowCallback@@PAUHINSTANCE__@@PADH@Z$2 0041a964 f   messageWindow.obj
 0001:0001996f       __unwindfunclet$??0messageWindow@@QAE@PAVmessageWindowCallback@@PAUHINSTANCE__@@PADH@Z$3 0041a96f f   messageWindow.obj
 0001:0001997a       __unwindfunclet$??0messageWindow@@QAE@PAVmessageWindowCallback@@PAUHINSTANCE__@@PADH@Z$4 0041a97a f   messageWindow.obj
 0001:00019985       __unwindfunclet$??0messageWindow@@QAE@PAVmessageWindowCallback@@PAUHINSTANCE__@@PADH@Z$5 0041a985 f   messageWindow.obj
 0001:00019990       __unwindfunclet$??0messageWindow@@QAE@PAVmessageWindowCallback@@PAUHINSTANCE__@@PADH@Z$6 0041a990 f   messageWindow.obj
 0001:0001999b       __ehhandler$??0messageWindow@@QAE@PAVmessageWindowCallback@@PAUHINSTANCE__@@PADH@Z 0041a99b f   messageWindow.obj
 0001:000199c0       __unwindfunclet$??1messageWindow@@UAE@XZ$0 0041a9c0 f   messageWindow.obj
 0001:000199c9       __unwindfunclet$??1messageWindow@@UAE@XZ$1 0041a9c9 f   messageWindow.obj
 0001:000199d4       __unwindfunclet$??1messageWindow@@UAE@XZ$2 0041a9d4 f   messageWindow.obj
 0001:000199df       __unwindfunclet$??1messageWindow@@UAE@XZ$3 0041a9df f   messageWindow.obj
 0001:000199ea       __unwindfunclet$??1messageWindow@@UAE@XZ$4 0041a9ea f   messageWindow.obj
 0001:000199f2       __unwindfunclet$??1messageWindow@@UAE@XZ$5 0041a9f2 f   messageWindow.obj
 0001:000199fa       __ehhandler$??1messageWindow@@UAE@XZ 0041a9fa f   messageWindow.obj
 0001:00019a20       __unwindfunclet$?WndProc@@YGJPAUHWND__@@IIJ@Z$0 0041aa20 f   messageWindow.obj
 0001:00019a2c       __unwindfunclet$?WndProc@@YGJPAUHWND__@@IIJ@Z$1 0041aa2c f   messageWindow.obj
 0001:00019a38       __unwindfunclet$?WndProc@@YGJPAUHWND__@@IIJ@Z$2 0041aa38 f   messageWindow.obj
 0001:00019a44       __unwindfunclet$?WndProc@@YGJPAUHWND__@@IIJ@Z$3 0041aa44 f   messageWindow.obj
 0001:00019a50       __unwindfunclet$?WndProc@@YGJPAUHWND__@@IIJ@Z$4 0041aa50 f   messageWindow.obj
 0001:00019a5b       __unwindfunclet$?WndProc@@YGJPAUHWND__@@IIJ@Z$5 0041aa5b f   messageWindow.obj
 0001:00019a67       __unwindfunclet$?WndProc@@YGJPAUHWND__@@IIJ@Z$6 0041aa67 f   messageWindow.obj
 0001:00019a73       __unwindfunclet$?WndProc@@YGJPAUHWND__@@IIJ@Z$7 0041aa73 f   messageWindow.obj
 0001:00019a81       __unwindfunclet$?WndProc@@YGJPAUHWND__@@IIJ@Z$8 0041aa81 f   messageWindow.obj
 0001:00019a8d       __unwindfunclet$?WndProc@@YGJPAUHWND__@@IIJ@Z$9 0041aa8d f   messageWindow.obj
 0001:00019a98       __unwindfunclet$?WndProc@@YGJPAUHWND__@@IIJ@Z$10 0041aa98 f   messageWindow.obj
 0001:00019aa3       __unwindfunclet$?WndProc@@YGJPAUHWND__@@IIJ@Z$11 0041aaa3 f   messageWindow.obj
 0001:00019aaf       __unwindfunclet$?WndProc@@YGJPAUHWND__@@IIJ@Z$12 0041aaaf f   messageWindow.obj
 0001:00019abb       __unwindfunclet$?WndProc@@YGJPAUHWND__@@IIJ@Z$13 0041aabb f   messageWindow.obj
 0001:00019ac7       __unwindfunclet$?WndProc@@YGJPAUHWND__@@IIJ@Z$14 0041aac7 f   messageWindow.obj
 0001:00019ad3       __unwindfunclet$?WndProc@@YGJPAUHWND__@@IIJ@Z$15 0041aad3 f   messageWindow.obj
 0001:00019ade       __unwindfunclet$?WndProc@@YGJPAUHWND__@@IIJ@Z$17 0041aade f   messageWindow.obj
 0001:00019ae9       __unwindfunclet$?WndProc@@YGJPAUHWND__@@IIJ@Z$18 0041aae9 f   messageWindow.obj
 0001:00019af5       __unwindfunclet$?WndProc@@YGJPAUHWND__@@IIJ@Z$20 0041aaf5 f   messageWindow.obj
 0001:00019b01       __unwindfunclet$?WndProc@@YGJPAUHWND__@@IIJ@Z$21 0041ab01 f   messageWindow.obj
 0001:00019b0d       __unwindfunclet$?WndProc@@YGJPAUHWND__@@IIJ@Z$22 0041ab0d f   messageWindow.obj
 0001:00019b19       __unwindfunclet$?WndProc@@YGJPAUHWND__@@IIJ@Z$23 0041ab19 f   messageWindow.obj
 0001:00019b25       __unwindfunclet$?WndProc@@YGJPAUHWND__@@IIJ@Z$24 0041ab25 f   messageWindow.obj
 0001:00019b31       __unwindfunclet$?WndProc@@YGJPAUHWND__@@IIJ@Z$19 0041ab31 f   messageWindow.obj
 0001:00019b3f       __unwindfunclet$?WndProc@@YGJPAUHWND__@@IIJ@Z$25 0041ab3f f   messageWindow.obj
 0001:00019b4a       __unwindfunclet$?WndProc@@YGJPAUHWND__@@IIJ@Z$26 0041ab4a f   messageWindow.obj
 0001:00019b56       __unwindfunclet$?WndProc@@YGJPAUHWND__@@IIJ@Z$28 0041ab56 f   messageWindow.obj
 0001:00019b62       __unwindfunclet$?WndProc@@YGJPAUHWND__@@IIJ@Z$29 0041ab62 f   messageWindow.obj
 0001:00019b6e       __unwindfunclet$?WndProc@@YGJPAUHWND__@@IIJ@Z$30 0041ab6e f   messageWindow.obj
 0001:00019b7a       __unwindfunclet$?WndProc@@YGJPAUHWND__@@IIJ@Z$31 0041ab7a f   messageWindow.obj
 0001:00019b86       __unwindfunclet$?WndProc@@YGJPAUHWND__@@IIJ@Z$27 0041ab86 f   messageWindow.obj
 0001:00019b94       __unwindfunclet$?WndProc@@YGJPAUHWND__@@IIJ@Z$32 0041ab94 f   messageWindow.obj
 0001:00019b9f       __unwindfunclet$?WndProc@@YGJPAUHWND__@@IIJ@Z$33 0041ab9f f   messageWindow.obj
 0001:00019bab       __unwindfunclet$?WndProc@@YGJPAUHWND__@@IIJ@Z$34 0041abab f   messageWindow.obj
 0001:00019bb6       __unwindfunclet$?WndProc@@YGJPAUHWND__@@IIJ@Z$36 0041abb6 f   messageWindow.obj
 0001:00019bc2       __unwindfunclet$?WndProc@@YGJPAUHWND__@@IIJ@Z$37 0041abc2 f   messageWindow.obj
 0001:00019bce       __unwindfunclet$?WndProc@@YGJPAUHWND__@@IIJ@Z$38 0041abce f   messageWindow.obj
 0001:00019bda       __unwindfunclet$?WndProc@@YGJPAUHWND__@@IIJ@Z$39 0041abda f   messageWindow.obj
 0001:00019be6       __unwindfunclet$?WndProc@@YGJPAUHWND__@@IIJ@Z$35 0041abe6 f   messageWindow.obj
 0001:00019bf4       __unwindfunclet$?WndProc@@YGJPAUHWND__@@IIJ@Z$16 0041abf4 f   messageWindow.obj
 0001:00019c00       __ehhandler$?WndProc@@YGJPAUHWND__@@IIJ@Z 0041ac00 f   messageWindow.obj
 0001:00019c30       __unwindfunclet$?checkClientAlive@messageWindow@@AAEXABVclientIPC@@@Z$0 0041ac30 f   messageWindow.obj
 0001:00019c39       __unwindfunclet$?checkClientAlive@messageWindow@@AAEXABVclientIPC@@@Z$1 0041ac39 f   messageWindow.obj
 0001:00019c42       __unwindfunclet$?checkClientAlive@messageWindow@@AAEXABVclientIPC@@@Z$2 0041ac42 f   messageWindow.obj
 0001:00019c4b       __ehhandler$?checkClientAlive@messageWindow@@AAEXABVclientIPC@@@Z 0041ac4b f   messageWindow.obj
 0001:00019c70       __unwindfunclet$?checkDriverAlive@messageWindow@@AAEXABVdriverIPC@@@Z$0 0041ac70 f   messageWindow.obj
 0001:00019c79       __unwindfunclet$?checkDriverAlive@messageWindow@@AAEXABVdriverIPC@@@Z$1 0041ac79 f   messageWindow.obj
 0001:00019c82       __unwindfunclet$?checkDriverAlive@messageWindow@@AAEXABVdriverIPC@@@Z$2 0041ac82 f   messageWindow.obj
 0001:00019c8b       __unwindfunclet$?checkDriverAlive@messageWindow@@AAEXABVdriverIPC@@@Z$3 0041ac8b f   messageWindow.obj
 0001:00019c94       __ehhandler$?checkDriverAlive@messageWindow@@AAEXABVdriverIPC@@@Z 0041ac94 f   messageWindow.obj
 0001:00019cb0       __unwindfunclet$?clientDeviceMessage@messageWindow@@QAEXIIABVQString@@III@Z$0 0041acb0 f   messageWindow.obj
 0001:00019cb8       __unwindfunclet$?clientDeviceMessage@messageWindow@@QAEXIIABVQString@@III@Z$1 0041acb8 f   messageWindow.obj
 0001:00019cc1       __ehhandler$?clientDeviceMessage@messageWindow@@QAEXIIABVQString@@III@Z 0041acc1 f   messageWindow.obj
 0001:00019ce0       __unwindfunclet$?clientGpiRevertive@messageWindow@@QAEXII_NI@Z$0 0041ace0 f   messageWindow.obj
 0001:00019ceb       __ehhandler$?clientGpiRevertive@messageWindow@@QAEXII_NI@Z 0041aceb f   messageWindow.obj
 0001:00019d20       __unwindfunclet$?clientInfoRevertive@messageWindow@@QAEXIIABVQString@@I@Z$0 0041ad20 f   messageWindow.obj
 0001:00019d29       __unwindfunclet$?clientInfoRevertive@messageWindow@@QAEXIIABVQString@@I@Z$1 0041ad29 f   messageWindow.obj
 0001:00019d31       __unwindfunclet$?clientInfoRevertive@messageWindow@@QAEXIIABVQString@@I@Z$2 0041ad31 f   messageWindow.obj
 0001:00019d3a       __ehhandler$?clientInfoRevertive@messageWindow@@QAEXIIABVQString@@I@Z 0041ad3a f   messageWindow.obj
 0001:00019d60       __unwindfunclet$?clientRouterModify@messageWindow@@QAEXPAUHWND__@@IIIABVQString@@I@Z$0 0041ad60 f   messageWindow.obj
 0001:00019d69       __unwindfunclet$?clientRouterModify@messageWindow@@QAEXPAUHWND__@@IIIABVQString@@I@Z$1 0041ad69 f   messageWindow.obj
 0001:00019d72       __unwindfunclet$?clientRouterModify@messageWindow@@QAEXPAUHWND__@@IIIABVQString@@I@Z$2 0041ad72 f   messageWindow.obj
 0001:00019d7b       __unwindfunclet$?clientRouterModify@messageWindow@@QAEXPAUHWND__@@IIIABVQString@@I@Z$3 0041ad7b f   messageWindow.obj
 0001:00019d84       __unwindfunclet$?clientRouterModify@messageWindow@@QAEXPAUHWND__@@IIIABVQString@@I@Z$4 0041ad84 f   messageWindow.obj
 0001:00019d8d       __unwindfunclet$?clientRouterModify@messageWindow@@QAEXPAUHWND__@@IIIABVQString@@I@Z$5 0041ad8d f   messageWindow.obj
 0001:00019d96       __unwindfunclet$?clientRouterModify@messageWindow@@QAEXPAUHWND__@@IIIABVQString@@I@Z$6 0041ad96 f   messageWindow.obj
 0001:00019d9f       __unwindfunclet$?clientRouterModify@messageWindow@@QAEXPAUHWND__@@IIIABVQString@@I@Z$7 0041ad9f f   messageWindow.obj
 0001:00019da8       __unwindfunclet$?clientRouterModify@messageWindow@@QAEXPAUHWND__@@IIIABVQString@@I@Z$8 0041ada8 f   messageWindow.obj
 0001:00019db1       __unwindfunclet$?clientRouterModify@messageWindow@@QAEXPAUHWND__@@IIIABVQString@@I@Z$9 0041adb1 f   messageWindow.obj
 0001:00019dba       __unwindfunclet$?clientRouterModify@messageWindow@@QAEXPAUHWND__@@IIIABVQString@@I@Z$10 0041adba f   messageWindow.obj
 0001:00019dc3       __unwindfunclet$?clientRouterModify@messageWindow@@QAEXPAUHWND__@@IIIABVQString@@I@Z$11 0041adc3 f   messageWindow.obj
 0001:00019dcb       __ehhandler$?clientRouterModify@messageWindow@@QAEXPAUHWND__@@IIIABVQString@@I@Z 0041adcb f   messageWindow.obj
 0001:00019df0       __unwindfunclet$?clientRouterRevertive@messageWindow@@QAEXIIHI@Z$0 0041adf0 f   messageWindow.obj
 0001:00019df9       __unwindfunclet$?clientRouterRevertive@messageWindow@@QAEXIIHI@Z$1 0041adf9 f   messageWindow.obj
 0001:00019e02       __unwindfunclet$?clientRouterRevertive@messageWindow@@QAEXIIHI@Z$2 0041ae02 f   messageWindow.obj
 0001:00019e0b       __unwindfunclet$?clientRouterRevertive@messageWindow@@QAEXIIHI@Z$3 0041ae0b f   messageWindow.obj
 0001:00019e13       __ehhandler$?clientRouterRevertive@messageWindow@@QAEXIIHI@Z 0041ae13 f   messageWindow.obj
 0001:00019e30       __unwindfunclet$?customEvent@messageWindow@@EAEXPAVQEvent@@@Z$0 0041ae30 f   messageWindow.obj
 0001:00019e38       __ehhandler$?customEvent@messageWindow@@EAEXPAVQEvent@@@Z 0041ae38 f   messageWindow.obj
 0001:00019e60       __unwindfunclet$?driverDeviceMessage@messageWindow@@QAEXIIABVQString@@III@Z$0 0041ae60 f   messageWindow.obj
 0001:00019e69       __ehhandler$?driverDeviceMessage@messageWindow@@QAEXIIABVQString@@III@Z 0041ae69 f   messageWindow.obj
 0001:00019e90       __unwindfunclet$?driverInfoWrite@messageWindow@@QAEXIIABVQString@@I@Z$0 0041ae90 f   messageWindow.obj
 0001:00019e99       __ehhandler$?driverInfoWrite@messageWindow@@QAEXIIABVQString@@I@Z 0041ae99 f   messageWindow.obj
 0001:00019ec0       __unwindfunclet$?driverRouterCrosspoint@messageWindow@@QAEXIIIABVQString@@I@Z$0 0041aec0 f   messageWindow.obj
 0001:00019ec9       __ehhandler$?driverRouterCrosspoint@messageWindow@@QAEXIIIABVQString@@I@Z 0041aec9 f   messageWindow.obj
 0001:00019ef0       __unwindfunclet$?driverRouterModify@messageWindow@@QAEXPAUHWND__@@IIIABVQString@@I@Z$0 0041aef0 f   messageWindow.obj
 0001:00019ef9       __ehhandler$?driverRouterModify@messageWindow@@QAEXPAUHWND__@@IIIABVQString@@I@Z 0041aef9 f   messageWindow.obj
 0001:00019f20       ??__F?_Generic_object@?$_Error_objects@H@std@@2V_Generic_error_category@2@A@@YAXXZ 0041af20 f   ccConfig.obj
 0001:00019f30       ??__F?_Iostream_object@?$_Error_objects@H@std@@2V_Iostream_error_category@2@A@@YAXXZ 0041af30 f   ccConfig.obj
 0001:00019f40       ??__F?_System_object@?$_Error_objects@H@std@@2V_System_error_category@2@A@@YAXXZ 0041af40 f   ccConfig.obj
 0001:00019f50       ??__FsafeRet@?1??driverObj@bncs_csi@@AAEAAVdriver@@K@Z@YAXXZ 0041af50 f   bncs_csi.obj
 0001:00019f60       ??__Fdummy@?A0x81f7e962@@YAXXZ 0041af60 f   qrc_bncs_csi.obj
 0002:00000904       _pcppinit                  0041b904     MSVCRT:crtexew.obj
 0002:00000908       ?_Generic_object$initializer$@?$_Error_objects@H@std@@2P6AXXZA 0041b908     ccConfig.obj
 0002:0000090c       ?_Iostream_object$initializer$@?$_Error_objects@H@std@@2P6AXXZA 0041b90c     ccConfig.obj
 0002:00000910       ?_System_object$initializer$@?$_Error_objects@H@std@@2P6AXXZA 0041b910     ccConfig.obj
 0002:00000914       _dummy$initializer$        0041b914     qrc_bncs_csi.obj
 0002:00000918       ?staticMetaObject$initializer$@bncs_csi@@2P6AXXZA 0041b918     moc_bncs_csi.obj
 0002:0000091c       ?staticMetaObject$initializer$@messageWindow@@2P6AXXZA 0041b91c     moc_messageWindow.obj
 0002:00000928       _pcinit                    0041b928     MSVCRT:crtexew.obj
 0002:0000092c       _pinit                     0041b92c     MSVCRT:atonexit.obj
 0002:00000930       _pinit                     0041b930     MSVCRT:crtexew.obj
 0002:00002828       ?qstring_literal@?6???R<lambda_770d0e39c4467a3943cfba485722730a>@@QBE?AVQString@@XZ@4U?$QStaticStringData@$0N@@@B 0041d828     bncs_csi.obj
 0002:00002854       ?qstring_literal@?7???R<lambda_288c1dd3389a161955d98746f38a9211>@@QBE?AVQString@@XZ@4U?$QStaticStringData@$0L@@@B 0041d854     bncs_csi.obj
 0002:0000287c       ?qstring_literal@?8???R<lambda_20fe3d784c9546b9a4e815c33df1d392>@@QBE?AVQString@@XZ@4U?$QStaticStringData@$0M@@@B 0041d87c     bncs_csi.obj
 0002:000028a8       ?qstring_literal@?9???R<lambda_4b9b26d06ed426994b82df7a05fb47ab>@@QBE?AVQString@@XZ@4U?$QStaticStringData@$0P@@@B 0041d8a8     bncs_csi.obj
 0002:000028d8       ?qstring_literal@?L@???R<lambda_4b12b2e5e799f187f857e9772af69f5c>@@QBE?AVQString@@XZ@4U?$QStaticStringData@$0BF@@@B 0041d8d8     bncs_csi.obj
 0002:00002914       ?qstring_literal@?M@???R<lambda_1c29a7e58d72eac73f2325253d0a3cc5>@@QBE?AVQString@@XZ@4U?$QStaticStringData@$0BB@@@B 0041d914     bncs_csi.obj
 0002:00002948       ?qstring_literal@?N@???R<lambda_ad31f64ad5732174768c1e2c97737311>@@QBE?AVQString@@XZ@4U?$QStaticStringData@$09@@B 0041d948     bncs_csi.obj
 0002:00002970       ?qstring_literal@?O@???R<lambda_a3cab08b74bfacdf26007d12a542a203>@@QBE?AVQString@@XZ@4U?$QStaticStringData@$0L@@@B 0041d970     bncs_csi.obj
 0002:00002998       ?qstring_literal@?P@???R<lambda_9d98717f234a2225413ac61034c53534>@@QBE?AVQString@@XZ@4U?$QStaticStringData@$0BE@@@B 0041d998     bncs_csi.obj
 0002:000029d4       ?qstring_literal@?BA@???R<lambda_8cd30b143d5843eefb5c6aa2c41b9bb6>@@QBE?AVQString@@XZ@4U?$QStaticStringData@$0BC@@@B 0041d9d4     bncs_csi.obj
 0002:00002a0c       ?qstring_literal@?BB@???R<lambda_7ede04f9697efb67d857f3df6fbed6ee>@@QBE?AVQString@@XZ@4U?$QStaticStringData@$0N@@@B 0041da0c     bncs_csi.obj
 0002:00002a38       ?qstring_literal@?BC@???R<lambda_6851f57a9214babd8fd6310dd6c9acc7>@@QBE?AVQString@@XZ@4U?$QStaticStringData@$0O@@@B 0041da38     bncs_csi.obj
 0002:00002a68       ?qstring_literal@?BD@???R<lambda_90ec8983c8334ffccc0ec050be7eec43>@@QBE?AVQString@@XZ@4U?$QStaticStringData@$0BC@@@B 0041da68     bncs_csi.obj
 0002:00002aa0       ?qstring_literal@?BE@???R<lambda_945613928d69137b71232c542f2e9d18>@@QBE?AVQString@@XZ@4U?$QStaticStringData@$09@@B 0041daa0     bncs_csi.obj
 0002:00002ac8       ?qstring_literal@?BF@???R<lambda_b2bcd47991c0efbee448e7170425bb82>@@QBE?AVQString@@XZ@4U?$QStaticStringData@$0BC@@@B 0041dac8     bncs_csi.obj
 0002:00002b00       ?qstring_literal@?BG@???R<lambda_36eb8a5a9a4bc3c311ce2f75724e8e3a>@@QBE?AVQString@@XZ@4U?$QStaticStringData@$04@@B 0041db00     bncs_csi.obj
 0002:00002b1c       ?qstring_literal@?BH@???R<lambda_2443db8e689628538be2ebd15c4fb1ab>@@QBE?AVQString@@XZ@4U?$QStaticStringData@$0L@@@B 0041db1c     bncs_csi.obj
 0002:00002b44       ?qstring_literal@?BI@???R<lambda_a032000fabf4c754095b245b964298fc>@@QBE?AVQString@@XZ@4U?$QStaticStringData@$07@@B 0041db44     bncs_csi.obj
 0002:00002b68       ?qstring_literal@?BJ@???R<lambda_621d403e1a0e51917129288999392ecb>@@QBE?AVQString@@XZ@4U?$QStaticStringData@$0BC@@@B 0041db68     bncs_csi.obj
 0002:00002ba0       ?qstring_literal@?BK@???R<lambda_68899d209a29dd6956eea1b1ccab795e>@@QBE?AVQString@@XZ@4U?$QStaticStringData@$06@@B 0041dba0     bncs_csi.obj
 0002:00002bc0       ?qstring_literal@?BL@???R<lambda_c2bad83eb01518d07b52a173297d8e35>@@QBE?AVQString@@XZ@4U?$QStaticStringData@$0N@@@B 0041dbc0     bncs_csi.obj
 0002:00002bec       ?qstring_literal@?BM@???R<lambda_6ec1ccad30f3916b640be4cfaf06e6c8>@@QBE?AVQString@@XZ@4U?$QStaticStringData@$06@@B 0041dbec     bncs_csi.obj
 0002:00002c0c       ?qstring_literal@?BN@???R<lambda_8d0afe78a08e0495784adbc611699724>@@QBE?AVQString@@XZ@4U?$QStaticStringData@$0N@@@B 0041dc0c     bncs_csi.obj
 0002:00002c38       ?qstring_literal@?BO@???R<lambda_f34f8eb7fdfeb8fa3ea96eeaf3d64111>@@QBE?AVQString@@XZ@4U?$QStaticStringData@$09@@B 0041dc38     bncs_csi.obj
 0002:00002c60       ?qstring_literal@?BP@???R<lambda_6a38dc1584574f08b43bc4e5285ddc71>@@QBE?AVQString@@XZ@4U?$QStaticStringData@$0BA@@@B 0041dc60     bncs_csi.obj
 0002:00002c94       ?qstring_literal@?CA@???R<lambda_924fc3bb38bf79cc7ae1d0049c672033>@@QBE?AVQString@@XZ@4U?$QStaticStringData@$06@@B 0041dc94     bncs_csi.obj
 0002:00002cb4       ?qstring_literal@?CB@???R<lambda_f15c57b630895855db119b3ef8ce34ad>@@QBE?AVQString@@XZ@4U?$QStaticStringData@$0N@@@B 0041dcb4     bncs_csi.obj
 0002:00002ce0       ?qstring_literal@?CC@???R<lambda_8bfaf2cbae1fb9139db0abc5a9bf6796>@@QBE?AVQString@@XZ@4U?$QStaticStringData@$07@@B 0041dce0     bncs_csi.obj
 0002:00002d04       ?qstring_literal@?CD@???R<lambda_74b9a583aa76413fe1a81e1cfae15609>@@QBE?AVQString@@XZ@4U?$QStaticStringData@$0N@@@B 0041dd04     bncs_csi.obj
 0002:00002d30       ?qstring_literal@?CE@???R<lambda_f64ca8aa0fe1da2d11aab9ee15acccfe>@@QBE?AVQString@@XZ@4U?$QStaticStringData@$09@@B 0041dd30     bncs_csi.obj
 0002:00002d58       ?qstring_literal@?CF@???R<lambda_8833b320a2b3eb7a6f113274ff91a99e>@@QBE?AVQString@@XZ@4U?$QStaticStringData@$0BC@@@B 0041dd58     bncs_csi.obj
 0002:00002d90       ?qstring_literal@?CG@???R<lambda_7112738a5592221aeefcd3f37f268309>@@QBE?AVQString@@XZ@4U?$QStaticStringData@$06@@B 0041dd90     bncs_csi.obj
 0002:00002db0       ?qstring_literal@?CH@???R<lambda_1d62bf7a707aa95fc3bdaf00a4453434>@@QBE?AVQString@@XZ@4U?$QStaticStringData@$0BB@@@B 0041ddb0     bncs_csi.obj
 0002:00002de4       ?qstring_literal@?CI@???R<lambda_c2784df85e7db630d6a052e5e170b062>@@QBE?AVQString@@XZ@4U?$QStaticStringData@$07@@B 0041dde4     bncs_csi.obj
 0002:00002e08       ?qstring_literal@?CJ@???R<lambda_1cb58be9b2d0f9daf6f60d643120333f>@@QBE?AVQString@@XZ@4U?$QStaticStringData@$0BB@@@B 0041de08     bncs_csi.obj
 0002:00002e3c       ?qstring_literal@?CK@???R<lambda_fb5bcef9f4b6f9f8fca2266cd3face10>@@QBE?AVQString@@XZ@4U?$QStaticStringData@$09@@B 0041de3c     bncs_csi.obj
 0002:00002e64       ?qstring_literal@?CL@???R<lambda_de39fdbfd97a588a7ef86b2ce247cbf3>@@QBE?AVQString@@XZ@4U?$QStaticStringData@$0BC@@@B 0041de64     bncs_csi.obj
 0002:00002e9c       ?qstring_literal@?CM@???R<lambda_a93053f043fd081d90d36b6b1f5e230a>@@QBE?AVQString@@XZ@4U?$QStaticStringData@$07@@B 0041de9c     bncs_csi.obj
 0002:00002ec0       ?qstring_literal@?CN@???R<lambda_f411af00677aa74936de07536cbc7b18>@@QBE?AVQString@@XZ@4U?$QStaticStringData@$09@@B 0041dec0     bncs_csi.obj
 0002:00002ee8       ?qstring_literal@?CO@???R<lambda_340c549a29ad1c68c1623cecc007ea55>@@QBE?AVQString@@XZ@4U?$QStaticStringData@$09@@B 0041dee8     bncs_csi.obj
 0002:00002f10       ?qstring_literal@?CP@???R<lambda_84912617ce214f99c7bd234f92b3b28d>@@QBE?AVQString@@XZ@4U?$QStaticStringData@$0BC@@@B 0041df10     bncs_csi.obj
 0002:00002f48       ?qstring_literal@?DA@???R<lambda_376f5899dea57471feb141240872e370>@@QBE?AVQString@@XZ@4U?$QStaticStringData@$07@@B 0041df48     bncs_csi.obj
 0002:00002f6c       ?qstring_literal@?DB@???R<lambda_c3872128a5723a20eac7a0571631e046>@@QBE?AVQString@@XZ@4U?$QStaticStringData@$0O@@@B 0041df6c     bncs_csi.obj
 0002:00002f9c       ?qstring_literal@?DC@???R<lambda_b2a899724017792b1a9c0ddc47cd7f23>@@QBE?AVQString@@XZ@4U?$QStaticStringData@$07@@B 0041df9c     bncs_csi.obj
 0002:00002fc0       ?qstring_literal@?DD@???R<lambda_34e66e49488c973ca3cc223c0be534dc>@@QBE?AVQString@@XZ@4U?$QStaticStringData@$05@@B 0041dfc0     bncs_csi.obj
 0002:00002fe0       ?qstring_literal@?DE@???R<lambda_416b37dfa60b996ac9459bb6c343f181>@@QBE?AVQString@@XZ@4U?$QStaticStringData@$09@@B 0041dfe0     bncs_csi.obj
 0002:00003008       ?qstring_literal@?DF@???R<lambda_9e52daa6760b19abb028df4e329f37af>@@QBE?AVQString@@XZ@4U?$QStaticStringData@$05@@B 0041e008     bncs_csi.obj
 0002:00003028       ?qstring_literal@?DG@???R<lambda_11b8077cc486afedf3c3e2d866d7e739>@@QBE?AVQString@@XZ@4U?$QStaticStringData@$09@@B 0041e028     bncs_csi.obj
 0002:00003050       ?qstring_literal@?DH@???R<lambda_59c7111310ef036daadf08440294634a>@@QBE?AVQString@@XZ@4U?$QStaticStringData@$06@@B 0041e050     bncs_csi.obj
 0002:00003070       ?qstring_literal@?DI@???R<lambda_2181b273dc27e59be7e72547830fdeb6>@@QBE?AVQString@@XZ@4U?$QStaticStringData@$08@@B 0041e070     bncs_csi.obj
 0002:00003094       ?qstring_literal@?DJ@???R<lambda_cb1f48651f2870b140ff5fef5a60c98c>@@QBE?AVQString@@XZ@4U?$QStaticStringData@$08@@B 0041e094     bncs_csi.obj
 0002:000030b8       ?qstring_literal@?DK@???R<lambda_fc641fe35c2d36c6064f501a6357f38f>@@QBE?AVQString@@XZ@4U?$QStaticStringData@$08@@B 0041e0b8     bncs_csi.obj
 0002:000030dc       ?qstring_literal@?DL@???R<lambda_77a7c57e6b73d85b75be72a6e5c99cb5>@@QBE?AVQString@@XZ@4U?$QStaticStringData@$0L@@@B 0041e0dc     bncs_csi.obj
 0002:00003104       ?qstring_literal@?DM@???R<lambda_cd69ca7b7355ce13adf626005d245baa>@@QBE?AVQString@@XZ@4U?$QStaticStringData@$0L@@@B 0041e104     bncs_csi.obj
 0002:0000312c       ?qstring_literal@?DN@???R<lambda_0d38a1946a849434236a69fd994aba4b>@@QBE?AVQString@@XZ@4U?$QStaticStringData@$08@@B 0041e12c     bncs_csi.obj
 0002:00003a80       _qt_meta_stringdata_bncs_csi 0041ea80     moc_bncs_csi.obj
 0002:00003c50       _qt_meta_data_bncs_csi     0041ec50     moc_bncs_csi.obj
 0002:00003e40       _qt_meta_stringdata_messageWindow 0041ee40     moc_messageWindow.obj
 0002:00003ea0       _qt_meta_data_messageWindow 0041eea0     moc_messageWindow.obj
 0002:00004850       _txtHHCtrl$S28268          0041f850     htmlhelp:init.obj
 0002:00004860       _txtInProc$S28269          0041f860     htmlhelp:init.obj
 0002:000048b0       _GS_ExceptionPointers      0041f8b0     MSVCRT:gs_report.obj
 0002:00005820       __catchsym$?_Copy@?$basic_string@DU?$char_traits@D@std@@V?$allocator@D@2@@std@@QAEXII@Z$5 00420820     ccConfig.obj
 0002:00005830       __catchsym$?_Copy@?$basic_string@DU?$char_traits@D@std@@V?$allocator@D@2@@std@@QAEXII@Z$4 00420830     ccConfig.obj
 0002:00005840       __unwindtable$?_Copy@?$basic_string@DU?$char_traits@D@std@@V?$allocator@D@2@@std@@QAEXII@Z 00420840     ccConfig.obj
 0002:00005860       __ehfuncinfo$?_Copy@?$basic_string@DU?$char_traits@D@std@@V?$allocator@D@2@@std@@QAEXII@Z 00420860     ccConfig.obj
 0002:00005884       __tryblocktable$?_Copy@?$basic_string@DU?$char_traits@D@std@@V?$allocator@D@2@@std@@QAEXII@Z 00420884     ccConfig.obj
 0002:000058ac       __unwindtable$?getInt@ccConfig@@SAHABV?$basic_string@DU?$char_traits@D@std@@V?$allocator@D@2@@std@@00H_N@Z 004208ac     ccConfig.obj
 0002:000058bc       __ehfuncinfo$?getInt@ccConfig@@SAHABV?$basic_string@DU?$char_traits@D@std@@V?$allocator@D@2@@std@@00H_N@Z 004208bc     ccConfig.obj
 0002:000058e0       __unwindtable$?getDevPath@ccConfig@@SA?AV?$basic_string@DU?$char_traits@D@std@@V?$allocator@D@2@@std@@XZ 004208e0     ccConfig.obj
 0002:000058f8       __ehfuncinfo$?getDevPath@ccConfig@@SA?AV?$basic_string@DU?$char_traits@D@std@@V?$allocator@D@2@@std@@XZ 004208f8     ccConfig.obj
 0002:0000591c       __unwindtable$?getDevPath@ccConfig@@SA?AV?$basic_string@DU?$char_traits@D@std@@V?$allocator@D@2@@std@@ABV23@@Z 0042091c     ccConfig.obj
 0002:0000592c       __ehfuncinfo$?getDevPath@ccConfig@@SA?AV?$basic_string@DU?$char_traits@D@std@@V?$allocator@D@2@@std@@ABV23@@Z 0042092c     ccConfig.obj
 0002:00005950       __ehfuncinfo$?workstation@ccConfig@@SAHXZ 00420950     ccConfig.obj
 0002:00005974       __unwindtable$?workstation@ccConfig@@SAHXZ 00420974     ccConfig.obj
 0002:000059bc       __unwindtable$??$?HDU?$char_traits@D@std@@V?$allocator@D@1@@std@@YA?AV?$basic_string@DU?$char_traits@D@std@@V?$allocator@D@2@@0@ABV10@PBD@Z 004209bc     ccConfig.obj
 0002:000059c4       __ehfuncinfo$??$?HDU?$char_traits@D@std@@V?$allocator@D@1@@std@@YA?AV?$basic_string@DU?$char_traits@D@std@@V?$allocator@D@2@@0@ABV10@PBD@Z 004209c4     ccConfig.obj
 0002:000059e8       __unwindtable$??0database@@QAE@PBDHH@Z 004209e8     database.obj
 0002:000059f8       __ehfuncinfo$??0database@@QAE@PBDHH@Z 004209f8     database.obj
 0002:00005a1c       __unwindtable$?setName@database@@QAE_NHPBD_NPA_N@Z 00420a1c     database.obj
 0002:00005a24       __ehfuncinfo$?setName@database@@QAE_NHPBD_NPA_N@Z 00420a24     database.obj
 0002:00005a48       __unwindtable$?load@database@@AAEXPBDHH@Z 00420a48     database.obj
 0002:00005a58       __ehfuncinfo$?load@database@@AAEXPBDHH@Z 00420a58     database.obj
 0002:00005a7c       __catchsym$??$_Insert_nohint@AAU?$pair@$$CBHV?$basic_string@DU?$char_traits@D@std@@V?$allocator@D@2@@std@@@std@@PAU?$_Tree_node@U?$pair@$$CBHV?$basic_string@DU?$char_traits@D@std@@V?$allocator@D@2@@std@@@std@@PAX@2@@?$_Tree@V?$_Tmap_traits@HV?$basic_string@DU?$char_traits@D@std@@V?$allocator@D@2@@std@@U?$less@H@2@V?$allocator@U?$pair@$$CBHV?$basic_string@DU?$char_traits@D@std@@V?$allocator@D@2@@std@@@std@@@2@$0A@@std@@@std@@IAE?AU?$pair@V?$_Tree_iterator@V?$_Tree_val@U?$_Tree_simple_types@U?$pair@$$CBHV?$basic_string@DU?$char_traits@D@std@@V?$allocator@D@2@@std@@@std@@@std@@@std@@@std@@_N@1@_NAAU?$pair@$$CBHV?$basic_string@DU?$char_traits@D@std@@V?$allocator@D@2@@std@@@1@PAU?$_Tree_node@U?$pair@$$CBHV?$basic_string@DU?$char_traits@D@std@@V?$allocator@D@2@@std@@@std@@PAX@1@@Z$2 00420a7c     database.obj
 0002:00005a8c       __unwindtable$??$_Insert_nohint@AAU?$pair@$$CBHV?$basic_string@DU?$char_traits@D@std@@V?$allocator@D@2@@std@@@std@@PAU?$_Tree_node@U?$pair@$$CBHV?$basic_string@DU?$char_traits@D@std@@V?$allocator@D@2@@std@@@std@@PAX@2@@?$_Tree@V?$_Tmap_traits@HV?$basic_string@DU?$char_traits@D@std@@V?$allocator@D@2@@std@@U?$less@H@2@V?$allocator@U?$pair@$$CBHV?$basic_string@DU?$char_traits@D@std@@V?$allocator@D@2@@std@@@std@@@2@$0A@@std@@@std@@IAE?AU?$pair@V?$_Tree_iterator@V?$_Tree_val@U?$_Tree_simple_types@U?$pair@$$CBHV?$basic_string@DU?$char_traits@D@std@@V?$allocator@D@2@@std@@@std@@@std@@@std@@@std@@_N@1@_NAAU?$pair@$$CBHV?$basic_string@DU?$char_traits@D@std@@V?$allocator@D@2@@std@@@1@PAU?$_Tree_node@U?$pair@$$CBHV?$basic_string@DU?$char_traits@D@std@@V?$allocator@D@2@@std@@@std@@PAX@1@@Z 00420a8c     database.obj
 0002:00005a9c       __tryblocktable$??$_Insert_nohint@AAU?$pair@$$CBHV?$basic_string@DU?$char_traits@D@std@@V?$allocator@D@2@@std@@@std@@PAU?$_Tree_node@U?$pair@$$CBHV?$basic_string@DU?$char_traits@D@std@@V?$allocator@D@2@@std@@@std@@PAX@2@@?$_Tree@V?$_Tmap_traits@HV?$basic_string@DU?$char_traits@D@std@@V?$allocator@D@2@@std@@U?$less@H@2@V?$allocator@U?$pair@$$CBHV?$basic_string@DU?$char_traits@D@std@@V?$allocator@D@2@@std@@@std@@@2@$0A@@std@@@std@@IAE?AU?$pair@V?$_Tree_iterator@V?$_Tree_val@U?$_Tree_simple_types@U?$pair@$$CBHV?$basic_string@DU?$char_traits@D@std@@V?$allocator@D@2@@std@@@std@@@std@@@std@@@std@@_N@1@_NAAU?$pair@$$CBHV?$basic_string@DU?$char_traits@D@std@@V?$allocator@D@2@@std@@@1@PAU?$_Tree_node@U?$pair@$$CBHV?$basic_string@DU?$char_traits@D@std@@V?$allocator@D@2@@std@@@std@@PAX@1@@Z 00420a9c     database.obj
 0002:00005ab0       __ehfuncinfo$??$_Insert_nohint@AAU?$pair@$$CBHV?$basic_string@DU?$char_traits@D@std@@V?$allocator@D@2@@std@@@std@@PAU?$_Tree_node@U?$pair@$$CBHV?$basic_string@DU?$char_traits@D@std@@V?$allocator@D@2@@std@@@std@@PAX@2@@?$_Tree@V?$_Tmap_traits@HV?$basic_string@DU?$char_traits@D@std@@V?$allocator@D@2@@std@@U?$less@H@2@V?$allocator@U?$pair@$$CBHV?$basic_string@DU?$char_traits@D@std@@V?$allocator@D@2@@std@@@std@@@2@$0A@@std@@@std@@IAE?AU?$pair@V?$_Tree_iterator@V?$_Tree_val@U?$_Tree_simple_types@U?$pair@$$CBHV?$basic_string@DU?$char_traits@D@std@@V?$allocator@D@2@@std@@@std@@@std@@@std@@@std@@_N@1@_NAAU?$pair@$$CBHV?$basic_string@DU?$char_traits@D@std@@V?$allocator@D@2@@std@@@1@PAU?$_Tree_node@U?$pair@$$CBHV?$basic_string@DU?$char_traits@D@std@@V?$allocator@D@2@@std@@@std@@PAX@1@@Z 00420ab0     database.obj
 0002:00005ad4       __unwindtable$?getDatabaseObject@databaseMgr@@AAEPAVdatabase@@HH_N@Z 00420ad4     databaseMgr.obj
 0002:00005adc       __ehfuncinfo$?getDatabaseObject@databaseMgr@@AAEPAVdatabase@@HH_N@Z 00420adc     databaseMgr.obj
 0002:00005b00       __unwindtable$??0databaseMgr@@QAE@PBD@Z 00420b00     databaseMgr.obj
 0002:00005b00       __unwindtable$??_GdatabaseMgr@@UAEPAXI@Z 00420b00     databaseMgr.obj
 0002:00005b08       __ehfuncinfo$??_GdatabaseMgr@@UAEPAXI@Z 00420b08     databaseMgr.obj
 0002:00005b08       __ehfuncinfo$??0databaseMgr@@QAE@PBD@Z 00420b08     databaseMgr.obj
 0002:00005b2c       __catchsym$??$_Insert_nohint@AAU?$pair@$$CBHPAVdatabase@@@std@@PAU?$_Tree_node@U?$pair@$$CBHPAVdatabase@@@std@@PAX@2@@?$_Tree@V?$_Tmap_traits@HPAVdatabase@@U?$less@H@std@@V?$allocator@U?$pair@$$CBHPAVdatabase@@@std@@@3@$0A@@std@@@std@@IAE?AU?$pair@V?$_Tree_iterator@V?$_Tree_val@U?$_Tree_simple_types@U?$pair@$$CBHPAVdatabase@@@std@@@std@@@std@@@std@@_N@1@_NAAU?$pair@$$CBHPAVdatabase@@@1@PAU?$_Tree_node@U?$pair@$$CBHPAVdatabase@@@std@@PAX@1@@Z$2 00420b2c     databaseMgr.obj
 0002:00005b3c       __unwindtable$??$_Insert_nohint@AAU?$pair@$$CBHPAVdatabase@@@std@@PAU?$_Tree_node@U?$pair@$$CBHPAVdatabase@@@std@@PAX@2@@?$_Tree@V?$_Tmap_traits@HPAVdatabase@@U?$less@H@std@@V?$allocator@U?$pair@$$CBHPAVdatabase@@@std@@@3@$0A@@std@@@std@@IAE?AU?$pair@V?$_Tree_iterator@V?$_Tree_val@U?$_Tree_simple_types@U?$pair@$$CBHPAVdatabase@@@std@@@std@@@std@@@std@@_N@1@_NAAU?$pair@$$CBHPAVdatabase@@@1@PAU?$_Tree_node@U?$pair@$$CBHPAVdatabase@@@std@@PAX@1@@Z 00420b3c     databaseMgr.obj
 0002:00005b4c       __tryblocktable$??$_Insert_nohint@AAU?$pair@$$CBHPAVdatabase@@@std@@PAU?$_Tree_node@U?$pair@$$CBHPAVdatabase@@@std@@PAX@2@@?$_Tree@V?$_Tmap_traits@HPAVdatabase@@U?$less@H@std@@V?$allocator@U?$pair@$$CBHPAVdatabase@@@std@@@3@$0A@@std@@@std@@IAE?AU?$pair@V?$_Tree_iterator@V?$_Tree_val@U?$_Tree_simple_types@U?$pair@$$CBHPAVdatabase@@@std@@@std@@@std@@@std@@_N@1@_NAAU?$pair@$$CBHPAVdatabase@@@1@PAU?$_Tree_node@U?$pair@$$CBHPAVdatabase@@@std@@PAX@1@@Z 00420b4c     databaseMgr.obj
 0002:00005b60       __ehfuncinfo$??$_Insert_nohint@AAU?$pair@$$CBHPAVdatabase@@@std@@PAU?$_Tree_node@U?$pair@$$CBHPAVdatabase@@@std@@PAX@2@@?$_Tree@V?$_Tmap_traits@HPAVdatabase@@U?$less@H@std@@V?$allocator@U?$pair@$$CBHPAVdatabase@@@std@@@3@$0A@@std@@@std@@IAE?AU?$pair@V?$_Tree_iterator@V?$_Tree_val@U?$_Tree_simple_types@U?$pair@$$CBHPAVdatabase@@@std@@@std@@@std@@@std@@_N@1@_NAAU?$pair@$$CBHPAVdatabase@@@1@PAU?$_Tree_node@U?$pair@$$CBHPAVdatabase@@@std@@PAX@1@@Z 00420b60     databaseMgr.obj
 0002:00005b84       __unwindtable$??H@YA?BVQString@@PBDABV0@@Z 00420b84     bncs_csi.obj
 0002:00005b8c       __ehfuncinfo$??H@YA?BVQString@@PBDABV0@@Z 00420b8c     bncs_csi.obj
 0002:00005bb0       __catchsym$?append@?$QList@VQString@@@@QAEXABVQString@@@Z$6 00420bb0     bncs_csi.obj
 0002:00005bc0       __tryblocktable$?append@?$QList@VQString@@@@QAEXABVQString@@@Z 00420bc0     bncs_csi.obj
 0002:00005bd4       __ehfuncinfo$?append@?$QList@VQString@@@@QAEXABVQString@@@Z 00420bd4     bncs_csi.obj
 0002:00005bf8       __unwindtable$?append@?$QList@VQString@@@@QAEXABVQString@@@Z 00420bf8     bncs_csi.obj
 0002:00005c28       __catchsym$?detach_helper_grow@?$QList@VQString@@@@AAEPAUNode@1@HH@Z$5 00420c28     bncs_csi.obj
 0002:00005c38       __catchsym$?detach_helper_grow@?$QList@VQString@@@@AAEPAUNode@1@HH@Z$4 00420c38     bncs_csi.obj
 0002:00005c48       __unwindtable$?detach_helper_grow@?$QList@VQString@@@@AAEPAUNode@1@HH@Z 00420c48     bncs_csi.obj
 0002:00005c68       __ehfuncinfo$?detach_helper_grow@?$QList@VQString@@@@AAEPAUNode@1@HH@Z 00420c68     bncs_csi.obj
 0002:00005c8c       __tryblocktable$?detach_helper_grow@?$QList@VQString@@@@AAEPAUNode@1@HH@Z 00420c8c     bncs_csi.obj
 0002:00005cb4       __catchsym$?detach_helper@?$QList@VQString@@@@AAEXH@Z$2 00420cb4     bncs_csi.obj
 0002:00005cc4       __unwindtable$?detach_helper@?$QList@VQString@@@@AAEXH@Z 00420cc4     bncs_csi.obj
 0002:00005cd4       __tryblocktable$?detach_helper@?$QList@VQString@@@@AAEXH@Z 00420cd4     bncs_csi.obj
 0002:00005ce8       __ehfuncinfo$?detach_helper@?$QList@VQString@@@@AAEXH@Z 00420ce8     bncs_csi.obj
 0002:00005d0c       __catchsym$?detach_helper@?$QList@PAVQTreeWidgetItem@@@@AAEXH@Z$2 00420d0c     bncs_csi.obj
 0002:00005d1c       __unwindtable$?detach_helper@?$QList@PAVQTreeWidgetItem@@@@AAEXH@Z 00420d1c     bncs_csi.obj
 0002:00005d2c       __tryblocktable$?detach_helper@?$QList@PAVQTreeWidgetItem@@@@AAEXH@Z 00420d2c     bncs_csi.obj
 0002:00005d40       __ehfuncinfo$?detach_helper@?$QList@PAVQTreeWidgetItem@@@@AAEXH@Z 00420d40     bncs_csi.obj
 0002:00005d64       __ehfuncinfo$?setupUi@Ui_bncs_csiClass@@QAEXPAVQMainWindow@@@Z 00420d64     bncs_csi.obj
 0002:00005d88       __unwindtable$?setupUi@Ui_bncs_csiClass@@QAEXPAVQMainWindow@@@Z 00420d88     bncs_csi.obj
 0002:000060f8       __ehfuncinfo$?retranslateUi@Ui_bncs_csiClass@@QAEXPAVQMainWindow@@@Z 004210f8     bncs_csi.obj
 0002:0000611c       __unwindtable$?retranslateUi@Ui_bncs_csiClass@@QAEXPAVQMainWindow@@@Z 0042111c     bncs_csi.obj
 0002:000062ac       __catchsym$??0?$_Tree@V?$_Tmap_traits@HVdeviceStatusOnHost@@U?$less@H@std@@V?$allocator@U?$pair@$$CBHVdeviceStatusOnHost@@@std@@@3@$0A@@std@@@std@@QAE@ABV01@ABV?$allocator@U?$pair@$$CBHVdeviceStatusOnHost@@@std@@@1@@Z$5 004212ac     bncs_csi.obj
 0002:000062ac       __catchsym$??0?$_Tree@V?$_Tset_traits@VclientIPC@@U?$less@VclientIPC@@@std@@V?$allocator@VclientIPC@@@3@$0A@@std@@@std@@QAE@ABV01@ABV?$allocator@VclientIPC@@@1@@Z$5 004212ac     bncs_csi.obj
 0002:000062bc       __tryblocktable$??0?$_Tree@V?$_Tmap_traits@HVdeviceStatusOnHost@@U?$less@H@std@@V?$allocator@U?$pair@$$CBHVdeviceStatusOnHost@@@std@@@3@$0A@@std@@@std@@QAE@ABV01@ABV?$allocator@U?$pair@$$CBHVdeviceStatusOnHost@@@std@@@1@@Z 004212bc     bncs_csi.obj
 0002:000062bc       __tryblocktable$??0?$_Tree@V?$_Tset_traits@VclientIPC@@U?$less@VclientIPC@@@std@@V?$allocator@VclientIPC@@@3@$0A@@std@@@std@@QAE@ABV01@ABV?$allocator@VclientIPC@@@1@@Z 004212bc     bncs_csi.obj
 0002:000062d0       __unwindtable$??0?$_Tree@V?$_Tmap_traits@HVdeviceStatusOnHost@@U?$less@H@std@@V?$allocator@U?$pair@$$CBHVdeviceStatusOnHost@@@std@@@3@$0A@@std@@@std@@QAE@ABV01@ABV?$allocator@U?$pair@$$CBHVdeviceStatusOnHost@@@std@@@1@@Z 004212d0     bncs_csi.obj
 0002:000062d0       __unwindtable$??0?$_Tree@V?$_Tset_traits@VclientIPC@@U?$less@VclientIPC@@@std@@V?$allocator@VclientIPC@@@3@$0A@@std@@@std@@QAE@ABV01@ABV?$allocator@VclientIPC@@@1@@Z 004212d0     bncs_csi.obj
 0002:000062e8       __ehfuncinfo$??0?$_Tree@V?$_Tset_traits@VclientIPC@@U?$less@VclientIPC@@@std@@V?$allocator@VclientIPC@@@3@$0A@@std@@@std@@QAE@ABV01@ABV?$allocator@VclientIPC@@@1@@Z 004212e8     bncs_csi.obj
 0002:000062e8       __ehfuncinfo$??0?$_Tree@V?$_Tmap_traits@HVdeviceStatusOnHost@@U?$less@H@std@@V?$allocator@U?$pair@$$CBHVdeviceStatusOnHost@@@std@@@3@$0A@@std@@@std@@QAE@ABV01@ABV?$allocator@U?$pair@$$CBHVdeviceStatusOnHost@@@std@@@1@@Z 004212e8     bncs_csi.obj
 0002:0000630c       __ehfuncinfo$??0bncs_csi@@QAE@PAVQWidget@@@Z 0042130c     bncs_csi.obj
 0002:00006330       __unwindtable$??0bncs_csi@@QAE@PAVQWidget@@@Z 00421330     bncs_csi.obj
 0002:00006448       __ehfuncinfo$??1bncs_csi@@UAE@XZ 00421448     bncs_csi.obj
 0002:0000646c       __unwindtable$??1bncs_csi@@UAE@XZ 0042146c     bncs_csi.obj
 0002:000064a4       __unwindtable$?mwInfoPoll@bncs_csi@@EAEXIIII@Z 004214a4     bncs_csi.obj
 0002:000064b4       __ehfuncinfo$?mwInfoPoll@bncs_csi@@EAEXIIII@Z 004214b4     bncs_csi.obj
 0002:000064d8       __unwindtable$?mwRouterPoll@bncs_csi@@EAEXIIII@Z 004214d8     bncs_csi.obj
 0002:000064d8       __unwindtable$?mwRouterLock@bncs_csi@@EAEXIIIII@Z 004214d8     bncs_csi.obj
 0002:000064d8       __unwindtable$?mwGpiPoll@bncs_csi@@EAEXIIII@Z 004214d8     bncs_csi.obj
 0002:000064d8       __unwindtable$?mwGpiSwitch@bncs_csi@@EAEXIIII@Z 004214d8     bncs_csi.obj
 0002:000064d8       __unwindtable$?mwGpiLock@bncs_csi@@EAEXIIIII@Z 004214d8     bncs_csi.obj
 0002:000064d8       __unwindtable$?mwInfoLock@bncs_csi@@EAEXIIIII@Z 004214d8     bncs_csi.obj
 0002:000064e0       __ehfuncinfo$?mwGpiLock@bncs_csi@@EAEXIIIII@Z 004214e0     bncs_csi.obj
 0002:000064e0       __ehfuncinfo$?mwRouterPoll@bncs_csi@@EAEXIIII@Z 004214e0     bncs_csi.obj
 0002:000064e0       __ehfuncinfo$?mwRouterLock@bncs_csi@@EAEXIIIII@Z 004214e0     bncs_csi.obj
 0002:000064e0       __ehfuncinfo$?mwGpiSwitch@bncs_csi@@EAEXIIII@Z 004214e0     bncs_csi.obj
 0002:000064e0       __ehfuncinfo$?mwGpiPoll@bncs_csi@@EAEXIIII@Z 004214e0     bncs_csi.obj
 0002:000064e0       __ehfuncinfo$?mwInfoLock@bncs_csi@@EAEXIIIII@Z 004214e0     bncs_csi.obj
 0002:00006504       __unwindtable$?mwRouterModify@bncs_csi@@EAEXIIIABVQString@@_NIPAUHWND__@@@Z 00421504     bncs_csi.obj
 0002:00006504       __unwindtable$?mwInfoRevertive@bncs_csi@@EAEXIIABVQString@@I@Z 00421504     bncs_csi.obj
 0002:0000650c       __ehfuncinfo$?mwInfoRevertive@bncs_csi@@EAEXIIABVQString@@I@Z 0042150c     bncs_csi.obj
 0002:0000650c       __ehfuncinfo$?mwRouterModify@bncs_csi@@EAEXIIIABVQString@@_NIPAUHWND__@@@Z 0042150c     bncs_csi.obj
 0002:00006530       __unwindtable$?mwRouterRevertive@bncs_csi@@EAEXIIII@Z 00421530     bncs_csi.obj
 0002:00006530       __unwindtable$?mwGpiRevertive@bncs_csi@@EAEXIIII@Z 00421530     bncs_csi.obj
 0002:00006538       __ehfuncinfo$?mwRouterRevertive@bncs_csi@@EAEXIIII@Z 00421538     bncs_csi.obj
 0002:00006538       __ehfuncinfo$?mwGpiRevertive@bncs_csi@@EAEXIIII@Z 00421538     bncs_csi.obj
 0002:0000655c       __unwindtable$?mwRouterDatabase@bncs_csi@@EAEXIIIABVQString@@_NI@Z 0042155c     bncs_csi.obj
 0002:0000655c       __unwindtable$?mwInfoWrite@bncs_csi@@EAEXIIABVQString@@I@Z 0042155c     bncs_csi.obj
 0002:0000655c       __unwindtable$?mwRouterCrosspoint@bncs_csi@@EAEXIIIABVQString@@I@Z 0042155c     bncs_csi.obj
 0002:00006564       __ehfuncinfo$?mwRouterDatabase@bncs_csi@@EAEXIIIABVQString@@_NI@Z 00421564     bncs_csi.obj
 0002:00006564       __ehfuncinfo$?mwRouterCrosspoint@bncs_csi@@EAEXIIIABVQString@@I@Z 00421564     bncs_csi.obj
 0002:00006564       __ehfuncinfo$?mwInfoWrite@bncs_csi@@EAEXIIABVQString@@I@Z 00421564     bncs_csi.obj
 0002:00006588       __ehfuncinfo$?mwDeviceResponse@bncs_csi@@EAEXIIABVQString@@III@Z 00421588     bncs_csi.obj
 0002:00006588       __ehfuncinfo$?mwDeviceMessage@bncs_csi@@EAEXIIABVQString@@III@Z 00421588     bncs_csi.obj
 0002:000065ac       __unwindtable$?mwDeviceMessage@bncs_csi@@EAEXIIABVQString@@III@Z 004215ac     bncs_csi.obj
 0002:000065ac       __unwindtable$?mwDeviceResponse@bncs_csi@@EAEXIIABVQString@@III@Z 004215ac     bncs_csi.obj
 0002:000065e4       __unwindtable$?mwSetDevTxRxMode@bncs_csi@@EAEXII@Z 004215e4     bncs_csi.obj
 0002:000065f4       __ehfuncinfo$?mwSetDevTxRxMode@bncs_csi@@EAEXII@Z 004215f4     bncs_csi.obj
 0002:00006618       __ehfuncinfo$?processNameFromWindowHandle@bncs_csi@@AAE?AVQString@@PAUHWND__@@@Z 00421618     bncs_csi.obj
 0002:0000663c       __unwindtable$?processNameFromWindowHandle@bncs_csi@@AAE?AVQString@@PAUHWND__@@@Z 0042163c     bncs_csi.obj
 0002:00006664       __unwindtable$?sendDeviceStatus@bncs_csi@@AAEXXZ 00421664     bncs_csi.obj
 0002:00006674       __ehfuncinfo$?sendDeviceStatus@bncs_csi@@AAEXXZ 00421674     bncs_csi.obj
 0002:00006698       __ehfuncinfo$?setDeviceListUi@bncs_csi@@AAEXKHABVQString@@@Z 00421698     bncs_csi.obj
 0002:000066bc       __unwindtable$?setDeviceListUi@bncs_csi@@AAEXKHABVQString@@@Z 004216bc     bncs_csi.obj
 0002:000066ec       __unwindtable$?sendDeviceStatusRevertive@bncs_csi@@AAEXABVdeviceStatus@@@Z 004216ec     bncs_csi.obj
 0002:000066fc       __ehfuncinfo$?sendDeviceStatusRevertive@bncs_csi@@AAEXABVdeviceStatus@@@Z 004216fc     bncs_csi.obj
 0002:00006720       __unwindtable$?buildDeviceStatusSlot@bncs_csi@@AAEXABVdeviceStatus@@AAV?$basic_string@DU?$char_traits@D@std@@V?$allocator@D@2@@std@@@Z 00421720     bncs_csi.obj
 0002:00006728       __ehfuncinfo$?buildDeviceStatusSlot@bncs_csi@@AAEXABVdeviceStatus@@AAV?$basic_string@DU?$char_traits@D@std@@V?$allocator@D@2@@std@@@Z 00421728     bncs_csi.obj
 0002:0000674c       __unwindtable$?heartbeatTimeout@bncs_csi@@AAEXXZ 0042174c     bncs_csi.obj
 0002:0000675c       __ehfuncinfo$?heartbeatTimeout@bncs_csi@@AAEXXZ 0042175c     bncs_csi.obj
 0002:00006780       __unwindtable$?statusTimeout@bncs_csi@@AAEXXZ 00421780     bncs_csi.obj
 0002:00006790       __ehfuncinfo$?statusTimeout@bncs_csi@@AAEXXZ 00421790     bncs_csi.obj
 0002:000067b4       __ehfuncinfo$?updateUI@bncs_csi@@AAEXXZ 004217b4     bncs_csi.obj
 0002:000067d8       __unwindtable$?updateUI@bncs_csi@@AAEXXZ 004217d8     bncs_csi.obj
 0002:00006858       __unwindtable$?deviceStatusFindOrCreate@bncs_csi@@AAEAAVdeviceStatus@@K@Z 00421858     bncs_csi.obj
 0002:00006868       __ehfuncinfo$?deviceStatusFindOrCreate@bncs_csi@@AAEAAVdeviceStatus@@K@Z 00421868     bncs_csi.obj
 0002:0000688c       __unwindtable$?customEvent@bncs_csi@@MAEXPAVQEvent@@@Z 0042188c     bncs_csi.obj
 0002:0000689c       __ehfuncinfo$?customEvent@bncs_csi@@MAEXPAVQEvent@@@Z 0042189c     bncs_csi.obj
 0002:000068c0       __ehfuncinfo$?clientConnected@bncs_csi@@MAEXABVclientIPC@@@Z 004218c0     bncs_csi.obj
 0002:000068e4       __unwindtable$?clientConnected@bncs_csi@@MAEXABVclientIPC@@@Z 004218e4     bncs_csi.obj
 0002:0000691c       __unwindtable$?clientDisconnected@bncs_csi@@MAEXABVclientIPC@@_N@Z 0042191c     bncs_csi.obj
 0002:0000691c       __unwindtable$?removeDriverFromUI@bncs_csi@@AAEXI@Z 0042191c     bncs_csi.obj
 0002:0000693c       __ehfuncinfo$?removeDriverFromUI@bncs_csi@@AAEXI@Z 0042193c     bncs_csi.obj
 0002:0000693c       __ehfuncinfo$?clientDisconnected@bncs_csi@@MAEXABVclientIPC@@_N@Z 0042193c     bncs_csi.obj
 0002:00006960       __ehfuncinfo$?driverConnected@bncs_csi@@MAEXABVdriverIPC@@@Z 00421960     bncs_csi.obj
 0002:00006984       __unwindtable$?driverConnected@bncs_csi@@MAEXABVdriverIPC@@@Z 00421984     bncs_csi.obj
 0002:000069f4       __unwindtable$?driverDisconnected@bncs_csi@@MAEXABVdriverIPC@@_N@Z 004219f4     bncs_csi.obj
 0002:000069fc       __ehfuncinfo$?driverDisconnected@bncs_csi@@MAEXABVdriverIPC@@_N@Z 004219fc     bncs_csi.obj
 0002:00006a20       __ehfuncinfo$?receive_bncs_legacyMessage@bncs_csi@@MAEXPAVIbncs_legacyMessageCommand@@ABVbncs_legacyMessage@@@Z 00421a20     bncs_csi.obj
 0002:00006a44       __unwindtable$?receive_bncs_legacyMessage@bncs_csi@@MAEXPAVIbncs_legacyMessageCommand@@ABVbncs_legacyMessage@@@Z 00421a44     bncs_csi.obj
 0002:00006a74       __ehfuncinfo$?receive_bncs_netStatusMessage@bncs_csi@@MAEXPAVIbncs_netStatusMessageCommand@@ABVbncs_netStatusMessage@@@Z 00421a74     bncs_csi.obj
 0002:00006a98       __unwindtable$?receive_bncs_netStatusMessage@bncs_csi@@MAEXPAVIbncs_netStatusMessageCommand@@ABVbncs_netStatusMessage@@@Z 00421a98     bncs_csi.obj
 0002:00006ac8       __ehfuncinfo$?doHelp@bncs_csi@@AAEXXZ 00421ac8     bncs_csi.obj
 0002:00006aec       __unwindtable$?doHelp@bncs_csi@@AAEXXZ 00421aec     bncs_csi.obj
 0002:00006b1c       __ehfuncinfo$?doAbout@bncs_csi@@AAEXXZ 00421b1c     bncs_csi.obj
 0002:00006b40       __unwindtable$?doAbout@bncs_csi@@AAEXXZ 00421b40     bncs_csi.obj
 0002:00006b88       __ehfuncinfo$?reconcileTxRxStates@bncs_csi@@AAEXI@Z 00421b88     bncs_csi.obj
 0002:00006bac       __unwindtable$?reconcileTxRxStates@bncs_csi@@AAEXI@Z 00421bac     bncs_csi.obj
 0002:00006bdc       __ehfuncinfo$?doOpenQoS@bncs_csi@@AAEXXZ 00421bdc     bncs_csi.obj
 0002:00006bdc       __ehfuncinfo$?doOpenOSPL@bncs_csi@@AAEXXZ 00421bdc     bncs_csi.obj
 0002:00006c00       __unwindtable$?doOpenQoS@bncs_csi@@AAEXXZ 00421c00     bncs_csi.obj
 0002:00006c00       __unwindtable$?doOpenOSPL@bncs_csi@@AAEXXZ 00421c00     bncs_csi.obj
 0002:00006c40       __unwindtable$?doOpenOsplError@bncs_csi@@AAEXXZ 00421c40     bncs_csi.obj
 0002:00006c40       __unwindtable$?doOpenOsplInfo@bncs_csi@@AAEXXZ 00421c40     bncs_csi.obj
 0002:00006c50       __ehfuncinfo$?doOpenOsplInfo@bncs_csi@@AAEXXZ 00421c50     bncs_csi.obj
 0002:00006c50       __ehfuncinfo$?doOpenOsplError@bncs_csi@@AAEXXZ 00421c50     bncs_csi.obj
 0002:00006c74       __catchsym$??$_Insert_nohint@KU_Nil@std@@@?$_Tree@V?$_Tset_traits@KU?$less@K@std@@V?$allocator@K@2@$0A@@std@@@std@@IAE?AU?$pair@V?$_Tree_const_iterator@V?$_Tree_val@U?$_Tree_simple_types@K@std@@@std@@@std@@_N@1@_N$$QAKU_Nil@1@@Z$2 00421c74     bncs_csi.obj
 0002:00006c74       __catchsym$??$_Insert_nohint@ABKU_Nil@std@@@?$_Tree@V?$_Tset_traits@KU?$less@K@std@@V?$allocator@K@2@$0A@@std@@@std@@IAE?AU?$pair@V?$_Tree_const_iterator@V?$_Tree_val@U?$_Tree_simple_types@K@std@@@std@@@std@@_N@1@_NABKU_Nil@1@@Z$2 00421c74     bncs_csi.obj
 0002:00006c84       __unwindtable$??$_Insert_nohint@ABKU_Nil@std@@@?$_Tree@V?$_Tset_traits@KU?$less@K@std@@V?$allocator@K@2@$0A@@std@@@std@@IAE?AU?$pair@V?$_Tree_const_iterator@V?$_Tree_val@U?$_Tree_simple_types@K@std@@@std@@@std@@_N@1@_NABKU_Nil@1@@Z 00421c84     bncs_csi.obj
 0002:00006c84       __unwindtable$??$_Insert_nohint@KU_Nil@std@@@?$_Tree@V?$_Tset_traits@KU?$less@K@std@@V?$allocator@K@2@$0A@@std@@@std@@IAE?AU?$pair@V?$_Tree_const_iterator@V?$_Tree_val@U?$_Tree_simple_types@K@std@@@std@@@std@@_N@1@_N$$QAKU_Nil@1@@Z 00421c84     bncs_csi.obj
 0002:00006c94       __tryblocktable$??$_Insert_nohint@ABKU_Nil@std@@@?$_Tree@V?$_Tset_traits@KU?$less@K@std@@V?$allocator@K@2@$0A@@std@@@std@@IAE?AU?$pair@V?$_Tree_const_iterator@V?$_Tree_val@U?$_Tree_simple_types@K@std@@@std@@@std@@_N@1@_NABKU_Nil@1@@Z 00421c94     bncs_csi.obj
 0002:00006c94       __tryblocktable$??$_Insert_nohint@KU_Nil@std@@@?$_Tree@V?$_Tset_traits@KU?$less@K@std@@V?$allocator@K@2@$0A@@std@@@std@@IAE?AU?$pair@V?$_Tree_const_iterator@V?$_Tree_val@U?$_Tree_simple_types@K@std@@@std@@@std@@_N@1@_N$$QAKU_Nil@1@@Z 00421c94     bncs_csi.obj
 0002:00006ca8       __ehfuncinfo$??$_Insert_nohint@ABKU_Nil@std@@@?$_Tree@V?$_Tset_traits@KU?$less@K@std@@V?$allocator@K@2@$0A@@std@@@std@@IAE?AU?$pair@V?$_Tree_const_iterator@V?$_Tree_val@U?$_Tree_simple_types@K@std@@@std@@@std@@_N@1@_NABKU_Nil@1@@Z 00421ca8     bncs_csi.obj
 0002:00006ca8       __ehfuncinfo$??$_Insert_nohint@KU_Nil@std@@@?$_Tree@V?$_Tset_traits@KU?$less@K@std@@V?$allocator@K@2@$0A@@std@@@std@@IAE?AU?$pair@V?$_Tree_const_iterator@V?$_Tree_val@U?$_Tree_simple_types@K@std@@@std@@@std@@_N@1@_N$$QAKU_Nil@1@@Z 00421ca8     bncs_csi.obj
 0002:00006ccc       __catchsym$??$_Insert_nohint@AAU?$pair@$$CBKVdriver@@@std@@PAU?$_Tree_node@U?$pair@$$CBKVdriver@@@std@@PAX@2@@?$_Tree@V?$_Tmap_traits@KVdriver@@U?$less@K@std@@V?$allocator@U?$pair@$$CBKVdriver@@@std@@@3@$0A@@std@@@std@@IAE?AU?$pair@V?$_Tree_iterator@V?$_Tree_val@U?$_Tree_simple_types@U?$pair@$$CBKVdriver@@@std@@@std@@@std@@@std@@_N@1@_NAAU?$pair@$$CBKVdriver@@@1@PAU?$_Tree_node@U?$pair@$$CBKVdriver@@@std@@PAX@1@@Z$2 00421ccc     bncs_csi.obj
 0002:00006cdc       __unwindtable$??$_Insert_nohint@AAU?$pair@$$CBKVdriver@@@std@@PAU?$_Tree_node@U?$pair@$$CBKVdriver@@@std@@PAX@2@@?$_Tree@V?$_Tmap_traits@KVdriver@@U?$less@K@std@@V?$allocator@U?$pair@$$CBKVdriver@@@std@@@3@$0A@@std@@@std@@IAE?AU?$pair@V?$_Tree_iterator@V?$_Tree_val@U?$_Tree_simple_types@U?$pair@$$CBKVdriver@@@std@@@std@@@std@@@std@@_N@1@_NAAU?$pair@$$CBKVdriver@@@1@PAU?$_Tree_node@U?$pair@$$CBKVdriver@@@std@@PAX@1@@Z 00421cdc     bncs_csi.obj
 0002:00006cec       __tryblocktable$??$_Insert_nohint@AAU?$pair@$$CBKVdriver@@@std@@PAU?$_Tree_node@U?$pair@$$CBKVdriver@@@std@@PAX@2@@?$_Tree@V?$_Tmap_traits@KVdriver@@U?$less@K@std@@V?$allocator@U?$pair@$$CBKVdriver@@@std@@@3@$0A@@std@@@std@@IAE?AU?$pair@V?$_Tree_iterator@V?$_Tree_val@U?$_Tree_simple_types@U?$pair@$$CBKVdriver@@@std@@@std@@@std@@@std@@_N@1@_NAAU?$pair@$$CBKVdriver@@@1@PAU?$_Tree_node@U?$pair@$$CBKVdriver@@@std@@PAX@1@@Z 00421cec     bncs_csi.obj
 0002:00006d00       __ehfuncinfo$??$_Insert_nohint@AAU?$pair@$$CBKVdriver@@@std@@PAU?$_Tree_node@U?$pair@$$CBKVdriver@@@std@@PAX@2@@?$_Tree@V?$_Tmap_traits@KVdriver@@U?$less@K@std@@V?$allocator@U?$pair@$$CBKVdriver@@@std@@@3@$0A@@std@@@std@@IAE?AU?$pair@V?$_Tree_iterator@V?$_Tree_val@U?$_Tree_simple_types@U?$pair@$$CBKVdriver@@@std@@@std@@@std@@@std@@_N@1@_NAAU?$pair@$$CBKVdriver@@@1@PAU?$_Tree_node@U?$pair@$$CBKVdriver@@@std@@PAX@1@@Z 00421d00     bncs_csi.obj
 0002:00006d24       __catchsym$??$_Insert_nohint@AAU?$pair@$$CBKVworkstationStatus@@@std@@PAU?$_Tree_node@U?$pair@$$CBKVworkstationStatus@@@std@@PAX@2@@?$_Tree@V?$_Tmap_traits@KVworkstationStatus@@U?$less@K@std@@V?$allocator@U?$pair@$$CBKVworkstationStatus@@@std@@@3@$0A@@std@@@std@@IAE?AU?$pair@V?$_Tree_iterator@V?$_Tree_val@U?$_Tree_simple_types@U?$pair@$$CBKVworkstationStatus@@@std@@@std@@@std@@@std@@_N@1@_NAAU?$pair@$$CBKVworkstationStatus@@@1@PAU?$_Tree_node@U?$pair@$$CBKVworkstationStatus@@@std@@PAX@1@@Z$2 00421d24     bncs_csi.obj
 0002:00006d34       __unwindtable$??$_Insert_nohint@AAU?$pair@$$CBKVworkstationStatus@@@std@@PAU?$_Tree_node@U?$pair@$$CBKVworkstationStatus@@@std@@PAX@2@@?$_Tree@V?$_Tmap_traits@KVworkstationStatus@@U?$less@K@std@@V?$allocator@U?$pair@$$CBKVworkstationStatus@@@std@@@3@$0A@@std@@@std@@IAE?AU?$pair@V?$_Tree_iterator@V?$_Tree_val@U?$_Tree_simple_types@U?$pair@$$CBKVworkstationStatus@@@std@@@std@@@std@@@std@@_N@1@_NAAU?$pair@$$CBKVworkstationStatus@@@1@PAU?$_Tree_node@U?$pair@$$CBKVworkstationStatus@@@std@@PAX@1@@Z 00421d34     bncs_csi.obj
 0002:00006d44       __tryblocktable$??$_Insert_nohint@AAU?$pair@$$CBKVworkstationStatus@@@std@@PAU?$_Tree_node@U?$pair@$$CBKVworkstationStatus@@@std@@PAX@2@@?$_Tree@V?$_Tmap_traits@KVworkstationStatus@@U?$less@K@std@@V?$allocator@U?$pair@$$CBKVworkstationStatus@@@std@@@3@$0A@@std@@@std@@IAE?AU?$pair@V?$_Tree_iterator@V?$_Tree_val@U?$_Tree_simple_types@U?$pair@$$CBKVworkstationStatus@@@std@@@std@@@std@@@std@@_N@1@_NAAU?$pair@$$CBKVworkstationStatus@@@1@PAU?$_Tree_node@U?$pair@$$CBKVworkstationStatus@@@std@@PAX@1@@Z 00421d44     bncs_csi.obj
 0002:00006d58       __ehfuncinfo$??$_Insert_nohint@AAU?$pair@$$CBKVworkstationStatus@@@std@@PAU?$_Tree_node@U?$pair@$$CBKVworkstationStatus@@@std@@PAX@2@@?$_Tree@V?$_Tmap_traits@KVworkstationStatus@@U?$less@K@std@@V?$allocator@U?$pair@$$CBKVworkstationStatus@@@std@@@3@$0A@@std@@@std@@IAE?AU?$pair@V?$_Tree_iterator@V?$_Tree_val@U?$_Tree_simple_types@U?$pair@$$CBKVworkstationStatus@@@std@@@std@@@std@@@std@@_N@1@_NAAU?$pair@$$CBKVworkstationStatus@@@1@PAU?$_Tree_node@U?$pair@$$CBKVworkstationStatus@@@std@@PAX@1@@Z 00421d58     bncs_csi.obj
 0002:00006d7c       __catchsym$??$_Buynode@U?$pair@KVdeviceStatus@@@std@@@?$_Tree_buy@U?$pair@$$CBKVdeviceStatus@@@std@@V?$allocator@U?$pair@$$CBKVdeviceStatus@@@std@@@2@@std@@QAEPAU?$_Tree_node@U?$pair@$$CBKVdeviceStatus@@@std@@PAX@1@$$QAU?$pair@KVdeviceStatus@@@1@@Z$6 00421d7c     bncs_csi.obj
 0002:00006d8c       __tryblocktable$??$_Buynode@U?$pair@KVdeviceStatus@@@std@@@?$_Tree_buy@U?$pair@$$CBKVdeviceStatus@@@std@@V?$allocator@U?$pair@$$CBKVdeviceStatus@@@std@@@2@@std@@QAEPAU?$_Tree_node@U?$pair@$$CBKVdeviceStatus@@@std@@PAX@1@$$QAU?$pair@KVdeviceStatus@@@1@@Z 00421d8c     bncs_csi.obj
 0002:00006da0       __unwindtable$??$_Buynode@U?$pair@KVdeviceStatus@@@std@@@?$_Tree_buy@U?$pair@$$CBKVdeviceStatus@@@std@@V?$allocator@U?$pair@$$CBKVdeviceStatus@@@std@@@2@@std@@QAEPAU?$_Tree_node@U?$pair@$$CBKVdeviceStatus@@@std@@PAX@1@$$QAU?$pair@KVdeviceStatus@@@1@@Z 00421da0     bncs_csi.obj
 0002:00006db8       __ehfuncinfo$??$_Buynode@U?$pair@KVdeviceStatus@@@std@@@?$_Tree_buy@U?$pair@$$CBKVdeviceStatus@@@std@@V?$allocator@U?$pair@$$CBKVdeviceStatus@@@std@@@2@@std@@QAEPAU?$_Tree_node@U?$pair@$$CBKVdeviceStatus@@@std@@PAX@1@$$QAU?$pair@KVdeviceStatus@@@1@@Z 00421db8     bncs_csi.obj
 0002:00006ddc       __catchsym$??$_Insert_nohint@AAU?$pair@$$CBKVdeviceStatus@@@std@@PAU?$_Tree_node@U?$pair@$$CBKVdeviceStatus@@@std@@PAX@2@@?$_Tree@V?$_Tmap_traits@KVdeviceStatus@@U?$less@K@std@@V?$allocator@U?$pair@$$CBKVdeviceStatus@@@std@@@3@$0A@@std@@@std@@IAE?AU?$pair@V?$_Tree_iterator@V?$_Tree_val@U?$_Tree_simple_types@U?$pair@$$CBKVdeviceStatus@@@std@@@std@@@std@@@std@@_N@1@_NAAU?$pair@$$CBKVdeviceStatus@@@1@PAU?$_Tree_node@U?$pair@$$CBKVdeviceStatus@@@std@@PAX@1@@Z$3 00421ddc     bncs_csi.obj
 0002:00006dec       __unwindtable$??$_Insert_nohint@AAU?$pair@$$CBKVdeviceStatus@@@std@@PAU?$_Tree_node@U?$pair@$$CBKVdeviceStatus@@@std@@PAX@2@@?$_Tree@V?$_Tmap_traits@KVdeviceStatus@@U?$less@K@std@@V?$allocator@U?$pair@$$CBKVdeviceStatus@@@std@@@3@$0A@@std@@@std@@IAE?AU?$pair@V?$_Tree_iterator@V?$_Tree_val@U?$_Tree_simple_types@U?$pair@$$CBKVdeviceStatus@@@std@@@std@@@std@@@std@@_N@1@_NAAU?$pair@$$CBKVdeviceStatus@@@1@PAU?$_Tree_node@U?$pair@$$CBKVdeviceStatus@@@std@@PAX@1@@Z 00421dec     bncs_csi.obj
 0002:00006dfc       __tryblocktable$??$_Insert_nohint@AAU?$pair@$$CBKVdeviceStatus@@@std@@PAU?$_Tree_node@U?$pair@$$CBKVdeviceStatus@@@std@@PAX@2@@?$_Tree@V?$_Tmap_traits@KVdeviceStatus@@U?$less@K@std@@V?$allocator@U?$pair@$$CBKVdeviceStatus@@@std@@@3@$0A@@std@@@std@@IAE?AU?$pair@V?$_Tree_iterator@V?$_Tree_val@U?$_Tree_simple_types@U?$pair@$$CBKVdeviceStatus@@@std@@@std@@@std@@@std@@_N@1@_NAAU?$pair@$$CBKVdeviceStatus@@@1@PAU?$_Tree_node@U?$pair@$$CBKVdeviceStatus@@@std@@PAX@1@@Z 00421dfc     bncs_csi.obj
 0002:00006e10       __ehfuncinfo$??$_Insert_nohint@AAU?$pair@$$CBKVdeviceStatus@@@std@@PAU?$_Tree_node@U?$pair@$$CBKVdeviceStatus@@@std@@PAX@2@@?$_Tree@V?$_Tmap_traits@KVdeviceStatus@@U?$less@K@std@@V?$allocator@U?$pair@$$CBKVdeviceStatus@@@std@@@3@$0A@@std@@@std@@IAE?AU?$pair@V?$_Tree_iterator@V?$_Tree_val@U?$_Tree_simple_types@U?$pair@$$CBKVdeviceStatus@@@std@@@std@@@std@@@std@@_N@1@_NAAU?$pair@$$CBKVdeviceStatus@@@1@PAU?$_Tree_node@U?$pair@$$CBKVdeviceStatus@@@std@@PAX@1@@Z 00421e10     bncs_csi.obj
 0002:00006e34       __catchsym$??$_Copy_nodes@U?$integral_constant@_N$0A@@std@@@?$_Tree@V?$_Tset_traits@VclientIPC@@U?$less@VclientIPC@@@std@@V?$allocator@VclientIPC@@@3@$0A@@std@@@std@@IAEPAU?$_Tree_node@VclientIPC@@PAX@1@PAU21@0U?$integral_constant@_N$0A@@1@@Z$2 00421e34     bncs_csi.obj
 0002:00006e34       __catchsym$??$_Copy_nodes@U?$integral_constant@_N$0A@@std@@@?$_Tree@V?$_Tmap_traits@HVdeviceStatusOnHost@@U?$less@H@std@@V?$allocator@U?$pair@$$CBHVdeviceStatusOnHost@@@std@@@3@$0A@@std@@@std@@IAEPAU?$_Tree_node@U?$pair@$$CBHVdeviceStatusOnHost@@@std@@PAX@1@PAU21@0U?$integral_constant@_N$0A@@1@@Z$2 00421e34     bncs_csi.obj
 0002:00006e44       __unwindtable$??$_Copy_nodes@U?$integral_constant@_N$0A@@std@@@?$_Tree@V?$_Tset_traits@VclientIPC@@U?$less@VclientIPC@@@std@@V?$allocator@VclientIPC@@@3@$0A@@std@@@std@@IAEPAU?$_Tree_node@VclientIPC@@PAX@1@PAU21@0U?$integral_constant@_N$0A@@1@@Z 00421e44     bncs_csi.obj
 0002:00006e44       __unwindtable$??$_Copy_nodes@U?$integral_constant@_N$0A@@std@@@?$_Tree@V?$_Tmap_traits@HVdeviceStatusOnHost@@U?$less@H@std@@V?$allocator@U?$pair@$$CBHVdeviceStatusOnHost@@@std@@@3@$0A@@std@@@std@@IAEPAU?$_Tree_node@U?$pair@$$CBHVdeviceStatusOnHost@@@std@@PAX@1@PAU21@0U?$integral_constant@_N$0A@@1@@Z 00421e44     bncs_csi.obj
 0002:00006e54       __tryblocktable$??$_Copy_nodes@U?$integral_constant@_N$0A@@std@@@?$_Tree@V?$_Tset_traits@VclientIPC@@U?$less@VclientIPC@@@std@@V?$allocator@VclientIPC@@@3@$0A@@std@@@std@@IAEPAU?$_Tree_node@VclientIPC@@PAX@1@PAU21@0U?$integral_constant@_N$0A@@1@@Z 00421e54     bncs_csi.obj
 0002:00006e54       __tryblocktable$??$_Copy_nodes@U?$integral_constant@_N$0A@@std@@@?$_Tree@V?$_Tmap_traits@HVdeviceStatusOnHost@@U?$less@H@std@@V?$allocator@U?$pair@$$CBHVdeviceStatusOnHost@@@std@@@3@$0A@@std@@@std@@IAEPAU?$_Tree_node@U?$pair@$$CBHVdeviceStatusOnHost@@@std@@PAX@1@PAU21@0U?$integral_constant@_N$0A@@1@@Z 00421e54     bncs_csi.obj
 0002:00006e68       __ehfuncinfo$??$_Copy_nodes@U?$integral_constant@_N$0A@@std@@@?$_Tree@V?$_Tmap_traits@HVdeviceStatusOnHost@@U?$less@H@std@@V?$allocator@U?$pair@$$CBHVdeviceStatusOnHost@@@std@@@3@$0A@@std@@@std@@IAEPAU?$_Tree_node@U?$pair@$$CBHVdeviceStatusOnHost@@@std@@PAX@1@PAU21@0U?$integral_constant@_N$0A@@1@@Z 00421e68     bncs_csi.obj
 0002:00006e68       __ehfuncinfo$??$_Copy_nodes@U?$integral_constant@_N$0A@@std@@@?$_Tree@V?$_Tset_traits@VclientIPC@@U?$less@VclientIPC@@@std@@V?$allocator@VclientIPC@@@3@$0A@@std@@@std@@IAEPAU?$_Tree_node@VclientIPC@@PAX@1@PAU21@0U?$integral_constant@_N$0A@@1@@Z 00421e68     bncs_csi.obj
 0002:00006e8c       __unwindtable$??1clientsRegistration@@UAE@XZ 00421e8c     clientsRegistration.obj
 0002:00006e94       __ehfuncinfo$??1clientsRegistration@@UAE@XZ 00421e94     clientsRegistration.obj
 0002:00006eb8       __unwindtable$?getRegObject@clientsRegistration@@AAEPAVsingleReg@@VclientIPC@@I_N@Z 00421eb8     clientsRegistration.obj
 0002:00006ec0       __ehfuncinfo$?getRegObject@clientsRegistration@@AAEPAVsingleReg@@VclientIPC@@I_N@Z 00421ec0     clientsRegistration.obj
 0002:00006ee4       __catchsym$??$_Insert_nohint@AAU?$pair@$$CBHVdeviceStatusOnHost@@@std@@PAU?$_Tree_node@U?$pair@$$CBHVdeviceStatusOnHost@@@std@@PAX@2@@?$_Tree@V?$_Tmap_traits@HVdeviceStatusOnHost@@U?$less@H@std@@V?$allocator@U?$pair@$$CBHVdeviceStatusOnHost@@@std@@@3@$0A@@std@@@std@@IAE?AU?$pair@V?$_Tree_iterator@V?$_Tree_val@U?$_Tree_simple_types@U?$pair@$$CBHVdeviceStatusOnHost@@@std@@@std@@@std@@@std@@_N@1@_NAAU?$pair@$$CBHVdeviceStatusOnHost@@@1@PAU?$_Tree_node@U?$pair@$$CBHVdeviceStatusOnHost@@@std@@PAX@1@@Z$2 00421ee4     deviceStatus.obj
 0002:00006ef4       __unwindtable$??$_Insert_nohint@AAU?$pair@$$CBHVdeviceStatusOnHost@@@std@@PAU?$_Tree_node@U?$pair@$$CBHVdeviceStatusOnHost@@@std@@PAX@2@@?$_Tree@V?$_Tmap_traits@HVdeviceStatusOnHost@@U?$less@H@std@@V?$allocator@U?$pair@$$CBHVdeviceStatusOnHost@@@std@@@3@$0A@@std@@@std@@IAE?AU?$pair@V?$_Tree_iterator@V?$_Tree_val@U?$_Tree_simple_types@U?$pair@$$CBHVdeviceStatusOnHost@@@std@@@std@@@std@@@std@@_N@1@_NAAU?$pair@$$CBHVdeviceStatusOnHost@@@1@PAU?$_Tree_node@U?$pair@$$CBHVdeviceStatusOnHost@@@std@@PAX@1@@Z 00421ef4     deviceStatus.obj
 0002:00006f04       __tryblocktable$??$_Insert_nohint@AAU?$pair@$$CBHVdeviceStatusOnHost@@@std@@PAU?$_Tree_node@U?$pair@$$CBHVdeviceStatusOnHost@@@std@@PAX@2@@?$_Tree@V?$_Tmap_traits@HVdeviceStatusOnHost@@U?$less@H@std@@V?$allocator@U?$pair@$$CBHVdeviceStatusOnHost@@@std@@@3@$0A@@std@@@std@@IAE?AU?$pair@V?$_Tree_iterator@V?$_Tree_val@U?$_Tree_simple_types@U?$pair@$$CBHVdeviceStatusOnHost@@@std@@@std@@@std@@@std@@_N@1@_NAAU?$pair@$$CBHVdeviceStatusOnHost@@@1@PAU?$_Tree_node@U?$pair@$$CBHVdeviceStatusOnHost@@@std@@PAX@1@@Z 00421f04     deviceStatus.obj
 0002:00006f18       __ehfuncinfo$??$_Insert_nohint@AAU?$pair@$$CBHVdeviceStatusOnHost@@@std@@PAU?$_Tree_node@U?$pair@$$CBHVdeviceStatusOnHost@@@std@@PAX@2@@?$_Tree@V?$_Tmap_traits@HVdeviceStatusOnHost@@U?$less@H@std@@V?$allocator@U?$pair@$$CBHVdeviceStatusOnHost@@@std@@@3@$0A@@std@@@std@@IAE?AU?$pair@V?$_Tree_iterator@V?$_Tree_val@U?$_Tree_simple_types@U?$pair@$$CBHVdeviceStatusOnHost@@@std@@@std@@@std@@@std@@_N@1@_NAAU?$pair@$$CBHVdeviceStatusOnHost@@@1@PAU?$_Tree_node@U?$pair@$$CBHVdeviceStatusOnHost@@@std@@PAX@1@@Z 00421f18     deviceStatus.obj
 0002:00006f3c       __ehfuncinfo$?domainFromOspl@@YAHH@Z 00421f3c     domainFromOspl.obj
 0002:00006f60       __unwindtable$?domainFromOspl@@YAHH@Z 00421f60     domainFromOspl.obj
 0002:00006fd8       __ehfuncinfo$_main         00421fd8     main.obj
 0002:00006ffc       __unwindtable$_main        00421ffc     main.obj
 0002:00007044       __ehfuncinfo$??0messageWindow@@QAE@PAVmessageWindowCallback@@PAUHINSTANCE__@@PADH@Z 00422044     messageWindow.obj
 0002:00007068       __unwindtable$??0messageWindow@@QAE@PAVmessageWindowCallback@@PAUHINSTANCE__@@PADH@Z 00422068     messageWindow.obj
 0002:000070a0       __ehfuncinfo$??1messageWindow@@UAE@XZ 004220a0     messageWindow.obj
 0002:000070c4       __unwindtable$??1messageWindow@@UAE@XZ 004220c4     messageWindow.obj
 0002:000070f4       __unwindtable$?checkClientAlive@messageWindow@@AAEXABVclientIPC@@@Z 004220f4     messageWindow.obj
 0002:0000710c       __ehfuncinfo$?checkClientAlive@messageWindow@@AAEXABVclientIPC@@@Z 0042210c     messageWindow.obj
 0002:00007130       __unwindtable$?checkDriverAlive@messageWindow@@AAEXABVdriverIPC@@@Z 00422130     messageWindow.obj
 0002:00007150       __ehfuncinfo$?checkDriverAlive@messageWindow@@AAEXABVdriverIPC@@@Z 00422150     messageWindow.obj
 0002:00007174       __ehfuncinfo$?WndProc@@YGJPAUHWND__@@IIJ@Z 00422174     messageWindow.obj
 0002:00007198       __unwindtable$?WndProc@@YGJPAUHWND__@@IIJ@Z 00422198     messageWindow.obj
 0002:000072e0       __catchsym$??0?$_Tree@V?$_Tmap_traits@IVdriverIPC@@U?$less@I@std@@V?$allocator@U?$pair@$$CBIVdriverIPC@@@std@@@3@$0A@@std@@@std@@QAE@ABV01@ABV?$allocator@U?$pair@$$CBIVdriverIPC@@@std@@@1@@Z$5 004222e0     messageWindow.obj
 0002:000072f0       __tryblocktable$??0?$_Tree@V?$_Tmap_traits@IVdriverIPC@@U?$less@I@std@@V?$allocator@U?$pair@$$CBIVdriverIPC@@@std@@@3@$0A@@std@@@std@@QAE@ABV01@ABV?$allocator@U?$pair@$$CBIVdriverIPC@@@std@@@1@@Z 004222f0     messageWindow.obj
 0002:00007304       __unwindtable$??0?$_Tree@V?$_Tmap_traits@IVdriverIPC@@U?$less@I@std@@V?$allocator@U?$pair@$$CBIVdriverIPC@@@std@@@3@$0A@@std@@@std@@QAE@ABV01@ABV?$allocator@U?$pair@$$CBIVdriverIPC@@@std@@@1@@Z 00422304     messageWindow.obj
 0002:0000731c       __ehfuncinfo$??0?$_Tree@V?$_Tmap_traits@IVdriverIPC@@U?$less@I@std@@V?$allocator@U?$pair@$$CBIVdriverIPC@@@std@@@3@$0A@@std@@@std@@QAE@ABV01@ABV?$allocator@U?$pair@$$CBIVdriverIPC@@@std@@@1@@Z 0042231c     messageWindow.obj
 0002:00007340       __unwindtable$?customEvent@messageWindow@@EAEXPAVQEvent@@@Z 00422340     messageWindow.obj
 0002:00007348       __ehfuncinfo$?customEvent@messageWindow@@EAEXPAVQEvent@@@Z 00422348     messageWindow.obj
 0002:0000736c       __unwindtable$?driverInfoWrite@messageWindow@@QAEXIIABVQString@@I@Z 0042236c     messageWindow.obj
 0002:00007374       __ehfuncinfo$?driverInfoWrite@messageWindow@@QAEXIIABVQString@@I@Z 00422374     messageWindow.obj
 0002:00007398       __unwindtable$?driverRouterCrosspoint@messageWindow@@QAEXIIIABVQString@@I@Z 00422398     messageWindow.obj
 0002:000073a0       __ehfuncinfo$?driverRouterCrosspoint@messageWindow@@QAEXIIIABVQString@@I@Z 004223a0     messageWindow.obj
 0002:000073c4       __unwindtable$?clientInfoRevertive@messageWindow@@QAEXIIABVQString@@I@Z 004223c4     messageWindow.obj
 0002:000073dc       __ehfuncinfo$?clientInfoRevertive@messageWindow@@QAEXIIABVQString@@I@Z 004223dc     messageWindow.obj
 0002:00007400       __unwindtable$?clientRouterRevertive@messageWindow@@QAEXIIHI@Z 00422400     messageWindow.obj
 0002:00007420       __ehfuncinfo$?clientRouterRevertive@messageWindow@@QAEXIIHI@Z 00422420     messageWindow.obj
 0002:00007444       __unwindtable$?clientGpiRevertive@messageWindow@@QAEXII_NI@Z 00422444     messageWindow.obj
 0002:0000744c       __ehfuncinfo$?clientGpiRevertive@messageWindow@@QAEXII_NI@Z 0042244c     messageWindow.obj
 0002:00007470       __ehfuncinfo$?clientRouterModify@messageWindow@@QAEXPAUHWND__@@IIIABVQString@@I@Z 00422470     messageWindow.obj
 0002:00007494       __unwindtable$?clientRouterModify@messageWindow@@QAEXPAUHWND__@@IIIABVQString@@I@Z 00422494     messageWindow.obj
 0002:000074f4       __unwindtable$?clientDeviceMessage@messageWindow@@QAEXIIABVQString@@III@Z 004224f4     messageWindow.obj
 0002:00007504       __ehfuncinfo$?clientDeviceMessage@messageWindow@@QAEXIIABVQString@@III@Z 00422504     messageWindow.obj
 0002:00007528       __unwindtable$?driverDeviceMessage@messageWindow@@QAEXIIABVQString@@III@Z 00422528     messageWindow.obj
 0002:00007530       __ehfuncinfo$?driverDeviceMessage@messageWindow@@QAEXIIABVQString@@III@Z 00422530     messageWindow.obj
 0002:00007554       __unwindtable$?driverRouterModify@messageWindow@@QAEXPAUHWND__@@IIIABVQString@@I@Z 00422554     messageWindow.obj
 0002:0000755c       __ehfuncinfo$?driverRouterModify@messageWindow@@QAEXPAUHWND__@@IIIABVQString@@I@Z 0042255c     messageWindow.obj
 0002:00007580       __catchsym$??$_Insert_nohint@ABVclientIPC@@U_Nil@std@@@?$_Tree@V?$_Tset_traits@VclientIPC@@U?$less@VclientIPC@@@std@@V?$allocator@VclientIPC@@@3@$0A@@std@@@std@@IAE?AU?$pair@V?$_Tree_const_iterator@V?$_Tree_val@U?$_Tree_simple_types@VclientIPC@@@std@@@std@@@std@@_N@1@_NABVclientIPC@@U_Nil@1@@Z$2 00422580     messageWindow.obj
 0002:00007590       __unwindtable$??$_Insert_nohint@ABVclientIPC@@U_Nil@std@@@?$_Tree@V?$_Tset_traits@VclientIPC@@U?$less@VclientIPC@@@std@@V?$allocator@VclientIPC@@@3@$0A@@std@@@std@@IAE?AU?$pair@V?$_Tree_const_iterator@V?$_Tree_val@U?$_Tree_simple_types@VclientIPC@@@std@@@std@@@std@@_N@1@_NABVclientIPC@@U_Nil@1@@Z 00422590     messageWindow.obj
 0002:000075a0       __tryblocktable$??$_Insert_nohint@ABVclientIPC@@U_Nil@std@@@?$_Tree@V?$_Tset_traits@VclientIPC@@U?$less@VclientIPC@@@std@@V?$allocator@VclientIPC@@@3@$0A@@std@@@std@@IAE?AU?$pair@V?$_Tree_const_iterator@V?$_Tree_val@U?$_Tree_simple_types@VclientIPC@@@std@@@std@@@std@@_N@1@_NABVclientIPC@@U_Nil@1@@Z 004225a0     messageWindow.obj
 0002:000075b4       __ehfuncinfo$??$_Insert_nohint@ABVclientIPC@@U_Nil@std@@@?$_Tree@V?$_Tset_traits@VclientIPC@@U?$less@VclientIPC@@@std@@V?$allocator@VclientIPC@@@3@$0A@@std@@@std@@IAE?AU?$pair@V?$_Tree_const_iterator@V?$_Tree_val@U?$_Tree_simple_types@VclientIPC@@@std@@@std@@@std@@_N@1@_NABVclientIPC@@U_Nil@1@@Z 004225b4     messageWindow.obj
 0002:000075d8       __catchsym$??$_Insert_nohint@AAU?$pair@$$CBIVdriverIPC@@@std@@PAU?$_Tree_node@U?$pair@$$CBIVdriverIPC@@@std@@PAX@2@@?$_Tree@V?$_Tmap_traits@IVdriverIPC@@U?$less@I@std@@V?$allocator@U?$pair@$$CBIVdriverIPC@@@std@@@3@$0A@@std@@@std@@IAE?AU?$pair@V?$_Tree_iterator@V?$_Tree_val@U?$_Tree_simple_types@U?$pair@$$CBIVdriverIPC@@@std@@@std@@@std@@@std@@_N@1@_NAAU?$pair@$$CBIVdriverIPC@@@1@PAU?$_Tree_node@U?$pair@$$CBIVdriverIPC@@@std@@PAX@1@@Z$2 004225d8     messageWindow.obj
 0002:000075e8       __unwindtable$??$_Insert_nohint@AAU?$pair@$$CBIVdriverIPC@@@std@@PAU?$_Tree_node@U?$pair@$$CBIVdriverIPC@@@std@@PAX@2@@?$_Tree@V?$_Tmap_traits@IVdriverIPC@@U?$less@I@std@@V?$allocator@U?$pair@$$CBIVdriverIPC@@@std@@@3@$0A@@std@@@std@@IAE?AU?$pair@V?$_Tree_iterator@V?$_Tree_val@U?$_Tree_simple_types@U?$pair@$$CBIVdriverIPC@@@std@@@std@@@std@@@std@@_N@1@_NAAU?$pair@$$CBIVdriverIPC@@@1@PAU?$_Tree_node@U?$pair@$$CBIVdriverIPC@@@std@@PAX@1@@Z 004225e8     messageWindow.obj
 0002:000075f8       __tryblocktable$??$_Insert_nohint@AAU?$pair@$$CBIVdriverIPC@@@std@@PAU?$_Tree_node@U?$pair@$$CBIVdriverIPC@@@std@@PAX@2@@?$_Tree@V?$_Tmap_traits@IVdriverIPC@@U?$less@I@std@@V?$allocator@U?$pair@$$CBIVdriverIPC@@@std@@@3@$0A@@std@@@std@@IAE?AU?$pair@V?$_Tree_iterator@V?$_Tree_val@U?$_Tree_simple_types@U?$pair@$$CBIVdriverIPC@@@std@@@std@@@std@@@std@@_N@1@_NAAU?$pair@$$CBIVdriverIPC@@@1@PAU?$_Tree_node@U?$pair@$$CBIVdriverIPC@@@std@@PAX@1@@Z 004225f8     messageWindow.obj
 0002:0000760c       __ehfuncinfo$??$_Insert_nohint@AAU?$pair@$$CBIVdriverIPC@@@std@@PAU?$_Tree_node@U?$pair@$$CBIVdriverIPC@@@std@@PAX@2@@?$_Tree@V?$_Tmap_traits@IVdriverIPC@@U?$less@I@std@@V?$allocator@U?$pair@$$CBIVdriverIPC@@@std@@@3@$0A@@std@@@std@@IAE?AU?$pair@V?$_Tree_iterator@V?$_Tree_val@U?$_Tree_simple_types@U?$pair@$$CBIVdriverIPC@@@std@@@std@@@std@@@std@@_N@1@_NAAU?$pair@$$CBIVdriverIPC@@@1@PAU?$_Tree_node@U?$pair@$$CBIVdriverIPC@@@std@@PAX@1@@Z 0042260c     messageWindow.obj
 0002:00007630       __catchsym$??$_Copy_nodes@U?$integral_constant@_N$0A@@std@@@?$_Tree@V?$_Tmap_traits@IVdriverIPC@@U?$less@I@std@@V?$allocator@U?$pair@$$CBIVdriverIPC@@@std@@@3@$0A@@std@@@std@@IAEPAU?$_Tree_node@U?$pair@$$CBIVdriverIPC@@@std@@PAX@1@PAU21@0U?$integral_constant@_N$0A@@1@@Z$2 00422630     messageWindow.obj
 0002:00007640       __unwindtable$??$_Copy_nodes@U?$integral_constant@_N$0A@@std@@@?$_Tree@V?$_Tmap_traits@IVdriverIPC@@U?$less@I@std@@V?$allocator@U?$pair@$$CBIVdriverIPC@@@std@@@3@$0A@@std@@@std@@IAEPAU?$_Tree_node@U?$pair@$$CBIVdriverIPC@@@std@@PAX@1@PAU21@0U?$integral_constant@_N$0A@@1@@Z 00422640     messageWindow.obj
 0002:00007650       __tryblocktable$??$_Copy_nodes@U?$integral_constant@_N$0A@@std@@@?$_Tree@V?$_Tmap_traits@IVdriverIPC@@U?$less@I@std@@V?$allocator@U?$pair@$$CBIVdriverIPC@@@std@@@3@$0A@@std@@@std@@IAEPAU?$_Tree_node@U?$pair@$$CBIVdriverIPC@@@std@@PAX@1@PAU21@0U?$integral_constant@_N$0A@@1@@Z 00422650     messageWindow.obj
 0002:00007664       __ehfuncinfo$??$_Copy_nodes@U?$integral_constant@_N$0A@@std@@@?$_Tree@V?$_Tmap_traits@IVdriverIPC@@U?$less@I@std@@V?$allocator@U?$pair@$$CBIVdriverIPC@@@std@@@3@$0A@@std@@@std@@IAEPAU?$_Tree_node@U?$pair@$$CBIVdriverIPC@@@std@@PAX@1@PAU21@0U?$integral_constant@_N$0A@@1@@Z 00422664     messageWindow.obj
 0002:00007688       __sehtable$__onexit        00422688     MSVCRT:atonexit.obj
 0002:000076a8       __sehtable$___tmainCRTStartup 004226a8     MSVCRT:crtexew.obj
 0002:000076c8       __sehtable$??_M@YGXPAXIHP6EX0@Z@Z 004226c8     MSVCRT:ehvecdtr.obj
 0002:000076e8       __sehtable$?__ArrayUnwind@@YGXPAXIHP6EX0@Z@Z 004226e8     MSVCRT:ehvecdtr.obj
 0002:00007708       __sehtable$__IsNonwritableInCurrentImage 00422708     MSVCRT:pesect.obj
 0002:00008172       .idata$6                   00423172     handleshare:handleShare.dll
 0002:000084ae       .idata$6                   004234ae     netLegacy:netLegacy.dll
 0002:000084bc       .idata$6                   004234bc     bncsif32:BNCSIF32.dll
 0002:0000907a       .idata$6                   0042407a     Qt5Core:Qt5Core.dll
 0002:0000913e       .idata$6                   0042413e     Qt5Gui:Qt5Gui.dll
 0002:0000d138       .idata$6                   00428138     Qt5Widgets:Qt5Widgets.dll
 0002:0000d164       .idata$6                   00428164     Psapi:PSAPI.DLL
 0002:0000d256       .idata$6                   00428256     Qt5XmlPatterns:Qt5XmlPatterns.dll
 0002:0000d42a       .idata$6                   0042842a     kernel32:KERNEL32.dll
 0002:0000d528       .idata$6                   00428528     user32:USER32.dll
 0002:0000d566       .idata$6                   00428566     advapi32:ADVAPI32.dll
 0002:0000d584       .idata$6                   00428584     shell32:SHELL32.dll
 0002:0000d62a       .idata$6                   0042862a     msvcprt:MSVCP120.dll
 0002:0000d790       .idata$6                   00428790     MSVCRT:MSVCR120.dll
 0002:0000d9d0       .idata$6                   004289d0     version:VERSION.dll
 0003:00000000       _BNCS_CCCONFIG_SIG         00429000     ccConfig.obj
 0003:00000078       _CSI2_large_Icon_32        00429078     bncs_csi.obj
 0003:00000318       _BNCS_DISKLOG_SIG          00429318     bncs_disklog:bncs_disklog.obj
 0003:00000388       _BNCS_BNCSWM32_SIG         00429388     bncswm32:BncsWM32.obj
 0003:00000940       __Tuple_alloc              00429940     ccConfig.obj
 0003:00000941       _ignore                    00429941     ccConfig.obj
 0003:00000942       _allocator_arg             00429942     ccConfig.obj
 0003:00000943       _piecewise_construct       00429943     ccConfig.obj
 0003:0000094c       __Tuple_alloc              0042994c     database.obj
 0003:0000094d       _ignore                    0042994d     database.obj
 0003:0000094e       _allocator_arg             0042994e     database.obj
 0003:0000094f       _piecewise_construct       0042994f     database.obj
 0003:00000950       __Tuple_alloc              00429950     databaseMgr.obj
 0003:00000951       _ignore                    00429951     databaseMgr.obj
 0003:00000952       _allocator_arg             00429952     databaseMgr.obj
 0003:00000953       _piecewise_construct       00429953     databaseMgr.obj
 0003:00000954       __Tuple_alloc              00429954     bncs_csi.obj
 0003:00000955       _ignore                    00429955     bncs_csi.obj
 0003:00000956       _allocator_arg             00429956     bncs_csi.obj
 0003:00000957       _piecewise_construct       00429957     bncs_csi.obj
 0003:00000958       __Nil_obj                  00429958     bncs_csi.obj
 0003:0000095c       ?safeRet@?1??driverObj@bncs_csi@@AAEAAVdriver@@K@Z@4V3@A 0042995c     bncs_csi.obj
 0003:0000096c       ?$S1@?1??driverObj@bncs_csi@@AAEAAVdriver@@K@Z@4IA 0042996c     bncs_csi.obj
 0003:00000970       __Tuple_alloc              00429970     bncs_device.obj
 0003:00000971       _ignore                    00429971     bncs_device.obj
 0003:00000972       _allocator_arg             00429972     bncs_device.obj
 0003:00000973       _piecewise_construct       00429973     bncs_device.obj
 0003:00000974       _allocator_arg             00429974     clientsRegistration.obj
 0003:00000975       _piecewise_construct       00429975     clientsRegistration.obj
 0003:00000976       __Tuple_alloc              00429976     deviceStatus.obj
 0003:00000977       _ignore                    00429977     deviceStatus.obj
 0003:00000978       _allocator_arg             00429978     deviceStatus.obj
 0003:00000979       _piecewise_construct       00429979     deviceStatus.obj
 0003:0000097a       __Tuple_alloc              0042997a     domainFromOspl.obj
 0003:0000097b       _ignore                    0042997b     domainFromOspl.obj
 0003:0000097c       _allocator_arg             0042997c     domainFromOspl.obj
 0003:0000097d       _piecewise_construct       0042997d     domainFromOspl.obj
 0003:0000097f       __Tuple_alloc              0042997f     moc_bncs_csi.obj
 0003:00000980       _ignore                    00429980     moc_bncs_csi.obj
 0003:00000981       _allocator_arg             00429981     moc_bncs_csi.obj
 0003:00000982       _piecewise_construct       00429982     moc_bncs_csi.obj
 0003:00000983       __Tuple_alloc              00429983     moc_messageWindow.obj
 0003:00000984       _ignore                    00429984     moc_messageWindow.obj
 0003:00000985       _allocator_arg             00429985     moc_messageWindow.obj
 0003:00000986       _piecewise_construct       00429986     moc_messageWindow.obj
 0003:00000987       __Tuple_alloc              00429987     main.obj
 0003:00000988       _ignore                    00429988     main.obj
 0003:00000989       _allocator_arg             00429989     main.obj
 0003:0000098a       _piecewise_construct       0042998a     main.obj
 0003:0000098b       __Tuple_alloc              0042998b     messageWindow.obj
 0003:0000098c       _ignore                    0042998c     messageWindow.obj
 0003:0000098d       _allocator_arg             0042998d     messageWindow.obj
 0003:0000098e       _piecewise_construct       0042998e     messageWindow.obj
 0003:0000098f       __Nil_obj                  0042998f     messageWindow.obj
 0003:00000990       _?g_fTriedAndFailed@?1??HtmlHelpW@@9@16@4HA$S28322 00429990     htmlhelp:init.obj
 0003:00000994       _?g_hmodHHCtrl@?1??HtmlHelpA@@9@16@4PAUHINSTANCE__@@A$S28294 00429994     htmlhelp:init.obj
 0003:00000998       _?g_hmodHHCtrl@?1??HtmlHelpW@@9@16@4PAUHINSTANCE__@@A$S28320 00429998     htmlhelp:init.obj
 0003:0000099c       _?g_fTriedAndFailed@?1??HtmlHelpA@@9@16@4HA$S28296 0042999c     htmlhelp:init.obj
 0003:000009a8       _acCopyDataResult          004299a8     bncswm32:BncsWM32.obj
 0003:00000bac       _lCopyDataResult           00429bac     bncswm32:BncsWM32.obj
 0003:00000bb0       ?lResult@?1??BNCS32SendMessage@@9@4JA 00429bb0     bncswm32:BncsWM32.obj
 0003:00000bb4       ?acNumericData@?1??BNCS32SendMessage@@9@4PADA 00429bb4     bncswm32:BncsWM32.obj
 0003:00000bc4       ?CDS@?1??BNCS32SendMessage@@9@4UtagCOPYDATASTRUCT@@A 00429bc4     bncswm32:BncsWM32.obj
 0003:00000bd0       ?uMsg@?1??BNCS32ReceiveMessage@@9@4IA 00429bd0     bncswm32:BncsWM32.obj
 0003:00000bd4       ?wParam@?1??BNCS32ReceiveMessage@@9@4IA 00429bd4     bncswm32:BncsWM32.obj
 0003:00000bd8       ?lParam@?1??BNCS32ReceiveMessage@@9@4JA 00429bd8     bncswm32:BncsWM32.obj
 0003:00000bdc       ?lResult@?1??BNCS32ReceiveMessage@@9@4JA 00429bdc     bncswm32:BncsWM32.obj
 0003:00000be0       _GS_ExceptionRecord        00429be0     MSVCRT:gs_report.obj
 0003:00000c30       _GS_ContextRecord          00429c30     MSVCRT:gs_report.obj
 0003:00000efc       _DebuggerWasPresent        00429efc     MSVCRT:gs_report.obj
 0003:00000f00       _has_cctor                 00429f00     MSVCRT:crtexew.obj
 0003:00000f04       _mainret                   00429f04     MSVCRT:crtexew.obj
 0003:00000f08       _managedapp                00429f08     MSVCRT:crtexew.obj
 0003:00000f0c       _argc                      00429f0c     MSVCRT:crtexew.obj
 0003:00000f10       _argv                      00429f10     MSVCRT:crtexew.obj
 0003:00000f14       _envp                      00429f14     MSVCRT:crtexew.obj
 0003:00000f18       _argret                    00429f18     MSVCRT:crtexew.obj
 0003:00000f1c       _startinfo                 00429f1c     MSVCRT:crtexew.obj
 0003:00000f30       _allocator_arg             00429f30     qtmain:qtmain_win.obj
 0003:00000f31       _piecewise_construct       00429f31     qtmain:qtmain_win.obj
 0004:00000190       $R000000                   0042a190     bncs_csi.res
 0004:00001238       $R0010A8                   0042b238     bncs_csi.res
 0004:000037e0       $R003650                   0042d7e0     bncs_csi.res
 0004:00003c48       $R003AB8                   0042dc48     bncs_csi.res
 0004:00003c78       $R003AE8                   0042dc78     bncs_csi.res
 0004:00004068       $R003ED8                   0042e068     bncs_csi.res
