 bncs_v45_host

 Timestamp is 5e9dbbcb (Mon Apr 20 16:12:11 2020)

 Preferred load address is 00400000

 Start         Length     Name                   Class
 0001:00000000 000000b8H .text                   CODE
 0001:000000c0 000000b1H .text$di                CODE
 0001:00000180 00005722H .text$mn                CODE
 0001:000058b0 00000a94H .text$x                 CODE
 0001:00006350 0000005bH .text$yd                CODE
 0002:00000000 00000538H .idata$5                DATA
 0002:00000538 00000004H .CRT$XCA                DATA
 0002:0000053c 00000004H .CRT$XCAA               DATA
 0002:00000540 00000018H .CRT$XCU                DATA
 0002:00000558 00000004H .CRT$XCZ                DATA
 0002:0000055c 00000004H .CRT$XIA                DATA
 0002:00000560 00000004H .CRT$XIAA               DATA
 0002:00000564 00000004H .CRT$XIC                DATA
 0002:00000568 00000004H .CRT$XIY                DATA
 0002:0000056c 00000004H .CRT$XIZ                DATA
 0002:00000570 00001f80H .rdata                  DATA
 0002:000024f0 000005fcH .rdata$r                DATA
 0002:00002aec 00000004H .rtc$IAA                DATA
 0002:00002af0 00000004H .rtc$IZZ                DATA
 0002:00002af4 00000004H .rtc$TAA                DATA
 0002:00002af8 00000004H .rtc$TZZ                DATA
 0002:00002b00 00000ae4H .xdata$x                DATA
 0002:000035f0 000016efH .edata                  DATA
 0002:00004ce0 0000008cH .idata$2                DATA
 0002:00004d6c 00000014H .idata$3                DATA
 0002:00004d80 00000538H .idata$4                DATA
 0002:000052b8 00002bf2H .idata$6                DATA
 0003:00000000 0000033cH .data                   DATA
 0003:0000033c 0000027cH .data$r                 DATA
 0003:000005b8 000003fcH .bss                    DATA
 0004:00000000 00000190H .rsrc$01                DATA
 0004:00000190 00004058H .rsrc$02                DATA

  Address         Publics by Value              Rva+Base       Lib:Object

 0000:00000000       ___guard_fids_count        00000000     <absolute>
 0000:00000000       ___guard_fids_table        00000000     <absolute>
 0000:00000000       ___safe_se_handler_table   00000000     <absolute>
 0000:00000000       ___guard_flags             00000000     <absolute>
 0000:00000000       __except_list              00000000     <absolute>
 0000:00000000       ___safe_se_handler_count   00000000     <absolute>
 0000:00009876       __ldused                   00009876     <absolute>
 0000:00009876       __fltused                  00009876     <absolute>
 0000:00000000       ___ImageBase               00400000     <linker-defined>
 0001:00000000       _WinMain@16                00401000 f   qtmain:qtmain_win.obj
 0001:0000008d       ?detach@?$QMemArray@PAD@@UAEXXZ 0040108d f i qtmain:qtmain_win.obj
 0001:00000095       ??_E?$QMemArray@PAD@@UAEPAXI@Z 00401095 f i qtmain:qtmain_win.obj
 0001:00000095       ??_G?$QMemArray@PAD@@UAEPAXI@Z 00401095 f i qtmain:qtmain_win.obj
 0001:00000180       ??0?$QPtrList@VsignalConnection@@@@QAE@ABV0@@Z 00401180 f i bncs_clientmainwindowimpl.obj
 0001:000001a0       ??0?$QPtrList@VsignalConnection@@@@QAE@XZ 004011a0 f i bncs_clientmainwindowimpl.obj
 0001:000001c0       ??0?$QPtrListIterator@VsignalConnection@@@@QAE@ABV0@@Z 004011c0 f i bncs_clientmainwindowimpl.obj
 0001:000001c0       ??0signalConnectionRefListIt@@QAE@ABV0@@Z 004011c0 f i bncs_clientmainwindowimpl.obj
 0001:000001e0       ??0signalConnectionRefListIt@@QAE@ABVsignalConnectionRefList@@@Z 004011e0 f i bncs_clientmainwindowimpl.obj
 0001:000001e0       ??0?$QPtrListIterator@VsignalConnection@@@@QAE@ABV?$QPtrList@VsignalConnection@@@@@Z 004011e0 f i bncs_clientmainwindowimpl.obj
 0001:00000200       ??0?$basic_string@DU?$char_traits@D@std@@V?$allocator@D@2@@std@@QAE@PBD@Z 00401200 f i bncs_clientmainwindowimpl.obj
 0001:00000260       ??0bncs_clientMainWindowImpl@@QAE@PAVQWidget@@PBDI@Z 00401260 f   bncs_clientmainwindowimpl.obj
 0001:00000320       ??0signalConnection@@QAE@ABV0@@Z 00401320 f i bncs_clientmainwindowimpl.obj
 0001:000003b0       ??0signalConnection@@QAE@ABVQString@@0000@Z 004013b0 f i bncs_clientmainwindowimpl.obj
 0001:00000470       ??0signalConnectionRefList@@QAE@ABV0@@Z 00401470 f i bncs_clientmainwindowimpl.obj
 0001:00000490       ??0signalConnectionRefList@@QAE@XZ 00401490 f i bncs_clientmainwindowimpl.obj
 0001:000004b0       ??1?$QPtrList@VsignalConnection@@@@UAE@XZ 004014b0 f i bncs_clientmainwindowimpl.obj
 0001:00000510       ??1?$basic_string@DU?$char_traits@D@std@@V?$allocator@D@2@@std@@QAE@XZ 00401510 f i bncs_clientmainwindowimpl.obj
 0001:00000540       ??1bncs_clientMainWindowImpl@@UAE@XZ 00401540 f i bncs_clientmainwindowimpl.obj
 0001:00000550       ??1signalConnection@@QAE@XZ 00401550 f i bncs_clientmainwindowimpl.obj
 0001:000005d0       ??1signalConnectionRefList@@UAE@XZ 004015d0 f i bncs_clientmainwindowimpl.obj
 0001:00000640       ??1signalConnectionRefListIt@@QAE@XZ 00401640 f i bncs_clientmainwindowimpl.obj
 0001:00000640       ??1?$QPtrListIterator@VsignalConnection@@@@QAE@XZ 00401640 f i bncs_clientmainwindowimpl.obj
 0001:00000650       ??4signalConnection@@QAEAAV0@ABV0@@Z 00401650 f i bncs_clientmainwindowimpl.obj
 0001:000006a0       ??4signalConnectionRefList@@QAEAAV0@ABV0@@Z 004016a0 f i bncs_clientmainwindowimpl.obj
 0001:000006a0       ??4?$QPtrList@VsignalConnection@@@@QAEAAV0@ABV0@@Z 004016a0 f i bncs_clientmainwindowimpl.obj
 0001:000006b0       ??4?$QPtrListIterator@VsignalConnection@@@@QAEAAV0@ABV0@@Z 004016b0 f i bncs_clientmainwindowimpl.obj
 0001:000006b0       ??4signalConnectionRefListIt@@QAEAAV0@ABV0@@Z 004016b0 f i bncs_clientmainwindowimpl.obj
 0001:000006d0       ??8?$QPtrList@VsignalConnection@@@@QBE_NABV0@@Z 004016d0 f i bncs_clientmainwindowimpl.obj
 0001:000006e0       ??9?$QPtrList@VsignalConnection@@@@QBE_NABV0@@Z 004016e0 f i bncs_clientmainwindowimpl.obj
 0001:00000700       ?current@?$QPtrListIterator@VsignalConnection@@@@QBEPAVsignalConnection@@XZ 00401700 f i bncs_clientmainwindowimpl.obj
 0001:00000700       ??D?$QPtrListIterator@VsignalConnection@@@@QAEPAVsignalConnection@@XZ 00401700 f i bncs_clientmainwindowimpl.obj
 0001:00000700       ??B?$QPtrListIterator@VsignalConnection@@@@QBEPAVsignalConnection@@XZ 00401700 f i bncs_clientmainwindowimpl.obj
 0001:00000710       ??E?$QPtrListIterator@VsignalConnection@@@@QAEPAVsignalConnection@@XZ 00401710 f i bncs_clientmainwindowimpl.obj
 0001:00000720       ??F?$QPtrListIterator@VsignalConnection@@@@QAEPAVsignalConnection@@XZ 00401720 f i bncs_clientmainwindowimpl.obj
 0001:00000730       ??R?$QPtrListIterator@VsignalConnection@@@@QAEPAVsignalConnection@@XZ 00401730 f i bncs_clientmainwindowimpl.obj
 0001:00000740       ??Y?$QPtrListIterator@VsignalConnection@@@@QAEPAVsignalConnection@@I@Z 00401740 f i bncs_clientmainwindowimpl.obj
 0001:00000750       ??Z?$QPtrListIterator@VsignalConnection@@@@QAEPAVsignalConnection@@I@Z 00401750 f i bncs_clientmainwindowimpl.obj
 0001:00000760       ??_E?$QPtrList@VsignalConnection@@@@UAEPAXI@Z 00401760 f i bncs_clientmainwindowimpl.obj
 0001:00000812       ??_Ebncs_clientMainWindowImpl@@WCI@AEPAXI@Z 00401812 f i bncs_clientmainwindowimpl.obj
 0001:00000820       ??_EsignalConnectionRefList@@UAEPAXI@Z 00401820 f i bncs_clientmainwindowimpl.obj
 0001:000008f0       ??_Gbncs_clientMainWindowImpl@@UAEPAXI@Z 004018f0 f i bncs_clientmainwindowimpl.obj
 0001:000008f0       ??_Ebncs_clientMainWindowImpl@@UAEPAXI@Z 004018f0 f i bncs_clientmainwindowimpl.obj
 0001:00000920       ??_G_Generic_error_category@std@@UAEPAXI@Z 00401920 f i bncs_clientmainwindowimpl.obj
 0001:00000920       ??_Eerror_category@std@@UAEPAXI@Z 00401920 f i bncs_clientmainwindowimpl.obj
 0001:00000920       ??_G_System_error_category@std@@UAEPAXI@Z 00401920 f i bncs_clientmainwindowimpl.obj
 0001:00000920       ??_E_Iostream_error_category@std@@UAEPAXI@Z 00401920 f i bncs_clientmainwindowimpl.obj
 0001:00000920       ??_E_Generic_error_category@std@@UAEPAXI@Z 00401920 f i bncs_clientmainwindowimpl.obj
 0001:00000920       ??_Gerror_category@std@@UAEPAXI@Z 00401920 f i bncs_clientmainwindowimpl.obj
 0001:00000920       ??_E_System_error_category@std@@UAEPAXI@Z 00401920 f i bncs_clientmainwindowimpl.obj
 0001:00000920       ??_G_Iostream_error_category@std@@UAEPAXI@Z 00401920 f i bncs_clientmainwindowimpl.obj
 0001:00000950       ?_Copy@?$basic_string@DU?$char_traits@D@std@@V?$allocator@D@2@@std@@QAEXII@Z 00401950 f i bncs_clientmainwindowimpl.obj
 0001:00000aa0       ?_Grow@?$basic_string@DU?$char_traits@D@std@@V?$allocator@D@2@@std@@QAE_NI_N@Z 00401aa0 f i bncs_clientmainwindowimpl.obj
 0001:00000b50       ?allocate@?$_Wrap_alloc@V?$allocator@D@std@@@std@@QAEPADI@Z 00401b50 f i bncs_clientmainwindowimpl.obj
 0001:00000b80       ?append@?$QPtrList@VsignalConnection@@@@QAEXPBVsignalConnection@@@Z 00401b80 f i bncs_clientmainwindowimpl.obj
 0001:00000b90       ?assign@?$basic_string@DU?$char_traits@D@std@@V?$allocator@D@2@@std@@QAEAAV12@ABV12@II@Z 00401b90 f i bncs_clientmainwindowimpl.obj
 0001:00000cb0       ?assign@?$basic_string@DU?$char_traits@D@std@@V?$allocator@D@2@@std@@QAEAAV12@PBDI@Z 00401cb0 f i bncs_clientmainwindowimpl.obj
 0001:00000db0       ?at@?$QPtrList@VsignalConnection@@@@QAEPAVsignalConnection@@I@Z 00401db0 f i bncs_clientmainwindowimpl.obj
 0001:00000dd0       ?at@?$QPtrList@VsignalConnection@@@@QBEHXZ 00401dd0 f i bncs_clientmainwindowimpl.obj
 0001:00000de0       ?atFirst@?$QPtrListIterator@VsignalConnection@@@@QBE_NXZ 00401de0 f i bncs_clientmainwindowimpl.obj
 0001:00000df0       ?atLast@?$QPtrListIterator@VsignalConnection@@@@QBE_NXZ 00401df0 f i bncs_clientmainwindowimpl.obj
 0001:00000e00       ?begin@?$QPtrList@VsignalConnection@@@@QAE?AV?$QPtrListStdIterator@VsignalConnection@@@@XZ 00401e00 f i bncs_clientmainwindowimpl.obj
 0001:00000e00       ?begin@?$QPtrList@VsignalConnection@@@@QBE?AV?$QPtrListStdIterator@VsignalConnection@@@@XZ 00401e00 f i bncs_clientmainwindowimpl.obj
 0001:00000e00       ?constBegin@?$QPtrList@VsignalConnection@@@@QBE?AV?$QPtrListStdIterator@VsignalConnection@@@@XZ 00401e00 f i bncs_clientmainwindowimpl.obj
 0001:00000e10       ?cccConfigChangeMessage@IccClientCallback@@MAEXABV?$basic_string@DU?$char_traits@D@std@@V?$allocator@D@2@@std@@@Z 00401e10 f i bncs_clientmainwindowimpl.obj
 0001:00000e20       ?cccDatabaseChange@IccClientCallback@@MAEXHHH@Z 00401e20 f i bncs_clientmainwindowimpl.obj
 0001:00000e20       ?cccRtrRevertive@IccClientCallback@@MAEXHHH@Z 00401e20 f i bncs_clientmainwindowimpl.obj
 0001:00000e20       ?cccInfoRevertive@IccClientCallback@@MAEXHHABV?$basic_string@DU?$char_traits@D@std@@V?$allocator@D@2@@std@@@Z 00401e20 f i bncs_clientmainwindowimpl.obj
 0001:00000e20       ?cccDeviceMode@IccClientCallback@@MAEXHHW4redundancyState@cc@@@Z 00401e20 f i bncs_clientmainwindowimpl.obj
 0001:00000e20       ?cccGpiRevertive@IccClientCallback@@MAEXHH_N@Z 00401e20 f i bncs_clientmainwindowimpl.obj
 0001:00000e30       ?cccDeviceMessage@IccClientCallback@@MAEXHHABV?$basic_string@DU?$char_traits@D@std@@V?$allocator@D@2@@std@@H@Z 00401e30 f i bncs_clientmainwindowimpl.obj
 0001:00000e40       ?cccDisconnected@bncs_clientMainWindowImpl@@MAEXXZ 00401e40 f   bncs_clientmainwindowimpl.obj
 0001:00000e60       ?cccSerialNumberError@IccClientCallback@@MAEXHH@Z 00401e60 f i bncs_clientmainwindowimpl.obj
 0001:00000e60       ?cccPollError@IccClientCallback@@MAEXHH@Z 00401e60 f i bncs_clientmainwindowimpl.obj
 0001:00000e70       ?clear@?$QPtrList@VsignalConnection@@@@UAEXXZ 00401e70 f i bncs_clientmainwindowimpl.obj
 0001:00000e80       ?contains@?$QPtrList@VsignalConnection@@@@QBEIPBVsignalConnection@@@Z 00401e80 f i bncs_clientmainwindowimpl.obj
 0001:00000e90       ?containsRef@?$QPtrList@VsignalConnection@@@@QBEIPBVsignalConnection@@@Z 00401e90 f i bncs_clientmainwindowimpl.obj
 0001:00000ea0       ?count@?$QPtrList@VsignalConnection@@@@UBEIXZ 00401ea0 f i bncs_clientmainwindowimpl.obj
 0001:00000eb0       ?count@?$QPtrListIterator@VsignalConnection@@@@QBEIXZ 00401eb0 f i bncs_clientmainwindowimpl.obj
 0001:00000ec0       ?current@?$QPtrList@VsignalConnection@@@@QBEPAVsignalConnection@@XZ 00401ec0 f i bncs_clientmainwindowimpl.obj
 0001:00000ed0       ?currentNode@?$QPtrList@VsignalConnection@@@@QBEPAVQLNode@@XZ 00401ed0 f i bncs_clientmainwindowimpl.obj
 0001:00000ee0       ?default_error_condition@_System_error_category@std@@UBE?AVerror_condition@2@H@Z 00401ee0 f i bncs_clientmainwindowimpl.obj
 0001:00000f20       ?default_error_condition@error_category@std@@UBE?AVerror_condition@2@H@Z 00401f20 f i bncs_clientmainwindowimpl.obj
 0001:00000f40       ?deleteItem@?$QPtrList@VsignalConnection@@@@EAEXPAX@Z 00401f40 f i bncs_clientmainwindowimpl.obj
 0001:00000fe0       ?constEnd@?$QPtrList@VsignalConnection@@@@QBE?AV?$QPtrListStdIterator@VsignalConnection@@@@XZ 00401fe0 f i bncs_clientmainwindowimpl.obj
 0001:00000fe0       ?end@?$QPtrList@VsignalConnection@@@@QAE?AV?$QPtrListStdIterator@VsignalConnection@@@@XZ 00401fe0 f i bncs_clientmainwindowimpl.obj
 0001:00000fe0       ?end@?$QPtrList@VsignalConnection@@@@QBE?AV?$QPtrListStdIterator@VsignalConnection@@@@XZ 00401fe0 f i bncs_clientmainwindowimpl.obj
 0001:00000ff0       ?equivalent@error_category@std@@UBE_NABVerror_code@2@H@Z 00401ff0 f i bncs_clientmainwindowimpl.obj
 0001:00001010       ?equivalent@error_category@std@@UBE_NHABVerror_condition@2@@Z 00402010 f i bncs_clientmainwindowimpl.obj
 0001:00001050       ?erase@?$QPtrList@VsignalConnection@@@@QAE?AV?$QPtrListStdIterator@VsignalConnection@@@@V2@@Z 00402050 f i bncs_clientmainwindowimpl.obj
 0001:00001070       ?erase@?$basic_string@DU?$char_traits@D@std@@V?$allocator@D@2@@std@@QAEAAV12@II@Z 00402070 f i bncs_clientmainwindowimpl.obj
 0001:00001110       ?find@?$QPtrList@VsignalConnection@@@@QAEHPBVsignalConnection@@@Z 00402110 f i bncs_clientmainwindowimpl.obj
 0001:00001130       ?findNext@?$QPtrList@VsignalConnection@@@@QAEHPBVsignalConnection@@@Z 00402130 f i bncs_clientmainwindowimpl.obj
 0001:00001150       ?findNextRef@?$QPtrList@VsignalConnection@@@@QAEHPBVsignalConnection@@@Z 00402150 f i bncs_clientmainwindowimpl.obj
 0001:00001170       ?findRef@?$QPtrList@VsignalConnection@@@@QAEHPBVsignalConnection@@@Z 00402170 f i bncs_clientmainwindowimpl.obj
 0001:00001190       ?first@?$QPtrList@VsignalConnection@@@@QAEPAVsignalConnection@@XZ 00402190 f i bncs_clientmainwindowimpl.obj
 0001:000011a0       ?getFirst@?$QPtrList@VsignalConnection@@@@QBEPAVsignalConnection@@XZ 004021a0 f i bncs_clientmainwindowimpl.obj
 0001:000011b0       ?getLast@?$QPtrList@VsignalConnection@@@@QBEPAVsignalConnection@@XZ 004021b0 f i bncs_clientmainwindowimpl.obj
 0001:000011c0       ?inSort@?$QPtrList@VsignalConnection@@@@QAEXPBVsignalConnection@@@Z 004021c0 f i bncs_clientmainwindowimpl.obj
 0001:000011d0       ?insert@?$QPtrList@VsignalConnection@@@@QAE_NIPBVsignalConnection@@@Z 004021d0 f i bncs_clientmainwindowimpl.obj
 0001:000011e0       ?isEmpty@?$QPtrList@VsignalConnection@@@@QBE_NXZ 004021e0 f i bncs_clientmainwindowimpl.obj
 0001:000011f0       ?isEmpty@?$QPtrListIterator@VsignalConnection@@@@QBE_NXZ 004021f0 f i bncs_clientmainwindowimpl.obj
 0001:00001200       ?last@?$QPtrList@VsignalConnection@@@@QAEPAVsignalConnection@@XZ 00402200 f i bncs_clientmainwindowimpl.obj
 0001:00001210       ?message@_Generic_error_category@std@@UBE?AV?$basic_string@DU?$char_traits@D@std@@V?$allocator@D@2@@2@H@Z 00402210 f i bncs_clientmainwindowimpl.obj
 0001:00001290       ?message@_Iostream_error_category@std@@UBE?AV?$basic_string@DU?$char_traits@D@std@@V?$allocator@D@2@@2@H@Z 00402290 f i bncs_clientmainwindowimpl.obj
 0001:000012e0       ?message@_System_error_category@std@@UBE?AV?$basic_string@DU?$char_traits@D@std@@V?$allocator@D@2@@2@H@Z 004022e0 f i bncs_clientmainwindowimpl.obj
 0001:00001360       ?metaObject@bncs_clientMainWindowImpl@@UBEPAVQMetaObject@@XZ 00402360 f i bncs_clientmainwindowimpl.obj
 0001:00001370       ?mySetForegroundWindow@bncs_clientMainWindowImpl@@AAEXPAUHWND__@@@Z 00402370 f   bncs_clientmainwindowimpl.obj
 0001:00001410       ?name@_Generic_error_category@std@@UBEPBDXZ 00402410 f i bncs_clientmainwindowimpl.obj
 0001:00001420       ?name@_Iostream_error_category@std@@UBEPBDXZ 00402420 f i bncs_clientmainwindowimpl.obj
 0001:00001430       ?name@_System_error_category@std@@UBEPBDXZ 00402430 f i bncs_clientmainwindowimpl.obj
 0001:00001440       ?next@?$QPtrList@VsignalConnection@@@@QAEPAVsignalConnection@@XZ 00402440 f i bncs_clientmainwindowimpl.obj
 0001:00001450       ?notifyIn@bncs_clientMainWindowImpl@@QAEXAAVQString@@@Z 00402450 f   bncs_clientmainwindowimpl.obj
 0001:00001960       ?path@global@@SA?AVQString@@XZ 00402960 f i bncs_clientmainwindowimpl.obj
 0001:00001a10       ?prepend@?$QPtrList@VsignalConnection@@@@QAEXPBVsignalConnection@@@Z 00402a10 f i bncs_clientmainwindowimpl.obj
 0001:00001a30       ?prev@?$QPtrList@VsignalConnection@@@@QAEPAVsignalConnection@@XZ 00402a30 f i bncs_clientmainwindowimpl.obj
 0001:00001a40       ?remove@?$QPtrList@VsignalConnection@@@@QAE_NI@Z 00402a40 f i bncs_clientmainwindowimpl.obj
 0001:00001a50       ?remove@?$QPtrList@VsignalConnection@@@@QAE_NPBVsignalConnection@@@Z 00402a50 f i bncs_clientmainwindowimpl.obj
 0001:00001a60       ?remove@?$QPtrList@VsignalConnection@@@@QAE_NXZ 00402a60 f i bncs_clientmainwindowimpl.obj
 0001:00001a70       ?removeFirst@?$QPtrList@VsignalConnection@@@@QAE_NXZ 00402a70 f i bncs_clientmainwindowimpl.obj
 0001:00001a90       ?removeLast@?$QPtrList@VsignalConnection@@@@QAE_NXZ 00402a90 f i bncs_clientmainwindowimpl.obj
 0001:00001ab0       ?removeNode@?$QPtrList@VsignalConnection@@@@QAEXPAVQLNode@@@Z 00402ab0 f i bncs_clientmainwindowimpl.obj
 0001:00001ac0       ?removeRef@?$QPtrList@VsignalConnection@@@@QAE_NPBVsignalConnection@@@Z 00402ac0 f i bncs_clientmainwindowimpl.obj
 0001:00001ad0       ?replace@?$QPtrList@VsignalConnection@@@@QAE_NIPBVsignalConnection@@@Z 00402ad0 f i bncs_clientmainwindowimpl.obj
 0001:00001ae0       ?singletonMessageReceived@bncs_clientMainWindowImpl@@QAEXABVQString@@@Z 00402ae0 f   bncs_clientmainwindowimpl.obj
 0001:00001b80       ?sort@?$QPtrList@VsignalConnection@@@@QAEXXZ 00402b80 f i bncs_clientmainwindowimpl.obj
 0001:00001b90       ?take@?$QPtrList@VsignalConnection@@@@QAEPAVsignalConnection@@I@Z 00402b90 f i bncs_clientmainwindowimpl.obj
 0001:00001ba0       ?take@?$QPtrList@VsignalConnection@@@@QAEPAVsignalConnection@@XZ 00402ba0 f i bncs_clientmainwindowimpl.obj
 0001:00001bb0       ?takeNode@?$QPtrList@VsignalConnection@@@@QAEPAVsignalConnection@@PAVQLNode@@@Z 00402bb0 f i bncs_clientmainwindowimpl.obj
 0001:00001bc0       ?timerEvent@bncs_clientMainWindowImpl@@UAEXPAVQTimerEvent@@@Z 00402bc0 f   bncs_clientmainwindowimpl.obj
 0001:00002560       ?toFirst@?$QPtrListIterator@VsignalConnection@@@@QAEPAVsignalConnection@@XZ 00403560 f i bncs_clientmainwindowimpl.obj
 0001:00002570       ?toLast@?$QPtrListIterator@VsignalConnection@@@@QAEPAVsignalConnection@@XZ 00403570 f i bncs_clientmainwindowimpl.obj
 0001:00002580       ?toVector@?$QPtrList@VsignalConnection@@@@QBEXPAVQGVector@@@Z 00403580 f i bncs_clientmainwindowimpl.obj
 0001:00002590       ??$?HDU?$char_traits@D@std@@V?$allocator@D@1@@std@@YA?AV?$basic_string@DU?$char_traits@D@std@@V?$allocator@D@2@@0@$$QAV10@ABV10@@Z 00403590 f i ccConfig.obj
 0001:00002610       ??$?HDU?$char_traits@D@std@@V?$allocator@D@1@@std@@YA?AV?$basic_string@DU?$char_traits@D@std@@V?$allocator@D@2@@0@$$QAV10@PBD@Z 00403610 f i ccConfig.obj
 0001:000026b0       ??$?HDU?$char_traits@D@std@@V?$allocator@D@1@@std@@YA?AV?$basic_string@DU?$char_traits@D@std@@V?$allocator@D@2@@0@ABV10@PBD@Z 004036b0 f i ccConfig.obj
 0001:000027a0       ?append@?$basic_string@DU?$char_traits@D@std@@V?$allocator@D@2@@std@@QAEAAV12@ABV12@II@Z 004037a0 f i ccConfig.obj
 0001:00002860       ?append@?$basic_string@DU?$char_traits@D@std@@V?$allocator@D@2@@std@@QAEAAV12@PBDI@Z 00403860 f i ccConfig.obj
 0001:00002950       ?compare@?$char_traits@D@std@@SAHPBD0I@Z 00403950 f i ccConfig.obj
 0001:000029c0       ?getDevPath@ccConfig@@SA?AV?$basic_string@DU?$char_traits@D@std@@V?$allocator@D@2@@std@@XZ 004039c0 f   ccConfig.obj
 0001:00002bd0       ?getInt@ccConfig@@SAHABV?$basic_string@DU?$char_traits@D@std@@V?$allocator@D@2@@std@@00H_N@Z 00403bd0 f   ccConfig.obj
 0001:00002d20       ?getString@ccConfig@@SA?AV?$basic_string@DU?$char_traits@D@std@@V?$allocator@D@2@@std@@ABV23@000_N@Z 00403d20 f   ccConfig.obj
 0001:00002f90       ?isV3Based@ccConfig@@SA_NXZ 00403f90 f   ccConfig.obj
 0001:00003040       ?workstation@ccConfig@@SAHXZ 00404040 f   ccConfig.obj
 0001:000033a0       _main                      004043a0 f   main.obj
 0001:00003ca0       ??0bncs_clientMainWindow@@QAE@PAVQWidget@@PBDI@Z 00404ca0 f   bncs_clientmainwindow.obj
 0001:00003d60       ??1bncs_clientMainWindow@@UAE@XZ 00404d60 f   bncs_clientmainwindow.obj
 0001:00003d73       ??_Ebncs_clientMainWindow@@WCI@AEPAXI@Z 00404d73 f i bncs_clientmainwindow.obj
 0001:00003d80       ??_Gbncs_clientMainWindow@@UAEPAXI@Z 00404d80 f i bncs_clientmainwindow.obj
 0001:00003d80       ??_Ebncs_clientMainWindow@@UAEPAXI@Z 00404d80 f i bncs_clientmainwindow.obj
 0001:00003db0       ?languageChange@bncs_clientMainWindow@@MAEXXZ 00404db0 f   bncs_clientmainwindow.obj
 0001:00003db0       ?cccDisconnected@IccClientCallback@@MAEXXZ 00404db0 f   bncs_clientmainwindowimpl.obj
 0001:00003db0       ?cccConnected@IccClientCallback@@MAEXXZ 00404db0 f   bncs_clientmainwindowimpl.obj
 0001:00003dc0       ?metaObject@bncs_clientMainWindow@@UBEPAVQMetaObject@@XZ 00404dc0 f i bncs_clientmainwindow.obj
 0001:00003dd0       ?className@bncs_clientMainWindow@@UBEPBDXZ 00404dd0 f   moc_bncs_clientmainwindow.obj
 0001:00003de0       ?qt_cast@bncs_clientMainWindow@@UAEPAXPBD@Z 00404de0 f   moc_bncs_clientmainwindow.obj
 0001:00003e40       ?qt_emit@bncs_clientMainWindow@@UAE_NHPAUQUObject@@@Z 00404e40 f   moc_bncs_clientmainwindow.obj
 0001:00003e50       ?qt_invoke@bncs_clientMainWindow@@UAE_NHPAUQUObject@@@Z 00404e50 f   moc_bncs_clientmainwindow.obj
 0001:00003ee0       ?qt_property@bncs_clientMainWindow@@UAE_NHHPAVQVariant@@@Z 00404ee0 f   moc_bncs_clientmainwindow.obj
 0001:00003ef0       ?staticMetaObject@bncs_clientMainWindow@@SAPAVQMetaObject@@XZ 00404ef0 f   moc_bncs_clientmainwindow.obj
 0001:00003f40       ?className@bncs_clientMainWindowImpl@@UBEPBDXZ 00404f40 f   moc_bncs_clientmainwindowimpl.obj
 0001:00003f50       ?qt_cast@bncs_clientMainWindowImpl@@UAEPAXPBD@Z 00404f50 f   moc_bncs_clientmainwindowimpl.obj
 0001:00004000       ?qt_emit@bncs_clientMainWindowImpl@@UAE_NHPAUQUObject@@@Z 00405000 f   moc_bncs_clientmainwindowimpl.obj
 0001:00004010       ?qt_invoke@bncs_clientMainWindowImpl@@UAE_NHPAUQUObject@@@Z 00405010 f   moc_bncs_clientmainwindowimpl.obj
 0001:00004080       ?qt_property@bncs_clientMainWindowImpl@@UAE_NHHPAVQVariant@@@Z 00405080 f   moc_bncs_clientmainwindowimpl.obj
 0001:00004090       ?staticMetaObject@bncs_clientMainWindowImpl@@SAPAVQMetaObject@@XZ 00405090 f   moc_bncs_clientmainwindowimpl.obj
 0001:00004170       ??0QtSingleApplication@@QAE@ABVQString@@AAHPAPADW4Type@QApplication@@@Z 00405170 f   qtsingleapplication:qtsingleapplication.obj
 0001:00004210       ??1QtSingleApplication@@UAE@XZ 00405210 f   qtsingleapplication:qtsingleapplication.obj
 0001:00004290       ??_GQtSingleApplication@@UAEPAXI@Z 00405290 f i qtsingleapplication:qtsingleapplication.obj
 0001:00004290       ??_EQtSingleApplication@@UAEPAXI@Z 00405290 f i qtsingleapplication:qtsingleapplication.obj
 0001:000042c0       ?activateMainWidget@QtSingleApplication@@UAEXXZ 004052c0 f   qtsingleapplication:qtsingleapplication.obj
 0001:000042f0       ?id@QtSingleApplication@@QBE?AVQString@@XZ 004052f0 f   qtsingleapplication:qtsingleapplication.obj
 0001:00004310       ?metaObject@QtSingleApplication@@UBEPAVQMetaObject@@XZ 00405310 f i qtsingleapplication:qtsingleapplication.obj
 0001:00004315       ??_EQWidget@@WCI@AEPAXI@Z  00405315 f i qtsingleapplication:qtsingleapplication_win.obj
 0001:00004320       ??_GQWidget@@UAEPAXI@Z     00405320 f i qtsingleapplication:qtsingleapplication_win.obj
 0001:00004320       ??_EQWidget@@UAEPAXI@Z     00405320 f i qtsingleapplication:qtsingleapplication_win.obj
 0001:00004350       ?initialize@QtSingleApplication@@QAEX_N@Z 00405350 f   qtsingleapplication:qtsingleapplication_win.obj
 0001:00004440       ?sendMessage@QtSingleApplication@@QAE_NABVQString@@H@Z 00405440 f   qtsingleapplication:qtsingleapplication_win.obj
 0001:00004520       ?sysCleanup@QtSingleApplication@@AAEXXZ 00405520 f   qtsingleapplication:qtsingleapplication_win.obj
 0001:00004530       ?sysInit@QtSingleApplication@@AAEXXZ 00405530 f   qtsingleapplication:qtsingleapplication_win.obj
 0001:00004550       ?winEventFilter@QtSingleApplication@@MAE_NPAUtagMSG@@@Z 00405550 f   qtsingleapplication:qtsingleapplication_win.obj
 0001:000045f0       ?className@QtSingleApplication@@UBEPBDXZ 004055f0 f   qtsingleapplication:moc_qtsingleapplication.obj
 0001:00004600       ?messageReceived@QtSingleApplication@@IAEXABVQString@@@Z 00405600 f   qtsingleapplication:moc_qtsingleapplication.obj
 0001:00004670       ?qt_cast@QtSingleApplication@@UAEPAXPBD@Z 00405670 f   qtsingleapplication:moc_qtsingleapplication.obj
 0001:000046d0       ?qt_emit@QtSingleApplication@@UAE_NHPAUQUObject@@@Z 004056d0 f   qtsingleapplication:moc_qtsingleapplication.obj
 0001:00004710       ?qt_invoke@QtSingleApplication@@UAE_NHPAUQUObject@@@Z 00405710 f   qtsingleapplication:moc_qtsingleapplication.obj
 0001:00004790       ?qt_property@QtSingleApplication@@UAE_NHHPAVQVariant@@@Z 00405790 f   qtsingleapplication:moc_qtsingleapplication.obj
 0001:000047a0       ?staticMetaObject@QtSingleApplication@@SAPAVQMetaObject@@XZ 004057a0 f   qtsingleapplication:moc_qtsingleapplication.obj
 0001:00004900       ??0decodeBNCSString@@QAE@PBDD@Z 00405900 f   decodecaptionstring:decodeBNCSString.obj
 0001:00004930       ??1decodeBNCSString@@UAE@XZ 00405930 f   decodecaptionstring:decodeBNCSString.obj
 0001:00004950       ??_EdecodeBNCSString@@UAEPAXI@Z 00405950 f i decodecaptionstring:decodeBNCSString.obj
 0001:00004950       ??_GdecodeBNCSString@@UAEPAXI@Z 00405950 f i decodecaptionstring:decodeBNCSString.obj
 0001:00004990       ?split@decodeBNCSString@@AAEXPBD@Z 00405990 f i decodecaptionstring:decodeBNCSString.obj
 0001:00004bb2       ??0dCW@@QAE@XZ             00405bb2 f   dcw:dcw.dll
 0001:00004bb8       ?create@dCW@@QAEPAVQWidget@@ABVQString@@PAVQObject@@PAV2@PBD_N4NN44@Z 00405bb8 f   dcw:dcw.dll
 0001:00004bbe       ??1dCW@@UAE@XZ             00405bbe f   dcw:dcw.dll
 0001:00004bc4       ?setIcon@QWidget@@UAEXABVQPixmap@@@Z 00405bc4 f   qt-mt323:qt-mt323.dll
 0001:00004bca       ?adjustSize@QWidget@@UAEXXZ 00405bca f   qt-mt323:qt-mt323.dll
 0001:00004bd0       ?checkConnectArgs@QObject@@MAE_NPBDPBV1@0@Z 00405bd0 f   qt-mt323:qt-mt323.dll
 0001:00004bd6       ?childEvent@QObject@@MAEXPAVQChildEvent@@@Z 00405bd6 f   qt-mt323:qt-mt323.dll
 0001:00004bdc       ?close@QWidget@@UAE_N_N@Z  00405bdc f   qt-mt323:qt-mt323.dll
 0001:00004be2       ?closeEvent@QWidget@@MAEXPAVQCloseEvent@@@Z 00405be2 f   qt-mt323:qt-mt323.dll
 0001:00004be8       ?cmd@QPaintDevice@@MAE_NHPAVQPainter@@PATQPDevCmdParam@@@Z 00405be8 f   qt-mt323:qt-mt323.dll
 0001:00004bee       ?compareItems@QGList@@MAEHPAX0@Z 00405bee f   qt-mt323:qt-mt323.dll
 0001:00004bf4       ?connectNotify@QObject@@MAEXPBD@Z 00405bf4 f   qt-mt323:qt-mt323.dll
 0001:00004bfa       ?contextMenuEvent@QWidget@@MAEXPAVQContextMenuEvent@@@Z 00405bfa f   qt-mt323:qt-mt323.dll
 0001:00004c00       ?create@QWidget@@MAEXPAUHWND__@@_N1@Z 00405c00 f   qt-mt323:qt-mt323.dll
 0001:00004c06       ?customEvent@QObject@@MAEXPAVQCustomEvent@@@Z 00405c06 f   qt-mt323:qt-mt323.dll
 0001:00004c0c       ?customWhatsThis@QWidget@@UBE_NXZ 00405c0c f   qt-mt323:qt-mt323.dll
 0001:00004c12       ?destroy@QWidget@@MAEX_N0@Z 00405c12 f   qt-mt323:qt-mt323.dll
 0001:00004c18       ?disconnectNotify@QObject@@MAEXPBD@Z 00405c18 f   qt-mt323:qt-mt323.dll
 0001:00004c1e       ?dragEnterEvent@QWidget@@MAEXPAVQDragEnterEvent@@@Z 00405c1e f   qt-mt323:qt-mt323.dll
 0001:00004c24       ?dragLeaveEvent@QWidget@@MAEXPAVQDragLeaveEvent@@@Z 00405c24 f   qt-mt323:qt-mt323.dll
 0001:00004c2a       ?dragMoveEvent@QWidget@@MAEXPAVQDragMoveEvent@@@Z 00405c2a f   qt-mt323:qt-mt323.dll
 0001:00004c30       ?dropEvent@QWidget@@MAEXPAVQDropEvent@@@Z 00405c30 f   qt-mt323:qt-mt323.dll
 0001:00004c36       ?enabledChange@QWidget@@MAEX_N@Z 00405c36 f   qt-mt323:qt-mt323.dll
 0001:00004c3c       ?enterEvent@QWidget@@MAEXPAVQEvent@@@Z 00405c3c f   qt-mt323:qt-mt323.dll
 0001:00004c42       ?event@QWidget@@MAE_NPAVQEvent@@@Z 00405c42 f   qt-mt323:qt-mt323.dll
 0001:00004c48       ?eventFilter@QObject@@UAE_NPAV1@PAVQEvent@@@Z 00405c48 f   qt-mt323:qt-mt323.dll
 0001:00004c4e       ?focusInEvent@QWidget@@MAEXPAVQFocusEvent@@@Z 00405c4e f   qt-mt323:qt-mt323.dll
 0001:00004c54       ?focusNextPrevChild@QWidget@@MAE_N_N@Z 00405c54 f   qt-mt323:qt-mt323.dll
 0001:00004c5a       ?focusOutEvent@QWidget@@MAEXPAVQFocusEvent@@@Z 00405c5a f   qt-mt323:qt-mt323.dll
 0001:00004c60       ?fontChange@QWidget@@MAEXABVQFont@@@Z 00405c60 f   qt-mt323:qt-mt323.dll
 0001:00004c66       ?fontInf@QPaintDevice@@MBEHPAVQFont@@H@Z 00405c66 f   qt-mt323:qt-mt323.dll
 0001:00004c6c       ?fontMet@QPaintDevice@@MBEHPAVQFont@@HPBDH@Z 00405c6c f   qt-mt323:qt-mt323.dll
 0001:00004c72       ?handle@QPaintDevice@@UBEPAUHDC__@@XZ 00405c72 f   qt-mt323:qt-mt323.dll
 0001:00004c78       ?heightForWidth@QWidget@@UBEHH@Z 00405c78 f   qt-mt323:qt-mt323.dll
 0001:00004c7e       ?hide@QWidget@@UAEXXZ      00405c7e f   qt-mt323:qt-mt323.dll
 0001:00004c84       ?hideEvent@QWidget@@MAEXPAVQHideEvent@@@Z 00405c84 f   qt-mt323:qt-mt323.dll
 0001:00004c8a       ?imComposeEvent@QWidget@@MAEXPAVQIMEvent@@@Z 00405c8a f   qt-mt323:qt-mt323.dll
 0001:00004c90       ?imEndEvent@QWidget@@MAEXPAVQIMEvent@@@Z 00405c90 f   qt-mt323:qt-mt323.dll
 0001:00004c96       ?imStartEvent@QWidget@@MAEXPAVQIMEvent@@@Z 00405c96 f   qt-mt323:qt-mt323.dll
 0001:00004c9c       ?insertChild@QObject@@UAEXPAV1@@Z 00405c9c f   qt-mt323:qt-mt323.dll
 0001:00004ca2       ?keyPressEvent@QWidget@@MAEXPAVQKeyEvent@@@Z 00405ca2 f   qt-mt323:qt-mt323.dll
 0001:00004ca8       ?keyReleaseEvent@QWidget@@MAEXPAVQKeyEvent@@@Z 00405ca8 f   qt-mt323:qt-mt323.dll
 0001:00004cae       ?leaveEvent@QWidget@@MAEXPAVQEvent@@@Z 00405cae f   qt-mt323:qt-mt323.dll
 0001:00004cb4       ?metric@QWidget@@MBEHH@Z   00405cb4 f   qt-mt323:qt-mt323.dll
 0001:00004cba       ?minimumSizeHint@QWidget@@UBE?AVQSize@@XZ 00405cba f   qt-mt323:qt-mt323.dll
 0001:00004cc0       ?mouseDoubleClickEvent@QWidget@@MAEXPAVQMouseEvent@@@Z 00405cc0 f   qt-mt323:qt-mt323.dll
 0001:00004cc6       ?mouseMoveEvent@QWidget@@MAEXPAVQMouseEvent@@@Z 00405cc6 f   qt-mt323:qt-mt323.dll
 0001:00004ccc       ?mousePressEvent@QWidget@@MAEXPAVQMouseEvent@@@Z 00405ccc f   qt-mt323:qt-mt323.dll
 0001:00004cd2       ?mouseReleaseEvent@QWidget@@MAEXPAVQMouseEvent@@@Z 00405cd2 f   qt-mt323:qt-mt323.dll
 0001:00004cd8       ?move@QWidget@@UAEXHH@Z    00405cd8 f   qt-mt323:qt-mt323.dll
 0001:00004cde       ?moveEvent@QWidget@@MAEXPAVQMoveEvent@@@Z 00405cde f   qt-mt323:qt-mt323.dll
 0001:00004ce4       ?newItem@QPtrCollection@@MAEPAXPAX@Z 00405ce4 f   qt-mt323:qt-mt323.dll
 0001:00004cea       ?paintEvent@QWidget@@MAEXPAVQPaintEvent@@@Z 00405cea f   qt-mt323:qt-mt323.dll
 0001:00004cf0       ?paletteChange@QWidget@@MAEXABVQPalette@@@Z 00405cf0 f   qt-mt323:qt-mt323.dll
 0001:00004cf6       ?polish@QWidget@@UAEXXZ    00405cf6 f   qt-mt323:qt-mt323.dll
 0001:00004cfc       ?property@QObject@@UBE?AVQVariant@@PBD@Z 00405cfc f   qt-mt323:qt-mt323.dll
 0001:00004d02       ?read@QGList@@MAEAAVQDataStream@@AAV2@AAPAX@Z 00405d02 f   qt-mt323:qt-mt323.dll
 0001:00004d08       ?removeChild@QObject@@UAEXPAV1@@Z 00405d08 f   qt-mt323:qt-mt323.dll
 0001:00004d0e       ?reparent@QWidget@@UAEXPAV1@IABVQPoint@@_N@Z 00405d0e f   qt-mt323:qt-mt323.dll
 0001:00004d14       ?resize@QWidget@@UAEXHH@Z  00405d14 f   qt-mt323:qt-mt323.dll
 0001:00004d1a       ?resizeEvent@QWidget@@MAEXPAVQResizeEvent@@@Z 00405d1a f   qt-mt323:qt-mt323.dll
 0001:00004d20       ?resolution@QPaintDevice@@UBEHXZ 00405d20 f   qt-mt323:qt-mt323.dll
 0001:00004d26       ?setAcceptDrops@QWidget@@UAEX_N@Z 00405d26 f   qt-mt323:qt-mt323.dll
 0001:00004d2c       ?setActiveWindow@QWidget@@UAEXXZ 00405d2c f   qt-mt323:qt-mt323.dll
 0001:00004d32       ?setAutoMask@QWidget@@UAEX_N@Z 00405d32 f   qt-mt323:qt-mt323.dll
 0001:00004d38       ?setBackgroundColor@QWidget@@UAEXABVQColor@@@Z 00405d38 f   qt-mt323:qt-mt323.dll
 0001:00004d3e       ?setBackgroundMode@QWidget@@UAEXW4BackgroundMode@Qt@@@Z 00405d3e f   qt-mt323:qt-mt323.dll
 0001:00004d44       ?setBackgroundOrigin@QWidget@@UAEXW4BackgroundOrigin@1@@Z 00405d44 f   qt-mt323:qt-mt323.dll
 0001:00004d4a       ?setBackgroundPixmap@QWidget@@UAEXABVQPixmap@@@Z 00405d4a f   qt-mt323:qt-mt323.dll
 0001:00004d50       ?setCaption@QWidget@@UAEXABVQString@@@Z 00405d50 f   qt-mt323:qt-mt323.dll
 0001:00004d56       ?setCursor@QWidget@@UAEXABVQCursor@@@Z 00405d56 f   qt-mt323:qt-mt323.dll
 0001:00004d5c       ?setEnabled@QWidget@@UAEX_N@Z 00405d5c f   qt-mt323:qt-mt323.dll
 0001:00004d62       ?setEraseColor@QWidget@@UAEXABVQColor@@@Z 00405d62 f   qt-mt323:qt-mt323.dll
 0001:00004d68       ?setErasePixmap@QWidget@@UAEXABVQPixmap@@@Z 00405d68 f   qt-mt323:qt-mt323.dll
 0001:00004d6e       ?setFocus@QWidget@@UAEXXZ  00405d6e f   qt-mt323:qt-mt323.dll
 0001:00004d74       ?setFocusPolicy@QWidget@@UAEXW4FocusPolicy@1@@Z 00405d74 f   qt-mt323:qt-mt323.dll
 0001:00004d7a       ?setFocusProxy@QWidget@@UAEXPAV1@@Z 00405d7a f   qt-mt323:qt-mt323.dll
 0001:00004d80       ?setFont@QWidget@@UAEXABVQFont@@@Z 00405d80 f   qt-mt323:qt-mt323.dll
 0001:00004d86       ?setGeometry@QWidget@@UAEXABVQRect@@@Z 00405d86 f   qt-mt323:qt-mt323.dll
 0001:00004d8c       ?setGeometry@QWidget@@UAEXHHHH@Z 00405d8c f   qt-mt323:qt-mt323.dll
 0001:00004d92       ?setIconText@QWidget@@UAEXABVQString@@@Z 00405d92 f   qt-mt323:qt-mt323.dll
 0001:00004d98       ?setKeyCompression@QWidget@@MAEX_N@Z 00405d98 f   qt-mt323:qt-mt323.dll
 0001:00004d9e       ?setMask@QWidget@@UAEXABVQBitmap@@@Z 00405d9e f   qt-mt323:qt-mt323.dll
 0001:00004da4       ?setMask@QWidget@@UAEXABVQRegion@@@Z 00405da4 f   qt-mt323:qt-mt323.dll
 0001:00004daa       ?setMaximumSize@QWidget@@UAEXHH@Z 00405daa f   qt-mt323:qt-mt323.dll
 0001:00004db0       ?setMicroFocusHint@QWidget@@MAEXHHHH_NPAVQFont@@@Z 00405db0 f   qt-mt323:qt-mt323.dll
 0001:00004db6       ?setMinimumSize@QWidget@@UAEXHH@Z 00405db6 f   qt-mt323:qt-mt323.dll
 0001:00004dbc       ?setMouseTracking@QWidget@@UAEX_N@Z 00405dbc f   qt-mt323:qt-mt323.dll
 0001:00004dc2       ?setName@QWidget@@UAEXPBD@Z 00405dc2 f   qt-mt323:qt-mt323.dll
 0001:00004dc8       ?setPalette@QWidget@@UAEXABVQPalette@@@Z 00405dc8 f   qt-mt323:qt-mt323.dll
 0001:00004dce       ?setPaletteBackgroundColor@QWidget@@UAEXABVQColor@@@Z 00405dce f   qt-mt323:qt-mt323.dll
 0001:00004dd4       ?setPaletteBackgroundPixmap@QWidget@@UAEXABVQPixmap@@@Z 00405dd4 f   qt-mt323:qt-mt323.dll
 0001:00004dda       ?setProperty@QObject@@UAE_NPBDABVQVariant@@@Z 00405dda f   qt-mt323:qt-mt323.dll
 0001:00004de0       ?setResolution@QPaintDevice@@UAEXH@Z 00405de0 f   qt-mt323:qt-mt323.dll
 0001:00004de6       ?setSizeIncrement@QWidget@@UAEXHH@Z 00405de6 f   qt-mt323:qt-mt323.dll
 0001:00004dec       ?setSizePolicy@QWidget@@UAEXVQSizePolicy@@@Z 00405dec f   qt-mt323:qt-mt323.dll
 0001:00004df2       ?setUpdatesEnabled@QWidget@@UAEX_N@Z 00405df2 f   qt-mt323:qt-mt323.dll
 0001:00004df8       ?setWFlags@QWidget@@MAEXI@Z 00405df8 f   qt-mt323:qt-mt323.dll
 0001:00004dfe       ?setWState@QWidget@@MAEXI@Z 00405dfe f   qt-mt323:qt-mt323.dll
 0001:00004e04       ?show@QWidget@@UAEXXZ      00405e04 f   qt-mt323:qt-mt323.dll
 0001:00004e0a       ?showEvent@QWidget@@MAEXPAVQShowEvent@@@Z 00405e0a f   qt-mt323:qt-mt323.dll
 0001:00004e10       ?showMaximized@QWidget@@UAEXXZ 00405e10 f   qt-mt323:qt-mt323.dll
 0001:00004e16       ?showMinimized@QWidget@@UAEXXZ 00405e16 f   qt-mt323:qt-mt323.dll
 0001:00004e1c       ?showNormal@QWidget@@UAEXXZ 00405e1c f   qt-mt323:qt-mt323.dll
 0001:00004e22       ?sizeHint@QWidget@@UBE?AVQSize@@XZ 00405e22 f   qt-mt323:qt-mt323.dll
 0001:00004e28       ?sizePolicy@QWidget@@UBE?AVQSizePolicy@@XZ 00405e28 f   qt-mt323:qt-mt323.dll
 0001:00004e2e       ?styleChange@QWidget@@MAEXAAVQStyle@@@Z 00405e2e f   qt-mt323:qt-mt323.dll
 0001:00004e34       ?tabletEvent@QWidget@@MAEXPAVQTabletEvent@@@Z 00405e34 f   qt-mt323:qt-mt323.dll
 0001:00004e3a       ?unsetCursor@QWidget@@UAEXXZ 00405e3a f   qt-mt323:qt-mt323.dll
 0001:00004e40       ?updateMask@QWidget@@MAEXXZ 00405e40 f   qt-mt323:qt-mt323.dll
 0001:00004e46       ?wheelEvent@QWidget@@MAEXPAVQWheelEvent@@@Z 00405e46 f   qt-mt323:qt-mt323.dll
 0001:00004e4c       ?winEvent@QWidget@@MAE_NPAUtagMSG@@@Z 00405e4c f   qt-mt323:qt-mt323.dll
 0001:00004e52       ?windowActivationChange@QWidget@@MAEX_N@Z 00405e52 f   qt-mt323:qt-mt323.dll
 0001:00004e58       ?write@QGList@@MBEAAVQDataStream@@AAV2@PAX@Z 00405e58 f   qt-mt323:qt-mt323.dll
 0001:00004e5e       ?setMainWidget@QApplication@@UAEXPAVQWidget@@@Z 00405e5e f   qt-mt323:qt-mt323.dll
 0001:00004e64       ?timerEvent@QObject@@MAEXPAVQTimerEvent@@@Z 00405e64 f   qt-mt323:qt-mt323.dll
 0001:00004e6a       ?qt_cast@QWidget@@UAEPAXPBD@Z 00405e6a f   qt-mt323:qt-mt323.dll
 0001:00004e70       ?qt_invoke@QWidget@@UAE_NHPAUQUObject@@@Z 00405e70 f   qt-mt323:qt-mt323.dll
 0001:00004e76       ?qt_emit@QWidget@@UAE_NHPAUQUObject@@@Z 00405e76 f   qt-mt323:qt-mt323.dll
 0001:00004e7c       ?qt_property@QWidget@@UAE_NHHPAVQVariant@@@Z 00405e7c f   qt-mt323:qt-mt323.dll
 0001:00004e82       ?commitData@QApplication@@UAEXAAVQSessionManager@@@Z 00405e82 f   qt-mt323:qt-mt323.dll
 0001:00004e88       ?event@QApplication@@MAE_NPAVQEvent@@@Z 00405e88 f   qt-mt323:qt-mt323.dll
 0001:00004e8e       ?notify@QApplication@@UAE_NPAVQObject@@PAVQEvent@@@Z 00405e8e f   qt-mt323:qt-mt323.dll
 0001:00004e94       ?polish@QApplication@@UAEXPAVQWidget@@@Z 00405e94 f   qt-mt323:qt-mt323.dll
 0001:00004e9a       ?saveState@QApplication@@UAEXAAVQSessionManager@@@Z 00405e9a f   qt-mt323:qt-mt323.dll
 0001:00004ea0       ?setName@QObject@@UAEXPBD@Z 00405ea0 f   qt-mt323:qt-mt323.dll
 0001:00004ea6       ?className@QWidget@@UBEPBDXZ 00405ea6 f   qt-mt323:qt-mt323.dll
 0001:00004eac       ?metaObject@QWidget@@UBEPAVQMetaObject@@XZ 00405eac f   qt-mt323:qt-mt323.dll
 0001:00004eb2       ??_M@YGXPAXIHP6EX0@Z@Z     00405eb2 f   MSVCRT:ehvecdtr.obj
 0001:00004f21       ?__ArrayUnwind@@YGXPAXIHP6EX0@Z@Z 00405f21 f   MSVCRT:ehvecdtr.obj
 0001:00004f80       __purecall                 00405f80 f   MSVCRT:MSVCR120.dll
 0001:00004f86       ??2@YAPAXI@Z               00405f86 f   MSVCRT:MSVCR120.dll
 0001:00004f8c       ??3@YAXPAX@Z               00405f8c f   MSVCRT:MSVCR120.dll
 0001:00004f92       ___atonexitinit            00405f92 f   MSVCRT:atonexit.obj
 0001:00004fce       __onexit                   00405fce f   MSVCRT:atonexit.obj
 0001:00005077       _atexit                    00406077 f   MSVCRT:atonexit.obj
 0001:0000508c       ??_V@YAXPAX@Z              0040608c f   MSVCRT:MSVCR120.dll
 0001:00005092       @__security_check_cookie@4 00406092 f   MSVCRT:secchk.obj
 0001:000050a2       __CxxThrowException@8      004060a2 f   MSVCRT:MSVCR120.dll
 0001:000050a8       ___CxxFrameHandler3        004060a8 f   MSVCRT:MSVCR120.dll
 0001:000050ae       _memcpy                    004060ae f   MSVCRT:MSVCR120.dll
 0001:000050b4       ??_Etype_info@@UAEPAXI@Z   004060b4 f i MSVCRT:ti_inst.obj
 0001:00005204       _WinMainCRTStartup         00406204 f   MSVCRT:crtexew.obj
 0001:000053c2       ?terminate@@YAXXZ          004063c2 f   MSVCRT:MSVCR120.dll
 0001:000053d0       __SEH_prolog4              004063d0 f   MSVCRT:sehprolg4.obj
 0001:00005415       __SEH_epilog4              00406415 f   MSVCRT:sehprolg4.obj
 0001:00005429       __except_handler4          00406429 f   MSVCRT:chandler4gs.obj
 0001:0000544c       __lock                     0040644c f   MSVCRT:MSVCR120.dll
 0001:00005452       __unlock                   00406452 f   MSVCRT:MSVCR120.dll
 0001:00005458       ___dllonexit               00406458 f   MSVCRT:MSVCR120.dll
 0001:0000545e       ___raise_securityfailure   0040645e f   MSVCRT:gs_report.obj
 0001:0000549b       ___report_gsfailure        0040649b f   MSVCRT:gs_report.obj
 0001:00005596       ??1type_info@@UAE@XZ       00406596 f   MSVCRT:MSVCR120.dll
 0001:0000559c       ?__CxxUnhandledExceptionFilter@@YGJPAU_EXCEPTION_POINTERS@@@Z 0040659c f   MSVCRT:unhandld.obj
 0001:000055dd       ___CxxSetUnhandledExceptionFilter 004065dd f   MSVCRT:unhandld.obj
 0001:000055ec       __XcptFilter               004065ec f   MSVCRT:MSVCR120.dll
 0001:000055f2       __amsg_exit                004065f2 f   MSVCRT:MSVCR120.dll
 0001:00005600       __FindPESection            00406600 f   MSVCRT:pesect.obj
 0001:00005650       __IsNonwritableInCurrentImage 00406650 f   MSVCRT:pesect.obj
 0001:00005710       __ValidateImageBase        00406710 f   MSVCRT:pesect.obj
 0001:00005741       ___security_init_cookie    00406741 f   MSVCRT:gs_support.obj
 0001:000057dd       __setargv                  004067dd f   MSVCRT:dllargv.obj
 0001:000057dd       __matherr                  004067dd f   MSVCRT:merr.obj
 0001:000057e0       __RTC_Initialize           004067e0 f   MSVCRT:initsect.obj
 0001:00005800       __RTC_Terminate            00406800 f   MSVCRT:initsect.obj
 0001:00005820       __setdefaultprecision      00406820 f   MSVCRT:fp8.obj
 0001:00005848       __initterm_e               00406848 f   MSVCRT:MSVCR120.dll
 0001:0000584e       __initterm                 0040684e f   MSVCRT:MSVCR120.dll
 0001:00005854       __except_handler4_common   00406854 f   MSVCRT:MSVCR120.dll
 0001:0000585a       __crt_debugger_hook        0040685a f   MSVCRT:MSVCR120.dll
 0001:00005860       ___crtUnhandledException   00406860 f   MSVCRT:MSVCR120.dll
 0001:00005866       ___crtTerminateProcess     00406866 f   MSVCRT:MSVCR120.dll
 0001:0000586c       ___crtSetUnhandledExceptionFilter 0040686c f   MSVCRT:MSVCR120.dll
 0001:00005872       __invoke_watson            00406872 f   MSVCRT:MSVCR120.dll
 0001:00005878       __controlfp_s              00406878 f   MSVCRT:MSVCR120.dll
 0001:0000587e       _IsProcessorFeaturePresent@4 0040687e f   kernel32:KERNEL32.dll
 0001:00005884       _strcpy                    00406884 f   MSVCRT:MSVCR120.dll
 0001:0000588a       _strlen                    0040688a f   MSVCRT:MSVCR120.dll
 0001:00005890       ?deleteData@QGArray@@MAEXPAUarray_data@1@@Z 00406890 f   qt-mt323:qt-mt323.dll
 0001:00005896       ?newData@QGArray@@MAEPAUarray_data@1@XZ 00406896 f   qt-mt323:qt-mt323.dll
 0001:0000589c       ?qWinMain@@YAXPAUHINSTANCE__@@0PADHAAHAAV?$QMemArray@PAD@@@Z 0040689c f   qt-mt323:qt-mt323.dll
 0002:00000000       __imp__GetPrivateProfileIntA@16 00408000     kernel32:KERNEL32.dll
 0002:00000004       __imp__GetPrivateProfileStringA@24 00408004     kernel32:KERNEL32.dll
 0002:00000008       __imp__WritePrivateProfileStringA@16 00408008     kernel32:KERNEL32.dll
 0002:0000000c       __imp__GetSystemTimeAsFileTime@4 0040800c     kernel32:KERNEL32.dll
 0002:00000010       __imp__GetCurrentThreadId@0 00408010     kernel32:KERNEL32.dll
 0002:00000014       __imp__GetCurrentProcessId@0 00408014     kernel32:KERNEL32.dll
 0002:00000018       __imp__QueryPerformanceCounter@4 00408018     kernel32:KERNEL32.dll
 0002:0000001c       __imp__IsProcessorFeaturePresent@4 0040801c     kernel32:KERNEL32.dll
 0002:00000020       __imp__IsDebuggerPresent@0 00408020     kernel32:KERNEL32.dll
 0002:00000024       __imp__DecodePointer@4     00408024     kernel32:KERNEL32.dll
 0002:00000028       __imp__EncodePointer@4     00408028     kernel32:KERNEL32.dll
 0002:0000002c       \177KERNEL32_NULL_THUNK_DATA 0040802c     kernel32:KERNEL32.dll
 0002:00000030       __imp_?_Xbad_alloc@std@@YAXXZ 00408030     msvcprt:MSVCP120.dll
 0002:00000034       __imp_?_Xout_of_range@std@@YAXPBD@Z 00408034     msvcprt:MSVCP120.dll
 0002:00000038       __imp_?_Syserror_map@std@@YAPBDH@Z 00408038     msvcprt:MSVCP120.dll
 0002:0000003c       __imp_?_Winerror_map@std@@YAPBDH@Z 0040803c     msvcprt:MSVCP120.dll
 0002:00000040       __imp_?_Xlength_error@std@@YAXPBD@Z 00408040     msvcprt:MSVCP120.dll
 0002:00000044       \177MSVCP120_NULL_THUNK_DATA 00408044     msvcprt:MSVCP120.dll
 0002:00000048       __imp___except_handler4_common 00408048     MSVCRT:MSVCR120.dll
 0002:0000004c       __imp___commode            0040804c     MSVCRT:MSVCR120.dll
 0002:00000050       __imp___fmode              00408050     MSVCRT:MSVCR120.dll
 0002:00000054       __imp___acmdln             00408054     MSVCRT:MSVCR120.dll
 0002:00000058       __imp___initterm           00408058     MSVCRT:MSVCR120.dll
 0002:0000005c       __imp___initterm_e         0040805c     MSVCRT:MSVCR120.dll
 0002:00000060       __imp____setusermatherr    00408060     MSVCRT:MSVCR120.dll
 0002:00000064       __imp___configthreadlocale 00408064     MSVCRT:MSVCR120.dll
 0002:00000068       __imp___ismbblead          00408068     MSVCRT:MSVCR120.dll
 0002:0000006c       __imp___cexit              0040806c     MSVCRT:MSVCR120.dll
 0002:00000070       __imp___exit               00408070     MSVCRT:MSVCR120.dll
 0002:00000074       __imp__exit                00408074     MSVCRT:MSVCR120.dll
 0002:00000078       __imp____set_app_type      00408078     MSVCRT:MSVCR120.dll
 0002:0000007c       __imp____getmainargs       0040807c     MSVCRT:MSVCR120.dll
 0002:00000080       __imp___amsg_exit          00408080     MSVCRT:MSVCR120.dll
 0002:00000084       __imp____crtGetShowWindowMode 00408084     MSVCRT:MSVCR120.dll
 0002:00000088       __imp___XcptFilter         00408088     MSVCRT:MSVCR120.dll
 0002:0000008c       __imp_??1type_info@@UAE@XZ 0040808c     MSVCRT:MSVCR120.dll
 0002:00000090       __imp___onexit             00408090     MSVCRT:MSVCR120.dll
 0002:00000094       __imp____dllonexit         00408094     MSVCRT:MSVCR120.dll
 0002:00000098       __imp___controlfp_s        00408098     MSVCRT:MSVCR120.dll
 0002:0000009c       __imp___unlock             0040809c     MSVCRT:MSVCR120.dll
 0002:000000a0       __imp___lock               004080a0     MSVCRT:MSVCR120.dll
 0002:000000a4       __imp_?terminate@@YAXXZ    004080a4     MSVCRT:MSVCR120.dll
 0002:000000a8       __imp__strncpy             004080a8     MSVCRT:MSVCR120.dll
 0002:000000ac       __imp__sprintf             004080ac     MSVCRT:MSVCR120.dll
 0002:000000b0       __imp__memcpy              004080b0     MSVCRT:MSVCR120.dll
 0002:000000b4       __imp____CxxFrameHandler3  004080b4     MSVCRT:MSVCR120.dll
 0002:000000b8       __imp___CxxThrowException@8 004080b8     MSVCRT:MSVCR120.dll
 0002:000000bc       __imp_??_V@YAXPAX@Z        004080bc     MSVCRT:MSVCR120.dll
 0002:000000c0       __imp__getenv              004080c0     MSVCRT:MSVCR120.dll
 0002:000000c4       __imp__atoi                004080c4     MSVCRT:MSVCR120.dll
 0002:000000c8       __imp__memmove             004080c8     MSVCRT:MSVCR120.dll
 0002:000000cc       __imp_??3@YAXPAX@Z         004080cc     MSVCRT:MSVCR120.dll
 0002:000000d0       __imp_??2@YAPAXI@Z         004080d0     MSVCRT:MSVCR120.dll
 0002:000000d4       __imp___purecall           004080d4     MSVCRT:MSVCR120.dll
 0002:000000d8       __imp___crt_debugger_hook  004080d8     MSVCRT:MSVCR120.dll
 0002:000000dc       __imp____crtUnhandledException 004080dc     MSVCRT:MSVCR120.dll
 0002:000000e0       __imp____crtTerminateProcess 004080e0     MSVCRT:MSVCR120.dll
 0002:000000e4       __imp____crtSetUnhandledExceptionFilter 004080e4     MSVCRT:MSVCR120.dll
 0002:000000e8       __imp___chdir              004080e8     MSVCRT:MSVCR120.dll
 0002:000000ec       __imp___invoke_watson      004080ec     MSVCRT:MSVCR120.dll
 0002:000000f0       __imp__strcpy              004080f0     MSVCRT:MSVCR120.dll
 0002:000000f4       __imp___calloc_crt         004080f4     MSVCRT:MSVCR120.dll
 0002:000000f8       __imp__strlen              004080f8     MSVCRT:MSVCR120.dll
 0002:000000fc       \177MSVCR120_NULL_THUNK_DATA 004080fc     MSVCRT:MSVCR120.dll
 0002:00000100       __imp__GetWindowThreadProcessId@8 00408100     user32:USER32.dll
 0002:00000104       __imp__FindWindowA@8       00408104     user32:USER32.dll
 0002:00000108       __imp__MessageBoxA@16      00408108     user32:USER32.dll
 0002:0000010c       __imp__SetForegroundWindow@4 0040810c     user32:USER32.dll
 0002:00000110       __imp__GetForegroundWindow@0 00408110     user32:USER32.dll
 0002:00000114       __imp__GetSystemMetrics@4  00408114     user32:USER32.dll
 0002:00000118       __imp__IsIconic@4          00408118     user32:USER32.dll
 0002:0000011c       __imp__ShowWindow@8        0040811c     user32:USER32.dll
 0002:00000120       __imp__AttachThreadInput@12 00408120     user32:USER32.dll
 0002:00000124       __imp__SendMessageTimeoutA@28 00408124     user32:USER32.dll
 0002:00000128       __imp__SystemParametersInfoA@16 00408128     user32:USER32.dll
 0002:0000012c       \177USER32_NULL_THUNK_DATA 0040812c     user32:USER32.dll
 0002:00000130       __imp_?reg@bncs_dll_client_shim@@QAE_NPAVIccClientCallback@@HHHH@Z 00408130     bncs_shim_loader:bncs_shim_loader.dll
 0002:00000134       __imp_?csiShim@bncs_shim_loader@@SAPAVbncs_dll_client_shim@@XZ 00408134     bncs_shim_loader:bncs_shim_loader.dll
 0002:00000138       \177bncs_shim_loader_NULL_THUNK_DATA 00408138     bncs_shim_loader:bncs_shim_loader.dll
 0002:0000013c       __imp_??0dCW@@QAE@XZ       0040813c     dcw:dcw.dll
 0002:00000140       __imp_??1dCW@@UAE@XZ       00408140     dcw:dcw.dll
 0002:00000144       __imp_?create@dCW@@QAEPAVQWidget@@ABVQString@@PAVQObject@@PAV2@PBD_N4NN44@Z 00408144     dcw:dcw.dll
 0002:00000148       \177dcw_NULL_THUNK_DATA    00408148     dcw:dcw.dll
 0002:0000014c       __imp_?create@QWidget@@MAEXPAUHWND__@@_N1@Z 0040814c     qt-mt323:qt-mt323.dll
 0002:00000150       __imp_?customEvent@QObject@@MAEXPAVQCustomEvent@@@Z 00408150     qt-mt323:qt-mt323.dll
 0002:00000154       __imp_?customWhatsThis@QWidget@@UBE_NXZ 00408154     qt-mt323:qt-mt323.dll
 0002:00000158       __imp_?destroy@QWidget@@MAEX_N0@Z 00408158     qt-mt323:qt-mt323.dll
 0002:0000015c       __imp_?disconnectNotify@QObject@@MAEXPBD@Z 0040815c     qt-mt323:qt-mt323.dll
 0002:00000160       __imp_?dragEnterEvent@QWidget@@MAEXPAVQDragEnterEvent@@@Z 00408160     qt-mt323:qt-mt323.dll
 0002:00000164       __imp_?dragLeaveEvent@QWidget@@MAEXPAVQDragLeaveEvent@@@Z 00408164     qt-mt323:qt-mt323.dll
 0002:00000168       __imp_?dragMoveEvent@QWidget@@MAEXPAVQDragMoveEvent@@@Z 00408168     qt-mt323:qt-mt323.dll
 0002:0000016c       __imp_?dropEvent@QWidget@@MAEXPAVQDropEvent@@@Z 0040816c     qt-mt323:qt-mt323.dll
 0002:00000170       __imp_?enabledChange@QWidget@@MAEX_N@Z 00408170     qt-mt323:qt-mt323.dll
 0002:00000174       __imp_?enterEvent@QWidget@@MAEXPAVQEvent@@@Z 00408174     qt-mt323:qt-mt323.dll
 0002:00000178       __imp_?event@QWidget@@MAE_NPAVQEvent@@@Z 00408178     qt-mt323:qt-mt323.dll
 0002:0000017c       __imp_?eventFilter@QObject@@UAE_NPAV1@PAVQEvent@@@Z 0040817c     qt-mt323:qt-mt323.dll
 0002:00000180       __imp_?focusInEvent@QWidget@@MAEXPAVQFocusEvent@@@Z 00408180     qt-mt323:qt-mt323.dll
 0002:00000184       __imp_?focusNextPrevChild@QWidget@@MAE_N_N@Z 00408184     qt-mt323:qt-mt323.dll
 0002:00000188       __imp_?focusOutEvent@QWidget@@MAEXPAVQFocusEvent@@@Z 00408188     qt-mt323:qt-mt323.dll
 0002:0000018c       __imp_?fontChange@QWidget@@MAEXABVQFont@@@Z 0040818c     qt-mt323:qt-mt323.dll
 0002:00000190       __imp_?fontInf@QPaintDevice@@MBEHPAVQFont@@H@Z 00408190     qt-mt323:qt-mt323.dll
 0002:00000194       __imp_?fontMet@QPaintDevice@@MBEHPAVQFont@@HPBDH@Z 00408194     qt-mt323:qt-mt323.dll
 0002:00000198       __imp_?handle@QPaintDevice@@UBEPAUHDC__@@XZ 00408198     qt-mt323:qt-mt323.dll
 0002:0000019c       __imp_?heightForWidth@QWidget@@UBEHH@Z 0040819c     qt-mt323:qt-mt323.dll
 0002:000001a0       __imp_?hide@QWidget@@UAEXXZ 004081a0     qt-mt323:qt-mt323.dll
 0002:000001a4       __imp_?hideEvent@QWidget@@MAEXPAVQHideEvent@@@Z 004081a4     qt-mt323:qt-mt323.dll
 0002:000001a8       __imp_?imComposeEvent@QWidget@@MAEXPAVQIMEvent@@@Z 004081a8     qt-mt323:qt-mt323.dll
 0002:000001ac       __imp_?imEndEvent@QWidget@@MAEXPAVQIMEvent@@@Z 004081ac     qt-mt323:qt-mt323.dll
 0002:000001b0       __imp_?imStartEvent@QWidget@@MAEXPAVQIMEvent@@@Z 004081b0     qt-mt323:qt-mt323.dll
 0002:000001b4       __imp_?insertChild@QObject@@UAEXPAV1@@Z 004081b4     qt-mt323:qt-mt323.dll
 0002:000001b8       __imp_?keyPressEvent@QWidget@@MAEXPAVQKeyEvent@@@Z 004081b8     qt-mt323:qt-mt323.dll
 0002:000001bc       __imp_?keyReleaseEvent@QWidget@@MAEXPAVQKeyEvent@@@Z 004081bc     qt-mt323:qt-mt323.dll
 0002:000001c0       __imp_?leaveEvent@QWidget@@MAEXPAVQEvent@@@Z 004081c0     qt-mt323:qt-mt323.dll
 0002:000001c4       __imp_?metric@QWidget@@MBEHH@Z 004081c4     qt-mt323:qt-mt323.dll
 0002:000001c8       __imp_?minimumSizeHint@QWidget@@UBE?AVQSize@@XZ 004081c8     qt-mt323:qt-mt323.dll
 0002:000001cc       __imp_?mouseDoubleClickEvent@QWidget@@MAEXPAVQMouseEvent@@@Z 004081cc     qt-mt323:qt-mt323.dll
 0002:000001d0       __imp_?mouseMoveEvent@QWidget@@MAEXPAVQMouseEvent@@@Z 004081d0     qt-mt323:qt-mt323.dll
 0002:000001d4       __imp_?mousePressEvent@QWidget@@MAEXPAVQMouseEvent@@@Z 004081d4     qt-mt323:qt-mt323.dll
 0002:000001d8       __imp_?mouseReleaseEvent@QWidget@@MAEXPAVQMouseEvent@@@Z 004081d8     qt-mt323:qt-mt323.dll
 0002:000001dc       __imp_?move@QWidget@@UAEXHH@Z 004081dc     qt-mt323:qt-mt323.dll
 0002:000001e0       __imp_?moveEvent@QWidget@@MAEXPAVQMoveEvent@@@Z 004081e0     qt-mt323:qt-mt323.dll
 0002:000001e4       __imp_?newItem@QPtrCollection@@MAEPAXPAX@Z 004081e4     qt-mt323:qt-mt323.dll
 0002:000001e8       __imp_?paintEvent@QWidget@@MAEXPAVQPaintEvent@@@Z 004081e8     qt-mt323:qt-mt323.dll
 0002:000001ec       __imp_?paletteChange@QWidget@@MAEXABVQPalette@@@Z 004081ec     qt-mt323:qt-mt323.dll
 0002:000001f0       __imp_?polish@QWidget@@UAEXXZ 004081f0     qt-mt323:qt-mt323.dll
 0002:000001f4       __imp_?property@QObject@@UBE?AVQVariant@@PBD@Z 004081f4     qt-mt323:qt-mt323.dll
 0002:000001f8       __imp_?read@QGList@@MAEAAVQDataStream@@AAV2@AAPAX@Z 004081f8     qt-mt323:qt-mt323.dll
 0002:000001fc       __imp_?removeChild@QObject@@UAEXPAV1@@Z 004081fc     qt-mt323:qt-mt323.dll
 0002:00000200       __imp_?reparent@QWidget@@UAEXPAV1@IABVQPoint@@_N@Z 00408200     qt-mt323:qt-mt323.dll
 0002:00000204       __imp_?resize@QWidget@@UAEXHH@Z 00408204     qt-mt323:qt-mt323.dll
 0002:00000208       __imp_?resizeEvent@QWidget@@MAEXPAVQResizeEvent@@@Z 00408208     qt-mt323:qt-mt323.dll
 0002:0000020c       __imp_?resolution@QPaintDevice@@UBEHXZ 0040820c     qt-mt323:qt-mt323.dll
 0002:00000210       __imp_?setAcceptDrops@QWidget@@UAEX_N@Z 00408210     qt-mt323:qt-mt323.dll
 0002:00000214       __imp_?setActiveWindow@QWidget@@UAEXXZ 00408214     qt-mt323:qt-mt323.dll
 0002:00000218       __imp_?setAutoMask@QWidget@@UAEX_N@Z 00408218     qt-mt323:qt-mt323.dll
 0002:0000021c       __imp_?setBackgroundColor@QWidget@@UAEXABVQColor@@@Z 0040821c     qt-mt323:qt-mt323.dll
 0002:00000220       __imp_?setBackgroundMode@QWidget@@UAEXW4BackgroundMode@Qt@@@Z 00408220     qt-mt323:qt-mt323.dll
 0002:00000224       __imp_?setBackgroundOrigin@QWidget@@UAEXW4BackgroundOrigin@1@@Z 00408224     qt-mt323:qt-mt323.dll
 0002:00000228       __imp_?setBackgroundPixmap@QWidget@@UAEXABVQPixmap@@@Z 00408228     qt-mt323:qt-mt323.dll
 0002:0000022c       __imp_?setCaption@QWidget@@UAEXABVQString@@@Z 0040822c     qt-mt323:qt-mt323.dll
 0002:00000230       __imp_?setCursor@QWidget@@UAEXABVQCursor@@@Z 00408230     qt-mt323:qt-mt323.dll
 0002:00000234       __imp_?setEnabled@QWidget@@UAEX_N@Z 00408234     qt-mt323:qt-mt323.dll
 0002:00000238       __imp_?setEraseColor@QWidget@@UAEXABVQColor@@@Z 00408238     qt-mt323:qt-mt323.dll
 0002:0000023c       __imp_?setErasePixmap@QWidget@@UAEXABVQPixmap@@@Z 0040823c     qt-mt323:qt-mt323.dll
 0002:00000240       __imp_?setFocus@QWidget@@UAEXXZ 00408240     qt-mt323:qt-mt323.dll
 0002:00000244       __imp_?setFocusPolicy@QWidget@@UAEXW4FocusPolicy@1@@Z 00408244     qt-mt323:qt-mt323.dll
 0002:00000248       __imp_?setFocusProxy@QWidget@@UAEXPAV1@@Z 00408248     qt-mt323:qt-mt323.dll
 0002:0000024c       __imp_?setFont@QWidget@@UAEXABVQFont@@@Z 0040824c     qt-mt323:qt-mt323.dll
 0002:00000250       __imp_?setGeometry@QWidget@@UAEXABVQRect@@@Z 00408250     qt-mt323:qt-mt323.dll
 0002:00000254       __imp_?setGeometry@QWidget@@UAEXHHHH@Z 00408254     qt-mt323:qt-mt323.dll
 0002:00000258       __imp_?setIconText@QWidget@@UAEXABVQString@@@Z 00408258     qt-mt323:qt-mt323.dll
 0002:0000025c       __imp_?setKeyCompression@QWidget@@MAEX_N@Z 0040825c     qt-mt323:qt-mt323.dll
 0002:00000260       __imp_?setMask@QWidget@@UAEXABVQBitmap@@@Z 00408260     qt-mt323:qt-mt323.dll
 0002:00000264       __imp_?setMask@QWidget@@UAEXABVQRegion@@@Z 00408264     qt-mt323:qt-mt323.dll
 0002:00000268       __imp_?setMaximumSize@QWidget@@UAEXHH@Z 00408268     qt-mt323:qt-mt323.dll
 0002:0000026c       __imp_?setMicroFocusHint@QWidget@@MAEXHHHH_NPAVQFont@@@Z 0040826c     qt-mt323:qt-mt323.dll
 0002:00000270       __imp_?setMinimumSize@QWidget@@UAEXHH@Z 00408270     qt-mt323:qt-mt323.dll
 0002:00000274       __imp_?setMouseTracking@QWidget@@UAEX_N@Z 00408274     qt-mt323:qt-mt323.dll
 0002:00000278       __imp_?closeEvent@QWidget@@MAEXPAVQCloseEvent@@@Z 00408278     qt-mt323:qt-mt323.dll
 0002:0000027c       __imp_?setPalette@QWidget@@UAEXABVQPalette@@@Z 0040827c     qt-mt323:qt-mt323.dll
 0002:00000280       __imp_?setPaletteBackgroundColor@QWidget@@UAEXABVQColor@@@Z 00408280     qt-mt323:qt-mt323.dll
 0002:00000284       __imp_?setPaletteBackgroundPixmap@QWidget@@UAEXABVQPixmap@@@Z 00408284     qt-mt323:qt-mt323.dll
 0002:00000288       __imp_?setProperty@QObject@@UAE_NPBDABVQVariant@@@Z 00408288     qt-mt323:qt-mt323.dll
 0002:0000028c       __imp_?setResolution@QPaintDevice@@UAEXH@Z 0040828c     qt-mt323:qt-mt323.dll
 0002:00000290       __imp_?setSizeIncrement@QWidget@@UAEXHH@Z 00408290     qt-mt323:qt-mt323.dll
 0002:00000294       __imp_?setSizePolicy@QWidget@@UAEXVQSizePolicy@@@Z 00408294     qt-mt323:qt-mt323.dll
 0002:00000298       __imp_?setUpdatesEnabled@QWidget@@UAEX_N@Z 00408298     qt-mt323:qt-mt323.dll
 0002:0000029c       __imp_?setWFlags@QWidget@@MAEXI@Z 0040829c     qt-mt323:qt-mt323.dll
 0002:000002a0       __imp_?setWState@QWidget@@MAEXI@Z 004082a0     qt-mt323:qt-mt323.dll
 0002:000002a4       __imp_?show@QWidget@@UAEXXZ 004082a4     qt-mt323:qt-mt323.dll
 0002:000002a8       __imp_?showEvent@QWidget@@MAEXPAVQShowEvent@@@Z 004082a8     qt-mt323:qt-mt323.dll
 0002:000002ac       __imp_?showMaximized@QWidget@@UAEXXZ 004082ac     qt-mt323:qt-mt323.dll
 0002:000002b0       __imp_?showMinimized@QWidget@@UAEXXZ 004082b0     qt-mt323:qt-mt323.dll
 0002:000002b4       __imp_?showNormal@QWidget@@UAEXXZ 004082b4     qt-mt323:qt-mt323.dll
 0002:000002b8       __imp_?sizeHint@QWidget@@UBE?AVQSize@@XZ 004082b8     qt-mt323:qt-mt323.dll
 0002:000002bc       __imp_?sizePolicy@QWidget@@UBE?AVQSizePolicy@@XZ 004082bc     qt-mt323:qt-mt323.dll
 0002:000002c0       __imp_?styleChange@QWidget@@MAEXAAVQStyle@@@Z 004082c0     qt-mt323:qt-mt323.dll
 0002:000002c4       __imp_?tabletEvent@QWidget@@MAEXPAVQTabletEvent@@@Z 004082c4     qt-mt323:qt-mt323.dll
 0002:000002c8       __imp_?unsetCursor@QWidget@@UAEXXZ 004082c8     qt-mt323:qt-mt323.dll
 0002:000002cc       __imp_?updateMask@QWidget@@MAEXXZ 004082cc     qt-mt323:qt-mt323.dll
 0002:000002d0       __imp_?wheelEvent@QWidget@@MAEXPAVQWheelEvent@@@Z 004082d0     qt-mt323:qt-mt323.dll
 0002:000002d4       __imp_?winEvent@QWidget@@MAE_NPAUtagMSG@@@Z 004082d4     qt-mt323:qt-mt323.dll
 0002:000002d8       __imp_?windowActivationChange@QWidget@@MAEX_N@Z 004082d8     qt-mt323:qt-mt323.dll
 0002:000002dc       __imp_?write@QGList@@MBEAAVQDataStream@@AAV2@PAX@Z 004082dc     qt-mt323:qt-mt323.dll
 0002:000002e0       __imp_?null@QString@@2V1@A 004082e0     qt-mt323:qt-mt323.dll
 0002:000002e4       __imp_?qApp@@3PAVQApplication@@A 004082e4     qt-mt323:qt-mt323.dll
 0002:000002e8       __imp_??YQString@@QAEAAV0@ABV0@@Z 004082e8     qt-mt323:qt-mt323.dll
 0002:000002ec       __imp_??YQString@@QAEAAV0@PBD@Z 004082ec     qt-mt323:qt-mt323.dll
 0002:000002f0       __imp_?setStyle@QApplication@@SAPAVQStyle@@ABVQString@@@Z 004082f0     qt-mt323:qt-mt323.dll
 0002:000002f4       __imp_?setMainWidget@QApplication@@UAEXPAVQWidget@@@Z 004082f4     qt-mt323:qt-mt323.dll
 0002:000002f8       __imp_?exec@QApplication@@QAEHXZ 004082f8     qt-mt323:qt-mt323.dll
 0002:000002fc       __imp_?addLibraryPath@QApplication@@SAXABVQString@@@Z 004082fc     qt-mt323:qt-mt323.dll
 0002:00000300       __imp_??0QDir@@QAE@ABVQString@@0HH@Z 00408300     qt-mt323:qt-mt323.dll
 0002:00000304       __imp_??1QDir@@UAE@XZ      00408304     qt-mt323:qt-mt323.dll
 0002:00000308       __imp_?exists@QDir@@UBE_NXZ 00408308     qt-mt323:qt-mt323.dll
 0002:0000030c       __imp_??0QWidget@@QAE@PAV0@PBDI@Z 0040830c     qt-mt323:qt-mt323.dll
 0002:00000310       __imp_??1QWidget@@UAE@XZ   00408310     qt-mt323:qt-mt323.dll
 0002:00000314       __imp_?resize@QWidget@@QAEXABVQSize@@@Z 00408314     qt-mt323:qt-mt323.dll
 0002:00000318       __imp_?timerEvent@QObject@@MAEXPAVQTimerEvent@@@Z 00408318     qt-mt323:qt-mt323.dll
 0002:0000031c       __imp_?qt_cast@QWidget@@UAEPAXPBD@Z 0040831c     qt-mt323:qt-mt323.dll
 0002:00000320       __imp_?qt_invoke@QWidget@@UAE_NHPAUQUObject@@@Z 00408320     qt-mt323:qt-mt323.dll
 0002:00000324       __imp_?qt_emit@QWidget@@UAE_NHPAUQUObject@@@Z 00408324     qt-mt323:qt-mt323.dll
 0002:00000328       __imp_?contextMenuEvent@QWidget@@MAEXPAVQContextMenuEvent@@@Z 00408328     qt-mt323:qt-mt323.dll
 0002:0000032c       __imp_?staticMetaObject@QWidget@@SAPAVQMetaObject@@XZ 0040832c     qt-mt323:qt-mt323.dll
 0002:00000330       __imp_?new_metaobject@QMetaObject@@SAPAV1@PBDPAV1@QBUQMetaData@@H2HQBVQMetaProperty@@HQBUQMetaEnum@@HQBUQClassInfo@@H@Z 00408330     qt-mt323:qt-mt323.dll
 0002:00000334       __imp_??0QMetaObjectCleanUp@@QAE@PBDP6APAVQMetaObject@@XZ@Z 00408334     qt-mt323:qt-mt323.dll
 0002:00000338       __imp_??1QMetaObjectCleanUp@@QAE@XZ 00408338     qt-mt323:qt-mt323.dll
 0002:0000033c       __imp_?setMetaObject@QMetaObjectCleanUp@@QAEXAAPAVQMetaObject@@@Z 0040833c     qt-mt323:qt-mt323.dll
 0002:00000340       __imp_?static_QUType_ptr@@3UQUType_ptr@@A 00408340     qt-mt323:qt-mt323.dll
 0002:00000344       __imp_?static_QUType_QString@@3UQUType_QString@@A 00408344     qt-mt323:qt-mt323.dll
 0002:00000348       __imp_?raise@QWidget@@QAEXXZ 00408348     qt-mt323:qt-mt323.dll
 0002:0000034c       __imp_??0QApplication@@QAE@AAHPAPADW4Type@0@@Z 0040834c     qt-mt323:qt-mt323.dll
 0002:00000350       __imp_??1QApplication@@UAE@XZ 00408350     qt-mt323:qt-mt323.dll
 0002:00000354       __imp_?commitData@QApplication@@UAEXAAVQSessionManager@@@Z 00408354     qt-mt323:qt-mt323.dll
 0002:00000358       __imp_?event@QApplication@@MAE_NPAVQEvent@@@Z 00408358     qt-mt323:qt-mt323.dll
 0002:0000035c       __imp_?notify@QApplication@@UAE_NPAVQObject@@PAVQEvent@@@Z 0040835c     qt-mt323:qt-mt323.dll
 0002:00000360       __imp_?polish@QApplication@@UAEXPAVQWidget@@@Z 00408360     qt-mt323:qt-mt323.dll
 0002:00000364       __imp_?saveState@QApplication@@UAEXAAVQSessionManager@@@Z 00408364     qt-mt323:qt-mt323.dll
 0002:00000368       __imp_?setName@QObject@@UAEXPBD@Z 00408368     qt-mt323:qt-mt323.dll
 0002:0000036c       __imp_?main_widget@QApplication@@0PAVQWidget@@A 0040836c     qt-mt323:qt-mt323.dll
 0002:00000370       __imp_??1QCString@@UAE@XZ  00408370     qt-mt323:qt-mt323.dll
 0002:00000374       __imp_?local8Bit@QString@@QBE?AVQCString@@XZ 00408374     qt-mt323:qt-mt323.dll
 0002:00000378       __imp_?fromUcs2@QString@@SA?AV1@PBG@Z 00408378     qt-mt323:qt-mt323.dll
 0002:0000037c       __imp_?ucs2@QString@@QBEPBGXZ 0040837c     qt-mt323:qt-mt323.dll
 0002:00000380       __imp_?winEventFilter@QApplication@@UAE_NPAUtagMSG@@@Z 00408380     qt-mt323:qt-mt323.dll
 0002:00000384       __imp_?className@QWidget@@UBEPBDXZ 00408384     qt-mt323:qt-mt323.dll
 0002:00000388       __imp_?metaObject@QWidget@@UBEPAVQMetaObject@@XZ 00408388     qt-mt323:qt-mt323.dll
 0002:0000038c       __imp_?activate_signal@QObject@@IAEXHVQString@@@Z 0040838c     qt-mt323:qt-mt323.dll
 0002:00000390       __imp_?qt_cast@QApplication@@UAEPAXPBD@Z 00408390     qt-mt323:qt-mt323.dll
 0002:00000394       __imp_?qt_invoke@QApplication@@UAE_NHPAUQUObject@@@Z 00408394     qt-mt323:qt-mt323.dll
 0002:00000398       __imp_?qt_emit@QApplication@@UAE_NHPAUQUObject@@@Z 00408398     qt-mt323:qt-mt323.dll
 0002:0000039c       __imp_?qt_property@QApplication@@UAE_NHHPAVQVariant@@@Z 0040839c     qt-mt323:qt-mt323.dll
 0002:000003a0       __imp_?staticMetaObject@QApplication@@SAPAVQMetaObject@@XZ 004083a0     qt-mt323:qt-mt323.dll
 0002:000003a4       __imp_?set@QUType_bool@@QAEXPAUQUObject@@_N@Z 004083a4     qt-mt323:qt-mt323.dll
 0002:000003a8       __imp_?static_QUType_bool@@3UQUType_bool@@A 004083a8     qt-mt323:qt-mt323.dll
 0002:000003ac       __imp_?static_QUType_int@@3UQUType_int@@A 004083ac     qt-mt323:qt-mt323.dll
 0002:000003b0       __imp_?close@QWidget@@UAE_N_N@Z 004083b0     qt-mt323:qt-mt323.dll
 0002:000003b4       __imp_?childEvent@QObject@@MAEXPAVQChildEvent@@@Z 004083b4     qt-mt323:qt-mt323.dll
 0002:000003b8       __imp_?checkConnectArgs@QObject@@MAE_NPBDPBV1@0@Z 004083b8     qt-mt323:qt-mt323.dll
 0002:000003bc       __imp_?adjustSize@QWidget@@UAEXXZ 004083bc     qt-mt323:qt-mt323.dll
 0002:000003c0       __imp_??1QPixmap@@UAE@XZ   004083c0     qt-mt323:qt-mt323.dll
 0002:000003c4       __imp_??0QPixmap@@QAE@QAPBD@Z 004083c4     qt-mt323:qt-mt323.dll
 0002:000003c8       __imp_?start@QProcess@@UAE_NPAVQStringList@@@Z 004083c8     qt-mt323:qt-mt323.dll
 0002:000003cc       __imp_?addArgument@QProcess@@UAEXABVQString@@@Z 004083cc     qt-mt323:qt-mt323.dll
 0002:000003d0       __imp_??1QProcess@@UAE@XZ  004083d0     qt-mt323:qt-mt323.dll
 0002:000003d4       __imp_??0QProcess@@QAE@PAVQObject@@PBD@Z 004083d4     qt-mt323:qt-mt323.dll
 0002:000003d8       __imp_?critical@QMessageBox@@SAHPAVQWidget@@ABVQString@@1111HH@Z 004083d8     qt-mt323:qt-mt323.dll
 0002:000003dc       __imp_?isFile@QFileInfo@@QBE_NXZ 004083dc     qt-mt323:qt-mt323.dll
 0002:000003e0       __imp_?dirPath@QFileInfo@@QBE?AVQString@@_N@Z 004083e0     qt-mt323:qt-mt323.dll
 0002:000003e4       __imp_?baseName@QFileInfo@@QBE?AVQString@@_N@Z 004083e4     qt-mt323:qt-mt323.dll
 0002:000003e8       __imp_?exists@QFileInfo@@QBE_NXZ 004083e8     qt-mt323:qt-mt323.dll
 0002:000003ec       __imp_??1QFileInfo@@QAE@XZ 004083ec     qt-mt323:qt-mt323.dll
 0002:000003f0       __imp_??0QFileInfo@@QAE@ABVQString@@@Z 004083f0     qt-mt323:qt-mt323.dll
 0002:000003f4       __imp_?close@QWidget@@QAE_NXZ 004083f4     qt-mt323:qt-mt323.dll
 0002:000003f8       __imp_?update@QWidget@@QAEXXZ 004083f8     qt-mt323:qt-mt323.dll
 0002:000003fc       __imp_?setIcon@QWidget@@UAEXABVQPixmap@@@Z 004083fc     qt-mt323:qt-mt323.dll
 0002:00000400       __imp_?y@QWidget@@QBEHXZ   00408400     qt-mt323:qt-mt323.dll
 0002:00000404       __imp_?x@QWidget@@QBEHXZ   00408404     qt-mt323:qt-mt323.dll
 0002:00000408       __imp_?connect@QObject@@SA_NPBV1@PBD01@Z 00408408     qt-mt323:qt-mt323.dll
 0002:0000040c       __imp_?killTimer@QObject@@QAEXH@Z 0040840c     qt-mt323:qt-mt323.dll
 0002:00000410       __imp_?startTimer@QObject@@QAEHH@Z 00408410     qt-mt323:qt-mt323.dll
 0002:00000414       __imp_??1QStringList@@QAE@XZ 00408414     qt-mt323:qt-mt323.dll
 0002:00000418       __imp_?split@QStringList@@SA?AV1@ABVQString@@0_N@Z 00408418     qt-mt323:qt-mt323.dll
 0002:0000041c       __imp_??ZQGListIterator@@IAEPAXI@Z 0040841c     qt-mt323:qt-mt323.dll
 0002:00000420       __imp_??FQGListIterator@@IAEPAXXZ 00408420     qt-mt323:qt-mt323.dll
 0002:00000424       __imp_??YQGListIterator@@IAEPAXI@Z 00408424     qt-mt323:qt-mt323.dll
 0002:00000428       __imp_??EQGListIterator@@IAEPAXXZ 00408428     qt-mt323:qt-mt323.dll
 0002:0000042c       __imp_??RQGListIterator@@IAEPAXXZ 0040842c     qt-mt323:qt-mt323.dll
 0002:00000430       __imp_?toLast@QGListIterator@@IAEPAXXZ 00408430     qt-mt323:qt-mt323.dll
 0002:00000434       __imp_?toFirst@QGListIterator@@IAEPAXXZ 00408434     qt-mt323:qt-mt323.dll
 0002:00000438       __imp_??1QGListIterator@@IAE@XZ 00408438     qt-mt323:qt-mt323.dll
 0002:0000043c       __imp_??4QGListIterator@@IAEAAV0@ABV0@@Z 0040843c     qt-mt323:qt-mt323.dll
 0002:00000440       __imp_??0QGListIterator@@IAE@ABV0@@Z 00408440     qt-mt323:qt-mt323.dll
 0002:00000444       __imp_??0QGListIterator@@IAE@ABVQGList@@@Z 00408444     qt-mt323:qt-mt323.dll
 0002:00000448       __imp_?locate@QGList@@AAEPAVQLNode@@I@Z 00408448     qt-mt323:qt-mt323.dll
 0002:0000044c       __imp_?erase@QGList@@IAEPAVQLNode@@PAV2@@Z 0040844c     qt-mt323:qt-mt323.dll
 0002:00000450       __imp_?toVector@QGList@@IBEXPAVQGVector@@@Z 00408450     qt-mt323:qt-mt323.dll
 0002:00000454       __imp_?prev@QGList@@IAEPAXXZ 00408454     qt-mt323:qt-mt323.dll
 0002:00000458       __imp_?next@QGList@@IAEPAXXZ 00408458     qt-mt323:qt-mt323.dll
 0002:0000045c       __imp_?last@QGList@@IAEPAXXZ 0040845c     qt-mt323:qt-mt323.dll
 0002:00000460       __imp_?first@QGList@@IAEPAXXZ 00408460     qt-mt323:qt-mt323.dll
 0002:00000464       __imp_?contains@QGList@@IBEIPAX@Z 00408464     qt-mt323:qt-mt323.dll
 0002:00000468       __imp_?containsRef@QGList@@IBEIPAX@Z 00408468     qt-mt323:qt-mt323.dll
 0002:0000046c       __imp_?find@QGList@@IAEHPAX_N@Z 0040846c     qt-mt323:qt-mt323.dll
 0002:00000470       __imp_?findRef@QGList@@IAEHPAX_N@Z 00408470     qt-mt323:qt-mt323.dll
 0002:00000474       __imp_?clear@QGList@@MAEXXZ 00408474     qt-mt323:qt-mt323.dll
 0002:00000478       __imp_?sort@QGList@@IAEXXZ 00408478     qt-mt323:qt-mt323.dll
 0002:0000047c       __imp_?takeAt@QGList@@IAEPAXI@Z 0040847c     qt-mt323:qt-mt323.dll
 0002:00000480       __imp_?take@QGList@@IAEPAXXZ 00408480     qt-mt323:qt-mt323.dll
 0002:00000484       __imp_?takeNode@QGList@@IAEPAXPAVQLNode@@@Z 00408484     qt-mt323:qt-mt323.dll
 0002:00000488       __imp_?replaceAt@QGList@@IAE_NIPAX@Z 00408488     qt-mt323:qt-mt323.dll
 0002:0000048c       __imp_?removeAt@QGList@@IAE_NI@Z 0040848c     qt-mt323:qt-mt323.dll
 0002:00000490       __imp_?removeRef@QGList@@IAE_NPAX@Z 00408490     qt-mt323:qt-mt323.dll
 0002:00000494       __imp_?remove@QGList@@IAE_NPAX@Z 00408494     qt-mt323:qt-mt323.dll
 0002:00000498       __imp_?removeNode@QGList@@IAE_NPAVQLNode@@@Z 00408498     qt-mt323:qt-mt323.dll
 0002:0000049c       __imp_?insertAt@QGList@@IAE_NIPAX@Z 0040849c     qt-mt323:qt-mt323.dll
 0002:000004a0       __imp_?append@QGList@@IAEXPAX@Z 004084a0     qt-mt323:qt-mt323.dll
 0002:000004a4       __imp_?inSort@QGList@@IAEXPAX@Z 004084a4     qt-mt323:qt-mt323.dll
 0002:000004a8       __imp_??8QGList@@IBE_NABV0@@Z 004084a8     qt-mt323:qt-mt323.dll
 0002:000004ac       __imp_??4QGList@@IAEAAV0@ABV0@@Z 004084ac     qt-mt323:qt-mt323.dll
 0002:000004b0       __imp_??1QGList@@MAE@XZ    004084b0     qt-mt323:qt-mt323.dll
 0002:000004b4       __imp_??0QGList@@IAE@ABV0@@Z 004084b4     qt-mt323:qt-mt323.dll
 0002:000004b8       __imp_??0QGList@@IAE@XZ    004084b8     qt-mt323:qt-mt323.dll
 0002:000004bc       __imp_??A?$QValueList@VQString@@@@QAEAAVQString@@I@Z 004084bc     qt-mt323:qt-mt323.dll
 0002:000004c0       __imp_??H@YA?BVQString@@PBDABV0@@Z 004084c0     qt-mt323:qt-mt323.dll
 0002:000004c4       __imp_??H@YA?BVQString@@ABV0@PBD@Z 004084c4     qt-mt323:qt-mt323.dll
 0002:000004c8       __imp_??8@YA_NABVQString@@PBD@Z 004084c8     qt-mt323:qt-mt323.dll
 0002:000004cc       __imp_?startsWith@QString@@QBE_NABV1@@Z 004084cc     qt-mt323:qt-mt323.dll
 0002:000004d0       __imp_?latin1@QString@@QBEPBDXZ 004084d0     qt-mt323:qt-mt323.dll
 0002:000004d4       __imp_?ascii@QString@@QBEPBDXZ 004084d4     qt-mt323:qt-mt323.dll
 0002:000004d8       __imp_?toInt@QString@@QBEHPA_NH@Z 004084d8     qt-mt323:qt-mt323.dll
 0002:000004dc       __imp_?upper@QString@@QBE?AV1@XZ 004084dc     qt-mt323:qt-mt323.dll
 0002:000004e0       __imp_?rightJustify@QString@@QBE?AV1@IVQChar@@_N@Z 004084e0     qt-mt323:qt-mt323.dll
 0002:000004e4       __imp_?leftJustify@QString@@QBE?AV1@IVQChar@@_N@Z 004084e4     qt-mt323:qt-mt323.dll
 0002:000004e8       __imp_?arg@QString@@QBE?AV1@ABV1@H@Z 004084e8     qt-mt323:qt-mt323.dll
 0002:000004ec       __imp_?arg@QString@@QBE?AV1@HHH@Z 004084ec     qt-mt323:qt-mt323.dll
 0002:000004f0       __imp_??4QString@@QAEAAV0@ABV0@@Z 004084f0     qt-mt323:qt-mt323.dll
 0002:000004f4       __imp_??1QString@@QAE@XZ   004084f4     qt-mt323:qt-mt323.dll
 0002:000004f8       __imp_??0QString@@QAE@PBD@Z 004084f8     qt-mt323:qt-mt323.dll
 0002:000004fc       __imp_??0QString@@QAE@ABV0@@Z 004084fc     qt-mt323:qt-mt323.dll
 0002:00000500       __imp_??0QString@@QAE@XZ   00408500     qt-mt323:qt-mt323.dll
 0002:00000504       __imp_?qDebug@@YAXPBDZZ    00408504     qt-mt323:qt-mt323.dll
 0002:00000508       __imp_?connectNotify@QObject@@MAEXPBD@Z 00408508     qt-mt323:qt-mt323.dll
 0002:0000050c       __imp_?compareItems@QGList@@MAEHPAX0@Z 0040850c     qt-mt323:qt-mt323.dll
 0002:00000510       __imp_?qt_property@QWidget@@UAE_NHHPAVQVariant@@@Z 00408510     qt-mt323:qt-mt323.dll
 0002:00000514       __imp_?cmd@QPaintDevice@@MAE_NHPAVQPainter@@PATQPDevCmdParam@@@Z 00408514     qt-mt323:qt-mt323.dll
 0002:00000518       __imp_?setName@QWidget@@UAEXPBD@Z 00408518     qt-mt323:qt-mt323.dll
 0002:0000051c       __imp_?deleteData@QGArray@@MAEXPAUarray_data@1@@Z 0040851c     qt-mt323:qt-mt323.dll
 0002:00000520       __imp_?newData@QGArray@@MAEPAUarray_data@1@XZ 00408520     qt-mt323:qt-mt323.dll
 0002:00000524       __imp_??1QGArray@@MAE@XZ   00408524     qt-mt323:qt-mt323.dll
 0002:00000528       __imp_?qWinMain@@YAXPAUHINSTANCE__@@0PADHAAHAAV?$QMemArray@PAD@@@Z 00408528     qt-mt323:qt-mt323.dll
 0002:0000052c       __imp_??0QGArray@@IAE@H@Z  0040852c     qt-mt323:qt-mt323.dll
 0002:00000530       __imp_?duplicate@QGArray@@IAEAAV1@ABV1@@Z 00408530     qt-mt323:qt-mt323.dll
 0002:00000534       \177qt-mt323_NULL_THUNK_DATA 00408534     qt-mt323:qt-mt323.dll
 0002:00000538       ___xc_a                    00408538     MSVCRT:cinitexe.obj
 0002:00000558       ___xc_z                    00408558     MSVCRT:cinitexe.obj
 0002:0000055c       ___xi_a                    0040855c     MSVCRT:cinitexe.obj
 0002:0000056c       ___xi_z                    0040856c     MSVCRT:cinitexe.obj
 0002:00000570       ??_C@_0N@DFFNFDON@32?532?5126?52?5?$AA@ 00408570     bncs_clientmainwindowimpl.obj
 0002:00000580       ??_C@_0N@PKEHNDKL@?5?5?5c?5?$CD6C006C?$AA@ 00408580     bncs_clientmainwindowimpl.obj
 0002:00000590       ??_C@_0N@GAFGBKHE@?4?5?5c?5?$CD7A017A?$AA@ 00408590     bncs_clientmainwindowimpl.obj
 0002:000005a0       ??_C@_0N@OOIFJOKD@X?5?5c?5?$CD7E0A7E?$AA@ 004085a0     bncs_clientmainwindowimpl.obj
 0002:000005b0       ??_C@_0N@GPGJNNJF@o?5?5c?5?$CD7F117F?$AA@ 004085b0     bncs_clientmainwindowimpl.obj
 0002:000005c0       ??_C@_0N@KNHIPOKA@O?5?5c?5?$CD830083?$AA@ 004085c0     bncs_clientmainwindowimpl.obj
 0002:000005d0       ??_C@_0N@PIJBLKCK@?$CL?5?5c?5?$CD810D81?$AA@ 004085d0     bncs_clientmainwindowimpl.obj
 0002:000005e0       ??_C@_0N@MEOONKCD@?$EA?5?5c?5?$CD8B018B?$AA@ 004085e0     bncs_clientmainwindowimpl.obj
 0002:000005f0       ??_C@_0N@BGOEBLFL@?$CD?5?5c?5?$CD831383?$AA@ 004085f0     bncs_clientmainwindowimpl.obj
 0002:00000600       ??_C@_0N@FCOMBLOA@$?5?5c?5?$CD841C84?$AA@ 00408600     bncs_clientmainwindowimpl.obj
 0002:00000610       ??_C@_0N@OMLBCKHH@?$CF?5?5c?5?$CD881B88?$AA@ 00408610     bncs_clientmainwindowimpl.obj
 0002:00000620       ??_C@_0N@NOIODKCG@?$CG?5?5c?5?$CD920492?$AA@ 00408620     bncs_clientmainwindowimpl.obj
 0002:00000630       ??_C@_0N@IKGDDIAG@?$CK?5?5c?5?$CD940B94?$AA@ 00408630     bncs_clientmainwindowimpl.obj
 0002:00000640       ??_C@_0N@GPNLNGJJ@?$DN?5?5c?5?$CD9A0D9A?$AA@ 00408640     bncs_clientmainwindowimpl.obj
 0002:00000650       ??_C@_0N@NHBGGFDK@?9?5?5c?5?$CD9C129C?$AA@ 00408650     bncs_clientmainwindowimpl.obj
 0002:00000660       ??_C@_0N@EALNJDCO@?$DL?5?5c?5?$CD872387?$AA@ 00408660     bncs_clientmainwindowimpl.obj
 0002:00000670       ??_C@_0N@JFLGDND@?3?5?5c?5?$CD8B248B?$AA@ 00408670     bncs_clientmainwindowimpl.obj
 0002:00000680       ??_C@_0N@DPAKJBGA@?$DO?5?5c?5?$CD8B2C8B?$AA@ 00408680     bncs_clientmainwindowimpl.obj
 0002:00000690       ??_C@_0N@PKEPOLKK@?0?5?5c?5?$CD8F328F?$AA@ 00408690     bncs_clientmainwindowimpl.obj
 0002:000006a0       ??_C@_0N@BLLMJFHD@?$DM?5?5c?5?$CD902B90?$AA@ 004086a0     bncs_clientmainwindowimpl.obj
 0002:000006b0       ??_C@_0N@FAFKOAHE@1?5?5c?5?$CD923492?$AA@ 004086b0     bncs_clientmainwindowimpl.obj
 0002:000006c0       ??_C@_0N@JLHLFAAE@2?5?5c?5?$CD943C94?$AA@ 004086c0     bncs_clientmainwindowimpl.obj
 0002:000006d0       ??_C@_0N@NFCNEJBP@3?5?5c?5?$CD9B3F9B?$AA@ 004086d0     bncs_clientmainwindowimpl.obj
 0002:000006e0       ??_C@_0N@MKJOINMM@4?5?5c?5?$CDA316A3?$AA@ 004086e0     bncs_clientmainwindowimpl.obj
 0002:000006f0       ??_C@_0N@KBBBMFPN@5?5?5c?5?$CDA41BA4?$AA@ 004086f0     bncs_clientmainwindowimpl.obj
 0002:00000700       ??_C@_0N@DABHOHCO@6?5?5c?5?$CDAA1DAA?$AA@ 00408700     bncs_clientmainwindowimpl.obj
 0002:00000710       ??_C@_0N@HBCIEBE@7?5?5c?5?$CDBA00BA?$AA@ 00408710     bncs_clientmainwindowimpl.obj
 0002:00000720       ??_C@_0N@FGADGMJN@8?5?5c?5?$CDAD23AD?$AA@ 00408720     bncs_clientmainwindowimpl.obj
 0002:00000730       ??_C@_0N@EPKFKCBC@9?5?5c?5?$CDB42BB4?$AA@ 00408730     bncs_clientmainwindowimpl.obj
 0002:00000740       ??_C@_0N@HJLMKCAM@0?5?5c?5?$CDB92CB9?$AA@ 00408740     bncs_clientmainwindowimpl.obj
 0002:00000750       ??_C@_0N@OCNGDODB@q?5?5c?5?$CDBB33BB?$AA@ 00408750     bncs_clientmainwindowimpl.obj
 0002:00000760       ??_C@_0N@HLEIOHAP@w?5?5c?5?$CDBE3CBE?$AA@ 00408760     bncs_clientmainwindowimpl.obj
 0002:00000770       ??_C@_0N@JNFOHEFE@e?5?5c?5?$CD884888?$AA@ 00408770     bncs_clientmainwindowimpl.obj
 0002:00000780       ??_C@_0N@NMPGLJJO@r?5?5c?5?$CD8D548D?$AA@ 00408780     bncs_clientmainwindowimpl.obj
 0002:00000790       ??_C@_0N@OAAAOMHN@t?5?5c?5?$CD974097?$AA@ 00408790     bncs_clientmainwindowimpl.obj
 0002:000007a0       ??_C@_0N@CBOJAKJF@y?5?5c?5?$CD9B449B?$AA@ 004087a0     bncs_clientmainwindowimpl.obj
 0002:000007b0       ??_C@_0N@BPPPINDE@u?5?5c?5?$CD9E4C9E?$AA@ 004087b0     bncs_clientmainwindowimpl.obj
 0002:000007c0       ??_C@_0N@IGMMCFHH@i?5?5c?5?$CD8D6B8D?$AA@ 004087c0     bncs_clientmainwindowimpl.obj
 0002:000007d0       ??_C@_0N@GIFNFNFD@p?5?5c?5?$CD987C98?$AA@ 004087d0     bncs_clientmainwindowimpl.obj
 0002:000007e0       ??_C@_0N@HNOECGEC@a?5?5c?5?$CDA34FA3?$AA@ 004087e0     bncs_clientmainwindowimpl.obj
 0002:000007f0       ??_C@_0N@DKHPPFEN@s?5?5c?5?$CDAE4CAE?$AA@ 004087f0     bncs_clientmainwindowimpl.obj
 0002:00000800       ??_C@_0N@JMJNNEPG@d?5?5c?5?$CDA354A3?$AA@ 00408800     bncs_clientmainwindowimpl.obj
 0002:00000810       ??_C@_0N@ENGIBJOP@f?5?5c?5?$CDA75BA7?$AA@ 00408810     bncs_clientmainwindowimpl.obj
 0002:00000820       ??_C@_0N@BBBMNDEI@g?5?5c?5?$CDA95DA9?$AA@ 00408820     bncs_clientmainwindowimpl.obj
 0002:00000830       ??_C@_0N@PJLBJBLK@h?5?5c?5?$CDB04AB0?$AA@ 00408830     bncs_clientmainwindowimpl.obj
 0002:00000840       ??_C@_0N@OPDOBHLL@j?5?5c?5?$CDAD65AD?$AA@ 00408840     bncs_clientmainwindowimpl.obj
 0002:00000850       ??_C@_0N@LPDMNFGK@k?5?5c?5?$CDAF68AF?$AA@ 00408850     bncs_clientmainwindowimpl.obj
 0002:00000860       ??_C@_0N@JGDPKDEO@l?5?5c?5?$CDB26CB2?$AA@ 00408860     bncs_clientmainwindowimpl.obj
 0002:00000870       ??_C@_0N@OBEILKL@z?5?5c?5?$CDB675B6?$AA@ 00408870     bncs_clientmainwindowimpl.obj
 0002:00000880       ??_C@_0N@NIHENNPA@x?5?5c?5?$CDB876B8?$AA@ 00408880     bncs_clientmainwindowimpl.obj
 0002:00000890       ??_C@_0N@LFOGFHNO@c?5?5c?5?$CDBD7DBD?$AA@ 00408890     bncs_clientmainwindowimpl.obj
 0002:000008a0       ??_C@_0N@BLFMFOJM@v?5?5c?5?$CDC500C5?$AA@ 004088a0     bncs_clientmainwindowimpl.obj
 0002:000008b0       ??_C@_0N@ELPPOGOH@b?5?5c?5?$CDCE00CE?$AA@ 004088b0     bncs_clientmainwindowimpl.obj
 0002:000008c0       ??_C@_0N@OOFAPAAF@n?5?5c?5?$CDDA00DA?$AA@ 004088c0     bncs_clientmainwindowimpl.obj
 0002:000008d0       ??_C@_0N@OPGBICI@m?5?5c?5?$CDC43AC4?$AA@ 004088d0     bncs_clientmainwindowimpl.obj
 0002:000008e0       ??_C@_0N@FHMCJMDB@M?5?5c?5?$CDCB37CB?$AA@ 004088e0     bncs_clientmainwindowimpl.obj
 0002:000008f0       ??_C@_0N@NMBCCFNA@N?5?5c?5?$CDCC3CCC?$AA@ 004088f0     bncs_clientmainwindowimpl.obj
 0002:00000900       ??_C@_0N@FFHBHNCP@B?5?5c?5?$CDD23ED2?$AA@ 00408900     bncs_clientmainwindowimpl.obj
 0002:00000910       ??_C@_0N@KLJDCBEH@V?5?5c?5?$CDEB03EB?$AA@ 00408910     bncs_clientmainwindowimpl.obj
 0002:00000920       ??_C@_0N@GJIEJEBC@C?5?5c?5?$CDEB0CEB?$AA@ 00408920     bncs_clientmainwindowimpl.obj
 0002:00000930       ??_C@_0N@KPOHGIEG@Z?5?5c?5?$CDE711E7?$AA@ 00408930     bncs_clientmainwindowimpl.obj
 0002:00000940       ??_C@_0N@INMAEKJB@A?5?5c?5?$CDEC13EC?$AA@ 00408940     bncs_clientmainwindowimpl.obj
 0002:00000950       ??_C@_0N@NJEBGIMI@S?5?5c?5?$CDF301F3?$AA@ 00408950     bncs_clientmainwindowimpl.obj
 0002:00000960       ??_C@_0N@IEPHOPME@D?5?5c?5?$CDF70AF7?$AA@ 00408960     bncs_clientmainwindowimpl.obj
 0002:00000970       ??_C@_0N@NEHHENKN@F?5?5c?5?$CDFE01FE?$AA@ 00408970     bncs_clientmainwindowimpl.obj
 0002:00000980       ??_C@_0N@HPAKEIJG@G?5?5c?5?$CDFC0FFC?$AA@ 00408980     bncs_clientmainwindowimpl.obj
 0002:00000990       ??_C@_0N@PHBOFBJA@H?5?5c?5?$CDF412F4?$AA@ 00408990     bncs_clientmainwindowimpl.obj
 0002:000009a0       ??_C@_0N@FJKHFBPG@J?5?5c?5?$CDFC13FC?$AA@ 004089a0     bncs_clientmainwindowimpl.obj
 0002:000009b0       ??_C@_0N@OPAOCIOP@K?5?5c?5?$CDFC1CFC?$AA@ 004089b0     bncs_clientmainwindowimpl.obj
 0002:000009c0       ??_C@_0N@GJODHDPK@L?5?5c?5?$CDFC28FC?$AA@ 004089c0     bncs_clientmainwindowimpl.obj
 0002:000009d0       ??_C@_0N@FKBDHPFC@P?5?5c?5?$CDFB35FB?$AA@ 004089d0     bncs_clientmainwindowimpl.obj
 0002:000009e0       ??_C@_0N@DIIPFGJF@I?5?5c?5?$CDCD40CD?$AA@ 004089e0     bncs_clientmainwindowimpl.obj
 0002:000009f0       ??_C@_0N@CPOBCEKA@U?5?5c?5?$CDD344D3?$AA@ 004089f0     bncs_clientmainwindowimpl.obj
 0002:00000a00       ??_C@_0N@GKILCAHA@Y?5?5c?5?$CDD649D6?$AA@ 00408a00     bncs_clientmainwindowimpl.obj
 0002:00000a10       ??_C@_0N@DJNICBA@T?5?5c?5?$CDDA46DA?$AA@ 00408a10     bncs_clientmainwindowimpl.obj
 0002:00000a20       ??_C@_0N@IAGHMOOK@R?5?5c?5?$CDDC4CDC?$AA@ 00408a20     bncs_clientmainwindowimpl.obj
 0002:00000a30       ??_C@_0N@DFEGGLFE@E?5?5c?5?$CDDE51DE?$AA@ 00408a30     bncs_clientmainwindowimpl.obj
 0002:00000a40       ??_C@_0N@INMBKFOO@W?5?5c?5?$CDD365D3?$AA@ 00408a40     bncs_clientmainwindowimpl.obj
 0002:00000a50       ??_C@_0N@LBIFGJGB@Q?5?5c?5?$CDDC64DC?$AA@ 00408a50     bncs_clientmainwindowimpl.obj
 0002:00000a60       ??_C@_0N@PDNNHGCM@?$CB?5?5c?5?$CDE24EE2?$AA@ 00408a60     bncs_clientmainwindowimpl.obj
 0002:00000a70       ??_C@_0N@LDMHDOLK@?$HO?5?5c?5?$CDE454E4?$AA@ 00408a70     bncs_clientmainwindowimpl.obj
 0002:00000a80       ??_C@_0N@JICICIBD@?$FO?5?5c?5?$CDE558E5?$AA@ 00408a80     bncs_clientmainwindowimpl.obj
 0002:00000a90       ??_C@_0N@NGFHNKLI@?1?5?5c?5?$CDE955E9?$AA@ 00408a90     bncs_clientmainwindowimpl.obj
 0002:00000aa0       ??_C@_0N@CCKFPLBO@?$CI?5?5c?5?$CDEC5BEC?$AA@ 00408aa0     bncs_clientmainwindowimpl.obj
 0002:00000ab0       ??_C@_0N@LCBFGODN@?$CJ?5?5c?5?$CDF15DF1?$AA@ 00408ab0     bncs_clientmainwindowimpl.obj
 0002:00000ac0       ??_C@_0N@DBPADFHK@_?5?5c?5?$CDED60ED?$AA@ 00408ac0     bncs_clientmainwindowimpl.obj
 0002:00000ad0       ??_C@_0N@IJCIEKME@?$GA?5?5c?5?$CDF464F4?$AA@ 00408ad0     bncs_clientmainwindowimpl.obj
 0002:00000ae0       ??_C@_0N@PMMDDFF@?8?5?5c?5?$CD8A878A?$AA@ 00408ae0     bncs_clientmainwindowimpl.obj
 0002:00000af0       ??_C@_0M@OFBNPEMJ@?$FN?5?5c?5gray59?$AA@ 00408af0     bncs_clientmainwindowimpl.obj
 0002:00000afc       ??_C@_0N@MEAMILEB@?$FL?5?5c?5?$CD9D9B9D?$AA@ 00408afc     bncs_clientmainwindowimpl.obj
 0002:00000b0c       ??_C@_0N@BLAEHKEH@?$HL?5?5c?5?$CDB689B6?$AA@ 00408b0c     bncs_clientmainwindowimpl.obj
 0002:00000b1c       ??_C@_0N@MACPCIBN@?$HN?5?5c?5?$CDBE84BE?$AA@ 00408b1c     bncs_clientmainwindowimpl.obj
 0002:00000b2c       ??_C@_0N@GPNAGNNO@?$HM?5?5c?5?$CDBC89BC?$AA@ 00408b2c     bncs_clientmainwindowimpl.obj
 0002:00000b3c       ??_C@_0N@GKLGJMGI@?5?4?5c?5?$CDBF93BF?$AA@ 00408b3c     bncs_clientmainwindowimpl.obj
 0002:00000b4c       ??_C@_0N@DBLPCIKM@?4?4?5c?5?$CDA4A3A4?$AA@ 00408b4c     bncs_clientmainwindowimpl.obj
 0002:00000b5c       ??_C@_0N@KNPMHBDB@X?4?5c?5?$CDA9A7A9?$AA@ 00408b5c     bncs_clientmainwindowimpl.obj
 0002:00000b6c       ??_C@_0N@CGDJJHNH@o?4?5c?5?$CDABABAB?$AA@ 00408b6c     bncs_clientmainwindowimpl.obj
 0002:00000b7c       ??_C@_0N@GBPIEIFL@O?4?5c?5?$CDB5B5B5?$AA@ 00408b7c     bncs_clientmainwindowimpl.obj
 0002:00000b8c       ??_C@_0N@CPADLCPO@?$CL?4?5c?5?$CDBBBBBB?$AA@ 00408b8c     bncs_clientmainwindowimpl.obj
 0002:00000b9c       ??_C@_0N@LIKHMFJJ@?$EA?4?5c?5?$CDC284C2?$AA@ 00408b9c     bncs_clientmainwindowimpl.obj
 0002:00000bac       ??_C@_0N@KPDCENFD@?$CD?4?5c?5?$CDC58CC5?$AA@ 00408bac     bncs_clientmainwindowimpl.obj
 0002:00000bbc       ??_C@_0N@COBHAKKM@$?4?5c?5?$CDC591C5?$AA@ 00408bbc     bncs_clientmainwindowimpl.obj
 0002:00000bcc       ??_C@_0N@JHGNKOIP@?$CF?4?5c?5?$CDCB92CB?$AA@ 00408bcc     bncs_clientmainwindowimpl.obj
 0002:00000bdc       ??_C@_0N@FMEMBOPP@?$CG?4?5c?5?$CDCD9ECD?$AA@ 00408bdc     bncs_clientmainwindowimpl.obj
 0002:00000bec       ??_C@_0N@DPNHIHBK@?$CK?4?5c?5?$CDD29BD2?$AA@ 00408bec     bncs_clientmainwindowimpl.obj
 0002:00000bfc       ??_C@_0N@OCIPNGEJ@?$DN?4?5c?5?$CDCEA2CE?$AA@ 00408bfc     bncs_clientmainwindowimpl.obj
 0002:00000c0c       ??_C@_0N@NHBKCCM@?9?4?5c?5?$CDD6A1D6?$AA@ 00408c0c     bncs_clientmainwindowimpl.obj
 0002:00000c1c       ??_C@_0N@DKIMEIAM@?$DL?4?5c?5?$CDD4ADD4?$AA@ 00408c1c     bncs_clientmainwindowimpl.obj
 0002:00000c2c       ??_C@_0N@DNKJDLOD@?3?4?5c?5?$CDD9A5D9?$AA@ 00408c2c     bncs_clientmainwindowimpl.obj
 0002:00000c3c       ??_C@_0N@BALJODCO@?$DO?4?5c?5?$CDD9B7D9?$AA@ 00408c3c     bncs_clientmainwindowimpl.obj
 0002:00000c4c       ??_C@_0N@EIHDFCKE@?0?4?5c?5?$CDF183F1?$AA@ 00408c4c     bncs_clientmainwindowimpl.obj
 0002:00000c5c       ??_C@_0N@JGOIJFKD@?$DM?4?5c?5?$CDC4C4C4?$AA@ 00408c5c     bncs_clientmainwindowimpl.obj
 0002:00000c6c       ??_C@_0N@OJMJNINF@1?4?5c?5?$CDCCCBCC?$AA@ 00408c6c     bncs_clientmainwindowimpl.obj
 0002:00000c7c       ??_C@_0N@BOMGGNAI@2?4?5c?5?$CDD4D4D4?$AA@ 00408c7c     bncs_clientmainwindowimpl.obj
 0002:00000c8c       ??_C@_0N@CJBKHLGB@3?4?5c?5?$CDDBDBDB?$AA@ 00408c8c     bncs_clientmainwindowimpl.obj
 0002:00000c9c       ??_C@_0N@FEELIIFE@4?4?5c?5?$CDE0C4E0?$AA@ 00408c9c     bncs_clientmainwindowimpl.obj
 0002:00000cac       ??_C@_0N@IAMIEOOG@5?4?5c?5?$CDE4CCE4?$AA@ 00408cac     bncs_clientmainwindowimpl.obj
 0002:00000cbc       ??_C@_0N@DPGKNBND@6?4?5c?5?$CDE8D3E8?$AA@ 00408cbc     bncs_clientmainwindowimpl.obj
 0002:00000ccc       ??_C@_0N@IBIFOOLC@7?4?5c?5?$CDEEDEEE?$AA@ 00408ccc     bncs_clientmainwindowimpl.obj
 0002:00000cdc       ??_C@_0N@LOEMEDBN@8?4?5c?5?$CDE4E4E4?$AA@ 00408cdc     bncs_clientmainwindowimpl.obj
 0002:00000cec       ??_C@_0N@LHFLLKHB@9?4?5c?5?$CDEFE0EF?$AA@ 00408cec     bncs_clientmainwindowimpl.obj
 0002:00000cfc       ??_C@_0N@GEPONKBN@0?4?5c?5?$CDECECEC?$AA@ 00408cfc     bncs_clientmainwindowimpl.obj
 0002:00000d0c       ??_C@_0N@JKEABJGM@q?4?5c?5?$CDF1E4F1?$AA@ 00408d0c     bncs_clientmainwindowimpl.obj
 0002:00000d1c       ??_C@_0N@ELPOPDOJ@w?4?5c?5?$CDF4EAF4?$AA@ 00408d1c     bncs_clientmainwindowimpl.obj
 0002:00000d2c       ??_C@_0M@CLMMHKJO@e?4?5c?5gray96?$AA@ 00408d2c     bncs_clientmainwindowimpl.obj
 0002:00000d38       ??_C@_0N@NHEFLFCN@r?4?5c?5?$CDFFFFFF?$AA@ 00408d38     bncs_clientmainwindowimpl.obj
 0002:00000d48       ??_C@_09DDCFKCPH@t?4?5c?5None?$AA@ 00408d48     bncs_clientmainwindowimpl.obj
 0002:00000d58       ??_C@_0EB@MOCDMHHO@t?4t?4t?4t?4t?4t?4?0?4?$GA?5?$GA?5?$CJ?5?$GA?5?$GA?5?$GA?5?$GA?5?$GA?5?$CJ?5@ 00408d58     bncs_clientmainwindowimpl.obj
 0002:00000da0       ??_C@_0EB@EOPMMFPB@t?4t?4t?4t?4t?4?0?4P?5G?5A?5C?5S?5V?5V?5C?5C?5V?5@ 00408da0     bncs_clientmainwindowimpl.obj
 0002:00000de8       ??_C@_0EB@LAKAOLPB@t?4t?4t?4t?4?0?4L?5J?5?9?5?$CL?5?$CD?5?$CD?5X?5?$CL?5?$CD?5?$CD?5?$CL?5@ 00408de8     bncs_clientmainwindowimpl.obj
 0002:00000e30       ??_C@_0EB@MONHLJIG@t?4t?4t?4?0?4K?5D?5?9?5X?5?4?5?$CD?5?$CD?5?4?5?$CD?5?$CD?5?$CD?5?$CD?5@ 00408e30     bncs_clientmainwindowimpl.obj
 0002:00000e78       ??_C@_0EB@HBNKBKEK@t?4t?4?0?4J?5S?5?9?5?$CD?5?$CD?5?$CD?5?$CD?5O?5?4?5?$CD?5?$CL?5?$CD?5?$CD?5@ 00408e78     bncs_clientmainwindowimpl.obj
 0002:00000ec0       ??_C@_0EB@BMIFDLGL@t?4?0?4J?5S?5?$CG?5?$CD?5?$CD?5X?5?$CL?5?$CD?5?$CD?5X?5?$CD?5X?5?$CL?5?$CD?5@ 00408ec0     bncs_clientmainwindowimpl.obj
 0002:00000f08       ??_C@_0EB@EGIGBGH@?0?4J?5V?5?$CG?5X?5?$CD?5?$CL?5?4?5?4?5?$CD?5?$CD?5?$CL?5?$CD?5?4?5?4?5?$CD?5@ 00408f08     bncs_clientmainwindowimpl.obj
 0002:00000f50       ??_C@_0EB@IJIOJBOL@?$GA?5F?5?$EA?5?4?5?$CL?5?$CD?5?$CL?5X?5?$CL?5?$CD?5?$CL?5?$CD?5?$CD?5?4?5?4?5?$CD?5@ 00408f50     bncs_clientmainwindowimpl.obj
 0002:00000f98       ??_C@_0EB@BPMCLLFD@?$GA?5S?5?4?5?4?5l?5q?49?4y?5?$CL?5?$CL?5?4?5?$CD?54?47?4?$DO?4X?5@ 00408f98     bncs_clientmainwindowimpl.obj
 0002:00000fe0       ??_C@_0EB@BDGCDCIJ@?$GA?5S?5?4?5?4?5z?5r?4r?43?5?4?5?4?5?4?5?4?57?4r?46?4?4?5@ 00408fe0     bncs_clientmainwindowimpl.obj
 0002:00001028       ??_C@_0EB@OAHIKPDN@?$GA?5S?5?4?5?4?5z?5r?4r?43?5?4?5?4?5?4?5?4?57?4r?46?4?4?5@ 00409028     bncs_clientmainwindowimpl.obj
 0002:00001070       ??_C@_0EB@BBNKNNIB@?$GA?5S?5?4?5?4?5z?5r?4r?43?5?4?5?4?5?4?5?4?57?4r?46?4?4?5@ 00409070     bncs_clientmainwindowimpl.obj
 0002:000010b8       ??_C@_0EB@FEAMHIKG@?$GA?5S?5?4?5?4?5z?5r?4r?43?5?4?5?4?5?4?5?4?5q?4r?46?4?4?5@ 004090b8     bncs_clientmainwindowimpl.obj
 0002:00001100       ??_C@_0EB@HLLPKDF@?$GA?5S?5?4?5?4?5z?5r?4r?4f?5?3?5?3?5?$CF?5?3?5q?4r?46?4?4?5@ 00409100     bncs_clientmainwindowimpl.obj
 0002:00001148       ??_C@_0EB@DNKBOAFG@?$GA?5S?5?4?5?4?5z?5r?4r?4r?4r?4r?4r?4r?4r?4r?46?4?4?5@ 00409148     bncs_clientmainwindowimpl.obj
 0002:00001190       ??_C@_0EB@LPEGKCKJ@?$GA?5C?5?4?5?4?5z?5r?4r?4r?4r?4r?4r?4r?4r?4r?46?4?4?5@ 00409190     bncs_clientmainwindowimpl.obj
 0002:000011d8       ??_C@_0EB@IHJCBCDN@_?5S?5?4?5?4?5z?5r?4r?4k?51?51?51?51?5w?4r?46?4?4?5@ 004091d8     bncs_clientmainwindowimpl.obj
 0002:00001220       ??_C@_0EB@COFPKNKN@_?5S?5?4?5?4?5z?5r?4r?43?5?4?5?4?5?4?5?4?57?4e?46?4?4?5@ 00409220     bncs_clientmainwindowimpl.obj
 0002:00001268       ??_C@_0EB@FLMLMDAM@?$CI?5S?5?4?5?4?5x?5r?4r?43?5?4?5?4?5?4?5?4?59?4r?46?4?4?5@ 00409268     bncs_clientmainwindowimpl.obj
 0002:000012b0       ??_C@_0EB@IJOEIKHA@?$CI?5S?5?4?5?4?5z?5r?4r?43?5?4?5?4?5?4?5?4?57?4r?46?4?4?5@ 004092b0     bncs_clientmainwindowimpl.obj
 0002:000012f8       ??_C@_0EB@BNAMCBKH@?$FO?5S?5?4?5?4?5z?5r?4r?43?5?4?5?4?5?4?5?4?59?4r?46?4X?5@ 004092f8     bncs_clientmainwindowimpl.obj
 0002:00001340       ??_C@_0EB@OGGLGMAN@?$HO?5S?5?4?5?4?5z?5r?4r?43?5?4?5?4?5?4?5?4?5q?4e?46?4?$CD?5@ 00409340     bncs_clientmainwindowimpl.obj
 0002:00001388       ??_C@_0EB@HHFNKAAM@E?5S?5?4?5?4?51?5z?5z?5?$CF?5?4?5X?5X?5?$CL?5l?5?$HM?5l?5$?5@ 00409388     bncs_clientmainwindowimpl.obj
 0002:000013d0       ??_C@_0EB@PJEANAPD@R?5V?5?4?5?4?5?4?5?4?5X?5X?5X?5o?5o?5?$CF?5?$DL?5?$DL?5?$DO?5?0?5@ 004093d0     bncs_clientmainwindowimpl.obj
 0002:00001418       ??_C@_0EB@JEMMPJKH@R?5S?5?4?5?4?5X?5X?5o?5o?5o?5?$DL?5?$DL?5?$DL?5?$DO?5?0?5?0?52?5@ 00409418     bncs_clientmainwindowimpl.obj
 0002:00001460       ??_C@_0EB@DNGMDKMN@Y?5S?5?4?5X?5o?5o?5$?5$?5?$DL?5?$DO?5?$DO?5e?5?$FL?5?4?4i?5u?5@ 00409460     bncs_clientmainwindowimpl.obj
 0002:000014a8       ??_C@_0EB@DGFGBMJM@U?5S?5o?5?$CD?5$?5?$DL?5?$DL?5?$DL?5?0?5?0?52?5r?5?$DM?42?4p?5j?5@ 004094a8     bncs_clientmainwindowimpl.obj
 0002:000014f0       ??_C@_0EB@NBGCFPCL@I?5Z?5?8?5?$FL?5?$FL?5?$FL?5?$FL?5?4?4?4?4?4?4?4?4X?42?43?4O?4O?4@ 004094f0     bncs_clientmainwindowimpl.obj
 0002:00001538       ??_C@_0EB@MOFODALN@I?5Z?5o?4?$DM?4?$DM?41?42?41?42?42?42?43?43?43?48?48?4@ 00409538     bncs_clientmainwindowimpl.obj
 0002:00001580       ??_C@_0EB@EJPKDMJA@I?5Z?5?$FN?5o?4o?4o?4o?4O?4O?4O?4?$CL?4?$CL?4?$DM?4?$DM?4?$DM?41?4@ 00409580     bncs_clientmainwindowimpl.obj
 0002:000015c8       ??_C@_0EB@ODAELBAM@m?5F?5A?5Z?5Z?5A?5A?5A?5A?5A?5A?5A?5A?5A?5A?5A?5@ 004095c8     bncs_clientmainwindowimpl.obj
 0002:00001610       ??_C@_0EB@DPNJMJDB@s?5q?5q?5q?59?59?58?58?58?56?55?5?$DM?5?9?5?9?5?9?5?$CK?5@ 00409610     bncs_clientmainwindowimpl.obj
 0002:00001658       ??_7error_category@std@@6B@ 00409658     bncs_clientmainwindowimpl.obj
 0002:00001674       ??_7_Generic_error_category@std@@6B@ 00409674     bncs_clientmainwindowimpl.obj
 0002:0000168c       ??_C@_07DCLBNMLN@generic?$AA@ 0040968c     bncs_clientmainwindowimpl.obj
 0002:00001694       ??_C@_0O@BFJCFAAK@unknown?5error?$AA@ 00409694     bncs_clientmainwindowimpl.obj
 0002:000016a8       ??_7_Iostream_error_category@std@@6B@ 004096a8     bncs_clientmainwindowimpl.obj
 0002:000016c0       ??_C@_08LLGCOLLL@iostream?$AA@ 004096c0     bncs_clientmainwindowimpl.obj
 0002:000016cc       ??_C@_0BG@PADBLCHM@iostream?5stream?5error?$AA@ 004096cc     bncs_clientmainwindowimpl.obj
 0002:000016e8       ??_7_System_error_category@std@@6B@ 004096e8     bncs_clientmainwindowimpl.obj
 0002:00001700       ??_C@_06FHFOAHML@system?$AA@ 00409700     bncs_clientmainwindowimpl.obj
 0002:0000170c       ??_7IccClientCallback@@6B@ 0040970c     bncs_clientmainwindowimpl.obj
 0002:0000173c       ??_7bncs_clientMainWindowImpl@@6BQObject@@@ 0040973c     bncs_clientmainwindowimpl.obj
 0002:000018f4       ??_7bncs_clientMainWindowImpl@@6BQPaintDevice@@@ 004098f4     bncs_clientmainwindowimpl.obj
 0002:00001918       ??_7bncs_clientMainWindowImpl@@6B@ 00409918     bncs_clientmainwindowimpl.obj
 0002:00001948       ??_7?$QPtrList@VsignalConnection@@@@6B@ 00409948     bncs_clientmainwindowimpl.obj
 0002:0000196c       ??_7signalConnectionRefList@@6B@ 0040996c     bncs_clientmainwindowimpl.obj
 0002:0000198c       ??_C@_09DDAHAMBK@CC_SYSTEM?$AA@ 0040998c     bncs_clientmainwindowimpl.obj
 0002:00001998       ??_C@_01KICIPPFI@?2?$AA@   00409998     bncs_clientmainwindowimpl.obj
 0002:0000199c       ??_C@_07JBEBLGDD@CC_ROOT?$AA@ 0040999c     bncs_clientmainwindowimpl.obj
 0002:000019a4       ??_C@_06GPCKMHLM@?1CLOSE?$AA@ 004099a4     bncs_clientmainwindowimpl.obj
 0002:000019ac       ??_C@_02JPINBHIC@EA?$AA@   004099ac     bncs_clientmainwindowimpl.obj
 0002:000019b0       ??_C@_05BGAGFDJI@?$CF1?4?$CF2?$AA@ 004099b0     bncs_clientmainwindowimpl.obj
 0002:000019b8       ??_C@_02PIGFKFFE@?$CF1?$AA@ 004099b8     bncs_clientmainwindowimpl.obj
 0002:000019bc       ??_C@_0BD@MONCFOHL@adding?5argument?5?$CFs?$AA@ 004099bc     bncs_clientmainwindowimpl.obj
 0002:000019d0       ??_C@_0BC@LOGFNIIJ@Cannot?5start?5?$CC?$CF1?$CC?$AA@ 004099d0     bncs_clientmainwindowimpl.obj
 0002:000019e4       ??_C@_0CG@GFHIHLNA@Panel?5Host?5Application?3?5bncs_v45@ 004099e4     bncs_clientmainwindowimpl.obj
 0002:00001a0c       ??_C@_02KNLLHFAA@EC?$AA@   00409a0c     bncs_clientmainwindowimpl.obj
 0002:00001a10       ??_C@_09HHBDIMAF@instance?$DN?$AA@ 00409a10     bncs_clientmainwindowimpl.obj
 0002:00001a1c       ??_C@_0M@GJLBAGLM@bncs_client?$AA@ 00409a1c     bncs_clientmainwindowimpl.obj
 0002:00001a28       ??_C@_0BF@CNMPGPPM@Can?8t?5connect?5to?5CSI?$AA@ 00409a28     bncs_clientmainwindowimpl.obj
 0002:00001a40       ??_C@_01NEMOKFLO@?$DN?$AA@ 00409a40     bncs_clientmainwindowimpl.obj
 0002:00001a44       ??_C@_05MPMEJLBC@?1load?$AA@ 00409a44     bncs_clientmainwindowimpl.obj
 0002:00001a4c       ??_C@_02NEEJNEMO@?1x?$AA@  00409a4c     bncs_clientmainwindowimpl.obj
 0002:00001a50       ??_C@_02MNFCOFIP@?1y?$AA@  00409a50     bncs_clientmainwindowimpl.obj
 0002:00001a54       ??_C@_02FDNBMIAB@?1w?$AA@  00409a54     bncs_clientmainwindowimpl.obj
 0002:00001a58       ??_C@_02JOILMGJP@?1h?$AA@  00409a58     bncs_clientmainwindowimpl.obj
 0002:00001a5c       ??_C@_09PHABPLJF@?1instance?$AA@ 00409a5c     bncs_clientmainwindowimpl.obj
 0002:00001a68       ??_C@_0N@JBCFIAPJ@?$CF1?2panels?2?$CF2?$AA@ 00409a68     bncs_clientmainwindowimpl.obj
 0002:00001a78       ??_C@_0BE@LMFJCPAI@?$CF1?2panels?2?$CF2?2?$CF3?4dll?$AA@ 00409a78     bncs_clientmainwindowimpl.obj
 0002:00001a8c       ??_C@_0BI@DELEGFEN@?$CF1?2panels?2?$CF2?2?$CF3?4bncs_ui?$AA@ 00409a8c     bncs_clientmainwindowimpl.obj
 0002:00001aa4       ??_C@_0BC@FOKNEDCG@path?$DN?$CF1?2panels?2?$CF2?$AA@ 00409aa4     bncs_clientmainwindowimpl.obj
 0002:00001ab8       ??_C@_0BH@CEIAEGLK@1notifyIn?$CI?5QString?5?$CG?5?$CJ?$AA@ 00409ab8     bncs_clientmainwindowimpl.obj
 0002:00001ad0       ??_C@_0BF@EBOIPJED@2notify?$CI?5QString?5?$CG?5?$CJ?$AA@ 00409ad0     bncs_clientmainwindowimpl.obj
 0002:00001ae8       ??_C@_0BD@EHOCENCJ@Cannot?5load?5panel?5?$AA@ 00409ae8     bncs_clientmainwindowimpl.obj
 0002:00001afc       ??_C@_03CEGCICDL@Doh?$AA@  00409afc     bncs_clientmainwindowimpl.obj
 0002:00001b00       ??_C@_0BA@JFNIOLAK@string?5too?5long?$AA@ 00409b00     bncs_clientmainwindowimpl.obj
 0002:00001b10       ??_C@_0BI@CFPLBAOH@invalid?5string?5position?$AA@ 00409b10     bncs_clientmainwindowimpl.obj
 0002:00001b30       __xmm@3ff00000000000003ff0000000000000 00409b30     bncs_clientmainwindowimpl.obj
 0002:00001b40       ??_C@_00CNPNBAHC@?$AA@     00409b40     ccConfig.obj
 0002:00001b44       ??_C@_02DPKJAMEF@?$CFd?$AA@ 00409b44     ccConfig.obj
 0002:00001b48       ??_C@_07IOFNEBNE@?2config?$AA@ 00409b48     ccConfig.obj
 0002:00001b50       ??_C@_0BD@FFAKGAPP@c?3?2bncs_config?4ini?$AA@ 00409b50     ccConfig.obj
 0002:00001b64       ??_C@_0L@DHJBNFFA@ConfigPath?$AA@ 00409b64     ccConfig.obj
 0002:00001b70       ??_C@_06LLCHJONG@Config?$AA@ 00409b70     ccConfig.obj
 0002:00001b78       ??_C@_06KIMFAMMH@WINDIR?$AA@ 00409b78     ccConfig.obj
 0002:00001b80       ??_C@_0P@PKHJHOPF@CC_WORKSTATION?$AA@ 00409b80     ccConfig.obj
 0002:00001b90       ??_C@_0M@CILGCIDH@Workstation?$AA@ 00409b90     ccConfig.obj
 0002:00001b9c       ??_C@_07BGDMAJAE@Network?$AA@ 00409b9c     ccConfig.obj
 0002:00001ba4       ??_C@_0BO@GPPILLIC@config?2system?2bncs_system?4ini?$AA@ 00409ba4     ccConfig.obj
 0002:00001bc4       ??_C@_07PIGLAMMC@csi?4ini?$AA@ 00409bc4     ccConfig.obj
 0002:00001bcc       ??_C@_06JIODDOFH@System?$AA@ 00409bcc     ccConfig.obj
 0002:00001bd4       ??_C@_0N@LDBPMCOK@applcore?4ini?$AA@ 00409bd4     ccConfig.obj
 0002:00001be4       ??_C@_01EEMJAFIK@?6?$AA@   00409be4     ccConfig.obj
 0002:00001be8       ??_C@_0CG@PEKHANBF@Environment?5variable?5CC_ROOT?5not@ 00409be8     main.obj
 0002:00001c10       ??_C@_0CI@CGJOBJDM@Environment?5variable?5CC_SYSTEM?5n@ 00409c10     main.obj
 0002:00001c38       ??_C@_0CN@CIOPCBKB@Environment?5variable?5CC_WORKSTAT@ 00409c38     main.obj
 0002:00001c68       ??_C@_0BK@HNKADEDL@?$CF1?1windows?1lib?1qt_plugins?$AA@ 00409c68     main.obj
 0002:00001c84       ??_C@_0DB@LBDFBMEJ@V4?45?5custom?5control?1plugins?5path@ 00409c84     main.obj
 0002:00001cb8       ??_C@_0CF@JLAHCEDA@?6Look?5in?5the?5help?$CB?5?$CIbncs_client?4@ 00409cb8     main.obj
 0002:00001ce0       ??_C@_0BH@PONEIIHL@bncs_client?3?5v4?45?5host?$AA@ 00409ce0     main.obj
 0002:00001cf8       ??_C@_03EMEPGGA@?$CK?$CK?9?$AA@ 00409cf8     main.obj
 0002:00001cfc       ??_C@_07NILBBMKH@?2panels?$AA@ 00409cfc     main.obj
 0002:00001d04       ??_C@_0M@BJDFFDCJ@bncs_style5?$AA@ 00409d04     main.obj
 0002:00001d10       ??_C@_05IHAFCALK@Style?$AA@ 00409d10     main.obj
 0002:00001d18       ??_C@_06CPCBHFIH@Styles?$AA@ 00409d18     main.obj
 0002:00001d20       ??_C@_0N@NMMHDHLP@g_pnlman?4ini?$AA@ 00409d20     main.obj
 0002:00001d30       ??_C@_0CM@CGNNKEII@1singletonMessageReceived?$CI?5const@ 00409d30     main.obj
 0002:00001d5c       ??_C@_0CD@MMNICAAE@2messageReceived?$CI?5const?5QString?$CG@ 00409d5c     main.obj
 0002:00001d84       ??_7bncs_clientMainWindow@@6BQObject@@@ 00409d84     bncs_clientmainwindow.obj
 0002:00001f3c       ??_7bncs_clientMainWindow@@6BQPaintDevice@@@ 00409f3c     bncs_clientmainwindow.obj
 0002:00001f5c       ??_C@_0BG@INMADABN@bncs_clientMainWindow?$AA@ 00409f5c     bncs_clientmainwindow.obj
 0002:00001f80       ??_C@_0P@DMEOIADN@languageChange?$AA@ 00409f80     moc_bncs_clientmainwindow.obj
 0002:00001f9c       ??_C@_0BB@PFEIHPGD@languageChange?$CI?$CJ?$AA@ 00409f9c     moc_bncs_clientmainwindow.obj
 0002:00001fb0       ??_C@_0BK@NPPNBLBM@bncs_clientMainWindowImpl?$AA@ 00409fb0     moc_bncs_clientmainwindowimpl.obj
 0002:00001fcc       ??_C@_02LMMGJAGL@in?$AA@   00409fcc     moc_bncs_clientmainwindowimpl.obj
 0002:00001fdc       ??_C@_08DHDADEEH@notifyIn?$AA@ 00409fdc     moc_bncs_clientmainwindowimpl.obj
 0002:00001ff4       ??_C@_0BJ@FNJIIOEB@singletonMessageReceived?$AA@ 00409ff4     moc_bncs_clientmainwindowimpl.obj
 0002:00002010       ??_C@_02ELMMHJID@te?$AA@   0040a010     moc_bncs_clientmainwindowimpl.obj
 0002:00002014       ??_C@_0M@KEFEHEJI@QTimerEvent?$AA@ 0040a014     moc_bncs_clientmainwindowimpl.obj
 0002:0000202c       ??_C@_0L@JFEEJKKP@timerEvent?$AA@ 0040a02c     moc_bncs_clientmainwindowimpl.obj
 0002:0000205c       ??_C@_0BD@ECIHBICE@notifyIn?$CIQString?$CG?$CJ?$AA@ 0040a05c     moc_bncs_clientmainwindowimpl.obj
 0002:00002070       ??_C@_0CJ@NJCBLNC@singletonMessageReceived?$CIconst?5Q@ 0040a070     moc_bncs_clientmainwindowimpl.obj
 0002:0000209c       ??_C@_0BJ@FLPACOCB@timerEvent?$CIQTimerEvent?$CK?$CJ?$AA@ 0040a09c     moc_bncs_clientmainwindowimpl.obj
 0002:000020b8       ??_C@_0BC@DHCLDELL@IccClientCallback?$AA@ 0040a0b8     moc_bncs_clientmainwindowimpl.obj
 0002:000020d0       ??_7QtSingleApplication@@6B@ 0040a0d0     qtsingleapplication:qtsingleapplication.obj
 0002:00002144       ??_SQWidget@@6BQObject@@@  0040a144     qtsingleapplication:qtsingleapplication_win.obj
 0002:000022f8       ??_SQWidget@@6BQPaintDevice@@@ 0040a2f8     qtsingleapplication:qtsingleapplication_win.obj
 0002:00002318       ??_C@_0BG@JKLICJAA@1activateMainWidget?$CI?$CJ?$AA@ 0040a318     qtsingleapplication:qtsingleapplication_win.obj
 0002:00002330       ??_C@_0CB@LALAPPDK@2messageReceived?$CIconst?5QString?$CG?$CJ@ 0040a330     qtsingleapplication:qtsingleapplication_win.obj
 0002:00002354       ??_C@_0BE@JFAHMHGH@QtSingleApplication?$AA@ 0040a354     qtsingleapplication:moc_qtsingleapplication.obj
 0002:00002368       ??_C@_07ONPBMBOP@message?$AA@ 0040a368     qtsingleapplication:moc_qtsingleapplication.obj
 0002:0000237c       ??_C@_0M@LGIGDHKK@sendMessage?$AA@ 0040a37c     qtsingleapplication:moc_qtsingleapplication.obj
 0002:00002388       ??_C@_07DDHNKDGP@timeout?$AA@ 0040a388     qtsingleapplication:moc_qtsingleapplication.obj
 0002:000023a8       ??_C@_0BD@IIEHKCFN@activateMainWidget?$AA@ 0040a3a8     qtsingleapplication:moc_qtsingleapplication.obj
 0002:000023e0       ??_C@_0BM@CCNODPBP@sendMessage?$CIconst?5QString?$CG?$CJ?$AA@ 0040a3e0     qtsingleapplication:moc_qtsingleapplication.obj
 0002:000023fc       ??_C@_0CA@OFDOBHMJ@sendMessage?$CIconst?5QString?$CG?0int?$CJ?$AA@ 0040a3fc     qtsingleapplication:moc_qtsingleapplication.obj
 0002:0000241c       ??_C@_0BF@EFNFOBCJ@activateMainWidget?$CI?$CJ?$AA@ 0040a41c     qtsingleapplication:moc_qtsingleapplication.obj
 0002:00002440       ??_C@_0BA@INCDCIIK@messageReceived?$AA@ 0040a440     qtsingleapplication:moc_qtsingleapplication.obj
 0002:0000245c       ??_C@_0CA@PAPLDGL@messageReceived?$CIconst?5QString?$CG?$CJ?$AA@ 0040a45c     qtsingleapplication:moc_qtsingleapplication.obj
 0002:00002480       ??_7decodeBNCSString@@6B@  0040a480     decodecaptionstring:decodeBNCSString.obj
 0002:00002488       ??_7type_info@@6B@         0040a488     MSVCRT:ti_inst.obj
 0002:00002494       ??_7?$QMemArray@PAD@@6B@   0040a494     qtmain:qtmain_win.obj
 0002:000024a8       __load_config_used         0040a4a8     MSVCRT:loadcfg.obj
 0002:000024f0       ??_R1A@?0A@EA@QGList@@8    0040a4f0     bncs_clientmainwindowimpl.obj
 0002:0000250c       ??_R3QGList@@8             0040a50c     bncs_clientmainwindowimpl.obj
 0002:0000251c       ??_R2QGList@@8             0040a51c     bncs_clientmainwindowimpl.obj
 0002:00002528       ??_R1A@?0A@EA@QPtrCollection@@8 0040a528     bncs_clientmainwindowimpl.obj
 0002:00002544       ??_R3QPtrCollection@@8     0040a544     bncs_clientmainwindowimpl.obj
 0002:00002554       ??_R2QPtrCollection@@8     0040a554     bncs_clientmainwindowimpl.obj
 0002:0000255c       ??_R4error_category@std@@6B@ 0040a55c     bncs_clientmainwindowimpl.obj
 0002:00002570       ??_R3error_category@std@@8 0040a570     bncs_clientmainwindowimpl.obj
 0002:00002580       ??_R2error_category@std@@8 0040a580     bncs_clientmainwindowimpl.obj
 0002:00002588       ??_R1A@?0A@EA@error_category@std@@8 0040a588     bncs_clientmainwindowimpl.obj
 0002:000025a4       ??_R4_Generic_error_category@std@@6B@ 0040a5a4     bncs_clientmainwindowimpl.obj
 0002:000025b8       ??_R3_Generic_error_category@std@@8 0040a5b8     bncs_clientmainwindowimpl.obj
 0002:000025c8       ??_R2_Generic_error_category@std@@8 0040a5c8     bncs_clientmainwindowimpl.obj
 0002:000025d4       ??_R1A@?0A@EA@_Generic_error_category@std@@8 0040a5d4     bncs_clientmainwindowimpl.obj
 0002:000025f0       ??_R4_Iostream_error_category@std@@6B@ 0040a5f0     bncs_clientmainwindowimpl.obj
 0002:00002604       ??_R3_Iostream_error_category@std@@8 0040a604     bncs_clientmainwindowimpl.obj
 0002:00002614       ??_R2_Iostream_error_category@std@@8 0040a614     bncs_clientmainwindowimpl.obj
 0002:00002624       ??_R1A@?0A@EA@_Iostream_error_category@std@@8 0040a624     bncs_clientmainwindowimpl.obj
 0002:00002640       ??_R4_System_error_category@std@@6B@ 0040a640     bncs_clientmainwindowimpl.obj
 0002:00002654       ??_R3_System_error_category@std@@8 0040a654     bncs_clientmainwindowimpl.obj
 0002:00002664       ??_R2_System_error_category@std@@8 0040a664     bncs_clientmainwindowimpl.obj
 0002:00002674       ??_R1A@?0A@EA@_System_error_category@std@@8 0040a674     bncs_clientmainwindowimpl.obj
 0002:00002690       ??_R4IccClientCallback@@6B@ 0040a690     bncs_clientmainwindowimpl.obj
 0002:000026a4       ??_R3IccClientCallback@@8  0040a6a4     bncs_clientmainwindowimpl.obj
 0002:000026b4       ??_R2IccClientCallback@@8  0040a6b4     bncs_clientmainwindowimpl.obj
 0002:000026bc       ??_R1A@?0A@EA@IccClientCallback@@8 0040a6bc     bncs_clientmainwindowimpl.obj
 0002:000026d8       ??_R4bncs_clientMainWindowImpl@@6BQObject@@@ 0040a6d8     bncs_clientmainwindowimpl.obj
 0002:000026ec       ??_R3bncs_clientMainWindowImpl@@8 0040a6ec     bncs_clientmainwindowimpl.obj
 0002:000026fc       ??_R2bncs_clientMainWindowImpl@@8 0040a6fc     bncs_clientmainwindowimpl.obj
 0002:0000271c       ??_R1A@?0A@EA@bncs_clientMainWindowImpl@@8 0040a71c     bncs_clientmainwindowimpl.obj
 0002:00002738       ??_R1A@?0A@EA@bncs_clientMainWindow@@8 0040a738     bncs_clientmainwindowimpl.obj
 0002:00002754       ??_R3bncs_clientMainWindow@@8 0040a754     bncs_clientmainwindowimpl.obj
 0002:00002764       ??_R2bncs_clientMainWindow@@8 0040a764     bncs_clientmainwindowimpl.obj
 0002:0000277c       ??_R1A@?0A@EA@QWidget@@8   0040a77c     bncs_clientmainwindowimpl.obj
 0002:00002798       ??_R3QWidget@@8            0040a798     bncs_clientmainwindowimpl.obj
 0002:000027a8       ??_R2QWidget@@8            0040a7a8     bncs_clientmainwindowimpl.obj
 0002:000027bc       ??_R1A@?0A@EA@QObject@@8   0040a7bc     bncs_clientmainwindowimpl.obj
 0002:000027d8       ??_R3QObject@@8            0040a7d8     bncs_clientmainwindowimpl.obj
 0002:000027e8       ??_R2QObject@@8            0040a7e8     bncs_clientmainwindowimpl.obj
 0002:000027f4       ??_R13?0A@EA@Qt@@8         0040a7f4     bncs_clientmainwindowimpl.obj
 0002:00002810       ??_R3Qt@@8                 0040a810     bncs_clientmainwindowimpl.obj
 0002:00002820       ??_R2Qt@@8                 0040a820     bncs_clientmainwindowimpl.obj
 0002:00002828       ??_R1A@?0A@EA@Qt@@8        0040a828     bncs_clientmainwindowimpl.obj
 0002:00002844       ??_R1CI@?0A@EA@QPaintDevice@@8 0040a844     bncs_clientmainwindowimpl.obj
 0002:00002860       ??_R3QPaintDevice@@8       0040a860     bncs_clientmainwindowimpl.obj
 0002:00002870       ??_R2QPaintDevice@@8       0040a870     bncs_clientmainwindowimpl.obj
 0002:00002878       ??_R1A@?0A@EA@QPaintDevice@@8 0040a878     bncs_clientmainwindowimpl.obj
 0002:00002894       ??_R1GM@?0A@EN@IccClientCallback@@8 0040a894     bncs_clientmainwindowimpl.obj
 0002:000028b0       ??_R4bncs_clientMainWindowImpl@@6BQPaintDevice@@@ 0040a8b0     bncs_clientmainwindowimpl.obj
 0002:000028c4       ??_R4bncs_clientMainWindowImpl@@6B@ 0040a8c4     bncs_clientmainwindowimpl.obj
 0002:000028d8       ??_R4signalConnectionRefList@@6B@ 0040a8d8     bncs_clientmainwindowimpl.obj
 0002:000028ec       ??_R3signalConnectionRefList@@8 0040a8ec     bncs_clientmainwindowimpl.obj
 0002:000028fc       ??_R2signalConnectionRefList@@8 0040a8fc     bncs_clientmainwindowimpl.obj
 0002:00002910       ??_R1A@?0A@EA@signalConnectionRefList@@8 0040a910     bncs_clientmainwindowimpl.obj
 0002:0000292c       ??_R1A@?0A@EA@?$QPtrList@VsignalConnection@@@@8 0040a92c     bncs_clientmainwindowimpl.obj
 0002:00002948       ??_R3?$QPtrList@VsignalConnection@@@@8 0040a948     bncs_clientmainwindowimpl.obj
 0002:00002958       ??_R2?$QPtrList@VsignalConnection@@@@8 0040a958     bncs_clientmainwindowimpl.obj
 0002:00002968       ??_R4?$QPtrList@VsignalConnection@@@@6B@ 0040a968     bncs_clientmainwindowimpl.obj
 0002:0000297c       ??_R4bncs_clientMainWindow@@6BQObject@@@ 0040a97c     bncs_clientmainwindow.obj
 0002:00002990       ??_R4bncs_clientMainWindow@@6BQPaintDevice@@@ 0040a990     bncs_clientmainwindow.obj
 0002:000029a4       ??_R4QtSingleApplication@@6B@ 0040a9a4     qtsingleapplication:qtsingleapplication.obj
 0002:000029b8       ??_R3QtSingleApplication@@8 0040a9b8     qtsingleapplication:qtsingleapplication.obj
 0002:000029c8       ??_R2QtSingleApplication@@8 0040a9c8     qtsingleapplication:qtsingleapplication.obj
 0002:000029dc       ??_R1A@?0A@EA@QtSingleApplication@@8 0040a9dc     qtsingleapplication:qtsingleapplication.obj
 0002:000029f8       ??_R1A@?0A@EA@QApplication@@8 0040a9f8     qtsingleapplication:qtsingleapplication.obj
 0002:00002a14       ??_R3QApplication@@8       0040aa14     qtsingleapplication:qtsingleapplication.obj
 0002:00002a24       ??_R2QApplication@@8       0040aa24     qtsingleapplication:qtsingleapplication.obj
 0002:00002a34       ??_R4QWidget@@6BQObject@@@ 0040aa34     qtsingleapplication:qtsingleapplication_win.obj
 0002:00002a48       ??_R4QWidget@@6BQPaintDevice@@@ 0040aa48     qtsingleapplication:qtsingleapplication_win.obj
 0002:00002a5c       ??_R4decodeBNCSString@@6B@ 0040aa5c     decodecaptionstring:decodeBNCSString.obj
 0002:00002a70       ??_R3decodeBNCSString@@8   0040aa70     decodecaptionstring:decodeBNCSString.obj
 0002:00002a80       ??_R2decodeBNCSString@@8   0040aa80     decodecaptionstring:decodeBNCSString.obj
 0002:00002a88       ??_R1A@?0A@EA@decodeBNCSString@@8 0040aa88     decodecaptionstring:decodeBNCSString.obj
 0002:00002aa4       ??_R4type_info@@6B@        0040aaa4     MSVCRT:ti_inst.obj
 0002:00002ab8       ??_R3type_info@@8          0040aab8     MSVCRT:ti_inst.obj
 0002:00002ac8       ??_R2type_info@@8          0040aac8     MSVCRT:ti_inst.obj
 0002:00002ad0       ??_R1A@?0A@EA@type_info@@8 0040aad0     MSVCRT:ti_inst.obj
 0002:00002aec       ___rtc_iaa                 0040aaec     MSVCRT:initsect.obj
 0002:00002af0       ___rtc_izz                 0040aaf0     MSVCRT:initsect.obj
 0002:00002af4       ___rtc_taa                 0040aaf4     MSVCRT:initsect.obj
 0002:00002af8       ___rtc_tzz                 0040aaf8     MSVCRT:initsect.obj
 0002:00004ce0       __IMPORT_DESCRIPTOR_bncs_shim_loader 0040cce0     bncs_shim_loader:bncs_shim_loader.dll
 0002:00004cf4       __IMPORT_DESCRIPTOR_dcw    0040ccf4     dcw:dcw.dll
 0002:00004d08       __IMPORT_DESCRIPTOR_qt-mt323 0040cd08     qt-mt323:qt-mt323.dll
 0002:00004d1c       __IMPORT_DESCRIPTOR_KERNEL32 0040cd1c     kernel32:KERNEL32.dll
 0002:00004d30       __IMPORT_DESCRIPTOR_USER32 0040cd30     user32:USER32.dll
 0002:00004d44       __IMPORT_DESCRIPTOR_MSVCP120 0040cd44     msvcprt:MSVCP120.dll
 0002:00004d58       __IMPORT_DESCRIPTOR_MSVCR120 0040cd58     MSVCRT:MSVCR120.dll
 0002:00004d6c       __NULL_IMPORT_DESCRIPTOR   0040cd6c     bncs_shim_loader:bncs_shim_loader.dll
 0003:0000027c       ?_Generic_object@?$_Error_objects@H@std@@2V_Generic_error_category@2@A 0041027c     bncs_clientmainwindowimpl.obj
 0003:00000280       ?_Iostream_object@?$_Error_objects@H@std@@2V_Iostream_error_category@2@A 00410280     bncs_clientmainwindowimpl.obj
 0003:00000284       ?_System_object@?$_Error_objects@H@std@@2V_System_error_category@2@A 00410284     bncs_clientmainwindowimpl.obj
 0003:00000320       ___security_cookie         00410320     MSVCRT:gs_cookie.obj
 0003:00000324       ___security_cookie_complement 00410324     MSVCRT:gs_cookie.obj
 0003:00000330       ___defaultmatherr          00410330     MSVCRT:merr.obj
 0003:00000334       ___globallocalestatus      00410334     MSVCRT:xthdloc.obj
 0003:00000338       ___native_dllmain_reason   00410338     MSVCRT:natstart.obj
 0003:0000033c       ??_R0?AVQGList@@@8         0041033c     bncs_clientmainwindowimpl.obj
 0003:00000354       ??_R0?AVQPtrCollection@@@8 00410354     bncs_clientmainwindowimpl.obj
 0003:00000374       ??_R0?AVerror_category@std@@@8 00410374     bncs_clientmainwindowimpl.obj
 0003:00000398       ??_R0?AV_Generic_error_category@std@@@8 00410398     bncs_clientmainwindowimpl.obj
 0003:000003c4       ??_R0?AV_Iostream_error_category@std@@@8 004103c4     bncs_clientmainwindowimpl.obj
 0003:000003f0       ??_R0?AV_System_error_category@std@@@8 004103f0     bncs_clientmainwindowimpl.obj
 0003:0000041c       ??_R0?AVIccClientCallback@@@8 0041041c     bncs_clientmainwindowimpl.obj
 0003:0000043c       ??_R0?AVbncs_clientMainWindowImpl@@@8 0041043c     bncs_clientmainwindowimpl.obj
 0003:00000464       ??_R0?AVbncs_clientMainWindow@@@8 00410464     bncs_clientmainwindowimpl.obj
 0003:00000488       ??_R0?AVQWidget@@@8        00410488     bncs_clientmainwindowimpl.obj
 0003:000004a0       ??_R0?AVQObject@@@8        004104a0     bncs_clientmainwindowimpl.obj
 0003:000004b8       ??_R0?AVQt@@@8             004104b8     bncs_clientmainwindowimpl.obj
 0003:000004cc       ??_R0?AVQPaintDevice@@@8   004104cc     bncs_clientmainwindowimpl.obj
 0003:000004e8       ??_R0?AVsignalConnectionRefList@@@8 004104e8     bncs_clientmainwindowimpl.obj
 0003:00000510       ??_R0?AV?$QPtrList@VsignalConnection@@@@@8 00410510     bncs_clientmainwindowimpl.obj
 0003:00000540       ??_R0?AVQtSingleApplication@@@8 00410540     qtsingleapplication:qtsingleapplication.obj
 0003:00000564       ??_R0?AVQApplication@@@8   00410564     qtsingleapplication:qtsingleapplication.obj
 0003:00000580       ??_R0?AVdecodeBNCSString@@@8 00410580     decodecaptionstring:decodeBNCSString.obj
 0003:000005a0       ??_R0?AVtype_info@@@8      004105a0     MSVCRT:ti_inst.obj
 0003:000005bc       ?id@?$num_put@DV?$back_insert_iterator@V?$basic_string@DU?$char_traits@D@std@@V?$allocator@D@2@@std@@@std@@@std@@2V0locale@2@A 004105bc     bncs_clientmainwindowimpl.obj
 0003:000005c0       ?id@?$num_put@_WV?$back_insert_iterator@V?$basic_string@_WU?$char_traits@_W@std@@V?$allocator@_W@2@@std@@@std@@@std@@2V0locale@2@A 004105c0     bncs_clientmainwindowimpl.obj
 0003:000005cc       ?metaObj@bncs_clientMainWindow@@0PAVQMetaObject@@A 004105cc     moc_bncs_clientmainwindow.obj
 0003:000005d4       ?metaObj@bncs_clientMainWindowImpl@@0PAVQMetaObject@@A 004105d4     moc_bncs_clientmainwindowimpl.obj
 0003:000005f4       ?metaObj@QtSingleApplication@@0PAVQMetaObject@@A 004105f4     qtsingleapplication:moc_qtsingleapplication.obj
 0003:00000990       __commode                  00410990     MSVCRT:xncommod.obj
 0003:00000994       __dowildcard               00410994     MSVCRT:wildcard.obj
 0003:00000998       __newmode                  00410998     MSVCRT:_newmode.obj
 0003:0000099c       __fmode                    0041099c     MSVCRT:xtxtmode.obj
 0003:000009a0       ___native_startup_lock     004109a0     <common>
 0003:000009a4       ___native_startup_state    004109a4     <common>
 0003:000009a8       ___dyn_tls_init_callback   004109a8     <common>
 0003:000009ac       ___onexitend               004109ac     <common>
 0003:000009b0       ___onexitbegin             004109b0     <common>

 entry point at        0001:00005204

 Static symbols

 0001:000000c0       ??__E?_Generic_object@?$_Error_objects@H@std@@2V_Generic_error_category@2@A@@YAXXZ 004010c0 f   bncs_clientmainwindowimpl.obj
 0001:000000d0       ??__E?_Iostream_object@?$_Error_objects@H@std@@2V_Iostream_error_category@2@A@@YAXXZ 004010d0 f   bncs_clientmainwindowimpl.obj
 0001:000000e0       ??__E?_System_object@?$_Error_objects@H@std@@2V_System_error_category@2@A@@YAXXZ 004010e0 f   bncs_clientmainwindowimpl.obj
 0001:000000f0       ??__EcleanUp_bncs_clientMainWindow@@YAXXZ 004010f0 f   moc_bncs_clientmainwindow.obj
 0001:00000120       ??__EcleanUp_bncs_clientMainWindowImpl@@YAXXZ 00401120 f   moc_bncs_clientmainwindowimpl.obj
 0001:00000150       ??__EcleanUp_QtSingleApplication@@YAXXZ 00401150 f   qtsingleapplication:moc_qtsingleapplication.obj
 0001:000009e6       __catch$?_Copy@?$basic_string@DU?$char_traits@D@std@@V?$allocator@D@2@@std@@QAEXII@Z$0 004019e6 f i bncs_clientmainwindowimpl.obj
 0001:00000a23       __catch$?_Copy@?$basic_string@DU?$char_traits@D@std@@V?$allocator@D@2@@std@@QAEXII@Z$1 00401a23 f i bncs_clientmainwindowimpl.obj
 0001:00005100       _pre_c_init                00406100 f   MSVCRT:crtexew.obj
 0001:000051b9       _pre_cpp_init              004061b9 f   MSVCRT:crtexew.obj
 0001:0000520e       ___tmainCRTStartup         0040620e f   MSVCRT:crtexew.obj
 0001:000053d0       $$000000                   004063d0     MSVCRT:sehprolg4.obj
 0001:000058b0       __unwindfunclet$??0bncs_clientMainWindowImpl@@QAE@PAVQWidget@@PBDI@Z$0 004068b0 f   bncs_clientmainwindowimpl.obj
 0001:000058b8       __unwindfunclet$??0bncs_clientMainWindowImpl@@QAE@PAVQWidget@@PBDI@Z$1 004068b8 f   bncs_clientmainwindowimpl.obj
 0001:000058c1       __ehhandler$??0bncs_clientMainWindowImpl@@QAE@PAVQWidget@@PBDI@Z 004068c1 f   bncs_clientmainwindowimpl.obj
 0001:000058e0       __unwindfunclet$??0signalConnection@@QAE@ABV0@@Z$0 004068e0 f   bncs_clientmainwindowimpl.obj
 0001:000058e9       __unwindfunclet$??0signalConnection@@QAE@ABV0@@Z$1 004068e9 f   bncs_clientmainwindowimpl.obj
 0001:000058f5       __unwindfunclet$??0signalConnection@@QAE@ABV0@@Z$2 004068f5 f   bncs_clientmainwindowimpl.obj
 0001:00005901       __unwindfunclet$??0signalConnection@@QAE@ABV0@@Z$3 00406901 f   bncs_clientmainwindowimpl.obj
 0001:0000590d       __ehhandler$??0signalConnection@@QAE@ABV0@@Z 0040690d f   bncs_clientmainwindowimpl.obj
 0001:00005930       __unwindfunclet$??0signalConnection@@QAE@ABVQString@@0000@Z$0 00406930 f   bncs_clientmainwindowimpl.obj
 0001:00005939       __unwindfunclet$??0signalConnection@@QAE@ABVQString@@0000@Z$1 00406939 f   bncs_clientmainwindowimpl.obj
 0001:00005945       __unwindfunclet$??0signalConnection@@QAE@ABVQString@@0000@Z$2 00406945 f   bncs_clientmainwindowimpl.obj
 0001:00005951       __unwindfunclet$??0signalConnection@@QAE@ABVQString@@0000@Z$3 00406951 f   bncs_clientmainwindowimpl.obj
 0001:0000595d       __unwindfunclet$??0signalConnection@@QAE@ABVQString@@0000@Z$4 0040695d f   bncs_clientmainwindowimpl.obj
 0001:00005969       __ehhandler$??0signalConnection@@QAE@ABVQString@@0000@Z 00406969 f   bncs_clientmainwindowimpl.obj
 0001:00005990       __unwindfunclet$??1?$QPtrList@VsignalConnection@@@@UAE@XZ$0 00406990 f   bncs_clientmainwindowimpl.obj
 0001:00005999       __ehhandler$??1?$QPtrList@VsignalConnection@@@@UAE@XZ 00406999 f   bncs_clientmainwindowimpl.obj
 0001:000059c0       __unwindfunclet$??1signalConnection@@QAE@XZ$0 004069c0 f   bncs_clientmainwindowimpl.obj
 0001:000059c9       __unwindfunclet$??1signalConnection@@QAE@XZ$1 004069c9 f   bncs_clientmainwindowimpl.obj
 0001:000059d5       __unwindfunclet$??1signalConnection@@QAE@XZ$2 004069d5 f   bncs_clientmainwindowimpl.obj
 0001:000059e1       __unwindfunclet$??1signalConnection@@QAE@XZ$3 004069e1 f   bncs_clientmainwindowimpl.obj
 0001:000059ed       __ehhandler$??1signalConnection@@QAE@XZ 004069ed f   bncs_clientmainwindowimpl.obj
 0001:00005a10       __unwindfunclet$??1signalConnectionRefList@@UAE@XZ$0 00406a10 f   bncs_clientmainwindowimpl.obj
 0001:00005a18       __unwindfunclet$??1signalConnectionRefList@@UAE@XZ$1 00406a18 f   bncs_clientmainwindowimpl.obj
 0001:00005a21       __ehhandler$??1signalConnectionRefList@@UAE@XZ 00406a21 f   bncs_clientmainwindowimpl.obj
 0001:00005a40       __unwindfunclet$??_E?$QPtrList@VsignalConnection@@@@UAEPAXI@Z$0 00406a40 f   bncs_clientmainwindowimpl.obj
 0001:00005a49       __ehhandler$??_E?$QPtrList@VsignalConnection@@@@UAEPAXI@Z 00406a49 f   bncs_clientmainwindowimpl.obj
 0001:00005a70       __unwindfunclet$??_EsignalConnectionRefList@@UAEPAXI@Z$0 00406a70 f   bncs_clientmainwindowimpl.obj
 0001:00005a78       __unwindfunclet$??_EsignalConnectionRefList@@UAEPAXI@Z$1 00406a78 f   bncs_clientmainwindowimpl.obj
 0001:00005a81       __ehhandler$??_EsignalConnectionRefList@@UAEPAXI@Z 00406a81 f   bncs_clientmainwindowimpl.obj
 0001:00005aa0       __ehhandler$?_Copy@?$basic_string@DU?$char_traits@D@std@@V?$allocator@D@2@@std@@QAEXII@Z 00406aa0 f   bncs_clientmainwindowimpl.obj
 0001:00005ac0       __unwindfunclet$?deleteItem@?$QPtrList@VsignalConnection@@@@EAEXPAX@Z$0 00406ac0 f   bncs_clientmainwindowimpl.obj
 0001:00005ac9       __unwindfunclet$?deleteItem@?$QPtrList@VsignalConnection@@@@EAEXPAX@Z$1 00406ac9 f   bncs_clientmainwindowimpl.obj
 0001:00005ad5       __unwindfunclet$?deleteItem@?$QPtrList@VsignalConnection@@@@EAEXPAX@Z$2 00406ad5 f   bncs_clientmainwindowimpl.obj
 0001:00005ae1       __unwindfunclet$?deleteItem@?$QPtrList@VsignalConnection@@@@EAEXPAX@Z$3 00406ae1 f   bncs_clientmainwindowimpl.obj
 0001:00005aed       __ehhandler$?deleteItem@?$QPtrList@VsignalConnection@@@@EAEXPAX@Z 00406aed f   bncs_clientmainwindowimpl.obj
 0001:00005b10       __unwindfunclet$?notifyIn@bncs_clientMainWindowImpl@@QAEXAAVQString@@@Z$0 00406b10 f   bncs_clientmainwindowimpl.obj
 0001:00005b1b       __unwindfunclet$?notifyIn@bncs_clientMainWindowImpl@@QAEXAAVQString@@@Z$1 00406b1b f   bncs_clientmainwindowimpl.obj
 0001:00005b24       __unwindfunclet$?notifyIn@bncs_clientMainWindowImpl@@QAEXAAVQString@@@Z$2 00406b24 f   bncs_clientmainwindowimpl.obj
 0001:00005b2d       __unwindfunclet$?notifyIn@bncs_clientMainWindowImpl@@QAEXAAVQString@@@Z$3 00406b2d f   bncs_clientmainwindowimpl.obj
 0001:00005b36       __unwindfunclet$?notifyIn@bncs_clientMainWindowImpl@@QAEXAAVQString@@@Z$4 00406b36 f   bncs_clientmainwindowimpl.obj
 0001:00005b3f       __unwindfunclet$?notifyIn@bncs_clientMainWindowImpl@@QAEXAAVQString@@@Z$5 00406b3f f   bncs_clientmainwindowimpl.obj
 0001:00005b48       __unwindfunclet$?notifyIn@bncs_clientMainWindowImpl@@QAEXAAVQString@@@Z$6 00406b48 f   bncs_clientmainwindowimpl.obj
 0001:00005b51       __unwindfunclet$?notifyIn@bncs_clientMainWindowImpl@@QAEXAAVQString@@@Z$7 00406b51 f   bncs_clientmainwindowimpl.obj
 0001:00005b5a       __unwindfunclet$?notifyIn@bncs_clientMainWindowImpl@@QAEXAAVQString@@@Z$8 00406b5a f   bncs_clientmainwindowimpl.obj
 0001:00005b63       __unwindfunclet$?notifyIn@bncs_clientMainWindowImpl@@QAEXAAVQString@@@Z$9 00406b63 f   bncs_clientmainwindowimpl.obj
 0001:00005b6c       __unwindfunclet$?notifyIn@bncs_clientMainWindowImpl@@QAEXAAVQString@@@Z$10 00406b6c f   bncs_clientmainwindowimpl.obj
 0001:00005b75       __unwindfunclet$?notifyIn@bncs_clientMainWindowImpl@@QAEXAAVQString@@@Z$11 00406b75 f   bncs_clientmainwindowimpl.obj
 0001:00005b7e       __unwindfunclet$?notifyIn@bncs_clientMainWindowImpl@@QAEXAAVQString@@@Z$12 00406b7e f   bncs_clientmainwindowimpl.obj
 0001:00005b87       __unwindfunclet$?notifyIn@bncs_clientMainWindowImpl@@QAEXAAVQString@@@Z$13 00406b87 f   bncs_clientmainwindowimpl.obj
 0001:00005b90       __unwindfunclet$?notifyIn@bncs_clientMainWindowImpl@@QAEXAAVQString@@@Z$14 00406b90 f   bncs_clientmainwindowimpl.obj
 0001:00005b99       __unwindfunclet$?notifyIn@bncs_clientMainWindowImpl@@QAEXAAVQString@@@Z$15 00406b99 f   bncs_clientmainwindowimpl.obj
 0001:00005ba2       __unwindfunclet$?notifyIn@bncs_clientMainWindowImpl@@QAEXAAVQString@@@Z$16 00406ba2 f   bncs_clientmainwindowimpl.obj
 0001:00005bae       __unwindfunclet$?notifyIn@bncs_clientMainWindowImpl@@QAEXAAVQString@@@Z$17 00406bae f   bncs_clientmainwindowimpl.obj
 0001:00005bb7       __unwindfunclet$?notifyIn@bncs_clientMainWindowImpl@@QAEXAAVQString@@@Z$18 00406bb7 f   bncs_clientmainwindowimpl.obj
 0001:00005bc0       __unwindfunclet$?notifyIn@bncs_clientMainWindowImpl@@QAEXAAVQString@@@Z$19 00406bc0 f   bncs_clientmainwindowimpl.obj
 0001:00005bc9       __unwindfunclet$?notifyIn@bncs_clientMainWindowImpl@@QAEXAAVQString@@@Z$20 00406bc9 f   bncs_clientmainwindowimpl.obj
 0001:00005bd2       __unwindfunclet$?notifyIn@bncs_clientMainWindowImpl@@QAEXAAVQString@@@Z$21 00406bd2 f   bncs_clientmainwindowimpl.obj
 0001:00005bdb       __unwindfunclet$?notifyIn@bncs_clientMainWindowImpl@@QAEXAAVQString@@@Z$22 00406bdb f   bncs_clientmainwindowimpl.obj
 0001:00005be4       __unwindfunclet$?notifyIn@bncs_clientMainWindowImpl@@QAEXAAVQString@@@Z$23 00406be4 f   bncs_clientmainwindowimpl.obj
 0001:00005bed       __unwindfunclet$?notifyIn@bncs_clientMainWindowImpl@@QAEXAAVQString@@@Z$24 00406bed f   bncs_clientmainwindowimpl.obj
 0001:00005bf6       __ehhandler$?notifyIn@bncs_clientMainWindowImpl@@QAEXAAVQString@@@Z 00406bf6 f   bncs_clientmainwindowimpl.obj
 0001:00005c20       __unwindfunclet$?path@global@@SA?AVQString@@XZ$0 00406c20 f   bncs_clientmainwindowimpl.obj
 0001:00005c29       __unwindfunclet$?path@global@@SA?AVQString@@XZ$1 00406c29 f   bncs_clientmainwindowimpl.obj
 0001:00005c32       __unwindfunclet$?path@global@@SA?AVQString@@XZ$2 00406c32 f   bncs_clientmainwindowimpl.obj
 0001:00005c4c       __ehhandler$?path@global@@SA?AVQString@@XZ 00406c4c f   bncs_clientmainwindowimpl.obj
 0001:00005c70       __unwindfunclet$?singletonMessageReceived@bncs_clientMainWindowImpl@@QAEXABVQString@@@Z$0 00406c70 f   bncs_clientmainwindowimpl.obj
 0001:00005c79       __ehhandler$?singletonMessageReceived@bncs_clientMainWindowImpl@@QAEXABVQString@@@Z 00406c79 f   bncs_clientmainwindowimpl.obj
 0001:00005ca0       __unwindfunclet$?timerEvent@bncs_clientMainWindowImpl@@UAEXPAVQTimerEvent@@@Z$0 00406ca0 f   bncs_clientmainwindowimpl.obj
 0001:00005ca9       __unwindfunclet$?timerEvent@bncs_clientMainWindowImpl@@UAEXPAVQTimerEvent@@@Z$1 00406ca9 f   bncs_clientmainwindowimpl.obj
 0001:00005cb2       __unwindfunclet$?timerEvent@bncs_clientMainWindowImpl@@UAEXPAVQTimerEvent@@@Z$2 00406cb2 f   bncs_clientmainwindowimpl.obj
 0001:00005cbb       __unwindfunclet$?timerEvent@bncs_clientMainWindowImpl@@UAEXPAVQTimerEvent@@@Z$3 00406cbb f   bncs_clientmainwindowimpl.obj
 0001:00005cc4       __unwindfunclet$?timerEvent@bncs_clientMainWindowImpl@@UAEXPAVQTimerEvent@@@Z$4 00406cc4 f   bncs_clientmainwindowimpl.obj
 0001:00005ccd       __unwindfunclet$?timerEvent@bncs_clientMainWindowImpl@@UAEXPAVQTimerEvent@@@Z$5 00406ccd f   bncs_clientmainwindowimpl.obj
 0001:00005cd6       __unwindfunclet$?timerEvent@bncs_clientMainWindowImpl@@UAEXPAVQTimerEvent@@@Z$6 00406cd6 f   bncs_clientmainwindowimpl.obj
 0001:00005cdf       __unwindfunclet$?timerEvent@bncs_clientMainWindowImpl@@UAEXPAVQTimerEvent@@@Z$7 00406cdf f   bncs_clientmainwindowimpl.obj
 0001:00005ce8       __unwindfunclet$?timerEvent@bncs_clientMainWindowImpl@@UAEXPAVQTimerEvent@@@Z$8 00406ce8 f   bncs_clientmainwindowimpl.obj
 0001:00005cf1       __unwindfunclet$?timerEvent@bncs_clientMainWindowImpl@@UAEXPAVQTimerEvent@@@Z$9 00406cf1 f   bncs_clientmainwindowimpl.obj
 0001:00005cfa       __unwindfunclet$?timerEvent@bncs_clientMainWindowImpl@@UAEXPAVQTimerEvent@@@Z$10 00406cfa f   bncs_clientmainwindowimpl.obj
 0001:00005d03       __unwindfunclet$?timerEvent@bncs_clientMainWindowImpl@@UAEXPAVQTimerEvent@@@Z$11 00406d03 f   bncs_clientmainwindowimpl.obj
 0001:00005d0c       __unwindfunclet$?timerEvent@bncs_clientMainWindowImpl@@UAEXPAVQTimerEvent@@@Z$12 00406d0c f   bncs_clientmainwindowimpl.obj
 0001:00005d15       __unwindfunclet$?timerEvent@bncs_clientMainWindowImpl@@UAEXPAVQTimerEvent@@@Z$13 00406d15 f   bncs_clientmainwindowimpl.obj
 0001:00005d1e       __unwindfunclet$?timerEvent@bncs_clientMainWindowImpl@@UAEXPAVQTimerEvent@@@Z$14 00406d1e f   bncs_clientmainwindowimpl.obj
 0001:00005d27       __unwindfunclet$?timerEvent@bncs_clientMainWindowImpl@@UAEXPAVQTimerEvent@@@Z$15 00406d27 f   bncs_clientmainwindowimpl.obj
 0001:00005d30       __unwindfunclet$?timerEvent@bncs_clientMainWindowImpl@@UAEXPAVQTimerEvent@@@Z$16 00406d30 f   bncs_clientmainwindowimpl.obj
 0001:00005d39       __unwindfunclet$?timerEvent@bncs_clientMainWindowImpl@@UAEXPAVQTimerEvent@@@Z$17 00406d39 f   bncs_clientmainwindowimpl.obj
 0001:00005d42       __unwindfunclet$?timerEvent@bncs_clientMainWindowImpl@@UAEXPAVQTimerEvent@@@Z$18 00406d42 f   bncs_clientmainwindowimpl.obj
 0001:00005d4b       __unwindfunclet$?timerEvent@bncs_clientMainWindowImpl@@UAEXPAVQTimerEvent@@@Z$19 00406d4b f   bncs_clientmainwindowimpl.obj
 0001:00005d65       __unwindfunclet$?timerEvent@bncs_clientMainWindowImpl@@UAEXPAVQTimerEvent@@@Z$20 00406d65 f   bncs_clientmainwindowimpl.obj
 0001:00005d7f       __unwindfunclet$?timerEvent@bncs_clientMainWindowImpl@@UAEXPAVQTimerEvent@@@Z$21 00406d7f f   bncs_clientmainwindowimpl.obj
 0001:00005d88       __unwindfunclet$?timerEvent@bncs_clientMainWindowImpl@@UAEXPAVQTimerEvent@@@Z$22 00406d88 f   bncs_clientmainwindowimpl.obj
 0001:00005d91       __unwindfunclet$?timerEvent@bncs_clientMainWindowImpl@@UAEXPAVQTimerEvent@@@Z$23 00406d91 f   bncs_clientmainwindowimpl.obj
 0001:00005d9a       __unwindfunclet$?timerEvent@bncs_clientMainWindowImpl@@UAEXPAVQTimerEvent@@@Z$24 00406d9a f   bncs_clientmainwindowimpl.obj
 0001:00005da3       __unwindfunclet$?timerEvent@bncs_clientMainWindowImpl@@UAEXPAVQTimerEvent@@@Z$25 00406da3 f   bncs_clientmainwindowimpl.obj
 0001:00005dac       __unwindfunclet$?timerEvent@bncs_clientMainWindowImpl@@UAEXPAVQTimerEvent@@@Z$26 00406dac f   bncs_clientmainwindowimpl.obj
 0001:00005db5       __unwindfunclet$?timerEvent@bncs_clientMainWindowImpl@@UAEXPAVQTimerEvent@@@Z$27 00406db5 f   bncs_clientmainwindowimpl.obj
 0001:00005dbe       __unwindfunclet$?timerEvent@bncs_clientMainWindowImpl@@UAEXPAVQTimerEvent@@@Z$28 00406dbe f   bncs_clientmainwindowimpl.obj
 0001:00005dc7       __unwindfunclet$?timerEvent@bncs_clientMainWindowImpl@@UAEXPAVQTimerEvent@@@Z$29 00406dc7 f   bncs_clientmainwindowimpl.obj
 0001:00005dd0       __unwindfunclet$?timerEvent@bncs_clientMainWindowImpl@@UAEXPAVQTimerEvent@@@Z$30 00406dd0 f   bncs_clientmainwindowimpl.obj
 0001:00005dd9       __unwindfunclet$?timerEvent@bncs_clientMainWindowImpl@@UAEXPAVQTimerEvent@@@Z$31 00406dd9 f   bncs_clientmainwindowimpl.obj
 0001:00005de2       __unwindfunclet$?timerEvent@bncs_clientMainWindowImpl@@UAEXPAVQTimerEvent@@@Z$32 00406de2 f   bncs_clientmainwindowimpl.obj
 0001:00005deb       __unwindfunclet$?timerEvent@bncs_clientMainWindowImpl@@UAEXPAVQTimerEvent@@@Z$33 00406deb f   bncs_clientmainwindowimpl.obj
 0001:00005df4       __unwindfunclet$?timerEvent@bncs_clientMainWindowImpl@@UAEXPAVQTimerEvent@@@Z$34 00406df4 f   bncs_clientmainwindowimpl.obj
 0001:00005dff       __unwindfunclet$?timerEvent@bncs_clientMainWindowImpl@@UAEXPAVQTimerEvent@@@Z$35 00406dff f   bncs_clientmainwindowimpl.obj
 0001:00005e08       __unwindfunclet$?timerEvent@bncs_clientMainWindowImpl@@UAEXPAVQTimerEvent@@@Z$36 00406e08 f   bncs_clientmainwindowimpl.obj
 0001:00005e11       __unwindfunclet$?timerEvent@bncs_clientMainWindowImpl@@UAEXPAVQTimerEvent@@@Z$37 00406e11 f   bncs_clientmainwindowimpl.obj
 0001:00005e1a       __unwindfunclet$?timerEvent@bncs_clientMainWindowImpl@@UAEXPAVQTimerEvent@@@Z$38 00406e1a f   bncs_clientmainwindowimpl.obj
 0001:00005e23       __unwindfunclet$?timerEvent@bncs_clientMainWindowImpl@@UAEXPAVQTimerEvent@@@Z$39 00406e23 f   bncs_clientmainwindowimpl.obj
 0001:00005e2c       __unwindfunclet$?timerEvent@bncs_clientMainWindowImpl@@UAEXPAVQTimerEvent@@@Z$40 00406e2c f   bncs_clientmainwindowimpl.obj
 0001:00005e35       __unwindfunclet$?timerEvent@bncs_clientMainWindowImpl@@UAEXPAVQTimerEvent@@@Z$41 00406e35 f   bncs_clientmainwindowimpl.obj
 0001:00005e3e       __unwindfunclet$?timerEvent@bncs_clientMainWindowImpl@@UAEXPAVQTimerEvent@@@Z$42 00406e3e f   bncs_clientmainwindowimpl.obj
 0001:00005e47       __ehhandler$?timerEvent@bncs_clientMainWindowImpl@@UAEXPAVQTimerEvent@@@Z 00406e47 f   bncs_clientmainwindowimpl.obj
 0001:00005e70       __unwindfunclet$??$?HDU?$char_traits@D@std@@V?$allocator@D@1@@std@@YA?AV?$basic_string@DU?$char_traits@D@std@@V?$allocator@D@2@@0@ABV10@PBD@Z$0 00406e70 f   ccConfig.obj
 0001:00005e89       __ehhandler$??$?HDU?$char_traits@D@std@@V?$allocator@D@1@@std@@YA?AV?$basic_string@DU?$char_traits@D@std@@V?$allocator@D@2@@0@ABV10@PBD@Z 00406e89 f   ccConfig.obj
 0001:00005eb0       __unwindfunclet$?getDevPath@ccConfig@@SA?AV?$basic_string@DU?$char_traits@D@std@@V?$allocator@D@2@@std@@XZ$0 00406eb0 f   ccConfig.obj
 0001:00005ebb       __unwindfunclet$?getDevPath@ccConfig@@SA?AV?$basic_string@DU?$char_traits@D@std@@V?$allocator@D@2@@std@@XZ$1 00406ebb f   ccConfig.obj
 0001:00005ec6       __unwindfunclet$?getDevPath@ccConfig@@SA?AV?$basic_string@DU?$char_traits@D@std@@V?$allocator@D@2@@std@@XZ$2 00406ec6 f   ccConfig.obj
 0001:00005ed1       __ehhandler$?getDevPath@ccConfig@@SA?AV?$basic_string@DU?$char_traits@D@std@@V?$allocator@D@2@@std@@XZ 00406ed1 f   ccConfig.obj
 0001:00005f00       __unwindfunclet$?getInt@ccConfig@@SAHABV?$basic_string@DU?$char_traits@D@std@@V?$allocator@D@2@@std@@00H_N@Z$0 00406f00 f   ccConfig.obj
 0001:00005f08       __unwindfunclet$?getInt@ccConfig@@SAHABV?$basic_string@DU?$char_traits@D@std@@V?$allocator@D@2@@std@@00H_N@Z$1 00406f08 f   ccConfig.obj
 0001:00005f13       __ehhandler$?getInt@ccConfig@@SAHABV?$basic_string@DU?$char_traits@D@std@@V?$allocator@D@2@@std@@00H_N@Z 00406f13 f   ccConfig.obj
 0001:00005f40       __unwindfunclet$?getString@ccConfig@@SA?AV?$basic_string@DU?$char_traits@D@std@@V?$allocator@D@2@@std@@ABV23@000_N@Z$0 00406f40 f   ccConfig.obj
 0001:00005f4b       __unwindfunclet$?getString@ccConfig@@SA?AV?$basic_string@DU?$char_traits@D@std@@V?$allocator@D@2@@std@@ABV23@000_N@Z$1 00406f4b f   ccConfig.obj
 0001:00005f56       __unwindfunclet$?getString@ccConfig@@SA?AV?$basic_string@DU?$char_traits@D@std@@V?$allocator@D@2@@std@@ABV23@000_N@Z$2 00406f56 f   ccConfig.obj
 0001:00005f61       __ehhandler$?getString@ccConfig@@SA?AV?$basic_string@DU?$char_traits@D@std@@V?$allocator@D@2@@std@@ABV23@000_N@Z 00406f61 f   ccConfig.obj
 0001:00005fa0       __unwindfunclet$?workstation@ccConfig@@SAHXZ$0 00406fa0 f   ccConfig.obj
 0001:00005fa8       __unwindfunclet$?workstation@ccConfig@@SAHXZ$1 00406fa8 f   ccConfig.obj
 0001:00005fb0       __unwindfunclet$?workstation@ccConfig@@SAHXZ$2 00406fb0 f   ccConfig.obj
 0001:00005fb8       __unwindfunclet$?workstation@ccConfig@@SAHXZ$3 00406fb8 f   ccConfig.obj
 0001:00005fc0       __unwindfunclet$?workstation@ccConfig@@SAHXZ$4 00406fc0 f   ccConfig.obj
 0001:00005fc8       __unwindfunclet$?workstation@ccConfig@@SAHXZ$5 00406fc8 f   ccConfig.obj
 0001:00005fd0       __unwindfunclet$?workstation@ccConfig@@SAHXZ$6 00406fd0 f   ccConfig.obj
 0001:00005fdb       __unwindfunclet$?workstation@ccConfig@@SAHXZ$7 00406fdb f   ccConfig.obj
 0001:00005fe6       __unwindfunclet$?workstation@ccConfig@@SAHXZ$8 00406fe6 f   ccConfig.obj
 0001:00005fee       __ehhandler$?workstation@ccConfig@@SAHXZ 00406fee f   ccConfig.obj
 0001:00006020       __unwindfunclet$_main$0    00407020 f   main.obj
 0001:0000602c       __unwindfunclet$_main$1    0040702c f   main.obj
 0001:00006038       __unwindfunclet$_main$2    00407038 f   main.obj
 0001:00006044       __unwindfunclet$_main$3    00407044 f   main.obj
 0001:00006050       __unwindfunclet$_main$4    00407050 f   main.obj
 0001:0000605c       __unwindfunclet$_main$5    0040705c f   main.obj
 0001:00006068       __unwindfunclet$_main$6    00407068 f   main.obj
 0001:00006074       __unwindfunclet$_main$7    00407074 f   main.obj
 0001:00006080       __unwindfunclet$_main$8    00407080 f   main.obj
 0001:0000608c       __unwindfunclet$_main$9    0040708c f   main.obj
 0001:00006098       __unwindfunclet$_main$10   00407098 f   main.obj
 0001:000060a4       __unwindfunclet$_main$11   004070a4 f   main.obj
 0001:000060b0       __unwindfunclet$_main$12   004070b0 f   main.obj
 0001:000060bc       __unwindfunclet$_main$13   004070bc f   main.obj
 0001:000060c8       __unwindfunclet$_main$14   004070c8 f   main.obj
 0001:000060d4       __unwindfunclet$_main$15   004070d4 f   main.obj
 0001:000060e0       __unwindfunclet$_main$16   004070e0 f   main.obj
 0001:000060ec       __unwindfunclet$_main$17   004070ec f   main.obj
 0001:000060f8       __unwindfunclet$_main$18   004070f8 f   main.obj
 0001:00006104       __unwindfunclet$_main$19   00407104 f   main.obj
 0001:00006110       __unwindfunclet$_main$20   00407110 f   main.obj
 0001:0000611c       __unwindfunclet$_main$21   0040711c f   main.obj
 0001:00006128       __unwindfunclet$_main$22   00407128 f   main.obj
 0001:00006134       __unwindfunclet$_main$23   00407134 f   main.obj
 0001:0000613f       __unwindfunclet$_main$24   0040713f f   main.obj
 0001:0000614b       __unwindfunclet$_main$26   0040714b f   main.obj
 0001:00006157       __unwindfunclet$_main$27   00407157 f   main.obj
 0001:00006163       __unwindfunclet$_main$28   00407163 f   main.obj
 0001:0000616f       __unwindfunclet$_main$29   0040716f f   main.obj
 0001:0000617b       __unwindfunclet$_main$30   0040717b f   main.obj
 0001:00006187       __unwindfunclet$_main$31   00407187 f   main.obj
 0001:0000618f       __unwindfunclet$_main$32   0040718f f   main.obj
 0001:00006197       __unwindfunclet$_main$33   00407197 f   main.obj
 0001:0000619f       __unwindfunclet$_main$34   0040719f f   main.obj
 0001:000061a7       __unwindfunclet$_main$35   004071a7 f   main.obj
 0001:000061b2       __unwindfunclet$_main$36   004071b2 f   main.obj
 0001:000061be       __unwindfunclet$_main$37   004071be f   main.obj
 0001:000061c9       __unwindfunclet$_main$25   004071c9 f   main.obj
 0001:000061d5       __ehhandler$_main          004071d5 f   main.obj
 0001:00006200       __unwindfunclet$??0bncs_clientMainWindow@@QAE@PAVQWidget@@PBDI@Z$0 00407200 f   bncs_clientmainwindow.obj
 0001:00006209       __ehhandler$??0bncs_clientMainWindow@@QAE@PAVQWidget@@PBDI@Z 00407209 f   bncs_clientmainwindow.obj
 0001:00006230       __unwindfunclet$??0QtSingleApplication@@QAE@ABVQString@@AAHPAPADW4Type@QApplication@@@Z$0 00407230 f   qtsingleapplication:qtsingleapplication.obj
 0001:00006239       __unwindfunclet$??0QtSingleApplication@@QAE@ABVQString@@AAHPAPADW4Type@QApplication@@@Z$1 00407239 f   qtsingleapplication:qtsingleapplication.obj
 0001:00006244       __ehhandler$??0QtSingleApplication@@QAE@ABVQString@@AAHPAPADW4Type@QApplication@@@Z 00407244 f   qtsingleapplication:qtsingleapplication.obj
 0001:00006260       __unwindfunclet$??1QtSingleApplication@@UAE@XZ$0 00407260 f   qtsingleapplication:qtsingleapplication.obj
 0001:00006269       __ehhandler$??1QtSingleApplication@@UAE@XZ 00407269 f   qtsingleapplication:qtsingleapplication.obj
 0001:00006290       __unwindfunclet$?initialize@QtSingleApplication@@QAEX_N@Z$0 00407290 f   qtsingleapplication:qtsingleapplication_win.obj
 0001:0000629b       __unwindfunclet$?initialize@QtSingleApplication@@QAEX_N@Z$1 0040729b f   qtsingleapplication:qtsingleapplication_win.obj
 0001:000062a4       __ehhandler$?initialize@QtSingleApplication@@QAEX_N@Z 004072a4 f   qtsingleapplication:qtsingleapplication_win.obj
 0001:000062c0       __unwindfunclet$?sendMessage@QtSingleApplication@@QAE_NABVQString@@H@Z$0 004072c0 f   qtsingleapplication:qtsingleapplication_win.obj
 0001:000062c9       __ehhandler$?sendMessage@QtSingleApplication@@QAE_NABVQString@@H@Z 004072c9 f   qtsingleapplication:qtsingleapplication_win.obj
 0001:000062f0       __unwindfunclet$?winEventFilter@QtSingleApplication@@MAE_NPAUtagMSG@@@Z$0 004072f0 f   qtsingleapplication:qtsingleapplication_win.obj
 0001:000062f9       __ehhandler$?winEventFilter@QtSingleApplication@@MAE_NPAUtagMSG@@@Z 004072f9 f   qtsingleapplication:qtsingleapplication_win.obj
 0001:00006320       __unwindfunclet$?messageReceived@QtSingleApplication@@IAEXABVQString@@@Z$0 00407320 f   qtsingleapplication:moc_qtsingleapplication.obj
 0001:00006329       __ehhandler$?messageReceived@QtSingleApplication@@IAEXABVQString@@@Z 00407329 f   qtsingleapplication:moc_qtsingleapplication.obj
 0001:00006350       ??__F?_Generic_object@?$_Error_objects@H@std@@2V_Generic_error_category@2@A@@YAXXZ 00407350 f   bncs_clientmainwindowimpl.obj
 0001:00006360       ??__F?_Iostream_object@?$_Error_objects@H@std@@2V_Iostream_error_category@2@A@@YAXXZ 00407360 f   bncs_clientmainwindowimpl.obj
 0001:00006370       ??__F?_System_object@?$_Error_objects@H@std@@2V_System_error_category@2@A@@YAXXZ 00407370 f   bncs_clientmainwindowimpl.obj
 0001:00006380       ??__FcleanUp_bncs_clientMainWindow@@YAXXZ 00407380 f   moc_bncs_clientmainwindow.obj
 0001:00006390       ??__FcleanUp_bncs_clientMainWindowImpl@@YAXXZ 00407390 f   moc_bncs_clientmainwindowimpl.obj
 0001:000063a0       ??__FcleanUp_QtSingleApplication@@YAXXZ 004073a0 f   qtsingleapplication:moc_qtsingleapplication.obj
 0002:0000053c       _pcppinit                  0040853c     MSVCRT:crtexew.obj
 0002:00000540       ?_Generic_object$initializer$@?$_Error_objects@H@std@@2P6AXXZA 00408540     bncs_clientmainwindowimpl.obj
 0002:00000544       ?_Iostream_object$initializer$@?$_Error_objects@H@std@@2P6AXXZA 00408544     bncs_clientmainwindowimpl.obj
 0002:00000548       ?_System_object$initializer$@?$_Error_objects@H@std@@2P6AXXZA 00408548     bncs_clientmainwindowimpl.obj
 0002:0000054c       _cleanUp_bncs_clientMainWindow$initializer$ 0040854c     moc_bncs_clientmainwindow.obj
 0002:00000550       _cleanUp_bncs_clientMainWindowImpl$initializer$ 00408550     moc_bncs_clientmainwindowimpl.obj
 0002:00000554       _cleanUp_QtSingleApplication$initializer$ 00408554     qtsingleapplication:moc_qtsingleapplication.obj
 0002:00000560       _pcinit                    00408560     MSVCRT:crtexew.obj
 0002:00000564       _pinit                     00408564     MSVCRT:atonexit.obj
 0002:00000568       _pinit                     00408568     MSVCRT:crtexew.obj
 0002:00001f74       ?slot_0@?3??staticMetaObject@bncs_clientMainWindow@@SAPAVQMetaObject@@XZ@4UQUMethod@@B 00409f74     moc_bncs_clientmainwindow.obj
 0002:00001f90       ?slot_tbl@?3??staticMetaObject@bncs_clientMainWindow@@SAPAVQMetaObject@@XZ@4QBUQMetaData@@B 00409f90     moc_bncs_clientmainwindow.obj
 0002:00001fd0       ?slot_0@?3??staticMetaObject@bncs_clientMainWindowImpl@@SAPAVQMetaObject@@XZ@4UQUMethod@@B 00409fd0     moc_bncs_clientmainwindowimpl.obj
 0002:00001fe8       ?slot_1@?3??staticMetaObject@bncs_clientMainWindowImpl@@SAPAVQMetaObject@@XZ@4UQUMethod@@B 00409fe8     moc_bncs_clientmainwindowimpl.obj
 0002:00002020       ?slot_2@?3??staticMetaObject@bncs_clientMainWindowImpl@@SAPAVQMetaObject@@XZ@4UQUMethod@@B 0040a020     moc_bncs_clientmainwindowimpl.obj
 0002:00002038       ?slot_tbl@?3??staticMetaObject@bncs_clientMainWindowImpl@@SAPAVQMetaObject@@XZ@4QBUQMetaData@@B 0040a038     moc_bncs_clientmainwindowimpl.obj
 0002:00002370       ?slot_0@?3??staticMetaObject@QtSingleApplication@@SAPAVQMetaObject@@XZ@4UQUMethod@@B 0040a370     qtsingleapplication:moc_qtsingleapplication.obj
 0002:00002390       ?slot_1@?3??staticMetaObject@QtSingleApplication@@SAPAVQMetaObject@@XZ@4UQUMethod@@B 0040a390     qtsingleapplication:moc_qtsingleapplication.obj
 0002:0000239c       ?slot_2@?3??staticMetaObject@QtSingleApplication@@SAPAVQMetaObject@@XZ@4UQUMethod@@B 0040a39c     qtsingleapplication:moc_qtsingleapplication.obj
 0002:000023bc       ?slot_tbl@?3??staticMetaObject@QtSingleApplication@@SAPAVQMetaObject@@XZ@4QBUQMetaData@@B 0040a3bc     qtsingleapplication:moc_qtsingleapplication.obj
 0002:00002434       ?signal_0@?3??staticMetaObject@QtSingleApplication@@SAPAVQMetaObject@@XZ@4UQUMethod@@B 0040a434     qtsingleapplication:moc_qtsingleapplication.obj
 0002:00002450       ?signal_tbl@?3??staticMetaObject@QtSingleApplication@@SAPAVQMetaObject@@XZ@4QBUQMetaData@@B 0040a450     qtsingleapplication:moc_qtsingleapplication.obj
 0002:0000248c       _GS_ExceptionPointers      0040a48c     MSVCRT:gs_report.obj
 0002:00002b00       __catchsym$?_Copy@?$basic_string@DU?$char_traits@D@std@@V?$allocator@D@2@@std@@QAEXII@Z$5 0040ab00     bncs_clientmainwindowimpl.obj
 0002:00002b10       __catchsym$?_Copy@?$basic_string@DU?$char_traits@D@std@@V?$allocator@D@2@@std@@QAEXII@Z$4 0040ab10     bncs_clientmainwindowimpl.obj
 0002:00002b20       __unwindtable$?_Copy@?$basic_string@DU?$char_traits@D@std@@V?$allocator@D@2@@std@@QAEXII@Z 0040ab20     bncs_clientmainwindowimpl.obj
 0002:00002b40       __ehfuncinfo$?_Copy@?$basic_string@DU?$char_traits@D@std@@V?$allocator@D@2@@std@@QAEXII@Z 0040ab40     bncs_clientmainwindowimpl.obj
 0002:00002b64       __tryblocktable$?_Copy@?$basic_string@DU?$char_traits@D@std@@V?$allocator@D@2@@std@@QAEXII@Z 0040ab64     bncs_clientmainwindowimpl.obj
 0002:00002b8c       __unwindtable$??0bncs_clientMainWindowImpl@@QAE@PAVQWidget@@PBDI@Z 0040ab8c     bncs_clientmainwindowimpl.obj
 0002:00002b9c       __ehfuncinfo$??0bncs_clientMainWindowImpl@@QAE@PAVQWidget@@PBDI@Z 0040ab9c     bncs_clientmainwindowimpl.obj
 0002:00002bc0       __ehfuncinfo$?notifyIn@bncs_clientMainWindowImpl@@QAEXAAVQString@@@Z 0040abc0     bncs_clientmainwindowimpl.obj
 0002:00002be4       __unwindtable$?notifyIn@bncs_clientMainWindowImpl@@QAEXAAVQString@@@Z 0040abe4     bncs_clientmainwindowimpl.obj
 0002:00002cf4       __unwindtable$?singletonMessageReceived@bncs_clientMainWindowImpl@@QAEXABVQString@@@Z 0040acf4     bncs_clientmainwindowimpl.obj
 0002:00002cfc       __ehfuncinfo$?singletonMessageReceived@bncs_clientMainWindowImpl@@QAEXABVQString@@@Z 0040acfc     bncs_clientmainwindowimpl.obj
 0002:00002d20       __ehfuncinfo$?timerEvent@bncs_clientMainWindowImpl@@UAEXPAVQTimerEvent@@@Z 0040ad20     bncs_clientmainwindowimpl.obj
 0002:00002d44       __unwindtable$?timerEvent@bncs_clientMainWindowImpl@@UAEXPAVQTimerEvent@@@Z 0040ad44     bncs_clientmainwindowimpl.obj
 0002:00002ee4       __ehfuncinfo$??0signalConnection@@QAE@ABVQString@@0000@Z 0040aee4     bncs_clientmainwindowimpl.obj
 0002:00002f08       __unwindtable$??0signalConnection@@QAE@ABVQString@@0000@Z 0040af08     bncs_clientmainwindowimpl.obj
 0002:00002f30       __unwindtable$??1signalConnection@@QAE@XZ 0040af30     bncs_clientmainwindowimpl.obj
 0002:00002f50       __ehfuncinfo$??1signalConnection@@QAE@XZ 0040af50     bncs_clientmainwindowimpl.obj
 0002:00002f74       __unwindtable$??0signalConnection@@QAE@ABV0@@Z 0040af74     bncs_clientmainwindowimpl.obj
 0002:00002f94       __ehfuncinfo$??0signalConnection@@QAE@ABV0@@Z 0040af94     bncs_clientmainwindowimpl.obj
 0002:00002fb8       __unwindtable$??1?$QPtrList@VsignalConnection@@@@UAE@XZ 0040afb8     bncs_clientmainwindowimpl.obj
 0002:00002fc0       __ehfuncinfo$??1?$QPtrList@VsignalConnection@@@@UAE@XZ 0040afc0     bncs_clientmainwindowimpl.obj
 0002:00002fe4       __unwindtable$?deleteItem@?$QPtrList@VsignalConnection@@@@EAEXPAX@Z 0040afe4     bncs_clientmainwindowimpl.obj
 0002:00003004       __ehfuncinfo$?deleteItem@?$QPtrList@VsignalConnection@@@@EAEXPAX@Z 0040b004     bncs_clientmainwindowimpl.obj
 0002:00003028       __unwindtable$??_E?$QPtrList@VsignalConnection@@@@UAEPAXI@Z 0040b028     bncs_clientmainwindowimpl.obj
 0002:00003030       __ehfuncinfo$??_E?$QPtrList@VsignalConnection@@@@UAEPAXI@Z 0040b030     bncs_clientmainwindowimpl.obj
 0002:00003054       __unwindtable$??1signalConnectionRefList@@UAE@XZ 0040b054     bncs_clientmainwindowimpl.obj
 0002:00003064       __ehfuncinfo$??1signalConnectionRefList@@UAE@XZ 0040b064     bncs_clientmainwindowimpl.obj
 0002:00003088       __unwindtable$??_EsignalConnectionRefList@@UAEPAXI@Z 0040b088     bncs_clientmainwindowimpl.obj
 0002:00003098       __ehfuncinfo$??_EsignalConnectionRefList@@UAEPAXI@Z 0040b098     bncs_clientmainwindowimpl.obj
 0002:000030bc       __unwindtable$?path@global@@SA?AVQString@@XZ 0040b0bc     bncs_clientmainwindowimpl.obj
 0002:000030d4       __ehfuncinfo$?path@global@@SA?AVQString@@XZ 0040b0d4     bncs_clientmainwindowimpl.obj
 0002:000030f8       __unwindtable$?getString@ccConfig@@SA?AV?$basic_string@DU?$char_traits@D@std@@V?$allocator@D@2@@std@@ABV23@000_N@Z 0040b0f8     ccConfig.obj
 0002:00003118       __ehfuncinfo$?getString@ccConfig@@SA?AV?$basic_string@DU?$char_traits@D@std@@V?$allocator@D@2@@std@@ABV23@000_N@Z 0040b118     ccConfig.obj
 0002:0000313c       __unwindtable$?getInt@ccConfig@@SAHABV?$basic_string@DU?$char_traits@D@std@@V?$allocator@D@2@@std@@00H_N@Z 0040b13c     ccConfig.obj
 0002:0000314c       __ehfuncinfo$?getInt@ccConfig@@SAHABV?$basic_string@DU?$char_traits@D@std@@V?$allocator@D@2@@std@@00H_N@Z 0040b14c     ccConfig.obj
 0002:00003170       __unwindtable$?getDevPath@ccConfig@@SA?AV?$basic_string@DU?$char_traits@D@std@@V?$allocator@D@2@@std@@XZ 0040b170     ccConfig.obj
 0002:00003188       __ehfuncinfo$?getDevPath@ccConfig@@SA?AV?$basic_string@DU?$char_traits@D@std@@V?$allocator@D@2@@std@@XZ 0040b188     ccConfig.obj
 0002:000031ac       __ehfuncinfo$?workstation@ccConfig@@SAHXZ 0040b1ac     ccConfig.obj
 0002:000031d0       __unwindtable$?workstation@ccConfig@@SAHXZ 0040b1d0     ccConfig.obj
 0002:00003218       __unwindtable$??$?HDU?$char_traits@D@std@@V?$allocator@D@1@@std@@YA?AV?$basic_string@DU?$char_traits@D@std@@V?$allocator@D@2@@0@ABV10@PBD@Z 0040b218     ccConfig.obj
 0002:00003220       __ehfuncinfo$??$?HDU?$char_traits@D@std@@V?$allocator@D@1@@std@@YA?AV?$basic_string@DU?$char_traits@D@std@@V?$allocator@D@2@@0@ABV10@PBD@Z 0040b220     ccConfig.obj
 0002:00003244       __ehfuncinfo$_main         0040b244     main.obj
 0002:00003268       __unwindtable$_main        0040b268     main.obj
 0002:00003400       __unwindtable$??0bncs_clientMainWindow@@QAE@PAVQWidget@@PBDI@Z 0040b400     bncs_clientmainwindow.obj
 0002:00003408       __ehfuncinfo$??0bncs_clientMainWindow@@QAE@PAVQWidget@@PBDI@Z 0040b408     bncs_clientmainwindow.obj
 0002:0000342c       __unwindtable$??0QtSingleApplication@@QAE@ABVQString@@AAHPAPADW4Type@QApplication@@@Z 0040b42c     qtsingleapplication:qtsingleapplication.obj
 0002:0000343c       __ehfuncinfo$??0QtSingleApplication@@QAE@ABVQString@@AAHPAPADW4Type@QApplication@@@Z 0040b43c     qtsingleapplication:qtsingleapplication.obj
 0002:00003460       __unwindtable$??1QtSingleApplication@@UAE@XZ 0040b460     qtsingleapplication:qtsingleapplication.obj
 0002:00003468       __ehfuncinfo$??1QtSingleApplication@@UAE@XZ 0040b468     qtsingleapplication:qtsingleapplication.obj
 0002:0000348c       __unwindtable$?initialize@QtSingleApplication@@QAEX_N@Z 0040b48c     qtsingleapplication:qtsingleapplication_win.obj
 0002:0000349c       __ehfuncinfo$?initialize@QtSingleApplication@@QAEX_N@Z 0040b49c     qtsingleapplication:qtsingleapplication_win.obj
 0002:000034c0       __unwindtable$?winEventFilter@QtSingleApplication@@MAE_NPAUtagMSG@@@Z 0040b4c0     qtsingleapplication:qtsingleapplication_win.obj
 0002:000034c8       __ehfuncinfo$?winEventFilter@QtSingleApplication@@MAE_NPAUtagMSG@@@Z 0040b4c8     qtsingleapplication:qtsingleapplication_win.obj
 0002:000034ec       __unwindtable$?sendMessage@QtSingleApplication@@QAE_NABVQString@@H@Z 0040b4ec     qtsingleapplication:qtsingleapplication_win.obj
 0002:000034f4       __ehfuncinfo$?sendMessage@QtSingleApplication@@QAE_NABVQString@@H@Z 0040b4f4     qtsingleapplication:qtsingleapplication_win.obj
 0002:00003518       __unwindtable$?messageReceived@QtSingleApplication@@IAEXABVQString@@@Z 0040b518     qtsingleapplication:moc_qtsingleapplication.obj
 0002:00003520       __ehfuncinfo$?messageReceived@QtSingleApplication@@IAEXABVQString@@@Z 0040b520     qtsingleapplication:moc_qtsingleapplication.obj
 0002:00003548       __sehtable$??_M@YGXPAXIHP6EX0@Z@Z 0040b548     MSVCRT:ehvecdtr.obj
 0002:00003568       __sehtable$?__ArrayUnwind@@YGXPAXIHP6EX0@Z@Z 0040b568     MSVCRT:ehvecdtr.obj
 0002:00003588       __sehtable$__onexit        0040b588     MSVCRT:atonexit.obj
 0002:000035a8       __sehtable$___tmainCRTStartup 0040b5a8     MSVCRT:crtexew.obj
 0002:000035c8       __sehtable$__IsNonwritableInCurrentImage 0040b5c8     MSVCRT:pesect.obj
 0002:000035f0       .edata                     0040b5f0     bncs_v45_host.exp
 0002:00003618       rgpv                       0040b618     bncs_v45_host.exp
 0002:00003760       rgszName                   0040b760     bncs_v45_host.exp
 0002:000038a8       rgwOrd                     0040b8a8     bncs_v45_host.exp
 0002:0000394c       szName                     0040b94c     bncs_v45_host.exp
 0002:0000395e       $N00001                    0040b95e     bncs_v45_host.exp
 0002:0000398d       $N00002                    0040b98d     bncs_v45_host.exp
 0002:000039b7       $N00003                    0040b9b7     bncs_v45_host.exp
 0002:000039ee       $N00004                    0040b9ee     bncs_v45_host.exp
 0002:00003a43       $N00005                    0040ba43     bncs_v45_host.exp
 0002:00003a64       $N00006                    0040ba64     bncs_v45_host.exp
 0002:00003a90       $N00007                    0040ba90     bncs_v45_host.exp
 0002:00003ab8       $N00008                    0040bab8     bncs_v45_host.exp
 0002:00003adb       $N00009                    0040badb     bncs_v45_host.exp
 0002:00003b05       $N00010                    0040bb05     bncs_v45_host.exp
 0002:00003b46       $N00011                    0040bb46     bncs_v45_host.exp
 0002:00003b70       $N00012                    0040bb70     bncs_v45_host.exp
 0002:00003ba2       $N00013                    0040bba2     bncs_v45_host.exp
 0002:00003bbe       $N00014                    0040bbbe     bncs_v45_host.exp
 0002:00003be1       $N00015                    0040bbe1     bncs_v45_host.exp
 0002:00003c06       $N00016                    0040bc06     bncs_v45_host.exp
 0002:00003c39       $N00017                    0040bc39     bncs_v45_host.exp
 0002:00003c74       $N00018                    0040bc74     bncs_v45_host.exp
 0002:00003c99       $N00019                    0040bc99     bncs_v45_host.exp
 0002:00003cc5       $N00020                    0040bcc5     bncs_v45_host.exp
 0002:00003cf3       $N00021                    0040bcf3     bncs_v45_host.exp
 0002:00003d23       $N00022                    0040bd23     bncs_v45_host.exp
 0002:00003d53       $N00023                    0040bd53     bncs_v45_host.exp
 0002:00003d99       $N00024                    0040bd99     bncs_v45_host.exp
 0002:00003ddf       $N00025                    0040bddf     bncs_v45_host.exp
 0002:00003e25       $N00026                    0040be25     bncs_v45_host.exp
 0002:00003e6b       $N00027                    0040be6b     bncs_v45_host.exp
 0002:00003eb1       $N00028                    0040beb1     bncs_v45_host.exp
 0002:00003ef8       $N00029                    0040bef8     bncs_v45_host.exp
 0002:00003f3f       $N00030                    0040bf3f     bncs_v45_host.exp
 0002:00003f67       $N00031                    0040bf67     bncs_v45_host.exp
 0002:00003f88       $N00032                    0040bf88     bncs_v45_host.exp
 0002:00003fcc       $N00033                    0040bfcc     bncs_v45_host.exp
 0002:0000400c       $N00034                    0040c00c     bncs_v45_host.exp
 0002:00004037       $N00035                    0040c037     bncs_v45_host.exp
 0002:00004070       $N00036                    0040c070     bncs_v45_host.exp
 0002:000040a8       $N00037                    0040c0a8     bncs_v45_host.exp
 0002:00004103       $N00038                    0040c103     bncs_v45_host.exp
 0002:0000415e       $N00039                    0040c15e     bncs_v45_host.exp
 0002:0000418c       $N00040                    0040c18c     bncs_v45_host.exp
 0002:000041ec       $N00041                    0040c1ec     bncs_v45_host.exp
 0002:0000424a       $N00042                    0040c24a     bncs_v45_host.exp
 0002:00004290       $N00043                    0040c290     bncs_v45_host.exp
 0002:000042d9       $N00044                    0040c2d9     bncs_v45_host.exp
 0002:00004307       $N00045                    0040c307     bncs_v45_host.exp
 0002:0000433d       $N00046                    0040c33d     bncs_v45_host.exp
 0002:00004381       $N00047                    0040c381     bncs_v45_host.exp
 0002:000043cd       $N00048                    0040c3cd     bncs_v45_host.exp
 0002:0000440b       $N00049                    0040c40b     bncs_v45_host.exp
 0002:00004441       $N00050                    0040c441     bncs_v45_host.exp
 0002:0000449a       $N00051                    0040c49a     bncs_v45_host.exp
 0002:000044f3       $N00052                    0040c4f3     bncs_v45_host.exp
 0002:00004551       $N00053                    0040c551     bncs_v45_host.exp
 0002:00004593       $N00054                    0040c593     bncs_v45_host.exp
 0002:000045d9       $N00055                    0040c5d9     bncs_v45_host.exp
 0002:00004622       $N00056                    0040c622     bncs_v45_host.exp
 0002:00004667       $N00057                    0040c667     bncs_v45_host.exp
 0002:000046a9       $N00058                    0040c6a9     bncs_v45_host.exp
 0002:000046ee       $N00059                    0040c6ee     bncs_v45_host.exp
 0002:00004732       $N00060                    0040c732     bncs_v45_host.exp
 0002:00004776       $N00061                    0040c776     bncs_v45_host.exp
 0002:000047bc       $N00062                    0040c7bc     bncs_v45_host.exp
 0002:000047ed       $N00063                    0040c7ed     bncs_v45_host.exp
 0002:00004826       $N00064                    0040c826     bncs_v45_host.exp
 0002:00004867       $N00065                    0040c867     bncs_v45_host.exp
 0002:000048a8       $N00066                    0040c8a8     bncs_v45_host.exp
 0002:000048ed       $N00067                    0040c8ed     bncs_v45_host.exp
 0002:0000492e       $N00068                    0040c92e     bncs_v45_host.exp
 0002:0000495f       $N00069                    0040c95f     bncs_v45_host.exp
 0002:000049a4       $N00070                    0040c9a4     bncs_v45_host.exp
 0002:000049d4       $N00071                    0040c9d4     bncs_v45_host.exp
 0002:00004a09       $N00072                    0040ca09     bncs_v45_host.exp
 0002:00004a3d       $N00073                    0040ca3d     bncs_v45_host.exp
 0002:00004a7b       $N00074                    0040ca7b     bncs_v45_host.exp
 0002:00004ac3       $N00075                    0040cac3     bncs_v45_host.exp
 0002:00004b0a       $N00076                    0040cb0a     bncs_v45_host.exp
 0002:00004b37       $N00077                    0040cb37     bncs_v45_host.exp
 0002:00004b79       $N00078                    0040cb79     bncs_v45_host.exp
 0002:00004bba       $N00079                    0040cbba     bncs_v45_host.exp
 0002:00004c0a       $N00080                    0040cc0a     bncs_v45_host.exp
 0002:00004c56       $N00081                    0040cc56     bncs_v45_host.exp
 0002:00004ca1       $N00082                    0040cca1     bncs_v45_host.exp
 0002:00005334       .idata$6                   0040d334     bncs_shim_loader:bncs_shim_loader.dll
 0002:000053b6       .idata$6                   0040d3b6     dcw:dcw.dll
 0002:0000785c       .idata$6                   0040f85c     qt-mt323:qt-mt323.dll
 0002:000078bc       .idata$6                   0040f8bc     kernel32:KERNEL32.dll
 0002:0000799e       .idata$6                   0040f99e     user32:USER32.dll
 0002:00007a44       .idata$6                   0040fa44     msvcprt:MSVCP120.dll
 0002:00007b12       .idata$6                   0040fb12     MSVCRT:MSVCR120.dll
 0003:00000000       _HP_large_Icon_32          00410000     bncs_clientmainwindowimpl.obj
 0003:00000288       _BNCS_CCCONFIG_SIG         00410288     ccConfig.obj
 0003:000002f0       ?param_slot_0@?3??staticMetaObject@bncs_clientMainWindowImpl@@SAPAVQMetaObject@@XZ@4QBUQUParameter@@B 004102f0     moc_bncs_clientmainwindowimpl.obj
 0003:00000300       ?param_slot_2@?3??staticMetaObject@bncs_clientMainWindowImpl@@SAPAVQMetaObject@@XZ@4QBUQUParameter@@B 00410300     moc_bncs_clientmainwindowimpl.obj
 0003:00000310       ?param_signal_0@?3??staticMetaObject@QtSingleApplication@@SAPAVQMetaObject@@XZ@4QBUQUParameter@@B 00410310     qtsingleapplication:moc_qtsingleapplication.obj
 0003:000005b8       __Tuple_alloc              004105b8     bncs_clientmainwindowimpl.obj
 0003:000005b9       _ignore                    004105b9     bncs_clientmainwindowimpl.obj
 0003:000005ba       _allocator_arg             004105ba     bncs_clientmainwindowimpl.obj
 0003:000005bb       _piecewise_construct       004105bb     bncs_clientmainwindowimpl.obj
 0003:000005c4       __Tuple_alloc              004105c4     ccConfig.obj
 0003:000005c5       _ignore                    004105c5     ccConfig.obj
 0003:000005c6       _allocator_arg             004105c6     ccConfig.obj
 0003:000005c7       _piecewise_construct       004105c7     ccConfig.obj
 0003:000005c8       __Tuple_alloc              004105c8     main.obj
 0003:000005c9       _ignore                    004105c9     main.obj
 0003:000005ca       _allocator_arg             004105ca     main.obj
 0003:000005cb       _piecewise_construct       004105cb     main.obj
 0003:000005d0       _cleanUp_bncs_clientMainWindow 004105d0     moc_bncs_clientmainwindow.obj
 0003:000005d8       _allocator_arg             004105d8     moc_bncs_clientmainwindowimpl.obj
 0003:000005d9       _piecewise_construct       004105d9     moc_bncs_clientmainwindowimpl.obj
 0003:000005dc       _cleanUp_bncs_clientMainWindowImpl 004105dc     moc_bncs_clientmainwindowimpl.obj
 0003:000005e0       ?$S1@?3??staticMetaObject@bncs_clientMainWindowImpl@@SAPAVQMetaObject@@XZ@4IA 004105e0     moc_bncs_clientmainwindowimpl.obj
 0003:000005e4       ?param_slot_1@?3??staticMetaObject@bncs_clientMainWindowImpl@@SAPAVQMetaObject@@XZ@4QBUQUParameter@@B 004105e4     moc_bncs_clientmainwindowimpl.obj
 0003:000005f8       _cleanUp_QtSingleApplication 004105f8     qtsingleapplication:moc_qtsingleapplication.obj
 0003:000005fc       ?param_slot_0@?3??staticMetaObject@QtSingleApplication@@SAPAVQMetaObject@@XZ@4QBUQUParameter@@B 004105fc     qtsingleapplication:moc_qtsingleapplication.obj
 0003:0000061c       ?$S1@?3??staticMetaObject@QtSingleApplication@@SAPAVQMetaObject@@XZ@4IA 0041061c     qtsingleapplication:moc_qtsingleapplication.obj
 0003:00000620       ?param_slot_1@?3??staticMetaObject@QtSingleApplication@@SAPAVQMetaObject@@XZ@4QBUQUParameter@@B 00410620     qtsingleapplication:moc_qtsingleapplication.obj
 0003:00000650       _has_cctor                 00410650     MSVCRT:crtexew.obj
 0003:00000654       _mainret                   00410654     MSVCRT:crtexew.obj
 0003:00000658       _managedapp                00410658     MSVCRT:crtexew.obj
 0003:0000065c       _argc                      0041065c     MSVCRT:crtexew.obj
 0003:00000660       _argv                      00410660     MSVCRT:crtexew.obj
 0003:00000664       _envp                      00410664     MSVCRT:crtexew.obj
 0003:00000668       _argret                    00410668     MSVCRT:crtexew.obj
 0003:0000066c       _startinfo                 0041066c     MSVCRT:crtexew.obj
 0003:00000670       _GS_ExceptionRecord        00410670     MSVCRT:gs_report.obj
 0003:000006c0       _GS_ContextRecord          004106c0     MSVCRT:gs_report.obj
 0003:0000098c       _DebuggerWasPresent        0041098c     MSVCRT:gs_report.obj
 0004:00000190       $R000000                   00411190     Script1.res
 0004:00000580       $R0003F0                   00411580     Script1.res
 0004:00001628       $R001498                   00412628     Script1.res
 0004:00003bd0       $R003A40                   00414bd0     Script1.res
 0004:00004038       $R003EA8                   00415038     Script1.res
 0004:00004068       $R003ED8                   00415068     Script1.res
