 bncs_vis_eddb

 Timestamp is 5e9dbadb (Mon Apr 20 16:08:11 2020)

 Preferred load address is 00400000

 Start         Length     Name                   Class
 0001:00000000 0006ca03H .textbss                DATA
 0002:00000000 0000993dH .text                   CODE
 0002:00009940 00002d45H .text$di                CODE
 0002:0000c690 000c018bH .text$mn                CODE
 0002:000cc820 000198d2H .text$x                 CODE
 0002:000e6100 00001e3aH .text$yd                CODE
 0003:00000000 00000104H .CRT$XCA                DATA
 0003:00000104 00000104H .CRT$XCAA               DATA
 0003:00000208 00000272H .CRT$XCU                DATA
 0003:0000047c 00000104H .CRT$XCZ                DATA
 0003:00000580 00000104H .CRT$XIA                DATA
 0003:00000684 00000104H .CRT$XIAA               DATA
 0003:00000788 00000104H .CRT$XIC                DATA
 0003:0000088c 00000104H .CRT$XIY                DATA
 0003:00000990 00000104H .CRT$XIZ                DATA
 0003:00000aa0 0002076aH .rdata                  DATA
 0003:0002120c 00000173H .rdata$debug            DATA
 0003:00021380 00003badH .rdata$r                DATA
 0003:00024f30 00000104H .rtc$IAA                DATA
 0003:00025034 00000298H .rtc$IMZ                DATA
 0003:000252cc 00000104H .rtc$IZZ                DATA
 0003:000253d0 00000104H .rtc$TAA                DATA
 0003:000254d4 00000298H .rtc$TMZ                DATA
 0003:0002576c 00000104H .rtc$TZZ                DATA
 0003:00025870 0000ce70H .xdata$x                DATA
 0003:000326e0 00002904H .edata                  DATA
 0004:00000000 0000456dH .data                   DATA
 0004:00004570 00001282H .data$r                 DATA
 0004:000057f8 00000a64H .bss                    DATA
 0005:00000000 00002748H .idata$5                DATA
 0005:00002748 000000b4H .idata$2                DATA
 0005:000027fc 00000014H .idata$3                DATA
 0005:00002810 00002748H .idata$4                DATA
 0005:00004f58 00016377H .idata$6                DATA
 0006:00000000 000002e0H .rsrc$01                DATA
 0006:000002e0 0000497cH .rsrc$02                DATA

  Address         Publics by Value              Rva+Base       Lib:Object

 0000:00000000       __except_list              00000000     <absolute>
 0000:00000000       ___guard_flags             00000000     <absolute>
 0000:00000000       ___safe_se_handler_count   00000000     <absolute>
 0000:00000000       ___guard_fids_table        00000000     <absolute>
 0000:00000000       ___safe_se_handler_table   00000000     <absolute>
 0000:00000000       ___guard_fids_count        00000000     <absolute>
 0000:00009876       __ldused                   00009876     <absolute>
 0000:00009876       __fltused                  00009876     <absolute>
 0000:00000000       ___ImageBase               00400000     <linker-defined>
 0001:00000000       __enc$textbss$begin        00401000     <linker-defined>
 0001:0006ca03       __enc$textbss$end          0046da03     <linker-defined>
 0002:0000950b       _HtmlHelpA@16              0047750b f   htmlhelp:init.obj
 0002:00009640       _HtmlHelpW@16              00477640 f   htmlhelp:init.obj
 0002:000096ff       _WinMain@16                004776ff f   qtmain:qtmain_win.obj
 0002:000097af       ?detach@?$QMemArray@PAD@@UAEXXZ 004777af f i qtmain:qtmain_win.obj
 0002:000097b9       ??_G?$QMemArray@H@@UAEPAXI@Z 004777b9 f i qtmain:qtmain_win.obj
 0002:000097e6       ??_G?$QMemArray@_N@@UAEPAXI@Z 004777e6 f i qtmain:qtmain_win.obj
 0002:00009813       ??_G?$QMemArray@D@@UAEPAXI@Z 00477813 f i qtmain:qtmain_win.obj
 0002:00009840       ??_G?$QMemArray@VQPoint@@@@UAEPAXI@Z 00477840 f i qtmain:qtmain_win.obj
 0002:0000986d       ??_G?$QPtrList@D@@UAEPAXI@Z 0047786d f i qtmain:qtmain_win.obj
 0002:000098a4       ??_G?$QPtrList@VQObject@@@@UAEPAXI@Z 004778a4 f i qtmain:qtmain_win.obj
 0002:000098db       ??_G?$QPtrList@VQWidget@@@@UAEPAXI@Z 004778db f i qtmain:qtmain_win.obj
 0002:00009912       ??_G?$QMemArray@PAD@@UAEPAXI@Z 00477912 f i qtmain:qtmain_win.obj
 0002:00009912       ??_E?$QMemArray@PAD@@UAEPAXI@Z 00477912 f i qtmain:qtmain_win.obj
 0002:0000c690       ??0controldrag@@QAE@ABVQString@@0PAVQWidget@@0_N@Z 0047a690 f   controldrag.obj
 0002:0000dd70       ??1controldrag@@UAE@XZ     0047bd70 f   controldrag.obj
 0002:0000ddb0       ?readTemplate@controldrag@@AAEXAAVQString@@0@Z 0047bdb0 f   controldrag.obj
 0002:0000e880       ?readTemplate@controldrag@@AAEXAAVQString@@AAVQDomDocument@@VQDomElement@@@Z 0047c880 f   controldrag.obj
 0002:0000f400       ?getNamedNode@controldrag@@AAE?AVQString@@ABV2@0@Z 0047d400 f   controldrag.obj
 0002:0000fbc0       ?getDocumentElement@controldrag@@AAE_NABVQString@@0AAVQDomElement@@AAV2@@Z 0047dbc0 f   controldrag.obj
 0002:00010040       ?Test@controldrag@@AAE?AVQString@@ABV2@0PAVQWidget@@0_NVQDomElement@@V2@@Z 0047e040 f   controldrag.obj
 0002:0001378d       ??_EQTextDrag@@WCI@AEPAXI@Z 0048178d f i controldrag.obj
 0002:000137a0       ??_GQTextDrag@@UAEPAXI@Z   004817a0 f i controldrag.obj
 0002:000137a0       ??_EQTextDrag@@UAEPAXI@Z   004817a0 f i controldrag.obj
 0002:00013820       ??_Gcontroldrag@@UAEPAXI@Z 00481820 f i controldrag.obj
 0002:00013820       ??_Econtroldrag@@UAEPAXI@Z 00481820 f i controldrag.obj
 0002:00013890       ?path@global@@SA?AVQString@@XZ 00481890 f i controldrag.obj
 0002:00013a50       ??0device_list@@QAE@PAVQWidget@@PBDI@Z 00481a50 f   device_list.obj
 0002:00013cd0       ??1device_list@@UAE@XZ     00481cd0 f   device_list.obj
 0002:00013d90       ?load@device_list@@QAEXAAVQString@@@Z 00481d90 f   device_list.obj
 0002:00014db0       ?save@device_list@@QAEXXZ  00482db0 f   device_list.obj
 0002:000151b0       ?close@device_list@@UAE_N_N@Z 004831b0 f   device_list.obj
 0002:00015310       ?contextMenuRequested@device_list@@AAEXPAVQListViewItem@@ABVQPoint@@H@Z 00483310 f   device_list.obj
 0002:00015bb0       ?doubleClicked@device_list@@AAEXPAVQListViewItem@@@Z 00483bb0 f   device_list.obj
 0002:00015f70       ?copy@device_list@@QAEXXZ  00483f70 f   device_list.obj
 0002:00015fc0       ?copy@device_list@@QAEX_N@Z 00483fc0 f   device_list.obj
 0002:00016610       ?cut@device_list@@QAEXXZ   00484610 f   device_list.obj
 0002:00016660       ?paste@device_list@@QAEXXZ 00484660 f   device_list.obj
 0002:00016d00       ?del@device_list@@QAEXXZ   00484d00 f   device_list.obj
 0002:00016fe0       ?undo@device_list@@QAEXXZ  00484fe0 f   device_list.obj
 0002:00017160       ?revert@device_list@@QAEXXZ 00485160 f   device_list.obj
 0002:00017310       ?newline@device_list@@QAEXXZ 00485310 f   device_list.obj
 0002:00017760       ?windowActivationChange@device_list@@EAEX_N@Z 00485760 f   device_list.obj
 0002:000179c0       ?keyPressEvent@device_list@@EAEXPAVQKeyEvent@@@Z 004859c0 f   device_list.obj
 0002:00017b40       ?checkForDuplicates@device_list@@AAEHH@Z 00485b40 f   device_list.obj
 0002:00018f90       ??0?$QPtrStack@Vundo_event@@@@QAE@XZ 00486f90 f i device_list.obj
 0002:00019000       ??0change_undo@@QAE@HAAVQString@@PAVQWidget@@PAVQListViewItem@@V1@33@Z 00487000 f i device_list.obj
 0002:000193b0       ??0delete_undo@@QAE@HAAVQString@@PAVQWidget@@V1@22@Z 004873b0 f i device_list.obj
 0002:00019580       ??0new_undo@@QAE@HAAVQString@@PAVQWidget@@PAVQListViewItem@@@Z 00487580 f i device_list.obj
 0002:00019820       ??0undo_event@@QAE@HAAVQString@@PAVQWidget@@@Z 00487820 f i device_list.obj
 0002:00019910       ??1?$QPtrStack@Vundo_event@@@@UAE@XZ 00487910 f i device_list.obj
 0002:000199d0       ??1undo_event@@QAE@XZ      004879d0 f i device_list.obj
 0002:00019a2f       ??_Edevice_list@@WCI@AEPAXI@Z 00487a2f f i device_list.obj
 0002:00019a40       ??_G?$QPtrStack@Vundo_event@@@@UAEPAXI@Z 00487a40 f i device_list.obj
 0002:00019a40       ??_E?$QPtrStack@Vundo_event@@@@UAEPAXI@Z 00487a40 f i device_list.obj
 0002:00019ab0       ??_GQListViewItem@@UAEPAXI@Z 00487ab0 f i device_list.obj
 0002:00019ab0       ??_EQListViewItem@@UAEPAXI@Z 00487ab0 f i device_list.obj
 0002:00019b30       ??_Gdevice_list@@UAEPAXI@Z 00487b30 f i device_list.obj
 0002:00019b30       ??_Edevice_list@@UAEPAXI@Z 00487b30 f i device_list.obj
 0002:00019ba0       ??_Gundo_event@@QAEPAXI@Z  00487ba0 f i device_list.obj
 0002:00019c10       ?clear@?$QPtrStack@Vundo_event@@@@UAEXXZ 00487c10 f i device_list.obj
 0002:00019c70       ?count@?$QPtrStack@Vundo_event@@@@UBEIXZ 00487c70 f i device_list.obj
 0002:00019cd0       ?current@?$QPtrStack@Vundo_event@@@@QBEPAVundo_event@@XZ 00487cd0 f i device_list.obj
 0002:00019d30       ?deleteItem@?$QPtrStack@Vundo_event@@@@EAEXPAX@Z 00487d30 f i device_list.obj
 0002:00019de0       ?isEmpty@?$QPtrStack@Vundo_event@@@@QBE_NXZ 00487de0 f i device_list.obj
 0002:00019e70       ?metaObject@device_list@@UBEPAVQMetaObject@@XZ 00487e70 f i device_list.obj
 0002:00019ec0       ?nextserial@undo_event@@SAHXZ 00487ec0 f i device_list.obj
 0002:00019f10       ?pop@?$QPtrStack@Vundo_event@@@@QAEPAVundo_event@@XZ 00487f10 f i device_list.obj
 0002:00019f70       ?push@?$QPtrStack@Vundo_event@@@@QAEXPBVundo_event@@@Z 00487f70 f i device_list.obj
 0002:00019fe0       ?serial@undo_event@@QAEHXZ 00487fe0 f i device_list.obj
 0002:0001a020       ?setAutoDelete@?$QPtrStack@Vundo_event@@@@QAEX_N@Z 00488020 f i device_list.obj
 0002:0001a090       ?undo@change_undo@@UAEXXZ  00488090 f i device_list.obj
 0002:0001a460       ?undo@delete_undo@@UAEXXZ  00488460 f i device_list.obj
 0002:0001a770       ?undo@new_undo@@UAEXXZ     00488770 f i device_list.obj
 0002:0001ab30       ??0device_list_edit@@QAE@PAVQWidget@@PBD_NI@Z 00488b30 f   device_list_edit_imp.obj
 0002:0001ac20       ??0device_list_edit@@QAE@PAVQWidget@@PAVQListViewItem@@@Z 00488c20 f   device_list_edit_imp.obj
 0002:0001aea0       ??1device_list_edit@@UAE@XZ 00488ea0 f   device_list_edit_imp.obj
 0002:0001af00       ?loadTypes@device_list_edit@@QAEXXZ 00488f00 f   device_list_edit_imp.obj
 0002:0001b050       ?loadDrivers@device_list_edit@@QAEXXZ 00489050 f   device_list_edit_imp.obj
 0002:0001b1a0       ?xmlToComboBox@device_list_edit@@QAEXVQString@@00PAVQComboBox@@@Z 004891a0 f   device_list_edit_imp.obj
 0002:0001bc76       ??_Edevice_list_edit@@WCI@AEPAXI@Z 00489c76 f i device_list_edit_imp.obj
 0002:0001bc80       ??_Gdevice_list_edit@@UAEPAXI@Z 00489c80 f i device_list_edit_imp.obj
 0002:0001bc80       ??_Edevice_list_edit@@UAEPAXI@Z 00489c80 f i device_list_edit_imp.obj
 0002:0001bcf0       ?metaObject@device_list_editBase@@UBEPAVQMetaObject@@XZ 00489cf0 f i device_list_edit_imp.obj
 0002:0001bd40       ??0deviceTypeListView@@QAE@PAVQWidget@@PBDI@Z 00489d40 f   deviceTypeListView.obj
 0002:0001bf60       ??1deviceTypeListView@@UAE@XZ 00489f60 f   deviceTypeListView.obj
 0002:0001c010       ?load@deviceTypeListView@@QAEXAAVQString@@@Z 0048a010 f   deviceTypeListView.obj
 0002:0001ce60       ?startDrag@deviceTypeListView@@UAEXXZ 0048ae60 f   deviceTypeListView.obj
 0002:0001cec0       ?setWithSlotSet@deviceTypeListView@@QAEX_N@Z 0048aec0 f   deviceTypeListView.obj
 0002:0001d38b       ??_EdeviceTypeListView@@WCI@AEPAXI@Z 0048b38b f i deviceTypeListView.obj
 0002:0001d3a0       ??_GdeviceTypeListView@@UAEPAXI@Z 0048b3a0 f i deviceTypeListView.obj
 0002:0001d3a0       ??_EdeviceTypeListView@@UAEPAXI@Z 0048b3a0 f i deviceTypeListView.obj
 0002:0001d410       ?metaObject@deviceTypeListView@@UBEPAVQMetaObject@@XZ 0048b410 f i deviceTypeListView.obj
 0002:0001d460       ?styleChange@dialog@@EAEXAAVQStyle@@@Z 0048b460 f   dialog.obj
 0002:0001d4d0       ?showEvent@dialog@@EAEXPAVQShowEvent@@@Z 0048b4d0 f   dialog.obj
 0002:0001d550       ?hideEvent@dialog@@EAEXPAVQHideEvent@@@Z 0048b550 f   dialog.obj
 0002:0001d5d0       ??0dialog@@QAE@PAVQWidget@@PAVQMainWindow@@PBDIABVQString@@@Z 0048b5d0 f   dialog.obj
 0002:0001d830       ??1dialog@@UAE@XZ          0048b830 f   dialog.obj
 0002:0001d930       ?close@dialog@@UAE_N_N@Z   0048b930 f   dialog.obj
 0002:0001d9e0       ?setFilename@dialog@@QAEXPBD@Z 0048b9e0 f   dialog.obj
 0002:0001da50       ?windowActivated@dialog@@QAEXPAVQWidget@@@Z 0048ba50 f   dialog.obj
 0002:0001dae0       ?save@dialog@@QAEXXZ       0048bae0 f   dialog.obj
 0002:0001db40       ?saveas@dialog@@QAEXXZ     0048bb40 f   dialog.obj
 0002:0001dba0       ?caption@dialog@@QAEXAAVQString@@@Z 0048bba0 f   dialog.obj
 0002:0001dc00       ?comboBoxesMessage@dialog@@QAEXABVQString@@@Z 0048bc00 f   dialog.obj
 0002:0001de50       ??0?$QPtrList@VsignalConnection@@@@QAE@ABV0@@Z 0048be50 f i dialog.obj
 0002:0001ded0       ??0?$QPtrList@VsignalConnection@@@@QAE@XZ 0048bed0 f i dialog.obj
 0002:0001df40       ??0?$QPtrListIterator@VsignalConnection@@@@QAE@ABV0@@Z 0048bf40 f i dialog.obj
 0002:0001dfb0       ??0?$QPtrListIterator@VsignalConnection@@@@QAE@ABV?$QPtrList@VsignalConnection@@@@@Z 0048bfb0 f i dialog.obj
 0002:0001e020       ??0?$QPtrListStdIterator@VsignalConnection@@@@QAE@PAVQLNode@@@Z 0048c020 f i dialog.obj
 0002:0001e090       ??0_Ignore@std@@QAE@XZ     0048c090 f i dialog.obj
 0002:0001e0d0       ??0signalConnection@@QAE@ABV0@@Z 0048c0d0 f i dialog.obj
 0002:0001e220       ??0signalConnection@@QAE@ABVQString@@0000@Z 0048c220 f i dialog.obj
 0002:0001e3e0       ??0signalConnectionRefList@@QAE@ABV0@@Z 0048c3e0 f i dialog.obj
 0002:0001e450       ??0signalConnectionRefList@@QAE@XZ 0048c450 f i dialog.obj
 0002:0001e4b0       ??0signalConnectionRefListIt@@QAE@ABV0@@Z 0048c4b0 f i dialog.obj
 0002:0001e510       ??0signalConnectionRefListIt@@QAE@ABVsignalConnectionRefList@@@Z 0048c510 f i dialog.obj
 0002:0001e570       ??1?$QPtrList@VsignalConnection@@@@UAE@XZ 0048c570 f i dialog.obj
 0002:0001e630       ??1?$QPtrListIterator@VsignalConnection@@@@QAE@XZ 0048c630 f i dialog.obj
 0002:0001e690       ??1signalConnection@@QAE@XZ 0048c690 f i dialog.obj
 0002:0001e7b0       ??1signalConnectionRefList@@UAE@XZ 0048c7b0 f i dialog.obj
 0002:0001e860       ??1signalConnectionRefListIt@@QAE@XZ 0048c860 f i dialog.obj
 0002:0001e8b0       ??4?$QPtrList@VsignalConnection@@@@QAEAAV0@ABV0@@Z 0048c8b0 f i dialog.obj
 0002:0001e920       ??4?$QPtrListIterator@VsignalConnection@@@@QAEAAV0@ABV0@@Z 0048c920 f i dialog.obj
 0002:0001e990       ??4signalConnection@@QAEAAV0@ABV0@@Z 0048c990 f i dialog.obj
 0002:0001ea90       ??4signalConnectionRefList@@QAEAAV0@ABV0@@Z 0048ca90 f i dialog.obj
 0002:0001eaf0       ??4signalConnectionRefListIt@@QAEAAV0@ABV0@@Z 0048caf0 f i dialog.obj
 0002:0001eb50       ??8?$QPtrList@VsignalConnection@@@@QBE_NABV0@@Z 0048cb50 f i dialog.obj
 0002:0001ebc0       ??9?$QPtrList@VsignalConnection@@@@QBE_NABV0@@Z 0048cbc0 f i dialog.obj
 0002:0001ec50       ??B?$QPtrListIterator@VsignalConnection@@@@QBEPAVsignalConnection@@XZ 0048cc50 f i dialog.obj
 0002:0001ecb0       ??D?$QPtrListIterator@VsignalConnection@@@@QAEPAVsignalConnection@@XZ 0048ccb0 f i dialog.obj
 0002:0001ed10       ??E?$QPtrListIterator@VsignalConnection@@@@QAEPAVsignalConnection@@XZ 0048cd10 f i dialog.obj
 0002:0001ed70       ??F?$QPtrListIterator@VsignalConnection@@@@QAEPAVsignalConnection@@XZ 0048cd70 f i dialog.obj
 0002:0001edd0       ??R?$QPtrListIterator@VsignalConnection@@@@QAEPAVsignalConnection@@XZ 0048cdd0 f i dialog.obj
 0002:0001ee30       ??Y?$QPtrListIterator@VsignalConnection@@@@QAEPAVsignalConnection@@I@Z 0048ce30 f i dialog.obj
 0002:0001eea0       ??Z?$QPtrListIterator@VsignalConnection@@@@QAEPAVsignalConnection@@I@Z 0048cea0 f i dialog.obj
 0002:0001ef10       ??_E?$QPtrList@VsignalConnection@@@@UAEPAXI@Z 0048cf10 f i dialog.obj
 0002:0001efcb       ??_Edialog@@WCI@AEPAXI@Z   0048cfcb f i dialog.obj
 0002:0001efe0       ??_EsignalConnectionRefList@@UAEPAXI@Z 0048cfe0 f i dialog.obj
 0002:0001f0a0       ??_G?$QPtrList@VsignalConnection@@@@UAEPAXI@Z 0048d0a0 f i dialog.obj
 0002:0001f110       ??_Gdialog@@UAEPAXI@Z      0048d110 f i dialog.obj
 0002:0001f110       ??_Edialog@@UAEPAXI@Z      0048d110 f i dialog.obj
 0002:0001f180       ??_GsignalConnection@@QAEPAXI@Z 0048d180 f i dialog.obj
 0002:0001f1f0       ??_GsignalConnectionRefList@@UAEPAXI@Z 0048d1f0 f i dialog.obj
 0002:0001f260       ?append@?$QPtrList@VsignalConnection@@@@QAEXPBVsignalConnection@@@Z 0048d260 f i dialog.obj
 0002:0001f2d0       ?at@?$QPtrList@VsignalConnection@@@@QAEPAVsignalConnection@@I@Z 0048d2d0 f i dialog.obj
 0002:0001f340       ?at@?$QPtrList@VsignalConnection@@@@QBEHXZ 0048d340 f i dialog.obj
 0002:0001f3a0       ?atFirst@?$QPtrListIterator@VsignalConnection@@@@QBE_NXZ 0048d3a0 f i dialog.obj
 0002:0001f400       ?atLast@?$QPtrListIterator@VsignalConnection@@@@QBE_NXZ 0048d400 f i dialog.obj
 0002:0001f460       ?begin@?$QPtrList@VsignalConnection@@@@QAE?AV?$QPtrListStdIterator@VsignalConnection@@@@XZ 0048d460 f i dialog.obj
 0002:0001f4d0       ?begin@?$QPtrList@VsignalConnection@@@@QBE?AV?$QPtrListStdIterator@VsignalConnection@@@@XZ 0048d4d0 f i dialog.obj
 0002:0001f540       ?clear@?$QPtrList@VsignalConnection@@@@UAEXXZ 0048d540 f i dialog.obj
 0002:0001f5a0       ?constBegin@?$QPtrList@VsignalConnection@@@@QBE?AV?$QPtrListStdIterator@VsignalConnection@@@@XZ 0048d5a0 f i dialog.obj
 0002:0001f610       ?constEnd@?$QPtrList@VsignalConnection@@@@QBE?AV?$QPtrListStdIterator@VsignalConnection@@@@XZ 0048d610 f i dialog.obj
 0002:0001f680       ?contains@?$QPtrList@VsignalConnection@@@@QBEIPBVsignalConnection@@@Z 0048d680 f i dialog.obj
 0002:0001f6f0       ?containsRef@?$QPtrList@VsignalConnection@@@@QBEIPBVsignalConnection@@@Z 0048d6f0 f i dialog.obj
 0002:0001f760       ?count@?$QPtrList@VsignalConnection@@@@UBEIXZ 0048d760 f i dialog.obj
 0002:0001f7c0       ?count@?$QPtrListIterator@VsignalConnection@@@@QBEIXZ 0048d7c0 f i dialog.obj
 0002:0001f830       ?current@?$QPtrList@VsignalConnection@@@@QBEPAVsignalConnection@@XZ 0048d830 f i dialog.obj
 0002:0001f890       ?current@?$QPtrListIterator@VsignalConnection@@@@QBEPAVsignalConnection@@XZ 0048d890 f i dialog.obj
 0002:0001f8f0       ?currentNode@?$QPtrList@VsignalConnection@@@@QBEPAVQLNode@@XZ 0048d8f0 f i dialog.obj
 0002:0001f950       ?deleteItem@?$QPtrList@VsignalConnection@@@@EAEXPAX@Z 0048d950 f i dialog.obj
 0002:0001fa00       ?end@?$QPtrList@VsignalConnection@@@@QAE?AV?$QPtrListStdIterator@VsignalConnection@@@@XZ 0048da00 f i dialog.obj
 0002:0001fa70       ?end@?$QPtrList@VsignalConnection@@@@QBE?AV?$QPtrListStdIterator@VsignalConnection@@@@XZ 0048da70 f i dialog.obj
 0002:0001fae0       ?erase@?$QPtrList@VsignalConnection@@@@QAE?AV?$QPtrListStdIterator@VsignalConnection@@@@V2@@Z 0048dae0 f i dialog.obj
 0002:0001fb70       ?find@?$QPtrList@VsignalConnection@@@@QAEHPBVsignalConnection@@@Z 0048db70 f i dialog.obj
 0002:0001fbe0       ?findNext@?$QPtrList@VsignalConnection@@@@QAEHPBVsignalConnection@@@Z 0048dbe0 f i dialog.obj
 0002:0001fc50       ?findNextRef@?$QPtrList@VsignalConnection@@@@QAEHPBVsignalConnection@@@Z 0048dc50 f i dialog.obj
 0002:0001fcc0       ?findRef@?$QPtrList@VsignalConnection@@@@QAEHPBVsignalConnection@@@Z 0048dcc0 f i dialog.obj
 0002:0001fd30       ?first@?$QPtrList@VsignalConnection@@@@QAEPAVsignalConnection@@XZ 0048dd30 f i dialog.obj
 0002:0001fd90       ?getFirst@?$QPtrList@VsignalConnection@@@@QBEPAVsignalConnection@@XZ 0048dd90 f i dialog.obj
 0002:0001fdf0       ?getLast@?$QPtrList@VsignalConnection@@@@QBEPAVsignalConnection@@XZ 0048ddf0 f i dialog.obj
 0002:0001fe50       ?inSort@?$QPtrList@VsignalConnection@@@@QAEXPBVsignalConnection@@@Z 0048de50 f i dialog.obj
 0002:0001fec0       ?insert@?$QPtrList@VsignalConnection@@@@QAE_NIPBVsignalConnection@@@Z 0048dec0 f i dialog.obj
 0002:0001ff30       ?isEmpty@?$QPtrList@VsignalConnection@@@@QBE_NXZ 0048df30 f i dialog.obj
 0002:0001ffc0       ?isEmpty@?$QPtrListIterator@VsignalConnection@@@@QBE_NXZ 0048dfc0 f i dialog.obj
 0002:00020050       ?last@?$QPtrList@VsignalConnection@@@@QAEPAVsignalConnection@@XZ 0048e050 f i dialog.obj
 0002:000200b0       ?metaObject@dialog@@UBEPAVQMetaObject@@XZ 0048e0b0 f i dialog.obj
 0002:00020100       ?next@?$QPtrList@VsignalConnection@@@@QAEPAVsignalConnection@@XZ 0048e100 f i dialog.obj
 0002:00020160       ?prepend@?$QPtrList@VsignalConnection@@@@QAEXPBVsignalConnection@@@Z 0048e160 f i dialog.obj
 0002:000201d0       ?prev@?$QPtrList@VsignalConnection@@@@QAEPAVsignalConnection@@XZ 0048e1d0 f i dialog.obj
 0002:00020230       ?remove@?$QPtrList@VsignalConnection@@@@QAE_NI@Z 0048e230 f i dialog.obj
 0002:000202a0       ?remove@?$QPtrList@VsignalConnection@@@@QAE_NPBVsignalConnection@@@Z 0048e2a0 f i dialog.obj
 0002:00020310       ?remove@?$QPtrList@VsignalConnection@@@@QAE_NXZ 0048e310 f i dialog.obj
 0002:00020370       ?removeFirst@?$QPtrList@VsignalConnection@@@@QAE_NXZ 0048e370 f i dialog.obj
 0002:000203d0       ?removeLast@?$QPtrList@VsignalConnection@@@@QAE_NXZ 0048e3d0 f i dialog.obj
 0002:00020430       ?removeNode@?$QPtrList@VsignalConnection@@@@QAEXPAVQLNode@@@Z 0048e430 f i dialog.obj
 0002:000204a0       ?removeRef@?$QPtrList@VsignalConnection@@@@QAE_NPBVsignalConnection@@@Z 0048e4a0 f i dialog.obj
 0002:00020510       ?replace@?$QPtrList@VsignalConnection@@@@QAE_NIPBVsignalConnection@@@Z 0048e510 f i dialog.obj
 0002:00020580       ?sort@?$QPtrList@VsignalConnection@@@@QAEXXZ 0048e580 f i dialog.obj
 0002:000205e0       ?take@?$QPtrList@VsignalConnection@@@@QAEPAVsignalConnection@@I@Z 0048e5e0 f i dialog.obj
 0002:00020650       ?take@?$QPtrList@VsignalConnection@@@@QAEPAVsignalConnection@@XZ 0048e650 f i dialog.obj
 0002:000206b0       ?takeNode@?$QPtrList@VsignalConnection@@@@QAEPAVsignalConnection@@PAVQLNode@@@Z 0048e6b0 f i dialog.obj
 0002:00020720       ?toFirst@?$QPtrListIterator@VsignalConnection@@@@QAEPAVsignalConnection@@XZ 0048e720 f i dialog.obj
 0002:00020780       ?toLast@?$QPtrListIterator@VsignalConnection@@@@QAEPAVsignalConnection@@XZ 0048e780 f i dialog.obj
 0002:000207e0       ?toVector@?$QPtrList@VsignalConnection@@@@QBEXPAVQGVector@@@Z 0048e7e0 f i dialog.obj
 0002:00020850       _hypot                     0048e850 f i dialog.obj
 0002:000208d0       ??0dialogedit@@QAE@PAVQWidget@@PBD_NI@Z 0048e8d0 f   dialogeditimpl.obj
 0002:00020940       ??1dialogedit@@UAE@XZ      0048e940 f   dialogeditimpl.obj
 0002:000209c2       ??_Edialogedit@@WCI@AEPAXI@Z 0048e9c2 f i dialogeditimpl.obj
 0002:000209d0       ??_Gdialogedit@@UAEPAXI@Z  0048e9d0 f i dialogeditimpl.obj
 0002:000209d0       ??_Edialogedit@@UAEPAXI@Z  0048e9d0 f i dialogeditimpl.obj
 0002:00020a40       ?metaObject@dialogedit@@UBEPAVQMetaObject@@XZ 0048ea40 f i dialogeditimpl.obj
 0002:00020a90       ??0distributeBase@@QAE@PAVQWidget@@PBD_NI@Z 0048ea90 f   distribute.obj
 0002:00021f10       ??1distributeBase@@UAE@XZ  0048ff10 f   distribute.obj
 0002:00021f70       ?languageChange@distributeBase@@MAEXXZ 0048ff70 f   distribute.obj
 0002:00023043       ??_EQButtonGroup@@WCI@AEPAXI@Z 00491043 f i distribute.obj
 0002:0002304d       ??_EQHBoxLayout@@WCI@AEPAXI@Z 0049104d f i distribute.obj
 0002:00023057       ??_EQPushButton@@WCI@AEPAXI@Z 00491057 f i distribute.obj
 0002:00023061       ??_EQRadioButton@@WCI@AEPAXI@Z 00491061 f i distribute.obj
 0002:0002306b       ??_EQVBoxLayout@@WCI@AEPAXI@Z 0049106b f i distribute.obj
 0002:00023075       ??_EdistributeBase@@WCI@AEPAXI@Z 00491075 f i distribute.obj
 0002:00023080       ??_EQButtonGroup@@UAEPAXI@Z 00491080 f i distribute.obj
 0002:00023080       ??_GQButtonGroup@@UAEPAXI@Z 00491080 f i distribute.obj
 0002:00023100       ??_GQHBoxLayout@@UAEPAXI@Z 00491100 f i distribute.obj
 0002:00023100       ??_EQHBoxLayout@@UAEPAXI@Z 00491100 f i distribute.obj
 0002:00023180       ??_EQPushButton@@UAEPAXI@Z 00491180 f i distribute.obj
 0002:00023180       ??_GQPushButton@@UAEPAXI@Z 00491180 f i distribute.obj
 0002:00023200       ??_GQRadioButton@@UAEPAXI@Z 00491200 f i distribute.obj
 0002:00023200       ??_EQRadioButton@@UAEPAXI@Z 00491200 f i distribute.obj
 0002:00023280       ??_GQSpacerItem@@UAEPAXI@Z 00491280 f i distribute.obj
 0002:00023280       ??_EQSpacerItem@@UAEPAXI@Z 00491280 f i distribute.obj
 0002:00023300       ??_EQVBoxLayout@@UAEPAXI@Z 00491300 f i distribute.obj
 0002:00023300       ??_GQVBoxLayout@@UAEPAXI@Z 00491300 f i distribute.obj
 0002:00023380       ??_GdistributeBase@@UAEPAXI@Z 00491380 f i distribute.obj
 0002:00023380       ??_EdistributeBase@@UAEPAXI@Z 00491380 f i distribute.obj
 0002:000233f0       ?metaObject@distributeBase@@UBEPAVQMetaObject@@XZ 004913f0 f i distribute.obj
 0002:00023440       ??0distribute@@QAE@PAVQWidget@@PBD_NI@Z 00491440 f   distributeimpl.obj
 0002:000234b0       ??1distribute@@UAE@XZ      004914b0 f   distributeimpl.obj
 0002:00023532       ??_Edistribute@@WCI@AEPAXI@Z 00491532 f i distributeimpl.obj
 0002:00023540       ??_Gdistribute@@UAEPAXI@Z  00491540 f i distributeimpl.obj
 0002:00023540       ??_Edistribute@@UAEPAXI@Z  00491540 f i distributeimpl.obj
 0002:000235b0       ?metaObject@distribute@@UBEPAVQMetaObject@@XZ 004915b0 f i distributeimpl.obj
 0002:00023600       ??0duplicateDlg@@QAE@PAVQWidget@@PBD_NI@Z 00491600 f   duplicatedlgimpl.obj
 0002:00023670       ??1duplicateDlg@@UAE@XZ    00491670 f   duplicatedlgimpl.obj
 0002:000236f2       ??_EduplicateDlg@@WCI@AEPAXI@Z 004916f2 f i duplicatedlgimpl.obj
 0002:00023700       ??_GduplicateDlg@@UAEPAXI@Z 00491700 f i duplicatedlgimpl.obj
 0002:00023700       ??_EduplicateDlg@@UAEPAXI@Z 00491700 f i duplicatedlgimpl.obj
 0002:00023770       ?metaObject@duplicateDlg@@UBEPAVQMetaObject@@XZ 00491770 f i duplicatedlgimpl.obj
 0002:000237c0       ??0editHandles@@QAE@PAVQWidget@@0_N@Z 004917c0 f   editHandles.obj
 0002:00023a70       ??1editHandles@@UAE@XZ     00491a70 f   editHandles.obj
 0002:00023ad0       ?paintEvent@editHandles@@MAEXPAVQPaintEvent@@@Z 00491ad0 f   editHandles.obj
 0002:00023da0       ?resizeEvent@editHandles@@MAEXPAVQResizeEvent@@@Z 00491da0 f   editHandles.obj
 0002:00024410       ?mouseMoveEvent@editHandles@@MAEXPAVQMouseEvent@@@Z 00492410 f   editHandles.obj
 0002:00025040       ?mousePressEvent@editHandles@@MAEXPAVQMouseEvent@@@Z 00493040 f   editHandles.obj
 0002:00025110       ?mouseReleaseEvent@editHandles@@MAEXPAVQMouseEvent@@@Z 00493110 f   editHandles.obj
 0002:000253a0       ?getCorner@editHandles@@AAE?AW4corner@@HH@Z 004933a0 f   editHandles.obj
 0002:00025bf8       ??_EeditHandles@@WCI@AEPAXI@Z 00493bf8 f i editHandles.obj
 0002:00025c10       ??_EeditHandles@@UAEPAXI@Z 00493c10 f i editHandles.obj
 0002:00025c10       ??_GeditHandles@@UAEPAXI@Z 00493c10 f i editHandles.obj
 0002:00025c80       ?metaObject@editHandles@@UBEPAVQMetaObject@@XZ 00493c80 f i editHandles.obj
 0002:00025cd0       ?encodeReservedChar@@YA?AVQString@@ABV1@@Z 00493cd0 f   encodeReservedChar.obj
 0002:00026170       ??0file_new@@QAE@PAVQWidget@@PBD_NI@Z 00494170 f   file_new_imp.obj
 0002:00026790       ??1file_new@@UAE@XZ        00494790 f   file_new_imp.obj
 0002:000267f0       ?selection@file_new@@QAE?AVQString@@XZ 004947f0 f   file_new_imp.obj
 0002:000268d0       ?doubleClicked@file_new@@QAEXPAVQIconViewItem@@@Z 004948d0 f   file_new_imp.obj
 0002:00026930       ?doHelp@file_new@@QAEXXZ   00494930 f   file_new_imp.obj
 0002:00026c45       ??_Efile_new@@WCI@AEPAXI@Z 00494c45 f i file_new_imp.obj
 0002:00026c50       ??_GQIconViewItem@@UAEPAXI@Z 00494c50 f i file_new_imp.obj
 0002:00026c50       ??_EQIconViewItem@@UAEPAXI@Z 00494c50 f i file_new_imp.obj
 0002:00026cd0       ??_Efile_new@@UAEPAXI@Z    00494cd0 f i file_new_imp.obj
 0002:00026cd0       ??_Gfile_new@@UAEPAXI@Z    00494cd0 f i file_new_imp.obj
 0002:00026d40       ?metaObject@file_new@@UBEPAVQMetaObject@@XZ 00494d40 f i file_new_imp.obj
 0002:00026d90       ??0globalStyleDlg@@QAE@PAVQWidget@@PBD_NI@Z 00494d90 f   globalstyledlgimpl.obj
 0002:00026e90       ??1globalStyleDlg@@UAE@XZ  00494e90 f   globalstyledlgimpl.obj
 0002:00026ef0       ?backgroundColourPicker@globalStyleDlg@@QAEXXZ 00494ef0 f   globalstyledlgimpl.obj
 0002:00027090       ?defaultBgColourSelected@globalStyleDlg@@QAEX_N@Z 00495090 f   globalstyledlgimpl.obj
 0002:000271fd       ??_EglobalStyleDlg@@WCI@AEPAXI@Z 004951fd f i globalstyledlgimpl.obj
 0002:00027210       ??_GglobalStyleDlg@@UAEPAXI@Z 00495210 f i globalstyledlgimpl.obj
 0002:00027210       ??_EglobalStyleDlg@@UAEPAXI@Z 00495210 f i globalstyledlgimpl.obj
 0002:00027280       ?metaObject@globalStyleDlg@@UBEPAVQMetaObject@@XZ 00495280 f i globalstyledlgimpl.obj
 0002:000272d0       ??0handleBlock@@QAE@PAVQWidget@@0H_N@Z 004952d0 f   handleBlock.obj
 0002:000279b0       ?paintEvent@handleBlock@@UAEXPAVQPaintEvent@@@Z 004959b0 f   handleBlock.obj
 0002:00027bc0       ?mouseMoveEvent@handleBlock@@UAEXPAVQMouseEvent@@@Z 00495bc0 f   handleBlock.obj
 0002:000281e0       ?mousePressEvent@handleBlock@@UAEXPAVQMouseEvent@@@Z 004961e0 f   handleBlock.obj
 0002:00028250       ?mouseReleaseEvent@handleBlock@@UAEXPAVQMouseEvent@@@Z 00496250 f   handleBlock.obj
 0002:00028920       ??1handleBlock@@UAE@XZ     00496920 f i handleBlock.obj
 0002:00028980       ??G@YA?BVQPoint@@ABV0@0@Z  00496980 f i handleBlock.obj
 0002:000289f6       ??_EhandleBlock@@WCI@AEPAXI@Z 004969f6 f i handleBlock.obj
 0002:00028a00       ??_EhandleBlock@@UAEPAXI@Z 00496a00 f i handleBlock.obj
 0002:00028a00       ??_GhandleBlock@@UAEPAXI@Z 00496a00 f i handleBlock.obj
 0002:00028a70       ?metaObject@handleBlock@@UBEPAVQMetaObject@@XZ 00496a70 f i handleBlock.obj
 0002:00028ac0       ??0importSettings@@QAE@PAVQWidget@@PBD_NI@Z 00496ac0 f   importsettingsimpl.obj
 0002:00029350       ??1importSettings@@UAE@XZ  00497350 f   importsettingsimpl.obj
 0002:000293b0       ?getSettings@importSettings@@QAEXAAV?$map@VQString@@VQStringList@@U?$less@VQString@@@std@@V?$allocator@U?$pair@$$CBVQString@@VQStringList@@@std@@@4@@std@@@Z 004973b0 f   importsettingsimpl.obj
 0002:00029400       ?doHelp@importSettings@@AAEXXZ 00497400 f   importsettingsimpl.obj
 0002:00029780       ??$?0AAV?$_Tree_iterator@V?$_Tree_val@U?$_Tree_simple_types@U?$pair@$$CBVQString@@VQStringList@@@std@@@std@@@std@@@std@@_NX@?$pair@V?$_Tree_iterator@V?$_Tree_val@U?$_Tree_simple_types@U?$pair@$$CBVQString@@VQStringList@@@std@@@std@@@std@@@std@@_N@std@@QAE@AAV?$_Tree_iterator@V?$_Tree_val@U?$_Tree_simple_types@U?$pair@$$CBVQString@@VQStringList@@@std@@@std@@@std@@@1@$$QA_N@Z 00497780 f i importsettingsimpl.obj
 0002:00029850       ??$?0AAVQString@@AAVQStringList@@X@?$pair@VQString@@VQStringList@@@std@@QAE@AAVQString@@AAVQStringList@@@Z 00497850 f i importsettingsimpl.obj
 0002:00029940       ??$?0U?$_Tree_node@U?$pair@$$CBVQString@@VQStringList@@@std@@PAX@std@@@?$allocator@U_Container_proxy@std@@@std@@QAE@ABV?$allocator@U?$_Tree_node@U?$pair@$$CBVQString@@VQStringList@@@std@@PAX@std@@@1@@Z 00497940 f i importsettingsimpl.obj
 0002:00029980       ??$?0U?$_Wrap_alloc@V?$allocator@U?$_Tree_node@U?$pair@$$CBVQString@@VQStringList@@@std@@PAX@std@@@std@@@std@@@?$_Wrap_alloc@V?$allocator@U_Container_proxy@std@@@std@@@std@@QAE@ABU?$_Wrap_alloc@V?$allocator@U?$_Tree_node@U?$pair@$$CBVQString@@VQStringList@@@std@@PAX@std@@@std@@@1@@Z 00497980 f i importsettingsimpl.obj
 0002:000299e0       ??$?0V?$_Tree_iterator@V?$_Tree_val@U?$_Tree_simple_types@U?$pair@$$CBVQString@@VQStringList@@@std@@@std@@@std@@@std@@_NX@?$pair@V?$_Tree_iterator@V?$_Tree_val@U?$_Tree_simple_types@U?$pair@$$CBVQString@@VQStringList@@@std@@@std@@@std@@@std@@_N@std@@QAE@$$QAV?$_Tree_iterator@V?$_Tree_val@U?$_Tree_simple_types@U?$pair@$$CBVQString@@VQStringList@@@std@@@std@@@std@@@1@$$QA_N@Z 004979e0 f i importsettingsimpl.obj
 0002:00029ab0       ??$?0VQString@@VQStringList@@X@?$pair@$$CBVQString@@VQStringList@@@std@@QAE@$$QAU?$pair@VQString@@VQStringList@@@1@@Z 00497ab0 f i importsettingsimpl.obj
 0002:00029ba0       ??$?8U?$_Tree_node@U?$pair@$$CBVQString@@VQStringList@@@std@@PAX@std@@U01@@std@@YA_NABV?$allocator@U?$_Tree_node@U?$pair@$$CBVQString@@VQStringList@@@std@@PAX@std@@@0@0@Z 00497ba0 f i importsettingsimpl.obj
 0002:00029bd0       ??$?8V?$allocator@U?$_Tree_node@U?$pair@$$CBVQString@@VQStringList@@@std@@PAX@std@@@std@@V01@@std@@YA_NABU?$_Wrap_alloc@V?$allocator@U?$_Tree_node@U?$pair@$$CBVQString@@VQStringList@@@std@@PAX@std@@@std@@@0@0@Z 00497bd0 f i importsettingsimpl.obj
 0002:00029c40       ??$?9V?$allocator@U?$_Tree_node@U?$pair@$$CBVQString@@VQStringList@@@std@@PAX@std@@@std@@V01@@std@@YA_NABU?$_Wrap_alloc@V?$allocator@U?$_Tree_node@U?$pair@$$CBVQString@@VQStringList@@@std@@PAX@std@@@std@@@0@0@Z 00497c40 f i importsettingsimpl.obj
 0002:00029cc0       ??$_Allocate@U?$_Tree_node@U?$pair@$$CBVQString@@VQStringList@@@std@@PAX@std@@@std@@YAPAU?$_Tree_node@U?$pair@$$CBVQString@@VQStringList@@@std@@PAX@0@IPAU10@@Z 00497cc0 f i importsettingsimpl.obj
 0002:00029d50       ??$_Allocate@U_Container_proxy@std@@@std@@YAPAU_Container_proxy@0@IPAU10@@Z 00497d50 f i importsettingsimpl.obj
 0002:00029df0       ??$_Buynode@AAU?$pair@$$CBVQString@@VQStringList@@@std@@@?$_Tree_buy@U?$pair@$$CBVQString@@VQStringList@@@std@@V?$allocator@U?$pair@$$CBVQString@@VQStringList@@@std@@@2@@std@@QAEPAU?$_Tree_node@U?$pair@$$CBVQString@@VQStringList@@@std@@PAX@1@AAU?$pair@$$CBVQString@@VQStringList@@@1@@Z 00497df0 f i importsettingsimpl.obj
 0002:00029f60       ??$_Buynode@U?$pair@VQString@@VQStringList@@@std@@@?$_Tree_buy@U?$pair@$$CBVQString@@VQStringList@@@std@@V?$allocator@U?$pair@$$CBVQString@@VQStringList@@@std@@@2@@std@@QAEPAU?$_Tree_node@U?$pair@$$CBVQString@@VQStringList@@@std@@PAX@1@$$QAU?$pair@VQString@@VQStringList@@@1@@Z 00497f60 f i importsettingsimpl.obj
 0002:0002a0d0       ??$_Buynode_if_nil@AAU?$pair@$$CBVQString@@VQStringList@@@std@@@?$_Tree@V?$_Tmap_traits@VQString@@VQStringList@@U?$less@VQString@@@std@@V?$allocator@U?$pair@$$CBVQString@@VQStringList@@@std@@@4@$0A@@std@@@std@@IAEPAU?$_Tree_node@U?$pair@$$CBVQString@@VQStringList@@@std@@PAX@1@PAU21@AAU?$pair@$$CBVQString@@VQStringList@@@1@@Z 004980d0 f i importsettingsimpl.obj
 0002:0002a110       ??$_Copy@U?$integral_constant@_N$0A@@std@@@?$_Tree@V?$_Tmap_traits@VQString@@VQStringList@@U?$less@VQString@@@std@@V?$allocator@U?$pair@$$CBVQString@@VQStringList@@@std@@@4@$0A@@std@@@std@@IAEXABV01@U?$integral_constant@_N$0A@@1@@Z 00498110 f i importsettingsimpl.obj
 0002:0002a240       ??$_Copy_nodes@U?$integral_constant@_N$0A@@std@@@?$_Tree@V?$_Tmap_traits@VQString@@VQStringList@@U?$less@VQString@@@std@@V?$allocator@U?$pair@$$CBVQString@@VQStringList@@@std@@@4@$0A@@std@@@std@@IAEPAU?$_Tree_node@U?$pair@$$CBVQString@@VQStringList@@@std@@PAX@1@PAU21@0U?$integral_constant@_N$0A@@1@@Z 00498240 f i importsettingsimpl.obj
 0002:0002a490       ??$_Copy_or_move@U?$integral_constant@_N$0A@@std@@U?$integral_constant@_N$00@2@U12@H@?$_Tree@V?$_Tmap_traits@VQString@@VQStringList@@U?$less@VQString@@@std@@V?$allocator@U?$pair@$$CBVQString@@VQStringList@@@std@@@4@$0A@@std@@@std@@IAEPAU?$_Tree_node@U?$pair@$$CBVQString@@VQStringList@@@std@@PAX@1@PAU21@U?$integral_constant@_N$0A@@1@U?$integral_constant@_N$00@1@1H@Z 00498490 f i importsettingsimpl.obj
 0002:0002a500       ??$_Debug_lt_pred@U?$less@VQString@@@std@@ABVQString@@ABV3@@std@@YA_NU?$less@VQString@@@0@ABVQString@@1PB_WI@Z 00498500 f i importsettingsimpl.obj
 0002:0002a5e0       ??$_Insert_at@AAU?$pair@$$CBVQString@@VQStringList@@@std@@PAU?$_Tree_node@U?$pair@$$CBVQString@@VQStringList@@@std@@PAX@2@@?$_Tree@V?$_Tmap_traits@VQString@@VQStringList@@U?$less@VQString@@@std@@V?$allocator@U?$pair@$$CBVQString@@VQStringList@@@std@@@4@$0A@@std@@@std@@IAE?AV?$_Tree_iterator@V?$_Tree_val@U?$_Tree_simple_types@U?$pair@$$CBVQString@@VQStringList@@@std@@@std@@@std@@@1@_NPAU?$_Tree_node@U?$pair@$$CBVQString@@VQStringList@@@std@@PAX@1@AAU?$pair@$$CBVQString@@VQStringList@@@1@1@Z 004985e0 f i importsettingsimpl.obj
 0002:0002ab70       ??$_Insert_nohint@AAU?$pair@$$CBVQString@@VQStringList@@@std@@PAU?$_Tree_node@U?$pair@$$CBVQString@@VQStringList@@@std@@PAX@2@@?$_Tree@V?$_Tmap_traits@VQString@@VQStringList@@U?$less@VQString@@@std@@V?$allocator@U?$pair@$$CBVQString@@VQStringList@@@std@@@4@$0A@@std@@@std@@IAE?AU?$pair@V?$_Tree_iterator@V?$_Tree_val@U?$_Tree_simple_types@U?$pair@$$CBVQString@@VQStringList@@@std@@@std@@@std@@@std@@_N@1@_NAAU?$pair@$$CBVQString@@VQStringList@@@1@PAU?$_Tree_node@U?$pair@$$CBVQString@@VQStringList@@@std@@PAX@1@@Z 00498b70 f i importsettingsimpl.obj
 0002:0002b2b0       ??$_Kfn@$$CBVQString@@VQStringList@@@?$_Tmap_traits@VQString@@VQStringList@@U?$less@VQString@@@std@@V?$allocator@U?$pair@$$CBVQString@@VQStringList@@@std@@@4@$0A@@std@@SAABVQString@@ABU?$pair@$$CBVQString@@VQStringList@@@1@@Z 004992b0 f i importsettingsimpl.obj
 0002:0002b2f0       ??$_Move@AAD@std@@YA$$QADAAD@Z 004992f0 f i importsettingsimpl.obj
 0002:0002b330       ??$addressof@PAU?$_Tree_node@U?$pair@$$CBVQString@@VQStringList@@@std@@PAX@std@@@std@@YAPAPAU?$_Tree_node@U?$pair@$$CBVQString@@VQStringList@@@std@@PAX@0@AAPAU10@@Z 00499330 f i importsettingsimpl.obj
 0002:0002b370       ??$addressof@U?$pair@$$CBVQString@@VQStringList@@@std@@@std@@YAPAU?$pair@$$CBVQString@@VQStringList@@@0@AAU10@@Z 00499370 f i importsettingsimpl.obj
 0002:0002b3b0       ??$construct@PAU?$_Tree_node@U?$pair@$$CBVQString@@VQStringList@@@std@@PAX@std@@AAPAU12@@?$_Wrap_alloc@V?$allocator@U?$_Tree_node@U?$pair@$$CBVQString@@VQStringList@@@std@@PAX@std@@@std@@@std@@QAEXPAPAU?$_Tree_node@U?$pair@$$CBVQString@@VQStringList@@@std@@PAX@1@AAPAU21@@Z 004993b0 f i importsettingsimpl.obj
 0002:0002b420       ??$construct@PAU?$_Tree_node@U?$pair@$$CBVQString@@VQStringList@@@std@@PAX@std@@AAPAU12@@?$allocator@U?$_Tree_node@U?$pair@$$CBVQString@@VQStringList@@@std@@PAX@std@@@std@@QAEXPAPAU?$_Tree_node@U?$pair@$$CBVQString@@VQStringList@@@std@@PAX@1@AAPAU21@@Z 00499420 f i importsettingsimpl.obj
 0002:0002b520       ??$construct@PAU?$_Tree_node@U?$pair@$$CBVQString@@VQStringList@@@std@@PAX@std@@AAPAU12@@?$allocator_traits@V?$allocator@U?$_Tree_node@U?$pair@$$CBVQString@@VQStringList@@@std@@PAX@std@@@std@@@std@@SAXAAV?$allocator@U?$_Tree_node@U?$pair@$$CBVQString@@VQStringList@@@std@@PAX@std@@@1@PAPAU?$_Tree_node@U?$pair@$$CBVQString@@VQStringList@@@std@@PAX@1@AAPAU31@@Z 00499520 f i importsettingsimpl.obj
 0002:0002b580       ??$construct@U?$pair@$$CBVQString@@VQStringList@@@std@@AAU12@@?$_Wrap_alloc@V?$allocator@U?$_Tree_node@U?$pair@$$CBVQString@@VQStringList@@@std@@PAX@std@@@std@@@std@@QAEXPAU?$pair@$$CBVQString@@VQStringList@@@1@AAU21@@Z 00499580 f i importsettingsimpl.obj
 0002:0002b5f0       ??$construct@U?$pair@$$CBVQString@@VQStringList@@@std@@AAU12@@?$allocator@U?$_Tree_node@U?$pair@$$CBVQString@@VQStringList@@@std@@PAX@std@@@std@@QAEXPAU?$pair@$$CBVQString@@VQStringList@@@1@AAU21@@Z 004995f0 f i importsettingsimpl.obj
 0002:0002b6f0       ??$construct@U?$pair@$$CBVQString@@VQStringList@@@std@@AAU12@@?$allocator_traits@V?$allocator@U?$_Tree_node@U?$pair@$$CBVQString@@VQStringList@@@std@@PAX@std@@@std@@@std@@SAXAAV?$allocator@U?$_Tree_node@U?$pair@$$CBVQString@@VQStringList@@@std@@PAX@std@@@1@PAU?$pair@$$CBVQString@@VQStringList@@@1@AAU31@@Z 004996f0 f i importsettingsimpl.obj
 0002:0002b750       ??$construct@U?$pair@$$CBVQString@@VQStringList@@@std@@U?$pair@VQString@@VQStringList@@@2@@?$_Wrap_alloc@V?$allocator@U?$_Tree_node@U?$pair@$$CBVQString@@VQStringList@@@std@@PAX@std@@@std@@@std@@QAEXPAU?$pair@$$CBVQString@@VQStringList@@@1@$$QAU?$pair@VQString@@VQStringList@@@1@@Z 00499750 f i importsettingsimpl.obj
 0002:0002b7c0       ??$construct@U?$pair@$$CBVQString@@VQStringList@@@std@@U?$pair@VQString@@VQStringList@@@2@@?$allocator@U?$_Tree_node@U?$pair@$$CBVQString@@VQStringList@@@std@@PAX@std@@@std@@QAEXPAU?$pair@$$CBVQString@@VQStringList@@@1@$$QAU?$pair@VQString@@VQStringList@@@1@@Z 004997c0 f i importsettingsimpl.obj
 0002:0002b8c0       ??$construct@U?$pair@$$CBVQString@@VQStringList@@@std@@U?$pair@VQString@@VQStringList@@@2@@?$allocator_traits@V?$allocator@U?$_Tree_node@U?$pair@$$CBVQString@@VQStringList@@@std@@PAX@std@@@std@@@std@@SAXAAV?$allocator@U?$_Tree_node@U?$pair@$$CBVQString@@VQStringList@@@std@@PAX@std@@@1@PAU?$pair@$$CBVQString@@VQStringList@@@1@$$QAU?$pair@VQString@@VQStringList@@@1@@Z 004998c0 f i importsettingsimpl.obj
 0002:0002b920       ??$construct@U_Container_proxy@std@@U12@@?$_Wrap_alloc@V?$allocator@U_Container_proxy@std@@@std@@@std@@QAEXPAU_Container_proxy@1@$$QAU21@@Z 00499920 f i importsettingsimpl.obj
 0002:0002b990       ??$construct@U_Container_proxy@std@@U12@@?$allocator@U_Container_proxy@std@@@std@@QAEXPAU_Container_proxy@1@$$QAU21@@Z 00499990 f i importsettingsimpl.obj
 0002:0002baa0       ??$construct@U_Container_proxy@std@@U12@@?$allocator_traits@V?$allocator@U_Container_proxy@std@@@std@@@std@@SAXAAV?$allocator@U_Container_proxy@std@@@1@PAU_Container_proxy@1@$$QAU31@@Z 00499aa0 f i importsettingsimpl.obj
 0002:0002bb00       ??$destroy@PAU?$_Tree_node@U?$pair@$$CBVQString@@VQStringList@@@std@@PAX@std@@@?$_Wrap_alloc@V?$allocator@U?$_Tree_node@U?$pair@$$CBVQString@@VQStringList@@@std@@PAX@std@@@std@@@std@@QAEXPAPAU?$_Tree_node@U?$pair@$$CBVQString@@VQStringList@@@std@@PAX@1@@Z 00499b00 f i importsettingsimpl.obj
 0002:0002bb60       ??$destroy@PAU?$_Tree_node@U?$pair@$$CBVQString@@VQStringList@@@std@@PAX@std@@@?$allocator@U?$_Tree_node@U?$pair@$$CBVQString@@VQStringList@@@std@@PAX@std@@@std@@QAEXPAPAU?$_Tree_node@U?$pair@$$CBVQString@@VQStringList@@@std@@PAX@1@@Z 00499b60 f i importsettingsimpl.obj
 0002:0002bba0       ??$destroy@PAU?$_Tree_node@U?$pair@$$CBVQString@@VQStringList@@@std@@PAX@std@@@?$allocator_traits@V?$allocator@U?$_Tree_node@U?$pair@$$CBVQString@@VQStringList@@@std@@PAX@std@@@std@@@std@@SAXAAV?$allocator@U?$_Tree_node@U?$pair@$$CBVQString@@VQStringList@@@std@@PAX@std@@@1@PAPAU?$_Tree_node@U?$pair@$$CBVQString@@VQStringList@@@std@@PAX@1@@Z 00499ba0 f i importsettingsimpl.obj
 0002:0002bbf0       ??$destroy@U?$pair@$$CBVQString@@VQStringList@@@std@@@?$_Wrap_alloc@V?$allocator@U?$_Tree_node@U?$pair@$$CBVQString@@VQStringList@@@std@@PAX@std@@@std@@@std@@QAEXPAU?$pair@$$CBVQString@@VQStringList@@@1@@Z 00499bf0 f i importsettingsimpl.obj
 0002:0002bc50       ??$destroy@U?$pair@$$CBVQString@@VQStringList@@@std@@@?$allocator@U?$_Tree_node@U?$pair@$$CBVQString@@VQStringList@@@std@@PAX@std@@@std@@QAEXPAU?$pair@$$CBVQString@@VQStringList@@@1@@Z 00499c50 f i importsettingsimpl.obj
 0002:0002bcb0       ??$destroy@U?$pair@$$CBVQString@@VQStringList@@@std@@@?$allocator_traits@V?$allocator@U?$_Tree_node@U?$pair@$$CBVQString@@VQStringList@@@std@@PAX@std@@@std@@@std@@SAXAAV?$allocator@U?$_Tree_node@U?$pair@$$CBVQString@@VQStringList@@@std@@PAX@std@@@1@PAU?$pair@$$CBVQString@@VQStringList@@@1@@Z 00499cb0 f i importsettingsimpl.obj
 0002:0002bd00       ??$destroy@U_Container_proxy@std@@@?$_Wrap_alloc@V?$allocator@U_Container_proxy@std@@@std@@@std@@QAEXPAU_Container_proxy@1@@Z 00499d00 f i importsettingsimpl.obj
 0002:0002bd60       ??$destroy@U_Container_proxy@std@@@?$allocator@U_Container_proxy@std@@@std@@QAEXPAU_Container_proxy@1@@Z 00499d60 f i importsettingsimpl.obj
 0002:0002bda0       ??$destroy@U_Container_proxy@std@@@?$allocator_traits@V?$allocator@U_Container_proxy@std@@@std@@@std@@SAXAAV?$allocator@U_Container_proxy@std@@@1@PAU_Container_proxy@1@@Z 00499da0 f i importsettingsimpl.obj
 0002:0002bdf0       ??$forward@AAPAU?$_Tree_node@U?$pair@$$CBVQString@@VQStringList@@@std@@PAX@std@@@std@@YAAAPAU?$_Tree_node@U?$pair@$$CBVQString@@VQStringList@@@std@@PAX@0@AAPAU10@@Z 00499df0 f i importsettingsimpl.obj
 0002:0002be30       ??$forward@AAU?$pair@$$CBVQString@@VQStringList@@@std@@@std@@YAAAU?$pair@$$CBVQString@@VQStringList@@@0@AAU10@@Z 00499e30 f i importsettingsimpl.obj
 0002:0002be70       ??$forward@AAV?$_Tree_iterator@V?$_Tree_val@U?$_Tree_simple_types@U?$pair@$$CBVQString@@VQStringList@@@std@@@std@@@std@@@std@@@std@@YAAAV?$_Tree_iterator@V?$_Tree_val@U?$_Tree_simple_types@U?$pair@$$CBVQString@@VQStringList@@@std@@@std@@@std@@@0@AAV10@@Z 00499e70 f i importsettingsimpl.obj
 0002:0002beb0       ??$forward@AAVQString@@@std@@YAAAVQString@@AAV1@@Z 00499eb0 f i importsettingsimpl.obj
 0002:0002bef0       ??$forward@AAVQStringList@@@std@@YAAAVQStringList@@AAV1@@Z 00499ef0 f i importsettingsimpl.obj
 0002:0002bf30       ??$forward@ABVQString@@@std@@YAABVQString@@ABV1@@Z 00499f30 f i importsettingsimpl.obj
 0002:0002bf70       ??$forward@U?$pair@VQString@@VQStringList@@@std@@@std@@YA$$QAU?$pair@VQString@@VQStringList@@@0@AAU10@@Z 00499f70 f i importsettingsimpl.obj
 0002:0002bfb0       ??$forward@U_Container_proxy@std@@@std@@YA$$QAU_Container_proxy@0@AAU10@@Z 00499fb0 f i importsettingsimpl.obj
 0002:0002bff0       ??$forward@V?$_Tree_iterator@V?$_Tree_val@U?$_Tree_simple_types@U?$pair@$$CBVQString@@VQStringList@@@std@@@std@@@std@@@std@@@std@@YA$$QAV?$_Tree_iterator@V?$_Tree_val@U?$_Tree_simple_types@U?$pair@$$CBVQString@@VQStringList@@@std@@@std@@@std@@@0@AAV10@@Z 00499ff0 f i importsettingsimpl.obj
 0002:0002c030       ??$forward@VQString@@@std@@YA$$QAVQString@@AAV1@@Z 0049a030 f i importsettingsimpl.obj
 0002:0002c070       ??$forward@VQStringList@@@std@@YA$$QAVQStringList@@AAV1@@Z 0049a070 f i importsettingsimpl.obj
 0002:0002c0b0       ??$forward@_N@std@@YA$$QA_NAA_N@Z 0049a0b0 f i importsettingsimpl.obj
 0002:0002c0f0       ??$insert@U?$pair@VQString@@VQStringList@@@std@@@?$_Tree@V?$_Tmap_traits@VQString@@VQStringList@@U?$less@VQString@@@std@@V?$allocator@U?$pair@$$CBVQString@@VQStringList@@@std@@@4@$0A@@std@@@std@@QAE?AU?$pair@V?$_Tree_iterator@V?$_Tree_val@U?$_Tree_simple_types@U?$pair@$$CBVQString@@VQStringList@@@std@@@std@@@std@@@std@@_N@1@$$QAU?$pair@VQString@@VQStringList@@@1@@Z 0049a0f0 f i importsettingsimpl.obj
 0002:0002c1a0       ??$make_pair@AAVQString@@AAVQStringList@@@std@@YA?AU?$pair@VQString@@VQStringList@@@0@AAVQString@@AAVQStringList@@@Z 0049a1a0 f i importsettingsimpl.obj
 0002:0002c230       ??$swap@D@std@@YAXAAD0@Z   0049a230 f i importsettingsimpl.obj
 0002:0002c2f0       ??0?$_Iterator012@Ubidirectional_iterator_tag@std@@U?$pair@$$CBVQString@@VQStringList@@@2@HPBU32@ABU32@U_Iterator_base12@2@@std@@QAE@ABU01@@Z 0049a2f0 f i importsettingsimpl.obj
 0002:0002c350       ??0?$_Iterator012@Ubidirectional_iterator_tag@std@@U?$pair@$$CBVQString@@VQStringList@@@2@HPBU32@ABU32@U_Iterator_base12@2@@std@@QAE@XZ 0049a350 f i importsettingsimpl.obj
 0002:0002c3b0       ??0?$_Tree@V?$_Tmap_traits@VQString@@VQStringList@@U?$less@VQString@@@std@@V?$allocator@U?$pair@$$CBVQString@@VQStringList@@@std@@@4@$0A@@std@@@std@@QAE@ABU?$less@VQString@@@1@ABV?$allocator@U?$pair@$$CBVQString@@VQStringList@@@std@@@1@@Z 0049a3b0 f i importsettingsimpl.obj
 0002:0002c410       ??0?$_Tree_alloc@$0A@U?$_Tree_base_types@U?$pair@$$CBVQString@@VQStringList@@@std@@V?$allocator@U?$pair@$$CBVQString@@VQStringList@@@std@@@2@@std@@@std@@QAE@ABV?$allocator@U?$pair@$$CBVQString@@VQStringList@@@std@@@1@@Z 0049a410 f i importsettingsimpl.obj
 0002:0002c510       ??0?$_Tree_buy@U?$pair@$$CBVQString@@VQStringList@@@std@@V?$allocator@U?$pair@$$CBVQString@@VQStringList@@@std@@@2@@std@@QAE@ABV?$allocator@U?$pair@$$CBVQString@@VQStringList@@@std@@@1@@Z 0049a510 f i importsettingsimpl.obj
 0002:0002c570       ??0?$_Tree_comp@$0A@V?$_Tmap_traits@VQString@@VQStringList@@U?$less@VQString@@@std@@V?$allocator@U?$pair@$$CBVQString@@VQStringList@@@std@@@4@$0A@@std@@@std@@QAE@ABU?$less@VQString@@@1@ABV?$allocator@U?$pair@$$CBVQString@@VQStringList@@@std@@@1@@Z 0049a570 f i importsettingsimpl.obj
 0002:0002c5d0       ??0?$_Tree_const_iterator@V?$_Tree_val@U?$_Tree_simple_types@U?$pair@$$CBVQString@@VQStringList@@@std@@@std@@@std@@@std@@QAE@ABV01@@Z 0049a5d0 f i importsettingsimpl.obj
 0002:0002c630       ??0?$_Tree_const_iterator@V?$_Tree_val@U?$_Tree_simple_types@U?$pair@$$CBVQString@@VQStringList@@@std@@@std@@@std@@@std@@QAE@PAU?$_Tree_node@U?$pair@$$CBVQString@@VQStringList@@@std@@PAX@1@PBV?$_Tree_val@U?$_Tree_simple_types@U?$pair@$$CBVQString@@VQStringList@@@std@@@std@@@1@@Z 0049a630 f i importsettingsimpl.obj
 0002:0002c690       ??0?$_Tree_iterator@V?$_Tree_val@U?$_Tree_simple_types@U?$pair@$$CBVQString@@VQStringList@@@std@@@std@@@std@@@std@@QAE@ABV01@@Z 0049a690 f i importsettingsimpl.obj
 0002:0002c6f0       ??0?$_Tree_iterator@V?$_Tree_val@U?$_Tree_simple_types@U?$pair@$$CBVQString@@VQStringList@@@std@@@std@@@std@@@std@@QAE@PAU?$_Tree_node@U?$pair@$$CBVQString@@VQStringList@@@std@@PAX@1@PBV?$_Tree_val@U?$_Tree_simple_types@U?$pair@$$CBVQString@@VQStringList@@@std@@@std@@@1@@Z 0049a6f0 f i importsettingsimpl.obj
 0002:0002c750       ??0?$_Tree_unchecked_const_iterator@V?$_Tree_val@U?$_Tree_simple_types@U?$pair@$$CBVQString@@VQStringList@@@std@@@std@@@std@@U_Iterator_base12@2@@std@@QAE@ABV01@@Z 0049a750 f i importsettingsimpl.obj
 0002:0002c7c0       ??0?$_Tree_unchecked_const_iterator@V?$_Tree_val@U?$_Tree_simple_types@U?$pair@$$CBVQString@@VQStringList@@@std@@@std@@@std@@U_Iterator_base12@2@@std@@QAE@PAU?$_Tree_node@U?$pair@$$CBVQString@@VQStringList@@@std@@PAX@1@PBV?$_Tree_val@U?$_Tree_simple_types@U?$pair@$$CBVQString@@VQStringList@@@std@@@std@@@1@@Z 0049a7c0 f i importsettingsimpl.obj
 0002:0002c880       ??0?$_Tree_val@U?$_Tree_simple_types@U?$pair@$$CBVQString@@VQStringList@@@std@@@std@@@std@@QAE@XZ 0049a880 f i importsettingsimpl.obj
 0002:0002c900       ??0?$_Wrap_alloc@V?$allocator@U?$_Tree_node@U?$pair@$$CBVQString@@VQStringList@@@std@@PAX@std@@@std@@@std@@QAE@XZ 0049a900 f i importsettingsimpl.obj
 0002:0002c960       ??0?$allocator@U?$_Tree_node@U?$pair@$$CBVQString@@VQStringList@@@std@@PAX@std@@@std@@QAE@ABV01@@Z 0049a960 f i importsettingsimpl.obj
 0002:0002c9a0       ??0?$allocator@U?$_Tree_node@U?$pair@$$CBVQString@@VQStringList@@@std@@PAX@std@@@std@@QAE@XZ 0049a9a0 f i importsettingsimpl.obj
 0002:0002c9e0       ??0?$allocator@U?$pair@$$CBVQString@@VQStringList@@@std@@@std@@QAE@XZ 0049a9e0 f i importsettingsimpl.obj
 0002:0002ca20       ??0?$map@VQString@@VQStringList@@U?$less@VQString@@@std@@V?$allocator@U?$pair@$$CBVQString@@VQStringList@@@std@@@4@@std@@QAE@XZ 0049aa20 f i importsettingsimpl.obj
 0002:0002ca90       ??0?$pair@$$CBVQString@@VQStringList@@@std@@QAE@ABU01@@Z 0049aa90 f i importsettingsimpl.obj
 0002:0002cb60       ??0_Container_proxy@std@@QAE@XZ 0049ab60 f i importsettingsimpl.obj
 0002:0002cbb0       ??0_Iterator_base12@std@@QAE@ABU01@@Z 0049abb0 f i importsettingsimpl.obj
 0002:0002cc30       ??0_Iterator_base12@std@@QAE@XZ 0049ac30 f i importsettingsimpl.obj
 0002:0002cc80       ??1?$_Iterator012@Ubidirectional_iterator_tag@std@@U?$pair@$$CBVQString@@VQStringList@@@2@HPBU32@ABU32@U_Iterator_base12@2@@std@@QAE@XZ 0049ac80 f i importsettingsimpl.obj
 0002:0002ccd0       ??1?$_Tree@V?$_Tmap_traits@VQString@@VQStringList@@U?$less@VQString@@@std@@V?$allocator@U?$pair@$$CBVQString@@VQStringList@@@std@@@4@$0A@@std@@@std@@QAE@XZ 0049acd0 f i importsettingsimpl.obj
 0002:0002cd30       ??1?$_Tree_alloc@$0A@U?$_Tree_base_types@U?$pair@$$CBVQString@@VQStringList@@@std@@V?$allocator@U?$pair@$$CBVQString@@VQStringList@@@std@@@2@@std@@@std@@QAE@XZ 0049ad30 f i importsettingsimpl.obj
 0002:0002cda0       ??1?$_Tree_buy@U?$pair@$$CBVQString@@VQStringList@@@std@@V?$allocator@U?$pair@$$CBVQString@@VQStringList@@@std@@@2@@std@@QAE@XZ 0049ada0 f i importsettingsimpl.obj
 0002:0002cdf0       ??1?$_Tree_comp@$0A@V?$_Tmap_traits@VQString@@VQStringList@@U?$less@VQString@@@std@@V?$allocator@U?$pair@$$CBVQString@@VQStringList@@@std@@@4@$0A@@std@@@std@@QAE@XZ 0049adf0 f i importsettingsimpl.obj
 0002:0002ce40       ??1?$_Tree_const_iterator@V?$_Tree_val@U?$_Tree_simple_types@U?$pair@$$CBVQString@@VQStringList@@@std@@@std@@@std@@@std@@QAE@XZ 0049ae40 f i importsettingsimpl.obj
 0002:0002ce90       ??1?$_Tree_iterator@V?$_Tree_val@U?$_Tree_simple_types@U?$pair@$$CBVQString@@VQStringList@@@std@@@std@@@std@@@std@@QAE@XZ 0049ae90 f i importsettingsimpl.obj
 0002:0002cee0       ??1?$_Tree_unchecked_const_iterator@V?$_Tree_val@U?$_Tree_simple_types@U?$pair@$$CBVQString@@VQStringList@@@std@@@std@@@std@@U_Iterator_base12@2@@std@@QAE@XZ 0049aee0 f i importsettingsimpl.obj
 0002:0002cf30       ??1?$_Tree_val@U?$_Tree_simple_types@U?$pair@$$CBVQString@@VQStringList@@@std@@@std@@@std@@QAE@XZ 0049af30 f i importsettingsimpl.obj
 0002:0002cf90       ??1?$map@VQString@@VQStringList@@U?$less@VQString@@@std@@V?$allocator@U?$pair@$$CBVQString@@VQStringList@@@std@@@4@@std@@QAE@XZ 0049af90 f i importsettingsimpl.obj
 0002:0002cfe0       ??1?$pair@$$CBVQString@@VQStringList@@@std@@QAE@XZ 0049afe0 f i importsettingsimpl.obj
 0002:0002d0a0       ??1?$pair@V?$_Tree_iterator@V?$_Tree_val@U?$_Tree_simple_types@U?$pair@$$CBVQString@@VQStringList@@@std@@@std@@@std@@@std@@_N@std@@QAE@XZ 0049b0a0 f i importsettingsimpl.obj
 0002:0002d0f0       ??1?$pair@VQString@@VQStringList@@@std@@QAE@XZ 0049b0f0 f i importsettingsimpl.obj
 0002:0002d1b0       ??1_Iterator_base12@std@@QAE@XZ 0049b1b0 f i importsettingsimpl.obj
 0002:0002d270       ??2@YAPAXIPAX@Z            0049b270 f i importsettingsimpl.obj
 0002:0002d2b0       ??3@YAXPAX0@Z              0049b2b0 f i importsettingsimpl.obj
 0002:0002d2e0       ??4?$_Tree@V?$_Tmap_traits@VQString@@VQStringList@@U?$less@VQString@@@std@@V?$allocator@U?$pair@$$CBVQString@@VQStringList@@@std@@@4@$0A@@std@@@std@@QAEAAV01@ABV01@@Z 0049b2e0 f i importsettingsimpl.obj
 0002:0002d3f0       ??4?$map@VQString@@VQStringList@@U?$less@VQString@@@std@@V?$allocator@U?$pair@$$CBVQString@@VQStringList@@@std@@@4@@std@@QAEAAV01@ABV01@@Z 0049b3f0 f i importsettingsimpl.obj
 0002:0002d450       ??4_Iterator_base12@std@@QAEAAU01@ABU01@@Z 0049b450 f i importsettingsimpl.obj
 0002:0002d590       ??8?$_Tree_const_iterator@V?$_Tree_val@U?$_Tree_simple_types@U?$pair@$$CBVQString@@VQStringList@@@std@@@std@@@std@@@std@@QBE_NABV01@@Z 0049b590 f i importsettingsimpl.obj
 0002:0002d6f0       ??9?$_Tree_const_iterator@V?$_Tree_val@U?$_Tree_simple_types@U?$pair@$$CBVQString@@VQStringList@@@std@@@std@@@std@@@std@@QBE_NABV01@@Z 0049b6f0 f i importsettingsimpl.obj
 0002:0002d780       ??E?$_Tree_const_iterator@V?$_Tree_val@U?$_Tree_simple_types@U?$pair@$$CBVQString@@VQStringList@@@std@@@std@@@std@@@std@@QAE?AV01@H@Z 0049b780 f i importsettingsimpl.obj
 0002:0002d8a0       ??E?$_Tree_const_iterator@V?$_Tree_val@U?$_Tree_simple_types@U?$pair@$$CBVQString@@VQStringList@@@std@@@std@@@std@@@std@@QAEAAV01@XZ 0049b8a0 f i importsettingsimpl.obj
 0002:0002d9e0       ??E?$_Tree_unchecked_const_iterator@V?$_Tree_val@U?$_Tree_simple_types@U?$pair@$$CBVQString@@VQStringList@@@std@@@std@@@std@@U_Iterator_base12@2@@std@@QAEAAV01@XZ 0049b9e0 f i importsettingsimpl.obj
 0002:0002db10       ??F?$_Tree_const_iterator@V?$_Tree_val@U?$_Tree_simple_types@U?$pair@$$CBVQString@@VQStringList@@@std@@@std@@@std@@@std@@QAEAAV01@XZ 0049bb10 f i importsettingsimpl.obj
 0002:0002dcf0       ??F?$_Tree_iterator@V?$_Tree_val@U?$_Tree_simple_types@U?$pair@$$CBVQString@@VQStringList@@@std@@@std@@@std@@@std@@QAEAAV01@XZ 0049bcf0 f i importsettingsimpl.obj
 0002:0002dd50       ??F?$_Tree_unchecked_const_iterator@V?$_Tree_val@U?$_Tree_simple_types@U?$pair@$$CBVQString@@VQStringList@@@std@@@std@@@std@@U_Iterator_base12@2@@std@@QAEAAV01@XZ 0049bd50 f i importsettingsimpl.obj
 0002:0002deb0       ??R?$less@VQString@@@std@@QBE_NABVQString@@0@Z 0049beb0 f i importsettingsimpl.obj
 0002:0002df17       ??_EimportSettings@@WCI@AEPAXI@Z 0049bf17 f i importsettingsimpl.obj
 0002:0002df30       ??_G?$pair@$$CBVQString@@VQStringList@@@std@@QAEPAXI@Z 0049bf30 f i importsettingsimpl.obj
 0002:0002dfa0       ??_GimportSettings@@UAEPAXI@Z 0049bfa0 f i importsettingsimpl.obj
 0002:0002dfa0       ??_EimportSettings@@UAEPAXI@Z 0049bfa0 f i importsettingsimpl.obj
 0002:0002e010       ?_Adopt@_Iterator_base12@std@@QAEXPBU_Container_base12@2@@Z 0049c010 f i importsettingsimpl.obj
 0002:0002e1c0       ?_Alloc_proxy@?$_Tree_alloc@$0A@U?$_Tree_base_types@U?$pair@$$CBVQString@@VQStringList@@@std@@V?$allocator@U?$pair@$$CBVQString@@VQStringList@@@std@@@2@@std@@@std@@QAEXXZ 0049c1c0 f i importsettingsimpl.obj
 0002:0002e2a0       ?_Buyheadnode@?$_Tree_alloc@$0A@U?$_Tree_base_types@U?$pair@$$CBVQString@@VQStringList@@@std@@V?$allocator@U?$pair@$$CBVQString@@VQStringList@@@std@@@2@@std@@@std@@QAEPAU?$_Tree_node@U?$pair@$$CBVQString@@VQStringList@@@std@@PAX@2@XZ 0049c2a0 f i importsettingsimpl.obj
 0002:0002e500       ?_Buynode0@?$_Tree_buy@U?$pair@$$CBVQString@@VQStringList@@@std@@V?$allocator@U?$pair@$$CBVQString@@VQStringList@@@std@@@2@@std@@QAEPAU?$_Tree_node@U?$pair@$$CBVQString@@VQStringList@@@std@@PAX@2@XZ 0049c500 f i importsettingsimpl.obj
 0002:0002e710       ?_Change_alloc@?$_Tree_alloc@$0A@U?$_Tree_base_types@U?$pair@$$CBVQString@@VQStringList@@@std@@V?$allocator@U?$pair@$$CBVQString@@VQStringList@@@std@@@2@@std@@@std@@QAEXABU?$_Wrap_alloc@V?$allocator@U?$_Tree_node@U?$pair@$$CBVQString@@VQStringList@@@std@@PAX@std@@@std@@@2@@Z 0049c710 f i importsettingsimpl.obj
 0002:0002e750       ?_Clrcont@_Iterator_base12@std@@QAEXXZ 0049c750 f i importsettingsimpl.obj
 0002:0002e790       ?_Color@?$_Tree_val@U?$_Tree_simple_types@U?$pair@$$CBVQString@@VQStringList@@@std@@@std@@@std@@SAAADPAU?$_Tree_node@U?$pair@$$CBVQString@@VQStringList@@@std@@PAX@2@@Z 0049c790 f i importsettingsimpl.obj
 0002:0002e7d0       ?_Destroy_if_not_nil@?$_Tree@V?$_Tmap_traits@VQString@@VQStringList@@U?$less@VQString@@@std@@V?$allocator@U?$pair@$$CBVQString@@VQStringList@@@std@@@4@$0A@@std@@@std@@IAEXPAU?$_Tree_node@U?$pair@$$CBVQString@@VQStringList@@@std@@PAX@2@@Z 0049c7d0 f i importsettingsimpl.obj
 0002:0002e880       ?_Erase@?$_Tree@V?$_Tmap_traits@VQString@@VQStringList@@U?$less@VQString@@@std@@V?$allocator@U?$pair@$$CBVQString@@VQStringList@@@std@@@4@$0A@@std@@@std@@IAEXPAU?$_Tree_node@U?$pair@$$CBVQString@@VQStringList@@@std@@PAX@2@@Z 0049c880 f i importsettingsimpl.obj
 0002:0002e990       ?_Free_proxy@?$_Tree_alloc@$0A@U?$_Tree_base_types@U?$pair@$$CBVQString@@VQStringList@@@std@@V?$allocator@U?$pair@$$CBVQString@@VQStringList@@@std@@@2@@std@@@std@@QAEXXZ 0049c990 f i importsettingsimpl.obj
 0002:0002ea80       ?_Freeheadnode@?$_Tree_alloc@$0A@U?$_Tree_base_types@U?$pair@$$CBVQString@@VQStringList@@@std@@V?$allocator@U?$pair@$$CBVQString@@VQStringList@@@std@@@2@@std@@@std@@QAEXPAU?$_Tree_node@U?$pair@$$CBVQString@@VQStringList@@@std@@PAX@2@@Z 0049ca80 f i importsettingsimpl.obj
 0002:0002eb90       ?_Freenode0@?$_Tree_buy@U?$pair@$$CBVQString@@VQStringList@@@std@@V?$allocator@U?$pair@$$CBVQString@@VQStringList@@@std@@@2@@std@@QAEXPAU?$_Tree_node@U?$pair@$$CBVQString@@VQStringList@@@std@@PAX@2@@Z 0049cb90 f i importsettingsimpl.obj
 0002:0002eca0       ?_Getal@?$_Tree_alloc@$0A@U?$_Tree_base_types@U?$pair@$$CBVQString@@VQStringList@@@std@@V?$allocator@U?$pair@$$CBVQString@@VQStringList@@@std@@@2@@std@@@std@@QBE?AU?$_Wrap_alloc@V?$allocator@U?$_Tree_node@U?$pair@$$CBVQString@@VQStringList@@@std@@PAX@std@@@std@@@2@XZ 0049cca0 f i importsettingsimpl.obj
 0002:0002ed00       ?_Getcomp@?$_Tree_comp@$0A@V?$_Tmap_traits@VQString@@VQStringList@@U?$less@VQString@@@std@@V?$allocator@U?$pair@$$CBVQString@@VQStringList@@@std@@@4@$0A@@std@@@std@@QBE?AU?$less@VQString@@@2@XZ 0049cd00 f i importsettingsimpl.obj
 0002:0002ed40       ?_Getcont@_Iterator_base12@std@@QBEPBU_Container_base12@2@XZ 0049cd40 f i importsettingsimpl.obj
 0002:0002edb0       ?_Getpnext@_Iterator_base12@std@@QAEPAPAU12@XZ 0049cdb0 f i importsettingsimpl.obj
 0002:0002edf0       ?_Isnil@?$_Tree_val@U?$_Tree_simple_types@U?$pair@$$CBVQString@@VQStringList@@@std@@@std@@@std@@SAAADPAU?$_Tree_node@U?$pair@$$CBVQString@@VQStringList@@@std@@PAX@2@@Z 0049cdf0 f i importsettingsimpl.obj
 0002:0002ee30       ?_Key@?$_Tree@V?$_Tmap_traits@VQString@@VQStringList@@U?$less@VQString@@@std@@V?$allocator@U?$pair@$$CBVQString@@VQStringList@@@std@@@4@$0A@@std@@@std@@IBEABVQString@@PAU?$_Tree_node@U?$pair@$$CBVQString@@VQStringList@@@std@@PAX@2@@Z 0049ce30 f i importsettingsimpl.obj
 0002:0002eea0       ?_Kfn@?$_Tree@V?$_Tmap_traits@VQString@@VQStringList@@U?$less@VQString@@@std@@V?$allocator@U?$pair@$$CBVQString@@VQStringList@@@std@@@4@$0A@@std@@@std@@IBEABVQString@@ABU?$pair@$$CBVQString@@VQStringList@@@2@@Z 0049cea0 f i importsettingsimpl.obj
 0002:0002ef00       ?_Left@?$_Tree_val@U?$_Tree_simple_types@U?$pair@$$CBVQString@@VQStringList@@@std@@@std@@@std@@SAAAPAU?$_Tree_node@U?$pair@$$CBVQString@@VQStringList@@@std@@PAX@2@PAU32@@Z 0049cf00 f i importsettingsimpl.obj
 0002:0002ef40       ?_Lmost@?$_Tree@V?$_Tmap_traits@VQString@@VQStringList@@U?$less@VQString@@@std@@V?$allocator@U?$pair@$$CBVQString@@VQStringList@@@std@@@4@$0A@@std@@@std@@IBEAAPAU?$_Tree_node@U?$pair@$$CBVQString@@VQStringList@@@std@@PAX@2@XZ 0049cf40 f i importsettingsimpl.obj
 0002:0002efa0       ?_Lrotate@?$_Tree@V?$_Tmap_traits@VQString@@VQStringList@@U?$less@VQString@@@std@@V?$allocator@U?$pair@$$CBVQString@@VQStringList@@@std@@@4@$0A@@std@@@std@@IAEXPAU?$_Tree_node@U?$pair@$$CBVQString@@VQStringList@@@std@@PAX@2@@Z 0049cfa0 f i importsettingsimpl.obj
 0002:0002f150       ?_Max@?$_Tree_val@U?$_Tree_simple_types@U?$pair@$$CBVQString@@VQStringList@@@std@@@std@@@std@@SAPAU?$_Tree_node@U?$pair@$$CBVQString@@VQStringList@@@std@@PAX@2@PAU32@@Z 0049d150 f i importsettingsimpl.obj
 0002:0002f1d0       ?_Min@?$_Tree_val@U?$_Tree_simple_types@U?$pair@$$CBVQString@@VQStringList@@@std@@@std@@@std@@SAPAU?$_Tree_node@U?$pair@$$CBVQString@@VQStringList@@@std@@PAX@2@PAU32@@Z 0049d1d0 f i importsettingsimpl.obj
 0002:0002f250       ?_Mynode@?$_Tree_unchecked_const_iterator@V?$_Tree_val@U?$_Tree_simple_types@U?$pair@$$CBVQString@@VQStringList@@@std@@@std@@@std@@U_Iterator_base12@2@@std@@QBEPAU?$_Tree_node@U?$pair@$$CBVQString@@VQStringList@@@std@@PAX@2@XZ 0049d250 f i importsettingsimpl.obj
 0002:0002f290       ?_Myval@?$_Tree_val@U?$_Tree_simple_types@U?$pair@$$CBVQString@@VQStringList@@@std@@@std@@@std@@SAAAU?$pair@$$CBVQString@@VQStringList@@@2@PAU?$_Tree_node@U?$pair@$$CBVQString@@VQStringList@@@std@@PAX@2@@Z 0049d290 f i importsettingsimpl.obj
 0002:0002f2d0       ?_Orphan_me@_Iterator_base12@std@@QAEXXZ 0049d2d0 f i importsettingsimpl.obj
 0002:0002f3a0       ?_Orphan_ptr@?$_Tree@V?$_Tmap_traits@VQString@@VQStringList@@U?$less@VQString@@@std@@V?$allocator@U?$pair@$$CBVQString@@VQStringList@@@std@@@4@$0A@@std@@@std@@IBEXAAV12@PAU?$_Tree_node@U?$pair@$$CBVQString@@VQStringList@@@std@@PAX@2@@Z 0049d3a0 f i importsettingsimpl.obj
 0002:0002f530       ?_Parent@?$_Tree_val@U?$_Tree_simple_types@U?$pair@$$CBVQString@@VQStringList@@@std@@@std@@@std@@SAAAPAU?$_Tree_node@U?$pair@$$CBVQString@@VQStringList@@@std@@PAX@2@PAU32@@Z 0049d530 f i importsettingsimpl.obj
 0002:0002f570       ?_Right@?$_Tree_val@U?$_Tree_simple_types@U?$pair@$$CBVQString@@VQStringList@@@std@@@std@@@std@@SAAAPAU?$_Tree_node@U?$pair@$$CBVQString@@VQStringList@@@std@@PAX@2@PAU32@@Z 0049d570 f i importsettingsimpl.obj
 0002:0002f5b0       ?_Rmost@?$_Tree@V?$_Tmap_traits@VQString@@VQStringList@@U?$less@VQString@@@std@@V?$allocator@U?$pair@$$CBVQString@@VQStringList@@@std@@@4@$0A@@std@@@std@@IBEAAPAU?$_Tree_node@U?$pair@$$CBVQString@@VQStringList@@@std@@PAX@2@XZ 0049d5b0 f i importsettingsimpl.obj
 0002:0002f610       ?_Root@?$_Tree@V?$_Tmap_traits@VQString@@VQStringList@@U?$less@VQString@@@std@@V?$allocator@U?$pair@$$CBVQString@@VQStringList@@@std@@@4@$0A@@std@@@std@@IBEAAPAU?$_Tree_node@U?$pair@$$CBVQString@@VQStringList@@@std@@PAX@2@XZ 0049d610 f i importsettingsimpl.obj
 0002:0002f670       ?_Rrotate@?$_Tree@V?$_Tmap_traits@VQString@@VQStringList@@U?$less@VQString@@@std@@V?$allocator@U?$pair@$$CBVQString@@VQStringList@@@std@@@4@$0A@@std@@@std@@IAEXPAU?$_Tree_node@U?$pair@$$CBVQString@@VQStringList@@@std@@PAX@2@@Z 0049d670 f i importsettingsimpl.obj
 0002:0002f820       ?_Setcomp@?$_Tree_comp@$0A@V?$_Tmap_traits@VQString@@VQStringList@@U?$less@VQString@@@std@@V?$allocator@U?$pair@$$CBVQString@@VQStringList@@@std@@@4@$0A@@std@@@std@@QAEXABU?$less@VQString@@@2@@Z 0049d820 f i importsettingsimpl.obj
 0002:0002f860       ?_Tidy@?$_Tree@V?$_Tmap_traits@VQString@@VQStringList@@U?$less@VQString@@@std@@V?$allocator@U?$pair@$$CBVQString@@VQStringList@@@std@@@4@$0A@@std@@@std@@IAEXXZ 0049d860 f i importsettingsimpl.obj
 0002:0002f9f0       ?allocate@?$_Wrap_alloc@V?$allocator@U?$_Tree_node@U?$pair@$$CBVQString@@VQStringList@@@std@@PAX@std@@@std@@@std@@QAEPAU?$_Tree_node@U?$pair@$$CBVQString@@VQStringList@@@std@@PAX@2@I@Z 0049d9f0 f i importsettingsimpl.obj
 0002:0002fa50       ?allocate@?$_Wrap_alloc@V?$allocator@U_Container_proxy@std@@@std@@@std@@QAEPAU_Container_proxy@2@I@Z 0049da50 f i importsettingsimpl.obj
 0002:0002fab0       ?allocate@?$allocator@U?$_Tree_node@U?$pair@$$CBVQString@@VQStringList@@@std@@PAX@std@@@std@@QAEPAU?$_Tree_node@U?$pair@$$CBVQString@@VQStringList@@@std@@PAX@2@I@Z 0049dab0 f i importsettingsimpl.obj
 0002:0002fb10       ?allocate@?$allocator@U_Container_proxy@std@@@std@@QAEPAU_Container_proxy@2@I@Z 0049db10 f i importsettingsimpl.obj
 0002:0002fb70       ?begin@?$_Tree@V?$_Tmap_traits@VQString@@VQStringList@@U?$less@VQString@@@std@@V?$allocator@U?$pair@$$CBVQString@@VQStringList@@@std@@@4@$0A@@std@@@std@@QAE?AV?$_Tree_iterator@V?$_Tree_val@U?$_Tree_simple_types@U?$pair@$$CBVQString@@VQStringList@@@std@@@std@@@std@@@2@XZ 0049db70 f i importsettingsimpl.obj
 0002:0002fbe0       ?clear@?$_Tree@V?$_Tmap_traits@VQString@@VQStringList@@U?$less@VQString@@@std@@V?$allocator@U?$pair@$$CBVQString@@VQStringList@@@std@@@4@$0A@@std@@@std@@QAEXXZ 0049dbe0 f i importsettingsimpl.obj
 0002:0002fca0       ?deallocate@?$_Wrap_alloc@V?$allocator@U?$_Tree_node@U?$pair@$$CBVQString@@VQStringList@@@std@@PAX@std@@@std@@@std@@QAEXPAU?$_Tree_node@U?$pair@$$CBVQString@@VQStringList@@@std@@PAX@2@I@Z 0049dca0 f i importsettingsimpl.obj
 0002:0002fd00       ?deallocate@?$_Wrap_alloc@V?$allocator@U_Container_proxy@std@@@std@@@std@@QAEXPAU_Container_proxy@2@I@Z 0049dd00 f i importsettingsimpl.obj
 0002:0002fd60       ?deallocate@?$allocator@U?$_Tree_node@U?$pair@$$CBVQString@@VQStringList@@@std@@PAX@std@@@std@@QAEXPAU?$_Tree_node@U?$pair@$$CBVQString@@VQStringList@@@std@@PAX@2@I@Z 0049dd60 f i importsettingsimpl.obj
 0002:0002fdc0       ?deallocate@?$allocator@U_Container_proxy@std@@@std@@QAEXPAU_Container_proxy@2@I@Z 0049ddc0 f i importsettingsimpl.obj
 0002:0002fe20       ?end@?$_Tree@V?$_Tmap_traits@VQString@@VQStringList@@U?$less@VQString@@@std@@V?$allocator@U?$pair@$$CBVQString@@VQStringList@@@std@@@4@$0A@@std@@@std@@QAE?AV?$_Tree_iterator@V?$_Tree_val@U?$_Tree_simple_types@U?$pair@$$CBVQString@@VQStringList@@@std@@@std@@@std@@@2@XZ 0049de20 f i importsettingsimpl.obj
 0002:0002fe90       ?erase@?$_Tree@V?$_Tmap_traits@VQString@@VQStringList@@U?$less@VQString@@@std@@V?$allocator@U?$pair@$$CBVQString@@VQStringList@@@std@@@4@$0A@@std@@@std@@QAE?AV?$_Tree_iterator@V?$_Tree_val@U?$_Tree_simple_types@U?$pair@$$CBVQString@@VQStringList@@@std@@@std@@@std@@@2@V?$_Tree_const_iterator@V?$_Tree_val@U?$_Tree_simple_types@U?$pair@$$CBVQString@@VQStringList@@@std@@@std@@@std@@@2@0@Z 0049de90 f i importsettingsimpl.obj
 0002:000301b0       ?erase@?$_Tree@V?$_Tmap_traits@VQString@@VQStringList@@U?$less@VQString@@@std@@V?$allocator@U?$pair@$$CBVQString@@VQStringList@@@std@@@4@$0A@@std@@@std@@QAE?AV?$_Tree_iterator@V?$_Tree_val@U?$_Tree_simple_types@U?$pair@$$CBVQString@@VQStringList@@@std@@@std@@@std@@@2@V?$_Tree_const_iterator@V?$_Tree_val@U?$_Tree_simple_types@U?$pair@$$CBVQString@@VQStringList@@@std@@@std@@@std@@@2@@Z 0049e1b0 f i importsettingsimpl.obj
 0002:00030c30       ?max_size@?$_Tree@V?$_Tmap_traits@VQString@@VQStringList@@U?$less@VQString@@@std@@V?$allocator@U?$pair@$$CBVQString@@VQStringList@@@std@@@4@$0A@@std@@@std@@QBEIXZ 0049ec30 f i importsettingsimpl.obj
 0002:00030c90       ?max_size@?$_Wrap_alloc@V?$allocator@U?$_Tree_node@U?$pair@$$CBVQString@@VQStringList@@@std@@PAX@std@@@std@@@std@@QBEIXZ 0049ec90 f i importsettingsimpl.obj
 0002:00030cf0       ?max_size@?$allocator@U?$_Tree_node@U?$pair@$$CBVQString@@VQStringList@@@std@@PAX@std@@@std@@QBEIXZ 0049ecf0 f i importsettingsimpl.obj
 0002:00030d30       ?max_size@?$allocator_traits@V?$allocator@U?$_Tree_node@U?$pair@$$CBVQString@@VQStringList@@@std@@PAX@std@@@std@@@std@@SAIABV?$allocator@U?$_Tree_node@U?$pair@$$CBVQString@@VQStringList@@@std@@PAX@std@@@2@@Z 0049ed30 f i importsettingsimpl.obj
 0002:00030d80       ?metaObject@importSettings@@UBEPAVQMetaObject@@XZ 0049ed80 f i importsettingsimpl.obj
 0002:00030dd0       ?size@?$_Tree@V?$_Tmap_traits@VQString@@VQStringList@@U?$less@VQString@@@std@@V?$allocator@U?$pair@$$CBVQString@@VQStringList@@@std@@@4@$0A@@std@@@std@@QBEIXZ 0049edd0 f i importsettingsimpl.obj
 0002:00030e10       ??0lassoo@@QAE@PAVQWidget@@PBDI@Z 0049ee10 f   lassoo.obj
 0002:000311f0       ??1lassoo@@UAE@XZ          0049f1f0 f   lassoo.obj
 0002:00031420       ?setRects@lassoo@@QAEXXZ   0049f420 f   lassoo.obj
 0002:00031740       ?resizeEvent@lassoo@@UAEXPAVQResizeEvent@@@Z 0049f740 f   lassoo.obj
 0002:00031790       ?moveEvent@lassoo@@UAEXPAVQMoveEvent@@@Z 0049f790 f   lassoo.obj
 0002:000317e0       ?setPoints@lassoo@@QAEXVQPoint@@0@Z 0049f7e0 f   lassoo.obj
 0002:00031ec8       ??_EQFrame@@WCI@AEPAXI@Z   0049fec8 f i lassoo.obj
 0002:00031ed2       ??_Elassoo@@WCI@AEPAXI@Z   0049fed2 f i lassoo.obj
 0002:00031ee0       ??_EQFrame@@UAEPAXI@Z      0049fee0 f i lassoo.obj
 0002:00031ee0       ??_GQFrame@@UAEPAXI@Z      0049fee0 f i lassoo.obj
 0002:00031f60       ??_Glassoo@@UAEPAXI@Z      0049ff60 f i lassoo.obj
 0002:00031f60       ??_Elassoo@@UAEPAXI@Z      0049ff60 f i lassoo.obj
 0002:00031fd0       _main                      0049ffd0 f   main.obj
 0002:00032e40       ??0manualSettings@@QAE@PAVQWidget@@PBD_NI@Z 004a0e40 f   manualsettingsimpl.obj
 0002:00032f10       ??1manualSettings@@UAE@XZ  004a0f10 f   manualsettingsimpl.obj
 0002:00032f70       ?doHelp@manualSettings@@AAEXXZ 004a0f70 f   manualsettingsimpl.obj
 0002:000330e1       ??_EmanualSettings@@WCI@AEPAXI@Z 004a10e1 f i manualsettingsimpl.obj
 0002:000330f0       ??_GmanualSettings@@UAEPAXI@Z 004a10f0 f i manualsettingsimpl.obj
 0002:000330f0       ??_EmanualSettings@@UAEPAXI@Z 004a10f0 f i manualsettingsimpl.obj
 0002:00033160       ?metaObject@manualSettings@@UBEPAVQMetaObject@@XZ 004a1160 f i manualsettingsimpl.obj
 0002:000331b0       ??0objectView@@QAE@PAVQWidget@@PBD_NI@Z 004a11b0 f   objectviewimpl.obj
 0002:000332c0       ??1objectView@@UAE@XZ      004a12c0 f   objectviewimpl.obj
 0002:00033320       ?load@objectView@@QAEXABVQWidgetList@@@Z 004a1320 f   objectviewimpl.obj
 0002:000334d0       ?clear@objectView@@QAEXXZ  004a14d0 f   objectviewimpl.obj
 0002:00033520       ?widgetAdded@objectView@@QAEXABVQString@@0@Z 004a1520 f   objectviewimpl.obj
 0002:00033760       ?widgetRemoved@objectView@@QAEXABVQString@@@Z 004a1760 f   objectviewimpl.obj
 0002:000338e0       ?widgetRenamed@objectView@@QAEXABVQString@@0@Z 004a18e0 f   objectviewimpl.obj
 0002:00033be0       ?timerEvent@objectView@@EAEXPAVQTimerEvent@@@Z 004a1be0 f   objectviewimpl.obj
 0002:00033c70       ?itemHighlighted@objectView@@AAEXPAVQListBoxItem@@@Z 004a1c70 f   objectviewimpl.obj
 0002:00033d90       ?itemDoubleClicked@objectView@@AAEXPAVQListBoxItem@@@Z 004a1d90 f   objectviewimpl.obj
 0002:00034400       ??_EobjectView@@WCI@AEPAXI@Z 004a2400 f i objectviewimpl.obj
 0002:00034410       ??_EQListBoxText@@UAEPAXI@Z 004a2410 f i objectviewimpl.obj
 0002:00034410       ??_GQListBoxText@@UAEPAXI@Z 004a2410 f i objectviewimpl.obj
 0002:00034490       ??_EobjectView@@UAEPAXI@Z  004a2490 f i objectviewimpl.obj
 0002:00034490       ??_GobjectView@@UAEPAXI@Z  004a2490 f i objectviewimpl.obj
 0002:00034500       ?metaObject@objectView@@UBEPAVQMetaObject@@XZ 004a2500 f i objectviewimpl.obj
 0002:00034550       ??0pasteTable@@QAE@PAVQWidget@@PBD@Z 004a2550 f   pasteTable.obj
 0002:00034610       ??0pasteTable@@QAE@HHPAVQWidget@@PBD@Z 004a2610 f   pasteTable.obj
 0002:000346e0       ??1pasteTable@@UAE@XZ      004a26e0 f   pasteTable.obj
 0002:00034790       ?setColumnValidator@pasteTable@@QAEXHPAVQValidator@@@Z 004a2790 f   pasteTable.obj
 0002:00034860       ?keyColumn@pasteTable@@QAEX_N@Z 004a2860 f   pasteTable.obj
 0002:000348d0       ?columnValidator@pasteTable@@QAEPAVQValidator@@H@Z 004a28d0 f   pasteTable.obj
 0002:00034920       ?endEdit@pasteTable@@QAEXXZ 004a2920 f   pasteTable.obj
 0002:000349a0       ?paintCell@pasteTable@@MAEXPAVQPainter@@HHABVQRect@@_NABVQColorGroup@@@Z 004a29a0 f   pasteTable.obj
 0002:00034bd0       ?init@pasteTable@@AAEXXZ   004a2bd0 f   pasteTable.obj
 0002:00034c80       ?clipboardDataChanged@pasteTable@@AAEXXZ 004a2c80 f   pasteTable.obj
 0002:00034de0       ?paste@pasteTable@@QAEXXZ  004a2de0 f   pasteTable.obj
 0002:00036320       ?copy@pasteTable@@QAEXXZ   004a4320 f   pasteTable.obj
 0002:00037080       ??0?$QIntDict@VQValidator@@@@QAE@H@Z 004a5080 f i pasteTable.obj
 0002:00037100       ??0?$QMapIterator@VQString@@H@@QAE@XZ 004a5100 f i pasteTable.obj
 0002:00037150       ??1?$QIntDict@VQValidator@@@@UAE@XZ 004a5150 f i pasteTable.obj
 0002:00037210       ??8?$QMapIterator@VQString@@H@@QBE_NABV0@@Z 004a5210 f i pasteTable.obj
 0002:00037279       ??_EpasteTable@@WCI@AEPAXI@Z 004a5279 f i pasteTable.obj
 0002:00037290       ??_G?$QIntDict@VQValidator@@@@UAEPAXI@Z 004a5290 f i pasteTable.obj
 0002:00037290       ??_E?$QIntDict@VQValidator@@@@UAEPAXI@Z 004a5290 f i pasteTable.obj
 0002:00037300       ??_EpasteTable@@UAEPAXI@Z  004a5300 f i pasteTable.obj
 0002:00037300       ??_GpasteTable@@UAEPAXI@Z  004a5300 f i pasteTable.obj
 0002:00037370       ?clear@?$QIntDict@VQValidator@@@@UAEXXZ 004a5370 f i pasteTable.obj
 0002:000373d0       ?count@?$QIntDict@VQValidator@@@@UBEIXZ 004a53d0 f i pasteTable.obj
 0002:00037430       ?data@?$QMapIterator@VQString@@H@@QAEAAHXZ 004a5430 f i pasteTable.obj
 0002:00037470       ?deleteItem@?$QIntDict@VQValidator@@@@EAEXPAX@Z 004a5470 f i pasteTable.obj
 0002:00037530       ?find@?$QIntDict@VQValidator@@@@QBEPAVQValidator@@J@Z 004a5530 f i pasteTable.obj
 0002:000375a0       ?insert@?$QIntDict@VQValidator@@@@QAEXJPBVQValidator@@@Z 004a55a0 f i pasteTable.obj
 0002:00037610       ?isCellValid@pasteTable@@MAE_NHH@Z 004a5610 f i pasteTable.obj
 0002:000377e0       ?metaObject@pasteTable@@UBEPAVQMetaObject@@XZ 004a57e0 f i pasteTable.obj
 0002:00037830       ?remove@?$QIntDict@VQValidator@@@@QAE_NJ@Z 004a5830 f i pasteTable.obj
 0002:000378a0       ??0pickbox@@QAE@PAVQWidget@@PBDI@Z 004a58a0 f   pickbox.obj
 0002:00038400       ??1pickbox@@UAE@XZ         004a6400 f   pickbox.obj
 0002:00038460       ?windowActivationChange@pickbox@@UAEX_N@Z 004a6460 f   pickbox.obj
 0002:00038680       ?checkFileDate@pickbox@@QAE_NAAVQString@@AAVQDateTime@@@Z 004a6680 f   pickbox.obj
 0002:00038810       ?reload@pickbox@@QAEXAAVQString@@AAVQDateTime@@PAVxml_listview@@@Z 004a6810 f   pickbox.obj
 0002:00038980       ?byNameSelectionChanged@pickbox@@QAEXPAVQListViewItem@@@Z 004a6980 f   pickbox.obj
 0002:00038b00       ?byTypeSelectionChanged@pickbox@@QAEXPAVQListViewItem@@@Z 004a6b00 f   pickbox.obj
 0002:00039300       ??0?$QMap@VQString@@Vstyleentry@@@@QAE@ABV0@@Z 004a7300 f i pickbox.obj
 0002:00039370       ??0?$QMap@VQString@@Vstyleentry@@@@QAE@XZ 004a7370 f i pickbox.obj
 0002:00039460       ??0?$QMapConstIterator@VQString@@Vstyleentry@@@@QAE@PAU?$QMapNode@VQString@@Vstyleentry@@@@@Z 004a7460 f i pickbox.obj
 0002:000394b0       ??0?$QMapIterator@VQString@@Vstyleentry@@@@QAE@ABV0@@Z 004a74b0 f i pickbox.obj
 0002:00039500       ??0?$QMapIterator@VQString@@Vstyleentry@@@@QAE@PAU?$QMapNode@VQString@@Vstyleentry@@@@@Z 004a7500 f i pickbox.obj
 0002:00039550       ??0?$QMapNode@VQString@@Vstyleentry@@@@QAE@ABU0@@Z 004a7550 f i pickbox.obj
 0002:00039660       ??0?$QMapNode@VQString@@Vstyleentry@@@@QAE@ABVQString@@@Z 004a7660 f i pickbox.obj
 0002:00039750       ??0?$QMapNode@VQString@@Vstyleentry@@@@QAE@XZ 004a7750 f i pickbox.obj
 0002:00039820       ??0?$QMapPrivate@VQString@@Vstyleentry@@@@QAE@PBV0@@Z 004a7820 f i pickbox.obj
 0002:00039a20       ??0?$QMapPrivate@VQString@@Vstyleentry@@@@QAE@XZ 004a7a20 f i pickbox.obj
 0002:00039b70       ??0?$QPair@V?$QMapIterator@VQString@@Vstyleentry@@@@_N@@QAE@ABV?$QMapIterator@VQString@@Vstyleentry@@@@AB_N@Z 004a7b70 f i pickbox.obj
 0002:00039be0       ??0?$QValueList@Vstyleentry@@@@QAE@ABV0@@Z 004a7be0 f i pickbox.obj
 0002:00039c60       ??0?$QValueList@Vstyleentry@@@@QAE@XZ 004a7c60 f i pickbox.obj
 0002:00039d50       ??0?$QValueListIterator@Vstyleentry@@@@QAE@ABV0@@Z 004a7d50 f i pickbox.obj
 0002:00039da0       ??0?$QValueListIterator@Vstyleentry@@@@QAE@PAV?$QValueListNode@Vstyleentry@@@@@Z 004a7da0 f i pickbox.obj
 0002:00039df0       ??0?$QValueListNode@Vstyleentry@@@@QAE@ABVstyleentry@@@Z 004a7df0 f i pickbox.obj
 0002:00039e70       ??0?$QValueListNode@Vstyleentry@@@@QAE@XZ 004a7e70 f i pickbox.obj
 0002:00039ee0       ??0?$QValueListPrivate@Vstyleentry@@@@QAE@ABV0@@Z 004a7ee0 f i pickbox.obj
 0002:0003a130       ??0?$QValueListPrivate@Vstyleentry@@@@QAE@XZ 004a8130 f i pickbox.obj
 0002:0003a280       ??1?$QMap@VQString@@Vstyleentry@@@@QAE@XZ 004a8280 f i pickbox.obj
 0002:0003a340       ??1?$QMapNode@VQString@@Vstyleentry@@@@QAE@XZ 004a8340 f i pickbox.obj
 0002:0003a400       ??1?$QMapPrivate@VQString@@Vstyleentry@@@@QAE@XZ 004a8400 f i pickbox.obj
 0002:0003a4a0       ??1?$QValueList@Vstyleentry@@@@QAE@XZ 004a84a0 f i pickbox.obj
 0002:0003a500       ??1?$QValueListNode@Vstyleentry@@@@UAE@XZ 004a8500 f i pickbox.obj
 0002:0003a570       ??1?$QValueListPrivate@Vstyleentry@@@@UAE@XZ 004a8570 f i pickbox.obj
 0002:0003a6c0       ??4?$QMap@VQString@@Vstyleentry@@@@QAEAAV0@ABV0@@Z 004a86c0 f i pickbox.obj
 0002:0003a7b0       ??8?$QMapIterator@VQString@@Vstyleentry@@@@QBE_NABV0@@Z 004a87b0 f i pickbox.obj
 0002:0003a820       ??9?$QMapConstIterator@VQString@@Vstyleentry@@@@QBE_NABV0@@Z 004a8820 f i pickbox.obj
 0002:0003a890       ??9?$QMapIterator@VQString@@Vstyleentry@@@@QBE_NABV0@@Z 004a8890 f i pickbox.obj
 0002:0003a900       ??9?$QValueListIterator@Vstyleentry@@@@QBE_NABV0@@Z 004a8900 f i pickbox.obj
 0002:0003a970       ??A?$QMap@VQString@@Vstyleentry@@@@QAEAAVstyleentry@@ABVQString@@@Z 004a8970 f i pickbox.obj
 0002:0003aae0       ??A?$QMap@VQString@@Vstyleentry@@@@QBEABVstyleentry@@ABVQString@@@Z 004a8ae0 f i pickbox.obj
 0002:0003ab50       ??D?$QMapConstIterator@VQString@@Vstyleentry@@@@QBEABVstyleentry@@XZ 004a8b50 f i pickbox.obj
 0002:0003ab90       ??D?$QValueListIterator@Vstyleentry@@@@QAEAAVstyleentry@@XZ 004a8b90 f i pickbox.obj
 0002:0003abd0       ??E?$QMapConstIterator@VQString@@Vstyleentry@@@@QAEAAV0@XZ 004a8bd0 f i pickbox.obj
 0002:0003ac30       ??E?$QValueListIterator@Vstyleentry@@@@QAE?AV0@H@Z 004a8c30 f i pickbox.obj
 0002:0003ace0       ??F?$QMapIterator@VQString@@Vstyleentry@@@@QAEAAV0@XZ 004a8ce0 f i pickbox.obj
 0002:0003ad32       ??_EQTabWidget@@WCI@AEPAXI@Z 004a8d32 f i pickbox.obj
 0002:0003ad3c       ??_Epickbox@@WCI@AEPAXI@Z  004a8d3c f i pickbox.obj
 0002:0003ad50       ??_G?$QMapNode@VQString@@Vstyleentry@@@@QAEPAXI@Z 004a8d50 f i pickbox.obj
 0002:0003adc0       ??_G?$QMapPrivate@VQString@@Vstyleentry@@@@QAEPAXI@Z 004a8dc0 f i pickbox.obj
 0002:0003ae30       ??_E?$QValueListNode@Vstyleentry@@@@UAEPAXI@Z 004a8e30 f i pickbox.obj
 0002:0003ae30       ??_G?$QValueListNode@Vstyleentry@@@@UAEPAXI@Z 004a8e30 f i pickbox.obj
 0002:0003aea0       ??_G?$QValueListPrivate@Vstyleentry@@@@UAEPAXI@Z 004a8ea0 f i pickbox.obj
 0002:0003aea0       ??_E?$QValueListPrivate@Vstyleentry@@@@UAEPAXI@Z 004a8ea0 f i pickbox.obj
 0002:0003af10       ??_GQTabWidget@@UAEPAXI@Z  004a8f10 f i pickbox.obj
 0002:0003af10       ??_EQTabWidget@@UAEPAXI@Z  004a8f10 f i pickbox.obj
 0002:0003af90       ??_Gpickbox@@UAEPAXI@Z     004a8f90 f i pickbox.obj
 0002:0003af90       ??_Epickbox@@UAEPAXI@Z     004a8f90 f i pickbox.obj
 0002:0003b000       ?append@?$QValueList@Vstyleentry@@@@QAE?AV?$QValueListIterator@Vstyleentry@@@@ABVstyleentry@@@Z 004a9000 f i pickbox.obj
 0002:0003b080       ?begin@?$QMap@VQString@@Vstyleentry@@@@QAE?AV?$QMapIterator@VQString@@Vstyleentry@@@@XZ 004a9080 f i pickbox.obj
 0002:0003b0f0       ?begin@?$QMap@VQString@@Vstyleentry@@@@QBE?AV?$QMapConstIterator@VQString@@Vstyleentry@@@@XZ 004a90f0 f i pickbox.obj
 0002:0003b150       ?begin@?$QMapPrivate@VQString@@Vstyleentry@@@@QAE?AV?$QMapIterator@VQString@@Vstyleentry@@@@XZ 004a9150 f i pickbox.obj
 0002:0003b1b0       ?begin@?$QMapPrivate@VQString@@Vstyleentry@@@@QBE?AV?$QMapConstIterator@VQString@@Vstyleentry@@@@XZ 004a91b0 f i pickbox.obj
 0002:0003b210       ?clear@?$QMap@VQString@@Vstyleentry@@@@QAEXXZ 004a9210 f i pickbox.obj
 0002:0003b330       ?clear@?$QMapPrivate@VQString@@Vstyleentry@@@@QAEXPAU?$QMapNode@VQString@@Vstyleentry@@@@@Z 004a9330 f i pickbox.obj
 0002:0003b400       ?clear@?$QMapPrivate@VQString@@Vstyleentry@@@@QAEXXZ 004a9400 f i pickbox.obj
 0002:0003b4b0       ?constBegin@?$QMap@VQString@@Vstyleentry@@@@QBE?AV?$QMapConstIterator@VQString@@Vstyleentry@@@@XZ 004a94b0 f i pickbox.obj
 0002:0003b510       ?constEnd@?$QMap@VQString@@Vstyleentry@@@@QBE?AV?$QMapConstIterator@VQString@@Vstyleentry@@@@XZ 004a9510 f i pickbox.obj
 0002:0003b570       ?contains@?$QMap@VQString@@Vstyleentry@@@@QBE_NABVQString@@@Z 004a9570 f i pickbox.obj
 0002:0003b5f0       ?copy@?$QMapPrivate@VQString@@Vstyleentry@@@@QAEPAU?$QMapNode@VQString@@Vstyleentry@@@@PAU2@@Z 004a95f0 f i pickbox.obj
 0002:0003b790       ?count@?$QMap@VQString@@Vstyleentry@@@@QBEIABVQString@@@Z 004a9790 f i pickbox.obj
 0002:0003b8b0       ?count@?$QMap@VQString@@Vstyleentry@@@@QBEIXZ 004a98b0 f i pickbox.obj
 0002:0003b8f0       ?data@?$QMapConstIterator@VQString@@Vstyleentry@@@@QBEABVstyleentry@@XZ 004a98f0 f i pickbox.obj
 0002:0003b930       ?data@?$QMapIterator@VQString@@Vstyleentry@@@@QAEAAVstyleentry@@XZ 004a9930 f i pickbox.obj
 0002:0003b970       ?dec@?$QMapIterator@VQString@@Vstyleentry@@@@AAEHXZ 004a9970 f i pickbox.obj
 0002:0003ba60       ?derefAndDelete@?$QValueListPrivate@Vstyleentry@@@@QAEXXZ 004a9a60 f i pickbox.obj
 0002:0003bb30       ?detach@?$QMap@VQString@@Vstyleentry@@@@IAEXXZ 004a9b30 f i pickbox.obj
 0002:0003bb90       ?detach@?$QValueList@Vstyleentry@@@@IAEXXZ 004a9b90 f i pickbox.obj
 0002:0003bbf0       ?detachInternal@?$QMap@VQString@@Vstyleentry@@@@AAEXXZ 004a9bf0 f i pickbox.obj
 0002:0003bd00       ?detachInternal@?$QValueList@Vstyleentry@@@@AAEXXZ 004a9d00 f i pickbox.obj
 0002:0003be10       ?empty@?$QMap@VQString@@Vstyleentry@@@@QBE_NXZ 004a9e10 f i pickbox.obj
 0002:0003be80       ?end@?$QMap@VQString@@Vstyleentry@@@@QAE?AV?$QMapIterator@VQString@@Vstyleentry@@@@XZ 004a9e80 f i pickbox.obj
 0002:0003bef0       ?end@?$QMap@VQString@@Vstyleentry@@@@QBE?AV?$QMapConstIterator@VQString@@Vstyleentry@@@@XZ 004a9ef0 f i pickbox.obj
 0002:0003bf50       ?end@?$QMapPrivate@VQString@@Vstyleentry@@@@QAE?AV?$QMapIterator@VQString@@Vstyleentry@@@@XZ 004a9f50 f i pickbox.obj
 0002:0003bfb0       ?end@?$QMapPrivate@VQString@@Vstyleentry@@@@QBE?AV?$QMapConstIterator@VQString@@Vstyleentry@@@@XZ 004a9fb0 f i pickbox.obj
 0002:0003c010       ?end@?$QValueList@Vstyleentry@@@@QAE?AV?$QValueListIterator@Vstyleentry@@@@XZ 004aa010 f i pickbox.obj
 0002:0003c080       ?erase@?$QMap@VQString@@Vstyleentry@@@@QAEXABVQString@@@Z 004aa080 f i pickbox.obj
 0002:0003c170       ?erase@?$QMap@VQString@@Vstyleentry@@@@QAEXV?$QMapIterator@VQString@@Vstyleentry@@@@@Z 004aa170 f i pickbox.obj
 0002:0003c1e0       ?find@?$QMap@VQString@@Vstyleentry@@@@QAE?AV?$QMapIterator@VQString@@Vstyleentry@@@@ABVQString@@@Z 004aa1e0 f i pickbox.obj
 0002:0003c260       ?find@?$QMap@VQString@@Vstyleentry@@@@QBE?AV?$QMapConstIterator@VQString@@Vstyleentry@@@@ABVQString@@@Z 004aa260 f i pickbox.obj
 0002:0003c2d0       ?find@?$QMapPrivate@VQString@@Vstyleentry@@@@QBE?AV?$QMapConstIterator@VQString@@Vstyleentry@@@@ABVQString@@@Z 004aa2d0 f i pickbox.obj
 0002:0003c400       ?inc@?$QMapConstIterator@VQString@@Vstyleentry@@@@AAEHXZ 004aa400 f i pickbox.obj
 0002:0003c4c0       ?insert@?$QMap@VQString@@Vstyleentry@@@@QAE?AU?$QPair@V?$QMapIterator@VQString@@Vstyleentry@@@@_N@@ABU?$QPair@$$CBVQString@@Vstyleentry@@@@@Z 004aa4c0 f i pickbox.obj
 0002:0003c5e0       ?insert@?$QMap@VQString@@Vstyleentry@@@@QAE?AV?$QMapIterator@VQString@@Vstyleentry@@@@ABVQString@@ABVstyleentry@@_N@Z 004aa5e0 f i pickbox.obj
 0002:0003c6e0       ?insert@?$QMapPrivate@VQString@@Vstyleentry@@@@QAE?AV?$QMapIterator@VQString@@Vstyleentry@@@@PAUQMapNodeBase@@0ABVQString@@@Z 004aa6e0 f i pickbox.obj
 0002:0003c910       ?insert@?$QValueListPrivate@Vstyleentry@@@@QAE?AV?$QValueListIterator@Vstyleentry@@@@V2@ABVstyleentry@@@Z 004aa910 f i pickbox.obj
 0002:0003ca60       ?insertSingle@?$QMapPrivate@VQString@@Vstyleentry@@@@QAE?AV?$QMapIterator@VQString@@Vstyleentry@@@@ABVQString@@@Z 004aaa60 f i pickbox.obj
 0002:0003cc50       ?isEmpty@?$QMap@VQString@@Vstyleentry@@@@QBE_NXZ 004aac50 f i pickbox.obj
 0002:0003ccc0       ?key@?$QMapConstIterator@VQString@@Vstyleentry@@@@QBEABVQString@@XZ 004aacc0 f i pickbox.obj
 0002:0003cd00       ?key@?$QMapPrivate@VQString@@Vstyleentry@@@@IBEABVQString@@PAUQMapNodeBase@@@Z 004aad00 f i pickbox.obj
 0002:0003cd40       ?keys@?$QMap@VQString@@Vstyleentry@@@@QBE?AV?$QValueList@VQString@@@@XZ 004aad40 f i pickbox.obj
 0002:0003cef0       ?metaObject@pickbox@@UBEPAVQMetaObject@@XZ 004aaef0 f i pickbox.obj
 0002:0003cf40       ?remove@?$QMap@VQString@@Vstyleentry@@@@QAEXABVQString@@@Z 004aaf40 f i pickbox.obj
 0002:0003d030       ?remove@?$QMap@VQString@@Vstyleentry@@@@QAEXV?$QMapIterator@VQString@@Vstyleentry@@@@@Z 004ab030 f i pickbox.obj
 0002:0003d0a0       ?remove@?$QMapPrivate@VQString@@Vstyleentry@@@@QAEXV?$QMapIterator@VQString@@Vstyleentry@@@@@Z 004ab0a0 f i pickbox.obj
 0002:0003d190       ?replace@?$QMap@VQString@@Vstyleentry@@@@QAE?AV?$QMapIterator@VQString@@Vstyleentry@@@@ABVQString@@ABVstyleentry@@@Z 004ab190 f i pickbox.obj
 0002:0003d210       ?size@?$QMap@VQString@@Vstyleentry@@@@QBEIXZ 004ab210 f i pickbox.obj
 0002:0003d250       ?values@?$QMap@VQString@@Vstyleentry@@@@QBE?AV?$QValueList@Vstyleentry@@@@XZ 004ab250 f i pickbox.obj
 0002:0003d3d0       ??0pickbox_buttonlist@@QAE@PAVQWidget@@@Z 004ab3d0 f   pickbox_buttonlist.obj
 0002:0003de20       ??1pickbox_buttonlist@@UAE@XZ 004abe20 f   pickbox_buttonlist.obj
 0002:0003de80       ?startDrag@pickbox_buttonlist@@UAEXXZ 004abe80 f   pickbox_buttonlist.obj
 0002:0003f18d       ??_Epickbox_buttonlist@@WCI@AEPAXI@Z 004ad18d f i pickbox_buttonlist.obj
 0002:0003f1a0       ??_Epickbox_buttonlist@@UAEPAXI@Z 004ad1a0 f i pickbox_buttonlist.obj
 0002:0003f1a0       ??_Gpickbox_buttonlist@@UAEPAXI@Z 004ad1a0 f i pickbox_buttonlist.obj
 0002:0003f210       ??0pickbox_paramlist@@QAE@PAVQWidget@@@Z 004ad210 f   pickbox_paramlist.obj
 0002:0003fac0       ??1pickbox_paramlist@@UAE@XZ 004adac0 f   pickbox_paramlist.obj
 0002:0003fba0       ?load@pickbox_paramlist@@QAEXABVQString@@00@Z 004adba0 f   pickbox_paramlist.obj
 0002:0003ff70       ?startDrag@pickbox_paramlist@@QAEXPAVQListViewItem@@@Z 004adf70 f   pickbox_paramlist.obj
 0002:000400e0       ?clear@pickbox_paramlist@@QAEXXZ 004ae0e0 f   pickbox_paramlist.obj
 0002:00040240       ?withLabelClicked@pickbox_paramlist@@QAEXXZ 004ae240 f   pickbox_paramlist.obj
 0002:00040430       ?withSlotSetClicked@pickbox_paramlist@@QAEXXZ 004ae430 f   pickbox_paramlist.obj
 0002:0004096d       ??_EQCheckBox@@WCI@AEPAXI@Z 004ae96d f i pickbox_paramlist.obj
 0002:00040977       ??_EQLabel@@WCI@AEPAXI@Z   004ae977 f i pickbox_paramlist.obj
 0002:00040981       ??_Epickbox_paramlist@@WCI@AEPAXI@Z 004ae981 f i pickbox_paramlist.obj
 0002:00040990       ??_EQCheckBox@@UAEPAXI@Z   004ae990 f i pickbox_paramlist.obj
 0002:00040990       ??_GQCheckBox@@UAEPAXI@Z   004ae990 f i pickbox_paramlist.obj
 0002:00040a10       ??_EQLabel@@UAEPAXI@Z      004aea10 f i pickbox_paramlist.obj
 0002:00040a10       ??_GQLabel@@UAEPAXI@Z      004aea10 f i pickbox_paramlist.obj
 0002:00040a90       ??_Epickbox_paramlist@@UAEPAXI@Z 004aea90 f i pickbox_paramlist.obj
 0002:00040a90       ??_Gpickbox_paramlist@@UAEPAXI@Z 004aea90 f i pickbox_paramlist.obj
 0002:00040b00       ?metaObject@pickbox_paramlist@@UBEPAVQMetaObject@@XZ 004aeb00 f i pickbox_paramlist.obj
 0002:00040b50       ??0preferences@@QAE@XZ     004aeb50 f   preferences.obj
 0002:00040b90       ??1preferences@@UAE@XZ     004aeb90 f   preferences.obj
 0002:00040bd0       ?getInt@preferences@@SAHABVQString@@H@Z 004aebd0 f   preferences.obj
 0002:00040c40       ?getString@preferences@@SA?AVQString@@ABV2@0@Z 004aec40 f   preferences.obj
 0002:00040d30       ?setInt@preferences@@SAXABVQString@@H@Z 004aed30 f   preferences.obj
 0002:00040e70       ?setString@preferences@@SAXABVQString@@0@Z 004aee70 f   preferences.obj
 0002:00040fd0       ??_Gpreferences@@UAEPAXI@Z 004aefd0 f i preferences.obj
 0002:00040fd0       ??_Epreferences@@UAEPAXI@Z 004aefd0 f i preferences.obj
 0002:00041040       ??0project@@QAE@PAVQWidget@@PBDI@Z 004af040 f   project.obj
 0002:00041570       ??1project@@UAE@XZ         004af570 f   project.obj
 0002:0004172f       ??_Eproject@@WCI@AEPAXI@Z  004af72f f i project.obj
 0002:00041740       ??_Gproject@@UAEPAXI@Z     004af740 f i project.obj
 0002:00041740       ??_Eproject@@UAEPAXI@Z     004af740 f i project.obj
 0002:000417b0       ??0project_dlg@@QAE@PAVQWidget@@PBDI@Z 004af7b0 f   project_dlg.obj
 0002:00041930       ??1project_dlg@@UAE@XZ     004af930 f   project_dlg.obj
 0002:00041a03       ??_Eproject_dlg@@WCI@AEPAXI@Z 004afa03 f i project_dlg.obj
 0002:00041a10       ??_Gproject_dlg@@UAEPAXI@Z 004afa10 f i project_dlg.obj
 0002:00041a10       ??_Eproject_dlg@@UAEPAXI@Z 004afa10 f i project_dlg.obj
 0002:00041a80       ??0recentlyusedlist@@QAE@VQString@@H@Z 004afa80 f   recentlyusedlist.obj
 0002:00041b50       ??1recentlyusedlist@@UAE@XZ 004afb50 f   recentlyusedlist.obj
 0002:00041bb0       ?get@recentlyusedlist@@QAE?AVQStringList@@XZ 004afbb0 f   recentlyusedlist.obj
 0002:00041fc0       ?set@recentlyusedlist@@QAE_NVQString@@@Z 004affc0 f   recentlyusedlist.obj
 0002:00042ae0       ??_Erecentlyusedlist@@UAEPAXI@Z 004b0ae0 f i recentlyusedlist.obj
 0002:00042ae0       ??_Grecentlyusedlist@@UAEPAXI@Z 004b0ae0 f i recentlyusedlist.obj
 0002:00042b50       ??0signalConnectionListDlgImpl@@QAE@ABVsignalConnectionRefList@@PAVvis_ed_widget@@PBD_NI@Z 004b0b50 f   signalConnectionListDlgimpl.obj
 0002:00043310       ??1signalConnectionListDlgImpl@@UAE@XZ 004b1310 f   signalConnectionListDlgimpl.obj
 0002:000433b0       ?connectionList@signalConnectionListDlgImpl@@QAEAAVsignalConnectionRefList@@XZ 004b13b0 f   signalConnectionListDlgimpl.obj
 0002:000433f0       ?addConnection@signalConnectionListDlgImpl@@QAEXABVQString@@000@Z 004b13f0 f   signalConnectionListDlgimpl.obj
 0002:00043810       ?highlightDest@signalConnectionListDlgImpl@@QAEXABVQString@@@Z 004b1810 f   signalConnectionListDlgimpl.obj
 0002:00043a60       ?highlightSource@signalConnectionListDlgImpl@@QAEXABVQString@@@Z 004b1a60 f   signalConnectionListDlgimpl.obj
 0002:00043cb0       ?tableClicked@signalConnectionListDlgImpl@@QAEXHHHABVQPoint@@@Z 004b1cb0 f   signalConnectionListDlgimpl.obj
 0002:00043f50       ?accept@signalConnectionListDlgImpl@@UAEXXZ 004b1f50 f   signalConnectionListDlgimpl.obj
 0002:000450e0       ?doHelp@signalConnectionListDlgImpl@@QAEXXZ 004b30e0 f   signalConnectionListDlgimpl.obj
 0002:000451d0       ?doMoveUp@signalConnectionListDlgImpl@@QAEXXZ 004b31d0 f   signalConnectionListDlgimpl.obj
 0002:000452f0       ?doMoveDown@signalConnectionListDlgImpl@@QAEXXZ 004b32f0 f   signalConnectionListDlgimpl.obj
 0002:00045440       ?doDel@signalConnectionListDlgImpl@@QAEXXZ 004b3440 f   signalConnectionListDlgimpl.obj
 0002:00045500       ?tableValueChanged@signalConnectionListDlgImpl@@QAEXHH@Z 004b3500 f   signalConnectionListDlgimpl.obj
 0002:00045df0       ?doImport@signalConnectionListDlgImpl@@QAEXXZ 004b3df0 f   signalConnectionListDlgimpl.obj
 0002:00046480       ?populateEvents@signalConnectionListDlgImpl@@AAEXHAAVQWidgetList@@ABVQString@@1@Z 004b4480 f   signalConnectionListDlgimpl.obj
 0002:00046af0       ?populateCommands@signalConnectionListDlgImpl@@AAEXHAAVQWidgetList@@ABVQString@@1@Z 004b4af0 f   signalConnectionListDlgimpl.obj
 0002:00048480       ??$?0AAV?$_Tree_const_iterator@V?$_Tree_val@U?$_Tree_simple_types@VQString@@@std@@@std@@@std@@_NX@?$pair@V?$_Tree_const_iterator@V?$_Tree_val@U?$_Tree_simple_types@VQString@@@std@@@std@@@std@@_N@std@@QAE@AAV?$_Tree_const_iterator@V?$_Tree_val@U?$_Tree_simple_types@VQString@@@std@@@std@@@1@$$QA_N@Z 004b6480 f i signalConnectionListDlgimpl.obj
 0002:00048550       ??$?0U?$_Tree_node@VQString@@PAX@std@@@?$allocator@U_Container_proxy@std@@@std@@QAE@ABV?$allocator@U?$_Tree_node@VQString@@PAX@std@@@1@@Z 004b6550 f i signalConnectionListDlgimpl.obj
 0002:00048590       ??$?0U?$_Wrap_alloc@V?$allocator@U?$_Tree_node@VQString@@PAX@std@@@std@@@std@@@?$_Wrap_alloc@V?$allocator@U_Container_proxy@std@@@std@@@std@@QAE@ABU?$_Wrap_alloc@V?$allocator@U?$_Tree_node@VQString@@PAX@std@@@std@@@1@@Z 004b6590 f i signalConnectionListDlgimpl.obj
 0002:000485f0       ??$?0V?$_Tree_const_iterator@V?$_Tree_val@U?$_Tree_simple_types@VQString@@@std@@@std@@@std@@_NX@?$pair@V?$_Tree_const_iterator@V?$_Tree_val@U?$_Tree_simple_types@VQString@@@std@@@std@@@std@@_N@std@@QAE@$$QAV?$_Tree_const_iterator@V?$_Tree_val@U?$_Tree_simple_types@VQString@@@std@@@std@@@1@$$QA_N@Z 004b65f0 f i signalConnectionListDlgimpl.obj
 0002:000486c0       ??$_Allocate@U?$_Tree_node@VQString@@PAX@std@@@std@@YAPAU?$_Tree_node@VQString@@PAX@0@IPAU10@@Z 004b66c0 f i signalConnectionListDlgimpl.obj
 0002:00048750       ??$_Buynode@ABVQString@@@?$_Tree_buy@VQString@@V?$allocator@VQString@@@std@@@std@@QAEPAU?$_Tree_node@VQString@@PAX@1@ABVQString@@@Z 004b6750 f i signalConnectionListDlgimpl.obj
 0002:000488c0       ??$_Buynode_if_nil@ABVQString@@@?$_Tree@V?$_Tset_traits@VQString@@U?$less@VQString@@@std@@V?$allocator@VQString@@@3@$0A@@std@@@std@@IAEPAU?$_Tree_node@VQString@@PAX@1@U_Nil@1@ABVQString@@@Z 004b68c0 f i signalConnectionListDlgimpl.obj
 0002:00048930       ??$_Insert_at@ABVQString@@U_Nil@std@@@?$_Tree@V?$_Tset_traits@VQString@@U?$less@VQString@@@std@@V?$allocator@VQString@@@3@$0A@@std@@@std@@IAE?AV?$_Tree_const_iterator@V?$_Tree_val@U?$_Tree_simple_types@VQString@@@std@@@std@@@1@_NPAU?$_Tree_node@VQString@@PAX@1@ABVQString@@U_Nil@1@@Z 004b6930 f i signalConnectionListDlgimpl.obj
 0002:00048ec0       ??$_Insert_nohint@ABVQString@@U_Nil@std@@@?$_Tree@V?$_Tset_traits@VQString@@U?$less@VQString@@@std@@V?$allocator@VQString@@@3@$0A@@std@@@std@@IAE?AU?$pair@V?$_Tree_const_iterator@V?$_Tree_val@U?$_Tree_simple_types@VQString@@@std@@@std@@@std@@_N@1@_NABVQString@@U_Nil@1@@Z 004b6ec0 f i signalConnectionListDlgimpl.obj
 0002:00049610       ??$addressof@PAU?$_Tree_node@VQString@@PAX@std@@@std@@YAPAPAU?$_Tree_node@VQString@@PAX@0@AAPAU10@@Z 004b7610 f i signalConnectionListDlgimpl.obj
 0002:00049650       ??$addressof@VQString@@@std@@YAPAVQString@@AAV1@@Z 004b7650 f i signalConnectionListDlgimpl.obj
 0002:00049690       ??$construct@PAU?$_Tree_node@VQString@@PAX@std@@AAPAU12@@?$_Wrap_alloc@V?$allocator@U?$_Tree_node@VQString@@PAX@std@@@std@@@std@@QAEXPAPAU?$_Tree_node@VQString@@PAX@1@AAPAU21@@Z 004b7690 f i signalConnectionListDlgimpl.obj
 0002:00049700       ??$construct@PAU?$_Tree_node@VQString@@PAX@std@@AAPAU12@@?$allocator@U?$_Tree_node@VQString@@PAX@std@@@std@@QAEXPAPAU?$_Tree_node@VQString@@PAX@1@AAPAU21@@Z 004b7700 f i signalConnectionListDlgimpl.obj
 0002:00049800       ??$construct@PAU?$_Tree_node@VQString@@PAX@std@@AAPAU12@@?$allocator_traits@V?$allocator@U?$_Tree_node@VQString@@PAX@std@@@std@@@std@@SAXAAV?$allocator@U?$_Tree_node@VQString@@PAX@std@@@1@PAPAU?$_Tree_node@VQString@@PAX@1@AAPAU31@@Z 004b7800 f i signalConnectionListDlgimpl.obj
 0002:00049860       ??$construct@VQString@@ABV1@@?$_Wrap_alloc@V?$allocator@U?$_Tree_node@VQString@@PAX@std@@@std@@@std@@QAEXPAVQString@@ABV2@@Z 004b7860 f i signalConnectionListDlgimpl.obj
 0002:000498d0       ??$construct@VQString@@ABV1@@?$allocator@U?$_Tree_node@VQString@@PAX@std@@@std@@QAEXPAVQString@@ABV2@@Z 004b78d0 f i signalConnectionListDlgimpl.obj
 0002:000499e0       ??$construct@VQString@@ABV1@@?$allocator_traits@V?$allocator@U?$_Tree_node@VQString@@PAX@std@@@std@@@std@@SAXAAV?$allocator@U?$_Tree_node@VQString@@PAX@std@@@1@PAVQString@@ABV3@@Z 004b79e0 f i signalConnectionListDlgimpl.obj
 0002:00049a40       ??$destroy@PAU?$_Tree_node@VQString@@PAX@std@@@?$_Wrap_alloc@V?$allocator@U?$_Tree_node@VQString@@PAX@std@@@std@@@std@@QAEXPAPAU?$_Tree_node@VQString@@PAX@1@@Z 004b7a40 f i signalConnectionListDlgimpl.obj
 0002:00049aa0       ??$destroy@PAU?$_Tree_node@VQString@@PAX@std@@@?$allocator@U?$_Tree_node@VQString@@PAX@std@@@std@@QAEXPAPAU?$_Tree_node@VQString@@PAX@1@@Z 004b7aa0 f i signalConnectionListDlgimpl.obj
 0002:00049ae0       ??$destroy@PAU?$_Tree_node@VQString@@PAX@std@@@?$allocator_traits@V?$allocator@U?$_Tree_node@VQString@@PAX@std@@@std@@@std@@SAXAAV?$allocator@U?$_Tree_node@VQString@@PAX@std@@@1@PAPAU?$_Tree_node@VQString@@PAX@1@@Z 004b7ae0 f i signalConnectionListDlgimpl.obj
 0002:00049b30       ??$destroy@VQString@@@?$_Wrap_alloc@V?$allocator@U?$_Tree_node@VQString@@PAX@std@@@std@@@std@@QAEXPAVQString@@@Z 004b7b30 f i signalConnectionListDlgimpl.obj
 0002:00049b90       ??$destroy@VQString@@@?$allocator@U?$_Tree_node@VQString@@PAX@std@@@std@@QAEXPAVQString@@@Z 004b7b90 f i signalConnectionListDlgimpl.obj
 0002:00049bf0       ??$destroy@VQString@@@?$allocator_traits@V?$allocator@U?$_Tree_node@VQString@@PAX@std@@@std@@@std@@SAXAAV?$allocator@U?$_Tree_node@VQString@@PAX@std@@@1@PAVQString@@@Z 004b7bf0 f i signalConnectionListDlgimpl.obj
 0002:00049c40       ??$forward@AAPAU?$_Tree_node@VQString@@PAX@std@@@std@@YAAAPAU?$_Tree_node@VQString@@PAX@0@AAPAU10@@Z 004b7c40 f i signalConnectionListDlgimpl.obj
 0002:00049c80       ??$forward@AAV?$_Tree_const_iterator@V?$_Tree_val@U?$_Tree_simple_types@VQString@@@std@@@std@@@std@@@std@@YAAAV?$_Tree_const_iterator@V?$_Tree_val@U?$_Tree_simple_types@VQString@@@std@@@std@@@0@AAV10@@Z 004b7c80 f i signalConnectionListDlgimpl.obj
 0002:00049cc0       ??$forward@V?$_Tree_const_iterator@V?$_Tree_val@U?$_Tree_simple_types@VQString@@@std@@@std@@@std@@@std@@YA$$QAV?$_Tree_const_iterator@V?$_Tree_val@U?$_Tree_simple_types@VQString@@@std@@@std@@@0@AAV10@@Z 004b7cc0 f i signalConnectionListDlgimpl.obj
 0002:00049d00       ??0?$_Iterator012@Ubidirectional_iterator_tag@std@@VQString@@HPBV3@ABV3@U_Iterator_base12@2@@std@@QAE@ABU01@@Z 004b7d00 f i signalConnectionListDlgimpl.obj
 0002:00049d60       ??0?$_Iterator012@Ubidirectional_iterator_tag@std@@VQString@@HPBV3@ABV3@U_Iterator_base12@2@@std@@QAE@XZ 004b7d60 f i signalConnectionListDlgimpl.obj
 0002:00049dc0       ??0?$_Tree@V?$_Tset_traits@VQString@@U?$less@VQString@@@std@@V?$allocator@VQString@@@3@$0A@@std@@@std@@QAE@ABU?$less@VQString@@@1@ABV?$allocator@VQString@@@1@@Z 004b7dc0 f i signalConnectionListDlgimpl.obj
 0002:00049e20       ??0?$_Tree_alloc@$0A@U?$_Tree_base_types@VQString@@V?$allocator@VQString@@@std@@@std@@@std@@QAE@ABV?$allocator@VQString@@@1@@Z 004b7e20 f i signalConnectionListDlgimpl.obj
 0002:00049f20       ??0?$_Tree_buy@VQString@@V?$allocator@VQString@@@std@@@std@@QAE@ABV?$allocator@VQString@@@1@@Z 004b7f20 f i signalConnectionListDlgimpl.obj
 0002:00049f80       ??0?$_Tree_comp@$0A@V?$_Tset_traits@VQString@@U?$less@VQString@@@std@@V?$allocator@VQString@@@3@$0A@@std@@@std@@QAE@ABU?$less@VQString@@@1@ABV?$allocator@VQString@@@1@@Z 004b7f80 f i signalConnectionListDlgimpl.obj
 0002:00049fe0       ??0?$_Tree_const_iterator@V?$_Tree_val@U?$_Tree_simple_types@VQString@@@std@@@std@@@std@@QAE@ABV01@@Z 004b7fe0 f i signalConnectionListDlgimpl.obj
 0002:0004a040       ??0?$_Tree_const_iterator@V?$_Tree_val@U?$_Tree_simple_types@VQString@@@std@@@std@@@std@@QAE@PAU?$_Tree_node@VQString@@PAX@1@PBV?$_Tree_val@U?$_Tree_simple_types@VQString@@@std@@@1@@Z 004b8040 f i signalConnectionListDlgimpl.obj
 0002:0004a0a0       ??0?$_Tree_unchecked_const_iterator@V?$_Tree_val@U?$_Tree_simple_types@VQString@@@std@@@std@@U_Iterator_base12@2@@std@@QAE@ABV01@@Z 004b80a0 f i signalConnectionListDlgimpl.obj
 0002:0004a110       ??0?$_Tree_unchecked_const_iterator@V?$_Tree_val@U?$_Tree_simple_types@VQString@@@std@@@std@@U_Iterator_base12@2@@std@@QAE@PAU?$_Tree_node@VQString@@PAX@1@PBV?$_Tree_val@U?$_Tree_simple_types@VQString@@@std@@@1@@Z 004b8110 f i signalConnectionListDlgimpl.obj
 0002:0004a1d0       ??0?$_Tree_val@U?$_Tree_simple_types@VQString@@@std@@@std@@QAE@XZ 004b81d0 f i signalConnectionListDlgimpl.obj
 0002:0004a250       ??0?$_Wrap_alloc@V?$allocator@U?$_Tree_node@VQString@@PAX@std@@@std@@@std@@QAE@XZ 004b8250 f i signalConnectionListDlgimpl.obj
 0002:0004a2b0       ??0?$allocator@U?$_Tree_node@VQString@@PAX@std@@@std@@QAE@XZ 004b82b0 f i signalConnectionListDlgimpl.obj
 0002:0004a2f0       ??0?$allocator@VQString@@@std@@QAE@XZ 004b82f0 f i signalConnectionListDlgimpl.obj
 0002:0004a330       ??0?$set@VQString@@U?$less@VQString@@@std@@V?$allocator@VQString@@@3@@std@@QAE@XZ 004b8330 f i signalConnectionListDlgimpl.obj
 0002:0004a3a0       ??0commandValidator@@QAE@PAVQObject@@@Z 004b83a0 f i signalConnectionListDlgimpl.obj
 0002:0004a420       ??0mustHaveACommentValidator@@QAE@PAVQObject@@@Z 004b8420 f i signalConnectionListDlgimpl.obj
 0002:0004a4a0       ??0mustHaveAnEqualsValidator@@QAE@PAVQObject@@@Z 004b84a0 f i signalConnectionListDlgimpl.obj
 0002:0004a520       ??1?$_Iterator012@Ubidirectional_iterator_tag@std@@VQString@@HPBV3@ABV3@U_Iterator_base12@2@@std@@QAE@XZ 004b8520 f i signalConnectionListDlgimpl.obj
 0002:0004a570       ??1?$_Tree@V?$_Tset_traits@VQString@@U?$less@VQString@@@std@@V?$allocator@VQString@@@3@$0A@@std@@@std@@QAE@XZ 004b8570 f i signalConnectionListDlgimpl.obj
 0002:0004a5d0       ??1?$_Tree_alloc@$0A@U?$_Tree_base_types@VQString@@V?$allocator@VQString@@@std@@@std@@@std@@QAE@XZ 004b85d0 f i signalConnectionListDlgimpl.obj
 0002:0004a640       ??1?$_Tree_buy@VQString@@V?$allocator@VQString@@@std@@@std@@QAE@XZ 004b8640 f i signalConnectionListDlgimpl.obj
 0002:0004a690       ??1?$_Tree_comp@$0A@V?$_Tset_traits@VQString@@U?$less@VQString@@@std@@V?$allocator@VQString@@@3@$0A@@std@@@std@@QAE@XZ 004b8690 f i signalConnectionListDlgimpl.obj
 0002:0004a6e0       ??1?$_Tree_const_iterator@V?$_Tree_val@U?$_Tree_simple_types@VQString@@@std@@@std@@@std@@QAE@XZ 004b86e0 f i signalConnectionListDlgimpl.obj
 0002:0004a730       ??1?$_Tree_unchecked_const_iterator@V?$_Tree_val@U?$_Tree_simple_types@VQString@@@std@@@std@@U_Iterator_base12@2@@std@@QAE@XZ 004b8730 f i signalConnectionListDlgimpl.obj
 0002:0004a780       ??1?$_Tree_val@U?$_Tree_simple_types@VQString@@@std@@@std@@QAE@XZ 004b8780 f i signalConnectionListDlgimpl.obj
 0002:0004a7e0       ??1?$pair@V?$_Tree_const_iterator@V?$_Tree_val@U?$_Tree_simple_types@VQString@@@std@@@std@@@std@@_N@std@@QAE@XZ 004b87e0 f i signalConnectionListDlgimpl.obj
 0002:0004a830       ??1?$set@VQString@@U?$less@VQString@@@std@@V?$allocator@VQString@@@3@@std@@QAE@XZ 004b8830 f i signalConnectionListDlgimpl.obj
 0002:0004a880       ??1commandValidator@@UAE@XZ 004b8880 f i signalConnectionListDlgimpl.obj
 0002:0004a8e0       ??1mustHaveACommentValidator@@UAE@XZ 004b88e0 f i signalConnectionListDlgimpl.obj
 0002:0004a940       ??1mustHaveAnEqualsValidator@@UAE@XZ 004b8940 f i signalConnectionListDlgimpl.obj
 0002:0004a9a0       ??8?$_Tree_const_iterator@V?$_Tree_val@U?$_Tree_simple_types@VQString@@@std@@@std@@@std@@QBE_NABV01@@Z 004b89a0 f i signalConnectionListDlgimpl.obj
 0002:0004ab00       ??9?$QPtrListStdIterator@VsignalConnection@@@@QBE_NABV0@@Z 004b8b00 f i signalConnectionListDlgimpl.obj
 0002:0004ab70       ??9?$_Tree_const_iterator@V?$_Tree_val@U?$_Tree_simple_types@VQString@@@std@@@std@@@std@@QBE_NABV01@@Z 004b8b70 f i signalConnectionListDlgimpl.obj
 0002:0004ac00       ??D?$QPtrListStdIterator@VsignalConnection@@@@QAEPAVsignalConnection@@XZ 004b8c00 f i signalConnectionListDlgimpl.obj
 0002:0004ac90       ??D?$_Tree_const_iterator@V?$_Tree_val@U?$_Tree_simple_types@VQString@@@std@@@std@@@std@@QBEABVQString@@XZ 004b8c90 f i signalConnectionListDlgimpl.obj
 0002:0004add0       ??E?$QPtrListStdIterator@VsignalConnection@@@@QAE?AV0@XZ 004b8dd0 f i signalConnectionListDlgimpl.obj
 0002:0004ae60       ??E?$_Tree_const_iterator@V?$_Tree_val@U?$_Tree_simple_types@VQString@@@std@@@std@@@std@@QAE?AV01@H@Z 004b8e60 f i signalConnectionListDlgimpl.obj
 0002:0004af80       ??E?$_Tree_const_iterator@V?$_Tree_val@U?$_Tree_simple_types@VQString@@@std@@@std@@@std@@QAEAAV01@XZ 004b8f80 f i signalConnectionListDlgimpl.obj
 0002:0004b0c0       ??E?$_Tree_unchecked_const_iterator@V?$_Tree_val@U?$_Tree_simple_types@VQString@@@std@@@std@@U_Iterator_base12@2@@std@@QAEAAV01@XZ 004b90c0 f i signalConnectionListDlgimpl.obj
 0002:0004b1f0       ??F?$_Tree_const_iterator@V?$_Tree_val@U?$_Tree_simple_types@VQString@@@std@@@std@@@std@@QAEAAV01@XZ 004b91f0 f i signalConnectionListDlgimpl.obj
 0002:0004b3d0       ??F?$_Tree_unchecked_const_iterator@V?$_Tree_val@U?$_Tree_simple_types@VQString@@@std@@@std@@U_Iterator_base12@2@@std@@QAEAAV01@XZ 004b93d0 f i signalConnectionListDlgimpl.obj
 0002:0004b52e       ??_EsignalConnectionListDlgImpl@@WCI@AEPAXI@Z 004b952e f i signalConnectionListDlgimpl.obj
 0002:0004b540       ??_EQComboTableItem@@UAEPAXI@Z 004b9540 f i signalConnectionListDlgimpl.obj
 0002:0004b540       ??_GQComboTableItem@@UAEPAXI@Z 004b9540 f i signalConnectionListDlgimpl.obj
 0002:0004b5c0       ??_GQString@@QAEPAXI@Z     004b95c0 f i signalConnectionListDlgimpl.obj
 0002:0004b640       ??_GcommandValidator@@UAEPAXI@Z 004b9640 f i signalConnectionListDlgimpl.obj
 0002:0004b640       ??_EcommandValidator@@UAEPAXI@Z 004b9640 f i signalConnectionListDlgimpl.obj
 0002:0004b6b0       ??_GmustHaveACommentValidator@@UAEPAXI@Z 004b96b0 f i signalConnectionListDlgimpl.obj
 0002:0004b6b0       ??_EmustHaveACommentValidator@@UAEPAXI@Z 004b96b0 f i signalConnectionListDlgimpl.obj
 0002:0004b720       ??_EmustHaveAnEqualsValidator@@UAEPAXI@Z 004b9720 f i signalConnectionListDlgimpl.obj
 0002:0004b720       ??_GmustHaveAnEqualsValidator@@UAEPAXI@Z 004b9720 f i signalConnectionListDlgimpl.obj
 0002:0004b790       ??_GsignalConnectionListDlgImpl@@UAEPAXI@Z 004b9790 f i signalConnectionListDlgimpl.obj
 0002:0004b790       ??_EsignalConnectionListDlgImpl@@UAEPAXI@Z 004b9790 f i signalConnectionListDlgimpl.obj
 0002:0004b800       ?_Alloc_proxy@?$_Tree_alloc@$0A@U?$_Tree_base_types@VQString@@V?$allocator@VQString@@@std@@@std@@@std@@QAEXXZ 004b9800 f i signalConnectionListDlgimpl.obj
 0002:0004b8e0       ?_Buyheadnode@?$_Tree_alloc@$0A@U?$_Tree_base_types@VQString@@V?$allocator@VQString@@@std@@@std@@@std@@QAEPAU?$_Tree_node@VQString@@PAX@2@XZ 004b98e0 f i signalConnectionListDlgimpl.obj
 0002:0004bb40       ?_Buynode0@?$_Tree_buy@VQString@@V?$allocator@VQString@@@std@@@std@@QAEPAU?$_Tree_node@VQString@@PAX@2@XZ 004b9b40 f i signalConnectionListDlgimpl.obj
 0002:0004bd50       ?_Color@?$_Tree_val@U?$_Tree_simple_types@VQString@@@std@@@std@@SAAADPAU?$_Tree_node@VQString@@PAX@2@@Z 004b9d50 f i signalConnectionListDlgimpl.obj
 0002:0004bd90       ?_Destroy_if_not_nil@?$_Tree@V?$_Tset_traits@VQString@@U?$less@VQString@@@std@@V?$allocator@VQString@@@3@$0A@@std@@@std@@IAEXU_Nil@2@@Z 004b9d90 f i signalConnectionListDlgimpl.obj
 0002:0004bdd0       ?_Erase@?$_Tree@V?$_Tset_traits@VQString@@U?$less@VQString@@@std@@V?$allocator@VQString@@@3@$0A@@std@@@std@@IAEXPAU?$_Tree_node@VQString@@PAX@2@@Z 004b9dd0 f i signalConnectionListDlgimpl.obj
 0002:0004bee0       ?_Free_proxy@?$_Tree_alloc@$0A@U?$_Tree_base_types@VQString@@V?$allocator@VQString@@@std@@@std@@@std@@QAEXXZ 004b9ee0 f i signalConnectionListDlgimpl.obj
 0002:0004bfd0       ?_Freeheadnode@?$_Tree_alloc@$0A@U?$_Tree_base_types@VQString@@V?$allocator@VQString@@@std@@@std@@@std@@QAEXPAU?$_Tree_node@VQString@@PAX@2@@Z 004b9fd0 f i signalConnectionListDlgimpl.obj
 0002:0004c0e0       ?_Freenode0@?$_Tree_buy@VQString@@V?$allocator@VQString@@@std@@@std@@QAEXPAU?$_Tree_node@VQString@@PAX@2@@Z 004ba0e0 f i signalConnectionListDlgimpl.obj
 0002:0004c1f0       ?_Getal@?$_Tree_alloc@$0A@U?$_Tree_base_types@VQString@@V?$allocator@VQString@@@std@@@std@@@std@@QBE?AU?$_Wrap_alloc@V?$allocator@U?$_Tree_node@VQString@@PAX@std@@@std@@@2@XZ 004ba1f0 f i signalConnectionListDlgimpl.obj
 0002:0004c250       ?_Getcomp@?$_Tree_comp@$0A@V?$_Tset_traits@VQString@@U?$less@VQString@@@std@@V?$allocator@VQString@@@3@$0A@@std@@@std@@QBE?AU?$less@VQString@@@2@XZ 004ba250 f i signalConnectionListDlgimpl.obj
 0002:0004c290       ?_Isnil@?$_Tree_val@U?$_Tree_simple_types@VQString@@@std@@@std@@SAAADPAU?$_Tree_node@VQString@@PAX@2@@Z 004ba290 f i signalConnectionListDlgimpl.obj
 0002:0004c2d0       ?_Key@?$_Tree@V?$_Tset_traits@VQString@@U?$less@VQString@@@std@@V?$allocator@VQString@@@3@$0A@@std@@@std@@IBEABVQString@@PAU?$_Tree_node@VQString@@PAX@2@@Z 004ba2d0 f i signalConnectionListDlgimpl.obj
 0002:0004c340       ?_Kfn@?$_Tree@V?$_Tset_traits@VQString@@U?$less@VQString@@@std@@V?$allocator@VQString@@@3@$0A@@std@@@std@@IBEABVQString@@ABV3@@Z 004ba340 f i signalConnectionListDlgimpl.obj
 0002:0004c3a0       ?_Kfn@?$_Tset_traits@VQString@@U?$less@VQString@@@std@@V?$allocator@VQString@@@3@$0A@@std@@SAABVQString@@ABV3@@Z 004ba3a0 f i signalConnectionListDlgimpl.obj
 0002:0004c3e0       ?_Left@?$_Tree_val@U?$_Tree_simple_types@VQString@@@std@@@std@@SAAAPAU?$_Tree_node@VQString@@PAX@2@PAU32@@Z 004ba3e0 f i signalConnectionListDlgimpl.obj
 0002:0004c420       ?_Lmost@?$_Tree@V?$_Tset_traits@VQString@@U?$less@VQString@@@std@@V?$allocator@VQString@@@3@$0A@@std@@@std@@IBEAAPAU?$_Tree_node@VQString@@PAX@2@XZ 004ba420 f i signalConnectionListDlgimpl.obj
 0002:0004c480       ?_Lrotate@?$_Tree@V?$_Tset_traits@VQString@@U?$less@VQString@@@std@@V?$allocator@VQString@@@3@$0A@@std@@@std@@IAEXPAU?$_Tree_node@VQString@@PAX@2@@Z 004ba480 f i signalConnectionListDlgimpl.obj
 0002:0004c630       ?_Max@?$_Tree_val@U?$_Tree_simple_types@VQString@@@std@@@std@@SAPAU?$_Tree_node@VQString@@PAX@2@PAU32@@Z 004ba630 f i signalConnectionListDlgimpl.obj
 0002:0004c6b0       ?_Min@?$_Tree_val@U?$_Tree_simple_types@VQString@@@std@@@std@@SAPAU?$_Tree_node@VQString@@PAX@2@PAU32@@Z 004ba6b0 f i signalConnectionListDlgimpl.obj
 0002:0004c730       ?_Mynode@?$_Tree_unchecked_const_iterator@V?$_Tree_val@U?$_Tree_simple_types@VQString@@@std@@@std@@U_Iterator_base12@2@@std@@QBEPAU?$_Tree_node@VQString@@PAX@2@XZ 004ba730 f i signalConnectionListDlgimpl.obj
 0002:0004c770       ?_Myval@?$_Tree_val@U?$_Tree_simple_types@VQString@@@std@@@std@@SAAAVQString@@PAU?$_Tree_node@VQString@@PAX@2@@Z 004ba770 f i signalConnectionListDlgimpl.obj
 0002:0004c7b0       ?_Orphan_ptr@?$_Tree@V?$_Tset_traits@VQString@@U?$less@VQString@@@std@@V?$allocator@VQString@@@3@$0A@@std@@@std@@IBEXAAV12@PAU?$_Tree_node@VQString@@PAX@2@@Z 004ba7b0 f i signalConnectionListDlgimpl.obj
 0002:0004c940       ?_Parent@?$_Tree_val@U?$_Tree_simple_types@VQString@@@std@@@std@@SAAAPAU?$_Tree_node@VQString@@PAX@2@PAU32@@Z 004ba940 f i signalConnectionListDlgimpl.obj
 0002:0004c980       ?_Right@?$_Tree_val@U?$_Tree_simple_types@VQString@@@std@@@std@@SAAAPAU?$_Tree_node@VQString@@PAX@2@PAU32@@Z 004ba980 f i signalConnectionListDlgimpl.obj
 0002:0004c9c0       ?_Rmost@?$_Tree@V?$_Tset_traits@VQString@@U?$less@VQString@@@std@@V?$allocator@VQString@@@3@$0A@@std@@@std@@IBEAAPAU?$_Tree_node@VQString@@PAX@2@XZ 004ba9c0 f i signalConnectionListDlgimpl.obj
 0002:0004ca20       ?_Root@?$_Tree@V?$_Tset_traits@VQString@@U?$less@VQString@@@std@@V?$allocator@VQString@@@3@$0A@@std@@@std@@IBEAAPAU?$_Tree_node@VQString@@PAX@2@XZ 004baa20 f i signalConnectionListDlgimpl.obj
 0002:0004ca80       ?_Rrotate@?$_Tree@V?$_Tset_traits@VQString@@U?$less@VQString@@@std@@V?$allocator@VQString@@@3@$0A@@std@@@std@@IAEXPAU?$_Tree_node@VQString@@PAX@2@@Z 004baa80 f i signalConnectionListDlgimpl.obj
 0002:0004cc30       ?_Tidy@?$_Tree@V?$_Tset_traits@VQString@@U?$less@VQString@@@std@@V?$allocator@VQString@@@3@$0A@@std@@@std@@IAEXXZ 004bac30 f i signalConnectionListDlgimpl.obj
 0002:0004cce0       ?allocate@?$_Wrap_alloc@V?$allocator@U?$_Tree_node@VQString@@PAX@std@@@std@@@std@@QAEPAU?$_Tree_node@VQString@@PAX@2@I@Z 004bace0 f i signalConnectionListDlgimpl.obj
 0002:0004cd40       ?allocate@?$allocator@U?$_Tree_node@VQString@@PAX@std@@@std@@QAEPAU?$_Tree_node@VQString@@PAX@2@I@Z 004bad40 f i signalConnectionListDlgimpl.obj
 0002:0004cda0       ?begin@?$_Tree@V?$_Tset_traits@VQString@@U?$less@VQString@@@std@@V?$allocator@VQString@@@3@$0A@@std@@@std@@QAE?AV?$_Tree_const_iterator@V?$_Tree_val@U?$_Tree_simple_types@VQString@@@std@@@std@@@2@XZ 004bada0 f i signalConnectionListDlgimpl.obj
 0002:0004ce10       ?clear@?$_Tree@V?$_Tset_traits@VQString@@U?$less@VQString@@@std@@V?$allocator@VQString@@@3@$0A@@std@@@std@@QAEXXZ 004bae10 f i signalConnectionListDlgimpl.obj
 0002:0004ced0       ?deallocate@?$_Wrap_alloc@V?$allocator@U?$_Tree_node@VQString@@PAX@std@@@std@@@std@@QAEXPAU?$_Tree_node@VQString@@PAX@2@I@Z 004baed0 f i signalConnectionListDlgimpl.obj
 0002:0004cf30       ?deallocate@?$allocator@U?$_Tree_node@VQString@@PAX@std@@@std@@QAEXPAU?$_Tree_node@VQString@@PAX@2@I@Z 004baf30 f i signalConnectionListDlgimpl.obj
 0002:0004cf90       ?end@?$_Tree@V?$_Tset_traits@VQString@@U?$less@VQString@@@std@@V?$allocator@VQString@@@3@$0A@@std@@@std@@QAE?AV?$_Tree_const_iterator@V?$_Tree_val@U?$_Tree_simple_types@VQString@@@std@@@std@@@2@XZ 004baf90 f i signalConnectionListDlgimpl.obj
 0002:0004d000       ?erase@?$_Tree@V?$_Tset_traits@VQString@@U?$less@VQString@@@std@@V?$allocator@VQString@@@3@$0A@@std@@@std@@QAE?AV?$_Tree_const_iterator@V?$_Tree_val@U?$_Tree_simple_types@VQString@@@std@@@std@@@2@V32@0@Z 004bb000 f i signalConnectionListDlgimpl.obj
 0002:0004d320       ?erase@?$_Tree@V?$_Tset_traits@VQString@@U?$less@VQString@@@std@@V?$allocator@VQString@@@3@$0A@@std@@@std@@QAE?AV?$_Tree_const_iterator@V?$_Tree_val@U?$_Tree_simple_types@VQString@@@std@@@std@@@2@V32@@Z 004bb320 f i signalConnectionListDlgimpl.obj
 0002:0004dda0       ?insert@?$_Tree@V?$_Tset_traits@VQString@@U?$less@VQString@@@std@@V?$allocator@VQString@@@3@$0A@@std@@@std@@QAE?AU?$pair@V?$_Tree_const_iterator@V?$_Tree_val@U?$_Tree_simple_types@VQString@@@std@@@std@@@std@@_N@2@ABVQString@@@Z 004bbda0 f i signalConnectionListDlgimpl.obj
 0002:0004de30       ?insert@?$set@VQString@@U?$less@VQString@@@std@@V?$allocator@VQString@@@3@@std@@QAE?AU?$pair@V?$_Tree_const_iterator@V?$_Tree_val@U?$_Tree_simple_types@VQString@@@std@@@std@@@std@@_N@2@ABVQString@@@Z 004bbe30 f i signalConnectionListDlgimpl.obj
 0002:0004deb0       ?max_size@?$_Tree@V?$_Tset_traits@VQString@@U?$less@VQString@@@std@@V?$allocator@VQString@@@3@$0A@@std@@@std@@QBEIXZ 004bbeb0 f i signalConnectionListDlgimpl.obj
 0002:0004df10       ?max_size@?$_Wrap_alloc@V?$allocator@U?$_Tree_node@VQString@@PAX@std@@@std@@@std@@QBEIXZ 004bbf10 f i signalConnectionListDlgimpl.obj
 0002:0004df70       ?max_size@?$allocator@U?$_Tree_node@VQString@@PAX@std@@@std@@QBEIXZ 004bbf70 f i signalConnectionListDlgimpl.obj
 0002:0004dfb0       ?max_size@?$allocator_traits@V?$allocator@U?$_Tree_node@VQString@@PAX@std@@@std@@@std@@SAIABV?$allocator@U?$_Tree_node@VQString@@PAX@std@@@2@@Z 004bbfb0 f i signalConnectionListDlgimpl.obj
 0002:0004e000       ?metaObject@signalConnectionListDlgImpl@@UBEPAVQMetaObject@@XZ 004bc000 f i signalConnectionListDlgimpl.obj
 0002:0004e050       ?size@?$_Tree@V?$_Tset_traits@VQString@@U?$less@VQString@@@std@@V?$allocator@VQString@@@3@$0A@@std@@@std@@QBEIXZ 004bc050 f i signalConnectionListDlgimpl.obj
 0002:0004e090       ?validate@commandValidator@@UBE?AW4State@QValidator@@AAVQString@@AAH@Z 004bc090 f i signalConnectionListDlgimpl.obj
 0002:0004e6a0       ?validate@mustHaveACommentValidator@@UBE?AW4State@QValidator@@AAVQString@@AAH@Z 004bc6a0 f i signalConnectionListDlgimpl.obj
 0002:0004e720       ?validate@mustHaveAnEqualsValidator@@UBE?AW4State@QValidator@@AAVQString@@AAH@Z 004bc720 f i signalConnectionListDlgimpl.obj
 0002:0004e7c0       ??0sizePosEdit@@QAE@PAVQWidget@@PBD_NI@Z 004bc7c0 f   sizeposeditimpl.obj
 0002:0004e890       ??1sizePosEdit@@UAE@XZ     004bc890 f   sizeposeditimpl.obj
 0002:0004e8f0       ?doHelp@sizePosEdit@@QAEXXZ 004bc8f0 f   sizeposeditimpl.obj
 0002:0004ea61       ??_EsizePosEdit@@WCI@AEPAXI@Z 004bca61 f i sizeposeditimpl.obj
 0002:0004ea70       ??_EsizePosEdit@@UAEPAXI@Z 004bca70 f i sizeposeditimpl.obj
 0002:0004ea70       ??_GsizePosEdit@@UAEPAXI@Z 004bca70 f i sizeposeditimpl.obj
 0002:0004eae0       ?metaObject@sizePosEdit@@UBEPAVQMetaObject@@XZ 004bcae0 f i sizeposeditimpl.obj
 0002:0004eb30       ??0testSettingsBase@@QAE@PAVQWidget@@PBD_NI@Z 004bcb30 f   testsettings.obj
 0002:0004f6d0       ??1testSettingsBase@@UAE@XZ 004bd6d0 f   testsettings.obj
 0002:0004f730       ?languageChange@testSettingsBase@@MAEXXZ 004bd730 f   testsettings.obj
 0002:00050265       ??_EQComboBox@@WCI@AEPAXI@Z 004be265 f i testsettings.obj
 0002:0005026f       ??_EQLineEdit@@WCI@AEPAXI@Z 004be26f f i testsettings.obj
 0002:00050279       ??_EtestSettingsBase@@WCI@AEPAXI@Z 004be279 f i testsettings.obj
 0002:00050290       ??_EQComboBox@@UAEPAXI@Z   004be290 f i testsettings.obj
 0002:00050290       ??_GQComboBox@@UAEPAXI@Z   004be290 f i testsettings.obj
 0002:00050310       ??_GQLineEdit@@UAEPAXI@Z   004be310 f i testsettings.obj
 0002:00050310       ??_EQLineEdit@@UAEPAXI@Z   004be310 f i testsettings.obj
 0002:00050390       ??_EtestSettingsBase@@UAEPAXI@Z 004be390 f i testsettings.obj
 0002:00050390       ??_GtestSettingsBase@@UAEPAXI@Z 004be390 f i testsettings.obj
 0002:00050400       ?metaObject@testSettingsBase@@UBEPAVQMetaObject@@XZ 004be400 f i testsettings.obj
 0002:00050450       ??0testSettings@@QAE@PAVQWidget@@PBD_NI@Z 004be450 f   testsettingsimpl.obj
 0002:000504c0       ??1testSettings@@UAE@XZ    004be4c0 f   testsettingsimpl.obj
 0002:00050542       ??_EtestSettings@@WCI@AEPAXI@Z 004be542 f i testsettingsimpl.obj
 0002:00050550       ??_EtestSettings@@UAEPAXI@Z 004be550 f i testsettingsimpl.obj
 0002:00050550       ??_GtestSettings@@UAEPAXI@Z 004be550 f i testsettingsimpl.obj
 0002:000505c0       ?metaObject@testSettings@@UBEPAVQMetaObject@@XZ 004be5c0 f i testsettingsimpl.obj
 0002:00050610       ??0textedit@@QAE@PAVQWidget@@PBDI@Z 004be610 f   textedit.obj
 0002:00050720       ??1textedit@@UAE@XZ        004be720 f   textedit.obj
 0002:00050890       ?load@textedit@@QAEXPBD@Z  004be890 f   textedit.obj
 0002:00050a60       ?gotoidentifier@textedit@@QAEXAAVQString@@@Z 004bea60 f   textedit.obj
 0002:00050b10       ?showtools@textedit@@QAEXPAVQMainWindow@@PAVQPopupMenu@@_NH@Z 004beb10 f   textedit.obj
 0002:00051090       ?save@textedit@@QAEXXZ     004bf090 f   textedit.obj
 0002:00051350       ?close@textedit@@EAE_N_N@Z 004bf350 f   textedit.obj
 0002:00051bee       ??_EQPopupMenu@@WCI@AEPAXI@Z 004bfbee f i textedit.obj
 0002:00051bf8       ??_EQPopupMenu@@WIM@AEPAXI@Z 004bfbf8 f i textedit.obj
 0002:00051c05       ??_Etextedit@@WCI@AEPAXI@Z 004bfc05 f i textedit.obj
 0002:00051c10       ??_EQAction@@UAEPAXI@Z     004bfc10 f i textedit.obj
 0002:00051c10       ??_GQAction@@UAEPAXI@Z     004bfc10 f i textedit.obj
 0002:00051c90       ??_GQPopupMenu@@UAEPAXI@Z  004bfc90 f i textedit.obj
 0002:00051c90       ??_EQPopupMenu@@UAEPAXI@Z  004bfc90 f i textedit.obj
 0002:00051d10       ??_Etextedit@@UAEPAXI@Z    004bfd10 f i textedit.obj
 0002:00051d10       ??_Gtextedit@@UAEPAXI@Z    004bfd10 f i textedit.obj
 0002:00051d80       ?filename@textedit@@QAE?AVQString@@XZ 004bfd80 f i textedit.obj
 0002:00051e10       ?metaObject@textedit@@UBEPAVQMetaObject@@XZ 004bfe10 f i textedit.obj
 0002:00051e60       ?newWindow@vis_ed_mdi@@AAEPAVQWidget@@ABVQString@@00@Z 004bfe60 f   vis_ed_mdi.obj
 0002:00052c10       ?createToolsAndMenus@vis_ed_mdi@@AAEXXZ 004c0c10 f   vis_ed_mdi.obj
 0002:00055790       ?load@vis_ed_mdi@@AAEPAVQWidget@@ABVQString@@@Z 004c3790 f   vis_ed_mdi.obj
 0002:00056820       ?mySetForegroundWindow@vis_ed_mdi@@AAEXPAUHWND__@@@Z 004c4820 f   vis_ed_mdi.obj
 0002:00056990       ?dragEnterEvent@vis_ed_mdi@@EAEXPAVQDragEnterEvent@@@Z 004c4990 f   vis_ed_mdi.obj
 0002:00056a20       ?dropEvent@vis_ed_mdi@@EAEXPAVQDropEvent@@@Z 004c4a20 f   vis_ed_mdi.obj
 0002:00056c00       ??0vis_ed_mdi@@QAE@PAVQApplication@@PAVQWidget@@PBDI@Z 004c4c00 f   vis_ed_mdi.obj
 0002:000577b0       ??1vis_ed_mdi@@UAE@XZ      004c57b0 f   vis_ed_mdi.obj
 0002:00057f70       ?maximised@vis_ed_mdi@@QAE_NXZ 004c5f70 f   vis_ed_mdi.obj
 0002:00057fb0       ?statusBarMessage@vis_ed_mdi@@QAEXABVQString@@@Z 004c5fb0 f   vis_ed_mdi.obj
 0002:00058010       ?toggleIdList@vis_ed_mdi@@QAEXXZ 004c6010 f   vis_ed_mdi.obj
 0002:000580c0       ?singletonMessageReceived@vis_ed_mdi@@QAEXABVQString@@@Z 004c60c0 f   vis_ed_mdi.obj
 0002:000581c0       ?scriptedit@vis_ed_mdi@@IAEXVQString@@0@Z 004c61c0 f   vis_ed_mdi.obj
 0002:00058370       ?fileNew@vis_ed_mdi@@IAEXXZ 004c6370 f   vis_ed_mdi.obj
 0002:000586c0       ?fileOpen@vis_ed_mdi@@IAEXXZ 004c66c0 f   vis_ed_mdi.obj
 0002:00058be0       ?fileReload@vis_ed_mdi@@IAEXXZ 004c6be0 f   vis_ed_mdi.obj
 0002:00058e00       ?fileSave@vis_ed_mdi@@IAEXXZ 004c6e00 f   vis_ed_mdi.obj
 0002:00058eb0       ?fileSaveAs@vis_ed_mdi@@IAEXXZ 004c6eb0 f   vis_ed_mdi.obj
 0002:00058f60       ?fileClose@vis_ed_mdi@@IAEXXZ 004c6f60 f   vis_ed_mdi.obj
 0002:00058fd0       ?windowsMenuAboutToShow@vis_ed_mdi@@IAEXXZ 004c6fd0 f   vis_ed_mdi.obj
 0002:00059650       ?fileMenuAboutToShow@vis_ed_mdi@@IAEXXZ 004c7650 f   vis_ed_mdi.obj
 0002:00059680       ?windowsMenuActivated@vis_ed_mdi@@IAEXH@Z 004c7680 f   vis_ed_mdi.obj
 0002:00059820       ?closeAll@vis_ed_mdi@@IAEXXZ 004c7820 f   vis_ed_mdi.obj
 0002:00059940       ?closeEvent@vis_ed_mdi@@MAEXPAVQCloseEvent@@@Z 004c7940 f   vis_ed_mdi.obj
 0002:00059af0       ?recentFilesAboutToShow@vis_ed_mdi@@IAEXXZ 004c7af0 f   vis_ed_mdi.obj
 0002:00059e20       ?recentyusedactivated@vis_ed_mdi@@IAEXH@Z 004c7e20 f   vis_ed_mdi.obj
 0002:00059ef0       ?about@vis_ed_mdi@@IAEXXZ  004c7ef0 f   vis_ed_mdi.obj
 0002:0005a0b0       ?widgetAdded@vis_ed_mdi@@IAEXABVQString@@0@Z 004c80b0 f   vis_ed_mdi.obj
 0002:0005a100       ?widgetRemoved@vis_ed_mdi@@IAEXABVQString@@@Z 004c8100 f   vis_ed_mdi.obj
 0002:0005a150       ?widgetRenamed@vis_ed_mdi@@IAEXABVQString@@0@Z 004c8150 f   vis_ed_mdi.obj
 0002:0005a1a0       ?windowActivationChange@vis_ed_mdi@@IAEXPAVQWidget@@@Z 004c81a0 f   vis_ed_mdi.obj
 0002:0005a450       ?doLoad@vis_ed_mdi@@IAEXABVQString@@@Z 004c8450 f   vis_ed_mdi.obj
 0002:0005aa60       ?browseGlobalStyle@vis_ed_mdi@@IAEXXZ 004c8a60 f   vis_ed_mdi.obj
 0002:0005c640       ?doHelpSlot@vis_ed_mdi@@IAEXXZ 004ca640 f   vis_ed_mdi.obj
 0002:0005c730       ?doHelp@vis_ed_mdi@@SAXABVQString@@0@Z 004ca730 f   vis_ed_mdi.obj
 0002:0005f780       ??0?$QDict@VQAction@@@@QAE@H_N@Z 004cd780 f i vis_ed_mdi.obj
 0002:0005f800       ??1?$QDict@VQAction@@@@UAE@XZ 004cd800 f i vis_ed_mdi.obj
 0002:0005f8c0       ??A?$QDict@VQAction@@@@QBEPAVQAction@@ABVQString@@@Z 004cd8c0 f i vis_ed_mdi.obj
 0002:0005f927       ??_EQDockWindow@@WCI@AEPAXI@Z 004cd927 f i vis_ed_mdi.obj
 0002:0005f931       ??_EQToolBar@@WCI@AEPAXI@Z 004cd931 f i vis_ed_mdi.obj
 0002:0005f93b       ??_EQWorkspace@@WCI@AEPAXI@Z 004cd93b f i vis_ed_mdi.obj
 0002:0005f945       ??_Evis_ed_mdi@@WCI@AEPAXI@Z 004cd945 f i vis_ed_mdi.obj
 0002:0005f950       ??_G?$QDict@VQAction@@@@UAEPAXI@Z 004cd950 f i vis_ed_mdi.obj
 0002:0005f950       ??_E?$QDict@VQAction@@@@UAEPAXI@Z 004cd950 f i vis_ed_mdi.obj
 0002:0005f9c0       ??_EQDockWindow@@UAEPAXI@Z 004cd9c0 f i vis_ed_mdi.obj
 0002:0005f9c0       ??_GQDockWindow@@UAEPAXI@Z 004cd9c0 f i vis_ed_mdi.obj
 0002:0005fa40       ??_EQToolBar@@UAEPAXI@Z    004cda40 f i vis_ed_mdi.obj
 0002:0005fa40       ??_GQToolBar@@UAEPAXI@Z    004cda40 f i vis_ed_mdi.obj
 0002:0005fac0       ??_GQWorkspace@@UAEPAXI@Z  004cdac0 f i vis_ed_mdi.obj
 0002:0005fac0       ??_EQWorkspace@@UAEPAXI@Z  004cdac0 f i vis_ed_mdi.obj
 0002:0005fb40       ??_Evis_ed_mdi@@UAEPAXI@Z  004cdb40 f i vis_ed_mdi.obj
 0002:0005fb40       ??_Gvis_ed_mdi@@UAEPAXI@Z  004cdb40 f i vis_ed_mdi.obj
 0002:0005fbb0       ?clear@?$QDict@VQAction@@@@UAEXXZ 004cdbb0 f i vis_ed_mdi.obj
 0002:0005fc10       ?count@?$QDict@VQAction@@@@UBEIXZ 004cdc10 f i vis_ed_mdi.obj
 0002:0005fc70       ?deleteItem@?$QDict@VQAction@@@@EAEXPAX@Z 004cdc70 f i vis_ed_mdi.obj
 0002:0005fd30       ?insert@?$QDict@VQAction@@@@QAEXABVQString@@PBVQAction@@@Z 004cdd30 f i vis_ed_mdi.obj
 0002:0005fda0       ?metaObject@vis_ed_mdi@@UBEPAVQMetaObject@@XZ 004cdda0 f i vis_ed_mdi.obj
 0002:0005fdf0       ?widget@dialog@@QAEPAVvis_ed_widget@@XZ 004cddf0 f i vis_ed_mdi.obj
 0002:0005fe30       ??0vis_ed_toolbars@@QAE@PAVvis_ed_widget@@PAVQMainWindow@@@Z 004cde30 f   vis_ed_toolbars.obj
 0002:00060080       ??1vis_ed_toolbars@@UAE@XZ 004ce080 f   vis_ed_toolbars.obj
 0002:00060130       ?show@vis_ed_toolbars@@QAEXXZ 004ce130 f   vis_ed_toolbars.obj
 0002:0006b720       ?hide@vis_ed_toolbars@@QAEXXZ 004d9720 f   vis_ed_toolbars.obj
 0002:0006bc00       ?comboBoxesMessage@vis_ed_toolbars@@QAEXABVQString@@@Z 004d9c00 f   vis_ed_toolbars.obj
 0002:0006c140       ?itemsSelected@vis_ed_toolbars@@QAEXH@Z 004da140 f   vis_ed_toolbars.obj
 0002:0006c930       ?undoAvailable@vis_ed_toolbars@@QAEX_NABVQString@@@Z 004da930 f   vis_ed_toolbars.obj
 0002:0006ca50       ?redoAvailable@vis_ed_toolbars@@QAEX_NABVQString@@@Z 004daa50 f   vis_ed_toolbars.obj
 0002:0006cb70       ?pasteWidgetAvailable@vis_ed_toolbars@@QAEX_N@Z 004dab70 f   vis_ed_toolbars.obj
 0002:0006cbe0       ?pasteSettingsAvailable@vis_ed_toolbars@@QAEX_N@Z 004dabe0 f   vis_ed_toolbars.obj
 0002:0006cc50       ?scriptOpenExplorerAvailable@vis_ed_toolbars@@QAEX_N@Z 004dac50 f   vis_ed_toolbars.obj
 0002:0006ccc0       ?scriptOpenVisEdAvailable@vis_ed_toolbars@@QAEX_N@Z 004dacc0 f   vis_ed_toolbars.obj
 0002:000700f0       ??0?$QMapIterator@VQString@@Vstyleentry@@@@QAE@XZ 004de0f0 f i vis_ed_toolbars.obj
 0002:00070140       ??E?$QMapIterator@VQString@@Vstyleentry@@@@QAEAAV0@XZ 004de140 f i vis_ed_toolbars.obj
 0002:000701a0       ??_Gvis_ed_toolbars@@UAEPAXI@Z 004de1a0 f i vis_ed_toolbars.obj
 0002:000701a0       ??_Evis_ed_toolbars@@UAEPAXI@Z 004de1a0 f i vis_ed_toolbars.obj
 0002:00070210       ?inc@?$QMapIterator@VQString@@Vstyleentry@@@@AAEHXZ 004de210 f i vis_ed_toolbars.obj
 0002:000702d0       ?key@?$QMapIterator@VQString@@Vstyleentry@@@@QBEABVQString@@XZ 004de2d0 f i vis_ed_toolbars.obj
 0002:00070310       ?metaObject@vis_ed_toolbars@@UBEPAVQMetaObject@@XZ 004de310 f i vis_ed_toolbars.obj
 0002:00070360       ?toggleGrid@vis_ed_widget@@QAEXXZ 004de360 f   vis_ed_widget.obj
 0002:00070470       ?rectChanged@vis_ed_widget@@QAEXPAVQWidget@@VQRect@@@Z 004de470 f   vis_ed_widget.obj
 0002:00070690       ?dialogRectChanged@vis_ed_widget@@QAEXPAVQWidget@@VQRect@@@Z 004de690 f   vis_ed_widget.obj
 0002:000708a0       ?fileSave@vis_ed_widget@@QAE_N_N@Z 004de8a0 f   vis_ed_widget.obj
 0002:00071620       ?Selected_Size_H_Smallest@vis_ed_widget@@QAEXXZ 004df620 f   vis_ed_widget.obj
 0002:00071790       ?Selected_Size_V_Smallest@vis_ed_widget@@QAEXXZ 004df790 f   vis_ed_widget.obj
 0002:00071900       ?Selected_Size_H_Largest@vis_ed_widget@@QAEXXZ 004df900 f   vis_ed_widget.obj
 0002:00071a70       ?Selected_Size_V_Largest@vis_ed_widget@@QAEXXZ 004dfa70 f   vis_ed_widget.obj
 0002:00071be0       ?deleteEditHandled@vis_ed_widget@@QAEXXZ 004dfbe0 f   vis_ed_widget.obj
 0002:00072310       ?Align_Left@vis_ed_widget@@QAEXXZ 004e0310 f   vis_ed_widget.obj
 0002:00072360       ?Align_Top@vis_ed_widget@@QAEXXZ 004e0360 f   vis_ed_widget.obj
 0002:000723b0       ?Align_Right@vis_ed_widget@@QAEXXZ 004e03b0 f   vis_ed_widget.obj
 0002:00072400       ?Align_Bottom@vis_ed_widget@@QAEXXZ 004e0400 f   vis_ed_widget.obj
 0002:00072450       ?Align_HMid@vis_ed_widget@@QAEXXZ 004e0450 f   vis_ed_widget.obj
 0002:000724a0       ?Align_VMid@vis_ed_widget@@QAEXXZ 004e04a0 f   vis_ed_widget.obj
 0002:000724f0       ?editHandleSelectAll@vis_ed_widget@@QAEXXZ 004e04f0 f   vis_ed_widget.obj
 0002:00072630       ?copy@vis_ed_widget@@QAEXXZ 004e0630 f   vis_ed_widget.obj
 0002:00072730       ?cut@vis_ed_widget@@QAEXXZ 004e0730 f   vis_ed_widget.obj
 0002:00072780       ?paste@vis_ed_widget@@QAEXXZ 004e0780 f   vis_ed_widget.obj
 0002:00072890       ?moveUp@vis_ed_widget@@QAEXXZ 004e0890 f   vis_ed_widget.obj
 0002:000728f0       ?moveDown@vis_ed_widget@@QAEXXZ 004e08f0 f   vis_ed_widget.obj
 0002:00072950       ?moveLeft@vis_ed_widget@@QAEXXZ 004e0950 f   vis_ed_widget.obj
 0002:000729b0       ?moveRight@vis_ed_widget@@QAEXXZ 004e09b0 f   vis_ed_widget.obj
 0002:00072a10       ?moveUpFast@vis_ed_widget@@QAEXXZ 004e0a10 f   vis_ed_widget.obj
 0002:00072a70       ?moveDownFast@vis_ed_widget@@QAEXXZ 004e0a70 f   vis_ed_widget.obj
 0002:00072ad0       ?moveLeftFast@vis_ed_widget@@QAEXXZ 004e0ad0 f   vis_ed_widget.obj
 0002:00072b30       ?moveRightFast@vis_ed_widget@@QAEXXZ 004e0b30 f   vis_ed_widget.obj
 0002:00072b90       ?undo@vis_ed_widget@@QAEXXZ 004e0b90 f   vis_ed_widget.obj
 0002:00072ea0       ?redo@vis_ed_widget@@QAEXXZ 004e0ea0 f   vis_ed_widget.obj
 0002:000731a0       ?fillStack@vis_ed_widget@@QAEXPAV?$QPtrStack@Vw_undo_event@@@@PAVw_undo_event@@@Z 004e11a0 f   vis_ed_widget.obj
 0002:00074450       ?paintEvent@vis_ed_widget@@UAEXPAVQPaintEvent@@@Z 004e2450 f   vis_ed_widget.obj
 0002:00074630       ?test@vis_ed_widget@@QAEXXZ 004e2630 f   vis_ed_widget.obj
 0002:000758d0       ?widget_count@vis_ed_widget@@QAEXXZ 004e38d0 f   vis_ed_widget.obj
 0002:00075c30       ?doDistribute@vis_ed_widget@@QAEXXZ 004e3c30 f   vis_ed_widget.obj
 0002:00075c60       ?doConnectionsDialog@vis_ed_widget@@QAEXXZ 004e3c60 f   vis_ed_widget.obj
 0002:00075dd0       ?distributeEvenlyHor@vis_ed_widget@@QAEXXZ 004e3dd0 f   vis_ed_widget.obj
 0002:00075e20       ?distributeEvenlyVer@vis_ed_widget@@QAEXXZ 004e3e20 f   vis_ed_widget.obj
 0002:00075e70       ?stackWidgetsLeft@vis_ed_widget@@QAEXXZ 004e3e70 f   vis_ed_widget.obj
 0002:00075ec0       ?stackWidgetsRight@vis_ed_widget@@QAEXXZ 004e3ec0 f   vis_ed_widget.obj
 0002:00075f10       ?stackWidgetsTop@vis_ed_widget@@QAEXXZ 004e3f10 f   vis_ed_widget.obj
 0002:00075f60       ?stackWidgetsBottom@vis_ed_widget@@QAEXXZ 004e3f60 f   vis_ed_widget.obj
 0002:00075fb0       ?centreWidgetsHor@vis_ed_widget@@QAEXXZ 004e3fb0 f   vis_ed_widget.obj
 0002:00076000       ?centreWidgetsVer@vis_ed_widget@@QAEXXZ 004e4000 f   vis_ed_widget.obj
 0002:00076050       ?doDuplicate@vis_ed_widget@@QAEXXZ 004e4050 f   vis_ed_widget.obj
 0002:000761a0       ?highlightItem@vis_ed_widget@@QAEXABVQString@@@Z 004e41a0 f   vis_ed_widget.obj
 0002:000762e0       ?renameItem@vis_ed_widget@@QAEXABVQString@@0@Z 004e42e0 f   vis_ed_widget.obj
 0002:00076440       ?openVisualStudio@vis_ed_widget@@QAEXXZ 004e4440 f   vis_ed_widget.obj
 0002:00077280       ?openInExplorer@vis_ed_widget@@QAEXXZ 004e5280 f   vis_ed_widget.obj
 0002:000774d0       ?openScriptUI@vis_ed_widget@@QAEXXZ 004e54d0 f   vis_ed_widget.obj
 0002:000778d0       ?openScriptVS@vis_ed_widget@@QAEXXZ 004e58d0 f   vis_ed_widget.obj
 0002:00078390       ?wizProcessExited@vis_ed_widget@@QAEXXZ 004e6390 f   vis_ed_widget.obj
 0002:00078830       ?propertiesEdit@vis_ed_widget@@QAEXXZ 004e6830 f   vis_ed_widget.obj
 0002:00078a70       ?contextMenu@vis_ed_widget@@QAEXXZ 004e6a70 f   vis_ed_widget.obj
 0002:00078cb0       ?setStyleSheet@vis_ed_widget@@QAEXABVQString@@@Z 004e6cb0 f   vis_ed_widget.obj
 0002:00078df0       ?setStateSheet@vis_ed_widget@@QAEXABVQString@@@Z 004e6df0 f   vis_ed_widget.obj
 0002:00078ec0       ?browseStyleSheet@vis_ed_widget@@QAEXXZ 004e6ec0 f   vis_ed_widget.obj
 0002:00078f30       ?browseStateSheet@vis_ed_widget@@QAEXXZ 004e6f30 f   vis_ed_widget.obj
 0002:00078fa0       ?doPullForward@vis_ed_widget@@QAEXXZ 004e6fa0 f   vis_ed_widget.obj
 0002:00079100       ?doPushBack@vis_ed_widget@@QAEXXZ 004e7100 f   vis_ed_widget.obj
 0002:00079200       ?doSizePositionManual@vis_ed_widget@@QAEXXZ 004e7200 f   vis_ed_widget.obj
 0002:0007acd0       ?clipboardDataChanged@vis_ed_widget@@QAEXXZ 004e8cd0 f   vis_ed_widget.obj
 0002:0007ad30       ?doManualSettings@vis_ed_widget@@QAEXXZ 004e8d30 f   vis_ed_widget.obj
 0002:0007b240       ?doImportSettings@vis_ed_widget@@QAEXXZ 004e9240 f   vis_ed_widget.obj
 0002:0007ba50       ?doExportSettings@vis_ed_widget@@QAEXXZ 004e9a50 f   vis_ed_widget.obj
 0002:0007bfc0       ??0vis_ed_widget@@QAE@PAVQWidget@@PAVQMainWindow@@PBDI@Z 004e9fc0 f   vis_ed_widget.obj
 0002:0007c4d0       ??1vis_ed_widget@@UAE@XZ   004ea4d0 f   vis_ed_widget.obj
 0002:0007c6d0       ?installMessageTrap@vis_ed_widget@@SAXPAVQWidget@@0@Z 004ea6d0 f   vis_ed_widget.obj
 0002:0007c890       ?load@vis_ed_widget@@QAEXPBD_N@Z 004ea890 f   vis_ed_widget.obj
 0002:0007cea0       ?close@vis_ed_widget@@UAE_N_N@Z 004eaea0 f   vis_ed_widget.obj
 0002:0007d330       ?moveEditHandled@vis_ed_widget@@QAEXVQPoint@@@Z 004eb330 f   vis_ed_widget.obj
 0002:0007d910       ?setDirty@vis_ed_widget@@QAEX_N@Z 004eb910 f   vis_ed_widget.obj
 0002:0007d950       ?saveXML@vis_ed_widget@@QAEHAAVQString@@_N@Z 004eb950 f   vis_ed_widget.obj
 0002:0007eb30       ?eventFilter@vis_ed_widget@@UAE_NPAVQObject@@PAVQEvent@@@Z 004ecb30 f   vis_ed_widget.obj
 0002:0007f6c0       ?mousePressEvent@vis_ed_widget@@UAEXPAVQMouseEvent@@@Z 004ed6c0 f   vis_ed_widget.obj
 0002:0007f8f0       ?mouseReleaseEvent@vis_ed_widget@@UAEXPAVQMouseEvent@@@Z 004ed8f0 f   vis_ed_widget.obj
 0002:0007ff20       ?mouseMoveEvent@vis_ed_widget@@UAEXPAVQMouseEvent@@@Z 004edf20 f   vis_ed_widget.obj
 0002:0007ffc0       ?contextMenuEvent@vis_ed_widget@@UAEXPAVQContextMenuEvent@@@Z 004edfc0 f   vis_ed_widget.obj
 0002:00080060       ?addEditHandles@vis_ed_widget@@QAEXPAVQWidget@@_N1@Z 004ee060 f   vis_ed_widget.obj
 0002:00080270       ?removeEditHandles@vis_ed_widget@@QAEXPAVQWidget@@@Z 004ee270 f   vis_ed_widget.obj
 0002:00080400       ?removeAllEditHandles@vis_ed_widget@@QAEXXZ 004ee400 f   vis_ed_widget.obj
 0002:00080570       ?removeAllEditHandlesExcept@vis_ed_widget@@QAEXPAVQWidget@@@Z 004ee570 f   vis_ed_widget.obj
 0002:000806f0       ?editHandleCount@vis_ed_widget@@QAEHXZ 004ee6f0 f   vis_ed_widget.obj
 0002:00080830       ?setEditHandledSize@vis_ed_widget@@QAEXHH@Z 004ee830 f   vis_ed_widget.obj
 0002:00080c30       ?dragEnterEvent@vis_ed_widget@@UAEXPAVQDragEnterEvent@@@Z 004eec30 f   vis_ed_widget.obj
 0002:00080cc0       ?dropEvent@vis_ed_widget@@UAEXPAVQDropEvent@@@Z 004eecc0 f   vis_ed_widget.obj
 0002:000813f0       ?resizeEvent@vis_ed_widget@@UAEXPAVQResizeEvent@@@Z 004ef3f0 f   vis_ed_widget.obj
 0002:000814b0       ?getSettings@vis_ed_widget@@QAE?AVQStringList@@PAVQWidget@@@Z 004ef4b0 f   vis_ed_widget.obj
 0002:00081640       ?Align@vis_ed_widget@@QAEXH@Z 004ef640 f   vis_ed_widget.obj
 0002:00082310       ?setBackgroundColour@vis_ed_widget@@QAEXAAVQString@@@Z 004f0310 f   vis_ed_widget.obj
 0002:000823f0       ?setBackgroundPixmap@vis_ed_widget@@QAEXAAVQString@@@Z 004f03f0 f   vis_ed_widget.obj
 0002:00082500       ?setScriptfile@vis_ed_widget@@QAEXAAVQString@@@Z 004f0500 f   vis_ed_widget.obj
 0002:00082560       ?setTestInstance@vis_ed_widget@@QAEXABVQString@@@Z 004f0560 f   vis_ed_widget.obj
 0002:000825c0       ?setPanelmanSize@vis_ed_widget@@QAEXABVQString@@@Z 004f05c0 f   vis_ed_widget.obj
 0002:00082620       ?setShowTestDialog@vis_ed_widget@@QAEX_N@Z 004f0620 f   vis_ed_widget.obj
 0002:00082660       ?highestWidget@vis_ed_widget@@QAEPAVQWidget@@PAV2@@Z 004f0660 f   vis_ed_widget.obj
 0002:000827f0       ?setDlgPos@vis_ed_widget@@QAEXHH@Z 004f07f0 f   vis_ed_widget.obj
 0002:00082840       ?setDialogType@vis_ed_widget@@QAEX_N0@Z 004f0840 f   vis_ed_widget.obj
 0002:00082890       ?setShowGrid@vis_ed_widget@@QAEX_N@Z 004f0890 f   vis_ed_widget.obj
 0002:000828f0       ?showGrid@vis_ed_widget@@QAE_NXZ 004f08f0 f   vis_ed_widget.obj
 0002:00082930       ?gridSize@vis_ed_widget@@QAEHXZ 004f0930 f   vis_ed_widget.obj
 0002:00082970       ?setGridSize@vis_ed_widget@@QAEXH@Z 004f0970 f   vis_ed_widget.obj
 0002:000829e0       ?getWidgetList@vis_ed_widget@@QAE?AVQWidgetList@@XZ 004f09e0 f   vis_ed_widget.obj
 0002:00082b90       ?getWidgetListOrdered@vis_ed_widget@@QAE?AVQWidgetList@@XZ 004f0b90 f   vis_ed_widget.obj
 0002:00082e50       ?showEditHandles@vis_ed_widget@@QAEX_N@Z 004f0e50 f   vis_ed_widget.obj
 0002:00083020       ?hasEditHandles@vis_ed_widget@@QAE_NPAVQWidget@@@Z 004f1020 f   vis_ed_widget.obj
 0002:00083170       ?isPasteWidgetAvailable@vis_ed_widget@@QAE_NXZ 004f1170 f   vis_ed_widget.obj
 0002:00083330       ?isPasteSettingsAvailable@vis_ed_widget@@QAE_NXZ 004f1330 f   vis_ed_widget.obj
 0002:00083710       ?flagUndoRedoAvailable@vis_ed_widget@@QAEXXZ 004f1710 f   vis_ed_widget.obj
 0002:00083890       ?dblClickTimer_timeout@vis_ed_widget@@AAEXXZ 004f1890 f   vis_ed_widget.obj
 0002:000839c0       ?dialogInvokeEdit@vis_ed_widget@@AAEXXZ 004f19c0 f   vis_ed_widget.obj
 0002:00084470       ?invokeEdit@vis_ed_widget@@AAEXPAVQWidget@@@Z 004f2470 f   vis_ed_widget.obj
 0002:000848c0       ?getEditHandled@vis_ed_widget@@AAE?AVQWidgetList@@XZ 004f28c0 f   vis_ed_widget.obj
 0002:00084a80       ?getEditHandledOrdered@vis_ed_widget@@AAE?AVQWidgetList@@XZ 004f2a80 f   vis_ed_widget.obj
 0002:00084d50       ?setEditHandled@vis_ed_widget@@AAEXAAVQWidgetList@@@Z 004f2d50 f   vis_ed_widget.obj
 0002:00084de0       ?gridCorrect@vis_ed_widget@@AAEXVQWidgetList@@@Z 004f2de0 f   vis_ed_widget.obj
 0002:000850b0       ?centreWidgets@vis_ed_widget@@AAEXH@Z 004f30b0 f   vis_ed_widget.obj
 0002:000853e0       ?getWidgetsExtent@vis_ed_widget@@AAE_NVQWidgetList@@AAH111@Z 004f33e0 f   vis_ed_widget.obj
 0002:00085620       ?duplicateWidget@vis_ed_widget@@AAEXHHH_N@Z 004f3620 f   vis_ed_widget.obj
 0002:00085ac0       ?distributeEvenly@vis_ed_widget@@AAEXW4distribute@1@@Z 004f3ac0 f   vis_ed_widget.obj
 0002:00086340       ?stackWidgets@vis_ed_widget@@AAEXW4align@1@H@Z 004f4340 f   vis_ed_widget.obj
 0002:00086d90       ?paste@vis_ed_widget@@AAE?AVQWidgetList@@ABVQString@@VQPoint@@@Z 004f4d90 f   vis_ed_widget.obj
 0002:00087230       ?doWidgetRename@vis_ed_widget@@AAEXPAVQWidget@@ABVQString@@1@Z 004f5230 f   vis_ed_widget.obj
 0002:00087740       ?openShell@vis_ed_widget@@AAEHABVQString@@@Z 004f5740 f   vis_ed_widget.obj
 0002:00087ad0       ?contextMenu@vis_ed_widget@@AAEXPAVQWidget@@@Z 004f5ad0 f   vis_ed_widget.obj
 0002:00089260       ?dialogContextMenu@vis_ed_widget@@AAEXXZ 004f7260 f   vis_ed_widget.obj
 0002:00089750       ?setSheet@vis_ed_widget@@AAEXVQString@@0@Z 004f7750 f   vis_ed_widget.obj
 0002:0008a180       ?stylesheetBrowser@vis_ed_widget@@AAEXVQString@@@Z 004f8180 f   vis_ed_widget.obj
 0002:0008abb0       ?doConnectionsDialog@vis_ed_widget@@AAEXABVQString@@000@Z 004f8bb0 f   vis_ed_widget.obj
 0002:0008afc0       ?addWidget@vis_ed_widget@@AAEXPAVQWidget@@@Z 004f8fc0 f   vis_ed_widget.obj
 0002:0008b130       ?removeWidget@vis_ed_widget@@AAEXPAVQWidget@@@Z 004f9130 f   vis_ed_widget.obj
 0002:0008b2e0       ?showWidgetStatsOnStatusBar@vis_ed_widget@@AAEXPAVQWidget@@@Z 004f92e0 f   vis_ed_widget.obj
 0002:0008b660       ?countSelectedItems@vis_ed_widget@@AAEHXZ 004f9660 f   vis_ed_widget.obj
 0002:0008b7e0       ?evaluateCanOpenScript@vis_ed_widget@@AAEXPAVQWidget@@@Z 004f97e0 f   vis_ed_widget.obj
 0002:0008ba90       ?EventTypeStr@@YA?AVQString@@W4Type@QEvent@@@Z 004f9a90 f   vis_ed_widget.obj
 0002:00093560       ??$?0AAPAVQWidget@@PAV0@X@?$pair@PAVQWidget@@PAV1@@std@@QAE@AAPAVQWidget@@$$QAPAV2@@Z 00501560 f i vis_ed_widget.obj
 0002:000935e0       ??$?0AAV?$_Tree_iterator@V?$_Tree_val@U?$_Tree_simple_types@U?$pair@QAVQWidget@@PAV1@@std@@@std@@@std@@@std@@_NX@?$pair@V?$_Tree_iterator@V?$_Tree_val@U?$_Tree_simple_types@U?$pair@QAVQWidget@@PAV1@@std@@@std@@@std@@@std@@_N@std@@QAE@AAV?$_Tree_iterator@V?$_Tree_val@U?$_Tree_simple_types@U?$pair@QAVQWidget@@PAV1@@std@@@std@@@std@@@1@$$QA_N@Z 005015e0 f i vis_ed_widget.obj
 0002:000936b0       ??$?0PAVQWidget@@PAV0@X@?$pair@QAVQWidget@@PAV1@@std@@QAE@$$QAU?$pair@PAVQWidget@@PAV1@@1@@Z 005016b0 f i vis_ed_widget.obj
 0002:00093730       ??$?0U?$_Tree_node@U?$pair@QAVQWidget@@PAV1@@std@@PAX@std@@@?$allocator@U_Container_proxy@std@@@std@@QAE@ABV?$allocator@U?$_Tree_node@U?$pair@QAVQWidget@@PAV1@@std@@PAX@std@@@1@@Z 00501730 f i vis_ed_widget.obj
 0002:00093770       ??$?0U?$_Wrap_alloc@V?$allocator@U?$_Tree_node@U?$pair@QAVQWidget@@PAV1@@std@@PAX@std@@@std@@@std@@@?$_Wrap_alloc@V?$allocator@U_Container_proxy@std@@@std@@@std@@QAE@ABU?$_Wrap_alloc@V?$allocator@U?$_Tree_node@U?$pair@QAVQWidget@@PAV1@@std@@PAX@std@@@std@@@1@@Z 00501770 f i vis_ed_widget.obj
 0002:000937d0       ??$?0V?$_Tree_iterator@V?$_Tree_val@U?$_Tree_simple_types@U?$pair@QAVQWidget@@PAV1@@std@@@std@@@std@@@std@@_NX@?$pair@V?$_Tree_iterator@V?$_Tree_val@U?$_Tree_simple_types@U?$pair@QAVQWidget@@PAV1@@std@@@std@@@std@@@std@@_N@std@@QAE@$$QAV?$_Tree_iterator@V?$_Tree_val@U?$_Tree_simple_types@U?$pair@QAVQWidget@@PAV1@@std@@@std@@@std@@@1@$$QA_N@Z 005017d0 f i vis_ed_widget.obj
 0002:000938a0       ??$_Allocate@U?$_Tree_node@U?$pair@QAVQWidget@@PAV1@@std@@PAX@std@@@std@@YAPAU?$_Tree_node@U?$pair@QAVQWidget@@PAV1@@std@@PAX@0@IPAU10@@Z 005018a0 f i vis_ed_widget.obj
 0002:00093930       ??$_Buynode@U?$pair@PAVQWidget@@PAV1@@std@@@?$_Tree_buy@U?$pair@QAVQWidget@@PAV1@@std@@V?$allocator@U?$pair@QAVQWidget@@PAV1@@std@@@2@@std@@QAEPAU?$_Tree_node@U?$pair@QAVQWidget@@PAV1@@std@@PAX@1@$$QAU?$pair@PAVQWidget@@PAV1@@1@@Z 00501930 f i vis_ed_widget.obj
 0002:00093aa0       ??$_Buynode@VQString@@@?$_Tree_buy@VQString@@V?$allocator@VQString@@@std@@@std@@QAEPAU?$_Tree_node@VQString@@PAX@1@$$QAVQString@@@Z 00501aa0 f i vis_ed_widget.obj
 0002:00093c10       ??$_Buynode_if_nil@AAU?$pair@QAVQWidget@@PAV1@@std@@@?$_Tree@V?$_Tmap_traits@PAVQWidget@@PAV1@U?$less@PAVQWidget@@@std@@V?$allocator@U?$pair@QAVQWidget@@PAV1@@std@@@3@$0A@@std@@@std@@IAEPAU?$_Tree_node@U?$pair@QAVQWidget@@PAV1@@std@@PAX@1@PAU21@AAU?$pair@QAVQWidget@@PAV1@@1@@Z 00501c10 f i vis_ed_widget.obj
 0002:00093c50       ??$_Buynode_if_nil@VQString@@@?$_Tree@V?$_Tset_traits@VQString@@U?$less@VQString@@@std@@V?$allocator@VQString@@@3@$0A@@std@@@std@@IAEPAU?$_Tree_node@VQString@@PAX@1@U_Nil@1@$$QAVQString@@@Z 00501c50 f i vis_ed_widget.obj
 0002:00093cc0       ??$_Debug_lt_pred@U?$less@PAVQWidget@@@std@@ABQAVQWidget@@ABQAV3@@std@@YA_NU?$less@PAVQWidget@@@0@ABQAVQWidget@@1PB_WI@Z 00501cc0 f i vis_ed_widget.obj
 0002:00093da0       ??$_Insert_at@AAU?$pair@QAVQWidget@@PAV1@@std@@PAU?$_Tree_node@U?$pair@QAVQWidget@@PAV1@@std@@PAX@2@@?$_Tree@V?$_Tmap_traits@PAVQWidget@@PAV1@U?$less@PAVQWidget@@@std@@V?$allocator@U?$pair@QAVQWidget@@PAV1@@std@@@3@$0A@@std@@@std@@IAE?AV?$_Tree_iterator@V?$_Tree_val@U?$_Tree_simple_types@U?$pair@QAVQWidget@@PAV1@@std@@@std@@@std@@@1@_NPAU?$_Tree_node@U?$pair@QAVQWidget@@PAV1@@std@@PAX@1@AAU?$pair@QAVQWidget@@PAV1@@1@1@Z 00501da0 f i vis_ed_widget.obj
 0002:00094330       ??$_Insert_at@VQString@@U_Nil@std@@@?$_Tree@V?$_Tset_traits@VQString@@U?$less@VQString@@@std@@V?$allocator@VQString@@@3@$0A@@std@@@std@@IAE?AV?$_Tree_const_iterator@V?$_Tree_val@U?$_Tree_simple_types@VQString@@@std@@@std@@@1@_NPAU?$_Tree_node@VQString@@PAX@1@$$QAVQString@@U_Nil@1@@Z 00502330 f i vis_ed_widget.obj
 0002:000948c0       ??$_Insert_nohint@AAU?$pair@QAVQWidget@@PAV1@@std@@PAU?$_Tree_node@U?$pair@QAVQWidget@@PAV1@@std@@PAX@2@@?$_Tree@V?$_Tmap_traits@PAVQWidget@@PAV1@U?$less@PAVQWidget@@@std@@V?$allocator@U?$pair@QAVQWidget@@PAV1@@std@@@3@$0A@@std@@@std@@IAE?AU?$pair@V?$_Tree_iterator@V?$_Tree_val@U?$_Tree_simple_types@U?$pair@QAVQWidget@@PAV1@@std@@@std@@@std@@@std@@_N@1@_NAAU?$pair@QAVQWidget@@PAV1@@1@PAU?$_Tree_node@U?$pair@QAVQWidget@@PAV1@@std@@PAX@1@@Z 005028c0 f i vis_ed_widget.obj
 0002:00095000       ??$_Insert_nohint@VQString@@U_Nil@std@@@?$_Tree@V?$_Tset_traits@VQString@@U?$less@VQString@@@std@@V?$allocator@VQString@@@3@$0A@@std@@@std@@IAE?AU?$pair@V?$_Tree_const_iterator@V?$_Tree_val@U?$_Tree_simple_types@VQString@@@std@@@std@@@std@@_N@1@_N$$QAVQString@@U_Nil@1@@Z 00503000 f i vis_ed_widget.obj
 0002:00095750       ??$_Kfn@QAVQWidget@@PAV1@@?$_Tmap_traits@PAVQWidget@@PAV1@U?$less@PAVQWidget@@@std@@V?$allocator@U?$pair@QAVQWidget@@PAV1@@std@@@3@$0A@@std@@SAABQAVQWidget@@ABU?$pair@QAVQWidget@@PAV1@@1@@Z 00503750 f i vis_ed_widget.obj
 0002:00095790       ??$addressof@PAU?$_Tree_node@U?$pair@QAVQWidget@@PAV1@@std@@PAX@std@@@std@@YAPAPAU?$_Tree_node@U?$pair@QAVQWidget@@PAV1@@std@@PAX@0@AAPAU10@@Z 00503790 f i vis_ed_widget.obj
 0002:000957d0       ??$addressof@U?$pair@QAVQWidget@@PAV1@@std@@@std@@YAPAU?$pair@QAVQWidget@@PAV1@@0@AAU10@@Z 005037d0 f i vis_ed_widget.obj
 0002:00095810       ??$construct@PAU?$_Tree_node@U?$pair@QAVQWidget@@PAV1@@std@@PAX@std@@AAPAU12@@?$_Wrap_alloc@V?$allocator@U?$_Tree_node@U?$pair@QAVQWidget@@PAV1@@std@@PAX@std@@@std@@@std@@QAEXPAPAU?$_Tree_node@U?$pair@QAVQWidget@@PAV1@@std@@PAX@1@AAPAU21@@Z 00503810 f i vis_ed_widget.obj
 0002:00095880       ??$construct@PAU?$_Tree_node@U?$pair@QAVQWidget@@PAV1@@std@@PAX@std@@AAPAU12@@?$allocator@U?$_Tree_node@U?$pair@QAVQWidget@@PAV1@@std@@PAX@std@@@std@@QAEXPAPAU?$_Tree_node@U?$pair@QAVQWidget@@PAV1@@std@@PAX@1@AAPAU21@@Z 00503880 f i vis_ed_widget.obj
 0002:00095980       ??$construct@PAU?$_Tree_node@U?$pair@QAVQWidget@@PAV1@@std@@PAX@std@@AAPAU12@@?$allocator_traits@V?$allocator@U?$_Tree_node@U?$pair@QAVQWidget@@PAV1@@std@@PAX@std@@@std@@@std@@SAXAAV?$allocator@U?$_Tree_node@U?$pair@QAVQWidget@@PAV1@@std@@PAX@std@@@1@PAPAU?$_Tree_node@U?$pair@QAVQWidget@@PAV1@@std@@PAX@1@AAPAU31@@Z 00503980 f i vis_ed_widget.obj
 0002:000959e0       ??$construct@U?$pair@QAVQWidget@@PAV1@@std@@U?$pair@PAVQWidget@@PAV1@@2@@?$_Wrap_alloc@V?$allocator@U?$_Tree_node@U?$pair@QAVQWidget@@PAV1@@std@@PAX@std@@@std@@@std@@QAEXPAU?$pair@QAVQWidget@@PAV1@@1@$$QAU?$pair@PAVQWidget@@PAV1@@1@@Z 005039e0 f i vis_ed_widget.obj
 0002:00095a50       ??$construct@U?$pair@QAVQWidget@@PAV1@@std@@U?$pair@PAVQWidget@@PAV1@@2@@?$allocator@U?$_Tree_node@U?$pair@QAVQWidget@@PAV1@@std@@PAX@std@@@std@@QAEXPAU?$pair@QAVQWidget@@PAV1@@1@$$QAU?$pair@PAVQWidget@@PAV1@@1@@Z 00503a50 f i vis_ed_widget.obj
 0002:00095b50       ??$construct@U?$pair@QAVQWidget@@PAV1@@std@@U?$pair@PAVQWidget@@PAV1@@2@@?$allocator_traits@V?$allocator@U?$_Tree_node@U?$pair@QAVQWidget@@PAV1@@std@@PAX@std@@@std@@@std@@SAXAAV?$allocator@U?$_Tree_node@U?$pair@QAVQWidget@@PAV1@@std@@PAX@std@@@1@PAU?$pair@QAVQWidget@@PAV1@@1@$$QAU?$pair@PAVQWidget@@PAV1@@1@@Z 00503b50 f i vis_ed_widget.obj
 0002:00095bb0       ??$construct@VQString@@V1@@?$_Wrap_alloc@V?$allocator@U?$_Tree_node@VQString@@PAX@std@@@std@@@std@@QAEXPAVQString@@$$QAV2@@Z 00503bb0 f i vis_ed_widget.obj
 0002:00095c20       ??$construct@VQString@@V1@@?$allocator@U?$_Tree_node@VQString@@PAX@std@@@std@@QAEXPAVQString@@$$QAV2@@Z 00503c20 f i vis_ed_widget.obj
 0002:00095d30       ??$construct@VQString@@V1@@?$allocator_traits@V?$allocator@U?$_Tree_node@VQString@@PAX@std@@@std@@@std@@SAXAAV?$allocator@U?$_Tree_node@VQString@@PAX@std@@@1@PAVQString@@$$QAV3@@Z 00503d30 f i vis_ed_widget.obj
 0002:00095d90       ??$destroy@PAU?$_Tree_node@U?$pair@QAVQWidget@@PAV1@@std@@PAX@std@@@?$_Wrap_alloc@V?$allocator@U?$_Tree_node@U?$pair@QAVQWidget@@PAV1@@std@@PAX@std@@@std@@@std@@QAEXPAPAU?$_Tree_node@U?$pair@QAVQWidget@@PAV1@@std@@PAX@1@@Z 00503d90 f i vis_ed_widget.obj
 0002:00095df0       ??$destroy@PAU?$_Tree_node@U?$pair@QAVQWidget@@PAV1@@std@@PAX@std@@@?$allocator@U?$_Tree_node@U?$pair@QAVQWidget@@PAV1@@std@@PAX@std@@@std@@QAEXPAPAU?$_Tree_node@U?$pair@QAVQWidget@@PAV1@@std@@PAX@1@@Z 00503df0 f i vis_ed_widget.obj
 0002:00095e30       ??$destroy@PAU?$_Tree_node@U?$pair@QAVQWidget@@PAV1@@std@@PAX@std@@@?$allocator_traits@V?$allocator@U?$_Tree_node@U?$pair@QAVQWidget@@PAV1@@std@@PAX@std@@@std@@@std@@SAXAAV?$allocator@U?$_Tree_node@U?$pair@QAVQWidget@@PAV1@@std@@PAX@std@@@1@PAPAU?$_Tree_node@U?$pair@QAVQWidget@@PAV1@@std@@PAX@1@@Z 00503e30 f i vis_ed_widget.obj
 0002:00095e80       ??$destroy@U?$pair@QAVQWidget@@PAV1@@std@@@?$_Wrap_alloc@V?$allocator@U?$_Tree_node@U?$pair@QAVQWidget@@PAV1@@std@@PAX@std@@@std@@@std@@QAEXPAU?$pair@QAVQWidget@@PAV1@@1@@Z 00503e80 f i vis_ed_widget.obj
 0002:00095ee0       ??$destroy@U?$pair@QAVQWidget@@PAV1@@std@@@?$allocator@U?$_Tree_node@U?$pair@QAVQWidget@@PAV1@@std@@PAX@std@@@std@@QAEXPAU?$pair@QAVQWidget@@PAV1@@1@@Z 00503ee0 f i vis_ed_widget.obj
 0002:00095f20       ??$destroy@U?$pair@QAVQWidget@@PAV1@@std@@@?$allocator_traits@V?$allocator@U?$_Tree_node@U?$pair@QAVQWidget@@PAV1@@std@@PAX@std@@@std@@@std@@SAXAAV?$allocator@U?$_Tree_node@U?$pair@QAVQWidget@@PAV1@@std@@PAX@std@@@1@PAU?$pair@QAVQWidget@@PAV1@@1@@Z 00503f20 f i vis_ed_widget.obj
 0002:00095f70       ??$forward@AAPAU?$_Tree_node@U?$pair@QAVQWidget@@PAV1@@std@@PAX@std@@@std@@YAAAPAU?$_Tree_node@U?$pair@QAVQWidget@@PAV1@@std@@PAX@0@AAPAU10@@Z 00503f70 f i vis_ed_widget.obj
 0002:00095fb0       ??$forward@AAPAVQWidget@@@std@@YAAAPAVQWidget@@AAPAV1@@Z 00503fb0 f i vis_ed_widget.obj
 0002:00095ff0       ??$forward@AAU?$pair@QAVQWidget@@PAV1@@std@@@std@@YAAAU?$pair@QAVQWidget@@PAV1@@0@AAU10@@Z 00503ff0 f i vis_ed_widget.obj
 0002:00096030       ??$forward@AAV?$_Tree_iterator@V?$_Tree_val@U?$_Tree_simple_types@U?$pair@QAVQWidget@@PAV1@@std@@@std@@@std@@@std@@@std@@YAAAV?$_Tree_iterator@V?$_Tree_val@U?$_Tree_simple_types@U?$pair@QAVQWidget@@PAV1@@std@@@std@@@std@@@0@AAV10@@Z 00504030 f i vis_ed_widget.obj
 0002:00096070       ??$forward@ABQAVQWidget@@@std@@YAABQAVQWidget@@ABQAV1@@Z 00504070 f i vis_ed_widget.obj
 0002:000960b0       ??$forward@PAVQWidget@@@std@@YA$$QAPAVQWidget@@AAPAV1@@Z 005040b0 f i vis_ed_widget.obj
 0002:000960f0       ??$forward@U?$pair@PAVQWidget@@PAV1@@std@@@std@@YA$$QAU?$pair@PAVQWidget@@PAV1@@0@AAU10@@Z 005040f0 f i vis_ed_widget.obj
 0002:00096130       ??$forward@V?$_Tree_iterator@V?$_Tree_val@U?$_Tree_simple_types@U?$pair@QAVQWidget@@PAV1@@std@@@std@@@std@@@std@@@std@@YA$$QAV?$_Tree_iterator@V?$_Tree_val@U?$_Tree_simple_types@U?$pair@QAVQWidget@@PAV1@@std@@@std@@@std@@@0@AAV10@@Z 00504130 f i vis_ed_widget.obj
 0002:00096170       ??$insert@U?$pair@PAVQWidget@@PAV1@@std@@@?$_Tree@V?$_Tmap_traits@PAVQWidget@@PAV1@U?$less@PAVQWidget@@@std@@V?$allocator@U?$pair@QAVQWidget@@PAV1@@std@@@3@$0A@@std@@@std@@QAE?AU?$pair@V?$_Tree_iterator@V?$_Tree_val@U?$_Tree_simple_types@U?$pair@QAVQWidget@@PAV1@@std@@@std@@@std@@@std@@_N@1@$$QAU?$pair@PAVQWidget@@PAV1@@1@@Z 00504170 f i vis_ed_widget.obj
 0002:00096220       ??$make_pair@AAPAVQWidget@@PAV1@@std@@YA?AU?$pair@PAVQWidget@@PAV1@@0@AAPAVQWidget@@$$QAPAV2@@Z 00504220 f i vis_ed_widget.obj
 0002:00096290       ??0?$QPtrListStdIterator@VQWidget@@@@QAE@PAVQLNode@@@Z 00504290 f i vis_ed_widget.obj
 0002:00096300       ??0?$QPtrStack@Vw_undo_event@@@@QAE@XZ 00504300 f i vis_ed_widget.obj
 0002:00096370       ??0?$_Iterator012@Ubidirectional_iterator_tag@std@@U?$pair@QAVQWidget@@PAV1@@2@HPBU32@ABU32@U_Iterator_base12@2@@std@@QAE@ABU01@@Z 00504370 f i vis_ed_widget.obj
 0002:000963d0       ??0?$_Iterator012@Ubidirectional_iterator_tag@std@@U?$pair@QAVQWidget@@PAV1@@2@HPBU32@ABU32@U_Iterator_base12@2@@std@@QAE@XZ 005043d0 f i vis_ed_widget.obj
 0002:00096430       ??0?$_Tree@V?$_Tmap_traits@PAVQWidget@@PAV1@U?$less@PAVQWidget@@@std@@V?$allocator@U?$pair@QAVQWidget@@PAV1@@std@@@3@$0A@@std@@@std@@QAE@ABU?$less@PAVQWidget@@@1@ABV?$allocator@U?$pair@QAVQWidget@@PAV1@@std@@@1@@Z 00504430 f i vis_ed_widget.obj
 0002:00096490       ??0?$_Tree_alloc@$0A@U?$_Tree_base_types@U?$pair@QAVQWidget@@PAV1@@std@@V?$allocator@U?$pair@QAVQWidget@@PAV1@@std@@@2@@std@@@std@@QAE@ABV?$allocator@U?$pair@QAVQWidget@@PAV1@@std@@@1@@Z 00504490 f i vis_ed_widget.obj
 0002:00096590       ??0?$_Tree_buy@U?$pair@QAVQWidget@@PAV1@@std@@V?$allocator@U?$pair@QAVQWidget@@PAV1@@std@@@2@@std@@QAE@ABV?$allocator@U?$pair@QAVQWidget@@PAV1@@std@@@1@@Z 00504590 f i vis_ed_widget.obj
 0002:000965f0       ??0?$_Tree_comp@$0A@V?$_Tmap_traits@PAVQWidget@@PAV1@U?$less@PAVQWidget@@@std@@V?$allocator@U?$pair@QAVQWidget@@PAV1@@std@@@3@$0A@@std@@@std@@QAE@ABU?$less@PAVQWidget@@@1@ABV?$allocator@U?$pair@QAVQWidget@@PAV1@@std@@@1@@Z 005045f0 f i vis_ed_widget.obj
 0002:00096650       ??0?$_Tree_const_iterator@V?$_Tree_val@U?$_Tree_simple_types@U?$pair@QAVQWidget@@PAV1@@std@@@std@@@std@@@std@@QAE@ABV01@@Z 00504650 f i vis_ed_widget.obj
 0002:000966b0       ??0?$_Tree_const_iterator@V?$_Tree_val@U?$_Tree_simple_types@U?$pair@QAVQWidget@@PAV1@@std@@@std@@@std@@@std@@QAE@PAU?$_Tree_node@U?$pair@QAVQWidget@@PAV1@@std@@PAX@1@PBV?$_Tree_val@U?$_Tree_simple_types@U?$pair@QAVQWidget@@PAV1@@std@@@std@@@1@@Z 005046b0 f i vis_ed_widget.obj
 0002:00096710       ??0?$_Tree_const_iterator@V?$_Tree_val@U?$_Tree_simple_types@U?$pair@QAVQWidget@@PAV1@@std@@@std@@@std@@@std@@QAE@XZ 00504710 f i vis_ed_widget.obj
 0002:00096770       ??0?$_Tree_iterator@V?$_Tree_val@U?$_Tree_simple_types@U?$pair@QAVQWidget@@PAV1@@std@@@std@@@std@@@std@@QAE@ABV01@@Z 00504770 f i vis_ed_widget.obj
 0002:000967d0       ??0?$_Tree_iterator@V?$_Tree_val@U?$_Tree_simple_types@U?$pair@QAVQWidget@@PAV1@@std@@@std@@@std@@@std@@QAE@PAU?$_Tree_node@U?$pair@QAVQWidget@@PAV1@@std@@PAX@1@PBV?$_Tree_val@U?$_Tree_simple_types@U?$pair@QAVQWidget@@PAV1@@std@@@std@@@1@@Z 005047d0 f i vis_ed_widget.obj
 0002:00096830       ??0?$_Tree_iterator@V?$_Tree_val@U?$_Tree_simple_types@U?$pair@QAVQWidget@@PAV1@@std@@@std@@@std@@@std@@QAE@XZ 00504830 f i vis_ed_widget.obj
 0002:00096890       ??0?$_Tree_unchecked_const_iterator@V?$_Tree_val@U?$_Tree_simple_types@U?$pair@QAVQWidget@@PAV1@@std@@@std@@@std@@U_Iterator_base12@2@@std@@QAE@ABV01@@Z 00504890 f i vis_ed_widget.obj
 0002:00096900       ??0?$_Tree_unchecked_const_iterator@V?$_Tree_val@U?$_Tree_simple_types@U?$pair@QAVQWidget@@PAV1@@std@@@std@@@std@@U_Iterator_base12@2@@std@@QAE@PAU?$_Tree_node@U?$pair@QAVQWidget@@PAV1@@std@@PAX@1@PBV?$_Tree_val@U?$_Tree_simple_types@U?$pair@QAVQWidget@@PAV1@@std@@@std@@@1@@Z 00504900 f i vis_ed_widget.obj
 0002:000969c0       ??0?$_Tree_unchecked_const_iterator@V?$_Tree_val@U?$_Tree_simple_types@U?$pair@QAVQWidget@@PAV1@@std@@@std@@@std@@U_Iterator_base12@2@@std@@QAE@XZ 005049c0 f i vis_ed_widget.obj
 0002:00096a20       ??0?$_Tree_val@U?$_Tree_simple_types@U?$pair@QAVQWidget@@PAV1@@std@@@std@@@std@@QAE@XZ 00504a20 f i vis_ed_widget.obj
 0002:00096aa0       ??0?$_Wrap_alloc@V?$allocator@U?$_Tree_node@U?$pair@QAVQWidget@@PAV1@@std@@PAX@std@@@std@@@std@@QAE@XZ 00504aa0 f i vis_ed_widget.obj
 0002:00096b00       ??0?$allocator@U?$_Tree_node@U?$pair@QAVQWidget@@PAV1@@std@@PAX@std@@@std@@QAE@XZ 00504b00 f i vis_ed_widget.obj
 0002:00096b40       ??0?$allocator@U?$pair@QAVQWidget@@PAV1@@std@@@std@@QAE@XZ 00504b40 f i vis_ed_widget.obj
 0002:00096b80       ??0?$map@PAVQWidget@@PAV1@U?$less@PAVQWidget@@@std@@V?$allocator@U?$pair@QAVQWidget@@PAV1@@std@@@3@@std@@QAE@XZ 00504b80 f i vis_ed_widget.obj
 0002:00096bf0       ??0hPosSortedWidgetList@@QAE@AAVQWidgetList@@@Z 00504bf0 f i vis_ed_widget.obj
 0002:00096c70       ??0vPosSortedWidgetList@@QAE@AAVQWidgetList@@@Z 00504c70 f i vis_ed_widget.obj
 0002:00096cf0       ??0w_connection_undo@@QAE@HABVQString@@PAVvis_ed_widget@@VsignalConnectionRefList@@@Z 00504cf0 f i vis_ed_widget.obj
 0002:00096f50       ??0w_delete_undo@@QAE@HAAVQString@@PAVvis_ed_widget@@V1@2VQRect@@VQStringList@@2@Z 00504f50 f i vis_ed_widget.obj
 0002:000971b0       ??0w_dialog_settings_undo@@QAE@HABVQString@@PAVvis_ed_widget@@000HHHH_N2H002@Z 005051b0 f i vis_ed_widget.obj
 0002:00097400       ??0w_move_undo@@QAE@HABVQString@@PAVvis_ed_widget@@0VQRect@@@Z 00505400 f i vis_ed_widget.obj
 0002:00097540       ??0w_new_undo@@QAE@HABVQString@@PAVvis_ed_widget@@0@Z 00505540 f i vis_ed_widget.obj
 0002:00097650       ??0w_rename_undo@@QAE@HABVQString@@PAVvis_ed_widget@@00@Z 00505650 f i vis_ed_widget.obj
 0002:00097790       ??0w_settings_undo@@QAE@HABVQString@@PAVvis_ed_widget@@0ABVQStringList@@@Z 00505790 f i vis_ed_widget.obj
 0002:000978e0       ??0w_undo_event@@QAE@HABVQString@@PAVvis_ed_widget@@@Z 005058e0 f i vis_ed_widget.obj
 0002:000979d0       ??1?$QPtrStack@Vw_undo_event@@@@UAE@XZ 005059d0 f i vis_ed_widget.obj
 0002:00097a90       ??1?$_Iterator012@Ubidirectional_iterator_tag@std@@U?$pair@QAVQWidget@@PAV1@@2@HPBU32@ABU32@U_Iterator_base12@2@@std@@QAE@XZ 00505a90 f i vis_ed_widget.obj
 0002:00097ae0       ??1?$_Tree@V?$_Tmap_traits@PAVQWidget@@PAV1@U?$less@PAVQWidget@@@std@@V?$allocator@U?$pair@QAVQWidget@@PAV1@@std@@@3@$0A@@std@@@std@@QAE@XZ 00505ae0 f i vis_ed_widget.obj
 0002:00097b40       ??1?$_Tree_alloc@$0A@U?$_Tree_base_types@U?$pair@QAVQWidget@@PAV1@@std@@V?$allocator@U?$pair@QAVQWidget@@PAV1@@std@@@2@@std@@@std@@QAE@XZ 00505b40 f i vis_ed_widget.obj
 0002:00097bb0       ??1?$_Tree_buy@U?$pair@QAVQWidget@@PAV1@@std@@V?$allocator@U?$pair@QAVQWidget@@PAV1@@std@@@2@@std@@QAE@XZ 00505bb0 f i vis_ed_widget.obj
 0002:00097c00       ??1?$_Tree_comp@$0A@V?$_Tmap_traits@PAVQWidget@@PAV1@U?$less@PAVQWidget@@@std@@V?$allocator@U?$pair@QAVQWidget@@PAV1@@std@@@3@$0A@@std@@@std@@QAE@XZ 00505c00 f i vis_ed_widget.obj
 0002:00097c50       ??1?$_Tree_const_iterator@V?$_Tree_val@U?$_Tree_simple_types@U?$pair@QAVQWidget@@PAV1@@std@@@std@@@std@@@std@@QAE@XZ 00505c50 f i vis_ed_widget.obj
 0002:00097ca0       ??1?$_Tree_iterator@V?$_Tree_val@U?$_Tree_simple_types@U?$pair@QAVQWidget@@PAV1@@std@@@std@@@std@@@std@@QAE@XZ 00505ca0 f i vis_ed_widget.obj
 0002:00097cf0       ??1?$_Tree_unchecked_const_iterator@V?$_Tree_val@U?$_Tree_simple_types@U?$pair@QAVQWidget@@PAV1@@std@@@std@@@std@@U_Iterator_base12@2@@std@@QAE@XZ 00505cf0 f i vis_ed_widget.obj
 0002:00097d40       ??1?$_Tree_val@U?$_Tree_simple_types@U?$pair@QAVQWidget@@PAV1@@std@@@std@@@std@@QAE@XZ 00505d40 f i vis_ed_widget.obj
 0002:00097da0       ??1?$map@PAVQWidget@@PAV1@U?$less@PAVQWidget@@@std@@V?$allocator@U?$pair@QAVQWidget@@PAV1@@std@@@3@@std@@QAE@XZ 00505da0 f i vis_ed_widget.obj
 0002:00097df0       ??1?$pair@V?$_Tree_iterator@V?$_Tree_val@U?$_Tree_simple_types@U?$pair@QAVQWidget@@PAV1@@std@@@std@@@std@@@std@@_N@std@@QAE@XZ 00505df0 f i vis_ed_widget.obj
 0002:00097e40       ??1hPosSortedWidgetList@@UAE@XZ 00505e40 f i vis_ed_widget.obj
 0002:00097eb0       ??1vPosSortedWidgetList@@UAE@XZ 00505eb0 f i vis_ed_widget.obj
 0002:00097f20       ??1w_undo_event@@QAE@XZ    00505f20 f i vis_ed_widget.obj
 0002:00097f80       ??4?$_Iterator012@Ubidirectional_iterator_tag@std@@U?$pair@QAVQWidget@@PAV1@@2@HPBU32@ABU32@U_Iterator_base12@2@@std@@QAEAAU01@ABU01@@Z 00505f80 f i vis_ed_widget.obj
 0002:00097fe0       ??4?$_Tree_const_iterator@V?$_Tree_val@U?$_Tree_simple_types@U?$pair@QAVQWidget@@PAV1@@std@@@std@@@std@@@std@@QAEAAV01@ABV01@@Z 00505fe0 f i vis_ed_widget.obj
 0002:00098040       ??4?$_Tree_iterator@V?$_Tree_val@U?$_Tree_simple_types@U?$pair@QAVQWidget@@PAV1@@std@@@std@@@std@@@std@@QAEAAV01@ABV01@@Z 00506040 f i vis_ed_widget.obj
 0002:000980a0       ??4?$_Tree_unchecked_const_iterator@V?$_Tree_val@U?$_Tree_simple_types@U?$pair@QAVQWidget@@PAV1@@std@@@std@@@std@@U_Iterator_base12@2@@std@@QAEAAV01@ABV01@@Z 005060a0 f i vis_ed_widget.obj
 0002:00098110       ??8?$_Tree_const_iterator@V?$_Tree_val@U?$_Tree_simple_types@U?$pair@QAVQWidget@@PAV1@@std@@@std@@@std@@@std@@QBE_NABV01@@Z 00506110 f i vis_ed_widget.obj
 0002:00098270       ??9?$QPtrListStdIterator@VQWidget@@@@QBE_NABV0@@Z 00506270 f i vis_ed_widget.obj
 0002:000982e0       ??9?$_Tree_const_iterator@V?$_Tree_val@U?$_Tree_simple_types@U?$pair@QAVQWidget@@PAV1@@std@@@std@@@std@@@std@@QBE_NABV01@@Z 005062e0 f i vis_ed_widget.obj
 0002:00098370       ??9@YA_NABVQPoint@@0@Z     00506370 f i vis_ed_widget.obj
 0002:000983f0       ??C?$_Tree_iterator@V?$_Tree_val@U?$_Tree_simple_types@U?$pair@$$CBVQString@@VQStringList@@@std@@@std@@@std@@@std@@QBEPAU?$pair@$$CBVQString@@VQStringList@@@1@XZ 005063f0 f i vis_ed_widget.obj
 0002:00098450       ??C?$_Tree_iterator@V?$_Tree_val@U?$_Tree_simple_types@U?$pair@QAVQWidget@@PAV1@@std@@@std@@@std@@@std@@QBEPAU?$pair@QAVQWidget@@PAV1@@1@XZ 00506450 f i vis_ed_widget.obj
 0002:000984b0       ??D?$QPtrListStdIterator@VQWidget@@@@QAEPAVQWidget@@XZ 005064b0 f i vis_ed_widget.obj
 0002:00098540       ??D?$_Tree_const_iterator@V?$_Tree_val@U?$_Tree_simple_types@U?$pair@$$CBVQString@@VQStringList@@@std@@@std@@@std@@@std@@QBEABU?$pair@$$CBVQString@@VQStringList@@@1@XZ 00506540 f i vis_ed_widget.obj
 0002:00098680       ??D?$_Tree_const_iterator@V?$_Tree_val@U?$_Tree_simple_types@U?$pair@QAVQWidget@@PAV1@@std@@@std@@@std@@@std@@QBEABU?$pair@QAVQWidget@@PAV1@@1@XZ 00506680 f i vis_ed_widget.obj
 0002:000987c0       ??D?$_Tree_iterator@V?$_Tree_val@U?$_Tree_simple_types@U?$pair@$$CBVQString@@VQStringList@@@std@@@std@@@std@@@std@@QBEAAU?$pair@$$CBVQString@@VQStringList@@@1@XZ 005067c0 f i vis_ed_widget.obj
 0002:00098810       ??D?$_Tree_iterator@V?$_Tree_val@U?$_Tree_simple_types@U?$pair@QAVQWidget@@PAV1@@std@@@std@@@std@@@std@@QBEAAU?$pair@QAVQWidget@@PAV1@@1@XZ 00506810 f i vis_ed_widget.obj
 0002:00098860       ??E?$QPtrListStdIterator@VQWidget@@@@QAE?AV0@XZ 00506860 f i vis_ed_widget.obj
 0002:000988f0       ??E?$_Tree_const_iterator@V?$_Tree_val@U?$_Tree_simple_types@U?$pair@QAVQWidget@@PAV1@@std@@@std@@@std@@@std@@QAE?AV01@H@Z 005068f0 f i vis_ed_widget.obj
 0002:00098a10       ??E?$_Tree_const_iterator@V?$_Tree_val@U?$_Tree_simple_types@U?$pair@QAVQWidget@@PAV1@@std@@@std@@@std@@@std@@QAEAAV01@XZ 00506a10 f i vis_ed_widget.obj
 0002:00098b50       ??E?$_Tree_iterator@V?$_Tree_val@U?$_Tree_simple_types@U?$pair@$$CBVQString@@VQStringList@@@std@@@std@@@std@@@std@@QAE?AV01@H@Z 00506b50 f i vis_ed_widget.obj
 0002:00098c70       ??E?$_Tree_iterator@V?$_Tree_val@U?$_Tree_simple_types@U?$pair@$$CBVQString@@VQStringList@@@std@@@std@@@std@@@std@@QAEAAV01@XZ 00506c70 f i vis_ed_widget.obj
 0002:00098cd0       ??E?$_Tree_iterator@V?$_Tree_val@U?$_Tree_simple_types@U?$pair@QAVQWidget@@PAV1@@std@@@std@@@std@@@std@@QAEAAV01@XZ 00506cd0 f i vis_ed_widget.obj
 0002:00098d30       ??E?$_Tree_unchecked_const_iterator@V?$_Tree_val@U?$_Tree_simple_types@U?$pair@QAVQWidget@@PAV1@@std@@@std@@@std@@U_Iterator_base12@2@@std@@QAEAAV01@XZ 00506d30 f i vis_ed_widget.obj
 0002:00098e60       ??F?$_Tree_const_iterator@V?$_Tree_val@U?$_Tree_simple_types@U?$pair@QAVQWidget@@PAV1@@std@@@std@@@std@@@std@@QAEAAV01@XZ 00506e60 f i vis_ed_widget.obj
 0002:00099040       ??F?$_Tree_iterator@V?$_Tree_val@U?$_Tree_simple_types@U?$pair@QAVQWidget@@PAV1@@std@@@std@@@std@@@std@@QAEAAV01@XZ 00507040 f i vis_ed_widget.obj
 0002:000990a0       ??F?$_Tree_unchecked_const_iterator@V?$_Tree_val@U?$_Tree_simple_types@U?$pair@QAVQWidget@@PAV1@@std@@@std@@@std@@U_Iterator_base12@2@@std@@QAEAAV01@XZ 005070a0 f i vis_ed_widget.obj
 0002:00099200       ??H@YA?BVQPoint@@ABV0@0@Z  00507200 f i vis_ed_widget.obj
 0002:00099280       ??R?$less@PAVQWidget@@@std@@QBE_NABQAVQWidget@@0@Z 00507280 f i vis_ed_widget.obj
 0002:000992e9       ??_Evis_ed_widget@@WCI@AEPAXI@Z 005072e9 f i vis_ed_widget.obj
 0002:00099300       ??_E?$QPtrStack@Vw_undo_event@@@@UAEPAXI@Z 00507300 f i vis_ed_widget.obj
 0002:00099300       ??_G?$QPtrStack@Vw_undo_event@@@@UAEPAXI@Z 00507300 f i vis_ed_widget.obj
 0002:00099370       ??_EQProcess@@UAEPAXI@Z    00507370 f i vis_ed_widget.obj
 0002:00099370       ??_GQProcess@@UAEPAXI@Z    00507370 f i vis_ed_widget.obj
 0002:000993f0       ??_GhPosSortedWidgetList@@UAEPAXI@Z 005073f0 f i vis_ed_widget.obj
 0002:000993f0       ??_EhPosSortedWidgetList@@UAEPAXI@Z 005073f0 f i vis_ed_widget.obj
 0002:00099460       ??_GvPosSortedWidgetList@@UAEPAXI@Z 00507460 f i vis_ed_widget.obj
 0002:00099460       ??_EvPosSortedWidgetList@@UAEPAXI@Z 00507460 f i vis_ed_widget.obj
 0002:000994d0       ??_Evis_ed_widget@@UAEPAXI@Z 005074d0 f i vis_ed_widget.obj
 0002:000994d0       ??_Gvis_ed_widget@@UAEPAXI@Z 005074d0 f i vis_ed_widget.obj
 0002:00099540       ??_Gw_undo_event@@QAEPAXI@Z 00507540 f i vis_ed_widget.obj
 0002:000995b0       ?_Alloc_proxy@?$_Tree_alloc@$0A@U?$_Tree_base_types@U?$pair@QAVQWidget@@PAV1@@std@@V?$allocator@U?$pair@QAVQWidget@@PAV1@@std@@@2@@std@@@std@@QAEXXZ 005075b0 f i vis_ed_widget.obj
 0002:00099690       ?_Buyheadnode@?$_Tree_alloc@$0A@U?$_Tree_base_types@U?$pair@QAVQWidget@@PAV1@@std@@V?$allocator@U?$pair@QAVQWidget@@PAV1@@std@@@2@@std@@@std@@QAEPAU?$_Tree_node@U?$pair@QAVQWidget@@PAV1@@std@@PAX@2@XZ 00507690 f i vis_ed_widget.obj
 0002:000998f0       ?_Buynode0@?$_Tree_buy@U?$pair@QAVQWidget@@PAV1@@std@@V?$allocator@U?$pair@QAVQWidget@@PAV1@@std@@@2@@std@@QAEPAU?$_Tree_node@U?$pair@QAVQWidget@@PAV1@@std@@PAX@2@XZ 005078f0 f i vis_ed_widget.obj
 0002:00099b00       ?_Color@?$_Tree_val@U?$_Tree_simple_types@U?$pair@QAVQWidget@@PAV1@@std@@@std@@@std@@SAAADPAU?$_Tree_node@U?$pair@QAVQWidget@@PAV1@@std@@PAX@2@@Z 00507b00 f i vis_ed_widget.obj
 0002:00099b40       ?_Destroy_if_not_nil@?$_Tree@V?$_Tmap_traits@PAVQWidget@@PAV1@U?$less@PAVQWidget@@@std@@V?$allocator@U?$pair@QAVQWidget@@PAV1@@std@@@3@$0A@@std@@@std@@IAEXPAU?$_Tree_node@U?$pair@QAVQWidget@@PAV1@@std@@PAX@2@@Z 00507b40 f i vis_ed_widget.obj
 0002:00099bf0       ?_Erase@?$_Tree@V?$_Tmap_traits@PAVQWidget@@PAV1@U?$less@PAVQWidget@@@std@@V?$allocator@U?$pair@QAVQWidget@@PAV1@@std@@@3@$0A@@std@@@std@@IAEXPAU?$_Tree_node@U?$pair@QAVQWidget@@PAV1@@std@@PAX@2@@Z 00507bf0 f i vis_ed_widget.obj
 0002:00099d00       ?_Free_proxy@?$_Tree_alloc@$0A@U?$_Tree_base_types@U?$pair@QAVQWidget@@PAV1@@std@@V?$allocator@U?$pair@QAVQWidget@@PAV1@@std@@@2@@std@@@std@@QAEXXZ 00507d00 f i vis_ed_widget.obj
 0002:00099df0       ?_Freeheadnode@?$_Tree_alloc@$0A@U?$_Tree_base_types@U?$pair@QAVQWidget@@PAV1@@std@@V?$allocator@U?$pair@QAVQWidget@@PAV1@@std@@@2@@std@@@std@@QAEXPAU?$_Tree_node@U?$pair@QAVQWidget@@PAV1@@std@@PAX@2@@Z 00507df0 f i vis_ed_widget.obj
 0002:00099f00       ?_Freenode0@?$_Tree_buy@U?$pair@QAVQWidget@@PAV1@@std@@V?$allocator@U?$pair@QAVQWidget@@PAV1@@std@@@2@@std@@QAEXPAU?$_Tree_node@U?$pair@QAVQWidget@@PAV1@@std@@PAX@2@@Z 00507f00 f i vis_ed_widget.obj
 0002:0009a010       ?_Getal@?$_Tree_alloc@$0A@U?$_Tree_base_types@U?$pair@QAVQWidget@@PAV1@@std@@V?$allocator@U?$pair@QAVQWidget@@PAV1@@std@@@2@@std@@@std@@QBE?AU?$_Wrap_alloc@V?$allocator@U?$_Tree_node@U?$pair@QAVQWidget@@PAV1@@std@@PAX@std@@@std@@@2@XZ 00508010 f i vis_ed_widget.obj
 0002:0009a070       ?_Getcomp@?$_Tree_comp@$0A@V?$_Tmap_traits@PAVQWidget@@PAV1@U?$less@PAVQWidget@@@std@@V?$allocator@U?$pair@QAVQWidget@@PAV1@@std@@@3@$0A@@std@@@std@@QBE?AU?$less@PAVQWidget@@@2@XZ 00508070 f i vis_ed_widget.obj
 0002:0009a0b0       ?_Isnil@?$_Tree_val@U?$_Tree_simple_types@U?$pair@QAVQWidget@@PAV1@@std@@@std@@@std@@SAAADPAU?$_Tree_node@U?$pair@QAVQWidget@@PAV1@@std@@PAX@2@@Z 005080b0 f i vis_ed_widget.obj
 0002:0009a0f0       ?_Key@?$_Tree@V?$_Tmap_traits@PAVQWidget@@PAV1@U?$less@PAVQWidget@@@std@@V?$allocator@U?$pair@QAVQWidget@@PAV1@@std@@@3@$0A@@std@@@std@@IBEABQAVQWidget@@PAU?$_Tree_node@U?$pair@QAVQWidget@@PAV1@@std@@PAX@2@@Z 005080f0 f i vis_ed_widget.obj
 0002:0009a160       ?_Kfn@?$_Tree@V?$_Tmap_traits@PAVQWidget@@PAV1@U?$less@PAVQWidget@@@std@@V?$allocator@U?$pair@QAVQWidget@@PAV1@@std@@@3@$0A@@std@@@std@@IBEABQAVQWidget@@ABU?$pair@QAVQWidget@@PAV1@@2@@Z 00508160 f i vis_ed_widget.obj
 0002:0009a1c0       ?_Lbound@?$_Tree@V?$_Tmap_traits@PAVQWidget@@PAV1@U?$less@PAVQWidget@@@std@@V?$allocator@U?$pair@QAVQWidget@@PAV1@@std@@@3@$0A@@std@@@std@@IAEPAU?$_Tree_node@U?$pair@QAVQWidget@@PAV1@@std@@PAX@2@ABQAVQWidget@@@Z 005081c0 f i vis_ed_widget.obj
 0002:0009a2d0       ?_Left@?$_Tree_val@U?$_Tree_simple_types@U?$pair@QAVQWidget@@PAV1@@std@@@std@@@std@@SAAAPAU?$_Tree_node@U?$pair@QAVQWidget@@PAV1@@std@@PAX@2@PAU32@@Z 005082d0 f i vis_ed_widget.obj
 0002:0009a310       ?_Lmost@?$_Tree@V?$_Tmap_traits@PAVQWidget@@PAV1@U?$less@PAVQWidget@@@std@@V?$allocator@U?$pair@QAVQWidget@@PAV1@@std@@@3@$0A@@std@@@std@@IBEAAPAU?$_Tree_node@U?$pair@QAVQWidget@@PAV1@@std@@PAX@2@XZ 00508310 f i vis_ed_widget.obj
 0002:0009a370       ?_Lrotate@?$_Tree@V?$_Tmap_traits@PAVQWidget@@PAV1@U?$less@PAVQWidget@@@std@@V?$allocator@U?$pair@QAVQWidget@@PAV1@@std@@@3@$0A@@std@@@std@@IAEXPAU?$_Tree_node@U?$pair@QAVQWidget@@PAV1@@std@@PAX@2@@Z 00508370 f i vis_ed_widget.obj
 0002:0009a520       ?_Max@?$_Tree_val@U?$_Tree_simple_types@U?$pair@QAVQWidget@@PAV1@@std@@@std@@@std@@SAPAU?$_Tree_node@U?$pair@QAVQWidget@@PAV1@@std@@PAX@2@PAU32@@Z 00508520 f i vis_ed_widget.obj
 0002:0009a5a0       ?_Min@?$_Tree_val@U?$_Tree_simple_types@U?$pair@QAVQWidget@@PAV1@@std@@@std@@@std@@SAPAU?$_Tree_node@U?$pair@QAVQWidget@@PAV1@@std@@PAX@2@PAU32@@Z 005085a0 f i vis_ed_widget.obj
 0002:0009a620       ?_Mynode@?$_Tree_unchecked_const_iterator@V?$_Tree_val@U?$_Tree_simple_types@U?$pair@QAVQWidget@@PAV1@@std@@@std@@@std@@U_Iterator_base12@2@@std@@QBEPAU?$_Tree_node@U?$pair@QAVQWidget@@PAV1@@std@@PAX@2@XZ 00508620 f i vis_ed_widget.obj
 0002:0009a660       ?_Myval@?$_Tree_val@U?$_Tree_simple_types@U?$pair@QAVQWidget@@PAV1@@std@@@std@@@std@@SAAAU?$pair@QAVQWidget@@PAV1@@2@PAU?$_Tree_node@U?$pair@QAVQWidget@@PAV1@@std@@PAX@2@@Z 00508660 f i vis_ed_widget.obj
 0002:0009a6a0       ?_Orphan_ptr@?$_Tree@V?$_Tmap_traits@PAVQWidget@@PAV1@U?$less@PAVQWidget@@@std@@V?$allocator@U?$pair@QAVQWidget@@PAV1@@std@@@3@$0A@@std@@@std@@IBEXAAV12@PAU?$_Tree_node@U?$pair@QAVQWidget@@PAV1@@std@@PAX@2@@Z 005086a0 f i vis_ed_widget.obj
 0002:0009a830       ?_Parent@?$_Tree_val@U?$_Tree_simple_types@U?$pair@QAVQWidget@@PAV1@@std@@@std@@@std@@SAAAPAU?$_Tree_node@U?$pair@QAVQWidget@@PAV1@@std@@PAX@2@PAU32@@Z 00508830 f i vis_ed_widget.obj
 0002:0009a870       ?_Right@?$_Tree_val@U?$_Tree_simple_types@U?$pair@QAVQWidget@@PAV1@@std@@@std@@@std@@SAAAPAU?$_Tree_node@U?$pair@QAVQWidget@@PAV1@@std@@PAX@2@PAU32@@Z 00508870 f i vis_ed_widget.obj
 0002:0009a8b0       ?_Rmost@?$_Tree@V?$_Tmap_traits@PAVQWidget@@PAV1@U?$less@PAVQWidget@@@std@@V?$allocator@U?$pair@QAVQWidget@@PAV1@@std@@@3@$0A@@std@@@std@@IBEAAPAU?$_Tree_node@U?$pair@QAVQWidget@@PAV1@@std@@PAX@2@XZ 005088b0 f i vis_ed_widget.obj
 0002:0009a910       ?_Root@?$_Tree@V?$_Tmap_traits@PAVQWidget@@PAV1@U?$less@PAVQWidget@@@std@@V?$allocator@U?$pair@QAVQWidget@@PAV1@@std@@@3@$0A@@std@@@std@@IBEAAPAU?$_Tree_node@U?$pair@QAVQWidget@@PAV1@@std@@PAX@2@XZ 00508910 f i vis_ed_widget.obj
 0002:0009a970       ?_Rrotate@?$_Tree@V?$_Tmap_traits@PAVQWidget@@PAV1@U?$less@PAVQWidget@@@std@@V?$allocator@U?$pair@QAVQWidget@@PAV1@@std@@@3@$0A@@std@@@std@@IAEXPAU?$_Tree_node@U?$pair@QAVQWidget@@PAV1@@std@@PAX@2@@Z 00508970 f i vis_ed_widget.obj
 0002:0009ab20       ?_Tidy@?$_Tree@V?$_Tmap_traits@PAVQWidget@@PAV1@U?$less@PAVQWidget@@@std@@V?$allocator@U?$pair@QAVQWidget@@PAV1@@std@@@3@$0A@@std@@@std@@IAEXXZ 00508b20 f i vis_ed_widget.obj
 0002:0009acb0       ?allocate@?$_Wrap_alloc@V?$allocator@U?$_Tree_node@U?$pair@QAVQWidget@@PAV1@@std@@PAX@std@@@std@@@std@@QAEPAU?$_Tree_node@U?$pair@QAVQWidget@@PAV1@@std@@PAX@2@I@Z 00508cb0 f i vis_ed_widget.obj
 0002:0009ad10       ?allocate@?$allocator@U?$_Tree_node@U?$pair@QAVQWidget@@PAV1@@std@@PAX@std@@@std@@QAEPAU?$_Tree_node@U?$pair@QAVQWidget@@PAV1@@std@@PAX@2@I@Z 00508d10 f i vis_ed_widget.obj
 0002:0009ad70       ?bcolour@dCW@@QAE?AVQString@@XZ 00508d70 f i vis_ed_widget.obj
 0002:0009ae00       ?begin@?$_Tree@V?$_Tmap_traits@PAVQWidget@@PAV1@U?$less@PAVQWidget@@@std@@V?$allocator@U?$pair@QAVQWidget@@PAV1@@std@@@3@$0A@@std@@@std@@QAE?AV?$_Tree_iterator@V?$_Tree_val@U?$_Tree_simple_types@U?$pair@QAVQWidget@@PAV1@@std@@@std@@@std@@@2@XZ 00508e00 f i vis_ed_widget.obj
 0002:0009ae70       ?bpixmap@dCW@@QAE?AVQString@@XZ 00508e70 f i vis_ed_widget.obj
 0002:0009af00       ?clear@?$QPtrStack@Vw_undo_event@@@@UAEXXZ 00508f00 f i vis_ed_widget.obj
 0002:0009af60       ?clear@?$_Tree@V?$_Tmap_traits@PAVQWidget@@PAV1@U?$less@PAVQWidget@@@std@@V?$allocator@U?$pair@QAVQWidget@@PAV1@@std@@@3@$0A@@std@@@std@@QAEXXZ 00508f60 f i vis_ed_widget.obj
 0002:0009b020       ?compareItems@hPosSortedWidgetList@@UAEHPAX0@Z 00509020 f i vis_ed_widget.obj
 0002:0009b150       ?compareItems@vPosSortedWidgetList@@UAEHPAX0@Z 00509150 f i vis_ed_widget.obj
 0002:0009b280       ?count@?$QPtrStack@Vw_undo_event@@@@UBEIXZ 00509280 f i vis_ed_widget.obj
 0002:0009b2e0       ?current@?$QPtrStack@Vw_undo_event@@@@QBEPAVw_undo_event@@XZ 005092e0 f i vis_ed_widget.obj
 0002:0009b340       ?deallocate@?$_Wrap_alloc@V?$allocator@U?$_Tree_node@U?$pair@QAVQWidget@@PAV1@@std@@PAX@std@@@std@@@std@@QAEXPAU?$_Tree_node@U?$pair@QAVQWidget@@PAV1@@std@@PAX@2@I@Z 00509340 f i vis_ed_widget.obj
 0002:0009b3a0       ?deallocate@?$allocator@U?$_Tree_node@U?$pair@QAVQWidget@@PAV1@@std@@PAX@std@@@std@@QAEXPAU?$_Tree_node@U?$pair@QAVQWidget@@PAV1@@std@@PAX@2@I@Z 005093a0 f i vis_ed_widget.obj
 0002:0009b400       ?deleteItem@?$QPtrStack@Vw_undo_event@@@@EAEXPAX@Z 00509400 f i vis_ed_widget.obj
 0002:0009b4b0       ?end@?$_Tree@V?$_Tmap_traits@PAVQWidget@@PAV1@U?$less@PAVQWidget@@@std@@V?$allocator@U?$pair@QAVQWidget@@PAV1@@std@@@3@$0A@@std@@@std@@QAE?AV?$_Tree_iterator@V?$_Tree_val@U?$_Tree_simple_types@U?$pair@QAVQWidget@@PAV1@@std@@@std@@@std@@@2@XZ 005094b0 f i vis_ed_widget.obj
 0002:0009b520       ?erase@?$_Tree@V?$_Tmap_traits@PAVQWidget@@PAV1@U?$less@PAVQWidget@@@std@@V?$allocator@U?$pair@QAVQWidget@@PAV1@@std@@@3@$0A@@std@@@std@@QAE?AV?$_Tree_iterator@V?$_Tree_val@U?$_Tree_simple_types@U?$pair@QAVQWidget@@PAV1@@std@@@std@@@std@@@2@V?$_Tree_const_iterator@V?$_Tree_val@U?$_Tree_simple_types@U?$pair@QAVQWidget@@PAV1@@std@@@std@@@std@@@2@0@Z 00509520 f i vis_ed_widget.obj
 0002:0009b840       ?erase@?$_Tree@V?$_Tmap_traits@PAVQWidget@@PAV1@U?$less@PAVQWidget@@@std@@V?$allocator@U?$pair@QAVQWidget@@PAV1@@std@@@3@$0A@@std@@@std@@QAE?AV?$_Tree_iterator@V?$_Tree_val@U?$_Tree_simple_types@U?$pair@QAVQWidget@@PAV1@@std@@@std@@@std@@@2@V?$_Tree_const_iterator@V?$_Tree_val@U?$_Tree_simple_types@U?$pair@QAVQWidget@@PAV1@@std@@@std@@@std@@@2@@Z 00509840 f i vis_ed_widget.obj
 0002:0009c2c0       ?filename@vis_ed_widget@@QAE?AVQString@@XZ 0050a2c0 f i vis_ed_widget.obj
 0002:0009c350       ?find@?$_Tree@V?$_Tmap_traits@PAVQWidget@@PAV1@U?$less@PAVQWidget@@@std@@V?$allocator@U?$pair@QAVQWidget@@PAV1@@std@@@3@$0A@@std@@@std@@QAE?AV?$_Tree_iterator@V?$_Tree_val@U?$_Tree_simple_types@U?$pair@QAVQWidget@@PAV1@@std@@@std@@@std@@@2@ABQAVQWidget@@@Z 0050a350 f i vis_ed_widget.obj
 0002:0009c660       ?getName@w_delete_undo@@QAE?AVQString@@XZ 0050a660 f i vis_ed_widget.obj
 0002:0009c6f0       ?getName@w_move_undo@@QAE?AVQString@@XZ 0050a6f0 f i vis_ed_widget.obj
 0002:0009c780       ?getName@w_new_undo@@QAE?AVQString@@XZ 0050a780 f i vis_ed_widget.obj
 0002:0009c810       ?getName@w_settings_undo@@QAE?AVQString@@XZ 0050a810 f i vis_ed_widget.obj
 0002:0009c8a0       ?getNewName@w_rename_undo@@QAE?AVQString@@XZ 0050a8a0 f i vis_ed_widget.obj
 0002:0009c930       ?getOldName@w_rename_undo@@QAE?AVQString@@XZ 0050a930 f i vis_ed_widget.obj
 0002:0009c9c0       ?insert@?$_Tree@V?$_Tset_traits@VQString@@U?$less@VQString@@@std@@V?$allocator@VQString@@@3@$0A@@std@@@std@@QAE?AU?$pair@V?$_Tree_const_iterator@V?$_Tree_val@U?$_Tree_simple_types@VQString@@@std@@@std@@@std@@_N@2@$$QAVQString@@@Z 0050a9c0 f i vis_ed_widget.obj
 0002:0009ca60       ?insert@?$set@VQString@@U?$less@VQString@@@std@@V?$allocator@VQString@@@3@@std@@QAE?AU?$pair@V?$_Tree_const_iterator@V?$_Tree_val@U?$_Tree_simple_types@VQString@@@std@@@std@@@std@@_N@2@$$QAVQString@@@Z 0050aa60 f i vis_ed_widget.obj
 0002:0009caf0       ?isEmpty@?$QPtrStack@Vw_undo_event@@@@QBE_NXZ 0050aaf0 f i vis_ed_widget.obj
 0002:0009cb80       ?isdirty@vis_ed_widget@@QBE_NXZ 0050ab80 f i vis_ed_widget.obj
 0002:0009cbc0       ?lower_bound@?$_Tree@V?$_Tmap_traits@PAVQWidget@@PAV1@U?$less@PAVQWidget@@@std@@V?$allocator@U?$pair@QAVQWidget@@PAV1@@std@@@3@$0A@@std@@@std@@QAE?AV?$_Tree_iterator@V?$_Tree_val@U?$_Tree_simple_types@U?$pair@QAVQWidget@@PAV1@@std@@@std@@@std@@@2@ABQAVQWidget@@@Z 0050abc0 f i vis_ed_widget.obj
 0002:0009cc50       ?max_size@?$_Tree@V?$_Tmap_traits@PAVQWidget@@PAV1@U?$less@PAVQWidget@@@std@@V?$allocator@U?$pair@QAVQWidget@@PAV1@@std@@@3@$0A@@std@@@std@@QBEIXZ 0050ac50 f i vis_ed_widget.obj
 0002:0009ccb0       ?max_size@?$_Wrap_alloc@V?$allocator@U?$_Tree_node@U?$pair@QAVQWidget@@PAV1@@std@@PAX@std@@@std@@@std@@QBEIXZ 0050acb0 f i vis_ed_widget.obj
 0002:0009cd10       ?max_size@?$allocator@U?$_Tree_node@U?$pair@QAVQWidget@@PAV1@@std@@PAX@std@@@std@@QBEIXZ 0050ad10 f i vis_ed_widget.obj
 0002:0009cd50       ?max_size@?$allocator_traits@V?$allocator@U?$_Tree_node@U?$pair@QAVQWidget@@PAV1@@std@@PAX@std@@@std@@@std@@SAIABV?$allocator@U?$_Tree_node@U?$pair@QAVQWidget@@PAV1@@std@@PAX@std@@@2@@Z 0050ad50 f i vis_ed_widget.obj
 0002:0009cda0       ?metaObject@vis_ed_widget@@UBEPAVQMetaObject@@XZ 0050ada0 f i vis_ed_widget.obj
 0002:0009cdf0       ?nextserial@w_undo_event@@SAHXZ 0050adf0 f i vis_ed_widget.obj
 0002:0009ce40       ?pointer_to@?$pointer_traits@PAU?$pair@$$CBVQString@@VQStringList@@@std@@@std@@SAPAU?$pair@$$CBVQString@@VQStringList@@@2@AAU32@@Z 0050ae40 f i vis_ed_widget.obj
 0002:0009ce90       ?pointer_to@?$pointer_traits@PAU?$pair@QAVQWidget@@PAV1@@std@@@std@@SAPAU?$pair@QAVQWidget@@PAV1@@2@AAU32@@Z 0050ae90 f i vis_ed_widget.obj
 0002:0009cee0       ?pop@?$QPtrStack@Vw_undo_event@@@@QAEPAVw_undo_event@@XZ 0050aee0 f i vis_ed_widget.obj
 0002:0009cf40       ?push@?$QPtrStack@Vw_undo_event@@@@QAEXPBVw_undo_event@@@Z 0050af40 f i vis_ed_widget.obj
 0002:0009cfb0       ?reverseSortDirection@hPosSortedWidgetList@@QAEXXZ 0050afb0 f i vis_ed_widget.obj
 0002:0009d000       ?reverseSortDirection@vPosSortedWidgetList@@QAEXXZ 0050b000 f i vis_ed_widget.obj
 0002:0009d050       ?rollbackserial@w_undo_event@@SAHXZ 0050b050 f i vis_ed_widget.obj
 0002:0009d0a0       ?scriptfile@dCW@@QAE?AVQString@@XZ 0050b0a0 f i vis_ed_widget.obj
 0002:0009d130       ?serial@w_undo_event@@QAEHXZ 0050b130 f i vis_ed_widget.obj
 0002:0009d170       ?setAutoDelete@?$QPtrStack@Vw_undo_event@@@@QAEX_N@Z 0050b170 f i vis_ed_widget.obj
 0002:0009d1e0       ?size@?$_Tree@V?$_Tmap_traits@PAVQWidget@@PAV1@U?$less@PAVQWidget@@@std@@V?$allocator@U?$pair@QAVQWidget@@PAV1@@std@@@3@$0A@@std@@@std@@QBEIXZ 0050b1e0 f i vis_ed_widget.obj
 0002:0009d220       ?top@?$QPtrStack@Vw_undo_event@@@@QBEPAVw_undo_event@@XZ 0050b220 f i vis_ed_widget.obj
 0002:0009d280       ?undo@w_connection_undo@@UAEXXZ 0050b280 f i vis_ed_widget.obj
 0002:0009d490       ?undo@w_delete_undo@@UAEXXZ 0050b490 f i vis_ed_widget.obj
 0002:0009ddb0       ?undo@w_dialog_settings_undo@@UAEXXZ 0050bdb0 f i vis_ed_widget.obj
 0002:0009df00       ?undo@w_move_undo@@UAEXXZ  0050bf00 f i vis_ed_widget.obj
 0002:0009e300       ?undo@w_new_undo@@UAEXXZ   0050c300 f i vis_ed_widget.obj
 0002:0009e420       ?undo@w_rename_undo@@UAEXXZ 0050c420 f i vis_ed_widget.obj
 0002:0009e510       ?undo@w_settings_undo@@UAEXXZ 0050c510 f i vis_ed_widget.obj
 0002:0009e820       ?widgetList@dCW@@QAE?AVQWidgetList@@XZ 0050c820 f i vis_ed_widget.obj
 0002:0009e8b0       ??0xml_listview@@QAE@PAVQWidget@@PBDI@Z 0050c8b0 f   xml_listview.obj
 0002:0009e9a0       ??1xml_listview@@UAE@XZ    0050c9a0 f   xml_listview.obj
 0002:0009ea50       ?addColumns@xml_listview@@QAEXAAVQStringList@@0@Z 0050ca50 f   xml_listview.obj
 0002:0009ec70       ?setRoot@xml_listview@@QAEX_N@Z 0050cc70 f   xml_listview.obj
 0002:0009ece0       ?dragEnable@xml_listview@@QAEX_N@Z 0050cce0 f   xml_listview.obj
 0002:0009ed20       ?load@xml_listview@@QAEXAAVQString@@@Z 0050cd20 f   xml_listview.obj
 0002:000a02e0       ?startDrag@xml_listview@@UAEXXZ 0050e2e0 f   xml_listview.obj
 0002:000a09e4       ??_Exml_listview@@WCI@AEPAXI@Z 0050e9e4 f i xml_listview.obj
 0002:000a09f0       ??_Exml_listview@@UAEPAXI@Z 0050e9f0 f i xml_listview.obj
 0002:000a09f0       ??_Gxml_listview@@UAEPAXI@Z 0050e9f0 f i xml_listview.obj
 0002:000a0a60       ?metaObject@xml_listview@@UBEPAVQMetaObject@@XZ 0050ea60 f i xml_listview.obj
 0002:000a0ab0       ??0device_list_editBase@@QAE@PAVQWidget@@PBD_NI@Z 0050eab0 f   device_list_edit.obj
 0002:000a1520       ??1device_list_editBase@@UAE@XZ 0050f520 f   device_list_edit.obj
 0002:000a1580       ?languageChange@device_list_editBase@@MAEXXZ 0050f580 f   device_list_edit.obj
 0002:000a1c49       ??_Edevice_list_editBase@@WCI@AEPAXI@Z 0050fc49 f i device_list_edit.obj
 0002:000a1c60       ??_Edevice_list_editBase@@UAEPAXI@Z 0050fc60 f i device_list_edit.obj
 0002:000a1c60       ??_Gdevice_list_editBase@@UAEPAXI@Z 0050fc60 f i device_list_edit.obj
 0002:000a1cd0       ??0dialogeditBase@@QAE@PAVQWidget@@PBD_NI@Z 0050fcd0 f   dialogedit.obj
 0002:000a3ec0       ??1dialogeditBase@@UAE@XZ  00511ec0 f   dialogedit.obj
 0002:000a3f20       ?languageChange@dialogeditBase@@MAEXXZ 00511f20 f   dialogedit.obj
 0002:000a5660       ??_EQGroupBox@@WCI@AEPAXI@Z 00513660 f i dialogedit.obj
 0002:000a566a       ??_EQSpinBox@@WCI@AEPAXI@Z 0051366a f i dialogedit.obj
 0002:000a5674       ??_EQSpinBox@@WGM@AEPAXI@Z 00513674 f i dialogedit.obj
 0002:000a567e       ??_EdialogeditBase@@WCI@AEPAXI@Z 0051367e f i dialogedit.obj
 0002:000a5690       ??_GQGroupBox@@UAEPAXI@Z   00513690 f i dialogedit.obj
 0002:000a5690       ??_EQGroupBox@@UAEPAXI@Z   00513690 f i dialogedit.obj
 0002:000a5710       ??_EQSpinBox@@UAEPAXI@Z    00513710 f i dialogedit.obj
 0002:000a5710       ??_GQSpinBox@@UAEPAXI@Z    00513710 f i dialogedit.obj
 0002:000a5790       ??_GdialogeditBase@@UAEPAXI@Z 00513790 f i dialogedit.obj
 0002:000a5790       ??_EdialogeditBase@@UAEPAXI@Z 00513790 f i dialogedit.obj
 0002:000a5800       ?metaObject@dialogeditBase@@UBEPAVQMetaObject@@XZ 00513800 f i dialogedit.obj
 0002:000a5850       ??0duplicateDlgBase@@QAE@PAVQWidget@@PBD_NI@Z 00513850 f   duplicatedlg.obj
 0002:000a66b0       ??1duplicateDlgBase@@UAE@XZ 005146b0 f   duplicatedlg.obj
 0002:000a6710       ?languageChange@duplicateDlgBase@@MAEXXZ 00514710 f   duplicatedlg.obj
 0002:000a7188       ??_EQGridLayout@@WCI@AEPAXI@Z 00515188 f i duplicatedlg.obj
 0002:000a7192       ??_EduplicateDlgBase@@WCI@AEPAXI@Z 00515192 f i duplicatedlg.obj
 0002:000a71a0       ??_EQGridLayout@@UAEPAXI@Z 005151a0 f i duplicatedlg.obj
 0002:000a71a0       ??_GQGridLayout@@UAEPAXI@Z 005151a0 f i duplicatedlg.obj
 0002:000a7220       ??_EduplicateDlgBase@@UAEPAXI@Z 00515220 f i duplicatedlg.obj
 0002:000a7220       ??_GduplicateDlgBase@@UAEPAXI@Z 00515220 f i duplicatedlg.obj
 0002:000a7290       ?metaObject@duplicateDlgBase@@UBEPAVQMetaObject@@XZ 00515290 f i duplicatedlg.obj
 0002:000a72e0       ??0file_newBase@@QAE@PAVQWidget@@PBD_NI@Z 005152e0 f   file_new.obj
 0002:000a79b0       ??1file_newBase@@UAE@XZ    005159b0 f   file_new.obj
 0002:000a7a10       ?languageChange@file_newBase@@MAEXXZ 00515a10 f   file_new.obj
 0002:000a804d       ??_EQIconView@@WCI@AEPAXI@Z 0051604d f i file_new.obj
 0002:000a8057       ??_Efile_newBase@@WCI@AEPAXI@Z 00516057 f i file_new.obj
 0002:000a8070       ??_EQIconView@@UAEPAXI@Z   00516070 f i file_new.obj
 0002:000a8070       ??_GQIconView@@UAEPAXI@Z   00516070 f i file_new.obj
 0002:000a80f0       ??_Efile_newBase@@UAEPAXI@Z 005160f0 f i file_new.obj
 0002:000a80f0       ??_Gfile_newBase@@UAEPAXI@Z 005160f0 f i file_new.obj
 0002:000a8160       ?metaObject@file_newBase@@UBEPAVQMetaObject@@XZ 00516160 f i file_new.obj
 0002:000a81b0       ??0globalstyleDlgBase@@QAE@PAVQWidget@@PBD_NI@Z 005161b0 f   globalstyledlg.obj
 0002:000a9da0       ??1globalstyleDlgBase@@UAE@XZ 00517da0 f   globalstyledlg.obj
 0002:000a9e00       ?languageChange@globalstyleDlgBase@@MAEXXZ 00517e00 f   globalstyledlg.obj
 0002:000aad5a       ??_EglobalstyleDlgBase@@WCI@AEPAXI@Z 00518d5a f i globalstyledlg.obj
 0002:000aad70       ??_GglobalstyleDlgBase@@UAEPAXI@Z 00518d70 f i globalstyledlg.obj
 0002:000aad70       ??_EglobalstyleDlgBase@@UAEPAXI@Z 00518d70 f i globalstyledlg.obj
 0002:000aade0       ?metaObject@globalstyleDlgBase@@UBEPAVQMetaObject@@XZ 00518de0 f i globalstyledlg.obj
 0002:000aae30       ??0importSettingsBase@@QAE@PAVQWidget@@PBD_NI@Z 00518e30 f   importsettings.obj
 0002:000ab5f0       ??1importSettingsBase@@UAE@XZ 005195f0 f   importsettings.obj
 0002:000ab650       ?languageChange@importSettingsBase@@MAEXXZ 00519650 f   importsettings.obj
 0002:000abbf7       ??_EQListView@@WCI@AEPAXI@Z 00519bf7 f i importsettings.obj
 0002:000abc01       ??_EimportSettingsBase@@WCI@AEPAXI@Z 00519c01 f i importsettings.obj
 0002:000abc10       ??_EQListView@@UAEPAXI@Z   00519c10 f i importsettings.obj
 0002:000abc10       ??_GQListView@@UAEPAXI@Z   00519c10 f i importsettings.obj
 0002:000abc90       ??_GimportSettingsBase@@UAEPAXI@Z 00519c90 f i importsettings.obj
 0002:000abc90       ??_EimportSettingsBase@@UAEPAXI@Z 00519c90 f i importsettings.obj
 0002:000abd00       ?metaObject@importSettingsBase@@UBEPAVQMetaObject@@XZ 00519d00 f i importsettings.obj
 0002:000abd50       ??0manualSettingsBase@@QAE@PAVQWidget@@PBD_NI@Z 00519d50 f   manualsettings.obj
 0002:000ac500       ??1manualSettingsBase@@UAE@XZ 0051a500 f   manualsettings.obj
 0002:000ac560       ?languageChange@manualSettingsBase@@MAEXXZ 0051a560 f   manualsettings.obj
 0002:000acae4       ??_EQTextEdit@@WCI@AEPAXI@Z 0051aae4 f i manualsettings.obj
 0002:000acaee       ??_EmanualSettingsBase@@WCI@AEPAXI@Z 0051aaee f i manualsettings.obj
 0002:000acb00       ??_EQTextEdit@@UAEPAXI@Z   0051ab00 f i manualsettings.obj
 0002:000acb00       ??_GQTextEdit@@UAEPAXI@Z   0051ab00 f i manualsettings.obj
 0002:000acb80       ??_GmanualSettingsBase@@UAEPAXI@Z 0051ab80 f i manualsettings.obj
 0002:000acb80       ??_EmanualSettingsBase@@UAEPAXI@Z 0051ab80 f i manualsettings.obj
 0002:000acbf0       ?metaObject@manualSettingsBase@@UBEPAVQMetaObject@@XZ 0051abf0 f i manualsettings.obj
 0002:000acc40       ?className@device_list@@UBEPBDXZ 0051ac40 f   moc_device_list.obj
 0002:000acc70       ?qt_cast@device_list@@UAEPAXPBD@Z 0051ac70 f   moc_device_list.obj
 0002:000accf0       ?qt_invoke@device_list@@UAE_NHPAUQUObject@@@Z 0051acf0 f   moc_device_list.obj
 0002:000acec0       ?qt_emit@device_list@@UAE_NHPAUQUObject@@@Z 0051aec0 f   moc_device_list.obj
 0002:000acf20       ?qt_property@device_list@@UAE_NHHPAVQVariant@@@Z 0051af20 f   moc_device_list.obj
 0002:000acf80       ?qt_static_property@device_list@@SA_NPAVQObject@@HHPAVQVariant@@@Z 0051af80 f   moc_device_list.obj
 0002:000acfb0       ?staticMetaObject@device_list@@SAPAVQMetaObject@@XZ 0051afb0 f   moc_device_list.obj
 0002:000ad150       ?tr@device_list@@SA?AVQString@@PBD0@Z 0051b150 f   moc_device_list.obj
 0002:000ad210       ?trUtf8@device_list@@SA?AVQString@@PBD0@Z 0051b210 f   moc_device_list.obj
 0002:000ad470       ?className@device_list_editBase@@UBEPBDXZ 0051b470 f   moc_device_list_edit.obj
 0002:000ad4a0       ?qt_cast@device_list_editBase@@UAEPAXPBD@Z 0051b4a0 f   moc_device_list_edit.obj
 0002:000ad520       ?qt_invoke@device_list_editBase@@UAE_NHPAUQUObject@@@Z 0051b520 f   moc_device_list_edit.obj
 0002:000ad5c0       ?qt_emit@device_list_editBase@@UAE_NHPAUQUObject@@@Z 0051b5c0 f   moc_device_list_edit.obj
 0002:000ad620       ?qt_property@device_list_editBase@@UAE_NHHPAVQVariant@@@Z 0051b620 f   moc_device_list_edit.obj
 0002:000ad680       ?qt_static_property@device_list_editBase@@SA_NPAVQObject@@HHPAVQVariant@@@Z 0051b680 f   moc_device_list_edit.obj
 0002:000ad6b0       ?staticMetaObject@device_list_editBase@@SAPAVQMetaObject@@XZ 0051b6b0 f   moc_device_list_edit.obj
 0002:000ad760       ?tr@device_list_editBase@@SA?AVQString@@PBD0@Z 0051b760 f   moc_device_list_edit.obj
 0002:000ad820       ?trUtf8@device_list_editBase@@SA?AVQString@@PBD0@Z 0051b820 f   moc_device_list_edit.obj
 0002:000ad9f0       ?className@deviceTypeListView@@UBEPBDXZ 0051b9f0 f   moc_deviceTypeListView.obj
 0002:000ada20       ?qt_cast@deviceTypeListView@@UAEPAXPBD@Z 0051ba20 f   moc_deviceTypeListView.obj
 0002:000adaa0       ?qt_invoke@deviceTypeListView@@UAE_NHPAUQUObject@@@Z 0051baa0 f   moc_deviceTypeListView.obj
 0002:000adb00       ?qt_emit@deviceTypeListView@@UAE_NHPAUQUObject@@@Z 0051bb00 f   moc_deviceTypeListView.obj
 0002:000adbb0       ?qt_property@deviceTypeListView@@UAE_NHHPAVQVariant@@@Z 0051bbb0 f   moc_deviceTypeListView.obj
 0002:000adc10       ?qt_static_property@deviceTypeListView@@SA_NPAVQObject@@HHPAVQVariant@@@Z 0051bc10 f   moc_deviceTypeListView.obj
 0002:000adc40       ?staticMetaObject@deviceTypeListView@@SAPAVQMetaObject@@XZ 0051bc40 f   moc_deviceTypeListView.obj
 0002:000add30       ?tr@deviceTypeListView@@SA?AVQString@@PBD0@Z 0051bd30 f   moc_deviceTypeListView.obj
 0002:000addf0       ?trUtf8@deviceTypeListView@@SA?AVQString@@PBD0@Z 0051bdf0 f   moc_deviceTypeListView.obj
 0002:000adeb0       ?startDrag@deviceTypeListView@@IAEXPAVQListViewItem@@@Z 0051beb0 f   moc_deviceTypeListView.obj
 0002:000ae1a0       ?className@dialog@@UBEPBDXZ 0051c1a0 f   moc_dialog.obj
 0002:000ae1d0       ?qt_cast@dialog@@UAEPAXPBD@Z 0051c1d0 f   moc_dialog.obj
 0002:000ae250       ?qt_invoke@dialog@@UAE_NHPAUQUObject@@@Z 0051c250 f   moc_dialog.obj
 0002:000ae390       ?qt_emit@dialog@@UAE_NHPAUQUObject@@@Z 0051c390 f   moc_dialog.obj
 0002:000ae3f0       ?qt_property@dialog@@UAE_NHHPAVQVariant@@@Z 0051c3f0 f   moc_dialog.obj
 0002:000ae450       ?qt_static_property@dialog@@SA_NPAVQObject@@HHPAVQVariant@@@Z 0051c450 f   moc_dialog.obj
 0002:000ae480       ?staticMetaObject@dialog@@SAPAVQMetaObject@@XZ 0051c480 f   moc_dialog.obj
 0002:000ae5d0       ?tr@dialog@@SA?AVQString@@PBD0@Z 0051c5d0 f   moc_dialog.obj
 0002:000ae690       ?trUtf8@dialog@@SA?AVQString@@PBD0@Z 0051c690 f   moc_dialog.obj
 0002:000ae8b0       ?className@dialogeditBase@@UBEPBDXZ 0051c8b0 f   moc_dialogedit.obj
 0002:000ae8e0       ?qt_cast@dialogeditBase@@UAEPAXPBD@Z 0051c8e0 f   moc_dialogedit.obj
 0002:000ae960       ?qt_invoke@dialogeditBase@@UAE_NHPAUQUObject@@@Z 0051c960 f   moc_dialogedit.obj
 0002:000aea00       ?qt_emit@dialogeditBase@@UAE_NHPAUQUObject@@@Z 0051ca00 f   moc_dialogedit.obj
 0002:000aea60       ?qt_property@dialogeditBase@@UAE_NHHPAVQVariant@@@Z 0051ca60 f   moc_dialogedit.obj
 0002:000aeac0       ?qt_static_property@dialogeditBase@@SA_NPAVQObject@@HHPAVQVariant@@@Z 0051cac0 f   moc_dialogedit.obj
 0002:000aeaf0       ?staticMetaObject@dialogeditBase@@SAPAVQMetaObject@@XZ 0051caf0 f   moc_dialogedit.obj
 0002:000aeba0       ?tr@dialogeditBase@@SA?AVQString@@PBD0@Z 0051cba0 f   moc_dialogedit.obj
 0002:000aec60       ?trUtf8@dialogeditBase@@SA?AVQString@@PBD0@Z 0051cc60 f   moc_dialogedit.obj
 0002:000aee30       ?className@dialogedit@@UBEPBDXZ 0051ce30 f   moc_dialogeditimpl.obj
 0002:000aee60       ?qt_cast@dialogedit@@UAEPAXPBD@Z 0051ce60 f   moc_dialogeditimpl.obj
 0002:000aeed0       ?qt_invoke@dialogedit@@UAE_NHPAUQUObject@@@Z 0051ced0 f   moc_dialogeditimpl.obj
 0002:000aef20       ?qt_emit@dialogedit@@UAE_NHPAUQUObject@@@Z 0051cf20 f   moc_dialogeditimpl.obj
 0002:000aef70       ?qt_property@dialogedit@@UAE_NHHPAVQVariant@@@Z 0051cf70 f   moc_dialogeditimpl.obj
 0002:000aefc0       ?qt_static_property@dialogedit@@SA_NPAVQObject@@HHPAVQVariant@@@Z 0051cfc0 f   moc_dialogeditimpl.obj
 0002:000aeff0       ?staticMetaObject@dialogedit@@SAPAVQMetaObject@@XZ 0051cff0 f   moc_dialogeditimpl.obj
 0002:000af090       ?tr@dialogedit@@SA?AVQString@@PBD0@Z 0051d090 f   moc_dialogeditimpl.obj
 0002:000af150       ?trUtf8@dialogedit@@SA?AVQString@@PBD0@Z 0051d150 f   moc_dialogeditimpl.obj
 0002:000af300       ?className@distributeBase@@UBEPBDXZ 0051d300 f   moc_distribute.obj
 0002:000af330       ?qt_cast@distributeBase@@UAEPAXPBD@Z 0051d330 f   moc_distribute.obj
 0002:000af3b0       ?qt_invoke@distributeBase@@UAE_NHPAUQUObject@@@Z 0051d3b0 f   moc_distribute.obj
 0002:000af450       ?qt_emit@distributeBase@@UAE_NHPAUQUObject@@@Z 0051d450 f   moc_distribute.obj
 0002:000af4b0       ?qt_property@distributeBase@@UAE_NHHPAVQVariant@@@Z 0051d4b0 f   moc_distribute.obj
 0002:000af510       ?qt_static_property@distributeBase@@SA_NPAVQObject@@HHPAVQVariant@@@Z 0051d510 f   moc_distribute.obj
 0002:000af540       ?staticMetaObject@distributeBase@@SAPAVQMetaObject@@XZ 0051d540 f   moc_distribute.obj
 0002:000af5f0       ?tr@distributeBase@@SA?AVQString@@PBD0@Z 0051d5f0 f   moc_distribute.obj
 0002:000af6b0       ?trUtf8@distributeBase@@SA?AVQString@@PBD0@Z 0051d6b0 f   moc_distribute.obj
 0002:000af880       ?className@distribute@@UBEPBDXZ 0051d880 f   moc_distributeimpl.obj
 0002:000af8b0       ?qt_cast@distribute@@UAEPAXPBD@Z 0051d8b0 f   moc_distributeimpl.obj
 0002:000af920       ?qt_invoke@distribute@@UAE_NHPAUQUObject@@@Z 0051d920 f   moc_distributeimpl.obj
 0002:000af970       ?qt_emit@distribute@@UAE_NHPAUQUObject@@@Z 0051d970 f   moc_distributeimpl.obj
 0002:000af9c0       ?qt_property@distribute@@UAE_NHHPAVQVariant@@@Z 0051d9c0 f   moc_distributeimpl.obj
 0002:000afa10       ?qt_static_property@distribute@@SA_NPAVQObject@@HHPAVQVariant@@@Z 0051da10 f   moc_distributeimpl.obj
 0002:000afa40       ?staticMetaObject@distribute@@SAPAVQMetaObject@@XZ 0051da40 f   moc_distributeimpl.obj
 0002:000afae0       ?tr@distribute@@SA?AVQString@@PBD0@Z 0051dae0 f   moc_distributeimpl.obj
 0002:000afba0       ?trUtf8@distribute@@SA?AVQString@@PBD0@Z 0051dba0 f   moc_distributeimpl.obj
 0002:000afd50       ?className@duplicateDlgBase@@UBEPBDXZ 0051dd50 f   moc_duplicatedlg.obj
 0002:000afd80       ?qt_cast@duplicateDlgBase@@UAEPAXPBD@Z 0051dd80 f   moc_duplicatedlg.obj
 0002:000afe00       ?qt_invoke@duplicateDlgBase@@UAE_NHPAUQUObject@@@Z 0051de00 f   moc_duplicatedlg.obj
 0002:000afea0       ?qt_emit@duplicateDlgBase@@UAE_NHPAUQUObject@@@Z 0051dea0 f   moc_duplicatedlg.obj
 0002:000aff00       ?qt_property@duplicateDlgBase@@UAE_NHHPAVQVariant@@@Z 0051df00 f   moc_duplicatedlg.obj
 0002:000aff60       ?qt_static_property@duplicateDlgBase@@SA_NPAVQObject@@HHPAVQVariant@@@Z 0051df60 f   moc_duplicatedlg.obj
 0002:000aff90       ?staticMetaObject@duplicateDlgBase@@SAPAVQMetaObject@@XZ 0051df90 f   moc_duplicatedlg.obj
 0002:000b0040       ?tr@duplicateDlgBase@@SA?AVQString@@PBD0@Z 0051e040 f   moc_duplicatedlg.obj
 0002:000b0100       ?trUtf8@duplicateDlgBase@@SA?AVQString@@PBD0@Z 0051e100 f   moc_duplicatedlg.obj
 0002:000b02d0       ?className@duplicateDlg@@UBEPBDXZ 0051e2d0 f   moc_duplicatedlgimpl.obj
 0002:000b0300       ?qt_cast@duplicateDlg@@UAEPAXPBD@Z 0051e300 f   moc_duplicatedlgimpl.obj
 0002:000b0370       ?qt_invoke@duplicateDlg@@UAE_NHPAUQUObject@@@Z 0051e370 f   moc_duplicatedlgimpl.obj
 0002:000b03c0       ?qt_emit@duplicateDlg@@UAE_NHPAUQUObject@@@Z 0051e3c0 f   moc_duplicatedlgimpl.obj
 0002:000b0410       ?qt_property@duplicateDlg@@UAE_NHHPAVQVariant@@@Z 0051e410 f   moc_duplicatedlgimpl.obj
 0002:000b0460       ?qt_static_property@duplicateDlg@@SA_NPAVQObject@@HHPAVQVariant@@@Z 0051e460 f   moc_duplicatedlgimpl.obj
 0002:000b0490       ?staticMetaObject@duplicateDlg@@SAPAVQMetaObject@@XZ 0051e490 f   moc_duplicatedlgimpl.obj
 0002:000b0530       ?tr@duplicateDlg@@SA?AVQString@@PBD0@Z 0051e530 f   moc_duplicatedlgimpl.obj
 0002:000b05f0       ?trUtf8@duplicateDlg@@SA?AVQString@@PBD0@Z 0051e5f0 f   moc_duplicatedlgimpl.obj
 0002:000b07a0       ?className@editHandles@@UBEPBDXZ 0051e7a0 f   moc_editHandles.obj
 0002:000b07d0       ?qt_cast@editHandles@@UAEPAXPBD@Z 0051e7d0 f   moc_editHandles.obj
 0002:000b0850       ?qt_invoke@editHandles@@UAE_NHPAUQUObject@@@Z 0051e850 f   moc_editHandles.obj
 0002:000b08b0       ?qt_emit@editHandles@@UAE_NHPAUQUObject@@@Z 0051e8b0 f   moc_editHandles.obj
 0002:000b0a00       ?qt_property@editHandles@@UAE_NHHPAVQVariant@@@Z 0051ea00 f   moc_editHandles.obj
 0002:000b0a60       ?qt_static_property@editHandles@@SA_NPAVQObject@@HHPAVQVariant@@@Z 0051ea60 f   moc_editHandles.obj
 0002:000b0a90       ?staticMetaObject@editHandles@@SAPAVQMetaObject@@XZ 0051ea90 f   moc_editHandles.obj
 0002:000b0bd0       ?tr@editHandles@@SA?AVQString@@PBD0@Z 0051ebd0 f   moc_editHandles.obj
 0002:000b0c90       ?trUtf8@editHandles@@SA?AVQString@@PBD0@Z 0051ec90 f   moc_editHandles.obj
 0002:000b0d50       ?rectChanged@editHandles@@IAEXPAVQWidget@@VQRect@@@Z 0051ed50 f   moc_editHandles.obj
 0002:000b0ed0       ?statusBarMessage@editHandles@@IAEXABVQString@@@Z 0051eed0 f   moc_editHandles.obj
 0002:000b1190       ?className@file_newBase@@UBEPBDXZ 0051f190 f   moc_file_new.obj
 0002:000b11c0       ?qt_cast@file_newBase@@UAEPAXPBD@Z 0051f1c0 f   moc_file_new.obj
 0002:000b1240       ?qt_invoke@file_newBase@@UAE_NHPAUQUObject@@@Z 0051f240 f   moc_file_new.obj
 0002:000b12e0       ?qt_emit@file_newBase@@UAE_NHPAUQUObject@@@Z 0051f2e0 f   moc_file_new.obj
 0002:000b1340       ?qt_property@file_newBase@@UAE_NHHPAVQVariant@@@Z 0051f340 f   moc_file_new.obj
 0002:000b13a0       ?qt_static_property@file_newBase@@SA_NPAVQObject@@HHPAVQVariant@@@Z 0051f3a0 f   moc_file_new.obj
 0002:000b13d0       ?staticMetaObject@file_newBase@@SAPAVQMetaObject@@XZ 0051f3d0 f   moc_file_new.obj
 0002:000b1480       ?tr@file_newBase@@SA?AVQString@@PBD0@Z 0051f480 f   moc_file_new.obj
 0002:000b1540       ?trUtf8@file_newBase@@SA?AVQString@@PBD0@Z 0051f540 f   moc_file_new.obj
 0002:000b1710       ?className@file_new@@UBEPBDXZ 0051f710 f   moc_file_new_imp.obj
 0002:000b1740       ?qt_cast@file_new@@UAEPAXPBD@Z 0051f740 f   moc_file_new_imp.obj
 0002:000b17b0       ?qt_invoke@file_new@@UAE_NHPAUQUObject@@@Z 0051f7b0 f   moc_file_new_imp.obj
 0002:000b1860       ?qt_emit@file_new@@UAE_NHPAUQUObject@@@Z 0051f860 f   moc_file_new_imp.obj
 0002:000b18b0       ?qt_property@file_new@@UAE_NHHPAVQVariant@@@Z 0051f8b0 f   moc_file_new_imp.obj
 0002:000b1900       ?qt_static_property@file_new@@SA_NPAVQObject@@HHPAVQVariant@@@Z 0051f900 f   moc_file_new_imp.obj
 0002:000b1930       ?staticMetaObject@file_new@@SAPAVQMetaObject@@XZ 0051f930 f   moc_file_new_imp.obj
 0002:000b1a10       ?tr@file_new@@SA?AVQString@@PBD0@Z 0051fa10 f   moc_file_new_imp.obj
 0002:000b1ad0       ?trUtf8@file_new@@SA?AVQString@@PBD0@Z 0051fad0 f   moc_file_new_imp.obj
 0002:000b1ca0       ?className@globalstyleDlgBase@@UBEPBDXZ 0051fca0 f   moc_globalstyledlg.obj
 0002:000b1cd0       ?qt_cast@globalstyleDlgBase@@UAEPAXPBD@Z 0051fcd0 f   moc_globalstyledlg.obj
 0002:000b1d50       ?qt_invoke@globalstyleDlgBase@@UAE_NHPAUQUObject@@@Z 0051fd50 f   moc_globalstyledlg.obj
 0002:000b1df0       ?qt_emit@globalstyleDlgBase@@UAE_NHPAUQUObject@@@Z 0051fdf0 f   moc_globalstyledlg.obj
 0002:000b1e50       ?qt_property@globalstyleDlgBase@@UAE_NHHPAVQVariant@@@Z 0051fe50 f   moc_globalstyledlg.obj
 0002:000b1eb0       ?qt_static_property@globalstyleDlgBase@@SA_NPAVQObject@@HHPAVQVariant@@@Z 0051feb0 f   moc_globalstyledlg.obj
 0002:000b1ee0       ?staticMetaObject@globalstyleDlgBase@@SAPAVQMetaObject@@XZ 0051fee0 f   moc_globalstyledlg.obj
 0002:000b1f90       ?tr@globalstyleDlgBase@@SA?AVQString@@PBD0@Z 0051ff90 f   moc_globalstyledlg.obj
 0002:000b2050       ?trUtf8@globalstyleDlgBase@@SA?AVQString@@PBD0@Z 00520050 f   moc_globalstyledlg.obj
 0002:000b2220       ?className@globalStyleDlg@@UBEPBDXZ 00520220 f   moc_globalstyledlgimpl.obj
 0002:000b2250       ?qt_cast@globalStyleDlg@@UAEPAXPBD@Z 00520250 f   moc_globalstyledlgimpl.obj
 0002:000b22c0       ?qt_invoke@globalStyleDlg@@UAE_NHPAUQUObject@@@Z 005202c0 f   moc_globalstyledlgimpl.obj
 0002:000b2380       ?qt_emit@globalStyleDlg@@UAE_NHPAUQUObject@@@Z 00520380 f   moc_globalstyledlgimpl.obj
 0002:000b23d0       ?qt_property@globalStyleDlg@@UAE_NHHPAVQVariant@@@Z 005203d0 f   moc_globalstyledlgimpl.obj
 0002:000b2420       ?qt_static_property@globalStyleDlg@@SA_NPAVQObject@@HHPAVQVariant@@@Z 00520420 f   moc_globalstyledlgimpl.obj
 0002:000b2450       ?staticMetaObject@globalStyleDlg@@SAPAVQMetaObject@@XZ 00520450 f   moc_globalstyledlgimpl.obj
 0002:000b2530       ?tr@globalStyleDlg@@SA?AVQString@@PBD0@Z 00520530 f   moc_globalstyledlgimpl.obj
 0002:000b25f0       ?trUtf8@globalStyleDlg@@SA?AVQString@@PBD0@Z 005205f0 f   moc_globalstyledlgimpl.obj
 0002:000b27d0       ?className@handleBlock@@UBEPBDXZ 005207d0 f   moc_handleBlock.obj
 0002:000b2800       ?qt_cast@handleBlock@@UAEPAXPBD@Z 00520800 f   moc_handleBlock.obj
 0002:000b2880       ?qt_invoke@handleBlock@@UAE_NHPAUQUObject@@@Z 00520880 f   moc_handleBlock.obj
 0002:000b28e0       ?qt_emit@handleBlock@@UAE_NHPAUQUObject@@@Z 005208e0 f   moc_handleBlock.obj
 0002:000b2a00       ?qt_property@handleBlock@@UAE_NHHPAVQVariant@@@Z 00520a00 f   moc_handleBlock.obj
 0002:000b2a60       ?qt_static_property@handleBlock@@SA_NPAVQObject@@HHPAVQVariant@@@Z 00520a60 f   moc_handleBlock.obj
 0002:000b2a90       ?staticMetaObject@handleBlock@@SAPAVQMetaObject@@XZ 00520a90 f   moc_handleBlock.obj
 0002:000b2ba0       ?tr@handleBlock@@SA?AVQString@@PBD0@Z 00520ba0 f   moc_handleBlock.obj
 0002:000b2c60       ?trUtf8@handleBlock@@SA?AVQString@@PBD0@Z 00520c60 f   moc_handleBlock.obj
 0002:000b2d20       ?rectChanged@handleBlock@@IAEXPAVQWidget@@VQRect@@@Z 00520d20 f   moc_handleBlock.obj
 0002:000b3060       ?className@importSettingsBase@@UBEPBDXZ 00521060 f   moc_importsettings.obj
 0002:000b3090       ?qt_cast@importSettingsBase@@UAEPAXPBD@Z 00521090 f   moc_importsettings.obj
 0002:000b3110       ?qt_invoke@importSettingsBase@@UAE_NHPAUQUObject@@@Z 00521110 f   moc_importsettings.obj
 0002:000b31b0       ?qt_emit@importSettingsBase@@UAE_NHPAUQUObject@@@Z 005211b0 f   moc_importsettings.obj
 0002:000b3210       ?qt_property@importSettingsBase@@UAE_NHHPAVQVariant@@@Z 00521210 f   moc_importsettings.obj
 0002:000b3270       ?qt_static_property@importSettingsBase@@SA_NPAVQObject@@HHPAVQVariant@@@Z 00521270 f   moc_importsettings.obj
 0002:000b32a0       ?staticMetaObject@importSettingsBase@@SAPAVQMetaObject@@XZ 005212a0 f   moc_importsettings.obj
 0002:000b3350       ?tr@importSettingsBase@@SA?AVQString@@PBD0@Z 00521350 f   moc_importsettings.obj
 0002:000b3410       ?trUtf8@importSettingsBase@@SA?AVQString@@PBD0@Z 00521410 f   moc_importsettings.obj
 0002:000b35e0       ?className@importSettings@@UBEPBDXZ 005215e0 f   moc_importsettingsimpl.obj
 0002:000b3610       ?qt_cast@importSettings@@UAEPAXPBD@Z 00521610 f   moc_importsettingsimpl.obj
 0002:000b3680       ?qt_invoke@importSettings@@UAE_NHPAUQUObject@@@Z 00521680 f   moc_importsettingsimpl.obj
 0002:000b3700       ?qt_emit@importSettings@@UAE_NHPAUQUObject@@@Z 00521700 f   moc_importsettingsimpl.obj
 0002:000b3750       ?qt_property@importSettings@@UAE_NHHPAVQVariant@@@Z 00521750 f   moc_importsettingsimpl.obj
 0002:000b37a0       ?qt_static_property@importSettings@@SA_NPAVQObject@@HHPAVQVariant@@@Z 005217a0 f   moc_importsettingsimpl.obj
 0002:000b37d0       ?staticMetaObject@importSettings@@SAPAVQMetaObject@@XZ 005217d0 f   moc_importsettingsimpl.obj
 0002:000b3870       ?tr@importSettings@@SA?AVQString@@PBD0@Z 00521870 f   moc_importsettingsimpl.obj
 0002:000b3930       ?trUtf8@importSettings@@SA?AVQString@@PBD0@Z 00521930 f   moc_importsettingsimpl.obj
 0002:000b3af0       ?className@manualSettingsBase@@UBEPBDXZ 00521af0 f   moc_manualsettings.obj
 0002:000b3b20       ?qt_cast@manualSettingsBase@@UAEPAXPBD@Z 00521b20 f   moc_manualsettings.obj
 0002:000b3ba0       ?qt_invoke@manualSettingsBase@@UAE_NHPAUQUObject@@@Z 00521ba0 f   moc_manualsettings.obj
 0002:000b3c40       ?qt_emit@manualSettingsBase@@UAE_NHPAUQUObject@@@Z 00521c40 f   moc_manualsettings.obj
 0002:000b3ca0       ?qt_property@manualSettingsBase@@UAE_NHHPAVQVariant@@@Z 00521ca0 f   moc_manualsettings.obj
 0002:000b3d00       ?qt_static_property@manualSettingsBase@@SA_NPAVQObject@@HHPAVQVariant@@@Z 00521d00 f   moc_manualsettings.obj
 0002:000b3d30       ?staticMetaObject@manualSettingsBase@@SAPAVQMetaObject@@XZ 00521d30 f   moc_manualsettings.obj
 0002:000b3de0       ?tr@manualSettingsBase@@SA?AVQString@@PBD0@Z 00521de0 f   moc_manualsettings.obj
 0002:000b3ea0       ?trUtf8@manualSettingsBase@@SA?AVQString@@PBD0@Z 00521ea0 f   moc_manualsettings.obj
 0002:000b4070       ?className@manualSettings@@UBEPBDXZ 00522070 f   moc_manualsettingsimpl.obj
 0002:000b40a0       ?qt_cast@manualSettings@@UAEPAXPBD@Z 005220a0 f   moc_manualsettingsimpl.obj
 0002:000b4110       ?qt_invoke@manualSettings@@UAE_NHPAUQUObject@@@Z 00522110 f   moc_manualsettingsimpl.obj
 0002:000b4190       ?qt_emit@manualSettings@@UAE_NHPAUQUObject@@@Z 00522190 f   moc_manualsettingsimpl.obj
 0002:000b41e0       ?qt_property@manualSettings@@UAE_NHHPAVQVariant@@@Z 005221e0 f   moc_manualsettingsimpl.obj
 0002:000b4230       ?qt_static_property@manualSettings@@SA_NPAVQObject@@HHPAVQVariant@@@Z 00522230 f   moc_manualsettingsimpl.obj
 0002:000b4260       ?staticMetaObject@manualSettings@@SAPAVQMetaObject@@XZ 00522260 f   moc_manualsettingsimpl.obj
 0002:000b4300       ?tr@manualSettings@@SA?AVQString@@PBD0@Z 00522300 f   moc_manualsettingsimpl.obj
 0002:000b43c0       ?trUtf8@manualSettings@@SA?AVQString@@PBD0@Z 005223c0 f   moc_manualsettingsimpl.obj
 0002:000b4580       ?className@objectViewBase@@UBEPBDXZ 00522580 f   moc_objectview.obj
 0002:000b45b0       ?qt_cast@objectViewBase@@UAEPAXPBD@Z 005225b0 f   moc_objectview.obj
 0002:000b4630       ?qt_invoke@objectViewBase@@UAE_NHPAUQUObject@@@Z 00522630 f   moc_objectview.obj
 0002:000b46d0       ?qt_emit@objectViewBase@@UAE_NHPAUQUObject@@@Z 005226d0 f   moc_objectview.obj
 0002:000b4730       ?qt_property@objectViewBase@@UAE_NHHPAVQVariant@@@Z 00522730 f   moc_objectview.obj
 0002:000b4790       ?qt_static_property@objectViewBase@@SA_NPAVQObject@@HHPAVQVariant@@@Z 00522790 f   moc_objectview.obj
 0002:000b47c0       ?staticMetaObject@objectViewBase@@SAPAVQMetaObject@@XZ 005227c0 f   moc_objectview.obj
 0002:000b4870       ?tr@objectViewBase@@SA?AVQString@@PBD0@Z 00522870 f   moc_objectview.obj
 0002:000b4930       ?trUtf8@objectViewBase@@SA?AVQString@@PBD0@Z 00522930 f   moc_objectview.obj
 0002:000b4b00       ?className@objectView@@UBEPBDXZ 00522b00 f   moc_objectviewimpl.obj
 0002:000b4b30       ?qt_cast@objectView@@UAEPAXPBD@Z 00522b30 f   moc_objectviewimpl.obj
 0002:000b4ba0       ?qt_invoke@objectView@@UAE_NHPAUQUObject@@@Z 00522ba0 f   moc_objectviewimpl.obj
 0002:000b4c70       ?qt_emit@objectView@@UAE_NHPAUQUObject@@@Z 00522c70 f   moc_objectviewimpl.obj
 0002:000b4d60       ?qt_property@objectView@@UAE_NHHPAVQVariant@@@Z 00522d60 f   moc_objectviewimpl.obj
 0002:000b4db0       ?qt_static_property@objectView@@SA_NPAVQObject@@HHPAVQVariant@@@Z 00522db0 f   moc_objectviewimpl.obj
 0002:000b4de0       ?staticMetaObject@objectView@@SAPAVQMetaObject@@XZ 00522de0 f   moc_objectviewimpl.obj
 0002:000b4f90       ?tr@objectView@@SA?AVQString@@PBD0@Z 00522f90 f   moc_objectviewimpl.obj
 0002:000b5050       ?trUtf8@objectView@@SA?AVQString@@PBD0@Z 00523050 f   moc_objectviewimpl.obj
 0002:000b5110       ?itemSelected@objectView@@IAEXABVQString@@@Z 00523110 f   moc_objectviewimpl.obj
 0002:000b51d0       ?itemRename@objectView@@IAEXABVQString@@0@Z 005231d0 f   moc_objectviewimpl.obj
 0002:000b5570       ?className@pasteTable@@UBEPBDXZ 00523570 f   moc_pasteTable.obj
 0002:000b55a0       ?qt_cast@pasteTable@@UAEPAXPBD@Z 005235a0 f   moc_pasteTable.obj
 0002:000b5620       ?qt_invoke@pasteTable@@UAE_NHPAUQUObject@@@Z 00523620 f   moc_pasteTable.obj
 0002:000b56d0       ?qt_emit@pasteTable@@UAE_NHPAUQUObject@@@Z 005236d0 f   moc_pasteTable.obj
 0002:000b57b0       ?qt_property@pasteTable@@UAE_NHHPAVQVariant@@@Z 005237b0 f   moc_pasteTable.obj
 0002:000b5810       ?qt_static_property@pasteTable@@SA_NPAVQObject@@HHPAVQVariant@@@Z 00523810 f   moc_pasteTable.obj
 0002:000b5840       ?staticMetaObject@pasteTable@@SAPAVQMetaObject@@XZ 00523840 f   moc_pasteTable.obj
 0002:000b5960       ?tr@pasteTable@@SA?AVQString@@PBD0@Z 00523960 f   moc_pasteTable.obj
 0002:000b5a20       ?trUtf8@pasteTable@@SA?AVQString@@PBD0@Z 00523a20 f   moc_pasteTable.obj
 0002:000b5ae0       ?canPaste@pasteTable@@IAEX_N@Z 00523ae0 f   moc_pasteTable.obj
 0002:000b5b50       ?message@pasteTable@@IAEXABVQString@@@Z 00523b50 f   moc_pasteTable.obj
 0002:000b5dc0       ?className@pickbox@@UBEPBDXZ 00523dc0 f   moc_pickbox.obj
 0002:000b5df0       ?qt_cast@pickbox@@UAEPAXPBD@Z 00523df0 f   moc_pickbox.obj
 0002:000b5e70       ?qt_invoke@pickbox@@UAE_NHPAUQUObject@@@Z 00523e70 f   moc_pickbox.obj
 0002:000b5f50       ?qt_emit@pickbox@@UAE_NHPAUQUObject@@@Z 00523f50 f   moc_pickbox.obj
 0002:000b5fb0       ?qt_property@pickbox@@UAE_NHHPAVQVariant@@@Z 00523fb0 f   moc_pickbox.obj
 0002:000b6010       ?qt_static_property@pickbox@@SA_NPAVQObject@@HHPAVQVariant@@@Z 00524010 f   moc_pickbox.obj
 0002:000b6040       ?staticMetaObject@pickbox@@SAPAVQMetaObject@@XZ 00524040 f   moc_pickbox.obj
 0002:000b6160       ?tr@pickbox@@SA?AVQString@@PBD0@Z 00524160 f   moc_pickbox.obj
 0002:000b6220       ?trUtf8@pickbox@@SA?AVQString@@PBD0@Z 00524220 f   moc_pickbox.obj
 0002:000b6420       ?className@pickbox_paramlist@@UBEPBDXZ 00524420 f   moc_pickbox_paramlist.obj
 0002:000b6450       ?qt_cast@pickbox_paramlist@@UAEPAXPBD@Z 00524450 f   moc_pickbox_paramlist.obj
 0002:000b64d0       ?qt_invoke@pickbox_paramlist@@UAE_NHPAUQUObject@@@Z 005244d0 f   moc_pickbox_paramlist.obj
 0002:000b65c0       ?qt_emit@pickbox_paramlist@@UAE_NHPAUQUObject@@@Z 005245c0 f   moc_pickbox_paramlist.obj
 0002:000b6620       ?qt_property@pickbox_paramlist@@UAE_NHHPAVQVariant@@@Z 00524620 f   moc_pickbox_paramlist.obj
 0002:000b6680       ?qt_static_property@pickbox_paramlist@@SA_NPAVQObject@@HHPAVQVariant@@@Z 00524680 f   moc_pickbox_paramlist.obj
 0002:000b66b0       ?staticMetaObject@pickbox_paramlist@@SAPAVQMetaObject@@XZ 005246b0 f   moc_pickbox_paramlist.obj
 0002:000b67a0       ?tr@pickbox_paramlist@@SA?AVQString@@PBD0@Z 005247a0 f   moc_pickbox_paramlist.obj
 0002:000b6860       ?trUtf8@pickbox_paramlist@@SA?AVQString@@PBD0@Z 00524860 f   moc_pickbox_paramlist.obj
 0002:000b6a50       ?className@signalConnectionListDlg@@UBEPBDXZ 00524a50 f   moc_signalConnectionListDlg.obj
 0002:000b6a80       ?qt_cast@signalConnectionListDlg@@UAEPAXPBD@Z 00524a80 f   moc_signalConnectionListDlg.obj
 0002:000b6b00       ?qt_invoke@signalConnectionListDlg@@UAE_NHPAUQUObject@@@Z 00524b00 f   moc_signalConnectionListDlg.obj
 0002:000b6ba0       ?qt_emit@signalConnectionListDlg@@UAE_NHPAUQUObject@@@Z 00524ba0 f   moc_signalConnectionListDlg.obj
 0002:000b6c00       ?qt_property@signalConnectionListDlg@@UAE_NHHPAVQVariant@@@Z 00524c00 f   moc_signalConnectionListDlg.obj
 0002:000b6c60       ?qt_static_property@signalConnectionListDlg@@SA_NPAVQObject@@HHPAVQVariant@@@Z 00524c60 f   moc_signalConnectionListDlg.obj
 0002:000b6c90       ?staticMetaObject@signalConnectionListDlg@@SAPAVQMetaObject@@XZ 00524c90 f   moc_signalConnectionListDlg.obj
 0002:000b6d40       ?tr@signalConnectionListDlg@@SA?AVQString@@PBD0@Z 00524d40 f   moc_signalConnectionListDlg.obj
 0002:000b6e00       ?trUtf8@signalConnectionListDlg@@SA?AVQString@@PBD0@Z 00524e00 f   moc_signalConnectionListDlg.obj
 0002:000b6fd0       ?className@signalConnectionListDlgImpl@@UBEPBDXZ 00524fd0 f   moc_signalConnectionListDlgimpl.obj
 0002:000b7000       ?qt_cast@signalConnectionListDlgImpl@@UAEPAXPBD@Z 00525000 f   moc_signalConnectionListDlgimpl.obj
 0002:000b7070       ?qt_invoke@signalConnectionListDlgImpl@@UAE_NHPAUQUObject@@@Z 00525070 f   moc_signalConnectionListDlgimpl.obj
 0002:000b7240       ?qt_emit@signalConnectionListDlgImpl@@UAE_NHPAUQUObject@@@Z 00525240 f   moc_signalConnectionListDlgimpl.obj
 0002:000b7290       ?qt_property@signalConnectionListDlgImpl@@UAE_NHHPAVQVariant@@@Z 00525290 f   moc_signalConnectionListDlgimpl.obj
 0002:000b72e0       ?qt_static_property@signalConnectionListDlgImpl@@SA_NPAVQObject@@HHPAVQVariant@@@Z 005252e0 f   moc_signalConnectionListDlgimpl.obj
 0002:000b7310       ?staticMetaObject@signalConnectionListDlgImpl@@SAPAVQMetaObject@@XZ 00525310 f   moc_signalConnectionListDlgimpl.obj
 0002:000b74c0       ?tr@signalConnectionListDlgImpl@@SA?AVQString@@PBD0@Z 005254c0 f   moc_signalConnectionListDlgimpl.obj
 0002:000b7580       ?trUtf8@signalConnectionListDlgImpl@@SA?AVQString@@PBD0@Z 00525580 f   moc_signalConnectionListDlgimpl.obj
 0002:000b77d0       ?className@sizePosEditBase@@UBEPBDXZ 005257d0 f   moc_sizeposedit.obj
 0002:000b7800       ?qt_cast@sizePosEditBase@@UAEPAXPBD@Z 00525800 f   moc_sizeposedit.obj
 0002:000b7880       ?qt_invoke@sizePosEditBase@@UAE_NHPAUQUObject@@@Z 00525880 f   moc_sizeposedit.obj
 0002:000b7920       ?qt_emit@sizePosEditBase@@UAE_NHPAUQUObject@@@Z 00525920 f   moc_sizeposedit.obj
 0002:000b7980       ?qt_property@sizePosEditBase@@UAE_NHHPAVQVariant@@@Z 00525980 f   moc_sizeposedit.obj
 0002:000b79e0       ?qt_static_property@sizePosEditBase@@SA_NPAVQObject@@HHPAVQVariant@@@Z 005259e0 f   moc_sizeposedit.obj
 0002:000b7a10       ?staticMetaObject@sizePosEditBase@@SAPAVQMetaObject@@XZ 00525a10 f   moc_sizeposedit.obj
 0002:000b7ac0       ?tr@sizePosEditBase@@SA?AVQString@@PBD0@Z 00525ac0 f   moc_sizeposedit.obj
 0002:000b7b80       ?trUtf8@sizePosEditBase@@SA?AVQString@@PBD0@Z 00525b80 f   moc_sizeposedit.obj
 0002:000b7d50       ?className@sizePosEdit@@UBEPBDXZ 00525d50 f   moc_sizeposeditimpl.obj
 0002:000b7d80       ?qt_cast@sizePosEdit@@UAEPAXPBD@Z 00525d80 f   moc_sizeposeditimpl.obj
 0002:000b7df0       ?qt_invoke@sizePosEdit@@UAE_NHPAUQUObject@@@Z 00525df0 f   moc_sizeposeditimpl.obj
 0002:000b7e70       ?qt_emit@sizePosEdit@@UAE_NHPAUQUObject@@@Z 00525e70 f   moc_sizeposeditimpl.obj
 0002:000b7ec0       ?qt_property@sizePosEdit@@UAE_NHHPAVQVariant@@@Z 00525ec0 f   moc_sizeposeditimpl.obj
 0002:000b7f10       ?qt_static_property@sizePosEdit@@SA_NPAVQObject@@HHPAVQVariant@@@Z 00525f10 f   moc_sizeposeditimpl.obj
 0002:000b7f40       ?staticMetaObject@sizePosEdit@@SAPAVQMetaObject@@XZ 00525f40 f   moc_sizeposeditimpl.obj
 0002:000b7fe0       ?tr@sizePosEdit@@SA?AVQString@@PBD0@Z 00525fe0 f   moc_sizeposeditimpl.obj
 0002:000b80a0       ?trUtf8@sizePosEdit@@SA?AVQString@@PBD0@Z 005260a0 f   moc_sizeposeditimpl.obj
 0002:000b8260       ?className@testSettingsBase@@UBEPBDXZ 00526260 f   moc_testsettings.obj
 0002:000b8290       ?qt_cast@testSettingsBase@@UAEPAXPBD@Z 00526290 f   moc_testsettings.obj
 0002:000b8310       ?qt_invoke@testSettingsBase@@UAE_NHPAUQUObject@@@Z 00526310 f   moc_testsettings.obj
 0002:000b83b0       ?qt_emit@testSettingsBase@@UAE_NHPAUQUObject@@@Z 005263b0 f   moc_testsettings.obj
 0002:000b8410       ?qt_property@testSettingsBase@@UAE_NHHPAVQVariant@@@Z 00526410 f   moc_testsettings.obj
 0002:000b8470       ?qt_static_property@testSettingsBase@@SA_NPAVQObject@@HHPAVQVariant@@@Z 00526470 f   moc_testsettings.obj
 0002:000b84a0       ?staticMetaObject@testSettingsBase@@SAPAVQMetaObject@@XZ 005264a0 f   moc_testsettings.obj
 0002:000b8550       ?tr@testSettingsBase@@SA?AVQString@@PBD0@Z 00526550 f   moc_testsettings.obj
 0002:000b8610       ?trUtf8@testSettingsBase@@SA?AVQString@@PBD0@Z 00526610 f   moc_testsettings.obj
 0002:000b87e0       ?className@testSettings@@UBEPBDXZ 005267e0 f   moc_testsettingsimpl.obj
 0002:000b8810       ?qt_cast@testSettings@@UAEPAXPBD@Z 00526810 f   moc_testsettingsimpl.obj
 0002:000b8880       ?qt_invoke@testSettings@@UAE_NHPAUQUObject@@@Z 00526880 f   moc_testsettingsimpl.obj
 0002:000b88d0       ?qt_emit@testSettings@@UAE_NHPAUQUObject@@@Z 005268d0 f   moc_testsettingsimpl.obj
 0002:000b8920       ?qt_property@testSettings@@UAE_NHHPAVQVariant@@@Z 00526920 f   moc_testsettingsimpl.obj
 0002:000b8970       ?qt_static_property@testSettings@@SA_NPAVQObject@@HHPAVQVariant@@@Z 00526970 f   moc_testsettingsimpl.obj
 0002:000b89a0       ?staticMetaObject@testSettings@@SAPAVQMetaObject@@XZ 005269a0 f   moc_testsettingsimpl.obj
 0002:000b8a40       ?tr@testSettings@@SA?AVQString@@PBD0@Z 00526a40 f   moc_testsettingsimpl.obj
 0002:000b8b00       ?trUtf8@testSettings@@SA?AVQString@@PBD0@Z 00526b00 f   moc_testsettingsimpl.obj
 0002:000b8cb0       ?className@textedit@@UBEPBDXZ 00526cb0 f   moc_textedit.obj
 0002:000b8ce0       ?qt_cast@textedit@@UAEPAXPBD@Z 00526ce0 f   moc_textedit.obj
 0002:000b8d60       ?qt_invoke@textedit@@UAE_NHPAUQUObject@@@Z 00526d60 f   moc_textedit.obj
 0002:000b8f60       ?qt_emit@textedit@@UAE_NHPAUQUObject@@@Z 00526f60 f   moc_textedit.obj
 0002:000b8fc0       ?qt_property@textedit@@UAE_NHHPAVQVariant@@@Z 00526fc0 f   moc_textedit.obj
 0002:000b9020       ?qt_static_property@textedit@@SA_NPAVQObject@@HHPAVQVariant@@@Z 00527020 f   moc_textedit.obj
 0002:000b9050       ?staticMetaObject@textedit@@SAPAVQMetaObject@@XZ 00527050 f   moc_textedit.obj
 0002:000b9220       ?tr@textedit@@SA?AVQString@@PBD0@Z 00527220 f   moc_textedit.obj
 0002:000b92e0       ?trUtf8@textedit@@SA?AVQString@@PBD0@Z 005272e0 f   moc_textedit.obj
 0002:000b9550       ?className@vis_ed_mdi@@UBEPBDXZ 00527550 f   moc_vis_ed_mdi.obj
 0002:000b9580       ?qt_cast@vis_ed_mdi@@UAEPAXPBD@Z 00527580 f   moc_vis_ed_mdi.obj
 0002:000b9600       ?qt_invoke@vis_ed_mdi@@UAE_NHPAUQUObject@@@Z 00527600 f   moc_vis_ed_mdi.obj
 0002:000b9a60       ?qt_emit@vis_ed_mdi@@UAE_NHPAUQUObject@@@Z 00527a60 f   moc_vis_ed_mdi.obj
 0002:000b9b30       ?qt_property@vis_ed_mdi@@UAE_NHHPAVQVariant@@@Z 00527b30 f   moc_vis_ed_mdi.obj
 0002:000b9b90       ?qt_static_property@vis_ed_mdi@@SA_NPAVQObject@@HHPAVQVariant@@@Z 00527b90 f   moc_vis_ed_mdi.obj
 0002:000b9bc0       ?staticMetaObject@vis_ed_mdi@@SAPAVQMetaObject@@XZ 00527bc0 f   moc_vis_ed_mdi.obj
 0002:000b9f80       ?tr@vis_ed_mdi@@SA?AVQString@@PBD0@Z 00527f80 f   moc_vis_ed_mdi.obj
 0002:000ba040       ?trUtf8@vis_ed_mdi@@SA?AVQString@@PBD0@Z 00528040 f   moc_vis_ed_mdi.obj
 0002:000ba100       ?save@vis_ed_mdi@@IAEXXZ   00528100 f   moc_vis_ed_mdi.obj
 0002:000ba160       ?gotoidentifier@vis_ed_mdi@@IAEXAAVQString@@@Z 00528160 f   moc_vis_ed_mdi.obj
 0002:000ba2f0       ?saveas@vis_ed_mdi@@IAEXXZ 005282f0 f   moc_vis_ed_mdi.obj
 0002:000ba6e0       ?className@vis_ed_toolbars@@UBEPBDXZ 005286e0 f   moc_vis_ed_toolbars.obj
 0002:000ba710       ?qt_cast@vis_ed_toolbars@@UAEPAXPBD@Z 00528710 f   moc_vis_ed_toolbars.obj
 0002:000ba790       ?qt_invoke@vis_ed_toolbars@@UAE_NHPAUQUObject@@@Z 00528790 f   moc_vis_ed_toolbars.obj
 0002:000ba9c0       ?qt_emit@vis_ed_toolbars@@UAE_NHPAUQUObject@@@Z 005289c0 f   moc_vis_ed_toolbars.obj
 0002:000baa20       ?qt_property@vis_ed_toolbars@@UAE_NHHPAVQVariant@@@Z 00528a20 f   moc_vis_ed_toolbars.obj
 0002:000baa80       ?qt_static_property@vis_ed_toolbars@@SA_NPAVQObject@@HHPAVQVariant@@@Z 00528a80 f   moc_vis_ed_toolbars.obj
 0002:000baab0       ?staticMetaObject@vis_ed_toolbars@@SAPAVQMetaObject@@XZ 00528ab0 f   moc_vis_ed_toolbars.obj
 0002:000bad20       ?tr@vis_ed_toolbars@@SA?AVQString@@PBD0@Z 00528d20 f   moc_vis_ed_toolbars.obj
 0002:000bade0       ?trUtf8@vis_ed_toolbars@@SA?AVQString@@PBD0@Z 00528de0 f   moc_vis_ed_toolbars.obj
 0002:000bb080       ?className@vis_ed_widget@@UBEPBDXZ 00529080 f   moc_vis_ed_widget.obj
 0002:000bb0b0       ?qt_cast@vis_ed_widget@@UAEPAXPBD@Z 005290b0 f   moc_vis_ed_widget.obj
 0002:000bb130       ?qt_invoke@vis_ed_widget@@UAE_NHPAUQUObject@@@Z 00529130 f   moc_vis_ed_widget.obj
 0002:000bb890       ?qt_emit@vis_ed_widget@@UAE_NHPAUQUObject@@@Z 00529890 f   moc_vis_ed_widget.obj
 0002:000bbdd0       ?qt_property@vis_ed_widget@@UAE_NHHPAVQVariant@@@Z 00529dd0 f   moc_vis_ed_widget.obj
 0002:000bbe30       ?qt_static_property@vis_ed_widget@@SA_NPAVQObject@@HHPAVQVariant@@@Z 00529e30 f   moc_vis_ed_widget.obj
 0002:000bbe60       ?staticMetaObject@vis_ed_widget@@SAPAVQMetaObject@@XZ 00529e60 f   moc_vis_ed_widget.obj
 0002:000bc710       ?tr@vis_ed_widget@@SA?AVQString@@PBD0@Z 0052a710 f   moc_vis_ed_widget.obj
 0002:000bc7d0       ?trUtf8@vis_ed_widget@@SA?AVQString@@PBD0@Z 0052a7d0 f   moc_vis_ed_widget.obj
 0002:000bc890       ?edit@vis_ed_widget@@IAEXPA_N0@Z 0052a890 f   moc_vis_ed_widget.obj
 0002:000bca10       ?scriptedit@vis_ed_widget@@IAEXVQString@@0@Z 0052aa10 f   moc_vis_ed_widget.obj
 0002:000bcc20       ?caption@vis_ed_widget@@IAEXAAVQString@@@Z 0052ac20 f   moc_vis_ed_widget.obj
 0002:000bcdb0       ?widgetAdded@vis_ed_widget@@IAEXABVQString@@0@Z 0052adb0 f   moc_vis_ed_widget.obj
 0002:000bcf30       ?widgetRemoved@vis_ed_widget@@IAEXABVQString@@@Z 0052af30 f   moc_vis_ed_widget.obj
 0002:000bd000       ?widgetRenamed@vis_ed_widget@@IAEXABVQString@@0@Z 0052b000 f   moc_vis_ed_widget.obj
 0002:000bd180       ?statusBarMessage@vis_ed_widget@@IAEXABVQString@@@Z 0052b180 f   moc_vis_ed_widget.obj
 0002:000bd250       ?aboutToSaveAs@vis_ed_widget@@IAEXABVQString@@@Z 0052b250 f   moc_vis_ed_widget.obj
 0002:000bd320       ?loadScript@vis_ed_widget@@IAEXABVQString@@@Z 0052b320 f   moc_vis_ed_widget.obj
 0002:000bd3f0       ?comboBoxesMessage@vis_ed_widget@@IAEXABVQString@@@Z 0052b3f0 f   moc_vis_ed_widget.obj
 0002:000bd4c0       ?showStylesheetBrowser@vis_ed_widget@@IAEXPA_NABVQString@@@Z 0052b4c0 f   moc_vis_ed_widget.obj
 0002:000bd640       ?itemsSelected@vis_ed_widget@@IAEXH@Z 0052b640 f   moc_vis_ed_widget.obj
 0002:000bd6b0       ?undoAvailable@vis_ed_widget@@IAEX_NABVQString@@@Z 0052b6b0 f   moc_vis_ed_widget.obj
 0002:000bd840       ?redoAvailable@vis_ed_widget@@IAEX_NABVQString@@@Z 0052b840 f   moc_vis_ed_widget.obj
 0002:000bd9d0       ?pasteWidgetAvailable@vis_ed_widget@@IAEX_N@Z 0052b9d0 f   moc_vis_ed_widget.obj
 0002:000bda40       ?pasteSettingsAvailable@vis_ed_widget@@IAEX_N@Z 0052ba40 f   moc_vis_ed_widget.obj
 0002:000bdab0       ?scriptOpenExplorerAvailable@vis_ed_widget@@IAEX_N@Z 0052bab0 f   moc_vis_ed_widget.obj
 0002:000bdb20       ?scriptOpenVisEdAvailable@vis_ed_widget@@IAEX_N@Z 0052bb20 f   moc_vis_ed_widget.obj
 0002:000be650       ?className@xml_listview@@UBEPBDXZ 0052c650 f   moc_xml_listview.obj
 0002:000be680       ?qt_cast@xml_listview@@UAEPAXPBD@Z 0052c680 f   moc_xml_listview.obj
 0002:000be700       ?qt_invoke@xml_listview@@UAE_NHPAUQUObject@@@Z 0052c700 f   moc_xml_listview.obj
 0002:000be760       ?qt_emit@xml_listview@@UAE_NHPAUQUObject@@@Z 0052c760 f   moc_xml_listview.obj
 0002:000be810       ?qt_property@xml_listview@@UAE_NHHPAVQVariant@@@Z 0052c810 f   moc_xml_listview.obj
 0002:000be870       ?qt_static_property@xml_listview@@SA_NPAVQObject@@HHPAVQVariant@@@Z 0052c870 f   moc_xml_listview.obj
 0002:000be8a0       ?staticMetaObject@xml_listview@@SAPAVQMetaObject@@XZ 0052c8a0 f   moc_xml_listview.obj
 0002:000be990       ?tr@xml_listview@@SA?AVQString@@PBD0@Z 0052c990 f   moc_xml_listview.obj
 0002:000bea50       ?trUtf8@xml_listview@@SA?AVQString@@PBD0@Z 0052ca50 f   moc_xml_listview.obj
 0002:000beb10       ?startDrag@xml_listview@@IAEXPAVQListViewItem@@@Z 0052cb10 f   moc_xml_listview.obj
 0002:000bee00       ??0objectViewBase@@QAE@PAVQWidget@@PBD_NI@Z 0052ce00 f   objectview.obj
 0002:000bf720       ??1objectViewBase@@UAE@XZ  0052d720 f   objectview.obj
 0002:000bf780       ?languageChange@objectViewBase@@MAEXXZ 0052d780 f   objectview.obj
 0002:000bfc8e       ??_EQListBox@@WCI@AEPAXI@Z 0052dc8e f i objectview.obj
 0002:000bfc98       ??_EobjectViewBase@@WCI@AEPAXI@Z 0052dc98 f i objectview.obj
 0002:000bfcb0       ??_EQListBox@@UAEPAXI@Z    0052dcb0 f i objectview.obj
 0002:000bfcb0       ??_GQListBox@@UAEPAXI@Z    0052dcb0 f i objectview.obj
 0002:000bfd30       ??_EobjectViewBase@@UAEPAXI@Z 0052dd30 f i objectview.obj
 0002:000bfd30       ??_GobjectViewBase@@UAEPAXI@Z 0052dd30 f i objectview.obj
 0002:000bfda0       ?metaObject@objectViewBase@@UBEPAVQMetaObject@@XZ 0052dda0 f i objectview.obj
 0002:000bfdf0       ??0signalConnectionListDlg@@QAE@PAVQWidget@@PBD_NI@Z 0052ddf0 f   signalConnectionListDlg.obj
 0002:000c09f0       ??1signalConnectionListDlg@@UAE@XZ 0052e9f0 f   signalConnectionListDlg.obj
 0002:000c0af0       ?languageChange@signalConnectionListDlg@@MAEXXZ 0052eaf0 f   signalConnectionListDlg.obj
 0002:000c1400       ??_EsignalConnectionListDlg@@WCI@AEPAXI@Z 0052f400 f i signalConnectionListDlg.obj
 0002:000c1410       ??_GsignalConnectionListDlg@@UAEPAXI@Z 0052f410 f i signalConnectionListDlg.obj
 0002:000c1410       ??_EsignalConnectionListDlg@@UAEPAXI@Z 0052f410 f i signalConnectionListDlg.obj
 0002:000c1480       ?metaObject@signalConnectionListDlg@@UBEPAVQMetaObject@@XZ 0052f480 f i signalConnectionListDlg.obj
 0002:000c14d0       ??0sizePosEditBase@@QAE@PAVQWidget@@PBD_NI@Z 0052f4d0 f   sizeposedit.obj
 0002:000c2690       ??1sizePosEditBase@@UAE@XZ 00530690 f   sizeposedit.obj
 0002:000c26f0       ?languageChange@sizePosEditBase@@MAEXXZ 005306f0 f   sizeposedit.obj
 0002:000c31d8       ??_EsizePosEditBase@@WCI@AEPAXI@Z 005311d8 f i sizeposedit.obj
 0002:000c31f0       ??_GsizePosEditBase@@UAEPAXI@Z 005311f0 f i sizeposedit.obj
 0002:000c31f0       ??_EsizePosEditBase@@UAEPAXI@Z 005311f0 f i sizeposedit.obj
 0002:000c3260       ?metaObject@sizePosEditBase@@UBEPAVQMetaObject@@XZ 00531260 f i sizeposedit.obj
 0002:000c32b0       ??0QtSingleApplication@@QAE@ABVQString@@AAHPAPADW4Type@QApplication@@@Z 005312b0 f   qtsingleapplicationdb:qtsingleapplication.obj
 0002:000c33d0       ??1QtSingleApplication@@UAE@XZ 005313d0 f   qtsingleapplicationdb:qtsingleapplication.obj
 0002:000c34b0       ?id@QtSingleApplication@@QBE?AVQString@@XZ 005314b0 f   qtsingleapplicationdb:qtsingleapplication.obj
 0002:000c3520       ?activateMainWidget@QtSingleApplication@@UAEXXZ 00531520 f   qtsingleapplicationdb:qtsingleapplication.obj
 0002:000c3660       ??0QtSingletonPrivate@@QAE@XZ 00531660 f i qtsingleapplicationdb:qtsingleapplication.obj
 0002:000c36c0       ??1QtSingletonPrivate@@QAE@XZ 005316c0 f i qtsingleapplicationdb:qtsingleapplication.obj
 0002:000c3720       ??_GQtSingleApplication@@UAEPAXI@Z 00531720 f i qtsingleapplicationdb:qtsingleapplication.obj
 0002:000c3720       ??_EQtSingleApplication@@UAEPAXI@Z 00531720 f i qtsingleapplicationdb:qtsingleapplication.obj
 0002:000c3790       ??_GQtSingletonPrivate@@QAEPAXI@Z 00531790 f i qtsingleapplicationdb:qtsingleapplication.obj
 0002:000c3800       ?metaObject@QtSingleApplication@@UBEPAVQMetaObject@@XZ 00531800 f i qtsingleapplicationdb:qtsingleapplication.obj
 0002:000c3850       ?isRunning@QtSingleApplication@@QBE_NXZ 00531850 f   qtsingleapplicationdb:qtsingleapplication_win.obj
 0002:000c3990       ?initialize@QtSingleApplication@@QAEX_N@Z 00531990 f   qtsingleapplicationdb:qtsingleapplication_win.obj
 0002:000c3b50       ?winEventFilter@QtSingleApplication@@MAE_NPAUtagMSG@@@Z 00531b50 f   qtsingleapplicationdb:qtsingleapplication_win.obj
 0002:000c3c80       ?sendMessage@QtSingleApplication@@QAE_NABVQString@@H@Z 00531c80 f   qtsingleapplicationdb:qtsingleapplication_win.obj
 0002:000c3e70       ?sysInit@QtSingleApplication@@AAEXXZ 00531e70 f   qtsingleapplicationdb:qtsingleapplication_win.obj
 0002:000c3ed0       ?sysCleanup@QtSingleApplication@@AAEXXZ 00531ed0 f   qtsingleapplicationdb:qtsingleapplication_win.obj
 0002:000c40d6       ??_EQWidget@@WCI@AEPAXI@Z  005320d6 f i qtsingleapplicationdb:qtsingleapplication_win.obj
 0002:000c40e0       ??_EQWidget@@UAEPAXI@Z     005320e0 f i qtsingleapplicationdb:qtsingleapplication_win.obj
 0002:000c40e0       ??_GQWidget@@UAEPAXI@Z     005320e0 f i qtsingleapplicationdb:qtsingleapplication_win.obj
 0002:000c4160       ?className@QtSingleApplication@@UBEPBDXZ 00532160 f   qtsingleapplicationdb:moc_qtsingleapplication.obj
 0002:000c4190       ?qt_cast@QtSingleApplication@@UAEPAXPBD@Z 00532190 f   qtsingleapplicationdb:moc_qtsingleapplication.obj
 0002:000c4210       ?qt_invoke@QtSingleApplication@@UAE_NHPAUQUObject@@@Z 00532210 f   qtsingleapplicationdb:moc_qtsingleapplication.obj
 0002:000c4370       ?qt_emit@QtSingleApplication@@UAE_NHPAUQUObject@@@Z 00532370 f   qtsingleapplicationdb:moc_qtsingleapplication.obj
 0002:000c4420       ?qt_property@QtSingleApplication@@UAE_NHHPAVQVariant@@@Z 00532420 f   qtsingleapplicationdb:moc_qtsingleapplication.obj
 0002:000c4480       ?qt_static_property@QtSingleApplication@@SA_NPAVQObject@@HHPAVQVariant@@@Z 00532480 f   qtsingleapplicationdb:moc_qtsingleapplication.obj
 0002:000c44b0       ?staticMetaObject@QtSingleApplication@@SAPAVQMetaObject@@XZ 005324b0 f   qtsingleapplicationdb:moc_qtsingleapplication.obj
 0002:000c4680       ?tr@QtSingleApplication@@SA?AVQString@@PBD0@Z 00532680 f   qtsingleapplicationdb:moc_qtsingleapplication.obj
 0002:000c4740       ?trUtf8@QtSingleApplication@@SA?AVQString@@PBD0@Z 00532740 f   qtsingleapplicationdb:moc_qtsingleapplication.obj
 0002:000c4800       ?messageReceived@QtSingleApplication@@IAEXABVQString@@@Z 00532800 f   qtsingleapplicationdb:moc_qtsingleapplication.obj
 0002:000c4a96       ?enableCache@dCW@@SAX_N@Z  00532a96 f   dcwdb:dcwdb.dll
 0002:000c4a9c       ?setDesignTime@dCW@@SAX_N@Z 00532a9c f   dcwdb:dcwdb.dll
 0002:000c4aa2       ??0dCW@@QAE@XZ             00532aa2 f   dcwdb:dcwdb.dll
 0002:000c4aa8       ?create@dCW@@QAEPAVQWidget@@ABVQString@@PAVQObject@@PAV2@PBD_N4NN44@Z 00532aa8 f   dcwdb:dcwdb.dll
 0002:000c4aae       ??1dCW@@UAE@XZ             00532aae f   dcwdb:dcwdb.dll
 0002:000c4ab4       ?connectionList@bncs_client_runtime@@QAEABVsignalConnectionRefList@@XZ 00532ab4 f   dcwdb:dcwdb.dll
 0002:000c4aba       ?parseXML@dCW@@QAEPAVQWidget@@AAVQDomDocument@@PAV2@VQPoint@@_N3VQString@@@Z 00532aba f   dcwdb:dcwdb.dll
 0002:000c4ac0       ?checkNameUnique@dCW@@SA_NPAVQWidget@@ABVQString@@AAV3@@Z 00532ac0 f   dcwdb:dcwdb.dll
 0002:000c4ac6       ?parseXML@dCW@@QAEPAVQWidget@@AAVQDomDocument@@PAV2@VQPoint@@_N33VQString@@@Z 00532ac6 f   dcwdb:dcwdb.dll
 0002:000c4acc       ?connectionList@dCW@@QAE?AVsignalConnectionRefList@@XZ 00532acc f   dcwdb:dcwdb.dll
 0002:000c4ad2       ?qDebug@@YAXPBDZZ          00532ad2 f   qt-mt323:qt-mt323.dll
 0002:000c4ad8       ??0QString@@QAE@XZ         00532ad8 f   qt-mt323:qt-mt323.dll
 0002:000c4ade       ??0QString@@QAE@ABV0@@Z    00532ade f   qt-mt323:qt-mt323.dll
 0002:000c4ae4       ??0QString@@QAE@PBD@Z      00532ae4 f   qt-mt323:qt-mt323.dll
 0002:000c4aea       ??1QString@@QAE@XZ         00532aea f   qt-mt323:qt-mt323.dll
 0002:000c4af0       ??4QString@@QAEAAV0@ABV0@@Z 00532af0 f   qt-mt323:qt-mt323.dll
 0002:000c4af6       ??4QString@@QAEAAV0@PBD@Z  00532af6 f   qt-mt323:qt-mt323.dll
 0002:000c4afc       ?length@QString@@QBEIXZ    00532afc f   qt-mt323:qt-mt323.dll
 0002:000c4b02       ?arg@QString@@QBE?AV1@ABV1@H@Z 00532b02 f   qt-mt323:qt-mt323.dll
 0002:000c4b08       ?left@QString@@QBE?AV1@I@Z 00532b08 f   qt-mt323:qt-mt323.dll
 0002:000c4b0e       ?prepend@QString@@QAEAAV1@PBD@Z 00532b0e f   qt-mt323:qt-mt323.dll
 0002:000c4b14       ?replace@QString@@QAEAAV1@ABV1@0@Z 00532b14 f   qt-mt323:qt-mt323.dll
 0002:000c4b1a       ?toInt@QString@@QBEHPA_NH@Z 00532b1a f   qt-mt323:qt-mt323.dll
 0002:000c4b20       ??YQString@@QAEAAV0@ABV0@@Z 00532b20 f   qt-mt323:qt-mt323.dll
 0002:000c4b26       ??YQString@@QAEAAV0@PBD@Z  00532b26 f   qt-mt323:qt-mt323.dll
 0002:000c4b2c       ??BQString@@QBEPBDXZ       00532b2c f   qt-mt323:qt-mt323.dll
 0002:000c4b32       ??8@YA_NABVQString@@0@Z    00532b32 f   qt-mt323:qt-mt323.dll
 0002:000c4b38       ??9@YA_NABVQString@@PBD@Z  00532b38 f   qt-mt323:qt-mt323.dll
 0002:000c4b3e       ??8@YA_NABVQString@@PBD@Z  00532b3e f   qt-mt323:qt-mt323.dll
 0002:000c4b44       ??H@YA?BVQString@@ABV0@0@Z 00532b44 f   qt-mt323:qt-mt323.dll
 0002:000c4b4a       ??H@YA?BVQString@@ABV0@PBD@Z 00532b4a f   qt-mt323:qt-mt323.dll
 0002:000c4b50       ??H@YA?BVQString@@PBDABV0@@Z 00532b50 f   qt-mt323:qt-mt323.dll
 0002:000c4b56       ??0QTextStream@@QAE@PAVQIODevice@@@Z 00532b56 f   qt-mt323:qt-mt323.dll
 0002:000c4b5c       ??0QTextStream@@QAE@PAVQString@@H@Z 00532b5c f   qt-mt323:qt-mt323.dll
 0002:000c4b62       ??1QTextStream@@UAE@XZ     00532b62 f   qt-mt323:qt-mt323.dll
 0002:000c4b68       ??6QTextStream@@QAEAAV0@PBD@Z 00532b68 f   qt-mt323:qt-mt323.dll
 0002:000c4b6e       ??6QTextStream@@QAEAAV0@ABVQString@@@Z 00532b6e f   qt-mt323:qt-mt323.dll
 0002:000c4b74       ??6@YAAAVQTextStream@@AAV0@P6AAAV0@0@Z@Z 00532b74 f   qt-mt323:qt-mt323.dll
 0002:000c4b7a       ?endl@@YAAAVQTextStream@@AAV1@@Z 00532b7a f   qt-mt323:qt-mt323.dll
 0002:000c4b80       ?dragCopy@QDragObject@@QAEXXZ 00532b80 f   qt-mt323:qt-mt323.dll
 0002:000c4b86       ??0QTextDrag@@QAE@ABVQString@@PAVQWidget@@PBD@Z 00532b86 f   qt-mt323:qt-mt323.dll
 0002:000c4b8c       ??1QTextDrag@@UAE@XZ       00532b8c f   qt-mt323:qt-mt323.dll
 0002:000c4b92       ?warning@QMessageBox@@SAHPAVQWidget@@ABVQString@@1111HH@Z 00532b92 f   qt-mt323:qt-mt323.dll
 0002:000c4b98       ??4QDomNode@@QAEAAV0@ABV0@@Z 00532b98 f   qt-mt323:qt-mt323.dll
 0002:000c4b9e       ??1QDomNode@@UAE@XZ        00532b9e f   qt-mt323:qt-mt323.dll
 0002:000c4ba4       ?appendChild@QDomNode@@UAE?AV1@ABV1@@Z 00532ba4 f   qt-mt323:qt-mt323.dll
 0002:000c4baa       ?firstChild@QDomNode@@UBE?AV1@XZ 00532baa f   qt-mt323:qt-mt323.dll
 0002:000c4bb0       ?nextSibling@QDomNode@@UBE?AV1@XZ 00532bb0 f   qt-mt323:qt-mt323.dll
 0002:000c4bb6       ?isNull@QDomNode@@QBE_NXZ  00532bb6 f   qt-mt323:qt-mt323.dll
 0002:000c4bbc       ?toElement@QDomNode@@QAE?AVQDomElement@@XZ 00532bbc f   qt-mt323:qt-mt323.dll
 0002:000c4bc2       ??0QDomDocument@@QAE@XZ    00532bc2 f   qt-mt323:qt-mt323.dll
 0002:000c4bc8       ??0QDomDocument@@QAE@ABVQString@@@Z 00532bc8 f   qt-mt323:qt-mt323.dll
 0002:000c4bce       ??1QDomDocument@@UAE@XZ    00532bce f   qt-mt323:qt-mt323.dll
 0002:000c4bd4       ?createElement@QDomDocument@@QAE?AVQDomElement@@ABVQString@@@Z 00532bd4 f   qt-mt323:qt-mt323.dll
 0002:000c4bda       ?documentElement@QDomDocument@@QBE?AVQDomElement@@XZ 00532bda f   qt-mt323:qt-mt323.dll
 0002:000c4be0       ?setContent@QDomDocument@@QAE_NABVQString@@_NPAV2@PAH3@Z 00532be0 f   qt-mt323:qt-mt323.dll
 0002:000c4be6       ?setContent@QDomDocument@@QAE_NPAVQIODevice@@_NPAVQString@@PAH3@Z 00532be6 f   qt-mt323:qt-mt323.dll
 0002:000c4bec       ?setContent@QDomDocument@@QAE_NPAVQIODevice@@PAVQString@@PAH2@Z 00532bec f   qt-mt323:qt-mt323.dll
 0002:000c4bf2       ?toString@QDomDocument@@QBE?AVQString@@XZ 00532bf2 f   qt-mt323:qt-mt323.dll
 0002:000c4bf8       ??0QDomElement@@QAE@XZ     00532bf8 f   qt-mt323:qt-mt323.dll
 0002:000c4bfe       ??0QDomElement@@QAE@ABV0@@Z 00532bfe f   qt-mt323:qt-mt323.dll
 0002:000c4c04       ??4QDomElement@@QAEAAV0@ABV0@@Z 00532c04 f   qt-mt323:qt-mt323.dll
 0002:000c4c0a       ??1QDomElement@@UAE@XZ     00532c0a f   qt-mt323:qt-mt323.dll
 0002:000c4c10       ?attribute@QDomElement@@QBE?AVQString@@ABV2@0@Z 00532c10 f   qt-mt323:qt-mt323.dll
 0002:000c4c16       ?setAttribute@QDomElement@@QAEXABVQString@@0@Z 00532c16 f   qt-mt323:qt-mt323.dll
 0002:000c4c1c       ?hasAttribute@QDomElement@@QBE_NABVQString@@@Z 00532c1c f   qt-mt323:qt-mt323.dll
 0002:000c4c22       ?tagName@QDomElement@@QBE?AVQString@@XZ 00532c22 f   qt-mt323:qt-mt323.dll
 0002:000c4c28       ??6@YAAAVQTextStream@@AAV0@ABVQDomNode@@@Z 00532c28 f   qt-mt323:qt-mt323.dll
 0002:000c4c2e       ??0QFile@@QAE@ABVQString@@@Z 00532c2e f   qt-mt323:qt-mt323.dll
 0002:000c4c34       ??1QFile@@UAE@XZ           00532c34 f   qt-mt323:qt-mt323.dll
 0002:000c4c3a       ?open@QFile@@UAE_NH@Z      00532c3a f   qt-mt323:qt-mt323.dll
 0002:000c4c40       ?close@QFile@@UAEXXZ       00532c40 f   qt-mt323:qt-mt323.dll
 0002:000c4c46       ?checkConnectArgs@QObject@@MAE_NPBDPBV1@0@Z 00532c46 f   qt-mt323:qt-mt323.dll
 0002:000c4c4c       ?childEvent@QObject@@MAEXPAVQChildEvent@@@Z 00532c4c f   qt-mt323:qt-mt323.dll
 0002:000c4c52       ?className@QTextDrag@@UBEPBDXZ 00532c52 f   qt-mt323:qt-mt323.dll
 0002:000c4c58       ?connectNotify@QObject@@MAEXPBD@Z 00532c58 f   qt-mt323:qt-mt323.dll
 0002:000c4c5e       ?customEvent@QObject@@MAEXPAVQCustomEvent@@@Z 00532c5e f   qt-mt323:qt-mt323.dll
 0002:000c4c64       ?disconnectNotify@QObject@@MAEXPBD@Z 00532c64 f   qt-mt323:qt-mt323.dll
 0002:000c4c6a       ?drag@QDragObject@@MAE_NW4DragMode@1@@Z 00532c6a f   qt-mt323:qt-mt323.dll
 0002:000c4c70       ?encodedData@QTextDrag@@UBE?AV?$QMemArray@D@@PBD@Z 00532c70 f   qt-mt323:qt-mt323.dll
 0002:000c4c76       ?event@QObject@@UAE_NPAVQEvent@@@Z 00532c76 f   qt-mt323:qt-mt323.dll
 0002:000c4c7c       ?eventFilter@QObject@@UAE_NPAV1@PAVQEvent@@@Z 00532c7c f   qt-mt323:qt-mt323.dll
 0002:000c4c82       ?format@QTextDrag@@UBEPBDH@Z 00532c82 f   qt-mt323:qt-mt323.dll
 0002:000c4c88       ?insertChild@QObject@@UAEXPAV1@@Z 00532c88 f   qt-mt323:qt-mt323.dll
 0002:000c4c8e       ?metaObject@QTextDrag@@UBEPAVQMetaObject@@XZ 00532c8e f   qt-mt323:qt-mt323.dll
 0002:000c4c94       ?property@QObject@@UBE?AVQVariant@@PBD@Z 00532c94 f   qt-mt323:qt-mt323.dll
 0002:000c4c9a       ?provides@QMimeSource@@UBE_NPBD@Z 00532c9a f   qt-mt323:qt-mt323.dll
 0002:000c4ca0       ?qt_cast@QTextDrag@@UAEPAXPBD@Z 00532ca0 f   qt-mt323:qt-mt323.dll
 0002:000c4ca6       ?qt_emit@QTextDrag@@UAE_NHPAUQUObject@@@Z 00532ca6 f   qt-mt323:qt-mt323.dll
 0002:000c4cac       ?qt_invoke@QTextDrag@@UAE_NHPAUQUObject@@@Z 00532cac f   qt-mt323:qt-mt323.dll
 0002:000c4cb2       ?qt_property@QTextDrag@@UAE_NHHPAVQVariant@@@Z 00532cb2 f   qt-mt323:qt-mt323.dll
 0002:000c4cb8       ?removeChild@QObject@@UAEXPAV1@@Z 00532cb8 f   qt-mt323:qt-mt323.dll
 0002:000c4cbe       ?setName@QObject@@UAEXPBD@Z 00532cbe f   qt-mt323:qt-mt323.dll
 0002:000c4cc4       ?setPixmap@QDragObject@@UAEXVQPixmap@@@Z 00532cc4 f   qt-mt323:qt-mt323.dll
 0002:000c4cca       ?setPixmap@QDragObject@@UAEXVQPixmap@@ABVQPoint@@@Z 00532cca f   qt-mt323:qt-mt323.dll
 0002:000c4cd0       ?setProperty@QObject@@UAE_NPBDABVQVariant@@@Z 00532cd0 f   qt-mt323:qt-mt323.dll
 0002:000c4cd6       ?setSubtype@QTextDrag@@UAEXABVQCString@@@Z 00532cd6 f   qt-mt323:qt-mt323.dll
 0002:000c4cdc       ?setText@QTextDrag@@UAEXABVQString@@@Z 00532cdc f   qt-mt323:qt-mt323.dll
 0002:000c4ce2       ?timerEvent@QObject@@MAEXPAVQTimerEvent@@@Z 00532ce2 f   qt-mt323:qt-mt323.dll
 0002:000c4ce8       ??0QChar@@QAE@D@Z          00532ce8 f   qt-mt323:qt-mt323.dll
 0002:000c4cee       ?replace@QString@@QAEAAV1@VQChar@@ABV1@@Z 00532cee f   qt-mt323:qt-mt323.dll
 0002:000c4cf4       ??0QDateTime@@QAE@XZ       00532cf4 f   qt-mt323:qt-mt323.dll
 0002:000c4cfa       ??9QDateTime@@QBE_NABV0@@Z 00532cfa f   qt-mt323:qt-mt323.dll
 0002:000c4d00       ??0QFileInfo@@QAE@ABVQString@@@Z 00532d00 f   qt-mt323:qt-mt323.dll
 0002:000c4d06       ??0QFileInfo@@QAE@ABVQFile@@@Z 00532d06 f   qt-mt323:qt-mt323.dll
 0002:000c4d0c       ??1QFileInfo@@QAE@XZ       00532d0c f   qt-mt323:qt-mt323.dll
 0002:000c4d12       ?lastModified@QFileInfo@@QBE?AVQDateTime@@XZ 00532d12 f   qt-mt323:qt-mt323.dll
 0002:000c4d18       ??A?$QValueList@VQString@@@@QAEAAVQString@@I@Z 00532d18 f   qt-mt323:qt-mt323.dll
 0002:000c4d1e       ?count@?$QValueList@VQString@@@@QBEIXZ 00532d1e f   qt-mt323:qt-mt323.dll
 0002:000c4d24       ?setAutoDelete@QPtrCollection@@QAEX_N@Z 00532d24 f   qt-mt323:qt-mt323.dll
 0002:000c4d2a       ?count@QGList@@UBEIXZ      00532d2a f   qt-mt323:qt-mt323.dll
 0002:000c4d30       ??0QGList@@IAE@XZ          00532d30 f   qt-mt323:qt-mt323.dll
 0002:000c4d36       ??1QGList@@MAE@XZ          00532d36 f   qt-mt323:qt-mt323.dll
 0002:000c4d3c       ?insertAt@QGList@@IAE_NIPAX@Z 00532d3c f   qt-mt323:qt-mt323.dll
 0002:000c4d42       ?takeFirst@QGList@@IAEPAXXZ 00532d42 f   qt-mt323:qt-mt323.dll
 0002:000c4d48       ?clear@QGList@@MAEXXZ      00532d48 f   qt-mt323:qt-mt323.dll
 0002:000c4d4e       ?cfirst@QGList@@IBEPAXXZ   00532d4e f   qt-mt323:qt-mt323.dll
 0002:000c4d54       ?key@QKeyEvent@@QBEHXZ     00532d54 f   qt-mt323:qt-mt323.dll
 0002:000c4d5a       ?state@QKeyEvent@@QBE?AW4ButtonState@Qt@@XZ 00532d5a f   qt-mt323:qt-mt323.dll
 0002:000c4d60       ?connect@QObject@@SA_NPBV1@PBD01@Z 00532d60 f   qt-mt323:qt-mt323.dll
 0002:000c4d66       ?text@QClipboard@@QBE?AVQString@@W4Mode@1@@Z 00532d66 f   qt-mt323:qt-mt323.dll
 0002:000c4d6c       ?text@QClipboard@@QBE?AVQString@@XZ 00532d6c f   qt-mt323:qt-mt323.dll
 0002:000c4d72       ?setText@QClipboard@@QAEXABVQString@@@Z 00532d72 f   qt-mt323:qt-mt323.dll
 0002:000c4d78       ?split@QStringList@@SA?AV1@ABVQString@@0_N@Z 00532d78 f   qt-mt323:qt-mt323.dll
 0002:000c4d7e       ??1QStringList@@QAE@XZ     00532d7e f   qt-mt323:qt-mt323.dll
 0002:000c4d84       ?isActiveWindow@QWidget@@QBE_NXZ 00532d84 f   qt-mt323:qt-mt323.dll
 0002:000c4d8a       ?close@QWidget@@UAE_N_N@Z  00532d8a f   qt-mt323:qt-mt323.dll
 0002:000c4d90       ?clipboard@QApplication@@SAPAVQClipboard@@XZ 00532d90 f   qt-mt323:qt-mt323.dll
 0002:000c4d96       ?insertItem@QMenuData@@QAEHABVQString@@HH@Z 00532d96 f   qt-mt323:qt-mt323.dll
 0002:000c4d9c       ?insertSeparator@QMenuData@@QAEHH@Z 00532d9c f   qt-mt323:qt-mt323.dll
 0002:000c4da2       ??0QPopupMenu@@QAE@PAVQWidget@@PBD@Z 00532da2 f   qt-mt323:qt-mt323.dll
 0002:000c4da8       ??1QPopupMenu@@UAE@XZ      00532da8 f   qt-mt323:qt-mt323.dll
 0002:000c4dae       ?exec@QPopupMenu@@QAEHABVQPoint@@H@Z 00532dae f   qt-mt323:qt-mt323.dll
 0002:000c4db4       ?pos@QCursor@@SA?AVQPoint@@XZ 00532db4 f   qt-mt323:qt-mt323.dll
 0002:000c4dba       ?exec@QDialog@@QAEHXZ      00532dba f   qt-mt323:qt-mt323.dll
 0002:000c4dc0       ??0QMessageBox@@QAE@ABVQString@@0W4Icon@0@HHHPAVQWidget@@PBD_NI@Z 00532dc0 f   qt-mt323:qt-mt323.dll
 0002:000c4dc6       ??1QMessageBox@@UAE@XZ     00532dc6 f   qt-mt323:qt-mt323.dll
 0002:000c4dcc       ?information@QMessageBox@@SAHPAVQWidget@@ABVQString@@1111HH@Z 00532dcc f   qt-mt323:qt-mt323.dll
 0002:000c4dd2       ??0QListViewItem@@QAE@PAVQListView@@VQString@@1111111@Z 00532dd2 f   qt-mt323:qt-mt323.dll
 0002:000c4dd8       ??1QListViewItem@@UAE@XZ   00532dd8 f   qt-mt323:qt-mt323.dll
 0002:000c4dde       ?isSelected@QListViewItem@@QBE_NXZ 00532dde f   qt-mt323:qt-mt323.dll
 0002:000c4de4       ?nextSibling@QListViewItem@@QBEPAV1@XZ 00532de4 f   qt-mt323:qt-mt323.dll
 0002:000c4dea       ??0QListView@@QAE@PAVQWidget@@PBDI@Z 00532dea f   qt-mt323:qt-mt323.dll
 0002:000c4df0       ??1QListView@@UAE@XZ       00532df0 f   qt-mt323:qt-mt323.dll
 0002:000c4df6       ?addColumn@QListView@@UAEHABVQString@@H@Z 00532df6 f   qt-mt323:qt-mt323.dll
 0002:000c4dfc       ?ensureItemVisible@QListView@@QAEXPBVQListViewItem@@@Z 00532dfc f   qt-mt323:qt-mt323.dll
 0002:000c4e02       ?setSelectionMode@QListView@@QAEXW4SelectionMode@1@@Z 00532e02 f   qt-mt323:qt-mt323.dll
 0002:000c4e08       ?currentItem@QListView@@QBEPAVQListViewItem@@XZ 00532e08 f   qt-mt323:qt-mt323.dll
 0002:000c4e0e       ?firstChild@QListView@@QBEPAVQListViewItem@@XZ 00532e0e f   qt-mt323:qt-mt323.dll
 0002:000c4e14       ?setAllColumnsShowFocus@QListView@@UAEX_N@Z 00532e14 f   qt-mt323:qt-mt323.dll
 0002:000c4e1a       ?findItem@QListView@@QBEPAVQListViewItem@@ABVQString@@HI@Z 00532e1a f   qt-mt323:qt-mt323.dll
 0002:000c4e20       ?setDefaultRenameAction@QListView@@UAEXW4RenameAction@1@@Z 00532e20 f   qt-mt323:qt-mt323.dll
 0002:000c4e26       ?keyPressEvent@QListView@@MAEXPAVQKeyEvent@@@Z 00532e26 f   qt-mt323:qt-mt323.dll
 0002:000c4e2c       ?text@QLineEdit@@QBE?AVQString@@XZ 00532e2c f   qt-mt323:qt-mt323.dll
 0002:000c4e32       ?currentText@QComboBox@@QBE?AVQString@@XZ 00532e32 f   qt-mt323:qt-mt323.dll
 0002:000c4e38       ?acceptDrop@QListViewItem@@UBE_NPBVQMimeSource@@@Z 00532e38 f   qt-mt323:qt-mt323.dll
 0002:000c4e3e       ?activate@QListViewItem@@MAEXXZ 00532e3e f   qt-mt323:qt-mt323.dll
 0002:000c4e44       ?addChild@QScrollView@@UAEXPAVQWidget@@HH@Z 00532e44 f   qt-mt323:qt-mt323.dll
 0002:000c4e4a       ?addColumn@QListView@@UAEHABVQIconSet@@ABVQString@@H@Z 00532e4a f   qt-mt323:qt-mt323.dll
 0002:000c4e50       ?adjustSize@QWidget@@UAEXXZ 00532e50 f   qt-mt323:qt-mt323.dll
 0002:000c4e56       ?cancelRename@QListViewItem@@MAEXH@Z 00532e56 f   qt-mt323:qt-mt323.dll
 0002:000c4e5c       ?clear@QListView@@UAEXXZ   00532e5c f   qt-mt323:qt-mt323.dll
 0002:000c4e62       ?clearSelection@QListView@@UAEXXZ 00532e62 f   qt-mt323:qt-mt323.dll
 0002:000c4e68       ?closeEvent@QWidget@@MAEXPAVQCloseEvent@@@Z 00532e68 f   qt-mt323:qt-mt323.dll
 0002:000c4e6e       ?cmd@QPaintDevice@@MAE_NHPAVQPainter@@PATQPDevCmdParam@@@Z 00532e6e f   qt-mt323:qt-mt323.dll
 0002:000c4e74       ?compare@QListViewItem@@UBEHPAV1@H_N@Z 00532e74 f   qt-mt323:qt-mt323.dll
 0002:000c4e7a       ?compareItems@QGList@@MAEHPAX0@Z 00532e7a f   qt-mt323:qt-mt323.dll
 0002:000c4e80       ?contentsContextMenuEvent@QListView@@MAEXPAVQContextMenuEvent@@@Z 00532e80 f   qt-mt323:qt-mt323.dll
 0002:000c4e86       ?contentsDragEnterEvent@QListView@@MAEXPAVQDragEnterEvent@@@Z 00532e86 f   qt-mt323:qt-mt323.dll
 0002:000c4e8c       ?contentsDragLeaveEvent@QListView@@MAEXPAVQDragLeaveEvent@@@Z 00532e8c f   qt-mt323:qt-mt323.dll
 0002:000c4e92       ?contentsDragMoveEvent@QListView@@MAEXPAVQDragMoveEvent@@@Z 00532e92 f   qt-mt323:qt-mt323.dll
 0002:000c4e98       ?contentsDropEvent@QListView@@MAEXPAVQDropEvent@@@Z 00532e98 f   qt-mt323:qt-mt323.dll
 0002:000c4e9e       ?contentsMouseDoubleClickEvent@QListView@@MAEXPAVQMouseEvent@@@Z 00532e9e f   qt-mt323:qt-mt323.dll
 0002:000c4ea4       ?contentsMouseMoveEvent@QListView@@MAEXPAVQMouseEvent@@@Z 00532ea4 f   qt-mt323:qt-mt323.dll
 0002:000c4eaa       ?contentsMousePressEvent@QListView@@MAEXPAVQMouseEvent@@@Z 00532eaa f   qt-mt323:qt-mt323.dll
 0002:000c4eb0       ?contentsMouseReleaseEvent@QListView@@MAEXPAVQMouseEvent@@@Z 00532eb0 f   qt-mt323:qt-mt323.dll
 0002:000c4eb6       ?contentsWheelEvent@QScrollView@@MAEXPAVQWheelEvent@@@Z 00532eb6 f   qt-mt323:qt-mt323.dll
 0002:000c4ebc       ?contextMenuEvent@QScrollView@@MAEXPAVQContextMenuEvent@@@Z 00532ebc f   qt-mt323:qt-mt323.dll
 0002:000c4ec2       ?create@QWidget@@MAEXPAUHWND__@@_N1@Z 00532ec2 f   qt-mt323:qt-mt323.dll
 0002:000c4ec8       ?customWhatsThis@QWidget@@UBE_NXZ 00532ec8 f   qt-mt323:qt-mt323.dll
 0002:000c4ece       ?destroy@QWidget@@MAEX_N0@Z 00532ece f   qt-mt323:qt-mt323.dll
 0002:000c4ed4       ?dragEnterEvent@QWidget@@MAEXPAVQDragEnterEvent@@@Z 00532ed4 f   qt-mt323:qt-mt323.dll
 0002:000c4eda       ?dragEntered@QListViewItem@@MAEXXZ 00532eda f   qt-mt323:qt-mt323.dll
 0002:000c4ee0       ?dragLeaveEvent@QWidget@@MAEXPAVQDragLeaveEvent@@@Z 00532ee0 f   qt-mt323:qt-mt323.dll
 0002:000c4ee6       ?dragLeft@QListViewItem@@MAEXXZ 00532ee6 f   qt-mt323:qt-mt323.dll
 0002:000c4eec       ?dragMoveEvent@QWidget@@MAEXPAVQDragMoveEvent@@@Z 00532eec f   qt-mt323:qt-mt323.dll
 0002:000c4ef2       ?dragObject@QListView@@MAEPAVQDragObject@@XZ 00532ef2 f   qt-mt323:qt-mt323.dll
 0002:000c4ef8       ?drawContents@QScrollView@@EAEXPAVQPainter@@@Z 00532ef8 f   qt-mt323:qt-mt323.dll
 0002:000c4efe       ?drawContents@QScrollView@@MAEXPAVQPainter@@HHHH@Z 00532efe f   qt-mt323:qt-mt323.dll
 0002:000c4f04       ?drawContentsOffset@QListView@@MAEXPAVQPainter@@HHHHHH@Z 00532f04 f   qt-mt323:qt-mt323.dll
 0002:000c4f0a       ?drawFrame@QFrame@@MAEXPAVQPainter@@@Z 00532f0a f   qt-mt323:qt-mt323.dll
 0002:000c4f10       ?dropEvent@QWidget@@MAEXPAVQDropEvent@@@Z 00532f10 f   qt-mt323:qt-mt323.dll
 0002:000c4f16       ?dropped@QListViewItem@@MAEXPAVQDropEvent@@@Z 00532f16 f   qt-mt323:qt-mt323.dll
 0002:000c4f1c       ?enabledChange@QWidget@@MAEX_N@Z 00532f1c f   qt-mt323:qt-mt323.dll
 0002:000c4f22       ?enforceSortOrder@QListViewItem@@MBEXXZ 00532f22 f   qt-mt323:qt-mt323.dll
 0002:000c4f28       ?enterEvent@QWidget@@MAEXPAVQEvent@@@Z 00532f28 f   qt-mt323:qt-mt323.dll
 0002:000c4f2e       ?event@QWidget@@MAE_NPAVQEvent@@@Z 00532f2e f   qt-mt323:qt-mt323.dll
 0002:000c4f34       ?eventFilter@QListView@@UAE_NPAVQObject@@PAVQEvent@@@Z 00532f34 f   qt-mt323:qt-mt323.dll
 0002:000c4f3a       ?focusInEvent@QListView@@MAEXPAVQFocusEvent@@@Z 00532f3a f   qt-mt323:qt-mt323.dll
 0002:000c4f40       ?focusNextPrevChild@QScrollView@@MAE_N_N@Z 00532f40 f   qt-mt323:qt-mt323.dll
 0002:000c4f46       ?focusOutEvent@QListView@@MAEXPAVQFocusEvent@@@Z 00532f46 f   qt-mt323:qt-mt323.dll
 0002:000c4f4c       ?fontChange@QScrollView@@MAEXABVQFont@@@Z 00532f4c f   qt-mt323:qt-mt323.dll
 0002:000c4f52       ?fontInf@QPaintDevice@@MBEHPAVQFont@@H@Z 00532f52 f   qt-mt323:qt-mt323.dll
 0002:000c4f58       ?fontMet@QPaintDevice@@MBEHPAVQFont@@HPBDH@Z 00532f58 f   qt-mt323:qt-mt323.dll
 0002:000c4f5e       ?frameChanged@QScrollView@@MAEXXZ 00532f5e f   qt-mt323:qt-mt323.dll
 0002:000c4f64       ?handle@QPaintDevice@@UBEPAUHDC__@@XZ 00532f64 f   qt-mt323:qt-mt323.dll
 0002:000c4f6a       ?heightForWidth@QWidget@@UBEHH@Z 00532f6a f   qt-mt323:qt-mt323.dll
 0002:000c4f70       ?hide@QWidget@@UAEXXZ      00532f70 f   qt-mt323:qt-mt323.dll
 0002:000c4f76       ?hideEvent@QWidget@@MAEXPAVQHideEvent@@@Z 00532f76 f   qt-mt323:qt-mt323.dll
 0002:000c4f7c       ?imComposeEvent@QWidget@@MAEXPAVQIMEvent@@@Z 00532f7c f   qt-mt323:qt-mt323.dll
 0002:000c4f82       ?imEndEvent@QWidget@@MAEXPAVQIMEvent@@@Z 00532f82 f   qt-mt323:qt-mt323.dll
 0002:000c4f88       ?imStartEvent@QWidget@@MAEXPAVQIMEvent@@@Z 00532f88 f   qt-mt323:qt-mt323.dll
 0002:000c4f8e       ?insertItem@QListView@@UAEXPAVQListViewItem@@@Z 00532f8e f   qt-mt323:qt-mt323.dll
 0002:000c4f94       ?insertItem@QListViewItem@@UAEXPAV1@@Z 00532f94 f   qt-mt323:qt-mt323.dll
 0002:000c4f9a       ?invalidateHeight@QListViewItem@@UAEXXZ 00532f9a f   qt-mt323:qt-mt323.dll
 0002:000c4fa0       ?invertSelection@QListView@@UAEXXZ 00532fa0 f   qt-mt323:qt-mt323.dll
 0002:000c4fa6       ?key@QListViewItem@@UBE?AVQString@@H_N@Z 00532fa6 f   qt-mt323:qt-mt323.dll
 0002:000c4fac       ?keyReleaseEvent@QWidget@@MAEXPAVQKeyEvent@@@Z 00532fac f   qt-mt323:qt-mt323.dll
 0002:000c4fb2       ?leaveEvent@QWidget@@MAEXPAVQEvent@@@Z 00532fb2 f   qt-mt323:qt-mt323.dll
 0002:000c4fb8       ?metric@QWidget@@MBEHH@Z   00532fb8 f   qt-mt323:qt-mt323.dll
 0002:000c4fbe       ?minimumSizeHint@QListView@@UBE?AVQSize@@XZ 00532fbe f   qt-mt323:qt-mt323.dll
 0002:000c4fc4       ?mouseDoubleClickEvent@QScrollView@@MAEXPAVQMouseEvent@@@Z 00532fc4 f   qt-mt323:qt-mt323.dll
 0002:000c4fca       ?mouseMoveEvent@QScrollView@@MAEXPAVQMouseEvent@@@Z 00532fca f   qt-mt323:qt-mt323.dll
 0002:000c4fd0       ?mousePressEvent@QScrollView@@MAEXPAVQMouseEvent@@@Z 00532fd0 f   qt-mt323:qt-mt323.dll
 0002:000c4fd6       ?mouseReleaseEvent@QScrollView@@MAEXPAVQMouseEvent@@@Z 00532fd6 f   qt-mt323:qt-mt323.dll
 0002:000c4fdc       ?move@QWidget@@UAEXHH@Z    00532fdc f   qt-mt323:qt-mt323.dll
 0002:000c4fe2       ?moveChild@QScrollView@@UAEXPAVQWidget@@HH@Z 00532fe2 f   qt-mt323:qt-mt323.dll
 0002:000c4fe8       ?moveEvent@QWidget@@MAEXPAVQMoveEvent@@@Z 00532fe8 f   qt-mt323:qt-mt323.dll
 0002:000c4fee       ?newItem@QPtrCollection@@MAEPAXPAX@Z 00532fee f   qt-mt323:qt-mt323.dll
 0002:000c4ff4       ?okRename@QListViewItem@@MAEXH@Z 00532ff4 f   qt-mt323:qt-mt323.dll
 0002:000c4ffa       ?paintBranches@QListViewItem@@UAEXPAVQPainter@@ABVQColorGroup@@HHH@Z 00532ffa f   qt-mt323:qt-mt323.dll
 0002:000c5000       ?paintCell@QListViewItem@@UAEXPAVQPainter@@ABVQColorGroup@@HHH@Z 00533000 f   qt-mt323:qt-mt323.dll
 0002:000c5006       ?paintEmptyArea@QListView@@MAEXPAVQPainter@@ABVQRect@@@Z 00533006 f   qt-mt323:qt-mt323.dll
 0002:000c500c       ?paintEvent@QFrame@@MAEXPAVQPaintEvent@@@Z 0053300c f   qt-mt323:qt-mt323.dll
 0002:000c5012       ?paintFocus@QListViewItem@@UAEXPAVQPainter@@ABVQColorGroup@@ABVQRect@@@Z 00533012 f   qt-mt323:qt-mt323.dll
 0002:000c5018       ?paletteChange@QWidget@@MAEXABVQPalette@@@Z 00533018 f   qt-mt323:qt-mt323.dll
 0002:000c501e       ?pixmap@QListViewItem@@UBEPBVQPixmap@@H@Z 0053301e f   qt-mt323:qt-mt323.dll
 0002:000c5024       ?polish@QWidget@@UAEXXZ    00533024 f   qt-mt323:qt-mt323.dll
 0002:000c502a       ?read@QGList@@MAEAAVQDataStream@@AAV2@AAPAX@Z 0053302a f   qt-mt323:qt-mt323.dll
 0002:000c5030       ?removeChild@QScrollView@@UAEXPAVQObject@@@Z 00533030 f   qt-mt323:qt-mt323.dll
 0002:000c5036       ?removeColumn@QListView@@UAEXH@Z 00533036 f   qt-mt323:qt-mt323.dll
 0002:000c503c       ?removeItem@QListView@@UAEXPAVQListViewItem@@@Z 0053303c f   qt-mt323:qt-mt323.dll
 0002:000c5042       ?removeItem@QListViewItem@@UAEXPAV1@@Z 00533042 f   qt-mt323:qt-mt323.dll
 0002:000c5048       ?reparent@QWidget@@UAEXPAV1@IABVQPoint@@_N@Z 00533048 f   qt-mt323:qt-mt323.dll
 0002:000c504e       ?resize@QScrollView@@UAEXHH@Z 0053304e f   qt-mt323:qt-mt323.dll
 0002:000c5054       ?resizeContents@QScrollView@@UAEXHH@Z 00533054 f   qt-mt323:qt-mt323.dll
 0002:000c505a       ?resizeEvent@QListView@@MAEXPAVQResizeEvent@@@Z 0053305a f   qt-mt323:qt-mt323.dll
 0002:000c5060       ?resolution@QPaintDevice@@UBEHXZ 00533060 f   qt-mt323:qt-mt323.dll
 0002:000c5066       ?rtti@QListViewItem@@UBEHXZ 00533066 f   qt-mt323:qt-mt323.dll
 0002:000c506c       ?selectAll@QListView@@UAEX_N@Z 0053306c f   qt-mt323:qt-mt323.dll
 0002:000c5072       ?setAcceptDrops@QWidget@@UAEX_N@Z 00533072 f   qt-mt323:qt-mt323.dll
 0002:000c5078       ?setActiveWindow@QWidget@@UAEXXZ 00533078 f   qt-mt323:qt-mt323.dll
 0002:000c507e       ?setAutoMask@QWidget@@UAEX_N@Z 0053307e f   qt-mt323:qt-mt323.dll
 0002:000c5084       ?setBackgroundColor@QWidget@@UAEXABVQColor@@@Z 00533084 f   qt-mt323:qt-mt323.dll
 0002:000c508a       ?setBackgroundMode@QWidget@@UAEXW4BackgroundMode@Qt@@@Z 0053308a f   qt-mt323:qt-mt323.dll
 0002:000c5090       ?setBackgroundOrigin@QWidget@@UAEXW4BackgroundOrigin@1@@Z 00533090 f   qt-mt323:qt-mt323.dll
 0002:000c5096       ?setBackgroundPixmap@QWidget@@UAEXABVQPixmap@@@Z 00533096 f   qt-mt323:qt-mt323.dll
 0002:000c509c       ?setCaption@QWidget@@UAEXABVQString@@@Z 0053309c f   qt-mt323:qt-mt323.dll
 0002:000c50a2       ?setColumnAlignment@QListView@@UAEXHH@Z 005330a2 f   qt-mt323:qt-mt323.dll
 0002:000c50a8       ?setColumnText@QListView@@UAEXHABVQIconSet@@ABVQString@@@Z 005330a8 f   qt-mt323:qt-mt323.dll
 0002:000c50ae       ?setColumnText@QListView@@UAEXHABVQString@@@Z 005330ae f   qt-mt323:qt-mt323.dll
 0002:000c50b4       ?setColumnWidth@QListView@@UAEXHH@Z 005330b4 f   qt-mt323:qt-mt323.dll
 0002:000c50ba       ?setColumnWidthMode@QListView@@UAEXHW4WidthMode@1@@Z 005330ba f   qt-mt323:qt-mt323.dll
 0002:000c50c0       ?setContentsPos@QListView@@UAEXHH@Z 005330c0 f   qt-mt323:qt-mt323.dll
 0002:000c50c6       ?setCornerWidget@QScrollView@@UAEXPAVQWidget@@@Z 005330c6 f   qt-mt323:qt-mt323.dll
 0002:000c50cc       ?setCurrentItem@QListView@@UAEXPAVQListViewItem@@@Z 005330cc f   qt-mt323:qt-mt323.dll
 0002:000c50d2       ?setCursor@QWidget@@UAEXABVQCursor@@@Z 005330d2 f   qt-mt323:qt-mt323.dll
 0002:000c50d8       ?setDragAutoScroll@QScrollView@@UAEX_N@Z 005330d8 f   qt-mt323:qt-mt323.dll
 0002:000c50de       ?setDragEnabled@QListViewItem@@UAEX_N@Z 005330de f   qt-mt323:qt-mt323.dll
 0002:000c50e4       ?setDropEnabled@QListViewItem@@UAEX_N@Z 005330e4 f   qt-mt323:qt-mt323.dll
 0002:000c50ea       ?setEnabled@QListViewItem@@UAEX_N@Z 005330ea f   qt-mt323:qt-mt323.dll
 0002:000c50f0       ?setEnabled@QScrollView@@UAEX_N@Z 005330f0 f   qt-mt323:qt-mt323.dll
 0002:000c50f6       ?setEraseColor@QWidget@@UAEXABVQColor@@@Z 005330f6 f   qt-mt323:qt-mt323.dll
 0002:000c50fc       ?setErasePixmap@QWidget@@UAEXABVQPixmap@@@Z 005330fc f   qt-mt323:qt-mt323.dll
 0002:000c5102       ?setExpandable@QListViewItem@@UAEX_N@Z 00533102 f   qt-mt323:qt-mt323.dll
 0002:000c5108       ?setFocus@QWidget@@UAEXXZ  00533108 f   qt-mt323:qt-mt323.dll
 0002:000c510e       ?setFocusPolicy@QWidget@@UAEXW4FocusPolicy@1@@Z 0053310e f   qt-mt323:qt-mt323.dll
 0002:000c5114       ?setFocusProxy@QWidget@@UAEXPAV1@@Z 00533114 f   qt-mt323:qt-mt323.dll
 0002:000c511a       ?setFont@QListView@@UAEXABVQFont@@@Z 0053311a f   qt-mt323:qt-mt323.dll
 0002:000c5120       ?setFrameRect@QFrame@@UAEXABVQRect@@@Z 00533120 f   qt-mt323:qt-mt323.dll
 0002:000c5126       ?setFrameStyle@QFrame@@UAEXH@Z 00533126 f   qt-mt323:qt-mt323.dll
 0002:000c512c       ?setGeometry@QWidget@@UAEXABVQRect@@@Z 0053312c f   qt-mt323:qt-mt323.dll
 0002:000c5132       ?setGeometry@QWidget@@UAEXHHHH@Z 00533132 f   qt-mt323:qt-mt323.dll
 0002:000c5138       ?setHBarGeometry@QScrollView@@MAEXAAVQScrollBar@@HHHH@Z 00533138 f   qt-mt323:qt-mt323.dll
 0002:000c513e       ?setHScrollBarMode@QScrollView@@UAEXW4ScrollBarMode@1@@Z 0053313e f   qt-mt323:qt-mt323.dll
 0002:000c5144       ?setHeight@QListViewItem@@MAEXH@Z 00533144 f   qt-mt323:qt-mt323.dll
 0002:000c514a       ?setIcon@QWidget@@UAEXABVQPixmap@@@Z 0053314a f   qt-mt323:qt-mt323.dll
 0002:000c5150       ?setIconText@QWidget@@UAEXABVQString@@@Z 00533150 f   qt-mt323:qt-mt323.dll
 0002:000c5156       ?setItemMargin@QListView@@UAEXH@Z 00533156 f   qt-mt323:qt-mt323.dll
 0002:000c515c       ?setKeyCompression@QWidget@@MAEX_N@Z 0053315c f   qt-mt323:qt-mt323.dll
 0002:000c5162       ?setLineWidth@QFrame@@UAEXH@Z 00533162 f   qt-mt323:qt-mt323.dll
 0002:000c5168       ?setMargin@QFrame@@UAEXH@Z 00533168 f   qt-mt323:qt-mt323.dll
 0002:000c516e       ?setMargins@QScrollView@@MAEXHHHH@Z 0053316e f   qt-mt323:qt-mt323.dll
 0002:000c5174       ?setMask@QWidget@@UAEXABVQBitmap@@@Z 00533174 f   qt-mt323:qt-mt323.dll
 0002:000c517a       ?setMask@QWidget@@UAEXABVQRegion@@@Z 0053317a f   qt-mt323:qt-mt323.dll
 0002:000c5180       ?setMaximumSize@QWidget@@UAEXHH@Z 00533180 f   qt-mt323:qt-mt323.dll
 0002:000c5186       ?setMicroFocusHint@QWidget@@MAEXHHHH_NPAVQFont@@@Z 00533186 f   qt-mt323:qt-mt323.dll
 0002:000c518c       ?setMidLineWidth@QFrame@@UAEXH@Z 0053318c f   qt-mt323:qt-mt323.dll
 0002:000c5192       ?setMinimumSize@QWidget@@UAEXHH@Z 00533192 f   qt-mt323:qt-mt323.dll
 0002:000c5198       ?setMouseTracking@QWidget@@UAEX_N@Z 00533198 f   qt-mt323:qt-mt323.dll
 0002:000c519e       ?setMultiLinesEnabled@QListViewItem@@UAEX_N@Z 0053319e f   qt-mt323:qt-mt323.dll
 0002:000c51a4       ?setMultiSelection@QListView@@UAEX_N@Z 005331a4 f   qt-mt323:qt-mt323.dll
 0002:000c51aa       ?setName@QWidget@@UAEXPBD@Z 005331aa f   qt-mt323:qt-mt323.dll
 0002:000c51b0       ?setOpen@QListView@@UAEXPAVQListViewItem@@_N@Z 005331b0 f   qt-mt323:qt-mt323.dll
 0002:000c51b6       ?setOpen@QListViewItem@@UAEX_N@Z 005331b6 f   qt-mt323:qt-mt323.dll
 0002:000c51bc       ?setPalette@QListView@@UAEXABVQPalette@@@Z 005331bc f   qt-mt323:qt-mt323.dll
 0002:000c51c2       ?setPaletteBackgroundColor@QWidget@@UAEXABVQColor@@@Z 005331c2 f   qt-mt323:qt-mt323.dll
 0002:000c51c8       ?setPaletteBackgroundPixmap@QWidget@@UAEXABVQPixmap@@@Z 005331c8 f   qt-mt323:qt-mt323.dll
 0002:000c51ce       ?setPixmap@QListViewItem@@UAEXHABVQPixmap@@@Z 005331ce f   qt-mt323:qt-mt323.dll
 0002:000c51d4       ?setRenameEnabled@QListViewItem@@UAEXH_N@Z 005331d4 f   qt-mt323:qt-mt323.dll
 0002:000c51da       ?setResizeMode@QListView@@UAEXW4ResizeMode@1@@Z 005331da f   qt-mt323:qt-mt323.dll
 0002:000c51e0       ?setResizePolicy@QScrollView@@UAEXW4ResizePolicy@1@@Z 005331e0 f   qt-mt323:qt-mt323.dll
 0002:000c51e6       ?setResolution@QPaintDevice@@UAEXH@Z 005331e6 f   qt-mt323:qt-mt323.dll
 0002:000c51ec       ?setRootIsDecorated@QListView@@UAEX_N@Z 005331ec f   qt-mt323:qt-mt323.dll
 0002:000c51f2       ?setSelectable@QListViewItem@@UAEX_N@Z 005331f2 f   qt-mt323:qt-mt323.dll
 0002:000c51f8       ?setSelected@QListView@@UAEXPAVQListViewItem@@_N@Z 005331f8 f   qt-mt323:qt-mt323.dll
 0002:000c51fe       ?setSelected@QListViewItem@@UAEX_N@Z 005331fe f   qt-mt323:qt-mt323.dll
 0002:000c5204       ?setShowSortIndicator@QListView@@UAEX_N@Z 00533204 f   qt-mt323:qt-mt323.dll
 0002:000c520a       ?setShowToolTips@QListView@@UAEX_N@Z 0053320a f   qt-mt323:qt-mt323.dll
 0002:000c5210       ?setSizeIncrement@QWidget@@UAEXHH@Z 00533210 f   qt-mt323:qt-mt323.dll
 0002:000c5216       ?setSizePolicy@QWidget@@UAEXVQSizePolicy@@@Z 00533216 f   qt-mt323:qt-mt323.dll
 0002:000c521c       ?setSorting@QListView@@UAEXH_N@Z 0053321c f   qt-mt323:qt-mt323.dll
 0002:000c5222       ?setText@QListViewItem@@UAEXHABVQString@@@Z 00533222 f   qt-mt323:qt-mt323.dll
 0002:000c5228       ?setTreeStepSize@QListView@@UAEXH@Z 00533228 f   qt-mt323:qt-mt323.dll
 0002:000c522e       ?setUpdatesEnabled@QWidget@@UAEX_N@Z 0053322e f   qt-mt323:qt-mt323.dll
 0002:000c5234       ?setVBarGeometry@QScrollView@@MAEXAAVQScrollBar@@HHHH@Z 00533234 f   qt-mt323:qt-mt323.dll
 0002:000c523a       ?setVScrollBarMode@QScrollView@@UAEXW4ScrollBarMode@1@@Z 0053323a f   qt-mt323:qt-mt323.dll
 0002:000c5240       ?setWFlags@QWidget@@MAEXI@Z 00533240 f   qt-mt323:qt-mt323.dll
 0002:000c5246       ?setWState@QWidget@@MAEXI@Z 00533246 f   qt-mt323:qt-mt323.dll
 0002:000c524c       ?setup@QListViewItem@@UAEXXZ 0053324c f   qt-mt323:qt-mt323.dll
 0002:000c5252       ?show@QListView@@UAEXXZ    00533252 f   qt-mt323:qt-mt323.dll
 0002:000c5258       ?showEvent@QListView@@MAEXPAVQShowEvent@@@Z 00533258 f   qt-mt323:qt-mt323.dll
 0002:000c525e       ?showMaximized@QWidget@@UAEXXZ 0053325e f   qt-mt323:qt-mt323.dll
 0002:000c5264       ?showMinimized@QWidget@@UAEXXZ 00533264 f   qt-mt323:qt-mt323.dll
 0002:000c526a       ?showNormal@QWidget@@UAEXXZ 0053326a f   qt-mt323:qt-mt323.dll
 0002:000c5270       ?sizeHint@QListView@@UBE?AVQSize@@XZ 00533270 f   qt-mt323:qt-mt323.dll
 0002:000c5276       ?sizePolicy@QWidget@@UBE?AVQSizePolicy@@XZ 00533276 f   qt-mt323:qt-mt323.dll
 0002:000c527c       ?sort@QListView@@UAEXXZ    0053327c f   qt-mt323:qt-mt323.dll
 0002:000c5282       ?sort@QListViewItem@@UAEXXZ 00533282 f   qt-mt323:qt-mt323.dll
 0002:000c5288       ?sortChildItems@QListViewItem@@UAEXH_N@Z 00533288 f   qt-mt323:qt-mt323.dll
 0002:000c528e       ?startDrag@QListView@@MAEXXZ 0053328e f   qt-mt323:qt-mt323.dll
 0002:000c5294       ?startRename@QListViewItem@@UAEXH@Z 00533294 f   qt-mt323:qt-mt323.dll
 0002:000c529a       ?styleChange@QListView@@MAEXAAVQStyle@@@Z 0053329a f   qt-mt323:qt-mt323.dll
 0002:000c52a0       ?tabletEvent@QWidget@@MAEXPAVQTabletEvent@@@Z 005332a0 f   qt-mt323:qt-mt323.dll
 0002:000c52a6       ?takeItem@QListView@@UAEXPAVQListViewItem@@@Z 005332a6 f   qt-mt323:qt-mt323.dll
 0002:000c52ac       ?takeItem@QListViewItem@@UAEXPAV1@@Z 005332ac f   qt-mt323:qt-mt323.dll
 0002:000c52b2       ?text@QListViewItem@@UBE?AVQString@@H@Z 005332b2 f   qt-mt323:qt-mt323.dll
 0002:000c52b8       ?unsetCursor@QWidget@@UAEXXZ 005332b8 f   qt-mt323:qt-mt323.dll
 0002:000c52be       ?updateMask@QWidget@@MAEXXZ 005332be f   qt-mt323:qt-mt323.dll
 0002:000c52c4       ?viewportContextMenuEvent@QScrollView@@MAEXPAVQContextMenuEvent@@@Z 005332c4 f   qt-mt323:qt-mt323.dll
 0002:000c52ca       ?viewportDragEnterEvent@QScrollView@@MAEXPAVQDragEnterEvent@@@Z 005332ca f   qt-mt323:qt-mt323.dll
 0002:000c52d0       ?viewportDragLeaveEvent@QScrollView@@MAEXPAVQDragLeaveEvent@@@Z 005332d0 f   qt-mt323:qt-mt323.dll
 0002:000c52d6       ?viewportDragMoveEvent@QScrollView@@MAEXPAVQDragMoveEvent@@@Z 005332d6 f   qt-mt323:qt-mt323.dll
 0002:000c52dc       ?viewportDropEvent@QScrollView@@MAEXPAVQDropEvent@@@Z 005332dc f   qt-mt323:qt-mt323.dll
 0002:000c52e2       ?viewportMouseDoubleClickEvent@QScrollView@@MAEXPAVQMouseEvent@@@Z 005332e2 f   qt-mt323:qt-mt323.dll
 0002:000c52e8       ?viewportMouseMoveEvent@QScrollView@@MAEXPAVQMouseEvent@@@Z 005332e8 f   qt-mt323:qt-mt323.dll
 0002:000c52ee       ?viewportMousePressEvent@QScrollView@@MAEXPAVQMouseEvent@@@Z 005332ee f   qt-mt323:qt-mt323.dll
 0002:000c52f4       ?viewportMouseReleaseEvent@QScrollView@@MAEXPAVQMouseEvent@@@Z 005332f4 f   qt-mt323:qt-mt323.dll
 0002:000c52fa       ?viewportPaintEvent@QScrollView@@MAEXPAVQPaintEvent@@@Z 005332fa f   qt-mt323:qt-mt323.dll
 0002:000c5300       ?viewportResizeEvent@QListView@@MAEXPAVQResizeEvent@@@Z 00533300 f   qt-mt323:qt-mt323.dll
 0002:000c5306       ?viewportWheelEvent@QScrollView@@MAEXPAVQWheelEvent@@@Z 00533306 f   qt-mt323:qt-mt323.dll
 0002:000c530c       ?wheelEvent@QScrollView@@MAEXPAVQWheelEvent@@@Z 0053330c f   qt-mt323:qt-mt323.dll
 0002:000c5312       ?width@QListViewItem@@UBEHABVQFontMetrics@@PBVQListView@@H@Z 00533312 f   qt-mt323:qt-mt323.dll
 0002:000c5318       ?winEvent@QWidget@@MAE_NPAUtagMSG@@@Z 00533318 f   qt-mt323:qt-mt323.dll
 0002:000c531e       ?write@QGList@@MBEAAVQDataStream@@AAV2@PAX@Z 0053331e f   qt-mt323:qt-mt323.dll
 0002:000c5324       ??9@YA_NABVQString@@0@Z    00533324 f   qt-mt323:qt-mt323.dll
 0002:000c532a       ?insertItem@QComboBox@@QAEXABVQString@@H@Z 0053332a f   qt-mt323:qt-mt323.dll
 0002:000c5330       ?clear@QComboBox@@QAEXXZ   00533330 f   qt-mt323:qt-mt323.dll
 0002:000c5336       ?accept@QDialog@@MAEXXZ    00533336 f   qt-mt323:qt-mt323.dll
 0002:000c533c       ?closeEvent@QDialog@@MAEXPAVQCloseEvent@@@Z 0053333c f   qt-mt323:qt-mt323.dll
 0002:000c5342       ?contextMenuEvent@QDialog@@MAEXPAVQContextMenuEvent@@@Z 00533342 f   qt-mt323:qt-mt323.dll
 0002:000c5348       ?done@QDialog@@MAEXH@Z     00533348 f   qt-mt323:qt-mt323.dll
 0002:000c534e       ?eventFilter@QDialog@@MAE_NPAVQObject@@PAVQEvent@@@Z 0053334e f   qt-mt323:qt-mt323.dll
 0002:000c5354       ?focusInEvent@QWidget@@MAEXPAVQFocusEvent@@@Z 00533354 f   qt-mt323:qt-mt323.dll
 0002:000c535a       ?focusNextPrevChild@QWidget@@MAE_N_N@Z 0053335a f   qt-mt323:qt-mt323.dll
 0002:000c5360       ?focusOutEvent@QWidget@@MAEXPAVQFocusEvent@@@Z 00533360 f   qt-mt323:qt-mt323.dll
 0002:000c5366       ?fontChange@QWidget@@MAEXABVQFont@@@Z 00533366 f   qt-mt323:qt-mt323.dll
 0002:000c536c       ?hide@QDialog@@UAEXXZ      0053336c f   qt-mt323:qt-mt323.dll
 0002:000c5372       ?keyPressEvent@QDialog@@MAEXPAVQKeyEvent@@@Z 00533372 f   qt-mt323:qt-mt323.dll
 0002:000c5378       ?minimumSizeHint@QDialog@@UBE?AVQSize@@XZ 00533378 f   qt-mt323:qt-mt323.dll
 0002:000c537e       ?mouseDoubleClickEvent@QWidget@@MAEXPAVQMouseEvent@@@Z 0053337e f   qt-mt323:qt-mt323.dll
 0002:000c5384       ?mouseMoveEvent@QWidget@@MAEXPAVQMouseEvent@@@Z 00533384 f   qt-mt323:qt-mt323.dll
 0002:000c538a       ?mousePressEvent@QWidget@@MAEXPAVQMouseEvent@@@Z 0053338a f   qt-mt323:qt-mt323.dll
 0002:000c5390       ?mouseReleaseEvent@QWidget@@MAEXPAVQMouseEvent@@@Z 00533390 f   qt-mt323:qt-mt323.dll
 0002:000c5396       ?move@QDialog@@UAEXHH@Z    00533396 f   qt-mt323:qt-mt323.dll
 0002:000c539c       ?paintEvent@QWidget@@MAEXPAVQPaintEvent@@@Z 0053339c f   qt-mt323:qt-mt323.dll
 0002:000c53a2       ?reject@QDialog@@MAEXXZ    005333a2 f   qt-mt323:qt-mt323.dll
 0002:000c53a8       ?resize@QDialog@@UAEXHH@Z  005333a8 f   qt-mt323:qt-mt323.dll
 0002:000c53ae       ?resizeEvent@QDialog@@MAEXPAVQResizeEvent@@@Z 005333ae f   qt-mt323:qt-mt323.dll
 0002:000c53b4       ?setEnabled@QWidget@@UAEX_N@Z 005333b4 f   qt-mt323:qt-mt323.dll
 0002:000c53ba       ?setFont@QWidget@@UAEXABVQFont@@@Z 005333ba f   qt-mt323:qt-mt323.dll
 0002:000c53c0       ?setGeometry@QDialog@@UAEXABVQRect@@@Z 005333c0 f   qt-mt323:qt-mt323.dll
 0002:000c53c6       ?setGeometry@QDialog@@UAEXHHHH@Z 005333c6 f   qt-mt323:qt-mt323.dll
 0002:000c53cc       ?setPalette@QWidget@@UAEXABVQPalette@@@Z 005333cc f   qt-mt323:qt-mt323.dll
 0002:000c53d2       ?show@QDialog@@UAEXXZ      005333d2 f   qt-mt323:qt-mt323.dll
 0002:000c53d8       ?showEvent@QWidget@@MAEXPAVQShowEvent@@@Z 005333d8 f   qt-mt323:qt-mt323.dll
 0002:000c53de       ?sizeHint@QDialog@@UBE?AVQSize@@XZ 005333de f   qt-mt323:qt-mt323.dll
 0002:000c53e4       ?styleChange@QWidget@@MAEXAAVQStyle@@@Z 005333e4 f   qt-mt323:qt-mt323.dll
 0002:000c53ea       ?wheelEvent@QWidget@@MAEXPAVQWheelEvent@@@Z 005333ea f   qt-mt323:qt-mt323.dll
 0002:000c53f0       ?windowActivationChange@QWidget@@MAEX_N@Z 005333f0 f   qt-mt323:qt-mt323.dll
 0002:000c53f6       ?rightJustify@QString@@QBE?AV1@IVQChar@@_N@Z 005333f6 f   qt-mt323:qt-mt323.dll
 0002:000c53fc       ?selectedItem@QListView@@QBEPAVQListViewItem@@XZ 005333fc f   qt-mt323:qt-mt323.dll
 0002:000c5402       ?adjustColumn@QListView@@QAEXH@Z 00533402 f   qt-mt323:qt-mt323.dll
 0002:000c5408       ?updateContents@QListView@@IAEXXZ 00533408 f   qt-mt323:qt-mt323.dll
 0002:000c540e       ?windowActivationChange@QListView@@MAEX_N@Z 0053340e f   qt-mt323:qt-mt323.dll
 0002:000c5414       ??0QGList@@IAE@ABV0@@Z     00533414 f   qt-mt323:qt-mt323.dll
 0002:000c541a       ??4QGList@@IAEAAV0@ABV0@@Z 0053341a f   qt-mt323:qt-mt323.dll
 0002:000c5420       ??8QGList@@IBE_NABV0@@Z    00533420 f   qt-mt323:qt-mt323.dll
 0002:000c5426       ?inSort@QGList@@IAEXPAX@Z  00533426 f   qt-mt323:qt-mt323.dll
 0002:000c542c       ?append@QGList@@IAEXPAX@Z  0053342c f   qt-mt323:qt-mt323.dll
 0002:000c5432       ?removeNode@QGList@@IAE_NPAVQLNode@@@Z 00533432 f   qt-mt323:qt-mt323.dll
 0002:000c5438       ?remove@QGList@@IAE_NPAX@Z 00533438 f   qt-mt323:qt-mt323.dll
 0002:000c543e       ?removeRef@QGList@@IAE_NPAX@Z 0053343e f   qt-mt323:qt-mt323.dll
 0002:000c5444       ?removeFirst@QGList@@IAE_NXZ 00533444 f   qt-mt323:qt-mt323.dll
 0002:000c544a       ?removeLast@QGList@@IAE_NXZ 0053344a f   qt-mt323:qt-mt323.dll
 0002:000c5450       ?removeAt@QGList@@IAE_NI@Z 00533450 f   qt-mt323:qt-mt323.dll
 0002:000c5456       ?replaceAt@QGList@@IAE_NIPAX@Z 00533456 f   qt-mt323:qt-mt323.dll
 0002:000c545c       ?takeNode@QGList@@IAEPAXPAVQLNode@@@Z 0053345c f   qt-mt323:qt-mt323.dll
 0002:000c5462       ?take@QGList@@IAEPAXXZ     00533462 f   qt-mt323:qt-mt323.dll
 0002:000c5468       ?takeAt@QGList@@IAEPAXI@Z  00533468 f   qt-mt323:qt-mt323.dll
 0002:000c546e       ?sort@QGList@@IAEXXZ       0053346e f   qt-mt323:qt-mt323.dll
 0002:000c5474       ?findRef@QGList@@IAEHPAX_N@Z 00533474 f   qt-mt323:qt-mt323.dll
 0002:000c547a       ?find@QGList@@IAEHPAX_N@Z  0053347a f   qt-mt323:qt-mt323.dll
 0002:000c5480       ?containsRef@QGList@@IBEIPAX@Z 00533480 f   qt-mt323:qt-mt323.dll
 0002:000c5486       ?contains@QGList@@IBEIPAX@Z 00533486 f   qt-mt323:qt-mt323.dll
 0002:000c548c       ?at@QGList@@IAEPAXI@Z      0053348c f   qt-mt323:qt-mt323.dll
 0002:000c5492       ?at@QGList@@IBEHXZ         00533492 f   qt-mt323:qt-mt323.dll
 0002:000c5498       ?currentNode@QGList@@IBEPAVQLNode@@XZ 00533498 f   qt-mt323:qt-mt323.dll
 0002:000c549e       ?get@QGList@@IBEPAXXZ      0053349e f   qt-mt323:qt-mt323.dll
 0002:000c54a4       ?clast@QGList@@IBEPAXXZ    005334a4 f   qt-mt323:qt-mt323.dll
 0002:000c54aa       ?first@QGList@@IAEPAXXZ    005334aa f   qt-mt323:qt-mt323.dll
 0002:000c54b0       ?last@QGList@@IAEPAXXZ     005334b0 f   qt-mt323:qt-mt323.dll
 0002:000c54b6       ?next@QGList@@IAEPAXXZ     005334b6 f   qt-mt323:qt-mt323.dll
 0002:000c54bc       ?prev@QGList@@IAEPAXXZ     005334bc f   qt-mt323:qt-mt323.dll
 0002:000c54c2       ?toVector@QGList@@IBEXPAVQGVector@@@Z 005334c2 f   qt-mt323:qt-mt323.dll
 0002:000c54c8       ?begin@QGList@@IBEPAVQLNode@@XZ 005334c8 f   qt-mt323:qt-mt323.dll
 0002:000c54ce       ?end@QGList@@IBEPAVQLNode@@XZ 005334ce f   qt-mt323:qt-mt323.dll
 0002:000c54d4       ?erase@QGList@@IAEPAVQLNode@@PAV2@@Z 005334d4 f   qt-mt323:qt-mt323.dll
 0002:000c54da       ??0QGListIterator@@IAE@ABVQGList@@@Z 005334da f   qt-mt323:qt-mt323.dll
 0002:000c54e0       ??0QGListIterator@@IAE@ABV0@@Z 005334e0 f   qt-mt323:qt-mt323.dll
 0002:000c54e6       ??4QGListIterator@@IAEAAV0@ABV0@@Z 005334e6 f   qt-mt323:qt-mt323.dll
 0002:000c54ec       ??1QGListIterator@@IAE@XZ  005334ec f   qt-mt323:qt-mt323.dll
 0002:000c54f2       ?atFirst@QGListIterator@@IBE_NXZ 005334f2 f   qt-mt323:qt-mt323.dll
 0002:000c54f8       ?atLast@QGListIterator@@IBE_NXZ 005334f8 f   qt-mt323:qt-mt323.dll
 0002:000c54fe       ?toFirst@QGListIterator@@IAEPAXXZ 005334fe f   qt-mt323:qt-mt323.dll
 0002:000c5504       ?toLast@QGListIterator@@IAEPAXXZ 00533504 f   qt-mt323:qt-mt323.dll
 0002:000c550a       ?get@QGListIterator@@IBEPAXXZ 0053350a f   qt-mt323:qt-mt323.dll
 0002:000c5510       ??RQGListIterator@@IAEPAXXZ 00533510 f   qt-mt323:qt-mt323.dll
 0002:000c5516       ??EQGListIterator@@IAEPAXXZ 00533516 f   qt-mt323:qt-mt323.dll
 0002:000c551c       ??YQGListIterator@@IAEPAXI@Z 0053351c f   qt-mt323:qt-mt323.dll
 0002:000c5522       ??FQGListIterator@@IAEPAXXZ 00533522 f   qt-mt323:qt-mt323.dll
 0002:000c5528       ??ZQGListIterator@@IAEPAXI@Z 00533528 f   qt-mt323:qt-mt323.dll
 0002:000c552e       ??0QGListStdIterator@@QAE@PAVQLNode@@@Z 0053352e f   qt-mt323:qt-mt323.dll
 0002:000c5534       ??BQGListStdIterator@@QAEPAVQLNode@@XZ 00533534 f   qt-mt323:qt-mt323.dll
 0002:000c553a       ?disconnect@QObject@@SA_NPBV1@PBD01@Z 0053353a f   qt-mt323:qt-mt323.dll
 0002:000c5540       ?style@QWidget@@QBEAAVQStyle@@XZ 00533540 f   qt-mt323:qt-mt323.dll
 0002:000c5546       ?setStyle@QWidget@@QAEXPAVQStyle@@@Z 00533546 f   qt-mt323:qt-mt323.dll
 0002:000c554c       ??0QScrollView@@QAE@PAVQWidget@@PBDI@Z 0053354c f   qt-mt323:qt-mt323.dll
 0002:000c5552       ??1QScrollView@@UAE@XZ     00533552 f   qt-mt323:qt-mt323.dll
 0002:000c5558       ?contentsContextMenuEvent@QScrollView@@MAEXPAVQContextMenuEvent@@@Z 00533558 f   qt-mt323:qt-mt323.dll
 0002:000c555e       ?contentsDragEnterEvent@QScrollView@@MAEXPAVQDragEnterEvent@@@Z 0053355e f   qt-mt323:qt-mt323.dll
 0002:000c5564       ?contentsDragLeaveEvent@QScrollView@@MAEXPAVQDragLeaveEvent@@@Z 00533564 f   qt-mt323:qt-mt323.dll
 0002:000c556a       ?contentsDragMoveEvent@QScrollView@@MAEXPAVQDragMoveEvent@@@Z 0053356a f   qt-mt323:qt-mt323.dll
 0002:000c5570       ?contentsDropEvent@QScrollView@@MAEXPAVQDropEvent@@@Z 00533570 f   qt-mt323:qt-mt323.dll
 0002:000c5576       ?contentsMouseDoubleClickEvent@QScrollView@@MAEXPAVQMouseEvent@@@Z 00533576 f   qt-mt323:qt-mt323.dll
 0002:000c557c       ?contentsMouseMoveEvent@QScrollView@@MAEXPAVQMouseEvent@@@Z 0053357c f   qt-mt323:qt-mt323.dll
 0002:000c5582       ?contentsMousePressEvent@QScrollView@@MAEXPAVQMouseEvent@@@Z 00533582 f   qt-mt323:qt-mt323.dll
 0002:000c5588       ?contentsMouseReleaseEvent@QScrollView@@MAEXPAVQMouseEvent@@@Z 00533588 f   qt-mt323:qt-mt323.dll
 0002:000c558e       ?drawContentsOffset@QScrollView@@MAEXPAVQPainter@@HHHHHH@Z 0053358e f   qt-mt323:qt-mt323.dll
 0002:000c5594       ?eventFilter@QScrollView@@MAE_NPAVQObject@@PAVQEvent@@@Z 00533594 f   qt-mt323:qt-mt323.dll
 0002:000c559a       ?keyPressEvent@QWidget@@MAEXPAVQKeyEvent@@@Z 0053359a f   qt-mt323:qt-mt323.dll
 0002:000c55a0       ?minimumSizeHint@QScrollView@@UBE?AVQSize@@XZ 005335a0 f   qt-mt323:qt-mt323.dll
 0002:000c55a6       ?resizeEvent@QScrollView@@MAEXPAVQResizeEvent@@@Z 005335a6 f   qt-mt323:qt-mt323.dll
 0002:000c55ac       ?setContentsPos@QScrollView@@UAEXHH@Z 005335ac f   qt-mt323:qt-mt323.dll
 0002:000c55b2       ?show@QScrollView@@UAEXXZ  005335b2 f   qt-mt323:qt-mt323.dll
 0002:000c55b8       ?sizeHint@QScrollView@@UBE?AVQSize@@XZ 005335b8 f   qt-mt323:qt-mt323.dll
 0002:000c55be       ?viewportResizeEvent@QScrollView@@MAEXPAVQResizeEvent@@@Z 005335be f   qt-mt323:qt-mt323.dll
 0002:000c55c4       ??0QSize@@QAE@HH@Z         005335c4 f   qt-mt323:qt-mt323.dll
 0002:000c55ca       ?expandedTo@QSize@@QBE?AV1@ABV1@@Z 005335ca f   qt-mt323:qt-mt323.dll
 0002:000c55d0       ?layout@QWidget@@QBEPAVQLayout@@XZ 005335d0 f   qt-mt323:qt-mt323.dll
 0002:000c55d6       ?clearWState@QWidget@@IAEXI@Z 005335d6 f   qt-mt323:qt-mt323.dll
 0002:000c55dc       ??0QDialog@@QAE@PAVQWidget@@PBD_NI@Z 005335dc f   qt-mt323:qt-mt323.dll
 0002:000c55e2       ??1QDialog@@UAE@XZ         005335e2 f   qt-mt323:qt-mt323.dll
 0002:000c55e8       ?resize@QDialog@@QAEXABVQSize@@@Z 005335e8 f   qt-mt323:qt-mt323.dll
 0002:000c55ee       ?setSizeGripEnabled@QDialog@@QAEX_N@Z 005335ee f   qt-mt323:qt-mt323.dll
 0002:000c55f4       ??0QPushButton@@QAE@PAVQWidget@@PBD@Z 005335f4 f   qt-mt323:qt-mt323.dll
 0002:000c55fa       ??1QPushButton@@UAE@XZ     005335fa f   qt-mt323:qt-mt323.dll
 0002:000c5600       ??0QButtonGroup@@QAE@PAVQWidget@@PBD@Z 00533600 f   qt-mt323:qt-mt323.dll
 0002:000c5606       ??1QButtonGroup@@UAE@XZ    00533606 f   qt-mt323:qt-mt323.dll
 0002:000c560c       ??0QRadioButton@@QAE@PAVQWidget@@PBD@Z 0053360c f   qt-mt323:qt-mt323.dll
 0002:000c5612       ??1QRadioButton@@UAE@XZ    00533612 f   qt-mt323:qt-mt323.dll
 0002:000c5618       ??0QSpacerItem@@QAE@HHW4SizeType@QSizePolicy@@0@Z 00533618 f   qt-mt323:qt-mt323.dll
 0002:000c561e       ??1QSpacerItem@@UAE@XZ     0053361e f   qt-mt323:qt-mt323.dll
 0002:000c5624       ?addWidget@QBoxLayout@@QAEXPAVQWidget@@HH@Z 00533624 f   qt-mt323:qt-mt323.dll
 0002:000c562a       ?addLayout@QBoxLayout@@QAEXPAVQLayout@@H@Z 0053362a f   qt-mt323:qt-mt323.dll
 0002:000c5630       ??0QHBoxLayout@@QAE@PAVQWidget@@HHPBD@Z 00533630 f   qt-mt323:qt-mt323.dll
 0002:000c5636       ??1QHBoxLayout@@UAE@XZ     00533636 f   qt-mt323:qt-mt323.dll
 0002:000c563c       ??0QVBoxLayout@@QAE@PAVQWidget@@HHPBD@Z 0053363c f   qt-mt323:qt-mt323.dll
 0002:000c5642       ??0QVBoxLayout@@QAE@PAVQLayout@@HPBD@Z 00533642 f   qt-mt323:qt-mt323.dll
 0002:000c5648       ??1QVBoxLayout@@UAE@XZ     00533648 f   qt-mt323:qt-mt323.dll
 0002:000c564e       ?addItem@QBoxLayout@@UAEXPAVQLayoutItem@@@Z 0053364e f   qt-mt323:qt-mt323.dll
 0002:000c5654       ?childEvent@QGroupBox@@MAEXPAVQChildEvent@@@Z 00533654 f   qt-mt323:qt-mt323.dll
 0002:000c565a       ?childEvent@QLayout@@MAEXPAVQChildEvent@@@Z 0053365a f   qt-mt323:qt-mt323.dll
 0002:000c5660       ?className@QButtonGroup@@UBEPBDXZ 00533660 f   qt-mt323:qt-mt323.dll
 0002:000c5666       ?className@QHBoxLayout@@UBEPBDXZ 00533666 f   qt-mt323:qt-mt323.dll
 0002:000c566c       ?className@QPushButton@@UBEPBDXZ 0053366c f   qt-mt323:qt-mt323.dll
 0002:000c5672       ?className@QRadioButton@@UBEPBDXZ 00533672 f   qt-mt323:qt-mt323.dll
 0002:000c5678       ?className@QVBoxLayout@@UBEPBDXZ 00533678 f   qt-mt323:qt-mt323.dll
 0002:000c567e       ?contextMenuEvent@QWidget@@MAEXPAVQContextMenuEvent@@@Z 0053367e f   qt-mt323:qt-mt323.dll
 0002:000c5684       ?drawButton@QPushButton@@MAEXPAVQPainter@@@Z 00533684 f   qt-mt323:qt-mt323.dll
 0002:000c568a       ?drawButton@QRadioButton@@MAEXPAVQPainter@@@Z 0053368a f   qt-mt323:qt-mt323.dll
 0002:000c5690       ?drawButtonLabel@QPushButton@@MAEXPAVQPainter@@@Z 00533690 f   qt-mt323:qt-mt323.dll
 0002:000c5696       ?drawButtonLabel@QRadioButton@@MAEXPAVQPainter@@@Z 00533696 f   qt-mt323:qt-mt323.dll
 0002:000c569c       ?drawContents@QFrame@@MAEXPAVQPainter@@@Z 0053369c f   qt-mt323:qt-mt323.dll
 0002:000c56a2       ?enabledChange@QButton@@MAEX_N@Z 005336a2 f   qt-mt323:qt-mt323.dll
 0002:000c56a8       ?event@QButtonGroup@@MAE_NPAVQEvent@@@Z 005336a8 f   qt-mt323:qt-mt323.dll
 0002:000c56ae       ?eventFilter@QLayout@@MAE_NPAVQObject@@PAVQEvent@@@Z 005336ae f   qt-mt323:qt-mt323.dll
 0002:000c56b4       ?expanding@QBoxLayout@@UBE?AW4ExpandData@QSizePolicy@@XZ 005336b4 f   qt-mt323:qt-mt323.dll
 0002:000c56ba       ?expanding@QSpacerItem@@UBE?AW4ExpandData@QSizePolicy@@XZ 005336ba f   qt-mt323:qt-mt323.dll
 0002:000c56c0       ?focusInEvent@QButton@@MAEXPAVQFocusEvent@@@Z 005336c0 f   qt-mt323:qt-mt323.dll
 0002:000c56c6       ?focusInEvent@QGroupBox@@MAEXPAVQFocusEvent@@@Z 005336c6 f   qt-mt323:qt-mt323.dll
 0002:000c56cc       ?focusInEvent@QPushButton@@MAEXPAVQFocusEvent@@@Z 005336cc f   qt-mt323:qt-mt323.dll
 0002:000c56d2       ?focusOutEvent@QButton@@MAEXPAVQFocusEvent@@@Z 005336d2 f   qt-mt323:qt-mt323.dll
 0002:000c56d8       ?focusOutEvent@QPushButton@@MAEXPAVQFocusEvent@@@Z 005336d8 f   qt-mt323:qt-mt323.dll
 0002:000c56de       ?fontChange@QGroupBox@@MAEXABVQFont@@@Z 005336de f   qt-mt323:qt-mt323.dll
 0002:000c56e4       ?frameChanged@QFrame@@MAEXXZ 005336e4 f   qt-mt323:qt-mt323.dll
 0002:000c56ea       ?geometry@QLayout@@UBE?AVQRect@@XZ 005336ea f   qt-mt323:qt-mt323.dll
 0002:000c56f0       ?geometry@QSpacerItem@@UBE?AVQRect@@XZ 005336f0 f   qt-mt323:qt-mt323.dll
 0002:000c56f6       ?hasHeightForWidth@QBoxLayout@@UBE_NXZ 005336f6 f   qt-mt323:qt-mt323.dll
 0002:000c56fc       ?hasHeightForWidth@QLayoutItem@@UBE_NXZ 005336fc f   qt-mt323:qt-mt323.dll
 0002:000c5702       ?heightForWidth@QBoxLayout@@UBEHH@Z 00533702 f   qt-mt323:qt-mt323.dll
 0002:000c5708       ?heightForWidth@QLayoutItem@@UBEHH@Z 00533708 f   qt-mt323:qt-mt323.dll
 0002:000c570e       ?hitButton@QButton@@MBE_NABVQPoint@@@Z 0053370e f   qt-mt323:qt-mt323.dll
 0002:000c5714       ?hitButton@QRadioButton@@MBE_NABVQPoint@@@Z 00533714 f   qt-mt323:qt-mt323.dll
 0002:000c571a       ?invalidate@QBoxLayout@@UAEXXZ 0053371a f   qt-mt323:qt-mt323.dll
 0002:000c5720       ?invalidate@QLayoutItem@@UAEXXZ 00533720 f   qt-mt323:qt-mt323.dll
 0002:000c5726       ?isEmpty@QLayout@@UBE_NXZ  00533726 f   qt-mt323:qt-mt323.dll
 0002:000c572c       ?isEmpty@QSpacerItem@@UBE_NXZ 0053372c f   qt-mt323:qt-mt323.dll
 0002:000c5732       ?iterator@QBoxLayout@@UAE?AVQLayoutIterator@@XZ 00533732 f   qt-mt323:qt-mt323.dll
 0002:000c5738       ?iterator@QLayoutItem@@UAE?AVQLayoutIterator@@XZ 00533738 f   qt-mt323:qt-mt323.dll
 0002:000c573e       ?keyPressEvent@QButton@@MAEXPAVQKeyEvent@@@Z 0053373e f   qt-mt323:qt-mt323.dll
 0002:000c5744       ?keyReleaseEvent@QButton@@MAEXPAVQKeyEvent@@@Z 00533744 f   qt-mt323:qt-mt323.dll
 0002:000c574a       ?layout@QLayout@@UAEPAV1@XZ 0053374a f   qt-mt323:qt-mt323.dll
 0002:000c5750       ?layout@QLayoutItem@@UAEPAVQLayout@@XZ 00533750 f   qt-mt323:qt-mt323.dll
 0002:000c5756       ?maximumSize@QBoxLayout@@UBE?AVQSize@@XZ 00533756 f   qt-mt323:qt-mt323.dll
 0002:000c575c       ?maximumSize@QSpacerItem@@UBE?AVQSize@@XZ 0053375c f   qt-mt323:qt-mt323.dll
 0002:000c5762       ?metaObject@QButtonGroup@@UBEPAVQMetaObject@@XZ 00533762 f   qt-mt323:qt-mt323.dll
 0002:000c5768       ?metaObject@QHBoxLayout@@UBEPAVQMetaObject@@XZ 00533768 f   qt-mt323:qt-mt323.dll
 0002:000c576e       ?metaObject@QPushButton@@UBEPAVQMetaObject@@XZ 0053376e f   qt-mt323:qt-mt323.dll
 0002:000c5774       ?metaObject@QRadioButton@@UBEPAVQMetaObject@@XZ 00533774 f   qt-mt323:qt-mt323.dll
 0002:000c577a       ?metaObject@QVBoxLayout@@UBEPAVQMetaObject@@XZ 0053377a f   qt-mt323:qt-mt323.dll
 0002:000c5780       ?minimumSize@QBoxLayout@@UBE?AVQSize@@XZ 00533780 f   qt-mt323:qt-mt323.dll
 0002:000c5786       ?minimumSize@QSpacerItem@@UBE?AVQSize@@XZ 00533786 f   qt-mt323:qt-mt323.dll
 0002:000c578c       ?minimumSizeHint@QWidget@@UBE?AVQSize@@XZ 0053378c f   qt-mt323:qt-mt323.dll
 0002:000c5792       ?mouseMoveEvent@QButton@@MAEXPAVQMouseEvent@@@Z 00533792 f   qt-mt323:qt-mt323.dll
 0002:000c5798       ?mousePressEvent@QButton@@MAEXPAVQMouseEvent@@@Z 00533798 f   qt-mt323:qt-mt323.dll
 0002:000c579e       ?mouseReleaseEvent@QButton@@MAEXPAVQMouseEvent@@@Z 0053379e f   qt-mt323:qt-mt323.dll
 0002:000c57a4       ?move@QPushButton@@UAEXHH@Z 005337a4 f   qt-mt323:qt-mt323.dll
 0002:000c57aa       ?moveFocus@QButtonGroup@@UAEXH@Z 005337aa f   qt-mt323:qt-mt323.dll
 0002:000c57b0       ?paintEvent@QButton@@MAEXPAVQPaintEvent@@@Z 005337b0 f   qt-mt323:qt-mt323.dll
 0002:000c57b6       ?paintEvent@QGroupBox@@MAEXPAVQPaintEvent@@@Z 005337b6 f   qt-mt323:qt-mt323.dll
 0002:000c57bc       ?qt_cast@QButtonGroup@@UAEPAXPBD@Z 005337bc f   qt-mt323:qt-mt323.dll
 0002:000c57c2       ?qt_cast@QHBoxLayout@@UAEPAXPBD@Z 005337c2 f   qt-mt323:qt-mt323.dll
 0002:000c57c8       ?qt_cast@QPushButton@@UAEPAXPBD@Z 005337c8 f   qt-mt323:qt-mt323.dll
 0002:000c57ce       ?qt_cast@QRadioButton@@UAEPAXPBD@Z 005337ce f   qt-mt323:qt-mt323.dll
 0002:000c57d4       ?qt_cast@QVBoxLayout@@UAEPAXPBD@Z 005337d4 f   qt-mt323:qt-mt323.dll
 0002:000c57da       ?qt_emit@QButtonGroup@@UAE_NHPAUQUObject@@@Z 005337da f   qt-mt323:qt-mt323.dll
 0002:000c57e0       ?qt_emit@QHBoxLayout@@UAE_NHPAUQUObject@@@Z 005337e0 f   qt-mt323:qt-mt323.dll
 0002:000c57e6       ?qt_emit@QPushButton@@UAE_NHPAUQUObject@@@Z 005337e6 f   qt-mt323:qt-mt323.dll
 0002:000c57ec       ?qt_emit@QRadioButton@@UAE_NHPAUQUObject@@@Z 005337ec f   qt-mt323:qt-mt323.dll
 0002:000c57f2       ?qt_emit@QVBoxLayout@@UAE_NHPAUQUObject@@@Z 005337f2 f   qt-mt323:qt-mt323.dll
 0002:000c57f8       ?qt_invoke@QButtonGroup@@UAE_NHPAUQUObject@@@Z 005337f8 f   qt-mt323:qt-mt323.dll
 0002:000c57fe       ?qt_invoke@QHBoxLayout@@UAE_NHPAUQUObject@@@Z 005337fe f   qt-mt323:qt-mt323.dll
 0002:000c5804       ?qt_invoke@QPushButton@@UAE_NHPAUQUObject@@@Z 00533804 f   qt-mt323:qt-mt323.dll
 0002:000c580a       ?qt_invoke@QRadioButton@@UAE_NHPAUQUObject@@@Z 0053380a f   qt-mt323:qt-mt323.dll
 0002:000c5810       ?qt_invoke@QVBoxLayout@@UAE_NHPAUQUObject@@@Z 00533810 f   qt-mt323:qt-mt323.dll
 0002:000c5816       ?qt_property@QButtonGroup@@UAE_NHHPAVQVariant@@@Z 00533816 f   qt-mt323:qt-mt323.dll
 0002:000c581c       ?qt_property@QHBoxLayout@@UAE_NHHPAVQVariant@@@Z 0053381c f   qt-mt323:qt-mt323.dll
 0002:000c5822       ?qt_property@QPushButton@@UAE_NHHPAVQVariant@@@Z 00533822 f   qt-mt323:qt-mt323.dll
 0002:000c5828       ?qt_property@QRadioButton@@UAE_NHHPAVQVariant@@@Z 00533828 f   qt-mt323:qt-mt323.dll
 0002:000c582e       ?qt_property@QVBoxLayout@@UAE_NHHPAVQVariant@@@Z 0053382e f   qt-mt323:qt-mt323.dll
 0002:000c5834       ?resize@QPushButton@@UAEXHH@Z 00533834 f   qt-mt323:qt-mt323.dll
 0002:000c583a       ?resize@QWidget@@UAEXHH@Z  0053383a f   qt-mt323:qt-mt323.dll
 0002:000c5840       ?resizeEvent@QGroupBox@@MAEXPAVQResizeEvent@@@Z 00533840 f   qt-mt323:qt-mt323.dll
 0002:000c5846       ?resizeEvent@QPushButton@@MAEXPAVQResizeEvent@@@Z 00533846 f   qt-mt323:qt-mt323.dll
 0002:000c584c       ?resizeEvent@QRadioButton@@MAEXPAVQResizeEvent@@@Z 0053384c f   qt-mt323:qt-mt323.dll
 0002:000c5852       ?setAccel@QButton@@UAEXABVQKeySequence@@@Z 00533852 f   qt-mt323:qt-mt323.dll
 0002:000c5858       ?setAlignment@QGroupBox@@UAEXH@Z 00533858 f   qt-mt323:qt-mt323.dll
 0002:000c585e       ?setAlignment@QLayoutItem@@UAEXH@Z 0053385e f   qt-mt323:qt-mt323.dll
 0002:000c5864       ?setAutoAdd@QLayout@@UAEX_N@Z 00533864 f   qt-mt323:qt-mt323.dll
 0002:000c586a       ?setAutoDefault@QPushButton@@UAEX_N@Z 0053386a f   qt-mt323:qt-mt323.dll
 0002:000c5870       ?setAutoRepeat@QButton@@UAEX_N@Z 00533870 f   qt-mt323:qt-mt323.dll
 0002:000c5876       ?setButton@QButtonGroup@@UAEXH@Z 00533876 f   qt-mt323:qt-mt323.dll
 0002:000c587c       ?setChecked@QRadioButton@@UAEX_N@Z 0053387c f   qt-mt323:qt-mt323.dll
 0002:000c5882       ?setColumnLayout@QGroupBox@@UAEXHW4Orientation@Qt@@@Z 00533882 f   qt-mt323:qt-mt323.dll
 0002:000c5888       ?setDefault@QPushButton@@UAEX_N@Z 00533888 f   qt-mt323:qt-mt323.dll
 0002:000c588e       ?setDown@QButton@@UAEX_N@Z 0053388e f   qt-mt323:qt-mt323.dll
 0002:000c5894       ?setEnabled@QGroupBox@@UAEX_N@Z 00533894 f   qt-mt323:qt-mt323.dll
 0002:000c589a       ?setExclusive@QButtonGroup@@UAEX_N@Z 0053389a f   qt-mt323:qt-mt323.dll
 0002:000c58a0       ?setGeometry@QBoxLayout@@UAEXABVQRect@@@Z 005338a0 f   qt-mt323:qt-mt323.dll
 0002:000c58a6       ?setGeometry@QPushButton@@UAEXABVQRect@@@Z 005338a6 f   qt-mt323:qt-mt323.dll
 0002:000c58ac       ?setGeometry@QPushButton@@UAEXHHHH@Z 005338ac f   qt-mt323:qt-mt323.dll
 0002:000c58b2       ?setGeometry@QSpacerItem@@UAEXABVQRect@@@Z 005338b2 f   qt-mt323:qt-mt323.dll
 0002:000c58b8       ?setGroup@QButton@@EAEXPAVQButtonGroup@@@Z 005338b8 f   qt-mt323:qt-mt323.dll
 0002:000c58be       ?setIsMenuButton@QPushButton@@UAEX_N@Z 005338be f   qt-mt323:qt-mt323.dll
 0002:000c58c4       ?setMargin@QLayout@@UAEXH@Z 005338c4 f   qt-mt323:qt-mt323.dll
 0002:000c58ca       ?setMenuBar@QLayout@@UAEXPAVQMenuBar@@@Z 005338ca f   qt-mt323:qt-mt323.dll
 0002:000c58d0       ?setOn@QPushButton@@UAEX_N@Z 005338d0 f   qt-mt323:qt-mt323.dll
 0002:000c58d6       ?setPixmap@QButton@@UAEXABVQPixmap@@@Z 005338d6 f   qt-mt323:qt-mt323.dll
 0002:000c58dc       ?setRadioButtonExclusive@QButtonGroup@@UAEX_N@Z 005338dc f   qt-mt323:qt-mt323.dll
 0002:000c58e2       ?setSpacing@QLayout@@UAEXH@Z 005338e2 f   qt-mt323:qt-mt323.dll
 0002:000c58e8       ?setState@QButton@@MAEXW4ToggleState@1@@Z 005338e8 f   qt-mt323:qt-mt323.dll
 0002:000c58ee       ?setText@QButton@@UAEXABVQString@@@Z 005338ee f   qt-mt323:qt-mt323.dll
 0002:000c58f4       ?setTitle@QGroupBox@@UAEXABVQString@@@Z 005338f4 f   qt-mt323:qt-mt323.dll
 0002:000c58fa       ?setToggleType@QButton@@MAEXW4ToggleType@1@@Z 005338fa f   qt-mt323:qt-mt323.dll
 0002:000c5900       ?show@QWidget@@UAEXXZ      00533900 f   qt-mt323:qt-mt323.dll
 0002:000c5906       ?sizeHint@QBoxLayout@@UBE?AVQSize@@XZ 00533906 f   qt-mt323:qt-mt323.dll
 0002:000c590c       ?sizeHint@QGroupBox@@UBE?AVQSize@@XZ 0053390c f   qt-mt323:qt-mt323.dll
 0002:000c5912       ?sizeHint@QPushButton@@UBE?AVQSize@@XZ 00533912 f   qt-mt323:qt-mt323.dll
 0002:000c5918       ?sizeHint@QRadioButton@@UBE?AVQSize@@XZ 00533918 f   qt-mt323:qt-mt323.dll
 0002:000c591e       ?sizeHint@QSpacerItem@@UBE?AVQSize@@XZ 0053391e f   qt-mt323:qt-mt323.dll
 0002:000c5924       ?spacerItem@QLayoutItem@@UAEPAVQSpacerItem@@XZ 00533924 f   qt-mt323:qt-mt323.dll
 0002:000c592a       ?spacerItem@QSpacerItem@@UAEPAV1@XZ 0053392a f   qt-mt323:qt-mt323.dll
 0002:000c5930       ?styleChange@QFrame@@MAEXAAVQStyle@@@Z 00533930 f   qt-mt323:qt-mt323.dll
 0002:000c5936       ?updateMask@QPushButton@@MAEXXZ 00533936 f   qt-mt323:qt-mt323.dll
 0002:000c593c       ?updateMask@QRadioButton@@MAEXXZ 0053393c f   qt-mt323:qt-mt323.dll
 0002:000c5942       ?widget@QLayoutItem@@UAEPAVQWidget@@XZ 00533942 f   qt-mt323:qt-mt323.dll
 0002:000c5948       ?arg@QString@@QBE?AV1@HHH@Z 00533948 f   qt-mt323:qt-mt323.dll
 0002:000c594e       ?endsWith@QString@@QBE_NABV1@@Z 0053394e f   qt-mt323:qt-mt323.dll
 0002:000c5954       ??0QPoint@@QAE@XZ          00533954 f   qt-mt323:qt-mt323.dll
 0002:000c595a       ?x@QPoint@@QBEHXZ          0053395a f   qt-mt323:qt-mt323.dll
 0002:000c5960       ?y@QPoint@@QBEHXZ          00533960 f   qt-mt323:qt-mt323.dll
 0002:000c5966       ?width@QSize@@QBEHXZ       00533966 f   qt-mt323:qt-mt323.dll
 0002:000c596c       ?height@QSize@@QBEHXZ      0053396c f   qt-mt323:qt-mt323.dll
 0002:000c5972       ??0QRect@@QAE@XZ           00533972 f   qt-mt323:qt-mt323.dll
 0002:000c5978       ??0QRect@@QAE@HHHH@Z       00533978 f   qt-mt323:qt-mt323.dll
 0002:000c597e       ?width@QRect@@QBEHXZ       0053397e f   qt-mt323:qt-mt323.dll
 0002:000c5984       ?height@QRect@@QBEHXZ      00533984 f   qt-mt323:qt-mt323.dll
 0002:000c598a       ?globalPos@QMouseEvent@@QBEABVQPoint@@XZ 0053398a f   qt-mt323:qt-mt323.dll
 0002:000c5990       ?x@QMouseEvent@@QBEHXZ     00533990 f   qt-mt323:qt-mt323.dll
 0002:000c5996       ?y@QMouseEvent@@QBEHXZ     00533996 f   qt-mt323:qt-mt323.dll
 0002:000c599c       ?size@QResizeEvent@@QBEABVQSize@@XZ 0053399c f   qt-mt323:qt-mt323.dll
 0002:000c59a2       ?name@QObject@@QBEPBDXZ    005339a2 f   qt-mt323:qt-mt323.dll
 0002:000c59a8       ??0QBrush@@QAE@ABVQColor@@W4BrushStyle@Qt@@@Z 005339a8 f   qt-mt323:qt-mt323.dll
 0002:000c59ae       ??1QBrush@@QAE@XZ          005339ae f   qt-mt323:qt-mt323.dll
 0002:000c59b4       ??0QWidget@@QAE@PAV0@PBDI@Z 005339b4 f   qt-mt323:qt-mt323.dll
 0002:000c59ba       ??1QWidget@@UAE@XZ         005339ba f   qt-mt323:qt-mt323.dll
 0002:000c59c0       ?geometry@QWidget@@QBEABVQRect@@XZ 005339c0 f   qt-mt323:qt-mt323.dll
 0002:000c59c6       ?x@QWidget@@QBEHXZ         005339c6 f   qt-mt323:qt-mt323.dll
 0002:000c59cc       ?y@QWidget@@QBEHXZ         005339cc f   qt-mt323:qt-mt323.dll
 0002:000c59d2       ?pos@QWidget@@QBE?AVQPoint@@XZ 005339d2 f   qt-mt323:qt-mt323.dll
 0002:000c59d8       ?width@QWidget@@QBEHXZ     005339d8 f   qt-mt323:qt-mt323.dll
 0002:000c59de       ?height@QWidget@@QBEHXZ    005339de f   qt-mt323:qt-mt323.dll
 0002:000c59e4       ?rect@QWidget@@QBE?AVQRect@@XZ 005339e4 f   qt-mt323:qt-mt323.dll
 0002:000c59ea       ?raise@QWidget@@QAEXXZ     005339ea f   qt-mt323:qt-mt323.dll
 0002:000c59f0       ??0QPainter@@QAE@PBVQPaintDevice@@_N@Z 005339f0 f   qt-mt323:qt-mt323.dll
 0002:000c59f6       ??0QPainter@@QAE@PBVQPaintDevice@@PBVQWidget@@_N@Z 005339f6 f   qt-mt323:qt-mt323.dll
 0002:000c59fc       ??1QPainter@@QAE@XZ        005339fc f   qt-mt323:qt-mt323.dll
 0002:000c5a02       ?setPen@QPainter@@QAEXABVQColor@@@Z 00533a02 f   qt-mt323:qt-mt323.dll
 0002:000c5a08       ?setBrush@QPainter@@QAEXABVQColor@@@Z 00533a08 f   qt-mt323:qt-mt323.dll
 0002:000c5a0e       ?drawRect@QPainter@@QAEXHHHH@Z 00533a0e f   qt-mt323:qt-mt323.dll
 0002:000c5a14       ?drawRect@QPainter@@QAEXABVQRect@@@Z 00533a14 f   qt-mt323:qt-mt323.dll
 0002:000c5a1a       ?fillRect@QPainter@@QAEXABVQRect@@ABVQBrush@@@Z 00533a1a f   qt-mt323:qt-mt323.dll
 0002:000c5a20       ??0QCursor@@QAE@H@Z        00533a20 f   qt-mt323:qt-mt323.dll
 0002:000c5a26       ??1QCursor@@QAE@XZ         00533a26 f   qt-mt323:qt-mt323.dll
 0002:000c5a2c       ??0QBitmap@@QAE@ABVQSize@@_NW4Optimization@QPixmap@@@Z 00533a2c f   qt-mt323:qt-mt323.dll
 0002:000c5a32       ??1QBitmap@@UAE@XZ         00533a32 f   qt-mt323:qt-mt323.dll
 0002:000c5a38       ?sizeHint@QWidget@@UBE?AVQSize@@XZ 00533a38 f   qt-mt323:qt-mt323.dll
 0002:000c5a3e       ??9?$QValueListIterator@VQString@@@@QBE_NABV0@@Z 00533a3e f   qt-mt323:qt-mt323.dll
 0002:000c5a44       ??D?$QValueListIterator@VQString@@@@QAEAAVQString@@XZ 00533a44 f   qt-mt323:qt-mt323.dll
 0002:000c5a4a       ??E?$QValueListIterator@VQString@@@@QAEAAV0@XZ 00533a4a f   qt-mt323:qt-mt323.dll
 0002:000c5a50       ?begin@?$QValueList@VQString@@@@QAE?AV?$QValueListIterator@VQString@@@@XZ 00533a50 f   qt-mt323:qt-mt323.dll
 0002:000c5a56       ?end@?$QValueList@VQString@@@@QAE?AV?$QValueListIterator@VQString@@@@XZ 00533a56 f   qt-mt323:qt-mt323.dll
 0002:000c5a5c       ?exists@QFileInfo@@QBE_NXZ 00533a5c f   qt-mt323:qt-mt323.dll
 0002:000c5a62       ?baseName@QFileInfo@@QBE?AVQString@@_N@Z 00533a62 f   qt-mt323:qt-mt323.dll
 0002:000c5a68       ??0QDir@@QAE@ABVQString@@0HH@Z 00533a68 f   qt-mt323:qt-mt323.dll
 0002:000c5a6e       ??1QDir@@UAE@XZ            00533a6e f   qt-mt323:qt-mt323.dll
 0002:000c5a74       ?entryList@QDir@@UBE?AVQStringList@@ABVQString@@HH@Z 00533a74 f   qt-mt323:qt-mt323.dll
 0002:000c5a7a       ??0QPixmap@@QAE@ABVQString@@PBDW4ColorMode@0@@Z 00533a7a f   qt-mt323:qt-mt323.dll
 0002:000c5a80       ??1QPixmap@@UAE@XZ         00533a80 f   qt-mt323:qt-mt323.dll
 0002:000c5a86       ??0QIconViewItem@@QAE@PAVQIconView@@ABVQString@@@Z 00533a86 f   qt-mt323:qt-mt323.dll
 0002:000c5a8c       ??0QIconViewItem@@QAE@PAVQIconView@@ABVQString@@ABVQPixmap@@@Z 00533a8c f   qt-mt323:qt-mt323.dll
 0002:000c5a92       ??1QIconViewItem@@UAE@XZ   00533a92 f   qt-mt323:qt-mt323.dll
 0002:000c5a98       ?currentItem@QIconView@@QBEPAVQIconViewItem@@XZ 00533a98 f   qt-mt323:qt-mt323.dll
 0002:000c5a9e       ?acceptDrop@QIconViewItem@@UBE_NPBVQMimeSource@@@Z 00533a9e f   qt-mt323:qt-mt323.dll
 0002:000c5aa4       ?calcRect@QIconViewItem@@MAEXABVQString@@@Z 00533aa4 f   qt-mt323:qt-mt323.dll
 0002:000c5aaa       ?compare@QIconViewItem@@UBEHPAV1@@Z 00533aaa f   qt-mt323:qt-mt323.dll
 0002:000c5ab0       ?dragEntered@QIconViewItem@@MAEXXZ 00533ab0 f   qt-mt323:qt-mt323.dll
 0002:000c5ab6       ?dragLeft@QIconViewItem@@MAEXXZ 00533ab6 f   qt-mt323:qt-mt323.dll
 0002:000c5abc       ?dropped@QIconViewItem@@MAEXPAVQDropEvent@@ABV?$QValueList@VQIconDragItem@@@@@Z 00533abc f   qt-mt323:qt-mt323.dll
 0002:000c5ac2       ?key@QIconViewItem@@UBE?AVQString@@XZ 00533ac2 f   qt-mt323:qt-mt323.dll
 0002:000c5ac8       ?move@QIconViewItem@@UAE_NABVQPoint@@@Z 00533ac8 f   qt-mt323:qt-mt323.dll
 0002:000c5ace       ?move@QIconViewItem@@UAE_NHH@Z 00533ace f   qt-mt323:qt-mt323.dll
 0002:000c5ad4       ?moveBy@QIconViewItem@@UAEXABVQPoint@@@Z 00533ad4 f   qt-mt323:qt-mt323.dll
 0002:000c5ada       ?moveBy@QIconViewItem@@UAEXHH@Z 00533ada f   qt-mt323:qt-mt323.dll
 0002:000c5ae0       ?paintFocus@QIconViewItem@@MAEXPAVQPainter@@ABVQColorGroup@@@Z 00533ae0 f   qt-mt323:qt-mt323.dll
 0002:000c5ae6       ?paintItem@QIconViewItem@@MAEXPAVQPainter@@ABVQColorGroup@@@Z 00533ae6 f   qt-mt323:qt-mt323.dll
 0002:000c5aec       ?picture@QIconViewItem@@UBEPAVQPicture@@XZ 00533aec f   qt-mt323:qt-mt323.dll
 0002:000c5af2       ?pixmap@QIconViewItem@@UBEPAVQPixmap@@XZ 00533af2 f   qt-mt323:qt-mt323.dll
 0002:000c5af8       ?removeRenameBox@QIconViewItem@@MAEXXZ 00533af8 f   qt-mt323:qt-mt323.dll
 0002:000c5afe       ?repaint@QIconViewItem@@UAEXXZ 00533afe f   qt-mt323:qt-mt323.dll
 0002:000c5b04       ?rtti@QIconViewItem@@UBEHXZ 00533b04 f   qt-mt323:qt-mt323.dll
 0002:000c5b0a       ?setDragEnabled@QIconViewItem@@UAEX_N@Z 00533b0a f   qt-mt323:qt-mt323.dll
 0002:000c5b10       ?setDropEnabled@QIconViewItem@@UAEX_N@Z 00533b10 f   qt-mt323:qt-mt323.dll
 0002:000c5b16       ?setKey@QIconViewItem@@UAEXABVQString@@@Z 00533b16 f   qt-mt323:qt-mt323.dll
 0002:000c5b1c       ?setPicture@QIconViewItem@@UAEXABVQPicture@@@Z 00533b1c f   qt-mt323:qt-mt323.dll
 0002:000c5b22       ?setPixmap@QIconViewItem@@UAEXABVQPixmap@@@Z 00533b22 f   qt-mt323:qt-mt323.dll
 0002:000c5b28       ?setPixmap@QIconViewItem@@UAEXABVQPixmap@@_N1@Z 00533b28 f   qt-mt323:qt-mt323.dll
 0002:000c5b2e       ?setRenameEnabled@QIconViewItem@@UAEX_N@Z 00533b2e f   qt-mt323:qt-mt323.dll
 0002:000c5b34       ?setSelectable@QIconViewItem@@UAEX_N@Z 00533b34 f   qt-mt323:qt-mt323.dll
 0002:000c5b3a       ?setSelected@QIconViewItem@@UAEX_N0@Z 00533b3a f   qt-mt323:qt-mt323.dll
 0002:000c5b40       ?setSelected@QIconViewItem@@UAEX_N@Z 00533b40 f   qt-mt323:qt-mt323.dll
 0002:000c5b46       ?setText@QIconViewItem@@UAEXABVQString@@@Z 00533b46 f   qt-mt323:qt-mt323.dll
 0002:000c5b4c       ?setText@QIconViewItem@@UAEXABVQString@@_N1@Z 00533b4c f   qt-mt323:qt-mt323.dll
 0002:000c5b52       ?text@QIconViewItem@@UBE?AVQString@@XZ 00533b52 f   qt-mt323:qt-mt323.dll
 0002:000c5b58       ??0QColor@@QAE@HHH@Z       00533b58 f   qt-mt323:qt-mt323.dll
 0002:000c5b5e       ?isValid@QColor@@QBE_NXZ   00533b5e f   qt-mt323:qt-mt323.dll
 0002:000c5b64       ?red@QColor@@QBEHXZ        00533b64 f   qt-mt323:qt-mt323.dll
 0002:000c5b6a       ?green@QColor@@QBEHXZ      00533b6a f   qt-mt323:qt-mt323.dll
 0002:000c5b70       ?blue@QColor@@QBEHXZ       00533b70 f   qt-mt323:qt-mt323.dll
 0002:000c5b76       ?setPaletteForegroundColor@QWidget@@QAEXABVQColor@@@Z 00533b76 f   qt-mt323:qt-mt323.dll
 0002:000c5b7c       ?paletteBackgroundColor@QWidget@@QBEABVQColor@@XZ 00533b7c f   qt-mt323:qt-mt323.dll
 0002:000c5b82       ?getColor@QColorDialog@@SA?AVQColor@@ABV2@PAVQWidget@@PBD@Z 00533b82 f   qt-mt323:qt-mt323.dll
 0002:000c5b88       ??0QPoint@@QAE@HH@Z        00533b88 f   qt-mt323:qt-mt323.dll
 0002:000c5b8e       ?size@QWidget@@QBE?AVQSize@@XZ 00533b8e f   qt-mt323:qt-mt323.dll
 0002:000c5b94       ?setPos@QCursor@@SAXABVQPoint@@@Z 00533b94 f   qt-mt323:qt-mt323.dll
 0002:000c5b9a       ??0QPen@@QAE@ABVQColor@@IW4PenStyle@Qt@@@Z 00533b9a f   qt-mt323:qt-mt323.dll
 0002:000c5ba0       ??1QPen@@QAE@XZ            00533ba0 f   qt-mt323:qt-mt323.dll
 0002:000c5ba6       ?setPen@QPainter@@QAEXABVQPen@@@Z 00533ba6 f   qt-mt323:qt-mt323.dll
 0002:000c5bac       ?resizeEvent@QWidget@@MAEXPAVQResizeEvent@@@Z 00533bac f   qt-mt323:qt-mt323.dll
 0002:000c5bb2       ?remove@QString@@QAEAAV1@PBD@Z 00533bb2 f   qt-mt323:qt-mt323.dll
 0002:000c5bb8       ??M@YA_NABVQString@@0@Z    00533bb8 f   qt-mt323:qt-mt323.dll
 0002:000c5bbe       ?append@?$QValueList@VQString@@@@QAE?AV?$QValueListIterator@VQString@@@@ABVQString@@@Z 00533bbe f   qt-mt323:qt-mt323.dll
 0002:000c5bc4       ??0QStringList@@QAE@XZ     00533bc4 f   qt-mt323:qt-mt323.dll
 0002:000c5bca       ??0QStringList@@QAE@ABV0@@Z 00533bca f   qt-mt323:qt-mt323.dll
 0002:000c5bd0       ??0QListViewItem@@QAE@PAV0@VQString@@1111111@Z 00533bd0 f   qt-mt323:qt-mt323.dll
 0002:000c5bd6       ?setX@QPoint@@QAEXH@Z      00533bd6 f   qt-mt323:qt-mt323.dll
 0002:000c5bdc       ?setY@QPoint@@QAEXH@Z      00533bdc f   qt-mt323:qt-mt323.dll
 0002:000c5be2       ??0QRect@@QAE@ABVQPoint@@ABVQSize@@@Z 00533be2 f   qt-mt323:qt-mt323.dll
 0002:000c5be8       ??0QFrame@@QAE@PAVQWidget@@PBDI@Z 00533be8 f   qt-mt323:qt-mt323.dll
 0002:000c5bee       ??1QFrame@@UAE@XZ          00533bee f   qt-mt323:qt-mt323.dll
 0002:000c5bf4       ?className@QFrame@@UBEPBDXZ 00533bf4 f   qt-mt323:qt-mt323.dll
 0002:000c5bfa       ?className@QWidget@@UBEPBDXZ 00533bfa f   qt-mt323:qt-mt323.dll
 0002:000c5c00       ?metaObject@QFrame@@UBEPAVQMetaObject@@XZ 00533c00 f   qt-mt323:qt-mt323.dll
 0002:000c5c06       ?metaObject@QWidget@@UBEPAVQMetaObject@@XZ 00533c06 f   qt-mt323:qt-mt323.dll
 0002:000c5c0c       ?qt_cast@QFrame@@UAEPAXPBD@Z 00533c0c f   qt-mt323:qt-mt323.dll
 0002:000c5c12       ?qt_cast@QWidget@@UAEPAXPBD@Z 00533c12 f   qt-mt323:qt-mt323.dll
 0002:000c5c18       ?qt_emit@QFrame@@UAE_NHPAUQUObject@@@Z 00533c18 f   qt-mt323:qt-mt323.dll
 0002:000c5c1e       ?qt_emit@QWidget@@UAE_NHPAUQUObject@@@Z 00533c1e f   qt-mt323:qt-mt323.dll
 0002:000c5c24       ?qt_invoke@QFrame@@UAE_NHPAUQUObject@@@Z 00533c24 f   qt-mt323:qt-mt323.dll
 0002:000c5c2a       ?qt_invoke@QWidget@@UAE_NHPAUQUObject@@@Z 00533c2a f   qt-mt323:qt-mt323.dll
 0002:000c5c30       ?qt_property@QFrame@@UAE_NHHPAVQVariant@@@Z 00533c30 f   qt-mt323:qt-mt323.dll
 0002:000c5c36       ?qt_property@QWidget@@UAE_NHHPAVQVariant@@@Z 00533c36 f   qt-mt323:qt-mt323.dll
 0002:000c5c3c       ?resizeEvent@QFrame@@MAEXPAVQResizeEvent@@@Z 00533c3c f   qt-mt323:qt-mt323.dll
 0002:000c5c42       ?sizeHint@QFrame@@UBE?AVQSize@@XZ 00533c42 f   qt-mt323:qt-mt323.dll
 0002:000c5c48       ?lower@QString@@QBE?AV1@XZ 00533c48 f   qt-mt323:qt-mt323.dll
 0002:000c5c4e       ??6?$QValueList@VQString@@@@QAEAAV0@ABVQString@@@Z 00533c4e f   qt-mt323:qt-mt323.dll
 0002:000c5c54       ??0QStringList@@QAE@ABV?$QValueList@VQString@@@@@Z 00533c54 f   qt-mt323:qt-mt323.dll
 0002:000c5c5a       ?critical@QMessageBox@@SAHPAVQWidget@@ABVQString@@1111HH@Z 00533c5a f   qt-mt323:qt-mt323.dll
 0002:000c5c60       ?setIconPixmap@QMessageBox@@QAEXABVQPixmap@@@Z 00533c60 f   qt-mt323:qt-mt323.dll
 0002:000c5c66       ?argc@QApplication@@QBEHXZ 00533c66 f   qt-mt323:qt-mt323.dll
 0002:000c5c6c       ?argv@QApplication@@QBEPAPADXZ 00533c6c f   qt-mt323:qt-mt323.dll
 0002:000c5c72       ?setStyle@QApplication@@SAPAVQStyle@@ABVQString@@@Z 00533c72 f   qt-mt323:qt-mt323.dll
 0002:000c5c78       ?setMainWidget@QApplication@@UAEXPAVQWidget@@@Z 00533c78 f   qt-mt323:qt-mt323.dll
 0002:000c5c7e       ?exec@QApplication@@QAEHXZ 00533c7e f   qt-mt323:qt-mt323.dll
 0002:000c5c84       ?setLibraryPaths@QApplication@@SAXABVQStringList@@@Z 00533c84 f   qt-mt323:qt-mt323.dll
 0002:000c5c8a       ?show@QMainWindow@@UAEXXZ  00533c8a f   qt-mt323:qt-mt323.dll
 0002:000c5c90       ??0QPixmap@@QAE@QAPBD@Z    00533c90 f   qt-mt323:qt-mt323.dll
 0002:000c5c96       ?simplifyWhiteSpace@QString@@QBE?AV1@XZ 00533c96 f   qt-mt323:qt-mt323.dll
 0002:000c5c9c       ?timerId@QTimerEvent@@QBEHXZ 00533c9c f   qt-mt323:qt-mt323.dll
 0002:000c5ca2       ?blockSignals@QObject@@QAEX_N@Z 00533ca2 f   qt-mt323:qt-mt323.dll
 0002:000c5ca8       ?startTimer@QObject@@QAEHH@Z 00533ca8 f   qt-mt323:qt-mt323.dll
 0002:000c5cae       ?killTimer@QObject@@QAEXH@Z 00533cae f   qt-mt323:qt-mt323.dll
 0002:000c5cb4       ?first@?$QPtrList@VQWidget@@@@QAEPAVQWidget@@XZ 00533cb4 f   qt-mt323:qt-mt323.dll
 0002:000c5cba       ?next@?$QPtrList@VQWidget@@@@QAEPAVQWidget@@XZ 00533cba f   qt-mt323:qt-mt323.dll
 0002:000c5cc0       ?insertItem@QListBox@@QAEXPBVQListBoxItem@@H@Z 00533cc0 f   qt-mt323:qt-mt323.dll
 0002:000c5cc6       ?insertItem@QListBox@@QAEXABVQString@@H@Z 00533cc6 f   qt-mt323:qt-mt323.dll
 0002:000c5ccc       ?findItem@QListBox@@QBEPAVQListBoxItem@@ABVQString@@I@Z 00533ccc f   qt-mt323:qt-mt323.dll
 0002:000c5cd2       ?sort@QListBox@@QAEX_N@Z   00533cd2 f   qt-mt323:qt-mt323.dll
 0002:000c5cd8       ?clear@QListBox@@QAEXXZ    00533cd8 f   qt-mt323:qt-mt323.dll
 0002:000c5cde       ??0QListBoxText@@QAE@ABVQString@@@Z 00533cde f   qt-mt323:qt-mt323.dll
 0002:000c5ce4       ??1QListBoxText@@UAE@XZ    00533ce4 f   qt-mt323:qt-mt323.dll
 0002:000c5cea       ??0QWidgetList@@QAE@ABV0@@Z 00533cea f   qt-mt323:qt-mt323.dll
 0002:000c5cf0       ??1QWidgetList@@UAE@XZ     00533cf0 f   qt-mt323:qt-mt323.dll
 0002:000c5cf6       ?getText@QInputDialog@@SA?AVQString@@ABV2@0W4EchoMode@QLineEdit@@0PA_NPAVQWidget@@PBD@Z 00533cf6 f   qt-mt323:qt-mt323.dll
 0002:000c5cfc       ?height@QListBoxText@@UBEHPBVQListBox@@@Z 00533cfc f   qt-mt323:qt-mt323.dll
 0002:000c5d02       ?paint@QListBoxText@@MAEXPAVQPainter@@@Z 00533d02 f   qt-mt323:qt-mt323.dll
 0002:000c5d08       ?pixmap@QListBoxItem@@UBEPBVQPixmap@@XZ 00533d08 f   qt-mt323:qt-mt323.dll
 0002:000c5d0e       ?rtti@QListBoxText@@UBEHXZ 00533d0e f   qt-mt323:qt-mt323.dll
 0002:000c5d14       ?setText@QListBoxItem@@MAEXABVQString@@@Z 00533d14 f   qt-mt323:qt-mt323.dll
 0002:000c5d1a       ?text@QListBoxItem@@UBE?AVQString@@XZ 00533d1a f   qt-mt323:qt-mt323.dll
 0002:000c5d20       ?width@QListBoxText@@UBEHPBVQListBox@@@Z 00533d20 f   qt-mt323:qt-mt323.dll
 0002:000c5d26       ??0QCString@@QAE@PBD@Z     00533d26 f   qt-mt323:qt-mt323.dll
 0002:000c5d2c       ??1QCString@@UAE@XZ        00533d2c f   qt-mt323:qt-mt323.dll
 0002:000c5d32       ?isNull@QString@@QBE_NXZ   00533d32 f   qt-mt323:qt-mt323.dll
 0002:000c5d38       ?arg@QString@@QBE?AV1@IHH@Z 00533d38 f   qt-mt323:qt-mt323.dll
 0002:000c5d3e       ?find@QString@@QBEHPBDH@Z  00533d3e f   qt-mt323:qt-mt323.dll
 0002:000c5d44       ?right@QString@@QBE?AV1@I@Z 00533d44 f   qt-mt323:qt-mt323.dll
 0002:000c5d4a       ?remove@QString@@QAEAAV1@II@Z 00533d4a f   qt-mt323:qt-mt323.dll
 0002:000c5d50       ??0?$QMap@VQString@@H@@QAE@XZ 00533d50 f   qt-mt323:qt-mt323.dll
 0002:000c5d56       ??1?$QMap@VQString@@H@@QAE@XZ 00533d56 f   qt-mt323:qt-mt323.dll
 0002:000c5d5c       ?end@?$QMap@VQString@@H@@QAE?AV?$QMapIterator@VQString@@H@@XZ 00533d5c f   qt-mt323:qt-mt323.dll
 0002:000c5d62       ??A?$QMap@VQString@@H@@QAEAAHABVQString@@@Z 00533d62 f   qt-mt323:qt-mt323.dll
 0002:000c5d68       ?find@?$QMap@VQString@@H@@QAE?AV?$QMapIterator@VQString@@H@@ABVQString@@@Z 00533d68 f   qt-mt323:qt-mt323.dll
 0002:000c5d6e       ?updateContents@QScrollView@@QAEXXZ 00533d6e f   qt-mt323:qt-mt323.dll
 0002:000c5d74       ?count@QGDict@@UBEIXZ      00533d74 f   qt-mt323:qt-mt323.dll
 0002:000c5d7a       ?look_int@QGDict@@QAEPAXJPAXH@Z 00533d7a f   qt-mt323:qt-mt323.dll
 0002:000c5d80       ??0QGDict@@IAE@IW4KeyType@0@_N1@Z 00533d80 f   qt-mt323:qt-mt323.dll
 0002:000c5d86       ??1QGDict@@MAE@XZ          00533d86 f   qt-mt323:qt-mt323.dll
 0002:000c5d8c       ?remove_int@QGDict@@IAE_NJPAX@Z 00533d8c f   qt-mt323:qt-mt323.dll
 0002:000c5d92       ?clear@QGDict@@MAEXXZ      00533d92 f   qt-mt323:qt-mt323.dll
 0002:000c5d98       ?topRow@QTableSelection@@QBEHXZ 00533d98 f   qt-mt323:qt-mt323.dll
 0002:000c5d9e       ?bottomRow@QTableSelection@@QBEHXZ 00533d9e f   qt-mt323:qt-mt323.dll
 0002:000c5da4       ?leftCol@QTableSelection@@QBEHXZ 00533da4 f   qt-mt323:qt-mt323.dll
 0002:000c5daa       ?rightCol@QTableSelection@@QBEHXZ 00533daa f   qt-mt323:qt-mt323.dll
 0002:000c5db0       ?isChecked@QCheckTableItem@@QBE_NXZ 00533db0 f   qt-mt323:qt-mt323.dll
 0002:000c5db6       ??0QTable@@QAE@PAVQWidget@@PBD@Z 00533db6 f   qt-mt323:qt-mt323.dll
 0002:000c5dbc       ??0QTable@@QAE@HHPAVQWidget@@PBD@Z 00533dbc f   qt-mt323:qt-mt323.dll
 0002:000c5dc2       ??1QTable@@UAE@XZ          00533dc2 f   qt-mt323:qt-mt323.dll
 0002:000c5dc8       ?currentRow@QTable@@QBEHXZ 00533dc8 f   qt-mt323:qt-mt323.dll
 0002:000c5dce       ?currentColumn@QTable@@QBEHXZ 00533dce f   qt-mt323:qt-mt323.dll
 0002:000c5dd4       ?isSelected@QTable@@QBE_NHH@Z 00533dd4 f   qt-mt323:qt-mt323.dll
 0002:000c5dda       ?numSelections@QTable@@QBEHXZ 00533dda f   qt-mt323:qt-mt323.dll
 0002:000c5de0       ?selection@QTable@@QBE?AVQTableSelection@@H@Z 00533de0 f   qt-mt323:qt-mt323.dll
 0002:000c5de6       ?paintCell@QTable@@UAEXPAVQPainter@@HHABVQRect@@_NABVQColorGroup@@@Z 00533de6 f   qt-mt323:qt-mt323.dll
 0002:000c5dec       ?isColumnReadOnly@QTable@@QBE_NH@Z 00533dec f   qt-mt323:qt-mt323.dll
 0002:000c5df2       ?endEdit@QTable@@MAEXHH_N0@Z 00533df2 f   qt-mt323:qt-mt323.dll
 0002:000c5df8       ?text@QClipboard@@QBE?AVQString@@AAVQCString@@W4Mode@1@@Z 00533df8 f   qt-mt323:qt-mt323.dll
 0002:000c5dfe       ??0QPen@@QAE@XZ            00533dfe f   qt-mt323:qt-mt323.dll
 0002:000c5e04       ?setWidth@QPen@@QAEXI@Z    00533e04 f   qt-mt323:qt-mt323.dll
 0002:000c5e0a       ?setColor@QPen@@QAEXABVQColor@@@Z 00533e0a f   qt-mt323:qt-mt323.dll
 0002:000c5e10       ?drawLine@QPainter@@QAEXHHHH@Z 00533e10 f   qt-mt323:qt-mt323.dll
 0002:000c5e16       ?activateNextCell@QTable@@MAEXXZ 00533e16 f   qt-mt323:qt-mt323.dll
 0002:000c5e1c       ?addSelection@QTable@@UAEHABVQTableSelection@@@Z 00533e1c f   qt-mt323:qt-mt323.dll
 0002:000c5e22       ?adjustColumn@QTable@@UAEXH@Z 00533e22 f   qt-mt323:qt-mt323.dll
 0002:000c5e28       ?adjustRow@QTable@@UAEXH@Z 00533e28 f   qt-mt323:qt-mt323.dll
 0002:000c5e2e       ?beginEdit@QTable@@MAEPAVQWidget@@HH_N@Z 00533e2e f   qt-mt323:qt-mt323.dll
 0002:000c5e34       ?cellGeometry@QTable@@UBE?AVQRect@@HH@Z 00533e34 f   qt-mt323:qt-mt323.dll
 0002:000c5e3a       ?cellRect@QTable@@UBE?AVQRect@@HH@Z 00533e3a f   qt-mt323:qt-mt323.dll
 0002:000c5e40       ?cellWidget@QTable@@UBEPAVQWidget@@HH@Z 00533e40 f   qt-mt323:qt-mt323.dll
 0002:000c5e46       ?clearCell@QTable@@UAEXHH@Z 00533e46 f   qt-mt323:qt-mt323.dll
 0002:000c5e4c       ?clearCellWidget@QTable@@UAEXHH@Z 00533e4c f   qt-mt323:qt-mt323.dll
 0002:000c5e52       ?columnAt@QTable@@UBEHH@Z  00533e52 f   qt-mt323:qt-mt323.dll
 0002:000c5e58       ?columnClicked@QTable@@MAEXH@Z 00533e58 f   qt-mt323:qt-mt323.dll
 0002:000c5e5e       ?columnIndexChanged@QTable@@MAEXHHH@Z 00533e5e f   qt-mt323:qt-mt323.dll
 0002:000c5e64       ?columnPos@QTable@@UBEHH@Z 00533e64 f   qt-mt323:qt-mt323.dll
 0002:000c5e6a       ?columnWidth@QTable@@UBEHH@Z 00533e6a f   qt-mt323:qt-mt323.dll
 0002:000c5e70       ?columnWidthChanged@QTable@@MAEXH@Z 00533e70 f   qt-mt323:qt-mt323.dll
 0002:000c5e76       ?contentsContextMenuEvent@QTable@@MAEXPAVQContextMenuEvent@@@Z 00533e76 f   qt-mt323:qt-mt323.dll
 0002:000c5e7c       ?contentsDragEnterEvent@QTable@@MAEXPAVQDragEnterEvent@@@Z 00533e7c f   qt-mt323:qt-mt323.dll
 0002:000c5e82       ?contentsDragLeaveEvent@QTable@@MAEXPAVQDragLeaveEvent@@@Z 00533e82 f   qt-mt323:qt-mt323.dll
 0002:000c5e88       ?contentsDragMoveEvent@QTable@@MAEXPAVQDragMoveEvent@@@Z 00533e88 f   qt-mt323:qt-mt323.dll
 0002:000c5e8e       ?contentsDropEvent@QTable@@MAEXPAVQDropEvent@@@Z 00533e8e f   qt-mt323:qt-mt323.dll
 0002:000c5e94       ?contentsMouseDoubleClickEvent@QTable@@MAEXPAVQMouseEvent@@@Z 00533e94 f   qt-mt323:qt-mt323.dll
 0002:000c5e9a       ?contentsMouseMoveEvent@QTable@@MAEXPAVQMouseEvent@@@Z 00533e9a f   qt-mt323:qt-mt323.dll
 0002:000c5ea0       ?contentsMousePressEvent@QTable@@MAEXPAVQMouseEvent@@@Z 00533ea0 f   qt-mt323:qt-mt323.dll
 0002:000c5ea6       ?contentsMouseReleaseEvent@QTable@@MAEXPAVQMouseEvent@@@Z 00533ea6 f   qt-mt323:qt-mt323.dll
 0002:000c5eac       ?createEditor@QTable@@MBEPAVQWidget@@HH_N@Z 00533eac f   qt-mt323:qt-mt323.dll
 0002:000c5eb2       ?currentSelection@QTable@@UBEHXZ 00533eb2 f   qt-mt323:qt-mt323.dll
 0002:000c5eb8       ?dragObject@QTable@@MAEPAVQDragObject@@XZ 00533eb8 f   qt-mt323:qt-mt323.dll
 0002:000c5ebe       ?drawContents@QTable@@EAEXPAVQPainter@@@Z 00533ebe f   qt-mt323:qt-mt323.dll
 0002:000c5ec4       ?drawContents@QTable@@MAEXPAVQPainter@@HHHH@Z 00533ec4 f   qt-mt323:qt-mt323.dll
 0002:000c5eca       ?editCell@QTable@@UAEXHH_N@Z 00533eca f   qt-mt323:qt-mt323.dll
 0002:000c5ed0       ?eventFilter@QTable@@UAE_NPAVQObject@@PAVQEvent@@@Z 00533ed0 f   qt-mt323:qt-mt323.dll
 0002:000c5ed6       ?focusInEvent@QTable@@MAEXPAVQFocusEvent@@@Z 00533ed6 f   qt-mt323:qt-mt323.dll
 0002:000c5edc       ?focusOutEvent@QTable@@MAEXPAVQFocusEvent@@@Z 00533edc f   qt-mt323:qt-mt323.dll
 0002:000c5ee2       ?hideColumn@QTable@@UAEXH@Z 00533ee2 f   qt-mt323:qt-mt323.dll
 0002:000c5ee8       ?hideRow@QTable@@UAEXH@Z   00533ee8 f   qt-mt323:qt-mt323.dll
 0002:000c5eee       ?insertColumns@QTable@@UAEXHH@Z 00533eee f   qt-mt323:qt-mt323.dll
 0002:000c5ef4       ?insertRows@QTable@@UAEXHH@Z 00533ef4 f   qt-mt323:qt-mt323.dll
 0002:000c5efa       ?insertWidget@QTable@@MAEXHHPAVQWidget@@@Z 00533efa f   qt-mt323:qt-mt323.dll
 0002:000c5f00       ?item@QTable@@UBEPAVQTableItem@@HH@Z 00533f00 f   qt-mt323:qt-mt323.dll
 0002:000c5f06       ?keyPressEvent@QTable@@MAEXPAVQKeyEvent@@@Z 00533f06 f   qt-mt323:qt-mt323.dll
 0002:000c5f0c       ?numCols@QTable@@UBEHXZ    00533f0c f   qt-mt323:qt-mt323.dll
 0002:000c5f12       ?numRows@QTable@@UBEHXZ    00533f12 f   qt-mt323:qt-mt323.dll
 0002:000c5f18       ?paintCell@QTable@@UAEXPAVQPainter@@HHABVQRect@@_N@Z 00533f18 f   qt-mt323:qt-mt323.dll
 0002:000c5f1e       ?paintEmptyArea@QTable@@MAEXPAVQPainter@@HHHH@Z 00533f1e f   qt-mt323:qt-mt323.dll
 0002:000c5f24       ?paintEvent@QTable@@MAEXPAVQPaintEvent@@@Z 00533f24 f   qt-mt323:qt-mt323.dll
 0002:000c5f2a       ?paintFocus@QTable@@UAEXPAVQPainter@@ABVQRect@@@Z 00533f2a f   qt-mt323:qt-mt323.dll
 0002:000c5f30       ?pixmap@QTable@@UBE?AVQPixmap@@HH@Z 00533f30 f   qt-mt323:qt-mt323.dll
 0002:000c5f36       ?read@QGDict@@MAEAAVQDataStream@@AAV2@AAPAX@Z 00533f36 f   qt-mt323:qt-mt323.dll
 0002:000c5f3c       ?removeColumn@QTable@@UAEXH@Z 00533f3c f   qt-mt323:qt-mt323.dll
 0002:000c5f42       ?removeColumns@QTable@@UAEXABV?$QMemArray@H@@@Z 00533f42 f   qt-mt323:qt-mt323.dll
 0002:000c5f48       ?removeRow@QTable@@UAEXH@Z 00533f48 f   qt-mt323:qt-mt323.dll
 0002:000c5f4e       ?removeRows@QTable@@UAEXABV?$QMemArray@H@@@Z 00533f4e f   qt-mt323:qt-mt323.dll
 0002:000c5f54       ?removeSelection@QTable@@UAEXABVQTableSelection@@@Z 00533f54 f   qt-mt323:qt-mt323.dll
 0002:000c5f5a       ?removeSelection@QTable@@UAEXH@Z 00533f5a f   qt-mt323:qt-mt323.dll
 0002:000c5f60       ?resizeData@QTable@@MAEXH@Z 00533f60 f   qt-mt323:qt-mt323.dll
 0002:000c5f66       ?rowAt@QTable@@UBEHH@Z     00533f66 f   qt-mt323:qt-mt323.dll
 0002:000c5f6c       ?rowHeight@QTable@@UBEHH@Z 00533f6c f   qt-mt323:qt-mt323.dll
 0002:000c5f72       ?rowHeightChanged@QTable@@MAEXH@Z 00533f72 f   qt-mt323:qt-mt323.dll
 0002:000c5f78       ?rowIndexChanged@QTable@@MAEXHHH@Z 00533f78 f   qt-mt323:qt-mt323.dll
 0002:000c5f7e       ?rowPos@QTable@@UBEHH@Z    00533f7e f   qt-mt323:qt-mt323.dll
 0002:000c5f84       ?setCellContentFromEditor@QTable@@MAEXHH@Z 00533f84 f   qt-mt323:qt-mt323.dll
 0002:000c5f8a       ?setCellWidget@QTable@@UAEXHHPAVQWidget@@@Z 00533f8a f   qt-mt323:qt-mt323.dll
 0002:000c5f90       ?setColumnMovingEnabled@QTable@@UAEX_N@Z 00533f90 f   qt-mt323:qt-mt323.dll
 0002:000c5f96       ?setColumnReadOnly@QTable@@UAEXH_N@Z 00533f96 f   qt-mt323:qt-mt323.dll
 0002:000c5f9c       ?setColumnStretchable@QTable@@UAEXH_N@Z 00533f9c f   qt-mt323:qt-mt323.dll
 0002:000c5fa2       ?setColumnWidth@QTable@@UAEXHH@Z 00533fa2 f   qt-mt323:qt-mt323.dll
 0002:000c5fa8       ?setCurrentCell@QTable@@UAEXHH@Z 00533fa8 f   qt-mt323:qt-mt323.dll
 0002:000c5fae       ?setDragEnabled@QTable@@UAEX_N@Z 00533fae f   qt-mt323:qt-mt323.dll
 0002:000c5fb4       ?setEnabled@QTable@@UAEX_N@Z 00533fb4 f   qt-mt323:qt-mt323.dll
 0002:000c5fba       ?setFocusStyle@QTable@@UAEXW4FocusStyle@1@@Z 00533fba f   qt-mt323:qt-mt323.dll
 0002:000c5fc0       ?setItem@QTable@@UAEXHHPAVQTableItem@@@Z 00533fc0 f   qt-mt323:qt-mt323.dll
 0002:000c5fc6       ?setLeftMargin@QTable@@UAEXH@Z 00533fc6 f   qt-mt323:qt-mt323.dll
 0002:000c5fcc       ?setNumCols@QTable@@UAEXH@Z 00533fcc f   qt-mt323:qt-mt323.dll
 0002:000c5fd2       ?setNumRows@QTable@@UAEXH@Z 00533fd2 f   qt-mt323:qt-mt323.dll
 0002:000c5fd8       ?setPixmap@QTable@@UAEXHHABVQPixmap@@@Z 00533fd8 f   qt-mt323:qt-mt323.dll
 0002:000c5fde       ?setReadOnly@QTable@@UAEX_N@Z 00533fde f   qt-mt323:qt-mt323.dll
 0002:000c5fe4       ?setRowHeight@QTable@@UAEXHH@Z 00533fe4 f   qt-mt323:qt-mt323.dll
 0002:000c5fea       ?setRowMovingEnabled@QTable@@UAEX_N@Z 00533fea f   qt-mt323:qt-mt323.dll
 0002:000c5ff0       ?setRowReadOnly@QTable@@UAEXH_N@Z 00533ff0 f   qt-mt323:qt-mt323.dll
 0002:000c5ff6       ?setRowStretchable@QTable@@UAEXH_N@Z 00533ff6 f   qt-mt323:qt-mt323.dll
 0002:000c5ffc       ?setSelectionMode@QTable@@UAEXW4SelectionMode@1@@Z 00533ffc f   qt-mt323:qt-mt323.dll
 0002:000c6002       ?setShowGrid@QTable@@UAEX_N@Z 00534002 f   qt-mt323:qt-mt323.dll
 0002:000c6008       ?setSorting@QTable@@UAEX_N@Z 00534008 f   qt-mt323:qt-mt323.dll
 0002:000c600e       ?setText@QTable@@UAEXHHABVQString@@@Z 0053400e f   qt-mt323:qt-mt323.dll
 0002:000c6014       ?setTopMargin@QTable@@UAEXH@Z 00534014 f   qt-mt323:qt-mt323.dll
 0002:000c601a       ?showColumn@QTable@@UAEXH@Z 0053401a f   qt-mt323:qt-mt323.dll
 0002:000c6020       ?showEvent@QTable@@MAEXPAVQShowEvent@@@Z 00534020 f   qt-mt323:qt-mt323.dll
 0002:000c6026       ?showRow@QTable@@UAEXH@Z   00534026 f   qt-mt323:qt-mt323.dll
 0002:000c602c       ?sizeHint@QTable@@UBE?AVQSize@@XZ 0053402c f   qt-mt323:qt-mt323.dll
 0002:000c6032       ?sortColumn@QTable@@UAEXH_N0@Z 00534032 f   qt-mt323:qt-mt323.dll
 0002:000c6038       ?startDrag@QTable@@MAEXXZ  00534038 f   qt-mt323:qt-mt323.dll
 0002:000c603e       ?styleChange@QScrollView@@UAEXAAVQStyle@@@Z 0053403e f   qt-mt323:qt-mt323.dll
 0002:000c6044       ?swapCells@QTable@@UAEXHHHH@Z 00534044 f   qt-mt323:qt-mt323.dll
 0002:000c604a       ?swapColumns@QTable@@UAEXHH_N@Z 0053404a f   qt-mt323:qt-mt323.dll
 0002:000c6050       ?swapRows@QTable@@UAEXHH_N@Z 00534050 f   qt-mt323:qt-mt323.dll
 0002:000c6056       ?takeItem@QTable@@UAEXPAVQTableItem@@@Z 00534056 f   qt-mt323:qt-mt323.dll
 0002:000c605c       ?text@QTable@@UBE?AVQString@@HH@Z 0053405c f   qt-mt323:qt-mt323.dll
 0002:000c6062       ?viewportResizeEvent@QTable@@MAEXPAVQResizeEvent@@@Z 00534062 f   qt-mt323:qt-mt323.dll
 0002:000c6068       ?windowActivationChange@QTable@@MAEX_N@Z 00534068 f   qt-mt323:qt-mt323.dll
 0002:000c606e       ?write@QGDict@@MBEAAVQDataStream@@AAV2@PAX@Z 0053406e f   qt-mt323:qt-mt323.dll
 0002:000c6074       ??0QShared@@QAE@XZ         00534074 f   qt-mt323:qt-mt323.dll
 0002:000c607a       ?ref@QShared@@QAEXXZ       0053407a f   qt-mt323:qt-mt323.dll
 0002:000c6080       ?deref@QShared@@QAE_NXZ    00534080 f   qt-mt323:qt-mt323.dll
 0002:000c6086       ??0?$QValueList@VQString@@@@QAE@XZ 00534086 f   qt-mt323:qt-mt323.dll
 0002:000c608c       ??0?$QValueList@VQString@@@@QAE@ABV0@@Z 0053408c f   qt-mt323:qt-mt323.dll
 0002:000c6092       ??1?$QValueList@VQString@@@@QAE@XZ 00534092 f   qt-mt323:qt-mt323.dll
 0002:000c6098       ?clear@?$QValueList@VQString@@@@QAEXXZ 00534098 f   qt-mt323:qt-mt323.dll
 0002:000c609e       ?minimum@QMapNodeBase@@QAEPAU1@XZ 0053409e f   qt-mt323:qt-mt323.dll
 0002:000c60a4       ?maximum@QMapNodeBase@@QAEPAU1@XZ 005340a4 f   qt-mt323:qt-mt323.dll
 0002:000c60aa       ??0QMapPrivateBase@@QAE@XZ 005340aa f   qt-mt323:qt-mt323.dll
 0002:000c60b0       ??0QMapPrivateBase@@QAE@PBV0@@Z 005340b0 f   qt-mt323:qt-mt323.dll
 0002:000c60b6       ?rebalance@QMapPrivateBase@@QAEXPAUQMapNodeBase@@AAPAU2@@Z 005340b6 f   qt-mt323:qt-mt323.dll
 0002:000c60bc       ?removeAndRebalance@QMapPrivateBase@@QAEPAUQMapNodeBase@@PAU2@AAPAU2@11@Z 005340bc f   qt-mt323:qt-mt323.dll
 0002:000c60c2       ?parent@QListViewItem@@QBEPAV1@XZ 005340c2 f   qt-mt323:qt-mt323.dll
 0002:000c60c8       ??0QTabWidget@@QAE@PAVQWidget@@PBDI@Z 005340c8 f   qt-mt323:qt-mt323.dll
 0002:000c60ce       ??1QTabWidget@@UAE@XZ      005340ce f   qt-mt323:qt-mt323.dll
 0002:000c60d4       ??8QDateTime@@QBE_NABV0@@Z 005340d4 f   qt-mt323:qt-mt323.dll
 0002:000c60da       ??0QSplitter@@QAE@W4Orientation@Qt@@PAVQWidget@@PBD@Z 005340da f   qt-mt323:qt-mt323.dll
 0002:000c60e0       ??1QSplitter@@UAE@XZ       005340e0 f   qt-mt323:qt-mt323.dll
 0002:000c60e6       ?addTab@QTabWidget@@UAEXPAVQWidget@@ABVQIconSet@@ABVQString@@@Z 005340e6 f   qt-mt323:qt-mt323.dll
 0002:000c60ec       ?addTab@QTabWidget@@UAEXPAVQWidget@@ABVQString@@@Z 005340ec f   qt-mt323:qt-mt323.dll
 0002:000c60f2       ?addTab@QTabWidget@@UAEXPAVQWidget@@PAVQTab@@@Z 005340f2 f   qt-mt323:qt-mt323.dll
 0002:000c60f8       ?childEvent@QSplitter@@MAEXPAVQChildEvent@@@Z 005340f8 f   qt-mt323:qt-mt323.dll
 0002:000c60fe       ?className@QTabWidget@@UBEPBDXZ 005340fe f   qt-mt323:qt-mt323.dll
 0002:000c6104       ?drawSplitter@QSplitter@@MAEXPAVQPainter@@HHHH@Z 00534104 f   qt-mt323:qt-mt323.dll
 0002:000c610a       ?event@QSplitter@@MAE_NPAVQEvent@@@Z 0053410a f   qt-mt323:qt-mt323.dll
 0002:000c6110       ?eventFilter@QTabWidget@@MAE_NPAVQObject@@PAVQEvent@@@Z 00534110 f   qt-mt323:qt-mt323.dll
 0002:000c6116       ?insertTab@QTabWidget@@UAEXPAVQWidget@@ABVQIconSet@@ABVQString@@H@Z 00534116 f   qt-mt323:qt-mt323.dll
 0002:000c611c       ?insertTab@QTabWidget@@UAEXPAVQWidget@@ABVQString@@H@Z 0053411c f   qt-mt323:qt-mt323.dll
 0002:000c6122       ?insertTab@QTabWidget@@UAEXPAVQWidget@@PAVQTab@@H@Z 00534122 f   qt-mt323:qt-mt323.dll
 0002:000c6128       ?metaObject@QTabWidget@@UBEPAVQMetaObject@@XZ 00534128 f   qt-mt323:qt-mt323.dll
 0002:000c612e       ?minimumSizeHint@QSplitter@@UBE?AVQSize@@XZ 0053412e f   qt-mt323:qt-mt323.dll
 0002:000c6134       ?minimumSizeHint@QTabWidget@@UBE?AVQSize@@XZ 00534134 f   qt-mt323:qt-mt323.dll
 0002:000c613a       ?qt_cast@QTabWidget@@UAEPAXPBD@Z 0053413a f   qt-mt323:qt-mt323.dll
 0002:000c6140       ?qt_emit@QTabWidget@@UAE_NHPAUQUObject@@@Z 00534140 f   qt-mt323:qt-mt323.dll
 0002:000c6146       ?qt_invoke@QTabWidget@@UAE_NHPAUQUObject@@@Z 00534146 f   qt-mt323:qt-mt323.dll
 0002:000c614c       ?qt_property@QTabWidget@@UAE_NHHPAVQVariant@@@Z 0053414c f   qt-mt323:qt-mt323.dll
 0002:000c6152       ?removePage@QTabWidget@@UAEXPAVQWidget@@@Z 00534152 f   qt-mt323:qt-mt323.dll
 0002:000c6158       ?resizeEvent@QSplitter@@MAEXPAVQResizeEvent@@@Z 00534158 f   qt-mt323:qt-mt323.dll
 0002:000c615e       ?resizeEvent@QTabWidget@@MAEXPAVQResizeEvent@@@Z 0053415e f   qt-mt323:qt-mt323.dll
 0002:000c6164       ?setOpaqueResize@QSplitter@@UAEX_N@Z 00534164 f   qt-mt323:qt-mt323.dll
 0002:000c616a       ?setOrientation@QSplitter@@UAEXW4Orientation@Qt@@@Z 0053416a f   qt-mt323:qt-mt323.dll
 0002:000c6170       ?setResizeMode@QSplitter@@UAEXPAVQWidget@@W4ResizeMode@1@@Z 00534170 f   qt-mt323:qt-mt323.dll
 0002:000c6176       ?setRubberband@QSplitter@@MAEXH@Z 00534176 f   qt-mt323:qt-mt323.dll
 0002:000c617c       ?showEvent@QTabWidget@@MAEXPAVQShowEvent@@@Z 0053417c f   qt-mt323:qt-mt323.dll
 0002:000c6182       ?showPage@QTabWidget@@UAEXPAVQWidget@@@Z 00534182 f   qt-mt323:qt-mt323.dll
 0002:000c6188       ?sizeHint@QSplitter@@UBE?AVQSize@@XZ 00534188 f   qt-mt323:qt-mt323.dll
 0002:000c618e       ?sizeHint@QTabWidget@@UBE?AVQSize@@XZ 0053418e f   qt-mt323:qt-mt323.dll
 0002:000c6194       ?styleChange@QSplitter@@MAEXAAVQStyle@@@Z 00534194 f   qt-mt323:qt-mt323.dll
 0002:000c619a       ?styleChange@QTabWidget@@MAEXAAVQStyle@@@Z 0053419a f   qt-mt323:qt-mt323.dll
 0002:000c61a0       ?updateMask@QTabWidget@@MAEXXZ 005341a0 f   qt-mt323:qt-mt323.dll
 0002:000c61a6       ??0QIconView@@QAE@PAVQWidget@@PBDI@Z 005341a6 f   qt-mt323:qt-mt323.dll
 0002:000c61ac       ??1QIconView@@UAE@XZ       005341ac f   qt-mt323:qt-mt323.dll
 0002:000c61b2       ?adjustItems@QIconView@@MAEXXZ 005341b2 f   qt-mt323:qt-mt323.dll
 0002:000c61b8       ?arrangeItemsInGrid@QIconView@@UAEXABVQSize@@_N@Z 005341b8 f   qt-mt323:qt-mt323.dll
 0002:000c61be       ?arrangeItemsInGrid@QIconView@@UAEX_N@Z 005341be f   qt-mt323:qt-mt323.dll
 0002:000c61c4       ?className@QIconView@@UBEPBDXZ 005341c4 f   qt-mt323:qt-mt323.dll
 0002:000c61ca       ?clear@QIconView@@UAEXXZ   005341ca f   qt-mt323:qt-mt323.dll
 0002:000c61d0       ?clearSelection@QIconView@@UAEXXZ 005341d0 f   qt-mt323:qt-mt323.dll
 0002:000c61d6       ?contentsContextMenuEvent@QIconView@@MAEXPAVQContextMenuEvent@@@Z 005341d6 f   qt-mt323:qt-mt323.dll
 0002:000c61dc       ?contentsDragEnterEvent@QIconView@@MAEXPAVQDragEnterEvent@@@Z 005341dc f   qt-mt323:qt-mt323.dll
 0002:000c61e2       ?contentsDragLeaveEvent@QIconView@@MAEXPAVQDragLeaveEvent@@@Z 005341e2 f   qt-mt323:qt-mt323.dll
 0002:000c61e8       ?contentsDragMoveEvent@QIconView@@MAEXPAVQDragMoveEvent@@@Z 005341e8 f   qt-mt323:qt-mt323.dll
 0002:000c61ee       ?contentsDropEvent@QIconView@@MAEXPAVQDropEvent@@@Z 005341ee f   qt-mt323:qt-mt323.dll
 0002:000c61f4       ?contentsMouseDoubleClickEvent@QIconView@@MAEXPAVQMouseEvent@@@Z 005341f4 f   qt-mt323:qt-mt323.dll
 0002:000c61fa       ?contentsMouseMoveEvent@QIconView@@MAEXPAVQMouseEvent@@@Z 005341fa f   qt-mt323:qt-mt323.dll
 0002:000c6200       ?contentsMousePressEvent@QIconView@@MAEXPAVQMouseEvent@@@Z 00534200 f   qt-mt323:qt-mt323.dll
 0002:000c6206       ?contentsMouseReleaseEvent@QIconView@@MAEXPAVQMouseEvent@@@Z 00534206 f   qt-mt323:qt-mt323.dll
 0002:000c620c       ?doAutoScroll@QIconView@@MAEXXZ 0053420c f   qt-mt323:qt-mt323.dll
 0002:000c6212       ?dragObject@QIconView@@MAEPAVQDragObject@@XZ 00534212 f   qt-mt323:qt-mt323.dll
 0002:000c6218       ?drawBackground@QIconView@@MAEXPAVQPainter@@ABVQRect@@@Z 00534218 f   qt-mt323:qt-mt323.dll
 0002:000c621e       ?drawContents@QIconView@@EAEXPAVQPainter@@@Z 0053421e f   qt-mt323:qt-mt323.dll
 0002:000c6224       ?drawContents@QIconView@@MAEXPAVQPainter@@HHHH@Z 00534224 f   qt-mt323:qt-mt323.dll
 0002:000c622a       ?drawDragShapes@QIconView@@EAEXABVQPoint@@@Z 0053422a f   qt-mt323:qt-mt323.dll
 0002:000c6230       ?drawRubber@QIconView@@MAEXPAVQPainter@@@Z 00534230 f   qt-mt323:qt-mt323.dll
 0002:000c6236       ?enterEvent@QIconView@@MAEXPAVQEvent@@@Z 00534236 f   qt-mt323:qt-mt323.dll
 0002:000c623c       ?eventFilter@QIconView@@UAE_NPAVQObject@@PAVQEvent@@@Z 0053423c f   qt-mt323:qt-mt323.dll
 0002:000c6242       ?focusInEvent@QIconView@@MAEXPAVQFocusEvent@@@Z 00534242 f   qt-mt323:qt-mt323.dll
 0002:000c6248       ?focusOutEvent@QIconView@@MAEXPAVQFocusEvent@@@Z 00534248 f   qt-mt323:qt-mt323.dll
 0002:000c624e       ?initDragEnter@QIconView@@EAEXPAVQDropEvent@@@Z 0053424e f   qt-mt323:qt-mt323.dll
 0002:000c6254       ?insertInGrid@QIconView@@MAEXPAVQIconViewItem@@@Z 00534254 f   qt-mt323:qt-mt323.dll
 0002:000c625a       ?insertItem@QIconView@@UAEXPAVQIconViewItem@@0@Z 0053425a f   qt-mt323:qt-mt323.dll
 0002:000c6260       ?invertSelection@QIconView@@UAEXXZ 00534260 f   qt-mt323:qt-mt323.dll
 0002:000c6266       ?keyPressEvent@QIconView@@MAEXPAVQKeyEvent@@@Z 00534266 f   qt-mt323:qt-mt323.dll
 0002:000c626c       ?metaObject@QIconView@@UBEPAVQMetaObject@@XZ 0053426c f   qt-mt323:qt-mt323.dll
 0002:000c6272       ?minimumSizeHint@QIconView@@UBE?AVQSize@@XZ 00534272 f   qt-mt323:qt-mt323.dll
 0002:000c6278       ?qt_cast@QIconView@@UAEPAXPBD@Z 00534278 f   qt-mt323:qt-mt323.dll
 0002:000c627e       ?qt_emit@QIconView@@UAE_NHPAUQUObject@@@Z 0053427e f   qt-mt323:qt-mt323.dll
 0002:000c6284       ?qt_invoke@QIconView@@UAE_NHPAUQUObject@@@Z 00534284 f   qt-mt323:qt-mt323.dll
 0002:000c628a       ?qt_property@QIconView@@UAE_NHHPAVQVariant@@@Z 0053428a f   qt-mt323:qt-mt323.dll
 0002:000c6290       ?repaintItem@QIconView@@UAEXPAVQIconViewItem@@@Z 00534290 f   qt-mt323:qt-mt323.dll
 0002:000c6296       ?resizeEvent@QIconView@@MAEXPAVQResizeEvent@@@Z 00534296 f   qt-mt323:qt-mt323.dll
 0002:000c629c       ?selectAll@QIconView@@UAEX_N@Z 0053429c f   qt-mt323:qt-mt323.dll
 0002:000c62a2       ?setArrangement@QIconView@@UAEXW4Arrangement@1@@Z 005342a2 f   qt-mt323:qt-mt323.dll
 0002:000c62a8       ?setAutoArrange@QIconView@@UAEX_N@Z 005342a8 f   qt-mt323:qt-mt323.dll
 0002:000c62ae       ?setContentsPos@QIconView@@UAEXHH@Z 005342ae f   qt-mt323:qt-mt323.dll
 0002:000c62b4       ?setCurrentItem@QIconView@@UAEXPAVQIconViewItem@@@Z 005342b4 f   qt-mt323:qt-mt323.dll
 0002:000c62ba       ?setFont@QIconView@@UAEXABVQFont@@@Z 005342ba f   qt-mt323:qt-mt323.dll
 0002:000c62c0       ?setGridX@QIconView@@UAEXH@Z 005342c0 f   qt-mt323:qt-mt323.dll
 0002:000c62c6       ?setGridY@QIconView@@UAEXH@Z 005342c6 f   qt-mt323:qt-mt323.dll
 0002:000c62cc       ?setItemTextBackground@QIconView@@UAEXABVQBrush@@@Z 005342cc f   qt-mt323:qt-mt323.dll
 0002:000c62d2       ?setItemTextPos@QIconView@@UAEXW4ItemTextPos@1@@Z 005342d2 f   qt-mt323:qt-mt323.dll
 0002:000c62d8       ?setItemsMovable@QIconView@@UAEX_N@Z 005342d8 f   qt-mt323:qt-mt323.dll
 0002:000c62de       ?setMaxItemTextLength@QIconView@@UAEXH@Z 005342de f   qt-mt323:qt-mt323.dll
 0002:000c62e4       ?setMaxItemWidth@QIconView@@UAEXH@Z 005342e4 f   qt-mt323:qt-mt323.dll
 0002:000c62ea       ?setPalette@QIconView@@UAEXABVQPalette@@@Z 005342ea f   qt-mt323:qt-mt323.dll
 0002:000c62f0       ?setResizeMode@QIconView@@UAEXW4ResizeMode@1@@Z 005342f0 f   qt-mt323:qt-mt323.dll
 0002:000c62f6       ?setSelected@QIconView@@UAEXPAVQIconViewItem@@_N1@Z 005342f6 f   qt-mt323:qt-mt323.dll
 0002:000c62fc       ?setSelectionMode@QIconView@@UAEXW4SelectionMode@1@@Z 005342fc f   qt-mt323:qt-mt323.dll
 0002:000c6302       ?setShowToolTips@QIconView@@UAEX_N@Z 00534302 f   qt-mt323:qt-mt323.dll
 0002:000c6308       ?setSpacing@QIconView@@UAEXH@Z 00534308 f   qt-mt323:qt-mt323.dll
 0002:000c630e       ?setWordWrapIconText@QIconView@@UAEX_N@Z 0053430e f   qt-mt323:qt-mt323.dll
 0002:000c6314       ?showEvent@QIconView@@UAEXPAVQShowEvent@@@Z 00534314 f   qt-mt323:qt-mt323.dll
 0002:000c631a       ?sizeHint@QIconView@@UBE?AVQSize@@XZ 0053431a f   qt-mt323:qt-mt323.dll
 0002:000c6320       ?slotUpdate@QIconView@@MAEXXZ 00534320 f   qt-mt323:qt-mt323.dll
 0002:000c6326       ?sort@QIconView@@UAEX_N@Z  00534326 f   qt-mt323:qt-mt323.dll
 0002:000c632c       ?styleChange@QIconView@@MAEXAAVQStyle@@@Z 0053432c f   qt-mt323:qt-mt323.dll
 0002:000c6332       ?takeItem@QIconView@@UAEXPAVQIconViewItem@@@Z 00534332 f   qt-mt323:qt-mt323.dll
 0002:000c6338       ?updateContents@QIconView@@UAEXXZ 00534338 f   qt-mt323:qt-mt323.dll
 0002:000c633e       ?windowActivationChange@QIconView@@MAEX_N@Z 0053433e f   qt-mt323:qt-mt323.dll
 0002:000c6344       ??0QSettings@@QAE@XZ       00534344 f   qt-mt323:qt-mt323.dll
 0002:000c634a       ??1QSettings@@QAE@XZ       0053434a f   qt-mt323:qt-mt323.dll
 0002:000c6350       ?writeEntry@QSettings@@QAE_NABVQString@@PBD@Z 00534350 f   qt-mt323:qt-mt323.dll
 0002:000c6356       ?readEntry@QSettings@@QAE?AVQString@@ABV2@0PA_N@Z 00534356 f   qt-mt323:qt-mt323.dll
 0002:000c635c       ?setPath@QSettings@@QAEXABVQString@@0W4Scope@1@@Z 0053435c f   qt-mt323:qt-mt323.dll
 0002:000c6362       ?setMinimumHeight@QWidget@@QAEXH@Z 00534362 f   qt-mt323:qt-mt323.dll
 0002:000c6368       ??0QLabel@@QAE@PAVQWidget@@PBDI@Z 00534368 f   qt-mt323:qt-mt323.dll
 0002:000c636e       ??1QLabel@@UAE@XZ          0053436e f   qt-mt323:qt-mt323.dll
 0002:000c6374       ??0QCheckBox@@QAE@PAVQWidget@@PBD@Z 00534374 f   qt-mt323:qt-mt323.dll
 0002:000c637a       ?isChecked@QCheckBox@@QBE_NXZ 0053437a f   qt-mt323:qt-mt323.dll
 0002:000c6380       ?setChecked@QCheckBox@@QAEX_N@Z 00534380 f   qt-mt323:qt-mt323.dll
 0002:000c6386       ??1QCheckBox@@UAE@XZ       00534386 f   qt-mt323:qt-mt323.dll
 0002:000c638c       ?className@QCheckBox@@UBEPBDXZ 0053438c f   qt-mt323:qt-mt323.dll
 0002:000c6392       ?className@QLabel@@UBEPBDXZ 00534392 f   qt-mt323:qt-mt323.dll
 0002:000c6398       ?drawButton@QCheckBox@@MAEXPAVQPainter@@@Z 00534398 f   qt-mt323:qt-mt323.dll
 0002:000c639e       ?drawButtonLabel@QCheckBox@@MAEXPAVQPainter@@@Z 0053439e f   qt-mt323:qt-mt323.dll
 0002:000c63a4       ?drawContents@QLabel@@MAEXPAVQPainter@@@Z 005343a4 f   qt-mt323:qt-mt323.dll
 0002:000c63aa       ?fontChange@QLabel@@MAEXABVQFont@@@Z 005343aa f   qt-mt323:qt-mt323.dll
 0002:000c63b0       ?heightForWidth@QLabel@@UBEHH@Z 005343b0 f   qt-mt323:qt-mt323.dll
 0002:000c63b6       ?hitButton@QCheckBox@@MBE_NABVQPoint@@@Z 005343b6 f   qt-mt323:qt-mt323.dll
 0002:000c63bc       ?metaObject@QCheckBox@@UBEPAVQMetaObject@@XZ 005343bc f   qt-mt323:qt-mt323.dll
 0002:000c63c2       ?metaObject@QLabel@@UBEPAVQMetaObject@@XZ 005343c2 f   qt-mt323:qt-mt323.dll
 0002:000c63c8       ?minimumSizeHint@QLabel@@UBE?AVQSize@@XZ 005343c8 f   qt-mt323:qt-mt323.dll
 0002:000c63ce       ?qt_cast@QCheckBox@@UAEPAXPBD@Z 005343ce f   qt-mt323:qt-mt323.dll
 0002:000c63d4       ?qt_cast@QLabel@@UAEPAXPBD@Z 005343d4 f   qt-mt323:qt-mt323.dll
 0002:000c63da       ?qt_emit@QCheckBox@@UAE_NHPAUQUObject@@@Z 005343da f   qt-mt323:qt-mt323.dll
 0002:000c63e0       ?qt_emit@QLabel@@UAE_NHPAUQUObject@@@Z 005343e0 f   qt-mt323:qt-mt323.dll
 0002:000c63e6       ?qt_invoke@QCheckBox@@UAE_NHPAUQUObject@@@Z 005343e6 f   qt-mt323:qt-mt323.dll
 0002:000c63ec       ?qt_invoke@QLabel@@UAE_NHPAUQUObject@@@Z 005343ec f   qt-mt323:qt-mt323.dll
 0002:000c63f2       ?qt_property@QCheckBox@@UAE_NHHPAVQVariant@@@Z 005343f2 f   qt-mt323:qt-mt323.dll
 0002:000c63f8       ?qt_property@QLabel@@UAE_NHHPAVQVariant@@@Z 005343f8 f   qt-mt323:qt-mt323.dll
 0002:000c63fe       ?resizeEvent@QCheckBox@@MAEXPAVQResizeEvent@@@Z 005343fe f   qt-mt323:qt-mt323.dll
 0002:000c6404       ?resizeEvent@QLabel@@MAEXPAVQResizeEvent@@@Z 00534404 f   qt-mt323:qt-mt323.dll
 0002:000c640a       ?setAlignment@QLabel@@UAEXH@Z 0053440a f   qt-mt323:qt-mt323.dll
 0002:000c6410       ?setAutoResize@QLabel@@UAEX_N@Z 00534410 f   qt-mt323:qt-mt323.dll
 0002:000c6416       ?setBuddy@QLabel@@UAEXPAVQWidget@@@Z 00534416 f   qt-mt323:qt-mt323.dll
 0002:000c641c       ?setFont@QLabel@@UAEXABVQFont@@@Z 0053441c f   qt-mt323:qt-mt323.dll
 0002:000c6422       ?setMovie@QLabel@@UAEXABVQMovie@@@Z 00534422 f   qt-mt323:qt-mt323.dll
 0002:000c6428       ?setNum@QLabel@@UAEXH@Z    00534428 f   qt-mt323:qt-mt323.dll
 0002:000c642e       ?setNum@QLabel@@UAEXN@Z    0053442e f   qt-mt323:qt-mt323.dll
 0002:000c6434       ?setPicture@QLabel@@UAEXABVQPicture@@@Z 00534434 f   qt-mt323:qt-mt323.dll
 0002:000c643a       ?setPixmap@QLabel@@UAEXABVQPixmap@@@Z 0053443a f   qt-mt323:qt-mt323.dll
 0002:000c6440       ?setText@QLabel@@UAEXABVQString@@@Z 00534440 f   qt-mt323:qt-mt323.dll
 0002:000c6446       ?sizeHint@QCheckBox@@UBE?AVQSize@@XZ 00534446 f   qt-mt323:qt-mt323.dll
 0002:000c644c       ?sizeHint@QLabel@@UBE?AVQSize@@XZ 0053444c f   qt-mt323:qt-mt323.dll
 0002:000c6452       ?updateMask@QCheckBox@@MAEXXZ 00534452 f   qt-mt323:qt-mt323.dll
 0002:000c6458       ?className@QListView@@UBEPBDXZ 00534458 f   qt-mt323:qt-mt323.dll
 0002:000c645e       ?metaObject@QListView@@UBEPAVQMetaObject@@XZ 0053445e f   qt-mt323:qt-mt323.dll
 0002:000c6464       ?qt_cast@QListView@@UAEPAXPBD@Z 00534464 f   qt-mt323:qt-mt323.dll
 0002:000c646a       ?qt_emit@QListView@@UAE_NHPAUQUObject@@@Z 0053446a f   qt-mt323:qt-mt323.dll
 0002:000c6470       ?qt_invoke@QListView@@UAE_NHPAUQUObject@@@Z 00534470 f   qt-mt323:qt-mt323.dll
 0002:000c6476       ?qt_property@QListView@@UAE_NHHPAVQVariant@@@Z 00534476 f   qt-mt323:qt-mt323.dll
 0002:000c647c       ??0QDockWindow@@QAE@PAVQWidget@@PBDI@Z 0053447c f   qt-mt323:qt-mt323.dll
 0002:000c6482       ??1QDockWindow@@UAE@XZ     00534482 f   qt-mt323:qt-mt323.dll
 0002:000c6488       ?setCloseMode@QDockWindow@@UAEXH@Z 00534488 f   qt-mt323:qt-mt323.dll
 0002:000c648e       ?setResizeEnabled@QDockWindow@@UAEX_N@Z 0053448e f   qt-mt323:qt-mt323.dll
 0002:000c6494       ?boxLayout@QDockWindow@@QAEPAVQBoxLayout@@XZ 00534494 f   qt-mt323:qt-mt323.dll
 0002:000c649a       ?className@QDockWindow@@UBEPBDXZ 0053449a f   qt-mt323:qt-mt323.dll
 0002:000c64a0       ?contextMenuEvent@QDockWindow@@MAEXPAVQContextMenuEvent@@@Z 005344a0 f   qt-mt323:qt-mt323.dll
 0002:000c64a6       ?dock@QDockWindow@@UAEXXZ  005344a6 f   qt-mt323:qt-mt323.dll
 0002:000c64ac       ?drawContents@QDockWindow@@MAEXPAVQPainter@@@Z 005344ac f   qt-mt323:qt-mt323.dll
 0002:000c64b2       ?drawFrame@QDockWindow@@MAEXPAVQPainter@@@Z 005344b2 f   qt-mt323:qt-mt323.dll
 0002:000c64b8       ?event@QDockWindow@@MAE_NPAVQEvent@@@Z 005344b8 f   qt-mt323:qt-mt323.dll
 0002:000c64be       ?eventFilter@QDockWindow@@UAE_NPAVQObject@@PAVQEvent@@@Z 005344be f   qt-mt323:qt-mt323.dll
 0002:000c64c4       ?hideEvent@QDockWindow@@MAEXPAVQHideEvent@@@Z 005344c4 f   qt-mt323:qt-mt323.dll
 0002:000c64ca       ?metaObject@QDockWindow@@UBEPAVQMetaObject@@XZ 005344ca f   qt-mt323:qt-mt323.dll
 0002:000c64d0       ?minimumSizeHint@QDockWindow@@UBE?AVQSize@@XZ 005344d0 f   qt-mt323:qt-mt323.dll
 0002:000c64d6       ?qt_cast@QDockWindow@@UAEPAXPBD@Z 005344d6 f   qt-mt323:qt-mt323.dll
 0002:000c64dc       ?qt_emit@QDockWindow@@UAE_NHPAUQUObject@@@Z 005344dc f   qt-mt323:qt-mt323.dll
 0002:000c64e2       ?qt_invoke@QDockWindow@@UAE_NHPAUQUObject@@@Z 005344e2 f   qt-mt323:qt-mt323.dll
 0002:000c64e8       ?qt_property@QDockWindow@@UAE_NHHPAVQVariant@@@Z 005344e8 f   qt-mt323:qt-mt323.dll
 0002:000c64ee       ?resizeEvent@QDockWindow@@MAEXPAVQResizeEvent@@@Z 005344ee f   qt-mt323:qt-mt323.dll
 0002:000c64f4       ?setCaption@QDockWindow@@UAEXABVQString@@@Z 005344f4 f   qt-mt323:qt-mt323.dll
 0002:000c64fa       ?setFixedExtentHeight@QDockWindow@@UAEXH@Z 005344fa f   qt-mt323:qt-mt323.dll
 0002:000c6500       ?setFixedExtentWidth@QDockWindow@@UAEXH@Z 00534500 f   qt-mt323:qt-mt323.dll
 0002:000c6506       ?setHorizontallyStretchable@QDockWindow@@UAEX_N@Z 00534506 f   qt-mt323:qt-mt323.dll
 0002:000c650c       ?setMovingEnabled@QDockWindow@@UAEX_N@Z 0053450c f   qt-mt323:qt-mt323.dll
 0002:000c6512       ?setNewLine@QDockWindow@@UAEX_N@Z 00534512 f   qt-mt323:qt-mt323.dll
 0002:000c6518       ?setOffset@QDockWindow@@UAEXH@Z 00534518 f   qt-mt323:qt-mt323.dll
 0002:000c651e       ?setOpaqueMoving@QDockWindow@@UAEX_N@Z 0053451e f   qt-mt323:qt-mt323.dll
 0002:000c6524       ?setOrientation@QDockWindow@@UAEXW4Orientation@Qt@@@Z 00534524 f   qt-mt323:qt-mt323.dll
 0002:000c652a       ?setVerticallyStretchable@QDockWindow@@UAEX_N@Z 0053452a f   qt-mt323:qt-mt323.dll
 0002:000c6530       ?setWidget@QDockWindow@@UAEXPAVQWidget@@@Z 00534530 f   qt-mt323:qt-mt323.dll
 0002:000c6536       ?showEvent@QDockWindow@@MAEXPAVQShowEvent@@@Z 00534536 f   qt-mt323:qt-mt323.dll
 0002:000c653c       ?sizeHint@QDockWindow@@UBE?AVQSize@@XZ 0053453c f   qt-mt323:qt-mt323.dll
 0002:000c6542       ?undock@QDockWindow@@UAEXPAVQWidget@@@Z 00534542 f   qt-mt323:qt-mt323.dll
 0002:000c6548       ?undock@QDockWindow@@UAEXXZ 00534548 f   qt-mt323:qt-mt323.dll
 0002:000c654e       ??8?$QValueListIterator@VQString@@@@QBE_NABV0@@Z 0053454e f   qt-mt323:qt-mt323.dll
 0002:000c6554       ?find@?$QValueList@VQString@@@@QAE?AV?$QValueListIterator@VQString@@@@ABVQString@@@Z 00534554 f   qt-mt323:qt-mt323.dll
 0002:000c655a       ??Y?$QValueList@VQString@@@@QAEAAV0@ABVQString@@@Z 0053455a f   qt-mt323:qt-mt323.dll
 0002:000c6560       ??0QSettings@@QAE@W4Format@0@@Z 00534560 f   qt-mt323:qt-mt323.dll
 0002:000c6566       ?writeEntry@QSettings@@QAE_NABVQString@@0@Z 00534566 f   qt-mt323:qt-mt323.dll
 0002:000c656c       ?insertSearchPath@QSettings@@QAEXW4System@1@ABVQString@@@Z 0053456c f   qt-mt323:qt-mt323.dll
 0002:000c6572       ?contains@QString@@QBEHPBD_N@Z 00534572 f   qt-mt323:qt-mt323.dll
 0002:000c6578       ?remove@QString@@QAEAAV1@ABV1@@Z 00534578 f   qt-mt323:qt-mt323.dll
 0002:000c657e       ?remove@QString@@QAEAAV1@ABVQRegExp@@@Z 0053457e f   qt-mt323:qt-mt323.dll
 0002:000c6584       ?replace@QString@@QAEAAV1@ABVQRegExp@@ABV1@@Z 00534584 f   qt-mt323:qt-mt323.dll
 0002:000c658a       ?getData@QLNode@@QAEPAXXZ  0053458a f   qt-mt323:qt-mt323.dll
 0002:000c6590       ?next@QGListStdIterator@@IAEPAVQLNode@@XZ 00534590 f   qt-mt323:qt-mt323.dll
 0002:000c6596       ??0QRegExp@@QAE@ABVQString@@_N1@Z 00534596 f   qt-mt323:qt-mt323.dll
 0002:000c659c       ??1QRegExp@@QAE@XZ         0053459c f   qt-mt323:qt-mt323.dll
 0002:000c65a2       ?setWildcard@QRegExp@@QAEX_N@Z 005345a2 f   qt-mt323:qt-mt323.dll
 0002:000c65a8       ?exactMatch@QRegExp@@QBE_NABVQString@@@Z 005345a8 f   qt-mt323:qt-mt323.dll
 0002:000c65ae       ??0QValidator@@QAE@PAVQObject@@PBD@Z 005345ae f   qt-mt323:qt-mt323.dll
 0002:000c65b4       ??1QValidator@@UAE@XZ      005345b4 f   qt-mt323:qt-mt323.dll
 0002:000c65ba       ??0QTableSelection@@QAE@HHHH@Z 005345ba f   qt-mt323:qt-mt323.dll
 0002:000c65c0       ??0QComboTableItem@@QAE@PAVQTable@@ABVQStringList@@_N@Z 005345c0 f   qt-mt323:qt-mt323.dll
 0002:000c65c6       ??1QComboTableItem@@UAE@XZ 005345c6 f   qt-mt323:qt-mt323.dll
 0002:000c65cc       ?isRowSelected@QTable@@QBE_NH_N@Z 005345cc f   qt-mt323:qt-mt323.dll
 0002:000c65d2       ?clearSelection@QTable@@QAEX_N@Z 005345d2 f   qt-mt323:qt-mt323.dll
 0002:000c65d8       ?setColumnLabels@QTable@@QAEXABVQStringList@@@Z 005345d8 f   qt-mt323:qt-mt323.dll
 0002:000c65de       ?getOpenFileName@QFileDialog@@SA?AVQString@@ABV2@0PAVQWidget@@PBD0PAV2@_N@Z 005345de f   qt-mt323:qt-mt323.dll
 0002:000c65e4       ?alignment@QTableItem@@UBEHXZ 005345e4 f   qt-mt323:qt-mt323.dll
 0002:000c65ea       ?className@QValidator@@UBEPBDXZ 005345ea f   qt-mt323:qt-mt323.dll
 0002:000c65f0       ?createEditor@QComboTableItem@@UBEPAVQWidget@@XZ 005345f0 f   qt-mt323:qt-mt323.dll
 0002:000c65f6       ?fixup@QValidator@@UBEXAAVQString@@@Z 005345f6 f   qt-mt323:qt-mt323.dll
 0002:000c65fc       ?key@QTableItem@@UBE?AVQString@@XZ 005345fc f   qt-mt323:qt-mt323.dll
 0002:000c6602       ?metaObject@QValidator@@UBEPAVQMetaObject@@XZ 00534602 f   qt-mt323:qt-mt323.dll
 0002:000c6608       ?paint@QComboTableItem@@UAEXPAVQPainter@@ABVQColorGroup@@ABVQRect@@_N@Z 00534608 f   qt-mt323:qt-mt323.dll
 0002:000c660e       ?pixmap@QTableItem@@UBE?AVQPixmap@@XZ 0053460e f   qt-mt323:qt-mt323.dll
 0002:000c6614       ?qt_cast@QValidator@@UAEPAXPBD@Z 00534614 f   qt-mt323:qt-mt323.dll
 0002:000c661a       ?qt_emit@QValidator@@UAE_NHPAUQUObject@@@Z 0053461a f   qt-mt323:qt-mt323.dll
 0002:000c6620       ?qt_invoke@QValidator@@UAE_NHPAUQUObject@@@Z 00534620 f   qt-mt323:qt-mt323.dll
 0002:000c6626       ?qt_property@QValidator@@UAE_NHHPAVQVariant@@@Z 00534626 f   qt-mt323:qt-mt323.dll
 0002:000c662c       ?rtti@QComboTableItem@@UBEHXZ 0053462c f   qt-mt323:qt-mt323.dll
 0002:000c6632       ?setCol@QTableItem@@UAEXH@Z 00534632 f   qt-mt323:qt-mt323.dll
 0002:000c6638       ?setContentFromEditor@QComboTableItem@@UAEXPAVQWidget@@@Z 00534638 f   qt-mt323:qt-mt323.dll
 0002:000c663e       ?setCurrentItem@QComboTableItem@@UAEXABVQString@@@Z 0053463e f   qt-mt323:qt-mt323.dll
 0002:000c6644       ?setCurrentItem@QComboTableItem@@UAEXH@Z 00534644 f   qt-mt323:qt-mt323.dll
 0002:000c664a       ?setEditable@QComboTableItem@@UAEX_N@Z 0053464a f   qt-mt323:qt-mt323.dll
 0002:000c6650       ?setEnabled@QTableItem@@UAEX_N@Z 00534650 f   qt-mt323:qt-mt323.dll
 0002:000c6656       ?setPixmap@QTableItem@@UAEXABVQPixmap@@@Z 00534656 f   qt-mt323:qt-mt323.dll
 0002:000c665c       ?setReplaceable@QTableItem@@UAEX_N@Z 0053465c f   qt-mt323:qt-mt323.dll
 0002:000c6662       ?setRow@QTableItem@@UAEXH@Z 00534662 f   qt-mt323:qt-mt323.dll
 0002:000c6668       ?setSpan@QTableItem@@UAEXHH@Z 00534668 f   qt-mt323:qt-mt323.dll
 0002:000c666e       ?setStringList@QComboTableItem@@UAEXABVQStringList@@@Z 0053466e f   qt-mt323:qt-mt323.dll
 0002:000c6674       ?setText@QTableItem@@UAEXABVQString@@@Z 00534674 f   qt-mt323:qt-mt323.dll
 0002:000c667a       ?setWordWrap@QTableItem@@UAEX_N@Z 0053467a f   qt-mt323:qt-mt323.dll
 0002:000c6680       ?sizeHint@QComboTableItem@@UBE?AVQSize@@XZ 00534680 f   qt-mt323:qt-mt323.dll
 0002:000c6686       ?text@QTableItem@@UBE?AVQString@@XZ 00534686 f   qt-mt323:qt-mt323.dll
 0002:000c668c       ??0QKeySequence@@QAE@ABVQString@@@Z 0053468c f   qt-mt323:qt-mt323.dll
 0002:000c6692       ??1QKeySequence@@QAE@XZ    00534692 f   qt-mt323:qt-mt323.dll
 0002:000c6698       ??0QComboBox@@QAE@_NPAVQWidget@@PBD@Z 00534698 f   qt-mt323:qt-mt323.dll
 0002:000c669e       ??1QComboBox@@UAE@XZ       0053469e f   qt-mt323:qt-mt323.dll
 0002:000c66a4       ?setEditable@QComboBox@@QAEX_N@Z 005346a4 f   qt-mt323:qt-mt323.dll
 0002:000c66aa       ??0QLineEdit@@QAE@PAVQWidget@@PBD@Z 005346aa f   qt-mt323:qt-mt323.dll
 0002:000c66b0       ??1QLineEdit@@UAE@XZ       005346b0 f   qt-mt323:qt-mt323.dll
 0002:000c66b6       ?className@QComboBox@@UBEPBDXZ 005346b6 f   qt-mt323:qt-mt323.dll
 0002:000c66bc       ?className@QLineEdit@@UBEPBDXZ 005346bc f   qt-mt323:qt-mt323.dll
 0002:000c66c2       ?clear@QLineEdit@@UAEXXZ   005346c2 f   qt-mt323:qt-mt323.dll
 0002:000c66c8       ?clearValidator@QLineEdit@@UAEXXZ 005346c8 f   qt-mt323:qt-mt323.dll
 0002:000c66ce       ?contextMenuEvent@QLineEdit@@MAEXPAVQContextMenuEvent@@@Z 005346ce f   qt-mt323:qt-mt323.dll
 0002:000c66d4       ?copy@QLineEdit@@UBEXXZ    005346d4 f   qt-mt323:qt-mt323.dll
 0002:000c66da       ?createPopupMenu@QLineEdit@@MAEPAVQPopupMenu@@XZ 005346da f   qt-mt323:qt-mt323.dll
 0002:000c66e0       ?cut@QLineEdit@@UAEXXZ     005346e0 f   qt-mt323:qt-mt323.dll
 0002:000c66e6       ?deselect@QLineEdit@@UAEXXZ 005346e6 f   qt-mt323:qt-mt323.dll
 0002:000c66ec       ?dragEnterEvent@QLineEdit@@MAEXPAVQDragEnterEvent@@@Z 005346ec f   qt-mt323:qt-mt323.dll
 0002:000c66f2       ?dragLeaveEvent@QLineEdit@@MAEXPAVQDragLeaveEvent@@@Z 005346f2 f   qt-mt323:qt-mt323.dll
 0002:000c66f8       ?dragMoveEvent@QLineEdit@@MAEXPAVQDragMoveEvent@@@Z 005346f8 f   qt-mt323:qt-mt323.dll
 0002:000c66fe       ?drawContents@QLineEdit@@MAEXPAVQPainter@@@Z 005346fe f   qt-mt323:qt-mt323.dll
 0002:000c6704       ?dropEvent@QLineEdit@@MAEXPAVQDropEvent@@@Z 00534704 f   qt-mt323:qt-mt323.dll
 0002:000c670a       ?event@QLineEdit@@MAE_NPAVQEvent@@@Z 0053470a f   qt-mt323:qt-mt323.dll
 0002:000c6710       ?eventFilter@QComboBox@@UAE_NPAVQObject@@PAVQEvent@@@Z 00534710 f   qt-mt323:qt-mt323.dll
 0002:000c6716       ?focusInEvent@QComboBox@@MAEXPAVQFocusEvent@@@Z 00534716 f   qt-mt323:qt-mt323.dll
 0002:000c671c       ?focusInEvent@QLineEdit@@MAEXPAVQFocusEvent@@@Z 0053471c f   qt-mt323:qt-mt323.dll
 0002:000c6722       ?focusOutEvent@QComboBox@@MAEXPAVQFocusEvent@@@Z 00534722 f   qt-mt323:qt-mt323.dll
 0002:000c6728       ?focusOutEvent@QLineEdit@@MAEXPAVQFocusEvent@@@Z 00534728 f   qt-mt323:qt-mt323.dll
 0002:000c672e       ?imComposeEvent@QLineEdit@@MAEXPAVQIMEvent@@@Z 0053472e f   qt-mt323:qt-mt323.dll
 0002:000c6734       ?imEndEvent@QLineEdit@@MAEXPAVQIMEvent@@@Z 00534734 f   qt-mt323:qt-mt323.dll
 0002:000c673a       ?imStartEvent@QLineEdit@@MAEXPAVQIMEvent@@@Z 0053473a f   qt-mt323:qt-mt323.dll
 0002:000c6740       ?insert@QLineEdit@@UAEXABVQString@@@Z 00534740 f   qt-mt323:qt-mt323.dll
 0002:000c6746       ?keyPressEvent@QComboBox@@MAEXPAVQKeyEvent@@@Z 00534746 f   qt-mt323:qt-mt323.dll
 0002:000c674c       ?keyPressEvent@QLineEdit@@MAEXPAVQKeyEvent@@@Z 0053474c f   qt-mt323:qt-mt323.dll
 0002:000c6752       ?metaObject@QComboBox@@UBEPAVQMetaObject@@XZ 00534752 f   qt-mt323:qt-mt323.dll
 0002:000c6758       ?metaObject@QLineEdit@@UBEPAVQMetaObject@@XZ 00534758 f   qt-mt323:qt-mt323.dll
 0002:000c675e       ?minimumSizeHint@QLineEdit@@UBE?AVQSize@@XZ 0053475e f   qt-mt323:qt-mt323.dll
 0002:000c6764       ?mouseDoubleClickEvent@QComboBox@@MAEXPAVQMouseEvent@@@Z 00534764 f   qt-mt323:qt-mt323.dll
 0002:000c676a       ?mouseDoubleClickEvent@QLineEdit@@MAEXPAVQMouseEvent@@@Z 0053476a f   qt-mt323:qt-mt323.dll
 0002:000c6770       ?mouseMoveEvent@QComboBox@@MAEXPAVQMouseEvent@@@Z 00534770 f   qt-mt323:qt-mt323.dll
 0002:000c6776       ?mouseMoveEvent@QLineEdit@@MAEXPAVQMouseEvent@@@Z 00534776 f   qt-mt323:qt-mt323.dll
 0002:000c677c       ?mousePressEvent@QComboBox@@MAEXPAVQMouseEvent@@@Z 0053477c f   qt-mt323:qt-mt323.dll
 0002:000c6782       ?mousePressEvent@QLineEdit@@MAEXPAVQMouseEvent@@@Z 00534782 f   qt-mt323:qt-mt323.dll
 0002:000c6788       ?mouseReleaseEvent@QComboBox@@MAEXPAVQMouseEvent@@@Z 00534788 f   qt-mt323:qt-mt323.dll
 0002:000c678e       ?mouseReleaseEvent@QLineEdit@@MAEXPAVQMouseEvent@@@Z 0053478e f   qt-mt323:qt-mt323.dll
 0002:000c6794       ?paintEvent@QComboBox@@MAEXPAVQPaintEvent@@@Z 00534794 f   qt-mt323:qt-mt323.dll
 0002:000c679a       ?paste@QLineEdit@@UAEXXZ   0053479a f   qt-mt323:qt-mt323.dll
 0002:000c67a0       ?popup@QComboBox@@UAEXXZ   005347a0 f   qt-mt323:qt-mt323.dll
 0002:000c67a6       ?qt_cast@QComboBox@@UAEPAXPBD@Z 005347a6 f   qt-mt323:qt-mt323.dll
 0002:000c67ac       ?qt_cast@QLineEdit@@UAEPAXPBD@Z 005347ac f   qt-mt323:qt-mt323.dll
 0002:000c67b2       ?qt_emit@QComboBox@@UAE_NHPAUQUObject@@@Z 005347b2 f   qt-mt323:qt-mt323.dll
 0002:000c67b8       ?qt_emit@QLineEdit@@UAE_NHPAUQUObject@@@Z 005347b8 f   qt-mt323:qt-mt323.dll
 0002:000c67be       ?qt_invoke@QComboBox@@UAE_NHPAUQUObject@@@Z 005347be f   qt-mt323:qt-mt323.dll
 0002:000c67c4       ?qt_invoke@QLineEdit@@UAE_NHPAUQUObject@@@Z 005347c4 f   qt-mt323:qt-mt323.dll
 0002:000c67ca       ?qt_property@QComboBox@@UAE_NHHPAVQVariant@@@Z 005347ca f   qt-mt323:qt-mt323.dll
 0002:000c67d0       ?qt_property@QLineEdit@@UAE_NHHPAVQVariant@@@Z 005347d0 f   qt-mt323:qt-mt323.dll
 0002:000c67d6       ?redo@QLineEdit@@UAEXXZ    005347d6 f   qt-mt323:qt-mt323.dll
 0002:000c67dc       ?resizeEvent@QComboBox@@MAEXPAVQResizeEvent@@@Z 005347dc f   qt-mt323:qt-mt323.dll
 0002:000c67e2       ?resizeEvent@QLineEdit@@MAEXPAVQResizeEvent@@@Z 005347e2 f   qt-mt323:qt-mt323.dll
 0002:000c67e8       ?selectAll@QLineEdit@@UAEXXZ 005347e8 f   qt-mt323:qt-mt323.dll
 0002:000c67ee       ?setAlignment@QLineEdit@@UAEXH@Z 005347ee f   qt-mt323:qt-mt323.dll
 0002:000c67f4       ?setAutoCompletion@QComboBox@@UAEX_N@Z 005347f4 f   qt-mt323:qt-mt323.dll
 0002:000c67fa       ?setAutoResize@QComboBox@@UAEX_N@Z 005347fa f   qt-mt323:qt-mt323.dll
 0002:000c6800       ?setCurrentItem@QComboBox@@UAEXH@Z 00534800 f   qt-mt323:qt-mt323.dll
 0002:000c6806       ?setCurrentText@QComboBox@@UAEXABVQString@@@Z 00534806 f   qt-mt323:qt-mt323.dll
 0002:000c680c       ?setCursorPosition@QLineEdit@@UAEXH@Z 0053480c f   qt-mt323:qt-mt323.dll
 0002:000c6812       ?setDragEnabled@QLineEdit@@UAEX_N@Z 00534812 f   qt-mt323:qt-mt323.dll
 0002:000c6818       ?setEchoMode@QLineEdit@@UAEXW4EchoMode@1@@Z 00534818 f   qt-mt323:qt-mt323.dll
 0002:000c681e       ?setEditText@QComboBox@@UAEXABVQString@@@Z 0053481e f   qt-mt323:qt-mt323.dll
 0002:000c6824       ?setEnabled@QComboBox@@UAEX_N@Z 00534824 f   qt-mt323:qt-mt323.dll
 0002:000c682a       ?setFont@QComboBox@@UAEXABVQFont@@@Z 0053482a f   qt-mt323:qt-mt323.dll
 0002:000c6830       ?setFont@QLineEdit@@UAEXABVQFont@@@Z 00534830 f   qt-mt323:qt-mt323.dll
 0002:000c6836       ?setFrame@QLineEdit@@UAEX_N@Z 00534836 f   qt-mt323:qt-mt323.dll
 0002:000c683c       ?setInsertionPolicy@QComboBox@@UAEXW4Policy@1@@Z 0053483c f   qt-mt323:qt-mt323.dll
 0002:000c6842       ?setLineEdit@QComboBox@@UAEXPAVQLineEdit@@@Z 00534842 f   qt-mt323:qt-mt323.dll
 0002:000c6848       ?setListBox@QComboBox@@UAEXPAVQListBox@@@Z 00534848 f   qt-mt323:qt-mt323.dll
 0002:000c684e       ?setMaxCount@QComboBox@@UAEXH@Z 0053484e f   qt-mt323:qt-mt323.dll
 0002:000c6854       ?setMaxLength@QLineEdit@@UAEXH@Z 00534854 f   qt-mt323:qt-mt323.dll
 0002:000c685a       ?setPalette@QComboBox@@UAEXABVQPalette@@@Z 0053485a f   qt-mt323:qt-mt323.dll
 0002:000c6860       ?setPalette@QLineEdit@@UAEXABVQPalette@@@Z 00534860 f   qt-mt323:qt-mt323.dll
 0002:000c6866       ?setReadOnly@QLineEdit@@UAEX_N@Z 00534866 f   qt-mt323:qt-mt323.dll
 0002:000c686c       ?setSelection@QLineEdit@@UAEXHH@Z 0053486c f   qt-mt323:qt-mt323.dll
 0002:000c6872       ?setSizeLimit@QComboBox@@UAEXH@Z 00534872 f   qt-mt323:qt-mt323.dll
 0002:000c6878       ?setText@QLineEdit@@UAEXABVQString@@@Z 00534878 f   qt-mt323:qt-mt323.dll
 0002:000c687e       ?setValidator@QComboBox@@UAEXPBVQValidator@@@Z 0053487e f   qt-mt323:qt-mt323.dll
 0002:000c6884       ?setValidator@QLineEdit@@UAEXPBVQValidator@@@Z 00534884 f   qt-mt323:qt-mt323.dll
 0002:000c688a       ?sizeHint@QComboBox@@UBE?AVQSize@@XZ 0053488a f   qt-mt323:qt-mt323.dll
 0002:000c6890       ?sizeHint@QLineEdit@@UBE?AVQSize@@XZ 00534890 f   qt-mt323:qt-mt323.dll
 0002:000c6896       ?styleChange@QComboBox@@MAEXAAVQStyle@@@Z 00534896 f   qt-mt323:qt-mt323.dll
 0002:000c689c       ?undo@QLineEdit@@UAEXXZ    0053489c f   qt-mt323:qt-mt323.dll
 0002:000c68a2       ?updateMask@QComboBox@@MAEXXZ 005348a2 f   qt-mt323:qt-mt323.dll
 0002:000c68a8       ?wheelEvent@QComboBox@@MAEXPAVQWheelEvent@@@Z 005348a8 f   qt-mt323:qt-mt323.dll
 0002:000c68ae       ?windowActivationChange@QLineEdit@@MAEX_N@Z 005348ae f   qt-mt323:qt-mt323.dll
 0002:000c68b4       ?read@QTextStream@@QAE?AVQString@@XZ 005348b4 f   qt-mt323:qt-mt323.dll
 0002:000c68ba       ??0QIconSet@@QAE@ABVQPixmap@@W4Size@0@@Z 005348ba f   qt-mt323:qt-mt323.dll
 0002:000c68c0       ??1QIconSet@@UAE@XZ        005348c0 f   qt-mt323:qt-mt323.dll
 0002:000c68c6       ??0QKeySequence@@QAE@H@Z   005348c6 f   qt-mt323:qt-mt323.dll
 0002:000c68cc       ??0QAction@@QAE@ABVQString@@ABVQIconSet@@0VQKeySequence@@PAVQObject@@PBD_N@Z 005348cc f   qt-mt323:qt-mt323.dll
 0002:000c68d2       ??1QAction@@UAE@XZ         005348d2 f   qt-mt323:qt-mt323.dll
 0002:000c68d8       ?getSaveFileName@QFileDialog@@SA?AVQString@@ABV2@0PAVQWidget@@PBD0PAV2@_N@Z 005348d8 f   qt-mt323:qt-mt323.dll
 0002:000c68de       ?insertItem@QMenuData@@QAEHABVQString@@PAVQPopupMenu@@HH@Z 005348de f   qt-mt323:qt-mt323.dll
 0002:000c68e4       ??0QTextEdit@@QAE@PAVQWidget@@PBD@Z 005348e4 f   qt-mt323:qt-mt323.dll
 0002:000c68ea       ??1QTextEdit@@UAE@XZ       005348ea f   qt-mt323:qt-mt323.dll
 0002:000c68f0       ?text@QTextEdit@@QBE?AVQString@@XZ 005348f0 f   qt-mt323:qt-mt323.dll
 0002:000c68f6       ?isModified@QTextEdit@@QBE_NXZ 005348f6 f   qt-mt323:qt-mt323.dll
 0002:000c68fc       ?setText@QTextEdit@@QAEXABVQString@@@Z 005348fc f   qt-mt323:qt-mt323.dll
 0002:000c6902       ?setTabStopWidth@QTextEdit@@UAEXH@Z 00534902 f   qt-mt323:qt-mt323.dll
 0002:000c6908       ?menuBar@QMainWindow@@QBEPAVQMenuBar@@XZ 00534908 f   qt-mt323:qt-mt323.dll
 0002:000c690e       ?activateItemAt@QPopupMenu@@UAEXH@Z 0053490e f   qt-mt323:qt-mt323.dll
 0002:000c6914       ?addTo@QAction@@UAE_NPAVQWidget@@@Z 00534914 f   qt-mt323:qt-mt323.dll
 0002:000c691a       ?addedTo@QAction@@MAEXHPAVQPopupMenu@@@Z 0053491a f   qt-mt323:qt-mt323.dll
 0002:000c6920       ?addedTo@QAction@@MAEXPAVQWidget@@0@Z 00534920 f   qt-mt323:qt-mt323.dll
 0002:000c6926       ?append@QTextEdit@@UAEXABVQString@@@Z 00534926 f   qt-mt323:qt-mt323.dll
 0002:000c692c       ?className@QAction@@UBEPBDXZ 0053492c f   qt-mt323:qt-mt323.dll
 0002:000c6932       ?className@QPopupMenu@@UBEPBDXZ 00534932 f   qt-mt323:qt-mt323.dll
 0002:000c6938       ?clear@QTextEdit@@UAEXXZ   00534938 f   qt-mt323:qt-mt323.dll
 0002:000c693e       ?clearParagraphBackground@QTextEdit@@UAEXH@Z 0053493e f   qt-mt323:qt-mt323.dll
 0002:000c6944       ?closeEvent@QPopupMenu@@MAEXPAVQCloseEvent@@@Z 00534944 f   qt-mt323:qt-mt323.dll
 0002:000c694a       ?contentsContextMenuEvent@QTextEdit@@MAEXPAVQContextMenuEvent@@@Z 0053494a f   qt-mt323:qt-mt323.dll
 0002:000c6950       ?contentsDragEnterEvent@QTextEdit@@MAEXPAVQDragEnterEvent@@@Z 00534950 f   qt-mt323:qt-mt323.dll
 0002:000c6956       ?contentsDragLeaveEvent@QTextEdit@@MAEXPAVQDragLeaveEvent@@@Z 00534956 f   qt-mt323:qt-mt323.dll
 0002:000c695c       ?contentsDragMoveEvent@QTextEdit@@MAEXPAVQDragMoveEvent@@@Z 0053495c f   qt-mt323:qt-mt323.dll
 0002:000c6962       ?contentsDropEvent@QTextEdit@@MAEXPAVQDropEvent@@@Z 00534962 f   qt-mt323:qt-mt323.dll
 0002:000c6968       ?contentsMouseDoubleClickEvent@QTextEdit@@MAEXPAVQMouseEvent@@@Z 00534968 f   qt-mt323:qt-mt323.dll
 0002:000c696e       ?contentsMouseMoveEvent@QTextEdit@@MAEXPAVQMouseEvent@@@Z 0053496e f   qt-mt323:qt-mt323.dll
 0002:000c6974       ?contentsMousePressEvent@QTextEdit@@MAEXPAVQMouseEvent@@@Z 00534974 f   qt-mt323:qt-mt323.dll
 0002:000c697a       ?contentsMouseReleaseEvent@QTextEdit@@MAEXPAVQMouseEvent@@@Z 0053497a f   qt-mt323:qt-mt323.dll
 0002:000c6980       ?contentsWheelEvent@QTextEdit@@MAEXPAVQWheelEvent@@@Z 00534980 f   qt-mt323:qt-mt323.dll
 0002:000c6986       ?copy@QTextEdit@@UAEXXZ    00534986 f   qt-mt323:qt-mt323.dll
 0002:000c698c       ?createPopupMenu@QTextEdit@@MAEPAVQPopupMenu@@ABVQPoint@@@Z 0053498c f   qt-mt323:qt-mt323.dll
 0002:000c6992       ?createPopupMenu@QTextEdit@@MAEPAVQPopupMenu@@XZ 00534992 f   qt-mt323:qt-mt323.dll
 0002:000c6998       ?customWhatsThis@QPopupMenu@@UBE_NXZ 00534998 f   qt-mt323:qt-mt323.dll
 0002:000c699e       ?cut@QTextEdit@@UAEXXZ     0053499e f   qt-mt323:qt-mt323.dll
 0002:000c69a4       ?del@QTextEdit@@UAEXXZ     005349a4 f   qt-mt323:qt-mt323.dll
 0002:000c69aa       ?doChangeInterval@QTextEdit@@MAEXXZ 005349aa f   qt-mt323:qt-mt323.dll
 0002:000c69b0       ?doKeyboardAction@QTextEdit@@UAEXW4KeyboardAction@1@@Z 005349b0 f   qt-mt323:qt-mt323.dll
 0002:000c69b6       ?drawContents@QPopupMenu@@MAEXPAVQPainter@@@Z 005349b6 f   qt-mt323:qt-mt323.dll
 0002:000c69bc       ?drawContents@QTextEdit@@EAEXPAVQPainter@@@Z 005349bc f   qt-mt323:qt-mt323.dll
 0002:000c69c2       ?drawContents@QTextEdit@@MAEXPAVQPainter@@HHHH@Z 005349c2 f   qt-mt323:qt-mt323.dll
 0002:000c69c8       ?emitHighlighted@QTextEdit@@EAEXABVQString@@@Z 005349c8 f   qt-mt323:qt-mt323.dll
 0002:000c69ce       ?emitLinkClicked@QTextEdit@@EAEXABVQString@@@Z 005349ce f   qt-mt323:qt-mt323.dll
 0002:000c69d4       ?enabledChange@QPopupMenu@@MAEX_N@Z 005349d4 f   qt-mt323:qt-mt323.dll
 0002:000c69da       ?ensureCursorVisible@QTextEdit@@UAEXXZ 005349da f   qt-mt323:qt-mt323.dll
 0002:000c69e0       ?event@QTextEdit@@MAE_NPAVQEvent@@@Z 005349e0 f   qt-mt323:qt-mt323.dll
 0002:000c69e6       ?eventFilter@QTextEdit@@UAE_NPAVQObject@@PAVQEvent@@@Z 005349e6 f   qt-mt323:qt-mt323.dll
 0002:000c69ec       ?find@QTextEdit@@UAE_NABVQString@@_N11PAH2@Z 005349ec f   qt-mt323:qt-mt323.dll
 0002:000c69f2       ?focusInEvent@QPopupMenu@@MAEXPAVQFocusEvent@@@Z 005349f2 f   qt-mt323:qt-mt323.dll
 0002:000c69f8       ?focusNextPrevChild@QPopupMenu@@MAE_N_N@Z 005349f8 f   qt-mt323:qt-mt323.dll
 0002:000c69fe       ?focusNextPrevChild@QTextEdit@@MAE_N_N@Z 005349fe f   qt-mt323:qt-mt323.dll
 0002:000c6a04       ?focusOutEvent@QPopupMenu@@MAEXPAVQFocusEvent@@@Z 00534a04 f   qt-mt323:qt-mt323.dll
 0002:000c6a0a       ?frameChanged@QPopupMenu@@EAEXXZ 00534a0a f   qt-mt323:qt-mt323.dll
 0002:000c6a10       ?getFormat@QTextEdit@@UAE_NHHPAVQFont@@PAVQColor@@PAW4VerticalAlignment@1@@Z 00534a10 f   qt-mt323:qt-mt323.dll
 0002:000c6a16       ?getParagraphFormat@QTextEdit@@UAE_NHPAVQFont@@PAVQColor@@PAW4VerticalAlignment@1@PAHPAW4DisplayMode@QStyleSheetItem@@PAW4ListStyle@6@3@Z 00534a16 f   qt-mt323:qt-mt323.dll
 0002:000c6a1c       ?heightForWidth@QTextEdit@@UBEHH@Z 00534a1c f   qt-mt323:qt-mt323.dll
 0002:000c6a22       ?hide@QPopupMenu@@UAEXXZ   00534a22 f   qt-mt323:qt-mt323.dll
 0002:000c6a28       ?imComposeEvent@QTextEdit@@MAEXPAVQIMEvent@@@Z 00534a28 f   qt-mt323:qt-mt323.dll
 0002:000c6a2e       ?imEndEvent@QTextEdit@@MAEXPAVQIMEvent@@@Z 00534a2e f   qt-mt323:qt-mt323.dll
 0002:000c6a34       ?imStartEvent@QTextEdit@@MAEXPAVQIMEvent@@@Z 00534a34 f   qt-mt323:qt-mt323.dll
 0002:000c6a3a       ?indent@QTextEdit@@UAEXXZ  00534a3a f   qt-mt323:qt-mt323.dll
 0002:000c6a40       ?insert@QTextEdit@@UAEXABVQString@@_N11@Z 00534a40 f   qt-mt323:qt-mt323.dll
 0002:000c6a46       ?insertAt@QTextEdit@@UAEXABVQString@@HH@Z 00534a46 f   qt-mt323:qt-mt323.dll
 0002:000c6a4c       ?insertParagraph@QTextEdit@@UAEXABVQString@@H@Z 00534a4c f   qt-mt323:qt-mt323.dll
 0002:000c6a52       ?keyPressEvent@QPopupMenu@@MAEXPAVQKeyEvent@@@Z 00534a52 f   qt-mt323:qt-mt323.dll
 0002:000c6a58       ?keyPressEvent@QTextEdit@@MAEXPAVQKeyEvent@@@Z 00534a58 f   qt-mt323:qt-mt323.dll
 0002:000c6a5e       ?leaveEvent@QPopupMenu@@MAEXPAVQEvent@@@Z 00534a5e f   qt-mt323:qt-mt323.dll
 0002:000c6a64       ?linksEnabled@QTextEdit@@EBE_NXZ 00534a64 f   qt-mt323:qt-mt323.dll
 0002:000c6a6a       ?menuContentsChanged@QPopupMenu@@EAEXXZ 00534a6a f   qt-mt323:qt-mt323.dll
 0002:000c6a70       ?menuDelPopup@QPopupMenu@@EAEXPAV1@@Z 00534a70 f   qt-mt323:qt-mt323.dll
 0002:000c6a76       ?menuInsPopup@QPopupMenu@@EAEXPAV1@@Z 00534a76 f   qt-mt323:qt-mt323.dll
 0002:000c6a7c       ?menuStateChanged@QPopupMenu@@EAEXXZ 00534a7c f   qt-mt323:qt-mt323.dll
 0002:000c6a82       ?metaObject@QAction@@UBEPAVQMetaObject@@XZ 00534a82 f   qt-mt323:qt-mt323.dll
 0002:000c6a88       ?metaObject@QPopupMenu@@UBEPAVQMetaObject@@XZ 00534a88 f   qt-mt323:qt-mt323.dll
 0002:000c6a8e       ?mouseMoveEvent@QPopupMenu@@MAEXPAVQMouseEvent@@@Z 00534a8e f   qt-mt323:qt-mt323.dll
 0002:000c6a94       ?mousePressEvent@QPopupMenu@@MAEXPAVQMouseEvent@@@Z 00534a94 f   qt-mt323:qt-mt323.dll
 0002:000c6a9a       ?mouseReleaseEvent@QPopupMenu@@MAEXPAVQMouseEvent@@@Z 00534a9a f   qt-mt323:qt-mt323.dll
 0002:000c6aa0       ?moveCursor@QTextEdit@@UAEXW4CursorAction@1@_N@Z 00534aa0 f   qt-mt323:qt-mt323.dll
 0002:000c6aa6       ?paintEvent@QPopupMenu@@MAEXPAVQPaintEvent@@@Z 00534aa6 f   qt-mt323:qt-mt323.dll
 0002:000c6aac       ?paste@QTextEdit@@UAEXXZ   00534aac f   qt-mt323:qt-mt323.dll
 0002:000c6ab2       ?pasteSubType@QTextEdit@@UAEXABVQCString@@@Z 00534ab2 f   qt-mt323:qt-mt323.dll
 0002:000c6ab8       ?placeCursor@QTextEdit@@UAEXABVQPoint@@PAVQTextCursor@@@Z 00534ab8 f   qt-mt323:qt-mt323.dll
 0002:000c6abe       ?polish@QTextEdit@@UAEXXZ  00534abe f   qt-mt323:qt-mt323.dll
 0002:000c6ac4       ?qt_cast@QAction@@UAEPAXPBD@Z 00534ac4 f   qt-mt323:qt-mt323.dll
 0002:000c6aca       ?qt_cast@QPopupMenu@@UAEPAXPBD@Z 00534aca f   qt-mt323:qt-mt323.dll
 0002:000c6ad0       ?qt_emit@QAction@@UAE_NHPAUQUObject@@@Z 00534ad0 f   qt-mt323:qt-mt323.dll
 0002:000c6ad6       ?qt_emit@QPopupMenu@@UAE_NHPAUQUObject@@@Z 00534ad6 f   qt-mt323:qt-mt323.dll
 0002:000c6adc       ?qt_invoke@QAction@@UAE_NHPAUQUObject@@@Z 00534adc f   qt-mt323:qt-mt323.dll
 0002:000c6ae2       ?qt_invoke@QPopupMenu@@UAE_NHPAUQUObject@@@Z 00534ae2 f   qt-mt323:qt-mt323.dll
 0002:000c6ae8       ?qt_property@QAction@@UAE_NHHPAVQVariant@@@Z 00534ae8 f   qt-mt323:qt-mt323.dll
 0002:000c6aee       ?qt_property@QPopupMenu@@UAE_NHHPAVQVariant@@@Z 00534aee f   qt-mt323:qt-mt323.dll
 0002:000c6af4       ?redo@QTextEdit@@UAEXXZ    00534af4 f   qt-mt323:qt-mt323.dll
 0002:000c6afa       ?removeFrom@QAction@@UAE_NPAVQWidget@@@Z 00534afa f   qt-mt323:qt-mt323.dll
 0002:000c6b00       ?removeParagraph@QTextEdit@@UAEXH@Z 00534b00 f   qt-mt323:qt-mt323.dll
 0002:000c6b06       ?removeSelectedText@QTextEdit@@UAEXH@Z 00534b06 f   qt-mt323:qt-mt323.dll
 0002:000c6b0c       ?removeSelection@QTextEdit@@UAEXH@Z 00534b0c f   qt-mt323:qt-mt323.dll
 0002:000c6b12       ?resetFormat@QTextEdit@@UAEXXZ 00534b12 f   qt-mt323:qt-mt323.dll
 0002:000c6b18       ?resizeEvent@QTextEdit@@MAEXPAVQResizeEvent@@@Z 00534b18 f   qt-mt323:qt-mt323.dll
 0002:000c6b1e       ?scrollToAnchor@QTextEdit@@UAEXABVQString@@@Z 00534b1e f   qt-mt323:qt-mt323.dll
 0002:000c6b24       ?scrollToBottom@QTextEdit@@UAEXXZ 00534b24 f   qt-mt323:qt-mt323.dll
 0002:000c6b2a       ?selectAll@QTextEdit@@UAEX_N@Z 00534b2a f   qt-mt323:qt-mt323.dll
 0002:000c6b30       ?setAccel@QAction@@UAEXABVQKeySequence@@@Z 00534b30 f   qt-mt323:qt-mt323.dll
 0002:000c6b36       ?setActiveItem@QPopupMenu@@UAEXH@Z 00534b36 f   qt-mt323:qt-mt323.dll
 0002:000c6b3c       ?setAlignment@QTextEdit@@UAEXH@Z 00534b3c f   qt-mt323:qt-mt323.dll
 0002:000c6b42       ?setBold@QTextEdit@@UAEX_N@Z 00534b42 f   qt-mt323:qt-mt323.dll
 0002:000c6b48       ?setCheckable@QPopupMenu@@UAEX_N@Z 00534b48 f   qt-mt323:qt-mt323.dll
 0002:000c6b4e       ?setColor@QTextEdit@@UAEXABVQColor@@@Z 00534b4e f   qt-mt323:qt-mt323.dll
 0002:000c6b54       ?setCurrentFont@QTextEdit@@UAEXABVQFont@@@Z 00534b54 f   qt-mt323:qt-mt323.dll
 0002:000c6b5a       ?setCursorPosition@QTextEdit@@UAEXHH@Z 00534b5a f   qt-mt323:qt-mt323.dll
 0002:000c6b60       ?setEnabled@QAction@@UAEX_N@Z 00534b60 f   qt-mt323:qt-mt323.dll
 0002:000c6b66       ?setEnabled@QTextEdit@@UAEX_N@Z 00534b66 f   qt-mt323:qt-mt323.dll
 0002:000c6b6c       ?setFamily@QTextEdit@@UAEXABVQString@@@Z 00534b6c f   qt-mt323:qt-mt323.dll
 0002:000c6b72       ?setFirstItemActive@QPopupMenu@@EAEXXZ 00534b72 f   qt-mt323:qt-mt323.dll
 0002:000c6b78       ?setFont@QPopupMenu@@UAEXABVQFont@@@Z 00534b78 f   qt-mt323:qt-mt323.dll
 0002:000c6b7e       ?setFont@QTextEdit@@UAEXABVQFont@@@Z 00534b7e f   qt-mt323:qt-mt323.dll
 0002:000c6b84       ?setFormat@QTextEdit@@UAEXPAVQTextFormat@@H@Z 00534b84 f   qt-mt323:qt-mt323.dll
 0002:000c6b8a       ?setIconSet@QAction@@UAEXABVQIconSet@@@Z 00534b8a f   qt-mt323:qt-mt323.dll
 0002:000c6b90       ?setId@QMenuData@@UAEXHH@Z 00534b90 f   qt-mt323:qt-mt323.dll
 0002:000c6b96       ?setItalic@QTextEdit@@UAEX_N@Z 00534b96 f   qt-mt323:qt-mt323.dll
 0002:000c6b9c       ?setLinkUnderline@QTextEdit@@UAEX_N@Z 00534b9c f   qt-mt323:qt-mt323.dll
 0002:000c6ba2       ?setMenuText@QAction@@UAEXABVQString@@@Z 00534ba2 f   qt-mt323:qt-mt323.dll
 0002:000c6ba8       ?setMimeSourceFactory@QTextEdit@@UAEXPAVQMimeSourceFactory@@@Z 00534ba8 f   qt-mt323:qt-mt323.dll
 0002:000c6bae       ?setModified@QTextEdit@@UAEX_N@Z 00534bae f   qt-mt323:qt-mt323.dll
 0002:000c6bb4       ?setOn@QAction@@UAEX_N@Z   00534bb4 f   qt-mt323:qt-mt323.dll
 0002:000c6bba       ?setOverwriteMode@QTextEdit@@UAEX_N@Z 00534bba f   qt-mt323:qt-mt323.dll
 0002:000c6bc0       ?setPalette@QTextEdit@@UAEXABVQPalette@@@Z 00534bc0 f   qt-mt323:qt-mt323.dll
 0002:000c6bc6       ?setPaper@QTextEdit@@UAEXABVQBrush@@@Z 00534bc6 f   qt-mt323:qt-mt323.dll
 0002:000c6bcc       ?setParagType@QTextEdit@@UAEXW4DisplayMode@QStyleSheetItem@@W4ListStyle@3@@Z 00534bcc f   qt-mt323:qt-mt323.dll
 0002:000c6bd2       ?setParagraphBackgroundColor@QTextEdit@@UAEXHABVQColor@@@Z 00534bd2 f   qt-mt323:qt-mt323.dll
 0002:000c6bd8       ?setPointSize@QTextEdit@@UAEXH@Z 00534bd8 f   qt-mt323:qt-mt323.dll
 0002:000c6bde       ?setReadOnly@QTextEdit@@UAEX_N@Z 00534bde f   qt-mt323:qt-mt323.dll
 0002:000c6be4       ?setSelection@QTextEdit@@UAEXHHHHH@Z 00534be4 f   qt-mt323:qt-mt323.dll
 0002:000c6bea       ?setSelectionAttributes@QTextEdit@@UAEXHABVQColor@@_N@Z 00534bea f   qt-mt323:qt-mt323.dll
 0002:000c6bf0       ?setStatusTip@QAction@@UAEXABVQString@@@Z 00534bf0 f   qt-mt323:qt-mt323.dll
 0002:000c6bf6       ?setStyleSheet@QTextEdit@@UAEXPAVQStyleSheet@@@Z 00534bf6 f   qt-mt323:qt-mt323.dll
 0002:000c6bfc       ?setText@QAction@@UAEXABVQString@@@Z 00534bfc f   qt-mt323:qt-mt323.dll
 0002:000c6c02       ?setText@QTextEdit@@UAEXABVQString@@0@Z 00534c02 f   qt-mt323:qt-mt323.dll
 0002:000c6c08       ?setTextFormat@QTextEdit@@UAEXW4TextFormat@Qt@@@Z 00534c08 f   qt-mt323:qt-mt323.dll
 0002:000c6c0e       ?setToggleAction@QAction@@UAEX_N@Z 00534c0e f   qt-mt323:qt-mt323.dll
 0002:000c6c14       ?setToolTip@QAction@@UAEXABVQString@@@Z 00534c14 f   qt-mt323:qt-mt323.dll
 0002:000c6c1a       ?setUnderline@QTextEdit@@UAEX_N@Z 00534c1a f   qt-mt323:qt-mt323.dll
 0002:000c6c20       ?setUndoDepth@QTextEdit@@UAEXH@Z 00534c20 f   qt-mt323:qt-mt323.dll
 0002:000c6c26       ?setUndoRedoEnabled@QTextEdit@@UAEX_N@Z 00534c26 f   qt-mt323:qt-mt323.dll
 0002:000c6c2c       ?setVerticalAlignment@QTextEdit@@UAEXW4VerticalAlignment@1@@Z 00534c2c f   qt-mt323:qt-mt323.dll
 0002:000c6c32       ?setWhatsThis@QAction@@UAEXABVQString@@@Z 00534c32 f   qt-mt323:qt-mt323.dll
 0002:000c6c38       ?setWordWrap@QTextEdit@@UAEXW4WordWrap@1@@Z 00534c38 f   qt-mt323:qt-mt323.dll
 0002:000c6c3e       ?setWrapColumnOrWidth@QTextEdit@@UAEXH@Z 00534c3e f   qt-mt323:qt-mt323.dll
 0002:000c6c44       ?setWrapPolicy@QTextEdit@@UAEXW4WrapPolicy@1@@Z 00534c44 f   qt-mt323:qt-mt323.dll
 0002:000c6c4a       ?show@QPopupMenu@@UAEXXZ   00534c4a f   qt-mt323:qt-mt323.dll
 0002:000c6c50       ?sizeHint@QPopupMenu@@UBE?AVQSize@@XZ 00534c50 f   qt-mt323:qt-mt323.dll
 0002:000c6c56       ?sizeHint@QTextEdit@@UBE?AVQSize@@XZ 00534c56 f   qt-mt323:qt-mt323.dll
 0002:000c6c5c       ?styleChange@QPopupMenu@@MAEXAAVQStyle@@@Z 00534c5c f   qt-mt323:qt-mt323.dll
 0002:000c6c62       ?sync@QTextEdit@@UAEXXZ    00534c62 f   qt-mt323:qt-mt323.dll
 0002:000c6c68       ?timerEvent@QPopupMenu@@MAEXPAVQTimerEvent@@@Z 00534c68 f   qt-mt323:qt-mt323.dll
 0002:000c6c6e       ?undo@QTextEdit@@UAEXXZ    00534c6e f   qt-mt323:qt-mt323.dll
 0002:000c6c74       ?updateItem@QPopupMenu@@UAEXH@Z 00534c74 f   qt-mt323:qt-mt323.dll
 0002:000c6c7a       ?viewportResizeEvent@QTextEdit@@MAEXPAVQResizeEvent@@@Z 00534c7a f   qt-mt323:qt-mt323.dll
 0002:000c6c80       ?windowActivationChange@QTextEdit@@MAEX_N@Z 00534c80 f   qt-mt323:qt-mt323.dll
 0002:000c6c86       ?zoomIn@QTextEdit@@UAEXH@Z 00534c86 f   qt-mt323:qt-mt323.dll
 0002:000c6c8c       ?zoomIn@QTextEdit@@UAEXXZ  00534c8c f   qt-mt323:qt-mt323.dll
 0002:000c6c92       ?zoomOut@QTextEdit@@UAEXH@Z 00534c92 f   qt-mt323:qt-mt323.dll
 0002:000c6c98       ?zoomOut@QTextEdit@@UAEXXZ 00534c98 f   qt-mt323:qt-mt323.dll
 0002:000c6c9e       ?zoomTo@QTextEdit@@UAEXH@Z 00534c9e f   qt-mt323:qt-mt323.dll
 0002:000c6ca4       ?upper@QString@@QBE?AV1@XZ 00534ca4 f   qt-mt323:qt-mt323.dll
 0002:000c6caa       ?append@QString@@QAEAAV1@ABV1@@Z 00534caa f   qt-mt323:qt-mt323.dll
 0002:000c6cb0       ?append@QString@@QAEAAV1@PBD@Z 00534cb0 f   qt-mt323:qt-mt323.dll
 0002:000c6cb6       ?x@QRect@@QBEHXZ           00534cb6 f   qt-mt323:qt-mt323.dll
 0002:000c6cbc       ?y@QRect@@QBEHXZ           00534cbc f   qt-mt323:qt-mt323.dll
 0002:000c6cc2       ?remove@?$QValueList@VQString@@@@QAEIABVQString@@@Z 00534cc2 f   qt-mt323:qt-mt323.dll
 0002:000c6cc8       ?accept@QCloseEvent@@QAEXXZ 00534cc8 f   qt-mt323:qt-mt323.dll
 0002:000c6cce       ?ignore@QCloseEvent@@QAEXXZ 00534cce f   qt-mt323:qt-mt323.dll
 0002:000c6cd4       ?accept@QDragMoveEvent@@QAEX_N@Z 00534cd4 f   qt-mt323:qt-mt323.dll
 0002:000c6cda       ?sender@QObject@@IAEPBV1@XZ 00534cda f   qt-mt323:qt-mt323.dll
 0002:000c6ce0       ??4QStringList@@QAEAAV0@ABV0@@Z 00534ce0 f   qt-mt323:qt-mt323.dll
 0002:000c6ce6       ??0QColor@@QAE@ABVQString@@@Z 00534ce6 f   qt-mt323:qt-mt323.dll
 0002:000c6cec       ?name@QColor@@QBE?AVQString@@XZ 00534cec f   qt-mt323:qt-mt323.dll
 0002:000c6cf2       ?winId@QWidget@@QBEPAUHWND__@@XZ 00534cf2 f   qt-mt323:qt-mt323.dll
 0002:000c6cf8       ?setStyle@QWidget@@QAEPAVQStyle@@ABVQString@@@Z 00534cf8 f   qt-mt323:qt-mt323.dll
 0002:000c6cfe       ?caption@QWidget@@QBE?AVQString@@XZ 00534cfe f   qt-mt323:qt-mt323.dll
 0002:000c6d04       ?close@QWidget@@QAE_NXZ    00534d04 f   qt-mt323:qt-mt323.dll
 0002:000c6d0a       ?isVisible@QWidget@@QBE_NXZ 00534d0a f   qt-mt323:qt-mt323.dll
 0002:000c6d10       ?isMaximized@QWidget@@QBE_NXZ 00534d10 f   qt-mt323:qt-mt323.dll
 0002:000c6d16       ?count@?$QPtrList@VQWidget@@@@UBEIXZ 00534d16 f   qt-mt323:qt-mt323.dll
 0002:000c6d1c       ?isEmpty@?$QPtrList@VQWidget@@@@QBE_NXZ 00534d1c f   qt-mt323:qt-mt323.dll
 0002:000c6d22       ?at@?$QPtrList@VQWidget@@@@QAEPAVQWidget@@I@Z 00534d22 f   qt-mt323:qt-mt323.dll
 0002:000c6d28       ?look_string@QGDict@@QAEPAXABVQString@@PAXH@Z 00534d28 f   qt-mt323:qt-mt323.dll
 0002:000c6d2e       ?mainWidget@QApplication@@QBEPAVQWidget@@XZ 00534d2e f   qt-mt323:qt-mt323.dll
 0002:000c6d34       ?processEvents@QApplication@@QAEXXZ 00534d34 f   qt-mt323:qt-mt323.dll
 0002:000c6d3a       ?exists@QFile@@SA_NABVQString@@@Z 00534d3a f   qt-mt323:qt-mt323.dll
 0002:000c6d40       ?absFilePath@QFileInfo@@QBE?AVQString@@XZ 00534d40 f   qt-mt323:qt-mt323.dll
 0002:000c6d46       ?extension@QFileInfo@@QBE?AVQString@@_N@Z 00534d46 f   qt-mt323:qt-mt323.dll
 0002:000c6d4c       ?dir@QFileInfo@@QBE?AVQDir@@_N@Z 00534d4c f   qt-mt323:qt-mt323.dll
 0002:000c6d52       ?isFile@QFileInfo@@QBE_NXZ 00534d52 f   qt-mt323:qt-mt323.dll
 0002:000c6d58       ?canonicalPath@QDir@@UBE?AVQString@@XZ 00534d58 f   qt-mt323:qt-mt323.dll
 0002:000c6d5e       ?entryList@QDir@@UBE?AVQStringList@@HH@Z 00534d5e f   qt-mt323:qt-mt323.dll
 0002:000c6d64       ??0QWorkspace@@QAE@PAVQWidget@@PBD@Z 00534d64 f   qt-mt323:qt-mt323.dll
 0002:000c6d6a       ??1QWorkspace@@UAE@XZ      00534d6a f   qt-mt323:qt-mt323.dll
 0002:000c6d70       ?activeWindow@QWorkspace@@QBEPAVQWidget@@XZ 00534d70 f   qt-mt323:qt-mt323.dll
 0002:000c6d76       ?windowList@QWorkspace@@QBE?AVQWidgetList@@XZ 00534d76 f   qt-mt323:qt-mt323.dll
 0002:000c6d7c       ??0QPixmap@@QAE@ABVQImage@@@Z 00534d7c f   qt-mt323:qt-mt323.dll
 0002:000c6d82       ?isNull@QPixmap@@QBE_NXZ   00534d82 f   qt-mt323:qt-mt323.dll
 0002:000c6d88       ?insertItem@QMenuData@@QAEHABVQString@@PBVQObject@@PBDABVQKeySequence@@HH@Z 00534d88 f   qt-mt323:qt-mt323.dll
 0002:000c6d8e       ?clear@QMenuData@@QAEXXZ   00534d8e f   qt-mt323:qt-mt323.dll
 0002:000c6d94       ?text@QMenuData@@QBE?AVQString@@H@Z 00534d94 f   qt-mt323:qt-mt323.dll
 0002:000c6d9a       ?setItemEnabled@QMenuData@@QAEXH_N@Z 00534d9a f   qt-mt323:qt-mt323.dll
 0002:000c6da0       ?setItemChecked@QMenuData@@QAEXH_N@Z 00534da0 f   qt-mt323:qt-mt323.dll
 0002:000c6da6       ?setItemParameter@QMenuData@@QAE_NHH@Z 00534da6 f   qt-mt323:qt-mt323.dll
 0002:000c6dac       ?place@QDockWindow@@QBE?AW4Place@1@XZ 00534dac f   qt-mt323:qt-mt323.dll
 0002:000c6db2       ??0QToolBar@@QAE@PAVQMainWindow@@PBD@Z 00534db2 f   qt-mt323:qt-mt323.dll
 0002:000c6db8       ??1QToolBar@@UAE@XZ        00534db8 f   qt-mt323:qt-mt323.dll
 0002:000c6dbe       ?message@QStatusBar@@QAEXABVQString@@@Z 00534dbe f   qt-mt323:qt-mt323.dll
 0002:000c6dc4       ?clear@QStatusBar@@QAEXXZ  00534dc4 f   qt-mt323:qt-mt323.dll
 0002:000c6dca       ??0QAction@@QAE@ABVQString@@0VQKeySequence@@PAVQObject@@PBD_N@Z 00534dca f   qt-mt323:qt-mt323.dll
 0002:000c6dd0       ??0QImage@@QAE@QBQBD@Z     00534dd0 f   qt-mt323:qt-mt323.dll
 0002:000c6dd6       ??1QImage@@QAE@XZ          00534dd6 f   qt-mt323:qt-mt323.dll
 0002:000c6ddc       ?canDecode@QUriDrag@@SA_NPBVQMimeSource@@@Z 00534ddc f   qt-mt323:qt-mt323.dll
 0002:000c6de2       ?decodeLocalFiles@QUriDrag@@SA_NPBVQMimeSource@@AAVQStringList@@@Z 00534de2 f   qt-mt323:qt-mt323.dll
 0002:000c6de8       ?count@QComboBox@@QBEHXZ   00534de8 f   qt-mt323:qt-mt323.dll
 0002:000c6dee       ?insertStringList@QComboBox@@QAEXABVQStringList@@H@Z 00534dee f   qt-mt323:qt-mt323.dll
 0002:000c6df4       ?text@QComboBox@@QBE?AVQString@@H@Z 00534df4 f   qt-mt323:qt-mt323.dll
 0002:000c6dfa       ??0QFontDatabase@@QAE@XZ   00534dfa f   qt-mt323:qt-mt323.dll
 0002:000c6e00       ?families@QFontDatabase@@QBE?AVQStringList@@XZ 00534e00 f   qt-mt323:qt-mt323.dll
 0002:000c6e06       ?information@QMessageBox@@SAHPAVQWidget@@ABVQString@@1HHH@Z 00534e06 f   qt-mt323:qt-mt323.dll
 0002:000c6e0c       ??0QMainWindow@@QAE@PAVQWidget@@PBDI@Z 00534e0c f   qt-mt323:qt-mt323.dll
 0002:000c6e12       ??1QMainWindow@@UAE@XZ     00534e12 f   qt-mt323:qt-mt323.dll
 0002:000c6e18       ?statusBar@QMainWindow@@QBEPAVQStatusBar@@XZ 00534e18 f   qt-mt323:qt-mt323.dll
 0002:000c6e1e       ?setCentralWidget@QMainWindow@@UAEXPAVQWidget@@@Z 00534e1e f   qt-mt323:qt-mt323.dll
 0002:000c6e24       ?addDockWindow@QMainWindow@@UAEXPAVQDockWindow@@W4Dock@Qt@@_N@Z 00534e24 f   qt-mt323:qt-mt323.dll
 0002:000c6e2a       ?addToolBar@QMainWindow@@QAEXPAVQDockWindow@@ABVQString@@W4Dock@Qt@@_N@Z 00534e2a f   qt-mt323:qt-mt323.dll
 0002:000c6e30       ?keys@QStyleFactory@@SA?AVQStringList@@XZ 00534e30 f   qt-mt323:qt-mt323.dll
 0002:000c6e36       ?addDockWindow@QMainWindow@@UAEXPAVQDockWindow@@ABVQString@@W4Dock@Qt@@_N@Z 00534e36 f   qt-mt323:qt-mt323.dll
 0002:000c6e3c       ?childEvent@QMainWindow@@MAEXPAVQChildEvent@@@Z 00534e3c f   qt-mt323:qt-mt323.dll
 0002:000c6e42       ?childEvent@QWorkspace@@MAEXPAVQChildEvent@@@Z 00534e42 f   qt-mt323:qt-mt323.dll
 0002:000c6e48       ?className@QToolBar@@UBEPBDXZ 00534e48 f   qt-mt323:qt-mt323.dll
 0002:000c6e4e       ?className@QWorkspace@@UBEPBDXZ 00534e4e f   qt-mt323:qt-mt323.dll
 0002:000c6e54       ?clear@QToolBar@@UAEXXZ    00534e54 f   qt-mt323:qt-mt323.dll
 0002:000c6e5a       ?customize@QMainWindow@@UAEXXZ 00534e5a f   qt-mt323:qt-mt323.dll
 0002:000c6e60       ?dockingArea@QMainWindow@@UAEPAVQDockArea@@ABVQPoint@@@Z 00534e60 f   qt-mt323:qt-mt323.dll
 0002:000c6e66       ?event@QMainWindow@@MAE_NPAVQEvent@@@Z 00534e66 f   qt-mt323:qt-mt323.dll
 0002:000c6e6c       ?event@QToolBar@@UAE_NPAVQEvent@@@Z 00534e6c f   qt-mt323:qt-mt323.dll
 0002:000c6e72       ?eventFilter@QMainWindow@@UAE_NPAVQObject@@PAVQEvent@@@Z 00534e72 f   qt-mt323:qt-mt323.dll
 0002:000c6e78       ?eventFilter@QWorkspace@@MAE_NPAVQObject@@PAVQEvent@@@Z 00534e78 f   qt-mt323:qt-mt323.dll
 0002:000c6e7e       ?hide@QMainWindow@@UAEXXZ  00534e7e f   qt-mt323:qt-mt323.dll
 0002:000c6e84       ?hide@QToolBar@@UAEXXZ     00534e84 f   qt-mt323:qt-mt323.dll
 0002:000c6e8a       ?hideEvent@QWorkspace@@MAEXPAVQHideEvent@@@Z 00534e8a f   qt-mt323:qt-mt323.dll
 0002:000c6e90       ?isCustomizable@QMainWindow@@UBE_NXZ 00534e90 f   qt-mt323:qt-mt323.dll
 0002:000c6e96       ?metaObject@QToolBar@@UBEPAVQMetaObject@@XZ 00534e96 f   qt-mt323:qt-mt323.dll
 0002:000c6e9c       ?metaObject@QWorkspace@@UBEPAVQMetaObject@@XZ 00534e9c f   qt-mt323:qt-mt323.dll
 0002:000c6ea2       ?minimumSizeHint@QMainWindow@@UBE?AVQSize@@XZ 00534ea2 f   qt-mt323:qt-mt323.dll
 0002:000c6ea8       ?minimumSizeHint@QToolBar@@UBE?AVQSize@@XZ 00534ea8 f   qt-mt323:qt-mt323.dll
 0002:000c6eae       ?moveDockWindow@QMainWindow@@UAEXPAVQDockWindow@@W4Dock@Qt@@@Z 00534eae f   qt-mt323:qt-mt323.dll
 0002:000c6eb4       ?moveDockWindow@QMainWindow@@UAEXPAVQDockWindow@@W4Dock@Qt@@_NHH@Z 00534eb4 f   qt-mt323:qt-mt323.dll
 0002:000c6eba       ?paintEvent@QMainWindow@@MAEXPAVQPaintEvent@@@Z 00534eba f   qt-mt323:qt-mt323.dll
 0002:000c6ec0       ?qt_cast@QToolBar@@UAEPAXPBD@Z 00534ec0 f   qt-mt323:qt-mt323.dll
 0002:000c6ec6       ?qt_cast@QWorkspace@@UAEPAXPBD@Z 00534ec6 f   qt-mt323:qt-mt323.dll
 0002:000c6ecc       ?qt_emit@QToolBar@@UAE_NHPAUQUObject@@@Z 00534ecc f   qt-mt323:qt-mt323.dll
 0002:000c6ed2       ?qt_emit@QWorkspace@@UAE_NHPAUQUObject@@@Z 00534ed2 f   qt-mt323:qt-mt323.dll
 0002:000c6ed8       ?qt_invoke@QToolBar@@UAE_NHPAUQUObject@@@Z 00534ed8 f   qt-mt323:qt-mt323.dll
 0002:000c6ede       ?qt_invoke@QWorkspace@@UAE_NHPAUQUObject@@@Z 00534ede f   qt-mt323:qt-mt323.dll
 0002:000c6ee4       ?qt_property@QToolBar@@UAE_NHHPAVQVariant@@@Z 00534ee4 f   qt-mt323:qt-mt323.dll
 0002:000c6eea       ?qt_property@QWorkspace@@UAE_NHHPAVQVariant@@@Z 00534eea f   qt-mt323:qt-mt323.dll
 0002:000c6ef0       ?removeDockWindow@QMainWindow@@UAEXPAVQDockWindow@@@Z 00534ef0 f   qt-mt323:qt-mt323.dll
 0002:000c6ef6       ?resizeEvent@QToolBar@@MAEXPAVQResizeEvent@@@Z 00534ef6 f   qt-mt323:qt-mt323.dll
 0002:000c6efc       ?resizeEvent@QWorkspace@@MAEXPAVQResizeEvent@@@Z 00534efc f   qt-mt323:qt-mt323.dll
 0002:000c6f02       ?setAppropriate@QMainWindow@@UAEXPAVQDockWindow@@_N@Z 00534f02 f   qt-mt323:qt-mt323.dll
 0002:000c6f08       ?setDockEnabled@QMainWindow@@UAEXPAVQDockWindow@@W4Dock@Qt@@_N@Z 00534f08 f   qt-mt323:qt-mt323.dll
 0002:000c6f0e       ?setDockEnabled@QMainWindow@@UAEXW4Dock@Qt@@_N@Z 00534f0e f   qt-mt323:qt-mt323.dll
 0002:000c6f14       ?setDockMenuEnabled@QMainWindow@@UAEX_N@Z 00534f14 f   qt-mt323:qt-mt323.dll
 0002:000c6f1a       ?setDockWindowsMovable@QMainWindow@@UAEX_N@Z 00534f1a f   qt-mt323:qt-mt323.dll
 0002:000c6f20       ?setLabel@QToolBar@@UAEXABVQString@@@Z 00534f20 f   qt-mt323:qt-mt323.dll
 0002:000c6f26       ?setMenuBar@QMainWindow@@EAEXPAVQMenuBar@@@Z 00534f26 f   qt-mt323:qt-mt323.dll
 0002:000c6f2c       ?setMinimumSize@QToolBar@@UAEXHH@Z 00534f2c f   qt-mt323:qt-mt323.dll
 0002:000c6f32       ?setOpaqueMoving@QMainWindow@@UAEX_N@Z 00534f32 f   qt-mt323:qt-mt323.dll
 0002:000c6f38       ?setOrientation@QToolBar@@UAEXW4Orientation@Qt@@@Z 00534f38 f   qt-mt323:qt-mt323.dll
 0002:000c6f3e       ?setPaletteBackgroundColor@QWorkspace@@UAEXABVQColor@@@Z 00534f3e f   qt-mt323:qt-mt323.dll
 0002:000c6f44       ?setPaletteBackgroundPixmap@QWorkspace@@UAEXABVQPixmap@@@Z 00534f44 f   qt-mt323:qt-mt323.dll
 0002:000c6f4a       ?setRightJustification@QMainWindow@@UAEX_N@Z 00534f4a f   qt-mt323:qt-mt323.dll
 0002:000c6f50       ?setStatusBar@QMainWindow@@EAEXPAVQStatusBar@@@Z 00534f50 f   qt-mt323:qt-mt323.dll
 0002:000c6f56       ?setStretchableWidget@QToolBar@@UAEXPAVQWidget@@@Z 00534f56 f   qt-mt323:qt-mt323.dll
 0002:000c6f5c       ?setToolTipGroup@QMainWindow@@EAEXPAVQToolTipGroup@@@Z 00534f5c f   qt-mt323:qt-mt323.dll
 0002:000c6f62       ?setUpLayout@QMainWindow@@MAEXXZ 00534f62 f   qt-mt323:qt-mt323.dll
 0002:000c6f68       ?setUsesBigPixmaps@QMainWindow@@UAEX_N@Z 00534f68 f   qt-mt323:qt-mt323.dll
 0002:000c6f6e       ?setUsesTextLabel@QMainWindow@@UAEX_N@Z 00534f6e f   qt-mt323:qt-mt323.dll
 0002:000c6f74       ?show@QToolBar@@UAEXXZ     00534f74 f   qt-mt323:qt-mt323.dll
 0002:000c6f7a       ?showDockMenu@QMainWindow@@MAE_NABVQPoint@@@Z 00534f7a f   qt-mt323:qt-mt323.dll
 0002:000c6f80       ?showEvent@QWorkspace@@MAEXPAVQShowEvent@@@Z 00534f80 f   qt-mt323:qt-mt323.dll
 0002:000c6f86       ?sizeHint@QMainWindow@@UBE?AVQSize@@XZ 00534f86 f   qt-mt323:qt-mt323.dll
 0002:000c6f8c       ?sizeHint@QWorkspace@@UBE?AVQSize@@XZ 00534f8c f   qt-mt323:qt-mt323.dll
 0002:000c6f92       ?styleChange@QMainWindow@@MAEXAAVQStyle@@@Z 00534f92 f   qt-mt323:qt-mt323.dll
 0002:000c6f98       ?styleChange@QToolBar@@MAEXAAVQStyle@@@Z 00534f98 f   qt-mt323:qt-mt323.dll
 0002:000c6f9e       ?styleChange@QWorkspace@@MAEXAAVQStyle@@@Z 00534f9e f   qt-mt323:qt-mt323.dll
 0002:000c6fa4       ?whatsThis@QMainWindow@@UAEXXZ 00534fa4 f   qt-mt323:qt-mt323.dll
 0002:000c6faa       ?wheelEvent@QWorkspace@@MAEXPAVQWheelEvent@@@Z 00534faa f   qt-mt323:qt-mt323.dll
 0002:000c6fb0       ?section@QString@@QBE?AV1@DHHH@Z 00534fb0 f   qt-mt323:qt-mt323.dll
 0002:000c6fb6       ??0QObject@@QAE@PAV0@PBD@Z 00534fb6 f   qt-mt323:qt-mt323.dll
 0002:000c6fbc       ??1QObject@@UAE@XZ         00534fbc f   qt-mt323:qt-mt323.dll
 0002:000c6fc2       ?split@QStringList@@SA?AV1@ABVQChar@@ABVQString@@_N@Z 00534fc2 f   qt-mt323:qt-mt323.dll
 0002:000c6fc8       ?setMinimumWidth@QWidget@@QAEXH@Z 00534fc8 f   qt-mt323:qt-mt323.dll
 0002:000c6fce       ?setMaximumWidth@QWidget@@QAEXH@Z 00534fce f   qt-mt323:qt-mt323.dll
 0002:000c6fd4       ?addSeparator@QToolBar@@QAEXXZ 00534fd4 f   qt-mt323:qt-mt323.dll
 0002:000c6fda       ?count@QMenuData@@QBEIXZ   00534fda f   qt-mt323:qt-mt323.dll
 0002:000c6fe0       ?idAt@QMenuData@@QBEHH@Z   00534fe0 f   qt-mt323:qt-mt323.dll
 0002:000c6fe6       ?add@QToolTip@@SAXPAVQWidget@@ABVQString@@@Z 00534fe6 f   qt-mt323:qt-mt323.dll
 0002:000c6fec       ?toUInt@QString@@QBEIPA_NH@Z 00534fec f   qt-mt323:qt-mt323.dll
 0002:000c6ff2       ?startsWith@QString@@QBE_NABV1@@Z 00534ff2 f   qt-mt323:qt-mt323.dll
 0002:000c6ff8       ?startsWith@QString@@QBE_NABV1@_N@Z 00534ff8 f   qt-mt323:qt-mt323.dll
 0002:000c6ffe       ??8@YA_NPBDABVQString@@@Z  00534ffe f   qt-mt323:qt-mt323.dll
 0002:000c7004       ??H@YA?BVQString@@ABV0@D@Z 00535004 f   qt-mt323:qt-mt323.dll
 0002:000c700a       ??6QTextStream@@QAEAAV0@H@Z 0053500a f   qt-mt323:qt-mt323.dll
 0002:000c7010       ?join@QStringList@@QBE?AVQString@@ABV2@@Z 00535010 f   qt-mt323:qt-mt323.dll
 0002:000c7016       ?grep@QStringList@@QBE?AV1@ABVQString@@_N@Z 00535016 f   qt-mt323:qt-mt323.dll
 0002:000c701c       ??0QColor@@QAE@PBD@Z       0053501c f   qt-mt323:qt-mt323.dll
 0002:000c7022       ??YQPoint@@QAEAAV0@ABV0@@Z 00535022 f   qt-mt323:qt-mt323.dll
 0002:000c7028       ?left@QRect@@QBEHXZ        00535028 f   qt-mt323:qt-mt323.dll
 0002:000c702e       ?top@QRect@@QBEHXZ         0053502e f   qt-mt323:qt-mt323.dll
 0002:000c7034       ?right@QRect@@QBEHXZ       00535034 f   qt-mt323:qt-mt323.dll
 0002:000c703a       ?bottom@QRect@@QBEHXZ      0053503a f   qt-mt323:qt-mt323.dll
 0002:000c7040       ?setX@QRect@@QAEXH@Z       00535040 f   qt-mt323:qt-mt323.dll
 0002:000c7046       ?setY@QRect@@QAEXH@Z       00535046 f   qt-mt323:qt-mt323.dll
 0002:000c704c       ?setWidth@QRect@@QAEXH@Z   0053504c f   qt-mt323:qt-mt323.dll
 0002:000c7052       ?setHeight@QRect@@QAEXH@Z  00535052 f   qt-mt323:qt-mt323.dll
 0002:000c7058       ?drawPoint@QPainter@@QAEXHH@Z 00535058 f   qt-mt323:qt-mt323.dll
 0002:000c705e       ?type@QEvent@@QBE?AW4Type@1@XZ 0053505e f   qt-mt323:qt-mt323.dll
 0002:000c7064       ?button@QMouseEvent@@QBE?AW4ButtonState@Qt@@XZ 00535064 f   qt-mt323:qt-mt323.dll
 0002:000c706a       ?state@QMouseEvent@@QBE?AW4ButtonState@Qt@@XZ 0053506a f   qt-mt323:qt-mt323.dll
 0002:000c7070       ?pos@QMoveEvent@@QBEABVQPoint@@XZ 00535070 f   qt-mt323:qt-mt323.dll
 0002:000c7076       ?pos@QContextMenuEvent@@QBEABVQPoint@@XZ 00535076 f   qt-mt323:qt-mt323.dll
 0002:000c707c       ?child@QChildEvent@@QBEPAVQObject@@XZ 0053507c f   qt-mt323:qt-mt323.dll
 0002:000c7082       ?isWidgetType@QObject@@QBE_NXZ 00535082 f   qt-mt323:qt-mt323.dll
 0002:000c7088       ?child@QObject@@QAEPAV1@PBD0_N@Z 00535088 f   qt-mt323:qt-mt323.dll
 0002:000c708e       ?queryList@QObject@@QBEPAVQObjectList@@PBD0_N1@Z 0053508e f   qt-mt323:qt-mt323.dll
 0002:000c7094       ?installEventFilter@QObject@@QAEXPBV1@@Z 00535094 f   qt-mt323:qt-mt323.dll
 0002:000c709a       ?parent@QObject@@QBEPAV1@XZ 0053509a f   qt-mt323:qt-mt323.dll
 0002:000c70a0       ?toFirst@?$QPtrListIterator@VQObject@@@@QAEPAVQObject@@XZ 005350a0 f   qt-mt323:qt-mt323.dll
 0002:000c70a6       ?current@?$QPtrListIterator@VQObject@@@@QBEPAVQObject@@XZ 005350a6 f   qt-mt323:qt-mt323.dll
 0002:000c70ac       ??E?$QPtrListIterator@VQObject@@@@QAEPAVQObject@@XZ 005350ac f   qt-mt323:qt-mt323.dll
 0002:000c70b2       ?first@?$QPtrList@VQObject@@@@QAEPAVQObject@@XZ 005350b2 f   qt-mt323:qt-mt323.dll
 0002:000c70b8       ?next@?$QPtrList@VQObject@@@@QAEPAVQObject@@XZ 005350b8 f   qt-mt323:qt-mt323.dll
 0002:000c70be       ?mapFromGlobal@QWidget@@QBE?AVQPoint@@ABV2@@Z 005350be f   qt-mt323:qt-mt323.dll
 0002:000c70c4       ?clearFocus@QWidget@@QAEXXZ 005350c4 f   qt-mt323:qt-mt323.dll
 0002:000c70ca       ?update@QWidget@@QAEXXZ    005350ca f   qt-mt323:qt-mt323.dll
 0002:000c70d0       ?lower@QWidget@@QAEXXZ     005350d0 f   qt-mt323:qt-mt323.dll
 0002:000c70d6       ?move@QWidget@@QAEXABVQPoint@@@Z 005350d6 f   qt-mt323:qt-mt323.dll
 0002:000c70dc       ?childAt@QWidget@@QBEPAV1@ABVQPoint@@_N@Z 005350dc f   qt-mt323:qt-mt323.dll
 0002:000c70e2       ?append@?$QPtrList@VQWidget@@@@QAEXPBVQWidget@@@Z 005350e2 f   qt-mt323:qt-mt323.dll
 0002:000c70e8       ?sort@?$QPtrList@VQWidget@@@@QAEXXZ 005350e8 f   qt-mt323:qt-mt323.dll
 0002:000c70ee       ?begin@?$QPtrList@VQWidget@@@@QAE?AV?$QPtrListStdIterator@VQWidget@@@@XZ 005350ee f   qt-mt323:qt-mt323.dll
 0002:000c70f4       ?end@?$QPtrList@VQWidget@@@@QAE?AV?$QPtrListStdIterator@VQWidget@@@@XZ 005350f4 f   qt-mt323:qt-mt323.dll
 0002:000c70fa       ?isChecked@QRadioButton@@QBE_NXZ 005350fa f   qt-mt323:qt-mt323.dll
 0002:000c7100       ?doubleClickInterval@QApplication@@SAHXZ 00535100 f   qt-mt323:qt-mt323.dll
 0002:000c7106       ?setText@QClipboard@@QAEXABVQString@@W4Mode@1@@Z 00535106 f   qt-mt323:qt-mt323.dll
 0002:000c710c       ?dirPath@QFileInfo@@QBE?AVQString@@_N@Z 0053510c f   qt-mt323:qt-mt323.dll
 0002:000c7112       ?absPath@QDir@@UBE?AVQString@@XZ 00535112 f   qt-mt323:qt-mt323.dll
 0002:000c7118       ?canDecode@QTextDrag@@SA_NPBVQMimeSource@@@Z 00535118 f   qt-mt323:qt-mt323.dll
 0002:000c711e       ?decode@QTextDrag@@SA_NPBVQMimeSource@@AAVQString@@@Z 0053511e f   qt-mt323:qt-mt323.dll
 0002:000c7124       ?question@QMessageBox@@SAHPAVQWidget@@ABVQString@@1HHH@Z 00535124 f   qt-mt323:qt-mt323.dll
 0002:000c712a       ??0QObjectListIt@@QAE@ABVQObjectList@@@Z 0053512a f   qt-mt323:qt-mt323.dll
 0002:000c7130       ??1QObjectListIt@@QAE@XZ   00535130 f   qt-mt323:qt-mt323.dll
 0002:000c7136       ??0QProcess@@QAE@PAVQObject@@PBD@Z 00535136 f   qt-mt323:qt-mt323.dll
 0002:000c713c       ??0QProcess@@QAE@ABVQString@@PAVQObject@@PBD@Z 0053513c f   qt-mt323:qt-mt323.dll
 0002:000c7142       ??1QProcess@@UAE@XZ        00535142 f   qt-mt323:qt-mt323.dll
 0002:000c7148       ?addArgument@QProcess@@UAEXABVQString@@@Z 00535148 f   qt-mt323:qt-mt323.dll
 0002:000c714e       ?start@QProcess@@UAE_NPAVQStringList@@@Z 0053514e f   qt-mt323:qt-mt323.dll
 0002:000c7154       ?exitStatus@QProcess@@QBEHXZ 00535154 f   qt-mt323:qt-mt323.dll
 0002:000c715a       ?value@QSpinBox@@QBEHXZ    0053515a f   qt-mt323:qt-mt323.dll
 0002:000c7160       ??0QTimer@@QAE@PAVQObject@@PBD@Z 00535160 f   qt-mt323:qt-mt323.dll
 0002:000c7166       ??1QTimer@@UAE@XZ          00535166 f   qt-mt323:qt-mt323.dll
 0002:000c716c       ?start@QTimer@@QAEHH_N@Z   0053516c f   qt-mt323:qt-mt323.dll
 0002:000c7172       ?stop@QTimer@@QAEXXZ       00535172 f   qt-mt323:qt-mt323.dll
 0002:000c7178       ?setContent@QDomDocument@@QAE_NABVQString@@PAV2@PAH2@Z 00535178 f   qt-mt323:qt-mt323.dll
 0002:000c717e       ??0QWidgetList@@QAE@XZ     0053517e f   qt-mt323:qt-mt323.dll
 0002:000c7184       ??4QWidgetList@@QAEAAV0@ABV0@@Z 00535184 f   qt-mt323:qt-mt323.dll
 0002:000c718a       ?className@QProcess@@UBEPBDXZ 0053518a f   qt-mt323:qt-mt323.dll
 0002:000c7190       ?clear@?$QPtrList@VQWidget@@@@UAEXXZ 00535190 f   qt-mt323:qt-mt323.dll
 0002:000c7196       ?closeStdin@QProcess@@UAEXXZ 00535196 f   qt-mt323:qt-mt323.dll
 0002:000c719c       ?connectNotify@QProcess@@MAEXPBD@Z 0053519c f   qt-mt323:qt-mt323.dll
 0002:000c71a2       ?deleteItem@?$QPtrList@VQWidget@@@@EAEXPAX@Z 005351a2 f   qt-mt323:qt-mt323.dll
 0002:000c71a8       ?disconnectNotify@QProcess@@MAEXPBD@Z 005351a8 f   qt-mt323:qt-mt323.dll
 0002:000c71ae       ?launch@QProcess@@UAE_NABV?$QMemArray@D@@PAVQStringList@@@Z 005351ae f   qt-mt323:qt-mt323.dll
 0002:000c71b4       ?launch@QProcess@@UAE_NABVQString@@PAVQStringList@@@Z 005351b4 f   qt-mt323:qt-mt323.dll
 0002:000c71ba       ?metaObject@QProcess@@UBEPAVQMetaObject@@XZ 005351ba f   qt-mt323:qt-mt323.dll
 0002:000c71c0       ?qt_cast@QProcess@@UAEPAXPBD@Z 005351c0 f   qt-mt323:qt-mt323.dll
 0002:000c71c6       ?qt_emit@QProcess@@UAE_NHPAUQUObject@@@Z 005351c6 f   qt-mt323:qt-mt323.dll
 0002:000c71cc       ?qt_invoke@QProcess@@UAE_NHPAUQUObject@@@Z 005351cc f   qt-mt323:qt-mt323.dll
 0002:000c71d2       ?qt_property@QProcess@@UAE_NHHPAVQVariant@@@Z 005351d2 f   qt-mt323:qt-mt323.dll
 0002:000c71d8       ?readLineStderr@QProcess@@UAE?AVQString@@XZ 005351d8 f   qt-mt323:qt-mt323.dll
 0002:000c71de       ?readLineStdout@QProcess@@UAE?AVQString@@XZ 005351de f   qt-mt323:qt-mt323.dll
 0002:000c71e4       ?readStderr@QProcess@@UAE?AV?$QMemArray@D@@XZ 005351e4 f   qt-mt323:qt-mt323.dll
 0002:000c71ea       ?readStdout@QProcess@@UAE?AV?$QMemArray@D@@XZ 005351ea f   qt-mt323:qt-mt323.dll
 0002:000c71f0       ?setArguments@QProcess@@UAEXABVQStringList@@@Z 005351f0 f   qt-mt323:qt-mt323.dll
 0002:000c71f6       ?setWorkingDirectory@QProcess@@UAEXABVQDir@@@Z 005351f6 f   qt-mt323:qt-mt323.dll
 0002:000c71fc       ?writeToStdin@QProcess@@UAEXABV?$QMemArray@D@@@Z 005351fc f   qt-mt323:qt-mt323.dll
 0002:000c7202       ?writeToStdin@QProcess@@UAEXABVQString@@@Z 00535202 f   qt-mt323:qt-mt323.dll
 0002:000c7208       ?setTabOrder@QWidget@@SAXPAV1@0@Z 00535208 f   qt-mt323:qt-mt323.dll
 0002:000c720e       ?setFrameShape@QFrame@@QAEXW4Shape@1@@Z 0053520e f   qt-mt323:qt-mt323.dll
 0002:000c7214       ?setFrameShadow@QFrame@@QAEXW4Shadow@1@@Z 00535214 f   qt-mt323:qt-mt323.dll
 0002:000c721a       ??0QGroupBox@@QAE@PAVQWidget@@PBD@Z 0053521a f   qt-mt323:qt-mt323.dll
 0002:000c7220       ??1QGroupBox@@UAE@XZ       00535220 f   qt-mt323:qt-mt323.dll
 0002:000c7226       ??0QSpinBox@@QAE@PAVQWidget@@PBD@Z 00535226 f   qt-mt323:qt-mt323.dll
 0002:000c722c       ??1QSpinBox@@UAE@XZ        0053522c f   qt-mt323:qt-mt323.dll
 0002:000c7232       ??0QHBoxLayout@@QAE@PAVQLayout@@HPBD@Z 00535232 f   qt-mt323:qt-mt323.dll
 0002:000c7238       ?className@QGroupBox@@UBEPBDXZ 00535238 f   qt-mt323:qt-mt323.dll
 0002:000c723e       ?className@QSpinBox@@UBEPBDXZ 0053523e f   qt-mt323:qt-mt323.dll
 0002:000c7244       ?cleanText@QSpinBox@@UBE?AVQString@@XZ 00535244 f   qt-mt323:qt-mt323.dll
 0002:000c724a       ?event@QGroupBox@@MAE_NPAVQEvent@@@Z 0053524a f   qt-mt323:qt-mt323.dll
 0002:000c7250       ?eventFilter@QSpinBox@@MAE_NPAVQObject@@PAVQEvent@@@Z 00535250 f   qt-mt323:qt-mt323.dll
 0002:000c7256       ?interpretText@QSpinBox@@MAEXXZ 00535256 f   qt-mt323:qt-mt323.dll
 0002:000c725c       ?leaveEvent@QSpinBox@@MAEXPAVQEvent@@@Z 0053525c f   qt-mt323:qt-mt323.dll
 0002:000c7262       ?mapTextToValue@QSpinBox@@MAEHPA_N@Z 00535262 f   qt-mt323:qt-mt323.dll
 0002:000c7268       ?mapValueToText@QSpinBox@@MAE?AVQString@@H@Z 00535268 f   qt-mt323:qt-mt323.dll
 0002:000c726e       ?metaObject@QGroupBox@@UBEPAVQMetaObject@@XZ 0053526e f   qt-mt323:qt-mt323.dll
 0002:000c7274       ?metaObject@QSpinBox@@UBEPAVQMetaObject@@XZ 00535274 f   qt-mt323:qt-mt323.dll
 0002:000c727a       ?minimumSizeHint@QSpinBox@@UBE?AVQSize@@XZ 0053527a f   qt-mt323:qt-mt323.dll
 0002:000c7280       ?prefix@QSpinBox@@UBE?AVQString@@XZ 00535280 f   qt-mt323:qt-mt323.dll
 0002:000c7286       ?qt_cast@QGroupBox@@UAEPAXPBD@Z 00535286 f   qt-mt323:qt-mt323.dll
 0002:000c728c       ?qt_cast@QSpinBox@@UAEPAXPBD@Z 0053528c f   qt-mt323:qt-mt323.dll
 0002:000c7292       ?qt_emit@QGroupBox@@UAE_NHPAUQUObject@@@Z 00535292 f   qt-mt323:qt-mt323.dll
 0002:000c7298       ?qt_emit@QSpinBox@@UAE_NHPAUQUObject@@@Z 00535298 f   qt-mt323:qt-mt323.dll
 0002:000c729e       ?qt_invoke@QGroupBox@@UAE_NHPAUQUObject@@@Z 0053529e f   qt-mt323:qt-mt323.dll
 0002:000c72a4       ?qt_invoke@QSpinBox@@UAE_NHPAUQUObject@@@Z 005352a4 f   qt-mt323:qt-mt323.dll
 0002:000c72aa       ?qt_property@QGroupBox@@UAE_NHHPAVQVariant@@@Z 005352aa f   qt-mt323:qt-mt323.dll
 0002:000c72b0       ?qt_property@QSpinBox@@UAE_NHHPAVQVariant@@@Z 005352b0 f   qt-mt323:qt-mt323.dll
 0002:000c72b6       ?rangeChange@QSpinBox@@MAEXXZ 005352b6 f   qt-mt323:qt-mt323.dll
 0002:000c72bc       ?resizeEvent@QSpinBox@@MAEXPAVQResizeEvent@@@Z 005352bc f   qt-mt323:qt-mt323.dll
 0002:000c72c2       ?selectAll@QSpinBox@@UAEXXZ 005352c2 f   qt-mt323:qt-mt323.dll
 0002:000c72c8       ?setButtonSymbols@QSpinBox@@UAEXW4ButtonSymbols@1@@Z 005352c8 f   qt-mt323:qt-mt323.dll
 0002:000c72ce       ?setEnabled@QSpinBox@@UAEX_N@Z 005352ce f   qt-mt323:qt-mt323.dll
 0002:000c72d4       ?setPrefix@QSpinBox@@UAEXABVQString@@@Z 005352d4 f   qt-mt323:qt-mt323.dll
 0002:000c72da       ?setSpecialValueText@QSpinBox@@UAEXABVQString@@@Z 005352da f   qt-mt323:qt-mt323.dll
 0002:000c72e0       ?setSuffix@QSpinBox@@UAEXABVQString@@@Z 005352e0 f   qt-mt323:qt-mt323.dll
 0002:000c72e6       ?setValidator@QSpinBox@@UAEXPBVQValidator@@@Z 005352e6 f   qt-mt323:qt-mt323.dll
 0002:000c72ec       ?setValue@QSpinBox@@UAEXH@Z 005352ec f   qt-mt323:qt-mt323.dll
 0002:000c72f2       ?setWrapping@QSpinBox@@UAEX_N@Z 005352f2 f   qt-mt323:qt-mt323.dll
 0002:000c72f8       ?sizeHint@QSpinBox@@UBE?AVQSize@@XZ 005352f8 f   qt-mt323:qt-mt323.dll
 0002:000c72fe       ?stepChange@QRangeControl@@MAEXXZ 005352fe f   qt-mt323:qt-mt323.dll
 0002:000c7304       ?stepDown@QSpinBox@@UAEXXZ 00535304 f   qt-mt323:qt-mt323.dll
 0002:000c730a       ?stepUp@QSpinBox@@UAEXXZ   0053530a f   qt-mt323:qt-mt323.dll
 0002:000c7310       ?styleChange@QSpinBox@@MAEXAAVQStyle@@@Z 00535310 f   qt-mt323:qt-mt323.dll
 0002:000c7316       ?suffix@QSpinBox@@UBE?AVQString@@XZ 00535316 f   qt-mt323:qt-mt323.dll
 0002:000c731c       ?updateDisplay@QSpinBox@@MAEXXZ 0053531c f   qt-mt323:qt-mt323.dll
 0002:000c7322       ?valueChange@QSpinBox@@MAEXXZ 00535322 f   qt-mt323:qt-mt323.dll
 0002:000c7328       ?wheelEvent@QSpinBox@@MAEXPAVQWheelEvent@@@Z 00535328 f   qt-mt323:qt-mt323.dll
 0002:000c732e       ??0QGridLayout@@QAE@PAVQWidget@@HHHHPBD@Z 0053532e f   qt-mt323:qt-mt323.dll
 0002:000c7334       ??1QGridLayout@@UAE@XZ     00535334 f   qt-mt323:qt-mt323.dll
 0002:000c733a       ?addWidget@QGridLayout@@QAEXPAVQWidget@@HHH@Z 0053533a f   qt-mt323:qt-mt323.dll
 0002:000c7340       ?add@QWhatsThis@@SAXPAVQWidget@@ABVQString@@@Z 00535340 f   qt-mt323:qt-mt323.dll
 0002:000c7346       ?addItem@QGridLayout@@UAEXPAVQLayoutItem@@@Z 00535346 f   qt-mt323:qt-mt323.dll
 0002:000c734c       ?className@QGridLayout@@UBEPBDXZ 0053534c f   qt-mt323:qt-mt323.dll
 0002:000c7352       ?expanding@QGridLayout@@UBE?AW4ExpandData@QSizePolicy@@XZ 00535352 f   qt-mt323:qt-mt323.dll
 0002:000c7358       ?hasHeightForWidth@QGridLayout@@UBE_NXZ 00535358 f   qt-mt323:qt-mt323.dll
 0002:000c735e       ?heightForWidth@QGridLayout@@UBEHH@Z 0053535e f   qt-mt323:qt-mt323.dll
 0002:000c7364       ?invalidate@QGridLayout@@UAEXXZ 00535364 f   qt-mt323:qt-mt323.dll
 0002:000c736a       ?iterator@QGridLayout@@UAE?AVQLayoutIterator@@XZ 0053536a f   qt-mt323:qt-mt323.dll
 0002:000c7370       ?maximumSize@QGridLayout@@UBE?AVQSize@@XZ 00535370 f   qt-mt323:qt-mt323.dll
 0002:000c7376       ?metaObject@QGridLayout@@UBEPAVQMetaObject@@XZ 00535376 f   qt-mt323:qt-mt323.dll
 0002:000c737c       ?minimumSize@QGridLayout@@UBE?AVQSize@@XZ 0053537c f   qt-mt323:qt-mt323.dll
 0002:000c7382       ?qt_cast@QGridLayout@@UAEPAXPBD@Z 00535382 f   qt-mt323:qt-mt323.dll
 0002:000c7388       ?qt_emit@QGridLayout@@UAE_NHPAUQUObject@@@Z 00535388 f   qt-mt323:qt-mt323.dll
 0002:000c738e       ?qt_invoke@QGridLayout@@UAE_NHPAUQUObject@@@Z 0053538e f   qt-mt323:qt-mt323.dll
 0002:000c7394       ?qt_property@QGridLayout@@UAE_NHHPAVQVariant@@@Z 00535394 f   qt-mt323:qt-mt323.dll
 0002:000c739a       ?setColStretch@QGridLayout@@UAEXHH@Z 0053539a f   qt-mt323:qt-mt323.dll
 0002:000c73a0       ?setGeometry@QGridLayout@@UAEXABVQRect@@@Z 005353a0 f   qt-mt323:qt-mt323.dll
 0002:000c73a6       ?setRowStretch@QGridLayout@@UAEXHH@Z 005353a6 f   qt-mt323:qt-mt323.dll
 0002:000c73ac       ?sizeHint@QGridLayout@@UBE?AVQSize@@XZ 005353ac f   qt-mt323:qt-mt323.dll
 0002:000c73b2       ?startDrag@QIconView@@MAEXXZ 005353b2 f   qt-mt323:qt-mt323.dll
 0002:000c73b8       ??0QSizePolicy@@QAE@W4SizeType@0@0EE_N@Z 005353b8 f   qt-mt323:qt-mt323.dll
 0002:000c73be       ?hasHeightForWidth@QSizePolicy@@QBE_NXZ 005353be f   qt-mt323:qt-mt323.dll
 0002:000c73c4       ?setDuplicatesEnabled@QComboBox@@QAEX_N@Z 005353c4 f   qt-mt323:qt-mt323.dll
 0002:000c73ca       ??0QGridLayout@@QAE@PAVQLayout@@HHHPBD@Z 005353ca f   qt-mt323:qt-mt323.dll
 0002:000c73d0       ?addItem@QGridLayout@@QAEXPAVQLayoutItem@@HH@Z 005353d0 f   qt-mt323:qt-mt323.dll
 0002:000c73d6       ?header@QListView@@QBEPAVQHeader@@XZ 005353d6 f   qt-mt323:qt-mt323.dll
 0002:000c73dc       ?className@QTextEdit@@UBEPBDXZ 005353dc f   qt-mt323:qt-mt323.dll
 0002:000c73e2       ?metaObject@QTextEdit@@UBEPAVQMetaObject@@XZ 005353e2 f   qt-mt323:qt-mt323.dll
 0002:000c73e8       ?qt_cast@QTextEdit@@UAEPAXPBD@Z 005353e8 f   qt-mt323:qt-mt323.dll
 0002:000c73ee       ?qt_emit@QTextEdit@@UAE_NHPAUQUObject@@@Z 005353ee f   qt-mt323:qt-mt323.dll
 0002:000c73f4       ?qt_invoke@QTextEdit@@UAE_NHPAUQUObject@@@Z 005353f4 f   qt-mt323:qt-mt323.dll
 0002:000c73fa       ?qt_property@QTextEdit@@UAE_NHHPAVQVariant@@@Z 005353fa f   qt-mt323:qt-mt323.dll
 0002:000c7400       ?qstrcmp@@YAHPBD0@Z        00535400 f   qt-mt323:qt-mt323.dll
 0002:000c7406       ?fromLatin1@QString@@SA?AV1@PBDH@Z 00535406 f   qt-mt323:qt-mt323.dll
 0002:000c740c       ?fromUtf8@QString@@SA?AV1@PBDH@Z 0053540c f   qt-mt323:qt-mt323.dll
 0002:000c7412       ?staticMetaObject@QListView@@SAPAVQMetaObject@@XZ 00535412 f   qt-mt323:qt-mt323.dll
 0002:000c7418       ?slotOffset@QMetaObject@@QBEHXZ 00535418 f   qt-mt323:qt-mt323.dll
 0002:000c741e       ?new_metaobject@QMetaObject@@SAPAV1@PBDPAV1@QBUQMetaData@@H2HQBVQMetaProperty@@HQBUQMetaEnum@@HQBUQClassInfo@@H@Z 0053541e f   qt-mt323:qt-mt323.dll
 0002:000c7424       ??0QMetaObjectCleanUp@@QAE@PBDP6APAVQMetaObject@@XZ@Z 00535424 f   qt-mt323:qt-mt323.dll
 0002:000c742a       ??1QMetaObjectCleanUp@@QAE@XZ 0053542a f   qt-mt323:qt-mt323.dll
 0002:000c7430       ?setMetaObject@QMetaObjectCleanUp@@QAEXAAPAVQMetaObject@@@Z 00535430 f   qt-mt323:qt-mt323.dll
 0002:000c7436       ?translate@QApplication@@QBE?AVQString@@PBD00W4Encoding@1@@Z 00535436 f   qt-mt323:qt-mt323.dll
 0002:000c743c       ?get@QUType_ptr@@QAEAAPAXPAUQUObject@@@Z 0053543c f   qt-mt323:qt-mt323.dll
 0002:000c7442       ?get@QUType_bool@@QAEAA_NPAUQUObject@@@Z 00535442 f   qt-mt323:qt-mt323.dll
 0002:000c7448       ?get@QUType_int@@QAEAAHPAUQUObject@@@Z 00535448 f   qt-mt323:qt-mt323.dll
 0002:000c744e       ?qt_cast@QDialog@@UAEPAXPBD@Z 0053544e f   qt-mt323:qt-mt323.dll
 0002:000c7454       ?qt_invoke@QDialog@@UAE_NHPAUQUObject@@@Z 00535454 f   qt-mt323:qt-mt323.dll
 0002:000c745a       ?qt_emit@QDialog@@UAE_NHPAUQUObject@@@Z 0053545a f   qt-mt323:qt-mt323.dll
 0002:000c7460       ?qt_property@QDialog@@UAE_NHHPAVQVariant@@@Z 00535460 f   qt-mt323:qt-mt323.dll
 0002:000c7466       ?staticMetaObject@QDialog@@SAPAVQMetaObject@@XZ 00535466 f   qt-mt323:qt-mt323.dll
 0002:000c746c       ?signalsBlocked@QObject@@QBE_NXZ 0053546c f   qt-mt323:qt-mt323.dll
 0002:000c7472       ?receivers@QObject@@IBEPAVQConnectionList@@H@Z 00535472 f   qt-mt323:qt-mt323.dll
 0002:000c7478       ?activate_signal@QObject@@IAEXPAVQConnectionList@@PAUQUObject@@@Z 00535478 f   qt-mt323:qt-mt323.dll
 0002:000c747e       ?signalOffset@QMetaObject@@QBEHXZ 0053547e f   qt-mt323:qt-mt323.dll
 0002:000c7484       ??0QUObject@@QAE@XZ        00535484 f   qt-mt323:qt-mt323.dll
 0002:000c748a       ??1QUObject@@QAE@XZ        0053548a f   qt-mt323:qt-mt323.dll
 0002:000c7490       ?set@QUType_ptr@@QAEXPAUQUObject@@PBX@Z 00535490 f   qt-mt323:qt-mt323.dll
 0002:000c7496       ?qt_cast@QScrollView@@UAEPAXPBD@Z 00535496 f   qt-mt323:qt-mt323.dll
 0002:000c749c       ?qt_invoke@QScrollView@@UAE_NHPAUQUObject@@@Z 0053549c f   qt-mt323:qt-mt323.dll
 0002:000c74a2       ?qt_emit@QScrollView@@UAE_NHPAUQUObject@@@Z 005354a2 f   qt-mt323:qt-mt323.dll
 0002:000c74a8       ?qt_property@QScrollView@@UAE_NHHPAVQVariant@@@Z 005354a8 f   qt-mt323:qt-mt323.dll
 0002:000c74ae       ?staticMetaObject@QScrollView@@SAPAVQMetaObject@@XZ 005354ae f   qt-mt323:qt-mt323.dll
 0002:000c74b4       ?get@QUType_QString@@QAEAAVQString@@PAUQUObject@@@Z 005354b4 f   qt-mt323:qt-mt323.dll
 0002:000c74ba       ?activate_signal@QObject@@IAEXHVQString@@@Z 005354ba f   qt-mt323:qt-mt323.dll
 0002:000c74c0       ?staticMetaObject@QWidget@@SAPAVQMetaObject@@XZ 005354c0 f   qt-mt323:qt-mt323.dll
 0002:000c74c6       ?set@QUType_varptr@@QAEXPAUQUObject@@PBX@Z 005354c6 f   qt-mt323:qt-mt323.dll
 0002:000c74cc       ?set@QUType_QString@@QAEXPAUQUObject@@ABVQString@@@Z 005354cc f   qt-mt323:qt-mt323.dll
 0002:000c74d2       ?activate_signal_bool@QObject@@IAEXH_N@Z 005354d2 f   qt-mt323:qt-mt323.dll
 0002:000c74d8       ?qt_cast@QTable@@UAEPAXPBD@Z 005354d8 f   qt-mt323:qt-mt323.dll
 0002:000c74de       ?qt_invoke@QTable@@UAE_NHPAUQUObject@@@Z 005354de f   qt-mt323:qt-mt323.dll
 0002:000c74e4       ?qt_emit@QTable@@UAE_NHPAUQUObject@@@Z 005354e4 f   qt-mt323:qt-mt323.dll
 0002:000c74ea       ?qt_property@QTable@@UAE_NHHPAVQVariant@@@Z 005354ea f   qt-mt323:qt-mt323.dll
 0002:000c74f0       ?staticMetaObject@QTable@@SAPAVQMetaObject@@XZ 005354f0 f   qt-mt323:qt-mt323.dll
 0002:000c74f6       ?qt_cast@QSplitter@@UAEPAXPBD@Z 005354f6 f   qt-mt323:qt-mt323.dll
 0002:000c74fc       ?qt_invoke@QSplitter@@UAE_NHPAUQUObject@@@Z 005354fc f   qt-mt323:qt-mt323.dll
 0002:000c7502       ?qt_emit@QSplitter@@UAE_NHPAUQUObject@@@Z 00535502 f   qt-mt323:qt-mt323.dll
 0002:000c7508       ?qt_property@QSplitter@@UAE_NHHPAVQVariant@@@Z 00535508 f   qt-mt323:qt-mt323.dll
 0002:000c750e       ?staticMetaObject@QSplitter@@SAPAVQMetaObject@@XZ 0053550e f   qt-mt323:qt-mt323.dll
 0002:000c7514       ?staticMetaObject@QTextEdit@@SAPAVQMetaObject@@XZ 00535514 f   qt-mt323:qt-mt323.dll
 0002:000c751a       ?activate_signal@QObject@@IAEXH@Z 0053551a f   qt-mt323:qt-mt323.dll
 0002:000c7520       ?qt_cast@QMainWindow@@UAEPAXPBD@Z 00535520 f   qt-mt323:qt-mt323.dll
 0002:000c7526       ?qt_invoke@QMainWindow@@UAE_NHPAUQUObject@@@Z 00535526 f   qt-mt323:qt-mt323.dll
 0002:000c752c       ?qt_emit@QMainWindow@@UAE_NHPAUQUObject@@@Z 0053552c f   qt-mt323:qt-mt323.dll
 0002:000c7532       ?qt_property@QMainWindow@@UAE_NHHPAVQVariant@@@Z 00535532 f   qt-mt323:qt-mt323.dll
 0002:000c7538       ?staticMetaObject@QMainWindow@@SAPAVQMetaObject@@XZ 00535538 f   qt-mt323:qt-mt323.dll
 0002:000c753e       ?qt_cast@QObject@@UAEPAXPBD@Z 0053553e f   qt-mt323:qt-mt323.dll
 0002:000c7544       ?qt_invoke@QObject@@UAE_NHPAUQUObject@@@Z 00535544 f   qt-mt323:qt-mt323.dll
 0002:000c754a       ?qt_emit@QObject@@UAE_NHPAUQUObject@@@Z 0053554a f   qt-mt323:qt-mt323.dll
 0002:000c7550       ?qt_property@QObject@@UAE_NHHPAVQVariant@@@Z 00535550 f   qt-mt323:qt-mt323.dll
 0002:000c7556       ?staticMetaObject@QObject@@SAPAVQMetaObject@@XZ 00535556 f   qt-mt323:qt-mt323.dll
 0002:000c755c       ?activate_signal@QObject@@IAEXHH@Z 0053555c f   qt-mt323:qt-mt323.dll
 0002:000c7562       ?set@QUType_bool@@QAEXPAUQUObject@@_N@Z 00535562 f   qt-mt323:qt-mt323.dll
 0002:000c7568       ?get@QUType_varptr@@QAEAAPAXPAUQUObject@@@Z 00535568 f   qt-mt323:qt-mt323.dll
 0002:000c756e       ??0QListBox@@QAE@PAVQWidget@@PBDI@Z 0053556e f   qt-mt323:qt-mt323.dll
 0002:000c7574       ??1QListBox@@UAE@XZ        00535574 f   qt-mt323:qt-mt323.dll
 0002:000c757a       ?className@QListBox@@UBEPBDXZ 0053557a f   qt-mt323:qt-mt323.dll
 0002:000c7580       ?clearSelection@QListBox@@UAEXXZ 00535580 f   qt-mt323:qt-mt323.dll
 0002:000c7586       ?contentsContextMenuEvent@QListBox@@MAEXPAVQContextMenuEvent@@@Z 00535586 f   qt-mt323:qt-mt323.dll
 0002:000c758c       ?ensureCurrentVisible@QListBox@@UAEXXZ 0053558c f   qt-mt323:qt-mt323.dll
 0002:000c7592       ?eventFilter@QListBox@@MAE_NPAVQObject@@PAVQEvent@@@Z 00535592 f   qt-mt323:qt-mt323.dll
 0002:000c7598       ?focusInEvent@QListBox@@MAEXPAVQFocusEvent@@@Z 00535598 f   qt-mt323:qt-mt323.dll
 0002:000c759e       ?focusOutEvent@QListBox@@MAEXPAVQFocusEvent@@@Z 0053559e f   qt-mt323:qt-mt323.dll
 0002:000c75a4       ?invertSelection@QListBox@@UAEXXZ 005355a4 f   qt-mt323:qt-mt323.dll
 0002:000c75aa       ?keyPressEvent@QListBox@@MAEXPAVQKeyEvent@@@Z 005355aa f   qt-mt323:qt-mt323.dll
 0002:000c75b0       ?metaObject@QListBox@@UBEPAVQMetaObject@@XZ 005355b0 f   qt-mt323:qt-mt323.dll
 0002:000c75b6       ?minimumSizeHint@QListBox@@UBE?AVQSize@@XZ 005355b6 f   qt-mt323:qt-mt323.dll
 0002:000c75bc       ?mouseDoubleClickEvent@QListBox@@MAEXPAVQMouseEvent@@@Z 005355bc f   qt-mt323:qt-mt323.dll
 0002:000c75c2       ?mouseMoveEvent@QListBox@@MAEXPAVQMouseEvent@@@Z 005355c2 f   qt-mt323:qt-mt323.dll
 0002:000c75c8       ?mousePressEvent@QListBox@@MAEXPAVQMouseEvent@@@Z 005355c8 f   qt-mt323:qt-mt323.dll
 0002:000c75ce       ?mouseReleaseEvent@QListBox@@MAEXPAVQMouseEvent@@@Z 005355ce f   qt-mt323:qt-mt323.dll
 0002:000c75d4       ?paintCell@QListBox@@MAEXPAVQPainter@@HH@Z 005355d4 f   qt-mt323:qt-mt323.dll
 0002:000c75da       ?qt_cast@QListBox@@UAEPAXPBD@Z 005355da f   qt-mt323:qt-mt323.dll
 0002:000c75e0       ?qt_emit@QListBox@@UAE_NHPAUQUObject@@@Z 005355e0 f   qt-mt323:qt-mt323.dll
 0002:000c75e6       ?qt_invoke@QListBox@@UAE_NHPAUQUObject@@@Z 005355e6 f   qt-mt323:qt-mt323.dll
 0002:000c75ec       ?qt_property@QListBox@@UAE_NHHPAVQVariant@@@Z 005355ec f   qt-mt323:qt-mt323.dll
 0002:000c75f2       ?resizeEvent@QListBox@@MAEXPAVQResizeEvent@@@Z 005355f2 f   qt-mt323:qt-mt323.dll
 0002:000c75f8       ?selectAll@QListBox@@UAEX_N@Z 005355f8 f   qt-mt323:qt-mt323.dll
 0002:000c75fe       ?setBottomItem@QListBox@@UAEXH@Z 005355fe f   qt-mt323:qt-mt323.dll
 0002:000c7604       ?setColumnMode@QListBox@@UAEXH@Z 00535604 f   qt-mt323:qt-mt323.dll
 0002:000c760a       ?setColumnMode@QListBox@@UAEXW4LayoutMode@1@@Z 0053560a f   qt-mt323:qt-mt323.dll
 0002:000c7610       ?setCurrentItem@QListBox@@UAEXH@Z 00535610 f   qt-mt323:qt-mt323.dll
 0002:000c7616       ?setCurrentItem@QListBox@@UAEXPAVQListBoxItem@@@Z 00535616 f   qt-mt323:qt-mt323.dll
 0002:000c761c       ?setFont@QListBox@@UAEXABVQFont@@@Z 0053561c f   qt-mt323:qt-mt323.dll
 0002:000c7622       ?setRowMode@QListBox@@UAEXH@Z 00535622 f   qt-mt323:qt-mt323.dll
 0002:000c7628       ?setRowMode@QListBox@@UAEXW4LayoutMode@1@@Z 00535628 f   qt-mt323:qt-mt323.dll
 0002:000c762e       ?setSelected@QListBox@@UAEXPAVQListBoxItem@@_N@Z 0053562e f   qt-mt323:qt-mt323.dll
 0002:000c7634       ?setSelectionMode@QListBox@@UAEXW4SelectionMode@1@@Z 00535634 f   qt-mt323:qt-mt323.dll
 0002:000c763a       ?setTopItem@QListBox@@UAEXH@Z 0053563a f   qt-mt323:qt-mt323.dll
 0002:000c7640       ?setVariableHeight@QListBox@@UAEX_N@Z 00535640 f   qt-mt323:qt-mt323.dll
 0002:000c7646       ?setVariableWidth@QListBox@@UAEX_N@Z 00535646 f   qt-mt323:qt-mt323.dll
 0002:000c764c       ?showEvent@QListBox@@MAEXPAVQShowEvent@@@Z 0053564c f   qt-mt323:qt-mt323.dll
 0002:000c7652       ?sizeHint@QListBox@@UBE?AVQSize@@XZ 00535652 f   qt-mt323:qt-mt323.dll
 0002:000c7658       ?viewportPaintEvent@QListBox@@UAEXPAVQPaintEvent@@@Z 00535658 f   qt-mt323:qt-mt323.dll
 0002:000c765e       ?windowActivationChange@QListBox@@MAEX_N@Z 0053565e f   qt-mt323:qt-mt323.dll
 0002:000c7664       ??0QPixmap@@QAE@XZ         00535664 f   qt-mt323:qt-mt323.dll
 0002:000c766a       ??0QApplication@@QAE@AAHPAPADW4Type@0@@Z 0053566a f   qt-mt323:qt-mt323.dll
 0002:000c7670       ??1QApplication@@UAE@XZ    00535670 f   qt-mt323:qt-mt323.dll
 0002:000c7676       ?commitData@QApplication@@UAEXAAVQSessionManager@@@Z 00535676 f   qt-mt323:qt-mt323.dll
 0002:000c767c       ?event@QApplication@@MAE_NPAVQEvent@@@Z 0053567c f   qt-mt323:qt-mt323.dll
 0002:000c7682       ?notify@QApplication@@UAE_NPAVQObject@@PAVQEvent@@@Z 00535682 f   qt-mt323:qt-mt323.dll
 0002:000c7688       ?polish@QApplication@@UAEXPAVQWidget@@@Z 00535688 f   qt-mt323:qt-mt323.dll
 0002:000c768e       ?saveState@QApplication@@UAEXAAVQSessionManager@@@Z 0053568e f   qt-mt323:qt-mt323.dll
 0002:000c7694       ??BQCString@@QBEPBDXZ      00535694 f   qt-mt323:qt-mt323.dll
 0002:000c769a       ?local8Bit@QString@@QBE?AVQCString@@XZ 0053569a f   qt-mt323:qt-mt323.dll
 0002:000c76a0       ?fromUcs2@QString@@SA?AV1@PBG@Z 005356a0 f   qt-mt323:qt-mt323.dll
 0002:000c76a6       ?ucs2@QString@@QBEPBGXZ    005356a6 f   qt-mt323:qt-mt323.dll
 0002:000c76ac       ?winEventFilter@QApplication@@UAE_NPAUtagMSG@@@Z 005356ac f   qt-mt323:qt-mt323.dll
 0002:000c76b2       ?qt_cast@QApplication@@UAEPAXPBD@Z 005356b2 f   qt-mt323:qt-mt323.dll
 0002:000c76b8       ?qt_invoke@QApplication@@UAE_NHPAUQUObject@@@Z 005356b8 f   qt-mt323:qt-mt323.dll
 0002:000c76be       ?qt_emit@QApplication@@UAE_NHPAUQUObject@@@Z 005356be f   qt-mt323:qt-mt323.dll
 0002:000c76c4       ?qt_property@QApplication@@UAE_NHHPAVQVariant@@@Z 005356c4 f   qt-mt323:qt-mt323.dll
 0002:000c76ca       ?staticMetaObject@QApplication@@SAPAVQMetaObject@@XZ 005356ca f   qt-mt323:qt-mt323.dll
 0002:000c76d0       ??0styleentry@@QAE@XZ      005356d0 f   bncs_cachedDatadb:bncs_cachedDatadb.dll
 0002:000c76d6       ??1styleentry@@QAE@XZ      005356d6 f   bncs_cachedDatadb:bncs_cachedDatadb.dll
 0002:000c76dc       ??0styleentry@@QAE@ABV0@@Z 005356dc f   bncs_cachedDatadb:bncs_cachedDatadb.dll
 0002:000c76e2       ??4styleentry@@QAEAAV0@ABV0@@Z 005356e2 f   bncs_cachedDatadb:bncs_cachedDatadb.dll
 0002:000c76e8       ?load@bncs_stylesheet@@SA_NXZ 005356e8 f   bncs_cachedDatadb:bncs_cachedDatadb.dll
 0002:000c76ee       ??0bncs_stylesheet@@QAE@XZ 005356ee f   bncs_cachedDatadb:bncs_cachedDatadb.dll
 0002:000c76f4       ?stylelist@bncs_stylesheet@@QAE?BV?$QMap@VQString@@Vstyleentry@@@@XZ 005356f4 f   bncs_cachedDatadb:bncs_cachedDatadb.dll
 0002:000c76fa       _GetPrivateProfileIntA@16  005356fa f   kernel32:KERNEL32.dll
 0002:000c7700       _GetPrivateProfileStringA@24 00535700 f   kernel32:KERNEL32.dll
 0002:000c7706       _WritePrivateProfileStringA@16 00535706 f   kernel32:KERNEL32.dll
 0002:000c770c       _GetProcAddress@8          0053570c f   kernel32:KERNEL32.dll
 0002:000c7712       _LoadLibraryA@4            00535712 f   kernel32:KERNEL32.dll
 0002:000c7718       _AttachThreadInput@12      00535718 f   user32:USER32.dll
 0002:000c771e       _ShowWindow@8              0053571e f   user32:USER32.dll
 0002:000c7724       _IsIconic@4                00535724 f   user32:USER32.dll
 0002:000c772a       _GetForegroundWindow@0     0053572a f   user32:USER32.dll
 0002:000c7730       _SetForegroundWindow@4     00535730 f   user32:USER32.dll
 0002:000c7736       _GetWindowThreadProcessId@8 00535736 f   user32:USER32.dll
 0002:000c773c       _SystemParametersInfoA@16  0053573c f   user32:USER32.dll
 0002:000c7742       _SendMessageTimeoutA@28    00535742 f   user32:USER32.dll
 0002:000c7748       _FindWindowA@8             00535748 f   user32:USER32.dll
 0002:000c774e       _RegCloseKey@4             0053574e f   advapi32:ADVAPI32.dll
 0002:000c7754       _RegQueryValueExA@24       00535754 f   advapi32:ADVAPI32.dll
 0002:000c775a       _RegOpenKeyExA@20          0053575a f   advapi32:ADVAPI32.dll
 0002:000c7760       _ShellExecuteA@24          00535760 f   shell32:SHELL32.dll
 0002:000c7766       ??2@YAPAXI@Z               00535766 f   MSVCRTD:MSVCR120D.dll
 0002:000c776c       ??3@YAXPAX@Z               0053576c f   MSVCRTD:MSVCR120D.dll
 0002:000c7772       _getenv                    00535772 f   MSVCRTD:MSVCR120D.dll
 0002:000c7780       @_RTC_AllocaHelper@12      00535780 f   MSVCRTD:stack.obj
 0002:000c77c0       @_RTC_CheckStackVars2@12   005357c0 f   MSVCRTD:stack.obj
 0002:000c78d0       @_RTC_CheckStackVars@8     005358d0 f   MSVCRTD:stack.obj
 0002:000c7940       __RTC_CheckEsp             00535940 f   MSVCRTD:stack.obj
 0002:000c7970       @__security_check_cookie@4 00535970 f   MSVCRTD:secchk.obj
 0002:000c7990       __RTC_InitBase             00535990 f   MSVCRTD:init.obj
 0002:000c79d0       __RTC_Shutdown             005359d0 f   MSVCRTD:init.obj
 0002:000c79e8       ___CxxFrameHandler3        005359e8 f   MSVCRTD:MSVCR120D.dll
 0002:000c79f0       ??0type_info@@AAE@ABV0@@Z  005359f0 f   MSVCRTD:ti_inst.obj
 0002:000c7a10       ??4type_info@@AAEAAV0@ABV0@@Z 00535a10 f   MSVCRTD:ti_inst.obj
 0002:000c7a30       ??_Etype_info@@UAEPAXI@Z   00535a30 f i MSVCRTD:ti_inst.obj
 0002:000c7ab4       __purecall                 00535ab4 f   MSVCRTD:MSVCR120D.dll
 0002:000c7c60       ?_RTC_AllocaFailure@@YAXPAXPAU_RTC_ALLOCA_NODE@@H@Z 00535c60 f   MSVCRTD:error.obj
 0002:000c7e40       ?_RTC_Failure@@YAXPAXH@Z   00535e40 f   MSVCRTD:error.obj
 0002:000c7eb0       ?_RTC_StackFailure@@YAXPAXPBD@Z 00535eb0 f   MSVCRTD:error.obj
 0002:000c8310       __RTC_UninitUse            00536310 f   MSVCRTD:error.obj
 0002:000c8440       ??_M@YGXPAXIHP6EX0@Z@Z     00536440 f   MSVCRTD:ehvecdtr.obj
 0002:000c8560       ?__ArrayUnwind@@YGXPAXIHP6EX0@Z@Z 00536560 f   MSVCRTD:ehvecdtr.obj
 0002:000c860c       _strlen                    0053660c f   MSVCRTD:MSVCR120D.dll
 0002:000c8612       __hypot                    00536612 f   MSVCRTD:MSVCR120D.dll
 0002:000c8618       ??_V@YAXPAX@Z              00536618 f   MSVCRTD:MSVCR120D.dll
 0002:000c8620       __invalid_parameter        00536620 f   MSVCRTD:MSVCR120D.dll
 0002:000c8626       __CrtDbgReportW            00536626 f   MSVCRTD:MSVCR120D.dll
 0002:000c862c       __CxxThrowException@8      0053662c f   MSVCRTD:MSVCR120D.dll
 0002:000c8632       __chdir                    00536632 f   MSVCRTD:MSVCR120D.dll
 0002:000c8638       _strcmp                    00536638 f   MSVCRTD:MSVCR120D.dll
 0002:000c8640       __alloca_probe             00536640 f   MSVCRTD:chkstk.obj
 0002:000c8640       __chkstk                   00536640 f   MSVCRTD:chkstk.obj
 0002:000c8676       _abs                       00536676 f   MSVCRTD:MSVCR120D.dll
 0002:000c8680       ___atonexitinit            00536680 f   MSVCRTD:atonexit.obj
 0002:000c8760       __onexit                   00536760 f   MSVCRTD:atonexit.obj
 0002:000c88a0       _atexit                    005368a0 f   MSVCRTD:atonexit.obj
 0002:000c88e0       ??_L@YGXPAXIHP6EX0@Z1@Z    005368e0 f   MSVCRTD:ehvecctr.obj
 0002:000c8ae0       _NtCurrentTeb              00536ae0 f i MSVCRTD:crtexew.obj
 0002:000c8af0       _WinMainCRTStartup         00536af0 f   MSVCRTD:crtexew.obj
 0002:000c8f60       ___raise_securityfailure   00536f60 f   MSVCRTD:gs_report.obj
 0002:000c8fc0       ___report_gsfailure        00536fc0 f   MSVCRTD:gs_report.obj
 0002:000c9110       ___report_rangecheckfailure 00537110 f   MSVCRTD:gs_report.obj
 0002:000c9120       ___report_securityfailure  00537120 f   MSVCRTD:gs_report.obj
 0002:000c9230       ___report_securityfailureEx 00537230 f   MSVCRTD:gs_report.obj
 0002:000c93a0       ?_RTC_GetErrorFunc@@YAP6AHHPBDH00ZZPBX@Z 005373a0 f   MSVCRTD:userapi.obj
 0002:000c93b0       ?_RTC_GetErrorFuncW@@YAP6AHHPB_WH00ZZPBX@Z 005373b0 f   MSVCRTD:userapi.obj
 0002:000c93c0       __RTC_GetErrDesc           005373c0 f   MSVCRTD:userapi.obj
 0002:000c93e0       __RTC_NumErrors            005373e0 f   MSVCRTD:userapi.obj
 0002:000c93f0       __RTC_SetErrorFunc         005373f0 f   MSVCRTD:userapi.obj
 0002:000c9420       __RTC_SetErrorFuncW        00537420 f   MSVCRTD:userapi.obj
 0002:000c9450       __RTC_SetErrorType         00537450 f   MSVCRTD:userapi.obj
 0002:000c947c       __CRT_RTC_INITW            0053747c f   MSVCRTD:MSVCR120D.dll
 0002:000c9482       ??1type_info@@UAE@XZ       00537482 f   MSVCRTD:MSVCR120D.dll
 0002:000c99f0       ?_RTC_GetSrcLine@@YAHPAEPA_WKPAH1K@Z 005379f0 f   MSVCRTD:pdblkup.obj
 0002:000c9d50       __except_handler4          00537d50 f   MSVCRTD:chandler4gs.obj
 0002:000c9d80       ?terminate@@YAXXZ          00537d80 f   MSVCRTD:MSVCR120D.dll
 0002:000c9d86       __lock                     00537d86 f   MSVCRTD:MSVCR120D.dll
 0002:000c9d8c       __unlock                   00537d8c f   MSVCRTD:MSVCR120D.dll
 0002:000c9d92       __calloc_dbg               00537d92 f   MSVCRTD:MSVCR120D.dll
 0002:000c9d98       ___dllonexit               00537d98 f   MSVCRTD:MSVCR120D.dll
 0002:000c9da0       ?__CxxUnhandledExceptionFilter@@YGJPAU_EXCEPTION_POINTERS@@@Z 00537da0 f   MSVCRTD:unhandld.obj
 0002:000c9e20       ___CxxSetUnhandledExceptionFilter 00537e20 f   MSVCRTD:unhandld.obj
 0002:000c9e3a       __XcptFilter               00537e3a f   MSVCRTD:MSVCR120D.dll
 0002:000c9e40       ___crtGetShowWindowMode    00537e40 f   MSVCRTD:MSVCR120D.dll
 0002:000c9e46       __amsg_exit                00537e46 f   MSVCRTD:MSVCR120D.dll
 0002:000c9e50       __setargv                  00537e50 f   MSVCRTD:dllargv.obj
 0002:000c9e58       ___getmainargs             00537e58 f   MSVCRTD:MSVCR120D.dll
 0002:000c9e5e       ___set_app_type            00537e5e f   MSVCRTD:MSVCR120D.dll
 0002:000c9e64       __CrtSetCheckCount         00537e64 f   MSVCRTD:MSVCR120D.dll
 0002:000c9e70       __FindPESection            00537e70 f   MSVCRTD:pesect.obj
 0002:000c9f00       __IsNonwritableInCurrentImage 00537f00 f   MSVCRTD:pesect.obj
 0002:000ca080       __ValidateImageBase        00538080 f   MSVCRTD:pesect.obj
 0002:000ca0f4       _exit                      005380f4 f   MSVCRTD:MSVCR120D.dll
 0002:000ca0fa       __exit                     005380fa f   MSVCRTD:MSVCR120D.dll
 0002:000ca100       __cexit                    00538100 f   MSVCRTD:MSVCR120D.dll
 0002:000ca110       ___security_init_cookie    00538110 f   MSVCRTD:gs_support.obj
 0002:000ca230       __matherr                  00538230 f   MSVCRTD:merr.obj
 0002:000ca238       __ismbblead                00538238 f   MSVCRTD:MSVCR120D.dll
 0002:000ca240       __RTC_Initialize           00538240 f   MSVCRTD:initsect.obj
 0002:000ca270       __RTC_Terminate            00538270 f   MSVCRTD:initsect.obj
 0002:000ca29e       __configthreadlocale       0053829e f   MSVCRTD:MSVCR120D.dll
 0002:000ca2b0       __invoke_watson_if_error   005382b0 f i MSVCRTD:fp8.obj
 0002:000ca2e0       __setdefaultprecision      005382e0 f   MSVCRTD:fp8.obj
 0002:000ca322       ___setusermatherr          00538322 f   MSVCRTD:MSVCR120D.dll
 0002:000ca328       __initterm_e               00538328 f   MSVCRTD:MSVCR120D.dll
 0002:000ca32e       __initterm                 0053832e f   MSVCRTD:MSVCR120D.dll
 0002:000ca334       __crt_debugger_hook        00538334 f   MSVCRTD:MSVCR120D.dll
 0002:000ca33a       ___crtUnhandledException   0053833a f   MSVCRTD:MSVCR120D.dll
 0002:000ca340       ___crtTerminateProcess     00538340 f   MSVCRTD:MSVCR120D.dll
 0002:000ca346       _wcscpy_s                  00538346 f   MSVCRTD:MSVCR120D.dll
 0002:000ca34c       __wmakepath_s              0053834c f   MSVCRTD:MSVCR120D.dll
 0002:000ca352       __wsplitpath_s             00538352 f   MSVCRTD:MSVCR120D.dll
 0002:000ca358       __except_handler4_common   00538358 f   MSVCRTD:MSVCR120D.dll
 0002:000ca35e       ___crtSetUnhandledExceptionFilter 0053835e f   MSVCRTD:MSVCR120D.dll
 0002:000ca364       __invoke_watson            00538364 f   MSVCRTD:MSVCR120D.dll
 0002:000ca36a       __controlfp_s              0053836a f   MSVCRTD:MSVCR120D.dll
 0002:000ca370       ??0_Lockit@std@@QAE@H@Z    00538370 f   msvcprtd:MSVCP120D.dll
 0002:000ca376       ??1_Lockit@std@@QAE@XZ     00538376 f   msvcprtd:MSVCP120D.dll
 0002:000ca37c       ?_Debug_message@std@@YAXPB_W0I@Z 0053837c f   msvcprtd:MSVCP120D.dll
 0002:000ca382       ??0_Container_base12@std@@QAE@XZ 00538382 f   msvcprtd:MSVCP120D.dll
 0002:000ca388       ??1_Container_base12@std@@QAE@XZ 00538388 f   msvcprtd:MSVCP120D.dll
 0002:000ca38e       ?_Getpfirst@_Container_base12@std@@QBEPAPAU_Iterator_base12@2@XZ 0053838e f   msvcprtd:MSVCP120D.dll
 0002:000ca394       ?_Orphan_all@_Container_base12@std@@QAEXXZ 00538394 f   msvcprtd:MSVCP120D.dll
 0002:000ca39a       ?_Xbad_alloc@std@@YAXXZ    0053839a f   msvcprtd:MSVCP120D.dll
 0002:000ca3a0       ?_Xlength_error@std@@YAXPBD@Z 005383a0 f   msvcprtd:MSVCP120D.dll
 0002:000ca3a6       _IsDebuggerPresent@0       005383a6 f   kernel32:KERNEL32.dll
 0002:000ca3ac       _RaiseException@16         005383ac f   kernel32:KERNEL32.dll
 0002:000ca3b2       _GetLastError@0            005383b2 f   kernel32:KERNEL32.dll
 0002:000ca3b8       _LoadLibraryExW@12         005383b8 f   kernel32:KERNEL32.dll
 0002:000ca3be       _MultiByteToWideChar@24    005383be f   kernel32:KERNEL32.dll
 0002:000ca3c4       _WideCharToMultiByte@32    005383c4 f   kernel32:KERNEL32.dll
 0002:000ca3ca       _EncodePointer@4           005383ca f   kernel32:KERNEL32.dll
 0002:000ca3d0       _DecodePointer@4           005383d0 f   kernel32:KERNEL32.dll
 0002:000ca3d6       _IsProcessorFeaturePresent@4 005383d6 f   kernel32:KERNEL32.dll
 0002:000ca3dc       _HeapAlloc@12              005383dc f   kernel32:KERNEL32.dll
 0002:000ca3e2       _HeapFree@12               005383e2 f   kernel32:KERNEL32.dll
 0002:000ca3e8       _GetProcessHeap@0          005383e8 f   kernel32:KERNEL32.dll
 0002:000ca3ee       _VirtualQuery@12           005383ee f   kernel32:KERNEL32.dll
 0002:000ca3f4       _FreeLibrary@4             005383f4 f   kernel32:KERNEL32.dll
 0002:000ca3fa       _GetModuleFileNameW@12     005383fa f   kernel32:KERNEL32.dll
 0002:000ca400       _GetModuleHandleW@4        00538400 f   kernel32:KERNEL32.dll
 0002:000ca406       _QueryPerformanceCounter@4 00538406 f   kernel32:KERNEL32.dll
 0002:000ca40c       _GetCurrentProcessId@0     0053840c f   kernel32:KERNEL32.dll
 0002:000ca412       _GetCurrentThreadId@0      00538412 f   kernel32:KERNEL32.dll
 0002:000ca418       _GetSystemTimeAsFileTime@4 00538418 f   kernel32:KERNEL32.dll
 0002:000ca41e       _strcpy                    0053841e f   MSVCRTD:MSVCR120D.dll
 0002:000ca424       ?deleteData@QGArray@@MAEXPAUarray_data@1@@Z 00538424 f   qt-mt323:qt-mt323.dll
 0002:000ca42a       ?newData@QGArray@@MAEPAUarray_data@1@XZ 0053842a f   qt-mt323:qt-mt323.dll
 0002:000ca430       ??1QGArray@@MAE@XZ         00538430 f   qt-mt323:qt-mt323.dll
 0002:000ca436       ?qWinMain@@YAXPAUHINSTANCE__@@0PADHAAHAAV?$QMemArray@PAD@@@Z 00538436 f   qt-mt323:qt-mt323.dll
 0002:000ca43c       ??0QGArray@@IAE@H@Z        0053843c f   qt-mt323:qt-mt323.dll
 0002:000ca442       ?duplicate@QGArray@@IAEAAV1@ABV1@@Z 00538442 f   qt-mt323:qt-mt323.dll
 0003:00000000       ___xc_a                    00556000     MSVCRTD:cinitexe.obj
 0003:0000047c       ___xc_z                    0055647c     MSVCRTD:cinitexe.obj
 0003:00000580       ___xi_a                    00556580     MSVCRTD:cinitexe.obj
 0003:00000990       ___xi_z                    00556990     MSVCRTD:cinitexe.obj
 0003:00000adc       ??_SQTextDrag@@6BQObject@@@ 00556adc     controldrag.obj
 0003:00000b58       ??_SQTextDrag@@6BQMimeSource@@@ 00556b58     controldrag.obj
 0003:00000b6c       ??_C@_09DDAHAMBK@CC_SYSTEM?$AA@ 00556b6c     controldrag.obj
 0003:00000b78       ??_C@_01KICIPPFI@?2?$AA@   00556b78     controldrag.obj
 0003:00000b7c       ??_C@_07JBEBLGDD@CC_ROOT?$AA@ 00556b7c     controldrag.obj
 0003:00000b8c       ??_7controldrag@@6B@       00556b8c     controldrag.obj
 0003:00000b94       ??_C@_05ENKANFLO@class?$AA@ 00556b94     controldrag.obj
 0003:00000b9c       ??_C@_05GPAEPGFO@bncs_?$AA@ 00556b9c     controldrag.obj
 0003:00000ba8       ??_C@_0EL@GDPAIECM@?$DM?$DPxml?5version?$DN?$CC1?40?$CC?5?5encoding?$DN?$CCw@ 00556ba8     controldrag.obj
 0003:00000c04       ??_C@_01NOFIACDB@w?$AA@    00556c04     controldrag.obj
 0003:00000c08       ??_C@_01BDACAMKP@h?$AA@    00556c08     controldrag.obj
 0003:00000c0c       ??_C@_0DJ@INEMEFII@?7?7?$DMcontrol?5class?$DN?$CCbncs_control?$CC?5@ 00556c0c     controldrag.obj
 0003:00000c50       ??_C@_03GNABGMEE@100?$AA@  00556c50     controldrag.obj
 0003:00000c54       ??_C@_0M@KEAOLFJG@?$CC?5h?$DN?$CC20?$CC?5?$DO?6?$AA@ 00556c54     controldrag.obj
 0003:00000c64       ??_C@_0CN@OFBLKMCM@?7?7?7?$DMsetting?5value?$DN?$CCstylesheet?$DNpa@ 00556c64     controldrag.obj
 0003:00000c9c       ??_C@_0BP@JDOMHIAE@?7?7?7?$DMsetting?5value?$DN?$CCtext?$DN?$CF1?$CC?1?$DO?6?$AA@ 00556c9c     controldrag.obj
 0003:00000cc4       ??_C@_0O@JPOOOAEO@?7?7?$DM?1control?$DO?6?$AA@ 00556cc4     controldrag.obj
 0003:00000cd4       ??_C@_0CK@HOJBPDMN@?7?7?$DMcontrol?5class?$DN?$CC?$CF1?$CC?5name?$DN?$CC1?$CC?5x@ 00556cd4     controldrag.obj
 0003:00000d08       ??_C@_03FBCBAPNB@?$CL20?$AA@ 00556d08     controldrag.obj
 0003:00000d0c       ??_C@_05LIHBHNKD@?$CC?5w?$DN?$CC?$AA@ 00556d0c     controldrag.obj
 0003:00000d14       ??_C@_05LAALDKGK@?$CC?5h?$DN?$CC?$AA@ 00556d14     controldrag.obj
 0003:00000d1c       ??_C@_03JKGHEG@?$CC?$DO?6?$AA@ 00556d1c     controldrag.obj
 0003:00000d20       ??_C@_05IAKJCFIM@style?$AA@ 00556d20     controldrag.obj
 0003:00000d27       ??_C@_00CNPNBAHC@?$AA@     00556d27     controldrag.obj
 0003:00000d28       ??_C@_0L@KNBBNHCF@bncs_range?$AA@ 00556d28     controldrag.obj
 0003:00000d38       ??_C@_05CFMCGLCK@Range?$AA@ 00556d38     controldrag.obj
 0003:00000d40       ??_C@_0O@BONDKLLD@vised?2buttons?$AA@ 00556d40     controldrag.obj
 0003:00000d50       ??_C@_06HCNGNMOI@updown?$AA@ 00556d50     controldrag.obj
 0003:00000d58       ??_C@_0CA@KBHIMBOD@?7?7?7?$DMsetting?5value?$DN?$CCstyle?$DN?$CF1?$CC?1?$DO?6?$AA@ 00556d58     controldrag.obj
 0003:00000d80       ??_C@_08FJNLKCPH@template?$AA@ 00556d80     controldrag.obj
 0003:00000d8c       ??_C@_0CD@FJFGGKPI@?7?7?7?$DMsetting?5value?$DN?$CCinstance?$DN?$CF1?$CC?1@ 00556d8c     controldrag.obj
 0003:00000db8       ??_C@_0BP@LPCGBCIF@?7?7?7?$DMsetting?5value?$DN?$CCname?$DN?$CF1?$CC?1?$DO?6?$AA@ 00556db8     controldrag.obj
 0003:00000de0       ??_C@_05JKJFEODM@?$CGamp?$DL?$AA@ 00556de0     controldrag.obj
 0003:00000de8       ??_C@_01HNPIGOCE@?$CG?$AA@ 00556de8     controldrag.obj
 0003:00000dec       ??_C@_04GJOGLFEJ@?$CGlt?$DL?$AA@ 00556dec     controldrag.obj
 0003:00000df4       ??_C@_01MNNFJEPP@?$DM?$AA@ 00556df4     controldrag.obj
 0003:00000df8       ??_C@_04LOOHDCEI@?$CGgt?$DL?$AA@ 00556df8     controldrag.obj
 0003:00000e00       ??_C@_01PPODPGHN@?$DO?$AA@ 00556e00     controldrag.obj
 0003:00000e04       ??_C@_06DDLNFFBN@?$CGquot?$DL?$AA@ 00556e04     controldrag.obj
 0003:00000e0c       ??_C@_01BJJEKLCA@?$CC?$AA@ 00556e0c     controldrag.obj
 0003:00000e10       ??_C@_06PNMEMOHD@?$CGapos?$DL?$AA@ 00556e10     controldrag.obj
 0003:00000e18       ??_C@_01GEODFPGF@?8?$AA@   00556e18     controldrag.obj
 0003:00000e1c       ??_C@_0CM@GDMPMDML@?7?7?7?$DMsetting?5value?$DN?$CCdeviceDescrip@ 00556e1c     controldrag.obj
 0003:00000e50       ??_C@_0BO@HLNBNLB@?7?$DM?1container?$DO?6?$DM?1control_set?$DO?6?$AA@ 00556e50     controldrag.obj
 0003:00000e74       ??_C@_04GAOAGNCM@?4xml?$AA@ 00556e74     controldrag.obj
 0003:00000e7c       ??_C@_0BC@NCEGDJOA@?2config?2template?2?$AA@ 00556e7c     controldrag.obj
 0003:00000e94       ??_C@_0CG@COGPEAHI@Could?5not?5find?5the?5template?5file@ 00556e94     controldrag.obj
 0003:00000ec4       ??_C@_0BB@IEMIENNL@Control?5Template?$AA@ 00556ec4     controldrag.obj
 0003:00000ed8       ??_C@_0BP@HJNBOJOM@Error?5in?5template?5file?3?6?7?$CF1?6?$CF2?$AA@ 00556ed8     controldrag.obj
 0003:00000f00       ??_C@_0EK@DDDLNIDF@The?5template?5file?3?6?7?$CF1?6?5is?5not?5v@ 00556f00     controldrag.obj
 0003:00000f58       ??_C@_05OJNDEKBN@?$CC?5?1?$DO?6?$AA@ 00556f58     controldrag.obj
 0003:00000f60       ??_C@_05MFEJDJP@value?$AA@ 00556f60     controldrag.obj
 0003:00000f68       ??_C@_0BD@CJFEJILO@?7?7?$DMsetting?5value?$DN?$CC?$AA@ 00556f68     controldrag.obj
 0003:00000f80       ??_C@_0L@IINBHNNO@mydocument?$AA@ 00556f80     controldrag.obj
 0003:00000f90       ??_C@_05LJDNNBIK@param?$AA@ 00556f90     controldrag.obj
 0003:00000f98       ??_C@_04MEMAJGDJ@name?$AA@ 00556f98     controldrag.obj
 0003:00000fa0       ??_C@_07NDLGHPLM@setting?$AA@ 00556fa0     controldrag.obj
 0003:00000fac       ??_C@_08JHDOFJNE@?2config?2?$AA@ 00556fac     controldrag.obj
 0003:00000fb8       ??_C@_02LMMGJAGL@in?$AA@   00556fb8     controldrag.obj
 0003:00000fbc       ??_C@_0CJ@EEAJAKM@controldrag?3?5can?8t?5set?5XML?5conte@ 00556fbc     controldrag.obj
 0003:00000ff0       ??_C@_0M@FAJAMEBN@control_set?$AA@ 00556ff0     controldrag.obj
 0003:00001000       ??_C@_09KHFPHLHC@container?$AA@ 00557000     controldrag.obj
 0003:0000100c       ??_C@_07MMBOFDEG@control?$AA@ 0055700c     controldrag.obj
 0003:00001018       ??_C@_0N@HACHFKKL@bncs_control?$AA@ 00557018     controldrag.obj
 0003:00001028       ??_C@_01HIHLOKLC@1?$AA@    00557028     controldrag.obj
 0003:0000102c       ??_C@_01FJMABOPO@x?$AA@    0055702c     controldrag.obj
 0003:00001030       ??_C@_01EANLCPLP@y?$AA@    00557030     controldrag.obj
 0003:00001034       ??_C@_02PIBHCBOA@20?$AA@   00557034     controldrag.obj
 0003:00001038       ??_C@_0BG@NBKLJHHF@stylesheet?$DNparamlabel?$AA@ 00557038     controldrag.obj
 0003:00001054       ??_C@_07HKPALGNI@text?$DN?$CF1?$AA@ 00557054     controldrag.obj
 0003:00001060       ??_C@_04ECIFKFGO@y?$CL20?$AA@ 00557060     controldrag.obj
 0003:00001068       ??_C@_08FFEMIKAK@style?$DN?$CF1?$AA@ 00557068     controldrag.obj
 0003:00001074       ??_C@_0M@GBKCMPOE@instance?$DN?$CF1?$AA@ 00557074     controldrag.obj
 0003:00001084       ??_C@_07GNFPJCDC@name?$DN?$CF1?$AA@ 00557084     controldrag.obj
 0003:00001090       ??_C@_0BF@CKACEHOI@deviceDescription?$DN?$CF1?$AA@ 00557090     controldrag.obj
 0003:000010ac       ??_C@_0CP@IDOCKPJG@?$DM?$DPxml?5version?$DN?$CC1?40?$CC?5encoding?$DN?$CCwi@ 005570ac     controldrag.obj
 0003:000010e4       ??_C@_0BF@BBCPAAF@C?3?1Temp?1VisEdLog?4xml?$AA@ 005570e4     controldrag.obj
 0003:00001100       ??_C@_0P@EOGCOGAD@?$DM?$CB?9?9?5Test?5?9?9?$DO?5?$AA@ 00557100     controldrag.obj
 0003:0000111c       ??_SQListViewItem@@6B@     0055711c     device_list.obj
 0003:000011d8       ??_7undo_event@@6B@        005571d8     device_list.obj
 0003:000011e4       ??_7delete_undo@@6B@       005571e4     device_list.obj
 0003:000011f0       ??_7change_undo@@6B@       005571f0     device_list.obj
 0003:000011fc       ??_7new_undo@@6B@          005571fc     device_list.obj
 0003:00001208       ??_7?$QPtrStack@Vundo_event@@@@6B@ 00557208     device_list.obj
 0003:00001234       ??_7device_list@@6BQObject@@@ 00557234     device_list.obj
 0003:000015ac       ??_7device_list@@6BQPaintDevice@@@ 005575ac     device_list.obj
 0003:000015d4       ??_C@_04FABLJDN@Name?$AA@  005575d4     device_list.obj
 0003:000015dc       ??_C@_04KOACHJEN@Type?$AA@ 005575dc     device_list.obj
 0003:000015e4       ??_C@_06BNFOCFOC@Driver?$AA@ 005575e4     device_list.obj
 0003:000015ec       ??_C@_0DI@CCDMEEBJ@1contextMenuRequested?$CIQListViewI@ 005575ec     device_list.obj
 0003:00001630       ??_C@_0DI@EIDHAGA@2contextMenuRequested?$CIQListViewI@ 00557630     device_list.obj
 0003:00001674       ??_C@_0CC@JCOPHIJE@1doubleClicked?5?$CI?5QListViewItem?5?$CK@ 00557674     device_list.obj
 0003:0000169c       ??_C@_0CC@PPGJILMO@2doubleClicked?5?$CI?5QListViewItem?5?$CK@ 0055769c     device_list.obj
 0003:000016c4       ??_C@_0BA@FKNGFNEK@Can?8t?5open?5file?$AA@ 005576c4     device_list.obj
 0003:000016d8       ??_C@_0BB@CBMJNPGL@Can?8t?5parse?5file?$AA@ 005576d8     device_list.obj
 0003:000016ec       ??_C@_0M@PIFAKALL@device_list?$AA@ 005576ec     device_list.obj
 0003:000016fc       ??_C@_0BO@DHKDAFAE@This?5isn?8t?5a?5device?5list?5file?$AA@ 005576fc     device_list.obj
 0003:00001720       ??_C@_06NCODBMHO@driver?$AA@ 00557720     device_list.obj
 0003:00001728       ??_C@_04GPMDFGEJ@type?$AA@ 00557728     device_list.obj
 0003:00001730       ??_C@_0HC@JGKBIKGC@?$DM?$DPxml?5version?$DN?$CC1?40?$CC?5encoding?$DN?$CCwi@ 00557730     device_list.obj
 0003:000017b8       ??_C@_0BA@KAGCBDA@?7?$DMdevice?5name?$DN?$CC?$AA@ 005577b8     device_list.obj
 0003:000017cc       ??_C@_0L@DCJPHKLD@?$CC?5driver?$DN?$CC?$AA@ 005577cc     device_list.obj
 0003:000017dc       ??_C@_08GKGFMAO@?$CC?5type?$DN?$CC?$AA@ 005577dc     device_list.obj
 0003:000017e8       ??_C@_06JMEPEBJM@?$CC?5?1?$DO?$AN?6?$AA@ 005577e8     device_list.obj
 0003:000017f0       ??_C@_0BB@MFKHCFJE@?$DM?1device_list?$DO?$AN?6?$AA@ 005577f0     device_list.obj
 0003:00001808       ??_C@_0FE@BCGDCFHL@Unable?5to?5find?5the?5user?5preferen@ 00557808     device_list.obj
 0003:0000186c       ??_C@_0BB@PDIDPMKN@Application?5name?$AA@ 0055786c     device_list.obj
 0003:00001880       ??_C@_08OHLGLFCB@?5?7Ctrl?$CLZ?$AA@ 00557880     device_list.obj
 0003:0000188c       ??_C@_05FGDHMGNP@Undo?5?$AA@ 0055788c     device_list.obj
 0003:00001894       ??_C@_07MEDEBHKL@New?7Ins?$AA@ 00557894     device_list.obj
 0003:000018a0       ??_C@_04INACKGJP@Save?$AA@ 005578a0     device_list.obj
 0003:000018a8       ??_C@_0BA@KGKGGOFJ@Revert?5to?5saved?$AA@ 005578a8     device_list.obj
 0003:000018bc       ??_C@_0L@CIHKFDKJ@Cut?7Ctrl?$CLX?$AA@ 005578bc     device_list.obj
 0003:000018cc       ??_C@_0M@ENADLLLD@Copy?7Ctrl?$CLC?$AA@ 005578cc     device_list.obj
 0003:000018dc       ??_C@_01GPOEFGEJ@?7?$AA@   005578dc     device_list.obj
 0003:000018e0       ??_C@_0BG@JLFFNNGJ@Paste?5?$CIInsert?$CJ?7Ctrl?$CLV?$AA@ 005578e0     device_list.obj
 0003:000018fc       ??_C@_09OINHJNMP@Duplicate?$AA@ 005578fc     device_list.obj
 0003:00001908       ??_C@_0L@DJFHNNIP@Delete?7Del?$AA@ 00557908     device_list.obj
 0003:00001918       ??_C@_0BD@CJAAMAGD@Select?5?$CGAll?7Ctrl?$CLA?$AA@ 00557918     device_list.obj
 0003:00001930       ??_C@_01EEMJAFIK@?6?$AA@   00557930     device_list.obj
 0003:00001934       ??_C@_03EOHDMBHJ@Cut?$AA@  00557934     device_list.obj
 0003:00001938       ??_C@_05NEBJFIEK@Paste?$AA@ 00557938     device_list.obj
 0003:00001940       ??_C@_06JBKGCNBB@Delete?$AA@ 00557940     device_list.obj
 0003:00001948       ??_C@_09JKLHNAIJ@Edit?5Item?$AA@ 00557948     device_list.obj
 0003:00001954       ??_C@_08JGDPGHFK@New?5Item?$AA@ 00557954     device_list.obj
 0003:00001960       ??_C@_0DP@NBODMDID@Do?5you?5want?5to?5lose?5all?5edits?5an@ 00557960     device_list.obj
 0003:000019ac       ??_C@_0O@CHBMDFMN@BNCS?5Vis?4?5Ed?4?$AA@ 005579ac     device_list.obj
 0003:000019bc       ??_C@_0BP@NPDOJHLF@there?5are?5duplicate?5entries?5?$CFs?$AA@ 005579bc     device_list.obj
 0003:000019e8       ??_7device_list_edit@@6BQObject@@@ 005579e8     device_list_edit_imp.obj
 0003:00001c08       ??_7device_list_edit@@6BQPaintDevice@@@ 00557c08     device_list_edit_imp.obj
 0003:00001c30       ??_C@_0BL@CICBCKHJ@Edit?5BNCS?5Device?5Type?5List?$AA@ 00557c30     device_list_edit_imp.obj
 0003:00001c50       ??_C@_0N@NIGNGBEM@device_types?$AA@ 00557c50     device_list_edit_imp.obj
 0003:00001c60       ??_C@_0BC@LPJCAHNC@?2device_types?4xml?$AA@ 00557c60     device_list_edit_imp.obj
 0003:00001c78       ??_C@_0P@DNEJMMDC@device_drivers?$AA@ 00557c78     device_list_edit_imp.obj
 0003:00001c8c       ??_C@_0BE@DBKMOGKH@?2device_drivers?4xml?$AA@ 00557c8c     device_list_edit_imp.obj
 0003:00001ca4       ??_C@_0BP@JHPDICFF@This?5isn?8t?5a?5drivers?5list?5file?$AA@ 00557ca4     device_list_edit_imp.obj
 0003:00001cd0       ??_7deviceTypeListView@@6BQObject@@@ 00557cd0     deviceTypeListView.obj
 0003:00002048       ??_7deviceTypeListView@@6BQPaintDevice@@@ 00558048     deviceTypeListView.obj
 0003:00002070       ??_C@_05EKAMNAII@Class?$AA@ 00558070     deviceTypeListView.obj
 0003:00002078       ??_C@_05IHAFCALK@Style?$AA@ 00558078     deviceTypeListView.obj
 0003:00002080       ??_C@_04DPEGMFKN@Slot?$AA@ 00558080     deviceTypeListView.obj
 0003:00002088       ??_C@_04POIHOKKJ@slot?$AA@ 00558088     deviceTypeListView.obj
 0003:00002094       ??_7?$QPtrList@VsignalConnection@@@@6B@ 00558094     dialog.obj
 0003:000020c0       ??_7signalConnectionRefList@@6B@ 005580c0     dialog.obj
 0003:000020ec       ??_7dialog@@6BQObject@@@   005580ec     dialog.obj
 0003:000023cc       ??_7dialog@@6BQPaintDevice@@@ 005583cc     dialog.obj
 0003:000023f4       ??_C@_0CA@JNCIGBDP@1scriptedit?$CI?5QString?0?5QString?5?$CJ?$AA@ 005583f4     dialog.obj
 0003:0000241c       ??_C@_0CA@FEDHGJIA@2scriptedit?$CI?5QString?0?5QString?5?$CJ?$AA@ 0055841c     dialog.obj
 0003:00002444       ??_C@_0BG@JAAAKOIH@1caption?$CI?5QString?5?$CG?5?$CJ?$AA@ 00558444     dialog.obj
 0003:00002460       ??_C@_0BG@KJHIADMH@2caption?$CI?5QString?5?$CG?5?$CJ?$AA@ 00558460     dialog.obj
 0003:0000247c       ??_C@_0CG@ECCBBBAL@1comboBoxesMessage?$CI?5const?5QStrin@ 0055847c     dialog.obj
 0003:000024ac       ??_C@_0CG@PMJBBGM@2comboBoxesMessage?$CI?5const?5QStrin@ 005584ac     dialog.obj
 0003:000024e0       ??_7dialogedit@@6BQObject@@@ 005584e0     dialogeditimpl.obj
 0003:00002700       ??_7dialogedit@@6BQPaintDevice@@@ 00558700     dialogeditimpl.obj
 0003:0000272c       ??_7distributeBase@@6BQObject@@@ 0055872c     distribute.obj
 0003:0000294c       ??_7distributeBase@@6BQPaintDevice@@@ 0055894c     distribute.obj
 0003:0000297c       ??_SQPushButton@@6BQObject@@@ 0055897c     distribute.obj
 0003:00002bd0       ??_SQPushButton@@6BQPaintDevice@@@ 00558bd0     distribute.obj
 0003:00002bfc       ??_SQButtonGroup@@6BQObject@@@ 00558bfc     distribute.obj
 0003:00002e50       ??_SQButtonGroup@@6BQPaintDevice@@@ 00558e50     distribute.obj
 0003:00002e7c       ??_SQRadioButton@@6BQObject@@@ 00558e7c     distribute.obj
 0003:000030c0       ??_SQRadioButton@@6BQPaintDevice@@@ 005590c0     distribute.obj
 0003:000030ec       ??_SQSpacerItem@@6B@       005590ec     distribute.obj
 0003:00003144       ??_SQHBoxLayout@@6BQObject@@@ 00559144     distribute.obj
 0003:000031c4       ??_SQHBoxLayout@@6BQLayoutItem@@@ 005591c4     distribute.obj
 0003:0000321c       ??_SQVBoxLayout@@6BQObject@@@ 0055921c     distribute.obj
 0003:0000329c       ??_SQVBoxLayout@@6BQLayoutItem@@@ 0055929c     distribute.obj
 0003:000032ec       ??_C@_0P@FAIEEMBL@distributeBase?$AA@ 005592ec     distribute.obj
 0003:00003300       ??_C@_0BF@DEHIPIJM@distributeBaseLayout?$AA@ 00559300     distribute.obj
 0003:0000331c       ??_C@_07PMGFJLLE@layout3?$AA@ 0055931c     distribute.obj
 0003:00003328       ??_C@_0N@MHEGOAAO@buttonGroup1?$AA@ 00559328     distribute.obj
 0003:00003338       ??_C@_0N@CPPDEGCP@radioButton7?$AA@ 00559338     distribute.obj
 0003:00003348       ??_C@_0N@LBHAGLKB@radioButton9?$AA@ 00559348     distribute.obj
 0003:00003358       ??_C@_0O@HADFIEFO@radioButton10?$AA@ 00559358     distribute.obj
 0003:00003368       ??_C@_05FMCDPPJA@hDist?$AA@ 00559368     distribute.obj
 0003:00003370       ??_C@_05DMGIGKHC@hLeft?$AA@ 00559370     distribute.obj
 0003:00003378       ??_C@_06KEMIHHBD@hRight?$AA@ 00559378     distribute.obj
 0003:00003380       ??_C@_0O@FLBINHJN@radioButton13?$AA@ 00559380     distribute.obj
 0003:00003390       ??_C@_0N@OMGLLDMN@buttonGroup2?$AA@ 00559390     distribute.obj
 0003:000033a0       ??_C@_0N@KIGLFKOA@radioButton8?$AA@ 005593a0     distribute.obj
 0003:000033b0       ??_C@_0O@GJCOLFBP@radioButton11?$AA@ 005593b0     distribute.obj
 0003:000033c0       ??_C@_0O@ECADOGNM@radioButton12?$AA@ 005593c0     distribute.obj
 0003:000033d0       ??_C@_05GFPPJMHL@vDist?$AA@ 005593d0     distribute.obj
 0003:000033d8       ??_C@_04GHJEHAJD@vTop?$AA@ 005593d8     distribute.obj
 0003:000033e0       ??_C@_07KBADIJGN@vBottom?$AA@ 005593e0     distribute.obj
 0003:000033ec       ??_C@_0O@BEFJEBFK@radioButton14?$AA@ 005593ec     distribute.obj
 0003:000033fc       ??_C@_07OFHOKKPF@layout2?$AA@ 005593fc     distribute.obj
 0003:00003408       ??_C@_08DKBDHOFF@buttonOk?$AA@ 00559408     distribute.obj
 0003:00003414       ??_C@_0N@OLKBNHFJ@buttonCancel?$AA@ 00559414     distribute.obj
 0003:00003424       ??_C@_09DMINLBG@1accept?$CI?$CJ?$AA@ 00559424     distribute.obj
 0003:00003430       ??_C@_0L@OELOHDKG@2clicked?$CI?$CJ?$AA@ 00559430     distribute.obj
 0003:00003440       ??_C@_09OCDCAEKE@1reject?$CI?$CJ?$AA@ 00559440     distribute.obj
 0003:0000344c       ??_C@_0BE@OFLEPCLP@Distribute?5Controls?$AA@ 0055944c     distribute.obj
 0003:00003464       ??_C@_0L@DKFGPADG@Horizontal?$AA@ 00559464     distribute.obj
 0003:00003474       ??_C@_0L@GDHMFGL@Do?5Nothing?$AA@ 00559474     distribute.obj
 0003:00003484       ??_C@_0L@CIFMHJAI@Align?5Left?$AA@ 00559484     distribute.obj
 0003:00003494       ??_C@_0M@BEAMNLCC@Align?5Right?$AA@ 00559494     distribute.obj
 0003:000034a4       ??_C@_0BC@GGBEOIPA@Distribute?5Evenly?$AA@ 005594a4     distribute.obj
 0003:000034bc       ??_C@_0L@IHBFEGFL@Stack?5Left?$AA@ 005594bc     distribute.obj
 0003:000034cc       ??_C@_0M@OGMBJCFD@Stack?5Right?$AA@ 005594cc     distribute.obj
 0003:000034dc       ??_C@_0BB@KIJACDHC@Centre?5in?5Dialog?$AA@ 005594dc     distribute.obj
 0003:000034f0       ??_C@_08FGBNDLMK@Vertical?$AA@ 005594f0     distribute.obj
 0003:000034fc       ??_C@_09INALGMGM@Align?5Top?$AA@ 005594fc     distribute.obj
 0003:00003508       ??_C@_0N@JJFMGOOC@Align?5Bottom?$AA@ 00559508     distribute.obj
 0003:00003518       ??_C@_09MOCPHDMF@Stack?5Top?$AA@ 00559518     distribute.obj
 0003:00003524       ??_C@_0N@LOKMOCAB@Stack?5Bottom?$AA@ 00559524     distribute.obj
 0003:00003534       ??_C@_03DDKJIMDC@?$CGOK?$AA@ 00559534     distribute.obj
 0003:00003538       ??_C@_07JLEKEEPN@?$CGCancel?$AA@ 00559538     distribute.obj
 0003:00003548       ??_7distribute@@6BQObject@@@ 00559548     distributeimpl.obj
 0003:00003768       ??_7distribute@@6BQPaintDevice@@@ 00559768     distributeimpl.obj
 0003:00003794       ??_7duplicateDlg@@6BQObject@@@ 00559794     duplicatedlgimpl.obj
 0003:000039b4       ??_7duplicateDlg@@6BQPaintDevice@@@ 005599b4     duplicatedlgimpl.obj
 0003:000039e0       ??_7editHandles@@6BQObject@@@ 005599e0     editHandles.obj
 0003:00003bec       ??_7editHandles@@6BQPaintDevice@@@ 00559bec     editHandles.obj
 0003:00003c14       ??_C@_0BA@ENPECJGJ@?$CF1?3?5?$CF2?5?$CF3?5?$CF4?5?$CF5?$AA@ 00559c14     editHandles.obj
 0003:00003c28       ??_C@_0BD@CPIBIKLB@bncs_script_loader?$AA@ 00559c28     editHandles.obj
 0003:00003c40       ??_C@_0BH@LJMLKDKM@return?$DNscaleWithCanvas?$AA@ 00559c40     editHandles.obj
 0003:00003c5c       ??_C@_04LOAJBDKD@true?$AA@ 00559c5c     editHandles.obj
 0003:00003c64       ??_C@_0BK@INONMMNI@forceScaleWithCanvas?$DNtrue?$AA@ 00559c64     editHandles.obj
 0003:00003c88       ??_7file_new@@6BQObject@@@ 00559c88     file_new_imp.obj
 0003:00003ea8       ??_7file_new@@6BQPaintDevice@@@ 00559ea8     file_new_imp.obj
 0003:00003ed4       ??_SQIconViewItem@@6B@     00559ed4     file_new_imp.obj
 0003:00003f70       ??_C@_0CC@DANPOGAD@1doubleClicked?$CI?5QIconViewItem?5?$CK?5@ 00559f70     file_new_imp.obj
 0003:00003f98       ??_C@_0CC@FNFJBFFJ@2doubleClicked?$CI?5QIconViewItem?5?$CK?5@ 00559f98     file_new_imp.obj
 0003:00003fc0       ??_C@_09PJDIALKE@1doHelp?$CI?$CJ?$AA@ 00559fc0     file_new_imp.obj
 0003:00003fcc       ??_C@_0BI@HJJJKBKM@?2config?2vised?2templates?$AA@ 00559fcc     file_new_imp.obj
 0003:00003fe8       ??_C@_09CAHEPJF@?$CK?4bncs_ui?$AA@ 00559fe8     file_new_imp.obj
 0003:00003ff4       ??_C@_04EEOGCCFB@?4png?$AA@ 00559ff4     file_new_imp.obj
 0003:00003ffc       ??_C@_07OJDKHOHE@fileNew?$AA@ 00559ffc     file_new_imp.obj
 0003:0000400c       ??_7globalStyleDlg@@6BQObject@@@ 0055a00c     globalstyledlgimpl.obj
 0003:0000422c       ??_7globalStyleDlg@@6BQPaintDevice@@@ 0055a22c     globalstyledlgimpl.obj
 0003:00004254       ??_C@_0BK@DPPIGFP@1backgroundColourPicker?$CI?$CJ?$AA@ 0055a254     globalstyledlgimpl.obj
 0003:00004274       ??_C@_0M@PIBNEBIG@2released?$CI?$CJ?$AA@ 0055a274     globalstyledlgimpl.obj
 0003:00004284       ??_C@_0CB@CKLHJHFI@1defaultBgColourSelected?$CI?5bool?5?$CJ@ 0055a284     globalstyledlgimpl.obj
 0003:000042ac       ??_C@_0P@POCECEMJ@2toggled?$CIbool?$CJ?$AA@ 0055a2ac     globalstyledlgimpl.obj
 0003:000042c4       ??_7handleBlock@@6BQObject@@@ 0055a2c4     handleBlock.obj
 0003:000044d0       ??_7handleBlock@@6BQPaintDevice@@@ 0055a4d0     handleBlock.obj
 0003:000044f8       ??_C@_1JA@EKKHPHED@?$AAc?$AA?3?$AA?2?$AAp?$AAr?$AAo?$AAg?$AAr?$AAa?$AAm?$AA?5?$AAf?$AAi?$AAl?$AAe?$AAs?$AA?5?$AA?$CI?$AAx?$AA8?$AA6?$AA?$CJ?$AA?2?$AAm?$AAi?$AAc?$AAr?$AAo?$AAs?$AAo?$AAf?$AAt@ 0055a4f8     importsettingsimpl.obj
 0003:000045a4       ??_C@_1DC@POOIKBAO@?$AAI?$AAT?$AAE?$AAR?$AAA?$AAT?$AAO?$AAR?$AA?5?$AAL?$AAI?$AAS?$AAT?$AA?5?$AAC?$AAO?$AAR?$AAR?$AAU?$AAP?$AAT?$AAE?$AAD?$AA?$CB?$AA?$AA@ 0055a5a4     importsettingsimpl.obj
 0003:000045e4       ??_7importSettings@@6BQObject@@@ 0055a5e4     importsettingsimpl.obj
 0003:00004804       ??_7importSettings@@6BQPaintDevice@@@ 0055a804     importsettingsimpl.obj
 0003:0000482c       ??_C@_01LIIJDEN@?$AN?$AA@  0055a82c     importsettingsimpl.obj
 0003:00004830       ??_C@_0P@MDIIBKNE@importSettings?$AA@ 0055a830     importsettingsimpl.obj
 0003:00004848       ??_C@_1IK@HBAODOLH@?$AAc?$AA?3?$AA?2?$AAp?$AAr?$AAo?$AAg?$AAr?$AAa?$AAm?$AA?5?$AAf?$AAi?$AAl?$AAe?$AAs?$AA?5?$AA?$CI?$AAx?$AA8?$AA6?$AA?$CJ?$AA?2?$AAm?$AAi?$AAc?$AAr?$AAo?$AAs?$AAo?$AAf?$AAt@ 0055a848     importsettingsimpl.obj
 0003:000048f0       ??_C@_1EK@PPDBPCAN@?$AAm?$AAa?$AAp?$AA?1?$AAs?$AAe?$AAt?$AA?5?$AAe?$AAr?$AAa?$AAs?$AAe?$AA?5?$AAi?$AAt?$AAe?$AAr?$AAa?$AAt?$AAo?$AAr?$AA?5?$AAo?$AAu?$AAt?$AAs?$AAi?$AAd?$AAe?$AA?5?$AAr@ 0055a8f0     importsettingsimpl.obj
 0003:00004948       ??_C@_1DO@CFEEPGGJ@?$AAm?$AAa?$AAp?$AA?1?$AAs?$AAe?$AAt?$AA?5?$AAi?$AAt?$AAe?$AAr?$AAa?$AAt?$AAo?$AAr?$AAs?$AA?5?$AAi?$AAn?$AAc?$AAo?$AAm?$AAp?$AAa?$AAt?$AAi?$AAb?$AAl?$AAe?$AA?$AA@ 0055a948     importsettingsimpl.obj
 0003:00004994       ??_C@_0CI@FNPHFCCM@Standard?5C?$CL?$CL?5Libraries?5Invalid?5A@ 0055a994     importsettingsimpl.obj
 0003:000049c8       ??_C@_1FO@GJIHNDLM@?$AA?$CC?$AAS?$AAt?$AAa?$AAn?$AAd?$AAa?$AAr?$AAd?$AA?5?$AAC?$AA?$CL?$AA?$CL?$AA?5?$AAL?$AAi?$AAb?$AAr?$AAa?$AAr?$AAi?$AAe?$AAs?$AA?5?$AAI?$AAn?$AAv?$AAa?$AAl?$AAi?$AAd?$AA?5@ 0055a9c8     importsettingsimpl.obj
 0003:00004a38       ??_C@_15GANGMFKL@?$AA?$CF?$AAs?$AA?$AA@ 0055aa38     importsettingsimpl.obj
 0003:00004a40       ??_C@_1BDE@NNHACJAC@?$AAs?$AAt?$AAd?$AA?3?$AA?3?$AA_?$AAT?$AAr?$AAe?$AAe?$AA_?$AAc?$AAo?$AAn?$AAs?$AAt?$AA_?$AAi?$AAt?$AAe?$AAr?$AAa?$AAt?$AAo?$AAr?$AA?$DM?$AAc?$AAl?$AAa?$AAs?$AAs?$AA?5@ 0055aa40     importsettingsimpl.obj
 0003:00004bb4       ??_C@_1CG@JNLFBNGN@?$AA?$CC?$AAi?$AAn?$AAv?$AAa?$AAl?$AAi?$AAd?$AA?5?$AAa?$AAr?$AAg?$AAu?$AAm?$AAe?$AAn?$AAt?$AA?$CC?$AA?$AA@ 0055abb4     importsettingsimpl.obj
 0003:00004be8       ??_C@_1EG@EHJFMBHJ@?$AAm?$AAa?$AAp?$AA?1?$AAs?$AAe?$AAt?$AA?5?$AAi?$AAt?$AAe?$AAr?$AAa?$AAt?$AAo?$AAr?$AA?5?$AAn?$AAo?$AAt?$AA?5?$AAi?$AAn?$AAc?$AAr?$AAe?$AAm?$AAe?$AAn?$AAt?$AAa?$AAb@ 0055abe8     importsettingsimpl.obj
 0003:00004c3c       ??_C@_0CE@OFMIGAMM@Standard?5C?$CL?$CL?5Libraries?5Out?5of?5Ra@ 0055ac3c     importsettingsimpl.obj
 0003:00004c68       ??_C@_1FG@IBPIFFN@?$AA?$CC?$AAS?$AAt?$AAa?$AAn?$AAd?$AAa?$AAr?$AAd?$AA?5?$AAC?$AA?$CL?$AA?$CL?$AA?5?$AAL?$AAi?$AAb?$AAr?$AAa?$AAr?$AAi?$AAe?$AAs?$AA?5?$AAO?$AAu?$AAt?$AA?5?$AAo?$AAf?$AA?5?$AAR@ 0055ac68     importsettingsimpl.obj
 0003:00004cd0       ??_C@_1BDE@HNINMAMH@?$AAs?$AAt?$AAd?$AA?3?$AA?3?$AA_?$AAT?$AAr?$AAe?$AAe?$AA_?$AAc?$AAo?$AAn?$AAs?$AAt?$AA_?$AAi?$AAt?$AAe?$AAr?$AAa?$AAt?$AAo?$AAr?$AA?$DM?$AAc?$AAl?$AAa?$AAs?$AAs?$AA?5@ 0055acd0     importsettingsimpl.obj
 0003:00004e44       ??_C@_1BO@MEPPHOO@?$AA?$CC?$AAo?$AAu?$AAt?$AA?5?$AAo?$AAf?$AA?5?$AAr?$AAa?$AAn?$AAg?$AAe?$AA?$CC?$AA?$AA@ 0055ae44     importsettingsimpl.obj
 0003:00004e68       ??_C@_1EG@OKCGOALM@?$AAm?$AAa?$AAp?$AA?1?$AAs?$AAe?$AAt?$AA?5?$AAi?$AAt?$AAe?$AAr?$AAa?$AAt?$AAo?$AAr?$AA?5?$AAn?$AAo?$AAt?$AA?5?$AAd?$AAe?$AAc?$AAr?$AAe?$AAm?$AAe?$AAn?$AAt?$AAa?$AAb@ 0055ae68     importsettingsimpl.obj
 0003:00004ec0       ??_C@_1BDE@IOLPHMAG@?$AAs?$AAt?$AAd?$AA?3?$AA?3?$AA_?$AAT?$AAr?$AAe?$AAe?$AA_?$AAc?$AAo?$AAn?$AAs?$AAt?$AA_?$AAi?$AAt?$AAe?$AAr?$AAa?$AAt?$AAo?$AAr?$AA?$DM?$AAc?$AAl?$AAa?$AAs?$AAs?$AA?5@ 0055aec0     importsettingsimpl.obj
 0003:00005034       ??_C@_1CE@IGJMOCCK@?$AAi?$AAn?$AAv?$AAa?$AAl?$AAi?$AAd?$AA?5?$AAo?$AAp?$AAe?$AAr?$AAa?$AAt?$AAo?$AAr?$AA?$DM?$AA?$AA@ 0055b034     importsettingsimpl.obj
 0003:00005060       ??_C@_0BE@JONHPENG@map?1set?$DMT?$DO?5too?5long?$AA@ 0055b060     importsettingsimpl.obj
 0003:0000507c       ??_SQFrame@@6BQObject@@@   0055b07c     lassoo.obj
 0003:000052b0       ??_SQFrame@@6BQPaintDevice@@@ 0055b2b0     lassoo.obj
 0003:000052dc       ??_7lassoo@@6BQObject@@@   0055b2dc     lassoo.obj
 0003:000054e8       ??_7lassoo@@6BQPaintDevice@@@ 0055b4e8     lassoo.obj
 0003:00005510       ??_C@_0N@HCPNCJDN@32?532?5125?52?5?$AA@ 0055b510     main.obj
 0003:00005520       ??_C@_0N@OCHEDFKL@?5?5?5c?5?$CD006C00?$AA@ 0055b520     main.obj
 0003:00005530       ??_C@_0N@OEMEHILM@?4?5?5c?5?$CD007100?$AA@ 0055b530     main.obj
 0003:00005540       ??_C@_0N@EHKNJJJN@X?5?5c?5?$CD017A01?$AA@ 0055b540     main.obj
 0003:00005550       ??_C@_0N@JGNIJBIK@o?5?5c?5?$CD0A7E0A?$AA@ 0055b550     main.obj
 0003:00005560       ??_C@_0N@LELLGACF@O?5?5c?5?$CD117F11?$AA@ 0055b560     main.obj
 0003:00005570       ??_C@_0N@NBLCJEPF@?$CL?5?5c?5?$CD008300?$AA@ 0055b570     main.obj
 0003:00005580       ??_C@_0N@DJEMNEBF@?$EA?5?5c?5?$CD018B01?$AA@ 0055b580     main.obj
 0003:00005590       ??_C@_0N@PKFIHMDG@?$CD?5?5c?5?$CD0D810D?$AA@ 0055b590     main.obj
 0003:000055a0       ??_C@_0N@KJIINHNL@$?5?5c?5?$CD049404?$AA@ 0055b5a0     main.obj
 0003:000055b0       ??_C@_0N@NAAADOPC@?$CF?5?5c?5?$CD0B940B?$AA@ 0055b5b0     main.obj
 0003:000055c0       ??_C@_0N@LBCIEGAJ@?$CG?5?5c?5?$CD0D9A0D?$AA@ 0055b5c0     main.obj
 0003:000055d0       ??_C@_0N@GCIANJO@?$CK?5?5c?5?$CD138313?$AA@ 0055b5d0     main.obj
 0003:000055e0       ??_C@_0N@BMGNGEBD@?$DN?5?5c?5?$CD1B851B?$AA@ 0055b5e0     main.obj
 0003:000055f0       ??_C@_0N@GCJEFILH@?9?5?5c?5?$CD129D12?$AA@ 0055b5f0     main.obj
 0003:00005600       ??_C@_0N@FEOIGOLJ@?$DL?5?5c?5?$CD14A414?$AA@ 0055b600     main.obj
 0003:00005610       ??_C@_0N@CNGAIHJA@?3?5?5c?5?$CD1BA41B?$AA@ 0055b610     main.obj
 0003:00005620       ??_C@_0N@DBDLPJDD@?$DO?5?5c?5?$CD1DAA1D?$AA@ 0055b620     main.obj
 0003:00005630       ??_C@_0N@MIEGADDE@?0?5?5c?5?$CD228722?$AA@ 0055b630     main.obj
 0003:00005640       ??_C@_0N@KAKDLBNL@?$DM?5?5c?5?$CD248B24?$AA@ 0055b640     main.obj
 0003:00005650       ??_C@_0N@FGJEKHAB@1?5?5c?5?$CD2A8C2A?$AA@ 0055b650     main.obj
 0003:00005660       ??_C@_0N@PKEAKCJE@2?5?5c?5?$CD2E922E?$AA@ 0055b660     main.obj
 0003:00005670       ??_C@_0N@ICLOPHMM@3?5?5c?5?$CD318F31?$AA@ 0055b670     main.obj
 0003:00005680       ??_C@_0N@OJGDHBCJ@4?5?5c?5?$CD369536?$AA@ 0055b680     main.obj
 0003:00005690       ??_C@_0N@ECKMHKOE@5?5?5c?5?$CD3A953A?$AA@ 0055b690     main.obj
 0003:000056a0       ??_C@_0N@MKEOGKBL@6?5?5c?5?$CD3C993C?$AA@ 0055b6a0     main.obj
 0003:000056b0       ??_C@_0N@MEIHHFGF@7?5?5c?5?$CD23AD23?$AA@ 0055b6b0     main.obj
 0003:000056c0       ??_C@_0N@DJDCOMMP@8?5?5c?5?$CD2BB42B?$AA@ 0055b6c0     main.obj
 0003:000056d0       ??_C@_0N@MEIJAPHD@9?5?5c?5?$CD2CB92C?$AA@ 0055b6d0     main.obj
 0003:000056e0       ??_C@_0N@HMIKDHLC@0?5?5c?5?$CD33BB33?$AA@ 0055b6e0     main.obj
 0003:000056f0       ??_C@_0N@KFFLDDBC@q?5?5c?5?$CD3CBE3C?$AA@ 0055b6f0     main.obj
 0003:00005700       ??_C@_0N@NODFGEEP@w?5?5c?5?$CD00C000?$AA@ 0055b700     main.obj
 0003:00005710       ??_C@_0N@NJONLACH@e?5?5c?5?$CD00CA00?$AA@ 0055b710     main.obj
 0003:00005720       ??_C@_0N@GDIPKEKC@r?5?5c?5?$CD00D300?$AA@ 0055b720     main.obj
 0003:00005730       ??_C@_0N@BEGLPMHO@t?5?5c?5?$CD00D800?$AA@ 0055b730     main.obj
 0003:00005740       ??_C@_0N@CMMBKKIF@y?5?5c?5?$CD01F301?$AA@ 0055b740     main.obj
 0003:00005750       ??_C@_0N@ONCKKKDG@u?5?5c?5?$CD02FD02?$AA@ 0055b750     main.obj
 0003:00005760       ??_C@_0N@LEAKECEC@i?5?5c?5?$CD0DF50D?$AA@ 0055b760     main.obj
 0003:00005770       ??_C@_0N@BLILPDNE@p?5?5c?5?$CD0EFC0E?$AA@ 0055b770     main.obj
 0003:00005780       ??_C@_0N@KNLCFDDG@a?5?5c?5?$CD11E711?$AA@ 0055b780     main.obj
 0003:00005790       ??_C@_0N@CNNJCKCD@s?5?5c?5?$CD14ED14?$AA@ 0055b790     main.obj
 0003:000057a0       ??_C@_0N@FNDEFCHO@d?5?5c?5?$CD11F511?$AA@ 0055b7a0     main.obj
 0003:000057b0       ??_C@_0N@MMCNLPM@f?5?5c?5?$CD13FC13?$AA@ 0055b7b0     main.obj
 0003:000057c0       ??_C@_0N@KHANNADB@g?5?5c?5?$CD1DFC1D?$AA@ 0055b7c0     main.obj
 0003:000057d0       ??_C@_0N@BCNBPEOI@h?5?5c?5?$CD3BC53B?$AA@ 0055b7d0     main.obj
 0003:000057e0       ??_C@_0N@BGNDDCPD@j?5?5c?5?$CD3DCA3D?$AA@ 0055b7e0     main.obj
 0003:000057f0       ??_C@_0N@JCLINOFM@k?5?5c?5?$CD24FB24?$AA@ 0055b7f0     main.obj
 0003:00005800       ??_C@_0N@HHHBHDJP@l?5?5c?5?$CD31FA31?$AA@ 0055b800     main.obj
 0003:00005810       ??_C@_0N@BFMKNINA@z?5?5c?5?$CD3FFA3F?$AA@ 0055b810     main.obj
 0003:00005820       ??_C@_0N@MBLGIABP@x?5?5c?5?$CD468846?$AA@ 0055b820     main.obj
 0003:00005830       ??_C@_0N@GMNIFEMC@c?5?5c?5?$CD449C44?$AA@ 0055b830     main.obj
 0003:00005840       ??_C@_0N@JGMCMMJP@v?5?5c?5?$CD4C9E4C?$AA@ 0055b840     main.obj
 0003:00005850       ??_C@_0N@LGEMPNMN@b?5?5c?5?$CD548D54?$AA@ 0055b850     main.obj
 0003:00005860       ??_C@_0N@FFDJCFON@n?5?5c?5?$CD4CA14C?$AA@ 0055b860     main.obj
 0003:00005870       ??_C@_0N@MKOHOOI@m?5?5c?5?$CD4CAE4C?$AA@ 0055b870     main.obj
 0003:00005880       ??_C@_0N@LNLPEBCP@M?5?5c?5?$CD54A454?$AA@ 0055b880     main.obj
 0003:00005890       ??_C@_0N@KDNLPEKL@N?5?5c?5?$CD5AA65A?$AA@ 0055b890     main.obj
 0003:000058a0       ??_C@_0N@OCDDLAID@B?5?5c?5?$CD5DAA5D?$AA@ 0055b8a0     main.obj
 0003:000058b0       ??_C@_0N@JJFFFBMH@V?5?5c?5?$CD688D68?$AA@ 0055b8b0     main.obj
 0003:000058c0       ??_C@_0N@HECLOIFJ@C?5?5c?5?$CD7D987D?$AA@ 0055b8c0     main.obj
 0003:000058d0       ??_C@_0N@CMFKOFPF@Z?5?5c?5?$CD64AD64?$AA@ 0055b8d0     main.obj
 0003:000058e0       ??_C@_0N@DJKLFE@A?5?5c?5?$CD6CB26C?$AA@ 0055b8e0     main.obj
 0003:000058f0       ??_C@_0N@BIFKHHCM@S?5?5c?5?$CD72B572?$AA@ 0055b8f0     main.obj
 0003:00005900       ??_C@_0N@NMLJIIGB@D?5?5c?5?$CD76B876?$AA@ 0055b900     main.obj
 0003:00005910       ??_C@_0N@CKPEOEAD@F?5?5c?5?$CD79B679?$AA@ 0055b910     main.obj
 0003:00005920       ??_C@_0N@NEOKNCPD@G?5?5c?5?$CD7CBC7C?$AA@ 0055b920     main.obj
 0003:00005930       ??_C@_0N@LDLCHLAE@H?5?5c?5?$CD42CB42?$AA@ 0055b930     main.obj
 0003:00005940       ??_C@_0N@FILFBELM@J?5?5c?5?$CD45D245?$AA@ 0055b940     main.obj
 0003:00005950       ??_C@_0N@LMOKMFCM@K?5?5c?5?$CD4CD54C?$AA@ 0055b950     main.obj
 0003:00005960       ??_C@_0N@LHHCBPMK@L?5?5c?5?$CD4EDB4E?$AA@ 0055b960     main.obj
 0003:00005970       ??_C@_0N@CCNIDGKB@P?5?5c?5?$CD53DC53?$AA@ 0055b970     main.obj
 0003:00005980       ??_C@_0N@HPKKDAEB@I?5?5c?5?$CD55E255?$AA@ 0055b980     main.obj
 0003:00005990       ??_C@_0N@CCFKCPE@U?5?5c?5?$CD5BE45B?$AA@ 0055b990     main.obj
 0003:000059a0       ??_C@_0N@EEHNAPDK@Y?5?5c?5?$CD5DEA5D?$AA@ 0055b9a0     main.obj
 0003:000059b0       ??_C@_0N@ICEPHLJB@T?5?5c?5?$CD65D265?$AA@ 0055b9b0     main.obj
 0003:000059c0       ??_C@_0N@JCHFPHPF@R?5?5c?5?$CD6ADB6A?$AA@ 0055b9c0     main.obj
 0003:000059d0       ??_C@_0N@FHHJEMPI@E?5?5c?5?$CD62EC62?$AA@ 0055b9d0     main.obj
 0003:000059e0       ??_C@_0N@BPNANIGK@W?5?5c?5?$CD67F467?$AA@ 0055b9e0     main.obj
 0003:000059f0       ??_C@_0N@CLEFCOMP@Q?5?5c?5?$CD6BF36B?$AA@ 0055b9f0     main.obj
 0003:00005a00       ??_C@_0N@OBMPBNDO@?$CB?5?5c?5?$CD808680?$AA@ 0055ba00     main.obj
 0003:00005a10       ??_C@_0N@PIFJJGCE@?$HO?5?5c?5?$CD939693?$AA@ 0055ba10     main.obj
 0003:00005a20       ??_C@_0N@DNMMABGP@?$FO?5?5c?5?$CD959A95?$AA@ 0055ba20     main.obj
 0003:00005a30       ??_C@_0N@OCMMABM@?1?5?5c?5?$CD9A9E9A?$AA@ 0055ba30     main.obj
 0003:00005a40       ??_C@_0N@LJLHKGMC@?$CI?5?5c?5?$CD83BD83?$AA@ 0055ba40     main.obj
 0003:00005a50       ??_C@_0N@PHOBLPNJ@?$CJ?5?5c?5?$CD8EBA8E?$AA@ 0055ba50     main.obj
 0003:00005a60       ??_C@_0N@GGNKKHEP@_?5?5c?5?$CD9EA19E?$AA@ 0055ba60     main.obj
 0003:00005a70       ??_C@_0N@IPNFFHMP@?$GA?5?5c?5?$CD9DBD9D?$AA@ 0055ba70     main.obj
 0003:00005a80       ??_C@_0N@DNDBEOPB@?8?5?5c?5?$CDA0A4A0?$AA@ 0055ba80     main.obj
 0003:00005a90       ??_C@_0N@NKPGIOBN@?$FN?5?5c?5?$CDA5A8A5?$AA@ 0055ba90     main.obj
 0003:00005aa0       ??_C@_0N@IMIMDHA@?$FL?5?5c?5?$CDABABAB?$AA@ 0055baa0     main.obj
 0003:00005ab0       ??_C@_0N@HHLGDPAC@?$HL?5?5c?5?$CDB3B4B3?$AA@ 0055bab0     main.obj
 0003:00005ac0       ??_C@_0N@NHOBOOCJ@?$HN?5?5c?5?$CDBBBCBB?$AA@ 0055bac0     main.obj
 0003:00005ad0       ??_C@_0N@COAKEICD@?$HM?5?5c?5?$CD86C286?$AA@ 0055bad0     main.obj
 0003:00005ae0       ??_C@_0N@HIMHFLKK@?5?4?5c?5?$CD8CC48C?$AA@ 0055bae0     main.obj
 0003:00005af0       ??_C@_0N@FNPBOKDB@?4?4?5c?5?$CD8FC98F?$AA@ 0055baf0     main.obj
 0003:00005b00       ??_C@_0N@PBGACAON@X?4?5c?5?$CD94C594?$AA@ 0055bb00     main.obj
 0003:00005b10       ??_C@_0N@CPMGPFMA@o?4?5c?5?$CD93CB93?$AA@ 0055bb10     main.obj
 0003:00005b20       ??_C@_0N@LIKFMKAC@O?4?5c?5?$CD9CCB9C?$AA@ 0055bb20     main.obj
 0003:00005b30       ??_C@_0N@MCLLGKCB@?$CL?4?5c?5?$CD9AD19A?$AA@ 0055bb30     main.obj
 0003:00005b40       ??_C@_0N@PPFDCMPO@?$EA?4?5c?5?$CD84F184?$AA@ 0055bb40     main.obj
 0003:00005b50       ??_C@_0N@ECAHOEPC@?$CD?4?5c?5?$CDA4CEA4?$AA@ 0055bb50     main.obj
 0003:00005b60       ??_C@_0N@BJJGBJDE@$?4?5c?5?$CDA0D5A0?$AA@ 0055bb60     main.obj
 0003:00005b70       ??_C@_0N@KDGMBKPP@?$CF?4?5c?5?$CDA5D9A5?$AA@ 0055bb70     main.obj
 0003:00005b80       ??_C@_0N@LPPOCDHI@?$CG?4?5c?5?$CDABD2AB?$AA@ 0055bb80     main.obj
 0003:00005b90       ??_C@_0N@FLDHGFEF@?$CK?4?5c?5?$CDBFC2BF?$AA@ 0055bb90     main.obj
 0003:00005ba0       ??_C@_0N@HEOBHNKF@?$DN?4?5c?5?$CDB2D6B2?$AA@ 0055bba0     main.obj
 0003:00005bb0       ??_C@_0N@KFMOIDME@?9?4?5c?5?$CDBDDDBD?$AA@ 0055bbb0     main.obj
 0003:00005bc0       ??_C@_0N@OLJLJDPL@?$DL?4?5c?5?$CDC4C4C4?$AA@ 0055bbc0     main.obj
 0003:00005bd0       ??_C@_0N@GEPLOCPH@?3?4?5c?5?$CDCBCCCB?$AA@ 0055bbd0     main.obj
 0003:00005be0       ??_C@_0N@GIOKLMBD@?$DO?4?5c?5?$CDC0DEC0?$AA@ 0055bbe0     main.obj
 0003:00005bf0       ??_C@_0N@PMPCKIOF@?0?4?5c?5?$CDCFD1CF?$AA@ 0055bbf0     main.obj
 0003:00005c00       ??_C@_0N@LGGEMHMH@?$DM?4?5c?5?$CDD3D4D3?$AA@ 0055bc00     main.obj
 0003:00005c10       ??_C@_0N@EJEGMOCK@1?4?5c?5?$CDDBDBDB?$AA@ 0055bc10     main.obj
 0003:00005c20       ??_C@_0N@DOGIFNJL@2?4?5c?5?$CDC3E0C3?$AA@ 0055bc20     main.obj
 0003:00005c30       ??_C@_0N@JKMGIFJK@3?4?5c?5?$CDCBE4CB?$AA@ 0055bc30     main.obj
 0003:00005c40       ??_C@_0N@BBPFHABA@4?4?5c?5?$CDD2E7D2?$AA@ 0055bc40     main.obj
 0003:00005c50       ??_C@_0N@HOPIHINJ@5?4?5c?5?$CDD5E9D5?$AA@ 0055bc50     main.obj
 0003:00005c60       ??_C@_0N@KEHLLMPN@6?4?5c?5?$CDD9EBD9?$AA@ 0055bc60     main.obj
 0003:00005c70       ??_C@_0N@JJDMJGCI@7?4?5c?5?$CDE4E4E4?$AA@ 0055bc70     main.obj
 0003:00005c80       ??_C@_0N@DOPNAJHA@8?4?5c?5?$CDECECEC?$AA@ 0055bc80     main.obj
 0003:00005c90       ??_C@_0N@HOOPHMBN@9?4?5c?5?$CDE6F2E6?$AA@ 0055bc90     main.obj
 0003:00005ca0       ??_C@_0N@KKEIPLGB@0?4?5c?5?$CDEAF4EA?$AA@ 0055bca0     main.obj
 0003:00005cb0       ??_C@_0M@CENCKMBN@q?4?5c?5gray96?$AA@ 0055bcb0     main.obj
 0003:00005cc0       ??_C@_0N@NOBJGLNN@w?4?5c?5?$CDF5FAF5?$AA@ 0055bcc0     main.obj
 0003:00005cd0       ??_C@_0N@LDIIDEMC@e?4?5c?5?$CDFEFFFE?$AA@ 0055bcd0     main.obj
 0003:00005ce0       ??_C@_09DODLNCLA@r?4?5c?5None?$AA@ 0055bce0     main.obj
 0003:00005cf0       ??_C@_0EB@COENNDIL@r?4r?4r?4r?4r?4r?4?$EA?4Q?5W?5Q?5Q?5Q?5Q?5Q?5W?5Q?5@ 0055bcf0     main.obj
 0003:00005d40       ??_C@_0EB@LFLCBEO@r?4r?4r?4r?4r?4?$EA?4z?5f?5d?5p?5i?5y?5i?5d?5d?5y?5@ 0055bd40     main.obj
 0003:00005d90       ??_C@_0EB@OEILPLHE@r?4r?4r?4r?4?$EA?4l?5f?5?$DL?5?$CD?5?$CK?5?$CD?5?$CD?5?$CD?5?$CK?5?$CK?5?$CD?5@ 0055bd90     main.obj
 0003:00005de0       ??_C@_0EB@MGNENCIA@r?4r?4r?4?$EA?4k?5i?5?$DL?5?$CD?5X?5?$CD?5?$CK?5X?5?$CK?5?$CK?5?$CK?5?$CD?5@ 0055bde0     main.obj
 0003:00005e30       ??_C@_0EB@BKMGCNFB@r?4r?4?$EA?4g?5u?5?$CG?5?$CK?5?$CK?5?$CK?5?$CK?5?$CD?5X?5?$CK?5?$CD?5?$CK?5?$CK?5@ 0055be30     main.obj
 0003:00005e80       ??_C@_0EB@PABGKMMN@r?4?$EA?4g?5y?5$?5?$CK?5?$CK?5?$CD?5?$CK?5?$CK?5?$CD?5?$CD?5?$CK?5?$CD?5?$CD?5?$CK?5@ 0055be80     main.obj
 0003:00005ed0       ??_C@_0EB@IBGALIEB@?$EA?4f?5y?5?$EA?5X?5?$CK?5?$CD?5X?5X?5?$CK?5?$CK?5?$CD?5?$CK?5X?5X?5?$CK?5@ 0055bed0     main.obj
 0003:00005f20       ??_C@_0EB@LCNLNALC@W?5u?5?$EA?5X?5?$CD?5?$CK?5?$CD?5?$CD?5?$CD?5?$CK?5?$CD?5?$CK?5?$CK?5X?5X?5?$CD?5@ 0055bf20     main.obj
 0003:00005f70       ??_C@_0EB@BLFCLKHA@W?5y?5X?5X?5?$CD?5?$CK?5?$CK?5?$CK?5?$CD?5o?5X?5?$CK?5?$CD?5X?5X?5?$CD?5@ 0055bf70     main.obj
 0003:00005fc0       ??_C@_0EB@OLNIFBOI@W?5y?5X?5X?5X?5X?5X?5X?5X?5X?5X?5X?5X?5X?5X?5X?5@ 0055bfc0     main.obj
 0003:00006010       ??_C@_0EB@DMIPKEE@W?5y?52?5c?5?$DM?5X?5X?5X?5X?52?5c?5?0?5?$CD?5c?5c?5c?5@ 0055c010     main.obj
 0003:00006060       ??_C@_0EB@GIJMGBOG@W?5y?5?5?4e?4?9?4X?5X?5X?5X?54?4e?4M?54?5e?4e?4e?4@ 0055c060     main.obj
 0003:000060b0       ??_C@_0EB@EKPCBJDM@W?5y?5n?5e?4w?4X?5X?5X?5?$CK?5e?4e?4?$CK?5?$DM?5?$CG?4?$CG?4w?4@ 0055c0b0     main.obj
 0003:00006100       ??_C@_0EB@FGCOAKFL@W?5y?5?$CD?5e?4e?44?5X?5X?5n?5e?43?4X?5X?5X?5X?56?4@ 0055c100     main.obj
 0003:00006150       ??_C@_0EB@PNNDMIGC@W?5y?5X?53?4e?4S?5X?5X?5?$HM?5e?4?5?4X?5X?5X?5X?56?4@ 0055c150     main.obj
 0003:000061a0       ??_C@_0EB@CGGMKEFG@W?5y?5X?5?$CI?5e?4?$CG?4X?5X?52?4e?4n?5X?5X?5X?5X?56?4@ 0055c1a0     main.obj
 0003:000061f0       ??_C@_0EB@PDOPCAF@W?5y?5X?5c?5e?49?4X?5?$CD?5w?4e?4o?5X?5X?5X?5X?56?4@ 0055c1f0     main.obj
 0003:00006240       ??_C@_0EB@EJHLAJHI@Y?5y?5X?5?$CD?5e?4e?4?0?54?5e?43?4X?5X?5X?5X?5X?56?4@ 0055c240     main.obj
 0003:00006290       ??_C@_0EB@CONKCFCA@Y?5y?5X?5X?52?4e?4B?5G?5e?4?$CJ?5X?5X?5X?5X?5X?56?4@ 0055c290     main.obj
 0003:000062e0       ??_C@_0EB@LLNPPLAJ@Y?5y?5X?5X?5?$CI?5e?4O?4?$DN?4e?4n?5X?5X?5X?5X?5X?56?4@ 0055c2e0     main.obj
 0003:00006330       ??_C@_0EB@BLICNOIF@I?5y?5X?5X?5c?5e?44?40?4w?4?$CD?5X?5X?5X?5X?5X?56?4@ 0055c330     main.obj
 0003:00006380       ??_C@_0EB@BNFNPDGA@I?5y?5X?5X?5?$CD?5w?4e?4e?42?4X?5X?5X?5?$DN?5A?5S?59?4@ 0055c380     main.obj
 0003:000063d0       ??_C@_0EB@BLLCANMM@P?5y?5X?5X?5X?5?9?4e?4e?4?$CI?5o?5o?5o?5c?5e?4e?4e?4@ 0055c3d0     main.obj
 0003:00006420       ??_C@_0EB@DBACPEDF@L?5y?5X?5X?5X?5M?5O?4O?45?5O?5?$CK?5?$DN?55?5?$CD?4?$CG?4?$CG?4@ 0055c420     main.obj
 0003:00006470       ??_C@_0EB@CLMBAKFF@L?5y?5X?5X?5o?5o?5O?5O?5O?5?0?5?0?5?0?53?53?54?5x?5@ 0055c470     main.obj
 0003:000064c0       ??_C@_0EB@KLJHCIPD@K?5y?5?4?5o?5O?5O?5O?5?0?5?0?51?53?5x?5?$FO?5?1?5V?5v?5@ 0055c4c0     main.obj
 0003:00006510       ??_C@_0EB@IMCOAOAE@J?5y?5?$CD?5O?5O?5?0?5?0?51?53?53?55?5b?5?$DL?4?$DM?4C?5N?5@ 0055c510     main.obj
 0003:00006560       ??_C@_0EB@MMNIHDAD@J?5a?5C?5?$HO?5?$FO?5?$FO?5?$FO?5?1?5?1?5?1?5?8?5?$FN?5?0?41?4?$HL?5?$HL?5@ 0055c560     main.obj
 0003:000065b0       ??_C@_0EB@DIIHKCFG@H?5a?5?$FL?5?$DL?4?3?4?3?4?3?4?3?4?3?4?$DM?4?$DM?41?41?41?47?47?4@ 0055c5b0     main.obj
 0003:00006600       ??_C@_0EB@MANIFFLJ@H?5a?5?$HO?5?$FL?5?$FL?5?$HL?5?$HL?5?$HL?5?$HL?5?$HN?5?$HN?5?$HN?5?$DL?4?$DL?4?$DL?4?3?4@ 0055c600     main.obj
 0003:00006650       ??_C@_0EB@JANPGIJA@h?5u?5a?5a?5a?5a?5a?5s?5s?5s?5s?5s?5s?5s?5s?5s?5@ 0055c650     main.obj
 0003:000066a0       ??_C@_0EB@DAGHONFP@m?50?50?50?58?58?58?57?57?57?5?$DM?5?9?5?9?5?9?5?$CG?5?$CF?5@ 0055c6a0     main.obj
 0003:000066f0       ??_C@_0CN@FPMLFBOO@Your?5CC_ROOT?5environment?5variabl@ 0055c6f0     main.obj
 0003:00006728       ??_C@_05NAOIJFC@Error?$AA@ 0055c728     main.obj
 0003:00006730       ??_C@_0CP@FFIAPLAI@Your?5CC_SYSTEM?5environment?5varia@ 0055c730     main.obj
 0003:00006768       ??_C@_0BD@JPEMACIP@bncs_vis_ed?3?5?$CF1?2?$CF2?$AA@ 0055c768     main.obj
 0003:00006780       ??_C@_0BM@FIMNMBPI@already?5running?5?9?5giving?5up?$AA@ 0055c780     main.obj
 0003:000067a4       ??_C@_0BI@CEGGLPFI@?2windows?2lib?2qt_plugins?$AA@ 0055c7a4     main.obj
 0003:000067c0       ??_C@_0L@PNGJMLF@bncs_style?$AA@ 0055c7c0     main.obj
 0003:000067d0       ??_C@_07NILBBMKH@?2panels?$AA@ 0055c7d0     main.obj
 0003:000067dc       ??_C@_0BN@BFIKNAGJ@?2panels?$DM?1b?$DO?$DM?1blockquote?$DO?$DM?1p?$DO?$AA@ 0055c7dc     main.obj
 0003:00006800       ??_C@_0GF@LGANOLJM@?$DMp?$DOYour?5panel?5applications?5?$CIfile@ 0055c800     main.obj
 0003:00006880       ??_C@_0IA@IEOGCNMN@?$DM?1b?$DO?$DM?1blockquote?$DO?$DM?1p?$DO?$DMp?$DOIf?5you?5n@ 0055c880     main.obj
 0003:0000691c       ??_C@_0DA@CHDANPIJ@?$DMp?$DOYour?5current?5system?5is?$DM?1p?$DO?$DMp?$DO@ 0055c91c     main.obj
 0003:00006958       ??_C@_0CB@PJOCKGG@BNCS?5Visual?5Editor?5?9?5Information@ 0055c958     main.obj
 0003:00006980       ??_C@_0CM@CGNNKEII@1singletonMessageReceived?$CI?5const@ 0055c980     main.obj
 0003:000069b4       ??_C@_0CD@MMNICAAE@2messageReceived?$CI?5const?5QString?$CG@ 0055c9b4     main.obj
 0003:000069e4       ??_7manualSettings@@6BQObject@@@ 0055c9e4     manualsettingsimpl.obj
 0003:00006c04       ??_7manualSettings@@6BQPaintDevice@@@ 0055cc04     manualsettingsimpl.obj
 0003:00006c2c       ??_C@_0P@MIKCCCLL@manualSettings?$AA@ 0055cc2c     manualsettingsimpl.obj
 0003:00006c44       ??_7objectView@@6BQObject@@@ 0055cc44     objectviewimpl.obj
 0003:00006e64       ??_7objectView@@6BQPaintDevice@@@ 0055ce64     objectviewimpl.obj
 0003:00006e90       ??_SQListBoxText@@6B@      0055ce90     objectviewimpl.obj
 0003:00006eb8       ??_C@_0CD@COLCDDAL@1itemHighlighted?$CI?5QListBoxItem?5?$CK@ 0055ceb8     objectviewimpl.obj
 0003:00006ee4       ??_C@_0BP@HMBPLDBK@2highlighted?$CI?5QListBoxItem?5?$CK?5?$CJ?$AA@ 0055cee4     objectviewimpl.obj
 0003:00006f0c       ??_C@_0CF@OBCFOANG@1itemDoubleClicked?$CI?5QListBoxItem@ 0055cf0c     objectviewimpl.obj
 0003:00006f38       ??_C@_0CB@FPEEBCEL@2doubleClicked?$CI?5QListBoxItem?5?$CK?5?$CJ@ 0055cf38     objectviewimpl.obj
 0003:00006f60       ??_C@_0N@EMHCEFGN@Enter?5new?5ID?$AA@ 0055cf60     objectviewimpl.obj
 0003:00006f70       ??_C@_0P@JOGKEPIO@New?5Control?5ID?$AA@ 0055cf70     objectviewimpl.obj
 0003:00006f88       ??_7?$QIntDict@VQValidator@@@@6B@ 0055cf88     pasteTable.obj
 0003:00006fb0       ??_7pasteTable@@6BQObject@@@ 0055cfb0     pasteTable.obj
 0003:00007410       ??_7pasteTable@@6BQPaintDevice@@@ 0055d410     pasteTable.obj
 0003:00007438       ??_C@_0BI@BMDADFGN@1clipboardDataChanged?$CI?$CJ?$AA@ 0055d438     pasteTable.obj
 0003:00007454       ??_C@_0P@GLIODLHI@2dataChanged?$CI?$CJ?$AA@ 0055d454     pasteTable.obj
 0003:00007468       ??_C@_0EG@KCCLCCE@You?5can?8t?5paste?5without?5a?5starti@ 0055d468     pasteTable.obj
 0003:000074bc       ??_C@_0BA@GNELJDPH@Clipboard?5Paste?$AA@ 0055d4bc     pasteTable.obj
 0003:000074d0       ??_C@_0GG@LDGHDPNB@You?5can?5only?5paste?5into?5table?5wi@ 0055d4d0     pasteTable.obj
 0003:0000754c       ??_C@_05CGDPOPDB@plain?$AA@ 0055d54c     pasteTable.obj
 0003:00007558       ??_C@_0FK@ONLGDGGK@Trying?5to?5paste?5data?5?$CI?$CF1?5rows?0?5?$CF@ 0055d558     pasteTable.obj
 0003:000075c8       ??_C@_0KK@KNOOJCDO@There?5are?5not?5enough?5columns?5in?5@ 0055d5c8     pasteTable.obj
 0003:00007698       ??_C@_0HP@BBFGPNPA@There?5are?5not?5enough?5rows?5in?5thi@ 0055d698     pasteTable.obj
 0003:00007730       ??_C@_0KD@OPHEMJNK@This?5control?5can?5not?5support?5mul@ 0055d730     pasteTable.obj
 0003:000077f4       ??_C@_0P@NLNINDLH@Clipboard?5Copy?$AA@ 0055d7f4     pasteTable.obj
 0003:00007808       ??_C@_01GBGANLPD@0?$AA@    0055d808     pasteTable.obj
 0003:0000780c       ??_C@_0L@HEAELAEK@40?525?529?51?$AA@ 0055d80c     pickbox.obj
 0003:0000781c       ??_C@_0M@HBFONIAP@p?5c?5?$CD242424?$AA@ 0055d81c     pickbox.obj
 0003:0000782c       ??_C@_0M@FDPLGMBN@y?5c?5?$CD272727?$AA@ 0055d82c     pickbox.obj
 0003:0000783c       ??_C@_0M@OLKKELEB@u?5c?5?$CD505050?$AA@ 0055d83c     pickbox.obj
 0003:0000784c       ??_C@_0M@EOAJNMAP@j?5c?5?$CD5c5c5b?$AA@ 0055d84c     pickbox.obj
 0003:0000785c       ??_C@_0M@NILOOMKP@z?5c?5?$CD75736f?$AA@ 0055d85c     pickbox.obj
 0003:0000786c       ??_C@_0M@CLNEHLNM@v?5c?5?$CD767470?$AA@ 0055d86c     pickbox.obj
 0003:0000787c       ??_C@_0M@DAMDJBFB@k?5c?5?$CD8b8883?$AA@ 0055d87c     pickbox.obj
 0003:0000788c       ??_C@_0M@LPPBBOHO@x?5c?5?$CD93928f?$AA@ 0055d88c     pickbox.obj
 0003:0000789c       ??_C@_0M@PCMKBAKP@d?5c?5?$CDa09d99?$AA@ 0055d89c     pickbox.obj
 0003:000078ac       ??_C@_0M@OAINAFGH@t?5c?5?$CDa8a8a8?$AA@ 0055d8ac     pickbox.obj
 0003:000078bc       ??_C@_0M@PHPMMJBE@o?5c?5?$CDa9a9a9?$AA@ 0055d8bc     pickbox.obj
 0003:000078cc       ??_C@_0M@GCOIBDOC@s?5c?5?$CDaaaaaa?$AA@ 0055d8cc     pickbox.obj
 0003:000078dc       ??_C@_0M@JLINMNLE@A?5c?5?$CDb5b1ab?$AA@ 0055d8dc     pickbox.obj
 0003:000078ec       ??_C@_0M@CIJJIJCN@i?5c?5?$CDb7b7b7?$AA@ 0055d8ec     pickbox.obj
 0003:000078fc       ??_C@_0M@JEHLGFH@n?5c?5?$CDc0c0c0?$AA@ 0055d8fc     pickbox.obj
 0003:0000790c       ??_C@_0M@JGOFADPC@h?5c?5?$CDc4c4c4?$AA@ 0055d90c     pickbox.obj
 0003:0000791c       ??_C@_0M@NPCFMGO@r?5c?5?$CDcdcdcd?$AA@ 0055d91c     pickbox.obj
 0003:0000792c       ??_C@_0M@PDLCEDAD@g?5c?5?$CDcecece?$AA@ 0055d92c     pickbox.obj
 0003:0000793c       ??_C@_0M@BNOLCLCH@?4?5c?5?$CDd4d0c8?$AA@ 0055d93c     pickbox.obj
 0003:0000794c       ??_C@_0M@NAKCLHEE@e?5c?5?$CDd6d2ca?$AA@ 0055d94c     pickbox.obj
 0003:0000795c       ??_C@_0M@BLKMJHOE@w?5c?5?$CDd6d2cb?$AA@ 0055d95c     pickbox.obj
 0003:0000796c       ??_C@_0M@ONCPLADG@m?5c?5?$CDd8d8d8?$AA@ 0055d96c     pickbox.obj
 0003:0000797c       ??_C@_0M@GOOFOGKJ@c?5c?5?$CDd9d9d9?$AA@ 0055d97c     pickbox.obj
 0003:0000798c       ??_C@_0M@HIBKPBNE@?$CD?5c?5?$CDe0ddd7?$AA@ 0055d98c     pickbox.obj
 0003:0000799c       ??_C@_0M@ODOMOMBK@l?5c?5?$CDe4e2dd?$AA@ 0055d99c     pickbox.obj
 0003:000079ac       ??_C@_0M@PENLGODK@q?5c?5?$CDe6e4e2?$AA@ 0055d9ac     pickbox.obj
 0003:000079bc       ??_C@_0M@FEGBAIDK@a?5c?5?$CDe9e7e5?$AA@ 0055d9bc     pickbox.obj
 0003:000079cc       ??_C@_0M@BHFEMKIB@f?5c?5?$CDececea?$AA@ 0055d9cc     pickbox.obj
 0003:000079dc       ??_C@_0M@OJPHANLK@b?5c?5?$CDededed?$AA@ 0055d9dc     pickbox.obj
 0003:000079ec       ??_C@_0CJ@NEBNBBOL@?4?$CDabbbbbbbbbbbbbbbbbbbbbbbbbbbbb@ 0055d9ec     pickbox.obj
 0003:00007a20       ??_C@_0CJ@MHKHBFA@efghhhhhhhhhhhhhhhhhhhhhhhhhhhhh@ 0055da20     pickbox.obj
 0003:00007a54       ??_C@_0CJ@OELDMMKF@lmnnnnnnnnnnnnnnnnnnnnnnnnnnnnnn@ 0055da54     pickbox.obj
 0003:00007a88       ??_C@_0CJ@LCKOPGAO@eqrstttttttttttttttttttttttttttt@ 0055da88     pickbox.obj
 0003:00007abc       ??_C@_0CJ@DFAMCGMI@?4wxypppppppppppppppppppppppppppp@ 0055dabc     pickbox.obj
 0003:00007af4       ??_SQTabWidget@@6BQObject@@@ 0055daf4     pickbox.obj
 0003:00007d28       ??_SQTabWidget@@6BQPaintDevice@@@ 0055dd28     pickbox.obj
 0003:00007d54       ??_7pickbox@@6BQObject@@@  0055dd54     pickbox.obj
 0003:00007fa0       ??_7pickbox@@6BQPaintDevice@@@ 0055dfa0     pickbox.obj
 0003:00007fc8       ??_C@_07LDOFMEBH@By?5Name?$AA@ 0055dfc8     pickbox.obj
 0003:00007fd4       ??_C@_07NJJEDOBB@Details?$AA@ 0055dfd4     pickbox.obj
 0003:00007fe0       ??_C@_02EGCJHIOB@id?$AA@   0055dfe0     pickbox.obj
 0003:00007fe4       ??_C@_03GCDGINBO@ref?$AA@  0055dfe4     pickbox.obj
 0003:00007fe8       ??_C@_0O@BMBALJAJ@instances?4xml?$AA@ 0055dfe8     pickbox.obj
 0003:00007ff8       ??_C@_0CL@LJMCDDKA@1byNameSelectionChanged?$CI?5QListVi@ 0055dff8     pickbox.obj
 0003:0000802c       ??_C@_0CF@LFIPBHPN@2selectionChanged?$CI?5QListViewItem@ 0055e02c     pickbox.obj
 0003:00008058       ??_C@_0BM@LNFFBMAG@2clicked?$CI?5QListViewItem?5?$CK?5?$CJ?$AA@ 0055e058     pickbox.obj
 0003:0000807c       ??_C@_07BIOGAEGH@By?5Type?$AA@ 0055e07c     pickbox.obj
 0003:00008088       ??_C@_09EPHCDANL@Type?1Name?$AA@ 0055e088     pickbox.obj
 0003:00008094       ??_C@_0CL@EMCIGCKB@1byTypeSelectionChanged?$CI?5QListVi@ 0055e094     pickbox.obj
 0003:000080c8       ??_C@_07PGMKDIBI@Buttons?$AA@ 0055e0c8     pickbox.obj
 0003:000080d4       ??_C@_08HNILJOLJ@1clear?$CI?$CJ?$AA@ 0055e0d4     pickbox.obj
 0003:000080e0       ??_C@_0BO@EGMCNIDA@2currentChanged?5?$CI?5QWidget?5?$CK?5?$CJ?$AA@ 0055e0e0     pickbox.obj
 0003:00008108       ??_7?$QValueListPrivate@Vstyleentry@@@@6B@ 0055e108     pickbox.obj
 0003:00008114       ??_7?$QValueListNode@Vstyleentry@@@@6B@ 0055e114     pickbox.obj
 0003:00008120       ??_7pickbox_buttonlist@@6BQObject@@@ 0055e120     pickbox_buttonlist.obj
 0003:000084b0       ??_7pickbox_buttonlist@@6BQPaintDevice@@@ 0055e4b0     pickbox_buttonlist.obj
 0003:000084d8       ??_C@_0M@JLBCBNID@buttons?4xml?$AA@ 0055e4d8     pickbox_buttonlist.obj
 0003:000084e8       ??_C@_0P@BPBNIFGN@?2config?2vised?2?$AA@ 0055e4e8     pickbox_buttonlist.obj
 0003:000084fc       ??_C@_01CLKCMJKC@?5?$AA@   0055e4fc     pickbox_buttonlist.obj
 0003:00008504       ??_SQLabel@@6BQObject@@@   0055e504     pickbox_paramlist.obj
 0003:00008760       ??_SQLabel@@6BQPaintDevice@@@ 0055e760     pickbox_paramlist.obj
 0003:0000878c       ??_SQCheckBox@@6BQObject@@@ 0055e78c     pickbox_paramlist.obj
 0003:000089cc       ??_SQCheckBox@@6BQPaintDevice@@@ 0055e9cc     pickbox_paramlist.obj
 0003:000089f8       ??_7pickbox_paramlist@@6BQObject@@@ 0055e9f8     pickbox_paramlist.obj
 0003:00008c04       ??_7pickbox_paramlist@@6BQPaintDevice@@@ 0055ec04     pickbox_paramlist.obj
 0003:00008c2c       ??_C@_0BA@GJFFACPM@Drop?5with?5label?$AA@ 0055ec2c     pickbox_paramlist.obj
 0003:00008c40       ??_C@_0BD@CEPGKALB@Show?5Only?5Slot?5?$DO?50?$AA@ 0055ec40     pickbox_paramlist.obj
 0003:00008c58       ??_C@_0M@INDOKIA@BNCS_VIS_ED?$AA@ 0055ec58     pickbox_paramlist.obj
 0003:00008c68       ??_C@_04IDGPBBML@BNCS?$AA@ 0055ec68     pickbox_paramlist.obj
 0003:00008c70       ??_C@_0BL@HNCHLBEK@?1preferences?1dropwithlabel?$AA@ 0055ec70     pickbox_paramlist.obj
 0003:00008c90       ??_C@_0BN@IEHMNMMC@1startDrag?$CI?5QListViewItem?5?$CK?$CJ?$AA@ 0055ec90     pickbox_paramlist.obj
 0003:00008cb4       ??_C@_0BN@CBHELHKO@2startDrag?$CI?5QListViewItem?5?$CK?$CJ?$AA@ 0055ecb4     pickbox_paramlist.obj
 0003:00008cd8       ??_C@_0BE@EKHAKFCC@1withLabelClicked?$CI?$CJ?$AA@ 0055ecd8     pickbox_paramlist.obj
 0003:00008cf0       ??_C@_0BG@PBHEDHKN@1withSlotSetClicked?$CI?$CJ?$AA@ 0055ecf0     pickbox_paramlist.obj
 0003:00008d0c       ??_C@_06NAHGBCDG@Type?3?5?$AA@ 0055ed0c     pickbox_paramlist.obj
 0003:00008d14       ??_C@_0L@GGEKFKPD@Instance?3?5?$AA@ 0055ed14     pickbox_paramlist.obj
 0003:00008d24       ??_C@_0BF@LNCFPELE@?2config?2devicetypes?2?$AA@ 0055ed24     pickbox_paramlist.obj
 0003:00008d40       ??_C@_0N@MJCJDNIH@devicetypes?2?$AA@ 0055ed40     pickbox_paramlist.obj
 0003:00008d50       ??_C@_05LAPONLG@false?$AA@ 0055ed50     pickbox_paramlist.obj
 0003:00008d58       ??_C@_0BM@NBJBCONB@withSlotSet?9?$DOisChecked?$CI?$CJ?5?$CFd?$AA@ 0055ed58     pickbox_paramlist.obj
 0003:00008d80       ??_7preferences@@6B@       0055ed80     preferences.obj
 0003:00008d88       ??_C@_09DBJPMILA@VisEd?4ini?$AA@ 0055ed88     preferences.obj
 0003:00008d94       ??_C@_05OICEOHA@VisEd?$AA@ 0055ed94     preferences.obj
 0003:00008d9c       ??_C@_02PIGFKFFE@?$CF1?$AA@ 0055ed9c     preferences.obj
 0003:00008da4       ??_7project@@6BQObject@@@  0055eda4     project.obj
 0003:0000911c       ??_7project@@6BQPaintDevice@@@ 0055f11c     project.obj
 0003:00009144       ??_C@_05CJBACGMB@hello?$AA@ 0055f144     project.obj
 0003:0000914c       ??_C@_05DIOAMJFE@Files?$AA@ 0055f14c     project.obj
 0003:00009154       ??_C@_0BA@LIGGCBEH@couldn?8t?5add?5li?$AA@ 0055f154     project.obj
 0003:00009168       ??_C@_0L@FGHGKOBO@More?5Files?$AA@ 0055f168     project.obj
 0003:0000917c       ??_7project_dlg@@6BQObject@@@ 0055f17c     project_dlg.obj
 0003:000093f8       ??_7project_dlg@@6BQPaintDevice@@@ 0055f3f8     project_dlg.obj
 0003:00009424       ??_7recentlyusedlist@@6B@  0055f424     recentlyusedlist.obj
 0003:0000942c       ??_C@_05CHFPAJG@?1BNCS?$AA@ 0055f42c     recentlyusedlist.obj
 0003:00009434       ??_C@_07BKEKFAHJ@?1File?$CF1?$AA@ 0055f434     recentlyusedlist.obj
 0003:00009444       ??_7signalConnectionListDlgImpl@@6BQObject@@@ 0055f444     signalConnectionListDlgimpl.obj
 0003:00009664       ??_7signalConnectionListDlgImpl@@6BQPaintDevice@@@ 0055f664     signalConnectionListDlgimpl.obj
 0003:00009690       ??_7mustHaveACommentValidator@@6B@ 0055f690     signalConnectionListDlgimpl.obj
 0003:000096fc       ??_C@_0DA@HOCHILPG@?$CK?$CK?5NEW?5CONNECTION?$CB?5?$CK?$CK?5PLEASE?5GIV@ 0055f6fc     signalConnectionListDlgimpl.obj
 0003:0000973c       ??_7mustHaveAnEqualsValidator@@6B@ 0055f73c     signalConnectionListDlgimpl.obj
 0003:000097a8       ??_C@_01NEMOKFLO@?$DN?$AA@ 0055f7a8     signalConnectionListDlgimpl.obj
 0003:000097b0       ??_7commandValidator@@6B@  0055f7b0     signalConnectionListDlgimpl.obj
 0003:0000981c       ??_C@_01NBENCBCI@?$CK?$AA@ 0055f81c     signalConnectionListDlgimpl.obj
 0003:00009820       ??_C@_06FKFLGELG@?$FLshow?$FN?$AA@ 0055f820     signalConnectionListDlgimpl.obj
 0003:00009828       ??_C@_06MGIJEPEB@?$FLhide?$FN?$AA@ 0055f828     signalConnectionListDlgimpl.obj
 0003:00009830       ??_C@_09FOIJNBAD@?$FLdisable?$FN?$AA@ 0055f830     signalConnectionListDlgimpl.obj
 0003:0000983c       ??_C@_08LKNADHCG@?$FLenable?$FN?$AA@ 0055f83c     signalConnectionListDlgimpl.obj
 0003:00009848       ??_C@_07JPKLBGNI@?$FLvalue?$FN?$AA@ 0055f848     signalConnectionListDlgimpl.obj
 0003:00009854       ??_C@_09FAMPEKMJ@?$FLcommand?$FN?$AA@ 0055f854     signalConnectionListDlgimpl.obj
 0003:00009860       ??_C@_04HAPLAOFE@?$FLid?$FN?$AA@ 0055f860     signalConnectionListDlgimpl.obj
 0003:00009868       ??_C@_0L@LJOLEPOD@?2?$FLid?2?4?4?$CL?2?$FN?$AA@ 0055f868     signalConnectionListDlgimpl.obj
 0003:00009878       ??_C@_0P@BKIJKLPO@?2?$FL?2?$CC?4?$CL?2?$CC?2?4?4?$CL?2?$FN?$AA@ 0055f878     signalConnectionListDlgimpl.obj
 0003:0000988c       ??_C@_07LEPGBGHJ@?$FLintid?$FN?$AA@ 0055f88c     signalConnectionListDlgimpl.obj
 0003:00009898       ??_C@_07EKFMEOFN@?$FLsub?$CF1?$FN?$AA@ 0055f898     signalConnectionListDlgimpl.obj
 0003:000098a4       ??_C@_01OHGJGJJP@?$FL?$AA@ 0055f8a4     signalConnectionListDlgimpl.obj
 0003:000098a8       ??_C@_01LBDDMOBJ@?$FN?$AA@ 0055f8a8     signalConnectionListDlgimpl.obj
 0003:000098b4       ??_SQComboTableItem@@6B@   0055f8b4     signalConnectionListDlgimpl.obj
 0003:00009920       ??_C@_06OJMEPGIF@Sender?$AA@ 0055f920     signalConnectionListDlgimpl.obj
 0003:00009928       ??_C@_08LGFNBMCM@Receiver?$AA@ 0055f928     signalConnectionListDlgimpl.obj
 0003:00009934       ??_C@_05GCNIINAF@Event?$AA@ 0055f934     signalConnectionListDlgimpl.obj
 0003:0000993c       ??_C@_07FFLLKOAD@Command?$AA@ 0055f93c     signalConnectionListDlgimpl.obj
 0003:00009948       ??_C@_05MOFOMBOJ@Notes?$AA@ 0055f948     signalConnectionListDlgimpl.obj
 0003:00009950       ??_C@_0CO@JADNBIMC@1tableClicked?$CI?5int?0?5int?0?5int?0con@ 0055f950     signalConnectionListDlgimpl.obj
 0003:00009988       ??_C@_0CJ@CCCCLHLH@2clicked?$CI?5int?0?5int?0?5int?0const?5QP@ 0055f988     signalConnectionListDlgimpl.obj
 0003:000099bc       ??_C@_0BP@JLONLMNM@1tableValueChanged?$CI?5int?0?5int?5?$CJ?$AA@ 0055f9bc     signalConnectionListDlgimpl.obj
 0003:000099e4       ??_C@_0BK@OCHKEFCC@2valueChanged?$CI?5int?0?5int?5?$CJ?$AA@ 0055f9e4     signalConnectionListDlgimpl.obj
 0003:00009a04       ??_C@_0M@NDAELMJH@1doMoveUp?$CI?$CJ?$AA@ 0055fa04     signalConnectionListDlgimpl.obj
 0003:00009a14       ??_C@_0O@BGGKHGH@1doMoveDown?$CI?$CJ?$AA@ 0055fa14     signalConnectionListDlgimpl.obj
 0003:00009a24       ??_C@_08MPBANNMC@1doDel?$CI?$CJ?$AA@ 0055fa24     signalConnectionListDlgimpl.obj
 0003:00009a30       ??_C@_0M@PCAFJIPJ@1doImport?$CI?$CJ?$AA@ 0055fa30     signalConnectionListDlgimpl.obj
 0003:00009a40       ??_C@_0EL@KJOAEKBL@Each?5line?5must?5have?5sender?0?5rece@ 0055fa40     signalConnectionListDlgimpl.obj
 0003:00009a9c       ??_C@_04DNLAJOEF@Doh?$CB?$AA@ 0055fa9c     signalConnectionListDlgimpl.obj
 0003:00009aa4       ??_C@_03FCOMNFFC@?$CK?$DN?$CK?$AA@ 0055faa4     signalConnectionListDlgimpl.obj
 0003:00009aa8       ??_C@_0M@EAJPACGF@connections?$AA@ 0055faa8     signalConnectionListDlgimpl.obj
 0003:00009ab8       ??_C@_03BAFJLPLB@?$DM?$CK?$DO?$AA@ 0055fab8     signalConnectionListDlgimpl.obj
 0003:00009abc       ??_C@_07MPOPNONG@_events?$AA@ 0055fabc     signalConnectionListDlgimpl.obj
 0003:00009ac8       ??_C@_09FCCDODJP@_commands?$AA@ 0055fac8     signalConnectionListDlgimpl.obj
 0003:00009ad4       ??_C@_0CM@LHFPDOLL@BNCS_UI?5to?5take?5connection?5infor@ 0055fad4     signalConnectionListDlgimpl.obj
 0003:00009b08       ??_C@_1EI@FHEHNNNM@?$AAm?$AAa?$AAp?$AA?1?$AAs?$AAe?$AAt?$AA?5?$AAi?$AAt?$AAe?$AAr?$AAa?$AAt?$AAo?$AAr?$AA?5?$AAn?$AAo?$AAt?$AA?5?$AAd?$AAe?$AAr?$AAe?$AAf?$AAe?$AAr?$AAe?$AAn?$AAc?$AAa@ 0055fb08     signalConnectionListDlgimpl.obj
 0003:00009b60       ??_C@_1NK@KPJCDALK@?$AAs?$AAt?$AAd?$AA?3?$AA?3?$AA_?$AAT?$AAr?$AAe?$AAe?$AA_?$AAc?$AAo?$AAn?$AAs?$AAt?$AA_?$AAi?$AAt?$AAe?$AAr?$AAa?$AAt?$AAo?$AAr?$AA?$DM?$AAc?$AAl?$AAa?$AAs?$AAs?$AA?5@ 0055fb60     signalConnectionListDlgimpl.obj
 0003:00009c68       ??_C@_1NM@IEJMCCJG@?$AAs?$AAt?$AAd?$AA?3?$AA?3?$AA_?$AAT?$AAr?$AAe?$AAe?$AA_?$AAc?$AAo?$AAn?$AAs?$AAt?$AA_?$AAi?$AAt?$AAe?$AAr?$AAa?$AAt?$AAo?$AAr?$AA?$DM?$AAc?$AAl?$AAa?$AAs?$AAs?$AA?5@ 0055fc68     signalConnectionListDlgimpl.obj
 0003:00009d70       ??_C@_1NM@CEGBMLFD@?$AAs?$AAt?$AAd?$AA?3?$AA?3?$AA_?$AAT?$AAr?$AAe?$AAe?$AA_?$AAc?$AAo?$AAn?$AAs?$AAt?$AA_?$AAi?$AAt?$AAe?$AAr?$AAa?$AAt?$AAo?$AAr?$AA?$DM?$AAc?$AAl?$AAa?$AAs?$AAs?$AA?5@ 0055fd70     signalConnectionListDlgimpl.obj
 0003:00009e78       ??_C@_1NM@HHKOJOFH@?$AAs?$AAt?$AAd?$AA?3?$AA?3?$AA_?$AAT?$AAr?$AAe?$AAe?$AA_?$AAc?$AAo?$AAn?$AAs?$AAt?$AA_?$AAi?$AAt?$AAe?$AAr?$AAa?$AAt?$AAo?$AAr?$AA?$DM?$AAc?$AAl?$AAa?$AAs?$AAs?$AA?5@ 0055fe78     signalConnectionListDlgimpl.obj
 0003:00009f80       __real@3ff0000000000000    0055ff80     signalConnectionListDlgimpl.obj
 0003:00009f90       ??_7sizePosEdit@@6BQObject@@@ 0055ff90     sizeposeditimpl.obj
 0003:0000a1b0       ??_7sizePosEdit@@6BQPaintDevice@@@ 005601b0     sizeposeditimpl.obj
 0003:0000a1d8       ??_C@_0BD@OKEJJICI@manualSizePosition?$AA@ 005601d8     sizeposeditimpl.obj
 0003:0000a1f4       ??_7testSettingsBase@@6BQObject@@@ 005601f4     testsettings.obj
 0003:0000a414       ??_7testSettingsBase@@6BQPaintDevice@@@ 00560414     testsettings.obj
 0003:0000a444       ??_SQComboBox@@6BQObject@@@ 00560444     testsettings.obj
 0003:0000a688       ??_SQComboBox@@6BQPaintDevice@@@ 00560688     testsettings.obj
 0003:0000a6b4       ??_SQLineEdit@@6BQObject@@@ 005606b4     testsettings.obj
 0003:0000a94c       ??_SQLineEdit@@6BQPaintDevice@@@ 0056094c     testsettings.obj
 0003:0000a974       ??_C@_0BB@CKCMCFAG@testSettingsBase?$AA@ 00560974     testsettings.obj
 0003:0000a988       ??_C@_0BH@MOKLCAIJ@testSettingsBaseLayout?$AA@ 00560988     testsettings.obj
 0003:0000a9a4       ??_C@_0N@HPEGIJEE@textLabel1_2?$AA@ 005609a4     testsettings.obj
 0003:0000a9b4       ??_C@_0N@FKBDAGMD@panelmanSize?$AA@ 005609b4     testsettings.obj
 0003:0000a9c4       ??_C@_09GNOEOAOJ@layout3_2?$AA@ 005609c4     testsettings.obj
 0003:0000a9d0       ??_C@_0L@KGLFILOJ@textLabel1?$AA@ 005609d0     testsettings.obj
 0003:0000a9e0       ??_C@_0N@HFIGBDIF@testInstance?$AA@ 005609e0     testsettings.obj
 0003:0000a9f0       ??_C@_09CDKMAFKD@checkShow?$AA@ 005609f0     testsettings.obj
 0003:0000a9fc       ??_C@_07DHCFJLGA@Layout1?$AA@ 005609fc     testsettings.obj
 0003:0000aa08       ??_C@_0O@MFMNAEJ@Test?5Settings?$AA@ 00560a08     testsettings.obj
 0003:0000aa18       ??_C@_0O@OECIKEEC@Panelman?5Size?$AA@ 00560a18     testsettings.obj
 0003:0000aa28       ??_C@_04MJHCKDHM@1024?$AA@ 00560a28     testsettings.obj
 0003:0000aa30       ??_C@_04KIACLCF@1280?$AA@  00560a30     testsettings.obj
 0003:0000aa38       ??_C@_04OOPIMGMM@1366?$AA@ 00560a38     testsettings.obj
 0003:0000aa40       ??_C@_04ILPBONMK@1600?$AA@ 00560a40     testsettings.obj
 0003:0000aa48       ??_C@_04NABGCJPC@1920?$AA@ 00560a48     testsettings.obj
 0003:0000aa50       ??_C@_04CGOKOKBC@2048?$AA@ 00560a50     testsettings.obj
 0003:0000aa58       ??_C@_0BO@OFELMCOE@Instance?5?$CIfor?5this?5test?5only?$CJ?$AA@ 00560a58     testsettings.obj
 0003:0000aa80       ??_C@_0EE@EIMNGIKK@Show?5this?5dialog?5every?5time?5?$CITur@ 00560a80     testsettings.obj
 0003:0000aad4       ??_C@_05HBFPNANJ@Alt?$CLO?$AA@ 00560ad4     testsettings.obj
 0003:0000aae0       ??_7testSettings@@6BQObject@@@ 00560ae0     testsettingsimpl.obj
 0003:0000ad00       ??_7testSettings@@6BQPaintDevice@@@ 00560d00     testsettingsimpl.obj
 0003:0000ad2c       ??_SQAction@@6B@           00560d2c     textedit.obj
 0003:0000add4       ??_SQPopupMenu@@6BQObject@@@ 00560dd4     textedit.obj
 0003:0000b014       ??_SQPopupMenu@@6BQPaintDevice@@@ 00561014     textedit.obj
 0003:0000b040       ??_SQPopupMenu@@6B@        00561040     textedit.obj
 0003:0000b06c       ??_7textedit@@6BQObject@@@ 0056106c     textedit.obj
 0003:0000b49c       ??_7textedit@@6BQPaintDevice@@@ 0056149c     textedit.obj
 0003:0000b4c4       ??_C@_0BE@IOFADAOP@BNCS?5Dialog?5?$CI?$CK?4bsc?$CJ?$AA@ 005614c4     textedit.obj
 0003:0000b4dc       ??_C@_03LEBDCLIK@?$CC?5?$DP?$AA@ 005614dc     textedit.obj
 0003:0000b4e0       ??_C@_0BG@GDBMBFMI@Do?5you?5want?5to?5save?5?$CC?$AA@ 005614e0     textedit.obj
 0003:0000b4fc       ??_C@_0CD@JPOFHKPC@Do?5you?5want?5to?5save?5this?5new?5fil@ 005614fc     textedit.obj
 0003:0000b528       ??_C@_04OLJIFFAL@Find?$AA@ 00561528     textedit.obj
 0003:0000b530       ??_C@_0N@HFJNCHBF@file_new?4xpm?$AA@ 00561530     textedit.obj
 0003:0000b540       ??_C@_05LHMKEDEH@?$CGEdit?$AA@ 00561540     textedit.obj
 0003:0000b548       ??_C@_09GBALLKBO@1findid?$CI?$CJ?$AA@ 00561548     textedit.obj
 0003:0000b554       ??_C@_0N@KCMOKDBB@2activated?$CI?$CJ?$AA@ 00561554     textedit.obj
 0003:0000b564       ??_C@_09DOGBNGMO@16?516?53?51?$AA@ 00561564     vis_ed_mdi.obj
 0003:0000b570       ??_C@_0M@KEPPNGJB@?$CD?5c?5?$CD000000?$AA@ 00561570     vis_ed_mdi.obj
 0003:0000b580       ??_C@_08IMFNEMJ@?4?5c?5none?$AA@ 00561580     vis_ed_mdi.obj
 0003:0000b58c       ??_C@_0M@DPJAAKFM@a?5c?5?$CDffffff?$AA@ 0056158c     vis_ed_mdi.obj
 0003:0000b59c       ??_C@_0BB@DDKGLOCG@?4?4?4?4?4?4?4?4?4?4?4?4?4?4?4?4?$AA@ 0056159c     vis_ed_mdi.obj
 0003:0000b5b0       ??_C@_0BB@PFPBOJNA@?4?4?$CD?$CD?$CD?$CD?$CD?$CD?$CD?$CD?4?4?4?4?4?4?$AA@ 005615b0     vis_ed_mdi.obj
 0003:0000b5c4       ??_C@_0BB@NBHHOKPB@?4?4?$CDaaaaaa?$CD?$CD?4?4?4?4?4?$AA@ 005615c4     vis_ed_mdi.obj
 0003:0000b5d8       ??_C@_0BB@LOHNJNHP@?4?4?$CDaaaaaa?$CDa?$CD?4?4?4?4?$AA@ 005615d8     vis_ed_mdi.obj
 0003:0000b5ec       ??_C@_0BB@JFHJDNJO@?4?4?$CDaaaaaa?$CD?$CD?$CD?$CD?4?4?4?$AA@ 005615ec     vis_ed_mdi.obj
 0003:0000b600       ??_C@_0BB@GPMFDHDJ@?4?4?$CDaaaaaaaaa?$CD?4?4?4?$AA@ 00561600     vis_ed_mdi.obj
 0003:0000b614       ??_C@_0BB@NACIFPHP@?4?4?$CD?$CD?$CD?$CD?$CD?$CD?$CD?$CD?$CD?$CD?$CD?4?4?4?$AA@ 00561614     vis_ed_mdi.obj
 0003:0000b628       ??_C@_09BLAKIJBC@16?516?55?51?$AA@ 00561628     vis_ed_mdi.obj
 0003:0000b634       ??_C@_0M@JHADGEMH@c?5c?5?$CD808000?$AA@ 00561634     vis_ed_mdi.obj
 0003:0000b644       ??_C@_0M@MMNOHAHM@b?5c?5?$CDffff00?$AA@ 00561644     vis_ed_mdi.obj
 0003:0000b654       ??_C@_0BB@HFOKNJOJ@?4?4?4?4?4?4?4?4?4?$CD?$CD?$CD?4?4?4?4?$AA@ 00561654     vis_ed_mdi.obj
 0003:0000b668       ??_C@_0BB@DCKBAOJD@?4?4?4?4?4?4?4?4?$CD?4?4?4?$CD?4?$CD?4?$AA@ 00561668     vis_ed_mdi.obj
 0003:0000b67c       ??_C@_0BB@MJBEPFKI@?4?4?4?4?4?4?4?4?4?4?4?4?4?$CD?$CD?4?$AA@ 0056167c     vis_ed_mdi.obj
 0003:0000b690       ??_C@_0BB@HDDKHBBH@?4?$CD?$CD?$CD?4?4?4?4?4?4?4?4?$CD?$CD?$CD?4?$AA@ 00561690     vis_ed_mdi.obj
 0003:0000b6a4       ??_C@_0BB@PFNLCJAL@?$CDaba?$CD?$CD?$CD?$CD?$CD?$CD?$CD?4?4?4?4?4?$AA@ 005616a4     vis_ed_mdi.obj
 0003:0000b6b8       ??_C@_0BB@CNBHCIGG@?$CDbabababab?$CD?4?4?4?4?4?$AA@ 005616b8     vis_ed_mdi.obj
 0003:0000b6cc       ??_C@_0BB@GGEAILCM@?$CDababababa?$CD?4?4?4?4?4?$AA@ 005616cc     vis_ed_mdi.obj
 0003:0000b6e0       ??_C@_0BB@NCGCGKFK@?$CDbaba?$CD?$CD?$CD?$CD?$CD?$CD?$CD?$CD?$CD?$CD?4?$AA@ 005616e0     vis_ed_mdi.obj
 0003:0000b6f4       ??_C@_0BB@EMENKCNO@?$CDaba?$CDccccccccc?$CD?4?$AA@ 005616f4     vis_ed_mdi.obj
 0003:0000b708       ??_C@_0BB@PKGOBFMM@?$CDba?$CDccccccccc?$CD?4?4?$AA@ 00561708     vis_ed_mdi.obj
 0003:0000b71c       ??_C@_0BB@FKPLBMLH@?$CDa?$CDccccccccc?$CD?4?4?4?$AA@ 0056171c     vis_ed_mdi.obj
 0003:0000b730       ??_C@_0BB@MOBGHKIO@?$CD?$CDccccccccc?$CD?4?4?4?4?$AA@ 00561730     vis_ed_mdi.obj
 0003:0000b744       ??_C@_0BB@IPNCGJFL@?$CD?$CD?$CD?$CD?$CD?$CD?$CD?$CD?$CD?$CD?$CD?4?4?4?4?4?$AA@ 00561744     vis_ed_mdi.obj
 0003:0000b758       ??_C@_0M@HFCLKLOA@a?5c?5?$CD808080?$AA@ 00561758     vis_ed_mdi.obj
 0003:0000b768       ??_C@_0BB@MCJDOCFK@?4?4?4?4?4?4?400001?4?4?4?4?$AA@ 00561768     vis_ed_mdi.obj
 0003:0000b77c       ??_C@_0BB@DHMGMEIE@?40?4?4?400?4?4?4?401?4?4?4?$AA@ 0056177c     vis_ed_mdi.obj
 0003:0000b790       ??_C@_0BB@KCDFHLOP@?400?40?4?4?4?4?4?4?4?40?4?4?$AA@ 00561790     vis_ed_mdi.obj
 0003:0000b7a4       ??_C@_0BB@EBPNLIGJ@?4000?4?4?4?4?4?4?4?4?40?4?4?$AA@ 005617a4     vis_ed_mdi.obj
 0003:0000b7b8       ??_C@_0BB@KJGCLMNF@?40000?4?4?4?4?4?4?4?4?40?4?$AA@ 005617b8     vis_ed_mdi.obj
 0003:0000b7cc       ??_C@_0BB@EMELICDH@?400000?4?4?4?4?4?4?4?40?4?$AA@ 005617cc     vis_ed_mdi.obj
 0003:0000b7e0       ??_C@_0BB@LFHBJCMN@?40?4?4?4?4?4?4?4?4?40000?4?$AA@ 005617e0     vis_ed_mdi.obj
 0003:0000b7f4       ??_C@_0BB@ODBJLOCJ@?4?40?4?4?4?4?4?4?4?4?4000?4?$AA@ 005617f4     vis_ed_mdi.obj
 0003:0000b808       ??_C@_0BB@LKCFEKEA@?4?40?4?4?4?4?4?4?4?40?500?4?$AA@ 00561808     vis_ed_mdi.obj
 0003:0000b81c       ??_C@_0BB@FAJNGCG@?4?4?410?4?4?4?400?4?4?40?4?$AA@ 0056181c     vis_ed_mdi.obj
 0003:0000b830       ??_C@_0BB@OEBNDEFO@?4?4?4?410000?4?4?4?4?4?4?4?$AA@ 00561830     vis_ed_mdi.obj
 0003:0000b844       ??_C@_09COEAANKD@20?520?59?51?$AA@ 00561844     vis_ed_mdi.obj
 0003:0000b850       ??_C@_09PCDJGOCM@?5?5c?5white?$AA@ 00561850     vis_ed_mdi.obj
 0003:0000b85c       ??_C@_08EFJPDCLP@?$CB?5c?5?$CD000?$AA@ 0056185c     vis_ed_mdi.obj
 0003:0000b868       ??_C@_0M@KLMHBPMN@?$CD?5c?5?$CD002EFF?$AA@ 00561868     vis_ed_mdi.obj
 0003:0000b878       ??_C@_0BC@FPPLGON@$?5c?5?$CD999999999999?$AA@ 00561878     vis_ed_mdi.obj
 0003:0000b890       ??_C@_08ELFBGFBA@?$CF?5c?5None?$AA@ 00561890     vis_ed_mdi.obj
 0003:0000b89c       ??_C@_0M@PPCGHEBE@?$CG?5c?5?$CD00C900?$AA@ 0056189c     vis_ed_mdi.obj
 0003:0000b8ac       ??_C@_0M@BGIKCPON@?$CI?5c?5?$CDffff00?$AA@ 005618ac     vis_ed_mdi.obj
 0003:0000b8bc       ??_C@_08HFEJDOGB@?$CJ?5c?5red1?$AA@ 005618bc     vis_ed_mdi.obj
 0003:0000b8c8       ??_C@_09BNOHLJJ@?$CK?5c?5black?$AA@ 005618c8     vis_ed_mdi.obj
 0003:0000b8d4       ??_C@_0BF@KFKFLKDJ@?$CB?$CB?$CB?$CB?$CB?$CB?$CB?$CB?$CB?$CB?$CB?$CB?$CB?$CB?$CB?$CB?$CB?$CB?$CB?$CB?$AA@ 005618d4     vis_ed_mdi.obj
 0003:0000b8f0       ??_C@_0BF@GENBMKKO@?$CB?$CD?$CD?$CB$$$?$CB?$CB?$CB?$CB?$CB?$CB$$$?$CB?$CF?$CF?$CB?$AA@ 005618f0     vis_ed_mdi.obj
 0003:0000b90c       ??_C@_0BF@NMBGFMGF@?$CB?$CD?$CD?$CB$$?$CB?$CG?$CG?$CG?$CG?$CG?$CG?$CB$$?$CB?$CF?$CF?$CB?$AA@ 0056190c     vis_ed_mdi.obj
 0003:0000b928       ??_C@_0BF@KLIPCJ@?$CB?$CD?$CD?$CB$?$CB?$CI?$CG?$CG?$CG?$CG?$CG?$CG?$CG?$CB$?$CB?$CB?$CB?$CB?$AA@ 00561928     vis_ed_mdi.obj
 0003:0000b944       ??_C@_0BF@NOACILCD@?$CB?$CD?$CD?$CB?$CB?$CI?$CI?$CI?$CG?$CG?$CG?$CG?$CG?$CG?$CG?$CB?$CB?$CD?$CD?$CB?$AA@ 00561944     vis_ed_mdi.obj
 0003:0000b960       ??_C@_0BF@CEOEIHJD@?$CB?$CD?$CD?$CB?$CB?$CI?$CI?$CI?$CI?$CG?$CG?$CG?$CG?$CG?$CG?$CB?$CB?$CD?$CD?$CB?$AA@ 00561960     vis_ed_mdi.obj
 0003:0000b97c       ??_C@_0BF@FOCNKAEL@?$CB?$CD?$CD?$CB?$CB?$CI?$CI?$CI?$CI?$CI?$CJ?$CG?$CG?$CG?$CG?$CB?$CB?$CD?$CD?$CB?$AA@ 0056197c     vis_ed_mdi.obj
 0003:0000b998       ??_C@_0BF@OJBFGOCM@?$CB?$CD?$CD?$CB?$CB?$CI?$CI?$CI?$CJ?$CJ?$CJ?$CJ?$CG?$CG?$CG?$CB?$CB?$CD?$CD?$CB?$AA@ 00561998     vis_ed_mdi.obj
 0003:0000b9b4       ??_C@_0BF@KLKDEAIL@?$CB?$CD?$CD?$CB?$CB?$CI?$CI?$CJ?$CJ?$CJ?$CJ?$CJ?$CJ?$CG?$CG?$CB?$CB?$CD?$CD?$CB?$AA@ 005619b4     vis_ed_mdi.obj
 0003:0000b9d0       ??_C@_0BF@HHMHMEKA@?$CB?$CD?$CD?$CB$?$CB?$CJ?$CJ?$CJ?$CJ?$CJ?$CJ?$CJ?$CJ?$CB$?$CB?$CD?$CD?$CB?$AA@ 005619d0     vis_ed_mdi.obj
 0003:0000b9ec       ??_C@_0BF@PCHKFEDM@?$CB?$CD?$CD?$CD?$CB$?$CB?$CJ?$CJ?$CJ?$CJ?$CJ?$CJ?$CB$?$CK?$CD?$CD?$CD?$CB?$AA@ 005619ec     vis_ed_mdi.obj
 0003:0000ba08       ??_C@_0BF@OHMHHAEE@?$CB?$CD?$CD?$CD?$CD?$CK?$CK?$CK?$CB?$CB?$CB?$CB?$CB?$CK?$CK?$CK?$CD?$CD?$CD?$CB?$AA@ 00561a08     vis_ed_mdi.obj
 0003:0000ba24       ??_C@_0BF@LBEIPDCL@?$CB?$CD?$CD?$CD?$CD?$CD?$CD?$CD?$CD?$CD?$CD?$CD?$CD?$CD?$CD?$CD?$CD?$CD?$CD?$CB?$AA@ 00561a24     vis_ed_mdi.obj
 0003:0000ba40       ??_C@_0BF@LHIGLNCC@?$CB?$CD?$CD?$CD?$CB?$CB?$CB?$CB?$CB?$CB?$CB?$CB?$CB?$CB?$CB?$CB?$CB?$CD?$CD?$CB?$AA@ 00561a40     vis_ed_mdi.obj
 0003:0000ba5c       ??_C@_0BF@PNJDANFC@?$CB?$CD?$CD?$CD?$CB?$CB?$CB?$CB?$CB?$CB?$CB?$CB?$CB$$$?$CB?$CD?$CD?$CB?$AA@ 00561a5c     vis_ed_mdi.obj
 0003:0000ba78       ??_C@_0BF@NDDAHLIG@?$CF?$CB?$CB?$CB?$CB?$CB?$CB?$CB?$CB?$CB?$CB?$CB?$CB?$CB?$CB?$CB?$CB?$CB?$CB?$CF?$AA@ 00561a78     vis_ed_mdi.obj
 0003:0000ba94       ??_C@_09KDLGOOHH@16?516?54?51?$AA@ 00561a94     vis_ed_mdi.obj
 0003:0000baa0       ??_C@_0M@HLDIPKFI@a?5c?5?$CD808000?$AA@ 00561aa0     vis_ed_mdi.obj
 0003:0000bab0       ??_C@_0M@CIICNBFG@b?5c?5?$CDd4d0c8?$AA@ 00561ab0     vis_ed_mdi.obj
 0003:0000bac0       ??_C@_0BB@CDNAFGKI@?4?$CD?$CD?$CD?$CD?$CD?$CD?$CD?$CD?$CD?$CD?$CD?$CD?$CD?$CD?4?$AA@ 00561ac0     vis_ed_mdi.obj
 0003:0000bad4       ??_C@_0BB@MFMAMICP@?4?$CDa?$CDbbbbbbbb?$CDb?$CD?4?$AA@ 00561ad4     vis_ed_mdi.obj
 0003:0000bae8       ??_C@_0BB@OGGIPHHH@?4?$CDa?$CDbbbbbbbb?$CD?$CD?$CD?4?$AA@ 00561ae8     vis_ed_mdi.obj
 0003:0000bafc       ??_C@_0BB@NHHFGHMB@?4?$CDa?$CDbbbbbbbb?$CDa?$CD?4?$AA@ 00561afc     vis_ed_mdi.obj
 0003:0000bb10       ??_C@_0BB@PCFEDEIH@?4?$CDaa?$CD?$CD?$CD?$CD?$CD?$CD?$CD?$CDaa?$CD?4?$AA@ 00561b10     vis_ed_mdi.obj
 0003:0000bb24       ??_C@_0BB@ONGOGPJN@?4?$CDaaaaaaaaaaaa?$CD?4?$AA@ 00561b24     vis_ed_mdi.obj
 0003:0000bb38       ??_C@_0BB@NAGHDPKO@?4?$CDaa?$CD?$CD?$CD?$CD?$CD?$CD?$CD?$CD?$CDa?$CD?4?$AA@ 00561b38     vis_ed_mdi.obj
 0003:0000bb4c       ??_C@_0BB@PGBPJIKK@?4?$CDaa?$CD?$CD?$CD?$CD?$CD?$CDbb?$CDa?$CD?4?$AA@ 00561b4c     vis_ed_mdi.obj
 0003:0000bb60       ??_C@_0BB@CKJKBEPB@?4?4?$CD?$CD?$CD?$CD?$CD?$CD?$CD?$CD?$CD?$CD?$CD?$CD?$CD?4?$AA@ 00561b60     vis_ed_mdi.obj
 0003:0000bb74       ??_C@_09NMCKNFHO@20?520?54?51?$AA@ 00561b74     vis_ed_mdi.obj
 0003:0000bb80       ??_C@_0M@PMHHFHCO@a?5c?5?$CD0000ff?$AA@ 00561b80     vis_ed_mdi.obj
 0003:0000bb90       ??_C@_0M@EIAONIKM@b?5c?5?$CDffffff?$AA@ 00561b90     vis_ed_mdi.obj
 0003:0000bba0       ??_C@_0BF@KNMHCCP@?4?4?4?4?4?4?4?4?4?4?4?4?4?4?4?4?4?4?4?4?$AA@ 00561ba0     vis_ed_mdi.obj
 0003:0000bbbc       ??_C@_0BF@HKMFGAMK@?4?$CD?$CD?$CD?$CD?$CD?$CD?$CD?$CD?$CD?$CD?$CD?$CD?$CD?$CD?$CD?$CD?$CD?$CD?4?$AA@ 00561bbc     vis_ed_mdi.obj
 0003:0000bbd8       ??_C@_0BF@BCDKIOGP@?4?$CDaaaaaaaaaaaaaaaa?$CD?4?$AA@ 00561bd8     vis_ed_mdi.obj
 0003:0000bbf4       ??_C@_0BF@KBEOJAGH@?4?$CDbbbbbbbbbbbbbbbb?$CD?4?$AA@ 00561bf4     vis_ed_mdi.obj
 0003:0000bc10       ??_C@_0M@BCKHMLG@b?5c?5?$CD000080?$AA@ 00561c10     vis_ed_mdi.obj
 0003:0000bc20       ??_C@_0M@JJBADFHP@c?5c?5?$CD808080?$AA@ 00561c20     vis_ed_mdi.obj
 0003:0000bc30       ??_C@_0BB@CMKJIDKE@?4?4?$CDaabbba?$CDc?$CD?4?4?4?4?$AA@ 00561c30     vis_ed_mdi.obj
 0003:0000bc44       ??_C@_0BB@GKIODIML@?4?4?$CDaabbbaaaa?$CD?4?4?4?$AA@ 00561c44     vis_ed_mdi.obj
 0003:0000bc58       ??_C@_0BB@NNIMADON@?4?4?$CDaabbbbbaa?$CD?4?4?4?$AA@ 00561c58     vis_ed_mdi.obj
 0003:0000bc6c       ??_C@_0M@ILJAIAKP@32?532?5185?52?$AA@ 00561c6c     vis_ed_mdi.obj
 0003:0000bc7c       ??_C@_09KNCBCGCK@?5?5?7c?5None?$AA@ 00561c7c     vis_ed_mdi.obj
 0003:0000bc88       ??_C@_0N@PAIKCBKK@?4?5?7c?5?$CD787C7C?$AA@ 00561c88     vis_ed_mdi.obj
 0003:0000bc98       ??_C@_0N@PELFJBA@?$CL?5?7c?5?$CD838887?$AA@ 00561c98     vis_ed_mdi.obj
 0003:0000bca8       ??_C@_0N@CMLNMACI@?$EA?5?7c?5?$CD868B89?$AA@ 00561ca8     vis_ed_mdi.obj
 0003:0000bcb8       ??_C@_0N@DOCDCAJM@?$CD?5?7c?5?$CD868C88?$AA@ 00561cb8     vis_ed_mdi.obj
 0003:0000bcc8       ??_C@_0N@PLOMEBKB@$?5?7c?5?$CD868B88?$AA@ 00561cc8     vis_ed_mdi.obj
 0003:0000bcd8       ??_C@_0N@HGLAMDIH@?$CF?5?7c?5?$CD7F8483?$AA@ 00561cd8     vis_ed_mdi.obj
 0003:0000bce8       ??_C@_0N@MJCMFMBM@?$CG?5?7c?5?$CD96989C?$AA@ 00561ce8     vis_ed_mdi.obj
 0003:0000bcf8       ??_C@_0N@PHAMDAAF@?$CK?5?7c?5?$CDAFBFA3?$AA@ 00561cf8     vis_ed_mdi.obj
 0003:0000bd08       ??_C@_0N@IPBIGIFC@?$DN?5?7c?5?$CDA6BA96?$AA@ 00561d08     vis_ed_mdi.obj
 0003:0000bd18       ??_C@_0N@JNNHANAL@?9?5?7c?5?$CDB5C1AD?$AA@ 00561d18     vis_ed_mdi.obj
 0003:0000bd28       ??_C@_0N@DCOBDGNJ@?$DL?5?7c?5?$CD7C7F82?$AA@ 00561d28     vis_ed_mdi.obj
 0003:0000bd38       ??_C@_0N@DPJCECBO@?$DO?5?7c?5?$CDA5A6AA?$AA@ 00561d38     vis_ed_mdi.obj
 0003:0000bd48       ??_C@_0N@GMEHICGC@?0?5?7c?5?$CD9EC586?$AA@ 00561d48     vis_ed_mdi.obj
 0003:0000bd58       ??_C@_0N@KGENOCIE@?8?5?7c?5?$CDA1DC88?$AA@ 00561d58     vis_ed_mdi.obj
 0003:0000bd68       ??_C@_0N@NIGHOHMM@?$CJ?5?7c?5?$CDA1DD89?$AA@ 00561d68     vis_ed_mdi.obj
 0003:0000bd78       ??_C@_0N@FENNACKE@?$CB?5?7c?5?$CD9AB885?$AA@ 00561d78     vis_ed_mdi.obj
 0003:0000bd88       ??_C@_0N@IINDPGFL@?$HO?5?7c?5?$CD898B8F?$AA@ 00561d88     vis_ed_mdi.obj
 0003:0000bd98       ??_C@_0N@GLKJHGL@?$HL?5?7c?5?$CDA8A9AD?$AA@ 00561d98     vis_ed_mdi.obj
 0003:0000bda8       ??_C@_0N@NCJOFACJ@?$FN?5?7c?5?$CDA0DB87?$AA@ 00561da8     vis_ed_mdi.obj
 0003:0000bdb8       ??_C@_0N@OIMMCACI@?$FO?5?7c?5?$CDA0DB88?$AA@ 00561db8     vis_ed_mdi.obj
 0003:0000bdc8       ??_C@_0N@NKPHBCDD@?1?5?7c?5?$CD9DBA87?$AA@ 00561dc8     vis_ed_mdi.obj
 0003:0000bdd8       ??_C@_0N@BNJFAIGO@?$CI?5?7c?5?$CD8B8D90?$AA@ 00561dd8     vis_ed_mdi.obj
 0003:0000bde8       ??_C@_0N@JCFDNKPM@_?5?7c?5?$CDABACB0?$AA@ 00561de8     vis_ed_mdi.obj
 0003:0000bdf8       ??_C@_0N@HCAHALKL@?3?5?7c?5?$CD9FC688?$AA@ 00561df8     vis_ed_mdi.obj
 0003:0000be08       ??_C@_0N@JENGOAND@?$DM?5?7c?5?$CDA0DA88?$AA@ 00561e08     vis_ed_mdi.obj
 0003:0000be18       ??_C@_0N@JPBIBGLK@?$FL?5?7c?5?$CDA1DC89?$AA@ 00561e18     vis_ed_mdi.obj
 0003:0000be28       ??_C@_0N@LCKOGPNA@?$HN?5?7c?5?$CDA0BD8A?$AA@ 00561e28     vis_ed_mdi.obj
 0003:0000be38       ??_C@_0N@JFHAIDML@?$HM?5?7c?5?$CD8C8E92?$AA@ 00561e38     vis_ed_mdi.obj
 0003:0000be48       ??_C@_0N@KHJBPOKC@1?5?7c?5?$CDAFB0B4?$AA@ 00561e48     vis_ed_mdi.obj
 0003:0000be58       ??_C@_0N@EPCBJHPP@2?5?7c?5?$CD84B367?$AA@ 00561e58     vis_ed_mdi.obj
 0003:0000be68       ??_C@_0N@MEIBOBNM@3?5?7c?5?$CD8BCB73?$AA@ 00561e68     vis_ed_mdi.obj
 0003:0000be78       ??_C@_0N@BHANNALL@4?5?7c?5?$CD97D080?$AA@ 00561e78     vis_ed_mdi.obj
 0003:0000be88       ??_C@_0N@INILBNHB@5?5?7c?5?$CD9ED58A?$AA@ 00561e88     vis_ed_mdi.obj
 0003:0000be98       ??_C@_0N@JEKKLOON@6?5?7c?5?$CDA0D68C?$AA@ 00561e98     vis_ed_mdi.obj
 0003:0000bea8       ??_C@_0N@NIMEGBPF@7?5?7c?5?$CD97C487?$AA@ 00561ea8     vis_ed_mdi.obj
 0003:0000beb8       ??_C@_0N@DPLDFNBK@8?5?7c?5?$CD7D8E7C?$AA@ 00561eb8     vis_ed_mdi.obj
 0003:0000bec8       ??_C@_0N@DLBNLEEO@9?5?7c?5?$CD7D8A7E?$AA@ 00561ec8     vis_ed_mdi.obj
 0003:0000bed8       ??_C@_0N@FINFIJGN@0?5?7c?5?$CD7D857E?$AA@ 00561ed8     vis_ed_mdi.obj
 0003:0000bee8       ??_C@_0N@GEOACFLB@a?5?7c?5?$CD797B7F?$AA@ 00561ee8     vis_ed_mdi.obj
 0003:0000bef8       ??_C@_0N@CGPOJHAF@b?5?7c?5?$CD737579?$AA@ 00561ef8     vis_ed_mdi.obj
 0003:0000bf08       ??_C@_0N@JBJDMLAB@c?5?7c?5?$CD727478?$AA@ 00561f08     vis_ed_mdi.obj
 0003:0000bf18       ??_C@_0N@LINIIDGH@d?5?7c?5?$CD737A80?$AA@ 00561f18     vis_ed_mdi.obj
 0003:0000bf28       ??_C@_0N@OPHKDLGD@e?5?7c?5?$CDB2B3B6?$AA@ 00561f28     vis_ed_mdi.obj
 0003:0000bf38       ??_C@_0N@ECBGMBDM@f?5?7c?5?$CD77A959?$AA@ 00561f38     vis_ed_mdi.obj
 0003:0000bf48       ??_C@_0N@DBFNPKNO@g?5?7c?5?$CD71B856?$AA@ 00561f48     vis_ed_mdi.obj
