 bncs_ws_man

 Timestamp is 56ddffaa (Mon Mar 07 22:24:42 2016)

 Preferred load address is 00400000

 Start         Length     Name                   Class
 0001:00000000 00017736H .text                   CODE
 0001:00017740 000024a3H .text$x                 CODE
 0002:00000000 00001020H .idata$5                DATA
 0002:00001020 000036ecH .rdata                  DATA
 0002:00004710 000014ccH .rdata$r                DATA
 0002:00005be0 00002588H .xdata$x                DATA
 0002:00008168 000000b4H .idata$2                DATA
 0002:0000821c 00000014H .idata$3                DATA
 0002:00008230 00001020H .idata$4                DATA
 0002:00009250 0000a056H .idata$6                DATA
 0002:000132a6 00000000H .edata                  DATA
 0003:00000000 00000004H .CRT$XCA                DATA
 0003:00000004 00000048H .CRT$XCU                DATA
 0003:0000004c 00000004H .CRT$XCZ                DATA
 0003:00000050 00000004H .CRT$XIA                DATA
 0003:00000054 00000004H .CRT$XIZ                DATA
 0003:00000060 00004ed4H .data                   DATA
 0003:00004f38 000001ccH .bss                    DATA
 0004:00000000 00000148H .rsrc$01                DATA
 0004:00000150 00003b90H .rsrc$02                DATA

  Address         Publics by Value              Rva+Base     Lib:Object

 0001:00000000       ??0AboutDialog@@QAE@XZ     00401000 f   AboutDialog.obj
 0001:000001b0       ?metaObject@AboutDialogBase@@UBEPAVQMetaObject@@XZ 004011b0 f i AboutDialog.obj
 0001:000001c0       ??_EAboutDialog@@UAEPAXI@Z 004011c0 f i AboutDialog.obj
 0001:000001c0       ??_GAboutDialog@@UAEPAXI@Z 004011c0 f i AboutDialog.obj
 0001:000001e0       ??1AboutDialog@@UAE@XZ     004011e0 f   AboutDialog.obj
 0001:00000200       ?GetVersion@AboutDialog@@AAEPADPAD000@Z 00401200 f   AboutDialog.obj
 0001:000003e0       ??_EAboutDialog@@WCI@AEPAXI@Z 004013e0 f i AboutDialog.obj
 0001:000003f0       ??0bncs_ws_manDialog@@QAE@PAVQWidget@@PBDI@Z 004013f0 f   bncs_ws_mandialog.obj
 0001:00000d30       ??8@YA_NVQChar@@0@Z        00401d30 f i bncs_ws_mandialog.obj
 0001:00000d40       ?metaObject@bncs_ws_manDialog@@UBEPAVQMetaObject@@XZ 00401d40 f i bncs_ws_mandialog.obj
 0001:00000d50       ??_Ebncs_ws_manDialog@@UAEPAXI@Z 00401d50 f i bncs_ws_mandialog.obj
 0001:00000d50       ??_Gbncs_ws_manDialog@@UAEPAXI@Z 00401d50 f i bncs_ws_mandialog.obj
 0001:00000d70       ?timerEvent@bncs_ws_manDialog@@EAEXPAVQTimerEvent@@@Z 00401d70 f   bncs_ws_mandialog.obj
 0001:00001790       ??1bncs_ws_manDialog@@UAE@XZ 00402790 f   bncs_ws_mandialog.obj
 0001:00001830       ?setStatus@bncs_ws_manDialog@@AAEXVQString@@@Z 00402830 f   bncs_ws_mandialog.obj
 0001:000018a0       ?doLaunch@bncs_ws_manDialog@@AAEXXZ 004028a0 f   bncs_ws_mandialog.obj
 0001:00001c60       ?RestartButtonClick@bncs_ws_manDialog@@AAEXXZ 00402c60 f   bncs_ws_mandialog.obj
 0001:00001d30       ?UpdateAndRestartButtonClick@bncs_ws_manDialog@@AAEXXZ 00402d30 f   bncs_ws_mandialog.obj
 0001:00001e00       ?doRestart@bncs_ws_manDialog@@AAEXXZ 00402e00 f   bncs_ws_mandialog.obj
 0001:00001e40       ?StopButtonClick@bncs_ws_manDialog@@AAEXXZ 00402e40 f   bncs_ws_mandialog.obj
 0001:00001f10       ?doStop@bncs_ws_manDialog@@AAEXXZ 00402f10 f   bncs_ws_mandialog.obj
 0001:00001f60       ?startAll@bncs_ws_manDialog@@AAEXXZ 00402f60 f   bncs_ws_mandialog.obj
 0001:00001fb0       ?ButtonsEnable@bncs_ws_manDialog@@ABEXXZ 00402fb0 f   bncs_ws_mandialog.obj
 0001:00001fe0       ?ButtonsDisable@bncs_ws_manDialog@@ABEXXZ 00402fe0 f   bncs_ws_mandialog.obj
 0001:00002010       ?statusChange@bncs_ws_manDialog@@AAEXW4status@workstationStatus@@@Z 00403010 f   bncs_ws_mandialog.obj
 0001:000024b0       ?getWSTrackerMessage@netComms@@QAE?AVQString@@XZ 004034b0 f i bncs_ws_mandialog.obj
 0001:000024e0       ?doStop@bncs_ws_manDialog@@AAEXH@Z 004034e0 f   bncs_ws_mandialog.obj
 0001:000025e0       ?doStart@bncs_ws_manDialog@@AAEXH@Z 004035e0 f   bncs_ws_mandialog.obj
 0001:000026e0       ?doRestart@bncs_ws_manDialog@@AAEXH@Z 004036e0 f   bncs_ws_mandialog.obj
 0001:000028d0       ?showLogViewer@bncs_ws_manDialog@@AAEXXZ 004038d0 f   bncs_ws_mandialog.obj
 0001:00002960       ?programSelect@bncs_ws_manDialog@@AAEXH@Z 00403960 f   bncs_ws_mandialog.obj
 0001:00002dd0       ?deleteCurrentProgram@bncs_ws_manDialog@@AAEXVQString@@@Z 00403dd0 f   bncs_ws_mandialog.obj
 0001:00002ed0       ?AboutClick@bncs_ws_manDialog@@AAEXXZ 00403ed0 f   bncs_ws_mandialog.obj
 0001:00002f40       ?singletonMessageReceived@bncs_ws_manDialog@@AAEXABVQString@@@Z 00403f40 f   bncs_ws_mandialog.obj
 0001:00002fe0       ??_Ebncs_ws_manDialog@@WCI@AEPAXI@Z 00403fe0 f i bncs_ws_mandialog.obj
 0001:00002ff0       ??0csi_startDialog@@QAE@PAVQWidget@@PBDI@Z 00403ff0 f   csi_startdialog.obj
 0001:000031d0       ?metaObject@csi_startDialog@@UBEPAVQMetaObject@@XZ 004041d0 f i csi_startdialog.obj
 0001:000031e0       ??_Ecsi_startDialog@@UAEPAXI@Z 004041e0 f i csi_startdialog.obj
 0001:000031e0       ??_Gcsi_startDialog@@UAEPAXI@Z 004041e0 f i csi_startdialog.obj
 0001:00003200       ?addProc@csi_startDialog@@AAEXPAVprocessBase@@_NVQString@@22@Z 00404200 f   csi_startdialog.obj
 0001:000033e0       ?addCsiProc@csi_startDialog@@AAEXVQString@@_N1@Z 004043e0 f   csi_startdialog.obj
 0001:000034e0       ?addOtherProc@csi_startDialog@@AAEXVQString@@00_N1HK@Z 004044e0 f   csi_startdialog.obj
 0001:00003830       ?load@csi_startDialog@@QAEXAA_N@Z 00404830 f   csi_startdialog.obj
 0001:00004330       ?countLaunches@csi_startDialog@@AAEHXZ 00405330 f   csi_startdialog.obj
 0001:00004410       ?go@csi_startDialog@@QAEXXZ 00405410 f   csi_startdialog.obj
 0001:00004760       ??1csi_startDialog@@UAE@XZ 00405760 f   csi_startdialog.obj
 0001:000049c0       ?procDone@csi_startDialog@@AAEX_N@Z 004059c0 f   csi_startdialog.obj
 0001:00004cf0       ?processExited@csi_startDialog@@AAEXXZ 00405cf0 f   csi_startdialog.obj
 0001:00005220       ?getFirstLaunch@csi_startDialog@@AAEPAVprocessBase@@XZ 00406220 f   csi_startdialog.obj
 0001:00005300       ?startNext@csi_startDialog@@AAEXXZ 00406300 f   csi_startdialog.obj
 0001:000055e0       ?optionEnabled@csi_startDialog@@AAEXAA_N00000@Z 004065e0 f   csi_startdialog.obj
 0001:00005770       ?contextMenuRequested@csi_startDialog@@AAEXPAVQListViewItem@@ABVQPoint@@H@Z 00406770 f   csi_startdialog.obj
 0001:00005f30       ?listItemSelected@csi_startDialog@@AAEXXZ 00406f30 f   csi_startdialog.obj
 0001:00005fa0       ?doButtonStart@csi_startDialog@@AAEXXZ 00406fa0 f   csi_startdialog.obj
 0001:00006160       ?doButtonStop@csi_startDialog@@AAEXXZ 00407160 f   csi_startdialog.obj
 0001:00006230       ?doButtonGoFromHere@csi_startDialog@@AAEXXZ 00407230 f   csi_startdialog.obj
 0001:00006330       ?doButtonGoSelected@csi_startDialog@@AAEXXZ 00407330 f   csi_startdialog.obj
 0001:00006420       ?setStatus@csi_startDialog@@AAEXW4status@workstationStatus@@_N@Z 00407420 f   csi_startdialog.obj
 0001:00006450       ?checkStatus@csi_startDialog@@AAEXXZ 00407450 f   csi_startdialog.obj
 0001:00006580       ?stopAll@csi_startDialog@@QAEXXZ 00407580 f   csi_startdialog.obj
 0001:000066a0       ?stoppingActive@csi_startDialog@@QAE_NXZ 004076a0 f   csi_startdialog.obj
 0001:000066f0       ?fixUpAutoStart@csi_startDialog@@AAEXPAVprocessBase@@@Z 004076f0 f   csi_startdialog.obj
 0001:000067b0       ?resolveEnvVars@csi_startDialog@@AAE?AVQString@@ABV2@@Z 004077b0 f   csi_startdialog.obj
 0001:00006a60       ??1?$QPtrList@VprocessBase@@@@UAE@XZ 00407a60 f i csi_startdialog.obj
 0001:00006ac0       ?count@?$QPtrList@VprocessBase@@@@UBEIXZ 00407ac0 f i csi_startdialog.obj
 0001:00006ad0       ?clear@?$QPtrList@VprocessBase@@@@UAEXXZ 00407ad0 f i csi_startdialog.obj
 0001:00006ae0       ??1?$QMap@PAVprocessBase@@PAVlaunchListViewItem@@@@QAE@XZ 00407ae0 f i csi_startdialog.obj
 0001:00006b60       ??_E?$QPtrList@VprocessBase@@@@UAEPAXI@Z 00407b60 f i csi_startdialog.obj
 0001:00006b60       ??_G?$QPtrList@VprocessBase@@@@UAEPAXI@Z 00407b60 f i csi_startdialog.obj
 0001:00006b80       ?deleteItem@?$QPtrList@VprocessBase@@@@EAEXPAX@Z 00407b80 f i csi_startdialog.obj
 0001:00006ba0       ??A?$QMap@PAVprocessBase@@PAVlaunchListViewItem@@@@QAEAAPAVlaunchListViewItem@@ABQAVprocessBase@@@Z 00407ba0 f i csi_startdialog.obj
 0001:00006ca0       ?insert@?$QMap@PAVprocessBase@@PAVlaunchListViewItem@@@@QAE?AV?$QMapIterator@PAVprocessBase@@PAVlaunchListViewItem@@@@ABQAVprocessBase@@ABQAVlaunchListViewItem@@_N@Z 00407ca0 f i csi_startdialog.obj
 0001:00006d90       ?detachInternal@?$QMap@PAVprocessBase@@PAVlaunchListViewItem@@@@AAEXXZ 00407d90 f i csi_startdialog.obj
 0001:00006ef0       ?clear@?$QMapPrivate@PAVprocessBase@@PAVlaunchListViewItem@@@@QAEXPAU?$QMapNode@PAVprocessBase@@PAVlaunchListViewItem@@@@@Z 00407ef0 f i csi_startdialog.obj
 0001:00006f20       ?find@?$QMapPrivate@PAVprocessBase@@PAVlaunchListViewItem@@@@QBE?AV?$QMapConstIterator@PAVprocessBase@@PAVlaunchListViewItem@@@@ABQAVprocessBase@@@Z 00407f20 f i csi_startdialog.obj
 0001:00006f70       ??0?$QMapPrivate@PAVprocessBase@@PAVlaunchListViewItem@@@@QAE@PBV0@@Z 00407f70 f i csi_startdialog.obj
 0001:00007070       ?insertSingle@?$QMapPrivate@PAVprocessBase@@PAVlaunchListViewItem@@@@QAE?AV?$QMapIterator@PAVprocessBase@@PAVlaunchListViewItem@@@@ABQAVprocessBase@@@Z 00408070 f i csi_startdialog.obj
 0001:00007130       ?begin@?$QMapPrivate@PAVprocessBase@@PAVlaunchListViewItem@@@@QAE?AV?$QMapIterator@PAVprocessBase@@PAVlaunchListViewItem@@@@XZ 00408130 f i csi_startdialog.obj
 0001:00007140       ?copy@?$QMapPrivate@PAVprocessBase@@PAVlaunchListViewItem@@@@QAEPAU?$QMapNode@PAVprocessBase@@PAVlaunchListViewItem@@@@PAU2@@Z 00408140 f i csi_startdialog.obj
 0001:000071d0       ?insert@?$QMapPrivate@PAVprocessBase@@PAVlaunchListViewItem@@@@QAE?AV?$QMapIterator@PAVprocessBase@@PAVlaunchListViewItem@@@@PAUQMapNodeBase@@0ABQAVprocessBase@@@Z 004081d0 f i csi_startdialog.obj
 0001:00007270       ?dec@?$QMapIterator@PAVprocessBase@@PAVlaunchListViewItem@@@@AAEHXZ 00408270 f i csi_startdialog.obj
 0001:000072c0       ??_Ecsi_startDialog@@WCI@AEPAXI@Z 004082c0 f i csi_startdialog.obj
 0001:000072d0       ??0launchListViewItem@@QAE@PAVQListView@@PAVprocessBase@@ABVQString@@W4EProcessState@0@22@Z 004082d0 f   launchListViewItem.obj
 0001:00007440       ??_GlaunchListViewItem@@UAEPAXI@Z 00408440 f i launchListViewItem.obj
 0001:00007440       ??_ElaunchListViewItem@@UAEPAXI@Z 00408440 f i launchListViewItem.obj
 0001:00007460       ??1launchListViewItem@@UAE@XZ 00408460 f   launchListViewItem.obj
 0001:00007470       ?paintCell@launchListViewItem@@EAEXPAVQPainter@@ABVQColorGroup@@HHH@Z 00408470 f   launchListViewItem.obj
 0001:00007990       ?setProcessState@launchListViewItem@@QAEXW4EProcessState@1@@Z 00408990 f   launchListViewItem.obj
 0001:000081e0       ?getStateText@launchListViewItem@@CA?AVQString@@W4EProcessState@1@@Z 004091e0 f   launchListViewItem.obj
 0001:00008310       ?setAutoStart@launchListViewItem@@QAEX_N@Z 00409310 f   launchListViewItem.obj
 0001:00008340       ?getProcess@launchListViewItem@@QBEPAVprocessBase@@XZ 00409340 f   launchListViewItem.obj
 0001:00008350       ?setLaunch@launchListViewItem@@QAEX_N@Z 00409350 f   launchListViewItem.obj
 0001:00008360       ?getLaunch@launchListViewItem@@QBE_NXZ 00409360 f   launchListViewItem.obj
 0001:00008370       ??0logDelete@@QAE@PAVbncs_config@@@Z 00409370 f   logDelete.obj
 0001:00008480       ?metaObject@logDelete@@UBEPAVQMetaObject@@XZ 00409480 f i logDelete.obj
 0001:00008490       ??_ElogDelete@@UAEPAXI@Z   00409490 f i logDelete.obj
 0001:00008490       ??_GlogDelete@@UAEPAXI@Z   00409490 f i logDelete.obj
 0001:000084b0       ??1logDelete@@UAE@XZ       004094b0 f   logDelete.obj
 0001:00008550       ?timerEvent@logDelete@@MAEXPAVQTimerEvent@@@Z 00409550 f   logDelete.obj
 0001:000085a0       ?loadConfig@logDelete@@AAE_NPAVbncs_config@@@Z 004095a0 f   logDelete.obj
 0001:00008c30       ?deleteOldFiles@logDelete@@AAEXXZ 00409c30 f   logDelete.obj
 0001:00008db0       ?deleteOldFiles@logDelete@@AAEXVQString@@VQDate@@@Z 00409db0 f   logDelete.obj
 0001:000091a0       ??0?$QValueListPrivate@VQString@@@@QAE@XZ 0040a1a0 f i logDelete.obj
 0001:00009240       ??_E?$QValueListNode@VQString@@@@UAEPAXI@Z 0040a240 f i logDelete.obj
 0001:00009240       ??_G?$QValueListNode@VQString@@@@UAEPAXI@Z 0040a240 f i logDelete.obj
 0001:00009260       ??1?$QValueListNode@VQString@@@@UAE@XZ 0040a260 f i logDelete.obj
 0001:00009290       ?insert@?$QValueListPrivate@VQString@@@@QAE?AV?$QValueListIterator@VQString@@@@V2@ABVQString@@@Z 0040a290 f i logDelete.obj
 0001:00009310       ??_G?$QValueListPrivate@VQString@@@@UAEPAXI@Z 0040a310 f i logDelete.obj
 0001:00009310       ??_E?$QValueListPrivate@VQString@@@@UAEPAXI@Z 0040a310 f i logDelete.obj
 0001:00009360       ??0?$QValueListPrivate@VQString@@@@QAE@ABV0@@Z 0040a360 f i logDelete.obj
 0001:00009440       ??0logDialog@@QAE@PAVQWidget@@PBD_NI@Z 0040a440 f   logdialogimpl.obj
 0001:00009590       ?metaObject@logDialog@@UBEPAVQMetaObject@@XZ 0040a590 f i logdialogimpl.obj
 0001:000095a0       ??_ElogDialog@@UAEPAXI@Z   0040a5a0 f i logdialogimpl.obj
 0001:000095a0       ??_GlogDialog@@UAEPAXI@Z   0040a5a0 f i logdialogimpl.obj
 0001:000095c0       ??1logDialog@@UAE@XZ       0040a5c0 f   logdialogimpl.obj
 0001:000095e0       ?doClose@logDialog@@QAEXXZ 0040a5e0 f   logdialogimpl.obj
 0001:000095f0       ?doRefresh@logDialog@@QAEXXZ 0040a5f0 f   logdialogimpl.obj
 0001:00009650       ?loadLog@logDialog@@AAEXXZ 0040a650 f   logdialogimpl.obj
 0001:00009920       ??_ElogDialog@@WCI@AEPAXI@Z 0040a920 f i logdialogimpl.obj
 0001:00009930       _main                      0040a930 f   main.obj
 0001:00009b10       ??0netComms@@QAE@XZ        0040ab10 f   netComms.obj
 0001:00009c10       ?metaObject@netComms@@UBEPAVQMetaObject@@XZ 0040ac10 f i netComms.obj
 0001:00009c20       ??_EnetComms@@UAEPAXI@Z    0040ac20 f i netComms.obj
 0001:00009c20       ??_GnetComms@@UAEPAXI@Z    0040ac20 f i netComms.obj
 0001:00009c40       ??1netComms@@UAE@XZ        0040ac40 f   netComms.obj
 0001:00009d50       ?connect@netComms@@AAE_NXZ 0040ad50 f   netComms.obj
 0001:00009ff0       ??_EQSocketDevice@@UAEPAXI@Z 0040aff0 f i netComms.obj
 0001:00009ff0       ??_GQSocketDevice@@UAEPAXI@Z 0040aff0 f i netComms.obj
 0001:0000a010       ??_EQSocketNotifier@@UAEPAXI@Z 0040b010 f i netComms.obj
 0001:0000a010       ??_GQSocketNotifier@@UAEPAXI@Z 0040b010 f i netComms.obj
 0001:0000a030       ?rxData@netComms@@QAEXH@Z  0040b030 f   netComms.obj
 0001:0000a3c0       ?initComms@netComms@@QAE_NXZ 0040b3c0 f   netComms.obj
 0001:0000b070       ?timerEvent@netComms@@MAEXPAVQTimerEvent@@@Z 0040c070 f   netComms.obj
 0001:0000b090       ?sendStatus@netComms@@AAE_NXZ 0040c090 f   netComms.obj
 0001:0000b5b0       ?GetOSDisplayString@netComms@@AAE?AVQString@@XZ 0040c5b0 f   netComms.obj
 0001:0000bc70       ?setStatus@netComms@@QAEXW4status@workstationStatus@@@Z 0040cc70 f   netComms.obj
 0001:0000bc90       ?performAction@netComms@@AAEXVQString@@H@Z 0040cc90 f   netComms.obj
 0001:0000bdc0       ?at@?$QValueListPrivate@VQString@@@@QBEPAV?$QValueListNode@VQString@@@@I@Z 0040cdc0 f i netComms.obj
 0001:0000be00       ??0processBase@@QAE@PAVQObject@@PBD@Z 0040ce00 f   processBase.obj
 0001:0000be90       ?metaObject@processBase@@UBEPAVQMetaObject@@XZ 0040ce90 f i processBase.obj
 0001:0000bea0       ??_EprocessBase@@UAEPAXI@Z 0040cea0 f i processBase.obj
 0001:0000bea0       ??_GprocessBase@@UAEPAXI@Z 0040cea0 f i processBase.obj
 0001:0000bec0       ??1processBase@@UAE@XZ     0040cec0 f   processBase.obj
 0001:0000bed0       ?start@processBase@@UAE_NPAVQStringList@@@Z 0040ced0 f   processBase.obj
 0001:0000c4d0       ?timerEvent@processBase@@UAEXPAVQTimerEvent@@@Z 0040d4d0 f   processBase.obj
 0001:0000c4f0       ?delay@processBase@@QAEXH@Z 0040d4f0 f   processBase.obj
 0001:0000c500       ?restartOnCrash@processBase@@QAEX_N@Z 0040d500 f   processBase.obj
 0001:0000c510       ?RestartOnCrash@processBase@@QBE_NXZ 0040d510 f   processBase.obj
 0001:0000c530       ?stop@processBase@@QAEXXZ  0040d530 f   processBase.obj
 0001:0000c540       ?processExited@processBase@@AAEXXZ 0040d540 f   processBase.obj
 0001:0000c580       ?Stopping@processBase@@QBE_NXZ 0040d580 f   processBase.obj
 0001:0000c590       ?AutoStart@processBase@@QBE_NXZ 0040d590 f   processBase.obj
 0001:0000c5a0       ?SetAutoStart@processBase@@QAEX_N@Z 0040d5a0 f   processBase.obj
 0001:0000c5b0       ?forceTerminate@processBase@@QAEXXZ 0040d5b0 f   processBase.obj
 0001:0000c620       ?fixUpAutoStart@processBase@@QAEXXZ 0040d620 f   processBase.obj
 0001:0000c630       ?setWaitForIdle@processBase@@QAEXK@Z 0040d630 f   processBase.obj
 0001:0000c640       ??0Program@@QAE@XZ         0040d640 f   Program.obj
 0001:0000c650       ??_GProgram@@UAEPAXI@Z     0040d650 f i Program.obj
 0001:0000c650       ??_EProgram@@UAEPAXI@Z     0040d650 f i Program.obj
 0001:0000c670       ??1Program@@UAE@XZ         0040d670 f   Program.obj
 0001:0000c680       ??0StopAllProgram@@QAE@XZ  0040d680 f   Program.obj
 0001:0000c6a0       ??_EStopAllProgram@@UAEPAXI@Z 0040d6a0 f i Program.obj
 0001:0000c6a0       ??_GStopAllProgram@@UAEPAXI@Z 0040d6a0 f i Program.obj
 0001:0000c6c0       ??1StopAllProgram@@UAE@XZ  0040d6c0 f   Program.obj
 0001:0000c6d0       ?name@StopAllProgram@@UBE?AVQString@@XZ 0040d6d0 f   Program.obj
 0001:0000c700       ??0RestartAllProgram@@QAE@XZ 0040d700 f   Program.obj
 0001:0000c720       ??_GRestartAllProgram@@UAEPAXI@Z 0040d720 f i Program.obj
 0001:0000c720       ??_ERestartAllProgram@@UAEPAXI@Z 0040d720 f i Program.obj
 0001:0000c740       ??1RestartAllProgram@@UAE@XZ 0040d740 f   Program.obj
 0001:0000c750       ?name@RestartAllProgram@@UBE?AVQString@@XZ 0040d750 f   Program.obj
 0001:0000c780       ??0UpdateAndRestartProgram@@QAE@XZ 0040d780 f   Program.obj
 0001:0000c7a0       ??_EUpdateAndRestartProgram@@UAEPAXI@Z 0040d7a0 f i Program.obj
 0001:0000c7a0       ??_GUpdateAndRestartProgram@@UAEPAXI@Z 0040d7a0 f i Program.obj
 0001:0000c7c0       ??1UpdateAndRestartProgram@@UAE@XZ 0040d7c0 f   Program.obj
 0001:0000c7d0       ?name@UpdateAndRestartProgram@@UBE?AVQString@@XZ 0040d7d0 f   Program.obj
 0001:0000c800       ??0InitializeProgram@@QAE@XZ 0040d800 f   Program.obj
 0001:0000c820       ??_GInitializeProgram@@UAEPAXI@Z 0040d820 f i Program.obj
 0001:0000c820       ??_EInitializeProgram@@UAEPAXI@Z 0040d820 f i Program.obj
 0001:0000c840       ??1InitializeProgram@@UAE@XZ 0040d840 f   Program.obj
 0001:0000c850       ?launcherStoppedAction@RestartNoReloadLauncherProgram@@UBE?AW4EAction@Program@@XZ 0040d850 f   Program.obj
 0001:0000c850       ?finishWhen@InitializeProgram@@UBE?AW4EFinishWhen@Program@@XZ 0040d850 f   Program.obj
 0001:0000c850       ?finishWhen@RestartNoReloadLauncherProgram@@UBE?AW4EFinishWhen@Program@@XZ 0040d850 f   Program.obj
 0001:0000c850       ?launcherStoppedAction@StopAndTestProgram@@UBE?AW4EAction@Program@@XZ 0040d850 f   Program.obj
 0001:0000c850       ?finishWhen@RestartAllProgram@@UBE?AW4EFinishWhen@Program@@XZ 0040d850 f   Program.obj
 0001:0000c850       ?finishWhen@UpdateAndRestartProgram@@UBE?AW4EFinishWhen@Program@@XZ 0040d850 f   Program.obj
 0001:0000c860       ?name@InitializeProgram@@UBE?AVQString@@XZ 0040d860 f   Program.obj
 0001:0000c890       ??0StopAndTestProgram@@QAE@XZ 0040d890 f   Program.obj
 0001:0000c8b0       ??_EStopAndTestProgram@@UAEPAXI@Z 0040d8b0 f i Program.obj
 0001:0000c8b0       ??_GStopAndTestProgram@@UAEPAXI@Z 0040d8b0 f i Program.obj
 0001:0000c8d0       ??1StopAndTestProgram@@UAE@XZ 0040d8d0 f   Program.obj
 0001:0000c8e0       ?doSync@StopAllProgram@@UBE_NXZ 0040d8e0 f   Program.obj
 0001:0000c8e0       ?doSync@StopAndReloadLauncherProgram@@UBE_NXZ 0040d8e0 f   Program.obj
 0001:0000c8e0       ?availableWhenStarted@InitializeProgram@@UBE_NXZ 0040d8e0 f   Program.obj
 0001:0000c8e0       ?availableWhenStarted@StartAndStopWithSyncProgram@@UBE_NXZ 0040d8e0 f   Program.obj
 0001:0000c8e0       ?availableWhenStopped@StopAndReloadLauncherProgram@@UBE_NXZ 0040d8e0 f   Program.obj
 0001:0000c8e0       ?doSync@RestartNoReloadLauncherProgram@@UBE_NXZ 0040d8e0 f   Program.obj
 0001:0000c8e0       ?doSync@StartAndStopNoSyncProgram@@UBE_NXZ 0040d8e0 f   Program.obj
 0001:0000c8e0       ?availableWhenStopped@ResyncAndReloadLauncherProgram@@UBE_NXZ 0040d8e0 f   Program.obj
 0001:0000c8e0       ?availableWhenStopped@StopAllProgram@@UBE_NXZ 0040d8e0 f   Program.obj
 0001:0000c8e0       ?availableWhenStopped@InitializeProgram@@UBE_NXZ 0040d8e0 f   Program.obj
 0001:0000c8e0       ?availableWhenStarted@StartAndStopNoSyncProgram@@UBE_NXZ 0040d8e0 f   Program.obj
 0001:0000c8e0       ?doSync@StopAndTestProgram@@UBE_NXZ 0040d8e0 f   Program.obj
 0001:0000c8e0       ?doSync@RestartAllProgram@@UBE_NXZ 0040d8e0 f   Program.obj
 0001:0000c8e0       ?availableWhenStopped@StopAndTestProgram@@UBE_NXZ 0040d8e0 f   Program.obj
 0001:0000c8f0       ?name@StopAndTestProgram@@UBE?AVQString@@XZ 0040d8f0 f   Program.obj
 0001:0000c920       ??0StopAndReloadLauncherProgram@@QAE@XZ 0040d920 f   Program.obj
 0001:0000c940       ??_EStopAndReloadLauncherProgram@@UAEPAXI@Z 0040d940 f i Program.obj
 0001:0000c940       ??_GStopAndReloadLauncherProgram@@UAEPAXI@Z 0040d940 f i Program.obj
 0001:0000c960       ??1StopAndReloadLauncherProgram@@UAE@XZ 0040d960 f   Program.obj
 0001:0000c970       ?name@StopAndReloadLauncherProgram@@UBE?AVQString@@XZ 0040d970 f   Program.obj
 0001:0000c9a0       ??0StartAndStopWithSyncProgram@@QAE@XZ 0040d9a0 f   Program.obj
 0001:0000c9c0       ??_EStartAndStopWithSyncProgram@@UAEPAXI@Z 0040d9c0 f i Program.obj
 0001:0000c9c0       ??_GStartAndStopWithSyncProgram@@UAEPAXI@Z 0040d9c0 f i Program.obj
 0001:0000c9e0       ??1StartAndStopWithSyncProgram@@UAE@XZ 0040d9e0 f   Program.obj
 0001:0000c9f0       ?name@StartAndStopWithSyncProgram@@UBE?AVQString@@XZ 0040d9f0 f   Program.obj
 0001:0000ca20       ??0StartAndStopNoSyncProgram@@QAE@XZ 0040da20 f   Program.obj
 0001:0000ca40       ??_GStartAndStopNoSyncProgram@@UAEPAXI@Z 0040da40 f i Program.obj
 0001:0000ca40       ??_EStartAndStopNoSyncProgram@@UAEPAXI@Z 0040da40 f i Program.obj
 0001:0000ca60       ??1StartAndStopNoSyncProgram@@UAE@XZ 0040da60 f   Program.obj
 0001:0000ca70       ?finishWhen@StopAndTestProgram@@UBE?AW4EFinishWhen@Program@@XZ 0040da70 f   Program.obj
 0001:0000ca70       ?launcherStoppedAction@StopAllProgram@@UBE?AW4EAction@Program@@XZ 0040da70 f   Program.obj
 0001:0000ca70       ?finishWhen@StartAndStopWithSyncProgram@@UBE?AW4EFinishWhen@Program@@XZ 0040da70 f   Program.obj
 0001:0000ca70       ?finishWhen@StartAndStopNoSyncProgram@@UBE?AW4EFinishWhen@Program@@XZ 0040da70 f   Program.obj
 0001:0000ca80       ?availableWhenStopped@StartAndStopWithSyncProgram@@UBE_NXZ 0040da80 f   Program.obj
 0001:0000ca80       ?doSync@InitializeProgram@@UBE_NXZ 0040da80 f   Program.obj
 0001:0000ca80       ?availableWhenStarted@StopAndTestProgram@@UBE_NXZ 0040da80 f   Program.obj
 0001:0000ca80       ?doSync@UpdateAndRestartProgram@@UBE_NXZ 0040da80 f   Program.obj
 0001:0000ca80       ?availableWhenStopped@RestartAllProgram@@UBE_NXZ 0040da80 f   Program.obj
 0001:0000ca80       ?availableWhenStarted@RestartAllProgram@@UBE_NXZ 0040da80 f   Program.obj
 0001:0000ca80       ?availableWhenStopped@UpdateAndRestartProgram@@UBE_NXZ 0040da80 f   Program.obj
 0001:0000ca80       ?availableWhenStarted@StopAndReloadLauncherProgram@@UBE_NXZ 0040da80 f   Program.obj
 0001:0000ca80       ?availableWhenStarted@ResyncAndReloadLauncherProgram@@UBE_NXZ 0040da80 f   Program.obj
 0001:0000ca80       ?doSync@StartAndStopWithSyncProgram@@UBE_NXZ 0040da80 f   Program.obj
 0001:0000ca80       ?availableWhenStarted@UpdateAndRestartProgram@@UBE_NXZ 0040da80 f   Program.obj
 0001:0000ca80       ?availableWhenStarted@StopAllProgram@@UBE_NXZ 0040da80 f   Program.obj
 0001:0000ca80       ?doSync@ResyncAndReloadLauncherProgram@@UBE_NXZ 0040da80 f   Program.obj
 0001:0000ca80       ?availableWhenStopped@StartAndStopNoSyncProgram@@UBE_NXZ 0040da80 f   Program.obj
 0001:0000ca80       ?availableWhenStopped@RestartNoReloadLauncherProgram@@UBE_NXZ 0040da80 f   Program.obj
 0001:0000ca80       ?availableWhenStarted@RestartNoReloadLauncherProgram@@UBE_NXZ 0040da80 f   Program.obj
 0001:0000ca90       ?launcherStoppedAction@StartAndStopNoSyncProgram@@UBE?AW4EAction@Program@@XZ 0040da90 f   Program.obj
 0001:0000ca90       ?launcherStoppedAction@UpdateAndRestartProgram@@UBE?AW4EAction@Program@@XZ 0040da90 f   Program.obj
 0001:0000ca90       ?launcherStoppedAction@RestartAllProgram@@UBE?AW4EAction@Program@@XZ 0040da90 f   Program.obj
 0001:0000ca90       ?launcherStoppedAction@StopAndReloadLauncherProgram@@UBE?AW4EAction@Program@@XZ 0040da90 f   Program.obj
 0001:0000ca90       ?launcherStoppedAction@InitializeProgram@@UBE?AW4EAction@Program@@XZ 0040da90 f   Program.obj
 0001:0000ca90       ?finishWhen@StopAllProgram@@UBE?AW4EFinishWhen@Program@@XZ 0040da90 f   Program.obj
 0001:0000ca90       ?launcherStoppedAction@StartAndStopWithSyncProgram@@UBE?AW4EAction@Program@@XZ 0040da90 f   Program.obj
 0001:0000ca90       ?launcherStoppedAction@ResyncAndReloadLauncherProgram@@UBE?AW4EAction@Program@@XZ 0040da90 f   Program.obj
 0001:0000caa0       ?name@StartAndStopNoSyncProgram@@UBE?AVQString@@XZ 0040daa0 f   Program.obj
 0001:0000cad0       ??0RestartNoReloadLauncherProgram@@QAE@XZ 0040dad0 f   Program.obj
 0001:0000caf0       ??_GRestartNoReloadLauncherProgram@@UAEPAXI@Z 0040daf0 f i Program.obj
 0001:0000caf0       ??_ERestartNoReloadLauncherProgram@@UAEPAXI@Z 0040daf0 f i Program.obj
 0001:0000cb10       ??1RestartNoReloadLauncherProgram@@UAE@XZ 0040db10 f   Program.obj
 0001:0000cb20       ?name@RestartNoReloadLauncherProgram@@UBE?AVQString@@XZ 0040db20 f   Program.obj
 0001:0000cb50       ??0ResyncAndReloadLauncherProgram@@QAE@XZ 0040db50 f   Program.obj
 0001:0000cb70       ??_GResyncAndReloadLauncherProgram@@UAEPAXI@Z 0040db70 f i Program.obj
 0001:0000cb70       ??_EResyncAndReloadLauncherProgram@@UAEPAXI@Z 0040db70 f i Program.obj
 0001:0000cb90       ??1ResyncAndReloadLauncherProgram@@UAE@XZ 0040db90 f   Program.obj
 0001:0000cba0       ?finishWhen@StopAndReloadLauncherProgram@@UBE?AW4EFinishWhen@Program@@XZ 0040dba0 f   Program.obj
 0001:0000cba0       ?finishWhen@ResyncAndReloadLauncherProgram@@UBE?AW4EFinishWhen@Program@@XZ 0040dba0 f   Program.obj
 0001:0000cbb0       ?name@ResyncAndReloadLauncherProgram@@UBE?AVQString@@XZ 0040dbb0 f   Program.obj
 0001:0000cbe0       ??0restartDialog@@QAE@PAVQWidget@@PBD_NI@Z 0040dbe0 f   restartdialogimpl.obj
 0001:0000cc60       ?metaObject@restartDialog@@UBEPAVQMetaObject@@XZ 0040dc60 f i restartdialogimpl.obj
 0001:0000cc70       ??_ErestartDialog@@UAEPAXI@Z 0040dc70 f i restartdialogimpl.obj
 0001:0000cc70       ??_GrestartDialog@@UAEPAXI@Z 0040dc70 f i restartdialogimpl.obj
 0001:0000cc90       ??1restartDialog@@UAE@XZ   0040dc90 f   restartdialogimpl.obj
 0001:0000ccb0       ?timerEvent@restartDialog@@EAEXPAVQTimerEvent@@@Z 0040dcb0 f   restartdialogimpl.obj
 0001:0000cdb0       ??_ErestartDialog@@WCI@AEPAXI@Z 0040ddb0 f i restartdialogimpl.obj
 0001:0000cdc0       ??0restartThread@@QAE@XZ   0040ddc0 f   restartThread.obj
 0001:0000cde0       ??_GrestartThread@@UAEPAXI@Z 0040dde0 f i restartThread.obj
 0001:0000cde0       ??_ErestartThread@@UAEPAXI@Z 0040dde0 f i restartThread.obj
 0001:0000ce00       ??1restartThread@@UAE@XZ   0040de00 f   restartThread.obj
 0001:0000ce10       ?run@restartThread@@UAEXXZ 0040de10 f   restartThread.obj
 0001:0000ce60       ??0startCSI@@QAE@PAVQObject@@PBD@Z 0040de60 f   startCSI.obj
 0001:0000d050       ?metaObject@startCSI@@UBEPAVQMetaObject@@XZ 0040e050 f i startCSI.obj
 0001:0000d060       ??_GstartCSI@@UAEPAXI@Z    0040e060 f i startCSI.obj
 0001:0000d060       ??_EstartCSI@@UAEPAXI@Z    0040e060 f i startCSI.obj
 0001:0000d080       ??1startCSI@@UAE@XZ        0040e080 f   startCSI.obj
 0001:0000d0e0       ?start@startCSI@@UAE_NPAVQStringList@@@Z 0040e0e0 f   startCSI.obj
 0001:0000d120       ?timerEvent@startCSI@@UAEXPAVQTimerEvent@@@Z 0040e120 f   startCSI.obj
 0001:0000d1c0       ?csiProcessExited@startCSI@@QAEXXZ 0040e1c0 f   startCSI.obj
 0001:0000d3b0       ?rebootOnCrash@startCSI@@QAEX_N@Z 0040e3b0 f   startCSI.obj
 0001:0000d3c0       ??0startCSIHelper@@QAE@XZ  0040e3c0 f   startCSIHelper.obj
 0001:0000d430       ?metaObject@startCSIHelper@@UBEPAVQMetaObject@@XZ 0040e430 f i startCSIHelper.obj
 0001:0000d440       ??_GstartCSIHelper@@UAEPAXI@Z 0040e440 f i startCSIHelper.obj
 0001:0000d440       ??_EstartCSIHelper@@UAEPAXI@Z 0040e440 f i startCSIHelper.obj
 0001:0000d460       ??1startCSIHelper@@UAE@XZ  0040e460 f   startCSIHelper.obj
 0001:0000d480       ?hWndCSI@startCSIHelper@@QAEPAUHWND__@@XZ 0040e480 f   startCSIHelper.obj
 0001:0000d490       ?winEvent@startCSIHelper@@UAE_NPAUtagMSG@@@Z 0040e490 f   startCSIHelper.obj
 0001:0000d4b0       ??_EstartCSIHelper@@WCI@AEPAXI@Z 0040e4b0 f i startCSIHelper.obj
 0001:0000d4c0       ??0SyncProcess@@QAE@XZ     0040e4c0 f   SyncProcess.obj
 0001:0000d570       ?metaObject@SyncProcess@@UBEPAVQMetaObject@@XZ 0040e570 f i SyncProcess.obj
 0001:0000d580       ??_GSyncProcess@@UAEPAXI@Z 0040e580 f i SyncProcess.obj
 0001:0000d580       ??_ESyncProcess@@UAEPAXI@Z 0040e580 f i SyncProcess.obj
 0001:0000d5a0       ??1SyncProcess@@UAE@XZ     0040e5a0 f   SyncProcess.obj
 0001:0000d660       ?processFinished@SyncProcess@@IAEXXZ 0040e660 f   SyncProcess.obj
 0001:0000d680       ?readStdout@SyncProcess@@IAEXXZ 0040e680 f   SyncProcess.obj
 0001:0000d760       ?readStderr@SyncProcess@@IAEXXZ 0040e760 f   SyncProcess.obj
 0001:0000d890       ?moveSettings@SyncProcess@@IAEXXZ 0040e890 f   SyncProcess.obj
 0001:0000de20       ?commonSetUp@SyncProcess@@IAEXVQString@@00@Z 0040ee20 f   SyncProcess.obj
 0001:0000df30       ?startProcess@SyncProcess@@QAEXXZ 0040ef30 f   SyncProcess.obj
 0001:0000e0b0       ??0NoSyncProcess@@QAE@XZ   0040f0b0 f   SyncProcess.obj
 0001:0000e2d0       ?metaObject@NoSyncProcess@@UBEPAVQMetaObject@@XZ 0040f2d0 f i SyncProcess.obj
 0001:0000e2e0       ??_ENoSyncProcess@@UAEPAXI@Z 0040f2e0 f i SyncProcess.obj
 0001:0000e2e0       ??_GNoSyncProcess@@UAEPAXI@Z 0040f2e0 f i SyncProcess.obj
 0001:0000e300       ??_EQProcess@@UAEPAXI@Z    0040f300 f i SyncProcess.obj
 0001:0000e300       ??_GQProcess@@UAEPAXI@Z    0040f300 f i SyncProcess.obj
 0001:0000e320       ??1NoSyncProcess@@UAE@XZ   0040f320 f   SyncProcess.obj
 0001:0000e330       ?processExited@NoSyncProcess@@AAEXXZ 0040f330 f   SyncProcess.obj
 0001:0000e370       ??0FileSyncProcess@@QAE@XZ 0040f370 f   SyncProcess.obj
 0001:0000e8e0       ?metaObject@FileSyncProcess@@UBEPAVQMetaObject@@XZ 0040f8e0 f i SyncProcess.obj
 0001:0000e8f0       ??_EFileSyncProcess@@UAEPAXI@Z 0040f8f0 f i SyncProcess.obj
 0001:0000e8f0       ??_GFileSyncProcess@@UAEPAXI@Z 0040f8f0 f i SyncProcess.obj
 0001:0000e910       ??1FileSyncProcess@@UAE@XZ 0040f910 f   SyncProcess.obj
 0001:0000e970       ?processExited@FileSyncProcess@@AAEXXZ 0040f970 f   SyncProcess.obj
 0001:0000f550       ??0AboutDialogBase@@QAE@PAVQWidget@@PBD_NI@Z 00410550 f   AboutDialogBase.obj
 0001:0000fcd0       ??_GQSpacerItem@@UAEPAXI@Z 00410cd0 f i AboutDialogBase.obj
 0001:0000fcd0       ??_EQSpacerItem@@UAEPAXI@Z 00410cd0 f i AboutDialogBase.obj
 0001:0000fcf0       ??_EAboutDialogBase@@UAEPAXI@Z 00410cf0 f i AboutDialogBase.obj
 0001:0000fcf0       ??_GAboutDialogBase@@UAEPAXI@Z 00410cf0 f i AboutDialogBase.obj
 0001:0000fd10       ??_GQVBoxLayout@@UAEPAXI@Z 00410d10 f i AboutDialogBase.obj
 0001:0000fd10       ??_EQVBoxLayout@@UAEPAXI@Z 00410d10 f i AboutDialogBase.obj
 0001:0000fd30       ??_GQLabel@@UAEPAXI@Z      00410d30 f i AboutDialogBase.obj
 0001:0000fd30       ??_EQLabel@@UAEPAXI@Z      00410d30 f i AboutDialogBase.obj
 0001:0000fd50       ??_EQHBoxLayout@@UAEPAXI@Z 00410d50 f i AboutDialogBase.obj
 0001:0000fd50       ??_GQHBoxLayout@@UAEPAXI@Z 00410d50 f i AboutDialogBase.obj
 0001:0000fd70       ??_EQPushButton@@UAEPAXI@Z 00410d70 f i AboutDialogBase.obj
 0001:0000fd70       ??_GQPushButton@@UAEPAXI@Z 00410d70 f i AboutDialogBase.obj
 0001:0000fd90       ??1AboutDialogBase@@UAE@XZ 00410d90 f   AboutDialogBase.obj
 0001:0000fdb0       ?languageChange@AboutDialogBase@@MAEXXZ 00410db0 f   AboutDialogBase.obj
 0001:00010200       ??_EQVBoxLayout@@WCI@AEPAXI@Z 00411200 f i AboutDialogBase.obj
 0001:00010210       ??_EQHBoxLayout@@WCI@AEPAXI@Z 00411210 f i AboutDialogBase.obj
 0001:00010220       ??_EQLabel@@WCI@AEPAXI@Z   00411220 f i AboutDialogBase.obj
 0001:00010230       ??_EAboutDialogBase@@WCI@AEPAXI@Z 00411230 f i AboutDialogBase.obj
 0001:00010240       ??_EQPushButton@@WCI@AEPAXI@Z 00411240 f i AboutDialogBase.obj
 0001:00010250       ??0bncs_ws_manDialogBase@@QAE@PAVQWidget@@PBDI@Z 00411250 f   bncs_ws_mandialogbase.obj
 0001:00010d50       ?metaObject@bncs_ws_manDialogBase@@UBEPAVQMetaObject@@XZ 00411d50 f i bncs_ws_mandialogbase.obj
 0001:00010d60       ??_Gbncs_ws_manDialogBase@@UAEPAXI@Z 00411d60 f i bncs_ws_mandialogbase.obj
 0001:00010d60       ??_Ebncs_ws_manDialogBase@@UAEPAXI@Z 00411d60 f i bncs_ws_mandialogbase.obj
 0001:00010d80       ??_EQWidget@@UAEPAXI@Z     00411d80 f i bncs_ws_mandialogbase.obj
 0001:00010d80       ??_GQWidget@@UAEPAXI@Z     00411d80 f i bncs_ws_mandialogbase.obj
 0001:00010da0       ??_EQGroupBox@@UAEPAXI@Z   00411da0 f i bncs_ws_mandialogbase.obj
 0001:00010da0       ??_GQGroupBox@@UAEPAXI@Z   00411da0 f i bncs_ws_mandialogbase.obj
 0001:00010dc0       ??_GQAction@@UAEPAXI@Z     00411dc0 f i bncs_ws_mandialogbase.obj
 0001:00010dc0       ??_EQAction@@UAEPAXI@Z     00411dc0 f i bncs_ws_mandialogbase.obj
 0001:00010de0       ??_GQMenuBar@@UAEPAXI@Z    00411de0 f i bncs_ws_mandialogbase.obj
 0001:00010de0       ??_EQMenuBar@@UAEPAXI@Z    00411de0 f i bncs_ws_mandialogbase.obj
 0001:00010e00       ??_EQPopupMenu@@UAEPAXI@Z  00411e00 f i bncs_ws_mandialogbase.obj
 0001:00010e00       ??_GQPopupMenu@@UAEPAXI@Z  00411e00 f i bncs_ws_mandialogbase.obj
 0001:00010e20       ??1bncs_ws_manDialogBase@@UAE@XZ 00411e20 f   bncs_ws_mandialogbase.obj
 0001:00010e40       ?languageChange@bncs_ws_manDialogBase@@MAEXXZ 00411e40 f   bncs_ws_mandialogbase.obj
 0001:000113a0       ??_EQGroupBox@@WCI@AEPAXI@Z 004123a0 f i bncs_ws_mandialogbase.obj
 0001:000113b0       ??_Ebncs_ws_manDialogBase@@WCI@AEPAXI@Z 004123b0 f i bncs_ws_mandialogbase.obj
 0001:000113c0       ??_EQWidget@@WCI@AEPAXI@Z  004123c0 f i bncs_ws_mandialogbase.obj
 0001:000113d0       ??_EQMenuBar@@WCI@AEPAXI@Z 004123d0 f i bncs_ws_mandialogbase.obj
 0001:000113e0       ??_EQMenuBar@@WIM@AEPAXI@Z 004123e0 f i bncs_ws_mandialogbase.obj
 0001:000113f0       ??_EQPopupMenu@@WCI@AEPAXI@Z 004123f0 f i bncs_ws_mandialogbase.obj
 0001:00011400       ??_EQPopupMenu@@WIM@AEPAXI@Z 00412400 f i bncs_ws_mandialogbase.obj
 0001:00011410       ??0csi_startDialogBase@@QAE@PAVQWidget@@PBDI@Z 00412410 f   csi_startdialogbase.obj
 0001:00011a10       ?metaObject@csi_startDialogBase@@UBEPAVQMetaObject@@XZ 00412a10 f i csi_startdialogbase.obj
 0001:00011a20       ??_Gcsi_startDialogBase@@UAEPAXI@Z 00412a20 f i csi_startdialogbase.obj
 0001:00011a20       ??_Ecsi_startDialogBase@@UAEPAXI@Z 00412a20 f i csi_startdialogbase.obj
 0001:00011a40       ??_GQListView@@UAEPAXI@Z   00412a40 f i csi_startdialogbase.obj
 0001:00011a40       ??_EQListView@@UAEPAXI@Z   00412a40 f i csi_startdialogbase.obj
 0001:00011a60       ??1csi_startDialogBase@@UAE@XZ 00412a60 f   csi_startdialogbase.obj
 0001:00011a80       ?languageChange@csi_startDialogBase@@MAEXXZ 00412a80 f   csi_startdialogbase.obj
 0001:00011e50       ??_EQListView@@WCI@AEPAXI@Z 00412e50 f i csi_startdialogbase.obj
 0001:00011e60       ??_Ecsi_startDialogBase@@WCI@AEPAXI@Z 00412e60 f i csi_startdialogbase.obj
 0001:00011e70       ??0logDialogBase@@QAE@PAVQWidget@@PBD_NI@Z 00412e70 f   logdialog.obj
 0001:00012160       ?metaObject@logDialogBase@@UBEPAVQMetaObject@@XZ 00413160 f i logdialog.obj
 0001:00012170       ??_GlogDialogBase@@UAEPAXI@Z 00413170 f i logdialog.obj
 0001:00012170       ??_ElogDialogBase@@UAEPAXI@Z 00413170 f i logdialog.obj
 0001:00012190       ??_GQListBox@@UAEPAXI@Z    00413190 f i logdialog.obj
 0001:00012190       ??_EQListBox@@UAEPAXI@Z    00413190 f i logdialog.obj
 0001:000121b0       ??1logDialogBase@@UAE@XZ   004131b0 f   logdialog.obj
 0001:000121d0       ?languageChange@logDialogBase@@MAEXXZ 004131d0 f   logdialog.obj
 0001:000122f0       ??_EQListBox@@WCI@AEPAXI@Z 004132f0 f i logdialog.obj
 0001:00012300       ??_ElogDialogBase@@WCI@AEPAXI@Z 00413300 f i logdialog.obj
 0001:00012310       ?className@AboutDialogBase@@UBEPBDXZ 00413310 f   moc_AboutDialogBase.obj
 0001:00012370       ?tr@AboutDialogBase@@SA?AVQString@@PBD0@Z 00413370 f   moc_AboutDialogBase.obj
 0001:000123c0       ?staticMetaObject@AboutDialogBase@@SAPAVQMetaObject@@XZ 004133c0 f   moc_AboutDialogBase.obj
 0001:00012410       ?qt_cast@AboutDialogBase@@UAEPAXPBD@Z 00413410 f   moc_AboutDialogBase.obj
 0001:00012480       ?qt_invoke@AboutDialogBase@@UAE_NHPAUQUObject@@@Z 00413480 f   moc_AboutDialogBase.obj
 0001:000124c0       ?qt_property@logDialogBase@@UAE_NHHPAVQVariant@@@Z 004134c0 f   moc_AboutDialogBase.obj
 0001:000124c0       ?qt_property@AboutDialogBase@@UAE_NHHPAVQVariant@@@Z 004134c0 f   moc_AboutDialogBase.obj
 0001:000124c0       ?qt_property@restartDialogBase@@UAE_NHHPAVQVariant@@@Z 004134c0 f   moc_AboutDialogBase.obj
 0001:000124e0       ?className@bncs_ws_manDialog@@UBEPBDXZ 004134e0 f   moc_bncs_ws_mandialog.obj
 0001:00012540       ?staticMetaObject@bncs_ws_manDialog@@SAPAVQMetaObject@@XZ 00413540 f   moc_bncs_ws_mandialog.obj
 0001:000126a0       ?qt_cast@bncs_ws_manDialog@@UAEPAXPBD@Z 004136a0 f   moc_bncs_ws_mandialog.obj
 0001:00012710       ?qt_invoke@bncs_ws_manDialog@@UAE_NHPAUQUObject@@@Z 00413710 f   moc_bncs_ws_mandialog.obj
 0001:000128c0       ?qt_emit@bncs_ws_manDialog@@UAE_NHPAUQUObject@@@Z 004138c0 f   moc_bncs_ws_mandialog.obj
 0001:000128e0       ?qt_property@bncs_ws_manDialog@@UAE_NHHPAVQVariant@@@Z 004138e0 f   moc_bncs_ws_mandialog.obj
 0001:00012900       ?className@bncs_ws_manDialogBase@@UBEPBDXZ 00413900 f   moc_bncs_ws_mandialogbase.obj
 0001:00012960       ?tr@bncs_ws_manDialogBase@@SA?AVQString@@PBD0@Z 00413960 f   moc_bncs_ws_mandialogbase.obj
 0001:000129b0       ?staticMetaObject@bncs_ws_manDialogBase@@SAPAVQMetaObject@@XZ 004139b0 f   moc_bncs_ws_mandialogbase.obj
 0001:00012a00       ?qt_cast@bncs_ws_manDialogBase@@UAEPAXPBD@Z 00413a00 f   moc_bncs_ws_mandialogbase.obj
 0001:00012a70       ?qt_invoke@bncs_ws_manDialogBase@@UAE_NHPAUQUObject@@@Z 00413a70 f   moc_bncs_ws_mandialogbase.obj
 0001:00012ab0       ?qt_emit@bncs_ws_manDialogBase@@UAE_NHPAUQUObject@@@Z 00413ab0 f   moc_bncs_ws_mandialogbase.obj
 0001:00012ad0       ?qt_property@bncs_ws_manDialogBase@@UAE_NHHPAVQVariant@@@Z 00413ad0 f   moc_bncs_ws_mandialogbase.obj
 0001:00012af0       ?className@csi_startDialog@@UBEPBDXZ 00413af0 f   moc_csi_startdialog.obj
 0001:00012b50       ?staticMetaObject@csi_startDialog@@SAPAVQMetaObject@@XZ 00413b50 f   moc_csi_startdialog.obj
 0001:00012c90       ?qt_cast@csi_startDialog@@UAEPAXPBD@Z 00413c90 f   moc_csi_startdialog.obj
 0001:00012d00       ?restart@csi_startDialog@@IAEXXZ 00413d00 f   moc_csi_startdialog.obj
 0001:00012d20       ?stateChanged@csi_startDialog@@IAEXW4status@workstationStatus@@@Z 00413d20 f   moc_csi_startdialog.obj
 0001:00012de0       ?qt_invoke@csi_startDialog@@UAE_NHPAUQUObject@@@Z 00413de0 f   moc_csi_startdialog.obj
 0001:00012ee0       ?qt_emit@csi_startDialog@@UAE_NHPAUQUObject@@@Z 00413ee0 f   moc_csi_startdialog.obj
 0001:00012f40       ?qt_property@csi_startDialog@@UAE_NHHPAVQVariant@@@Z 00413f40 f   moc_csi_startdialog.obj
 0001:00012f60       ?className@csi_startDialogBase@@UBEPBDXZ 00413f60 f   moc_csi_startdialogbase.obj
 0001:00012fc0       ?tr@csi_startDialogBase@@SA?AVQString@@PBD0@Z 00413fc0 f   moc_csi_startdialogbase.obj
 0001:00013010       ?staticMetaObject@csi_startDialogBase@@SAPAVQMetaObject@@XZ 00414010 f   moc_csi_startdialogbase.obj
 0001:00013060       ?qt_cast@csi_startDialogBase@@UAEPAXPBD@Z 00414060 f   moc_csi_startdialogbase.obj
 0001:000130d0       ?qt_invoke@csi_startDialogBase@@UAE_NHPAUQUObject@@@Z 004140d0 f   moc_csi_startdialogbase.obj
 0001:00013110       ?qt_property@startCSIHelper@@UAE_NHHPAVQVariant@@@Z 00414110 f   moc_csi_startdialogbase.obj
 0001:00013110       ?qt_property@csi_startDialogBase@@UAE_NHHPAVQVariant@@@Z 00414110 f   moc_csi_startdialogbase.obj
 0001:00013130       ?className@logDelete@@UBEPBDXZ 00414130 f   moc_logDelete.obj
 0001:00013190       ?staticMetaObject@logDelete@@SAPAVQMetaObject@@XZ 00414190 f   moc_logDelete.obj
 0001:000131e0       ?qt_cast@logDelete@@UAEPAXPBD@Z 004141e0 f   moc_logDelete.obj
 0001:00013250       ?qt_invoke@logDelete@@UAE_NHPAUQUObject@@@Z 00414250 f   moc_logDelete.obj
 0001:00013270       ?qt_emit@logDelete@@UAE_NHPAUQUObject@@@Z 00414270 f   moc_logDelete.obj
 0001:00013290       ?className@logDialogBase@@UBEPBDXZ 00414290 f   moc_logdialog.obj
 0001:000132f0       ?tr@logDialogBase@@SA?AVQString@@PBD0@Z 004142f0 f   moc_logdialog.obj
 0001:00013340       ?staticMetaObject@logDialogBase@@SAPAVQMetaObject@@XZ 00414340 f   moc_logdialog.obj
 0001:00013390       ?qt_cast@logDialogBase@@UAEPAXPBD@Z 00414390 f   moc_logdialog.obj
 0001:00013400       ?qt_invoke@logDialogBase@@UAE_NHPAUQUObject@@@Z 00414400 f   moc_logdialog.obj
 0001:00013440       ?className@logDialog@@UBEPBDXZ 00414440 f   moc_logdialogimpl.obj
 0001:000134a0       ?staticMetaObject@logDialog@@SAPAVQMetaObject@@XZ 004144a0 f   moc_logdialogimpl.obj
 0001:000134f0       ?qt_cast@logDialog@@UAEPAXPBD@Z 004144f0 f   moc_logdialogimpl.obj
 0001:00013560       ?qt_invoke@logDialog@@UAE_NHPAUQUObject@@@Z 00414560 f   moc_logdialogimpl.obj
 0001:000135b0       ?className@netComms@@UBEPBDXZ 004145b0 f   moc_netComms.obj
 0001:00013610       ?staticMetaObject@netComms@@SAPAVQMetaObject@@XZ 00414610 f   moc_netComms.obj
 0001:00013700       ?qt_cast@netComms@@UAEPAXPBD@Z 00414700 f   moc_netComms.obj
 0001:00013770       ?restart@netComms@@IAEXH@Z 00414770 f   moc_netComms.obj
 0001:00013790       ?stop@netComms@@IAEXH@Z    00414790 f   moc_netComms.obj
 0001:000137b0       ?start@netComms@@IAEXH@Z   004147b0 f   moc_netComms.obj
 0001:000137d0       ?qt_invoke@netComms@@UAE_NHPAUQUObject@@@Z 004147d0 f   moc_netComms.obj
 0001:00013810       ?qt_emit@netComms@@UAE_NHPAUQUObject@@@Z 00414810 f   moc_netComms.obj
 0001:00013890       ?className@processBase@@UBEPBDXZ 00414890 f   moc_processBase.obj
 0001:000138f0       ?staticMetaObject@processBase@@SAPAVQMetaObject@@XZ 004148f0 f   moc_processBase.obj
 0001:000139b0       ?qt_cast@processBase@@UAEPAXPBD@Z 004149b0 f   moc_processBase.obj
 0001:00013a20       ?done@processBase@@IAEX_N@Z 00414a20 f   moc_processBase.obj
 0001:00013a40       ?signalFixUpAutoStart@processBase@@IAEXPAV1@@Z 00414a40 f   moc_processBase.obj
 0001:00013b00       ?qt_invoke@processBase@@UAE_NHPAUQUObject@@@Z 00414b00 f   moc_processBase.obj
 0001:00013b60       ?qt_emit@processBase@@UAE_NHPAUQUObject@@@Z 00414b60 f   moc_processBase.obj
 0001:00013bc0       ?qt_property@processBase@@UAE_NHHPAVQVariant@@@Z 00414bc0 f   moc_processBase.obj
 0001:00013be0       ?className@restartDialogBase@@UBEPBDXZ 00414be0 f   moc_restartdialog.obj
 0001:00013c40       ?tr@restartDialogBase@@SA?AVQString@@PBD0@Z 00414c40 f   moc_restartdialog.obj
 0001:00013c90       ?staticMetaObject@restartDialogBase@@SAPAVQMetaObject@@XZ 00414c90 f   moc_restartdialog.obj
 0001:00013ce0       ?qt_cast@restartDialogBase@@UAEPAXPBD@Z 00414ce0 f   moc_restartdialog.obj
 0001:00013d50       ?qt_invoke@restartDialogBase@@UAE_NHPAUQUObject@@@Z 00414d50 f   moc_restartdialog.obj
 0001:00013d90       ?qt_emit@AboutDialogBase@@UAE_NHPAUQUObject@@@Z 00414d90 f   moc_restartdialog.obj
 0001:00013d90       ?qt_emit@restartDialogBase@@UAE_NHPAUQUObject@@@Z 00414d90 f   moc_restartdialog.obj
 0001:00013d90       ?qt_emit@logDialogBase@@UAE_NHPAUQUObject@@@Z 00414d90 f   moc_restartdialog.obj
 0001:00013db0       ?className@restartDialog@@UBEPBDXZ 00414db0 f   moc_restartdialogimpl.obj
 0001:00013e10       ?staticMetaObject@restartDialog@@SAPAVQMetaObject@@XZ 00414e10 f   moc_restartdialogimpl.obj
 0001:00013e60       ?qt_cast@restartDialog@@UAEPAXPBD@Z 00414e60 f   moc_restartdialogimpl.obj
 0001:00013ed0       ?qt_invoke@restartDialog@@UAE_NHPAUQUObject@@@Z 00414ed0 f   moc_restartdialogimpl.obj
 0001:00013ef0       ?qt_emit@restartDialog@@UAE_NHPAUQUObject@@@Z 00414ef0 f   moc_restartdialogimpl.obj
 0001:00013ef0       ?qt_emit@logDialog@@UAE_NHPAUQUObject@@@Z 00414ef0 f   moc_restartdialogimpl.obj
 0001:00013f10       ?qt_property@restartDialog@@UAE_NHHPAVQVariant@@@Z 00414f10 f   moc_restartdialogimpl.obj
 0001:00013f10       ?qt_property@logDialog@@UAE_NHHPAVQVariant@@@Z 00414f10 f   moc_restartdialogimpl.obj
 0001:00013f30       ?className@startCSI@@UBEPBDXZ 00414f30 f   moc_startCSI.obj
 0001:00013f90       ?staticMetaObject@startCSI@@SAPAVQMetaObject@@XZ 00414f90 f   moc_startCSI.obj
 0001:00013fe0       ?qt_cast@startCSI@@UAEPAXPBD@Z 00414fe0 f   moc_startCSI.obj
 0001:00014050       ?qt_invoke@startCSI@@UAE_NHPAUQUObject@@@Z 00415050 f   moc_startCSI.obj
 0001:00014090       ?qt_emit@startCSI@@UAE_NHPAUQUObject@@@Z 00415090 f   moc_startCSI.obj
 0001:000140b0       ?qt_property@startCSI@@UAE_NHHPAVQVariant@@@Z 004150b0 f   moc_startCSI.obj
 0001:000140d0       ?className@startCSIHelper@@UBEPBDXZ 004150d0 f   moc_startCSIHelper.obj
 0001:00014130       ?staticMetaObject@startCSIHelper@@SAPAVQMetaObject@@XZ 00415130 f   moc_startCSIHelper.obj
 0001:00014180       ?qt_cast@startCSIHelper@@UAEPAXPBD@Z 00415180 f   moc_startCSIHelper.obj
 0001:000141f0       ?qt_invoke@startCSIHelper@@UAE_NHPAUQUObject@@@Z 004151f0 f   moc_startCSIHelper.obj
 0001:00014210       ?qt_emit@csi_startDialogBase@@UAE_NHPAUQUObject@@@Z 00415210 f   moc_startCSIHelper.obj
 0001:00014210       ?qt_emit@startCSIHelper@@UAE_NHPAUQUObject@@@Z 00415210 f   moc_startCSIHelper.obj
 0001:00014230       ?className@SyncProcess@@UBEPBDXZ 00415230 f   moc_SyncProcess.obj
 0001:00014290       ?staticMetaObject@SyncProcess@@SAPAVQMetaObject@@XZ 00415290 f   moc_SyncProcess.obj
 0001:00014320       ?qt_cast@SyncProcess@@UAEPAXPBD@Z 00415320 f   moc_SyncProcess.obj
 0001:00014390       ?setStatus@SyncProcess@@IAEXVQString@@@Z 00415390 f   moc_SyncProcess.obj
 0001:00014420       ?finished@SyncProcess@@IAEXXZ 00415420 f   moc_SyncProcess.obj
 0001:00014440       ?qt_invoke@SyncProcess@@UAE_NHPAUQUObject@@@Z 00415440 f   moc_SyncProcess.obj
 0001:00014490       ?qt_emit@SyncProcess@@UAE_NHPAUQUObject@@@Z 00415490 f   moc_SyncProcess.obj
 0001:00014500       ?qt_property@netComms@@UAE_NHHPAVQVariant@@@Z 00415500 f   moc_SyncProcess.obj
 0001:00014500       ?qt_property@SyncProcess@@UAE_NHHPAVQVariant@@@Z 00415500 f   moc_SyncProcess.obj
 0001:00014500       ?qt_property@logDelete@@UAE_NHHPAVQVariant@@@Z 00415500 f   moc_SyncProcess.obj
 0001:00014520       ?className@NoSyncProcess@@UBEPBDXZ 00415520 f   moc_SyncProcess.obj
 0001:00014580       ?staticMetaObject@NoSyncProcess@@SAPAVQMetaObject@@XZ 00415580 f   moc_SyncProcess.obj
 0001:000145d0       ?qt_cast@NoSyncProcess@@UAEPAXPBD@Z 004155d0 f   moc_SyncProcess.obj
 0001:00014640       ?qt_invoke@NoSyncProcess@@UAE_NHPAUQUObject@@@Z 00415640 f   moc_SyncProcess.obj
 0001:00014680       ?qt_property@NoSyncProcess@@UAE_NHHPAVQVariant@@@Z 00415680 f   moc_SyncProcess.obj
 0001:00014680       ?qt_property@FileSyncProcess@@UAE_NHHPAVQVariant@@@Z 00415680 f   moc_SyncProcess.obj
 0001:000146a0       ?className@FileSyncProcess@@UBEPBDXZ 004156a0 f   moc_SyncProcess.obj
 0001:00014700       ?staticMetaObject@FileSyncProcess@@SAPAVQMetaObject@@XZ 00415700 f   moc_SyncProcess.obj
 0001:00014750       ?qt_cast@FileSyncProcess@@UAEPAXPBD@Z 00415750 f   moc_SyncProcess.obj
 0001:000147c0       ?qt_invoke@FileSyncProcess@@UAE_NHPAUQUObject@@@Z 004157c0 f   moc_SyncProcess.obj
 0001:00014800       ?qt_emit@FileSyncProcess@@UAE_NHPAUQUObject@@@Z 00415800 f   moc_SyncProcess.obj
 0001:00014800       ?qt_emit@NoSyncProcess@@UAE_NHPAUQUObject@@@Z 00415800 f   moc_SyncProcess.obj
 0001:00014820       ??0restartDialogBase@@QAE@PAVQWidget@@PBD_NI@Z 00415820 f   restartdialog.obj
 0001:00014c10       ?metaObject@restartDialogBase@@UBEPAVQMetaObject@@XZ 00415c10 f i restartdialog.obj
 0001:00014c20       ??_GrestartDialogBase@@UAEPAXI@Z 00415c20 f i restartdialog.obj
 0001:00014c20       ??_ErestartDialogBase@@UAEPAXI@Z 00415c20 f i restartdialog.obj
 0001:00014c40       ??1restartDialogBase@@UAE@XZ 00415c40 f   restartdialog.obj
 0001:00014c60       ?languageChange@restartDialogBase@@MAEXXZ 00415c60 f   restartdialog.obj
 0001:00014f10       ??_ErestartDialogBase@@WCI@AEPAXI@Z 00415f10 f i restartdialog.obj
 0001:00014f18       _VerQueryValueA@16         00415f18 f   version:VERSION.dll
 0001:00014f1e       _GetFileVersionInfoA@16    00415f1e f   version:VERSION.dll
 0001:00014f24       _GetFileVersionInfoSizeA@8 00415f24 f   version:VERSION.dll
 0001:00014f2a       _setsockopt@20             00415f2a f   wsock32:WSOCK32.dll
 0001:00014f30       ??0bncs_disklog@@QAE@PBDW4filetype@0@000000@Z 00415f30 f   bncs_disklog:bncs_disklog.obj
 0001:00014f80       ??_Ebncs_disklog@@UAEPAXI@Z 00415f80 f i bncs_disklog:bncs_disklog.obj
 0001:00014f80       ??_Gbncs_disklog@@UAEPAXI@Z 00415f80 f i bncs_disklog:bncs_disklog.obj
 0001:00014fa0       ??0bncs_disklog@@QAE@PBDW4filetype@0@@Z 00415fa0 f   bncs_disklog:bncs_disklog.obj
 0001:00014fd0       ?initVars@bncs_disklog@@AAEXXZ 00415fd0 f   bncs_disklog:bncs_disklog.obj
 0001:00014fe0       ?openLogFile@bncs_disklog@@AAEXPBDW4filetype@1@@Z 00415fe0 f   bncs_disklog:bncs_disklog.obj
 0001:000151f0       ?cleanup@bncs_disklog@@AAEXXZ 004161f0 f   bncs_disklog:bncs_disklog.obj
 0001:00015210       ??1bncs_disklog@@UAE@XZ    00416210 f   bncs_disklog:bncs_disklog.obj
 0001:00015220       ?write@bncs_disklog@@QAEXPBD00000@Z 00416220 f   bncs_disklog:bncs_disklog.obj
 0001:00015450       ?createDirectory@bncs_disklog@@AAEXPBD@Z 00416450 f   bncs_disklog:bncs_disklog.obj
 0001:00015570       ??0cBncsVersion@@QAE@PBD@Z 00416570 f   bncsversioninfo:cBncsVersion.obj
 0001:00015a80       ??_GcBncsVersion@@UAEPAXI@Z 00416a80 f i bncsversioninfo:cBncsVersion.obj
 0001:00015a80       ??_EcBncsVersion@@UAEPAXI@Z 00416a80 f i bncsversioninfo:cBncsVersion.obj
 0001:00015aa0       ??1cBncsVersion@@UAE@XZ    00416aa0 f   bncsversioninfo:cBncsVersion.obj
 0001:00015b80       ??0QtSingleApplication@@QAE@ABVQString@@AAHPAPADW4Type@QApplication@@@Z 00416b80 f   qtsingleapplication:qtsingleapplication.obj
 0001:00015c30       ?metaObject@QtSingleApplication@@UBEPAVQMetaObject@@XZ 00416c30 f i qtsingleapplication:qtsingleapplication.obj
 0001:00015c40       ??_GQtSingleApplication@@UAEPAXI@Z 00416c40 f i qtsingleapplication:qtsingleapplication.obj
 0001:00015c40       ??_EQtSingleApplication@@UAEPAXI@Z 00416c40 f i qtsingleapplication:qtsingleapplication.obj
 0001:00015c60       ??1QtSingleApplication@@UAE@XZ 00416c60 f   qtsingleapplication:qtsingleapplication.obj
 0001:00015ce0       ?id@QtSingleApplication@@QBE?AVQString@@XZ 00416ce0 f   qtsingleapplication:qtsingleapplication.obj
 0001:00015d10       ?activateMainWidget@QtSingleApplication@@UAEXXZ 00416d10 f   qtsingleapplication:qtsingleapplication.obj
 0001:00015d30       ?sysInit@QtSingleApplication@@AAEXXZ 00416d30 f   qtsingleapplication:qtsingleapplication_win.obj
 0001:00015d50       ?sysCleanup@QtSingleApplication@@AAEXXZ 00416d50 f   qtsingleapplication:qtsingleapplication_win.obj
 0001:00015d60       ?initialize@QtSingleApplication@@QAEX_N@Z 00416d60 f   qtsingleapplication:qtsingleapplication_win.obj
 0001:00015e60       ?sendMessage@QtSingleApplication@@QAE_NABVQString@@H@Z 00416e60 f   qtsingleapplication:qtsingleapplication_win.obj
 0001:00015f60       ?winEventFilter@QtSingleApplication@@MAE_NPAUtagMSG@@@Z 00416f60 f   qtsingleapplication:qtsingleapplication_win.obj
 0001:00016020       ?className@QtSingleApplication@@UBEPBDXZ 00417020 f   qtsingleapplication:moc_qtsingleapplication.obj
 0001:00016080       ?staticMetaObject@QtSingleApplication@@SAPAVQMetaObject@@XZ 00417080 f   qtsingleapplication:moc_qtsingleapplication.obj
 0001:000161b0       ?qt_cast@QtSingleApplication@@UAEPAXPBD@Z 004171b0 f   qtsingleapplication:moc_qtsingleapplication.obj
 0001:00016220       ?messageReceived@QtSingleApplication@@IAEXABVQString@@@Z 00417220 f   qtsingleapplication:moc_qtsingleapplication.obj
 0001:00016280       ?qt_invoke@QtSingleApplication@@UAE_NHPAUQUObject@@@Z 00417280 f   qtsingleapplication:moc_qtsingleapplication.obj
 0001:00016300       ?qt_emit@QtSingleApplication@@UAE_NHPAUQUObject@@@Z 00417300 f   qtsingleapplication:moc_qtsingleapplication.obj
 0001:00016340       ?qt_property@QtSingleApplication@@UAE_NHHPAVQVariant@@@Z 00417340 f   qtsingleapplication:moc_qtsingleapplication.obj
 0001:00016360       ?fontInf@QPaintDevice@@MBEHPAVQFont@@H@Z 00417360 f   qt-mt323:qt-mt323.dll
 0001:00016366       ?fontMet@QPaintDevice@@MBEHPAVQFont@@HPBDH@Z 00417366 f   qt-mt323:qt-mt323.dll
 0001:0001636c       ?metric@QWidget@@MBEHH@Z   0041736c f   qt-mt323:qt-mt323.dll
 0001:00016372       ?cmd@QPaintDevice@@MAE_NHPAVQPainter@@PATQPDevCmdParam@@@Z 00417372 f   qt-mt323:qt-mt323.dll
 0001:00016378       ?handle@QPaintDevice@@UBEPAUHDC__@@XZ 00417378 f   qt-mt323:qt-mt323.dll
 0001:0001637e       ?resolution@QPaintDevice@@UBEHXZ 0041737e f   qt-mt323:qt-mt323.dll
 0001:00016384       ?setResolution@QPaintDevice@@UAEXH@Z 00417384 f   qt-mt323:qt-mt323.dll
 0001:0001638a       ?reject@QDialog@@MAEXXZ    0041738a f   qt-mt323:qt-mt323.dll
 0001:00016390       ?accept@QDialog@@MAEXXZ    00417390 f   qt-mt323:qt-mt323.dll
 0001:00016396       ?done@QDialog@@MAEXH@Z     00417396 f   qt-mt323:qt-mt323.dll
 0001:0001639c       ?setMicroFocusHint@QWidget@@MAEXHHHH_NPAVQFont@@@Z 0041739c f   qt-mt323:qt-mt323.dll
 0001:000163a2       ?setKeyCompression@QWidget@@MAEX_N@Z 004173a2 f   qt-mt323:qt-mt323.dll
 0001:000163a8       ?focusNextPrevChild@QWidget@@MAE_N_N@Z 004173a8 f   qt-mt323:qt-mt323.dll
 0001:000163ae       ?setWFlags@QWidget@@MAEXI@Z 004173ae f   qt-mt323:qt-mt323.dll
 0001:000163b4       ?setWState@QWidget@@MAEXI@Z 004173b4 f   qt-mt323:qt-mt323.dll
 0001:000163ba       ?destroy@QWidget@@MAEX_N0@Z 004173ba f   qt-mt323:qt-mt323.dll
 0001:000163c0       ?create@QWidget@@MAEXPAUHWND__@@_N1@Z 004173c0 f   qt-mt323:qt-mt323.dll
 0001:000163c6       ?windowActivationChange@QWidget@@MAEX_N@Z 004173c6 f   qt-mt323:qt-mt323.dll
 0001:000163cc       ?fontChange@QWidget@@MAEXABVQFont@@@Z 004173cc f   qt-mt323:qt-mt323.dll
 0001:000163d2       ?paletteChange@QWidget@@MAEXABVQPalette@@@Z 004173d2 f   qt-mt323:qt-mt323.dll
 0001:000163d8       ?enabledChange@QWidget@@MAEX_N@Z 004173d8 f   qt-mt323:qt-mt323.dll
 0001:000163de       ?styleChange@QWidget@@MAEXAAVQStyle@@@Z 004173de f   qt-mt323:qt-mt323.dll
 0001:000163e4       ?updateMask@QWidget@@MAEXXZ 004173e4 f   qt-mt323:qt-mt323.dll
 0001:000163ea       ?winEvent@QWidget@@MAE_NPAUtagMSG@@@Z 004173ea f   qt-mt323:qt-mt323.dll
 0001:000163f0       ?hideEvent@QWidget@@MAEXPAVQHideEvent@@@Z 004173f0 f   qt-mt323:qt-mt323.dll
 0001:000163f6       ?showEvent@QWidget@@MAEXPAVQShowEvent@@@Z 004173f6 f   qt-mt323:qt-mt323.dll
 0001:000163fc       ?dropEvent@QWidget@@MAEXPAVQDropEvent@@@Z 004173fc f   qt-mt323:qt-mt323.dll
 0001:00016402       ?dragLeaveEvent@QWidget@@MAEXPAVQDragLeaveEvent@@@Z 00417402 f   qt-mt323:qt-mt323.dll
 0001:00016408       ?dragMoveEvent@QWidget@@MAEXPAVQDragMoveEvent@@@Z 00417408 f   qt-mt323:qt-mt323.dll
 0001:0001640e       ?dragEnterEvent@QWidget@@MAEXPAVQDragEnterEvent@@@Z 0041740e f   qt-mt323:qt-mt323.dll
 0001:00016414       ?tabletEvent@QWidget@@MAEXPAVQTabletEvent@@@Z 00417414 f   qt-mt323:qt-mt323.dll
 0001:0001641a       ?imEndEvent@QWidget@@MAEXPAVQIMEvent@@@Z 0041741a f   qt-mt323:qt-mt323.dll
 0001:00016420       ?imComposeEvent@QWidget@@MAEXPAVQIMEvent@@@Z 00417420 f   qt-mt323:qt-mt323.dll
 0001:00016426       ?imStartEvent@QWidget@@MAEXPAVQIMEvent@@@Z 00417426 f   qt-mt323:qt-mt323.dll
 0001:0001642c       ?contextMenuEvent@QDialog@@MAEXPAVQContextMenuEvent@@@Z 0041742c f   qt-mt323:qt-mt323.dll
 0001:00016432       ?closeEvent@QDialog@@MAEXPAVQCloseEvent@@@Z 00417432 f   qt-mt323:qt-mt323.dll
 0001:00016438       ?resizeEvent@QDialog@@MAEXPAVQResizeEvent@@@Z 00417438 f   qt-mt323:qt-mt323.dll
 0001:0001643e       ?moveEvent@QWidget@@MAEXPAVQMoveEvent@@@Z 0041743e f   qt-mt323:qt-mt323.dll
 0001:00016444       ?paintEvent@QWidget@@MAEXPAVQPaintEvent@@@Z 00417444 f   qt-mt323:qt-mt323.dll
 0001:0001644a       ?leaveEvent@QWidget@@MAEXPAVQEvent@@@Z 0041744a f   qt-mt323:qt-mt323.dll
 0001:00016450       ?enterEvent@QWidget@@MAEXPAVQEvent@@@Z 00417450 f   qt-mt323:qt-mt323.dll
 0001:00016456       ?focusOutEvent@QWidget@@MAEXPAVQFocusEvent@@@Z 00417456 f   qt-mt323:qt-mt323.dll
 0001:0001645c       ?focusInEvent@QWidget@@MAEXPAVQFocusEvent@@@Z 0041745c f   qt-mt323:qt-mt323.dll
 0001:00016462       ?keyReleaseEvent@QWidget@@MAEXPAVQKeyEvent@@@Z 00417462 f   qt-mt323:qt-mt323.dll
 0001:00016468       ?keyPressEvent@QDialog@@MAEXPAVQKeyEvent@@@Z 00417468 f   qt-mt323:qt-mt323.dll
 0001:0001646e       ?wheelEvent@QWidget@@MAEXPAVQWheelEvent@@@Z 0041746e f   qt-mt323:qt-mt323.dll
 0001:00016474       ?mouseMoveEvent@QWidget@@MAEXPAVQMouseEvent@@@Z 00417474 f   qt-mt323:qt-mt323.dll
 0001:0001647a       ?mouseDoubleClickEvent@QWidget@@MAEXPAVQMouseEvent@@@Z 0041747a f   qt-mt323:qt-mt323.dll
 0001:00016480       ?mouseReleaseEvent@QWidget@@MAEXPAVQMouseEvent@@@Z 00417480 f   qt-mt323:qt-mt323.dll
 0001:00016486       ?mousePressEvent@QWidget@@MAEXPAVQMouseEvent@@@Z 00417486 f   qt-mt323:qt-mt323.dll
 0001:0001648c       ?customWhatsThis@QWidget@@UBE_NXZ 0041748c f   qt-mt323:qt-mt323.dll
 0001:00016492       ?setBackgroundOrigin@QWidget@@UAEXW4BackgroundOrigin@1@@Z 00417492 f   qt-mt323:qt-mt323.dll
 0001:00016498       ?setAutoMask@QWidget@@UAEX_N@Z 00417498 f   qt-mt323:qt-mt323.dll
 0001:0001649e       ?setAcceptDrops@QWidget@@UAEX_N@Z 0041749e f   qt-mt323:qt-mt323.dll
 0001:000164a4       ?reparent@QWidget@@UAEXPAV1@IABVQPoint@@_N@Z 004174a4 f   qt-mt323:qt-mt323.dll
 0001:000164aa       ?adjustSize@QWidget@@UAEXXZ 004174aa f   qt-mt323:qt-mt323.dll
 0001:000164b0       ?heightForWidth@QWidget@@UBEHH@Z 004174b0 f   qt-mt323:qt-mt323.dll
 0001:000164b6       ?setSizePolicy@QWidget@@UAEXVQSizePolicy@@@Z 004174b6 f   qt-mt323:qt-mt323.dll
 0001:000164bc       ?sizePolicy@QWidget@@UBE?AVQSizePolicy@@XZ 004174bc f   qt-mt323:qt-mt323.dll
 0001:000164c2       ?minimumSizeHint@QDialog@@UBE?AVQSize@@XZ 004174c2 f   qt-mt323:qt-mt323.dll
 0001:000164c8       ?sizeHint@QDialog@@UBE?AVQSize@@XZ 004174c8 f   qt-mt323:qt-mt323.dll
 0001:000164ce       ?setGeometry@QDialog@@UAEXHHHH@Z 004174ce f   qt-mt323:qt-mt323.dll
 0001:000164d4       ?setGeometry@QDialog@@UAEXABVQRect@@@Z 004174d4 f   qt-mt323:qt-mt323.dll
 0001:000164da       ?resize@QDialog@@UAEXHH@Z  004174da f   qt-mt323:qt-mt323.dll
 0001:000164e0       ?move@QDialog@@UAEXHH@Z    004174e0 f   qt-mt323:qt-mt323.dll
 0001:000164e6       ?close@QWidget@@UAE_N_N@Z  004174e6 f   qt-mt323:qt-mt323.dll
 0001:000164ec       ?polish@QWidget@@UAEXXZ    004174ec f   qt-mt323:qt-mt323.dll
 0001:000164f2       ?showNormal@QWidget@@UAEXXZ 004174f2 f   qt-mt323:qt-mt323.dll
 0001:000164f8       ?showMaximized@QWidget@@UAEXXZ 004174f8 f   qt-mt323:qt-mt323.dll
 0001:000164fe       ?showMinimized@QWidget@@UAEXXZ 004174fe f   qt-mt323:qt-mt323.dll
 0001:00016504       ?hide@QDialog@@UAEXXZ      00417504 f   qt-mt323:qt-mt323.dll
 0001:0001650a       ?show@QDialog@@UAEXXZ      0041750a f   qt-mt323:qt-mt323.dll
 0001:00016510       ?setUpdatesEnabled@QWidget@@UAEX_N@Z 00417510 f   qt-mt323:qt-mt323.dll
 0001:00016516       ?setFocusProxy@QWidget@@UAEXPAV1@@Z 00417516 f   qt-mt323:qt-mt323.dll
 0001:0001651c       ?setFocusPolicy@QWidget@@UAEXW4FocusPolicy@1@@Z 0041751c f   qt-mt323:qt-mt323.dll
 0001:00016522       ?setActiveWindow@QWidget@@UAEXXZ 00417522 f   qt-mt323:qt-mt323.dll
 0001:00016528       ?setFocus@QWidget@@UAEXXZ  00417528 f   qt-mt323:qt-mt323.dll
 0001:0001652e       ?setMouseTracking@QWidget@@UAEX_N@Z 0041752e f   qt-mt323:qt-mt323.dll
 0001:00016534       ?setIconText@QWidget@@UAEXABVQString@@@Z 00417534 f   qt-mt323:qt-mt323.dll
 0001:0001653a       ?setIcon@QWidget@@UAEXABVQPixmap@@@Z 0041753a f   qt-mt323:qt-mt323.dll
 0001:00016540       ?setCaption@QWidget@@UAEXABVQString@@@Z 00417540 f   qt-mt323:qt-mt323.dll
 0001:00016546       ?setBackgroundPixmap@QWidget@@UAEXABVQPixmap@@@Z 00417546 f   qt-mt323:qt-mt323.dll
 0001:0001654c       ?setBackgroundColor@QWidget@@UAEXABVQColor@@@Z 0041754c f   qt-mt323:qt-mt323.dll
 0001:00016552       ?setMask@QWidget@@UAEXABVQBitmap@@@Z 00417552 f   qt-mt323:qt-mt323.dll
 0001:00016558       ?setMask@QWidget@@UAEXABVQRegion@@@Z 00417558 f   qt-mt323:qt-mt323.dll
 0001:0001655e       ?unsetCursor@QWidget@@UAEXXZ 0041755e f   qt-mt323:qt-mt323.dll
 0001:00016564       ?setCursor@QWidget@@UAEXABVQCursor@@@Z 00417564 f   qt-mt323:qt-mt323.dll
 0001:0001656a       ?setFont@QWidget@@UAEXABVQFont@@@Z 0041756a f   qt-mt323:qt-mt323.dll
 0001:00016570       ?setPaletteBackgroundPixmap@QWidget@@UAEXABVQPixmap@@@Z 00417570 f   qt-mt323:qt-mt323.dll
 0001:00016576       ?setPaletteBackgroundColor@QWidget@@UAEXABVQColor@@@Z 00417576 f   qt-mt323:qt-mt323.dll
 0001:0001657c       ?setPalette@QWidget@@UAEXABVQPalette@@@Z 0041757c f   qt-mt323:qt-mt323.dll
 0001:00016582       ?setErasePixmap@QWidget@@UAEXABVQPixmap@@@Z 00417582 f   qt-mt323:qt-mt323.dll
 0001:00016588       ?setEraseColor@QWidget@@UAEXABVQColor@@@Z 00417588 f   qt-mt323:qt-mt323.dll
 0001:0001658e       ?setBackgroundMode@QWidget@@UAEXW4BackgroundMode@Qt@@@Z 0041758e f   qt-mt323:qt-mt323.dll
 0001:00016594       ?setSizeIncrement@QWidget@@UAEXHH@Z 00417594 f   qt-mt323:qt-mt323.dll
 0001:0001659a       ?setMaximumSize@QWidget@@UAEXHH@Z 0041759a f   qt-mt323:qt-mt323.dll
 0001:000165a0       ?setMinimumSize@QWidget@@UAEXHH@Z 004175a0 f   qt-mt323:qt-mt323.dll
 0001:000165a6       ?setEnabled@QWidget@@UAEX_N@Z 004175a6 f   qt-mt323:qt-mt323.dll
 0001:000165ac       ?checkConnectArgs@QObject@@MAE_NPBDPBV1@0@Z 004175ac f   qt-mt323:qt-mt323.dll
 0001:000165b2       ?disconnectNotify@QObject@@MAEXPBD@Z 004175b2 f   qt-mt323:qt-mt323.dll
 0001:000165b8       ?connectNotify@QObject@@MAEXPBD@Z 004175b8 f   qt-mt323:qt-mt323.dll
 0001:000165be       ?customEvent@QObject@@MAEXPAVQCustomEvent@@@Z 004175be f   qt-mt323:qt-mt323.dll
 0001:000165c4       ?childEvent@QObject@@MAEXPAVQChildEvent@@@Z 004175c4 f   qt-mt323:qt-mt323.dll
 0001:000165ca       ?timerEvent@QObject@@MAEXPAVQTimerEvent@@@Z 004175ca f   qt-mt323:qt-mt323.dll
 0001:000165d0       ?property@QObject@@UBE?AVQVariant@@PBD@Z 004175d0 f   qt-mt323:qt-mt323.dll
 0001:000165d6       ?setProperty@QObject@@UAE_NPBDABVQVariant@@@Z 004175d6 f   qt-mt323:qt-mt323.dll
 0001:000165dc       ?removeChild@QObject@@UAEXPAV1@@Z 004175dc f   qt-mt323:qt-mt323.dll
 0001:000165e2       ?insertChild@QObject@@UAEXPAV1@@Z 004175e2 f   qt-mt323:qt-mt323.dll
 0001:000165e8       ?setName@QWidget@@UAEXPBD@Z 004175e8 f   qt-mt323:qt-mt323.dll
 0001:000165ee       ?eventFilter@QDialog@@MAE_NPAVQObject@@PAVQEvent@@@Z 004175ee f   qt-mt323:qt-mt323.dll
 0001:000165f4       ?event@QWidget@@MAE_NPAVQEvent@@@Z 004175f4 f   qt-mt323:qt-mt323.dll
 0001:000165fa       ?setToolTipGroup@QMainWindow@@EAEXPAVQToolTipGroup@@@Z 004175fa f   qt-mt323:qt-mt323.dll
 0001:00016600       ?setStatusBar@QMainWindow@@EAEXPAVQStatusBar@@@Z 00417600 f   qt-mt323:qt-mt323.dll
 0001:00016606       ?setMenuBar@QMainWindow@@EAEXPAVQMenuBar@@@Z 00417606 f   qt-mt323:qt-mt323.dll
 0001:0001660c       ?showDockMenu@QMainWindow@@MAE_NABVQPoint@@@Z 0041760c f   qt-mt323:qt-mt323.dll
 0001:00016612       ?setUpLayout@QMainWindow@@MAEXXZ 00417612 f   qt-mt323:qt-mt323.dll
 0001:00016618       ?customize@QMainWindow@@UAEXXZ 00417618 f   qt-mt323:qt-mt323.dll
 0001:0001661e       ?setAppropriate@QMainWindow@@UAEXPAVQDockWindow@@_N@Z 0041761e f   qt-mt323:qt-mt323.dll
 0001:00016624       ?whatsThis@QMainWindow@@UAEXXZ 00417624 f   qt-mt323:qt-mt323.dll
 0001:0001662a       ?setDockMenuEnabled@QMainWindow@@UAEX_N@Z 0041762a f   qt-mt323:qt-mt323.dll
 0001:00016630       ?setOpaqueMoving@QMainWindow@@UAEX_N@Z 00417630 f   qt-mt323:qt-mt323.dll
 0001:00016636       ?setDockWindowsMovable@QMainWindow@@UAEX_N@Z 00417636 f   qt-mt323:qt-mt323.dll
 0001:0001663c       ?setUsesTextLabel@QMainWindow@@UAEX_N@Z 0041763c f   qt-mt323:qt-mt323.dll
 0001:00016642       ?setUsesBigPixmaps@QMainWindow@@UAEX_N@Z 00417642 f   qt-mt323:qt-mt323.dll
 0001:00016648       ?setRightJustification@QMainWindow@@UAEX_N@Z 00417648 f   qt-mt323:qt-mt323.dll
 0001:0001664e       ?isCustomizable@QMainWindow@@UBE_NXZ 0041764e f   qt-mt323:qt-mt323.dll
 0001:00016654       ?dockingArea@QMainWindow@@UAEPAVQDockArea@@ABVQPoint@@@Z 00417654 f   qt-mt323:qt-mt323.dll
 0001:0001665a       ?removeDockWindow@QMainWindow@@UAEXPAVQDockWindow@@@Z 0041765a f   qt-mt323:qt-mt323.dll
 0001:00016660       ?moveDockWindow@QMainWindow@@UAEXPAVQDockWindow@@W4Dock@Qt@@@Z 00417660 f   qt-mt323:qt-mt323.dll
 0001:00016666       ?moveDockWindow@QMainWindow@@UAEXPAVQDockWindow@@W4Dock@Qt@@_NHH@Z 00417666 f   qt-mt323:qt-mt323.dll
 0001:0001666c       ?addDockWindow@QMainWindow@@UAEXPAVQDockWindow@@W4Dock@Qt@@_N@Z 0041766c f   qt-mt323:qt-mt323.dll
 0001:00016672       ?addDockWindow@QMainWindow@@UAEXPAVQDockWindow@@ABVQString@@W4Dock@Qt@@_N@Z 00417672 f   qt-mt323:qt-mt323.dll
 0001:00016678       ?setDockEnabled@QMainWindow@@UAEXW4Dock@Qt@@_N@Z 00417678 f   qt-mt323:qt-mt323.dll
 0001:0001667e       ?setDockEnabled@QMainWindow@@UAEXPAVQDockWindow@@W4Dock@Qt@@_N@Z 0041767e f   qt-mt323:qt-mt323.dll
 0001:00016684       ?setCentralWidget@QMainWindow@@UAEXPAVQWidget@@@Z 00417684 f   qt-mt323:qt-mt323.dll
 0001:0001668a       ?styleChange@QMainWindow@@MAEXAAVQStyle@@@Z 0041768a f   qt-mt323:qt-mt323.dll
 0001:00016690       ?contextMenuEvent@QWidget@@MAEXPAVQContextMenuEvent@@@Z 00417690 f   qt-mt323:qt-mt323.dll
 0001:00016696       ?closeEvent@QWidget@@MAEXPAVQCloseEvent@@@Z 00417696 f   qt-mt323:qt-mt323.dll
 0001:0001669c       ?resizeEvent@QWidget@@MAEXPAVQResizeEvent@@@Z 0041769c f   qt-mt323:qt-mt323.dll
 0001:000166a2       ?paintEvent@QMainWindow@@MAEXPAVQPaintEvent@@@Z 004176a2 f   qt-mt323:qt-mt323.dll
 0001:000166a8       ?keyPressEvent@QWidget@@MAEXPAVQKeyEvent@@@Z 004176a8 f   qt-mt323:qt-mt323.dll
 0001:000166ae       ?minimumSizeHint@QMainWindow@@UBE?AVQSize@@XZ 004176ae f   qt-mt323:qt-mt323.dll
 0001:000166b4       ?sizeHint@QMainWindow@@UBE?AVQSize@@XZ 004176b4 f   qt-mt323:qt-mt323.dll
 0001:000166ba       ?setGeometry@QWidget@@UAEXHHHH@Z 004176ba f   qt-mt323:qt-mt323.dll
 0001:000166c0       ?setGeometry@QWidget@@UAEXABVQRect@@@Z 004176c0 f   qt-mt323:qt-mt323.dll
 0001:000166c6       ?resize@QWidget@@UAEXHH@Z  004176c6 f   qt-mt323:qt-mt323.dll
 0001:000166cc       ?move@QWidget@@UAEXHH@Z    004176cc f   qt-mt323:qt-mt323.dll
 0001:000166d2       ?hide@QMainWindow@@UAEXXZ  004176d2 f   qt-mt323:qt-mt323.dll
 0001:000166d8       ?show@QMainWindow@@UAEXXZ  004176d8 f   qt-mt323:qt-mt323.dll
 0001:000166de       ?childEvent@QMainWindow@@MAEXPAVQChildEvent@@@Z 004176de f   qt-mt323:qt-mt323.dll
 0001:000166e4       ?eventFilter@QMainWindow@@UAE_NPAVQObject@@PAVQEvent@@@Z 004176e4 f   qt-mt323:qt-mt323.dll
 0001:000166ea       ?event@QMainWindow@@MAE_NPAVQEvent@@@Z 004176ea f   qt-mt323:qt-mt323.dll
 0001:000166f0       ?compareItems@QGList@@MAEHPAX0@Z 004176f0 f   qt-mt323:qt-mt323.dll
 0001:000166f6       ?write@QGList@@MBEAAVQDataStream@@AAV2@PAX@Z 004176f6 f   qt-mt323:qt-mt323.dll
 0001:000166fc       ?read@QGList@@MAEAAVQDataStream@@AAV2@AAPAX@Z 004176fc f   qt-mt323:qt-mt323.dll
 0001:00016702       ?newItem@QPtrCollection@@MAEPAXPAX@Z 00417702 f   qt-mt323:qt-mt323.dll
 0001:00016708       ?minimumSizeHint@QWidget@@UBE?AVQSize@@XZ 00417708 f   qt-mt323:qt-mt323.dll
 0001:0001670e       ?sizeHint@QWidget@@UBE?AVQSize@@XZ 0041770e f   qt-mt323:qt-mt323.dll
 0001:00016714       ?hide@QWidget@@UAEXXZ      00417714 f   qt-mt323:qt-mt323.dll
 0001:0001671a       ?show@QWidget@@UAEXXZ      0041771a f   qt-mt323:qt-mt323.dll
 0001:00016720       ?eventFilter@QObject@@UAE_NPAV1@PAVQEvent@@@Z 00417720 f   qt-mt323:qt-mt323.dll
 0001:00016726       ?cancelRename@QListViewItem@@MAEXH@Z 00417726 f   qt-mt323:qt-mt323.dll
 0001:0001672c       ?okRename@QListViewItem@@MAEXH@Z 0041772c f   qt-mt323:qt-mt323.dll
 0001:00016732       ?dragLeft@QListViewItem@@MAEXXZ 00417732 f   qt-mt323:qt-mt323.dll
 0001:00016738       ?dragEntered@QListViewItem@@MAEXXZ 00417738 f   qt-mt323:qt-mt323.dll
 0001:0001673e       ?dropped@QListViewItem@@MAEXPAVQDropEvent@@@Z 0041773e f   qt-mt323:qt-mt323.dll
 0001:00016744       ?activate@QListViewItem@@MAEXXZ 00417744 f   qt-mt323:qt-mt323.dll
 0001:0001674a       ?setHeight@QListViewItem@@MAEXH@Z 0041774a f   qt-mt323:qt-mt323.dll
 0001:00016750       ?enforceSortOrder@QListViewItem@@MBEXXZ 00417750 f   qt-mt323:qt-mt323.dll
 0001:00016756       ?setMultiLinesEnabled@QListViewItem@@UAEX_N@Z 00417756 f   qt-mt323:qt-mt323.dll
 0001:0001675c       ?rtti@QListViewItem@@UBEHXZ 0041775c f   qt-mt323:qt-mt323.dll
 0001:00016762       ?setEnabled@QListViewItem@@UAEX_N@Z 00417762 f   qt-mt323:qt-mt323.dll
 0001:00016768       ?startRename@QListViewItem@@UAEXH@Z 00417768 f   qt-mt323:qt-mt323.dll
 0001:0001676e       ?setRenameEnabled@QListViewItem@@UAEXH_N@Z 0041776e f   qt-mt323:qt-mt323.dll
 0001:00016774       ?acceptDrop@QListViewItem@@UBE_NPBVQMimeSource@@@Z 00417774 f   qt-mt323:qt-mt323.dll
 0001:0001677a       ?setDropEnabled@QListViewItem@@UAEX_N@Z 0041777a f   qt-mt323:qt-mt323.dll
 0001:00016780       ?setDragEnabled@QListViewItem@@UAEX_N@Z 00417780 f   qt-mt323:qt-mt323.dll
 0001:00016786       ?sort@QListViewItem@@UAEXXZ 00417786 f   qt-mt323:qt-mt323.dll
 0001:0001678c       ?setExpandable@QListViewItem@@UAEX_N@Z 0041778c f   qt-mt323:qt-mt323.dll
 0001:00016792       ?setSelectable@QListViewItem@@UAEX_N@Z 00417792 f   qt-mt323:qt-mt323.dll
 0001:00016798       ?paintFocus@QListViewItem@@UAEXPAVQPainter@@ABVQColorGroup@@ABVQRect@@@Z 00417798 f   qt-mt323:qt-mt323.dll
 0001:0001679e       ?paintBranches@QListViewItem@@UAEXPAVQPainter@@ABVQColorGroup@@HHH@Z 0041779e f   qt-mt323:qt-mt323.dll
 0001:000167a4       ?setSelected@QListViewItem@@UAEX_N@Z 004177a4 f   qt-mt323:qt-mt323.dll
 0001:000167aa       ?setup@QListViewItem@@UAEXXZ 004177aa f   qt-mt323:qt-mt323.dll
 0001:000167b0       ?setOpen@QListViewItem@@UAEX_N@Z 004177b0 f   qt-mt323:qt-mt323.dll
 0001:000167b6       ?sortChildItems@QListViewItem@@UAEXH_N@Z 004177b6 f   qt-mt323:qt-mt323.dll
 0001:000167bc       ?compare@QListViewItem@@UBEHPAV1@H_N@Z 004177bc f   qt-mt323:qt-mt323.dll
 0001:000167c2       ?key@QListViewItem@@UBE?AVQString@@H_N@Z 004177c2 f   qt-mt323:qt-mt323.dll
 0001:000167c8       ?pixmap@QListViewItem@@UBEPBVQPixmap@@H@Z 004177c8 f   qt-mt323:qt-mt323.dll
 0001:000167ce       ?setPixmap@QListViewItem@@UAEXHABVQPixmap@@@Z 004177ce f   qt-mt323:qt-mt323.dll
 0001:000167d4       ?text@QListViewItem@@UBE?AVQString@@H@Z 004177d4 f   qt-mt323:qt-mt323.dll
 0001:000167da       ?setText@QListViewItem@@UAEXHABVQString@@@Z 004177da f   qt-mt323:qt-mt323.dll
 0001:000167e0       ?width@QListViewItem@@UBEHABVQFontMetrics@@PBVQListView@@H@Z 004177e0 f   qt-mt323:qt-mt323.dll
 0001:000167e6       ?invalidateHeight@QListViewItem@@UAEXXZ 004177e6 f   qt-mt323:qt-mt323.dll
 0001:000167ec       ?removeItem@QListViewItem@@UAEXPAV1@@Z 004177ec f   qt-mt323:qt-mt323.dll
 0001:000167f2       ?takeItem@QListViewItem@@UAEXPAV1@@Z 004177f2 f   qt-mt323:qt-mt323.dll
 0001:000167f8       ?insertItem@QListViewItem@@UAEXPAV1@@Z 004177f8 f   qt-mt323:qt-mt323.dll
 0001:000167fe       ?setName@QObject@@UAEXPBD@Z 004177fe f   qt-mt323:qt-mt323.dll
 0001:00016804       ?event@QObject@@UAE_NPAVQEvent@@@Z 00417804 f   qt-mt323:qt-mt323.dll
 0001:0001680a       ?setMainWidget@QApplication@@UAEXPAVQWidget@@@Z 0041780a f   qt-mt323:qt-mt323.dll
 0001:00016810       ?setEnabled@QSocketNotifier@@UAEX_N@Z 00417810 f   qt-mt323:qt-mt323.dll
 0001:00016816       ?event@QSocketNotifier@@MAE_NPAVQEvent@@@Z 00417816 f   qt-mt323:qt-mt323.dll
 0001:0001681c       ?qt_property@QSocketNotifier@@UAE_NHHPAVQVariant@@@Z 0041781c f   qt-mt323:qt-mt323.dll
 0001:00016822       ?qt_emit@QSocketNotifier@@UAE_NHPAUQUObject@@@Z 00417822 f   qt-mt323:qt-mt323.dll
 0001:00016828       ?qt_invoke@QSocketNotifier@@UAE_NHPAUQUObject@@@Z 00417828 f   qt-mt323:qt-mt323.dll
 0001:0001682e       ?qt_cast@QSocketNotifier@@UAEPAXPBD@Z 0041782e f   qt-mt323:qt-mt323.dll
 0001:00016834       ?className@QSocketNotifier@@UBEPBDXZ 00417834 f   qt-mt323:qt-mt323.dll
 0001:0001683a       ?metaObject@QSocketNotifier@@UBEPAVQMetaObject@@XZ 0041783a f   qt-mt323:qt-mt323.dll
 0001:00016840       ?setOption@QSocketDevice@@EAEXW4Option@1@H@Z 00417840 f   qt-mt323:qt-mt323.dll
 0001:00016846       ?writeBlock@QSocketDevice@@UAEJPBDKABVQHostAddress@@G@Z 00417846 f   qt-mt323:qt-mt323.dll
 0001:0001684c       ?accept@QSocketDevice@@UAEHXZ 0041784c f   qt-mt323:qt-mt323.dll
 0001:00016852       ?listen@QSocketDevice@@UAE_NH@Z 00417852 f   qt-mt323:qt-mt323.dll
 0001:00016858       ?bind@QSocketDevice@@UAE_NABVQHostAddress@@G@Z 00417858 f   qt-mt323:qt-mt323.dll
 0001:0001685e       ?connect@QSocketDevice@@UAE_NABVQHostAddress@@G@Z 0041785e f   qt-mt323:qt-mt323.dll
 0001:00016864       ?setSendBufferSize@QSocketDevice@@UAEXI@Z 00417864 f   qt-mt323:qt-mt323.dll
 0001:0001686a       ?setReceiveBufferSize@QSocketDevice@@UAEXI@Z 0041786a f   qt-mt323:qt-mt323.dll
 0001:00016870       ?setAddressReusable@QSocketDevice@@UAEX_N@Z 00417870 f   qt-mt323:qt-mt323.dll
 0001:00016876       ?setBlocking@QSocketDevice@@UAEX_N@Z 00417876 f   qt-mt323:qt-mt323.dll
 0001:0001687c       ?setSocket@QSocketDevice@@UAEXHW4Type@1@@Z 0041787c f   qt-mt323:qt-mt323.dll
 0001:00016882       ?ungetch@QSocketDevice@@UAEHH@Z 00417882 f   qt-mt323:qt-mt323.dll
 0001:00016888       ?putch@QSocketDevice@@UAEHH@Z 00417888 f   qt-mt323:qt-mt323.dll
 0001:0001688e       ?getch@QSocketDevice@@UAEHXZ 0041788e f   qt-mt323:qt-mt323.dll
 0001:00016894       ?readAll@QIODevice@@UAE?AV?$QMemArray@D@@XZ 00417894 f   qt-mt323:qt-mt323.dll
 0001:0001689a       ?readLine@QIODevice@@UAEJPADK@Z 0041789a f   qt-mt323:qt-mt323.dll
 0001:000168a0       ?writeBlock@QSocketDevice@@UAEJPBDK@Z 004178a0 f   qt-mt323:qt-mt323.dll
 0001:000168a6       ?readBlock@QSocketDevice@@UAEJPADK@Z 004178a6 f   qt-mt323:qt-mt323.dll
 0001:000168ac       ?atEnd@QSocketDevice@@UBE_NXZ 004178ac f   qt-mt323:qt-mt323.dll
 0001:000168b2       ?at@QSocketDevice@@UBEKXZ  004178b2 f   qt-mt323:qt-mt323.dll
 0001:000168b8       ?at@QSocketDevice@@UAE_NK@Z 004178b8 f   qt-mt323:qt-mt323.dll
 0001:000168be       ?size@QSocketDevice@@UBEKXZ 004178be f   qt-mt323:qt-mt323.dll
 0001:000168c4       ?flush@QSocketDevice@@UAEXXZ 004178c4 f   qt-mt323:qt-mt323.dll
 0001:000168ca       ?close@QSocketDevice@@UAEXXZ 004178ca f   qt-mt323:qt-mt323.dll
 0001:000168d0       ?open@QSocketDevice@@UAE_NH@Z 004178d0 f   qt-mt323:qt-mt323.dll
 0001:000168d6       ?closeStdin@QProcess@@UAEXXZ 004178d6 f   qt-mt323:qt-mt323.dll
 0001:000168dc       ?writeToStdin@QProcess@@UAEXABV?$QMemArray@D@@@Z 004178dc f   qt-mt323:qt-mt323.dll
 0001:000168e2       ?writeToStdin@QProcess@@UAEXABVQString@@@Z 004178e2 f   qt-mt323:qt-mt323.dll
 0001:000168e8       ?readLineStderr@QProcess@@UAE?AVQString@@XZ 004178e8 f   qt-mt323:qt-mt323.dll
 0001:000168ee       ?readLineStdout@QProcess@@UAE?AVQString@@XZ 004178ee f   qt-mt323:qt-mt323.dll
 0001:000168f4       ?readStderr@QProcess@@UAE?AV?$QMemArray@D@@XZ 004178f4 f   qt-mt323:qt-mt323.dll
 0001:000168fa       ?readStdout@QProcess@@UAE?AV?$QMemArray@D@@XZ 004178fa f   qt-mt323:qt-mt323.dll
 0001:00016900       ?launch@QProcess@@UAE_NABVQString@@PAVQStringList@@@Z 00417900 f   qt-mt323:qt-mt323.dll
 0001:00016906       ?launch@QProcess@@UAE_NABV?$QMemArray@D@@PAVQStringList@@@Z 00417906 f   qt-mt323:qt-mt323.dll
 0001:0001690c       ?setWorkingDirectory@QProcess@@UAEXABVQDir@@@Z 0041790c f   qt-mt323:qt-mt323.dll
 0001:00016912       ?addArgument@QProcess@@UAEXABVQString@@@Z 00417912 f   qt-mt323:qt-mt323.dll
 0001:00016918       ?setArguments@QProcess@@UAEXABVQStringList@@@Z 00417918 f   qt-mt323:qt-mt323.dll
 0001:0001691e       ?disconnectNotify@QProcess@@MAEXPBD@Z 0041791e f   qt-mt323:qt-mt323.dll
 0001:00016924       ?connectNotify@QProcess@@MAEXPBD@Z 00417924 f   qt-mt323:qt-mt323.dll
 0001:0001692a       ?start@QProcess@@UAE_NPAVQStringList@@@Z 0041792a f   qt-mt323:qt-mt323.dll
 0001:00016930       ?qt_property@QProcess@@UAE_NHHPAVQVariant@@@Z 00417930 f   qt-mt323:qt-mt323.dll
 0001:00016936       ?qt_emit@QProcess@@UAE_NHPAUQUObject@@@Z 00417936 f   qt-mt323:qt-mt323.dll
 0001:0001693c       ?qt_invoke@QProcess@@UAE_NHPAUQUObject@@@Z 0041793c f   qt-mt323:qt-mt323.dll
 0001:00016942       ?qt_cast@QProcess@@UAEPAXPBD@Z 00417942 f   qt-mt323:qt-mt323.dll
 0001:00016948       ?className@QProcess@@UBEPBDXZ 00417948 f   qt-mt323:qt-mt323.dll
 0001:0001694e       ?metaObject@QProcess@@UBEPAVQMetaObject@@XZ 0041794e f   qt-mt323:qt-mt323.dll
 0001:00016954       ?spacerItem@QSpacerItem@@UAEPAV1@XZ 00417954 f   qt-mt323:qt-mt323.dll
 0001:0001695a       ?layout@QLayoutItem@@UAEPAVQLayout@@XZ 0041795a f   qt-mt323:qt-mt323.dll
 0001:00016960       ?iterator@QLayoutItem@@UAE?AVQLayoutIterator@@XZ 00417960 f   qt-mt323:qt-mt323.dll
 0001:00016966       ?invalidate@QLayoutItem@@UAEXXZ 00417966 f   qt-mt323:qt-mt323.dll
 0001:0001696c       ?heightForWidth@QLayoutItem@@UBEHH@Z 0041796c f   qt-mt323:qt-mt323.dll
 0001:00016972       ?hasHeightForWidth@QLayoutItem@@UBE_NXZ 00417972 f   qt-mt323:qt-mt323.dll
 0001:00016978       ?isEmpty@QSpacerItem@@UBE_NXZ 00417978 f   qt-mt323:qt-mt323.dll
 0001:0001697e       ?geometry@QSpacerItem@@UBE?AVQRect@@XZ 0041797e f   qt-mt323:qt-mt323.dll
 0001:00016984       ?setGeometry@QSpacerItem@@UAEXABVQRect@@@Z 00417984 f   qt-mt323:qt-mt323.dll
 0001:0001698a       ?expanding@QSpacerItem@@UBE?AW4ExpandData@QSizePolicy@@XZ 0041798a f   qt-mt323:qt-mt323.dll
 0001:00016990       ?maximumSize@QSpacerItem@@UBE?AVQSize@@XZ 00417990 f   qt-mt323:qt-mt323.dll
 0001:00016996       ?minimumSize@QSpacerItem@@UBE?AVQSize@@XZ 00417996 f   qt-mt323:qt-mt323.dll
 0001:0001699c       ?sizeHint@QSpacerItem@@UBE?AVQSize@@XZ 0041799c f   qt-mt323:qt-mt323.dll
 0001:000169a2       ?setOn@QPushButton@@UAEX_N@Z 004179a2 f   qt-mt323:qt-mt323.dll
 0001:000169a8       ?setIsMenuButton@QPushButton@@UAEX_N@Z 004179a8 f   qt-mt323:qt-mt323.dll
 0001:000169ae       ?setDefault@QPushButton@@UAEX_N@Z 004179ae f   qt-mt323:qt-mt323.dll
 0001:000169b4       ?setAutoDefault@QPushButton@@UAEX_N@Z 004179b4 f   qt-mt323:qt-mt323.dll
 0001:000169ba       ?setGroup@QButton@@EAEXPAVQButtonGroup@@@Z 004179ba f   qt-mt323:qt-mt323.dll
 0001:000169c0       ?drawButtonLabel@QPushButton@@MAEXPAVQPainter@@@Z 004179c0 f   qt-mt323:qt-mt323.dll
 0001:000169c6       ?drawButton@QPushButton@@MAEXPAVQPainter@@@Z 004179c6 f   qt-mt323:qt-mt323.dll
 0001:000169cc       ?hitButton@QButton@@MBE_NABVQPoint@@@Z 004179cc f   qt-mt323:qt-mt323.dll
 0001:000169d2       ?setState@QButton@@MAEXW4ToggleState@1@@Z 004179d2 f   qt-mt323:qt-mt323.dll
 0001:000169d8       ?setToggleType@QButton@@MAEXW4ToggleType@1@@Z 004179d8 f   qt-mt323:qt-mt323.dll
 0001:000169de       ?setAutoRepeat@QButton@@UAEX_N@Z 004179de f   qt-mt323:qt-mt323.dll
 0001:000169e4       ?setDown@QButton@@UAEX_N@Z 004179e4 f   qt-mt323:qt-mt323.dll
 0001:000169ea       ?setAccel@QButton@@UAEXABVQKeySequence@@@Z 004179ea f   qt-mt323:qt-mt323.dll
 0001:000169f0       ?setPixmap@QButton@@UAEXABVQPixmap@@@Z 004179f0 f   qt-mt323:qt-mt323.dll
 0001:000169f6       ?setText@QButton@@UAEXABVQString@@@Z 004179f6 f   qt-mt323:qt-mt323.dll
 0001:000169fc       ?enabledChange@QButton@@MAEX_N@Z 004179fc f   qt-mt323:qt-mt323.dll
 0001:00016a02       ?updateMask@QPushButton@@MAEXXZ 00417a02 f   qt-mt323:qt-mt323.dll
 0001:00016a08       ?resizeEvent@QPushButton@@MAEXPAVQResizeEvent@@@Z 00417a08 f   qt-mt323:qt-mt323.dll
 0001:00016a0e       ?paintEvent@QButton@@MAEXPAVQPaintEvent@@@Z 00417a0e f   qt-mt323:qt-mt323.dll
 0001:00016a14       ?focusOutEvent@QPushButton@@MAEXPAVQFocusEvent@@@Z 00417a14 f   qt-mt323:qt-mt323.dll
 0001:00016a1a       ?focusInEvent@QPushButton@@MAEXPAVQFocusEvent@@@Z 00417a1a f   qt-mt323:qt-mt323.dll
 0001:00016a20       ?keyReleaseEvent@QButton@@MAEXPAVQKeyEvent@@@Z 00417a20 f   qt-mt323:qt-mt323.dll
 0001:00016a26       ?keyPressEvent@QButton@@MAEXPAVQKeyEvent@@@Z 00417a26 f   qt-mt323:qt-mt323.dll
 0001:00016a2c       ?mouseMoveEvent@QButton@@MAEXPAVQMouseEvent@@@Z 00417a2c f   qt-mt323:qt-mt323.dll
 0001:00016a32       ?mouseReleaseEvent@QButton@@MAEXPAVQMouseEvent@@@Z 00417a32 f   qt-mt323:qt-mt323.dll
 0001:00016a38       ?mousePressEvent@QButton@@MAEXPAVQMouseEvent@@@Z 00417a38 f   qt-mt323:qt-mt323.dll
 0001:00016a3e       ?sizeHint@QPushButton@@UBE?AVQSize@@XZ 00417a3e f   qt-mt323:qt-mt323.dll
 0001:00016a44       ?setGeometry@QPushButton@@UAEXHHHH@Z 00417a44 f   qt-mt323:qt-mt323.dll
 0001:00016a4a       ?setGeometry@QPushButton@@UAEXABVQRect@@@Z 00417a4a f   qt-mt323:qt-mt323.dll
 0001:00016a50       ?resize@QPushButton@@UAEXHH@Z 00417a50 f   qt-mt323:qt-mt323.dll
 0001:00016a56       ?move@QPushButton@@UAEXHH@Z 00417a56 f   qt-mt323:qt-mt323.dll
 0001:00016a5c       ?qt_property@QPushButton@@UAE_NHHPAVQVariant@@@Z 00417a5c f   qt-mt323:qt-mt323.dll
 0001:00016a62       ?qt_emit@QPushButton@@UAE_NHPAUQUObject@@@Z 00417a62 f   qt-mt323:qt-mt323.dll
 0001:00016a68       ?qt_invoke@QPushButton@@UAE_NHPAUQUObject@@@Z 00417a68 f   qt-mt323:qt-mt323.dll
 0001:00016a6e       ?qt_cast@QPushButton@@UAEPAXPBD@Z 00417a6e f   qt-mt323:qt-mt323.dll
 0001:00016a74       ?className@QPushButton@@UBEPBDXZ 00417a74 f   qt-mt323:qt-mt323.dll
 0001:00016a7a       ?metaObject@QPushButton@@UBEPAVQMetaObject@@XZ 00417a7a f   qt-mt323:qt-mt323.dll
 0001:00016a80       ?setNum@QLabel@@UAEXH@Z    00417a80 f   qt-mt323:qt-mt323.dll
 0001:00016a86       ?setNum@QLabel@@UAEXN@Z    00417a86 f   qt-mt323:qt-mt323.dll
 0001:00016a8c       ?setMovie@QLabel@@UAEXABVQMovie@@@Z 00417a8c f   qt-mt323:qt-mt323.dll
 0001:00016a92       ?setPicture@QLabel@@UAEXABVQPicture@@@Z 00417a92 f   qt-mt323:qt-mt323.dll
 0001:00016a98       ?setPixmap@QLabel@@UAEXABVQPixmap@@@Z 00417a98 f   qt-mt323:qt-mt323.dll
 0001:00016a9e       ?setText@QLabel@@UAEXABVQString@@@Z 00417a9e f   qt-mt323:qt-mt323.dll
 0001:00016aa4       ?setBuddy@QLabel@@UAEXPAVQWidget@@@Z 00417aa4 f   qt-mt323:qt-mt323.dll
 0001:00016aaa       ?setAutoResize@QLabel@@UAEX_N@Z 00417aaa f   qt-mt323:qt-mt323.dll
 0001:00016ab0       ?setAlignment@QLabel@@UAEXH@Z 00417ab0 f   qt-mt323:qt-mt323.dll
 0001:00016ab6       ?frameChanged@QFrame@@MAEXXZ 00417ab6 f   qt-mt323:qt-mt323.dll
 0001:00016abc       ?drawContents@QLabel@@MAEXPAVQPainter@@@Z 00417abc f   qt-mt323:qt-mt323.dll
 0001:00016ac2       ?drawFrame@QFrame@@MAEXPAVQPainter@@@Z 00417ac2 f   qt-mt323:qt-mt323.dll
 0001:00016ac8       ?setFrameRect@QFrame@@UAEXABVQRect@@@Z 00417ac8 f   qt-mt323:qt-mt323.dll
 0001:00016ace       ?setMidLineWidth@QFrame@@UAEXH@Z 00417ace f   qt-mt323:qt-mt323.dll
 0001:00016ad4       ?setMargin@QFrame@@UAEXH@Z 00417ad4 f   qt-mt323:qt-mt323.dll
 0001:00016ada       ?setLineWidth@QFrame@@UAEXH@Z 00417ada f   qt-mt323:qt-mt323.dll
 0001:00016ae0       ?setFrameStyle@QFrame@@UAEXH@Z 00417ae0 f   qt-mt323:qt-mt323.dll
 0001:00016ae6       ?fontChange@QLabel@@MAEXABVQFont@@@Z 00417ae6 f   qt-mt323:qt-mt323.dll
 0001:00016aec       ?styleChange@QFrame@@MAEXAAVQStyle@@@Z 00417aec f   qt-mt323:qt-mt323.dll
 0001:00016af2       ?resizeEvent@QLabel@@MAEXPAVQResizeEvent@@@Z 00417af2 f   qt-mt323:qt-mt323.dll
 0001:00016af8       ?paintEvent@QFrame@@MAEXPAVQPaintEvent@@@Z 00417af8 f   qt-mt323:qt-mt323.dll
 0001:00016afe       ?heightForWidth@QLabel@@UBEHH@Z 00417afe f   qt-mt323:qt-mt323.dll
 0001:00016b04       ?minimumSizeHint@QLabel@@UBE?AVQSize@@XZ 00417b04 f   qt-mt323:qt-mt323.dll
 0001:00016b0a       ?sizeHint@QLabel@@UBE?AVQSize@@XZ 00417b0a f   qt-mt323:qt-mt323.dll
 0001:00016b10       ?setFont@QLabel@@UAEXABVQFont@@@Z 00417b10 f   qt-mt323:qt-mt323.dll
 0001:00016b16       ?qt_property@QLabel@@UAE_NHHPAVQVariant@@@Z 00417b16 f   qt-mt323:qt-mt323.dll
 0001:00016b1c       ?qt_emit@QLabel@@UAE_NHPAUQUObject@@@Z 00417b1c f   qt-mt323:qt-mt323.dll
 0001:00016b22       ?qt_invoke@QLabel@@UAE_NHPAUQUObject@@@Z 00417b22 f   qt-mt323:qt-mt323.dll
 0001:00016b28       ?qt_cast@QLabel@@UAEPAXPBD@Z 00417b28 f   qt-mt323:qt-mt323.dll
 0001:00016b2e       ?className@QLabel@@UBEPBDXZ 00417b2e f   qt-mt323:qt-mt323.dll
 0001:00016b34       ?metaObject@QLabel@@UBEPAVQMetaObject@@XZ 00417b34 f   qt-mt323:qt-mt323.dll
 0001:00016b3a       ?qt_property@QHBoxLayout@@UAE_NHHPAVQVariant@@@Z 00417b3a f   qt-mt323:qt-mt323.dll
 0001:00016b40       ?qt_emit@QHBoxLayout@@UAE_NHPAUQUObject@@@Z 00417b40 f   qt-mt323:qt-mt323.dll
 0001:00016b46       ?qt_invoke@QHBoxLayout@@UAE_NHPAUQUObject@@@Z 00417b46 f   qt-mt323:qt-mt323.dll
 0001:00016b4c       ?qt_cast@QHBoxLayout@@UAEPAXPBD@Z 00417b4c f   qt-mt323:qt-mt323.dll
 0001:00016b52       ?className@QHBoxLayout@@UBEPBDXZ 00417b52 f   qt-mt323:qt-mt323.dll
 0001:00016b58       ?metaObject@QHBoxLayout@@UBEPAVQMetaObject@@XZ 00417b58 f   qt-mt323:qt-mt323.dll
 0001:00016b5e       ?setAlignment@QLayoutItem@@UAEXH@Z 00417b5e f   qt-mt323:qt-mt323.dll
 0001:00016b64       ?spacerItem@QLayoutItem@@UAEPAVQSpacerItem@@XZ 00417b64 f   qt-mt323:qt-mt323.dll
 0001:00016b6a       ?layout@QLayout@@UAEPAV1@XZ 00417b6a f   qt-mt323:qt-mt323.dll
 0001:00016b70       ?iterator@QBoxLayout@@UAE?AVQLayoutIterator@@XZ 00417b70 f   qt-mt323:qt-mt323.dll
 0001:00016b76       ?widget@QLayoutItem@@UAEPAVQWidget@@XZ 00417b76 f   qt-mt323:qt-mt323.dll
 0001:00016b7c       ?invalidate@QBoxLayout@@UAEXXZ 00417b7c f   qt-mt323:qt-mt323.dll
 0001:00016b82       ?heightForWidth@QBoxLayout@@UBEHH@Z 00417b82 f   qt-mt323:qt-mt323.dll
 0001:00016b88       ?hasHeightForWidth@QBoxLayout@@UBE_NXZ 00417b88 f   qt-mt323:qt-mt323.dll
 0001:00016b8e       ?isEmpty@QLayout@@UBE_NXZ  00417b8e f   qt-mt323:qt-mt323.dll
 0001:00016b94       ?geometry@QLayout@@UBE?AVQRect@@XZ 00417b94 f   qt-mt323:qt-mt323.dll
 0001:00016b9a       ?setGeometry@QBoxLayout@@UAEXABVQRect@@@Z 00417b9a f   qt-mt323:qt-mt323.dll
 0001:00016ba0       ?expanding@QBoxLayout@@UBE?AW4ExpandData@QSizePolicy@@XZ 00417ba0 f   qt-mt323:qt-mt323.dll
 0001:00016ba6       ?maximumSize@QBoxLayout@@UBE?AVQSize@@XZ 00417ba6 f   qt-mt323:qt-mt323.dll
 0001:00016bac       ?minimumSize@QBoxLayout@@UBE?AVQSize@@XZ 00417bac f   qt-mt323:qt-mt323.dll
 0001:00016bb2       ?sizeHint@QBoxLayout@@UBE?AVQSize@@XZ 00417bb2 f   qt-mt323:qt-mt323.dll
 0001:00016bb8       ?addItem@QBoxLayout@@UAEXPAVQLayoutItem@@@Z 00417bb8 f   qt-mt323:qt-mt323.dll
 0001:00016bbe       ?setAutoAdd@QLayout@@UAEX_N@Z 00417bbe f   qt-mt323:qt-mt323.dll
 0001:00016bc4       ?setMenuBar@QLayout@@UAEXPAVQMenuBar@@@Z 00417bc4 f   qt-mt323:qt-mt323.dll
 0001:00016bca       ?setSpacing@QLayout@@UAEXH@Z 00417bca f   qt-mt323:qt-mt323.dll
 0001:00016bd0       ?setMargin@QLayout@@UAEXH@Z 00417bd0 f   qt-mt323:qt-mt323.dll
 0001:00016bd6       ?childEvent@QLayout@@MAEXPAVQChildEvent@@@Z 00417bd6 f   qt-mt323:qt-mt323.dll
 0001:00016bdc       ?eventFilter@QLayout@@MAE_NPAVQObject@@PAVQEvent@@@Z 00417bdc f   qt-mt323:qt-mt323.dll
 0001:00016be2       ?qt_property@QVBoxLayout@@UAE_NHHPAVQVariant@@@Z 00417be2 f   qt-mt323:qt-mt323.dll
 0001:00016be8       ?qt_emit@QVBoxLayout@@UAE_NHPAUQUObject@@@Z 00417be8 f   qt-mt323:qt-mt323.dll
 0001:00016bee       ?qt_invoke@QVBoxLayout@@UAE_NHPAUQUObject@@@Z 00417bee f   qt-mt323:qt-mt323.dll
 0001:00016bf4       ?qt_cast@QVBoxLayout@@UAEPAXPBD@Z 00417bf4 f   qt-mt323:qt-mt323.dll
 0001:00016bfa       ?className@QVBoxLayout@@UBEPBDXZ 00417bfa f   qt-mt323:qt-mt323.dll
 0001:00016c00       ?metaObject@QVBoxLayout@@UBEPAVQMetaObject@@XZ 00417c00 f   qt-mt323:qt-mt323.dll
 0001:00016c06       ?menuDelPopup@QPopupMenu@@EAEXPAV1@@Z 00417c06 f   qt-mt323:qt-mt323.dll
 0001:00016c0c       ?menuInsPopup@QPopupMenu@@EAEXPAV1@@Z 00417c0c f   qt-mt323:qt-mt323.dll
 0001:00016c12       ?menuStateChanged@QPopupMenu@@EAEXXZ 00417c12 f   qt-mt323:qt-mt323.dll
 0001:00016c18       ?menuContentsChanged@QPopupMenu@@EAEXXZ 00417c18 f   qt-mt323:qt-mt323.dll
 0001:00016c1e       ?activateItemAt@QPopupMenu@@UAEXH@Z 00417c1e f   qt-mt323:qt-mt323.dll
 0001:00016c24       ?updateItem@QPopupMenu@@UAEXH@Z 00417c24 f   qt-mt323:qt-mt323.dll
 0001:00016c2a       ?setFirstItemActive@QPopupMenu@@EAEXXZ 00417c2a f   qt-mt323:qt-mt323.dll
 0001:00016c30       ?setActiveItem@QPopupMenu@@UAEXH@Z 00417c30 f   qt-mt323:qt-mt323.dll
 0001:00016c36       ?setCheckable@QPopupMenu@@UAEX_N@Z 00417c36 f   qt-mt323:qt-mt323.dll
 0001:00016c3c       ?frameChanged@QPopupMenu@@EAEXXZ 00417c3c f   qt-mt323:qt-mt323.dll
 0001:00016c42       ?drawContents@QPopupMenu@@MAEXPAVQPainter@@@Z 00417c42 f   qt-mt323:qt-mt323.dll
 0001:00016c48       ?focusNextPrevChild@QPopupMenu@@MAE_N_N@Z 00417c48 f   qt-mt323:qt-mt323.dll
 0001:00016c4e       ?enabledChange@QPopupMenu@@MAEX_N@Z 00417c4e f   qt-mt323:qt-mt323.dll
 0001:00016c54       ?styleChange@QPopupMenu@@MAEXAAVQStyle@@@Z 00417c54 f   qt-mt323:qt-mt323.dll
 0001:00016c5a       ?closeEvent@QPopupMenu@@MAEXPAVQCloseEvent@@@Z 00417c5a f   qt-mt323:qt-mt323.dll
 0001:00016c60       ?resizeEvent@QFrame@@MAEXPAVQResizeEvent@@@Z 00417c60 f   qt-mt323:qt-mt323.dll
 0001:00016c66       ?paintEvent@QPopupMenu@@MAEXPAVQPaintEvent@@@Z 00417c66 f   qt-mt323:qt-mt323.dll
 0001:00016c6c       ?leaveEvent@QPopupMenu@@MAEXPAVQEvent@@@Z 00417c6c f   qt-mt323:qt-mt323.dll
 0001:00016c72       ?focusOutEvent@QPopupMenu@@MAEXPAVQFocusEvent@@@Z 00417c72 f   qt-mt323:qt-mt323.dll
 0001:00016c78       ?focusInEvent@QPopupMenu@@MAEXPAVQFocusEvent@@@Z 00417c78 f   qt-mt323:qt-mt323.dll
 0001:00016c7e       ?keyPressEvent@QPopupMenu@@MAEXPAVQKeyEvent@@@Z 00417c7e f   qt-mt323:qt-mt323.dll
 0001:00016c84       ?mouseMoveEvent@QPopupMenu@@MAEXPAVQMouseEvent@@@Z 00417c84 f   qt-mt323:qt-mt323.dll
 0001:00016c8a       ?mouseReleaseEvent@QPopupMenu@@MAEXPAVQMouseEvent@@@Z 00417c8a f   qt-mt323:qt-mt323.dll
 0001:00016c90       ?mousePressEvent@QPopupMenu@@MAEXPAVQMouseEvent@@@Z 00417c90 f   qt-mt323:qt-mt323.dll
 0001:00016c96       ?customWhatsThis@QPopupMenu@@UBE_NXZ 00417c96 f   qt-mt323:qt-mt323.dll
 0001:00016c9c       ?sizeHint@QPopupMenu@@UBE?AVQSize@@XZ 00417c9c f   qt-mt323:qt-mt323.dll
 0001:00016ca2       ?hide@QPopupMenu@@UAEXXZ   00417ca2 f   qt-mt323:qt-mt323.dll
 0001:00016ca8       ?show@QPopupMenu@@UAEXXZ   00417ca8 f   qt-mt323:qt-mt323.dll
 0001:00016cae       ?setFont@QPopupMenu@@UAEXABVQFont@@@Z 00417cae f   qt-mt323:qt-mt323.dll
 0001:00016cb4       ?timerEvent@QPopupMenu@@MAEXPAVQTimerEvent@@@Z 00417cb4 f   qt-mt323:qt-mt323.dll
 0001:00016cba       ?qt_property@QPopupMenu@@UAE_NHHPAVQVariant@@@Z 00417cba f   qt-mt323:qt-mt323.dll
 0001:00016cc0       ?qt_emit@QPopupMenu@@UAE_NHPAUQUObject@@@Z 00417cc0 f   qt-mt323:qt-mt323.dll
 0001:00016cc6       ?qt_invoke@QPopupMenu@@UAE_NHPAUQUObject@@@Z 00417cc6 f   qt-mt323:qt-mt323.dll
 0001:00016ccc       ?qt_cast@QPopupMenu@@UAEPAXPBD@Z 00417ccc f   qt-mt323:qt-mt323.dll
 0001:00016cd2       ?className@QPopupMenu@@UBEPBDXZ 00417cd2 f   qt-mt323:qt-mt323.dll
 0001:00016cd8       ?metaObject@QPopupMenu@@UBEPAVQMetaObject@@XZ 00417cd8 f   qt-mt323:qt-mt323.dll
 0001:00016cde       ?menuDelPopup@QMenuBar@@EAEXPAVQPopupMenu@@@Z 00417cde f   qt-mt323:qt-mt323.dll
 0001:00016ce4       ?menuInsPopup@QMenuBar@@EAEXPAVQPopupMenu@@@Z 00417ce4 f   qt-mt323:qt-mt323.dll
 0001:00016cea       ?menuStateChanged@QMenuBar@@MAEXXZ 00417cea f   qt-mt323:qt-mt323.dll
 0001:00016cf0       ?menuContentsChanged@QMenuBar@@MAEXXZ 00417cf0 f   qt-mt323:qt-mt323.dll
 0001:00016cf6       ?activateItemAt@QMenuBar@@UAEXH@Z 00417cf6 f   qt-mt323:qt-mt323.dll
 0001:00016cfc       ?setId@QMenuData@@UAEXHH@Z 00417cfc f   qt-mt323:qt-mt323.dll
 0001:00016d02       ?updateItem@QMenuBar@@UAEXH@Z 00417d02 f   qt-mt323:qt-mt323.dll
 0001:00016d08       ?setSeparator@QMenuBar@@UAEXW4Separator@1@@Z 00417d08 f   qt-mt323:qt-mt323.dll
 0001:00016d0e       ?frameChanged@QMenuBar@@EAEXXZ 00417d0e f   qt-mt323:qt-mt323.dll
 0001:00016d14       ?drawContents@QMenuBar@@MAEXPAVQPainter@@@Z 00417d14 f   qt-mt323:qt-mt323.dll
 0001:00016d1a       ?fontChange@QMenuBar@@MAEXABVQFont@@@Z 00417d1a f   qt-mt323:qt-mt323.dll
 0001:00016d20       ?styleChange@QMenuBar@@MAEXAAVQStyle@@@Z 00417d20 f   qt-mt323:qt-mt323.dll
 0001:00016d26       ?resizeEvent@QMenuBar@@MAEXPAVQResizeEvent@@@Z 00417d26 f   qt-mt323:qt-mt323.dll
 0001:00016d2c       ?leaveEvent@QMenuBar@@MAEXPAVQEvent@@@Z 00417d2c f   qt-mt323:qt-mt323.dll
 0001:00016d32       ?focusOutEvent@QMenuBar@@MAEXPAVQFocusEvent@@@Z 00417d32 f   qt-mt323:qt-mt323.dll
 0001:00016d38       ?focusInEvent@QMenuBar@@MAEXPAVQFocusEvent@@@Z 00417d38 f   qt-mt323:qt-mt323.dll
 0001:00016d3e       ?keyPressEvent@QMenuBar@@MAEXPAVQKeyEvent@@@Z 00417d3e f   qt-mt323:qt-mt323.dll
 0001:00016d44       ?mouseMoveEvent@QMenuBar@@MAEXPAVQMouseEvent@@@Z 00417d44 f   qt-mt323:qt-mt323.dll
 0001:00016d4a       ?mouseReleaseEvent@QMenuBar@@MAEXPAVQMouseEvent@@@Z 00417d4a f   qt-mt323:qt-mt323.dll
 0001:00016d50       ?mousePressEvent@QMenuBar@@MAEXPAVQMouseEvent@@@Z 00417d50 f   qt-mt323:qt-mt323.dll
 0001:00016d56       ?customWhatsThis@QMenuBar@@UBE_NXZ 00417d56 f   qt-mt323:qt-mt323.dll
 0001:00016d5c       ?heightForWidth@QMenuBar@@UBEHH@Z 00417d5c f   qt-mt323:qt-mt323.dll
 0001:00016d62       ?minimumSizeHint@QMenuBar@@UBE?AVQSize@@XZ 00417d62 f   qt-mt323:qt-mt323.dll
 0001:00016d68       ?sizeHint@QMenuBar@@UBE?AVQSize@@XZ 00417d68 f   qt-mt323:qt-mt323.dll
 0001:00016d6e       ?hide@QMenuBar@@UAEXXZ     00417d6e f   qt-mt323:qt-mt323.dll
 0001:00016d74       ?show@QMenuBar@@UAEXXZ     00417d74 f   qt-mt323:qt-mt323.dll
 0001:00016d7a       ?eventFilter@QMenuBar@@UAE_NPAVQObject@@PAVQEvent@@@Z 00417d7a f   qt-mt323:qt-mt323.dll
 0001:00016d80       ?qt_property@QMenuBar@@UAE_NHHPAVQVariant@@@Z 00417d80 f   qt-mt323:qt-mt323.dll
 0001:00016d86       ?qt_emit@QMenuBar@@UAE_NHPAUQUObject@@@Z 00417d86 f   qt-mt323:qt-mt323.dll
 0001:00016d8c       ?qt_invoke@QMenuBar@@UAE_NHPAUQUObject@@@Z 00417d8c f   qt-mt323:qt-mt323.dll
 0001:00016d92       ?qt_cast@QMenuBar@@UAEPAXPBD@Z 00417d92 f   qt-mt323:qt-mt323.dll
 0001:00016d98       ?className@QMenuBar@@UBEPBDXZ 00417d98 f   qt-mt323:qt-mt323.dll
 0001:00016d9e       ?metaObject@QMenuBar@@UBEPAVQMetaObject@@XZ 00417d9e f   qt-mt323:qt-mt323.dll
 0001:00016da4       ?qt_property@QWidget@@UAE_NHHPAVQVariant@@@Z 00417da4 f   qt-mt323:qt-mt323.dll
 0001:00016daa       ?qt_emit@QWidget@@UAE_NHPAUQUObject@@@Z 00417daa f   qt-mt323:qt-mt323.dll
 0001:00016db0       ?qt_invoke@QWidget@@UAE_NHPAUQUObject@@@Z 00417db0 f   qt-mt323:qt-mt323.dll
 0001:00016db6       ?qt_cast@QWidget@@UAEPAXPBD@Z 00417db6 f   qt-mt323:qt-mt323.dll
 0001:00016dbc       ?className@QWidget@@UBEPBDXZ 00417dbc f   qt-mt323:qt-mt323.dll
 0001:00016dc2       ?metaObject@QWidget@@UBEPAVQMetaObject@@XZ 00417dc2 f   qt-mt323:qt-mt323.dll
 0001:00016dc8       ?setAlignment@QGroupBox@@UAEXH@Z 00417dc8 f   qt-mt323:qt-mt323.dll
 0001:00016dce       ?setTitle@QGroupBox@@UAEXABVQString@@@Z 00417dce f   qt-mt323:qt-mt323.dll
 0001:00016dd4       ?setColumnLayout@QGroupBox@@UAEXHW4Orientation@Qt@@@Z 00417dd4 f   qt-mt323:qt-mt323.dll
 0001:00016dda       ?drawContents@QFrame@@MAEXPAVQPainter@@@Z 00417dda f   qt-mt323:qt-mt323.dll
 0001:00016de0       ?fontChange@QGroupBox@@MAEXABVQFont@@@Z 00417de0 f   qt-mt323:qt-mt323.dll
 0001:00016de6       ?resizeEvent@QGroupBox@@MAEXPAVQResizeEvent@@@Z 00417de6 f   qt-mt323:qt-mt323.dll
 0001:00016dec       ?paintEvent@QGroupBox@@MAEXPAVQPaintEvent@@@Z 00417dec f   qt-mt323:qt-mt323.dll
 0001:00016df2       ?focusInEvent@QGroupBox@@MAEXPAVQFocusEvent@@@Z 00417df2 f   qt-mt323:qt-mt323.dll
 0001:00016df8       ?sizeHint@QGroupBox@@UBE?AVQSize@@XZ 00417df8 f   qt-mt323:qt-mt323.dll
 0001:00016dfe       ?setEnabled@QGroupBox@@UAEX_N@Z 00417dfe f   qt-mt323:qt-mt323.dll
 0001:00016e04       ?childEvent@QGroupBox@@MAEXPAVQChildEvent@@@Z 00417e04 f   qt-mt323:qt-mt323.dll
 0001:00016e0a       ?event@QGroupBox@@MAE_NPAVQEvent@@@Z 00417e0a f   qt-mt323:qt-mt323.dll
 0001:00016e10       ?qt_property@QGroupBox@@UAE_NHHPAVQVariant@@@Z 00417e10 f   qt-mt323:qt-mt323.dll
 0001:00016e16       ?qt_emit@QGroupBox@@UAE_NHPAUQUObject@@@Z 00417e16 f   qt-mt323:qt-mt323.dll
 0001:00016e1c       ?qt_invoke@QGroupBox@@UAE_NHPAUQUObject@@@Z 00417e1c f   qt-mt323:qt-mt323.dll
 0001:00016e22       ?qt_cast@QGroupBox@@UAEPAXPBD@Z 00417e22 f   qt-mt323:qt-mt323.dll
 0001:00016e28       ?className@QGroupBox@@UBEPBDXZ 00417e28 f   qt-mt323:qt-mt323.dll
 0001:00016e2e       ?metaObject@QGroupBox@@UBEPAVQMetaObject@@XZ 00417e2e f   qt-mt323:qt-mt323.dll
 0001:00016e34       ?setEnabled@QAction@@UAEX_N@Z 00417e34 f   qt-mt323:qt-mt323.dll
 0001:00016e3a       ?setOn@QAction@@UAEX_N@Z   00417e3a f   qt-mt323:qt-mt323.dll
 0001:00016e40       ?addedTo@QAction@@MAEXPAVQWidget@@0@Z 00417e40 f   qt-mt323:qt-mt323.dll
 0001:00016e46       ?addedTo@QAction@@MAEXHPAVQPopupMenu@@@Z 00417e46 f   qt-mt323:qt-mt323.dll
 0001:00016e4c       ?removeFrom@QAction@@UAE_NPAVQWidget@@@Z 00417e4c f   qt-mt323:qt-mt323.dll
 0001:00016e52       ?addTo@QAction@@UAE_NPAVQWidget@@@Z 00417e52 f   qt-mt323:qt-mt323.dll
 0001:00016e58       ?setToggleAction@QAction@@UAEX_N@Z 00417e58 f   qt-mt323:qt-mt323.dll
 0001:00016e5e       ?setAccel@QAction@@UAEXABVQKeySequence@@@Z 00417e5e f   qt-mt323:qt-mt323.dll
 0001:00016e64       ?setWhatsThis@QAction@@UAEXABVQString@@@Z 00417e64 f   qt-mt323:qt-mt323.dll
 0001:00016e6a       ?setStatusTip@QAction@@UAEXABVQString@@@Z 00417e6a f   qt-mt323:qt-mt323.dll
 0001:00016e70       ?setToolTip@QAction@@UAEXABVQString@@@Z 00417e70 f   qt-mt323:qt-mt323.dll
 0001:00016e76       ?setMenuText@QAction@@UAEXABVQString@@@Z 00417e76 f   qt-mt323:qt-mt323.dll
 0001:00016e7c       ?setText@QAction@@UAEXABVQString@@@Z 00417e7c f   qt-mt323:qt-mt323.dll
 0001:00016e82       ?setIconSet@QAction@@UAEXABVQIconSet@@@Z 00417e82 f   qt-mt323:qt-mt323.dll
 0001:00016e88       ?qt_property@QAction@@UAE_NHHPAVQVariant@@@Z 00417e88 f   qt-mt323:qt-mt323.dll
 0001:00016e8e       ?qt_emit@QAction@@UAE_NHPAUQUObject@@@Z 00417e8e f   qt-mt323:qt-mt323.dll
 0001:00016e94       ?qt_invoke@QAction@@UAE_NHPAUQUObject@@@Z 00417e94 f   qt-mt323:qt-mt323.dll
 0001:00016e9a       ?qt_cast@QAction@@UAEPAXPBD@Z 00417e9a f   qt-mt323:qt-mt323.dll
 0001:00016ea0       ?className@QAction@@UBEPBDXZ 00417ea0 f   qt-mt323:qt-mt323.dll
 0001:00016ea6       ?metaObject@QAction@@UBEPAVQMetaObject@@XZ 00417ea6 f   qt-mt323:qt-mt323.dll
 0001:00016eac       ?paintEmptyArea@QListView@@MAEXPAVQPainter@@ABVQRect@@@Z 00417eac f   qt-mt323:qt-mt323.dll
 0001:00016eb2       ?startDrag@QListView@@MAEXXZ 00417eb2 f   qt-mt323:qt-mt323.dll
 0001:00016eb8       ?dragObject@QListView@@MAEPAVQDragObject@@XZ 00417eb8 f   qt-mt323:qt-mt323.dll
 0001:00016ebe       ?selectAll@QListView@@UAEX_N@Z 00417ebe f   qt-mt323:qt-mt323.dll
 0001:00016ec4       ?invertSelection@QListView@@UAEXXZ 00417ec4 f   qt-mt323:qt-mt323.dll
 0001:00016eca       ?clear@QListView@@UAEXXZ   00417eca f   qt-mt323:qt-mt323.dll
 0001:00016ed0       ?setDefaultRenameAction@QListView@@UAEXW4RenameAction@1@@Z 00417ed0 f   qt-mt323:qt-mt323.dll
 0001:00016ed6       ?setResizeMode@QListView@@UAEXW4ResizeMode@1@@Z 00417ed6 f   qt-mt323:qt-mt323.dll
 0001:00016edc       ?setShowToolTips@QListView@@UAEX_N@Z 00417edc f   qt-mt323:qt-mt323.dll
 0001:00016ee2       ?setShowSortIndicator@QListView@@UAEX_N@Z 00417ee2 f   qt-mt323:qt-mt323.dll
 0001:00016ee8       ?sort@QListView@@UAEXXZ    00417ee8 f   qt-mt323:qt-mt323.dll
 0001:00016eee       ?setSorting@QListView@@UAEXH_N@Z 00417eee f   qt-mt323:qt-mt323.dll
 0001:00016ef4       ?setRootIsDecorated@QListView@@UAEX_N@Z 00417ef4 f   qt-mt323:qt-mt323.dll
 0001:00016efa       ?setItemMargin@QListView@@UAEXH@Z 00417efa f   qt-mt323:qt-mt323.dll
 0001:00016f00       ?setAllColumnsShowFocus@QListView@@UAEX_N@Z 00417f00 f   qt-mt323:qt-mt323.dll
 0001:00016f06       ?setCurrentItem@QListView@@UAEXPAVQListViewItem@@@Z 00417f06 f   qt-mt323:qt-mt323.dll
 0001:00016f0c       ?setOpen@QListView@@UAEXPAVQListViewItem@@_N@Z 00417f0c f   qt-mt323:qt-mt323.dll
 0001:00016f12       ?setSelected@QListView@@UAEXPAVQListViewItem@@_N@Z 00417f12 f   qt-mt323:qt-mt323.dll
 0001:00016f18       ?clearSelection@QListView@@UAEXXZ 00417f18 f   qt-mt323:qt-mt323.dll
 0001:00016f1e       ?setMultiSelection@QListView@@UAEX_N@Z 00417f1e f   qt-mt323:qt-mt323.dll
 0001:00016f24       ?setColumnAlignment@QListView@@UAEXHH@Z 00417f24 f   qt-mt323:qt-mt323.dll
 0001:00016f2a       ?setColumnWidthMode@QListView@@UAEXHW4WidthMode@1@@Z 00417f2a f   qt-mt323:qt-mt323.dll
 0001:00016f30       ?setColumnWidth@QListView@@UAEXHH@Z 00417f30 f   qt-mt323:qt-mt323.dll
 0001:00016f36       ?setColumnText@QListView@@UAEXHABVQString@@@Z 00417f36 f   qt-mt323:qt-mt323.dll
 0001:00016f3c       ?setColumnText@QListView@@UAEXHABVQIconSet@@ABVQString@@@Z 00417f3c f   qt-mt323:qt-mt323.dll
 0001:00016f42       ?removeColumn@QListView@@UAEXH@Z 00417f42 f   qt-mt323:qt-mt323.dll
 0001:00016f48       ?addColumn@QListView@@UAEHABVQString@@H@Z 00417f48 f   qt-mt323:qt-mt323.dll
 0001:00016f4e       ?addColumn@QListView@@UAEHABVQIconSet@@ABVQString@@H@Z 00417f4e f   qt-mt323:qt-mt323.dll
 0001:00016f54       ?removeItem@QListView@@UAEXPAVQListViewItem@@@Z 00417f54 f   qt-mt323:qt-mt323.dll
 0001:00016f5a       ?takeItem@QListView@@UAEXPAVQListViewItem@@@Z 00417f5a f   qt-mt323:qt-mt323.dll
 0001:00016f60       ?insertItem@QListView@@UAEXPAVQListViewItem@@@Z 00417f60 f   qt-mt323:qt-mt323.dll
 0001:00016f66       ?setTreeStepSize@QListView@@UAEXH@Z 00417f66 f   qt-mt323:qt-mt323.dll
 0001:00016f6c       ?setVBarGeometry@QScrollView@@MAEXAAVQScrollBar@@HHHH@Z 00417f6c f   qt-mt323:qt-mt323.dll
 0001:00016f72       ?setHBarGeometry@QScrollView@@MAEXAAVQScrollBar@@HHHH@Z 00417f72 f   qt-mt323:qt-mt323.dll
 0001:00016f78       ?setMargins@QScrollView@@MAEXHHHH@Z 00417f78 f   qt-mt323:qt-mt323.dll
 0001:00016f7e       ?viewportContextMenuEvent@QScrollView@@MAEXPAVQContextMenuEvent@@@Z 00417f7e f   qt-mt323:qt-mt323.dll
 0001:00016f84       ?viewportWheelEvent@QScrollView@@MAEXPAVQWheelEvent@@@Z 00417f84 f   qt-mt323:qt-mt323.dll
 0001:00016f8a       ?viewportDropEvent@QScrollView@@MAEXPAVQDropEvent@@@Z 00417f8a f   qt-mt323:qt-mt323.dll
 0001:00016f90       ?viewportDragLeaveEvent@QScrollView@@MAEXPAVQDragLeaveEvent@@@Z 00417f90 f   qt-mt323:qt-mt323.dll
 0001:00016f96       ?viewportDragMoveEvent@QScrollView@@MAEXPAVQDragMoveEvent@@@Z 00417f96 f   qt-mt323:qt-mt323.dll
 0001:00016f9c       ?viewportDragEnterEvent@QScrollView@@MAEXPAVQDragEnterEvent@@@Z 00417f9c f   qt-mt323:qt-mt323.dll
 0001:00016fa2       ?viewportMouseMoveEvent@QScrollView@@MAEXPAVQMouseEvent@@@Z 00417fa2 f   qt-mt323:qt-mt323.dll
 0001:00016fa8       ?viewportMouseDoubleClickEvent@QScrollView@@MAEXPAVQMouseEvent@@@Z 00417fa8 f   qt-mt323:qt-mt323.dll
 0001:00016fae       ?viewportMouseReleaseEvent@QScrollView@@MAEXPAVQMouseEvent@@@Z 00417fae f   qt-mt323:qt-mt323.dll
 0001:00016fb4       ?viewportMousePressEvent@QScrollView@@MAEXPAVQMouseEvent@@@Z 00417fb4 f   qt-mt323:qt-mt323.dll
 0001:00016fba       ?viewportResizeEvent@QListView@@MAEXPAVQResizeEvent@@@Z 00417fba f   qt-mt323:qt-mt323.dll
 0001:00016fc0       ?viewportPaintEvent@QScrollView@@MAEXPAVQPaintEvent@@@Z 00417fc0 f   qt-mt323:qt-mt323.dll
 0001:00016fc6       ?contentsContextMenuEvent@QListView@@MAEXPAVQContextMenuEvent@@@Z 00417fc6 f   qt-mt323:qt-mt323.dll
 0001:00016fcc       ?contentsWheelEvent@QScrollView@@MAEXPAVQWheelEvent@@@Z 00417fcc f   qt-mt323:qt-mt323.dll
 0001:00016fd2       ?contentsDropEvent@QListView@@MAEXPAVQDropEvent@@@Z 00417fd2 f   qt-mt323:qt-mt323.dll
 0001:00016fd8       ?contentsDragLeaveEvent@QListView@@MAEXPAVQDragLeaveEvent@@@Z 00417fd8 f   qt-mt323:qt-mt323.dll
 0001:00016fde       ?contentsDragMoveEvent@QListView@@MAEXPAVQDragMoveEvent@@@Z 00417fde f   qt-mt323:qt-mt323.dll
 0001:00016fe4       ?contentsDragEnterEvent@QListView@@MAEXPAVQDragEnterEvent@@@Z 00417fe4 f   qt-mt323:qt-mt323.dll
 0001:00016fea       ?contentsMouseMoveEvent@QListView@@MAEXPAVQMouseEvent@@@Z 00417fea f   qt-mt323:qt-mt323.dll
 0001:00016ff0       ?contentsMouseDoubleClickEvent@QListView@@MAEXPAVQMouseEvent@@@Z 00417ff0 f   qt-mt323:qt-mt323.dll
 0001:00016ff6       ?contentsMouseReleaseEvent@QListView@@MAEXPAVQMouseEvent@@@Z 00417ff6 f   qt-mt323:qt-mt323.dll
 0001:00016ffc       ?contentsMousePressEvent@QListView@@MAEXPAVQMouseEvent@@@Z 00417ffc f   qt-mt323:qt-mt323.dll
 0001:00017002       ?drawContentsOffset@QListView@@MAEXPAVQPainter@@HHHHHH@Z 00418002 f   qt-mt323:qt-mt323.dll
 0001:00017008       ?drawContents@QScrollView@@MAEXPAVQPainter@@HHHH@Z 00418008 f   qt-mt323:qt-mt323.dll
 0001:0001700e       ?setContentsPos@QListView@@UAEXHH@Z 0041800e f   qt-mt323:qt-mt323.dll
 0001:00017014       ?resizeContents@QScrollView@@UAEXHH@Z 00418014 f   qt-mt323:qt-mt323.dll
 0001:0001701a       ?setDragAutoScroll@QScrollView@@UAEX_N@Z 0041801a f   qt-mt323:qt-mt323.dll
 0001:00017020       ?setCornerWidget@QScrollView@@UAEXPAVQWidget@@@Z 00418020 f   qt-mt323:qt-mt323.dll
 0001:00017026       ?setHScrollBarMode@QScrollView@@UAEXW4ScrollBarMode@1@@Z 00418026 f   qt-mt323:qt-mt323.dll
 0001:0001702c       ?setVScrollBarMode@QScrollView@@UAEXW4ScrollBarMode@1@@Z 0041802c f   qt-mt323:qt-mt323.dll
 0001:00017032       ?moveChild@QScrollView@@UAEXPAVQWidget@@HH@Z 00418032 f   qt-mt323:qt-mt323.dll
 0001:00017038       ?addChild@QScrollView@@UAEXPAVQWidget@@HH@Z 00418038 f   qt-mt323:qt-mt323.dll
 0001:0001703e       ?setResizePolicy@QScrollView@@UAEXW4ResizePolicy@1@@Z 0041803e f   qt-mt323:qt-mt323.dll
 0001:00017044       ?frameChanged@QScrollView@@MAEXXZ 00418044 f   qt-mt323:qt-mt323.dll
 0001:0001704a       ?drawContents@QScrollView@@EAEXPAVQPainter@@@Z 0041804a f   qt-mt323:qt-mt323.dll
 0001:00017050       ?focusNextPrevChild@QScrollView@@MAE_N_N@Z 00418050 f   qt-mt323:qt-mt323.dll
 0001:00017056       ?windowActivationChange@QListView@@MAEX_N@Z 00418056 f   qt-mt323:qt-mt323.dll
 0001:0001705c       ?fontChange@QScrollView@@MAEXABVQFont@@@Z 0041805c f   qt-mt323:qt-mt323.dll
 0001:00017062       ?styleChange@QListView@@MAEXAAVQStyle@@@Z 00418062 f   qt-mt323:qt-mt323.dll
 0001:00017068       ?showEvent@QListView@@MAEXPAVQShowEvent@@@Z 00418068 f   qt-mt323:qt-mt323.dll
 0001:0001706e       ?contextMenuEvent@QScrollView@@MAEXPAVQContextMenuEvent@@@Z 0041806e f   qt-mt323:qt-mt323.dll
 0001:00017074       ?resizeEvent@QListView@@MAEXPAVQResizeEvent@@@Z 00418074 f   qt-mt323:qt-mt323.dll
 0001:0001707a       ?focusOutEvent@QListView@@MAEXPAVQFocusEvent@@@Z 0041807a f   qt-mt323:qt-mt323.dll
 0001:00017080       ?focusInEvent@QListView@@MAEXPAVQFocusEvent@@@Z 00418080 f   qt-mt323:qt-mt323.dll
 0001:00017086       ?keyPressEvent@QListView@@MAEXPAVQKeyEvent@@@Z 00418086 f   qt-mt323:qt-mt323.dll
 0001:0001708c       ?wheelEvent@QScrollView@@MAEXPAVQWheelEvent@@@Z 0041808c f   qt-mt323:qt-mt323.dll
 0001:00017092       ?mouseMoveEvent@QScrollView@@MAEXPAVQMouseEvent@@@Z 00418092 f   qt-mt323:qt-mt323.dll
 0001:00017098       ?mouseDoubleClickEvent@QScrollView@@MAEXPAVQMouseEvent@@@Z 00418098 f   qt-mt323:qt-mt323.dll
 0001:0001709e       ?mouseReleaseEvent@QScrollView@@MAEXPAVQMouseEvent@@@Z 0041809e f   qt-mt323:qt-mt323.dll
 0001:000170a4       ?mousePressEvent@QScrollView@@MAEXPAVQMouseEvent@@@Z 004180a4 f   qt-mt323:qt-mt323.dll
 0001:000170aa       ?minimumSizeHint@QListView@@UBE?AVQSize@@XZ 004180aa f   qt-mt323:qt-mt323.dll
 0001:000170b0       ?sizeHint@QListView@@UBE?AVQSize@@XZ 004180b0 f   qt-mt323:qt-mt323.dll
 0001:000170b6       ?resize@QScrollView@@UAEXHH@Z 004180b6 f   qt-mt323:qt-mt323.dll
 0001:000170bc       ?show@QListView@@UAEXXZ    004180bc f   qt-mt323:qt-mt323.dll
 0001:000170c2       ?setFont@QListView@@UAEXABVQFont@@@Z 004180c2 f   qt-mt323:qt-mt323.dll
 0001:000170c8       ?setPalette@QListView@@UAEXABVQPalette@@@Z 004180c8 f   qt-mt323:qt-mt323.dll
 0001:000170ce       ?setEnabled@QScrollView@@UAEX_N@Z 004180ce f   qt-mt323:qt-mt323.dll
 0001:000170d4       ?removeChild@QScrollView@@UAEXPAVQObject@@@Z 004180d4 f   qt-mt323:qt-mt323.dll
 0001:000170da       ?eventFilter@QListView@@UAE_NPAVQObject@@PAVQEvent@@@Z 004180da f   qt-mt323:qt-mt323.dll
 0001:000170e0       ?qt_property@QListView@@UAE_NHHPAVQVariant@@@Z 004180e0 f   qt-mt323:qt-mt323.dll
 0001:000170e6       ?qt_emit@QListView@@UAE_NHPAUQUObject@@@Z 004180e6 f   qt-mt323:qt-mt323.dll
 0001:000170ec       ?qt_invoke@QListView@@UAE_NHPAUQUObject@@@Z 004180ec f   qt-mt323:qt-mt323.dll
 0001:000170f2       ?qt_cast@QListView@@UAEPAXPBD@Z 004180f2 f   qt-mt323:qt-mt323.dll
 0001:000170f8       ?className@QListView@@UBEPBDXZ 004180f8 f   qt-mt323:qt-mt323.dll
 0001:000170fe       ?metaObject@QListView@@UBEPAVQMetaObject@@XZ 004180fe f   qt-mt323:qt-mt323.dll
 0001:00017104       ?paintCell@QListBox@@MAEXPAVQPainter@@HH@Z 00418104 f   qt-mt323:qt-mt323.dll
 0001:0001710a       ?invertSelection@QListBox@@UAEXXZ 0041810a f   qt-mt323:qt-mt323.dll
 0001:00017110       ?selectAll@QListBox@@UAEX_N@Z 00418110 f   qt-mt323:qt-mt323.dll
 0001:00017116       ?clearSelection@QListBox@@UAEXXZ 00418116 f   qt-mt323:qt-mt323.dll
 0001:0001711c       ?ensureCurrentVisible@QListBox@@UAEXXZ 0041811c f   qt-mt323:qt-mt323.dll
 0001:00017122       ?setVariableHeight@QListBox@@UAEX_N@Z 00418122 f   qt-mt323:qt-mt323.dll
 0001:00017128       ?setVariableWidth@QListBox@@UAEX_N@Z 00418128 f   qt-mt323:qt-mt323.dll
 0001:0001712e       ?setRowMode@QListBox@@UAEXW4LayoutMode@1@@Z 0041812e f   qt-mt323:qt-mt323.dll
 0001:00017134       ?setRowMode@QListBox@@UAEXH@Z 00418134 f   qt-mt323:qt-mt323.dll
 0001:0001713a       ?setColumnMode@QListBox@@UAEXW4LayoutMode@1@@Z 0041813a f   qt-mt323:qt-mt323.dll
 0001:00017140       ?setColumnMode@QListBox@@UAEXH@Z 00418140 f   qt-mt323:qt-mt323.dll
 0001:00017146       ?setSelected@QListBox@@UAEXPAVQListBoxItem@@_N@Z 00418146 f   qt-mt323:qt-mt323.dll
 0001:0001714c       ?setSelectionMode@QListBox@@UAEXW4SelectionMode@1@@Z 0041814c f   qt-mt323:qt-mt323.dll
 0001:00017152       ?setBottomItem@QListBox@@UAEXH@Z 00418152 f   qt-mt323:qt-mt323.dll
 0001:00017158       ?setTopItem@QListBox@@UAEXH@Z 00418158 f   qt-mt323:qt-mt323.dll
 0001:0001715e       ?setCurrentItem@QListBox@@UAEXH@Z 0041815e f   qt-mt323:qt-mt323.dll
 0001:00017164       ?setCurrentItem@QListBox@@UAEXPAVQListBoxItem@@@Z 00418164 f   qt-mt323:qt-mt323.dll
 0001:0001716a       ?viewportResizeEvent@QScrollView@@MAEXPAVQResizeEvent@@@Z 0041816a f   qt-mt323:qt-mt323.dll
 0001:00017170       ?viewportPaintEvent@QListBox@@UAEXPAVQPaintEvent@@@Z 00418170 f   qt-mt323:qt-mt323.dll
 0001:00017176       ?contentsContextMenuEvent@QListBox@@MAEXPAVQContextMenuEvent@@@Z 00418176 f   qt-mt323:qt-mt323.dll
 0001:0001717c       ?contentsDropEvent@QScrollView@@MAEXPAVQDropEvent@@@Z 0041817c f   qt-mt323:qt-mt323.dll
 0001:00017182       ?contentsDragLeaveEvent@QScrollView@@MAEXPAVQDragLeaveEvent@@@Z 00418182 f   qt-mt323:qt-mt323.dll
 0001:00017188       ?contentsDragMoveEvent@QScrollView@@MAEXPAVQDragMoveEvent@@@Z 00418188 f   qt-mt323:qt-mt323.dll
 0001:0001718e       ?contentsDragEnterEvent@QScrollView@@MAEXPAVQDragEnterEvent@@@Z 0041818e f   qt-mt323:qt-mt323.dll
 0001:00017194       ?contentsMouseMoveEvent@QScrollView@@MAEXPAVQMouseEvent@@@Z 00418194 f   qt-mt323:qt-mt323.dll
 0001:0001719a       ?contentsMouseDoubleClickEvent@QScrollView@@MAEXPAVQMouseEvent@@@Z 0041819a f   qt-mt323:qt-mt323.dll
 0001:000171a0       ?contentsMouseReleaseEvent@QScrollView@@MAEXPAVQMouseEvent@@@Z 004181a0 f   qt-mt323:qt-mt323.dll
 0001:000171a6       ?contentsMousePressEvent@QScrollView@@MAEXPAVQMouseEvent@@@Z 004181a6 f   qt-mt323:qt-mt323.dll
 0001:000171ac       ?drawContentsOffset@QScrollView@@MAEXPAVQPainter@@HHHHHH@Z 004181ac f   qt-mt323:qt-mt323.dll
 0001:000171b2       ?setContentsPos@QScrollView@@UAEXHH@Z 004181b2 f   qt-mt323:qt-mt323.dll
 0001:000171b8       ?windowActivationChange@QListBox@@MAEX_N@Z 004181b8 f   qt-mt323:qt-mt323.dll
 0001:000171be       ?styleChange@QScrollView@@UAEXAAVQStyle@@@Z 004181be f   qt-mt323:qt-mt323.dll
 0001:000171c4       ?showEvent@QListBox@@MAEXPAVQShowEvent@@@Z 004181c4 f   qt-mt323:qt-mt323.dll
 0001:000171ca       ?resizeEvent@QListBox@@MAEXPAVQResizeEvent@@@Z 004181ca f   qt-mt323:qt-mt323.dll
 0001:000171d0       ?focusOutEvent@QListBox@@MAEXPAVQFocusEvent@@@Z 004181d0 f   qt-mt323:qt-mt323.dll
 0001:000171d6       ?focusInEvent@QListBox@@MAEXPAVQFocusEvent@@@Z 004181d6 f   qt-mt323:qt-mt323.dll
 0001:000171dc       ?keyPressEvent@QListBox@@MAEXPAVQKeyEvent@@@Z 004181dc f   qt-mt323:qt-mt323.dll
 0001:000171e2       ?mouseMoveEvent@QListBox@@MAEXPAVQMouseEvent@@@Z 004181e2 f   qt-mt323:qt-mt323.dll
 0001:000171e8       ?mouseDoubleClickEvent@QListBox@@MAEXPAVQMouseEvent@@@Z 004181e8 f   qt-mt323:qt-mt323.dll
 0001:000171ee       ?mouseReleaseEvent@QListBox@@MAEXPAVQMouseEvent@@@Z 004181ee f   qt-mt323:qt-mt323.dll
 0001:000171f4       ?mousePressEvent@QListBox@@MAEXPAVQMouseEvent@@@Z 004181f4 f   qt-mt323:qt-mt323.dll
 0001:000171fa       ?minimumSizeHint@QListBox@@UBE?AVQSize@@XZ 004181fa f   qt-mt323:qt-mt323.dll
 0001:00017200       ?sizeHint@QListBox@@UBE?AVQSize@@XZ 00418200 f   qt-mt323:qt-mt323.dll
 0001:00017206       ?show@QScrollView@@UAEXXZ  00418206 f   qt-mt323:qt-mt323.dll
 0001:0001720c       ?setFont@QListBox@@UAEXABVQFont@@@Z 0041820c f   qt-mt323:qt-mt323.dll
 0001:00017212       ?eventFilter@QListBox@@MAE_NPAVQObject@@PAVQEvent@@@Z 00418212 f   qt-mt323:qt-mt323.dll
 0001:00017218       ?qt_property@QListBox@@UAE_NHHPAVQVariant@@@Z 00418218 f   qt-mt323:qt-mt323.dll
 0001:0001721e       ?qt_emit@QListBox@@UAE_NHPAUQUObject@@@Z 0041821e f   qt-mt323:qt-mt323.dll
 0001:00017224       ?qt_invoke@QListBox@@UAE_NHPAUQUObject@@@Z 00418224 f   qt-mt323:qt-mt323.dll
 0001:0001722a       ?qt_cast@QListBox@@UAEPAXPBD@Z 0041822a f   qt-mt323:qt-mt323.dll
 0001:00017230       ?className@QListBox@@UBEPBDXZ 00418230 f   qt-mt323:qt-mt323.dll
 0001:00017236       ?metaObject@QListBox@@UBEPAVQMetaObject@@XZ 00418236 f   qt-mt323:qt-mt323.dll
 0001:0001723c       ?saveState@QApplication@@UAEXAAVQSessionManager@@@Z 0041823c f   qt-mt323:qt-mt323.dll
 0001:00017242       ?commitData@QApplication@@UAEXAAVQSessionManager@@@Z 00418242 f   qt-mt323:qt-mt323.dll
 0001:00017248       ?notify@QApplication@@UAE_NPAVQObject@@PAVQEvent@@@Z 00418248 f   qt-mt323:qt-mt323.dll
 0001:0001724e       ?polish@QApplication@@UAEXPAVQWidget@@@Z 0041824e f   qt-mt323:qt-mt323.dll
 0001:00017254       ?event@QApplication@@MAE_NPAVQEvent@@@Z 00418254 f   qt-mt323:qt-mt323.dll
 0001:0001725a       ??_Etype_info@@UAEPAXI@Z   0041825a f i MSVCRT:ti_inst.obj
 0001:0001725a       ??_Gtype_info@@UAEPAXI@Z   0041825a f i MSVCRT:ti_inst.obj
 0001:00017276       ___CxxFrameHandler         00418276 f   MSVCRT:MSVCRT.dll
 0001:00017280       __alloca_probe             00418280 f   MSVCRT:chkstk.obj
 0001:00017280       __chkstk                   00418280 f   MSVCRT:chkstk.obj
 0001:000172b0       ??3@YAXPAX@Z               004182b0 f   MSVCRT:MSVCRT.dll
 0001:000172b6       _strncpy                   004182b6 f   MSVCRT:MSVCRT.dll
 0001:000172bc       ??2@YAPAXI@Z               004182bc f   MSVCRT:MSVCRT.dll
 0001:000172c2       _getenv                    004182c2 f   MSVCRT:MSVCRT.dll
 0001:000172c8       ___RTDynamicCast           004182c8 f   MSVCRT:MSVCRT.dll
 0001:000172ce       _sprintf                   004182ce f   MSVCRT:MSVCRT.dll
 0001:000172d4       __purecall                 004182d4 f   MSVCRT:MSVCRT.dll
 0001:000172da       __onexit                   004182da f   MSVCRT:atonexit.obj
 0001:00017306       _atexit                    00418306 f   MSVCRT:atonexit.obj
 0001:00017318       ??_M@YGXPAXIHP6EX0@Z@Z     00418318 f   MSVCRT:ehvecdtr.obj
 0001:00017398       ?__ArrayUnwind@@YGXPAXIHP6EX0@Z@Z 00418398 f   MSVCRT:ehvecdtr.obj
 0001:0001740c       ??_L@YGXPAXIHP6EX0@Z1@Z    0041840c f   MSVCRT:ehvecctr.obj
 0001:0001748e       _WinMainCRTStartup         0041848e f   MSVCRT:crtexew.obj
 0001:000175ec       _localtime                 004185ec f   MSVCRT:MSVCRT.dll
 0001:000175f2       _time                      004185f2 f   MSVCRT:MSVCRT.dll
 0001:000175f8       __mkdir                    004185f8 f   MSVCRT:MSVCRT.dll
 0001:000175fe       _strtok                    004185fe f   MSVCRT:MSVCRT.dll
 0001:00017604       _free                      00418604 f   MSVCRT:MSVCRT.dll
 0001:0001760a       _strpbrk                   0041860a f   MSVCRT:MSVCRT.dll
 0001:00017610       _malloc                    00418610 f   MSVCRT:MSVCRT.dll
 0001:00017616       ??1type_info@@UAE@XZ       00418616 f   MSVCRT:MSVCRT.dll
 0001:0001761c       ___dllonexit               0041861c f   MSVCRT:MSVCRT.dll
 0001:00017622       __except_handler3          00418622 f   MSVCRT:MSVCRT.dll
 0001:00017628       ?terminate@@YAXXZ          00418628 f   MSVCRT:MSVCRT.dll
 0001:0001762e       __XcptFilter               0041862e f   MSVCRT:MSVCRT.dll
 0001:00017634       __initterm                 00418634 f   MSVCRT:MSVCRT.dll
 0001:0001763a       __setdefaultprecision      0041863a f   MSVCRT:fp8.obj
 0001:0001764c       __matherr                  0041864c f   MSVCRT:merr.obj
 0001:0001764f       __setargv                  0041864f f   MSVCRT:dllargv.obj
 0001:00017650       __controlfp                00418650 f   MSVCRT:MSVCRT.dll
 0001:00017660       _WinMain@16                00418660 f   qtmain:qtmain_win.obj
 0001:000176ed       ?detach@?$QMemArray@PAD@@UAEXXZ 004186ed f i qtmain:qtmain_win.obj
 0001:000176f5       ??_G?$QMemArray@PAD@@UAEPAXI@Z 004186f5 f i qtmain:qtmain_win.obj
 0001:000176f5       ??_E?$QMemArray@PAD@@UAEPAXI@Z 004186f5 f i qtmain:qtmain_win.obj
 0001:00017718       _strcpy                    00418718 f   MSVCRT:MSVCRT.dll
 0001:0001771e       _strlen                    0041871e f   MSVCRT:MSVCRT.dll
 0001:00017724       ?deleteData@QGArray@@MAEXPAUarray_data@1@@Z 00418724 f   qt-mt323:qt-mt323.dll
 0001:0001772a       ?newData@QGArray@@MAEPAUarray_data@1@XZ 0041872a f   qt-mt323:qt-mt323.dll
 0001:00017730       ?qWinMain@@YAXPAUHINSTANCE__@@0PADHAAHAAV?$QMemArray@PAD@@@Z 00418730 f   qt-mt323:qt-mt323.dll
 0002:00000000       __imp__LookupPrivilegeValueA@12 0041b000     advapi32:ADVAPI32.dll
 0002:00000004       __imp__AdjustTokenPrivileges@24 0041b004     advapi32:ADVAPI32.dll
 0002:00000008       __imp__GetUserNameA@8      0041b008     advapi32:ADVAPI32.dll
 0002:0000000c       __imp__OpenProcessToken@12 0041b00c     advapi32:ADVAPI32.dll
 0002:00000010       \177ADVAPI32_NULL_THUNK_DATA 0041b010     advapi32:ADVAPI32.dll
 0002:00000014       __imp__GetSystemInfo@4     0041b014     kernel32:KERNEL32.dll
 0002:00000018       __imp__GetPrivateProfileIntA@16 0041b018     kernel32:KERNEL32.dll
 0002:0000001c       __imp__GetModuleFileNameA@12 0041b01c     kernel32:KERNEL32.dll
 0002:00000020       __imp__GetModuleHandleA@4  0041b020     kernel32:KERNEL32.dll
 0002:00000024       __imp__GetProcAddress@8    0041b024     kernel32:KERNEL32.dll
 0002:00000028       __imp__GetPrivateProfileStringA@24 0041b028     kernel32:KERNEL32.dll
 0002:0000002c       __imp__GetVersionExA@4     0041b02c     kernel32:KERNEL32.dll
 0002:00000030       __imp__OutputDebugStringA@4 0041b030     kernel32:KERNEL32.dll
 0002:00000034       __imp__Sleep@4             0041b034     kernel32:KERNEL32.dll
 0002:00000038       __imp__GetLastError@0      0041b038     kernel32:KERNEL32.dll
 0002:0000003c       __imp__GetCurrentProcess@0 0041b03c     kernel32:KERNEL32.dll
 0002:00000040       __imp__WritePrivateProfileStringA@16 0041b040     kernel32:KERNEL32.dll
 0002:00000044       __imp__GetSystemDirectoryA@8 0041b044     kernel32:KERNEL32.dll
 0002:00000048       __imp__SetFilePointer@16   0041b048     kernel32:KERNEL32.dll
 0002:0000004c       __imp__GetStartupInfoA@4   0041b04c     kernel32:KERNEL32.dll
 0002:00000050       __imp__WriteFile@20        0041b050     kernel32:KERNEL32.dll
 0002:00000054       __imp__CloseHandle@4       0041b054     kernel32:KERNEL32.dll
 0002:00000058       __imp__CreateFileA@28      0041b058     kernel32:KERNEL32.dll
 0002:0000005c       __imp__lstrcpynA@12        0041b05c     kernel32:KERNEL32.dll
 0002:00000060       \177KERNEL32_NULL_THUNK_DATA 0041b060     kernel32:KERNEL32.dll
 0002:00000064       __imp__localtime           0041b064     MSVCRT:MSVCRT.dll
 0002:00000068       __imp___purecall           0041b068     MSVCRT:MSVCRT.dll
 0002:0000006c       __imp__sprintf             0041b06c     MSVCRT:MSVCRT.dll
 0002:00000070       __imp____RTDynamicCast     0041b070     MSVCRT:MSVCRT.dll
 0002:00000074       __imp__atoi                0041b074     MSVCRT:MSVCRT.dll
 0002:00000078       __imp__getenv              0041b078     MSVCRT:MSVCRT.dll
 0002:0000007c       __imp_??2@YAPAXI@Z         0041b07c     MSVCRT:MSVCRT.dll
 0002:00000080       __imp___stricmp            0041b080     MSVCRT:MSVCRT.dll
 0002:00000080       __imp__stricmp             0041b080     MSVCRT:MSVCRT.dll
 0002:00000084       __imp__strcpy              0041b084     MSVCRT:MSVCRT.dll
 0002:00000088       __imp__strchr              0041b088     MSVCRT:MSVCRT.dll
 0002:0000008c       __imp__strncpy             0041b08c     MSVCRT:MSVCRT.dll
 0002:00000090       __imp__strlen              0041b090     MSVCRT:MSVCRT.dll
 0002:00000094       __imp_??3@YAXPAX@Z         0041b094     MSVCRT:MSVCRT.dll
 0002:00000098       __imp__time                0041b098     MSVCRT:MSVCRT.dll
 0002:0000009c       __imp___controlfp          0041b09c     MSVCRT:MSVCRT.dll
 0002:000000a0       __imp____set_app_type      0041b0a0     MSVCRT:MSVCRT.dll
 0002:000000a4       __imp____p__fmode          0041b0a4     MSVCRT:MSVCRT.dll
 0002:000000a8       __imp____p__commode        0041b0a8     MSVCRT:MSVCRT.dll
 0002:000000ac       __imp___adjust_fdiv        0041b0ac     MSVCRT:MSVCRT.dll
 0002:000000b0       __imp____setusermatherr    0041b0b0     MSVCRT:MSVCRT.dll
 0002:000000b4       __imp___initterm           0041b0b4     MSVCRT:MSVCRT.dll
 0002:000000b8       __imp____getmainargs       0041b0b8     MSVCRT:MSVCRT.dll
 0002:000000bc       __imp___acmdln             0041b0bc     MSVCRT:MSVCRT.dll
 0002:000000c0       __imp__exit                0041b0c0     MSVCRT:MSVCRT.dll
 0002:000000c4       __imp___XcptFilter         0041b0c4     MSVCRT:MSVCRT.dll
 0002:000000c8       __imp___exit               0041b0c8     MSVCRT:MSVCRT.dll
 0002:000000cc       __imp_?terminate@@YAXXZ    0041b0cc     MSVCRT:MSVCRT.dll
 0002:000000d0       __imp___except_handler3    0041b0d0     MSVCRT:MSVCRT.dll
 0002:000000d4       __imp___onexit             0041b0d4     MSVCRT:MSVCRT.dll
 0002:000000d8       __imp____dllonexit         0041b0d8     MSVCRT:MSVCRT.dll
 0002:000000dc       __imp_??1type_info@@UAE@XZ 0041b0dc     MSVCRT:MSVCRT.dll
 0002:000000e0       __imp__malloc              0041b0e0     MSVCRT:MSVCRT.dll
 0002:000000e4       __imp__strpbrk             0041b0e4     MSVCRT:MSVCRT.dll
 0002:000000e8       __imp__free                0041b0e8     MSVCRT:MSVCRT.dll
 0002:000000ec       __imp__strtok              0041b0ec     MSVCRT:MSVCRT.dll
 0002:000000f0       __imp___mkdir              0041b0f0     MSVCRT:MSVCRT.dll
 0002:000000f4       __imp____CxxFrameHandler   0041b0f4     MSVCRT:MSVCRT.dll
 0002:000000f8       \177MSVCRT_NULL_THUNK_DATA 0041b0f8     MSVCRT:MSVCRT.dll
 0002:000000fc       __imp__SendMessageTimeoutA@28 0041b0fc     user32:USER32.dll
 0002:00000100       __imp__MessageBoxA@16      0041b100     user32:USER32.dll
 0002:00000104       __imp__ExitWindowsEx@8     0041b104     user32:USER32.dll
 0002:00000108       __imp__WaitForInputIdle@8  0041b108     user32:USER32.dll
 0002:0000010c       __imp__FindWindowA@8       0041b10c     user32:USER32.dll
 0002:00000110       __imp__PostMessageA@16     0041b110     user32:USER32.dll
 0002:00000114       __imp__wsprintfA           0041b114     user32:USER32.dll
 0002:00000118       \177USER32_NULL_THUNK_DATA 0041b118     user32:USER32.dll
 0002:0000011c       __imp__GetFileVersionInfoA@16 0041b11c     version:VERSION.dll
 0002:00000120       __imp__GetFileVersionInfoSizeA@8 0041b120     version:VERSION.dll
 0002:00000124       __imp__VerQueryValueA@16   0041b124     version:VERSION.dll
 0002:00000128       \177VERSION_NULL_THUNK_DATA 0041b128     version:VERSION.dll
 0002:0000012c       __imp__setsockopt@20       0041b12c     wsock32:WSOCK32.dll
 0002:00000130       \177WSOCK32_NULL_THUNK_DATA 0041b130     wsock32:WSOCK32.dll
 0002:00000134       __imp_??1bncs_config@@UAE@XZ 0041b134     bncs_config:bncs_config.dll
 0002:00000138       __imp_??0bncs_config@@QAE@ABVbncs_string@@@Z 0041b138     bncs_config:bncs_config.dll
 0002:0000013c       __imp_?isValid@bncs_config@@QAE_NXZ 0041b13c     bncs_config:bncs_config.dll
 0002:00000140       __imp_?attr@bncs_config@@QAE?AVbncs_string@@ABV2@@Z 0041b140     bncs_config:bncs_config.dll
 0002:00000144       __imp_?isChildValid@bncs_config@@QAE_NXZ 0041b144     bncs_config:bncs_config.dll
 0002:00000148       __imp_?childAttr@bncs_config@@QAE?AVbncs_string@@ABV2@@Z 0041b148     bncs_config:bncs_config.dll
 0002:0000014c       __imp_?nextChild@bncs_config@@QAE_NXZ 0041b14c     bncs_config:bncs_config.dll
 0002:00000150       __imp_?clearCache@bncs_config@@SAXXZ 0041b150     bncs_config:bncs_config.dll
 0002:00000154       \177bncs_config_NULL_THUNK_DATA 0041b154     bncs_config:bncs_config.dll
 0002:00000158       __imp_??0bncs_string@@QAE@PBD@Z 0041b158     bncs_string:bncs_string.dll
 0002:0000015c       __imp_?arg@bncs_string@@QBE?AV1@PBD@Z 0041b15c     bncs_string:bncs_string.dll
 0002:00000160       __imp_??1bncs_string@@UAE@XZ 0041b160     bncs_string:bncs_string.dll
 0002:00000164       __imp_??H@YA?BVbncs_string@@PBDABV0@@Z 0041b164     bncs_string:bncs_string.dll
 0002:00000168       __imp_??Bbncs_string@@QBEPBDXZ 0041b168     bncs_string:bncs_string.dll
 0002:0000016c       __imp_??Bbncs_string@@QBEHXZ 0041b16c     bncs_string:bncs_string.dll
 0002:00000170       __imp_??8@YA_NABVbncs_string@@PBD@Z 0041b170     bncs_string:bncs_string.dll
 0002:00000174       \177bncs_string_NULL_THUNK_DATA 0041b174     bncs_string:bncs_string.dll
 0002:00000178       __imp_?minimumSizeHint@QDialog@@UBE?AVQSize@@XZ 0041b178     qt-mt323:qt-mt323.dll
 0002:0000017c       __imp_?sizeHint@QDialog@@UBE?AVQSize@@XZ 0041b17c     qt-mt323:qt-mt323.dll
 0002:00000180       __imp_?setGeometry@QDialog@@UAEXHHHH@Z 0041b180     qt-mt323:qt-mt323.dll
 0002:00000184       __imp_?setGeometry@QDialog@@UAEXABVQRect@@@Z 0041b184     qt-mt323:qt-mt323.dll
 0002:00000188       __imp_?resize@QDialog@@UAEXHH@Z 0041b188     qt-mt323:qt-mt323.dll
 0002:0000018c       __imp_?move@QDialog@@UAEXHH@Z 0041b18c     qt-mt323:qt-mt323.dll
 0002:00000190       __imp_?close@QWidget@@UAE_N_N@Z 0041b190     qt-mt323:qt-mt323.dll
 0002:00000194       __imp_?polish@QWidget@@UAEXXZ 0041b194     qt-mt323:qt-mt323.dll
 0002:00000198       __imp_?showNormal@QWidget@@UAEXXZ 0041b198     qt-mt323:qt-mt323.dll
 0002:0000019c       __imp_?showMaximized@QWidget@@UAEXXZ 0041b19c     qt-mt323:qt-mt323.dll
 0002:000001a0       __imp_?showMinimized@QWidget@@UAEXXZ 0041b1a0     qt-mt323:qt-mt323.dll
 0002:000001a4       __imp_?hide@QDialog@@UAEXXZ 0041b1a4     qt-mt323:qt-mt323.dll
 0002:000001a8       __imp_?show@QDialog@@UAEXXZ 0041b1a8     qt-mt323:qt-mt323.dll
 0002:000001ac       __imp_?setUpdatesEnabled@QWidget@@UAEX_N@Z 0041b1ac     qt-mt323:qt-mt323.dll
 0002:000001b0       __imp_?setFocusProxy@QWidget@@UAEXPAV1@@Z 0041b1b0     qt-mt323:qt-mt323.dll
 0002:000001b4       __imp_?setFocusPolicy@QWidget@@UAEXW4FocusPolicy@1@@Z 0041b1b4     qt-mt323:qt-mt323.dll
 0002:000001b8       __imp_?setActiveWindow@QWidget@@UAEXXZ 0041b1b8     qt-mt323:qt-mt323.dll
 0002:000001bc       __imp_?setFocus@QWidget@@UAEXXZ 0041b1bc     qt-mt323:qt-mt323.dll
 0002:000001c0       __imp_?setMouseTracking@QWidget@@UAEX_N@Z 0041b1c0     qt-mt323:qt-mt323.dll
 0002:000001c4       __imp_?setIconText@QWidget@@UAEXABVQString@@@Z 0041b1c4     qt-mt323:qt-mt323.dll
 0002:000001c8       __imp_?setIcon@QWidget@@UAEXABVQPixmap@@@Z 0041b1c8     qt-mt323:qt-mt323.dll
 0002:000001cc       __imp_?setCaption@QWidget@@UAEXABVQString@@@Z 0041b1cc     qt-mt323:qt-mt323.dll
 0002:000001d0       __imp_?setBackgroundPixmap@QWidget@@UAEXABVQPixmap@@@Z 0041b1d0     qt-mt323:qt-mt323.dll
 0002:000001d4       __imp_?setBackgroundColor@QWidget@@UAEXABVQColor@@@Z 0041b1d4     qt-mt323:qt-mt323.dll
 0002:000001d8       __imp_?setMask@QWidget@@UAEXABVQBitmap@@@Z 0041b1d8     qt-mt323:qt-mt323.dll
 0002:000001dc       __imp_?setMask@QWidget@@UAEXABVQRegion@@@Z 0041b1dc     qt-mt323:qt-mt323.dll
 0002:000001e0       __imp_?unsetCursor@QWidget@@UAEXXZ 0041b1e0     qt-mt323:qt-mt323.dll
 0002:000001e4       __imp_?setCursor@QWidget@@UAEXABVQCursor@@@Z 0041b1e4     qt-mt323:qt-mt323.dll
 0002:000001e8       __imp_?setFont@QWidget@@UAEXABVQFont@@@Z 0041b1e8     qt-mt323:qt-mt323.dll
 0002:000001ec       __imp_?setPaletteBackgroundPixmap@QWidget@@UAEXABVQPixmap@@@Z 0041b1ec     qt-mt323:qt-mt323.dll
 0002:000001f0       __imp_?setPaletteBackgroundColor@QWidget@@UAEXABVQColor@@@Z 0041b1f0     qt-mt323:qt-mt323.dll
 0002:000001f4       __imp_?setPalette@QWidget@@UAEXABVQPalette@@@Z 0041b1f4     qt-mt323:qt-mt323.dll
 0002:000001f8       __imp_?setErasePixmap@QWidget@@UAEXABVQPixmap@@@Z 0041b1f8     qt-mt323:qt-mt323.dll
 0002:000001fc       __imp_?setEraseColor@QWidget@@UAEXABVQColor@@@Z 0041b1fc     qt-mt323:qt-mt323.dll
 0002:00000200       __imp_?setBackgroundMode@QWidget@@UAEXW4BackgroundMode@Qt@@@Z 0041b200     qt-mt323:qt-mt323.dll
 0002:00000204       __imp_?setSizeIncrement@QWidget@@UAEXHH@Z 0041b204     qt-mt323:qt-mt323.dll
 0002:00000208       __imp_?setMaximumSize@QWidget@@UAEXHH@Z 0041b208     qt-mt323:qt-mt323.dll
 0002:0000020c       __imp_?setMinimumSize@QWidget@@UAEXHH@Z 0041b20c     qt-mt323:qt-mt323.dll
 0002:00000210       __imp_?setEnabled@QWidget@@UAEX_N@Z 0041b210     qt-mt323:qt-mt323.dll
 0002:00000214       __imp_?checkConnectArgs@QObject@@MAE_NPBDPBV1@0@Z 0041b214     qt-mt323:qt-mt323.dll
 0002:00000218       __imp_?disconnectNotify@QObject@@MAEXPBD@Z 0041b218     qt-mt323:qt-mt323.dll
 0002:0000021c       __imp_?connectNotify@QObject@@MAEXPBD@Z 0041b21c     qt-mt323:qt-mt323.dll
 0002:00000220       __imp_?customEvent@QObject@@MAEXPAVQCustomEvent@@@Z 0041b220     qt-mt323:qt-mt323.dll
 0002:00000224       __imp_?childEvent@QObject@@MAEXPAVQChildEvent@@@Z 0041b224     qt-mt323:qt-mt323.dll
 0002:00000228       __imp_?timerEvent@QObject@@MAEXPAVQTimerEvent@@@Z 0041b228     qt-mt323:qt-mt323.dll
 0002:0000022c       __imp_?property@QObject@@UBE?AVQVariant@@PBD@Z 0041b22c     qt-mt323:qt-mt323.dll
 0002:00000230       __imp_?setProperty@QObject@@UAE_NPBDABVQVariant@@@Z 0041b230     qt-mt323:qt-mt323.dll
 0002:00000234       __imp_?removeChild@QObject@@UAEXPAV1@@Z 0041b234     qt-mt323:qt-mt323.dll
 0002:00000238       __imp_?insertChild@QObject@@UAEXPAV1@@Z 0041b238     qt-mt323:qt-mt323.dll
 0002:0000023c       __imp_?setName@QWidget@@UAEXPBD@Z 0041b23c     qt-mt323:qt-mt323.dll
 0002:00000240       __imp_?eventFilter@QDialog@@MAE_NPAVQObject@@PAVQEvent@@@Z 0041b240     qt-mt323:qt-mt323.dll
 0002:00000244       __imp_?event@QWidget@@MAE_NPAVQEvent@@@Z 0041b244     qt-mt323:qt-mt323.dll
 0002:00000248       __imp_??1QString@@QAE@XZ   0041b248     qt-mt323:qt-mt323.dll
 0002:0000024c       __imp_?deleteSelf@QStringData@@QAEXXZ 0041b24c     qt-mt323:qt-mt323.dll
 0002:00000250       __imp_?shared_null@QString@@0PAUQStringData@@A 0041b250     qt-mt323:qt-mt323.dll
 0002:00000254       __imp_??0QString@@QAE@PBD@Z 0041b254     qt-mt323:qt-mt323.dll
 0002:00000258       __imp_??1?$QMemArray@D@@UAE@XZ 0041b258     qt-mt323:qt-mt323.dll
 0002:0000025c       __imp_?setToolTipGroup@QMainWindow@@EAEXPAVQToolTipGroup@@@Z 0041b25c     qt-mt323:qt-mt323.dll
 0002:00000260       __imp_?setStatusBar@QMainWindow@@EAEXPAVQStatusBar@@@Z 0041b260     qt-mt323:qt-mt323.dll
 0002:00000264       __imp_?setMenuBar@QMainWindow@@EAEXPAVQMenuBar@@@Z 0041b264     qt-mt323:qt-mt323.dll
 0002:00000268       __imp_?showDockMenu@QMainWindow@@MAE_NABVQPoint@@@Z 0041b268     qt-mt323:qt-mt323.dll
 0002:0000026c       __imp_?setUpLayout@QMainWindow@@MAEXXZ 0041b26c     qt-mt323:qt-mt323.dll
 0002:00000270       __imp_?customize@QMainWindow@@UAEXXZ 0041b270     qt-mt323:qt-mt323.dll
 0002:00000274       __imp_?setAppropriate@QMainWindow@@UAEXPAVQDockWindow@@_N@Z 0041b274     qt-mt323:qt-mt323.dll
 0002:00000278       __imp_?whatsThis@QMainWindow@@UAEXXZ 0041b278     qt-mt323:qt-mt323.dll
 0002:0000027c       __imp_?setDockMenuEnabled@QMainWindow@@UAEX_N@Z 0041b27c     qt-mt323:qt-mt323.dll
 0002:00000280       __imp_?setOpaqueMoving@QMainWindow@@UAEX_N@Z 0041b280     qt-mt323:qt-mt323.dll
 0002:00000284       __imp_?setDockWindowsMovable@QMainWindow@@UAEX_N@Z 0041b284     qt-mt323:qt-mt323.dll
 0002:00000288       __imp_?setUsesTextLabel@QMainWindow@@UAEX_N@Z 0041b288     qt-mt323:qt-mt323.dll
 0002:0000028c       __imp_?setUsesBigPixmaps@QMainWindow@@UAEX_N@Z 0041b28c     qt-mt323:qt-mt323.dll
 0002:00000290       __imp_?setRightJustification@QMainWindow@@UAEX_N@Z 0041b290     qt-mt323:qt-mt323.dll
 0002:00000294       __imp_?isCustomizable@QMainWindow@@UBE_NXZ 0041b294     qt-mt323:qt-mt323.dll
 0002:00000298       __imp_?dockingArea@QMainWindow@@UAEPAVQDockArea@@ABVQPoint@@@Z 0041b298     qt-mt323:qt-mt323.dll
 0002:0000029c       __imp_?removeDockWindow@QMainWindow@@UAEXPAVQDockWindow@@@Z 0041b29c     qt-mt323:qt-mt323.dll
 0002:000002a0       __imp_?moveDockWindow@QMainWindow@@UAEXPAVQDockWindow@@W4Dock@Qt@@@Z 0041b2a0     qt-mt323:qt-mt323.dll
 0002:000002a4       __imp_?moveDockWindow@QMainWindow@@UAEXPAVQDockWindow@@W4Dock@Qt@@_NHH@Z 0041b2a4     qt-mt323:qt-mt323.dll
 0002:000002a8       __imp_?addDockWindow@QMainWindow@@UAEXPAVQDockWindow@@W4Dock@Qt@@_N@Z 0041b2a8     qt-mt323:qt-mt323.dll
 0002:000002ac       __imp_?addDockWindow@QMainWindow@@UAEXPAVQDockWindow@@ABVQString@@W4Dock@Qt@@_N@Z 0041b2ac     qt-mt323:qt-mt323.dll
 0002:000002b0       __imp_?setDockEnabled@QMainWindow@@UAEXW4Dock@Qt@@_N@Z 0041b2b0     qt-mt323:qt-mt323.dll
 0002:000002b4       __imp_?setDockEnabled@QMainWindow@@UAEXPAVQDockWindow@@W4Dock@Qt@@_N@Z 0041b2b4     qt-mt323:qt-mt323.dll
 0002:000002b8       __imp_?setCentralWidget@QMainWindow@@UAEXPAVQWidget@@@Z 0041b2b8     qt-mt323:qt-mt323.dll
 0002:000002bc       __imp_?styleChange@QMainWindow@@MAEXAAVQStyle@@@Z 0041b2bc     qt-mt323:qt-mt323.dll
 0002:000002c0       __imp_?contextMenuEvent@QWidget@@MAEXPAVQContextMenuEvent@@@Z 0041b2c0     qt-mt323:qt-mt323.dll
 0002:000002c4       __imp_?closeEvent@QWidget@@MAEXPAVQCloseEvent@@@Z 0041b2c4     qt-mt323:qt-mt323.dll
 0002:000002c8       __imp_?resizeEvent@QWidget@@MAEXPAVQResizeEvent@@@Z 0041b2c8     qt-mt323:qt-mt323.dll
 0002:000002cc       __imp_?paintEvent@QMainWindow@@MAEXPAVQPaintEvent@@@Z 0041b2cc     qt-mt323:qt-mt323.dll
 0002:000002d0       __imp_?keyPressEvent@QWidget@@MAEXPAVQKeyEvent@@@Z 0041b2d0     qt-mt323:qt-mt323.dll
 0002:000002d4       __imp_?minimumSizeHint@QMainWindow@@UBE?AVQSize@@XZ 0041b2d4     qt-mt323:qt-mt323.dll
 0002:000002d8       __imp_?sizeHint@QMainWindow@@UBE?AVQSize@@XZ 0041b2d8     qt-mt323:qt-mt323.dll
 0002:000002dc       __imp_?setGeometry@QWidget@@UAEXHHHH@Z 0041b2dc     qt-mt323:qt-mt323.dll
 0002:000002e0       __imp_?setGeometry@QWidget@@UAEXABVQRect@@@Z 0041b2e0     qt-mt323:qt-mt323.dll
 0002:000002e4       __imp_?resize@QWidget@@UAEXHH@Z 0041b2e4     qt-mt323:qt-mt323.dll
 0002:000002e8       __imp_?move@QWidget@@UAEXHH@Z 0041b2e8     qt-mt323:qt-mt323.dll
 0002:000002ec       __imp_?hide@QMainWindow@@UAEXXZ 0041b2ec     qt-mt323:qt-mt323.dll
 0002:000002f0       __imp_?show@QMainWindow@@UAEXXZ 0041b2f0     qt-mt323:qt-mt323.dll
 0002:000002f4       __imp_?childEvent@QMainWindow@@MAEXPAVQChildEvent@@@Z 0041b2f4     qt-mt323:qt-mt323.dll
 0002:000002f8       __imp_?eventFilter@QMainWindow@@UAE_NPAVQObject@@PAVQEvent@@@Z 0041b2f8     qt-mt323:qt-mt323.dll
 0002:000002fc       __imp_?event@QMainWindow@@MAE_NPAVQEvent@@@Z 0041b2fc     qt-mt323:qt-mt323.dll
 0002:00000300       __imp_?insertItem@QMenuData@@QAEHABVQString@@PBVQObject@@PBDABVQKeySequence@@HH@Z 0041b300     qt-mt323:qt-mt323.dll
 0002:00000304       __imp_?insertSeparator@QMenuData@@QAEHH@Z 0041b304     qt-mt323:qt-mt323.dll
 0002:00000308       __imp_?findItem@QMenuData@@QBEPAVQMenuItem@@HPAPAV1@@Z 0041b308     qt-mt323:qt-mt323.dll
 0002:0000030c       __imp_?count@QMenuData@@QBEIXZ 0041b30c     qt-mt323:qt-mt323.dll
 0002:00000310       __imp_?menuBar@QMainWindow@@QBEPAVQMenuBar@@XZ 0041b310     qt-mt323:qt-mt323.dll
 0002:00000314       __imp_??1QKeySequence@@QAE@XZ 0041b314     qt-mt323:qt-mt323.dll
 0002:00000318       __imp_??0QKeySequence@@QAE@H@Z 0041b318     qt-mt323:qt-mt323.dll
 0002:0000031c       __imp_?connect@QObject@@SA_NPBV1@PBD01@Z 0041b31c     qt-mt323:qt-mt323.dll
 0002:00000320       __imp_?critical@QMessageBox@@SAHPAVQWidget@@ABVQString@@1111HH@Z 0041b320     qt-mt323:qt-mt323.dll
 0002:00000324       __imp_?null@QString@@2V1@A 0041b324     qt-mt323:qt-mt323.dll
 0002:00000328       __imp_?arg@QString@@QBE?AV1@ABV1@H@Z 0041b328     qt-mt323:qt-mt323.dll
 0002:0000032c       __imp_??BQCharRef@@QBE?AVQChar@@XZ 0041b32c     qt-mt323:qt-mt323.dll
 0002:00000330       __imp_??AQString@@QAE?AVQCharRef@@H@Z 0041b330     qt-mt323:qt-mt323.dll
 0002:00000334       __imp_??8@YA_NABVQString@@PBD@Z 0041b334     qt-mt323:qt-mt323.dll
 0002:00000338       __imp_?upper@QString@@QBE?AV1@XZ 0041b338     qt-mt323:qt-mt323.dll
 0002:0000033c       __imp_?qApp@@3PAVQApplication@@A 0041b33c     qt-mt323:qt-mt323.dll
 0002:00000340       __imp_??1QPixmap@@UAE@XZ   0041b340     qt-mt323:qt-mt323.dll
 0002:00000344       __imp_??0QPixmap@@QAE@QAPBD@Z 0041b344     qt-mt323:qt-mt323.dll
 0002:00000348       __imp_??1QDir@@UAE@XZ      0041b348     qt-mt323:qt-mt323.dll
 0002:0000034c       __imp_??9@YA_NABVQString@@0@Z 0041b34c     qt-mt323:qt-mt323.dll
 0002:00000350       __imp_?mkdir@QDir@@UBE_NABVQString@@_N@Z 0041b350     qt-mt323:qt-mt323.dll
 0002:00000354       __imp_??0QDir@@QAE@XZ      0041b354     qt-mt323:qt-mt323.dll
 0002:00000358       __imp_?quit@QApplication@@QAEXXZ 0041b358     qt-mt323:qt-mt323.dll
 0002:0000035c       __imp_?information@QMessageBox@@SAHPAVQWidget@@ABVQString@@1111HH@Z 0041b35c     qt-mt323:qt-mt323.dll
 0002:00000360       __imp_?startTimer@QObject@@QAEHH@Z 0041b360     qt-mt323:qt-mt323.dll
 0002:00000364       __imp_?qDebug@@YAXPBDZZ    0041b364     qt-mt323:qt-mt323.dll
 0002:00000368       __imp_?killTimer@QObject@@QAEXH@Z 0041b368     qt-mt323:qt-mt323.dll
 0002:0000036c       __imp_?addWidget@QBoxLayout@@QAEXPAVQWidget@@HH@Z 0041b36c     qt-mt323:qt-mt323.dll
 0002:00000370       __imp_?arg@QString@@QBE?AV1@HHH@Z 0041b370     qt-mt323:qt-mt323.dll
 0002:00000374       __imp_?deleteLater@QObject@@QAEXXZ 0041b374     qt-mt323:qt-mt323.dll
 0002:00000378       __imp_?disconnect@QObject@@SA_NPBV1@PBD01@Z 0041b378     qt-mt323:qt-mt323.dll
 0002:0000037c       __imp_?remove@QLayout@@QAEXPAVQWidget@@@Z 0041b37c     qt-mt323:qt-mt323.dll
 0002:00000380       __imp_??0QString@@QAE@ABV0@@Z 0041b380     qt-mt323:qt-mt323.dll
 0002:00000384       __imp_?ascii@QString@@QBEPBDXZ 0041b384     qt-mt323:qt-mt323.dll
 0002:00000388       __imp_??9@YA_NABVQString@@PBD@Z 0041b388     qt-mt323:qt-mt323.dll
 0002:0000038c       __imp_?exec@QDialog@@QAEHXZ 0041b38c     qt-mt323:qt-mt323.dll
 0002:00000390       __imp_?lower@QString@@QBE?AV1@XZ 0041b390     qt-mt323:qt-mt323.dll
 0002:00000394       __imp_?compareItems@QGList@@MAEHPAX0@Z 0041b394     qt-mt323:qt-mt323.dll
 0002:00000398       __imp_?write@QGList@@MBEAAVQDataStream@@AAV2@PAX@Z 0041b398     qt-mt323:qt-mt323.dll
 0002:0000039c       __imp_?read@QGList@@MAEAAVQDataStream@@AAV2@AAPAX@Z 0041b39c     qt-mt323:qt-mt323.dll
 0002:000003a0       __imp_?newItem@QPtrCollection@@MAEPAXPAX@Z 0041b3a0     qt-mt323:qt-mt323.dll
 0002:000003a4       __imp_?minimumSizeHint@QWidget@@UBE?AVQSize@@XZ 0041b3a4     qt-mt323:qt-mt323.dll
 0002:000003a8       __imp_?sizeHint@QWidget@@UBE?AVQSize@@XZ 0041b3a8     qt-mt323:qt-mt323.dll
 0002:000003ac       __imp_?hide@QWidget@@UAEXXZ 0041b3ac     qt-mt323:qt-mt323.dll
 0002:000003b0       __imp_?show@QWidget@@UAEXXZ 0041b3b0     qt-mt323:qt-mt323.dll
 0002:000003b4       __imp_?eventFilter@QObject@@UAE_NPAV1@PAVQEvent@@@Z 0041b3b4     qt-mt323:qt-mt323.dll
 0002:000003b8       __imp_??0QGList@@IAE@XZ    0041b3b8     qt-mt323:qt-mt323.dll
 0002:000003bc       __imp_?append@QGList@@IAEXPAX@Z 0041b3bc     qt-mt323:qt-mt323.dll
 0002:000003c0       __imp_??1QStringList@@QAE@XZ 0041b3c0     qt-mt323:qt-mt323.dll
 0002:000003c4       __imp_??0QDir@@QAE@ABVQString@@0HH@Z 0041b3c4     qt-mt323:qt-mt323.dll
 0002:000003c8       __imp_?detachInternal@?$QValueList@VQString@@@@AAEXXZ 0041b3c8     qt-mt323:qt-mt323.dll
 0002:000003cc       __imp_?split@QStringList@@SA?AV1@ABVQString@@0_N@Z 0041b3cc     qt-mt323:qt-mt323.dll
 0002:000003d0       __imp_??H@YA?BVQString@@ABV0@0@Z 0041b3d0     qt-mt323:qt-mt323.dll
 0002:000003d4       __imp_??H@YA?BVQString@@ABV0@PBD@Z 0041b3d4     qt-mt323:qt-mt323.dll
 0002:000003d8       __imp_?toULong@QString@@QBEKPA_NH@Z 0041b3d8     qt-mt323:qt-mt323.dll
 0002:000003dc       __imp_?next@QGList@@IAEPAXXZ 0041b3dc     qt-mt323:qt-mt323.dll
 0002:000003e0       __imp_?first@QGList@@IAEPAXXZ 0041b3e0     qt-mt323:qt-mt323.dll
 0002:000003e4       __imp_??1QGList@@MAE@XZ    0041b3e4     qt-mt323:qt-mt323.dll
 0002:000003e8       __imp_?clear@QGList@@MAEXXZ 0041b3e8     qt-mt323:qt-mt323.dll
 0002:000003ec       __imp_?remove@QGList@@IAE_NPAX@Z 0041b3ec     qt-mt323:qt-mt323.dll
 0002:000003f0       __imp_?last@QGList@@IAEPAXXZ 0041b3f0     qt-mt323:qt-mt323.dll
 0002:000003f4       __imp_?tryTerminate@QProcess@@QBEXXZ 0041b3f4     qt-mt323:qt-mt323.dll
 0002:000003f8       __imp_?isRunning@QProcess@@QBE_NXZ 0041b3f8     qt-mt323:qt-mt323.dll
 0002:000003fc       __imp_?name@QObject@@QBEPBDXZ 0041b3fc     qt-mt323:qt-mt323.dll
 0002:00000400       __imp_??H@YA?BVQString@@PBDABV0@@Z 0041b400     qt-mt323:qt-mt323.dll
 0002:00000404       __imp_?join@QStringList@@QBE?AVQString@@ABV2@@Z 0041b404     qt-mt323:qt-mt323.dll
 0002:00000408       __imp_?arguments@QProcess@@QBE?AVQStringList@@XZ 0041b408     qt-mt323:qt-mt323.dll
 0002:0000040c       __imp_?sender@QObject@@IAEPBV1@XZ 0041b40c     qt-mt323:qt-mt323.dll
 0002:00000410       __imp_?normalExit@QProcess@@QBE_NXZ 0041b410     qt-mt323:qt-mt323.dll
 0002:00000414       __imp_?exitStatus@QProcess@@QBEHXZ 0041b414     qt-mt323:qt-mt323.dll
 0002:00000418       __imp_??1QListViewItemIterator@@QAE@XZ 0041b418     qt-mt323:qt-mt323.dll
 0002:0000041c       __imp_??EQListViewItemIterator@@QAEAAV0@XZ 0041b41c     qt-mt323:qt-mt323.dll
 0002:00000420       __imp_?current@QListViewItemIterator@@QBEPAVQListViewItem@@XZ 0041b420     qt-mt323:qt-mt323.dll
 0002:00000424       __imp_??0QListViewItemIterator@@QAE@PAVQListView@@@Z 0041b424     qt-mt323:qt-mt323.dll
 0002:00000428       __imp_??1QPopupMenu@@UAE@XZ 0041b428     qt-mt323:qt-mt323.dll
 0002:0000042c       __imp_??DQListViewItemIterator@@QAEPAVQListViewItem@@XZ 0041b42c     qt-mt323:qt-mt323.dll
 0002:00000430       __imp_??0QListViewItemIterator@@QAE@PAVQListViewItem@@@Z 0041b430     qt-mt323:qt-mt323.dll
 0002:00000434       __imp_?exec@QPopupMenu@@QAEHABVQPoint@@H@Z 0041b434     qt-mt323:qt-mt323.dll
 0002:00000438       __imp_?pos@QCursor@@SA?AVQPoint@@XZ 0041b438     qt-mt323:qt-mt323.dll
 0002:0000043c       __imp_?insertItem@QMenuData@@QAEHABVQString@@HH@Z 0041b43c     qt-mt323:qt-mt323.dll
 0002:00000440       __imp_??0QPopupMenu@@QAE@PAVQWidget@@PBD@Z 0041b440     qt-mt323:qt-mt323.dll
 0002:00000444       __imp_?singleShot@QTimer@@SAXHPAVQObject@@PBD@Z 0041b444     qt-mt323:qt-mt323.dll
 0002:00000448       __imp_??YQString@@QAEAAV0@D@Z 0041b448     qt-mt323:qt-mt323.dll
 0002:0000044c       __imp_??YQString@@QAEAAV0@PBD@Z 0041b44c     qt-mt323:qt-mt323.dll
 0002:00000450       __imp_?makeSharedNull@QString@@CAPAUQStringData@@XZ 0041b450     qt-mt323:qt-mt323.dll
 0002:00000454       __imp_?rebalance@QMapPrivateBase@@QAEXPAUQMapNodeBase@@AAPAU2@@Z 0041b454     qt-mt323:qt-mt323.dll
 0002:00000458       __imp_?cancelRename@QListViewItem@@MAEXH@Z 0041b458     qt-mt323:qt-mt323.dll
 0002:0000045c       __imp_?okRename@QListViewItem@@MAEXH@Z 0041b45c     qt-mt323:qt-mt323.dll
 0002:00000460       __imp_?dragLeft@QListViewItem@@MAEXXZ 0041b460     qt-mt323:qt-mt323.dll
 0002:00000464       __imp_?dragEntered@QListViewItem@@MAEXXZ 0041b464     qt-mt323:qt-mt323.dll
 0002:00000468       __imp_?dropped@QListViewItem@@MAEXPAVQDropEvent@@@Z 0041b468     qt-mt323:qt-mt323.dll
 0002:0000046c       __imp_?activate@QListViewItem@@MAEXXZ 0041b46c     qt-mt323:qt-mt323.dll
 0002:00000470       __imp_?setHeight@QListViewItem@@MAEXH@Z 0041b470     qt-mt323:qt-mt323.dll
 0002:00000474       __imp_?enforceSortOrder@QListViewItem@@MBEXXZ 0041b474     qt-mt323:qt-mt323.dll
 0002:00000478       __imp_?setMultiLinesEnabled@QListViewItem@@UAEX_N@Z 0041b478     qt-mt323:qt-mt323.dll
 0002:0000047c       __imp_?rtti@QListViewItem@@UBEHXZ 0041b47c     qt-mt323:qt-mt323.dll
 0002:00000480       __imp_?setEnabled@QListViewItem@@UAEX_N@Z 0041b480     qt-mt323:qt-mt323.dll
 0002:00000484       __imp_?startRename@QListViewItem@@UAEXH@Z 0041b484     qt-mt323:qt-mt323.dll
 0002:00000488       __imp_?setRenameEnabled@QListViewItem@@UAEXH_N@Z 0041b488     qt-mt323:qt-mt323.dll
 0002:0000048c       __imp_?acceptDrop@QListViewItem@@UBE_NPBVQMimeSource@@@Z 0041b48c     qt-mt323:qt-mt323.dll
 0002:00000490       __imp_?setDropEnabled@QListViewItem@@UAEX_N@Z 0041b490     qt-mt323:qt-mt323.dll
 0002:00000494       __imp_?setDragEnabled@QListViewItem@@UAEX_N@Z 0041b494     qt-mt323:qt-mt323.dll
 0002:00000498       __imp_?sort@QListViewItem@@UAEXXZ 0041b498     qt-mt323:qt-mt323.dll
 0002:0000049c       __imp_?setExpandable@QListViewItem@@UAEX_N@Z 0041b49c     qt-mt323:qt-mt323.dll
 0002:000004a0       __imp_?setSelectable@QListViewItem@@UAEX_N@Z 0041b4a0     qt-mt323:qt-mt323.dll
 0002:000004a4       __imp_?paintFocus@QListViewItem@@UAEXPAVQPainter@@ABVQColorGroup@@ABVQRect@@@Z 0041b4a4     qt-mt323:qt-mt323.dll
 0002:000004a8       __imp_?paintBranches@QListViewItem@@UAEXPAVQPainter@@ABVQColorGroup@@HHH@Z 0041b4a8     qt-mt323:qt-mt323.dll
 0002:000004ac       __imp_?setSelected@QListViewItem@@UAEX_N@Z 0041b4ac     qt-mt323:qt-mt323.dll
 0002:000004b0       __imp_?setup@QListViewItem@@UAEXXZ 0041b4b0     qt-mt323:qt-mt323.dll
 0002:000004b4       __imp_?setOpen@QListViewItem@@UAEX_N@Z 0041b4b4     qt-mt323:qt-mt323.dll
 0002:000004b8       __imp_?sortChildItems@QListViewItem@@UAEXH_N@Z 0041b4b8     qt-mt323:qt-mt323.dll
 0002:000004bc       __imp_?compare@QListViewItem@@UBEHPAV1@H_N@Z 0041b4bc     qt-mt323:qt-mt323.dll
 0002:000004c0       __imp_?key@QListViewItem@@UBE?AVQString@@H_N@Z 0041b4c0     qt-mt323:qt-mt323.dll
 0002:000004c4       __imp_?pixmap@QListViewItem@@UBEPBVQPixmap@@H@Z 0041b4c4     qt-mt323:qt-mt323.dll
 0002:000004c8       __imp_?setPixmap@QListViewItem@@UAEXHABVQPixmap@@@Z 0041b4c8     qt-mt323:qt-mt323.dll
 0002:000004cc       __imp_?text@QListViewItem@@UBE?AVQString@@H@Z 0041b4cc     qt-mt323:qt-mt323.dll
 0002:000004d0       __imp_?setText@QListViewItem@@UAEXHABVQString@@@Z 0041b4d0     qt-mt323:qt-mt323.dll
 0002:000004d4       __imp_?width@QListViewItem@@UBEHABVQFontMetrics@@PBVQListView@@H@Z 0041b4d4     qt-mt323:qt-mt323.dll
 0002:000004d8       __imp_?invalidateHeight@QListViewItem@@UAEXXZ 0041b4d8     qt-mt323:qt-mt323.dll
 0002:000004dc       __imp_?removeItem@QListViewItem@@UAEXPAV1@@Z 0041b4dc     qt-mt323:qt-mt323.dll
 0002:000004e0       __imp_?takeItem@QListViewItem@@UAEXPAV1@@Z 0041b4e0     qt-mt323:qt-mt323.dll
 0002:000004e4       __imp_?insertItem@QListViewItem@@UAEXPAV1@@Z 0041b4e4     qt-mt323:qt-mt323.dll
 0002:000004e8       __imp_??1QListViewItem@@UAE@XZ 0041b4e8     qt-mt323:qt-mt323.dll
 0002:000004ec       __imp_??0QListViewItem@@QAE@PAVQListView@@PAV0@VQString@@2222222@Z 0041b4ec     qt-mt323:qt-mt323.dll
 0002:000004f0       __imp_?lastItem@QListView@@QBEPAVQListViewItem@@XZ 0041b4f0     qt-mt323:qt-mt323.dll
 0002:000004f4       __imp_??BQString@@QBEPBDXZ 0041b4f4     qt-mt323:qt-mt323.dll
 0002:000004f8       __imp_??1QColorGroup@@QAE@XZ 0041b4f8     qt-mt323:qt-mt323.dll
 0002:000004fc       __imp_?paintCell@QListViewItem@@UAEXPAVQPainter@@ABVQColorGroup@@HHH@Z 0041b4fc     qt-mt323:qt-mt323.dll
 0002:00000500       __imp_?yellow@Qt@@2AAVQColor@@A 0041b500     qt-mt323:qt-mt323.dll
 0002:00000504       __imp_?red@Qt@@2AAVQColor@@A 0041b504     qt-mt323:qt-mt323.dll
 0002:00000508       __imp_?white@Qt@@2AAVQColor@@A 0041b508     qt-mt323:qt-mt323.dll
 0002:0000050c       __imp_?darkGreen@Qt@@2AAVQColor@@A 0041b50c     qt-mt323:qt-mt323.dll
 0002:00000510       __imp_?lightGray@Qt@@2AAVQColor@@A 0041b510     qt-mt323:qt-mt323.dll
 0002:00000514       __imp_?gray@Qt@@2AAVQColor@@A 0041b514     qt-mt323:qt-mt323.dll
 0002:00000518       __imp_?black@Qt@@2AAVQColor@@A 0041b518     qt-mt323:qt-mt323.dll
 0002:0000051c       __imp_??1QBrush@@QAE@XZ    0041b51c     qt-mt323:qt-mt323.dll
 0002:00000520       __imp_?setBrush@QColorGroup@@QAEXW4ColorRole@1@ABVQBrush@@@Z 0041b520     qt-mt323:qt-mt323.dll
 0002:00000524       __imp_??0QBrush@@QAE@ABVQColor@@W4BrushStyle@Qt@@@Z 0041b524     qt-mt323:qt-mt323.dll
 0002:00000528       __imp_??0QColor@@QAE@PBD@Z 0041b528     qt-mt323:qt-mt323.dll
 0002:0000052c       __imp_??0QColorGroup@@QAE@ABV0@@Z 0041b52c     qt-mt323:qt-mt323.dll
 0002:00000530       __imp_?toString@QDateTime@@QBE?AVQString@@ABV2@@Z 0041b530     qt-mt323:qt-mt323.dll
 0002:00000534       __imp_?currentDateTime@QDateTime@@SA?AV1@XZ 0041b534     qt-mt323:qt-mt323.dll
 0002:00000538       __imp_?setName@QObject@@UAEXPBD@Z 0041b538     qt-mt323:qt-mt323.dll
 0002:0000053c       __imp_?event@QObject@@UAE_NPAVQEvent@@@Z 0041b53c     qt-mt323:qt-mt323.dll
 0002:00000540       __imp_??1QObject@@UAE@XZ   0041b540     qt-mt323:qt-mt323.dll
 0002:00000544       __imp_??0QObject@@QAE@PAV0@PBD@Z 0041b544     qt-mt323:qt-mt323.dll
 0002:00000548       __imp_?currentDate@QDate@@SA?AV1@XZ 0041b548     qt-mt323:qt-mt323.dll
 0002:0000054c       __imp_?append@?$QValueList@VQString@@@@QAE?AV?$QValueListIterator@VQString@@@@ABVQString@@@Z 0041b54c     qt-mt323:qt-mt323.dll
 0002:00000550       __imp_?insert@QString@@QAEAAV1@IABV1@@Z 0041b550     qt-mt323:qt-mt323.dll
 0002:00000554       __imp_?isRelativePath@QDir@@SA_NABVQString@@@Z 0041b554     qt-mt323:qt-mt323.dll
 0002:00000558       __imp_??4QString@@QAEAAV0@PBD@Z 0041b558     qt-mt323:qt-mt323.dll
 0002:0000055c       __imp_?end@?$QValueList@VQString@@@@QAE?AV?$QValueListIterator@VQString@@@@XZ 0041b55c     qt-mt323:qt-mt323.dll
 0002:00000560       __imp_??D?$QValueListIterator@VQString@@@@QAEAAVQString@@XZ 0041b560     qt-mt323:qt-mt323.dll
 0002:00000564       __imp_?addDays@QDate@@QBE?AV1@H@Z 0041b564     qt-mt323:qt-mt323.dll
 0002:00000568       __imp_??1QFileInfo@@QAE@XZ 0041b568     qt-mt323:qt-mt323.dll
 0002:0000056c       __imp_?isDir@QFileInfo@@QBE_NXZ 0041b56c     qt-mt323:qt-mt323.dll
 0002:00000570       __imp_?remove@QFile@@SA_NABVQString@@@Z 0041b570     qt-mt323:qt-mt323.dll
 0002:00000574       __imp_??MQDateTime@@QBE_NABV0@@Z 0041b574     qt-mt323:qt-mt323.dll
 0002:00000578       __imp_?lastModified@QFileInfo@@QBE?AVQDateTime@@XZ 0041b578     qt-mt323:qt-mt323.dll
 0002:0000057c       __imp_??0QDateTime@@QAE@ABVQDate@@@Z 0041b57c     qt-mt323:qt-mt323.dll
 0002:00000580       __imp_?isFile@QFileInfo@@QBE_NXZ 0041b580     qt-mt323:qt-mt323.dll
 0002:00000584       __imp_?exists@QFileInfo@@QBE_NXZ 0041b584     qt-mt323:qt-mt323.dll
 0002:00000588       __imp_??0QFileInfo@@QAE@ABVQString@@@Z 0041b588     qt-mt323:qt-mt323.dll
 0002:0000058c       __imp_??4QString@@QAEAAV0@ABV0@@Z 0041b58c     qt-mt323:qt-mt323.dll
 0002:00000590       __imp_??H@YA?BVQString@@ABV0@D@Z 0041b590     qt-mt323:qt-mt323.dll
 0002:00000594       __imp_?separator@QDir@@SADXZ 0041b594     qt-mt323:qt-mt323.dll
 0002:00000598       __imp_?filePath@QFileInfo@@QBE?AVQString@@XZ 0041b598     qt-mt323:qt-mt323.dll
 0002:0000059c       __imp_?entryList@QDir@@UBE?AVQStringList@@HH@Z 0041b59c     qt-mt323:qt-mt323.dll
 0002:000005a0       __imp_??0?$QValueListIterator@VQString@@@@QAE@ABV0@@Z 0041b5a0     qt-mt323:qt-mt323.dll
 0002:000005a4       __imp_?setValue@QScrollBar@@QAEXH@Z 0041b5a4     qt-mt323:qt-mt323.dll
 0002:000005a8       __imp_?clear@QListBox@@QAEXXZ 0041b5a8     qt-mt323:qt-mt323.dll
 0002:000005ac       __imp_?horizontalScrollBar@QScrollView@@QBEPAVQScrollBar@@XZ 0041b5ac     qt-mt323:qt-mt323.dll
 0002:000005b0       __imp_?value@QScrollBar@@QBEHXZ 0041b5b0     qt-mt323:qt-mt323.dll
 0002:000005b4       __imp_?verticalScrollBar@QScrollView@@QBEPAVQScrollBar@@XZ 0041b5b4     qt-mt323:qt-mt323.dll
 0002:000005b8       __imp_??1QFile@@UAE@XZ     0041b5b8     qt-mt323:qt-mt323.dll
 0002:000005bc       __imp_?warning@QMessageBox@@SAHPAVQWidget@@ABVQString@@1111HH@Z 0041b5bc     qt-mt323:qt-mt323.dll
 0002:000005c0       __imp_??1QTextStream@@UAE@XZ 0041b5c0     qt-mt323:qt-mt323.dll
 0002:000005c4       __imp_?close@QFile@@UAEXXZ 0041b5c4     qt-mt323:qt-mt323.dll
 0002:000005c8       __imp_?insertItem@QListBox@@QAEXABVQString@@H@Z 0041b5c8     qt-mt323:qt-mt323.dll
 0002:000005cc       __imp_?readLine@QTextStream@@QAE?AVQString@@XZ 0041b5cc     qt-mt323:qt-mt323.dll
 0002:000005d0       __imp_??0QTextStream@@QAE@PAVQIODevice@@@Z 0041b5d0     qt-mt323:qt-mt323.dll
 0002:000005d4       __imp_?open@QFile@@UAE_NH@Z 0041b5d4     qt-mt323:qt-mt323.dll
 0002:000005d8       __imp_??0QFile@@QAE@ABVQString@@@Z 0041b5d8     qt-mt323:qt-mt323.dll
 0002:000005dc       __imp_?exec@QApplication@@QAEHXZ 0041b5dc     qt-mt323:qt-mt323.dll
 0002:000005e0       __imp_?setMainWidget@QApplication@@UAEXPAVQWidget@@@Z 0041b5e0     qt-mt323:qt-mt323.dll
 0002:000005e4       __imp_?setEnabled@QSocketNotifier@@UAEX_N@Z 0041b5e4     qt-mt323:qt-mt323.dll
 0002:000005e8       __imp_?event@QSocketNotifier@@MAE_NPAVQEvent@@@Z 0041b5e8     qt-mt323:qt-mt323.dll
 0002:000005ec       __imp_?qt_property@QSocketNotifier@@UAE_NHHPAVQVariant@@@Z 0041b5ec     qt-mt323:qt-mt323.dll
 0002:000005f0       __imp_?qt_emit@QSocketNotifier@@UAE_NHPAUQUObject@@@Z 0041b5f0     qt-mt323:qt-mt323.dll
 0002:000005f4       __imp_?qt_invoke@QSocketNotifier@@UAE_NHPAUQUObject@@@Z 0041b5f4     qt-mt323:qt-mt323.dll
 0002:000005f8       __imp_?qt_cast@QSocketNotifier@@UAEPAXPBD@Z 0041b5f8     qt-mt323:qt-mt323.dll
 0002:000005fc       __imp_?className@QSocketNotifier@@UBEPBDXZ 0041b5fc     qt-mt323:qt-mt323.dll
 0002:00000600       __imp_?metaObject@QSocketNotifier@@UBEPAVQMetaObject@@XZ 0041b600     qt-mt323:qt-mt323.dll
 0002:00000604       __imp_?setOption@QSocketDevice@@EAEXW4Option@1@H@Z 0041b604     qt-mt323:qt-mt323.dll
 0002:00000608       __imp_?writeBlock@QSocketDevice@@UAEJPBDKABVQHostAddress@@G@Z 0041b608     qt-mt323:qt-mt323.dll
 0002:0000060c       __imp_?accept@QSocketDevice@@UAEHXZ 0041b60c     qt-mt323:qt-mt323.dll
 0002:00000610       __imp_?listen@QSocketDevice@@UAE_NH@Z 0041b610     qt-mt323:qt-mt323.dll
 0002:00000614       __imp_?bind@QSocketDevice@@UAE_NABVQHostAddress@@G@Z 0041b614     qt-mt323:qt-mt323.dll
 0002:00000618       __imp_?connect@QSocketDevice@@UAE_NABVQHostAddress@@G@Z 0041b618     qt-mt323:qt-mt323.dll
 0002:0000061c       __imp_?setSendBufferSize@QSocketDevice@@UAEXI@Z 0041b61c     qt-mt323:qt-mt323.dll
 0002:00000620       __imp_?setReceiveBufferSize@QSocketDevice@@UAEXI@Z 0041b620     qt-mt323:qt-mt323.dll
 0002:00000624       __imp_?setAddressReusable@QSocketDevice@@UAEX_N@Z 0041b624     qt-mt323:qt-mt323.dll
 0002:00000628       __imp_?setBlocking@QSocketDevice@@UAEX_N@Z 0041b628     qt-mt323:qt-mt323.dll
 0002:0000062c       __imp_?setSocket@QSocketDevice@@UAEXHW4Type@1@@Z 0041b62c     qt-mt323:qt-mt323.dll
 0002:00000630       __imp_?ungetch@QSocketDevice@@UAEHH@Z 0041b630     qt-mt323:qt-mt323.dll
 0002:00000634       __imp_?putch@QSocketDevice@@UAEHH@Z 0041b634     qt-mt323:qt-mt323.dll
 0002:00000638       __imp_?getch@QSocketDevice@@UAEHXZ 0041b638     qt-mt323:qt-mt323.dll
 0002:0000063c       __imp_?readAll@QIODevice@@UAE?AV?$QMemArray@D@@XZ 0041b63c     qt-mt323:qt-mt323.dll
 0002:00000640       __imp_?readLine@QIODevice@@UAEJPADK@Z 0041b640     qt-mt323:qt-mt323.dll
 0002:00000644       __imp_?writeBlock@QSocketDevice@@UAEJPBDK@Z 0041b644     qt-mt323:qt-mt323.dll
 0002:00000648       __imp_?readBlock@QSocketDevice@@UAEJPADK@Z 0041b648     qt-mt323:qt-mt323.dll
 0002:0000064c       __imp_?atEnd@QSocketDevice@@UBE_NXZ 0041b64c     qt-mt323:qt-mt323.dll
 0002:00000650       __imp_?at@QSocketDevice@@UBEKXZ 0041b650     qt-mt323:qt-mt323.dll
 0002:00000654       __imp_?at@QSocketDevice@@UAE_NK@Z 0041b654     qt-mt323:qt-mt323.dll
 0002:00000658       __imp_?size@QSocketDevice@@UBEKXZ 0041b658     qt-mt323:qt-mt323.dll
 0002:0000065c       __imp_?flush@QSocketDevice@@UAEXXZ 0041b65c     qt-mt323:qt-mt323.dll
 0002:00000660       __imp_?close@QSocketDevice@@UAEXXZ 0041b660     qt-mt323:qt-mt323.dll
 0002:00000664       __imp_?open@QSocketDevice@@UAE_NH@Z 0041b664     qt-mt323:qt-mt323.dll
 0002:00000668       __imp_??0QSocketNotifier@@QAE@HW4Type@0@PAVQObject@@PBD@Z 0041b668     qt-mt323:qt-mt323.dll
 0002:0000066c       __imp_?socket@QSocketDevice@@QBEHXZ 0041b66c     qt-mt323:qt-mt323.dll
 0002:00000670       __imp_??1QHostAddress@@UAE@XZ 0041b670     qt-mt323:qt-mt323.dll
 0002:00000674       __imp_??0QHostAddress@@QAE@I@Z 0041b674     qt-mt323:qt-mt323.dll
 0002:00000678       __imp_?setAddress@QHostAddress@@QAE_NABVQString@@@Z 0041b678     qt-mt323:qt-mt323.dll
 0002:0000067c       __imp_??0QHostAddress@@QAE@XZ 0041b67c     qt-mt323:qt-mt323.dll
 0002:00000680       __imp_??0QSocketDevice@@QAE@W4Type@0@@Z 0041b680     qt-mt323:qt-mt323.dll
 0002:00000684       __imp_??1QSocketDevice@@UAE@XZ 0041b684     qt-mt323:qt-mt323.dll
 0002:00000688       __imp_??1QSocketNotifier@@UAE@XZ 0041b688     qt-mt323:qt-mt323.dll
 0002:0000068c       __imp_??A?$QValueList@VQString@@@@QAEAAVQString@@I@Z 0041b68c     qt-mt323:qt-mt323.dll
 0002:00000690       __imp_?toInt@QString@@QBEHPA_NH@Z 0041b690     qt-mt323:qt-mt323.dll
 0002:00000694       __imp_?isValid@QSocketDevice@@QBE_NXZ 0041b694     qt-mt323:qt-mt323.dll
 0002:00000698       __imp_??1QDomDocument@@UAE@XZ 0041b698     qt-mt323:qt-mt323.dll
 0002:0000069c       __imp_?remove@QString@@QAEAAV1@VQChar@@@Z 0041b69c     qt-mt323:qt-mt323.dll
 0002:000006a0       __imp_?right@QString@@QBE?AV1@I@Z 0041b6a0     qt-mt323:qt-mt323.dll
 0002:000006a4       __imp_?find@QString@@QBEHABV1@H_N@Z 0041b6a4     qt-mt323:qt-mt323.dll
 0002:000006a8       __imp_?fromAscii@QString@@SA?AV1@PBDH@Z 0041b6a8     qt-mt323:qt-mt323.dll
 0002:000006ac       __imp_?contains@QString@@QBEHPBD_N@Z 0041b6ac     qt-mt323:qt-mt323.dll
 0002:000006b0       __imp_??1QDomNode@@UAE@XZ  0041b6b0     qt-mt323:qt-mt323.dll
 0002:000006b4       __imp_??4QDomNode@@QAEAAV0@ABV0@@Z 0041b6b4     qt-mt323:qt-mt323.dll
 0002:000006b8       __imp_?nextSibling@QDomNode@@UBE?AV1@XZ 0041b6b8     qt-mt323:qt-mt323.dll
 0002:000006bc       __imp_?toElement@QDomNode@@QAE?AVQDomElement@@XZ 0041b6bc     qt-mt323:qt-mt323.dll
 0002:000006c0       __imp_?attribute@QDomElement@@QBE?AVQString@@ABV2@0@Z 0041b6c0     qt-mt323:qt-mt323.dll
 0002:000006c4       __imp_?isNull@QDomNode@@QBE_NXZ 0041b6c4     qt-mt323:qt-mt323.dll
 0002:000006c8       __imp_??1QDomElement@@UAE@XZ 0041b6c8     qt-mt323:qt-mt323.dll
 0002:000006cc       __imp_?tagName@QDomElement@@QBE?AVQString@@XZ 0041b6cc     qt-mt323:qt-mt323.dll
 0002:000006d0       __imp_?documentElement@QDomDocument@@QBE?AVQDomElement@@XZ 0041b6d0     qt-mt323:qt-mt323.dll
 0002:000006d4       __imp_?setContent@QDomDocument@@QAE_NPAVQIODevice@@PAVQString@@PAH2@Z 0041b6d4     qt-mt323:qt-mt323.dll
 0002:000006d8       __imp_??0QDomDocument@@QAE@XZ 0041b6d8     qt-mt323:qt-mt323.dll
 0002:000006dc       __imp_?arg@QString@@QBE?AV1@IHH@Z 0041b6dc     qt-mt323:qt-mt323.dll
 0002:000006e0       __imp_?toTime_t@QDateTime@@QBEIXZ 0041b6e0     qt-mt323:qt-mt323.dll
 0002:000006e4       __imp_??YQString@@QAEAAV0@ABV0@@Z 0041b6e4     qt-mt323:qt-mt323.dll
 0002:000006e8       __imp_?arg@QString@@QBE?AV1@KHH@Z 0041b6e8     qt-mt323:qt-mt323.dll
 0002:000006ec       __imp_?qWarning@@YAXPBDZZ  0041b6ec     qt-mt323:qt-mt323.dll
 0002:000006f0       __imp_?closeStdin@QProcess@@UAEXXZ 0041b6f0     qt-mt323:qt-mt323.dll
 0002:000006f4       __imp_?writeToStdin@QProcess@@UAEXABV?$QMemArray@D@@@Z 0041b6f4     qt-mt323:qt-mt323.dll
 0002:000006f8       __imp_?writeToStdin@QProcess@@UAEXABVQString@@@Z 0041b6f8     qt-mt323:qt-mt323.dll
 0002:000006fc       __imp_?readLineStderr@QProcess@@UAE?AVQString@@XZ 0041b6fc     qt-mt323:qt-mt323.dll
 0002:00000700       __imp_?readLineStdout@QProcess@@UAE?AVQString@@XZ 0041b700     qt-mt323:qt-mt323.dll
 0002:00000704       __imp_?readStderr@QProcess@@UAE?AV?$QMemArray@D@@XZ 0041b704     qt-mt323:qt-mt323.dll
 0002:00000708       __imp_?readStdout@QProcess@@UAE?AV?$QMemArray@D@@XZ 0041b708     qt-mt323:qt-mt323.dll
 0002:0000070c       __imp_?launch@QProcess@@UAE_NABVQString@@PAVQStringList@@@Z 0041b70c     qt-mt323:qt-mt323.dll
 0002:00000710       __imp_?launch@QProcess@@UAE_NABV?$QMemArray@D@@PAVQStringList@@@Z 0041b710     qt-mt323:qt-mt323.dll
 0002:00000714       __imp_?setWorkingDirectory@QProcess@@UAEXABVQDir@@@Z 0041b714     qt-mt323:qt-mt323.dll
 0002:00000718       __imp_?addArgument@QProcess@@UAEXABVQString@@@Z 0041b718     qt-mt323:qt-mt323.dll
 0002:0000071c       __imp_?setArguments@QProcess@@UAEXABVQStringList@@@Z 0041b71c     qt-mt323:qt-mt323.dll
 0002:00000720       __imp_?disconnectNotify@QProcess@@MAEXPBD@Z 0041b720     qt-mt323:qt-mt323.dll
 0002:00000724       __imp_?connectNotify@QProcess@@MAEXPBD@Z 0041b724     qt-mt323:qt-mt323.dll
 0002:00000728       __imp_??1QProcess@@UAE@XZ  0041b728     qt-mt323:qt-mt323.dll
 0002:0000072c       __imp_??0QProcess@@QAE@PAVQObject@@PBD@Z 0041b72c     qt-mt323:qt-mt323.dll
 0002:00000730       __imp_?processIdentifier@QProcess@@QAEPAXXZ 0041b730     qt-mt323:qt-mt323.dll
 0002:00000734       __imp_?start@QProcess@@UAE_NPAVQStringList@@@Z 0041b734     qt-mt323:qt-mt323.dll
 0002:00000738       __imp_?kill@QProcess@@QBEXXZ 0041b738     qt-mt323:qt-mt323.dll
 0002:0000073c       __imp_??0QThread@@QAE@XZ   0041b73c     qt-mt323:qt-mt323.dll
 0002:00000740       __imp_??1QThread@@UAE@XZ   0041b740     qt-mt323:qt-mt323.dll
 0002:00000744       __imp_?start@QThread@@QAEXXZ 0041b744     qt-mt323:qt-mt323.dll
 0002:00000748       __imp_??0QWidget@@QAE@PAV0@PBDI@Z 0041b748     qt-mt323:qt-mt323.dll
 0002:0000074c       __imp_??1QWidget@@UAE@XZ   0041b74c     qt-mt323:qt-mt323.dll
 0002:00000750       __imp_??1QGArray@@MAE@XZ   0041b750     qt-mt323:qt-mt323.dll
 0002:00000754       __imp_??_7?$QMemArray@D@@6B@ 0041b754     qt-mt323:qt-mt323.dll
 0002:00000758       __imp_??0QString@@QAE@ABV?$QMemArray@D@@@Z 0041b758     qt-mt323:qt-mt323.dll
 0002:0000075c       __imp_?qt_property@QProcess@@UAE_NHHPAVQVariant@@@Z 0041b75c     qt-mt323:qt-mt323.dll
 0002:00000760       __imp_?qt_emit@QProcess@@UAE_NHPAUQUObject@@@Z 0041b760     qt-mt323:qt-mt323.dll
 0002:00000764       __imp_?qt_invoke@QProcess@@UAE_NHPAUQUObject@@@Z 0041b764     qt-mt323:qt-mt323.dll
 0002:00000768       __imp_?qt_cast@QProcess@@UAEPAXPBD@Z 0041b768     qt-mt323:qt-mt323.dll
 0002:0000076c       __imp_?className@QProcess@@UBEPBDXZ 0041b76c     qt-mt323:qt-mt323.dll
 0002:00000770       __imp_?metaObject@QProcess@@UBEPAVQMetaObject@@XZ 0041b770     qt-mt323:qt-mt323.dll
 0002:00000774       __imp_??1QSettings@@QAE@XZ 0041b774     qt-mt323:qt-mt323.dll
 0002:00000778       __imp_?writeEntry@QSettings@@QAE_NABVQString@@0@Z 0041b778     qt-mt323:qt-mt323.dll
 0002:0000077c       __imp_?replace@QString@@QAEAAV1@ABV1@0@Z 0041b77c     qt-mt323:qt-mt323.dll
 0002:00000780       __imp_?toString@QDateTime@@QBE?AVQString@@W4DateFormat@Qt@@@Z 0041b780     qt-mt323:qt-mt323.dll
 0002:00000784       __imp_??9QDateTime@@QBE_NABV0@@Z 0041b784     qt-mt323:qt-mt323.dll
 0002:00000788       __imp_?isValid@QTime@@QBE_NXZ 0041b788     qt-mt323:qt-mt323.dll
 0002:0000078c       __imp_?isValid@QDate@@QBE_NXZ 0041b78c     qt-mt323:qt-mt323.dll
 0002:00000790       __imp_?fromString@QDateTime@@SA?AV1@ABVQString@@W4DateFormat@Qt@@@Z 0041b790     qt-mt323:qt-mt323.dll
 0002:00000794       __imp_?readEntry@QSettings@@QAE?AVQString@@ABV2@0PA_N@Z 0041b794     qt-mt323:qt-mt323.dll
 0002:00000798       __imp_?setPath@QSettings@@QAEXABVQString@@0W4Scope@1@@Z 0041b798     qt-mt323:qt-mt323.dll
 0002:0000079c       __imp_??0QSettings@@QAE@XZ 0041b79c     qt-mt323:qt-mt323.dll
 0002:000007a0       __imp_?main_widget@QApplication@@0PAVQWidget@@A 0041b7a0     qt-mt323:qt-mt323.dll
 0002:000007a4       __imp_?spacerItem@QSpacerItem@@UAEPAV1@XZ 0041b7a4     qt-mt323:qt-mt323.dll
 0002:000007a8       __imp_?layout@QLayoutItem@@UAEPAVQLayout@@XZ 0041b7a8     qt-mt323:qt-mt323.dll
 0002:000007ac       __imp_?iterator@QLayoutItem@@UAE?AVQLayoutIterator@@XZ 0041b7ac     qt-mt323:qt-mt323.dll
 0002:000007b0       __imp_?invalidate@QLayoutItem@@UAEXXZ 0041b7b0     qt-mt323:qt-mt323.dll
 0002:000007b4       __imp_?heightForWidth@QLayoutItem@@UBEHH@Z 0041b7b4     qt-mt323:qt-mt323.dll
 0002:000007b8       __imp_?hasHeightForWidth@QLayoutItem@@UBE_NXZ 0041b7b8     qt-mt323:qt-mt323.dll
 0002:000007bc       __imp_?isEmpty@QSpacerItem@@UBE_NXZ 0041b7bc     qt-mt323:qt-mt323.dll
 0002:000007c0       __imp_?geometry@QSpacerItem@@UBE?AVQRect@@XZ 0041b7c0     qt-mt323:qt-mt323.dll
 0002:000007c4       __imp_?setGeometry@QSpacerItem@@UAEXABVQRect@@@Z 0041b7c4     qt-mt323:qt-mt323.dll
 0002:000007c8       __imp_?expanding@QSpacerItem@@UBE?AW4ExpandData@QSizePolicy@@XZ 0041b7c8     qt-mt323:qt-mt323.dll
 0002:000007cc       __imp_?maximumSize@QSpacerItem@@UBE?AVQSize@@XZ 0041b7cc     qt-mt323:qt-mt323.dll
 0002:000007d0       __imp_?minimumSize@QSpacerItem@@UBE?AVQSize@@XZ 0041b7d0     qt-mt323:qt-mt323.dll
 0002:000007d4       __imp_?sizeHint@QSpacerItem@@UBE?AVQSize@@XZ 0041b7d4     qt-mt323:qt-mt323.dll
 0002:000007d8       __imp_?setOn@QPushButton@@UAEX_N@Z 0041b7d8     qt-mt323:qt-mt323.dll
 0002:000007dc       __imp_?setIsMenuButton@QPushButton@@UAEX_N@Z 0041b7dc     qt-mt323:qt-mt323.dll
 0002:000007e0       __imp_?setDefault@QPushButton@@UAEX_N@Z 0041b7e0     qt-mt323:qt-mt323.dll
 0002:000007e4       __imp_?setAutoDefault@QPushButton@@UAEX_N@Z 0041b7e4     qt-mt323:qt-mt323.dll
 0002:000007e8       __imp_?setGroup@QButton@@EAEXPAVQButtonGroup@@@Z 0041b7e8     qt-mt323:qt-mt323.dll
 0002:000007ec       __imp_?drawButtonLabel@QPushButton@@MAEXPAVQPainter@@@Z 0041b7ec     qt-mt323:qt-mt323.dll
 0002:000007f0       __imp_?drawButton@QPushButton@@MAEXPAVQPainter@@@Z 0041b7f0     qt-mt323:qt-mt323.dll
 0002:000007f4       __imp_?hitButton@QButton@@MBE_NABVQPoint@@@Z 0041b7f4     qt-mt323:qt-mt323.dll
 0002:000007f8       __imp_?setState@QButton@@MAEXW4ToggleState@1@@Z 0041b7f8     qt-mt323:qt-mt323.dll
 0002:000007fc       __imp_?setToggleType@QButton@@MAEXW4ToggleType@1@@Z 0041b7fc     qt-mt323:qt-mt323.dll
 0002:00000800       __imp_?setAutoRepeat@QButton@@UAEX_N@Z 0041b800     qt-mt323:qt-mt323.dll
 0002:00000804       __imp_?setDown@QButton@@UAEX_N@Z 0041b804     qt-mt323:qt-mt323.dll
 0002:00000808       __imp_?setAccel@QButton@@UAEXABVQKeySequence@@@Z 0041b808     qt-mt323:qt-mt323.dll
 0002:0000080c       __imp_?setPixmap@QButton@@UAEXABVQPixmap@@@Z 0041b80c     qt-mt323:qt-mt323.dll
 0002:00000810       __imp_?setText@QButton@@UAEXABVQString@@@Z 0041b810     qt-mt323:qt-mt323.dll
 0002:00000814       __imp_?enabledChange@QButton@@MAEX_N@Z 0041b814     qt-mt323:qt-mt323.dll
 0002:00000818       __imp_?updateMask@QPushButton@@MAEXXZ 0041b818     qt-mt323:qt-mt323.dll
 0002:0000081c       __imp_?resizeEvent@QPushButton@@MAEXPAVQResizeEvent@@@Z 0041b81c     qt-mt323:qt-mt323.dll
 0002:00000820       __imp_?paintEvent@QButton@@MAEXPAVQPaintEvent@@@Z 0041b820     qt-mt323:qt-mt323.dll
 0002:00000824       __imp_?focusOutEvent@QPushButton@@MAEXPAVQFocusEvent@@@Z 0041b824     qt-mt323:qt-mt323.dll
 0002:00000828       __imp_?focusInEvent@QPushButton@@MAEXPAVQFocusEvent@@@Z 0041b828     qt-mt323:qt-mt323.dll
 0002:0000082c       __imp_?leaveEvent@QWidget@@MAEXPAVQEvent@@@Z 0041b82c     qt-mt323:qt-mt323.dll
 0002:00000830       __imp_?keyPressEvent@QButton@@MAEXPAVQKeyEvent@@@Z 0041b830     qt-mt323:qt-mt323.dll
 0002:00000834       __imp_?mouseMoveEvent@QButton@@MAEXPAVQMouseEvent@@@Z 0041b834     qt-mt323:qt-mt323.dll
 0002:00000838       __imp_?mouseReleaseEvent@QButton@@MAEXPAVQMouseEvent@@@Z 0041b838     qt-mt323:qt-mt323.dll
 0002:0000083c       __imp_?mousePressEvent@QButton@@MAEXPAVQMouseEvent@@@Z 0041b83c     qt-mt323:qt-mt323.dll
 0002:00000840       __imp_?sizeHint@QPushButton@@UBE?AVQSize@@XZ 0041b840     qt-mt323:qt-mt323.dll
 0002:00000844       __imp_?setGeometry@QPushButton@@UAEXHHHH@Z 0041b844     qt-mt323:qt-mt323.dll
 0002:00000848       __imp_?setGeometry@QPushButton@@UAEXABVQRect@@@Z 0041b848     qt-mt323:qt-mt323.dll
 0002:0000084c       __imp_?resize@QPushButton@@UAEXHH@Z 0041b84c     qt-mt323:qt-mt323.dll
 0002:00000850       __imp_?move@QPushButton@@UAEXHH@Z 0041b850     qt-mt323:qt-mt323.dll
 0002:00000854       __imp_?qt_property@QPushButton@@UAE_NHHPAVQVariant@@@Z 0041b854     qt-mt323:qt-mt323.dll
 0002:00000858       __imp_?qt_emit@QPushButton@@UAE_NHPAUQUObject@@@Z 0041b858     qt-mt323:qt-mt323.dll
 0002:0000085c       __imp_?qt_invoke@QPushButton@@UAE_NHPAUQUObject@@@Z 0041b85c     qt-mt323:qt-mt323.dll
 0002:00000860       __imp_?qt_cast@QPushButton@@UAEPAXPBD@Z 0041b860     qt-mt323:qt-mt323.dll
 0002:00000864       __imp_?className@QPushButton@@UBEPBDXZ 0041b864     qt-mt323:qt-mt323.dll
 0002:00000868       __imp_?metaObject@QPushButton@@UBEPAVQMetaObject@@XZ 0041b868     qt-mt323:qt-mt323.dll
 0002:0000086c       __imp_?setNum@QLabel@@UAEXH@Z 0041b86c     qt-mt323:qt-mt323.dll
 0002:00000870       __imp_?setNum@QLabel@@UAEXN@Z 0041b870     qt-mt323:qt-mt323.dll
 0002:00000874       __imp_?setMovie@QLabel@@UAEXABVQMovie@@@Z 0041b874     qt-mt323:qt-mt323.dll
 0002:00000878       __imp_?setPicture@QLabel@@UAEXABVQPicture@@@Z 0041b878     qt-mt323:qt-mt323.dll
 0002:0000087c       __imp_?setPixmap@QLabel@@UAEXABVQPixmap@@@Z 0041b87c     qt-mt323:qt-mt323.dll
 0002:00000880       __imp_?setText@QLabel@@UAEXABVQString@@@Z 0041b880     qt-mt323:qt-mt323.dll
 0002:00000884       __imp_?setBuddy@QLabel@@UAEXPAVQWidget@@@Z 0041b884     qt-mt323:qt-mt323.dll
 0002:00000888       __imp_?setAutoResize@QLabel@@UAEX_N@Z 0041b888     qt-mt323:qt-mt323.dll
 0002:0000088c       __imp_?setAlignment@QLabel@@UAEXH@Z 0041b88c     qt-mt323:qt-mt323.dll
 0002:00000890       __imp_?frameChanged@QFrame@@MAEXXZ 0041b890     qt-mt323:qt-mt323.dll
 0002:00000894       __imp_?drawContents@QLabel@@MAEXPAVQPainter@@@Z 0041b894     qt-mt323:qt-mt323.dll
 0002:00000898       __imp_?drawFrame@QFrame@@MAEXPAVQPainter@@@Z 0041b898     qt-mt323:qt-mt323.dll
 0002:0000089c       __imp_?setFrameRect@QFrame@@UAEXABVQRect@@@Z 0041b89c     qt-mt323:qt-mt323.dll
 0002:000008a0       __imp_?setMidLineWidth@QFrame@@UAEXH@Z 0041b8a0     qt-mt323:qt-mt323.dll
 0002:000008a4       __imp_?setMargin@QFrame@@UAEXH@Z 0041b8a4     qt-mt323:qt-mt323.dll
 0002:000008a8       __imp_?setLineWidth@QFrame@@UAEXH@Z 0041b8a8     qt-mt323:qt-mt323.dll
 0002:000008ac       __imp_?setFrameStyle@QFrame@@UAEXH@Z 0041b8ac     qt-mt323:qt-mt323.dll
 0002:000008b0       __imp_?fontChange@QLabel@@MAEXABVQFont@@@Z 0041b8b0     qt-mt323:qt-mt323.dll
 0002:000008b4       __imp_?styleChange@QFrame@@MAEXAAVQStyle@@@Z 0041b8b4     qt-mt323:qt-mt323.dll
 0002:000008b8       __imp_?resizeEvent@QLabel@@MAEXPAVQResizeEvent@@@Z 0041b8b8     qt-mt323:qt-mt323.dll
 0002:000008bc       __imp_?paintEvent@QFrame@@MAEXPAVQPaintEvent@@@Z 0041b8bc     qt-mt323:qt-mt323.dll
 0002:000008c0       __imp_?sizePolicy@QWidget@@UBE?AVQSizePolicy@@XZ 0041b8c0     qt-mt323:qt-mt323.dll
 0002:000008c4       __imp_?minimumSizeHint@QLabel@@UBE?AVQSize@@XZ 0041b8c4     qt-mt323:qt-mt323.dll
 0002:000008c8       __imp_?sizeHint@QLabel@@UBE?AVQSize@@XZ 0041b8c8     qt-mt323:qt-mt323.dll
 0002:000008cc       __imp_?setFont@QLabel@@UAEXABVQFont@@@Z 0041b8cc     qt-mt323:qt-mt323.dll
 0002:000008d0       __imp_?qt_property@QLabel@@UAE_NHHPAVQVariant@@@Z 0041b8d0     qt-mt323:qt-mt323.dll
 0002:000008d4       __imp_?qt_emit@QLabel@@UAE_NHPAUQUObject@@@Z 0041b8d4     qt-mt323:qt-mt323.dll
 0002:000008d8       __imp_?qt_invoke@QLabel@@UAE_NHPAUQUObject@@@Z 0041b8d8     qt-mt323:qt-mt323.dll
 0002:000008dc       __imp_?qt_cast@QLabel@@UAEPAXPBD@Z 0041b8dc     qt-mt323:qt-mt323.dll
 0002:000008e0       __imp_?className@QLabel@@UBEPBDXZ 0041b8e0     qt-mt323:qt-mt323.dll
 0002:000008e4       __imp_?metaObject@QLabel@@UBEPAVQMetaObject@@XZ 0041b8e4     qt-mt323:qt-mt323.dll
 0002:000008e8       __imp_?qt_property@QHBoxLayout@@UAE_NHHPAVQVariant@@@Z 0041b8e8     qt-mt323:qt-mt323.dll
 0002:000008ec       __imp_?qt_emit@QHBoxLayout@@UAE_NHPAUQUObject@@@Z 0041b8ec     qt-mt323:qt-mt323.dll
 0002:000008f0       __imp_?qt_invoke@QHBoxLayout@@UAE_NHPAUQUObject@@@Z 0041b8f0     qt-mt323:qt-mt323.dll
 0002:000008f4       __imp_?qt_cast@QHBoxLayout@@UAEPAXPBD@Z 0041b8f4     qt-mt323:qt-mt323.dll
 0002:000008f8       __imp_?className@QHBoxLayout@@UBEPBDXZ 0041b8f8     qt-mt323:qt-mt323.dll
 0002:000008fc       __imp_?metaObject@QHBoxLayout@@UBEPAVQMetaObject@@XZ 0041b8fc     qt-mt323:qt-mt323.dll
 0002:00000900       __imp_?setAlignment@QLayoutItem@@UAEXH@Z 0041b900     qt-mt323:qt-mt323.dll
 0002:00000904       __imp_?spacerItem@QLayoutItem@@UAEPAVQSpacerItem@@XZ 0041b904     qt-mt323:qt-mt323.dll
 0002:00000908       __imp_?layout@QLayout@@UAEPAV1@XZ 0041b908     qt-mt323:qt-mt323.dll
 0002:0000090c       __imp_?iterator@QBoxLayout@@UAE?AVQLayoutIterator@@XZ 0041b90c     qt-mt323:qt-mt323.dll
 0002:00000910       __imp_?widget@QLayoutItem@@UAEPAVQWidget@@XZ 0041b910     qt-mt323:qt-mt323.dll
 0002:00000914       __imp_?invalidate@QBoxLayout@@UAEXXZ 0041b914     qt-mt323:qt-mt323.dll
 0002:00000918       __imp_?heightForWidth@QBoxLayout@@UBEHH@Z 0041b918     qt-mt323:qt-mt323.dll
 0002:0000091c       __imp_?hasHeightForWidth@QBoxLayout@@UBE_NXZ 0041b91c     qt-mt323:qt-mt323.dll
 0002:00000920       __imp_?isEmpty@QLayout@@UBE_NXZ 0041b920     qt-mt323:qt-mt323.dll
 0002:00000924       __imp_?geometry@QLayout@@UBE?AVQRect@@XZ 0041b924     qt-mt323:qt-mt323.dll
 0002:00000928       __imp_?setGeometry@QBoxLayout@@UAEXABVQRect@@@Z 0041b928     qt-mt323:qt-mt323.dll
 0002:0000092c       __imp_?expanding@QBoxLayout@@UBE?AW4ExpandData@QSizePolicy@@XZ 0041b92c     qt-mt323:qt-mt323.dll
 0002:00000930       __imp_?maximumSize@QBoxLayout@@UBE?AVQSize@@XZ 0041b930     qt-mt323:qt-mt323.dll
 0002:00000934       __imp_?minimumSize@QBoxLayout@@UBE?AVQSize@@XZ 0041b934     qt-mt323:qt-mt323.dll
 0002:00000938       __imp_?sizeHint@QBoxLayout@@UBE?AVQSize@@XZ 0041b938     qt-mt323:qt-mt323.dll
 0002:0000093c       __imp_?addItem@QBoxLayout@@UAEXPAVQLayoutItem@@@Z 0041b93c     qt-mt323:qt-mt323.dll
 0002:00000940       __imp_?setAutoAdd@QLayout@@UAEX_N@Z 0041b940     qt-mt323:qt-mt323.dll
 0002:00000944       __imp_?setMenuBar@QLayout@@UAEXPAVQMenuBar@@@Z 0041b944     qt-mt323:qt-mt323.dll
 0002:00000948       __imp_?setSpacing@QLayout@@UAEXH@Z 0041b948     qt-mt323:qt-mt323.dll
 0002:0000094c       __imp_?setMargin@QLayout@@UAEXH@Z 0041b94c     qt-mt323:qt-mt323.dll
 0002:00000950       __imp_?childEvent@QLayout@@MAEXPAVQChildEvent@@@Z 0041b950     qt-mt323:qt-mt323.dll
 0002:00000954       __imp_?eventFilter@QLayout@@MAE_NPAVQObject@@PAVQEvent@@@Z 0041b954     qt-mt323:qt-mt323.dll
 0002:00000958       __imp_?qt_property@QVBoxLayout@@UAE_NHHPAVQVariant@@@Z 0041b958     qt-mt323:qt-mt323.dll
 0002:0000095c       __imp_?qt_emit@QVBoxLayout@@UAE_NHPAUQUObject@@@Z 0041b95c     qt-mt323:qt-mt323.dll
 0002:00000960       __imp_?qt_invoke@QVBoxLayout@@UAE_NHPAUQUObject@@@Z 0041b960     qt-mt323:qt-mt323.dll
 0002:00000964       __imp_?qt_cast@QVBoxLayout@@UAEPAXPBD@Z 0041b964     qt-mt323:qt-mt323.dll
 0002:00000968       __imp_?className@QVBoxLayout@@UBEPBDXZ 0041b968     qt-mt323:qt-mt323.dll
 0002:0000096c       __imp_?metaObject@QVBoxLayout@@UBEPAVQMetaObject@@XZ 0041b96c     qt-mt323:qt-mt323.dll
 0002:00000970       __imp_??1QDialog@@UAE@XZ   0041b970     qt-mt323:qt-mt323.dll
 0002:00000974       __imp_?resize@QDialog@@QAEXABVQSize@@@Z 0041b974     qt-mt323:qt-mt323.dll
 0002:00000978       __imp_??0QPushButton@@QAE@PAVQWidget@@PBD@Z 0041b978     qt-mt323:qt-mt323.dll
 0002:0000097c       __imp_?addLayout@QBoxLayout@@QAEXPAVQLayout@@H@Z 0041b97c     qt-mt323:qt-mt323.dll
 0002:00000980       __imp_??0QHBoxLayout@@QAE@PAVQWidget@@HHPBD@Z 0041b980     qt-mt323:qt-mt323.dll
 0002:00000984       __imp_??1QCursor@@QAE@XZ   0041b984     qt-mt323:qt-mt323.dll
 0002:00000988       __imp_??0QCursor@@QAE@H@Z  0041b988     qt-mt323:qt-mt323.dll
 0002:0000098c       __imp_??0QLabel@@QAE@PAVQWidget@@PBDI@Z 0041b98c     qt-mt323:qt-mt323.dll
 0002:00000990       __imp_??0QVBoxLayout@@QAE@PAVQWidget@@HHPBD@Z 0041b990     qt-mt323:qt-mt323.dll
 0002:00000994       __imp_?setSizeGripEnabled@QDialog@@QAEX_N@Z 0041b994     qt-mt323:qt-mt323.dll
 0002:00000998       __imp_??0QDialog@@QAE@PAVQWidget@@PBD_NI@Z 0041b998     qt-mt323:qt-mt323.dll
 0002:0000099c       __imp_??1QSpacerItem@@UAE@XZ 0041b99c     qt-mt323:qt-mt323.dll
 0002:000009a0       __imp_??1QVBoxLayout@@UAE@XZ 0041b9a0     qt-mt323:qt-mt323.dll
 0002:000009a4       __imp_??1QLabel@@UAE@XZ    0041b9a4     qt-mt323:qt-mt323.dll
 0002:000009a8       __imp_??1QHBoxLayout@@UAE@XZ 0041b9a8     qt-mt323:qt-mt323.dll
 0002:000009ac       __imp_??1QPushButton@@UAE@XZ 0041b9ac     qt-mt323:qt-mt323.dll
 0002:000009b0       __imp_??0QKeySequence@@QAE@ABVQString@@@Z 0041b9b0     qt-mt323:qt-mt323.dll
 0002:000009b4       __imp_?menuDelPopup@QPopupMenu@@EAEXPAV1@@Z 0041b9b4     qt-mt323:qt-mt323.dll
 0002:000009b8       __imp_?menuInsPopup@QPopupMenu@@EAEXPAV1@@Z 0041b9b8     qt-mt323:qt-mt323.dll
 0002:000009bc       __imp_?menuStateChanged@QPopupMenu@@EAEXXZ 0041b9bc     qt-mt323:qt-mt323.dll
 0002:000009c0       __imp_?menuContentsChanged@QPopupMenu@@EAEXXZ 0041b9c0     qt-mt323:qt-mt323.dll
 0002:000009c4       __imp_?activateItemAt@QPopupMenu@@UAEXH@Z 0041b9c4     qt-mt323:qt-mt323.dll
 0002:000009c8       __imp_?updateItem@QPopupMenu@@UAEXH@Z 0041b9c8     qt-mt323:qt-mt323.dll
 0002:000009cc       __imp_?setFirstItemActive@QPopupMenu@@EAEXXZ 0041b9cc     qt-mt323:qt-mt323.dll
 0002:000009d0       __imp_?setActiveItem@QPopupMenu@@UAEXH@Z 0041b9d0     qt-mt323:qt-mt323.dll
 0002:000009d4       __imp_?setCheckable@QPopupMenu@@UAEX_N@Z 0041b9d4     qt-mt323:qt-mt323.dll
 0002:000009d8       __imp_?frameChanged@QPopupMenu@@EAEXXZ 0041b9d8     qt-mt323:qt-mt323.dll
 0002:000009dc       __imp_?drawContents@QPopupMenu@@MAEXPAVQPainter@@@Z 0041b9dc     qt-mt323:qt-mt323.dll
 0002:000009e0       __imp_?focusNextPrevChild@QPopupMenu@@MAE_N_N@Z 0041b9e0     qt-mt323:qt-mt323.dll
 0002:000009e4       __imp_?enabledChange@QPopupMenu@@MAEX_N@Z 0041b9e4     qt-mt323:qt-mt323.dll
 0002:000009e8       __imp_?styleChange@QPopupMenu@@MAEXAAVQStyle@@@Z 0041b9e8     qt-mt323:qt-mt323.dll
 0002:000009ec       __imp_?closeEvent@QPopupMenu@@MAEXPAVQCloseEvent@@@Z 0041b9ec     qt-mt323:qt-mt323.dll
 0002:000009f0       __imp_?resizeEvent@QFrame@@MAEXPAVQResizeEvent@@@Z 0041b9f0     qt-mt323:qt-mt323.dll
 0002:000009f4       __imp_?paintEvent@QPopupMenu@@MAEXPAVQPaintEvent@@@Z 0041b9f4     qt-mt323:qt-mt323.dll
 0002:000009f8       __imp_?leaveEvent@QPopupMenu@@MAEXPAVQEvent@@@Z 0041b9f8     qt-mt323:qt-mt323.dll
 0002:000009fc       __imp_?focusOutEvent@QPopupMenu@@MAEXPAVQFocusEvent@@@Z 0041b9fc     qt-mt323:qt-mt323.dll
 0002:00000a00       __imp_?focusInEvent@QPopupMenu@@MAEXPAVQFocusEvent@@@Z 0041ba00     qt-mt323:qt-mt323.dll
 0002:00000a04       __imp_?keyPressEvent@QPopupMenu@@MAEXPAVQKeyEvent@@@Z 0041ba04     qt-mt323:qt-mt323.dll
 0002:00000a08       __imp_?mouseMoveEvent@QPopupMenu@@MAEXPAVQMouseEvent@@@Z 0041ba08     qt-mt323:qt-mt323.dll
 0002:00000a0c       __imp_?mouseReleaseEvent@QPopupMenu@@MAEXPAVQMouseEvent@@@Z 0041ba0c     qt-mt323:qt-mt323.dll
 0002:00000a10       __imp_?mousePressEvent@QPopupMenu@@MAEXPAVQMouseEvent@@@Z 0041ba10     qt-mt323:qt-mt323.dll
 0002:00000a14       __imp_?customWhatsThis@QPopupMenu@@UBE_NXZ 0041ba14     qt-mt323:qt-mt323.dll
 0002:00000a18       __imp_?sizeHint@QPopupMenu@@UBE?AVQSize@@XZ 0041ba18     qt-mt323:qt-mt323.dll
 0002:00000a1c       __imp_?hide@QPopupMenu@@UAEXXZ 0041ba1c     qt-mt323:qt-mt323.dll
 0002:00000a20       __imp_?show@QPopupMenu@@UAEXXZ 0041ba20     qt-mt323:qt-mt323.dll
 0002:00000a24       __imp_?setFont@QPopupMenu@@UAEXABVQFont@@@Z 0041ba24     qt-mt323:qt-mt323.dll
 0002:00000a28       __imp_?timerEvent@QPopupMenu@@MAEXPAVQTimerEvent@@@Z 0041ba28     qt-mt323:qt-mt323.dll
 0002:00000a2c       __imp_?qt_property@QPopupMenu@@UAE_NHHPAVQVariant@@@Z 0041ba2c     qt-mt323:qt-mt323.dll
 0002:00000a30       __imp_?qt_emit@QPopupMenu@@UAE_NHPAUQUObject@@@Z 0041ba30     qt-mt323:qt-mt323.dll
 0002:00000a34       __imp_?qt_invoke@QPopupMenu@@UAE_NHPAUQUObject@@@Z 0041ba34     qt-mt323:qt-mt323.dll
 0002:00000a38       __imp_?qt_cast@QPopupMenu@@UAEPAXPBD@Z 0041ba38     qt-mt323:qt-mt323.dll
 0002:00000a3c       __imp_?className@QPopupMenu@@UBEPBDXZ 0041ba3c     qt-mt323:qt-mt323.dll
 0002:00000a40       __imp_?metaObject@QPopupMenu@@UBEPAVQMetaObject@@XZ 0041ba40     qt-mt323:qt-mt323.dll
 0002:00000a44       __imp_?menuDelPopup@QMenuBar@@EAEXPAVQPopupMenu@@@Z 0041ba44     qt-mt323:qt-mt323.dll
 0002:00000a48       __imp_?menuInsPopup@QMenuBar@@EAEXPAVQPopupMenu@@@Z 0041ba48     qt-mt323:qt-mt323.dll
 0002:00000a4c       __imp_?menuStateChanged@QMenuBar@@MAEXXZ 0041ba4c     qt-mt323:qt-mt323.dll
 0002:00000a50       __imp_?menuContentsChanged@QMenuBar@@MAEXXZ 0041ba50     qt-mt323:qt-mt323.dll
 0002:00000a54       __imp_?activateItemAt@QMenuBar@@UAEXH@Z 0041ba54     qt-mt323:qt-mt323.dll
 0002:00000a58       __imp_?setId@QMenuData@@UAEXHH@Z 0041ba58     qt-mt323:qt-mt323.dll
 0002:00000a5c       __imp_?updateItem@QMenuBar@@UAEXH@Z 0041ba5c     qt-mt323:qt-mt323.dll
 0002:00000a60       __imp_?setSeparator@QMenuBar@@UAEXW4Separator@1@@Z 0041ba60     qt-mt323:qt-mt323.dll
 0002:00000a64       __imp_?frameChanged@QMenuBar@@EAEXXZ 0041ba64     qt-mt323:qt-mt323.dll
 0002:00000a68       __imp_?drawContents@QMenuBar@@MAEXPAVQPainter@@@Z 0041ba68     qt-mt323:qt-mt323.dll
 0002:00000a6c       __imp_?fontChange@QMenuBar@@MAEXABVQFont@@@Z 0041ba6c     qt-mt323:qt-mt323.dll
 0002:00000a70       __imp_?styleChange@QMenuBar@@MAEXAAVQStyle@@@Z 0041ba70     qt-mt323:qt-mt323.dll
 0002:00000a74       __imp_?resizeEvent@QMenuBar@@MAEXPAVQResizeEvent@@@Z 0041ba74     qt-mt323:qt-mt323.dll
 0002:00000a78       __imp_?leaveEvent@QMenuBar@@MAEXPAVQEvent@@@Z 0041ba78     qt-mt323:qt-mt323.dll
 0002:00000a7c       __imp_?focusOutEvent@QMenuBar@@MAEXPAVQFocusEvent@@@Z 0041ba7c     qt-mt323:qt-mt323.dll
 0002:00000a80       __imp_?focusInEvent@QMenuBar@@MAEXPAVQFocusEvent@@@Z 0041ba80     qt-mt323:qt-mt323.dll
 0002:00000a84       __imp_?keyPressEvent@QMenuBar@@MAEXPAVQKeyEvent@@@Z 0041ba84     qt-mt323:qt-mt323.dll
 0002:00000a88       __imp_?mouseMoveEvent@QMenuBar@@MAEXPAVQMouseEvent@@@Z 0041ba88     qt-mt323:qt-mt323.dll
 0002:00000a8c       __imp_?mouseReleaseEvent@QMenuBar@@MAEXPAVQMouseEvent@@@Z 0041ba8c     qt-mt323:qt-mt323.dll
 0002:00000a90       __imp_?mousePressEvent@QMenuBar@@MAEXPAVQMouseEvent@@@Z 0041ba90     qt-mt323:qt-mt323.dll
 0002:00000a94       __imp_?customWhatsThis@QMenuBar@@UBE_NXZ 0041ba94     qt-mt323:qt-mt323.dll
 0002:00000a98       __imp_?heightForWidth@QMenuBar@@UBEHH@Z 0041ba98     qt-mt323:qt-mt323.dll
 0002:00000a9c       __imp_?minimumSizeHint@QMenuBar@@UBE?AVQSize@@XZ 0041ba9c     qt-mt323:qt-mt323.dll
 0002:00000aa0       __imp_?sizeHint@QMenuBar@@UBE?AVQSize@@XZ 0041baa0     qt-mt323:qt-mt323.dll
 0002:00000aa4       __imp_?hide@QMenuBar@@UAEXXZ 0041baa4     qt-mt323:qt-mt323.dll
 0002:00000aa8       __imp_?show@QMenuBar@@UAEXXZ 0041baa8     qt-mt323:qt-mt323.dll
 0002:00000aac       __imp_?eventFilter@QMenuBar@@UAE_NPAVQObject@@PAVQEvent@@@Z 0041baac     qt-mt323:qt-mt323.dll
 0002:00000ab0       __imp_?qt_property@QMenuBar@@UAE_NHHPAVQVariant@@@Z 0041bab0     qt-mt323:qt-mt323.dll
 0002:00000ab4       __imp_?qt_emit@QMenuBar@@UAE_NHPAUQUObject@@@Z 0041bab4     qt-mt323:qt-mt323.dll
 0002:00000ab8       __imp_?qt_invoke@QMenuBar@@UAE_NHPAUQUObject@@@Z 0041bab8     qt-mt323:qt-mt323.dll
 0002:00000abc       __imp_?qt_cast@QMenuBar@@UAEPAXPBD@Z 0041babc     qt-mt323:qt-mt323.dll
 0002:00000ac0       __imp_?className@QMenuBar@@UBEPBDXZ 0041bac0     qt-mt323:qt-mt323.dll
 0002:00000ac4       __imp_?metaObject@QMenuBar@@UBEPAVQMetaObject@@XZ 0041bac4     qt-mt323:qt-mt323.dll
 0002:00000ac8       __imp_?qt_property@QWidget@@UAE_NHHPAVQVariant@@@Z 0041bac8     qt-mt323:qt-mt323.dll
 0002:00000acc       __imp_?qt_emit@QWidget@@UAE_NHPAUQUObject@@@Z 0041bacc     qt-mt323:qt-mt323.dll
 0002:00000ad0       __imp_?qt_invoke@QWidget@@UAE_NHPAUQUObject@@@Z 0041bad0     qt-mt323:qt-mt323.dll
 0002:00000ad4       __imp_?qt_cast@QWidget@@UAEPAXPBD@Z 0041bad4     qt-mt323:qt-mt323.dll
 0002:00000ad8       __imp_?className@QWidget@@UBEPBDXZ 0041bad8     qt-mt323:qt-mt323.dll
 0002:00000adc       __imp_?metaObject@QWidget@@UBEPAVQMetaObject@@XZ 0041badc     qt-mt323:qt-mt323.dll
 0002:00000ae0       __imp_?setAlignment@QGroupBox@@UAEXH@Z 0041bae0     qt-mt323:qt-mt323.dll
 0002:00000ae4       __imp_?setTitle@QGroupBox@@UAEXABVQString@@@Z 0041bae4     qt-mt323:qt-mt323.dll
 0002:00000ae8       __imp_?setColumnLayout@QGroupBox@@UAEXHW4Orientation@Qt@@@Z 0041bae8     qt-mt323:qt-mt323.dll
 0002:00000aec       __imp_?drawContents@QFrame@@MAEXPAVQPainter@@@Z 0041baec     qt-mt323:qt-mt323.dll
 0002:00000af0       __imp_?fontChange@QGroupBox@@MAEXABVQFont@@@Z 0041baf0     qt-mt323:qt-mt323.dll
 0002:00000af4       __imp_?resizeEvent@QGroupBox@@MAEXPAVQResizeEvent@@@Z 0041baf4     qt-mt323:qt-mt323.dll
 0002:00000af8       __imp_?paintEvent@QGroupBox@@MAEXPAVQPaintEvent@@@Z 0041baf8     qt-mt323:qt-mt323.dll
 0002:00000afc       __imp_?focusInEvent@QGroupBox@@MAEXPAVQFocusEvent@@@Z 0041bafc     qt-mt323:qt-mt323.dll
 0002:00000b00       __imp_?sizeHint@QGroupBox@@UBE?AVQSize@@XZ 0041bb00     qt-mt323:qt-mt323.dll
 0002:00000b04       __imp_?setEnabled@QGroupBox@@UAEX_N@Z 0041bb04     qt-mt323:qt-mt323.dll
 0002:00000b08       __imp_?childEvent@QGroupBox@@MAEXPAVQChildEvent@@@Z 0041bb08     qt-mt323:qt-mt323.dll
 0002:00000b0c       __imp_?event@QGroupBox@@MAE_NPAVQEvent@@@Z 0041bb0c     qt-mt323:qt-mt323.dll
 0002:00000b10       __imp_?qt_property@QGroupBox@@UAE_NHHPAVQVariant@@@Z 0041bb10     qt-mt323:qt-mt323.dll
 0002:00000b14       __imp_?qt_emit@QGroupBox@@UAE_NHPAUQUObject@@@Z 0041bb14     qt-mt323:qt-mt323.dll
 0002:00000b18       __imp_?qt_invoke@QGroupBox@@UAE_NHPAUQUObject@@@Z 0041bb18     qt-mt323:qt-mt323.dll
 0002:00000b1c       __imp_?qt_cast@QGroupBox@@UAEPAXPBD@Z 0041bb1c     qt-mt323:qt-mt323.dll
 0002:00000b20       __imp_?className@QGroupBox@@UBEPBDXZ 0041bb20     qt-mt323:qt-mt323.dll
 0002:00000b24       __imp_?metaObject@QGroupBox@@UBEPAVQMetaObject@@XZ 0041bb24     qt-mt323:qt-mt323.dll
 0002:00000b28       __imp_?setEnabled@QAction@@UAEX_N@Z 0041bb28     qt-mt323:qt-mt323.dll
 0002:00000b2c       __imp_?setOn@QAction@@UAEX_N@Z 0041bb2c     qt-mt323:qt-mt323.dll
 0002:00000b30       __imp_?addedTo@QAction@@MAEXPAVQWidget@@0@Z 0041bb30     qt-mt323:qt-mt323.dll
 0002:00000b34       __imp_?addedTo@QAction@@MAEXHPAVQPopupMenu@@@Z 0041bb34     qt-mt323:qt-mt323.dll
 0002:00000b38       __imp_?removeFrom@QAction@@UAE_NPAVQWidget@@@Z 0041bb38     qt-mt323:qt-mt323.dll
 0002:00000b3c       __imp_?addTo@QAction@@UAE_NPAVQWidget@@@Z 0041bb3c     qt-mt323:qt-mt323.dll
 0002:00000b40       __imp_?setToggleAction@QAction@@UAEX_N@Z 0041bb40     qt-mt323:qt-mt323.dll
 0002:00000b44       __imp_?setAccel@QAction@@UAEXABVQKeySequence@@@Z 0041bb44     qt-mt323:qt-mt323.dll
 0002:00000b48       __imp_?setWhatsThis@QAction@@UAEXABVQString@@@Z 0041bb48     qt-mt323:qt-mt323.dll
 0002:00000b4c       __imp_?setStatusTip@QAction@@UAEXABVQString@@@Z 0041bb4c     qt-mt323:qt-mt323.dll
 0002:00000b50       __imp_?setToolTip@QAction@@UAEXABVQString@@@Z 0041bb50     qt-mt323:qt-mt323.dll
 0002:00000b54       __imp_?setMenuText@QAction@@UAEXABVQString@@@Z 0041bb54     qt-mt323:qt-mt323.dll
 0002:00000b58       __imp_?setText@QAction@@UAEXABVQString@@@Z 0041bb58     qt-mt323:qt-mt323.dll
 0002:00000b5c       __imp_?setIconSet@QAction@@UAEXABVQIconSet@@@Z 0041bb5c     qt-mt323:qt-mt323.dll
 0002:00000b60       __imp_?qt_property@QAction@@UAE_NHHPAVQVariant@@@Z 0041bb60     qt-mt323:qt-mt323.dll
 0002:00000b64       __imp_?qt_emit@QAction@@UAE_NHPAUQUObject@@@Z 0041bb64     qt-mt323:qt-mt323.dll
 0002:00000b68       __imp_?qt_invoke@QAction@@UAE_NHPAUQUObject@@@Z 0041bb68     qt-mt323:qt-mt323.dll
 0002:00000b6c       __imp_?qt_cast@QAction@@UAEPAXPBD@Z 0041bb6c     qt-mt323:qt-mt323.dll
 0002:00000b70       __imp_?className@QAction@@UBEPBDXZ 0041bb70     qt-mt323:qt-mt323.dll
 0002:00000b74       __imp_?metaObject@QAction@@UBEPAVQMetaObject@@XZ 0041bb74     qt-mt323:qt-mt323.dll
 0002:00000b78       __imp_??1QMainWindow@@UAE@XZ 0041bb78     qt-mt323:qt-mt323.dll
 0002:00000b7c       __imp_?insertItem@QMenuData@@QAEHABVQString@@PAVQPopupMenu@@HH@Z 0041bb7c     qt-mt323:qt-mt323.dll
 0002:00000b80       __imp_??0QMenuBar@@QAE@PAVQWidget@@PBD@Z 0041bb80     qt-mt323:qt-mt323.dll
 0002:00000b84       __imp_??0QAction@@QAE@PAVQObject@@PBD@Z 0041bb84     qt-mt323:qt-mt323.dll
 0002:00000b88       __imp_??0QHBoxLayout@@QAE@PAVQLayout@@HPBD@Z 0041bb88     qt-mt323:qt-mt323.dll
 0002:00000b8c       __imp_??0QVBoxLayout@@QAE@PAVQLayout@@HPBD@Z 0041bb8c     qt-mt323:qt-mt323.dll
 0002:00000b90       __imp_??0QGroupBox@@QAE@PAVQWidget@@PBD@Z 0041bb90     qt-mt323:qt-mt323.dll
 0002:00000b94       __imp_?centralWidget@QMainWindow@@QBEPAVQWidget@@XZ 0041bb94     qt-mt323:qt-mt323.dll
 0002:00000b98       __imp_?statusBar@QMainWindow@@QBEPAVQStatusBar@@XZ 0041bb98     qt-mt323:qt-mt323.dll
 0002:00000b9c       __imp_??0QMainWindow@@QAE@PAVQWidget@@PBDI@Z 0041bb9c     qt-mt323:qt-mt323.dll
 0002:00000ba0       __imp_??1QGroupBox@@UAE@XZ 0041bba0     qt-mt323:qt-mt323.dll
 0002:00000ba4       __imp_??1QAction@@UAE@XZ   0041bba4     qt-mt323:qt-mt323.dll
 0002:00000ba8       __imp_??1QMenuBar@@UAE@XZ  0041bba8     qt-mt323:qt-mt323.dll
 0002:00000bac       __imp_?findItem@QMenuData@@QBEPAVQMenuItem@@H@Z 0041bbac     qt-mt323:qt-mt323.dll
 0002:00000bb0       __imp_?paintEmptyArea@QListView@@MAEXPAVQPainter@@ABVQRect@@@Z 0041bbb0     qt-mt323:qt-mt323.dll
 0002:00000bb4       __imp_?startDrag@QListView@@MAEXXZ 0041bbb4     qt-mt323:qt-mt323.dll
 0002:00000bb8       __imp_?dragObject@QListView@@MAEPAVQDragObject@@XZ 0041bbb8     qt-mt323:qt-mt323.dll
 0002:00000bbc       __imp_?selectAll@QListView@@UAEX_N@Z 0041bbbc     qt-mt323:qt-mt323.dll
 0002:00000bc0       __imp_?invertSelection@QListView@@UAEXXZ 0041bbc0     qt-mt323:qt-mt323.dll
 0002:00000bc4       __imp_?clear@QListView@@UAEXXZ 0041bbc4     qt-mt323:qt-mt323.dll
 0002:00000bc8       __imp_?setDefaultRenameAction@QListView@@UAEXW4RenameAction@1@@Z 0041bbc8     qt-mt323:qt-mt323.dll
 0002:00000bcc       __imp_?setResizeMode@QListView@@UAEXW4ResizeMode@1@@Z 0041bbcc     qt-mt323:qt-mt323.dll
 0002:00000bd0       __imp_?setShowToolTips@QListView@@UAEX_N@Z 0041bbd0     qt-mt323:qt-mt323.dll
 0002:00000bd4       __imp_?setShowSortIndicator@QListView@@UAEX_N@Z 0041bbd4     qt-mt323:qt-mt323.dll
 0002:00000bd8       __imp_?sort@QListView@@UAEXXZ 0041bbd8     qt-mt323:qt-mt323.dll
 0002:00000bdc       __imp_?setSorting@QListView@@UAEXH_N@Z 0041bbdc     qt-mt323:qt-mt323.dll
 0002:00000be0       __imp_?setRootIsDecorated@QListView@@UAEX_N@Z 0041bbe0     qt-mt323:qt-mt323.dll
 0002:00000be4       __imp_?setItemMargin@QListView@@UAEXH@Z 0041bbe4     qt-mt323:qt-mt323.dll
 0002:00000be8       __imp_?setAllColumnsShowFocus@QListView@@UAEX_N@Z 0041bbe8     qt-mt323:qt-mt323.dll
 0002:00000bec       __imp_?setCurrentItem@QListView@@UAEXPAVQListViewItem@@@Z 0041bbec     qt-mt323:qt-mt323.dll
 0002:00000bf0       __imp_?setOpen@QListView@@UAEXPAVQListViewItem@@_N@Z 0041bbf0     qt-mt323:qt-mt323.dll
 0002:00000bf4       __imp_?setSelected@QListView@@UAEXPAVQListViewItem@@_N@Z 0041bbf4     qt-mt323:qt-mt323.dll
 0002:00000bf8       __imp_?clearSelection@QListView@@UAEXXZ 0041bbf8     qt-mt323:qt-mt323.dll
 0002:00000bfc       __imp_?setMultiSelection@QListView@@UAEX_N@Z 0041bbfc     qt-mt323:qt-mt323.dll
 0002:00000c00       __imp_?setColumnAlignment@QListView@@UAEXHH@Z 0041bc00     qt-mt323:qt-mt323.dll
 0002:00000c04       __imp_?setColumnWidthMode@QListView@@UAEXHW4WidthMode@1@@Z 0041bc04     qt-mt323:qt-mt323.dll
 0002:00000c08       __imp_?setColumnWidth@QListView@@UAEXHH@Z 0041bc08     qt-mt323:qt-mt323.dll
 0002:00000c0c       __imp_?setColumnText@QListView@@UAEXHABVQString@@@Z 0041bc0c     qt-mt323:qt-mt323.dll
 0002:00000c10       __imp_?setColumnText@QListView@@UAEXHABVQIconSet@@ABVQString@@@Z 0041bc10     qt-mt323:qt-mt323.dll
 0002:00000c14       __imp_?removeColumn@QListView@@UAEXH@Z 0041bc14     qt-mt323:qt-mt323.dll
 0002:00000c18       __imp_?addColumn@QListView@@UAEHABVQString@@H@Z 0041bc18     qt-mt323:qt-mt323.dll
 0002:00000c1c       __imp_?addColumn@QListView@@UAEHABVQIconSet@@ABVQString@@H@Z 0041bc1c     qt-mt323:qt-mt323.dll
 0002:00000c20       __imp_?removeItem@QListView@@UAEXPAVQListViewItem@@@Z 0041bc20     qt-mt323:qt-mt323.dll
 0002:00000c24       __imp_?takeItem@QListView@@UAEXPAVQListViewItem@@@Z 0041bc24     qt-mt323:qt-mt323.dll
 0002:00000c28       __imp_?insertItem@QListView@@UAEXPAVQListViewItem@@@Z 0041bc28     qt-mt323:qt-mt323.dll
 0002:00000c2c       __imp_?setTreeStepSize@QListView@@UAEXH@Z 0041bc2c     qt-mt323:qt-mt323.dll
 0002:00000c30       __imp_?setVBarGeometry@QScrollView@@MAEXAAVQScrollBar@@HHHH@Z 0041bc30     qt-mt323:qt-mt323.dll
 0002:00000c34       __imp_?setHBarGeometry@QScrollView@@MAEXAAVQScrollBar@@HHHH@Z 0041bc34     qt-mt323:qt-mt323.dll
 0002:00000c38       __imp_?setMargins@QScrollView@@MAEXHHHH@Z 0041bc38     qt-mt323:qt-mt323.dll
 0002:00000c3c       __imp_?viewportContextMenuEvent@QScrollView@@MAEXPAVQContextMenuEvent@@@Z 0041bc3c     qt-mt323:qt-mt323.dll
 0002:00000c40       __imp_?viewportWheelEvent@QScrollView@@MAEXPAVQWheelEvent@@@Z 0041bc40     qt-mt323:qt-mt323.dll
 0002:00000c44       __imp_?viewportDropEvent@QScrollView@@MAEXPAVQDropEvent@@@Z 0041bc44     qt-mt323:qt-mt323.dll
 0002:00000c48       __imp_?viewportDragLeaveEvent@QScrollView@@MAEXPAVQDragLeaveEvent@@@Z 0041bc48     qt-mt323:qt-mt323.dll
 0002:00000c4c       __imp_?viewportDragMoveEvent@QScrollView@@MAEXPAVQDragMoveEvent@@@Z 0041bc4c     qt-mt323:qt-mt323.dll
 0002:00000c50       __imp_?viewportDragEnterEvent@QScrollView@@MAEXPAVQDragEnterEvent@@@Z 0041bc50     qt-mt323:qt-mt323.dll
 0002:00000c54       __imp_?viewportMouseMoveEvent@QScrollView@@MAEXPAVQMouseEvent@@@Z 0041bc54     qt-mt323:qt-mt323.dll
 0002:00000c58       __imp_?viewportMouseDoubleClickEvent@QScrollView@@MAEXPAVQMouseEvent@@@Z 0041bc58     qt-mt323:qt-mt323.dll
 0002:00000c5c       __imp_?viewportMouseReleaseEvent@QScrollView@@MAEXPAVQMouseEvent@@@Z 0041bc5c     qt-mt323:qt-mt323.dll
 0002:00000c60       __imp_?viewportMousePressEvent@QScrollView@@MAEXPAVQMouseEvent@@@Z 0041bc60     qt-mt323:qt-mt323.dll
 0002:00000c64       __imp_?viewportResizeEvent@QListView@@MAEXPAVQResizeEvent@@@Z 0041bc64     qt-mt323:qt-mt323.dll
 0002:00000c68       __imp_?viewportPaintEvent@QScrollView@@MAEXPAVQPaintEvent@@@Z 0041bc68     qt-mt323:qt-mt323.dll
 0002:00000c6c       __imp_?contentsContextMenuEvent@QListView@@MAEXPAVQContextMenuEvent@@@Z 0041bc6c     qt-mt323:qt-mt323.dll
 0002:00000c70       __imp_?contentsWheelEvent@QScrollView@@MAEXPAVQWheelEvent@@@Z 0041bc70     qt-mt323:qt-mt323.dll
 0002:00000c74       __imp_?contentsDropEvent@QListView@@MAEXPAVQDropEvent@@@Z 0041bc74     qt-mt323:qt-mt323.dll
 0002:00000c78       __imp_?contentsDragLeaveEvent@QListView@@MAEXPAVQDragLeaveEvent@@@Z 0041bc78     qt-mt323:qt-mt323.dll
 0002:00000c7c       __imp_?contentsDragMoveEvent@QListView@@MAEXPAVQDragMoveEvent@@@Z 0041bc7c     qt-mt323:qt-mt323.dll
 0002:00000c80       __imp_?contentsDragEnterEvent@QListView@@MAEXPAVQDragEnterEvent@@@Z 0041bc80     qt-mt323:qt-mt323.dll
 0002:00000c84       __imp_?contentsMouseMoveEvent@QListView@@MAEXPAVQMouseEvent@@@Z 0041bc84     qt-mt323:qt-mt323.dll
 0002:00000c88       __imp_?contentsMouseDoubleClickEvent@QListView@@MAEXPAVQMouseEvent@@@Z 0041bc88     qt-mt323:qt-mt323.dll
 0002:00000c8c       __imp_?contentsMouseReleaseEvent@QListView@@MAEXPAVQMouseEvent@@@Z 0041bc8c     qt-mt323:qt-mt323.dll
 0002:00000c90       __imp_?contentsMousePressEvent@QListView@@MAEXPAVQMouseEvent@@@Z 0041bc90     qt-mt323:qt-mt323.dll
 0002:00000c94       __imp_?drawContentsOffset@QListView@@MAEXPAVQPainter@@HHHHHH@Z 0041bc94     qt-mt323:qt-mt323.dll
 0002:00000c98       __imp_?drawContents@QScrollView@@MAEXPAVQPainter@@HHHH@Z 0041bc98     qt-mt323:qt-mt323.dll
 0002:00000c9c       __imp_?setContentsPos@QListView@@UAEXHH@Z 0041bc9c     qt-mt323:qt-mt323.dll
 0002:00000ca0       __imp_?resizeContents@QScrollView@@UAEXHH@Z 0041bca0     qt-mt323:qt-mt323.dll
 0002:00000ca4       __imp_?setDragAutoScroll@QScrollView@@UAEX_N@Z 0041bca4     qt-mt323:qt-mt323.dll
 0002:00000ca8       __imp_?setCornerWidget@QScrollView@@UAEXPAVQWidget@@@Z 0041bca8     qt-mt323:qt-mt323.dll
 0002:00000cac       __imp_?setHScrollBarMode@QScrollView@@UAEXW4ScrollBarMode@1@@Z 0041bcac     qt-mt323:qt-mt323.dll
 0002:00000cb0       __imp_?setVScrollBarMode@QScrollView@@UAEXW4ScrollBarMode@1@@Z 0041bcb0     qt-mt323:qt-mt323.dll
 0002:00000cb4       __imp_?moveChild@QScrollView@@UAEXPAVQWidget@@HH@Z 0041bcb4     qt-mt323:qt-mt323.dll
 0002:00000cb8       __imp_?addChild@QScrollView@@UAEXPAVQWidget@@HH@Z 0041bcb8     qt-mt323:qt-mt323.dll
 0002:00000cbc       __imp_?setResizePolicy@QScrollView@@UAEXW4ResizePolicy@1@@Z 0041bcbc     qt-mt323:qt-mt323.dll
 0002:00000cc0       __imp_?frameChanged@QScrollView@@MAEXXZ 0041bcc0     qt-mt323:qt-mt323.dll
 0002:00000cc4       __imp_?drawContents@QScrollView@@EAEXPAVQPainter@@@Z 0041bcc4     qt-mt323:qt-mt323.dll
 0002:00000cc8       __imp_?focusNextPrevChild@QScrollView@@MAE_N_N@Z 0041bcc8     qt-mt323:qt-mt323.dll
 0002:00000ccc       __imp_?windowActivationChange@QListView@@MAEX_N@Z 0041bccc     qt-mt323:qt-mt323.dll
 0002:00000cd0       __imp_?fontChange@QScrollView@@MAEXABVQFont@@@Z 0041bcd0     qt-mt323:qt-mt323.dll
 0002:00000cd4       __imp_?styleChange@QListView@@MAEXAAVQStyle@@@Z 0041bcd4     qt-mt323:qt-mt323.dll
 0002:00000cd8       __imp_?showEvent@QListView@@MAEXPAVQShowEvent@@@Z 0041bcd8     qt-mt323:qt-mt323.dll
 0002:00000cdc       __imp_?contextMenuEvent@QScrollView@@MAEXPAVQContextMenuEvent@@@Z 0041bcdc     qt-mt323:qt-mt323.dll
 0002:00000ce0       __imp_?resizeEvent@QListView@@MAEXPAVQResizeEvent@@@Z 0041bce0     qt-mt323:qt-mt323.dll
 0002:00000ce4       __imp_?focusOutEvent@QListView@@MAEXPAVQFocusEvent@@@Z 0041bce4     qt-mt323:qt-mt323.dll
 0002:00000ce8       __imp_?focusInEvent@QListView@@MAEXPAVQFocusEvent@@@Z 0041bce8     qt-mt323:qt-mt323.dll
 0002:00000cec       __imp_?keyPressEvent@QListView@@MAEXPAVQKeyEvent@@@Z 0041bcec     qt-mt323:qt-mt323.dll
 0002:00000cf0       __imp_?wheelEvent@QScrollView@@MAEXPAVQWheelEvent@@@Z 0041bcf0     qt-mt323:qt-mt323.dll
 0002:00000cf4       __imp_?mouseMoveEvent@QScrollView@@MAEXPAVQMouseEvent@@@Z 0041bcf4     qt-mt323:qt-mt323.dll
 0002:00000cf8       __imp_?mouseDoubleClickEvent@QScrollView@@MAEXPAVQMouseEvent@@@Z 0041bcf8     qt-mt323:qt-mt323.dll
 0002:00000cfc       __imp_?mouseReleaseEvent@QScrollView@@MAEXPAVQMouseEvent@@@Z 0041bcfc     qt-mt323:qt-mt323.dll
 0002:00000d00       __imp_?mousePressEvent@QScrollView@@MAEXPAVQMouseEvent@@@Z 0041bd00     qt-mt323:qt-mt323.dll
 0002:00000d04       __imp_?minimumSizeHint@QListView@@UBE?AVQSize@@XZ 0041bd04     qt-mt323:qt-mt323.dll
 0002:00000d08       __imp_?sizeHint@QListView@@UBE?AVQSize@@XZ 0041bd08     qt-mt323:qt-mt323.dll
 0002:00000d0c       __imp_?resize@QScrollView@@UAEXHH@Z 0041bd0c     qt-mt323:qt-mt323.dll
 0002:00000d10       __imp_?show@QListView@@UAEXXZ 0041bd10     qt-mt323:qt-mt323.dll
 0002:00000d14       __imp_?setFont@QListView@@UAEXABVQFont@@@Z 0041bd14     qt-mt323:qt-mt323.dll
 0002:00000d18       __imp_?setPalette@QListView@@UAEXABVQPalette@@@Z 0041bd18     qt-mt323:qt-mt323.dll
 0002:00000d1c       __imp_?setEnabled@QScrollView@@UAEX_N@Z 0041bd1c     qt-mt323:qt-mt323.dll
 0002:00000d20       __imp_?removeChild@QScrollView@@UAEXPAVQObject@@@Z 0041bd20     qt-mt323:qt-mt323.dll
 0002:00000d24       __imp_?eventFilter@QListView@@UAE_NPAVQObject@@PAVQEvent@@@Z 0041bd24     qt-mt323:qt-mt323.dll
 0002:00000d28       __imp_?qt_property@QListView@@UAE_NHHPAVQVariant@@@Z 0041bd28     qt-mt323:qt-mt323.dll
 0002:00000d2c       __imp_?qt_emit@QListView@@UAE_NHPAUQUObject@@@Z 0041bd2c     qt-mt323:qt-mt323.dll
 0002:00000d30       __imp_?qt_invoke@QListView@@UAE_NHPAUQUObject@@@Z 0041bd30     qt-mt323:qt-mt323.dll
 0002:00000d34       __imp_?qt_cast@QListView@@UAEPAXPBD@Z 0041bd34     qt-mt323:qt-mt323.dll
 0002:00000d38       __imp_?className@QListView@@UBEPBDXZ 0041bd38     qt-mt323:qt-mt323.dll
 0002:00000d3c       __imp_?metaObject@QListView@@UBEPAVQMetaObject@@XZ 0041bd3c     qt-mt323:qt-mt323.dll
 0002:00000d40       __imp_??1QFont@@QAE@XZ     0041bd40     qt-mt323:qt-mt323.dll
 0002:00000d44       __imp_?setPointSize@QFont@@QAEXH@Z 0041bd44     qt-mt323:qt-mt323.dll
 0002:00000d48       __imp_?font@QWidget@@QBE?AVQFont@@XZ 0041bd48     qt-mt323:qt-mt323.dll
 0002:00000d4c       __imp_?setSelectionMode@QListView@@QAEXW4SelectionMode@1@@Z 0041bd4c     qt-mt323:qt-mt323.dll
 0002:00000d50       __imp_??0QListView@@QAE@PAVQWidget@@PBDI@Z 0041bd50     qt-mt323:qt-mt323.dll
 0002:00000d54       __imp_??1QListView@@UAE@XZ 0041bd54     qt-mt323:qt-mt323.dll
 0002:00000d58       __imp_?header@QListView@@QBEPAVQHeader@@XZ 0041bd58     qt-mt323:qt-mt323.dll
 0002:00000d5c       __imp_?paintCell@QListBox@@MAEXPAVQPainter@@HH@Z 0041bd5c     qt-mt323:qt-mt323.dll
 0002:00000d60       __imp_?invertSelection@QListBox@@UAEXXZ 0041bd60     qt-mt323:qt-mt323.dll
 0002:00000d64       __imp_?selectAll@QListBox@@UAEX_N@Z 0041bd64     qt-mt323:qt-mt323.dll
 0002:00000d68       __imp_?clearSelection@QListBox@@UAEXXZ 0041bd68     qt-mt323:qt-mt323.dll
 0002:00000d6c       __imp_?ensureCurrentVisible@QListBox@@UAEXXZ 0041bd6c     qt-mt323:qt-mt323.dll
 0002:00000d70       __imp_?setVariableHeight@QListBox@@UAEX_N@Z 0041bd70     qt-mt323:qt-mt323.dll
 0002:00000d74       __imp_?setVariableWidth@QListBox@@UAEX_N@Z 0041bd74     qt-mt323:qt-mt323.dll
 0002:00000d78       __imp_?setRowMode@QListBox@@UAEXW4LayoutMode@1@@Z 0041bd78     qt-mt323:qt-mt323.dll
 0002:00000d7c       __imp_?setRowMode@QListBox@@UAEXH@Z 0041bd7c     qt-mt323:qt-mt323.dll
 0002:00000d80       __imp_?setColumnMode@QListBox@@UAEXW4LayoutMode@1@@Z 0041bd80     qt-mt323:qt-mt323.dll
 0002:00000d84       __imp_?setColumnMode@QListBox@@UAEXH@Z 0041bd84     qt-mt323:qt-mt323.dll
 0002:00000d88       __imp_?setSelected@QListBox@@UAEXPAVQListBoxItem@@_N@Z 0041bd88     qt-mt323:qt-mt323.dll
 0002:00000d8c       __imp_?setSelectionMode@QListBox@@UAEXW4SelectionMode@1@@Z 0041bd8c     qt-mt323:qt-mt323.dll
 0002:00000d90       __imp_?setBottomItem@QListBox@@UAEXH@Z 0041bd90     qt-mt323:qt-mt323.dll
 0002:00000d94       __imp_?setTopItem@QListBox@@UAEXH@Z 0041bd94     qt-mt323:qt-mt323.dll
 0002:00000d98       __imp_?setCurrentItem@QListBox@@UAEXH@Z 0041bd98     qt-mt323:qt-mt323.dll
 0002:00000d9c       __imp_?setCurrentItem@QListBox@@UAEXPAVQListBoxItem@@@Z 0041bd9c     qt-mt323:qt-mt323.dll
 0002:00000da0       __imp_?viewportResizeEvent@QScrollView@@MAEXPAVQResizeEvent@@@Z 0041bda0     qt-mt323:qt-mt323.dll
 0002:00000da4       __imp_?viewportPaintEvent@QListBox@@UAEXPAVQPaintEvent@@@Z 0041bda4     qt-mt323:qt-mt323.dll
 0002:00000da8       __imp_?contentsContextMenuEvent@QListBox@@MAEXPAVQContextMenuEvent@@@Z 0041bda8     qt-mt323:qt-mt323.dll
 0002:00000dac       __imp_?contentsDropEvent@QScrollView@@MAEXPAVQDropEvent@@@Z 0041bdac     qt-mt323:qt-mt323.dll
 0002:00000db0       __imp_?contentsDragLeaveEvent@QScrollView@@MAEXPAVQDragLeaveEvent@@@Z 0041bdb0     qt-mt323:qt-mt323.dll
 0002:00000db4       __imp_?contentsDragMoveEvent@QScrollView@@MAEXPAVQDragMoveEvent@@@Z 0041bdb4     qt-mt323:qt-mt323.dll
 0002:00000db8       __imp_?contentsDragEnterEvent@QScrollView@@MAEXPAVQDragEnterEvent@@@Z 0041bdb8     qt-mt323:qt-mt323.dll
 0002:00000dbc       __imp_?contentsMouseMoveEvent@QScrollView@@MAEXPAVQMouseEvent@@@Z 0041bdbc     qt-mt323:qt-mt323.dll
 0002:00000dc0       __imp_?contentsMouseDoubleClickEvent@QScrollView@@MAEXPAVQMouseEvent@@@Z 0041bdc0     qt-mt323:qt-mt323.dll
 0002:00000dc4       __imp_?contentsMouseReleaseEvent@QScrollView@@MAEXPAVQMouseEvent@@@Z 0041bdc4     qt-mt323:qt-mt323.dll
 0002:00000dc8       __imp_?contentsMousePressEvent@QScrollView@@MAEXPAVQMouseEvent@@@Z 0041bdc8     qt-mt323:qt-mt323.dll
 0002:00000dcc       __imp_?drawContentsOffset@QScrollView@@MAEXPAVQPainter@@HHHHHH@Z 0041bdcc     qt-mt323:qt-mt323.dll
 0002:00000dd0       __imp_?setContentsPos@QScrollView@@UAEXHH@Z 0041bdd0     qt-mt323:qt-mt323.dll
 0002:00000dd4       __imp_?windowActivationChange@QListBox@@MAEX_N@Z 0041bdd4     qt-mt323:qt-mt323.dll
 0002:00000dd8       __imp_?styleChange@QScrollView@@UAEXAAVQStyle@@@Z 0041bdd8     qt-mt323:qt-mt323.dll
 0002:00000ddc       __imp_?showEvent@QListBox@@MAEXPAVQShowEvent@@@Z 0041bddc     qt-mt323:qt-mt323.dll
 0002:00000de0       __imp_?resizeEvent@QListBox@@MAEXPAVQResizeEvent@@@Z 0041bde0     qt-mt323:qt-mt323.dll
 0002:00000de4       __imp_?focusOutEvent@QListBox@@MAEXPAVQFocusEvent@@@Z 0041bde4     qt-mt323:qt-mt323.dll
 0002:00000de8       __imp_?focusInEvent@QListBox@@MAEXPAVQFocusEvent@@@Z 0041bde8     qt-mt323:qt-mt323.dll
 0002:00000dec       __imp_?keyPressEvent@QListBox@@MAEXPAVQKeyEvent@@@Z 0041bdec     qt-mt323:qt-mt323.dll
 0002:00000df0       __imp_?mouseMoveEvent@QListBox@@MAEXPAVQMouseEvent@@@Z 0041bdf0     qt-mt323:qt-mt323.dll
 0002:00000df4       __imp_?mouseDoubleClickEvent@QListBox@@MAEXPAVQMouseEvent@@@Z 0041bdf4     qt-mt323:qt-mt323.dll
 0002:00000df8       __imp_?mouseReleaseEvent@QListBox@@MAEXPAVQMouseEvent@@@Z 0041bdf8     qt-mt323:qt-mt323.dll
 0002:00000dfc       __imp_?mousePressEvent@QListBox@@MAEXPAVQMouseEvent@@@Z 0041bdfc     qt-mt323:qt-mt323.dll
 0002:00000e00       __imp_?minimumSizeHint@QListBox@@UBE?AVQSize@@XZ 0041be00     qt-mt323:qt-mt323.dll
 0002:00000e04       __imp_?sizeHint@QListBox@@UBE?AVQSize@@XZ 0041be04     qt-mt323:qt-mt323.dll
 0002:00000e08       __imp_?show@QScrollView@@UAEXXZ 0041be08     qt-mt323:qt-mt323.dll
 0002:00000e0c       __imp_?setFont@QListBox@@UAEXABVQFont@@@Z 0041be0c     qt-mt323:qt-mt323.dll
 0002:00000e10       __imp_?eventFilter@QListBox@@MAE_NPAVQObject@@PAVQEvent@@@Z 0041be10     qt-mt323:qt-mt323.dll
 0002:00000e14       __imp_?qt_property@QListBox@@UAE_NHHPAVQVariant@@@Z 0041be14     qt-mt323:qt-mt323.dll
 0002:00000e18       __imp_?qt_emit@QListBox@@UAE_NHPAUQUObject@@@Z 0041be18     qt-mt323:qt-mt323.dll
 0002:00000e1c       __imp_?qt_invoke@QListBox@@UAE_NHPAUQUObject@@@Z 0041be1c     qt-mt323:qt-mt323.dll
 0002:00000e20       __imp_?qt_cast@QListBox@@UAEPAXPBD@Z 0041be20     qt-mt323:qt-mt323.dll
 0002:00000e24       __imp_?className@QListBox@@UBEPBDXZ 0041be24     qt-mt323:qt-mt323.dll
 0002:00000e28       __imp_?metaObject@QListBox@@UBEPAVQMetaObject@@XZ 0041be28     qt-mt323:qt-mt323.dll
 0002:00000e2c       __imp_??0QListBox@@QAE@PAVQWidget@@PBDI@Z 0041be2c     qt-mt323:qt-mt323.dll
 0002:00000e30       __imp_??1QListBox@@UAE@XZ  0041be30     qt-mt323:qt-mt323.dll
 0002:00000e34       __imp_??0QMetaObjectCleanUp@@QAE@PBDP6APAVQMetaObject@@XZ@Z 0041be34     qt-mt323:qt-mt323.dll
 0002:00000e38       __imp_??1QMetaObjectCleanUp@@QAE@XZ 0041be38     qt-mt323:qt-mt323.dll
 0002:00000e3c       __imp_?fromLatin1@QString@@SA?AV1@PBDH@Z 0041be3c     qt-mt323:qt-mt323.dll
 0002:00000e40       __imp_?translate@QApplication@@QBE?AVQString@@PBD00W4Encoding@1@@Z 0041be40     qt-mt323:qt-mt323.dll
 0002:00000e44       __imp_?setMetaObject@QMetaObjectCleanUp@@QAEXAAPAVQMetaObject@@@Z 0041be44     qt-mt323:qt-mt323.dll
 0002:00000e48       __imp_?new_metaobject@QMetaObject@@SAPAV1@PBDPAV1@QBUQMetaData@@H2HQBVQMetaProperty@@HQBUQMetaEnum@@HQBUQClassInfo@@H@Z 0041be48     qt-mt323:qt-mt323.dll
 0002:00000e4c       __imp_?staticMetaObject@QDialog@@SAPAVQMetaObject@@XZ 0041be4c     qt-mt323:qt-mt323.dll
 0002:00000e50       __imp_?qt_cast@QDialog@@UAEPAXPBD@Z 0041be50     qt-mt323:qt-mt323.dll
 0002:00000e54       __imp_?qt_invoke@QDialog@@UAE_NHPAUQUObject@@@Z 0041be54     qt-mt323:qt-mt323.dll
 0002:00000e58       __imp_?qt_emit@QDialog@@UAE_NHPAUQUObject@@@Z 0041be58     qt-mt323:qt-mt323.dll
 0002:00000e5c       __imp_?qt_property@QDialog@@UAE_NHHPAVQVariant@@@Z 0041be5c     qt-mt323:qt-mt323.dll
 0002:00000e60       __imp_?static_QUType_QString@@3UQUType_QString@@A 0041be60     qt-mt323:qt-mt323.dll
 0002:00000e64       __imp_?static_QUType_ptr@@3UQUType_ptr@@A 0041be64     qt-mt323:qt-mt323.dll
 0002:00000e68       __imp_?static_QUType_int@@3UQUType_int@@A 0041be68     qt-mt323:qt-mt323.dll
 0002:00000e6c       __imp_?get@QUType_QString@@QAEAAVQString@@PAUQUObject@@@Z 0041be6c     qt-mt323:qt-mt323.dll
 0002:00000e70       __imp_?staticMetaObject@QMainWindow@@SAPAVQMetaObject@@XZ 0041be70     qt-mt323:qt-mt323.dll
 0002:00000e74       __imp_?qt_cast@QMainWindow@@UAEPAXPBD@Z 0041be74     qt-mt323:qt-mt323.dll
 0002:00000e78       __imp_?qt_invoke@QMainWindow@@UAE_NHPAUQUObject@@@Z 0041be78     qt-mt323:qt-mt323.dll
 0002:00000e7c       __imp_?qt_emit@QMainWindow@@UAE_NHPAUQUObject@@@Z 0041be7c     qt-mt323:qt-mt323.dll
 0002:00000e80       __imp_?qt_property@QMainWindow@@UAE_NHHPAVQVariant@@@Z 0041be80     qt-mt323:qt-mt323.dll
 0002:00000e84       __imp_?static_QUType_varptr@@3UQUType_varptr@@A 0041be84     qt-mt323:qt-mt323.dll
 0002:00000e88       __imp_?static_QUType_bool@@3UQUType_bool@@A 0041be88     qt-mt323:qt-mt323.dll
 0002:00000e8c       __imp_?activate_signal@QObject@@IAEXH@Z 0041be8c     qt-mt323:qt-mt323.dll
 0002:00000e90       __imp_?activate_signal@QObject@@IAEXPAVQConnectionList@@PAUQUObject@@@Z 0041be90     qt-mt323:qt-mt323.dll
 0002:00000e94       __imp_?set@QUType_ptr@@QAEXPAUQUObject@@PBX@Z 0041be94     qt-mt323:qt-mt323.dll
 0002:00000e98       __imp_??0QUObject@@QAE@XZ  0041be98     qt-mt323:qt-mt323.dll
 0002:00000e9c       __imp_??1QUObject@@QAE@XZ  0041be9c     qt-mt323:qt-mt323.dll
 0002:00000ea0       __imp_?receivers@QObject@@IBEPAVQConnectionList@@H@Z 0041bea0     qt-mt323:qt-mt323.dll
 0002:00000ea4       __imp_?staticMetaObject@QWidget@@SAPAVQMetaObject@@XZ 0041bea4     qt-mt323:qt-mt323.dll
 0002:00000ea8       __imp_?staticMetaObject@QObject@@SAPAVQMetaObject@@XZ 0041bea8     qt-mt323:qt-mt323.dll
 0002:00000eac       __imp_?qt_cast@QObject@@UAEPAXPBD@Z 0041beac     qt-mt323:qt-mt323.dll
 0002:00000eb0       __imp_?qt_invoke@QObject@@UAE_NHPAUQUObject@@@Z 0041beb0     qt-mt323:qt-mt323.dll
 0002:00000eb4       __imp_?qt_emit@QObject@@UAE_NHPAUQUObject@@@Z 0041beb4     qt-mt323:qt-mt323.dll
 0002:00000eb8       __imp_?qt_property@QObject@@UAE_NHHPAVQVariant@@@Z 0041beb8     qt-mt323:qt-mt323.dll
 0002:00000ebc       __imp_?activate_signal@QObject@@IAEXHH@Z 0041bebc     qt-mt323:qt-mt323.dll
 0002:00000ec0       __imp_?staticMetaObject@QProcess@@SAPAVQMetaObject@@XZ 0041bec0     qt-mt323:qt-mt323.dll
 0002:00000ec4       __imp_?activate_signal_bool@QObject@@IAEXH_N@Z 0041bec4     qt-mt323:qt-mt323.dll
 0002:00000ec8       __imp_?activate_signal@QObject@@IAEXHVQString@@@Z 0041bec8     qt-mt323:qt-mt323.dll
 0002:00000ecc       __imp_?signalOffset@QMetaObject@@QBEHXZ 0041becc     qt-mt323:qt-mt323.dll
 0002:00000ed0       __imp_?saveState@QApplication@@UAEXAAVQSessionManager@@@Z 0041bed0     qt-mt323:qt-mt323.dll
 0002:00000ed4       __imp_?commitData@QApplication@@UAEXAAVQSessionManager@@@Z 0041bed4     qt-mt323:qt-mt323.dll
 0002:00000ed8       __imp_?notify@QApplication@@UAE_NPAVQObject@@PAVQEvent@@@Z 0041bed8     qt-mt323:qt-mt323.dll
 0002:00000edc       __imp_?polish@QApplication@@UAEXPAVQWidget@@@Z 0041bedc     qt-mt323:qt-mt323.dll
 0002:00000ee0       __imp_?event@QApplication@@MAE_NPAVQEvent@@@Z 0041bee0     qt-mt323:qt-mt323.dll
 0002:00000ee4       __imp_??1QApplication@@UAE@XZ 0041bee4     qt-mt323:qt-mt323.dll
 0002:00000ee8       __imp_??0QApplication@@QAE@AAHPAPADW4Type@0@@Z 0041bee8     qt-mt323:qt-mt323.dll
 0002:00000eec       __imp_?raise@QWidget@@QAEXXZ 0041beec     qt-mt323:qt-mt323.dll
 0002:00000ef0       __imp_??1QCString@@UAE@XZ  0041bef0     qt-mt323:qt-mt323.dll
 0002:00000ef4       __imp_?local8Bit@QString@@QBE?AVQCString@@XZ 0041bef4     qt-mt323:qt-mt323.dll
 0002:00000ef8       __imp_?ucs2@QString@@QBEPBGXZ 0041bef8     qt-mt323:qt-mt323.dll
 0002:00000efc       __imp_?winEventFilter@QApplication@@UAE_NPAUtagMSG@@@Z 0041befc     qt-mt323:qt-mt323.dll
 0002:00000f00       __imp_?fromUcs2@QString@@SA?AV1@PBG@Z 0041bf00     qt-mt323:qt-mt323.dll
 0002:00000f04       __imp_?staticMetaObject@QApplication@@SAPAVQMetaObject@@XZ 0041bf04     qt-mt323:qt-mt323.dll
 0002:00000f08       __imp_?qt_cast@QApplication@@UAEPAXPBD@Z 0041bf08     qt-mt323:qt-mt323.dll
 0002:00000f0c       __imp_?set@QUType_bool@@QAEXPAUQUObject@@_N@Z 0041bf0c     qt-mt323:qt-mt323.dll
 0002:00000f10       __imp_?qt_invoke@QApplication@@UAE_NHPAUQUObject@@@Z 0041bf10     qt-mt323:qt-mt323.dll
 0002:00000f14       __imp_?qt_emit@QApplication@@UAE_NHPAUQUObject@@@Z 0041bf14     qt-mt323:qt-mt323.dll
 0002:00000f18       __imp_?qt_property@QApplication@@UAE_NHHPAVQVariant@@@Z 0041bf18     qt-mt323:qt-mt323.dll
 0002:00000f1c       __imp_?paintEvent@QWidget@@MAEXPAVQPaintEvent@@@Z 0041bf1c     qt-mt323:qt-mt323.dll
 0002:00000f20       __imp_?moveEvent@QWidget@@MAEXPAVQMoveEvent@@@Z 0041bf20     qt-mt323:qt-mt323.dll
 0002:00000f24       __imp_?resizeEvent@QDialog@@MAEXPAVQResizeEvent@@@Z 0041bf24     qt-mt323:qt-mt323.dll
 0002:00000f28       __imp_?closeEvent@QDialog@@MAEXPAVQCloseEvent@@@Z 0041bf28     qt-mt323:qt-mt323.dll
 0002:00000f2c       __imp_?contextMenuEvent@QDialog@@MAEXPAVQContextMenuEvent@@@Z 0041bf2c     qt-mt323:qt-mt323.dll
 0002:00000f30       __imp_?imStartEvent@QWidget@@MAEXPAVQIMEvent@@@Z 0041bf30     qt-mt323:qt-mt323.dll
 0002:00000f34       __imp_?imComposeEvent@QWidget@@MAEXPAVQIMEvent@@@Z 0041bf34     qt-mt323:qt-mt323.dll
 0002:00000f38       __imp_?imEndEvent@QWidget@@MAEXPAVQIMEvent@@@Z 0041bf38     qt-mt323:qt-mt323.dll
 0002:00000f3c       __imp_?tabletEvent@QWidget@@MAEXPAVQTabletEvent@@@Z 0041bf3c     qt-mt323:qt-mt323.dll
 0002:00000f40       __imp_?dragEnterEvent@QWidget@@MAEXPAVQDragEnterEvent@@@Z 0041bf40     qt-mt323:qt-mt323.dll
 0002:00000f44       __imp_?dragMoveEvent@QWidget@@MAEXPAVQDragMoveEvent@@@Z 0041bf44     qt-mt323:qt-mt323.dll
 0002:00000f48       __imp_?dragLeaveEvent@QWidget@@MAEXPAVQDragLeaveEvent@@@Z 0041bf48     qt-mt323:qt-mt323.dll
 0002:00000f4c       __imp_?dropEvent@QWidget@@MAEXPAVQDropEvent@@@Z 0041bf4c     qt-mt323:qt-mt323.dll
 0002:00000f50       __imp_?showEvent@QWidget@@MAEXPAVQShowEvent@@@Z 0041bf50     qt-mt323:qt-mt323.dll
 0002:00000f54       __imp_?hideEvent@QWidget@@MAEXPAVQHideEvent@@@Z 0041bf54     qt-mt323:qt-mt323.dll
 0002:00000f58       __imp_?winEvent@QWidget@@MAE_NPAUtagMSG@@@Z 0041bf58     qt-mt323:qt-mt323.dll
 0002:00000f5c       __imp_?updateMask@QWidget@@MAEXXZ 0041bf5c     qt-mt323:qt-mt323.dll
 0002:00000f60       __imp_?styleChange@QWidget@@MAEXAAVQStyle@@@Z 0041bf60     qt-mt323:qt-mt323.dll
 0002:00000f64       __imp_?enabledChange@QWidget@@MAEX_N@Z 0041bf64     qt-mt323:qt-mt323.dll
 0002:00000f68       __imp_?paletteChange@QWidget@@MAEXABVQPalette@@@Z 0041bf68     qt-mt323:qt-mt323.dll
 0002:00000f6c       __imp_?fontChange@QWidget@@MAEXABVQFont@@@Z 0041bf6c     qt-mt323:qt-mt323.dll
 0002:00000f70       __imp_?windowActivationChange@QWidget@@MAEX_N@Z 0041bf70     qt-mt323:qt-mt323.dll
 0002:00000f74       __imp_?create@QWidget@@MAEXPAUHWND__@@_N1@Z 0041bf74     qt-mt323:qt-mt323.dll
 0002:00000f78       __imp_?destroy@QWidget@@MAEX_N0@Z 0041bf78     qt-mt323:qt-mt323.dll
 0002:00000f7c       __imp_?setWState@QWidget@@MAEXI@Z 0041bf7c     qt-mt323:qt-mt323.dll
 0002:00000f80       __imp_?setWFlags@QWidget@@MAEXI@Z 0041bf80     qt-mt323:qt-mt323.dll
 0002:00000f84       __imp_?focusNextPrevChild@QWidget@@MAE_N_N@Z 0041bf84     qt-mt323:qt-mt323.dll
 0002:00000f88       __imp_?setKeyCompression@QWidget@@MAEX_N@Z 0041bf88     qt-mt323:qt-mt323.dll
 0002:00000f8c       __imp_?setMicroFocusHint@QWidget@@MAEXHHHH_NPAVQFont@@@Z 0041bf8c     qt-mt323:qt-mt323.dll
 0002:00000f90       __imp_?done@QDialog@@MAEXH@Z 0041bf90     qt-mt323:qt-mt323.dll
 0002:00000f94       __imp_?accept@QDialog@@MAEXXZ 0041bf94     qt-mt323:qt-mt323.dll
 0002:00000f98       __imp_?reject@QDialog@@MAEXXZ 0041bf98     qt-mt323:qt-mt323.dll
 0002:00000f9c       __imp_?setResolution@QPaintDevice@@UAEXH@Z 0041bf9c     qt-mt323:qt-mt323.dll
 0002:00000fa0       __imp_?resolution@QPaintDevice@@UBEHXZ 0041bfa0     qt-mt323:qt-mt323.dll
 0002:00000fa4       __imp_?handle@QPaintDevice@@UBEPAUHDC__@@XZ 0041bfa4     qt-mt323:qt-mt323.dll
 0002:00000fa8       __imp_?cmd@QPaintDevice@@MAE_NHPAVQPainter@@PATQPDevCmdParam@@@Z 0041bfa8     qt-mt323:qt-mt323.dll
 0002:00000fac       __imp_?metric@QWidget@@MBEHH@Z 0041bfac     qt-mt323:qt-mt323.dll
 0002:00000fb0       __imp_?fontMet@QPaintDevice@@MBEHPAVQFont@@HPBDH@Z 0041bfb0     qt-mt323:qt-mt323.dll
 0002:00000fb4       __imp_?fontInf@QPaintDevice@@MBEHPAVQFont@@H@Z 0041bfb4     qt-mt323:qt-mt323.dll
 0002:00000fb8       __imp_?setSizePolicy@QWidget@@UAEXVQSizePolicy@@@Z 0041bfb8     qt-mt323:qt-mt323.dll
 0002:00000fbc       __imp_?heightForWidth@QWidget@@UBEHH@Z 0041bfbc     qt-mt323:qt-mt323.dll
 0002:00000fc0       __imp_?adjustSize@QWidget@@UAEXXZ 0041bfc0     qt-mt323:qt-mt323.dll
 0002:00000fc4       __imp_?reparent@QWidget@@UAEXPAV1@IABVQPoint@@_N@Z 0041bfc4     qt-mt323:qt-mt323.dll
 0002:00000fc8       __imp_?setAcceptDrops@QWidget@@UAEX_N@Z 0041bfc8     qt-mt323:qt-mt323.dll
 0002:00000fcc       __imp_?setAutoMask@QWidget@@UAEX_N@Z 0041bfcc     qt-mt323:qt-mt323.dll
 0002:00000fd0       __imp_?setBackgroundOrigin@QWidget@@UAEXW4BackgroundOrigin@1@@Z 0041bfd0     qt-mt323:qt-mt323.dll
 0002:00000fd4       __imp_?customWhatsThis@QWidget@@UBE_NXZ 0041bfd4     qt-mt323:qt-mt323.dll
 0002:00000fd8       __imp_?mousePressEvent@QWidget@@MAEXPAVQMouseEvent@@@Z 0041bfd8     qt-mt323:qt-mt323.dll
 0002:00000fdc       __imp_?mouseReleaseEvent@QWidget@@MAEXPAVQMouseEvent@@@Z 0041bfdc     qt-mt323:qt-mt323.dll
 0002:00000fe0       __imp_?mouseDoubleClickEvent@QWidget@@MAEXPAVQMouseEvent@@@Z 0041bfe0     qt-mt323:qt-mt323.dll
 0002:00000fe4       __imp_?mouseMoveEvent@QWidget@@MAEXPAVQMouseEvent@@@Z 0041bfe4     qt-mt323:qt-mt323.dll
 0002:00000fe8       __imp_?wheelEvent@QWidget@@MAEXPAVQWheelEvent@@@Z 0041bfe8     qt-mt323:qt-mt323.dll
 0002:00000fec       __imp_?keyPressEvent@QDialog@@MAEXPAVQKeyEvent@@@Z 0041bfec     qt-mt323:qt-mt323.dll
 0002:00000ff0       __imp_?keyReleaseEvent@QWidget@@MAEXPAVQKeyEvent@@@Z 0041bff0     qt-mt323:qt-mt323.dll
 0002:00000ff4       __imp_?focusOutEvent@QWidget@@MAEXPAVQFocusEvent@@@Z 0041bff4     qt-mt323:qt-mt323.dll
 0002:00000ff8       __imp_?focusInEvent@QWidget@@MAEXPAVQFocusEvent@@@Z 0041bff8     qt-mt323:qt-mt323.dll
 0002:00000ffc       __imp_?heightForWidth@QLabel@@UBEHH@Z 0041bffc     qt-mt323:qt-mt323.dll
 0002:00001000       __imp_?enterEvent@QWidget@@MAEXPAVQEvent@@@Z 0041c000     qt-mt323:qt-mt323.dll
 0002:00001004       __imp_?keyReleaseEvent@QButton@@MAEXPAVQKeyEvent@@@Z 0041c004     qt-mt323:qt-mt323.dll
 0002:00001008       __imp_?deleteData@QGArray@@MAEXPAUarray_data@1@@Z 0041c008     qt-mt323:qt-mt323.dll
 0002:0000100c       __imp_?newData@QGArray@@MAEPAUarray_data@1@XZ 0041c00c     qt-mt323:qt-mt323.dll
 0002:00001010       __imp_?qWinMain@@YAXPAUHINSTANCE__@@0PADHAAHAAV?$QMemArray@PAD@@@Z 0041c010     qt-mt323:qt-mt323.dll
 0002:00001014       __imp_??0QGArray@@IAE@H@Z  0041c014     qt-mt323:qt-mt323.dll
 0002:00001018       __imp_?duplicate@QGArray@@IAEAAV1@ABV1@@Z 0041c018     qt-mt323:qt-mt323.dll
 0002:0000101c       \177qt-mt323_NULL_THUNK_DATA 0041c01c     qt-mt323:qt-mt323.dll
 0002:00001024       ??_7AboutDialog@@6BQPaintDevice@@@ 0041c024     AboutDialog.obj
 0002:00001048       ??_7AboutDialog@@6BQObject@@@ 0041c048     AboutDialog.obj
 0002:0000120c       ??_7bncs_ws_manDialog@@6BQPaintDevice@@@ 0041c20c     bncs_ws_mandialog.obj
 0002:00001230       ??_7bncs_ws_manDialog@@6BQObject@@@ 0041c230     bncs_ws_mandialog.obj
 0002:00001448       ??_7csi_startDialog@@6BQPaintDevice@@@ 0041c448     csi_startdialog.obj
 0002:0000146c       ??_7csi_startDialog@@6BQObject@@@ 0041c46c     csi_startdialog.obj
 0002:00001624       ??_7?$QPtrList@VprocessBase@@@@6B@ 0041c624     csi_startdialog.obj
 0002:00001648       ??_7launchListViewItem@@6B@ 0041c648     launchListViewItem.obj
 0002:000016e4       ??_7logDelete@@6B@         0041c6e4     logDelete.obj
 0002:00001738       ??_7?$QValueListNode@VQString@@@@6B@ 0041c738     logDelete.obj
 0002:00001740       ??_7?$QValueListPrivate@VQString@@@@6B@ 0041c740     logDelete.obj
 0002:00001748       ??_7logDialog@@6BQPaintDevice@@@ 0041c748     logdialogimpl.obj
 0002:0000176c       ??_7logDialog@@6BQObject@@@ 0041c76c     logdialogimpl.obj
 0002:00001930       ??_7netComms@@6B@          0041c930     netComms.obj
 0002:00001984       ??_SQSocketNotifier@@6B@   0041c984     netComms.obj
 0002:000019dc       ??_SQSocketDevice@@6B@     0041c9dc     netComms.obj
 0002:00001a48       ??_7processBase@@6B@       0041ca48     processBase.obj
 0002:00001ad0       ??_7Program@@6B@           0041cad0     Program.obj
 0002:00001af0       ??_7StopAllProgram@@6B@    0041caf0     Program.obj
 0002:00001b10       ??_7RestartAllProgram@@6B@ 0041cb10     Program.obj
 0002:00001b30       ??_7UpdateAndRestartProgram@@6B@ 0041cb30     Program.obj
 0002:00001b50       ??_7InitializeProgram@@6B@ 0041cb50     Program.obj
 0002:00001b70       ??_7StopAndTestProgram@@6B@ 0041cb70     Program.obj
 0002:00001b90       ??_7StopAndReloadLauncherProgram@@6B@ 0041cb90     Program.obj
 0002:00001bb0       ??_7StartAndStopWithSyncProgram@@6B@ 0041cbb0     Program.obj
 0002:00001bd0       ??_7StartAndStopNoSyncProgram@@6B@ 0041cbd0     Program.obj
 0002:00001bf0       ??_7RestartNoReloadLauncherProgram@@6B@ 0041cbf0     Program.obj
 0002:00001c10       ??_7ResyncAndReloadLauncherProgram@@6B@ 0041cc10     Program.obj
 0002:00001c30       ??_7restartDialog@@6BQPaintDevice@@@ 0041cc30     restartdialogimpl.obj
 0002:00001c54       ??_7restartDialog@@6BQObject@@@ 0041cc54     restartdialogimpl.obj
 0002:00001e18       ??_7restartThread@@6B@     0041ce18     restartThread.obj
 0002:00001e24       ??_7startCSI@@6B@          0041ce24     startCSI.obj
 0002:00001eac       ??_7startCSIHelper@@6BQPaintDevice@@@ 0041ceac     startCSIHelper.obj
 0002:00001ed0       ??_7startCSIHelper@@6BQObject@@@ 0041ced0     startCSIHelper.obj
 0002:00002084       ??_7SyncProcess@@6B@       0041d084     SyncProcess.obj
 0002:000020d8       ??_SQProcess@@6B@          0041d0d8     SyncProcess.obj
 0002:00002160       ??_7NoSyncProcess@@6B@     0041d160     SyncProcess.obj
 0002:000021b4       ??_7FileSyncProcess@@6B@   0041d1b4     SyncProcess.obj
 0002:00002208       ??_SQPushButton@@6BQPaintDevice@@@ 0041d208     AboutDialogBase.obj
 0002:0000222c       ??_SQPushButton@@6BQObject@@@ 0041d22c     AboutDialogBase.obj
 0002:0000241c       ??_SQSpacerItem@@6B@       0041d41c     AboutDialogBase.obj
 0002:00002460       ??_SQHBoxLayout@@6BQLayoutItem@@@ 0041d460     AboutDialogBase.obj
 0002:000024a4       ??_SQHBoxLayout@@6BQObject@@@ 0041d4a4     AboutDialogBase.obj
 0002:0000250c       ??_SQLabel@@6BQPaintDevice@@@ 0041d50c     AboutDialogBase.obj
 0002:00002530       ??_SQLabel@@6BQObject@@@   0041d530     AboutDialogBase.obj
 0002:00002728       ??_SQVBoxLayout@@6BQLayoutItem@@@ 0041d728     AboutDialogBase.obj
 0002:0000276c       ??_SQVBoxLayout@@6BQObject@@@ 0041d76c     AboutDialogBase.obj
 0002:000027d4       ??_7AboutDialogBase@@6BQPaintDevice@@@ 0041d7d4     AboutDialogBase.obj
 0002:000027f8       ??_7AboutDialogBase@@6BQObject@@@ 0041d7f8     AboutDialogBase.obj
 0002:000029bc       ??_SQPopupMenu@@6B@        0041d9bc     bncs_ws_mandialogbase.obj
 0002:000029e0       ??_SQPopupMenu@@6BQPaintDevice@@@ 0041d9e0     bncs_ws_mandialogbase.obj
 0002:00002a04       ??_SQPopupMenu@@6BQObject@@@ 0041da04     bncs_ws_mandialogbase.obj
 0002:00002be4       ??_SQMenuBar@@6B@          0041dbe4     bncs_ws_mandialogbase.obj
 0002:00002c08       ??_SQMenuBar@@6BQPaintDevice@@@ 0041dc08     bncs_ws_mandialogbase.obj
 0002:00002c2c       ??_SQMenuBar@@6BQObject@@@ 0041dc2c     bncs_ws_mandialogbase.obj
 0002:00002e04       ??_SQAction@@6B@           0041de04     bncs_ws_mandialogbase.obj
 0002:00002e90       ??_SQGroupBox@@6BQPaintDevice@@@ 0041de90     bncs_ws_mandialogbase.obj
 0002:00002eb4       ??_SQGroupBox@@6BQObject@@@ 0041deb4     bncs_ws_mandialogbase.obj
 0002:00003094       ??_SQWidget@@6BQPaintDevice@@@ 0041e094     bncs_ws_mandialogbase.obj
 0002:000030b8       ??_SQWidget@@6BQObject@@@  0041e0b8     bncs_ws_mandialogbase.obj
 0002:0000326c       ??_7bncs_ws_manDialogBase@@6BQPaintDevice@@@ 0041e26c     bncs_ws_mandialogbase.obj
 0002:00003290       ??_7bncs_ws_manDialogBase@@6BQObject@@@ 0041e290     bncs_ws_mandialogbase.obj
 0002:000034a8       ??_SQListView@@6BQPaintDevice@@@ 0041e4a8     csi_startdialogbase.obj
 0002:000034cc       ??_SQListView@@6BQObject@@@ 0041e4cc     csi_startdialogbase.obj
 0002:000037b0       ??_7csi_startDialogBase@@6BQPaintDevice@@@ 0041e7b0     csi_startdialogbase.obj
 0002:000037d4       ??_7csi_startDialogBase@@6BQObject@@@ 0041e7d4     csi_startdialogbase.obj
 0002:0000398c       ??_SQListBox@@6BQPaintDevice@@@ 0041e98c     logdialog.obj
 0002:000039b0       ??_SQListBox@@6BQObject@@@ 0041e9b0     logdialog.obj
 0002:00003c58       ??_7logDialogBase@@6BQPaintDevice@@@ 0041ec58     logdialog.obj
 0002:00003c7c       ??_7logDialogBase@@6BQObject@@@ 0041ec7c     logdialog.obj
 0002:000043e8       ??_7restartDialogBase@@6BQPaintDevice@@@ 0041f3e8     restartdialog.obj
 0002:0000440c       ??_7restartDialogBase@@6BQObject@@@ 0041f40c     restartdialog.obj
 0002:000045cc       ??_7bncs_disklog@@6B@      0041f5cc     bncs_disklog:bncs_disklog.obj
 0002:000045d0       ??_7cBncsVersion@@6B@      0041f5d0     bncsversioninfo:cBncsVersion.obj
 0002:000045d4       ??_7QtSingleApplication@@6B@ 0041f5d4     qtsingleapplication:qtsingleapplication.obj
 0002:000046b8       ??_7type_info@@6B@         0041f6b8     MSVCRT:ti_inst.obj
 0002:000046fc       ??_7?$QMemArray@PAD@@6B@   0041f6fc     qtmain:qtmain_win.obj
 0002:00004710       ??_R4AboutDialog@@6BQPaintDevice@@@ 0041f710     AboutDialog.obj
 0002:00004728       ??_R1CI@?0A@A@QPaintDevice@@8 0041f728     AboutDialog.obj
 0002:00004740       ??_R13?0A@A@Qt@@8          0041f740     AboutDialog.obj
 0002:00004758       ??_R1A@?0A@A@QObject@@8    0041f758     AboutDialog.obj
 0002:00004770       ??_R1A@?0A@A@QWidget@@8    0041f770     AboutDialog.obj
 0002:00004788       ??_R1A@?0A@A@QDialog@@8    0041f788     AboutDialog.obj
 0002:000047a0       ??_R1A@?0A@A@AboutDialogBase@@8 0041f7a0     AboutDialog.obj
 0002:000047b8       ??_R1A@?0A@A@AboutDialog@@8 0041f7b8     AboutDialog.obj
 0002:000047d0       ??_R2AboutDialog@@8        0041f7d0     AboutDialog.obj
 0002:000047f0       ??_R3AboutDialog@@8        0041f7f0     AboutDialog.obj
 0002:00004800       ??_R4AboutDialog@@6BQObject@@@ 0041f800     AboutDialog.obj
 0002:00004818       ??_R4bncs_ws_manDialog@@6BQPaintDevice@@@ 0041f818     bncs_ws_mandialog.obj
 0002:00004830       ??_R1A@?0A@A@QMainWindow@@8 0041f830     bncs_ws_mandialog.obj
 0002:00004848       ??_R1A@?0A@A@bncs_ws_manDialogBase@@8 0041f848     bncs_ws_mandialog.obj
 0002:00004860       ??_R1A@?0A@A@bncs_ws_manDialog@@8 0041f860     bncs_ws_mandialog.obj
 0002:00004878       ??_R2bncs_ws_manDialog@@8  0041f878     bncs_ws_mandialog.obj
 0002:00004898       ??_R3bncs_ws_manDialog@@8  0041f898     bncs_ws_mandialog.obj
 0002:000048a8       ??_R4bncs_ws_manDialog@@6BQObject@@@ 0041f8a8     bncs_ws_mandialog.obj
 0002:000048c0       ??_R1A@?0A@A@QPtrCollection@@8 0041f8c0     csi_startdialog.obj
 0002:000048d8       ??_R1A@?0A@A@QGList@@8     0041f8d8     csi_startdialog.obj
 0002:000048f0       ??_R1A@?0A@A@?$QPtrList@VprocessBase@@@@8 0041f8f0     csi_startdialog.obj
 0002:00004908       ??_R2?$QPtrList@VprocessBase@@@@8 0041f908     csi_startdialog.obj
 0002:00004918       ??_R3?$QPtrList@VprocessBase@@@@8 0041f918     csi_startdialog.obj
 0002:00004928       ??_R4?$QPtrList@VprocessBase@@@@6B@ 0041f928     csi_startdialog.obj
 0002:00004940       ??_R4csi_startDialog@@6BQPaintDevice@@@ 0041f940     csi_startdialog.obj
 0002:00004958       ??_R1A@?0A@A@csi_startDialogBase@@8 0041f958     csi_startdialog.obj
 0002:00004970       ??_R1A@?0A@A@csi_startDialog@@8 0041f970     csi_startdialog.obj
 0002:00004988       ??_R2csi_startDialog@@8    0041f988     csi_startdialog.obj
 0002:000049a8       ??_R3csi_startDialog@@8    0041f9a8     csi_startdialog.obj
 0002:000049b8       ??_R4csi_startDialog@@6BQObject@@@ 0041f9b8     csi_startdialog.obj
 0002:000049d0       ??_R1A@?0A@A@QListViewItem@@8 0041f9d0     launchListViewItem.obj
 0002:000049e8       ??_R1A@?0A@A@launchListViewItem@@8 0041f9e8     launchListViewItem.obj
 0002:00004a00       ??_R2launchListViewItem@@8 0041fa00     launchListViewItem.obj
 0002:00004a10       ??_R3launchListViewItem@@8 0041fa10     launchListViewItem.obj
 0002:00004a20       ??_R4launchListViewItem@@6B@ 0041fa20     launchListViewItem.obj
 0002:00004a38       ??_R1A@?0A@A@logDelete@@8  0041fa38     logDelete.obj
 0002:00004a50       ??_R2logDelete@@8          0041fa50     logDelete.obj
 0002:00004a60       ??_R3logDelete@@8          0041fa60     logDelete.obj
 0002:00004a70       ??_R4logDelete@@6B@        0041fa70     logDelete.obj
 0002:00004a88       ??_R13?0A@A@QShared@@8     0041fa88     logDelete.obj
 0002:00004aa0       ??_R1A@?0A@A@?$QValueListPrivate@VQString@@@@8 0041faa0     logDelete.obj
 0002:00004ab8       ??_R2?$QValueListPrivate@VQString@@@@8 0041fab8     logDelete.obj
 0002:00004ac8       ??_R3?$QValueListPrivate@VQString@@@@8 0041fac8     logDelete.obj
 0002:00004ad8       ??_R4?$QValueListPrivate@VQString@@@@6B@ 0041fad8     logDelete.obj
 0002:00004af0       ??_R1A@?0A@A@?$QValueListNode@VQString@@@@8 0041faf0     logDelete.obj
 0002:00004b08       ??_R2?$QValueListNode@VQString@@@@8 0041fb08     logDelete.obj
 0002:00004b10       ??_R3?$QValueListNode@VQString@@@@8 0041fb10     logDelete.obj
 0002:00004b20       ??_R4?$QValueListNode@VQString@@@@6B@ 0041fb20     logDelete.obj
 0002:00004b38       ??_R4logDialog@@6BQPaintDevice@@@ 0041fb38     logdialogimpl.obj
 0002:00004b50       ??_R1A@?0A@A@logDialogBase@@8 0041fb50     logdialogimpl.obj
 0002:00004b68       ??_R1A@?0A@A@logDialog@@8  0041fb68     logdialogimpl.obj
 0002:00004b80       ??_R2logDialog@@8          0041fb80     logdialogimpl.obj
 0002:00004ba0       ??_R3logDialog@@8          0041fba0     logdialogimpl.obj
 0002:00004bb0       ??_R4logDialog@@6BQObject@@@ 0041fbb0     logdialogimpl.obj
 0002:00004bc8       ??_R1A@?0A@A@netComms@@8   0041fbc8     netComms.obj
 0002:00004be0       ??_R2netComms@@8           0041fbe0     netComms.obj
 0002:00004bf0       ??_R3netComms@@8           0041fbf0     netComms.obj
 0002:00004c00       ??_R4netComms@@6B@         0041fc00     netComms.obj
 0002:00004c18       ??_R1A@?0A@A@QSocketNotifier@@8 0041fc18     netComms.obj
 0002:00004c30       ??_R2QSocketNotifier@@8    0041fc30     netComms.obj
 0002:00004c40       ??_R3QSocketNotifier@@8    0041fc40     netComms.obj
 0002:00004c50       ??_R4QSocketNotifier@@6B@  0041fc50     netComms.obj
 0002:00004c68       ??_R1A@?0A@A@QIODevice@@8  0041fc68     netComms.obj
 0002:00004c80       ??_R1A@?0A@A@QSocketDevice@@8 0041fc80     netComms.obj
 0002:00004c98       ??_R2QSocketDevice@@8      0041fc98     netComms.obj
 0002:00004ca8       ??_R3QSocketDevice@@8      0041fca8     netComms.obj
 0002:00004cb8       ??_R4QSocketDevice@@6B@    0041fcb8     netComms.obj
 0002:00004cd0       ??_R1A@?0A@A@QProcess@@8   0041fcd0     processBase.obj
 0002:00004ce8       ??_R1A@?0A@A@processBase@@8 0041fce8     processBase.obj
 0002:00004d00       ??_R2processBase@@8        0041fd00     processBase.obj
 0002:00004d18       ??_R3processBase@@8        0041fd18     processBase.obj
 0002:00004d28       ??_R4processBase@@6B@      0041fd28     processBase.obj
 0002:00004d40       ??_R1A@?0A@A@Program@@8    0041fd40     Program.obj
 0002:00004d58       ??_R2Program@@8            0041fd58     Program.obj
 0002:00004d60       ??_R3Program@@8            0041fd60     Program.obj
 0002:00004d70       ??_R4Program@@6B@          0041fd70     Program.obj
 0002:00004d88       ??_R1A@?0A@A@StopAllProgram@@8 0041fd88     Program.obj
 0002:00004da0       ??_R2StopAllProgram@@8     0041fda0     Program.obj
 0002:00004db0       ??_R3StopAllProgram@@8     0041fdb0     Program.obj
 0002:00004dc0       ??_R4StopAllProgram@@6B@   0041fdc0     Program.obj
 0002:00004dd8       ??_R1A@?0A@A@RestartAllProgram@@8 0041fdd8     Program.obj
 0002:00004df0       ??_R2RestartAllProgram@@8  0041fdf0     Program.obj
 0002:00004e00       ??_R3RestartAllProgram@@8  0041fe00     Program.obj
 0002:00004e10       ??_R4RestartAllProgram@@6B@ 0041fe10     Program.obj
 0002:00004e28       ??_R1A@?0A@A@UpdateAndRestartProgram@@8 0041fe28     Program.obj
 0002:00004e40       ??_R2UpdateAndRestartProgram@@8 0041fe40     Program.obj
 0002:00004e50       ??_R3UpdateAndRestartProgram@@8 0041fe50     Program.obj
 0002:00004e60       ??_R4UpdateAndRestartProgram@@6B@ 0041fe60     Program.obj
 0002:00004e78       ??_R1A@?0A@A@InitializeProgram@@8 0041fe78     Program.obj
 0002:00004e90       ??_R2InitializeProgram@@8  0041fe90     Program.obj
 0002:00004ea0       ??_R3InitializeProgram@@8  0041fea0     Program.obj
 0002:00004eb0       ??_R4InitializeProgram@@6B@ 0041feb0     Program.obj
 0002:00004ec8       ??_R1A@?0A@A@StopAndTestProgram@@8 0041fec8     Program.obj
 0002:00004ee0       ??_R2StopAndTestProgram@@8 0041fee0     Program.obj
 0002:00004ef0       ??_R3StopAndTestProgram@@8 0041fef0     Program.obj
 0002:00004f00       ??_R4StopAndTestProgram@@6B@ 0041ff00     Program.obj
 0002:00004f18       ??_R1A@?0A@A@StopAndReloadLauncherProgram@@8 0041ff18     Program.obj
 0002:00004f30       ??_R2StopAndReloadLauncherProgram@@8 0041ff30     Program.obj
 0002:00004f40       ??_R3StopAndReloadLauncherProgram@@8 0041ff40     Program.obj
 0002:00004f50       ??_R4StopAndReloadLauncherProgram@@6B@ 0041ff50     Program.obj
 0002:00004f68       ??_R1A@?0A@A@StartAndStopWithSyncProgram@@8 0041ff68     Program.obj
 0002:00004f80       ??_R2StartAndStopWithSyncProgram@@8 0041ff80     Program.obj
 0002:00004f90       ??_R3StartAndStopWithSyncProgram@@8 0041ff90     Program.obj
 0002:00004fa0       ??_R4StartAndStopWithSyncProgram@@6B@ 0041ffa0     Program.obj
 0002:00004fb8       ??_R1A@?0A@A@StartAndStopNoSyncProgram@@8 0041ffb8     Program.obj
 0002:00004fd0       ??_R2StartAndStopNoSyncProgram@@8 0041ffd0     Program.obj
 0002:00004fe0       ??_R3StartAndStopNoSyncProgram@@8 0041ffe0     Program.obj
 0002:00004ff0       ??_R4StartAndStopNoSyncProgram@@6B@ 0041fff0     Program.obj
 0002:00005008       ??_R1A@?0A@A@RestartNoReloadLauncherProgram@@8 00420008     Program.obj
 0002:00005020       ??_R2RestartNoReloadLauncherProgram@@8 00420020     Program.obj
 0002:00005030       ??_R3RestartNoReloadLauncherProgram@@8 00420030     Program.obj
 0002:00005040       ??_R4RestartNoReloadLauncherProgram@@6B@ 00420040     Program.obj
 0002:00005058       ??_R1A@?0A@A@ResyncAndReloadLauncherProgram@@8 00420058     Program.obj
 0002:00005070       ??_R2ResyncAndReloadLauncherProgram@@8 00420070     Program.obj
 0002:00005080       ??_R3ResyncAndReloadLauncherProgram@@8 00420080     Program.obj
 0002:00005090       ??_R4ResyncAndReloadLauncherProgram@@6B@ 00420090     Program.obj
 0002:000050a8       ??_R4restartDialog@@6BQPaintDevice@@@ 004200a8     restartdialogimpl.obj
 0002:000050c0       ??_R1A@?0A@A@restartDialogBase@@8 004200c0     restartdialogimpl.obj
 0002:000050d8       ??_R1A@?0A@A@restartDialog@@8 004200d8     restartdialogimpl.obj
 0002:000050f0       ??_R2restartDialog@@8      004200f0     restartdialogimpl.obj
 0002:00005110       ??_R3restartDialog@@8      00420110     restartdialogimpl.obj
 0002:00005120       ??_R4restartDialog@@6BQObject@@@ 00420120     restartdialogimpl.obj
 0002:00005138       ??_R1A@?0A@A@QThread@@8    00420138     restartThread.obj
 0002:00005150       ??_R1A@?0A@A@restartThread@@8 00420150     restartThread.obj
 0002:00005168       ??_R2restartThread@@8      00420168     restartThread.obj
 0002:00005178       ??_R3restartThread@@8      00420178     restartThread.obj
 0002:00005188       ??_R4restartThread@@6B@    00420188     restartThread.obj
 0002:000051a0       ??_R1A@?0A@A@startCSI@@8   004201a0     startCSI.obj
 0002:000051b8       ??_R2startCSI@@8           004201b8     startCSI.obj
 0002:000051d0       ??_R3startCSI@@8           004201d0     startCSI.obj
 0002:000051e0       ??_R4startCSI@@6B@         004201e0     startCSI.obj
 0002:000051f8       ??_R4startCSIHelper@@6BQPaintDevice@@@ 004201f8     startCSIHelper.obj
 0002:00005210       ??_R1A@?0A@A@startCSIHelper@@8 00420210     startCSIHelper.obj
 0002:00005228       ??_R2startCSIHelper@@8     00420228     startCSIHelper.obj
 0002:00005240       ??_R3startCSIHelper@@8     00420240     startCSIHelper.obj
 0002:00005250       ??_R4startCSIHelper@@6BQObject@@@ 00420250     startCSIHelper.obj
 0002:00005268       ??_R1A@?0A@A@SyncProcess@@8 00420268     SyncProcess.obj
 0002:00005280       ??_R2SyncProcess@@8        00420280     SyncProcess.obj
 0002:00005290       ??_R3SyncProcess@@8        00420290     SyncProcess.obj
 0002:000052a0       ??_R4SyncProcess@@6B@      004202a0     SyncProcess.obj
 0002:000052b8       ??_R1A@?0A@A@NoSyncProcess@@8 004202b8     SyncProcess.obj
 0002:000052d0       ??_R2NoSyncProcess@@8      004202d0     SyncProcess.obj
 0002:000052e8       ??_R3NoSyncProcess@@8      004202e8     SyncProcess.obj
 0002:000052f8       ??_R4NoSyncProcess@@6B@    004202f8     SyncProcess.obj
 0002:00005310       ??_R2QProcess@@8           00420310     SyncProcess.obj
 0002:00005320       ??_R3QProcess@@8           00420320     SyncProcess.obj
 0002:00005330       ??_R4QProcess@@6B@         00420330     SyncProcess.obj
 0002:00005348       ??_R1A@?0A@A@FileSyncProcess@@8 00420348     SyncProcess.obj
 0002:00005360       ??_R2FileSyncProcess@@8    00420360     SyncProcess.obj
 0002:00005378       ??_R3FileSyncProcess@@8    00420378     SyncProcess.obj
 0002:00005388       ??_R4FileSyncProcess@@6B@  00420388     SyncProcess.obj
 0002:000053a0       ??_R1A@?0A@A@QLayoutItem@@8 004203a0     AboutDialogBase.obj
 0002:000053b8       ??_R1A@?0A@A@QSpacerItem@@8 004203b8     AboutDialogBase.obj
 0002:000053d0       ??_R2QSpacerItem@@8        004203d0     AboutDialogBase.obj
 0002:000053e0       ??_R3QSpacerItem@@8        004203e0     AboutDialogBase.obj
 0002:000053f0       ??_R4QSpacerItem@@6B@      004203f0     AboutDialogBase.obj
 0002:00005408       ??_R4QPushButton@@6BQPaintDevice@@@ 00420408     AboutDialogBase.obj
 0002:00005420       ??_R1A@?0A@A@QButton@@8    00420420     AboutDialogBase.obj
 0002:00005438       ??_R1A@?0A@A@QPushButton@@8 00420438     AboutDialogBase.obj
 0002:00005450       ??_R2QPushButton@@8        00420450     AboutDialogBase.obj
 0002:00005470       ??_R3QPushButton@@8        00420470     AboutDialogBase.obj
 0002:00005480       ??_R4QPushButton@@6BQObject@@@ 00420480     AboutDialogBase.obj
 0002:00005498       ??_R4AboutDialogBase@@6BQPaintDevice@@@ 00420498     AboutDialogBase.obj
 0002:000054b0       ??_R2AboutDialogBase@@8    004204b0     AboutDialogBase.obj
 0002:000054d0       ??_R3AboutDialogBase@@8    004204d0     AboutDialogBase.obj
 0002:000054e0       ??_R4AboutDialogBase@@6BQObject@@@ 004204e0     AboutDialogBase.obj
 0002:000054f8       ??_R4QLabel@@6BQPaintDevice@@@ 004204f8     AboutDialogBase.obj
 0002:00005510       ??_R1A@?0A@A@QFrame@@8     00420510     AboutDialogBase.obj
 0002:00005528       ??_R1A@?0A@A@QLabel@@8     00420528     AboutDialogBase.obj
 0002:00005540       ??_R2QLabel@@8             00420540     AboutDialogBase.obj
 0002:00005560       ??_R3QLabel@@8             00420560     AboutDialogBase.obj
 0002:00005570       ??_R4QLabel@@6BQObject@@@  00420570     AboutDialogBase.obj
 0002:00005588       ??_R4QHBoxLayout@@6BQLayoutItem@@@ 00420588     AboutDialogBase.obj
 0002:000055a0       ??_R1A@?0A@A@QHBoxLayout@@8 004205a0     AboutDialogBase.obj
 0002:000055b8       ??_R2QHBoxLayout@@8        004205b8     AboutDialogBase.obj
 0002:000055d8       ??_R3QHBoxLayout@@8        004205d8     AboutDialogBase.obj
 0002:000055e8       ??_R4QHBoxLayout@@6BQObject@@@ 004205e8     AboutDialogBase.obj
 0002:00005600       ??_R4QVBoxLayout@@6BQLayoutItem@@@ 00420600     AboutDialogBase.obj
 0002:00005618       ??_R1CI@?0A@A@QLayoutItem@@8 00420618     AboutDialogBase.obj
 0002:00005630       ??_R1A@?0A@A@QLayout@@8    00420630     AboutDialogBase.obj
 0002:00005648       ??_R1A@?0A@A@QBoxLayout@@8 00420648     AboutDialogBase.obj
 0002:00005660       ??_R1A@?0A@A@QVBoxLayout@@8 00420660     AboutDialogBase.obj
 0002:00005678       ??_R2QVBoxLayout@@8        00420678     AboutDialogBase.obj
 0002:00005698       ??_R3QVBoxLayout@@8        00420698     AboutDialogBase.obj
 0002:000056a8       ??_R4QVBoxLayout@@6BQObject@@@ 004206a8     AboutDialogBase.obj
 0002:000056c0       ??_R4QPopupMenu@@6B@       004206c0     bncs_ws_mandialogbase.obj
 0002:000056d8       ??_R4QPopupMenu@@6BQPaintDevice@@@ 004206d8     bncs_ws_mandialogbase.obj
 0002:000056f0       ??_R1A@?0A@A@QPopupMenu@@8 004206f0     bncs_ws_mandialogbase.obj
 0002:00005708       ??_R2QPopupMenu@@8         00420708     bncs_ws_mandialogbase.obj
 0002:00005728       ??_R3QPopupMenu@@8         00420728     bncs_ws_mandialogbase.obj
 0002:00005738       ??_R4QPopupMenu@@6BQObject@@@ 00420738     bncs_ws_mandialogbase.obj
 0002:00005750       ??_R4QMenuBar@@6B@         00420750     bncs_ws_mandialogbase.obj
 0002:00005768       ??_R4QMenuBar@@6BQPaintDevice@@@ 00420768     bncs_ws_mandialogbase.obj
 0002:00005780       ??_R1IM@?0A@A@QMenuData@@8 00420780     bncs_ws_mandialogbase.obj
 0002:00005798       ??_R1A@?0A@A@QMenuBar@@8   00420798     bncs_ws_mandialogbase.obj
 0002:000057b0       ??_R2QMenuBar@@8           004207b0     bncs_ws_mandialogbase.obj
 0002:000057d0       ??_R3QMenuBar@@8           004207d0     bncs_ws_mandialogbase.obj
 0002:000057e0       ??_R4QMenuBar@@6BQObject@@@ 004207e0     bncs_ws_mandialogbase.obj
 0002:000057f8       ??_R4QWidget@@6BQPaintDevice@@@ 004207f8     bncs_ws_mandialogbase.obj
 0002:00005810       ??_R2QWidget@@8            00420810     bncs_ws_mandialogbase.obj
 0002:00005828       ??_R3QWidget@@8            00420828     bncs_ws_mandialogbase.obj
 0002:00005838       ??_R4QWidget@@6BQObject@@@ 00420838     bncs_ws_mandialogbase.obj
 0002:00005850       ??_R4bncs_ws_manDialogBase@@6BQPaintDevice@@@ 00420850     bncs_ws_mandialogbase.obj
 0002:00005868       ??_R2bncs_ws_manDialogBase@@8 00420868     bncs_ws_mandialogbase.obj
 0002:00005888       ??_R3bncs_ws_manDialogBase@@8 00420888     bncs_ws_mandialogbase.obj
 0002:00005898       ??_R4bncs_ws_manDialogBase@@6BQObject@@@ 00420898     bncs_ws_mandialogbase.obj
 0002:000058b0       ??_R4QGroupBox@@6BQPaintDevice@@@ 004208b0     bncs_ws_mandialogbase.obj
 0002:000058c8       ??_R1A@?0A@A@QGroupBox@@8  004208c8     bncs_ws_mandialogbase.obj
 0002:000058e0       ??_R2QGroupBox@@8          004208e0     bncs_ws_mandialogbase.obj
 0002:00005900       ??_R3QGroupBox@@8          00420900     bncs_ws_mandialogbase.obj
 0002:00005910       ??_R4QGroupBox@@6BQObject@@@ 00420910     bncs_ws_mandialogbase.obj
 0002:00005928       ??_R1A@?0A@A@QAction@@8    00420928     bncs_ws_mandialogbase.obj
 0002:00005940       ??_R2QAction@@8            00420940     bncs_ws_mandialogbase.obj
 0002:00005950       ??_R3QAction@@8            00420950     bncs_ws_mandialogbase.obj
 0002:00005960       ??_R4QAction@@6B@          00420960     bncs_ws_mandialogbase.obj
 0002:00005978       ??_R4csi_startDialogBase@@6BQPaintDevice@@@ 00420978     csi_startdialogbase.obj
 0002:00005990       ??_R2csi_startDialogBase@@8 00420990     csi_startdialogbase.obj
 0002:000059a8       ??_R3csi_startDialogBase@@8 004209a8     csi_startdialogbase.obj
 0002:000059b8       ??_R4csi_startDialogBase@@6BQObject@@@ 004209b8     csi_startdialogbase.obj
 0002:000059d0       ??_R4QListView@@6BQPaintDevice@@@ 004209d0     csi_startdialogbase.obj
 0002:000059e8       ??_R1A@?0A@A@QScrollView@@8 004209e8     csi_startdialogbase.obj
 0002:00005a00       ??_R1A@?0A@A@QListView@@8  00420a00     csi_startdialogbase.obj
 0002:00005a18       ??_R2QListView@@8          00420a18     csi_startdialogbase.obj
 0002:00005a38       ??_R3QListView@@8          00420a38     csi_startdialogbase.obj
 0002:00005a48       ??_R4QListView@@6BQObject@@@ 00420a48     csi_startdialogbase.obj
 0002:00005a60       ??_R4logDialogBase@@6BQPaintDevice@@@ 00420a60     logdialog.obj
 0002:00005a78       ??_R2logDialogBase@@8      00420a78     logdialog.obj
 0002:00005a98       ??_R3logDialogBase@@8      00420a98     logdialog.obj
 0002:00005aa8       ??_R4logDialogBase@@6BQObject@@@ 00420aa8     logdialog.obj
 0002:00005ac0       ??_R4QListBox@@6BQPaintDevice@@@ 00420ac0     logdialog.obj
 0002:00005ad8       ??_R1A@?0A@A@QListBox@@8   00420ad8     logdialog.obj
 0002:00005af0       ??_R2QListBox@@8           00420af0     logdialog.obj
 0002:00005b10       ??_R3QListBox@@8           00420b10     logdialog.obj
 0002:00005b20       ??_R4QListBox@@6BQObject@@@ 00420b20     logdialog.obj
 0002:00005b38       ??_R4restartDialogBase@@6BQPaintDevice@@@ 00420b38     restartdialog.obj
 0002:00005b50       ??_R2restartDialogBase@@8  00420b50     restartdialog.obj
 0002:00005b70       ??_R3restartDialogBase@@8  00420b70     restartdialog.obj
 0002:00005b80       ??_R4restartDialogBase@@6BQObject@@@ 00420b80     restartdialog.obj
 0002:00005b98       ??_R1A@?0A@A@type_info@@8  00420b98     MSVCRT:ti_inst.obj
 0002:00005bb0       ??_R2type_info@@8          00420bb0     MSVCRT:ti_inst.obj
 0002:00005bb8       ??_R3type_info@@8          00420bb8     MSVCRT:ti_inst.obj
 0002:00005bc8       ??_R4type_info@@6B@        00420bc8     MSVCRT:ti_inst.obj
 0002:00008168       __IMPORT_DESCRIPTOR_VERSION 00423168     version:VERSION.dll
 0002:0000817c       __IMPORT_DESCRIPTOR_WSOCK32 0042317c     wsock32:WSOCK32.dll
 0002:00008190       __IMPORT_DESCRIPTOR_ADVAPI32 00423190     advapi32:ADVAPI32.dll
 0002:000081a4       __IMPORT_DESCRIPTOR_USER32 004231a4     user32:USER32.dll
 0002:000081b8       __IMPORT_DESCRIPTOR_bncs_string 004231b8     bncs_string:bncs_string.dll
 0002:000081cc       __IMPORT_DESCRIPTOR_bncs_config 004231cc     bncs_config:bncs_config.dll
 0002:000081e0       __IMPORT_DESCRIPTOR_qt-mt323 004231e0     qt-mt323:qt-mt323.dll
 0002:000081f4       __IMPORT_DESCRIPTOR_MSVCRT 004231f4     MSVCRT:MSVCRT.dll
 0002:00008208       __IMPORT_DESCRIPTOR_KERNEL32 00423208     kernel32:KERNEL32.dll
 0002:0000821c       __NULL_IMPORT_DESCRIPTOR   0042321c     version:VERSION.dll
 0003:00000000       ___xc_a                    0042f000     MSVCRT:cinitexe.obj
 0003:0000004c       ___xc_z                    0042f04c     MSVCRT:cinitexe.obj
 0003:00000050       ___xi_a                    0042f050     MSVCRT:cinitexe.obj
 0003:00000054       ___xi_z                    0042f054     MSVCRT:cinitexe.obj
 0003:00000060       ??_R0?AVQPaintDevice@@@8   0042f060     AboutDialog.obj
 0003:00000080       ??_R0?AVQt@@@8             0042f080     AboutDialog.obj
 0003:00000098       ??_R0?AVQObject@@@8        0042f098     AboutDialog.obj
 0003:000000b0       ??_R0?AVQWidget@@@8        0042f0b0     AboutDialog.obj
 0003:000000c8       ??_R0?AVQDialog@@@8        0042f0c8     AboutDialog.obj
 0003:000000e0       ??_R0?AVAboutDialogBase@@@8 0042f0e0     AboutDialog.obj
 0003:00000100       ??_R0?AVAboutDialog@@@8    0042f100     AboutDialog.obj
 0003:0000011c       ??_C@_07DAJE@?$CFs?5?9?5?$CFs?$AA@ 0042f11c     AboutDialog.obj
 0003:00000124       ??_C@_0M@OFFK@Mar?5?57?52016?$AA@ 0042f124     AboutDialog.obj
 0003:00000130       ??_C@_08LGD@22?324?320?$AA@ 0042f130     AboutDialog.obj
 0003:0000013c       ??_C@_08GKPF@?$CFs?5?5?$CI?$CFs?$CJ?$AA@ 0042f13c     AboutDialog.obj
 0003:00000148       ??_C@_0CC@OKGI@?2StringFileInfo?2?$CFs?2LegalCopyrigh@ 0042f148     AboutDialog.obj
 0003:0000016c       ??_C@_0CC@KILK@?2StringFileInfo?2?$CFs?2ProductVersio@ 0042f16c     AboutDialog.obj
 0003:00000190       ??_C@_0BP@EOHM@?2StringFileInfo?2?$CFs?2FileVersion?$AA@ 0042f190     AboutDialog.obj
 0003:000001b0       ??_C@_08CALL@?$CF04X?$CF04X?$AA@ 0042f1b0     AboutDialog.obj
 0003:000001bc       ??_C@_0BJ@KCFH@?2VarFileInfo?2Translation?$AA@ 0042f1bc     AboutDialog.obj
 0003:00000468       ??_C@_0EB@CDJI@B?5w?5q?59?59?59?58?58?5?0?53?58?5?9?5?9?5?9?5$?5$?5@ 0042f468     bncs_ws_mandialog.obj
 0003:000004ac       ??_C@_0EB@JNIB@l?5p?5f?5f?5f?5f?5f?5f?5f?5f?5f?5f?5f?5f?5f?5f?5@ 0042f4ac     bncs_ws_mandialog.obj
 0003:000004f0       ??_C@_0EB@LMEI@I?5d?5?$FN?5X?4o?4o?4O?4O?4O?4?$CL?4?$CL?4?$DO?42?42?43?43?4@ 0042f4f0     bncs_ws_mandialog.obj
 0003:00000534       ??_C@_0EB@JBIJ@I?5d?5o?42?42?43?43?43?43?45?45?45?46?46?4w?4w?4@ 0042f534     bncs_ws_mandialog.obj
 0003:00000578       ??_C@_0EB@OEPL@I?5d?5?8?5?$FL?5?$FL?5?$FL?5?$FL?5?$FL?5?4?4X?4X?4o?45?45?4O?4O?4@ 0042f578     bncs_ws_mandialog.obj
 0003:000005bc       ??_C@_0EB@MGCO@U?5i?5o?5o?5?$CK?5?$DM?5?$DM?52?54?54?5b?5M?52?45?4?8?5A?5@ 0042f5bc     bncs_ws_mandialog.obj
 0003:00000600       ??_C@_0EB@BJEG@T?5i?5X?5X?5o?5o?5?$CK?5?$DM?5?$DM?5?$DM?54?5b?5?$FL?5?4?4S?5N?5@ 0042f600     bncs_ws_mandialog.obj
 0003:00000644       ??_C@_0EB@KJKO@R?5i?5?4?5?4?5?4?5X?5o?5o?5o?5?$DM?5?$DM?5?$DM?52?55?56?56?5@ 0042f644     bncs_ws_mandialog.obj
 0003:00000688       ??_C@_0EB@NGAO@R?5y?5?4?5?4?5?4?5?4?5?4?5X?5X?5o?5o?5?$DN?5?$CK?5?$DM?52?52?5@ 0042f688     bncs_ws_mandialog.obj
 0003:000006cc       ??_C@_0EB@DDFJ@E?5i?5?4?5?4?52?5P?5L?5A?5?4?5X?5X?5m?5?$HL?5?$HL?5G?5?$DM?5@ 0042f6cc     bncs_ws_mandialog.obj
 0003:00000710       ??_C@_0EB@EHFF@Q?5i?5?4?5?4?5G?5p?4p?4i?4X?5?4?5?4?57?4p?4p?44?4?$CG?5@ 0042f710     bncs_ws_mandialog.obj
 0003:00000754       ??_C@_0EB@NACO@?$HO?5i?5?4?5?4?5K?5p?4p?4p?4C?5?4?5?$DN?5p?4p?4p?49?4X?5@ 0042f754     bncs_ws_mandialog.obj
 0003:00000798       ??_C@_0EB@OHGB@?$FO?5i?5?4?5?4?5?$HL?5p?4t?4p?4?$DL?4?4?5J?5p?4t?4p?4q?4?4?5@ 0042f798     bncs_ws_mandialog.obj
 0003:000007dc       ??_C@_0EB@KAJE@?$FO?5i?5?4?5?4?5?$CD?4p?4?9?4y?4i?4X?54?4p?4?$CG?4p?4y?4?4?5@ 0042f7dc     bncs_ws_mandialog.obj
 0003:00000820       ??_C@_0EB@NNOC@_?5i?5?4?5?4?5?$CG?4p?4?$CG?4?9?4p?4C?5p?4p?4m?5p?4p?4?4?5@ 0042f820     bncs_ws_mandialog.obj
 0003:00000864       ??_C@_0EB@FKGG@_?5i?5?4?5?4?5?$DO?4p?4?$CD?4C?5p?4q?4p?40?4?$DN?5p?4p?4X?5@ 0042f864     bncs_ws_mandialog.obj
 0003:000008a8       ??_C@_0EB@LNIA@?$GA?5i?5?4?5?4?51?4p?4?$HL?5?$EA?5i?4p?4p?4?$CD?4?$EA?5p?4p?4?$DN?5@ 0042f8a8     bncs_ws_mandialog.obj
 0003:000008ec       ??_C@_0EB@EKFE@?$GA?5i?5?4?5?4?57?4p?4P?5?4?5?$DM?4p?4p?47?5X?5p?4p?42?5@ 0042f8ec     bncs_ws_mandialog.obj
 0003:00000930       ??_C@_0EB@JJLG@?$GA?5i?5?4?5?4?50?4p?4K?5?4?5G?5p?4y?4?4?5?4?5i?4p?47?5@ 0042f930     bncs_ws_mandialog.obj
 0003:00000974       ??_C@_0EB@POP@?$GA?5i?5?4?5?4?5r?4p?4G?5?4?5?$CG?5?$CD?4Z?5?4?5?4?5i?4p?4n?5@ 0042f974     bncs_ws_mandialog.obj
 0003:000009b8       ??_C@_0EB@POCN@?$GA?5i?5?4?5?4?5i?4p?4A?5?4?5?4?5?4?5?4?5?4?5?4?5y?4p?4C?5@ 0042f9b8     bncs_ws_mandialog.obj
 0003:000009fc       ??_C@_0EB@IPLH@?$GA?5i?5?4?5?4?5p?4p?4C?5?4?5?4?5?4?5?4?5?4?5?4?5q?4i?4H?5@ 0042f9fc     bncs_ws_mandialog.obj
 0003:00000a40       ??_C@_0EB@HCI@?$GA?5i?5?4?5?$CG?5p?4p?4N?5?4?5?4?5?4?5?4?5?4?5?4?50?4p?4K?5@ 0042fa40     bncs_ws_mandialog.obj
 0003:00000a84       ??_C@_0EB@MEPL@?$GA?5i?5?4?5?$CK?5q?4e?4m?5?$CG?5?$EA?5X?5?4?5?$CG?5?$EA?5?$DO?4q?4L?5@ 0042fa84     bncs_ws_mandialog.obj
 0003:00000ac8       ??_C@_0EB@GNHH@?$GA?5p?5?$CL?5?4?5?$EA?5?$CG?5?$EA?5X?5?$EA?5?$CG?5?$EA?5?$CG?5?$CG?5?4?5?4?5?$CG?5@ 0042fac8     bncs_ws_mandialog.obj
 0003:00000b0c       ??_C@_0EB@PID@?$DN?4h?5i?5?$CL?5X?5?$CG?5?$EA?5?4?5?4?5?$CG?5?$CG?5?$EA?5?$CG?5?4?5?4?5?$CG?5@ 0042fb0c     bncs_ws_mandialog.obj
 0003:00000b50       ??_C@_0EB@ELIC@a?4?$DN?4h?5i?5?$CD?5?$CG?5?$CG?5X?5?$EA?5?$CG?5?$CG?5X?5?$CG?5?$EA?5X?5?$CG?5@ 0042fb50     bncs_ws_mandialog.obj
 0003:00000b94       ??_C@_0EB@OLBP@a?4a?4?$DN?4j?5i?5?9?5?$CG?5?$CG?5?$CG?5?$CG?5O?5?4?5?$CG?5?$EA?5?$CG?5?$CG?5@ 0042fb94     bncs_ws_mandialog.obj
 0003:00000bd8       ??_C@_0EB@IIOI@a?4a?4a?4?$DN?4j?5a?5?9?5X?5?4?5?$CG?5?$CG?5?4?5?$CG?5?$CG?5?$CG?5?$CG?5@ 0042fbd8     bncs_ws_mandialog.obj
 0003:00000c1c       ??_C@_0EB@DAJL@a?4a?4a?4a?4?$DN?4c?5h?5?9?5?$EA?5?$CG?5?$CG?5X?5?$EA?5?$CG?5?$CG?5?$EA?5@ 0042fc1c     bncs_ws_mandialog.obj
 0003:00000c60       ??_C@_0EB@KNMA@a?4a?4a?4a?4a?4?$DN?4v?5s?5f?5u?5i?5y?5y?5u?5u?5y?5@ 0042fc60     bncs_ws_mandialog.obj
 0003:00000ca4       ??_C@_0EB@MOMA@a?4a?4a?4a?4a?4a?4?$DN?4?$GA?5?$GA?5?1?5?$GA?5?$GA?5?$GA?5?$GA?5?$GA?5?1?5@ 0042fca4     bncs_ws_mandialog.obj
 0003:00000ce8       ??_C@_09FLBB@a?4?5c?5None?$AA@ 0042fce8     bncs_ws_mandialog.obj
 0003:00000cf4       ??_C@_0N@OEBM@p?4?5c?5?$CDFFFFFE?$AA@ 0042fcf4     bncs_ws_mandialog.obj
 0003:00000d04       ??_C@_0N@DPJC@i?4?5c?5?$CDF9F9F3?$AA@ 0042fd04     bncs_ws_mandialog.obj
 0003:00000d14       ??_C@_0N@HGMA@u?4?5c?5?$CDF6F6F3?$AA@ 0042fd14     bncs_ws_mandialog.obj
 0003:00000d24       ??_C@_0N@NNMF@y?4?5c?5?$CDF5F5EC?$AA@ 0042fd24     bncs_ws_mandialog.obj
 0003:00000d34       ??_C@_0N@BDM@t?4?5c?5?$CDF1F1E5?$AA@ 0042fd34     bncs_ws_mandialog.obj
 0003:00000d44       ??_C@_0N@BAKO@r?4?5c?5?$CDECECEC?$AA@ 0042fd44     bncs_ws_mandialog.obj
 0003:00000d54       ??_C@_0N@FEIG@e?4?5c?5?$CDEFEFE0?$AA@ 0042fd54     bncs_ws_mandialog.obj
 0003:00000d64       ??_C@_0N@PGHO@w?4?5c?5?$CDE4E4E4?$AA@ 0042fd64     bncs_ws_mandialog.obj
 0003:00000d74       ??_C@_0N@GDOB@q?4?5c?5?$CDEEEEDE?$AA@ 0042fd74     bncs_ws_mandialog.obj
 0003:00000d84       ??_C@_0N@JKBG@0?4?5c?5?$CDE9E9D5?$AA@ 0042fd84     bncs_ws_mandialog.obj
 0003:00000d94       ??_C@_0N@IPMD@9?4?5c?5?$CDE7E7D1?$AA@ 0042fd94     bncs_ws_mandialog.obj
 0003:00000da4       ??_C@_0N@DEMB@8?4?5c?5?$CDE4E4CB?$AA@ 0042fda4     bncs_ws_mandialog.obj
 0003:00000db4       ??_C@_0N@JEPA@7?4?5c?5?$CDE1E1C6?$AA@ 0042fdb4     bncs_ws_mandialog.obj
 0003:00000dc4       ??_C@_0N@CDFL@6?4?5c?5?$CDDBDBDB?$AA@ 0042fdc4     bncs_ws_mandialog.obj
 0003:00000dd4       ??_C@_0N@PBFA@5?4?5c?5?$CDD4D4D4?$AA@ 0042fdd4     bncs_ws_mandialog.obj
 0003:00000de4       ??_C@_0N@PAPN@4?4?5c?5?$CDDFDFC1?$AA@ 0042fde4     bncs_ws_mandialog.obj
 0003:00000df4       ??_C@_0N@HIKD@3?4?5c?5?$CDCCCCCB?$AA@ 0042fdf4     bncs_ws_mandialog.obj
 0003:00000e04       ??_C@_0N@IDEO@2?4?5c?5?$CDC4C4C4?$AA@ 0042fe04     bncs_ws_mandialog.obj
 0003:00000e14       ??_C@_0N@FFDB@1?4?5c?5?$CDDBDBBB?$AA@ 0042fe14     bncs_ws_mandialog.obj
 0003:00000e24       ??_C@_0N@IFOF@?$DM?4?5c?5?$CDD9D9B5?$AA@ 0042fe24     bncs_ws_mandialog.obj
 0003:00000e34       ??_C@_0N@BEIC@?0?4?5c?5?$CDD6D6B0?$AA@ 0042fe34     bncs_ws_mandialog.obj
 0003:00000e44       ??_C@_0N@BLIC@?$DO?4?5c?5?$CDD3D3AB?$AA@ 0042fe44     bncs_ws_mandialog.obj
 0003:00000e54       ??_C@_0N@NCGF@?3?4?5c?5?$CDD9D9A5?$AA@ 0042fe54     bncs_ws_mandialog.obj
 0003:00000e64       ??_C@_0N@LOHL@?$DL?4?5c?5?$CDD4D4A4?$AA@ 0042fe64     bncs_ws_mandialog.obj
 0003:00000e74       ??_C@_0N@PKIN@?9?4?5c?5?$CDCECEA2?$AA@ 0042fe74     bncs_ws_mandialog.obj
 0003:00000e84       ??_C@_0N@GKFJ@?$DN?4?5c?5?$CDF1F183?$AA@ 0042fe84     bncs_ws_mandialog.obj
 0003:00000e94       ??_C@_0N@CALJ@?$CK?4?5c?5?$CDD2D29B?$AA@ 0042fe94     bncs_ws_mandialog.obj
 0003:00000ea4       ??_C@_0N@BFHD@?$CG?4?5c?5?$CDCACA9B?$AA@ 0042fea4     bncs_ws_mandialog.obj
 0003:00000eb4       ??_C@_0N@EBNP@?$CF?4?5c?5?$CDCBCB93?$AA@ 0042feb4     bncs_ws_mandialog.obj
 0003:00000ec4       ??_C@_0N@OEKJ@$?4?5c?5?$CDC5C590?$AA@ 0042fec4     bncs_ws_mandialog.obj
 0003:00000ed4       ??_C@_0N@HONH@?$CD?4?5c?5?$CDC3C38C?$AA@ 0042fed4     bncs_ws_mandialog.obj
 0003:00000ee4       ??_C@_0N@EKFP@?$EA?4?5c?5?$CDC1C185?$AA@ 0042fee4     bncs_ws_mandialog.obj
 0003:00000ef4       ??_C@_0N@JNDE@?$CL?4?5c?5?$CDBBBBBB?$AA@ 0042fef4     bncs_ws_mandialog.obj
 0003:00000f04       ??_C@_0N@NBPM@O?4?5c?5?$CDB5B5B5?$AA@ 0042ff04     bncs_ws_mandialog.obj
 0003:00000f14       ??_C@_0N@LKNE@o?4?5c?5?$CDABABAB?$AA@ 0042ff14     bncs_ws_mandialog.obj
 0003:00000f24       ??_C@_0N@OIFG@X?4?5c?5?$CDA9A9A7?$AA@ 0042ff24     bncs_ws_mandialog.obj
 0003:00000f34       ??_C@_0N@JMEM@?4?4?5c?5?$CDA4A4A3?$AA@ 0042ff34     bncs_ws_mandialog.obj
 0003:00000f44       ??_C@_0N@ODKC@?5?4?5c?5?$CDBFBF93?$AA@ 0042ff44     bncs_ws_mandialog.obj
 0003:00000f54       ??_C@_0N@JJMJ@?$HM?5?5c?5?$CDBCBC89?$AA@ 0042ff54     bncs_ws_mandialog.obj
 0003:00000f64       ??_C@_0N@CHGB@?$HN?5?5c?5?$CDB6B689?$AA@ 0042ff64     bncs_ws_mandialog.obj
 0003:00000f74       ??_C@_0N@DDFN@?$HL?5?5c?5?$CDBCBC82?$AA@ 0042ff74     bncs_ws_mandialog.obj
 0003:00000f84       ??_C@_0N@GDAD@?$FL?5?5c?5?$CD9D9D9B?$AA@ 0042ff84     bncs_ws_mandialog.obj
 0003:00000f94       ??_C@_0M@NINF@?$FN?5?5c?5gray59?$AA@ 0042ff94     bncs_ws_mandialog.obj
 0003:00000fa0       ??_C@_0N@GAJI@?8?5?5c?5?$CD8A8A87?$AA@ 0042ffa0     bncs_ws_mandialog.obj
 0003:00000fb0       ??_C@_0N@PNKK@?$GA?5?5c?5?$CDF4F464?$AA@ 0042ffb0     bncs_ws_mandialog.obj
 0003:00000fc0       ??_C@_0N@GCGG@_?5?5c?5?$CDEDED60?$AA@ 0042ffc0     bncs_ws_mandialog.obj
 0003:00000fd0       ??_C@_0N@NDHG@?$CJ?5?5c?5?$CDDCDC64?$AA@ 0042ffd0     bncs_ws_mandialog.obj
 0003:00000fe0       ??_C@_0N@PNLF@?$CI?5?5c?5?$CDD3D365?$AA@ 0042ffe0     bncs_ws_mandialog.obj
 0003:00000ff0       ??_C@_0N@LGJL@?1?5?5c?5?$CDF1F15D?$AA@ 0042fff0     bncs_ws_mandialog.obj
 0003:00001000       ??_C@_0N@OBJG@?$FO?5?5c?5?$CDECEC5B?$AA@ 00430000     bncs_ws_mandialog.obj
 0003:00001010       ??_C@_0N@MGBH@?$HO?5?5c?5?$CDE5E558?$AA@ 00430010     bncs_ws_mandialog.obj
 0003:00001020       ??_C@_0N@BPO@?$CB?5?5c?5?$CDE9E955?$AA@ 00430020     bncs_ws_mandialog.obj
 0003:00001030       ??_C@_0N@BJFA@Q?5?5c?5?$CDE4E454?$AA@ 00430030     bncs_ws_mandialog.obj
 0003:00001040       ??_C@_0N@LLOK@W?5?5c?5?$CDE2E24E?$AA@ 00430040     bncs_ws_mandialog.obj
 0003:00001050       ??_C@_0N@NLOG@E?5?5c?5?$CDDEDE51?$AA@ 00430050     bncs_ws_mandialog.obj
 0003:00001060       ??_C@_0N@DFKH@R?5?5c?5?$CDDCDC4C?$AA@ 00430060     bncs_ws_mandialog.obj
 0003:00001070       ??_C@_0N@NFFM@T?5?5c?5?$CDD6D649?$AA@ 00430070     bncs_ws_mandialog.obj
 0003:00001080       ??_C@_0N@FGDA@Y?5?5c?5?$CDDADA46?$AA@ 00430080     bncs_ws_mandialog.obj
 0003:00001090       ??_C@_0N@NGDJ@U?5?5c?5?$CDD3D344?$AA@ 00430090     bncs_ws_mandialog.obj
 0003:000010a0       ??_C@_0N@FPMI@I?5?5c?5?$CDCDCD40?$AA@ 004300a0     bncs_ws_mandialog.obj
 0003:000010b0       ??_C@_0N@HHKB@P?5?5c?5?$CDBCBC7C?$AA@ 004300b0     bncs_ws_mandialog.obj
 0003:000010c0       ??_C@_0N@EBBJ@L?5?5c?5?$CDB8B876?$AA@ 004300c0     bncs_ws_mandialog.obj
 0003:000010d0       ??_C@_0N@EMDJ@K?5?5c?5?$CDB4B471?$AA@ 004300d0     bncs_ws_mandialog.obj
 0003:000010e0       ??_C@_0N@BAKP@J?5?5c?5?$CDB2B26C?$AA@ 004300e0     bncs_ws_mandialog.obj
 0003:000010f0       ??_C@_0N@NLBB@H?5?5c?5?$CDB0B067?$AA@ 004300f0     bncs_ws_mandialog.obj
 0003:00001100       ??_C@_0N@KAIN@G?5?5c?5?$CDAFAF68?$AA@ 00430100     bncs_ws_mandialog.obj
 0003:00001110       ??_C@_0N@NHOE@F?5?5c?5?$CDADAD64?$AA@ 00430110     bncs_ws_mandialog.obj
 0003:00001120       ??_C@_0N@LLI@D?5?5c?5?$CD98987C?$AA@ 00430120     bncs_ws_mandialog.obj
 0003:00001130       ??_C@_0N@GIKE@S?5?5c?5?$CD8D8D6B?$AA@ 00430130     bncs_ws_mandialog.obj
 0003:00001140       ??_C@_0N@CDLF@A?5?5c?5?$CDAAAA5E?$AA@ 00430140     bncs_ws_mandialog.obj
 0003:00001150       ??_C@_0N@LEIF@Z?5?5c?5?$CDA7A75B?$AA@ 00430150     bncs_ws_mandialog.obj
 0003:00001160       ??_C@_0N@NPOF@C?5?5c?5?$CDA4A454?$AA@ 00430160     bncs_ws_mandialog.obj
 0003:00001170       ??_C@_0N@IKOF@V?5?5c?5?$CDB0B04A?$AA@ 00430170     bncs_ws_mandialog.obj
 0003:00001180       ??_C@_0N@LEJN@B?5?5c?5?$CDAEAE4C?$AA@ 00430180     bncs_ws_mandialog.obj
 0003:00001190       ??_C@_0N@BIDM@N?5?5c?5?$CDA1A14A?$AA@ 00430190     bncs_ws_mandialog.obj
 0003:000011a0       ??_C@_0N@CPPK@M?5?5c?5?$CD8D8D54?$AA@ 004301a0     bncs_ws_mandialog.obj
 0003:000011b0       ??_C@_0N@GHOC@m?5?5c?5?$CD9E9E4B?$AA@ 004301b0     bncs_ws_mandialog.obj
 0003:000011c0       ??_C@_0N@KOGE@n?5?5c?5?$CD9B9B44?$AA@ 004301c0     bncs_ws_mandialog.obj
 0003:000011d0       ??_C@_0N@KEMK@b?5?5c?5?$CD888848?$AA@ 004301d0     bncs_ws_mandialog.obj
 0003:000011e0       ??_C@_0N@GMPM@v?5?5c?5?$CDFBFB35?$AA@ 004301e0     bncs_ws_mandialog.obj
 0003:000011f0       ??_C@_0N@NIPO@c?5?5c?5?$CDFCFC28?$AA@ 004301f0     bncs_ws_mandialog.obj
 0003:00001200       ??_C@_0N@LJNN@x?5?5c?5?$CDD2D23E?$AA@ 00430200     bncs_ws_mandialog.obj
 0003:00001210       ??_C@_0N@JECJ@z?5?5c?5?$CDCCCC3C?$AA@ 00430210     bncs_ws_mandialog.obj
 0003:00001220       ??_C@_0N@EEPF@l?5?5c?5?$CDC4C43A?$AA@ 00430220     bncs_ws_mandialog.obj
 0003:00001230       ??_C@_0N@CBFE@k?5?5c?5?$CDCBCB37?$AA@ 00430230     bncs_ws_mandialog.obj
 0003:00001240       ??_C@_0N@BEOO@j?5?5c?5?$CDFCFC1C?$AA@ 00430240     bncs_ws_mandialog.obj
 0003:00001250       ??_C@_0N@JBGL@h?5?5c?5?$CDFCFC13?$AA@ 00430250     bncs_ws_mandialog.obj
 0003:00001260       ??_C@_0N@GCBI@g?5?5c?5?$CDF4F412?$AA@ 00430260     bncs_ws_mandialog.obj
 0003:00001270       ??_C@_0N@EDFG@f?5?5c?5?$CDECEC13?$AA@ 00430270     bncs_ws_mandialog.obj
 0003:00001280       ??_C@_0N@OMNM@d?5?5c?5?$CDE7E711?$AA@ 00430280     bncs_ws_mandialog.obj
 0003:00001290       ??_C@_0N@NOJJ@s?5?5c?5?$CDFCFC0F?$AA@ 00430290     bncs_ws_mandialog.obj
 0003:000012a0       ??_C@_0N@KPHA@a?5?5c?5?$CDF7F70A?$AA@ 004302a0     bncs_ws_mandialog.obj
 0003:000012b0       ??_C@_0N@EPLL@p?5?5c?5?$CDFEFE01?$AA@ 004302b0     bncs_ws_mandialog.obj
 0003:000012c0       ??_C@_0N@FGLL@i?5?5c?5?$CDF3F301?$AA@ 004302c0     bncs_ws_mandialog.obj
 0003:000012d0       ??_C@_0N@JBAI@u?5?5c?5?$CDEBEB0C?$AA@ 004302d0     bncs_ws_mandialog.obj
 0003:000012e0       ??_C@_0N@BHKG@y?5?5c?5?$CDEBEB03?$AA@ 004302e0     bncs_ws_mandialog.obj
 0003:000012f0       ??_C@_0N@PLKN@t?5?5c?5?$CDDADA00?$AA@ 004302f0     bncs_ws_mandialog.obj
 0003:00001300       ??_C@_0N@ENMD@r?5?5c?5?$CDCECE00?$AA@ 00430300     bncs_ws_mandialog.obj
 0003:00001310       ??_C@_0N@HLEA@e?5?5c?5?$CDC5C500?$AA@ 00430310     bncs_ws_mandialog.obj
 0003:00001320       ??_C@_0N@LNGH@w?5?5c?5?$CDBEBE3C?$AA@ 00430320     bncs_ws_mandialog.obj
 0003:00001330       ??_C@_0N@FBND@q?5?5c?5?$CDBBBB33?$AA@ 00430330     bncs_ws_mandialog.obj
 0003:00001340       ??_C@_0N@GABF@0?5?5c?5?$CDB9B92C?$AA@ 00430340     bncs_ws_mandialog.obj
 0003:00001350       ??_C@_0N@GDFP@9?5?5c?5?$CDB4B42B?$AA@ 00430350     bncs_ws_mandialog.obj
 0003:00001360       ??_C@_0N@MCNK@8?5?5c?5?$CDADAD23?$AA@ 00430360     bncs_ws_mandialog.obj
 0003:00001370       ??_C@_0N@KBLB@7?5?5c?5?$CD989839?$AA@ 00430370     bncs_ws_mandialog.obj
 0003:00001380       ??_C@_0N@JCGJ@6?5?5c?5?$CD95953B?$AA@ 00430380     bncs_ws_mandialog.obj
 0003:00001390       ??_C@_0N@PBHI@5?5?5c?5?$CD929235?$AA@ 00430390     bncs_ws_mandialog.obj
 0003:000013a0       ??_C@_0N@FIPE@4?5?5c?5?$CD8F8F32?$AA@ 004303a0     bncs_ws_mandialog.obj
 0003:000013b0       ??_C@_0N@DMNL@3?5?5c?5?$CD91912C?$AA@ 004303b0     bncs_ws_mandialog.obj
 0003:000013c0       ??_C@_0N@EGIN@2?5?5c?5?$CD8C8C2B?$AA@ 004303c0     bncs_ws_mandialog.obj
 0003:000013d0       ??_C@_0N@LFPH@1?5?5c?5?$CD8A8A24?$AA@ 004303d0     bncs_ws_mandialog.obj
 0003:000013e0       ??_C@_0N@DKIH@?$DM?5?5c?5?$CD878722?$AA@ 004303e0     bncs_ws_mandialog.obj
 0003:000013f0       ??_C@_0N@KBGO@?0?5?5c?5?$CDAAAA1D?$AA@ 004303f0     bncs_ws_mandialog.obj
 0003:00001400       ??_C@_0N@IICD@?$DO?5?5c?5?$CDA4A41B?$AA@ 00430400     bncs_ws_mandialog.obj
 0003:00001410       ??_C@_0N@BFBO@?3?5?5c?5?$CDA3A316?$AA@ 00430410     bncs_ws_mandialog.obj
 0003:00001420       ??_C@_0N@ENOD@?$DL?5?5c?5?$CDBABA00?$AA@ 00430420     bncs_ws_mandialog.obj
 0003:00001430       ??_C@_0N@CDLJ@?9?5?5c?5?$CD9C9C12?$AA@ 00430430     bncs_ws_mandialog.obj
 0003:00001440       ??_C@_0N@HNMG@?$DN?5?5c?5?$CD88881B?$AA@ 00430440     bncs_ws_mandialog.obj
 0003:00001450       ??_C@_0N@KDAP@?$CK?5?5c?5?$CD85851C?$AA@ 00430450     bncs_ws_mandialog.obj
 0003:00001460       ??_C@_0N@JAJ@?$CG?5?5c?5?$CD838313?$AA@ 00430460     bncs_ws_mandialog.obj
 0003:00001470       ??_C@_0N@BPAC@?$CF?5?5c?5?$CD9A9A0D?$AA@ 00430470     bncs_ws_mandialog.obj
 0003:00001480       ??_C@_0N@FONI@$?5?5c?5?$CD94940B?$AA@ 00430480     bncs_ws_mandialog.obj
 0003:00001490       ??_C@_0N@NCMH@?$CD?5?5c?5?$CD929204?$AA@ 00430490     bncs_ws_mandialog.obj
 0003:000014a0       ??_C@_0N@FLPM@?$EA?5?5c?5?$CD81810D?$AA@ 004304a0     bncs_ws_mandialog.obj
 0003:000014b0       ??_C@_0N@OEBE@?$CL?5?5c?5?$CD8B8B01?$AA@ 004304b0     bncs_ws_mandialog.obj
 0003:000014c0       ??_C@_0N@CFFG@O?5?5c?5?$CD838300?$AA@ 004304c0     bncs_ws_mandialog.obj
 0003:000014d0       ??_C@_0N@GCDH@o?5?5c?5?$CD7F7F11?$AA@ 004304d0     bncs_ws_mandialog.obj
 0003:000014e0       ??_C@_0N@FOPF@X?5?5c?5?$CD7E7E0A?$AA@ 004304e0     bncs_ws_mandialog.obj
 0003:000014f0       ??_C@_0N@KLBL@?4?5?5c?5?$CD7B7B01?$AA@ 004304f0     bncs_ws_mandialog.obj
 0003:00001500       ??_C@_0N@EAGG@?5?5?5c?5?$CD6C6C00?$AA@ 00430500     bncs_ws_mandialog.obj
 0003:00001510       ??_C@_0N@CKIF@32?532?5131?52?5?$AA@ 00430510     bncs_ws_mandialog.obj
 0003:00001520       ??_R0?AVQMainWindow@@@8    00430520     bncs_ws_mandialog.obj
 0003:00001540       ??_R0?AVbncs_ws_manDialogBase@@@8 00430540     bncs_ws_mandialog.obj
 0003:00001568       ??_R0?AVbncs_ws_manDialog@@@8 00430568     bncs_ws_mandialog.obj
 0003:00001588       ??_C@_0DE@ENPC@Workstation?5Manager?5?9?5Version?5?$CF1@ 00430588     bncs_ws_mandialog.obj
 0003:000015bc       ??_C@_0O@ICOC@2restart?$CIint?$CJ?$AA@ 004305bc     bncs_ws_mandialog.obj
 0003:000015cc       ??_C@_0BA@MODO@1doRestart?$CIint?$CJ?$AA@ 004305cc     bncs_ws_mandialog.obj
 0003:000015dc       ??_C@_0M@EHHG@2start?$CIint?$CJ?$AA@ 004305dc     bncs_ws_mandialog.obj
 0003:000015e8       ??_C@_0O@LKKL@1doStart?$CIint?$CJ?$AA@ 004305e8     bncs_ws_mandialog.obj
 0003:000015f8       ??_C@_0L@OOAM@2stop?$CIint?$CJ?$AA@ 004305f8     bncs_ws_mandialog.obj
 0003:00001604       ??_C@_0N@DDEC@1doStop?$CIint?$CJ?$AA@ 00430604     bncs_ws_mandialog.obj
 0003:00001614       ??_C@_0P@ELIL@1AboutClick?$CI?5?$CJ?$AA@ 00430614     bncs_ws_mandialog.obj
 0003:00001624       ??_C@_0CG@GLOJ@Restart?5without?5reloading?5launch@ 00430624     bncs_ws_mandialog.obj
 0003:0000164c       ??_C@_0DA@IFCI@Stop?5?$CIif?5running?$CJ?0?5resync?5?$CG?$CG?5rel@ 0043064c     bncs_ws_mandialog.obj
 0003:0000167c       ??_C@_0CI@BMFP@Stop?5?$CIif?5running?$CJ?5?$CG?$CG?5reload?5laun@ 0043067c     bncs_ws_mandialog.obj
 0003:000016a4       ??_C@_0BG@GMNE@1programSelect?$CI?5int?5?$CJ?$AA@ 004306a4     bncs_ws_mandialog.obj
 0003:000016bc       ??_C@_0CC@HADG@Stop?5without?5clearing?5launch?5lis@ 004306bc     bncs_ws_mandialog.obj
 0003:000016e0       ??_C@_0CA@MJEJ@1UpdateAndRestartButtonClick?$CI?5?$CJ?$AA@ 004306e0     bncs_ws_mandialog.obj
 0003:00001700       ??_C@_0BH@JFGO@1RestartButtonClick?$CI?5?$CJ?$AA@ 00430700     bncs_ws_mandialog.obj
 0003:00001718       ??_C@_0BE@DKCG@1StopButtonClick?$CI?5?$CJ?$AA@ 00430718     bncs_ws_mandialog.obj
 0003:0000172c       ??_C@_0N@HLOO@2activated?$CI?$CJ?$AA@ 0043072c     bncs_ws_mandialog.obj
 0003:0000173c       ??_C@_08DIL@1quit?$CI?5?$CJ?$AA@ 0043073c     bncs_ws_mandialog.obj
 0003:00001748       ??_C@_0BB@GPAC@1showLogViewer?$CI?$CJ?$AA@ 00430748     bncs_ws_mandialog.obj
 0003:0000175c       ??_C@_0BD@BHIK@1StopButtonClick?$CI?$CJ?$AA@ 0043075c     bncs_ws_mandialog.obj
 0003:00001770       ??_C@_0BG@FPCM@1RestartButtonClick?$CI?$CJ?$AA@ 00430770     bncs_ws_mandialog.obj
 0003:00001788       ??_C@_0L@EHAF@2clicked?$CI?$CJ?$AA@ 00430788     bncs_ws_mandialog.obj
 0003:00001794       ??_C@_0BP@HIKF@1UpdateAndRestartButtonClick?$CI?$CJ?$AA@ 00430794     bncs_ws_mandialog.obj
 0003:000017b4       ??_C@_0BK@IEOJ@Unrecognized?5option?5?8?$CF1?8?4?$AA@ 004307b4     bncs_ws_mandialog.obj
 0003:000017d0       ??_C@_0BK@IGHO@Workstation?5Manager?5Error?$AA@ 004307d0     bncs_ws_mandialog.obj
 0003:000017ec       ??_C@_05NGIA@?9LOAD?$AA@   004307ec     bncs_ws_mandialog.obj
 0003:000017f4       ??_C@_05HDCF@?9TEST?$AA@   004307f4     bncs_ws_mandialog.obj
 0003:000017fc       ??_C@_0BB@BABH@About?5to?5Restart?$AA@ 004307fc     bncs_ws_mandialog.obj
 0003:00001810       ??_C@_0BG@NBHE@2setStatus?$CI?5QString?5?$CJ?$AA@ 00430810     bncs_ws_mandialog.obj
 0003:00001828       ??_C@_0BG@GBLA@1setStatus?$CI?5QString?5?$CJ?$AA@ 00430828     bncs_ws_mandialog.obj
 0003:00001840       ??_C@_0M@OEEA@2finished?$CI?$CJ?$AA@ 00430840     bncs_ws_mandialog.obj
 0003:0000184c       ??_C@_0M@BCNK@1doLaunch?$CI?$CJ?$AA@ 0043084c     bncs_ws_mandialog.obj
 0003:00001858       ??_C@_0BJ@BEFN@Starting?5No?9Sync?5Process?$AA@ 00430858     bncs_ws_mandialog.obj
 0003:00001874       ??_C@_0BL@MFLH@Starting?5File?9Sync?5Process?$AA@ 00430874     bncs_ws_mandialog.obj
 0003:00001890       ??_C@_0L@BBLP@?$CF1?2?$CF2?2logs?$AA@ 00430890     bncs_ws_mandialog.obj
 0003:0000189c       ??_C@_0L@OKOF@?$CF1?2?$CF2?2data?$AA@ 0043089c     bncs_ws_mandialog.obj
 0003:000018a8       ??_C@_0L@DNCO@?$CF1?2?$CF2?2temp?$AA@ 004308a8     bncs_ws_mandialog.obj
 0003:000018b4       ??_C@_0EF@GJPH@Can?8t?5run?5workstation?5manager?5CC@ 004308b4     bncs_ws_mandialog.obj
 0003:000018fc       ??_C@_0CB@COBM@No?5CC_SYSTEM?5environment?5setting@ 004308fc     bncs_ws_mandialog.obj
 0003:00001920       ??_C@_09EFEJ@CC_SYSTEM?$AA@ 00430920     bncs_ws_mandialog.obj
 0003:0000192c       ??_C@_0ED@IJIC@Can?8t?5run?5workstation?5manager?5CC@ 0043092c     bncs_ws_mandialog.obj
 0003:00001970       ??_C@_0BP@PAKL@No?5CC_ROOT?5environment?5setting?$AA@ 00430970     bncs_ws_mandialog.obj
 0003:00001990       ??_C@_07FCNI@CC_ROOT?$AA@  00430990     bncs_ws_mandialog.obj
 0003:00001998       ??_C@_0EK@PMID@Can?8t?5run?5workstation?5manager?5CC@ 00430998     bncs_ws_mandialog.obj
 0003:000019e4       ??_C@_0CG@OMBH@No?5CC_SERVER_ROOT?5environment?5se@ 004309e4     bncs_ws_mandialog.obj
 0003:00001a0c       ??_C@_0P@JDNO@CC_SERVER_ROOT?$AA@ 00430a0c     bncs_ws_mandialog.obj
 0003:00001a1c       ??_C@_0CA@EMKH@start?5timer?5event?4?5no?5launcher?4?$AA@ 00430a1c     bncs_ws_mandialog.obj
 0003:00001a3c       ??_C@_0DL@OBBH@Waited?5ten?5times?5for?5stop?5but?5no@ 00430a3c     bncs_ws_mandialog.obj
 0003:00001a78       ??_C@_0CO@OLCD@start?5timer?5event?4?5launch?5stoppi@ 00430a78     bncs_ws_mandialog.obj
 0003:00001aa8       ??_C@_0N@JPOK@Not?5Starting?$AA@ 00430aa8     bncs_ws_mandialog.obj
 0003:00001ab8       ??_C@_0N@JDHO@Launching?4?4?4?$AA@ 00430ab8     bncs_ws_mandialog.obj
 0003:00001ac8       ??_C@_0BK@HGG@Sync?5Process?5finished?4?5go?$AA@ 00430ac8     bncs_ws_mandialog.obj
 0003:00001ae4       ??_C@_0BM@NACA@finish?5when?5launcher?5loaded?$AA@ 00430ae4     bncs_ws_mandialog.obj
 0003:00001b00       ??_C@_0O@DDAI@load?5Launcher?$AA@ 00430b00     bncs_ws_mandialog.obj
 0003:00001b10       ??_C@_0CJ@IDOB@2stateChanged?$CIworkstationStatus?3@ 00430b10     bncs_ws_mandialog.obj
 0003:00001b3c       ??_C@_0CJ@EHEF@1statusChange?$CIworkstationStatus?3@ 00430b3c     bncs_ws_mandialog.obj
 0003:00001b68       ??_C@_0L@BFLO@2restart?$CI?$CJ?$AA@ 00430b68     bncs_ws_mandialog.obj
 0003:00001b74       ??_C@_0N@MIPA@1doRestart?$CI?$CJ?$AA@ 00430b74     bncs_ws_mandialog.obj
 0003:00001b84       ??_C@_0BE@JGIA@reallocate?5Launcher?$AA@ 00430b84     bncs_ws_mandialog.obj
 0003:00001b98       ??_C@_0DM@MBGA@Workstation?5Manager?5?9?5Version?5?$CF1@ 00430b98     bncs_ws_mandialog.obj
 0003:00001bd4       ??_C@_0P@NIEE@CC_WORKSTATION?$AA@ 00430bd4     bncs_ws_mandialog.obj
 0003:00001be4       ??_C@_09JFAP@Sync?5Done?$AA@ 00430be4     bncs_ws_mandialog.obj
 0003:00001bf0       ??_C@_0BG@NBIF@Sync?5Process?5finished?$AA@ 00430bf0     bncs_ws_mandialog.obj
 0003:00001c08       ??_C@_0DA@DOFJ@doRestart?4?5Launcher?5doesn?8t?5exis@ 00430c08     bncs_ws_mandialog.obj
 0003:00001c38       ??_C@_0CE@LNBC@doRestart?4?5Launcher?5exists?5so?5st@ 00430c38     bncs_ws_mandialog.obj
 0003:00001c5c       ??_C@_0DG@EPBI@doStop?4?5Launcher?5doesn?8t?5exist?5s@ 00430c5c     bncs_ws_mandialog.obj
 0003:00001c94       ??_C@_0CF@OHMP@doStop?4?5Launcher?5exists?5so?5stop?5@ 00430c94     bncs_ws_mandialog.obj
 0003:00001cbc       ??_C@_0M@DAPH@start?5timer?$AA@ 00430cbc     bncs_ws_mandialog.obj
 0003:00001cc8       ??_C@_08GKO@startAll?$AA@  00430cc8     bncs_ws_mandialog.obj
 0003:00001cd4       ??_C@_0BA@DJIE@Restart?5pending?$AA@ 00430cd4     bncs_ws_mandialog.obj
 0003:00001ce4       ??_C@_0CJ@GCAH@Stopped?4?5finish?5because?5launcher@ 00430ce4     bncs_ws_mandialog.obj
 0003:00001d10       ??_C@_0CN@KMAD@Stopped?4?5delete?5Launcher?4?5launch@ 00430d10     bncs_ws_mandialog.obj
 0003:00001d40       ??_C@_0CA@MOHI@Stopped?4?5finish?5because?5stopped?$AA@ 00430d40     bncs_ws_mandialog.obj
 0003:00001d60       ??_C@_07KAFF@Stopped?$AA@  00430d60     bncs_ws_mandialog.obj
 0003:00001d68       ??_C@_08FCIL@Stopping?$AA@ 00430d68     bncs_ws_mandialog.obj
 0003:00001d74       ??_C@_0CA@KBJJ@Running?4?5finish?5because?5started?$AA@ 00430d74     bncs_ws_mandialog.obj
 0003:00001d94       ??_C@_07IJMD@Running?$AA@  00430d94     bncs_ws_mandialog.obj
 0003:00001d9c       ??_C@_0BP@HPHG@Errors?4?5finish?5because?5started?$AA@ 00430d9c     bncs_ws_mandialog.obj
 0003:00001dbc       ??_C@_06HFMD@Errors?$AA@   00430dbc     bncs_ws_mandialog.obj
 0003:00001dc4       ??_C@_02MIFF@?$CF1?$AA@    00430dc4     bncs_ws_mandialog.obj
 0003:00001dc8       ??_C@_0BA@JHAO@statusChange?5?$CFd?$AA@ 00430dc8     bncs_ws_mandialog.obj
 0003:00001dd8       ??_C@_0BO@LLA@Restart?5with?5delay?5?$CF1?5seconds?$AA@ 00430dd8     bncs_ws_mandialog.obj
 0003:00001df8       ??_C@_0BB@IPPE@Stop?5For?5Restart?$AA@ 00430df8     bncs_ws_mandialog.obj
 0003:00001e0c       ??_C@_0BP@KAOC@select?4?5Delete?5current?5program?$AA@ 00430e0c     bncs_ws_mandialog.obj
 0003:00001e2c       ??_C@_0P@FBMG@resync?1restart?$AA@ 00430e2c     bncs_ws_mandialog.obj
 0003:00001e40       ??_R0?AVQPtrCollection@@@8 00430e40     csi_startdialog.obj
 0003:00001e60       ??_R0?AVQGList@@@8         00430e60     csi_startdialog.obj
 0003:00001e78       ??_R0?AV?$QPtrList@VprocessBase@@@@@8 00430e78     csi_startdialog.obj
 0003:00001ea0       ??_R0?AVcsi_startDialogBase@@@8 00430ea0     csi_startdialog.obj
 0003:00001ec8       ??_R0?AVcsi_startDialog@@@8 00430ec8     csi_startdialog.obj
 0003:00001ee8       ??_C@_0BE@JFGH@Workstation?5Manager?$AA@ 00430ee8     csi_startdialog.obj
 0003:00001efc       ??_C@_0CG@BBOA@?9?9?9?9?5Workstation?5Manager?5Started@ 00430efc     csi_startdialog.obj
 0003:00001f24       ??_C@_0BG@CCFP@1doButtonGoSelected?$CI?$CJ?$AA@ 00430f24     csi_startdialog.obj
 0003:00001f3c       ??_C@_0BG@FBAI@1doButtonGoFromHere?$CI?$CJ?$AA@ 00430f3c     csi_startdialog.obj
 0003:00001f54       ??_C@_0BA@LKHL@1doButtonStop?$CI?$CJ?$AA@ 00430f54     csi_startdialog.obj
 0003:00001f64       ??_C@_0BB@DHKB@1doButtonStart?$CI?$CJ?$AA@ 00430f64     csi_startdialog.obj
 0003:00001f78       ??_C@_0BE@PFLA@2selectionChanged?$CI?$CJ?$AA@ 00430f78     csi_startdialog.obj
 0003:00001f8c       ??_C@_0BE@FNOM@1listItemSelected?$CI?$CJ?$AA@ 00430f8c     csi_startdialog.obj
 0003:00001fa0       ??_C@_0DO@OFGN@2contextMenuRequested?$CI?5QListView@ 00430fa0     csi_startdialog.obj
 0003:00001fe0       ??_C@_0DO@PLBL@1contextMenuRequested?$CI?5QListView@ 00430fe0     csi_startdialog.obj
 0003:00002020       ??_C@_0CH@JAPD@2signalFixUpAutoStart?$CI?5processBa@ 00431020     csi_startdialog.obj
 0003:00002048       ??_C@_0CB@CHMF@1fixUpAutoStart?$CI?5processBase?5?$CK?5?$CJ@ 00431048     csi_startdialog.obj
 0003:0000206c       ??_C@_0BB@FAKK@2processExited?$CI?$CJ?$AA@ 0043106c     csi_startdialog.obj
 0003:00002080       ??_C@_0BB@DCON@1processExited?$CI?$CJ?$AA@ 00431080     csi_startdialog.obj
 0003:00002094       ??_C@_0O@NJIO@2done?$CI?5bool?5?$CJ?$AA@ 00431094     csi_startdialog.obj
 0003:000020a4       ??_C@_0BC@DANF@1procDone?$CI?5bool?5?$CJ?$AA@ 004310a4     csi_startdialog.obj
 0003:000020b8       ??_C@_01FCOA@?5?$AA@       004310b8     csi_startdialog.obj
 0003:000020bc       ??_C@_0M@MIHJ@waitForIdle?$AA@ 004310bc     csi_startdialog.obj
 0003:000020c8       ??_C@_0P@OEIG@restartoncrash?$AA@ 004310c8     csi_startdialog.obj
 0003:000020d8       ??_C@_05BFAE@delay?$AA@    004310d8     csi_startdialog.obj
 0003:000020e0       ??_C@_0L@MFIH@workingdir?$AA@ 004310e0     csi_startdialog.obj
 0003:000020ec       ??_C@_09MJIH@arguments?$AA@ 004310ec     csi_startdialog.obj
 0003:000020f8       ??_C@_09MIPE@autostart?$AA@ 004310f8     csi_startdialog.obj
 0003:00002104       ??_C@_04OPJK@name?$AA@     00431104     csi_startdialog.obj
 0003:0000210c       ??_C@_04NCCD@true?$AA@     0043110c     csi_startdialog.obj
 0003:00002114       ??_C@_0O@NJKE@rebootoncrash?$AA@ 00431114     csi_startdialog.obj
 0003:00002124       ??_C@_0O@GENF@autostart_csi?$AA@ 00431124     csi_startdialog.obj
 0003:00002134       ??_C@_04KIKH@none?$AA@     00431134     csi_startdialog.obj
 0003:0000213c       ??_C@_03BGOK@csi?$AA@      0043113c     csi_startdialog.obj
 0003:00002140       ??_C@_05NAGO@false?$AA@    00431140     csi_startdialog.obj
 0003:00002148       ??_C@_0N@OKDE@autostart_ws?$AA@ 00431148     csi_startdialog.obj
 0003:00002158       ??_C@_0EP@CGLL@Failed?5to?5read?5launch?5configurat@ 00431158     csi_startdialog.obj
 0003:000021a8       ??_C@_0BP@BPIF@load?5Launcher?4?5config?5path?5is?5?$AA@ 004311a8     csi_startdialog.obj
 0003:000021c8       ??_C@_09EPDL@launch?4?$CF1?$AA@ 004311c8     csi_startdialog.obj
 0003:000021d4       ??_C@_0BB@MEOA@logdelete?4global?$AA@ 004311d4     csi_startdialog.obj
 0003:000021e8       ??_C@_06MAD@enable?$AA@    004311e8     csi_startdialog.obj
 0003:000021f0       ??_C@_0N@KOCH@logdelete?4?$CF1?$AA@ 004311f0     csi_startdialog.obj
 0003:00002200       ??_C@_0CI@JJCL@?9?9?9?9?5Workstation?5Manager?5Shut?5Do@ 00431200     csi_startdialog.obj
 0003:00002228       ??_C@_0CB@DIGO@Destructor?5manual?5close?5of?5csi32@ 00431228     csi_startdialog.obj
 0003:0000224c       ??_C@_05GOH@csi32?$AA@     0043124c     csi_startdialog.obj
 0003:00002254       ??_C@_0CB@INDM@Destructor?5manual?5close?5of?5v4csi@ 00431254     csi_startdialog.obj
 0003:00002278       ??_C@_05LDLF@v4csi?$AA@    00431278     csi_startdialog.obj
 0003:00002280       ??_C@_0CB@HHIC@Destructor?5manual?5close?5of?5v3csi@ 00431280     csi_startdialog.obj
 0003:000022a4       ??_C@_05EJAL@v3csi?$AA@    004312a4     csi_startdialog.obj
 0003:000022ac       ??_C@_0CB@FCNA@Destructor?5manual?5close?5of?5v2csi@ 004312ac     csi_startdialog.obj
 0003:000022d0       ??_C@_05GMFJ@v2csi?$AA@    004312d0     csi_startdialog.obj
 0003:000022d8       ??_C@_0BH@PBCJ@Trying?5to?5terminate?5?$CFs?$AA@ 004312d8     csi_startdialog.obj
 0003:000022f0       ??_C@_0BO@LCMD@Unable?5to?5start?5application?3?5?$AA@ 004312f0     csi_startdialog.obj
 0003:00002310       ??_C@_0BG@CDEB@Started?5application?3?5?$AA@ 00431310     csi_startdialog.obj
 0003:00002328       ??_R0?AVQListViewItem@@@8  00431328     csi_startdialog.obj
 0003:00002348       ??_R0?AVlaunchListViewItem@@@8 00431348     csi_startdialog.obj
 0003:0000236c       ??_C@_0P@POOO@proc?5done?5?8?$CFs?8?$AA@ 0043136c     csi_startdialog.obj
 0003:0000237c       ??_C@_09KLKK@Stopped?3?5?$AA@ 0043137c     csi_startdialog.obj
 0003:00002388       ??_C@_0BH@GDLL@Crashed?5?$CIno?5restart?$CJ?3?5?$AA@ 00431388     csi_startdialog.obj
 0003:000023a0       ??_C@_09BBIA@Crashed?3?5?$AA@ 004313a0     csi_startdialog.obj
 0003:000023ac       ??_C@_0BJ@LAPP@Crashed?5while?5stopping?3?5?$AA@ 004313ac     csi_startdialog.obj
 0003:000023c8       ??_C@_0CE@MGCI@csi_startDialog?3?3processExited?5?8@ 004313c8     csi_startdialog.obj
 0003:000023ec       ??_C@_0BC@EONL@Failed?5to?5start?3?5?$AA@ 004313ec     csi_startdialog.obj
 0003:00002400       ??_C@_07HIMP@Start?3?5?$AA@ 00431400     csi_startdialog.obj
 0003:00002408       ??_C@_0O@OFNN@start?5it?5?8?$CFs?8?$AA@ 00431408     csi_startdialog.obj
 0003:00002418       ??_C@_0DH@NMAE@startNext?4?5process?5queue?5size?5?$CFd@ 00431418     csi_startdialog.obj
 0003:00002450       ??_C@_0N@CKJN@Man?4?5Start?3?5?$AA@ 00431450     csi_startdialog.obj
 0003:00002460       ??_C@_0M@EPML@Go?5Selected?$AA@ 00431460     csi_startdialog.obj
 0003:0000246c       ??_C@_0N@KDAH@Go?5From?5Here?$AA@ 0043146c     csi_startdialog.obj
 0003:0000247c       ??_C@_0BC@NOBH@Set?5No?5Auto?9start?$AA@ 0043147c     csi_startdialog.obj
 0003:00002490       ??_C@_0P@BDID@Set?5Auto?9start?$AA@ 00431490     csi_startdialog.obj
 0003:000024a0       ??_C@_04DFLL@Stop?$AA@     004314a0     csi_startdialog.obj
 0003:000024a8       ??_C@_05IMKO@Start?$AA@    004314a8     csi_startdialog.obj
 0003:000024b0       ??_C@_0FD@MEDP@checkStatus?4?5Running?5count?5?$CFd?4?5S@ 004314b0     csi_startdialog.obj
 0003:00002504       ??_C@_0BC@DPAF@1forceTerminate?$CI?$CJ?$AA@ 00431504     csi_startdialog.obj
 0003:00002518       ??_C@_0N@OAHE@Stopping?5All?$AA@ 00431518     csi_startdialog.obj
 0003:00002528       ??_C@_0BH@DJNH@?$CFd?5processes?5stopping?4?$AA@ 00431528     csi_startdialog.obj
 0003:00002540       ??_C@_0DL@JBGM@serious?5error?5?$DN?5request?5for?5envi@ 00431540     csi_startdialog.obj
 0003:0000257c       ??_C@_07PNPC@?$CDff7f40?$AA@ 0043157c     launchListViewItem.obj
 0003:00002584       ??_C@_07BJAI@?$CDffffd0?$AA@ 00431584     launchListViewItem.obj
 0003:0000258c       ??_C@_0M@OMFE@Stopped?3?5?$CF1?$AA@ 0043158c     launchListViewItem.obj
 0003:00002598       ??_C@_0P@GEMC@Man?4?5Start?3?5?$CF1?$AA@ 00431598     launchListViewItem.obj
 0003:000025a8       ??_C@_0BA@MMMG@First?5Start?3?5?$CF1?$AA@ 004315a8     launchListViewItem.obj
 0003:000025b8       ??_C@_0M@LOFA@Crashed?3?5?$CF1?$AA@ 004315b8     launchListViewItem.obj
 0003:000025c4       ??_C@_0P@LOHG@Stop?1Crash?3?5?$CF1?$AA@ 004315c4     launchListViewItem.obj
 0003:000025d4       ??_C@_0BD@LHED@dd?1MM?1yy?5hh?3mm?3ss?5?$AA@ 004315d4     launchListViewItem.obj
 0003:000025e8       ??_C@_07PCHH@Unknown?$AA@  004315e8     launchListViewItem.obj
 0003:000025f0       ??_C@_0BF@MGN@Crashed?5?$CIno?5restart?$CJ?$AA@ 004315f0     launchListViewItem.obj
 0003:00002608       ??_C@_0M@CCCF@Starting?4?4?4?$AA@ 00431608     launchListViewItem.obj
 0003:00002614       ??_C@_0BF@NGEF@Crashed?5?$CIrestarting?$CJ?$AA@ 00431614     launchListViewItem.obj
 0003:0000262c       ??_C@_0BH@CHIL@Crashed?5while?5stopping?$AA@ 0043162c     launchListViewItem.obj
 0003:00002644       ??_C@_0M@KCPA@NOT?5started?$AA@ 00431644     launchListViewItem.obj
 0003:00002650       ??_C@_0N@EGMD@Not?9Starting?$AA@ 00431650     launchListViewItem.obj
 0003:00002660       ??_C@_06FELP@Queued?$AA@   00431660     launchListViewItem.obj
 0003:00002668       ??_R0?AVlogDelete@@@8      00431668     logDelete.obj
 0003:00002680       ??_C@_0O@KIJA@?$CFs?1caplog?4ini?$AA@ 00431680     logDelete.obj
 0003:00002690       ??_C@_06OELI@Config?$AA@   00431690     logDelete.obj
 0003:00002698       ??_C@_0L@HICP@ConfigPath?$AA@ 00431698     logDelete.obj
 0003:000026a4       ??_C@_0BD@PDAO@c?3?1bncs_config?4ini?$AA@ 004316a4     logDelete.obj
 0003:000026b8       ??_C@_05BFJB@Paths?$AA@    004316b8     logDelete.obj
 0003:000026c0       ??_C@_0M@PEAE@LogFilePath?$AA@ 004316c0     logDelete.obj
 0003:000026cc       ??_C@_0L@KOLL@caplog?4ini?$AA@ 004316cc     logDelete.obj
 0003:000026d8       ??_C@_05HCIF@?1logs?$AA@   004316d8     logDelete.obj
 0003:000026e0       ??_C@_01FDLN@?1?$AA@       004316e0     logDelete.obj
 0003:000026e4       ??_C@_07FMEP@default?$AA@  004316e4     logDelete.obj
 0003:000026ec       ??_C@_08BPMN@daysback?$AA@ 004316ec     logDelete.obj
 0003:000026f8       ??_C@_0BD@IFKB@logDelete?5Finished?$AA@ 004316f8     logDelete.obj
 0003:0000270c       ??_C@_0BC@ILB@logDelete?5Started?$AA@ 0043170c     logDelete.obj
 0003:00002720       ??_C@_09LHGA@LogDelete?$AA@ 00431720     logDelete.obj
 0003:0000272c       ??_C@_0BM@MLHK@logDelete?3?3deleteOldFiles?$CI?$CJ?$AA@ 0043172c     logDelete.obj
 0003:00002748       ??_C@_0BA@LFGF@Deleting?5file?3?5?$AA@ 00431748     logDelete.obj
 0003:00002758       ??_C@_02OOND@?4?4?$AA@     00431758     logDelete.obj
 0003:0000275c       ??_C@_01PJCK@?4?$AA@       0043175c     logDelete.obj
 0003:00002760       ??_R0?AUQShared@@@8        00431760     logDelete.obj
 0003:00002778       ??_R0?AV?$QValueListPrivate@VQString@@@@@8 00431778     logDelete.obj
 0003:000027a8       ??_R0?AV?$QValueListNode@VQString@@@@@8 004317a8     logDelete.obj
 0003:000027d8       ??_R0?AVlogDialogBase@@@8  004317d8     logdialogimpl.obj
 0003:000027f8       ??_R0?AVlogDialog@@@8      004317f8     logdialogimpl.obj
 0003:00002810       ??_C@_0N@MKOM@?$CFs?2?$CFs?2?$CFs?4log?$AA@ 00431810     logdialogimpl.obj
 0003:00002820       ??_C@_0M@OFHL@c?3?2bncslogs?$AA@ 00431820     logdialogimpl.obj
 0003:0000282c       ??_C@_0L@PKIN@?$CFs?2?$CFs?2logs?$AA@ 0043182c     logdialogimpl.obj
 0003:00002838       ??_C@_0N@JEOL@1doRefresh?$CI?$CJ?$AA@ 00431838     logdialogimpl.obj
 0003:00002848       ??_C@_0L@KGNF@1doClose?$CI?$CJ?$AA@ 00431848     logdialogimpl.obj
 0003:00002854       ??_C@_0BD@BOKH@Unable?5to?5open?5?$CF1?$CB?$AA@ 00431854     logdialogimpl.obj
 0003:00002868       ??_C@_05CKBG@Error?$AA@    00431868     logdialogimpl.obj
 0003:00002870       ??_C@_0CD@NFEO@2messageReceived?$CI?5const?5QString?$CG@ 00431870     main.obj
 0003:00002894       ??_C@_0CM@INML@1singletonMessageReceived?$CI?5const@ 00431894     main.obj
 0003:000028c0       ??_C@_08HBFM@Wake?5up?$CB?$AA@ 004318c0     main.obj
 0003:000028cc       ??_C@_0BJ@LIJP@BNCS?5Workstation?5Manager?$AA@ 004318cc     main.obj
 0003:000028e8       ??_R0?AVnetComms@@@8       004318e8     netComms.obj
 0003:00002900       ??_R0?AVQSocketNotifier@@@8 00431900     netComms.obj
 0003:00002920       ??_R0?AVQIODevice@@@8      00431920     netComms.obj
 0003:00002938       ??_R0?AVQSocketDevice@@@8  00431938     netComms.obj
 0003:00002954       ??_C@_0BM@PMMK@Notifier?5not?5created?$CB?$CB?$CB?$CB?$CB?$CB?$CB?$AA@ 00431954     netComms.obj
 0003:00002970       ??_C@_0DC@DHII@Workstation?5tracker?5?9?5Notifier?5n@ 00431970     netComms.obj
 0003:000029a4       ??_C@_0CA@MCKH@netComms?3?3connect?$CI?$CJ?5?9?5Connected?$AA@ 004319a4     netComms.obj
 0003:000029c4       ??_C@_0BB@JGDH@Notifier?5created?$AA@ 004319c4     netComms.obj
 0003:000029d8       ??_C@_0BA@IGJB@2activated?$CIint?$CJ?$AA@ 004319d8     netComms.obj
 0003:000029e8       ??_C@_0N@BHBJ@1rxData?$CIint?$CJ?$AA@ 004319e8     netComms.obj
 0003:000029f8       ??_C@_0BP@PDBI@Can?8t?5create?5UDP?5listen?5socket?$AA@ 004319f8     netComms.obj
 0003:00002a18       ??_C@_0DF@OKC@Workstation?5tracker?5?9?5Can?8t?5crea@ 00431a18     netComms.obj
 0003:00002a50       ??_C@_07IJDM@0?40?40?40?$AA@ 00431a50     netComms.obj
 0003:00002a58       ??_C@_04GBLE@WS?$CF1?$AA@  00431a58     netComms.obj
 0003:00002a60       ??_C@_01GJD@?9?$AA@        00431a60     netComms.obj
 0003:00002a64       ??_C@_0BN@BHDF@Socket?5has?5disconnected?$CB?$CB?$CB?$CB?$CB?$AA@ 00431a64     netComms.obj
 0003:00002a84       ??_C@_07HKHC@Network?$AA@  00431a84     netComms.obj
 0003:00002a8c       ??_C@_07IADE@Channel?$AA@  00431a8c     netComms.obj
 0003:00002a94       ??_C@_0CE@HFCL@?$CFs?1?$CFs?1config?1system?1bncs_system?4@ 00431a94     netComms.obj
 0003:00002ab8       ??_C@_0M@OJKL@WS_Man_Text?$AA@ 00431ab8     netComms.obj
 0003:00002ac4       ??_C@_0N@EBBE@updateperiod?$AA@ 00431ac4     netComms.obj
 0003:00002ad4       ??_C@_04IOEK@port?$AA@     00431ad4     netComms.obj
 0003:00002adc       ??_C@_0CM@MKB@Workstation?5tracker?5?9?5No?5reserve@ 00431adc     netComms.obj
 0003:00002b08       ??_C@_0P@OMNJ@reserve_server?$AA@ 00431b08     netComms.obj
 0003:00002b18       ??_C@_0CJ@GDOP@Workstation?5tracker?5?9?5No?5main?5se@ 00431b18     netComms.obj
 0003:00002b44       ??_C@_09FGPH@WSTracker?$AA@ 00431b44     netComms.obj
 0003:00002b50       ??_C@_0M@KCED@main_server?$AA@ 00431b50     netComms.obj
 0003:00002b5c       ??_C@_0CB@FKJM@?$CFs?1?$CFs?1config?1system?1dev_?$CF03d?4ini@ 00431b5c     netComms.obj
 0003:00002b80       ??_C@_0CE@FNLK@Workstation?5tracker?5?9?5No?5device?5@ 00431b80     netComms.obj
 0003:00002ba4       ??_C@_07EBIG@device?$DN?$AA@ 00431ba4     netComms.obj
 0003:00002bac       ??_C@_0DF@FJGC@Workstation?5tracker?5?9?5No?5entry?5i@ 00431bac     netComms.obj
 0003:00002be4       ??_C@_03HJJN@ref?$AA@      00431be4     netComms.obj
 0003:00002be8       ??_C@_0BE@BEFF@workstation_tracker?$AA@ 00431be8     netComms.obj
 0003:00002bfc       ??_C@_02IBHF@id?$AA@       00431bfc     netComms.obj
 0003:00002c00       ??_C@_08IHDL@instance?$AA@ 00431c00     netComms.obj
 0003:00002c0c       ??_C@_09MMGO@instances?$AA@ 00431c0c     netComms.obj
 0003:00002c18       ??_C@_0CC@NFNM@Workstation?5tracker?5?9?5can?8t?5open@ 00431c18     netComms.obj
 0003:00002c3c       ??_C@_0BG@BLGI@?1config?1instances?4xml?$AA@ 00431c3c     netComms.obj
 0003:00002c54       ??_C@_0DD@PGBF@netComms?3?3sendStatus?$CI?$CJ?5?9?5Failed?5@ 00431c54     netComms.obj
 0003:00002c88       ??_C@_0DA@MGKE@Workstation?5tracker?5?9?5Failed?5to?5@ 00431c88     netComms.obj
 0003:00002cb8       ??_C@_0BF@NKFG@?$CF1?$HM?$CF2?$HM?$CF3?$HM?$CF4?$HM?$CF5?$HM?$CF6?$HM?$CF7?$AA@ 00431cb8     netComms.obj
 0003:00002cd0       ??_C@_0BG@CKF@can?8t?5set?5UDP?5sockopt?$AA@ 00431cd0     netComms.obj
 0003:00002ce8       ??_C@_0CM@NKLI@Workstation?5tracker?5?9?5can?8t?5set?5@ 00431ce8     netComms.obj
 0003:00002d14       ??_C@_03DMDD@?5?9?5?$AA@   00431d14     netComms.obj
 0003:00002d18       ??_C@_05NHLJ@WinME?$AA@    00431d18     netComms.obj
 0003:00002d20       ??_C@_05JCGO@Win98?$AA@    00431d20     netComms.obj
 0003:00002d28       ??_C@_05FIKL@WinXP?$AA@    00431d28     netComms.obj
 0003:00002d30       ??_C@_05MGBN@Win95?$AA@    00431d30     netComms.obj
 0003:00002d38       ??_C@_06PBBG@Win?5NT?$AA@  00431d38     netComms.obj
 0003:00002d40       ??_C@_05OPMM@Win2k?$AA@    00431d40     netComms.obj
 0003:00002d48       ??_C@_06EGBM@Win?5XP?$AA@  00431d48     netComms.obj
 0003:00002d50       ??_C@_0BL@NDIN@Win?5Server2003?$FLR2?$FN?1XP?$CI64b?$CJ?$AA@ 00431d50     netComms.obj
 0003:00002d6c       ??_C@_0O@IMGB@Windows?5?$CF1?4?$CF2?$AA@ 00431d6c     netComms.obj
 0003:00002d7c       ??_C@_0BH@KFLO@Win?58?41?1Server?52012?5R2?$AA@ 00431d7c     netComms.obj
 0003:00002d94       ??_C@_0BC@LOEK@Win?58?1Server?52012?$AA@ 00431d94     netComms.obj
 0003:00002da8       ??_C@_0BE@OPHH@Win?57?1Server?52008r2?$AA@ 00431da8     netComms.obj
 0003:00002dbc       ??_C@_0P@PEGC@Win?5Vista?12008?$AA@ 00431dbc     netComms.obj
 0003:00002dcc       ??_C@_0N@IDOE@kernel32?4dll?$AA@ 00431dcc     netComms.obj
 0003:00002ddc       ??_C@_0BE@HLBA@GetNativeSystemInfo?$AA@ 00431ddc     netComms.obj
 0003:00002df0       ??_C@_0CK@OJFI@netComms?3?3performAction?5?9?5unknow@ 00431df0     netComms.obj
 0003:00002e1c       ??_C@_07FEIE@restart?$AA@  00431e1c     netComms.obj
 0003:00002e24       ??_C@_05IIAE@start?$AA@    00431e24     netComms.obj
 0003:00002e2c       ??_C@_04JPPJ@stop?$AA@     00431e2c     netComms.obj
 0003:00002e34       ??_C@_0BI@PHJO@ASSERT?3?5?$CC?$CFs?$CC?5in?5?$CFs?5?$CI?$CFd?$CJ?$AA@ 00431e34     netComms.obj
 0003:00002e4c       ??_C@_0L@MGKG@i?5?$DM?$DN?5nodes?$AA@ 00431e4c     netComms.obj
 0003:00002e58       ??_C@_0CB@GILJ@C?3?2Qt?23?42?43?2include?2qvaluelist?4h@ 00431e58     netComms.obj
 0003:00002e80       ??_R0?AVQProcess@@@8       00431e80     processBase.obj
 0003:00002e98       ??_R0?AVprocessBase@@@8    00431e98     processBase.obj
 0003:00002eb4       ??_C@_0EC@NKBD@The?5wait?5was?5terminated?5because?5@ 00431eb4     processBase.obj
 0003:00002ef8       ??_C@_0EB@NAJH@?3?5The?5wait?5was?5terminated?5becaus@ 00431ef8     processBase.obj
 0003:00002f3c       ??_C@_0CK@GFDE@A?5process?5WaitForInputIdle?5error@ 00431f3c     processBase.obj
 0003:00002f68       ??_C@_0CC@BLKF@A?5WaitForInputIdle?5error?5occurre@ 00431f68     processBase.obj
 0003:00002f8c       ??_C@_0CC@IJLF@processBase?3?3Process?5?8?$CFs?8?5exited@ 00431f8c     processBase.obj
 0003:00002fb0       ??_C@_0CD@DMIH@Forcible?5termination?5disabled?5?8?$CF@ 00431fb0     processBase.obj
 0003:00002fd4       ??_C@_0BO@NENK@Force?5Terminate?5process?5?8?$CFs?8?4?$AA@ 00431fd4     processBase.obj
 0003:00002ff4       ??_C@_0BO@OEDF@Process?5?8?$CFs?8?5already?5stopped?4?$AA@ 00431ff4     processBase.obj
 0003:00003018       ??_R0?AVProgram@@@8        00432018     Program.obj
 0003:00003030       ??_R0?AVStopAllProgram@@@8 00432030     Program.obj
 0003:00003050       ??_C@_08HBL@Stop?5All?$AA@ 00432050     Program.obj
 0003:00003060       ??_R0?AVRestartAllProgram@@@8 00432060     Program.obj
 0003:00003080       ??_C@_0M@OMHI@Restart?5All?$AA@ 00432080     Program.obj
 0003:00003090       ??_R0?AVUpdateAndRestartProgram@@@8 00432090     Program.obj
 0003:000030b8       ??_C@_0BD@FBE@Update?5and?5Restart?$AA@ 004320b8     Program.obj
 0003:000030d0       ??_R0?AVInitializeProgram@@@8 004320d0     Program.obj
 0003:000030f0       ??_C@_0L@BBEA@Initialize?$AA@ 004320f0     Program.obj
 0003:00003100       ??_R0?AVStopAndTestProgram@@@8 00432100     Program.obj
 0003:00003124       ??_C@_0O@CEBD@Stop?5And?5Test?$AA@ 00432124     Program.obj
 0003:00003138       ??_R0?AVStopAndReloadLauncherProgram@@@8 00432138     Program.obj
 0003:00003164       ??_C@_0CG@BNDE@Stop?5?$CIif?5running?$CJ?5And?5Reload?5Lau@ 00432164     Program.obj
 0003:00003190       ??_R0?AVStartAndStopWithSyncProgram@@@8 00432190     Program.obj
 0003:000031bc       ??_C@_0BJ@BFJN@Start?5And?5Stop?5With?5Sync?$AA@ 004321bc     Program.obj
 0003:000031d8       ??_R0?AVStartAndStopNoSyncProgram@@@8 004321d8     Program.obj
 0003:00003200       ??_C@_0BH@PJHN@Start?5And?5Stop?5No?5Sync?$AA@ 00432200     Program.obj
 0003:00003218       ??_R0?AVRestartNoReloadLauncherProgram@@@8 00432218     Program.obj
 0003:00003248       ??_C@_0BL@PGGB@Restart?5No?5Reload?5Launcher?$AA@ 00432248     Program.obj
 0003:00003268       ??_R0?AVResyncAndReloadLauncherProgram@@@8 00432268     Program.obj
 0003:00003298       ??_C@_0BL@LEKI@Resync?5And?5Reload?5Launcher?$AA@ 00432298     Program.obj
 0003:000032b8       ??_R0?AVrestartDialogBase@@@8 004322b8     restartdialogimpl.obj
 0003:000032d8       ??_R0?AVrestartDialog@@@8  004322d8     restartdialogimpl.obj
 0003:000032f4       ??_C@_0BG@GIHC@Restarting?5in?5?$CF1?5secs?$AA@ 004322f4     restartdialogimpl.obj
 0003:00003310       ??_R0?AVQThread@@@8        00432310     restartThread.obj
 0003:00003328       ??_R0?AVrestartThread@@@8  00432328     restartThread.obj
 0003:00003344       ??_C@_0DP@OGOK@CSI?5failed?3?5Unclean?5reboot?5reque@ 00432344     restartThread.obj
 0003:00003388       ??_R0?AVstartCSI@@@8       00432388     startCSI.obj
 0003:000033a0       ??_C@_0N@GCNA@CC_DEVELOPER?$AA@ 004323a0     startCSI.obj
 0003:000033b0       ??_C@_0BE@PGCC@1csiProcessExited?$CI?$CJ?$AA@ 004323b0     startCSI.obj
 0003:000033c4       ??_C@_0N@FNBN@?1windows?1bin?$AA@ 004323c4     startCSI.obj
 0003:000033d4       ??_C@_0FO@JGMD@NOT?5Restarting?5machine?5on?5CSI?5fa@ 004323d4     startCSI.obj
 0003:00003434       ??_C@_0CK@PMMK@ERROR?3?5Unable?5to?5adjust?5token?5pr@ 00432434     startCSI.obj
 0003:00003460       ??_C@_0BE@NFOF@SeShutdownPrivilege?$AA@ 00432460     startCSI.obj
 0003:00003474       ??_C@_0CF@CBJL@ERROR?3?5Unable?5to?5open?5process?5to@ 00432474     startCSI.obj
 0003:0000349c       ??_C@_0CO@GLEF@CSI?5failed?3?5Clean?5reboot?5request@ 0043249c     startCSI.obj
 0003:000034cc       ??_C@_0IB@KLMH@CSI?5has?5crashed?6Developer?5mode?5?$CI@ 004324cc     startCSI.obj
 0003:00003550       ??_C@_0BJ@CAHP@Colledia?5Control?5WS?5Mgr?4?$AA@ 00432550     startCSI.obj
 0003:0000356c       ??_C@_0BB@BOFJ@csiProcessExited?$AA@ 0043256c     startCSI.obj
 0003:00003580       ??_R0?AVstartCSIHelper@@@8 00432580     startCSIHelper.obj
 0003:000035a0       ??_R0?AVSyncProcess@@@8    004325a0     SyncProcess.obj
 0003:000035bc       ??_C@_04GEKK@Err?3?$AA@    004325bc     SyncProcess.obj
 0003:000035c4       ??_C@_0N@OONK@BBC2NBIF?4INI?$AA@ 004325c4     SyncProcess.obj
 0003:000035d4       ??_C@_07HCCO@NetBIOS?$AA@  004325d4     SyncProcess.obj
 0003:000035dc       ??_C@_07JIK@Adaptor?$AA@   004325dc     SyncProcess.obj
 0003:000035e4       ??_C@_0N@OMPN@BBC_NBIF?4INI?$AA@ 004325e4     SyncProcess.obj
 0003:000035f4       ??_C@_0P@GFPM@DefaultAdaptor?$AA@ 004325f4     SyncProcess.obj
 0003:00003604       ??_C@_02HNAB@?91?$AA@      00432604     SyncProcess.obj
 0003:00003608       ??_C@_0BG@GDKD@?$CF1?2local_settings?4ini?$AA@ 00432608     SyncProcess.obj
 0003:00003620       ??_C@_0CE@LPBB@?$CF1?2?$CF2?2config?2system?2bncs_system?4@ 00432620     SyncProcess.obj
 0003:00003644       ??_C@_0M@PHEL@Workstation?$AA@ 00432644     SyncProcess.obj
 0003:00003650       ??_C@_0L@HBAC@?$CF1?2csi?4ini?$AA@ 00432650     SyncProcess.obj
 0003:0000365c       ??_C@_0BD@MFJP@c?3?2bncs_config?4ini?$AA@ 0043265c     SyncProcess.obj
 0003:00003670       ??_C@_0BD@DMFF@2readyReadStderr?$CI?$CJ?$AA@ 00432670     SyncProcess.obj
 0003:00003684       ??_C@_0O@PCJB@1readStderr?$CI?$CJ?$AA@ 00432684     SyncProcess.obj
 0003:00003694       ??_C@_0BD@GLPM@2readyReadStdout?$CI?$CJ?$AA@ 00432694     SyncProcess.obj
 0003:000036a8       ??_C@_0O@KFDI@1readStdout?$CI?$CJ?$AA@ 004326a8     SyncProcess.obj
 0003:000036b8       ??_C@_0BC@GMIA@2processExited?5?$CI?$CJ?$AA@ 004326b8     SyncProcess.obj
 0003:000036d0       ??_R0?AVNoSyncProcess@@@8  004326d0     SyncProcess.obj
 0003:000036ec       ??_C@_0BD@DGNM@Running?5nosync?4bat?$AA@ 004326ec     SyncProcess.obj
 0003:00003700       ??_C@_0BB@GCOI@Doing?5nosync?4bat?$AA@ 00432700     SyncProcess.obj
 0003:00003714       ??_C@_0BB@DOM@Unable?5to?5run?5?$CF1?$AA@ 00432714     SyncProcess.obj
 0003:00003728       ??_C@_0BI@MNLD@?2windows?2bin?2nosync?4bat?$AA@ 00432728     SyncProcess.obj
 0003:00003740       ??_C@_0BC@CJFG@No?9sync?5Finished?4?$AA@ 00432740     SyncProcess.obj
 0003:00003758       ??_R0?AVFileSyncProcess@@@8 00432758     SyncProcess.obj
 0003:00003778       ??_C@_0BG@BKLA@Running?5bncs_filesync?$AA@ 00432778     SyncProcess.obj
 0003:00003790       ??_C@_0BC@CIOD@Updating?5files?4?4?4?$AA@ 00432790     SyncProcess.obj
 0003:000037a4       ??_C@_0DJ@PC@Error?3?5File?5updating?5program?5?$CCbn@ 004327a4     SyncProcess.obj
 0003:000037e0       ??_C@_0DD@BPEP@?1exclude?$DNsource?0temp?0docs?0data?0i@ 004327e0     SyncProcess.obj
 0003:00003814       ??_C@_0N@DILP@presync?4bat?$CC?$AA@ 00432814     SyncProcess.obj
 0003:00003824       ??_C@_0L@MEJB@?1presync?$DN?$CC?$AA@ 00432824     SyncProcess.obj
 0003:00003830       ??_C@_0O@HBKG@postsync?4bat?$CC?$AA@ 00432830     SyncProcess.obj
 0003:00003840       ??_C@_0M@HPIJ@?1postsync?$DN?$CC?$AA@ 00432840     SyncProcess.obj
 0003:0000384c       ??_C@_07OMAB@?1delete?$AA@ 0043284c     SyncProcess.obj
 0003:00003854       ??_C@_06MCOK@?1dest?$DN?$AA@ 00432854     SyncProcess.obj
 0003:0000385c       ??_C@_0BA@MAJC@?1reservesource?$DN?$AA@ 0043285c     SyncProcess.obj
 0003:0000386c       ??_C@_0BH@PFP@CC_RESERVE_SERVER_ROOT?$AA@ 0043286c     SyncProcess.obj
 0003:00003884       ??_C@_08KLDC@?1source?$DN?$AA@ 00432884     SyncProcess.obj
 0003:00003890       ??_C@_0O@JOAB@bncs_filesync?$AA@ 00432890     SyncProcess.obj
 0003:000038a0       ??_C@_0O@PPGC@?2windows?2bin?2?$AA@ 004328a0     SyncProcess.obj
 0003:000038b0       ??_C@_0P@JIEM@Sync?5Finished?4?$AA@ 004328b0     SyncProcess.obj
 0003:000038c0       ??_C@_0OO@MLJN@Not?5attempting?5to?5use?5CC_WS_Mana@ 004328c0     SyncProcess.obj
 0003:000039b0       ??_C@_0ED@JKBD@Not?5attempting?5to?5use?5CC_WS_Mana@ 004329b0     SyncProcess.obj
 0003:000039f4       ??_C@_0CJ@OGOF@CC_WS_Manager_Update?5?9?5manually?5@ 004329f4     SyncProcess.obj
 0003:00003a20       ??_C@_0BH@FMNL@?5to?5update?5bncs_ws_man?$AA@ 00432a20     SyncProcess.obj
 0003:00003a38       ??_C@_0BC@ENCN@Unable?5to?5launch?5?$AA@ 00432a38     SyncProcess.obj
 0003:00003a4c       ??_C@_05JMMB@?1dir?$DN?$AA@ 00432a4c     SyncProcess.obj
 0003:00003a54       ??_C@_0M@HEID@?1VERYSILENT?$AA@ 00432a54     SyncProcess.obj
 0003:00003a60       ??_C@_04OOAI@?1SP?9?$AA@   00432a60     SyncProcess.obj
 0003:00003a68       ??_C@_01PCFE@?2?$AA@       00432a68     SyncProcess.obj
 0003:00003a6c       ??_C@_0BF@CENC@CC_WS_Manager_Update?$AA@ 00432a6c     SyncProcess.obj
 0003:00003a84       ??_C@_0CO@JNNI@Updating?5workstation?5manager?5and@ 00432a84     SyncProcess.obj
 0003:00003ab4       ??_C@_01PLJA@0?$AA@        00432ab4     SyncProcess.obj
 0003:00003ab8       ??_C@_0DH@IAEP@Tried?55?5times?5to?5update?5but?5fail@ 00432ab8     SyncProcess.obj
 0003:00003af0       ??_C@_0CG@HIEL@Workstation?5Manager?5running?5upda@ 00432af0     SyncProcess.obj
 0003:00003b18       ??_C@_0BL@JBDK@?1CC_WS_Manager_Update?1date?$AA@ 00432b18     SyncProcess.obj
 0003:00003b34       ??_C@_0P@LABL@BBC?5Technology?$AA@ 00432b34     SyncProcess.obj
 0003:00003b44       ??_C@_0M@GBAP@bncs_ws_man?$AA@ 00432b44     SyncProcess.obj
 0003:00003b50       ??_C@_0CG@CPHN@?1windows?1bin?1CC_WS_Manager_Updat@ 00432b50     SyncProcess.obj
 0003:00003b78       ??_C@_0BF@PIJA@?1WORKSTATION_MANAGER?$AA@ 00432b78     SyncProcess.obj
 0003:00003b90       ??_C@_0BC@GML@bncs_deferredCopy?$AA@ 00432b90     SyncProcess.obj
 0003:00003ba4       ??_C@_04KBPC@Blow?$AA@     00432ba4     SyncProcess.obj
 0003:00003bac       ??_C@_02NCFM@Up?$AA@       00432bac     SyncProcess.obj
 0003:00003bb0       ??_C@_0BG@LHJF@bncs_deferredSync?4dat?$AA@ 00432bb0     SyncProcess.obj
 0003:00003bc8       ??_R0?AVQSpacerItem@@@8    00432bc8     AboutDialogBase.obj
 0003:00003be8       ??_R0?AVQButton@@@8        00432be8     AboutDialogBase.obj
 0003:00003c00       ??_R0?AVQPushButton@@@8    00432c00     AboutDialogBase.obj
 0003:00003c20       ??_R0?AVQFrame@@@8         00432c20     AboutDialogBase.obj
 0003:00003c38       ??_R0?AVQLabel@@@8         00432c38     AboutDialogBase.obj
 0003:00003c50       ??_R0?AVQHBoxLayout@@@8    00432c50     AboutDialogBase.obj
 0003:00003c70       ??_R0?AVQLayoutItem@@@8    00432c70     AboutDialogBase.obj
 0003:00003c90       ??_R0?AVQLayout@@@8        00432c90     AboutDialogBase.obj
 0003:00003ca8       ??_R0?AVQBoxLayout@@@8     00432ca8     AboutDialogBase.obj
 0003:00003cc8       ??_R0?AVQVBoxLayout@@@8    00432cc8     AboutDialogBase.obj
 0003:00003ce4       ??_C@_09GLDH@1accept?$CI?$CJ?$AA@ 00432ce4     AboutDialogBase.obj
 0003:00003cf0       ??_C@_08HMAP@buttonOk?$AA@ 00432cf0     AboutDialogBase.obj
 0003:00003cfc       ??_C@_07EANJ@Layout1?$AA@  00432cfc     AboutDialogBase.obj
 0003:00003d04       ??_C@_0P@IHFA@copyrightLabel?$AA@ 00432d04     AboutDialogBase.obj
 0003:00003d14       ??_C@_0L@PABP@textLabel9?$AA@ 00432d14     AboutDialogBase.obj
 0003:00003d20       ??_C@_0L@FKII@textLabel8?$AA@ 00432d20     AboutDialogBase.obj
 0003:00003d2c       ??_C@_0BD@NPBJ@buildDateTimeLabel?$AA@ 00432d2c     AboutDialogBase.obj
 0003:00003d40       ??_C@_0N@FONF@versionLabel?$AA@ 00432d40     AboutDialogBase.obj
 0003:00003d50       ??_C@_08PMLL@layout13?$AA@ 00432d50     AboutDialogBase.obj
 0003:00003d5c       ??_C@_0M@GFDE@textLabel10?$AA@ 00432d5c     AboutDialogBase.obj
 0003:00003d68       ??_C@_0L@OPL@textLabel5?$AA@ 00432d68     AboutDialogBase.obj
 0003:00003d74       ??_C@_0L@KEGM@textLabel4?$AA@ 00432d74     AboutDialogBase.obj
 0003:00003d80       ??_C@_0L@PBIJ@textLabel3?$AA@ 00432d80     AboutDialogBase.obj
 0003:00003d8c       ??_C@_0L@FLBO@textLabel2?$AA@ 00432d8c     AboutDialogBase.obj
 0003:00003d98       ??_C@_08FGCM@layout12?$AA@ 00432d98     AboutDialogBase.obj
 0003:00003da4       ??_C@_08KJFO@layout14?$AA@ 00432da4     AboutDialogBase.obj
 0003:00003db0       ??_C@_0L@KEKH@textLabel1?$AA@ 00432db0     AboutDialogBase.obj
 0003:00003dbc       ??_C@_0BG@IBKF@AboutDialogBaseLayout?$AA@ 00432dbc     AboutDialogBase.obj
 0003:00003dd4       ??_C@_0BA@NBJA@AboutDialogBase?$AA@ 00432dd4     AboutDialogBase.obj
 0003:00003de4       ??_C@_03NOMH@?$CGOK?$AA@   00432de4     AboutDialogBase.obj
 0003:00003de8       ??_C@_09PDGB@copyright?$AA@ 00432de8     AboutDialogBase.obj
 0003:00003df4       ??_C@_0BL@HCMN@Mark?5Baldry?0?5Richard?5Kerry?$AA@ 00432df4     AboutDialogBase.obj
 0003:00003e10       ??_C@_0M@MPID@David?5Yates?$AA@ 00432e10     AboutDialogBase.obj
 0003:00003e1c       ??_C@_0BH@EKJK@build?5date?5time?5string?$AA@ 00432e1c     AboutDialogBase.obj
 0003:00003e34       ??_C@_0P@BEL@version?5string?$AA@ 00432e34     AboutDialogBase.obj
 0003:00003e44       ??_C@_09LKGE@Copyright?$AA@ 00432e44     AboutDialogBase.obj
 0003:00003e50       ??_C@_0BH@OEOB@Further?5development?5by?$AA@ 00432e50     AboutDialogBase.obj
 0003:00003e68       ??_C@_0BP@IECF@Derived?5from?5an?5application?5by?$AA@ 00432e68     AboutDialogBase.obj
 0003:00003e88       ??_C@_0BE@DKIL@Build?5Date?5and?5Time?$AA@ 00432e88     AboutDialogBase.obj
 0003:00003e9c       ??_C@_07MNFD@Version?$AA@  00432e9c     AboutDialogBase.obj
 0003:00003ea4       ??_C@_0BP@CKMF@About?5BNCS?5Workstation?5Manager?$AA@ 00432ea4     AboutDialogBase.obj
 0003:00003ec8       ??_R0?AVQPopupMenu@@@8     00432ec8     bncs_ws_mandialogbase.obj
 0003:00003ee8       ??_R0?AVQMenuData@@@8      00432ee8     bncs_ws_mandialogbase.obj
 0003:00003f00       ??_R0?AVQMenuBar@@@8       00432f00     bncs_ws_mandialogbase.obj
 0003:00003f18       ??_R0?AVQGroupBox@@@8      00432f18     bncs_ws_mandialogbase.obj
 0003:00003f30       ??_R0?AVQAction@@@8        00432f30     bncs_ws_mandialogbase.obj
 0003:00003f48       ??_C@_0O@OPA@MenuBarEditor?$AA@ 00432f48     bncs_ws_mandialogbase.obj
 0003:00003f58       ??_C@_0BA@LDCA@helpAboutAction?$AA@ 00432f58     bncs_ws_mandialogbase.obj
 0003:00003f68       ??_C@_0P@IMNP@fileExitAction?$AA@ 00432f68     bncs_ws_mandialogbase.obj
 0003:00003f78       ??_C@_0BO@PKFD@programResyncAndRestartAction?$AA@ 00432f78     bncs_ws_mandialogbase.obj
 0003:00003f98       ??_C@_0BI@IOCO@programRestartAllAction?$AA@ 00432f98     bncs_ws_mandialogbase.obj
 0003:00003fb0       ??_C@_0BF@DJBG@programStopAllAction?$AA@ 00432fb0     bncs_ws_mandialogbase.obj
 0003:00003fc8       ??_C@_0BL@HOJH@RestartAllWithUpdateButton?$AA@ 00432fc8     bncs_ws_mandialogbase.obj
 0003:00003fe4       ??_C@_0BB@KGHC@RestartAllButton?$AA@ 00432fe4     bncs_ws_mandialogbase.obj
 0003:00003ff8       ??_C@_0O@FKLG@StopAllButton?$AA@ 00432ff8     bncs_ws_mandialogbase.obj
 0003:00004008       ??_C@_0O@NLH@ViewLogButton?$AA@ 00433008     bncs_ws_mandialogbase.obj
 0003:00004018       ??_C@_0BD@LACL@labelWSTrackerText?$AA@ 00433018     bncs_ws_mandialogbase.obj
 0003:0000402c       ??_C@_09PBBG@groupBox2?$AA@ 0043302c     bncs_ws_mandialogbase.obj
 0003:00004038       ??_C@_07GNNE@layout2?$AA@  00433038     bncs_ws_mandialogbase.obj
 0003:00004040       ??_C@_0N@JLCJ@ProgramLabel?$AA@ 00433040     bncs_ws_mandialogbase.obj
 0003:00004050       ??_C@_0M@HCLN@StatusLabel?$AA@ 00433050     bncs_ws_mandialogbase.obj
 0003:0000405c       ??_C@_07DIDB@layout5?$AA@  0043305c     bncs_ws_mandialogbase.obj
 0003:00004064       ??_C@_09OKP@groupBox1?$AA@ 00433064     bncs_ws_mandialogbase.obj
 0003:00004070       ??_C@_0BM@OJGK@bncs_ws_manDialogBaseLayout?$AA@ 00433070     bncs_ws_mandialogbase.obj
 0003:0000408c       ??_C@_0BC@OAFG@qt_central_widget?$AA@ 0043308c     bncs_ws_mandialogbase.obj
 0003:000040a0       ??_C@_0BG@LKLI@bncs_ws_manDialogBase?$AA@ 004330a0     bncs_ws_mandialogbase.obj
 0003:000040b8       ??_C@_05KJAK@?$CGHelp?$AA@ 004330b8     bncs_ws_mandialogbase.obj
 0003:000040c0       ??_C@_08LECJ@?$CGProgram?$AA@ 004330c0     bncs_ws_mandialogbase.obj
 0003:000040cc       ??_C@_05CNCC@?$CGFile?$AA@ 004330cc     bncs_ws_mandialogbase.obj
 0003:000040d4       ??_C@_06JACP@?$CGAbout?$AA@ 004330d4     bncs_ws_mandialogbase.obj
 0003:000040dc       ??_C@_05COP@E?$CGxit?$AA@  004330dc     bncs_ws_mandialogbase.obj
 0003:000040e4       ??_C@_0BC@MBDI@Resync?5?$CG?$CG?5Restart?$AA@ 004330e4     bncs_ws_mandialogbase.obj
 0003:000040f8       ??_C@_08JKAH@View?5Log?$AA@ 004330f8     bncs_ws_mandialogbase.obj
 0003:00004104       ??_C@_0BC@FPJO@WSTracker?5Message?$AA@ 00433104     bncs_ws_mandialogbase.obj
 0003:00004118       ??_C@_06IOLI@Status?$AA@   00433118     bncs_ws_mandialogbase.obj
 0003:00004120       ??_C@_0CI@KNBA@Colledia?5Control?5Workstation?5Man@ 00433120     bncs_ws_mandialogbase.obj
 0003:00004148       ??_R0?AVQScrollView@@@8    00433148     csi_startdialogbase.obj
 0003:00004168       ??_R0?AVQListView@@@8      00433168     csi_startdialogbase.obj
 0003:00004180       ??_C@_0N@HDPM@doGoSelected?$AA@ 00433180     csi_startdialogbase.obj
 0003:00004190       ??_C@_0N@DLMK@doGoFromHere?$AA@ 00433190     csi_startdialogbase.obj
 0003:000041a0       ??_C@_06NDBI@doStop?$AA@   004331a0     csi_startdialogbase.obj
 0003:000041a8       ??_C@_07NIEI@doStart?$AA@  004331a8     csi_startdialogbase.obj
 0003:000041b0       ??_C@_07MHED@layout3?$AA@  004331b0     csi_startdialogbase.obj
 0003:000041b8       ??_C@_0BC@JPOM@Working?5Directory?$AA@ 004331b8     csi_startdialogbase.obj
 0003:000041cc       ??_C@_09IAIC@Arguments?$AA@ 004331cc     csi_startdialogbase.obj
 0003:000041d8       ??_C@_0L@KFHL@Last?5Event?$AA@ 004331d8     csi_startdialogbase.obj
 0003:000041e4       ??_C@_07NHIG@Crashes?$AA@  004331e4     csi_startdialogbase.obj
 0003:000041ec       ??_C@_0M@DAJ@Application?$AA@ 004331ec     csi_startdialogbase.obj
 0003:000041f8       ??_C@_09DIBB@listView1?$AA@ 004331f8     csi_startdialogbase.obj
 0003:00004204       ??_C@_0BK@MDMA@csi_startDialogBaseLayout?$AA@ 00433204     csi_startdialogbase.obj
 0003:00004220       ??_C@_0BE@DKCK@csi_startDialogBase?$AA@ 00433220     csi_startdialogbase.obj
 0003:00004234       ??_C@_09BLLB@csi_start?$AA@ 00433234     csi_startdialogbase.obj
 0003:00004240       ??_R0?AVQListBox@@@8       00433240     logdialog.obj
 0003:00004258       ??_C@_0M@LOLC@closeButton?$AA@ 00433258     logdialog.obj
 0003:00004264       ??_C@_0O@PFHG@refreshButton?$AA@ 00433264     logdialog.obj
 0003:00004274       ??_C@_0L@MIJN@listBoxLog?$AA@ 00433274     logdialog.obj
 0003:00004280       ??_C@_0BE@IBOJ@logDialogBaseLayout?$AA@ 00433280     logdialog.obj
 0003:00004294       ??_C@_0O@OLAD@logDialogBase?$AA@ 00433294     logdialog.obj
 0003:000042a4       ??_C@_05JIMF@Close?$AA@    004332a4     logdialog.obj
 0003:000042ac       ??_C@_07HCFN@Refresh?$AA@  004332ac     logdialog.obj
 0003:000042b4       ??_C@_0BP@EPOD@Workstation?5Manager?5Log?5Viewer?$AA@ 004332b4     logdialog.obj
 0003:000042d4       ??_C@_0BB@MOGM@languageChange?$CI?$CJ?$AA@ 004332d4     moc_AboutDialogBase.obj
 0003:000042e8       ??_C@_0P@COD@languageChange?$AA@ 004332e8     moc_AboutDialogBase.obj
 0003:000042f8       ??_C@_0CJ@DOJ@singletonMessageReceived?$CIconst?5Q@ 004332f8     moc_bncs_ws_mandialog.obj
 0003:00004324       ??_C@_0BD@PEGC@programSelect?$CIint?$CJ?$AA@ 00433324     moc_bncs_ws_mandialog.obj
 0003:00004338       ??_C@_0L@BFB@doLaunch?$CI?$CJ?$AA@ 00433338     moc_bncs_ws_mandialog.obj
 0003:00004344       ??_C@_0BD@LDIC@setStatus?$CIQString?$CJ?$AA@ 00433344     moc_bncs_ws_mandialog.obj
 0003:00004358       ??_C@_0BA@GKLO@showLogViewer?$CI?$CJ?$AA@ 00433358     moc_bncs_ws_mandialog.obj
 0003:00004368       ??_C@_0N@NALK@AboutClick?$CI?$CJ?$AA@ 00433368     moc_bncs_ws_mandialog.obj
 0003:00004378       ??_C@_0BC@ODLI@StopButtonClick?$CI?$CJ?$AA@ 00433378     moc_bncs_ws_mandialog.obj
 0003:0000438c       ??_C@_0BO@HDND@UpdateAndRestartButtonClick?$CI?$CJ?$AA@ 0043338c     moc_bncs_ws_mandialog.obj
 0003:000043ac       ??_C@_0BF@MDCP@RestartButtonClick?$CI?$CJ?$AA@ 004333ac     moc_bncs_ws_mandialog.obj
 0003:000043c4       ??_C@_0CI@BBIH@statusChange?$CIworkstationStatus?3?3@ 004333c4     moc_bncs_ws_mandialog.obj
 0003:000043ec       ??_C@_0L@PMFJ@startAll?$CI?$CJ?$AA@ 004333ec     moc_bncs_ws_mandialog.obj
 0003:000043f8       ??_C@_0M@DNFB@doStop?$CIint?$CJ?$AA@ 004333f8     moc_bncs_ws_mandialog.obj
 0003:00004404       ??_C@_0N@NAKF@doStart?$CIint?$CJ?$AA@ 00433404     moc_bncs_ws_mandialog.obj
 0003:00004414       ??_C@_0P@HCJB@doRestart?$CIint?$CJ?$AA@ 00433414     moc_bncs_ws_mandialog.obj
 0003:00004424       ??_C@_0M@MGOD@doRestart?$CI?$CJ?$AA@ 00433424     moc_bncs_ws_mandialog.obj
 0003:00004430       ??_C@_08ODLE@doStop?$CI?$CJ?$AA@ 00433430     moc_bncs_ws_mandialog.obj
 0003:0000443c       ??_C@_0BJ@JJGC@singletonMessageReceived?$AA@ 0043343c     moc_bncs_ws_mandialog.obj
 0003:000044a8       ??_C@_03MBOC@msg?$AA@      004334a8     moc_bncs_ws_mandialog.obj
 0003:000044ac       ??_C@_0O@BBKB@programSelect?$AA@ 004334ac     moc_bncs_ws_mandialog.obj
 0003:000044bc       ??_C@_08JNNG@doLaunch?$AA@ 004334bc     moc_bncs_ws_mandialog.obj
 0003:000044c8       ??_C@_09HFNP@setStatus?$AA@ 004334c8     moc_bncs_ws_mandialog.obj
 0003:000044d4       ??_C@_04EHCH@sMsg?$AA@     004334d4     moc_bncs_ws_mandialog.obj
 0003:000044dc       ??_C@_0O@BOOO@showLogViewer?$AA@ 004334dc     moc_bncs_ws_mandialog.obj
 0003:000044ec       ??_C@_0L@PIBP@AboutClick?$AA@ 004334ec     moc_bncs_ws_mandialog.obj
 0003:000044f8       ??_C@_0BA@BGPA@StopButtonClick?$AA@ 004334f8     moc_bncs_ws_mandialog.obj
 0003:00004508       ??_C@_0BM@MHG@UpdateAndRestartButtonClick?$AA@ 00433508     moc_bncs_ws_mandialog.obj
 0003:00004524       ??_C@_0BD@ICIF@RestartButtonClick?$AA@ 00433524     moc_bncs_ws_mandialog.obj
 0003:00004538       ??_C@_0N@HEHF@statusChange?$AA@ 00433538     moc_bncs_ws_mandialog.obj
 0003:00004548       ??_C@_06PFAC@iDelay?$AA@   00433548     moc_bncs_ws_mandialog.obj
 0003:00004550       ??_C@_09ODNE@doRestart?$AA@ 00433550     moc_bncs_ws_mandialog.obj
 0003:0000455c       ??_C@_0BC@IJLG@bncs_ws_manDialog?$AA@ 0043355c     moc_bncs_ws_mandialog.obj
 0003:00004570       ??_C@_0BK@MMFI@workstationStatus?3?3status?$AA@ 00433570     moc_bncs_ws_mandialog.obj
 0003:0000458c       ??_C@_0CI@EHFC@stateChanged?$CIworkstationStatus?3?3@ 0043358c     moc_csi_startdialog.obj
 0003:000045b4       ??_C@_09OFH@restart?$CI?$CJ?$AA@ 004335b4     moc_csi_startdialog.obj
 0003:000045c0       ??_C@_0N@FONH@stateChanged?$AA@ 004335c0     moc_csi_startdialog.obj
 0003:000045d0       ??_C@_0BN@GEMO@fixUpAutoStart?$CIprocessBase?$CK?$CJ?$AA@ 004335d0     moc_csi_startdialog.obj
 0003:000045f0       ??_C@_0BF@LOFM@doButtonGoSelected?$CI?$CJ?$AA@ 004335f0     moc_csi_startdialog.obj
 0003:00004608       ??_C@_0BF@MNAL@doButtonGoFromHere?$CI?$CJ?$AA@ 00433608     moc_csi_startdialog.obj
 0003:00004620       ??_C@_0P@GNE@doButtonStop?$CI?$CJ?$AA@ 00433620     moc_csi_startdialog.obj
 0003:00004630       ??_C@_0BA@DCBN@doButtonStart?$CI?$CJ?$AA@ 00433630     moc_csi_startdialog.obj
 0003:00004640       ??_C@_0BD@IABI@listItemSelected?$CI?$CJ?$AA@ 00433640     moc_csi_startdialog.obj
 0003:00004654       ??_C@_0DH@MJIJ@contextMenuRequested?$CIQListViewIt@ 00433654     moc_csi_startdialog.obj
 0003:0000468c       ??_C@_0BA@DHFB@processExited?$CI?$CJ?$AA@ 0043368c     moc_csi_startdialog.obj
 0003:0000469c       ??_C@_0P@EHOL@procDone?$CIbool?$CJ?$AA@ 0043369c     moc_csi_startdialog.obj
 0003:000046ac       ??_C@_0P@DPEC@fixUpAutoStart?$AA@ 004336ac     moc_csi_startdialog.obj
 0003:000046bc       ??_C@_0BD@KHHL@doButtonGoSelected?$AA@ 004336bc     moc_csi_startdialog.obj
 0003:000046d0       ??_C@_0BD@OPEN@doButtonGoFromHere?$AA@ 004336d0     moc_csi_startdialog.obj
 0003:000046e4       ??_C@_0N@HAFL@doButtonStop?$AA@ 004336e4     moc_csi_startdialog.obj
 0003:000046f4       ??_C@_0O@LIOL@doButtonStart?$AA@ 004336f4     moc_csi_startdialog.obj
 0003:00004704       ??_C@_0BB@OPJE@listItemSelected?$AA@ 00433704     moc_csi_startdialog.obj
 0003:00004718       ??_C@_0BF@HMMN@contextMenuRequested?$AA@ 00433718     moc_csi_startdialog.obj
 0003:00004730       ??_C@_0O@DEAI@processExited?$AA@ 00433730     moc_csi_startdialog.obj
 0003:00004740       ??_C@_08FJBP@procDone?$AA@ 00433740     moc_csi_startdialog.obj
 0003:00004760       ??_C@_02PHNH@ok?$AA@       00433760     moc_csi_startdialog.obj
 0003:00004764       ??_C@_0BA@PGOL@csi_startDialog?$AA@ 00433764     moc_csi_startdialog.obj
 0003:00004774       ??_C@_0M@IHAK@processBase?$AA@ 00433774     moc_csi_startdialog.obj
 0003:00004780       ??_C@_01KLMK@?$AO?$AA@     00433780     moc_csi_startdialog.obj
 0003:00004784       ??_C@_0O@GBOH@QListViewItem?$AA@ 00433784     moc_csi_startdialog.obj
 0003:00004794       ??_C@_09POGF@logDelete?$AA@ 00433794     moc_logDelete.obj
 0003:000047a0       ??_C@_0M@JKPI@doRefresh?$CI?$CJ?$AA@ 004337a0     moc_logdialogimpl.obj
 0003:000047ac       ??_C@_09CNHK@doClose?$CI?$CJ?$AA@ 004337ac     moc_logdialogimpl.obj
 0003:000047b8       ??_C@_09BHLJ@doRefresh?$AA@ 004337b8     moc_logdialogimpl.obj
 0003:000047c4       ??_C@_07MMCD@doClose?$AA@  004337c4     moc_logdialogimpl.obj
 0003:000047cc       ??_C@_09JGNP@logDialog?$AA@ 004337cc     moc_logdialogimpl.obj
 0003:000047d8       ??_C@_0L@GLGN@start?$CIint?$CJ?$AA@ 004337d8     moc_netComms.obj
 0003:000047e4       ??_C@_09PFOF@stop?$CIint?$CJ?$AA@ 004337e4     moc_netComms.obj
 0003:000047f0       ??_C@_0N@BLFK@restart?$CIint?$CJ?$AA@ 004337f0     moc_netComms.obj
 0003:00004800       ??_C@_0M@BJAK@rxData?$CIint?$CJ?$AA@ 00433800     moc_netComms.obj
 0003:0000480c       ??_C@_06OFCJ@rxData?$AA@   0043380c     moc_netComms.obj
 0003:00004828       ??_C@_01KBOJ@s?$AA@        00433828     moc_netComms.obj
 0003:0000482c       ??_C@_08GBGK@netComms?$AA@ 0043382c     moc_netComms.obj
 0003:00004838       ??_C@_0CD@CLBO@signalFixUpAutoStart?$CIprocessBase@ 00433838     moc_processBase.obj
 0003:0000485c       ??_C@_0L@CKL@done?$CIbool?$CJ?$AA@ 0043385c     moc_processBase.obj
 0003:00004868       ??_C@_0BF@DCND@signalFixUpAutoStart?$AA@ 00433868     moc_processBase.obj
 0003:000048a0       ??_C@_05OPFI@pProc?$AA@    004338a0     moc_processBase.obj
 0003:000048a8       ??_C@_04MIJD@done?$AA@     004338a8     moc_processBase.obj
 0003:000048b0       ??_C@_0BB@HDDB@fixUpAutoStart?$CI?$CJ?$AA@ 004338b0     moc_processBase.obj
 0003:000048c4       ??_C@_0BB@NAA@forceTerminate?$CI?$CJ?$AA@ 004338c4     moc_processBase.obj
 0003:000048d8       ??_C@_0P@BMI@forceTerminate?$AA@ 004338d8     moc_processBase.obj
 0003:000048e8       ??_C@_0BC@ELJL@restartDialogBase?$AA@ 004338e8     moc_restartdialog.obj
 0003:000048fc       ??_C@_0O@PPJ@restartDialog?$AA@ 004338fc     moc_restartdialogimpl.obj
 0003:0000490c       ??_C@_0BD@CLNG@csiProcessExited?$CI?$CJ?$AA@ 0043390c     moc_startCSI.obj
 0003:00004920       ??_C@_08JLFC@startCSI?$AA@ 00433920     moc_startCSI.obj
 0003:0000492c       ??_C@_0P@DNEB@startCSIHelper?$AA@ 0043392c     moc_startCSIHelper.obj
 0003:0000493c       ??_C@_0L@MIFL@finished?$CI?$CJ?$AA@ 0043393c     moc_SyncProcess.obj
 0003:00004948       ??_C@_08MOBI@finished?$AA@ 00433948     moc_SyncProcess.obj
 0003:00004968       ??_C@_08FJDC@sMessage?$AA@ 00433968     moc_SyncProcess.obj
 0003:00004974       ??_C@_0N@JIJP@readStderr?$CI?$CJ?$AA@ 00433974     moc_SyncProcess.obj
 0003:00004984       ??_C@_0N@MPDG@readStdout?$CI?$CJ?$AA@ 00433984     moc_SyncProcess.obj
 0003:00004994       ??_C@_0L@PGNC@readStderr?$AA@ 00433994     moc_SyncProcess.obj
 0003:000049a0       ??_C@_0L@FMGN@readStdout?$AA@ 004339a0     moc_SyncProcess.obj
 0003:000049ac       ??_C@_0M@ONFB@SyncProcess?$AA@ 004339ac     moc_SyncProcess.obj
 0003:000049b8       ??_C@_0O@HDBL@NoSyncProcess?$AA@ 004339b8     moc_SyncProcess.obj
 0003:000049c8       ??_C@_0BA@NDIF@FileSyncProcess?$AA@ 004339c8     moc_SyncProcess.obj
 0003:000049d8       ??_C@_09NEKG@1reject?$CI?$CJ?$AA@ 004339d8     restartdialog.obj
 0003:000049e4       ??_C@_0N@BDAB@buttonCancel?$AA@ 004339e4     restartdialog.obj
 0003:000049f4       ??_C@_0N@NFJH@buttonAccept?$AA@ 004339f4     restartdialog.obj
 0003:00004a04       ??_C@_0M@CDEF@statusLabel?$AA@ 00433a04     restartdialog.obj
 0003:00004a10       ??_C@_0L@FMOO@TextLabel1?$AA@ 00433a10     restartdialog.obj
 0003:00004a1c       ??_C@_0N@POHM@TextLabel1_2?$AA@ 00433a1c     restartdialog.obj
 0003:00004a2c       ??_C@_0BI@LGLL@restartDialogBaseLayout?$AA@ 00433a2c     restartdialog.obj
 0003:00004a44       ??_C@_05BCEE@Alt?$CLD?$AA@ 00433a44     restartdialog.obj
 0003:00004a4c       ??_C@_06BNFJ@?$CGDefer?$AA@ 00433a4c     restartdialog.obj
 0003:00004a54       ??_C@_05BBKD@Alt?$CLU?$AA@ 00433a54     restartdialog.obj
 0003:00004a5c       ??_C@_0BE@MDNG@?$CGUpdate?5and?5Restart?$AA@ 00433a5c     restartdialog.obj
 0003:00004a70       ??_C@_0BIH@GHJK@?$DMp?$DOWorkstation?5manager?5component@ 00433a70     restartdialog.obj
 0003:00004bf8       ??_C@_0BI@JOF@?$DMh1?$DORestarting?4?4?4?4?$DM?1h1?$DO?$AA@ 00433bf8     restartdialog.obj
 0003:00004c10       ??_C@_0CL@EHOO@Workstation?5Manager?5Restart?5Warn@ 00433c10     restartdialog.obj
 0003:00004c3c       ??_C@_01BJG@?6?$AA@        00433c3c     bncs_disklog:bncs_disklog.obj
 0003:00004c40       ??_C@_0CE@MPPH@bncs_disklog?3?5Can?8t?5open?5log?5fil@ 00433c40     bncs_disklog:bncs_disklog.obj
 0003:00004c64       ??_C@_0BH@JOFC@?$CFs?2?$CFs?2?$CF04d?$CF02d?$CF02d?4log?$AA@ 00433c64     bncs_disklog:bncs_disklog.obj
 0003:00004c7c       ??_C@_0BM@GACA@?$CFs?2?$CFs?2?$CF04d?$CF02d?$CF02d?9?$CF02d?4log?$AA@ 00433c7c     bncs_disklog:bncs_disklog.obj
 0003:00004c98       ??_C@_0BG@KLKP@localtime?5has?5failed?6?$AA@ 00433c98     bncs_disklog:bncs_disklog.obj
 0003:00004cb0       ??_C@_02PIMC@?$AN?6?$AA@   00433cb0     bncs_disklog:bncs_disklog.obj
 0003:00004cb4       ??_C@_02GIEM@?0?5?$AA@     00433cb4     bncs_disklog:bncs_disklog.obj
 0003:00004cb8       ??_C@_0BP@LJGD@?$CF02d?1?$CF02d?1?$CF04d?5?$CF02d?3?$CF02d?3?$CF02d?5?$AA@ 00433cb8     bncs_disklog:bncs_disklog.obj
 0003:00004cd8       ??_C@_0CA@NIKF@?2StringFileInfo?2?$CFs?2SpecialBuild?$AA@ 00433cd8     bncsversioninfo:cBncsVersion.obj
 0003:00004cf8       ??_C@_0CE@CKA@?2StringFileInfo?2?$CFs?2OriginalFileN@ 00433cf8     bncsversioninfo:cBncsVersion.obj
 0003:00004d1c       ??_C@_0CA@BBDI@?2StringFileInfo?2?$CFs?2PrivateBuild?$AA@ 00433d1c     bncsversioninfo:cBncsVersion.obj
 0003:00004d3c       ??_C@_0CD@GCNL@?2StringFileInfo?2?$CFs?2LegalTradeMar@ 00433d3c     bncsversioninfo:cBncsVersion.obj
 0003:00004d60       ??_C@_0BP@HFNO@?2StringFileInfo?2?$CFs?2CompanyName?$AA@ 00433d60     bncsversioninfo:cBncsVersion.obj
 0003:00004d80       ??_C@_0BP@OKDL@?2StringFileInfo?2?$CFs?2ProductName?$AA@ 00433d80     bncsversioninfo:cBncsVersion.obj
 0003:00004da0       ??_C@_0CA@FECA@?2StringFileInfo?2?$CFs?2InternalName?$AA@ 00433da0     bncsversioninfo:cBncsVersion.obj
 0003:00004dc0       ??_C@_0BM@IIGK@?2StringFileInfo?2?$CFs?2Comments?$AA@ 00433dc0     bncsversioninfo:cBncsVersion.obj
 0003:00004ddc       ??_C@_0CD@LFKN@?2StringFileInfo?2?$CFs?2FileDescripti@ 00433ddc     bncsversioninfo:cBncsVersion.obj
 0003:00004e00       ??_C@_01KMAE@?0?$AA@       00433e00     bncsversioninfo:cBncsVersion.obj
 0003:00004e04       ??_C@_0CB@PACC@2messageReceived?$CIconst?5QString?$CG?$CJ@ 00433e04     qtsingleapplication:qtsingleapplication_win.obj
 0003:00004e28       ??_C@_0BG@KDJG@1activateMainWidget?$CI?$CJ?$AA@ 00433e28     qtsingleapplication:qtsingleapplication_win.obj
 0003:00004e40       ??_C@_0CA@MGPF@messageReceived?$CIconst?5QString?$CG?$CJ?$AA@ 00433e40     qtsingleapplication:moc_qtsingleapplication.obj
 0003:00004e60       ??_C@_0BA@KNKB@messageReceived?$AA@ 00433e60     qtsingleapplication:moc_qtsingleapplication.obj
 0003:00004e80       ??_C@_07NPGL@message?$AA@  00433e80     qtsingleapplication:moc_qtsingleapplication.obj
 0003:00004e88       ??_C@_0BF@DPJF@activateMainWidget?$CI?$CJ?$AA@ 00433e88     qtsingleapplication:moc_qtsingleapplication.obj
 0003:00004ea0       ??_C@_0CA@LAIH@sendMessage?$CIconst?5QString?$CG?0int?$CJ?$AA@ 00433ea0     qtsingleapplication:moc_qtsingleapplication.obj
 0003:00004ec0       ??_C@_0BM@BFIN@sendMessage?$CIconst?5QString?$CG?$CJ?$AA@ 00433ec0     qtsingleapplication:moc_qtsingleapplication.obj
 0003:00004edc       ??_C@_0BD@DIIL@activateMainWidget?$AA@ 00433edc     qtsingleapplication:moc_qtsingleapplication.obj
 0003:00004ef0       ??_C@_0M@LKJJ@sendMessage?$AA@ 00433ef0     qtsingleapplication:moc_qtsingleapplication.obj
 0003:00004efc       ??_C@_0BE@NPLF@QtSingleApplication?$AA@ 00433efc     qtsingleapplication:moc_qtsingleapplication.obj
 0003:00004f10       ??_C@_07OGDM@timeout?$AA@  00433f10     qtsingleapplication:moc_qtsingleapplication.obj
 0003:00004f18       ??_R0?AVtype_info@@@8      00433f18     MSVCRT:ti_inst.obj
 0003:00004f30       ___defaultmatherr          00433f30     MSVCRT:merr.obj
 0003:00004f38       ??_C@_00A@?$AA@            00433f38     bncs_ws_mandialog.obj
 0003:00004f40       ?metaObj@AboutDialogBase@@0PAVQMetaObject@@A 00433f40     moc_AboutDialogBase.obj
 0003:00004f50       ?metaObj@bncs_ws_manDialog@@0PAVQMetaObject@@A 00433f50     moc_bncs_ws_mandialog.obj
 0003:00004f7c       ?metaObj@bncs_ws_manDialogBase@@0PAVQMetaObject@@A 00433f7c     moc_bncs_ws_mandialogbase.obj
 0003:00004f88       ?metaObj@csi_startDialog@@0PAVQMetaObject@@A 00433f88     moc_csi_startdialog.obj
 0003:00004fe4       ?metaObj@csi_startDialogBase@@0PAVQMetaObject@@A 00433fe4     moc_csi_startdialogbase.obj
 0003:00004fec       ?metaObj@logDelete@@0PAVQMetaObject@@A 00433fec     moc_logDelete.obj
 0003:00004ff4       ?metaObj@logDialogBase@@0PAVQMetaObject@@A 00433ff4     moc_logdialog.obj
 0003:00004ffc       ?metaObj@logDialog@@0PAVQMetaObject@@A 00433ffc     moc_logdialogimpl.obj
 0003:00005008       ?metaObj@netComms@@0PAVQMetaObject@@A 00434008     moc_netComms.obj
 0003:00005048       ?metaObj@processBase@@0PAVQMetaObject@@A 00434048     moc_processBase.obj
 0003:00005050       ?metaObj@restartDialogBase@@0PAVQMetaObject@@A 00434050     moc_restartdialog.obj
 0003:00005058       ?metaObj@restartDialog@@0PAVQMetaObject@@A 00434058     moc_restartdialogimpl.obj
 0003:00005060       ?metaObj@startCSI@@0PAVQMetaObject@@A 00434060     moc_startCSI.obj
 0003:00005068       ?metaObj@startCSIHelper@@0PAVQMetaObject@@A 00434068     moc_startCSIHelper.obj
 0003:0000507c       ?metaObj@SyncProcess@@0PAVQMetaObject@@A 0043407c     moc_SyncProcess.obj
 0003:00005080       ?metaObj@NoSyncProcess@@0PAVQMetaObject@@A 00434080     moc_SyncProcess.obj
 0003:00005084       ?metaObj@FileSyncProcess@@0PAVQMetaObject@@A 00434084     moc_SyncProcess.obj
 0003:00005090       ?metaObj@QtSingleApplication@@0PAVQMetaObject@@A 00434090     qtsingleapplication:moc_qtsingleapplication.obj
 0003:000050e8       __dowildcard               004340e8     MSVCRT:wildcard.obj
 0003:000050ec       __newmode                  004340ec     MSVCRT:_newmode.obj
 0003:000050f0       __commode                  004340f0     MSVCRT:xncommod.obj
 0003:000050f4       __fmode                    004340f4     MSVCRT:xtxtmode.obj
 0003:000050f8       __adjust_fdiv              004340f8     <common>
 0003:000050fc       ___onexitend               004340fc     <common>
 0003:00005100       ___onexitbegin             00434100     <common>

 entry point at        0001:0001748e

 Static symbols

 0001:00014240       _$E102                     00415240 f   moc_SyncProcess.obj
 0001:00014250       _$E99                      00415250 f   moc_SyncProcess.obj
 0001:00014270       _$E101                     00415270 f   moc_SyncProcess.obj
 0001:00014280       _$E100                     00415280 f   moc_SyncProcess.obj
 0001:00014530       _$E108                     00415530 f   moc_SyncProcess.obj
 0001:00014540       _$E105                     00415540 f   moc_SyncProcess.obj
 0001:00014560       _$E107                     00415560 f   moc_SyncProcess.obj
 0001:00014570       _$E106                     00415570 f   moc_SyncProcess.obj
 0001:000146b0       _$E113                     004156b0 f   moc_SyncProcess.obj
 0001:000146c0       _$E110                     004156c0 f   moc_SyncProcess.obj
 0001:000146e0       _$E112                     004156e0 f   moc_SyncProcess.obj
 0001:000146f0       _$E111                     004156f0 f   moc_SyncProcess.obj
 0001:000140e0       _$E99                      004150e0 f   moc_startCSIHelper.obj
 0001:000140f0       _$E96                      004150f0 f   moc_startCSIHelper.obj
 0001:00014110       _$E98                      00415110 f   moc_startCSIHelper.obj
 0001:00014120       _$E97                      00415120 f   moc_startCSIHelper.obj
 0001:00013f40       _$E101                     00414f40 f   moc_startCSI.obj
 0001:00013f50       _$E98                      00414f50 f   moc_startCSI.obj
 0001:00013f70       _$E100                     00414f70 f   moc_startCSI.obj
 0001:00013f80       _$E99                      00414f80 f   moc_startCSI.obj
 0001:00013dc0       _$E101                     00414dc0 f   moc_restartdialogimpl.obj
 0001:00013dd0       _$E98                      00414dd0 f   moc_restartdialogimpl.obj
 0001:00013df0       _$E100                     00414df0 f   moc_restartdialogimpl.obj
 0001:00013e00       _$E99                      00414e00 f   moc_restartdialogimpl.obj
 0001:00013bf0       _$E100                     00414bf0 f   moc_restartdialog.obj
 0001:00013c00       _$E97                      00414c00 f   moc_restartdialog.obj
 0001:00013c20       _$E99                      00414c20 f   moc_restartdialog.obj
 0001:00013c30       _$E98                      00414c30 f   moc_restartdialog.obj
 0001:000138a0       _$E100                     004148a0 f   moc_processBase.obj
 0001:000138b0       _$E97                      004148b0 f   moc_processBase.obj
 0001:000138d0       _$E99                      004148d0 f   moc_processBase.obj
 0001:000138e0       _$E98                      004148e0 f   moc_processBase.obj
 0001:000135c0       _$E99                      004145c0 f   moc_netComms.obj
 0001:000135d0       _$E96                      004145d0 f   moc_netComms.obj
 0001:000135f0       _$E98                      004145f0 f   moc_netComms.obj
 0001:00013600       _$E97                      00414600 f   moc_netComms.obj
 0001:00013450       _$E101                     00414450 f   moc_logdialogimpl.obj
 0001:00013460       _$E98                      00414460 f   moc_logdialogimpl.obj
 0001:00013480       _$E100                     00414480 f   moc_logdialogimpl.obj
 0001:00013490       _$E99                      00414490 f   moc_logdialogimpl.obj
 0001:000132a0       _$E100                     004142a0 f   moc_logdialog.obj
 0001:000132b0       _$E97                      004142b0 f   moc_logdialog.obj
 0001:000132d0       _$E99                      004142d0 f   moc_logdialog.obj
 0001:000132e0       _$E98                      004142e0 f   moc_logdialog.obj
 0001:00013140       _$E99                      00414140 f   moc_logDelete.obj
 0001:00013150       _$E96                      00414150 f   moc_logDelete.obj
 0001:00013170       _$E98                      00414170 f   moc_logDelete.obj
 0001:00013180       _$E97                      00414180 f   moc_logDelete.obj
 0001:00012f70       _$E99                      00413f70 f   moc_csi_startdialogbase.obj
 0001:00012f80       _$E96                      00413f80 f   moc_csi_startdialogbase.obj
 0001:00012fa0       _$E98                      00413fa0 f   moc_csi_startdialogbase.obj
 0001:00012fb0       _$E97                      00413fb0 f   moc_csi_startdialogbase.obj
 0001:00012b00       _$E110                     00413b00 f   moc_csi_startdialog.obj
 0001:00012b10       _$E107                     00413b10 f   moc_csi_startdialog.obj
 0001:00012b30       _$E109                     00413b30 f   moc_csi_startdialog.obj
 0001:00012b40       _$E108                     00413b40 f   moc_csi_startdialog.obj
 0001:00012910       _$E103                     00413910 f   moc_bncs_ws_mandialogbase.obj
 0001:00012920       _$E100                     00413920 f   moc_bncs_ws_mandialogbase.obj
 0001:00012940       _$E102                     00413940 f   moc_bncs_ws_mandialogbase.obj
 0001:00012950       _$E101                     00413950 f   moc_bncs_ws_mandialogbase.obj
 0001:000124f0       _$E111                     004134f0 f   moc_bncs_ws_mandialog.obj
 0001:00012500       _$E108                     00413500 f   moc_bncs_ws_mandialog.obj
 0001:00012520       _$E110                     00413520 f   moc_bncs_ws_mandialog.obj
 0001:00012530       _$E109                     00413530 f   moc_bncs_ws_mandialog.obj
 0001:00012320       _$E100                     00413320 f   moc_AboutDialogBase.obj
 0001:00012330       _$E97                      00413330 f   moc_AboutDialogBase.obj
 0001:00012350       _$E99                      00413350 f   moc_AboutDialogBase.obj
 0001:00012360       _$E98                      00413360 f   moc_AboutDialogBase.obj
 0001:00016030       _$E98                      00417030 f   qtsingleapplication:moc_qtsingleapplication.obj
 0001:00016040       _$E95                      00417040 f   qtsingleapplication:moc_qtsingleapplication.obj
 0001:00016060       _$E97                      00417060 f   qtsingleapplication:moc_qtsingleapplication.obj
 0001:00016070       _$E96                      00417070 f   qtsingleapplication:moc_qtsingleapplication.obj
 0001:000173f6       ?ArrayUnwindFilter@@YAHPAU_EXCEPTION_POINTERS@@@Z 004183f6 f   MSVCRT:ehvecdtr.obj

 1088 bytes saved through ICF

