 bncs_vis_ed

 Timestamp is 56ddff88 (Mon Mar 07 22:24:08 2016)

 Preferred load address is 00400000

 Start         Length     Name                   Class
 0001:00000000 0004feb8H .text                   CODE
 0001:0004fec0 0000a533H .text$x                 CODE
 0002:00000000 00001c30H .idata$5                DATA
 0002:00001c30 0000a11cH .rdata                  DATA
 0002:0000bd50 00009690H .xdata$x                DATA
 0002:000153e0 000000b4H .idata$2                DATA
 0002:00015494 00000014H .idata$3                DATA
 0002:000154a8 00001c30H .idata$4                DATA
 0002:000170d8 00012686H .idata$6                DATA
 0002:00029760 00000d2bH .edata                  DATA
 0003:00000000 00000004H .CRT$XCA                DATA
 0003:00000004 0000009cH .CRT$XCU                DATA
 0003:000000a0 00000004H .CRT$XCZ                DATA
 0003:000000a4 00000004H .CRT$XIA                DATA
 0003:000000a8 00000004H .CRT$XIZ                DATA
 0003:000000b0 000135d4H .data                   DATA
 0003:00013688 0000054cH .bss                    DATA
 0004:00000000 00000148H .rsrc$01                DATA
 0004:00000150 00003b98H .rsrc$02                DATA

  Address         Publics by Value              Rva+Base     Lib:Object

 0001:00000000       ??0controldrag@@QAE@ABVQString@@0PAVQWidget@@0_N@Z 00401000 f   controldrag.obj
 0001:00001030       ??_Gcontroldrag@@UAEPAXI@Z 00402030 f i controldrag.obj
 0001:00001030       ??_Econtroldrag@@UAEPAXI@Z 00402030 f i controldrag.obj
 0001:00001050       ??_EQTextDrag@@UAEPAXI@Z   00402050 f i controldrag.obj
 0001:00001050       ??_GQTextDrag@@UAEPAXI@Z   00402050 f i controldrag.obj
 0001:00001070       ??1controldrag@@UAE@XZ     00402070 f   controldrag.obj
 0001:00001080       ?readTemplate@controldrag@@AAEXAAVQString@@0@Z 00402080 f   controldrag.obj
 0001:000018e0       ?path@global@@SA?AVQString@@XZ 004028e0 f i controldrag.obj
 0001:000019c0       ?getNamedNode@controldrag@@AAE?AVQString@@ABV2@0@Z 004029c0 f   controldrag.obj
 0001:00001ed0       ?getDocumentElement@controldrag@@AAE_NABVQString@@0AAVQDomElement@@AAV2@@Z 00402ed0 f   controldrag.obj
 0001:000021c0       ??_EQTextDrag@@WCI@AEPAXI@Z 004031c0 f i controldrag.obj
 0001:000021d0       ??0device_list@@QAE@PAVQWidget@@PBDI@Z 004031d0 f   device_list.obj
 0001:000023a0       ?metaObject@device_list@@UBEPAVQMetaObject@@XZ 004033a0 f i device_list.obj
 0001:000023b0       ??_Edevice_list@@UAEPAXI@Z 004033b0 f i device_list.obj
 0001:000023b0       ??_Gdevice_list@@UAEPAXI@Z 004033b0 f i device_list.obj
 0001:000023d0       ??1device_list@@UAE@XZ     004033d0 f   device_list.obj
 0001:00002480       ?load@device_list@@QAEXAAVQString@@@Z 00403480 f   device_list.obj
 0001:00002dc0       ??_GQListViewItem@@UAEPAXI@Z 00403dc0 f i device_list.obj
 0001:00002dc0       ??_EQListViewItem@@UAEPAXI@Z 00403dc0 f i device_list.obj
 0001:00002de0       ?windowActivationChange@device_list@@EAEX_N@Z 00403de0 f   device_list.obj
 0001:00002f40       ?save@device_list@@QAEXXZ  00403f40 f   device_list.obj
 0001:000031d0       ?close@device_list@@UAE_N_N@Z 004041d0 f   device_list.obj
 0001:000032e0       ?contextMenuRequested@device_list@@AAEXPAVQListViewItem@@ABVQPoint@@H@Z 004042e0 f   device_list.obj
 0001:000039e0       ?copy@device_list@@QAEXXZ  004049e0 f   device_list.obj
 0001:000039f0       ?cut@device_list@@QAEXXZ   004049f0 f   device_list.obj
 0001:00003a00       ?copy@device_list@@QAEX_N@Z 00404a00 f   device_list.obj
 0001:00003dd0       ??0delete_undo@@QAE@HAAVQString@@PAVQWidget@@V1@22@Z 00404dd0 f i device_list.obj
 0001:00003f50       ?undo@delete_undo@@UAEXXZ  00404f50 f i device_list.obj
 0001:00004060       ?paste@device_list@@QAEXXZ 00405060 f   device_list.obj
 0001:000045d0       ?undo@new_undo@@UAEXXZ     004055d0 f i device_list.obj
 0001:00004740       ?undo@device_list@@QAEXXZ  00405740 f   device_list.obj
 0001:000047e0       ?del@device_list@@QAEXXZ   004057e0 f   device_list.obj
 0001:00004950       ?doubleClicked@device_list@@AAEXPAVQListViewItem@@@Z 00405950 f   device_list.obj
 0001:00004bc0       ??0change_undo@@QAE@HAAVQString@@PAVQWidget@@PAVQListViewItem@@V1@33@Z 00405bc0 f i device_list.obj
 0001:00004e50       ?undo@change_undo@@UAEXXZ  00405e50 f i device_list.obj
 0001:00004fe0       ?newline@device_list@@QAEXXZ 00405fe0 f   device_list.obj
 0001:00005390       ?keyPressEvent@device_list@@EAEXPAVQKeyEvent@@@Z 00406390 f   device_list.obj
 0001:00005410       ?revert@device_list@@QAEXXZ 00406410 f   device_list.obj
 0001:00005540       ?checkForDuplicates@device_list@@AAEHH@Z 00406540 f   device_list.obj
 0001:00005700       ??1?$QPtrStack@Vundo_event@@@@UAE@XZ 00406700 f i device_list.obj
 0001:00005760       ?count@?$QPtrStack@Vundo_event@@@@UBEIXZ 00406760 f i device_list.obj
 0001:00005760       ?count@?$QPtrStack@Vw_undo_event@@@@UBEIXZ 00406760 f i device_list.obj
 0001:00005760       ?count@?$QPtrList@VsignalConnection@@@@UBEIXZ 00406760 f i device_list.obj
 0001:00005770       ??_E?$QPtrStack@Vundo_event@@@@UAEPAXI@Z 00406770 f i device_list.obj
 0001:00005770       ??_G?$QPtrStack@Vundo_event@@@@UAEPAXI@Z 00406770 f i device_list.obj
 0001:00005790       ?deleteItem@?$QPtrStack@Vundo_event@@@@EAEXPAX@Z 00406790 f i device_list.obj
 0001:00005790       ?deleteItem@?$QPtrStack@Vw_undo_event@@@@EAEXPAX@Z 00406790 f i device_list.obj
 0001:000057c0       ?at@?$QValueListPrivate@VQString@@@@QBEPAV?$QValueListNode@VQString@@@@I@Z 004067c0 f i device_list.obj
 0001:00005800       ??_Edevice_list@@WCI@AEPAXI@Z 00406800 f i device_list.obj
 0001:00005810       ?metaObject@device_list_editBase@@UBEPAVQMetaObject@@XZ 00406810 f i device_list_edit_imp.obj
 0001:00005820       ??_Gdevice_list_edit@@UAEPAXI@Z 00406820 f i device_list_edit_imp.obj
 0001:00005820       ??_Edevice_list_edit@@UAEPAXI@Z 00406820 f i device_list_edit_imp.obj
 0001:00005840       ??0device_list_edit@@QAE@PAVQWidget@@PAVQListViewItem@@@Z 00406840 f   device_list_edit_imp.obj
 0001:000059d0       ??1device_list_edit@@UAE@XZ 004069d0 f   device_list_edit_imp.obj
 0001:000059f0       ?loadTypes@device_list_edit@@QAEXXZ 004069f0 f   device_list_edit_imp.obj
 0001:00005ab0       ?loadDrivers@device_list_edit@@QAEXXZ 00406ab0 f   device_list_edit_imp.obj
 0001:00005b70       ?xmlToComboBox@device_list_edit@@QAEXVQString@@00PAVQComboBox@@@Z 00406b70 f   device_list_edit_imp.obj
 0001:00006200       ??_Edevice_list_edit@@WCI@AEPAXI@Z 00407200 f i device_list_edit_imp.obj
 0001:00006210       ??0deviceTypeListView@@QAE@PAVQWidget@@PBDI@Z 00407210 f   deviceTypeListView.obj
 0001:000063c0       ?metaObject@deviceTypeListView@@UBEPAVQMetaObject@@XZ 004073c0 f i deviceTypeListView.obj
 0001:000063d0       ??_EdeviceTypeListView@@UAEPAXI@Z 004073d0 f i deviceTypeListView.obj
 0001:000063d0       ??_GdeviceTypeListView@@UAEPAXI@Z 004073d0 f i deviceTypeListView.obj
 0001:000063f0       ??1deviceTypeListView@@UAE@XZ 004073f0 f   deviceTypeListView.obj
 0001:00006470       ?load@deviceTypeListView@@QAEXAAVQString@@@Z 00407470 f   deviceTypeListView.obj
 0001:00006d10       ?startDrag@deviceTypeListView@@UAEXXZ 00407d10 f   deviceTypeListView.obj
 0001:00006d30       ?setWithSlotSet@deviceTypeListView@@QAEX_N@Z 00407d30 f   deviceTypeListView.obj
 0001:00006d50       ??_EdeviceTypeListView@@WCI@AEPAXI@Z 00407d50 f i deviceTypeListView.obj
 0001:00006d60       ??0signalConnection@@QAE@ABVQString@@0000@Z 00407d60 f i dialog.obj
 0001:00006e60       ??0signalConnection@@QAE@ABV0@@Z 00407e60 f i dialog.obj
 0001:00006ee0       ??4signalConnection@@QAEAAV0@ABV0@@Z 00407ee0 f i dialog.obj
 0001:00006f20       ??1signalConnection@@QAE@XZ 00407f20 f i dialog.obj
 0001:00006ff0       ??0signalConnectionRefList@@QAE@XZ 00407ff0 f i dialog.obj
 0001:00007010       ??0signalConnectionRefList@@QAE@ABV0@@Z 00408010 f i dialog.obj
 0001:00007030       ??1signalConnectionRefList@@UAE@XZ 00408030 f i dialog.obj
 0001:000070a0       ??4signalConnectionRefList@@QAEAAV0@ABV0@@Z 004080a0 f i dialog.obj
 0001:000070b0       ??_EsignalConnectionRefList@@UAEPAXI@Z 004080b0 f i dialog.obj
 0001:00007110       ??0signalConnectionRefListIt@@QAE@ABVsignalConnectionRefList@@@Z 00408110 f i dialog.obj
 0001:00007130       ??4signalConnectionRefListIt@@QAEAAV0@ABV0@@Z 00408130 f i dialog.obj
 0001:00007150       ??0signalConnectionRefListIt@@QAE@ABV0@@Z 00408150 f i dialog.obj
 0001:00007170       ??1?$QPtrListIterator@VsignalConnection@@@@QAE@XZ 00408170 f i dialog.obj
 0001:00007170       ??1signalConnectionRefListIt@@QAE@XZ 00408170 f i dialog.obj
 0001:00007180       ??0dialog@@QAE@PAVQWidget@@PAVQMainWindow@@PBDIABVQString@@@Z 00408180 f   dialog.obj
 0001:000072d0       ?metaObject@dialog@@UBEPAVQMetaObject@@XZ 004082d0 f i dialog.obj
 0001:000072e0       ??_Gdialog@@UAEPAXI@Z      004082e0 f i dialog.obj
 0001:000072e0       ??_Edialog@@UAEPAXI@Z      004082e0 f i dialog.obj
 0001:00007300       ??1dialog@@UAE@XZ          00408300 f   dialog.obj
 0001:00007370       ?styleChange@dialog@@EAEXAAVQStyle@@@Z 00408370 f   dialog.obj
 0001:00007390       ?setFilename@dialog@@QAEXPBD@Z 00408390 f   dialog.obj
 0001:000073c0       ?close@dialog@@UAE_N_N@Z   004083c0 f   dialog.obj
 0001:00007410       ?windowActivated@dialog@@QAEXPAVQWidget@@@Z 00408410 f   dialog.obj
 0001:00007450       ?save@dialog@@QAEXXZ       00408450 f   dialog.obj
 0001:00007470       ?saveas@dialog@@QAEXXZ     00408470 f   dialog.obj
 0001:00007490       ?caption@dialog@@QAEXAAVQString@@@Z 00408490 f   dialog.obj
 0001:000074a0       ?comboBoxesMessage@dialog@@QAEXABVQString@@@Z 004084a0 f   dialog.obj
 0001:000074c0       ?showEvent@dialog@@EAEXPAVQShowEvent@@@Z 004084c0 f   dialog.obj
 0001:000074f0       ?hideEvent@dialog@@EAEXPAVQHideEvent@@@Z 004084f0 f   dialog.obj
 0001:00007520       ??1?$QPtrList@VsignalConnection@@@@UAE@XZ 00408520 f i dialog.obj
 0001:00007580       ?clear@?$QPtrStack@Vw_undo_event@@@@UAEXXZ 00408580 f i dialog.obj
 0001:00007580       ?clear@?$QPtrStack@Vundo_event@@@@UAEXXZ 00408580 f i dialog.obj
 0001:00007580       ?clear@?$QPtrList@VsignalConnection@@@@UAEXXZ 00408580 f i dialog.obj
 0001:00007590       ??_G?$QPtrList@VsignalConnection@@@@UAEPAXI@Z 00408590 f i dialog.obj
 0001:00007590       ??_E?$QPtrList@VsignalConnection@@@@UAEPAXI@Z 00408590 f i dialog.obj
 0001:000075b0       ?deleteItem@?$QPtrList@VsignalConnection@@@@EAEXPAX@Z 004085b0 f i dialog.obj
 0001:000075e0       ??_Edialog@@WCI@AEPAXI@Z   004085e0 f i dialog.obj
 0001:000075f0       ??0dialogedit@@QAE@PAVQWidget@@PBD_NI@Z 004085f0 f   dialogeditimpl.obj
 0001:00007630       ?metaObject@dialogedit@@UBEPAVQMetaObject@@XZ 00408630 f i dialogeditimpl.obj
 0001:00007640       ??_Gdialogedit@@UAEPAXI@Z  00408640 f i dialogeditimpl.obj
 0001:00007640       ??_Edialogedit@@UAEPAXI@Z  00408640 f i dialogeditimpl.obj
 0001:00007660       ??1dialogedit@@UAE@XZ      00408660 f   dialogeditimpl.obj
 0001:00007680       ??_Edialogedit@@WCI@AEPAXI@Z 00408680 f i dialogeditimpl.obj
 0001:00007690       ??_GQSpacerItem@@UAEPAXI@Z 00408690 f i distribute.obj
 0001:00007690       ??_EQSpacerItem@@UAEPAXI@Z 00408690 f i distribute.obj
 0001:000076b0       ??_EQVBoxLayout@@UAEPAXI@Z 004086b0 f i distribute.obj
 0001:000076b0       ??_GQVBoxLayout@@UAEPAXI@Z 004086b0 f i distribute.obj
 0001:000076d0       ??_EQHBoxLayout@@UAEPAXI@Z 004086d0 f i distribute.obj
 0001:000076d0       ??_GQHBoxLayout@@UAEPAXI@Z 004086d0 f i distribute.obj
 0001:000076f0       ??_GQButtonGroup@@UAEPAXI@Z 004086f0 f i distribute.obj
 0001:000076f0       ??_EQButtonGroup@@UAEPAXI@Z 004086f0 f i distribute.obj
 0001:00007710       ??_GQRadioButton@@UAEPAXI@Z 00408710 f i distribute.obj
 0001:00007710       ??_EQRadioButton@@UAEPAXI@Z 00408710 f i distribute.obj
 0001:00007730       ??_EQPushButton@@UAEPAXI@Z 00408730 f i distribute.obj
 0001:00007730       ??_GQPushButton@@UAEPAXI@Z 00408730 f i distribute.obj
 0001:00007750       ??_EQPushButton@@WCI@AEPAXI@Z 00408750 f i distribute.obj
 0001:00007760       ??_EQVBoxLayout@@WCI@AEPAXI@Z 00408760 f i distribute.obj
 0001:00007770       ??_EQHBoxLayout@@WCI@AEPAXI@Z 00408770 f i distribute.obj
 0001:00007780       ??_EQButtonGroup@@WCI@AEPAXI@Z 00408780 f i distribute.obj
 0001:00007790       ??_EQRadioButton@@WCI@AEPAXI@Z 00408790 f i distribute.obj
 0001:000077a0       ??0duplicateDlg@@QAE@PAVQWidget@@PBD_NI@Z 004087a0 f   duplicatedlgimpl.obj
 0001:000077e0       ?metaObject@duplicateDlg@@UBEPAVQMetaObject@@XZ 004087e0 f i duplicatedlgimpl.obj
 0001:000077f0       ??_GduplicateDlg@@UAEPAXI@Z 004087f0 f i duplicatedlgimpl.obj
 0001:000077f0       ??_EduplicateDlg@@UAEPAXI@Z 004087f0 f i duplicatedlgimpl.obj
 0001:00007810       ??1duplicateDlg@@UAE@XZ    00408810 f   duplicatedlgimpl.obj
 0001:00007830       ??_EduplicateDlg@@WCI@AEPAXI@Z 00408830 f i duplicatedlgimpl.obj
 0001:00007840       ??0editHandles@@QAE@PAVQWidget@@0_N@Z 00408840 f   editHandles.obj
 0001:00007a00       ?metaObject@editHandles@@UBEPAVQMetaObject@@XZ 00408a00 f i editHandles.obj
 0001:00007a10       ??_GeditHandles@@UAEPAXI@Z 00408a10 f i editHandles.obj
 0001:00007a10       ??_EeditHandles@@UAEPAXI@Z 00408a10 f i editHandles.obj
 0001:00007a30       ??1editHandles@@UAE@XZ     00408a30 f   editHandles.obj
 0001:00007a50       ?paintEvent@editHandles@@MAEXPAVQPaintEvent@@@Z 00408a50 f   editHandles.obj
 0001:00007c80       ?resizeEvent@editHandles@@MAEXPAVQResizeEvent@@@Z 00408c80 f   editHandles.obj
 0001:00008090       ?mouseMoveEvent@editHandles@@MAEXPAVQMouseEvent@@@Z 00409090 f   editHandles.obj
 0001:000085e0       ?mousePressEvent@editHandles@@MAEXPAVQMouseEvent@@@Z 004095e0 f   editHandles.obj
 0001:00008640       ?mouseReleaseEvent@editHandles@@MAEXPAVQMouseEvent@@@Z 00409640 f   editHandles.obj
 0001:000087f0       ?getCorner@editHandles@@AAE?AW4corner@@HH@Z 004097f0 f   editHandles.obj
 0001:000088a0       ??_EeditHandles@@WCI@AEPAXI@Z 004098a0 f i editHandles.obj
 0001:000088b0       ?encodeReservedChar@@YA?AVQString@@ABV1@@Z 004098b0 f   encodeReservedChar.obj
 0001:00008bb0       ??0file_new@@QAE@PAVQWidget@@PBD_NI@Z 00409bb0 f   file_new_imp.obj
 0001:00009030       ?metaObject@file_new@@UBEPAVQMetaObject@@XZ 0040a030 f i file_new_imp.obj
 0001:00009040       ??_Gfile_new@@UAEPAXI@Z    0040a040 f i file_new_imp.obj
 0001:00009040       ??_Efile_new@@UAEPAXI@Z    0040a040 f i file_new_imp.obj
 0001:00009060       ??_GQIconViewItem@@UAEPAXI@Z 0040a060 f i file_new_imp.obj
 0001:00009060       ??_EQIconViewItem@@UAEPAXI@Z 0040a060 f i file_new_imp.obj
 0001:00009080       ??1file_new@@UAE@XZ        0040a080 f   file_new_imp.obj
 0001:000090a0       ?doubleClicked@file_new@@QAEXPAVQIconViewItem@@@Z 0040a0a0 f   file_new_imp.obj
 0001:000090b0       ?doHelp@file_new@@QAEXXZ   0040a0b0 f   file_new_imp.obj
 0001:00009170       ?selection@file_new@@QAE?AVQString@@XZ 0040a170 f   file_new_imp.obj
 0001:000091c0       ??_Efile_new@@WCI@AEPAXI@Z 0040a1c0 f i file_new_imp.obj
 0001:000091d0       ??0globalStyleDlg@@QAE@PAVQWidget@@PBD_NI@Z 0040a1d0 f   globalstyledlgimpl.obj
 0001:00009270       ?metaObject@globalStyleDlg@@UBEPAVQMetaObject@@XZ 0040a270 f i globalstyledlgimpl.obj
 0001:00009280       ??_GglobalStyleDlg@@UAEPAXI@Z 0040a280 f i globalstyledlgimpl.obj
 0001:00009280       ??_EglobalStyleDlg@@UAEPAXI@Z 0040a280 f i globalstyledlgimpl.obj
 0001:000092a0       ??1globalStyleDlg@@UAE@XZ  0040a2a0 f   globalstyledlgimpl.obj
 0001:000092c0       ?backgroundColourPicker@globalStyleDlg@@QAEXXZ 0040a2c0 f   globalstyledlgimpl.obj
 0001:000093b0       ?defaultBgColourSelected@globalStyleDlg@@QAEX_N@Z 0040a3b0 f   globalstyledlgimpl.obj
 0001:000093e0       ??_EglobalStyleDlg@@WCI@AEPAXI@Z 0040a3e0 f i globalstyledlgimpl.obj
 0001:000093f0       ??0handleBlock@@QAE@PAVQWidget@@0H_N@Z 0040a3f0 f   handleBlock.obj
 0001:000096f0       ?metaObject@handleBlock@@UBEPAVQMetaObject@@XZ 0040a6f0 f i handleBlock.obj
 0001:00009700       ??_GhandleBlock@@UAEPAXI@Z 0040a700 f i handleBlock.obj
 0001:00009700       ??_EhandleBlock@@UAEPAXI@Z 0040a700 f i handleBlock.obj
 0001:00009720       ??1handleBlock@@UAE@XZ     0040a720 f i handleBlock.obj
 0001:00009730       ?paintEvent@handleBlock@@UAEXPAVQPaintEvent@@@Z 0040a730 f   handleBlock.obj
 0001:00009830       ?mousePressEvent@handleBlock@@UAEXPAVQMouseEvent@@@Z 0040a830 f   handleBlock.obj
 0001:00009860       ?mouseReleaseEvent@handleBlock@@UAEXPAVQMouseEvent@@@Z 0040a860 f   handleBlock.obj
 0001:000099e0       ?mouseMoveEvent@handleBlock@@UAEXPAVQMouseEvent@@@Z 0040a9e0 f   handleBlock.obj
 0001:00009ce0       ??_EhandleBlock@@WCI@AEPAXI@Z 0040ace0 f i handleBlock.obj
 0001:00009cf0       ??0importSettings@@QAE@PAVQWidget@@PBD_NI@Z 0040acf0 f   importsettingsimpl.obj
 0001:0000a390       ?metaObject@importSettings@@UBEPAVQMetaObject@@XZ 0040b390 f i importsettingsimpl.obj
 0001:0000a3a0       ??_EimportSettings@@UAEPAXI@Z 0040b3a0 f i importsettingsimpl.obj
 0001:0000a3a0       ??_GimportSettings@@UAEPAXI@Z 0040b3a0 f i importsettingsimpl.obj
 0001:0000a3c0       ??1?$map@VQString@@VQStringList@@U?$less@VQString@@@std@@V?$allocator@VQStringList@@@4@@std@@QAE@XZ 0040b3c0 f i importsettingsimpl.obj
 0001:0000a4c0       ??1?$pair@VQString@@VQStringList@@@std@@QAE@XZ 0040b4c0 f i importsettingsimpl.obj
 0001:0000a530       ??1?$pair@$$CBVQString@@VQStringList@@@std@@QAE@XZ 0040b530 f i importsettingsimpl.obj
 0001:0000a5a0       ??1importSettings@@UAE@XZ  0040b5a0 f   importsettingsimpl.obj
 0001:0000a700       ?getSettings@importSettings@@QAEXAAV?$map@VQString@@VQStringList@@U?$less@VQString@@@std@@V?$allocator@VQStringList@@@4@@std@@@Z 0040b700 f   importsettingsimpl.obj
 0001:0000a880       ?doHelp@importSettings@@AAEXXZ 0040b880 f   importsettingsimpl.obj
 0001:0000a940       ?insert@?$_Tree@VQString@@U?$pair@$$CBVQString@@VQStringList@@@std@@U_Kfn@?$map@VQString@@VQStringList@@U?$less@VQString@@@std@@V?$allocator@VQStringList@@@4@@3@U?$less@VQString@@@3@V?$allocator@VQStringList@@@3@@std@@QAE?AU?$pair@Viterator@?$_Tree@VQString@@U?$pair@$$CBVQString@@VQStringList@@@std@@U_Kfn@?$map@VQString@@VQStringList@@U?$less@VQString@@@std@@V?$allocator@VQStringList@@@4@@3@U?$less@VQString@@@3@V?$allocator@VQStringList@@@3@@std@@_N@2@ABU?$pair@$$CBVQString@@VQStringList@@@2@@Z 0040b940 f i importsettingsimpl.obj
 0001:0000ab90       ?erase@?$_Tree@VQString@@U?$pair@$$CBVQString@@VQStringList@@@std@@U_Kfn@?$map@VQString@@VQStringList@@U?$less@VQString@@@std@@V?$allocator@VQStringList@@@4@@3@U?$less@VQString@@@3@V?$allocator@VQStringList@@@3@@std@@QAE?AViterator@12@V312@@Z 0040bb90 f i importsettingsimpl.obj
 0001:0000b020       ?_Erase@?$_Tree@VQString@@U?$pair@$$CBVQString@@VQStringList@@@std@@U_Kfn@?$map@VQString@@VQStringList@@U?$less@VQString@@@std@@V?$allocator@VQStringList@@@4@@3@U?$less@VQString@@@3@V?$allocator@VQStringList@@@3@@std@@IAEXPAU_Node@12@@Z 0040c020 f i importsettingsimpl.obj
 0001:0000b070       ?_Init@?$_Tree@VQString@@U?$pair@$$CBVQString@@VQStringList@@@std@@U_Kfn@?$map@VQString@@VQStringList@@U?$less@VQString@@@std@@V?$allocator@VQStringList@@@4@@3@U?$less@VQString@@@3@V?$allocator@VQStringList@@@3@@std@@IAEXXZ 0040c070 f i importsettingsimpl.obj
 0001:0000b110       ?_Insert@?$_Tree@VQString@@U?$pair@$$CBVQString@@VQStringList@@@std@@U_Kfn@?$map@VQString@@VQStringList@@U?$less@VQString@@@std@@V?$allocator@VQStringList@@@4@@3@U?$less@VQString@@@3@V?$allocator@VQStringList@@@3@@std@@IAE?AViterator@12@PAU_Node@12@0ABU?$pair@$$CBVQString@@VQStringList@@@2@@Z 0040c110 f i importsettingsimpl.obj
 0001:0000b380       ?_Copy@?$_Tree@VQString@@U?$pair@$$CBVQString@@VQStringList@@@std@@U_Kfn@?$map@VQString@@VQStringList@@U?$less@VQString@@@std@@V?$allocator@VQStringList@@@4@@3@U?$less@VQString@@@3@V?$allocator@VQStringList@@@3@@std@@IAEPAU_Node@12@PAU312@0@Z 0040c380 f i importsettingsimpl.obj
 0001:0000b410       ?_Lrotate@?$_Tree@VQString@@U?$pair@$$CBVQString@@VQStringList@@@std@@U_Kfn@?$map@VQString@@VQStringList@@U?$less@VQString@@@std@@V?$allocator@VQStringList@@@4@@3@U?$less@VQString@@@3@V?$allocator@VQStringList@@@3@@std@@IAEXPAU_Node@12@@Z 0040c410 f i importsettingsimpl.obj
 0001:0000b470       ?_Rrotate@?$_Tree@VQString@@U?$pair@$$CBVQString@@VQStringList@@@std@@U_Kfn@?$map@VQString@@VQStringList@@U?$less@VQString@@@std@@V?$allocator@VQStringList@@@4@@3@U?$less@VQString@@@3@V?$allocator@VQStringList@@@3@@std@@IAEXPAU_Node@12@@Z 0040c470 f i importsettingsimpl.obj
 0001:0000b4d0       ?_Buynode@?$_Tree@VQString@@U?$pair@$$CBVQString@@VQStringList@@@std@@U_Kfn@?$map@VQString@@VQStringList@@U?$less@VQString@@@std@@V?$allocator@VQStringList@@@4@@3@U?$less@VQString@@@3@V?$allocator@VQStringList@@@3@@std@@IAEPAU_Node@12@PAU312@W4_Redbl@12@@Z 0040c4d0 f i importsettingsimpl.obj
 0001:0000b4f0       ?_Dec@const_iterator@?$_Tree@VQString@@U?$pair@$$CBVQString@@VQStringList@@@std@@U_Kfn@?$map@VQString@@VQStringList@@U?$less@VQString@@@std@@V?$allocator@VQStringList@@@4@@3@U?$less@VQString@@@3@V?$allocator@VQStringList@@@3@@std@@QAEXXZ 0040c4f0 f i importsettingsimpl.obj
 0001:0000b550       ?_Inc@const_iterator@?$_Tree@VQString@@U?$pair@$$CBVQString@@VQStringList@@@std@@U_Kfn@?$map@VQString@@VQStringList@@U?$less@VQString@@@std@@V?$allocator@VQStringList@@@4@@3@U?$less@VQString@@@3@V?$allocator@VQStringList@@@3@@std@@QAEXXZ 0040c550 f i importsettingsimpl.obj
 0001:0000b5a0       ?make_pair@std@@YA?AU?$pair@VQString@@VQStringList@@@1@ABVQString@@ABVQStringList@@@Z 0040c5a0 f i importsettingsimpl.obj
 0001:0000b5d0       ??0?$QValueListPrivate@VQString@@@@QAE@XZ 0040c5d0 f i importsettingsimpl.obj
 0001:0000b670       ??_E?$QValueListNode@VQString@@@@UAEPAXI@Z 0040c670 f i importsettingsimpl.obj
 0001:0000b670       ??_G?$QValueListNode@VQString@@@@UAEPAXI@Z 0040c670 f i importsettingsimpl.obj
 0001:0000b690       ??1?$QValueListNode@VQString@@@@UAE@XZ 0040c690 f i importsettingsimpl.obj
 0001:0000b6c0       ?insert@?$QValueListPrivate@VQString@@@@QAE?AV?$QValueListIterator@VQString@@@@V2@ABVQString@@@Z 0040c6c0 f i importsettingsimpl.obj
 0001:0000b740       ?_Construct@std@@YAXPAU?$pair@$$CBVQString@@VQStringList@@@1@ABU21@@Z 0040c740 f i importsettingsimpl.obj
 0001:0000b7a0       ??3@YAXPAX0@Z              0040c7a0 f i importsettingsimpl.obj
 0001:0000b7b0       ??_G?$QValueListPrivate@VQString@@@@UAEPAXI@Z 0040c7b0 f i importsettingsimpl.obj
 0001:0000b7b0       ??_E?$QValueListPrivate@VQString@@@@UAEPAXI@Z 0040c7b0 f i importsettingsimpl.obj
 0001:0000b800       ??_G?$pair@$$CBVQString@@VQStringList@@@std@@QAEPAXI@Z 0040c800 f i importsettingsimpl.obj
 0001:0000b820       ??_EimportSettings@@WCI@AEPAXI@Z 0040c820 f i importsettingsimpl.obj
 0001:0000b830       ??0lassoo@@QAE@PAVQWidget@@PBDI@Z 0040c830 f   lassoo.obj
 0001:0000ba00       ??_Elassoo@@UAEPAXI@Z      0040ca00 f i lassoo.obj
 0001:0000ba00       ??_Glassoo@@UAEPAXI@Z      0040ca00 f i lassoo.obj
 0001:0000ba20       ??_EQFrame@@UAEPAXI@Z      0040ca20 f i lassoo.obj
 0001:0000ba20       ??_GQFrame@@UAEPAXI@Z      0040ca20 f i lassoo.obj
 0001:0000ba40       ??1lassoo@@UAE@XZ          0040ca40 f   lassoo.obj
 0001:0000bae0       ?setRects@lassoo@@QAEXXZ   0040cae0 f   lassoo.obj
 0001:0000bc40       ?moveEvent@lassoo@@UAEXPAVQMoveEvent@@@Z 0040cc40 f   lassoo.obj
 0001:0000bc40       ?resizeEvent@lassoo@@UAEXPAVQResizeEvent@@@Z 0040cc40 f   lassoo.obj
 0001:0000bc50       ?setPoints@lassoo@@QAEXVQPoint@@0@Z 0040cc50 f   lassoo.obj
 0001:0000bcf0       ??_EQFrame@@WCI@AEPAXI@Z   0040ccf0 f i lassoo.obj
 0001:0000bd00       ??_Elassoo@@WCI@AEPAXI@Z   0040cd00 f i lassoo.obj
 0001:0000bd10       _main                      0040cd10 f   main.obj
 0001:0000c590       ?derefAndDelete@?$QValueListPrivate@VQString@@@@QAEXXZ 0040d590 f i main.obj
 0001:0000c5b0       ??0manualSettings@@QAE@PAVQWidget@@PBD_NI@Z 0040d5b0 f   manualsettingsimpl.obj
 0001:0000c630       ?metaObject@manualSettings@@UBEPAVQMetaObject@@XZ 0040d630 f i manualsettingsimpl.obj
 0001:0000c640       ??_EmanualSettings@@UAEPAXI@Z 0040d640 f i manualsettingsimpl.obj
 0001:0000c640       ??_GmanualSettings@@UAEPAXI@Z 0040d640 f i manualsettingsimpl.obj
 0001:0000c660       ??1manualSettings@@UAE@XZ  0040d660 f   manualsettingsimpl.obj
 0001:0000c680       ?doHelp@manualSettings@@AAEXXZ 0040d680 f   manualsettingsimpl.obj
 0001:0000c740       ??_EmanualSettings@@WCI@AEPAXI@Z 0040d740 f i manualsettingsimpl.obj
 0001:0000c750       ??0objectView@@QAE@PAVQWidget@@PBD_NI@Z 0040d750 f   objectviewimpl.obj
 0001:0000c7f0       ?metaObject@objectView@@UBEPAVQMetaObject@@XZ 0040d7f0 f i objectviewimpl.obj
 0001:0000c800       ??_EobjectView@@UAEPAXI@Z  0040d800 f i objectviewimpl.obj
 0001:0000c800       ??_GobjectView@@UAEPAXI@Z  0040d800 f i objectviewimpl.obj
 0001:0000c820       ??1objectView@@UAE@XZ      0040d820 f   objectviewimpl.obj
 0001:0000c840       ?load@objectView@@QAEXABVQWidgetList@@@Z 0040d840 f   objectviewimpl.obj
 0001:0000c9a0       ?clear@objectView@@QAEXXZ  0040d9a0 f   objectviewimpl.obj
 0001:0000c9b0       ?widgetAdded@objectView@@QAEXABVQString@@0@Z 0040d9b0 f   objectviewimpl.obj
 0001:0000cb00       ?widgetRemoved@objectView@@QAEXABVQString@@@Z 0040db00 f   objectviewimpl.obj
 0001:0000cbc0       ?widgetRenamed@objectView@@QAEXABVQString@@0@Z 0040dbc0 f   objectviewimpl.obj
 0001:0000cd50       ??_EQListBoxText@@UAEPAXI@Z 0040dd50 f i objectviewimpl.obj
 0001:0000cd50       ??_GQListBoxText@@UAEPAXI@Z 0040dd50 f i objectviewimpl.obj
 0001:0000cd70       ?timerEvent@objectView@@EAEXPAVQTimerEvent@@@Z 0040dd70 f   objectviewimpl.obj
 0001:0000cda0       ?itemHighlighted@objectView@@AAEXPAVQListBoxItem@@@Z 0040dda0 f   objectviewimpl.obj
 0001:0000ce50       ?itemDoubleClicked@objectView@@AAEXPAVQListBoxItem@@@Z 0040de50 f   objectviewimpl.obj
 0001:0000d070       ??_EobjectView@@WCI@AEPAXI@Z 0040e070 f i objectviewimpl.obj
 0001:0000d080       ??0pasteTable@@QAE@PAVQWidget@@PBD@Z 0040e080 f   pasteTable.obj
 0001:0000d110       ?metaObject@pasteTable@@UBEPAVQMetaObject@@XZ 0040e110 f i pasteTable.obj
 0001:0000d120       ??_GpasteTable@@UAEPAXI@Z  0040e120 f i pasteTable.obj
 0001:0000d120       ??_EpasteTable@@UAEPAXI@Z  0040e120 f i pasteTable.obj
 0001:0000d140       ?init@pasteTable@@AAEXXZ   0040e140 f   pasteTable.obj
 0001:0000d180       ??1pasteTable@@UAE@XZ      0040e180 f   pasteTable.obj
 0001:0000d200       ?paste@pasteTable@@QAEXXZ  0040e200 f   pasteTable.obj
 0001:0000e090       ?copy@pasteTable@@QAEXXZ   0040f090 f   pasteTable.obj
 0001:0000e380       ?clipboardDataChanged@pasteTable@@AAEXXZ 0040f380 f   pasteTable.obj
 0001:0000e430       ?paintCell@pasteTable@@MAEXPAVQPainter@@HHABVQRect@@_NABVQColorGroup@@@Z 0040f430 f   pasteTable.obj
 0001:0000e550       ?isCellValid@pasteTable@@MAE_NHH@Z 0040f550 f i pasteTable.obj
 0001:0000e600       ?setColumnValidator@pasteTable@@QAEXHPAVQValidator@@@Z 0040f600 f   pasteTable.obj
 0001:0000e650       ?endEdit@pasteTable@@QAEXXZ 0040f650 f   pasteTable.obj
 0001:0000e670       ??1?$QIntDict@VQValidator@@@@UAE@XZ 0040f670 f i pasteTable.obj
 0001:0000e6d0       ??_E?$QIntDict@VQValidator@@@@UAEPAXI@Z 0040f6d0 f i pasteTable.obj
 0001:0000e6d0       ??_G?$QIntDict@VQValidator@@@@UAEPAXI@Z 0040f6d0 f i pasteTable.obj
 0001:0000e6f0       ??1?$QMapPrivate@VQString@@H@@QAE@XZ 0040f6f0 f i pasteTable.obj
 0001:0000e770       ??1?$QMapNode@VQString@@H@@QAE@XZ 0040f770 f i pasteTable.obj
 0001:0000e790       ?deleteItem@?$QDict@VQAction@@@@EAEXPAX@Z 0040f790 f i pasteTable.obj
 0001:0000e790       ?deleteItem@?$QIntDict@VQValidator@@@@EAEXPAX@Z 0040f790 f i pasteTable.obj
 0001:0000e7b0       ??0?$QMapPrivate@VQString@@H@@QAE@XZ 0040f7b0 f i pasteTable.obj
 0001:0000e840       ?find@?$QMapPrivate@VQString@@H@@QBE?AV?$QMapConstIterator@VQString@@H@@ABVQString@@@Z 0040f840 f i pasteTable.obj
 0001:0000e8b0       ?clear@?$QMapPrivate@VQString@@H@@QAEXPAU?$QMapNode@VQString@@H@@@Z 0040f8b0 f i pasteTable.obj
 0001:0000e8f0       ??_EpasteTable@@WCI@AEPAXI@Z 0040f8f0 f i pasteTable.obj
 0001:0000e900       ??0pickbox@@QAE@PAVQWidget@@PBDI@Z 0040f900 f   pickbox.obj
 0001:0000f200       ?metaObject@pickbox@@UBEPAVQMetaObject@@XZ 00410200 f i pickbox.obj
 0001:0000f210       ??_Epickbox@@UAEPAXI@Z     00410210 f i pickbox.obj
 0001:0000f210       ??_Gpickbox@@UAEPAXI@Z     00410210 f i pickbox.obj
 0001:0000f230       ??_GQTabWidget@@UAEPAXI@Z  00410230 f i pickbox.obj
 0001:0000f230       ??_EQTabWidget@@UAEPAXI@Z  00410230 f i pickbox.obj
 0001:0000f250       ??1pickbox@@UAE@XZ         00410250 f   pickbox.obj
 0001:0000f270       ?byNameSelectionChanged@pickbox@@QAEXPAVQListViewItem@@@Z 00410270 f   pickbox.obj
 0001:0000f380       ?byTypeSelectionChanged@pickbox@@QAEXPAVQListViewItem@@@Z 00410380 f   pickbox.obj
 0001:0000f570       ?windowActivationChange@pickbox@@UAEX_N@Z 00410570 f   pickbox.obj
 0001:0000f6d0       ?checkFileDate@pickbox@@QAE_NAAVQString@@AAVQDateTime@@@Z 004106d0 f   pickbox.obj
 0001:0000f790       ?reload@pickbox@@QAEXAAVQString@@AAVQDateTime@@PAVxml_listview@@@Z 00410790 f   pickbox.obj
 0001:0000f850       ?clear@?$QValueListPrivate@VQString@@@@QAEXXZ 00410850 f i pickbox.obj
 0001:0000f890       ??_EQTabWidget@@WCI@AEPAXI@Z 00410890 f i pickbox.obj
 0001:0000f8a0       ??_Epickbox@@WCI@AEPAXI@Z  004108a0 f i pickbox.obj
 0001:0000f8b0       ??0pickbox_buttonlist@@QAE@PAVQWidget@@@Z 004108b0 f   pickbox_buttonlist.obj
 0001:00010020       ??_Epickbox_buttonlist@@UAEPAXI@Z 00411020 f i pickbox_buttonlist.obj
 0001:00010020       ??_Gpickbox_buttonlist@@UAEPAXI@Z 00411020 f i pickbox_buttonlist.obj
 0001:00010040       ??1pickbox_buttonlist@@UAE@XZ 00411040 f   pickbox_buttonlist.obj
 0001:00010060       ?startDrag@pickbox_buttonlist@@UAEXXZ 00411060 f   pickbox_buttonlist.obj
 0001:000109f0       ??_Epickbox_buttonlist@@WCI@AEPAXI@Z 004119f0 f i pickbox_buttonlist.obj
 0001:00010a00       ??0pickbox_paramlist@@QAE@PAVQWidget@@@Z 00411a00 f   pickbox_paramlist.obj
 0001:00010f50       ?metaObject@pickbox_paramlist@@UBEPAVQMetaObject@@XZ 00411f50 f i pickbox_paramlist.obj
 0001:00010f60       ??_Epickbox_paramlist@@UAEPAXI@Z 00411f60 f i pickbox_paramlist.obj
 0001:00010f60       ??_Gpickbox_paramlist@@UAEPAXI@Z 00411f60 f i pickbox_paramlist.obj
 0001:00010f80       ??_EQLabel@@UAEPAXI@Z      00411f80 f i pickbox_paramlist.obj
 0001:00010f80       ??_GQLabel@@UAEPAXI@Z      00411f80 f i pickbox_paramlist.obj
 0001:00010fa0       ??_EQCheckBox@@UAEPAXI@Z   00411fa0 f i pickbox_paramlist.obj
 0001:00010fa0       ??_GQCheckBox@@UAEPAXI@Z   00411fa0 f i pickbox_paramlist.obj
 0001:00010fc0       ??1pickbox_paramlist@@UAE@XZ 00411fc0 f   pickbox_paramlist.obj
 0001:00011070       ?load@pickbox_paramlist@@QAEXABVQString@@00@Z 00412070 f   pickbox_paramlist.obj
 0001:000112d0       ?startDrag@pickbox_paramlist@@QAEXPAVQListViewItem@@@Z 004122d0 f   pickbox_paramlist.obj
 0001:000113b0       ?clear@pickbox_paramlist@@QAEXXZ 004123b0 f   pickbox_paramlist.obj
 0001:00011490       ?withLabelClicked@pickbox_paramlist@@QAEXXZ 00412490 f   pickbox_paramlist.obj
 0001:000115e0       ?withSlotSetClicked@pickbox_paramlist@@QAEXXZ 004125e0 f   pickbox_paramlist.obj
 0001:00011620       ??_Epickbox_paramlist@@WCI@AEPAXI@Z 00412620 f i pickbox_paramlist.obj
 0001:00011630       ??_EQCheckBox@@WCI@AEPAXI@Z 00412630 f i pickbox_paramlist.obj
 0001:00011640       ??_EQLabel@@WCI@AEPAXI@Z   00412640 f i pickbox_paramlist.obj
 0001:00011650       ?getInt@preferences@@SAHABVQString@@H@Z 00412650 f   preferences.obj
 0001:00011680       ?setInt@preferences@@SAXABVQString@@H@Z 00412680 f   preferences.obj
 0001:00011760       ??0recentlyusedlist@@QAE@VQString@@H@Z 00412760 f   recentlyusedlist.obj
 0001:00011800       ??_Erecentlyusedlist@@UAEPAXI@Z 00412800 f i recentlyusedlist.obj
 0001:00011800       ??_Grecentlyusedlist@@UAEPAXI@Z 00412800 f i recentlyusedlist.obj
 0001:00011820       ??1recentlyusedlist@@UAE@XZ 00412820 f   recentlyusedlist.obj
 0001:00011850       ?get@recentlyusedlist@@QAE?AVQStringList@@XZ 00412850 f   recentlyusedlist.obj
 0001:00011b60       ?set@recentlyusedlist@@QAE_NVQString@@@Z 00412b60 f   recentlyusedlist.obj
 0001:00012120       ?find@?$QValueListPrivate@VQString@@@@QBEPAV?$QValueListNode@VQString@@@@PAV2@ABVQString@@@Z 00413120 f i recentlyusedlist.obj
 0001:00012160       ??0signalConnectionListDlgImpl@@QAE@ABVsignalConnectionRefList@@PAVvis_ed_widget@@PBD_NI@Z 00413160 f   signalConnectionListDlgimpl.obj
 0001:000126e0       ?metaObject@signalConnectionListDlgImpl@@UBEPAVQMetaObject@@XZ 004136e0 f i signalConnectionListDlgimpl.obj
 0001:000126f0       ?validate@mustHaveACommentValidator@@UBE?AW4State@QValidator@@AAVQString@@AAH@Z 004136f0 f i signalConnectionListDlgimpl.obj
 0001:00012710       ?validate@mustHaveAnEqualsValidator@@UBE?AW4State@QValidator@@AAVQString@@AAH@Z 00413710 f i signalConnectionListDlgimpl.obj
 0001:00012740       ?validate@commandValidator@@UBE?AW4State@QValidator@@AAVQString@@AAH@Z 00413740 f i signalConnectionListDlgimpl.obj
 0001:00012a60       ??_EcommandValidator@@UAEPAXI@Z 00413a60 f i signalConnectionListDlgimpl.obj
 0001:00012a60       ??_GcommandValidator@@UAEPAXI@Z 00413a60 f i signalConnectionListDlgimpl.obj
 0001:00012a60       ??_EmustHaveACommentValidator@@UAEPAXI@Z 00413a60 f i signalConnectionListDlgimpl.obj
 0001:00012a60       ??_GmustHaveACommentValidator@@UAEPAXI@Z 00413a60 f i signalConnectionListDlgimpl.obj
 0001:00012a60       ??_EmustHaveAnEqualsValidator@@UAEPAXI@Z 00413a60 f i signalConnectionListDlgimpl.obj
 0001:00012a60       ??_GmustHaveAnEqualsValidator@@UAEPAXI@Z 00413a60 f i signalConnectionListDlgimpl.obj
 0001:00012a80       ??1mustHaveAnEqualsValidator@@UAE@XZ 00413a80 f i signalConnectionListDlgimpl.obj
 0001:00012a80       ??1commandValidator@@UAE@XZ 00413a80 f i signalConnectionListDlgimpl.obj
 0001:00012a80       ??1mustHaveACommentValidator@@UAE@XZ 00413a80 f i signalConnectionListDlgimpl.obj
 0001:00012a90       ??_GsignalConnectionListDlgImpl@@UAEPAXI@Z 00413a90 f i signalConnectionListDlgimpl.obj
 0001:00012a90       ??_EsignalConnectionListDlgImpl@@UAEPAXI@Z 00413a90 f i signalConnectionListDlgimpl.obj
 0001:00012ab0       ??1signalConnectionListDlgImpl@@UAE@XZ 00413ab0 f   signalConnectionListDlgimpl.obj
 0001:00012b50       ?tableClicked@signalConnectionListDlgImpl@@QAEXHHHABVQPoint@@@Z 00413b50 f   signalConnectionListDlgimpl.obj
 0001:00012d40       ?accept@signalConnectionListDlgImpl@@UAEXXZ 00413d40 f   signalConnectionListDlgimpl.obj
 0001:000136f0       ?doHelp@signalConnectionListDlgImpl@@QAEXXZ 004146f0 f   signalConnectionListDlgimpl.obj
 0001:000137b0       ?connectionList@signalConnectionListDlgImpl@@QAEAAVsignalConnectionRefList@@XZ 004147b0 f   signalConnectionListDlgimpl.obj
 0001:000137c0       ?addConnection@signalConnectionListDlgImpl@@QAEXABVQString@@000@Z 004147c0 f   signalConnectionListDlgimpl.obj
 0001:00013a10       ?highlightDest@signalConnectionListDlgImpl@@QAEXABVQString@@@Z 00414a10 f   signalConnectionListDlgimpl.obj
 0001:00013b50       ?highlightSource@signalConnectionListDlgImpl@@QAEXABVQString@@@Z 00414b50 f   signalConnectionListDlgimpl.obj
 0001:00013c90       ?doMoveUp@signalConnectionListDlgImpl@@QAEXXZ 00414c90 f   signalConnectionListDlgimpl.obj
 0001:00013d00       ?doMoveDown@signalConnectionListDlgImpl@@QAEXXZ 00414d00 f   signalConnectionListDlgimpl.obj
 0001:00013d80       ?doDel@signalConnectionListDlgImpl@@QAEXXZ 00414d80 f   signalConnectionListDlgimpl.obj
 0001:00013dd0       ?tableValueChanged@signalConnectionListDlgImpl@@QAEXHH@Z 00414dd0 f   signalConnectionListDlgimpl.obj
 0001:00014550       ?populateEvents@signalConnectionListDlgImpl@@AAEXHAAVQWidgetList@@ABVQString@@1@Z 00415550 f   signalConnectionListDlgimpl.obj
 0001:00014a50       ??1?$set@VQString@@U?$less@VQString@@@std@@V?$allocator@VQString@@@3@@std@@QAE@XZ 00415a50 f i signalConnectionListDlgimpl.obj
 0001:00014b50       ??_EQComboTableItem@@UAEPAXI@Z 00415b50 f i signalConnectionListDlgimpl.obj
 0001:00014b50       ??_GQComboTableItem@@UAEPAXI@Z 00415b50 f i signalConnectionListDlgimpl.obj
 0001:00014b70       ?populateCommands@signalConnectionListDlgImpl@@AAEXHAAVQWidgetList@@ABVQString@@1@Z 00415b70 f   signalConnectionListDlgimpl.obj
 0001:00015170       ?doImport@signalConnectionListDlgImpl@@QAEXXZ 00416170 f   signalConnectionListDlgimpl.obj
 0001:00015550       ??0?$_Tree@VQString@@V1@U_Kfn@?$set@VQString@@U?$less@VQString@@@std@@V?$allocator@VQString@@@3@@std@@U?$less@VQString@@@4@V?$allocator@VQString@@@4@@std@@QAE@ABU?$less@VQString@@@1@_NABV?$allocator@VQString@@@1@@Z 00416550 f i signalConnectionListDlgimpl.obj
 0001:00015580       ?insert@?$_Tree@VQString@@V1@U_Kfn@?$set@VQString@@U?$less@VQString@@@std@@V?$allocator@VQString@@@3@@std@@U?$less@VQString@@@4@V?$allocator@VQString@@@4@@std@@QAE?AU?$pair@Viterator@?$_Tree@VQString@@V1@U_Kfn@?$set@VQString@@U?$less@VQString@@@std@@V?$allocator@VQString@@@3@@std@@U?$less@VQString@@@4@V?$allocator@VQString@@@4@@std@@_N@2@ABVQString@@@Z 00416580 f i signalConnectionListDlgimpl.obj
 0001:000157d0       ?erase@?$_Tree@VQString@@V1@U_Kfn@?$set@VQString@@U?$less@VQString@@@std@@V?$allocator@VQString@@@3@@std@@U?$less@VQString@@@4@V?$allocator@VQString@@@4@@std@@QAE?AViterator@12@V312@0@Z 004167d0 f i signalConnectionListDlgimpl.obj
 0001:000158b0       ?_Inc@const_iterator@?$_Tree@VQString@@V1@U_Kfn@?$set@VQString@@U?$less@VQString@@@std@@V?$allocator@VQString@@@3@@std@@U?$less@VQString@@@4@V?$allocator@VQString@@@4@@std@@QAEXXZ 004168b0 f i signalConnectionListDlgimpl.obj
 0001:00015900       ?erase@?$_Tree@VQString@@V1@U_Kfn@?$set@VQString@@U?$less@VQString@@@std@@V?$allocator@VQString@@@3@@std@@U?$less@VQString@@@4@V?$allocator@VQString@@@4@@std@@QAE?AViterator@12@V312@@Z 00416900 f i signalConnectionListDlgimpl.obj
 0001:00015d20       ?_Erase@?$_Tree@VQString@@V1@U_Kfn@?$set@VQString@@U?$less@VQString@@@std@@V?$allocator@VQString@@@3@@std@@U?$less@VQString@@@4@V?$allocator@VQString@@@4@@std@@IAEXPAU_Node@12@@Z 00416d20 f i signalConnectionListDlgimpl.obj
 0001:00015d80       ?_Init@?$_Tree@VQString@@V1@U_Kfn@?$set@VQString@@U?$less@VQString@@@std@@V?$allocator@VQString@@@3@@std@@U?$less@VQString@@@4@V?$allocator@VQString@@@4@@std@@IAEXXZ 00416d80 f i signalConnectionListDlgimpl.obj
 0001:00015e20       ?_Insert@?$_Tree@VQString@@V1@U_Kfn@?$set@VQString@@U?$less@VQString@@@std@@V?$allocator@VQString@@@3@@std@@U?$less@VQString@@@4@V?$allocator@VQString@@@4@@std@@IAE?AViterator@12@PAU_Node@12@0ABVQString@@@Z 00416e20 f i signalConnectionListDlgimpl.obj
 0001:00016090       ?_Min@?$_Tree@VQString@@V1@U_Kfn@?$set@VQString@@U?$less@VQString@@@std@@V?$allocator@VQString@@@3@@std@@U?$less@VQString@@@4@V?$allocator@VQString@@@4@@std@@KAPAU_Node@12@PAU312@@Z 00417090 f i signalConnectionListDlgimpl.obj
 0001:000160b0       ??Eiterator@?$_Tree@VQString@@V1@U_Kfn@?$set@VQString@@U?$less@VQString@@@std@@V?$allocator@VQString@@@3@@std@@U?$less@VQString@@@4@V?$allocator@VQString@@@4@@std@@QAE?AV012@H@Z 004170b0 f i signalConnectionListDlgimpl.obj
 0001:00016110       ?_Lrotate@?$_Tree@VQString@@V1@U_Kfn@?$set@VQString@@U?$less@VQString@@@std@@V?$allocator@VQString@@@3@@std@@U?$less@VQString@@@4@V?$allocator@VQString@@@4@@std@@IAEXPAU_Node@12@@Z 00417110 f i signalConnectionListDlgimpl.obj
 0001:00016170       ?_Rrotate@?$_Tree@VQString@@V1@U_Kfn@?$set@VQString@@U?$less@VQString@@@std@@V?$allocator@VQString@@@3@@std@@U?$less@VQString@@@4@V?$allocator@VQString@@@4@@std@@IAEXPAU_Node@12@@Z 00417170 f i signalConnectionListDlgimpl.obj
 0001:000161d0       ?_Buynode@?$_Tree@VQString@@V1@U_Kfn@?$set@VQString@@U?$less@VQString@@@std@@V?$allocator@VQString@@@3@@std@@U?$less@VQString@@@4@V?$allocator@VQString@@@4@@std@@IAEPAU_Node@12@PAU312@W4_Redbl@12@@Z 004171d0 f i signalConnectionListDlgimpl.obj
 0001:000161f0       ?_Dec@const_iterator@?$_Tree@VQString@@V1@U_Kfn@?$set@VQString@@U?$less@VQString@@@std@@V?$allocator@VQString@@@3@@std@@U?$less@VQString@@@4@V?$allocator@VQString@@@4@@std@@QAEXXZ 004171f0 f i signalConnectionListDlgimpl.obj
 0001:00016250       ?_Construct@std@@YAXPAVQString@@ABV2@@Z 00417250 f i signalConnectionListDlgimpl.obj
 0001:000162a0       ??_GQString@@QAEPAXI@Z     004172a0 f i signalConnectionListDlgimpl.obj
 0001:000162e0       ??_EsignalConnectionListDlgImpl@@WCI@AEPAXI@Z 004172e0 f i signalConnectionListDlgimpl.obj
 0001:000162f0       ??0sizePosEdit@@QAE@PAVQWidget@@PBD_NI@Z 004172f0 f   sizeposeditimpl.obj
 0001:00016370       ?metaObject@sizePosEdit@@UBEPAVQMetaObject@@XZ 00417370 f i sizeposeditimpl.obj
 0001:00016380       ??_EsizePosEdit@@UAEPAXI@Z 00417380 f i sizeposeditimpl.obj
 0001:00016380       ??_GsizePosEdit@@UAEPAXI@Z 00417380 f i sizeposeditimpl.obj
 0001:000163a0       ??1sizePosEdit@@UAE@XZ     004173a0 f   sizeposeditimpl.obj
 0001:000163c0       ?doHelp@sizePosEdit@@QAEXXZ 004173c0 f   sizeposeditimpl.obj
 0001:00016480       ??_EsizePosEdit@@WCI@AEPAXI@Z 00417480 f i sizeposeditimpl.obj
 0001:00016490       ??0system_setup@@QAE@PAVQWidget@@PBD_NI@Z 00417490 f   system_setupimpl.obj
 0001:00016810       ?metaObject@system_setup@@UBEPAVQMetaObject@@XZ 00417810 f i system_setupimpl.obj
 0001:00016820       ??_Gsystem_setup@@UAEPAXI@Z 00417820 f i system_setupimpl.obj
 0001:00016820       ??_Esystem_setup@@UAEPAXI@Z 00417820 f i system_setupimpl.obj
 0001:00016840       ??1system_setup@@UAE@XZ    00417840 f   system_setupimpl.obj
 0001:00016860       ??_Esystem_setup@@WCI@AEPAXI@Z 00417860 f i system_setupimpl.obj
 0001:00016870       ??0testSettingsBase@@QAE@PAVQWidget@@PBD_NI@Z 00417870 f   testsettings.obj
 0001:00016e20       ?metaObject@testSettingsBase@@UBEPAVQMetaObject@@XZ 00417e20 f i testsettings.obj
 0001:00016e30       ??_GtestSettingsBase@@UAEPAXI@Z 00417e30 f i testsettings.obj
 0001:00016e30       ??_EtestSettingsBase@@UAEPAXI@Z 00417e30 f i testsettings.obj
 0001:00016e50       ??_GQComboBox@@UAEPAXI@Z   00417e50 f i testsettings.obj
 0001:00016e50       ??_EQComboBox@@UAEPAXI@Z   00417e50 f i testsettings.obj
 0001:00016e70       ??_EQLineEdit@@UAEPAXI@Z   00417e70 f i testsettings.obj
 0001:00016e70       ??_GQLineEdit@@UAEPAXI@Z   00417e70 f i testsettings.obj
 0001:00016e90       ??1testSettingsBase@@UAE@XZ 00417e90 f   testsettings.obj
 0001:00016eb0       ?languageChange@testSettingsBase@@MAEXXZ 00417eb0 f   testsettings.obj
 0001:00017300       ??_EQComboBox@@WCI@AEPAXI@Z 00418300 f i testsettings.obj
 0001:00017310       ??_EQLineEdit@@WCI@AEPAXI@Z 00418310 f i testsettings.obj
 0001:00017320       ??_EtestSettingsBase@@WCI@AEPAXI@Z 00418320 f i testsettings.obj
 0001:00017330       ??0testSettings@@QAE@PAVQWidget@@PBD_NI@Z 00418330 f   testsettingsimpl.obj
 0001:00017370       ?metaObject@testSettings@@UBEPAVQMetaObject@@XZ 00418370 f i testsettingsimpl.obj
 0001:00017380       ??_EtestSettings@@UAEPAXI@Z 00418380 f i testsettingsimpl.obj
 0001:00017380       ??_GtestSettings@@UAEPAXI@Z 00418380 f i testsettingsimpl.obj
 0001:000173a0       ??1testSettings@@UAE@XZ    004183a0 f   testsettingsimpl.obj
 0001:000173c0       ??_EtestSettings@@WCI@AEPAXI@Z 004183c0 f i testsettingsimpl.obj
 0001:000173d0       ??0textedit@@QAE@PAVQWidget@@PBDI@Z 004183d0 f   textedit.obj
 0001:00017480       ?metaObject@textedit@@UBEPAVQMetaObject@@XZ 00418480 f i textedit.obj
 0001:00017490       ??_Gtextedit@@UAEPAXI@Z    00418490 f i textedit.obj
 0001:00017490       ??_Etextedit@@UAEPAXI@Z    00418490 f i textedit.obj
 0001:000174b0       ??1textedit@@UAE@XZ        004184b0 f   textedit.obj
 0001:00017550       ?load@textedit@@QAEXPBD@Z  00418550 f   textedit.obj
 0001:00017650       ?save@textedit@@QAEXXZ     00418650 f   textedit.obj
 0001:00017840       ?close@textedit@@EAE_N_N@Z 00418840 f   textedit.obj
 0001:00017b10       ?filename@textedit@@QAE?AVQString@@XZ 00418b10 f i textedit.obj
 0001:00017b40       ?gotoidentifier@textedit@@QAEXAAVQString@@@Z 00418b40 f   textedit.obj
 0001:00017b80       ?showtools@textedit@@QAEXPAVQMainWindow@@PAVQPopupMenu@@_NH@Z 00418b80 f   textedit.obj
 0001:00017ea0       ??_EQAction@@UAEPAXI@Z     00418ea0 f i textedit.obj
 0001:00017ea0       ??_GQAction@@UAEPAXI@Z     00418ea0 f i textedit.obj
 0001:00017ec0       ??_GQPopupMenu@@UAEPAXI@Z  00418ec0 f i textedit.obj
 0001:00017ec0       ??_EQPopupMenu@@UAEPAXI@Z  00418ec0 f i textedit.obj
 0001:00017ee0       ??_Etextedit@@WCI@AEPAXI@Z 00418ee0 f i textedit.obj
 0001:00017ef0       ??_EQPopupMenu@@WCI@AEPAXI@Z 00418ef0 f i textedit.obj
 0001:00017f00       ??_EQPopupMenu@@WIM@AEPAXI@Z 00418f00 f i textedit.obj
 0001:00017f10       ??0vis_ed_mdi@@QAE@PAVQApplication@@PAVQWidget@@PBDI@Z 00418f10 f   vis_ed_mdi.obj
 0001:00018730       ?metaObject@vis_ed_mdi@@UBEPAVQMetaObject@@XZ 00419730 f i vis_ed_mdi.obj
 0001:00018740       ??_Gvis_ed_mdi@@UAEPAXI@Z  00419740 f i vis_ed_mdi.obj
 0001:00018740       ??_Evis_ed_mdi@@UAEPAXI@Z  00419740 f i vis_ed_mdi.obj
 0001:00018760       ??_EQWorkspace@@UAEPAXI@Z  00419760 f i vis_ed_mdi.obj
 0001:00018760       ??_GQWorkspace@@UAEPAXI@Z  00419760 f i vis_ed_mdi.obj
 0001:00018780       ??_GQDockWindow@@UAEPAXI@Z 00419780 f i vis_ed_mdi.obj
 0001:00018780       ??_EQDockWindow@@UAEPAXI@Z 00419780 f i vis_ed_mdi.obj
 0001:000187a0       ??1vis_ed_mdi@@UAE@XZ      004197a0 f   vis_ed_mdi.obj
 0001:00018c40       ?fileNew@vis_ed_mdi@@IAEXXZ 00419c40 f   vis_ed_mdi.obj
 0001:00018ed0       ?closeEvent@vis_ed_mdi@@MAEXPAVQCloseEvent@@@Z 00419ed0 f   vis_ed_mdi.obj
 0001:00019000       ?windowsMenuAboutToShow@vis_ed_mdi@@IAEXXZ 0041a000 f   vis_ed_mdi.obj
 0001:000194b0       ?closeAll@vis_ed_mdi@@IAEXXZ 0041a4b0 f   vis_ed_mdi.obj
 0001:00019570       ?windowsMenuActivated@vis_ed_mdi@@IAEXH@Z 0041a570 f   vis_ed_mdi.obj
 0001:000196e0       ?fileOpen@vis_ed_mdi@@IAEXXZ 0041a6e0 f   vis_ed_mdi.obj
 0001:00019a70       ?fileReload@vis_ed_mdi@@IAEXXZ 0041aa70 f   vis_ed_mdi.obj
 0001:00019be0       ?viewDevices@vis_ed_mdi@@IAEXXZ 0041abe0 f   vis_ed_mdi.obj
 0001:00019c50       ?newWindow@vis_ed_mdi@@AAEPAVQWidget@@ABVQString@@00@Z 0041ac50 f   vis_ed_mdi.obj
 0001:0001a5c0       ?createToolsAndMenus@vis_ed_mdi@@AAEXXZ 0041b5c0 f   vis_ed_mdi.obj
 0001:0001c380       ??_EQToolBar@@UAEPAXI@Z    0041d380 f i vis_ed_mdi.obj
 0001:0001c380       ??_GQToolBar@@UAEPAXI@Z    0041d380 f i vis_ed_mdi.obj
 0001:0001c3a0       ?fileClose@vis_ed_mdi@@IAEXXZ 0041d3a0 f   vis_ed_mdi.obj
 0001:0001c3c0       ?fileSave@vis_ed_mdi@@IAEXXZ 0041d3c0 f   vis_ed_mdi.obj
 0001:0001c410       ?fileSaveAs@vis_ed_mdi@@IAEXXZ 0041d410 f   vis_ed_mdi.obj
 0001:0001c460       ?scriptedit@vis_ed_mdi@@IAEXVQString@@0@Z 0041d460 f   vis_ed_mdi.obj
 0001:0001c590       ?load@vis_ed_mdi@@AAEPAVQWidget@@ABVQString@@@Z 0041d590 f   vis_ed_mdi.obj
 0001:0001d1d0       ?recentFilesAboutToShow@vis_ed_mdi@@IAEXXZ 0041e1d0 f   vis_ed_mdi.obj
 0001:0001d4b0       ?recentyusedactivated@vis_ed_mdi@@IAEXH@Z 0041e4b0 f   vis_ed_mdi.obj
 0001:0001d530       ?about@vis_ed_mdi@@IAEXXZ  0041e530 f   vis_ed_mdi.obj
 0001:0001d670       ?widgetAdded@vis_ed_mdi@@IAEXABVQString@@0@Z 0041e670 f   vis_ed_mdi.obj
 0001:0001d690       ?widgetRemoved@vis_ed_mdi@@IAEXABVQString@@@Z 0041e690 f   vis_ed_mdi.obj
 0001:0001d6b0       ?widgetRenamed@vis_ed_mdi@@IAEXABVQString@@0@Z 0041e6b0 f   vis_ed_mdi.obj
 0001:0001d6d0       ?windowActivationChange@vis_ed_mdi@@IAEXPAVQWidget@@@Z 0041e6d0 f   vis_ed_mdi.obj
 0001:0001d940       ?statusBarMessage@vis_ed_mdi@@QAEXABVQString@@@Z 0041e940 f   vis_ed_mdi.obj
 0001:0001d960       ?toggleIdList@vis_ed_mdi@@QAEXXZ 0041e960 f   vis_ed_mdi.obj
 0001:0001d980       ?doLoad@vis_ed_mdi@@IAEXABVQString@@@Z 0041e980 f   vis_ed_mdi.obj
 0001:0001de20       ?browseGlobalStyle@vis_ed_mdi@@IAEXXZ 0041ee20 f   vis_ed_mdi.obj
 0001:0001f1b0       ?doHelpSlot@vis_ed_mdi@@IAEXXZ 004201b0 f   vis_ed_mdi.obj
 0001:0001f270       ?doHelp@vis_ed_mdi@@SAXABVQString@@0@Z 00420270 f   vis_ed_mdi.obj
 0001:0001f5e0       ?dragEnterEvent@vis_ed_mdi@@EAEXPAVQDragEnterEvent@@@Z 004205e0 f   vis_ed_mdi.obj
 0001:0001f610       ?dropEvent@vis_ed_mdi@@EAEXPAVQDropEvent@@@Z 00420610 f   vis_ed_mdi.obj
 0001:0001f740       ?singletonMessageReceived@vis_ed_mdi@@QAEXABVQString@@@Z 00420740 f   vis_ed_mdi.obj
 0001:0001f7d0       ?mySetForegroundWindow@vis_ed_mdi@@AAEXPAUHWND__@@@Z 004207d0 f   vis_ed_mdi.obj
 0001:0001f860       ?maximised@vis_ed_mdi@@QAE_NXZ 00420860 f   vis_ed_mdi.obj
 0001:0001f870       ??1?$QDict@VQAction@@@@UAE@XZ 00420870 f i vis_ed_mdi.obj
 0001:0001f8d0       ?count@?$QIntDict@VQValidator@@@@UBEIXZ 004208d0 f i vis_ed_mdi.obj
 0001:0001f8d0       ?count@?$QDict@VQAction@@@@UBEIXZ 004208d0 f i vis_ed_mdi.obj
 0001:0001f8e0       ?clear@?$QIntDict@VQValidator@@@@UAEXXZ 004208e0 f i vis_ed_mdi.obj
 0001:0001f8e0       ?clear@?$QDict@VQAction@@@@UAEXXZ 004208e0 f i vis_ed_mdi.obj
 0001:0001f8f0       ??_E?$QDict@VQAction@@@@UAEPAXI@Z 004208f0 f i vis_ed_mdi.obj
 0001:0001f8f0       ??_G?$QDict@VQAction@@@@UAEPAXI@Z 004208f0 f i vis_ed_mdi.obj
 0001:0001f910       ?remove@?$QValueListPrivate@VQString@@@@QAEIABVQString@@@Z 00420910 f i vis_ed_mdi.obj
 0001:0001f960       ?remove@?$QValueListPrivate@VQString@@@@QAE?AV?$QValueListIterator@VQString@@@@V2@@Z 00420960 f i vis_ed_mdi.obj
 0001:0001f9c0       ??0?$QValueListPrivate@VQString@@@@QAE@ABV0@@Z 004209c0 f i vis_ed_mdi.obj
 0001:0001faa0       ??_EQDockWindow@@WCI@AEPAXI@Z 00420aa0 f i vis_ed_mdi.obj
 0001:0001fab0       ??_EQToolBar@@WCI@AEPAXI@Z 00420ab0 f i vis_ed_mdi.obj
 0001:0001fac0       ??_EQWorkspace@@WCI@AEPAXI@Z 00420ac0 f i vis_ed_mdi.obj
 0001:0001fad0       ??_Evis_ed_mdi@@WCI@AEPAXI@Z 00420ad0 f i vis_ed_mdi.obj
 0001:0001fae0       ??0vis_ed_toolbars@@QAE@PAVvis_ed_widget@@PAVQMainWindow@@@Z 00420ae0 f   vis_ed_toolbars.obj
 0001:0001fc20       ?metaObject@vis_ed_toolbars@@UBEPAVQMetaObject@@XZ 00420c20 f i vis_ed_toolbars.obj
 0001:0001fc30       ??_Evis_ed_toolbars@@UAEPAXI@Z 00420c30 f i vis_ed_toolbars.obj
 0001:0001fc30       ??_Gvis_ed_toolbars@@UAEPAXI@Z 00420c30 f i vis_ed_toolbars.obj
 0001:0001fc50       ??1vis_ed_toolbars@@UAE@XZ 00420c50 f   vis_ed_toolbars.obj
 0001:0001fcd0       ?show@vis_ed_toolbars@@QAEXXZ 00420cd0 f   vis_ed_toolbars.obj
 0001:00027170       ?hide@vis_ed_toolbars@@QAEXXZ 00428170 f   vis_ed_toolbars.obj
 0001:00027300       ?comboBoxesMessage@vis_ed_toolbars@@QAEXABVQString@@@Z 00428300 f   vis_ed_toolbars.obj
 0001:000276a0       ?itemsSelected@vis_ed_toolbars@@QAEXH@Z 004286a0 f   vis_ed_toolbars.obj
 0001:00027910       ?undoAvailable@vis_ed_toolbars@@QAEX_NABVQString@@@Z 00428910 f   vis_ed_toolbars.obj
 0001:000279b0       ?redoAvailable@vis_ed_toolbars@@QAEX_NABVQString@@@Z 004289b0 f   vis_ed_toolbars.obj
 0001:00027a50       ?pasteWidgetAvailable@vis_ed_toolbars@@QAEX_N@Z 00428a50 f   vis_ed_toolbars.obj
 0001:00027a70       ?pasteSettingsAvailable@vis_ed_toolbars@@QAEX_N@Z 00428a70 f   vis_ed_toolbars.obj
 0001:00027a90       ?scriptOpenExplorerAvailable@vis_ed_toolbars@@QAEX_N@Z 00428a90 f   vis_ed_toolbars.obj
 0001:00027ab0       ?scriptOpenVisEdAvailable@vis_ed_toolbars@@QAEX_N@Z 00428ab0 f   vis_ed_toolbars.obj
 0001:00027ad0       ?insert@?$QDict@VQAction@@@@QAEXABVQString@@PBVQAction@@@Z 00428ad0 f i vis_ed_toolbars.obj
 0001:00027af0       ??0?$QMap@VQString@@Vstyleentry@@@@QAE@XZ 00428af0 f i vis_ed_toolbars.obj
 0001:00027c30       ??0?$QMap@VQString@@Vstyleentry@@@@QAE@ABV0@@Z 00428c30 f i vis_ed_toolbars.obj
 0001:00027c40       ??1?$QMap@VQString@@Vstyleentry@@@@QAE@XZ 00428c40 f i vis_ed_toolbars.obj
 0001:00027ce0       ?begin@?$QMap@VQString@@Vstyleentry@@@@QAE?AV?$QMapIterator@VQString@@Vstyleentry@@@@XZ 00428ce0 f i vis_ed_toolbars.obj
 0001:00027d10       ?end@?$QMap@VQString@@Vstyleentry@@@@QAE?AV?$QMapIterator@VQString@@Vstyleentry@@@@XZ 00428d10 f i vis_ed_toolbars.obj
 0001:00027d30       ?constBegin@?$QMap@VQString@@Vstyleentry@@@@QBE?AV?$QMapConstIterator@VQString@@Vstyleentry@@@@XZ 00428d30 f i vis_ed_toolbars.obj
 0001:00027d30       ?begin@?$QMap@VQString@@Vstyleentry@@@@QBE?AV?$QMapConstIterator@VQString@@Vstyleentry@@@@XZ 00428d30 f i vis_ed_toolbars.obj
 0001:00027d40       ?end@?$QMap@VQString@@Vstyleentry@@@@QBE?AV?$QMapConstIterator@VQString@@Vstyleentry@@@@XZ 00428d40 f i vis_ed_toolbars.obj
 0001:00027d40       ?constEnd@?$QMap@VQString@@Vstyleentry@@@@QBE?AV?$QMapConstIterator@VQString@@Vstyleentry@@@@XZ 00428d40 f i vis_ed_toolbars.obj
 0001:00027d50       ?replace@?$QMap@VQString@@Vstyleentry@@@@QAE?AV?$QMapIterator@VQString@@Vstyleentry@@@@ABVQString@@ABVstyleentry@@@Z 00428d50 f i vis_ed_toolbars.obj
 0001:00027ed0       ?count@?$QMap@VQString@@Vstyleentry@@@@QBEIXZ 00428ed0 f i vis_ed_toolbars.obj
 0001:00027ed0       ?size@?$QMap@VQString@@Vstyleentry@@@@QBEIXZ 00428ed0 f i vis_ed_toolbars.obj
 0001:00027ee0       ?isEmpty@?$QMap@VQString@@Vstyleentry@@@@QBE_NXZ 00428ee0 f i vis_ed_toolbars.obj
 0001:00027ee0       ?empty@?$QMap@VQString@@Vstyleentry@@@@QBE_NXZ 00428ee0 f i vis_ed_toolbars.obj
 0001:00027ef0       ?remove@?$QMap@VQString@@Vstyleentry@@@@QAEXV?$QMapIterator@VQString@@Vstyleentry@@@@@Z 00428ef0 f i vis_ed_toolbars.obj
 0001:00027ef0       ?erase@?$QMap@VQString@@Vstyleentry@@@@QAEXV?$QMapIterator@VQString@@Vstyleentry@@@@@Z 00428ef0 f i vis_ed_toolbars.obj
 0001:00027f20       ?find@?$QMap@VQString@@Vstyleentry@@@@QAE?AV?$QMapIterator@VQString@@Vstyleentry@@@@ABVQString@@@Z 00428f20 f i vis_ed_toolbars.obj
 0001:00027fa0       ?find@?$QMap@VQString@@Vstyleentry@@@@QBE?AV?$QMapConstIterator@VQString@@Vstyleentry@@@@ABVQString@@@Z 00428fa0 f i vis_ed_toolbars.obj
 0001:00028010       ??A?$QMap@VQString@@Vstyleentry@@@@QBEABVstyleentry@@ABVQString@@@Z 00429010 f i vis_ed_toolbars.obj
 0001:00028080       ?contains@?$QMap@VQString@@Vstyleentry@@@@QBE_NABVQString@@@Z 00429080 f i vis_ed_toolbars.obj
 0001:000280f0       ?keys@?$QMap@VQString@@Vstyleentry@@@@QBE?AV?$QValueList@VQString@@@@XZ 004290f0 f i vis_ed_toolbars.obj
 0001:00028210       ?values@?$QMap@VQString@@Vstyleentry@@@@QBE?AV?$QValueList@Vstyleentry@@@@XZ 00429210 f i vis_ed_toolbars.obj
 0001:00028330       ?detach@?$QMap@VQString@@Vstyleentry@@@@IAEXXZ 00429330 f i vis_ed_toolbars.obj
 0001:00028340       ??9?$QMapIterator@VQString@@Vstyleentry@@@@QBE_NABV0@@Z 00429340 f i vis_ed_toolbars.obj
 0001:00028360       ?key@?$QMapIterator@VQString@@Vstyleentry@@@@QBEABVQString@@XZ 00429360 f i vis_ed_toolbars.obj
 0001:00028370       ?data@?$QMapIterator@VQString@@Vstyleentry@@@@QAEAAVstyleentry@@XZ 00429370 f i vis_ed_toolbars.obj
 0001:00028380       ?begin@?$QMapPrivate@VQString@@Vstyleentry@@@@QAE?AV?$QMapIterator@VQString@@Vstyleentry@@@@XZ 00429380 f i vis_ed_toolbars.obj
 0001:00028390       ?end@?$QMapPrivate@VQString@@Vstyleentry@@@@QAE?AV?$QMapIterator@VQString@@Vstyleentry@@@@XZ 00429390 f i vis_ed_toolbars.obj
 0001:000283a0       ?remove@?$QMapPrivate@VQString@@Vstyleentry@@@@QAEXV?$QMapIterator@VQString@@Vstyleentry@@@@@Z 004293a0 f i vis_ed_toolbars.obj
 0001:000283e0       ??1?$QValueList@Vstyleentry@@@@QAE@XZ 004293e0 f i vis_ed_toolbars.obj
 0001:00028400       ??1?$QMapNode@VQString@@Vstyleentry@@@@QAE@XZ 00429400 f i vis_ed_toolbars.obj
 0001:000284c0       ?end@?$QValueList@Vstyleentry@@@@QAE?AV?$QValueListIterator@Vstyleentry@@@@XZ 004294c0 f i vis_ed_toolbars.obj
 0001:000284f0       ??4?$QMap@VQString@@Vstyleentry@@@@QAEAAV0@ABV0@@Z 004294f0 f i vis_ed_toolbars.obj
 0001:000285b0       ?insert@?$QMap@VQString@@Vstyleentry@@@@QAE?AV?$QMapIterator@VQString@@Vstyleentry@@@@ABVQString@@ABVstyleentry@@_N@Z 004295b0 f i vis_ed_toolbars.obj
 0001:000286f0       ?insert@?$QMap@VQString@@Vstyleentry@@@@QAE?AU?$QPair@V?$QMapIterator@VQString@@Vstyleentry@@@@_N@@ABU?$QPair@$$CBVQString@@Vstyleentry@@@@@Z 004296f0 f i vis_ed_toolbars.obj
 0001:00028810       ?erase@?$QMap@VQString@@Vstyleentry@@@@QAEXABVQString@@@Z 00429810 f i vis_ed_toolbars.obj
 0001:00028810       ?remove@?$QMap@VQString@@Vstyleentry@@@@QAEXABVQString@@@Z 00429810 f i vis_ed_toolbars.obj
 0001:000288a0       ?count@?$QMap@VQString@@Vstyleentry@@@@QBEIABVQString@@@Z 004298a0 f i vis_ed_toolbars.obj
 0001:00028950       ??A?$QMap@VQString@@Vstyleentry@@@@QAEAAVstyleentry@@ABVQString@@@Z 00429950 f i vis_ed_toolbars.obj
 0001:00028b30       ?clear@?$QMap@VQString@@Vstyleentry@@@@QAEXXZ 00429b30 f i vis_ed_toolbars.obj
 0001:00028ce0       ?detachInternal@?$QMap@VQString@@Vstyleentry@@@@AAEXXZ 00429ce0 f i vis_ed_toolbars.obj
 0001:00028ec0       ?inc@?$QMapConstIterator@VQString@@Vstyleentry@@@@AAEHXZ 00429ec0 f i vis_ed_toolbars.obj
 0001:00028f00       ?detachInternal@?$QValueList@Vstyleentry@@@@AAEXXZ 00429f00 f i vis_ed_toolbars.obj
 0001:00029010       ??0?$QValueListPrivate@Vstyleentry@@@@QAE@XZ 0042a010 f i vis_ed_toolbars.obj
 0001:00029150       ?insert@?$QValueListPrivate@Vstyleentry@@@@QAE?AV?$QValueListIterator@Vstyleentry@@@@V2@ABVstyleentry@@@Z 0042a150 f i vis_ed_toolbars.obj
 0001:00029210       ??_G?$QValueListPrivate@Vstyleentry@@@@UAEPAXI@Z 0042a210 f i vis_ed_toolbars.obj
 0001:00029210       ??_E?$QValueListPrivate@Vstyleentry@@@@UAEPAXI@Z 0042a210 f i vis_ed_toolbars.obj
 0001:00029260       ??_G?$QValueListNode@Vstyleentry@@@@UAEPAXI@Z 0042a260 f i vis_ed_toolbars.obj
 0001:00029260       ??_E?$QValueListNode@Vstyleentry@@@@UAEPAXI@Z 0042a260 f i vis_ed_toolbars.obj
 0001:00029280       ??1?$QValueListNode@Vstyleentry@@@@UAE@XZ 0042a280 f i vis_ed_toolbars.obj
 0001:00029320       ??0?$QMapPrivate@VQString@@Vstyleentry@@@@QAE@PBV0@@Z 0042a320 f i vis_ed_toolbars.obj
 0001:000294f0       ?clear@?$QMapPrivate@VQString@@Vstyleentry@@@@QAEXPAU?$QMapNode@VQString@@Vstyleentry@@@@@Z 0042a4f0 f i vis_ed_toolbars.obj
 0001:00029530       ?insertSingle@?$QMapPrivate@VQString@@Vstyleentry@@@@QAE?AV?$QMapIterator@VQString@@Vstyleentry@@@@ABVQString@@@Z 0042a530 f i vis_ed_toolbars.obj
 0001:00029610       ??0?$QValueListPrivate@Vstyleentry@@@@QAE@ABV0@@Z 0042a610 f i vis_ed_toolbars.obj
 0001:00029700       ??0?$QValueListIterator@Vstyleentry@@@@QAE@ABV0@@Z 0042a700 f i vis_ed_toolbars.obj
 0001:00029710       ?copy@?$QMapPrivate@VQString@@Vstyleentry@@@@QAEPAU?$QMapNode@VQString@@Vstyleentry@@@@PAU2@@Z 0042a710 f i vis_ed_toolbars.obj
 0001:000298b0       ?insert@?$QMapPrivate@VQString@@Vstyleentry@@@@QAE?AV?$QMapIterator@VQString@@Vstyleentry@@@@PAUQMapNodeBase@@0ABVQString@@@Z 0042a8b0 f i vis_ed_toolbars.obj
 0001:00029a00       ?dec@?$QMapIterator@VQString@@Vstyleentry@@@@AAEHXZ 0042aa00 f i vis_ed_toolbars.obj
 0001:00029a50       ??0?$QMapNode@VQString@@Vstyleentry@@@@QAE@ABU0@@Z 0042aa50 f i vis_ed_toolbars.obj
 0001:00029b80       ??0vis_ed_widget@@QAE@PAVQWidget@@PAVQMainWindow@@PBDI@Z 0042ab80 f   vis_ed_widget.obj
 0001:00029ee0       ?metaObject@vis_ed_widget@@UBEPAVQMetaObject@@XZ 0042aee0 f i vis_ed_widget.obj
 0001:00029ef0       ??_Gvis_ed_widget@@UAEPAXI@Z 0042aef0 f i vis_ed_widget.obj
 0001:00029ef0       ??_Evis_ed_widget@@UAEPAXI@Z 0042aef0 f i vis_ed_widget.obj
 0001:00029f10       ??1?$map@PAVQWidget@@PAV1@U?$less@PAVQWidget@@@std@@V?$allocator@PAVQWidget@@@3@@std@@QAE@XZ 0042af10 f i vis_ed_widget.obj
 0001:0002a000       ??1vis_ed_widget@@UAE@XZ   0042b000 f   vis_ed_widget.obj
 0001:0002a200       ?paintEvent@vis_ed_widget@@UAEXPAVQPaintEvent@@@Z 0042b200 f   vis_ed_widget.obj
 0001:0002a2f0       ?dblClickTimer_timeout@vis_ed_widget@@AAEXXZ 0042b2f0 f   vis_ed_widget.obj
 0001:0002a390       ?contextMenuEvent@vis_ed_widget@@UAEXPAVQContextMenuEvent@@@Z 0042b390 f   vis_ed_widget.obj
 0001:0002a3d0       ?contextMenu@vis_ed_widget@@AAEXPAVQWidget@@@Z 0042b3d0 f   vis_ed_widget.obj
 0001:0002b8c0       ?dialogContextMenu@vis_ed_widget@@AAEXXZ 0042c8c0 f   vis_ed_widget.obj
 0001:0002bcb0       ?dialogInvokeEdit@vis_ed_widget@@AAEXXZ 0042ccb0 f   vis_ed_widget.obj
 0001:0002c560       ??0w_undo_event@@QAE@HABVQString@@PAVvis_ed_widget@@@Z 0042d560 f i vis_ed_widget.obj
 0001:0002c5e0       ??1undo_event@@QAE@XZ      0042d5e0 f i vis_ed_widget.obj
 0001:0002c5e0       ??1w_undo_event@@QAE@XZ    0042d5e0 f i vis_ed_widget.obj
 0001:0002c600       ?undo@w_dialog_settings_undo@@UAEXXZ 0042d600 f i vis_ed_widget.obj
 0001:0002c6a0       ?fileSave@vis_ed_widget@@QAE_N_N@Z 0042d6a0 f   vis_ed_widget.obj
 0001:0002d0d0       ?load@vis_ed_widget@@QAEXPBD_N@Z 0042e0d0 f   vis_ed_widget.obj
 0001:0002d5d0       ?widgetList@dCW@@QAE?AVQWidgetList@@XZ 0042e5d0 f i vis_ed_widget.obj
 0001:0002d600       ?bpixmap@dCW@@QAE?AVQString@@XZ 0042e600 f i vis_ed_widget.obj
 0001:0002d630       ?bcolour@dCW@@QAE?AVQString@@XZ 0042e630 f i vis_ed_widget.obj
 0001:0002d660       ?scriptfile@dCW@@QAE?AVQString@@XZ 0042e660 f i vis_ed_widget.obj
 0001:0002d690       ?mouseReleaseEvent@vis_ed_widget@@UAEXPAVQMouseEvent@@@Z 0042e690 f   vis_ed_widget.obj
 0001:0002d900       ?mouseMoveEvent@vis_ed_widget@@UAEXPAVQMouseEvent@@@Z 0042e900 f   vis_ed_widget.obj
 0001:0002d960       ?mousePressEvent@vis_ed_widget@@UAEXPAVQMouseEvent@@@Z 0042e960 f   vis_ed_widget.obj
 0001:0002da60       ?eventFilter@vis_ed_widget@@UAE_NPAVQObject@@PAVQEvent@@@Z 0042ea60 f   vis_ed_widget.obj
 0001:0002e0e0       ?addEditHandles@vis_ed_widget@@QAEXPAVQWidget@@_N1@Z 0042f0e0 f   vis_ed_widget.obj
 0001:0002e1f0       ?countSelectedItems@vis_ed_widget@@AAEHXZ 0042f1f0 f   vis_ed_widget.obj
 0001:0002e280       ?removeAllEditHandles@vis_ed_widget@@QAEXXZ 0042f280 f   vis_ed_widget.obj
 0001:0002e310       ?removeAllEditHandlesExcept@vis_ed_widget@@QAEXPAVQWidget@@@Z 0042f310 f   vis_ed_widget.obj
 0001:0002e3a0       ?removeEditHandles@vis_ed_widget@@QAEXPAVQWidget@@@Z 0042f3a0 f   vis_ed_widget.obj
 0001:0002e410       ?dragEnterEvent@vis_ed_widget@@UAEXPAVQDragEnterEvent@@@Z 0042f410 f   vis_ed_widget.obj
 0001:0002e440       ?dropEvent@vis_ed_widget@@UAEXPAVQDropEvent@@@Z 0042f440 f   vis_ed_widget.obj
 0001:0002ea90       ?undo@w_new_undo@@UAEXXZ   0042fa90 f i vis_ed_widget.obj
 0001:0002eae0       ?paste@vis_ed_widget@@QAEXXZ 0042fae0 f   vis_ed_widget.obj
 0001:0002ebb0       ?paste@vis_ed_widget@@AAE?AVQWidgetList@@ABVQString@@VQPoint@@@Z 0042fbb0 f   vis_ed_widget.obj
 0001:0002efd0       ?editHandleCount@vis_ed_widget@@QAEHXZ 0042ffd0 f   vis_ed_widget.obj
 0001:0002f030       ?editHandleSelectAll@vis_ed_widget@@QAEXXZ 00430030 f   vis_ed_widget.obj
 0001:0002f0a0       ?Selected_Size_H_Smallest@vis_ed_widget@@QAEXXZ 004300a0 f   vis_ed_widget.obj
 0001:0002f180       ?Selected_Size_H_Largest@vis_ed_widget@@QAEXXZ 00430180 f   vis_ed_widget.obj
 0001:0002f250       ?Selected_Size_V_Largest@vis_ed_widget@@QAEXXZ 00430250 f   vis_ed_widget.obj
 0001:0002f320       ?Selected_Size_V_Smallest@vis_ed_widget@@QAEXXZ 00430320 f   vis_ed_widget.obj
 0001:0002f400       ?Align@vis_ed_widget@@QAEXH@Z 00430400 f   vis_ed_widget.obj
 0001:0002f990       ?undo@w_move_undo@@UAEXXZ  00430990 f i vis_ed_widget.obj
 0001:0002fb80       ?setEditHandledSize@vis_ed_widget@@QAEXHH@Z 00430b80 f   vis_ed_widget.obj
 0001:0002fea0       ?deleteEditHandled@vis_ed_widget@@QAEXXZ 00430ea0 f   vis_ed_widget.obj
 0001:000302d0       ??0w_delete_undo@@QAE@HAAVQString@@PAVvis_ed_widget@@V1@2VQRect@@VQStringList@@2@Z 004312d0 f i vis_ed_widget.obj
 0001:000304e0       ?undo@w_delete_undo@@UAEXXZ 004314e0 f i vis_ed_widget.obj
 0001:00030a20       ?Align_Left@vis_ed_widget@@QAEXXZ 00431a20 f   vis_ed_widget.obj
 0001:00030a30       ?Align_Top@vis_ed_widget@@QAEXXZ 00431a30 f   vis_ed_widget.obj
 0001:00030a40       ?Align_Right@vis_ed_widget@@QAEXXZ 00431a40 f   vis_ed_widget.obj
 0001:00030a50       ?Align_Bottom@vis_ed_widget@@QAEXXZ 00431a50 f   vis_ed_widget.obj
 0001:00030a60       ?Align_HMid@vis_ed_widget@@QAEXXZ 00431a60 f   vis_ed_widget.obj
 0001:00030a70       ?Align_VMid@vis_ed_widget@@QAEXXZ 00431a70 f   vis_ed_widget.obj
 0001:00030a80       ?copy@vis_ed_widget@@QAEXXZ 00431a80 f   vis_ed_widget.obj
 0001:00030b20       ?cut@vis_ed_widget@@QAEXXZ 00431b20 f   vis_ed_widget.obj
 0001:00030b40       ?resizeEvent@vis_ed_widget@@UAEXPAVQResizeEvent@@@Z 00431b40 f   vis_ed_widget.obj
 0001:00030b70       ?close@vis_ed_widget@@UAE_N_N@Z 00431b70 f   vis_ed_widget.obj
 0001:00030ea0       ?filename@vis_ed_widget@@QAE?AVQString@@XZ 00431ea0 f i vis_ed_widget.obj
 0001:00030ed0       ?moveEditHandled@vis_ed_widget@@QAEXVQPoint@@@Z 00431ed0 f   vis_ed_widget.obj
 0001:00031370       ?moveUp@vis_ed_widget@@QAEXXZ 00432370 f   vis_ed_widget.obj
 0001:00031380       ?moveDown@vis_ed_widget@@QAEXXZ 00432380 f   vis_ed_widget.obj
 0001:00031390       ?moveLeft@vis_ed_widget@@QAEXXZ 00432390 f   vis_ed_widget.obj
 0001:000313a0       ?moveRight@vis_ed_widget@@QAEXXZ 004323a0 f   vis_ed_widget.obj
 0001:000313b0       ?moveUpFast@vis_ed_widget@@QAEXXZ 004323b0 f   vis_ed_widget.obj
 0001:000313c0       ?moveDownFast@vis_ed_widget@@QAEXXZ 004323c0 f   vis_ed_widget.obj
 0001:000313d0       ?moveLeftFast@vis_ed_widget@@QAEXXZ 004323d0 f   vis_ed_widget.obj
 0001:000313e0       ?moveRightFast@vis_ed_widget@@QAEXXZ 004323e0 f   vis_ed_widget.obj
 0001:000313f0       ?saveXML@vis_ed_widget@@QAEHAAVQString@@_N@Z 004323f0 f   vis_ed_widget.obj
 0001:00031e50       ?setDirty@vis_ed_widget@@QAEX_N@Z 00432e50 f   vis_ed_widget.obj
 0001:00031e60       ?undo@vis_ed_widget@@QAEXXZ 00432e60 f   vis_ed_widget.obj
 0001:00032070       ?redo@vis_ed_widget@@QAEXXZ 00433070 f   vis_ed_widget.obj
 0001:00032270       ?fillStack@vis_ed_widget@@QAEXPAV?$QPtrStack@Vw_undo_event@@@@PAVw_undo_event@@@Z 00433270 f   vis_ed_widget.obj
 0001:00032ff0       ?serial@w_undo_event@@QAEHXZ 00433ff0 f i vis_ed_widget.obj
 0001:00033000       ?getNewName@w_rename_undo@@QAE?AVQString@@XZ 00434000 f i vis_ed_widget.obj
 0001:00033000       ?getName@w_delete_undo@@QAE?AVQString@@XZ 00434000 f i vis_ed_widget.obj
 0001:00033030       ?undo@w_rename_undo@@UAEXXZ 00434030 f i vis_ed_widget.obj
 0001:00033080       ?undo@w_settings_undo@@UAEXXZ 00434080 f i vis_ed_widget.obj
 0001:00033230       ?getOldName@w_rename_undo@@QAE?AVQString@@XZ 00434230 f i vis_ed_widget.obj
 0001:00033230       ?getName@w_move_undo@@QAE?AVQString@@XZ 00434230 f i vis_ed_widget.obj
 0001:00033230       ?getName@w_settings_undo@@QAE?AVQString@@XZ 00434230 f i vis_ed_widget.obj
 0001:00033230       ?getName@w_new_undo@@QAE?AVQString@@XZ 00434230 f i vis_ed_widget.obj
 0001:00033260       ?getSettings@vis_ed_widget@@QAE?AVQStringList@@PAVQWidget@@@Z 00434260 f   vis_ed_widget.obj
 0001:00033370       ?installMessageTrap@vis_ed_widget@@SAXPAVQWidget@@0@Z 00434370 f   vis_ed_widget.obj
 0001:00033420       ?rectChanged@vis_ed_widget@@QAEXPAVQWidget@@VQRect@@@Z 00434420 f   vis_ed_widget.obj
 0001:00033600       ?dialogRectChanged@vis_ed_widget@@QAEXPAVQWidget@@VQRect@@@Z 00434600 f   vis_ed_widget.obj
 0001:00033860       ?setScriptfile@vis_ed_widget@@QAEXAAVQString@@@Z 00434860 f   vis_ed_widget.obj
 0001:00033880       ?highestWidget@vis_ed_widget@@QAEPAVQWidget@@PAV2@@Z 00434880 f   vis_ed_widget.obj
 0001:000338f0       ?invokeEdit@vis_ed_widget@@AAEXPAVQWidget@@@Z 004348f0 f   vis_ed_widget.obj
 0001:00033c50       ?setDlgPos@vis_ed_widget@@QAEXHH@Z 00434c50 f   vis_ed_widget.obj
 0001:00033c70       ?setDialogType@vis_ed_widget@@QAEX_N0@Z 00434c70 f   vis_ed_widget.obj
 0001:00033c90       ?test@vis_ed_widget@@QAEXXZ 00434c90 f   vis_ed_widget.obj
 0001:000348c0       ?widget_count@vis_ed_widget@@QAEXXZ 004358c0 f   vis_ed_widget.obj
 0001:00034ae0       ?getEditHandled@vis_ed_widget@@AAE?AVQWidgetList@@XZ 00435ae0 f   vis_ed_widget.obj
 0001:00034be0       ?getEditHandledOrdered@vis_ed_widget@@AAE?AVQWidgetList@@XZ 00435be0 f   vis_ed_widget.obj
 0001:00034d50       ?getWidgetList@vis_ed_widget@@QAE?AVQWidgetList@@XZ 00435d50 f   vis_ed_widget.obj
 0001:00034e50       ?getWidgetListOrdered@vis_ed_widget@@QAE?AVQWidgetList@@XZ 00435e50 f   vis_ed_widget.obj
 0001:00034fe0       ?gridCorrect@vis_ed_widget@@AAEXVQWidgetList@@@Z 00435fe0 f   vis_ed_widget.obj
 0001:00035160       ?setShowGrid@vis_ed_widget@@QAEX_N@Z 00436160 f   vis_ed_widget.obj
 0001:00035180       ?showGrid@vis_ed_widget@@QAE_NXZ 00436180 f   vis_ed_widget.obj
 0001:00035190       ?gridSize@vis_ed_widget@@QAEHXZ 00436190 f   vis_ed_widget.obj
 0001:000351a0       ?setGridSize@vis_ed_widget@@QAEXH@Z 004361a0 f   vis_ed_widget.obj
 0001:000351d0       ?toggleGrid@vis_ed_widget@@QAEXXZ 004361d0 f   vis_ed_widget.obj
 0001:00035270       ?doDistribute@vis_ed_widget@@QAEXXZ 00436270 f   vis_ed_widget.obj
 0001:00035270       ?fileMenuAboutToShow@vis_ed_mdi@@IAEXXZ 00436270 f   vis_ed_widget.obj
 0001:00035280       ?distributeEvenlyHor@vis_ed_widget@@QAEXXZ 00436280 f   vis_ed_widget.obj
 0001:00035290       ?distributeEvenlyVer@vis_ed_widget@@QAEXXZ 00436290 f   vis_ed_widget.obj
 0001:000352a0       ?distributeEvenly@vis_ed_widget@@AAEXW4distribute@1@@Z 004362a0 f   vis_ed_widget.obj
 0001:00035860       ??1hPosSortedWidgetList@@UAE@XZ 00436860 f i vis_ed_widget.obj
 0001:000358d0       ?compareItems@hPosSortedWidgetList@@UAEHPAX0@Z 004368d0 f i vis_ed_widget.obj
 0001:00035900       ??_EhPosSortedWidgetList@@UAEPAXI@Z 00436900 f i vis_ed_widget.obj
 0001:00035900       ??_GhPosSortedWidgetList@@UAEPAXI@Z 00436900 f i vis_ed_widget.obj
 0001:00035920       ??1vPosSortedWidgetList@@UAE@XZ 00436920 f i vis_ed_widget.obj
 0001:00035990       ?compareItems@vPosSortedWidgetList@@UAEHPAX0@Z 00436990 f i vis_ed_widget.obj
 0001:000359c0       ??_EvPosSortedWidgetList@@UAEPAXI@Z 004369c0 f i vis_ed_widget.obj
 0001:000359c0       ??_GvPosSortedWidgetList@@UAEPAXI@Z 004369c0 f i vis_ed_widget.obj
 0001:000359e0       ?stackWidgetsLeft@vis_ed_widget@@QAEXXZ 004369e0 f   vis_ed_widget.obj
 0001:000359f0       ?stackWidgets@vis_ed_widget@@AAEXW4align@1@H@Z 004369f0 f   vis_ed_widget.obj
 0001:00036080       ?stackWidgetsRight@vis_ed_widget@@QAEXXZ 00437080 f   vis_ed_widget.obj
 0001:00036090       ?stackWidgetsTop@vis_ed_widget@@QAEXXZ 00437090 f   vis_ed_widget.obj
 0001:000360a0       ?stackWidgetsBottom@vis_ed_widget@@QAEXXZ 004370a0 f   vis_ed_widget.obj
 0001:000360b0       ?centreWidgetsHor@vis_ed_widget@@QAEXXZ 004370b0 f   vis_ed_widget.obj
 0001:000360c0       ?centreWidgetsVer@vis_ed_widget@@QAEXXZ 004370c0 f   vis_ed_widget.obj
 0001:000360d0       ?centreWidgets@vis_ed_widget@@AAEXH@Z 004370d0 f   vis_ed_widget.obj
 0001:00036290       ?getWidgetsExtent@vis_ed_widget@@AAE_NVQWidgetList@@AAH111@Z 00437290 f   vis_ed_widget.obj
 0001:000363e0       ?doDuplicate@vis_ed_widget@@QAEXXZ 004373e0 f   vis_ed_widget.obj
 0001:000364b0       ?duplicateWidget@vis_ed_widget@@AAEXHHH_N@Z 004374b0 f   vis_ed_widget.obj
 0001:000368a0       ?highlightItem@vis_ed_widget@@QAEXABVQString@@@Z 004378a0 f   vis_ed_widget.obj
 0001:00036990       ?renameItem@vis_ed_widget@@QAEXABVQString@@0@Z 00437990 f   vis_ed_widget.obj
 0001:00036ab0       ?doWidgetRename@vis_ed_widget@@AAEXPAVQWidget@@ABVQString@@1@Z 00437ab0 f   vis_ed_widget.obj
 0001:00036ea0       ?openVisualStudio@vis_ed_widget@@QAEXXZ 00437ea0 f   vis_ed_widget.obj
 0001:000378d0       ??_EQProcess@@UAEPAXI@Z    004388d0 f i vis_ed_widget.obj
 0001:000378d0       ??_GQProcess@@UAEPAXI@Z    004388d0 f i vis_ed_widget.obj
 0001:000378f0       ?openInExplorer@vis_ed_widget@@QAEXXZ 004388f0 f   vis_ed_widget.obj
 0001:00037a80       ?openScriptUI@vis_ed_widget@@QAEXXZ 00438a80 f   vis_ed_widget.obj
 0001:00037dc0       ?openScriptVS@vis_ed_widget@@QAEXXZ 00438dc0 f   vis_ed_widget.obj
 0001:00038610       ?wizProcessExited@vis_ed_widget@@QAEXXZ 00439610 f   vis_ed_widget.obj
 0001:00038950       ?openShell@vis_ed_widget@@AAEHABVQString@@@Z 00439950 f   vis_ed_widget.obj
 0001:00038b30       ?propertiesEdit@vis_ed_widget@@QAEXXZ 00439b30 f   vis_ed_widget.obj
 0001:00038cc0       ?contextMenu@vis_ed_widget@@QAEXXZ 00439cc0 f   vis_ed_widget.obj
 0001:00038e50       ?setStyleSheet@vis_ed_widget@@QAEXABVQString@@@Z 00439e50 f   vis_ed_widget.obj
 0001:00038ef0       ?setStateSheet@vis_ed_widget@@QAEXABVQString@@@Z 00439ef0 f   vis_ed_widget.obj
 0001:00038f60       ?setSheet@vis_ed_widget@@AAEXVQString@@0@Z 00439f60 f   vis_ed_widget.obj
 0001:000397a0       ?browseStyleSheet@vis_ed_widget@@QAEXXZ 0043a7a0 f   vis_ed_widget.obj
 0001:000397c0       ?browseStateSheet@vis_ed_widget@@QAEXXZ 0043a7c0 f   vis_ed_widget.obj
 0001:000397e0       ?stylesheetBrowser@vis_ed_widget@@AAEXVQString@@@Z 0043a7e0 f   vis_ed_widget.obj
 0001:00039f50       ?doConnectionsDialog@vis_ed_widget@@QAEXXZ 0043af50 f   vis_ed_widget.obj
 0001:0003a080       ?doConnectionsDialog@vis_ed_widget@@AAEXABVQString@@000@Z 0043b080 f   vis_ed_widget.obj
 0001:0003a410       ?nextserial@w_undo_event@@SAHXZ 0043b410 f i vis_ed_widget.obj
 0001:0003a420       ??0w_connection_undo@@QAE@HABVQString@@PAVvis_ed_widget@@VsignalConnectionRefList@@@Z 0043b420 f i vis_ed_widget.obj
 0001:0003a670       ?undo@w_connection_undo@@UAEXXZ 0043b670 f i vis_ed_widget.obj
 0001:0003a830       ?addWidget@vis_ed_widget@@AAEXPAVQWidget@@@Z 0043b830 f   vis_ed_widget.obj
 0001:0003a9c0       ?removeWidget@vis_ed_widget@@AAEXPAVQWidget@@@Z 0043b9c0 f   vis_ed_widget.obj
 0001:0003aaa0       ?doPullForward@vis_ed_widget@@QAEXXZ 0043baa0 f   vis_ed_widget.obj
 0001:0003ab10       ?doPushBack@vis_ed_widget@@QAEXXZ 0043bb10 f   vis_ed_widget.obj
 0001:0003abc0       ?showEditHandles@vis_ed_widget@@QAEX_N@Z 0043bbc0 f   vis_ed_widget.obj
 0001:0003ac50       ?hasEditHandles@vis_ed_widget@@QAE_NPAVQWidget@@@Z 0043bc50 f   vis_ed_widget.obj
 0001:0003acc0       ?showWidgetStatsOnStatusBar@vis_ed_widget@@AAEXPAVQWidget@@@Z 0043bcc0 f   vis_ed_widget.obj
 0001:0003aed0       ?flagUndoRedoAvailable@vis_ed_widget@@QAEXXZ 0043bed0 f   vis_ed_widget.obj
 0001:0003b040       ?doSizePositionManual@vis_ed_widget@@QAEXXZ 0043c040 f   vis_ed_widget.obj
 0001:0003c410       ?clipboardDataChanged@vis_ed_widget@@QAEXXZ 0043d410 f   vis_ed_widget.obj
 0001:0003c440       ?isPasteWidgetAvailable@vis_ed_widget@@QAE_NXZ 0043d440 f   vis_ed_widget.obj
 0001:0003c570       ?isPasteSettingsAvailable@vis_ed_widget@@QAE_NXZ 0043d570 f   vis_ed_widget.obj
 0001:0003c8a0       ?doManualSettings@vis_ed_widget@@QAEXXZ 0043d8a0 f   vis_ed_widget.obj
 0001:0003ccb0       ?doExportSettings@vis_ed_widget@@QAEXXZ 0043dcb0 f   vis_ed_widget.obj
 0001:0003d0f0       ?doImportSettings@vis_ed_widget@@QAEXXZ 0043e0f0 f   vis_ed_widget.obj
 0001:0003d600       ?evaluateCanOpenScript@vis_ed_widget@@AAEXPAVQWidget@@@Z 0043e600 f   vis_ed_widget.obj
 0001:0003d830       ?setTestInstance@vis_ed_widget@@QAEXABVQString@@@Z 0043e830 f   vis_ed_widget.obj
 0001:0003d850       ?setPanelmanSize@vis_ed_widget@@QAEXABVQString@@@Z 0043e850 f   vis_ed_widget.obj
 0001:0003d870       ?setShowTestDialog@vis_ed_widget@@QAEX_N@Z 0043e870 f   vis_ed_widget.obj
 0001:0003d880       ??0?$QPtrList@VsignalConnection@@@@QAE@ABV0@@Z 0043e880 f i vis_ed_widget.obj
 0001:0003d8a0       ??1?$QPtrStack@Vw_undo_event@@@@UAE@XZ 0043e8a0 f i vis_ed_widget.obj
 0001:0003d900       ??1?$_Tree@PAVQWidget@@U?$pair@QAVQWidget@@PAV1@@std@@U_Kfn@?$map@PAVQWidget@@PAV1@U?$less@PAVQWidget@@@std@@V?$allocator@PAVQWidget@@@3@@3@U?$less@PAVQWidget@@@3@V?$allocator@PAVQWidget@@@3@@std@@QAE@XZ 0043e900 f i vis_ed_widget.obj
 0001:0003d9e0       ??1?$_Tree@VQString@@U?$pair@$$CBVQString@@VQStringList@@@std@@U_Kfn@?$map@VQString@@VQStringList@@U?$less@VQString@@@std@@V?$allocator@VQStringList@@@4@@3@U?$less@VQString@@@3@V?$allocator@VQStringList@@@3@@std@@QAE@XZ 0043e9e0 f i vis_ed_widget.obj
 0001:0003dad0       ??_E?$QPtrStack@Vw_undo_event@@@@UAEPAXI@Z 0043ead0 f i vis_ed_widget.obj
 0001:0003dad0       ??_G?$QPtrStack@Vw_undo_event@@@@UAEPAXI@Z 0043ead0 f i vis_ed_widget.obj
 0001:0003daf0       ?begin@?$_Tree@VQString@@U?$pair@$$CBVQString@@VQStringList@@@std@@U_Kfn@?$map@VQString@@VQStringList@@U?$less@VQString@@@std@@V?$allocator@VQStringList@@@4@@3@U?$less@VQString@@@3@V?$allocator@VQStringList@@@3@@std@@QAE?AViterator@12@XZ 0043eaf0 f i vis_ed_widget.obj
 0001:0003daf0       ?begin@?$_Tree@VQString@@V1@U_Kfn@?$set@VQString@@U?$less@VQString@@@std@@V?$allocator@VQString@@@3@@std@@U?$less@VQString@@@4@V?$allocator@VQString@@@4@@std@@QAE?AViterator@12@XZ 0043eaf0 f i vis_ed_widget.obj
 0001:0003daf0       ?begin@?$_Tree@PAVQWidget@@U?$pair@QAVQWidget@@PAV1@@std@@U_Kfn@?$map@PAVQWidget@@PAV1@U?$less@PAVQWidget@@@std@@V?$allocator@PAVQWidget@@@3@@3@U?$less@PAVQWidget@@@3@V?$allocator@PAVQWidget@@@3@@std@@QAE?AViterator@12@XZ 0043eaf0 f i vis_ed_widget.obj
 0001:0003db00       ?erase@?$_Tree@PAVQWidget@@U?$pair@QAVQWidget@@PAV1@@std@@U_Kfn@?$map@PAVQWidget@@PAV1@U?$less@PAVQWidget@@@std@@V?$allocator@PAVQWidget@@@3@@3@U?$less@PAVQWidget@@@3@V?$allocator@PAVQWidget@@@3@@std@@QAE?AViterator@12@V312@@Z 0043eb00 f i vis_ed_widget.obj
 0001:0003df00       ?find@?$_Tree@PAVQWidget@@U?$pair@QAVQWidget@@PAV1@@std@@U_Kfn@?$map@PAVQWidget@@PAV1@U?$less@PAVQWidget@@@std@@V?$allocator@PAVQWidget@@@3@@3@U?$less@PAVQWidget@@@3@V?$allocator@PAVQWidget@@@3@@std@@QAE?AViterator@12@ABQAVQWidget@@@Z 0043ef00 f i vis_ed_widget.obj
 0001:0003df70       ?_Inc@const_iterator@?$_Tree@PAVQWidget@@U?$pair@QAVQWidget@@PAV1@@std@@U_Kfn@?$map@PAVQWidget@@PAV1@U?$less@PAVQWidget@@@std@@V?$allocator@PAVQWidget@@@3@@3@U?$less@PAVQWidget@@@3@V?$allocator@PAVQWidget@@@3@@std@@QAEXXZ 0043ef70 f i vis_ed_widget.obj
 0001:0003dfc0       ??0?$_Tree@VQString@@U?$pair@$$CBVQString@@VQStringList@@@std@@U_Kfn@?$map@VQString@@VQStringList@@U?$less@VQString@@@std@@V?$allocator@VQStringList@@@4@@3@U?$less@VQString@@@3@V?$allocator@VQStringList@@@3@@std@@QAE@ABU?$less@VQString@@@1@_NABV?$allocator@VQStringList@@@1@@Z 0043efc0 f i vis_ed_widget.obj
 0001:0003dff0       ??0?$pair@Viterator@?$_Tree@PAVQWidget@@U?$pair@QAVQWidget@@PAV1@@std@@U_Kfn@?$map@PAVQWidget@@PAV1@U?$less@PAVQWidget@@@std@@V?$allocator@PAVQWidget@@@3@@3@U?$less@PAVQWidget@@@3@V?$allocator@PAVQWidget@@@3@@std@@_N@std@@QAE@ABViterator@?$_Tree@PAVQWidget@@U?$pair@QAVQWidget@@PAV1@@std@@U_Kfn@?$map@PAVQWidget@@PAV1@U?$less@PAVQWidget@@@std@@V?$allocator@PAVQWidget@@@3@@3@U?$less@PAVQWidget@@@3@V?$allocator@PAVQWidget@@@3@@1@AB_N@Z 0043eff0 f i vis_ed_widget.obj
 0001:0003e010       ?lower_bound@?$_Tree@PAVQWidget@@U?$pair@QAVQWidget@@PAV1@@std@@U_Kfn@?$map@PAVQWidget@@PAV1@U?$less@PAVQWidget@@@std@@V?$allocator@PAVQWidget@@@3@@3@U?$less@PAVQWidget@@@3@V?$allocator@PAVQWidget@@@3@@std@@QAE?AViterator@12@ABQAVQWidget@@@Z 0043f010 f i vis_ed_widget.obj
 0001:0003e050       ?_Erase@?$_Tree@PAVQWidget@@U?$pair@QAVQWidget@@PAV1@@std@@U_Kfn@?$map@PAVQWidget@@PAV1@U?$less@PAVQWidget@@@std@@V?$allocator@PAVQWidget@@@3@@3@U?$less@PAVQWidget@@@3@V?$allocator@PAVQWidget@@@3@@std@@IAEXPAU_Node@12@@Z 0043f050 f i vis_ed_widget.obj
 0001:0003e090       ?_Init@?$_Tree@PAVQWidget@@U?$pair@QAVQWidget@@PAV1@@std@@U_Kfn@?$map@PAVQWidget@@PAV1@U?$less@PAVQWidget@@@std@@V?$allocator@PAVQWidget@@@3@@3@U?$less@PAVQWidget@@@3@V?$allocator@PAVQWidget@@@3@@std@@IAEXXZ 0043f090 f i vis_ed_widget.obj
 0001:0003e130       ?_Insert@?$_Tree@PAVQWidget@@U?$pair@QAVQWidget@@PAV1@@std@@U_Kfn@?$map@PAVQWidget@@PAV1@U?$less@PAVQWidget@@@std@@V?$allocator@PAVQWidget@@@3@@3@U?$less@PAVQWidget@@@3@V?$allocator@PAVQWidget@@@3@@std@@IAE?AViterator@12@PAU_Node@12@0ABU?$pair@QAVQWidget@@PAV1@@2@@Z 0043f130 f i vis_ed_widget.obj
 0001:0003e3a0       ?_Min@?$_Tree@PAVQWidget@@U?$pair@QAVQWidget@@PAV1@@std@@U_Kfn@?$map@PAVQWidget@@PAV1@U?$less@PAVQWidget@@@std@@V?$allocator@PAVQWidget@@@3@@3@U?$less@PAVQWidget@@@3@V?$allocator@PAVQWidget@@@3@@std@@KAPAU_Node@12@PAU312@@Z 0043f3a0 f i vis_ed_widget.obj
 0001:0003e3c0       ?_Lbound@?$_Tree@PAVQWidget@@U?$pair@QAVQWidget@@PAV1@@std@@U_Kfn@?$map@PAVQWidget@@PAV1@U?$less@PAVQWidget@@@std@@V?$allocator@PAVQWidget@@@3@@3@U?$less@PAVQWidget@@@3@V?$allocator@PAVQWidget@@@3@@std@@IBEPAU_Node@12@ABQAVQWidget@@@Z 0043f3c0 f i vis_ed_widget.obj
 0001:0003e3f0       ?_Dec@const_iterator@?$_Tree@PAVQWidget@@U?$pair@QAVQWidget@@PAV1@@std@@U_Kfn@?$map@PAVQWidget@@PAV1@U?$less@PAVQWidget@@@std@@V?$allocator@PAVQWidget@@@3@@3@U?$less@PAVQWidget@@@3@V?$allocator@PAVQWidget@@@3@@std@@QAEXXZ 0043f3f0 f i vis_ed_widget.obj
 0001:0003e450       ?_Construct@std@@YAXPAU?$pair@QAVQWidget@@PAV1@@1@ABU21@@Z 0043f450 f i vis_ed_widget.obj
 0001:0003e470       ??_Evis_ed_widget@@WCI@AEPAXI@Z 0043f470 f i vis_ed_widget.obj
 0001:0003e480       ??0xml_listview@@QAE@PAVQWidget@@PBDI@Z 0043f480 f   xml_listview.obj
 0001:0003e580       ?metaObject@xml_listview@@UBEPAVQMetaObject@@XZ 0043f580 f i xml_listview.obj
 0001:0003e590       ??_Exml_listview@@UAEPAXI@Z 0043f590 f i xml_listview.obj
 0001:0003e590       ??_Gxml_listview@@UAEPAXI@Z 0043f590 f i xml_listview.obj
 0001:0003e5b0       ??1xml_listview@@UAE@XZ    0043f5b0 f   xml_listview.obj
 0001:0003e620       ?addColumns@xml_listview@@QAEXAAVQStringList@@0@Z 0043f620 f   xml_listview.obj
 0001:0003e760       ?setRoot@xml_listview@@QAEX_N@Z 0043f760 f   xml_listview.obj
 0001:0003e780       ?load@xml_listview@@QAEXAAVQString@@@Z 0043f780 f   xml_listview.obj
 0001:0003f410       ?startDrag@xml_listview@@UAEXXZ 00440410 f   xml_listview.obj
 0001:0003f430       ??_Exml_listview@@WCI@AEPAXI@Z 00440430 f i xml_listview.obj
 0001:0003f440       ??0device_list_editBase@@QAE@PAVQWidget@@PBD_NI@Z 00440440 f   device_list_edit.obj
 0001:0003fa00       ??_Edevice_list_editBase@@UAEPAXI@Z 00440a00 f i device_list_edit.obj
 0001:0003fa00       ??_Gdevice_list_editBase@@UAEPAXI@Z 00440a00 f i device_list_edit.obj
 0001:0003fa20       ??1device_list_editBase@@UAE@XZ 00440a20 f   device_list_edit.obj
 0001:0003fa40       ?languageChange@device_list_editBase@@MAEXXZ 00440a40 f   device_list_edit.obj
 0001:0003fc60       ??_Edevice_list_editBase@@WCI@AEPAXI@Z 00440c60 f i device_list_edit.obj
 0001:0003fc70       ??0dialogeditBase@@QAE@PAVQWidget@@PBD_NI@Z 00440c70 f   dialogedit.obj
 0001:00040bf0       ?metaObject@dialogeditBase@@UBEPAVQMetaObject@@XZ 00441bf0 f i dialogedit.obj
 0001:00040c00       ??_EdialogeditBase@@UAEPAXI@Z 00441c00 f i dialogedit.obj
 0001:00040c00       ??_GdialogeditBase@@UAEPAXI@Z 00441c00 f i dialogedit.obj
 0001:00040c20       ??_EQGroupBox@@UAEPAXI@Z   00441c20 f i dialogedit.obj
 0001:00040c20       ??_GQGroupBox@@UAEPAXI@Z   00441c20 f i dialogedit.obj
 0001:00040c40       ??_GQSpinBox@@UAEPAXI@Z    00441c40 f i dialogedit.obj
 0001:00040c40       ??_EQSpinBox@@UAEPAXI@Z    00441c40 f i dialogedit.obj
 0001:00040c60       ??1dialogeditBase@@UAE@XZ  00441c60 f   dialogedit.obj
 0001:00040c80       ?languageChange@dialogeditBase@@MAEXXZ 00441c80 f   dialogedit.obj
 0001:00041410       ??_EQGroupBox@@WCI@AEPAXI@Z 00442410 f i dialogedit.obj
 0001:00041420       ??_EQSpinBox@@WCI@AEPAXI@Z 00442420 f i dialogedit.obj
 0001:00041430       ??_EQSpinBox@@WGM@AEPAXI@Z 00442430 f i dialogedit.obj
 0001:00041440       ??_EdialogeditBase@@WCI@AEPAXI@Z 00442440 f i dialogedit.obj
 0001:00041450       ??0duplicateDlgBase@@QAE@PAVQWidget@@PBD_NI@Z 00442450 f   duplicatedlg.obj
 0001:00041b40       ?metaObject@duplicateDlgBase@@UBEPAVQMetaObject@@XZ 00442b40 f i duplicatedlg.obj
 0001:00041b50       ??_GduplicateDlgBase@@UAEPAXI@Z 00442b50 f i duplicatedlg.obj
 0001:00041b50       ??_EduplicateDlgBase@@UAEPAXI@Z 00442b50 f i duplicatedlg.obj
 0001:00041b70       ??_EQGridLayout@@UAEPAXI@Z 00442b70 f i duplicatedlg.obj
 0001:00041b70       ??_GQGridLayout@@UAEPAXI@Z 00442b70 f i duplicatedlg.obj
 0001:00041b90       ??1duplicateDlgBase@@UAE@XZ 00442b90 f   duplicatedlg.obj
 0001:00041bb0       ?languageChange@duplicateDlgBase@@MAEXXZ 00442bb0 f   duplicatedlg.obj
 0001:00041f60       ??_EQGridLayout@@WCI@AEPAXI@Z 00442f60 f i duplicatedlg.obj
 0001:00041f70       ??_EduplicateDlgBase@@WCI@AEPAXI@Z 00442f70 f i duplicatedlg.obj
 0001:00041f80       ??0file_newBase@@QAE@PAVQWidget@@PBD_NI@Z 00442f80 f   file_new.obj
 0001:000422f0       ?metaObject@file_newBase@@UBEPAVQMetaObject@@XZ 004432f0 f i file_new.obj
 0001:00042300       ??_Gfile_newBase@@UAEPAXI@Z 00443300 f i file_new.obj
 0001:00042300       ??_Efile_newBase@@UAEPAXI@Z 00443300 f i file_new.obj
 0001:00042320       ??_EQIconView@@UAEPAXI@Z   00443320 f i file_new.obj
 0001:00042320       ??_GQIconView@@UAEPAXI@Z   00443320 f i file_new.obj
 0001:00042340       ??1file_newBase@@UAE@XZ    00443340 f   file_new.obj
 0001:00042360       ?languageChange@file_newBase@@MAEXXZ 00443360 f   file_new.obj
 0001:00042590       ??_EQIconView@@WCI@AEPAXI@Z 00443590 f i file_new.obj
 0001:000425a0       ??_Efile_newBase@@WCI@AEPAXI@Z 004435a0 f i file_new.obj
 0001:000425b0       ??0globalstyleDlgBase@@QAE@PAVQWidget@@PBD_NI@Z 004435b0 f   globalstyledlg.obj
 0001:00043290       ?metaObject@globalstyleDlgBase@@UBEPAVQMetaObject@@XZ 00444290 f i globalstyledlg.obj
 0001:000432a0       ??_EglobalstyleDlgBase@@UAEPAXI@Z 004442a0 f i globalstyledlg.obj
 0001:000432a0       ??_GglobalstyleDlgBase@@UAEPAXI@Z 004442a0 f i globalstyledlg.obj
 0001:000432c0       ??1globalstyleDlgBase@@UAE@XZ 004442c0 f   globalstyledlg.obj
 0001:000432e0       ?languageChange@globalstyleDlgBase@@MAEXXZ 004442e0 f   globalstyledlg.obj
 0001:00043720       ??_EglobalstyleDlgBase@@WCI@AEPAXI@Z 00444720 f i globalstyledlg.obj
 0001:00043730       ??0importSettingsBase@@QAE@PAVQWidget@@PBD_NI@Z 00444730 f   importsettings.obj
 0001:00043b20       ?metaObject@importSettingsBase@@UBEPAVQMetaObject@@XZ 00444b20 f i importsettings.obj
 0001:00043b30       ??_EimportSettingsBase@@UAEPAXI@Z 00444b30 f i importsettings.obj
 0001:00043b30       ??_GimportSettingsBase@@UAEPAXI@Z 00444b30 f i importsettings.obj
 0001:00043b50       ??_EQListView@@UAEPAXI@Z   00444b50 f i importsettings.obj
 0001:00043b50       ??_GQListView@@UAEPAXI@Z   00444b50 f i importsettings.obj
 0001:00043b70       ??1importSettingsBase@@UAE@XZ 00444b70 f   importsettings.obj
 0001:00043b90       ?languageChange@importSettingsBase@@MAEXXZ 00444b90 f   importsettings.obj
 0001:00043d70       ??_EQListView@@WCI@AEPAXI@Z 00444d70 f i importsettings.obj
 0001:00043d80       ??_EimportSettingsBase@@WCI@AEPAXI@Z 00444d80 f i importsettings.obj
 0001:00043d90       ??0manualSettingsBase@@QAE@PAVQWidget@@PBD_NI@Z 00444d90 f   manualsettings.obj
 0001:00044160       ?metaObject@manualSettingsBase@@UBEPAVQMetaObject@@XZ 00445160 f i manualsettings.obj
 0001:00044170       ??_GmanualSettingsBase@@UAEPAXI@Z 00445170 f i manualsettings.obj
 0001:00044170       ??_EmanualSettingsBase@@UAEPAXI@Z 00445170 f i manualsettings.obj
 0001:00044190       ??_GQTextEdit@@UAEPAXI@Z   00445190 f i manualsettings.obj
 0001:00044190       ??_EQTextEdit@@UAEPAXI@Z   00445190 f i manualsettings.obj
 0001:000441b0       ??1manualSettingsBase@@UAE@XZ 004451b0 f   manualsettings.obj
 0001:000441d0       ?languageChange@manualSettingsBase@@MAEXXZ 004451d0 f   manualsettings.obj
 0001:000443a0       ??_EQTextEdit@@WCI@AEPAXI@Z 004453a0 f i manualsettings.obj
 0001:000443b0       ??_EmanualSettingsBase@@WCI@AEPAXI@Z 004453b0 f i manualsettings.obj
 0001:000443c0       ?className@device_list@@UBEPBDXZ 004453c0 f   moc_device_list.obj
 0001:00044420       ?staticMetaObject@device_list@@SAPAVQMetaObject@@XZ 00445420 f   moc_device_list.obj
 0001:00044540       ?qt_cast@device_list@@UAEPAXPBD@Z 00445540 f   moc_device_list.obj
 0001:000445b0       ?qt_invoke@device_list@@UAE_NHPAUQUObject@@@Z 004455b0 f   moc_device_list.obj
 0001:000446c0       ?qt_emit@device_list@@UAE_NHPAUQUObject@@@Z 004456c0 f   moc_device_list.obj
 0001:000446e0       ?className@device_list_editBase@@UBEPBDXZ 004456e0 f   moc_device_list_edit.obj
 0001:00044740       ?tr@device_list_editBase@@SA?AVQString@@PBD0@Z 00445740 f   moc_device_list_edit.obj
 0001:00044790       ?staticMetaObject@device_list_editBase@@SAPAVQMetaObject@@XZ 00445790 f   moc_device_list_edit.obj
 0001:000447e0       ?qt_cast@device_list_editBase@@UAEPAXPBD@Z 004457e0 f   moc_device_list_edit.obj
 0001:00044850       ?qt_invoke@device_list_editBase@@UAE_NHPAUQUObject@@@Z 00445850 f   moc_device_list_edit.obj
 0001:00044890       ?className@deviceTypeListView@@UBEPBDXZ 00445890 f   moc_deviceTypeListView.obj
 0001:000448f0       ?staticMetaObject@deviceTypeListView@@SAPAVQMetaObject@@XZ 004458f0 f   moc_deviceTypeListView.obj
 0001:00044980       ?qt_cast@deviceTypeListView@@UAEPAXPBD@Z 00445980 f   moc_deviceTypeListView.obj
 0001:000449f0       ?startDrag@deviceTypeListView@@IAEXPAVQListViewItem@@@Z 004459f0 f   moc_deviceTypeListView.obj
 0001:00044ab0       ?qt_emit@deviceTypeListView@@UAE_NHPAUQUObject@@@Z 00445ab0 f   moc_deviceTypeListView.obj
 0001:00044af0       ?className@dialog@@UBEPBDXZ 00445af0 f   moc_dialog.obj
 0001:00044b50       ?staticMetaObject@dialog@@SAPAVQMetaObject@@XZ 00445b50 f   moc_dialog.obj
 0001:00044c30       ?qt_cast@dialog@@UAEPAXPBD@Z 00445c30 f   moc_dialog.obj
 0001:00044ca0       ?qt_invoke@dialog@@UAE_NHPAUQUObject@@@Z 00445ca0 f   moc_dialog.obj
 0001:00044d50       ?qt_emit@dialog@@UAE_NHPAUQUObject@@@Z 00445d50 f   moc_dialog.obj
 0001:00044d70       ?qt_property@dialog@@UAE_NHHPAVQVariant@@@Z 00445d70 f   moc_dialog.obj
 0001:00044d90       ?className@dialogeditBase@@UBEPBDXZ 00445d90 f   moc_dialogedit.obj
 0001:00044df0       ?tr@dialogeditBase@@SA?AVQString@@PBD0@Z 00445df0 f   moc_dialogedit.obj
 0001:00044e40       ?staticMetaObject@dialogeditBase@@SAPAVQMetaObject@@XZ 00445e40 f   moc_dialogedit.obj
 0001:00044e90       ?qt_cast@dialogeditBase@@UAEPAXPBD@Z 00445e90 f   moc_dialogedit.obj
 0001:00044f00       ?qt_invoke@dialogeditBase@@UAE_NHPAUQUObject@@@Z 00445f00 f   moc_dialogedit.obj
 0001:00044f40       ?className@dialogedit@@UBEPBDXZ 00445f40 f   moc_dialogeditimpl.obj
 0001:00044fa0       ?staticMetaObject@dialogedit@@SAPAVQMetaObject@@XZ 00445fa0 f   moc_dialogeditimpl.obj
 0001:00044ff0       ?qt_cast@dialogedit@@UAEPAXPBD@Z 00445ff0 f   moc_dialogeditimpl.obj
 0001:00045060       ?qt_invoke@dialogedit@@UAE_NHPAUQUObject@@@Z 00446060 f   moc_dialogeditimpl.obj
 0001:000450d0       ?staticMetaObject@distributeBase@@SAPAVQMetaObject@@XZ 004460d0 f   moc_distribute.obj
 0001:00045170       ?staticMetaObject@distribute@@SAPAVQMetaObject@@XZ 00446170 f   moc_distributeimpl.obj
 0001:000451c0       ?className@duplicateDlgBase@@UBEPBDXZ 004461c0 f   moc_duplicatedlg.obj
 0001:00045220       ?tr@duplicateDlgBase@@SA?AVQString@@PBD0@Z 00446220 f   moc_duplicatedlg.obj
 0001:00045270       ?staticMetaObject@duplicateDlgBase@@SAPAVQMetaObject@@XZ 00446270 f   moc_duplicatedlg.obj
 0001:000452c0       ?qt_cast@duplicateDlgBase@@UAEPAXPBD@Z 004462c0 f   moc_duplicatedlg.obj
 0001:00045330       ?qt_invoke@duplicateDlgBase@@UAE_NHPAUQUObject@@@Z 00446330 f   moc_duplicatedlg.obj
 0001:00045370       ?className@duplicateDlg@@UBEPBDXZ 00446370 f   moc_duplicatedlgimpl.obj
 0001:000453d0       ?staticMetaObject@duplicateDlg@@SAPAVQMetaObject@@XZ 004463d0 f   moc_duplicatedlgimpl.obj
 0001:00045420       ?qt_cast@duplicateDlg@@UAEPAXPBD@Z 00446420 f   moc_duplicatedlgimpl.obj
 0001:00045490       ?qt_invoke@duplicateDlg@@UAE_NHPAUQUObject@@@Z 00446490 f   moc_duplicatedlgimpl.obj
 0001:000454b0       ?className@editHandles@@UBEPBDXZ 004464b0 f   moc_editHandles.obj
 0001:00045510       ?staticMetaObject@editHandles@@SAPAVQMetaObject@@XZ 00446510 f   moc_editHandles.obj
 0001:000455f0       ?qt_cast@editHandles@@UAEPAXPBD@Z 004465f0 f   moc_editHandles.obj
 0001:00045660       ?rectChanged@editHandles@@IAEXPAVQWidget@@VQRect@@@Z 00446660 f   moc_editHandles.obj
 0001:00045730       ?statusBarMessage@editHandles@@IAEXABVQString@@@Z 00446730 f   moc_editHandles.obj
 0001:00045790       ?qt_invoke@editHandles@@UAE_NHPAUQUObject@@@Z 00446790 f   moc_editHandles.obj
 0001:00045790       ?qt_invoke@handleBlock@@UAE_NHPAUQUObject@@@Z 00446790 f   moc_editHandles.obj
 0001:000457b0       ?qt_emit@editHandles@@UAE_NHPAUQUObject@@@Z 004467b0 f   moc_editHandles.obj
 0001:00045830       ?className@file_newBase@@UBEPBDXZ 00446830 f   moc_file_new.obj
 0001:00045890       ?tr@file_newBase@@SA?AVQString@@PBD0@Z 00446890 f   moc_file_new.obj
 0001:000458e0       ?staticMetaObject@file_newBase@@SAPAVQMetaObject@@XZ 004468e0 f   moc_file_new.obj
 0001:00045930       ?qt_cast@file_newBase@@UAEPAXPBD@Z 00446930 f   moc_file_new.obj
 0001:000459a0       ?qt_invoke@file_newBase@@UAE_NHPAUQUObject@@@Z 004469a0 f   moc_file_new.obj
 0001:000459e0       ?className@file_new@@UBEPBDXZ 004469e0 f   moc_file_new_imp.obj
 0001:00045a40       ?staticMetaObject@file_new@@SAPAVQMetaObject@@XZ 00446a40 f   moc_file_new_imp.obj
 0001:00045ad0       ?qt_cast@file_new@@UAEPAXPBD@Z 00446ad0 f   moc_file_new_imp.obj
 0001:00045b40       ?qt_invoke@file_new@@UAE_NHPAUQUObject@@@Z 00446b40 f   moc_file_new_imp.obj
 0001:00045ba0       ?className@globalstyleDlgBase@@UBEPBDXZ 00446ba0 f   moc_globalstyledlg.obj
 0001:00045c00       ?tr@globalstyleDlgBase@@SA?AVQString@@PBD0@Z 00446c00 f   moc_globalstyledlg.obj
 0001:00045c50       ?staticMetaObject@globalstyleDlgBase@@SAPAVQMetaObject@@XZ 00446c50 f   moc_globalstyledlg.obj
 0001:00045ca0       ?qt_cast@globalstyleDlgBase@@UAEPAXPBD@Z 00446ca0 f   moc_globalstyledlg.obj
 0001:00045d10       ?qt_invoke@globalstyleDlgBase@@UAE_NHPAUQUObject@@@Z 00446d10 f   moc_globalstyledlg.obj
 0001:00045d50       ?className@globalStyleDlg@@UBEPBDXZ 00446d50 f   moc_globalstyledlgimpl.obj
 0001:00045db0       ?staticMetaObject@globalStyleDlg@@SAPAVQMetaObject@@XZ 00446db0 f   moc_globalstyledlgimpl.obj
 0001:00045e40       ?qt_cast@globalStyleDlg@@UAEPAXPBD@Z 00446e40 f   moc_globalstyledlgimpl.obj
 0001:00045eb0       ?qt_invoke@globalStyleDlg@@UAE_NHPAUQUObject@@@Z 00446eb0 f   moc_globalstyledlgimpl.obj
 0001:00045f10       ?className@handleBlock@@UBEPBDXZ 00446f10 f   moc_handleBlock.obj
 0001:00045f70       ?staticMetaObject@handleBlock@@SAPAVQMetaObject@@XZ 00446f70 f   moc_handleBlock.obj
 0001:00046020       ?qt_cast@handleBlock@@UAEPAXPBD@Z 00447020 f   moc_handleBlock.obj
 0001:00046090       ?rectChanged@handleBlock@@IAEXPAVQWidget@@VQRect@@@Z 00447090 f   moc_handleBlock.obj
 0001:00046160       ?qt_emit@handleBlock@@UAE_NHPAUQUObject@@@Z 00447160 f   moc_handleBlock.obj
 0001:000461c0       ?className@importSettingsBase@@UBEPBDXZ 004471c0 f   moc_importsettings.obj
 0001:00046220       ?tr@importSettingsBase@@SA?AVQString@@PBD0@Z 00447220 f   moc_importsettings.obj
 0001:00046270       ?staticMetaObject@importSettingsBase@@SAPAVQMetaObject@@XZ 00447270 f   moc_importsettings.obj
 0001:000462c0       ?qt_cast@importSettingsBase@@UAEPAXPBD@Z 004472c0 f   moc_importsettings.obj
 0001:00046330       ?qt_invoke@importSettingsBase@@UAE_NHPAUQUObject@@@Z 00447330 f   moc_importsettings.obj
 0001:00046370       ?className@importSettings@@UBEPBDXZ 00447370 f   moc_importsettingsimpl.obj
 0001:000463d0       ?staticMetaObject@importSettings@@SAPAVQMetaObject@@XZ 004473d0 f   moc_importsettingsimpl.obj
 0001:00046420       ?qt_cast@importSettings@@UAEPAXPBD@Z 00447420 f   moc_importsettingsimpl.obj
 0001:00046490       ?qt_invoke@importSettings@@UAE_NHPAUQUObject@@@Z 00447490 f   moc_importsettingsimpl.obj
 0001:000464d0       ?className@manualSettingsBase@@UBEPBDXZ 004474d0 f   moc_manualsettings.obj
 0001:00046530       ?tr@manualSettingsBase@@SA?AVQString@@PBD0@Z 00447530 f   moc_manualsettings.obj
 0001:00046580       ?staticMetaObject@manualSettingsBase@@SAPAVQMetaObject@@XZ 00447580 f   moc_manualsettings.obj
 0001:000465d0       ?qt_cast@manualSettingsBase@@UAEPAXPBD@Z 004475d0 f   moc_manualsettings.obj
 0001:00046640       ?qt_invoke@manualSettingsBase@@UAE_NHPAUQUObject@@@Z 00447640 f   moc_manualsettings.obj
 0001:00046680       ?className@manualSettings@@UBEPBDXZ 00447680 f   moc_manualsettingsimpl.obj
 0001:000466e0       ?staticMetaObject@manualSettings@@SAPAVQMetaObject@@XZ 004476e0 f   moc_manualsettingsimpl.obj
 0001:00046730       ?qt_cast@manualSettings@@UAEPAXPBD@Z 00447730 f   moc_manualsettingsimpl.obj
 0001:000467a0       ?qt_invoke@manualSettings@@UAE_NHPAUQUObject@@@Z 004477a0 f   moc_manualsettingsimpl.obj
 0001:000467e0       ?className@objectViewBase@@UBEPBDXZ 004477e0 f   moc_objectview.obj
 0001:00046840       ?tr@objectViewBase@@SA?AVQString@@PBD0@Z 00447840 f   moc_objectview.obj
 0001:00046890       ?staticMetaObject@objectViewBase@@SAPAVQMetaObject@@XZ 00447890 f   moc_objectview.obj
 0001:000468e0       ?qt_cast@objectViewBase@@UAEPAXPBD@Z 004478e0 f   moc_objectview.obj
 0001:00046950       ?qt_invoke@objectViewBase@@UAE_NHPAUQUObject@@@Z 00447950 f   moc_objectview.obj
 0001:00046990       ?className@objectView@@UBEPBDXZ 00447990 f   moc_objectviewimpl.obj
 0001:000469f0       ?staticMetaObject@objectView@@SAPAVQMetaObject@@XZ 004479f0 f   moc_objectviewimpl.obj
 0001:00046b00       ?qt_cast@objectView@@UAEPAXPBD@Z 00447b00 f   moc_objectviewimpl.obj
 0001:00046b70       ?itemSelected@objectView@@IAEXABVQString@@@Z 00447b70 f   moc_objectviewimpl.obj
 0001:00046bd0       ?itemRename@objectView@@IAEXABVQString@@0@Z 00447bd0 f   moc_objectviewimpl.obj
 0001:00046ca0       ?qt_invoke@objectView@@UAE_NHPAUQUObject@@@Z 00447ca0 f   moc_objectviewimpl.obj
 0001:00046d00       ?qt_emit@objectView@@UAE_NHPAUQUObject@@@Z 00447d00 f   moc_objectviewimpl.obj
 0001:00046d60       ?className@pasteTable@@UBEPBDXZ 00447d60 f   moc_pasteTable.obj
 0001:00046dc0       ?staticMetaObject@pasteTable@@SAPAVQMetaObject@@XZ 00447dc0 f   moc_pasteTable.obj
 0001:00046e80       ?qt_cast@pasteTable@@UAEPAXPBD@Z 00447e80 f   moc_pasteTable.obj
 0001:00046ef0       ?canPaste@pasteTable@@IAEX_N@Z 00447ef0 f   moc_pasteTable.obj
 0001:00046f10       ?message@pasteTable@@IAEXABVQString@@@Z 00447f10 f   moc_pasteTable.obj
 0001:00046f70       ?qt_invoke@pasteTable@@UAE_NHPAUQUObject@@@Z 00447f70 f   moc_pasteTable.obj
 0001:00046fd0       ?qt_emit@pasteTable@@UAE_NHPAUQUObject@@@Z 00447fd0 f   moc_pasteTable.obj
 0001:00047030       ?qt_property@pasteTable@@UAE_NHHPAVQVariant@@@Z 00448030 f   moc_pasteTable.obj
 0001:00047050       ?className@pickbox@@UBEPBDXZ 00448050 f   moc_pickbox.obj
 0001:000470b0       ?staticMetaObject@pickbox@@SAPAVQMetaObject@@XZ 004480b0 f   moc_pickbox.obj
 0001:00047160       ?qt_cast@pickbox@@UAEPAXPBD@Z 00448160 f   moc_pickbox.obj
 0001:000471d0       ?qt_invoke@pickbox@@UAE_NHPAUQUObject@@@Z 004481d0 f   moc_pickbox.obj
 0001:00047230       ?qt_emit@pickbox@@UAE_NHPAUQUObject@@@Z 00448230 f   moc_pickbox.obj
 0001:00047250       ?qt_property@pickbox@@UAE_NHHPAVQVariant@@@Z 00448250 f   moc_pickbox.obj
 0001:00047270       ?className@pickbox_paramlist@@UBEPBDXZ 00448270 f   moc_pickbox_paramlist.obj
 0001:000472d0       ?staticMetaObject@pickbox_paramlist@@SAPAVQMetaObject@@XZ 004482d0 f   moc_pickbox_paramlist.obj
 0001:00047360       ?qt_cast@pickbox_paramlist@@UAEPAXPBD@Z 00448360 f   moc_pickbox_paramlist.obj
 0001:000473d0       ?qt_invoke@pickbox_paramlist@@UAE_NHPAUQUObject@@@Z 004483d0 f   moc_pickbox_paramlist.obj
 0001:00047460       ?qt_emit@pickbox_paramlist@@UAE_NHPAUQUObject@@@Z 00448460 f   moc_pickbox_paramlist.obj
 0001:00047480       ?className@signalConnectionListDlg@@UBEPBDXZ 00448480 f   moc_signalConnectionListDlg.obj
 0001:000474e0       ?tr@signalConnectionListDlg@@SA?AVQString@@PBD0@Z 004484e0 f   moc_signalConnectionListDlg.obj
 0001:00047530       ?staticMetaObject@signalConnectionListDlg@@SAPAVQMetaObject@@XZ 00448530 f   moc_signalConnectionListDlg.obj
 0001:00047580       ?qt_cast@signalConnectionListDlg@@UAEPAXPBD@Z 00448580 f   moc_signalConnectionListDlg.obj
 0001:000475f0       ?qt_invoke@signalConnectionListDlg@@UAE_NHPAUQUObject@@@Z 004485f0 f   moc_signalConnectionListDlg.obj
 0001:00047630       ?className@signalConnectionListDlgImpl@@UBEPBDXZ 00448630 f   moc_signalConnectionListDlgimpl.obj
 0001:00047690       ?staticMetaObject@signalConnectionListDlgImpl@@SAPAVQMetaObject@@XZ 00448690 f   moc_signalConnectionListDlgimpl.obj
 0001:000477a0       ?qt_cast@signalConnectionListDlgImpl@@UAEPAXPBD@Z 004487a0 f   moc_signalConnectionListDlgimpl.obj
 0001:00047810       ?qt_invoke@signalConnectionListDlgImpl@@UAE_NHPAUQUObject@@@Z 00448810 f   moc_signalConnectionListDlgimpl.obj
 0001:00047900       ?qt_property@signalConnectionListDlgImpl@@UAE_NHHPAVQVariant@@@Z 00448900 f   moc_signalConnectionListDlgimpl.obj
 0001:00047900       ?qt_property@globalStyleDlg@@UAE_NHHPAVQVariant@@@Z 00448900 f   moc_signalConnectionListDlgimpl.obj
 0001:00047900       ?qt_property@system_setup@@UAE_NHHPAVQVariant@@@Z 00448900 f   moc_signalConnectionListDlgimpl.obj
 0001:00047900       ?qt_property@testSettings@@UAE_NHHPAVQVariant@@@Z 00448900 f   moc_signalConnectionListDlgimpl.obj
 0001:00047900       ?qt_property@file_new@@UAE_NHHPAVQVariant@@@Z 00448900 f   moc_signalConnectionListDlgimpl.obj
 0001:00047900       ?qt_property@manualSettings@@UAE_NHHPAVQVariant@@@Z 00448900 f   moc_signalConnectionListDlgimpl.obj
 0001:00047900       ?qt_property@objectView@@UAE_NHHPAVQVariant@@@Z 00448900 f   moc_signalConnectionListDlgimpl.obj
 0001:00047900       ?qt_property@dialogedit@@UAE_NHHPAVQVariant@@@Z 00448900 f   moc_signalConnectionListDlgimpl.obj
 0001:00047900       ?qt_property@duplicateDlg@@UAE_NHHPAVQVariant@@@Z 00448900 f   moc_signalConnectionListDlgimpl.obj
 0001:00047900       ?qt_property@importSettings@@UAE_NHHPAVQVariant@@@Z 00448900 f   moc_signalConnectionListDlgimpl.obj
 0001:00047900       ?qt_property@sizePosEdit@@UAE_NHHPAVQVariant@@@Z 00448900 f   moc_signalConnectionListDlgimpl.obj
 0001:00047920       ?className@sizePosEditBase@@UBEPBDXZ 00448920 f   moc_sizeposedit.obj
 0001:00047980       ?tr@sizePosEditBase@@SA?AVQString@@PBD0@Z 00448980 f   moc_sizeposedit.obj
 0001:000479d0       ?staticMetaObject@sizePosEditBase@@SAPAVQMetaObject@@XZ 004489d0 f   moc_sizeposedit.obj
 0001:00047a20       ?qt_cast@sizePosEditBase@@UAEPAXPBD@Z 00448a20 f   moc_sizeposedit.obj
 0001:00047a90       ?qt_invoke@sizePosEditBase@@UAE_NHPAUQUObject@@@Z 00448a90 f   moc_sizeposedit.obj
 0001:00047ad0       ?qt_emit@system_setupBase@@UAE_NHPAUQUObject@@@Z 00448ad0 f   moc_sizeposedit.obj
 0001:00047ad0       ?qt_emit@dialogeditBase@@UAE_NHPAUQUObject@@@Z 00448ad0 f   moc_sizeposedit.obj
 0001:00047ad0       ?qt_emit@objectViewBase@@UAE_NHPAUQUObject@@@Z 00448ad0 f   moc_sizeposedit.obj
 0001:00047ad0       ?qt_emit@signalConnectionListDlg@@UAE_NHPAUQUObject@@@Z 00448ad0 f   moc_sizeposedit.obj
 0001:00047ad0       ?qt_emit@file_newBase@@UAE_NHPAUQUObject@@@Z 00448ad0 f   moc_sizeposedit.obj
 0001:00047ad0       ?qt_emit@testSettingsBase@@UAE_NHPAUQUObject@@@Z 00448ad0 f   moc_sizeposedit.obj
 0001:00047ad0       ?qt_emit@globalstyleDlgBase@@UAE_NHPAUQUObject@@@Z 00448ad0 f   moc_sizeposedit.obj
 0001:00047ad0       ?qt_emit@device_list_editBase@@UAE_NHPAUQUObject@@@Z 00448ad0 f   moc_sizeposedit.obj
 0001:00047ad0       ?qt_emit@sizePosEditBase@@UAE_NHPAUQUObject@@@Z 00448ad0 f   moc_sizeposedit.obj
 0001:00047ad0       ?qt_emit@importSettingsBase@@UAE_NHPAUQUObject@@@Z 00448ad0 f   moc_sizeposedit.obj
 0001:00047ad0       ?qt_emit@manualSettingsBase@@UAE_NHPAUQUObject@@@Z 00448ad0 f   moc_sizeposedit.obj
 0001:00047ad0       ?qt_emit@duplicateDlgBase@@UAE_NHPAUQUObject@@@Z 00448ad0 f   moc_sizeposedit.obj
 0001:00047af0       ?qt_property@objectViewBase@@UAE_NHHPAVQVariant@@@Z 00448af0 f   moc_sizeposedit.obj
 0001:00047af0       ?qt_property@importSettingsBase@@UAE_NHHPAVQVariant@@@Z 00448af0 f   moc_sizeposedit.obj
 0001:00047af0       ?qt_property@file_newBase@@UAE_NHHPAVQVariant@@@Z 00448af0 f   moc_sizeposedit.obj
 0001:00047af0       ?qt_property@system_setupBase@@UAE_NHHPAVQVariant@@@Z 00448af0 f   moc_sizeposedit.obj
 0001:00047af0       ?qt_property@device_list_editBase@@UAE_NHHPAVQVariant@@@Z 00448af0 f   moc_sizeposedit.obj
 0001:00047af0       ?qt_property@testSettingsBase@@UAE_NHHPAVQVariant@@@Z 00448af0 f   moc_sizeposedit.obj
 0001:00047af0       ?qt_property@manualSettingsBase@@UAE_NHHPAVQVariant@@@Z 00448af0 f   moc_sizeposedit.obj
 0001:00047af0       ?qt_property@duplicateDlgBase@@UAE_NHHPAVQVariant@@@Z 00448af0 f   moc_sizeposedit.obj
 0001:00047af0       ?qt_property@signalConnectionListDlg@@UAE_NHHPAVQVariant@@@Z 00448af0 f   moc_sizeposedit.obj
 0001:00047af0       ?qt_property@sizePosEditBase@@UAE_NHHPAVQVariant@@@Z 00448af0 f   moc_sizeposedit.obj
 0001:00047af0       ?qt_property@globalstyleDlgBase@@UAE_NHHPAVQVariant@@@Z 00448af0 f   moc_sizeposedit.obj
 0001:00047af0       ?qt_property@dialogeditBase@@UAE_NHHPAVQVariant@@@Z 00448af0 f   moc_sizeposedit.obj
 0001:00047b10       ?className@sizePosEdit@@UBEPBDXZ 00448b10 f   moc_sizeposeditimpl.obj
 0001:00047b70       ?staticMetaObject@sizePosEdit@@SAPAVQMetaObject@@XZ 00448b70 f   moc_sizeposeditimpl.obj
 0001:00047bc0       ?qt_cast@sizePosEdit@@UAEPAXPBD@Z 00448bc0 f   moc_sizeposeditimpl.obj
 0001:00047c30       ?qt_invoke@sizePosEdit@@UAE_NHPAUQUObject@@@Z 00448c30 f   moc_sizeposeditimpl.obj
 0001:00047c70       ?qt_emit@manualSettings@@UAE_NHPAUQUObject@@@Z 00448c70 f   moc_sizeposeditimpl.obj
 0001:00047c70       ?qt_emit@dialogedit@@UAE_NHPAUQUObject@@@Z 00448c70 f   moc_sizeposeditimpl.obj
 0001:00047c70       ?qt_emit@importSettings@@UAE_NHPAUQUObject@@@Z 00448c70 f   moc_sizeposeditimpl.obj
 0001:00047c70       ?qt_emit@sizePosEdit@@UAE_NHPAUQUObject@@@Z 00448c70 f   moc_sizeposeditimpl.obj
 0001:00047c70       ?qt_emit@signalConnectionListDlgImpl@@UAE_NHPAUQUObject@@@Z 00448c70 f   moc_sizeposeditimpl.obj
 0001:00047c70       ?qt_emit@testSettings@@UAE_NHPAUQUObject@@@Z 00448c70 f   moc_sizeposeditimpl.obj
 0001:00047c70       ?qt_emit@system_setup@@UAE_NHPAUQUObject@@@Z 00448c70 f   moc_sizeposeditimpl.obj
 0001:00047c70       ?qt_emit@globalStyleDlg@@UAE_NHPAUQUObject@@@Z 00448c70 f   moc_sizeposeditimpl.obj
 0001:00047c70       ?qt_emit@file_new@@UAE_NHPAUQUObject@@@Z 00448c70 f   moc_sizeposeditimpl.obj
 0001:00047c70       ?qt_emit@duplicateDlg@@UAE_NHPAUQUObject@@@Z 00448c70 f   moc_sizeposeditimpl.obj
 0001:00047c90       ?className@system_setupBase@@UBEPBDXZ 00448c90 f   moc_system_setup.obj
 0001:00047cf0       ?tr@system_setupBase@@SA?AVQString@@PBD0@Z 00448cf0 f   moc_system_setup.obj
 0001:00047d40       ?staticMetaObject@system_setupBase@@SAPAVQMetaObject@@XZ 00448d40 f   moc_system_setup.obj
 0001:00047d90       ?qt_cast@system_setupBase@@UAEPAXPBD@Z 00448d90 f   moc_system_setup.obj
 0001:00047e00       ?qt_invoke@system_setupBase@@UAE_NHPAUQUObject@@@Z 00448e00 f   moc_system_setup.obj
 0001:00047e40       ?className@system_setup@@UBEPBDXZ 00448e40 f   moc_system_setupimpl.obj
 0001:00047ea0       ?staticMetaObject@system_setup@@SAPAVQMetaObject@@XZ 00448ea0 f   moc_system_setupimpl.obj
 0001:00047ef0       ?qt_cast@system_setup@@UAEPAXPBD@Z 00448ef0 f   moc_system_setupimpl.obj
 0001:00047f60       ?qt_invoke@system_setup@@UAE_NHPAUQUObject@@@Z 00448f60 f   moc_system_setupimpl.obj
 0001:00047f80       ?className@testSettingsBase@@UBEPBDXZ 00448f80 f   moc_testsettings.obj
 0001:00047fe0       ?tr@testSettingsBase@@SA?AVQString@@PBD0@Z 00448fe0 f   moc_testsettings.obj
 0001:00048030       ?staticMetaObject@testSettingsBase@@SAPAVQMetaObject@@XZ 00449030 f   moc_testsettings.obj
 0001:00048080       ?qt_cast@testSettingsBase@@UAEPAXPBD@Z 00449080 f   moc_testsettings.obj
 0001:000480f0       ?qt_invoke@testSettingsBase@@UAE_NHPAUQUObject@@@Z 004490f0 f   moc_testsettings.obj
 0001:00048130       ?className@testSettings@@UBEPBDXZ 00449130 f   moc_testsettingsimpl.obj
 0001:00048190       ?staticMetaObject@testSettings@@SAPAVQMetaObject@@XZ 00449190 f   moc_testsettingsimpl.obj
 0001:000481e0       ?qt_cast@testSettings@@UAEPAXPBD@Z 004491e0 f   moc_testsettingsimpl.obj
 0001:00048250       ?qt_invoke@testSettings@@UAE_NHPAUQUObject@@@Z 00449250 f   moc_testsettingsimpl.obj
 0001:00048270       ?className@textedit@@UBEPBDXZ 00449270 f   moc_textedit.obj
 0001:000482d0       ?staticMetaObject@textedit@@SAPAVQMetaObject@@XZ 004492d0 f   moc_textedit.obj
 0001:00048410       ?qt_cast@textedit@@UAEPAXPBD@Z 00449410 f   moc_textedit.obj
 0001:00048480       ?qt_invoke@textedit@@UAE_NHPAUQUObject@@@Z 00449480 f   moc_textedit.obj
 0001:000485c0       ?qt_emit@textedit@@UAE_NHPAUQUObject@@@Z 004495c0 f   moc_textedit.obj
 0001:000485e0       ?qt_property@textedit@@UAE_NHHPAVQVariant@@@Z 004495e0 f   moc_textedit.obj
 0001:00048600       ?className@vis_ed_mdi@@UBEPBDXZ 00449600 f   moc_vis_ed_mdi.obj
 0001:00048660       ?tr@vis_ed_mdi@@SA?AVQString@@PBD0@Z 00449660 f   moc_vis_ed_mdi.obj
 0001:000486b0       ?staticMetaObject@vis_ed_mdi@@SAPAVQMetaObject@@XZ 004496b0 f   moc_vis_ed_mdi.obj
 0001:00048910       ?qt_cast@vis_ed_mdi@@UAEPAXPBD@Z 00449910 f   moc_vis_ed_mdi.obj
 0001:00048980       ?save@vis_ed_mdi@@IAEXXZ   00449980 f   moc_vis_ed_mdi.obj
 0001:000489a0       ?gotoidentifier@vis_ed_mdi@@IAEXAAVQString@@@Z 004499a0 f   moc_vis_ed_mdi.obj
 0001:00048a70       ?saveas@vis_ed_mdi@@IAEXXZ 00449a70 f   moc_vis_ed_mdi.obj
 0001:00048a90       ?qt_invoke@vis_ed_mdi@@UAE_NHPAUQUObject@@@Z 00449a90 f   moc_vis_ed_mdi.obj
 0001:00048ef0       ?qt_emit@vis_ed_mdi@@UAE_NHPAUQUObject@@@Z 00449ef0 f   moc_vis_ed_mdi.obj
 0001:00048f60       ?qt_property@vis_ed_mdi@@UAE_NHHPAVQVariant@@@Z 00449f60 f   moc_vis_ed_mdi.obj
 0001:00048f80       ?className@vis_ed_toolbars@@UBEPBDXZ 00449f80 f   moc_vis_ed_toolbars.obj
 0001:00048fe0       ?staticMetaObject@vis_ed_toolbars@@SAPAVQMetaObject@@XZ 00449fe0 f   moc_vis_ed_toolbars.obj
 0001:00049170       ?qt_cast@vis_ed_toolbars@@UAEPAXPBD@Z 0044a170 f   moc_vis_ed_toolbars.obj
 0001:000491e0       ?qt_invoke@vis_ed_toolbars@@UAE_NHPAUQUObject@@@Z 0044a1e0 f   moc_vis_ed_toolbars.obj
 0001:000492e0       ?qt_emit@vis_ed_toolbars@@UAE_NHPAUQUObject@@@Z 0044a2e0 f   moc_vis_ed_toolbars.obj
 0001:00049300       ?qt_property@vis_ed_toolbars@@UAE_NHHPAVQVariant@@@Z 0044a300 f   moc_vis_ed_toolbars.obj
 0001:00049320       ?className@vis_ed_widget@@UBEPBDXZ 0044a320 f   moc_vis_ed_widget.obj
 0001:00049380       ?staticMetaObject@vis_ed_widget@@SAPAVQMetaObject@@XZ 0044a380 f   moc_vis_ed_widget.obj
 0001:00049910       ?qt_cast@vis_ed_widget@@UAEPAXPBD@Z 0044a910 f   moc_vis_ed_widget.obj
 0001:00049980       ?edit@vis_ed_widget@@IAEXPA_N0@Z 0044a980 f   moc_vis_ed_widget.obj
 0001:00049a50       ?scriptedit@vis_ed_widget@@IAEXVQString@@0@Z 0044aa50 f   moc_vis_ed_widget.obj
 0001:00049c00       ?caption@vis_ed_widget@@IAEXAAVQString@@@Z 0044ac00 f   moc_vis_ed_widget.obj
 0001:00049cd0       ?widgetAdded@vis_ed_widget@@IAEXABVQString@@0@Z 0044acd0 f   moc_vis_ed_widget.obj
 0001:00049db0       ?widgetRemoved@vis_ed_widget@@IAEXABVQString@@@Z 0044adb0 f   moc_vis_ed_widget.obj
 0001:00049e10       ?widgetRenamed@vis_ed_widget@@IAEXABVQString@@0@Z 0044ae10 f   moc_vis_ed_widget.obj
 0001:00049ef0       ?statusBarMessage@vis_ed_widget@@IAEXABVQString@@@Z 0044aef0 f   moc_vis_ed_widget.obj
 0001:00049f50       ?aboutToSaveAs@vis_ed_widget@@IAEXABVQString@@@Z 0044af50 f   moc_vis_ed_widget.obj
 0001:00049fb0       ?loadScript@vis_ed_widget@@IAEXABVQString@@@Z 0044afb0 f   moc_vis_ed_widget.obj
 0001:0004a010       ?comboBoxesMessage@vis_ed_widget@@IAEXABVQString@@@Z 0044b010 f   moc_vis_ed_widget.obj
 0001:0004a070       ?showStylesheetBrowser@vis_ed_widget@@IAEXPA_NABVQString@@@Z 0044b070 f   moc_vis_ed_widget.obj
 0001:0004a150       ?itemsSelected@vis_ed_widget@@IAEXH@Z 0044b150 f   moc_vis_ed_widget.obj
 0001:0004a170       ?undoAvailable@vis_ed_widget@@IAEX_NABVQString@@@Z 0044b170 f   moc_vis_ed_widget.obj
 0001:0004a250       ?redoAvailable@vis_ed_widget@@IAEX_NABVQString@@@Z 0044b250 f   moc_vis_ed_widget.obj
 0001:0004a330       ?pasteWidgetAvailable@vis_ed_widget@@IAEX_N@Z 0044b330 f   moc_vis_ed_widget.obj
 0001:0004a350       ?pasteSettingsAvailable@vis_ed_widget@@IAEX_N@Z 0044b350 f   moc_vis_ed_widget.obj
 0001:0004a370       ?scriptOpenExplorerAvailable@vis_ed_widget@@IAEX_N@Z 0044b370 f   moc_vis_ed_widget.obj
 0001:0004a390       ?scriptOpenVisEdAvailable@vis_ed_widget@@IAEX_N@Z 0044b390 f   moc_vis_ed_widget.obj
 0001:0004a3b0       ?qt_invoke@vis_ed_widget@@UAE_NHPAUQUObject@@@Z 0044b3b0 f   moc_vis_ed_widget.obj
 0001:0004a950       ?qt_emit@vis_ed_widget@@UAE_NHPAUQUObject@@@Z 0044b950 f   moc_vis_ed_widget.obj
 0001:0004acf0       ?qt_property@vis_ed_widget@@UAE_NHHPAVQVariant@@@Z 0044bcf0 f   moc_vis_ed_widget.obj
 0001:0004acf0       ?qt_property@handleBlock@@UAE_NHHPAVQVariant@@@Z 0044bcf0 f   moc_vis_ed_widget.obj
 0001:0004acf0       ?qt_property@editHandles@@UAE_NHHPAVQVariant@@@Z 0044bcf0 f   moc_vis_ed_widget.obj
 0001:0004acf0       ?qt_property@pickbox_paramlist@@UAE_NHHPAVQVariant@@@Z 0044bcf0 f   moc_vis_ed_widget.obj
 0001:0004ad10       ?className@xml_listview@@UBEPBDXZ 0044bd10 f   moc_xml_listview.obj
 0001:0004ad70       ?staticMetaObject@xml_listview@@SAPAVQMetaObject@@XZ 0044bd70 f   moc_xml_listview.obj
 0001:0004ae00       ?qt_cast@xml_listview@@UAEPAXPBD@Z 0044be00 f   moc_xml_listview.obj
 0001:0004ae70       ?startDrag@xml_listview@@IAEXPAVQListViewItem@@@Z 0044be70 f   moc_xml_listview.obj
 0001:0004af30       ?qt_invoke@deviceTypeListView@@UAE_NHPAUQUObject@@@Z 0044bf30 f   moc_xml_listview.obj
 0001:0004af30       ?qt_invoke@xml_listview@@UAE_NHPAUQUObject@@@Z 0044bf30 f   moc_xml_listview.obj
 0001:0004af50       ?qt_emit@xml_listview@@UAE_NHPAUQUObject@@@Z 0044bf50 f   moc_xml_listview.obj
 0001:0004af90       ?qt_property@device_list@@UAE_NHHPAVQVariant@@@Z 0044bf90 f   moc_xml_listview.obj
 0001:0004af90       ?qt_property@xml_listview@@UAE_NHHPAVQVariant@@@Z 0044bf90 f   moc_xml_listview.obj
 0001:0004af90       ?qt_property@deviceTypeListView@@UAE_NHHPAVQVariant@@@Z 0044bf90 f   moc_xml_listview.obj
 0001:0004afb0       ??0objectViewBase@@QAE@PAVQWidget@@PBD_NI@Z 0044bfb0 f   objectview.obj
 0001:0004b430       ?metaObject@objectViewBase@@UBEPAVQMetaObject@@XZ 0044c430 f i objectview.obj
 0001:0004b440       ??_EobjectViewBase@@UAEPAXI@Z 0044c440 f i objectview.obj
 0001:0004b440       ??_GobjectViewBase@@UAEPAXI@Z 0044c440 f i objectview.obj
 0001:0004b460       ??_GQListBox@@UAEPAXI@Z    0044c460 f i objectview.obj
 0001:0004b460       ??_EQListBox@@UAEPAXI@Z    0044c460 f i objectview.obj
 0001:0004b480       ??1objectViewBase@@UAE@XZ  0044c480 f   objectview.obj
 0001:0004b4a0       ?languageChange@objectViewBase@@MAEXXZ 0044c4a0 f   objectview.obj
 0001:0004b610       ??_EQListBox@@WCI@AEPAXI@Z 0044c610 f i objectview.obj
 0001:0004b620       ??_EobjectViewBase@@WCI@AEPAXI@Z 0044c620 f i objectview.obj
 0001:0004b630       ??0signalConnectionListDlg@@QAE@PAVQWidget@@PBD_NI@Z 0044c630 f   signalConnectionListDlg.obj
 0001:0004bc40       ?metaObject@signalConnectionListDlg@@UBEPAVQMetaObject@@XZ 0044cc40 f i signalConnectionListDlg.obj
 0001:0004bc50       ??_EsignalConnectionListDlg@@UAEPAXI@Z 0044cc50 f i signalConnectionListDlg.obj
 0001:0004bc50       ??_GsignalConnectionListDlg@@UAEPAXI@Z 0044cc50 f i signalConnectionListDlg.obj
 0001:0004bc70       ??1signalConnectionListDlg@@UAE@XZ 0044cc70 f   signalConnectionListDlg.obj
 0001:0004bd00       ?languageChange@signalConnectionListDlg@@MAEXXZ 0044cd00 f   signalConnectionListDlg.obj
 0001:0004bfe0       ??_EsignalConnectionListDlg@@WCI@AEPAXI@Z 0044cfe0 f i signalConnectionListDlg.obj
 0001:0004bff0       ??0sizePosEditBase@@QAE@PAVQWidget@@PBD_NI@Z 0044cff0 f   sizeposedit.obj
 0001:0004c830       ?metaObject@sizePosEditBase@@UBEPAVQMetaObject@@XZ 0044d830 f i sizeposedit.obj
 0001:0004c840       ??_EsizePosEditBase@@UAEPAXI@Z 0044d840 f i sizeposedit.obj
 0001:0004c840       ??_GsizePosEditBase@@UAEPAXI@Z 0044d840 f i sizeposedit.obj
 0001:0004c860       ??1sizePosEditBase@@UAE@XZ 0044d860 f   sizeposedit.obj
 0001:0004c880       ?languageChange@sizePosEditBase@@MAEXXZ 0044d880 f   sizeposedit.obj
 0001:0004cbd0       ??_EsizePosEditBase@@WCI@AEPAXI@Z 0044dbd0 f i sizeposedit.obj
 0001:0004cbe0       ??0system_setupBase@@QAE@PAVQWidget@@PBD_NI@Z 0044dbe0 f   system_setup.obj
 0001:0004cf30       ?metaObject@system_setupBase@@UBEPAVQMetaObject@@XZ 0044df30 f i system_setup.obj
 0001:0004cf40       ??_Gsystem_setupBase@@UAEPAXI@Z 0044df40 f i system_setup.obj
 0001:0004cf40       ??_Esystem_setupBase@@UAEPAXI@Z 0044df40 f i system_setup.obj
 0001:0004cf60       ??1system_setupBase@@UAE@XZ 0044df60 f   system_setup.obj
 0001:0004cff0       ?languageChange@system_setupBase@@MAEXXZ 0044dff0 f   system_setup.obj
 0001:0004d4b0       ??_Esystem_setupBase@@WCI@AEPAXI@Z 0044e4b0 f i system_setup.obj
 0001:0004d4c0       ?sysInit@QtSingleApplication@@AAEXXZ 0044e4c0 f   qtsingleapplication:qtsingleapplication_win.obj
 0001:0004d4e0       ?sysCleanup@QtSingleApplication@@AAEXXZ 0044e4e0 f   qtsingleapplication:qtsingleapplication_win.obj
 0001:0004d4f0       ?initialize@QtSingleApplication@@QAEX_N@Z 0044e4f0 f   qtsingleapplication:qtsingleapplication_win.obj
 0001:0004d5f0       ??_GQWidget@@UAEPAXI@Z     0044e5f0 f i qtsingleapplication:qtsingleapplication_win.obj
 0001:0004d5f0       ??_EQWidget@@UAEPAXI@Z     0044e5f0 f i qtsingleapplication:qtsingleapplication_win.obj
 0001:0004d610       ?sendMessage@QtSingleApplication@@QAE_NABVQString@@H@Z 0044e610 f   qtsingleapplication:qtsingleapplication_win.obj
 0001:0004d710       ?winEventFilter@QtSingleApplication@@MAE_NPAUtagMSG@@@Z 0044e710 f   qtsingleapplication:qtsingleapplication_win.obj
 0001:0004d7d0       ??_EQWidget@@WCI@AEPAXI@Z  0044e7d0 f i qtsingleapplication:qtsingleapplication_win.obj
 0001:0004d7e0       ??0QtSingleApplication@@QAE@ABVQString@@AAHPAPADW4Type@QApplication@@@Z 0044e7e0 f   qtsingleapplication:qtsingleapplication.obj
 0001:0004d890       ?metaObject@QtSingleApplication@@UBEPAVQMetaObject@@XZ 0044e890 f i qtsingleapplication:qtsingleapplication.obj
 0001:0004d8a0       ??_EQtSingleApplication@@UAEPAXI@Z 0044e8a0 f i qtsingleapplication:qtsingleapplication.obj
 0001:0004d8a0       ??_GQtSingleApplication@@UAEPAXI@Z 0044e8a0 f i qtsingleapplication:qtsingleapplication.obj
 0001:0004d8c0       ??1QtSingleApplication@@UAE@XZ 0044e8c0 f   qtsingleapplication:qtsingleapplication.obj
 0001:0004d940       ?id@QtSingleApplication@@QBE?AVQString@@XZ 0044e940 f   qtsingleapplication:qtsingleapplication.obj
 0001:0004d970       ?activateMainWidget@QtSingleApplication@@UAEXXZ 0044e970 f   qtsingleapplication:qtsingleapplication.obj
 0001:0004d990       ?className@QtSingleApplication@@UBEPBDXZ 0044e990 f   qtsingleapplication:moc_qtsingleapplication.obj
 0001:0004d9f0       ?staticMetaObject@QtSingleApplication@@SAPAVQMetaObject@@XZ 0044e9f0 f   qtsingleapplication:moc_qtsingleapplication.obj
 0001:0004db20       ?qt_cast@QtSingleApplication@@UAEPAXPBD@Z 0044eb20 f   qtsingleapplication:moc_qtsingleapplication.obj
 0001:0004db90       ?messageReceived@QtSingleApplication@@IAEXABVQString@@@Z 0044eb90 f   qtsingleapplication:moc_qtsingleapplication.obj
 0001:0004dbf0       ?qt_invoke@QtSingleApplication@@UAE_NHPAUQUObject@@@Z 0044ebf0 f   qtsingleapplication:moc_qtsingleapplication.obj
 0001:0004dc70       ?qt_emit@QtSingleApplication@@UAE_NHPAUQUObject@@@Z 0044ec70 f   qtsingleapplication:moc_qtsingleapplication.obj
 0001:0004dcb0       ?qt_property@QtSingleApplication@@UAE_NHHPAVQVariant@@@Z 0044ecb0 f   qtsingleapplication:moc_qtsingleapplication.obj
 0001:0004dcd0       ?setDesignTime@dCW@@SAX_N@Z 0044ecd0 f   dcw:dcw.dll
 0001:0004dcd6       ?enableCache@dCW@@SAX_N@Z  0044ecd6 f   dcw:dcw.dll
 0001:0004dcdc       ??1dCW@@UAE@XZ             0044ecdc f   dcw:dcw.dll
 0001:0004dce2       ?create@dCW@@QAEPAVQWidget@@ABVQString@@PAVQObject@@PAV2@PBD_N4NN44@Z 0044ece2 f   dcw:dcw.dll
 0001:0004dce8       ??0dCW@@QAE@XZ             0044ece8 f   dcw:dcw.dll
 0001:0004dcee       ?connectionList@dCW@@QAE?AVsignalConnectionRefList@@XZ 0044ecee f   dcw:dcw.dll
 0001:0004dcf4       ?parseXML@dCW@@QAEPAVQWidget@@AAVQDomDocument@@PAV2@VQPoint@@_N3VQString@@@Z 0044ecf4 f   dcw:dcw.dll
 0001:0004dcfa       ?parseXML@dCW@@QAEPAVQWidget@@AAVQDomDocument@@PAV2@VQPoint@@_N33VQString@@@Z 0044ecfa f   dcw:dcw.dll
 0001:0004dd00       ?checkNameUnique@dCW@@SA_NPAVQWidget@@ABVQString@@AAV3@@Z 0044ed00 f   dcw:dcw.dll
 0001:0004dd06       _HtmlHelpA@16              0044ed06 f   htmlhelp:init.obj
 0001:0004ddfe       ?encodedData@QTextDrag@@UBE?AV?$QMemArray@D@@PBD@Z 0044edfe f   qt-mt323:qt-mt323.dll
 0001:0004de04       ?provides@QMimeSource@@UBE_NPBD@Z 0044ee04 f   qt-mt323:qt-mt323.dll
 0001:0004de0a       ?format@QTextDrag@@UBEPBDH@Z 0044ee0a f   qt-mt323:qt-mt323.dll
 0001:0004de10       ?setSubtype@QTextDrag@@UAEXABVQCString@@@Z 0044ee10 f   qt-mt323:qt-mt323.dll
 0001:0004de16       ?setText@QTextDrag@@UAEXABVQString@@@Z 0044ee16 f   qt-mt323:qt-mt323.dll
 0001:0004de1c       ?setPixmap@QDragObject@@UAEXVQPixmap@@@Z 0044ee1c f   qt-mt323:qt-mt323.dll
 0001:0004de22       ?setPixmap@QDragObject@@UAEXVQPixmap@@ABVQPoint@@@Z 0044ee22 f   qt-mt323:qt-mt323.dll
 0001:0004de28       ?drag@QDragObject@@MAE_NW4DragMode@1@@Z 0044ee28 f   qt-mt323:qt-mt323.dll
 0001:0004de2e       ?checkConnectArgs@QObject@@MAE_NPBDPBV1@0@Z 0044ee2e f   qt-mt323:qt-mt323.dll
 0001:0004de34       ?disconnectNotify@QObject@@MAEXPBD@Z 0044ee34 f   qt-mt323:qt-mt323.dll
 0001:0004de3a       ?connectNotify@QObject@@MAEXPBD@Z 0044ee3a f   qt-mt323:qt-mt323.dll
 0001:0004de40       ?customEvent@QObject@@MAEXPAVQCustomEvent@@@Z 0044ee40 f   qt-mt323:qt-mt323.dll
 0001:0004de46       ?childEvent@QObject@@MAEXPAVQChildEvent@@@Z 0044ee46 f   qt-mt323:qt-mt323.dll
 0001:0004de4c       ?timerEvent@QObject@@MAEXPAVQTimerEvent@@@Z 0044ee4c f   qt-mt323:qt-mt323.dll
 0001:0004de52       ?property@QObject@@UBE?AVQVariant@@PBD@Z 0044ee52 f   qt-mt323:qt-mt323.dll
 0001:0004de58       ?setProperty@QObject@@UAE_NPBDABVQVariant@@@Z 0044ee58 f   qt-mt323:qt-mt323.dll
 0001:0004de5e       ?removeChild@QObject@@UAEXPAV1@@Z 0044ee5e f   qt-mt323:qt-mt323.dll
 0001:0004de64       ?insertChild@QObject@@UAEXPAV1@@Z 0044ee64 f   qt-mt323:qt-mt323.dll
 0001:0004de6a       ?setName@QObject@@UAEXPBD@Z 0044ee6a f   qt-mt323:qt-mt323.dll
 0001:0004de70       ?eventFilter@QObject@@UAE_NPAV1@PAVQEvent@@@Z 0044ee70 f   qt-mt323:qt-mt323.dll
 0001:0004de76       ?event@QObject@@UAE_NPAVQEvent@@@Z 0044ee76 f   qt-mt323:qt-mt323.dll
 0001:0004de7c       ?qt_property@QTextDrag@@UAE_NHHPAVQVariant@@@Z 0044ee7c f   qt-mt323:qt-mt323.dll
 0001:0004de82       ?qt_emit@QTextDrag@@UAE_NHPAUQUObject@@@Z 0044ee82 f   qt-mt323:qt-mt323.dll
 0001:0004de88       ?qt_invoke@QTextDrag@@UAE_NHPAUQUObject@@@Z 0044ee88 f   qt-mt323:qt-mt323.dll
 0001:0004de8e       ?qt_cast@QTextDrag@@UAEPAXPBD@Z 0044ee8e f   qt-mt323:qt-mt323.dll
 0001:0004de94       ?className@QTextDrag@@UBEPBDXZ 0044ee94 f   qt-mt323:qt-mt323.dll
 0001:0004de9a       ?metaObject@QTextDrag@@UBEPAVQMetaObject@@XZ 0044ee9a f   qt-mt323:qt-mt323.dll
 0001:0004dea0       ?compareItems@QGList@@MAEHPAX0@Z 0044eea0 f   qt-mt323:qt-mt323.dll
 0001:0004dea6       ?write@QGList@@MBEAAVQDataStream@@AAV2@PAX@Z 0044eea6 f   qt-mt323:qt-mt323.dll
 0001:0004deac       ?read@QGList@@MAEAAVQDataStream@@AAV2@AAPAX@Z 0044eeac f   qt-mt323:qt-mt323.dll
 0001:0004deb2       ?newItem@QPtrCollection@@MAEPAXPAX@Z 0044eeb2 f   qt-mt323:qt-mt323.dll
 0001:0004deb8       ?fontInf@QPaintDevice@@MBEHPAVQFont@@H@Z 0044eeb8 f   qt-mt323:qt-mt323.dll
 0001:0004debe       ?fontMet@QPaintDevice@@MBEHPAVQFont@@HPBDH@Z 0044eebe f   qt-mt323:qt-mt323.dll
 0001:0004dec4       ?metric@QWidget@@MBEHH@Z   0044eec4 f   qt-mt323:qt-mt323.dll
 0001:0004deca       ?cmd@QPaintDevice@@MAE_NHPAVQPainter@@PATQPDevCmdParam@@@Z 0044eeca f   qt-mt323:qt-mt323.dll
 0001:0004ded0       ?handle@QPaintDevice@@UBEPAUHDC__@@XZ 0044eed0 f   qt-mt323:qt-mt323.dll
 0001:0004ded6       ?resolution@QPaintDevice@@UBEHXZ 0044eed6 f   qt-mt323:qt-mt323.dll
 0001:0004dedc       ?setResolution@QPaintDevice@@UAEXH@Z 0044eedc f   qt-mt323:qt-mt323.dll
 0001:0004dee2       ?paintEmptyArea@QListView@@MAEXPAVQPainter@@ABVQRect@@@Z 0044eee2 f   qt-mt323:qt-mt323.dll
 0001:0004dee8       ?startDrag@QListView@@MAEXXZ 0044eee8 f   qt-mt323:qt-mt323.dll
 0001:0004deee       ?dragObject@QListView@@MAEPAVQDragObject@@XZ 0044eeee f   qt-mt323:qt-mt323.dll
 0001:0004def4       ?selectAll@QListView@@UAEX_N@Z 0044eef4 f   qt-mt323:qt-mt323.dll
 0001:0004defa       ?invertSelection@QListView@@UAEXXZ 0044eefa f   qt-mt323:qt-mt323.dll
 0001:0004df00       ?clear@QListView@@UAEXXZ   0044ef00 f   qt-mt323:qt-mt323.dll
 0001:0004df06       ?setDefaultRenameAction@QListView@@UAEXW4RenameAction@1@@Z 0044ef06 f   qt-mt323:qt-mt323.dll
 0001:0004df0c       ?setResizeMode@QListView@@UAEXW4ResizeMode@1@@Z 0044ef0c f   qt-mt323:qt-mt323.dll
 0001:0004df12       ?setShowToolTips@QListView@@UAEX_N@Z 0044ef12 f   qt-mt323:qt-mt323.dll
 0001:0004df18       ?setShowSortIndicator@QListView@@UAEX_N@Z 0044ef18 f   qt-mt323:qt-mt323.dll
 0001:0004df1e       ?sort@QListView@@UAEXXZ    0044ef1e f   qt-mt323:qt-mt323.dll
 0001:0004df24       ?setSorting@QListView@@UAEXH_N@Z 0044ef24 f   qt-mt323:qt-mt323.dll
 0001:0004df2a       ?setRootIsDecorated@QListView@@UAEX_N@Z 0044ef2a f   qt-mt323:qt-mt323.dll
 0001:0004df30       ?setItemMargin@QListView@@UAEXH@Z 0044ef30 f   qt-mt323:qt-mt323.dll
 0001:0004df36       ?setAllColumnsShowFocus@QListView@@UAEX_N@Z 0044ef36 f   qt-mt323:qt-mt323.dll
 0001:0004df3c       ?setCurrentItem@QListView@@UAEXPAVQListViewItem@@@Z 0044ef3c f   qt-mt323:qt-mt323.dll
 0001:0004df42       ?setOpen@QListView@@UAEXPAVQListViewItem@@_N@Z 0044ef42 f   qt-mt323:qt-mt323.dll
 0001:0004df48       ?setSelected@QListView@@UAEXPAVQListViewItem@@_N@Z 0044ef48 f   qt-mt323:qt-mt323.dll
 0001:0004df4e       ?clearSelection@QListView@@UAEXXZ 0044ef4e f   qt-mt323:qt-mt323.dll
 0001:0004df54       ?setMultiSelection@QListView@@UAEX_N@Z 0044ef54 f   qt-mt323:qt-mt323.dll
 0001:0004df5a       ?setColumnAlignment@QListView@@UAEXHH@Z 0044ef5a f   qt-mt323:qt-mt323.dll
 0001:0004df60       ?setColumnWidthMode@QListView@@UAEXHW4WidthMode@1@@Z 0044ef60 f   qt-mt323:qt-mt323.dll
 0001:0004df66       ?setColumnWidth@QListView@@UAEXHH@Z 0044ef66 f   qt-mt323:qt-mt323.dll
 0001:0004df6c       ?setColumnText@QListView@@UAEXHABVQString@@@Z 0044ef6c f   qt-mt323:qt-mt323.dll
 0001:0004df72       ?setColumnText@QListView@@UAEXHABVQIconSet@@ABVQString@@@Z 0044ef72 f   qt-mt323:qt-mt323.dll
 0001:0004df78       ?removeColumn@QListView@@UAEXH@Z 0044ef78 f   qt-mt323:qt-mt323.dll
 0001:0004df7e       ?addColumn@QListView@@UAEHABVQString@@H@Z 0044ef7e f   qt-mt323:qt-mt323.dll
 0001:0004df84       ?addColumn@QListView@@UAEHABVQIconSet@@ABVQString@@H@Z 0044ef84 f   qt-mt323:qt-mt323.dll
 0001:0004df8a       ?removeItem@QListView@@UAEXPAVQListViewItem@@@Z 0044ef8a f   qt-mt323:qt-mt323.dll
 0001:0004df90       ?takeItem@QListView@@UAEXPAVQListViewItem@@@Z 0044ef90 f   qt-mt323:qt-mt323.dll
 0001:0004df96       ?insertItem@QListView@@UAEXPAVQListViewItem@@@Z 0044ef96 f   qt-mt323:qt-mt323.dll
 0001:0004df9c       ?setTreeStepSize@QListView@@UAEXH@Z 0044ef9c f   qt-mt323:qt-mt323.dll
 0001:0004dfa2       ?setVBarGeometry@QScrollView@@MAEXAAVQScrollBar@@HHHH@Z 0044efa2 f   qt-mt323:qt-mt323.dll
 0001:0004dfa8       ?setHBarGeometry@QScrollView@@MAEXAAVQScrollBar@@HHHH@Z 0044efa8 f   qt-mt323:qt-mt323.dll
 0001:0004dfae       ?setMargins@QScrollView@@MAEXHHHH@Z 0044efae f   qt-mt323:qt-mt323.dll
 0001:0004dfb4       ?viewportContextMenuEvent@QScrollView@@MAEXPAVQContextMenuEvent@@@Z 0044efb4 f   qt-mt323:qt-mt323.dll
 0001:0004dfba       ?viewportWheelEvent@QScrollView@@MAEXPAVQWheelEvent@@@Z 0044efba f   qt-mt323:qt-mt323.dll
 0001:0004dfc0       ?viewportDropEvent@QScrollView@@MAEXPAVQDropEvent@@@Z 0044efc0 f   qt-mt323:qt-mt323.dll
 0001:0004dfc6       ?viewportDragLeaveEvent@QScrollView@@MAEXPAVQDragLeaveEvent@@@Z 0044efc6 f   qt-mt323:qt-mt323.dll
 0001:0004dfcc       ?viewportDragMoveEvent@QScrollView@@MAEXPAVQDragMoveEvent@@@Z 0044efcc f   qt-mt323:qt-mt323.dll
 0001:0004dfd2       ?viewportDragEnterEvent@QScrollView@@MAEXPAVQDragEnterEvent@@@Z 0044efd2 f   qt-mt323:qt-mt323.dll
 0001:0004dfd8       ?viewportMouseMoveEvent@QScrollView@@MAEXPAVQMouseEvent@@@Z 0044efd8 f   qt-mt323:qt-mt323.dll
 0001:0004dfde       ?viewportMouseDoubleClickEvent@QScrollView@@MAEXPAVQMouseEvent@@@Z 0044efde f   qt-mt323:qt-mt323.dll
 0001:0004dfe4       ?viewportMouseReleaseEvent@QScrollView@@MAEXPAVQMouseEvent@@@Z 0044efe4 f   qt-mt323:qt-mt323.dll
 0001:0004dfea       ?viewportMousePressEvent@QScrollView@@MAEXPAVQMouseEvent@@@Z 0044efea f   qt-mt323:qt-mt323.dll
 0001:0004dff0       ?viewportResizeEvent@QListView@@MAEXPAVQResizeEvent@@@Z 0044eff0 f   qt-mt323:qt-mt323.dll
 0001:0004dff6       ?viewportPaintEvent@QScrollView@@MAEXPAVQPaintEvent@@@Z 0044eff6 f   qt-mt323:qt-mt323.dll
 0001:0004dffc       ?contentsContextMenuEvent@QListView@@MAEXPAVQContextMenuEvent@@@Z 0044effc f   qt-mt323:qt-mt323.dll
 0001:0004e002       ?contentsWheelEvent@QScrollView@@MAEXPAVQWheelEvent@@@Z 0044f002 f   qt-mt323:qt-mt323.dll
 0001:0004e008       ?contentsDropEvent@QListView@@MAEXPAVQDropEvent@@@Z 0044f008 f   qt-mt323:qt-mt323.dll
 0001:0004e00e       ?contentsDragLeaveEvent@QListView@@MAEXPAVQDragLeaveEvent@@@Z 0044f00e f   qt-mt323:qt-mt323.dll
 0001:0004e014       ?contentsDragMoveEvent@QListView@@MAEXPAVQDragMoveEvent@@@Z 0044f014 f   qt-mt323:qt-mt323.dll
 0001:0004e01a       ?contentsDragEnterEvent@QListView@@MAEXPAVQDragEnterEvent@@@Z 0044f01a f   qt-mt323:qt-mt323.dll
 0001:0004e020       ?contentsMouseMoveEvent@QListView@@MAEXPAVQMouseEvent@@@Z 0044f020 f   qt-mt323:qt-mt323.dll
 0001:0004e026       ?contentsMouseDoubleClickEvent@QListView@@MAEXPAVQMouseEvent@@@Z 0044f026 f   qt-mt323:qt-mt323.dll
 0001:0004e02c       ?contentsMouseReleaseEvent@QListView@@MAEXPAVQMouseEvent@@@Z 0044f02c f   qt-mt323:qt-mt323.dll
 0001:0004e032       ?contentsMousePressEvent@QListView@@MAEXPAVQMouseEvent@@@Z 0044f032 f   qt-mt323:qt-mt323.dll
 0001:0004e038       ?drawContentsOffset@QListView@@MAEXPAVQPainter@@HHHHHH@Z 0044f038 f   qt-mt323:qt-mt323.dll
 0001:0004e03e       ?drawContents@QScrollView@@MAEXPAVQPainter@@HHHH@Z 0044f03e f   qt-mt323:qt-mt323.dll
 0001:0004e044       ?setContentsPos@QListView@@UAEXHH@Z 0044f044 f   qt-mt323:qt-mt323.dll
 0001:0004e04a       ?resizeContents@QScrollView@@UAEXHH@Z 0044f04a f   qt-mt323:qt-mt323.dll
 0001:0004e050       ?setDragAutoScroll@QScrollView@@UAEX_N@Z 0044f050 f   qt-mt323:qt-mt323.dll
 0001:0004e056       ?setCornerWidget@QScrollView@@UAEXPAVQWidget@@@Z 0044f056 f   qt-mt323:qt-mt323.dll
 0001:0004e05c       ?setHScrollBarMode@QScrollView@@UAEXW4ScrollBarMode@1@@Z 0044f05c f   qt-mt323:qt-mt323.dll
 0001:0004e062       ?setVScrollBarMode@QScrollView@@UAEXW4ScrollBarMode@1@@Z 0044f062 f   qt-mt323:qt-mt323.dll
 0001:0004e068       ?moveChild@QScrollView@@UAEXPAVQWidget@@HH@Z 0044f068 f   qt-mt323:qt-mt323.dll
 0001:0004e06e       ?addChild@QScrollView@@UAEXPAVQWidget@@HH@Z 0044f06e f   qt-mt323:qt-mt323.dll
 0001:0004e074       ?setResizePolicy@QScrollView@@UAEXW4ResizePolicy@1@@Z 0044f074 f   qt-mt323:qt-mt323.dll
 0001:0004e07a       ?frameChanged@QScrollView@@MAEXXZ 0044f07a f   qt-mt323:qt-mt323.dll
 0001:0004e080       ?drawContents@QScrollView@@EAEXPAVQPainter@@@Z 0044f080 f   qt-mt323:qt-mt323.dll
 0001:0004e086       ?drawFrame@QFrame@@MAEXPAVQPainter@@@Z 0044f086 f   qt-mt323:qt-mt323.dll
 0001:0004e08c       ?setFrameRect@QFrame@@UAEXABVQRect@@@Z 0044f08c f   qt-mt323:qt-mt323.dll
 0001:0004e092       ?setMidLineWidth@QFrame@@UAEXH@Z 0044f092 f   qt-mt323:qt-mt323.dll
 0001:0004e098       ?setMargin@QFrame@@UAEXH@Z 0044f098 f   qt-mt323:qt-mt323.dll
 0001:0004e09e       ?setLineWidth@QFrame@@UAEXH@Z 0044f09e f   qt-mt323:qt-mt323.dll
 0001:0004e0a4       ?setFrameStyle@QFrame@@UAEXH@Z 0044f0a4 f   qt-mt323:qt-mt323.dll
 0001:0004e0aa       ?setMicroFocusHint@QWidget@@MAEXHHHH_NPAVQFont@@@Z 0044f0aa f   qt-mt323:qt-mt323.dll
 0001:0004e0b0       ?setKeyCompression@QWidget@@MAEX_N@Z 0044f0b0 f   qt-mt323:qt-mt323.dll
 0001:0004e0b6       ?focusNextPrevChild@QScrollView@@MAE_N_N@Z 0044f0b6 f   qt-mt323:qt-mt323.dll
 0001:0004e0bc       ?setWFlags@QWidget@@MAEXI@Z 0044f0bc f   qt-mt323:qt-mt323.dll
 0001:0004e0c2       ?setWState@QWidget@@MAEXI@Z 0044f0c2 f   qt-mt323:qt-mt323.dll
 0001:0004e0c8       ?destroy@QWidget@@MAEX_N0@Z 0044f0c8 f   qt-mt323:qt-mt323.dll
 0001:0004e0ce       ?create@QWidget@@MAEXPAUHWND__@@_N1@Z 0044f0ce f   qt-mt323:qt-mt323.dll
 0001:0004e0d4       ?fontChange@QScrollView@@MAEXABVQFont@@@Z 0044f0d4 f   qt-mt323:qt-mt323.dll
 0001:0004e0da       ?paletteChange@QWidget@@MAEXABVQPalette@@@Z 0044f0da f   qt-mt323:qt-mt323.dll
 0001:0004e0e0       ?enabledChange@QWidget@@MAEX_N@Z 0044f0e0 f   qt-mt323:qt-mt323.dll
 0001:0004e0e6       ?styleChange@QListView@@MAEXAAVQStyle@@@Z 0044f0e6 f   qt-mt323:qt-mt323.dll
 0001:0004e0ec       ?updateMask@QWidget@@MAEXXZ 0044f0ec f   qt-mt323:qt-mt323.dll
 0001:0004e0f2       ?winEvent@QWidget@@MAE_NPAUtagMSG@@@Z 0044f0f2 f   qt-mt323:qt-mt323.dll
 0001:0004e0f8       ?hideEvent@QWidget@@MAEXPAVQHideEvent@@@Z 0044f0f8 f   qt-mt323:qt-mt323.dll
 0001:0004e0fe       ?showEvent@QListView@@MAEXPAVQShowEvent@@@Z 0044f0fe f   qt-mt323:qt-mt323.dll
 0001:0004e104       ?dropEvent@QWidget@@MAEXPAVQDropEvent@@@Z 0044f104 f   qt-mt323:qt-mt323.dll
 0001:0004e10a       ?dragLeaveEvent@QWidget@@MAEXPAVQDragLeaveEvent@@@Z 0044f10a f   qt-mt323:qt-mt323.dll
 0001:0004e110       ?dragMoveEvent@QWidget@@MAEXPAVQDragMoveEvent@@@Z 0044f110 f   qt-mt323:qt-mt323.dll
 0001:0004e116       ?dragEnterEvent@QWidget@@MAEXPAVQDragEnterEvent@@@Z 0044f116 f   qt-mt323:qt-mt323.dll
 0001:0004e11c       ?tabletEvent@QWidget@@MAEXPAVQTabletEvent@@@Z 0044f11c f   qt-mt323:qt-mt323.dll
 0001:0004e122       ?imEndEvent@QWidget@@MAEXPAVQIMEvent@@@Z 0044f122 f   qt-mt323:qt-mt323.dll
 0001:0004e128       ?imComposeEvent@QWidget@@MAEXPAVQIMEvent@@@Z 0044f128 f   qt-mt323:qt-mt323.dll
 0001:0004e12e       ?imStartEvent@QWidget@@MAEXPAVQIMEvent@@@Z 0044f12e f   qt-mt323:qt-mt323.dll
 0001:0004e134       ?contextMenuEvent@QScrollView@@MAEXPAVQContextMenuEvent@@@Z 0044f134 f   qt-mt323:qt-mt323.dll
 0001:0004e13a       ?closeEvent@QWidget@@MAEXPAVQCloseEvent@@@Z 0044f13a f   qt-mt323:qt-mt323.dll
 0001:0004e140       ?resizeEvent@QListView@@MAEXPAVQResizeEvent@@@Z 0044f140 f   qt-mt323:qt-mt323.dll
 0001:0004e146       ?moveEvent@QWidget@@MAEXPAVQMoveEvent@@@Z 0044f146 f   qt-mt323:qt-mt323.dll
 0001:0004e14c       ?paintEvent@QFrame@@MAEXPAVQPaintEvent@@@Z 0044f14c f   qt-mt323:qt-mt323.dll
 0001:0004e152       ?leaveEvent@QWidget@@MAEXPAVQEvent@@@Z 0044f152 f   qt-mt323:qt-mt323.dll
 0001:0004e158       ?enterEvent@QWidget@@MAEXPAVQEvent@@@Z 0044f158 f   qt-mt323:qt-mt323.dll
 0001:0004e15e       ?focusOutEvent@QListView@@MAEXPAVQFocusEvent@@@Z 0044f15e f   qt-mt323:qt-mt323.dll
 0001:0004e164       ?focusInEvent@QListView@@MAEXPAVQFocusEvent@@@Z 0044f164 f   qt-mt323:qt-mt323.dll
 0001:0004e16a       ?keyReleaseEvent@QWidget@@MAEXPAVQKeyEvent@@@Z 0044f16a f   qt-mt323:qt-mt323.dll
 0001:0004e170       ?wheelEvent@QScrollView@@MAEXPAVQWheelEvent@@@Z 0044f170 f   qt-mt323:qt-mt323.dll
 0001:0004e176       ?mouseMoveEvent@QScrollView@@MAEXPAVQMouseEvent@@@Z 0044f176 f   qt-mt323:qt-mt323.dll
 0001:0004e17c       ?mouseDoubleClickEvent@QScrollView@@MAEXPAVQMouseEvent@@@Z 0044f17c f   qt-mt323:qt-mt323.dll
 0001:0004e182       ?mouseReleaseEvent@QScrollView@@MAEXPAVQMouseEvent@@@Z 0044f182 f   qt-mt323:qt-mt323.dll
 0001:0004e188       ?mousePressEvent@QScrollView@@MAEXPAVQMouseEvent@@@Z 0044f188 f   qt-mt323:qt-mt323.dll
 0001:0004e18e       ?customWhatsThis@QWidget@@UBE_NXZ 0044f18e f   qt-mt323:qt-mt323.dll
 0001:0004e194       ?setBackgroundOrigin@QWidget@@UAEXW4BackgroundOrigin@1@@Z 0044f194 f   qt-mt323:qt-mt323.dll
 0001:0004e19a       ?setAutoMask@QWidget@@UAEX_N@Z 0044f19a f   qt-mt323:qt-mt323.dll
 0001:0004e1a0       ?setAcceptDrops@QWidget@@UAEX_N@Z 0044f1a0 f   qt-mt323:qt-mt323.dll
 0001:0004e1a6       ?reparent@QWidget@@UAEXPAV1@IABVQPoint@@_N@Z 0044f1a6 f   qt-mt323:qt-mt323.dll
 0001:0004e1ac       ?adjustSize@QWidget@@UAEXXZ 0044f1ac f   qt-mt323:qt-mt323.dll
 0001:0004e1b2       ?heightForWidth@QWidget@@UBEHH@Z 0044f1b2 f   qt-mt323:qt-mt323.dll
 0001:0004e1b8       ?setSizePolicy@QWidget@@UAEXVQSizePolicy@@@Z 0044f1b8 f   qt-mt323:qt-mt323.dll
 0001:0004e1be       ?sizePolicy@QWidget@@UBE?AVQSizePolicy@@XZ 0044f1be f   qt-mt323:qt-mt323.dll
 0001:0004e1c4       ?minimumSizeHint@QListView@@UBE?AVQSize@@XZ 0044f1c4 f   qt-mt323:qt-mt323.dll
 0001:0004e1ca       ?sizeHint@QListView@@UBE?AVQSize@@XZ 0044f1ca f   qt-mt323:qt-mt323.dll
 0001:0004e1d0       ?setGeometry@QWidget@@UAEXHHHH@Z 0044f1d0 f   qt-mt323:qt-mt323.dll
 0001:0004e1d6       ?setGeometry@QWidget@@UAEXABVQRect@@@Z 0044f1d6 f   qt-mt323:qt-mt323.dll
 0001:0004e1dc       ?resize@QScrollView@@UAEXHH@Z 0044f1dc f   qt-mt323:qt-mt323.dll
 0001:0004e1e2       ?move@QWidget@@UAEXHH@Z    0044f1e2 f   qt-mt323:qt-mt323.dll
 0001:0004e1e8       ?polish@QWidget@@UAEXXZ    0044f1e8 f   qt-mt323:qt-mt323.dll
 0001:0004e1ee       ?showNormal@QWidget@@UAEXXZ 0044f1ee f   qt-mt323:qt-mt323.dll
 0001:0004e1f4       ?showMaximized@QWidget@@UAEXXZ 0044f1f4 f   qt-mt323:qt-mt323.dll
 0001:0004e1fa       ?showMinimized@QWidget@@UAEXXZ 0044f1fa f   qt-mt323:qt-mt323.dll
 0001:0004e200       ?hide@QWidget@@UAEXXZ      0044f200 f   qt-mt323:qt-mt323.dll
 0001:0004e206       ?show@QListView@@UAEXXZ    0044f206 f   qt-mt323:qt-mt323.dll
 0001:0004e20c       ?setUpdatesEnabled@QWidget@@UAEX_N@Z 0044f20c f   qt-mt323:qt-mt323.dll
 0001:0004e212       ?setFocusProxy@QWidget@@UAEXPAV1@@Z 0044f212 f   qt-mt323:qt-mt323.dll
 0001:0004e218       ?setFocusPolicy@QWidget@@UAEXW4FocusPolicy@1@@Z 0044f218 f   qt-mt323:qt-mt323.dll
 0001:0004e21e       ?setActiveWindow@QWidget@@UAEXXZ 0044f21e f   qt-mt323:qt-mt323.dll
 0001:0004e224       ?setFocus@QWidget@@UAEXXZ  0044f224 f   qt-mt323:qt-mt323.dll
 0001:0004e22a       ?setMouseTracking@QWidget@@UAEX_N@Z 0044f22a f   qt-mt323:qt-mt323.dll
 0001:0004e230       ?setIconText@QWidget@@UAEXABVQString@@@Z 0044f230 f   qt-mt323:qt-mt323.dll
 0001:0004e236       ?setIcon@QWidget@@UAEXABVQPixmap@@@Z 0044f236 f   qt-mt323:qt-mt323.dll
 0001:0004e23c       ?setCaption@QWidget@@UAEXABVQString@@@Z 0044f23c f   qt-mt323:qt-mt323.dll
 0001:0004e242       ?setBackgroundPixmap@QWidget@@UAEXABVQPixmap@@@Z 0044f242 f   qt-mt323:qt-mt323.dll
 0001:0004e248       ?setBackgroundColor@QWidget@@UAEXABVQColor@@@Z 0044f248 f   qt-mt323:qt-mt323.dll
 0001:0004e24e       ?setMask@QWidget@@UAEXABVQBitmap@@@Z 0044f24e f   qt-mt323:qt-mt323.dll
 0001:0004e254       ?setMask@QWidget@@UAEXABVQRegion@@@Z 0044f254 f   qt-mt323:qt-mt323.dll
 0001:0004e25a       ?unsetCursor@QWidget@@UAEXXZ 0044f25a f   qt-mt323:qt-mt323.dll
 0001:0004e260       ?setCursor@QWidget@@UAEXABVQCursor@@@Z 0044f260 f   qt-mt323:qt-mt323.dll
 0001:0004e266       ?setFont@QListView@@UAEXABVQFont@@@Z 0044f266 f   qt-mt323:qt-mt323.dll
 0001:0004e26c       ?setPaletteBackgroundPixmap@QWidget@@UAEXABVQPixmap@@@Z 0044f26c f   qt-mt323:qt-mt323.dll
 0001:0004e272       ?setPaletteBackgroundColor@QWidget@@UAEXABVQColor@@@Z 0044f272 f   qt-mt323:qt-mt323.dll
 0001:0004e278       ?setPalette@QListView@@UAEXABVQPalette@@@Z 0044f278 f   qt-mt323:qt-mt323.dll
 0001:0004e27e       ?setErasePixmap@QWidget@@UAEXABVQPixmap@@@Z 0044f27e f   qt-mt323:qt-mt323.dll
 0001:0004e284       ?setEraseColor@QWidget@@UAEXABVQColor@@@Z 0044f284 f   qt-mt323:qt-mt323.dll
 0001:0004e28a       ?setBackgroundMode@QWidget@@UAEXW4BackgroundMode@Qt@@@Z 0044f28a f   qt-mt323:qt-mt323.dll
 0001:0004e290       ?setSizeIncrement@QWidget@@UAEXHH@Z 0044f290 f   qt-mt323:qt-mt323.dll
 0001:0004e296       ?setMaximumSize@QWidget@@UAEXHH@Z 0044f296 f   qt-mt323:qt-mt323.dll
 0001:0004e29c       ?setMinimumSize@QWidget@@UAEXHH@Z 0044f29c f   qt-mt323:qt-mt323.dll
 0001:0004e2a2       ?setEnabled@QScrollView@@UAEX_N@Z 0044f2a2 f   qt-mt323:qt-mt323.dll
 0001:0004e2a8       ?removeChild@QScrollView@@UAEXPAVQObject@@@Z 0044f2a8 f   qt-mt323:qt-mt323.dll
 0001:0004e2ae       ?setName@QWidget@@UAEXPBD@Z 0044f2ae f   qt-mt323:qt-mt323.dll
 0001:0004e2b4       ?eventFilter@QListView@@UAE_NPAVQObject@@PAVQEvent@@@Z 0044f2b4 f   qt-mt323:qt-mt323.dll
 0001:0004e2ba       ?event@QWidget@@MAE_NPAVQEvent@@@Z 0044f2ba f   qt-mt323:qt-mt323.dll
 0001:0004e2c0       ?cancelRename@QListViewItem@@MAEXH@Z 0044f2c0 f   qt-mt323:qt-mt323.dll
 0001:0004e2c6       ?okRename@QListViewItem@@MAEXH@Z 0044f2c6 f   qt-mt323:qt-mt323.dll
 0001:0004e2cc       ?dragLeft@QListViewItem@@MAEXXZ 0044f2cc f   qt-mt323:qt-mt323.dll
 0001:0004e2d2       ?dragEntered@QListViewItem@@MAEXXZ 0044f2d2 f   qt-mt323:qt-mt323.dll
 0001:0004e2d8       ?dropped@QListViewItem@@MAEXPAVQDropEvent@@@Z 0044f2d8 f   qt-mt323:qt-mt323.dll
 0001:0004e2de       ?activate@QListViewItem@@MAEXXZ 0044f2de f   qt-mt323:qt-mt323.dll
 0001:0004e2e4       ?setHeight@QListViewItem@@MAEXH@Z 0044f2e4 f   qt-mt323:qt-mt323.dll
 0001:0004e2ea       ?enforceSortOrder@QListViewItem@@MBEXXZ 0044f2ea f   qt-mt323:qt-mt323.dll
 0001:0004e2f0       ?setMultiLinesEnabled@QListViewItem@@UAEX_N@Z 0044f2f0 f   qt-mt323:qt-mt323.dll
 0001:0004e2f6       ?rtti@QListViewItem@@UBEHXZ 0044f2f6 f   qt-mt323:qt-mt323.dll
 0001:0004e2fc       ?setEnabled@QListViewItem@@UAEX_N@Z 0044f2fc f   qt-mt323:qt-mt323.dll
 0001:0004e302       ?startRename@QListViewItem@@UAEXH@Z 0044f302 f   qt-mt323:qt-mt323.dll
 0001:0004e308       ?setRenameEnabled@QListViewItem@@UAEXH_N@Z 0044f308 f   qt-mt323:qt-mt323.dll
 0001:0004e30e       ?acceptDrop@QListViewItem@@UBE_NPBVQMimeSource@@@Z 0044f30e f   qt-mt323:qt-mt323.dll
 0001:0004e314       ?setDropEnabled@QListViewItem@@UAEX_N@Z 0044f314 f   qt-mt323:qt-mt323.dll
 0001:0004e31a       ?setDragEnabled@QListViewItem@@UAEX_N@Z 0044f31a f   qt-mt323:qt-mt323.dll
 0001:0004e320       ?sort@QListViewItem@@UAEXXZ 0044f320 f   qt-mt323:qt-mt323.dll
 0001:0004e326       ?setExpandable@QListViewItem@@UAEX_N@Z 0044f326 f   qt-mt323:qt-mt323.dll
 0001:0004e32c       ?setSelectable@QListViewItem@@UAEX_N@Z 0044f32c f   qt-mt323:qt-mt323.dll
 0001:0004e332       ?paintFocus@QListViewItem@@UAEXPAVQPainter@@ABVQColorGroup@@ABVQRect@@@Z 0044f332 f   qt-mt323:qt-mt323.dll
 0001:0004e338       ?paintBranches@QListViewItem@@UAEXPAVQPainter@@ABVQColorGroup@@HHH@Z 0044f338 f   qt-mt323:qt-mt323.dll
 0001:0004e33e       ?paintCell@QListViewItem@@UAEXPAVQPainter@@ABVQColorGroup@@HHH@Z 0044f33e f   qt-mt323:qt-mt323.dll
 0001:0004e344       ?setSelected@QListViewItem@@UAEX_N@Z 0044f344 f   qt-mt323:qt-mt323.dll
 0001:0004e34a       ?setup@QListViewItem@@UAEXXZ 0044f34a f   qt-mt323:qt-mt323.dll
 0001:0004e350       ?setOpen@QListViewItem@@UAEX_N@Z 0044f350 f   qt-mt323:qt-mt323.dll
 0001:0004e356       ?sortChildItems@QListViewItem@@UAEXH_N@Z 0044f356 f   qt-mt323:qt-mt323.dll
 0001:0004e35c       ?compare@QListViewItem@@UBEHPAV1@H_N@Z 0044f35c f   qt-mt323:qt-mt323.dll
 0001:0004e362       ?key@QListViewItem@@UBE?AVQString@@H_N@Z 0044f362 f   qt-mt323:qt-mt323.dll
 0001:0004e368       ?pixmap@QListViewItem@@UBEPBVQPixmap@@H@Z 0044f368 f   qt-mt323:qt-mt323.dll
 0001:0004e36e       ?setPixmap@QListViewItem@@UAEXHABVQPixmap@@@Z 0044f36e f   qt-mt323:qt-mt323.dll
 0001:0004e374       ?text@QListViewItem@@UBE?AVQString@@H@Z 0044f374 f   qt-mt323:qt-mt323.dll
 0001:0004e37a       ?setText@QListViewItem@@UAEXHABVQString@@@Z 0044f37a f   qt-mt323:qt-mt323.dll
 0001:0004e380       ?width@QListViewItem@@UBEHABVQFontMetrics@@PBVQListView@@H@Z 0044f380 f   qt-mt323:qt-mt323.dll
 0001:0004e386       ?invalidateHeight@QListViewItem@@UAEXXZ 0044f386 f   qt-mt323:qt-mt323.dll
 0001:0004e38c       ?removeItem@QListViewItem@@UAEXPAV1@@Z 0044f38c f   qt-mt323:qt-mt323.dll
 0001:0004e392       ?takeItem@QListViewItem@@UAEXPAV1@@Z 0044f392 f   qt-mt323:qt-mt323.dll
 0001:0004e398       ?insertItem@QListViewItem@@UAEXPAV1@@Z 0044f398 f   qt-mt323:qt-mt323.dll
 0001:0004e39e       ?close@QWidget@@UAE_N_N@Z  0044f39e f   qt-mt323:qt-mt323.dll
 0001:0004e3a4       ?keyPressEvent@QListView@@MAEXPAVQKeyEvent@@@Z 0044f3a4 f   qt-mt323:qt-mt323.dll
 0001:0004e3aa       ?reject@QDialog@@MAEXXZ    0044f3aa f   qt-mt323:qt-mt323.dll
 0001:0004e3b0       ?accept@QDialog@@MAEXXZ    0044f3b0 f   qt-mt323:qt-mt323.dll
 0001:0004e3b6       ?done@QDialog@@MAEXH@Z     0044f3b6 f   qt-mt323:qt-mt323.dll
 0001:0004e3bc       ?focusNextPrevChild@QWidget@@MAE_N_N@Z 0044f3bc f   qt-mt323:qt-mt323.dll
 0001:0004e3c2       ?windowActivationChange@QWidget@@MAEX_N@Z 0044f3c2 f   qt-mt323:qt-mt323.dll
 0001:0004e3c8       ?fontChange@QWidget@@MAEXABVQFont@@@Z 0044f3c8 f   qt-mt323:qt-mt323.dll
 0001:0004e3ce       ?styleChange@QWidget@@MAEXAAVQStyle@@@Z 0044f3ce f   qt-mt323:qt-mt323.dll
 0001:0004e3d4       ?showEvent@QWidget@@MAEXPAVQShowEvent@@@Z 0044f3d4 f   qt-mt323:qt-mt323.dll
 0001:0004e3da       ?contextMenuEvent@QDialog@@MAEXPAVQContextMenuEvent@@@Z 0044f3da f   qt-mt323:qt-mt323.dll
 0001:0004e3e0       ?closeEvent@QDialog@@MAEXPAVQCloseEvent@@@Z 0044f3e0 f   qt-mt323:qt-mt323.dll
 0001:0004e3e6       ?resizeEvent@QDialog@@MAEXPAVQResizeEvent@@@Z 0044f3e6 f   qt-mt323:qt-mt323.dll
 0001:0004e3ec       ?paintEvent@QWidget@@MAEXPAVQPaintEvent@@@Z 0044f3ec f   qt-mt323:qt-mt323.dll
 0001:0004e3f2       ?focusOutEvent@QWidget@@MAEXPAVQFocusEvent@@@Z 0044f3f2 f   qt-mt323:qt-mt323.dll
 0001:0004e3f8       ?focusInEvent@QWidget@@MAEXPAVQFocusEvent@@@Z 0044f3f8 f   qt-mt323:qt-mt323.dll
 0001:0004e3fe       ?keyPressEvent@QDialog@@MAEXPAVQKeyEvent@@@Z 0044f3fe f   qt-mt323:qt-mt323.dll
 0001:0004e404       ?wheelEvent@QWidget@@MAEXPAVQWheelEvent@@@Z 0044f404 f   qt-mt323:qt-mt323.dll
 0001:0004e40a       ?mouseMoveEvent@QWidget@@MAEXPAVQMouseEvent@@@Z 0044f40a f   qt-mt323:qt-mt323.dll
 0001:0004e410       ?mouseDoubleClickEvent@QWidget@@MAEXPAVQMouseEvent@@@Z 0044f410 f   qt-mt323:qt-mt323.dll
 0001:0004e416       ?mouseReleaseEvent@QWidget@@MAEXPAVQMouseEvent@@@Z 0044f416 f   qt-mt323:qt-mt323.dll
 0001:0004e41c       ?mousePressEvent@QWidget@@MAEXPAVQMouseEvent@@@Z 0044f41c f   qt-mt323:qt-mt323.dll
 0001:0004e422       ?minimumSizeHint@QDialog@@UBE?AVQSize@@XZ 0044f422 f   qt-mt323:qt-mt323.dll
 0001:0004e428       ?sizeHint@QDialog@@UBE?AVQSize@@XZ 0044f428 f   qt-mt323:qt-mt323.dll
 0001:0004e42e       ?setGeometry@QDialog@@UAEXHHHH@Z 0044f42e f   qt-mt323:qt-mt323.dll
 0001:0004e434       ?setGeometry@QDialog@@UAEXABVQRect@@@Z 0044f434 f   qt-mt323:qt-mt323.dll
 0001:0004e43a       ?resize@QDialog@@UAEXHH@Z  0044f43a f   qt-mt323:qt-mt323.dll
 0001:0004e440       ?move@QDialog@@UAEXHH@Z    0044f440 f   qt-mt323:qt-mt323.dll
 0001:0004e446       ?hide@QDialog@@UAEXXZ      0044f446 f   qt-mt323:qt-mt323.dll
 0001:0004e44c       ?show@QDialog@@UAEXXZ      0044f44c f   qt-mt323:qt-mt323.dll
 0001:0004e452       ?setFont@QWidget@@UAEXABVQFont@@@Z 0044f452 f   qt-mt323:qt-mt323.dll
 0001:0004e458       ?setPalette@QWidget@@UAEXABVQPalette@@@Z 0044f458 f   qt-mt323:qt-mt323.dll
 0001:0004e45e       ?setEnabled@QWidget@@UAEX_N@Z 0044f45e f   qt-mt323:qt-mt323.dll
 0001:0004e464       ?eventFilter@QDialog@@MAE_NPAVQObject@@PAVQEvent@@@Z 0044f464 f   qt-mt323:qt-mt323.dll
 0001:0004e46a       ?windowActivationChange@QListView@@MAEX_N@Z 0044f46a f   qt-mt323:qt-mt323.dll
 0001:0004e470       ?viewportResizeEvent@QScrollView@@MAEXPAVQResizeEvent@@@Z 0044f470 f   qt-mt323:qt-mt323.dll
 0001:0004e476       ?contentsContextMenuEvent@QScrollView@@MAEXPAVQContextMenuEvent@@@Z 0044f476 f   qt-mt323:qt-mt323.dll
 0001:0004e47c       ?contentsDropEvent@QScrollView@@MAEXPAVQDropEvent@@@Z 0044f47c f   qt-mt323:qt-mt323.dll
 0001:0004e482       ?contentsDragLeaveEvent@QScrollView@@MAEXPAVQDragLeaveEvent@@@Z 0044f482 f   qt-mt323:qt-mt323.dll
 0001:0004e488       ?contentsDragMoveEvent@QScrollView@@MAEXPAVQDragMoveEvent@@@Z 0044f488 f   qt-mt323:qt-mt323.dll
 0001:0004e48e       ?contentsDragEnterEvent@QScrollView@@MAEXPAVQDragEnterEvent@@@Z 0044f48e f   qt-mt323:qt-mt323.dll
 0001:0004e494       ?contentsMouseMoveEvent@QScrollView@@MAEXPAVQMouseEvent@@@Z 0044f494 f   qt-mt323:qt-mt323.dll
 0001:0004e49a       ?contentsMouseDoubleClickEvent@QScrollView@@MAEXPAVQMouseEvent@@@Z 0044f49a f   qt-mt323:qt-mt323.dll
 0001:0004e4a0       ?contentsMouseReleaseEvent@QScrollView@@MAEXPAVQMouseEvent@@@Z 0044f4a0 f   qt-mt323:qt-mt323.dll
 0001:0004e4a6       ?contentsMousePressEvent@QScrollView@@MAEXPAVQMouseEvent@@@Z 0044f4a6 f   qt-mt323:qt-mt323.dll
 0001:0004e4ac       ?drawContentsOffset@QScrollView@@MAEXPAVQPainter@@HHHHHH@Z 0044f4ac f   qt-mt323:qt-mt323.dll
 0001:0004e4b2       ?setContentsPos@QScrollView@@UAEXHH@Z 0044f4b2 f   qt-mt323:qt-mt323.dll
 0001:0004e4b8       ?resizeEvent@QScrollView@@MAEXPAVQResizeEvent@@@Z 0044f4b8 f   qt-mt323:qt-mt323.dll
 0001:0004e4be       ?keyPressEvent@QWidget@@MAEXPAVQKeyEvent@@@Z 0044f4be f   qt-mt323:qt-mt323.dll
 0001:0004e4c4       ?minimumSizeHint@QScrollView@@UBE?AVQSize@@XZ 0044f4c4 f   qt-mt323:qt-mt323.dll
 0001:0004e4ca       ?sizeHint@QScrollView@@UBE?AVQSize@@XZ 0044f4ca f   qt-mt323:qt-mt323.dll
 0001:0004e4d0       ?show@QScrollView@@UAEXXZ  0044f4d0 f   qt-mt323:qt-mt323.dll
 0001:0004e4d6       ?eventFilter@QScrollView@@MAE_NPAVQObject@@PAVQEvent@@@Z 0044f4d6 f   qt-mt323:qt-mt323.dll
 0001:0004e4dc       ?setChecked@QRadioButton@@UAEX_N@Z 0044f4dc f   qt-mt323:qt-mt323.dll
 0001:0004e4e2       ?drawButtonLabel@QRadioButton@@MAEXPAVQPainter@@@Z 0044f4e2 f   qt-mt323:qt-mt323.dll
 0001:0004e4e8       ?drawButton@QRadioButton@@MAEXPAVQPainter@@@Z 0044f4e8 f   qt-mt323:qt-mt323.dll
 0001:0004e4ee       ?hitButton@QRadioButton@@MBE_NABVQPoint@@@Z 0044f4ee f   qt-mt323:qt-mt323.dll
 0001:0004e4f4       ?updateMask@QRadioButton@@MAEXXZ 0044f4f4 f   qt-mt323:qt-mt323.dll
 0001:0004e4fa       ?resizeEvent@QRadioButton@@MAEXPAVQResizeEvent@@@Z 0044f4fa f   qt-mt323:qt-mt323.dll
 0001:0004e500       ?focusOutEvent@QButton@@MAEXPAVQFocusEvent@@@Z 0044f500 f   qt-mt323:qt-mt323.dll
 0001:0004e506       ?focusInEvent@QButton@@MAEXPAVQFocusEvent@@@Z 0044f506 f   qt-mt323:qt-mt323.dll
 0001:0004e50c       ?sizeHint@QRadioButton@@UBE?AVQSize@@XZ 0044f50c f   qt-mt323:qt-mt323.dll
 0001:0004e512       ?qt_property@QRadioButton@@UAE_NHHPAVQVariant@@@Z 0044f512 f   qt-mt323:qt-mt323.dll
 0001:0004e518       ?qt_emit@QRadioButton@@UAE_NHPAUQUObject@@@Z 0044f518 f   qt-mt323:qt-mt323.dll
 0001:0004e51e       ?qt_invoke@QRadioButton@@UAE_NHPAUQUObject@@@Z 0044f51e f   qt-mt323:qt-mt323.dll
 0001:0004e524       ?qt_cast@QRadioButton@@UAEPAXPBD@Z 0044f524 f   qt-mt323:qt-mt323.dll
 0001:0004e52a       ?className@QRadioButton@@UBEPBDXZ 0044f52a f   qt-mt323:qt-mt323.dll
 0001:0004e530       ?metaObject@QRadioButton@@UBEPAVQMetaObject@@XZ 0044f530 f   qt-mt323:qt-mt323.dll
 0001:0004e536       ?moveFocus@QButtonGroup@@UAEXH@Z 0044f536 f   qt-mt323:qt-mt323.dll
 0001:0004e53c       ?setButton@QButtonGroup@@UAEXH@Z 0044f53c f   qt-mt323:qt-mt323.dll
 0001:0004e542       ?setRadioButtonExclusive@QButtonGroup@@UAEX_N@Z 0044f542 f   qt-mt323:qt-mt323.dll
 0001:0004e548       ?setExclusive@QButtonGroup@@UAEX_N@Z 0044f548 f   qt-mt323:qt-mt323.dll
 0001:0004e54e       ?setAlignment@QGroupBox@@UAEXH@Z 0044f54e f   qt-mt323:qt-mt323.dll
 0001:0004e554       ?setTitle@QGroupBox@@UAEXABVQString@@@Z 0044f554 f   qt-mt323:qt-mt323.dll
 0001:0004e55a       ?setColumnLayout@QGroupBox@@UAEXHW4Orientation@Qt@@@Z 0044f55a f   qt-mt323:qt-mt323.dll
 0001:0004e560       ?frameChanged@QFrame@@MAEXXZ 0044f560 f   qt-mt323:qt-mt323.dll
 0001:0004e566       ?drawContents@QFrame@@MAEXPAVQPainter@@@Z 0044f566 f   qt-mt323:qt-mt323.dll
 0001:0004e56c       ?fontChange@QGroupBox@@MAEXABVQFont@@@Z 0044f56c f   qt-mt323:qt-mt323.dll
 0001:0004e572       ?styleChange@QFrame@@MAEXAAVQStyle@@@Z 0044f572 f   qt-mt323:qt-mt323.dll
 0001:0004e578       ?resizeEvent@QGroupBox@@MAEXPAVQResizeEvent@@@Z 0044f578 f   qt-mt323:qt-mt323.dll
 0001:0004e57e       ?paintEvent@QGroupBox@@MAEXPAVQPaintEvent@@@Z 0044f57e f   qt-mt323:qt-mt323.dll
 0001:0004e584       ?focusInEvent@QGroupBox@@MAEXPAVQFocusEvent@@@Z 0044f584 f   qt-mt323:qt-mt323.dll
 0001:0004e58a       ?sizeHint@QGroupBox@@UBE?AVQSize@@XZ 0044f58a f   qt-mt323:qt-mt323.dll
 0001:0004e590       ?resize@QWidget@@UAEXHH@Z  0044f590 f   qt-mt323:qt-mt323.dll
 0001:0004e596       ?setEnabled@QGroupBox@@UAEX_N@Z 0044f596 f   qt-mt323:qt-mt323.dll
 0001:0004e59c       ?childEvent@QGroupBox@@MAEXPAVQChildEvent@@@Z 0044f59c f   qt-mt323:qt-mt323.dll
 0001:0004e5a2       ?event@QButtonGroup@@MAE_NPAVQEvent@@@Z 0044f5a2 f   qt-mt323:qt-mt323.dll
 0001:0004e5a8       ?qt_property@QButtonGroup@@UAE_NHHPAVQVariant@@@Z 0044f5a8 f   qt-mt323:qt-mt323.dll
 0001:0004e5ae       ?qt_emit@QButtonGroup@@UAE_NHPAUQUObject@@@Z 0044f5ae f   qt-mt323:qt-mt323.dll
 0001:0004e5b4       ?qt_invoke@QButtonGroup@@UAE_NHPAUQUObject@@@Z 0044f5b4 f   qt-mt323:qt-mt323.dll
 0001:0004e5ba       ?qt_cast@QButtonGroup@@UAEPAXPBD@Z 0044f5ba f   qt-mt323:qt-mt323.dll
 0001:0004e5c0       ?className@QButtonGroup@@UBEPBDXZ 0044f5c0 f   qt-mt323:qt-mt323.dll
 0001:0004e5c6       ?metaObject@QButtonGroup@@UBEPAVQMetaObject@@XZ 0044f5c6 f   qt-mt323:qt-mt323.dll
 0001:0004e5cc       ?qt_property@QHBoxLayout@@UAE_NHHPAVQVariant@@@Z 0044f5cc f   qt-mt323:qt-mt323.dll
 0001:0004e5d2       ?qt_emit@QHBoxLayout@@UAE_NHPAUQUObject@@@Z 0044f5d2 f   qt-mt323:qt-mt323.dll
 0001:0004e5d8       ?qt_invoke@QHBoxLayout@@UAE_NHPAUQUObject@@@Z 0044f5d8 f   qt-mt323:qt-mt323.dll
 0001:0004e5de       ?qt_cast@QHBoxLayout@@UAEPAXPBD@Z 0044f5de f   qt-mt323:qt-mt323.dll
 0001:0004e5e4       ?className@QHBoxLayout@@UBEPBDXZ 0044f5e4 f   qt-mt323:qt-mt323.dll
 0001:0004e5ea       ?metaObject@QHBoxLayout@@UBEPAVQMetaObject@@XZ 0044f5ea f   qt-mt323:qt-mt323.dll
 0001:0004e5f0       ?spacerItem@QLayoutItem@@UAEPAVQSpacerItem@@XZ 0044f5f0 f   qt-mt323:qt-mt323.dll
 0001:0004e5f6       ?layout@QLayout@@UAEPAV1@XZ 0044f5f6 f   qt-mt323:qt-mt323.dll
 0001:0004e5fc       ?iterator@QBoxLayout@@UAE?AVQLayoutIterator@@XZ 0044f5fc f   qt-mt323:qt-mt323.dll
 0001:0004e602       ?invalidate@QBoxLayout@@UAEXXZ 0044f602 f   qt-mt323:qt-mt323.dll
 0001:0004e608       ?heightForWidth@QBoxLayout@@UBEHH@Z 0044f608 f   qt-mt323:qt-mt323.dll
 0001:0004e60e       ?hasHeightForWidth@QBoxLayout@@UBE_NXZ 0044f60e f   qt-mt323:qt-mt323.dll
 0001:0004e614       ?isEmpty@QLayout@@UBE_NXZ  0044f614 f   qt-mt323:qt-mt323.dll
 0001:0004e61a       ?geometry@QLayout@@UBE?AVQRect@@XZ 0044f61a f   qt-mt323:qt-mt323.dll
 0001:0004e620       ?setGeometry@QBoxLayout@@UAEXABVQRect@@@Z 0044f620 f   qt-mt323:qt-mt323.dll
 0001:0004e626       ?expanding@QBoxLayout@@UBE?AW4ExpandData@QSizePolicy@@XZ 0044f626 f   qt-mt323:qt-mt323.dll
 0001:0004e62c       ?maximumSize@QBoxLayout@@UBE?AVQSize@@XZ 0044f62c f   qt-mt323:qt-mt323.dll
 0001:0004e632       ?minimumSize@QBoxLayout@@UBE?AVQSize@@XZ 0044f632 f   qt-mt323:qt-mt323.dll
 0001:0004e638       ?sizeHint@QBoxLayout@@UBE?AVQSize@@XZ 0044f638 f   qt-mt323:qt-mt323.dll
 0001:0004e63e       ?addItem@QBoxLayout@@UAEXPAVQLayoutItem@@@Z 0044f63e f   qt-mt323:qt-mt323.dll
 0001:0004e644       ?setAutoAdd@QLayout@@UAEX_N@Z 0044f644 f   qt-mt323:qt-mt323.dll
 0001:0004e64a       ?setMenuBar@QLayout@@UAEXPAVQMenuBar@@@Z 0044f64a f   qt-mt323:qt-mt323.dll
 0001:0004e650       ?setSpacing@QLayout@@UAEXH@Z 0044f650 f   qt-mt323:qt-mt323.dll
 0001:0004e656       ?setMargin@QLayout@@UAEXH@Z 0044f656 f   qt-mt323:qt-mt323.dll
 0001:0004e65c       ?childEvent@QLayout@@MAEXPAVQChildEvent@@@Z 0044f65c f   qt-mt323:qt-mt323.dll
 0001:0004e662       ?eventFilter@QLayout@@MAE_NPAVQObject@@PAVQEvent@@@Z 0044f662 f   qt-mt323:qt-mt323.dll
 0001:0004e668       ?qt_property@QVBoxLayout@@UAE_NHHPAVQVariant@@@Z 0044f668 f   qt-mt323:qt-mt323.dll
 0001:0004e66e       ?qt_emit@QVBoxLayout@@UAE_NHPAUQUObject@@@Z 0044f66e f   qt-mt323:qt-mt323.dll
 0001:0004e674       ?qt_invoke@QVBoxLayout@@UAE_NHPAUQUObject@@@Z 0044f674 f   qt-mt323:qt-mt323.dll
 0001:0004e67a       ?qt_cast@QVBoxLayout@@UAEPAXPBD@Z 0044f67a f   qt-mt323:qt-mt323.dll
 0001:0004e680       ?className@QVBoxLayout@@UBEPBDXZ 0044f680 f   qt-mt323:qt-mt323.dll
 0001:0004e686       ?metaObject@QVBoxLayout@@UBEPAVQMetaObject@@XZ 0044f686 f   qt-mt323:qt-mt323.dll
 0001:0004e68c       ?setOn@QPushButton@@UAEX_N@Z 0044f68c f   qt-mt323:qt-mt323.dll
 0001:0004e692       ?setIsMenuButton@QPushButton@@UAEX_N@Z 0044f692 f   qt-mt323:qt-mt323.dll
 0001:0004e698       ?setDefault@QPushButton@@UAEX_N@Z 0044f698 f   qt-mt323:qt-mt323.dll
 0001:0004e69e       ?setAutoDefault@QPushButton@@UAEX_N@Z 0044f69e f   qt-mt323:qt-mt323.dll
 0001:0004e6a4       ?setGroup@QButton@@EAEXPAVQButtonGroup@@@Z 0044f6a4 f   qt-mt323:qt-mt323.dll
 0001:0004e6aa       ?drawButtonLabel@QPushButton@@MAEXPAVQPainter@@@Z 0044f6aa f   qt-mt323:qt-mt323.dll
 0001:0004e6b0       ?drawButton@QPushButton@@MAEXPAVQPainter@@@Z 0044f6b0 f   qt-mt323:qt-mt323.dll
 0001:0004e6b6       ?hitButton@QButton@@MBE_NABVQPoint@@@Z 0044f6b6 f   qt-mt323:qt-mt323.dll
 0001:0004e6bc       ?setState@QButton@@MAEXW4ToggleState@1@@Z 0044f6bc f   qt-mt323:qt-mt323.dll
 0001:0004e6c2       ?setToggleType@QButton@@MAEXW4ToggleType@1@@Z 0044f6c2 f   qt-mt323:qt-mt323.dll
 0001:0004e6c8       ?setAutoRepeat@QButton@@UAEX_N@Z 0044f6c8 f   qt-mt323:qt-mt323.dll
 0001:0004e6ce       ?setDown@QButton@@UAEX_N@Z 0044f6ce f   qt-mt323:qt-mt323.dll
 0001:0004e6d4       ?setAccel@QButton@@UAEXABVQKeySequence@@@Z 0044f6d4 f   qt-mt323:qt-mt323.dll
 0001:0004e6da       ?setPixmap@QButton@@UAEXABVQPixmap@@@Z 0044f6da f   qt-mt323:qt-mt323.dll
 0001:0004e6e0       ?setText@QButton@@UAEXABVQString@@@Z 0044f6e0 f   qt-mt323:qt-mt323.dll
 0001:0004e6e6       ?enabledChange@QButton@@MAEX_N@Z 0044f6e6 f   qt-mt323:qt-mt323.dll
 0001:0004e6ec       ?updateMask@QPushButton@@MAEXXZ 0044f6ec f   qt-mt323:qt-mt323.dll
 0001:0004e6f2       ?contextMenuEvent@QWidget@@MAEXPAVQContextMenuEvent@@@Z 0044f6f2 f   qt-mt323:qt-mt323.dll
 0001:0004e6f8       ?resizeEvent@QPushButton@@MAEXPAVQResizeEvent@@@Z 0044f6f8 f   qt-mt323:qt-mt323.dll
 0001:0004e6fe       ?paintEvent@QButton@@MAEXPAVQPaintEvent@@@Z 0044f6fe f   qt-mt323:qt-mt323.dll
 0001:0004e704       ?focusOutEvent@QPushButton@@MAEXPAVQFocusEvent@@@Z 0044f704 f   qt-mt323:qt-mt323.dll
 0001:0004e70a       ?focusInEvent@QPushButton@@MAEXPAVQFocusEvent@@@Z 0044f70a f   qt-mt323:qt-mt323.dll
 0001:0004e710       ?keyReleaseEvent@QButton@@MAEXPAVQKeyEvent@@@Z 0044f710 f   qt-mt323:qt-mt323.dll
 0001:0004e716       ?keyPressEvent@QButton@@MAEXPAVQKeyEvent@@@Z 0044f716 f   qt-mt323:qt-mt323.dll
 0001:0004e71c       ?mouseMoveEvent@QButton@@MAEXPAVQMouseEvent@@@Z 0044f71c f   qt-mt323:qt-mt323.dll
 0001:0004e722       ?mouseReleaseEvent@QButton@@MAEXPAVQMouseEvent@@@Z 0044f722 f   qt-mt323:qt-mt323.dll
 0001:0004e728       ?mousePressEvent@QButton@@MAEXPAVQMouseEvent@@@Z 0044f728 f   qt-mt323:qt-mt323.dll
 0001:0004e72e       ?minimumSizeHint@QWidget@@UBE?AVQSize@@XZ 0044f72e f   qt-mt323:qt-mt323.dll
 0001:0004e734       ?sizeHint@QPushButton@@UBE?AVQSize@@XZ 0044f734 f   qt-mt323:qt-mt323.dll
 0001:0004e73a       ?setGeometry@QPushButton@@UAEXHHHH@Z 0044f73a f   qt-mt323:qt-mt323.dll
 0001:0004e740       ?setGeometry@QPushButton@@UAEXABVQRect@@@Z 0044f740 f   qt-mt323:qt-mt323.dll
 0001:0004e746       ?resize@QPushButton@@UAEXHH@Z 0044f746 f   qt-mt323:qt-mt323.dll
 0001:0004e74c       ?move@QPushButton@@UAEXHH@Z 0044f74c f   qt-mt323:qt-mt323.dll
 0001:0004e752       ?show@QWidget@@UAEXXZ      0044f752 f   qt-mt323:qt-mt323.dll
 0001:0004e758       ?qt_property@QPushButton@@UAE_NHHPAVQVariant@@@Z 0044f758 f   qt-mt323:qt-mt323.dll
 0001:0004e75e       ?qt_emit@QPushButton@@UAE_NHPAUQUObject@@@Z 0044f75e f   qt-mt323:qt-mt323.dll
 0001:0004e764       ?qt_invoke@QPushButton@@UAE_NHPAUQUObject@@@Z 0044f764 f   qt-mt323:qt-mt323.dll
 0001:0004e76a       ?qt_cast@QPushButton@@UAEPAXPBD@Z 0044f76a f   qt-mt323:qt-mt323.dll
 0001:0004e770       ?className@QPushButton@@UBEPBDXZ 0044f770 f   qt-mt323:qt-mt323.dll
 0001:0004e776       ?metaObject@QPushButton@@UBEPAVQMetaObject@@XZ 0044f776 f   qt-mt323:qt-mt323.dll
 0001:0004e77c       ?setAlignment@QLayoutItem@@UAEXH@Z 0044f77c f   qt-mt323:qt-mt323.dll
 0001:0004e782       ?spacerItem@QSpacerItem@@UAEPAV1@XZ 0044f782 f   qt-mt323:qt-mt323.dll
 0001:0004e788       ?layout@QLayoutItem@@UAEPAVQLayout@@XZ 0044f788 f   qt-mt323:qt-mt323.dll
 0001:0004e78e       ?iterator@QLayoutItem@@UAE?AVQLayoutIterator@@XZ 0044f78e f   qt-mt323:qt-mt323.dll
 0001:0004e794       ?widget@QLayoutItem@@UAEPAVQWidget@@XZ 0044f794 f   qt-mt323:qt-mt323.dll
 0001:0004e79a       ?invalidate@QLayoutItem@@UAEXXZ 0044f79a f   qt-mt323:qt-mt323.dll
 0001:0004e7a0       ?heightForWidth@QLayoutItem@@UBEHH@Z 0044f7a0 f   qt-mt323:qt-mt323.dll
 0001:0004e7a6       ?hasHeightForWidth@QLayoutItem@@UBE_NXZ 0044f7a6 f   qt-mt323:qt-mt323.dll
 0001:0004e7ac       ?isEmpty@QSpacerItem@@UBE_NXZ 0044f7ac f   qt-mt323:qt-mt323.dll
 0001:0004e7b2       ?geometry@QSpacerItem@@UBE?AVQRect@@XZ 0044f7b2 f   qt-mt323:qt-mt323.dll
 0001:0004e7b8       ?setGeometry@QSpacerItem@@UAEXABVQRect@@@Z 0044f7b8 f   qt-mt323:qt-mt323.dll
 0001:0004e7be       ?expanding@QSpacerItem@@UBE?AW4ExpandData@QSizePolicy@@XZ 0044f7be f   qt-mt323:qt-mt323.dll
 0001:0004e7c4       ?maximumSize@QSpacerItem@@UBE?AVQSize@@XZ 0044f7c4 f   qt-mt323:qt-mt323.dll
 0001:0004e7ca       ?minimumSize@QSpacerItem@@UBE?AVQSize@@XZ 0044f7ca f   qt-mt323:qt-mt323.dll
 0001:0004e7d0       ?sizeHint@QSpacerItem@@UBE?AVQSize@@XZ 0044f7d0 f   qt-mt323:qt-mt323.dll
 0001:0004e7d6       ?sizeHint@QWidget@@UBE?AVQSize@@XZ 0044f7d6 f   qt-mt323:qt-mt323.dll
 0001:0004e7dc       ?dragLeft@QIconViewItem@@MAEXXZ 0044f7dc f   qt-mt323:qt-mt323.dll
 0001:0004e7e2       ?dragEntered@QIconViewItem@@MAEXXZ 0044f7e2 f   qt-mt323:qt-mt323.dll
 0001:0004e7e8       ?dropped@QIconViewItem@@MAEXPAVQDropEvent@@ABV?$QValueList@VQIconDragItem@@@@@Z 0044f7e8 f   qt-mt323:qt-mt323.dll
 0001:0004e7ee       ?paintFocus@QIconViewItem@@MAEXPAVQPainter@@ABVQColorGroup@@@Z 0044f7ee f   qt-mt323:qt-mt323.dll
 0001:0004e7f4       ?paintItem@QIconViewItem@@MAEXPAVQPainter@@ABVQColorGroup@@@Z 0044f7f4 f   qt-mt323:qt-mt323.dll
 0001:0004e7fa       ?calcRect@QIconViewItem@@MAEXABVQString@@@Z 0044f7fa f   qt-mt323:qt-mt323.dll
 0001:0004e800       ?removeRenameBox@QIconViewItem@@MAEXXZ 0044f800 f   qt-mt323:qt-mt323.dll
 0001:0004e806       ?rtti@QIconViewItem@@UBEHXZ 0044f806 f   qt-mt323:qt-mt323.dll
 0001:0004e80c       ?setKey@QIconViewItem@@UAEXABVQString@@@Z 0044f80c f   qt-mt323:qt-mt323.dll
 0001:0004e812       ?setPicture@QIconViewItem@@UAEXABVQPicture@@@Z 0044f812 f   qt-mt323:qt-mt323.dll
 0001:0004e818       ?setPixmap@QIconViewItem@@UAEXABVQPixmap@@@Z 0044f818 f   qt-mt323:qt-mt323.dll
 0001:0004e81e       ?setPixmap@QIconViewItem@@UAEXABVQPixmap@@_N1@Z 0044f81e f   qt-mt323:qt-mt323.dll
 0001:0004e824       ?setText@QIconViewItem@@UAEXABVQString@@@Z 0044f824 f   qt-mt323:qt-mt323.dll
 0001:0004e82a       ?setText@QIconViewItem@@UAEXABVQString@@_N1@Z 0044f82a f   qt-mt323:qt-mt323.dll
 0001:0004e830       ?compare@QIconViewItem@@UBEHPAV1@@Z 0044f830 f   qt-mt323:qt-mt323.dll
 0001:0004e836       ?acceptDrop@QIconViewItem@@UBE_NPBVQMimeSource@@@Z 0044f836 f   qt-mt323:qt-mt323.dll
 0001:0004e83c       ?moveBy@QIconViewItem@@UAEXHH@Z 0044f83c f   qt-mt323:qt-mt323.dll
 0001:0004e842       ?moveBy@QIconViewItem@@UAEXABVQPoint@@@Z 0044f842 f   qt-mt323:qt-mt323.dll
 0001:0004e848       ?move@QIconViewItem@@UAE_NHH@Z 0044f848 f   qt-mt323:qt-mt323.dll
 0001:0004e84e       ?move@QIconViewItem@@UAE_NABVQPoint@@@Z 0044f84e f   qt-mt323:qt-mt323.dll
 0001:0004e854       ?repaint@QIconViewItem@@UAEXXZ 0044f854 f   qt-mt323:qt-mt323.dll
 0001:0004e85a       ?setSelectable@QIconViewItem@@UAEX_N@Z 0044f85a f   qt-mt323:qt-mt323.dll
 0001:0004e860       ?setSelected@QIconViewItem@@UAEX_N0@Z 0044f860 f   qt-mt323:qt-mt323.dll
 0001:0004e866       ?setSelected@QIconViewItem@@UAEX_N@Z 0044f866 f   qt-mt323:qt-mt323.dll
 0001:0004e86c       ?key@QIconViewItem@@UBE?AVQString@@XZ 0044f86c f   qt-mt323:qt-mt323.dll
 0001:0004e872       ?picture@QIconViewItem@@UBEPAVQPicture@@XZ 0044f872 f   qt-mt323:qt-mt323.dll
 0001:0004e878       ?pixmap@QIconViewItem@@UBEPAVQPixmap@@XZ 0044f878 f   qt-mt323:qt-mt323.dll
 0001:0004e87e       ?text@QIconViewItem@@UBE?AVQString@@XZ 0044f87e f   qt-mt323:qt-mt323.dll
 0001:0004e884       ?setDropEnabled@QIconViewItem@@UAEX_N@Z 0044f884 f   qt-mt323:qt-mt323.dll
 0001:0004e88a       ?setDragEnabled@QIconViewItem@@UAEX_N@Z 0044f88a f   qt-mt323:qt-mt323.dll
 0001:0004e890       ?setRenameEnabled@QIconViewItem@@UAEX_N@Z 0044f890 f   qt-mt323:qt-mt323.dll
 0001:0004e896       ?resizeEvent@QWidget@@MAEXPAVQResizeEvent@@@Z 0044f896 f   qt-mt323:qt-mt323.dll
 0001:0004e89c       ?qt_property@QWidget@@UAE_NHHPAVQVariant@@@Z 0044f89c f   qt-mt323:qt-mt323.dll
 0001:0004e8a2       ?qt_emit@QWidget@@UAE_NHPAUQUObject@@@Z 0044f8a2 f   qt-mt323:qt-mt323.dll
 0001:0004e8a8       ?qt_invoke@QWidget@@UAE_NHPAUQUObject@@@Z 0044f8a8 f   qt-mt323:qt-mt323.dll
 0001:0004e8ae       ?qt_cast@QWidget@@UAEPAXPBD@Z 0044f8ae f   qt-mt323:qt-mt323.dll
 0001:0004e8b4       ?className@QWidget@@UBEPBDXZ 0044f8b4 f   qt-mt323:qt-mt323.dll
 0001:0004e8ba       ?metaObject@QWidget@@UBEPAVQMetaObject@@XZ 0044f8ba f   qt-mt323:qt-mt323.dll
 0001:0004e8c0       ?resizeEvent@QFrame@@MAEXPAVQResizeEvent@@@Z 0044f8c0 f   qt-mt323:qt-mt323.dll
 0001:0004e8c6       ?sizeHint@QFrame@@UBE?AVQSize@@XZ 0044f8c6 f   qt-mt323:qt-mt323.dll
 0001:0004e8cc       ?qt_property@QFrame@@UAE_NHHPAVQVariant@@@Z 0044f8cc f   qt-mt323:qt-mt323.dll
 0001:0004e8d2       ?qt_emit@QFrame@@UAE_NHPAUQUObject@@@Z 0044f8d2 f   qt-mt323:qt-mt323.dll
 0001:0004e8d8       ?qt_invoke@QFrame@@UAE_NHPAUQUObject@@@Z 0044f8d8 f   qt-mt323:qt-mt323.dll
 0001:0004e8de       ?qt_cast@QFrame@@UAEPAXPBD@Z 0044f8de f   qt-mt323:qt-mt323.dll
 0001:0004e8e4       ?className@QFrame@@UBEPBDXZ 0044f8e4 f   qt-mt323:qt-mt323.dll
 0001:0004e8ea       ?metaObject@QFrame@@UBEPAVQMetaObject@@XZ 0044f8ea f   qt-mt323:qt-mt323.dll
 0001:0004e8f0       ?show@QMainWindow@@UAEXXZ  0044f8f0 f   qt-mt323:qt-mt323.dll
 0001:0004e8f6       ?setMainWidget@QApplication@@UAEXPAVQWidget@@@Z 0044f8f6 f   qt-mt323:qt-mt323.dll
 0001:0004e8fc       ?setText@QListBoxItem@@MAEXABVQString@@@Z 0044f8fc f   qt-mt323:qt-mt323.dll
 0001:0004e902       ?paint@QListBoxText@@MAEXPAVQPainter@@@Z 0044f902 f   qt-mt323:qt-mt323.dll
 0001:0004e908       ?rtti@QListBoxText@@UBEHXZ 0044f908 f   qt-mt323:qt-mt323.dll
 0001:0004e90e       ?width@QListBoxText@@UBEHPBVQListBox@@@Z 0044f90e f   qt-mt323:qt-mt323.dll
 0001:0004e914       ?height@QListBoxText@@UBEHPBVQListBox@@@Z 0044f914 f   qt-mt323:qt-mt323.dll
 0001:0004e91a       ?pixmap@QListBoxItem@@UBEPBVQPixmap@@XZ 0044f91a f   qt-mt323:qt-mt323.dll
 0001:0004e920       ?text@QListBoxItem@@UBE?AVQString@@XZ 0044f920 f   qt-mt323:qt-mt323.dll
 0001:0004e926       ?write@QGDict@@MBEAAVQDataStream@@AAV2@PAX@Z 0044f926 f   qt-mt323:qt-mt323.dll
 0001:0004e92c       ?read@QGDict@@MAEAAVQDataStream@@AAV2@AAPAX@Z 0044f92c f   qt-mt323:qt-mt323.dll
 0001:0004e932       ?columnClicked@QTable@@MAEXH@Z 0044f932 f   qt-mt323:qt-mt323.dll
 0001:0004e938       ?rowIndexChanged@QTable@@MAEXHHH@Z 0044f938 f   qt-mt323:qt-mt323.dll
 0001:0004e93e       ?columnIndexChanged@QTable@@MAEXHHH@Z 0044f93e f   qt-mt323:qt-mt323.dll
 0001:0004e944       ?rowHeightChanged@QTable@@MAEXH@Z 0044f944 f   qt-mt323:qt-mt323.dll
 0001:0004e94a       ?columnWidthChanged@QTable@@MAEXH@Z 0044f94a f   qt-mt323:qt-mt323.dll
 0001:0004e950       ?insertWidget@QTable@@MAEXHHPAVQWidget@@@Z 0044f950 f   qt-mt323:qt-mt323.dll
 0001:0004e956       ?resizeData@QTable@@MAEXH@Z 0044f956 f   qt-mt323:qt-mt323.dll
 0001:0004e95c       ?endEdit@QTable@@MAEXHH_N0@Z 0044f95c f   qt-mt323:qt-mt323.dll
 0001:0004e962       ?beginEdit@QTable@@MAEPAVQWidget@@HH_N@Z 0044f962 f   qt-mt323:qt-mt323.dll
 0001:0004e968       ?setCellContentFromEditor@QTable@@MAEXHH@Z 0044f968 f   qt-mt323:qt-mt323.dll
 0001:0004e96e       ?createEditor@QTable@@MBEPAVQWidget@@HH_N@Z 0044f96e f   qt-mt323:qt-mt323.dll
 0001:0004e974       ?activateNextCell@QTable@@MAEXXZ 0044f974 f   qt-mt323:qt-mt323.dll
 0001:0004e97a       ?paintEmptyArea@QTable@@MAEXPAVQPainter@@HHHH@Z 0044f97a f   qt-mt323:qt-mt323.dll
 0001:0004e980       ?startDrag@QTable@@MAEXXZ  0044f980 f   qt-mt323:qt-mt323.dll
 0001:0004e986       ?dragObject@QTable@@MAEPAVQDragObject@@XZ 0044f986 f   qt-mt323:qt-mt323.dll
 0001:0004e98c       ?editCell@QTable@@UAEXHH_N@Z 0044f98c f   qt-mt323:qt-mt323.dll
 0001:0004e992       ?removeColumns@QTable@@UAEXABV?$QMemArray@H@@@Z 0044f992 f   qt-mt323:qt-mt323.dll
 0001:0004e998       ?removeColumn@QTable@@UAEXH@Z 0044f998 f   qt-mt323:qt-mt323.dll
 0001:0004e99e       ?removeRows@QTable@@UAEXABV?$QMemArray@H@@@Z 0044f99e f   qt-mt323:qt-mt323.dll
 0001:0004e9a4       ?removeRow@QTable@@UAEXH@Z 0044f9a4 f   qt-mt323:qt-mt323.dll
 0001:0004e9aa       ?insertColumns@QTable@@UAEXHH@Z 0044f9aa f   qt-mt323:qt-mt323.dll
 0001:0004e9b0       ?insertRows@QTable@@UAEXHH@Z 0044f9b0 f   qt-mt323:qt-mt323.dll
 0001:0004e9b6       ?setDragEnabled@QTable@@UAEX_N@Z 0044f9b6 f   qt-mt323:qt-mt323.dll
 0001:0004e9bc       ?setColumnReadOnly@QTable@@UAEXH_N@Z 0044f9bc f   qt-mt323:qt-mt323.dll
 0001:0004e9c2       ?setRowReadOnly@QTable@@UAEXH_N@Z 0044f9c2 f   qt-mt323:qt-mt323.dll
 0001:0004e9c8       ?setReadOnly@QTable@@UAEX_N@Z 0044f9c8 f   qt-mt323:qt-mt323.dll
 0001:0004e9ce       ?setRowMovingEnabled@QTable@@UAEX_N@Z 0044f9ce f   qt-mt323:qt-mt323.dll
 0001:0004e9d4       ?setColumnMovingEnabled@QTable@@UAEX_N@Z 0044f9d4 f   qt-mt323:qt-mt323.dll
 0001:0004e9da       ?setCurrentCell@QTable@@UAEXHH@Z 0044f9da f   qt-mt323:qt-mt323.dll
 0001:0004e9e0       ?setTopMargin@QTable@@UAEXH@Z 0044f9e0 f   qt-mt323:qt-mt323.dll
 0001:0004e9e6       ?setLeftMargin@QTable@@UAEXH@Z 0044f9e6 f   qt-mt323:qt-mt323.dll
 0001:0004e9ec       ?swapCells@QTable@@UAEXHHHH@Z 0044f9ec f   qt-mt323:qt-mt323.dll
 0001:0004e9f2       ?swapColumns@QTable@@UAEXHH_N@Z 0044f9f2 f   qt-mt323:qt-mt323.dll
 0001:0004e9f8       ?swapRows@QTable@@UAEXHH_N@Z 0044f9f8 f   qt-mt323:qt-mt323.dll
 0001:0004e9fe       ?setSorting@QTable@@UAEX_N@Z 0044f9fe f   qt-mt323:qt-mt323.dll
 0001:0004ea04       ?setRowStretchable@QTable@@UAEXH_N@Z 0044fa04 f   qt-mt323:qt-mt323.dll
 0001:0004ea0a       ?setColumnStretchable@QTable@@UAEXH_N@Z 0044fa0a f   qt-mt323:qt-mt323.dll
 0001:0004ea10       ?adjustRow@QTable@@UAEXH@Z 0044fa10 f   qt-mt323:qt-mt323.dll
 0001:0004ea16       ?adjustColumn@QTable@@UAEXH@Z 0044fa16 f   qt-mt323:qt-mt323.dll
 0001:0004ea1c       ?setRowHeight@QTable@@UAEXHH@Z 0044fa1c f   qt-mt323:qt-mt323.dll
 0001:0004ea22       ?setColumnWidth@QTable@@UAEXHH@Z 0044fa22 f   qt-mt323:qt-mt323.dll
 0001:0004ea28       ?showColumn@QTable@@UAEXH@Z 0044fa28 f   qt-mt323:qt-mt323.dll
 0001:0004ea2e       ?showRow@QTable@@UAEXH@Z   0044fa2e f   qt-mt323:qt-mt323.dll
 0001:0004ea34       ?hideColumn@QTable@@UAEXH@Z 0044fa34 f   qt-mt323:qt-mt323.dll
 0001:0004ea3a       ?hideRow@QTable@@UAEXH@Z   0044fa3a f   qt-mt323:qt-mt323.dll
 0001:0004ea40       ?setShowGrid@QTable@@UAEX_N@Z 0044fa40 f   qt-mt323:qt-mt323.dll
 0001:0004ea46       ?setNumCols@QTable@@UAEXH@Z 0044fa46 f   qt-mt323:qt-mt323.dll
 0001:0004ea4c       ?setNumRows@QTable@@UAEXH@Z 0044fa4c f   qt-mt323:qt-mt323.dll
 0001:0004ea52       ?setFocusStyle@QTable@@UAEXW4FocusStyle@1@@Z 0044fa52 f   qt-mt323:qt-mt323.dll
 0001:0004ea58       ?paintFocus@QTable@@UAEXPAVQPainter@@ABVQRect@@@Z 0044fa58 f   qt-mt323:qt-mt323.dll
 0001:0004ea5e       ?paintCell@QTable@@UAEXPAVQPainter@@HHABVQRect@@_N@Z 0044fa5e f   qt-mt323:qt-mt323.dll
 0001:0004ea64       ?cellRect@QTable@@UBE?AVQRect@@HH@Z 0044fa64 f   qt-mt323:qt-mt323.dll
 0001:0004ea6a       ?clearCellWidget@QTable@@UAEXHH@Z 0044fa6a f   qt-mt323:qt-mt323.dll
 0001:0004ea70       ?cellWidget@QTable@@UBEPAVQWidget@@HH@Z 0044fa70 f   qt-mt323:qt-mt323.dll
 0001:0004ea76       ?setCellWidget@QTable@@UAEXHHPAVQWidget@@@Z 0044fa76 f   qt-mt323:qt-mt323.dll
 0001:0004ea7c       ?takeItem@QTable@@UAEXPAVQTableItem@@@Z 0044fa7c f   qt-mt323:qt-mt323.dll
 0001:0004ea82       ?sortColumn@QTable@@UAEXH_N0@Z 0044fa82 f   qt-mt323:qt-mt323.dll
 0001:0004ea88       ?currentSelection@QTable@@UBEHXZ 0044fa88 f   qt-mt323:qt-mt323.dll
 0001:0004ea8e       ?removeSelection@QTable@@UAEXABVQTableSelection@@@Z 0044fa8e f   qt-mt323:qt-mt323.dll
 0001:0004ea94       ?removeSelection@QTable@@UAEXH@Z 0044fa94 f   qt-mt323:qt-mt323.dll
 0001:0004ea9a       ?addSelection@QTable@@UAEHABVQTableSelection@@@Z 0044fa9a f   qt-mt323:qt-mt323.dll
 0001:0004eaa0       ?numCols@QTable@@UBEHXZ    0044faa0 f   qt-mt323:qt-mt323.dll
 0001:0004eaa6       ?numRows@QTable@@UBEHXZ    0044faa6 f   qt-mt323:qt-mt323.dll
 0001:0004eaac       ?rowAt@QTable@@UBEHH@Z     0044faac f   qt-mt323:qt-mt323.dll
 0001:0004eab2       ?columnAt@QTable@@UBEHH@Z  0044fab2 f   qt-mt323:qt-mt323.dll
 0001:0004eab8       ?rowPos@QTable@@UBEHH@Z    0044fab8 f   qt-mt323:qt-mt323.dll
 0001:0004eabe       ?columnPos@QTable@@UBEHH@Z 0044fabe f   qt-mt323:qt-mt323.dll
 0001:0004eac4       ?rowHeight@QTable@@UBEHH@Z 0044fac4 f   qt-mt323:qt-mt323.dll
 0001:0004eaca       ?columnWidth@QTable@@UBEHH@Z 0044faca f   qt-mt323:qt-mt323.dll
 0001:0004ead0       ?cellGeometry@QTable@@UBE?AVQRect@@HH@Z 0044fad0 f   qt-mt323:qt-mt323.dll
 0001:0004ead6       ?clearCell@QTable@@UAEXHH@Z 0044fad6 f   qt-mt323:qt-mt323.dll
 0001:0004eadc       ?pixmap@QTable@@UBE?AVQPixmap@@HH@Z 0044fadc f   qt-mt323:qt-mt323.dll
 0001:0004eae2       ?text@QTable@@UBE?AVQString@@HH@Z 0044fae2 f   qt-mt323:qt-mt323.dll
 0001:0004eae8       ?item@QTable@@UBEPAVQTableItem@@HH@Z 0044fae8 f   qt-mt323:qt-mt323.dll
 0001:0004eaee       ?setPixmap@QTable@@UAEXHHABVQPixmap@@@Z 0044faee f   qt-mt323:qt-mt323.dll
 0001:0004eaf4       ?setText@QTable@@UAEXHHABVQString@@@Z 0044faf4 f   qt-mt323:qt-mt323.dll
 0001:0004eafa       ?setItem@QTable@@UAEXHHPAVQTableItem@@@Z 0044fafa f   qt-mt323:qt-mt323.dll
 0001:0004eb00       ?setSelectionMode@QTable@@UAEXW4SelectionMode@1@@Z 0044fb00 f   qt-mt323:qt-mt323.dll
 0001:0004eb06       ?viewportResizeEvent@QTable@@MAEXPAVQResizeEvent@@@Z 0044fb06 f   qt-mt323:qt-mt323.dll
 0001:0004eb0c       ?contentsContextMenuEvent@QTable@@MAEXPAVQContextMenuEvent@@@Z 0044fb0c f   qt-mt323:qt-mt323.dll
 0001:0004eb12       ?contentsDropEvent@QTable@@MAEXPAVQDropEvent@@@Z 0044fb12 f   qt-mt323:qt-mt323.dll
 0001:0004eb18       ?contentsDragLeaveEvent@QTable@@MAEXPAVQDragLeaveEvent@@@Z 0044fb18 f   qt-mt323:qt-mt323.dll
 0001:0004eb1e       ?contentsDragMoveEvent@QTable@@MAEXPAVQDragMoveEvent@@@Z 0044fb1e f   qt-mt323:qt-mt323.dll
 0001:0004eb24       ?contentsDragEnterEvent@QTable@@MAEXPAVQDragEnterEvent@@@Z 0044fb24 f   qt-mt323:qt-mt323.dll
 0001:0004eb2a       ?contentsMouseMoveEvent@QTable@@MAEXPAVQMouseEvent@@@Z 0044fb2a f   qt-mt323:qt-mt323.dll
 0001:0004eb30       ?contentsMouseDoubleClickEvent@QTable@@MAEXPAVQMouseEvent@@@Z 0044fb30 f   qt-mt323:qt-mt323.dll
 0001:0004eb36       ?contentsMouseReleaseEvent@QTable@@MAEXPAVQMouseEvent@@@Z 0044fb36 f   qt-mt323:qt-mt323.dll
 0001:0004eb3c       ?contentsMousePressEvent@QTable@@MAEXPAVQMouseEvent@@@Z 0044fb3c f   qt-mt323:qt-mt323.dll
 0001:0004eb42       ?drawContents@QTable@@MAEXPAVQPainter@@HHHH@Z 0044fb42 f   qt-mt323:qt-mt323.dll
 0001:0004eb48       ?drawContents@QTable@@EAEXPAVQPainter@@@Z 0044fb48 f   qt-mt323:qt-mt323.dll
 0001:0004eb4e       ?windowActivationChange@QTable@@MAEX_N@Z 0044fb4e f   qt-mt323:qt-mt323.dll
 0001:0004eb54       ?styleChange@QScrollView@@UAEXAAVQStyle@@@Z 0044fb54 f   qt-mt323:qt-mt323.dll
 0001:0004eb5a       ?showEvent@QTable@@MAEXPAVQShowEvent@@@Z 0044fb5a f   qt-mt323:qt-mt323.dll
 0001:0004eb60       ?paintEvent@QTable@@MAEXPAVQPaintEvent@@@Z 0044fb60 f   qt-mt323:qt-mt323.dll
 0001:0004eb66       ?focusOutEvent@QTable@@MAEXPAVQFocusEvent@@@Z 0044fb66 f   qt-mt323:qt-mt323.dll
 0001:0004eb6c       ?focusInEvent@QTable@@MAEXPAVQFocusEvent@@@Z 0044fb6c f   qt-mt323:qt-mt323.dll
 0001:0004eb72       ?keyPressEvent@QTable@@MAEXPAVQKeyEvent@@@Z 0044fb72 f   qt-mt323:qt-mt323.dll
 0001:0004eb78       ?sizeHint@QTable@@UBE?AVQSize@@XZ 0044fb78 f   qt-mt323:qt-mt323.dll
 0001:0004eb7e       ?setEnabled@QTable@@UAEX_N@Z 0044fb7e f   qt-mt323:qt-mt323.dll
 0001:0004eb84       ?eventFilter@QTable@@UAE_NPAVQObject@@PAVQEvent@@@Z 0044fb84 f   qt-mt323:qt-mt323.dll
 0001:0004eb8a       ?setRubberband@QSplitter@@MAEXH@Z 0044fb8a f   qt-mt323:qt-mt323.dll
 0001:0004eb90       ?drawSplitter@QSplitter@@MAEXPAVQPainter@@HHHH@Z 0044fb90 f   qt-mt323:qt-mt323.dll
 0001:0004eb96       ?setOpaqueResize@QSplitter@@UAEX_N@Z 0044fb96 f   qt-mt323:qt-mt323.dll
 0001:0004eb9c       ?setResizeMode@QSplitter@@UAEXPAVQWidget@@W4ResizeMode@1@@Z 0044fb9c f   qt-mt323:qt-mt323.dll
 0001:0004eba2       ?setOrientation@QSplitter@@UAEXW4Orientation@Qt@@@Z 0044fba2 f   qt-mt323:qt-mt323.dll
 0001:0004eba8       ?styleChange@QSplitter@@MAEXAAVQStyle@@@Z 0044fba8 f   qt-mt323:qt-mt323.dll
 0001:0004ebae       ?resizeEvent@QSplitter@@MAEXPAVQResizeEvent@@@Z 0044fbae f   qt-mt323:qt-mt323.dll
 0001:0004ebb4       ?minimumSizeHint@QSplitter@@UBE?AVQSize@@XZ 0044fbb4 f   qt-mt323:qt-mt323.dll
 0001:0004ebba       ?sizeHint@QSplitter@@UBE?AVQSize@@XZ 0044fbba f   qt-mt323:qt-mt323.dll
 0001:0004ebc0       ?childEvent@QSplitter@@MAEXPAVQChildEvent@@@Z 0044fbc0 f   qt-mt323:qt-mt323.dll
 0001:0004ebc6       ?event@QSplitter@@MAE_NPAVQEvent@@@Z 0044fbc6 f   qt-mt323:qt-mt323.dll
 0001:0004ebcc       ?removePage@QTabWidget@@UAEXPAVQWidget@@@Z 0044fbcc f   qt-mt323:qt-mt323.dll
 0001:0004ebd2       ?showPage@QTabWidget@@UAEXPAVQWidget@@@Z 0044fbd2 f   qt-mt323:qt-mt323.dll
 0001:0004ebd8       ?insertTab@QTabWidget@@UAEXPAVQWidget@@ABVQString@@H@Z 0044fbd8 f   qt-mt323:qt-mt323.dll
 0001:0004ebde       ?insertTab@QTabWidget@@UAEXPAVQWidget@@ABVQIconSet@@ABVQString@@H@Z 0044fbde f   qt-mt323:qt-mt323.dll
 0001:0004ebe4       ?insertTab@QTabWidget@@UAEXPAVQWidget@@PAVQTab@@H@Z 0044fbe4 f   qt-mt323:qt-mt323.dll
 0001:0004ebea       ?addTab@QTabWidget@@UAEXPAVQWidget@@ABVQString@@@Z 0044fbea f   qt-mt323:qt-mt323.dll
 0001:0004ebf0       ?addTab@QTabWidget@@UAEXPAVQWidget@@ABVQIconSet@@ABVQString@@@Z 0044fbf0 f   qt-mt323:qt-mt323.dll
 0001:0004ebf6       ?addTab@QTabWidget@@UAEXPAVQWidget@@PAVQTab@@@Z 0044fbf6 f   qt-mt323:qt-mt323.dll
 0001:0004ebfc       ?styleChange@QTabWidget@@MAEXAAVQStyle@@@Z 0044fbfc f   qt-mt323:qt-mt323.dll
 0001:0004ec02       ?updateMask@QTabWidget@@MAEXXZ 0044fc02 f   qt-mt323:qt-mt323.dll
 0001:0004ec08       ?showEvent@QTabWidget@@MAEXPAVQShowEvent@@@Z 0044fc08 f   qt-mt323:qt-mt323.dll
 0001:0004ec0e       ?resizeEvent@QTabWidget@@MAEXPAVQResizeEvent@@@Z 0044fc0e f   qt-mt323:qt-mt323.dll
 0001:0004ec14       ?minimumSizeHint@QTabWidget@@UBE?AVQSize@@XZ 0044fc14 f   qt-mt323:qt-mt323.dll
 0001:0004ec1a       ?sizeHint@QTabWidget@@UBE?AVQSize@@XZ 0044fc1a f   qt-mt323:qt-mt323.dll
 0001:0004ec20       ?eventFilter@QTabWidget@@MAE_NPAVQObject@@PAVQEvent@@@Z 0044fc20 f   qt-mt323:qt-mt323.dll
 0001:0004ec26       ?qt_property@QTabWidget@@UAE_NHHPAVQVariant@@@Z 0044fc26 f   qt-mt323:qt-mt323.dll
 0001:0004ec2c       ?qt_emit@QTabWidget@@UAE_NHPAUQUObject@@@Z 0044fc2c f   qt-mt323:qt-mt323.dll
 0001:0004ec32       ?qt_invoke@QTabWidget@@UAE_NHPAUQUObject@@@Z 0044fc32 f   qt-mt323:qt-mt323.dll
 0001:0004ec38       ?qt_cast@QTabWidget@@UAEPAXPBD@Z 0044fc38 f   qt-mt323:qt-mt323.dll
 0001:0004ec3e       ?className@QTabWidget@@UBEPBDXZ 0044fc3e f   qt-mt323:qt-mt323.dll
 0001:0004ec44       ?metaObject@QTabWidget@@UBEPAVQMetaObject@@XZ 0044fc44 f   qt-mt323:qt-mt323.dll
 0001:0004ec4a       ?initDragEnter@QIconView@@EAEXPAVQDropEvent@@@Z 0044fc4a f   qt-mt323:qt-mt323.dll
 0001:0004ec50       ?drawDragShapes@QIconView@@EAEXABVQPoint@@@Z 0044fc50 f   qt-mt323:qt-mt323.dll
 0001:0004ec56       ?drawBackground@QIconView@@MAEXPAVQPainter@@ABVQRect@@@Z 0044fc56 f   qt-mt323:qt-mt323.dll
 0001:0004ec5c       ?insertInGrid@QIconView@@MAEXPAVQIconViewItem@@@Z 0044fc5c f   qt-mt323:qt-mt323.dll
 0001:0004ec62       ?dragObject@QIconView@@MAEPAVQDragObject@@XZ 0044fc62 f   qt-mt323:qt-mt323.dll
 0001:0004ec68       ?drawRubber@QIconView@@MAEXPAVQPainter@@@Z 0044fc68 f   qt-mt323:qt-mt323.dll
 0001:0004ec6e       ?slotUpdate@QIconView@@MAEXXZ 0044fc6e f   qt-mt323:qt-mt323.dll
 0001:0004ec74       ?adjustItems@QIconView@@MAEXXZ 0044fc74 f   qt-mt323:qt-mt323.dll
 0001:0004ec7a       ?doAutoScroll@QIconView@@MAEXXZ 0044fc7a f   qt-mt323:qt-mt323.dll
 0001:0004ec80       ?updateContents@QIconView@@UAEXXZ 0044fc80 f   qt-mt323:qt-mt323.dll
 0001:0004ec86       ?arrangeItemsInGrid@QIconView@@UAEXABVQSize@@_N@Z 0044fc86 f   qt-mt323:qt-mt323.dll
 0001:0004ec8c       ?arrangeItemsInGrid@QIconView@@UAEX_N@Z 0044fc8c f   qt-mt323:qt-mt323.dll
 0001:0004ec92       ?sort@QIconView@@UAEX_N@Z  0044fc92 f   qt-mt323:qt-mt323.dll
 0001:0004ec98       ?setWordWrapIconText@QIconView@@UAEX_N@Z 0044fc98 f   qt-mt323:qt-mt323.dll
 0001:0004ec9e       ?setItemsMovable@QIconView@@UAEX_N@Z 0044fc9e f   qt-mt323:qt-mt323.dll
 0001:0004eca4       ?setShowToolTips@QIconView@@UAEX_N@Z 0044fca4 f   qt-mt323:qt-mt323.dll
 0001:0004ecaa       ?setAutoArrange@QIconView@@UAEX_N@Z 0044fcaa f   qt-mt323:qt-mt323.dll
 0001:0004ecb0       ?setMaxItemTextLength@QIconView@@UAEXH@Z 0044fcb0 f   qt-mt323:qt-mt323.dll
 0001:0004ecb6       ?setMaxItemWidth@QIconView@@UAEXH@Z 0044fcb6 f   qt-mt323:qt-mt323.dll
 0001:0004ecbc       ?setResizeMode@QIconView@@UAEXW4ResizeMode@1@@Z 0044fcbc f   qt-mt323:qt-mt323.dll
 0001:0004ecc2       ?setArrangement@QIconView@@UAEXW4Arrangement@1@@Z 0044fcc2 f   qt-mt323:qt-mt323.dll
 0001:0004ecc8       ?setItemTextBackground@QIconView@@UAEXABVQBrush@@@Z 0044fcc8 f   qt-mt323:qt-mt323.dll
 0001:0004ecce       ?setItemTextPos@QIconView@@UAEXW4ItemTextPos@1@@Z 0044fcce f   qt-mt323:qt-mt323.dll
 0001:0004ecd4       ?setSpacing@QIconView@@UAEXH@Z 0044fcd4 f   qt-mt323:qt-mt323.dll
 0001:0004ecda       ?setGridY@QIconView@@UAEXH@Z 0044fcda f   qt-mt323:qt-mt323.dll
 0001:0004ece0       ?setGridX@QIconView@@UAEXH@Z 0044fce0 f   qt-mt323:qt-mt323.dll
 0001:0004ece6       ?clear@QIconView@@UAEXXZ   0044fce6 f   qt-mt323:qt-mt323.dll
 0001:0004ecec       ?repaintItem@QIconView@@UAEXPAVQIconViewItem@@@Z 0044fcec f   qt-mt323:qt-mt323.dll
 0001:0004ecf2       ?invertSelection@QIconView@@UAEXXZ 0044fcf2 f   qt-mt323:qt-mt323.dll
 0001:0004ecf8       ?clearSelection@QIconView@@UAEXXZ 0044fcf8 f   qt-mt323:qt-mt323.dll
 0001:0004ecfe       ?selectAll@QIconView@@UAEX_N@Z 0044fcfe f   qt-mt323:qt-mt323.dll
 0001:0004ed04       ?setSelectionMode@QIconView@@UAEXW4SelectionMode@1@@Z 0044fd04 f   qt-mt323:qt-mt323.dll
 0001:0004ed0a       ?setSelected@QIconView@@UAEXPAVQIconViewItem@@_N1@Z 0044fd0a f   qt-mt323:qt-mt323.dll
 0001:0004ed10       ?setCurrentItem@QIconView@@UAEXPAVQIconViewItem@@@Z 0044fd10 f   qt-mt323:qt-mt323.dll
 0001:0004ed16       ?takeItem@QIconView@@UAEXPAVQIconViewItem@@@Z 0044fd16 f   qt-mt323:qt-mt323.dll
 0001:0004ed1c       ?insertItem@QIconView@@UAEXPAVQIconViewItem@@0@Z 0044fd1c f   qt-mt323:qt-mt323.dll
 0001:0004ed22       ?contentsContextMenuEvent@QIconView@@MAEXPAVQContextMenuEvent@@@Z 0044fd22 f   qt-mt323:qt-mt323.dll
 0001:0004ed28       ?contentsDropEvent@QIconView@@MAEXPAVQDropEvent@@@Z 0044fd28 f   qt-mt323:qt-mt323.dll
 0001:0004ed2e       ?contentsDragLeaveEvent@QIconView@@MAEXPAVQDragLeaveEvent@@@Z 0044fd2e f   qt-mt323:qt-mt323.dll
 0001:0004ed34       ?contentsDragMoveEvent@QIconView@@MAEXPAVQDragMoveEvent@@@Z 0044fd34 f   qt-mt323:qt-mt323.dll
 0001:0004ed3a       ?contentsDragEnterEvent@QIconView@@MAEXPAVQDragEnterEvent@@@Z 0044fd3a f   qt-mt323:qt-mt323.dll
 0001:0004ed40       ?contentsMouseMoveEvent@QIconView@@MAEXPAVQMouseEvent@@@Z 0044fd40 f   qt-mt323:qt-mt323.dll
 0001:0004ed46       ?contentsMouseDoubleClickEvent@QIconView@@MAEXPAVQMouseEvent@@@Z 0044fd46 f   qt-mt323:qt-mt323.dll
 0001:0004ed4c       ?contentsMouseReleaseEvent@QIconView@@MAEXPAVQMouseEvent@@@Z 0044fd4c f   qt-mt323:qt-mt323.dll
 0001:0004ed52       ?contentsMousePressEvent@QIconView@@MAEXPAVQMouseEvent@@@Z 0044fd52 f   qt-mt323:qt-mt323.dll
 0001:0004ed58       ?drawContents@QIconView@@MAEXPAVQPainter@@HHHH@Z 0044fd58 f   qt-mt323:qt-mt323.dll
 0001:0004ed5e       ?setContentsPos@QIconView@@UAEXHH@Z 0044fd5e f   qt-mt323:qt-mt323.dll
 0001:0004ed64       ?drawContents@QIconView@@EAEXPAVQPainter@@@Z 0044fd64 f   qt-mt323:qt-mt323.dll
 0001:0004ed6a       ?windowActivationChange@QIconView@@MAEX_N@Z 0044fd6a f   qt-mt323:qt-mt323.dll
 0001:0004ed70       ?styleChange@QIconView@@MAEXAAVQStyle@@@Z 0044fd70 f   qt-mt323:qt-mt323.dll
 0001:0004ed76       ?showEvent@QIconView@@UAEXPAVQShowEvent@@@Z 0044fd76 f   qt-mt323:qt-mt323.dll
 0001:0004ed7c       ?resizeEvent@QIconView@@MAEXPAVQResizeEvent@@@Z 0044fd7c f   qt-mt323:qt-mt323.dll
 0001:0004ed82       ?enterEvent@QIconView@@MAEXPAVQEvent@@@Z 0044fd82 f   qt-mt323:qt-mt323.dll
 0001:0004ed88       ?focusOutEvent@QIconView@@MAEXPAVQFocusEvent@@@Z 0044fd88 f   qt-mt323:qt-mt323.dll
 0001:0004ed8e       ?focusInEvent@QIconView@@MAEXPAVQFocusEvent@@@Z 0044fd8e f   qt-mt323:qt-mt323.dll
 0001:0004ed94       ?keyPressEvent@QIconView@@MAEXPAVQKeyEvent@@@Z 0044fd94 f   qt-mt323:qt-mt323.dll
 0001:0004ed9a       ?minimumSizeHint@QIconView@@UBE?AVQSize@@XZ 0044fd9a f   qt-mt323:qt-mt323.dll
 0001:0004eda0       ?sizeHint@QIconView@@UBE?AVQSize@@XZ 0044fda0 f   qt-mt323:qt-mt323.dll
 0001:0004eda6       ?setFont@QIconView@@UAEXABVQFont@@@Z 0044fda6 f   qt-mt323:qt-mt323.dll
 0001:0004edac       ?setPalette@QIconView@@UAEXABVQPalette@@@Z 0044fdac f   qt-mt323:qt-mt323.dll
 0001:0004edb2       ?eventFilter@QIconView@@UAE_NPAVQObject@@PAVQEvent@@@Z 0044fdb2 f   qt-mt323:qt-mt323.dll
 0001:0004edb8       ?qt_property@QIconView@@UAE_NHHPAVQVariant@@@Z 0044fdb8 f   qt-mt323:qt-mt323.dll
 0001:0004edbe       ?qt_emit@QIconView@@UAE_NHPAUQUObject@@@Z 0044fdbe f   qt-mt323:qt-mt323.dll
 0001:0004edc4       ?qt_invoke@QIconView@@UAE_NHPAUQUObject@@@Z 0044fdc4 f   qt-mt323:qt-mt323.dll
 0001:0004edca       ?qt_cast@QIconView@@UAEPAXPBD@Z 0044fdca f   qt-mt323:qt-mt323.dll
 0001:0004edd0       ?className@QIconView@@UBEPBDXZ 0044fdd0 f   qt-mt323:qt-mt323.dll
 0001:0004edd6       ?metaObject@QIconView@@UBEPAVQMetaObject@@XZ 0044fdd6 f   qt-mt323:qt-mt323.dll
 0001:0004eddc       ?setNum@QLabel@@UAEXH@Z    0044fddc f   qt-mt323:qt-mt323.dll
 0001:0004ede2       ?setNum@QLabel@@UAEXN@Z    0044fde2 f   qt-mt323:qt-mt323.dll
 0001:0004ede8       ?setMovie@QLabel@@UAEXABVQMovie@@@Z 0044fde8 f   qt-mt323:qt-mt323.dll
 0001:0004edee       ?setPicture@QLabel@@UAEXABVQPicture@@@Z 0044fdee f   qt-mt323:qt-mt323.dll
 0001:0004edf4       ?setPixmap@QLabel@@UAEXABVQPixmap@@@Z 0044fdf4 f   qt-mt323:qt-mt323.dll
 0001:0004edfa       ?setText@QLabel@@UAEXABVQString@@@Z 0044fdfa f   qt-mt323:qt-mt323.dll
 0001:0004ee00       ?setBuddy@QLabel@@UAEXPAVQWidget@@@Z 0044fe00 f   qt-mt323:qt-mt323.dll
 0001:0004ee06       ?setAutoResize@QLabel@@UAEX_N@Z 0044fe06 f   qt-mt323:qt-mt323.dll
 0001:0004ee0c       ?setAlignment@QLabel@@UAEXH@Z 0044fe0c f   qt-mt323:qt-mt323.dll
 0001:0004ee12       ?drawContents@QLabel@@MAEXPAVQPainter@@@Z 0044fe12 f   qt-mt323:qt-mt323.dll
 0001:0004ee18       ?fontChange@QLabel@@MAEXABVQFont@@@Z 0044fe18 f   qt-mt323:qt-mt323.dll
 0001:0004ee1e       ?resizeEvent@QLabel@@MAEXPAVQResizeEvent@@@Z 0044fe1e f   qt-mt323:qt-mt323.dll
 0001:0004ee24       ?heightForWidth@QLabel@@UBEHH@Z 0044fe24 f   qt-mt323:qt-mt323.dll
 0001:0004ee2a       ?minimumSizeHint@QLabel@@UBE?AVQSize@@XZ 0044fe2a f   qt-mt323:qt-mt323.dll
 0001:0004ee30       ?sizeHint@QLabel@@UBE?AVQSize@@XZ 0044fe30 f   qt-mt323:qt-mt323.dll
 0001:0004ee36       ?setFont@QLabel@@UAEXABVQFont@@@Z 0044fe36 f   qt-mt323:qt-mt323.dll
 0001:0004ee3c       ?qt_property@QLabel@@UAE_NHHPAVQVariant@@@Z 0044fe3c f   qt-mt323:qt-mt323.dll
 0001:0004ee42       ?qt_emit@QLabel@@UAE_NHPAUQUObject@@@Z 0044fe42 f   qt-mt323:qt-mt323.dll
 0001:0004ee48       ?qt_invoke@QLabel@@UAE_NHPAUQUObject@@@Z 0044fe48 f   qt-mt323:qt-mt323.dll
 0001:0004ee4e       ?qt_cast@QLabel@@UAEPAXPBD@Z 0044fe4e f   qt-mt323:qt-mt323.dll
 0001:0004ee54       ?className@QLabel@@UBEPBDXZ 0044fe54 f   qt-mt323:qt-mt323.dll
 0001:0004ee5a       ?metaObject@QLabel@@UBEPAVQMetaObject@@XZ 0044fe5a f   qt-mt323:qt-mt323.dll
 0001:0004ee60       ?drawButtonLabel@QCheckBox@@MAEXPAVQPainter@@@Z 0044fe60 f   qt-mt323:qt-mt323.dll
 0001:0004ee66       ?drawButton@QCheckBox@@MAEXPAVQPainter@@@Z 0044fe66 f   qt-mt323:qt-mt323.dll
 0001:0004ee6c       ?hitButton@QCheckBox@@MBE_NABVQPoint@@@Z 0044fe6c f   qt-mt323:qt-mt323.dll
 0001:0004ee72       ?updateMask@QCheckBox@@MAEXXZ 0044fe72 f   qt-mt323:qt-mt323.dll
 0001:0004ee78       ?resizeEvent@QCheckBox@@MAEXPAVQResizeEvent@@@Z 0044fe78 f   qt-mt323:qt-mt323.dll
 0001:0004ee7e       ?sizeHint@QCheckBox@@UBE?AVQSize@@XZ 0044fe7e f   qt-mt323:qt-mt323.dll
 0001:0004ee84       ?qt_property@QCheckBox@@UAE_NHHPAVQVariant@@@Z 0044fe84 f   qt-mt323:qt-mt323.dll
 0001:0004ee8a       ?qt_emit@QCheckBox@@UAE_NHPAUQUObject@@@Z 0044fe8a f   qt-mt323:qt-mt323.dll
 0001:0004ee90       ?qt_invoke@QCheckBox@@UAE_NHPAUQUObject@@@Z 0044fe90 f   qt-mt323:qt-mt323.dll
 0001:0004ee96       ?qt_cast@QCheckBox@@UAEPAXPBD@Z 0044fe96 f   qt-mt323:qt-mt323.dll
 0001:0004ee9c       ?className@QCheckBox@@UBEPBDXZ 0044fe9c f   qt-mt323:qt-mt323.dll
 0001:0004eea2       ?metaObject@QCheckBox@@UBEPAVQMetaObject@@XZ 0044fea2 f   qt-mt323:qt-mt323.dll
 0001:0004eea8       ?qt_property@QListView@@UAE_NHHPAVQVariant@@@Z 0044fea8 f   qt-mt323:qt-mt323.dll
 0001:0004eeae       ?qt_emit@QListView@@UAE_NHPAUQUObject@@@Z 0044feae f   qt-mt323:qt-mt323.dll
 0001:0004eeb4       ?qt_invoke@QListView@@UAE_NHPAUQUObject@@@Z 0044feb4 f   qt-mt323:qt-mt323.dll
 0001:0004eeba       ?qt_cast@QListView@@UAEPAXPBD@Z 0044feba f   qt-mt323:qt-mt323.dll
 0001:0004eec0       ?className@QListView@@UBEPBDXZ 0044fec0 f   qt-mt323:qt-mt323.dll
 0001:0004eec6       ?metaObject@QListView@@UBEPAVQMetaObject@@XZ 0044fec6 f   qt-mt323:qt-mt323.dll
 0001:0004eecc       ?setOrientation@QDockWindow@@UAEXW4Orientation@Qt@@@Z 0044fecc f   qt-mt323:qt-mt323.dll
 0001:0004eed2       ?dock@QDockWindow@@UAEXXZ  0044fed2 f   qt-mt323:qt-mt323.dll
 0001:0004eed8       ?undock@QDockWindow@@UAEXPAVQWidget@@@Z 0044fed8 f   qt-mt323:qt-mt323.dll
 0001:0004eede       ?undock@QDockWindow@@UAEXXZ 0044fede f   qt-mt323:qt-mt323.dll
 0001:0004eee4       ?setOpaqueMoving@QDockWindow@@UAEX_N@Z 0044fee4 f   qt-mt323:qt-mt323.dll
 0001:0004eeea       ?setNewLine@QDockWindow@@UAEX_N@Z 0044feea f   qt-mt323:qt-mt323.dll
 0001:0004eef0       ?setFixedExtentHeight@QDockWindow@@UAEXH@Z 0044fef0 f   qt-mt323:qt-mt323.dll
 0001:0004eef6       ?setFixedExtentWidth@QDockWindow@@UAEXH@Z 0044fef6 f   qt-mt323:qt-mt323.dll
 0001:0004eefc       ?setOffset@QDockWindow@@UAEXH@Z 0044fefc f   qt-mt323:qt-mt323.dll
 0001:0004ef02       ?setVerticallyStretchable@QDockWindow@@UAEX_N@Z 0044ff02 f   qt-mt323:qt-mt323.dll
 0001:0004ef08       ?setHorizontallyStretchable@QDockWindow@@UAEX_N@Z 0044ff08 f   qt-mt323:qt-mt323.dll
 0001:0004ef0e       ?setMovingEnabled@QDockWindow@@UAEX_N@Z 0044ff0e f   qt-mt323:qt-mt323.dll
 0001:0004ef14       ?setResizeEnabled@QDockWindow@@UAEX_N@Z 0044ff14 f   qt-mt323:qt-mt323.dll
 0001:0004ef1a       ?setCloseMode@QDockWindow@@UAEXH@Z 0044ff1a f   qt-mt323:qt-mt323.dll
 0001:0004ef20       ?setWidget@QDockWindow@@UAEXPAVQWidget@@@Z 0044ff20 f   qt-mt323:qt-mt323.dll
 0001:0004ef26       ?drawContents@QDockWindow@@MAEXPAVQPainter@@@Z 0044ff26 f   qt-mt323:qt-mt323.dll
 0001:0004ef2c       ?drawFrame@QDockWindow@@MAEXPAVQPainter@@@Z 0044ff2c f   qt-mt323:qt-mt323.dll
 0001:0004ef32       ?hideEvent@QDockWindow@@MAEXPAVQHideEvent@@@Z 0044ff32 f   qt-mt323:qt-mt323.dll
 0001:0004ef38       ?showEvent@QDockWindow@@MAEXPAVQShowEvent@@@Z 0044ff38 f   qt-mt323:qt-mt323.dll
 0001:0004ef3e       ?contextMenuEvent@QDockWindow@@MAEXPAVQContextMenuEvent@@@Z 0044ff3e f   qt-mt323:qt-mt323.dll
 0001:0004ef44       ?resizeEvent@QDockWindow@@MAEXPAVQResizeEvent@@@Z 0044ff44 f   qt-mt323:qt-mt323.dll
 0001:0004ef4a       ?minimumSizeHint@QDockWindow@@UBE?AVQSize@@XZ 0044ff4a f   qt-mt323:qt-mt323.dll
 0001:0004ef50       ?sizeHint@QDockWindow@@UBE?AVQSize@@XZ 0044ff50 f   qt-mt323:qt-mt323.dll
 0001:0004ef56       ?setCaption@QDockWindow@@UAEXABVQString@@@Z 0044ff56 f   qt-mt323:qt-mt323.dll
 0001:0004ef5c       ?eventFilter@QDockWindow@@UAE_NPAVQObject@@PAVQEvent@@@Z 0044ff5c f   qt-mt323:qt-mt323.dll
 0001:0004ef62       ?event@QDockWindow@@MAE_NPAVQEvent@@@Z 0044ff62 f   qt-mt323:qt-mt323.dll
 0001:0004ef68       ?qt_property@QDockWindow@@UAE_NHHPAVQVariant@@@Z 0044ff68 f   qt-mt323:qt-mt323.dll
 0001:0004ef6e       ?qt_emit@QDockWindow@@UAE_NHPAUQUObject@@@Z 0044ff6e f   qt-mt323:qt-mt323.dll
 0001:0004ef74       ?qt_invoke@QDockWindow@@UAE_NHPAUQUObject@@@Z 0044ff74 f   qt-mt323:qt-mt323.dll
 0001:0004ef7a       ?qt_cast@QDockWindow@@UAEPAXPBD@Z 0044ff7a f   qt-mt323:qt-mt323.dll
 0001:0004ef80       ?className@QDockWindow@@UBEPBDXZ 0044ff80 f   qt-mt323:qt-mt323.dll
 0001:0004ef86       ?metaObject@QDockWindow@@UBEPAVQMetaObject@@XZ 0044ff86 f   qt-mt323:qt-mt323.dll
 0001:0004ef8c       ?fixup@QValidator@@UBEXAAVQString@@@Z 0044ff8c f   qt-mt323:qt-mt323.dll
 0001:0004ef92       ?qt_property@QValidator@@UAE_NHHPAVQVariant@@@Z 0044ff92 f   qt-mt323:qt-mt323.dll
 0001:0004ef98       ?qt_emit@QValidator@@UAE_NHPAUQUObject@@@Z 0044ff98 f   qt-mt323:qt-mt323.dll
 0001:0004ef9e       ?qt_invoke@QValidator@@UAE_NHPAUQUObject@@@Z 0044ff9e f   qt-mt323:qt-mt323.dll
 0001:0004efa4       ?qt_cast@QValidator@@UAEPAXPBD@Z 0044ffa4 f   qt-mt323:qt-mt323.dll
 0001:0004efaa       ?className@QValidator@@UBEPBDXZ 0044ffaa f   qt-mt323:qt-mt323.dll
 0001:0004efb0       ?metaObject@QValidator@@UBEPAVQMetaObject@@XZ 0044ffb0 f   qt-mt323:qt-mt323.dll
 0001:0004efb6       ?setStringList@QComboTableItem@@UAEXABVQStringList@@@Z 0044ffb6 f   qt-mt323:qt-mt323.dll
 0001:0004efbc       ?setEditable@QComboTableItem@@UAEX_N@Z 0044ffbc f   qt-mt323:qt-mt323.dll
 0001:0004efc2       ?setCurrentItem@QComboTableItem@@UAEXH@Z 0044ffc2 f   qt-mt323:qt-mt323.dll
 0001:0004efc8       ?setCurrentItem@QComboTableItem@@UAEXABVQString@@@Z 0044ffc8 f   qt-mt323:qt-mt323.dll
 0001:0004efce       ?rtti@QComboTableItem@@UBEHXZ 0044ffce f   qt-mt323:qt-mt323.dll
 0001:0004efd4       ?setEnabled@QTableItem@@UAEX_N@Z 0044ffd4 f   qt-mt323:qt-mt323.dll
 0001:0004efda       ?paint@QComboTableItem@@UAEXPAVQPainter@@ABVQColorGroup@@ABVQRect@@_N@Z 0044ffda f   qt-mt323:qt-mt323.dll
 0001:0004efe0       ?setCol@QTableItem@@UAEXH@Z 0044ffe0 f   qt-mt323:qt-mt323.dll
 0001:0004efe6       ?setRow@QTableItem@@UAEXH@Z 0044ffe6 f   qt-mt323:qt-mt323.dll
 0001:0004efec       ?setSpan@QTableItem@@UAEXHH@Z 0044ffec f   qt-mt323:qt-mt323.dll
 0001:0004eff2       ?sizeHint@QComboTableItem@@UBE?AVQSize@@XZ 0044fff2 f   qt-mt323:qt-mt323.dll
 0001:0004eff8       ?key@QTableItem@@UBE?AVQString@@XZ 0044fff8 f   qt-mt323:qt-mt323.dll
 0001:0004effe       ?setReplaceable@QTableItem@@UAEX_N@Z 0044fffe f   qt-mt323:qt-mt323.dll
 0001:0004f004       ?setContentFromEditor@QComboTableItem@@UAEXPAVQWidget@@@Z 00450004 f   qt-mt323:qt-mt323.dll
 0001:0004f00a       ?createEditor@QComboTableItem@@UBEPAVQWidget@@XZ 0045000a f   qt-mt323:qt-mt323.dll
 0001:0004f010       ?setWordWrap@QTableItem@@UAEX_N@Z 00450010 f   qt-mt323:qt-mt323.dll
 0001:0004f016       ?alignment@QTableItem@@UBEHXZ 00450016 f   qt-mt323:qt-mt323.dll
 0001:0004f01c       ?setText@QTableItem@@UAEXABVQString@@@Z 0045001c f   qt-mt323:qt-mt323.dll
 0001:0004f022       ?setPixmap@QTableItem@@UAEXABVQPixmap@@@Z 00450022 f   qt-mt323:qt-mt323.dll
 0001:0004f028       ?text@QTableItem@@UBE?AVQString@@XZ 00450028 f   qt-mt323:qt-mt323.dll
 0001:0004f02e       ?pixmap@QTableItem@@UBE?AVQPixmap@@XZ 0045002e f   qt-mt323:qt-mt323.dll
 0001:0004f034       ?createPopupMenu@QLineEdit@@MAEPAVQPopupMenu@@XZ 00450034 f   qt-mt323:qt-mt323.dll
 0001:0004f03a       ?setDragEnabled@QLineEdit@@UAEX_N@Z 0045003a f   qt-mt323:qt-mt323.dll
 0001:0004f040       ?paste@QLineEdit@@UAEXXZ   00450040 f   qt-mt323:qt-mt323.dll
 0001:0004f046       ?copy@QLineEdit@@UBEXXZ    00450046 f   qt-mt323:qt-mt323.dll
 0001:0004f04c       ?cut@QLineEdit@@UAEXXZ     0045004c f   qt-mt323:qt-mt323.dll
 0001:0004f052       ?setAlignment@QLineEdit@@UAEXH@Z 00450052 f   qt-mt323:qt-mt323.dll
 0001:0004f058       ?setCursorPosition@QLineEdit@@UAEXH@Z 00450058 f   qt-mt323:qt-mt323.dll
 0001:0004f05e       ?setSelection@QLineEdit@@UAEXHH@Z 0045005e f   qt-mt323:qt-mt323.dll
 0001:0004f064       ?setValidator@QLineEdit@@UAEXPBVQValidator@@@Z 00450064 f   qt-mt323:qt-mt323.dll
 0001:0004f06a       ?setReadOnly@QLineEdit@@UAEX_N@Z 0045006a f   qt-mt323:qt-mt323.dll
 0001:0004f070       ?setEchoMode@QLineEdit@@UAEXW4EchoMode@1@@Z 00450070 f   qt-mt323:qt-mt323.dll
 0001:0004f076       ?setFrame@QLineEdit@@UAEX_N@Z 00450076 f   qt-mt323:qt-mt323.dll
 0001:0004f07c       ?setMaxLength@QLineEdit@@UAEXH@Z 0045007c f   qt-mt323:qt-mt323.dll
 0001:0004f082       ?redo@QLineEdit@@UAEXXZ    00450082 f   qt-mt323:qt-mt323.dll
 0001:0004f088       ?undo@QLineEdit@@UAEXXZ    00450088 f   qt-mt323:qt-mt323.dll
 0001:0004f08e       ?clear@QLineEdit@@UAEXXZ   0045008e f   qt-mt323:qt-mt323.dll
 0001:0004f094       ?insert@QLineEdit@@UAEXABVQString@@@Z 00450094 f   qt-mt323:qt-mt323.dll
 0001:0004f09a       ?clearValidator@QLineEdit@@UAEXXZ 0045009a f   qt-mt323:qt-mt323.dll
 0001:0004f0a0       ?deselect@QLineEdit@@UAEXXZ 004500a0 f   qt-mt323:qt-mt323.dll
 0001:0004f0a6       ?selectAll@QLineEdit@@UAEXXZ 004500a6 f   qt-mt323:qt-mt323.dll
 0001:0004f0ac       ?setText@QLineEdit@@UAEXABVQString@@@Z 004500ac f   qt-mt323:qt-mt323.dll
 0001:0004f0b2       ?drawContents@QLineEdit@@MAEXPAVQPainter@@@Z 004500b2 f   qt-mt323:qt-mt323.dll
 0001:0004f0b8       ?windowActivationChange@QLineEdit@@MAEX_N@Z 004500b8 f   qt-mt323:qt-mt323.dll
 0001:0004f0be       ?dropEvent@QLineEdit@@MAEXPAVQDropEvent@@@Z 004500be f   qt-mt323:qt-mt323.dll
 0001:0004f0c4       ?dragLeaveEvent@QLineEdit@@MAEXPAVQDragLeaveEvent@@@Z 004500c4 f   qt-mt323:qt-mt323.dll
 0001:0004f0ca       ?dragMoveEvent@QLineEdit@@MAEXPAVQDragMoveEvent@@@Z 004500ca f   qt-mt323:qt-mt323.dll
 0001:0004f0d0       ?dragEnterEvent@QLineEdit@@MAEXPAVQDragEnterEvent@@@Z 004500d0 f   qt-mt323:qt-mt323.dll
 0001:0004f0d6       ?imEndEvent@QLineEdit@@MAEXPAVQIMEvent@@@Z 004500d6 f   qt-mt323:qt-mt323.dll
 0001:0004f0dc       ?imComposeEvent@QLineEdit@@MAEXPAVQIMEvent@@@Z 004500dc f   qt-mt323:qt-mt323.dll
 0001:0004f0e2       ?imStartEvent@QLineEdit@@MAEXPAVQIMEvent@@@Z 004500e2 f   qt-mt323:qt-mt323.dll
 0001:0004f0e8       ?contextMenuEvent@QLineEdit@@MAEXPAVQContextMenuEvent@@@Z 004500e8 f   qt-mt323:qt-mt323.dll
 0001:0004f0ee       ?resizeEvent@QLineEdit@@MAEXPAVQResizeEvent@@@Z 004500ee f   qt-mt323:qt-mt323.dll
 0001:0004f0f4       ?focusOutEvent@QLineEdit@@MAEXPAVQFocusEvent@@@Z 004500f4 f   qt-mt323:qt-mt323.dll
 0001:0004f0fa       ?focusInEvent@QLineEdit@@MAEXPAVQFocusEvent@@@Z 004500fa f   qt-mt323:qt-mt323.dll
 0001:0004f100       ?keyPressEvent@QLineEdit@@MAEXPAVQKeyEvent@@@Z 00450100 f   qt-mt323:qt-mt323.dll
 0001:0004f106       ?mouseMoveEvent@QLineEdit@@MAEXPAVQMouseEvent@@@Z 00450106 f   qt-mt323:qt-mt323.dll
 0001:0004f10c       ?mouseDoubleClickEvent@QLineEdit@@MAEXPAVQMouseEvent@@@Z 0045010c f   qt-mt323:qt-mt323.dll
 0001:0004f112       ?mouseReleaseEvent@QLineEdit@@MAEXPAVQMouseEvent@@@Z 00450112 f   qt-mt323:qt-mt323.dll
 0001:0004f118       ?mousePressEvent@QLineEdit@@MAEXPAVQMouseEvent@@@Z 00450118 f   qt-mt323:qt-mt323.dll
 0001:0004f11e       ?minimumSizeHint@QLineEdit@@UBE?AVQSize@@XZ 0045011e f   qt-mt323:qt-mt323.dll
 0001:0004f124       ?sizeHint@QLineEdit@@UBE?AVQSize@@XZ 00450124 f   qt-mt323:qt-mt323.dll
 0001:0004f12a       ?setFont@QLineEdit@@UAEXABVQFont@@@Z 0045012a f   qt-mt323:qt-mt323.dll
 0001:0004f130       ?setPalette@QLineEdit@@UAEXABVQPalette@@@Z 00450130 f   qt-mt323:qt-mt323.dll
 0001:0004f136       ?event@QLineEdit@@MAE_NPAVQEvent@@@Z 00450136 f   qt-mt323:qt-mt323.dll
 0001:0004f13c       ?qt_property@QLineEdit@@UAE_NHHPAVQVariant@@@Z 0045013c f   qt-mt323:qt-mt323.dll
 0001:0004f142       ?qt_emit@QLineEdit@@UAE_NHPAUQUObject@@@Z 00450142 f   qt-mt323:qt-mt323.dll
 0001:0004f148       ?qt_invoke@QLineEdit@@UAE_NHPAUQUObject@@@Z 00450148 f   qt-mt323:qt-mt323.dll
 0001:0004f14e       ?qt_cast@QLineEdit@@UAEPAXPBD@Z 0045014e f   qt-mt323:qt-mt323.dll
 0001:0004f154       ?className@QLineEdit@@UBEPBDXZ 00450154 f   qt-mt323:qt-mt323.dll
 0001:0004f15a       ?metaObject@QLineEdit@@UBEPAVQMetaObject@@XZ 0045015a f   qt-mt323:qt-mt323.dll
 0001:0004f160       ?setEditText@QComboBox@@UAEXABVQString@@@Z 00450160 f   qt-mt323:qt-mt323.dll
 0001:0004f166       ?popup@QComboBox@@UAEXXZ   00450166 f   qt-mt323:qt-mt323.dll
 0001:0004f16c       ?setAutoCompletion@QComboBox@@UAEX_N@Z 0045016c f   qt-mt323:qt-mt323.dll
 0001:0004f172       ?setLineEdit@QComboBox@@UAEXPAVQLineEdit@@@Z 00450172 f   qt-mt323:qt-mt323.dll
 0001:0004f178       ?setListBox@QComboBox@@UAEXPAVQListBox@@@Z 00450178 f   qt-mt323:qt-mt323.dll
 0001:0004f17e       ?setValidator@QComboBox@@UAEXPBVQValidator@@@Z 0045017e f   qt-mt323:qt-mt323.dll
 0001:0004f184       ?setInsertionPolicy@QComboBox@@UAEXW4Policy@1@@Z 00450184 f   qt-mt323:qt-mt323.dll
 0001:0004f18a       ?setMaxCount@QComboBox@@UAEXH@Z 0045018a f   qt-mt323:qt-mt323.dll
 0001:0004f190       ?setSizeLimit@QComboBox@@UAEXH@Z 00450190 f   qt-mt323:qt-mt323.dll
 0001:0004f196       ?setAutoResize@QComboBox@@UAEX_N@Z 00450196 f   qt-mt323:qt-mt323.dll
 0001:0004f19c       ?setCurrentText@QComboBox@@UAEXABVQString@@@Z 0045019c f   qt-mt323:qt-mt323.dll
 0001:0004f1a2       ?setCurrentItem@QComboBox@@UAEXH@Z 004501a2 f   qt-mt323:qt-mt323.dll
 0001:0004f1a8       ?styleChange@QComboBox@@MAEXAAVQStyle@@@Z 004501a8 f   qt-mt323:qt-mt323.dll
 0001:0004f1ae       ?updateMask@QComboBox@@MAEXXZ 004501ae f   qt-mt323:qt-mt323.dll
 0001:0004f1b4       ?resizeEvent@QComboBox@@MAEXPAVQResizeEvent@@@Z 004501b4 f   qt-mt323:qt-mt323.dll
 0001:0004f1ba       ?paintEvent@QComboBox@@MAEXPAVQPaintEvent@@@Z 004501ba f   qt-mt323:qt-mt323.dll
 0001:0004f1c0       ?focusOutEvent@QComboBox@@MAEXPAVQFocusEvent@@@Z 004501c0 f   qt-mt323:qt-mt323.dll
 0001:0004f1c6       ?focusInEvent@QComboBox@@MAEXPAVQFocusEvent@@@Z 004501c6 f   qt-mt323:qt-mt323.dll
 0001:0004f1cc       ?keyPressEvent@QComboBox@@MAEXPAVQKeyEvent@@@Z 004501cc f   qt-mt323:qt-mt323.dll
 0001:0004f1d2       ?wheelEvent@QComboBox@@MAEXPAVQWheelEvent@@@Z 004501d2 f   qt-mt323:qt-mt323.dll
 0001:0004f1d8       ?mouseMoveEvent@QComboBox@@MAEXPAVQMouseEvent@@@Z 004501d8 f   qt-mt323:qt-mt323.dll
 0001:0004f1de       ?mouseDoubleClickEvent@QComboBox@@MAEXPAVQMouseEvent@@@Z 004501de f   qt-mt323:qt-mt323.dll
 0001:0004f1e4       ?mouseReleaseEvent@QComboBox@@MAEXPAVQMouseEvent@@@Z 004501e4 f   qt-mt323:qt-mt323.dll
 0001:0004f1ea       ?mousePressEvent@QComboBox@@MAEXPAVQMouseEvent@@@Z 004501ea f   qt-mt323:qt-mt323.dll
 0001:0004f1f0       ?sizeHint@QComboBox@@UBE?AVQSize@@XZ 004501f0 f   qt-mt323:qt-mt323.dll
 0001:0004f1f6       ?setFont@QComboBox@@UAEXABVQFont@@@Z 004501f6 f   qt-mt323:qt-mt323.dll
 0001:0004f1fc       ?setPalette@QComboBox@@UAEXABVQPalette@@@Z 004501fc f   qt-mt323:qt-mt323.dll
 0001:0004f202       ?setEnabled@QComboBox@@UAEX_N@Z 00450202 f   qt-mt323:qt-mt323.dll
 0001:0004f208       ?eventFilter@QComboBox@@UAE_NPAVQObject@@PAVQEvent@@@Z 00450208 f   qt-mt323:qt-mt323.dll
 0001:0004f20e       ?qt_property@QComboBox@@UAE_NHHPAVQVariant@@@Z 0045020e f   qt-mt323:qt-mt323.dll
 0001:0004f214       ?qt_emit@QComboBox@@UAE_NHPAUQUObject@@@Z 00450214 f   qt-mt323:qt-mt323.dll
 0001:0004f21a       ?qt_invoke@QComboBox@@UAE_NHPAUQUObject@@@Z 0045021a f   qt-mt323:qt-mt323.dll
 0001:0004f220       ?qt_cast@QComboBox@@UAEPAXPBD@Z 00450220 f   qt-mt323:qt-mt323.dll
 0001:0004f226       ?className@QComboBox@@UBEPBDXZ 00450226 f   qt-mt323:qt-mt323.dll
 0001:0004f22c       ?metaObject@QComboBox@@UBEPAVQMetaObject@@XZ 0045022c f   qt-mt323:qt-mt323.dll
 0001:0004f232       ?emitLinkClicked@QTextEdit@@EAEXABVQString@@@Z 00450232 f   qt-mt323:qt-mt323.dll
 0001:0004f238       ?emitHighlighted@QTextEdit@@EAEXABVQString@@@Z 00450238 f   qt-mt323:qt-mt323.dll
 0001:0004f23e       ?linksEnabled@QTextEdit@@EBE_NXZ 0045023e f   qt-mt323:qt-mt323.dll
 0001:0004f244       ?doChangeInterval@QTextEdit@@MAEXXZ 00450244 f   qt-mt323:qt-mt323.dll
 0001:0004f24a       ?createPopupMenu@QTextEdit@@MAEPAVQPopupMenu@@ABVQPoint@@@Z 0045024a f   qt-mt323:qt-mt323.dll
 0001:0004f250       ?createPopupMenu@QTextEdit@@MAEPAVQPopupMenu@@XZ 00450250 f   qt-mt323:qt-mt323.dll
 0001:0004f256       ?setUndoRedoEnabled@QTextEdit@@UAEX_N@Z 00450256 f   qt-mt323:qt-mt323.dll
 0001:0004f25c       ?clearParagraphBackground@QTextEdit@@UAEXH@Z 0045025c f   qt-mt323:qt-mt323.dll
 0001:0004f262       ?setParagraphBackgroundColor@QTextEdit@@UAEXHABVQColor@@@Z 00450262 f   qt-mt323:qt-mt323.dll
 0001:0004f268       ?insertParagraph@QTextEdit@@UAEXABVQString@@H@Z 00450268 f   qt-mt323:qt-mt323.dll
 0001:0004f26e       ?removeParagraph@QTextEdit@@UAEXH@Z 0045026e f   qt-mt323:qt-mt323.dll
 0001:0004f274       ?insertAt@QTextEdit@@UAEXABVQString@@HH@Z 00450274 f   qt-mt323:qt-mt323.dll
 0001:0004f27a       ?insert@QTextEdit@@UAEXABVQString@@_N11@Z 0045027a f   qt-mt323:qt-mt323.dll
 0001:0004f280       ?scrollToBottom@QTextEdit@@UAEXXZ 00450280 f   qt-mt323:qt-mt323.dll
 0001:0004f286       ?setOverwriteMode@QTextEdit@@UAEX_N@Z 00450286 f   qt-mt323:qt-mt323.dll
 0001:0004f28c       ?setCurrentFont@QTextEdit@@UAEXABVQFont@@@Z 0045028c f   qt-mt323:qt-mt323.dll
 0001:0004f292       ?removeSelection@QTextEdit@@UAEXH@Z 00450292 f   qt-mt323:qt-mt323.dll
 0001:0004f298       ?removeSelectedText@QTextEdit@@UAEXH@Z 00450298 f   qt-mt323:qt-mt323.dll
 0001:0004f29e       ?doKeyboardAction@QTextEdit@@UAEXW4KeyboardAction@1@@Z 0045029e f   qt-mt323:qt-mt323.dll
 0001:0004f2a4       ?moveCursor@QTextEdit@@UAEXW4CursorAction@1@_N@Z 004502a4 f   qt-mt323:qt-mt323.dll
 0001:0004f2aa       ?placeCursor@QTextEdit@@UAEXABVQPoint@@PAVQTextCursor@@@Z 004502aa f   qt-mt323:qt-mt323.dll
 0001:0004f2b0       ?ensureCursorVisible@QTextEdit@@UAEXXZ 004502b0 f   qt-mt323:qt-mt323.dll
 0001:0004f2b6       ?setFormat@QTextEdit@@UAEXPAVQTextFormat@@H@Z 004502b6 f   qt-mt323:qt-mt323.dll
 0001:0004f2bc       ?setUndoDepth@QTextEdit@@UAEXH@Z 004502bc f   qt-mt323:qt-mt323.dll
 0001:0004f2c2       ?resetFormat@QTextEdit@@UAEXXZ 004502c2 f   qt-mt323:qt-mt323.dll
 0001:0004f2c8       ?setModified@QTextEdit@@UAEX_N@Z 004502c8 f   qt-mt323:qt-mt323.dll
 0001:0004f2ce       ?setSelectionAttributes@QTextEdit@@UAEXHABVQColor@@_N@Z 004502ce f   qt-mt323:qt-mt323.dll
 0001:0004f2d4       ?setSelection@QTextEdit@@UAEXHHHHH@Z 004502d4 f   qt-mt323:qt-mt323.dll
 0001:0004f2da       ?setCursorPosition@QTextEdit@@UAEXHH@Z 004502da f   qt-mt323:qt-mt323.dll
 0001:0004f2e0       ?setParagType@QTextEdit@@UAEXW4DisplayMode@QStyleSheetItem@@W4ListStyle@3@@Z 004502e0 f   qt-mt323:qt-mt323.dll
 0001:0004f2e6       ?setAlignment@QTextEdit@@UAEXH@Z 004502e6 f   qt-mt323:qt-mt323.dll
 0001:0004f2ec       ?setVerticalAlignment@QTextEdit@@UAEXW4VerticalAlignment@1@@Z 004502ec f   qt-mt323:qt-mt323.dll
 0001:0004f2f2       ?setColor@QTextEdit@@UAEXABVQColor@@@Z 004502f2 f   qt-mt323:qt-mt323.dll
 0001:0004f2f8       ?setPointSize@QTextEdit@@UAEXH@Z 004502f8 f   qt-mt323:qt-mt323.dll
 0001:0004f2fe       ?setFamily@QTextEdit@@UAEXABVQString@@@Z 004502fe f   qt-mt323:qt-mt323.dll
 0001:0004f304       ?setUnderline@QTextEdit@@UAEX_N@Z 00450304 f   qt-mt323:qt-mt323.dll
 0001:0004f30a       ?setBold@QTextEdit@@UAEX_N@Z 0045030a f   qt-mt323:qt-mt323.dll
 0001:0004f310       ?setItalic@QTextEdit@@UAEX_N@Z 00450310 f   qt-mt323:qt-mt323.dll
 0001:0004f316       ?indent@QTextEdit@@UAEXXZ  00450316 f   qt-mt323:qt-mt323.dll
 0001:0004f31c       ?del@QTextEdit@@UAEXXZ     0045031c f   qt-mt323:qt-mt323.dll
 0001:0004f322       ?clear@QTextEdit@@UAEXXZ   00450322 f   qt-mt323:qt-mt323.dll
 0001:0004f328       ?pasteSubType@QTextEdit@@UAEXABVQCString@@@Z 00450328 f   qt-mt323:qt-mt323.dll
 0001:0004f32e       ?paste@QTextEdit@@UAEXXZ   0045032e f   qt-mt323:qt-mt323.dll
 0001:0004f334       ?cut@QTextEdit@@UAEXXZ     00450334 f   qt-mt323:qt-mt323.dll
 0001:0004f33a       ?redo@QTextEdit@@UAEXXZ    0045033a f   qt-mt323:qt-mt323.dll
 0001:0004f340       ?undo@QTextEdit@@UAEXXZ    00450340 f   qt-mt323:qt-mt323.dll
 0001:0004f346       ?setReadOnly@QTextEdit@@UAEX_N@Z 00450346 f   qt-mt323:qt-mt323.dll
 0001:0004f34c       ?sync@QTextEdit@@UAEXXZ    0045034c f   qt-mt323:qt-mt323.dll
 0001:0004f352       ?zoomTo@QTextEdit@@UAEXH@Z 00450352 f   qt-mt323:qt-mt323.dll
 0001:0004f358       ?zoomOut@QTextEdit@@UAEXH@Z 00450358 f   qt-mt323:qt-mt323.dll
 0001:0004f35e       ?zoomOut@QTextEdit@@UAEXXZ 0045035e f   qt-mt323:qt-mt323.dll
 0001:0004f364       ?zoomIn@QTextEdit@@UAEXH@Z 00450364 f   qt-mt323:qt-mt323.dll
 0001:0004f36a       ?zoomIn@QTextEdit@@UAEXXZ  0045036a f   qt-mt323:qt-mt323.dll
 0001:0004f370       ?setTabStopWidth@QTextEdit@@UAEXH@Z 00450370 f   qt-mt323:qt-mt323.dll
 0001:0004f376       ?selectAll@QTextEdit@@UAEX_N@Z 00450376 f   qt-mt323:qt-mt323.dll
 0001:0004f37c       ?setTextFormat@QTextEdit@@UAEXW4TextFormat@Qt@@@Z 0045037c f   qt-mt323:qt-mt323.dll
 0001:0004f382       ?setText@QTextEdit@@UAEXABVQString@@0@Z 00450382 f   qt-mt323:qt-mt323.dll
 0001:0004f388       ?append@QTextEdit@@UAEXABVQString@@@Z 00450388 f   qt-mt323:qt-mt323.dll
 0001:0004f38e       ?copy@QTextEdit@@UAEXXZ    0045038e f   qt-mt323:qt-mt323.dll
 0001:0004f394       ?setWrapPolicy@QTextEdit@@UAEXW4WrapPolicy@1@@Z 00450394 f   qt-mt323:qt-mt323.dll
 0001:0004f39a       ?setWrapColumnOrWidth@QTextEdit@@UAEXH@Z 0045039a f   qt-mt323:qt-mt323.dll
 0001:0004f3a0       ?setWordWrap@QTextEdit@@UAEXW4WordWrap@1@@Z 004503a0 f   qt-mt323:qt-mt323.dll
 0001:0004f3a6       ?setLinkUnderline@QTextEdit@@UAEX_N@Z 004503a6 f   qt-mt323:qt-mt323.dll
 0001:0004f3ac       ?setPaper@QTextEdit@@UAEXABVQBrush@@@Z 004503ac f   qt-mt323:qt-mt323.dll
 0001:0004f3b2       ?scrollToAnchor@QTextEdit@@UAEXABVQString@@@Z 004503b2 f   qt-mt323:qt-mt323.dll
 0001:0004f3b8       ?setStyleSheet@QTextEdit@@UAEXPAVQStyleSheet@@@Z 004503b8 f   qt-mt323:qt-mt323.dll
 0001:0004f3be       ?setMimeSourceFactory@QTextEdit@@UAEXPAVQMimeSourceFactory@@@Z 004503be f   qt-mt323:qt-mt323.dll
 0001:0004f3c4       ?getParagraphFormat@QTextEdit@@UAE_NHPAVQFont@@PAVQColor@@PAW4VerticalAlignment@1@PAHPAW4DisplayMode@QStyleSheetItem@@PAW4ListStyle@6@3@Z 004503c4 f   qt-mt323:qt-mt323.dll
 0001:0004f3ca       ?getFormat@QTextEdit@@UAE_NHHPAVQFont@@PAVQColor@@PAW4VerticalAlignment@1@@Z 004503ca f   qt-mt323:qt-mt323.dll
 0001:0004f3d0       ?find@QTextEdit@@UAE_NABVQString@@_N11PAH2@Z 004503d0 f   qt-mt323:qt-mt323.dll
 0001:0004f3d6       ?viewportResizeEvent@QTextEdit@@MAEXPAVQResizeEvent@@@Z 004503d6 f   qt-mt323:qt-mt323.dll
 0001:0004f3dc       ?contentsContextMenuEvent@QTextEdit@@MAEXPAVQContextMenuEvent@@@Z 004503dc f   qt-mt323:qt-mt323.dll
 0001:0004f3e2       ?contentsWheelEvent@QTextEdit@@MAEXPAVQWheelEvent@@@Z 004503e2 f   qt-mt323:qt-mt323.dll
 0001:0004f3e8       ?contentsDropEvent@QTextEdit@@MAEXPAVQDropEvent@@@Z 004503e8 f   qt-mt323:qt-mt323.dll
 0001:0004f3ee       ?contentsDragLeaveEvent@QTextEdit@@MAEXPAVQDragLeaveEvent@@@Z 004503ee f   qt-mt323:qt-mt323.dll
 0001:0004f3f4       ?contentsDragMoveEvent@QTextEdit@@MAEXPAVQDragMoveEvent@@@Z 004503f4 f   qt-mt323:qt-mt323.dll
 0001:0004f3fa       ?contentsDragEnterEvent@QTextEdit@@MAEXPAVQDragEnterEvent@@@Z 004503fa f   qt-mt323:qt-mt323.dll
 0001:0004f400       ?contentsMouseMoveEvent@QTextEdit@@MAEXPAVQMouseEvent@@@Z 00450400 f   qt-mt323:qt-mt323.dll
 0001:0004f406       ?contentsMouseDoubleClickEvent@QTextEdit@@MAEXPAVQMouseEvent@@@Z 00450406 f   qt-mt323:qt-mt323.dll
 0001:0004f40c       ?contentsMouseReleaseEvent@QTextEdit@@MAEXPAVQMouseEvent@@@Z 0045040c f   qt-mt323:qt-mt323.dll
 0001:0004f412       ?contentsMousePressEvent@QTextEdit@@MAEXPAVQMouseEvent@@@Z 00450412 f   qt-mt323:qt-mt323.dll
 0001:0004f418       ?drawContents@QTextEdit@@MAEXPAVQPainter@@HHHH@Z 00450418 f   qt-mt323:qt-mt323.dll
 0001:0004f41e       ?drawContents@QTextEdit@@EAEXPAVQPainter@@@Z 0045041e f   qt-mt323:qt-mt323.dll
 0001:0004f424       ?focusNextPrevChild@QTextEdit@@MAE_N_N@Z 00450424 f   qt-mt323:qt-mt323.dll
 0001:0004f42a       ?windowActivationChange@QTextEdit@@MAEX_N@Z 0045042a f   qt-mt323:qt-mt323.dll
 0001:0004f430       ?imEndEvent@QTextEdit@@MAEXPAVQIMEvent@@@Z 00450430 f   qt-mt323:qt-mt323.dll
 0001:0004f436       ?imComposeEvent@QTextEdit@@MAEXPAVQIMEvent@@@Z 00450436 f   qt-mt323:qt-mt323.dll
 0001:0004f43c       ?imStartEvent@QTextEdit@@MAEXPAVQIMEvent@@@Z 0045043c f   qt-mt323:qt-mt323.dll
 0001:0004f442       ?resizeEvent@QTextEdit@@MAEXPAVQResizeEvent@@@Z 00450442 f   qt-mt323:qt-mt323.dll
 0001:0004f448       ?keyPressEvent@QTextEdit@@MAEXPAVQKeyEvent@@@Z 00450448 f   qt-mt323:qt-mt323.dll
 0001:0004f44e       ?heightForWidth@QTextEdit@@UBEHH@Z 0045044e f   qt-mt323:qt-mt323.dll
 0001:0004f454       ?sizeHint@QTextEdit@@UBE?AVQSize@@XZ 00450454 f   qt-mt323:qt-mt323.dll
 0001:0004f45a       ?polish@QTextEdit@@UAEXXZ  0045045a f   qt-mt323:qt-mt323.dll
 0001:0004f460       ?setFont@QTextEdit@@UAEXABVQFont@@@Z 00450460 f   qt-mt323:qt-mt323.dll
 0001:0004f466       ?setPalette@QTextEdit@@UAEXABVQPalette@@@Z 00450466 f   qt-mt323:qt-mt323.dll
 0001:0004f46c       ?setEnabled@QTextEdit@@UAEX_N@Z 0045046c f   qt-mt323:qt-mt323.dll
 0001:0004f472       ?eventFilter@QTextEdit@@UAE_NPAVQObject@@PAVQEvent@@@Z 00450472 f   qt-mt323:qt-mt323.dll
 0001:0004f478       ?event@QTextEdit@@MAE_NPAVQEvent@@@Z 00450478 f   qt-mt323:qt-mt323.dll
 0001:0004f47e       ?setEnabled@QAction@@UAEX_N@Z 0045047e f   qt-mt323:qt-mt323.dll
 0001:0004f484       ?setOn@QAction@@UAEX_N@Z   00450484 f   qt-mt323:qt-mt323.dll
 0001:0004f48a       ?addedTo@QAction@@MAEXPAVQWidget@@0@Z 0045048a f   qt-mt323:qt-mt323.dll
 0001:0004f490       ?addedTo@QAction@@MAEXHPAVQPopupMenu@@@Z 00450490 f   qt-mt323:qt-mt323.dll
 0001:0004f496       ?removeFrom@QAction@@UAE_NPAVQWidget@@@Z 00450496 f   qt-mt323:qt-mt323.dll
 0001:0004f49c       ?addTo@QAction@@UAE_NPAVQWidget@@@Z 0045049c f   qt-mt323:qt-mt323.dll
 0001:0004f4a2       ?setToggleAction@QAction@@UAEX_N@Z 004504a2 f   qt-mt323:qt-mt323.dll
 0001:0004f4a8       ?setAccel@QAction@@UAEXABVQKeySequence@@@Z 004504a8 f   qt-mt323:qt-mt323.dll
 0001:0004f4ae       ?setWhatsThis@QAction@@UAEXABVQString@@@Z 004504ae f   qt-mt323:qt-mt323.dll
 0001:0004f4b4       ?setStatusTip@QAction@@UAEXABVQString@@@Z 004504b4 f   qt-mt323:qt-mt323.dll
 0001:0004f4ba       ?setToolTip@QAction@@UAEXABVQString@@@Z 004504ba f   qt-mt323:qt-mt323.dll
 0001:0004f4c0       ?setMenuText@QAction@@UAEXABVQString@@@Z 004504c0 f   qt-mt323:qt-mt323.dll
 0001:0004f4c6       ?setText@QAction@@UAEXABVQString@@@Z 004504c6 f   qt-mt323:qt-mt323.dll
 0001:0004f4cc       ?setIconSet@QAction@@UAEXABVQIconSet@@@Z 004504cc f   qt-mt323:qt-mt323.dll
 0001:0004f4d2       ?qt_property@QAction@@UAE_NHHPAVQVariant@@@Z 004504d2 f   qt-mt323:qt-mt323.dll
 0001:0004f4d8       ?qt_emit@QAction@@UAE_NHPAUQUObject@@@Z 004504d8 f   qt-mt323:qt-mt323.dll
 0001:0004f4de       ?qt_invoke@QAction@@UAE_NHPAUQUObject@@@Z 004504de f   qt-mt323:qt-mt323.dll
 0001:0004f4e4       ?qt_cast@QAction@@UAEPAXPBD@Z 004504e4 f   qt-mt323:qt-mt323.dll
 0001:0004f4ea       ?className@QAction@@UBEPBDXZ 004504ea f   qt-mt323:qt-mt323.dll
 0001:0004f4f0       ?metaObject@QAction@@UBEPAVQMetaObject@@XZ 004504f0 f   qt-mt323:qt-mt323.dll
 0001:0004f4f6       ?menuDelPopup@QPopupMenu@@EAEXPAV1@@Z 004504f6 f   qt-mt323:qt-mt323.dll
 0001:0004f4fc       ?menuInsPopup@QPopupMenu@@EAEXPAV1@@Z 004504fc f   qt-mt323:qt-mt323.dll
 0001:0004f502       ?menuStateChanged@QPopupMenu@@EAEXXZ 00450502 f   qt-mt323:qt-mt323.dll
 0001:0004f508       ?menuContentsChanged@QPopupMenu@@EAEXXZ 00450508 f   qt-mt323:qt-mt323.dll
 0001:0004f50e       ?activateItemAt@QPopupMenu@@UAEXH@Z 0045050e f   qt-mt323:qt-mt323.dll
 0001:0004f514       ?setId@QMenuData@@UAEXHH@Z 00450514 f   qt-mt323:qt-mt323.dll
 0001:0004f51a       ?updateItem@QPopupMenu@@UAEXH@Z 0045051a f   qt-mt323:qt-mt323.dll
 0001:0004f520       ?setFirstItemActive@QPopupMenu@@EAEXXZ 00450520 f   qt-mt323:qt-mt323.dll
 0001:0004f526       ?setActiveItem@QPopupMenu@@UAEXH@Z 00450526 f   qt-mt323:qt-mt323.dll
 0001:0004f52c       ?setCheckable@QPopupMenu@@UAEX_N@Z 0045052c f   qt-mt323:qt-mt323.dll
 0001:0004f532       ?frameChanged@QPopupMenu@@EAEXXZ 00450532 f   qt-mt323:qt-mt323.dll
 0001:0004f538       ?drawContents@QPopupMenu@@MAEXPAVQPainter@@@Z 00450538 f   qt-mt323:qt-mt323.dll
 0001:0004f53e       ?focusNextPrevChild@QPopupMenu@@MAE_N_N@Z 0045053e f   qt-mt323:qt-mt323.dll
 0001:0004f544       ?enabledChange@QPopupMenu@@MAEX_N@Z 00450544 f   qt-mt323:qt-mt323.dll
 0001:0004f54a       ?styleChange@QPopupMenu@@MAEXAAVQStyle@@@Z 0045054a f   qt-mt323:qt-mt323.dll
 0001:0004f550       ?closeEvent@QPopupMenu@@MAEXPAVQCloseEvent@@@Z 00450550 f   qt-mt323:qt-mt323.dll
 0001:0004f556       ?paintEvent@QPopupMenu@@MAEXPAVQPaintEvent@@@Z 00450556 f   qt-mt323:qt-mt323.dll
 0001:0004f55c       ?leaveEvent@QPopupMenu@@MAEXPAVQEvent@@@Z 0045055c f   qt-mt323:qt-mt323.dll
 0001:0004f562       ?focusOutEvent@QPopupMenu@@MAEXPAVQFocusEvent@@@Z 00450562 f   qt-mt323:qt-mt323.dll
 0001:0004f568       ?focusInEvent@QPopupMenu@@MAEXPAVQFocusEvent@@@Z 00450568 f   qt-mt323:qt-mt323.dll
 0001:0004f56e       ?keyPressEvent@QPopupMenu@@MAEXPAVQKeyEvent@@@Z 0045056e f   qt-mt323:qt-mt323.dll
 0001:0004f574       ?mouseMoveEvent@QPopupMenu@@MAEXPAVQMouseEvent@@@Z 00450574 f   qt-mt323:qt-mt323.dll
 0001:0004f57a       ?mouseReleaseEvent@QPopupMenu@@MAEXPAVQMouseEvent@@@Z 0045057a f   qt-mt323:qt-mt323.dll
 0001:0004f580       ?mousePressEvent@QPopupMenu@@MAEXPAVQMouseEvent@@@Z 00450580 f   qt-mt323:qt-mt323.dll
 0001:0004f586       ?customWhatsThis@QPopupMenu@@UBE_NXZ 00450586 f   qt-mt323:qt-mt323.dll
 0001:0004f58c       ?sizeHint@QPopupMenu@@UBE?AVQSize@@XZ 0045058c f   qt-mt323:qt-mt323.dll
 0001:0004f592       ?hide@QPopupMenu@@UAEXXZ   00450592 f   qt-mt323:qt-mt323.dll
 0001:0004f598       ?show@QPopupMenu@@UAEXXZ   00450598 f   qt-mt323:qt-mt323.dll
 0001:0004f59e       ?setFont@QPopupMenu@@UAEXABVQFont@@@Z 0045059e f   qt-mt323:qt-mt323.dll
 0001:0004f5a4       ?timerEvent@QPopupMenu@@MAEXPAVQTimerEvent@@@Z 004505a4 f   qt-mt323:qt-mt323.dll
 0001:0004f5aa       ?qt_property@QPopupMenu@@UAE_NHHPAVQVariant@@@Z 004505aa f   qt-mt323:qt-mt323.dll
 0001:0004f5b0       ?qt_emit@QPopupMenu@@UAE_NHPAUQUObject@@@Z 004505b0 f   qt-mt323:qt-mt323.dll
 0001:0004f5b6       ?qt_invoke@QPopupMenu@@UAE_NHPAUQUObject@@@Z 004505b6 f   qt-mt323:qt-mt323.dll
 0001:0004f5bc       ?qt_cast@QPopupMenu@@UAEPAXPBD@Z 004505bc f   qt-mt323:qt-mt323.dll
 0001:0004f5c2       ?className@QPopupMenu@@UBEPBDXZ 004505c2 f   qt-mt323:qt-mt323.dll
 0001:0004f5c8       ?metaObject@QPopupMenu@@UBEPAVQMetaObject@@XZ 004505c8 f   qt-mt323:qt-mt323.dll
 0001:0004f5ce       ?setToolTipGroup@QMainWindow@@EAEXPAVQToolTipGroup@@@Z 004505ce f   qt-mt323:qt-mt323.dll
 0001:0004f5d4       ?setStatusBar@QMainWindow@@EAEXPAVQStatusBar@@@Z 004505d4 f   qt-mt323:qt-mt323.dll
 0001:0004f5da       ?setMenuBar@QMainWindow@@EAEXPAVQMenuBar@@@Z 004505da f   qt-mt323:qt-mt323.dll
 0001:0004f5e0       ?showDockMenu@QMainWindow@@MAE_NABVQPoint@@@Z 004505e0 f   qt-mt323:qt-mt323.dll
 0001:0004f5e6       ?setUpLayout@QMainWindow@@MAEXXZ 004505e6 f   qt-mt323:qt-mt323.dll
 0001:0004f5ec       ?customize@QMainWindow@@UAEXXZ 004505ec f   qt-mt323:qt-mt323.dll
 0001:0004f5f2       ?setAppropriate@QMainWindow@@UAEXPAVQDockWindow@@_N@Z 004505f2 f   qt-mt323:qt-mt323.dll
 0001:0004f5f8       ?whatsThis@QMainWindow@@UAEXXZ 004505f8 f   qt-mt323:qt-mt323.dll
 0001:0004f5fe       ?setDockMenuEnabled@QMainWindow@@UAEX_N@Z 004505fe f   qt-mt323:qt-mt323.dll
 0001:0004f604       ?setOpaqueMoving@QMainWindow@@UAEX_N@Z 00450604 f   qt-mt323:qt-mt323.dll
 0001:0004f60a       ?setDockWindowsMovable@QMainWindow@@UAEX_N@Z 0045060a f   qt-mt323:qt-mt323.dll
 0001:0004f610       ?setUsesTextLabel@QMainWindow@@UAEX_N@Z 00450610 f   qt-mt323:qt-mt323.dll
 0001:0004f616       ?setUsesBigPixmaps@QMainWindow@@UAEX_N@Z 00450616 f   qt-mt323:qt-mt323.dll
 0001:0004f61c       ?setRightJustification@QMainWindow@@UAEX_N@Z 0045061c f   qt-mt323:qt-mt323.dll
 0001:0004f622       ?isCustomizable@QMainWindow@@UBE_NXZ 00450622 f   qt-mt323:qt-mt323.dll
 0001:0004f628       ?dockingArea@QMainWindow@@UAEPAVQDockArea@@ABVQPoint@@@Z 00450628 f   qt-mt323:qt-mt323.dll
 0001:0004f62e       ?removeDockWindow@QMainWindow@@UAEXPAVQDockWindow@@@Z 0045062e f   qt-mt323:qt-mt323.dll
 0001:0004f634       ?moveDockWindow@QMainWindow@@UAEXPAVQDockWindow@@W4Dock@Qt@@@Z 00450634 f   qt-mt323:qt-mt323.dll
 0001:0004f63a       ?moveDockWindow@QMainWindow@@UAEXPAVQDockWindow@@W4Dock@Qt@@_NHH@Z 0045063a f   qt-mt323:qt-mt323.dll
 0001:0004f640       ?addDockWindow@QMainWindow@@UAEXPAVQDockWindow@@W4Dock@Qt@@_N@Z 00450640 f   qt-mt323:qt-mt323.dll
 0001:0004f646       ?addDockWindow@QMainWindow@@UAEXPAVQDockWindow@@ABVQString@@W4Dock@Qt@@_N@Z 00450646 f   qt-mt323:qt-mt323.dll
 0001:0004f64c       ?setDockEnabled@QMainWindow@@UAEXW4Dock@Qt@@_N@Z 0045064c f   qt-mt323:qt-mt323.dll
 0001:0004f652       ?setDockEnabled@QMainWindow@@UAEXPAVQDockWindow@@W4Dock@Qt@@_N@Z 00450652 f   qt-mt323:qt-mt323.dll
 0001:0004f658       ?setCentralWidget@QMainWindow@@UAEXPAVQWidget@@@Z 00450658 f   qt-mt323:qt-mt323.dll
 0001:0004f65e       ?styleChange@QMainWindow@@MAEXAAVQStyle@@@Z 0045065e f   qt-mt323:qt-mt323.dll
 0001:0004f664       ?paintEvent@QMainWindow@@MAEXPAVQPaintEvent@@@Z 00450664 f   qt-mt323:qt-mt323.dll
 0001:0004f66a       ?minimumSizeHint@QMainWindow@@UBE?AVQSize@@XZ 0045066a f   qt-mt323:qt-mt323.dll
 0001:0004f670       ?sizeHint@QMainWindow@@UBE?AVQSize@@XZ 00450670 f   qt-mt323:qt-mt323.dll
 0001:0004f676       ?hide@QMainWindow@@UAEXXZ  00450676 f   qt-mt323:qt-mt323.dll
 0001:0004f67c       ?childEvent@QMainWindow@@MAEXPAVQChildEvent@@@Z 0045067c f   qt-mt323:qt-mt323.dll
 0001:0004f682       ?eventFilter@QMainWindow@@UAE_NPAVQObject@@PAVQEvent@@@Z 00450682 f   qt-mt323:qt-mt323.dll
 0001:0004f688       ?event@QMainWindow@@MAE_NPAVQEvent@@@Z 00450688 f   qt-mt323:qt-mt323.dll
 0001:0004f68e       ?styleChange@QWorkspace@@MAEXAAVQStyle@@@Z 0045068e f   qt-mt323:qt-mt323.dll
 0001:0004f694       ?hideEvent@QWorkspace@@MAEXPAVQHideEvent@@@Z 00450694 f   qt-mt323:qt-mt323.dll
 0001:0004f69a       ?showEvent@QWorkspace@@MAEXPAVQShowEvent@@@Z 0045069a f   qt-mt323:qt-mt323.dll
 0001:0004f6a0       ?resizeEvent@QWorkspace@@MAEXPAVQResizeEvent@@@Z 004506a0 f   qt-mt323:qt-mt323.dll
 0001:0004f6a6       ?wheelEvent@QWorkspace@@MAEXPAVQWheelEvent@@@Z 004506a6 f   qt-mt323:qt-mt323.dll
 0001:0004f6ac       ?sizeHint@QWorkspace@@UBE?AVQSize@@XZ 004506ac f   qt-mt323:qt-mt323.dll
 0001:0004f6b2       ?setPaletteBackgroundPixmap@QWorkspace@@UAEXABVQPixmap@@@Z 004506b2 f   qt-mt323:qt-mt323.dll
 0001:0004f6b8       ?setPaletteBackgroundColor@QWorkspace@@UAEXABVQColor@@@Z 004506b8 f   qt-mt323:qt-mt323.dll
 0001:0004f6be       ?childEvent@QWorkspace@@MAEXPAVQChildEvent@@@Z 004506be f   qt-mt323:qt-mt323.dll
 0001:0004f6c4       ?eventFilter@QWorkspace@@MAE_NPAVQObject@@PAVQEvent@@@Z 004506c4 f   qt-mt323:qt-mt323.dll
 0001:0004f6ca       ?qt_property@QWorkspace@@UAE_NHHPAVQVariant@@@Z 004506ca f   qt-mt323:qt-mt323.dll
 0001:0004f6d0       ?qt_emit@QWorkspace@@UAE_NHPAUQUObject@@@Z 004506d0 f   qt-mt323:qt-mt323.dll
 0001:0004f6d6       ?qt_invoke@QWorkspace@@UAE_NHPAUQUObject@@@Z 004506d6 f   qt-mt323:qt-mt323.dll
 0001:0004f6dc       ?qt_cast@QWorkspace@@UAEPAXPBD@Z 004506dc f   qt-mt323:qt-mt323.dll
 0001:0004f6e2       ?className@QWorkspace@@UBEPBDXZ 004506e2 f   qt-mt323:qt-mt323.dll
 0001:0004f6e8       ?metaObject@QWorkspace@@UBEPAVQMetaObject@@XZ 004506e8 f   qt-mt323:qt-mt323.dll
 0001:0004f6ee       ?clear@QToolBar@@UAEXXZ    004506ee f   qt-mt323:qt-mt323.dll
 0001:0004f6f4       ?setLabel@QToolBar@@UAEXABVQString@@@Z 004506f4 f   qt-mt323:qt-mt323.dll
 0001:0004f6fa       ?setStretchableWidget@QToolBar@@UAEXPAVQWidget@@@Z 004506fa f   qt-mt323:qt-mt323.dll
 0001:0004f700       ?setOrientation@QToolBar@@UAEXW4Orientation@Qt@@@Z 00450700 f   qt-mt323:qt-mt323.dll
 0001:0004f706       ?styleChange@QToolBar@@MAEXAAVQStyle@@@Z 00450706 f   qt-mt323:qt-mt323.dll
 0001:0004f70c       ?resizeEvent@QToolBar@@MAEXPAVQResizeEvent@@@Z 0045070c f   qt-mt323:qt-mt323.dll
 0001:0004f712       ?minimumSizeHint@QToolBar@@UBE?AVQSize@@XZ 00450712 f   qt-mt323:qt-mt323.dll
 0001:0004f718       ?hide@QToolBar@@UAEXXZ     00450718 f   qt-mt323:qt-mt323.dll
 0001:0004f71e       ?show@QToolBar@@UAEXXZ     0045071e f   qt-mt323:qt-mt323.dll
 0001:0004f724       ?setMinimumSize@QToolBar@@UAEXHH@Z 00450724 f   qt-mt323:qt-mt323.dll
 0001:0004f72a       ?event@QToolBar@@UAE_NPAVQEvent@@@Z 0045072a f   qt-mt323:qt-mt323.dll
 0001:0004f730       ?qt_property@QToolBar@@UAE_NHHPAVQVariant@@@Z 00450730 f   qt-mt323:qt-mt323.dll
 0001:0004f736       ?qt_emit@QToolBar@@UAE_NHPAUQUObject@@@Z 00450736 f   qt-mt323:qt-mt323.dll
 0001:0004f73c       ?qt_invoke@QToolBar@@UAE_NHPAUQUObject@@@Z 0045073c f   qt-mt323:qt-mt323.dll
 0001:0004f742       ?qt_cast@QToolBar@@UAEPAXPBD@Z 00450742 f   qt-mt323:qt-mt323.dll
 0001:0004f748       ?className@QToolBar@@UBEPBDXZ 00450748 f   qt-mt323:qt-mt323.dll
 0001:0004f74e       ?metaObject@QToolBar@@UBEPAVQMetaObject@@XZ 0045074e f   qt-mt323:qt-mt323.dll
 0001:0004f754       ?start@QProcess@@UAE_NPAVQStringList@@@Z 00450754 f   qt-mt323:qt-mt323.dll
 0001:0004f75a       ?addArgument@QProcess@@UAEXABVQString@@@Z 0045075a f   qt-mt323:qt-mt323.dll
 0001:0004f760       ?deleteItem@?$QPtrList@VQWidget@@@@EAEXPAX@Z 00450760 f   qt-mt323:qt-mt323.dll
 0001:0004f766       ?clear@?$QPtrList@VQWidget@@@@UAEXXZ 00450766 f   qt-mt323:qt-mt323.dll
 0001:0004f76c       ?count@?$QPtrList@VQWidget@@@@UBEIXZ 0045076c f   qt-mt323:qt-mt323.dll
 0001:0004f772       ?closeStdin@QProcess@@UAEXXZ 00450772 f   qt-mt323:qt-mt323.dll
 0001:0004f778       ?writeToStdin@QProcess@@UAEXABV?$QMemArray@D@@@Z 00450778 f   qt-mt323:qt-mt323.dll
 0001:0004f77e       ?writeToStdin@QProcess@@UAEXABVQString@@@Z 0045077e f   qt-mt323:qt-mt323.dll
 0001:0004f784       ?readLineStderr@QProcess@@UAE?AVQString@@XZ 00450784 f   qt-mt323:qt-mt323.dll
 0001:0004f78a       ?readLineStdout@QProcess@@UAE?AVQString@@XZ 0045078a f   qt-mt323:qt-mt323.dll
 0001:0004f790       ?readStderr@QProcess@@UAE?AV?$QMemArray@D@@XZ 00450790 f   qt-mt323:qt-mt323.dll
 0001:0004f796       ?readStdout@QProcess@@UAE?AV?$QMemArray@D@@XZ 00450796 f   qt-mt323:qt-mt323.dll
 0001:0004f79c       ?launch@QProcess@@UAE_NABVQString@@PAVQStringList@@@Z 0045079c f   qt-mt323:qt-mt323.dll
 0001:0004f7a2       ?launch@QProcess@@UAE_NABV?$QMemArray@D@@PAVQStringList@@@Z 004507a2 f   qt-mt323:qt-mt323.dll
 0001:0004f7a8       ?setWorkingDirectory@QProcess@@UAEXABVQDir@@@Z 004507a8 f   qt-mt323:qt-mt323.dll
 0001:0004f7ae       ?setArguments@QProcess@@UAEXABVQStringList@@@Z 004507ae f   qt-mt323:qt-mt323.dll
 0001:0004f7b4       ?disconnectNotify@QProcess@@MAEXPBD@Z 004507b4 f   qt-mt323:qt-mt323.dll
 0001:0004f7ba       ?connectNotify@QProcess@@MAEXPBD@Z 004507ba f   qt-mt323:qt-mt323.dll
 0001:0004f7c0       ?qt_property@QProcess@@UAE_NHHPAVQVariant@@@Z 004507c0 f   qt-mt323:qt-mt323.dll
 0001:0004f7c6       ?qt_emit@QProcess@@UAE_NHPAUQUObject@@@Z 004507c6 f   qt-mt323:qt-mt323.dll
 0001:0004f7cc       ?qt_invoke@QProcess@@UAE_NHPAUQUObject@@@Z 004507cc f   qt-mt323:qt-mt323.dll
 0001:0004f7d2       ?qt_cast@QProcess@@UAEPAXPBD@Z 004507d2 f   qt-mt323:qt-mt323.dll
 0001:0004f7d8       ?className@QProcess@@UBEPBDXZ 004507d8 f   qt-mt323:qt-mt323.dll
 0001:0004f7de       ?metaObject@QProcess@@UBEPAVQMetaObject@@XZ 004507de f   qt-mt323:qt-mt323.dll
 0001:0004f7e4       ?stepChange@QRangeControl@@MAEXXZ 004507e4 f   qt-mt323:qt-mt323.dll
 0001:0004f7ea       ?rangeChange@QSpinBox@@MAEXXZ 004507ea f   qt-mt323:qt-mt323.dll
 0001:0004f7f0       ?valueChange@QSpinBox@@MAEXXZ 004507f0 f   qt-mt323:qt-mt323.dll
 0001:0004f7f6       ?interpretText@QSpinBox@@MAEXXZ 004507f6 f   qt-mt323:qt-mt323.dll
 0001:0004f7fc       ?updateDisplay@QSpinBox@@MAEXXZ 004507fc f   qt-mt323:qt-mt323.dll
 0001:0004f802       ?mapTextToValue@QSpinBox@@MAEHPA_N@Z 00450802 f   qt-mt323:qt-mt323.dll
 0001:0004f808       ?mapValueToText@QSpinBox@@MAE?AVQString@@H@Z 00450808 f   qt-mt323:qt-mt323.dll
 0001:0004f80e       ?selectAll@QSpinBox@@UAEXXZ 0045080e f   qt-mt323:qt-mt323.dll
 0001:0004f814       ?stepDown@QSpinBox@@UAEXXZ 00450814 f   qt-mt323:qt-mt323.dll
 0001:0004f81a       ?stepUp@QSpinBox@@UAEXXZ   0045081a f   qt-mt323:qt-mt323.dll
 0001:0004f820       ?setSuffix@QSpinBox@@UAEXABVQString@@@Z 00450820 f   qt-mt323:qt-mt323.dll
 0001:0004f826       ?setPrefix@QSpinBox@@UAEXABVQString@@@Z 00450826 f   qt-mt323:qt-mt323.dll
 0001:0004f82c       ?setValue@QSpinBox@@UAEXH@Z 0045082c f   qt-mt323:qt-mt323.dll
 0001:0004f832       ?setValidator@QSpinBox@@UAEXPBVQValidator@@@Z 00450832 f   qt-mt323:qt-mt323.dll
 0001:0004f838       ?setButtonSymbols@QSpinBox@@UAEXW4ButtonSymbols@1@@Z 00450838 f   qt-mt323:qt-mt323.dll
 0001:0004f83e       ?setWrapping@QSpinBox@@UAEX_N@Z 0045083e f   qt-mt323:qt-mt323.dll
 0001:0004f844       ?setSpecialValueText@QSpinBox@@UAEXABVQString@@@Z 00450844 f   qt-mt323:qt-mt323.dll
 0001:0004f84a       ?cleanText@QSpinBox@@UBE?AVQString@@XZ 0045084a f   qt-mt323:qt-mt323.dll
 0001:0004f850       ?suffix@QSpinBox@@UBE?AVQString@@XZ 00450850 f   qt-mt323:qt-mt323.dll
 0001:0004f856       ?prefix@QSpinBox@@UBE?AVQString@@XZ 00450856 f   qt-mt323:qt-mt323.dll
 0001:0004f85c       ?styleChange@QSpinBox@@MAEXAAVQStyle@@@Z 0045085c f   qt-mt323:qt-mt323.dll
 0001:0004f862       ?resizeEvent@QSpinBox@@MAEXPAVQResizeEvent@@@Z 00450862 f   qt-mt323:qt-mt323.dll
 0001:0004f868       ?leaveEvent@QSpinBox@@MAEXPAVQEvent@@@Z 00450868 f   qt-mt323:qt-mt323.dll
 0001:0004f86e       ?wheelEvent@QSpinBox@@MAEXPAVQWheelEvent@@@Z 0045086e f   qt-mt323:qt-mt323.dll
 0001:0004f874       ?minimumSizeHint@QSpinBox@@UBE?AVQSize@@XZ 00450874 f   qt-mt323:qt-mt323.dll
 0001:0004f87a       ?sizeHint@QSpinBox@@UBE?AVQSize@@XZ 0045087a f   qt-mt323:qt-mt323.dll
 0001:0004f880       ?setEnabled@QSpinBox@@UAEX_N@Z 00450880 f   qt-mt323:qt-mt323.dll
 0001:0004f886       ?eventFilter@QSpinBox@@MAE_NPAVQObject@@PAVQEvent@@@Z 00450886 f   qt-mt323:qt-mt323.dll
 0001:0004f88c       ?qt_property@QSpinBox@@UAE_NHHPAVQVariant@@@Z 0045088c f   qt-mt323:qt-mt323.dll
 0001:0004f892       ?qt_emit@QSpinBox@@UAE_NHPAUQUObject@@@Z 00450892 f   qt-mt323:qt-mt323.dll
 0001:0004f898       ?qt_invoke@QSpinBox@@UAE_NHPAUQUObject@@@Z 00450898 f   qt-mt323:qt-mt323.dll
 0001:0004f89e       ?qt_cast@QSpinBox@@UAEPAXPBD@Z 0045089e f   qt-mt323:qt-mt323.dll
 0001:0004f8a4       ?className@QSpinBox@@UBEPBDXZ 004508a4 f   qt-mt323:qt-mt323.dll
 0001:0004f8aa       ?metaObject@QSpinBox@@UBEPAVQMetaObject@@XZ 004508aa f   qt-mt323:qt-mt323.dll
 0001:0004f8b0       ?event@QGroupBox@@MAE_NPAVQEvent@@@Z 004508b0 f   qt-mt323:qt-mt323.dll
 0001:0004f8b6       ?qt_property@QGroupBox@@UAE_NHHPAVQVariant@@@Z 004508b6 f   qt-mt323:qt-mt323.dll
 0001:0004f8bc       ?qt_emit@QGroupBox@@UAE_NHPAUQUObject@@@Z 004508bc f   qt-mt323:qt-mt323.dll
 0001:0004f8c2       ?qt_invoke@QGroupBox@@UAE_NHPAUQUObject@@@Z 004508c2 f   qt-mt323:qt-mt323.dll
 0001:0004f8c8       ?qt_cast@QGroupBox@@UAEPAXPBD@Z 004508c8 f   qt-mt323:qt-mt323.dll
 0001:0004f8ce       ?className@QGroupBox@@UBEPBDXZ 004508ce f   qt-mt323:qt-mt323.dll
 0001:0004f8d4       ?metaObject@QGroupBox@@UBEPAVQMetaObject@@XZ 004508d4 f   qt-mt323:qt-mt323.dll
 0001:0004f8da       ?iterator@QGridLayout@@UAE?AVQLayoutIterator@@XZ 004508da f   qt-mt323:qt-mt323.dll
 0001:0004f8e0       ?invalidate@QGridLayout@@UAEXXZ 004508e0 f   qt-mt323:qt-mt323.dll
 0001:0004f8e6       ?heightForWidth@QGridLayout@@UBEHH@Z 004508e6 f   qt-mt323:qt-mt323.dll
 0001:0004f8ec       ?hasHeightForWidth@QGridLayout@@UBE_NXZ 004508ec f   qt-mt323:qt-mt323.dll
 0001:0004f8f2       ?setGeometry@QGridLayout@@UAEXABVQRect@@@Z 004508f2 f   qt-mt323:qt-mt323.dll
 0001:0004f8f8       ?expanding@QGridLayout@@UBE?AW4ExpandData@QSizePolicy@@XZ 004508f8 f   qt-mt323:qt-mt323.dll
 0001:0004f8fe       ?maximumSize@QGridLayout@@UBE?AVQSize@@XZ 004508fe f   qt-mt323:qt-mt323.dll
 0001:0004f904       ?minimumSize@QGridLayout@@UBE?AVQSize@@XZ 00450904 f   qt-mt323:qt-mt323.dll
 0001:0004f90a       ?sizeHint@QGridLayout@@UBE?AVQSize@@XZ 0045090a f   qt-mt323:qt-mt323.dll
 0001:0004f910       ?setColStretch@QGridLayout@@UAEXHH@Z 00450910 f   qt-mt323:qt-mt323.dll
 0001:0004f916       ?setRowStretch@QGridLayout@@UAEXHH@Z 00450916 f   qt-mt323:qt-mt323.dll
 0001:0004f91c       ?addItem@QGridLayout@@UAEXPAVQLayoutItem@@@Z 0045091c f   qt-mt323:qt-mt323.dll
 0001:0004f922       ?qt_property@QGridLayout@@UAE_NHHPAVQVariant@@@Z 00450922 f   qt-mt323:qt-mt323.dll
 0001:0004f928       ?qt_emit@QGridLayout@@UAE_NHPAUQUObject@@@Z 00450928 f   qt-mt323:qt-mt323.dll
 0001:0004f92e       ?qt_invoke@QGridLayout@@UAE_NHPAUQUObject@@@Z 0045092e f   qt-mt323:qt-mt323.dll
 0001:0004f934       ?qt_cast@QGridLayout@@UAEPAXPBD@Z 00450934 f   qt-mt323:qt-mt323.dll
 0001:0004f93a       ?className@QGridLayout@@UBEPBDXZ 0045093a f   qt-mt323:qt-mt323.dll
 0001:0004f940       ?metaObject@QGridLayout@@UBEPAVQMetaObject@@XZ 00450940 f   qt-mt323:qt-mt323.dll
 0001:0004f946       ?startDrag@QIconView@@MAEXXZ 00450946 f   qt-mt323:qt-mt323.dll
 0001:0004f94c       ?qt_property@QTextEdit@@UAE_NHHPAVQVariant@@@Z 0045094c f   qt-mt323:qt-mt323.dll
 0001:0004f952       ?qt_emit@QTextEdit@@UAE_NHPAUQUObject@@@Z 00450952 f   qt-mt323:qt-mt323.dll
 0001:0004f958       ?qt_invoke@QTextEdit@@UAE_NHPAUQUObject@@@Z 00450958 f   qt-mt323:qt-mt323.dll
 0001:0004f95e       ?qt_cast@QTextEdit@@UAEPAXPBD@Z 0045095e f   qt-mt323:qt-mt323.dll
 0001:0004f964       ?className@QTextEdit@@UBEPBDXZ 00450964 f   qt-mt323:qt-mt323.dll
 0001:0004f96a       ?metaObject@QTextEdit@@UBEPAVQMetaObject@@XZ 0045096a f   qt-mt323:qt-mt323.dll
 0001:0004f970       ?paintCell@QListBox@@MAEXPAVQPainter@@HH@Z 00450970 f   qt-mt323:qt-mt323.dll
 0001:0004f976       ?invertSelection@QListBox@@UAEXXZ 00450976 f   qt-mt323:qt-mt323.dll
 0001:0004f97c       ?selectAll@QListBox@@UAEX_N@Z 0045097c f   qt-mt323:qt-mt323.dll
 0001:0004f982       ?clearSelection@QListBox@@UAEXXZ 00450982 f   qt-mt323:qt-mt323.dll
 0001:0004f988       ?ensureCurrentVisible@QListBox@@UAEXXZ 00450988 f   qt-mt323:qt-mt323.dll
 0001:0004f98e       ?setVariableHeight@QListBox@@UAEX_N@Z 0045098e f   qt-mt323:qt-mt323.dll
 0001:0004f994       ?setVariableWidth@QListBox@@UAEX_N@Z 00450994 f   qt-mt323:qt-mt323.dll
 0001:0004f99a       ?setRowMode@QListBox@@UAEXW4LayoutMode@1@@Z 0045099a f   qt-mt323:qt-mt323.dll
 0001:0004f9a0       ?setRowMode@QListBox@@UAEXH@Z 004509a0 f   qt-mt323:qt-mt323.dll
 0001:0004f9a6       ?setColumnMode@QListBox@@UAEXW4LayoutMode@1@@Z 004509a6 f   qt-mt323:qt-mt323.dll
 0001:0004f9ac       ?setColumnMode@QListBox@@UAEXH@Z 004509ac f   qt-mt323:qt-mt323.dll
 0001:0004f9b2       ?setSelected@QListBox@@UAEXPAVQListBoxItem@@_N@Z 004509b2 f   qt-mt323:qt-mt323.dll
 0001:0004f9b8       ?setSelectionMode@QListBox@@UAEXW4SelectionMode@1@@Z 004509b8 f   qt-mt323:qt-mt323.dll
 0001:0004f9be       ?setBottomItem@QListBox@@UAEXH@Z 004509be f   qt-mt323:qt-mt323.dll
 0001:0004f9c4       ?setTopItem@QListBox@@UAEXH@Z 004509c4 f   qt-mt323:qt-mt323.dll
 0001:0004f9ca       ?setCurrentItem@QListBox@@UAEXH@Z 004509ca f   qt-mt323:qt-mt323.dll
 0001:0004f9d0       ?setCurrentItem@QListBox@@UAEXPAVQListBoxItem@@@Z 004509d0 f   qt-mt323:qt-mt323.dll
 0001:0004f9d6       ?viewportPaintEvent@QListBox@@UAEXPAVQPaintEvent@@@Z 004509d6 f   qt-mt323:qt-mt323.dll
 0001:0004f9dc       ?contentsContextMenuEvent@QListBox@@MAEXPAVQContextMenuEvent@@@Z 004509dc f   qt-mt323:qt-mt323.dll
 0001:0004f9e2       ?windowActivationChange@QListBox@@MAEX_N@Z 004509e2 f   qt-mt323:qt-mt323.dll
 0001:0004f9e8       ?showEvent@QListBox@@MAEXPAVQShowEvent@@@Z 004509e8 f   qt-mt323:qt-mt323.dll
 0001:0004f9ee       ?resizeEvent@QListBox@@MAEXPAVQResizeEvent@@@Z 004509ee f   qt-mt323:qt-mt323.dll
 0001:0004f9f4       ?focusOutEvent@QListBox@@MAEXPAVQFocusEvent@@@Z 004509f4 f   qt-mt323:qt-mt323.dll
 0001:0004f9fa       ?focusInEvent@QListBox@@MAEXPAVQFocusEvent@@@Z 004509fa f   qt-mt323:qt-mt323.dll
 0001:0004fa00       ?keyPressEvent@QListBox@@MAEXPAVQKeyEvent@@@Z 00450a00 f   qt-mt323:qt-mt323.dll
 0001:0004fa06       ?mouseMoveEvent@QListBox@@MAEXPAVQMouseEvent@@@Z 00450a06 f   qt-mt323:qt-mt323.dll
 0001:0004fa0c       ?mouseDoubleClickEvent@QListBox@@MAEXPAVQMouseEvent@@@Z 00450a0c f   qt-mt323:qt-mt323.dll
 0001:0004fa12       ?mouseReleaseEvent@QListBox@@MAEXPAVQMouseEvent@@@Z 00450a12 f   qt-mt323:qt-mt323.dll
 0001:0004fa18       ?mousePressEvent@QListBox@@MAEXPAVQMouseEvent@@@Z 00450a18 f   qt-mt323:qt-mt323.dll
 0001:0004fa1e       ?minimumSizeHint@QListBox@@UBE?AVQSize@@XZ 00450a1e f   qt-mt323:qt-mt323.dll
 0001:0004fa24       ?sizeHint@QListBox@@UBE?AVQSize@@XZ 00450a24 f   qt-mt323:qt-mt323.dll
 0001:0004fa2a       ?setFont@QListBox@@UAEXABVQFont@@@Z 00450a2a f   qt-mt323:qt-mt323.dll
 0001:0004fa30       ?eventFilter@QListBox@@MAE_NPAVQObject@@PAVQEvent@@@Z 00450a30 f   qt-mt323:qt-mt323.dll
 0001:0004fa36       ?qt_property@QListBox@@UAE_NHHPAVQVariant@@@Z 00450a36 f   qt-mt323:qt-mt323.dll
 0001:0004fa3c       ?qt_emit@QListBox@@UAE_NHPAUQUObject@@@Z 00450a3c f   qt-mt323:qt-mt323.dll
 0001:0004fa42       ?qt_invoke@QListBox@@UAE_NHPAUQUObject@@@Z 00450a42 f   qt-mt323:qt-mt323.dll
 0001:0004fa48       ?qt_cast@QListBox@@UAEPAXPBD@Z 00450a48 f   qt-mt323:qt-mt323.dll
 0001:0004fa4e       ?className@QListBox@@UBEPBDXZ 00450a4e f   qt-mt323:qt-mt323.dll
 0001:0004fa54       ?metaObject@QListBox@@UBEPAVQMetaObject@@XZ 00450a54 f   qt-mt323:qt-mt323.dll
 0001:0004fa5a       ?saveState@QApplication@@UAEXAAVQSessionManager@@@Z 00450a5a f   qt-mt323:qt-mt323.dll
 0001:0004fa60       ?commitData@QApplication@@UAEXAAVQSessionManager@@@Z 00450a60 f   qt-mt323:qt-mt323.dll
 0001:0004fa66       ?notify@QApplication@@UAE_NPAVQObject@@PAVQEvent@@@Z 00450a66 f   qt-mt323:qt-mt323.dll
 0001:0004fa6c       ?polish@QApplication@@UAEXPAVQWidget@@@Z 00450a6c f   qt-mt323:qt-mt323.dll
 0001:0004fa72       ?event@QApplication@@MAE_NPAVQEvent@@@Z 00450a72 f   qt-mt323:qt-mt323.dll
 0001:0004fa78       ??3@YAXPAX@Z               00450a78 f   MSVCRT:MSVCRT.dll
 0001:0004fa7e       ??2@YAPAXI@Z               00450a7e f   MSVCRT:MSVCRT.dll
 0001:0004fa84       ___CxxFrameHandler         00450a84 f   MSVCRT:MSVCRT.dll
 0001:0004fa90       __purecall                 00450a90 f   MSVCRT:MSVCRT.dll
 0001:0004fa96       ??_M@YGXPAXIHP6EX0@Z@Z     00450a96 f   MSVCRT:ehvecdtr.obj
 0001:0004fb16       ?__ArrayUnwind@@YGXPAXIHP6EX0@Z@Z 00450b16 f   MSVCRT:ehvecdtr.obj
 0001:0004fb8a       __onexit                   00450b8a f   MSVCRT:atonexit.obj
 0001:0004fbb6       _atexit                    00450bb6 f   MSVCRT:atonexit.obj
 0001:0004fbc8       ??_L@YGXPAXIHP6EX0@Z1@Z    00450bc8 f   MSVCRT:ehvecctr.obj
 0001:0004fc4a       _WinMainCRTStartup         00450c4a f   MSVCRT:crtexew.obj
 0001:0004fda8       __except_handler3          00450da8 f   MSVCRT:MSVCRT.dll
 0001:0004fdae       ?terminate@@YAXXZ          00450dae f   MSVCRT:MSVCRT.dll
 0001:0004fdb4       ___dllonexit               00450db4 f   MSVCRT:MSVCRT.dll
 0001:0004fdba       __XcptFilter               00450dba f   MSVCRT:MSVCRT.dll
 0001:0004fdc0       __initterm                 00450dc0 f   MSVCRT:MSVCRT.dll
 0001:0004fdc6       __setdefaultprecision      00450dc6 f   MSVCRT:fp8.obj
 0001:0004fdd8       __matherr                  00450dd8 f   MSVCRT:merr.obj
 0001:0004fddb       __setargv                  00450ddb f   MSVCRT:dllargv.obj
 0001:0004fddc       __controlfp                00450ddc f   MSVCRT:MSVCRT.dll
 0001:0004fde2       _WinMain@16                00450de2 f   qtmain:qtmain_win.obj
 0001:0004fe6f       ?detach@?$QMemArray@PAD@@UAEXXZ 00450e6f f i qtmain:qtmain_win.obj
 0001:0004fe77       ??_G?$QMemArray@PAD@@UAEPAXI@Z 00450e77 f i qtmain:qtmain_win.obj
 0001:0004fe77       ??_E?$QMemArray@PAD@@UAEPAXI@Z 00450e77 f i qtmain:qtmain_win.obj
 0001:0004fe9a       _strcpy                    00450e9a f   MSVCRT:MSVCRT.dll
 0001:0004fea0       _strlen                    00450ea0 f   MSVCRT:MSVCRT.dll
 0001:0004fea6       ?deleteData@QGArray@@MAEXPAUarray_data@1@@Z 00450ea6 f   qt-mt323:qt-mt323.dll
 0001:0004feac       ?newData@QGArray@@MAEPAUarray_data@1@XZ 00450eac f   qt-mt323:qt-mt323.dll
 0001:0004feb2       ?qWinMain@@YAXPAUHINSTANCE__@@0PADHAAHAAV?$QMemArray@PAD@@@Z 00450eb2 f   qt-mt323:qt-mt323.dll
 0002:00000000       __imp__RegQueryValueExA@24 0045c000     advapi32:ADVAPI32.dll
 0002:00000004       __imp__RegOpenKeyExA@20    0045c004     advapi32:ADVAPI32.dll
 0002:00000008       __imp__RegCloseKey@4       0045c008     advapi32:ADVAPI32.dll
 0002:0000000c       \177ADVAPI32_NULL_THUNK_DATA 0045c00c     advapi32:ADVAPI32.dll
 0002:00000010       __imp__GetModuleHandleA@4  0045c010     kernel32:KERNEL32.dll
 0002:00000014       __imp__WritePrivateProfileStringA@16 0045c014     kernel32:KERNEL32.dll
 0002:00000018       __imp__GetProcAddress@8    0045c018     kernel32:KERNEL32.dll
 0002:0000001c       __imp__GetStartupInfoA@4   0045c01c     kernel32:KERNEL32.dll
 0002:00000020       __imp__GetPrivateProfileStringA@24 0045c020     kernel32:KERNEL32.dll
 0002:00000024       __imp__GetPrivateProfileIntA@16 0045c024     kernel32:KERNEL32.dll
 0002:00000028       __imp__LoadLibraryA@4      0045c028     kernel32:KERNEL32.dll
 0002:0000002c       \177KERNEL32_NULL_THUNK_DATA 0045c02c     kernel32:KERNEL32.dll
 0002:00000030       __imp_??0_Lockit@std@@QAE@XZ 0045c030     msvcprt:MSVCP60.dll
 0002:00000034       __imp_??1_Lockit@std@@QAE@XZ 0045c034     msvcprt:MSVCP60.dll
 0002:00000038       \177MSVCP60_NULL_THUNK_DATA 0045c038     msvcprt:MSVCP60.dll
 0002:0000003c       __imp____dllonexit         0045c03c     MSVCRT:MSVCRT.dll
 0002:00000040       __imp___onexit             0045c040     MSVCRT:MSVCRT.dll
 0002:00000044       __imp___exit               0045c044     MSVCRT:MSVCRT.dll
 0002:00000048       __imp___XcptFilter         0045c048     MSVCRT:MSVCRT.dll
 0002:0000004c       __imp_?terminate@@YAXXZ    0045c04c     MSVCRT:MSVCRT.dll
 0002:00000050       __imp___acmdln             0045c050     MSVCRT:MSVCRT.dll
 0002:00000054       __imp____getmainargs       0045c054     MSVCRT:MSVCRT.dll
 0002:00000058       __imp___initterm           0045c058     MSVCRT:MSVCRT.dll
 0002:0000005c       __imp____setusermatherr    0045c05c     MSVCRT:MSVCRT.dll
 0002:00000060       __imp___adjust_fdiv        0045c060     MSVCRT:MSVCRT.dll
 0002:00000064       __imp____p__commode        0045c064     MSVCRT:MSVCRT.dll
 0002:00000068       __imp___except_handler3    0045c068     MSVCRT:MSVCRT.dll
 0002:0000006c       __imp___chdir              0045c06c     MSVCRT:MSVCRT.dll
 0002:00000070       __imp___purecall           0045c070     MSVCRT:MSVCRT.dll
 0002:00000074       __imp__getenv              0045c074     MSVCRT:MSVCRT.dll
 0002:00000078       __imp____p__fmode          0045c078     MSVCRT:MSVCRT.dll
 0002:0000007c       __imp____set_app_type      0045c07c     MSVCRT:MSVCRT.dll
 0002:00000080       __imp__strcpy              0045c080     MSVCRT:MSVCRT.dll
 0002:00000084       __imp__strlen              0045c084     MSVCRT:MSVCRT.dll
 0002:00000088       __imp____CxxFrameHandler   0045c088     MSVCRT:MSVCRT.dll
 0002:0000008c       __imp_??2@YAPAXI@Z         0045c08c     MSVCRT:MSVCRT.dll
 0002:00000090       __imp_??3@YAXPAX@Z         0045c090     MSVCRT:MSVCRT.dll
 0002:00000094       __imp__exit                0045c094     MSVCRT:MSVCRT.dll
 0002:00000098       __imp___controlfp          0045c098     MSVCRT:MSVCRT.dll
 0002:0000009c       \177MSVCRT_NULL_THUNK_DATA 0045c09c     MSVCRT:MSVCRT.dll
 0002:000000a0       __imp__ShellExecuteA@24    0045c0a0     shell32:SHELL32.dll
 0002:000000a4       \177SHELL32_NULL_THUNK_DATA 0045c0a4     shell32:SHELL32.dll
 0002:000000a8       __imp__SendMessageTimeoutA@28 0045c0a8     user32:USER32.dll
 0002:000000ac       __imp__FindWindowA@8       0045c0ac     user32:USER32.dll
 0002:000000b0       __imp__GetForegroundWindow@0 0045c0b0     user32:USER32.dll
 0002:000000b4       __imp__GetWindowThreadProcessId@8 0045c0b4     user32:USER32.dll
 0002:000000b8       __imp__AttachThreadInput@12 0045c0b8     user32:USER32.dll
 0002:000000bc       __imp__SystemParametersInfoA@16 0045c0bc     user32:USER32.dll
 0002:000000c0       __imp__IsIconic@4          0045c0c0     user32:USER32.dll
 0002:000000c4       __imp__ShowWindow@8        0045c0c4     user32:USER32.dll
 0002:000000c8       __imp__SetForegroundWindow@4 0045c0c8     user32:USER32.dll
 0002:000000cc       \177USER32_NULL_THUNK_DATA 0045c0cc     user32:USER32.dll
 0002:000000d0       __imp_??0bncs_stylesheet@@QAE@XZ 0045c0d0     bncs_cachedData:bncs_cachedData.dll
 0002:000000d4       __imp_?stylelist@bncs_stylesheet@@QAE?BV?$QMap@VQString@@Vstyleentry@@@@XZ 0045c0d4     bncs_cachedData:bncs_cachedData.dll
 0002:000000d8       __imp_??1styleentry@@QAE@XZ 0045c0d8     bncs_cachedData:bncs_cachedData.dll
 0002:000000dc       __imp_??4styleentry@@QAEAAV0@ABV0@@Z 0045c0dc     bncs_cachedData:bncs_cachedData.dll
 0002:000000e0       __imp_??0styleentry@@QAE@XZ 0045c0e0     bncs_cachedData:bncs_cachedData.dll
 0002:000000e4       \177bncs_cachedData_NULL_THUNK_DATA 0045c0e4     bncs_cachedData:bncs_cachedData.dll
 0002:000000e8       __imp_?create@dCW@@QAEPAVQWidget@@ABVQString@@PAVQObject@@PAV2@PBD_N4NN44@Z 0045c0e8     dcw:dcw.dll
 0002:000000ec       __imp_??1dCW@@UAE@XZ       0045c0ec     dcw:dcw.dll
 0002:000000f0       __imp_?enableCache@dCW@@SAX_N@Z 0045c0f0     dcw:dcw.dll
 0002:000000f4       __imp_??0dCW@@QAE@XZ       0045c0f4     dcw:dcw.dll
 0002:000000f8       __imp_?connectionList@dCW@@QAE?AVsignalConnectionRefList@@XZ 0045c0f8     dcw:dcw.dll
 0002:000000fc       __imp_?parseXML@dCW@@QAEPAVQWidget@@AAVQDomDocument@@PAV2@VQPoint@@_N3VQString@@@Z 0045c0fc     dcw:dcw.dll
 0002:00000100       __imp_?parseXML@dCW@@QAEPAVQWidget@@AAVQDomDocument@@PAV2@VQPoint@@_N33VQString@@@Z 0045c100     dcw:dcw.dll
 0002:00000104       __imp_?checkNameUnique@dCW@@SA_NPAVQWidget@@ABVQString@@AAV3@@Z 0045c104     dcw:dcw.dll
 0002:00000108       __imp_?setDesignTime@dCW@@SAX_N@Z 0045c108     dcw:dcw.dll
 0002:0000010c       \177dcw_NULL_THUNK_DATA    0045c10c     dcw:dcw.dll
 0002:00000110       __imp_?toInt@QString@@QBEHPA_NH@Z 0045c110     qt-mt323:qt-mt323.dll
 0002:00000114       __imp_?arg@QString@@QBE?AV1@ABV1@H@Z 0045c114     qt-mt323:qt-mt323.dll
 0002:00000118       __imp_??YQString@@QAEAAV0@ABV0@@Z 0045c118     qt-mt323:qt-mt323.dll
 0002:0000011c       __imp_??4QString@@QAEAAV0@PBD@Z 0045c11c     qt-mt323:qt-mt323.dll
 0002:00000120       __imp_?prepend@QString@@QAEAAV1@PBD@Z 0045c120     qt-mt323:qt-mt323.dll
 0002:00000124       __imp_??9@YA_NABVQString@@PBD@Z 0045c124     qt-mt323:qt-mt323.dll
 0002:00000128       __imp_?left@QString@@QBE?AV1@I@Z 0045c128     qt-mt323:qt-mt323.dll
 0002:0000012c       __imp_?attribute@QDomElement@@QBE?AVQString@@ABV2@0@Z 0045c12c     qt-mt323:qt-mt323.dll
 0002:00000130       __imp_?null@QString@@2V1@A 0045c130     qt-mt323:qt-mt323.dll
 0002:00000134       __imp_??0QString@@QAE@PBD@Z 0045c134     qt-mt323:qt-mt323.dll
 0002:00000138       __imp_??1QDomElement@@UAE@XZ 0045c138     qt-mt323:qt-mt323.dll
 0002:0000013c       __imp_?deleteSelf@QStringData@@QAEXXZ 0045c13c     qt-mt323:qt-mt323.dll
 0002:00000140       __imp_??0QDomElement@@QAE@XZ 0045c140     qt-mt323:qt-mt323.dll
 0002:00000144       __imp_?shared_null@QString@@0PAUQStringData@@A 0045c144     qt-mt323:qt-mt323.dll
 0002:00000148       __imp_?makeSharedNull@QString@@CAPAUQStringData@@XZ 0045c148     qt-mt323:qt-mt323.dll
 0002:0000014c       __imp_??1QTextDrag@@UAE@XZ 0045c14c     qt-mt323:qt-mt323.dll
 0002:00000150       __imp_??1QDomNode@@UAE@XZ  0045c150     qt-mt323:qt-mt323.dll
 0002:00000154       __imp_??4QDomNode@@QAEAAV0@ABV0@@Z 0045c154     qt-mt323:qt-mt323.dll
 0002:00000158       __imp_?nextSibling@QDomNode@@UBE?AV1@XZ 0045c158     qt-mt323:qt-mt323.dll
 0002:0000015c       __imp_??H@YA?BVQString@@PBDABV0@@Z 0045c15c     qt-mt323:qt-mt323.dll
 0002:00000160       __imp_?toElement@QDomNode@@QAE?AVQDomElement@@XZ 0045c160     qt-mt323:qt-mt323.dll
 0002:00000164       __imp_?isNull@QDomNode@@QBE_NXZ 0045c164     qt-mt323:qt-mt323.dll
 0002:00000168       __imp_?firstChild@QDomNode@@UBE?AV1@XZ 0045c168     qt-mt323:qt-mt323.dll
 0002:0000016c       __imp_?tagName@QDomElement@@QBE?AVQString@@XZ 0045c16c     qt-mt323:qt-mt323.dll
 0002:00000170       __imp_?documentElement@QDomDocument@@QBE?AVQDomElement@@XZ 0045c170     qt-mt323:qt-mt323.dll
 0002:00000174       __imp_?setContent@QDomDocument@@QAE_NPAVQIODevice@@_NPAVQString@@PAH3@Z 0045c174     qt-mt323:qt-mt323.dll
 0002:00000178       __imp_??1QDomDocument@@UAE@XZ 0045c178     qt-mt323:qt-mt323.dll
 0002:0000017c       __imp_??1QFile@@UAE@XZ     0045c17c     qt-mt323:qt-mt323.dll
 0002:00000180       __imp_?warning@QMessageBox@@SAHPAVQWidget@@ABVQString@@1111HH@Z 0045c180     qt-mt323:qt-mt323.dll
 0002:00000184       __imp_?open@QFile@@UAE_NH@Z 0045c184     qt-mt323:qt-mt323.dll
 0002:00000188       __imp_??0QFile@@QAE@ABVQString@@@Z 0045c188     qt-mt323:qt-mt323.dll
 0002:0000018c       __imp_??0QDomDocument@@QAE@ABVQString@@@Z 0045c18c     qt-mt323:qt-mt323.dll
 0002:00000190       __imp_??H@YA?BVQString@@ABV0@0@Z 0045c190     qt-mt323:qt-mt323.dll
 0002:00000194       __imp_??H@YA?BVQString@@ABV0@PBD@Z 0045c194     qt-mt323:qt-mt323.dll
 0002:00000198       __imp_??6@YAAAVQTextStream@@AAV0@ABVQDomNode@@@Z 0045c198     qt-mt323:qt-mt323.dll
 0002:0000019c       __imp_??8@YA_NABVQString@@0@Z 0045c19c     qt-mt323:qt-mt323.dll
 0002:000001a0       __imp_?close@QFile@@UAEXXZ 0045c1a0     qt-mt323:qt-mt323.dll
 0002:000001a4       __imp_?setContent@QDomDocument@@QAE_NPAVQIODevice@@PAVQString@@PAH2@Z 0045c1a4     qt-mt323:qt-mt323.dll
 0002:000001a8       __imp_??1QTextStream@@UAE@XZ 0045c1a8     qt-mt323:qt-mt323.dll
 0002:000001ac       __imp_??0QTextStream@@QAE@PAVQString@@H@Z 0045c1ac     qt-mt323:qt-mt323.dll
 0002:000001b0       __imp_?createElement@QDomDocument@@QAE?AVQDomElement@@ABVQString@@@Z 0045c1b0     qt-mt323:qt-mt323.dll
 0002:000001b4       __imp_?setAttribute@QDomElement@@QAEXABVQString@@0@Z 0045c1b4     qt-mt323:qt-mt323.dll
 0002:000001b8       __imp_?appendChild@QDomNode@@UAE?AV1@ABV1@@Z 0045c1b8     qt-mt323:qt-mt323.dll
 0002:000001bc       __imp_??4QDomElement@@QAEAAV0@ABV0@@Z 0045c1bc     qt-mt323:qt-mt323.dll
 0002:000001c0       __imp_?qDebug@@YAXPBDZZ    0045c1c0     qt-mt323:qt-mt323.dll
 0002:000001c4       __imp_?ascii@QString@@QBEPBDXZ 0045c1c4     qt-mt323:qt-mt323.dll
 0002:000001c8       __imp_?setContent@QDomDocument@@QAE_NABVQString@@_NPAV2@PAH3@Z 0045c1c8     qt-mt323:qt-mt323.dll
 0002:000001cc       __imp_??6QTextStream@@QAEAAV0@ABVQString@@@Z 0045c1cc     qt-mt323:qt-mt323.dll
 0002:000001d0       __imp_??6QTextStream@@QAEAAV0@PBD@Z 0045c1d0     qt-mt323:qt-mt323.dll
 0002:000001d4       __imp_??0QTextStream@@QAE@PAVQIODevice@@@Z 0045c1d4     qt-mt323:qt-mt323.dll
 0002:000001d8       __imp_?toString@QDomDocument@@QBE?AVQString@@XZ 0045c1d8     qt-mt323:qt-mt323.dll
 0002:000001dc       __imp_??0QDomDocument@@QAE@XZ 0045c1dc     qt-mt323:qt-mt323.dll
 0002:000001e0       __imp_??1?$QPtrList@VQWidget@@@@UAE@XZ 0045c1e0     qt-mt323:qt-mt323.dll
 0002:000001e4       __imp_?compareItems@QGList@@MAEHPAX0@Z 0045c1e4     qt-mt323:qt-mt323.dll
 0002:000001e8       __imp_?write@QGList@@MBEAAVQDataStream@@AAV2@PAX@Z 0045c1e8     qt-mt323:qt-mt323.dll
 0002:000001ec       __imp_?read@QGList@@MAEAAVQDataStream@@AAV2@AAPAX@Z 0045c1ec     qt-mt323:qt-mt323.dll
 0002:000001f0       __imp_?newItem@QPtrCollection@@MAEPAXPAX@Z 0045c1f0     qt-mt323:qt-mt323.dll
 0002:000001f4       __imp_?fontInf@QPaintDevice@@MBEHPAVQFont@@H@Z 0045c1f4     qt-mt323:qt-mt323.dll
 0002:000001f8       __imp_?fontMet@QPaintDevice@@MBEHPAVQFont@@HPBDH@Z 0045c1f8     qt-mt323:qt-mt323.dll
 0002:000001fc       __imp_?metric@QWidget@@MBEHH@Z 0045c1fc     qt-mt323:qt-mt323.dll
 0002:00000200       __imp_?cmd@QPaintDevice@@MAE_NHPAVQPainter@@PATQPDevCmdParam@@@Z 0045c200     qt-mt323:qt-mt323.dll
 0002:00000204       __imp_?handle@QPaintDevice@@UBEPAUHDC__@@XZ 0045c204     qt-mt323:qt-mt323.dll
 0002:00000208       __imp_?resolution@QPaintDevice@@UBEHXZ 0045c208     qt-mt323:qt-mt323.dll
 0002:0000020c       __imp_?setResolution@QPaintDevice@@UAEXH@Z 0045c20c     qt-mt323:qt-mt323.dll
 0002:00000210       __imp_?paintEmptyArea@QListView@@MAEXPAVQPainter@@ABVQRect@@@Z 0045c210     qt-mt323:qt-mt323.dll
 0002:00000214       __imp_?startDrag@QListView@@MAEXXZ 0045c214     qt-mt323:qt-mt323.dll
 0002:00000218       __imp_?dragObject@QListView@@MAEPAVQDragObject@@XZ 0045c218     qt-mt323:qt-mt323.dll
 0002:0000021c       __imp_?selectAll@QListView@@UAEX_N@Z 0045c21c     qt-mt323:qt-mt323.dll
 0002:00000220       __imp_?invertSelection@QListView@@UAEXXZ 0045c220     qt-mt323:qt-mt323.dll
 0002:00000224       __imp_?clear@QListView@@UAEXXZ 0045c224     qt-mt323:qt-mt323.dll
 0002:00000228       __imp_?setDefaultRenameAction@QListView@@UAEXW4RenameAction@1@@Z 0045c228     qt-mt323:qt-mt323.dll
 0002:0000022c       __imp_?setResizeMode@QListView@@UAEXW4ResizeMode@1@@Z 0045c22c     qt-mt323:qt-mt323.dll
 0002:00000230       __imp_?setShowToolTips@QListView@@UAEX_N@Z 0045c230     qt-mt323:qt-mt323.dll
 0002:00000234       __imp_?setShowSortIndicator@QListView@@UAEX_N@Z 0045c234     qt-mt323:qt-mt323.dll
 0002:00000238       __imp_?sort@QListView@@UAEXXZ 0045c238     qt-mt323:qt-mt323.dll
 0002:0000023c       __imp_?setSorting@QListView@@UAEXH_N@Z 0045c23c     qt-mt323:qt-mt323.dll
 0002:00000240       __imp_?setRootIsDecorated@QListView@@UAEX_N@Z 0045c240     qt-mt323:qt-mt323.dll
 0002:00000244       __imp_?setItemMargin@QListView@@UAEXH@Z 0045c244     qt-mt323:qt-mt323.dll
 0002:00000248       __imp_?setAllColumnsShowFocus@QListView@@UAEX_N@Z 0045c248     qt-mt323:qt-mt323.dll
 0002:0000024c       __imp_?setCurrentItem@QListView@@UAEXPAVQListViewItem@@@Z 0045c24c     qt-mt323:qt-mt323.dll
 0002:00000250       __imp_?setOpen@QListView@@UAEXPAVQListViewItem@@_N@Z 0045c250     qt-mt323:qt-mt323.dll
 0002:00000254       __imp_?setSelected@QListView@@UAEXPAVQListViewItem@@_N@Z 0045c254     qt-mt323:qt-mt323.dll
 0002:00000258       __imp_?clearSelection@QListView@@UAEXXZ 0045c258     qt-mt323:qt-mt323.dll
 0002:0000025c       __imp_?setMultiSelection@QListView@@UAEX_N@Z 0045c25c     qt-mt323:qt-mt323.dll
 0002:00000260       __imp_?setColumnAlignment@QListView@@UAEXHH@Z 0045c260     qt-mt323:qt-mt323.dll
 0002:00000264       __imp_?setColumnWidthMode@QListView@@UAEXHW4WidthMode@1@@Z 0045c264     qt-mt323:qt-mt323.dll
 0002:00000268       __imp_?setColumnWidth@QListView@@UAEXHH@Z 0045c268     qt-mt323:qt-mt323.dll
 0002:0000026c       __imp_?setColumnText@QListView@@UAEXHABVQString@@@Z 0045c26c     qt-mt323:qt-mt323.dll
 0002:00000270       __imp_?setColumnText@QListView@@UAEXHABVQIconSet@@ABVQString@@@Z 0045c270     qt-mt323:qt-mt323.dll
 0002:00000274       __imp_?removeColumn@QListView@@UAEXH@Z 0045c274     qt-mt323:qt-mt323.dll
 0002:00000278       __imp_?addColumn@QListView@@UAEHABVQString@@H@Z 0045c278     qt-mt323:qt-mt323.dll
 0002:0000027c       __imp_?addColumn@QListView@@UAEHABVQIconSet@@ABVQString@@H@Z 0045c27c     qt-mt323:qt-mt323.dll
 0002:00000280       __imp_?removeItem@QListView@@UAEXPAVQListViewItem@@@Z 0045c280     qt-mt323:qt-mt323.dll
 0002:00000284       __imp_?takeItem@QListView@@UAEXPAVQListViewItem@@@Z 0045c284     qt-mt323:qt-mt323.dll
 0002:00000288       __imp_?insertItem@QListView@@UAEXPAVQListViewItem@@@Z 0045c288     qt-mt323:qt-mt323.dll
 0002:0000028c       __imp_?setTreeStepSize@QListView@@UAEXH@Z 0045c28c     qt-mt323:qt-mt323.dll
 0002:00000290       __imp_?setVBarGeometry@QScrollView@@MAEXAAVQScrollBar@@HHHH@Z 0045c290     qt-mt323:qt-mt323.dll
 0002:00000294       __imp_?setHBarGeometry@QScrollView@@MAEXAAVQScrollBar@@HHHH@Z 0045c294     qt-mt323:qt-mt323.dll
 0002:00000298       __imp_?setMargins@QScrollView@@MAEXHHHH@Z 0045c298     qt-mt323:qt-mt323.dll
 0002:0000029c       __imp_?viewportContextMenuEvent@QScrollView@@MAEXPAVQContextMenuEvent@@@Z 0045c29c     qt-mt323:qt-mt323.dll
 0002:000002a0       __imp_?viewportWheelEvent@QScrollView@@MAEXPAVQWheelEvent@@@Z 0045c2a0     qt-mt323:qt-mt323.dll
 0002:000002a4       __imp_?viewportDropEvent@QScrollView@@MAEXPAVQDropEvent@@@Z 0045c2a4     qt-mt323:qt-mt323.dll
 0002:000002a8       __imp_?viewportDragLeaveEvent@QScrollView@@MAEXPAVQDragLeaveEvent@@@Z 0045c2a8     qt-mt323:qt-mt323.dll
 0002:000002ac       __imp_?viewportDragMoveEvent@QScrollView@@MAEXPAVQDragMoveEvent@@@Z 0045c2ac     qt-mt323:qt-mt323.dll
 0002:000002b0       __imp_?viewportDragEnterEvent@QScrollView@@MAEXPAVQDragEnterEvent@@@Z 0045c2b0     qt-mt323:qt-mt323.dll
 0002:000002b4       __imp_?viewportMouseMoveEvent@QScrollView@@MAEXPAVQMouseEvent@@@Z 0045c2b4     qt-mt323:qt-mt323.dll
 0002:000002b8       __imp_?viewportMouseDoubleClickEvent@QScrollView@@MAEXPAVQMouseEvent@@@Z 0045c2b8     qt-mt323:qt-mt323.dll
 0002:000002bc       __imp_?viewportMouseReleaseEvent@QScrollView@@MAEXPAVQMouseEvent@@@Z 0045c2bc     qt-mt323:qt-mt323.dll
 0002:000002c0       __imp_?viewportMousePressEvent@QScrollView@@MAEXPAVQMouseEvent@@@Z 0045c2c0     qt-mt323:qt-mt323.dll
 0002:000002c4       __imp_?viewportResizeEvent@QListView@@MAEXPAVQResizeEvent@@@Z 0045c2c4     qt-mt323:qt-mt323.dll
 0002:000002c8       __imp_?viewportPaintEvent@QScrollView@@MAEXPAVQPaintEvent@@@Z 0045c2c8     qt-mt323:qt-mt323.dll
 0002:000002cc       __imp_?contentsContextMenuEvent@QListView@@MAEXPAVQContextMenuEvent@@@Z 0045c2cc     qt-mt323:qt-mt323.dll
 0002:000002d0       __imp_?contentsWheelEvent@QScrollView@@MAEXPAVQWheelEvent@@@Z 0045c2d0     qt-mt323:qt-mt323.dll
 0002:000002d4       __imp_?contentsDropEvent@QListView@@MAEXPAVQDropEvent@@@Z 0045c2d4     qt-mt323:qt-mt323.dll
 0002:000002d8       __imp_?contentsDragLeaveEvent@QListView@@MAEXPAVQDragLeaveEvent@@@Z 0045c2d8     qt-mt323:qt-mt323.dll
 0002:000002dc       __imp_?contentsDragMoveEvent@QListView@@MAEXPAVQDragMoveEvent@@@Z 0045c2dc     qt-mt323:qt-mt323.dll
 0002:000002e0       __imp_?contentsDragEnterEvent@QListView@@MAEXPAVQDragEnterEvent@@@Z 0045c2e0     qt-mt323:qt-mt323.dll
 0002:000002e4       __imp_?contentsMouseMoveEvent@QListView@@MAEXPAVQMouseEvent@@@Z 0045c2e4     qt-mt323:qt-mt323.dll
 0002:000002e8       __imp_?contentsMouseDoubleClickEvent@QListView@@MAEXPAVQMouseEvent@@@Z 0045c2e8     qt-mt323:qt-mt323.dll
 0002:000002ec       __imp_?contentsMouseReleaseEvent@QListView@@MAEXPAVQMouseEvent@@@Z 0045c2ec     qt-mt323:qt-mt323.dll
 0002:000002f0       __imp_?contentsMousePressEvent@QListView@@MAEXPAVQMouseEvent@@@Z 0045c2f0     qt-mt323:qt-mt323.dll
 0002:000002f4       __imp_?drawContentsOffset@QListView@@MAEXPAVQPainter@@HHHHHH@Z 0045c2f4     qt-mt323:qt-mt323.dll
 0002:000002f8       __imp_?drawContents@QScrollView@@MAEXPAVQPainter@@HHHH@Z 0045c2f8     qt-mt323:qt-mt323.dll
 0002:000002fc       __imp_?setContentsPos@QListView@@UAEXHH@Z 0045c2fc     qt-mt323:qt-mt323.dll
 0002:00000300       __imp_?resizeContents@QScrollView@@UAEXHH@Z 0045c300     qt-mt323:qt-mt323.dll
 0002:00000304       __imp_?setDragAutoScroll@QScrollView@@UAEX_N@Z 0045c304     qt-mt323:qt-mt323.dll
 0002:00000308       __imp_?setCornerWidget@QScrollView@@UAEXPAVQWidget@@@Z 0045c308     qt-mt323:qt-mt323.dll
 0002:0000030c       __imp_?setHScrollBarMode@QScrollView@@UAEXW4ScrollBarMode@1@@Z 0045c30c     qt-mt323:qt-mt323.dll
 0002:00000310       __imp_?setVScrollBarMode@QScrollView@@UAEXW4ScrollBarMode@1@@Z 0045c310     qt-mt323:qt-mt323.dll
 0002:00000314       __imp_?moveChild@QScrollView@@UAEXPAVQWidget@@HH@Z 0045c314     qt-mt323:qt-mt323.dll
 0002:00000318       __imp_?addChild@QScrollView@@UAEXPAVQWidget@@HH@Z 0045c318     qt-mt323:qt-mt323.dll
 0002:0000031c       __imp_?setResizePolicy@QScrollView@@UAEXW4ResizePolicy@1@@Z 0045c31c     qt-mt323:qt-mt323.dll
 0002:00000320       __imp_?frameChanged@QScrollView@@MAEXXZ 0045c320     qt-mt323:qt-mt323.dll
 0002:00000324       __imp_?drawContents@QScrollView@@EAEXPAVQPainter@@@Z 0045c324     qt-mt323:qt-mt323.dll
 0002:00000328       __imp_?drawFrame@QFrame@@MAEXPAVQPainter@@@Z 0045c328     qt-mt323:qt-mt323.dll
 0002:0000032c       __imp_?setFrameRect@QFrame@@UAEXABVQRect@@@Z 0045c32c     qt-mt323:qt-mt323.dll
 0002:00000330       __imp_?setMidLineWidth@QFrame@@UAEXH@Z 0045c330     qt-mt323:qt-mt323.dll
 0002:00000334       __imp_?setMargin@QFrame@@UAEXH@Z 0045c334     qt-mt323:qt-mt323.dll
 0002:00000338       __imp_?setLineWidth@QFrame@@UAEXH@Z 0045c338     qt-mt323:qt-mt323.dll
 0002:0000033c       __imp_?setFrameStyle@QFrame@@UAEXH@Z 0045c33c     qt-mt323:qt-mt323.dll
 0002:00000340       __imp_?setMicroFocusHint@QWidget@@MAEXHHHH_NPAVQFont@@@Z 0045c340     qt-mt323:qt-mt323.dll
 0002:00000344       __imp_?setKeyCompression@QWidget@@MAEX_N@Z 0045c344     qt-mt323:qt-mt323.dll
 0002:00000348       __imp_?focusNextPrevChild@QScrollView@@MAE_N_N@Z 0045c348     qt-mt323:qt-mt323.dll
 0002:0000034c       __imp_?setWFlags@QWidget@@MAEXI@Z 0045c34c     qt-mt323:qt-mt323.dll
 0002:00000350       __imp_?setWState@QWidget@@MAEXI@Z 0045c350     qt-mt323:qt-mt323.dll
 0002:00000354       __imp_?destroy@QWidget@@MAEX_N0@Z 0045c354     qt-mt323:qt-mt323.dll
 0002:00000358       __imp_?create@QWidget@@MAEXPAUHWND__@@_N1@Z 0045c358     qt-mt323:qt-mt323.dll
 0002:0000035c       __imp_?fontChange@QScrollView@@MAEXABVQFont@@@Z 0045c35c     qt-mt323:qt-mt323.dll
 0002:00000360       __imp_?paletteChange@QWidget@@MAEXABVQPalette@@@Z 0045c360     qt-mt323:qt-mt323.dll
 0002:00000364       __imp_?enabledChange@QWidget@@MAEX_N@Z 0045c364     qt-mt323:qt-mt323.dll
 0002:00000368       __imp_?styleChange@QListView@@MAEXAAVQStyle@@@Z 0045c368     qt-mt323:qt-mt323.dll
 0002:0000036c       __imp_?updateMask@QWidget@@MAEXXZ 0045c36c     qt-mt323:qt-mt323.dll
 0002:00000370       __imp_?winEvent@QWidget@@MAE_NPAUtagMSG@@@Z 0045c370     qt-mt323:qt-mt323.dll
 0002:00000374       __imp_?hideEvent@QWidget@@MAEXPAVQHideEvent@@@Z 0045c374     qt-mt323:qt-mt323.dll
 0002:00000378       __imp_?showEvent@QListView@@MAEXPAVQShowEvent@@@Z 0045c378     qt-mt323:qt-mt323.dll
 0002:0000037c       __imp_?dropEvent@QWidget@@MAEXPAVQDropEvent@@@Z 0045c37c     qt-mt323:qt-mt323.dll
 0002:00000380       __imp_?dragLeaveEvent@QWidget@@MAEXPAVQDragLeaveEvent@@@Z 0045c380     qt-mt323:qt-mt323.dll
 0002:00000384       __imp_?dragMoveEvent@QWidget@@MAEXPAVQDragMoveEvent@@@Z 0045c384     qt-mt323:qt-mt323.dll
 0002:00000388       __imp_?dragEnterEvent@QWidget@@MAEXPAVQDragEnterEvent@@@Z 0045c388     qt-mt323:qt-mt323.dll
 0002:0000038c       __imp_?tabletEvent@QWidget@@MAEXPAVQTabletEvent@@@Z 0045c38c     qt-mt323:qt-mt323.dll
 0002:00000390       __imp_?imEndEvent@QWidget@@MAEXPAVQIMEvent@@@Z 0045c390     qt-mt323:qt-mt323.dll
 0002:00000394       __imp_?imComposeEvent@QWidget@@MAEXPAVQIMEvent@@@Z 0045c394     qt-mt323:qt-mt323.dll
 0002:00000398       __imp_?imStartEvent@QWidget@@MAEXPAVQIMEvent@@@Z 0045c398     qt-mt323:qt-mt323.dll
 0002:0000039c       __imp_?contextMenuEvent@QScrollView@@MAEXPAVQContextMenuEvent@@@Z 0045c39c     qt-mt323:qt-mt323.dll
 0002:000003a0       __imp_?closeEvent@QWidget@@MAEXPAVQCloseEvent@@@Z 0045c3a0     qt-mt323:qt-mt323.dll
 0002:000003a4       __imp_?resizeEvent@QListView@@MAEXPAVQResizeEvent@@@Z 0045c3a4     qt-mt323:qt-mt323.dll
 0002:000003a8       __imp_?moveEvent@QWidget@@MAEXPAVQMoveEvent@@@Z 0045c3a8     qt-mt323:qt-mt323.dll
 0002:000003ac       __imp_?paintEvent@QFrame@@MAEXPAVQPaintEvent@@@Z 0045c3ac     qt-mt323:qt-mt323.dll
 0002:000003b0       __imp_?leaveEvent@QWidget@@MAEXPAVQEvent@@@Z 0045c3b0     qt-mt323:qt-mt323.dll
 0002:000003b4       __imp_?enterEvent@QWidget@@MAEXPAVQEvent@@@Z 0045c3b4     qt-mt323:qt-mt323.dll
 0002:000003b8       __imp_?focusOutEvent@QListView@@MAEXPAVQFocusEvent@@@Z 0045c3b8     qt-mt323:qt-mt323.dll
 0002:000003bc       __imp_?focusInEvent@QListView@@MAEXPAVQFocusEvent@@@Z 0045c3bc     qt-mt323:qt-mt323.dll
 0002:000003c0       __imp_?keyReleaseEvent@QWidget@@MAEXPAVQKeyEvent@@@Z 0045c3c0     qt-mt323:qt-mt323.dll
 0002:000003c4       __imp_?wheelEvent@QScrollView@@MAEXPAVQWheelEvent@@@Z 0045c3c4     qt-mt323:qt-mt323.dll
 0002:000003c8       __imp_?mouseMoveEvent@QScrollView@@MAEXPAVQMouseEvent@@@Z 0045c3c8     qt-mt323:qt-mt323.dll
 0002:000003cc       __imp_?mouseDoubleClickEvent@QScrollView@@MAEXPAVQMouseEvent@@@Z 0045c3cc     qt-mt323:qt-mt323.dll
 0002:000003d0       __imp_?mouseReleaseEvent@QScrollView@@MAEXPAVQMouseEvent@@@Z 0045c3d0     qt-mt323:qt-mt323.dll
 0002:000003d4       __imp_?mousePressEvent@QScrollView@@MAEXPAVQMouseEvent@@@Z 0045c3d4     qt-mt323:qt-mt323.dll
 0002:000003d8       __imp_?customWhatsThis@QWidget@@UBE_NXZ 0045c3d8     qt-mt323:qt-mt323.dll
 0002:000003dc       __imp_?setBackgroundOrigin@QWidget@@UAEXW4BackgroundOrigin@1@@Z 0045c3dc     qt-mt323:qt-mt323.dll
 0002:000003e0       __imp_?setAutoMask@QWidget@@UAEX_N@Z 0045c3e0     qt-mt323:qt-mt323.dll
 0002:000003e4       __imp_?setAcceptDrops@QWidget@@UAEX_N@Z 0045c3e4     qt-mt323:qt-mt323.dll
 0002:000003e8       __imp_?reparent@QWidget@@UAEXPAV1@IABVQPoint@@_N@Z 0045c3e8     qt-mt323:qt-mt323.dll
 0002:000003ec       __imp_?adjustSize@QWidget@@UAEXXZ 0045c3ec     qt-mt323:qt-mt323.dll
 0002:000003f0       __imp_?heightForWidth@QWidget@@UBEHH@Z 0045c3f0     qt-mt323:qt-mt323.dll
 0002:000003f4       __imp_?setSizePolicy@QWidget@@UAEXVQSizePolicy@@@Z 0045c3f4     qt-mt323:qt-mt323.dll
 0002:000003f8       __imp_?sizePolicy@QWidget@@UBE?AVQSizePolicy@@XZ 0045c3f8     qt-mt323:qt-mt323.dll
 0002:000003fc       __imp_?minimumSizeHint@QListView@@UBE?AVQSize@@XZ 0045c3fc     qt-mt323:qt-mt323.dll
 0002:00000400       __imp_?sizeHint@QListView@@UBE?AVQSize@@XZ 0045c400     qt-mt323:qt-mt323.dll
 0002:00000404       __imp_?setGeometry@QWidget@@UAEXHHHH@Z 0045c404     qt-mt323:qt-mt323.dll
 0002:00000408       __imp_?setGeometry@QWidget@@UAEXABVQRect@@@Z 0045c408     qt-mt323:qt-mt323.dll
 0002:0000040c       __imp_?resize@QScrollView@@UAEXHH@Z 0045c40c     qt-mt323:qt-mt323.dll
 0002:00000410       __imp_?move@QWidget@@UAEXHH@Z 0045c410     qt-mt323:qt-mt323.dll
 0002:00000414       __imp_?polish@QWidget@@UAEXXZ 0045c414     qt-mt323:qt-mt323.dll
 0002:00000418       __imp_?showNormal@QWidget@@UAEXXZ 0045c418     qt-mt323:qt-mt323.dll
 0002:0000041c       __imp_?showMaximized@QWidget@@UAEXXZ 0045c41c     qt-mt323:qt-mt323.dll
 0002:00000420       __imp_?showMinimized@QWidget@@UAEXXZ 0045c420     qt-mt323:qt-mt323.dll
 0002:00000424       __imp_?hide@QWidget@@UAEXXZ 0045c424     qt-mt323:qt-mt323.dll
 0002:00000428       __imp_?show@QListView@@UAEXXZ 0045c428     qt-mt323:qt-mt323.dll
 0002:0000042c       __imp_?setUpdatesEnabled@QWidget@@UAEX_N@Z 0045c42c     qt-mt323:qt-mt323.dll
 0002:00000430       __imp_?setFocusProxy@QWidget@@UAEXPAV1@@Z 0045c430     qt-mt323:qt-mt323.dll
 0002:00000434       __imp_?setFocusPolicy@QWidget@@UAEXW4FocusPolicy@1@@Z 0045c434     qt-mt323:qt-mt323.dll
 0002:00000438       __imp_?setActiveWindow@QWidget@@UAEXXZ 0045c438     qt-mt323:qt-mt323.dll
 0002:0000043c       __imp_?setFocus@QWidget@@UAEXXZ 0045c43c     qt-mt323:qt-mt323.dll
 0002:00000440       __imp_?setMouseTracking@QWidget@@UAEX_N@Z 0045c440     qt-mt323:qt-mt323.dll
 0002:00000444       __imp_?setIconText@QWidget@@UAEXABVQString@@@Z 0045c444     qt-mt323:qt-mt323.dll
 0002:00000448       __imp_?setIcon@QWidget@@UAEXABVQPixmap@@@Z 0045c448     qt-mt323:qt-mt323.dll
 0002:0000044c       __imp_?setCaption@QWidget@@UAEXABVQString@@@Z 0045c44c     qt-mt323:qt-mt323.dll
 0002:00000450       __imp_?setBackgroundPixmap@QWidget@@UAEXABVQPixmap@@@Z 0045c450     qt-mt323:qt-mt323.dll
 0002:00000454       __imp_?setBackgroundColor@QWidget@@UAEXABVQColor@@@Z 0045c454     qt-mt323:qt-mt323.dll
 0002:00000458       __imp_?setMask@QWidget@@UAEXABVQBitmap@@@Z 0045c458     qt-mt323:qt-mt323.dll
 0002:0000045c       __imp_?setMask@QWidget@@UAEXABVQRegion@@@Z 0045c45c     qt-mt323:qt-mt323.dll
 0002:00000460       __imp_?unsetCursor@QWidget@@UAEXXZ 0045c460     qt-mt323:qt-mt323.dll
 0002:00000464       __imp_?setCursor@QWidget@@UAEXABVQCursor@@@Z 0045c464     qt-mt323:qt-mt323.dll
 0002:00000468       __imp_?setFont@QListView@@UAEXABVQFont@@@Z 0045c468     qt-mt323:qt-mt323.dll
 0002:0000046c       __imp_?setPaletteBackgroundPixmap@QWidget@@UAEXABVQPixmap@@@Z 0045c46c     qt-mt323:qt-mt323.dll
 0002:00000470       __imp_?setPaletteBackgroundColor@QWidget@@UAEXABVQColor@@@Z 0045c470     qt-mt323:qt-mt323.dll
 0002:00000474       __imp_?setPalette@QListView@@UAEXABVQPalette@@@Z 0045c474     qt-mt323:qt-mt323.dll
 0002:00000478       __imp_?setErasePixmap@QWidget@@UAEXABVQPixmap@@@Z 0045c478     qt-mt323:qt-mt323.dll
 0002:0000047c       __imp_?setEraseColor@QWidget@@UAEXABVQColor@@@Z 0045c47c     qt-mt323:qt-mt323.dll
 0002:00000480       __imp_?setBackgroundMode@QWidget@@UAEXW4BackgroundMode@Qt@@@Z 0045c480     qt-mt323:qt-mt323.dll
 0002:00000484       __imp_?setSizeIncrement@QWidget@@UAEXHH@Z 0045c484     qt-mt323:qt-mt323.dll
 0002:00000488       __imp_?setMaximumSize@QWidget@@UAEXHH@Z 0045c488     qt-mt323:qt-mt323.dll
 0002:0000048c       __imp_?setMinimumSize@QWidget@@UAEXHH@Z 0045c48c     qt-mt323:qt-mt323.dll
 0002:00000490       __imp_?setEnabled@QScrollView@@UAEX_N@Z 0045c490     qt-mt323:qt-mt323.dll
 0002:00000494       __imp_?removeChild@QScrollView@@UAEXPAVQObject@@@Z 0045c494     qt-mt323:qt-mt323.dll
 0002:00000498       __imp_?setName@QWidget@@UAEXPBD@Z 0045c498     qt-mt323:qt-mt323.dll
 0002:0000049c       __imp_?eventFilter@QListView@@UAE_NPAVQObject@@PAVQEvent@@@Z 0045c49c     qt-mt323:qt-mt323.dll
 0002:000004a0       __imp_?event@QWidget@@MAE_NPAVQEvent@@@Z 0045c4a0     qt-mt323:qt-mt323.dll
 0002:000004a4       __imp_??1QListView@@UAE@XZ 0045c4a4     qt-mt323:qt-mt323.dll
 0002:000004a8       __imp_?connect@QObject@@SA_NPBV1@PBD01@Z 0045c4a8     qt-mt323:qt-mt323.dll
 0002:000004ac       __imp_?setSelectionMode@QListView@@QAEXW4SelectionMode@1@@Z 0045c4ac     qt-mt323:qt-mt323.dll
 0002:000004b0       __imp_??0QGList@@IAE@XZ    0045c4b0     qt-mt323:qt-mt323.dll
 0002:000004b4       __imp_??0QListView@@QAE@PAVQWidget@@PBDI@Z 0045c4b4     qt-mt323:qt-mt323.dll
 0002:000004b8       __imp_??1QGList@@MAE@XZ    0045c4b8     qt-mt323:qt-mt323.dll
 0002:000004bc       __imp_?clear@QGList@@MAEXXZ 0045c4bc     qt-mt323:qt-mt323.dll
 0002:000004c0       __imp_?cancelRename@QListViewItem@@MAEXH@Z 0045c4c0     qt-mt323:qt-mt323.dll
 0002:000004c4       __imp_?okRename@QListViewItem@@MAEXH@Z 0045c4c4     qt-mt323:qt-mt323.dll
 0002:000004c8       __imp_?dragLeft@QListViewItem@@MAEXXZ 0045c4c8     qt-mt323:qt-mt323.dll
 0002:000004cc       __imp_?dragEntered@QListViewItem@@MAEXXZ 0045c4cc     qt-mt323:qt-mt323.dll
 0002:000004d0       __imp_?dropped@QListViewItem@@MAEXPAVQDropEvent@@@Z 0045c4d0     qt-mt323:qt-mt323.dll
 0002:000004d4       __imp_?activate@QListViewItem@@MAEXXZ 0045c4d4     qt-mt323:qt-mt323.dll
 0002:000004d8       __imp_?setHeight@QListViewItem@@MAEXH@Z 0045c4d8     qt-mt323:qt-mt323.dll
 0002:000004dc       __imp_?enforceSortOrder@QListViewItem@@MBEXXZ 0045c4dc     qt-mt323:qt-mt323.dll
 0002:000004e0       __imp_?setMultiLinesEnabled@QListViewItem@@UAEX_N@Z 0045c4e0     qt-mt323:qt-mt323.dll
 0002:000004e4       __imp_?rtti@QListViewItem@@UBEHXZ 0045c4e4     qt-mt323:qt-mt323.dll
 0002:000004e8       __imp_?setEnabled@QListViewItem@@UAEX_N@Z 0045c4e8     qt-mt323:qt-mt323.dll
 0002:000004ec       __imp_?startRename@QListViewItem@@UAEXH@Z 0045c4ec     qt-mt323:qt-mt323.dll
 0002:000004f0       __imp_?setRenameEnabled@QListViewItem@@UAEXH_N@Z 0045c4f0     qt-mt323:qt-mt323.dll
 0002:000004f4       __imp_?acceptDrop@QListViewItem@@UBE_NPBVQMimeSource@@@Z 0045c4f4     qt-mt323:qt-mt323.dll
 0002:000004f8       __imp_?setDropEnabled@QListViewItem@@UAEX_N@Z 0045c4f8     qt-mt323:qt-mt323.dll
 0002:000004fc       __imp_?setDragEnabled@QListViewItem@@UAEX_N@Z 0045c4fc     qt-mt323:qt-mt323.dll
 0002:00000500       __imp_?sort@QListViewItem@@UAEXXZ 0045c500     qt-mt323:qt-mt323.dll
 0002:00000504       __imp_?setExpandable@QListViewItem@@UAEX_N@Z 0045c504     qt-mt323:qt-mt323.dll
 0002:00000508       __imp_?setSelectable@QListViewItem@@UAEX_N@Z 0045c508     qt-mt323:qt-mt323.dll
 0002:0000050c       __imp_?paintFocus@QListViewItem@@UAEXPAVQPainter@@ABVQColorGroup@@ABVQRect@@@Z 0045c50c     qt-mt323:qt-mt323.dll
 0002:00000510       __imp_?paintBranches@QListViewItem@@UAEXPAVQPainter@@ABVQColorGroup@@HHH@Z 0045c510     qt-mt323:qt-mt323.dll
 0002:00000514       __imp_?paintCell@QListViewItem@@UAEXPAVQPainter@@ABVQColorGroup@@HHH@Z 0045c514     qt-mt323:qt-mt323.dll
 0002:00000518       __imp_?setSelected@QListViewItem@@UAEX_N@Z 0045c518     qt-mt323:qt-mt323.dll
 0002:0000051c       __imp_?setup@QListViewItem@@UAEXXZ 0045c51c     qt-mt323:qt-mt323.dll
 0002:00000520       __imp_?setOpen@QListViewItem@@UAEX_N@Z 0045c520     qt-mt323:qt-mt323.dll
 0002:00000524       __imp_?sortChildItems@QListViewItem@@UAEXH_N@Z 0045c524     qt-mt323:qt-mt323.dll
 0002:00000528       __imp_?compare@QListViewItem@@UBEHPAV1@H_N@Z 0045c528     qt-mt323:qt-mt323.dll
 0002:0000052c       __imp_?key@QListViewItem@@UBE?AVQString@@H_N@Z 0045c52c     qt-mt323:qt-mt323.dll
 0002:00000530       __imp_?pixmap@QListViewItem@@UBEPBVQPixmap@@H@Z 0045c530     qt-mt323:qt-mt323.dll
 0002:00000534       __imp_?setPixmap@QListViewItem@@UAEXHABVQPixmap@@@Z 0045c534     qt-mt323:qt-mt323.dll
 0002:00000538       __imp_?text@QListViewItem@@UBE?AVQString@@H@Z 0045c538     qt-mt323:qt-mt323.dll
 0002:0000053c       __imp_?setText@QListViewItem@@UAEXHABVQString@@@Z 0045c53c     qt-mt323:qt-mt323.dll
 0002:00000540       __imp_?width@QListViewItem@@UBEHABVQFontMetrics@@PBVQListView@@H@Z 0045c540     qt-mt323:qt-mt323.dll
 0002:00000544       __imp_?invalidateHeight@QListViewItem@@UAEXXZ 0045c544     qt-mt323:qt-mt323.dll
 0002:00000548       __imp_?removeItem@QListViewItem@@UAEXPAV1@@Z 0045c548     qt-mt323:qt-mt323.dll
 0002:0000054c       __imp_?takeItem@QListViewItem@@UAEXPAV1@@Z 0045c54c     qt-mt323:qt-mt323.dll
 0002:00000550       __imp_?insertItem@QListViewItem@@UAEXPAV1@@Z 0045c550     qt-mt323:qt-mt323.dll
 0002:00000554       __imp_??1QFileInfo@@QAE@XZ 0045c554     qt-mt323:qt-mt323.dll
 0002:00000558       __imp_?findItem@QListView@@QBEPAVQListViewItem@@ABVQString@@HI@Z 0045c558     qt-mt323:qt-mt323.dll
 0002:0000055c       __imp_?lastModified@QFileInfo@@QBE?AVQDateTime@@XZ 0045c55c     qt-mt323:qt-mt323.dll
 0002:00000560       __imp_??0QFileInfo@@QAE@ABVQString@@@Z 0045c560     qt-mt323:qt-mt323.dll
 0002:00000564       __imp_??0QListViewItem@@QAE@PAVQListView@@VQString@@1111111@Z 0045c564     qt-mt323:qt-mt323.dll
 0002:00000568       __imp_??1QListViewItem@@UAE@XZ 0045c568     qt-mt323:qt-mt323.dll
 0002:0000056c       __imp_?currentItem@QListView@@QBEPAVQListViewItem@@XZ 0045c56c     qt-mt323:qt-mt323.dll
 0002:00000570       __imp_??9QDateTime@@QBE_NABV0@@Z 0045c570     qt-mt323:qt-mt323.dll
 0002:00000574       __imp_?isActiveWindow@QWidget@@QBE_NXZ 0045c574     qt-mt323:qt-mt323.dll
 0002:00000578       __imp_??0QFileInfo@@QAE@ABVQFile@@@Z 0045c578     qt-mt323:qt-mt323.dll
 0002:0000057c       __imp_?firstChild@QListView@@QBEPAVQListViewItem@@XZ 0045c57c     qt-mt323:qt-mt323.dll
 0002:00000580       __imp_?close@QWidget@@UAE_N_N@Z 0045c580     qt-mt323:qt-mt323.dll
 0002:00000584       __imp_?information@QMessageBox@@SAHPAVQWidget@@ABVQString@@1111HH@Z 0045c584     qt-mt323:qt-mt323.dll
 0002:00000588       __imp_??1QStringList@@QAE@XZ 0045c588     qt-mt323:qt-mt323.dll
 0002:0000058c       __imp_??1QPopupMenu@@UAE@XZ 0045c58c     qt-mt323:qt-mt323.dll
 0002:00000590       __imp_?exec@QPopupMenu@@QAEHABVQPoint@@H@Z 0045c590     qt-mt323:qt-mt323.dll
 0002:00000594       __imp_?pos@QCursor@@SA?AVQPoint@@XZ 0045c594     qt-mt323:qt-mt323.dll
 0002:00000598       __imp_?split@QStringList@@SA?AV1@ABVQString@@0_N@Z 0045c598     qt-mt323:qt-mt323.dll
 0002:0000059c       __imp_?text@QClipboard@@QBE?AVQString@@XZ 0045c59c     qt-mt323:qt-mt323.dll
 0002:000005a0       __imp_?clipboard@QApplication@@SAPAVQClipboard@@XZ 0045c5a0     qt-mt323:qt-mt323.dll
 0002:000005a4       __imp_?insertSeparator@QMenuData@@QAEHH@Z 0045c5a4     qt-mt323:qt-mt323.dll
 0002:000005a8       __imp_?insertItem@QMenuData@@QAEHABVQString@@HH@Z 0045c5a8     qt-mt323:qt-mt323.dll
 0002:000005ac       __imp_??0QPopupMenu@@QAE@PAVQWidget@@PBD@Z 0045c5ac     qt-mt323:qt-mt323.dll
 0002:000005b0       __imp_?setText@QClipboard@@QAEXABVQString@@@Z 0045c5b0     qt-mt323:qt-mt323.dll
 0002:000005b4       __imp_?insertAt@QGList@@IAE_NIPAX@Z 0045c5b4     qt-mt323:qt-mt323.dll
 0002:000005b8       __imp_??0QString@@QAE@XZ   0045c5b8     qt-mt323:qt-mt323.dll
 0002:000005bc       __imp_?replace@QString@@QAEAAV1@VQChar@@ABV1@@Z 0045c5bc     qt-mt323:qt-mt323.dll
 0002:000005c0       __imp_??A?$QValueList@VQString@@@@QAEAAVQString@@I@Z 0045c5c0     qt-mt323:qt-mt323.dll
 0002:000005c4       __imp_??0QChar@@QAE@D@Z    0045c5c4     qt-mt323:qt-mt323.dll
 0002:000005c8       __imp_?detachInternal@?$QValueList@VQString@@@@AAEXXZ 0045c5c8     qt-mt323:qt-mt323.dll
 0002:000005cc       __imp_?text@QClipboard@@QBE?AVQString@@W4Mode@1@@Z 0045c5cc     qt-mt323:qt-mt323.dll
 0002:000005d0       __imp_?takeFirst@QGList@@IAEPAXXZ 0045c5d0     qt-mt323:qt-mt323.dll
 0002:000005d4       __imp_?text@QLineEdit@@QBE?AVQString@@XZ 0045c5d4     qt-mt323:qt-mt323.dll
 0002:000005d8       __imp_?currentText@QComboBox@@QBE?AVQString@@XZ 0045c5d8     qt-mt323:qt-mt323.dll
 0002:000005dc       __imp_?exec@QDialog@@QAEHXZ 0045c5dc     qt-mt323:qt-mt323.dll
 0002:000005e0       __imp_?ensureItemVisible@QListView@@QAEXPBVQListViewItem@@@Z 0045c5e0     qt-mt323:qt-mt323.dll
 0002:000005e4       __imp_?keyPressEvent@QListView@@MAEXPAVQKeyEvent@@@Z 0045c5e4     qt-mt323:qt-mt323.dll
 0002:000005e8       __imp_??1QMessageBox@@UAE@XZ 0045c5e8     qt-mt323:qt-mt323.dll
 0002:000005ec       __imp_??0QMessageBox@@QAE@ABVQString@@0W4Icon@0@HHHPAVQWidget@@PBD_NI@Z 0045c5ec     qt-mt323:qt-mt323.dll
 0002:000005f0       __imp_?qWarning@@YAXPBDZZ  0045c5f0     qt-mt323:qt-mt323.dll
 0002:000005f4       __imp_?reject@QDialog@@MAEXXZ 0045c5f4     qt-mt323:qt-mt323.dll
 0002:000005f8       __imp_?accept@QDialog@@MAEXXZ 0045c5f8     qt-mt323:qt-mt323.dll
 0002:000005fc       __imp_?done@QDialog@@MAEXH@Z 0045c5fc     qt-mt323:qt-mt323.dll
 0002:00000600       __imp_?focusNextPrevChild@QWidget@@MAE_N_N@Z 0045c600     qt-mt323:qt-mt323.dll
 0002:00000604       __imp_?windowActivationChange@QWidget@@MAEX_N@Z 0045c604     qt-mt323:qt-mt323.dll
 0002:00000608       __imp_?fontChange@QWidget@@MAEXABVQFont@@@Z 0045c608     qt-mt323:qt-mt323.dll
 0002:0000060c       __imp_?styleChange@QWidget@@MAEXAAVQStyle@@@Z 0045c60c     qt-mt323:qt-mt323.dll
 0002:00000610       __imp_?showEvent@QWidget@@MAEXPAVQShowEvent@@@Z 0045c610     qt-mt323:qt-mt323.dll
 0002:00000614       __imp_?contextMenuEvent@QDialog@@MAEXPAVQContextMenuEvent@@@Z 0045c614     qt-mt323:qt-mt323.dll
 0002:00000618       __imp_?closeEvent@QDialog@@MAEXPAVQCloseEvent@@@Z 0045c618     qt-mt323:qt-mt323.dll
 0002:0000061c       __imp_?resizeEvent@QDialog@@MAEXPAVQResizeEvent@@@Z 0045c61c     qt-mt323:qt-mt323.dll
 0002:00000620       __imp_?paintEvent@QWidget@@MAEXPAVQPaintEvent@@@Z 0045c620     qt-mt323:qt-mt323.dll
 0002:00000624       __imp_?focusOutEvent@QWidget@@MAEXPAVQFocusEvent@@@Z 0045c624     qt-mt323:qt-mt323.dll
 0002:00000628       __imp_?focusInEvent@QWidget@@MAEXPAVQFocusEvent@@@Z 0045c628     qt-mt323:qt-mt323.dll
 0002:0000062c       __imp_?keyPressEvent@QDialog@@MAEXPAVQKeyEvent@@@Z 0045c62c     qt-mt323:qt-mt323.dll
 0002:00000630       __imp_?wheelEvent@QWidget@@MAEXPAVQWheelEvent@@@Z 0045c630     qt-mt323:qt-mt323.dll
 0002:00000634       __imp_?mouseMoveEvent@QWidget@@MAEXPAVQMouseEvent@@@Z 0045c634     qt-mt323:qt-mt323.dll
 0002:00000638       __imp_?mouseDoubleClickEvent@QWidget@@MAEXPAVQMouseEvent@@@Z 0045c638     qt-mt323:qt-mt323.dll
 0002:0000063c       __imp_?mouseReleaseEvent@QWidget@@MAEXPAVQMouseEvent@@@Z 0045c63c     qt-mt323:qt-mt323.dll
 0002:00000640       __imp_?mousePressEvent@QWidget@@MAEXPAVQMouseEvent@@@Z 0045c640     qt-mt323:qt-mt323.dll
 0002:00000644       __imp_?minimumSizeHint@QDialog@@UBE?AVQSize@@XZ 0045c644     qt-mt323:qt-mt323.dll
 0002:00000648       __imp_?sizeHint@QDialog@@UBE?AVQSize@@XZ 0045c648     qt-mt323:qt-mt323.dll
 0002:0000064c       __imp_?setGeometry@QDialog@@UAEXHHHH@Z 0045c64c     qt-mt323:qt-mt323.dll
 0002:00000650       __imp_?setGeometry@QDialog@@UAEXABVQRect@@@Z 0045c650     qt-mt323:qt-mt323.dll
 0002:00000654       __imp_?resize@QDialog@@UAEXHH@Z 0045c654     qt-mt323:qt-mt323.dll
 0002:00000658       __imp_?move@QDialog@@UAEXHH@Z 0045c658     qt-mt323:qt-mt323.dll
 0002:0000065c       __imp_?hide@QDialog@@UAEXXZ 0045c65c     qt-mt323:qt-mt323.dll
 0002:00000660       __imp_?show@QDialog@@UAEXXZ 0045c660     qt-mt323:qt-mt323.dll
 0002:00000664       __imp_?setFont@QWidget@@UAEXABVQFont@@@Z 0045c664     qt-mt323:qt-mt323.dll
 0002:00000668       __imp_?setPalette@QWidget@@UAEXABVQPalette@@@Z 0045c668     qt-mt323:qt-mt323.dll
 0002:0000066c       __imp_?setEnabled@QWidget@@UAEX_N@Z 0045c66c     qt-mt323:qt-mt323.dll
 0002:00000670       __imp_?eventFilter@QDialog@@MAE_NPAVQObject@@PAVQEvent@@@Z 0045c670     qt-mt323:qt-mt323.dll
 0002:00000674       __imp_??9@YA_NABVQString@@0@Z 0045c674     qt-mt323:qt-mt323.dll
 0002:00000678       __imp_?insertItem@QComboBox@@QAEXABVQString@@H@Z 0045c678     qt-mt323:qt-mt323.dll
 0002:0000067c       __imp_?clear@QComboBox@@QAEXXZ 0045c67c     qt-mt323:qt-mt323.dll
 0002:00000680       __imp_?windowActivationChange@QListView@@MAEX_N@Z 0045c680     qt-mt323:qt-mt323.dll
 0002:00000684       __imp_?updateContents@QListView@@IAEXXZ 0045c684     qt-mt323:qt-mt323.dll
 0002:00000688       __imp_?adjustColumn@QListView@@QAEXH@Z 0045c688     qt-mt323:qt-mt323.dll
 0002:0000068c       __imp_?rightJustify@QString@@QBE?AV1@IVQChar@@_N@Z 0045c68c     qt-mt323:qt-mt323.dll
 0002:00000690       __imp_?selectedItem@QListView@@QBEPAVQListViewItem@@XZ 0045c690     qt-mt323:qt-mt323.dll
 0002:00000694       __imp_??0QGList@@IAE@ABV0@@Z 0045c694     qt-mt323:qt-mt323.dll
 0002:00000698       __imp_??4QGList@@IAEAAV0@ABV0@@Z 0045c698     qt-mt323:qt-mt323.dll
 0002:0000069c       __imp_??0QGListIterator@@IAE@ABVQGList@@@Z 0045c69c     qt-mt323:qt-mt323.dll
 0002:000006a0       __imp_??4QGListIterator@@IAEAAV0@ABV0@@Z 0045c6a0     qt-mt323:qt-mt323.dll
 0002:000006a4       __imp_??0QGListIterator@@IAE@ABV0@@Z 0045c6a4     qt-mt323:qt-mt323.dll
 0002:000006a8       __imp_??1QGListIterator@@IAE@XZ 0045c6a8     qt-mt323:qt-mt323.dll
 0002:000006ac       __imp_?viewportResizeEvent@QScrollView@@MAEXPAVQResizeEvent@@@Z 0045c6ac     qt-mt323:qt-mt323.dll
 0002:000006b0       __imp_?contentsContextMenuEvent@QScrollView@@MAEXPAVQContextMenuEvent@@@Z 0045c6b0     qt-mt323:qt-mt323.dll
 0002:000006b4       __imp_?contentsDropEvent@QScrollView@@MAEXPAVQDropEvent@@@Z 0045c6b4     qt-mt323:qt-mt323.dll
 0002:000006b8       __imp_?contentsDragLeaveEvent@QScrollView@@MAEXPAVQDragLeaveEvent@@@Z 0045c6b8     qt-mt323:qt-mt323.dll
 0002:000006bc       __imp_?contentsDragMoveEvent@QScrollView@@MAEXPAVQDragMoveEvent@@@Z 0045c6bc     qt-mt323:qt-mt323.dll
 0002:000006c0       __imp_?contentsDragEnterEvent@QScrollView@@MAEXPAVQDragEnterEvent@@@Z 0045c6c0     qt-mt323:qt-mt323.dll
 0002:000006c4       __imp_?contentsMouseMoveEvent@QScrollView@@MAEXPAVQMouseEvent@@@Z 0045c6c4     qt-mt323:qt-mt323.dll
 0002:000006c8       __imp_?contentsMouseDoubleClickEvent@QScrollView@@MAEXPAVQMouseEvent@@@Z 0045c6c8     qt-mt323:qt-mt323.dll
 0002:000006cc       __imp_?contentsMouseReleaseEvent@QScrollView@@MAEXPAVQMouseEvent@@@Z 0045c6cc     qt-mt323:qt-mt323.dll
 0002:000006d0       __imp_?contentsMousePressEvent@QScrollView@@MAEXPAVQMouseEvent@@@Z 0045c6d0     qt-mt323:qt-mt323.dll
 0002:000006d4       __imp_?drawContentsOffset@QScrollView@@MAEXPAVQPainter@@HHHHHH@Z 0045c6d4     qt-mt323:qt-mt323.dll
 0002:000006d8       __imp_?setContentsPos@QScrollView@@UAEXHH@Z 0045c6d8     qt-mt323:qt-mt323.dll
 0002:000006dc       __imp_?resizeEvent@QScrollView@@MAEXPAVQResizeEvent@@@Z 0045c6dc     qt-mt323:qt-mt323.dll
 0002:000006e0       __imp_?keyPressEvent@QWidget@@MAEXPAVQKeyEvent@@@Z 0045c6e0     qt-mt323:qt-mt323.dll
 0002:000006e4       __imp_?minimumSizeHint@QScrollView@@UBE?AVQSize@@XZ 0045c6e4     qt-mt323:qt-mt323.dll
 0002:000006e8       __imp_?sizeHint@QScrollView@@UBE?AVQSize@@XZ 0045c6e8     qt-mt323:qt-mt323.dll
 0002:000006ec       __imp_?show@QScrollView@@UAEXXZ 0045c6ec     qt-mt323:qt-mt323.dll
 0002:000006f0       __imp_?eventFilter@QScrollView@@MAE_NPAVQObject@@PAVQEvent@@@Z 0045c6f0     qt-mt323:qt-mt323.dll
 0002:000006f4       __imp_??1QScrollView@@UAE@XZ 0045c6f4     qt-mt323:qt-mt323.dll
 0002:000006f8       __imp_??0QScrollView@@QAE@PAVQWidget@@PBDI@Z 0045c6f8     qt-mt323:qt-mt323.dll
 0002:000006fc       __imp_?setStyle@QWidget@@QAEXPAVQStyle@@@Z 0045c6fc     qt-mt323:qt-mt323.dll
 0002:00000700       __imp_?style@QWidget@@QBEAAVQStyle@@XZ 0045c700     qt-mt323:qt-mt323.dll
 0002:00000704       __imp_?disconnect@QObject@@SA_NPBV1@PBD01@Z 0045c704     qt-mt323:qt-mt323.dll
 0002:00000708       __imp_?setChecked@QRadioButton@@UAEX_N@Z 0045c708     qt-mt323:qt-mt323.dll
 0002:0000070c       __imp_?drawButtonLabel@QRadioButton@@MAEXPAVQPainter@@@Z 0045c70c     qt-mt323:qt-mt323.dll
 0002:00000710       __imp_?drawButton@QRadioButton@@MAEXPAVQPainter@@@Z 0045c710     qt-mt323:qt-mt323.dll
 0002:00000714       __imp_?hitButton@QRadioButton@@MBE_NABVQPoint@@@Z 0045c714     qt-mt323:qt-mt323.dll
 0002:00000718       __imp_?updateMask@QRadioButton@@MAEXXZ 0045c718     qt-mt323:qt-mt323.dll
 0002:0000071c       __imp_?resizeEvent@QRadioButton@@MAEXPAVQResizeEvent@@@Z 0045c71c     qt-mt323:qt-mt323.dll
 0002:00000720       __imp_?focusOutEvent@QButton@@MAEXPAVQFocusEvent@@@Z 0045c720     qt-mt323:qt-mt323.dll
 0002:00000724       __imp_?focusInEvent@QButton@@MAEXPAVQFocusEvent@@@Z 0045c724     qt-mt323:qt-mt323.dll
 0002:00000728       __imp_?sizeHint@QRadioButton@@UBE?AVQSize@@XZ 0045c728     qt-mt323:qt-mt323.dll
 0002:0000072c       __imp_?qt_property@QRadioButton@@UAE_NHHPAVQVariant@@@Z 0045c72c     qt-mt323:qt-mt323.dll
 0002:00000730       __imp_?qt_emit@QRadioButton@@UAE_NHPAUQUObject@@@Z 0045c730     qt-mt323:qt-mt323.dll
 0002:00000734       __imp_?qt_invoke@QRadioButton@@UAE_NHPAUQUObject@@@Z 0045c734     qt-mt323:qt-mt323.dll
 0002:00000738       __imp_?qt_cast@QRadioButton@@UAEPAXPBD@Z 0045c738     qt-mt323:qt-mt323.dll
 0002:0000073c       __imp_?className@QRadioButton@@UBEPBDXZ 0045c73c     qt-mt323:qt-mt323.dll
 0002:00000740       __imp_?metaObject@QRadioButton@@UBEPAVQMetaObject@@XZ 0045c740     qt-mt323:qt-mt323.dll
 0002:00000744       __imp_?moveFocus@QButtonGroup@@UAEXH@Z 0045c744     qt-mt323:qt-mt323.dll
 0002:00000748       __imp_?setButton@QButtonGroup@@UAEXH@Z 0045c748     qt-mt323:qt-mt323.dll
 0002:0000074c       __imp_?setRadioButtonExclusive@QButtonGroup@@UAEX_N@Z 0045c74c     qt-mt323:qt-mt323.dll
 0002:00000750       __imp_?setExclusive@QButtonGroup@@UAEX_N@Z 0045c750     qt-mt323:qt-mt323.dll
 0002:00000754       __imp_?setAlignment@QGroupBox@@UAEXH@Z 0045c754     qt-mt323:qt-mt323.dll
 0002:00000758       __imp_?setTitle@QGroupBox@@UAEXABVQString@@@Z 0045c758     qt-mt323:qt-mt323.dll
 0002:0000075c       __imp_?setColumnLayout@QGroupBox@@UAEXHW4Orientation@Qt@@@Z 0045c75c     qt-mt323:qt-mt323.dll
 0002:00000760       __imp_?frameChanged@QFrame@@MAEXXZ 0045c760     qt-mt323:qt-mt323.dll
 0002:00000764       __imp_?drawContents@QFrame@@MAEXPAVQPainter@@@Z 0045c764     qt-mt323:qt-mt323.dll
 0002:00000768       __imp_?fontChange@QGroupBox@@MAEXABVQFont@@@Z 0045c768     qt-mt323:qt-mt323.dll
 0002:0000076c       __imp_?styleChange@QFrame@@MAEXAAVQStyle@@@Z 0045c76c     qt-mt323:qt-mt323.dll
 0002:00000770       __imp_?resizeEvent@QGroupBox@@MAEXPAVQResizeEvent@@@Z 0045c770     qt-mt323:qt-mt323.dll
 0002:00000774       __imp_?paintEvent@QGroupBox@@MAEXPAVQPaintEvent@@@Z 0045c774     qt-mt323:qt-mt323.dll
 0002:00000778       __imp_?focusInEvent@QGroupBox@@MAEXPAVQFocusEvent@@@Z 0045c778     qt-mt323:qt-mt323.dll
 0002:0000077c       __imp_?sizeHint@QGroupBox@@UBE?AVQSize@@XZ 0045c77c     qt-mt323:qt-mt323.dll
 0002:00000780       __imp_?resize@QWidget@@UAEXHH@Z 0045c780     qt-mt323:qt-mt323.dll
 0002:00000784       __imp_?setEnabled@QGroupBox@@UAEX_N@Z 0045c784     qt-mt323:qt-mt323.dll
 0002:00000788       __imp_?childEvent@QGroupBox@@MAEXPAVQChildEvent@@@Z 0045c788     qt-mt323:qt-mt323.dll
 0002:0000078c       __imp_?event@QButtonGroup@@MAE_NPAVQEvent@@@Z 0045c78c     qt-mt323:qt-mt323.dll
 0002:00000790       __imp_?qt_property@QButtonGroup@@UAE_NHHPAVQVariant@@@Z 0045c790     qt-mt323:qt-mt323.dll
 0002:00000794       __imp_?qt_emit@QButtonGroup@@UAE_NHPAUQUObject@@@Z 0045c794     qt-mt323:qt-mt323.dll
 0002:00000798       __imp_?qt_invoke@QButtonGroup@@UAE_NHPAUQUObject@@@Z 0045c798     qt-mt323:qt-mt323.dll
 0002:0000079c       __imp_?qt_cast@QButtonGroup@@UAEPAXPBD@Z 0045c79c     qt-mt323:qt-mt323.dll
 0002:000007a0       __imp_?className@QButtonGroup@@UBEPBDXZ 0045c7a0     qt-mt323:qt-mt323.dll
 0002:000007a4       __imp_?metaObject@QButtonGroup@@UBEPAVQMetaObject@@XZ 0045c7a4     qt-mt323:qt-mt323.dll
 0002:000007a8       __imp_?qt_property@QHBoxLayout@@UAE_NHHPAVQVariant@@@Z 0045c7a8     qt-mt323:qt-mt323.dll
 0002:000007ac       __imp_?qt_emit@QHBoxLayout@@UAE_NHPAUQUObject@@@Z 0045c7ac     qt-mt323:qt-mt323.dll
 0002:000007b0       __imp_?qt_invoke@QHBoxLayout@@UAE_NHPAUQUObject@@@Z 0045c7b0     qt-mt323:qt-mt323.dll
 0002:000007b4       __imp_?qt_cast@QHBoxLayout@@UAEPAXPBD@Z 0045c7b4     qt-mt323:qt-mt323.dll
 0002:000007b8       __imp_?className@QHBoxLayout@@UBEPBDXZ 0045c7b8     qt-mt323:qt-mt323.dll
 0002:000007bc       __imp_?metaObject@QHBoxLayout@@UBEPAVQMetaObject@@XZ 0045c7bc     qt-mt323:qt-mt323.dll
 0002:000007c0       __imp_?spacerItem@QLayoutItem@@UAEPAVQSpacerItem@@XZ 0045c7c0     qt-mt323:qt-mt323.dll
 0002:000007c4       __imp_?layout@QLayout@@UAEPAV1@XZ 0045c7c4     qt-mt323:qt-mt323.dll
 0002:000007c8       __imp_?iterator@QBoxLayout@@UAE?AVQLayoutIterator@@XZ 0045c7c8     qt-mt323:qt-mt323.dll
 0002:000007cc       __imp_?invalidate@QBoxLayout@@UAEXXZ 0045c7cc     qt-mt323:qt-mt323.dll
 0002:000007d0       __imp_?heightForWidth@QBoxLayout@@UBEHH@Z 0045c7d0     qt-mt323:qt-mt323.dll
 0002:000007d4       __imp_?hasHeightForWidth@QBoxLayout@@UBE_NXZ 0045c7d4     qt-mt323:qt-mt323.dll
 0002:000007d8       __imp_?isEmpty@QLayout@@UBE_NXZ 0045c7d8     qt-mt323:qt-mt323.dll
 0002:000007dc       __imp_?geometry@QLayout@@UBE?AVQRect@@XZ 0045c7dc     qt-mt323:qt-mt323.dll
 0002:000007e0       __imp_?setGeometry@QBoxLayout@@UAEXABVQRect@@@Z 0045c7e0     qt-mt323:qt-mt323.dll
 0002:000007e4       __imp_?expanding@QBoxLayout@@UBE?AW4ExpandData@QSizePolicy@@XZ 0045c7e4     qt-mt323:qt-mt323.dll
 0002:000007e8       __imp_?maximumSize@QBoxLayout@@UBE?AVQSize@@XZ 0045c7e8     qt-mt323:qt-mt323.dll
 0002:000007ec       __imp_?minimumSize@QBoxLayout@@UBE?AVQSize@@XZ 0045c7ec     qt-mt323:qt-mt323.dll
 0002:000007f0       __imp_?sizeHint@QBoxLayout@@UBE?AVQSize@@XZ 0045c7f0     qt-mt323:qt-mt323.dll
 0002:000007f4       __imp_?addItem@QBoxLayout@@UAEXPAVQLayoutItem@@@Z 0045c7f4     qt-mt323:qt-mt323.dll
 0002:000007f8       __imp_?setAutoAdd@QLayout@@UAEX_N@Z 0045c7f8     qt-mt323:qt-mt323.dll
 0002:000007fc       __imp_?setMenuBar@QLayout@@UAEXPAVQMenuBar@@@Z 0045c7fc     qt-mt323:qt-mt323.dll
 0002:00000800       __imp_?setSpacing@QLayout@@UAEXH@Z 0045c800     qt-mt323:qt-mt323.dll
 0002:00000804       __imp_?setMargin@QLayout@@UAEXH@Z 0045c804     qt-mt323:qt-mt323.dll
 0002:00000808       __imp_?childEvent@QLayout@@MAEXPAVQChildEvent@@@Z 0045c808     qt-mt323:qt-mt323.dll
 0002:0000080c       __imp_?eventFilter@QLayout@@MAE_NPAVQObject@@PAVQEvent@@@Z 0045c80c     qt-mt323:qt-mt323.dll
 0002:00000810       __imp_?qt_property@QVBoxLayout@@UAE_NHHPAVQVariant@@@Z 0045c810     qt-mt323:qt-mt323.dll
 0002:00000814       __imp_?qt_emit@QVBoxLayout@@UAE_NHPAUQUObject@@@Z 0045c814     qt-mt323:qt-mt323.dll
 0002:00000818       __imp_?qt_invoke@QVBoxLayout@@UAE_NHPAUQUObject@@@Z 0045c818     qt-mt323:qt-mt323.dll
 0002:0000081c       __imp_?qt_cast@QVBoxLayout@@UAEPAXPBD@Z 0045c81c     qt-mt323:qt-mt323.dll
 0002:00000820       __imp_?className@QVBoxLayout@@UBEPBDXZ 0045c820     qt-mt323:qt-mt323.dll
 0002:00000824       __imp_?metaObject@QVBoxLayout@@UBEPAVQMetaObject@@XZ 0045c824     qt-mt323:qt-mt323.dll
 0002:00000828       __imp_?setOn@QPushButton@@UAEX_N@Z 0045c828     qt-mt323:qt-mt323.dll
 0002:0000082c       __imp_?setIsMenuButton@QPushButton@@UAEX_N@Z 0045c82c     qt-mt323:qt-mt323.dll
 0002:00000830       __imp_?setDefault@QPushButton@@UAEX_N@Z 0045c830     qt-mt323:qt-mt323.dll
 0002:00000834       __imp_?setAutoDefault@QPushButton@@UAEX_N@Z 0045c834     qt-mt323:qt-mt323.dll
 0002:00000838       __imp_?setGroup@QButton@@EAEXPAVQButtonGroup@@@Z 0045c838     qt-mt323:qt-mt323.dll
 0002:0000083c       __imp_?drawButtonLabel@QPushButton@@MAEXPAVQPainter@@@Z 0045c83c     qt-mt323:qt-mt323.dll
 0002:00000840       __imp_?drawButton@QPushButton@@MAEXPAVQPainter@@@Z 0045c840     qt-mt323:qt-mt323.dll
 0002:00000844       __imp_?hitButton@QButton@@MBE_NABVQPoint@@@Z 0045c844     qt-mt323:qt-mt323.dll
 0002:00000848       __imp_?setState@QButton@@MAEXW4ToggleState@1@@Z 0045c848     qt-mt323:qt-mt323.dll
 0002:0000084c       __imp_?setToggleType@QButton@@MAEXW4ToggleType@1@@Z 0045c84c     qt-mt323:qt-mt323.dll
 0002:00000850       __imp_?setAutoRepeat@QButton@@UAEX_N@Z 0045c850     qt-mt323:qt-mt323.dll
 0002:00000854       __imp_?setDown@QButton@@UAEX_N@Z 0045c854     qt-mt323:qt-mt323.dll
 0002:00000858       __imp_?setAccel@QButton@@UAEXABVQKeySequence@@@Z 0045c858     qt-mt323:qt-mt323.dll
 0002:0000085c       __imp_?setPixmap@QButton@@UAEXABVQPixmap@@@Z 0045c85c     qt-mt323:qt-mt323.dll
 0002:00000860       __imp_?setText@QButton@@UAEXABVQString@@@Z 0045c860     qt-mt323:qt-mt323.dll
 0002:00000864       __imp_?enabledChange@QButton@@MAEX_N@Z 0045c864     qt-mt323:qt-mt323.dll
 0002:00000868       __imp_?updateMask@QPushButton@@MAEXXZ 0045c868     qt-mt323:qt-mt323.dll
 0002:0000086c       __imp_?contextMenuEvent@QWidget@@MAEXPAVQContextMenuEvent@@@Z 0045c86c     qt-mt323:qt-mt323.dll
 0002:00000870       __imp_?resizeEvent@QPushButton@@MAEXPAVQResizeEvent@@@Z 0045c870     qt-mt323:qt-mt323.dll
 0002:00000874       __imp_?paintEvent@QButton@@MAEXPAVQPaintEvent@@@Z 0045c874     qt-mt323:qt-mt323.dll
 0002:00000878       __imp_?focusOutEvent@QPushButton@@MAEXPAVQFocusEvent@@@Z 0045c878     qt-mt323:qt-mt323.dll
 0002:0000087c       __imp_?focusInEvent@QPushButton@@MAEXPAVQFocusEvent@@@Z 0045c87c     qt-mt323:qt-mt323.dll
 0002:00000880       __imp_?keyReleaseEvent@QButton@@MAEXPAVQKeyEvent@@@Z 0045c880     qt-mt323:qt-mt323.dll
 0002:00000884       __imp_?keyPressEvent@QButton@@MAEXPAVQKeyEvent@@@Z 0045c884     qt-mt323:qt-mt323.dll
 0002:00000888       __imp_?mouseMoveEvent@QButton@@MAEXPAVQMouseEvent@@@Z 0045c888     qt-mt323:qt-mt323.dll
 0002:0000088c       __imp_?mouseReleaseEvent@QButton@@MAEXPAVQMouseEvent@@@Z 0045c88c     qt-mt323:qt-mt323.dll
 0002:00000890       __imp_?mousePressEvent@QButton@@MAEXPAVQMouseEvent@@@Z 0045c890     qt-mt323:qt-mt323.dll
 0002:00000894       __imp_?minimumSizeHint@QWidget@@UBE?AVQSize@@XZ 0045c894     qt-mt323:qt-mt323.dll
 0002:00000898       __imp_?sizeHint@QPushButton@@UBE?AVQSize@@XZ 0045c898     qt-mt323:qt-mt323.dll
 0002:0000089c       __imp_?setGeometry@QPushButton@@UAEXHHHH@Z 0045c89c     qt-mt323:qt-mt323.dll
 0002:000008a0       __imp_?setGeometry@QPushButton@@UAEXABVQRect@@@Z 0045c8a0     qt-mt323:qt-mt323.dll
 0002:000008a4       __imp_?resize@QPushButton@@UAEXHH@Z 0045c8a4     qt-mt323:qt-mt323.dll
 0002:000008a8       __imp_?move@QPushButton@@UAEXHH@Z 0045c8a8     qt-mt323:qt-mt323.dll
 0002:000008ac       __imp_?show@QWidget@@UAEXXZ 0045c8ac     qt-mt323:qt-mt323.dll
 0002:000008b0       __imp_?qt_property@QPushButton@@UAE_NHHPAVQVariant@@@Z 0045c8b0     qt-mt323:qt-mt323.dll
 0002:000008b4       __imp_?qt_emit@QPushButton@@UAE_NHPAUQUObject@@@Z 0045c8b4     qt-mt323:qt-mt323.dll
 0002:000008b8       __imp_?qt_invoke@QPushButton@@UAE_NHPAUQUObject@@@Z 0045c8b8     qt-mt323:qt-mt323.dll
 0002:000008bc       __imp_?qt_cast@QPushButton@@UAEPAXPBD@Z 0045c8bc     qt-mt323:qt-mt323.dll
 0002:000008c0       __imp_?className@QPushButton@@UBEPBDXZ 0045c8c0     qt-mt323:qt-mt323.dll
 0002:000008c4       __imp_?metaObject@QPushButton@@UBEPAVQMetaObject@@XZ 0045c8c4     qt-mt323:qt-mt323.dll
 0002:000008c8       __imp_?setAlignment@QLayoutItem@@UAEXH@Z 0045c8c8     qt-mt323:qt-mt323.dll
 0002:000008cc       __imp_?spacerItem@QSpacerItem@@UAEPAV1@XZ 0045c8cc     qt-mt323:qt-mt323.dll
 0002:000008d0       __imp_?layout@QLayoutItem@@UAEPAVQLayout@@XZ 0045c8d0     qt-mt323:qt-mt323.dll
 0002:000008d4       __imp_?iterator@QLayoutItem@@UAE?AVQLayoutIterator@@XZ 0045c8d4     qt-mt323:qt-mt323.dll
 0002:000008d8       __imp_?widget@QLayoutItem@@UAEPAVQWidget@@XZ 0045c8d8     qt-mt323:qt-mt323.dll
 0002:000008dc       __imp_?invalidate@QLayoutItem@@UAEXXZ 0045c8dc     qt-mt323:qt-mt323.dll
 0002:000008e0       __imp_?heightForWidth@QLayoutItem@@UBEHH@Z 0045c8e0     qt-mt323:qt-mt323.dll
 0002:000008e4       __imp_?hasHeightForWidth@QLayoutItem@@UBE_NXZ 0045c8e4     qt-mt323:qt-mt323.dll
 0002:000008e8       __imp_?isEmpty@QSpacerItem@@UBE_NXZ 0045c8e8     qt-mt323:qt-mt323.dll
 0002:000008ec       __imp_?geometry@QSpacerItem@@UBE?AVQRect@@XZ 0045c8ec     qt-mt323:qt-mt323.dll
 0002:000008f0       __imp_?setGeometry@QSpacerItem@@UAEXABVQRect@@@Z 0045c8f0     qt-mt323:qt-mt323.dll
 0002:000008f4       __imp_?expanding@QSpacerItem@@UBE?AW4ExpandData@QSizePolicy@@XZ 0045c8f4     qt-mt323:qt-mt323.dll
 0002:000008f8       __imp_?maximumSize@QSpacerItem@@UBE?AVQSize@@XZ 0045c8f8     qt-mt323:qt-mt323.dll
 0002:000008fc       __imp_?minimumSize@QSpacerItem@@UBE?AVQSize@@XZ 0045c8fc     qt-mt323:qt-mt323.dll
 0002:00000900       __imp_?sizeHint@QSpacerItem@@UBE?AVQSize@@XZ 0045c900     qt-mt323:qt-mt323.dll
 0002:00000904       __imp_??1QDialog@@UAE@XZ   0045c904     qt-mt323:qt-mt323.dll
 0002:00000908       __imp_?resize@QDialog@@QAEXABVQSize@@@Z 0045c908     qt-mt323:qt-mt323.dll
 0002:0000090c       __imp_??0QPushButton@@QAE@PAVQWidget@@PBD@Z 0045c90c     qt-mt323:qt-mt323.dll
 0002:00000910       __imp_?addLayout@QBoxLayout@@QAEXPAVQLayout@@H@Z 0045c910     qt-mt323:qt-mt323.dll
 0002:00000914       __imp_?addWidget@QBoxLayout@@QAEXPAVQWidget@@HH@Z 0045c914     qt-mt323:qt-mt323.dll
 0002:00000918       __imp_??0QRadioButton@@QAE@PAVQWidget@@PBD@Z 0045c918     qt-mt323:qt-mt323.dll
 0002:0000091c       __imp_??0QVBoxLayout@@QAE@PAVQLayout@@HPBD@Z 0045c91c     qt-mt323:qt-mt323.dll
 0002:00000920       __imp_??0QButtonGroup@@QAE@PAVQWidget@@PBD@Z 0045c920     qt-mt323:qt-mt323.dll
 0002:00000924       __imp_??0QHBoxLayout@@QAE@PAVQWidget@@HHPBD@Z 0045c924     qt-mt323:qt-mt323.dll
 0002:00000928       __imp_??0QVBoxLayout@@QAE@PAVQWidget@@HHPBD@Z 0045c928     qt-mt323:qt-mt323.dll
 0002:0000092c       __imp_?setSizeGripEnabled@QDialog@@QAEX_N@Z 0045c92c     qt-mt323:qt-mt323.dll
 0002:00000930       __imp_??0QDialog@@QAE@PAVQWidget@@PBD_NI@Z 0045c930     qt-mt323:qt-mt323.dll
 0002:00000934       __imp_??1QSpacerItem@@UAE@XZ 0045c934     qt-mt323:qt-mt323.dll
 0002:00000938       __imp_??1QVBoxLayout@@UAE@XZ 0045c938     qt-mt323:qt-mt323.dll
 0002:0000093c       __imp_??1QHBoxLayout@@UAE@XZ 0045c93c     qt-mt323:qt-mt323.dll
 0002:00000940       __imp_??1QButtonGroup@@UAE@XZ 0045c940     qt-mt323:qt-mt323.dll
 0002:00000944       __imp_??1QRadioButton@@UAE@XZ 0045c944     qt-mt323:qt-mt323.dll
 0002:00000948       __imp_??1QPushButton@@UAE@XZ 0045c948     qt-mt323:qt-mt323.dll
 0002:0000094c       __imp_?sizeHint@QWidget@@UBE?AVQSize@@XZ 0045c94c     qt-mt323:qt-mt323.dll
 0002:00000950       __imp_??1QWidget@@UAE@XZ   0045c950     qt-mt323:qt-mt323.dll
 0002:00000954       __imp_?raise@QWidget@@QAEXXZ 0045c954     qt-mt323:qt-mt323.dll
 0002:00000958       __imp_?pos@QWidget@@QBE?AVQPoint@@XZ 0045c958     qt-mt323:qt-mt323.dll
 0002:0000095c       __imp_??0QWidget@@QAE@PAV0@PBDI@Z 0045c95c     qt-mt323:qt-mt323.dll
 0002:00000960       __imp_??1QPainter@@QAE@XZ  0045c960     qt-mt323:qt-mt323.dll
 0002:00000964       __imp_?drawRect@QPainter@@QAEXHHHH@Z 0045c964     qt-mt323:qt-mt323.dll
 0002:00000968       __imp_?setPen@QPainter@@QAEXABVQColor@@@Z 0045c968     qt-mt323:qt-mt323.dll
 0002:0000096c       __imp_?white@Qt@@2AAVQColor@@A 0045c96c     qt-mt323:qt-mt323.dll
 0002:00000970       __imp_?setBrush@QPainter@@QAEXABVQColor@@@Z 0045c970     qt-mt323:qt-mt323.dll
 0002:00000974       __imp_?black@Qt@@2AAVQColor@@A 0045c974     qt-mt323:qt-mt323.dll
 0002:00000978       __imp_?blue@Qt@@2AAVQColor@@A 0045c978     qt-mt323:qt-mt323.dll
 0002:0000097c       __imp_??0QPainter@@QAE@PBVQPaintDevice@@_N@Z 0045c97c     qt-mt323:qt-mt323.dll
 0002:00000980       __imp_??1QBitmap@@UAE@XZ   0045c980     qt-mt323:qt-mt323.dll
 0002:00000984       __imp_??1QPixmap@@UAE@XZ   0045c984     qt-mt323:qt-mt323.dll
 0002:00000988       __imp_??1QBrush@@QAE@XZ    0045c988     qt-mt323:qt-mt323.dll
 0002:0000098c       __imp_?fillRect@QPainter@@QAEXHHHHABVQBrush@@@Z 0045c98c     qt-mt323:qt-mt323.dll
 0002:00000990       __imp_??0QBrush@@QAE@ABVQColor@@W4BrushStyle@Qt@@@Z 0045c990     qt-mt323:qt-mt323.dll
 0002:00000994       __imp_??0QPainter@@QAE@PBVQPaintDevice@@PBVQWidget@@_N@Z 0045c994     qt-mt323:qt-mt323.dll
 0002:00000998       __imp_??0QBitmap@@QAE@ABVQSize@@_NW4Optimization@QPixmap@@@Z 0045c998     qt-mt323:qt-mt323.dll
 0002:0000099c       __imp_?arg@QString@@QBE?AV1@HHH@Z 0045c99c     qt-mt323:qt-mt323.dll
 0002:000009a0       __imp_?name@QObject@@QBEPBDXZ 0045c9a0     qt-mt323:qt-mt323.dll
 0002:000009a4       __imp_?x@QWidget@@QBEHXZ   0045c9a4     qt-mt323:qt-mt323.dll
 0002:000009a8       __imp_?y@QWidget@@QBEHXZ   0045c9a8     qt-mt323:qt-mt323.dll
 0002:000009ac       __imp_??1QCursor@@QAE@XZ   0045c9ac     qt-mt323:qt-mt323.dll
 0002:000009b0       __imp_??0QCursor@@QAE@H@Z  0045c9b0     qt-mt323:qt-mt323.dll
 0002:000009b4       __imp_?endsWith@QString@@QBE_NABV1@@Z 0045c9b4     qt-mt323:qt-mt323.dll
 0002:000009b8       __imp_?dragLeft@QIconViewItem@@MAEXXZ 0045c9b8     qt-mt323:qt-mt323.dll
 0002:000009bc       __imp_?dragEntered@QIconViewItem@@MAEXXZ 0045c9bc     qt-mt323:qt-mt323.dll
 0002:000009c0       __imp_?dropped@QIconViewItem@@MAEXPAVQDropEvent@@ABV?$QValueList@VQIconDragItem@@@@@Z 0045c9c0     qt-mt323:qt-mt323.dll
 0002:000009c4       __imp_?paintFocus@QIconViewItem@@MAEXPAVQPainter@@ABVQColorGroup@@@Z 0045c9c4     qt-mt323:qt-mt323.dll
 0002:000009c8       __imp_?paintItem@QIconViewItem@@MAEXPAVQPainter@@ABVQColorGroup@@@Z 0045c9c8     qt-mt323:qt-mt323.dll
 0002:000009cc       __imp_?calcRect@QIconViewItem@@MAEXABVQString@@@Z 0045c9cc     qt-mt323:qt-mt323.dll
 0002:000009d0       __imp_?removeRenameBox@QIconViewItem@@MAEXXZ 0045c9d0     qt-mt323:qt-mt323.dll
 0002:000009d4       __imp_?rtti@QIconViewItem@@UBEHXZ 0045c9d4     qt-mt323:qt-mt323.dll
 0002:000009d8       __imp_?setKey@QIconViewItem@@UAEXABVQString@@@Z 0045c9d8     qt-mt323:qt-mt323.dll
 0002:000009dc       __imp_?setPicture@QIconViewItem@@UAEXABVQPicture@@@Z 0045c9dc     qt-mt323:qt-mt323.dll
 0002:000009e0       __imp_?setPixmap@QIconViewItem@@UAEXABVQPixmap@@@Z 0045c9e0     qt-mt323:qt-mt323.dll
 0002:000009e4       __imp_?setPixmap@QIconViewItem@@UAEXABVQPixmap@@_N1@Z 0045c9e4     qt-mt323:qt-mt323.dll
 0002:000009e8       __imp_?setText@QIconViewItem@@UAEXABVQString@@@Z 0045c9e8     qt-mt323:qt-mt323.dll
 0002:000009ec       __imp_?setText@QIconViewItem@@UAEXABVQString@@_N1@Z 0045c9ec     qt-mt323:qt-mt323.dll
 0002:000009f0       __imp_?compare@QIconViewItem@@UBEHPAV1@@Z 0045c9f0     qt-mt323:qt-mt323.dll
 0002:000009f4       __imp_?acceptDrop@QIconViewItem@@UBE_NPBVQMimeSource@@@Z 0045c9f4     qt-mt323:qt-mt323.dll
 0002:000009f8       __imp_?moveBy@QIconViewItem@@UAEXHH@Z 0045c9f8     qt-mt323:qt-mt323.dll
 0002:000009fc       __imp_?moveBy@QIconViewItem@@UAEXABVQPoint@@@Z 0045c9fc     qt-mt323:qt-mt323.dll
 0002:00000a00       __imp_?move@QIconViewItem@@UAE_NHH@Z 0045ca00     qt-mt323:qt-mt323.dll
 0002:00000a04       __imp_?move@QIconViewItem@@UAE_NABVQPoint@@@Z 0045ca04     qt-mt323:qt-mt323.dll
 0002:00000a08       __imp_?repaint@QIconViewItem@@UAEXXZ 0045ca08     qt-mt323:qt-mt323.dll
 0002:00000a0c       __imp_?setSelectable@QIconViewItem@@UAEX_N@Z 0045ca0c     qt-mt323:qt-mt323.dll
 0002:00000a10       __imp_?setSelected@QIconViewItem@@UAEX_N0@Z 0045ca10     qt-mt323:qt-mt323.dll
 0002:00000a14       __imp_?setSelected@QIconViewItem@@UAEX_N@Z 0045ca14     qt-mt323:qt-mt323.dll
 0002:00000a18       __imp_?key@QIconViewItem@@UBE?AVQString@@XZ 0045ca18     qt-mt323:qt-mt323.dll
 0002:00000a1c       __imp_?picture@QIconViewItem@@UBEPAVQPicture@@XZ 0045ca1c     qt-mt323:qt-mt323.dll
 0002:00000a20       __imp_?pixmap@QIconViewItem@@UBEPAVQPixmap@@XZ 0045ca20     qt-mt323:qt-mt323.dll
 0002:00000a24       __imp_?text@QIconViewItem@@UBE?AVQString@@XZ 0045ca24     qt-mt323:qt-mt323.dll
 0002:00000a28       __imp_?setDropEnabled@QIconViewItem@@UAEX_N@Z 0045ca28     qt-mt323:qt-mt323.dll
 0002:00000a2c       __imp_?setDragEnabled@QIconViewItem@@UAEX_N@Z 0045ca2c     qt-mt323:qt-mt323.dll
 0002:00000a30       __imp_?setRenameEnabled@QIconViewItem@@UAEX_N@Z 0045ca30     qt-mt323:qt-mt323.dll
 0002:00000a34       __imp_??1QDir@@UAE@XZ      0045ca34     qt-mt323:qt-mt323.dll
 0002:00000a38       __imp_??0QIconViewItem@@QAE@PAVQIconView@@ABVQString@@@Z 0045ca38     qt-mt323:qt-mt323.dll
 0002:00000a3c       __imp_??0QIconViewItem@@QAE@PAVQIconView@@ABVQString@@ABVQPixmap@@@Z 0045ca3c     qt-mt323:qt-mt323.dll
 0002:00000a40       __imp_??0QPixmap@@QAE@ABVQString@@PBDW4ColorMode@0@@Z 0045ca40     qt-mt323:qt-mt323.dll
 0002:00000a44       __imp_?exists@QFileInfo@@QBE_NXZ 0045ca44     qt-mt323:qt-mt323.dll
 0002:00000a48       __imp_?baseName@QFileInfo@@QBE?AVQString@@_N@Z 0045ca48     qt-mt323:qt-mt323.dll
 0002:00000a4c       __imp_?entryList@QDir@@UBE?AVQStringList@@ABVQString@@HH@Z 0045ca4c     qt-mt323:qt-mt323.dll
 0002:00000a50       __imp_??0QDir@@QAE@ABVQString@@0HH@Z 0045ca50     qt-mt323:qt-mt323.dll
 0002:00000a54       __imp_??1QIconViewItem@@UAE@XZ 0045ca54     qt-mt323:qt-mt323.dll
 0002:00000a58       __imp_?currentItem@QIconView@@QBEPAVQIconViewItem@@XZ 0045ca58     qt-mt323:qt-mt323.dll
 0002:00000a5c       __imp_?setPaletteForegroundColor@QWidget@@QAEXABVQColor@@@Z 0045ca5c     qt-mt323:qt-mt323.dll
 0002:00000a60       __imp_?setRgb@QColor@@QAEXHHH@Z 0045ca60     qt-mt323:qt-mt323.dll
 0002:00000a64       __imp_?colormodel@QColor@@0W4ColorModel@1@A 0045ca64     qt-mt323:qt-mt323.dll
 0002:00000a68       __imp_?getColor@QColorDialog@@SA?AVQColor@@ABV2@PAVQWidget@@PBD@Z 0045ca68     qt-mt323:qt-mt323.dll
 0002:00000a6c       __imp_?paletteBackgroundColor@QWidget@@QBEABVQColor@@XZ 0045ca6c     qt-mt323:qt-mt323.dll
 0002:00000a70       __imp_?resizeEvent@QWidget@@MAEXPAVQResizeEvent@@@Z 0045ca70     qt-mt323:qt-mt323.dll
 0002:00000a74       __imp_??1QPen@@QAE@XZ      0045ca74     qt-mt323:qt-mt323.dll
 0002:00000a78       __imp_?setPen@QPainter@@QAEXABVQPen@@@Z 0045ca78     qt-mt323:qt-mt323.dll
 0002:00000a7c       __imp_??0QPen@@QAE@ABVQColor@@IW4PenStyle@Qt@@@Z 0045ca7c     qt-mt323:qt-mt323.dll
 0002:00000a80       __imp_?setPos@QCursor@@SAXHH@Z 0045ca80     qt-mt323:qt-mt323.dll
 0002:00000a84       __imp_?size@QRect@@QBE?AVQSize@@XZ 0045ca84     qt-mt323:qt-mt323.dll
 0002:00000a88       __imp_??0QListViewItem@@QAE@PAV0@VQString@@1111111@Z 0045ca88     qt-mt323:qt-mt323.dll
 0002:00000a8c       __imp_?end@?$QValueList@VQString@@@@QAE?AV?$QValueListIterator@VQString@@@@XZ 0045ca8c     qt-mt323:qt-mt323.dll
 0002:00000a90       __imp_?remove@QString@@QAEAAV1@PBD@Z 0045ca90     qt-mt323:qt-mt323.dll
 0002:00000a94       __imp_??M@YA_NABVQString@@0@Z 0045ca94     qt-mt323:qt-mt323.dll
 0002:00000a98       __imp_?qt_property@QWidget@@UAE_NHHPAVQVariant@@@Z 0045ca98     qt-mt323:qt-mt323.dll
 0002:00000a9c       __imp_?qt_emit@QWidget@@UAE_NHPAUQUObject@@@Z 0045ca9c     qt-mt323:qt-mt323.dll
 0002:00000aa0       __imp_?qt_invoke@QWidget@@UAE_NHPAUQUObject@@@Z 0045caa0     qt-mt323:qt-mt323.dll
 0002:00000aa4       __imp_?qt_cast@QWidget@@UAEPAXPBD@Z 0045caa4     qt-mt323:qt-mt323.dll
 0002:00000aa8       __imp_?className@QWidget@@UBEPBDXZ 0045caa8     qt-mt323:qt-mt323.dll
 0002:00000aac       __imp_?metaObject@QWidget@@UBEPAVQMetaObject@@XZ 0045caac     qt-mt323:qt-mt323.dll
 0002:00000ab0       __imp_?resizeEvent@QFrame@@MAEXPAVQResizeEvent@@@Z 0045cab0     qt-mt323:qt-mt323.dll
 0002:00000ab4       __imp_?sizeHint@QFrame@@UBE?AVQSize@@XZ 0045cab4     qt-mt323:qt-mt323.dll
 0002:00000ab8       __imp_?qt_property@QFrame@@UAE_NHHPAVQVariant@@@Z 0045cab8     qt-mt323:qt-mt323.dll
 0002:00000abc       __imp_?qt_emit@QFrame@@UAE_NHPAUQUObject@@@Z 0045cabc     qt-mt323:qt-mt323.dll
 0002:00000ac0       __imp_?qt_invoke@QFrame@@UAE_NHPAUQUObject@@@Z 0045cac0     qt-mt323:qt-mt323.dll
 0002:00000ac4       __imp_?qt_cast@QFrame@@UAEPAXPBD@Z 0045cac4     qt-mt323:qt-mt323.dll
 0002:00000ac8       __imp_?className@QFrame@@UBEPBDXZ 0045cac8     qt-mt323:qt-mt323.dll
 0002:00000acc       __imp_?metaObject@QFrame@@UBEPAVQMetaObject@@XZ 0045cacc     qt-mt323:qt-mt323.dll
 0002:00000ad0       __imp_??0QFrame@@QAE@PAVQWidget@@PBDI@Z 0045cad0     qt-mt323:qt-mt323.dll
 0002:00000ad4       __imp_??1QFrame@@UAE@XZ    0045cad4     qt-mt323:qt-mt323.dll
 0002:00000ad8       __imp_??0QRect@@QAE@HHHH@Z 0045cad8     qt-mt323:qt-mt323.dll
 0002:00000adc       __imp_??0QRect@@QAE@ABVQPoint@@ABVQSize@@@Z 0045cadc     qt-mt323:qt-mt323.dll
 0002:00000ae0       __imp_?exec@QApplication@@QAEHXZ 0045cae0     qt-mt323:qt-mt323.dll
 0002:00000ae4       __imp_?show@QMainWindow@@UAEXXZ 0045cae4     qt-mt323:qt-mt323.dll
 0002:00000ae8       __imp_?setIconPixmap@QMessageBox@@QAEXABVQPixmap@@@Z 0045cae8     qt-mt323:qt-mt323.dll
 0002:00000aec       __imp_??0QPixmap@@QAE@QAPBD@Z 0045caec     qt-mt323:qt-mt323.dll
 0002:00000af0       __imp_?qApp@@3PAVQApplication@@A 0045caf0     qt-mt323:qt-mt323.dll
 0002:00000af4       __imp_?setMainWidget@QApplication@@UAEXPAVQWidget@@@Z 0045caf4     qt-mt323:qt-mt323.dll
 0002:00000af8       __imp_?setStyle@QApplication@@SAPAVQStyle@@ABVQString@@@Z 0045caf8     qt-mt323:qt-mt323.dll
 0002:00000afc       __imp_?setLibraryPaths@QApplication@@SAXABVQStringList@@@Z 0045cafc     qt-mt323:qt-mt323.dll
 0002:00000b00       __imp_?append@?$QValueList@VQString@@@@QAE?AV?$QValueListIterator@VQString@@@@ABVQString@@@Z 0045cb00     qt-mt323:qt-mt323.dll
 0002:00000b04       __imp_??0?$QValueList@VQString@@@@QAE@XZ 0045cb04     qt-mt323:qt-mt323.dll
 0002:00000b08       __imp_?lower@QString@@QBE?AV1@XZ 0045cb08     qt-mt323:qt-mt323.dll
 0002:00000b0c       __imp_?critical@QMessageBox@@SAHPAVQWidget@@ABVQString@@1111HH@Z 0045cb0c     qt-mt323:qt-mt323.dll
 0002:00000b10       __imp_??1QWidgetList@@UAE@XZ 0045cb10     qt-mt323:qt-mt323.dll
 0002:00000b14       __imp_??_7?$QPtrList@VQWidget@@@@6B@ 0045cb14     qt-mt323:qt-mt323.dll
 0002:00000b18       __imp_?next@QGList@@IAEPAXXZ 0045cb18     qt-mt323:qt-mt323.dll
 0002:00000b1c       __imp_?first@QGList@@IAEPAXXZ 0045cb1c     qt-mt323:qt-mt323.dll
 0002:00000b20       __imp_??_7QWidgetList@@6B@ 0045cb20     qt-mt323:qt-mt323.dll
 0002:00000b24       __imp_?clear@QListBox@@QAEXXZ 0045cb24     qt-mt323:qt-mt323.dll
 0002:00000b28       __imp_?startTimer@QObject@@QAEHH@Z 0045cb28     qt-mt323:qt-mt323.dll
 0002:00000b2c       __imp_?killTimer@QObject@@QAEXH@Z 0045cb2c     qt-mt323:qt-mt323.dll
 0002:00000b30       __imp_?insertItem@QListBox@@QAEXABVQString@@H@Z 0045cb30     qt-mt323:qt-mt323.dll
 0002:00000b34       __imp_?findItem@QListBox@@QBEPAVQListBoxItem@@ABVQString@@I@Z 0045cb34     qt-mt323:qt-mt323.dll
 0002:00000b38       __imp_?blockSignals@QObject@@QAEX_N@Z 0045cb38     qt-mt323:qt-mt323.dll
 0002:00000b3c       __imp_?setText@QListBoxItem@@MAEXABVQString@@@Z 0045cb3c     qt-mt323:qt-mt323.dll
 0002:00000b40       __imp_?paint@QListBoxText@@MAEXPAVQPainter@@@Z 0045cb40     qt-mt323:qt-mt323.dll
 0002:00000b44       __imp_?rtti@QListBoxText@@UBEHXZ 0045cb44     qt-mt323:qt-mt323.dll
 0002:00000b48       __imp_?width@QListBoxText@@UBEHPBVQListBox@@@Z 0045cb48     qt-mt323:qt-mt323.dll
 0002:00000b4c       __imp_?height@QListBoxText@@UBEHPBVQListBox@@@Z 0045cb4c     qt-mt323:qt-mt323.dll
 0002:00000b50       __imp_?pixmap@QListBoxItem@@UBEPBVQPixmap@@XZ 0045cb50     qt-mt323:qt-mt323.dll
 0002:00000b54       __imp_?text@QListBoxItem@@UBE?AVQString@@XZ 0045cb54     qt-mt323:qt-mt323.dll
 0002:00000b58       __imp_?insertItem@QListBox@@QAEXPBVQListBoxItem@@H@Z 0045cb58     qt-mt323:qt-mt323.dll
 0002:00000b5c       __imp_??0QListBoxText@@QAE@ABVQString@@@Z 0045cb5c     qt-mt323:qt-mt323.dll
 0002:00000b60       __imp_??1QListBoxText@@UAE@XZ 0045cb60     qt-mt323:qt-mt323.dll
 0002:00000b64       __imp_?sort@QListBox@@QAEX_N@Z 0045cb64     qt-mt323:qt-mt323.dll
 0002:00000b68       __imp_?simplifyWhiteSpace@QString@@QBE?AV1@XZ 0045cb68     qt-mt323:qt-mt323.dll
 0002:00000b6c       __imp_?getText@QInputDialog@@SA?AVQString@@ABV2@0W4EchoMode@QLineEdit@@0PA_NPAVQWidget@@PBD@Z 0045cb6c     qt-mt323:qt-mt323.dll
 0002:00000b70       __imp_?write@QGDict@@MBEAAVQDataStream@@AAV2@PAX@Z 0045cb70     qt-mt323:qt-mt323.dll
 0002:00000b74       __imp_?read@QGDict@@MAEAAVQDataStream@@AAV2@AAPAX@Z 0045cb74     qt-mt323:qt-mt323.dll
 0002:00000b78       __imp_?columnClicked@QTable@@MAEXH@Z 0045cb78     qt-mt323:qt-mt323.dll
 0002:00000b7c       __imp_?rowIndexChanged@QTable@@MAEXHHH@Z 0045cb7c     qt-mt323:qt-mt323.dll
 0002:00000b80       __imp_?columnIndexChanged@QTable@@MAEXHHH@Z 0045cb80     qt-mt323:qt-mt323.dll
 0002:00000b84       __imp_?rowHeightChanged@QTable@@MAEXH@Z 0045cb84     qt-mt323:qt-mt323.dll
 0002:00000b88       __imp_?columnWidthChanged@QTable@@MAEXH@Z 0045cb88     qt-mt323:qt-mt323.dll
 0002:00000b8c       __imp_?insertWidget@QTable@@MAEXHHPAVQWidget@@@Z 0045cb8c     qt-mt323:qt-mt323.dll
 0002:00000b90       __imp_?resizeData@QTable@@MAEXH@Z 0045cb90     qt-mt323:qt-mt323.dll
 0002:00000b94       __imp_?endEdit@QTable@@MAEXHH_N0@Z 0045cb94     qt-mt323:qt-mt323.dll
 0002:00000b98       __imp_?beginEdit@QTable@@MAEPAVQWidget@@HH_N@Z 0045cb98     qt-mt323:qt-mt323.dll
 0002:00000b9c       __imp_?setCellContentFromEditor@QTable@@MAEXHH@Z 0045cb9c     qt-mt323:qt-mt323.dll
 0002:00000ba0       __imp_?createEditor@QTable@@MBEPAVQWidget@@HH_N@Z 0045cba0     qt-mt323:qt-mt323.dll
 0002:00000ba4       __imp_?activateNextCell@QTable@@MAEXXZ 0045cba4     qt-mt323:qt-mt323.dll
 0002:00000ba8       __imp_?paintEmptyArea@QTable@@MAEXPAVQPainter@@HHHH@Z 0045cba8     qt-mt323:qt-mt323.dll
 0002:00000bac       __imp_?startDrag@QTable@@MAEXXZ 0045cbac     qt-mt323:qt-mt323.dll
 0002:00000bb0       __imp_?dragObject@QTable@@MAEPAVQDragObject@@XZ 0045cbb0     qt-mt323:qt-mt323.dll
 0002:00000bb4       __imp_?editCell@QTable@@UAEXHH_N@Z 0045cbb4     qt-mt323:qt-mt323.dll
 0002:00000bb8       __imp_?removeColumns@QTable@@UAEXABV?$QMemArray@H@@@Z 0045cbb8     qt-mt323:qt-mt323.dll
 0002:00000bbc       __imp_?removeColumn@QTable@@UAEXH@Z 0045cbbc     qt-mt323:qt-mt323.dll
 0002:00000bc0       __imp_?removeRows@QTable@@UAEXABV?$QMemArray@H@@@Z 0045cbc0     qt-mt323:qt-mt323.dll
 0002:00000bc4       __imp_?removeRow@QTable@@UAEXH@Z 0045cbc4     qt-mt323:qt-mt323.dll
 0002:00000bc8       __imp_?insertColumns@QTable@@UAEXHH@Z 0045cbc8     qt-mt323:qt-mt323.dll
 0002:00000bcc       __imp_?insertRows@QTable@@UAEXHH@Z 0045cbcc     qt-mt323:qt-mt323.dll
 0002:00000bd0       __imp_?setDragEnabled@QTable@@UAEX_N@Z 0045cbd0     qt-mt323:qt-mt323.dll
 0002:00000bd4       __imp_?setColumnReadOnly@QTable@@UAEXH_N@Z 0045cbd4     qt-mt323:qt-mt323.dll
 0002:00000bd8       __imp_?setRowReadOnly@QTable@@UAEXH_N@Z 0045cbd8     qt-mt323:qt-mt323.dll
 0002:00000bdc       __imp_?setReadOnly@QTable@@UAEX_N@Z 0045cbdc     qt-mt323:qt-mt323.dll
 0002:00000be0       __imp_?setRowMovingEnabled@QTable@@UAEX_N@Z 0045cbe0     qt-mt323:qt-mt323.dll
 0002:00000be4       __imp_?setColumnMovingEnabled@QTable@@UAEX_N@Z 0045cbe4     qt-mt323:qt-mt323.dll
 0002:00000be8       __imp_?setCurrentCell@QTable@@UAEXHH@Z 0045cbe8     qt-mt323:qt-mt323.dll
 0002:00000bec       __imp_?setTopMargin@QTable@@UAEXH@Z 0045cbec     qt-mt323:qt-mt323.dll
 0002:00000bf0       __imp_?setLeftMargin@QTable@@UAEXH@Z 0045cbf0     qt-mt323:qt-mt323.dll
 0002:00000bf4       __imp_?swapCells@QTable@@UAEXHHHH@Z 0045cbf4     qt-mt323:qt-mt323.dll
 0002:00000bf8       __imp_?swapColumns@QTable@@UAEXHH_N@Z 0045cbf8     qt-mt323:qt-mt323.dll
 0002:00000bfc       __imp_?swapRows@QTable@@UAEXHH_N@Z 0045cbfc     qt-mt323:qt-mt323.dll
 0002:00000c00       __imp_?setSorting@QTable@@UAEX_N@Z 0045cc00     qt-mt323:qt-mt323.dll
 0002:00000c04       __imp_?setRowStretchable@QTable@@UAEXH_N@Z 0045cc04     qt-mt323:qt-mt323.dll
 0002:00000c08       __imp_?setColumnStretchable@QTable@@UAEXH_N@Z 0045cc08     qt-mt323:qt-mt323.dll
 0002:00000c0c       __imp_?adjustRow@QTable@@UAEXH@Z 0045cc0c     qt-mt323:qt-mt323.dll
 0002:00000c10       __imp_?adjustColumn@QTable@@UAEXH@Z 0045cc10     qt-mt323:qt-mt323.dll
 0002:00000c14       __imp_?setRowHeight@QTable@@UAEXHH@Z 0045cc14     qt-mt323:qt-mt323.dll
 0002:00000c18       __imp_?setColumnWidth@QTable@@UAEXHH@Z 0045cc18     qt-mt323:qt-mt323.dll
 0002:00000c1c       __imp_?showColumn@QTable@@UAEXH@Z 0045cc1c     qt-mt323:qt-mt323.dll
 0002:00000c20       __imp_?showRow@QTable@@UAEXH@Z 0045cc20     qt-mt323:qt-mt323.dll
 0002:00000c24       __imp_?hideColumn@QTable@@UAEXH@Z 0045cc24     qt-mt323:qt-mt323.dll
 0002:00000c28       __imp_?hideRow@QTable@@UAEXH@Z 0045cc28     qt-mt323:qt-mt323.dll
 0002:00000c2c       __imp_?setShowGrid@QTable@@UAEX_N@Z 0045cc2c     qt-mt323:qt-mt323.dll
 0002:00000c30       __imp_?setNumCols@QTable@@UAEXH@Z 0045cc30     qt-mt323:qt-mt323.dll
 0002:00000c34       __imp_?setNumRows@QTable@@UAEXH@Z 0045cc34     qt-mt323:qt-mt323.dll
 0002:00000c38       __imp_?setFocusStyle@QTable@@UAEXW4FocusStyle@1@@Z 0045cc38     qt-mt323:qt-mt323.dll
 0002:00000c3c       __imp_?paintFocus@QTable@@UAEXPAVQPainter@@ABVQRect@@@Z 0045cc3c     qt-mt323:qt-mt323.dll
 0002:00000c40       __imp_?paintCell@QTable@@UAEXPAVQPainter@@HHABVQRect@@_N@Z 0045cc40     qt-mt323:qt-mt323.dll
 0002:00000c44       __imp_?cellRect@QTable@@UBE?AVQRect@@HH@Z 0045cc44     qt-mt323:qt-mt323.dll
 0002:00000c48       __imp_?clearCellWidget@QTable@@UAEXHH@Z 0045cc48     qt-mt323:qt-mt323.dll
 0002:00000c4c       __imp_?cellWidget@QTable@@UBEPAVQWidget@@HH@Z 0045cc4c     qt-mt323:qt-mt323.dll
 0002:00000c50       __imp_?setCellWidget@QTable@@UAEXHHPAVQWidget@@@Z 0045cc50     qt-mt323:qt-mt323.dll
 0002:00000c54       __imp_?takeItem@QTable@@UAEXPAVQTableItem@@@Z 0045cc54     qt-mt323:qt-mt323.dll
 0002:00000c58       __imp_?sortColumn@QTable@@UAEXH_N0@Z 0045cc58     qt-mt323:qt-mt323.dll
 0002:00000c5c       __imp_?currentSelection@QTable@@UBEHXZ 0045cc5c     qt-mt323:qt-mt323.dll
 0002:00000c60       __imp_?removeSelection@QTable@@UAEXABVQTableSelection@@@Z 0045cc60     qt-mt323:qt-mt323.dll
 0002:00000c64       __imp_?removeSelection@QTable@@UAEXH@Z 0045cc64     qt-mt323:qt-mt323.dll
 0002:00000c68       __imp_?addSelection@QTable@@UAEHABVQTableSelection@@@Z 0045cc68     qt-mt323:qt-mt323.dll
 0002:00000c6c       __imp_?numCols@QTable@@UBEHXZ 0045cc6c     qt-mt323:qt-mt323.dll
 0002:00000c70       __imp_?numRows@QTable@@UBEHXZ 0045cc70     qt-mt323:qt-mt323.dll
 0002:00000c74       __imp_?rowAt@QTable@@UBEHH@Z 0045cc74     qt-mt323:qt-mt323.dll
 0002:00000c78       __imp_?columnAt@QTable@@UBEHH@Z 0045cc78     qt-mt323:qt-mt323.dll
 0002:00000c7c       __imp_?rowPos@QTable@@UBEHH@Z 0045cc7c     qt-mt323:qt-mt323.dll
 0002:00000c80       __imp_?columnPos@QTable@@UBEHH@Z 0045cc80     qt-mt323:qt-mt323.dll
 0002:00000c84       __imp_?rowHeight@QTable@@UBEHH@Z 0045cc84     qt-mt323:qt-mt323.dll
 0002:00000c88       __imp_?columnWidth@QTable@@UBEHH@Z 0045cc88     qt-mt323:qt-mt323.dll
 0002:00000c8c       __imp_?cellGeometry@QTable@@UBE?AVQRect@@HH@Z 0045cc8c     qt-mt323:qt-mt323.dll
 0002:00000c90       __imp_?clearCell@QTable@@UAEXHH@Z 0045cc90     qt-mt323:qt-mt323.dll
 0002:00000c94       __imp_?pixmap@QTable@@UBE?AVQPixmap@@HH@Z 0045cc94     qt-mt323:qt-mt323.dll
 0002:00000c98       __imp_?text@QTable@@UBE?AVQString@@HH@Z 0045cc98     qt-mt323:qt-mt323.dll
 0002:00000c9c       __imp_?item@QTable@@UBEPAVQTableItem@@HH@Z 0045cc9c     qt-mt323:qt-mt323.dll
 0002:00000ca0       __imp_?setPixmap@QTable@@UAEXHHABVQPixmap@@@Z 0045cca0     qt-mt323:qt-mt323.dll
 0002:00000ca4       __imp_?setText@QTable@@UAEXHHABVQString@@@Z 0045cca4     qt-mt323:qt-mt323.dll
 0002:00000ca8       __imp_?setItem@QTable@@UAEXHHPAVQTableItem@@@Z 0045cca8     qt-mt323:qt-mt323.dll
 0002:00000cac       __imp_?setSelectionMode@QTable@@UAEXW4SelectionMode@1@@Z 0045ccac     qt-mt323:qt-mt323.dll
 0002:00000cb0       __imp_?viewportResizeEvent@QTable@@MAEXPAVQResizeEvent@@@Z 0045ccb0     qt-mt323:qt-mt323.dll
 0002:00000cb4       __imp_?contentsContextMenuEvent@QTable@@MAEXPAVQContextMenuEvent@@@Z 0045ccb4     qt-mt323:qt-mt323.dll
 0002:00000cb8       __imp_?contentsDropEvent@QTable@@MAEXPAVQDropEvent@@@Z 0045ccb8     qt-mt323:qt-mt323.dll
 0002:00000cbc       __imp_?contentsDragLeaveEvent@QTable@@MAEXPAVQDragLeaveEvent@@@Z 0045ccbc     qt-mt323:qt-mt323.dll
 0002:00000cc0       __imp_?contentsDragMoveEvent@QTable@@MAEXPAVQDragMoveEvent@@@Z 0045ccc0     qt-mt323:qt-mt323.dll
 0002:00000cc4       __imp_?contentsDragEnterEvent@QTable@@MAEXPAVQDragEnterEvent@@@Z 0045ccc4     qt-mt323:qt-mt323.dll
 0002:00000cc8       __imp_?contentsMouseMoveEvent@QTable@@MAEXPAVQMouseEvent@@@Z 0045ccc8     qt-mt323:qt-mt323.dll
 0002:00000ccc       __imp_?contentsMouseDoubleClickEvent@QTable@@MAEXPAVQMouseEvent@@@Z 0045cccc     qt-mt323:qt-mt323.dll
 0002:00000cd0       __imp_?contentsMouseReleaseEvent@QTable@@MAEXPAVQMouseEvent@@@Z 0045ccd0     qt-mt323:qt-mt323.dll
 0002:00000cd4       __imp_?contentsMousePressEvent@QTable@@MAEXPAVQMouseEvent@@@Z 0045ccd4     qt-mt323:qt-mt323.dll
 0002:00000cd8       __imp_?drawContents@QTable@@MAEXPAVQPainter@@HHHH@Z 0045ccd8     qt-mt323:qt-mt323.dll
 0002:00000cdc       __imp_?drawContents@QTable@@EAEXPAVQPainter@@@Z 0045ccdc     qt-mt323:qt-mt323.dll
 0002:00000ce0       __imp_?windowActivationChange@QTable@@MAEX_N@Z 0045cce0     qt-mt323:qt-mt323.dll
 0002:00000ce4       __imp_?styleChange@QScrollView@@UAEXAAVQStyle@@@Z 0045cce4     qt-mt323:qt-mt323.dll
 0002:00000ce8       __imp_?showEvent@QTable@@MAEXPAVQShowEvent@@@Z 0045cce8     qt-mt323:qt-mt323.dll
 0002:00000cec       __imp_?paintEvent@QTable@@MAEXPAVQPaintEvent@@@Z 0045ccec     qt-mt323:qt-mt323.dll
 0002:00000cf0       __imp_?focusOutEvent@QTable@@MAEXPAVQFocusEvent@@@Z 0045ccf0     qt-mt323:qt-mt323.dll
 0002:00000cf4       __imp_?focusInEvent@QTable@@MAEXPAVQFocusEvent@@@Z 0045ccf4     qt-mt323:qt-mt323.dll
 0002:00000cf8       __imp_?keyPressEvent@QTable@@MAEXPAVQKeyEvent@@@Z 0045ccf8     qt-mt323:qt-mt323.dll
 0002:00000cfc       __imp_?sizeHint@QTable@@UBE?AVQSize@@XZ 0045ccfc     qt-mt323:qt-mt323.dll
 0002:00000d00       __imp_?setEnabled@QTable@@UAEX_N@Z 0045cd00     qt-mt323:qt-mt323.dll
 0002:00000d04       __imp_?eventFilter@QTable@@UAE_NPAVQObject@@PAVQEvent@@@Z 0045cd04     qt-mt323:qt-mt323.dll
 0002:00000d08       __imp_??1QTable@@UAE@XZ    0045cd08     qt-mt323:qt-mt323.dll
 0002:00000d0c       __imp_??0QGDict@@IAE@IW4KeyType@0@_N1@Z 0045cd0c     qt-mt323:qt-mt323.dll
 0002:00000d10       __imp_??0QTable@@QAE@PAVQWidget@@PBD@Z 0045cd10     qt-mt323:qt-mt323.dll
 0002:00000d14       __imp_??1QGDict@@MAE@XZ    0045cd14     qt-mt323:qt-mt323.dll
 0002:00000d18       __imp_?clear@QGDict@@MAEXXZ 0045cd18     qt-mt323:qt-mt323.dll
 0002:00000d1c       __imp_??1?$QMap@VQString@@H@@QAE@XZ 0045cd1c     qt-mt323:qt-mt323.dll
 0002:00000d20       __imp_?updateContents@QScrollView@@QAEXXZ 0045cd20     qt-mt323:qt-mt323.dll
 0002:00000d24       __imp_?isColumnReadOnly@QTable@@QBE_NH@Z 0045cd24     qt-mt323:qt-mt323.dll
 0002:00000d28       __imp_?insert@?$QMap@VQString@@H@@QAE?AV?$QMapIterator@VQString@@H@@ABVQString@@ABH_N@Z 0045cd28     qt-mt323:qt-mt323.dll
 0002:00000d2c       __imp_?detachInternal@?$QMap@VQString@@H@@AAEXXZ 0045cd2c     qt-mt323:qt-mt323.dll
 0002:00000d30       __imp_?arg@QString@@QBE?AV1@IHH@Z 0045cd30     qt-mt323:qt-mt323.dll
 0002:00000d34       __imp_?selection@QTable@@QBE?AVQTableSelection@@H@Z 0045cd34     qt-mt323:qt-mt323.dll
 0002:00000d38       __imp_?remove@QString@@QAEAAV1@II@Z 0045cd38     qt-mt323:qt-mt323.dll
 0002:00000d3c       __imp_?find@QString@@QBEHABV1@H_N@Z 0045cd3c     qt-mt323:qt-mt323.dll
 0002:00000d40       __imp_?fromAscii@QString@@SA?AV1@PBDH@Z 0045cd40     qt-mt323:qt-mt323.dll
 0002:00000d44       __imp_??1QCString@@UAE@XZ  0045cd44     qt-mt323:qt-mt323.dll
 0002:00000d48       __imp_?text@QClipboard@@QBE?AVQString@@AAVQCString@@W4Mode@1@@Z 0045cd48     qt-mt323:qt-mt323.dll
 0002:00000d4c       __imp_??0QCString@@QAE@PBD@Z 0045cd4c     qt-mt323:qt-mt323.dll
 0002:00000d50       __imp_?numSelections@QTable@@QBEHXZ 0045cd50     qt-mt323:qt-mt323.dll
 0002:00000d54       __imp_?right@QString@@QBE?AV1@I@Z 0045cd54     qt-mt323:qt-mt323.dll
 0002:00000d58       __imp_?isChecked@QCheckTableItem@@QBE_NXZ 0045cd58     qt-mt323:qt-mt323.dll
 0002:00000d5c       __imp_?isSelected@QTable@@QBE_NHH@Z 0045cd5c     qt-mt323:qt-mt323.dll
 0002:00000d60       __imp_?drawLine@QPainter@@QAEXHHHH@Z 0045cd60     qt-mt323:qt-mt323.dll
 0002:00000d64       __imp_?setWidth@QPen@@QAEXI@Z 0045cd64     qt-mt323:qt-mt323.dll
 0002:00000d68       __imp_?setColor@QPen@@QAEXABVQColor@@@Z 0045cd68     qt-mt323:qt-mt323.dll
 0002:00000d6c       __imp_?red@Qt@@2AAVQColor@@A 0045cd6c     qt-mt323:qt-mt323.dll
 0002:00000d70       __imp_??0QPen@@QAE@XZ      0045cd70     qt-mt323:qt-mt323.dll
 0002:00000d74       __imp_?paintCell@QTable@@UAEXPAVQPainter@@HHABVQRect@@_NABVQColorGroup@@@Z 0045cd74     qt-mt323:qt-mt323.dll
 0002:00000d78       __imp_?look_int@QGDict@@QAEPAXJPAXH@Z 0045cd78     qt-mt323:qt-mt323.dll
 0002:00000d7c       __imp_?remove_int@QGDict@@IAE_NJPAX@Z 0045cd7c     qt-mt323:qt-mt323.dll
 0002:00000d80       __imp_?setRubberband@QSplitter@@MAEXH@Z 0045cd80     qt-mt323:qt-mt323.dll
 0002:00000d84       __imp_?drawSplitter@QSplitter@@MAEXPAVQPainter@@HHHH@Z 0045cd84     qt-mt323:qt-mt323.dll
 0002:00000d88       __imp_?setOpaqueResize@QSplitter@@UAEX_N@Z 0045cd88     qt-mt323:qt-mt323.dll
 0002:00000d8c       __imp_?setResizeMode@QSplitter@@UAEXPAVQWidget@@W4ResizeMode@1@@Z 0045cd8c     qt-mt323:qt-mt323.dll
 0002:00000d90       __imp_?setOrientation@QSplitter@@UAEXW4Orientation@Qt@@@Z 0045cd90     qt-mt323:qt-mt323.dll
 0002:00000d94       __imp_?styleChange@QSplitter@@MAEXAAVQStyle@@@Z 0045cd94     qt-mt323:qt-mt323.dll
 0002:00000d98       __imp_?resizeEvent@QSplitter@@MAEXPAVQResizeEvent@@@Z 0045cd98     qt-mt323:qt-mt323.dll
 0002:00000d9c       __imp_?minimumSizeHint@QSplitter@@UBE?AVQSize@@XZ 0045cd9c     qt-mt323:qt-mt323.dll
 0002:00000da0       __imp_?sizeHint@QSplitter@@UBE?AVQSize@@XZ 0045cda0     qt-mt323:qt-mt323.dll
 0002:00000da4       __imp_?childEvent@QSplitter@@MAEXPAVQChildEvent@@@Z 0045cda4     qt-mt323:qt-mt323.dll
 0002:00000da8       __imp_?event@QSplitter@@MAE_NPAVQEvent@@@Z 0045cda8     qt-mt323:qt-mt323.dll
 0002:00000dac       __imp_?removePage@QTabWidget@@UAEXPAVQWidget@@@Z 0045cdac     qt-mt323:qt-mt323.dll
 0002:00000db0       __imp_?showPage@QTabWidget@@UAEXPAVQWidget@@@Z 0045cdb0     qt-mt323:qt-mt323.dll
 0002:00000db4       __imp_?insertTab@QTabWidget@@UAEXPAVQWidget@@ABVQString@@H@Z 0045cdb4     qt-mt323:qt-mt323.dll
 0002:00000db8       __imp_?insertTab@QTabWidget@@UAEXPAVQWidget@@ABVQIconSet@@ABVQString@@H@Z 0045cdb8     qt-mt323:qt-mt323.dll
 0002:00000dbc       __imp_?insertTab@QTabWidget@@UAEXPAVQWidget@@PAVQTab@@H@Z 0045cdbc     qt-mt323:qt-mt323.dll
 0002:00000dc0       __imp_?addTab@QTabWidget@@UAEXPAVQWidget@@ABVQString@@@Z 0045cdc0     qt-mt323:qt-mt323.dll
 0002:00000dc4       __imp_?addTab@QTabWidget@@UAEXPAVQWidget@@ABVQIconSet@@ABVQString@@@Z 0045cdc4     qt-mt323:qt-mt323.dll
 0002:00000dc8       __imp_?addTab@QTabWidget@@UAEXPAVQWidget@@PAVQTab@@@Z 0045cdc8     qt-mt323:qt-mt323.dll
 0002:00000dcc       __imp_?styleChange@QTabWidget@@MAEXAAVQStyle@@@Z 0045cdcc     qt-mt323:qt-mt323.dll
 0002:00000dd0       __imp_?updateMask@QTabWidget@@MAEXXZ 0045cdd0     qt-mt323:qt-mt323.dll
 0002:00000dd4       __imp_?showEvent@QTabWidget@@MAEXPAVQShowEvent@@@Z 0045cdd4     qt-mt323:qt-mt323.dll
 0002:00000dd8       __imp_?resizeEvent@QTabWidget@@MAEXPAVQResizeEvent@@@Z 0045cdd8     qt-mt323:qt-mt323.dll
 0002:00000ddc       __imp_?minimumSizeHint@QTabWidget@@UBE?AVQSize@@XZ 0045cddc     qt-mt323:qt-mt323.dll
 0002:00000de0       __imp_?sizeHint@QTabWidget@@UBE?AVQSize@@XZ 0045cde0     qt-mt323:qt-mt323.dll
 0002:00000de4       __imp_?eventFilter@QTabWidget@@MAE_NPAVQObject@@PAVQEvent@@@Z 0045cde4     qt-mt323:qt-mt323.dll
 0002:00000de8       __imp_?qt_property@QTabWidget@@UAE_NHHPAVQVariant@@@Z 0045cde8     qt-mt323:qt-mt323.dll
 0002:00000dec       __imp_?qt_emit@QTabWidget@@UAE_NHPAUQUObject@@@Z 0045cdec     qt-mt323:qt-mt323.dll
 0002:00000df0       __imp_?qt_invoke@QTabWidget@@UAE_NHPAUQUObject@@@Z 0045cdf0     qt-mt323:qt-mt323.dll
 0002:00000df4       __imp_?qt_cast@QTabWidget@@UAEPAXPBD@Z 0045cdf4     qt-mt323:qt-mt323.dll
 0002:00000df8       __imp_?className@QTabWidget@@UBEPBDXZ 0045cdf8     qt-mt323:qt-mt323.dll
 0002:00000dfc       __imp_?metaObject@QTabWidget@@UBEPAVQMetaObject@@XZ 0045cdfc     qt-mt323:qt-mt323.dll
 0002:00000e00       __imp_??1QSplitter@@UAE@XZ 0045ce00     qt-mt323:qt-mt323.dll
 0002:00000e04       __imp_?detach@?$QValueList@VQString@@@@IAEXXZ 0045ce04     qt-mt323:qt-mt323.dll
 0002:00000e08       __imp_??0QTabWidget@@QAE@PAVQWidget@@PBDI@Z 0045ce08     qt-mt323:qt-mt323.dll
 0002:00000e0c       __imp_??0QSplitter@@QAE@W4Orientation@Qt@@PAVQWidget@@PBD@Z 0045ce0c     qt-mt323:qt-mt323.dll
 0002:00000e10       __imp_??1QTabWidget@@UAE@XZ 0045ce10     qt-mt323:qt-mt323.dll
 0002:00000e14       __imp_?parent@QListViewItem@@QBEPAV1@XZ 0045ce14     qt-mt323:qt-mt323.dll
 0002:00000e18       __imp_??8QDateTime@@QBE_NABV0@@Z 0045ce18     qt-mt323:qt-mt323.dll
 0002:00000e1c       __imp_?initDragEnter@QIconView@@EAEXPAVQDropEvent@@@Z 0045ce1c     qt-mt323:qt-mt323.dll
 0002:00000e20       __imp_??0QString@@QAE@ABV0@@Z 0045ce20     qt-mt323:qt-mt323.dll
 0002:00000e24       __imp_?drawBackground@QIconView@@MAEXPAVQPainter@@ABVQRect@@@Z 0045ce24     qt-mt323:qt-mt323.dll
 0002:00000e28       __imp_?insertInGrid@QIconView@@MAEXPAVQIconViewItem@@@Z 0045ce28     qt-mt323:qt-mt323.dll
 0002:00000e2c       __imp_?dragObject@QIconView@@MAEPAVQDragObject@@XZ 0045ce2c     qt-mt323:qt-mt323.dll
 0002:00000e30       __imp_?drawRubber@QIconView@@MAEXPAVQPainter@@@Z 0045ce30     qt-mt323:qt-mt323.dll
 0002:00000e34       __imp_?slotUpdate@QIconView@@MAEXXZ 0045ce34     qt-mt323:qt-mt323.dll
 0002:00000e38       __imp_?adjustItems@QIconView@@MAEXXZ 0045ce38     qt-mt323:qt-mt323.dll
 0002:00000e3c       __imp_?doAutoScroll@QIconView@@MAEXXZ 0045ce3c     qt-mt323:qt-mt323.dll
 0002:00000e40       __imp_?updateContents@QIconView@@UAEXXZ 0045ce40     qt-mt323:qt-mt323.dll
 0002:00000e44       __imp_?arrangeItemsInGrid@QIconView@@UAEXABVQSize@@_N@Z 0045ce44     qt-mt323:qt-mt323.dll
 0002:00000e48       __imp_?arrangeItemsInGrid@QIconView@@UAEX_N@Z 0045ce48     qt-mt323:qt-mt323.dll
 0002:00000e4c       __imp_?sort@QIconView@@UAEX_N@Z 0045ce4c     qt-mt323:qt-mt323.dll
 0002:00000e50       __imp_?setWordWrapIconText@QIconView@@UAEX_N@Z 0045ce50     qt-mt323:qt-mt323.dll
 0002:00000e54       __imp_?setItemsMovable@QIconView@@UAEX_N@Z 0045ce54     qt-mt323:qt-mt323.dll
 0002:00000e58       __imp_?setShowToolTips@QIconView@@UAEX_N@Z 0045ce58     qt-mt323:qt-mt323.dll
 0002:00000e5c       __imp_?setAutoArrange@QIconView@@UAEX_N@Z 0045ce5c     qt-mt323:qt-mt323.dll
 0002:00000e60       __imp_?setMaxItemTextLength@QIconView@@UAEXH@Z 0045ce60     qt-mt323:qt-mt323.dll
 0002:00000e64       __imp_?setMaxItemWidth@QIconView@@UAEXH@Z 0045ce64     qt-mt323:qt-mt323.dll
 0002:00000e68       __imp_?setResizeMode@QIconView@@UAEXW4ResizeMode@1@@Z 0045ce68     qt-mt323:qt-mt323.dll
 0002:00000e6c       __imp_?setArrangement@QIconView@@UAEXW4Arrangement@1@@Z 0045ce6c     qt-mt323:qt-mt323.dll
 0002:00000e70       __imp_?setItemTextBackground@QIconView@@UAEXABVQBrush@@@Z 0045ce70     qt-mt323:qt-mt323.dll
 0002:00000e74       __imp_?setItemTextPos@QIconView@@UAEXW4ItemTextPos@1@@Z 0045ce74     qt-mt323:qt-mt323.dll
 0002:00000e78       __imp_?setSpacing@QIconView@@UAEXH@Z 0045ce78     qt-mt323:qt-mt323.dll
 0002:00000e7c       __imp_?setGridY@QIconView@@UAEXH@Z 0045ce7c     qt-mt323:qt-mt323.dll
 0002:00000e80       __imp_?setGridX@QIconView@@UAEXH@Z 0045ce80     qt-mt323:qt-mt323.dll
 0002:00000e84       __imp_?clear@QIconView@@UAEXXZ 0045ce84     qt-mt323:qt-mt323.dll
 0002:00000e88       __imp_?repaintItem@QIconView@@UAEXPAVQIconViewItem@@@Z 0045ce88     qt-mt323:qt-mt323.dll
 0002:00000e8c       __imp_?invertSelection@QIconView@@UAEXXZ 0045ce8c     qt-mt323:qt-mt323.dll
 0002:00000e90       __imp_?clearSelection@QIconView@@UAEXXZ 0045ce90     qt-mt323:qt-mt323.dll
 0002:00000e94       __imp_?selectAll@QIconView@@UAEX_N@Z 0045ce94     qt-mt323:qt-mt323.dll
 0002:00000e98       __imp_?setSelectionMode@QIconView@@UAEXW4SelectionMode@1@@Z 0045ce98     qt-mt323:qt-mt323.dll
 0002:00000e9c       __imp_?setSelected@QIconView@@UAEXPAVQIconViewItem@@_N1@Z 0045ce9c     qt-mt323:qt-mt323.dll
 0002:00000ea0       __imp_?setCurrentItem@QIconView@@UAEXPAVQIconViewItem@@@Z 0045cea0     qt-mt323:qt-mt323.dll
 0002:00000ea4       __imp_?takeItem@QIconView@@UAEXPAVQIconViewItem@@@Z 0045cea4     qt-mt323:qt-mt323.dll
 0002:00000ea8       __imp_?insertItem@QIconView@@UAEXPAVQIconViewItem@@0@Z 0045cea8     qt-mt323:qt-mt323.dll
 0002:00000eac       __imp_?contentsContextMenuEvent@QIconView@@MAEXPAVQContextMenuEvent@@@Z 0045ceac     qt-mt323:qt-mt323.dll
 0002:00000eb0       __imp_?contentsDropEvent@QIconView@@MAEXPAVQDropEvent@@@Z 0045ceb0     qt-mt323:qt-mt323.dll
 0002:00000eb4       __imp_?contentsDragLeaveEvent@QIconView@@MAEXPAVQDragLeaveEvent@@@Z 0045ceb4     qt-mt323:qt-mt323.dll
 0002:00000eb8       __imp_?contentsDragMoveEvent@QIconView@@MAEXPAVQDragMoveEvent@@@Z 0045ceb8     qt-mt323:qt-mt323.dll
 0002:00000ebc       __imp_?contentsDragEnterEvent@QIconView@@MAEXPAVQDragEnterEvent@@@Z 0045cebc     qt-mt323:qt-mt323.dll
 0002:00000ec0       __imp_?contentsMouseMoveEvent@QIconView@@MAEXPAVQMouseEvent@@@Z 0045cec0     qt-mt323:qt-mt323.dll
 0002:00000ec4       __imp_?contentsMouseDoubleClickEvent@QIconView@@MAEXPAVQMouseEvent@@@Z 0045cec4     qt-mt323:qt-mt323.dll
 0002:00000ec8       __imp_?contentsMouseReleaseEvent@QIconView@@MAEXPAVQMouseEvent@@@Z 0045cec8     qt-mt323:qt-mt323.dll
 0002:00000ecc       __imp_?contentsMousePressEvent@QIconView@@MAEXPAVQMouseEvent@@@Z 0045cecc     qt-mt323:qt-mt323.dll
 0002:00000ed0       __imp_?drawContents@QIconView@@MAEXPAVQPainter@@HHHH@Z 0045ced0     qt-mt323:qt-mt323.dll
 0002:00000ed4       __imp_?setContentsPos@QIconView@@UAEXHH@Z 0045ced4     qt-mt323:qt-mt323.dll
 0002:00000ed8       __imp_?drawContents@QIconView@@EAEXPAVQPainter@@@Z 0045ced8     qt-mt323:qt-mt323.dll
 0002:00000edc       __imp_?windowActivationChange@QIconView@@MAEX_N@Z 0045cedc     qt-mt323:qt-mt323.dll
 0002:00000ee0       __imp_?styleChange@QIconView@@MAEXAAVQStyle@@@Z 0045cee0     qt-mt323:qt-mt323.dll
 0002:00000ee4       __imp_?showEvent@QIconView@@UAEXPAVQShowEvent@@@Z 0045cee4     qt-mt323:qt-mt323.dll
 0002:00000ee8       __imp_?resizeEvent@QIconView@@MAEXPAVQResizeEvent@@@Z 0045cee8     qt-mt323:qt-mt323.dll
 0002:00000eec       __imp_?enterEvent@QIconView@@MAEXPAVQEvent@@@Z 0045ceec     qt-mt323:qt-mt323.dll
 0002:00000ef0       __imp_?focusOutEvent@QIconView@@MAEXPAVQFocusEvent@@@Z 0045cef0     qt-mt323:qt-mt323.dll
 0002:00000ef4       __imp_?focusInEvent@QIconView@@MAEXPAVQFocusEvent@@@Z 0045cef4     qt-mt323:qt-mt323.dll
 0002:00000ef8       __imp_?keyPressEvent@QIconView@@MAEXPAVQKeyEvent@@@Z 0045cef8     qt-mt323:qt-mt323.dll
 0002:00000efc       __imp_?minimumSizeHint@QIconView@@UBE?AVQSize@@XZ 0045cefc     qt-mt323:qt-mt323.dll
 0002:00000f00       __imp_?sizeHint@QIconView@@UBE?AVQSize@@XZ 0045cf00     qt-mt323:qt-mt323.dll
 0002:00000f04       __imp_?setFont@QIconView@@UAEXABVQFont@@@Z 0045cf04     qt-mt323:qt-mt323.dll
 0002:00000f08       __imp_?setPalette@QIconView@@UAEXABVQPalette@@@Z 0045cf08     qt-mt323:qt-mt323.dll
 0002:00000f0c       __imp_?eventFilter@QIconView@@UAE_NPAVQObject@@PAVQEvent@@@Z 0045cf0c     qt-mt323:qt-mt323.dll
 0002:00000f10       __imp_?qt_property@QIconView@@UAE_NHHPAVQVariant@@@Z 0045cf10     qt-mt323:qt-mt323.dll
 0002:00000f14       __imp_?qt_emit@QIconView@@UAE_NHPAUQUObject@@@Z 0045cf14     qt-mt323:qt-mt323.dll
 0002:00000f18       __imp_?qt_invoke@QIconView@@UAE_NHPAUQUObject@@@Z 0045cf18     qt-mt323:qt-mt323.dll
 0002:00000f1c       __imp_?qt_cast@QIconView@@UAEPAXPBD@Z 0045cf1c     qt-mt323:qt-mt323.dll
 0002:00000f20       __imp_?className@QIconView@@UBEPBDXZ 0045cf20     qt-mt323:qt-mt323.dll
 0002:00000f24       __imp_?metaObject@QIconView@@UBEPAVQMetaObject@@XZ 0045cf24     qt-mt323:qt-mt323.dll
 0002:00000f28       __imp_??1QIconView@@UAE@XZ 0045cf28     qt-mt323:qt-mt323.dll
 0002:00000f2c       __imp_??0QIconView@@QAE@PAVQWidget@@PBDI@Z 0045cf2c     qt-mt323:qt-mt323.dll
 0002:00000f30       __imp_?setNum@QLabel@@UAEXH@Z 0045cf30     qt-mt323:qt-mt323.dll
 0002:00000f34       __imp_?setNum@QLabel@@UAEXN@Z 0045cf34     qt-mt323:qt-mt323.dll
 0002:00000f38       __imp_?setMovie@QLabel@@UAEXABVQMovie@@@Z 0045cf38     qt-mt323:qt-mt323.dll
 0002:00000f3c       __imp_?setPicture@QLabel@@UAEXABVQPicture@@@Z 0045cf3c     qt-mt323:qt-mt323.dll
 0002:00000f40       __imp_?setPixmap@QLabel@@UAEXABVQPixmap@@@Z 0045cf40     qt-mt323:qt-mt323.dll
 0002:00000f44       __imp_?setText@QLabel@@UAEXABVQString@@@Z 0045cf44     qt-mt323:qt-mt323.dll
 0002:00000f48       __imp_?setBuddy@QLabel@@UAEXPAVQWidget@@@Z 0045cf48     qt-mt323:qt-mt323.dll
 0002:00000f4c       __imp_?setAutoResize@QLabel@@UAEX_N@Z 0045cf4c     qt-mt323:qt-mt323.dll
 0002:00000f50       __imp_?setAlignment@QLabel@@UAEXH@Z 0045cf50     qt-mt323:qt-mt323.dll
 0002:00000f54       __imp_?drawContents@QLabel@@MAEXPAVQPainter@@@Z 0045cf54     qt-mt323:qt-mt323.dll
 0002:00000f58       __imp_?fontChange@QLabel@@MAEXABVQFont@@@Z 0045cf58     qt-mt323:qt-mt323.dll
 0002:00000f5c       __imp_?resizeEvent@QLabel@@MAEXPAVQResizeEvent@@@Z 0045cf5c     qt-mt323:qt-mt323.dll
 0002:00000f60       __imp_?heightForWidth@QLabel@@UBEHH@Z 0045cf60     qt-mt323:qt-mt323.dll
 0002:00000f64       __imp_?minimumSizeHint@QLabel@@UBE?AVQSize@@XZ 0045cf64     qt-mt323:qt-mt323.dll
 0002:00000f68       __imp_?sizeHint@QLabel@@UBE?AVQSize@@XZ 0045cf68     qt-mt323:qt-mt323.dll
 0002:00000f6c       __imp_?setFont@QLabel@@UAEXABVQFont@@@Z 0045cf6c     qt-mt323:qt-mt323.dll
 0002:00000f70       __imp_?qt_property@QLabel@@UAE_NHHPAVQVariant@@@Z 0045cf70     qt-mt323:qt-mt323.dll
 0002:00000f74       __imp_?qt_emit@QLabel@@UAE_NHPAUQUObject@@@Z 0045cf74     qt-mt323:qt-mt323.dll
 0002:00000f78       __imp_?qt_invoke@QLabel@@UAE_NHPAUQUObject@@@Z 0045cf78     qt-mt323:qt-mt323.dll
 0002:00000f7c       __imp_?qt_cast@QLabel@@UAEPAXPBD@Z 0045cf7c     qt-mt323:qt-mt323.dll
 0002:00000f80       __imp_?className@QLabel@@UBEPBDXZ 0045cf80     qt-mt323:qt-mt323.dll
 0002:00000f84       __imp_?metaObject@QLabel@@UBEPAVQMetaObject@@XZ 0045cf84     qt-mt323:qt-mt323.dll
 0002:00000f88       __imp_?drawButtonLabel@QCheckBox@@MAEXPAVQPainter@@@Z 0045cf88     qt-mt323:qt-mt323.dll
 0002:00000f8c       __imp_?drawButton@QCheckBox@@MAEXPAVQPainter@@@Z 0045cf8c     qt-mt323:qt-mt323.dll
 0002:00000f90       __imp_?hitButton@QCheckBox@@MBE_NABVQPoint@@@Z 0045cf90     qt-mt323:qt-mt323.dll
 0002:00000f94       __imp_?updateMask@QCheckBox@@MAEXXZ 0045cf94     qt-mt323:qt-mt323.dll
 0002:00000f98       __imp_?resizeEvent@QCheckBox@@MAEXPAVQResizeEvent@@@Z 0045cf98     qt-mt323:qt-mt323.dll
 0002:00000f9c       __imp_?sizeHint@QCheckBox@@UBE?AVQSize@@XZ 0045cf9c     qt-mt323:qt-mt323.dll
 0002:00000fa0       __imp_?qt_property@QCheckBox@@UAE_NHHPAVQVariant@@@Z 0045cfa0     qt-mt323:qt-mt323.dll
 0002:00000fa4       __imp_?qt_emit@QCheckBox@@UAE_NHPAUQUObject@@@Z 0045cfa4     qt-mt323:qt-mt323.dll
 0002:00000fa8       __imp_?qt_invoke@QCheckBox@@UAE_NHPAUQUObject@@@Z 0045cfa8     qt-mt323:qt-mt323.dll
 0002:00000fac       __imp_?qt_cast@QCheckBox@@UAEPAXPBD@Z 0045cfac     qt-mt323:qt-mt323.dll
 0002:00000fb0       __imp_?className@QCheckBox@@UBEPBDXZ 0045cfb0     qt-mt323:qt-mt323.dll
 0002:00000fb4       __imp_?metaObject@QCheckBox@@UBEPAVQMetaObject@@XZ 0045cfb4     qt-mt323:qt-mt323.dll
 0002:00000fb8       __imp_??1QSettings@@QAE@XZ 0045cfb8     qt-mt323:qt-mt323.dll
 0002:00000fbc       __imp_?readEntry@QSettings@@QAE?AVQString@@ABV2@0PA_N@Z 0045cfbc     qt-mt323:qt-mt323.dll
 0002:00000fc0       __imp_?setPath@QSettings@@QAEXABVQString@@0W4Scope@1@@Z 0045cfc0     qt-mt323:qt-mt323.dll
 0002:00000fc4       __imp_??0QSettings@@QAE@XZ 0045cfc4     qt-mt323:qt-mt323.dll
 0002:00000fc8       __imp_??0QCheckBox@@QAE@PAVQWidget@@PBD@Z 0045cfc8     qt-mt323:qt-mt323.dll
 0002:00000fcc       __imp_?setMinimumHeight@QWidget@@QAEXH@Z 0045cfcc     qt-mt323:qt-mt323.dll
 0002:00000fd0       __imp_??0QLabel@@QAE@PAVQWidget@@PBDI@Z 0045cfd0     qt-mt323:qt-mt323.dll
 0002:00000fd4       __imp_??1QLabel@@UAE@XZ    0045cfd4     qt-mt323:qt-mt323.dll
 0002:00000fd8       __imp_??1QCheckBox@@UAE@XZ 0045cfd8     qt-mt323:qt-mt323.dll
 0002:00000fdc       __imp_?writeEntry@QSettings@@QAE_NABVQString@@PBD@Z 0045cfdc     qt-mt323:qt-mt323.dll
 0002:00000fe0       __imp_?qt_property@QListView@@UAE_NHHPAVQVariant@@@Z 0045cfe0     qt-mt323:qt-mt323.dll
 0002:00000fe4       __imp_?qt_emit@QListView@@UAE_NHPAUQUObject@@@Z 0045cfe4     qt-mt323:qt-mt323.dll
 0002:00000fe8       __imp_?qt_invoke@QListView@@UAE_NHPAUQUObject@@@Z 0045cfe8     qt-mt323:qt-mt323.dll
 0002:00000fec       __imp_?qt_cast@QListView@@UAEPAXPBD@Z 0045cfec     qt-mt323:qt-mt323.dll
 0002:00000ff0       __imp_?className@QListView@@UBEPBDXZ 0045cff0     qt-mt323:qt-mt323.dll
 0002:00000ff4       __imp_?metaObject@QListView@@UBEPAVQMetaObject@@XZ 0045cff4     qt-mt323:qt-mt323.dll
 0002:00000ff8       __imp_?setOrientation@QDockWindow@@UAEXW4Orientation@Qt@@@Z 0045cff8     qt-mt323:qt-mt323.dll
 0002:00000ffc       __imp_?dock@QDockWindow@@UAEXXZ 0045cffc     qt-mt323:qt-mt323.dll
 0002:00001000       __imp_?undock@QDockWindow@@UAEXPAVQWidget@@@Z 0045d000     qt-mt323:qt-mt323.dll
 0002:00001004       __imp_?undock@QDockWindow@@UAEXXZ 0045d004     qt-mt323:qt-mt323.dll
 0002:00001008       __imp_?setOpaqueMoving@QDockWindow@@UAEX_N@Z 0045d008     qt-mt323:qt-mt323.dll
 0002:0000100c       __imp_?setNewLine@QDockWindow@@UAEX_N@Z 0045d00c     qt-mt323:qt-mt323.dll
 0002:00001010       __imp_?setFixedExtentHeight@QDockWindow@@UAEXH@Z 0045d010     qt-mt323:qt-mt323.dll
 0002:00001014       __imp_?setFixedExtentWidth@QDockWindow@@UAEXH@Z 0045d014     qt-mt323:qt-mt323.dll
 0002:00001018       __imp_?setOffset@QDockWindow@@UAEXH@Z 0045d018     qt-mt323:qt-mt323.dll
 0002:0000101c       __imp_?setVerticallyStretchable@QDockWindow@@UAEX_N@Z 0045d01c     qt-mt323:qt-mt323.dll
 0002:00001020       __imp_?setHorizontallyStretchable@QDockWindow@@UAEX_N@Z 0045d020     qt-mt323:qt-mt323.dll
 0002:00001024       __imp_?setMovingEnabled@QDockWindow@@UAEX_N@Z 0045d024     qt-mt323:qt-mt323.dll
 0002:00001028       __imp_?setResizeEnabled@QDockWindow@@UAEX_N@Z 0045d028     qt-mt323:qt-mt323.dll
 0002:0000102c       __imp_?setCloseMode@QDockWindow@@UAEXH@Z 0045d02c     qt-mt323:qt-mt323.dll
 0002:00001030       __imp_?setWidget@QDockWindow@@UAEXPAVQWidget@@@Z 0045d030     qt-mt323:qt-mt323.dll
 0002:00001034       __imp_?drawContents@QDockWindow@@MAEXPAVQPainter@@@Z 0045d034     qt-mt323:qt-mt323.dll
 0002:00001038       __imp_?drawFrame@QDockWindow@@MAEXPAVQPainter@@@Z 0045d038     qt-mt323:qt-mt323.dll
 0002:0000103c       __imp_?hideEvent@QDockWindow@@MAEXPAVQHideEvent@@@Z 0045d03c     qt-mt323:qt-mt323.dll
 0002:00001040       __imp_?showEvent@QDockWindow@@MAEXPAVQShowEvent@@@Z 0045d040     qt-mt323:qt-mt323.dll
 0002:00001044       __imp_?contextMenuEvent@QDockWindow@@MAEXPAVQContextMenuEvent@@@Z 0045d044     qt-mt323:qt-mt323.dll
 0002:00001048       __imp_?resizeEvent@QDockWindow@@MAEXPAVQResizeEvent@@@Z 0045d048     qt-mt323:qt-mt323.dll
 0002:0000104c       __imp_?minimumSizeHint@QDockWindow@@UBE?AVQSize@@XZ 0045d04c     qt-mt323:qt-mt323.dll
 0002:00001050       __imp_?sizeHint@QDockWindow@@UBE?AVQSize@@XZ 0045d050     qt-mt323:qt-mt323.dll
 0002:00001054       __imp_?setCaption@QDockWindow@@UAEXABVQString@@@Z 0045d054     qt-mt323:qt-mt323.dll
 0002:00001058       __imp_?eventFilter@QDockWindow@@UAE_NPAVQObject@@PAVQEvent@@@Z 0045d058     qt-mt323:qt-mt323.dll
 0002:0000105c       __imp_?event@QDockWindow@@MAE_NPAVQEvent@@@Z 0045d05c     qt-mt323:qt-mt323.dll
 0002:00001060       __imp_?qt_property@QDockWindow@@UAE_NHHPAVQVariant@@@Z 0045d060     qt-mt323:qt-mt323.dll
 0002:00001064       __imp_?qt_emit@QDockWindow@@UAE_NHPAUQUObject@@@Z 0045d064     qt-mt323:qt-mt323.dll
 0002:00001068       __imp_?qt_invoke@QDockWindow@@UAE_NHPAUQUObject@@@Z 0045d068     qt-mt323:qt-mt323.dll
 0002:0000106c       __imp_?qt_cast@QDockWindow@@UAEPAXPBD@Z 0045d06c     qt-mt323:qt-mt323.dll
 0002:00001070       __imp_?className@QDockWindow@@UBEPBDXZ 0045d070     qt-mt323:qt-mt323.dll
 0002:00001074       __imp_?metaObject@QDockWindow@@UBEPAVQMetaObject@@XZ 0045d074     qt-mt323:qt-mt323.dll
 0002:00001078       __imp_??1QDockWindow@@UAE@XZ 0045d078     qt-mt323:qt-mt323.dll
 0002:0000107c       __imp_??0QDockWindow@@QAE@PAVQWidget@@PBDI@Z 0045d07c     qt-mt323:qt-mt323.dll
 0002:00001080       __imp_?insertSearchPath@QSettings@@QAEXW4System@1@ABVQString@@@Z 0045d080     qt-mt323:qt-mt323.dll
 0002:00001084       __imp_??0QSettings@@QAE@W4Format@0@@Z 0045d084     qt-mt323:qt-mt323.dll
 0002:00001088       __imp_?writeEntry@QSettings@@QAE_NABVQString@@0@Z 0045d088     qt-mt323:qt-mt323.dll
 0002:0000108c       __imp_?fixup@QValidator@@UBEXAAVQString@@@Z 0045d08c     qt-mt323:qt-mt323.dll
 0002:00001090       __imp_?qt_property@QValidator@@UAE_NHHPAVQVariant@@@Z 0045d090     qt-mt323:qt-mt323.dll
 0002:00001094       __imp_?qt_emit@QValidator@@UAE_NHPAUQUObject@@@Z 0045d094     qt-mt323:qt-mt323.dll
 0002:00001098       __imp_?qt_invoke@QValidator@@UAE_NHPAUQUObject@@@Z 0045d098     qt-mt323:qt-mt323.dll
 0002:0000109c       __imp_?qt_cast@QValidator@@UAEPAXPBD@Z 0045d09c     qt-mt323:qt-mt323.dll
 0002:000010a0       __imp_?className@QValidator@@UBEPBDXZ 0045d0a0     qt-mt323:qt-mt323.dll
 0002:000010a4       __imp_?metaObject@QValidator@@UBEPAVQMetaObject@@XZ 0045d0a4     qt-mt323:qt-mt323.dll
 0002:000010a8       __imp_??0QValidator@@QAE@PAVQObject@@PBD@Z 0045d0a8     qt-mt323:qt-mt323.dll
 0002:000010ac       __imp_?setColumnLabels@QTable@@QAEXABVQStringList@@@Z 0045d0ac     qt-mt323:qt-mt323.dll
 0002:000010b0       __imp_??1QValidator@@UAE@XZ 0045d0b0     qt-mt323:qt-mt323.dll
 0002:000010b4       __imp_?contains@QString@@QBEHPBD_N@Z 0045d0b4     qt-mt323:qt-mt323.dll
 0002:000010b8       __imp_?remove@QString@@QAEAAV1@ABV1@@Z 0045d0b8     qt-mt323:qt-mt323.dll
 0002:000010bc       __imp_??1QRegExp@@QAE@XZ   0045d0bc     qt-mt323:qt-mt323.dll
 0002:000010c0       __imp_?remove@QString@@QAEAAV1@ABVQRegExp@@@Z 0045d0c0     qt-mt323:qt-mt323.dll
 0002:000010c4       __imp_??0QRegExp@@QAE@ABVQString@@_N1@Z 0045d0c4     qt-mt323:qt-mt323.dll
 0002:000010c8       __imp_?exactMatch@QRegExp@@QBE_NABVQString@@@Z 0045d0c8     qt-mt323:qt-mt323.dll
 0002:000010cc       __imp_?append@QGList@@IAEXPAX@Z 0045d0cc     qt-mt323:qt-mt323.dll
 0002:000010d0       __imp_??0QTableSelection@@QAE@HHHH@Z 0045d0d0     qt-mt323:qt-mt323.dll
 0002:000010d4       __imp_?clearSelection@QTable@@QAEX_N@Z 0045d0d4     qt-mt323:qt-mt323.dll
 0002:000010d8       __imp_?isRowSelected@QTable@@QBE_NH_N@Z 0045d0d8     qt-mt323:qt-mt323.dll
 0002:000010dc       __imp_?replace@QString@@QAEAAV1@ABVQRegExp@@ABV1@@Z 0045d0dc     qt-mt323:qt-mt323.dll
 0002:000010e0       __imp_?setWildcard@QRegExp@@QAEX_N@Z 0045d0e0     qt-mt323:qt-mt323.dll
 0002:000010e4       __imp_?setStringList@QComboTableItem@@UAEXABVQStringList@@@Z 0045d0e4     qt-mt323:qt-mt323.dll
 0002:000010e8       __imp_?setEditable@QComboTableItem@@UAEX_N@Z 0045d0e8     qt-mt323:qt-mt323.dll
 0002:000010ec       __imp_?setCurrentItem@QComboTableItem@@UAEXH@Z 0045d0ec     qt-mt323:qt-mt323.dll
 0002:000010f0       __imp_?setCurrentItem@QComboTableItem@@UAEXABVQString@@@Z 0045d0f0     qt-mt323:qt-mt323.dll
 0002:000010f4       __imp_?rtti@QComboTableItem@@UBEHXZ 0045d0f4     qt-mt323:qt-mt323.dll
 0002:000010f8       __imp_?setEnabled@QTableItem@@UAEX_N@Z 0045d0f8     qt-mt323:qt-mt323.dll
 0002:000010fc       __imp_?paint@QComboTableItem@@UAEXPAVQPainter@@ABVQColorGroup@@ABVQRect@@_N@Z 0045d0fc     qt-mt323:qt-mt323.dll
 0002:00001100       __imp_?setCol@QTableItem@@UAEXH@Z 0045d100     qt-mt323:qt-mt323.dll
 0002:00001104       __imp_?setRow@QTableItem@@UAEXH@Z 0045d104     qt-mt323:qt-mt323.dll
 0002:00001108       __imp_?setSpan@QTableItem@@UAEXHH@Z 0045d108     qt-mt323:qt-mt323.dll
 0002:0000110c       __imp_?sizeHint@QComboTableItem@@UBE?AVQSize@@XZ 0045d10c     qt-mt323:qt-mt323.dll
 0002:00001110       __imp_?key@QTableItem@@UBE?AVQString@@XZ 0045d110     qt-mt323:qt-mt323.dll
 0002:00001114       __imp_?setReplaceable@QTableItem@@UAEX_N@Z 0045d114     qt-mt323:qt-mt323.dll
 0002:00001118       __imp_?setContentFromEditor@QComboTableItem@@UAEXPAVQWidget@@@Z 0045d118     qt-mt323:qt-mt323.dll
 0002:0000111c       __imp_?createEditor@QComboTableItem@@UBEPAVQWidget@@XZ 0045d11c     qt-mt323:qt-mt323.dll
 0002:00001120       __imp_?setWordWrap@QTableItem@@UAEX_N@Z 0045d120     qt-mt323:qt-mt323.dll
 0002:00001124       __imp_?alignment@QTableItem@@UBEHXZ 0045d124     qt-mt323:qt-mt323.dll
 0002:00001128       __imp_?setText@QTableItem@@UAEXABVQString@@@Z 0045d128     qt-mt323:qt-mt323.dll
 0002:0000112c       __imp_?setPixmap@QTableItem@@UAEXABVQPixmap@@@Z 0045d12c     qt-mt323:qt-mt323.dll
 0002:00001130       __imp_?text@QTableItem@@UBE?AVQString@@XZ 0045d130     qt-mt323:qt-mt323.dll
 0002:00001134       __imp_?pixmap@QTableItem@@UBE?AVQPixmap@@XZ 0045d134     qt-mt323:qt-mt323.dll
 0002:00001138       __imp_??0QComboTableItem@@QAE@PAVQTable@@ABVQStringList@@_N@Z 0045d138     qt-mt323:qt-mt323.dll
 0002:0000113c       __imp_??1QComboTableItem@@UAE@XZ 0045d13c     qt-mt323:qt-mt323.dll
 0002:00001140       __imp_?getOpenFileName@QFileDialog@@SA?AVQString@@ABV2@0PAVQWidget@@PBD0PAV2@_N@Z 0045d140     qt-mt323:qt-mt323.dll
 0002:00001144       __imp_?createPopupMenu@QLineEdit@@MAEPAVQPopupMenu@@XZ 0045d144     qt-mt323:qt-mt323.dll
 0002:00001148       __imp_?setDragEnabled@QLineEdit@@UAEX_N@Z 0045d148     qt-mt323:qt-mt323.dll
 0002:0000114c       __imp_?paste@QLineEdit@@UAEXXZ 0045d14c     qt-mt323:qt-mt323.dll
 0002:00001150       __imp_?copy@QLineEdit@@UBEXXZ 0045d150     qt-mt323:qt-mt323.dll
 0002:00001154       __imp_?cut@QLineEdit@@UAEXXZ 0045d154     qt-mt323:qt-mt323.dll
 0002:00001158       __imp_?setAlignment@QLineEdit@@UAEXH@Z 0045d158     qt-mt323:qt-mt323.dll
 0002:0000115c       __imp_?setCursorPosition@QLineEdit@@UAEXH@Z 0045d15c     qt-mt323:qt-mt323.dll
 0002:00001160       __imp_?setSelection@QLineEdit@@UAEXHH@Z 0045d160     qt-mt323:qt-mt323.dll
 0002:00001164       __imp_?setValidator@QLineEdit@@UAEXPBVQValidator@@@Z 0045d164     qt-mt323:qt-mt323.dll
 0002:00001168       __imp_?setReadOnly@QLineEdit@@UAEX_N@Z 0045d168     qt-mt323:qt-mt323.dll
 0002:0000116c       __imp_?setEchoMode@QLineEdit@@UAEXW4EchoMode@1@@Z 0045d16c     qt-mt323:qt-mt323.dll
 0002:00001170       __imp_?setFrame@QLineEdit@@UAEX_N@Z 0045d170     qt-mt323:qt-mt323.dll
 0002:00001174       __imp_?setMaxLength@QLineEdit@@UAEXH@Z 0045d174     qt-mt323:qt-mt323.dll
 0002:00001178       __imp_?redo@QLineEdit@@UAEXXZ 0045d178     qt-mt323:qt-mt323.dll
 0002:0000117c       __imp_?undo@QLineEdit@@UAEXXZ 0045d17c     qt-mt323:qt-mt323.dll
 0002:00001180       __imp_?clear@QLineEdit@@UAEXXZ 0045d180     qt-mt323:qt-mt323.dll
 0002:00001184       __imp_?insert@QLineEdit@@UAEXABVQString@@@Z 0045d184     qt-mt323:qt-mt323.dll
 0002:00001188       __imp_?clearValidator@QLineEdit@@UAEXXZ 0045d188     qt-mt323:qt-mt323.dll
 0002:0000118c       __imp_?deselect@QLineEdit@@UAEXXZ 0045d18c     qt-mt323:qt-mt323.dll
 0002:00001190       __imp_?selectAll@QLineEdit@@UAEXXZ 0045d190     qt-mt323:qt-mt323.dll
 0002:00001194       __imp_?setText@QLineEdit@@UAEXABVQString@@@Z 0045d194     qt-mt323:qt-mt323.dll
 0002:00001198       __imp_?drawContents@QLineEdit@@MAEXPAVQPainter@@@Z 0045d198     qt-mt323:qt-mt323.dll
 0002:0000119c       __imp_?windowActivationChange@QLineEdit@@MAEX_N@Z 0045d19c     qt-mt323:qt-mt323.dll
 0002:000011a0       __imp_?dropEvent@QLineEdit@@MAEXPAVQDropEvent@@@Z 0045d1a0     qt-mt323:qt-mt323.dll
 0002:000011a4       __imp_?dragLeaveEvent@QLineEdit@@MAEXPAVQDragLeaveEvent@@@Z 0045d1a4     qt-mt323:qt-mt323.dll
 0002:000011a8       __imp_?dragMoveEvent@QLineEdit@@MAEXPAVQDragMoveEvent@@@Z 0045d1a8     qt-mt323:qt-mt323.dll
 0002:000011ac       __imp_?dragEnterEvent@QLineEdit@@MAEXPAVQDragEnterEvent@@@Z 0045d1ac     qt-mt323:qt-mt323.dll
 0002:000011b0       __imp_?imEndEvent@QLineEdit@@MAEXPAVQIMEvent@@@Z 0045d1b0     qt-mt323:qt-mt323.dll
 0002:000011b4       __imp_?imComposeEvent@QLineEdit@@MAEXPAVQIMEvent@@@Z 0045d1b4     qt-mt323:qt-mt323.dll
 0002:000011b8       __imp_?imStartEvent@QLineEdit@@MAEXPAVQIMEvent@@@Z 0045d1b8     qt-mt323:qt-mt323.dll
 0002:000011bc       __imp_?contextMenuEvent@QLineEdit@@MAEXPAVQContextMenuEvent@@@Z 0045d1bc     qt-mt323:qt-mt323.dll
 0002:000011c0       __imp_?resizeEvent@QLineEdit@@MAEXPAVQResizeEvent@@@Z 0045d1c0     qt-mt323:qt-mt323.dll
 0002:000011c4       __imp_?focusOutEvent@QLineEdit@@MAEXPAVQFocusEvent@@@Z 0045d1c4     qt-mt323:qt-mt323.dll
 0002:000011c8       __imp_?focusInEvent@QLineEdit@@MAEXPAVQFocusEvent@@@Z 0045d1c8     qt-mt323:qt-mt323.dll
 0002:000011cc       __imp_?keyPressEvent@QLineEdit@@MAEXPAVQKeyEvent@@@Z 0045d1cc     qt-mt323:qt-mt323.dll
 0002:000011d0       __imp_?mouseMoveEvent@QLineEdit@@MAEXPAVQMouseEvent@@@Z 0045d1d0     qt-mt323:qt-mt323.dll
 0002:000011d4       __imp_?mouseDoubleClickEvent@QLineEdit@@MAEXPAVQMouseEvent@@@Z 0045d1d4     qt-mt323:qt-mt323.dll
 0002:000011d8       __imp_?mouseReleaseEvent@QLineEdit@@MAEXPAVQMouseEvent@@@Z 0045d1d8     qt-mt323:qt-mt323.dll
 0002:000011dc       __imp_?mousePressEvent@QLineEdit@@MAEXPAVQMouseEvent@@@Z 0045d1dc     qt-mt323:qt-mt323.dll
 0002:000011e0       __imp_?minimumSizeHint@QLineEdit@@UBE?AVQSize@@XZ 0045d1e0     qt-mt323:qt-mt323.dll
 0002:000011e4       __imp_?sizeHint@QLineEdit@@UBE?AVQSize@@XZ 0045d1e4     qt-mt323:qt-mt323.dll
 0002:000011e8       __imp_?setFont@QLineEdit@@UAEXABVQFont@@@Z 0045d1e8     qt-mt323:qt-mt323.dll
 0002:000011ec       __imp_?setPalette@QLineEdit@@UAEXABVQPalette@@@Z 0045d1ec     qt-mt323:qt-mt323.dll
 0002:000011f0       __imp_?event@QLineEdit@@MAE_NPAVQEvent@@@Z 0045d1f0     qt-mt323:qt-mt323.dll
 0002:000011f4       __imp_?qt_property@QLineEdit@@UAE_NHHPAVQVariant@@@Z 0045d1f4     qt-mt323:qt-mt323.dll
 0002:000011f8       __imp_?qt_emit@QLineEdit@@UAE_NHPAUQUObject@@@Z 0045d1f8     qt-mt323:qt-mt323.dll
 0002:000011fc       __imp_?qt_invoke@QLineEdit@@UAE_NHPAUQUObject@@@Z 0045d1fc     qt-mt323:qt-mt323.dll
 0002:00001200       __imp_?qt_cast@QLineEdit@@UAEPAXPBD@Z 0045d200     qt-mt323:qt-mt323.dll
 0002:00001204       __imp_?className@QLineEdit@@UBEPBDXZ 0045d204     qt-mt323:qt-mt323.dll
 0002:00001208       __imp_?metaObject@QLineEdit@@UBEPAVQMetaObject@@XZ 0045d208     qt-mt323:qt-mt323.dll
 0002:0000120c       __imp_?setEditText@QComboBox@@UAEXABVQString@@@Z 0045d20c     qt-mt323:qt-mt323.dll
 0002:00001210       __imp_?popup@QComboBox@@UAEXXZ 0045d210     qt-mt323:qt-mt323.dll
 0002:00001214       __imp_?setAutoCompletion@QComboBox@@UAEX_N@Z 0045d214     qt-mt323:qt-mt323.dll
 0002:00001218       __imp_?setLineEdit@QComboBox@@UAEXPAVQLineEdit@@@Z 0045d218     qt-mt323:qt-mt323.dll
 0002:0000121c       __imp_?setListBox@QComboBox@@UAEXPAVQListBox@@@Z 0045d21c     qt-mt323:qt-mt323.dll
 0002:00001220       __imp_?setValidator@QComboBox@@UAEXPBVQValidator@@@Z 0045d220     qt-mt323:qt-mt323.dll
 0002:00001224       __imp_?setInsertionPolicy@QComboBox@@UAEXW4Policy@1@@Z 0045d224     qt-mt323:qt-mt323.dll
 0002:00001228       __imp_?setMaxCount@QComboBox@@UAEXH@Z 0045d228     qt-mt323:qt-mt323.dll
 0002:0000122c       __imp_?setSizeLimit@QComboBox@@UAEXH@Z 0045d22c     qt-mt323:qt-mt323.dll
 0002:00001230       __imp_?setAutoResize@QComboBox@@UAEX_N@Z 0045d230     qt-mt323:qt-mt323.dll
 0002:00001234       __imp_?setCurrentText@QComboBox@@UAEXABVQString@@@Z 0045d234     qt-mt323:qt-mt323.dll
 0002:00001238       __imp_?setCurrentItem@QComboBox@@UAEXH@Z 0045d238     qt-mt323:qt-mt323.dll
 0002:0000123c       __imp_?styleChange@QComboBox@@MAEXAAVQStyle@@@Z 0045d23c     qt-mt323:qt-mt323.dll
 0002:00001240       __imp_?updateMask@QComboBox@@MAEXXZ 0045d240     qt-mt323:qt-mt323.dll
 0002:00001244       __imp_?resizeEvent@QComboBox@@MAEXPAVQResizeEvent@@@Z 0045d244     qt-mt323:qt-mt323.dll
 0002:00001248       __imp_?paintEvent@QComboBox@@MAEXPAVQPaintEvent@@@Z 0045d248     qt-mt323:qt-mt323.dll
 0002:0000124c       __imp_?focusOutEvent@QComboBox@@MAEXPAVQFocusEvent@@@Z 0045d24c     qt-mt323:qt-mt323.dll
 0002:00001250       __imp_?focusInEvent@QComboBox@@MAEXPAVQFocusEvent@@@Z 0045d250     qt-mt323:qt-mt323.dll
 0002:00001254       __imp_?keyPressEvent@QComboBox@@MAEXPAVQKeyEvent@@@Z 0045d254     qt-mt323:qt-mt323.dll
 0002:00001258       __imp_?wheelEvent@QComboBox@@MAEXPAVQWheelEvent@@@Z 0045d258     qt-mt323:qt-mt323.dll
 0002:0000125c       __imp_?mouseMoveEvent@QComboBox@@MAEXPAVQMouseEvent@@@Z 0045d25c     qt-mt323:qt-mt323.dll
 0002:00001260       __imp_?mouseDoubleClickEvent@QComboBox@@MAEXPAVQMouseEvent@@@Z 0045d260     qt-mt323:qt-mt323.dll
 0002:00001264       __imp_?mouseReleaseEvent@QComboBox@@MAEXPAVQMouseEvent@@@Z 0045d264     qt-mt323:qt-mt323.dll
 0002:00001268       __imp_?mousePressEvent@QComboBox@@MAEXPAVQMouseEvent@@@Z 0045d268     qt-mt323:qt-mt323.dll
 0002:0000126c       __imp_?sizeHint@QComboBox@@UBE?AVQSize@@XZ 0045d26c     qt-mt323:qt-mt323.dll
 0002:00001270       __imp_?setFont@QComboBox@@UAEXABVQFont@@@Z 0045d270     qt-mt323:qt-mt323.dll
 0002:00001274       __imp_?setPalette@QComboBox@@UAEXABVQPalette@@@Z 0045d274     qt-mt323:qt-mt323.dll
 0002:00001278       __imp_?setEnabled@QComboBox@@UAEX_N@Z 0045d278     qt-mt323:qt-mt323.dll
 0002:0000127c       __imp_?eventFilter@QComboBox@@UAE_NPAVQObject@@PAVQEvent@@@Z 0045d27c     qt-mt323:qt-mt323.dll
 0002:00001280       __imp_?qt_property@QComboBox@@UAE_NHHPAVQVariant@@@Z 0045d280     qt-mt323:qt-mt323.dll
 0002:00001284       __imp_?qt_emit@QComboBox@@UAE_NHPAUQUObject@@@Z 0045d284     qt-mt323:qt-mt323.dll
 0002:00001288       __imp_?qt_invoke@QComboBox@@UAE_NHPAUQUObject@@@Z 0045d288     qt-mt323:qt-mt323.dll
 0002:0000128c       __imp_?qt_cast@QComboBox@@UAEPAXPBD@Z 0045d28c     qt-mt323:qt-mt323.dll
 0002:00001290       __imp_?className@QComboBox@@UBEPBDXZ 0045d290     qt-mt323:qt-mt323.dll
 0002:00001294       __imp_?metaObject@QComboBox@@UBEPAVQMetaObject@@XZ 0045d294     qt-mt323:qt-mt323.dll
 0002:00001298       __imp_??0QLineEdit@@QAE@PAVQWidget@@PBD@Z 0045d298     qt-mt323:qt-mt323.dll
 0002:0000129c       __imp_?setEditable@QComboBox@@QAEX_N@Z 0045d29c     qt-mt323:qt-mt323.dll
 0002:000012a0       __imp_??0QComboBox@@QAE@_NPAVQWidget@@PBD@Z 0045d2a0     qt-mt323:qt-mt323.dll
 0002:000012a4       __imp_??1QComboBox@@UAE@XZ 0045d2a4     qt-mt323:qt-mt323.dll
 0002:000012a8       __imp_??1QLineEdit@@UAE@XZ 0045d2a8     qt-mt323:qt-mt323.dll
 0002:000012ac       __imp_??1QKeySequence@@QAE@XZ 0045d2ac     qt-mt323:qt-mt323.dll
 0002:000012b0       __imp_??0QKeySequence@@QAE@ABVQString@@@Z 0045d2b0     qt-mt323:qt-mt323.dll
 0002:000012b4       __imp_?emitLinkClicked@QTextEdit@@EAEXABVQString@@@Z 0045d2b4     qt-mt323:qt-mt323.dll
 0002:000012b8       __imp_?emitHighlighted@QTextEdit@@EAEXABVQString@@@Z 0045d2b8     qt-mt323:qt-mt323.dll
 0002:000012bc       __imp_?linksEnabled@QTextEdit@@EBE_NXZ 0045d2bc     qt-mt323:qt-mt323.dll
 0002:000012c0       __imp_?doChangeInterval@QTextEdit@@MAEXXZ 0045d2c0     qt-mt323:qt-mt323.dll
 0002:000012c4       __imp_?createPopupMenu@QTextEdit@@MAEPAVQPopupMenu@@ABVQPoint@@@Z 0045d2c4     qt-mt323:qt-mt323.dll
 0002:000012c8       __imp_?createPopupMenu@QTextEdit@@MAEPAVQPopupMenu@@XZ 0045d2c8     qt-mt323:qt-mt323.dll
 0002:000012cc       __imp_?setUndoRedoEnabled@QTextEdit@@UAEX_N@Z 0045d2cc     qt-mt323:qt-mt323.dll
 0002:000012d0       __imp_?clearParagraphBackground@QTextEdit@@UAEXH@Z 0045d2d0     qt-mt323:qt-mt323.dll
 0002:000012d4       __imp_?setParagraphBackgroundColor@QTextEdit@@UAEXHABVQColor@@@Z 0045d2d4     qt-mt323:qt-mt323.dll
 0002:000012d8       __imp_?insertParagraph@QTextEdit@@UAEXABVQString@@H@Z 0045d2d8     qt-mt323:qt-mt323.dll
 0002:000012dc       __imp_?removeParagraph@QTextEdit@@UAEXH@Z 0045d2dc     qt-mt323:qt-mt323.dll
 0002:000012e0       __imp_?insertAt@QTextEdit@@UAEXABVQString@@HH@Z 0045d2e0     qt-mt323:qt-mt323.dll
 0002:000012e4       __imp_?insert@QTextEdit@@UAEXABVQString@@_N11@Z 0045d2e4     qt-mt323:qt-mt323.dll
 0002:000012e8       __imp_?scrollToBottom@QTextEdit@@UAEXXZ 0045d2e8     qt-mt323:qt-mt323.dll
 0002:000012ec       __imp_?setOverwriteMode@QTextEdit@@UAEX_N@Z 0045d2ec     qt-mt323:qt-mt323.dll
 0002:000012f0       __imp_?setCurrentFont@QTextEdit@@UAEXABVQFont@@@Z 0045d2f0     qt-mt323:qt-mt323.dll
 0002:000012f4       __imp_?removeSelection@QTextEdit@@UAEXH@Z 0045d2f4     qt-mt323:qt-mt323.dll
 0002:000012f8       __imp_?removeSelectedText@QTextEdit@@UAEXH@Z 0045d2f8     qt-mt323:qt-mt323.dll
 0002:000012fc       __imp_?doKeyboardAction@QTextEdit@@UAEXW4KeyboardAction@1@@Z 0045d2fc     qt-mt323:qt-mt323.dll
 0002:00001300       __imp_?moveCursor@QTextEdit@@UAEXW4CursorAction@1@_N@Z 0045d300     qt-mt323:qt-mt323.dll
 0002:00001304       __imp_?placeCursor@QTextEdit@@UAEXABVQPoint@@PAVQTextCursor@@@Z 0045d304     qt-mt323:qt-mt323.dll
 0002:00001308       __imp_?ensureCursorVisible@QTextEdit@@UAEXXZ 0045d308     qt-mt323:qt-mt323.dll
 0002:0000130c       __imp_?setFormat@QTextEdit@@UAEXPAVQTextFormat@@H@Z 0045d30c     qt-mt323:qt-mt323.dll
 0002:00001310       __imp_?setUndoDepth@QTextEdit@@UAEXH@Z 0045d310     qt-mt323:qt-mt323.dll
 0002:00001314       __imp_?resetFormat@QTextEdit@@UAEXXZ 0045d314     qt-mt323:qt-mt323.dll
 0002:00001318       __imp_?setModified@QTextEdit@@UAEX_N@Z 0045d318     qt-mt323:qt-mt323.dll
 0002:0000131c       __imp_?setSelectionAttributes@QTextEdit@@UAEXHABVQColor@@_N@Z 0045d31c     qt-mt323:qt-mt323.dll
 0002:00001320       __imp_?setSelection@QTextEdit@@UAEXHHHHH@Z 0045d320     qt-mt323:qt-mt323.dll
 0002:00001324       __imp_?setCursorPosition@QTextEdit@@UAEXHH@Z 0045d324     qt-mt323:qt-mt323.dll
 0002:00001328       __imp_?setParagType@QTextEdit@@UAEXW4DisplayMode@QStyleSheetItem@@W4ListStyle@3@@Z 0045d328     qt-mt323:qt-mt323.dll
 0002:0000132c       __imp_?setAlignment@QTextEdit@@UAEXH@Z 0045d32c     qt-mt323:qt-mt323.dll
 0002:00001330       __imp_?setVerticalAlignment@QTextEdit@@UAEXW4VerticalAlignment@1@@Z 0045d330     qt-mt323:qt-mt323.dll
 0002:00001334       __imp_?setColor@QTextEdit@@UAEXABVQColor@@@Z 0045d334     qt-mt323:qt-mt323.dll
 0002:00001338       __imp_?setPointSize@QTextEdit@@UAEXH@Z 0045d338     qt-mt323:qt-mt323.dll
 0002:0000133c       __imp_?setFamily@QTextEdit@@UAEXABVQString@@@Z 0045d33c     qt-mt323:qt-mt323.dll
 0002:00001340       __imp_?setUnderline@QTextEdit@@UAEX_N@Z 0045d340     qt-mt323:qt-mt323.dll
 0002:00001344       __imp_?setBold@QTextEdit@@UAEX_N@Z 0045d344     qt-mt323:qt-mt323.dll
 0002:00001348       __imp_?setItalic@QTextEdit@@UAEX_N@Z 0045d348     qt-mt323:qt-mt323.dll
 0002:0000134c       __imp_?indent@QTextEdit@@UAEXXZ 0045d34c     qt-mt323:qt-mt323.dll
 0002:00001350       __imp_?del@QTextEdit@@UAEXXZ 0045d350     qt-mt323:qt-mt323.dll
 0002:00001354       __imp_?clear@QTextEdit@@UAEXXZ 0045d354     qt-mt323:qt-mt323.dll
 0002:00001358       __imp_?pasteSubType@QTextEdit@@UAEXABVQCString@@@Z 0045d358     qt-mt323:qt-mt323.dll
 0002:0000135c       __imp_?paste@QTextEdit@@UAEXXZ 0045d35c     qt-mt323:qt-mt323.dll
 0002:00001360       __imp_?cut@QTextEdit@@UAEXXZ 0045d360     qt-mt323:qt-mt323.dll
 0002:00001364       __imp_?redo@QTextEdit@@UAEXXZ 0045d364     qt-mt323:qt-mt323.dll
 0002:00001368       __imp_?undo@QTextEdit@@UAEXXZ 0045d368     qt-mt323:qt-mt323.dll
 0002:0000136c       __imp_?setReadOnly@QTextEdit@@UAEX_N@Z 0045d36c     qt-mt323:qt-mt323.dll
 0002:00001370       __imp_?sync@QTextEdit@@UAEXXZ 0045d370     qt-mt323:qt-mt323.dll
 0002:00001374       __imp_?zoomTo@QTextEdit@@UAEXH@Z 0045d374     qt-mt323:qt-mt323.dll
 0002:00001378       __imp_?zoomOut@QTextEdit@@UAEXH@Z 0045d378     qt-mt323:qt-mt323.dll
 0002:0000137c       __imp_?zoomOut@QTextEdit@@UAEXXZ 0045d37c     qt-mt323:qt-mt323.dll
 0002:00001380       __imp_?zoomIn@QTextEdit@@UAEXH@Z 0045d380     qt-mt323:qt-mt323.dll
 0002:00001384       __imp_?zoomIn@QTextEdit@@UAEXXZ 0045d384     qt-mt323:qt-mt323.dll
 0002:00001388       __imp_?setTabStopWidth@QTextEdit@@UAEXH@Z 0045d388     qt-mt323:qt-mt323.dll
 0002:0000138c       __imp_?selectAll@QTextEdit@@UAEX_N@Z 0045d38c     qt-mt323:qt-mt323.dll
 0002:00001390       __imp_?setTextFormat@QTextEdit@@UAEXW4TextFormat@Qt@@@Z 0045d390     qt-mt323:qt-mt323.dll
 0002:00001394       __imp_?setText@QTextEdit@@UAEXABVQString@@0@Z 0045d394     qt-mt323:qt-mt323.dll
 0002:00001398       __imp_?append@QTextEdit@@UAEXABVQString@@@Z 0045d398     qt-mt323:qt-mt323.dll
 0002:0000139c       __imp_?copy@QTextEdit@@UAEXXZ 0045d39c     qt-mt323:qt-mt323.dll
 0002:000013a0       __imp_?setWrapPolicy@QTextEdit@@UAEXW4WrapPolicy@1@@Z 0045d3a0     qt-mt323:qt-mt323.dll
 0002:000013a4       __imp_?setWrapColumnOrWidth@QTextEdit@@UAEXH@Z 0045d3a4     qt-mt323:qt-mt323.dll
 0002:000013a8       __imp_?setWordWrap@QTextEdit@@UAEXW4WordWrap@1@@Z 0045d3a8     qt-mt323:qt-mt323.dll
 0002:000013ac       __imp_?setLinkUnderline@QTextEdit@@UAEX_N@Z 0045d3ac     qt-mt323:qt-mt323.dll
 0002:000013b0       __imp_?setPaper@QTextEdit@@UAEXABVQBrush@@@Z 0045d3b0     qt-mt323:qt-mt323.dll
 0002:000013b4       __imp_?scrollToAnchor@QTextEdit@@UAEXABVQString@@@Z 0045d3b4     qt-mt323:qt-mt323.dll
 0002:000013b8       __imp_?setStyleSheet@QTextEdit@@UAEXPAVQStyleSheet@@@Z 0045d3b8     qt-mt323:qt-mt323.dll
 0002:000013bc       __imp_?setMimeSourceFactory@QTextEdit@@UAEXPAVQMimeSourceFactory@@@Z 0045d3bc     qt-mt323:qt-mt323.dll
 0002:000013c0       __imp_?getParagraphFormat@QTextEdit@@UAE_NHPAVQFont@@PAVQColor@@PAW4VerticalAlignment@1@PAHPAW4DisplayMode@QStyleSheetItem@@PAW4ListStyle@6@3@Z 0045d3c0     qt-mt323:qt-mt323.dll
 0002:000013c4       __imp_?getFormat@QTextEdit@@UAE_NHHPAVQFont@@PAVQColor@@PAW4VerticalAlignment@1@@Z 0045d3c4     qt-mt323:qt-mt323.dll
 0002:000013c8       __imp_?find@QTextEdit@@UAE_NABVQString@@_N11PAH2@Z 0045d3c8     qt-mt323:qt-mt323.dll
 0002:000013cc       __imp_?viewportResizeEvent@QTextEdit@@MAEXPAVQResizeEvent@@@Z 0045d3cc     qt-mt323:qt-mt323.dll
 0002:000013d0       __imp_?contentsContextMenuEvent@QTextEdit@@MAEXPAVQContextMenuEvent@@@Z 0045d3d0     qt-mt323:qt-mt323.dll
 0002:000013d4       __imp_?contentsWheelEvent@QTextEdit@@MAEXPAVQWheelEvent@@@Z 0045d3d4     qt-mt323:qt-mt323.dll
 0002:000013d8       __imp_?contentsDropEvent@QTextEdit@@MAEXPAVQDropEvent@@@Z 0045d3d8     qt-mt323:qt-mt323.dll
 0002:000013dc       __imp_?contentsDragLeaveEvent@QTextEdit@@MAEXPAVQDragLeaveEvent@@@Z 0045d3dc     qt-mt323:qt-mt323.dll
 0002:000013e0       __imp_?contentsDragMoveEvent@QTextEdit@@MAEXPAVQDragMoveEvent@@@Z 0045d3e0     qt-mt323:qt-mt323.dll
 0002:000013e4       __imp_?contentsDragEnterEvent@QTextEdit@@MAEXPAVQDragEnterEvent@@@Z 0045d3e4     qt-mt323:qt-mt323.dll
 0002:000013e8       __imp_?contentsMouseMoveEvent@QTextEdit@@MAEXPAVQMouseEvent@@@Z 0045d3e8     qt-mt323:qt-mt323.dll
 0002:000013ec       __imp_?contentsMouseDoubleClickEvent@QTextEdit@@MAEXPAVQMouseEvent@@@Z 0045d3ec     qt-mt323:qt-mt323.dll
 0002:000013f0       __imp_?contentsMouseReleaseEvent@QTextEdit@@MAEXPAVQMouseEvent@@@Z 0045d3f0     qt-mt323:qt-mt323.dll
 0002:000013f4       __imp_?contentsMousePressEvent@QTextEdit@@MAEXPAVQMouseEvent@@@Z 0045d3f4     qt-mt323:qt-mt323.dll
 0002:000013f8       __imp_?drawContents@QTextEdit@@MAEXPAVQPainter@@HHHH@Z 0045d3f8     qt-mt323:qt-mt323.dll
 0002:000013fc       __imp_?drawContents@QTextEdit@@EAEXPAVQPainter@@@Z 0045d3fc     qt-mt323:qt-mt323.dll
 0002:00001400       __imp_?focusNextPrevChild@QTextEdit@@MAE_N_N@Z 0045d400     qt-mt323:qt-mt323.dll
 0002:00001404       __imp_?windowActivationChange@QTextEdit@@MAEX_N@Z 0045d404     qt-mt323:qt-mt323.dll
 0002:00001408       __imp_?imEndEvent@QTextEdit@@MAEXPAVQIMEvent@@@Z 0045d408     qt-mt323:qt-mt323.dll
 0002:0000140c       __imp_?imComposeEvent@QTextEdit@@MAEXPAVQIMEvent@@@Z 0045d40c     qt-mt323:qt-mt323.dll
 0002:00001410       __imp_?imStartEvent@QTextEdit@@MAEXPAVQIMEvent@@@Z 0045d410     qt-mt323:qt-mt323.dll
 0002:00001414       __imp_?resizeEvent@QTextEdit@@MAEXPAVQResizeEvent@@@Z 0045d414     qt-mt323:qt-mt323.dll
 0002:00001418       __imp_?keyPressEvent@QTextEdit@@MAEXPAVQKeyEvent@@@Z 0045d418     qt-mt323:qt-mt323.dll
 0002:0000141c       __imp_?heightForWidth@QTextEdit@@UBEHH@Z 0045d41c     qt-mt323:qt-mt323.dll
 0002:00001420       __imp_?sizeHint@QTextEdit@@UBE?AVQSize@@XZ 0045d420     qt-mt323:qt-mt323.dll
 0002:00001424       __imp_?polish@QTextEdit@@UAEXXZ 0045d424     qt-mt323:qt-mt323.dll
 0002:00001428       __imp_?setFont@QTextEdit@@UAEXABVQFont@@@Z 0045d428     qt-mt323:qt-mt323.dll
 0002:0000142c       __imp_?setPalette@QTextEdit@@UAEXABVQPalette@@@Z 0045d42c     qt-mt323:qt-mt323.dll
 0002:00001430       __imp_?setEnabled@QTextEdit@@UAEX_N@Z 0045d430     qt-mt323:qt-mt323.dll
 0002:00001434       __imp_?eventFilter@QTextEdit@@UAE_NPAVQObject@@PAVQEvent@@@Z 0045d434     qt-mt323:qt-mt323.dll
 0002:00001438       __imp_?event@QTextEdit@@MAE_NPAVQEvent@@@Z 0045d438     qt-mt323:qt-mt323.dll
 0002:0000143c       __imp_??1QTextEdit@@UAE@XZ 0045d43c     qt-mt323:qt-mt323.dll
 0002:00001440       __imp_??0QTextEdit@@QAE@PAVQWidget@@PBD@Z 0045d440     qt-mt323:qt-mt323.dll
 0002:00001444       __imp_?read@QTextStream@@QAE?AVQString@@XZ 0045d444     qt-mt323:qt-mt323.dll
 0002:00001448       __imp_?text@QTextEdit@@QBE?AVQString@@XZ 0045d448     qt-mt323:qt-mt323.dll
 0002:0000144c       __imp_?getSaveFileName@QFileDialog@@SA?AVQString@@ABV2@0PAVQWidget@@PBD0PAV2@_N@Z 0045d44c     qt-mt323:qt-mt323.dll
 0002:00001450       __imp_?isModified@QTextEdit@@QBE_NXZ 0045d450     qt-mt323:qt-mt323.dll
 0002:00001454       __imp_?setEnabled@QAction@@UAEX_N@Z 0045d454     qt-mt323:qt-mt323.dll
 0002:00001458       __imp_?setOn@QAction@@UAEX_N@Z 0045d458     qt-mt323:qt-mt323.dll
 0002:0000145c       __imp_?addedTo@QAction@@MAEXPAVQWidget@@0@Z 0045d45c     qt-mt323:qt-mt323.dll
 0002:00001460       __imp_?addedTo@QAction@@MAEXHPAVQPopupMenu@@@Z 0045d460     qt-mt323:qt-mt323.dll
 0002:00001464       __imp_?removeFrom@QAction@@UAE_NPAVQWidget@@@Z 0045d464     qt-mt323:qt-mt323.dll
 0002:00001468       __imp_?addTo@QAction@@UAE_NPAVQWidget@@@Z 0045d468     qt-mt323:qt-mt323.dll
 0002:0000146c       __imp_?setToggleAction@QAction@@UAEX_N@Z 0045d46c     qt-mt323:qt-mt323.dll
 0002:00001470       __imp_?setAccel@QAction@@UAEXABVQKeySequence@@@Z 0045d470     qt-mt323:qt-mt323.dll
 0002:00001474       __imp_?setWhatsThis@QAction@@UAEXABVQString@@@Z 0045d474     qt-mt323:qt-mt323.dll
 0002:00001478       __imp_?setStatusTip@QAction@@UAEXABVQString@@@Z 0045d478     qt-mt323:qt-mt323.dll
 0002:0000147c       __imp_?setToolTip@QAction@@UAEXABVQString@@@Z 0045d47c     qt-mt323:qt-mt323.dll
 0002:00001480       __imp_?setMenuText@QAction@@UAEXABVQString@@@Z 0045d480     qt-mt323:qt-mt323.dll
 0002:00001484       __imp_?setText@QAction@@UAEXABVQString@@@Z 0045d484     qt-mt323:qt-mt323.dll
 0002:00001488       __imp_?setIconSet@QAction@@UAEXABVQIconSet@@@Z 0045d488     qt-mt323:qt-mt323.dll
 0002:0000148c       __imp_?qt_property@QAction@@UAE_NHHPAVQVariant@@@Z 0045d48c     qt-mt323:qt-mt323.dll
 0002:00001490       __imp_?qt_emit@QAction@@UAE_NHPAUQUObject@@@Z 0045d490     qt-mt323:qt-mt323.dll
 0002:00001494       __imp_?qt_invoke@QAction@@UAE_NHPAUQUObject@@@Z 0045d494     qt-mt323:qt-mt323.dll
 0002:00001498       __imp_?qt_cast@QAction@@UAEPAXPBD@Z 0045d498     qt-mt323:qt-mt323.dll
 0002:0000149c       __imp_?className@QAction@@UBEPBDXZ 0045d49c     qt-mt323:qt-mt323.dll
 0002:000014a0       __imp_?metaObject@QAction@@UBEPAVQMetaObject@@XZ 0045d4a0     qt-mt323:qt-mt323.dll
 0002:000014a4       __imp_?menuDelPopup@QPopupMenu@@EAEXPAV1@@Z 0045d4a4     qt-mt323:qt-mt323.dll
 0002:000014a8       __imp_?menuInsPopup@QPopupMenu@@EAEXPAV1@@Z 0045d4a8     qt-mt323:qt-mt323.dll
 0002:000014ac       __imp_?menuStateChanged@QPopupMenu@@EAEXXZ 0045d4ac     qt-mt323:qt-mt323.dll
 0002:000014b0       __imp_?menuContentsChanged@QPopupMenu@@EAEXXZ 0045d4b0     qt-mt323:qt-mt323.dll
 0002:000014b4       __imp_?activateItemAt@QPopupMenu@@UAEXH@Z 0045d4b4     qt-mt323:qt-mt323.dll
 0002:000014b8       __imp_?setId@QMenuData@@UAEXHH@Z 0045d4b8     qt-mt323:qt-mt323.dll
 0002:000014bc       __imp_?updateItem@QPopupMenu@@UAEXH@Z 0045d4bc     qt-mt323:qt-mt323.dll
 0002:000014c0       __imp_?setFirstItemActive@QPopupMenu@@EAEXXZ 0045d4c0     qt-mt323:qt-mt323.dll
 0002:000014c4       __imp_?setActiveItem@QPopupMenu@@UAEXH@Z 0045d4c4     qt-mt323:qt-mt323.dll
 0002:000014c8       __imp_?setCheckable@QPopupMenu@@UAEX_N@Z 0045d4c8     qt-mt323:qt-mt323.dll
 0002:000014cc       __imp_?frameChanged@QPopupMenu@@EAEXXZ 0045d4cc     qt-mt323:qt-mt323.dll
 0002:000014d0       __imp_?drawContents@QPopupMenu@@MAEXPAVQPainter@@@Z 0045d4d0     qt-mt323:qt-mt323.dll
 0002:000014d4       __imp_?focusNextPrevChild@QPopupMenu@@MAE_N_N@Z 0045d4d4     qt-mt323:qt-mt323.dll
 0002:000014d8       __imp_?enabledChange@QPopupMenu@@MAEX_N@Z 0045d4d8     qt-mt323:qt-mt323.dll
 0002:000014dc       __imp_?styleChange@QPopupMenu@@MAEXAAVQStyle@@@Z 0045d4dc     qt-mt323:qt-mt323.dll
 0002:000014e0       __imp_?closeEvent@QPopupMenu@@MAEXPAVQCloseEvent@@@Z 0045d4e0     qt-mt323:qt-mt323.dll
 0002:000014e4       __imp_?paintEvent@QPopupMenu@@MAEXPAVQPaintEvent@@@Z 0045d4e4     qt-mt323:qt-mt323.dll
 0002:000014e8       __imp_?leaveEvent@QPopupMenu@@MAEXPAVQEvent@@@Z 0045d4e8     qt-mt323:qt-mt323.dll
 0002:000014ec       __imp_?focusOutEvent@QPopupMenu@@MAEXPAVQFocusEvent@@@Z 0045d4ec     qt-mt323:qt-mt323.dll
 0002:000014f0       __imp_?focusInEvent@QPopupMenu@@MAEXPAVQFocusEvent@@@Z 0045d4f0     qt-mt323:qt-mt323.dll
 0002:000014f4       __imp_?keyPressEvent@QPopupMenu@@MAEXPAVQKeyEvent@@@Z 0045d4f4     qt-mt323:qt-mt323.dll
 0002:000014f8       __imp_?mouseMoveEvent@QPopupMenu@@MAEXPAVQMouseEvent@@@Z 0045d4f8     qt-mt323:qt-mt323.dll
 0002:000014fc       __imp_?mouseReleaseEvent@QPopupMenu@@MAEXPAVQMouseEvent@@@Z 0045d4fc     qt-mt323:qt-mt323.dll
 0002:00001500       __imp_?mousePressEvent@QPopupMenu@@MAEXPAVQMouseEvent@@@Z 0045d500     qt-mt323:qt-mt323.dll
 0002:00001504       __imp_?customWhatsThis@QPopupMenu@@UBE_NXZ 0045d504     qt-mt323:qt-mt323.dll
 0002:00001508       __imp_?sizeHint@QPopupMenu@@UBE?AVQSize@@XZ 0045d508     qt-mt323:qt-mt323.dll
 0002:0000150c       __imp_?hide@QPopupMenu@@UAEXXZ 0045d50c     qt-mt323:qt-mt323.dll
 0002:00001510       __imp_?show@QPopupMenu@@UAEXXZ 0045d510     qt-mt323:qt-mt323.dll
 0002:00001514       __imp_?setFont@QPopupMenu@@UAEXABVQFont@@@Z 0045d514     qt-mt323:qt-mt323.dll
 0002:00001518       __imp_?timerEvent@QPopupMenu@@MAEXPAVQTimerEvent@@@Z 0045d518     qt-mt323:qt-mt323.dll
 0002:0000151c       __imp_?qt_property@QPopupMenu@@UAE_NHHPAVQVariant@@@Z 0045d51c     qt-mt323:qt-mt323.dll
 0002:00001520       __imp_?qt_emit@QPopupMenu@@UAE_NHPAUQUObject@@@Z 0045d520     qt-mt323:qt-mt323.dll
 0002:00001524       __imp_?qt_invoke@QPopupMenu@@UAE_NHPAUQUObject@@@Z 0045d524     qt-mt323:qt-mt323.dll
 0002:00001528       __imp_?qt_cast@QPopupMenu@@UAEPAXPBD@Z 0045d528     qt-mt323:qt-mt323.dll
 0002:0000152c       __imp_?className@QPopupMenu@@UBEPBDXZ 0045d52c     qt-mt323:qt-mt323.dll
 0002:00001530       __imp_?metaObject@QPopupMenu@@UBEPAVQMetaObject@@XZ 0045d530     qt-mt323:qt-mt323.dll
 0002:00001534       __imp_?insertItem@QMenuData@@QAEHABVQString@@PAVQPopupMenu@@HH@Z 0045d534     qt-mt323:qt-mt323.dll
 0002:00001538       __imp_?menuBar@QMainWindow@@QBEPAVQMenuBar@@XZ 0045d538     qt-mt323:qt-mt323.dll
 0002:0000153c       __imp_??1QIconSet@@UAE@XZ  0045d53c     qt-mt323:qt-mt323.dll
 0002:00001540       __imp_??0QAction@@QAE@ABVQString@@ABVQIconSet@@0VQKeySequence@@PAVQObject@@PBD_N@Z 0045d540     qt-mt323:qt-mt323.dll
 0002:00001544       __imp_??0QKeySequence@@QAE@H@Z 0045d544     qt-mt323:qt-mt323.dll
 0002:00001548       __imp_??0QIconSet@@QAE@ABVQPixmap@@W4Size@0@@Z 0045d548     qt-mt323:qt-mt323.dll
 0002:0000154c       __imp_??1QAction@@UAE@XZ   0045d54c     qt-mt323:qt-mt323.dll
 0002:00001550       __imp_?setToolTipGroup@QMainWindow@@EAEXPAVQToolTipGroup@@@Z 0045d550     qt-mt323:qt-mt323.dll
 0002:00001554       __imp_?setStatusBar@QMainWindow@@EAEXPAVQStatusBar@@@Z 0045d554     qt-mt323:qt-mt323.dll
 0002:00001558       __imp_?setMenuBar@QMainWindow@@EAEXPAVQMenuBar@@@Z 0045d558     qt-mt323:qt-mt323.dll
 0002:0000155c       __imp_?showDockMenu@QMainWindow@@MAE_NABVQPoint@@@Z 0045d55c     qt-mt323:qt-mt323.dll
 0002:00001560       __imp_?setUpLayout@QMainWindow@@MAEXXZ 0045d560     qt-mt323:qt-mt323.dll
 0002:00001564       __imp_?customize@QMainWindow@@UAEXXZ 0045d564     qt-mt323:qt-mt323.dll
 0002:00001568       __imp_?setAppropriate@QMainWindow@@UAEXPAVQDockWindow@@_N@Z 0045d568     qt-mt323:qt-mt323.dll
 0002:0000156c       __imp_?whatsThis@QMainWindow@@UAEXXZ 0045d56c     qt-mt323:qt-mt323.dll
 0002:00001570       __imp_?setDockMenuEnabled@QMainWindow@@UAEX_N@Z 0045d570     qt-mt323:qt-mt323.dll
 0002:00001574       __imp_?setOpaqueMoving@QMainWindow@@UAEX_N@Z 0045d574     qt-mt323:qt-mt323.dll
 0002:00001578       __imp_?setDockWindowsMovable@QMainWindow@@UAEX_N@Z 0045d578     qt-mt323:qt-mt323.dll
 0002:0000157c       __imp_?setUsesTextLabel@QMainWindow@@UAEX_N@Z 0045d57c     qt-mt323:qt-mt323.dll
 0002:00001580       __imp_?setUsesBigPixmaps@QMainWindow@@UAEX_N@Z 0045d580     qt-mt323:qt-mt323.dll
 0002:00001584       __imp_?setRightJustification@QMainWindow@@UAEX_N@Z 0045d584     qt-mt323:qt-mt323.dll
 0002:00001588       __imp_?isCustomizable@QMainWindow@@UBE_NXZ 0045d588     qt-mt323:qt-mt323.dll
 0002:0000158c       __imp_?dockingArea@QMainWindow@@UAEPAVQDockArea@@ABVQPoint@@@Z 0045d58c     qt-mt323:qt-mt323.dll
 0002:00001590       __imp_?removeDockWindow@QMainWindow@@UAEXPAVQDockWindow@@@Z 0045d590     qt-mt323:qt-mt323.dll
 0002:00001594       __imp_?moveDockWindow@QMainWindow@@UAEXPAVQDockWindow@@W4Dock@Qt@@@Z 0045d594     qt-mt323:qt-mt323.dll
 0002:00001598       __imp_?moveDockWindow@QMainWindow@@UAEXPAVQDockWindow@@W4Dock@Qt@@_NHH@Z 0045d598     qt-mt323:qt-mt323.dll
 0002:0000159c       __imp_?addDockWindow@QMainWindow@@UAEXPAVQDockWindow@@W4Dock@Qt@@_N@Z 0045d59c     qt-mt323:qt-mt323.dll
 0002:000015a0       __imp_?addDockWindow@QMainWindow@@UAEXPAVQDockWindow@@ABVQString@@W4Dock@Qt@@_N@Z 0045d5a0     qt-mt323:qt-mt323.dll
 0002:000015a4       __imp_?setDockEnabled@QMainWindow@@UAEXW4Dock@Qt@@_N@Z 0045d5a4     qt-mt323:qt-mt323.dll
 0002:000015a8       __imp_?setDockEnabled@QMainWindow@@UAEXPAVQDockWindow@@W4Dock@Qt@@_N@Z 0045d5a8     qt-mt323:qt-mt323.dll
 0002:000015ac       __imp_?setCentralWidget@QMainWindow@@UAEXPAVQWidget@@@Z 0045d5ac     qt-mt323:qt-mt323.dll
 0002:000015b0       __imp_?styleChange@QMainWindow@@MAEXAAVQStyle@@@Z 0045d5b0     qt-mt323:qt-mt323.dll
 0002:000015b4       __imp_?paintEvent@QMainWindow@@MAEXPAVQPaintEvent@@@Z 0045d5b4     qt-mt323:qt-mt323.dll
 0002:000015b8       __imp_?minimumSizeHint@QMainWindow@@UBE?AVQSize@@XZ 0045d5b8     qt-mt323:qt-mt323.dll
 0002:000015bc       __imp_?sizeHint@QMainWindow@@UBE?AVQSize@@XZ 0045d5bc     qt-mt323:qt-mt323.dll
 0002:000015c0       __imp_?hide@QMainWindow@@UAEXXZ 0045d5c0     qt-mt323:qt-mt323.dll
 0002:000015c4       __imp_?childEvent@QMainWindow@@MAEXPAVQChildEvent@@@Z 0045d5c4     qt-mt323:qt-mt323.dll
 0002:000015c8       __imp_?eventFilter@QMainWindow@@UAE_NPAVQObject@@PAVQEvent@@@Z 0045d5c8     qt-mt323:qt-mt323.dll
 0002:000015cc       __imp_?event@QMainWindow@@MAE_NPAVQEvent@@@Z 0045d5cc     qt-mt323:qt-mt323.dll
 0002:000015d0       __imp_?styleChange@QWorkspace@@MAEXAAVQStyle@@@Z 0045d5d0     qt-mt323:qt-mt323.dll
 0002:000015d4       __imp_?hideEvent@QWorkspace@@MAEXPAVQHideEvent@@@Z 0045d5d4     qt-mt323:qt-mt323.dll
 0002:000015d8       __imp_?showEvent@QWorkspace@@MAEXPAVQShowEvent@@@Z 0045d5d8     qt-mt323:qt-mt323.dll
 0002:000015dc       __imp_?resizeEvent@QWorkspace@@MAEXPAVQResizeEvent@@@Z 0045d5dc     qt-mt323:qt-mt323.dll
 0002:000015e0       __imp_?wheelEvent@QWorkspace@@MAEXPAVQWheelEvent@@@Z 0045d5e0     qt-mt323:qt-mt323.dll
 0002:000015e4       __imp_?sizeHint@QWorkspace@@UBE?AVQSize@@XZ 0045d5e4     qt-mt323:qt-mt323.dll
 0002:000015e8       __imp_?setPaletteBackgroundPixmap@QWorkspace@@UAEXABVQPixmap@@@Z 0045d5e8     qt-mt323:qt-mt323.dll
 0002:000015ec       __imp_?setPaletteBackgroundColor@QWorkspace@@UAEXABVQColor@@@Z 0045d5ec     qt-mt323:qt-mt323.dll
 0002:000015f0       __imp_?childEvent@QWorkspace@@MAEXPAVQChildEvent@@@Z 0045d5f0     qt-mt323:qt-mt323.dll
 0002:000015f4       __imp_?eventFilter@QWorkspace@@MAE_NPAVQObject@@PAVQEvent@@@Z 0045d5f4     qt-mt323:qt-mt323.dll
 0002:000015f8       __imp_?qt_property@QWorkspace@@UAE_NHHPAVQVariant@@@Z 0045d5f8     qt-mt323:qt-mt323.dll
 0002:000015fc       __imp_?qt_emit@QWorkspace@@UAE_NHPAUQUObject@@@Z 0045d5fc     qt-mt323:qt-mt323.dll
 0002:00001600       __imp_?qt_invoke@QWorkspace@@UAE_NHPAUQUObject@@@Z 0045d600     qt-mt323:qt-mt323.dll
 0002:00001604       __imp_?qt_cast@QWorkspace@@UAEPAXPBD@Z 0045d604     qt-mt323:qt-mt323.dll
 0002:00001608       __imp_?className@QWorkspace@@UBEPBDXZ 0045d608     qt-mt323:qt-mt323.dll
 0002:0000160c       __imp_?metaObject@QWorkspace@@UBEPAVQMetaObject@@XZ 0045d60c     qt-mt323:qt-mt323.dll
 0002:00001610       __imp_??1QMainWindow@@UAE@XZ 0045d610     qt-mt323:qt-mt323.dll
 0002:00001614       __imp_?clear@QStatusBar@@QAEXXZ 0045d614     qt-mt323:qt-mt323.dll
 0002:00001618       __imp_?statusBar@QMainWindow@@QBEPAVQStatusBar@@XZ 0045d618     qt-mt323:qt-mt323.dll
 0002:0000161c       __imp_??0QWorkspace@@QAE@PAVQWidget@@PBD@Z 0045d61c     qt-mt323:qt-mt323.dll
 0002:00001620       __imp_??0QMainWindow@@QAE@PAVQWidget@@PBDI@Z 0045d620     qt-mt323:qt-mt323.dll
 0002:00001624       __imp_??1QWorkspace@@UAE@XZ 0045d624     qt-mt323:qt-mt323.dll
 0002:00001628       __imp_?isMaximized@QWidget@@QBE_NXZ 0045d628     qt-mt323:qt-mt323.dll
 0002:0000162c       __imp_?locate@QGList@@AAEPAVQLNode@@I@Z 0045d62c     qt-mt323:qt-mt323.dll
 0002:00001630       __imp_?windowList@QWorkspace@@QBE?AVQWidgetList@@XZ 0045d630     qt-mt323:qt-mt323.dll
 0002:00001634       __imp_?setItemChecked@QMenuData@@QAEXH_N@Z 0045d634     qt-mt323:qt-mt323.dll
 0002:00001638       __imp_?activeWindow@QWorkspace@@QBEPAVQWidget@@XZ 0045d638     qt-mt323:qt-mt323.dll
 0002:0000163c       __imp_?setItemParameter@QMenuData@@QAE_NHH@Z 0045d63c     qt-mt323:qt-mt323.dll
 0002:00001640       __imp_?caption@QWidget@@QBE?AVQString@@XZ 0045d640     qt-mt323:qt-mt323.dll
 0002:00001644       __imp_?setItemEnabled@QMenuData@@QAEXH_N@Z 0045d644     qt-mt323:qt-mt323.dll
 0002:00001648       __imp_?insertItem@QMenuData@@QAEHABVQString@@PBVQObject@@PBDABVQKeySequence@@HH@Z 0045d648     qt-mt323:qt-mt323.dll
 0002:0000164c       __imp_?clear@QMenuData@@QAEXXZ 0045d64c     qt-mt323:qt-mt323.dll
 0002:00001650       __imp_?processEvents@QApplication@@QAEXXZ 0045d650     qt-mt323:qt-mt323.dll
 0002:00001654       __imp_??1QImage@@QAE@XZ    0045d654     qt-mt323:qt-mt323.dll
 0002:00001658       __imp_??0QPixmap@@QAE@ABVQImage@@@Z 0045d658     qt-mt323:qt-mt323.dll
 0002:0000165c       __imp_??0QImage@@QAE@QBQBD@Z 0045d65c     qt-mt323:qt-mt323.dll
 0002:00001660       __imp_?setStyle@QWidget@@QAEPAVQStyle@@ABVQString@@@Z 0045d660     qt-mt323:qt-mt323.dll
 0002:00001664       __imp_?absFilePath@QFileInfo@@QBE?AVQString@@XZ 0045d664     qt-mt323:qt-mt323.dll
 0002:00001668       __imp_?clear@QToolBar@@UAEXXZ 0045d668     qt-mt323:qt-mt323.dll
 0002:0000166c       __imp_?setLabel@QToolBar@@UAEXABVQString@@@Z 0045d66c     qt-mt323:qt-mt323.dll
 0002:00001670       __imp_?setStretchableWidget@QToolBar@@UAEXPAVQWidget@@@Z 0045d670     qt-mt323:qt-mt323.dll
 0002:00001674       __imp_?setOrientation@QToolBar@@UAEXW4Orientation@Qt@@@Z 0045d674     qt-mt323:qt-mt323.dll
 0002:00001678       __imp_?styleChange@QToolBar@@MAEXAAVQStyle@@@Z 0045d678     qt-mt323:qt-mt323.dll
 0002:0000167c       __imp_?resizeEvent@QToolBar@@MAEXPAVQResizeEvent@@@Z 0045d67c     qt-mt323:qt-mt323.dll
 0002:00001680       __imp_?minimumSizeHint@QToolBar@@UBE?AVQSize@@XZ 0045d680     qt-mt323:qt-mt323.dll
 0002:00001684       __imp_?hide@QToolBar@@UAEXXZ 0045d684     qt-mt323:qt-mt323.dll
 0002:00001688       __imp_?show@QToolBar@@UAEXXZ 0045d688     qt-mt323:qt-mt323.dll
 0002:0000168c       __imp_?setMinimumSize@QToolBar@@UAEXHH@Z 0045d68c     qt-mt323:qt-mt323.dll
 0002:00001690       __imp_?event@QToolBar@@UAE_NPAVQEvent@@@Z 0045d690     qt-mt323:qt-mt323.dll
 0002:00001694       __imp_?qt_property@QToolBar@@UAE_NHHPAVQVariant@@@Z 0045d694     qt-mt323:qt-mt323.dll
 0002:00001698       __imp_?qt_emit@QToolBar@@UAE_NHPAUQUObject@@@Z 0045d698     qt-mt323:qt-mt323.dll
 0002:0000169c       __imp_?qt_invoke@QToolBar@@UAE_NHPAUQUObject@@@Z 0045d69c     qt-mt323:qt-mt323.dll
 0002:000016a0       __imp_?qt_cast@QToolBar@@UAEPAXPBD@Z 0045d6a0     qt-mt323:qt-mt323.dll
 0002:000016a4       __imp_?className@QToolBar@@UBEPBDXZ 0045d6a4     qt-mt323:qt-mt323.dll
 0002:000016a8       __imp_?metaObject@QToolBar@@UBEPAVQMetaObject@@XZ 0045d6a8     qt-mt323:qt-mt323.dll
 0002:000016ac       __imp_??0QAction@@QAE@ABVQString@@0VQKeySequence@@PAVQObject@@PBD_N@Z 0045d6ac     qt-mt323:qt-mt323.dll
 0002:000016b0       __imp_?look_string@QGDict@@QAEPAXABVQString@@PAXH@Z 0045d6b0     qt-mt323:qt-mt323.dll
 0002:000016b4       __imp_??0QToolBar@@QAE@PAVQMainWindow@@PBD@Z 0045d6b4     qt-mt323:qt-mt323.dll
 0002:000016b8       __imp_??1QToolBar@@UAE@XZ  0045d6b8     qt-mt323:qt-mt323.dll
 0002:000016bc       __imp_?information@QMessageBox@@SAHPAVQWidget@@ABVQString@@1HHH@Z 0045d6bc     qt-mt323:qt-mt323.dll
 0002:000016c0       __imp_?upper@QString@@QBE?AV1@XZ 0045d6c0     qt-mt323:qt-mt323.dll
 0002:000016c4       __imp_?extension@QFileInfo@@QBE?AVQString@@_N@Z 0045d6c4     qt-mt323:qt-mt323.dll
 0002:000016c8       __imp_?dir@QFileInfo@@QBE?AVQDir@@_N@Z 0045d6c8     qt-mt323:qt-mt323.dll
 0002:000016cc       __imp_?canonicalPath@QDir@@UBE?AVQString@@XZ 0045d6cc     qt-mt323:qt-mt323.dll
 0002:000016d0       __imp_?isFile@QFileInfo@@QBE_NXZ 0045d6d0     qt-mt323:qt-mt323.dll
 0002:000016d4       __imp_?exists@QFile@@SA_NABVQString@@@Z 0045d6d4     qt-mt323:qt-mt323.dll
 0002:000016d8       __imp_?sender@QObject@@IAEPBV1@XZ 0045d6d8     qt-mt323:qt-mt323.dll
 0002:000016dc       __imp_?text@QMenuData@@QBE?AVQString@@H@Z 0045d6dc     qt-mt323:qt-mt323.dll
 0002:000016e0       __imp_?message@QStatusBar@@QAEXABVQString@@@Z 0045d6e0     qt-mt323:qt-mt323.dll
 0002:000016e4       __imp_?entryList@QDir@@UBE?AVQStringList@@HH@Z 0045d6e4     qt-mt323:qt-mt323.dll
 0002:000016e8       __imp_?name@QColor@@QBE?AVQString@@XZ 0045d6e8     qt-mt323:qt-mt323.dll
 0002:000016ec       __imp_??0QColor@@QAE@ABVQString@@@Z 0045d6ec     qt-mt323:qt-mt323.dll
 0002:000016f0       __imp_?text@QComboBox@@QBE?AVQString@@H@Z 0045d6f0     qt-mt323:qt-mt323.dll
 0002:000016f4       __imp_?count@QComboBox@@QBEHXZ 0045d6f4     qt-mt323:qt-mt323.dll
 0002:000016f8       __imp_?families@QFontDatabase@@QBE?AVQStringList@@XZ 0045d6f8     qt-mt323:qt-mt323.dll
 0002:000016fc       __imp_??0QFontDatabase@@QAE@XZ 0045d6fc     qt-mt323:qt-mt323.dll
 0002:00001700       __imp_?insertStringList@QComboBox@@QAEXABVQStringList@@H@Z 0045d700     qt-mt323:qt-mt323.dll
 0002:00001704       __imp_??4?$QValueList@VQString@@@@QAEAAV0@ABV0@@Z 0045d704     qt-mt323:qt-mt323.dll
 0002:00001708       __imp_?keys@QStyleFactory@@SA?AVQStringList@@XZ 0045d708     qt-mt323:qt-mt323.dll
 0002:0000170c       __imp_?main_widget@QApplication@@0PAVQWidget@@A 0045d70c     qt-mt323:qt-mt323.dll
 0002:00001710       __imp_?canDecode@QUriDrag@@SA_NPBVQMimeSource@@@Z 0045d710     qt-mt323:qt-mt323.dll
 0002:00001714       __imp_?decodeLocalFiles@QUriDrag@@SA_NPBVQMimeSource@@AAVQStringList@@@Z 0045d714     qt-mt323:qt-mt323.dll
 0002:00001718       __imp_??0?$QValueListIterator@VQString@@@@QAE@ABV0@@Z 0045d718     qt-mt323:qt-mt323.dll
 0002:0000171c       __imp_??1QObject@@UAE@XZ   0045d71c     qt-mt323:qt-mt323.dll
 0002:00001720       __imp_??0QObject@@QAE@PAV0@PBD@Z 0045d720     qt-mt323:qt-mt323.dll
 0002:00001724       __imp_?idAt@QMenuData@@QBEHH@Z 0045d724     qt-mt323:qt-mt323.dll
 0002:00001728       __imp_?count@QMenuData@@QBEIXZ 0045d728     qt-mt323:qt-mt323.dll
 0002:0000172c       __imp_?add@QToolTip@@SAXPAVQWidget@@ABVQString@@@Z 0045d72c     qt-mt323:qt-mt323.dll
 0002:00001730       __imp_?setMaximumWidth@QWidget@@QAEXH@Z 0045d730     qt-mt323:qt-mt323.dll
 0002:00001734       __imp_?setMinimumWidth@QWidget@@QAEXH@Z 0045d734     qt-mt323:qt-mt323.dll
 0002:00001738       __imp_?addSeparator@QToolBar@@QAEXXZ 0045d738     qt-mt323:qt-mt323.dll
 0002:0000173c       __imp_?section@QString@@QBE?AV1@DHHH@Z 0045d73c     qt-mt323:qt-mt323.dll
 0002:00001740       __imp_?split@QStringList@@SA?AV1@ABVQChar@@ABVQString@@_N@Z 0045d740     qt-mt323:qt-mt323.dll
 0002:00001744       __imp_??1?$QValueList@VQString@@@@QAE@XZ 0045d744     qt-mt323:qt-mt323.dll
 0002:00001748       __imp_?removeAndRebalance@QMapPrivateBase@@QAEPAUQMapNodeBase@@PAU2@AAPAU2@11@Z 0045d748     qt-mt323:qt-mt323.dll
 0002:0000174c       __imp_??0QStringList@@QAE@XZ 0045d74c     qt-mt323:qt-mt323.dll
 0002:00001750       __imp_?rebalance@QMapPrivateBase@@QAEXPAUQMapNodeBase@@AAPAU2@@Z 0045d750     qt-mt323:qt-mt323.dll
 0002:00001754       __imp_??1QTimer@@UAE@XZ    0045d754     qt-mt323:qt-mt323.dll
 0002:00001758       __imp_??0QTimer@@QAE@PAVQObject@@PBD@Z 0045d758     qt-mt323:qt-mt323.dll
 0002:0000175c       __imp_?drawPoint@QPainter@@QAEXHH@Z 0045d75c     qt-mt323:qt-mt323.dll
 0002:00001760       __imp_?childAt@QWidget@@QBEPAV1@ABVQPoint@@_N@Z 0045d760     qt-mt323:qt-mt323.dll
 0002:00001764       __imp_?value@QSpinBox@@QBEHXZ 0045d764     qt-mt323:qt-mt323.dll
 0002:00001768       __imp_??EQGListIterator@@IAEPAXXZ 0045d768     qt-mt323:qt-mt323.dll
 0002:0000176c       __imp_?stop@QTimer@@QAEXXZ 0045d76c     qt-mt323:qt-mt323.dll
 0002:00001770       __imp_?mapFromGlobal@QWidget@@QBE?AVQPoint@@ABV2@@Z 0045d770     qt-mt323:qt-mt323.dll
 0002:00001774       __imp_?start@QTimer@@QAEHH_N@Z 0045d774     qt-mt323:qt-mt323.dll
 0002:00001778       __imp_?doubleClickInterval@QApplication@@SAHXZ 0045d778     qt-mt323:qt-mt323.dll
 0002:0000177c       __imp_?canDecode@QTextDrag@@SA_NPBVQMimeSource@@@Z 0045d77c     qt-mt323:qt-mt323.dll
 0002:00001780       __imp_?clearFocus@QWidget@@QAEXXZ 0045d780     qt-mt323:qt-mt323.dll
 0002:00001784       __imp_??0QRect@@QAE@XZ     0045d784     qt-mt323:qt-mt323.dll
 0002:00001788       __imp_??0QPoint@@QAE@HH@Z  0045d788     qt-mt323:qt-mt323.dll
 0002:0000178c       __imp_?dirPath@QFileInfo@@QBE?AVQString@@_N@Z 0045d78c     qt-mt323:qt-mt323.dll
 0002:00001790       __imp_?setContent@QDomDocument@@QAE_NABVQString@@PAV2@PAH2@Z 0045d790     qt-mt323:qt-mt323.dll
 0002:00001794       __imp_?decode@QTextDrag@@SA_NPBVQMimeSource@@AAVQString@@@Z 0045d794     qt-mt323:qt-mt323.dll
 0002:00001798       __imp_?child@QObject@@QAEPAV1@PBD0_N@Z 0045d798     qt-mt323:qt-mt323.dll
 0002:0000179c       __imp_?geometry@QWidget@@QBEABVQRect@@XZ 0045d79c     qt-mt323:qt-mt323.dll
 0002:000017a0       __imp_??0QStringList@@QAE@ABV0@@Z 0045d7a0     qt-mt323:qt-mt323.dll
 0002:000017a4       __imp_??6QTextStream@@QAEAAV0@H@Z 0045d7a4     qt-mt323:qt-mt323.dll
 0002:000017a8       __imp_??4QStringList@@QAEAAV0@ABV0@@Z 0045d7a8     qt-mt323:qt-mt323.dll
 0002:000017ac       __imp_??1QObjectListIt@@QAE@XZ 0045d7ac     qt-mt323:qt-mt323.dll
 0002:000017b0       __imp_?toFirst@QGListIterator@@IAEPAXXZ 0045d7b0     qt-mt323:qt-mt323.dll
 0002:000017b4       __imp_?queryList@QObject@@QBEPAVQObjectList@@PBD0_N1@Z 0045d7b4     qt-mt323:qt-mt323.dll
 0002:000017b8       __imp_?installEventFilter@QObject@@QAEXPBV1@@Z 0045d7b8     qt-mt323:qt-mt323.dll
 0002:000017bc       __imp_?start@QProcess@@UAE_NPAVQStringList@@@Z 0045d7bc     qt-mt323:qt-mt323.dll
 0002:000017c0       __imp_?addArgument@QProcess@@UAEXABVQString@@@Z 0045d7c0     qt-mt323:qt-mt323.dll
 0002:000017c4       __imp_?startsWith@QString@@QBE_NABV1@@Z 0045d7c4     qt-mt323:qt-mt323.dll
 0002:000017c8       __imp_??1QProcess@@UAE@XZ  0045d7c8     qt-mt323:qt-mt323.dll
 0002:000017cc       __imp_?startsWith@QString@@QBE_NABV1@_N@Z 0045d7cc     qt-mt323:qt-mt323.dll
 0002:000017d0       __imp_?absPath@QDir@@UBE?AVQString@@XZ 0045d7d0     qt-mt323:qt-mt323.dll
 0002:000017d4       __imp_??0QProcess@@QAE@ABVQString@@PAVQObject@@PBD@Z 0045d7d4     qt-mt323:qt-mt323.dll
 0002:000017d8       __imp_?setHeight@QRect@@QAEXH@Z 0045d7d8     qt-mt323:qt-mt323.dll
 0002:000017dc       __imp_?setWidth@QRect@@QAEXH@Z 0045d7dc     qt-mt323:qt-mt323.dll
 0002:000017e0       __imp_?update@QWidget@@QAEXXZ 0045d7e0     qt-mt323:qt-mt323.dll
 0002:000017e4       __imp_?deleteItem@?$QPtrList@VQWidget@@@@EAEXPAX@Z 0045d7e4     qt-mt323:qt-mt323.dll
 0002:000017e8       __imp_?clear@?$QPtrList@VQWidget@@@@UAEXXZ 0045d7e8     qt-mt323:qt-mt323.dll
 0002:000017ec       __imp_?count@?$QPtrList@VQWidget@@@@UBEIXZ 0045d7ec     qt-mt323:qt-mt323.dll
 0002:000017f0       __imp_??0?$QPtrList@VQWidget@@@@QAE@ABV0@@Z 0045d7f0     qt-mt323:qt-mt323.dll
 0002:000017f4       __imp_?sort@QGList@@IAEXXZ 0045d7f4     qt-mt323:qt-mt323.dll
 0002:000017f8       __imp_??0QWidgetList@@QAE@ABV0@@Z 0045d7f8     qt-mt323:qt-mt323.dll
 0002:000017fc       __imp_??8@YA_NPBDABVQString@@@Z 0045d7fc     qt-mt323:qt-mt323.dll
 0002:00001800       __imp_?closeStdin@QProcess@@UAEXXZ 0045d800     qt-mt323:qt-mt323.dll
 0002:00001804       __imp_?writeToStdin@QProcess@@UAEXABV?$QMemArray@D@@@Z 0045d804     qt-mt323:qt-mt323.dll
 0002:00001808       __imp_?writeToStdin@QProcess@@UAEXABVQString@@@Z 0045d808     qt-mt323:qt-mt323.dll
 0002:0000180c       __imp_?readLineStderr@QProcess@@UAE?AVQString@@XZ 0045d80c     qt-mt323:qt-mt323.dll
 0002:00001810       __imp_?readLineStdout@QProcess@@UAE?AVQString@@XZ 0045d810     qt-mt323:qt-mt323.dll
 0002:00001814       __imp_?readStderr@QProcess@@UAE?AV?$QMemArray@D@@XZ 0045d814     qt-mt323:qt-mt323.dll
 0002:00001818       __imp_?readStdout@QProcess@@UAE?AV?$QMemArray@D@@XZ 0045d818     qt-mt323:qt-mt323.dll
 0002:0000181c       __imp_?launch@QProcess@@UAE_NABVQString@@PAVQStringList@@@Z 0045d81c     qt-mt323:qt-mt323.dll
 0002:00001820       __imp_?launch@QProcess@@UAE_NABV?$QMemArray@D@@PAVQStringList@@@Z 0045d820     qt-mt323:qt-mt323.dll
 0002:00001824       __imp_?setWorkingDirectory@QProcess@@UAEXABVQDir@@@Z 0045d824     qt-mt323:qt-mt323.dll
 0002:00001828       __imp_?setArguments@QProcess@@UAEXABVQStringList@@@Z 0045d828     qt-mt323:qt-mt323.dll
 0002:0000182c       __imp_?disconnectNotify@QProcess@@MAEXPBD@Z 0045d82c     qt-mt323:qt-mt323.dll
 0002:00001830       __imp_?connectNotify@QProcess@@MAEXPBD@Z 0045d830     qt-mt323:qt-mt323.dll
 0002:00001834       __imp_?qt_property@QProcess@@UAE_NHHPAVQVariant@@@Z 0045d834     qt-mt323:qt-mt323.dll
 0002:00001838       __imp_?qt_emit@QProcess@@UAE_NHPAUQUObject@@@Z 0045d838     qt-mt323:qt-mt323.dll
 0002:0000183c       __imp_?qt_invoke@QProcess@@UAE_NHPAUQUObject@@@Z 0045d83c     qt-mt323:qt-mt323.dll
 0002:00001840       __imp_?qt_cast@QProcess@@UAEPAXPBD@Z 0045d840     qt-mt323:qt-mt323.dll
 0002:00001844       __imp_?className@QProcess@@UBEPBDXZ 0045d844     qt-mt323:qt-mt323.dll
 0002:00001848       __imp_?metaObject@QProcess@@UBEPAVQMetaObject@@XZ 0045d848     qt-mt323:qt-mt323.dll
 0002:0000184c       __imp_??0QProcess@@QAE@PAVQObject@@PBD@Z 0045d84c     qt-mt323:qt-mt323.dll
 0002:00001850       __imp_?question@QMessageBox@@SAHPAVQWidget@@ABVQString@@1HHH@Z 0045d850     qt-mt323:qt-mt323.dll
 0002:00001854       __imp_?grep@QStringList@@QBE?AV1@ABVQString@@_N@Z 0045d854     qt-mt323:qt-mt323.dll
 0002:00001858       __imp_?exitStatus@QProcess@@QBEHXZ 0045d858     qt-mt323:qt-mt323.dll
 0002:0000185c       __imp_??H@YA?BVQString@@ABV0@D@Z 0045d85c     qt-mt323:qt-mt323.dll
 0002:00001860       __imp_?lower@QWidget@@QAEXXZ 0045d860     qt-mt323:qt-mt323.dll
 0002:00001864       __imp_?toUInt@QString@@QBEIPA_NH@Z 0045d864     qt-mt323:qt-mt323.dll
 0002:00001868       __imp_?setText@QClipboard@@QAEXABVQString@@W4Mode@1@@Z 0045d868     qt-mt323:qt-mt323.dll
 0002:0000186c       __imp_?join@QStringList@@QBE?AVQString@@ABV2@@Z 0045d86c     qt-mt323:qt-mt323.dll
 0002:00001870       __imp_?setTabOrder@QWidget@@SAXPAV1@0@Z 0045d870     qt-mt323:qt-mt323.dll
 0002:00001874       __imp_?stepChange@QRangeControl@@MAEXXZ 0045d874     qt-mt323:qt-mt323.dll
 0002:00001878       __imp_?rangeChange@QSpinBox@@MAEXXZ 0045d878     qt-mt323:qt-mt323.dll
 0002:0000187c       __imp_?valueChange@QSpinBox@@MAEXXZ 0045d87c     qt-mt323:qt-mt323.dll
 0002:00001880       __imp_?interpretText@QSpinBox@@MAEXXZ 0045d880     qt-mt323:qt-mt323.dll
 0002:00001884       __imp_?updateDisplay@QSpinBox@@MAEXXZ 0045d884     qt-mt323:qt-mt323.dll
 0002:00001888       __imp_?mapTextToValue@QSpinBox@@MAEHPA_N@Z 0045d888     qt-mt323:qt-mt323.dll
 0002:0000188c       __imp_?mapValueToText@QSpinBox@@MAE?AVQString@@H@Z 0045d88c     qt-mt323:qt-mt323.dll
 0002:00001890       __imp_?selectAll@QSpinBox@@UAEXXZ 0045d890     qt-mt323:qt-mt323.dll
 0002:00001894       __imp_?stepDown@QSpinBox@@UAEXXZ 0045d894     qt-mt323:qt-mt323.dll
 0002:00001898       __imp_?stepUp@QSpinBox@@UAEXXZ 0045d898     qt-mt323:qt-mt323.dll
 0002:0000189c       __imp_?setSuffix@QSpinBox@@UAEXABVQString@@@Z 0045d89c     qt-mt323:qt-mt323.dll
 0002:000018a0       __imp_?setPrefix@QSpinBox@@UAEXABVQString@@@Z 0045d8a0     qt-mt323:qt-mt323.dll
 0002:000018a4       __imp_?setValue@QSpinBox@@UAEXH@Z 0045d8a4     qt-mt323:qt-mt323.dll
 0002:000018a8       __imp_?setValidator@QSpinBox@@UAEXPBVQValidator@@@Z 0045d8a8     qt-mt323:qt-mt323.dll
 0002:000018ac       __imp_?setButtonSymbols@QSpinBox@@UAEXW4ButtonSymbols@1@@Z 0045d8ac     qt-mt323:qt-mt323.dll
 0002:000018b0       __imp_?setWrapping@QSpinBox@@UAEX_N@Z 0045d8b0     qt-mt323:qt-mt323.dll
 0002:000018b4       __imp_?setSpecialValueText@QSpinBox@@UAEXABVQString@@@Z 0045d8b4     qt-mt323:qt-mt323.dll
 0002:000018b8       __imp_?cleanText@QSpinBox@@UBE?AVQString@@XZ 0045d8b8     qt-mt323:qt-mt323.dll
 0002:000018bc       __imp_?suffix@QSpinBox@@UBE?AVQString@@XZ 0045d8bc     qt-mt323:qt-mt323.dll
 0002:000018c0       __imp_?prefix@QSpinBox@@UBE?AVQString@@XZ 0045d8c0     qt-mt323:qt-mt323.dll
 0002:000018c4       __imp_?styleChange@QSpinBox@@MAEXAAVQStyle@@@Z 0045d8c4     qt-mt323:qt-mt323.dll
 0002:000018c8       __imp_?resizeEvent@QSpinBox@@MAEXPAVQResizeEvent@@@Z 0045d8c8     qt-mt323:qt-mt323.dll
 0002:000018cc       __imp_?leaveEvent@QSpinBox@@MAEXPAVQEvent@@@Z 0045d8cc     qt-mt323:qt-mt323.dll
 0002:000018d0       __imp_?wheelEvent@QSpinBox@@MAEXPAVQWheelEvent@@@Z 0045d8d0     qt-mt323:qt-mt323.dll
 0002:000018d4       __imp_?minimumSizeHint@QSpinBox@@UBE?AVQSize@@XZ 0045d8d4     qt-mt323:qt-mt323.dll
 0002:000018d8       __imp_?sizeHint@QSpinBox@@UBE?AVQSize@@XZ 0045d8d8     qt-mt323:qt-mt323.dll
 0002:000018dc       __imp_?setEnabled@QSpinBox@@UAEX_N@Z 0045d8dc     qt-mt323:qt-mt323.dll
 0002:000018e0       __imp_?eventFilter@QSpinBox@@MAE_NPAVQObject@@PAVQEvent@@@Z 0045d8e0     qt-mt323:qt-mt323.dll
 0002:000018e4       __imp_?qt_property@QSpinBox@@UAE_NHHPAVQVariant@@@Z 0045d8e4     qt-mt323:qt-mt323.dll
 0002:000018e8       __imp_?qt_emit@QSpinBox@@UAE_NHPAUQUObject@@@Z 0045d8e8     qt-mt323:qt-mt323.dll
 0002:000018ec       __imp_?qt_invoke@QSpinBox@@UAE_NHPAUQUObject@@@Z 0045d8ec     qt-mt323:qt-mt323.dll
 0002:000018f0       __imp_?qt_cast@QSpinBox@@UAEPAXPBD@Z 0045d8f0     qt-mt323:qt-mt323.dll
 0002:000018f4       __imp_?className@QSpinBox@@UBEPBDXZ 0045d8f4     qt-mt323:qt-mt323.dll
 0002:000018f8       __imp_?metaObject@QSpinBox@@UBEPAVQMetaObject@@XZ 0045d8f8     qt-mt323:qt-mt323.dll
 0002:000018fc       __imp_?event@QGroupBox@@MAE_NPAVQEvent@@@Z 0045d8fc     qt-mt323:qt-mt323.dll
 0002:00001900       __imp_?qt_property@QGroupBox@@UAE_NHHPAVQVariant@@@Z 0045d900     qt-mt323:qt-mt323.dll
 0002:00001904       __imp_?qt_emit@QGroupBox@@UAE_NHPAUQUObject@@@Z 0045d904     qt-mt323:qt-mt323.dll
 0002:00001908       __imp_?qt_invoke@QGroupBox@@UAE_NHPAUQUObject@@@Z 0045d908     qt-mt323:qt-mt323.dll
 0002:0000190c       __imp_?qt_cast@QGroupBox@@UAEPAXPBD@Z 0045d90c     qt-mt323:qt-mt323.dll
 0002:00001910       __imp_?className@QGroupBox@@UBEPBDXZ 0045d910     qt-mt323:qt-mt323.dll
 0002:00001914       __imp_?metaObject@QGroupBox@@UBEPAVQMetaObject@@XZ 0045d914     qt-mt323:qt-mt323.dll
 0002:00001918       __imp_??0QSpinBox@@QAE@PAVQWidget@@PBD@Z 0045d918     qt-mt323:qt-mt323.dll
 0002:0000191c       __imp_??0QHBoxLayout@@QAE@PAVQLayout@@HPBD@Z 0045d91c     qt-mt323:qt-mt323.dll
 0002:00001920       __imp_??0QGroupBox@@QAE@PAVQWidget@@PBD@Z 0045d920     qt-mt323:qt-mt323.dll
 0002:00001924       __imp_??1QGroupBox@@UAE@XZ 0045d924     qt-mt323:qt-mt323.dll
 0002:00001928       __imp_??1QSpinBox@@UAE@XZ  0045d928     qt-mt323:qt-mt323.dll
 0002:0000192c       __imp_?iterator@QGridLayout@@UAE?AVQLayoutIterator@@XZ 0045d92c     qt-mt323:qt-mt323.dll
 0002:00001930       __imp_?invalidate@QGridLayout@@UAEXXZ 0045d930     qt-mt323:qt-mt323.dll
 0002:00001934       __imp_?heightForWidth@QGridLayout@@UBEHH@Z 0045d934     qt-mt323:qt-mt323.dll
 0002:00001938       __imp_?hasHeightForWidth@QGridLayout@@UBE_NXZ 0045d938     qt-mt323:qt-mt323.dll
 0002:0000193c       __imp_?setGeometry@QGridLayout@@UAEXABVQRect@@@Z 0045d93c     qt-mt323:qt-mt323.dll
 0002:00001940       __imp_?expanding@QGridLayout@@UBE?AW4ExpandData@QSizePolicy@@XZ 0045d940     qt-mt323:qt-mt323.dll
 0002:00001944       __imp_?maximumSize@QGridLayout@@UBE?AVQSize@@XZ 0045d944     qt-mt323:qt-mt323.dll
 0002:00001948       __imp_?minimumSize@QGridLayout@@UBE?AVQSize@@XZ 0045d948     qt-mt323:qt-mt323.dll
 0002:0000194c       __imp_?sizeHint@QGridLayout@@UBE?AVQSize@@XZ 0045d94c     qt-mt323:qt-mt323.dll
 0002:00001950       __imp_?setColStretch@QGridLayout@@UAEXHH@Z 0045d950     qt-mt323:qt-mt323.dll
 0002:00001954       __imp_?setRowStretch@QGridLayout@@UAEXHH@Z 0045d954     qt-mt323:qt-mt323.dll
 0002:00001958       __imp_?addItem@QGridLayout@@UAEXPAVQLayoutItem@@@Z 0045d958     qt-mt323:qt-mt323.dll
 0002:0000195c       __imp_?qt_property@QGridLayout@@UAE_NHHPAVQVariant@@@Z 0045d95c     qt-mt323:qt-mt323.dll
 0002:00001960       __imp_?qt_emit@QGridLayout@@UAE_NHPAUQUObject@@@Z 0045d960     qt-mt323:qt-mt323.dll
 0002:00001964       __imp_?qt_invoke@QGridLayout@@UAE_NHPAUQUObject@@@Z 0045d964     qt-mt323:qt-mt323.dll
 0002:00001968       __imp_?qt_cast@QGridLayout@@UAEPAXPBD@Z 0045d968     qt-mt323:qt-mt323.dll
 0002:0000196c       __imp_?className@QGridLayout@@UBEPBDXZ 0045d96c     qt-mt323:qt-mt323.dll
 0002:00001970       __imp_?metaObject@QGridLayout@@UBEPAVQMetaObject@@XZ 0045d970     qt-mt323:qt-mt323.dll
 0002:00001974       __imp_?addWidget@QGridLayout@@QAEXPAVQWidget@@HHH@Z 0045d974     qt-mt323:qt-mt323.dll
 0002:00001978       __imp_??0QGridLayout@@QAE@PAVQWidget@@HHHHPBD@Z 0045d978     qt-mt323:qt-mt323.dll
 0002:0000197c       __imp_??1QGridLayout@@UAE@XZ 0045d97c     qt-mt323:qt-mt323.dll
 0002:00001980       __imp_?add@QWhatsThis@@SAXPAVQWidget@@ABVQString@@@Z 0045d980     qt-mt323:qt-mt323.dll
 0002:00001984       __imp_?startDrag@QIconView@@MAEXXZ 0045d984     qt-mt323:qt-mt323.dll
 0002:00001988       __imp_?setDuplicatesEnabled@QComboBox@@QAEX_N@Z 0045d988     qt-mt323:qt-mt323.dll
 0002:0000198c       __imp_?addItem@QGridLayout@@QAEXPAVQLayoutItem@@HH@Z 0045d98c     qt-mt323:qt-mt323.dll
 0002:00001990       __imp_??0QGridLayout@@QAE@PAVQLayout@@HHHPBD@Z 0045d990     qt-mt323:qt-mt323.dll
 0002:00001994       __imp_?header@QListView@@QBEPAVQHeader@@XZ 0045d994     qt-mt323:qt-mt323.dll
 0002:00001998       __imp_?qt_property@QTextEdit@@UAE_NHHPAVQVariant@@@Z 0045d998     qt-mt323:qt-mt323.dll
 0002:0000199c       __imp_?qt_emit@QTextEdit@@UAE_NHPAUQUObject@@@Z 0045d99c     qt-mt323:qt-mt323.dll
 0002:000019a0       __imp_?qt_invoke@QTextEdit@@UAE_NHPAUQUObject@@@Z 0045d9a0     qt-mt323:qt-mt323.dll
 0002:000019a4       __imp_?qt_cast@QTextEdit@@UAEPAXPBD@Z 0045d9a4     qt-mt323:qt-mt323.dll
 0002:000019a8       __imp_?className@QTextEdit@@UBEPBDXZ 0045d9a8     qt-mt323:qt-mt323.dll
 0002:000019ac       __imp_?metaObject@QTextEdit@@UBEPAVQMetaObject@@XZ 0045d9ac     qt-mt323:qt-mt323.dll
 0002:000019b0       __imp_??0QMetaObjectCleanUp@@QAE@PBDP6APAVQMetaObject@@XZ@Z 0045d9b0     qt-mt323:qt-mt323.dll
 0002:000019b4       __imp_??1QMetaObjectCleanUp@@QAE@XZ 0045d9b4     qt-mt323:qt-mt323.dll
 0002:000019b8       __imp_?fromLatin1@QString@@SA?AV1@PBDH@Z 0045d9b8     qt-mt323:qt-mt323.dll
 0002:000019bc       __imp_?translate@QApplication@@QBE?AVQString@@PBD00W4Encoding@1@@Z 0045d9bc     qt-mt323:qt-mt323.dll
 0002:000019c0       __imp_?setMetaObject@QMetaObjectCleanUp@@QAEXAAPAVQMetaObject@@@Z 0045d9c0     qt-mt323:qt-mt323.dll
 0002:000019c4       __imp_?new_metaobject@QMetaObject@@SAPAV1@PBDPAV1@QBUQMetaData@@H2HQBVQMetaProperty@@HQBUQMetaEnum@@HQBUQClassInfo@@H@Z 0045d9c4     qt-mt323:qt-mt323.dll
 0002:000019c8       __imp_?static_QUType_bool@@3UQUType_bool@@A 0045d9c8     qt-mt323:qt-mt323.dll
 0002:000019cc       __imp_?static_QUType_int@@3UQUType_int@@A 0045d9cc     qt-mt323:qt-mt323.dll
 0002:000019d0       __imp_?static_QUType_varptr@@3UQUType_varptr@@A 0045d9d0     qt-mt323:qt-mt323.dll
 0002:000019d4       __imp_?static_QUType_ptr@@3UQUType_ptr@@A 0045d9d4     qt-mt323:qt-mt323.dll
 0002:000019d8       __imp_?staticMetaObject@QListView@@SAPAVQMetaObject@@XZ 0045d9d8     qt-mt323:qt-mt323.dll
 0002:000019dc       __imp_?staticMetaObject@QDialog@@SAPAVQMetaObject@@XZ 0045d9dc     qt-mt323:qt-mt323.dll
 0002:000019e0       __imp_?qt_cast@QDialog@@UAEPAXPBD@Z 0045d9e0     qt-mt323:qt-mt323.dll
 0002:000019e4       __imp_?qt_invoke@QDialog@@UAE_NHPAUQUObject@@@Z 0045d9e4     qt-mt323:qt-mt323.dll
 0002:000019e8       __imp_?qt_emit@QDialog@@UAE_NHPAUQUObject@@@Z 0045d9e8     qt-mt323:qt-mt323.dll
 0002:000019ec       __imp_?qt_property@QDialog@@UAE_NHHPAVQVariant@@@Z 0045d9ec     qt-mt323:qt-mt323.dll
 0002:000019f0       __imp_?activate_signal@QObject@@IAEXPAVQConnectionList@@PAUQUObject@@@Z 0045d9f0     qt-mt323:qt-mt323.dll
 0002:000019f4       __imp_?set@QUType_ptr@@QAEXPAUQUObject@@PBX@Z 0045d9f4     qt-mt323:qt-mt323.dll
 0002:000019f8       __imp_??0QUObject@@QAE@XZ  0045d9f8     qt-mt323:qt-mt323.dll
 0002:000019fc       __imp_??1QUObject@@QAE@XZ  0045d9fc     qt-mt323:qt-mt323.dll
 0002:00001a00       __imp_?receivers@QObject@@IBEPAVQConnectionList@@H@Z 0045da00     qt-mt323:qt-mt323.dll
 0002:00001a04       __imp_?static_QUType_QString@@3UQUType_QString@@A 0045da04     qt-mt323:qt-mt323.dll
 0002:00001a08       __imp_?staticMetaObject@QScrollView@@SAPAVQMetaObject@@XZ 0045da08     qt-mt323:qt-mt323.dll
 0002:00001a0c       __imp_?qt_cast@QScrollView@@UAEPAXPBD@Z 0045da0c     qt-mt323:qt-mt323.dll
 0002:00001a10       __imp_?qt_invoke@QScrollView@@UAE_NHPAUQUObject@@@Z 0045da10     qt-mt323:qt-mt323.dll
 0002:00001a14       __imp_?qt_emit@QScrollView@@UAE_NHPAUQUObject@@@Z 0045da14     qt-mt323:qt-mt323.dll
 0002:00001a18       __imp_?qt_property@QScrollView@@UAE_NHHPAVQVariant@@@Z 0045da18     qt-mt323:qt-mt323.dll
 0002:00001a1c       __imp_?staticMetaObject@QWidget@@SAPAVQMetaObject@@XZ 0045da1c     qt-mt323:qt-mt323.dll
 0002:00001a20       __imp_?set@QUType_varptr@@QAEXPAUQUObject@@PBX@Z 0045da20     qt-mt323:qt-mt323.dll
 0002:00001a24       __imp_?activate_signal@QObject@@IAEXHVQString@@@Z 0045da24     qt-mt323:qt-mt323.dll
 0002:00001a28       __imp_?signalOffset@QMetaObject@@QBEHXZ 0045da28     qt-mt323:qt-mt323.dll
 0002:00001a2c       __imp_?set@QUType_QString@@QAEXPAUQUObject@@ABVQString@@@Z 0045da2c     qt-mt323:qt-mt323.dll
 0002:00001a30       __imp_?staticMetaObject@QTable@@SAPAVQMetaObject@@XZ 0045da30     qt-mt323:qt-mt323.dll
 0002:00001a34       __imp_?qt_cast@QTable@@UAEPAXPBD@Z 0045da34     qt-mt323:qt-mt323.dll
 0002:00001a38       __imp_?activate_signal_bool@QObject@@IAEXH_N@Z 0045da38     qt-mt323:qt-mt323.dll
 0002:00001a3c       __imp_?qt_invoke@QTable@@UAE_NHPAUQUObject@@@Z 0045da3c     qt-mt323:qt-mt323.dll
 0002:00001a40       __imp_?qt_emit@QTable@@UAE_NHPAUQUObject@@@Z 0045da40     qt-mt323:qt-mt323.dll
 0002:00001a44       __imp_?qt_property@QTable@@UAE_NHHPAVQVariant@@@Z 0045da44     qt-mt323:qt-mt323.dll
 0002:00001a48       __imp_?staticMetaObject@QSplitter@@SAPAVQMetaObject@@XZ 0045da48     qt-mt323:qt-mt323.dll
 0002:00001a4c       __imp_?qt_cast@QSplitter@@UAEPAXPBD@Z 0045da4c     qt-mt323:qt-mt323.dll
 0002:00001a50       __imp_?qt_invoke@QSplitter@@UAE_NHPAUQUObject@@@Z 0045da50     qt-mt323:qt-mt323.dll
 0002:00001a54       __imp_?qt_emit@QSplitter@@UAE_NHPAUQUObject@@@Z 0045da54     qt-mt323:qt-mt323.dll
 0002:00001a58       __imp_?qt_property@QSplitter@@UAE_NHHPAVQVariant@@@Z 0045da58     qt-mt323:qt-mt323.dll
 0002:00001a5c       __imp_?staticMetaObject@QTextEdit@@SAPAVQMetaObject@@XZ 0045da5c     qt-mt323:qt-mt323.dll
 0002:00001a60       __imp_?staticMetaObject@QMainWindow@@SAPAVQMetaObject@@XZ 0045da60     qt-mt323:qt-mt323.dll
 0002:00001a64       __imp_?qt_cast@QMainWindow@@UAEPAXPBD@Z 0045da64     qt-mt323:qt-mt323.dll
 0002:00001a68       __imp_?activate_signal@QObject@@IAEXH@Z 0045da68     qt-mt323:qt-mt323.dll
 0002:00001a6c       __imp_?qt_invoke@QMainWindow@@UAE_NHPAUQUObject@@@Z 0045da6c     qt-mt323:qt-mt323.dll
 0002:00001a70       __imp_?get@QUType_QString@@QAEAAVQString@@PAUQUObject@@@Z 0045da70     qt-mt323:qt-mt323.dll
 0002:00001a74       __imp_?qt_emit@QMainWindow@@UAE_NHPAUQUObject@@@Z 0045da74     qt-mt323:qt-mt323.dll
 0002:00001a78       __imp_?qt_property@QMainWindow@@UAE_NHHPAVQVariant@@@Z 0045da78     qt-mt323:qt-mt323.dll
 0002:00001a7c       __imp_?staticMetaObject@QObject@@SAPAVQMetaObject@@XZ 0045da7c     qt-mt323:qt-mt323.dll
 0002:00001a80       __imp_?qt_cast@QObject@@UAEPAXPBD@Z 0045da80     qt-mt323:qt-mt323.dll
 0002:00001a84       __imp_?qt_invoke@QObject@@UAE_NHPAUQUObject@@@Z 0045da84     qt-mt323:qt-mt323.dll
 0002:00001a88       __imp_?qt_emit@QObject@@UAE_NHPAUQUObject@@@Z 0045da88     qt-mt323:qt-mt323.dll
 0002:00001a8c       __imp_?qt_property@QObject@@UAE_NHHPAVQVariant@@@Z 0045da8c     qt-mt323:qt-mt323.dll
 0002:00001a90       __imp_?activate_signal@QObject@@IAEXHH@Z 0045da90     qt-mt323:qt-mt323.dll
 0002:00001a94       __imp_?set@QUType_bool@@QAEXPAUQUObject@@_N@Z 0045da94     qt-mt323:qt-mt323.dll
 0002:00001a98       __imp_?paintCell@QListBox@@MAEXPAVQPainter@@HH@Z 0045da98     qt-mt323:qt-mt323.dll
 0002:00001a9c       __imp_?invertSelection@QListBox@@UAEXXZ 0045da9c     qt-mt323:qt-mt323.dll
 0002:00001aa0       __imp_?selectAll@QListBox@@UAEX_N@Z 0045daa0     qt-mt323:qt-mt323.dll
 0002:00001aa4       __imp_?clearSelection@QListBox@@UAEXXZ 0045daa4     qt-mt323:qt-mt323.dll
 0002:00001aa8       __imp_?ensureCurrentVisible@QListBox@@UAEXXZ 0045daa8     qt-mt323:qt-mt323.dll
 0002:00001aac       __imp_?setVariableHeight@QListBox@@UAEX_N@Z 0045daac     qt-mt323:qt-mt323.dll
 0002:00001ab0       __imp_?setVariableWidth@QListBox@@UAEX_N@Z 0045dab0     qt-mt323:qt-mt323.dll
 0002:00001ab4       __imp_?setRowMode@QListBox@@UAEXW4LayoutMode@1@@Z 0045dab4     qt-mt323:qt-mt323.dll
 0002:00001ab8       __imp_?setRowMode@QListBox@@UAEXH@Z 0045dab8     qt-mt323:qt-mt323.dll
 0002:00001abc       __imp_?setColumnMode@QListBox@@UAEXW4LayoutMode@1@@Z 0045dabc     qt-mt323:qt-mt323.dll
 0002:00001ac0       __imp_?setColumnMode@QListBox@@UAEXH@Z 0045dac0     qt-mt323:qt-mt323.dll
 0002:00001ac4       __imp_?setSelected@QListBox@@UAEXPAVQListBoxItem@@_N@Z 0045dac4     qt-mt323:qt-mt323.dll
 0002:00001ac8       __imp_?setSelectionMode@QListBox@@UAEXW4SelectionMode@1@@Z 0045dac8     qt-mt323:qt-mt323.dll
 0002:00001acc       __imp_?setBottomItem@QListBox@@UAEXH@Z 0045dacc     qt-mt323:qt-mt323.dll
 0002:00001ad0       __imp_?setTopItem@QListBox@@UAEXH@Z 0045dad0     qt-mt323:qt-mt323.dll
 0002:00001ad4       __imp_?setCurrentItem@QListBox@@UAEXH@Z 0045dad4     qt-mt323:qt-mt323.dll
 0002:00001ad8       __imp_?setCurrentItem@QListBox@@UAEXPAVQListBoxItem@@@Z 0045dad8     qt-mt323:qt-mt323.dll
 0002:00001adc       __imp_?viewportPaintEvent@QListBox@@UAEXPAVQPaintEvent@@@Z 0045dadc     qt-mt323:qt-mt323.dll
 0002:00001ae0       __imp_?contentsContextMenuEvent@QListBox@@MAEXPAVQContextMenuEvent@@@Z 0045dae0     qt-mt323:qt-mt323.dll
 0002:00001ae4       __imp_?windowActivationChange@QListBox@@MAEX_N@Z 0045dae4     qt-mt323:qt-mt323.dll
 0002:00001ae8       __imp_?showEvent@QListBox@@MAEXPAVQShowEvent@@@Z 0045dae8     qt-mt323:qt-mt323.dll
 0002:00001aec       __imp_?resizeEvent@QListBox@@MAEXPAVQResizeEvent@@@Z 0045daec     qt-mt323:qt-mt323.dll
 0002:00001af0       __imp_?focusOutEvent@QListBox@@MAEXPAVQFocusEvent@@@Z 0045daf0     qt-mt323:qt-mt323.dll
 0002:00001af4       __imp_?focusInEvent@QListBox@@MAEXPAVQFocusEvent@@@Z 0045daf4     qt-mt323:qt-mt323.dll
 0002:00001af8       __imp_?keyPressEvent@QListBox@@MAEXPAVQKeyEvent@@@Z 0045daf8     qt-mt323:qt-mt323.dll
 0002:00001afc       __imp_?mouseMoveEvent@QListBox@@MAEXPAVQMouseEvent@@@Z 0045dafc     qt-mt323:qt-mt323.dll
 0002:00001b00       __imp_?mouseDoubleClickEvent@QListBox@@MAEXPAVQMouseEvent@@@Z 0045db00     qt-mt323:qt-mt323.dll
 0002:00001b04       __imp_?mouseReleaseEvent@QListBox@@MAEXPAVQMouseEvent@@@Z 0045db04     qt-mt323:qt-mt323.dll
 0002:00001b08       __imp_?mousePressEvent@QListBox@@MAEXPAVQMouseEvent@@@Z 0045db08     qt-mt323:qt-mt323.dll
 0002:00001b0c       __imp_?minimumSizeHint@QListBox@@UBE?AVQSize@@XZ 0045db0c     qt-mt323:qt-mt323.dll
 0002:00001b10       __imp_?sizeHint@QListBox@@UBE?AVQSize@@XZ 0045db10     qt-mt323:qt-mt323.dll
 0002:00001b14       __imp_?setFont@QListBox@@UAEXABVQFont@@@Z 0045db14     qt-mt323:qt-mt323.dll
 0002:00001b18       __imp_?eventFilter@QListBox@@MAE_NPAVQObject@@PAVQEvent@@@Z 0045db18     qt-mt323:qt-mt323.dll
 0002:00001b1c       __imp_?qt_property@QListBox@@UAE_NHHPAVQVariant@@@Z 0045db1c     qt-mt323:qt-mt323.dll
 0002:00001b20       __imp_?qt_emit@QListBox@@UAE_NHPAUQUObject@@@Z 0045db20     qt-mt323:qt-mt323.dll
 0002:00001b24       __imp_?qt_invoke@QListBox@@UAE_NHPAUQUObject@@@Z 0045db24     qt-mt323:qt-mt323.dll
 0002:00001b28       __imp_?qt_cast@QListBox@@UAEPAXPBD@Z 0045db28     qt-mt323:qt-mt323.dll
 0002:00001b2c       __imp_?className@QListBox@@UBEPBDXZ 0045db2c     qt-mt323:qt-mt323.dll
 0002:00001b30       __imp_?metaObject@QListBox@@UBEPAVQMetaObject@@XZ 0045db30     qt-mt323:qt-mt323.dll
 0002:00001b34       __imp_??0QListBox@@QAE@PAVQWidget@@PBDI@Z 0045db34     qt-mt323:qt-mt323.dll
 0002:00001b38       __imp_??1QListBox@@UAE@XZ  0045db38     qt-mt323:qt-mt323.dll
 0002:00001b3c       __imp_??0QPixmap@@QAE@XZ   0045db3c     qt-mt323:qt-mt323.dll
 0002:00001b40       __imp_?insertItem@QListBox@@QAEXABVQPixmap@@ABVQString@@H@Z 0045db40     qt-mt323:qt-mt323.dll
 0002:00001b44       __imp_?local8Bit@QString@@QBE?AVQCString@@XZ 0045db44     qt-mt323:qt-mt323.dll
 0002:00001b48       __imp_?ucs2@QString@@QBEPBGXZ 0045db48     qt-mt323:qt-mt323.dll
 0002:00001b4c       __imp_?winEventFilter@QApplication@@UAE_NPAUtagMSG@@@Z 0045db4c     qt-mt323:qt-mt323.dll
 0002:00001b50       __imp_?fromUcs2@QString@@SA?AV1@PBG@Z 0045db50     qt-mt323:qt-mt323.dll
 0002:00001b54       __imp_?saveState@QApplication@@UAEXAAVQSessionManager@@@Z 0045db54     qt-mt323:qt-mt323.dll
 0002:00001b58       __imp_?commitData@QApplication@@UAEXAAVQSessionManager@@@Z 0045db58     qt-mt323:qt-mt323.dll
 0002:00001b5c       __imp_?notify@QApplication@@UAE_NPAVQObject@@PAVQEvent@@@Z 0045db5c     qt-mt323:qt-mt323.dll
 0002:00001b60       __imp_?polish@QApplication@@UAEXPAVQWidget@@@Z 0045db60     qt-mt323:qt-mt323.dll
 0002:00001b64       __imp_?event@QApplication@@MAE_NPAVQEvent@@@Z 0045db64     qt-mt323:qt-mt323.dll
 0002:00001b68       __imp_??1QApplication@@UAE@XZ 0045db68     qt-mt323:qt-mt323.dll
 0002:00001b6c       __imp_??0QApplication@@QAE@AAHPAPADW4Type@0@@Z 0045db6c     qt-mt323:qt-mt323.dll
 0002:00001b70       __imp_?staticMetaObject@QApplication@@SAPAVQMetaObject@@XZ 0045db70     qt-mt323:qt-mt323.dll
 0002:00001b74       __imp_?qt_cast@QApplication@@UAEPAXPBD@Z 0045db74     qt-mt323:qt-mt323.dll
 0002:00001b78       __imp_?qt_invoke@QApplication@@UAE_NHPAUQUObject@@@Z 0045db78     qt-mt323:qt-mt323.dll
 0002:00001b7c       __imp_?qt_emit@QApplication@@UAE_NHPAUQUObject@@@Z 0045db7c     qt-mt323:qt-mt323.dll
 0002:00001b80       __imp_?qt_property@QApplication@@UAE_NHHPAVQVariant@@@Z 0045db80     qt-mt323:qt-mt323.dll
 0002:00001b84       __imp_??YQString@@QAEAAV0@PBD@Z 0045db84     qt-mt323:qt-mt323.dll
 0002:00001b88       __imp_??8@YA_NABVQString@@PBD@Z 0045db88     qt-mt323:qt-mt323.dll
 0002:00001b8c       __imp_??4QString@@QAEAAV0@ABV0@@Z 0045db8c     qt-mt323:qt-mt323.dll
 0002:00001b90       __imp_?hasAttribute@QDomElement@@QBE_NABVQString@@@Z 0045db90     qt-mt323:qt-mt323.dll
 0002:00001b94       __imp_?replace@QString@@QAEAAV1@ABV1@0@Z 0045db94     qt-mt323:qt-mt323.dll
 0002:00001b98       __imp_??0QTextDrag@@QAE@ABVQString@@PAVQWidget@@PBD@Z 0045db98     qt-mt323:qt-mt323.dll
 0002:00001b9c       __imp_?dragCopy@QDragObject@@QAEXXZ 0045db9c     qt-mt323:qt-mt323.dll
 0002:00001ba0       __imp_??1QString@@QAE@XZ   0045dba0     qt-mt323:qt-mt323.dll
 0002:00001ba4       __imp_?metaObject@QTextDrag@@UBEPAVQMetaObject@@XZ 0045dba4     qt-mt323:qt-mt323.dll
 0002:00001ba8       __imp_?className@QTextDrag@@UBEPBDXZ 0045dba8     qt-mt323:qt-mt323.dll
 0002:00001bac       __imp_?qt_cast@QTextDrag@@UAEPAXPBD@Z 0045dbac     qt-mt323:qt-mt323.dll
 0002:00001bb0       __imp_?qt_invoke@QTextDrag@@UAE_NHPAUQUObject@@@Z 0045dbb0     qt-mt323:qt-mt323.dll
 0002:00001bb4       __imp_?qt_emit@QTextDrag@@UAE_NHPAUQUObject@@@Z 0045dbb4     qt-mt323:qt-mt323.dll
 0002:00001bb8       __imp_?qt_property@QTextDrag@@UAE_NHHPAVQVariant@@@Z 0045dbb8     qt-mt323:qt-mt323.dll
 0002:00001bbc       __imp_?event@QObject@@UAE_NPAVQEvent@@@Z 0045dbbc     qt-mt323:qt-mt323.dll
 0002:00001bc0       __imp_?eventFilter@QObject@@UAE_NPAV1@PAVQEvent@@@Z 0045dbc0     qt-mt323:qt-mt323.dll
 0002:00001bc4       __imp_?setName@QObject@@UAEXPBD@Z 0045dbc4     qt-mt323:qt-mt323.dll
 0002:00001bc8       __imp_?insertChild@QObject@@UAEXPAV1@@Z 0045dbc8     qt-mt323:qt-mt323.dll
 0002:00001bcc       __imp_?removeChild@QObject@@UAEXPAV1@@Z 0045dbcc     qt-mt323:qt-mt323.dll
 0002:00001bd0       __imp_?setProperty@QObject@@UAE_NPBDABVQVariant@@@Z 0045dbd0     qt-mt323:qt-mt323.dll
 0002:00001bd4       __imp_?property@QObject@@UBE?AVQVariant@@PBD@Z 0045dbd4     qt-mt323:qt-mt323.dll
 0002:00001bd8       __imp_?timerEvent@QObject@@MAEXPAVQTimerEvent@@@Z 0045dbd8     qt-mt323:qt-mt323.dll
 0002:00001bdc       __imp_?childEvent@QObject@@MAEXPAVQChildEvent@@@Z 0045dbdc     qt-mt323:qt-mt323.dll
 0002:00001be0       __imp_?customEvent@QObject@@MAEXPAVQCustomEvent@@@Z 0045dbe0     qt-mt323:qt-mt323.dll
 0002:00001be4       __imp_?connectNotify@QObject@@MAEXPBD@Z 0045dbe4     qt-mt323:qt-mt323.dll
 0002:00001be8       __imp_?disconnectNotify@QObject@@MAEXPBD@Z 0045dbe8     qt-mt323:qt-mt323.dll
 0002:00001bec       __imp_?checkConnectArgs@QObject@@MAE_NPBDPBV1@0@Z 0045dbec     qt-mt323:qt-mt323.dll
 0002:00001bf0       __imp_?drag@QDragObject@@MAE_NW4DragMode@1@@Z 0045dbf0     qt-mt323:qt-mt323.dll
 0002:00001bf4       __imp_?setPixmap@QDragObject@@UAEXVQPixmap@@ABVQPoint@@@Z 0045dbf4     qt-mt323:qt-mt323.dll
 0002:00001bf8       __imp_?setPixmap@QDragObject@@UAEXVQPixmap@@@Z 0045dbf8     qt-mt323:qt-mt323.dll
 0002:00001bfc       __imp_?setText@QTextDrag@@UAEXABVQString@@@Z 0045dbfc     qt-mt323:qt-mt323.dll
 0002:00001c00       __imp_?setSubtype@QTextDrag@@UAEXABVQCString@@@Z 0045dc00     qt-mt323:qt-mt323.dll
 0002:00001c04       __imp_?format@QTextDrag@@UBEPBDH@Z 0045dc04     qt-mt323:qt-mt323.dll
 0002:00001c08       __imp_?provides@QMimeSource@@UBE_NPBD@Z 0045dc08     qt-mt323:qt-mt323.dll
 0002:00001c0c       __imp_?encodedData@QTextDrag@@UBE?AV?$QMemArray@D@@PBD@Z 0045dc0c     qt-mt323:qt-mt323.dll
 0002:00001c10       __imp_?drawDragShapes@QIconView@@EAEXABVQPoint@@@Z 0045dc10     qt-mt323:qt-mt323.dll
 0002:00001c14       __imp_?deleteData@QGArray@@MAEXPAUarray_data@1@@Z 0045dc14     qt-mt323:qt-mt323.dll
 0002:00001c18       __imp_?newData@QGArray@@MAEPAUarray_data@1@XZ 0045dc18     qt-mt323:qt-mt323.dll
 0002:00001c1c       __imp_??1QGArray@@MAE@XZ   0045dc1c     qt-mt323:qt-mt323.dll
 0002:00001c20       __imp_?qWinMain@@YAXPAUHINSTANCE__@@0PADHAAHAAV?$QMemArray@PAD@@@Z 0045dc20     qt-mt323:qt-mt323.dll
 0002:00001c24       __imp_??0QGArray@@IAE@H@Z  0045dc24     qt-mt323:qt-mt323.dll
 0002:00001c28       __imp_?duplicate@QGArray@@IAEAAV1@ABV1@@Z 0045dc28     qt-mt323:qt-mt323.dll
 0002:00001c2c       \177qt-mt323_NULL_THUNK_DATA 0045dc2c     qt-mt323:qt-mt323.dll
 0002:00001c30       ??_SQTextDrag@@6BQMimeSource@@@ 0045dc30     controldrag.obj
 0002:00001c40       ??_SQTextDrag@@6BQObject@@@ 0045dc40     controldrag.obj
 0002:00001ca4       ??_7controldrag@@6B@       0045dca4     controldrag.obj
 0002:00001ca8       ??_7device_list@@6BQPaintDevice@@@ 0045dca8     device_list.obj
 0002:00001cc8       ??_7device_list@@6BQObject@@@ 0045dcc8     device_list.obj
 0002:00001fa8       ??_7?$QPtrStack@Vundo_event@@@@6B@ 0045dfa8     device_list.obj
 0002:00001fc8       ??_SQListViewItem@@6B@     0045dfc8     device_list.obj
 0002:00002060       ??_7delete_undo@@6B@       0045e060     device_list.obj
 0002:00002064       ??_7undo_event@@6B@        0045e064     device_list.obj
 0002:00002068       ??_7new_undo@@6B@          0045e068     device_list.obj
 0002:0000206c       ??_7change_undo@@6B@       0045e06c     device_list.obj
 0002:00002070       ??_7device_list_edit@@6BQPaintDevice@@@ 0045e070     device_list_edit_imp.obj
 0002:00002090       ??_7device_list_edit@@6BQObject@@@ 0045e090     device_list_edit_imp.obj
 0002:00002250       ??_7deviceTypeListView@@6BQPaintDevice@@@ 0045e250     deviceTypeListView.obj
 0002:00002270       ??_7deviceTypeListView@@6BQObject@@@ 0045e270     deviceTypeListView.obj
 0002:00002550       ??_7signalConnectionRefList@@6B@ 0045e550     dialog.obj
 0002:00002570       ??_7?$QPtrList@VsignalConnection@@@@6B@ 0045e570     dialog.obj
 0002:00002590       ??_7dialog@@6BQPaintDevice@@@ 0045e590     dialog.obj
 0002:000025b0       ??_7dialog@@6BQObject@@@   0045e5b0     dialog.obj
 0002:00002810       ??_7dialogedit@@6BQPaintDevice@@@ 0045e810     dialogeditimpl.obj
 0002:00002830       ??_7dialogedit@@6BQObject@@@ 0045e830     dialogeditimpl.obj
 0002:000029f0       ??_SQPushButton@@6BQPaintDevice@@@ 0045e9f0     distribute.obj
 0002:00002a10       ??_SQPushButton@@6BQObject@@@ 0045ea10     distribute.obj
 0002:00002bfc       ??_SQSpacerItem@@6B@       0045ebfc     distribute.obj
 0002:00002c3c       ??_SQRadioButton@@6BQPaintDevice@@@ 0045ec3c     distribute.obj
 0002:00002c5c       ??_SQRadioButton@@6BQObject@@@ 0045ec5c     distribute.obj
 0002:00002e3c       ??_SQButtonGroup@@6BQPaintDevice@@@ 0045ee3c     distribute.obj
 0002:00002e5c       ??_SQButtonGroup@@6BQObject@@@ 0045ee5c     distribute.obj
 0002:00003048       ??_SQHBoxLayout@@6BQLayoutItem@@@ 0045f048     distribute.obj
 0002:00003088       ??_SQHBoxLayout@@6BQObject@@@ 0045f088     distribute.obj
 0002:000030ec       ??_SQVBoxLayout@@6BQLayoutItem@@@ 0045f0ec     distribute.obj
 0002:0000312c       ??_SQVBoxLayout@@6BQObject@@@ 0045f12c     distribute.obj
 0002:00003190       ??_7duplicateDlg@@6BQPaintDevice@@@ 0045f190     duplicatedlgimpl.obj
 0002:000031b0       ??_7duplicateDlg@@6BQObject@@@ 0045f1b0     duplicatedlgimpl.obj
 0002:00003370       ??_7editHandles@@6BQPaintDevice@@@ 0045f370     editHandles.obj
 0002:00003390       ??_7editHandles@@6BQObject@@@ 0045f390     editHandles.obj
 0002:00003540       ??_SQIconViewItem@@6B@     0045f540     file_new_imp.obj
 0002:000035c0       ??_7file_new@@6BQPaintDevice@@@ 0045f5c0     file_new_imp.obj
 0002:000035e0       ??_7file_new@@6BQObject@@@ 0045f5e0     file_new_imp.obj
 0002:000037a0       ??_7globalStyleDlg@@6BQPaintDevice@@@ 0045f7a0     globalstyledlgimpl.obj
 0002:000037c0       ??_7globalStyleDlg@@6BQObject@@@ 0045f7c0     globalstyledlgimpl.obj
 0002:00003980       ??_7handleBlock@@6BQPaintDevice@@@ 0045f980     handleBlock.obj
 0002:000039a0       ??_7handleBlock@@6BQObject@@@ 0045f9a0     handleBlock.obj
 0002:00003b50       ??_7importSettings@@6BQPaintDevice@@@ 0045fb50     importsettingsimpl.obj
 0002:00003b70       ??_7importSettings@@6BQObject@@@ 0045fb70     importsettingsimpl.obj
 0002:00003d30       ??_7?$QValueListNode@VQString@@@@6B@ 0045fd30     importsettingsimpl.obj
 0002:00003d34       ??_7?$QValueListPrivate@VQString@@@@6B@ 0045fd34     importsettingsimpl.obj
 0002:00003d38       ??_SQFrame@@6BQPaintDevice@@@ 0045fd38     lassoo.obj
 0002:00003d58       ??_SQFrame@@6BQObject@@@   0045fd58     lassoo.obj
 0002:00003f28       ??_7lassoo@@6BQPaintDevice@@@ 0045ff28     lassoo.obj
 0002:00003f48       ??_7lassoo@@6BQObject@@@   0045ff48     lassoo.obj
 0002:000040f8       ??_7manualSettings@@6BQPaintDevice@@@ 004600f8     manualsettingsimpl.obj
 0002:00004118       ??_7manualSettings@@6BQObject@@@ 00460118     manualsettingsimpl.obj
 0002:000042d8       ??_7objectView@@6BQPaintDevice@@@ 004602d8     objectviewimpl.obj
 0002:000042f8       ??_7objectView@@6BQObject@@@ 004602f8     objectviewimpl.obj
 0002:000044b8       ??_SQListBoxText@@6B@      004604b8     objectviewimpl.obj
 0002:000044d8       ??_7pasteTable@@6BQPaintDevice@@@ 004604d8     pasteTable.obj
 0002:000044f8       ??_7pasteTable@@6BQObject@@@ 004604f8     pasteTable.obj
 0002:00004898       ??_7?$QIntDict@VQValidator@@@@6B@ 00460898     pasteTable.obj
 0002:000048b4       ??_SQTabWidget@@6BQPaintDevice@@@ 004608b4     pickbox.obj
 0002:000048d4       ??_SQTabWidget@@6BQObject@@@ 004608d4     pickbox.obj
 0002:00004aa4       ??_7pickbox@@6BQPaintDevice@@@ 00460aa4     pickbox.obj
 0002:00004ac4       ??_7pickbox@@6BQObject@@@  00460ac4     pickbox.obj
 0002:00004ca8       ??_7pickbox_buttonlist@@6BQPaintDevice@@@ 00460ca8     pickbox_buttonlist.obj
 0002:00004cc8       ??_7pickbox_buttonlist@@6BQObject@@@ 00460cc8     pickbox_buttonlist.obj
 0002:00004fbc       ??_SQCheckBox@@6BQPaintDevice@@@ 00460fbc     pickbox_paramlist.obj
 0002:00004fdc       ??_SQCheckBox@@6BQObject@@@ 00460fdc     pickbox_paramlist.obj
 0002:000051b8       ??_SQLabel@@6BQPaintDevice@@@ 004611b8     pickbox_paramlist.obj
 0002:000051d8       ??_SQLabel@@6BQObject@@@   004611d8     pickbox_paramlist.obj
 0002:000053cc       ??_7pickbox_paramlist@@6BQPaintDevice@@@ 004613cc     pickbox_paramlist.obj
 0002:000053ec       ??_7pickbox_paramlist@@6BQObject@@@ 004613ec     pickbox_paramlist.obj
 0002:0000559c       ??_7recentlyusedlist@@6B@  0046159c     recentlyusedlist.obj
 0002:000055a0       ??_7mustHaveACommentValidator@@6B@ 004615a0     signalConnectionListDlgimpl.obj
 0002:000055f8       ??_7commandValidator@@6B@  004615f8     signalConnectionListDlgimpl.obj
 0002:00005650       ??_7mustHaveAnEqualsValidator@@6B@ 00461650     signalConnectionListDlgimpl.obj
 0002:000056a8       ??_7signalConnectionListDlgImpl@@6BQPaintDevice@@@ 004616a8     signalConnectionListDlgimpl.obj
 0002:000056c8       ??_7signalConnectionListDlgImpl@@6BQObject@@@ 004616c8     signalConnectionListDlgimpl.obj
 0002:00005888       ??_SQComboTableItem@@6B@   00461888     signalConnectionListDlgimpl.obj
 0002:000058e0       ??_7sizePosEdit@@6BQPaintDevice@@@ 004618e0     sizeposeditimpl.obj
 0002:00005900       ??_7sizePosEdit@@6BQObject@@@ 00461900     sizeposeditimpl.obj
 0002:00005ac0       ??_7system_setup@@6BQPaintDevice@@@ 00461ac0     system_setupimpl.obj
 0002:00005ae0       ??_7system_setup@@6BQObject@@@ 00461ae0     system_setupimpl.obj
 0002:00005ca0       ??_SQLineEdit@@6BQPaintDevice@@@ 00461ca0     testsettings.obj
 0002:00005cc0       ??_SQLineEdit@@6BQObject@@@ 00461cc0     testsettings.obj
 0002:00005ee4       ??_SQComboBox@@6BQPaintDevice@@@ 00461ee4     testsettings.obj
 0002:00005f04       ??_SQComboBox@@6BQObject@@@ 00461f04     testsettings.obj
 0002:000060e4       ??_7testSettingsBase@@6BQPaintDevice@@@ 004620e4     testsettings.obj
 0002:00006104       ??_7testSettingsBase@@6BQObject@@@ 00462104     testsettings.obj
 0002:000062c4       ??_7testSettings@@6BQPaintDevice@@@ 004622c4     testsettingsimpl.obj
 0002:000062e4       ??_7testSettings@@6BQObject@@@ 004622e4     testsettingsimpl.obj
 0002:000064a4       ??_7textedit@@6BQPaintDevice@@@ 004624a4     textedit.obj
 0002:000064c4       ??_7textedit@@6BQObject@@@ 004624c4     textedit.obj
 0002:0000683c       ??_SQPopupMenu@@6B@        0046283c     textedit.obj
 0002:0000685c       ??_SQPopupMenu@@6BQPaintDevice@@@ 0046285c     textedit.obj
 0002:0000687c       ??_SQPopupMenu@@6BQObject@@@ 0046287c     textedit.obj
 0002:00006a58       ??_SQAction@@6B@           00462a58     textedit.obj
 0002:00006ae0       ??_SQDockWindow@@6BQPaintDevice@@@ 00462ae0     vis_ed_mdi.obj
 0002:00006b00       ??_SQDockWindow@@6BQObject@@@ 00462b00     vis_ed_mdi.obj
 0002:00006d0c       ??_SQWorkspace@@6BQPaintDevice@@@ 00462d0c     vis_ed_mdi.obj
 0002:00006d2c       ??_SQWorkspace@@6BQObject@@@ 00462d2c     vis_ed_mdi.obj
 0002:00006edc       ??_7vis_ed_mdi@@6BQPaintDevice@@@ 00462edc     vis_ed_mdi.obj
 0002:00006efc       ??_7vis_ed_mdi@@6BQObject@@@ 00462efc     vis_ed_mdi.obj
 0002:0000710c       ??_7?$QDict@VQAction@@@@6B@ 0046310c     vis_ed_mdi.obj
 0002:00007128       ??_SQToolBar@@6BQPaintDevice@@@ 00463128     vis_ed_mdi.obj
 0002:00007148       ??_SQToolBar@@6BQObject@@@ 00463148     vis_ed_mdi.obj
 0002:00007360       ??_7vis_ed_toolbars@@6B@   00463360     vis_ed_toolbars.obj
 0002:000073b0       ??_7?$QValueListNode@Vstyleentry@@@@6B@ 004633b0     vis_ed_toolbars.obj
 0002:000073b4       ??_7?$QValueListPrivate@Vstyleentry@@@@6B@ 004633b4     vis_ed_toolbars.obj
 0002:000073b8       ??_7vis_ed_widget@@6BQPaintDevice@@@ 004633b8     vis_ed_widget.obj
 0002:000073d8       ??_7vis_ed_widget@@6BQObject@@@ 004633d8     vis_ed_widget.obj
 0002:00007588       ??_7?$QPtrStack@Vw_undo_event@@@@6B@ 00463588     vis_ed_widget.obj
 0002:000075a8       ??_7w_dialog_settings_undo@@6B@ 004635a8     vis_ed_widget.obj
 0002:000075ac       ??_7w_undo_event@@6B@      004635ac     vis_ed_widget.obj
 0002:000075b0       ??_7w_new_undo@@6B@        004635b0     vis_ed_widget.obj
 0002:000075b4       ??_7w_move_undo@@6B@       004635b4     vis_ed_widget.obj
 0002:000075b8       ??_7w_delete_undo@@6B@     004635b8     vis_ed_widget.obj
 0002:000075bc       ??_7w_settings_undo@@6B@   004635bc     vis_ed_widget.obj
 0002:000075c0       ??_7w_rename_undo@@6B@     004635c0     vis_ed_widget.obj
 0002:000075c4       ??_7vPosSortedWidgetList@@6B@ 004635c4     vis_ed_widget.obj
 0002:000075e4       ??_7hPosSortedWidgetList@@6B@ 004635e4     vis_ed_widget.obj
 0002:00007604       ??_SQProcess@@6B@          00463604     vis_ed_widget.obj
 0002:00007688       ??_7w_connection_undo@@6B@ 00463688     vis_ed_widget.obj
 0002:0000768c       ??_7xml_listview@@6BQPaintDevice@@@ 0046368c     xml_listview.obj
 0002:000076ac       ??_7xml_listview@@6BQObject@@@ 004636ac     xml_listview.obj
 0002:0000798c       ??_7device_list_editBase@@6BQPaintDevice@@@ 0046398c     device_list_edit.obj
 0002:000079ac       ??_7device_list_editBase@@6BQObject@@@ 004639ac     device_list_edit.obj
 0002:00007b6c       ??_SQSpinBox@@6B@          00463b6c     dialogedit.obj
 0002:00007b7c       ??_SQSpinBox@@6BQPaintDevice@@@ 00463b7c     dialogedit.obj
 0002:00007b9c       ??_SQSpinBox@@6BQObject@@@ 00463b9c     dialogedit.obj
 0002:00007d90       ??_SQGroupBox@@6BQPaintDevice@@@ 00463d90     dialogedit.obj
 0002:00007db0       ??_SQGroupBox@@6BQObject@@@ 00463db0     dialogedit.obj
 0002:00007f8c       ??_7dialogeditBase@@6BQPaintDevice@@@ 00463f8c     dialogedit.obj
 0002:00007fac       ??_7dialogeditBase@@6BQObject@@@ 00463fac     dialogedit.obj
 0002:0000816c       ??_SQGridLayout@@6BQLayoutItem@@@ 0046416c     duplicatedlg.obj
 0002:000081ac       ??_SQGridLayout@@6BQObject@@@ 004641ac     duplicatedlg.obj
 0002:00008218       ??_7duplicateDlgBase@@6BQPaintDevice@@@ 00464218     duplicatedlg.obj
 0002:00008238       ??_7duplicateDlgBase@@6BQObject@@@ 00464238     duplicatedlg.obj
 0002:000083f8       ??_SQIconView@@6BQPaintDevice@@@ 004643f8     file_new.obj
 0002:00008418       ??_SQIconView@@6BQObject@@@ 00464418     file_new.obj
 0002:0000870c       ??_7file_newBase@@6BQPaintDevice@@@ 0046470c     file_new.obj
 0002:0000872c       ??_7file_newBase@@6BQObject@@@ 0046472c     file_new.obj
 0002:000088ec       ??_7globalstyleDlgBase@@6BQPaintDevice@@@ 004648ec     globalstyledlg.obj
 0002:0000890c       ??_7globalstyleDlgBase@@6BQObject@@@ 0046490c     globalstyledlg.obj
 0002:00008acc       ??_SQListView@@6BQPaintDevice@@@ 00464acc     importsettings.obj
 0002:00008aec       ??_SQListView@@6BQObject@@@ 00464aec     importsettings.obj
 0002:00008dcc       ??_7importSettingsBase@@6BQPaintDevice@@@ 00464dcc     importsettings.obj
 0002:00008dec       ??_7importSettingsBase@@6BQObject@@@ 00464dec     importsettings.obj
 0002:00008fac       ??_SQTextEdit@@6BQPaintDevice@@@ 00464fac     manualsettings.obj
 0002:00008fcc       ??_SQTextEdit@@6BQObject@@@ 00464fcc     manualsettings.obj
 0002:00009344       ??_7manualSettingsBase@@6BQPaintDevice@@@ 00465344     manualsettings.obj
 0002:00009364       ??_7manualSettingsBase@@6BQObject@@@ 00465364     manualsettings.obj
 0002:0000aa14       ??_SQListBox@@6BQPaintDevice@@@ 00466a14     objectview.obj
 0002:0000aa34       ??_SQListBox@@6BQObject@@@ 00466a34     objectview.obj
 0002:0000acd8       ??_7objectViewBase@@6BQPaintDevice@@@ 00466cd8     objectview.obj
 0002:0000acf8       ??_7objectViewBase@@6BQObject@@@ 00466cf8     objectview.obj
 0002:0000b254       ??_7signalConnectionListDlg@@6BQPaintDevice@@@ 00467254     signalConnectionListDlg.obj
 0002:0000b274       ??_7signalConnectionListDlg@@6BQObject@@@ 00467274     signalConnectionListDlg.obj
 0002:0000b434       ??_7sizePosEditBase@@6BQPaintDevice@@@ 00467434     sizeposedit.obj
 0002:0000b454       ??_7sizePosEditBase@@6BQObject@@@ 00467454     sizeposedit.obj
 0002:0000b81c       ??_7system_setupBase@@6BQPaintDevice@@@ 0046781c     system_setup.obj
 0002:0000b83c       ??_7system_setupBase@@6BQObject@@@ 0046783c     system_setup.obj
 0002:0000b9fc       ??_SQWidget@@6BQPaintDevice@@@ 004679fc     qtsingleapplication:qtsingleapplication_win.obj
 0002:0000ba1c       ??_SQWidget@@6BQObject@@@  00467a1c     qtsingleapplication:qtsingleapplication_win.obj
 0002:0000bbcc       ??_7QtSingleApplication@@6B@ 00467bcc     qtsingleapplication:qtsingleapplication.obj
 0002:0000bd3c       ??_7?$QMemArray@PAD@@6B@   00467d3c     qtmain:qtmain_win.obj
 0002:000153e0       __IMPORT_DESCRIPTOR_dcw    004713e0     dcw:dcw.dll
 0002:000153f4       __IMPORT_DESCRIPTOR_KERNEL32 004713f4     kernel32:KERNEL32.dll
 0002:00015408       __IMPORT_DESCRIPTOR_USER32 00471408     user32:USER32.dll
 0002:0001541c       __IMPORT_DESCRIPTOR_ADVAPI32 0047141c     advapi32:ADVAPI32.dll
 0002:00015430       __IMPORT_DESCRIPTOR_SHELL32 00471430     shell32:SHELL32.dll
 0002:00015444       __IMPORT_DESCRIPTOR_qt-mt323 00471444     qt-mt323:qt-mt323.dll
 0002:00015458       __IMPORT_DESCRIPTOR_bncs_cachedData 00471458     bncs_cachedData:bncs_cachedData.dll
 0002:0001546c       __IMPORT_DESCRIPTOR_MSVCRT 0047146c     MSVCRT:MSVCRT.dll
 0002:00015480       __IMPORT_DESCRIPTOR_MSVCP60 00471480     msvcprt:MSVCP60.dll
 0002:00015494       __NULL_IMPORT_DESCRIPTOR   00471494     dcw:dcw.dll
 0003:00000000       ___xc_a                    00487000     MSVCRT:cinitexe.obj
 0003:000000a0       ___xc_z                    004870a0     MSVCRT:cinitexe.obj
 0003:000000a4       ___xi_a                    004870a4     MSVCRT:cinitexe.obj
 0003:000000a8       ___xi_z                    004870a8     MSVCRT:cinitexe.obj
 0003:000000b0       ??_C@_0BO@CHPL@?7?$DM?1container?$DO?6?$DM?1control_set?$DO?6?$AA@ 004870b0     controldrag.obj
 0003:000000d0       ??_C@_0CM@CMBD@?7?7?7?$DMsetting?5value?$DN?$CCdeviceDescrip@ 004870d0     controldrag.obj
 0003:000000fc       ??_C@_01HAF@?8?$AA@        004870fc     controldrag.obj
 0003:00000100       ??_C@_06FIGC@?$CGapos?$DL?$AA@ 00487100     controldrag.obj
 0003:00000108       ??_C@_01HMO@?$CC?$AA@      00487108     controldrag.obj
 0003:0000010c       ??_C@_06ILHI@?$CGquot?$DL?$AA@ 0048710c     controldrag.obj
 0003:00000114       ??_C@_01FAFK@?$DO?$AA@     00487114     controldrag.obj
 0003:00000118       ??_C@_04BDNF@?$CGgt?$DL?$AA@ 00487118     controldrag.obj
 0003:00000120       ??_C@_01FHE@?$DM?$AA@      00487120     controldrag.obj
 0003:00000124       ??_C@_04HFFL@?$CGlt?$DL?$AA@ 00487124     controldrag.obj
 0003:0000012c       ??_C@_01KNJC@?$CG?$AA@     0048712c     controldrag.obj
 0003:00000130       ??_C@_05BHKJ@?$CGamp?$DL?$AA@ 00487130     controldrag.obj
 0003:00000138       ??_C@_0BP@KAJN@?7?7?7?$DMsetting?5value?$DN?$CCname?$DN?$CF1?$CC?1?$DO?6?$AA@ 00487138     controldrag.obj
 0003:00000158       ??_C@_0CD@FKCK@?7?7?7?$DMsetting?5value?$DN?$CCinstance?$DN?$CF1?$CC?1@ 00487158     controldrag.obj
 0003:0000017c       ??_C@_08JONF@template?$AA@ 0048717c     controldrag.obj
 0003:00000188       ??_C@_0CA@PEDC@?7?7?7?$DMsetting?5value?$DN?$CCstyle?$DN?$CF1?$CC?1?$DO?6?$AA@ 00487188     controldrag.obj
 0003:000001a8       ??_C@_06OAEB@updown?$AA@   004871a8     controldrag.obj
 0003:000001b0       ??_C@_0O@IOLH@vised?2buttons?$AA@ 004871b0     controldrag.obj
 0003:000001c0       ??_C@_05MCCK@Range?$AA@    004871c0     controldrag.obj
 0003:000001c8       ??_C@_0L@NJHG@bncs_range?$AA@ 004871c8     controldrag.obj
 0003:000001d4       ??_C@_05JCDO@style?$AA@    004871d4     controldrag.obj
 0003:000001dc       ??_C@_03JKDO@?$CC?$DO?6?$AA@ 004871dc     controldrag.obj
 0003:000001e0       ??_C@_05PIAJ@?$CC?5h?$DN?$CC?$AA@ 004871e0     controldrag.obj
 0003:000001e8       ??_C@_05PHLH@?$CC?5w?$DN?$CC?$AA@ 004871e8     controldrag.obj
 0003:000001f0       ??_C@_03ENGF@?$CL20?$AA@   004871f0     controldrag.obj
 0003:000001f4       ??_C@_0CK@BHKD@?7?7?$DMcontrol?5class?$DN?$CC?$CF1?$CC?5name?$DN?$CC1?$CC?5x@ 004871f4     controldrag.obj
 0003:00000220       ??_C@_0O@OKCM@?7?7?$DM?1control?$DO?6?$AA@ 00487220     controldrag.obj
 0003:00000230       ??_C@_0BP@JDCE@?7?7?7?$DMsetting?5value?$DN?$CCtext?$DN?$CF1?$CC?1?$DO?6?$AA@ 00487230     controldrag.obj
 0003:00000250       ??_C@_0CN@LLA@?7?7?7?$DMsetting?5value?$DN?$CCstylesheet?$DNpa@ 00487250     controldrag.obj
 0003:00000280       ??_C@_0M@IJOJ@?$CC?5h?$DN?$CC20?$CC?5?$DO?6?$AA@ 00487280     controldrag.obj
 0003:0000028c       ??_C@_03HFMC@100?$AA@      0048728c     controldrag.obj
 0003:00000290       ??_C@_0DJ@IPMK@?7?7?$DMcontrol?5class?$DN?$CCbncs_control?$CC?5@ 00487290     controldrag.obj
 0003:000002cc       ??_C@_01KDJI@h?$AA@        004872cc     controldrag.obj
 0003:000002d0       ??_C@_01LLF@w?$AA@         004872d0     controldrag.obj
 0003:000002d4       ??_C@_0EL@BEI@?$DM?$DPxml?5version?$DN?$CC1?40?$CC?5?5encoding?$DN?$CCw@ 004872d4     controldrag.obj
 0003:00000320       ??_C@_05FEAH@bncs_?$AA@    00487320     controldrag.obj
 0003:00000328       ??_C@_05LGKP@class?$AA@    00487328     controldrag.obj
 0003:00000330       ??_C@_05POGF@?$CC?5?1?$DO?6?$AA@ 00487330     controldrag.obj
 0003:00000338       ??_C@_0BD@NHPM@?7?7?$DMsetting?5value?$DN?$CC?$AA@ 00487338     controldrag.obj
 0003:0000034c       ??_C@_05KFME@value?$AA@    0048734c     controldrag.obj
 0003:00000354       ??_C@_0EK@CJD@The?5template?5file?3?6?7?$CF1?6?5is?5not?5v@ 00487354     controldrag.obj
 0003:000003a0       ??_C@_0BP@PMOH@Error?5in?5template?5file?3?6?7?$CF1?6?$CF2?$AA@ 004873a0     controldrag.obj
 0003:000003c0       ??_C@_0CG@BHHD@Could?5not?5find?5the?5template?5file@ 004873c0     controldrag.obj
 0003:000003e8       ??_C@_0BB@CELC@Control?5Template?$AA@ 004873e8     controldrag.obj
 0003:000003fc       ??_C@_04KGPJ@?4xml?$AA@    004873fc     controldrag.obj
 0003:00000404       ??_C@_0BC@KPBO@?2config?2template?2?$AA@ 00487404     controldrag.obj
 0003:00000418       ??_C@_09EFEJ@CC_SYSTEM?$AA@ 00487418     controldrag.obj
 0003:00000424       ??_C@_01PCFE@?2?$AA@       00487424     controldrag.obj
 0003:00000428       ??_C@_07FCNI@CC_ROOT?$AA@  00487428     controldrag.obj
 0003:00000430       ??_C@_04OPJK@name?$AA@     00487430     controldrag.obj
 0003:00000438       ??_C@_05FMAI@param?$AA@    00487438     controldrag.obj
 0003:00000440       ??_C@_0L@LAAL@mydocument?$AA@ 00487440     controldrag.obj
 0003:0000044c       ??_C@_0CJ@GANJ@controldrag?3?5can?8t?5set?5XML?5conte@ 0048744c     controldrag.obj
 0003:00000478       ??_C@_02IAOD@in?$AA@       00487478     controldrag.obj
 0003:0000047c       ??_C@_08HBIG@?2config?2?$AA@ 0048747c     controldrag.obj
 0003:00000488       ??_C@_01KAHP@y?$AA@        00487488     controldrag.obj
 0003:0000048c       ??_C@_01KOI@x?$AA@         0048748c     controldrag.obj
 0003:00000490       ??_C@_01FBAH@1?$AA@        00487490     controldrag.obj
 0003:00000494       ??_C@_0N@FLOI@bncs_control?$AA@ 00487494     controldrag.obj
 0003:000004a4       ??_C@_09MBHF@container?$AA@ 004874a4     controldrag.obj
 0003:000004b0       ??_C@_0M@CMBK@control_set?$AA@ 004874b0     controldrag.obj
 0003:000004bc       ??_C@_0CC@IMOM@2doubleClicked?5?$CI?5QListViewItem?5?$CK@ 004874bc     device_list.obj
 0003:000004e0       ??_C@_0CC@ICMM@1doubleClicked?5?$CI?5QListViewItem?5?$CK@ 004874e0     device_list.obj
 0003:00000504       ??_C@_0DI@NKKO@2contextMenuRequested?$CIQListViewI@ 00487504     device_list.obj
 0003:0000053c       ??_C@_0DI@NENJ@1contextMenuRequested?$CIQListViewI@ 0048753c     device_list.obj
 0003:00000574       ??_C@_06LCIG@Driver?$AA@   00487574     device_list.obj
 0003:0000057c       ??_C@_04FCOP@Type?$AA@     0048757c     device_list.obj
 0003:00000584       ??_C@_04EFNI@Name?$AA@     00487584     device_list.obj
 0003:0000058c       ??_C@_04PIKN@type?$AA@     0048758c     device_list.obj
 0003:00000594       ??_C@_06GIC@driver?$AA@    00487594     device_list.obj
 0003:0000059c       ??_C@_0BO@PEKE@This?5isn?8t?5a?5device?5list?5file?$AA@ 0048759c     device_list.obj
 0003:000005bc       ??_C@_0M@HKMG@device_list?$AA@ 004875bc     device_list.obj
 0003:000005c8       ??_C@_0BB@NBCP@Can?8t?5parse?5file?$AA@ 004875c8     device_list.obj
 0003:000005dc       ??_C@_0BA@FNBE@Can?8t?5open?5file?$AA@ 004875dc     device_list.obj
 0003:000005ec       ??_C@_0BB@LGKO@?$DM?1device_list?$DO?$AN?6?$AA@ 004875ec     device_list.obj
 0003:00000600       ??_C@_06GDN@?$CC?5?1?$DO?$AN?6?$AA@ 00487600     device_list.obj
 0003:00000608       ??_C@_08OKE@?$CC?5type?$DN?$CC?$AA@ 00487608     device_list.obj
 0003:00000614       ??_C@_0L@CFPE@?$CC?5driver?$DN?$CC?$AA@ 00487614     device_list.obj
 0003:00000620       ??_C@_0BA@NJMD@?7?$DMdevice?5name?$DN?$CC?$AA@ 00487620     device_list.obj
 0003:00000630       ??_C@_0HC@OOI@?$DM?$DPxml?5version?$DN?$CC1?40?$CC?5encoding?$DN?$CCwi@ 00487630     device_list.obj
 0003:000006a4       ??_C@_0BB@HHCH@Application?5name?$AA@ 004876a4     device_list.obj
 0003:000006b8       ??_C@_0FE@LPIN@Unable?5to?5find?5the?5user?5preferen@ 004876b8     device_list.obj
 0003:0000070c       ??_C@_0BD@HAND@Select?5?$CGAll?7Ctrl?$CLA?$AA@ 0048770c     device_list.obj
 0003:00000720       ??_C@_0L@FGJL@Delete?7Del?$AA@ 00487720     device_list.obj
 0003:0000072c       ??_C@_09NGJN@Duplicate?$AA@ 0048772c     device_list.obj
 0003:00000738       ??_C@_0BG@JMLG@Paste?5?$CIInsert?$CJ?7Ctrl?$CLV?$AA@ 00487738     device_list.obj
 0003:00000750       ??_C@_01POCP@?7?$AA@       00487750     device_list.obj
 0003:00000754       ??_C@_0M@MDBD@Copy?7Ctrl?$CLC?$AA@ 00487754     device_list.obj
 0003:00000760       ??_C@_0L@GNI@Cut?7Ctrl?$CLX?$AA@ 00487760     device_list.obj
 0003:0000076c       ??_C@_0BA@CNON@Revert?5to?5saved?$AA@ 0048776c     device_list.obj
 0003:0000077c       ??_C@_04GOHB@Save?$AA@     0048777c     device_list.obj
 0003:00000784       ??_C@_07BCLK@New?7Ins?$AA@ 00487784     device_list.obj
 0003:0000078c       ??_C@_08KODA@?5?7Ctrl?$CLZ?$AA@ 0048778c     device_list.obj
 0003:00000798       ??_C@_05FGDJ@Undo?5?$AA@   00487798     device_list.obj
 0003:000007a0       ??_C@_03NOMD@Cut?$AA@      004877a0     device_list.obj
 0003:000007a4       ??_C@_01BJG@?6?$AA@        004877a4     device_list.obj
 0003:000007a8       ??_C@_05HIKF@Paste?$AA@    004877a8     device_list.obj
 0003:000007b0       ??_C@_06DHPE@Delete?$AA@   004877b0     device_list.obj
 0003:000007b8       ??_C@_09OLMD@Edit?5Item?$AA@ 004877b8     device_list.obj
 0003:000007c4       ??_C@_08BGEA@New?5Item?$AA@ 004877c4     device_list.obj
 0003:000007d0       ??_C@_0O@MJJA@BNCS?5Vis?4?5Ed?4?$AA@ 004877d0     device_list.obj
 0003:000007e0       ??_C@_0DP@PNMF@Do?5you?5want?5to?5lose?5all?5edits?5an@ 004877e0     device_list.obj
 0003:00000820       ??_C@_0BP@OBJO@there?5are?5duplicate?5entries?5?$CFs?$AA@ 00487820     device_list.obj
 0003:00000840       ??_C@_0BI@PHJO@ASSERT?3?5?$CC?$CFs?$CC?5in?5?$CFs?5?$CI?$CFd?$CJ?$AA@ 00487840     device_list.obj
 0003:00000858       ??_C@_0L@MGKG@i?5?$DM?$DN?5nodes?$AA@ 00487858     device_list.obj
 0003:00000864       ??_C@_0CB@GILJ@C?3?2Qt?23?42?43?2include?2qvaluelist?4h@ 00487864     device_list.obj
 0003:00000888       ??_C@_0BL@NNOF@Edit?5BNCS?5Device?5Type?5List?$AA@ 00487888     device_list_edit_imp.obj
 0003:000008a4       ??_C@_0BC@BDAO@?2device_types?4xml?$AA@ 004878a4     device_list_edit_imp.obj
 0003:000008b8       ??_C@_0N@PF@device_types?$AA@ 004878b8     device_list_edit_imp.obj
 0003:000008c8       ??_C@_0BE@DOIA@?2device_drivers?4xml?$AA@ 004878c8     device_list_edit_imp.obj
 0003:000008dc       ??_C@_0P@IABH@device_drivers?$AA@ 004878dc     device_list_edit_imp.obj
 0003:000008ec       ??_C@_0BP@NMKN@This?5isn?8t?5a?5drivers?5list?5file?$AA@ 004878ec     device_list_edit_imp.obj
 0003:0000090c       ??_C@_04CODI@Slot?$AA@     0048790c     deviceTypeListView.obj
 0003:00000914       ??_C@_05JGJE@Style?$AA@    00487914     deviceTypeListView.obj
 0003:0000091c       ??_C@_05LCAF@Class?$AA@    0048791c     deviceTypeListView.obj
 0003:00000924       ??_C@_04IEHK@slot?$AA@     00487924     deviceTypeListView.obj
 0003:0000092c       ??_C@_0BG@PAML@2caption?$CI?5QString?5?$CG?5?$CJ?$AA@ 0048792c     dialog.obj
 0003:00000944       ??_C@_0BG@EAAP@1caption?$CI?5QString?5?$CG?5?$CJ?$AA@ 00487944     dialog.obj
 0003:0000095c       ??_C@_0CA@GBLE@2scriptedit?$CI?5QString?0?5QString?5?$CJ?$AA@ 0048795c     dialog.obj
 0003:0000097c       ??_C@_0CA@PNLL@1scriptedit?$CI?5QString?0?5QString?5?$CJ?$AA@ 0048797c     dialog.obj
 0003:0000099c       ??_C@_0CG@MEJP@2comboBoxesMessage?$CI?5const?5QStrin@ 0048799c     dialog.obj
 0003:000009c4       ??_C@_0CG@FLBJ@1comboBoxesMessage?$CI?5const?5QStrin@ 004879c4     dialog.obj
 0003:000009ec       ??_C@_09NEKG@1reject?$CI?$CJ?$AA@ 004879ec     distribute.obj
 0003:000009f8       ??_C@_0L@EHAF@2clicked?$CI?$CJ?$AA@ 004879f8     distribute.obj
 0003:00000a04       ??_C@_09GLDH@1accept?$CI?$CJ?$AA@ 00487a04     distribute.obj
 0003:00000a10       ??_C@_0N@BDAB@buttonCancel?$AA@ 00487a10     distribute.obj
 0003:00000a20       ??_C@_08HMAP@buttonOk?$AA@ 00487a20     distribute.obj
 0003:00000a2c       ??_C@_07GNNE@layout2?$AA@  00487a2c     distribute.obj
 0003:00000a34       ??_C@_07MHED@layout3?$AA@  00487a34     distribute.obj
 0003:00000a3c       ??_C@_0P@LHII@distributeBase?$AA@ 00487a3c     distribute.obj
 0003:00000a4c       ??_C@_07EODH@?$CGCancel?$AA@ 00487a4c     distribute.obj
 0003:00000a54       ??_C@_03NOMH@?$CGOK?$AA@   00487a54     distribute.obj
 0003:00000a58       ??_C@_0N@KNH@Stack?5Bottom?$AA@ 00487a58     distribute.obj
 0003:00000a68       ??_C@_09DIBE@Stack?5Top?$AA@ 00487a68     distribute.obj
 0003:00000a74       ??_C@_0N@OMIO@Align?5Bottom?$AA@ 00487a74     distribute.obj
 0003:00000a84       ??_C@_09FJAG@Align?5Top?$AA@ 00487a84     distribute.obj
 0003:00000a90       ??_C@_0M@JBM@Stack?5Right?$AA@ 00487a90     distribute.obj
 0003:00000a9c       ??_C@_0L@CJEL@Stack?5Left?$AA@ 00487a9c     distribute.obj
 0003:00000aa8       ??_C@_0M@FAPB@Align?5Right?$AA@ 00487aa8     distribute.obj
 0003:00000ab4       ??_C@_0L@MECK@Align?5Left?$AA@ 00487ab4     distribute.obj
 0003:00000ac0       ??_C@_0BA@CAJM@?$CF1?3?5?$CF2?5?$CF3?5?$CF4?5?$CF5?$AA@ 00487ac0     editHandles.obj
 0003:00000ad0       ??_C@_0BK@JEOB@forceScaleWithCanvas?$DNtrue?$AA@ 00487ad0     editHandles.obj
 0003:00000aec       ??_C@_04NCCD@true?$AA@     00487aec     editHandles.obj
 0003:00000af4       ??_C@_0BH@ENOD@return?$DNscaleWithCanvas?$AA@ 00487af4     editHandles.obj
 0003:00000b0c       ??_C@_0BD@CFBA@bncs_script_loader?$AA@ 00487b0c     editHandles.obj
 0003:00000b20       ??_C@_04KGLC@?4png?$AA@    00487b20     file_new_imp.obj
 0003:00000b28       ??_C@_09POGK@?$CK?4bncs_ui?$AA@ 00487b28     file_new_imp.obj
 0003:00000b34       ??_C@_0BI@LECM@?2config?2vised?2templates?$AA@ 00487b34     file_new_imp.obj
 0003:00000b4c       ??_C@_09MIBO@1doHelp?$CI?$CJ?$AA@ 00487b4c     file_new_imp.obj
 0003:00000b58       ??_C@_0CC@BCD@2doubleClicked?$CI?5QIconViewItem?5?$CK?5@ 00487b58     file_new_imp.obj
 0003:00000b7c       ??_C@_0CC@PAD@1doubleClicked?$CI?5QIconViewItem?5?$CK?5@ 00487b7c     file_new_imp.obj
 0003:00000ba0       ??_C@_07HHLL@fileNew?$AA@  00487ba0     file_new_imp.obj
 0003:00000ba8       ??_C@_0P@MHAE@2toggled?$CIbool?$CJ?$AA@ 00487ba8     globalstyledlgimpl.obj
 0003:00000bb8       ??_C@_0CB@IFEB@1defaultBgColourSelected?$CI?5bool?5?$CJ@ 00487bb8     globalstyledlgimpl.obj
 0003:00000bdc       ??_C@_0M@PAPI@2released?$CI?$CJ?$AA@ 00487bdc     globalstyledlgimpl.obj
 0003:00000be8       ??_C@_0BK@LFLL@1backgroundColourPicker?$CI?$CJ?$AA@ 00487be8     globalstyledlgimpl.obj
 0003:00000c04       ??_C@_01FEHD@?$AN?$AA@     00487c04     importsettingsimpl.obj
 0003:00000c08       ??_C@_0P@HKOI@importSettings?$AA@ 00487c08     importsettingsimpl.obj
 0003:00000e90       ??_C@_0EB@EGBA@m?50?50?50?58?58?58?57?57?57?5?$DM?5?9?5?9?5?9?5?$CG?5?$CF?5@ 00487e90     main.obj
 0003:00000ed4       ??_C@_0EB@HONN@h?5u?5a?5a?5a?5a?5a?5s?5s?5s?5s?5s?5s?5s?5s?5s?5@ 00487ed4     main.obj
 0003:00000f18       ??_C@_0EB@PJOG@H?5a?5?$HO?5?$FL?5?$FL?5?$HL?5?$HL?5?$HL?5?$HL?5?$HN?5?$HN?5?$HN?5?$DL?4?$DL?4?$DL?4?3?4@ 00487f18     main.obj
 0003:00000f5c       ??_C@_0EB@ONL@H?5a?5?$FL?5?$DL?4?3?4?3?4?3?4?3?4?3?4?$DM?4?$DM?41?41?41?47?47?4@ 00487f5c     main.obj
 0003:00000fa0       ??_C@_0EB@IDCD@J?5a?5C?5?$HO?5?$FO?5?$FO?5?$FO?5?1?5?1?5?1?5?8?5?$FN?5?0?41?4?$HL?5?$HL?5@ 00487fa0     main.obj
 0003:00000fe4       ??_C@_0EB@JGHM@J?5y?5?$CD?5O?5O?5?0?5?0?51?53?53?55?5b?5?$DL?4?$DM?4C?5N?5@ 00487fe4     main.obj
 0003:00001028       ??_C@_0EB@DCEM@K?5y?5?4?5o?5O?5O?5O?5?0?5?0?51?53?5x?5?$FO?5?1?5V?5v?5@ 00488028     main.obj
 0003:0000106c       ??_C@_0EB@CMJI@L?5y?5X?5X?5o?5o?5O?5O?5O?5?0?5?0?5?0?53?53?54?5x?5@ 0048806c     main.obj
 0003:000010b0       ??_C@_0EB@ODGJ@L?5y?5X?5X?5X?5M?5O?4O?45?5O?5?$CK?5?$DN?55?5?$CD?4?$CG?4?$CG?4@ 004880b0     main.obj
 0003:000010f4       ??_C@_0EB@IAOF@P?5y?5X?5X?5X?5?9?4e?4e?4?$CI?5o?5o?5o?5c?5e?4e?4e?4@ 004880f4     main.obj
 0003:00001138       ??_C@_0EB@GOLH@I?5y?5X?5X?5?$CD?5w?4e?4e?42?4X?5X?5X?5?$DN?5A?5S?59?4@ 00488138     main.obj
 0003:0000117c       ??_C@_0EB@OILF@I?5y?5X?5X?5c?5e?44?40?4w?4?$CD?5X?5X?5X?5X?5X?56?4@ 0048817c     main.obj
 0003:000011c0       ??_C@_0EB@KGOE@Y?5y?5X?5X?5?$CI?5e?4O?4?$DN?4e?4n?5X?5X?5X?5X?5X?56?4@ 004881c0     main.obj
 0003:00001204       ??_C@_0EB@HDD@Y?5y?5X?5X?52?4e?4B?5G?5e?4?$CJ?5X?5X?5X?5X?5X?56?4@ 00488204     main.obj
 0003:00001248       ??_C@_0EB@KLPO@Y?5y?5X?5?$CD?5e?4e?4?0?54?5e?43?4X?5X?5X?5X?5X?56?4@ 00488248     main.obj
 0003:0000128c       ??_C@_0EB@HKHA@W?5y?5X?5c?5e?49?4X?5?$CD?5w?4e?4o?5X?5X?5X?5X?56?4@ 0048828c     main.obj
 0003:000012d0       ??_C@_0EB@PNEH@W?5y?5X?5?$CI?5e?4?$CG?4X?5X?52?4e?4n?5X?5X?5X?5X?56?4@ 004882d0     main.obj
 0003:00001314       ??_C@_0EB@LCAG@W?5y?5X?53?4e?4S?5X?5X?5?$HM?5e?4?5?4X?5X?5X?5X?56?4@ 00488314     main.obj
 0003:00001358       ??_C@_0EB@JNCI@W?5y?5?$CD?5e?4e?44?5X?5X?5n?5e?43?4X?5X?5X?5X?56?4@ 00488358     main.obj
 0003:0000139c       ??_C@_0EB@MNJM@W?5y?5n?5e?4w?4X?5X?5X?5?$CK?5e?4e?4?$CK?5?$DM?5?$CG?4?$CG?4w?4@ 0048839c     main.obj
 0003:000013e0       ??_C@_0EB@GEIO@W?5y?5?5?4e?4?9?4X?5X?5X?5X?54?4e?4M?54?5e?4e?4e?4@ 004883e0     main.obj
 0003:00001424       ??_C@_0EB@BNDC@W?5y?52?5c?5?$DM?5X?5X?5X?5X?52?5c?5?0?5?$CD?5c?5c?5c?5@ 00488424     main.obj
 0003:00001468       ??_C@_0EB@EEDB@W?5y?5X?5X?5X?5X?5X?5X?5X?5X?5X?5X?5X?5X?5X?5X?5@ 00488468     main.obj
 0003:000014ac       ??_C@_0EB@FAAE@W?5y?5X?5X?5?$CD?5?$CK?5?$CK?5?$CK?5?$CD?5o?5X?5?$CK?5?$CD?5X?5X?5?$CD?5@ 004884ac     main.obj
 0003:000014f0       ??_C@_0EB@LCPD@W?5u?5?$EA?5X?5?$CD?5?$CK?5?$CD?5?$CD?5?$CD?5?$CK?5?$CD?5?$CK?5?$CK?5X?5X?5?$CD?5@ 004884f0     main.obj
 0003:00001534       ??_C@_0EB@CENB@?$EA?4f?5y?5?$EA?5X?5?$CK?5?$CD?5X?5X?5?$CK?5?$CK?5?$CD?5?$CK?5X?5X?5?$CK?5@ 00488534     main.obj
 0003:00001578       ??_C@_0EB@EIMO@r?4?$EA?4g?5y?5$?5?$CK?5?$CK?5?$CD?5?$CK?5?$CK?5?$CD?5?$CD?5?$CK?5?$CD?5?$CD?5?$CK?5@ 00488578     main.obj
 0003:000015bc       ??_C@_0EB@OKLK@r?4r?4?$EA?4g?5u?5?$CG?5?$CK?5?$CK?5?$CK?5?$CK?5?$CD?5X?5?$CK?5?$CD?5?$CK?5?$CK?5@ 004885bc     main.obj
 0003:00001600       ??_C@_0EB@BOCJ@r?4r?4r?4?$EA?4k?5i?5?$DL?5?$CD?5X?5?$CD?5?$CK?5X?5?$CK?5?$CK?5?$CK?5?$CD?5@ 00488600     main.obj
 0003:00001644       ??_C@_0EB@OKDP@r?4r?4r?4r?4?$EA?4l?5f?5?$DL?5?$CD?5?$CK?5?$CD?5?$CD?5?$CD?5?$CK?5?$CK?5?$CD?5@ 00488644     main.obj
 0003:00001688       ??_C@_0EB@OJAJ@r?4r?4r?4r?4r?4?$EA?4z?5f?5d?5p?5i?5y?5i?5d?5d?5y?5@ 00488688     main.obj
 0003:000016cc       ??_C@_0EB@EILI@r?4r?4r?4r?4r?4r?4?$EA?4Q?5W?5Q?5Q?5Q?5Q?5Q?5W?5Q?5@ 004886cc     main.obj
 0003:00001710       ??_C@_09DJEL@r?4?5c?5None?$AA@ 00488710     main.obj
 0003:0000171c       ??_C@_0N@JL@e?4?5c?5?$CDFEFFFE?$AA@ 0048871c     main.obj
 0003:0000172c       ??_C@_0N@OKHM@w?4?5c?5?$CDF5FAF5?$AA@ 0048872c     main.obj
 0003:0000173c       ??_C@_0M@MHFA@q?4?5c?5gray96?$AA@ 0048873c     main.obj
 0003:00001748       ??_C@_0N@JDDO@0?4?5c?5?$CDEAF4EA?$AA@ 00488748     main.obj
 0003:00001758       ??_C@_0N@BJBD@9?4?5c?5?$CDE6F2E6?$AA@ 00488758     main.obj
 0003:00001768       ??_C@_0N@NOIM@8?4?5c?5?$CDECECEC?$AA@ 00488768     main.obj
 0003:00001778       ??_C@_0N@IMNN@7?4?5c?5?$CDE4E4E4?$AA@ 00488778     main.obj
 0003:00001788       ??_C@_0N@BNLG@6?4?5c?5?$CDD9EBD9?$AA@ 00488788     main.obj
 0003:00001798       ??_C@_0N@FEEJ@5?4?5c?5?$CDD5E9D5?$AA@ 00488798     main.obj
 0003:000017a8       ??_C@_0N@HAHO@4?4?5c?5?$CDD2E7D2?$AA@ 004887a8     main.obj
 0003:000017b8       ??_C@_0N@FPBO@3?4?5c?5?$CDCBE4CB?$AA@ 004887b8     main.obj
 0003:000017c8       ??_C@_0N@CBOH@2?4?5c?5?$CDC3E0C3?$AA@ 004887c8     main.obj
 0003:000017d8       ??_C@_0N@CCMO@1?4?5c?5?$CDDBDBDB?$AA@ 004887d8     main.obj
 0003:000017e8       ??_C@_0N@MGPB@?$DM?4?5c?5?$CDD3D4D3?$AA@ 004887e8     main.obj
 0003:000017f8       ??_C@_0N@PKKA@?0?4?5c?5?$CDCFD1CF?$AA@ 004887f8     main.obj
 0003:00001808       ??_C@_0N@DPME@?$DO?4?5c?5?$CDC0DEC0?$AA@ 00488808     main.obj
 0003:00001818       ??_C@_0N@NKDI@?3?4?5c?5?$CDCBCCCB?$AA@ 00488818     main.obj
 0003:00001828       ??_C@_0N@IBPA@?$DL?4?5c?5?$CDC4C4C4?$AA@ 00488828     main.obj
 0003:00001838       ??_C@_0N@PNHN@?9?4?5c?5?$CDBDDDBD?$AA@ 00488838     main.obj
 0003:00001848       ??_C@_0N@PLL@?$DN?4?5c?5?$CDB2D6B2?$AA@ 00488848     main.obj
 0003:00001858       ??_C@_0N@BJFA@?$CK?4?5c?5?$CDBFC2BF?$AA@ 00488858     main.obj
 0003:00001868       ??_C@_0N@JEMG@?$CG?4?5c?5?$CDABD2AB?$AA@ 00488868     main.obj
 0003:00001878       ??_C@_0N@CAJD@?$CF?4?5c?5?$CDA5D9A5?$AA@ 00488878     main.obj
 0003:00001888       ??_C@_0N@LFON@$?4?5c?5?$CDA0D5A0?$AA@ 00488888     main.obj
 0003:00001898       ??_C@_0N@ICBK@?$CD?4?5c?5?$CDA4CEA4?$AA@ 00488898     main.obj
 0003:000018a8       ??_C@_0N@OFIM@?$EA?4?5c?5?$CD84F184?$AA@ 004888a8     main.obj
 0003:000018b8       ??_C@_0N@EDDL@?$CL?4?5c?5?$CD9AD19A?$AA@ 004888b8     main.obj
 0003:000018c8       ??_C@_0N@MMJH@O?4?5c?5?$CD9CCB9C?$AA@ 004888c8     main.obj
 0003:000018d8       ??_C@_0N@CADN@o?4?5c?5?$CD93CB93?$AA@ 004888d8     main.obj
 0003:000018e8       ??_C@_0N@CPDK@X?4?5c?5?$CD94C594?$AA@ 004888e8     main.obj
 0003:000018f8       ??_C@_0N@EFGF@?4?4?5c?5?$CD8FC98F?$AA@ 004888f8     main.obj
 0003:00001908       ??_C@_0N@OMMM@?5?4?5c?5?$CD8CC48C?$AA@ 00488908     main.obj
 0003:00001918       ??_C@_0N@CGJA@?$HM?5?5c?5?$CD86C286?$AA@ 00488918     main.obj
 0003:00001928       ??_C@_0N@CMAI@?$HN?5?5c?5?$CDBBBCBB?$AA@ 00488928     main.obj
 0003:00001938       ??_C@_0N@EDEK@?$HL?5?5c?5?$CDB3B4B3?$AA@ 00488938     main.obj
 0003:00001948       ??_C@_0N@EFNJ@?$FL?5?5c?5?$CDABABAB?$AA@ 00488948     main.obj
 0003:00001958       ??_C@_0N@JPMP@?$FN?5?5c?5?$CDA5A8A5?$AA@ 00488958     main.obj
 0003:00001968       ??_C@_0N@MKIA@?8?5?5c?5?$CDA0A4A0?$AA@ 00488968     main.obj
 0003:00001978       ??_C@_0N@MIGD@?$GA?5?5c?5?$CD9DBD9D?$AA@ 00488978     main.obj
 0003:00001988       ??_C@_0N@FMEG@_?5?5c?5?$CD9EA19E?$AA@ 00488988     main.obj
 0003:00001998       ??_C@_0N@CDIK@?$CJ?5?5c?5?$CD8EBA8E?$AA@ 00488998     main.obj
 0003:000019a8       ??_C@_0N@DKHK@?$CI?5?5c?5?$CD83BD83?$AA@ 004889a8     main.obj
 0003:000019b8       ??_C@_0N@EAOM@?1?5?5c?5?$CD9A9E9A?$AA@ 004889b8     main.obj
 0003:000019c8       ??_C@_0N@HDE@?$FO?5?5c?5?$CD959A95?$AA@ 004889c8     main.obj
 0003:000019d8       ??_C@_0N@NNLM@?$HO?5?5c?5?$CD939693?$AA@ 004889d8     main.obj
 0003:000019e8       ??_C@_0N@KOPI@?$CB?5?5c?5?$CD808680?$AA@ 004889e8     main.obj
 0003:000019f8       ??_C@_0N@KFIB@Q?5?5c?5?$CD6BF36B?$AA@ 004889f8     main.obj
 0003:00001a08       ??_C@_0N@GBP@W?5?5c?5?$CD67F467?$AA@ 00488a08     main.obj
 0003:00001a18       ??_C@_0N@BEJL@E?5?5c?5?$CD62EC62?$AA@ 00488a18     main.obj
 0003:00001a28       ??_C@_0N@PCMP@R?5?5c?5?$CD6ADB6A?$AA@ 00488a28     main.obj
 0003:00001a38       ??_C@_0N@DJH@T?5?5c?5?$CD65D265?$AA@ 00488a38     main.obj
 0003:00001a48       ??_C@_0N@FNKJ@Y?5?5c?5?$CD5DEA5D?$AA@ 00488a48     main.obj
 0003:00001a58       ??_C@_0N@EGKD@U?5?5c?5?$CD5BE45B?$AA@ 00488a58     main.obj
 0003:00001a68       ??_C@_0N@MIGG@I?5?5c?5?$CD55E255?$AA@ 00488a68     main.obj
 0003:00001a78       ??_C@_0N@LKIM@P?5?5c?5?$CD53DC53?$AA@ 00488a78     main.obj
 0003:00001a88       ??_C@_0N@DJA@L?5?5c?5?$CD4EDB4E?$AA@ 00488a88     main.obj
 0003:00001a98       ??_C@_0N@GFNM@K?5?5c?5?$CD4CD54C?$AA@ 00488a98     main.obj
 0003:00001aa8       ??_C@_0N@NIAB@J?5?5c?5?$CD45D245?$AA@ 00488aa8     main.obj
 0003:00001ab8       ??_C@_0N@CKGA@H?5?5c?5?$CD42CB42?$AA@ 00488ab8     main.obj
 0003:00001ac8       ??_C@_0N@ONLD@G?5?5c?5?$CD7CBC7C?$AA@ 00488ac8     main.obj
 0003:00001ad8       ??_C@_0N@GNAN@F?5?5c?5?$CD79B679?$AA@ 00488ad8     main.obj
 0003:00001ae8       ??_C@_0N@KKJH@D?5?5c?5?$CD76B876?$AA@ 00488ae8     main.obj
 0003:00001af8       ??_C@_0N@NFJK@S?5?5c?5?$CD72B572?$AA@ 00488af8     main.obj
 0003:00001b08       ??_C@_0N@LGMF@A?5?5c?5?$CD6CB26C?$AA@ 00488b08     main.obj
 0003:00001b18       ??_C@_0N@LAHG@Z?5?5c?5?$CD64AD64?$AA@ 00488b18     main.obj
 0003:00001b28       ??_C@_0N@BBN@C?5?5c?5?$CD7D987D?$AA@ 00488b28     main.obj
 0003:00001b38       ??_C@_0N@LDPH@V?5?5c?5?$CD688D68?$AA@ 00488b38     main.obj
 0003:00001b48       ??_C@_0N@MPCC@B?5?5c?5?$CD5DAA5D?$AA@ 00488b48     main.obj
 0003:00001b58       ??_C@_0N@GPND@N?5?5c?5?$CD5AA65A?$AA@ 00488b58     main.obj
 0003:00001b68       ??_C@_0N@MEB@M?5?5c?5?$CD54A454?$AA@ 00488b68     main.obj
 0003:00001b78       ??_C@_0N@OCPN@m?5?5c?5?$CD4CAE4C?$AA@ 00488b78     main.obj
 0003:00001b88       ??_C@_0N@PKIN@n?5?5c?5?$CD4CA14C?$AA@ 00488b88     main.obj
 0003:00001b98       ??_C@_0N@JNOA@b?5?5c?5?$CD548D54?$AA@ 00488b98     main.obj
 0003:00001ba8       ??_C@_0N@GEEI@v?5?5c?5?$CD4C9E4C?$AA@ 00488ba8     main.obj
 0003:00001bb8       ??_C@_0N@OIDD@c?5?5c?5?$CD449C44?$AA@ 00488bb8     main.obj
 0003:00001bc8       ??_C@_0N@FPFN@x?5?5c?5?$CD468846?$AA@ 00488bc8     main.obj
 0003:00001bd8       ??_C@_0N@CGGK@z?5?5c?5?$CD3FFA3F?$AA@ 00488bd8     main.obj
 0003:00001be8       ??_C@_0N@PAFJ@l?5?5c?5?$CD31FA31?$AA@ 00488be8     main.obj
 0003:00001bf8       ??_C@_0N@KEIG@k?5?5c?5?$CD24FB24?$AA@ 00488bf8     main.obj
 0003:00001c08       ??_C@_0N@FNLM@j?5?5c?5?$CD3DCA3D?$AA@ 00488c08     main.obj
 0003:00001c18       ??_C@_0N@BHIL@h?5?5c?5?$CD3BC53B?$AA@ 00488c18     main.obj
 0003:00001c28       ??_C@_0N@PKIK@g?5?5c?5?$CD1DFC1D?$AA@ 00488c28     main.obj
 0003:00001c38       ??_C@_0N@PDIE@f?5?5c?5?$CD13FC13?$AA@ 00488c38     main.obj
 0003:00001c48       ??_C@_0N@DHFH@d?5?5c?5?$CD11F511?$AA@ 00488c48     main.obj
 0003:00001c58       ??_C@_0N@BDOE@s?5?5c?5?$CD14ED14?$AA@ 00488c58     main.obj
 0003:00001c68       ??_C@_0N@CGMM@a?5?5c?5?$CD11E711?$AA@ 00488c68     main.obj
 0003:00001c78       ??_C@_0N@KMAP@p?5?5c?5?$CD0EFC0E?$AA@ 00488c78     main.obj
 0003:00001c88       ??_C@_0N@HAMJ@i?5?5c?5?$CD0DF50D?$AA@ 00488c88     main.obj
 0003:00001c98       ??_C@_0N@KMMK@u?5?5c?5?$CD02FD02?$AA@ 00488c98     main.obj
 0003:00001ca8       ??_C@_0N@DDJG@y?5?5c?5?$CD01F301?$AA@ 00488ca8     main.obj
 0003:00001cb8       ??_C@_0N@KABK@t?5?5c?5?$CD00D800?$AA@ 00488cb8     main.obj
 0003:00001cc8       ??_C@_0N@KKOL@r?5?5c?5?$CD00D300?$AA@ 00488cc8     main.obj
 0003:00001cd8       ??_C@_0N@MNFA@e?5?5c?5?$CD00CA00?$AA@ 00488cd8     main.obj
 0003:00001ce8       ??_C@_0N@HMCO@w?5?5c?5?$CD00C000?$AA@ 00488ce8     main.obj
 0003:00001cf8       ??_C@_0N@CGI@q?5?5c?5?$CD3CBE3C?$AA@ 00488cf8     main.obj
 0003:00001d08       ??_C@_0N@PKLL@0?5?5c?5?$CD33BB33?$AA@ 00488d08     main.obj
 0003:00001d18       ??_C@_0N@KKGP@9?5?5c?5?$CD2CB92C?$AA@ 00488d18     main.obj
 0003:00001d28       ??_C@_0N@EHMO@8?5?5c?5?$CD2BB42B?$AA@ 00488d28     main.obj
 0003:00001d38       ??_C@_0N@PLKF@7?5?5c?5?$CD23AD23?$AA@ 00488d38     main.obj
 0003:00001d48       ??_C@_0N@KJCE@6?5?5c?5?$CD3C993C?$AA@ 00488d48     main.obj
 0003:00001d58       ??_C@_0N@NCJA@5?5?5c?5?$CD3A953A?$AA@ 00488d58     main.obj
 0003:00001d68       ??_C@_0N@NLJO@4?5?5c?5?$CD369536?$AA@ 00488d68     main.obj
 0003:00001d78       ??_C@_0N@NKGI@3?5?5c?5?$CD318F31?$AA@ 00488d78     main.obj
 0003:00001d88       ??_C@_0N@MEKH@2?5?5c?5?$CD2E922E?$AA@ 00488d88     main.obj
 0003:00001d98       ??_C@_0N@MJAA@1?5?5c?5?$CD2A8C2A?$AA@ 00488d98     main.obj
 0003:00001da8       ??_C@_0N@FPIC@?$DM?5?5c?5?$CD248B24?$AA@ 00488da8     main.obj
 0003:00001db8       ??_C@_0N@ECNO@?0?5?5c?5?$CD228722?$AA@ 00488db8     main.obj
 0003:00001dc8       ??_C@_0N@CKM@?$DO?5?5c?5?$CD1DAA1D?$AA@ 00488dc8     main.obj
 0003:00001dd8       ??_C@_0N@HGPC@?3?5?5c?5?$CD1BA41B?$AA@ 00488dd8     main.obj
 0003:00001de8       ??_C@_0N@HFEO@?$DL?5?5c?5?$CD14A414?$AA@ 00488de8     main.obj
 0003:00001df8       ??_C@_0N@JPFH@?9?5?5c?5?$CD129D12?$AA@ 00488df8     main.obj
 0003:00001e08       ??_C@_0N@IBFF@?$DN?5?5c?5?$CD1B851B?$AA@ 00488e08     main.obj
 0003:00001e18       ??_C@_0N@OJFG@?$CK?5?5c?5?$CD138313?$AA@ 00488e18     main.obj
 0003:00001e28       ??_C@_0N@LBCM@?$CG?5?5c?5?$CD0D9A0D?$AA@ 00488e28     main.obj
 0003:00001e38       ??_C@_0N@MEOH@?$CF?5?5c?5?$CD0B940B?$AA@ 00488e38     main.obj
 0003:00001e48       ??_C@_0N@MHFL@$?5?5c?5?$CD049404?$AA@ 00488e48     main.obj
 0003:00001e58       ??_C@_0N@KICL@?$CD?5?5c?5?$CD0D810D?$AA@ 00488e58     main.obj
 0003:00001e68       ??_C@_0N@LIEI@?$EA?5?5c?5?$CD018B01?$AA@ 00488e68     main.obj
 0003:00001e78       ??_C@_0N@BIGA@?$CL?5?5c?5?$CD008300?$AA@ 00488e78     main.obj
 0003:00001e88       ??_C@_0N@MNPH@O?5?5c?5?$CD117F11?$AA@ 00488e88     main.obj
 0003:00001e98       ??_C@_0N@FEGM@o?5?5c?5?$CD0A7E0A?$AA@ 00488e98     main.obj
 0003:00001ea8       ??_C@_0N@CPKB@X?5?5c?5?$CD017A01?$AA@ 00488ea8     main.obj
 0003:00001eb8       ??_C@_0N@LGCD@?4?5?5c?5?$CD007100?$AA@ 00488eb8     main.obj
 0003:00001ec8       ??_C@_0N@NCGC@?5?5?5c?5?$CD006C00?$AA@ 00488ec8     main.obj
 0003:00001ed8       ??_C@_0N@BPOI@32?532?5125?52?5?$AA@ 00488ed8     main.obj
 0003:00001ee8       ??_C@_0CD@NFEO@2messageReceived?$CI?5const?5QString?$CG@ 00488ee8     main.obj
 0003:00001f0c       ??_C@_0CM@INML@1singletonMessageReceived?$CI?5const@ 00488f0c     main.obj
 0003:00001f38       ??_C@_0BN@FFDC@?2panels?$DM?1b?$DO?$DM?1blockquote?$DO?$DM?1p?$DO?$AA@ 00488f38     main.obj
 0003:00001f58       ??_C@_0GF@EDCK@?$DMp?$DOYour?5panel?5applications?5?$CIfile@ 00488f58     main.obj
 0003:00001fc0       ??_C@_0IA@NCMK@?$DM?1b?$DO?$DM?1blockquote?$DO?$DM?1p?$DO?$DMp?$DOIf?5you?5n@ 00488fc0     main.obj
 0003:00002040       ??_C@_0DA@MND@?$DMp?$DOYour?5current?5system?5is?$DM?1p?$DO?$DMp?$DO@ 00489040     main.obj
 0003:00002070       ??_C@_0CB@KJBI@BNCS?5Visual?5Editor?5?9?5Information@ 00489070     main.obj
 0003:00002094       ??_C@_07EOHF@?2panels?$AA@ 00489094     main.obj
 0003:0000209c       ??_C@_0L@INMI@bncs_style?$AA@ 0048909c     main.obj
 0003:000020a8       ??_C@_0BI@OAIA@?2windows?2lib?2qt_plugins?$AA@ 004890a8     main.obj
 0003:000020c0       ??_C@_0BM@CDDB@already?5running?5?9?5giving?5up?$AA@ 004890c0     main.obj
 0003:000020dc       ??_C@_0BD@ODEP@bncs_vis_ed?3?5?$CF1?2?$CF2?$AA@ 004890dc     main.obj
 0003:000020f0       ??_C@_0CP@DOAO@Your?5CC_SYSTEM?5environment?5varia@ 004890f0     main.obj
 0003:00002120       ??_C@_05CKBG@Error?$AA@    00489120     main.obj
 0003:00002128       ??_C@_0CN@FACF@Your?5CC_ROOT?5environment?5variabl@ 00489128     main.obj
 0003:00002158       ??_C@_0P@JLMK@manualSettings?$AA@ 00489158     manualsettingsimpl.obj
 0003:00002168       ??_C@_0CB@PEKI@2doubleClicked?$CI?5QListBoxItem?5?$CK?5?$CJ@ 00489168     objectviewimpl.obj
 0003:0000218c       ??_C@_0CF@GLFI@1itemDoubleClicked?$CI?5QListBoxItem@ 0048918c     objectviewimpl.obj
 0003:000021b4       ??_C@_0BP@KAMA@2highlighted?$CI?5QListBoxItem?5?$CK?5?$CJ?$AA@ 004891b4     objectviewimpl.obj
 0003:000021d4       ??_C@_0CD@OELB@1itemHighlighted?$CI?5QListBoxItem?5?$CK@ 004891d4     objectviewimpl.obj
 0003:000021f8       ??_C@_0P@FCG@New?5Control?5ID?$AA@ 004891f8     objectviewimpl.obj
 0003:00002208       ??_C@_0N@FIJK@Enter?5new?5ID?$AA@ 00489208     objectviewimpl.obj
 0003:00002218       ??_C@_0P@PED@2dataChanged?$CI?$CJ?$AA@ 00489218     pasteTable.obj
 0003:00002228       ??_C@_0BI@FMDK@1clipboardDataChanged?$CI?$CJ?$AA@ 00489228     pasteTable.obj
 0003:00002240       ??_C@_0HP@FBBJ@There?5are?5not?5enough?5rows?5in?5thi@ 00489240     pasteTable.obj
 0003:000022c0       ??_C@_0KK@MFH@There?5are?5not?5enough?5columns?5in?5@ 004892c0     pasteTable.obj
 0003:0000236c       ??_C@_0FK@PCHC@Trying?5to?5paste?5data?5?$CI?$CF1?5rows?0?5?$CF@ 0048936c     pasteTable.obj
 0003:000023c8       ??_C@_05FLDO@plain?$AA@    004893c8     pasteTable.obj
 0003:000023d0       ??_C@_0GG@FKKF@You?5can?5only?5paste?5into?5table?5wi@ 004893d0     pasteTable.obj
 0003:00002438       ??_C@_0BA@DNOM@Clipboard?5Paste?$AA@ 00489438     pasteTable.obj
 0003:00002448       ??_C@_0EG@BBFA@You?5can?8t?5paste?5without?5a?5starti@ 00489448     pasteTable.obj
 0003:00002490       ??_C@_01PLJA@0?$AA@        00489490     pasteTable.obj
 0003:00002494       ??_C@_0P@COMN@Clipboard?5Copy?$AA@ 00489494     pasteTable.obj
 0003:000024a4       ??_C@_0KD@OONA@This?5control?5can?5not?5support?5mul@ 004894a4     pasteTable.obj
 0003:00002624       ??_C@_0CJ@HCLN@?4wxypppppppppppppppppppppppppppp@ 00489624     pickbox.obj
 0003:00002650       ??_C@_0CJ@DNGA@eqrstttttttttttttttttttttttttttt@ 00489650     pickbox.obj
 0003:0000267c       ??_C@_0CJ@JLIF@lmnnnnnnnnnnnnnnnnnnnnnnnnnnnnnn@ 0048967c     pickbox.obj
 0003:000026a8       ??_C@_0CJ@PPJH@efghhhhhhhhhhhhhhhhhhhhhhhhhhhhh@ 004896a8     pickbox.obj
 0003:000026d4       ??_C@_0CJ@JMFN@?4?$CDabbbbbbbbbbbbbbbbbbbbbbbbbbbbb@ 004896d4     pickbox.obj
 0003:00002700       ??_C@_0M@NLGF@b?5c?5?$CDededed?$AA@ 00489700     pickbox.obj
 0003:0000270c       ??_C@_0M@KPAK@f?5c?5?$CDececea?$AA@ 0048970c     pickbox.obj
 0003:00002718       ??_C@_0M@DKLC@a?5c?5?$CDe9e7e5?$AA@ 00489718     pickbox.obj
 0003:00002724       ??_C@_0M@FAEA@q?5c?5?$CDe6e4e2?$AA@ 00489724     pickbox.obj
 0003:00002730       ??_C@_0M@KFCH@l?5c?5?$CDe4e2dd?$AA@ 00489730     pickbox.obj
 0003:0000273c       ??_C@_0M@NJHP@?$CD?5c?5?$CDe0ddd7?$AA@ 0048973c     pickbox.obj
 0003:00002748       ??_C@_0M@MLND@c?5c?5?$CDd9d9d9?$AA@ 00489748     pickbox.obj
 0003:00002754       ??_C@_0M@LICJ@m?5c?5?$CDd8d8d8?$AA@ 00489754     pickbox.obj
 0003:00002760       ??_C@_0M@IKK@w?5c?5?$CDd6d2cb?$AA@ 00489760     pickbox.obj
 0003:0000276c       ??_C@_0M@IKPA@e?5c?5?$CDd6d2ca?$AA@ 0048976c     pickbox.obj
 0003:00002778       ??_C@_0M@FEBG@?4?5c?5?$CDd4d0c8?$AA@ 00489778     pickbox.obj
 0003:00002784       ??_C@_0M@BGKC@g?5c?5?$CDcecece?$AA@ 00489784     pickbox.obj
 0003:00002790       ??_C@_0M@KGEK@r?5c?5?$CDcdcdcd?$AA@ 00489790     pickbox.obj
 0003:0000279c       ??_C@_0M@CMKG@h?5c?5?$CDc4c4c4?$AA@ 0048979c     pickbox.obj
 0003:000027a8       ??_C@_0M@DBBF@n?5c?5?$CDc0c0c0?$AA@ 004897a8     pickbox.obj
 0003:000027b4       ??_C@_0M@IJJM@i?5c?5?$CDb7b7b7?$AA@ 004897b4     pickbox.obj
 0003:000027c0       ??_C@_0M@BHKD@A?5c?5?$CDb5b1ab?$AA@ 004897c0     pickbox.obj
 0003:000027cc       ??_C@_0M@DKED@s?5c?5?$CDaaaaaa?$AA@ 004897cc     pickbox.obj
 0003:000027d8       ??_C@_0M@KKI@o?5c?5?$CDa9a9a9?$AA@ 004897d8     pickbox.obj
 0003:000027e4       ??_C@_0M@JBBO@t?5c?5?$CDa8a8a8?$AA@ 004897e4     pickbox.obj
 0003:000027f0       ??_C@_0M@LABM@d?5c?5?$CDa09d99?$AA@ 004897f0     pickbox.obj
 0003:000027fc       ??_C@_0M@MKDE@x?5c?5?$CD93928f?$AA@ 004897fc     pickbox.obj
 0003:00002808       ??_C@_0M@HOGN@k?5c?5?$CD8b8883?$AA@ 00489808     pickbox.obj
 0003:00002814       ??_C@_0M@CPND@v?5c?5?$CD767470?$AA@ 00489814     pickbox.obj
 0003:00002820       ??_C@_0M@GKPE@z?5c?5?$CD75736f?$AA@ 00489820     pickbox.obj
 0003:0000282c       ??_C@_0M@FNFB@j?5c?5?$CD5c5c5b?$AA@ 0048982c     pickbox.obj
 0003:00002838       ??_C@_0M@NEHH@u?5c?5?$CD505050?$AA@ 00489838     pickbox.obj
 0003:00002844       ??_C@_0M@NCMD@y?5c?5?$CD272727?$AA@ 00489844     pickbox.obj
 0003:00002850       ??_C@_0M@IFNP@p?5c?5?$CD242424?$AA@ 00489850     pickbox.obj
 0003:0000285c       ??_C@_0L@IMPG@40?525?529?51?$AA@ 0048985c     pickbox.obj
 0003:00002868       ??_C@_0BO@LINI@2currentChanged?5?$CI?5QWidget?5?$CK?5?$CJ?$AA@ 00489868     pickbox.obj
 0003:00002888       ??_C@_08JENB@1clear?$CI?$CJ?$AA@ 00489888     pickbox.obj
 0003:00002894       ??_C@_07PJOC@Buttons?$AA@  00489894     pickbox.obj
 0003:0000289c       ??_C@_0CL@HKND@1byTypeSelectionChanged?$CI?5QListVi@ 0048989c     pickbox.obj
 0003:000028c8       ??_C@_09JLGE@Type?1Name?$AA@ 004898c8     pickbox.obj
 0003:000028d4       ??_C@_07BAKI@By?5Type?$AA@ 004898d4     pickbox.obj
 0003:000028dc       ??_C@_0BM@PLOK@2clicked?$CI?5QListViewItem?5?$CK?5?$CJ?$AA@ 004898dc     pickbox.obj
 0003:000028f8       ??_C@_0CF@BCIK@2selectionChanged?$CI?5QListViewItem@ 004898f8     pickbox.obj
 0003:00002920       ??_C@_0CL@DCGM@1byNameSelectionChanged?$CI?5QListVi@ 00489920     pickbox.obj
 0003:0000294c       ??_C@_0O@HCFO@instances?4xml?$AA@ 0048994c     pickbox.obj
 0003:0000295c       ??_C@_02IBHF@id?$AA@       0048995c     pickbox.obj
 0003:00002960       ??_C@_03HJJN@ref?$AA@      00489960     pickbox.obj
 0003:00002964       ??_C@_07GAIE@Details?$AA@  00489964     pickbox.obj
 0003:0000296c       ??_C@_07HJP@By?5Name?$AA@  0048996c     pickbox.obj
 0003:00002a50       ??_C@_01FCOA@?5?$AA@       00489a50     pickbox_buttonlist.obj
 0003:00002a54       ??_C@_0M@LGMD@buttons?4xml?$AA@ 00489a54     pickbox_buttonlist.obj
 0003:00002a60       ??_C@_0P@KJKF@?2config?2vised?2?$AA@ 00489a60     pickbox_buttonlist.obj
 0003:00002a70       ??_C@_0BG@IMFA@1withSlotSetClicked?$CI?$CJ?$AA@ 00489a70     pickbox_paramlist.obj
 0003:00002a88       ??_C@_0BE@IJNI@1withLabelClicked?$CI?$CJ?$AA@ 00489a88     pickbox_paramlist.obj
 0003:00002a9c       ??_C@_0BN@JGIG@2startDrag?$CI?5QListViewItem?5?$CK?$CJ?$AA@ 00489a9c     pickbox_paramlist.obj
 0003:00002abc       ??_C@_0BN@IKIB@1startDrag?$CI?5QListViewItem?5?$CK?$CJ?$AA@ 00489abc     pickbox_paramlist.obj
 0003:00002adc       ??_C@_0BL@DHCD@?1preferences?1dropwithlabel?$AA@ 00489adc     pickbox_paramlist.obj
 0003:00002af8       ??_C@_04IFBK@BNCS?$AA@     00489af8     pickbox_paramlist.obj
 0003:00002b00       ??_C@_0M@EGJG@BNCS_VIS_ED?$AA@ 00489b00     pickbox_paramlist.obj
 0003:00002b0c       ??_C@_0BD@IEPK@Show?5Only?5Slot?5?$DO?50?$AA@ 00489b0c     pickbox_paramlist.obj
 0003:00002b20       ??_C@_0BA@LPAP@Drop?5with?5label?$AA@ 00489b20     pickbox_paramlist.obj
 0003:00002b30       ??_C@_0BF@CCAE@?2config?2devicetypes?2?$AA@ 00489b30     pickbox_paramlist.obj
 0003:00002b48       ??_C@_0L@IJDO@Instance?3?5?$AA@ 00489b48     pickbox_paramlist.obj
 0003:00002b54       ??_C@_06MJOA@Type?3?5?$AA@ 00489b54     pickbox_paramlist.obj
 0003:00002b5c       ??_C@_0N@PMIF@devicetypes?2?$AA@ 00489b5c     pickbox_paramlist.obj
 0003:00002b6c       ??_C@_05NAGO@false?$AA@    00489b6c     pickbox_paramlist.obj
 0003:00002b74       ??_C@_0BM@KKHC@withSlotSet?9?$DOisChecked?$CI?$CJ?5?$CFd?$AA@ 00489b74     pickbox_paramlist.obj
 0003:00002b90       ??_C@_05JBCM@VisEd?$AA@    00489b90     preferences.obj
 0003:00002b98       ??_C@_09BJNP@VisEd?4ini?$AA@ 00489b98     preferences.obj
 0003:00002ba4       ??_C@_02MIFF@?$CF1?$AA@    00489ba4     preferences.obj
 0003:00002ba8       ??_C@_07ICLA@?1File?$CF1?$AA@ 00489ba8     recentlyusedlist.obj
 0003:00002bb0       ??_C@_05OAGA@?1BNCS?$AA@   00489bb0     recentlyusedlist.obj
 0003:00002bb8       ??_C@_0M@FOEG@1doImport?$CI?$CJ?$AA@ 00489bb8     signalConnectionListDlgimpl.obj
 0003:00002bc4       ??_C@_08IPLG@1doDel?$CI?$CJ?$AA@ 00489bc4     signalConnectionListDlgimpl.obj
 0003:00002bd0       ??_C@_0O@DKJO@1doMoveDown?$CI?$CJ?$AA@ 00489bd0     signalConnectionListDlgimpl.obj
 0003:00002be0       ??_C@_0M@HNB@1doMoveUp?$CI?$CJ?$AA@ 00489be0     signalConnectionListDlgimpl.obj
 0003:00002bec       ??_C@_0BK@ODBI@2valueChanged?$CI?5int?0?5int?5?$CJ?$AA@ 00489bec     signalConnectionListDlgimpl.obj
 0003:00002c08       ??_C@_0BP@KJOL@1tableValueChanged?$CI?5int?0?5int?5?$CJ?$AA@ 00489c08     signalConnectionListDlgimpl.obj
 0003:00002c28       ??_C@_0CJ@EKBG@2clicked?$CI?5int?0?5int?0?5int?0const?5QP@ 00489c28     signalConnectionListDlgimpl.obj
 0003:00002c54       ??_C@_0CO@MMOL@1tableClicked?$CI?5int?0?5int?0?5int?0con@ 00489c54     signalConnectionListDlgimpl.obj
 0003:00002c84       ??_C@_06BNLC@Sender?$AA@   00489c84     signalConnectionListDlgimpl.obj
 0003:00002c8c       ??_C@_08HGED@Receiver?$AA@ 00489c8c     signalConnectionListDlgimpl.obj
 0003:00002c98       ??_C@_05MJIN@Event?$AA@    00489c98     signalConnectionListDlgimpl.obj
 0003:00002ca0       ??_C@_07HCNK@Command?$AA@  00489ca0     signalConnectionListDlgimpl.obj
 0003:00002ca8       ??_C@_05NKBJ@Notes?$AA@    00489ca8     signalConnectionListDlgimpl.obj
 0003:00002cb0       ??_C@_0DA@BAAJ@?$CK?$CK?5NEW?5CONNECTION?$CB?5?$CK?$CK?5PLEASE?5GIV@ 00489cb0     signalConnectionListDlgimpl.obj
 0003:00002ce0       ??_C@_01KPOD@?$DN?$AA@     00489ce0     signalConnectionListDlgimpl.obj
 0003:00002ce4       ??_C@_01FIMD@?$FN?$AA@     00489ce4     signalConnectionListDlgimpl.obj
 0003:00002ce8       ??_C@_01KHLB@?$FL?$AA@     00489ce8     signalConnectionListDlgimpl.obj
 0003:00002cec       ??_C@_07EBLN@?$FLsub?$CF1?$FN?$AA@ 00489cec     signalConnectionListDlgimpl.obj
 0003:00002cf4       ??_C@_07CFGK@?$FLintid?$FN?$AA@ 00489cf4     signalConnectionListDlgimpl.obj
 0003:00002cfc       ??_C@_0P@IDDK@?2?$FL?2?$CC?4?$CL?2?$CC?2?4?4?$CL?2?$FN?$AA@ 00489cfc     signalConnectionListDlgimpl.obj
 0003:00002d0c       ??_C@_0L@GFJL@?2?$FLid?2?4?4?$CL?2?$FN?$AA@ 00489d0c     signalConnectionListDlgimpl.obj
 0003:00002d18       ??_C@_04DMIA@?$FLid?$FN?$AA@ 00489d18     signalConnectionListDlgimpl.obj
 0003:00002d20       ??_C@_09HNHD@?$FLcommand?$FN?$AA@ 00489d20     signalConnectionListDlgimpl.obj
 0003:00002d2c       ??_C@_07MLEH@?$FLvalue?$FN?$AA@ 00489d2c     signalConnectionListDlgimpl.obj
 0003:00002d34       ??_C@_08JCIE@?$FLenable?$FN?$AA@ 00489d34     signalConnectionListDlgimpl.obj
 0003:00002d40       ??_C@_09LEMK@?$FLdisable?$FN?$AA@ 00489d40     signalConnectionListDlgimpl.obj
 0003:00002d4c       ??_C@_06DICK@?$FLhide?$FN?$AA@ 00489d4c     signalConnectionListDlgimpl.obj
 0003:00002d54       ??_C@_06NPBK@?$FLshow?$FN?$AA@ 00489d54     signalConnectionListDlgimpl.obj
 0003:00002d5c       ??_C@_01FDHG@?$CK?$AA@     00489d5c     signalConnectionListDlgimpl.obj
 0003:00002d60       ??_C@_03GDJE@?$CK?$DN?$CK?$AA@ 00489d60     signalConnectionListDlgimpl.obj
 0003:00002d64       ??_C@_04BKLC@Doh?$CB?$AA@  00489d64     signalConnectionListDlgimpl.obj
 0003:00002d6c       ??_C@_0EL@LHNO@Each?5line?5must?5have?5sender?0?5rece@ 00489d6c     signalConnectionListDlgimpl.obj
 0003:00002db8       ??_C@_0M@KFNC@connections?$AA@ 00489db8     signalConnectionListDlgimpl.obj
 0003:00002dc4       ??_C@_03KGFJ@?$DM?$CK?$DO?$AA@ 00489dc4     signalConnectionListDlgimpl.obj
 0003:00002dc8       ??_C@_07DKFD@_events?$AA@  00489dc8     signalConnectionListDlgimpl.obj
 0003:00002dd0       ??_C@_09INHJ@_commands?$AA@ 00489dd0     signalConnectionListDlgimpl.obj
 0003:00002ddc       ??_C@_0CM@EPEM@BNCS_UI?5to?5take?5connection?5infor@ 00489ddc     signalConnectionListDlgimpl.obj
 0003:00002e08       ??_C@_0BD@MGD@manualSizePosition?$AA@ 00489e08     sizeposeditimpl.obj
 0003:00002e1c       ??_C@_0BG@EJHB@device_list_local?4xml?$AA@ 00489e1c     system_setupimpl.obj
 0003:00002e34       ??_C@_05PHNP@Local?$AA@    00489e34     system_setupimpl.obj
 0003:00002e3c       ??_C@_0BH@MIIK@device_list_global?4xml?$AA@ 00489e3c     system_setupimpl.obj
 0003:00002e54       ??_C@_06CBAK@Global?$AA@   00489e54     system_setupimpl.obj
 0003:00002e5c       ??_C@_0N@CNID@System?5Setup?$AA@ 00489e5c     system_setupimpl.obj
 0003:00002e6c       ??_C@_07EANJ@Layout1?$AA@  00489e6c     testsettings.obj
 0003:00002e74       ??_C@_09CGEH@checkShow?$AA@ 00489e74     testsettings.obj
 0003:00002e80       ??_C@_0N@MLE@testInstance?$AA@ 00489e80     testsettings.obj
 0003:00002e90       ??_C@_0L@KEKH@textLabel1?$AA@ 00489e90     testsettings.obj
 0003:00002e9c       ??_C@_09OFGG@layout3_2?$AA@ 00489e9c     testsettings.obj
 0003:00002ea8       ??_C@_0N@CLGI@panelmanSize?$AA@ 00489ea8     testsettings.obj
 0003:00002eb8       ??_C@_0N@EDCN@textLabel1_2?$AA@ 00489eb8     testsettings.obj
 0003:00002ec8       ??_C@_0BH@PIEH@testSettingsBaseLayout?$AA@ 00489ec8     testsettings.obj
 0003:00002ee0       ??_C@_0BB@MOIC@testSettingsBase?$AA@ 00489ee0     testsettings.obj
 0003:00002ef4       ??_C@_05LJEF@Alt?$CLO?$AA@ 00489ef4     testsettings.obj
 0003:00002efc       ??_C@_0EE@LCIK@Show?5this?5dialog?5every?5time?5?$CITur@ 00489efc     testsettings.obj
 0003:00002f40       ??_C@_0BO@KAOM@Instance?5?$CIfor?5this?5test?5only?$CJ?$AA@ 00489f40     testsettings.obj
 0003:00002f60       ??_C@_04JMAB@2048?$AA@     00489f60     testsettings.obj
 0003:00002f68       ??_C@_04BCBD@1920?$AA@     00489f68     testsettings.obj
 0003:00002f70       ??_C@_04BBJC@1600?$AA@     00489f70     testsettings.obj
 0003:00002f78       ??_C@_04IDFD@1366?$AA@     00489f78     testsettings.obj
 0003:00002f80       ??_C@_04OMJM@1280?$AA@     00489f80     testsettings.obj
 0003:00002f88       ??_C@_04HKOM@1024?$AA@     00489f88     testsettings.obj
 0003:00002f90       ??_C@_0O@CBBH@Panelman?5Size?$AA@ 00489f90     testsettings.obj
 0003:00002fa0       ??_C@_0O@OKFE@Test?5Settings?$AA@ 00489fa0     testsettings.obj
 0003:00002fb0       ??_C@_0BE@FDLL@BNCS?5Dialog?5?$CI?$CK?4bsc?$CJ?$AA@ 00489fb0     textedit.obj
 0003:00002fc4       ??_C@_0CD@CPOA@Do?5you?5want?5to?5save?5this?5new?5fil@ 00489fc4     textedit.obj
 0003:00002fe8       ??_C@_03MJGH@?$CC?5?$DP?$AA@ 00489fe8     textedit.obj
 0003:00002fec       ??_C@_0BG@EKEL@Do?5you?5want?5to?5save?5?$CC?$AA@ 00489fec     textedit.obj
 0003:00003004       ??_C@_0N@HLOO@2activated?$CI?$CJ?$AA@ 0048a004     textedit.obj
 0003:00003014       ??_C@_09PPF@1findid?$CI?$CJ?$AA@ 0048a014     textedit.obj
 0003:00003020       ??_C@_05IHMK@?$CGEdit?$AA@ 0048a020     textedit.obj
 0003:00003028       ??_C@_0N@IFMA@file_new?4xpm?$AA@ 0048a028     textedit.obj
 0003:00003038       ??_C@_04GOJF@Find?$AA@     0048a038     textedit.obj
 0003:000038a0       ??_C@_0EB@DAJN@?5?5?5?5?5?5?5?5?5?5?5?5?5?5?5?5?5?5?5?5V?4W?4X?4Y?4Y?4Y?4@ 0048a8a0     vis_ed_mdi.obj
 0003:000038e4       ??_C@_0EB@JGLH@?5?5?5?5?5?5?5?5?5?5?5?5?5?5?5?5?5?5Q?4R?4S?4S?4S?4S?4S?4@ 0048a8e4     vis_ed_mdi.obj
 0003:00003928       ??_C@_0EB@ICCN@?5?5?5?5?5?5?5?5?5?5?5?5?5?5?5?5?5?5H?4N?4O?4O?4O?4O?4O?4@ 0048a928     vis_ed_mdi.obj
 0003:0000396c       ??_C@_0EB@NKGL@?5?5?5?5?5?5?5?5?5?5?5?5?5?5?5?5?5?5H?4K?4L?4L?4L?4L?4L?4@ 0048a96c     vis_ed_mdi.obj
 0003:000039b0       ??_C@_0EB@EEE@?5?5?5?5?5?5?5?5?5?5?5?5?5?5?5?5?5?5H?4C?4I?4I?4I?4I?4I?4@ 0048a9b0     vis_ed_mdi.obj
 0003:000039f4       ??_C@_0EB@CDON@?5?5?5?5?5?5y?4z?4z?4z?4z?4A?4B?4C?4D?4E?4E?4E?4E?4@ 0048a9f4     vis_ed_mdi.obj
 0003:00003a38       ??_C@_0EB@HIFC@?5?5?5?5p?4q?4r?4r?4r?4r?4r?4s?4t?4u?4v?4v?4v?4v?4@ 0048aa38     vis_ed_mdi.obj
 0003:00003a7c       ??_C@_0EB@KLHC@?5?5?5?5?$CD?4g?4h?4h?4h?4h?4i?4j?4k?4l?4m?4m?4m?4m?4@ 0048aa7c     vis_ed_mdi.obj
 0003:00003ac0       ??_C@_0EB@MBK@?5?5?5?5?$CD?48?49?49?49?49?40?4a?4b?4c?4d?4d?4d?4d?4@ 0048aac0     vis_ed_mdi.obj
 0003:00003b04       ??_C@_0EB@JCKF@?5?5?5?5?$CD?4?$HN?4?$HM?4?$HM?4?$HM?4?$HM?41?42?43?44?45?45?45?45?4@ 0048ab04     vis_ed_mdi.obj
 0003:00003b48       ??_C@_0EB@JNKI@?5?5?5?5?$CD?4$?4?$CF?4?$CF?4?$CF?4?$CF?4?$CG?4?$CK?4?$DN?4?9?4?$DL?4?$DO?4?0?4?8?4@ 0048ab48     vis_ed_mdi.obj
 0003:00003b8c       ??_C@_0EB@JNPA@?5?5?5?5S?5T?5U?5U?5U?5U?5V?5M?5W?5X?5Y?5Z?5?$GA?5?5?4@ 0048ab8c     vis_ed_mdi.obj
 0003:00003bd0       ??_C@_0EB@JDNM@?5?5?5?5I?5J?5K?5K?5K?5K?5L?5M?5N?5O?5P?5P?5P?5P?5@ 0048abd0     vis_ed_mdi.obj
 0003:00003c14       ??_C@_0EB@FLPO@?5?5?5?5A?5B?5C?5C?5C?5C?5D?5u?5E?5F?5w?5w?5w?5w?5@ 0048ac14     vis_ed_mdi.obj
 0003:00003c58       ??_C@_0EB@COED@?5?5?5?5q?5r?5s?5s?5s?5s?5t?5u?5v?5w?5x?5x?5x?5x?5@ 0048ac58     vis_ed_mdi.obj
 0003:00003c9c       ??_C@_0EB@KJAF@?5?5?5?5e?5f?5g?5h?5i?5j?5k?5l?5m?5n?5n?5n?5n?5n?5@ 0048ac9c     vis_ed_mdi.obj
 0003:00003ce0       ??_C@_0EB@INGD@?5?5?5?51?52?53?54?55?56?56?57?58?59?59?59?59?59?5@ 0048ace0     vis_ed_mdi.obj
 0003:00003d24       ??_C@_0EB@HGJC@?5?5?5?5_?5?3?5?$DM?5?$DM?5?$DM?5?$DM?5?$DM?5?$DM?5?$DM?5?$FO?5?$FO?5?$FO?5?$FO?5?$FO?5@ 0048ad24     vis_ed_mdi.obj
 0003:00003d68       ??_C@_0EB@KBMP@?5?5?5?5?$HL?5?0?5?$FN?5?$FN?5?$FN?5?$FN?5?$FN?5?$FN?5?$FN?5?$FN?5?$FN?5?$FN?5?$FN?5?$FN?5@ 0048ad68     vis_ed_mdi.obj
 0003:00003dac       ??_C@_0EB@DEDN@?5?5?5?5?$DO?5?0?5?8?5?8?5?8?5?8?5?8?5?8?5?8?5?8?5?8?5?8?5?8?5?8?5@ 0048adac     vis_ed_mdi.obj
 0003:00003df0       ??_C@_0EB@HPBO@?5?5?5?5?$CG?5?$CK?5?$DN?5?$DN?5?$DN?5?$DN?5?$DN?5?$DN?5?$DN?5?$DN?5?$DN?5?$DN?5?$DN?5?$DN?5@ 0048adf0     vis_ed_mdi.obj
 0003:00003e34       ??_C@_0EB@LNKH@?5?5?5?5?4?5?$CL?5?$EA?5?$CD?5?$CD?5?$CD?5?$CD?5?$CD?5?$CD?5?$CD?5?$CD?5?$CD?5?$CD?5?$CD?5@ 0048ae34     vis_ed_mdi.obj
 0003:00003e78       ??_C@_0EB@NNEF@?5?5?5?5?5?5?5?5?5?5?5?5?5?5?5?5?5?5?5?5?5?5?5?5?5?5?5?5?5?5?5?5@ 0048ae78     vis_ed_mdi.obj
 0003:00003ebc       ??_C@_0N@CPFH@?5?$CL?7c?5?$CD797E84?$AA@ 0048aebc     vis_ed_mdi.obj
 0003:00003ecc       ??_C@_0N@DACN@?$GA?4?7c?5?$CD81868B?$AA@ 0048aecc     vis_ed_mdi.obj
 0003:00003edc       ??_C@_0N@OAKG@Z?4?7c?5?$CD81878E?$AA@ 0048aedc     vis_ed_mdi.obj
 0003:00003eec       ??_C@_0N@HIEN@Y?4?7c?5?$CD81888E?$AA@ 0048aeec     vis_ed_mdi.obj
 0003:00003efc       ??_C@_0N@PFMI@X?4?7c?5?$CD82888E?$AA@ 0048aefc     vis_ed_mdi.obj
 0003:00003f0c       ??_C@_0N@PING@W?4?7c?5?$CD81868C?$AA@ 0048af0c     vis_ed_mdi.obj
 0003:00003f1c       ??_C@_0N@CBH@V?4?7c?5?$CD7B7F84?$AA@ 0048af1c     vis_ed_mdi.obj
 0003:00003f2c       ??_C@_0N@DOMB@U?4?7c?5?$CDB2B3B5?$AA@ 0048af2c     vis_ed_mdi.obj
 0003:00003f3c       ??_C@_0N@CAED@T?4?7c?5?$CDAECCE0?$AA@ 0048af3c     vis_ed_mdi.obj
 0003:00003f4c       ??_C@_0N@GFGH@S?4?7c?5?$CDA5C6DC?$AA@ 0048af4c     vis_ed_mdi.obj
 0003:00003f5c       ??_C@_0N@HNGG@R?4?7c?5?$CDCFDCE5?$AA@ 0048af5c     vis_ed_mdi.obj
 0003:00003f6c       ??_C@_0N@MOCM@Q?4?7c?5?$CD76797D?$AA@ 0048af6c     vis_ed_mdi.obj
 0003:00003f7c       ??_C@_0N@EEBF@P?4?7c?5?$CD1667A2?$AA@ 0048af7c     vis_ed_mdi.obj
 0003:00003f8c       ??_C@_0N@LJDM@O?4?7c?5?$CD005999?$AA@ 0048af8c     vis_ed_mdi.obj
 0003:00003f9c       ??_C@_0N@IFMD@N?4?7c?5?$CD94B9D4?$AA@ 0048af9c     vis_ed_mdi.obj
 0003:00003fac       ??_C@_0N@HECG@M?4?7c?5?$CD176CA5?$AA@ 0048afac     vis_ed_mdi.obj
 0003:00003fbc       ??_C@_0N@FAPE@L?4?7c?5?$CD00619E?$AA@ 0048afbc     vis_ed_mdi.obj
 0003:00003fcc       ??_C@_0N@PFBE@K?4?7c?5?$CD94B9D5?$AA@ 0048afcc     vis_ed_mdi.obj
 0003:00003fdc       ??_C@_0N@BELM@J?4?7c?5?$CD1770A8?$AA@ 0048afdc     vis_ed_mdi.obj
 0003:00003fec       ??_C@_0N@LBLO@I?4?7c?5?$CD0069A2?$AA@ 0048afec     vis_ed_mdi.obj
 0003:00003ffc       ??_C@_0N@PIPB@H?4?7c?5?$CD828487?$AA@ 0048affc     vis_ed_mdi.obj
 0003:0000400c       ??_C@_0N@DPJO@G?4?7c?5?$CDC8CACC?$AA@ 0048b00c     vis_ed_mdi.obj
 0003:0000401c       ??_C@_0N@HGHB@F?4?7c?5?$CD1775AA?$AA@ 0048b01c     vis_ed_mdi.obj
 0003:0000402c       ??_C@_0N@HGPL@E?4?7c?5?$CD0071A6?$AA@ 0048b02c     vis_ed_mdi.obj
 0003:0000403c       ??_C@_0N@LBIG@D?4?7c?5?$CD0071A7?$AA@ 0048b03c     vis_ed_mdi.obj
 0003:0000404c       ??_C@_0N@OMOA@C?4?7c?5?$CD94BAD5?$AA@ 0048b04c     vis_ed_mdi.obj
 0003:0000405c       ??_C@_0N@PCBB@B?4?7c?5?$CD828387?$AA@ 0048b05c     vis_ed_mdi.obj
 0003:0000406c       ??_C@_0N@LNKL@A?4?7c?5?$CD707276?$AA@ 0048b06c     vis_ed_mdi.obj
 0003:0000407c       ??_C@_0N@JGHB@z?4?7c?5?$CD6D6F73?$AA@ 0048b07c     vis_ed_mdi.obj
 0003:0000408c       ??_C@_0N@BEGL@y?4?7c?5?$CD6F7275?$AA@ 0048b08c     vis_ed_mdi.obj
 0003:0000409c       ??_C@_0N@OOJB@x?4?7c?5?$CDC8C9CB?$AA@ 0048b09c     vis_ed_mdi.obj
 0003:000040ac       ??_C@_0N@NKLI@w?4?7c?5?$CD1B79AC?$AA@ 0048b0ac     vis_ed_mdi.obj
 0003:000040bc       ??_C@_0N@MFKF@v?4?7c?5?$CD0A78AA?$AA@ 0048b0bc     vis_ed_mdi.obj
 0003:000040cc       ??_C@_0N@GMEM@u?4?7c?5?$CD0B78AB?$AA@ 0048b0cc     vis_ed_mdi.obj
 0003:000040dc       ??_C@_0N@OOHG@t?4?7c?5?$CD93BAD5?$AA@ 0048b0dc     vis_ed_mdi.obj
 0003:000040ec       ??_C@_0N@FLBC@s?4?7c?5?$CD8C8F8F?$AA@ 0048b0ec     vis_ed_mdi.obj
 0003:000040fc       ??_C@_0N@GNIB@r?4?7c?5?$CDC8D6B9?$AA@ 0048b0fc     vis_ed_mdi.obj
 0003:0000410c       ??_C@_0N@LEOF@q?4?7c?5?$CDD4DEC9?$AA@ 0048b10c     vis_ed_mdi.obj
 0003:0000411c       ??_C@_0N@OOMK@p?4?7c?5?$CD9A9C9E?$AA@ 0048b11c     vis_ed_mdi.obj
 0003:0000412c       ??_C@_0N@PNND@o?4?7c?5?$CDC7C8CA?$AA@ 0048b12c     vis_ed_mdi.obj
 0003:0000413c       ??_C@_0N@HKHF@n?4?7c?5?$CD217CAE?$AA@ 0048b13c     vis_ed_mdi.obj
 0003:0000414c       ??_C@_0N@BJO@m?4?7c?5?$CD167EAF?$AA@ 0048b14c     vis_ed_mdi.obj
 0003:0000415c       ??_C@_0N@KALH@l?4?7c?5?$CD177FB0?$AA@ 0048b15c     vis_ed_mdi.obj
 0003:0000416c       ??_C@_0N@PODK@k?4?7c?5?$CD92BAD5?$AA@ 0048b16c     vis_ed_mdi.obj
 0003:0000417c       ??_C@_0N@KHGM@j?4?7c?5?$CD7A8279?$AA@ 0048b17c     vis_ed_mdi.obj
 0003:0000418c       ??_C@_0N@BMHF@i?4?7c?5?$CD3C7208?$AA@ 0048b18c     vis_ed_mdi.obj
 0003:0000419c       ??_C@_0N@LLPC@h?4?7c?5?$CD3D7209?$AA@ 0048b19c     vis_ed_mdi.obj
 0003:000041ac       ??_C@_0N@KDMF@g?4?7c?5?$CD658F3C?$AA@ 0048b1ac     vis_ed_mdi.obj
 0003:000041bc       ??_C@_0N@JLBL@f?4?7c?5?$CDC5C7C9?$AA@ 0048b1bc     vis_ed_mdi.obj
 0003:000041cc       ??_C@_0N@JAGA@e?4?7c?5?$CD247EAF?$AA@ 0048b1cc     vis_ed_mdi.obj
 0003:000041dc       ??_C@_0N@PDOJ@d?4?7c?5?$CD1D83B3?$AA@ 0048b1dc     vis_ed_mdi.obj
 0003:000041ec       ??_C@_0N@LOCO@c?4?7c?5?$CD1E85B3?$AA@ 0048b1ec     vis_ed_mdi.obj
 0003:000041fc       ??_C@_0N@MHCP@b?4?7c?5?$CD91B8D3?$AA@ 0048b1fc     vis_ed_mdi.obj
 0003:0000420c       ??_C@_0N@MGJG@a?4?7c?5?$CD7B837A?$AA@ 0048b20c     vis_ed_mdi.obj
 0003:0000421c       ??_C@_0N@MBFG@0?4?7c?5?$CD477D18?$AA@ 0048b21c     vis_ed_mdi.obj
 0003:0000422c       ??_C@_0N@CEH@9?4?7c?5?$CD487D1A?$AA@ 0048b22c     vis_ed_mdi.obj
 0003:0000423c       ??_C@_0N@OLLL@8?4?7c?5?$CD6A9444?$AA@ 0048b23c     vis_ed_mdi.obj
 0003:0000424c       ??_C@_0N@JLGI@7?4?7c?5?$CDC1C3C6?$AA@ 0048b24c     vis_ed_mdi.obj
 0003:0000425c       ??_C@_0N@JENL@6?4?7c?5?$CD2580B0?$AA@ 0048b25c     vis_ed_mdi.obj
 0003:0000426c       ??_C@_0N@DILN@5?4?7c?5?$CD2088B4?$AA@ 0048b26c     vis_ed_mdi.obj
 0003:0000427c       ??_C@_0N@KNNG@4?4?7c?5?$CD2089B5?$AA@ 0048b27c     vis_ed_mdi.obj
 0003:0000428c       ??_C@_0N@DHAO@3?4?7c?5?$CD8DB6D0?$AA@ 0048b28c     vis_ed_mdi.obj
 0003:0000429c       ??_C@_0N@CLBL@2?4?7c?5?$CD7B837B?$AA@ 0048b29c     vis_ed_mdi.obj
 0003:000042ac       ??_C@_0N@KIKL@1?4?7c?5?$CD518729?$AA@ 0048b2ac     vis_ed_mdi.obj
 0003:000042bc       ??_C@_0N@GNPE@?$HM?4?7c?5?$CD51872A?$AA@ 0048b2bc     vis_ed_mdi.obj
 0003:000042cc       ??_C@_0N@LCAA@?$HN?4?7c?5?$CD6E984B?$AA@ 0048b2cc     vis_ed_mdi.obj
 0003:000042dc       ??_C@_0N@ENII@?$FL?4?7c?5?$CDBDBFC2?$AA@ 0048b2dc     vis_ed_mdi.obj
 0003:000042ec       ??_C@_0N@OFA@?$DM?4?7c?5?$CD2082B1?$AA@ 0048b2ec     vis_ed_mdi.obj
 0003:000042fc       ??_C@_0N@PFKK@?3?4?7c?5?$CD1D8EB8?$AA@ 0048b2fc     vis_ed_mdi.obj
 0003:0000430c       ??_C@_0N@EJCM@_?4?7c?5?$CD2994BD?$AA@ 0048b30c     vis_ed_mdi.obj
 0003:0000431c       ??_C@_0N@JLNM@?$CI?4?7c?5?$CD339AC0?$AA@ 0048b31c     vis_ed_mdi.obj
 0003:0000432c       ??_C@_0N@ICCE@?1?4?7c?5?$CD3B9EC3?$AA@ 0048b32c     vis_ed_mdi.obj
 0003:0000433c       ??_C@_0N@CBHL@?$FO?4?7c?5?$CD41A1C5?$AA@ 0048b33c     vis_ed_mdi.obj
 0003:0000434c       ??_C@_0N@BIPJ@?$FN?4?7c?5?$CD47A4C7?$AA@ 0048b34c     vis_ed_mdi.obj
 0003:0000435c       ??_C@_0N@GJPC@?$HL?4?7c?5?$CD46A4C7?$AA@ 0048b35c     vis_ed_mdi.obj
 0003:0000436c       ??_C@_0N@LFBI@?$HO?4?7c?5?$CD44A2C6?$AA@ 0048b36c     vis_ed_mdi.obj
 0003:0000437c       ??_C@_0N@OEE@?$CB?4?7c?5?$CD40A0C4?$AA@ 0048b37c     vis_ed_mdi.obj
 0003:0000438c       ??_C@_0N@PIDE@?$CJ?4?7c?5?$CD399DC2?$AA@ 0048b38c     vis_ed_mdi.obj
 0003:0000439c       ??_C@_0N@MDPH@?8?4?7c?5?$CD3199C0?$AA@ 0048b39c     vis_ed_mdi.obj
 0003:000043ac       ??_C@_0N@GMBN@?0?4?7c?5?$CD2693BC?$AA@ 0048b3ac     vis_ed_mdi.obj
 0003:000043bc       ??_C@_0N@HAOM@?$DO?4?7c?5?$CD1C8DB8?$AA@ 0048b3bc     vis_ed_mdi.obj
 0003:000043cc       ??_C@_0N@PLHO@?$DL?4?7c?5?$CD188CB7?$AA@ 0048b3cc     vis_ed_mdi.obj
 0003:000043dc       ??_C@_0N@FGLA@?9?4?7c?5?$CD198DB8?$AA@ 0048b3dc     vis_ed_mdi.obj
 0003:000043ec       ??_C@_0N@MHBH@?$DN?4?7c?5?$CD89B2CD?$AA@ 0048b3ec     vis_ed_mdi.obj
 0003:000043fc       ??_C@_0N@IOBB@?$CK?4?7c?5?$CD7B847C?$AA@ 0048b3fc     vis_ed_mdi.obj
 0003:0000440c       ??_C@_0N@PHPC@?$CG?4?7c?5?$CD589135?$AA@ 0048b40c     vis_ed_mdi.obj
 0003:0000441c       ??_C@_0N@OGNA@?$CF?4?7c?5?$CD599037?$AA@ 0048b41c     vis_ed_mdi.obj
 0003:0000442c       ??_C@_0N@CNAF@$?4?7c?5?$CD719D50?$AA@ 0048b42c     vis_ed_mdi.obj
 0003:0000443c       ??_C@_0N@OJJO@?$CD?4?7c?5?$CDB8BABC?$AA@ 0048b43c     vis_ed_mdi.obj
 0003:0000444c       ??_C@_0N@MAAH@?$EA?4?7c?5?$CDBABBBF?$AA@ 0048b44c     vis_ed_mdi.obj
 0003:0000445c       ??_C@_0N@PNHJ@?$CL?4?7c?5?$CD3596BE?$AA@ 0048b45c     vis_ed_mdi.obj
 0003:0000446c       ??_C@_0N@OLMJ@?4?4?7c?5?$CD4CB0CF?$AA@ 0048b46c     vis_ed_mdi.obj
 0003:0000447c       ??_C@_0N@ILFC@?5?4?7c?5?$CD57B6D2?$AA@ 0048b47c     vis_ed_mdi.obj
 0003:0000448c       ??_C@_0N@LLHP@?$GA?5?7c?5?$CD58B6D2?$AA@ 0048b48c     vis_ed_mdi.obj
 0003:0000449c       ??_C@_0N@FLMJ@Z?5?7c?5?$CD56B5D2?$AA@ 0048b49c     vis_ed_mdi.obj
 0003:000044ac       ??_C@_0N@MLO@Y?5?7c?5?$CD49AFCE?$AA@ 0048b4ac     vis_ed_mdi.obj
 0003:000044bc       ??_C@_0N@ENC@X?5?7c?5?$CD36A6C8?$AA@ 0048b4bc     vis_ed_mdi.obj
 0003:000044cc       ??_C@_0N@KMHP@W?5?7c?5?$CD8DB6CF?$AA@ 0048b4cc     vis_ed_mdi.obj
 0003:000044dc       ??_C@_0N@CGLE@V?5?7c?5?$CD5F9A41?$AA@ 0048b4dc     vis_ed_mdi.obj
 0003:000044ec       ??_C@_0N@BOKG@U?5?7c?5?$CD609A42?$AA@ 0048b4ec     vis_ed_mdi.obj
 0003:000044fc       ??_C@_0N@BAED@T?5?7c?5?$CD74A055?$AA@ 0048b4fc     vis_ed_mdi.obj
 0003:0000450c       ??_C@_0N@HKN@S?5?7c?5?$CDB8B9BB?$AA@ 0048b50c     vis_ed_mdi.obj
 0003:0000451c       ??_C@_0N@PJKE@R?5?7c?5?$CDB6B8BB?$AA@ 0048b51c     vis_ed_mdi.obj
 0003:0000452c       ??_C@_0N@DBFG@Q?5?7c?5?$CD3BA0C5?$AA@ 0048b52c     vis_ed_mdi.obj
 0003:0000453c       ??_C@_0N@GOLD@P?5?7c?5?$CD49B8D4?$AA@ 0048b53c     vis_ed_mdi.obj
 0003:0000454c       ??_C@_0N@CGFL@O?5?7c?5?$CD49B9D5?$AA@ 0048b54c     vis_ed_mdi.obj
 0003:0000455c       ??_C@_0N@GFKH@N?5?7c?5?$CD95BED3?$AA@ 0048b55c     vis_ed_mdi.obj
 0003:0000456c       ??_C@_0N@DGMN@M?5?7c?5?$CD7B847D?$AA@ 0048b56c     vis_ed_mdi.obj
 0003:0000457c       ??_C@_0N@NCLB@L?5?7c?5?$CD65A24A?$AA@ 0048b57c     vis_ed_mdi.obj
 0003:0000458c       ??_C@_0N@NKKG@K?5?7c?5?$CD65A14B?$AA@ 0048b58c     vis_ed_mdi.obj
 0003:0000459c       ??_C@_0N@CPMC@J?5?7c?5?$CD76A358?$AA@ 0048b59c     vis_ed_mdi.obj
 0003:000045ac       ??_C@_0N@KBPL@I?5?7c?5?$CDB7B8BA?$AA@ 0048b5ac     vis_ed_mdi.obj
 0003:000045bc       ??_C@_0N@JEDB@H?5?7c?5?$CDB2B4B8?$AA@ 0048b5bc     vis_ed_mdi.obj
 0003:000045cc       ??_C@_0N@MHPI@G?5?7c?5?$CD39A0C4?$AA@ 0048b5cc     vis_ed_mdi.obj
 0003:000045dc       ??_C@_0N@OFBA@F?5?7c?5?$CD47B9D5?$AA@ 0048b5dc     vis_ed_mdi.obj
 0003:000045ec       ??_C@_0N@JNOO@E?5?7c?5?$CD92BBD0?$AA@ 0048b5ec     vis_ed_mdi.obj
 0003:000045fc       ??_C@_0N@GKAP@D?5?7c?5?$CD6AAA51?$AA@ 0048b5fc     vis_ed_mdi.obj
 0003:0000460c       ??_C@_0N@OCID@C?5?7c?5?$CD6AA952?$AA@ 0048b60c     vis_ed_mdi.obj
 0003:0000461c       ??_C@_0N@KGFD@B?5?7c?5?$CD77A559?$AA@ 0048b61c     vis_ed_mdi.obj
 0003:0000462c       ??_C@_0N@PIMP@A?5?7c?5?$CDB5B6B9?$AA@ 0048b62c     vis_ed_mdi.obj
 0003:0000463c       ??_C@_0N@FDPM@z?5?7c?5?$CDAFB1B5?$AA@ 0048b63c     vis_ed_mdi.obj
 0003:0000464c       ??_C@_0N@IMBL@y?5?7c?5?$CD389FC4?$AA@ 0048b64c     vis_ed_mdi.obj
 0003:0000465c       ??_C@_0N@FDJH@x?5?7c?5?$CD47B7D4?$AA@ 0048b65c     vis_ed_mdi.obj
 0003:0000466c       ??_C@_0N@LJBF@w?5?7c?5?$CD47B8D5?$AA@ 0048b66c     vis_ed_mdi.obj
 0003:0000467c       ??_C@_0N@PFAN@v?5?7c?5?$CD8EB8CD?$AA@ 0048b67c     vis_ed_mdi.obj
 0003:0000468c       ??_C@_0N@GIHG@u?5?7c?5?$CD7B857D?$AA@ 0048b68c     vis_ed_mdi.obj
 0003:0000469c       ??_C@_0N@PGHA@t?5?7c?5?$CD6EB254?$AA@ 0048b69c     vis_ed_mdi.obj
 0003:000046ac       ??_C@_0N@PJFP@s?5?7c?5?$CD6EB055?$AA@ 0048b6ac     vis_ed_mdi.obj
 0003:000046bc       ??_C@_0N@GLGP@r?5?7c?5?$CD77A75A?$AA@ 0048b6bc     vis_ed_mdi.obj
 0003:000046cc       ??_C@_0N@GGOC@q?5?7c?5?$CDB4B5B7?$AA@ 0048b6cc     vis_ed_mdi.obj
 0003:000046dc       ??_C@_0N@FENH@p?5?7c?5?$CD9D9FA2?$AA@ 0048b6dc     vis_ed_mdi.obj
 0003:000046ec       ??_C@_0N@PJKH@o?5?7c?5?$CD92B5C8?$AA@ 0048b6ec     vis_ed_mdi.obj
 0003:000046fc       ??_C@_0N@ECBE@n?5?7c?5?$CD8CB3C8?$AA@ 0048b6fc     vis_ed_mdi.obj
 0003:0000470c       ??_C@_0N@NDHD@m?5?7c?5?$CDAEBDC7?$AA@ 0048b70c     vis_ed_mdi.obj
 0003:0000471c       ??_C@_0N@MMKJ@l?5?7c?5?$CD778677?$AA@ 0048b71c     vis_ed_mdi.obj
 0003:0000472c       ??_C@_0N@OGCM@k?5?7c?5?$CD7DBF64?$AA@ 0048b72c     vis_ed_mdi.obj
 0003:0000473c       ??_C@_0N@EJPH@j?5?7c?5?$CD77BB5D?$AA@ 0048b73c     vis_ed_mdi.obj
 0003:0000474c       ??_C@_0N@KMBM@i?5?7c?5?$CD72B857?$AA@ 0048b74c     vis_ed_mdi.obj
 0003:0000475c       ??_C@_0N@PKEG@h?5?7c?5?$CD70B755?$AA@ 0048b75c     vis_ed_mdi.obj
 0003:0000476c       ??_C@_0N@OFMP@g?5?7c?5?$CD71B856?$AA@ 0048b76c     vis_ed_mdi.obj
 0003:0000477c       ??_C@_0N@HEEH@f?5?7c?5?$CD77A959?$AA@ 0048b77c     vis_ed_mdi.obj
 0003:0000478c       ??_C@_0N@IJNP@e?5?7c?5?$CDB2B3B6?$AA@ 0048b78c     vis_ed_mdi.obj
 0003:0000479c       ??_C@_0N@CKNG@d?5?7c?5?$CD737A80?$AA@ 0048b79c     vis_ed_mdi.obj
 0003:000047ac       ??_C@_0N@PHIG@c?5?7c?5?$CD727478?$AA@ 0048b7ac     vis_ed_mdi.obj
 0003:000047bc       ??_C@_0N@MCMI@b?5?7c?5?$CD737579?$AA@ 0048b7bc     vis_ed_mdi.obj
 0003:000047cc       ??_C@_0N@DCOO@a?5?7c?5?$CD797B7F?$AA@ 0048b7cc     vis_ed_mdi.obj
 0003:000047dc       ??_C@_0N@KCNN@0?5?7c?5?$CD7D857E?$AA@ 0048b7dc     vis_ed_mdi.obj
 0003:000047ec       ??_C@_0N@OCM@9?5?7c?5?$CD7D8A7E?$AA@ 0048b7ec     vis_ed_mdi.obj
 0003:000047fc       ??_C@_0N@NEOO@8?5?7c?5?$CD7D8E7C?$AA@ 0048b7fc     vis_ed_mdi.obj
 0003:0000480c       ??_C@_0N@PPKE@7?5?7c?5?$CD97C487?$AA@ 0048b80c     vis_ed_mdi.obj
 0003:0000481c       ??_C@_0N@HDCF@6?5?7c?5?$CDA0D68C?$AA@ 0048b81c     vis_ed_mdi.obj
 0003:0000482c       ??_C@_0N@GCBK@5?5?7c?5?$CD9ED58A?$AA@ 0048b82c     vis_ed_mdi.obj
 0003:0000483c       ??_C@_0N@KOJK@4?5?7c?5?$CD97D080?$AA@ 0048b83c     vis_ed_mdi.obj
 0003:0000484c       ??_C@_0N@IGIK@3?5?7c?5?$CD8BCB73?$AA@ 0048b84c     vis_ed_mdi.obj
 0003:0000485c       ??_C@_0N@JLD@2?5?7c?5?$CD84B367?$AA@ 0048b85c     vis_ed_mdi.obj
 0003:0000486c       ??_C@_0N@ILF@1?5?7c?5?$CDAFB0B4?$AA@ 0048b86c     vis_ed_mdi.obj
 0003:0000487c       ??_C@_0N@KBA@?$HM?5?7c?5?$CD8C8E92?$AA@ 0048b87c     vis_ed_mdi.obj
 0003:0000488c       ??_C@_0N@BIBH@?$HN?5?7c?5?$CDA0BD8A?$AA@ 0048b88c     vis_ed_mdi.obj
 0003:0000489c       ??_C@_0N@CHJ@?$FL?5?7c?5?$CDA1DC89?$AA@ 0048b89c     vis_ed_mdi.obj
 0003:000048ac       ??_C@_0N@GKIB@?$DM?5?7c?5?$CDA0DA88?$AA@ 0048b8ac     vis_ed_mdi.obj
 0003:000048bc       ??_C@_0N@EAEO@?3?5?7c?5?$CD9FC688?$AA@ 0048b8bc     vis_ed_mdi.obj
 0003:000048cc       ??_C@_0N@JJHN@_?5?7c?5?$CDABACB0?$AA@ 0048b8cc     vis_ed_mdi.obj
 0003:000048dc       ??_C@_0N@LOKM@?$CI?5?7c?5?$CD8B8D90?$AA@ 0048b8dc     vis_ed_mdi.obj
 0003:000048ec       ??_C@_0N@HIJH@?1?5?7c?5?$CD9DBA87?$AA@ 0048b8ec     vis_ed_mdi.obj
 0003:000048fc       ??_C@_0N@IAJN@?$FO?5?7c?5?$CDA0DB88?$AA@ 0048b8fc     vis_ed_mdi.obj
 0003:0000490c       ??_C@_0N@DHPP@?$FN?5?7c?5?$CDA0DB87?$AA@ 0048b90c     vis_ed_mdi.obj
 0003:0000491c       ??_C@_0N@MADD@?$HL?5?7c?5?$CDA8A9AD?$AA@ 0048b91c     vis_ed_mdi.obj
 0003:0000492c       ??_C@_0N@MDMJ@?$HO?5?7c?5?$CD898B8F?$AA@ 0048b92c     vis_ed_mdi.obj
 0003:0000493c       ??_C@_0N@CKJE@?$CB?5?7c?5?$CD9AB885?$AA@ 0048b93c     vis_ed_mdi.obj
 0003:0000494c       ??_C@_0N@HOJH@?$CJ?5?7c?5?$CDA1DD89?$AA@ 0048b94c     vis_ed_mdi.obj
 0003:0000495c       ??_C@_0N@GJEK@?8?5?7c?5?$CDA1DC88?$AA@ 0048b95c     vis_ed_mdi.obj
 0003:0000496c       ??_C@_0N@EPAH@?0?5?7c?5?$CD9EC586?$AA@ 0048b96c     vis_ed_mdi.obj
 0003:0000497c       ??_C@_0N@GPFF@?$DO?5?7c?5?$CDA5A6AA?$AA@ 0048b97c     vis_ed_mdi.obj
 0003:0000498c       ??_C@_0N@EPI@?$DL?5?7c?5?$CD7C7F82?$AA@ 0048b98c     vis_ed_mdi.obj
 0003:0000499c       ??_C@_0N@ENCM@?9?5?7c?5?$CDB5C1AD?$AA@ 0048b99c     vis_ed_mdi.obj
 0003:000049ac       ??_C@_0N@KFDI@?$DN?5?7c?5?$CDA6BA96?$AA@ 0048b9ac     vis_ed_mdi.obj
 0003:000049bc       ??_C@_0N@GLAO@?$CK?5?7c?5?$CDAFBFA3?$AA@ 0048b9bc     vis_ed_mdi.obj
 0003:000049cc       ??_C@_0N@BNFI@?$CG?5?7c?5?$CD96989C?$AA@ 0048b9cc     vis_ed_mdi.obj
 0003:000049dc       ??_C@_0N@MBEK@?$CF?5?7c?5?$CD7F8483?$AA@ 0048b9dc     vis_ed_mdi.obj
 0003:000049ec       ??_C@_0N@EHAJ@$?5?7c?5?$CD868B88?$AA@ 0048b9ec     vis_ed_mdi.obj
 0003:000049fc       ??_C@_0N@BEIK@?$CD?5?7c?5?$CD868C88?$AA@ 0048b9fc     vis_ed_mdi.obj
 0003:00004a0c       ??_C@_0N@JNMG@?$EA?5?7c?5?$CD868B89?$AA@ 0048ba0c     vis_ed_mdi.obj
 0003:00004a1c       ??_C@_0N@NKKI@?$CL?5?7c?5?$CD838887?$AA@ 0048ba1c     vis_ed_mdi.obj
 0003:00004a2c       ??_C@_0N@NEHE@?4?5?7c?5?$CD787C7C?$AA@ 0048ba2c     vis_ed_mdi.obj
 0003:00004a3c       ??_C@_09HCEN@?5?5?7c?5None?$AA@ 0048ba3c     vis_ed_mdi.obj
 0003:00004a48       ??_C@_0M@GIMH@32?532?5185?52?$AA@ 0048ba48     vis_ed_mdi.obj
 0003:00004a54       ??_C@_0BB@HBGG@?4?4?$CDaabbbbbaa?$CD?4?4?4?$AA@ 0048ba54     vis_ed_mdi.obj
 0003:00004a68       ??_C@_0BB@NKKL@?4?4?$CDaabbbaaaa?$CD?4?4?4?$AA@ 0048ba68     vis_ed_mdi.obj
 0003:00004a7c       ??_C@_0BB@NKDM@?4?4?$CDaabbba?$CDc?$CD?4?4?4?4?$AA@ 0048ba7c     vis_ed_mdi.obj
 0003:00004a90       ??_C@_0M@OFE@c?5c?5?$CD808080?$AA@ 0048ba90     vis_ed_mdi.obj
 0003:00004a9c       ??_C@_0M@GDEK@b?5c?5?$CD000080?$AA@ 0048ba9c     vis_ed_mdi.obj
 0003:00004aa8       ??_C@_0BF@OBFF@?4?$CDbbbbbbbbbbbbbbbb?$CD?4?$AA@ 0048baa8     vis_ed_mdi.obj
 0003:00004ac0       ??_C@_0BF@MGHH@?4?$CDaaaaaaaaaaaaaaaa?$CD?4?$AA@ 0048bac0     vis_ed_mdi.obj
 0003:00004ad8       ??_C@_0BF@LLNL@?4?$CD?$CD?$CD?$CD?$CD?$CD?$CD?$CD?$CD?$CD?$CD?$CD?$CD?$CD?$CD?$CD?$CD?$CD?4?$AA@ 0048bad8     vis_ed_mdi.obj
 0003:00004af0       ??_C@_0BF@DFPH@?4?4?4?4?4?4?4?4?4?4?4?4?4?4?4?4?4?4?4?4?$AA@ 0048baf0     vis_ed_mdi.obj
 0003:00004b08       ??_C@_0M@IAMF@b?5c?5?$CDffffff?$AA@ 0048bb08     vis_ed_mdi.obj
 0003:00004b14       ??_C@_0M@KNLP@a?5c?5?$CD0000ff?$AA@ 0048bb14     vis_ed_mdi.obj
 0003:00004b20       ??_C@_09HKND@20?520?54?51?$AA@ 0048bb20     vis_ed_mdi.obj
 0003:00004b2c       ??_C@_0BB@POFB@?4?4?$CD?$CD?$CD?$CD?$CD?$CD?$CD?$CD?$CD?$CD?$CD?$CD?$CD?4?$AA@ 0048bb2c     vis_ed_mdi.obj
 0003:00004b40       ??_C@_0BB@PLHF@?4?$CDaa?$CD?$CD?$CD?$CD?$CD?$CDbb?$CDa?$CD?4?$AA@ 0048bb40     vis_ed_mdi.obj
 0003:00004b54       ??_C@_0BB@KPKN@?4?$CDaa?$CD?$CD?$CD?$CD?$CD?$CD?$CD?$CD?$CDa?$CD?4?$AA@ 0048bb54     vis_ed_mdi.obj
 0003:00004b68       ??_C@_0BB@PGHE@?4?$CDaaaaaaaaaaaa?$CD?4?$AA@ 0048bb68     vis_ed_mdi.obj
 0003:00004b7c       ??_C@_0BB@LBIM@?4?$CDaa?$CD?$CD?$CD?$CD?$CD?$CD?$CD?$CDaa?$CD?4?$AA@ 0048bb7c     vis_ed_mdi.obj
 0003:00004b90       ??_C@_0BB@LLIH@?4?$CDa?$CDbbbbbbbb?$CDa?$CD?4?$AA@ 0048bb90     vis_ed_mdi.obj
 0003:00004ba4       ??_C@_0BB@JKAA@?4?$CDa?$CDbbbbbbbb?$CD?$CD?$CD?4?$AA@ 0048bba4     vis_ed_mdi.obj
 0003:00004bb8       ??_C@_0BB@ENLM@?4?$CDa?$CDbbbbbbbb?$CDb?$CD?4?$AA@ 0048bbb8     vis_ed_mdi.obj
 0003:00004bcc       ??_C@_0BB@CDHC@?4?$CD?$CD?$CD?$CD?$CD?$CD?$CD?$CD?$CD?$CD?$CD?$CD?$CD?$CD?4?$AA@ 0048bbcc     vis_ed_mdi.obj
 0003:00004be0       ??_C@_0M@JKH@b?5c?5?$CDd4d0c8?$AA@ 0048bbe0     vis_ed_mdi.obj
 0003:00004bec       ??_C@_0M@GOBP@a?5c?5?$CD808000?$AA@ 0048bbec     vis_ed_mdi.obj
 0003:00004bf8       ??_C@_09PCND@16?516?54?51?$AA@ 0048bbf8     vis_ed_mdi.obj
 0003:00004c04       ??_C@_0BF@CAGK@?$CF?$CB?$CB?$CB?$CB?$CB?$CB?$CB?$CB?$CB?$CB?$CB?$CB?$CB?$CB?$CB?$CB?$CB?$CB?$CF?$AA@ 0048bc04     vis_ed_mdi.obj
 0003:00004c1c       ??_C@_0BF@EEGF@?$CB?$CD?$CD?$CD?$CB?$CB?$CB?$CB?$CB?$CB?$CB?$CB?$CB$$$?$CB?$CD?$CD?$CB?$AA@ 0048bc1c     vis_ed_mdi.obj
 0003:00004c34       ??_C@_0BF@DDDG@?$CB?$CD?$CD?$CD?$CB?$CB?$CB?$CB?$CB?$CB?$CB?$CB?$CB?$CB?$CB?$CB?$CB?$CD?$CD?$CB?$AA@ 0048bc34     vis_ed_mdi.obj
 0003:00004c4c       ??_C@_0BF@GOIM@?$CB?$CD?$CD?$CD?$CD?$CD?$CD?$CD?$CD?$CD?$CD?$CD?$CD?$CD?$CD?$CD?$CD?$CD?$CD?$CB?$AA@ 0048bc4c     vis_ed_mdi.obj
 0003:00004c64       ??_C@_0BF@HOD@?$CB?$CD?$CD?$CD?$CD?$CK?$CK?$CK?$CB?$CB?$CB?$CB?$CB?$CK?$CK?$CK?$CD?$CD?$CD?$CB?$AA@ 0048bc64     vis_ed_mdi.obj
 0003:00004c7c       ??_C@_0BF@OLE@?$CB?$CD?$CD?$CD?$CB$?$CB?$CJ?$CJ?$CJ?$CJ?$CJ?$CJ?$CB$?$CK?$CD?$CD?$CD?$CB?$AA@ 0048bc7c     vis_ed_mdi.obj
 0003:00004c94       ??_C@_0BF@LGEJ@?$CB?$CD?$CD?$CB$?$CB?$CJ?$CJ?$CJ?$CJ?$CJ?$CJ?$CJ?$CJ?$CB$?$CB?$CD?$CD?$CB?$AA@ 0048bc94     vis_ed_mdi.obj
 0003:00004cac       ??_C@_0BF@BCOH@?$CB?$CD?$CD?$CB?$CB?$CI?$CI?$CJ?$CJ?$CJ?$CJ?$CJ?$CJ?$CG?$CG?$CB?$CB?$CD?$CD?$CB?$AA@ 0048bcac     vis_ed_mdi.obj
 0003:00004cc4       ??_C@_0BF@PKDH@?$CB?$CD?$CD?$CB?$CB?$CI?$CI?$CI?$CJ?$CJ?$CJ?$CJ?$CG?$CG?$CG?$CB?$CB?$CD?$CD?$CB?$AA@ 0048bcc4     vis_ed_mdi.obj
 0003:00004cdc       ??_C@_0BF@CAOL@?$CB?$CD?$CD?$CB?$CB?$CI?$CI?$CI?$CI?$CI?$CJ?$CG?$CG?$CG?$CG?$CB?$CB?$CD?$CD?$CB?$AA@ 0048bcdc     vis_ed_mdi.obj
 0003:00004cf4       ??_C@_0BF@NKOI@?$CB?$CD?$CD?$CB?$CB?$CI?$CI?$CI?$CI?$CG?$CG?$CG?$CG?$CG?$CG?$CB?$CB?$CD?$CD?$CB?$AA@ 0048bcf4     vis_ed_mdi.obj
 0003:00004d0c       ??_C@_0BF@NJMD@?$CB?$CD?$CD?$CB?$CB?$CI?$CI?$CI?$CG?$CG?$CG?$CG?$CG?$CG?$CG?$CB?$CB?$CD?$CD?$CB?$AA@ 0048bd0c     vis_ed_mdi.obj
 0003:00004d24       ??_C@_0BF@IFAC@?$CB?$CD?$CD?$CB$?$CB?$CI?$CG?$CG?$CG?$CG?$CG?$CG?$CG?$CB$?$CB?$CB?$CB?$CB?$AA@ 0048bd24     vis_ed_mdi.obj
 0003:00004d3c       ??_C@_0BF@PHMB@?$CB?$CD?$CD?$CB$$?$CB?$CG?$CG?$CG?$CG?$CG?$CG?$CB$$?$CB?$CF?$CF?$CB?$AA@ 0048bd3c     vis_ed_mdi.obj
 0003:00004d54       ??_C@_0BF@HIFD@?$CB?$CD?$CD?$CB$$$?$CB?$CB?$CB?$CB?$CB?$CB$$$?$CB?$CF?$CF?$CB?$AA@ 0048bd54     vis_ed_mdi.obj
 0003:00004d6c       ??_C@_0BF@IFMO@?$CB?$CB?$CB?$CB?$CB?$CB?$CB?$CB?$CB?$CB?$CB?$CB?$CB?$CB?$CB?$CB?$CB?$CB?$CB?$CB?$AA@ 0048bd6c     vis_ed_mdi.obj
 0003:00004d84       ??_C@_09OLIL@?$CK?5c?5black?$AA@ 0048bd84     vis_ed_mdi.obj
 0003:00004d90       ??_C@_08PAFA@?$CJ?5c?5red1?$AA@ 0048bd90     vis_ed_mdi.obj
 0003:00004d9c       ??_C@_0M@OGGF@?$CI?5c?5?$CDffff00?$AA@ 0048bd9c     vis_ed_mdi.obj
 0003:00004da8       ??_C@_0M@NJGC@?$CG?5c?5?$CD00C900?$AA@ 0048bda8     vis_ed_mdi.obj
 0003:00004db4       ??_C@_08NLFA@?$CF?5c?5None?$AA@ 0048bdb4     vis_ed_mdi.obj
 0003:00004dc0       ??_C@_0BC@LLFF@$?5c?5?$CD999999999999?$AA@ 0048bdc0     vis_ed_mdi.obj
 0003:00004dd4       ??_C@_0M@OKBP@?$CD?5c?5?$CD002EFF?$AA@ 0048bdd4     vis_ed_mdi.obj
 0003:00004de0       ??_C@_08BLGP@?$CB?5c?5?$CD000?$AA@ 0048bde0     vis_ed_mdi.obj
 0003:00004dec       ??_C@_09PKHE@?5?5c?5white?$AA@ 0048bdec     vis_ed_mdi.obj
 0003:00004df8       ??_C@_09PACK@20?520?59?51?$AA@ 0048bdf8     vis_ed_mdi.obj
 0003:00004e04       ??_C@_0BB@MCDK@?4?4?4?410000?4?4?4?4?4?4?4?$AA@ 0048be04     vis_ed_mdi.obj
 0003:00004e18       ??_C@_0BB@DFDL@?4?4?410?4?4?4?400?4?4?40?4?$AA@ 0048be18     vis_ed_mdi.obj
 0003:00004e2c       ??_C@_0BB@JOEP@?4?40?4?4?4?4?4?4?4?40?500?4?$AA@ 0048be2c     vis_ed_mdi.obj
 0003:00004e40       ??_C@_0BB@IMO@?4?40?4?4?4?4?4?4?4?4?4000?4?$AA@ 0048be40     vis_ed_mdi.obj
 0003:00004e54       ??_C@_0BB@LNNC@?40?4?4?4?4?4?4?4?4?40000?4?$AA@ 0048be54     vis_ed_mdi.obj
 0003:00004e68       ??_C@_0BB@GBAB@?400000?4?4?4?4?4?4?4?40?4?$AA@ 0048be68     vis_ed_mdi.obj
 0003:00004e7c       ??_C@_0BB@OCKD@?40000?4?4?4?4?4?4?4?4?40?4?$AA@ 0048be7c     vis_ed_mdi.obj
 0003:00004e90       ??_C@_0BB@MKIK@?4000?4?4?4?4?4?4?4?4?40?4?4?$AA@ 0048be90     vis_ed_mdi.obj
 0003:00004ea4       ??_C@_0BB@GNNE@?400?40?4?4?4?4?4?4?4?40?4?4?$AA@ 0048bea4     vis_ed_mdi.obj
 0003:00004eb8       ??_C@_0BB@EMDD@?40?4?4?400?4?4?4?401?4?4?4?$AA@ 0048beb8     vis_ed_mdi.obj
 0003:00004ecc       ??_C@_0BB@MAIG@?4?4?4?4?4?4?400001?4?4?4?4?$AA@ 0048becc     vis_ed_mdi.obj
 0003:00004ee0       ??_C@_0M@NLEL@a?5c?5?$CD808080?$AA@ 0048bee0     vis_ed_mdi.obj
 0003:00004eec       ??_C@_0BB@EDBC@?$CD?$CD?$CD?$CD?$CD?$CD?$CD?$CD?$CD?$CD?$CD?4?4?4?4?4?$AA@ 0048beec     vis_ed_mdi.obj
 0003:00004f00       ??_C@_0BB@FAKH@?$CD?$CDccccccccc?$CD?4?4?4?4?$AA@ 0048bf00     vis_ed_mdi.obj
 0003:00004f14       ??_C@_0BB@PKHG@?$CDa?$CDccccccccc?$CD?4?4?4?$AA@ 0048bf14     vis_ed_mdi.obj
 0003:00004f28       ??_C@_0BB@GMGJ@?$CDba?$CDccccccccc?$CD?4?4?$AA@ 0048bf28     vis_ed_mdi.obj
 0003:00004f3c       ??_C@_0BB@DEIG@?$CDaba?$CDccccccccc?$CD?4?$AA@ 0048bf3c     vis_ed_mdi.obj
 0003:00004f50       ??_C@_0BB@BOID@?$CDbaba?$CD?$CD?$CD?$CD?$CD?$CD?$CD?$CD?$CD?$CD?4?$AA@ 0048bf50     vis_ed_mdi.obj
 0003:00004f64       ??_C@_0BB@JAEI@?$CDababababa?$CD?4?4?4?4?4?$AA@ 0048bf64     vis_ed_mdi.obj
 0003:00004f78       ??_C@_0BB@DABB@?$CDbabababab?$CD?4?4?4?4?4?$AA@ 0048bf78     vis_ed_mdi.obj
 0003:00004f8c       ??_C@_0BB@CDON@?$CDaba?$CD?$CD?$CD?$CD?$CD?$CD?$CD?4?4?4?4?4?$AA@ 0048bf8c     vis_ed_mdi.obj
 0003:00004fa0       ??_C@_0BB@BDGN@?4?$CD?$CD?$CD?4?4?4?4?4?4?4?4?$CD?$CD?$CD?4?$AA@ 0048bfa0     vis_ed_mdi.obj
 0003:00004fb4       ??_C@_0BB@OIOO@?4?4?4?4?4?4?4?4?4?4?4?4?4?$CD?$CD?4?$AA@ 0048bfb4     vis_ed_mdi.obj
 0003:00004fc8       ??_C@_0BB@NBHN@?4?4?4?4?4?4?4?4?$CD?4?4?4?$CD?4?$CD?4?$AA@ 0048bfc8     vis_ed_mdi.obj
 0003:00004fdc       ??_C@_0BB@DEJG@?4?4?4?4?4?4?4?4?4?$CD?$CD?$CD?4?4?4?4?$AA@ 0048bfdc     vis_ed_mdi.obj
 0003:00004ff0       ??_C@_0M@MEPE@b?5c?5?$CDffff00?$AA@ 0048bff0     vis_ed_mdi.obj
 0003:00004ffc       ??_C@_0M@LLAA@c?5c?5?$CD808000?$AA@ 0048bffc     vis_ed_mdi.obj
 0003:00005008       ??_C@_09KAMF@16?516?55?51?$AA@ 0048c008     vis_ed_mdi.obj
 0003:00005014       ??_C@_0BB@INPM@?4?4?$CD?$CD?$CD?$CD?$CD?$CD?$CD?$CD?$CD?$CD?$CD?4?4?4?$AA@ 0048c014     vis_ed_mdi.obj
 0003:00005028       ??_C@_0BB@DDKF@?4?4?$CDaaaaaaaaa?$CD?4?4?4?$AA@ 0048c028     vis_ed_mdi.obj
 0003:0000503c       ??_C@_0BB@MBLB@?4?4?$CDaaaaaa?$CD?$CD?$CD?$CD?4?4?4?$AA@ 0048c03c     vis_ed_mdi.obj
 0003:00005050       ??_C@_0BB@BIHC@?4?4?$CDaaaaaa?$CDa?$CD?4?4?4?4?$AA@ 0048c050     vis_ed_mdi.obj
 0003:00005064       ??_C@_0BB@HKKB@?4?4?$CDaaaaaa?$CD?$CD?4?4?4?4?4?$AA@ 0048c064     vis_ed_mdi.obj
 0003:00005078       ??_C@_0BB@FIMN@?4?4?$CD?$CD?$CD?$CD?$CD?$CD?$CD?$CD?4?4?4?4?4?4?$AA@ 0048c078     vis_ed_mdi.obj
 0003:0000508c       ??_C@_0BB@JLED@?4?4?4?4?4?4?4?4?4?4?4?4?4?4?4?4?$AA@ 0048c08c     vis_ed_mdi.obj
 0003:000050a0       ??_C@_0M@LPFF@a?5c?5?$CDffffff?$AA@ 0048c0a0     vis_ed_mdi.obj
 0003:000050ac       ??_C@_08OIBF@?4?5c?5none?$AA@ 0048c0ac     vis_ed_mdi.obj
 0003:000050b8       ??_C@_0M@JPGB@?$CD?5c?5?$CD000000?$AA@ 0048c0b8     vis_ed_mdi.obj
 0003:000050c4       ??_C@_09EMLC@16?516?53?51?$AA@ 0048c0c4     vis_ed_mdi.obj
 0003:000050d0       ??_C@_06ELKK@main_x?$AA@   0048c0d0     vis_ed_mdi.obj
 0003:000050d8       ??_C@_06OBDN@main_y?$AA@   0048c0d8     vis_ed_mdi.obj
 0003:000050e0       ??_C@_0L@LKDH@main_x_max?$AA@ 0048c0e0     vis_ed_mdi.obj
 0003:000050ec       ??_C@_0L@BKBC@main_y_max?$AA@ 0048c0ec     vis_ed_mdi.obj
 0003:000050f8       ??_C@_06EKPH@main_w?$AA@   0048c0f8     vis_ed_mdi.obj
 0003:00005100       ??_C@_06OCNK@main_h?$AA@   0048c100     vis_ed_mdi.obj
 0003:00005108       ??_C@_08KJMA@main_max?$AA@ 0048c108     vis_ed_mdi.obj
 0003:00005114       ??_C@_06MIIG@dock_x?$AA@   0048c114     vis_ed_mdi.obj
 0003:0000511c       ??_C@_06GCBB@dock_y?$AA@   0048c11c     vis_ed_mdi.obj
 0003:00005124       ??_C@_06MJNL@dock_w?$AA@   0048c124     vis_ed_mdi.obj
 0003:0000512c       ??_C@_06GBPG@dock_h?$AA@   0048c12c     vis_ed_mdi.obj
 0003:00005134       ??_C@_08LIOO@undocked?$AA@ 0048c134     vis_ed_mdi.obj
 0003:00005140       ??_C@_0BL@IIFH@?$CF1?5Configuration?5?1?5Widgets?$AA@ 0048c140     vis_ed_mdi.obj
 0003:0000515c       ??_C@_0BO@LEPP@2windowActivated?$CI?5QWidget?5?$CK?5?$CJ?$AA@ 0048c15c     vis_ed_mdi.obj
 0003:0000517c       ??_C@_0CF@OIDG@1windowActivationChange?$CI?5QWidget@ 0048c17c     vis_ed_mdi.obj
 0003:000051a4       ??_C@_09GJFH@workspace?$AA@ 0048c1a4     vis_ed_mdi.obj
 0003:000051b0       ??_C@_0M@FBJM@BNCS?5Vis?5Ed?$AA@ 0048c1b0     vis_ed_mdi.obj
 0003:000051bc       ??_C@_08CBLO@?4bncs_ui?$AA@ 0048c1bc     vis_ed_mdi.obj
 0003:000051c8       ??_C@_0BJ@JPOA@?2config?2vised?2templates?2?$AA@ 0048c1c8     vis_ed_mdi.obj
 0003:000051e4       ??_C@_0O@CCJO@vis_ed_widget?$AA@ 0048c1e4     vis_ed_mdi.obj
 0003:000051f4       ??_C@_0BN@FEAM@1windowsMenuActivated?$CI?5int?5?$CJ?$AA@ 0048c1f4     vis_ed_mdi.obj
 0003:00005214       ??_C@_04NGIG@?$CG?$CF1?5?$AA@ 0048c214     vis_ed_mdi.obj
 0003:0000521c       ??_C@_0M@DFJB@1closeAll?$CI?$CJ?$AA@ 0048c21c     vis_ed_mdi.obj
 0003:00005228       ??_C@_0L@FIKF@?$CGClose?5All?$AA@ 0048c228     vis_ed_mdi.obj
 0003:00005234       ??_C@_07DJOA@1tile?$CI?$CJ?$AA@ 0048c234     vis_ed_mdi.obj
 0003:0000523c       ??_C@_05DCKH@?$CGTile?$AA@ 0048c23c     vis_ed_mdi.obj
 0003:00005244       ??_C@_0L@IFL@1cascade?$CI?$CJ?$AA@ 0048c244     vis_ed_mdi.obj
 0003:00005250       ??_C@_08BDGE@?$CGCascade?$AA@ 0048c250     vis_ed_mdi.obj
 0003:0000525c       ??_C@_06OLEK@dialog?$AA@   0048c25c     vis_ed_mdi.obj
 0003:00005264       ??_C@_0BO@EJCE@open?5file?5dialogChoose?5a?5file?$AA@ 0048c264     vis_ed_mdi.obj
 0003:00005284       ??_C@_0CG@INDI@BNCS?5Components?5?1?5Dialogs?5?$CI?$CK?4bnc@ 0048c284     vis_ed_mdi.obj
 0003:000052ac       ??_C@_0L@LLFB@?1last_file?$AA@ 0048c2ac     vis_ed_mdi.obj
 0003:000052b8       ??_C@_0N@CKKL@BNCS_VIS_ED_?$AA@ 0048c2b8     vis_ed_mdi.obj
 0003:000052c8       ??_C@_0M@LKAF@Information?$AA@ 0048c2c8     vis_ed_mdi.obj
 0003:000052d4       ??_C@_0CF@IMCI@Please?5save?5the?5panel?5before?5rel@ 0048c2d4     vis_ed_mdi.obj
 0003:000052fc       ??_C@_0L@EHMG@New?5Dialog?$AA@ 0048c2fc     vis_ed_mdi.obj
 0003:00005308       ??_C@_0L@HMDO@New?5Script?$AA@ 0048c308     vis_ed_mdi.obj
 0003:00005314       ??_C@_08CPG@textedit?$AA@  0048c314     vis_ed_mdi.obj
 0003:00005320       ??_C@_0DA@MHK@2itemRename?$CI?5const?5QString?5?$CG?0?5co@ 0048c320     vis_ed_mdi.obj
 0003:00005350       ??_C@_0DA@BNFA@1renameItem?$CI?5const?5QString?5?$CG?0?5co@ 0048c350     vis_ed_mdi.obj
 0003:00005380       ??_C@_0CB@NPGF@2itemSelected?$CI?5const?5QString?5?$CG?5?$CJ@ 0048c380     vis_ed_mdi.obj
 0003:000053a4       ??_C@_0CC@PDGA@1highlightItem?$CI?5const?5QString?5?$CG?5@ 0048c3a4     vis_ed_mdi.obj
 0003:000053c8       ??_C@_0BP@LKFN@2loadScript?$CI?5const?5QString?5?$CG?5?$CJ?$AA@ 0048c3c8     vis_ed_mdi.obj
 0003:000053e8       ??_C@_0BL@BLBI@1doLoad?$CI?5const?5QString?5?$CG?5?$CJ?$AA@ 0048c3e8     vis_ed_mdi.obj
 0003:00005404       ??_C@_0DE@HKDK@2widgetRenamed?$CI?5const?5QString?5?$CG?5@ 0048c404     vis_ed_mdi.obj
 0003:00005438       ??_C@_0DE@IEPN@1widgetRenamed?$CI?5const?5QString?5?$CG?5@ 0048c438     vis_ed_mdi.obj
 0003:0000546c       ??_C@_0CC@KFDF@2widgetRemoved?$CI?5const?5QString?5?$CG?5@ 0048c46c     vis_ed_mdi.obj
 0003:00005490       ??_C@_0CC@KLBF@1widgetRemoved?$CI?5const?5QString?5?$CG?5@ 0048c490     vis_ed_mdi.obj
 0003:000054b4       ??_C@_0DB@GDOA@2widgetAdded?$CI?5const?5QString?5?$CG?0?5c@ 0048c4b4     vis_ed_mdi.obj
 0003:000054e8       ??_C@_0DB@JEMA@1widgetAdded?$CI?5const?5QString?5?$CG?0?5c@ 0048c4e8     vis_ed_mdi.obj
 0003:0000551c       ??_C@_0CF@IIKE@2statusBarMessage?$CI?5const?5QString@ 0048c51c     vis_ed_mdi.obj
 0003:00005544       ??_C@_0CF@OKH@1statusBarMessage?$CI?5const?5QString@ 0048c544     vis_ed_mdi.obj
 0003:0000556c       ??_C@_0BO@KMOD@1windowActivated?$CI?5QWidget?5?$CK?5?$CJ?$AA@ 0048c56c     vis_ed_mdi.obj
 0003:0000558c       ??_C@_0M@HCKE@bncs_style3?$AA@ 0048c58c     vis_ed_mdi.obj
 0003:00005598       ??_C@_06CKHP@Styles?$AA@   0048c598     vis_ed_mdi.obj
 0003:000055a0       ??_C@_0BB@PGOB@UseStyleInEditor?$AA@ 0048c5a0     vis_ed_mdi.obj
 0003:000055b4       ??_C@_0BF@PBCH@?2config?2g_pnlman?4ini?$AA@ 0048c5b4     vis_ed_mdi.obj
 0003:000055cc       ??_C@_07BOAP@?1BUI_?$CF1?$AA@ 0048c5cc     vis_ed_mdi.obj
 0003:000055d4       ??_C@_0O@KJD@1doHelpSlot?$CI?$CJ?$AA@ 0048c5d4     vis_ed_mdi.obj
 0003:000055e4       ??_C@_08IBMA@Contents?$AA@ 0048c5e4     vis_ed_mdi.obj
 0003:000055f0       ??_C@_09EFHF@?$CGContents?$AA@ 0048c5f0     vis_ed_mdi.obj
 0003:000055fc       ??_C@_08HEEF@1about?$CI?$CJ?$AA@ 0048c5fc     vis_ed_mdi.obj
 0003:00005608       ??_C@_05FJOL@About?$AA@    0048c608     vis_ed_mdi.obj
 0003:00005610       ??_C@_06JACP@?$CGAbout?$AA@ 0048c610     vis_ed_mdi.obj
 0003:00005618       ??_C@_05KJAK@?$CGHelp?$AA@ 0048c618     vis_ed_mdi.obj
 0003:00005620       ??_C@_04GNHP@Help?$AA@     0048c620     vis_ed_mdi.obj
 0003:00005628       ??_C@_0BK@NMCN@1windowsMenuAboutToShow?$CI?$CJ?$AA@ 0048c628     vis_ed_mdi.obj
 0003:00005644       ??_C@_07GHIO@?$CGWindow?$AA@ 0048c644     vis_ed_mdi.obj
 0003:0000564c       ??_C@_0BD@LLIE@1closeAllWindows?$CI?$CJ?$AA@ 0048c64c     vis_ed_mdi.obj
 0003:00005660       ??_C@_09INDA@file_exit?$AA@ 0048c660     vis_ed_mdi.obj
 0003:0000566c       ??_C@_04LKDK@Exit?$AA@     0048c66c     vis_ed_mdi.obj
 0003:00005674       ??_C@_05COP@E?$CGxit?$AA@  0048c674     vis_ed_mdi.obj
 0003:0000567c       ??_C@_0BK@GKKA@1recentFilesAboutToShow?$CI?$CJ?$AA@ 0048c67c     vis_ed_mdi.obj
 0003:00005698       ??_C@_0N@JPKN@Recent?5Files?$AA@ 0048c698     vis_ed_mdi.obj
 0003:000056a8       ??_C@_0M@EJOH@recentfiles?$AA@ 0048c6a8     vis_ed_mdi.obj
 0003:000056b4       ??_C@_0BF@EAPO@1browseGlobalStyle?$CI?$CJ?$AA@ 0048c6b4     vis_ed_mdi.obj
 0003:000056cc       ??_C@_0BE@MAFC@globalStyle_browser?$AA@ 0048c6cc     vis_ed_mdi.obj
 0003:000056e0       ??_C@_0BE@DBOF@Browse?5Global?5Style?$AA@ 0048c6e0     vis_ed_mdi.obj
 0003:000056f4       ??_C@_0BF@MGCD@?$CGBrowse?5Global?5Style?$AA@ 0048c6f4     vis_ed_mdi.obj
 0003:0000570c       ??_C@_0O@KHBL@1fileSaveAs?$CI?$CJ?$AA@ 0048c70c     vis_ed_mdi.obj
 0003:0000571c       ??_C@_0M@NHGB@file_saveas?$AA@ 0048c71c     vis_ed_mdi.obj
 0003:00005728       ??_C@_07KILL@Save?5As?$AA@ 0048c728     vis_ed_mdi.obj
 0003:00005730       ??_C@_08MHPB@Save?5?$CGAs?$AA@ 0048c730     vis_ed_mdi.obj
 0003:0000573c       ??_C@_0M@PILM@1fileSave?$CI?$CJ?$AA@ 0048c73c     vis_ed_mdi.obj
 0003:00005748       ??_C@_09FJHL@file_save?$AA@ 0048c748     vis_ed_mdi.obj
 0003:00005754       ??_C@_05KKAE@?$CGSave?$AA@ 0048c754     vis_ed_mdi.obj
 0003:0000575c       ??_C@_0N@JECC@1fileClose?$CI?$CJ?$AA@ 0048c75c     vis_ed_mdi.obj
 0003:0000576c       ??_C@_0L@EEPC@file_close?$AA@ 0048c76c     vis_ed_mdi.obj
 0003:00005778       ??_C@_05JIMF@Close?$AA@    0048c778     vis_ed_mdi.obj
 0003:00005780       ??_C@_06FBAB@?$CGClose?$AA@ 0048c780     vis_ed_mdi.obj
 0003:00005788       ??_C@_0O@PNAJ@1fileReload?$CI?$CJ?$AA@ 0048c788     vis_ed_mdi.obj
 0003:00005798       ??_C@_0M@DPEM@file_reload?$AA@ 0048c798     vis_ed_mdi.obj
 0003:000057a4       ??_C@_06KIJA@Reload?$AA@   0048c7a4     vis_ed_mdi.obj
 0003:000057ac       ??_C@_07JNFJ@?$CGReload?$AA@ 0048c7ac     vis_ed_mdi.obj
 0003:000057b4       ??_C@_0M@KHBG@1fileOpen?$CI?$CJ?$AA@ 0048c7b4     vis_ed_mdi.obj
 0003:000057c0       ??_C@_09DKKJ@file_open?$AA@ 0048c7c0     vis_ed_mdi.obj
 0003:000057cc       ??_C@_04NKD@Open?$AA@      0048c7cc     vis_ed_mdi.obj
 0003:000057d4       ??_C@_05MJNG@?$CGOpen?$AA@ 0048c7d4     vis_ed_mdi.obj
 0003:000057dc       ??_C@_0L@GOPH@1fileNew?$CI?$CJ?$AA@ 0048c7dc     vis_ed_mdi.obj
 0003:000057e8       ??_C@_08MLMD@file_new?$AA@ 0048c7e8     vis_ed_mdi.obj
 0003:000057f4       ??_C@_03MBCK@New?$AA@      0048c7f4     vis_ed_mdi.obj
 0003:000057f8       ??_C@_04LEIE@?$CGNew?$AA@  0048c7f8     vis_ed_mdi.obj
 0003:00005800       ??_C@_05CNCC@?$CGFile?$AA@ 0048c800     vis_ed_mdi.obj
 0003:00005808       ??_C@_0P@KMFB@2aboutToShow?$CI?$CJ?$AA@ 0048c808     vis_ed_mdi.obj
 0003:00005818       ??_C@_0BH@LLHO@1fileMenuAboutToShow?$CI?$CJ?$AA@ 0048c818     vis_ed_mdi.obj
 0003:00005830       ??_C@_04OJFH@File?$AA@     0048c830     vis_ed_mdi.obj
 0003:00005838       ??_C@_07OFLP@1save?$CI?$CJ?$AA@ 0048c838     vis_ed_mdi.obj
 0003:00005840       ??_C@_07JGAB@2save?$CI?$CJ?$AA@ 0048c840     vis_ed_mdi.obj
 0003:00005848       ??_C@_09HDJI@1saveas?$CI?$CJ?$AA@ 0048c848     vis_ed_mdi.obj
 0003:00005854       ??_C@_09DFEA@2saveas?$CI?$CJ?$AA@ 0048c854     vis_ed_mdi.obj
 0003:00005860       ??_C@_0BN@JLEK@1gotoidentifier?$CI?5QString?5?$CG?5?$CJ?$AA@ 0048c860     vis_ed_mdi.obj
 0003:00005880       ??_C@_0BN@IHEN@2gotoidentifier?$CI?5QString?5?$CG?5?$CJ?$AA@ 0048c880     vis_ed_mdi.obj
 0003:000058a0       ??_C@_02HHDK@?$CJ?6?$AA@   0048c8a0     vis_ed_mdi.obj
 0003:000058a4       ??_C@_0CA@DNFM@Can?8t?5open?5files?5of?5this?5type?5?$CI?$AA@ 0048c8a4     vis_ed_mdi.obj
 0003:000058c4       ??_C@_01FKHJ@C?$AA@        0048c8c4     vis_ed_mdi.obj
 0003:000058c8       ??_C@_03IAAN@BSC?$AA@      0048c8c8     vis_ed_mdi.obj
 0003:000058cc       ??_C@_07JKBF@BNCS_UI?$AA@  0048c8cc     vis_ed_mdi.obj
 0003:000058d4       ??_C@_03PEHN@Yes?$AA@      0048c8d4     vis_ed_mdi.obj
 0003:000058d8       ??_C@_02JOHD@No?$AA@       0048c8d8     vis_ed_mdi.obj
 0003:000058dc       ??_C@_0OC@NJEK@CAREFUL?$CB?6You?8re?5using?5the?5editor@ 0048c8dc     vis_ed_mdi.obj
 0003:000059c0       ??_C@_0BN@IKLB@1recentyusedactivated?$CI?5int?5?$CJ?$AA@ 0048c9c0     vis_ed_mdi.obj
 0003:000059e0       ??_C@_0BE@JPJG@About?5BNCS?5Vis?4?5Ed?4?$AA@ 0048c9e0     vis_ed_mdi.obj
 0003:000059f4       ??_C@_0PL@FOFO@Copyright?5Atos?4?6?6BNCS?5V4?45?5Conce@ 0048c9f4     vis_ed_mdi.obj
 0003:00005af0       ??_C@_05LFOI@?$CF1?2?$CF2?$AA@ 0048caf0     vis_ed_mdi.obj
 0003:00005af8       ??_C@_02NNKG@?2?2?$AA@     0048caf8     vis_ed_mdi.obj
 0003:00005afc       ??_C@_01FDLN@?1?$AA@       0048cafc     vis_ed_mdi.obj
 0003:00005b00       ??_C@_0N@HIFB@?$CF1?2panels?2?$CF2?$AA@ 0048cb00     vis_ed_mdi.obj
 0003:00005b10       ??_C@_0EO@PJIB@Reload?5the?5opened?5panels?5so?5that@ 0048cb10     vis_ed_mdi.obj
 0003:00005b60       ??_C@_0BB@CLNL@BackgroundColour?$AA@ 0048cb60     vis_ed_mdi.obj
 0003:00005b74       ??_C@_0BE@PHAH@BackgroundImageName?$AA@ 0048cb74     vis_ed_mdi.obj
 0003:00005b88       ??_C@_08ODBD@FontSize?$AA@ 0048cb88     vis_ed_mdi.obj
 0003:00005b94       ??_C@_04CLJC@Font?$AA@     0048cb94     vis_ed_mdi.obj
 0003:00005b9c       ??_C@_0BE@DMCF@?1config?1stylesheet?1?$AA@ 0048cb9c     vis_ed_mdi.obj
 0003:00005bb0       ??_C@_01GJD@?9?$AA@        0048cbb0     vis_ed_mdi.obj
 0003:00005bb4       ??_C@_03MCOE@SGI?$AA@      0048cbb4     vis_ed_mdi.obj
 0003:00005bb8       ??_C@_09BHDG@MotifPlus?$AA@ 0048cbb8     vis_ed_mdi.obj
 0003:00005bc4       ??_C@_03CGJF@CDE?$AA@      0048cbc4     vis_ed_mdi.obj
 0003:00005bc8       ??_C@_08EGEN@Platinum?$AA@ 0048cbc8     vis_ed_mdi.obj
 0003:00005bd4       ??_C@_05HMDD@Motif?$AA@    0048cbd4     vis_ed_mdi.obj
 0003:00005bdc       ??_C@_07PKLL@Windows?$AA@  0048cbdc     vis_ed_mdi.obj
 0003:00005be4       ??_C@_0M@FIHO@?$DM?$DM?5clear?5?$DO?$DO?$AA@ 0048cbe4     vis_ed_mdi.obj
 0003:00005bf0       ??_C@_04BMBN@?$CF1?$CF2?$AA@ 0048cbf0     vis_ed_mdi.obj
 0003:00005bf8       ??_C@_0BM@BIIF@windows?2bin?2bncs_vis_ed?4chm?$AA@ 0048cbf8     vis_ed_mdi.obj
 0003:00005c14       ??_C@_01KNFJ@?$CD?$AA@     0048cc14     vis_ed_mdi.obj
 0003:00005c18       ??_C@_05DACA@?4html?$AA@   0048cc18     vis_ed_mdi.obj
 0003:00005c20       ??_C@_0CE@JAKN@windows?2bin?2bncs_vis_ed?4chm?3?3?1do@ 0048cc20     vis_ed_mdi.obj
 0003:00005c44       ??_C@_06FHOB@?$CF1?2?$CF2?2?$AA@ 0048cc44     vis_ed_mdi.obj
 0003:00005c4c       ??_C@_0CA@INHA@trying?5to?5set?5foreground?5window?$AA@ 0048cc4c     vis_ed_mdi.obj
 0003:00005c6c       ??_C@_0BA@GNEL@it?4node?5?$CB?$DN?5node?$AA@ 0048cc6c     vis_ed_mdi.obj
 0003:000084d0       ??_C@_09CAKD@001?5c?5red?$AA@ 0048f4d0     vis_ed_toolbars.obj
 0003:000084dc       ??_C@_0DB@MFOP@00300300300300300300300100100300@ 0048f4dc     vis_ed_toolbars.obj
 0003:00008510       ??_C@_0DB@NBMB@00300300300300300300100100100100@ 0048f510     vis_ed_toolbars.obj
 0003:00008544       ??_C@_0DB@IFLB@00300300300300300100100100100100@ 0048f544     vis_ed_toolbars.obj
 0003:00008578       ??_C@_0DB@GMJO@00300300300300100100100100100100@ 0048f578     vis_ed_toolbars.obj
 0003:000085ac       ??_C@_0DB@GECJ@00000000000100100100100100100100@ 0048f5ac     vis_ed_toolbars.obj
 0003:000085e0       ??_C@_0DB@DCKI@00000200200100100100100100100100@ 0048f5e0     vis_ed_toolbars.obj
 0003:00008614       ??_C@_0DB@FOJI@00000200200200200200100100100100@ 0048f614     vis_ed_toolbars.obj
 0003:00008648       ??_C@_0DB@EAKB@00000200200200200200200100100200@ 0048f648     vis_ed_toolbars.obj
 0003:0000867c       ??_C@_0DB@MMKG@00000200200200200200200200200200@ 0048f67c     vis_ed_toolbars.obj
 0003:000086b0       ??_C@_0DB@DBND@00000000000000000000000000000000@ 0048f6b0     vis_ed_toolbars.obj
 0003:000086e4       ??_C@_0M@DNNH@034?5c?5black?$AA@ 0048f6e4     vis_ed_toolbars.obj
 0003:000086f0       ??_C@_0M@HCCP@033?5c?5black?$AA@ 0048f6f0     vis_ed_toolbars.obj
 0003:000086fc       ??_C@_0M@LAGH@032?5c?5black?$AA@ 0048f6fc     vis_ed_toolbars.obj
 0003:00008708       ??_C@_0M@PGLP@031?5c?5black?$AA@ 0048f708     vis_ed_toolbars.obj
 0003:00008714       ??_C@_0M@DEPH@030?5c?5black?$AA@ 0048f714     vis_ed_toolbars.obj
 0003:00008720       ??_C@_0M@GLDM@029?5c?5black?$AA@ 0048f720     vis_ed_toolbars.obj
 0003:0000872c       ??_C@_0M@PEMN@027?5c?5black?$AA@ 0048f72c     vis_ed_toolbars.obj
 0003:00008738       ??_C@_0M@DGIF@026?5c?5black?$AA@ 0048f738     vis_ed_toolbars.obj
 0003:00008744       ??_C@_0M@HAFN@025?5c?5black?$AA@ 0048f744     vis_ed_toolbars.obj
 0003:00008750       ??_C@_0M@LCBF@024?5c?5black?$AA@ 0048f750     vis_ed_toolbars.obj
 0003:0000875c       ??_C@_0M@PNON@023?5c?5black?$AA@ 0048f75c     vis_ed_toolbars.obj
 0003:00008768       ??_C@_0M@DPKF@022?5c?5black?$AA@ 0048f768     vis_ed_toolbars.obj
 0003:00008774       ??_C@_0M@HJHN@021?5c?5black?$AA@ 0048f774     vis_ed_toolbars.obj
 0003:00008780       ??_C@_0M@LLDF@020?5c?5black?$AA@ 0048f780     vis_ed_toolbars.obj
 0003:0000878c       ??_C@_0M@PLHK@019?5c?5black?$AA@ 0048f78c     vis_ed_toolbars.obj
 0003:00008798       ??_C@_0M@DJDC@018?5c?5black?$AA@ 0048f798     vis_ed_toolbars.obj
 0003:000087a4       ??_C@_0M@GEIL@017?5c?5black?$AA@ 0048f7a4     vis_ed_toolbars.obj
 0003:000087b0       ??_C@_0M@KGMD@016?5c?5black?$AA@ 0048f7b0     vis_ed_toolbars.obj
 0003:000087bc       ??_C@_0M@OABL@015?5c?5black?$AA@ 0048f7bc     vis_ed_toolbars.obj
 0003:000087c8       ??_C@_0M@CCFD@014?5c?5black?$AA@ 0048f7c8     vis_ed_toolbars.obj
 0003:000087d4       ??_C@_0M@GNKL@013?5c?5black?$AA@ 0048f7d4     vis_ed_toolbars.obj
 0003:000087e0       ??_C@_0M@KPOD@012?5c?5black?$AA@ 0048f7e0     vis_ed_toolbars.obj
 0003:000087ec       ??_C@_0M@OJDL@011?5c?5black?$AA@ 0048f7ec     vis_ed_toolbars.obj
 0003:000087f8       ??_C@_0M@CLHD@010?5c?5black?$AA@ 0048f7f8     vis_ed_toolbars.obj
 0003:00008804       ??_C@_0M@HELI@009?5c?5black?$AA@ 0048f804     vis_ed_toolbars.obj
 0003:00008810       ??_C@_0M@LGPA@008?5c?5black?$AA@ 0048f810     vis_ed_toolbars.obj
 0003:0000881c       ??_C@_0M@OLEJ@007?5c?5black?$AA@ 0048f81c     vis_ed_toolbars.obj
 0003:00008828       ??_C@_0M@CJAB@006?5c?5black?$AA@ 0048f828     vis_ed_toolbars.obj
 0003:00008834       ??_C@_0M@GPNJ@005?5c?5black?$AA@ 0048f834     vis_ed_toolbars.obj
 0003:00008840       ??_C@_0M@KNJB@004?5c?5black?$AA@ 0048f840     vis_ed_toolbars.obj
 0003:0000884c       ??_C@_0L@CKPG@003?5c?5none?$AA@ 0048f84c     vis_ed_toolbars.obj
 0003:00008858       ??_C@_0O@FHNG@002?5c?5?$CDC0C0C0?$AA@ 0048f858     vis_ed_toolbars.obj
 0003:00008868       ??_C@_0L@BHEK@001?5c?5blue?$AA@ 0048f868     vis_ed_toolbars.obj
 0003:00008874       ??_C@_0N@IKHL@000?5c?5Gray25?$AA@ 0048f874     vis_ed_toolbars.obj
 0003:00008884       ??_C@_0DB@LMJJ@03203203203203203203203202502600@ 0048f884     vis_ed_toolbars.obj
 0003:000088b8       ??_C@_0DB@BBLB@01500903203203200101402302502600@ 0048f8b8     vis_ed_toolbars.obj
 0003:000088ec       ??_C@_0DB@HFAM@02700502103000701203203202502600@ 0048f8ec     vis_ed_toolbars.obj
 0003:00008920       ??_C@_0DB@CJOB@03203200800302003203203202502600@ 0048f920     vis_ed_toolbars.obj
 0003:00008954       ??_C@_0DB@KKDP@03202200301300603101402302502600@ 0048f954     vis_ed_toolbars.obj
 0003:00008988       ??_C@_0DB@LAAK@01700402903202200203203202502600@ 0048f988     vis_ed_toolbars.obj
 0003:000089bc       ??_C@_0DB@FCBN@02401603203203201103203202502600@ 0048f9bc     vis_ed_toolbars.obj
 0003:000089f0       ??_C@_0DB@EILI@03203203203203203203203202502601@ 0048f9f0     vis_ed_toolbars.obj
 0003:00008a24       ??_C@_0DB@HDIF@03203203203203203203203202501903@ 0048fa24     vis_ed_toolbars.obj
 0003:00008a58       ??_C@_0DB@HKNE@03203203203203203203203202801801@ 0048fa58     vis_ed_toolbars.obj
 0003:00008a8c       ??_C@_0M@BDLJ@093?5c?5black?$AA@ 0048fa8c     vis_ed_toolbars.obj
 0003:00008a98       ??_C@_0M@NBPB@092?5c?5black?$AA@ 0048fa98     vis_ed_toolbars.obj
 0003:00008aa4       ??_C@_0M@JHCJ@091?5c?5black?$AA@ 0048faa4     vis_ed_toolbars.obj
 0003:00008ab0       ??_C@_0M@FFGB@090?5c?5black?$AA@ 0048fab0     vis_ed_toolbars.obj
 0003:00008abc       ??_C@_0M@KKK@089?5c?5black?$AA@ 0048fabc     vis_ed_toolbars.obj
 0003:00008ac8       ??_C@_0M@MIOC@088?5c?5black?$AA@ 0048fac8     vis_ed_toolbars.obj
 0003:00008ad4       ??_C@_0M@JFFL@087?5c?5black?$AA@ 0048fad4     vis_ed_toolbars.obj
 0003:00008ae0       ??_C@_0M@FHBD@086?5c?5black?$AA@ 0048fae0     vis_ed_toolbars.obj
 0003:00008aec       ??_C@_0M@BBML@085?5c?5black?$AA@ 0048faec     vis_ed_toolbars.obj
 0003:00008af8       ??_C@_0M@NDID@084?5c?5black?$AA@ 0048faf8     vis_ed_toolbars.obj
 0003:00008b04       ??_C@_0M@FODD@082?5c?5black?$AA@ 0048fb04     vis_ed_toolbars.obj
 0003:00008b10       ??_C@_0M@BIOL@081?5c?5black?$AA@ 0048fb10     vis_ed_toolbars.obj
 0003:00008b1c       ??_C@_0M@NKKD@080?5c?5black?$AA@ 0048fb1c     vis_ed_toolbars.obj
 0003:00008b28       ??_C@_0M@NLPH@079?5c?5black?$AA@ 0048fb28     vis_ed_toolbars.obj
 0003:00008b34       ??_C@_0M@EEAG@077?5c?5black?$AA@ 0048fb34     vis_ed_toolbars.obj
 0003:00008b40       ??_C@_0M@IGEO@076?5c?5black?$AA@ 0048fb40     vis_ed_toolbars.obj
 0003:00008b4c       ??_C@_0M@MAJG@075?5c?5black?$AA@ 0048fb4c     vis_ed_toolbars.obj
 0003:00008b58       ??_C@_0M@ENCG@073?5c?5black?$AA@ 0048fb58     vis_ed_toolbars.obj
 0003:00008b64       ??_C@_0M@IPGO@072?5c?5black?$AA@ 0048fb64     vis_ed_toolbars.obj
 0003:00008b70       ??_C@_0M@MJLG@071?5c?5black?$AA@ 0048fb70     vis_ed_toolbars.obj
 0003:00008b7c       ??_C@_0M@LPO@070?5c?5black?$AA@ 0048fb7c     vis_ed_toolbars.obj
 0003:00008b88       ??_C@_0M@JGHN@068?5c?5black?$AA@ 0048fb88     vis_ed_toolbars.obj
 0003:00008b94       ??_C@_0M@MLME@067?5c?5black?$AA@ 0048fb94     vis_ed_toolbars.obj
 0003:00008ba0       ??_C@_0M@JIM@066?5c?5black?$AA@ 0048fba0     vis_ed_toolbars.obj
 0003:00008bac       ??_C@_0M@EPFE@065?5c?5black?$AA@ 0048fbac     vis_ed_toolbars.obj
 0003:00008bb8       ??_C@_0M@INBM@064?5c?5black?$AA@ 0048fbb8     vis_ed_toolbars.obj
 0003:00008bc4       ??_C@_0M@MCOE@063?5c?5black?$AA@ 0048fbc4     vis_ed_toolbars.obj
 0003:00008bd0       ??_C@_0M@KM@062?5c?5black?$AA@ 0048fbd0     vis_ed_toolbars.obj
 0003:00008bdc       ??_C@_0M@EGHE@061?5c?5black?$AA@ 0048fbdc     vis_ed_toolbars.obj
 0003:00008be8       ??_C@_0M@IEDM@060?5c?5black?$AA@ 0048fbe8     vis_ed_toolbars.obj
 0003:00008bf4       ??_C@_0M@MEHD@059?5c?5black?$AA@ 0048fbf4     vis_ed_toolbars.obj
 0003:00008c00       ??_C@_0M@GDL@058?5c?5black?$AA@ 0048fc00     vis_ed_toolbars.obj
 0003:00008c0c       ??_C@_0M@JJMK@056?5c?5black?$AA@ 0048fc0c     vis_ed_toolbars.obj
 0003:00008c18       ??_C@_0M@NPBC@055?5c?5black?$AA@ 0048fc18     vis_ed_toolbars.obj
 0003:00008c24       ??_C@_0M@BNFK@054?5c?5black?$AA@ 0048fc24     vis_ed_toolbars.obj
 0003:00008c30       ??_C@_0M@FCKC@053?5c?5black?$AA@ 0048fc30     vis_ed_toolbars.obj
 0003:00008c3c       ??_C@_0M@NGDC@051?5c?5black?$AA@ 0048fc3c     vis_ed_toolbars.obj
 0003:00008c48       ??_C@_0M@BEHK@050?5c?5black?$AA@ 0048fc48     vis_ed_toolbars.obj
 0003:00008c54       ??_C@_0M@ELLB@049?5c?5black?$AA@ 0048fc54     vis_ed_toolbars.obj
 0003:00008c60       ??_C@_0M@IJPJ@048?5c?5black?$AA@ 0048fc60     vis_ed_toolbars.obj
 0003:00008c6c       ??_C@_0M@NEEA@047?5c?5black?$AA@ 0048fc6c     vis_ed_toolbars.obj
 0003:00008c78       ??_C@_0M@BGAI@046?5c?5black?$AA@ 0048fc78     vis_ed_toolbars.obj
 0003:00008c84       ??_C@_0M@FANA@045?5c?5black?$AA@ 0048fc84     vis_ed_toolbars.obj
 0003:00008c90       ??_C@_0M@JCJI@044?5c?5black?$AA@ 0048fc90     vis_ed_toolbars.obj
 0003:00008c9c       ??_C@_0M@NNGA@043?5c?5black?$AA@ 0048fc9c     vis_ed_toolbars.obj
 0003:00008ca8       ??_C@_0M@BPCI@042?5c?5black?$AA@ 0048fca8     vis_ed_toolbars.obj
 0003:00008cb4       ??_C@_0M@FJPA@041?5c?5black?$AA@ 0048fcb4     vis_ed_toolbars.obj
 0003:00008cc0       ??_C@_0M@JLLI@040?5c?5black?$AA@ 0048fcc0     vis_ed_toolbars.obj
 0003:00008ccc       ??_C@_0M@OEPO@039?5c?5black?$AA@ 0048fccc     vis_ed_toolbars.obj
 0003:00008cd8       ??_C@_0M@CGLG@038?5c?5black?$AA@ 0048fcd8     vis_ed_toolbars.obj
 0003:00008ce4       ??_C@_0M@HLAP@037?5c?5black?$AA@ 0048fce4     vis_ed_toolbars.obj
 0003:00008cf0       ??_C@_0M@PPJP@035?5c?5black?$AA@ 0048fcf0     vis_ed_toolbars.obj
 0003:00008cfc       ??_C@_0O@GACB@034?5c?5Gray100?$AA@ 0048fcfc     vis_ed_toolbars.obj
 0003:00008d0c       ??_C@_0O@HONB@033?5c?5?$CDE7EDF2?$AA@ 0048fd0c     vis_ed_toolbars.obj
 0003:00008d1c       ??_C@_0O@FLEP@032?5c?5?$CDECE9D8?$AA@ 0048fd1c     vis_ed_toolbars.obj
 0003:00008d2c       ??_C@_0O@DDAK@031?5c?5?$CDE5E2D1?$AA@ 0048fd2c     vis_ed_toolbars.obj
 0003:00008d3c       ??_C@_0O@BHOA@030?5c?5?$CDE3E0D0?$AA@ 0048fd3c     vis_ed_toolbars.obj
 0003:00008d4c       ??_C@_0O@DKNA@029?5c?5?$CDE0DDCD?$AA@ 0048fd4c     vis_ed_toolbars.obj
 0003:00008d5c       ??_C@_0O@DOJD@028?5c?5?$CDDFE0D4?$AA@ 0048fd5c     vis_ed_toolbars.obj
 0003:00008d6c       ??_C@_0O@PGAG@027?5c?5?$CDD7D4C5?$AA@ 0048fd6c     vis_ed_toolbars.obj
 0003:00008d7c       ??_C@_0O@DIEN@026?5c?5?$CDC4D2DF?$AA@ 0048fd7c     vis_ed_toolbars.obj
 0003:00008d8c       ??_C@_0O@CFHB@025?5c?5?$CDCED4CF?$AA@ 0048fd8c     vis_ed_toolbars.obj
 0003:00008d9c       ??_C@_0O@HLFF@024?5c?5?$CDCECCBC?$AA@ 0048fd9c     vis_ed_toolbars.obj
 0003:00008dac       ??_C@_0O@KGGG@023?5c?5?$CDC5C3B5?$AA@ 0048fdac     vis_ed_toolbars.obj
 0003:00008dbc       ??_C@_0O@IPMN@022?5c?5?$CDC2C0B2?$AA@ 0048fdbc     vis_ed_toolbars.obj
 0003:00008dcc       ??_C@_0O@JPGN@021?5c?5?$CDC2BFB2?$AA@ 0048fdcc     vis_ed_toolbars.obj
 0003:00008ddc       ??_C@_0O@DGJI@020?5c?5?$CDC1BEB0?$AA@ 0048fddc     vis_ed_toolbars.obj
 0003:00008dec       ??_C@_0O@BNA@019?5c?5?$CDB7C8D8?$AA@ 0048fdec     vis_ed_toolbars.obj
 0003:00008dfc       ??_C@_0O@CIFE@018?5c?5?$CDBFC9CB?$AA@ 0048fdfc     vis_ed_toolbars.obj
 0003:00008e0c       ??_C@_0O@HNPP@017?5c?5?$CDBDBAAC?$AA@ 0048fe0c     vis_ed_toolbars.obj
 0003:00008e1c       ??_C@_0O@DJOB@016?5c?5?$CDBAB8AB?$AA@ 0048fe1c     vis_ed_toolbars.obj
 0003:00008e2c       ??_C@_0O@EKOL@015?5c?5?$CDB4B1A4?$AA@ 0048fe2c     vis_ed_toolbars.obj
 0003:00008e3c       ??_C@_0O@GGM@014?5c?5?$CDACAA9D?$AA@ 0048fe3c     vis_ed_toolbars.obj
 0003:00008e4c       ??_C@_0O@ECLF@013?5c?5?$CDABA89C?$AA@ 0048fe4c     vis_ed_toolbars.obj
 0003:00008e5c       ??_C@_0O@DJCG@012?5c?5?$CDA8A59A?$AA@ 0048fe5c     vis_ed_toolbars.obj
 0003:00008e6c       ??_C@_0O@DJOB@011?5c?5?$CD9D9B8F?$AA@ 0048fe6c     vis_ed_toolbars.obj
 0003:00008e7c       ??_C@_0O@MKJP@010?5c?5?$CD888888?$AA@ 0048fe7c     vis_ed_toolbars.obj
 0003:00008e8c       ??_C@_0O@ECCB@009?5c?5?$CD8F8D83?$AA@ 0048fe8c     vis_ed_toolbars.obj
 0003:00008e9c       ??_C@_0O@MOEN@008?5c?5?$CD8B897F?$AA@ 0048fe9c     vis_ed_toolbars.obj
 0003:00008eac       ??_C@_0O@OPPD@007?5c?5?$CD8A897F?$AA@ 0048feac     vis_ed_toolbars.obj
 0003:00008ebc       ??_C@_0O@ICDE@006?5c?5?$CD88877D?$AA@ 0048febc     vis_ed_toolbars.obj
 0003:00008ecc       ??_C@_0O@PLIE@005?5c?5?$CD7D7B72?$AA@ 0048fecc     vis_ed_toolbars.obj
 0003:00008edc       ??_C@_0O@LGBI@004?5c?5?$CD7A7870?$AA@ 0048fedc     vis_ed_toolbars.obj
 0003:00008eec       ??_C@_0O@CDEK@003?5c?5?$CD76746C?$AA@ 0048feec     vis_ed_toolbars.obj
 0003:00008efc       ??_C@_0O@HFMN@002?5c?5?$CD68675F?$AA@ 0048fefc     vis_ed_toolbars.obj
 0003:00008f0c       ??_C@_0O@LOCH@001?5c?5?$CD57564F?$AA@ 0048ff0c     vis_ed_toolbars.obj
 0003:00008f1c       ??_C@_0N@NPFF@000?5c?5Gray27?$AA@ 0048ff1c     vis_ed_toolbars.obj
 0003:00008f2c       ??_C@_0DB@KBNC@04709309309309309309309309309309@ 0048ff2c     vis_ed_toolbars.obj
 0003:00008f60       ??_C@_0DB@EKAN@04709004202403808709309309309308@ 0048ff60     vis_ed_toolbars.obj
 0003:00008f94       ??_C@_0DB@JOIM@04704800704401705901901901905506@ 0048ff94     vis_ed_toolbars.obj
 0003:00008fc8       ??_C@_0DB@HGFJ@04703602008907808405305305307103@ 0048ffc8     vis_ed_toolbars.obj
 0003:00008ffc       ??_C@_0DB@FCBG@04707201000500306404604604606800@ 0048fffc     vis_ed_toolbars.obj
 0003:00009030       ??_C@_0DB@LFJJ@04709308907408409309309309309107@ 00490030     vis_ed_toolbars.obj
 0003:00009064       ??_C@_0DB@FOAO@04709205802603308309309309309309@ 00490064     vis_ed_toolbars.obj
 0003:00009098       ??_C@_0DB@NGJK@04706500403301405601501101104107@ 00490098     vis_ed_toolbars.obj
 0003:000090cc       ??_C@_0DB@FLCE@04705001308607909005705405406904@ 004900cc     vis_ed_toolbars.obj
 0003:00009100       ??_C@_0DB@GCN@04707700900600206003703303306102@ 00490100     vis_ed_toolbars.obj
 0003:00009134       ??_C@_0DB@MHPE@04709308506307309209309309309306@ 00490134     vis_ed_toolbars.obj
 0003:00009168       ??_C@_0DB@IJIG@02904504504504504504504504504504@ 00490168     vis_ed_toolbars.obj
 0003:0000919c       ??_C@_0M@DACM@180?5c?5black?$AA@ 0049019c     vis_ed_toolbars.obj
 0003:000091a8       ??_C@_0M@DBHI@179?5c?5black?$AA@ 004901a8     vis_ed_toolbars.obj
 0003:000091b4       ??_C@_0M@PDDA@178?5c?5black?$AA@ 004901b4     vis_ed_toolbars.obj
 0003:000091c0       ??_C@_0M@KOIJ@177?5c?5black?$AA@ 004901c0     vis_ed_toolbars.obj
 0003:000091cc       ??_C@_0M@GMMB@176?5c?5black?$AA@ 004901cc     vis_ed_toolbars.obj
 0003:000091d8       ??_C@_0M@CKBJ@175?5c?5black?$AA@ 004901d8     vis_ed_toolbars.obj
 0003:000091e4       ??_C@_0M@OIFB@174?5c?5black?$AA@ 004901e4     vis_ed_toolbars.obj
 0003:000091f0       ??_C@_0M@KHKJ@173?5c?5black?$AA@ 004901f0     vis_ed_toolbars.obj
 0003:000091fc       ??_C@_0M@GFOB@172?5c?5black?$AA@ 004901fc     vis_ed_toolbars.obj
 0003:00009208       ??_C@_0M@CDDJ@171?5c?5black?$AA@ 00490208     vis_ed_toolbars.obj
 0003:00009214       ??_C@_0M@OBHB@170?5c?5black?$AA@ 00490214     vis_ed_toolbars.obj
 0003:00009220       ??_C@_0M@LOLK@169?5c?5black?$AA@ 00490220     vis_ed_toolbars.obj
 0003:0000922c       ??_C@_0M@HMPC@168?5c?5black?$AA@ 0049022c     vis_ed_toolbars.obj
 0003:00009238       ??_C@_0M@CBEL@167?5c?5black?$AA@ 00490238     vis_ed_toolbars.obj
 0003:00009244       ??_C@_0M@ODAD@166?5c?5black?$AA@ 00490244     vis_ed_toolbars.obj
 0003:00009250       ??_C@_0M@KFNL@165?5c?5black?$AA@ 00490250     vis_ed_toolbars.obj
 0003:0000925c       ??_C@_0M@GHJD@164?5c?5black?$AA@ 0049025c     vis_ed_toolbars.obj
 0003:00009268       ??_C@_0M@CIGL@163?5c?5black?$AA@ 00490268     vis_ed_toolbars.obj
 0003:00009274       ??_C@_0M@OKCD@162?5c?5black?$AA@ 00490274     vis_ed_toolbars.obj
 0003:00009280       ??_C@_0M@KMPL@161?5c?5black?$AA@ 00490280     vis_ed_toolbars.obj
 0003:0000928c       ??_C@_0M@GOLD@160?5c?5black?$AA@ 0049028c     vis_ed_toolbars.obj
 0003:00009298       ??_C@_0M@COPM@159?5c?5black?$AA@ 00490298     vis_ed_toolbars.obj
 0003:000092a4       ??_C@_0M@OMLE@158?5c?5black?$AA@ 004902a4     vis_ed_toolbars.obj
 0003:000092b0       ??_C@_0M@LBAN@157?5c?5black?$AA@ 004902b0     vis_ed_toolbars.obj
 0003:000092bc       ??_C@_0M@HDEF@156?5c?5black?$AA@ 004902bc     vis_ed_toolbars.obj
 0003:000092c8       ??_C@_0M@DFJN@155?5c?5black?$AA@ 004902c8     vis_ed_toolbars.obj
 0003:000092d4       ??_C@_0M@PHNF@154?5c?5black?$AA@ 004902d4     vis_ed_toolbars.obj
 0003:000092e0       ??_C@_0M@LICN@153?5c?5black?$AA@ 004902e0     vis_ed_toolbars.obj
 0003:000092ec       ??_C@_0M@HKGF@152?5c?5black?$AA@ 004902ec     vis_ed_toolbars.obj
 0003:000092f8       ??_C@_0M@DMLN@151?5c?5black?$AA@ 004902f8     vis_ed_toolbars.obj
 0003:00009304       ??_C@_0M@POPF@150?5c?5black?$AA@ 00490304     vis_ed_toolbars.obj
 0003:00009310       ??_C@_0M@GDHG@148?5c?5black?$AA@ 00490310     vis_ed_toolbars.obj
 0003:0000931c       ??_C@_0M@DOMP@147?5c?5black?$AA@ 0049031c     vis_ed_toolbars.obj
 0003:00009328       ??_C@_0M@PMIH@146?5c?5black?$AA@ 00490328     vis_ed_toolbars.obj
 0003:00009334       ??_C@_0M@LKFP@145?5c?5black?$AA@ 00490334     vis_ed_toolbars.obj
 0003:00009340       ??_C@_0M@HIBH@144?5c?5black?$AA@ 00490340     vis_ed_toolbars.obj
 0003:0000934c       ??_C@_0M@DHOP@143?5c?5black?$AA@ 0049034c     vis_ed_toolbars.obj
 0003:00009358       ??_C@_0M@PFKH@142?5c?5black?$AA@ 00490358     vis_ed_toolbars.obj
 0003:00009364       ??_C@_0M@LDHP@141?5c?5black?$AA@ 00490364     vis_ed_toolbars.obj
 0003:00009370       ??_C@_0M@HBDH@140?5c?5black?$AA@ 00490370     vis_ed_toolbars.obj
 0003:0000937c       ??_C@_0M@OHB@139?5c?5black?$AA@ 0049037c     vis_ed_toolbars.obj
 0003:00009388       ??_C@_0M@JBIA@137?5c?5black?$AA@ 00490388     vis_ed_toolbars.obj
 0003:00009394       ??_C@_0M@FDMI@136?5c?5black?$AA@ 00490394     vis_ed_toolbars.obj
 0003:000093a0       ??_C@_0M@BFBA@135?5c?5black?$AA@ 004903a0     vis_ed_toolbars.obj
 0003:000093ac       ??_C@_0M@NHFI@134?5c?5black?$AA@ 004903ac     vis_ed_toolbars.obj
 0003:000093b8       ??_C@_0M@JIKA@133?5c?5black?$AA@ 004903b8     vis_ed_toolbars.obj
 0003:000093c4       ??_C@_0M@FKOI@132?5c?5black?$AA@ 004903c4     vis_ed_toolbars.obj
 0003:000093d0       ??_C@_0M@BMDA@131?5c?5black?$AA@ 004903d0     vis_ed_toolbars.obj
 0003:000093dc       ??_C@_0M@NOHI@130?5c?5black?$AA@ 004903dc     vis_ed_toolbars.obj
 0003:000093e8       ??_C@_0M@EDPL@128?5c?5black?$AA@ 004903e8     vis_ed_toolbars.obj
 0003:000093f4       ??_C@_0M@BOEC@127?5c?5black?$AA@ 004903f4     vis_ed_toolbars.obj
 0003:00009400       ??_C@_0M@NMAK@126?5c?5black?$AA@ 00490400     vis_ed_toolbars.obj
 0003:0000940c       ??_C@_0M@JKNC@125?5c?5black?$AA@ 0049040c     vis_ed_toolbars.obj
 0003:00009418       ??_C@_0M@FIJK@124?5c?5black?$AA@ 00490418     vis_ed_toolbars.obj
 0003:00009424       ??_C@_0M@BHGC@123?5c?5black?$AA@ 00490424     vis_ed_toolbars.obj
 0003:00009430       ??_C@_0M@NFCK@122?5c?5black?$AA@ 00490430     vis_ed_toolbars.obj
 0003:0000943c       ??_C@_0M@JDPC@121?5c?5black?$AA@ 0049043c     vis_ed_toolbars.obj
 0003:00009448       ??_C@_0M@FBLK@120?5c?5black?$AA@ 00490448     vis_ed_toolbars.obj
 0003:00009454       ??_C@_0M@BBPF@119?5c?5black?$AA@ 00490454     vis_ed_toolbars.obj
 0003:00009460       ??_C@_0M@NDLN@118?5c?5black?$AA@ 00490460     vis_ed_toolbars.obj
 0003:0000946c       ??_C@_0M@IOAE@117?5c?5black?$AA@ 0049046c     vis_ed_toolbars.obj
 0003:00009478       ??_C@_0M@EMEM@116?5c?5black?$AA@ 00490478     vis_ed_toolbars.obj
 0003:00009484       ??_C@_0M@KJE@115?5c?5black?$AA@ 00490484     vis_ed_toolbars.obj
 0003:00009490       ??_C@_0M@MINM@114?5c?5black?$AA@ 00490490     vis_ed_toolbars.obj
 0003:0000949c       ??_C@_0M@EFGM@112?5c?5black?$AA@ 0049049c     vis_ed_toolbars.obj
 0003:000094a8       ??_C@_0M@DLE@111?5c?5black?$AA@ 004904a8     vis_ed_toolbars.obj
 0003:000094b4       ??_C@_0M@MBPM@110?5c?5black?$AA@ 004904b4     vis_ed_toolbars.obj
 0003:000094c0       ??_C@_0M@JODH@109?5c?5black?$AA@ 004904c0     vis_ed_toolbars.obj
 0003:000094cc       ??_C@_0M@FMHP@108?5c?5black?$AA@ 004904cc     vis_ed_toolbars.obj
 0003:000094d8       ??_C@_0M@BMG@107?5c?5black?$AA@ 004904d8     vis_ed_toolbars.obj
 0003:000094e4       ??_C@_0M@EHBO@104?5c?5black?$AA@ 004904e4     vis_ed_toolbars.obj
 0003:000094f0       ??_C@_0M@IOG@103?5c?5black?$AA@ 004904f0     vis_ed_toolbars.obj
 0003:000094fc       ??_C@_0M@MKKO@102?5c?5black?$AA@ 004904fc     vis_ed_toolbars.obj
 0003:00009508       ??_C@_0M@IMHG@101?5c?5black?$AA@ 00490508     vis_ed_toolbars.obj
 0003:00009514       ??_C@_0M@EODO@100?5c?5black?$AA@ 00490514     vis_ed_toolbars.obj
 0003:00009520       ??_C@_0M@IFGI@099?5c?5black?$AA@ 00490520     vis_ed_toolbars.obj
 0003:0000952c       ??_C@_0M@EHCA@098?5c?5black?$AA@ 0049052c     vis_ed_toolbars.obj
 0003:00009538       ??_C@_0M@BKJJ@097?5c?5black?$AA@ 00490538     vis_ed_toolbars.obj
 0003:00009544       ??_C@_0M@JOAJ@095?5c?5black?$AA@ 00490544     vis_ed_toolbars.obj
 0003:00009550       ??_C@_0M@FMEB@094?5c?5black?$AA@ 00490550     vis_ed_toolbars.obj
 0003:0000955c       ??_C@_0O@EBAP@093?5c?5Gray100?$AA@ 0049055c     vis_ed_toolbars.obj
 0003:0000956c       ??_C@_0O@OHIL@092?5c?5?$CDFEFEFE?$AA@ 0049056c     vis_ed_toolbars.obj
 0003:0000957c       ??_C@_0O@IALP@091?5c?5?$CDFDFDFD?$AA@ 0049057c     vis_ed_toolbars.obj
 0003:0000958c       ??_C@_0N@EEMF@090?5c?5Gray99?$AA@ 0049058c     vis_ed_toolbars.obj
 0003:0000959c       ??_C@_0O@GKPB@089?5c?5?$CDFBFBFB?$AA@ 0049059c     vis_ed_toolbars.obj
 0003:000095ac       ??_C@_0O@HPMH@088?5c?5?$CDFBFBFA?$AA@ 004905ac     vis_ed_toolbars.obj
 0003:000095bc       ??_C@_0O@NKIL@087?5c?5?$CDF9F9F9?$AA@ 004905bc     vis_ed_toolbars.obj
 0003:000095cc       ??_C@_0O@GIKA@086?5c?5?$CDF8F8F8?$AA@ 004905cc     vis_ed_toolbars.obj
 0003:000095dc       ??_C@_0N@BPNM@085?5c?5Gray96?$AA@ 004905dc     vis_ed_toolbars.obj
 0003:000095ec       ??_C@_0O@JBHF@084?5c?5?$CDF3F3F3?$AA@ 004905ec     vis_ed_toolbars.obj
 0003:000095fc       ??_C@_0N@MAOI@083?5c?5Gray95?$AA@ 004905fc     vis_ed_toolbars.obj
 0003:0000960c       ??_C@_0O@JNGF@082?5c?5?$CDF0F0EF?$AA@ 0049060c     vis_ed_toolbars.obj
 0003:0000961c       ??_C@_0O@LGPF@081?5c?5?$CDEFEFEF?$AA@ 0049061c     vis_ed_toolbars.obj
 0003:0000962c       ??_C@_0N@KPNM@080?5c?5Gray93?$AA@ 0049062c     vis_ed_toolbars.obj
 0003:0000963c       ??_C@_0N@DFEK@079?5c?5Gray92?$AA@ 0049063c     vis_ed_toolbars.obj
 0003:0000964c       ??_C@_0O@ONLL@078?5c?5?$CDEAEAEA?$AA@ 0049064c     vis_ed_toolbars.obj
 0003:0000965c       ??_C@_0N@JEGM@077?5c?5Gray91?$AA@ 0049065c     vis_ed_toolbars.obj
 0003:0000966c       ??_C@_0O@FKFA@076?5c?5?$CDE7E6E6?$AA@ 0049066c     vis_ed_toolbars.obj
 0003:0000967c       ??_C@_0O@FIMP@075?5c?5?$CDE2E2E1?$AA@ 0049067c     vis_ed_toolbars.obj
 0003:0000968c       ??_C@_0O@MBGF@074?5c?5?$CDDFDFDE?$AA@ 0049068c     vis_ed_toolbars.obj
 0003:0000969c       ??_C@_0O@KCPB@073?5c?5?$CDDFDEDE?$AA@ 0049069c     vis_ed_toolbars.obj
 0003:000096ac       ??_C@_0N@MNHP@072?5c?5Gray87?$AA@ 004906ac     vis_ed_toolbars.obj
 0003:000096bc       ??_C@_0O@PFBC@071?5c?5?$CDDADADA?$AA@ 004906bc     vis_ed_toolbars.obj
 0003:000096cc       ??_C@_0N@IHNF@070?5c?5Gray85?$AA@ 004906cc     vis_ed_toolbars.obj
 0003:000096dc       ??_C@_0O@MKCB@069?5c?5?$CDD3D3D3?$AA@ 004906dc     vis_ed_toolbars.obj
 0003:000096ec       ??_C@_0O@JDE@068?5c?5?$CDD0D0CF?$AA@ 004906ec     vis_ed_toolbars.obj
 0003:000096fc       ??_C@_0O@KOGE@067?5c?5?$CDCDCDCD?$AA@ 004906fc     vis_ed_toolbars.obj
 0003:0000970c       ??_C@_0O@KPGP@066?5c?5?$CDCDCCCC?$AA@ 0049070c     vis_ed_toolbars.obj
 0003:0000971c       ??_C@_0N@PHHE@065?5c?5Gray79?$AA@ 0049071c     vis_ed_toolbars.obj
 0003:0000972c       ??_C@_0O@GIOK@064?5c?5?$CDC6C6C5?$AA@ 0049072c     vis_ed_toolbars.obj
 0003:0000973c       ??_C@_0O@LHO@063?5c?5?$CDC6C5C5?$AA@ 0049073c     vis_ed_toolbars.obj
 0003:0000974c       ??_C@_0O@LCLO@062?5c?5?$CDC4C3C3?$AA@ 0049074c     vis_ed_toolbars.obj
 0003:0000975c       ??_C@_0O@PMGC@061?5c?5?$CDBCBCBC?$AA@ 0049075c     vis_ed_toolbars.obj
 0003:0000976c       ??_C@_0O@EOEJ@060?5c?5?$CDBBBBBB?$AA@ 0049076c     vis_ed_toolbars.obj
 0003:0000977c       ??_C@_0O@NAIA@059?5c?5?$CDB5B5B4?$AA@ 0049077c     vis_ed_toolbars.obj
 0003:0000978c       ??_C@_0O@JNNJ@058?5c?5?$CDB4B4B3?$AA@ 0049078c     vis_ed_toolbars.obj
 0003:0000979c       ??_C@_0N@CJEP@057?5c?5Gray70?$AA@ 0049079c     vis_ed_toolbars.obj
 0003:000097ac       ??_C@_0O@BLCM@056?5c?5?$CDB0B0AF?$AA@ 004907ac     vis_ed_toolbars.obj
 0003:000097bc       ??_C@_0O@HDMG@055?5c?5?$CDAEAEAD?$AA@ 004907bc     vis_ed_toolbars.obj
 0003:000097cc       ??_C@_0O@MLFP@054?5c?5?$CDAEADAD?$AA@ 004907cc     vis_ed_toolbars.obj
 0003:000097dc       ??_C@_0O@NPDM@053?5c?5?$CDACACAB?$AA@ 004907dc     vis_ed_toolbars.obj
 0003:000097ec       ??_C@_0O@OCKH@052?5c?5?$CDA4A3A2?$AA@ 004907ec     vis_ed_toolbars.obj
 0003:000097fc       ??_C@_0O@LNMN@051?5c?5?$CDA3A3A2?$AA@ 004907fc     vis_ed_toolbars.obj
 0003:0000980c       ??_C@_0O@LFDF@050?5c?5?$CDA1A09F?$AA@ 0049080c     vis_ed_toolbars.obj
 0003:0000981c       ??_C@_0O@FGNM@049?5c?5?$CD9F9F9E?$AA@ 0049081c     vis_ed_toolbars.obj
 0003:0000982c       ??_C@_0O@NDEK@048?5c?5?$CD9C9C9B?$AA@ 0049082c     vis_ed_toolbars.obj
 0003:0000983c       ??_C@_0O@JEF@047?5c?5?$CD9A9A9A?$AA@ 0049083c     vis_ed_toolbars.obj
 0003:0000984c       ??_C@_0O@GINP@046?5c?5?$CD999897?$AA@ 0049084c     vis_ed_toolbars.obj
 0003:0000985c       ??_C@_0N@PDO@045?5c?5Gray59?$AA@ 0049085c     vis_ed_toolbars.obj
 0003:0000986c       ??_C@_0O@PFPM@044?5c?5?$CD969695?$AA@ 0049086c     vis_ed_toolbars.obj
 0003:0000987c       ??_C@_0O@IOIG@043?5c?5?$CD959494?$AA@ 0049087c     vis_ed_toolbars.obj
 0003:0000988c       ??_C@_0O@OFMF@042?5c?5?$CD939392?$AA@ 0049088c     vis_ed_toolbars.obj
 0003:0000989c       ??_C@_0O@COKH@041?5c?5?$CD90908F?$AA@ 0049089c     vis_ed_toolbars.obj
 0003:000098ac       ??_C@_0O@NADF@040?5c?5?$CD8B8A89?$AA@ 004908ac     vis_ed_toolbars.obj
 0003:000098bc       ??_C@_0O@IPDO@039?5c?5?$CD8A8A89?$AA@ 004908bc     vis_ed_toolbars.obj
 0003:000098cc       ??_C@_0O@BHEA@038?5c?5?$CD858483?$AA@ 004908cc     vis_ed_toolbars.obj
 0003:000098dc       ??_C@_0O@LDPB@037?5c?5?$CD818180?$AA@ 004908dc     vis_ed_toolbars.obj
 0003:000098ec       ??_C@_0O@HBIO@036?5c?5?$CD7F7F7E?$AA@ 004908ec     vis_ed_toolbars.obj
 0003:000098fc       ??_C@_0O@BCLC@035?5c?5?$CD7F7E7D?$AA@ 004908fc     vis_ed_toolbars.obj
 0003:0000990c       ??_C@_0O@EKEE@034?5c?5?$CD7E7D7D?$AA@ 0049090c     vis_ed_toolbars.obj
 0003:0000991c       ??_C@_0O@FOCH@033?5c?5?$CD7C7C7B?$AA@ 0049091c     vis_ed_toolbars.obj
 0003:0000992c       ??_C@_0O@CEGD@032?5c?5?$CD797877?$AA@ 0049092c     vis_ed_toolbars.obj
 0003:0000993c       ??_C@_0O@GNPA@031?5c?5?$CD727170?$AA@ 0049093c     vis_ed_toolbars.obj
 0003:0000994c       ??_C@_0O@ICIO@030?5c?5?$CD71706F?$AA@ 0049094c     vis_ed_toolbars.obj
 0003:0000995c       ??_C@_0O@CFEH@029?5c?5?$CD686868?$AA@ 0049095c     vis_ed_toolbars.obj
 0003:0000996c       ??_C@_0O@IBJB@028?5c?5?$CD676767?$AA@ 0049096c     vis_ed_toolbars.obj
 0003:0000997c       ??_C@_0O@KDNA@027?5c?5?$CD61615F?$AA@ 0049097c     vis_ed_toolbars.obj
 0003:0000998c       ??_C@_0O@PKEC@026?5c?5?$CD5F5F5D?$AA@ 0049098c     vis_ed_toolbars.obj
 0003:0000999c       ??_C@_0O@MDNM@025?5c?5?$CD595958?$AA@ 0049099c     vis_ed_toolbars.obj
 0003:000099ac       ??_C@_0O@CIAO@024?5c?5?$CD595957?$AA@ 004909ac     vis_ed_toolbars.obj
 0003:000099bc       ??_C@_0O@MDNJ@023?5c?5?$CD50504E?$AA@ 004909bc     vis_ed_toolbars.obj
 0003:000099cc       ??_C@_0O@FDFB@022?5c?5?$CD4D4C4B?$AA@ 004909cc     vis_ed_toolbars.obj
 0003:000099dc       ??_C@_0O@LHJK@021?5c?5?$CD4A4A48?$AA@ 004909dc     vis_ed_toolbars.obj
 0003:000099ec       ??_C@_0O@CLLF@020?5c?5?$CD4A4948?$AA@ 004909ec     vis_ed_toolbars.obj
 0003:000099fc       ??_C@_0O@JMBK@019?5c?5?$CD464644?$AA@ 004909fc     vis_ed_toolbars.obj
 0003:00009a0c       ??_C@_0O@JADD@018?5c?5?$CD41403F?$AA@ 00490a0c     vis_ed_toolbars.obj
 0003:00009a1c       ??_C@_0O@MIBB@017?5c?5?$CD3E3D3B?$AA@ 00490a1c     vis_ed_toolbars.obj
 0003:00009a2c       ??_C@_0O@MGFJ@016?5c?5?$CD383836?$AA@ 00490a2c     vis_ed_toolbars.obj
 0003:00009a3c       ??_C@_0O@OHOL@015?5c?5?$CD363534?$AA@ 00490a3c     vis_ed_toolbars.obj
 0003:00009a4c       ??_C@_0O@OAEK@014?5c?5?$CD343432?$AA@ 00490a4c     vis_ed_toolbars.obj
 0003:00009a5c       ??_C@_0O@MLIE@013?5c?5?$CD343332?$AA@ 00490a5c     vis_ed_toolbars.obj
 0003:00009a6c       ??_C@_0O@DGBH@012?5c?5?$CD2F2E2C?$AA@ 00490a6c     vis_ed_toolbars.obj
 0003:00009a7c       ??_C@_0O@JOIO@011?5c?5?$CD2B2A29?$AA@ 00490a7c     vis_ed_toolbars.obj
 0003:00009a8c       ??_C@_0O@EMAI@010?5c?5?$CD252422?$AA@ 00490a8c     vis_ed_toolbars.obj
 0003:00009a9c       ??_C@_0O@HOOO@009?5c?5?$CD242321?$AA@ 00490a9c     vis_ed_toolbars.obj
 0003:00009aac       ??_C@_0O@MANJ@008?5c?5?$CD22211F?$AA@ 00490aac     vis_ed_toolbars.obj
 0003:00009abc       ??_C@_0O@OJEK@007?5c?5?$CD1E1D1B?$AA@ 00490abc     vis_ed_toolbars.obj
 0003:00009acc       ??_C@_0O@FKJ@006?5c?5?$CD171615?$AA@ 00490acc     vis_ed_toolbars.obj
 0003:00009adc       ??_C@_0O@JAKO@005?5c?5?$CD171614?$AA@ 00490adc     vis_ed_toolbars.obj
 0003:00009aec       ??_C@_0O@HPHA@004?5c?5?$CD141312?$AA@ 00490aec     vis_ed_toolbars.obj
 0003:00009afc       ??_C@_0O@GMIL@003?5c?5?$CD12110F?$AA@ 00490afc     vis_ed_toolbars.obj
 0003:00009b0c       ??_C@_0O@MLME@002?5c?5?$CD11100E?$AA@ 00490b0c     vis_ed_toolbars.obj
 0003:00009b1c       ??_C@_0O@NBMP@001?5c?5?$CD0D0C0A?$AA@ 00490b1c     vis_ed_toolbars.obj
 0003:00009b2c       ??_C@_0O@DEE@000?5c?5?$CD0C0B09?$AA@ 00490b2c     vis_ed_toolbars.obj
 0003:00009b3c       ??_C@_0DB@NEAN@02402802702602502502302302001301@ 00490b3c     vis_ed_toolbars.obj
 0003:00009b70       ??_C@_0DB@NDJI@02608211811711611511111010810510@ 00490b70     vis_ed_toolbars.obj
 0003:00009ba4       ??_C@_0DB@DEIE@02908416215915715415215114914814@ 00490ba4     vis_ed_toolbars.obj
 0003:00009bd8       ??_C@_0DB@HNLC@03009416416216015815615211903203@ 00490bd8     vis_ed_toolbars.obj
 0003:00009c0c       ??_C@_0DB@CCKB@05410316708901701801400803407804@ 00490c0c     vis_ed_toolbars.obj
 0003:00009c40       ??_C@_0DB@NIDH@05911217016610907404503608605103@ 00490c40     vis_ed_toolbars.obj
 0003:00009c74       ??_C@_0DB@CJON@06411417317116904207608705303700@ 00490c74     vis_ed_toolbars.obj
 0003:00009ca8       ??_C@_0DB@GMNF@06812317617409010210107304304801@ 00490ca8     vis_ed_toolbars.obj
 0003:00009cdc       ??_C@_0DB@FMMA@08112517807512409108806305607704@ 00490cdc     vis_ed_toolbars.obj
 0003:00009d10       ??_C@_0DB@JOKK@09213118012212112010017216807207@ 00490d10     vis_ed_toolbars.obj
 0003:00009d44       ??_C@_0DB@ONI@09813318017917917717517417217016@ 00490d44     vis_ed_toolbars.obj
 0003:00009d78       ??_C@_0DB@FLBE@10313314114013913813713613513413@ 00490d78     vis_ed_toolbars.obj
 0003:00009dac       ??_C@_0DB@NHEF@10711310609909508308006706206005@ 00490dac     vis_ed_toolbars.obj
 0003:00009de0       ??_C@_0M@KAN@255?5c?5black?$AA@ 00490de0     vis_ed_toolbars.obj
 0003:00009dec       ??_C@_0M@MIEF@254?5c?5black?$AA@ 00490dec     vis_ed_toolbars.obj
 0003:00009df8       ??_C@_0M@IHLN@253?5c?5black?$AA@ 00490df8     vis_ed_toolbars.obj
 0003:00009e04       ??_C@_0M@EFPF@252?5c?5black?$AA@ 00490e04     vis_ed_toolbars.obj
 0003:00009e10       ??_C@_0M@DCN@251?5c?5black?$AA@ 00490e10     vis_ed_toolbars.obj
 0003:00009e1c       ??_C@_0M@MBGF@250?5c?5black?$AA@ 00490e1c     vis_ed_toolbars.obj
 0003:00009e28       ??_C@_0M@JOKO@249?5c?5black?$AA@ 00490e28     vis_ed_toolbars.obj
 0003:00009e34       ??_C@_0M@FMOG@248?5c?5black?$AA@ 00490e34     vis_ed_toolbars.obj
 0003:00009e40       ??_C@_0M@BFP@247?5c?5black?$AA@ 00490e40     vis_ed_toolbars.obj
 0003:00009e4c       ??_C@_0M@MDBH@246?5c?5black?$AA@ 00490e4c     vis_ed_toolbars.obj
 0003:00009e58       ??_C@_0M@IFMP@245?5c?5black?$AA@ 00490e58     vis_ed_toolbars.obj
 0003:00009e64       ??_C@_0M@IHP@243?5c?5black?$AA@ 00490e64     vis_ed_toolbars.obj
 0003:00009e70       ??_C@_0M@MKDH@242?5c?5black?$AA@ 00490e70     vis_ed_toolbars.obj
 0003:00009e7c       ??_C@_0M@IMOP@241?5c?5black?$AA@ 00490e7c     vis_ed_toolbars.obj
 0003:00009e88       ??_C@_0M@EOKH@240?5c?5black?$AA@ 00490e88     vis_ed_toolbars.obj
 0003:00009e94       ??_C@_0M@DBOB@239?5c?5black?$AA@ 00490e94     vis_ed_toolbars.obj
 0003:00009ea0       ??_C@_0M@PDKJ@238?5c?5black?$AA@ 00490ea0     vis_ed_toolbars.obj
 0003:00009eac       ??_C@_0M@KOBA@237?5c?5black?$AA@ 00490eac     vis_ed_toolbars.obj
 0003:00009eb8       ??_C@_0M@GMFI@236?5c?5black?$AA@ 00490eb8     vis_ed_toolbars.obj
 0003:00009ec4       ??_C@_0M@CKIA@235?5c?5black?$AA@ 00490ec4     vis_ed_toolbars.obj
 0003:00009ed0       ??_C@_0M@OIMI@234?5c?5black?$AA@ 00490ed0     vis_ed_toolbars.obj
 0003:00009edc       ??_C@_0M@KHDA@233?5c?5black?$AA@ 00490edc     vis_ed_toolbars.obj
 0003:00009ee8       ??_C@_0M@GFHI@232?5c?5black?$AA@ 00490ee8     vis_ed_toolbars.obj
 0003:00009ef4       ??_C@_0M@CDKA@231?5c?5black?$AA@ 00490ef4     vis_ed_toolbars.obj
 0003:00009f00       ??_C@_0M@OBOI@230?5c?5black?$AA@ 00490f00     vis_ed_toolbars.obj
 0003:00009f0c       ??_C@_0M@LOCD@229?5c?5black?$AA@ 00490f0c     vis_ed_toolbars.obj
 0003:00009f18       ??_C@_0M@HMGL@228?5c?5black?$AA@ 00490f18     vis_ed_toolbars.obj
 0003:00009f24       ??_C@_0M@CBNC@227?5c?5black?$AA@ 00490f24     vis_ed_toolbars.obj
 0003:00009f30       ??_C@_0M@ODJK@226?5c?5black?$AA@ 00490f30     vis_ed_toolbars.obj
 0003:00009f3c       ??_C@_0M@KFEC@225?5c?5black?$AA@ 00490f3c     vis_ed_toolbars.obj
 0003:00009f48       ??_C@_0M@GHAK@224?5c?5black?$AA@ 00490f48     vis_ed_toolbars.obj
 0003:00009f54       ??_C@_0M@CIPC@223?5c?5black?$AA@ 00490f54     vis_ed_toolbars.obj
 0003:00009f60       ??_C@_0M@OKLK@222?5c?5black?$AA@ 00490f60     vis_ed_toolbars.obj
 0003:00009f6c       ??_C@_0M@KMGC@221?5c?5black?$AA@ 00490f6c     vis_ed_toolbars.obj
 0003:00009f78       ??_C@_0M@GOCK@220?5c?5black?$AA@ 00490f78     vis_ed_toolbars.obj
 0003:00009f84       ??_C@_0M@COGF@219?5c?5black?$AA@ 00490f84     vis_ed_toolbars.obj
 0003:00009f90       ??_C@_0M@OMCN@218?5c?5black?$AA@ 00490f90     vis_ed_toolbars.obj
 0003:00009f9c       ??_C@_0M@LBJE@217?5c?5black?$AA@ 00490f9c     vis_ed_toolbars.obj
 0003:00009fa8       ??_C@_0M@DFAE@215?5c?5black?$AA@ 00490fa8     vis_ed_toolbars.obj
 0003:00009fb4       ??_C@_0M@PHEM@214?5c?5black?$AA@ 00490fb4     vis_ed_toolbars.obj
 0003:00009fc0       ??_C@_0M@LILE@213?5c?5black?$AA@ 00490fc0     vis_ed_toolbars.obj
 0003:00009fcc       ??_C@_0M@HKPM@212?5c?5black?$AA@ 00490fcc     vis_ed_toolbars.obj
 0003:00009fd8       ??_C@_0M@DMCE@211?5c?5black?$AA@ 00490fd8     vis_ed_toolbars.obj
 0003:00009fe4       ??_C@_0M@POGM@210?5c?5black?$AA@ 00490fe4     vis_ed_toolbars.obj
 0003:00009ff0       ??_C@_0M@KBKH@209?5c?5black?$AA@ 00490ff0     vis_ed_toolbars.obj
 0003:00009ffc       ??_C@_0M@GDOP@208?5c?5black?$AA@ 00490ffc     vis_ed_toolbars.obj
 0003:0000a008       ??_C@_0M@DOFG@207?5c?5black?$AA@ 00491008     vis_ed_toolbars.obj
 0003:0000a014       ??_C@_0M@PMBO@206?5c?5black?$AA@ 00491014     vis_ed_toolbars.obj
 0003:0000a020       ??_C@_0M@LKMG@205?5c?5black?$AA@ 00491020     vis_ed_toolbars.obj
 0003:0000a02c       ??_C@_0M@HIIO@204?5c?5black?$AA@ 0049102c     vis_ed_toolbars.obj
 0003:0000a038       ??_C@_0M@DHHG@203?5c?5black?$AA@ 00491038     vis_ed_toolbars.obj
 0003:0000a044       ??_C@_0M@LDOG@201?5c?5black?$AA@ 00491044     vis_ed_toolbars.obj
 0003:0000a050       ??_C@_0M@HBKO@200?5c?5black?$AA@ 00491050     vis_ed_toolbars.obj
 0003:0000a05c       ??_C@_0M@GPOH@199?5c?5black?$AA@ 0049105c     vis_ed_toolbars.obj
 0003:0000a068       ??_C@_0M@KNKP@198?5c?5black?$AA@ 00491068     vis_ed_toolbars.obj
 0003:0000a074       ??_C@_0M@PABG@197?5c?5black?$AA@ 00491074     vis_ed_toolbars.obj
 0003:0000a080       ??_C@_0M@DCFO@196?5c?5black?$AA@ 00491080     vis_ed_toolbars.obj
 0003:0000a08c       ??_C@_0M@HEIG@195?5c?5black?$AA@ 0049108c     vis_ed_toolbars.obj
 0003:0000a098       ??_C@_0M@LGMO@194?5c?5black?$AA@ 00491098     vis_ed_toolbars.obj
 0003:0000a0a4       ??_C@_0M@PJDG@193?5c?5black?$AA@ 004910a4     vis_ed_toolbars.obj
 0003:0000a0b0       ??_C@_0M@DLHO@192?5c?5black?$AA@ 004910b0     vis_ed_toolbars.obj
 0003:0000a0bc       ??_C@_0M@HNKG@191?5c?5black?$AA@ 004910bc     vis_ed_toolbars.obj
 0003:0000a0c8       ??_C@_0M@LPOO@190?5c?5black?$AA@ 004910c8     vis_ed_toolbars.obj
 0003:0000a0d4       ??_C@_0M@OACF@189?5c?5black?$AA@ 004910d4     vis_ed_toolbars.obj
 0003:0000a0e0       ??_C@_0M@CCGN@188?5c?5black?$AA@ 004910e0     vis_ed_toolbars.obj
 0003:0000a0ec       ??_C@_0M@LNJM@186?5c?5black?$AA@ 004910ec     vis_ed_toolbars.obj
 0003:0000a0f8       ??_C@_0M@PLEE@185?5c?5black?$AA@ 004910f8     vis_ed_toolbars.obj
 0003:0000a104       ??_C@_0M@DJAM@184?5c?5black?$AA@ 00491104     vis_ed_toolbars.obj
 0003:0000a110       ??_C@_0M@HGPE@183?5c?5black?$AA@ 00491110     vis_ed_toolbars.obj
 0003:0000a11c       ??_C@_0M@LELM@182?5c?5black?$AA@ 0049111c     vis_ed_toolbars.obj
 0003:0000a128       ??_C@_0M@PCGE@181?5c?5black?$AA@ 00491128     vis_ed_toolbars.obj
 0003:0000a134       ??_C@_0O@OBD@180?5c?5?$CDFEFEFE?$AA@ 00491134     vis_ed_toolbars.obj
 0003:0000a144       ??_C@_0O@NEJB@179?5c?5?$CDFDFEFD?$AA@ 00491144     vis_ed_toolbars.obj
 0003:0000a154       ??_C@_0O@FJBH@178?5c?5?$CDFCFDFC?$AA@ 00491154     vis_ed_toolbars.obj
 0003:0000a164       ??_C@_0O@DIOD@177?5c?5?$CDFBFDFC?$AA@ 00491164     vis_ed_toolbars.obj
 0003:0000a174       ??_C@_0O@CGPF@176?5c?5?$CDFAFCFB?$AA@ 00491174     vis_ed_toolbars.obj
 0003:0000a184       ??_C@_0O@LEMK@175?5c?5?$CDFAFBFA?$AA@ 00491184     vis_ed_toolbars.obj
 0003:0000a194       ??_C@_0O@KGKF@174?5c?5?$CDF8FAF8?$AA@ 00491194     vis_ed_toolbars.obj
 0003:0000a1a4       ??_C@_0O@DCFH@173?5c?5?$CDF8FAF7?$AA@ 004911a4     vis_ed_toolbars.obj
 0003:0000a1b4       ??_C@_0O@MFBK@172?5c?5?$CDF6F9F6?$AA@ 004911b4     vis_ed_toolbars.obj
 0003:0000a1c4       ??_C@_0O@OFFM@171?5c?5?$CDF5F9F5?$AA@ 004911c4     vis_ed_toolbars.obj
 0003:0000a1d4       ??_C@_0O@FGB@170?5c?5?$CDF4F9F4?$AA@ 004911d4     vis_ed_toolbars.obj
 0003:0000a1e4       ??_C@_0O@IEGM@169?5c?5?$CDF4F8F4?$AA@ 004911e4     vis_ed_toolbars.obj
 0003:0000a1f4       ??_C@_0O@FLPM@168?5c?5?$CDF3F8F3?$AA@ 004911f4     vis_ed_toolbars.obj
 0003:0000a204       ??_C@_0O@JAJP@167?5c?5?$CDF2F8F2?$AA@ 00491204     vis_ed_toolbars.obj
 0003:0000a214       ??_C@_0O@FEME@166?5c?5?$CDF2F7F2?$AA@ 00491214     vis_ed_toolbars.obj
 0003:0000a224       ??_C@_0O@MHGP@165?5c?5?$CDEFF6EF?$AA@ 00491224     vis_ed_toolbars.obj
 0003:0000a234       ??_C@_0O@MEAN@164?5c?5?$CDEEF5EE?$AA@ 00491234     vis_ed_toolbars.obj
 0003:0000a244       ??_C@_0O@FLBA@163?5c?5?$CDEDF5ED?$AA@ 00491244     vis_ed_toolbars.obj
 0003:0000a254       ??_C@_0O@NGJG@162?5c?5?$CDECF4EC?$AA@ 00491254     vis_ed_toolbars.obj
 0003:0000a264       ??_C@_0O@FNNF@161?5c?5?$CDEBF3EB?$AA@ 00491264     vis_ed_toolbars.obj
 0003:0000a274       ??_C@_0O@PKJK@160?5c?5?$CDEAF2EA?$AA@ 00491274     vis_ed_toolbars.obj
 0003:0000a284       ??_C@_0O@PGDN@159?5c?5?$CDE9F2E9?$AA@ 00491284     vis_ed_toolbars.obj
 0003:0000a294       ??_C@_0O@OADL@158?5c?5?$CDE8F1E8?$AA@ 00491294     vis_ed_toolbars.obj
 0003:0000a2a4       ??_C@_0O@BCCM@157?5c?5?$CDE7F0E8?$AA@ 004912a4     vis_ed_toolbars.obj
 0003:0000a2b4       ??_C@_0O@PJPO@156?5c?5?$CDE7F0E7?$AA@ 004912b4     vis_ed_toolbars.obj
 0003:0000a2c4       ??_C@_0O@NDAK@155?5c?5?$CDE5F0E5?$AA@ 004912c4     vis_ed_toolbars.obj
 0003:0000a2d4       ??_C@_0O@FMBB@154?5c?5?$CDE5EFE5?$AA@ 004912d4     vis_ed_toolbars.obj
 0003:0000a2e4       ??_C@_0O@GDCJ@153?5c?5?$CDE5EFE4?$AA@ 004912e4     vis_ed_toolbars.obj
 0003:0000a2f4       ??_C@_0O@OKKH@152?5c?5?$CDE3EEE3?$AA@ 004912f4     vis_ed_toolbars.obj
 0003:0000a304       ??_C@_0O@DINC@151?5c?5?$CDE1EDE0?$AA@ 00491304     vis_ed_toolbars.obj
 0003:0000a314       ??_C@_0O@MMBJ@150?5c?5?$CDE0ECE0?$AA@ 00491314     vis_ed_toolbars.obj
 0003:0000a324       ??_C@_0O@LPJO@149?5c?5?$CDDEEBDE?$AA@ 00491324     vis_ed_toolbars.obj
 0003:0000a334       ??_C@_0O@KJJI@148?5c?5?$CDDDEADD?$AA@ 00491334     vis_ed_toolbars.obj
 0003:0000a344       ??_C@_0O@DNKM@147?5c?5?$CDDDEADC?$AA@ 00491344     vis_ed_toolbars.obj
 0003:0000a354       ??_C@_0O@BHPM@146?5c?5?$CDDBEADC?$AA@ 00491354     vis_ed_toolbars.obj
 0003:0000a364       ??_C@_0O@PEFL@145?5c?5?$CDDBE9DB?$AA@ 00491364     vis_ed_toolbars.obj
 0003:0000a374       ??_C@_0O@BAC@144?5c?5?$CDDAE9DA?$AA@ 00491374     vis_ed_toolbars.obj
 0003:0000a384       ??_C@_0O@MCNC@143?5c?5?$CDD9E8D9?$AA@ 00491384     vis_ed_toolbars.obj
 0003:0000a394       ??_C@_0O@MDL@142?5c?5?$CDD8E7D8?$AA@ 00491394     vis_ed_toolbars.obj
 0003:0000a3a4       ??_C@_0O@JKBF@141?5c?5?$CDCEE5C9?$AA@ 004913a4     vis_ed_toolbars.obj
 0003:0000a3b4       ??_C@_0O@ECEJ@140?5c?5?$CDC8E1C1?$AA@ 004913b4     vis_ed_toolbars.obj
 0003:0000a3c4       ??_C@_0O@JMPN@139?5c?5?$CDC7E1C1?$AA@ 004913c4     vis_ed_toolbars.obj
 0003:0000a3d4       ??_C@_0O@JELH@138?5c?5?$CDC0DBBB?$AA@ 004913d4     vis_ed_toolbars.obj
 0003:0000a3e4       ??_C@_0O@PLC@137?5c?5?$CDBFDBBB?$AA@ 004913e4     vis_ed_toolbars.obj
 0003:0000a3f4       ??_C@_0O@OGFH@136?5c?5?$CDBFDAB9?$AA@ 004913f4     vis_ed_toolbars.obj
 0003:0000a404       ??_C@_0O@MKI@135?5c?5?$CDBAD0B3?$AA@ 00491404     vis_ed_toolbars.obj
 0003:0000a414       ??_C@_0O@BKOC@134?5c?5?$CDB6D3AC?$AA@ 00491414     vis_ed_toolbars.obj
 0003:0000a424       ??_C@_0O@EALK@133?5c?5?$CDB2D6AA?$AA@ 00491424     vis_ed_toolbars.obj
 0003:0000a434       ??_C@_0O@LF@132?5c?5?$CDB1CEA8?$AA@ 00491434     vis_ed_toolbars.obj
 0003:0000a444       ??_C@_0O@IAKG@131?5c?5?$CDA9D1A0?$AA@ 00491444     vis_ed_toolbars.obj
 0003:0000a454       ??_C@_0O@KHAK@130?5c?5?$CDADCAA3?$AA@ 00491454     vis_ed_toolbars.obj
 0003:0000a464       ??_C@_0O@IHOD@129?5c?5?$CDA4C4A3?$AA@ 00491464     vis_ed_toolbars.obj
 0003:0000a474       ??_C@_0O@OGNJ@128?5c?5?$CDA3C3A1?$AA@ 00491474     vis_ed_toolbars.obj
 0003:0000a484       ??_C@_0O@NHJL@127?5c?5?$CDA9C69F?$AA@ 00491484     vis_ed_toolbars.obj
 0003:0000a494       ??_C@_0O@GCII@126?5c?5?$CDA8C69E?$AA@ 00491494     vis_ed_toolbars.obj
 0003:0000a4a4       ??_C@_0O@DJEJ@125?5c?5?$CDA5CE9B?$AA@ 004914a4     vis_ed_toolbars.obj
 0003:0000a4b4       ??_C@_0O@PGKL@124?5c?5?$CD9FCB98?$AA@ 004914b4     vis_ed_toolbars.obj
 0003:0000a4c4       ??_C@_0O@EBAJ@123?5c?5?$CD9CC794?$AA@ 004914c4     vis_ed_toolbars.obj
 0003:0000a4d4       ??_C@_0O@LBCC@122?5c?5?$CD91C38C?$AA@ 004914d4     vis_ed_toolbars.obj
 0003:0000a4e4       ??_C@_0O@JNPE@121?5c?5?$CD8DC089?$AA@ 004914e4     vis_ed_toolbars.obj
 0003:0000a4f4       ??_C@_0O@BHIB@120?5c?5?$CD8CC089?$AA@ 004914f4     vis_ed_toolbars.obj
 0003:0000a504       ??_C@_0O@MDGM@119?5c?5?$CDA1BA98?$AA@ 00491504     vis_ed_toolbars.obj
 0003:0000a514       ??_C@_0O@JGNP@118?5c?5?$CDA1BF97?$AA@ 00491514     vis_ed_toolbars.obj
 0003:0000a524       ??_C@_0O@KLIH@117?5c?5?$CDA0BE96?$AA@ 00491524     vis_ed_toolbars.obj
 0003:0000a534       ??_C@_0O@JIHN@116?5c?5?$CD9CBA91?$AA@ 00491534     vis_ed_toolbars.obj
 0003:0000a544       ??_C@_0O@NHK@115?5c?5?$CD9CBA90?$AA@ 00491544     vis_ed_toolbars.obj
 0003:0000a554       ??_C@_0O@PC@114?5c?5?$CD98BF8F?$AA@ 00491554     vis_ed_toolbars.obj
 0003:0000a564       ??_C@_0O@CCJD@113?5c?5?$CD91BB83?$AA@ 00491564     vis_ed_toolbars.obj
 0003:0000a574       ??_C@_0O@DOCH@112?5c?5?$CD91BA83?$AA@ 00491574     vis_ed_toolbars.obj
 0003:0000a584       ??_C@_0O@DPMN@111?5c?5?$CD97B78B?$AA@ 00491584     vis_ed_toolbars.obj
 0003:0000a594       ??_C@_0O@DIKH@110?5c?5?$CD95B68A?$AA@ 00491594     vis_ed_toolbars.obj
 0003:0000a5a4       ??_C@_0O@BLIB@109?5c?5?$CD89BE85?$AA@ 004915a4     vis_ed_toolbars.obj
 0003:0000a5b4       ??_C@_0O@MLNC@108?5c?5?$CD8EB480?$AA@ 004915b4     vis_ed_toolbars.obj
 0003:0000a5c4       ??_C@_0O@IDHJ@107?5c?5?$CD8EBA7F?$AA@ 004915c4     vis_ed_toolbars.obj
 0003:0000a5d4       ??_C@_0O@GOBO@106?5c?5?$CD8DB67E?$AA@ 004915d4     vis_ed_toolbars.obj
 0003:0000a5e4       ??_C@_0O@LEHL@105?5c?5?$CD8DB37F?$AA@ 004915e4     vis_ed_toolbars.obj
 0003:0000a5f4       ??_C@_0O@DOAO@104?5c?5?$CD8CB37F?$AA@ 004915f4     vis_ed_toolbars.obj
 0003:0000a604       ??_C@_0O@KNMA@103?5c?5?$CD8AB57B?$AA@ 00491604     vis_ed_toolbars.obj
 0003:0000a614       ??_C@_0O@NAEB@102?5c?5?$CD83B97B?$AA@ 00491614     vis_ed_toolbars.obj
 0003:0000a624       ??_C@_0O@NAOD@101?5c?5?$CD80BB78?$AA@ 00491624     vis_ed_toolbars.obj
 0003:0000a634       ??_C@_0O@FGMP@100?5c?5?$CD84B27E?$AA@ 00491634     vis_ed_toolbars.obj
 0003:0000a644       ??_C@_0O@KHJK@099?5c?5?$CD87B178?$AA@ 00491644     vis_ed_toolbars.obj
 0003:0000a654       ??_C@_0O@EMEI@098?5c?5?$CD87B177?$AA@ 00491654     vis_ed_toolbars.obj
 0003:0000a664       ??_C@_0O@OGLH@097?5c?5?$CD87AE76?$AA@ 00491664     vis_ed_toolbars.obj
 0003:0000a674       ??_C@_0O@KMBN@096?5c?5?$CD86AE76?$AA@ 00491674     vis_ed_toolbars.obj
 0003:0000a684       ??_C@_0O@LEAF@095?5c?5?$CD83AD74?$AA@ 00491684     vis_ed_toolbars.obj
 0003:0000a694       ??_C@_0O@LGP@094?5c?5?$CD83AD73?$AA@ 00491694     vis_ed_toolbars.obj
 0003:0000a6a4       ??_C@_0O@NJLC@093?5c?5?$CD81AE71?$AA@ 004916a4     vis_ed_toolbars.obj
 0003:0000a6b4       ??_C@_0O@INFM@092?5c?5?$CD81AB71?$AA@ 004916b4     vis_ed_toolbars.obj
 0003:0000a6c4       ??_C@_0O@PAPJ@091?5c?5?$CD7FBC76?$AA@ 004916c4     vis_ed_toolbars.obj
 0003:0000a6d4       ??_C@_0O@CEFC@090?5c?5?$CD7CB277?$AA@ 004916d4     vis_ed_toolbars.obj
 0003:0000a6e4       ??_C@_0O@JFFJ@089?5c?5?$CD75B371?$AA@ 004916e4     vis_ed_toolbars.obj
 0003:0000a6f4       ??_C@_0O@CFNN@088?5c?5?$CD78B86F?$AA@ 004916f4     vis_ed_toolbars.obj
 0003:0000a704       ??_C@_0O@NDJP@087?5c?5?$CD7AB36E?$AA@ 00491704     vis_ed_toolbars.obj
 0003:0000a714       ??_C@_0O@JAEH@086?5c?5?$CD78B26B?$AA@ 00491714     vis_ed_toolbars.obj
 0003:0000a724       ??_C@_0O@KO@085?5c?5?$CD7FA476?$AA@ 00491724     vis_ed_toolbars.obj
 0003:0000a734       ??_C@_0O@GPFA@084?5c?5?$CD7DA86D?$AA@ 00491734     vis_ed_toolbars.obj
 0003:0000a744       ??_C@_0O@NECL@083?5c?5?$CD7DA76D?$AA@ 00491744     vis_ed_toolbars.obj
 0003:0000a754       ??_C@_0O@FDBP@082?5c?5?$CD7BA66B?$AA@ 00491754     vis_ed_toolbars.obj
 0003:0000a764       ??_C@_0O@IFGC@081?5c?5?$CD7AA56A?$AA@ 00491764     vis_ed_toolbars.obj
 0003:0000a774       ??_C@_0O@CNGE@080?5c?5?$CD79A368?$AA@ 00491774     vis_ed_toolbars.obj
 0003:0000a784       ??_C@_0O@DOMM@079?5c?5?$CD76A065?$AA@ 00491784     vis_ed_toolbars.obj
 0003:0000a794       ??_C@_0O@NDLC@078?5c?5?$CD6CAB63?$AA@ 00491794     vis_ed_toolbars.obj
 0003:0000a7a4       ??_C@_0O@FCCJ@077?5c?5?$CD6AAB63?$AA@ 004917a4     vis_ed_toolbars.obj
 0003:0000a7b4       ??_C@_0O@EAMM@076?5c?5?$CD68A762?$AA@ 004917b4     vis_ed_toolbars.obj
 0003:0000a7c4       ??_C@_0O@JHJL@075?5c?5?$CD63A461?$AA@ 004917c4     vis_ed_toolbars.obj
 0003:0000a7d4       ??_C@_0O@PBMO@074?5c?5?$CD6CAD5D?$AA@ 004917d4     vis_ed_toolbars.obj
 0003:0000a7e4       ??_C@_0O@OOAO@073?5c?5?$CD64AA5B?$AA@ 004917e4     vis_ed_toolbars.obj
 0003:0000a7f4       ??_C@_0O@DDPA@072?5c?5?$CD7F9F7D?$AA@ 004917f4     vis_ed_toolbars.obj
 0003:0000a804       ??_C@_0O@FJIF@071?5c?5?$CD7F9F7C?$AA@ 00491804     vis_ed_toolbars.obj
 0003:0000a814       ??_C@_0O@FDGF@070?5c?5?$CD7E9F7C?$AA@ 00491814     vis_ed_toolbars.obj
 0003:0000a824       ??_C@_0O@NMNC@069?5c?5?$CD7E9E7B?$AA@ 00491824     vis_ed_toolbars.obj
 0003:0000a834       ??_C@_0O@NBCJ@068?5c?5?$CD749E62?$AA@ 00491834     vis_ed_toolbars.obj
 0003:0000a844       ??_C@_0O@IGDJ@067?5c?5?$CD739F62?$AA@ 00491844     vis_ed_toolbars.obj
 0003:0000a854       ??_C@_0O@BJCM@066?5c?5?$CD729C5F?$AA@ 00491854     vis_ed_toolbars.obj
 0003:0000a864       ??_C@_0O@JHPF@065?5c?5?$CD709A5D?$AA@ 00491864     vis_ed_toolbars.obj
 0003:0000a874       ??_C@_0O@EDJJ@064?5c?5?$CD6D985A?$AA@ 00491874     vis_ed_toolbars.obj
 0003:0000a884       ??_C@_0O@CMLF@063?5c?5?$CD689C55?$AA@ 00491884     vis_ed_toolbars.obj
 0003:0000a894       ??_C@_0O@LMDJ@062?5c?5?$CD6E955E?$AA@ 00491894     vis_ed_toolbars.obj
 0003:0000a8a4       ??_C@_0O@POHJ@061?5c?5?$CD6A9657?$AA@ 004918a4     vis_ed_toolbars.obj
 0003:0000a8b4       ??_C@_0O@KDCO@060?5c?5?$CD699055?$AA@ 004918b4     vis_ed_toolbars.obj
 0003:0000a8c4       ??_C@_0O@MAIC@059?5c?5?$CD679054?$AA@ 004918c4     vis_ed_toolbars.obj
 0003:0000a8d4       ??_C@_0O@JPOM@058?5c?5?$CD64944F?$AA@ 004918d4     vis_ed_toolbars.obj
 0003:0000a8e4       ??_C@_0O@KFDM@057?5c?5?$CD688F54?$AA@ 004918e4     vis_ed_toolbars.obj
 0003:0000a8f4       ??_C@_0O@KOKI@056?5c?5?$CD608A5D?$AA@ 004918f4     vis_ed_toolbars.obj
 0003:0000a904       ??_C@_0O@OJNM@055?5c?5?$CD63884E?$AA@ 00491904     vis_ed_toolbars.obj
 0003:0000a914       ??_C@_0O@JCLP@054?5c?5?$CD61874C?$AA@ 00491914     vis_ed_toolbars.obj
 0003:0000a924       ??_C@_0O@HAEN@053?5c?5?$CD5B9B4E?$AA@ 00491924     vis_ed_toolbars.obj
 0003:0000a934       ??_C@_0O@EEBI@052?5c?5?$CD5E9348?$AA@ 00491934     vis_ed_toolbars.obj
 0003:0000a944       ??_C@_0O@FFLJ@051?5c?5?$CD589348?$AA@ 00491944     vis_ed_toolbars.obj
 0003:0000a954       ??_C@_0O@GCGJ@050?5c?5?$CD5D9247?$AA@ 00491954     vis_ed_toolbars.obj
 0003:0000a964       ??_C@_0O@BCGK@049?5c?5?$CD549E4F?$AA@ 00491964     vis_ed_toolbars.obj
 0003:0000a974       ??_C@_0O@JPGG@048?5c?5?$CD539249?$AA@ 00491974     vis_ed_toolbars.obj
 0003:0000a984       ??_C@_0O@DFLC@047?5c?5?$CD588F46?$AA@ 00491984     vis_ed_toolbars.obj
 0003:0000a994       ??_C@_0O@KMCN@046?5c?5?$CD5D8349?$AA@ 00491994     vis_ed_toolbars.obj
 0003:0000a9a4       ??_C@_0O@GBHH@045?5c?5?$CD4D9A49?$AA@ 004919a4     vis_ed_toolbars.obj
 0003:0000a9b4       ??_C@_0O@LFOH@044?5c?5?$CD499249?$AA@ 004919b4     vis_ed_toolbars.obj
 0003:0000a9c4       ??_C@_0O@KLAJ@043?5c?5?$CD4D9046?$AA@ 004919c4     vis_ed_toolbars.obj
 0003:0000a9d4       ??_C@_0O@LOHH@042?5c?5?$CD469542?$AA@ 004919d4     vis_ed_toolbars.obj
 0003:0000a9e4       ??_C@_0O@EI@041?5c?5?$CD478A43?$AA@ 004919e4     vis_ed_toolbars.obj
 0003:0000a9f4       ??_C@_0O@EEGK@040?5c?5?$CD568C3C?$AA@ 004919f4     vis_ed_toolbars.obj
 0003:0000aa04       ??_C@_0O@IOMK@039?5c?5?$CD528C38?$AA@ 00491a04     vis_ed_toolbars.obj
 0003:0000aa14       ??_C@_0O@GAFA@038?5c?5?$CD4E8C34?$AA@ 00491a14     vis_ed_toolbars.obj
 0003:0000aa24       ??_C@_0O@JJGK@037?5c?5?$CD49813E?$AA@ 00491a24     vis_ed_toolbars.obj
 0003:0000aa34       ??_C@_0O@MFDH@036?5c?5?$CD408C3B?$AA@ 00491a34     vis_ed_toolbars.obj
 0003:0000aa44       ??_C@_0O@GJOH@035?5c?5?$CD45833E?$AA@ 00491a44     vis_ed_toolbars.obj
 0003:0000aa54       ??_C@_0O@PNDH@034?5c?5?$CD31832E?$AA@ 00491a54     vis_ed_toolbars.obj
 0003:0000aa64       ??_C@_0O@DADM@033?5c?5?$CD30822D?$AA@ 00491a64     vis_ed_toolbars.obj
 0003:0000aa74       ??_C@_0O@CCD@032?5c?5?$CD5A7757?$AA@ 00491a74     vis_ed_toolbars.obj
 0003:0000aa84       ??_C@_0O@JJKF@031?5c?5?$CD597756?$AA@ 00491a84     vis_ed_toolbars.obj
 0003:0000aa94       ??_C@_0O@HMBH@030?5c?5?$CD5A7E44?$AA@ 00491a94     vis_ed_toolbars.obj
 0003:0000aaa4       ??_C@_0O@CCFL@029?5c?5?$CD567A40?$AA@ 00491aa4     vis_ed_toolbars.obj
 0003:0000aab4       ??_C@_0O@CLIL@028?5c?5?$CD547B42?$AA@ 00491ab4     vis_ed_toolbars.obj
 0003:0000aac4       ??_C@_0O@IDCC@027?5c?5?$CD537A41?$AA@ 00491ac4     vis_ed_toolbars.obj
 0003:0000aad4       ??_C@_0O@LNOF@026?5c?5?$CD4F753B?$AA@ 00491ad4     vis_ed_toolbars.obj
 0003:0000aae4       ??_C@_0O@MPLF@025?5c?5?$CD4E743A?$AA@ 00491ae4     vis_ed_toolbars.obj
 0003:0000aaf4       ??_C@_0O@KDFP@024?5c?5?$CD4B7239?$AA@ 00491af4     vis_ed_toolbars.obj
 0003:0000ab04       ??_C@_0O@EIL@023?5c?5?$CD486E33?$AA@ 00491b04     vis_ed_toolbars.obj
 0003:0000ab14       ??_C@_0O@DDNM@022?5c?5?$CD446F37?$AA@ 00491b14     vis_ed_toolbars.obj
 0003:0000ab24       ??_C@_0O@OCFC@021?5c?5?$CD476D33?$AA@ 00491b24     vis_ed_toolbars.obj
 0003:0000ab34       ??_C@_0O@FHEB@020?5c?5?$CD466D30?$AA@ 00491b34     vis_ed_toolbars.obj
 0003:0000ab44       ??_C@_0O@PJAA@019?5c?5?$CD456B31?$AA@ 00491b44     vis_ed_toolbars.obj
 0003:0000ab54       ??_C@_0O@HBJC@018?5c?5?$CD43673D?$AA@ 00491b54     vis_ed_toolbars.obj
 0003:0000ab64       ??_C@_0O@KBOE@017?5c?5?$CD40653C?$AA@ 00491b64     vis_ed_toolbars.obj
 0003:0000ab74       ??_C@_0O@EKKH@016?5c?5?$CD416530?$AA@ 00491b74     vis_ed_toolbars.obj
 0003:0000ab84       ??_C@_0O@GIOD@015?5c?5?$CD41652B?$AA@ 00491b84     vis_ed_toolbars.obj
 0003:0000ab94       ??_C@_0O@BDPH@014?5c?5?$CD3F653B?$AA@ 00491b94     vis_ed_toolbars.obj
 0003:0000aba4       ??_C@_0O@IGKG@013?5c?5?$CD3E662B?$AA@ 00491ba4     vis_ed_toolbars.obj
 0003:0000abb4       ??_C@_0O@KPJM@012?5c?5?$CD3C6529?$AA@ 00491bb4     vis_ed_toolbars.obj
 0003:0000abc4       ??_C@_0O@CANH@011?5c?5?$CD3C6028?$AA@ 00491bc4     vis_ed_toolbars.obj
 0003:0000abd4       ??_C@_0O@LKCC@010?5c?5?$CD247D22?$AA@ 00491bd4     vis_ed_toolbars.obj
 0003:0000abe4       ??_C@_0O@IMAH@009?5c?5?$CD247A24?$AA@ 00491be4     vis_ed_toolbars.obj
 0003:0000abf4       ??_C@_0O@JAPI@008?5c?5?$CD385F34?$AA@ 00491bf4     vis_ed_toolbars.obj
 0003:0000ac04       ??_C@_0O@JGII@007?5c?5?$CD375C25?$AA@ 00491c04     vis_ed_toolbars.obj
 0003:0000ac14       ??_C@_0O@CJOC@006?5c?5?$CD375C22?$AA@ 00491c14     vis_ed_toolbars.obj
 0003:0000ac24       ??_C@_0O@KJIB@005?5c?5?$CD355C21?$AA@ 00491c24     vis_ed_toolbars.obj
 0003:0000ac34       ??_C@_0O@PBLM@004?5c?5?$CD365B24?$AA@ 00491c34     vis_ed_toolbars.obj
 0003:0000ac44       ??_C@_0O@CHHG@003?5c?5?$CD30521D?$AA@ 00491c44     vis_ed_toolbars.obj
 0003:0000ac54       ??_C@_0O@MDPC@002?5c?5?$CD2C4F1B?$AA@ 00491c54     vis_ed_toolbars.obj
 0003:0000ac64       ??_C@_0O@FNLE@001?5c?5?$CD294C19?$AA@ 00491c64     vis_ed_toolbars.obj
 0003:0000ac74       ??_C@_0O@INDO@000?5c?5?$CD1D6214?$AA@ 00491c74     vis_ed_toolbars.obj
 0003:0000ac84       ??_C@_0BB@NIEO@?4?4aa?4?4?4aa?4?4?4aa?4?4?$AA@ 00491c84     vis_ed_toolbars.obj
 0003:0000ac98       ??_C@_0CB@BABA@?5?5?50?5?5?50?5?5?50?5W?5X?5Y?5?5?5?5?5Z?5?$CG0?5?5?5?5?5@ 00491c98     vis_ed_toolbars.obj
 0003:0000acbc       ??_C@_0CB@KNGM@?5?5?5?5?5?5?5?5?5?5?5M?5N?5O?5P?5Q?5R?5S?5T?5U?5V?5?5@ 00491cbc     vis_ed_toolbars.obj
 0003:0000ace0       ??_C@_0CB@FHPD@?5?5?50?5?5?50?5C?5D?5E?5F?5e?5G?5H?5I?5J?5K?5L?5?5@ 00491ce0     vis_ed_toolbars.obj
 0003:0000ad04       ??_C@_0CB@NMAP@?5?5?5?5?5?5?5?5?5s?5t?5u?5v?5w?5e?5x?5y?5z?5A?5B?5?5@ 00491d04     vis_ed_toolbars.obj
 0003:0000ad28       ??_C@_0CB@MMIE@?5?5?50?5?5?50?5i?5j?5k?5l?5m?5n?5e?5o?5p?5q?5r?5?5@ 00491d28     vis_ed_toolbars.obj
 0003:0000ad4c       ??_C@_0CB@IMNN@?5?5?5?5?5?5?5?5?57?58?59?5a?5b?5c?5d?5e?5f?5g?5h?5?5@ 00491d4c     vis_ed_toolbars.obj
 0003:0000ad70       ??_C@_0CB@KKLL@?5?5?50?5?5?50?5?5?50?51?52?53?50?5?5?54?55?56?5?5?5?5@ 00491d70     vis_ed_toolbars.obj
 0003:0000ad94       ??_C@_0CB@IEDB@?5?5?50?5?5?50?5?5?50?5?5?50?5?5?50?5?5?50?5?5?50?5?5?5?5@ 00491d94     vis_ed_toolbars.obj
 0003:0000adb8       ??_C@_0CB@GEHF@?5?5?5?5?5?5?5?5?5?5?5?5?5?5?5?5?5?5?5?5?5?5?5?5?5?5?5?5?5?5?5?5@ 00491db8     vis_ed_toolbars.obj
 0003:0000addc       ??_C@_0BA@FLBL@0?5?5?5?5?5c?5?$CDDCCFDC?$AA@ 00491ddc     vis_ed_toolbars.obj
 0003:0000adec       ??_C@_0BA@LIEP@?5?$CG?5?5?5?5c?5?$CDB5B4BB?$AA@ 00491dec     vis_ed_toolbars.obj
 0003:0000adfc       ??_C@_0BA@JCKI@?5Z?5?5?5?5c?5?$CDA0A0B5?$AA@ 00491dfc     vis_ed_toolbars.obj
 0003:0000ae0c       ??_C@_0BA@HLGI@?5Y?5?5?5?5c?5?$CDBEC8C8?$AA@ 00491e0c     vis_ed_toolbars.obj
 0003:0000ae1c       ??_C@_0BA@BGGF@?5X?5?5?5?5c?5?$CDACBCB8?$AA@ 00491e1c     vis_ed_toolbars.obj
 0003:0000ae2c       ??_C@_0BA@FEAH@?5W?5?5?5?5c?5?$CDB8BBD0?$AA@ 00491e2c     vis_ed_toolbars.obj
 0003:0000ae3c       ??_C@_0BA@KNMM@?5V?5?5?5?5c?5?$CDF1DAF1?$AA@ 00491e3c     vis_ed_toolbars.obj
 0003:0000ae4c       ??_C@_0BA@GMFD@?5U?5?5?5?5c?5?$CD007900?$AA@ 00491e4c     vis_ed_toolbars.obj
 0003:0000ae5c       ??_C@_0BA@GOMG@?5T?5?5?5?5c?5?$CD040500?$AA@ 00491e5c     vis_ed_toolbars.obj
 0003:0000ae6c       ??_C@_0BA@HJIB@?5S?5?5?5?5c?5?$CDB1B000?$AA@ 00491e6c     vis_ed_toolbars.obj
 0003:0000ae7c       ??_C@_0BA@OIMC@?5R?5?5?5?5c?5?$CDBABB6B?$AA@ 00491e7c     vis_ed_toolbars.obj
 0003:0000ae8c       ??_C@_0BA@GOED@?5Q?5?5?5?5c?5?$CDAFC6D0?$AA@ 00491e8c     vis_ed_toolbars.obj
 0003:0000ae9c       ??_C@_0BA@OLAK@?5P?5?5?5?5c?5?$CD350000?$AA@ 00491e9c     vis_ed_toolbars.obj
 0003:0000aeac       ??_C@_0BA@BBPO@?5O?5?5?5?5c?5?$CD8A0000?$AA@ 00491eac     vis_ed_toolbars.obj
 0003:0000aebc       ??_C@_0BA@BKED@?5N?5?5?5?5c?5?$CD0000A1?$AA@ 00491ebc     vis_ed_toolbars.obj
 0003:0000aecc       ??_C@_0BA@PKJJ@?5M?5?5?5?5c?5?$CD9C9FC2?$AA@ 00491ecc     vis_ed_toolbars.obj
 0003:0000aedc       ??_C@_0BA@MOGC@?5L?5?5?5?5c?5?$CD003100?$AA@ 00491edc     vis_ed_toolbars.obj
 0003:0000aeec       ??_C@_0BA@OMFM@?5K?5?5?5?5c?5?$CD00FF00?$AA@ 00491eec     vis_ed_toolbars.obj
 0003:0000aefc       ??_C@_0BA@CBOJ@?5J?5?5?5?5c?5?$CD5A503A?$AA@ 00491efc     vis_ed_toolbars.obj
 0003:0000af0c       ??_C@_0BA@JIEF@?5I?5?5?5?5c?5?$CDFFFF00?$AA@ 00491f0c     vis_ed_toolbars.obj
 0003:0000af1c       ??_C@_0BA@JNE@?5H?5?5?5?5c?5?$CD9DAB00?$AA@ 00491f1c     vis_ed_toolbars.obj
 0003:0000af2c       ??_C@_0BA@EANO@?5G?5?5?5?5c?5?$CD3C0000?$AA@ 00491f2c     vis_ed_toolbars.obj
 0003:0000af3c       ??_C@_0BA@BDOB@?5F?5?5?5?5c?5?$CDD21B07?$AA@ 00491f3c     vis_ed_toolbars.obj
 0003:0000af4c       ??_C@_0BA@LIFG@?5E?5?5?5?5c?5?$CD0D04C5?$AA@ 00491f4c     vis_ed_toolbars.obj
 0003:0000af5c       ??_C@_0BA@PNHJ@?5D?5?5?5?5c?5?$CD0000E2?$AA@ 00491f5c     vis_ed_toolbars.obj
 0003:0000af6c       ??_C@_0BA@HNNL@?5C?5?5?5?5c?5?$CDBAB7D6?$AA@ 00491f6c     vis_ed_toolbars.obj
 0003:0000af7c       ??_C@_0BA@JGDN@?5B?5?5?5?5c?5?$CD002600?$AA@ 00491f7c     vis_ed_toolbars.obj
 0003:0000af8c       ??_C@_0BA@EDAN@?5A?5?5?5?5c?5?$CD82E669?$AA@ 00491f8c     vis_ed_toolbars.obj
 0003:0000af9c       ??_C@_0BA@LEAO@?5z?5?5?5?5c?5?$CDFFFFFF?$AA@ 00491f9c     vis_ed_toolbars.obj
 0003:0000afac       ??_C@_0BA@PFFM@?5y?5?5?5?5c?5?$CD637E53?$AA@ 00491fac     vis_ed_toolbars.obj
 0003:0000afbc       ??_C@_0BA@OLKD@?5x?5?5?5?5c?5?$CD460000?$AA@ 00491fbc     vis_ed_toolbars.obj
 0003:0000afcc       ??_C@_0BA@LNPN@?5w?5?5?5?5c?5?$CDAB0006?$AA@ 00491fcc     vis_ed_toolbars.obj
 0003:0000afdc       ??_C@_0BA@NHKP@?5v?5?5?5?5c?5?$CDFEFFFF?$AA@ 00491fdc     vis_ed_toolbars.obj
 0003:0000afec       ??_C@_0BA@IMPJ@?5u?5?5?5?5c?5?$CDE7DFFF?$AA@ 00491fec     vis_ed_toolbars.obj
 0003:0000affc       ??_C@_0BA@ODOG@?5t?5?5?5?5c?5?$CD00001B?$AA@ 00491ffc     vis_ed_toolbars.obj
 0003:0000b00c       ??_C@_0BA@OMIM@?5s?5?5?5?5c?5?$CDC4E0C9?$AA@ 0049200c     vis_ed_toolbars.obj
 0003:0000b01c       ??_C@_0BA@DAFB@?5r?5?5?5?5c?5?$CD000042?$AA@ 0049201c     vis_ed_toolbars.obj
 0003:0000b02c       ??_C@_0BA@CHJB@?5q?5?5?5?5c?5?$CD0000EC?$AA@ 0049202c     vis_ed_toolbars.obj
 0003:0000b03c       ??_C@_0BA@PFFD@?5p?5?5?5?5c?5?$CD8D92A0?$AA@ 0049203c     vis_ed_toolbars.obj
 0003:0000b04c       ??_C@_0BA@HKFJ@?5o?5?5?5?5c?5?$CD510000?$AA@ 0049204c     vis_ed_toolbars.obj
 0003:0000b05c       ??_C@_0BA@OLID@?5n?5?5?5?5c?5?$CDB61500?$AA@ 0049205c     vis_ed_toolbars.obj
 0003:0000b06c       ??_C@_0BA@PMOJ@?5m?5?5?5?5c?5?$CDF5FF00?$AA@ 0049206c     vis_ed_toolbars.obj
 0003:0000b07c       ??_C@_0BA@LDKM@?5l?5?5?5?5c?5?$CDAEAA50?$AA@ 0049207c     vis_ed_toolbars.obj
 0003:0000b08c       ??_C@_0BA@IEMP@?5k?5?5?5?5c?5?$CD14521B?$AA@ 0049208c     vis_ed_toolbars.obj
 0003:0000b09c       ??_C@_0BA@BOFE@?5j?5?5?5?5c?5?$CD00F100?$AA@ 0049209c     vis_ed_toolbars.obj
 0003:0000b0ac       ??_C@_0BA@BBNE@?5i?5?5?5?5c?5?$CDBED6BC?$AA@ 004920ac     vis_ed_toolbars.obj
 0003:0000b0bc       ??_C@_0BA@LFJG@?5h?5?5?5?5c?5?$CD808083?$AA@ 004920bc     vis_ed_toolbars.obj
 0003:0000b0cc       ??_C@_0BA@JEJP@?5g?5?5?5?5c?5?$CD0000CC?$AA@ 004920cc     vis_ed_toolbars.obj
 0003:0000b0dc       ??_C@_0BA@JHHE@?5f?5?5?5?5c?5?$CD1500BC?$AA@ 004920dc     vis_ed_toolbars.obj
 0003:0000b0ec       ??_C@_0BA@GPMO@?5e?5?5?5?5c?5?$CDFF0000?$AA@ 004920ec     vis_ed_toolbars.obj
 0003:0000b0fc       ??_C@_0BA@NHGK@?5d?5?5?5?5c?5?$CDAF0208?$AA@ 004920fc     vis_ed_toolbars.obj
 0003:0000b10c       ??_C@_0BA@FBDD@?5c?5?5?5?5c?5?$CD747A5C?$AA@ 0049210c     vis_ed_toolbars.obj
 0003:0000b11c       ??_C@_0BA@MBNK@?5b?5?5?5?5c?5?$CDF6FA00?$AA@ 0049211c     vis_ed_toolbars.obj
 0003:0000b12c       ??_C@_0BA@DGPF@?5a?5?5?5?5c?5?$CD947D00?$AA@ 0049212c     vis_ed_toolbars.obj
 0003:0000b13c       ??_C@_0BA@EPNO@?59?5?5?5?5c?5?$CD00CB00?$AA@ 0049213c     vis_ed_toolbars.obj
 0003:0000b14c       ??_C@_0BA@GOGF@?58?5?5?5?5c?5?$CD23A823?$AA@ 0049214c     vis_ed_toolbars.obj
 0003:0000b15c       ??_C@_0BA@BNNA@?57?5?5?5?5c?5?$CDFCFAFC?$AA@ 0049215c     vis_ed_toolbars.obj
 0003:0000b16c       ??_C@_0BA@FCPH@?56?5?5?5?5c?5?$CD92957D?$AA@ 0049216c     vis_ed_toolbars.obj
 0003:0000b17c       ??_C@_0BA@GLJG@?55?5?5?5?5c?5?$CD51422E?$AA@ 0049217c     vis_ed_toolbars.obj
 0003:0000b18c       ??_C@_0BA@KNJK@?54?5?5?5?5c?5?$CD963737?$AA@ 0049218c     vis_ed_toolbars.obj
 0003:0000b19c       ??_C@_0BA@GMCJ@?53?5?5?5?5c?5?$CDABAB65?$AA@ 0049219c     vis_ed_toolbars.obj
 0003:0000b1ac       ??_C@_0BA@EEBB@?52?5?5?5?5c?5?$CD726B45?$AA@ 004921ac     vis_ed_toolbars.obj
 0003:0000b1bc       ??_C@_0BA@BAFE@?51?5?5?5?5c?5?$CD3F7F45?$AA@ 004921bc     vis_ed_toolbars.obj
 0003:0000b1cc       ??_C@_0BA@GLCM@?50?5?5?5?5c?5?$CD000000?$AA@ 004921cc     vis_ed_toolbars.obj
 0003:0000b1dc       ??_C@_0BA@LMGE@?5?5?5?5?5?5c?5?$CDC0C0C0?$AA@ 004921dc     vis_ed_toolbars.obj
 0003:0000b1ec       ??_C@_0L@JIEN@16?512?565?52?$AA@ 004921ec     vis_ed_toolbars.obj
 0003:0000b1f8       ??_C@_0BB@FPDP@?4?$CD?4?$CD?4?$CD?4?$CD?4?$CD?4?$CD?4?$CD?4?4?$AA@ 004921f8     vis_ed_toolbars.obj
 0003:0000b20c       ??_C@_09JODB@16?512?52?51?$AA@ 0049220c     vis_ed_toolbars.obj
 0003:0000b218       ??_C@_0BB@BKOA@?4?4?4haaa?4?4?4aaaa?4?4?$AA@ 00492218     vis_ed_toolbars.obj
 0003:0000b22c       ??_C@_0BB@LFBA@?4?4hgcfca?4beeada?4?$AA@ 0049222c     vis_ed_toolbars.obj
 0003:0000b240       ??_C@_0BB@FGMO@?4hggcffcaeeeadda?$AA@ 00492240     vis_ed_toolbars.obj
 0003:0000b254       ??_C@_0BB@DKDB@?4hgh?4cffcaea?4?$CDda?$AA@ 00492254     vis_ed_toolbars.obj
 0003:0000b268       ??_C@_0BB@PAHB@?4?$CDa?4?4?4cffca?4?4?4?$CDa?$AA@ 00492268     vis_ed_toolbars.obj
 0003:0000b27c       ??_C@_0BB@EPPA@?4?$CDda?4becffca?4hga?$AA@ 0049227c     vis_ed_toolbars.obj
 0003:0000b290       ??_C@_0BB@BJBE@?4?$CDddaeeecffchgga?$AA@ 00492290     vis_ed_toolbars.obj
 0003:0000b2a4       ??_C@_0BB@CNIA@?4?4?$CDdaeea?4cffgga?4?$AA@ 004922a4     vis_ed_toolbars.obj
 0003:0000b2b8       ??_C@_0BB@PNJP@?4?4?4?$CDabb?4?4?4ccaa?4?4?$AA@ 004922b8     vis_ed_toolbars.obj
 0003:0000b2cc       ??_C@_0M@FBFL@e?5c?5?$CDffff00?$AA@ 004922cc     vis_ed_toolbars.obj
 0003:0000b2d8       ??_C@_0M@PIDE@f?5c?5?$CDff0000?$AA@ 004922d8     vis_ed_toolbars.obj
 0003:0000b2e4       ??_C@_0M@FBIP@b?5c?5?$CD808000?$AA@ 004922e4     vis_ed_toolbars.obj
 0003:0000b2f0       ??_C@_0M@JBJA@c?5c?5?$CD800000?$AA@ 004922f0     vis_ed_toolbars.obj
 0003:0000b2fc       ??_C@_0M@DPMB@d?5c?5?$CD00ff00?$AA@ 004922fc     vis_ed_toolbars.obj
 0003:0000b308       ??_C@_0M@NCJP@g?5c?5?$CD0000ff?$AA@ 00492308     vis_ed_toolbars.obj
 0003:0000b314       ??_C@_0M@OCCL@h?5c?5?$CD000080?$AA@ 00492314     vis_ed_toolbars.obj
 0003:0000b320       ??_C@_0L@IHAG@16?512?510?51?$AA@ 00492320     vis_ed_toolbars.obj
 0003:0000b32c       ??_C@_0BA@PKPE@?4aaaaaaaaaaaaaa?$AA@ 0049232c     vis_ed_toolbars.obj
 0003:0000b33c       ??_C@_0BA@DNI@?$CDeeeeeeeeeeeeea?$AA@ 0049233c     vis_ed_toolbars.obj
 0003:0000b34c       ??_C@_0BA@HNHL@?$CDcfdfdfdfdfffea?$AA@ 0049234c     vis_ed_toolbars.obj
 0003:0000b35c       ??_C@_0BA@DHNH@?$CDcdddfdfdfdffea?$AA@ 0049235c     vis_ed_toolbars.obj
 0003:0000b36c       ??_C@_0BA@MEIL@?$CDcddddddfdfdfea?$AA@ 0049236c     vis_ed_toolbars.obj
 0003:0000b37c       ??_C@_0BA@IMHO@?$CDcdddddfdfdfdea?$AA@ 0049237c     vis_ed_toolbars.obj
 0003:0000b38c       ??_C@_0BA@JJKA@?$CDcddddddddfdfea?$AA@ 0049238c     vis_ed_toolbars.obj
 0003:0000b39c       ??_C@_0BA@BMCD@?$CDcdddddddfdfdea?$AA@ 0049239c     vis_ed_toolbars.obj
 0003:0000b3ac       ??_C@_0BA@NJOK@?$CDcddddddddddfea?$AA@ 004923ac     vis_ed_toolbars.obj
 0003:0000b3bc       ??_C@_0BA@PMEO@?$CDcccccccccccdea?$AA@ 004923bc     vis_ed_toolbars.obj
 0003:0000b3cc       ??_C@_0BA@GPM@?$CDeeeeeee?$CD?$CD?$CD?$CD?$CD?$CD?4?$AA@ 004923cc     vis_ed_toolbars.obj
 0003:0000b3dc       ??_C@_0BA@DCK@?4?$CDbccdd?$CDa?4?4?4?4?4?4?$AA@ 004923dc     vis_ed_toolbars.obj
 0003:0000b3ec       ??_C@_0BA@PCAK@?4?4?$CD?$CD?$CD?$CD?$CDa?4?4?4?4?4?4?4?$AA@ 004923ec     vis_ed_toolbars.obj
 0003:0000b3fc       ??_C@_0M@NJPD@c?5c?5?$CDffffce?$AA@ 004923fc     vis_ed_toolbars.obj
 0003:0000b408       ??_C@_0M@OLCD@d?5c?5?$CDffff9c?$AA@ 00492408     vis_ed_toolbars.obj
 0003:0000b414       ??_C@_0M@HIBN@f?5c?5?$CDffce9c?$AA@ 00492414     vis_ed_toolbars.obj
 0003:0000b420       ??_C@_0M@HLBA@b?5c?5?$CDf7f7f7?$AA@ 00492420     vis_ed_toolbars.obj
 0003:0000b42c       ??_C@_0M@LMHD@e?5c?5?$CDcece63?$AA@ 0049242c     vis_ed_toolbars.obj
 0003:0000b438       ??_C@_0M@BBJH@?$CD?5c?5?$CD9c9c00?$AA@ 00492438     vis_ed_toolbars.obj
 0003:0000b444       ??_C@_09NCPP@15?513?58?51?$AA@ 00492444     vis_ed_toolbars.obj
 0003:0000b450       ??_C@_0BB@FMNA@?4aaaaaaaaaaaaaa?4?$AA@ 00492450     vis_ed_toolbars.obj
 0003:0000b464       ??_C@_0BB@MIBF@?4a?4?4?$CD?$CD?$CD?1?$CD?$CD?$CD?1?1?1a?4?$AA@ 00492464     vis_ed_toolbars.obj
 0003:0000b478       ??_C@_0BB@BEAJ@?4a?1?1?1?$CD?1?1?$CD?1?1?$CD?1?1a?4?$AA@ 00492478     vis_ed_toolbars.obj
 0003:0000b48c       ??_C@_0BB@JJAM@?4a?1?1?$CD?$CD?$CD?1?$CD?$CD?$CD?4?1?1a?4?$AA@ 0049248c     vis_ed_toolbars.obj
 0003:0000b4a0       ??_C@_0BB@KDJ@?4a?1?1?1?1?1?1?1?1?1?1?1?1a?4?$AA@ 004924a0     vis_ed_toolbars.obj
 0003:0000b4b4       ??_C@_0BB@DE@?4bbbbbbbbbbbbbb?4?$AA@ 004924b4     vis_ed_toolbars.obj
 0003:0000b4c8       ??_C@_0M@DHPL@?1?5c?5?$CDffffff?$AA@ 004924c8     vis_ed_toolbars.obj
 0003:0000b4d4       ??_C@_0M@LFPB@?$CD?5c?5?$CD008000?$AA@ 004924d4     vis_ed_toolbars.obj
 0003:0000b4e0       ??_C@_0L@LLLJ@16?516?5?55?51?$AA@ 004924e0     vis_ed_toolbars.obj
 0003:0000b4ec       ??_C@_0BB@DNGL@?4?4?4?4?4?$CDbbb?$CD?4?4?4?4?4?4?$AA@ 004924ec     vis_ed_toolbars.obj
 0003:0000b500       ??_C@_0BB@NCAD@?4?4aaaaaaaaaaaa?4?4?$AA@ 00492500     vis_ed_toolbars.obj
 0003:0000b514       ??_C@_0BB@GPPO@?4?4?4?4?$CDbbb?$CD?4?$CDbbb?$CDa?$AA@ 00492514     vis_ed_toolbars.obj
 0003:0000b528       ??_C@_0BB@GII@?4?4?4?4?$CD?$CD?$CD?$CD?$CD?4?$CD?$CD?$CD?$CD?$CDa?$AA@ 00492528     vis_ed_toolbars.obj
 0003:0000b53c       ??_C@_0BB@DPNO@?4?4?4?4?4?4?4?4?4?4?4?4?4?4?4a?$AA@ 0049253c     vis_ed_toolbars.obj
 0003:0000b550       ??_C@_0BB@DPH@a?$CDbbb?$CD?4?$CDbbb?$CD?4?4?4?4?$AA@ 00492550     vis_ed_toolbars.obj
 0003:0000b564       ??_C@_0BB@JPHM@a?$CD?$CD?$CD?$CD?$CD?4?$CD?$CD?$CD?$CD?$CD?4?4?4?4?$AA@ 00492564     vis_ed_toolbars.obj
 0003:0000b578       ??_C@_0BB@LD@a?4?4?4?4?4?4?4?4?4?4?4?4?4?4?4?$AA@ 00492578     vis_ed_toolbars.obj
 0003:0000b58c       ??_C@_0BB@FGPF@?4?4?4?4?4?4?$CDbb?$CD?4?4?4?4?4?4?$AA@ 0049258c     vis_ed_toolbars.obj
 0003:0000b5a0       ??_C@_0BB@OBL@?4?4?4aaaaaaaaaa?4?4?4?$AA@ 004925a0     vis_ed_toolbars.obj
 0003:0000b5b4       ??_C@_0BB@GNEO@a?$CDbb?$CD?4?$CDbb?$CD?4?$CDbb?$CDa?$AA@ 004925b4     vis_ed_toolbars.obj
 0003:0000b5c8       ??_C@_0BB@GGPA@a?$CD?$CD?$CD?$CD?4?$CD?$CD?$CD?$CD?4?$CD?$CD?$CD?$CDa?$AA@ 004925c8     vis_ed_toolbars.obj
 0003:0000b5dc       ??_C@_0BB@KECO@a?4?4?4?4?4?4?4?4?4?4?4?4?4?4a?$AA@ 004925dc     vis_ed_toolbars.obj
 0003:0000b5f0       ??_C@_0M@KHCI@?$CD?5c?5?$CD804000?$AA@ 004925f0     vis_ed_toolbars.obj
 0003:0000b5fc       ??_C@_0BB@NAF@?4?4?4?4?4?4?4?4?$CD?$CD?$CD?$CD?$CD?$CD?4?4?$AA@ 004925fc     vis_ed_toolbars.obj
 0003:0000b610       ??_C@_0BB@DIFK@?4?4?4?4?4?4?4?4?$CD?4?4?4?4?$CD?4?4?$AA@ 00492610     vis_ed_toolbars.obj
 0003:0000b624       ??_C@_0BB@IAHP@?4?4?4?4?4?4?$CD?$CD?$CD?$CD?$CD?$CD?4?$CD?4?4?$AA@ 00492624     vis_ed_toolbars.obj
 0003:0000b638       ??_C@_0BB@POPJ@?4?4?4?4?4?4?$CD?4?4?4?4?$CD?4?$CD?4?4?$AA@ 00492638     vis_ed_toolbars.obj
 0003:0000b64c       ??_C@_0BB@EKLL@?4?4?4?$CD?$CD?$CD?$CD?$CD?$CD?$CD?4?$CD?$CD?$CD?4?4?$AA@ 0049264c     vis_ed_toolbars.obj
 0003:0000b660       ??_C@_0BB@MFAC@?4?4?4?$CD?4?4?4?4?4?$CD?4?$CD?4?4?4?4?$AA@ 00492660     vis_ed_toolbars.obj
 0003:0000b674       ??_C@_0BB@KLCD@?4?4?4?$CD?4?4?4?4?4?$CD?$CD?$CD?4?4?4?4?$AA@ 00492674     vis_ed_toolbars.obj
 0003:0000b688       ??_C@_0BB@OEJI@?4?4?4?$CD?4?4?4?4?4?$CD?4?4?4?4?4?4?$AA@ 00492688     vis_ed_toolbars.obj
 0003:0000b69c       ??_C@_0BB@HLFC@?4?4?4?$CD?$CD?$CD?$CD?$CD?$CD?$CD?4?4?4?4?4?4?$AA@ 0049269c     vis_ed_toolbars.obj
 0003:0000b6b0       ??_C@_09DOBE@16?513?52?51?$AA@ 004926b0     vis_ed_toolbars.obj
 0003:0000b6bc       ??_C@_0BB@GHON@?$CD?4?4?4?4?4?4?4?4?4?4?4?4?4?4?$CD?$AA@ 004926bc     vis_ed_toolbars.obj
 0003:0000b6d0       ??_C@_0BB@COKN@?$CD?4aaaaaaaaaaaa?4?$CD?$AA@ 004926d0     vis_ed_toolbars.obj
 0003:0000b6e4       ??_C@_0BB@FJEK@?$CD?4aa?4?4?4?4?4?4?4?4aa?4?$CD?$AA@ 004926e4     vis_ed_toolbars.obj
 0003:0000b6f8       ??_C@_0BB@IFFC@?$CD?4?4a?4?4?4?4?4?4?4?4a?4?4?$CD?$AA@ 004926f8     vis_ed_toolbars.obj
 0003:0000b70c       ??_C@_0BB@CJFL@?4?4?4?4?4?4?4?4a?4?4?4?4?4?4?4?$AA@ 0049270c     vis_ed_toolbars.obj
 0003:0000b720       ??_C@_0BB@PCGD@?4?4?4?4?4?4aaaaa?4?4?4?4?4?$AA@ 00492720     vis_ed_toolbars.obj
 0003:0000b734       ??_C@_0BB@POME@?4?4?4?4?4?4?4aaa?4?4?4?4?4?4?$AA@ 00492734     vis_ed_toolbars.obj
 0003:0000b748       ??_C@_0BB@DPNC@?4?4?4?4?4?$CD?$CD?$CD?$CD?$CD?$CD?4?4?4?4?4?$AA@ 00492748     vis_ed_toolbars.obj
 0003:0000b75c       ??_C@_09GMAC@16?513?53?51?$AA@ 0049275c     vis_ed_toolbars.obj
 0003:0000b768       ??_C@_0BB@MOIF@?4?$CD?4?4?$CD?4?4?$CD?4?4?$CD?4?4?$CD?4?4?$AA@ 00492768     vis_ed_toolbars.obj
 0003:0000b77c       ??_C@_0BB@FNKF@?4?$CD?$CD?$CD?$CD?$CDcc?$CDcc?$CDcc?$CD?4?$AA@ 0049277c     vis_ed_toolbars.obj
 0003:0000b790       ??_C@_0BB@EICP@?4?$CD?4?4?4?4cc?4cc?4cc?$CD?4?$AA@ 00492790     vis_ed_toolbars.obj
 0003:0000b7a4       ??_C@_0BB@OOBD@?4?$CD?$CDbb?$CD?$CD?$CD?$CDbb?$CDbb?$CD?4?$AA@ 004927a4     vis_ed_toolbars.obj
 0003:0000b7b8       ??_C@_0BB@MGMI@?4?$CD?4bb?4?4?4?4bb?4bb?$CD?4?$AA@ 004927b8     vis_ed_toolbars.obj
 0003:0000b7cc       ??_C@_0BB@DJCC@?4?$CD?$CDaa?$CDaa?$CDaa?$CD?$CD?$CD?$CD?4?$AA@ 004927cc     vis_ed_toolbars.obj
 0003:0000b7e0       ??_C@_0BB@BGHK@?4?$CD?4aa?4aa?4aa?4?4?4?$CD?4?$AA@ 004927e0     vis_ed_toolbars.obj
 0003:0000b7f4       ??_C@_0BB@LPDE@?4?$CD?4?4?4?4?4?4?4?4?4?4?4?4?$CD?4?$AA@ 004927f4     vis_ed_toolbars.obj
 0003:0000b808       ??_C@_0M@COHL@c?5c?5?$CDffff00?$AA@ 00492808     vis_ed_toolbars.obj
 0003:0000b814       ??_C@_0M@GNJL@a?5c?5?$CDff0000?$AA@ 00492814     vis_ed_toolbars.obj
 0003:0000b820       ??_C@_0M@JCCP@b?5c?5?$CD0000ff?$AA@ 00492820     vis_ed_toolbars.obj
 0003:0000b82c       ??_C@_0L@DCAN@?4?4?4aaaa?4?4?4?$AA@ 0049282c     vis_ed_toolbars.obj
 0003:0000b838       ??_C@_0L@CLGL@?4?4aaaaaa?4?4?$AA@ 00492838     vis_ed_toolbars.obj
 0003:0000b844       ??_C@_0L@KOIL@?4?4?4?4aa?4?4?4?4?$AA@ 00492844     vis_ed_toolbars.obj
 0003:0000b850       ??_C@_0L@MLBK@?4?$CD?4?4?4?4?4?4?$CD?4?$AA@ 00492850     vis_ed_toolbars.obj
 0003:0000b85c       ??_C@_09DACC@?4?$CD?4?4?4?4?4?4?$CD?$AA@ 0049285c     vis_ed_toolbars.obj
 0003:0000b868       ??_C@_0L@FNFM@?4?$CD?$CD?$CD?$CD?$CD?$CD?$CD?$CD?4?$AA@ 00492868     vis_ed_toolbars.obj
 0003:0000b874       ??_C@_0L@OLGH@?4?4?4?4?4?4?4?4?4?4?$AA@ 00492874     vis_ed_toolbars.obj
 0003:0000b880       ??_C@_0M@OJIO@a?5c?5?$CD000000?$AA@ 00492880     vis_ed_toolbars.obj
 0003:0000b88c       ??_C@_0M@DCCO@?$CD?5c?5?$CDB00000?$AA@ 0049288c     vis_ed_toolbars.obj
 0003:0000b898       ??_C@_09PMFF@10?516?53?51?$AA@ 00492898     vis_ed_toolbars.obj
 0003:0000b8a4       ??_C@_0BB@LBOC@?4?4?4?$CD?$CD?4?4?4?4?4?4?4?4?4?4?4?$AA@ 004928a4     vis_ed_toolbars.obj
 0003:0000b8b8       ??_C@_0BB@KEKF@?4?4a?$CD?$CDa?4?4?4?4?4?4?4?4?4?4?$AA@ 004928b8     vis_ed_toolbars.obj
 0003:0000b8cc       ??_C@_0BB@IGLD@?4?4?$CD?$CD?$CD?$CD?4?4?4?4?4?4?4?4?4?4?$AA@ 004928cc     vis_ed_toolbars.obj
 0003:0000b8e0       ??_C@_0BB@HOJH@?4?4?$CD?$CD?$CD?$CD?4?4?4?$CB?$CB?4?4?4?4?4?$AA@ 004928e0     vis_ed_toolbars.obj
 0003:0000b8f4       ??_C@_0BB@CLGN@?4?4?$CD?$CD?$CD?$CD?4?$CB?$CB?$CB?$CB?$CB?$CB?4?4?4?$AA@ 004928f4     vis_ed_toolbars.obj
 0003:0000b908       ??_C@_0BB@EJMG@?4?4?4?$CD?$CD?4?4?4?4?$CB?$CB?4?4?4?4?4?$AA@ 00492908     vis_ed_toolbars.obj
 0003:0000b91c       ??_C@_0BB@GDGH@?4?4?4?4?4?4?4?4?4?$CB?$CB?4?4?4?4?4?$AA@ 0049291c     vis_ed_toolbars.obj
 0003:0000b930       ??_C@_0M@OHHP@?$CB?5c?5?$CD800000?$AA@ 00492930     vis_ed_toolbars.obj
 0003:0000b93c       ??_C@_0M@EMNJ@a?5c?5?$CDaca899?$AA@ 0049293c     vis_ed_toolbars.obj
 0003:0000b948       ??_C@_0M@DCGA@?$CD?5c?5?$CD800000?$AA@ 00492948     vis_ed_toolbars.obj
 0003:0000b954       ??_C@_0BB@OIIN@?4?4?4?4?4?$CD?$CD?$CD?4bbb?4?4?4?4?$AA@ 00492954     vis_ed_toolbars.obj
 0003:0000b968       ??_C@_0BB@LFNM@?4?4?4?4?4?$CD?4?$CD?4b?4b?4?4?4?4?$AA@ 00492968     vis_ed_toolbars.obj
 0003:0000b97c       ??_C@_0BB@CGFE@?4?4?4?4?4?$CD?4?$CD?4bbb?4?4?4?4?$AA@ 0049297c     vis_ed_toolbars.obj
 0003:0000b990       ??_C@_0BB@FGKE@?4?4?4?4?4?$CD?4?$CD?4?4?4?4?4?4?4?4?$AA@ 00492990     vis_ed_toolbars.obj
 0003:0000b9a4       ??_C@_0BB@HLMM@?4?4?4?4?4?$CD?4?$CD?4?4a?4?4?4?4?4?$AA@ 004929a4     vis_ed_toolbars.obj
 0003:0000b9b8       ??_C@_0BB@LGF@?4?4?4?4?4?$CD?4?$CD?4aaa?4?4?4?4?$AA@ 004929b8     vis_ed_toolbars.obj
 0003:0000b9cc       ??_C@_0BB@LFBF@?4?4?4?4?4?$CD?$CD?$CD?4?4a?4?4?4?4?4?$AA@ 004929cc     vis_ed_toolbars.obj
 0003:0000b9e0       ??_C@_0BB@DBGC@?4?4a?4a?4bbbbbbb?4?4?4?$AA@ 004929e0     vis_ed_toolbars.obj
 0003:0000b9f4       ??_C@_0BB@BGLI@?4?4aaa?4?4?4?4?4?4b?4?4?4?4?$AA@ 004929f4     vis_ed_toolbars.obj
 0003:0000ba08       ??_C@_0BB@CCFG@?4?4?$CD?4?4?4?4?4?4?4?4?4?$CD?4?4?4?$AA@ 00492a08     vis_ed_toolbars.obj
 0003:0000ba1c       ??_C@_0M@GOBO@b?5c?5?$CD020104?$AA@ 00492a1c     vis_ed_toolbars.obj
 0003:0000ba28       ??_C@_0BB@GHOP@?4?4?4?4?4aaa?4bbb?4?4?4?4?$AA@ 00492a28     vis_ed_toolbars.obj
 0003:0000ba3c       ??_C@_0BB@NFKI@?4?4?4?4?4a?4a?4b?4b?4?4?4?4?$AA@ 00492a3c     vis_ed_toolbars.obj
 0003:0000ba50       ??_C@_0BB@EGCA@?4?4?4?4?4a?4a?4bbb?4?4?4?4?$AA@ 00492a50     vis_ed_toolbars.obj
 0003:0000ba64       ??_C@_0BB@DGNA@?4?4?4?4?4a?4a?4?4?4?4?4?4?4?4?$AA@ 00492a64     vis_ed_toolbars.obj
 0003:0000ba78       ??_C@_0BB@BHBP@?4?4?4?4?4aaa?4?4?4?4?4?4?4?4?$AA@ 00492a78     vis_ed_toolbars.obj
 0003:0000ba8c       ??_C@_0BB@JIHN@?4?4?4?4?4?$CD?$CD?$CD?4?4?4?4?4?4?4?4?$AA@ 00492a8c     vis_ed_toolbars.obj
 0003:0000baa0       ??_C@_0BB@FFJK@?4?4?4?4?4?4?$CD?4?4?4?4?4?4?4?4?4?$AA@ 00492aa0     vis_ed_toolbars.obj
 0003:0000bab4       ??_C@_0M@CHGB@?$CD?5c?5?$CD020104?$AA@ 00492ab4     vis_ed_toolbars.obj
 0003:0000bac0       ??_C@_0M@PGIG@a?5c?5?$CD000084?$AA@ 00492ac0     vis_ed_toolbars.obj
 0003:0000bacc       ??_C@_0BB@LJHG@?4b?4b?4?4?4?4?4?4?4?4?4?4?4?4?$AA@ 00492acc     vis_ed_toolbars.obj
 0003:0000bae0       ??_C@_0BB@COOD@?4bbb?4?4?4?4?4?4?4?4?4?4?4?4?$AA@ 00492ae0     vis_ed_toolbars.obj
 0003:0000baf4       ??_C@_0BB@EILF@?4?$CD?4?4?4?4?$CD?4aaaaaa?4?4?$AA@ 00492af4     vis_ed_toolbars.obj
 0003:0000bb08       ??_C@_0BB@INGE@?4?$CD?$CD?$CD?$CD?$CD?$CD?4?4a?4?4?4?4?4?4?$AA@ 00492b08     vis_ed_toolbars.obj
 0003:0000bb1c       ??_C@_0M@FBIO@a?5c?5?$CD020104?$AA@ 00492b1c     vis_ed_toolbars.obj
 0003:0000bb28       ??_C@_0M@IAGJ@?$CD?5c?5?$CD000084?$AA@ 00492b28     vis_ed_toolbars.obj
 0003:0000bb34       ??_C@_0BB@BBLK@?4?4?4?4?4?4?4?4?4?4?4?4?4?$CD?4?4?$AA@ 00492b34     vis_ed_toolbars.obj
 0003:0000bb48       ??_C@_0BB@IOAP@?4?4?4?$CD?4?4?4?4?4?4?4?4?4?$CD?4?4?$AA@ 00492b48     vis_ed_toolbars.obj
 0003:0000bb5c       ??_C@_0BB@IPH@?4?4?$CD?$CD?$CD?4?4?4?4?4?4?4?$CD?4?4?4?$AA@ 00492b5c     vis_ed_toolbars.obj
 0003:0000bb70       ??_C@_0BB@LDOH@?4?4?$CD?$CD?$CD?4?4?4?4?4?4?$CD?4?4?4?4?$AA@ 00492b70     vis_ed_toolbars.obj
 0003:0000bb84       ??_C@_0BB@OKJH@?4?4?4?$CD?$CD?$CD?4?4?4?4?$CD?$CD?4?4?4?4?$AA@ 00492b84     vis_ed_toolbars.obj
 0003:0000bb98       ??_C@_0BB@FBPD@?4?4?4?4?4?$CD?$CD?$CD?$CD?$CD?4?4?4?4?4?4?$AA@ 00492b98     vis_ed_toolbars.obj
 0003:0000bbac       ??_C@_0BB@HKAP@?4?4?4?4?$CD?$CD?$CD?4?4?$CD?$CD?4?4?4?4?4?$AA@ 00492bac     vis_ed_toolbars.obj
 0003:0000bbc0       ??_C@_0BB@MJAI@?4?4?$CD?$CD?$CD?$CD?4?4?4?4?$CD?$CD?4?4?4?4?$AA@ 00492bc0     vis_ed_toolbars.obj
 0003:0000bbd4       ??_C@_0BB@PEEO@?4?$CD?$CD?$CD?$CD?4?4?4?4?4?4?$CD?$CD?4?4?4?$AA@ 00492bd4     vis_ed_toolbars.obj
 0003:0000bbe8       ??_C@_0BB@HFIM@?4?$CD?$CD?4?4?4?4?4?4?4?4?4?$CD?$CD?4?4?$AA@ 00492be8     vis_ed_toolbars.obj
 0003:0000bbfc       ??_C@_09BOKE@16?516?52?51?$AA@ 00492bfc     vis_ed_toolbars.obj
 0003:0000bc08       ??_C@_0BB@CCOI@?4?4?40?4?4?4?4?4?4?40?500?4?$AA@ 00492c08     vis_ed_toolbars.obj
 0003:0000bc1c       ??_C@_0BB@LEGJ@?4?4?40?4?4?4?4?4?4?4?4000?4?$AA@ 00492c1c     vis_ed_toolbars.obj
 0003:0000bc30       ??_C@_0BB@HHMJ@?4?4?40?4?4?4?4?4?4?40000?4?$AA@ 00492c30     vis_ed_toolbars.obj
 0003:0000bc44       ??_C@_0BB@HBOE@?4?4?410?4?4?4?4?400000?4?$AA@ 00492c44     vis_ed_toolbars.obj
 0003:0000bc58       ??_C@_0BB@CPON@?4?4?4?401?4?4?4?4?4?4?4?4?4?4?$AA@ 00492c58     vis_ed_toolbars.obj
 0003:0000bc6c       ??_C@_0BB@JHLB@?4?4?4?4?4?4?4?4?4?4a?$CD?4?4?4?4?$AA@ 00492c6c     vis_ed_toolbars.obj
 0003:0000bc80       ??_C@_0BB@POKB@?4?$CD?$CD?$CD?$CD?$CD?4?4?4?4?4?$CDa?4?4?4?$AA@ 00492c80     vis_ed_toolbars.obj
 0003:0000bc94       ??_C@_0BB@NFNE@?4?$CD?$CD?$CD?$CD?4?4?4?4?4?4?4?$CD?4?4?4?$AA@ 00492c94     vis_ed_toolbars.obj
 0003:0000bca8       ??_C@_0BB@GAMA@?4?$CD?$CD?$CD?4?4?4?4?4?4?4?4?$CD?4?4?4?$AA@ 00492ca8     vis_ed_toolbars.obj
 0003:0000bcbc       ??_C@_0BB@EKGB@?4?$CD?$CD?4?$CD?4?4?4?4?4?4?4?$CD?4?4?4?$AA@ 00492cbc     vis_ed_toolbars.obj
 0003:0000bcd0       ??_C@_0BB@DJEG@?4?$CD?4?4?4?$CD?$CD?4?4?4?4?$CDa?4?4?4?$AA@ 00492cd0     vis_ed_toolbars.obj
 0003:0000bce4       ??_C@_0BB@INEB@?4?4?4?4?4?4?4?$CD?$CD?$CD?$CDa?4?4?4?4?$AA@ 00492ce4     vis_ed_toolbars.obj
 0003:0000bcf8       ??_C@_0BB@CGPJ@?4?4?4?4?4?4?4eeeeeeeee?$AA@ 00492cf8     vis_ed_toolbars.obj
 0003:0000bd0c       ??_C@_0BB@KCKA@?4?4?$CD?$CD?$CD?$CD?$CDefffffffe?$AA@ 00492d0c     vis_ed_toolbars.obj
 0003:0000bd20       ??_C@_0BB@BGHN@?4?$CDcbcbcefeeeeefe?$AA@ 00492d20     vis_ed_toolbars.obj
 0003:0000bd34       ??_C@_0BB@FLBK@?4?$CDbcbcbefffffffe?$AA@ 00492d34     vis_ed_toolbars.obj
 0003:0000bd48       ??_C@_0BB@ECHE@?4?$CDcbcbcefeeefeee?$AA@ 00492d48     vis_ed_toolbars.obj
 0003:0000bd5c       ??_C@_0BB@KNCB@?4?$CDbcbcbefffffefe?$AA@ 00492d5c     vis_ed_toolbars.obj
 0003:0000bd70       ??_C@_0BB@GBIE@?4?$CDcbcbcefffffee?4?$AA@ 00492d70     vis_ed_toolbars.obj
 0003:0000bd84       ??_C@_0BB@NPPB@?4?$CDbcbcbeeeeeee?$CD?4?$AA@ 00492d84     vis_ed_toolbars.obj
 0003:0000bd98       ??_C@_0BB@GMCK@?4?$CDcbcbcbcbcbcb?$CD?4?$AA@ 00492d98     vis_ed_toolbars.obj
 0003:0000bdac       ??_C@_0BB@DIHP@?4?$CDbc?$CD?$CD?$CD?$CD?$CD?$CD?$CD?$CDbc?$CD?4?$AA@ 00492dac     vis_ed_toolbars.obj
 0003:0000bdc0       ??_C@_0BB@BFPD@?4?$CDcb?$CDdddddd?$CDcb?$CD?4?$AA@ 00492dc0     vis_ed_toolbars.obj
 0003:0000bdd4       ??_C@_0BB@DBDH@?4?$CDbcb?$CDa?$CD?$CDa?$CDcbc?$CD?4?$AA@ 00492dd4     vis_ed_toolbars.obj
 0003:0000bde8       ??_C@_0BB@IKGG@?4?4?$CD?$CD?$CD?$CD?$CDaa?$CD?$CD?$CD?$CD?$CD?4?4?$AA@ 00492de8     vis_ed_toolbars.obj
 0003:0000bdfc       ??_C@_0BB@EFDN@?4?4?4?4?4?4?$CD?$CD?$CD?$CD?4?4?4?4?4?4?$AA@ 00492dfc     vis_ed_toolbars.obj
 0003:0000be10       ??_C@_0M@CKPK@f?5c?5?$CDffffff?$AA@ 00492e10     vis_ed_toolbars.obj
 0003:0000be1c       ??_C@_0M@PLGE@a?5c?5?$CDffff00?$AA@ 00492e1c     vis_ed_toolbars.obj
 0003:0000be28       ??_C@_0M@HGIH@d?5c?5?$CDd4d0c8?$AA@ 00492e28     vis_ed_toolbars.obj
 0003:0000be34       ??_C@_0M@OENL@b?5c?5?$CD808080?$AA@ 00492e34     vis_ed_toolbars.obj
 0003:0000be40       ??_C@_0M@PGOF@e?5c?5?$CD000080?$AA@ 00492e40     vis_ed_toolbars.obj
 0003:0000be4c       ??_C@_09CKDM@16?516?58?51?$AA@ 00492e4c     vis_ed_toolbars.obj
 0003:0000be58       ??_C@_0BB@KANF@?4?4?4?4?4?4?4bbbbbbbbb?$AA@ 00492e58     vis_ed_toolbars.obj
 0003:0000be6c       ??_C@_0BB@PHKF@?4?4?4?4?4?4?4baaaaaaab?$AA@ 00492e6c     vis_ed_toolbars.obj
 0003:0000be80       ??_C@_0BB@DKBH@?4?4?4?4?4?4?4ba?$CD?$CD?$CD?$CD?$CDab?$AA@ 00492e80     vis_ed_toolbars.obj
 0003:0000be94       ??_C@_0BB@PJKP@?4?$CD?$CD?$CD?$CD?$CD?$CDbaaaaaaab?$AA@ 00492e94     vis_ed_toolbars.obj
 0003:0000bea8       ??_C@_0BB@KBMK@?4?$CDaaaaaba?$CD?$CD?$CD?$CD?$CDab?$AA@ 00492ea8     vis_ed_toolbars.obj
 0003:0000bebc       ??_C@_0BB@KNFG@?4?$CDa?$CD?$CD?$CD?$CDbaaaaaaab?$AA@ 00492ebc     vis_ed_toolbars.obj
 0003:0000bed0       ??_C@_0BB@HFEA@?4?$CDaaaaaba?$CD?$CDabbbb?$AA@ 00492ed0     vis_ed_toolbars.obj
 0003:0000bee4       ??_C@_0BB@KCHL@?4?$CDa?$CD?$CD?$CD?$CDbaaaabab?4?$AA@ 00492ee4     vis_ed_toolbars.obj
 0003:0000bef8       ??_C@_0BB@NADF@?4?$CDaaaaabaaaabb?4?4?$AA@ 00492ef8     vis_ed_toolbars.obj
 0003:0000bf0c       ??_C@_0BB@MPPD@?4?$CDa?$CD?$CDa?$CDbbbbbb?4?4?4?$AA@ 00492f0c     vis_ed_toolbars.obj
 0003:0000bf20       ??_C@_0BB@JNK@?4?$CDaaaa?$CDa?$CD?4?4?4?4?4?4?4?$AA@ 00492f20     vis_ed_toolbars.obj
 0003:0000bf34       ??_C@_0BB@DGKB@?4?$CDaaaa?$CD?$CD?4?4?4?4?4?4?4?4?$AA@ 00492f34     vis_ed_toolbars.obj
 0003:0000bf48       ??_C@_0BB@JFEJ@?4?$CD?$CD?$CD?$CD?$CD?$CD?4?4?4?4?4?4?4?4?4?$AA@ 00492f48     vis_ed_toolbars.obj
 0003:0000bf5c       ??_C@_0BB@ONAA@?4?4?4?4aa?4?4?4?4?4?4?4?4?4?4?$AA@ 00492f5c     vis_ed_toolbars.obj
 0003:0000bf70       ??_C@_0BB@OJNN@?4?4?4a?4?4a?4?4aa?4?4?4?4?4?$AA@ 00492f70     vis_ed_toolbars.obj
 0003:0000bf84       ??_C@_0BB@GAE@?4?4?4a?4?4a?4a?4?4a?4?4?4?4?$AA@ 00492f84     vis_ed_toolbars.obj
 0003:0000bf98       ??_C@_0BB@BGFD@?4?4?4?4aaa?4a?4?4a?4?4?4?4?$AA@ 00492f98     vis_ed_toolbars.obj
 0003:0000bfac       ??_C@_0BB@DNNB@?4?4?4?4?4?4a?4aaa?4?4?4?4?4?$AA@ 00492fac     vis_ed_toolbars.obj
 0003:0000bfc0       ??_C@_0BB@NBLN@?4?4?4?4?4?4a?$CDa?4?4?4?4?4?4?4?$AA@ 00492fc0     vis_ed_toolbars.obj
 0003:0000bfd4       ??_C@_0BB@ECGK@?4?4?4?4?4?4?4?$CD?4?4?4?4?4?4?4?4?$AA@ 00492fd4     vis_ed_toolbars.obj
 0003:0000bfe8       ??_C@_0BB@KFFD@?4?4?4?4?4?4?$CD?$CD?$CD?4?4?4?4?4?4?4?$AA@ 00492fe8     vis_ed_toolbars.obj
 0003:0000bffc       ??_C@_0BB@HMHK@?4?4?4?4?4?4?$CD?4?$CD?4?4?4?4?4?4?4?$AA@ 00492ffc     vis_ed_toolbars.obj
 0003:0000c010       ??_C@_0BB@IINK@?4?4?4?4?4?$CD?$CD?4?$CD?$CD?4?4?4?4?4?4?$AA@ 00493010     vis_ed_toolbars.obj
 0003:0000c024       ??_C@_0BB@GPOD@?4?4?4?4?4?$CD?4?4?4?$CD?4?4?4?4?4?4?$AA@ 00493024     vis_ed_toolbars.obj
 0003:0000c038       ??_C@_0DB@MHLP@01401401409009009009009009009009@ 00493038     vis_ed_toolbars.obj
 0003:0000c06c       ??_C@_0DB@KODC@01401401421001421001414601414601@ 0049306c     vis_ed_toolbars.obj
 0003:0000c0a0       ??_C@_0DB@OFEB@01401401421001421001414614614601@ 004930a0     vis_ed_toolbars.obj
 0003:0000c0d4       ??_C@_0DB@DIPL@01401401421001421001401401401401@ 004930d4     vis_ed_toolbars.obj
 0003:0000c108       ??_C@_0DB@OKCJ@01401401421021021001401401401401@ 00493108     vis_ed_toolbars.obj
 0003:0000c13c       ??_C@_0DB@KCOB@01401401421001401401409009001401@ 0049313c     vis_ed_toolbars.obj
 0003:0000c170       ??_C@_0DB@HLPP@01401401421021021021009009021021@ 00493170     vis_ed_toolbars.obj
 0003:0000c1a4       ??_C@_0DB@DDGJ@01401401401401414601409009001414@ 004931a4     vis_ed_toolbars.obj
 0003:0000c1d8       ??_C@_0DB@CJNB@01401401401401414614609009014614@ 004931d8     vis_ed_toolbars.obj
 0003:0000c20c       ??_C@_0DB@MNPA@01401401401401401401409009001401@ 0049320c     vis_ed_toolbars.obj
 0003:0000c240       ??_C@_0DB@LLBA@01401401401401801401409009001401@ 00493240     vis_ed_toolbars.obj
 0003:0000c274       ??_C@_0DB@DKNE@01401401401401801801809009001801@ 00493274     vis_ed_toolbars.obj
 0003:0000c2a8       ??_C@_0DB@CJNK@01401401401401401401401401401401@ 004932a8     vis_ed_toolbars.obj
 0003:0000c2dc       ??_C@_0O@MHEF@255?5c?5?$CD5E10BE?$AA@ 004932dc     vis_ed_toolbars.obj
 0003:0000c2ec       ??_C@_0O@EKFA@254?5c?5?$CD6711AC?$AA@ 004932ec     vis_ed_toolbars.obj
 0003:0000c2fc       ??_C@_0O@JLPB@253?5c?5?$CDF005B7?$AA@ 004932fc     vis_ed_toolbars.obj
 0003:0000c30c       ??_C@_0O@OHGK@252?5c?5?$CD72CB72?$AA@ 0049330c     vis_ed_toolbars.obj
 0003:0000c31c       ??_C@_0O@LIBP@251?5c?5?$CD3E7929?$AA@ 0049331c     vis_ed_toolbars.obj
 0003:0000c32c       ??_C@_0O@FDIG@250?5c?5?$CDC07F53?$AA@ 0049332c     vis_ed_toolbars.obj
 0003:0000c33c       ??_C@_0O@LCJB@249?5c?5?$CD177F50?$AA@ 0049333c     vis_ed_toolbars.obj
 0003:0000c34c       ??_C@_0O@CNCM@248?5c?5?$CDAE0000?$AA@ 0049334c     vis_ed_toolbars.obj
 0003:0000c35c       ??_C@_0O@FICA@247?5c?5?$CDC000D6?$AA@ 0049335c     vis_ed_toolbars.obj
 0003:0000c36c       ??_C@_0O@HAGO@246?5c?5?$CDF800D3?$AA@ 0049336c     vis_ed_toolbars.obj
 0003:0000c37c       ??_C@_0O@KGHP@245?5c?5?$CDA000D6?$AA@ 0049337c     vis_ed_toolbars.obj
 0003:0000c38c       ??_C@_0M@EHIH@244?5c?5black?$AA@ 0049338c     vis_ed_toolbars.obj
 0003:0000c398       ??_C@_0O@NKFD@243?5c?5?$CD010000?$AA@ 00493398     vis_ed_toolbars.obj
 0003:0000c3a8       ??_C@_0O@BKKC@242?5c?5?$CDEF0000?$AA@ 004933a8     vis_ed_toolbars.obj
 0003:0000c3b8       ??_C@_0O@OLGM@241?5c?5?$CDE80000?$AA@ 004933b8     vis_ed_toolbars.obj
 0003:0000c3c8       ??_C@_0O@PNNC@240?5c?5?$CD940000?$AA@ 004933c8     vis_ed_toolbars.obj
 0003:0000c3d8       ??_C@_0O@GJLI@239?5c?5?$CDA40000?$AA@ 004933d8     vis_ed_toolbars.obj
 0003:0000c3e8       ??_C@_0O@CIOC@238?5c?5?$CDC00000?$AA@ 004933e8     vis_ed_toolbars.obj
 0003:0000c3f8       ??_C@_0O@PLN@237?5c?5?$CD00012F?$AA@ 004933f8     vis_ed_toolbars.obj
 0003:0000c408       ??_C@_0O@NHFP@236?5c?5?$CD640117?$AA@ 00493408     vis_ed_toolbars.obj
 0003:0000c418       ??_C@_0O@GLEB@235?5c?5?$CD6E87A4?$AA@ 00493418     vis_ed_toolbars.obj
 0003:0000c428       ??_C@_0O@PIGG@234?5c?5?$CD2F0FEF?$AA@ 00493428     vis_ed_toolbars.obj
 0003:0000c438       ??_C@_0O@JFMJ@233?5c?5?$CDB07F53?$AA@ 00493438     vis_ed_toolbars.obj
 0003:0000c448       ??_C@_0O@NIOK@232?5c?5?$CD177F50?$AA@ 00493448     vis_ed_toolbars.obj
 0003:0000c458       ??_C@_0O@HMLC@231?5c?5?$CD6A0000?$AA@ 00493458     vis_ed_toolbars.obj
 0003:0000c468       ??_C@_0O@HMJM@230?5c?5?$CDC00000?$AA@ 00493468     vis_ed_toolbars.obj
 0003:0000c478       ??_C@_0O@MCEG@229?5c?5?$CD000002?$AA@ 00493478     vis_ed_toolbars.obj
 0003:0000c488       ??_C@_0O@OLAB@228?5c?5?$CD00879C?$AA@ 00493488     vis_ed_toolbars.obj
 0003:0000c498       ??_C@_0O@BHAJ@227?5c?5?$CD00877E?$AA@ 00493498     vis_ed_toolbars.obj
 0003:0000c4a8       ??_C@_0O@FMGP@226?5c?5?$CD008776?$AA@ 004934a8     vis_ed_toolbars.obj
 0003:0000c4b8       ??_C@_0O@DKBF@225?5c?5?$CD000FE0?$AA@ 004934b8     vis_ed_toolbars.obj
 0003:0000c4c8       ??_C@_0O@JMAB@224?5c?5?$CD0034B0?$AA@ 004934c8     vis_ed_toolbars.obj
 0003:0000c4d8       ??_C@_0O@PMPH@223?5c?5?$CD2F1364?$AA@ 004934d8     vis_ed_toolbars.obj
 0003:0000c4e8       ??_C@_0O@NLFO@222?5c?5?$CD174AE1?$AA@ 004934e8     vis_ed_toolbars.obj
 0003:0000c4f8       ??_C@_0O@DFMI@221?5c?5?$CD76012F?$AA@ 004934f8     vis_ed_toolbars.obj
 0003:0000c508       ??_C@_0O@NKIA@220?5c?5?$CD010FE0?$AA@ 00493508     vis_ed_toolbars.obj
 0003:0000c518       ??_C@_0O@BDEB@219?5c?5?$CD530117?$AA@ 00493518     vis_ed_toolbars.obj
 0003:0000c528       ??_C@_0O@NKK@218?5c?5?$CD508734?$AA@ 00493528     vis_ed_toolbars.obj
 0003:0000c538       ??_C@_0O@FJDF@217?5c?5?$CD000FE0?$AA@ 00493538     vis_ed_toolbars.obj
 0003:0000c548       ??_C@_0M@HDNM@216?5c?5black?$AA@ 00493548     vis_ed_toolbars.obj
 0003:0000c554       ??_C@_0O@HDHD@215?5c?5?$CDB80000?$AA@ 00493554     vis_ed_toolbars.obj
 0003:0000c564       ??_C@_0O@LCJI@214?5c?5?$CD980492?$AA@ 00493564     vis_ed_toolbars.obj
 0003:0000c574       ??_C@_0O@OAHM@213?5c?5?$CD020000?$AA@ 00493574     vis_ed_toolbars.obj
 0003:0000c584       ??_C@_0O@OMAD@212?5c?5?$CD000514?$AA@ 00493584     vis_ed_toolbars.obj
 0003:0000c594       ??_C@_0O@NDGE@211?5c?5?$CD7C000C?$AA@ 00493594     vis_ed_toolbars.obj
 0003:0000c5a4       ??_C@_0O@IAKO@210?5c?5?$CD000084?$AA@ 004935a4     vis_ed_toolbars.obj
 0003:0000c5b4       ??_C@_0O@BMFK@209?5c?5?$CDA7871C?$AA@ 004935b4     vis_ed_toolbars.obj
 0003:0000c5c4       ??_C@_0O@NBOL@208?5c?5?$CD230014?$AA@ 004935c4     vis_ed_toolbars.obj
 0003:0000c5d4       ??_C@_0O@OJJO@207?5c?5?$CD87271C?$AA@ 004935d4     vis_ed_toolbars.obj
 0003:0000c5e4       ??_C@_0O@BIE@206?5c?5?$CDB711F8?$AA@ 004935e4     vis_ed_toolbars.obj
 0003:0000c5f4       ??_C@_0O@FIHE@205?5c?5?$CD2411F8?$AA@ 004935f4     vis_ed_toolbars.obj
 0003:0000c604       ??_C@_0O@JPJI@204?5c?5?$CD04005B?$AA@ 00493604     vis_ed_toolbars.obj
 0003:0000c614       ??_C@_0O@IIPD@203?5c?5?$CDE00000?$AA@ 00493614     vis_ed_toolbars.obj
 0003:0000c624       ??_C@_0M@PFDO@202?5c?5black?$AA@ 00493624     vis_ed_toolbars.obj
 0003:0000c630       ??_C@_0O@OK@201?5c?5?$CD01005D?$AA@ 00493630     vis_ed_toolbars.obj
 0003:0000c640       ??_C@_0O@CNPF@200?5c?5?$CDBC7FB7?$AA@ 00493640     vis_ed_toolbars.obj
 0003:0000c650       ??_C@_0O@CCAI@199?5c?5?$CD8A7FB7?$AA@ 00493650     vis_ed_toolbars.obj
 0003:0000c660       ??_C@_0O@OBJC@198?5c?5?$CDA80200?$AA@ 00493660     vis_ed_toolbars.obj
 0003:0000c670       ??_C@_0O@JCOD@197?5c?5?$CD010200?$AA@ 00493670     vis_ed_toolbars.obj
 0003:0000c680       ??_C@_0O@NMEB@196?5c?5?$CD010000?$AA@ 00493680     vis_ed_toolbars.obj
 0003:0000c690       ??_C@_0O@HNIB@195?5c?5?$CD340000?$AA@ 00493690     vis_ed_toolbars.obj
 0003:0000c6a0       ??_C@_0O@BPAJ@194?5c?5?$CD207FB7?$AA@ 004936a0     vis_ed_toolbars.obj
 0003:0000c6b0       ??_C@_0O@ENNA@193?5c?5?$CD47005B?$AA@ 004936b0     vis_ed_toolbars.obj
 0003:0000c6c0       ??_C@_0O@PMFD@192?5c?5?$CD6C005D?$AA@ 004936c0     vis_ed_toolbars.obj
 0003:0000c6d0       ??_C@_0O@KCCC@191?5c?5?$CD0C0200?$AA@ 004936d0     vis_ed_toolbars.obj
 0003:0000c6e0       ??_C@_0O@KDGB@190?5c?5?$CD010000?$AA@ 004936e0     vis_ed_toolbars.obj
 0003:0000c6f0       ??_C@_0O@OOCK@189?5c?5?$CD340000?$AA@ 004936f0     vis_ed_toolbars.obj
 0003:0000c700       ??_C@_0O@BBJA@188?5c?5?$CD200000?$AA@ 00493700     vis_ed_toolbars.obj
 0003:0000c710       ??_C@_0M@HPNE@187?5c?5black?$AA@ 00493710     vis_ed_toolbars.obj
 0003:0000c71c       ??_C@_0O@NFAK@186?5c?5?$CD2C0000?$AA@ 0049371c     vis_ed_toolbars.obj
 0003:0000c72c       ??_C@_0O@BDAJ@185?5c?5?$CD017FB7?$AA@ 0049372c     vis_ed_toolbars.obj
 0003:0000c73c       ??_C@_0O@MPPB@184?5c?5?$CD5D005B?$AA@ 0049373c     vis_ed_toolbars.obj
 0003:0000c74c       ??_C@_0O@GJNB@183?5c?5?$CDC00000?$AA@ 0049374c     vis_ed_toolbars.obj
 0003:0000c75c       ??_C@_0O@CIPN@182?5c?5?$CD20005D?$AA@ 0049375c     vis_ed_toolbars.obj
 0003:0000c76c       ??_C@_0O@GLOF@181?5c?5?$CD0C0000?$AA@ 0049376c     vis_ed_toolbars.obj
 0003:0000c77c       ??_C@_0O@IMLP@180?5c?5?$CD34BFF7?$AA@ 0049377c     vis_ed_toolbars.obj
 0003:0000c78c       ??_C@_0O@GIIL@179?5c?5?$CD440000?$AA@ 0049378c     vis_ed_toolbars.obj
 0003:0000c79c       ??_C@_0O@GCPL@178?5c?5?$CD3F005B?$AA@ 0049379c     vis_ed_toolbars.obj
 0003:0000c7ac       ??_C@_0O@NHAF@177?5c?5?$CD8C0000?$AA@ 004937ac     vis_ed_toolbars.obj
 0003:0000c7bc       ??_C@_0O@HNDB@176?5c?5?$CD37BFF7?$AA@ 004937bc     vis_ed_toolbars.obj
 0003:0000c7cc       ??_C@_0O@IDLL@175?5c?5?$CDD616D7?$AA@ 004937cc     vis_ed_toolbars.obj
 0003:0000c7dc       ??_C@_0O@MBKI@174?5c?5?$CD180006?$AA@ 004937dc     vis_ed_toolbars.obj
 0003:0000c7ec       ??_C@_0O@BJLE@173?5c?5?$CD00C1D3?$AA@ 004937ec     vis_ed_toolbars.obj
 0003:0000c7fc       ??_C@_0O@JFDK@172?5c?5?$CD020000?$AA@ 004937fc     vis_ed_toolbars.obj
 0003:0000c80c       ??_C@_0O@EOMN@171?5c?5?$CD000200?$AA@ 0049380c     vis_ed_toolbars.obj
 0003:0000c81c       ??_C@_0O@KAEK@170?5c?5?$CD010000?$AA@ 0049381c     vis_ed_toolbars.obj
 0003:0000c82c       ??_C@_0O@MAFE@169?5c?5?$CD340020?$AA@ 0049382c     vis_ed_toolbars.obj
 0003:0000c83c       ??_C@_0O@GLIP@168?5c?5?$CD2C052C?$AA@ 0049383c     vis_ed_toolbars.obj
 0003:0000c84c       ??_C@_0O@FIIF@167?5c?5?$CD200534?$AA@ 0049384c     vis_ed_toolbars.obj
 0003:0000c85c       ??_C@_0BC@FPOI@166?5c?5transparent?$AA@ 0049385c     vis_ed_toolbars.obj
 0003:0000c870       ??_C@_0O@POAB@165?5c?5?$CD0016D7?$AA@ 00493870     vis_ed_toolbars.obj
 0003:0000c880       ??_C@_0O@PBAB@164?5c?5?$CDD3867C?$AA@ 00493880     vis_ed_toolbars.obj
 0003:0000c890       ??_C@_0O@HJAE@163?5c?5?$CD360002?$AA@ 00493890     vis_ed_toolbars.obj
 0003:0000c8a0       ??_C@_0O@KLLK@162?5c?5?$CD340020?$AA@ 004938a0     vis_ed_toolbars.obj
 0003:0000c8b0       ??_C@_0O@BNFC@161?5c?5?$CD340200?$AA@ 004938b0     vis_ed_toolbars.obj
 0003:0000c8c0       ??_C@_0O@MNKA@160?5c?5?$CD010000?$AA@ 004938c0     vis_ed_toolbars.obj
 0003:0000c8d0       ??_C@_0O@PFMN@159?5c?5?$CD9F0331?$AA@ 004938d0     vis_ed_toolbars.obj
 0003:0000c8e0       ??_C@_0O@KDHB@158?5c?5?$CD4E0002?$AA@ 004938e0     vis_ed_toolbars.obj
 0003:0000c8f0       ??_C@_0O@PIEH@157?5c?5?$CD34517B?$AA@ 004938f0     vis_ed_toolbars.obj
 0003:0000c900       ??_C@_0O@EJGN@156?5c?5?$CD5D000C?$AA@ 00493900     vis_ed_toolbars.obj
 0003:0000c910       ??_C@_0O@IKJI@155?5c?5?$CD000112?$AA@ 00493910     vis_ed_toolbars.obj
 0003:0000c920       ??_C@_0O@LGEG@154?5c?5?$CDEC1797?$AA@ 00493920     vis_ed_toolbars.obj
 0003:0000c930       ??_C@_0O@JAIF@153?5c?5?$CD578712?$AA@ 00493930     vis_ed_toolbars.obj
 0003:0000c940       ??_C@_0O@DAEE@152?5c?5?$CD004242?$AA@ 00493940     vis_ed_toolbars.obj
 0003:0000c950       ??_C@_0O@LBPB@151?5c?5?$CD120002?$AA@ 00493950     vis_ed_toolbars.obj
 0003:0000c960       ??_C@_0O@KHNB@150?5c?5?$CDF8340F?$AA@ 00493960     vis_ed_toolbars.obj
 0003:0000c970       ??_C@_0M@KBDO@149?5c?5black?$AA@ 00493970     vis_ed_toolbars.obj
 0003:0000c97c       ??_C@_0O@GOJJ@148?5c?5?$CD239400?$AA@ 0049397c     vis_ed_toolbars.obj
 0003:0000c98c       ??_C@_0O@NKPK@147?5c?5?$CD880002?$AA@ 0049398c     vis_ed_toolbars.obj
 0003:0000c99c       ??_C@_0O@OEOE@146?5c?5?$CD840000?$AA@ 0049399c     vis_ed_toolbars.obj
 0003:0000c9ac       ??_C@_0O@BEPA@145?5c?5?$CD5B0032?$AA@ 004939ac     vis_ed_toolbars.obj
 0003:0000c9bc       ??_C@_0O@KJDD@144?5c?5?$CD1B1C45?$AA@ 004939bc     vis_ed_toolbars.obj
 0003:0000c9cc       ??_C@_0O@LGGE@143?5c?5?$CD2E0030?$AA@ 004939cc     vis_ed_toolbars.obj
 0003:0000c9dc       ??_C@_0O@MHGC@142?5c?5?$CD000200?$AA@ 004939dc     vis_ed_toolbars.obj
 0003:0000c9ec       ??_C@_0O@NKKG@141?5c?5?$CD34005D?$AA@ 004939ec     vis_ed_toolbars.obj
 0003:0000c9fc       ??_C@_0O@HJCE@140?5c?5?$CD0F0000?$AA@ 004939fc     vis_ed_toolbars.obj
 0003:0000ca0c       ??_C@_0O@GKCA@139?5c?5?$CDF785F4?$AA@ 00493a0c     vis_ed_toolbars.obj
 0003:0000ca1c       ??_C@_0M@MMDJ@138?5c?5black?$AA@ 00493a1c     vis_ed_toolbars.obj
 0003:0000ca28       ??_C@_0O@IGEH@137?5c?5?$CD000200?$AA@ 00493a28     vis_ed_toolbars.obj
 0003:0000ca38       ??_C@_0O@CCDI@136?5c?5?$CD020001?$AA@ 00493a38     vis_ed_toolbars.obj
 0003:0000ca48       ??_C@_0O@KMDB@135?5c?5?$CD00177F?$AA@ 00493a48     vis_ed_toolbars.obj
 0003:0000ca58       ??_C@_0O@NOOK@134?5c?5?$CD6F861C?$AA@ 00493a58     vis_ed_toolbars.obj
 0003:0000ca68       ??_C@_0O@EHCB@133?5c?5?$CD0F0000?$AA@ 00493a68     vis_ed_toolbars.obj
 0003:0000ca78       ??_C@_0O@KPGP@132?5c?5?$CDB70000?$AA@ 00493a78     vis_ed_toolbars.obj
 0003:0000ca88       ??_C@_0O@CBCB@131?5c?5?$CDF8340F?$AA@ 00493a88     vis_ed_toolbars.obj
 0003:0000ca98       ??_C@_0O@NENB@130?5c?5?$CDF785F4?$AA@ 00493a98     vis_ed_toolbars.obj
 0003:0000caa8       ??_C@_0M@IBLD@129?5c?5black?$AA@ 00493aa8     vis_ed_toolbars.obj
 0003:0000cab4       ??_C@_0O@CKHM@128?5c?5?$CD000200?$AA@ 00493ab4     vis_ed_toolbars.obj
 0003:0000cac4       ??_C@_0O@OPKF@127?5c?5?$CD010000?$AA@ 00493ac4     vis_ed_toolbars.obj
 0003:0000cad4       ??_C@_0O@OFEF@126?5c?5?$CD020000?$AA@ 00493ad4     vis_ed_toolbars.obj
 0003:0000cae4       ??_C@_0O@CDEO@125?5c?5?$CD9885D6?$AA@ 00493ae4     vis_ed_toolbars.obj
 0003:0000caf4       ??_C@_0O@EOGF@124?5c?5?$CD340000?$AA@ 00493af4     vis_ed_toolbars.obj
 0003:0000cb04       ??_C@_0O@KFAC@123?5c?5?$CD0254EC?$AA@ 00493b04     vis_ed_toolbars.obj
 0003:0000cb14       ??_C@_0O@MAEE@122?5c?5?$CD0F0000?$AA@ 00493b14     vis_ed_toolbars.obj
 0003:0000cb24       ??_C@_0BC@JFID@121?5c?5transparent?$AA@ 00493b24     vis_ed_toolbars.obj
 0003:0000cb38       ??_C@_0O@HOAC@120?5c?5?$CD000200?$AA@ 00493b38     vis_ed_toolbars.obj
 0003:0000cb48       ??_C@_0O@KBCP@119?5c?5?$CD00002E?$AA@ 00493b48     vis_ed_toolbars.obj
 0003:0000cb58       ??_C@_0O@IGIO@118?5c?5?$CD300000?$AA@ 00493b58     vis_ed_toolbars.obj
 0003:0000cb68       ??_C@_0O@MGBL@117?5c?5?$CD2E0030?$AA@ 00493b68     vis_ed_toolbars.obj
 0003:0000cb78       ??_C@_0O@PBCA@116?5c?5?$CD5B0032?$AA@ 00493b78     vis_ed_toolbars.obj
 0003:0000cb88       ??_C@_0O@DOCK@115?5c?5?$CD21179F?$AA@ 00493b88     vis_ed_toolbars.obj
 0003:0000cb98       ??_C@_0O@GGAK@114?5c?5?$CD010000?$AA@ 00493b98     vis_ed_toolbars.obj
 0003:0000cba8       ??_C@_0M@IHCE@113?5c?5black?$AA@ 00493ba8     vis_ed_toolbars.obj
 0003:0000cbb4       ??_C@_0O@JCMF@112?5c?5?$CD010534?$AA@ 00493bb4     vis_ed_toolbars.obj
 0003:0000cbc4       ??_C@_0O@GEIP@111?5c?5?$CD5B0032?$AA@ 00493bc4     vis_ed_toolbars.obj
 0003:0000cbd4       ??_C@_0O@NPBA@110?5c?5?$CDCA858C?$AA@ 00493bd4     vis_ed_toolbars.obj
 0003:0000cbe4       ??_C@_0O@HHKH@109?5c?5?$CDBF0001?$AA@ 00493be4     vis_ed_toolbars.obj
 0003:0000cbf4       ??_C@_0O@NDAK@108?5c?5?$CD00340F?$AA@ 00493bf4     vis_ed_toolbars.obj
 0003:0000cc04       ??_C@_0O@FLCB@107?5c?5?$CD0F0000?$AA@ 00493c04     vis_ed_toolbars.obj
 0003:0000cc14       ??_C@_0M@MDIO@106?5c?5black?$AA@ 00493c14     vis_ed_toolbars.obj
 0003:0000cc20       ??_C@_0M@IFFG@105?5c?5black?$AA@ 00493c20     vis_ed_toolbars.obj
 0003:0000cc2c       ??_C@_0O@OMLL@104?5c?5?$CD00005B?$AA@ 00493c2c     vis_ed_toolbars.obj
 0003:0000cc3c       ??_C@_0O@NNBE@103?5c?5?$CD32001B?$AA@ 00493c3c     vis_ed_toolbars.obj
 0003:0000cc4c       ??_C@_0O@KCNF@102?5c?5?$CD450000?$AA@ 00493c4c     vis_ed_toolbars.obj
 0003:0000cc5c       ??_C@_0O@JGF@101?5c?5?$CD5B0032?$AA@ 00493c5c     vis_ed_toolbars.obj
 0003:0000cc6c       ??_C@_0O@PHCH@100?5c?5?$CD0017B7?$AA@ 00493c6c     vis_ed_toolbars.obj
 0003:0000cc7c       ??_C@_0O@HCMF@099?5c?5?$CD02800A?$AA@ 00493c7c     vis_ed_toolbars.obj
 0003:0000cc8c       ??_C@_0O@MEBH@098?5c?5?$CD0A2CF7?$AA@ 00493c8c     vis_ed_toolbars.obj
 0003:0000cc9c       ??_C@_0O@DHDD@097?5c?5?$CDF40534?$AA@ 00493c9c     vis_ed_toolbars.obj
 0003:0000ccac       ??_C@_0M@NINB@096?5c?5black?$AA@ 00493cac     vis_ed_toolbars.obj
 0003:0000ccb8       ??_C@_0O@CNDN@095?5c?5?$CD2E0030?$AA@ 00493cb8     vis_ed_toolbars.obj
 0003:0000ccc8       ??_C@_0O@ENEK@094?5c?5?$CD1B1C45?$AA@ 00493cc8     vis_ed_toolbars.obj
 0003:0000ccd8       ??_C@_0BC@IILA@093?5c?5transparent?$AA@ 00493cd8     vis_ed_toolbars.obj
 0003:0000ccec       ??_C@_0O@JGNG@092?5c?5?$CD9F2340?$AA@ 00493cec     vis_ed_toolbars.obj
 0003:0000ccfc       ??_C@_0O@GCO@091?5c?5?$CDB24BC4?$AA@ 00493cfc     vis_ed_toolbars.obj
 0003:0000cd0c       ??_C@_0O@BGGL@090?5c?5?$CD030200?$AA@ 00493d0c     vis_ed_toolbars.obj
 0003:0000cd1c       ??_C@_0O@LPEJ@089?5c?5?$CDF7857A?$AA@ 00493d1c     vis_ed_toolbars.obj
 0003:0000cd2c       ??_C@_0O@IIIN@088?5c?5?$CD9F6074?$AA@ 00493d2c     vis_ed_toolbars.obj
 0003:0000cd3c       ??_C@_0O@CDJH@087?5c?5?$CD2D95B0?$AA@ 00493d3c     vis_ed_toolbars.obj
 0003:0000cd4c       ??_C@_0O@BMLB@086?5c?5?$CD030011?$AA@ 00493d4c     vis_ed_toolbars.obj
 0003:0000cd5c       ??_C@_0O@GOBN@085?5c?5?$CD3A0000?$AA@ 00493d5c     vis_ed_toolbars.obj
 0003:0000cd6c       ??_C@_0O@PIDC@084?5c?5?$CD002CF7?$AA@ 00493d6c     vis_ed_toolbars.obj
 0003:0000cd7c       ??_C@_0M@JMHL@083?5c?5black?$AA@ 00493d7c     vis_ed_toolbars.obj
 0003:0000cd88       ??_C@_0O@MMAC@082?5c?5?$CDF7FFFF?$AA@ 00493d88     vis_ed_toolbars.obj
 0003:0000cd98       ??_C@_0O@MOKL@081?5c?5?$CDD73D7B?$AA@ 00493d98     vis_ed_toolbars.obj
 0003:0000cda8       ??_C@_0O@EHDI@080?5c?5?$CD142CF7?$AA@ 00493da8     vis_ed_toolbars.obj
 0003:0000cdb8       ??_C@_0O@FDBI@079?5c?5?$CDFF79D3?$AA@ 00493db8     vis_ed_toolbars.obj
 0003:0000cdc8       ??_C@_0M@BJLP@078?5c?5black?$AA@ 00493dc8     vis_ed_toolbars.obj
 0003:0000cdd4       ??_C@_0O@FBMC@077?5c?5?$CD00815C?$AA@ 00493dd4     vis_ed_toolbars.obj
 0003:0000cde4       ??_C@_0O@GJFM@076?5c?5?$CD00005B?$AA@ 00493de4     vis_ed_toolbars.obj
 0003:0000cdf4       ??_C@_0O@EFPD@075?5c?5?$CDFA0000?$AA@ 00493df4     vis_ed_toolbars.obj
 0003:0000ce04       ??_C@_0M@CNO@074?5c?5black?$AA@ 00493e04     vis_ed_toolbars.obj
 0003:0000ce10       ??_C@_0O@IOPN@073?5c?5?$CD030000?$AA@ 00493e10     vis_ed_toolbars.obj
 0003:0000ce20       ??_C@_0O@PCOO@072?5c?5?$CD00BFF6?$AA@ 00493e20     vis_ed_toolbars.obj
 0003:0000ce30       ??_C@_0O@FCBA@071?5c?5?$CDDBBFF6?$AA@ 00493e30     vis_ed_toolbars.obj
 0003:0000ce40       ??_C@_0O@MOGM@070?5c?5?$CDDB0000?$AA@ 00493e40     vis_ed_toolbars.obj
 0003:0000ce50       ??_C@_0M@FEDF@069?5c?5black?$AA@ 00493e50     vis_ed_toolbars.obj
 0003:0000ce5c       ??_C@_0O@MHKH@068?5c?5?$CDA7BFF7?$AA@ 00493e5c     vis_ed_toolbars.obj
 0003:0000ce6c       ??_C@_0O@OKGC@067?5c?5?$CD2E005B?$AA@ 00493e6c     vis_ed_toolbars.obj
 0003:0000ce7c       ??_C@_0O@KLKI@066?5c?5?$CD700000?$AA@ 00493e7c     vis_ed_toolbars.obj
 0003:0000ce8c       ??_C@_0BC@OMCJ@065?5c?5transparent?$AA@ 00493e8c     vis_ed_toolbars.obj
 0003:0000cea0       ??_C@_0O@BNDI@064?5c?5?$CD000534?$AA@ 00493ea0     vis_ed_toolbars.obj
 0003:0000ceb0       ??_C@_0O@EEAG@063?5c?5?$CD00005B?$AA@ 00493eb0     vis_ed_toolbars.obj
 0003:0000cec0       ??_C@_0O@IHCG@062?5c?5?$CD000032?$AA@ 00493ec0     vis_ed_toolbars.obj
 0003:0000ced0       ??_C@_0O@NMCE@061?5c?5?$CDD73DC2?$AA@ 00493ed0     vis_ed_toolbars.obj
 0003:0000cee0       ??_C@_0O@FIME@060?5c?5?$CDF784F6?$AA@ 00493ee0     vis_ed_toolbars.obj
 0003:0000cef0       ??_C@_0O@OIGN@059?5c?5?$CDF7005B?$AA@ 00493ef0     vis_ed_toolbars.obj
 0003:0000cf00       ??_C@_0O@IKOI@058?5c?5?$CDFA0000?$AA@ 00493f00     vis_ed_toolbars.obj
 0003:0000cf10       ??_C@_0M@FLIC@057?5c?5black?$AA@ 00493f10     vis_ed_toolbars.obj
 0003:0000cf1c       ??_C@_0O@MJPM@056?5c?5?$CD03BFF7?$AA@ 00493f1c     vis_ed_toolbars.obj
 0003:0000cf2c       ??_C@_0O@NAPJ@055?5c?5?$CD1D0000?$AA@ 00493f2c     vis_ed_toolbars.obj
 0003:0000cf3c       ??_C@_0O@GHJG@054?5c?5?$CD00005B?$AA@ 00493f3c     vis_ed_toolbars.obj
 0003:0000cf4c       ??_C@_0O@OBAG@053?5c?5?$CDFA0000?$AA@ 00493f4c     vis_ed_toolbars.obj
 0003:0000cf5c       ??_C@_0M@JAOK@052?5c?5black?$AA@ 00493f5c     vis_ed_toolbars.obj
 0003:0000cf68       ??_C@_0O@FJFF@051?5c?5?$CD034B48?$AA@ 00493f68     vis_ed_toolbars.obj
 0003:0000cf78       ??_C@_0O@LCIM@050?5c?5?$CDE0022D?$AA@ 00493f78     vis_ed_toolbars.obj
 0003:0000cf88       ??_C@_0O@EJBI@049?5c?5?$CD48005B?$AA@ 00493f88     vis_ed_toolbars.obj
 0003:0000cf98       ??_C@_0O@CFJI@048?5c?5?$CDD8005B?$AA@ 00493f98     vis_ed_toolbars.obj
 0003:0000cfa8       ??_C@_0O@IOGJ@047?5c?5?$CDF2005B?$AA@ 00493fa8     vis_ed_toolbars.obj
 0003:0000cfb8       ??_C@_0O@LHAG@046?5c?5?$CD0E0000?$AA@ 00493fb8     vis_ed_toolbars.obj
 0003:0000cfc8       ??_C@_0O@NLMM@045?5c?5?$CD01BFF7?$AA@ 00493fc8     vis_ed_toolbars.obj
 0003:0000cfd8       ??_C@_0O@JLBH@044?5c?5?$CD440000?$AA@ 00493fd8     vis_ed_toolbars.obj
 0003:0000cfe8       ??_C@_0O@OOEH@043?5c?5?$CD3F005B?$AA@ 00493fe8     vis_ed_toolbars.obj
 0003:0000cff8       ??_C@_0O@NKEC@042?5c?5?$CD700000?$AA@ 00493ff8     vis_ed_toolbars.obj
 0003:0000d008       ??_C@_0O@PMM@041?5c?5?$CD37BFF7?$AA@ 00494008     vis_ed_toolbars.obj
 0003:0000d018       ??_C@_0O@PHGN@040?5c?5?$CDD60000?$AA@ 00494018     vis_ed_toolbars.obj
 0003:0000d028       ??_C@_0BC@FFGC@039?5c?5transparent?$AA@ 00494028     vis_ed_toolbars.obj
 0003:0000d03c       ??_C@_0O@MLNN@038?5c?5?$CD34005B?$AA@ 0049403c     vis_ed_toolbars.obj
 0003:0000d04c       ??_C@_0O@CJGG@037?5c?5?$CD3216B7?$AA@ 0049404c     vis_ed_toolbars.obj
 0003:0000d05c       ??_C@_0M@LJEH@036?5c?5black?$AA@ 0049405c     vis_ed_toolbars.obj
 0003:0000d068       ??_C@_0O@NDGG@035?5c?5?$CD532CE7?$AA@ 00494068     vis_ed_toolbars.obj
 0003:0000d078       ??_C@_0O@NMBG@034?5c?5?$CD5416D7?$AA@ 00494078     vis_ed_toolbars.obj
 0003:0000d088       ??_C@_0O@NNGD@033?5c?5?$CD3A8460?$AA@ 00494088     vis_ed_toolbars.obj
 0003:0000d098       ??_C@_0O@BLL@032?5c?5?$CDB70003?$AA@ 00494098     vis_ed_toolbars.obj
 0003:0000d0a8       ??_C@_0O@FKBG@031?5c?5?$CD002CE7?$AA@ 004940a8     vis_ed_toolbars.obj
 0003:0000d0b8       ??_C@_0O@DMPC@030?5c?5?$CD54179F?$AA@ 004940b8     vis_ed_toolbars.obj
 0003:0000d0c8       ??_C@_0O@OFOC@029?5c?5?$CD668442?$AA@ 004940c8     vis_ed_toolbars.obj
 0003:0000d0d8       ??_C@_0M@KJHE@028?5c?5black?$AA@ 004940d8     vis_ed_toolbars.obj
 0003:0000d0e4       ??_C@_0O@FKGM@027?5c?5?$CDFF8040?$AA@ 004940e4     vis_ed_toolbars.obj
 0003:0000d0f4       ??_C@_0O@HFIN@026?5c?5?$CDFF0080?$AA@ 004940f4     vis_ed_toolbars.obj
 0003:0000d104       ??_C@_0O@IPOA@025?5c?5?$CD8080FF?$AA@ 00494104     vis_ed_toolbars.obj
 0003:0000d114       ??_C@_0O@DBJH@024?5c?5?$CD80FFFF?$AA@ 00494114     vis_ed_toolbars.obj
 0003:0000d124       ??_C@_0O@HPOO@023?5c?5?$CD00FF80?$AA@ 00494124     vis_ed_toolbars.obj
 0003:0000d134       ??_C@_0O@KBNK@022?5c?5?$CDFFFF80?$AA@ 00494134     vis_ed_toolbars.obj
 0003:0000d144       ??_C@_0O@KELB@021?5c?5magenta?$AA@ 00494144     vis_ed_toolbars.obj
 0003:0000d154       ??_C@_0L@NLPE@020?5c?5blue?$AA@ 00494154     vis_ed_toolbars.obj
 0003:0000d160       ??_C@_0L@BBAA@019?5c?5cyan?$AA@ 00494160     vis_ed_toolbars.obj
 0003:0000d16c       ??_C@_0M@IGLB@018?5c?5green?$AA@ 0049416c     vis_ed_toolbars.obj
 0003:0000d178       ??_C@_0N@PLMJ@017?5c?5yellow?$AA@ 00494178     vis_ed_toolbars.obj
 0003:0000d188       ??_C@_09KBGF@016?5c?5red?$AA@ 00494188     vis_ed_toolbars.obj
 0003:0000d194       ??_C@_0O@KPJD@015?5c?5?$CDC0C0C0?$AA@ 00494194     vis_ed_toolbars.obj
 0003:0000d1a4       ??_C@_0L@BAHH@014?5c?5none?$AA@ 004941a4     vis_ed_toolbars.obj
 0003:0000d1b0       ??_C@_0O@DKKE@013?5c?5?$CD804000?$AA@ 004941b0     vis_ed_toolbars.obj
 0003:0000d1c0       ??_C@_0O@HNGB@012?5c?5?$CD4000FF?$AA@ 004941c0     vis_ed_toolbars.obj
 0003:0000d1d0       ??_C@_0O@PHOO@011?5c?5?$CD004080?$AA@ 004941d0     vis_ed_toolbars.obj
 0003:0000d1e0       ??_C@_0O@NEGO@010?5c?5?$CD0080FF?$AA@ 004941e0     vis_ed_toolbars.obj
 0003:0000d1f0       ??_C@_0O@CBIE@009?5c?5?$CD004040?$AA@ 004941f0     vis_ed_toolbars.obj
 0003:0000d200       ??_C@_0O@NJNC@008?5c?5?$CD808040?$AA@ 00494200     vis_ed_toolbars.obj
 0003:0000d210       ??_C@_0O@NNGN@007?5c?5?$CD800080?$AA@ 00494210     vis_ed_toolbars.obj
 0003:0000d220       ??_C@_0O@JKOD@006?5c?5?$CD000080?$AA@ 00494220     vis_ed_toolbars.obj
 0003:0000d230       ??_C@_0O@IPOD@005?5c?5?$CD008080?$AA@ 00494230     vis_ed_toolbars.obj
 0003:0000d240       ??_C@_0O@NADI@004?5c?5?$CD008000?$AA@ 00494240     vis_ed_toolbars.obj
 0003:0000d250       ??_C@_0O@OIJG@003?5c?5?$CD808000?$AA@ 00494250     vis_ed_toolbars.obj
 0003:0000d260       ??_C@_0O@CIIJ@002?5c?5?$CD800000?$AA@ 00494260     vis_ed_toolbars.obj
 0003:0000d270       ??_C@_0O@IINN@001?5c?5?$CD808080?$AA@ 00494270     vis_ed_toolbars.obj
 0003:0000d280       ??_C@_0M@KELB@000?5c?5black?$AA@ 00494280     vis_ed_toolbars.obj
 0003:0000d28c       ??_C@_0M@BKFA@16?513?5256?53?$AA@ 0049428c     vis_ed_toolbars.obj
 0003:0000d298       ??_C@_0BB@NKCG@?4?$CD?$CD?$CD?$CD?$CD?$CD?$CD?$CD?$CD?$CD?$CD?$CD?$CD?4?4?$AA@ 00494298     vis_ed_toolbars.obj
 0003:0000d2ac       ??_C@_0BB@FFBH@?4?4?$CDaaab?$CDaaab?$CD?4?4?4?$AA@ 004942ac     vis_ed_toolbars.obj
 0003:0000d2c0       ??_C@_0BB@CMN@?4?$CD?$CDaaab?$CDaaab?$CD?$CD?4?4?$AA@ 004942c0     vis_ed_toolbars.obj
 0003:0000d2d4       ??_C@_0BB@CHOD@?4?$CDaaaab?$CDaaabb?$CD?4?4?$AA@ 004942d4     vis_ed_toolbars.obj
 0003:0000d2e8       ??_C@_0BB@EBFB@?4?$CDaaaaaaaaaab?$CD?4?4?$AA@ 004942e8     vis_ed_toolbars.obj
 0003:0000d2fc       ??_C@_0BB@HKP@?4?$CD?4?4?4?4?4aaaaab?$CD?4?4?$AA@ 004942fc     vis_ed_toolbars.obj
 0003:0000d310       ??_C@_0M@IFE@a?5c?5?$CDe3be9d?$AA@ 00494310     vis_ed_toolbars.obj
 0003:0000d31c       ??_C@_0M@CBMK@b?5c?5?$CDcb8749?$AA@ 0049431c     vis_ed_toolbars.obj
 0003:0000d328       ??_C@_0BB@LPMJ@?4?4aaa?4?4?4?4?4?4?$CD?4?4?4?4?$AA@ 00494328     vis_ed_toolbars.obj
 0003:0000d33c       ??_C@_0BB@BNBC@?4?4aca?4?4?4?4?4?4?$CD?4?4?4?4?$AA@ 0049433c     vis_ed_toolbars.obj
 0003:0000d350       ??_C@_0BB@EPJK@?4?4aca?4bbb?4?4?$CD?4?4?4?4?$AA@ 00494350     vis_ed_toolbars.obj
 0003:0000d364       ??_C@_0BB@LLDB@?4?4aca?4bbb?4?$CD?$CD?$CD?4?4?4?$AA@ 00494364     vis_ed_toolbars.obj
 0003:0000d378       ??_C@_0BB@INNC@?4?4aca?4bcb?4?4?$CD?4?4?4?4?$AA@ 00494378     vis_ed_toolbars.obj
 0003:0000d38c       ??_C@_0BB@ONEB@?4?4aaa?4bbb?4?4?$CD?4?4?4?4?$AA@ 0049438c     vis_ed_toolbars.obj
 0003:0000d3a0       ??_C@_0M@GKEK@c?5c?5?$CDffffff?$AA@ 004943a0     vis_ed_toolbars.obj
 0003:0000d3ac       ??_C@_0M@HLBP@b?5c?5?$CD800000?$AA@ 004943ac     vis_ed_toolbars.obj
 0003:0000d3b8       ??_C@_0M@FMNK@a?5c?5?$CD000080?$AA@ 004943b8     vis_ed_toolbars.obj
 0003:0000d3c4       ??_C@_09IAHF@16?513?55?51?$AA@ 004943c4     vis_ed_toolbars.obj
 0003:0000d3d0       ??_C@_0BB@FEBF@?4?4aaaaaaaa?4aa?4?4?4?$AA@ 004943d0     vis_ed_toolbars.obj
 0003:0000d3e4       ??_C@_0BB@LINO@?4?4?4?4?4?4?4a?4?4?4aa?4?4?4?$AA@ 004943e4     vis_ed_toolbars.obj
 0003:0000d3f8       ??_C@_0BB@MICE@?4?4?4?4?4b?4b?4b?4aa?4?4?4?$AA@ 004943f8     vis_ed_toolbars.obj
 0003:0000d40c       ??_C@_0BB@BDMG@?4?4?4?4?4bbbbb?4aa?4?4?4?$AA@ 0049440c     vis_ed_toolbars.obj
 0003:0000d420       ??_C@_0BB@HHGM@?4?4?4?4?4?4?4?4?4?4?4aa?4?4?4?$AA@ 00494420     vis_ed_toolbars.obj
 0003:0000d434       ??_C@_0BB@LEJN@?4?4?$CD?4?4?4?4?4?4?$CD?4aa?4?4?4?$AA@ 00494434     vis_ed_toolbars.obj
 0003:0000d448       ??_C@_0BB@LEOC@?4?4?$CD?$CD?$CD?$CD?$CD?$CD?$CD?$CD?4aa?4?4?4?$AA@ 00494448     vis_ed_toolbars.obj
 0003:0000d45c       ??_C@_0M@PLIK@b?5c?5?$CD840000?$AA@ 0049445c     vis_ed_toolbars.obj
 0003:0000d468       ??_C@_0M@KJME@a?5c?5?$CD020000?$AA@ 00494468     vis_ed_toolbars.obj
 0003:0000d474       ??_C@_0M@CKDF@?$CD?5c?5?$CD000080?$AA@ 00494474     vis_ed_toolbars.obj
 0003:0000d480       ??_C@_0BB@JBIF@?4?4?$CD?$CD?4b?4?4?4?4?4?4b?4?4?4?$AA@ 00494480     vis_ed_toolbars.obj
 0003:0000d494       ??_C@_0BB@LDPN@?4?4?$CD?$CD?4bbbbbbbb?4?4?4?$AA@ 00494494     vis_ed_toolbars.obj
 0003:0000d4a8       ??_C@_0BB@JCNH@?4?4?$CD?$CD?4a?4a?4a?4?4?4?4?4?4?$AA@ 004944a8     vis_ed_toolbars.obj
 0003:0000d4bc       ??_C@_0BB@BAA@?4?4?$CD?$CD?4aaaaa?4?4?4?4?4?4?$AA@ 004944bc     vis_ed_toolbars.obj
 0003:0000d4d0       ??_C@_0BB@CHGJ@?4?4?$CD?$CD?4?4?4?4?4?4?4?4?4?4?4?4?$AA@ 004944d0     vis_ed_toolbars.obj
 0003:0000d4e4       ??_C@_0BB@DIOI@?4?4?$CD?$CD?4?$CD?$CD?$CD?$CD?$CD?$CD?$CD?$CD?4?4?4?$AA@ 004944e4     vis_ed_toolbars.obj
 0003:0000d4f8       ??_C@_0BB@POEA@?4?4?$CD?$CD?4?4?4?$CD?4?4?4?4?4?4?4?4?$AA@ 004944f8     vis_ed_toolbars.obj
 0003:0000d50c       ??_C@_0M@MEBK@a?5c?5?$CD840000?$AA@ 0049450c     vis_ed_toolbars.obj
 0003:0000d518       ??_C@_0M@NLCD@?$CD?5c?5?$CD030200?$AA@ 00494518     vis_ed_toolbars.obj
 0003:0000d524       ??_C@_0M@MJBG@b?5c?5?$CD000084?$AA@ 00494524     vis_ed_toolbars.obj
 0003:0000d530       ??_C@_09NCGD@16?513?54?51?$AA@ 00494530     vis_ed_toolbars.obj
 0003:0000d53c       ??_C@_0CI@DFLO@2redoAvailable?$CI?5bool?0?5const?5QStr@ 0049453c     vis_ed_toolbars.obj
 0003:0000d564       ??_C@_0CI@EEJJ@1redoAvailable?$CI?5bool?0?5const?5QStr@ 00494564     vis_ed_toolbars.obj
 0003:0000d58c       ??_C@_0CI@FDJN@2undoAvailable?$CI?5bool?0?5const?5QStr@ 0049458c     vis_ed_toolbars.obj
 0003:0000d5b4       ??_C@_0CI@CCLK@1undoAvailable?$CI?5bool?0?5const?5QStr@ 004945b4     vis_ed_toolbars.obj
 0003:0000d5dc       ??_C@_0BG@BFOC@2itemsSelected?$CI?5int?5?$CJ?$AA@ 004945dc     vis_ed_toolbars.obj
 0003:0000d5f4       ??_C@_0BG@KFCG@1itemsSelected?$CI?5int?5?$CJ?$AA@ 004945f4     vis_ed_toolbars.obj
 0003:0000d60c       ??_C@_0CC@KOHI@2scriptOpenVisEdAvailable?$CI?5bool?5@ 0049460c     vis_ed_toolbars.obj
 0003:0000d630       ??_C@_0CC@KAFI@1scriptOpenVisEdAvailable?$CI?5bool?5@ 00494630     vis_ed_toolbars.obj
 0003:0000d654       ??_C@_0CF@CEPF@2scriptOpenExplorerAvailable?$CI?5bo@ 00494654     vis_ed_toolbars.obj
 0003:0000d67c       ??_C@_0CF@KCPG@1scriptOpenExplorerAvailable?$CI?5bo@ 0049467c     vis_ed_toolbars.obj
 0003:0000d6a4       ??_C@_0CA@ICNA@2pasteSettingsAvailable?$CI?5bool?5?$CJ?$AA@ 004946a4     vis_ed_toolbars.obj
 0003:0000d6c4       ??_C@_0CA@BONP@1pasteSettingsAvailable?$CI?5bool?5?$CJ?$AA@ 004946c4     vis_ed_toolbars.obj
 0003:0000d6e4       ??_C@_0BO@KFDA@2pasteWidgetAvailable?$CI?5bool?5?$CJ?$AA@ 004946e4     vis_ed_toolbars.obj
 0003:0000d704       ??_C@_0BO@LNCM@1pasteWidgetAvailable?$CI?5bool?5?$CJ?$AA@ 00494704     vis_ed_toolbars.obj
 0003:0000d724       ??_C@_07OLEH@?$CGLayout?$AA@ 00494724     vis_ed_toolbars.obj
 0003:0000d72c       ??_C@_05CHKD@?$CGView?$AA@ 0049472c     vis_ed_toolbars.obj
 0003:0000d734       ??_C@_0BE@EAJP@1doImportSettings?$CI?$CJ?$AA@ 00494734     vis_ed_toolbars.obj
 0003:0000d748       ??_C@_0BP@NCIB@Import?5Settings?5From?5Clipboard?$AA@ 00494748     vis_ed_toolbars.obj
 0003:0000d768       ??_C@_06LEPC@?$CGTools?$AA@ 00494768     vis_ed_toolbars.obj
 0003:0000d770       ??_C@_0BA@BMFD@1openScriptVS?$CI?$CJ?$AA@ 00494770     vis_ed_toolbars.obj
 0003:0000d780       ??_C@_0CG@OAAO@Open?5Visual?5Studio?5Project?5for?5S@ 00494780     vis_ed_toolbars.obj
 0003:0000d7a8       ??_C@_0BA@GGFH@1openScriptUI?$CI?$CJ?$AA@ 004947a8     vis_ed_toolbars.obj
 0003:0000d7b8       ??_C@_0P@JAH@Open?5Script?5ui?$AA@ 004947b8     vis_ed_toolbars.obj
 0003:0000d7c8       ??_C@_0BE@HJFM@1openVisualStudio?$CI?$CJ?$AA@ 004947c8     vis_ed_toolbars.obj
 0003:0000d7dc       ??_C@_0CC@MCEP@Open?1Create?5Visual?5Studio?5Projec@ 004947dc     vis_ed_toolbars.obj
 0003:0000d800       ??_C@_0CA@OHIE@Open?1Create?5Visual?5Studio?5Proj?4?$AA@ 00494800     vis_ed_toolbars.obj
 0003:0000d820       ??_C@_0BC@ENNL@1openInExplorer?$CI?$CJ?$AA@ 00494820     vis_ed_toolbars.obj
 0003:0000d834       ??_C@_0BB@FBKI@Open?5in?5Explorer?$AA@ 00494834     vis_ed_toolbars.obj
 0003:0000d848       ??_C@_0O@DFIC@1toggleGrid?$CI?$CJ?$AA@ 00494848     vis_ed_toolbars.obj
 0003:0000d858       ??_C@_04MHDE@grid?$AA@     00494858     vis_ed_toolbars.obj
 0003:0000d860       ??_C@_04GNHG@Grid?$AA@     00494860     vis_ed_toolbars.obj
 0003:0000d868       ??_C@_0N@ICLL@Toggle?5?$CGGrid?$AA@ 00494868     vis_ed_toolbars.obj
 0003:0000d878       ??_C@_07EOCM@1test?$CI?$CJ?$AA@ 00494878     vis_ed_toolbars.obj
 0003:0000d880       ??_C@_04DJDA@test?$AA@     00494880     vis_ed_toolbars.obj
 0003:0000d888       ??_C@_0O@HPML@Save?5and?5Test?$AA@ 00494888     vis_ed_toolbars.obj
 0003:0000d898       ??_C@_0P@IPEI@Save?5and?5T?$CGest?$AA@ 00494898     vis_ed_toolbars.obj
 0003:0000d8a8       ??_C@_0BE@JFMB@1dialogInvokeEdit?$CI?$CJ?$AA@ 004948a8     vis_ed_toolbars.obj
 0003:0000d8bc       ??_C@_0BB@ILKA@dialogProperties?$AA@ 004948bc     vis_ed_toolbars.obj
 0003:0000d8d0       ??_C@_0BC@GHKK@Dialog?5Properties?$AA@ 004948d0     vis_ed_toolbars.obj
 0003:0000d8e4       ??_C@_0BD@KFBG@?$CGDialog?5Properties?$AA@ 004948e4     vis_ed_toolbars.obj
 0003:0000d8f8       ??_C@_0BC@EEGI@1propertiesEdit?$CI?$CJ?$AA@ 004948f8     vis_ed_toolbars.obj
 0003:0000d90c       ??_C@_0L@FPAP@properties?$AA@ 0049490c     vis_ed_toolbars.obj
 0003:0000d918       ??_C@_0BA@LIN@Edit?5Properties?$AA@ 00494918     vis_ed_toolbars.obj
 0003:0000d928       ??_C@_0BB@PHFG@?$CGEdit?5Properties?$AA@ 00494928     vis_ed_toolbars.obj
 0003:0000d93c       ??_C@_0P@HIJJ@1contextMenu?$CI?$CJ?$AA@ 0049493c     vis_ed_toolbars.obj
 0003:0000d94c       ??_C@_07OGJO@context?$AA@  0049494c     vis_ed_toolbars.obj
 0003:0000d954       ??_C@_0N@PHLL@Context?5Menu?$AA@ 00494954     vis_ed_toolbars.obj
 0003:0000d964       ??_C@_0O@DNGK@?$CGContext?5Menu?$AA@ 00494964     vis_ed_toolbars.obj
 0003:0000d974       ??_C@_0BE@IOL@1browseStateSheet?$CI?$CJ?$AA@ 00494974     vis_ed_toolbars.obj
 0003:0000d988       ??_C@_0M@PJLB@sas_browser?$AA@ 00494988     vis_ed_toolbars.obj
 0003:0000d994       ??_C@_0BC@MAIN@Browse?5Statesheet?$AA@ 00494994     vis_ed_toolbars.obj
 0003:0000d9a8       ??_C@_0BE@OBDO@?$CGStateSheet?5Browser?$AA@ 004949a8     vis_ed_toolbars.obj
 0003:0000d9bc       ??_C@_0CA@PMNA@1setStateSheet?$CIconst?5QString?5?$CG?$CJ?$AA@ 004949bc     vis_ed_toolbars.obj
 0003:0000d9dc       ??_C@_0BC@CIBP@Select?5Statesheet?$AA@ 004949dc     vis_ed_toolbars.obj
 0003:0000d9f0       ??_C@_0BA@IGLG@state?5combo?5box?$AA@ 004949f0     vis_ed_toolbars.obj
 0003:0000da00       ??_C@_0BE@LMBO@1browseStyleSheet?$CI?$CJ?$AA@ 00494a00     vis_ed_toolbars.obj
 0003:0000da14       ??_C@_0M@HLIH@sys_browser?$AA@ 00494a14     vis_ed_toolbars.obj
 0003:0000da20       ??_C@_0BC@JOOH@Browse?5Stylesheet?$AA@ 00494a20     vis_ed_toolbars.obj
 0003:0000da34       ??_C@_0BE@MMAG@?$CGStyleSheet?5Browser?$AA@ 00494a34     vis_ed_toolbars.obj
 0003:0000da48       ??_C@_0BM@FHAN@2activated?$CIconst?5QString?5?$CG?$CJ?$AA@ 00494a48     vis_ed_toolbars.obj
 0003:0000da64       ??_C@_0CA@FIEK@1setStyleSheet?$CIconst?5QString?5?$CG?$CJ?$AA@ 00494a64     vis_ed_toolbars.obj
 0003:0000da84       ??_C@_0BC@HGHF@Select?5Stylesheet?$AA@ 00494a84     vis_ed_toolbars.obj
 0003:0000da98       ??_C@_0BA@KKPL@style?5combo?5box?$AA@ 00494a98     vis_ed_toolbars.obj
 0003:0000daa8       ??_C@_0BE@LFBD@1doManualSettings?$CI?$CJ?$AA@ 00494aa8     vis_ed_toolbars.obj
 0003:0000dabc       ??_C@_0BA@BCOO@Manual?5Settings?$AA@ 00494abc     vis_ed_toolbars.obj
 0003:0000dacc       ??_C@_0BI@BPJE@1doSizePositionManual?$CI?$CJ?$AA@ 00494acc     vis_ed_toolbars.obj
 0003:0000dae4       ??_C@_0BF@HIAO@Manual?5Size?1Position?$AA@ 00494ae4     vis_ed_toolbars.obj
 0003:0000dafc       ??_C@_08NIKO@1paste?$CI?$CJ?$AA@ 00494afc     vis_ed_toolbars.obj
 0003:0000db08       ??_C@_05HMAP@paste?$AA@    00494b08     vis_ed_toolbars.obj
 0003:0000db10       ??_C@_06LBGB@?$CGPaste?$AA@ 00494b10     vis_ed_toolbars.obj
 0003:0000db18       ??_C@_07FICB@1copy?$CI?$CJ?$AA@ 00494b18     vis_ed_toolbars.obj
 0003:0000db20       ??_C@_04MNLL@copy?$AA@     00494b20     vis_ed_toolbars.obj
 0003:0000db28       ??_C@_04GHPJ@Copy?$AA@     00494b28     vis_ed_toolbars.obj
 0003:0000db30       ??_C@_05KDIM@?$CGCopy?$AA@ 00494b30     vis_ed_toolbars.obj
 0003:0000db38       ??_C@_06OPEN@1cut?$CI?$CJ?$AA@ 00494b38     vis_ed_toolbars.obj
 0003:0000db40       ??_C@_03JMBG@cut?$AA@      00494b40     vis_ed_toolbars.obj
 0003:0000db44       ??_C@_04JBIL@Cu?$CGt?$AA@  00494b44     vis_ed_toolbars.obj
 0003:0000db4c       ??_C@_0BF@FMPJ@1deleteEditHandled?$CI?$CJ?$AA@ 00494b4c     vis_ed_toolbars.obj
 0003:0000db64       ??_C@_06IDPA@delete?$AA@   00494b64     vis_ed_toolbars.obj
 0003:0000db6c       ??_C@_07CDN@?$CGDelete?$AA@ 00494b6c     vis_ed_toolbars.obj
 0003:0000db74       ??_C@_07NLJH@1redo?$CI?$CJ?$AA@ 00494b74     vis_ed_toolbars.obj
 0003:0000db7c       ??_C@_04OPFB@redo?$AA@     00494b7c     vis_ed_toolbars.obj
 0003:0000db84       ??_C@_04EFBD@Redo?$AA@     00494b84     vis_ed_toolbars.obj
 0003:0000db8c       ??_C@_07NCLC@1undo?$CI?$CJ?$AA@ 00494b8c     vis_ed_toolbars.obj
 0003:0000db94       ??_C@_04HDGB@undo?$AA@     00494b94     vis_ed_toolbars.obj
 0003:0000db9c       ??_C@_04NJCD@Undo?$AA@     00494b9c     vis_ed_toolbars.obj
 0003:0000dba4       ??_C@_0BH@LMFB@1editHandleSelectAll?$CI?$CJ?$AA@ 00494ba4     vis_ed_toolbars.obj
 0003:0000dbbc       ??_C@_09KNPG@SelectAll?$AA@ 00494bbc     vis_ed_toolbars.obj
 0003:0000dbc8       ??_C@_0BB@FLE@1moveRightFast?$CI?$CJ?$AA@ 00494bc8     vis_ed_toolbars.obj
 0003:0000dbdc       ??_C@_0O@GMBK@moveRightFast?$AA@ 00494bdc     vis_ed_toolbars.obj
 0003:0000dbec       ??_C@_0O@EBKH@MoveRightFast?$AA@ 00494bec     vis_ed_toolbars.obj
 0003:0000dbfc       ??_C@_0BA@CIFJ@1moveLeftFast?$CI?$CJ?$AA@ 00494bfc     vis_ed_toolbars.obj
 0003:0000dc0c       ??_C@_0N@OGAB@moveLeftFast?$AA@ 00494c0c     vis_ed_toolbars.obj
 0003:0000dc1c       ??_C@_0N@FLFA@MoveLeftFast?$AA@ 00494c1c     vis_ed_toolbars.obj
 0003:0000dc2c       ??_C@_0BA@MKIB@1moveDownFast?$CI?$CJ?$AA@ 00494c2c     vis_ed_toolbars.obj
 0003:0000dc3c       ??_C@_0N@CGE@moveDownFast?$AA@ 00494c3c     vis_ed_toolbars.obj
 0003:0000dc4c       ??_C@_0N@LPDF@MoveDownFast?$AA@ 00494c4c     vis_ed_toolbars.obj
 0003:0000dc5c       ??_C@_0O@IOPP@1moveUpFast?$CI?$CJ?$AA@ 00494c5c     vis_ed_toolbars.obj
 0003:0000dc6c       ??_C@_0L@KFPO@moveUpFast?$AA@ 00494c6c     vis_ed_toolbars.obj
 0003:0000dc78       ??_C@_0L@FNLH@MoveUpFast?$AA@ 00494c78     vis_ed_toolbars.obj
 0003:0000dc84       ??_C@_0N@LOM@1moveRight?$CI?$CJ?$AA@ 00494c84     vis_ed_toolbars.obj
 0003:0000dc94       ??_C@_09COME@moveRight?$AA@ 00494c94     vis_ed_toolbars.obj
 0003:0000dca0       ??_C@_09GHMB@MoveRight?$AA@ 00494ca0     vis_ed_toolbars.obj
 0003:0000dcac       ??_C@_0M@HBDD@1moveLeft?$CI?$CJ?$AA@ 00494cac     vis_ed_toolbars.obj
 0003:0000dcb8       ??_C@_08PBOF@moveLeft?$AA@ 00494cb8     vis_ed_toolbars.obj
 0003:0000dcc4       ??_C@_08PEDH@MoveLeft?$AA@ 00494cc4     vis_ed_toolbars.obj
 0003:0000dcd0       ??_C@_0M@PIND@1moveDown?$CI?$CJ?$AA@ 00494cd0     vis_ed_toolbars.obj
 0003:0000dcdc       ??_C@_08DLAI@moveDown?$AA@ 00494cdc     vis_ed_toolbars.obj
 0003:0000dce8       ??_C@_08DONK@MoveDown?$AA@ 00494ce8     vis_ed_toolbars.obj
 0003:0000dcf4       ??_C@_09PCC@1moveUp?$CI?$CJ?$AA@ 00494cf4     vis_ed_toolbars.obj
 0003:0000dd00       ??_C@_06KFGH@moveUp?$AA@   00494d00     vis_ed_toolbars.obj
 0003:0000dd08       ??_C@_06BBGD@MoveUp?$AA@   00494d08     vis_ed_toolbars.obj
 0003:0000dd10       ??_C@_0BA@NICG@1widget_count?$CI?$CJ?$AA@ 00494d10     vis_ed_toolbars.obj
 0003:0000dd20       ??_C@_0N@LEDK@widget_count?$AA@ 00494d20     vis_ed_toolbars.obj
 0003:0000dd30       ??_C@_0N@MOKP@Widget?5Count?$AA@ 00494d30     vis_ed_toolbars.obj
 0003:0000dd40       ??_C@_0O@EHO@?$CGWidget?5Count?$AA@ 00494d40     vis_ed_toolbars.obj
 0003:0000dd50       ??_C@_0BH@JHKA@1doConnectionsDialog?$CI?$CJ?$AA@ 00494d50     vis_ed_toolbars.obj
 0003:0000dd68       ??_C@_0BB@PAIG@Edit?5Connections?$AA@ 00494d68     vis_ed_toolbars.obj
 0003:0000dd7c       ??_C@_0BA@MDNP@1toggleIdList?$CI?$CJ?$AA@ 00494d7c     vis_ed_toolbars.obj
 0003:0000dd8c       ??_C@_0N@HIGE@View?5ID?5List?$AA@ 00494d8c     vis_ed_toolbars.obj
 0003:0000dd9c       ??_C@_0BL@COGP@1Selected_Size_V_Largest?$CI?$CJ?$AA@ 00494d9c     vis_ed_toolbars.obj
 0003:0000ddb8       ??_C@_0O@FOKD@size_vlargest?$AA@ 00494db8     vis_ed_toolbars.obj
 0003:0000ddc8       ??_C@_0P@OKIC@Size?5V?5Largest?$AA@ 00494dc8     vis_ed_toolbars.obj
 0003:0000ddd8       ??_C@_0BA@KPGE@Size?5V?5La?$CGrgest?$AA@ 00494dd8     vis_ed_toolbars.obj
 0003:0000dde8       ??_C@_0BM@BEGA@1Selected_Size_V_Smallest?$CI?$CJ?$AA@ 00494de8     vis_ed_toolbars.obj
 0003:0000de04       ??_C@_0P@KHNA@size_vsmallest?$AA@ 00494e04     vis_ed_toolbars.obj
 0003:0000de14       ??_C@_0BA@FMGE@Size?5V?5Smallest?$AA@ 00494e14     vis_ed_toolbars.obj
 0003:0000de24       ??_C@_0BB@KNHK@Size?5?$CGV?5Smallest?$AA@ 00494e24     vis_ed_toolbars.obj
 0003:0000de38       ??_C@_0BL@KNMN@1Selected_Size_H_Largest?$CI?$CJ?$AA@ 00494e38     vis_ed_toolbars.obj
 0003:0000de54       ??_C@_0O@CNNJ@size_hlargest?$AA@ 00494e54     vis_ed_toolbars.obj
 0003:0000de64       ??_C@_0P@FBPB@Size?5H?5Largest?$AA@ 00494e64     vis_ed_toolbars.obj
 0003:0000de74       ??_C@_0BA@GADC@Size?5H?5?$CGLargest?$AA@ 00494e74     vis_ed_toolbars.obj
 0003:0000de84       ??_C@_0BM@MJOD@1Selected_Size_H_Smallest?$CI?$CJ?$AA@ 00494e84     vis_ed_toolbars.obj
 0003:0000dea0       ??_C@_0P@BMKD@size_hsmallest?$AA@ 00494ea0     vis_ed_toolbars.obj
 0003:0000deb0       ??_C@_0BA@PONP@Size?5H?5Smallest?$AA@ 00494eb0     vis_ed_toolbars.obj
 0003:0000dec0       ??_C@_0BB@PMB@Size?5?$CGH?5Smallest?$AA@ 00494ec0     vis_ed_toolbars.obj
 0003:0000ded4       ??_C@_0O@FENK@1doPushBack?$CI?$CJ?$AA@ 00494ed4     vis_ed_toolbars.obj
 0003:0000dee4       ??_C@_0L@JFDG@doPushBack?$AA@ 00494ee4     vis_ed_toolbars.obj
 0003:0000def0       ??_C@_0O@DJLH@Push?5Backward?$AA@ 00494ef0     vis_ed_toolbars.obj
 0003:0000df00       ??_C@_0BB@EPJJ@1doPullForward?$CI?$CJ?$AA@ 00494f00     vis_ed_toolbars.obj
 0003:0000df14       ??_C@_0O@EPHD@doPullForward?$AA@ 00494f14     vis_ed_toolbars.obj
 0003:0000df24       ??_C@_0O@CMOO@Pull?5Forwards?$AA@ 00494f24     vis_ed_toolbars.obj
 0003:0000df34       ??_C@_0O@MHIM@1Align_VMid?$CI?$CJ?$AA@ 00494f34     vis_ed_toolbars.obj
 0003:0000df44       ??_C@_0BF@FFPE@Align?5Centres?5In?5Row?$AA@ 00494f44     vis_ed_toolbars.obj
 0003:0000df5c       ??_C@_0O@ENEP@1Align_HMid?$CI?$CJ?$AA@ 00494f5c     vis_ed_toolbars.obj
 0003:0000df6c       ??_C@_0L@MCAD@align_hMid?$AA@ 00494f6c     vis_ed_toolbars.obj
 0003:0000df78       ??_C@_0BI@OHEJ@Align?5Centres?5In?5Column?$AA@ 00494f78     vis_ed_toolbars.obj
 0003:0000df90       ??_C@_0BA@OFD@1Align_Bottom?$CI?$CJ?$AA@ 00494f90     vis_ed_toolbars.obj
 0003:0000dfa0       ??_C@_0N@MGBI@align_bottom?$AA@ 00494fa0     vis_ed_toolbars.obj
 0003:0000dfb0       ??_C@_0O@DNLB@Align?5?$CGBottom?$AA@ 00494fb0     vis_ed_toolbars.obj
 0003:0000dfc0       ??_C@_0N@OPNC@1Align_Top?$CI?$CJ?$AA@ 00494fc0     vis_ed_toolbars.obj
 0003:0000dfd0       ??_C@_09CJBO@align_top?$AA@ 00494fd0     vis_ed_toolbars.obj
 0003:0000dfdc       ??_C@_0L@GCNC@Align?5?$CGTop?$AA@ 00494fdc     vis_ed_toolbars.obj
 0003:0000dfe8       ??_C@_0P@LHC@1Align_Right?$CI?$CJ?$AA@ 00494fe8     vis_ed_toolbars.obj
 0003:0000dff8       ??_C@_0M@MGMN@align_right?$AA@ 00494ff8     vis_ed_toolbars.obj
 0003:0000e004       ??_C@_0N@GPJG@Align?5?$CGRight?$AA@ 00495004     vis_ed_toolbars.obj
 0003:0000e014       ??_C@_0O@OPAL@1Align_Left?$CI?$CJ?$AA@ 00495014     vis_ed_toolbars.obj
 0003:0000e024       ??_C@_0L@PIFK@align_left?$AA@ 00495024     vis_ed_toolbars.obj
 0003:0000e030       ??_C@_0M@KDBB@Align?5?$CGLeft?$AA@ 00495030     vis_ed_toolbars.obj
 0003:0000e03c       ??_C@_0BG@DMDH@1stackWidgetsBottom?$CI?$CJ?$AA@ 0049503c     vis_ed_toolbars.obj
 0003:0000e054       ??_C@_0BD@IEMD@1stackWidgetsTop?$CI?$CJ?$AA@ 00495054     vis_ed_toolbars.obj
 0003:0000e068       ??_C@_0BF@GPLP@1stackWidgetsRight?$CI?$CJ?$AA@ 00495068     vis_ed_toolbars.obj
 0003:0000e080       ??_C@_0BE@CCGA@1stackWidgetsLeft?$CI?$CJ?$AA@ 00495080     vis_ed_toolbars.obj
 0003:0000e094       ??_C@_0BH@CFCH@1distributeEvenlyVer?$CI?$CJ?$AA@ 00495094     vis_ed_toolbars.obj
 0003:0000e0ac       ??_C@_0BG@HAPH@Distribute?5Vertically?$AA@ 004950ac     vis_ed_toolbars.obj
 0003:0000e0c4       ??_C@_0BH@PNJO@?$CGDistribute?5Vertically?$AA@ 004950c4     vis_ed_toolbars.obj
 0003:0000e0dc       ??_C@_0BH@IGLD@1distributeEvenlyHor?$CI?$CJ?$AA@ 004950dc     vis_ed_toolbars.obj
 0003:0000e0f4       ??_C@_0BI@MACC@Distribute?5Horizontally?$AA@ 004950f4     vis_ed_toolbars.obj
 0003:0000e10c       ??_C@_0BJ@PCBB@?$CGDistribute?5Horizontally?$AA@ 0049510c     vis_ed_toolbars.obj
 0003:0000e128       ??_C@_0P@CFGB@1doDuplicate?$CI?$CJ?$AA@ 00495128     vis_ed_toolbars.obj
 0003:0000e138       ??_C@_09JPJI@duplicate?$AA@ 00495138     vis_ed_toolbars.obj
 0003:0000e144       ??_C@_0L@OFJ@?$CGDuplicate?$AA@ 00495144     vis_ed_toolbars.obj
 0003:0000e150       ??_C@_0BE@NEME@1centreWidgetsVer?$CI?$CJ?$AA@ 00495150     vis_ed_toolbars.obj
 0003:0000e164       ??_C@_0BM@OBBM@Centre?5Vertically?5in?5Dialog?$AA@ 00495164     vis_ed_toolbars.obj
 0003:0000e180       ??_C@_0BN@KFLG@Centre?5?$CGVertically?5in?5Dialog?$AA@ 00495180     vis_ed_toolbars.obj
 0003:0000e1a0       ??_C@_0BE@HHFA@1centreWidgetsHor?$CI?$CJ?$AA@ 004951a0     vis_ed_toolbars.obj
 0003:0000e1b4       ??_C@_0BO@KKJA@Centre?5Horizontally?5in?5Dialog?$AA@ 004951b4     vis_ed_toolbars.obj
 0003:0000e1d4       ??_C@_0BP@IHMK@Centre?5?$CGHorizontally?5in?5Dialog?$AA@ 004951d4     vis_ed_toolbars.obj
 0003:0000e1f4       ??_C@_0L@MOOK@statesheet?$AA@ 004951f4     vis_ed_toolbars.obj
 0003:0000e200       ??_C@_0BC@MHI@stylesheet?4button?$AA@ 00495200     vis_ed_toolbars.obj
 0003:0000e214       ??_C@_0L@JAIA@stylesheet?$AA@ 00495214     vis_ed_toolbars.obj
 0003:0000e220       ??_C@_05HDKF@Redo?5?$AA@   00495220     vis_ed_toolbars.obj
 0003:0000e228       ??_C@_0CA@PGCC@2rectChanged?$CI?5QWidget?$CK?0?5QRect?5?$CJ?$AA@ 00495228     vis_ed_widget.obj
 0003:0000e248       ??_C@_0CG@DLFN@1dialogRectChanged?$CI?5QWidget?$CK?0?5QR@ 00495248     vis_ed_widget.obj
 0003:0000e270       ??_C@_0O@MPJJ@widgetSpacing?$AA@ 00495270     vis_ed_widget.obj
 0003:0000e280       ??_C@_0L@MKMF@Connect?5to?$AA@ 00495280     vis_ed_widget.obj
 0003:0000e28c       ??_C@_0BN@JCGN@Show?5what?5we?8re?5connected?5to?$AA@ 0049528c     vis_ed_widget.obj
 0003:0000e2ac       ??_C@_0BI@MMKA@Show?5what?5connects?5here?$AA@ 004952ac     vis_ed_widget.obj
 0003:0000e2c4       ??_C@_0BA@EKNC@?$CGRedo?5?$CF1?7Ctrl?$CLY?$AA@ 004952c4     vis_ed_widget.obj
 0003:0000e2d4       ??_C@_0BA@KMAE@?$CGUndo?5?$CF1?7Ctrl?$CLZ?$AA@ 004952d4     vis_ed_widget.obj
 0003:0000e2e4       ??_C@_09FAND@V?5Largest?$AA@ 004952e4     vis_ed_widget.obj
 0003:0000e2f0       ??_C@_0L@CANO@V?5Smallest?$AA@ 004952f0     vis_ed_widget.obj
 0003:0000e2fc       ??_C@_09OLKA@H?5Largest?$AA@ 004952fc     vis_ed_widget.obj
 0003:0000e308       ??_C@_0L@ICGF@H?5Smallest?$AA@ 00495308     vis_ed_widget.obj
 0003:0000e314       ??_C@_0P@EJKM@Centres?5In?5Row?$AA@ 00495314     vis_ed_widget.obj
 0003:0000e324       ??_C@_0BC@PGBJ@Centres?5In?5Column?$AA@ 00495324     vis_ed_widget.obj
 0003:0000e338       ??_C@_0BE@EJCN@Bottom?5Edges?7Ctrl?$CLM?$AA@ 00495338     vis_ed_widget.obj
 0003:0000e34c       ??_C@_0BB@JPMI@Top?5Edges?7Ctrl?$CLI?$AA@ 0049534c     vis_ed_widget.obj
 0003:0000e360       ??_C@_0BD@JADO@Right?5Edges?7Ctrl?$CLK?$AA@ 00495360     vis_ed_widget.obj
 0003:0000e374       ??_C@_0BC@EKND@Left?5Edges?7Ctrl?$CLJ?$AA@ 00495374     vis_ed_widget.obj
 0003:0000e388       ??_C@_0BA@KFIO@Export?5Settings?$AA@ 00495388     vis_ed_widget.obj
 0003:0000e398       ??_C@_04BBDK@Size?$AA@     00495398     vis_ed_widget.obj
 0003:0000e3a0       ??_C@_0BD@EBEN@V?5Centre?5in?5dialog?$AA@ 004953a0     vis_ed_widget.obj
 0003:0000e3b4       ??_C@_0BD@MNJG@H?5Centre?5in?5dialog?$AA@ 004953b4     vis_ed_widget.obj
 0003:0000e3c8       ??_C@_05KPPK@Align?$AA@    004953c8     vis_ed_widget.obj
 0003:0000e3d0       ??_C@_0N@HOM@Pull?5Forward?$AA@ 004953d0     vis_ed_widget.obj
 0003:0000e3e0       ??_C@_09FJHM@Push?5Back?$AA@ 004953e0     vis_ed_widget.obj
 0003:0000e3ec       ??_C@_0L@KHEG@Properties?$AA@ 004953ec     vis_ed_widget.obj
 0003:0000e3f8       ??_C@_0M@PECK@Connections?$AA@ 004953f8     vis_ed_widget.obj
 0003:0000e404       ??_C@_0BA@JOAP@Import?5Settings?$AA@ 00495404     vis_ed_widget.obj
 0003:0000e414       ??_C@_0BC@GHKJ@Select?5All?7Ctrl?$CLA?$AA@ 00495414     vis_ed_widget.obj
 0003:0000e428       ??_C@_0BB@ODGJ@2toggled?$CI?5bool?5?$CJ?$AA@ 00495428     vis_ed_widget.obj
 0003:0000e43c       ??_C@_0BE@KBFE@1setEnabled?$CI?5bool?5?$CJ?$AA@ 0049543c     vis_ed_widget.obj
 0003:0000e450       ??_C@_0BI@OGOL@Can?8t?5open?5file?5to?5save?$AA@ 00495450     vis_ed_widget.obj
 0003:0000e468       ??_C@_0BA@MMI@vis_ed_designer?$AA@ 00495468     vis_ed_widget.obj
 0003:0000e478       ??_C@_06BAFM@Ignore?$AA@   00495478     vis_ed_widget.obj
 0003:0000e480       ??_C@_06HLPO@Cancel?$AA@   00495480     vis_ed_widget.obj
 0003:0000e488       ??_C@_0L@OJGO@Overwrite?5?$AA@ 00495488     vis_ed_widget.obj
 0003:0000e494       ??_C@_09JHGB@Save?5file?$AA@ 00495494     vis_ed_widget.obj
 0003:0000e4a0       ??_C@_0BI@GBHG@BNCS?5Dialog?5?$CI?$CK?4bncs_ui?$CJ?$AA@ 004954a0     vis_ed_widget.obj
 0003:0000e4b8       ??_C@_0M@BENE@handleBlock?$AA@ 004954b8     vis_ed_widget.obj
 0003:0000e4c4       ??_C@_09BKKG@bncs_shim?$AA@ 004954c4     vis_ed_widget.obj
 0003:0000e4d0       ??_C@_06IPHN@Resize?$AA@   004954d0     vis_ed_widget.obj
 0003:0000e4d8       ??_C@_04LCOO@Move?$AA@     004954d8     vis_ed_widget.obj
 0003:0000e4e0       ??_C@_0L@HHKD@2timeout?$CI?$CJ?$AA@ 004954e0     vis_ed_widget.obj
 0003:0000e4ec       ??_C@_0BJ@DNMG@1dblClickTimer_timeout?$CI?$CJ?$AA@ 004954ec     vis_ed_widget.obj
 0003:0000e508       ??_C@_0M@JACL@editHandles?$AA@ 00495508     vis_ed_widget.obj
 0003:0000e514       ??_C@_0CA@GKCN@1rectChanged?$CI?5QWidget?$CK?0?5QRect?5?$CJ?$AA@ 00495514     vis_ed_widget.obj
 0003:0000e534       ??_C@_0CG@NNLI@Unable?5to?5create?5control?6DLL?5mis@ 00495534     vis_ed_widget.obj
 0003:0000e55c       ??_C@_0DN@HDAL@Unable?5to?5create?5control?6Dropped@ 0049555c     vis_ed_widget.obj
 0003:0000e59c       ??_C@_0BC@OHOG@?$CF1?5item?$CF2?5deleted?$AA@ 0049559c     vis_ed_widget.obj
 0003:0000e5b0       ??_C@_01KBOJ@s?$AA@        004955b0     vis_ed_widget.obj
 0003:0000e5b4       ??_C@_0CK@BBJF@?7?7?$DM?1control?$DO?6?7?$DM?1container?$DO?6?$DM?1con@ 004955b4     vis_ed_widget.obj
 0003:0000e5e0       ??_C@_0BL@POC@?7?7?7?$DMsetting?5value?$DN?$CC?$CF1?$CC?5?1?$DO?6?$AA@ 004955e0     vis_ed_widget.obj
 0003:0000e5fc       ??_C@_0II@DNG@?$DM?$DPxml?5version?$DN?$CC1?40?$CC?5?5encoding?$DN?$CCw@ 004955fc     vis_ed_widget.obj
 0003:0000e684       ??_C@_0P@FPC@Move?5x?3?$CF1?5y?3?$CF2?$AA@ 00495684     vis_ed_widget.obj
 0003:0000e694       ??_C@_0BB@BPIE@?$DM?1control_set?$DO?$AN?6?$AA@ 00495694     vis_ed_widget.obj
 0003:0000e6a8       ??_C@_0BC@IOEK@?7?$DM?1connections?$DO?$AN?6?$AA@ 004956a8     vis_ed_widget.obj
 0003:0000e6bc       ??_C@_0EO@PHBE@?7?7?$DMconnection?5sender?$DN?$CC?$CF1?$CC?5receiv@ 004956bc     vis_ed_widget.obj
 0003:0000e70c       ??_C@_0BB@DEDG@?7?$DMconnections?$DO?$AN?6?$AA@ 0049570c     vis_ed_widget.obj
 0003:0000e720       ??_C@_0BA@OFLK@?7?$DM?1container?$DO?$AN?6?$AA@ 00495720     vis_ed_widget.obj
 0003:0000e730       ??_C@_0P@PBCJ@?7?7?$DM?1control?$DO?$AN?6?$AA@ 00495730     vis_ed_widget.obj
 0003:0000e740       ??_C@_0BE@NJEG@?7?7?7?$DMsetting?5value?$DN?$CC?$AA@ 00495740     vis_ed_widget.obj
 0003:0000e754       ??_C@_0BD@LICA@?7?7?$DMcontrol?5class?$DN?$CC?$AA@ 00495754     vis_ed_widget.obj
 0003:0000e768       ??_C@_0BO@DNGA@?7?7?$DMsetting?5value?$DN?$CCscriptfile?$DN?$AA@ 00495768     vis_ed_widget.obj
 0003:0000e788       ??_C@_0BK@KEMO@?7?7?$DMsetting?5value?$DN?$CCpixmap?$DN?$AA@ 00495788     vis_ed_widget.obj
 0003:0000e7a4       ??_C@_0CF@JJLI@?7?7?$DMsetting?5value?$DN?$CCcolour?4backgro@ 004957a4     vis_ed_widget.obj
 0003:0000e7cc       ??_C@_05NJDD@?$CC?1?$DO?$AN?6?$AA@ 004957cc     vis_ed_widget.obj
 0003:0000e7d4       ??_C@_0BE@GLEL@?7?$DMcontainer?5style?$DN?$CC?$AA@ 004957d4     vis_ed_widget.obj
 0003:0000e7e8       ??_C@_08BODD@?$CC?5name?$DN?$CC?$AA@ 004957e8     vis_ed_widget.obj
 0003:0000e7f4       ??_C@_05NJGD@?$CC?5x?$DN?$CC?$AA@ 004957f4     vis_ed_widget.obj
 0003:0000e7fc       ??_C@_05ILHF@?$CC?5y?$DN?$CC?$AA@ 004957fc     vis_ed_widget.obj
 0003:0000e804       ??_C@_0N@FGMJ@?$CC?5gridSize?$DN?$CC?$AA@ 00495804     vis_ed_widget.obj
 0003:0000e814       ??_C@_0BA@KGFO@?$CC?5gridEnabled?$DN?$CC?$AA@ 00495814     vis_ed_widget.obj
 0003:0000e824       ??_C@_0BB@DFAI@?$CC?5testInstance?$DN?$CC?$AA@ 00495824     vis_ed_widget.obj
 0003:0000e838       ??_C@_0BB@PLFI@?$CC?5panelmanSize?$DN?$CC?$AA@ 00495838     vis_ed_widget.obj
 0003:0000e84c       ??_C@_0BD@IDAH@?$CC?5showTestDialog?$DN?$CC?$AA@ 0049584c     vis_ed_widget.obj
 0003:0000e860       ??_C@_04HFJ@?$CC?$DO?$AN?6?$AA@ 00495860     vis_ed_widget.obj
 0003:0000e868       ??_C@_07IOAK@caption?$AA@  00495868     vis_ed_widget.obj
 0003:0000e870       ??_C@_06BHPE@widget?$AA@   00495870     vis_ed_widget.obj
 0003:0000e878       ??_C@_0O@JMAN@?7?$DMcontainer?$DO?6?$AA@ 00495878     vis_ed_widget.obj
 0003:0000e888       ??_C@_0BA@NPAA@?$DMcontrol_set?$DO?$AN?6?$AA@ 00495888     vis_ed_widget.obj
 0003:0000e898       ??_C@_0DB@IDKA@?$DM?$DPxml?5version?$DN?$CC1?40?$CC?5?5encoding?$DN?$CCw@ 00495898     vis_ed_widget.obj
 0003:0000e8cc       ??_C@_0N@DJNH@?5?9?5completed?$AA@ 004958cc     vis_ed_widget.obj
 0003:0000e8dc       ??_C@_0M@JGOF@dialog?5size?$AA@ 004958dc     vis_ed_widget.obj
 0003:0000e8e8       ??_C@_0BC@BLNL@dialog?5properties?$AA@ 004958e8     vis_ed_widget.obj
 0003:0000e8fc       ??_C@_0BF@CPKD@manual?5size?1position?$AA@ 004958fc     vis_ed_widget.obj
 0003:0000e914       ??_C@_0L@LNHD@distribute?$AA@ 00495914     vis_ed_widget.obj
 0003:0000e920       ??_C@_06DLHJ@resize?$AA@   00495920     vis_ed_widget.obj
 0003:0000e928       ??_C@_04LLHI@size?$AA@     00495928     vis_ed_widget.obj
 0003:0000e930       ??_C@_05KLFA@align?$AA@    00495930     vis_ed_widget.obj
 0003:0000e938       ??_C@_04BIKM@move?$AA@     00495938     vis_ed_widget.obj
 0003:0000e940       ??_C@_06NLJP@Rename?$AA@   00495940     vis_ed_widget.obj
 0003:0000e948       ??_C@_06GPJL@rename?$AA@   00495948     vis_ed_widget.obj
 0003:0000e950       ??_C@_03IDPP@new?$AA@      00495950     vis_ed_widget.obj
 0003:0000e954       ??_C@_0M@LPCN@statesheet?$DN?$AA@ 00495954     vis_ed_widget.obj
 0003:0000e960       ??_C@_0M@EKHD@stylesheet?$DN?$AA@ 00495960     vis_ed_widget.obj
 0003:0000e96c       ??_C@_09BOMD@reset?$DNnow?$AA@ 0049596c     vis_ed_widget.obj
 0003:0000e978       ??_C@_0L@FFHF@return?$DNall?$AA@ 00495978     vis_ed_widget.obj
 0003:0000e984       ??_C@_0M@GNFP@Dialog?5Size?$AA@ 00495984     vis_ed_widget.obj
 0003:0000e990       ??_C@_0CL@BCKF@This?5control?5does?5not?5have?5prope@ 00495990     vis_ed_widget.obj
 0003:0000e9bc       ??_C@_0BI@LODL@1edit?$CI?5bool?5?$CK?0?5bool?5?$CK?5?$CJ?$AA@ 004959bc     vis_ed_widget.obj
 0003:0000e9d4       ??_C@_0BI@JKFE@2edit?$CI?5bool?5?$CK?0?5bool?5?$CK?5?$CJ?$AA@ 004959d4     vis_ed_widget.obj
 0003:0000e9ec       ??_C@_0L@OLHA@?1instance?$DN?$AA@ 004959ec     vis_ed_widget.obj
 0003:0000e9f8       ??_C@_06EMBK@?1load?$DN?$AA@ 004959f8     vis_ed_widget.obj
 0003:0000ea00       ??_C@_08JEPO@?1size?$DN?$CF1?$AA@ 00495a00     vis_ed_widget.obj
 0003:0000ea0c       ??_C@_0BD@FMIL@Test?5settings?5for?5?$AA@ 00495a0c     vis_ed_widget.obj
 0003:0000ea20       ??_C@_0FI@FPBJ@Please?5ensure?5that?5the?5directory@ 00495a20     vis_ed_widget.obj
 0003:0000ea78       ??_C@_0CP@MHLJ@?5does?5not?5contain?5a?5panel?5in?5a?5s@ 00495a78     vis_ed_widget.obj
 0003:0000eaa8       ??_C@_0CP@HDHM@?5does?5not?5contain?5a?5panel?5in?5the@ 00495aa8     vis_ed_widget.obj
 0003:0000ead8       ??_C@_0CH@MJOE@?4?6Please?5ensure?5that?5the?5panel?5e@ 00495ad8     vis_ed_widget.obj
 0003:0000eb00       ??_C@_0DM@GALH@?4?6Please?5ensure?5that?5panelman?5ex@ 00495b00     vis_ed_widget.obj
 0003:0000eb3c       ??_C@_0O@LAAO@Can?5not?5find?5?$AA@ 00495b3c     vis_ed_widget.obj
 0003:0000eb4c       ??_C@_0BK@CBEP@?2windows?2bin?2panelman?4exe?$AA@ 00495b4c     vis_ed_widget.obj
 0003:0000eb68       ??_C@_0MG@POCA@?$DMp?$DOThe?5number?5of?5objects?5on?5this@ 00495b68     vis_ed_widget.obj
 0003:0000ec30       ??_C@_0N@HOFF@Object?5Count?$AA@ 00495c30     vis_ed_widget.obj
 0003:0000ec40       ??_C@_08MMNH@showGrid?$AA@ 00495c40     vis_ed_widget.obj
 0003:0000ec4c       ??_C@_0L@EFDK@Distribute?$AA@ 00495c4c     vis_ed_widget.obj
 0003:0000ec58       ??_C@_09JLM@NO?5EXTENT?$AA@ 00495c58     vis_ed_widget.obj
 0003:0000ec64       ??_C@_0EH@BFIC@A?5control?5called?5?$CF1?5already?5exis@ 00495c64     vis_ed_widget.obj
 0003:0000ecac       ??_C@_0N@IGAO@____temp____?$AA@ 00495cac     vis_ed_widget.obj
 0003:0000ecbc       ??_C@_0M@LFJN@CC?5Vis?4?5Ed?4?$AA@ 00495cbc     vis_ed_widget.obj
 0003:0000ecc8       ??_C@_0CO@EJG@Could?5not?5start?5?$CIexternal?$CJ?5wizar@ 00495cc8     vis_ed_widget.obj
 0003:0000ecf8       ??_C@_0BB@FAKK@2processExited?$CI?$CJ?$AA@ 00495cf8     vis_ed_widget.obj
 0003:0000ed0c       ??_C@_0BE@ILIM@1wizProcessExited?$CI?$CJ?$AA@ 00495d0c     vis_ed_widget.obj
 0003:0000ed20       ??_C@_07KNEH@?1panel?$DN?$AA@ 00495d20     vis_ed_widget.obj
 0003:0000ed28       ??_C@_09BBPD@?1project?$DN?$AA@ 00495d28     vis_ed_widget.obj
 0003:0000ed34       ??_C@_06OOFE@?1path?$DN?$AA@ 00495d34     vis_ed_widget.obj
 0003:0000ed3c       ??_C@_0CE@DIOF@?1key?$DNCreate?5C?$CL?$CL?5Scripted?5UI?5?1?5Pa@ 00495d3c     vis_ed_widget.obj
 0003:0000ed60       ??_C@_08MAGH@?2wiz?4exe?$AA@ 00495d60     vis_ed_widget.obj
 0003:0000ed6c       ??_C@_0BB@PGPP@?2windows?2bin?2wiz?$AA@ 00495d6c     vis_ed_widget.obj
 0003:0000ed80       ??_C@_0BA@CIFO@Create?5Project?$DP?$AA@ 00495d80     vis_ed_widget.obj
 0003:0000ed90       ??_C@_0FE@IEG@A?5Visual?5Studio?5project?5does?5not@ 00495d90     vis_ed_widget.obj
 0003:0000ede4       ??_C@_0BJ@PCMK@?$CK?4dsp?$DL?$CK?4vcproj?$DL?$CK?4vcxproj?$AA@ 00495de4     vis_ed_widget.obj
 0003:0000ee00       ??_C@_0M@JMDM@?$CK?4dsw?$DL?$CK?4sln?$AA@ 00495e00     vis_ed_widget.obj
 0003:0000ee0c       ??_C@_0DO@GGKB@Select?5exactly?5one?5script?5contro@ 00495e0c     vis_ed_widget.obj
 0003:0000ee4c       ??_C@_0DG@MOCJ@Select?5one?5script?5control?5to?5ope@ 00495e4c     vis_ed_widget.obj
 0003:0000ee84       ??_C@_0L@COOD@scriptname?$AA@ 00495e84     vis_ed_widget.obj
 0003:0000ee90       ??_C@_0DP@EKHJ@Select?5exactly?5one?5script?5contro@ 00495e90     vis_ed_widget.obj
 0003:0000eed0       ??_C@_0DH@MDNB@Select?5one?5script?5control?5to?5ope@ 00495ed0     vis_ed_widget.obj
 0003:0000ef08       ??_C@_0DN@FNNH@No?5Visual?5Studio?5project?5file?5fo@ 00495f08     vis_ed_widget.obj
 0003:0000ef48       ??_C@_0BD@LHGP@b?3?5trying?5to?5open?5?$AA@ 00495f48     vis_ed_widget.obj
 0003:0000ef5c       ??_C@_0BO@FBFG@A?5sharing?5violation?5occurred?4?$AA@ 00495f5c     vis_ed_widget.obj
 0003:0000ef7c       ??_C@_0DH@KNOI@There?5was?5not?5enough?5memory?5to?5c@ 00495f7c     vis_ed_widget.obj
 0003:0000efb4       ??_C@_0JP@NCKJ@There?5is?5no?5application?5associat@ 00495fb4     vis_ed_widget.obj
 0003:0000f054       ??_C@_0DI@GIBB@The?5specified?5dynamic?9link?5libra@ 00496054     vis_ed_widget.obj
 0003:0000f08c       ??_C@_0EK@DFFE@The?5DDE?5transaction?5could?5not?5be@ 0049608c     vis_ed_widget.obj
 0003:0000f0d8       ??_C@_0BM@GJBG@The?5DDE?5transaction?5failed?4?$AA@ 004960d8     vis_ed_widget.obj
 0003:0000f0f4       ??_C@_0HI@IKGE@The?5Dynamic?5Data?5Exchange?5?$CIDDE?$CJ?5@ 004960f4     vis_ed_widget.obj
 0003:0000f16c       ??_C@_0DE@EHKB@The?5file?5name?5association?5is?5inc@ 0049616c     vis_ed_widget.obj
 0003:0000f1a0       ??_C@_0DK@PPLL@The?5operating?5system?5denied?5acce@ 004961a0     vis_ed_widget.obj
 0003:0000f1dc       ??_C@_0EO@JGKO@The?5?4?$DLexe?5file?5is?5invalid?5?$CInon?9M@ 004961dc     vis_ed_widget.obj
 0003:0000f22c       ??_C@_0CC@LDED@The?5specified?5path?5was?5not?5found@ 0049622c     vis_ed_widget.obj
 0003:0000f250       ??_C@_0CC@LCAO@The?5specified?5file?5was?5not?5found@ 00496250     vis_ed_widget.obj
 0003:0000f274       ??_C@_0L@LHHO@openShell?5?$AA@ 00496274     vis_ed_widget.obj
 0003:0000f280       ??_C@_0DN@IBEP@May?5only?5edit?5one?5widget?5at?5a?5ti@ 00496280     vis_ed_widget.obj
 0003:0000f2c0       ??_C@_03FOCL@?$CF1?$DN?$AA@ 004962c0     vis_ed_widget.obj
 0003:0000f2c4       ??_C@_05NGOJ@reset?$AA@    004962c4     vis_ed_widget.obj
 0003:0000f2cc       ??_C@_06CGBH@return?$AA@   004962cc     vis_ed_widget.obj
 0003:0000f2d4       ??_C@_05CAIB@?$CF1?$DN?$CF2?$AA@ 004962d4     vis_ed_widget.obj
 0003:0000f2dc       ??_C@_09BJEJ@return?$DN?$CF1?$AA@ 004962dc     vis_ed_widget.obj
 0003:0000f2e8       ??_C@_0DL@NMOP@Select?5exactly?5one?5control?5to?5op@ 004962e8     vis_ed_widget.obj
 0003:0000f324       ??_C@_0BD@NOP@stylesheet?4button?$DN?$AA@ 00496324     vis_ed_widget.obj
 0003:0000f338       ??_C@_0BJ@HNOO@return?$DNstylesheet?4button?$AA@ 00496338     vis_ed_widget.obj
 0003:0000f354       ??_C@_0BC@LPG@return?$DNstatesheet?$AA@ 00496354     vis_ed_widget.obj
 0003:0000f368       ??_C@_0BC@FFJM@return?$DNstylesheet?$AA@ 00496368     vis_ed_widget.obj
 0003:0000f37c       ??_C@_0DB@PBON@2showStylesheetBrowser?$CI?5bool?5?$CK?0?5@ 0049637c     vis_ed_widget.obj
 0003:0000f3b0       ??_C@_0CM@EJOD@1showStyleBrowser?$CI?5bool?5?$CK?0?5const@ 004963b0     vis_ed_widget.obj
 0003:0000f3dc       ??_C@_0CH@BKOM@Position?1Size?3?5?$CF1?3?5x?3?$CF2?5y?3?$CF3?5w?3?$CF@ 004963dc     vis_ed_widget.obj
 0003:0000f404       ??_C@_0L@CIOO@height?5?$CF1?5?$AA@ 00496404     vis_ed_widget.obj
 0003:0000f410       ??_C@_09KPOC@width?5?$CF1?5?$AA@ 00496410     vis_ed_widget.obj
 0003:0000f41c       ??_C@_05KHMO@y?5?$CF1?5?$AA@ 0049641c     vis_ed_widget.obj
 0003:0000f424       ??_C@_05HOL@x?5?$CF1?5?$AA@ 00496424     vis_ed_widget.obj
 0003:0000f42c       ??_C@_0L@LBNJ@?$DMmultiple?$DO?$AA@ 0049642c     vis_ed_widget.obj
 0003:0000f438       ??_C@_0DF@IJOI@vis_ed_widget?3?3isPasteWidgetAvai@ 00496438     vis_ed_widget.obj
 0003:0000f470       ??_C@_0DH@FCNC@vis_ed_widget?3?3isPasteSettingsAv@ 00496470     vis_ed_widget.obj
 0003:0000f4a8       ??_C@_0EM@EHAH@It?8s?5too?5hard?5to?5export?5data?5fro@ 004964a8     vis_ed_widget.obj
 0003:0000f4f4       ??_C@_04NJLH@Oops?$AA@     004964f4     vis_ed_widget.obj
 0003:0000f4fc       ??_C@_0M@PHPE@null?5widget?$AA@ 004964fc     vis_ed_widget.obj
 0003:0000f508       ??_C@_0BN@OPMF@Didn?8t?5find?5widget?5of?5name?3?5?$AA@ 00496508     vis_ed_widget.obj
 0003:0000f528       ??_C@_05HEKL@?$CF1?5?$CF1?$AA@ 00496528     xml_listview.obj
 0003:0000f530       ??_C@_0N@POHM@TextLabel1_2?$AA@ 00496530     device_list_edit.obj
 0003:0000f540       ??_C@_09GJEP@ComboBox1?$AA@ 00496540     device_list_edit.obj
 0003:0000f54c       ??_C@_0N@FEOL@TextLabel1_3?$AA@ 0049654c     device_list_edit.obj
 0003:0000f55c       ??_C@_09JGPG@ComboBox2?$AA@ 0049655c     device_list_edit.obj
 0003:0000f568       ??_C@_09CMCC@LineEdit1?$AA@ 00496568     device_list_edit.obj
 0003:0000f574       ??_C@_0L@FMOO@TextLabel1?$AA@ 00496574     device_list_edit.obj
 0003:0000f580       ??_C@_06PLOF@Frame3?$AA@   00496580     device_list_edit.obj
 0003:0000f588       ??_C@_0BF@DBFD@device_list_editBase?$AA@ 00496588     device_list_edit.obj
 0003:0000f5a0       ??_C@_0BB@OKMM@device_list_edit?$AA@ 004965a0     device_list_edit.obj
 0003:0000f5b4       ??_C@_07JCGN@layout1?$AA@  004965b4     dialogedit.obj
 0003:0000f5bc       ??_C@_0L@FLBO@textLabel2?$AA@ 004965bc     dialogedit.obj
 0003:0000f5c8       ??_C@_0P@GMPJ@showTestDialog?$AA@ 004965c8     dialogedit.obj
 0003:0000f5d8       ??_C@_0N@GELA@buttonGroup3?$AA@ 004965d8     dialogedit.obj
 0003:0000f5e8       ??_C@_05OLF@label?$AA@     004965e8     dialogedit.obj
 0003:0000f5f0       ??_C@_0M@PMNC@gridEnabled?$AA@ 004965f0     dialogedit.obj
 0003:0000f5fc       ??_C@_0P@NPKK@buttonGroup9_2?$AA@ 004965fc     dialogedit.obj
 0003:0000f60c       ??_C@_0O@DOAH@style_caption?$AA@ 0049660c     dialogedit.obj
 0003:0000f61c       ??_C@_0N@OGDA@style_dialog?$AA@ 0049661c     dialogedit.obj
 0003:0000f62c       ??_C@_0N@BKIO@style_widget?$AA@ 0049662c     dialogedit.obj
 0003:0000f63c       ??_C@_0N@GFCG@buttonGroup9?$AA@ 0049663c     dialogedit.obj
 0003:0000f64c       ??_C@_0L@HFPI@geometry_h?$AA@ 0049664c     dialogedit.obj
 0003:0000f658       ??_C@_0P@MLPB@textLabel2_3_4?$AA@ 00496658     dialogedit.obj
 0003:0000f668       ??_C@_0L@NNNF@geometry_w?$AA@ 00496668     dialogedit.obj
 0003:0000f674       ??_C@_0P@JOBE@textLabel2_3_3?$AA@ 00496674     dialogedit.obj
 0003:0000f684       ??_C@_0L@HGBP@geometry_y?$AA@ 00496684     dialogedit.obj
 0003:0000f690       ??_C@_0P@DEID@textLabel2_3_2?$AA@ 00496690     dialogedit.obj
 0003:0000f6a0       ??_C@_0L@NMII@geometry_x?$AA@ 004966a0     dialogedit.obj
 0003:0000f6ac       ??_C@_0N@BPIB@textLabel2_3?$AA@ 004966ac     dialogedit.obj
 0003:0000f6bc       ??_C@_0M@PPHL@groupBox1_3?$AA@ 004966bc     dialogedit.obj
 0003:0000f6c8       ??_C@_0BF@FJBN@dialogeditBaseLayout?$AA@ 004966c8     dialogedit.obj
 0003:0000f6e0       ??_C@_0P@EKCO@dialogeditBase?$AA@ 004966e0     dialogedit.obj
 0003:0000f6f0       ??_C@_05EHKB@Alt?$CLC?$AA@ 004966f0     dialogedit.obj
 0003:0000f6f8       ??_C@_08ICOJ@Instance?$AA@ 004966f8     dialogedit.obj
 0003:0000f704       ??_C@_0BB@HAHC@Show?5Test?5Dialog?$AA@ 00496704     dialogedit.obj
 0003:0000f718       ??_C@_04JDHC@Test?$AA@     00496718     dialogedit.obj
 0003:0000f720       ??_C@_05LDNL@Pitch?$AA@    00496720     dialogedit.obj
 0003:0000f728       ??_C@_07FFME@Enabled?$AA@  00496728     dialogedit.obj
 0003:0000f730       ??_C@_07FMLO@Caption?$AA@  00496730     dialogedit.obj
 0003:0000f738       ??_C@_06FPEO@Dialog?$AA@   00496738     dialogedit.obj
 0003:0000f740       ??_C@_06KDPA@Widget?$AA@   00496740     dialogedit.obj
 0003:0000f748       ??_C@_06FOPC@Height?$AA@   00496748     dialogedit.obj
 0003:0000f750       ??_C@_05PJLH@Width?$AA@    00496750     dialogedit.obj
 0003:0000f758       ??_C@_05KOJD@Y?5Pos?$AA@   00496758     dialogedit.obj
 0003:0000f760       ??_C@_05OLG@X?5Pos?$AA@    00496760     dialogedit.obj
 0003:0000f768       ??_C@_08NNJN@Geometry?$AA@ 00496768     dialogedit.obj
 0003:0000f774       ??_C@_0BH@BGOC@Edit?5Dialog?5Properties?$AA@ 00496774     dialogedit.obj
 0003:0000f78c       ??_C@_04GFDO@vert?$AA@     0049678c     duplicatedlg.obj
 0003:0000f794       ??_C@_04NNAL@rows?$AA@     00496794     duplicatedlg.obj
 0003:0000f79c       ??_C@_04EJHK@cols?$AA@     0049679c     duplicatedlg.obj
 0003:0000f7a4       ??_C@_0P@IGPK@textLabel1_2_2?$AA@ 004967a4     duplicatedlg.obj
 0003:0000f7b4       ??_C@_07ENJI@spacing?$AA@  004967b4     duplicatedlg.obj
 0003:0000f7bc       ??_C@_07JCKG@layout4?$AA@  004967bc     duplicatedlg.obj
 0003:0000f7c4       ??_C@_07MHII@layout6?$AA@  004967c4     duplicatedlg.obj
 0003:0000f7cc       ??_C@_0BH@DLEI@duplicateDlgBaseLayout?$AA@ 004967cc     duplicatedlg.obj
 0003:0000f7e4       ??_C@_0BB@GKIF@duplicateDlgBase?$AA@ 004967e4     duplicatedlg.obj
 0003:0000f7f8       ??_C@_0BCF@EPDB@?$DMp?$DOOrdinarily?5buttons?5are?5genera@ 004967f8     duplicatedlg.obj
 0003:0000f920       ??_C@_0CL@KFOH@Duplicate?5Vertically?5?$CIchanges?5ID@ 00496920     duplicatedlg.obj
 0003:0000f94c       ??_C@_07JPCM@Spacing?$AA@  0049694c     duplicatedlg.obj
 0003:0000f954       ??_C@_0MC@MHJN@?$DMp?$DO?$DMb?$DONote?3?$DM?1b?$DO?5With?5the?5Grid?5tu@ 00496954     duplicatedlg.obj
 0003:0000fa18       ??_C@_04ODDI@Cols?$AA@     00496a18     duplicatedlg.obj
 0003:0000fa20       ??_C@_04HHEJ@Rows?$AA@     00496a20     duplicatedlg.obj
 0003:0000fa28       ??_C@_0BE@POLA@Duplicate?5Widget?$CIs?$CJ?$AA@ 00496a28     duplicatedlg.obj
 0003:0000fa3c       ??_C@_0L@JDFH@buttonHelp?$AA@ 00496a3c     file_new.obj
 0003:0000fa48       ??_C@_09JALH@IconView1?$AA@ 00496a48     file_new.obj
 0003:0000fa54       ??_C@_0BD@LGHO@file_newBaseLayout?$AA@ 00496a54     file_new.obj
 0003:0000fa68       ??_C@_0N@EIFB@file_newBase?$AA@ 00496a68     file_new.obj
 0003:0000fa78       ??_C@_0N@MKBL@New?5File?4?4?4?4?$AA@ 00496a78     file_new.obj
 0003:0000fa88       ??_C@_09GMEI@btnCancel?$AA@ 00496a88     globalstyledlg.obj
 0003:0000fa94       ??_C@_05OKCC@btnOk?$AA@    00496a94     globalstyledlg.obj
 0003:0000fa9c       ??_C@_0L@CEBA@cbFontSize?$AA@ 00496a9c     globalstyledlg.obj
 0003:0000faa8       ??_C@_09FLEK@groupBox6?$AA@ 00496aa8     globalstyledlg.obj
 0003:0000fab4       ??_C@_0L@JIMJ@cbFontFace?$AA@ 00496ab4     globalstyledlg.obj
 0003:0000fac0       ??_C@_0BB@MLAC@GroupBoxFontFace?$AA@ 00496ac0     globalstyledlg.obj
 0003:0000fad4       ??_C@_09PBBG@groupBox2?$AA@ 00496ad4     globalstyledlg.obj
 0003:0000fae0       ??_C@_0BF@MFDC@cbUseDefaultBgColour?$AA@ 00496ae0     globalstyledlg.obj
 0003:0000faf8       ??_C@_0BE@FAIB@btnColourBackground?$AA@ 00496af8     globalstyledlg.obj
 0003:0000fb0c       ??_C@_0BI@OPJG@groupBoxBackgroundColor?$AA@ 00496b0c     globalstyledlg.obj
 0003:0000fb24       ??_C@_0BC@KDBO@cbBackgroundImage?$AA@ 00496b24     globalstyledlg.obj
 0003:0000fb38       ??_C@_0BI@CHGK@groupBoxBackgroundImage?$AA@ 00496b38     globalstyledlg.obj
 0003:0000fb50       ??_C@_07GFLL@cbStyle?$AA@  00496b50     globalstyledlg.obj
 0003:0000fb58       ??_C@_0BD@GPHK@cbUseStyleInEditor?$AA@ 00496b58     globalstyledlg.obj
 0003:0000fb6c       ??_C@_0O@GGND@groupBoxStyle?$AA@ 00496b6c     globalstyledlg.obj
 0003:0000fb7c       ??_C@_0BJ@HFDF@globalstyleDlgBaseLayout?$AA@ 00496b7c     globalstyledlg.obj
 0003:0000fb98       ??_C@_0BD@HAPK@globalstyleDlgBase?$AA@ 00496b98     globalstyledlg.obj
 0003:0000fbac       ??_C@_09IJGC@Font?5Size?$AA@ 00496bac     globalstyledlg.obj
 0003:0000fbb8       ??_C@_04KNOD@Face?$AA@     00496bb8     globalstyledlg.obj
 0003:0000fbc0       ??_C@_0M@GGPO@Use?5default?$AA@ 00496bc0     globalstyledlg.obj
 0003:0000fbcc       ??_C@_0L@IFAL@?$CGColour?4?4?4?$AA@ 00496bcc     globalstyledlg.obj
 0003:0000fbd8       ??_C@_0BC@EDIM@Background?5Colour?$AA@ 00496bd8     globalstyledlg.obj
 0003:0000fbec       ??_C@_0BB@GPLK@Background?5Image?$AA@ 00496bec     globalstyledlg.obj
 0003:0000fc00       ??_C@_0BE@PPOD@Use?5style?5in?5editor?$AA@ 00496c00     globalstyledlg.obj
 0003:0000fc14       ??_C@_0BF@HCGO@Global?5Style?5Browser?$AA@ 00496c14     globalstyledlg.obj
 0003:0000fc2c       ??_C@_0BD@IKMO@Control?5?9?9?5Setting?$AA@ 00496c2c     importsettings.obj
 0003:0000fc40       ??_C@_08BNLA@settings?$AA@ 00496c40     importsettings.obj
 0003:0000fc4c       ??_C@_0BJ@GNIC@importSettingsBaseLayout?$AA@ 00496c4c     importsettings.obj
 0003:0000fc68       ??_C@_0BD@JKC@importSettingsBase?$AA@ 00496c68     importsettings.obj
 0003:0000fc7c       ??_C@_0BJ@FJOA@manualSettingsBaseLayout?$AA@ 00496c7c     manualsettings.obj
 0003:0000fc98       ??_C@_0BD@DLFI@manualSettingsBase?$AA@ 00496c98     manualsettings.obj
 0003:0000fcac       ??_C@_0FK@GKEB@Enter?5settings?5?9?5one?5line?5per?5en@ 00496cac     manualsettings.obj
 0003:0000fd08       ??_C@_0CN@BNJL@Apply?5Settings?5Manually?5To?5Selec@ 00496d08     manualsettings.obj
 0003:0000fd38       ??_C@_09OEEO@newline?$CI?$CJ?$AA@ 00496d38     moc_device_list.obj
 0003:0000fd44       ??_C@_08KKJJ@revert?$CI?$CJ?$AA@ 00496d44     moc_device_list.obj
 0003:0000fd50       ??_C@_06MHMJ@undo?$CI?$CJ?$AA@ 00496d50     moc_device_list.obj
 0003:0000fd58       ??_C@_05BAOP@del?$CI?$CJ?$AA@ 00496d58     moc_device_list.obj
 0003:0000fd60       ??_C@_07BHLL@paste?$CI?$CJ?$AA@ 00496d60     moc_device_list.obj
 0003:0000fd68       ??_C@_05JEOL@cut?$CI?$CJ?$AA@ 00496d68     moc_device_list.obj
 0003:0000fd70       ??_C@_0L@PJDP@copy?$CIbool?$CJ?$AA@ 00496d70     moc_device_list.obj
 0003:0000fd7c       ??_C@_06ENFK@copy?$CI?$CJ?$AA@ 00496d7c     moc_device_list.obj
 0003:0000fd84       ??_C@_0BO@CNJB@doubleClicked?$CIQListViewItem?$CK?$CJ?$AA@ 00496d84     moc_device_list.obj
 0003:0000fda4       ??_C@_0DH@MJIJ@contextMenuRequested?$CIQListViewIt@ 00496da4     moc_device_list.obj
 0003:0000fddc       ??_C@_07JKAE@newline?$AA@  00496ddc     moc_device_list.obj
 0003:0000fde4       ??_C@_06OFDP@revert?$AA@   00496de4     moc_device_list.obj
 0003:0000fdec       ??_C@_03LFBG@del?$AA@      00496dec     moc_device_list.obj
 0003:0000fdf0       ??_C@_0O@DCDE@doubleClicked?$AA@ 00496df0     moc_device_list.obj
 0003:0000fe00       ??_C@_0BF@HMMN@contextMenuRequested?$AA@ 00496e00     moc_device_list.obj
 0003:0000fe18       ??_C@_01KLMK@?$AO?$AA@     00496e18     moc_device_list.obj
 0003:0000fe1c       ??_C@_0O@GBOH@QListViewItem?$AA@ 00496e1c     moc_device_list.obj
 0003:0000fe2c       ??_C@_0BB@MOGM@languageChange?$CI?$CJ?$AA@ 00496e2c     moc_device_list_edit.obj
 0003:0000fe40       ??_C@_0P@COD@languageChange?$AA@ 00496e40     moc_device_list_edit.obj
 0003:0000fe50       ??_C@_0BK@CBBD@startDrag?$CIQListViewItem?$CK?$CJ?$AA@ 00496e50     moc_deviceTypeListView.obj
 0003:0000fe6c       ??_C@_09CGCF@startDrag?$AA@ 00496e6c     moc_deviceTypeListView.obj
 0003:0000fe88       ??_C@_02JJAG@li?$AA@       00496e88     moc_deviceTypeListView.obj
 0003:0000fe8c       ??_C@_0BD@BLHK@deviceTypeListView?$AA@ 00496e8c     moc_deviceTypeListView.obj
 0003:0000fea0       ??_C@_0CC@BHBJ@comboBoxesMessage?$CIconst?5QString?$CG@ 00496ea0     moc_dialog.obj
 0003:0000fec4       ??_C@_0BC@JDIG@caption?$CIQString?$CG?$CJ?$AA@ 00496ec4     moc_dialog.obj
 0003:0000fed8       ??_C@_08NMFH@saveas?$CI?$CJ?$AA@ 00496ed8     moc_dialog.obj
 0003:0000fee4       ??_C@_06PAME@save?$CI?$CJ?$AA@ 00496ee4     moc_dialog.obj
 0003:0000feec       ??_C@_0BK@IPEA@windowActivated?$CIQWidget?$CK?$CJ?$AA@ 00496eec     moc_dialog.obj
 0003:0000ff08       ??_C@_0BC@FGNI@comboBoxesMessage?$AA@ 00496f08     moc_dialog.obj
 0003:0000ff40       ??_C@_03MBOC@msg?$AA@      00496f40     moc_dialog.obj
 0003:0000ff44       ??_C@_06PELJ@saveas?$AA@   00496f44     moc_dialog.obj
 0003:0000ff4c       ??_C@_04MEDD@save?$AA@     00496f4c     moc_dialog.obj
 0003:0000ff54       ??_C@_0BA@LHDN@windowActivated?$AA@ 00496f54     moc_dialog.obj
 0003:0000ff64       ??_C@_07MBFH@QWidget?$AA@  00496f64     moc_dialog.obj
 0003:0000ff6c       ??_C@_0L@NODO@dialogedit?$AA@ 00496f6c     moc_dialogeditimpl.obj
 0003:0000ff78       ??_C@_0N@CKLB@duplicateDlg?$AA@ 00496f78     moc_duplicatedlgimpl.obj
 0003:0000ff88       ??_C@_0CB@CFOC@statusBarMessage?$CIconst?5QString?$CG?$CJ@ 00496f88     moc_editHandles.obj
 0003:0000ffac       ??_C@_0BM@DCPK@rectChanged?$CIQWidget?$CK?0QRect?$CJ?$AA@ 00496fac     moc_editHandles.obj
 0003:0000ffc8       ??_C@_0BB@DALA@statusBarMessage?$AA@ 00496fc8     moc_editHandles.obj
 0003:0000fff0       ??_C@_0M@BACG@rectChanged?$AA@ 00496ff0     moc_editHandles.obj
 0003:0000fffc       ??_C@_01FELI@?$AI?$AA@     00496ffc     moc_editHandles.obj
 0003:00010000       ??_C@_08GHNB@doHelp?$CI?$CJ?$AA@ 00497000     moc_file_new_imp.obj
 0003:0001000c       ??_C@_0BO@KPK@doubleClicked?$CIQIconViewItem?$CK?$CJ?$AA@ 0049700c     moc_file_new_imp.obj
 0003:0001002c       ??_C@_06ILNM@doHelp?$AA@   0049702c     moc_file_new_imp.obj
 0003:00010034       ??_C@_0O@DFKK@QIconViewItem?$AA@ 00497034     moc_file_new_imp.obj
 0003:00010044       ??_C@_0BO@NDFJ@defaultBgColourSelected?$CIbool?$CJ?$AA@ 00497044     moc_globalstyledlgimpl.obj
 0003:00010064       ??_C@_0BJ@NAFL@backgroundColourPicker?$CI?$CJ?$AA@ 00497064     moc_globalstyledlgimpl.obj
 0003:00010080       ??_C@_0BI@LMKN@defaultBgColourSelected?$AA@ 00497080     moc_globalstyledlgimpl.obj
 0003:000100a8       ??_C@_08OMMF@selected?$AA@ 004970a8     moc_globalstyledlgimpl.obj
 0003:000100b4       ??_C@_0BH@GEGJ@backgroundColourPicker?$AA@ 004970b4     moc_globalstyledlgimpl.obj
 0003:000100cc       ??_C@_0P@PIGM@globalStyleDlg?$AA@ 004970cc     moc_globalstyledlgimpl.obj
 0003:000100dc       ??_C@_0P@DAJM@objectViewBase?$AA@ 004970dc     moc_objectview.obj
 0003:000100ec       ??_C@_0CK@PNKH@itemRename?$CIconst?5QString?$CG?0const?5@ 004970ec     moc_objectviewimpl.obj
 0003:00010118       ??_C@_0BN@KIBM@itemSelected?$CIconst?5QString?$CG?$CJ?$AA@ 00497118     moc_objectviewimpl.obj
 0003:00010138       ??_C@_0L@CFGJ@itemRename?$AA@ 00497138     moc_objectviewimpl.obj
 0003:00010144       ??_C@_0N@GGKH@itemSelected?$AA@ 00497144     moc_objectviewimpl.obj
 0003:00010154       ??_C@_0CB@JC@itemDoubleClicked?$CIQListBoxItem?$CK?$CJ@ 00497154     moc_objectviewimpl.obj
 0003:00010178       ??_C@_0BP@KMND@itemHighlighted?$CIQListBoxItem?$CK?$CJ?$AA@ 00497178     moc_objectviewimpl.obj
 0003:00010198       ??_C@_0BC@BMOE@itemDoubleClicked?$AA@ 00497198     moc_objectviewimpl.obj
 0003:000101d0       ??_C@_0BA@FAAO@itemHighlighted?$AA@ 004971d0     moc_objectviewimpl.obj
 0003:000101e0       ??_C@_0L@LEFM@objectView?$AA@ 004971e0     moc_objectviewimpl.obj
 0003:000101ec       ??_C@_0N@HCCJ@QListBoxItem?$AA@ 004971ec     moc_objectviewimpl.obj
 0003:000101fc       ??_C@_0BI@OEHM@message?$CIconst?5QString?$CG?$CJ?$AA@ 004971fc     moc_pasteTable.obj
 0003:00010214       ??_C@_0P@MILJ@canPaste?$CIbool?$CJ?$AA@ 00497214     moc_pasteTable.obj
 0003:00010224       ??_C@_07NPGL@message?$AA@  00497224     moc_pasteTable.obj
 0003:00010250       ??_C@_08PLCE@canPaste?$AA@ 00497250     moc_pasteTable.obj
 0003:0001025c       ??_C@_05IKAE@valid?$AA@    0049725c     moc_pasteTable.obj
 0003:00010264       ??_C@_0BH@PJBL@clipboardDataChanged?$CI?$CJ?$AA@ 00497264     moc_pasteTable.obj
 0003:0001027c       ??_C@_0BF@DHEG@clipboardDataChanged?$AA@ 0049727c     moc_pasteTable.obj
 0003:00010294       ??_C@_0L@NGBI@pasteTable?$AA@ 00497294     moc_pasteTable.obj
 0003:000102a0       ??_C@_0CH@BCAK@byTypeSelectionChanged?$CIQListView@ 004972a0     moc_pickbox.obj
 0003:000102c8       ??_C@_0CH@PPAA@byNameSelectionChanged?$CIQListView@ 004972c8     moc_pickbox.obj
 0003:000102f0       ??_C@_0BH@MMGP@byTypeSelectionChanged?$AA@ 004972f0     moc_pickbox.obj
 0003:00010318       ??_C@_0BH@MILF@byNameSelectionChanged?$AA@ 00497318     moc_pickbox.obj
 0003:00010330       ??_C@_07OOFG@pickbox?$AA@  00497330     moc_pickbox.obj
 0003:00010338       ??_C@_0BF@BAFD@withSlotSetClicked?$CI?$CJ?$AA@ 00497338     moc_pickbox_paramlist.obj
 0003:00010350       ??_C@_0BD@FECM@withLabelClicked?$CI?$CJ?$AA@ 00497350     moc_pickbox_paramlist.obj
 0003:00010364       ??_C@_07FLME@clear?$CI?$CJ?$AA@ 00497364     moc_pickbox_paramlist.obj
 0003:0001036c       ??_C@_0BD@CFKO@withSlotSetClicked?$AA@ 0049736c     moc_pickbox_paramlist.obj
 0003:00010380       ??_C@_0BB@CMBA@withLabelClicked?$AA@ 00497380     moc_pickbox_paramlist.obj
 0003:00010394       ??_C@_05BDJO@clear?$AA@    00497394     moc_pickbox_paramlist.obj
 0003:000103b0       ??_C@_0BC@MBBO@pickbox_paramlist?$AA@ 004973b0     moc_pickbox_paramlist.obj
 0003:000103c4       ??_C@_0BI@NOLC@signalConnectionListDlg?$AA@ 004973c4     moc_signalConnectionListDlg.obj
 0003:000103dc       ??_C@_0L@ENMN@doImport?$CI?$CJ?$AA@ 004973dc     moc_signalConnectionListDlgimpl.obj
 0003:000103e8       ??_C@_0BL@LIPH@tableValueChanged?$CIint?0int?$CJ?$AA@ 004973e8     moc_signalConnectionListDlgimpl.obj
 0003:00010404       ??_C@_07EAKD@doDel?$CI?$CJ?$AA@ 00497404     moc_signalConnectionListDlgimpl.obj
 0003:0001040c       ??_C@_0N@FAJA@doMoveDown?$CI?$CJ?$AA@ 0049740c     moc_signalConnectionListDlgimpl.obj
 0003:0001041c       ??_C@_0L@BEFK@doMoveUp?$CI?$CJ?$AA@ 0049741c     moc_signalConnectionListDlgimpl.obj
 0003:00010428       ??_C@_08MEPI@accept?$CI?$CJ?$AA@ 00497428     moc_signalConnectionListDlgimpl.obj
 0003:00010434       ??_C@_0CI@KDMO@tableClicked?$CIint?0int?0int?0const?5Q@ 00497434     moc_signalConnectionListDlgimpl.obj
 0003:0001045c       ??_C@_08BGNC@doImport?$AA@ 0049745c     moc_signalConnectionListDlgimpl.obj
 0003:00010468       ??_C@_0BC@CMAN@tableValueChanged?$AA@ 00497468     moc_signalConnectionListDlgimpl.obj
 0003:000104a0       ??_C@_03OCHL@row?$AA@      004974a0     moc_signalConnectionListDlgimpl.obj
 0003:000104a4       ??_C@_05FEEB@doDel?$AA@    004974a4     moc_signalConnectionListDlgimpl.obj
 0003:000104ac       ??_C@_0L@IPLP@doMoveDown?$AA@ 004974ac     moc_signalConnectionListDlgimpl.obj
 0003:000104b8       ??_C@_08PFDH@doMoveUp?$AA@ 004974b8     moc_signalConnectionListDlgimpl.obj
 0003:000104c4       ??_C@_06JGM@accept?$AA@    004974c4     moc_signalConnectionListDlgimpl.obj
 0003:000104cc       ??_C@_0N@EEE@tableClicked?$AA@ 004974cc     moc_signalConnectionListDlgimpl.obj
 0003:000104dc       ??_C@_0BM@HPEB@signalConnectionListDlgImpl?$AA@ 004974dc     moc_signalConnectionListDlgimpl.obj
 0003:000104f8       ??_C@_03JDHG@col?$AA@      004974f8     moc_signalConnectionListDlgimpl.obj
 0003:000104fc       ??_C@_0BA@IFLN@sizePosEditBase?$AA@ 004974fc     moc_sizeposedit.obj
 0003:0001050c       ??_C@_0M@OKPE@sizePosEdit?$AA@ 0049750c     moc_sizeposeditimpl.obj
 0003:00010518       ??_C@_0BB@CMGL@system_setupBase?$AA@ 00497518     moc_system_setup.obj
 0003:0001052c       ??_C@_0N@FHBG@system_setup?$AA@ 0049752c     moc_system_setupimpl.obj
 0003:0001053c       ??_C@_0N@JGDP@testSettings?$AA@ 0049753c     moc_testsettingsimpl.obj
 0003:0001054c       ??_C@_0L@HLFH@filename?$CI?$CJ?$AA@ 0049754c     moc_textedit.obj
 0003:00010558       ??_C@_0CN@PHNI@showtools?$CIQMainWindow?$CK?0QPopupMen@ 00497558     moc_textedit.obj
 0003:00010588       ??_C@_0BJ@GKJO@gotoidentifier?$CIQString?$CG?$CJ?$AA@ 00497588     moc_textedit.obj
 0003:000105a4       ??_C@_08HGCM@filename?$AA@ 004975a4     moc_textedit.obj
 0003:000105b0       ??_C@_09CLDN@showtools?$AA@ 004975b0     moc_textedit.obj
 0003:00010600       ??_C@_0P@GAIK@gotoidentifier?$AA@ 00497600     moc_textedit.obj
 0003:00010610       ??_C@_05KJNF@where?$AA@    00497610     moc_textedit.obj
 0003:00010618       ??_C@_04DDJJ@show?$AA@     00497618     moc_textedit.obj
 0003:00010620       ??_C@_0L@KGMO@QPopupMenu?$AA@ 00497620     moc_textedit.obj
 0003:0001062c       ??_C@_08GJEN@fileMenu?$AA@ 0049762c     moc_textedit.obj
 0003:00010638       ??_C@_0M@HHOI@QMainWindow?$AA@ 00497638     moc_textedit.obj
 0003:00010644       ??_C@_0N@GAJN@doHelpSlot?$CI?$CJ?$AA@ 00497644     moc_vis_ed_mdi.obj
 0003:00010654       ??_C@_0BE@EDCD@browseGlobalStyle?$CI?$CJ?$AA@ 00497654     moc_vis_ed_mdi.obj
 0003:00010668       ??_C@_0BH@OOLC@doLoad?$CIconst?5QString?$CG?$CJ?$AA@ 00497668     moc_vis_ed_mdi.obj
 0003:00010680       ??_C@_0CB@CIED@windowActivationChange?$CIQWidget?$CK?$CJ@ 00497680     moc_vis_ed_mdi.obj
 0003:000106a4       ??_C@_0CN@MBON@widgetRenamed?$CIconst?5QString?$CG?0con@ 004976a4     moc_vis_ed_mdi.obj
 0003:000106d4       ??_C@_0BO@JLOP@widgetRemoved?$CIconst?5QString?$CG?$CJ?$AA@ 004976d4     moc_vis_ed_mdi.obj
 0003:000106f4       ??_C@_0CL@NPDK@widgetAdded?$CIconst?5QString?$CG?0const@ 004976f4     moc_vis_ed_mdi.obj
 0003:00010720       ??_C@_07LLFA@about?$CI?$CJ?$AA@ 00497720     moc_vis_ed_mdi.obj
 0003:00010728       ??_C@_0BK@HKJI@recentyusedactivated?$CIint?$CJ?$AA@ 00497728     moc_vis_ed_mdi.obj
 0003:00010744       ??_C@_0BJ@PEA@recentFilesAboutToShow?$CI?$CJ?$AA@ 00497744     moc_vis_ed_mdi.obj
 0003:00010760       ??_C@_0O@LEAF@viewDevices?$CI?$CJ?$AA@ 00497760     moc_vis_ed_mdi.obj
 0003:00010770       ??_C@_0BJ@OMKC@closeEvent?$CIQCloseEvent?$CK?$CJ?$AA@ 00497770     moc_vis_ed_mdi.obj
 0003:0001078c       ??_C@_0L@CGBK@closeAll?$CI?$CJ?$AA@ 0049778c     moc_vis_ed_mdi.obj
 0003:00010798       ??_C@_0BK@MIIE@windowsMenuActivated?$CIint?$CJ?$AA@ 00497798     moc_vis_ed_mdi.obj
 0003:000107b4       ??_C@_0BG@JKOC@fileMenuAboutToShow?$CI?$CJ?$AA@ 004977b4     moc_vis_ed_mdi.obj
 0003:000107cc       ??_C@_0BJ@LJMN@windowsMenuAboutToShow?$CI?$CJ?$AA@ 004977cc     moc_vis_ed_mdi.obj
 0003:000107e8       ??_C@_0M@JKDB@fileClose?$CI?$CJ?$AA@ 004977e8     moc_vis_ed_mdi.obj
 0003:000107f4       ??_C@_0N@MNBF@fileSaveAs?$CI?$CJ?$AA@ 004977f4     moc_vis_ed_mdi.obj
 0003:00010804       ??_C@_0L@OLDH@fileSave?$CI?$CJ?$AA@ 00497804     moc_vis_ed_mdi.obj
 0003:00010810       ??_C@_0N@JHAH@fileReload?$CI?$CJ?$AA@ 00497810     moc_vis_ed_mdi.obj
 0003:00010820       ??_C@_0L@LEJN@fileOpen?$CI?$CJ?$AA@ 00497820     moc_vis_ed_mdi.obj
 0003:0001082c       ??_C@_09OFFI@fileNew?$CI?$CJ?$AA@ 0049782c     moc_vis_ed_mdi.obj
 0003:00010838       ??_C@_0BM@OICN@scriptedit?$CIQString?0QString?$CJ?$AA@ 00497838     moc_vis_ed_mdi.obj
 0003:00010854       ??_C@_0CJ@DOJ@singletonMessageReceived?$CIconst?5Q@ 00497854     moc_vis_ed_mdi.obj
 0003:00010880       ??_C@_0P@HPHA@toggleIdList?$CI?$CJ?$AA@ 00497880     moc_vis_ed_mdi.obj
 0003:00010890       ??_C@_0L@BOLE@doHelpSlot?$AA@ 00497890     moc_vis_ed_mdi.obj
 0003:0001089c       ??_C@_0BC@KMLN@browseGlobalStyle?$AA@ 0049789c     moc_vis_ed_mdi.obj
 0003:000108b0       ??_C@_06NAHE@doLoad?$AA@   004978b0     moc_vis_ed_mdi.obj
 0003:000108b8       ??_C@_0BH@IOPL@windowActivationChange?$AA@ 004978b8     moc_vis_ed_mdi.obj
 0003:00010970       ??_C@_0O@GKBC@widgetRenamed?$AA@ 00497970     moc_vis_ed_mdi.obj
 0003:00010980       ??_C@_07CFKG@oldName?$AA@  00497980     moc_vis_ed_mdi.obj
 0003:00010988       ??_C@_0O@DIOF@widgetRemoved?$AA@ 00497988     moc_vis_ed_mdi.obj
 0003:00010998       ??_C@_0M@CAA@widgetAdded?$AA@ 00497998     moc_vis_ed_mdi.obj
 0003:000109a4       ??_C@_05FNEB@about?$AA@    004979a4     moc_vis_ed_mdi.obj
 0003:000109ac       ??_C@_0BF@EODE@recentyusedactivated?$AA@ 004979ac     moc_vis_ed_mdi.obj
 0003:000109c4       ??_C@_0BH@GOJK@recentFilesAboutToShow?$AA@ 004979c4     moc_vis_ed_mdi.obj
 0003:000109dc       ??_C@_0M@CFNG@viewDevices?$AA@ 004979dc     moc_vis_ed_mdi.obj
 0003:000109e8       ??_C@_0L@NEKA@closeEvent?$AA@ 004979e8     moc_vis_ed_mdi.obj
 0003:000109f4       ??_C@_02LDOD@ce?$AA@       004979f4     moc_vis_ed_mdi.obj
 0003:000109f8       ??_C@_08BJCH@closeAll?$AA@ 004979f8     moc_vis_ed_mdi.obj
 0003:00010a04       ??_C@_0BF@GELD@windowsMenuActivated?$AA@ 00497a04     moc_vis_ed_mdi.obj
 0003:00010a1c       ??_C@_0BE@DDCL@fileMenuAboutToShow?$AA@ 00497a1c     moc_vis_ed_mdi.obj
 0003:00010a30       ??_C@_0BH@NDGP@windowsMenuAboutToShow?$AA@ 00497a30     moc_vis_ed_mdi.obj
 0003:00010a48       ??_C@_09GPFM@fileClose?$AA@ 00497a48     moc_vis_ed_mdi.obj
 0003:00010a54       ??_C@_0L@DKBI@fileSaveAs?$AA@ 00497a54     moc_vis_ed_mdi.obj
 0003:00010a60       ??_C@_08PHMH@fileSave?$AA@ 00497a60     moc_vis_ed_mdi.obj
 0003:00010a6c       ??_C@_0L@HGH@fileReload?$AA@ 00497a6c     moc_vis_ed_mdi.obj
 0003:00010a78       ??_C@_08JEBF@fileOpen?$AA@ 00497a78     moc_vis_ed_mdi.obj
 0003:00010a84       ??_C@_0L@CIIE@scriptedit?$AA@ 00497a84     moc_vis_ed_mdi.obj
 0003:00010a90       ??_C@_0BJ@JJGC@singletonMessageReceived?$AA@ 00497a90     moc_vis_ed_mdi.obj
 0003:00010aac       ??_C@_04EDBF@file?$AA@     00497aac     moc_vis_ed_mdi.obj
 0003:00010ab4       ??_C@_0N@MLAC@toggleIdList?$AA@ 00497ab4     moc_vis_ed_mdi.obj
 0003:00010ac4       ??_C@_0L@FIPH@vis_ed_mdi?$AA@ 00497ac4     moc_vis_ed_mdi.obj
 0003:00010ad0       ??_C@_07NBKI@newName?$AA@  00497ad0     moc_vis_ed_mdi.obj
 0003:00010ad8       ??_C@_09DJNF@className?$AA@ 00497ad8     moc_vis_ed_mdi.obj
 0003:00010ae4       ??_C@_0M@MNGK@QCloseEvent?$AA@ 00497ae4     moc_vis_ed_mdi.obj
 0003:00010af0       ??_C@_0BP@GIDK@scriptOpenVisEdAvailable?$CIbool?$CJ?$AA@ 00497af0     moc_vis_ed_toolbars.obj
 0003:00010b10       ??_C@_0CC@HPKH@scriptOpenExplorerAvailable?$CIbool@ 00497b10     moc_vis_ed_toolbars.obj
 0003:00010b34       ??_C@_0BN@MCBD@pasteSettingsAvailable?$CIbool?$CJ?$AA@ 00497b34     moc_vis_ed_toolbars.obj
 0003:00010b54       ??_C@_0BL@PHKN@pasteWidgetAvailable?$CIbool?$CJ?$AA@ 00497b54     moc_vis_ed_toolbars.obj
 0003:00010b70       ??_C@_0CD@ENAP@redoAvailable?$CIbool?0const?5QString@ 00497b70     moc_vis_ed_toolbars.obj
 0003:00010b94       ??_C@_0CD@GKDF@undoAvailable?$CIbool?0const?5QString@ 00497b94     moc_vis_ed_toolbars.obj
 0003:00010bb8       ??_C@_0BD@LAAK@itemsSelected?$CIint?$CJ?$AA@ 00497bb8     moc_vis_ed_toolbars.obj
 0003:00010bcc       ??_C@_0BJ@KNHL@scriptOpenVisEdAvailable?$AA@ 00497bcc     moc_vis_ed_toolbars.obj
 0003:00010c58       ??_C@_0BM@ELBH@scriptOpenExplorerAvailable?$AA@ 00497c58     moc_vis_ed_toolbars.obj
 0003:00010c74       ??_C@_0BH@GECE@pasteSettingsAvailable?$AA@ 00497c74     moc_vis_ed_toolbars.obj
 0003:00010c8c       ??_C@_0BF@CJHL@pasteWidgetAvailable?$AA@ 00497c8c     moc_vis_ed_toolbars.obj
 0003:00010ca4       ??_C@_0O@NMHK@redoAvailable?$AA@ 00497ca4     moc_vis_ed_toolbars.obj
 0003:00010cb4       ??_C@_0O@LDBA@undoAvailable?$AA@ 00497cb4     moc_vis_ed_toolbars.obj
 0003:00010cc4       ??_C@_0O@CGMM@itemsSelected?$AA@ 00497cc4     moc_vis_ed_toolbars.obj
 0003:00010cd4       ??_C@_05HGHB@count?$AA@    00497cd4     moc_vis_ed_toolbars.obj
 0003:00010cdc       ??_C@_0BA@BJDB@vis_ed_toolbars?$AA@ 00497cdc     moc_vis_ed_toolbars.obj
 0003:00010cec       ??_C@_04LHJL@text?$AA@     00497cec     moc_vis_ed_toolbars.obj
 0003:00010cf4       ??_C@_0CM@BELD@showStylesheetBrowser?$CIbool?$CK?0cons@ 00497cf4     moc_vis_ed_widget.obj
 0003:00010d20       ??_C@_0BL@IENL@loadScript?$CIconst?5QString?$CG?$CJ?$AA@ 00497d20     moc_vis_ed_widget.obj
 0003:00010d3c       ??_C@_0BO@KPK@aboutToSaveAs?$CIconst?5QString?$CG?$CJ?$AA@ 00497d3c     moc_vis_ed_widget.obj
 0003:00010d5c       ??_C@_0BC@MFHG@edit?$CIbool?$CK?0bool?$CK?$CJ?$AA@ 00497d5c     moc_vis_ed_widget.obj
 0003:00010ee0       ??_C@_0BG@LNJJ@showStylesheetBrowser?$AA@ 00497ee0     moc_vis_ed_widget.obj
 0003:00010ef8       ??_C@_0L@CABC@loadScript?$AA@ 00497ef8     moc_vis_ed_widget.obj
 0003:00010f04       ??_C@_0O@EMEM@aboutToSaveAs?$AA@ 00497f04     moc_vis_ed_widget.obj
 0003:00010f14       ??_C@_04OJPN@edit?$AA@     00497f14     moc_vis_ed_widget.obj
 0003:00010f1c       ??_C@_07MEJL@changed?$AA@  00497f1c     moc_vis_ed_widget.obj
 0003:00010f24       ??_C@_0BD@EIDF@dialogInvokeEdit?$CI?$CJ?$AA@ 00497f24     moc_vis_ed_widget.obj
 0003:00010f38       ??_C@_0BI@NNGD@dblClickTimer_timeout?$CI?$CJ?$AA@ 00497f38     moc_vis_ed_widget.obj
 0003:00010f50       ??_C@_0BD@PGFA@doExportSettings?$CI?$CJ?$AA@ 00497f50     moc_vis_ed_widget.obj
 0003:00010f64       ??_C@_0BD@JNGL@doImportSettings?$CI?$CJ?$AA@ 00497f64     moc_vis_ed_widget.obj
 0003:00010f78       ??_C@_0BD@GIOH@doManualSettings?$CI?$CJ?$AA@ 00497f78     moc_vis_ed_widget.obj
 0003:00010f8c       ??_C@_0BH@LKLF@doSizePositionManual?$CI?$CJ?$AA@ 00497f8c     moc_vis_ed_widget.obj
 0003:00010fa4       ??_C@_0N@DONE@doPushBack?$CI?$CJ?$AA@ 00497fa4     moc_vis_ed_widget.obj
 0003:00010fb4       ??_C@_0BA@EKCF@doPullForward?$CI?$CJ?$AA@ 00497fb4     moc_vis_ed_widget.obj
 0003:00010fc4       ??_C@_0BD@NFBP@browseStateSheet?$CI?$CJ?$AA@ 00497fc4     moc_vis_ed_widget.obj
 0003:00010fd8       ??_C@_0BD@GBOK@browseStyleSheet?$CI?$CJ?$AA@ 00497fd8     moc_vis_ed_widget.obj
 0003:00010fec       ??_C@_0BO@GCIE@setStateSheet?$CIconst?5QString?$CG?$CJ?$AA@ 00497fec     moc_vis_ed_widget.obj
 0003:0001100c       ??_C@_0BO@PINK@setStyleSheet?$CIconst?5QString?$CG?$CJ?$AA@ 0049800c     moc_vis_ed_widget.obj
 0003:0001102c       ??_C@_0O@NHPD@contextMenu?$CI?$CJ?$AA@ 0049802c     moc_vis_ed_widget.obj
 0003:0001103c       ??_C@_0BB@HGGN@propertiesEdit?$CI?$CJ?$AA@ 0049803c     moc_vis_ed_widget.obj
 0003:00011050       ??_C@_0BD@FGHI@wizProcessExited?$CI?$CJ?$AA@ 00498050     moc_vis_ed_widget.obj
 0003:00011064       ??_C@_0P@KAPM@openScriptVS?$CI?$CJ?$AA@ 00498064     moc_vis_ed_widget.obj
 0003:00011074       ??_C@_0P@NKPI@openScriptUI?$CI?$CJ?$AA@ 00498074     moc_vis_ed_widget.obj
 0003:00011084       ??_C@_0BB@HPNO@openInExplorer?$CI?$CJ?$AA@ 00498084     moc_vis_ed_widget.obj
 0003:00011098       ??_C@_0BD@KEKI@openVisualStudio?$CI?$CJ?$AA@ 00498098     moc_vis_ed_widget.obj
 0003:000110ac       ??_C@_0CK@OBJN@renameItem?$CIconst?5QString?$CG?0const?5@ 004980ac     moc_vis_ed_widget.obj
 0003:000110d8       ??_C@_0BO@IPJK@highlightItem?$CIconst?5QString?$CG?$CJ?$AA@ 004980d8     moc_vis_ed_widget.obj
 0003:000110f8       ??_C@_0O@IKAL@doDuplicate?$CI?$CJ?$AA@ 004980f8     moc_vis_ed_widget.obj
 0003:00011108       ??_C@_0BD@JDA@centreWidgetsVer?$CI?$CJ?$AA@ 00498108     moc_vis_ed_widget.obj
 0003:0001111c       ??_C@_0BD@KKKE@centreWidgetsHor?$CI?$CJ?$AA@ 0049811c     moc_vis_ed_widget.obj
 0003:00011130       ??_C@_0BF@KADE@stackWidgetsBottom?$CI?$CJ?$AA@ 00498130     moc_vis_ed_widget.obj
 0003:00011148       ??_C@_0BC@HAPB@stackWidgetsTop?$CI?$CJ?$AA@ 00498148     moc_vis_ed_widget.obj
 0003:0001115c       ??_C@_0BE@GMGC@stackWidgetsRight?$CI?$CJ?$AA@ 0049815c     moc_vis_ed_widget.obj
 0003:00011170       ??_C@_0BD@PPJE@stackWidgetsLeft?$CI?$CJ?$AA@ 00498170     moc_vis_ed_widget.obj
 0003:00011184       ??_C@_0BG@ELL@distributeEvenlyVer?$CI?$CJ?$AA@ 00498184     moc_vis_ed_widget.obj
 0003:0001119c       ??_C@_0BG@KHCP@distributeEvenlyHor?$CI?$CJ?$AA@ 0049819c     moc_vis_ed_widget.obj
 0003:000111b4       ??_C@_0BG@LGDM@doConnectionsDialog?$CI?$CJ?$AA@ 004981b4     moc_vis_ed_widget.obj
 0003:000111cc       ??_C@_0P@BFK@doDistribute?$CI?$CJ?$AA@ 004981cc     moc_vis_ed_widget.obj
 0003:000111dc       ??_C@_0P@GEIJ@widget_count?$CI?$CJ?$AA@ 004981dc     moc_vis_ed_widget.obj
 0003:000111ec       ??_C@_06FLFH@test?$CI?$CJ?$AA@ 004981ec     moc_vis_ed_widget.obj
 0003:000111f4       ??_C@_0BJ@JIHF@paintEvent?$CIQPaintEvent?$CK?$CJ?$AA@ 004981f4     moc_vis_ed_widget.obj
 0003:00011210       ??_C@_0DC@EBBE@fillStack?$CIQPtrStack?$DMw_undo_event@ 00498210     moc_vis_ed_widget.obj
 0003:00011244       ??_C@_06MOOM@redo?$CI?$CJ?$AA@ 00498244     moc_vis_ed_widget.obj
 0003:0001124c       ??_C@_0BA@7moveRightFast?$CI?$CJ?$AA@ 0049824c     moc_vis_ed_widget.obj
 0003:0001125c       ??_C@_0P@JEPG@moveLeftFast?$CI?$CJ?$AA@ 0049825c     moc_vis_ed_widget.obj
 0003:0001126c       ??_C@_0P@HGCO@moveDownFast?$CI?$CJ?$AA@ 0049826c     moc_vis_ed_widget.obj
 0003:0001127c       ??_C@_0N@OEPB@moveUpFast?$CI?$CJ?$AA@ 0049827c     moc_vis_ed_widget.obj
 0003:0001128c       ??_C@_0M@FPP@moveRight?$CI?$CJ?$AA@ 0049828c     moc_vis_ed_widget.obj
 0003:00011298       ??_C@_0L@GCLI@moveLeft?$CI?$CJ?$AA@ 00498298     moc_vis_ed_widget.obj
 0003:000112a4       ??_C@_0L@OLFI@moveDown?$CI?$CJ?$AA@ 004982a4     moc_vis_ed_widget.obj
 0003:000112b0       ??_C@_08KAON@moveUp?$CI?$CJ?$AA@ 004982b0     moc_vis_ed_widget.obj
 0003:000112bc       ??_C@_0BG@JNMN@editHandleSelectAll?$CI?$CJ?$AA@ 004982bc     moc_vis_ed_widget.obj
 0003:000112d4       ??_C@_0N@KNIC@Align_VMid?$CI?$CJ?$AA@ 004982d4     moc_vis_ed_widget.obj
 0003:000112e4       ??_C@_0N@CHEB@Align_HMid?$CI?$CJ?$AA@ 004982e4     moc_vis_ed_widget.obj
 0003:000112f4       ??_C@_0P@LCPM@Align_Bottom?$CI?$CJ?$AA@ 004982f4     moc_vis_ed_widget.obj
 0003:00011304       ??_C@_0O@KEBI@Align_Right?$CI?$CJ?$AA@ 00498304     moc_vis_ed_widget.obj
 0003:00011314       ??_C@_0M@OBMB@Align_Top?$CI?$CJ?$AA@ 00498314     moc_vis_ed_widget.obj
 0003:00011320       ??_C@_0N@IFAF@Align_Left?$CI?$CJ?$AA@ 00498320     moc_vis_ed_widget.obj
 0003:00011330       ??_C@_0BE@FPCE@deleteEditHandled?$CI?$CJ?$AA@ 00498330     moc_vis_ed_widget.obj
 0003:00011344       ??_C@_0BK@ONAK@Selected_Size_V_Largest?$CI?$CJ?$AA@ 00498344     moc_vis_ed_widget.obj
 0003:00011360       ??_C@_0BK@GOKI@Selected_Size_H_Largest?$CI?$CJ?$AA@ 00498360     moc_vis_ed_widget.obj
 0003:0001137c       ??_C@_0BL@GKKD@Selected_Size_V_Smallest?$CI?$CJ?$AA@ 0049837c     moc_vis_ed_widget.obj
 0003:00011398       ??_C@_0BL@LHCA@Selected_Size_H_Smallest?$CI?$CJ?$AA@ 00498398     moc_vis_ed_widget.obj
 0003:000113b4       ??_C@_0P@CLAF@fileSave?$CIbool?$CJ?$AA@ 004983b4     moc_vis_ed_widget.obj
 0003:000113c4       ??_C@_0CC@FLAK@dialogRectChanged?$CIQWidget?$CK?0QRect@ 004983c4     moc_vis_ed_widget.obj
 0003:000113e8       ??_C@_0N@FPIM@toggleGrid?$CI?$CJ?$AA@ 004983e8     moc_vis_ed_widget.obj
 0003:000113f8       ??_C@_0BB@DOKG@dialogInvokeEdit?$AA@ 004983f8     moc_vis_ed_widget.obj
 0003:0001140c       ??_C@_0BG@LBFJ@dblClickTimer_timeout?$AA@ 0049840c     moc_vis_ed_widget.obj
 0003:00011424       ??_C@_0BB@JKIE@doExportSettings?$AA@ 00498424     moc_vis_ed_widget.obj
 0003:00011438       ??_C@_0BB@BLEO@doImportSettings?$AA@ 00498438     moc_vis_ed_widget.obj
 0003:0001144c       ??_C@_0BB@PKGM@doManualSettings?$AA@ 0049844c     moc_vis_ed_widget.obj
 0003:00011460       ??_C@_0BF@DMDF@doSizePositionManual?$AA@ 00498460     moc_vis_ed_widget.obj
 0003:00011478       ??_C@_0BB@NMKF@browseStateSheet?$AA@ 00498478     moc_vis_ed_widget.obj
 0003:0001148c       ??_C@_0BB@ICMP@browseStyleSheet?$AA@ 0049848c     moc_vis_ed_widget.obj
 0003:000114a0       ??_C@_0O@EMNP@setStateSheet?$AA@ 004984a0     moc_vis_ed_widget.obj
 0003:000114b0       ??_C@_0O@BCLF@setStyleSheet?$AA@ 004984b0     moc_vis_ed_widget.obj
 0003:000114c0       ??_C@_0M@ELBB@contextMenu?$AA@ 004984c0     moc_vis_ed_widget.obj
 0003:000114cc       ??_C@_0P@NLPP@propertiesEdit?$AA@ 004984cc     moc_vis_ed_widget.obj
 0003:000114dc       ??_C@_0BB@NKNL@wizProcessExited?$AA@ 004984dc     moc_vis_ed_widget.obj
 0003:000114f0       ??_C@_0N@BKJI@openScriptVS?$AA@ 004984f0     moc_vis_ed_widget.obj
 0003:00011500       ??_C@_0N@IJIB@openScriptUI?$AA@ 00498500     moc_vis_ed_widget.obj
 0003:00011510       ??_C@_0P@ELAH@openInExplorer?$AA@ 00498510     moc_vis_ed_widget.obj
 0003:00011520       ??_C@_0BB@MGMP@openVisualStudio?$AA@ 00498520     moc_vis_ed_widget.obj
 0003:00011534       ??_C@_0L@KHHO@renameItem?$AA@ 00498534     moc_vis_ed_widget.obj
 0003:00011540       ??_C@_0O@MLGC@highlightItem?$AA@ 00498540     moc_vis_ed_widget.obj
 0003:00011550       ??_C@_0M@FHCM@doDuplicate?$AA@ 00498550     moc_vis_ed_widget.obj
 0003:0001155c       ??_C@_0BB@IKDN@centreWidgetsVer?$AA@ 0049855c     moc_vis_ed_widget.obj
 0003:00011570       ??_C@_0BB@EPJE@centreWidgetsHor?$AA@ 00498570     moc_vis_ed_widget.obj
 0003:00011584       ??_C@_0BD@LFNM@stackWidgetsBottom?$AA@ 00498584     moc_vis_ed_widget.obj
 0003:00011598       ??_C@_0BA@LBGH@stackWidgetsTop?$AA@ 00498598     moc_vis_ed_widget.obj
 0003:000115a8       ??_C@_0BC@CKP@stackWidgetsRight?$AA@ 004985a8     moc_vis_ed_widget.obj
 0003:000115bc       ??_C@_0BB@JKMC@stackWidgetsLeft?$AA@ 004985bc     moc_vis_ed_widget.obj
 0003:000115d0       ??_C@_0BE@KFBP@distributeEvenlyVer?$AA@ 004985d0     moc_vis_ed_widget.obj
 0003:000115e4       ??_C@_0BE@GALG@distributeEvenlyHor?$AA@ 004985e4     moc_vis_ed_widget.obj
 0003:000115f8       ??_C@_0BE@GHDB@doConnectionsDialog?$AA@ 004985f8     moc_vis_ed_widget.obj
 0003:0001160c       ??_C@_0N@GLL@doDistribute?$AA@ 0049860c     moc_vis_ed_widget.obj
 0003:0001161c       ??_C@_0L@BHJK@paintEvent?$AA@ 0049861c     moc_vis_ed_widget.obj
 0003:00011628       ??_C@_02OCLF@pe?$AA@       00498628     moc_vis_ed_widget.obj
 0003:0001162c       ??_C@_09JHLI@fillStack?$AA@ 0049862c     moc_vis_ed_widget.obj
 0003:00011638       ??_C@_05FMCK@stack?$AA@    00498638     moc_vis_ed_widget.obj
 0003:00011640       ??_C@_0BE@KPGE@editHandleSelectAll?$AA@ 00498640     moc_vis_ed_widget.obj
 0003:00011654       ??_C@_0L@DAFF@Align_VMid?$AA@ 00498654     moc_vis_ed_widget.obj
 0003:00011660       ??_C@_0L@JAAI@Align_HMid?$AA@ 00498660     moc_vis_ed_widget.obj
 0003:0001166c       ??_C@_0N@MPEN@Align_Bottom?$AA@ 0049866c     moc_vis_ed_widget.obj
 0003:0001167c       ??_C@_0M@JDJP@Align_Right?$AA@ 0049867c     moc_vis_ed_widget.obj
 0003:00011688       ??_C@_09CCMO@Align_Top?$AA@ 00498688     moc_vis_ed_widget.obj
 0003:00011694       ??_C@_0L@KKFB@Align_Left?$AA@ 00498694     moc_vis_ed_widget.obj
 0003:000116a0       ??_C@_0BC@GLFO@deleteEditHandled?$AA@ 004986a0     moc_vis_ed_widget.obj
 0003:000116b4       ??_C@_0BI@HHPA@Selected_Size_V_Largest?$AA@ 004986b4     moc_vis_ed_widget.obj
 0003:000116cc       ??_C@_0BI@MMID@Selected_Size_H_Largest?$AA@ 004986cc     moc_vis_ed_widget.obj
 0003:000116e4       ??_C@_0BJ@GEPJ@Selected_Size_V_Smallest?$AA@ 004986e4     moc_vis_ed_widget.obj
 0003:00011700       ??_C@_0BJ@MGEC@Selected_Size_H_Smallest?$AA@ 00498700     moc_vis_ed_widget.obj
 0003:0001171c       ??_C@_0BC@FEPC@dialogRectChanged?$AA@ 0049871c     moc_vis_ed_widget.obj
 0003:00011730       ??_C@_0L@GCHP@toggleGrid?$AA@ 00498730     moc_vis_ed_widget.obj
 0003:0001173c       ??_C@_09NHLE@sheetType?$AA@ 0049873c     moc_vis_ed_widget.obj
 0003:00011748       ??_C@_0L@MJMK@identifier?$AA@ 00498748     moc_vis_ed_widget.obj
 0003:00011754       ??_C@_0BK@PJPI@suppressInsertEventFilter?$AA@ 00498754     moc_vis_ed_widget.obj
 0003:00011770       ??_C@_01PMFO@?$BC?$AA@     00498770     moc_vis_ed_widget.obj
 0003:00011774       ??_C@_0M@OFA@QPaintEvent?$AA@ 00498774     moc_vis_ed_widget.obj
 0003:00011780       ??_C@_0N@IMMA@w_undo_event?$AA@ 00498780     moc_vis_ed_widget.obj
 0003:00011790       ??_C@_01PHOL@e?$AA@        00498790     moc_vis_ed_widget.obj
 0003:00011794       ??_C@_0BI@GDCG@QPtrStack?$DMw_undo_event?$DO?$AA@ 00498794     moc_vis_ed_widget.obj
 0003:000117ac       ??_C@_01LHO@r?$AA@         004987ac     moc_vis_ed_widget.obj
 0003:000117c0       ??_C@_0N@IOCA@xml_listview?$AA@ 004987c0     moc_xml_listview.obj
 0003:000117d0       ??_C@_08FFDP@1close?$CI?$CJ?$AA@ 004987d0     objectview.obj
 0003:000117dc       ??_C@_0M@OBJL@pushButton1?$AA@ 004987dc     objectview.obj
 0003:000117e8       ??_C@_08PDAL@listBox1?$AA@ 004987e8     objectview.obj
 0003:000117f4       ??_C@_0BF@MHAF@objectViewBaseLayout?$AA@ 004987f4     objectview.obj
 0003:0001180c       ??_C@_0BM@FNEB@Double?5click?5item?5to?5rename?$AA@ 0049880c     objectview.obj
 0003:00011828       ??_C@_0CD@MPOB@Select?5item?5to?5highlight?5in?5edit@ 00498828     objectview.obj
 0003:0001184c       ??_C@_0BC@KCAM@Control?5ID?5Viewer?$AA@ 0049884c     objectview.obj
 0003:00011860       ??_C@_08ECFH@?4?5c?5None?$AA@ 00498860     signalConnectionListDlg.obj
 0003:0001186c       ??_C@_0CP@HCAH@?$CDg?$CDg?$CDg?$CDg?$CDg?$CDg?$CDg?$CDg?$CDg?$CDg?$CDg?$CDg?$CDg?$CDg?$CDg?$CDg@ 0049886c     signalConnectionListDlg.obj
 0003:0001189c       ??_C@_0CP@GHCN@?4B?4B?4B?4B?4B?4B?4B?4B?$CDg?$CDp?$CDs?$CDt?$CDu?$CDg?4B?4B@ 0049889c     signalConnectionListDlg.obj
 0003:000118cc       ??_C@_0CP@GKDD@?4B?4B?4B?4B?4B?4B?4B?$CDg?$CDb?4F?4P?$CDr?$CDk?$CDl?$CDg?4B@ 004988cc     signalConnectionListDlg.obj
 0003:000118fc       ??_C@_0CP@BNPG@?4B?4B?4B?4B?4B?4B?$CDg?$CDm?4n?$CDq?$CDo?4F?$CDj?$CDp?$CDl?$CDg@ 004988fc     signalConnectionListDlg.obj
 0003:0001192c       ??_C@_0CP@HMOH@?4B?4B?4B?4B?4B?$CDg?$CDm?4n?$CDn?$CDd?$CDc?$CDo?4P?$CDj?$CDp?$CDl@ 0049892c     signalConnectionListDlg.obj
 0003:0001195c       ??_C@_0CP@IBJI@?4B?4B?4B?4B?$CDg?4R?4n?$CDh?$CDi?$CDd?$CDd?$CDc?$CDe?4F?$CDj?$CDk@ 0049895c     signalConnectionListDlg.obj
 0003:0001198c       ??_C@_0CP@IELP@?4B?4B?4B?4T?$CDb?4F?$CDc?48?4Z?4Z?$CDd?$CDd?46?$CDe?4P?$CDf@ 0049898c     signalConnectionListDlg.obj
 0003:000119bc       ??_C@_0CP@PNFK@?4B?4B?4B?44?45?46?47?48?48?4Z?4Z?49?49?46?$CD?4?4P@ 004989bc     signalConnectionListDlg.obj
 0003:000119ec       ??_C@_0CP@MMDK@?4B?4B?4U?4n?4V?4W?4X?4Y?4M?4N?4N?4Z?4Z?40?4O?41@ 004989ec     signalConnectionListDlg.obj
 0003:00011a1c       ??_C@_0CP@NAGK@?4B?4B?4B?4I?4J?4e?4K?4L?4m?4M?4N?4N?4O?4P?4Q?4R@ 00498a1c     signalConnectionListDlg.obj
 0003:00011a4c       ??_C@_0CP@KCPG@?4b?4b?4b?4b?4b?4g?4C?4D?4x?4m?4m?4E?4y?4F?4G?4H@ 00498a4c     signalConnectionListDlg.obj
 0003:00011a7c       ??_C@_0CP@NJNF@?4b?4b?4b?4b?4b?4g?4p?4q?4x?4x?4m?4m?4y?4u?4z?4A@ 00498a7c     signalConnectionListDlg.obj
 0003:00011aac       ??_C@_0CP@LBGB@?4b?4b?4b?4b?4b?4g?4p?4q?4r?4r?4r?4s?4t?4u?4v?4w@ 00498aac     signalConnectionListDlg.obj
 0003:00011adc       ??_C@_0CP@CHIL@?4b?4b?4b?4b?4b?4g?4h?4i?4j?4j?4k?4l?4m?4n?4o?4c@ 00498adc     signalConnectionListDlg.obj
 0003:00011b0c       ??_C@_0CP@EHI@?4b?4b?4b?4b?4b?4c?4d?4e?4e?4e?4e?4e?4e?4f?4c?4b@ 00498b0c     signalConnectionListDlg.obj
 0003:00011b3c       ??_C@_0CP@DKBM@?4?$CD?4?$CD?4?$CD?4?$CD?4?$CD?4?$CD?4?$CD?4?$CD?4?$CD?4?$CD?4?$CD?4?$CD?4?$CD?4?$CD?4?$CD?4?$CD@ 00498b3c     signalConnectionListDlg.obj
 0003:00011b6c       ??_C@_0CP@DLOP@?4a?4a?4a?4a?4a?4a?4a?4a?4a?4a?4a?4a?4a?4a?4a?4a@ 00498b6c     signalConnectionListDlg.obj
 0003:00011b9c       ??_C@_0CP@PGFJ@QtQtQtQtQtQtQtQtQtQtQtQtQtQtQtQt@ 00498b9c     signalConnectionListDlg.obj
 0003:00011bcc       ??_C@_0N@JOPI@Qt?5c?5?$CDffffff?$AA@ 00498bcc     signalConnectionListDlg.obj
 0003:00011bdc       ??_C@_0N@EJHF@?4a?5c?5?$CDfffbff?$AA@ 00498bdc     signalConnectionListDlg.obj
 0003:00011bec       ??_C@_0N@JJLN@?4?$CD?5c?5?$CDfffbf7?$AA@ 00498bec     signalConnectionListDlg.obj
 0003:00011bfc       ??_C@_0N@MFGK@?4b?5c?5?$CDf7f7f7?$AA@ 00498bfc     signalConnectionListDlg.obj
 0003:00011c0c       ??_C@_0N@GHLP@?4c?5c?5?$CDf7f3f7?$AA@ 00498c0c     signalConnectionListDlg.obj
 0003:00011c1c       ??_C@_0N@EBBA@?4B?5c?5?$CDf7f3ef?$AA@ 00498c1c     signalConnectionListDlg.obj
 0003:00011c2c       ??_C@_0N@EHLG@?4T?5c?5?$CDf7efef?$AA@ 00498c2c     signalConnectionListDlg.obj
 0003:00011c3c       ??_C@_0N@DMBK@?4w?5c?5?$CDefefef?$AA@ 00498c3c     signalConnectionListDlg.obj
 0003:00011c4c       ??_C@_0N@PCGE@?4A?5c?5?$CDefebef?$AA@ 00498c4c     signalConnectionListDlg.obj
 0003:00011c5c       ??_C@_0N@MPIP@?$CDg?5c?5?$CDefebe7?$AA@ 00498c5c     signalConnectionListDlg.obj
 0003:00011c6c       ??_C@_0N@OCD@?$CDa?5c?5?$CDefe7e7?$AA@ 00498c6c     signalConnectionListDlg.obj
 0003:00011c7c       ??_C@_0N@PPBK@?4H?5c?5?$CDe7e7e7?$AA@ 00498c7c     signalConnectionListDlg.obj
 0003:00011c8c       ??_C@_0N@KAKK@?$CDu?5c?5?$CDe7e3de?$AA@ 00498c8c     signalConnectionListDlg.obj
 0003:00011c9c       ??_C@_0N@CNHJ@?$CDl?5c?5?$CDe7dfde?$AA@ 00498c9c     signalConnectionListDlg.obj
 0003:00011cac       ??_C@_0N@LEED@?$CDt?5c?5?$CDdedbd6?$AA@ 00498cac     signalConnectionListDlg.obj
 0003:00011cbc       ??_C@_0N@EKM@?4U?5c?5?$CDded7d6?$AA@ 00498cbc     signalConnectionListDlg.obj
 0003:00011ccc       ??_C@_0N@KOOF@?$CDk?5c?5?$CDcecbc6?$AA@ 00498ccc     signalConnectionListDlg.obj
 0003:00011cdc       ??_C@_0N@NDHL@?$CDp?5c?5?$CDcec7c6?$AA@ 00498cdc     signalConnectionListDlg.obj
 0003:00011cec       ??_C@_0N@OECM@?4o?5c?5?$CDc6c7c6?$AA@ 00498cec     signalConnectionListDlg.obj
 0003:00011cfc       ??_C@_0N@GNAO@?$CDs?5c?5?$CDc6bebd?$AA@ 00498cfc     signalConnectionListDlg.obj
 0003:00011d0c       ??_C@_0N@OBL@?4v?5c?5?$CDbdbabd?$AA@ 00498d0c     signalConnectionListDlg.obj
 0003:00011d1c       ??_C@_0N@FCOJ@?4z?5c?5?$CDadaead?$AA@ 00498d1c     signalConnectionListDlg.obj
 0003:00011d2c       ??_C@_0N@PHHJ@?4G?5c?5?$CDadaaad?$AA@ 00498d2c     signalConnectionListDlg.obj
 0003:00011d3c       ??_C@_0N@BNEN@?4S?5c?5?$CDa59e9c?$AA@ 00498d3c     signalConnectionListDlg.obj
 0003:00011d4c       ??_C@_0N@BFOP@?4W?5c?5?$CD9caa39?$AA@ 00498d4c     signalConnectionListDlg.obj
 0003:00011d5c       ??_C@_0N@JKCH@?4X?5c?5?$CD9ca631?$AA@ 00498d5c     signalConnectionListDlg.obj
 0003:00011d6c       ??_C@_0N@LLJB@?43?5c?5?$CD9c9e9c?$AA@ 00498d6c     signalConnectionListDlg.obj
 0003:00011d7c       ??_C@_0N@GGBK@?4i?5c?5?$CD94aa42?$AA@ 00498d7c     signalConnectionListDlg.obj
 0003:00011d8c       ??_C@_0N@LIEG@?4l?5c?5?$CD94aa31?$AA@ 00498d8c     signalConnectionListDlg.obj
 0003:00011d9c       ??_C@_0N@KLCK@?$CDd?5c?5?$CD949e00?$AA@ 00498d9c     signalConnectionListDlg.obj
 0003:00011dac       ??_C@_0N@PHLO@?$CDi?5c?5?$CD949a00?$AA@ 00498dac     signalConnectionListDlg.obj
 0003:00011dbc       ??_C@_0N@POHK@?$CD?$CD?5c?5?$CD948e8c?$AA@ 00498dbc     signalConnectionListDlg.obj
 0003:00011dcc       ??_C@_0N@NDLC@?4k?5c?5?$CD8caa31?$AA@ 00498dcc     signalConnectionListDlg.obj
 0003:00011ddc       ??_C@_0N@CDJM@?4j?5c?5?$CD8ca631?$AA@ 00498ddc     signalConnectionListDlg.obj
 0003:00011dec       ??_C@_0N@FDLE@?4L?5c?5?$CD8ca221?$AA@ 00498dec     signalConnectionListDlg.obj
 0003:00011dfc       ??_C@_0N@DGFP@?4D?5c?5?$CD8c9e21?$AA@ 00498dfc     signalConnectionListDlg.obj
 0003:00011e0c       ??_C@_0N@EPLN@?4Y?5c?5?$CD8c9e18?$AA@ 00498e0c     signalConnectionListDlg.obj
 0003:00011e1c       ??_C@_0N@PPKH@?49?5c?5?$CD8c9e00?$AA@ 00498e1c     signalConnectionListDlg.obj
 0003:00011e2c       ??_C@_0N@FNLE@?40?5c?5?$CD8c9a08?$AA@ 00498e2c     signalConnectionListDlg.obj
 0003:00011e3c       ??_C@_0N@HKGF@?4Z?5c?5?$CD8c9a00?$AA@ 00498e3c     signalConnectionListDlg.obj
 0003:00011e4c       ??_C@_0N@PON@?4V?5c?5?$CD8c9631?$AA@ 00498e4c     signalConnectionListDlg.obj
 0003:00011e5c       ??_C@_0N@EHND@?48?5c?5?$CD8c9600?$AA@ 00498e5c     signalConnectionListDlg.obj
 0003:00011e6c       ??_C@_0N@MOLB@?$CDn?5c?5?$CD8c9200?$AA@ 00498e6c     signalConnectionListDlg.obj
 0003:00011e7c       ??_C@_0N@PEKA@?4g?5c?5?$CD8c8a8c?$AA@ 00498e7c     signalConnectionListDlg.obj
 0003:00011e8c       ??_C@_0N@OEBA@?4q?5c?5?$CD849e21?$AA@ 00498e8c     signalConnectionListDlg.obj
 0003:00011e9c       ??_C@_0N@BDFN@?4N?5c?5?$CD849a00?$AA@ 00498e9c     signalConnectionListDlg.obj
 0003:00011eac       ??_C@_0N@DGGM@?4M?5c?5?$CD849600?$AA@ 00498eac     signalConnectionListDlg.obj
 0003:00011ebc       ??_C@_0N@KFKD@?47?5c?5?$CD849200?$AA@ 00498ebc     signalConnectionListDlg.obj
 0003:00011ecc       ??_C@_0N@OFJJ@?$CDh?5c?5?$CD848e00?$AA@ 00498ecc     signalConnectionListDlg.obj
 0003:00011edc       ??_C@_0N@MGCN@?$CDc?5c?5?$CD848a00?$AA@ 00498edc     signalConnectionListDlg.obj
 0003:00011eec       ??_C@_0N@PGAM@?4E?5c?5?$CD7b9a00?$AA@ 00498eec     signalConnectionListDlg.obj
 0003:00011efc       ??_C@_0N@OJCL@?4m?5c?5?$CD7b9600?$AA@ 00498efc     signalConnectionListDlg.obj
 0003:00011f0c       ??_C@_0N@EJDN@?4x?5c?5?$CD7b9200?$AA@ 00498f0c     signalConnectionListDlg.obj
 0003:00011f1c       ??_C@_0N@BKGF@?4O?5c?5?$CD7b8e00?$AA@ 00498f1c     signalConnectionListDlg.obj
 0003:00011f2c       ??_C@_0N@LGDK@?46?5c?5?$CD7b8a00?$AA@ 00498f2c     signalConnectionListDlg.obj
 0003:00011f3c       ??_C@_0N@PPBD@?$CDq?5c?5?$CD7b7d00?$AA@ 00498f3c     signalConnectionListDlg.obj
 0003:00011f4c       ??_C@_0N@PBIP@?4I?5c?5?$CD7b797b?$AA@ 00498f4c     signalConnectionListDlg.obj
 0003:00011f5c       ??_C@_0N@BJJC@?44?5c?5?$CD7b7973?$AA@ 00498f5c     signalConnectionListDlg.obj
 0003:00011f6c       ??_C@_0N@MBKN@?4s?5c?5?$CD739600?$AA@ 00498f6c     signalConnectionListDlg.obj
 0003:00011f7c       ??_C@_0N@GDHI@?4r?5c?5?$CD739200?$AA@ 00498f7c     signalConnectionListDlg.obj
 0003:00011f8c       ??_C@_0N@NINF@?$CDb?5c?5?$CD6b696b?$AA@ 00498f8c     signalConnectionListDlg.obj
 0003:00011f9c       ??_C@_0N@DCOC@?4R?5c?5?$CD6b6963?$AA@ 00498f9c     signalConnectionListDlg.obj
 0003:00011fac       ??_C@_0N@OCHK@?$CDo?5c?5?$CD6b6900?$AA@ 00498fac     signalConnectionListDlg.obj
 0003:00011fbc       ??_C@_0N@GHMM@?$CDm?5c?5?$CD6b6563?$AA@ 00498fbc     signalConnectionListDlg.obj
 0003:00011fcc       ??_C@_0N@OME@?4y?5c?5?$CD637900?$AA@ 00498fcc     signalConnectionListDlg.obj
 0003:00011fdc       ??_C@_0N@MCOF@?4t?5c?5?$CD637500?$AA@ 00498fdc     signalConnectionListDlg.obj
 0003:00011fec       ??_C@_0N@COBI@?$CD?4?5c?5?$CD636d00?$AA@ 00498fec     signalConnectionListDlg.obj
 0003:00011ffc       ??_C@_0N@MIDP@?$CDe?5c?5?$CD636900?$AA@ 00498ffc     signalConnectionListDlg.obj
 0003:0001200c       ??_C@_0N@MHAN@?4d?5c?5?$CD636563?$AA@ 0049900c     signalConnectionListDlg.obj
 0003:0001201c       ??_C@_0N@FKEI@?4f?5c?5?$CD636163?$AA@ 0049901c     signalConnectionListDlg.obj
 0003:0001202c       ??_C@_0N@IFBG@?$CDr?5c?5?$CD5a595a?$AA@ 0049902c     signalConnectionListDlg.obj
 0003:0001203c       ??_C@_0N@KMDD@?$CDf?5c?5?$CD5a5552?$AA@ 0049903c     signalConnectionListDlg.obj
 0003:0001204c       ??_C@_0N@PBEG@?$CDj?5c?5?$CD525152?$AA@ 0049904c     signalConnectionListDlg.obj
 0003:0001205c       ??_C@_0N@KIDO@?41?5c?5?$CD425100?$AA@ 0049905c     signalConnectionListDlg.obj
 0003:0001206c       ??_C@_0N@ODBD@?4h?5c?5?$CD394918?$AA@ 0049906c     signalConnectionListDlg.obj
 0003:0001207c       ??_C@_0N@INLN@?4C?5c?5?$CD394910?$AA@ 0049907c     signalConnectionListDlg.obj
 0003:0001208c       ??_C@_0N@JDMG@?4p?5c?5?$CD394510?$AA@ 0049908c     signalConnectionListDlg.obj
 0003:0001209c       ??_C@_0N@BNMO@?4K?5c?5?$CD394118?$AA@ 0049909c     signalConnectionListDlg.obj
 0003:000120ac       ??_C@_0N@PBHI@?42?5c?5?$CD292c00?$AA@ 004990ac     signalConnectionListDlg.obj
 0003:000120bc       ??_C@_0N@CIOJ@?45?5c?5?$CD182000?$AA@ 004990bc     signalConnectionListDlg.obj
 0003:000120cc       ??_C@_0N@MNIP@?4Q?5c?5?$CD181818?$AA@ 004990cc     signalConnectionListDlg.obj
 0003:000120dc       ??_C@_0N@FKCF@?4J?5c?5?$CD181810?$AA@ 004990dc     signalConnectionListDlg.obj
 0003:000120ec       ??_C@_0N@GOIN@?4n?5c?5?$CD101400?$AA@ 004990ec     signalConnectionListDlg.obj
 0003:000120fc       ??_C@_0N@CDFB@?4F?5c?5?$CD101000?$AA@ 004990fc     signalConnectionListDlg.obj
 0003:0001210c       ??_C@_0N@HBEP@?4u?5c?5?$CD081000?$AA@ 0049910c     signalConnectionListDlg.obj
 0003:0001211c       ??_C@_0N@BHKO@?4P?5c?5?$CD080c00?$AA@ 0049911c     signalConnectionListDlg.obj
 0003:0001212c       ??_C@_0N@PNML@?4e?5c?5?$CD000000?$AA@ 0049912c     signalConnectionListDlg.obj
 0003:0001213c       ??_C@_0L@BEHD@23?518?587?52?$AA@ 0049913c     signalConnectionListDlg.obj
 0003:00012148       ??_C@_0CP@HIH@?43?43?43?43?43?43?43?43?43?43?43?43?43?43?43?43@ 00499148     signalConnectionListDlg.obj
 0003:00012178       ??_C@_0CP@NLAF@?4y?4y?4y?4y?4y?4y?4y?4G?$CD?4?4H?$CDv?49?49?$CDv?$CDw?42@ 00499178     signalConnectionListDlg.obj
 0003:000121a8       ??_C@_0CP@OICE@?4y?4y?4y?4y?4y?4y?43?$CDt?4T?4T?4T?4T?4T?4T?$CDu?4H@ 004991a8     signalConnectionListDlg.obj
 0003:000121d8       ??_C@_0CP@BEFC@?4y?4y?4y?4y?4y?4y?$CDg?$CDm?$CDn?$CDo?$CDp?$CDq?$CDq?$CDr?4c?$CDs@ 004991d8     signalConnectionListDlg.obj
 0003:00012208       ??_C@_0CP@FGF@?4y?4y?4y?4y?4y?4y?$CDg?$CDh?$CDi?$CDc?$CDj?$CDj?$CDk?$CDd?4c?$CDl@ 00499208     signalConnectionListDlg.obj
 0003:00012238       ??_C@_0CP@ODMJ@?4y?4y?4y?4y?4y?$CD?$CD?$CDa?45?$CDb?$CDc?47?47?47?$CDd?4c?$CDe@ 00499238     signalConnectionListDlg.obj
 0003:00012268       ??_C@_0CP@EPFD@?4y?4y?4y?4y?4y?43?44?45?46?4K?4K?47?47?4Y?4c?48@ 00499268     signalConnectionListDlg.obj
 0003:00012298       ??_C@_0CP@HIMP@?4y?4y?4y?4y?4R?4S?4T?4U?4V?4W?4K?4K?4X?4Y?4Z?4S@ 00499298     signalConnectionListDlg.obj
 0003:000122c8       ??_C@_0CP@NBDP@?4y?4y?4y?4H?4d?4I?4J?4x?4C?4C?4D?4D?4K?4L?4M?4N@ 004992c8     signalConnectionListDlg.obj
 0003:000122f8       ??_C@_0CP@DLBO@?4y?4y?4y?4y?4z?4A?4B?4s?4C?4t?4C?4D?4D?4D?4D?4E@ 004992f8     signalConnectionListDlg.obj
 0003:00012328       ??_C@_0CP@DFOP@?4a?4a?4a?4a?4a?4e?4l?4v?4s?4o?4t?4t?4w?4w?4x?4d@ 00499328     signalConnectionListDlg.obj
 0003:00012358       ??_C@_0CP@EODE@?4a?4a?4a?4a?4a?4a?4e?4g?4m?4s?4o?4t?4t?4u?4c?4r@ 00499358     signalConnectionListDlg.obj
 0003:00012388       ??_C@_0CP@PFAN@?4a?4a?4a?4a?4a?4a?4a?4e?4l?4m?4n?4o?4p?4q?4r?4k@ 00499388     signalConnectionListDlg.obj
 0003:000123b8       ??_C@_0CP@CNNH@?4a?4a?4a?4a?4a?4a?4a?4a?4e?4g?4h?4i?4c?4j?4k?4a@ 004993b8     signalConnectionListDlg.obj
 0003:000123e8       ??_C@_0CP@LPDG@?4a?4a?4a?4a?4a?4a?4a?4a?4a?4b?4c?4d?4e?4f?4a?4a@ 004993e8     signalConnectionListDlg.obj
 0003:00012418       ??_C@_0CP@EDDK@QtQtQtQtQtQtQtQtQtQt?4?$CD?4?$CDQtQtQtQt@ 00499418     signalConnectionListDlg.obj
 0003:00012448       ??_C@_0N@HAIF@Qt?5c?5?$CDfffbf7?$AA@ 00499448     signalConnectionListDlg.obj
 0003:00012458       ??_C@_0N@PKPK@?4a?5c?5?$CDf7f7f7?$AA@ 00499458     signalConnectionListDlg.obj
 0003:00012468       ??_C@_0N@CHAP@?4f?5c?5?$CDf7f3f7?$AA@ 00499468     signalConnectionListDlg.obj
 0003:00012478       ??_C@_0N@NDPK@?4y?5c?5?$CDf7f3ef?$AA@ 00499478     signalConnectionListDlg.obj
 0003:00012488       ??_C@_0N@DNPJ@?$CD?$CD?5c?5?$CDf7efef?$AA@ 00499488     signalConnectionListDlg.obj
 0003:00012498       ??_C@_0N@GKKH@?4k?5c?5?$CDefefef?$AA@ 00499498     signalConnectionListDlg.obj
 0003:000124a8       ??_C@_0N@INEE@?4G?5c?5?$CDefebef?$AA@ 004994a8     signalConnectionListDlg.obj
 0003:000124b8       ??_C@_0N@NLKI@?43?5c?5?$CDefebe7?$AA@ 004994b8     signalConnectionListDlg.obj
 0003:000124c8       ??_C@_0N@IPKL@?42?5c?5?$CDefe7e7?$AA@ 004994c8     signalConnectionListDlg.obj
 0003:000124d8       ??_C@_0N@MAEI@?$CD?4?5c?5?$CDe7e3de?$AA@ 004994d8     signalConnectionListDlg.obj
 0003:000124e8       ??_C@_0N@KMBI@?$CDf?5c?5?$CDe7dfde?$AA@ 004994e8     signalConnectionListDlg.obj
 0003:000124f8       ??_C@_0N@CEKH@?4?$CD?5c?5?$CDdedfde?$AA@ 004994f8     signalConnectionListDlg.obj
 0003:00012508       ??_C@_0N@ILND@?$CDw?5c?5?$CDdedbd6?$AA@ 00499508     signalConnectionListDlg.obj
 0003:00012518       ??_C@_0N@LIJO@?4H?5c?5?$CDded7d6?$AA@ 00499518     signalConnectionListDlg.obj
 0003:00012528       ??_C@_0N@OOLI@?$CDv?5c?5?$CDd6d3ce?$AA@ 00499528     signalConnectionListDlg.obj
 0003:00012538       ??_C@_0N@HNLP@?49?5c?5?$CDd6cfce?$AA@ 00499538     signalConnectionListDlg.obj
 0003:00012548       ??_C@_0N@FJAM@?$CDs?5c?5?$CDadaead?$AA@ 00499548     signalConnectionListDlg.obj
 0003:00012558       ??_C@_0N@NOFM@?$CDl?5c?5?$CDadaaa5?$AA@ 00499558     signalConnectionListDlg.obj
 0003:00012568       ??_C@_0N@NBCI@?$CDe?5c?5?$CDa5a6a5?$AA@ 00499568     signalConnectionListDlg.obj
 0003:00012578       ??_C@_0N@LLBG@?$CDi?5c?5?$CDa5a618?$AA@ 00499578     signalConnectionListDlg.obj
 0003:00012588       ??_C@_0N@FFNL@?46?5c?5?$CD9ca621?$AA@ 00499588     signalConnectionListDlg.obj
 0003:00012598       ??_C@_0N@IECM@?$CDb?5c?5?$CD9ca618?$AA@ 00499598     signalConnectionListDlg.obj
 0003:000125a8       ??_C@_0N@DAJF@?$CDk?5c?5?$CD9ca200?$AA@ 004995a8     signalConnectionListDlg.obj
 0003:000125b8       ??_C@_0N@OLIP@?$CDj?5c?5?$CD9c9e00?$AA@ 004995b8     signalConnectionListDlg.obj
 0003:000125c8       ??_C@_0N@NENM@?4Q?5c?5?$CD9c9a9c?$AA@ 004995c8     signalConnectionListDlg.obj
 0003:000125d8       ??_C@_0N@MBHA@?48?5c?5?$CD9c9a94?$AA@ 004995d8     signalConnectionListDlg.obj
 0003:000125e8       ??_C@_0N@NGIE@?4m?5c?5?$CD94a642?$AA@ 004995e8     signalConnectionListDlg.obj
 0003:000125f8       ??_C@_0N@FNMM@?4v?5c?5?$CD94a242?$AA@ 004995f8     signalConnectionListDlg.obj
 0003:00012608       ??_C@_0N@MEKD@?4B?5c?5?$CD94a239?$AA@ 00499608     signalConnectionListDlg.obj
 0003:00012618       ??_C@_0N@CKKC@?47?5c?5?$CD949e00?$AA@ 00499618     signalConnectionListDlg.obj
 0003:00012628       ??_C@_0N@HGNP@?$CDc?5c?5?$CD949a00?$AA@ 00499628     signalConnectionListDlg.obj
 0003:00012638       ??_C@_0N@MBIA@?4F?5c?5?$CD949694?$AA@ 00499638     signalConnectionListDlg.obj
 0003:00012648       ??_C@_0N@DGIN@?41?5c?5?$CD948e8c?$AA@ 00499648     signalConnectionListDlg.obj
 0003:00012658       ??_C@_0N@OKGB@?4h?5c?5?$CD8ca239?$AA@ 00499658     signalConnectionListDlg.obj
 0003:00012668       ??_C@_0N@GLGB@?4s?5c?5?$CD8ca221?$AA@ 00499668     signalConnectionListDlg.obj
 0003:00012678       ??_C@_0N@OHCA@?4X?5c?5?$CD8c9e00?$AA@ 00499678     signalConnectionListDlg.obj
 0003:00012688       ??_C@_0N@NAJM@?4V?5c?5?$CD8c9a08?$AA@ 00499688     signalConnectionListDlg.obj
 0003:00012698       ??_C@_0N@DIBG@?4K?5c?5?$CD8c9a00?$AA@ 00499698     signalConnectionListDlg.obj
 0003:000126a8       ??_C@_0N@HEAK@?4W?5c?5?$CD8c9600?$AA@ 004996a8     signalConnectionListDlg.obj
 0003:000126b8       ??_C@_0N@CEA@?$CDg?5c?5?$CD8c8684?$AA@ 004996b8     signalConnectionListDlg.obj
 0003:000126c8       ??_C@_0N@LMKI@?4n?5c?5?$CD84a221?$AA@ 004996c8     signalConnectionListDlg.obj
 0003:000126d8       ??_C@_0N@JCDM@?4D?5c?5?$CD849a00?$AA@ 004996d8     signalConnectionListDlg.obj
 0003:000126e8       ??_C@_0N@BNDC@?4C?5c?5?$CD849600?$AA@ 004996e8     signalConnectionListDlg.obj
 0003:000126f8       ??_C@_0N@NCOD@?$CDn?5c?5?$CD848a00?$AA@ 004996f8     signalConnectionListDlg.obj
 0003:00012708       ??_C@_0N@BGJL@?$CDa?5c?5?$CD848684?$AA@ 00499708     signalConnectionListDlg.obj
 0003:00012718       ??_C@_0N@NKBH@?4w?5c?5?$CD7b9a00?$AA@ 00499718     signalConnectionListDlg.obj
 0003:00012728       ??_C@_0N@PPCG@?4t?5c?5?$CD7b9600?$AA@ 00499728     signalConnectionListDlg.obj
 0003:00012738       ??_C@_0N@EJFM@?4i?5c?5?$CD7b9218?$AA@ 00499738     signalConnectionListDlg.obj
 0003:00012748       ??_C@_0N@HEGO@?4o?5c?5?$CD7b9200?$AA@ 00499748     signalConnectionListDlg.obj
 0003:00012758       ??_C@_0N@HGMO@?4x?5c?5?$CD7b8e00?$AA@ 00499758     signalConnectionListDlg.obj
 0003:00012768       ??_C@_0N@BCIP@?4J?5c?5?$CD7b8a00?$AA@ 00499768     signalConnectionListDlg.obj
 0003:00012778       ??_C@_0N@IPMG@?$CDd?5c?5?$CD7b8200?$AA@ 00499778     signalConnectionListDlg.obj
 0003:00012788       ??_C@_0N@JBIM@?44?5c?5?$CD7b7d7b?$AA@ 00499788     signalConnectionListDlg.obj
 0003:00012798       ??_C@_0N@DHBL@?4z?5c?5?$CD7b797b?$AA@ 00499798     signalConnectionListDlg.obj
 0003:000127a8       ??_C@_0N@JELK@?4R?5c?5?$CD7b7973?$AA@ 004997a8     signalConnectionListDlg.obj
 0003:000127b8       ??_C@_0N@NBCK@?$CDq?5c?5?$CD7b7900?$AA@ 004997b8     signalConnectionListDlg.obj
 0003:000127c8       ??_C@_0N@MJCE@?4u?5c?5?$CD738e00?$AA@ 004997c8     signalConnectionListDlg.obj
 0003:000127d8       ??_C@_0N@HIHK@?4E?5c?5?$CD738a00?$AA@ 004997d8     signalConnectionListDlg.obj
 0003:000127e8       ??_C@_0N@MICC@?4I?5c?5?$CD738608?$AA@ 004997e8     signalConnectionListDlg.obj
 0003:000127f8       ??_C@_0N@NMCK@?4L?5c?5?$CD738600?$AA@ 004997f8     signalConnectionListDlg.obj
 0003:00012808       ??_C@_0N@OEKF@?4Y?5c?5?$CD737d00?$AA@ 00499808     signalConnectionListDlg.obj
 0003:00012818       ??_C@_0N@JAIB@?$CDp?5c?5?$CD737900?$AA@ 00499818     signalConnectionListDlg.obj
 0003:00012828       ??_C@_0N@BOHF@?4b?5c?5?$CD737573?$AA@ 00499828     signalConnectionListDlg.obj
 0003:00012838       ??_C@_0N@CBED@?$CDo?5c?5?$CD737500?$AA@ 00499838     signalConnectionListDlg.obj
 0003:00012848       ??_C@_0N@MDIA@?4e?5c?5?$CD737173?$AA@ 00499848     signalConnectionListDlg.obj
 0003:00012858       ??_C@_0N@NFCL@?$CDr?5c?5?$CD737100?$AA@ 00499858     signalConnectionListDlg.obj
 0003:00012868       ??_C@_0N@PPEK@?4p?5c?5?$CD6b8a00?$AA@ 00499868     signalConnectionListDlg.obj
 0003:00012878       ??_C@_0N@BHIG@?4j?5c?5?$CD6b6d6b?$AA@ 00499878     signalConnectionListDlg.obj
 0003:00012888       ??_C@_0N@MFDN@?4r?5c?5?$CD6b696b?$AA@ 00499888     signalConnectionListDlg.obj
 0003:00012898       ??_C@_0N@MNEK@?4M?5c?5?$CD637100?$AA@ 00499898     signalConnectionListDlg.obj
 0003:000128a8       ??_C@_0N@GKHJ@?4N?5c?5?$CD5a6500?$AA@ 004998a8     signalConnectionListDlg.obj
 0003:000128b8       ??_C@_0N@NEAP@?$CDt?5c?5?$CD5a5d5a?$AA@ 004998b8     signalConnectionListDlg.obj
 0003:000128c8       ??_C@_0N@EGON@?40?5c?5?$CD5a595a?$AA@ 004998c8     signalConnectionListDlg.obj
 0003:000128d8       ??_C@_0N@OGBG@?$CDu?5c?5?$CD524d4a?$AA@ 004998d8     signalConnectionListDlg.obj
 0003:000128e8       ??_C@_0N@OAPE@?$CDh?5c?5?$CD4a4910?$AA@ 004998e8     signalConnectionListDlg.obj
 0003:000128f8       ??_C@_0N@KBEM@?45?5c?5?$CD424910?$AA@ 004998f8     signalConnectionListDlg.obj
 0003:00012908       ??_C@_0N@MNDF@?$CDm?5c?5?$CD424100?$AA@ 00499908     signalConnectionListDlg.obj
 0003:00012918       ??_C@_0N@LNLJ@?4O?5c?5?$CD394500?$AA@ 00499918     signalConnectionListDlg.obj
 0003:00012928       ??_C@_0N@OFEJ@?4U?5c?5?$CD313800?$AA@ 00499928     signalConnectionListDlg.obj
 0003:00012938       ??_C@_0N@NHEF@?4P?5c?5?$CD212c00?$AA@ 00499938     signalConnectionListDlg.obj
 0003:00012948       ??_C@_0N@EBNC@?4A?5c?5?$CD212810?$AA@ 00499948     signalConnectionListDlg.obj
 0003:00012958       ??_C@_0N@FMCL@?4g?5c?5?$CD101808?$AA@ 00499958     signalConnectionListDlg.obj
 0003:00012968       ??_C@_0N@JFON@?4S?5c?5?$CD101410?$AA@ 00499968     signalConnectionListDlg.obj
 0003:00012978       ??_C@_0N@OPCK@?4l?5c?5?$CD101408?$AA@ 00499978     signalConnectionListDlg.obj
 0003:00012988       ??_C@_0N@HKED@?4c?5c?5?$CD101400?$AA@ 00499988     signalConnectionListDlg.obj
 0003:00012998       ??_C@_0N@KHLG@?4d?5c?5?$CD101000?$AA@ 00499998     signalConnectionListDlg.obj
 0003:000129a8       ??_C@_0N@NLHA@?4q?5c?5?$CD081000?$AA@ 004999a8     signalConnectionListDlg.obj
 0003:000129b8       ??_C@_0N@FEIB@?4Z?5c?5?$CD080800?$AA@ 004999b8     signalConnectionListDlg.obj
 0003:000129c8       ??_C@_0N@OOEA@?4T?5c?5?$CD000000?$AA@ 004999c8     signalConnectionListDlg.obj
 0003:000129d8       ??_C@_0L@LIHA@23?516?589?52?$AA@ 004999d8     signalConnectionListDlg.obj
 0003:000129e4       ??_C@_06EGIC@import?$AA@   004999e4     signalConnectionListDlg.obj
 0003:000129ec       ??_C@_08NDKA@doDelete?$AA@ 004999ec     signalConnectionListDlg.obj
 0003:000129f8       ??_C@_06LEFH@table1?$AA@   004999f8     signalConnectionListDlg.obj
 0003:00012a00       ??_C@_07DIDB@layout5?$AA@  00499a00     signalConnectionListDlg.obj
 0003:00012a08       ??_C@_0BO@DAM@signalConnectionListDlgLayout?$AA@ 00499a08     signalConnectionListDlg.obj
 0003:00012a28       ??_C@_03LJNO@Esc?$AA@      00499a28     signalConnectionListDlg.obj
 0003:00012a2c       ??_C@_0L@CAOA@Ctrl?$CLEnter?$AA@ 00499a2c     signalConnectionListDlg.obj
 0003:00012a38       ??_C@_02HAGF@OK?$AA@       00499a38     signalConnectionListDlg.obj
 0003:00012a3c       ??_C@_06PCIG@Import?$AA@   00499a3c     signalConnectionListDlg.obj
 0003:00012a44       ??_C@_0BG@HIAP@UI?5Connections?5Editor?$AA@ 00499a44     signalConnectionListDlg.obj
 0003:00012a5c       ??_C@_0L@KEGM@textLabel4?$AA@ 00499a5c     sizeposedit.obj
 0003:00012a68       ??_C@_0L@PBIJ@textLabel3?$AA@ 00499a68     sizeposedit.obj
 0003:00012a74       ??_C@_09OKP@groupBox1?$AA@ 00499a74     sizeposedit.obj
 0003:00012a80       ??_C@_0BG@IPCF@sizePosEditBaseLayout?$AA@ 00499a80     sizeposedit.obj
 0003:00012a98       ??_C@_01PBHI@H?$AA@        00499a98     sizeposedit.obj
 0003:00012a9c       ??_C@_01FJFF@W?$AA@        00499a9c     sizeposedit.obj
 0003:00012aa0       ??_C@_01PCJP@Y?$AA@        00499aa0     sizeposedit.obj
 0003:00012aa4       ??_C@_01FIAI@X?$AA@        00499aa4     sizeposedit.obj
 0003:00012aa8       ??_C@_08BLKF@Position?$AA@ 00499aa8     sizeposedit.obj
 0003:00012ab4       ??_C@_0BD@IJGB@Size?1Position?5Edit?$AA@ 00499ab4     sizeposedit.obj
 0003:00012ac8       ??_C@_0BF@DOJL@?4?4?$CD?$CD?$CD?$CD?$CD?$CD?$CD?$CD?$CD?$CD?$CD?$CD?$CD?$CD?$CD?4?4?4?$AA@ 00499ac8     system_setup.obj
 0003:00012ae0       ??_C@_0BF@KKIC@?4?4?$CDbbbbbbbbbbbbb?$CD?4?4?4?$AA@ 00499ae0     system_setup.obj
 0003:00012af8       ??_C@_0BF@NBLA@?4?4?$CDbbbb?$CD?$CD?$CD?$CD?$CDbbbb?$CD?4?4?4?$AA@ 00499af8     system_setup.obj
 0003:00012b10       ??_C@_0BF@LGBA@?4?4?$CDbbb?$CDhhhhh?$CDbbb?$CD?4?4?4?$AA@ 00499b10     system_setup.obj
 0003:00012b28       ??_C@_0BF@DDNI@?4?4?$CDbb?$CDhhhhhhh?$CDbb?$CD?4?4?4?$AA@ 00499b28     system_setup.obj
 0003:00012b40       ??_C@_0BF@JOIL@?4?4?$CDb?$CDgghhhhhff?$CDb?$CD?4?4?4?$AA@ 00499b40     system_setup.obj
 0003:00012b58       ??_C@_0BF@DMBE@?4?4?$CDb?$CDggghhhfff?$CDb?$CD?4?4?4?$AA@ 00499b58     system_setup.obj
 0003:00012b70       ??_C@_0BF@MEK@?4?4?$CDb?$CDgggghffff?$CDb?$CD?4?4?4?$AA@ 00499b70     system_setup.obj
 0003:00012b88       ??_C@_0BF@CHBE@?4?4?$CDb?$CDggggfffff?$CDb?$CD?4?4?4?$AA@ 00499b88     system_setup.obj
 0003:00012ba0       ??_C@_0BF@EKPO@?4?4?$CDb?$CDgggffffff?$CDb?$CD?4?4?4?$AA@ 00499ba0     system_setup.obj
 0003:00012bb8       ??_C@_0BF@CEGO@?4?4?$CDbb?$CDgffffff?$CDbb?$CD?4?4?4?$AA@ 00499bb8     system_setup.obj
 0003:00012bd0       ??_C@_0BF@DDAI@?4?4?$CDbbb?$CDfffff?$CDbbb?$CD?4?4?4?$AA@ 00499bd0     system_setup.obj
 0003:00012be8       ??_C@_0BF@ENBO@?4?4?$CDbbbb?$CD?$CD?$CD?$CD?$CD?$CD?$CD?$CD?$CD?$CD?4?4?4?$AA@ 00499be8     system_setup.obj
 0003:00012c00       ??_C@_0BF@PAON@?4?4?$CDbbbbbbbb?$CDbedca?4?4?4?$AA@ 00499c00     system_setup.obj
 0003:00012c18       ??_C@_0BF@KDA@?4?4?$CDbbbbbbbb?$CDedca?4?4?4?4?$AA@ 00499c18     system_setup.obj
 0003:00012c30       ??_C@_0BF@MIDC@?4?4?$CDbbbbbbbb?$CDdca?4?4?4?4?4?$AA@ 00499c30     system_setup.obj
 0003:00012c48       ??_C@_0BF@EALI@?4?4?$CDbbbbbbbb?$CDca?4?4?4?4?4?4?$AA@ 00499c48     system_setup.obj
 0003:00012c60       ??_C@_0BF@JADM@?4?4?$CD?$CD?$CD?$CD?$CD?$CD?$CD?$CD?$CD?$CDa?4?4?4?4?4?4?4?$AA@ 00499c60     system_setup.obj
 0003:00012c78       ??_C@_0M@IEEE@g?5c?5?$CDffff00?$AA@ 00499c78     system_setup.obj
 0003:00012c84       ??_C@_0M@NDGK@h?5c?5?$CDff0000?$AA@ 00499c84     system_setup.obj
 0003:00012c90       ??_C@_0M@OLLC@e?5c?5?$CDc2c2c2?$AA@ 00499c90     system_setup.obj
 0003:00012c9c       ??_C@_0M@BAIF@d?5c?5?$CD878787?$AA@ 00499c9c     system_setup.obj
 0003:00012ca8       ??_C@_0M@EJDH@c?5c?5?$CD5c5c5c?$AA@ 00499ca8     system_setup.obj
 0003:00012cb4       ??_C@_0M@DMHJ@a?5c?5?$CD2e2e2e?$AA@ 00499cb4     system_setup.obj
 0003:00012cc0       ??_C@_0M@NANA@f?5c?5?$CD00c900?$AA@ 00499cc0     system_setup.obj
 0003:00012ccc       ??_C@_0L@MCAO@20?520?510?51?$AA@ 00499ccc     system_setup.obj
 0003:00012cd8       ??_C@_0BF@BPOO@aaaaaaaaaaaaa?4?4?4?4?4?4?4?$AA@ 00499cd8     system_setup.obj
 0003:00012cf0       ??_C@_0BF@MCOL@aaeeeeeeeeeeea?4?4?4?4?4?4?$AA@ 00499cf0     system_setup.obj
 0003:00012d08       ??_C@_0BF@OPID@aaeeeeeeeeeeeaa?4?4?4?4?4?$AA@ 00499d08     system_setup.obj
 0003:00012d20       ??_C@_0BF@GILP@abaeeeeeeeeeeeaa?4?4?4?4?$AA@ 00499d20     system_setup.obj
 0003:00012d38       ??_C@_0BF@GKBD@abaaeeeeeeeeeeeaa?4?4?4?$AA@ 00499d38     system_setup.obj
 0003:00012d50       ??_C@_0BF@OCFE@abadaeeeeeeeeeeeaa?4?4?$AA@ 00499d50     system_setup.obj
 0003:00012d68       ??_C@_0BF@KFPB@abaddaeeeeeeeeeeeaa?4?$AA@ 00499d68     system_setup.obj
 0003:00012d80       ??_C@_0BF@FC@abadddaeeeeeeeeeeeaa?$AA@ 00499d80     system_setup.obj
 0003:00012d98       ??_C@_0BF@OIML@abbadccaaaaaaaaaaaaa?$AA@ 00499d98     system_setup.obj
 0003:00012db0       ??_C@_0BF@BAIF@abbbacccccaba?4?4?4?4?4?4?4?$AA@ 00499db0     system_setup.obj
 0003:00012dc8       ??_C@_0BF@ILHH@abbbbaaaaabba?4?4?4?4?4?4?4?$AA@ 00499dc8     system_setup.obj
 0003:00012de0       ??_C@_0BF@FGHN@abbbbbbbbbbba?4?4?4?4?4?4?4?$AA@ 00499de0     system_setup.obj
 0003:00012df8       ??_C@_0BF@FNOJ@abbbbaaaaaaaa?4?4?4?4?4?4?4?$AA@ 00499df8     system_setup.obj
 0003:00012e10       ??_C@_0BF@PPEC@?4aaaa?4?4?4?4?4?4?4?4?4?4?4?4?4?4?4?$AA@ 00499e10     system_setup.obj
 0003:00012e28       ??_C@_0BF@JDGL@?4?4?4?4?4?4?4?4?4?4?4?4?4?4?$CD?$CD?$CD?$CD?$CD?4?$AA@ 00499e28     system_setup.obj
 0003:00012e40       ??_C@_0BF@PNEK@?4?4?4?4?4?4?4?4?4?4?4?4?4?4?4?$CD?$CD?$CD?$CD?4?$AA@ 00499e40     system_setup.obj
 0003:00012e58       ??_C@_0BF@NMNA@?4?4?4?4?4?4?4?4?4?4?4?4?4?4?4?4?$CD?$CD?$CD?4?$AA@ 00499e58     system_setup.obj
 0003:00012e70       ??_C@_0BF@BNCP@?4?4?4?4?4?4?4?4?4?$CD?4?4?4?4?$CD?$CD?4?$CD?$CD?4?$AA@ 00499e70     system_setup.obj
 0003:00012e88       ??_C@_0BF@BCNN@?4?4?4?4?4?4?4?4?4?4?$CD?$CD?$CD?$CD?4?4?4?4?$CD?4?$AA@ 00499e88     system_setup.obj
 0003:00012ea0       ??_C@_0M@IAJL@e?5c?5?$CDa500ff?$AA@ 00499ea0     system_setup.obj
 0003:00012eac       ??_C@_0BF@IBFO@b?4?4?4?4?4?4?4?4?4?4?4?4?4?4?4?4?4?4b?$AA@ 00499eac     system_setup.obj
 0003:00012ec4       ??_C@_0BF@IFFL@?4?$CD?$CD?$CD?4?4?4?4?4?4?4?4?4aaa?4?$CD?$CD?4?$AA@ 00499ec4     system_setup.obj
 0003:00012edc       ??_C@_0BF@NIJK@?4?$CD?$CD?$CD?4?4?4?4?4?4?4?4?4?4?4?4?4?$CD?$CD?4?$AA@ 00499edc     system_setup.obj
 0003:00012ef4       ??_C@_0BF@OKMN@?4?$CD?$CD?$CD?$CD?4?4?4?4?4?4?4?4?4?4?4?$CD?$CD?$CD?4?$AA@ 00499ef4     system_setup.obj
 0003:00012f0c       ??_C@_0BF@JNIM@?4?$CD?$CD?$CD?4a?4eeeeee?4a?4?$CD?$CD?$CD?4?$AA@ 00499f0c     system_setup.obj
 0003:00012f24       ??_C@_0BF@PIJN@?4?$CD?$CD?4a?4eeeeeeee?4a?4?$CD?$CD?4?$AA@ 00499f24     system_setup.obj
 0003:00012f3c       ??_C@_0BF@HCLL@?4?$CD?$CD?4?4ddeeeeeecc?4?4?$CD?$CD?4?$AA@ 00499f3c     system_setup.obj
 0003:00012f54       ??_C@_0BF@JDDB@?4?$CD?$CD?4?4dddeeeeccc?4?4?$CD?$CD?4?$AA@ 00499f54     system_setup.obj
 0003:00012f6c       ??_C@_0BF@JJOE@?4?$CD?$CD?4?4dddddecccc?4?4?$CD?$CD?4?$AA@ 00499f6c     system_setup.obj
 0003:00012f84       ??_C@_0BF@CMMG@?4?$CD?$CD?4?4ddddcccccc?4?4?$CD?$CD?4?$AA@ 00499f84     system_setup.obj
 0003:00012f9c       ??_C@_0BF@CNFD@?4?$CD?$CD?4?4dddccccccc?4?4?$CD?$CD?4?$AA@ 00499f9c     system_setup.obj
 0003:00012fb4       ??_C@_0BF@CFPF@?4?$CD?$CD?4a?4dccccccc?4a?4?4?4?4?$AA@ 00499fb4     system_setup.obj
 0003:00012fcc       ??_C@_0BF@PDIA@?4?$CD?$CD?4aa?4cccccc?4aa?4bb?4?$AA@ 00499fcc     system_setup.obj
 0003:00012fe4       ??_C@_0BF@HHKB@?4?$CD?$CD?4aaa?4?4?4?4?4?4aaa?4bb?4?$AA@ 00499fe4     system_setup.obj
 0003:00012ffc       ??_C@_0M@LLNE@d?5c?5?$CDffff00?$AA@ 00499ffc     system_setup.obj
 0003:00013008       ??_C@_0M@MHKE@e?5c?5?$CDff0000?$AA@ 0049a008     system_setup.obj
 0003:00013014       ??_C@_0M@OAJA@a?5c?5?$CD999999?$AA@ 0049a014     system_setup.obj
 0003:00013020       ??_C@_0M@JAGA@c?5c?5?$CD00c900?$AA@ 0049a020     system_setup.obj
 0003:0001302c       ??_C@_0M@CPHI@?$CD?5c?5?$CD002eff?$AA@ 0049a02c     system_setup.obj
 0003:00013038       ??_C@_0M@ILKP@?4?5c?5?$CD000000?$AA@ 0049a038     system_setup.obj
 0003:00013044       ??_C@_08CIDM@b?5c?5None?$AA@ 0049a044     system_setup.obj
 0003:00013050       ??_C@_09IMOI@20?520?57?51?$AA@ 0049a050     system_setup.obj
 0003:0001305c       ??_C@_0CB@BJNP@?4?4?4?4?4?4?4?4?4?4?4?4?4?4?4?4?4?4?4?4?4?4?$CD?$CD?$CD?$CD?4?4?4?4?4?4@ 0049a05c     system_setup.obj
 0003:00013080       ??_C@_0CB@OLOI@?4?4?4?4?4?4?4?4?4?4?4?4?4?4?4?4?4?4?4?4?$CD?$CDd?$CDb?$CD?$CD?$CD?4?4?4?4@ 0049a080     system_setup.obj
 0003:000130a4       ??_C@_0CB@KNI@?4?4?4?4?4?4?4?4?4?4?4?4?4?4?4?4?4?4?$CD?$CDddd?$CDb?$CD?$CD?$CD?$CD?$CD?4?4@ 0049a0a4     system_setup.obj
 0003:000130c8       ??_C@_0CB@JHEL@?4?4?4?4?4?4?4?4?4?4?4?4?4?4?4?4?$CD?$CDddggd?$CDb?$CD?$CD?$CD?$CD?$CD?$CD?4@ 0049a0c8     system_setup.obj
 0003:000130ec       ??_C@_0CB@GFOH@?4?4?4?4?4?4?4?4?4?4?4?4?4?4?$CD?$CDddggggd?$CDb?$CD?$CD?$CD?$CD?$CD?4?4@ 0049a0ec     system_setup.obj
 0003:00013110       ??_C@_0CB@CFHJ@?4?4?4?4?4?4?4?4?4?4?4?4?$CD?$CDddggggggd?$CDb?$CD?$CD?$CD?4?4?4?4@ 0049a110     system_setup.obj
 0003:00013134       ??_C@_0CB@DENH@?4?4?4?4?4?4?4?4?4?4?$CD?$CDddggggggggd?$CDb?$CD?4?4?4?4?4?4@ 0049a134     system_setup.obj
 0003:00013158       ??_C@_0CB@IOCI@?4?4?4?4?4?4?4?4?$CD?$CDddggggggggggd?$CDb?$CD?4?4?4?4?4?4@ 0049a158     system_setup.obj
 0003:0001317c       ??_C@_0CB@DKDO@?4?4?4?4?4?4?$CD?$CDddggggggggggggd?$CDb?$CD?4?4?4?4?4?4@ 0049a17c     system_setup.obj
 0003:000131a0       ??_C@_0CB@PIPA@?4?4?4?4?$CD?$CDddgggfggggggggggd?$CDb?$CD?4?4?4?4?4?4@ 0049a1a0     system_setup.obj
 0003:000131c4       ??_C@_0CB@DLEA@?4?4?$CD?$CDddggfgfgggggggggggd?$CDb?$CD?4?4?4?4?4?4@ 0049a1c4     system_setup.obj
 0003:000131e8       ??_C@_0CB@MGA@?4?$CDddggffffgfgfggggggggd?$CDb?$CD?4?4?4?4?4?4@ 0049a1e8     system_setup.obj
 0003:0001320c       ??_C@_0CB@PJDJ@?4?$CDggfffffgfgfgggggggggd?$CDb?$CD?4?4?4?4?4?4@ 0049a20c     system_setup.obj
 0003:00013230       ??_C@_0CB@MOGJ@?4?$CDffffffffffgfgfggggggd?$CDb?$CD?4?4?4?4?4?4@ 0049a230     system_setup.obj
 0003:00013254       ??_C@_0CB@MEIG@?4?$CDfffffffffgfgfgggggggdhb?$CD?4?4?4?4?4?4@ 0049a254     system_setup.obj
 0003:00013278       ??_C@_0CB@HKBH@?4?$CDcfcfffffffffgfgfggggd?$CDb?$CD?4?4?4?4?4?4@ 0049a278     system_setup.obj
 0003:0001329c       ??_C@_0CB@JLLB@?4?$CDfcfffffffffgfgfgggggd?$CDb?$CD?4?4?4?4?4?4@ 0049a29c     system_setup.obj
 0003:000132c0       ??_C@_0CB@HGKK@?4?$CDcfcfcfffffffffgfgfggd?$CDb?$CD?4?4?4?4?4?4@ 0049a2c0     system_setup.obj
 0003:000132e4       ??_C@_0CB@LBHP@?4?$CDccfcfffffffffgfgfgfgd?$CDb?$CD?4?4?4?4?4?4@ 0049a2e4     system_setup.obj
 0003:00013308       ??_C@_0CB@LOAK@?4?$CDcfcfcfcfffffffffgfgd?$CDbb?$CD?4?4?4?4?4?4@ 0049a308     system_setup.obj
 0003:0001332c       ??_C@_0CB@NPHF@?4?$CDccccfcfffffffgd?$CDdd?$CD?$CDba?$CD?4?4?4?4?4?4?4@ 0049a32c     system_setup.obj
 0003:00013350       ??_C@_0CB@BAKF@?4?$CDcccfcfcfcffgd?$CD?$CDbh?$CDbbba?$CD?4?4?4?4?4?4?4@ 0049a350     system_setup.obj
 0003:00013374       ??_C@_0CB@FKGL@?4?$CDccccccfcfffd?$CDbbbbbbaa?$CD?4?4?4?4?4?4?4?4@ 0049a374     system_setup.obj
 0003:00013398       ??_C@_0CB@KKEB@?4?$CDcccccfcffgg?$CDbbbbaaaaa?$CD?4?4?4?4?4?4?4?4@ 0049a398     system_setup.obj
 0003:000133bc       ??_C@_0CB@BNLK@?4?$CDcccccccccd?$CD?$CDbaaaaaaa?$CD?4?4?4?4?4?4?4?4?4@ 0049a3bc     system_setup.obj
 0003:000133e0       ??_C@_0CB@HOEF@?4?$CDcccccccd?$CD?$CDbaaaaaaaa?$CD?$CD?4?4?4?4?4?4?4?4?4@ 0049a3e0     system_setup.obj
 0003:00013404       ??_C@_0CB@LMAH@?4?$CDcccccd?$CD?$CDbaaa?$CD?$CDaaa?$CD?$CD?4?4?4?4?4?4?4?4?4?4?4@ 0049a404     system_setup.obj
 0003:00013428       ??_C@_0CB@HDPO@?4?$CDcccd?$CD?$CDbaaa?$CD?$CD?4?4?$CD?$CDe?4?4?4?4?4?4?4?4?4?4?4?4?4@ 0049a428     system_setup.obj
 0003:0001344c       ??_C@_0CB@FFDF@?4?$CDcd?$CD?$CDbaaa?$CD?$CD?4?4?4?4?4?4?4?4?4?4?4?4?4?4?4?4?4?4?4?4@ 0049a44c     system_setup.obj
 0003:00013470       ??_C@_0CB@NAEH@?4?$CD?$CD?$CDbaaa?$CD?$CD?4?4?4?4?4?4?4?4?4?4?4?4?4?4?4?4?4?4?4?4?4?4@ 0049a470     system_setup.obj
 0003:00013494       ??_C@_0CB@PJID@?4?4?4?$CDaa?$CD?$CD?4?4?4?4?4?4?4?4?4?4?4?4?4?4?4?4?4?4?4?4?4?4?4?4@ 0049a494     system_setup.obj
 0003:000134b8       ??_C@_0CB@MJJK@?4?4?4?$CD?$CD?$CD?4?4?4?4?4?4?4?4?4?4?4?4?4?4?4?4?4?4?4?4?4?4?4?4?4?4@ 0049a4b8     system_setup.obj
 0003:000134dc       ??_C@_0M@IGJ@a?5c?5?$CDc0ffc0?$AA@ 0049a4dc     system_setup.obj
 0003:000134e8       ??_C@_0M@GFGL@f?5c?5?$CDc0c0c0?$AA@ 0049a4e8     system_setup.obj
 0003:000134f4       ??_C@_0M@GJAJ@g?5c?5?$CDa0a0a4?$AA@ 0049a4f4     system_setup.obj
 0003:00013500       ??_C@_0M@FDCD@d?5c?5?$CD585858?$AA@ 0049a500     system_setup.obj
 0003:0001350c       ??_C@_0M@BPP@h?5c?5?$CD400000?$AA@ 0049a50c     system_setup.obj
 0003:00013518       ??_C@_0M@KJFI@e?5c?5?$CD303030?$AA@ 0049a518     system_setup.obj
 0003:00013524       ??_C@_0M@LIEM@b?5c?5?$CD00c000?$AA@ 0049a524     system_setup.obj
 0003:00013530       ??_C@_0L@MMIJ@32?532?510?51?$AA@ 0049a530     system_setup.obj
 0003:0001353c       ??_C@_09NJLC@iconView1?$AA@ 0049a53c     system_setup.obj
 0003:00013548       ??_C@_05KLHA@Users?$AA@    0049a548     system_setup.obj
 0003:00013550       ??_C@_0N@EABO@Workstations?$AA@ 0049a550     system_setup.obj
 0003:00013560       ??_C@_08DIGN@Hardware?$AA@ 0049a560     system_setup.obj
 0003:0001356c       ??_C@_07JNDI@Devices?$AA@  0049a56c     system_setup.obj
 0003:00013574       ??_C@_0CB@PACC@2messageReceived?$CIconst?5QString?$CG?$CJ@ 0049a574     qtsingleapplication:qtsingleapplication_win.obj
 0003:00013598       ??_C@_0BG@KDJG@1activateMainWidget?$CI?$CJ?$AA@ 0049a598     qtsingleapplication:qtsingleapplication_win.obj
 0003:000135b0       ??_C@_0CA@MGPF@messageReceived?$CIconst?5QString?$CG?$CJ?$AA@ 0049a5b0     qtsingleapplication:moc_qtsingleapplication.obj
 0003:000135d0       ??_C@_0BA@KNKB@messageReceived?$AA@ 0049a5d0     qtsingleapplication:moc_qtsingleapplication.obj
 0003:000135f0       ??_C@_0BF@DPJF@activateMainWidget?$CI?$CJ?$AA@ 0049a5f0     qtsingleapplication:moc_qtsingleapplication.obj
 0003:00013608       ??_C@_0CA@LAIH@sendMessage?$CIconst?5QString?$CG?0int?$CJ?$AA@ 0049a608     qtsingleapplication:moc_qtsingleapplication.obj
 0003:00013628       ??_C@_0BM@BFIN@sendMessage?$CIconst?5QString?$CG?$CJ?$AA@ 0049a628     qtsingleapplication:moc_qtsingleapplication.obj
 0003:00013644       ??_C@_0BD@DIIL@activateMainWidget?$AA@ 0049a644     qtsingleapplication:moc_qtsingleapplication.obj
 0003:00013658       ??_C@_0M@LKJJ@sendMessage?$AA@ 0049a658     qtsingleapplication:moc_qtsingleapplication.obj
 0003:00013664       ??_C@_0BE@NPLF@QtSingleApplication?$AA@ 0049a664     qtsingleapplication:moc_qtsingleapplication.obj
 0003:00013678       ??_C@_07OGDM@timeout?$AA@  0049a678     qtsingleapplication:moc_qtsingleapplication.obj
 0003:00013680       ___defaultmatherr          0049a680     MSVCRT:merr.obj
 0003:00013688       ??_C@_00A@?$AA@            0049a688     controldrag.obj
 0003:00013690       ?_Nilrefs@?$_Tree@VQString@@U?$pair@$$CBVQString@@VQStringList@@@std@@U_Kfn@?$map@VQString@@VQStringList@@U?$less@VQString@@@std@@V?$allocator@VQStringList@@@4@@3@U?$less@VQString@@@3@V?$allocator@VQStringList@@@3@@std@@1IA 0049a690     importsettingsimpl.obj
 0003:00013694       ?_Nil@?$_Tree@VQString@@U?$pair@$$CBVQString@@VQStringList@@@std@@U_Kfn@?$map@VQString@@VQStringList@@U?$less@VQString@@@std@@V?$allocator@VQStringList@@@4@@3@U?$less@VQString@@@3@V?$allocator@VQStringList@@@3@@std@@1PAU_Node@12@A 0049a694     importsettingsimpl.obj
 0003:00013698       ?_Nilrefs@?$_Tree@VQString@@V1@U_Kfn@?$set@VQString@@U?$less@VQString@@@std@@V?$allocator@VQString@@@3@@std@@U?$less@VQString@@@4@V?$allocator@VQString@@@4@@std@@1IA 0049a698     signalConnectionListDlgimpl.obj
 0003:0001369c       ?_Nil@?$_Tree@VQString@@V1@U_Kfn@?$set@VQString@@U?$less@VQString@@@std@@V?$allocator@VQString@@@3@@std@@U?$less@VQString@@@4@V?$allocator@VQString@@@4@@std@@1PAU_Node@12@A 0049a69c     signalConnectionListDlgimpl.obj
 0003:000136a4       ?m_pPanelStyle@vis_ed_mdi@@0PAVQStyle@@A 0049a6a4     vis_ed_mdi.obj
 0003:000136a8       ?serialno@w_undo_event@@2HA 0049a6a8     vis_ed_widget.obj
 0003:000136ac       ?_Nilrefs@?$_Tree@PAVQWidget@@U?$pair@QAVQWidget@@PAV1@@std@@U_Kfn@?$map@PAVQWidget@@PAV1@U?$less@PAVQWidget@@@std@@V?$allocator@PAVQWidget@@@3@@3@U?$less@PAVQWidget@@@3@V?$allocator@PAVQWidget@@@3@@std@@1IA 0049a6ac     vis_ed_widget.obj
 0003:000136b0       ?_Nil@?$_Tree@PAVQWidget@@U?$pair@QAVQWidget@@PAV1@@std@@U_Kfn@?$map@PAVQWidget@@PAV1@U?$less@PAVQWidget@@@std@@V?$allocator@PAVQWidget@@@3@@3@U?$less@PAVQWidget@@@3@V?$allocator@PAVQWidget@@@3@@std@@1PAU_Node@12@A 0049a6b0     vis_ed_widget.obj
 0003:000136c4       ?metaObj@device_list@@0PAVQMetaObject@@A 0049a6c4     moc_device_list.obj
 0003:0001371c       ?metaObj@device_list_editBase@@0PAVQMetaObject@@A 0049a71c     moc_device_list_edit.obj
 0003:00013728       ?metaObj@deviceTypeListView@@0PAVQMetaObject@@A 0049a728     moc_deviceTypeListView.obj
 0003:00013738       ?metaObj@dialog@@0PAVQMetaObject@@A 0049a738     moc_dialog.obj
 0003:00013754       ?metaObj@dialogeditBase@@0PAVQMetaObject@@A 0049a754     moc_dialogedit.obj
 0003:0001375c       ?metaObj@dialogedit@@0PAVQMetaObject@@A 0049a75c     moc_dialogeditimpl.obj
 0003:00013764       ?metaObj@distributeBase@@0PAVQMetaObject@@A 0049a764     moc_distribute.obj
 0003:0001376c       ?metaObj@distribute@@0PAVQMetaObject@@A 0049a76c     moc_distributeimpl.obj
 0003:00013774       ?metaObj@duplicateDlgBase@@0PAVQMetaObject@@A 0049a774     moc_duplicatedlg.obj
 0003:0001377c       ?metaObj@duplicateDlg@@0PAVQMetaObject@@A 0049a77c     moc_duplicatedlgimpl.obj
 0003:00013788       ?metaObj@editHandles@@0PAVQMetaObject@@A 0049a788     moc_editHandles.obj
 0003:000137b4       ?metaObj@file_newBase@@0PAVQMetaObject@@A 0049a7b4     moc_file_new.obj
 0003:000137c0       ?metaObj@file_new@@0PAVQMetaObject@@A 0049a7c0     moc_file_new_imp.obj
 0003:000137dc       ?metaObj@globalstyleDlgBase@@0PAVQMetaObject@@A 0049a7dc     moc_globalstyledlg.obj
 0003:000137e8       ?metaObj@globalStyleDlg@@0PAVQMetaObject@@A 0049a7e8     moc_globalstyledlgimpl.obj
 0003:000137f8       ?metaObj@handleBlock@@0PAVQMetaObject@@A 0049a7f8     moc_handleBlock.obj
 0003:00013824       ?metaObj@importSettingsBase@@0PAVQMetaObject@@A 0049a824     moc_importsettings.obj
 0003:0001382c       ?metaObj@importSettings@@0PAVQMetaObject@@A 0049a82c     moc_importsettingsimpl.obj
 0003:00013834       ?metaObj@manualSettingsBase@@0PAVQMetaObject@@A 0049a834     moc_manualsettings.obj
 0003:0001383c       ?metaObj@manualSettings@@0PAVQMetaObject@@A 0049a83c     moc_manualsettingsimpl.obj
 0003:00013844       ?metaObj@objectViewBase@@0PAVQMetaObject@@A 0049a844     moc_objectview.obj
 0003:00013850       ?metaObj@objectView@@0PAVQMetaObject@@A 0049a850     moc_objectviewimpl.obj
 0003:00013890       ?metaObj@pasteTable@@0PAVQMetaObject@@A 0049a890     moc_pasteTable.obj
 0003:000138a0       ?metaObj@pickbox@@0PAVQMetaObject@@A 0049a8a0     moc_pickbox.obj
 0003:000138c0       ?metaObj@pickbox_paramlist@@0PAVQMetaObject@@A 0049a8c0     moc_pickbox_paramlist.obj
 0003:000138c8       ?metaObj@signalConnectionListDlg@@0PAVQMetaObject@@A 0049a8c8     moc_signalConnectionListDlg.obj
 0003:000138d8       ?metaObj@signalConnectionListDlgImpl@@0PAVQMetaObject@@A 0049a8d8     moc_signalConnectionListDlgimpl.obj
 0003:00013924       ?metaObj@sizePosEditBase@@0PAVQMetaObject@@A 0049a924     moc_sizeposedit.obj
 0003:0001392c       ?metaObj@sizePosEdit@@0PAVQMetaObject@@A 0049a92c     moc_sizeposeditimpl.obj
 0003:00013934       ?metaObj@system_setupBase@@0PAVQMetaObject@@A 0049a934     moc_system_setup.obj
 0003:0001393c       ?metaObj@system_setup@@0PAVQMetaObject@@A 0049a93c     moc_system_setupimpl.obj
 0003:00013944       ?metaObj@testSettingsBase@@0PAVQMetaObject@@A 0049a944     moc_testsettings.obj
 0003:0001394c       ?metaObj@testSettings@@0PAVQMetaObject@@A 0049a94c     moc_testsettingsimpl.obj
 0003:00013958       ?metaObj@textedit@@0PAVQMetaObject@@A 0049a958     moc_textedit.obj
 0003:0001398c       ?metaObj@vis_ed_mdi@@0PAVQMetaObject@@A 0049a98c     moc_vis_ed_mdi.obj
 0003:000139e8       ?metaObj@vis_ed_toolbars@@0PAVQMetaObject@@A 0049a9e8     moc_vis_ed_toolbars.obj
 0003:00013a18       ?metaObj@vis_ed_widget@@0PAVQMetaObject@@A 0049aa18     moc_vis_ed_widget.obj
 0003:00013b38       ?metaObj@xml_listview@@0PAVQMetaObject@@A 0049ab38     moc_xml_listview.obj
 0003:00013b48       ?metaObj@QtSingleApplication@@0PAVQMetaObject@@A 0049ab48     qtsingleapplication:moc_qtsingleapplication.obj
 0003:00013bb0       ?pHtmlHelpW@@3P6GPAUHWND__@@PAU1@PBGIK@ZA 0049abb0     htmlhelp:init.obj
 0003:00013bb4       ?pHtmlHelpA@@3P6GPAUHWND__@@PAU1@PBDIK@ZA 0049abb4     htmlhelp:init.obj
 0003:00013bb8       __dowildcard               0049abb8     MSVCRT:wildcard.obj
 0003:00013bbc       __newmode                  0049abbc     MSVCRT:_newmode.obj
 0003:00013bc0       __commode                  0049abc0     MSVCRT:xncommod.obj
 0003:00013bc4       __fmode                    0049abc4     MSVCRT:xtxtmode.obj
 0003:00013bc8       __adjust_fdiv              0049abc8     <common>
 0003:00013bcc       ___onexitend               0049abcc     <common>
 0003:00013bd0       ___onexitbegin             0049abd0     <common>

 entry point at        0001:0004fc4a

 Static symbols

 0001:0004ad20       _$E106                     0044bd20 f   moc_xml_listview.obj
 0001:0004ad30       _$E103                     0044bd30 f   moc_xml_listview.obj
 0001:0004ad50       _$E105                     0044bd50 f   moc_xml_listview.obj
 0001:0004ad60       _$E104                     0044bd60 f   moc_xml_listview.obj
 0001:00049330       _$E120                     0044a330 f   moc_vis_ed_widget.obj
 0001:00049340       _$E117                     0044a340 f   moc_vis_ed_widget.obj
 0001:00049360       _$E119                     0044a360 f   moc_vis_ed_widget.obj
 0001:00049370       _$E118                     0044a370 f   moc_vis_ed_widget.obj
 0001:00048f90       _$E109                     00449f90 f   moc_vis_ed_toolbars.obj
 0001:00048fa0       _$E106                     00449fa0 f   moc_vis_ed_toolbars.obj
 0001:00048fc0       _$E108                     00449fc0 f   moc_vis_ed_toolbars.obj
 0001:00048fd0       _$E107                     00449fd0 f   moc_vis_ed_toolbars.obj
 0001:00048610       _$E116                     00449610 f   moc_vis_ed_mdi.obj
 0001:00048620       _$E113                     00449620 f   moc_vis_ed_mdi.obj
 0001:00048640       _$E115                     00449640 f   moc_vis_ed_mdi.obj
 0001:00048650       _$E114                     00449650 f   moc_vis_ed_mdi.obj
 0001:00048280       _$E113                     00449280 f   moc_textedit.obj
 0001:00048290       _$E110                     00449290 f   moc_textedit.obj
 0001:000482b0       _$E112                     004492b0 f   moc_textedit.obj
 0001:000482c0       _$E111                     004492c0 f   moc_textedit.obj
 0001:00048140       _$E101                     00449140 f   moc_testsettingsimpl.obj
 0001:00048150       _$E98                      00449150 f   moc_testsettingsimpl.obj
 0001:00048170       _$E100                     00449170 f   moc_testsettingsimpl.obj
 0001:00048180       _$E99                      00449180 f   moc_testsettingsimpl.obj
 0001:00047f90       _$E100                     00448f90 f   moc_testsettings.obj
 0001:00047fa0       _$E97                      00448fa0 f   moc_testsettings.obj
 0001:00047fc0       _$E99                      00448fc0 f   moc_testsettings.obj
 0001:00047fd0       _$E98                      00448fd0 f   moc_testsettings.obj
 0001:00047e50       _$E102                     00448e50 f   moc_system_setupimpl.obj
 0001:00047e60       _$E99                      00448e60 f   moc_system_setupimpl.obj
 0001:00047e80       _$E101                     00448e80 f   moc_system_setupimpl.obj
 0001:00047e90       _$E100                     00448e90 f   moc_system_setupimpl.obj
 0001:00047ca0       _$E101                     00448ca0 f   moc_system_setup.obj
 0001:00047cb0       _$E98                      00448cb0 f   moc_system_setup.obj
 0001:00047cd0       _$E100                     00448cd0 f   moc_system_setup.obj
 0001:00047ce0       _$E99                      00448ce0 f   moc_system_setup.obj
 0001:00047b20       _$E101                     00448b20 f   moc_sizeposeditimpl.obj
 0001:00047b30       _$E98                      00448b30 f   moc_sizeposeditimpl.obj
 0001:00047b50       _$E100                     00448b50 f   moc_sizeposeditimpl.obj
 0001:00047b60       _$E99                      00448b60 f   moc_sizeposeditimpl.obj
 0001:00047930       _$E100                     00448930 f   moc_sizeposedit.obj
 0001:00047940       _$E97                      00448940 f   moc_sizeposedit.obj
 0001:00047960       _$E99                      00448960 f   moc_sizeposedit.obj
 0001:00047970       _$E98                      00448970 f   moc_sizeposedit.obj
 0001:00047640       _$E106                     00448640 f   moc_signalConnectionListDlgimpl.obj
 0001:00047650       _$E103                     00448650 f   moc_signalConnectionListDlgimpl.obj
 0001:00047670       _$E105                     00448670 f   moc_signalConnectionListDlgimpl.obj
 0001:00047680       _$E104                     00448680 f   moc_signalConnectionListDlgimpl.obj
 0001:00047490       _$E101                     00448490 f   moc_signalConnectionListDlg.obj
 0001:000474a0       _$E98                      004484a0 f   moc_signalConnectionListDlg.obj
 0001:000474c0       _$E100                     004484c0 f   moc_signalConnectionListDlg.obj
 0001:000474d0       _$E99                      004484d0 f   moc_signalConnectionListDlg.obj
 0001:00047280       _$E99                      00448280 f   moc_pickbox_paramlist.obj
 0001:00047290       _$E96                      00448290 f   moc_pickbox_paramlist.obj
 0001:000472b0       _$E98                      004482b0 f   moc_pickbox_paramlist.obj
 0001:000472c0       _$E97                      004482c0 f   moc_pickbox_paramlist.obj
 0001:00047060       _$E101                     00448060 f   moc_pickbox.obj
 0001:00047070       _$E98                      00448070 f   moc_pickbox.obj
 0001:00047090       _$E100                     00448090 f   moc_pickbox.obj
 0001:000470a0       _$E99                      004480a0 f   moc_pickbox.obj
 0001:00046d70       _$E115                     00447d70 f   moc_pasteTable.obj
 0001:00046d80       _$E112                     00447d80 f   moc_pasteTable.obj
 0001:00046da0       _$E114                     00447da0 f   moc_pasteTable.obj
 0001:00046db0       _$E113                     00447db0 f   moc_pasteTable.obj
 0001:000469a0       _$E101                     004479a0 f   moc_objectviewimpl.obj
 0001:000469b0       _$E98                      004479b0 f   moc_objectviewimpl.obj
 0001:000469d0       _$E100                     004479d0 f   moc_objectviewimpl.obj
 0001:000469e0       _$E99                      004479e0 f   moc_objectviewimpl.obj
 0001:000467f0       _$E100                     004477f0 f   moc_objectview.obj
 0001:00046800       _$E97                      00447800 f   moc_objectview.obj
 0001:00046820       _$E99                      00447820 f   moc_objectview.obj
 0001:00046830       _$E98                      00447830 f   moc_objectview.obj
 0001:00046690       _$E101                     00447690 f   moc_manualsettingsimpl.obj
 0001:000466a0       _$E98                      004476a0 f   moc_manualsettingsimpl.obj
 0001:000466c0       _$E100                     004476c0 f   moc_manualsettingsimpl.obj
 0001:000466d0       _$E99                      004476d0 f   moc_manualsettingsimpl.obj
 0001:000464e0       _$E100                     004474e0 f   moc_manualsettings.obj
 0001:000464f0       _$E97                      004474f0 f   moc_manualsettings.obj
 0001:00046510       _$E99                      00447510 f   moc_manualsettings.obj
 0001:00046520       _$E98                      00447520 f   moc_manualsettings.obj
 0001:00046380       _$E103                     00447380 f   moc_importsettingsimpl.obj
 0001:00046390       _$E100                     00447390 f   moc_importsettingsimpl.obj
 0001:000463b0       _$E102                     004473b0 f   moc_importsettingsimpl.obj
 0001:000463c0       _$E101                     004473c0 f   moc_importsettingsimpl.obj
 0001:000461d0       _$E100                     004471d0 f   moc_importsettings.obj
 0001:000461e0       _$E97                      004471e0 f   moc_importsettings.obj
 0001:00046200       _$E99                      00447200 f   moc_importsettings.obj
 0001:00046210       _$E98                      00447210 f   moc_importsettings.obj
 0001:00045f20       _$E99                      00446f20 f   moc_handleBlock.obj
 0001:00045f30       _$E96                      00446f30 f   moc_handleBlock.obj
 0001:00045f50       _$E98                      00446f50 f   moc_handleBlock.obj
 0001:00045f60       _$E97                      00446f60 f   moc_handleBlock.obj
 0001:00045d60       _$E101                     00446d60 f   moc_globalstyledlgimpl.obj
 0001:00045d70       _$E98                      00446d70 f   moc_globalstyledlgimpl.obj
 0001:00045d90       _$E100                     00446d90 f   moc_globalstyledlgimpl.obj
 0001:00045da0       _$E99                      00446da0 f   moc_globalstyledlgimpl.obj
 0001:00045bb0       _$E100                     00446bb0 f   moc_globalstyledlg.obj
 0001:00045bc0       _$E97                      00446bc0 f   moc_globalstyledlg.obj
 0001:00045be0       _$E99                      00446be0 f   moc_globalstyledlg.obj
 0001:00045bf0       _$E98                      00446bf0 f   moc_globalstyledlg.obj
 0001:000459f0       _$E101                     004469f0 f   moc_file_new_imp.obj
 0001:00045a00       _$E98                      00446a00 f   moc_file_new_imp.obj
 0001:00045a20       _$E100                     00446a20 f   moc_file_new_imp.obj
 0001:00045a30       _$E99                      00446a30 f   moc_file_new_imp.obj
 0001:00045840       _$E100                     00446840 f   moc_file_new.obj
 0001:00045850       _$E97                      00446850 f   moc_file_new.obj
 0001:00045870       _$E99                      00446870 f   moc_file_new.obj
 0001:00045880       _$E98                      00446880 f   moc_file_new.obj
 0001:000454c0       _$E99                      004464c0 f   moc_editHandles.obj
 0001:000454d0       _$E96                      004464d0 f   moc_editHandles.obj
 0001:000454f0       _$E98                      004464f0 f   moc_editHandles.obj
 0001:00045500       _$E97                      00446500 f   moc_editHandles.obj
 0001:00045380       _$E101                     00446380 f   moc_duplicatedlgimpl.obj
 0001:00045390       _$E98                      00446390 f   moc_duplicatedlgimpl.obj
 0001:000453b0       _$E100                     004463b0 f   moc_duplicatedlgimpl.obj
 0001:000453c0       _$E99                      004463c0 f   moc_duplicatedlgimpl.obj
 0001:000451d0       _$E100                     004461d0 f   moc_duplicatedlg.obj
 0001:000451e0       _$E97                      004461e0 f   moc_duplicatedlg.obj
 0001:00045200       _$E99                      00446200 f   moc_duplicatedlg.obj
 0001:00045210       _$E98                      00446210 f   moc_duplicatedlg.obj
 0001:00045120       _$E101                     00446120 f   moc_distributeimpl.obj
 0001:00045130       _$E98                      00446130 f   moc_distributeimpl.obj
 0001:00045150       _$E100                     00446150 f   moc_distributeimpl.obj
 0001:00045160       _$E99                      00446160 f   moc_distributeimpl.obj
 0001:00045080       _$E100                     00446080 f   moc_distribute.obj
 0001:00045090       _$E97                      00446090 f   moc_distribute.obj
 0001:000450b0       _$E99                      004460b0 f   moc_distribute.obj
 0001:000450c0       _$E98                      004460c0 f   moc_distribute.obj
 0001:00044f50       _$E101                     00445f50 f   moc_dialogeditimpl.obj
 0001:00044f60       _$E98                      00445f60 f   moc_dialogeditimpl.obj
 0001:00044f80       _$E100                     00445f80 f   moc_dialogeditimpl.obj
 0001:00044f90       _$E99                      00445f90 f   moc_dialogeditimpl.obj
 0001:00044da0       _$E100                     00445da0 f   moc_dialogedit.obj
 0001:00044db0       _$E97                      00445db0 f   moc_dialogedit.obj
 0001:00044dd0       _$E99                      00445dd0 f   moc_dialogedit.obj
 0001:00044de0       _$E98                      00445de0 f   moc_dialogedit.obj
 0001:00044b00       _$E126                     00445b00 f   moc_dialog.obj
 0001:00044b10       _$E123                     00445b10 f   moc_dialog.obj
 0001:00044b30       _$E125                     00445b30 f   moc_dialog.obj
 0001:00044b40       _$E124                     00445b40 f   moc_dialog.obj
 0001:000448a0       _$E106                     004458a0 f   moc_deviceTypeListView.obj
 0001:000448b0       _$E103                     004458b0 f   moc_deviceTypeListView.obj
 0001:000448d0       _$E105                     004458d0 f   moc_deviceTypeListView.obj
 0001:000448e0       _$E104                     004458e0 f   moc_deviceTypeListView.obj
 0001:000446f0       _$E100                     004456f0 f   moc_device_list_edit.obj
 0001:00044700       _$E97                      00445700 f   moc_device_list_edit.obj
 0001:00044720       _$E99                      00445720 f   moc_device_list_edit.obj
 0001:00044730       _$E98                      00445730 f   moc_device_list_edit.obj
 0001:000443d0       _$E106                     004453d0 f   moc_device_list.obj
 0001:000443e0       _$E103                     004453e0 f   moc_device_list.obj
 0001:00044400       _$E105                     00445400 f   moc_device_list.obj
 0001:00044410       _$E104                     00445410 f   moc_device_list.obj
 0001:0004d9a0       _$E98                      0044e9a0 f   qtsingleapplication:moc_qtsingleapplication.obj
 0001:0004d9b0       _$E95                      0044e9b0 f   qtsingleapplication:moc_qtsingleapplication.obj
 0001:0004d9d0       _$E97                      0044e9d0 f   qtsingleapplication:moc_qtsingleapplication.obj
 0001:0004d9e0       _$E96                      0044e9e0 f   qtsingleapplication:moc_qtsingleapplication.obj
 0001:0004dd9f       ?GetRegisteredLocation@@YGHPAD@Z 0044ed9f f   htmlhelp:init.obj
 0001:0004fb74       ?ArrayUnwindFilter@@YAHPAU_EXCEPTION_POINTERS@@@Z 00450b74 f   MSVCRT:ehvecdtr.obj

 2432 bytes saved through ICF

