 bncs_ws_mandb

 Timestamp is 5e9dbb18 (Mon Apr 20 16:09:12 2020)

 Preferred load address is 00400000

 Start         Length     Name                   Class
 0001:00000000 00021fb6H .textbss                DATA
 0002:00000000 00004da7H .text                   CODE
 0002:00004db0 00002024H .text$di                CODE
 0002:00006de0 0003dda9H .text$mn                CODE
 0002:00044b90 00007002H .text$x                 CODE
 0002:0004bba0 00001977H .text$yd                CODE
 0003:00000000 00000104H .CRT$XCA                DATA
 0003:00000104 00000104H .CRT$XCAA               DATA
 0003:00000208 00000198H .CRT$XCU                DATA
 0003:000003a0 00000104H .CRT$XCZ                DATA
 0003:000004a4 00000104H .CRT$XIA                DATA
 0003:000005a8 00000104H .CRT$XIAA               DATA
 0003:000006ac 00000104H .CRT$XIC                DATA
 0003:000007b0 00000104H .CRT$XIY                DATA
 0003:000008b4 00000104H .CRT$XIZ                DATA
 0003:000009c0 0000f264H .rdata                  DATA
 0003:0000fc24 00000173H .rdata$debug            DATA
 0003:0000fd98 00002086H .rdata$r                DATA
 0003:00011e20 00000104H .rtc$IAA                DATA
 0003:00011f24 000001b6H .rtc$IMZ                DATA
 0003:000120dc 00000104H .rtc$IZZ                DATA
 0003:000121e0 00000104H .rtc$TAA                DATA
 0003:000122e4 000001b6H .rtc$TMZ                DATA
 0003:0001249c 00000104H .rtc$TZZ                DATA
 0003:000125a0 00003856H .xdata$x                DATA
 0003:00015df6 00000000H .edata                  DATA
 0004:00000000 000005caH .data                   DATA
 0004:000005cc 00000b9bH .data$r                 DATA
 0004:00001168 00000670H .bss                    DATA
 0005:00000000 000017acH .idata$5                DATA
 0005:000017ac 000000c8H .idata$2                DATA
 0005:00001874 00000014H .idata$3                DATA
 0005:00001888 000017acH .idata$4                DATA
 0005:00003034 0000c5a2H .idata$6                DATA
 0006:00000000 000002e0H .rsrc$01                DATA
 0006:000002e0 00004969H .rsrc$02                DATA

  Address         Publics by Value              Rva+Base       Lib:Object

 0000:00000000       ___safe_se_handler_table   00000000     <absolute>
 0000:00000000       ___guard_flags             00000000     <absolute>
 0000:00000000       __except_list              00000000     <absolute>
 0000:00000000       ___guard_fids_table        00000000     <absolute>
 0000:00000000       ___safe_se_handler_count   00000000     <absolute>
 0000:00000000       ___guard_fids_count        00000000     <absolute>
 0000:00009876       __ldused                   00009876     <absolute>
 0000:00009876       __fltused                  00009876     <absolute>
 0000:00000000       ___ImageBase               00400000     <linker-defined>
 0001:00000000       __enc$textbss$begin        00401000     <linker-defined>
 0001:00021fb6       __enc$textbss$end          00422fb6     <linker-defined>
 0002:00004b69       _WinMain@16                00427b69 f   qtmain:qtmain_win.obj
 0002:00004c19       ?detach@?$QMemArray@PAD@@UAEXXZ 00427c19 f i qtmain:qtmain_win.obj
 0002:00004c23       ??_G?$QMemArray@H@@UAEPAXI@Z 00427c23 f i qtmain:qtmain_win.obj
 0002:00004c50       ??_G?$QMemArray@_N@@UAEPAXI@Z 00427c50 f i qtmain:qtmain_win.obj
 0002:00004c7d       ??_G?$QMemArray@D@@UAEPAXI@Z 00427c7d f i qtmain:qtmain_win.obj
 0002:00004caa       ??_G?$QMemArray@VQPoint@@@@UAEPAXI@Z 00427caa f i qtmain:qtmain_win.obj
 0002:00004cd7       ??_G?$QPtrList@D@@UAEPAXI@Z 00427cd7 f i qtmain:qtmain_win.obj
 0002:00004d0e       ??_G?$QPtrList@VQObject@@@@UAEPAXI@Z 00427d0e f i qtmain:qtmain_win.obj
 0002:00004d45       ??_G?$QPtrList@VQWidget@@@@UAEPAXI@Z 00427d45 f i qtmain:qtmain_win.obj
 0002:00004d7c       ??_G?$QMemArray@PAD@@UAEPAXI@Z 00427d7c f i qtmain:qtmain_win.obj
 0002:00004d7c       ??_E?$QMemArray@PAD@@UAEPAXI@Z 00427d7c f i qtmain:qtmain_win.obj
 0002:00006de0       ??0decodeBNCSString@@QAE@PBDD@Z 00429de0 f   decodeBNCSString.obj
 0002:00006e40       ??0decodeBNCSString@@QAE@ABV0@@Z 00429e40 f   decodeBNCSString.obj
 0002:00006ec0       ??1decodeBNCSString@@UAE@XZ 00429ec0 f   decodeBNCSString.obj
 0002:00006f80       ??_EdecodeBNCSString@@UAEPAXI@Z 00429f80 f i decodeBNCSString.obj
 0002:00006f80       ??_GdecodeBNCSString@@UAEPAXI@Z 00429f80 f i decodeBNCSString.obj
 0002:00006ff0       ?split@decodeBNCSString@@AAEXPBD@Z 00429ff0 f i decodeBNCSString.obj
 0002:00007370       ??0AboutDialog@@QAE@XZ     0042a370 f   AboutDialog.obj
 0002:00007730       ??1AboutDialog@@UAE@XZ     0042a730 f   AboutDialog.obj
 0002:00007790       ?GetVersion@AboutDialog@@AAEPADPAD000@Z 0042a790 f   AboutDialog.obj
 0002:00007dc2       ??_EAboutDialog@@WCI@AEPAXI@Z 0042adc2 f i AboutDialog.obj
 0002:00007dd0       ??_GAboutDialog@@UAEPAXI@Z 0042add0 f i AboutDialog.obj
 0002:00007dd0       ??_EAboutDialog@@UAEPAXI@Z 0042add0 f i AboutDialog.obj
 0002:00007e40       ?metaObject@AboutDialogBase@@UBEPAVQMetaObject@@XZ 0042ae40 f i AboutDialog.obj
 0002:00007e90       ?strchr@@YAPADPADH@Z       0042ae90 f i AboutDialog.obj
 0002:00007ef0       ??0bncs_ws_manDialog@@QAE@PAVQWidget@@PBDI@Z 0042aef0 f   bncs_ws_mandialog.obj
 0002:00008d10       ??1bncs_ws_manDialog@@UAE@XZ 0042bd10 f   bncs_ws_mandialog.obj
 0002:00008f00       ?timerEvent@bncs_ws_manDialog@@EAEXPAVQTimerEvent@@@Z 0042bf00 f   bncs_ws_mandialog.obj
 0002:0000a450       ?ButtonsEnable@bncs_ws_manDialog@@ABEXXZ 0042d450 f   bncs_ws_mandialog.obj
 0002:0000a500       ?ButtonsDisable@bncs_ws_manDialog@@ABEXXZ 0042d500 f   bncs_ws_mandialog.obj
 0002:0000a5b0       ?deleteCurrentProgram@bncs_ws_manDialog@@AAEXVQString@@@Z 0042d5b0 f   bncs_ws_mandialog.obj
 0002:0000a750       ?doStop@bncs_ws_manDialog@@AAEXXZ 0042d750 f   bncs_ws_mandialog.obj
 0002:0000a830       ?doRestart@bncs_ws_manDialog@@AAEXXZ 0042d830 f   bncs_ws_mandialog.obj
 0002:0000a8c0       ?doRestart@bncs_ws_manDialog@@AAEXH@Z 0042d8c0 f   bncs_ws_mandialog.obj
 0002:0000abe0       ?doStart@bncs_ws_manDialog@@AAEXH@Z 0042dbe0 f   bncs_ws_mandialog.obj
 0002:0000ad90       ?doStop@bncs_ws_manDialog@@AAEXH@Z 0042dd90 f   bncs_ws_mandialog.obj
 0002:0000af40       ?startAll@bncs_ws_manDialog@@AAEXXZ 0042df40 f   bncs_ws_mandialog.obj
 0002:0000aff0       ?statusChange@bncs_ws_manDialog@@AAEXW4status@workstationStatus@@@Z 0042dff0 f   bncs_ws_mandialog.obj
 0002:0000b750       ?RestartButtonClick@bncs_ws_manDialog@@AAEXXZ 0042e750 f   bncs_ws_mandialog.obj
 0002:0000b8d0       ?UpdateAndRestartButtonClick@bncs_ws_manDialog@@AAEXXZ 0042e8d0 f   bncs_ws_mandialog.obj
 0002:0000ba50       ?StopButtonClick@bncs_ws_manDialog@@AAEXXZ 0042ea50 f   bncs_ws_mandialog.obj
 0002:0000bbd0       ?AboutClick@bncs_ws_manDialog@@AAEXXZ 0042ebd0 f   bncs_ws_mandialog.obj
 0002:0000bca0       ?showLogViewer@bncs_ws_manDialog@@AAEXXZ 0042eca0 f   bncs_ws_mandialog.obj
 0002:0000be00       ?setStatus@bncs_ws_manDialog@@AAEXVQString@@@Z 0042ee00 f   bncs_ws_mandialog.obj
 0002:0000beb0       ?doLaunch@bncs_ws_manDialog@@AAEXXZ 0042eeb0 f   bncs_ws_mandialog.obj
 0002:0000c5a0       ?programSelect@bncs_ws_manDialog@@AAEXH@Z 0042f5a0 f   bncs_ws_mandialog.obj
 0002:0000cd80       ?singletonMessageReceived@bncs_ws_manDialog@@AAEXABVQString@@@Z 0042fd80 f   bncs_ws_mandialog.obj
 0002:0000ce90       ?slotOpenCmd@bncs_ws_manDialog@@AAEXXZ 0042fe90 f   bncs_ws_mandialog.obj
 0002:0000cef0       ?slotOpenVisEd@bncs_ws_manDialog@@AAEXXZ 0042fef0 f   bncs_ws_mandialog.obj
 0002:0000d050       ?slotOpenV3Caplog@bncs_ws_manDialog@@AAEXXZ 00430050 f   bncs_ws_mandialog.obj
 0002:0000d1b0       ?slotOpenNetViewer@bncs_ws_manDialog@@AAEXXZ 004301b0 f   bncs_ws_mandialog.obj
 0002:0000d310       ?isDeveloper@@YA_NXZ       00430310 f   bncs_ws_mandialog.obj
 0002:0000e8d0       ??$_Allocate@D@std@@YAPADIPAD@Z 004318d0 f i bncs_ws_mandialog.obj
 0002:0000e960       ??$_Allocate@U_Container_proxy@std@@@std@@YAPAU_Container_proxy@0@IPAU10@@Z 00431960 f i bncs_ws_mandialog.obj
 0002:0000ea00       ??$_Debug_pointer@D@std@@YAXPBDPB_WI@Z 00431a00 f i bncs_ws_mandialog.obj
 0002:0000ea70       ??$addressof@D@std@@YAPADAAD@Z 00431a70 f i bncs_ws_mandialog.obj
 0002:0000eab0       ??$construct@PADAAPAD@?$_Wrap_alloc@V?$allocator@D@std@@@std@@QAEXPAPADAAPAD@Z 00431ab0 f i bncs_ws_mandialog.obj
 0002:0000eb20       ??$construct@PADAAPAD@?$allocator@D@std@@QAEXPAPADAAPAD@Z 00431b20 f i bncs_ws_mandialog.obj
 0002:0000ec20       ??$construct@PADAAPAD@?$allocator_traits@V?$allocator@D@std@@@std@@SAXAAV?$allocator@D@1@PAPADAAPAD@Z 00431c20 f i bncs_ws_mandialog.obj
 0002:0000ec80       ??$construct@U_Container_proxy@std@@U12@@?$allocator@U_Container_proxy@std@@@std@@QAEXPAU_Container_proxy@1@$$QAU21@@Z 00431c80 f i bncs_ws_mandialog.obj
 0002:0000ed90       ??$destroy@PAD@?$_Wrap_alloc@V?$allocator@D@std@@@std@@QAEXPAPAD@Z 00431d90 f i bncs_ws_mandialog.obj
 0002:0000edf0       ??$destroy@PAD@?$allocator@D@std@@QAEXPAPAD@Z 00431df0 f i bncs_ws_mandialog.obj
 0002:0000ee30       ??$destroy@PAD@?$allocator_traits@V?$allocator@D@std@@@std@@SAXAAV?$allocator@D@1@PAPAD@Z 00431e30 f i bncs_ws_mandialog.obj
 0002:0000ee80       ??$destroy@U_Container_proxy@std@@@?$allocator@U_Container_proxy@std@@@std@@QAEXPAU_Container_proxy@1@@Z 00431e80 f i bncs_ws_mandialog.obj
 0002:0000eec0       ??$forward@AAPAD@std@@YAAAPADAAPAD@Z 00431ec0 f i bncs_ws_mandialog.obj
 0002:0000ef00       ??$forward@U_Container_proxy@std@@@std@@YA$$QAU_Container_proxy@0@AAU10@@Z 00431f00 f i bncs_ws_mandialog.obj
 0002:0000ef40       ??0?$_String_alloc@$0A@U?$_String_base_types@DV?$allocator@D@std@@@std@@@std@@QAE@ABV?$allocator@D@1@@Z 00431f40 f i bncs_ws_mandialog.obj
 0002:0000eff0       ??0?$_String_val@U?$_Simple_types@D@std@@@std@@QAE@XZ 00431ff0 f i bncs_ws_mandialog.obj
 0002:0000f070       ??0?$_Wrap_alloc@V?$allocator@D@std@@@std@@QAE@XZ 00432070 f i bncs_ws_mandialog.obj
 0002:0000f0d0       ??0?$allocator@D@std@@QAE@XZ 004320d0 f i bncs_ws_mandialog.obj
 0002:0000f110       ??0?$allocator@U_Container_proxy@std@@@std@@QAE@XZ 00432110 f i bncs_ws_mandialog.obj
 0002:0000f150       ??0?$basic_string@DU?$char_traits@D@std@@V?$allocator@D@2@@std@@QAE@PBD@Z 00432150 f i bncs_ws_mandialog.obj
 0002:0000f220       ??0_Container_proxy@std@@QAE@XZ 00432220 f i bncs_ws_mandialog.obj
 0002:0000f270       ??0_Generic_error_category@std@@QAE@XZ 00432270 f i bncs_ws_mandialog.obj
 0002:0000f2d0       ??0_Iostream_error_category@std@@QAE@XZ 004322d0 f i bncs_ws_mandialog.obj
 0002:0000f330       ??0_System_error_category@std@@QAE@XZ 00432330 f i bncs_ws_mandialog.obj
 0002:0000f390       ??0error_category@std@@QAE@XZ 00432390 f i bncs_ws_mandialog.obj
 0002:0000f3e0       ??0error_condition@std@@QAE@HABVerror_category@1@@Z 004323e0 f i bncs_ws_mandialog.obj
 0002:0000f430       ??1?$_String_alloc@$0A@U?$_String_base_types@DV?$allocator@D@std@@@std@@@std@@QAE@XZ 00432430 f i bncs_ws_mandialog.obj
 0002:0000f490       ??1?$_String_val@U?$_Simple_types@D@std@@@std@@QAE@XZ 00432490 f i bncs_ws_mandialog.obj
 0002:0000f4f0       ??1_Generic_error_category@std@@UAE@XZ 004324f0 f i bncs_ws_mandialog.obj
 0002:0000f540       ??1_Iostream_error_category@std@@UAE@XZ 00432540 f i bncs_ws_mandialog.obj
 0002:0000f590       ??1_System_error_category@std@@UAE@XZ 00432590 f i bncs_ws_mandialog.obj
 0002:0000f5e0       ??1error_category@std@@UAE@XZ 004325e0 f i bncs_ws_mandialog.obj
 0002:0000f620       ??2@YAPAXIPAX@Z            00432620 f i bncs_ws_mandialog.obj
 0002:0000f660       ??3@YAXPAX0@Z              00432660 f i bncs_ws_mandialog.obj
 0002:0000f690       ??8@YA_NVQChar@@0@Z        00432690 f i bncs_ws_mandialog.obj
 0002:0000f6f0       ??8error_category@std@@QBE_NABV01@@Z 004326f0 f i bncs_ws_mandialog.obj
 0002:0000f760       ??8error_condition@std@@QBE_NABV01@@Z 00432760 f i bncs_ws_mandialog.obj
 0002:0000f80c       ??_Ebncs_ws_manDialog@@WCI@AEPAXI@Z 0043280c f i bncs_ws_mandialog.obj
 0002:0000f820       ??_E_Generic_error_category@std@@UAEPAXI@Z 00432820 f i bncs_ws_mandialog.obj
 0002:0000f820       ??_G_Generic_error_category@std@@UAEPAXI@Z 00432820 f i bncs_ws_mandialog.obj
 0002:0000f890       ??_G_Iostream_error_category@std@@UAEPAXI@Z 00432890 f i bncs_ws_mandialog.obj
 0002:0000f890       ??_E_Iostream_error_category@std@@UAEPAXI@Z 00432890 f i bncs_ws_mandialog.obj
 0002:0000f900       ??_E_System_error_category@std@@UAEPAXI@Z 00432900 f i bncs_ws_mandialog.obj
 0002:0000f900       ??_G_System_error_category@std@@UAEPAXI@Z 00432900 f i bncs_ws_mandialog.obj
 0002:0000f970       ??_Ebncs_ws_manDialog@@UAEPAXI@Z 00432970 f i bncs_ws_mandialog.obj
 0002:0000f970       ??_Gbncs_ws_manDialog@@UAEPAXI@Z 00432970 f i bncs_ws_mandialog.obj
 0002:0000f9e0       ??_Eerror_category@std@@UAEPAXI@Z 004329e0 f i bncs_ws_mandialog.obj
 0002:0000f9e0       ??_Gerror_category@std@@UAEPAXI@Z 004329e0 f i bncs_ws_mandialog.obj
 0002:0000fa50       ?_Alloc_proxy@?$_String_alloc@$0A@U?$_String_base_types@DV?$allocator@D@std@@@std@@@std@@QAEXXZ 00432a50 f i bncs_ws_mandialog.obj
 0002:0000fb20       ?_Copy@?$basic_string@DU?$char_traits@D@std@@V?$allocator@D@2@@std@@QAEXII@Z 00432b20 f i bncs_ws_mandialog.obj
 0002:0000fde0       ?_Eos@?$basic_string@DU?$char_traits@D@std@@V?$allocator@D@2@@std@@QAEXI@Z 00432de0 f i bncs_ws_mandialog.obj
 0002:0000fe60       ?_Free_proxy@?$_String_alloc@$0A@U?$_String_base_types@DV?$allocator@D@std@@@std@@@std@@QAEXXZ 00432e60 f i bncs_ws_mandialog.obj
 0002:0000ff40       ?_Getal@?$_String_alloc@$0A@U?$_String_base_types@DV?$allocator@D@std@@@std@@@std@@QBE?AU?$_Wrap_alloc@V?$allocator@D@std@@@2@XZ 00432f40 f i bncs_ws_mandialog.obj
 0002:0000ffa0       ?_Grow@?$basic_string@DU?$char_traits@D@std@@V?$allocator@D@2@@std@@QAE_NI_N@Z 00432fa0 f i bncs_ws_mandialog.obj
 0002:000100c0       ?_Inside@?$basic_string@DU?$char_traits@D@std@@V?$allocator@D@2@@std@@QAE_NPBD@Z 004330c0 f i bncs_ws_mandialog.obj
 0002:00010140       ?_Myptr@?$_String_val@U?$_Simple_types@D@std@@@std@@QAEPADXZ 00433140 f i bncs_ws_mandialog.obj
 0002:000101d0       ?_Myptr@?$_String_val@U?$_Simple_types@D@std@@@std@@QBEPBDXZ 004331d0 f i bncs_ws_mandialog.obj
 0002:00010260       ?_Tidy@?$basic_string@DU?$char_traits@D@std@@V?$allocator@D@2@@std@@QAEX_NI@Z 00433260 f i bncs_ws_mandialog.obj
 0002:00010370       ?_Xlen@?$basic_string@DU?$char_traits@D@std@@V?$allocator@D@2@@std@@QBEXXZ 00433370 f i bncs_ws_mandialog.obj
 0002:000103d0       ?_Xran@?$basic_string@DU?$char_traits@D@std@@V?$allocator@D@2@@std@@QBEXXZ 004333d0 f i bncs_ws_mandialog.obj
 0002:00010430       ?allocate@?$_Wrap_alloc@V?$allocator@D@std@@@std@@QAEPADI@Z 00433430 f i bncs_ws_mandialog.obj
 0002:00010490       ?allocate@?$allocator@D@std@@QAEPADI@Z 00433490 f i bncs_ws_mandialog.obj
 0002:000104f0       ?allocate@?$allocator@U_Container_proxy@std@@@std@@QAEPAU_Container_proxy@2@I@Z 004334f0 f i bncs_ws_mandialog.obj
 0002:00010550       ?assign@?$basic_string@DU?$char_traits@D@std@@V?$allocator@D@2@@std@@QAEAAV12@ABV12@II@Z 00433550 f i bncs_ws_mandialog.obj
 0002:00010660       ?assign@?$basic_string@DU?$char_traits@D@std@@V?$allocator@D@2@@std@@QAEAAV12@PBD@Z 00433660 f i bncs_ws_mandialog.obj
 0002:000106f0       ?assign@?$basic_string@DU?$char_traits@D@std@@V?$allocator@D@2@@std@@QAEAAV12@PBDI@Z 004336f0 f i bncs_ws_mandialog.obj
 0002:000107f0       ?assign@?$char_traits@D@std@@SAXAADABD@Z 004337f0 f i bncs_ws_mandialog.obj
 0002:00010830       ?category@error_code@std@@QBEABVerror_category@2@XZ 00433830 f i bncs_ws_mandialog.obj
 0002:00010870       ?category@error_condition@std@@QBEABVerror_category@2@XZ 00433870 f i bncs_ws_mandialog.obj
 0002:000108b0       ?copy@?$char_traits@D@std@@SAPADPADPBDI@Z 004338b0 f i bncs_ws_mandialog.obj
 0002:00010930       ?deallocate@?$_Wrap_alloc@V?$allocator@D@std@@@std@@QAEXPADI@Z 00433930 f i bncs_ws_mandialog.obj
 0002:00010990       ?deallocate@?$allocator@D@std@@QAEXPADI@Z 00433990 f i bncs_ws_mandialog.obj
 0002:000109f0       ?deallocate@?$allocator@U_Container_proxy@std@@@std@@QAEXPAU_Container_proxy@2@I@Z 004339f0 f i bncs_ws_mandialog.obj
 0002:00010a50       ?default_error_condition@_System_error_category@std@@UBE?AVerror_condition@2@H@Z 00433a50 f i bncs_ws_mandialog.obj
 0002:00010b00       ?default_error_condition@error_category@std@@UBE?AVerror_condition@2@H@Z 00433b00 f i bncs_ws_mandialog.obj
 0002:00010b60       ?equivalent@error_category@std@@UBE_NABVerror_code@2@H@Z 00433b60 f i bncs_ws_mandialog.obj
 0002:00010c00       ?equivalent@error_category@std@@UBE_NHABVerror_condition@2@@Z 00433c00 f i bncs_ws_mandialog.obj
 0002:00010c80       ?erase@?$basic_string@DU?$char_traits@D@std@@V?$allocator@D@2@@std@@QAEAAV12@I@Z 00433c80 f i bncs_ws_mandialog.obj
 0002:00010d00       ?erase@?$basic_string@DU?$char_traits@D@std@@V?$allocator@D@2@@std@@QAEAAV12@II@Z 00433d00 f i bncs_ws_mandialog.obj
 0002:00010de0       ?generic_category@std@@YAABVerror_category@1@XZ 00433de0 f i bncs_ws_mandialog.obj
 0002:00010e20       ?getWSTrackerMessage@netComms@@QAE?AVQString@@XZ 00433e20 f i bncs_ws_mandialog.obj
 0002:00010eb0       ?length@?$char_traits@D@std@@SAIPBD@Z 00433eb0 f i bncs_ws_mandialog.obj
 0002:00010f30       ?max_size@?$_Wrap_alloc@V?$allocator@D@std@@@std@@QBEIXZ 00433f30 f i bncs_ws_mandialog.obj
 0002:00010f90       ?max_size@?$allocator@D@std@@QBEIXZ 00433f90 f i bncs_ws_mandialog.obj
 0002:00010fd0       ?max_size@?$allocator_traits@V?$allocator@D@std@@@std@@SAIABV?$allocator@D@2@@Z 00433fd0 f i bncs_ws_mandialog.obj
 0002:00011020       ?max_size@?$basic_string@DU?$char_traits@D@std@@V?$allocator@D@2@@std@@QBEIXZ 00434020 f i bncs_ws_mandialog.obj
 0002:000110c0       ?message@_Generic_error_category@std@@UBE?AV?$basic_string@DU?$char_traits@D@std@@V?$allocator@D@2@@2@H@Z 004340c0 f i bncs_ws_mandialog.obj
 0002:00011180       ?message@_Iostream_error_category@std@@UBE?AV?$basic_string@DU?$char_traits@D@std@@V?$allocator@D@2@@2@H@Z 00434180 f i bncs_ws_mandialog.obj
 0002:00011240       ?message@_System_error_category@std@@UBE?AV?$basic_string@DU?$char_traits@D@std@@V?$allocator@D@2@@2@H@Z 00434240 f i bncs_ws_mandialog.obj
 0002:00011300       ?metaObject@bncs_ws_manDialog@@UBEPAVQMetaObject@@XZ 00434300 f i bncs_ws_mandialog.obj
 0002:00011350       ?move@?$char_traits@D@std@@SAPADPADPBDI@Z 00434350 f i bncs_ws_mandialog.obj
 0002:000113e0       ?name@_Generic_error_category@std@@UBEPBDXZ 004343e0 f i bncs_ws_mandialog.obj
 0002:00011420       ?name@_Iostream_error_category@std@@UBEPBDXZ 00434420 f i bncs_ws_mandialog.obj
 0002:00011460       ?name@_System_error_category@std@@UBEPBDXZ 00434460 f i bncs_ws_mandialog.obj
 0002:000114a0       ?size@?$basic_string@DU?$char_traits@D@std@@V?$allocator@D@2@@std@@QBEIXZ 004344a0 f i bncs_ws_mandialog.obj
 0002:000114e0       ?system_category@std@@YAABVerror_category@1@XZ 004344e0 f i bncs_ws_mandialog.obj
 0002:00011520       ?value@error_code@std@@QBEHXZ 00434520 f i bncs_ws_mandialog.obj
 0002:00011560       ?value@error_condition@std@@QBEHXZ 00434560 f i bncs_ws_mandialog.obj
 0002:000115a0       _hypot                     004345a0 f i bncs_ws_mandialog.obj
 0002:00011620       ??0csi_startDialog@@QAE@PAVQWidget@@PBDI@Z 00434620 f   csi_startdialog.obj
 0002:00011930       ??1csi_startDialog@@UAE@XZ 00434930 f   csi_startdialog.obj
 0002:00011ce0       ?load@csi_startDialog@@QAEXAA_N@Z 00434ce0 f   csi_startdialog.obj
 0002:00013260       ?go@csi_startDialog@@QAEXXZ 00436260 f   csi_startdialog.obj
 0002:00013730       ?getStatus@csi_startDialog@@QBE?AW4status@workstationStatus@@XZ 00436730 f   csi_startdialog.obj
 0002:00013770       ?stopAll@csi_startDialog@@QAEXXZ 00436770 f   csi_startdialog.obj
 0002:00013930       ?stoppingActive@csi_startDialog@@QAE_NXZ 00436930 f   csi_startdialog.obj
 0002:000139f0       ?checkStatus@csi_startDialog@@AAEXXZ 004369f0 f   csi_startdialog.obj
 0002:00013bd0       ?setStatus@csi_startDialog@@AAEXW4status@workstationStatus@@_N@Z 00436bd0 f   csi_startdialog.obj
 0002:00013c40       ?startNext@csi_startDialog@@AAEXXZ 00436c40 f   csi_startdialog.obj
 0002:00014000       ?addProc@csi_startDialog@@AAEXPAVprocessBase@@_NVQString@@22HK@Z 00437000 f   csi_startdialog.obj
 0002:00014230       ?addCsiProc@csi_startDialog@@AAEXVQString@@0_N1@Z 00437230 f   csi_startdialog.obj
 0002:000144f0       ?addOtherProc@csi_startDialog@@AAEXVQString@@00_N1HK@Z 004374f0 f   csi_startdialog.obj
 0002:00014940       ?countLaunches@csi_startDialog@@AAEHXZ 00437940 f   csi_startdialog.obj
 0002:00014a10       ?getFirstLaunch@csi_startDialog@@AAEPAVprocessBase@@XZ 00437a10 f   csi_startdialog.obj
 0002:00014ae0       ?optionEnabled@csi_startDialog@@AAEXAA_N00000@Z 00437ae0 f   csi_startdialog.obj
 0002:00014e10       ?resolveEnvVars@csi_startDialog@@AAE?AVQString@@ABV2@@Z 00437e10 f   csi_startdialog.obj
 0002:00015230       ?procDone@csi_startDialog@@AAEX_N@Z 00438230 f   csi_startdialog.obj
 0002:00015640       ?processExited@csi_startDialog@@AAEXXZ 00438640 f   csi_startdialog.obj
 0002:00015ca0       ?contextMenuRequested@csi_startDialog@@AAEXPAVQListViewItem@@ABVQPoint@@H@Z 00438ca0 f   csi_startdialog.obj
 0002:00016980       ?listItemSelected@csi_startDialog@@AAEXXZ 00439980 f   csi_startdialog.obj
 0002:00016b00       ?doButtonStart@csi_startDialog@@AAEXXZ 00439b00 f   csi_startdialog.obj
 0002:00016db0       ?doButtonStop@csi_startDialog@@AAEXXZ 00439db0 f   csi_startdialog.obj
 0002:00016f20       ?doButtonGoFromHere@csi_startDialog@@AAEXXZ 00439f20 f   csi_startdialog.obj
 0002:000170d0       ?doButtonGoSelected@csi_startDialog@@AAEXXZ 0043a0d0 f   csi_startdialog.obj
 0002:00017270       ?fixUpAutoStart@csi_startDialog@@AAEXPAVprocessBase@@@Z 0043a270 f   csi_startdialog.obj
 0002:00018a30       ??0?$QMap@PAVprocessBase@@PAVlaunchListViewItem@@@@QAE@XZ 0043ba30 f i csi_startdialog.obj
 0002:00018b20       ??0?$QMapConstIterator@PAVprocessBase@@PAVlaunchListViewItem@@@@QAE@PAU?$QMapNode@PAVprocessBase@@PAVlaunchListViewItem@@@@@Z 0043bb20 f i csi_startdialog.obj
 0002:00018b70       ??0?$QMapIterator@PAVprocessBase@@PAVlaunchListViewItem@@@@QAE@ABV0@@Z 0043bb70 f i csi_startdialog.obj
 0002:00018bc0       ??0?$QMapIterator@PAVprocessBase@@PAVlaunchListViewItem@@@@QAE@PAU?$QMapNode@PAVprocessBase@@PAVlaunchListViewItem@@@@@Z 0043bbc0 f i csi_startdialog.obj
 0002:00018c10       ??0?$QMapNode@PAVprocessBase@@PAVlaunchListViewItem@@@@QAE@ABQAVprocessBase@@@Z 0043bc10 f i csi_startdialog.obj
 0002:00018c60       ??0?$QMapNode@PAVprocessBase@@PAVlaunchListViewItem@@@@QAE@ABU0@@Z 0043bc60 f i csi_startdialog.obj
 0002:00018cc0       ??0?$QMapNode@PAVprocessBase@@PAVlaunchListViewItem@@@@QAE@XZ 0043bcc0 f i csi_startdialog.obj
 0002:00018d00       ??0?$QMapPrivate@PAVprocessBase@@PAVlaunchListViewItem@@@@QAE@PBV0@@Z 0043bd00 f i csi_startdialog.obj
 0002:00018f00       ??0?$QMapPrivate@PAVprocessBase@@PAVlaunchListViewItem@@@@QAE@XZ 0043bf00 f i csi_startdialog.obj
 0002:00019050       ??0?$QPtrList@VprocessBase@@@@QAE@XZ 0043c050 f i csi_startdialog.obj
 0002:000190c0       ??0?$QPtrListIterator@VprocessBase@@@@QAE@ABV?$QPtrList@VprocessBase@@@@@Z 0043c0c0 f i csi_startdialog.obj
 0002:00019130       ??1?$QMap@PAVprocessBase@@PAVlaunchListViewItem@@@@QAE@XZ 0043c130 f i csi_startdialog.obj
 0002:000191f0       ??1?$QMapPrivate@PAVprocessBase@@PAVlaunchListViewItem@@@@QAE@XZ 0043c1f0 f i csi_startdialog.obj
 0002:00019260       ??1?$QPtrList@VprocessBase@@@@UAE@XZ 0043c260 f i csi_startdialog.obj
 0002:00019320       ??1?$QPtrListIterator@VprocessBase@@@@QAE@XZ 0043c320 f i csi_startdialog.obj
 0002:00019380       ??8?$QMapIterator@PAVprocessBase@@PAVlaunchListViewItem@@@@QBE_NABV0@@Z 0043c380 f i csi_startdialog.obj
 0002:000193f0       ??A?$QMap@PAVprocessBase@@PAVlaunchListViewItem@@@@QAEAAPAVlaunchListViewItem@@ABQAVprocessBase@@@Z 0043c3f0 f i csi_startdialog.obj
 0002:000194d0       ??F?$QMapIterator@PAVprocessBase@@PAVlaunchListViewItem@@@@QAEAAV0@XZ 0043c4d0 f i csi_startdialog.obj
 0002:00019530       ??F?$QPtrListIterator@VprocessBase@@@@QAEPAVprocessBase@@XZ 0043c530 f i csi_startdialog.obj
 0002:0001958b       ??_Ecsi_startDialog@@WCI@AEPAXI@Z 0043c58b f i csi_startdialog.obj
 0002:000195a0       ??_G?$QMapPrivate@PAVprocessBase@@PAVlaunchListViewItem@@@@QAEPAXI@Z 0043c5a0 f i csi_startdialog.obj
 0002:00019610       ??_E?$QPtrList@VprocessBase@@@@UAEPAXI@Z 0043c610 f i csi_startdialog.obj
 0002:00019610       ??_G?$QPtrList@VprocessBase@@@@UAEPAXI@Z 0043c610 f i csi_startdialog.obj
 0002:00019680       ??_Ecsi_startDialog@@UAEPAXI@Z 0043c680 f i csi_startdialog.obj
 0002:00019680       ??_Gcsi_startDialog@@UAEPAXI@Z 0043c680 f i csi_startdialog.obj
 0002:000196f0       ?append@?$QPtrList@VprocessBase@@@@QAEXPBVprocessBase@@@Z 0043c6f0 f i csi_startdialog.obj
 0002:00019760       ?begin@?$QMapPrivate@PAVprocessBase@@PAVlaunchListViewItem@@@@QAE?AV?$QMapIterator@PAVprocessBase@@PAVlaunchListViewItem@@@@XZ 0043c760 f i csi_startdialog.obj
 0002:000197c0       ?clear@?$QMapPrivate@PAVprocessBase@@PAVlaunchListViewItem@@@@QAEXPAU?$QMapNode@PAVprocessBase@@PAVlaunchListViewItem@@@@@Z 0043c7c0 f i csi_startdialog.obj
 0002:00019860       ?clear@?$QMapPrivate@PAVprocessBase@@PAVlaunchListViewItem@@@@QAEXXZ 0043c860 f i csi_startdialog.obj
 0002:00019910       ?clear@?$QPtrList@VprocessBase@@@@UAEXXZ 0043c910 f i csi_startdialog.obj
 0002:00019970       ?copy@?$QMapPrivate@PAVprocessBase@@PAVlaunchListViewItem@@@@QAEPAU?$QMapNode@PAVprocessBase@@PAVlaunchListViewItem@@@@PAU2@@Z 0043c970 f i csi_startdialog.obj
 0002:00019b10       ?count@?$QPtrList@VprocessBase@@@@UBEIXZ 0043cb10 f i csi_startdialog.obj
 0002:00019b70       ?current@?$QPtrListIterator@VprocessBase@@@@QBEPAVprocessBase@@XZ 0043cb70 f i csi_startdialog.obj
 0002:00019bd0       ?data@?$QMapIterator@PAVprocessBase@@PAVlaunchListViewItem@@@@QAEAAPAVlaunchListViewItem@@XZ 0043cbd0 f i csi_startdialog.obj
 0002:00019c10       ?dec@?$QMapIterator@PAVprocessBase@@PAVlaunchListViewItem@@@@AAEHXZ 0043cc10 f i csi_startdialog.obj
 0002:00019d00       ?deleteItem@?$QPtrList@VprocessBase@@@@EAEXPAX@Z 0043cd00 f i csi_startdialog.obj
 0002:00019dc0       ?detach@?$QMap@PAVprocessBase@@PAVlaunchListViewItem@@@@IAEXXZ 0043cdc0 f i csi_startdialog.obj
 0002:00019e20       ?detachInternal@?$QMap@PAVprocessBase@@PAVlaunchListViewItem@@@@AAEXXZ 0043ce20 f i csi_startdialog.obj
 0002:00019f30       ?end@?$QMapPrivate@PAVprocessBase@@PAVlaunchListViewItem@@@@QAE?AV?$QMapIterator@PAVprocessBase@@PAVlaunchListViewItem@@@@XZ 0043cf30 f i csi_startdialog.obj
 0002:00019f90       ?find@?$QMapPrivate@PAVprocessBase@@PAVlaunchListViewItem@@@@QBE?AV?$QMapConstIterator@PAVprocessBase@@PAVlaunchListViewItem@@@@ABQAVprocessBase@@@Z 0043cf90 f i csi_startdialog.obj
 0002:0001a090       ?first@?$QPtrList@VprocessBase@@@@QAEPAVprocessBase@@XZ 0043d090 f i csi_startdialog.obj
 0002:0001a0f0       ?insert@?$QMap@PAVprocessBase@@PAVlaunchListViewItem@@@@QAE?AV?$QMapIterator@PAVprocessBase@@PAVlaunchListViewItem@@@@ABQAVprocessBase@@ABQAVlaunchListViewItem@@_N@Z 0043d0f0 f i csi_startdialog.obj
 0002:0001a1e0       ?insert@?$QMapPrivate@PAVprocessBase@@PAVlaunchListViewItem@@@@QAE?AV?$QMapIterator@PAVprocessBase@@PAVlaunchListViewItem@@@@PAUQMapNodeBase@@0ABQAVprocessBase@@@Z 0043d1e0 f i csi_startdialog.obj
 0002:0001a400       ?insertSingle@?$QMapPrivate@PAVprocessBase@@PAVlaunchListViewItem@@@@QAE?AV?$QMapIterator@PAVprocessBase@@PAVlaunchListViewItem@@@@ABQAVprocessBase@@@Z 0043d400 f i csi_startdialog.obj
 0002:0001a5e0       ?key@?$QMapPrivate@PAVprocessBase@@PAVlaunchListViewItem@@@@IBEABQAVprocessBase@@PAUQMapNodeBase@@@Z 0043d5e0 f i csi_startdialog.obj
 0002:0001a620       ?metaObject@csi_startDialog@@UBEPAVQMetaObject@@XZ 0043d620 f i csi_startdialog.obj
 0002:0001a670       ?next@?$QPtrList@VprocessBase@@@@QAEPAVprocessBase@@XZ 0043d670 f i csi_startdialog.obj
 0002:0001a6d0       ?size@?$QMap@PAVprocessBase@@PAVlaunchListViewItem@@@@QBEIXZ 0043d6d0 f i csi_startdialog.obj
 0002:0001a710       ?toLast@?$QPtrListIterator@VprocessBase@@@@QAEPAVprocessBase@@XZ 0043d710 f i csi_startdialog.obj
 0002:0001a770       ??0launchListViewItem@@QAE@PAVQListView@@PAVprocessBase@@ABVQString@@W4EProcessState@0@22HK@Z 0043d770 f   launchListViewItem.obj
 0002:0001ab00       ??1launchListViewItem@@UAE@XZ 0043db00 f   launchListViewItem.obj
 0002:0001ab60       ?setProcessState@launchListViewItem@@QAEXW4EProcessState@1@@Z 0043db60 f   launchListViewItem.obj
 0002:0001b5e0       ?setAutoStart@launchListViewItem@@QAEX_N@Z 0043e5e0 f   launchListViewItem.obj
 0002:0001b680       ?setLaunch@launchListViewItem@@QAEX_N@Z 0043e680 f   launchListViewItem.obj
 0002:0001b6c0       ?getLaunch@launchListViewItem@@QBE_NXZ 0043e6c0 f   launchListViewItem.obj
 0002:0001b6f0       ?getProcess@launchListViewItem@@QBEPAVprocessBase@@XZ 0043e6f0 f   launchListViewItem.obj
 0002:0001b720       ?paintCell@launchListViewItem@@EAEXPAVQPainter@@ABVQColorGroup@@HHH@Z 0043e720 f   launchListViewItem.obj
 0002:0001c0d0       ?getStateText@launchListViewItem@@CA?AVQString@@W4EProcessState@1@@Z 0043f0d0 f   launchListViewItem.obj
 0002:0001ca30       ??_GlaunchListViewItem@@UAEPAXI@Z 0043fa30 f i launchListViewItem.obj
 0002:0001ca30       ??_ElaunchListViewItem@@UAEPAXI@Z 0043fa30 f i launchListViewItem.obj
 0002:0001caa0       ?startCount@processBase@@QAEHXZ 0043faa0 f i launchListViewItem.obj
 0002:0001cae0       ??0logDelete@@QAE@PAVbncs_config@@@Z 0043fae0 f   logDelete.obj
 0002:0001cd30       ??1logDelete@@UAE@XZ       0043fd30 f   logDelete.obj
 0002:0001ce90       ?timerEvent@logDelete@@MAEXPAVQTimerEvent@@@Z 0043fe90 f   logDelete.obj
 0002:0001cf50       ?deleteOldFiles@logDelete@@AAEXVQString@@VQDate@@@Z 0043ff50 f   logDelete.obj
 0002:0001d5c0       ?deleteOldFiles@logDelete@@AAEXXZ 004405c0 f   logDelete.obj
 0002:0001d850       ?loadConfig@logDelete@@AAE_NPAVbncs_config@@@Z 00440850 f   logDelete.obj
 0002:0001e710       ??_GQStringList@@QAEPAXI@Z 00441710 f i logDelete.obj
 0002:0001e790       ??_ElogDelete@@UAEPAXI@Z   00441790 f i logDelete.obj
 0002:0001e790       ??_GlogDelete@@UAEPAXI@Z   00441790 f i logDelete.obj
 0002:0001e800       ?metaObject@logDelete@@UBEPAVQMetaObject@@XZ 00441800 f i logDelete.obj
 0002:0001e850       ??0logDialog@@QAE@PAVQWidget@@PBD_NI@Z 00441850 f   logdialogimpl.obj
 0002:0001ea50       ??1logDialog@@UAE@XZ       00441a50 f   logdialogimpl.obj
 0002:0001eab0       ?doClose@logDialog@@QAEXXZ 00441ab0 f   logdialogimpl.obj
 0002:0001eb00       ?doRefresh@logDialog@@QAEXXZ 00441b00 f   logdialogimpl.obj
 0002:0001ec00       ?loadLog@logDialog@@AAEXXZ 00441c00 f   logdialogimpl.obj
 0002:0001f179       ??_ElogDialog@@WCI@AEPAXI@Z 00442179 f i logdialogimpl.obj
 0002:0001f190       ??_GlogDialog@@UAEPAXI@Z   00442190 f i logdialogimpl.obj
 0002:0001f190       ??_ElogDialog@@UAEPAXI@Z   00442190 f i logdialogimpl.obj
 0002:0001f200       ?metaObject@logDialog@@UBEPAVQMetaObject@@XZ 00442200 f i logdialogimpl.obj
 0002:0001f250       _main                      00442250 f   main.obj
 0002:0001f5c0       ?className@AboutDialogBase@@UBEPBDXZ 004425c0 f   moc_AboutDialogBase.obj
 0002:0001f5f0       ?qt_cast@AboutDialogBase@@UAEPAXPBD@Z 004425f0 f   moc_AboutDialogBase.obj
 0002:0001f670       ?qt_invoke@AboutDialogBase@@UAE_NHPAUQUObject@@@Z 00442670 f   moc_AboutDialogBase.obj
 0002:0001f710       ?qt_emit@AboutDialogBase@@UAE_NHPAUQUObject@@@Z 00442710 f   moc_AboutDialogBase.obj
 0002:0001f770       ?qt_property@AboutDialogBase@@UAE_NHHPAVQVariant@@@Z 00442770 f   moc_AboutDialogBase.obj
 0002:0001f7d0       ?qt_static_property@AboutDialogBase@@SA_NPAVQObject@@HHPAVQVariant@@@Z 004427d0 f   moc_AboutDialogBase.obj
 0002:0001f800       ?staticMetaObject@AboutDialogBase@@SAPAVQMetaObject@@XZ 00442800 f   moc_AboutDialogBase.obj
 0002:0001f8b0       ?tr@AboutDialogBase@@SA?AVQString@@PBD0@Z 004428b0 f   moc_AboutDialogBase.obj
 0002:0001f970       ?trUtf8@AboutDialogBase@@SA?AVQString@@PBD0@Z 00442970 f   moc_AboutDialogBase.obj
 0002:0001fb40       ?className@SyncProcess@@UBEPBDXZ 00442b40 f   moc_SyncProcess.obj
 0002:0001fb70       ?qt_cast@SyncProcess@@UAEPAXPBD@Z 00442b70 f   moc_SyncProcess.obj
 0002:0001fbf0       ?qt_invoke@SyncProcess@@UAE_NHPAUQUObject@@@Z 00442bf0 f   moc_SyncProcess.obj
 0002:0001fc90       ?qt_emit@SyncProcess@@UAE_NHPAUQUObject@@@Z 00442c90 f   moc_SyncProcess.obj
 0002:0001fd70       ?qt_property@SyncProcess@@UAE_NHHPAVQVariant@@@Z 00442d70 f   moc_SyncProcess.obj
 0002:0001fdd0       ?qt_static_property@SyncProcess@@SA_NPAVQObject@@HHPAVQVariant@@@Z 00442dd0 f   moc_SyncProcess.obj
 0002:0001fe00       ?staticMetaObject@SyncProcess@@SAPAVQMetaObject@@XZ 00442e00 f   moc_SyncProcess.obj
 0002:0001fef0       ?tr@SyncProcess@@SA?AVQString@@PBD0@Z 00442ef0 f   moc_SyncProcess.obj
 0002:0001ffb0       ?trUtf8@SyncProcess@@SA?AVQString@@PBD0@Z 00442fb0 f   moc_SyncProcess.obj
 0002:00020070       ?setStatus@SyncProcess@@IAEXVQString@@@Z 00443070 f   moc_SyncProcess.obj
 0002:00020150       ?finished@SyncProcess@@IAEXXZ 00443150 f   moc_SyncProcess.obj
 0002:000201c0       ?className@NoSyncProcess@@UBEPBDXZ 004431c0 f   moc_SyncProcess.obj
 0002:000201f0       ?qt_cast@NoSyncProcess@@UAEPAXPBD@Z 004431f0 f   moc_SyncProcess.obj
 0002:00020260       ?qt_invoke@NoSyncProcess@@UAE_NHPAUQUObject@@@Z 00443260 f   moc_SyncProcess.obj
 0002:000202e0       ?qt_emit@NoSyncProcess@@UAE_NHPAUQUObject@@@Z 004432e0 f   moc_SyncProcess.obj
 0002:00020330       ?qt_property@NoSyncProcess@@UAE_NHHPAVQVariant@@@Z 00443330 f   moc_SyncProcess.obj
 0002:00020380       ?qt_static_property@NoSyncProcess@@SA_NPAVQObject@@HHPAVQVariant@@@Z 00443380 f   moc_SyncProcess.obj
 0002:000203b0       ?staticMetaObject@NoSyncProcess@@SAPAVQMetaObject@@XZ 004433b0 f   moc_SyncProcess.obj
 0002:00020450       ?tr@NoSyncProcess@@SA?AVQString@@PBD0@Z 00443450 f   moc_SyncProcess.obj
 0002:00020510       ?trUtf8@NoSyncProcess@@SA?AVQString@@PBD0@Z 00443510 f   moc_SyncProcess.obj
 0002:000205d0       ?className@FileSyncProcess@@UBEPBDXZ 004435d0 f   moc_SyncProcess.obj
 0002:00020600       ?qt_cast@FileSyncProcess@@UAEPAXPBD@Z 00443600 f   moc_SyncProcess.obj
 0002:00020670       ?qt_invoke@FileSyncProcess@@UAE_NHPAUQUObject@@@Z 00443670 f   moc_SyncProcess.obj
 0002:000206f0       ?qt_emit@FileSyncProcess@@UAE_NHPAUQUObject@@@Z 004436f0 f   moc_SyncProcess.obj
 0002:00020740       ?qt_property@FileSyncProcess@@UAE_NHHPAVQVariant@@@Z 00443740 f   moc_SyncProcess.obj
 0002:00020790       ?qt_static_property@FileSyncProcess@@SA_NPAVQObject@@HHPAVQVariant@@@Z 00443790 f   moc_SyncProcess.obj
 0002:000207c0       ?staticMetaObject@FileSyncProcess@@SAPAVQMetaObject@@XZ 004437c0 f   moc_SyncProcess.obj
 0002:00020860       ?tr@FileSyncProcess@@SA?AVQString@@PBD0@Z 00443860 f   moc_SyncProcess.obj
 0002:00020920       ?trUtf8@FileSyncProcess@@SA?AVQString@@PBD0@Z 00443920 f   moc_SyncProcess.obj
 0002:00020d80       ??0netComms@@QAE@XZ        00443d80 f   netComms.obj
 0002:00020f10       ??1netComms@@UAE@XZ        00443f10 f   netComms.obj
 0002:000210d0       ?initComms@netComms@@QAE_NXZ 004440d0 f   netComms.obj
 0002:00022360       ?setStatus@netComms@@QAEXW4status@workstationStatus@@@Z 00445360 f   netComms.obj
 0002:000223c0       ?rxData@netComms@@QAEXH@Z  004453c0 f   netComms.obj
 0002:00022840       ?performAction@netComms@@AAEXVQString@@H@Z 00445840 f   netComms.obj
 0002:000229e0       ?GetOSDisplayString@netComms@@AAE?AVQString@@XZ 004459e0 f   netComms.obj
 0002:00023350       ?sendStatus@netComms@@AAE_NXZ 00446350 f   netComms.obj
 0002:00023b10       ?connect@netComms@@AAE_NXZ 00446b10 f   netComms.obj
 0002:00024050       ?timerEvent@netComms@@MAEXPAVQTimerEvent@@@Z 00447050 f   netComms.obj
 0002:00024d80       ??_GQSocketDevice@@UAEPAXI@Z 00447d80 f i netComms.obj
 0002:00024d80       ??_EQSocketDevice@@UAEPAXI@Z 00447d80 f i netComms.obj
 0002:00024e00       ??_EQSocketNotifier@@UAEPAXI@Z 00447e00 f i netComms.obj
 0002:00024e00       ??_GQSocketNotifier@@UAEPAXI@Z 00447e00 f i netComms.obj
 0002:00024e80       ??_EnetComms@@UAEPAXI@Z    00447e80 f i netComms.obj
 0002:00024e80       ??_GnetComms@@UAEPAXI@Z    00447e80 f i netComms.obj
 0002:00024ef0       ?metaObject@netComms@@UBEPAVQMetaObject@@XZ 00447ef0 f i netComms.obj
 0002:00024f40       ??0processBase@@QAE@PAVQObject@@PBD@Z 00447f40 f   processBase.obj
 0002:00025060       ??1processBase@@UAE@XZ     00448060 f   processBase.obj
 0002:000250c0       ?start@processBase@@UAE_NPAVQStringList@@@Z 004480c0 f   processBase.obj
 0002:00025910       ?stop@processBase@@QAEXXZ  00448910 f   processBase.obj
 0002:00025970       ?timerEvent@processBase@@UAEXPAVQTimerEvent@@@Z 00448970 f   processBase.obj
 0002:000259e0       ?delay@processBase@@QAEXH@Z 004489e0 f   processBase.obj
 0002:00025a20       ?restartOnCrash@processBase@@QAEX_N@Z 00448a20 f   processBase.obj
 0002:00025a60       ?RestartOnCrash@processBase@@QBE_NXZ 00448a60 f   processBase.obj
 0002:00025ab0       ?Stopping@processBase@@QBE_NXZ 00448ab0 f   processBase.obj
 0002:00025ae0       ?AutoStart@processBase@@QBE_NXZ 00448ae0 f   processBase.obj
 0002:00025b10       ?SetAutoStart@processBase@@QAEX_N@Z 00448b10 f   processBase.obj
 0002:00025b50       ?setWaitForIdle@processBase@@QAEXK@Z 00448b50 f   processBase.obj
 0002:00025b90       ?processExited@processBase@@AAEXXZ 00448b90 f   processBase.obj
 0002:00025c30       ?forceTerminate@processBase@@QAEXXZ 00448c30 f   processBase.obj
 0002:00025d20       ?fixUpAutoStart@processBase@@QAEXXZ 00448d20 f   processBase.obj
 0002:000260f0       ??_GprocessBase@@UAEPAXI@Z 004490f0 f i processBase.obj
 0002:000260f0       ??_EprocessBase@@UAEPAXI@Z 004490f0 f i processBase.obj
 0002:00026160       ?metaObject@processBase@@UBEPAVQMetaObject@@XZ 00449160 f i processBase.obj
 0002:000261b0       ??0Program@@QAE@XZ         004491b0 f   Program.obj
 0002:000261f0       ??1Program@@UAE@XZ         004491f0 f   Program.obj
 0002:00026230       ??0StopAllProgram@@QAE@XZ  00449230 f   Program.obj
 0002:00026280       ??1StopAllProgram@@UAE@XZ  00449280 f   Program.obj
 0002:000262d0       ?doSync@StopAllProgram@@UBE_NXZ 004492d0 f   Program.obj
 0002:00026300       ?finishWhen@StopAllProgram@@UBE?AW4EFinishWhen@Program@@XZ 00449300 f   Program.obj
 0002:00026330       ?availableWhenStopped@StopAllProgram@@UBE_NXZ 00449330 f   Program.obj
 0002:00026360       ?availableWhenStarted@StopAllProgram@@UBE_NXZ 00449360 f   Program.obj
 0002:00026390       ?launcherStoppedAction@StopAllProgram@@UBE?AW4EAction@Program@@XZ 00449390 f   Program.obj
 0002:000263c0       ?name@StopAllProgram@@UBE?AVQString@@XZ 004493c0 f   Program.obj
 0002:00026430       ??0RestartAllProgram@@QAE@XZ 00449430 f   Program.obj
 0002:00026480       ??1RestartAllProgram@@UAE@XZ 00449480 f   Program.obj
 0002:000264d0       ?doSync@RestartAllProgram@@UBE_NXZ 004494d0 f   Program.obj
 0002:00026500       ?finishWhen@RestartAllProgram@@UBE?AW4EFinishWhen@Program@@XZ 00449500 f   Program.obj
 0002:00026530       ?availableWhenStopped@RestartAllProgram@@UBE_NXZ 00449530 f   Program.obj
 0002:00026560       ?availableWhenStarted@RestartAllProgram@@UBE_NXZ 00449560 f   Program.obj
 0002:00026590       ?launcherStoppedAction@RestartAllProgram@@UBE?AW4EAction@Program@@XZ 00449590 f   Program.obj
 0002:000265c0       ?name@RestartAllProgram@@UBE?AVQString@@XZ 004495c0 f   Program.obj
 0002:00026630       ??0UpdateAndRestartProgram@@QAE@XZ 00449630 f   Program.obj
 0002:00026680       ??1UpdateAndRestartProgram@@UAE@XZ 00449680 f   Program.obj
 0002:000266d0       ?doSync@UpdateAndRestartProgram@@UBE_NXZ 004496d0 f   Program.obj
 0002:00026700       ?finishWhen@UpdateAndRestartProgram@@UBE?AW4EFinishWhen@Program@@XZ 00449700 f   Program.obj
 0002:00026730       ?availableWhenStopped@UpdateAndRestartProgram@@UBE_NXZ 00449730 f   Program.obj
 0002:00026760       ?availableWhenStarted@UpdateAndRestartProgram@@UBE_NXZ 00449760 f   Program.obj
 0002:00026790       ?launcherStoppedAction@UpdateAndRestartProgram@@UBE?AW4EAction@Program@@XZ 00449790 f   Program.obj
 0002:000267c0       ?name@UpdateAndRestartProgram@@UBE?AVQString@@XZ 004497c0 f   Program.obj
 0002:00026830       ??0InitializeProgram@@QAE@XZ 00449830 f   Program.obj
 0002:00026880       ??1InitializeProgram@@UAE@XZ 00449880 f   Program.obj
 0002:000268d0       ?doSync@InitializeProgram@@UBE_NXZ 004498d0 f   Program.obj
 0002:00026900       ?finishWhen@InitializeProgram@@UBE?AW4EFinishWhen@Program@@XZ 00449900 f   Program.obj
 0002:00026930       ?availableWhenStopped@InitializeProgram@@UBE_NXZ 00449930 f   Program.obj
 0002:00026960       ?availableWhenStarted@InitializeProgram@@UBE_NXZ 00449960 f   Program.obj
 0002:00026990       ?launcherStoppedAction@InitializeProgram@@UBE?AW4EAction@Program@@XZ 00449990 f   Program.obj
 0002:000269c0       ?name@InitializeProgram@@UBE?AVQString@@XZ 004499c0 f   Program.obj
 0002:00026a30       ??0StopAndTestProgram@@QAE@XZ 00449a30 f   Program.obj
 0002:00026a80       ??1StopAndTestProgram@@UAE@XZ 00449a80 f   Program.obj
 0002:00026ad0       ?doSync@StopAndTestProgram@@UBE_NXZ 00449ad0 f   Program.obj
 0002:00026b00       ?finishWhen@StopAndTestProgram@@UBE?AW4EFinishWhen@Program@@XZ 00449b00 f   Program.obj
 0002:00026b30       ?availableWhenStopped@StopAndTestProgram@@UBE_NXZ 00449b30 f   Program.obj
 0002:00026b60       ?availableWhenStarted@StopAndTestProgram@@UBE_NXZ 00449b60 f   Program.obj
 0002:00026b90       ?launcherStoppedAction@StopAndTestProgram@@UBE?AW4EAction@Program@@XZ 00449b90 f   Program.obj
 0002:00026bc0       ?name@StopAndTestProgram@@UBE?AVQString@@XZ 00449bc0 f   Program.obj
 0002:00026c30       ??0StopAndReloadLauncherProgram@@QAE@XZ 00449c30 f   Program.obj
 0002:00026c80       ??1StopAndReloadLauncherProgram@@UAE@XZ 00449c80 f   Program.obj
 0002:00026cd0       ?doSync@StopAndReloadLauncherProgram@@UBE_NXZ 00449cd0 f   Program.obj
 0002:00026d00       ?finishWhen@StopAndReloadLauncherProgram@@UBE?AW4EFinishWhen@Program@@XZ 00449d00 f   Program.obj
 0002:00026d30       ?availableWhenStopped@StopAndReloadLauncherProgram@@UBE_NXZ 00449d30 f   Program.obj
 0002:00026d60       ?availableWhenStarted@StopAndReloadLauncherProgram@@UBE_NXZ 00449d60 f   Program.obj
 0002:00026d90       ?launcherStoppedAction@StopAndReloadLauncherProgram@@UBE?AW4EAction@Program@@XZ 00449d90 f   Program.obj
 0002:00026dc0       ?name@StopAndReloadLauncherProgram@@UBE?AVQString@@XZ 00449dc0 f   Program.obj
 0002:00026e30       ??0StartAndStopWithSyncProgram@@QAE@XZ 00449e30 f   Program.obj
 0002:00026e80       ??1StartAndStopWithSyncProgram@@UAE@XZ 00449e80 f   Program.obj
 0002:00026ed0       ?doSync@StartAndStopWithSyncProgram@@UBE_NXZ 00449ed0 f   Program.obj
 0002:00026f00       ?finishWhen@StartAndStopWithSyncProgram@@UBE?AW4EFinishWhen@Program@@XZ 00449f00 f   Program.obj
 0002:00026f30       ?availableWhenStopped@StartAndStopWithSyncProgram@@UBE_NXZ 00449f30 f   Program.obj
 0002:00026f60       ?availableWhenStarted@StartAndStopWithSyncProgram@@UBE_NXZ 00449f60 f   Program.obj
 0002:00026f90       ?launcherStoppedAction@StartAndStopWithSyncProgram@@UBE?AW4EAction@Program@@XZ 00449f90 f   Program.obj
 0002:00026fc0       ?name@StartAndStopWithSyncProgram@@UBE?AVQString@@XZ 00449fc0 f   Program.obj
 0002:00027030       ??0StartAndStopNoSyncProgram@@QAE@XZ 0044a030 f   Program.obj
 0002:00027080       ??1StartAndStopNoSyncProgram@@UAE@XZ 0044a080 f   Program.obj
 0002:000270d0       ?doSync@StartAndStopNoSyncProgram@@UBE_NXZ 0044a0d0 f   Program.obj
 0002:00027100       ?finishWhen@StartAndStopNoSyncProgram@@UBE?AW4EFinishWhen@Program@@XZ 0044a100 f   Program.obj
 0002:00027130       ?availableWhenStopped@StartAndStopNoSyncProgram@@UBE_NXZ 0044a130 f   Program.obj
 0002:00027160       ?availableWhenStarted@StartAndStopNoSyncProgram@@UBE_NXZ 0044a160 f   Program.obj
 0002:00027190       ?launcherStoppedAction@StartAndStopNoSyncProgram@@UBE?AW4EAction@Program@@XZ 0044a190 f   Program.obj
 0002:000271c0       ?name@StartAndStopNoSyncProgram@@UBE?AVQString@@XZ 0044a1c0 f   Program.obj
 0002:00027230       ??0RestartNoReloadLauncherProgram@@QAE@XZ 0044a230 f   Program.obj
 0002:00027280       ??1RestartNoReloadLauncherProgram@@UAE@XZ 0044a280 f   Program.obj
 0002:000272d0       ?doSync@RestartNoReloadLauncherProgram@@UBE_NXZ 0044a2d0 f   Program.obj
 0002:00027300       ?finishWhen@RestartNoReloadLauncherProgram@@UBE?AW4EFinishWhen@Program@@XZ 0044a300 f   Program.obj
 0002:00027330       ?availableWhenStopped@RestartNoReloadLauncherProgram@@UBE_NXZ 0044a330 f   Program.obj
 0002:00027360       ?availableWhenStarted@RestartNoReloadLauncherProgram@@UBE_NXZ 0044a360 f   Program.obj
 0002:00027390       ?launcherStoppedAction@RestartNoReloadLauncherProgram@@UBE?AW4EAction@Program@@XZ 0044a390 f   Program.obj
 0002:000273c0       ?name@RestartNoReloadLauncherProgram@@UBE?AVQString@@XZ 0044a3c0 f   Program.obj
 0002:00027430       ??0ResyncAndReloadLauncherProgram@@QAE@XZ 0044a430 f   Program.obj
 0002:00027480       ??1ResyncAndReloadLauncherProgram@@UAE@XZ 0044a480 f   Program.obj
 0002:000274d0       ?doSync@ResyncAndReloadLauncherProgram@@UBE_NXZ 0044a4d0 f   Program.obj
 0002:00027500       ?finishWhen@ResyncAndReloadLauncherProgram@@UBE?AW4EFinishWhen@Program@@XZ 0044a500 f   Program.obj
 0002:00027530       ?availableWhenStopped@ResyncAndReloadLauncherProgram@@UBE_NXZ 0044a530 f   Program.obj
 0002:00027560       ?availableWhenStarted@ResyncAndReloadLauncherProgram@@UBE_NXZ 0044a560 f   Program.obj
 0002:00027590       ?launcherStoppedAction@ResyncAndReloadLauncherProgram@@UBE?AW4EAction@Program@@XZ 0044a590 f   Program.obj
 0002:000275c0       ?name@ResyncAndReloadLauncherProgram@@UBE?AVQString@@XZ 0044a5c0 f   Program.obj
 0002:00027b50       ??_GInitializeProgram@@UAEPAXI@Z 0044ab50 f i Program.obj
 0002:00027b50       ??_EInitializeProgram@@UAEPAXI@Z 0044ab50 f i Program.obj
 0002:00027bc0       ??_GProgram@@UAEPAXI@Z     0044abc0 f i Program.obj
 0002:00027bc0       ??_EProgram@@UAEPAXI@Z     0044abc0 f i Program.obj
 0002:00027c30       ??_ERestartAllProgram@@UAEPAXI@Z 0044ac30 f i Program.obj
 0002:00027c30       ??_GRestartAllProgram@@UAEPAXI@Z 0044ac30 f i Program.obj
 0002:00027ca0       ??_GRestartNoReloadLauncherProgram@@UAEPAXI@Z 0044aca0 f i Program.obj
 0002:00027ca0       ??_ERestartNoReloadLauncherProgram@@UAEPAXI@Z 0044aca0 f i Program.obj
 0002:00027d10       ??_EResyncAndReloadLauncherProgram@@UAEPAXI@Z 0044ad10 f i Program.obj
 0002:00027d10       ??_GResyncAndReloadLauncherProgram@@UAEPAXI@Z 0044ad10 f i Program.obj
 0002:00027d80       ??_GStartAndStopNoSyncProgram@@UAEPAXI@Z 0044ad80 f i Program.obj
 0002:00027d80       ??_EStartAndStopNoSyncProgram@@UAEPAXI@Z 0044ad80 f i Program.obj
 0002:00027df0       ??_EStartAndStopWithSyncProgram@@UAEPAXI@Z 0044adf0 f i Program.obj
 0002:00027df0       ??_GStartAndStopWithSyncProgram@@UAEPAXI@Z 0044adf0 f i Program.obj
 0002:00027e60       ??_EStopAllProgram@@UAEPAXI@Z 0044ae60 f i Program.obj
 0002:00027e60       ??_GStopAllProgram@@UAEPAXI@Z 0044ae60 f i Program.obj
 0002:00027ed0       ??_GStopAndReloadLauncherProgram@@UAEPAXI@Z 0044aed0 f i Program.obj
 0002:00027ed0       ??_EStopAndReloadLauncherProgram@@UAEPAXI@Z 0044aed0 f i Program.obj
 0002:00027f40       ??_EStopAndTestProgram@@UAEPAXI@Z 0044af40 f i Program.obj
 0002:00027f40       ??_GStopAndTestProgram@@UAEPAXI@Z 0044af40 f i Program.obj
 0002:00027fb0       ??_GUpdateAndRestartProgram@@UAEPAXI@Z 0044afb0 f i Program.obj
 0002:00027fb0       ??_EUpdateAndRestartProgram@@UAEPAXI@Z 0044afb0 f i Program.obj
 0002:00028020       ??0restartDialog@@QAE@PAVQWidget@@PBD_NI@Z 0044b020 f   restartdialogimpl.obj
 0002:000280f0       ??1restartDialog@@UAE@XZ   0044b0f0 f   restartdialogimpl.obj
 0002:00028150       ?timerEvent@restartDialog@@EAEXPAVQTimerEvent@@@Z 0044b150 f   restartdialogimpl.obj
 0002:000283d3       ??_ErestartDialog@@WCI@AEPAXI@Z 0044b3d3 f i restartdialogimpl.obj
 0002:000283e0       ??_GrestartDialog@@UAEPAXI@Z 0044b3e0 f i restartdialogimpl.obj
 0002:000283e0       ??_ErestartDialog@@UAEPAXI@Z 0044b3e0 f i restartdialogimpl.obj
 0002:00028450       ?metaObject@restartDialog@@UBEPAVQMetaObject@@XZ 0044b450 f i restartdialogimpl.obj
 0002:000284a0       ??0restartThread@@QAE@XZ   0044b4a0 f   restartThread.obj
 0002:00028500       ??1restartThread@@UAE@XZ   0044b500 f   restartThread.obj
 0002:00028560       ?run@restartThread@@UAEXXZ 0044b560 f   restartThread.obj
 0002:000286a0       ??_GrestartThread@@UAEPAXI@Z 0044b6a0 f i restartThread.obj
 0002:000286a0       ??_ErestartThread@@UAEPAXI@Z 0044b6a0 f i restartThread.obj
 0002:00028710       ??0startCSI@@QAE@PAVQObject@@PBD@Z 0044b710 f   startCSI.obj
 0002:00028a60       ??1startCSI@@UAE@XZ        0044ba60 f   startCSI.obj
 0002:00028b40       ?start@startCSI@@UAE_NPAVQStringList@@@Z 0044bb40 f   startCSI.obj
 0002:00029110       ?timerEvent@startCSI@@UAEXPAVQTimerEvent@@@Z 0044c110 f   startCSI.obj
 0002:00029230       ?rebootOnCrash@startCSI@@QAEX_N@Z 0044c230 f   startCSI.obj
 0002:00029270       ?csiProcessExited@startCSI@@QAEXXZ 0044c270 f   startCSI.obj
 0002:00029990       ??_GstartCSI@@UAEPAXI@Z    0044c990 f i startCSI.obj
 0002:00029990       ??_EstartCSI@@UAEPAXI@Z    0044c990 f i startCSI.obj
 0002:00029a00       ?metaObject@startCSI@@UBEPAVQMetaObject@@XZ 0044ca00 f i startCSI.obj
 0002:00029a50       ??0startCSIHelper@@QAE@XZ  0044ca50 f   startCSIHelper.obj
 0002:00029b70       ??1startCSIHelper@@UAE@XZ  0044cb70 f   startCSIHelper.obj
 0002:00029bd0       ?winEvent@startCSIHelper@@UAE_NPAUtagMSG@@@Z 0044cbd0 f   startCSIHelper.obj
 0002:00029c20       ?hWndCSI@startCSIHelper@@QAEPAUHWND__@@XZ 0044cc20 f   startCSIHelper.obj
 0002:00029cd0       ??_EstartCSIHelper@@WCI@AEPAXI@Z 0044ccd0 f i startCSIHelper.obj
 0002:00029ce0       ??_EstartCSIHelper@@UAEPAXI@Z 0044cce0 f i startCSIHelper.obj
 0002:00029ce0       ??_GstartCSIHelper@@UAEPAXI@Z 0044cce0 f i startCSIHelper.obj
 0002:00029d50       ?metaObject@startCSIHelper@@UBEPAVQMetaObject@@XZ 0044cd50 f i startCSIHelper.obj
 0002:00029da0       ??0SyncProcess@@QAE@XZ     0044cda0 f   SyncProcess.obj
 0002:00029e90       ??1SyncProcess@@UAE@XZ     0044ce90 f   SyncProcess.obj
 0002:00029fc0       ?startProcess@SyncProcess@@QAEXXZ 0044cfc0 f   SyncProcess.obj
 0002:0002a230       ?processFinished@SyncProcess@@IAEXXZ 0044d230 f   SyncProcess.obj
 0002:0002a280       ?moveSettings@SyncProcess@@IAEXXZ 0044d280 f   SyncProcess.obj
 0002:0002aa70       ?commonSetUp@SyncProcess@@IAEXVQString@@00@Z 0044da70 f   SyncProcess.obj
 0002:0002abe0       ?readStdout@SyncProcess@@IAEXXZ 0044dbe0 f   SyncProcess.obj
 0002:0002ad60       ?readStderr@SyncProcess@@IAEXXZ 0044dd60 f   SyncProcess.obj
 0002:0002af30       ??0NoSyncProcess@@QAE@XZ   0044df30 f   SyncProcess.obj
 0002:0002b2b0       ??1NoSyncProcess@@UAE@XZ   0044e2b0 f   SyncProcess.obj
 0002:0002b300       ?processExited@NoSyncProcess@@AAEXXZ 0044e300 f   SyncProcess.obj
 0002:0002b390       ??0FileSyncProcess@@QAE@XZ 0044e390 f   SyncProcess.obj
 0002:0002bcf0       ??1FileSyncProcess@@UAE@XZ 0044ecf0 f   SyncProcess.obj
 0002:0002bde0       ?processExited@FileSyncProcess@@AAEXXZ 0044ede0 f   SyncProcess.obj
 0002:0002d9e0       ??_EFileSyncProcess@@UAEPAXI@Z 004509e0 f i SyncProcess.obj
 0002:0002d9e0       ??_GFileSyncProcess@@UAEPAXI@Z 004509e0 f i SyncProcess.obj
 0002:0002da50       ??_GNoSyncProcess@@UAEPAXI@Z 00450a50 f i SyncProcess.obj
 0002:0002da50       ??_ENoSyncProcess@@UAEPAXI@Z 00450a50 f i SyncProcess.obj
 0002:0002dac0       ??_GQProcess@@UAEPAXI@Z    00450ac0 f i SyncProcess.obj
 0002:0002dac0       ??_EQProcess@@UAEPAXI@Z    00450ac0 f i SyncProcess.obj
 0002:0002db40       ??_GSyncProcess@@UAEPAXI@Z 00450b40 f i SyncProcess.obj
 0002:0002db40       ??_ESyncProcess@@UAEPAXI@Z 00450b40 f i SyncProcess.obj
 0002:0002dbb0       ?metaObject@FileSyncProcess@@UBEPAVQMetaObject@@XZ 00450bb0 f i SyncProcess.obj
 0002:0002dc00       ?metaObject@NoSyncProcess@@UBEPAVQMetaObject@@XZ 00450c00 f i SyncProcess.obj
 0002:0002dc50       ?metaObject@SyncProcess@@UBEPAVQMetaObject@@XZ 00450c50 f i SyncProcess.obj
 0002:0002dca0       ??0AboutDialogBase@@QAE@PAVQWidget@@PBD_NI@Z 00450ca0 f   AboutDialogBase.obj
 0002:0002ec70       ??1AboutDialogBase@@UAE@XZ 00451c70 f   AboutDialogBase.obj
 0002:0002ecd0       ?languageChange@AboutDialogBase@@MAEXXZ 00451cd0 f   AboutDialogBase.obj
 0002:0002f960       ??_EAboutDialogBase@@WCI@AEPAXI@Z 00452960 f i AboutDialogBase.obj
 0002:0002f96a       ??_EQHBoxLayout@@WCI@AEPAXI@Z 0045296a f i AboutDialogBase.obj
 0002:0002f974       ??_EQLabel@@WCI@AEPAXI@Z   00452974 f i AboutDialogBase.obj
 0002:0002f97e       ??_EQPushButton@@WCI@AEPAXI@Z 0045297e f i AboutDialogBase.obj
 0002:0002f988       ??_EQVBoxLayout@@WCI@AEPAXI@Z 00452988 f i AboutDialogBase.obj
 0002:0002f9a0       ??_EAboutDialogBase@@UAEPAXI@Z 004529a0 f i AboutDialogBase.obj
 0002:0002f9a0       ??_GAboutDialogBase@@UAEPAXI@Z 004529a0 f i AboutDialogBase.obj
 0002:0002fa10       ??_EQHBoxLayout@@UAEPAXI@Z 00452a10 f i AboutDialogBase.obj
 0002:0002fa10       ??_GQHBoxLayout@@UAEPAXI@Z 00452a10 f i AboutDialogBase.obj
 0002:0002fa90       ??_EQLabel@@UAEPAXI@Z      00452a90 f i AboutDialogBase.obj
 0002:0002fa90       ??_GQLabel@@UAEPAXI@Z      00452a90 f i AboutDialogBase.obj
 0002:0002fb10       ??_EQPushButton@@UAEPAXI@Z 00452b10 f i AboutDialogBase.obj
 0002:0002fb10       ??_GQPushButton@@UAEPAXI@Z 00452b10 f i AboutDialogBase.obj
 0002:0002fb90       ??_GQSpacerItem@@UAEPAXI@Z 00452b90 f i AboutDialogBase.obj
 0002:0002fb90       ??_EQSpacerItem@@UAEPAXI@Z 00452b90 f i AboutDialogBase.obj
 0002:0002fc10       ??_GQVBoxLayout@@UAEPAXI@Z 00452c10 f i AboutDialogBase.obj
 0002:0002fc10       ??_EQVBoxLayout@@UAEPAXI@Z 00452c10 f i AboutDialogBase.obj
 0002:0002fc90       ??0bncs_ws_manDialogBase@@QAE@PAVQWidget@@PBDI@Z 00452c90 f   bncs_ws_mandialogbase.obj
 0002:00031a60       ??1bncs_ws_manDialogBase@@UAE@XZ 00454a60 f   bncs_ws_mandialogbase.obj
 0002:00031b60       ?languageChange@bncs_ws_manDialogBase@@MAEXXZ 00454b60 f   bncs_ws_mandialogbase.obj
 0002:00033293       ??_EQGroupBox@@WCI@AEPAXI@Z 00456293 f i bncs_ws_mandialogbase.obj
 0002:0003329d       ??_EQMenuBar@@WCI@AEPAXI@Z 0045629d f i bncs_ws_mandialogbase.obj
 0002:000332a7       ??_EQMenuBar@@WIM@AEPAXI@Z 004562a7 f i bncs_ws_mandialogbase.obj
 0002:000332b4       ??_EQPopupMenu@@WCI@AEPAXI@Z 004562b4 f i bncs_ws_mandialogbase.obj
 0002:000332be       ??_EQPopupMenu@@WIM@AEPAXI@Z 004562be f i bncs_ws_mandialogbase.obj
 0002:000332cb       ??_EQToolBar@@WCI@AEPAXI@Z 004562cb f i bncs_ws_mandialogbase.obj
 0002:000332d5       ??_EQWidget@@WCI@AEPAXI@Z  004562d5 f i bncs_ws_mandialogbase.obj
 0002:000332df       ??_Ebncs_ws_manDialogBase@@WCI@AEPAXI@Z 004562df f i bncs_ws_mandialogbase.obj
 0002:000332f0       ??_GQAction@@UAEPAXI@Z     004562f0 f i bncs_ws_mandialogbase.obj
 0002:000332f0       ??_EQAction@@UAEPAXI@Z     004562f0 f i bncs_ws_mandialogbase.obj
 0002:00033370       ??_EQGroupBox@@UAEPAXI@Z   00456370 f i bncs_ws_mandialogbase.obj
 0002:00033370       ??_GQGroupBox@@UAEPAXI@Z   00456370 f i bncs_ws_mandialogbase.obj
 0002:000333f0       ??_EQMenuBar@@UAEPAXI@Z    004563f0 f i bncs_ws_mandialogbase.obj
 0002:000333f0       ??_GQMenuBar@@UAEPAXI@Z    004563f0 f i bncs_ws_mandialogbase.obj
 0002:00033470       ??_EQPopupMenu@@UAEPAXI@Z  00456470 f i bncs_ws_mandialogbase.obj
 0002:00033470       ??_GQPopupMenu@@UAEPAXI@Z  00456470 f i bncs_ws_mandialogbase.obj
 0002:000334f0       ??_EQToolBar@@UAEPAXI@Z    004564f0 f i bncs_ws_mandialogbase.obj
 0002:000334f0       ??_GQToolBar@@UAEPAXI@Z    004564f0 f i bncs_ws_mandialogbase.obj
 0002:00033570       ??_GQWidget@@UAEPAXI@Z     00456570 f i bncs_ws_mandialogbase.obj
 0002:00033570       ??_EQWidget@@UAEPAXI@Z     00456570 f i bncs_ws_mandialogbase.obj
 0002:000335f0       ??_Ebncs_ws_manDialogBase@@UAEPAXI@Z 004565f0 f i bncs_ws_mandialogbase.obj
 0002:000335f0       ??_Gbncs_ws_manDialogBase@@UAEPAXI@Z 004565f0 f i bncs_ws_mandialogbase.obj
 0002:00033660       ?metaObject@bncs_ws_manDialogBase@@UBEPAVQMetaObject@@XZ 00456660 f i bncs_ws_mandialogbase.obj
 0002:000336b0       ??0csi_startDialogBase@@QAE@PAVQWidget@@PBDI@Z 004566b0 f   csi_startdialogbase.obj
 0002:00034370       ??1csi_startDialogBase@@UAE@XZ 00457370 f   csi_startdialogbase.obj
 0002:000343d0       ?languageChange@csi_startDialogBase@@MAEXXZ 004573d0 f   csi_startdialogbase.obj
 0002:00034fec       ??_EQListView@@WCI@AEPAXI@Z 00457fec f i csi_startdialogbase.obj
 0002:00034ff6       ??_Ecsi_startDialogBase@@WCI@AEPAXI@Z 00457ff6 f i csi_startdialogbase.obj
 0002:00035000       ??_GQListView@@UAEPAXI@Z   00458000 f i csi_startdialogbase.obj
 0002:00035000       ??_EQListView@@UAEPAXI@Z   00458000 f i csi_startdialogbase.obj
 0002:00035080       ??_Ecsi_startDialogBase@@UAEPAXI@Z 00458080 f i csi_startdialogbase.obj
 0002:00035080       ??_Gcsi_startDialogBase@@UAEPAXI@Z 00458080 f i csi_startdialogbase.obj
 0002:000350f0       ?metaObject@csi_startDialogBase@@UBEPAVQMetaObject@@XZ 004580f0 f i csi_startdialogbase.obj
 0002:00035140       ??0logDialogBase@@QAE@PAVQWidget@@PBD_NI@Z 00458140 f   logdialog.obj
 0002:000356f0       ??1logDialogBase@@UAE@XZ   004586f0 f   logdialog.obj
 0002:00035750       ?languageChange@logDialogBase@@MAEXXZ 00458750 f   logdialog.obj
 0002:00035af5       ??_EQListBox@@WCI@AEPAXI@Z 00458af5 f i logdialog.obj
 0002:00035aff       ??_ElogDialogBase@@WCI@AEPAXI@Z 00458aff f i logdialog.obj
 0002:00035b10       ??_EQListBox@@UAEPAXI@Z    00458b10 f i logdialog.obj
 0002:00035b10       ??_GQListBox@@UAEPAXI@Z    00458b10 f i logdialog.obj
 0002:00035b90       ??_GlogDialogBase@@UAEPAXI@Z 00458b90 f i logdialog.obj
 0002:00035b90       ??_ElogDialogBase@@UAEPAXI@Z 00458b90 f i logdialog.obj
 0002:00035c00       ?metaObject@logDialogBase@@UBEPAVQMetaObject@@XZ 00458c00 f i logdialog.obj
 0002:00035c50       ?className@bncs_ws_manDialog@@UBEPBDXZ 00458c50 f   moc_bncs_ws_mandialog.obj
 0002:00035c80       ?qt_cast@bncs_ws_manDialog@@UAEPAXPBD@Z 00458c80 f   moc_bncs_ws_mandialog.obj
 0002:00035cf0       ?qt_invoke@bncs_ws_manDialog@@UAE_NHPAUQUObject@@@Z 00458cf0 f   moc_bncs_ws_mandialog.obj
 0002:00035fb0       ?qt_emit@bncs_ws_manDialog@@UAE_NHPAUQUObject@@@Z 00458fb0 f   moc_bncs_ws_mandialog.obj
 0002:00036000       ?qt_property@bncs_ws_manDialog@@UAE_NHHPAVQVariant@@@Z 00459000 f   moc_bncs_ws_mandialog.obj
 0002:00036050       ?qt_static_property@bncs_ws_manDialog@@SA_NPAVQObject@@HHPAVQVariant@@@Z 00459050 f   moc_bncs_ws_mandialog.obj
 0002:00036080       ?staticMetaObject@bncs_ws_manDialog@@SAPAVQMetaObject@@XZ 00459080 f   moc_bncs_ws_mandialog.obj
 0002:000362a0       ?tr@bncs_ws_manDialog@@SA?AVQString@@PBD0@Z 004592a0 f   moc_bncs_ws_mandialog.obj
 0002:00036360       ?trUtf8@bncs_ws_manDialog@@SA?AVQString@@PBD0@Z 00459360 f   moc_bncs_ws_mandialog.obj
 0002:00036610       ?className@bncs_ws_manDialogBase@@UBEPBDXZ 00459610 f   moc_bncs_ws_mandialogbase.obj
 0002:00036640       ?qt_cast@bncs_ws_manDialogBase@@UAEPAXPBD@Z 00459640 f   moc_bncs_ws_mandialogbase.obj
 0002:000366c0       ?qt_invoke@bncs_ws_manDialogBase@@UAE_NHPAUQUObject@@@Z 004596c0 f   moc_bncs_ws_mandialogbase.obj
 0002:00036760       ?qt_emit@bncs_ws_manDialogBase@@UAE_NHPAUQUObject@@@Z 00459760 f   moc_bncs_ws_mandialogbase.obj
 0002:000367c0       ?qt_property@bncs_ws_manDialogBase@@UAE_NHHPAVQVariant@@@Z 004597c0 f   moc_bncs_ws_mandialogbase.obj
 0002:00036820       ?qt_static_property@bncs_ws_manDialogBase@@SA_NPAVQObject@@HHPAVQVariant@@@Z 00459820 f   moc_bncs_ws_mandialogbase.obj
 0002:00036850       ?staticMetaObject@bncs_ws_manDialogBase@@SAPAVQMetaObject@@XZ 00459850 f   moc_bncs_ws_mandialogbase.obj
 0002:00036900       ?tr@bncs_ws_manDialogBase@@SA?AVQString@@PBD0@Z 00459900 f   moc_bncs_ws_mandialogbase.obj
 0002:000369c0       ?trUtf8@bncs_ws_manDialogBase@@SA?AVQString@@PBD0@Z 004599c0 f   moc_bncs_ws_mandialogbase.obj
 0002:00036b90       ?className@csi_startDialog@@UBEPBDXZ 00459b90 f   moc_csi_startdialog.obj
 0002:00036bc0       ?qt_cast@csi_startDialog@@UAEPAXPBD@Z 00459bc0 f   moc_csi_startdialog.obj
 0002:00036c30       ?qt_invoke@csi_startDialog@@UAE_NHPAUQUObject@@@Z 00459c30 f   moc_csi_startdialog.obj
 0002:00036de0       ?qt_emit@csi_startDialog@@UAE_NHPAUQUObject@@@Z 00459de0 f   moc_csi_startdialog.obj
 0002:00036eb0       ?qt_property@csi_startDialog@@UAE_NHHPAVQVariant@@@Z 00459eb0 f   moc_csi_startdialog.obj
 0002:00036f00       ?qt_static_property@csi_startDialog@@SA_NPAVQObject@@HHPAVQVariant@@@Z 00459f00 f   moc_csi_startdialog.obj
 0002:00036f30       ?staticMetaObject@csi_startDialog@@SAPAVQMetaObject@@XZ 00459f30 f   moc_csi_startdialog.obj
 0002:00037100       ?tr@csi_startDialog@@SA?AVQString@@PBD0@Z 0045a100 f   moc_csi_startdialog.obj
 0002:000371c0       ?trUtf8@csi_startDialog@@SA?AVQString@@PBD0@Z 0045a1c0 f   moc_csi_startdialog.obj
 0002:00037280       ?restart@csi_startDialog@@IAEXXZ 0045a280 f   moc_csi_startdialog.obj
 0002:000372e0       ?stateChanged@csi_startDialog@@IAEXW4status@workstationStatus@@@Z 0045a2e0 f   moc_csi_startdialog.obj
 0002:00037440       ?close@csi_startDialog@@IAEXXZ 0045a440 f   moc_csi_startdialog.obj
 0002:000376f0       ?className@csi_startDialogBase@@UBEPBDXZ 0045a6f0 f   moc_csi_startdialogbase.obj
 0002:00037720       ?qt_cast@csi_startDialogBase@@UAEPAXPBD@Z 0045a720 f   moc_csi_startdialogbase.obj
 0002:000377a0       ?qt_invoke@csi_startDialogBase@@UAE_NHPAUQUObject@@@Z 0045a7a0 f   moc_csi_startdialogbase.obj
 0002:00037840       ?qt_emit@csi_startDialogBase@@UAE_NHPAUQUObject@@@Z 0045a840 f   moc_csi_startdialogbase.obj
 0002:000378a0       ?qt_property@csi_startDialogBase@@UAE_NHHPAVQVariant@@@Z 0045a8a0 f   moc_csi_startdialogbase.obj
 0002:00037900       ?qt_static_property@csi_startDialogBase@@SA_NPAVQObject@@HHPAVQVariant@@@Z 0045a900 f   moc_csi_startdialogbase.obj
 0002:00037930       ?staticMetaObject@csi_startDialogBase@@SAPAVQMetaObject@@XZ 0045a930 f   moc_csi_startdialogbase.obj
 0002:000379e0       ?tr@csi_startDialogBase@@SA?AVQString@@PBD0@Z 0045a9e0 f   moc_csi_startdialogbase.obj
 0002:00037aa0       ?trUtf8@csi_startDialogBase@@SA?AVQString@@PBD0@Z 0045aaa0 f   moc_csi_startdialogbase.obj
 0002:00037c70       ?className@logDelete@@UBEPBDXZ 0045ac70 f   moc_logDelete.obj
 0002:00037ca0       ?qt_cast@logDelete@@UAEPAXPBD@Z 0045aca0 f   moc_logDelete.obj
 0002:00037d20       ?qt_invoke@logDelete@@UAE_NHPAUQUObject@@@Z 0045ad20 f   moc_logDelete.obj
 0002:00037d80       ?qt_emit@logDelete@@UAE_NHPAUQUObject@@@Z 0045ad80 f   moc_logDelete.obj
 0002:00037de0       ?qt_property@logDelete@@UAE_NHHPAVQVariant@@@Z 0045ade0 f   moc_logDelete.obj
 0002:00037e40       ?qt_static_property@logDelete@@SA_NPAVQObject@@HHPAVQVariant@@@Z 0045ae40 f   moc_logDelete.obj
 0002:00037e70       ?staticMetaObject@logDelete@@SAPAVQMetaObject@@XZ 0045ae70 f   moc_logDelete.obj
 0002:00037f20       ?tr@logDelete@@SA?AVQString@@PBD0@Z 0045af20 f   moc_logDelete.obj
 0002:00037fe0       ?trUtf8@logDelete@@SA?AVQString@@PBD0@Z 0045afe0 f   moc_logDelete.obj
 0002:000381a0       ?className@logDialogBase@@UBEPBDXZ 0045b1a0 f   moc_logdialog.obj
 0002:000381d0       ?qt_cast@logDialogBase@@UAEPAXPBD@Z 0045b1d0 f   moc_logdialog.obj
 0002:00038250       ?qt_invoke@logDialogBase@@UAE_NHPAUQUObject@@@Z 0045b250 f   moc_logdialog.obj
 0002:000382f0       ?qt_emit@logDialogBase@@UAE_NHPAUQUObject@@@Z 0045b2f0 f   moc_logdialog.obj
 0002:00038350       ?qt_property@logDialogBase@@UAE_NHHPAVQVariant@@@Z 0045b350 f   moc_logdialog.obj
 0002:000383b0       ?qt_static_property@logDialogBase@@SA_NPAVQObject@@HHPAVQVariant@@@Z 0045b3b0 f   moc_logdialog.obj
 0002:000383e0       ?staticMetaObject@logDialogBase@@SAPAVQMetaObject@@XZ 0045b3e0 f   moc_logdialog.obj
 0002:00038490       ?tr@logDialogBase@@SA?AVQString@@PBD0@Z 0045b490 f   moc_logdialog.obj
 0002:00038550       ?trUtf8@logDialogBase@@SA?AVQString@@PBD0@Z 0045b550 f   moc_logdialog.obj
 0002:00038720       ?className@logDialog@@UBEPBDXZ 0045b720 f   moc_logdialogimpl.obj
 0002:00038750       ?qt_cast@logDialog@@UAEPAXPBD@Z 0045b750 f   moc_logdialogimpl.obj
 0002:000387c0       ?qt_invoke@logDialog@@UAE_NHPAUQUObject@@@Z 0045b7c0 f   moc_logdialogimpl.obj
 0002:00038850       ?qt_emit@logDialog@@UAE_NHPAUQUObject@@@Z 0045b850 f   moc_logdialogimpl.obj
 0002:000388a0       ?qt_property@logDialog@@UAE_NHHPAVQVariant@@@Z 0045b8a0 f   moc_logdialogimpl.obj
 0002:000388f0       ?qt_static_property@logDialog@@SA_NPAVQObject@@HHPAVQVariant@@@Z 0045b8f0 f   moc_logdialogimpl.obj
 0002:00038920       ?staticMetaObject@logDialog@@SAPAVQMetaObject@@XZ 0045b920 f   moc_logdialogimpl.obj
 0002:000389c0       ?tr@logDialog@@SA?AVQString@@PBD0@Z 0045b9c0 f   moc_logdialogimpl.obj
 0002:00038a80       ?trUtf8@logDialog@@SA?AVQString@@PBD0@Z 0045ba80 f   moc_logdialogimpl.obj
 0002:00038c40       ?className@netComms@@UBEPBDXZ 0045bc40 f   moc_netComms.obj
 0002:00038c70       ?qt_cast@netComms@@UAEPAXPBD@Z 0045bc70 f   moc_netComms.obj
 0002:00038cf0       ?qt_invoke@netComms@@UAE_NHPAUQUObject@@@Z 0045bcf0 f   moc_netComms.obj
 0002:00038da0       ?qt_emit@netComms@@UAE_NHPAUQUObject@@@Z 0045bda0 f   moc_netComms.obj
 0002:00038eb0       ?qt_property@netComms@@UAE_NHHPAVQVariant@@@Z 0045beb0 f   moc_netComms.obj
 0002:00038f10       ?qt_static_property@netComms@@SA_NPAVQObject@@HHPAVQVariant@@@Z 0045bf10 f   moc_netComms.obj
 0002:00038f40       ?staticMetaObject@netComms@@SAPAVQMetaObject@@XZ 0045bf40 f   moc_netComms.obj
 0002:000390d0       ?tr@netComms@@SA?AVQString@@PBD0@Z 0045c0d0 f   moc_netComms.obj
 0002:00039190       ?trUtf8@netComms@@SA?AVQString@@PBD0@Z 0045c190 f   moc_netComms.obj
 0002:00039250       ?restart@netComms@@IAEXH@Z 0045c250 f   moc_netComms.obj
 0002:000392c0       ?stop@netComms@@IAEXH@Z    0045c2c0 f   moc_netComms.obj
 0002:00039330       ?start@netComms@@IAEXH@Z   0045c330 f   moc_netComms.obj
 0002:00039570       ?className@processBase@@UBEPBDXZ 0045c570 f   moc_processBase.obj
 0002:000395a0       ?qt_cast@processBase@@UAEPAXPBD@Z 0045c5a0 f   moc_processBase.obj
 0002:00039620       ?qt_invoke@processBase@@UAE_NHPAUQUObject@@@Z 0045c620 f   moc_processBase.obj
 0002:000396d0       ?qt_emit@processBase@@UAE_NHPAUQUObject@@@Z 0045c6d0 f   moc_processBase.obj
 0002:000397c0       ?qt_property@processBase@@UAE_NHHPAVQVariant@@@Z 0045c7c0 f   moc_processBase.obj
 0002:00039820       ?qt_static_property@processBase@@SA_NPAVQObject@@HHPAVQVariant@@@Z 0045c820 f   moc_processBase.obj
 0002:00039850       ?staticMetaObject@processBase@@SAPAVQMetaObject@@XZ 0045c850 f   moc_processBase.obj
 0002:00039970       ?tr@processBase@@SA?AVQString@@PBD0@Z 0045c970 f   moc_processBase.obj
 0002:00039a30       ?trUtf8@processBase@@SA?AVQString@@PBD0@Z 0045ca30 f   moc_processBase.obj
 0002:00039af0       ?done@processBase@@IAEX_N@Z 0045caf0 f   moc_processBase.obj
 0002:00039b60       ?signalFixUpAutoStart@processBase@@IAEXPAV1@@Z 0045cb60 f   moc_processBase.obj
 0002:00039cc0       ?close@processBase@@IAEXXZ 0045ccc0 f   moc_processBase.obj
 0002:00039f10       ?className@restartDialogBase@@UBEPBDXZ 0045cf10 f   moc_restartdialog.obj
 0002:00039f40       ?qt_cast@restartDialogBase@@UAEPAXPBD@Z 0045cf40 f   moc_restartdialog.obj
 0002:00039fc0       ?qt_invoke@restartDialogBase@@UAE_NHPAUQUObject@@@Z 0045cfc0 f   moc_restartdialog.obj
 0002:0003a060       ?qt_emit@restartDialogBase@@UAE_NHPAUQUObject@@@Z 0045d060 f   moc_restartdialog.obj
 0002:0003a0c0       ?qt_property@restartDialogBase@@UAE_NHHPAVQVariant@@@Z 0045d0c0 f   moc_restartdialog.obj
 0002:0003a120       ?qt_static_property@restartDialogBase@@SA_NPAVQObject@@HHPAVQVariant@@@Z 0045d120 f   moc_restartdialog.obj
 0002:0003a150       ?staticMetaObject@restartDialogBase@@SAPAVQMetaObject@@XZ 0045d150 f   moc_restartdialog.obj
 0002:0003a200       ?tr@restartDialogBase@@SA?AVQString@@PBD0@Z 0045d200 f   moc_restartdialog.obj
 0002:0003a2c0       ?trUtf8@restartDialogBase@@SA?AVQString@@PBD0@Z 0045d2c0 f   moc_restartdialog.obj
 0002:0003a490       ?className@restartDialog@@UBEPBDXZ 0045d490 f   moc_restartdialogimpl.obj
 0002:0003a4c0       ?qt_cast@restartDialog@@UAEPAXPBD@Z 0045d4c0 f   moc_restartdialogimpl.obj
 0002:0003a530       ?qt_invoke@restartDialog@@UAE_NHPAUQUObject@@@Z 0045d530 f   moc_restartdialogimpl.obj
 0002:0003a580       ?qt_emit@restartDialog@@UAE_NHPAUQUObject@@@Z 0045d580 f   moc_restartdialogimpl.obj
 0002:0003a5d0       ?qt_property@restartDialog@@UAE_NHHPAVQVariant@@@Z 0045d5d0 f   moc_restartdialogimpl.obj
 0002:0003a620       ?qt_static_property@restartDialog@@SA_NPAVQObject@@HHPAVQVariant@@@Z 0045d620 f   moc_restartdialogimpl.obj
 0002:0003a650       ?staticMetaObject@restartDialog@@SAPAVQMetaObject@@XZ 0045d650 f   moc_restartdialogimpl.obj
 0002:0003a6f0       ?tr@restartDialog@@SA?AVQString@@PBD0@Z 0045d6f0 f   moc_restartdialogimpl.obj
 0002:0003a7b0       ?trUtf8@restartDialog@@SA?AVQString@@PBD0@Z 0045d7b0 f   moc_restartdialogimpl.obj
 0002:0003a960       ?className@startCSI@@UBEPBDXZ 0045d960 f   moc_startCSI.obj
 0002:0003a990       ?qt_cast@startCSI@@UAEPAXPBD@Z 0045d990 f   moc_startCSI.obj
 0002:0003aa00       ?qt_invoke@startCSI@@UAE_NHPAUQUObject@@@Z 0045da00 f   moc_startCSI.obj
 0002:0003aa80       ?qt_emit@startCSI@@UAE_NHPAUQUObject@@@Z 0045da80 f   moc_startCSI.obj
 0002:0003aad0       ?qt_property@startCSI@@UAE_NHHPAVQVariant@@@Z 0045dad0 f   moc_startCSI.obj
 0002:0003ab20       ?qt_static_property@startCSI@@SA_NPAVQObject@@HHPAVQVariant@@@Z 0045db20 f   moc_startCSI.obj
 0002:0003ab50       ?staticMetaObject@startCSI@@SAPAVQMetaObject@@XZ 0045db50 f   moc_startCSI.obj
 0002:0003abf0       ?tr@startCSI@@SA?AVQString@@PBD0@Z 0045dbf0 f   moc_startCSI.obj
 0002:0003acb0       ?trUtf8@startCSI@@SA?AVQString@@PBD0@Z 0045dcb0 f   moc_startCSI.obj
 0002:0003ae70       ?className@startCSIHelper@@UBEPBDXZ 0045de70 f   moc_startCSIHelper.obj
 0002:0003aea0       ?qt_cast@startCSIHelper@@UAEPAXPBD@Z 0045dea0 f   moc_startCSIHelper.obj
 0002:0003af20       ?qt_invoke@startCSIHelper@@UAE_NHPAUQUObject@@@Z 0045df20 f   moc_startCSIHelper.obj
 0002:0003af80       ?qt_emit@startCSIHelper@@UAE_NHPAUQUObject@@@Z 0045df80 f   moc_startCSIHelper.obj
 0002:0003afe0       ?qt_property@startCSIHelper@@UAE_NHHPAVQVariant@@@Z 0045dfe0 f   moc_startCSIHelper.obj
 0002:0003b040       ?qt_static_property@startCSIHelper@@SA_NPAVQObject@@HHPAVQVariant@@@Z 0045e040 f   moc_startCSIHelper.obj
 0002:0003b070       ?staticMetaObject@startCSIHelper@@SAPAVQMetaObject@@XZ 0045e070 f   moc_startCSIHelper.obj
 0002:0003b120       ?tr@startCSIHelper@@SA?AVQString@@PBD0@Z 0045e120 f   moc_startCSIHelper.obj
 0002:0003b1e0       ?trUtf8@startCSIHelper@@SA?AVQString@@PBD0@Z 0045e1e0 f   moc_startCSIHelper.obj
 0002:0003b3a0       ??0restartDialogBase@@QAE@PAVQWidget@@PBD_NI@Z 0045e3a0 f   restartdialog.obj
 0002:0003bb80       ??1restartDialogBase@@UAE@XZ 0045eb80 f   restartdialog.obj
 0002:0003bbe0       ?languageChange@restartDialogBase@@MAEXXZ 0045ebe0 f   restartdialog.obj
 0002:0003c34d       ??_ErestartDialogBase@@WCI@AEPAXI@Z 0045f34d f i restartdialog.obj
 0002:0003c360       ??_ErestartDialogBase@@UAEPAXI@Z 0045f360 f i restartdialog.obj
 0002:0003c360       ??_GrestartDialogBase@@UAEPAXI@Z 0045f360 f i restartdialog.obj
 0002:0003c3d0       ?metaObject@restartDialogBase@@UBEPAVQMetaObject@@XZ 0045f3d0 f i restartdialog.obj
 0002:0003c4a0       ??0bncs_disklog@@QAE@PBDW4filetype@0@000000@Z 0045f4a0 f   bncs_disklogdb:bncs_disklog.obj
 0002:0003c520       ??0bncs_disklog@@QAE@PBDW4filetype@0@@Z 0045f520 f   bncs_disklogdb:bncs_disklog.obj
 0002:0003c580       ?write@bncs_disklog@@QAEXPBD00000@Z 0045f580 f   bncs_disklogdb:bncs_disklog.obj
 0002:0003c920       ??1bncs_disklog@@UAE@XZ    0045f920 f   bncs_disklogdb:bncs_disklog.obj
 0002:0003c970       ?ref@bncs_disklog@@QAEPBDXZ 0045f970 f   bncs_disklogdb:bncs_disklog.obj
 0002:0003c9a0       ?clear@bncs_disklog@@QAEXXZ 0045f9a0 f   bncs_disklogdb:bncs_disklog.obj
 0002:0003ca20       ?openLogFile@bncs_disklog@@AAEXPBDW4filetype@1@@Z 0045fa20 f   bncs_disklogdb:bncs_disklog.obj
 0002:0003cdb0       ?initVars@bncs_disklog@@AAEXXZ 0045fdb0 f   bncs_disklogdb:bncs_disklog.obj
 0002:0003ce00       ?createDirectory@bncs_disklog@@AAEXPBD@Z 0045fe00 f   bncs_disklogdb:bncs_disklog.obj
 0002:0003cf40       ?cleanup@bncs_disklog@@AAEXXZ 0045ff40 f   bncs_disklogdb:bncs_disklog.obj
 0002:0003d280       ??_Ebncs_disklog@@UAEPAXI@Z 00460280 f i bncs_disklogdb:bncs_disklog.obj
 0002:0003d280       ??_Gbncs_disklog@@UAEPAXI@Z 00460280 f i bncs_disklogdb:bncs_disklog.obj
 0002:0003d2f0       ??0cBncsVersion@@QAE@PBD@Z 004602f0 f   bncsversioninfodb:cBncsVersion.obj
 0002:0003dbd0       ??1cBncsVersion@@UAE@XZ    00460bd0 f   bncsversioninfodb:cBncsVersion.obj
 0002:0003e0b0       ??_EcBncsVersion@@UAEPAXI@Z 004610b0 f i bncsversioninfodb:cBncsVersion.obj
 0002:0003e0b0       ??_GcBncsVersion@@UAEPAXI@Z 004610b0 f i bncsversioninfodb:cBncsVersion.obj
 0002:0003e120       ?strpbrk@@YAPADPADPBD@Z    00461120 f i bncsversioninfodb:cBncsVersion.obj
 0002:0003e172       _GetFileVersionInfoSizeA@8 00461172 f   version:VERSION.dll
 0002:0003e178       _GetFileVersionInfoA@16    00461178 f   version:VERSION.dll
 0002:0003e17e       _VerQueryValueA@16         0046117e f   version:VERSION.dll
 0002:0003e184       ??0bncs_string@@QAE@PBD@Z  00461184 f   bncs_stringdb:bncs_stringdb.dll
 0002:0003e18a       ??1bncs_string@@UAE@XZ     0046118a f   bncs_stringdb:bncs_stringdb.dll
 0002:0003e190       ??Bbncs_string@@QBEPBDXZ   00461190 f   bncs_stringdb:bncs_stringdb.dll
 0002:0003e196       ??Bbncs_string@@QBEHXZ     00461196 f   bncs_stringdb:bncs_stringdb.dll
 0002:0003e19c       ??H@YA?BVbncs_string@@PBDABV0@@Z 0046119c f   bncs_stringdb:bncs_stringdb.dll
 0002:0003e1a2       ??8@YA_NABVbncs_string@@PBD@Z 004611a2 f   bncs_stringdb:bncs_stringdb.dll
 0002:0003e1a8       ?arg@bncs_string@@QBE?AV1@PBD@Z 004611a8 f   bncs_stringdb:bncs_stringdb.dll
 0002:0003e1ae       ?clearCache@bncs_config@@SAXXZ 004611ae f   bncs_configdb:bncs_configdb.dll
 0002:0003e1b4       ??0bncs_config@@QAE@ABVbncs_string@@@Z 004611b4 f   bncs_configdb:bncs_configdb.dll
 0002:0003e1ba       ??1bncs_config@@UAE@XZ     004611ba f   bncs_configdb:bncs_configdb.dll
 0002:0003e1c0       ?isValid@bncs_config@@QAE_NXZ 004611c0 f   bncs_configdb:bncs_configdb.dll
 0002:0003e1c6       ?isChildValid@bncs_config@@QAE_NXZ 004611c6 f   bncs_configdb:bncs_configdb.dll
 0002:0003e1cc       ?nextChild@bncs_config@@QAE_NXZ 004611cc f   bncs_configdb:bncs_configdb.dll
 0002:0003e1d2       ?childAttr@bncs_config@@QAE?AVbncs_string@@ABV2@@Z 004611d2 f   bncs_configdb:bncs_configdb.dll
 0002:0003e1d8       ?attr@bncs_config@@QAE?AVbncs_string@@ABV2@@Z 004611d8 f   bncs_configdb:bncs_configdb.dll
 0002:0003e1de       _setsockopt@20             004611de f   wsock32:WSOCK32.dll
 0002:0003e1f0       ??0QtSingleApplication@@QAE@ABVQString@@AAHPAPADW4Type@QApplication@@@Z 004611f0 f   qtsingleapplication:qtsingleapplication.obj
 0002:0003e2b0       ??0QtSingletonPrivate@@QAE@XZ 004612b0 f i qtsingleapplication:qtsingleapplication.obj
 0002:0003e2c0       ??1QtSingleApplication@@UAE@XZ 004612c0 f   qtsingleapplication:qtsingleapplication.obj
 0002:0003e360       ??1QtSingletonPrivate@@QAE@XZ 00461360 f i qtsingleapplication:qtsingleapplication.obj
 0002:0003e370       ??_GQtSingleApplication@@UAEPAXI@Z 00461370 f i qtsingleapplication:qtsingleapplication.obj
 0002:0003e370       ??_EQtSingleApplication@@UAEPAXI@Z 00461370 f i qtsingleapplication:qtsingleapplication.obj
 0002:0003e3a0       ??_GQtSingletonPrivate@@QAEPAXI@Z 004613a0 f i qtsingleapplication:qtsingleapplication.obj
 0002:0003e3d0       ?activateMainWidget@QtSingleApplication@@UAEXXZ 004613d0 f   qtsingleapplication:qtsingleapplication.obj
 0002:0003e400       ?id@QtSingleApplication@@QBE?AVQString@@XZ 00461400 f   qtsingleapplication:qtsingleapplication.obj
 0002:0003e430       ?metaObject@QtSingleApplication@@UBEPAVQMetaObject@@XZ 00461430 f i qtsingleapplication:qtsingleapplication.obj
 0002:0003e440       ?initialize@QtSingleApplication@@QAEX_N@Z 00461440 f   qtsingleapplication:qtsingleapplication_win.obj
 0002:0003e560       ?isRunning@QtSingleApplication@@QBE_NXZ 00461560 f   qtsingleapplication:qtsingleapplication_win.obj
 0002:0003e610       ?sendMessage@QtSingleApplication@@QAE_NABVQString@@H@Z 00461610 f   qtsingleapplication:qtsingleapplication_win.obj
 0002:0003e720       ?sysCleanup@QtSingleApplication@@AAEXXZ 00461720 f   qtsingleapplication:qtsingleapplication_win.obj
 0002:0003e730       ?sysInit@QtSingleApplication@@AAEXXZ 00461730 f   qtsingleapplication:qtsingleapplication_win.obj
 0002:0003e750       ?winEventFilter@QtSingleApplication@@MAE_NPAUtagMSG@@@Z 00461750 f   qtsingleapplication:qtsingleapplication_win.obj
 0002:0003e820       ?className@QtSingleApplication@@UBEPBDXZ 00461820 f   qtsingleapplication:moc_qtsingleapplication.obj
 0002:0003e830       ?messageReceived@QtSingleApplication@@IAEXABVQString@@@Z 00461830 f   qtsingleapplication:moc_qtsingleapplication.obj
 0002:0003e8b0       ?qt_cast@QtSingleApplication@@UAEPAXPBD@Z 004618b0 f   qtsingleapplication:moc_qtsingleapplication.obj
 0002:0003e920       ?qt_emit@QtSingleApplication@@UAE_NHPAUQUObject@@@Z 00461920 f   qtsingleapplication:moc_qtsingleapplication.obj
 0002:0003e970       ?qt_invoke@QtSingleApplication@@UAE_NHPAUQUObject@@@Z 00461970 f   qtsingleapplication:moc_qtsingleapplication.obj
 0002:0003ea00       ?qt_property@QtSingleApplication@@UAE_NHHPAVQVariant@@@Z 00461a00 f   qtsingleapplication:moc_qtsingleapplication.obj
 0002:0003ea10       ?qt_static_property@QtSingleApplication@@SA_NPAVQObject@@HHPAVQVariant@@@Z 00461a10 f   qtsingleapplication:moc_qtsingleapplication.obj
 0002:0003ea20       ?staticMetaObject@QtSingleApplication@@SAPAVQMetaObject@@XZ 00461a20 f   qtsingleapplication:moc_qtsingleapplication.obj
 0002:0003ebd0       ?tr@QtSingleApplication@@SA?AVQString@@PBD0@Z 00461bd0 f   qtsingleapplication:moc_qtsingleapplication.obj
 0002:0003ec30       ?trUtf8@QtSingleApplication@@SA?AVQString@@PBD0@Z 00461c30 f   qtsingleapplication:moc_qtsingleapplication.obj
 0002:0003ec8e       ??0QString@@QAE@PBD@Z      00461c8e f   qt-mt323:qt-mt323.dll
 0002:0003ec94       ??1QString@@QAE@XZ         00461c94 f   qt-mt323:qt-mt323.dll
 0002:0003ec9a       ?accept@QDialog@@MAEXXZ    00461c9a f   qt-mt323:qt-mt323.dll
 0002:0003eca0       ?adjustSize@QWidget@@UAEXXZ 00461ca0 f   qt-mt323:qt-mt323.dll
 0002:0003eca6       ?checkConnectArgs@QObject@@MAE_NPBDPBV1@0@Z 00461ca6 f   qt-mt323:qt-mt323.dll
 0002:0003ecac       ?childEvent@QObject@@MAEXPAVQChildEvent@@@Z 00461cac f   qt-mt323:qt-mt323.dll
 0002:0003ecb2       ?close@QWidget@@UAE_N_N@Z  00461cb2 f   qt-mt323:qt-mt323.dll
 0002:0003ecb8       ?closeEvent@QDialog@@MAEXPAVQCloseEvent@@@Z 00461cb8 f   qt-mt323:qt-mt323.dll
 0002:0003ecbe       ?cmd@QPaintDevice@@MAE_NHPAVQPainter@@PATQPDevCmdParam@@@Z 00461cbe f   qt-mt323:qt-mt323.dll
 0002:0003ecc4       ?connectNotify@QObject@@MAEXPBD@Z 00461cc4 f   qt-mt323:qt-mt323.dll
 0002:0003ecca       ?contextMenuEvent@QDialog@@MAEXPAVQContextMenuEvent@@@Z 00461cca f   qt-mt323:qt-mt323.dll
 0002:0003ecd0       ?create@QWidget@@MAEXPAUHWND__@@_N1@Z 00461cd0 f   qt-mt323:qt-mt323.dll
 0002:0003ecd6       ?customEvent@QObject@@MAEXPAVQCustomEvent@@@Z 00461cd6 f   qt-mt323:qt-mt323.dll
 0002:0003ecdc       ?customWhatsThis@QWidget@@UBE_NXZ 00461cdc f   qt-mt323:qt-mt323.dll
 0002:0003ece2       ?destroy@QWidget@@MAEX_N0@Z 00461ce2 f   qt-mt323:qt-mt323.dll
 0002:0003ece8       ?disconnectNotify@QObject@@MAEXPBD@Z 00461ce8 f   qt-mt323:qt-mt323.dll
 0002:0003ecee       ?done@QDialog@@MAEXH@Z     00461cee f   qt-mt323:qt-mt323.dll
 0002:0003ecf4       ?dragEnterEvent@QWidget@@MAEXPAVQDragEnterEvent@@@Z 00461cf4 f   qt-mt323:qt-mt323.dll
 0002:0003ecfa       ?dragLeaveEvent@QWidget@@MAEXPAVQDragLeaveEvent@@@Z 00461cfa f   qt-mt323:qt-mt323.dll
 0002:0003ed00       ?dragMoveEvent@QWidget@@MAEXPAVQDragMoveEvent@@@Z 00461d00 f   qt-mt323:qt-mt323.dll
 0002:0003ed06       ?dropEvent@QWidget@@MAEXPAVQDropEvent@@@Z 00461d06 f   qt-mt323:qt-mt323.dll
 0002:0003ed0c       ?enabledChange@QWidget@@MAEX_N@Z 00461d0c f   qt-mt323:qt-mt323.dll
 0002:0003ed12       ?enterEvent@QWidget@@MAEXPAVQEvent@@@Z 00461d12 f   qt-mt323:qt-mt323.dll
 0002:0003ed18       ?event@QWidget@@MAE_NPAVQEvent@@@Z 00461d18 f   qt-mt323:qt-mt323.dll
 0002:0003ed1e       ?eventFilter@QDialog@@MAE_NPAVQObject@@PAVQEvent@@@Z 00461d1e f   qt-mt323:qt-mt323.dll
 0002:0003ed24       ?focusInEvent@QWidget@@MAEXPAVQFocusEvent@@@Z 00461d24 f   qt-mt323:qt-mt323.dll
 0002:0003ed2a       ?focusNextPrevChild@QWidget@@MAE_N_N@Z 00461d2a f   qt-mt323:qt-mt323.dll
 0002:0003ed30       ?focusOutEvent@QWidget@@MAEXPAVQFocusEvent@@@Z 00461d30 f   qt-mt323:qt-mt323.dll
 0002:0003ed36       ?fontChange@QWidget@@MAEXABVQFont@@@Z 00461d36 f   qt-mt323:qt-mt323.dll
 0002:0003ed3c       ?fontInf@QPaintDevice@@MBEHPAVQFont@@H@Z 00461d3c f   qt-mt323:qt-mt323.dll
 0002:0003ed42       ?fontMet@QPaintDevice@@MBEHPAVQFont@@HPBDH@Z 00461d42 f   qt-mt323:qt-mt323.dll
 0002:0003ed48       ?handle@QPaintDevice@@UBEPAUHDC__@@XZ 00461d48 f   qt-mt323:qt-mt323.dll
 0002:0003ed4e       ?heightForWidth@QWidget@@UBEHH@Z 00461d4e f   qt-mt323:qt-mt323.dll
 0002:0003ed54       ?hide@QDialog@@UAEXXZ      00461d54 f   qt-mt323:qt-mt323.dll
 0002:0003ed5a       ?hideEvent@QWidget@@MAEXPAVQHideEvent@@@Z 00461d5a f   qt-mt323:qt-mt323.dll
 0002:0003ed60       ?imComposeEvent@QWidget@@MAEXPAVQIMEvent@@@Z 00461d60 f   qt-mt323:qt-mt323.dll
 0002:0003ed66       ?imEndEvent@QWidget@@MAEXPAVQIMEvent@@@Z 00461d66 f   qt-mt323:qt-mt323.dll
 0002:0003ed6c       ?imStartEvent@QWidget@@MAEXPAVQIMEvent@@@Z 00461d6c f   qt-mt323:qt-mt323.dll
 0002:0003ed72       ?insertChild@QObject@@UAEXPAV1@@Z 00461d72 f   qt-mt323:qt-mt323.dll
 0002:0003ed78       ?keyPressEvent@QDialog@@MAEXPAVQKeyEvent@@@Z 00461d78 f   qt-mt323:qt-mt323.dll
 0002:0003ed7e       ?keyReleaseEvent@QWidget@@MAEXPAVQKeyEvent@@@Z 00461d7e f   qt-mt323:qt-mt323.dll
 0002:0003ed84       ?leaveEvent@QWidget@@MAEXPAVQEvent@@@Z 00461d84 f   qt-mt323:qt-mt323.dll
 0002:0003ed8a       ?metric@QWidget@@MBEHH@Z   00461d8a f   qt-mt323:qt-mt323.dll
 0002:0003ed90       ?minimumSizeHint@QDialog@@UBE?AVQSize@@XZ 00461d90 f   qt-mt323:qt-mt323.dll
 0002:0003ed96       ?mouseDoubleClickEvent@QWidget@@MAEXPAVQMouseEvent@@@Z 00461d96 f   qt-mt323:qt-mt323.dll
 0002:0003ed9c       ?mouseMoveEvent@QWidget@@MAEXPAVQMouseEvent@@@Z 00461d9c f   qt-mt323:qt-mt323.dll
 0002:0003eda2       ?mousePressEvent@QWidget@@MAEXPAVQMouseEvent@@@Z 00461da2 f   qt-mt323:qt-mt323.dll
 0002:0003eda8       ?mouseReleaseEvent@QWidget@@MAEXPAVQMouseEvent@@@Z 00461da8 f   qt-mt323:qt-mt323.dll
 0002:0003edae       ?move@QDialog@@UAEXHH@Z    00461dae f   qt-mt323:qt-mt323.dll
 0002:0003edb4       ?moveEvent@QWidget@@MAEXPAVQMoveEvent@@@Z 00461db4 f   qt-mt323:qt-mt323.dll
 0002:0003edba       ?paintEvent@QWidget@@MAEXPAVQPaintEvent@@@Z 00461dba f   qt-mt323:qt-mt323.dll
 0002:0003edc0       ?paletteChange@QWidget@@MAEXABVQPalette@@@Z 00461dc0 f   qt-mt323:qt-mt323.dll
 0002:0003edc6       ?polish@QWidget@@UAEXXZ    00461dc6 f   qt-mt323:qt-mt323.dll
 0002:0003edcc       ?property@QObject@@UBE?AVQVariant@@PBD@Z 00461dcc f   qt-mt323:qt-mt323.dll
 0002:0003edd2       ?reject@QDialog@@MAEXXZ    00461dd2 f   qt-mt323:qt-mt323.dll
 0002:0003edd8       ?removeChild@QObject@@UAEXPAV1@@Z 00461dd8 f   qt-mt323:qt-mt323.dll
 0002:0003edde       ?reparent@QWidget@@UAEXPAV1@IABVQPoint@@_N@Z 00461dde f   qt-mt323:qt-mt323.dll
 0002:0003ede4       ?resize@QDialog@@UAEXHH@Z  00461de4 f   qt-mt323:qt-mt323.dll
 0002:0003edea       ?resizeEvent@QDialog@@MAEXPAVQResizeEvent@@@Z 00461dea f   qt-mt323:qt-mt323.dll
 0002:0003edf0       ?resolution@QPaintDevice@@UBEHXZ 00461df0 f   qt-mt323:qt-mt323.dll
 0002:0003edf6       ?setAcceptDrops@QWidget@@UAEX_N@Z 00461df6 f   qt-mt323:qt-mt323.dll
 0002:0003edfc       ?setActiveWindow@QWidget@@UAEXXZ 00461dfc f   qt-mt323:qt-mt323.dll
 0002:0003ee02       ?setAutoMask@QWidget@@UAEX_N@Z 00461e02 f   qt-mt323:qt-mt323.dll
 0002:0003ee08       ?setBackgroundColor@QWidget@@UAEXABVQColor@@@Z 00461e08 f   qt-mt323:qt-mt323.dll
 0002:0003ee0e       ?setBackgroundMode@QWidget@@UAEXW4BackgroundMode@Qt@@@Z 00461e0e f   qt-mt323:qt-mt323.dll
 0002:0003ee14       ?setBackgroundOrigin@QWidget@@UAEXW4BackgroundOrigin@1@@Z 00461e14 f   qt-mt323:qt-mt323.dll
 0002:0003ee1a       ?setBackgroundPixmap@QWidget@@UAEXABVQPixmap@@@Z 00461e1a f   qt-mt323:qt-mt323.dll
 0002:0003ee20       ?setCaption@QWidget@@UAEXABVQString@@@Z 00461e20 f   qt-mt323:qt-mt323.dll
 0002:0003ee26       ?setCursor@QWidget@@UAEXABVQCursor@@@Z 00461e26 f   qt-mt323:qt-mt323.dll
 0002:0003ee2c       ?setEnabled@QWidget@@UAEX_N@Z 00461e2c f   qt-mt323:qt-mt323.dll
 0002:0003ee32       ?setEraseColor@QWidget@@UAEXABVQColor@@@Z 00461e32 f   qt-mt323:qt-mt323.dll
 0002:0003ee38       ?setErasePixmap@QWidget@@UAEXABVQPixmap@@@Z 00461e38 f   qt-mt323:qt-mt323.dll
 0002:0003ee3e       ?setFocus@QWidget@@UAEXXZ  00461e3e f   qt-mt323:qt-mt323.dll
 0002:0003ee44       ?setFocusPolicy@QWidget@@UAEXW4FocusPolicy@1@@Z 00461e44 f   qt-mt323:qt-mt323.dll
 0002:0003ee4a       ?setFocusProxy@QWidget@@UAEXPAV1@@Z 00461e4a f   qt-mt323:qt-mt323.dll
 0002:0003ee50       ?setFont@QWidget@@UAEXABVQFont@@@Z 00461e50 f   qt-mt323:qt-mt323.dll
 0002:0003ee56       ?setGeometry@QDialog@@UAEXABVQRect@@@Z 00461e56 f   qt-mt323:qt-mt323.dll
 0002:0003ee5c       ?setGeometry@QDialog@@UAEXHHHH@Z 00461e5c f   qt-mt323:qt-mt323.dll
 0002:0003ee62       ?setIcon@QWidget@@UAEXABVQPixmap@@@Z 00461e62 f   qt-mt323:qt-mt323.dll
 0002:0003ee68       ?setIconText@QWidget@@UAEXABVQString@@@Z 00461e68 f   qt-mt323:qt-mt323.dll
 0002:0003ee6e       ?setKeyCompression@QWidget@@MAEX_N@Z 00461e6e f   qt-mt323:qt-mt323.dll
 0002:0003ee74       ?setMask@QWidget@@UAEXABVQBitmap@@@Z 00461e74 f   qt-mt323:qt-mt323.dll
 0002:0003ee7a       ?setMask@QWidget@@UAEXABVQRegion@@@Z 00461e7a f   qt-mt323:qt-mt323.dll
 0002:0003ee80       ?setMaximumSize@QWidget@@UAEXHH@Z 00461e80 f   qt-mt323:qt-mt323.dll
 0002:0003ee86       ?setMicroFocusHint@QWidget@@MAEXHHHH_NPAVQFont@@@Z 00461e86 f   qt-mt323:qt-mt323.dll
 0002:0003ee8c       ?setMinimumSize@QWidget@@UAEXHH@Z 00461e8c f   qt-mt323:qt-mt323.dll
 0002:0003ee92       ?setMouseTracking@QWidget@@UAEX_N@Z 00461e92 f   qt-mt323:qt-mt323.dll
 0002:0003ee98       ?setName@QWidget@@UAEXPBD@Z 00461e98 f   qt-mt323:qt-mt323.dll
 0002:0003ee9e       ?setPalette@QWidget@@UAEXABVQPalette@@@Z 00461e9e f   qt-mt323:qt-mt323.dll
 0002:0003eea4       ?setPaletteBackgroundColor@QWidget@@UAEXABVQColor@@@Z 00461ea4 f   qt-mt323:qt-mt323.dll
 0002:0003eeaa       ?setPaletteBackgroundPixmap@QWidget@@UAEXABVQPixmap@@@Z 00461eaa f   qt-mt323:qt-mt323.dll
 0002:0003eeb0       ?setProperty@QObject@@UAE_NPBDABVQVariant@@@Z 00461eb0 f   qt-mt323:qt-mt323.dll
 0002:0003eeb6       ?setResolution@QPaintDevice@@UAEXH@Z 00461eb6 f   qt-mt323:qt-mt323.dll
 0002:0003eebc       ?setSizeIncrement@QWidget@@UAEXHH@Z 00461ebc f   qt-mt323:qt-mt323.dll
 0002:0003eec2       ?setSizePolicy@QWidget@@UAEXVQSizePolicy@@@Z 00461ec2 f   qt-mt323:qt-mt323.dll
 0002:0003eec8       ?setUpdatesEnabled@QWidget@@UAEX_N@Z 00461ec8 f   qt-mt323:qt-mt323.dll
 0002:0003eece       ?setWFlags@QWidget@@MAEXI@Z 00461ece f   qt-mt323:qt-mt323.dll
 0002:0003eed4       ?setWState@QWidget@@MAEXI@Z 00461ed4 f   qt-mt323:qt-mt323.dll
 0002:0003eeda       ?show@QDialog@@UAEXXZ      00461eda f   qt-mt323:qt-mt323.dll
 0002:0003eee0       ?showEvent@QWidget@@MAEXPAVQShowEvent@@@Z 00461ee0 f   qt-mt323:qt-mt323.dll
 0002:0003eee6       ?showMaximized@QWidget@@UAEXXZ 00461ee6 f   qt-mt323:qt-mt323.dll
 0002:0003eeec       ?showMinimized@QWidget@@UAEXXZ 00461eec f   qt-mt323:qt-mt323.dll
 0002:0003eef2       ?showNormal@QWidget@@UAEXXZ 00461ef2 f   qt-mt323:qt-mt323.dll
 0002:0003eef8       ?sizeHint@QDialog@@UBE?AVQSize@@XZ 00461ef8 f   qt-mt323:qt-mt323.dll
 0002:0003eefe       ?sizePolicy@QWidget@@UBE?AVQSizePolicy@@XZ 00461efe f   qt-mt323:qt-mt323.dll
 0002:0003ef04       ?styleChange@QWidget@@MAEXAAVQStyle@@@Z 00461f04 f   qt-mt323:qt-mt323.dll
 0002:0003ef0a       ?tabletEvent@QWidget@@MAEXPAVQTabletEvent@@@Z 00461f0a f   qt-mt323:qt-mt323.dll
 0002:0003ef10       ?timerEvent@QObject@@MAEXPAVQTimerEvent@@@Z 00461f10 f   qt-mt323:qt-mt323.dll
 0002:0003ef16       ?unsetCursor@QWidget@@UAEXXZ 00461f16 f   qt-mt323:qt-mt323.dll
 0002:0003ef1c       ?updateMask@QWidget@@MAEXXZ 00461f1c f   qt-mt323:qt-mt323.dll
 0002:0003ef22       ?wheelEvent@QWidget@@MAEXPAVQWheelEvent@@@Z 00461f22 f   qt-mt323:qt-mt323.dll
 0002:0003ef28       ?winEvent@QWidget@@MAE_NPAUtagMSG@@@Z 00461f28 f   qt-mt323:qt-mt323.dll
 0002:0003ef2e       ?windowActivationChange@QWidget@@MAEX_N@Z 00461f2e f   qt-mt323:qt-mt323.dll
 0002:0003ef34       ?qDebug@@YAXPBDZZ          00461f34 f   qt-mt323:qt-mt323.dll
 0002:0003ef3a       ??0QChar@@QAE@D@Z          00461f3a f   qt-mt323:qt-mt323.dll
 0002:0003ef40       ??0QString@@QAE@XZ         00461f40 f   qt-mt323:qt-mt323.dll
 0002:0003ef46       ??0QString@@QAE@ABV0@@Z    00461f46 f   qt-mt323:qt-mt323.dll
 0002:0003ef4c       ??4QString@@QAEAAV0@ABV0@@Z 00461f4c f   qt-mt323:qt-mt323.dll
 0002:0003ef52       ?arg@QString@@QBE?AV1@HHH@Z 00461f52 f   qt-mt323:qt-mt323.dll
 0002:0003ef58       ?arg@QString@@QBE?AV1@ABV1@H@Z 00461f58 f   qt-mt323:qt-mt323.dll
 0002:0003ef5e       ?lower@QString@@QBE?AV1@XZ 00461f5e f   qt-mt323:qt-mt323.dll
 0002:0003ef64       ?upper@QString@@QBE?AV1@XZ 00461f64 f   qt-mt323:qt-mt323.dll
 0002:0003ef6a       ?replace@QString@@QAEAAV1@ABV1@0@Z 00461f6a f   qt-mt323:qt-mt323.dll
 0002:0003ef70       ??AQString@@QAE?AVQCharRef@@H@Z 00461f70 f   qt-mt323:qt-mt323.dll
 0002:0003ef76       ??BQString@@QBEPBDXZ       00461f76 f   qt-mt323:qt-mt323.dll
 0002:0003ef7c       ??BQCharRef@@QBE?AVQChar@@XZ 00461f7c f   qt-mt323:qt-mt323.dll
 0002:0003ef82       ??9@YA_NABVQString@@0@Z    00461f82 f   qt-mt323:qt-mt323.dll
 0002:0003ef88       ??9@YA_NABVQString@@PBD@Z  00461f88 f   qt-mt323:qt-mt323.dll
 0002:0003ef8e       ??8@YA_NABVQString@@PBD@Z  00461f8e f   qt-mt323:qt-mt323.dll
 0002:0003ef94       ??H@YA?BVQString@@ABV0@PBD@Z 00461f94 f   qt-mt323:qt-mt323.dll
 0002:0003ef9a       ?timerId@QTimerEvent@@QBEHXZ 00461f9a f   qt-mt323:qt-mt323.dll
 0002:0003efa0       ?startTimer@QObject@@QAEHH@Z 00461fa0 f   qt-mt323:qt-mt323.dll
 0002:0003efa6       ?killTimer@QObject@@QAEXH@Z 00461fa6 f   qt-mt323:qt-mt323.dll
 0002:0003efac       ?connect@QObject@@SA_NPBV1@PBD01@Z 00461fac f   qt-mt323:qt-mt323.dll
 0002:0003efb2       ?disconnect@QObject@@QAE_NPBDPBV1@0@Z 00461fb2 f   qt-mt323:qt-mt323.dll
 0002:0003efb8       ?deleteLater@QObject@@QAEXXZ 00461fb8 f   qt-mt323:qt-mt323.dll
 0002:0003efbe       ?argv@QApplication@@QBEPAPADXZ 00461fbe f   qt-mt323:qt-mt323.dll
 0002:0003efc4       ?quit@QApplication@@QAEXXZ 00461fc4 f   qt-mt323:qt-mt323.dll
 0002:0003efca       ?exec@QDialog@@QAEHXZ      00461fca f   qt-mt323:qt-mt323.dll
 0002:0003efd0       ?information@QMessageBox@@SAHPAVQWidget@@ABVQString@@1111HH@Z 00461fd0 f   qt-mt323:qt-mt323.dll
 0002:0003efd6       ?critical@QMessageBox@@SAHPAVQWidget@@ABVQString@@1111HH@Z 00461fd6 f   qt-mt323:qt-mt323.dll
 0002:0003efdc       ?remove@QLayout@@QAEXPAVQWidget@@@Z 00461fdc f   qt-mt323:qt-mt323.dll
 0002:0003efe2       ?addWidget@QBoxLayout@@QAEXPAVQWidget@@HH@Z 00461fe2 f   qt-mt323:qt-mt323.dll
 0002:0003efe8       ??0QDir@@QAE@XZ            00461fe8 f   qt-mt323:qt-mt323.dll
 0002:0003efee       ??1QDir@@UAE@XZ            00461fee f   qt-mt323:qt-mt323.dll
 0002:0003eff4       ?mkdir@QDir@@UBE_NABVQString@@_N@Z 00461ff4 f   qt-mt323:qt-mt323.dll
 0002:0003effa       ??0QProcess@@QAE@PAVQObject@@PBD@Z 00461ffa f   qt-mt323:qt-mt323.dll
 0002:0003f000       ??1QProcess@@UAE@XZ        00462000 f   qt-mt323:qt-mt323.dll
 0002:0003f006       ?addArgument@QProcess@@UAEXABVQString@@@Z 00462006 f   qt-mt323:qt-mt323.dll
 0002:0003f00c       ?start@QProcess@@UAE_NPAVQStringList@@@Z 0046200c f   qt-mt323:qt-mt323.dll
 0002:0003f012       ??0QPixmap@@QAE@QAPBD@Z    00462012 f   qt-mt323:qt-mt323.dll
 0002:0003f018       ??1QPixmap@@UAE@XZ         00462018 f   qt-mt323:qt-mt323.dll
 0002:0003f01e       ??0QKeySequence@@QAE@H@Z   0046201e f   qt-mt323:qt-mt323.dll
 0002:0003f024       ??1QKeySequence@@QAE@XZ    00462024 f   qt-mt323:qt-mt323.dll
 0002:0003f02a       ?count@QMenuData@@QBEIXZ   0046202a f   qt-mt323:qt-mt323.dll
 0002:0003f030       ?insertItem@QMenuData@@QAEHABVQString@@PBVQObject@@PBDABVQKeySequence@@HH@Z 00462030 f   qt-mt323:qt-mt323.dll
 0002:0003f036       ?insertSeparator@QMenuData@@QAEHH@Z 00462036 f   qt-mt323:qt-mt323.dll
 0002:0003f03c       ?findItem@QMenuData@@QBEPAVQMenuItem@@HPAPAV1@@Z 0046203c f   qt-mt323:qt-mt323.dll
 0002:0003f042       ?menuBar@QMainWindow@@QBEPAVQMenuBar@@XZ 00462042 f   qt-mt323:qt-mt323.dll
 0002:0003f048       ?addDockWindow@QMainWindow@@UAEXPAVQDockWindow@@ABVQString@@W4Dock@Qt@@_N@Z 00462048 f   qt-mt323:qt-mt323.dll
 0002:0003f04e       ?addDockWindow@QMainWindow@@UAEXPAVQDockWindow@@W4Dock@Qt@@_N@Z 0046204e f   qt-mt323:qt-mt323.dll
 0002:0003f054       ?childEvent@QMainWindow@@MAEXPAVQChildEvent@@@Z 00462054 f   qt-mt323:qt-mt323.dll
 0002:0003f05a       ?closeEvent@QWidget@@MAEXPAVQCloseEvent@@@Z 0046205a f   qt-mt323:qt-mt323.dll
 0002:0003f060       ?contextMenuEvent@QWidget@@MAEXPAVQContextMenuEvent@@@Z 00462060 f   qt-mt323:qt-mt323.dll
 0002:0003f066       ?customize@QMainWindow@@UAEXXZ 00462066 f   qt-mt323:qt-mt323.dll
 0002:0003f06c       ?dockingArea@QMainWindow@@UAEPAVQDockArea@@ABVQPoint@@@Z 0046206c f   qt-mt323:qt-mt323.dll
 0002:0003f072       ?event@QMainWindow@@MAE_NPAVQEvent@@@Z 00462072 f   qt-mt323:qt-mt323.dll
 0002:0003f078       ?eventFilter@QMainWindow@@UAE_NPAVQObject@@PAVQEvent@@@Z 00462078 f   qt-mt323:qt-mt323.dll
 0002:0003f07e       ?hide@QMainWindow@@UAEXXZ  0046207e f   qt-mt323:qt-mt323.dll
 0002:0003f084       ?isCustomizable@QMainWindow@@UBE_NXZ 00462084 f   qt-mt323:qt-mt323.dll
 0002:0003f08a       ?keyPressEvent@QWidget@@MAEXPAVQKeyEvent@@@Z 0046208a f   qt-mt323:qt-mt323.dll
 0002:0003f090       ?minimumSizeHint@QMainWindow@@UBE?AVQSize@@XZ 00462090 f   qt-mt323:qt-mt323.dll
 0002:0003f096       ?move@QWidget@@UAEXHH@Z    00462096 f   qt-mt323:qt-mt323.dll
 0002:0003f09c       ?moveDockWindow@QMainWindow@@UAEXPAVQDockWindow@@W4Dock@Qt@@@Z 0046209c f   qt-mt323:qt-mt323.dll
 0002:0003f0a2       ?moveDockWindow@QMainWindow@@UAEXPAVQDockWindow@@W4Dock@Qt@@_NHH@Z 004620a2 f   qt-mt323:qt-mt323.dll
 0002:0003f0a8       ?paintEvent@QMainWindow@@MAEXPAVQPaintEvent@@@Z 004620a8 f   qt-mt323:qt-mt323.dll
 0002:0003f0ae       ?removeDockWindow@QMainWindow@@UAEXPAVQDockWindow@@@Z 004620ae f   qt-mt323:qt-mt323.dll
 0002:0003f0b4       ?resize@QWidget@@UAEXHH@Z  004620b4 f   qt-mt323:qt-mt323.dll
 0002:0003f0ba       ?resizeEvent@QWidget@@MAEXPAVQResizeEvent@@@Z 004620ba f   qt-mt323:qt-mt323.dll
 0002:0003f0c0       ?setAppropriate@QMainWindow@@UAEXPAVQDockWindow@@_N@Z 004620c0 f   qt-mt323:qt-mt323.dll
 0002:0003f0c6       ?setCentralWidget@QMainWindow@@UAEXPAVQWidget@@@Z 004620c6 f   qt-mt323:qt-mt323.dll
 0002:0003f0cc       ?setDockEnabled@QMainWindow@@UAEXPAVQDockWindow@@W4Dock@Qt@@_N@Z 004620cc f   qt-mt323:qt-mt323.dll
 0002:0003f0d2       ?setDockEnabled@QMainWindow@@UAEXW4Dock@Qt@@_N@Z 004620d2 f   qt-mt323:qt-mt323.dll
 0002:0003f0d8       ?setDockMenuEnabled@QMainWindow@@UAEX_N@Z 004620d8 f   qt-mt323:qt-mt323.dll
 0002:0003f0de       ?setDockWindowsMovable@QMainWindow@@UAEX_N@Z 004620de f   qt-mt323:qt-mt323.dll
 0002:0003f0e4       ?setGeometry@QWidget@@UAEXABVQRect@@@Z 004620e4 f   qt-mt323:qt-mt323.dll
 0002:0003f0ea       ?setGeometry@QWidget@@UAEXHHHH@Z 004620ea f   qt-mt323:qt-mt323.dll
 0002:0003f0f0       ?setMenuBar@QMainWindow@@EAEXPAVQMenuBar@@@Z 004620f0 f   qt-mt323:qt-mt323.dll
 0002:0003f0f6       ?setOpaqueMoving@QMainWindow@@UAEX_N@Z 004620f6 f   qt-mt323:qt-mt323.dll
 0002:0003f0fc       ?setRightJustification@QMainWindow@@UAEX_N@Z 004620fc f   qt-mt323:qt-mt323.dll
 0002:0003f102       ?setStatusBar@QMainWindow@@EAEXPAVQStatusBar@@@Z 00462102 f   qt-mt323:qt-mt323.dll
 0002:0003f108       ?setToolTipGroup@QMainWindow@@EAEXPAVQToolTipGroup@@@Z 00462108 f   qt-mt323:qt-mt323.dll
 0002:0003f10e       ?setUpLayout@QMainWindow@@MAEXXZ 0046210e f   qt-mt323:qt-mt323.dll
 0002:0003f114       ?setUsesBigPixmaps@QMainWindow@@UAEX_N@Z 00462114 f   qt-mt323:qt-mt323.dll
 0002:0003f11a       ?setUsesTextLabel@QMainWindow@@UAEX_N@Z 0046211a f   qt-mt323:qt-mt323.dll
 0002:0003f120       ?show@QMainWindow@@UAEXXZ  00462120 f   qt-mt323:qt-mt323.dll
 0002:0003f126       ?showDockMenu@QMainWindow@@MAE_NABVQPoint@@@Z 00462126 f   qt-mt323:qt-mt323.dll
 0002:0003f12c       ?sizeHint@QMainWindow@@UBE?AVQSize@@XZ 0046212c f   qt-mt323:qt-mt323.dll
 0002:0003f132       ?styleChange@QMainWindow@@MAEXAAVQStyle@@@Z 00462132 f   qt-mt323:qt-mt323.dll
 0002:0003f138       ?whatsThis@QMainWindow@@UAEXXZ 00462138 f   qt-mt323:qt-mt323.dll
 0002:0003f13e       ?deref@QShared@@QAE_NXZ    0046213e f   qt-mt323:qt-mt323.dll
 0002:0003f144       ??4QString@@QAEAAV0@PBD@Z  00462144 f   qt-mt323:qt-mt323.dll
 0002:0003f14a       ?length@QString@@QBEIXZ    0046214a f   qt-mt323:qt-mt323.dll
 0002:0003f150       ?toULong@QString@@QBEKPA_NH@Z 00462150 f   qt-mt323:qt-mt323.dll
 0002:0003f156       ??YQString@@QAEAAV0@PBD@Z  00462156 f   qt-mt323:qt-mt323.dll
 0002:0003f15c       ??YQString@@QAEAAV0@D@Z    0046215c f   qt-mt323:qt-mt323.dll
 0002:0003f162       ?ascii@QString@@QBEPBDXZ   00462162 f   qt-mt323:qt-mt323.dll
 0002:0003f168       ??H@YA?BVQString@@ABV0@0@Z 00462168 f   qt-mt323:qt-mt323.dll
 0002:0003f16e       ??H@YA?BVQString@@PBDABV0@@Z 0046216e f   qt-mt323:qt-mt323.dll
 0002:0003f174       ?setAutoDelete@QPtrCollection@@QAEX_N@Z 00462174 f   qt-mt323:qt-mt323.dll
 0002:0003f17a       ?count@QGList@@UBEIXZ      0046217a f   qt-mt323:qt-mt323.dll
 0002:0003f180       ??0QGList@@IAE@XZ          00462180 f   qt-mt323:qt-mt323.dll
 0002:0003f186       ??1QGList@@MAE@XZ          00462186 f   qt-mt323:qt-mt323.dll
 0002:0003f18c       ?append@QGList@@IAEXPAX@Z  0046218c f   qt-mt323:qt-mt323.dll
 0002:0003f192       ?clear@QGList@@MAEXXZ      00462192 f   qt-mt323:qt-mt323.dll
 0002:0003f198       ?first@QGList@@IAEPAXXZ    00462198 f   qt-mt323:qt-mt323.dll
 0002:0003f19e       ?next@QGList@@IAEPAXXZ     0046219e f   qt-mt323:qt-mt323.dll
 0002:0003f1a4       ??0QGListIterator@@IAE@ABVQGList@@@Z 004621a4 f   qt-mt323:qt-mt323.dll
 0002:0003f1aa       ??1QGListIterator@@IAE@XZ  004621aa f   qt-mt323:qt-mt323.dll
 0002:0003f1b0       ?toLast@QGListIterator@@IAEPAXXZ 004621b0 f   qt-mt323:qt-mt323.dll
 0002:0003f1b6       ?get@QGListIterator@@IBEPAXXZ 004621b6 f   qt-mt323:qt-mt323.dll
 0002:0003f1bc       ??FQGListIterator@@IAEPAXXZ 004621bc f   qt-mt323:qt-mt323.dll
 0002:0003f1c2       ?join@QStringList@@QBE?AVQString@@ABV2@@Z 004621c2 f   qt-mt323:qt-mt323.dll
 0002:0003f1c8       ??1QStringList@@QAE@XZ     004621c8 f   qt-mt323:qt-mt323.dll
 0002:0003f1ce       ?minimum@QMapNodeBase@@QAEPAU1@XZ 004621ce f   qt-mt323:qt-mt323.dll
 0002:0003f1d4       ?maximum@QMapNodeBase@@QAEPAU1@XZ 004621d4 f   qt-mt323:qt-mt323.dll
 0002:0003f1da       ??0QMapPrivateBase@@QAE@XZ 004621da f   qt-mt323:qt-mt323.dll
 0002:0003f1e0       ??0QMapPrivateBase@@QAE@PBV0@@Z 004621e0 f   qt-mt323:qt-mt323.dll
 0002:0003f1e6       ?rebalance@QMapPrivateBase@@QAEXPAUQMapNodeBase@@AAPAU2@@Z 004621e6 f   qt-mt323:qt-mt323.dll
 0002:0003f1ec       ?name@QObject@@QBEPBDXZ    004621ec f   qt-mt323:qt-mt323.dll
 0002:0003f1f2       ?sender@QObject@@IAEPBV1@XZ 004621f2 f   qt-mt323:qt-mt323.dll
 0002:0003f1f8       ??0QDir@@QAE@ABVQString@@0HH@Z 004621f8 f   qt-mt323:qt-mt323.dll
 0002:0003f1fe       ?arguments@QProcess@@QBE?AVQStringList@@XZ 004621fe f   qt-mt323:qt-mt323.dll
 0002:0003f204       ?isRunning@QProcess@@QBE_NXZ 00462204 f   qt-mt323:qt-mt323.dll
 0002:0003f20a       ?normalExit@QProcess@@QBE_NXZ 0046220a f   qt-mt323:qt-mt323.dll
 0002:0003f210       ?exitStatus@QProcess@@QBEHXZ 00462210 f   qt-mt323:qt-mt323.dll
 0002:0003f216       ?tryTerminate@QProcess@@QBEXXZ 00462216 f   qt-mt323:qt-mt323.dll
 0002:0003f21c       ?isSelected@QListViewItem@@QBE_NXZ 0046221c f   qt-mt323:qt-mt323.dll
 0002:0003f222       ??0QListViewItemIterator@@QAE@PAVQListViewItem@@@Z 00462222 f   qt-mt323:qt-mt323.dll
 0002:0003f228       ??0QListViewItemIterator@@QAE@PAVQListView@@@Z 00462228 f   qt-mt323:qt-mt323.dll
 0002:0003f22e       ??1QListViewItemIterator@@QAE@XZ 0046222e f   qt-mt323:qt-mt323.dll
 0002:0003f234       ??EQListViewItemIterator@@QAEAAV0@XZ 00462234 f   qt-mt323:qt-mt323.dll
 0002:0003f23a       ??DQListViewItemIterator@@QAEPAVQListViewItem@@XZ 0046223a f   qt-mt323:qt-mt323.dll
 0002:0003f240       ?current@QListViewItemIterator@@QBEPAVQListViewItem@@XZ 00462240 f   qt-mt323:qt-mt323.dll
 0002:0003f246       ?pos@QCursor@@SA?AVQPoint@@XZ 00462246 f   qt-mt323:qt-mt323.dll
 0002:0003f24c       ?insertItem@QMenuData@@QAEHABVQString@@HH@Z 0046224c f   qt-mt323:qt-mt323.dll
 0002:0003f252       ??0QPopupMenu@@QAE@PAVQWidget@@PBD@Z 00462252 f   qt-mt323:qt-mt323.dll
 0002:0003f258       ??1QPopupMenu@@UAE@XZ      00462258 f   qt-mt323:qt-mt323.dll
 0002:0003f25e       ?exec@QPopupMenu@@QAEHABVQPoint@@H@Z 0046225e f   qt-mt323:qt-mt323.dll
 0002:0003f264       ?singleShot@QTimer@@SAXHPAVQObject@@PBD@Z 00462264 f   qt-mt323:qt-mt323.dll
 0002:0003f26a       ?compareItems@QGList@@MAEHPAX0@Z 0046226a f   qt-mt323:qt-mt323.dll
 0002:0003f270       ?eventFilter@QObject@@UAE_NPAV1@PAVQEvent@@@Z 00462270 f   qt-mt323:qt-mt323.dll
 0002:0003f276       ?hide@QWidget@@UAEXXZ      00462276 f   qt-mt323:qt-mt323.dll
 0002:0003f27c       ?minimumSizeHint@QWidget@@UBE?AVQSize@@XZ 0046227c f   qt-mt323:qt-mt323.dll
 0002:0003f282       ?newItem@QPtrCollection@@MAEPAXPAX@Z 00462282 f   qt-mt323:qt-mt323.dll
 0002:0003f288       ?read@QGList@@MAEAAVQDataStream@@AAV2@AAPAX@Z 00462288 f   qt-mt323:qt-mt323.dll
 0002:0003f28e       ?show@QWidget@@UAEXXZ      0046228e f   qt-mt323:qt-mt323.dll
 0002:0003f294       ?sizeHint@QWidget@@UBE?AVQSize@@XZ 00462294 f   qt-mt323:qt-mt323.dll
 0002:0003f29a       ?write@QGList@@MBEAAVQDataStream@@AAV2@PAX@Z 0046229a f   qt-mt323:qt-mt323.dll
 0002:0003f2a0       ?arg@QString@@QBE?AV1@KHH@Z 004622a0 f   qt-mt323:qt-mt323.dll
 0002:0003f2a6       ??0QColor@@QAE@PBD@Z       004622a6 f   qt-mt323:qt-mt323.dll
 0002:0003f2ac       ??0QBrush@@QAE@ABVQColor@@W4BrushStyle@Qt@@@Z 004622ac f   qt-mt323:qt-mt323.dll
 0002:0003f2b2       ??1QBrush@@QAE@XZ          004622b2 f   qt-mt323:qt-mt323.dll
 0002:0003f2b8       ??0QColorGroup@@QAE@ABV0@@Z 004622b8 f   qt-mt323:qt-mt323.dll
 0002:0003f2be       ??1QColorGroup@@QAE@XZ     004622be f   qt-mt323:qt-mt323.dll
 0002:0003f2c4       ?setBrush@QColorGroup@@QAEXW4ColorRole@1@ABVQBrush@@@Z 004622c4 f   qt-mt323:qt-mt323.dll
 0002:0003f2ca       ??0QListViewItem@@QAE@PAVQListView@@PAV0@VQString@@2222222@Z 004622ca f   qt-mt323:qt-mt323.dll
 0002:0003f2d0       ??1QListViewItem@@UAE@XZ   004622d0 f   qt-mt323:qt-mt323.dll
 0002:0003f2d6       ?setText@QListViewItem@@UAEXHABVQString@@@Z 004622d6 f   qt-mt323:qt-mt323.dll
 0002:0003f2dc       ?paintCell@QListViewItem@@UAEXPAVQPainter@@ABVQColorGroup@@HHH@Z 004622dc f   qt-mt323:qt-mt323.dll
 0002:0003f2e2       ?lastItem@QListView@@QBEPAVQListViewItem@@XZ 004622e2 f   qt-mt323:qt-mt323.dll
 0002:0003f2e8       ?toString@QDateTime@@QBE?AVQString@@ABV2@@Z 004622e8 f   qt-mt323:qt-mt323.dll
 0002:0003f2ee       ?currentDateTime@QDateTime@@SA?AV1@XZ 004622ee f   qt-mt323:qt-mt323.dll
 0002:0003f2f4       ?acceptDrop@QListViewItem@@UBE_NPBVQMimeSource@@@Z 004622f4 f   qt-mt323:qt-mt323.dll
 0002:0003f2fa       ?activate@QListViewItem@@MAEXXZ 004622fa f   qt-mt323:qt-mt323.dll
 0002:0003f300       ?cancelRename@QListViewItem@@MAEXH@Z 00462300 f   qt-mt323:qt-mt323.dll
 0002:0003f306       ?compare@QListViewItem@@UBEHPAV1@H_N@Z 00462306 f   qt-mt323:qt-mt323.dll
 0002:0003f30c       ?dragEntered@QListViewItem@@MAEXXZ 0046230c f   qt-mt323:qt-mt323.dll
 0002:0003f312       ?dragLeft@QListViewItem@@MAEXXZ 00462312 f   qt-mt323:qt-mt323.dll
 0002:0003f318       ?dropped@QListViewItem@@MAEXPAVQDropEvent@@@Z 00462318 f   qt-mt323:qt-mt323.dll
 0002:0003f31e       ?enforceSortOrder@QListViewItem@@MBEXXZ 0046231e f   qt-mt323:qt-mt323.dll
 0002:0003f324       ?insertItem@QListViewItem@@UAEXPAV1@@Z 00462324 f   qt-mt323:qt-mt323.dll
 0002:0003f32a       ?invalidateHeight@QListViewItem@@UAEXXZ 0046232a f   qt-mt323:qt-mt323.dll
 0002:0003f330       ?key@QListViewItem@@UBE?AVQString@@H_N@Z 00462330 f   qt-mt323:qt-mt323.dll
 0002:0003f336       ?okRename@QListViewItem@@MAEXH@Z 00462336 f   qt-mt323:qt-mt323.dll
 0002:0003f33c       ?paintBranches@QListViewItem@@UAEXPAVQPainter@@ABVQColorGroup@@HHH@Z 0046233c f   qt-mt323:qt-mt323.dll
 0002:0003f342       ?paintFocus@QListViewItem@@UAEXPAVQPainter@@ABVQColorGroup@@ABVQRect@@@Z 00462342 f   qt-mt323:qt-mt323.dll
 0002:0003f348       ?pixmap@QListViewItem@@UBEPBVQPixmap@@H@Z 00462348 f   qt-mt323:qt-mt323.dll
 0002:0003f34e       ?removeItem@QListViewItem@@UAEXPAV1@@Z 0046234e f   qt-mt323:qt-mt323.dll
 0002:0003f354       ?rtti@QListViewItem@@UBEHXZ 00462354 f   qt-mt323:qt-mt323.dll
 0002:0003f35a       ?setDragEnabled@QListViewItem@@UAEX_N@Z 0046235a f   qt-mt323:qt-mt323.dll
 0002:0003f360       ?setDropEnabled@QListViewItem@@UAEX_N@Z 00462360 f   qt-mt323:qt-mt323.dll
 0002:0003f366       ?setEnabled@QListViewItem@@UAEX_N@Z 00462366 f   qt-mt323:qt-mt323.dll
 0002:0003f36c       ?setExpandable@QListViewItem@@UAEX_N@Z 0046236c f   qt-mt323:qt-mt323.dll
 0002:0003f372       ?setHeight@QListViewItem@@MAEXH@Z 00462372 f   qt-mt323:qt-mt323.dll
 0002:0003f378       ?setMultiLinesEnabled@QListViewItem@@UAEX_N@Z 00462378 f   qt-mt323:qt-mt323.dll
 0002:0003f37e       ?setOpen@QListViewItem@@UAEX_N@Z 0046237e f   qt-mt323:qt-mt323.dll
 0002:0003f384       ?setPixmap@QListViewItem@@UAEXHABVQPixmap@@@Z 00462384 f   qt-mt323:qt-mt323.dll
 0002:0003f38a       ?setRenameEnabled@QListViewItem@@UAEXH_N@Z 0046238a f   qt-mt323:qt-mt323.dll
 0002:0003f390       ?setSelectable@QListViewItem@@UAEX_N@Z 00462390 f   qt-mt323:qt-mt323.dll
 0002:0003f396       ?setSelected@QListViewItem@@UAEX_N@Z 00462396 f   qt-mt323:qt-mt323.dll
 0002:0003f39c       ?setup@QListViewItem@@UAEXXZ 0046239c f   qt-mt323:qt-mt323.dll
 0002:0003f3a2       ?sort@QListViewItem@@UAEXXZ 004623a2 f   qt-mt323:qt-mt323.dll
 0002:0003f3a8       ?sortChildItems@QListViewItem@@UAEXH_N@Z 004623a8 f   qt-mt323:qt-mt323.dll
 0002:0003f3ae       ?startRename@QListViewItem@@UAEXH@Z 004623ae f   qt-mt323:qt-mt323.dll
 0002:0003f3b4       ?takeItem@QListViewItem@@UAEXPAV1@@Z 004623b4 f   qt-mt323:qt-mt323.dll
 0002:0003f3ba       ?text@QListViewItem@@UBE?AVQString@@H@Z 004623ba f   qt-mt323:qt-mt323.dll
 0002:0003f3c0       ?width@QListViewItem@@UBEHABVQFontMetrics@@PBVQListView@@H@Z 004623c0 f   qt-mt323:qt-mt323.dll
 0002:0003f3c6       ?prepend@QString@@QAEAAV1@ABV1@@Z 004623c6 f   qt-mt323:qt-mt323.dll
 0002:0003f3cc       ??H@YA?BVQString@@ABV0@D@Z 004623cc f   qt-mt323:qt-mt323.dll
 0002:0003f3d2       ??9?$QValueListIterator@VQString@@@@QBE_NABV0@@Z 004623d2 f   qt-mt323:qt-mt323.dll
 0002:0003f3d8       ??D?$QValueListIterator@VQString@@@@QAEAAVQString@@XZ 004623d8 f   qt-mt323:qt-mt323.dll
 0002:0003f3de       ??E?$QValueListIterator@VQString@@@@QAEAAV0@XZ 004623de f   qt-mt323:qt-mt323.dll
 0002:0003f3e4       ?begin@?$QValueList@VQString@@@@QAE?AV?$QValueListIterator@VQString@@@@XZ 004623e4 f   qt-mt323:qt-mt323.dll
 0002:0003f3ea       ?end@?$QValueList@VQString@@@@QAE?AV?$QValueListIterator@VQString@@@@XZ 004623ea f   qt-mt323:qt-mt323.dll
 0002:0003f3f0       ?append@?$QValueList@VQString@@@@QAE?AV?$QValueListIterator@VQString@@@@ABVQString@@@Z 004623f0 f   qt-mt323:qt-mt323.dll
 0002:0003f3f6       ?count@?$QValueList@VQString@@@@QBEIXZ 004623f6 f   qt-mt323:qt-mt323.dll
 0002:0003f3fc       ??0QObject@@QAE@PAV0@PBD@Z 004623fc f   qt-mt323:qt-mt323.dll
 0002:0003f402       ??1QObject@@UAE@XZ         00462402 f   qt-mt323:qt-mt323.dll
 0002:0003f408       ??0QStringList@@QAE@XZ     00462408 f   qt-mt323:qt-mt323.dll
 0002:0003f40e       ?remove@QFile@@SA_NABVQString@@@Z 0046240e f   qt-mt323:qt-mt323.dll
 0002:0003f414       ??0QDate@@QAE@XZ           00462414 f   qt-mt323:qt-mt323.dll
 0002:0003f41a       ?addDays@QDate@@QBE?AV1@H@Z 0046241a f   qt-mt323:qt-mt323.dll
 0002:0003f420       ??9QDate@@QBE_NABV0@@Z     00462420 f   qt-mt323:qt-mt323.dll
 0002:0003f426       ?currentDate@QDate@@SA?AV1@XZ 00462426 f   qt-mt323:qt-mt323.dll
 0002:0003f42c       ??0QDateTime@@QAE@ABVQDate@@@Z 0046242c f   qt-mt323:qt-mt323.dll
 0002:0003f432       ??MQDateTime@@QBE_NABV0@@Z 00462432 f   qt-mt323:qt-mt323.dll
 0002:0003f438       ??0QFileInfo@@QAE@ABVQString@@@Z 00462438 f   qt-mt323:qt-mt323.dll
 0002:0003f43e       ??1QFileInfo@@QAE@XZ       0046243e f   qt-mt323:qt-mt323.dll
 0002:0003f444       ?exists@QFileInfo@@QBE_NXZ 00462444 f   qt-mt323:qt-mt323.dll
 0002:0003f44a       ?filePath@QFileInfo@@QBE?AVQString@@XZ 0046244a f   qt-mt323:qt-mt323.dll
 0002:0003f450       ?isFile@QFileInfo@@QBE_NXZ 00462450 f   qt-mt323:qt-mt323.dll
 0002:0003f456       ?isDir@QFileInfo@@QBE_NXZ  00462456 f   qt-mt323:qt-mt323.dll
 0002:0003f45c       ?lastModified@QFileInfo@@QBE?AVQDateTime@@XZ 0046245c f   qt-mt323:qt-mt323.dll
 0002:0003f462       ?entryList@QDir@@UBE?AVQStringList@@HH@Z 00462462 f   qt-mt323:qt-mt323.dll
 0002:0003f468       ?separator@QDir@@SADXZ     00462468 f   qt-mt323:qt-mt323.dll
 0002:0003f46e       ?isRelativePath@QDir@@SA_NABVQString@@@Z 0046246e f   qt-mt323:qt-mt323.dll
 0002:0003f474       ?event@QObject@@UAE_NPAVQEvent@@@Z 00462474 f   qt-mt323:qt-mt323.dll
 0002:0003f47a       ?setName@QObject@@UAEXPBD@Z 0046247a f   qt-mt323:qt-mt323.dll
 0002:0003f480       ??0QTextStream@@QAE@PAVQIODevice@@@Z 00462480 f   qt-mt323:qt-mt323.dll
 0002:0003f486       ??1QTextStream@@UAE@XZ     00462486 f   qt-mt323:qt-mt323.dll
 0002:0003f48c       ?eof@QTextStream@@QBE_NXZ  0046248c f   qt-mt323:qt-mt323.dll
 0002:0003f492       ?readLine@QTextStream@@QAE?AVQString@@XZ 00462492 f   qt-mt323:qt-mt323.dll
 0002:0003f498       ?close@QWidget@@QAE_NXZ    00462498 f   qt-mt323:qt-mt323.dll
 0002:0003f49e       ??0QFile@@QAE@ABVQString@@@Z 0046249e f   qt-mt323:qt-mt323.dll
 0002:0003f4a4       ??1QFile@@UAE@XZ           004624a4 f   qt-mt323:qt-mt323.dll
 0002:0003f4aa       ?open@QFile@@UAE_NH@Z      004624aa f   qt-mt323:qt-mt323.dll
 0002:0003f4b0       ?close@QFile@@UAEXXZ       004624b0 f   qt-mt323:qt-mt323.dll
 0002:0003f4b6       ?value@QScrollBar@@QBEHXZ  004624b6 f   qt-mt323:qt-mt323.dll
 0002:0003f4bc       ?setValue@QScrollBar@@QAEXH@Z 004624bc f   qt-mt323:qt-mt323.dll
 0002:0003f4c2       ?horizontalScrollBar@QScrollView@@QBEPAVQScrollBar@@XZ 004624c2 f   qt-mt323:qt-mt323.dll
 0002:0003f4c8       ?verticalScrollBar@QScrollView@@QBEPAVQScrollBar@@XZ 004624c8 f   qt-mt323:qt-mt323.dll
 0002:0003f4ce       ?insertItem@QListBox@@QAEXABVQString@@H@Z 004624ce f   qt-mt323:qt-mt323.dll
 0002:0003f4d4       ?clear@QListBox@@QAEXXZ    004624d4 f   qt-mt323:qt-mt323.dll
 0002:0003f4da       ?warning@QMessageBox@@SAHPAVQWidget@@ABVQString@@1111HH@Z 004624da f   qt-mt323:qt-mt323.dll
 0002:0003f4e0       ?setMainWidget@QApplication@@UAEXPAVQWidget@@@Z 004624e0 f   qt-mt323:qt-mt323.dll
 0002:0003f4e6       ?exec@QApplication@@QAEHXZ 004624e6 f   qt-mt323:qt-mt323.dll
 0002:0003f4ec       ?qstrcmp@@YAHPBD0@Z        004624ec f   qt-mt323:qt-mt323.dll
 0002:0003f4f2       ?fromLatin1@QString@@SA?AV1@PBDH@Z 004624f2 f   qt-mt323:qt-mt323.dll
 0002:0003f4f8       ?fromUtf8@QString@@SA?AV1@PBDH@Z 004624f8 f   qt-mt323:qt-mt323.dll
 0002:0003f4fe       ?qt_cast@QDialog@@UAEPAXPBD@Z 004624fe f   qt-mt323:qt-mt323.dll
 0002:0003f504       ?qt_invoke@QDialog@@UAE_NHPAUQUObject@@@Z 00462504 f   qt-mt323:qt-mt323.dll
 0002:0003f50a       ?qt_emit@QDialog@@UAE_NHPAUQUObject@@@Z 0046250a f   qt-mt323:qt-mt323.dll
 0002:0003f510       ?qt_property@QDialog@@UAE_NHHPAVQVariant@@@Z 00462510 f   qt-mt323:qt-mt323.dll
 0002:0003f516       ?staticMetaObject@QDialog@@SAPAVQMetaObject@@XZ 00462516 f   qt-mt323:qt-mt323.dll
 0002:0003f51c       ?slotOffset@QMetaObject@@QBEHXZ 0046251c f   qt-mt323:qt-mt323.dll
 0002:0003f522       ?new_metaobject@QMetaObject@@SAPAV1@PBDPAV1@QBUQMetaData@@H2HQBVQMetaProperty@@HQBUQMetaEnum@@HQBUQClassInfo@@H@Z 00462522 f   qt-mt323:qt-mt323.dll
 0002:0003f528       ??0QMetaObjectCleanUp@@QAE@PBDP6APAVQMetaObject@@XZ@Z 00462528 f   qt-mt323:qt-mt323.dll
 0002:0003f52e       ??1QMetaObjectCleanUp@@QAE@XZ 0046252e f   qt-mt323:qt-mt323.dll
 0002:0003f534       ?setMetaObject@QMetaObjectCleanUp@@QAEXAAPAVQMetaObject@@@Z 00462534 f   qt-mt323:qt-mt323.dll
 0002:0003f53a       ?translate@QApplication@@QBE?AVQString@@PBD00W4Encoding@1@@Z 0046253a f   qt-mt323:qt-mt323.dll
 0002:0003f540       ?qt_cast@QObject@@UAEPAXPBD@Z 00462540 f   qt-mt323:qt-mt323.dll
 0002:0003f546       ?qt_invoke@QObject@@UAE_NHPAUQUObject@@@Z 00462546 f   qt-mt323:qt-mt323.dll
 0002:0003f54c       ?qt_emit@QObject@@UAE_NHPAUQUObject@@@Z 0046254c f   qt-mt323:qt-mt323.dll
 0002:0003f552       ?qt_property@QObject@@UAE_NHHPAVQVariant@@@Z 00462552 f   qt-mt323:qt-mt323.dll
 0002:0003f558       ?staticMetaObject@QObject@@SAPAVQMetaObject@@XZ 00462558 f   qt-mt323:qt-mt323.dll
 0002:0003f55e       ?activate_signal@QObject@@IAEXH@Z 0046255e f   qt-mt323:qt-mt323.dll
 0002:0003f564       ?activate_signal@QObject@@IAEXHVQString@@@Z 00462564 f   qt-mt323:qt-mt323.dll
 0002:0003f56a       ?signalOffset@QMetaObject@@QBEHXZ 0046256a f   qt-mt323:qt-mt323.dll
 0002:0003f570       ?get@QUType_QString@@QAEAAVQString@@PAUQUObject@@@Z 00462570 f   qt-mt323:qt-mt323.dll
 0002:0003f576       ?arg@QString@@QBE?AV1@IHH@Z 00462576 f   qt-mt323:qt-mt323.dll
 0002:0003f57c       ?find@QString@@QBEHPBDH@Z  0046257c f   qt-mt323:qt-mt323.dll
 0002:0003f582       ?contains@QString@@QBEHPBD_N@Z 00462582 f   qt-mt323:qt-mt323.dll
 0002:0003f588       ?right@QString@@QBE?AV1@I@Z 00462588 f   qt-mt323:qt-mt323.dll
 0002:0003f58e       ?remove@QString@@QAEAAV1@D@Z 0046258e f   qt-mt323:qt-mt323.dll
 0002:0003f594       ?toInt@QString@@QBEHPA_NH@Z 00462594 f   qt-mt323:qt-mt323.dll
 0002:0003f59a       ??YQString@@QAEAAV0@ABV0@@Z 0046259a f   qt-mt323:qt-mt323.dll
 0002:0003f5a0       ?reset@QIODevice@@QAE_NXZ  004625a0 f   qt-mt323:qt-mt323.dll
 0002:0003f5a6       ??A?$QValueList@VQString@@@@QAEAAVQString@@I@Z 004625a6 f   qt-mt323:qt-mt323.dll
 0002:0003f5ac       ??0QDateTime@@QAE@XZ       004625ac f   qt-mt323:qt-mt323.dll
 0002:0003f5b2       ?toTime_t@QDateTime@@QBEIXZ 004625b2 f   qt-mt323:qt-mt323.dll
 0002:0003f5b8       ??0QHostAddress@@QAE@XZ    004625b8 f   qt-mt323:qt-mt323.dll
 0002:0003f5be       ??0QHostAddress@@QAE@I@Z   004625be f   qt-mt323:qt-mt323.dll
 0002:0003f5c4       ??1QHostAddress@@UAE@XZ    004625c4 f   qt-mt323:qt-mt323.dll
 0002:0003f5ca       ?setAddress@QHostAddress@@QAE_NABVQString@@@Z 004625ca f   qt-mt323:qt-mt323.dll
 0002:0003f5d0       ??0QSocketDevice@@QAE@W4Type@0@@Z 004625d0 f   qt-mt323:qt-mt323.dll
 0002:0003f5d6       ??1QSocketDevice@@UAE@XZ   004625d6 f   qt-mt323:qt-mt323.dll
 0002:0003f5dc       ?isValid@QSocketDevice@@QBE_NXZ 004625dc f   qt-mt323:qt-mt323.dll
 0002:0003f5e2       ?socket@QSocketDevice@@QBEHXZ 004625e2 f   qt-mt323:qt-mt323.dll
 0002:0003f5e8       ??0QSocketNotifier@@QAE@HW4Type@0@PAVQObject@@PBD@Z 004625e8 f   qt-mt323:qt-mt323.dll
 0002:0003f5ee       ??1QSocketNotifier@@UAE@XZ 004625ee f   qt-mt323:qt-mt323.dll
 0002:0003f5f4       ?split@QStringList@@SA?AV1@ABVQString@@0_N@Z 004625f4 f   qt-mt323:qt-mt323.dll
 0002:0003f5fa       ??4QDomNode@@QAEAAV0@ABV0@@Z 004625fa f   qt-mt323:qt-mt323.dll
 0002:0003f600       ??1QDomNode@@UAE@XZ        00462600 f   qt-mt323:qt-mt323.dll
 0002:0003f606       ?nextSibling@QDomNode@@UBE?AV1@XZ 00462606 f   qt-mt323:qt-mt323.dll
 0002:0003f60c       ?isNull@QDomNode@@QBE_NXZ  0046260c f   qt-mt323:qt-mt323.dll
 0002:0003f612       ?toElement@QDomNode@@QAE?AVQDomElement@@XZ 00462612 f   qt-mt323:qt-mt323.dll
 0002:0003f618       ??0QDomDocument@@QAE@XZ    00462618 f   qt-mt323:qt-mt323.dll
 0002:0003f61e       ??1QDomDocument@@UAE@XZ    0046261e f   qt-mt323:qt-mt323.dll
 0002:0003f624       ?documentElement@QDomDocument@@QBE?AVQDomElement@@XZ 00462624 f   qt-mt323:qt-mt323.dll
 0002:0003f62a       ?setContent@QDomDocument@@QAE_NPAVQIODevice@@PAVQString@@PAH2@Z 0046262a f   qt-mt323:qt-mt323.dll
 0002:0003f630       ??1QDomElement@@UAE@XZ     00462630 f   qt-mt323:qt-mt323.dll
 0002:0003f636       ?attribute@QDomElement@@QBE?AVQString@@ABV2@0@Z 00462636 f   qt-mt323:qt-mt323.dll
 0002:0003f63c       ?tagName@QDomElement@@QBE?AVQString@@XZ 0046263c f   qt-mt323:qt-mt323.dll
 0002:0003f642       ?accept@QSocketDevice@@UAEHXZ 00462642 f   qt-mt323:qt-mt323.dll
 0002:0003f648       ?at@QSocketDevice@@UAE_NK@Z 00462648 f   qt-mt323:qt-mt323.dll
 0002:0003f64e       ?at@QSocketDevice@@UBEKXZ  0046264e f   qt-mt323:qt-mt323.dll
 0002:0003f654       ?atEnd@QSocketDevice@@UBE_NXZ 00462654 f   qt-mt323:qt-mt323.dll
 0002:0003f65a       ?bind@QSocketDevice@@UAE_NABVQHostAddress@@G@Z 0046265a f   qt-mt323:qt-mt323.dll
 0002:0003f660       ?className@QSocketNotifier@@UBEPBDXZ 00462660 f   qt-mt323:qt-mt323.dll
 0002:0003f666       ?close@QSocketDevice@@UAEXXZ 00462666 f   qt-mt323:qt-mt323.dll
 0002:0003f66c       ?connect@QSocketDevice@@UAE_NABVQHostAddress@@G@Z 0046266c f   qt-mt323:qt-mt323.dll
 0002:0003f672       ?event@QSocketNotifier@@MAE_NPAVQEvent@@@Z 00462672 f   qt-mt323:qt-mt323.dll
 0002:0003f678       ?flush@QSocketDevice@@UAEXXZ 00462678 f   qt-mt323:qt-mt323.dll
 0002:0003f67e       ?getch@QSocketDevice@@UAEHXZ 0046267e f   qt-mt323:qt-mt323.dll
 0002:0003f684       ?listen@QSocketDevice@@UAE_NH@Z 00462684 f   qt-mt323:qt-mt323.dll
 0002:0003f68a       ?metaObject@QSocketNotifier@@UBEPAVQMetaObject@@XZ 0046268a f   qt-mt323:qt-mt323.dll
 0002:0003f690       ?open@QSocketDevice@@UAE_NH@Z 00462690 f   qt-mt323:qt-mt323.dll
 0002:0003f696       ?putch@QSocketDevice@@UAEHH@Z 00462696 f   qt-mt323:qt-mt323.dll
 0002:0003f69c       ?qt_cast@QSocketNotifier@@UAEPAXPBD@Z 0046269c f   qt-mt323:qt-mt323.dll
 0002:0003f6a2       ?qt_emit@QSocketNotifier@@UAE_NHPAUQUObject@@@Z 004626a2 f   qt-mt323:qt-mt323.dll
 0002:0003f6a8       ?qt_invoke@QSocketNotifier@@UAE_NHPAUQUObject@@@Z 004626a8 f   qt-mt323:qt-mt323.dll
 0002:0003f6ae       ?qt_property@QSocketNotifier@@UAE_NHHPAVQVariant@@@Z 004626ae f   qt-mt323:qt-mt323.dll
 0002:0003f6b4       ?readAll@QIODevice@@UAE?AV?$QMemArray@D@@XZ 004626b4 f   qt-mt323:qt-mt323.dll
 0002:0003f6ba       ?readBlock@QSocketDevice@@UAEJPADK@Z 004626ba f   qt-mt323:qt-mt323.dll
 0002:0003f6c0       ?readLine@QIODevice@@UAEJPADK@Z 004626c0 f   qt-mt323:qt-mt323.dll
 0002:0003f6c6       ?setAddressReusable@QSocketDevice@@UAEX_N@Z 004626c6 f   qt-mt323:qt-mt323.dll
 0002:0003f6cc       ?setBlocking@QSocketDevice@@UAEX_N@Z 004626cc f   qt-mt323:qt-mt323.dll
 0002:0003f6d2       ?setEnabled@QSocketNotifier@@UAEX_N@Z 004626d2 f   qt-mt323:qt-mt323.dll
 0002:0003f6d8       ?setOption@QSocketDevice@@EAEXW4Option@1@H@Z 004626d8 f   qt-mt323:qt-mt323.dll
 0002:0003f6de       ?setReceiveBufferSize@QSocketDevice@@UAEXI@Z 004626de f   qt-mt323:qt-mt323.dll
 0002:0003f6e4       ?setSendBufferSize@QSocketDevice@@UAEXI@Z 004626e4 f   qt-mt323:qt-mt323.dll
 0002:0003f6ea       ?setSocket@QSocketDevice@@UAEXHW4Type@1@@Z 004626ea f   qt-mt323:qt-mt323.dll
 0002:0003f6f0       ?size@QSocketDevice@@UBEKXZ 004626f0 f   qt-mt323:qt-mt323.dll
 0002:0003f6f6       ?ungetch@QSocketDevice@@UAEHH@Z 004626f6 f   qt-mt323:qt-mt323.dll
 0002:0003f6fc       ?writeBlock@QSocketDevice@@UAEJPBDK@Z 004626fc f   qt-mt323:qt-mt323.dll
 0002:0003f702       ?writeBlock@QSocketDevice@@UAEJPBDKABVQHostAddress@@G@Z 00462702 f   qt-mt323:qt-mt323.dll
 0002:0003f708       ?setCommunication@QProcess@@QAEXH@Z 00462708 f   qt-mt323:qt-mt323.dll
 0002:0003f70e       ?processIdentifier@QProcess@@QAEPAXXZ 0046270e f   qt-mt323:qt-mt323.dll
 0002:0003f714       ?kill@QProcess@@QBEXXZ     00462714 f   qt-mt323:qt-mt323.dll
 0002:0003f71a       ?closeStdin@QProcess@@UAEXXZ 0046271a f   qt-mt323:qt-mt323.dll
 0002:0003f720       ?connectNotify@QProcess@@MAEXPBD@Z 00462720 f   qt-mt323:qt-mt323.dll
 0002:0003f726       ?disconnectNotify@QProcess@@MAEXPBD@Z 00462726 f   qt-mt323:qt-mt323.dll
 0002:0003f72c       ?launch@QProcess@@UAE_NABV?$QMemArray@D@@PAVQStringList@@@Z 0046272c f   qt-mt323:qt-mt323.dll
 0002:0003f732       ?launch@QProcess@@UAE_NABVQString@@PAVQStringList@@@Z 00462732 f   qt-mt323:qt-mt323.dll
 0002:0003f738       ?readLineStderr@QProcess@@UAE?AVQString@@XZ 00462738 f   qt-mt323:qt-mt323.dll
 0002:0003f73e       ?readLineStdout@QProcess@@UAE?AVQString@@XZ 0046273e f   qt-mt323:qt-mt323.dll
 0002:0003f744       ?readStderr@QProcess@@UAE?AV?$QMemArray@D@@XZ 00462744 f   qt-mt323:qt-mt323.dll
 0002:0003f74a       ?readStdout@QProcess@@UAE?AV?$QMemArray@D@@XZ 0046274a f   qt-mt323:qt-mt323.dll
 0002:0003f750       ?setArguments@QProcess@@UAEXABVQStringList@@@Z 00462750 f   qt-mt323:qt-mt323.dll
 0002:0003f756       ?setWorkingDirectory@QProcess@@UAEXABVQDir@@@Z 00462756 f   qt-mt323:qt-mt323.dll
 0002:0003f75c       ?writeToStdin@QProcess@@UAEXABV?$QMemArray@D@@@Z 0046275c f   qt-mt323:qt-mt323.dll
 0002:0003f762       ?writeToStdin@QProcess@@UAEXABVQString@@@Z 00462762 f   qt-mt323:qt-mt323.dll
 0002:0003f768       ??0QThread@@QAE@XZ         00462768 f   qt-mt323:qt-mt323.dll
 0002:0003f76e       ??1QThread@@UAE@XZ         0046276e f   qt-mt323:qt-mt323.dll
 0002:0003f774       ?exists@QFile@@SA_NABVQString@@@Z 00462774 f   qt-mt323:qt-mt323.dll
 0002:0003f77a       ?workingDirectory@QProcess@@QBE?AVQDir@@XZ 0046277a f   qt-mt323:qt-mt323.dll
 0002:0003f780       ?start@QThread@@QAEXXZ     00462780 f   qt-mt323:qt-mt323.dll
 0002:0003f786       ??0QWidget@@QAE@PAV0@PBDI@Z 00462786 f   qt-mt323:qt-mt323.dll
 0002:0003f78c       ??1QWidget@@UAE@XZ         0046278c f   qt-mt323:qt-mt323.dll
 0002:0003f792       ?winId@QWidget@@QBEPAUHWND__@@XZ 00462792 f   qt-mt323:qt-mt323.dll
 0002:0003f798       ??1?$QMemArray@D@@UAE@XZ   00462798 f   qt-mt323:qt-mt323.dll
 0002:0003f79e       ??0QString@@QAE@ABV?$QMemArray@D@@@Z 0046279e f   qt-mt323:qt-mt323.dll
 0002:0003f7a4       ?isValid@QDateTime@@QBE_NXZ 004627a4 f   qt-mt323:qt-mt323.dll
 0002:0003f7aa       ?toString@QDateTime@@QBE?AVQString@@W4DateFormat@Qt@@@Z 004627aa f   qt-mt323:qt-mt323.dll
 0002:0003f7b0       ??9QDateTime@@QBE_NABV0@@Z 004627b0 f   qt-mt323:qt-mt323.dll
 0002:0003f7b6       ?fromString@QDateTime@@SA?AV1@ABVQString@@W4DateFormat@Qt@@@Z 004627b6 f   qt-mt323:qt-mt323.dll
 0002:0003f7bc       ??0QSettings@@QAE@XZ       004627bc f   qt-mt323:qt-mt323.dll
 0002:0003f7c2       ??1QSettings@@QAE@XZ       004627c2 f   qt-mt323:qt-mt323.dll
 0002:0003f7c8       ?writeEntry@QSettings@@QAE_NABVQString@@0@Z 004627c8 f   qt-mt323:qt-mt323.dll
 0002:0003f7ce       ?readEntry@QSettings@@QAE?AVQString@@ABV2@0PA_N@Z 004627ce f   qt-mt323:qt-mt323.dll
 0002:0003f7d4       ?setPath@QSettings@@QAEXABVQString@@0W4Scope@1@@Z 004627d4 f   qt-mt323:qt-mt323.dll
 0002:0003f7da       ?mainWidget@QApplication@@QBEPAVQWidget@@XZ 004627da f   qt-mt323:qt-mt323.dll
 0002:0003f7e0       ?className@QProcess@@UBEPBDXZ 004627e0 f   qt-mt323:qt-mt323.dll
 0002:0003f7e6       ?metaObject@QProcess@@UBEPAVQMetaObject@@XZ 004627e6 f   qt-mt323:qt-mt323.dll
 0002:0003f7ec       ?qt_cast@QProcess@@UAEPAXPBD@Z 004627ec f   qt-mt323:qt-mt323.dll
 0002:0003f7f2       ?qt_emit@QProcess@@UAE_NHPAUQUObject@@@Z 004627f2 f   qt-mt323:qt-mt323.dll
 0002:0003f7f8       ?qt_invoke@QProcess@@UAE_NHPAUQUObject@@@Z 004627f8 f   qt-mt323:qt-mt323.dll
 0002:0003f7fe       ?qt_property@QProcess@@UAE_NHHPAVQVariant@@@Z 004627fe f   qt-mt323:qt-mt323.dll
 0002:0003f804       ??0QSize@@QAE@HH@Z         00462804 f   qt-mt323:qt-mt323.dll
 0002:0003f80a       ?expandedTo@QSize@@QBE?AV1@ABV1@@Z 0046280a f   qt-mt323:qt-mt323.dll
 0002:0003f810       ??0QSizePolicy@@QAE@W4SizeType@0@0EE_N@Z 00462810 f   qt-mt323:qt-mt323.dll
 0002:0003f816       ?hasHeightForWidth@QSizePolicy@@QBE_NXZ 00462816 f   qt-mt323:qt-mt323.dll
 0002:0003f81c       ?clearWState@QWidget@@IAEXI@Z 0046281c f   qt-mt323:qt-mt323.dll
 0002:0003f822       ??0QDialog@@QAE@PAVQWidget@@PBD_NI@Z 00462822 f   qt-mt323:qt-mt323.dll
 0002:0003f828       ??1QDialog@@UAE@XZ         00462828 f   qt-mt323:qt-mt323.dll
 0002:0003f82e       ?resize@QDialog@@QAEXABVQSize@@@Z 0046282e f   qt-mt323:qt-mt323.dll
 0002:0003f834       ?setSizeGripEnabled@QDialog@@QAEX_N@Z 00462834 f   qt-mt323:qt-mt323.dll
 0002:0003f83a       ??0QKeySequence@@QAE@ABVQString@@@Z 0046283a f   qt-mt323:qt-mt323.dll
 0002:0003f840       ??0QPushButton@@QAE@PAVQWidget@@PBD@Z 00462840 f   qt-mt323:qt-mt323.dll
 0002:0003f846       ??1QPushButton@@UAE@XZ     00462846 f   qt-mt323:qt-mt323.dll
 0002:0003f84c       ??0QLabel@@QAE@PAVQWidget@@PBDI@Z 0046284c f   qt-mt323:qt-mt323.dll
 0002:0003f852       ??1QLabel@@UAE@XZ          00462852 f   qt-mt323:qt-mt323.dll
 0002:0003f858       ??0QSpacerItem@@QAE@HHW4SizeType@QSizePolicy@@0@Z 00462858 f   qt-mt323:qt-mt323.dll
 0002:0003f85e       ??1QSpacerItem@@UAE@XZ     0046285e f   qt-mt323:qt-mt323.dll
 0002:0003f864       ?addLayout@QBoxLayout@@QAEXPAVQLayout@@H@Z 00462864 f   qt-mt323:qt-mt323.dll
 0002:0003f86a       ??0QHBoxLayout@@QAE@PAVQWidget@@HHPBD@Z 0046286a f   qt-mt323:qt-mt323.dll
 0002:0003f870       ??1QHBoxLayout@@UAE@XZ     00462870 f   qt-mt323:qt-mt323.dll
 0002:0003f876       ??0QVBoxLayout@@QAE@PAVQWidget@@HHPBD@Z 00462876 f   qt-mt323:qt-mt323.dll
 0002:0003f87c       ??1QVBoxLayout@@UAE@XZ     0046287c f   qt-mt323:qt-mt323.dll
 0002:0003f882       ??0QCursor@@QAE@H@Z        00462882 f   qt-mt323:qt-mt323.dll
 0002:0003f888       ??1QCursor@@QAE@XZ         00462888 f   qt-mt323:qt-mt323.dll
 0002:0003f88e       ?addItem@QBoxLayout@@UAEXPAVQLayoutItem@@@Z 0046288e f   qt-mt323:qt-mt323.dll
 0002:0003f894       ?childEvent@QLayout@@MAEXPAVQChildEvent@@@Z 00462894 f   qt-mt323:qt-mt323.dll
 0002:0003f89a       ?className@QHBoxLayout@@UBEPBDXZ 0046289a f   qt-mt323:qt-mt323.dll
 0002:0003f8a0       ?className@QLabel@@UBEPBDXZ 004628a0 f   qt-mt323:qt-mt323.dll
 0002:0003f8a6       ?className@QPushButton@@UBEPBDXZ 004628a6 f   qt-mt323:qt-mt323.dll
 0002:0003f8ac       ?className@QVBoxLayout@@UBEPBDXZ 004628ac f   qt-mt323:qt-mt323.dll
 0002:0003f8b2       ?drawButton@QPushButton@@MAEXPAVQPainter@@@Z 004628b2 f   qt-mt323:qt-mt323.dll
 0002:0003f8b8       ?drawButtonLabel@QPushButton@@MAEXPAVQPainter@@@Z 004628b8 f   qt-mt323:qt-mt323.dll
 0002:0003f8be       ?drawContents@QLabel@@MAEXPAVQPainter@@@Z 004628be f   qt-mt323:qt-mt323.dll
 0002:0003f8c4       ?drawFrame@QFrame@@MAEXPAVQPainter@@@Z 004628c4 f   qt-mt323:qt-mt323.dll
 0002:0003f8ca       ?enabledChange@QButton@@MAEX_N@Z 004628ca f   qt-mt323:qt-mt323.dll
 0002:0003f8d0       ?eventFilter@QLayout@@MAE_NPAVQObject@@PAVQEvent@@@Z 004628d0 f   qt-mt323:qt-mt323.dll
 0002:0003f8d6       ?expanding@QBoxLayout@@UBE?AW4ExpandData@QSizePolicy@@XZ 004628d6 f   qt-mt323:qt-mt323.dll
 0002:0003f8dc       ?expanding@QSpacerItem@@UBE?AW4ExpandData@QSizePolicy@@XZ 004628dc f   qt-mt323:qt-mt323.dll
 0002:0003f8e2       ?focusInEvent@QPushButton@@MAEXPAVQFocusEvent@@@Z 004628e2 f   qt-mt323:qt-mt323.dll
 0002:0003f8e8       ?focusOutEvent@QPushButton@@MAEXPAVQFocusEvent@@@Z 004628e8 f   qt-mt323:qt-mt323.dll
 0002:0003f8ee       ?fontChange@QLabel@@MAEXABVQFont@@@Z 004628ee f   qt-mt323:qt-mt323.dll
 0002:0003f8f4       ?frameChanged@QFrame@@MAEXXZ 004628f4 f   qt-mt323:qt-mt323.dll
 0002:0003f8fa       ?geometry@QLayout@@UBE?AVQRect@@XZ 004628fa f   qt-mt323:qt-mt323.dll
 0002:0003f900       ?geometry@QSpacerItem@@UBE?AVQRect@@XZ 00462900 f   qt-mt323:qt-mt323.dll
 0002:0003f906       ?hasHeightForWidth@QBoxLayout@@UBE_NXZ 00462906 f   qt-mt323:qt-mt323.dll
 0002:0003f90c       ?hasHeightForWidth@QLayoutItem@@UBE_NXZ 0046290c f   qt-mt323:qt-mt323.dll
 0002:0003f912       ?heightForWidth@QBoxLayout@@UBEHH@Z 00462912 f   qt-mt323:qt-mt323.dll
 0002:0003f918       ?heightForWidth@QLabel@@UBEHH@Z 00462918 f   qt-mt323:qt-mt323.dll
 0002:0003f91e       ?heightForWidth@QLayoutItem@@UBEHH@Z 0046291e f   qt-mt323:qt-mt323.dll
 0002:0003f924       ?hitButton@QButton@@MBE_NABVQPoint@@@Z 00462924 f   qt-mt323:qt-mt323.dll
 0002:0003f92a       ?invalidate@QBoxLayout@@UAEXXZ 0046292a f   qt-mt323:qt-mt323.dll
 0002:0003f930       ?invalidate@QLayoutItem@@UAEXXZ 00462930 f   qt-mt323:qt-mt323.dll
 0002:0003f936       ?isEmpty@QLayout@@UBE_NXZ  00462936 f   qt-mt323:qt-mt323.dll
 0002:0003f93c       ?isEmpty@QSpacerItem@@UBE_NXZ 0046293c f   qt-mt323:qt-mt323.dll
 0002:0003f942       ?iterator@QBoxLayout@@UAE?AVQLayoutIterator@@XZ 00462942 f   qt-mt323:qt-mt323.dll
 0002:0003f948       ?iterator@QLayoutItem@@UAE?AVQLayoutIterator@@XZ 00462948 f   qt-mt323:qt-mt323.dll
 0002:0003f94e       ?keyPressEvent@QButton@@MAEXPAVQKeyEvent@@@Z 0046294e f   qt-mt323:qt-mt323.dll
 0002:0003f954       ?keyReleaseEvent@QButton@@MAEXPAVQKeyEvent@@@Z 00462954 f   qt-mt323:qt-mt323.dll
 0002:0003f95a       ?layout@QLayout@@UAEPAV1@XZ 0046295a f   qt-mt323:qt-mt323.dll
 0002:0003f960       ?layout@QLayoutItem@@UAEPAVQLayout@@XZ 00462960 f   qt-mt323:qt-mt323.dll
 0002:0003f966       ?maximumSize@QBoxLayout@@UBE?AVQSize@@XZ 00462966 f   qt-mt323:qt-mt323.dll
 0002:0003f96c       ?maximumSize@QSpacerItem@@UBE?AVQSize@@XZ 0046296c f   qt-mt323:qt-mt323.dll
 0002:0003f972       ?metaObject@QHBoxLayout@@UBEPAVQMetaObject@@XZ 00462972 f   qt-mt323:qt-mt323.dll
 0002:0003f978       ?metaObject@QLabel@@UBEPAVQMetaObject@@XZ 00462978 f   qt-mt323:qt-mt323.dll
 0002:0003f97e       ?metaObject@QPushButton@@UBEPAVQMetaObject@@XZ 0046297e f   qt-mt323:qt-mt323.dll
 0002:0003f984       ?metaObject@QVBoxLayout@@UBEPAVQMetaObject@@XZ 00462984 f   qt-mt323:qt-mt323.dll
 0002:0003f98a       ?minimumSize@QBoxLayout@@UBE?AVQSize@@XZ 0046298a f   qt-mt323:qt-mt323.dll
 0002:0003f990       ?minimumSize@QSpacerItem@@UBE?AVQSize@@XZ 00462990 f   qt-mt323:qt-mt323.dll
 0002:0003f996       ?minimumSizeHint@QLabel@@UBE?AVQSize@@XZ 00462996 f   qt-mt323:qt-mt323.dll
 0002:0003f99c       ?mouseMoveEvent@QButton@@MAEXPAVQMouseEvent@@@Z 0046299c f   qt-mt323:qt-mt323.dll
 0002:0003f9a2       ?mousePressEvent@QButton@@MAEXPAVQMouseEvent@@@Z 004629a2 f   qt-mt323:qt-mt323.dll
 0002:0003f9a8       ?mouseReleaseEvent@QButton@@MAEXPAVQMouseEvent@@@Z 004629a8 f   qt-mt323:qt-mt323.dll
 0002:0003f9ae       ?move@QPushButton@@UAEXHH@Z 004629ae f   qt-mt323:qt-mt323.dll
 0002:0003f9b4       ?paintEvent@QButton@@MAEXPAVQPaintEvent@@@Z 004629b4 f   qt-mt323:qt-mt323.dll
 0002:0003f9ba       ?paintEvent@QFrame@@MAEXPAVQPaintEvent@@@Z 004629ba f   qt-mt323:qt-mt323.dll
 0002:0003f9c0       ?qt_cast@QHBoxLayout@@UAEPAXPBD@Z 004629c0 f   qt-mt323:qt-mt323.dll
 0002:0003f9c6       ?qt_cast@QLabel@@UAEPAXPBD@Z 004629c6 f   qt-mt323:qt-mt323.dll
 0002:0003f9cc       ?qt_cast@QPushButton@@UAEPAXPBD@Z 004629cc f   qt-mt323:qt-mt323.dll
 0002:0003f9d2       ?qt_cast@QVBoxLayout@@UAEPAXPBD@Z 004629d2 f   qt-mt323:qt-mt323.dll
 0002:0003f9d8       ?qt_emit@QHBoxLayout@@UAE_NHPAUQUObject@@@Z 004629d8 f   qt-mt323:qt-mt323.dll
 0002:0003f9de       ?qt_emit@QLabel@@UAE_NHPAUQUObject@@@Z 004629de f   qt-mt323:qt-mt323.dll
 0002:0003f9e4       ?qt_emit@QPushButton@@UAE_NHPAUQUObject@@@Z 004629e4 f   qt-mt323:qt-mt323.dll
 0002:0003f9ea       ?qt_emit@QVBoxLayout@@UAE_NHPAUQUObject@@@Z 004629ea f   qt-mt323:qt-mt323.dll
 0002:0003f9f0       ?qt_invoke@QHBoxLayout@@UAE_NHPAUQUObject@@@Z 004629f0 f   qt-mt323:qt-mt323.dll
 0002:0003f9f6       ?qt_invoke@QLabel@@UAE_NHPAUQUObject@@@Z 004629f6 f   qt-mt323:qt-mt323.dll
 0002:0003f9fc       ?qt_invoke@QPushButton@@UAE_NHPAUQUObject@@@Z 004629fc f   qt-mt323:qt-mt323.dll
 0002:0003fa02       ?qt_invoke@QVBoxLayout@@UAE_NHPAUQUObject@@@Z 00462a02 f   qt-mt323:qt-mt323.dll
 0002:0003fa08       ?qt_property@QHBoxLayout@@UAE_NHHPAVQVariant@@@Z 00462a08 f   qt-mt323:qt-mt323.dll
 0002:0003fa0e       ?qt_property@QLabel@@UAE_NHHPAVQVariant@@@Z 00462a0e f   qt-mt323:qt-mt323.dll
 0002:0003fa14       ?qt_property@QPushButton@@UAE_NHHPAVQVariant@@@Z 00462a14 f   qt-mt323:qt-mt323.dll
 0002:0003fa1a       ?qt_property@QVBoxLayout@@UAE_NHHPAVQVariant@@@Z 00462a1a f   qt-mt323:qt-mt323.dll
 0002:0003fa20       ?resize@QPushButton@@UAEXHH@Z 00462a20 f   qt-mt323:qt-mt323.dll
 0002:0003fa26       ?resizeEvent@QLabel@@MAEXPAVQResizeEvent@@@Z 00462a26 f   qt-mt323:qt-mt323.dll
 0002:0003fa2c       ?resizeEvent@QPushButton@@MAEXPAVQResizeEvent@@@Z 00462a2c f   qt-mt323:qt-mt323.dll
 0002:0003fa32       ?setAccel@QButton@@UAEXABVQKeySequence@@@Z 00462a32 f   qt-mt323:qt-mt323.dll
 0002:0003fa38       ?setAlignment@QLabel@@UAEXH@Z 00462a38 f   qt-mt323:qt-mt323.dll
 0002:0003fa3e       ?setAlignment@QLayoutItem@@UAEXH@Z 00462a3e f   qt-mt323:qt-mt323.dll
 0002:0003fa44       ?setAutoAdd@QLayout@@UAEX_N@Z 00462a44 f   qt-mt323:qt-mt323.dll
 0002:0003fa4a       ?setAutoDefault@QPushButton@@UAEX_N@Z 00462a4a f   qt-mt323:qt-mt323.dll
 0002:0003fa50       ?setAutoRepeat@QButton@@UAEX_N@Z 00462a50 f   qt-mt323:qt-mt323.dll
 0002:0003fa56       ?setAutoResize@QLabel@@UAEX_N@Z 00462a56 f   qt-mt323:qt-mt323.dll
 0002:0003fa5c       ?setBuddy@QLabel@@UAEXPAVQWidget@@@Z 00462a5c f   qt-mt323:qt-mt323.dll
 0002:0003fa62       ?setDefault@QPushButton@@UAEX_N@Z 00462a62 f   qt-mt323:qt-mt323.dll
 0002:0003fa68       ?setDown@QButton@@UAEX_N@Z 00462a68 f   qt-mt323:qt-mt323.dll
 0002:0003fa6e       ?setFont@QLabel@@UAEXABVQFont@@@Z 00462a6e f   qt-mt323:qt-mt323.dll
 0002:0003fa74       ?setFrameRect@QFrame@@UAEXABVQRect@@@Z 00462a74 f   qt-mt323:qt-mt323.dll
 0002:0003fa7a       ?setFrameStyle@QFrame@@UAEXH@Z 00462a7a f   qt-mt323:qt-mt323.dll
 0002:0003fa80       ?setGeometry@QBoxLayout@@UAEXABVQRect@@@Z 00462a80 f   qt-mt323:qt-mt323.dll
 0002:0003fa86       ?setGeometry@QPushButton@@UAEXABVQRect@@@Z 00462a86 f   qt-mt323:qt-mt323.dll
 0002:0003fa8c       ?setGeometry@QPushButton@@UAEXHHHH@Z 00462a8c f   qt-mt323:qt-mt323.dll
 0002:0003fa92       ?setGeometry@QSpacerItem@@UAEXABVQRect@@@Z 00462a92 f   qt-mt323:qt-mt323.dll
 0002:0003fa98       ?setGroup@QButton@@EAEXPAVQButtonGroup@@@Z 00462a98 f   qt-mt323:qt-mt323.dll
 0002:0003fa9e       ?setIsMenuButton@QPushButton@@UAEX_N@Z 00462a9e f   qt-mt323:qt-mt323.dll
 0002:0003faa4       ?setLineWidth@QFrame@@UAEXH@Z 00462aa4 f   qt-mt323:qt-mt323.dll
 0002:0003faaa       ?setMargin@QFrame@@UAEXH@Z 00462aaa f   qt-mt323:qt-mt323.dll
 0002:0003fab0       ?setMargin@QLayout@@UAEXH@Z 00462ab0 f   qt-mt323:qt-mt323.dll
 0002:0003fab6       ?setMenuBar@QLayout@@UAEXPAVQMenuBar@@@Z 00462ab6 f   qt-mt323:qt-mt323.dll
 0002:0003fabc       ?setMidLineWidth@QFrame@@UAEXH@Z 00462abc f   qt-mt323:qt-mt323.dll
 0002:0003fac2       ?setMovie@QLabel@@UAEXABVQMovie@@@Z 00462ac2 f   qt-mt323:qt-mt323.dll
 0002:0003fac8       ?setNum@QLabel@@UAEXH@Z    00462ac8 f   qt-mt323:qt-mt323.dll
 0002:0003face       ?setNum@QLabel@@UAEXN@Z    00462ace f   qt-mt323:qt-mt323.dll
 0002:0003fad4       ?setOn@QPushButton@@UAEX_N@Z 00462ad4 f   qt-mt323:qt-mt323.dll
 0002:0003fada       ?setPicture@QLabel@@UAEXABVQPicture@@@Z 00462ada f   qt-mt323:qt-mt323.dll
 0002:0003fae0       ?setPixmap@QButton@@UAEXABVQPixmap@@@Z 00462ae0 f   qt-mt323:qt-mt323.dll
 0002:0003fae6       ?setPixmap@QLabel@@UAEXABVQPixmap@@@Z 00462ae6 f   qt-mt323:qt-mt323.dll
 0002:0003faec       ?setSpacing@QLayout@@UAEXH@Z 00462aec f   qt-mt323:qt-mt323.dll
 0002:0003faf2       ?setState@QButton@@MAEXW4ToggleState@1@@Z 00462af2 f   qt-mt323:qt-mt323.dll
 0002:0003faf8       ?setText@QButton@@UAEXABVQString@@@Z 00462af8 f   qt-mt323:qt-mt323.dll
 0002:0003fafe       ?setText@QLabel@@UAEXABVQString@@@Z 00462afe f   qt-mt323:qt-mt323.dll
 0002:0003fb04       ?setToggleType@QButton@@MAEXW4ToggleType@1@@Z 00462b04 f   qt-mt323:qt-mt323.dll
 0002:0003fb0a       ?sizeHint@QBoxLayout@@UBE?AVQSize@@XZ 00462b0a f   qt-mt323:qt-mt323.dll
 0002:0003fb10       ?sizeHint@QLabel@@UBE?AVQSize@@XZ 00462b10 f   qt-mt323:qt-mt323.dll
 0002:0003fb16       ?sizeHint@QPushButton@@UBE?AVQSize@@XZ 00462b16 f   qt-mt323:qt-mt323.dll
 0002:0003fb1c       ?sizeHint@QSpacerItem@@UBE?AVQSize@@XZ 00462b1c f   qt-mt323:qt-mt323.dll
 0002:0003fb22       ?spacerItem@QLayoutItem@@UAEPAVQSpacerItem@@XZ 00462b22 f   qt-mt323:qt-mt323.dll
 0002:0003fb28       ?spacerItem@QSpacerItem@@UAEPAV1@XZ 00462b28 f   qt-mt323:qt-mt323.dll
 0002:0003fb2e       ?styleChange@QFrame@@MAEXAAVQStyle@@@Z 00462b2e f   qt-mt323:qt-mt323.dll
 0002:0003fb34       ?updateMask@QPushButton@@MAEXXZ 00462b34 f   qt-mt323:qt-mt323.dll
 0002:0003fb3a       ?widget@QLayoutItem@@UAEPAVQWidget@@XZ 00462b3a f   qt-mt323:qt-mt323.dll
 0002:0003fb40       ?setMinimumSize@QWidget@@QAEXABVQSize@@@Z 00462b40 f   qt-mt323:qt-mt323.dll
 0002:0003fb46       ?resize@QWidget@@QAEXABVQSize@@@Z 00462b46 f   qt-mt323:qt-mt323.dll
 0002:0003fb4c       ?layout@QWidget@@QBEPAVQLayout@@XZ 00462b4c f   qt-mt323:qt-mt323.dll
 0002:0003fb52       ??0QToolBar@@QAE@ABVQString@@PAVQMainWindow@@W4Dock@Qt@@_NPBD@Z 00462b52 f   qt-mt323:qt-mt323.dll
 0002:0003fb58       ??1QToolBar@@UAE@XZ        00462b58 f   qt-mt323:qt-mt323.dll
 0002:0003fb5e       ??0QMainWindow@@QAE@PAVQWidget@@PBDI@Z 00462b5e f   qt-mt323:qt-mt323.dll
 0002:0003fb64       ??1QMainWindow@@UAE@XZ     00462b64 f   qt-mt323:qt-mt323.dll
 0002:0003fb6a       ?statusBar@QMainWindow@@QBEPAVQStatusBar@@XZ 00462b6a f   qt-mt323:qt-mt323.dll
 0002:0003fb70       ?centralWidget@QMainWindow@@QBEPAVQWidget@@XZ 00462b70 f   qt-mt323:qt-mt323.dll
 0002:0003fb76       ??0QIconSet@@QAE@ABVQPixmap@@W4Size@0@@Z 00462b76 f   qt-mt323:qt-mt323.dll
 0002:0003fb7c       ??1QIconSet@@UAE@XZ        00462b7c f   qt-mt323:qt-mt323.dll
 0002:0003fb82       ??0QGroupBox@@QAE@PAVQWidget@@PBD@Z 00462b82 f   qt-mt323:qt-mt323.dll
 0002:0003fb88       ??1QGroupBox@@UAE@XZ       00462b88 f   qt-mt323:qt-mt323.dll
 0002:0003fb8e       ??0QHBoxLayout@@QAE@PAVQLayout@@HPBD@Z 00462b8e f   qt-mt323:qt-mt323.dll
 0002:0003fb94       ??0QVBoxLayout@@QAE@PAVQLayout@@HPBD@Z 00462b94 f   qt-mt323:qt-mt323.dll
 0002:0003fb9a       ??0QAction@@QAE@PAVQObject@@PBD@Z 00462b9a f   qt-mt323:qt-mt323.dll
 0002:0003fba0       ??1QAction@@UAE@XZ         00462ba0 f   qt-mt323:qt-mt323.dll
 0002:0003fba6       ?setText@QMenuItem@@QAEXABVQString@@@Z 00462ba6 f   qt-mt323:qt-mt323.dll
 0002:0003fbac       ?insertItem@QMenuData@@QAEHABVQString@@PAVQPopupMenu@@HH@Z 00462bac f   qt-mt323:qt-mt323.dll
 0002:0003fbb2       ?findItem@QMenuData@@QBEPAVQMenuItem@@H@Z 00462bb2 f   qt-mt323:qt-mt323.dll
 0002:0003fbb8       ??0QMenuBar@@QAE@PAVQWidget@@PBD@Z 00462bb8 f   qt-mt323:qt-mt323.dll
 0002:0003fbbe       ??1QMenuBar@@UAE@XZ        00462bbe f   qt-mt323:qt-mt323.dll
 0002:0003fbc4       ?activateItemAt@QMenuBar@@UAEXH@Z 00462bc4 f   qt-mt323:qt-mt323.dll
 0002:0003fbca       ?activateItemAt@QPopupMenu@@UAEXH@Z 00462bca f   qt-mt323:qt-mt323.dll
 0002:0003fbd0       ?addTo@QAction@@UAE_NPAVQWidget@@@Z 00462bd0 f   qt-mt323:qt-mt323.dll
 0002:0003fbd6       ?addedTo@QAction@@MAEXHPAVQPopupMenu@@@Z 00462bd6 f   qt-mt323:qt-mt323.dll
 0002:0003fbdc       ?addedTo@QAction@@MAEXPAVQWidget@@0@Z 00462bdc f   qt-mt323:qt-mt323.dll
 0002:0003fbe2       ?childEvent@QGroupBox@@MAEXPAVQChildEvent@@@Z 00462be2 f   qt-mt323:qt-mt323.dll
 0002:0003fbe8       ?className@QAction@@UBEPBDXZ 00462be8 f   qt-mt323:qt-mt323.dll
 0002:0003fbee       ?className@QGroupBox@@UBEPBDXZ 00462bee f   qt-mt323:qt-mt323.dll
 0002:0003fbf4       ?className@QMenuBar@@UBEPBDXZ 00462bf4 f   qt-mt323:qt-mt323.dll
 0002:0003fbfa       ?className@QPopupMenu@@UBEPBDXZ 00462bfa f   qt-mt323:qt-mt323.dll
 0002:0003fc00       ?className@QToolBar@@UBEPBDXZ 00462c00 f   qt-mt323:qt-mt323.dll
 0002:0003fc06       ?className@QWidget@@UBEPBDXZ 00462c06 f   qt-mt323:qt-mt323.dll
 0002:0003fc0c       ?clear@QToolBar@@UAEXXZ    00462c0c f   qt-mt323:qt-mt323.dll
 0002:0003fc12       ?closeEvent@QPopupMenu@@MAEXPAVQCloseEvent@@@Z 00462c12 f   qt-mt323:qt-mt323.dll
 0002:0003fc18       ?contextMenuEvent@QDockWindow@@MAEXPAVQContextMenuEvent@@@Z 00462c18 f   qt-mt323:qt-mt323.dll
 0002:0003fc1e       ?customWhatsThis@QMenuBar@@UBE_NXZ 00462c1e f   qt-mt323:qt-mt323.dll
 0002:0003fc24       ?customWhatsThis@QPopupMenu@@UBE_NXZ 00462c24 f   qt-mt323:qt-mt323.dll
 0002:0003fc2a       ?dock@QDockWindow@@UAEXXZ  00462c2a f   qt-mt323:qt-mt323.dll
 0002:0003fc30       ?drawContents@QDockWindow@@MAEXPAVQPainter@@@Z 00462c30 f   qt-mt323:qt-mt323.dll
 0002:0003fc36       ?drawContents@QFrame@@MAEXPAVQPainter@@@Z 00462c36 f   qt-mt323:qt-mt323.dll
 0002:0003fc3c       ?drawContents@QMenuBar@@MAEXPAVQPainter@@@Z 00462c3c f   qt-mt323:qt-mt323.dll
 0002:0003fc42       ?drawContents@QPopupMenu@@MAEXPAVQPainter@@@Z 00462c42 f   qt-mt323:qt-mt323.dll
 0002:0003fc48       ?drawFrame@QDockWindow@@MAEXPAVQPainter@@@Z 00462c48 f   qt-mt323:qt-mt323.dll
 0002:0003fc4e       ?enabledChange@QPopupMenu@@MAEX_N@Z 00462c4e f   qt-mt323:qt-mt323.dll
 0002:0003fc54       ?event@QGroupBox@@MAE_NPAVQEvent@@@Z 00462c54 f   qt-mt323:qt-mt323.dll
 0002:0003fc5a       ?event@QToolBar@@UAE_NPAVQEvent@@@Z 00462c5a f   qt-mt323:qt-mt323.dll
 0002:0003fc60       ?eventFilter@QDockWindow@@UAE_NPAVQObject@@PAVQEvent@@@Z 00462c60 f   qt-mt323:qt-mt323.dll
 0002:0003fc66       ?eventFilter@QMenuBar@@UAE_NPAVQObject@@PAVQEvent@@@Z 00462c66 f   qt-mt323:qt-mt323.dll
 0002:0003fc6c       ?focusInEvent@QGroupBox@@MAEXPAVQFocusEvent@@@Z 00462c6c f   qt-mt323:qt-mt323.dll
 0002:0003fc72       ?focusInEvent@QMenuBar@@MAEXPAVQFocusEvent@@@Z 00462c72 f   qt-mt323:qt-mt323.dll
 0002:0003fc78       ?focusInEvent@QPopupMenu@@MAEXPAVQFocusEvent@@@Z 00462c78 f   qt-mt323:qt-mt323.dll
 0002:0003fc7e       ?focusNextPrevChild@QPopupMenu@@MAE_N_N@Z 00462c7e f   qt-mt323:qt-mt323.dll
 0002:0003fc84       ?focusOutEvent@QMenuBar@@MAEXPAVQFocusEvent@@@Z 00462c84 f   qt-mt323:qt-mt323.dll
 0002:0003fc8a       ?focusOutEvent@QPopupMenu@@MAEXPAVQFocusEvent@@@Z 00462c8a f   qt-mt323:qt-mt323.dll
 0002:0003fc90       ?fontChange@QGroupBox@@MAEXABVQFont@@@Z 00462c90 f   qt-mt323:qt-mt323.dll
 0002:0003fc96       ?fontChange@QMenuBar@@MAEXABVQFont@@@Z 00462c96 f   qt-mt323:qt-mt323.dll
 0002:0003fc9c       ?frameChanged@QMenuBar@@EAEXXZ 00462c9c f   qt-mt323:qt-mt323.dll
 0002:0003fca2       ?frameChanged@QPopupMenu@@EAEXXZ 00462ca2 f   qt-mt323:qt-mt323.dll
 0002:0003fca8       ?heightForWidth@QMenuBar@@UBEHH@Z 00462ca8 f   qt-mt323:qt-mt323.dll
 0002:0003fcae       ?hide@QMenuBar@@UAEXXZ     00462cae f   qt-mt323:qt-mt323.dll
 0002:0003fcb4       ?hide@QPopupMenu@@UAEXXZ   00462cb4 f   qt-mt323:qt-mt323.dll
 0002:0003fcba       ?hide@QToolBar@@UAEXXZ     00462cba f   qt-mt323:qt-mt323.dll
 0002:0003fcc0       ?hideEvent@QDockWindow@@MAEXPAVQHideEvent@@@Z 00462cc0 f   qt-mt323:qt-mt323.dll
 0002:0003fcc6       ?keyPressEvent@QMenuBar@@MAEXPAVQKeyEvent@@@Z 00462cc6 f   qt-mt323:qt-mt323.dll
 0002:0003fccc       ?keyPressEvent@QPopupMenu@@MAEXPAVQKeyEvent@@@Z 00462ccc f   qt-mt323:qt-mt323.dll
 0002:0003fcd2       ?leaveEvent@QMenuBar@@MAEXPAVQEvent@@@Z 00462cd2 f   qt-mt323:qt-mt323.dll
 0002:0003fcd8       ?leaveEvent@QPopupMenu@@MAEXPAVQEvent@@@Z 00462cd8 f   qt-mt323:qt-mt323.dll
 0002:0003fcde       ?menuContentsChanged@QMenuBar@@MAEXXZ 00462cde f   qt-mt323:qt-mt323.dll
 0002:0003fce4       ?menuContentsChanged@QPopupMenu@@EAEXXZ 00462ce4 f   qt-mt323:qt-mt323.dll
 0002:0003fcea       ?menuDelPopup@QMenuBar@@EAEXPAVQPopupMenu@@@Z 00462cea f   qt-mt323:qt-mt323.dll
 0002:0003fcf0       ?menuDelPopup@QPopupMenu@@EAEXPAV1@@Z 00462cf0 f   qt-mt323:qt-mt323.dll
 0002:0003fcf6       ?menuInsPopup@QMenuBar@@EAEXPAVQPopupMenu@@@Z 00462cf6 f   qt-mt323:qt-mt323.dll
 0002:0003fcfc       ?menuInsPopup@QPopupMenu@@EAEXPAV1@@Z 00462cfc f   qt-mt323:qt-mt323.dll
 0002:0003fd02       ?menuStateChanged@QMenuBar@@MAEXXZ 00462d02 f   qt-mt323:qt-mt323.dll
 0002:0003fd08       ?menuStateChanged@QPopupMenu@@EAEXXZ 00462d08 f   qt-mt323:qt-mt323.dll
 0002:0003fd0e       ?metaObject@QAction@@UBEPAVQMetaObject@@XZ 00462d0e f   qt-mt323:qt-mt323.dll
 0002:0003fd14       ?metaObject@QGroupBox@@UBEPAVQMetaObject@@XZ 00462d14 f   qt-mt323:qt-mt323.dll
 0002:0003fd1a       ?metaObject@QMenuBar@@UBEPAVQMetaObject@@XZ 00462d1a f   qt-mt323:qt-mt323.dll
 0002:0003fd20       ?metaObject@QPopupMenu@@UBEPAVQMetaObject@@XZ 00462d20 f   qt-mt323:qt-mt323.dll
 0002:0003fd26       ?metaObject@QToolBar@@UBEPAVQMetaObject@@XZ 00462d26 f   qt-mt323:qt-mt323.dll
 0002:0003fd2c       ?metaObject@QWidget@@UBEPAVQMetaObject@@XZ 00462d2c f   qt-mt323:qt-mt323.dll
 0002:0003fd32       ?minimumSizeHint@QMenuBar@@UBE?AVQSize@@XZ 00462d32 f   qt-mt323:qt-mt323.dll
 0002:0003fd38       ?minimumSizeHint@QToolBar@@UBE?AVQSize@@XZ 00462d38 f   qt-mt323:qt-mt323.dll
 0002:0003fd3e       ?mouseMoveEvent@QMenuBar@@MAEXPAVQMouseEvent@@@Z 00462d3e f   qt-mt323:qt-mt323.dll
 0002:0003fd44       ?mouseMoveEvent@QPopupMenu@@MAEXPAVQMouseEvent@@@Z 00462d44 f   qt-mt323:qt-mt323.dll
 0002:0003fd4a       ?mousePressEvent@QMenuBar@@MAEXPAVQMouseEvent@@@Z 00462d4a f   qt-mt323:qt-mt323.dll
 0002:0003fd50       ?mousePressEvent@QPopupMenu@@MAEXPAVQMouseEvent@@@Z 00462d50 f   qt-mt323:qt-mt323.dll
 0002:0003fd56       ?mouseReleaseEvent@QMenuBar@@MAEXPAVQMouseEvent@@@Z 00462d56 f   qt-mt323:qt-mt323.dll
 0002:0003fd5c       ?mouseReleaseEvent@QPopupMenu@@MAEXPAVQMouseEvent@@@Z 00462d5c f   qt-mt323:qt-mt323.dll
 0002:0003fd62       ?paintEvent@QGroupBox@@MAEXPAVQPaintEvent@@@Z 00462d62 f   qt-mt323:qt-mt323.dll
 0002:0003fd68       ?paintEvent@QPopupMenu@@MAEXPAVQPaintEvent@@@Z 00462d68 f   qt-mt323:qt-mt323.dll
 0002:0003fd6e       ?qt_cast@QAction@@UAEPAXPBD@Z 00462d6e f   qt-mt323:qt-mt323.dll
 0002:0003fd74       ?qt_cast@QGroupBox@@UAEPAXPBD@Z 00462d74 f   qt-mt323:qt-mt323.dll
 0002:0003fd7a       ?qt_cast@QMenuBar@@UAEPAXPBD@Z 00462d7a f   qt-mt323:qt-mt323.dll
 0002:0003fd80       ?qt_cast@QPopupMenu@@UAEPAXPBD@Z 00462d80 f   qt-mt323:qt-mt323.dll
 0002:0003fd86       ?qt_cast@QToolBar@@UAEPAXPBD@Z 00462d86 f   qt-mt323:qt-mt323.dll
 0002:0003fd8c       ?qt_cast@QWidget@@UAEPAXPBD@Z 00462d8c f   qt-mt323:qt-mt323.dll
 0002:0003fd92       ?qt_emit@QAction@@UAE_NHPAUQUObject@@@Z 00462d92 f   qt-mt323:qt-mt323.dll
 0002:0003fd98       ?qt_emit@QGroupBox@@UAE_NHPAUQUObject@@@Z 00462d98 f   qt-mt323:qt-mt323.dll
 0002:0003fd9e       ?qt_emit@QMenuBar@@UAE_NHPAUQUObject@@@Z 00462d9e f   qt-mt323:qt-mt323.dll
 0002:0003fda4       ?qt_emit@QPopupMenu@@UAE_NHPAUQUObject@@@Z 00462da4 f   qt-mt323:qt-mt323.dll
 0002:0003fdaa       ?qt_emit@QToolBar@@UAE_NHPAUQUObject@@@Z 00462daa f   qt-mt323:qt-mt323.dll
 0002:0003fdb0       ?qt_emit@QWidget@@UAE_NHPAUQUObject@@@Z 00462db0 f   qt-mt323:qt-mt323.dll
 0002:0003fdb6       ?qt_invoke@QAction@@UAE_NHPAUQUObject@@@Z 00462db6 f   qt-mt323:qt-mt323.dll
 0002:0003fdbc       ?qt_invoke@QGroupBox@@UAE_NHPAUQUObject@@@Z 00462dbc f   qt-mt323:qt-mt323.dll
 0002:0003fdc2       ?qt_invoke@QMenuBar@@UAE_NHPAUQUObject@@@Z 00462dc2 f   qt-mt323:qt-mt323.dll
 0002:0003fdc8       ?qt_invoke@QPopupMenu@@UAE_NHPAUQUObject@@@Z 00462dc8 f   qt-mt323:qt-mt323.dll
 0002:0003fdce       ?qt_invoke@QToolBar@@UAE_NHPAUQUObject@@@Z 00462dce f   qt-mt323:qt-mt323.dll
 0002:0003fdd4       ?qt_invoke@QWidget@@UAE_NHPAUQUObject@@@Z 00462dd4 f   qt-mt323:qt-mt323.dll
 0002:0003fdda       ?qt_property@QAction@@UAE_NHHPAVQVariant@@@Z 00462dda f   qt-mt323:qt-mt323.dll
 0002:0003fde0       ?qt_property@QGroupBox@@UAE_NHHPAVQVariant@@@Z 00462de0 f   qt-mt323:qt-mt323.dll
 0002:0003fde6       ?qt_property@QMenuBar@@UAE_NHHPAVQVariant@@@Z 00462de6 f   qt-mt323:qt-mt323.dll
 0002:0003fdec       ?qt_property@QPopupMenu@@UAE_NHHPAVQVariant@@@Z 00462dec f   qt-mt323:qt-mt323.dll
 0002:0003fdf2       ?qt_property@QToolBar@@UAE_NHHPAVQVariant@@@Z 00462df2 f   qt-mt323:qt-mt323.dll
 0002:0003fdf8       ?qt_property@QWidget@@UAE_NHHPAVQVariant@@@Z 00462df8 f   qt-mt323:qt-mt323.dll
 0002:0003fdfe       ?removeFrom@QAction@@UAE_NPAVQWidget@@@Z 00462dfe f   qt-mt323:qt-mt323.dll
 0002:0003fe04       ?resizeEvent@QFrame@@MAEXPAVQResizeEvent@@@Z 00462e04 f   qt-mt323:qt-mt323.dll
 0002:0003fe0a       ?resizeEvent@QGroupBox@@MAEXPAVQResizeEvent@@@Z 00462e0a f   qt-mt323:qt-mt323.dll
 0002:0003fe10       ?resizeEvent@QMenuBar@@MAEXPAVQResizeEvent@@@Z 00462e10 f   qt-mt323:qt-mt323.dll
 0002:0003fe16       ?resizeEvent@QToolBar@@MAEXPAVQResizeEvent@@@Z 00462e16 f   qt-mt323:qt-mt323.dll
 0002:0003fe1c       ?setAccel@QAction@@UAEXABVQKeySequence@@@Z 00462e1c f   qt-mt323:qt-mt323.dll
 0002:0003fe22       ?setActiveItem@QPopupMenu@@UAEXH@Z 00462e22 f   qt-mt323:qt-mt323.dll
 0002:0003fe28       ?setAlignment@QGroupBox@@UAEXH@Z 00462e28 f   qt-mt323:qt-mt323.dll
 0002:0003fe2e       ?setCaption@QDockWindow@@UAEXABVQString@@@Z 00462e2e f   qt-mt323:qt-mt323.dll
 0002:0003fe34       ?setCheckable@QPopupMenu@@UAEX_N@Z 00462e34 f   qt-mt323:qt-mt323.dll
 0002:0003fe3a       ?setCloseMode@QDockWindow@@UAEXH@Z 00462e3a f   qt-mt323:qt-mt323.dll
 0002:0003fe40       ?setColumnLayout@QGroupBox@@UAEXHW4Orientation@Qt@@@Z 00462e40 f   qt-mt323:qt-mt323.dll
 0002:0003fe46       ?setEnabled@QAction@@UAEX_N@Z 00462e46 f   qt-mt323:qt-mt323.dll
 0002:0003fe4c       ?setEnabled@QGroupBox@@UAEX_N@Z 00462e4c f   qt-mt323:qt-mt323.dll
 0002:0003fe52       ?setFirstItemActive@QPopupMenu@@EAEXXZ 00462e52 f   qt-mt323:qt-mt323.dll
 0002:0003fe58       ?setFixedExtentHeight@QDockWindow@@UAEXH@Z 00462e58 f   qt-mt323:qt-mt323.dll
 0002:0003fe5e       ?setFixedExtentWidth@QDockWindow@@UAEXH@Z 00462e5e f   qt-mt323:qt-mt323.dll
 0002:0003fe64       ?setFont@QPopupMenu@@UAEXABVQFont@@@Z 00462e64 f   qt-mt323:qt-mt323.dll
 0002:0003fe6a       ?setHorizontallyStretchable@QDockWindow@@UAEX_N@Z 00462e6a f   qt-mt323:qt-mt323.dll
 0002:0003fe70       ?setIconSet@QAction@@UAEXABVQIconSet@@@Z 00462e70 f   qt-mt323:qt-mt323.dll
 0002:0003fe76       ?setId@QMenuData@@UAEXHH@Z 00462e76 f   qt-mt323:qt-mt323.dll
 0002:0003fe7c       ?setLabel@QToolBar@@UAEXABVQString@@@Z 00462e7c f   qt-mt323:qt-mt323.dll
 0002:0003fe82       ?setMenuText@QAction@@UAEXABVQString@@@Z 00462e82 f   qt-mt323:qt-mt323.dll
 0002:0003fe88       ?setMinimumSize@QToolBar@@UAEXHH@Z 00462e88 f   qt-mt323:qt-mt323.dll
 0002:0003fe8e       ?setMovingEnabled@QDockWindow@@UAEX_N@Z 00462e8e f   qt-mt323:qt-mt323.dll
 0002:0003fe94       ?setNewLine@QDockWindow@@UAEX_N@Z 00462e94 f   qt-mt323:qt-mt323.dll
 0002:0003fe9a       ?setOffset@QDockWindow@@UAEXH@Z 00462e9a f   qt-mt323:qt-mt323.dll
 0002:0003fea0       ?setOn@QAction@@UAEX_N@Z   00462ea0 f   qt-mt323:qt-mt323.dll
 0002:0003fea6       ?setOpaqueMoving@QDockWindow@@UAEX_N@Z 00462ea6 f   qt-mt323:qt-mt323.dll
 0002:0003feac       ?setOrientation@QToolBar@@UAEXW4Orientation@Qt@@@Z 00462eac f   qt-mt323:qt-mt323.dll
 0002:0003feb2       ?setResizeEnabled@QDockWindow@@UAEX_N@Z 00462eb2 f   qt-mt323:qt-mt323.dll
 0002:0003feb8       ?setSeparator@QMenuBar@@UAEXW4Separator@1@@Z 00462eb8 f   qt-mt323:qt-mt323.dll
 0002:0003febe       ?setStatusTip@QAction@@UAEXABVQString@@@Z 00462ebe f   qt-mt323:qt-mt323.dll
 0002:0003fec4       ?setStretchableWidget@QToolBar@@UAEXPAVQWidget@@@Z 00462ec4 f   qt-mt323:qt-mt323.dll
 0002:0003feca       ?setText@QAction@@UAEXABVQString@@@Z 00462eca f   qt-mt323:qt-mt323.dll
 0002:0003fed0       ?setTitle@QGroupBox@@UAEXABVQString@@@Z 00462ed0 f   qt-mt323:qt-mt323.dll
 0002:0003fed6       ?setToggleAction@QAction@@UAEX_N@Z 00462ed6 f   qt-mt323:qt-mt323.dll
 0002:0003fedc       ?setToolTip@QAction@@UAEXABVQString@@@Z 00462edc f   qt-mt323:qt-mt323.dll
 0002:0003fee2       ?setVerticallyStretchable@QDockWindow@@UAEX_N@Z 00462ee2 f   qt-mt323:qt-mt323.dll
 0002:0003fee8       ?setWhatsThis@QAction@@UAEXABVQString@@@Z 00462ee8 f   qt-mt323:qt-mt323.dll
 0002:0003feee       ?setWidget@QDockWindow@@UAEXPAVQWidget@@@Z 00462eee f   qt-mt323:qt-mt323.dll
 0002:0003fef4       ?show@QMenuBar@@UAEXXZ     00462ef4 f   qt-mt323:qt-mt323.dll
 0002:0003fefa       ?show@QPopupMenu@@UAEXXZ   00462efa f   qt-mt323:qt-mt323.dll
 0002:0003ff00       ?show@QToolBar@@UAEXXZ     00462f00 f   qt-mt323:qt-mt323.dll
 0002:0003ff06       ?showEvent@QDockWindow@@MAEXPAVQShowEvent@@@Z 00462f06 f   qt-mt323:qt-mt323.dll
 0002:0003ff0c       ?sizeHint@QDockWindow@@UBE?AVQSize@@XZ 00462f0c f   qt-mt323:qt-mt323.dll
 0002:0003ff12       ?sizeHint@QGroupBox@@UBE?AVQSize@@XZ 00462f12 f   qt-mt323:qt-mt323.dll
 0002:0003ff18       ?sizeHint@QMenuBar@@UBE?AVQSize@@XZ 00462f18 f   qt-mt323:qt-mt323.dll
 0002:0003ff1e       ?sizeHint@QPopupMenu@@UBE?AVQSize@@XZ 00462f1e f   qt-mt323:qt-mt323.dll
 0002:0003ff24       ?styleChange@QMenuBar@@MAEXAAVQStyle@@@Z 00462f24 f   qt-mt323:qt-mt323.dll
 0002:0003ff2a       ?styleChange@QPopupMenu@@MAEXAAVQStyle@@@Z 00462f2a f   qt-mt323:qt-mt323.dll
 0002:0003ff30       ?styleChange@QToolBar@@MAEXAAVQStyle@@@Z 00462f30 f   qt-mt323:qt-mt323.dll
 0002:0003ff36       ?timerEvent@QPopupMenu@@MAEXPAVQTimerEvent@@@Z 00462f36 f   qt-mt323:qt-mt323.dll
 0002:0003ff3c       ?undock@QDockWindow@@UAEXPAVQWidget@@@Z 00462f3c f   qt-mt323:qt-mt323.dll
 0002:0003ff42       ?undock@QDockWindow@@UAEXXZ 00462f42 f   qt-mt323:qt-mt323.dll
 0002:0003ff48       ?updateItem@QMenuBar@@UAEXH@Z 00462f48 f   qt-mt323:qt-mt323.dll
 0002:0003ff4e       ?updateItem@QPopupMenu@@UAEXH@Z 00462f4e f   qt-mt323:qt-mt323.dll
 0002:0003ff54       ??1QFont@@QAE@XZ           00462f54 f   qt-mt323:qt-mt323.dll
 0002:0003ff5a       ?setPointSize@QFont@@QAEXH@Z 00462f5a f   qt-mt323:qt-mt323.dll
 0002:0003ff60       ?setMaximumSize@QWidget@@QAEXABVQSize@@@Z 00462f60 f   qt-mt323:qt-mt323.dll
 0002:0003ff66       ?font@QWidget@@QBE?AVQFont@@XZ 00462f66 f   qt-mt323:qt-mt323.dll
 0002:0003ff6c       ??0QListView@@QAE@PAVQWidget@@PBDI@Z 00462f6c f   qt-mt323:qt-mt323.dll
 0002:0003ff72       ??1QListView@@UAE@XZ       00462f72 f   qt-mt323:qt-mt323.dll
 0002:0003ff78       ?header@QListView@@QBEPAVQHeader@@XZ 00462f78 f   qt-mt323:qt-mt323.dll
 0002:0003ff7e       ?setSelectionMode@QListView@@QAEXW4SelectionMode@1@@Z 00462f7e f   qt-mt323:qt-mt323.dll
 0002:0003ff84       ?addChild@QScrollView@@UAEXPAVQWidget@@HH@Z 00462f84 f   qt-mt323:qt-mt323.dll
 0002:0003ff8a       ?addColumn@QListView@@UAEHABVQIconSet@@ABVQString@@H@Z 00462f8a f   qt-mt323:qt-mt323.dll
 0002:0003ff90       ?addColumn@QListView@@UAEHABVQString@@H@Z 00462f90 f   qt-mt323:qt-mt323.dll
 0002:0003ff96       ?className@QListView@@UBEPBDXZ 00462f96 f   qt-mt323:qt-mt323.dll
 0002:0003ff9c       ?clear@QListView@@UAEXXZ   00462f9c f   qt-mt323:qt-mt323.dll
 0002:0003ffa2       ?clearSelection@QListView@@UAEXXZ 00462fa2 f   qt-mt323:qt-mt323.dll
 0002:0003ffa8       ?contentsContextMenuEvent@QListView@@MAEXPAVQContextMenuEvent@@@Z 00462fa8 f   qt-mt323:qt-mt323.dll
 0002:0003ffae       ?contentsDragEnterEvent@QListView@@MAEXPAVQDragEnterEvent@@@Z 00462fae f   qt-mt323:qt-mt323.dll
 0002:0003ffb4       ?contentsDragLeaveEvent@QListView@@MAEXPAVQDragLeaveEvent@@@Z 00462fb4 f   qt-mt323:qt-mt323.dll
 0002:0003ffba       ?contentsDragMoveEvent@QListView@@MAEXPAVQDragMoveEvent@@@Z 00462fba f   qt-mt323:qt-mt323.dll
 0002:0003ffc0       ?contentsDropEvent@QListView@@MAEXPAVQDropEvent@@@Z 00462fc0 f   qt-mt323:qt-mt323.dll
 0002:0003ffc6       ?contentsMouseDoubleClickEvent@QListView@@MAEXPAVQMouseEvent@@@Z 00462fc6 f   qt-mt323:qt-mt323.dll
 0002:0003ffcc       ?contentsMouseMoveEvent@QListView@@MAEXPAVQMouseEvent@@@Z 00462fcc f   qt-mt323:qt-mt323.dll
 0002:0003ffd2       ?contentsMousePressEvent@QListView@@MAEXPAVQMouseEvent@@@Z 00462fd2 f   qt-mt323:qt-mt323.dll
 0002:0003ffd8       ?contentsMouseReleaseEvent@QListView@@MAEXPAVQMouseEvent@@@Z 00462fd8 f   qt-mt323:qt-mt323.dll
 0002:0003ffde       ?contentsWheelEvent@QScrollView@@MAEXPAVQWheelEvent@@@Z 00462fde f   qt-mt323:qt-mt323.dll
 0002:0003ffe4       ?contextMenuEvent@QScrollView@@MAEXPAVQContextMenuEvent@@@Z 00462fe4 f   qt-mt323:qt-mt323.dll
 0002:0003ffea       ?dragObject@QListView@@MAEPAVQDragObject@@XZ 00462fea f   qt-mt323:qt-mt323.dll
 0002:0003fff0       ?drawContents@QScrollView@@EAEXPAVQPainter@@@Z 00462ff0 f   qt-mt323:qt-mt323.dll
 0002:0003fff6       ?drawContents@QScrollView@@MAEXPAVQPainter@@HHHH@Z 00462ff6 f   qt-mt323:qt-mt323.dll
 0002:0003fffc       ?drawContentsOffset@QListView@@MAEXPAVQPainter@@HHHHHH@Z 00462ffc f   qt-mt323:qt-mt323.dll
 0002:00040002       ?eventFilter@QListView@@UAE_NPAVQObject@@PAVQEvent@@@Z 00463002 f   qt-mt323:qt-mt323.dll
 0002:00040008       ?focusInEvent@QListView@@MAEXPAVQFocusEvent@@@Z 00463008 f   qt-mt323:qt-mt323.dll
 0002:0004000e       ?focusNextPrevChild@QScrollView@@MAE_N_N@Z 0046300e f   qt-mt323:qt-mt323.dll
 0002:00040014       ?focusOutEvent@QListView@@MAEXPAVQFocusEvent@@@Z 00463014 f   qt-mt323:qt-mt323.dll
 0002:0004001a       ?fontChange@QScrollView@@MAEXABVQFont@@@Z 0046301a f   qt-mt323:qt-mt323.dll
 0002:00040020       ?frameChanged@QScrollView@@MAEXXZ 00463020 f   qt-mt323:qt-mt323.dll
 0002:00040026       ?insertItem@QListView@@UAEXPAVQListViewItem@@@Z 00463026 f   qt-mt323:qt-mt323.dll
 0002:0004002c       ?invertSelection@QListView@@UAEXXZ 0046302c f   qt-mt323:qt-mt323.dll
 0002:00040032       ?keyPressEvent@QListView@@MAEXPAVQKeyEvent@@@Z 00463032 f   qt-mt323:qt-mt323.dll
 0002:00040038       ?metaObject@QListView@@UBEPAVQMetaObject@@XZ 00463038 f   qt-mt323:qt-mt323.dll
 0002:0004003e       ?minimumSizeHint@QListView@@UBE?AVQSize@@XZ 0046303e f   qt-mt323:qt-mt323.dll
 0002:00040044       ?mouseDoubleClickEvent@QScrollView@@MAEXPAVQMouseEvent@@@Z 00463044 f   qt-mt323:qt-mt323.dll
 0002:0004004a       ?mouseMoveEvent@QScrollView@@MAEXPAVQMouseEvent@@@Z 0046304a f   qt-mt323:qt-mt323.dll
 0002:00040050       ?mousePressEvent@QScrollView@@MAEXPAVQMouseEvent@@@Z 00463050 f   qt-mt323:qt-mt323.dll
 0002:00040056       ?mouseReleaseEvent@QScrollView@@MAEXPAVQMouseEvent@@@Z 00463056 f   qt-mt323:qt-mt323.dll
 0002:0004005c       ?moveChild@QScrollView@@UAEXPAVQWidget@@HH@Z 0046305c f   qt-mt323:qt-mt323.dll
 0002:00040062       ?paintEmptyArea@QListView@@MAEXPAVQPainter@@ABVQRect@@@Z 00463062 f   qt-mt323:qt-mt323.dll
 0002:00040068       ?qt_cast@QListView@@UAEPAXPBD@Z 00463068 f   qt-mt323:qt-mt323.dll
 0002:0004006e       ?qt_emit@QListView@@UAE_NHPAUQUObject@@@Z 0046306e f   qt-mt323:qt-mt323.dll
 0002:00040074       ?qt_invoke@QListView@@UAE_NHPAUQUObject@@@Z 00463074 f   qt-mt323:qt-mt323.dll
 0002:0004007a       ?qt_property@QListView@@UAE_NHHPAVQVariant@@@Z 0046307a f   qt-mt323:qt-mt323.dll
 0002:00040080       ?removeChild@QScrollView@@UAEXPAVQObject@@@Z 00463080 f   qt-mt323:qt-mt323.dll
 0002:00040086       ?removeColumn@QListView@@UAEXH@Z 00463086 f   qt-mt323:qt-mt323.dll
 0002:0004008c       ?removeItem@QListView@@UAEXPAVQListViewItem@@@Z 0046308c f   qt-mt323:qt-mt323.dll
 0002:00040092       ?resize@QScrollView@@UAEXHH@Z 00463092 f   qt-mt323:qt-mt323.dll
 0002:00040098       ?resizeContents@QScrollView@@UAEXHH@Z 00463098 f   qt-mt323:qt-mt323.dll
 0002:0004009e       ?resizeEvent@QListView@@MAEXPAVQResizeEvent@@@Z 0046309e f   qt-mt323:qt-mt323.dll
 0002:000400a4       ?selectAll@QListView@@UAEX_N@Z 004630a4 f   qt-mt323:qt-mt323.dll
 0002:000400aa       ?setAllColumnsShowFocus@QListView@@UAEX_N@Z 004630aa f   qt-mt323:qt-mt323.dll
 0002:000400b0       ?setColumnAlignment@QListView@@UAEXHH@Z 004630b0 f   qt-mt323:qt-mt323.dll
 0002:000400b6       ?setColumnText@QListView@@UAEXHABVQIconSet@@ABVQString@@@Z 004630b6 f   qt-mt323:qt-mt323.dll
 0002:000400bc       ?setColumnText@QListView@@UAEXHABVQString@@@Z 004630bc f   qt-mt323:qt-mt323.dll
 0002:000400c2       ?setColumnWidth@QListView@@UAEXHH@Z 004630c2 f   qt-mt323:qt-mt323.dll
 0002:000400c8       ?setColumnWidthMode@QListView@@UAEXHW4WidthMode@1@@Z 004630c8 f   qt-mt323:qt-mt323.dll
 0002:000400ce       ?setContentsPos@QListView@@UAEXHH@Z 004630ce f   qt-mt323:qt-mt323.dll
 0002:000400d4       ?setCornerWidget@QScrollView@@UAEXPAVQWidget@@@Z 004630d4 f   qt-mt323:qt-mt323.dll
 0002:000400da       ?setCurrentItem@QListView@@UAEXPAVQListViewItem@@@Z 004630da f   qt-mt323:qt-mt323.dll
 0002:000400e0       ?setDefaultRenameAction@QListView@@UAEXW4RenameAction@1@@Z 004630e0 f   qt-mt323:qt-mt323.dll
 0002:000400e6       ?setDragAutoScroll@QScrollView@@UAEX_N@Z 004630e6 f   qt-mt323:qt-mt323.dll
 0002:000400ec       ?setEnabled@QScrollView@@UAEX_N@Z 004630ec f   qt-mt323:qt-mt323.dll
 0002:000400f2       ?setFont@QListView@@UAEXABVQFont@@@Z 004630f2 f   qt-mt323:qt-mt323.dll
 0002:000400f8       ?setHBarGeometry@QScrollView@@MAEXAAVQScrollBar@@HHHH@Z 004630f8 f   qt-mt323:qt-mt323.dll
 0002:000400fe       ?setHScrollBarMode@QScrollView@@UAEXW4ScrollBarMode@1@@Z 004630fe f   qt-mt323:qt-mt323.dll
 0002:00040104       ?setItemMargin@QListView@@UAEXH@Z 00463104 f   qt-mt323:qt-mt323.dll
 0002:0004010a       ?setMargins@QScrollView@@MAEXHHHH@Z 0046310a f   qt-mt323:qt-mt323.dll
 0002:00040110       ?setMultiSelection@QListView@@UAEX_N@Z 00463110 f   qt-mt323:qt-mt323.dll
 0002:00040116       ?setOpen@QListView@@UAEXPAVQListViewItem@@_N@Z 00463116 f   qt-mt323:qt-mt323.dll
 0002:0004011c       ?setPalette@QListView@@UAEXABVQPalette@@@Z 0046311c f   qt-mt323:qt-mt323.dll
 0002:00040122       ?setResizeMode@QListView@@UAEXW4ResizeMode@1@@Z 00463122 f   qt-mt323:qt-mt323.dll
 0002:00040128       ?setResizePolicy@QScrollView@@UAEXW4ResizePolicy@1@@Z 00463128 f   qt-mt323:qt-mt323.dll
 0002:0004012e       ?setRootIsDecorated@QListView@@UAEX_N@Z 0046312e f   qt-mt323:qt-mt323.dll
 0002:00040134       ?setSelected@QListView@@UAEXPAVQListViewItem@@_N@Z 00463134 f   qt-mt323:qt-mt323.dll
 0002:0004013a       ?setShowSortIndicator@QListView@@UAEX_N@Z 0046313a f   qt-mt323:qt-mt323.dll
 0002:00040140       ?setShowToolTips@QListView@@UAEX_N@Z 00463140 f   qt-mt323:qt-mt323.dll
 0002:00040146       ?setSorting@QListView@@UAEXH_N@Z 00463146 f   qt-mt323:qt-mt323.dll
 0002:0004014c       ?setTreeStepSize@QListView@@UAEXH@Z 0046314c f   qt-mt323:qt-mt323.dll
 0002:00040152       ?setVBarGeometry@QScrollView@@MAEXAAVQScrollBar@@HHHH@Z 00463152 f   qt-mt323:qt-mt323.dll
 0002:00040158       ?setVScrollBarMode@QScrollView@@UAEXW4ScrollBarMode@1@@Z 00463158 f   qt-mt323:qt-mt323.dll
 0002:0004015e       ?show@QListView@@UAEXXZ    0046315e f   qt-mt323:qt-mt323.dll
 0002:00040164       ?showEvent@QListView@@MAEXPAVQShowEvent@@@Z 00463164 f   qt-mt323:qt-mt323.dll
 0002:0004016a       ?sizeHint@QListView@@UBE?AVQSize@@XZ 0046316a f   qt-mt323:qt-mt323.dll
 0002:00040170       ?sort@QListView@@UAEXXZ    00463170 f   qt-mt323:qt-mt323.dll
 0002:00040176       ?startDrag@QListView@@MAEXXZ 00463176 f   qt-mt323:qt-mt323.dll
 0002:0004017c       ?styleChange@QListView@@MAEXAAVQStyle@@@Z 0046317c f   qt-mt323:qt-mt323.dll
 0002:00040182       ?takeItem@QListView@@UAEXPAVQListViewItem@@@Z 00463182 f   qt-mt323:qt-mt323.dll
 0002:00040188       ?viewportContextMenuEvent@QScrollView@@MAEXPAVQContextMenuEvent@@@Z 00463188 f   qt-mt323:qt-mt323.dll
 0002:0004018e       ?viewportDragEnterEvent@QScrollView@@MAEXPAVQDragEnterEvent@@@Z 0046318e f   qt-mt323:qt-mt323.dll
 0002:00040194       ?viewportDragLeaveEvent@QScrollView@@MAEXPAVQDragLeaveEvent@@@Z 00463194 f   qt-mt323:qt-mt323.dll
 0002:0004019a       ?viewportDragMoveEvent@QScrollView@@MAEXPAVQDragMoveEvent@@@Z 0046319a f   qt-mt323:qt-mt323.dll
 0002:000401a0       ?viewportDropEvent@QScrollView@@MAEXPAVQDropEvent@@@Z 004631a0 f   qt-mt323:qt-mt323.dll
 0002:000401a6       ?viewportMouseDoubleClickEvent@QScrollView@@MAEXPAVQMouseEvent@@@Z 004631a6 f   qt-mt323:qt-mt323.dll
 0002:000401ac       ?viewportMouseMoveEvent@QScrollView@@MAEXPAVQMouseEvent@@@Z 004631ac f   qt-mt323:qt-mt323.dll
 0002:000401b2       ?viewportMousePressEvent@QScrollView@@MAEXPAVQMouseEvent@@@Z 004631b2 f   qt-mt323:qt-mt323.dll
 0002:000401b8       ?viewportMouseReleaseEvent@QScrollView@@MAEXPAVQMouseEvent@@@Z 004631b8 f   qt-mt323:qt-mt323.dll
 0002:000401be       ?viewportPaintEvent@QScrollView@@MAEXPAVQPaintEvent@@@Z 004631be f   qt-mt323:qt-mt323.dll
 0002:000401c4       ?viewportResizeEvent@QListView@@MAEXPAVQResizeEvent@@@Z 004631c4 f   qt-mt323:qt-mt323.dll
 0002:000401ca       ?viewportWheelEvent@QScrollView@@MAEXPAVQWheelEvent@@@Z 004631ca f   qt-mt323:qt-mt323.dll
 0002:000401d0       ?wheelEvent@QScrollView@@MAEXPAVQWheelEvent@@@Z 004631d0 f   qt-mt323:qt-mt323.dll
 0002:000401d6       ?windowActivationChange@QListView@@MAEX_N@Z 004631d6 f   qt-mt323:qt-mt323.dll
 0002:000401dc       ??0QListBox@@QAE@PAVQWidget@@PBDI@Z 004631dc f   qt-mt323:qt-mt323.dll
 0002:000401e2       ??1QListBox@@UAE@XZ        004631e2 f   qt-mt323:qt-mt323.dll
 0002:000401e8       ?className@QListBox@@UBEPBDXZ 004631e8 f   qt-mt323:qt-mt323.dll
 0002:000401ee       ?clearSelection@QListBox@@UAEXXZ 004631ee f   qt-mt323:qt-mt323.dll
 0002:000401f4       ?contentsContextMenuEvent@QListBox@@MAEXPAVQContextMenuEvent@@@Z 004631f4 f   qt-mt323:qt-mt323.dll
 0002:000401fa       ?contentsDragEnterEvent@QScrollView@@MAEXPAVQDragEnterEvent@@@Z 004631fa f   qt-mt323:qt-mt323.dll
 0002:00040200       ?contentsDragLeaveEvent@QScrollView@@MAEXPAVQDragLeaveEvent@@@Z 00463200 f   qt-mt323:qt-mt323.dll
 0002:00040206       ?contentsDragMoveEvent@QScrollView@@MAEXPAVQDragMoveEvent@@@Z 00463206 f   qt-mt323:qt-mt323.dll
 0002:0004020c       ?contentsDropEvent@QScrollView@@MAEXPAVQDropEvent@@@Z 0046320c f   qt-mt323:qt-mt323.dll
 0002:00040212       ?contentsMouseDoubleClickEvent@QScrollView@@MAEXPAVQMouseEvent@@@Z 00463212 f   qt-mt323:qt-mt323.dll
 0002:00040218       ?contentsMouseMoveEvent@QScrollView@@MAEXPAVQMouseEvent@@@Z 00463218 f   qt-mt323:qt-mt323.dll
 0002:0004021e       ?contentsMousePressEvent@QScrollView@@MAEXPAVQMouseEvent@@@Z 0046321e f   qt-mt323:qt-mt323.dll
 0002:00040224       ?contentsMouseReleaseEvent@QScrollView@@MAEXPAVQMouseEvent@@@Z 00463224 f   qt-mt323:qt-mt323.dll
 0002:0004022a       ?drawContentsOffset@QScrollView@@MAEXPAVQPainter@@HHHHHH@Z 0046322a f   qt-mt323:qt-mt323.dll
 0002:00040230       ?ensureCurrentVisible@QListBox@@UAEXXZ 00463230 f   qt-mt323:qt-mt323.dll
 0002:00040236       ?eventFilter@QListBox@@MAE_NPAVQObject@@PAVQEvent@@@Z 00463236 f   qt-mt323:qt-mt323.dll
 0002:0004023c       ?focusInEvent@QListBox@@MAEXPAVQFocusEvent@@@Z 0046323c f   qt-mt323:qt-mt323.dll
 0002:00040242       ?focusOutEvent@QListBox@@MAEXPAVQFocusEvent@@@Z 00463242 f   qt-mt323:qt-mt323.dll
 0002:00040248       ?invertSelection@QListBox@@UAEXXZ 00463248 f   qt-mt323:qt-mt323.dll
 0002:0004024e       ?keyPressEvent@QListBox@@MAEXPAVQKeyEvent@@@Z 0046324e f   qt-mt323:qt-mt323.dll
 0002:00040254       ?metaObject@QListBox@@UBEPAVQMetaObject@@XZ 00463254 f   qt-mt323:qt-mt323.dll
 0002:0004025a       ?minimumSizeHint@QListBox@@UBE?AVQSize@@XZ 0046325a f   qt-mt323:qt-mt323.dll
 0002:00040260       ?mouseDoubleClickEvent@QListBox@@MAEXPAVQMouseEvent@@@Z 00463260 f   qt-mt323:qt-mt323.dll
 0002:00040266       ?mouseMoveEvent@QListBox@@MAEXPAVQMouseEvent@@@Z 00463266 f   qt-mt323:qt-mt323.dll
 0002:0004026c       ?mousePressEvent@QListBox@@MAEXPAVQMouseEvent@@@Z 0046326c f   qt-mt323:qt-mt323.dll
 0002:00040272       ?mouseReleaseEvent@QListBox@@MAEXPAVQMouseEvent@@@Z 00463272 f   qt-mt323:qt-mt323.dll
 0002:00040278       ?paintCell@QListBox@@MAEXPAVQPainter@@HH@Z 00463278 f   qt-mt323:qt-mt323.dll
 0002:0004027e       ?qt_cast@QListBox@@UAEPAXPBD@Z 0046327e f   qt-mt323:qt-mt323.dll
 0002:00040284       ?qt_emit@QListBox@@UAE_NHPAUQUObject@@@Z 00463284 f   qt-mt323:qt-mt323.dll
 0002:0004028a       ?qt_invoke@QListBox@@UAE_NHPAUQUObject@@@Z 0046328a f   qt-mt323:qt-mt323.dll
 0002:00040290       ?qt_property@QListBox@@UAE_NHHPAVQVariant@@@Z 00463290 f   qt-mt323:qt-mt323.dll
 0002:00040296       ?resizeEvent@QListBox@@MAEXPAVQResizeEvent@@@Z 00463296 f   qt-mt323:qt-mt323.dll
 0002:0004029c       ?selectAll@QListBox@@UAEX_N@Z 0046329c f   qt-mt323:qt-mt323.dll
 0002:000402a2       ?setBottomItem@QListBox@@UAEXH@Z 004632a2 f   qt-mt323:qt-mt323.dll
 0002:000402a8       ?setColumnMode@QListBox@@UAEXH@Z 004632a8 f   qt-mt323:qt-mt323.dll
 0002:000402ae       ?setColumnMode@QListBox@@UAEXW4LayoutMode@1@@Z 004632ae f   qt-mt323:qt-mt323.dll
 0002:000402b4       ?setContentsPos@QScrollView@@UAEXHH@Z 004632b4 f   qt-mt323:qt-mt323.dll
 0002:000402ba       ?setCurrentItem@QListBox@@UAEXH@Z 004632ba f   qt-mt323:qt-mt323.dll
 0002:000402c0       ?setCurrentItem@QListBox@@UAEXPAVQListBoxItem@@@Z 004632c0 f   qt-mt323:qt-mt323.dll
 0002:000402c6       ?setFont@QListBox@@UAEXABVQFont@@@Z 004632c6 f   qt-mt323:qt-mt323.dll
 0002:000402cc       ?setRowMode@QListBox@@UAEXH@Z 004632cc f   qt-mt323:qt-mt323.dll
 0002:000402d2       ?setRowMode@QListBox@@UAEXW4LayoutMode@1@@Z 004632d2 f   qt-mt323:qt-mt323.dll
 0002:000402d8       ?setSelected@QListBox@@UAEXPAVQListBoxItem@@_N@Z 004632d8 f   qt-mt323:qt-mt323.dll
 0002:000402de       ?setSelectionMode@QListBox@@UAEXW4SelectionMode@1@@Z 004632de f   qt-mt323:qt-mt323.dll
 0002:000402e4       ?setTopItem@QListBox@@UAEXH@Z 004632e4 f   qt-mt323:qt-mt323.dll
 0002:000402ea       ?setVariableHeight@QListBox@@UAEX_N@Z 004632ea f   qt-mt323:qt-mt323.dll
 0002:000402f0       ?setVariableWidth@QListBox@@UAEX_N@Z 004632f0 f   qt-mt323:qt-mt323.dll
 0002:000402f6       ?show@QScrollView@@UAEXXZ  004632f6 f   qt-mt323:qt-mt323.dll
 0002:000402fc       ?showEvent@QListBox@@MAEXPAVQShowEvent@@@Z 004632fc f   qt-mt323:qt-mt323.dll
 0002:00040302       ?sizeHint@QListBox@@UBE?AVQSize@@XZ 00463302 f   qt-mt323:qt-mt323.dll
 0002:00040308       ?styleChange@QScrollView@@UAEXAAVQStyle@@@Z 00463308 f   qt-mt323:qt-mt323.dll
 0002:0004030e       ?viewportPaintEvent@QListBox@@UAEXPAVQPaintEvent@@@Z 0046330e f   qt-mt323:qt-mt323.dll
 0002:00040314       ?viewportResizeEvent@QScrollView@@MAEXPAVQResizeEvent@@@Z 00463314 f   qt-mt323:qt-mt323.dll
 0002:0004031a       ?windowActivationChange@QListBox@@MAEX_N@Z 0046331a f   qt-mt323:qt-mt323.dll
 0002:00040320       ?get@QUType_ptr@@QAEAAPAXPAUQUObject@@@Z 00463320 f   qt-mt323:qt-mt323.dll
 0002:00040326       ?get@QUType_int@@QAEAAHPAUQUObject@@@Z 00463326 f   qt-mt323:qt-mt323.dll
 0002:0004032c       ?qt_cast@QMainWindow@@UAEPAXPBD@Z 0046332c f   qt-mt323:qt-mt323.dll
 0002:00040332       ?qt_invoke@QMainWindow@@UAE_NHPAUQUObject@@@Z 00463332 f   qt-mt323:qt-mt323.dll
 0002:00040338       ?qt_emit@QMainWindow@@UAE_NHPAUQUObject@@@Z 00463338 f   qt-mt323:qt-mt323.dll
 0002:0004033e       ?qt_property@QMainWindow@@UAE_NHHPAVQVariant@@@Z 0046333e f   qt-mt323:qt-mt323.dll
 0002:00040344       ?staticMetaObject@QMainWindow@@SAPAVQMetaObject@@XZ 00463344 f   qt-mt323:qt-mt323.dll
 0002:0004034a       ?signalsBlocked@QObject@@QBE_NXZ 0046334a f   qt-mt323:qt-mt323.dll
 0002:00040350       ?receivers@QObject@@IBEPAVQConnectionList@@H@Z 00463350 f   qt-mt323:qt-mt323.dll
 0002:00040356       ?activate_signal@QObject@@IAEXPAVQConnectionList@@PAUQUObject@@@Z 00463356 f   qt-mt323:qt-mt323.dll
 0002:0004035c       ??0QUObject@@QAE@XZ        0046335c f   qt-mt323:qt-mt323.dll
 0002:00040362       ??1QUObject@@QAE@XZ        00463362 f   qt-mt323:qt-mt323.dll
 0002:00040368       ?set@QUType_ptr@@QAEXPAUQUObject@@PBX@Z 00463368 f   qt-mt323:qt-mt323.dll
 0002:0004036e       ?get@QUType_bool@@QAEAA_NPAUQUObject@@@Z 0046336e f   qt-mt323:qt-mt323.dll
 0002:00040374       ?staticMetaObject@QWidget@@SAPAVQMetaObject@@XZ 00463374 f   qt-mt323:qt-mt323.dll
 0002:0004037a       ?activate_signal@QObject@@IAEXHH@Z 0046337a f   qt-mt323:qt-mt323.dll
 0002:00040380       ?activate_signal_bool@QObject@@IAEXH_N@Z 00463380 f   qt-mt323:qt-mt323.dll
 0002:00040386       ?staticMetaObject@QProcess@@SAPAVQMetaObject@@XZ 00463386 f   qt-mt323:qt-mt323.dll
 0002:0004038c       ?raise@QWidget@@QAEXXZ     0046338c f   qt-mt323:qt-mt323.dll
 0002:00040392       ??0QApplication@@QAE@AAHPAPADW4Type@0@@Z 00463392 f   qt-mt323:qt-mt323.dll
 0002:00040398       ??1QApplication@@UAE@XZ    00463398 f   qt-mt323:qt-mt323.dll
 0002:0004039e       ?commitData@QApplication@@UAEXAAVQSessionManager@@@Z 0046339e f   qt-mt323:qt-mt323.dll
 0002:000403a4       ?event@QApplication@@MAE_NPAVQEvent@@@Z 004633a4 f   qt-mt323:qt-mt323.dll
 0002:000403aa       ?notify@QApplication@@UAE_NPAVQObject@@PAVQEvent@@@Z 004633aa f   qt-mt323:qt-mt323.dll
 0002:000403b0       ?polish@QApplication@@UAEXPAVQWidget@@@Z 004633b0 f   qt-mt323:qt-mt323.dll
 0002:000403b6       ?saveState@QApplication@@UAEXAAVQSessionManager@@@Z 004633b6 f   qt-mt323:qt-mt323.dll
 0002:000403bc       ??1QCString@@UAE@XZ        004633bc f   qt-mt323:qt-mt323.dll
 0002:000403c2       ?local8Bit@QString@@QBE?AVQCString@@XZ 004633c2 f   qt-mt323:qt-mt323.dll
 0002:000403c8       ?fromUcs2@QString@@SA?AV1@PBG@Z 004633c8 f   qt-mt323:qt-mt323.dll
 0002:000403ce       ?ucs2@QString@@QBEPBGXZ    004633ce f   qt-mt323:qt-mt323.dll
 0002:000403d4       ?winEventFilter@QApplication@@UAE_NPAUtagMSG@@@Z 004633d4 f   qt-mt323:qt-mt323.dll
 0002:000403da       ?qt_cast@QApplication@@UAEPAXPBD@Z 004633da f   qt-mt323:qt-mt323.dll
 0002:000403e0       ?qt_invoke@QApplication@@UAE_NHPAUQUObject@@@Z 004633e0 f   qt-mt323:qt-mt323.dll
 0002:000403e6       ?qt_emit@QApplication@@UAE_NHPAUQUObject@@@Z 004633e6 f   qt-mt323:qt-mt323.dll
 0002:000403ec       ?qt_property@QApplication@@UAE_NHHPAVQVariant@@@Z 004633ec f   qt-mt323:qt-mt323.dll
 0002:000403f2       ?staticMetaObject@QApplication@@SAPAVQMetaObject@@XZ 004633f2 f   qt-mt323:qt-mt323.dll
 0002:000403f8       ?set@QUType_bool@@QAEXPAUQUObject@@_N@Z 004633f8 f   qt-mt323:qt-mt323.dll
 0002:000403fe       _OutputDebugStringA@4      004633fe f   kernel32:KERNEL32.dll
 0002:00040404       _lstrcpynA@12              00463404 f   kernel32:KERNEL32.dll
 0002:0004040a       _GetModuleFileNameA@12     0046340a f   kernel32:KERNEL32.dll
 0002:00040410       _WinExec@8                 00463410 f   kernel32:KERNEL32.dll
 0002:00040416       _GetPrivateProfileStringA@24 00463416 f   kernel32:KERNEL32.dll
 0002:0004041c       _GetProcAddress@8          0046341c f   kernel32:KERNEL32.dll
 0002:00040422       _GetSystemInfo@4           00463422 f   kernel32:KERNEL32.dll
 0002:00040428       _GetModuleHandleA@4        00463428 f   kernel32:KERNEL32.dll
 0002:0004042e       _GetPrivateProfileIntA@16  0046342e f   kernel32:KERNEL32.dll
 0002:00040434       _GetVersionExA@4           00463434 f   kernel32:KERNEL32.dll
 0002:0004043a       _Sleep@4                   0046343a f   kernel32:KERNEL32.dll
 0002:00040440       _GetCurrentProcess@0       00463440 f   kernel32:KERNEL32.dll
 0002:00040446       _GetLastError@0            00463446 f   kernel32:KERNEL32.dll
 0002:0004044c       _WritePrivateProfileStringA@16 0046344c f   kernel32:KERNEL32.dll
 0002:00040452       _GetSystemDirectoryA@8     00463452 f   kernel32:KERNEL32.dll
 0002:00040458       _WriteFile@20              00463458 f   kernel32:KERNEL32.dll
 0002:0004045e       _SetEndOfFile@4            0046345e f   kernel32:KERNEL32.dll
 0002:00040464       _SetFilePointer@16         00463464 f   kernel32:KERNEL32.dll
 0002:0004046a       _CloseHandle@4             0046346a f   kernel32:KERNEL32.dll
 0002:00040470       _GetSystemTime@4           00463470 f   kernel32:KERNEL32.dll
 0002:00040476       _GetLocalTime@4            00463476 f   kernel32:KERNEL32.dll
 0002:0004047c       _CreateFileA@28            0046347c f   kernel32:KERNEL32.dll
 0002:00040482       _wsprintfA                 00463482 f   user32:USER32.dll
 0002:00040488       _PostMessageA@16           00463488 f   user32:USER32.dll
 0002:0004048e       _FindWindowA@8             0046348e f   user32:USER32.dll
 0002:00040494       _WaitForInputIdle@8        00463494 f   user32:USER32.dll
 0002:0004049a       _ExitWindowsEx@8           0046349a f   user32:USER32.dll
 0002:000404a0       _MessageBoxA@16            004634a0 f   user32:USER32.dll
 0002:000404a6       _SendMessageTimeoutA@28    004634a6 f   user32:USER32.dll
 0002:000404ac       _GetUserNameA@8            004634ac f   advapi32:ADVAPI32.dll
 0002:000404b2       _OpenProcessToken@12       004634b2 f   advapi32:ADVAPI32.dll
 0002:000404b8       _AdjustTokenPrivileges@24  004634b8 f   advapi32:ADVAPI32.dll
 0002:000404be       _LookupPrivilegeValueA@12  004634be f   advapi32:ADVAPI32.dll
 0002:000404c4       ??2@YAPAXI@Z               004634c4 f   MSVCRTD:MSVCR120D.dll
 0002:000404ca       ??3@YAXPAX@Z               004634ca f   MSVCRTD:MSVCR120D.dll
 0002:000404d0       _strlen                    004634d0 f   MSVCRTD:MSVCR120D.dll
 0002:000404d6       _strncpy                   004634d6 f   MSVCRTD:MSVCR120D.dll
 0002:000404e0       @_RTC_AllocaHelper@12      004634e0 f   MSVCRTD:stack.obj
 0002:00040520       @_RTC_CheckStackVars2@12   00463520 f   MSVCRTD:stack.obj
 0002:00040630       @_RTC_CheckStackVars@8     00463630 f   MSVCRTD:stack.obj
 0002:000406a0       __RTC_CheckEsp             004636a0 f   MSVCRTD:stack.obj
 0002:000406d0       __RTC_InitBase             004636d0 f   MSVCRTD:init.obj
 0002:00040710       __RTC_Shutdown             00463710 f   MSVCRTD:init.obj
 0002:00040730       ??0type_info@@AAE@ABV0@@Z  00463730 f   MSVCRTD:ti_inst.obj
 0002:00040750       ??4type_info@@AAEAAV0@ABV0@@Z 00463750 f   MSVCRTD:ti_inst.obj
 0002:00040770       ??_Etype_info@@UAEPAXI@Z   00463770 f i MSVCRTD:ti_inst.obj
 0002:000407f4       _strchr                    004637f4 f   MSVCRTD:MSVCR120D.dll
 0002:00040800       @__security_check_cookie@4 00463800 f   MSVCRTD:secchk.obj
 0002:00040812       ___CxxFrameHandler3        00463812 f   MSVCRTD:MSVCR120D.dll
 0002:00040820       __alloca_probe_16          00463820 f   MSVCRTD:alloca16.obj
 0002:00040836       __alloca_probe_8           00463836     MSVCRTD:alloca16.obj
 0002:00040858       __purecall                 00463858 f   MSVCRTD:MSVCR120D.dll
 0002:00040860       ___atonexitinit            00463860 f   MSVCRTD:atonexit.obj
 0002:00040940       __onexit                   00463940 f   MSVCRTD:atonexit.obj
 0002:00040a80       _atexit                    00463a80 f   MSVCRTD:atonexit.obj
 0002:00040ab6       _memcpy                    00463ab6 f   MSVCRTD:MSVCR120D.dll
 0002:00040abc       _memmove                   00463abc f   MSVCRTD:MSVCR120D.dll
 0002:00040ac2       _atoi                      00463ac2 f   MSVCRTD:MSVCR120D.dll
 0002:00040ac8       _getenv                    00463ac8 f   MSVCRTD:MSVCR120D.dll
 0002:00040ace       __CrtDbgReportW            00463ace f   MSVCRTD:MSVCR120D.dll
 0002:00040ad4       __hypot                    00463ad4 f   MSVCRTD:MSVCR120D.dll
 0002:00040ada       __CxxThrowException@8      00463ada f   MSVCRTD:MSVCR120D.dll
 0002:00040ae0       ___raise_securityfailure   00463ae0 f   MSVCRTD:gs_report.obj
 0002:00040b40       ___report_gsfailure        00463b40 f   MSVCRTD:gs_report.obj
 0002:00040c90       ___report_rangecheckfailure 00463c90 f   MSVCRTD:gs_report.obj
 0002:00040ca0       ___report_securityfailure  00463ca0 f   MSVCRTD:gs_report.obj
 0002:00040db0       ___report_securityfailureEx 00463db0 f   MSVCRTD:gs_report.obj
 0002:00040f1e       _strcpy                    00463f1e f   MSVCRTD:MSVCR120D.dll
 0002:00040f24       ??_V@YAXPAX@Z              00463f24 f   MSVCRTD:MSVCR120D.dll
 0002:00040f2a       ??_U@YAPAXI@Z              00463f2a f   MSVCRTD:MSVCR120D.dll
 0002:00040f30       ___RTDynamicCast           00463f30 f   MSVCRTD:MSVCR120D.dll
 0002:00040f36       _sprintf                   00463f36 f   MSVCRTD:MSVCR120D.dll
 0002:00040f3c       _memset                    00463f3c f   MSVCRTD:MSVCR120D.dll
 0002:000410f0       ?_RTC_AllocaFailure@@YAXPAXPAU_RTC_ALLOCA_NODE@@H@Z 004640f0 f   MSVCRTD:error.obj
 0002:000412d0       ?_RTC_Failure@@YAXPAXH@Z   004642d0 f   MSVCRTD:error.obj
 0002:00041340       ?_RTC_StackFailure@@YAXPAXPBD@Z 00464340 f   MSVCRTD:error.obj
 0002:000417a0       __RTC_UninitUse            004647a0 f   MSVCRTD:error.obj
 0002:000418d0       ??_L@YGXPAXIHP6EX0@Z1@Z    004648d0 f   MSVCRTD:ehvecctr.obj
 0002:000419b0       ??_M@YGXPAXIHP6EX0@Z@Z     004649b0 f   MSVCRTD:ehvecdtr.obj
 0002:00041ad0       ?__ArrayUnwind@@YGXPAXIHP6EX0@Z@Z 00464ad0 f   MSVCRTD:ehvecdtr.obj
 0002:00041ca0       _NtCurrentTeb              00464ca0 f i MSVCRTD:crtexew.obj
 0002:00041cb0       _WinMainCRTStartup         00464cb0 f   MSVCRTD:crtexew.obj
 0002:00042112       _strcat                    00465112 f   MSVCRTD:MSVCR120D.dll
 0002:00042118       _strtok                    00465118 f   MSVCRTD:MSVCR120D.dll
 0002:0004211e       __localtime64              0046511e f   MSVCRTD:MSVCR120D.dll
 0002:00042124       __time64                   00465124 f   MSVCRTD:MSVCR120D.dll
 0002:0004212a       __mkdir                    0046512a f   MSVCRTD:MSVCR120D.dll
 0002:00042130       _strpbrk                   00465130 f   MSVCRTD:MSVCR120D.dll
 0002:00042136       _free                      00465136 f   MSVCRTD:MSVCR120D.dll
 0002:0004213c       _malloc                    0046513c f   MSVCRTD:MSVCR120D.dll
 0002:00042150       ?_RTC_GetErrorFunc@@YAP6AHHPBDH00ZZPBX@Z 00465150 f   MSVCRTD:userapi.obj
 0002:00042160       ?_RTC_GetErrorFuncW@@YAP6AHHPB_WH00ZZPBX@Z 00465160 f   MSVCRTD:userapi.obj
 0002:00042170       __RTC_GetErrDesc           00465170 f   MSVCRTD:userapi.obj
 0002:00042190       __RTC_NumErrors            00465190 f   MSVCRTD:userapi.obj
 0002:000421a0       __RTC_SetErrorFunc         004651a0 f   MSVCRTD:userapi.obj
 0002:000421d0       __RTC_SetErrorFuncW        004651d0 f   MSVCRTD:userapi.obj
 0002:00042200       __RTC_SetErrorType         00465200 f   MSVCRTD:userapi.obj
 0002:0004222c       __CRT_RTC_INITW            0046522c f   MSVCRTD:MSVCR120D.dll
 0002:00042232       ??1type_info@@UAE@XZ       00465232 f   MSVCRTD:MSVCR120D.dll
 0002:00042240       __chkstk                   00465240 f   MSVCRTD:chkstk.obj
 0002:00042240       __alloca_probe             00465240 f   MSVCRTD:chkstk.obj
 0002:00042276       __lock                     00465276 f   MSVCRTD:MSVCR120D.dll
 0002:0004227c       __unlock                   0046527c f   MSVCRTD:MSVCR120D.dll
 0002:00042282       __calloc_dbg               00465282 f   MSVCRTD:MSVCR120D.dll
 0002:00042288       ___dllonexit               00465288 f   MSVCRTD:MSVCR120D.dll
 0002:00042290       __except_handler4          00465290 f   MSVCRTD:chandler4gs.obj
 0002:000422c0       __crt_debugger_hook        004652c0 f   MSVCRTD:MSVCR120D.dll
 0002:000422c6       ___crtUnhandledException   004652c6 f   MSVCRTD:MSVCR120D.dll
 0002:000422cc       ___crtTerminateProcess     004652cc f   MSVCRTD:MSVCR120D.dll
 0002:00042840       ?_RTC_GetSrcLine@@YAHPAEPA_WKPAH1K@Z 00465840 f   MSVCRTD:pdblkup.obj
 0002:00042b9a       ?terminate@@YAXXZ          00465b9a f   MSVCRTD:MSVCR120D.dll
 0002:00042ba0       ?__CxxUnhandledExceptionFilter@@YGJPAU_EXCEPTION_POINTERS@@@Z 00465ba0 f   MSVCRTD:unhandld.obj
 0002:00042c20       ___CxxSetUnhandledExceptionFilter 00465c20 f   MSVCRTD:unhandld.obj
 0002:00042c3a       __XcptFilter               00465c3a f   MSVCRTD:MSVCR120D.dll
 0002:00042c40       ___crtGetShowWindowMode    00465c40 f   MSVCRTD:MSVCR120D.dll
 0002:00042c46       __amsg_exit                00465c46 f   MSVCRTD:MSVCR120D.dll
 0002:00042c50       __setargv                  00465c50 f   MSVCRTD:dllargv.obj
 0002:00042c58       ___getmainargs             00465c58 f   MSVCRTD:MSVCR120D.dll
 0002:00042c5e       ___set_app_type            00465c5e f   MSVCRTD:MSVCR120D.dll
 0002:00042c64       __CrtSetCheckCount         00465c64 f   MSVCRTD:MSVCR120D.dll
 0002:00042c70       __FindPESection            00465c70 f   MSVCRTD:pesect.obj
 0002:00042d00       __IsNonwritableInCurrentImage 00465d00 f   MSVCRTD:pesect.obj
 0002:00042e80       __ValidateImageBase        00465e80 f   MSVCRTD:pesect.obj
 0002:00042ef4       _exit                      00465ef4 f   MSVCRTD:MSVCR120D.dll
 0002:00042efa       __exit                     00465efa f   MSVCRTD:MSVCR120D.dll
 0002:00042f00       __cexit                    00465f00 f   MSVCRTD:MSVCR120D.dll
 0002:00042f10       ___security_init_cookie    00465f10 f   MSVCRTD:gs_support.obj
 0002:00043030       __matherr                  00466030 f   MSVCRTD:merr.obj
 0002:00043038       __ismbblead                00466038 f   MSVCRTD:MSVCR120D.dll
 0002:00043040       __RTC_Initialize           00466040 f   MSVCRTD:initsect.obj
 0002:00043070       __RTC_Terminate            00466070 f   MSVCRTD:initsect.obj
 0002:0004309e       __configthreadlocale       0046609e f   MSVCRTD:MSVCR120D.dll
 0002:000430b0       __invoke_watson_if_error   004660b0 f i MSVCRTD:fp8.obj
 0002:000430e0       __setdefaultprecision      004660e0 f   MSVCRTD:fp8.obj
 0002:00043122       ___setusermatherr          00466122 f   MSVCRTD:MSVCR120D.dll
 0002:00043128       __initterm_e               00466128 f   MSVCRTD:MSVCR120D.dll
 0002:0004312e       __initterm                 0046612e f   MSVCRTD:MSVCR120D.dll
 0002:00043134       __except_handler4_common   00466134 f   MSVCRTD:MSVCR120D.dll
 0002:0004313a       _wcscpy_s                  0046613a f   MSVCRTD:MSVCR120D.dll
 0002:00043140       __wmakepath_s              00466140 f   MSVCRTD:MSVCR120D.dll
 0002:00043146       __wsplitpath_s             00466146 f   MSVCRTD:MSVCR120D.dll
 0002:0004314c       ___crtSetUnhandledExceptionFilter 0046614c f   MSVCRTD:MSVCR120D.dll
 0002:00043152       __invoke_watson            00466152 f   MSVCRTD:MSVCR120D.dll
 0002:00043158       __controlfp_s              00466158 f   MSVCRTD:MSVCR120D.dll
 0002:0004315e       ?_Debug_message@std@@YAXPB_W0I@Z 0046615e f   msvcprtd:MSVCP120D.dll
 0002:00043164       ??0_Container_base12@std@@QAE@XZ 00466164 f   msvcprtd:MSVCP120D.dll
 0002:0004316a       ??1_Container_base12@std@@QAE@XZ 0046616a f   msvcprtd:MSVCP120D.dll
 0002:00043170       ?_Orphan_all@_Container_base12@std@@QAEXXZ 00466170 f   msvcprtd:MSVCP120D.dll
 0002:00043176       ?_Xbad_alloc@std@@YAXXZ    00466176 f   msvcprtd:MSVCP120D.dll
 0002:0004317c       ?_Xlength_error@std@@YAXPBD@Z 0046617c f   msvcprtd:MSVCP120D.dll
 0002:00043182       ?_Xout_of_range@std@@YAXPBD@Z 00466182 f   msvcprtd:MSVCP120D.dll
 0002:00043188       ??0id@locale@std@@QAE@I@Z  00466188 f   msvcprtd:MSVCP120D.dll
 0002:0004318e       ?_Syserror_map@std@@YAPBDH@Z 0046618e f   msvcprtd:MSVCP120D.dll
 0002:00043194       ?_Winerror_map@std@@YAPBDH@Z 00466194 f   msvcprtd:MSVCP120D.dll
 0002:0004319a       _EncodePointer@4           0046619a f   kernel32:KERNEL32.dll
 0002:000431a0       _DecodePointer@4           004661a0 f   kernel32:KERNEL32.dll
 0002:000431a6       _IsDebuggerPresent@0       004661a6 f   kernel32:KERNEL32.dll
 0002:000431ac       _IsProcessorFeaturePresent@4 004661ac f   kernel32:KERNEL32.dll
 0002:000431b2       _RaiseException@16         004661b2 f   kernel32:KERNEL32.dll
 0002:000431b8       _LoadLibraryExW@12         004661b8 f   kernel32:KERNEL32.dll
 0002:000431be       _MultiByteToWideChar@24    004661be f   kernel32:KERNEL32.dll
 0002:000431c4       _WideCharToMultiByte@32    004661c4 f   kernel32:KERNEL32.dll
 0002:000431ca       _HeapAlloc@12              004661ca f   kernel32:KERNEL32.dll
 0002:000431d0       _HeapFree@12               004661d0 f   kernel32:KERNEL32.dll
 0002:000431d6       _GetProcessHeap@0          004661d6 f   kernel32:KERNEL32.dll
 0002:000431dc       _VirtualQuery@12           004661dc f   kernel32:KERNEL32.dll
 0002:000431e2       _FreeLibrary@4             004661e2 f   kernel32:KERNEL32.dll
 0002:000431e8       _GetModuleFileNameW@12     004661e8 f   kernel32:KERNEL32.dll
 0002:000431ee       _GetModuleHandleW@4        004661ee f   kernel32:KERNEL32.dll
 0002:000431f4       _QueryPerformanceCounter@4 004661f4 f   kernel32:KERNEL32.dll
 0002:000431fa       _GetCurrentProcessId@0     004661fa f   kernel32:KERNEL32.dll
 0002:00043200       _GetCurrentThreadId@0      00466200 f   kernel32:KERNEL32.dll
 0002:00043206       _GetSystemTimeAsFileTime@4 00466206 f   kernel32:KERNEL32.dll
 0002:0004320c       __stricmp                  0046620c f   MSVCRTD:MSVCR120D.dll
 0002:00043212       __putenv                   00466212 f   MSVCRTD:MSVCR120D.dll
 0002:00043218       ?deleteData@QGArray@@MAEXPAUarray_data@1@@Z 00466218 f   qt-mt323:qt-mt323.dll
 0002:0004321e       ?newData@QGArray@@MAEPAUarray_data@1@XZ 0046621e f   qt-mt323:qt-mt323.dll
 0002:00043224       ??1QGArray@@MAE@XZ         00466224 f   qt-mt323:qt-mt323.dll
 0002:0004322a       ?qWinMain@@YAXPAUHINSTANCE__@@0PADHAAHAAV?$QMemArray@PAD@@@Z 0046622a f   qt-mt323:qt-mt323.dll
 0002:00043230       ??0QGArray@@IAE@H@Z        00466230 f   qt-mt323:qt-mt323.dll
 0002:00043236       ?duplicate@QGArray@@IAEAAV1@ABV1@@Z 00466236 f   qt-mt323:qt-mt323.dll
 0003:00000000       ___xc_a                    00471000     MSVCRTD:cinitexe.obj
 0003:000003a0       ___xc_z                    004713a0     MSVCRTD:cinitexe.obj
 0003:000004a4       ___xi_a                    004714a4     MSVCRTD:cinitexe.obj
 0003:000008b4       ___xi_z                    004718b4     MSVCRTD:cinitexe.obj
 0003:000009fc       ??_7decodeBNCSString@@6B@  004719fc     decodeBNCSString.obj
 0003:00000a01       ??_C@_00CNPNBAHC@?$AA@     00471a01     decodeBNCSString.obj
 0003:00000a04       ??_C@_0BB@DPGIINKI@copy?5con?5BNCSstr?$AA@ 00471a04     decodeBNCSString.obj
 0003:00000a1c       ??_7AboutDialog@@6BQObject@@@ 00471a1c     AboutDialog.obj
 0003:00000c3c       ??_7AboutDialog@@6BQPaintDevice@@@ 00471c3c     AboutDialog.obj
 0003:00000c64       ??_C@_08EPPCPEEP@?$CFs?5?5?$CI?$CFs?$CJ?$AA@ 00471c64     AboutDialog.obj
 0003:00000c70       ??_C@_08KCDPODON@16?309?310?$AA@ 00471c70     AboutDialog.obj
 0003:00000c7c       ??_C@_0M@BKMHKHNE@Apr?520?52020?$AA@ 00471c7c     AboutDialog.obj
 0003:00000c8c       ??_C@_07FCJAGJJB@?$CFs?5?9?5?$CFs?$AA@ 00471c8c     AboutDialog.obj
 0003:00000c98       ??_C@_0BJ@KPNNKBCP@?2VarFileInfo?2Translation?$AA@ 00471c98     AboutDialog.obj
 0003:00000cb8       ??_C@_08EAKGLGNO@?$CF04X?$CF04X?$AA@ 00471cb8     AboutDialog.obj
 0003:00000cc4       ??_C@_0BP@OKGDDKKJ@?2StringFileInfo?2?$CFs?2FileVersion?$AA@ 00471cc4     AboutDialog.obj
 0003:00000cec       ??_C@_0CC@IAGJDCJF@?2StringFileInfo?2?$CFs?2ProductVersio@ 00471cec     AboutDialog.obj
 0003:00000d14       ??_C@_0CC@BENIJKPI@?2StringFileInfo?2?$CFs?2LegalCopyrigh@ 00471d14     AboutDialog.obj
 0003:00000d3c       ??_C@_0N@EMCBFMFI@32?532?5131?52?5?$AA@ 00471d3c     bncs_ws_mandialog.obj
 0003:00000d4c       ??_C@_0N@MBCHPPO@?5?5?5c?5?$CD6C6C00?$AA@ 00471d4c     bncs_ws_mandialog.obj
 0003:00000d5c       ??_C@_0N@HBINEML@?4?5?5c?5?$CD7B7B01?$AA@ 00471d5c     bncs_ws_mandialog.obj
 0003:00000d6c       ??_C@_0N@LCOEAGGF@X?5?5c?5?$CD7E7E0A?$AA@ 00471d6c     bncs_ws_mandialog.obj
 0003:00000d7c       ??_C@_0N@HCDCCDJD@o?5?5c?5?$CD7F7F11?$AA@ 00471d7c     bncs_ws_mandialog.obj
 0003:00000d8c       ??_C@_0N@KKIDBIPE@O?5?5c?5?$CD838300?$AA@ 00471d8c     bncs_ws_mandialog.obj
 0003:00000d9c       ??_C@_0N@GOCPIAOA@?$CL?5?5c?5?$CD8B8B01?$AA@ 00471d9c     bncs_ws_mandialog.obj
 0003:00000dac       ??_C@_0N@CBGBBILD@?$EA?5?5c?5?$CD81810D?$AA@ 00471dac     bncs_ws_mandialog.obj
 0003:00000dbc       ??_C@_0N@LCFBCIJB@?$CD?5?5c?5?$CD929204?$AA@ 00471dbc     bncs_ws_mandialog.obj
 0003:00000dcc       ??_C@_0N@EFHFEMHI@$?5?5c?5?$CD94940B?$AA@ 00471dcc     bncs_ws_mandialog.obj
 0003:00000ddc       ??_C@_0N@MJLHPOKH@?$CF?5?5c?5?$CD9A9A0D?$AA@ 00471ddc     bncs_ws_mandialog.obj
 0003:00000dec       ??_C@_0N@JAKPBLG@?$CG?5?5c?5?$CD838313?$AA@ 00471dec     bncs_ws_mandialog.obj
 0003:00000dfc       ??_C@_0N@EPLNINHK@?$CK?5?5c?5?$CD85851C?$AA@ 00471dfc     bncs_ws_mandialog.obj
 0003:00000e0c       ??_C@_0N@NBCGNHLK@?$DN?5?5c?5?$CD88881B?$AA@ 00471e0c     bncs_ws_mandialog.obj
 0003:00000e1c       ??_C@_0N@MNCPAAN@?9?5?5c?5?$CD9C9C12?$AA@ 00471e1c     bncs_ws_mandialog.obj
 0003:00000e2c       ??_C@_0N@KMGILNDA@?$DL?5?5c?5?$CDBABA00?$AA@ 00471e2c     bncs_ws_mandialog.obj
 0003:00000e3c       ??_C@_0N@NHPCANJE@?3?5?5c?5?$CDA3A316?$AA@ 00471e3c     bncs_ws_mandialog.obj
 0003:00000e4c       ??_C@_0N@NMMKNDPB@?$DO?5?5c?5?$CDA4A41B?$AA@ 00471e4c     bncs_ws_mandialog.obj
 0003:00000e5c       ??_C@_0N@FJMFKLDK@?0?5?5c?5?$CDAAAA1D?$AA@ 00471e5c     bncs_ws_mandialog.obj
 0003:00000e6c       ??_C@_0N@IIPMGLBD@?$DM?5?5c?5?$CD878722?$AA@ 00471e6c     bncs_ws_mandialog.obj
 0003:00000e7c       ??_C@_0N@KKFLNHH@1?5?5c?5?$CD8A8A24?$AA@ 00471e7c     bncs_ws_mandialog.obj
 0003:00000e8c       ??_C@_0N@CJMLGGEJ@2?5?5c?5?$CD8C8C2B?$AA@ 00471e8c     bncs_ws_mandialog.obj
 0003:00000e9c       ??_C@_0N@PBINGIFE@3?5?5c?5?$CD91912C?$AA@ 00471e9c     bncs_ws_mandialog.obj
 0003:00000eac       ??_C@_0N@MAMAMLNE@4?5?5c?5?$CD8F8F32?$AA@ 00471eac     bncs_ws_mandialog.obj
 0003:00000ebc       ??_C@_0N@LNOONOIO@5?5?5c?5?$CD929235?$AA@ 00471ebc     bncs_ws_mandialog.obj
 0003:00000ecc       ??_C@_0N@OAIIFFHA@6?5?5c?5?$CD95953B?$AA@ 00471ecc     bncs_ws_mandialog.obj
 0003:00000edc       ??_C@_0N@LPCBOHML@7?5?5c?5?$CD989839?$AA@ 00471edc     bncs_ws_mandialog.obj
 0003:00000eec       ??_C@_0N@CIFAFHJP@8?5?5c?5?$CDADAD23?$AA@ 00471eec     bncs_ws_mandialog.obj
 0003:00000efc       ??_C@_0N@NFLHALLN@9?5?5c?5?$CDB4B42B?$AA@ 00471efc     bncs_ws_mandialog.obj
 0003:00000f0c       ??_C@_0N@FMNPLBH@0?5?5c?5?$CDB9B92C?$AA@ 00471f0c     bncs_ws_mandialog.obj
 0003:00000f1c       ??_C@_0N@JGPAHKGH@q?5?5c?5?$CDBBBB33?$AA@ 00471f1c     bncs_ws_mandialog.obj
 0003:00000f2c       ??_C@_0N@JJPINEEN@w?5?5c?5?$CDBEBE3C?$AA@ 00471f2c     bncs_ws_mandialog.obj
 0003:00000f3c       ??_C@_0N@LAPNNMOJ@e?5?5c?5?$CDC5C500?$AA@ 00471f3c     bncs_ws_mandialog.obj
 0003:00000f4c       ??_C@_0N@BJJENBDG@r?5?5c?5?$CDCECE00?$AA@ 00471f4c     bncs_ws_mandialog.obj
 0003:00000f5c       ??_C@_0N@NKAFDJDE@t?5?5c?5?$CDDADA00?$AA@ 00471f5c     bncs_ws_mandialog.obj
 0003:00000f6c       ??_C@_0N@LJDCPFMN@y?5?5c?5?$CDEBEB03?$AA@ 00471f6c     bncs_ws_mandialog.obj
 0003:00000f7c       ??_C@_0N@MLHDFMA@u?5?5c?5?$CDEBEB0C?$AA@ 00471f7c     bncs_ws_mandialog.obj
 0003:00000f8c       ??_C@_0N@FKLGEIEF@i?5?5c?5?$CDF3F301?$AA@ 00471f8c     bncs_ws_mandialog.obj
 0003:00000f9c       ??_C@_0N@PKALPFOL@p?5?5c?5?$CDFEFE01?$AA@ 00471f9c     bncs_ws_mandialog.obj
 0003:00000fac       ??_C@_0N@DLHJDHJP@a?5?5c?5?$CDF7F70A?$AA@ 00471fac     bncs_ws_mandialog.obj
 0003:00000fbc       ??_C@_0N@NEINMKNF@s?5?5c?5?$CDFCFC0F?$AA@ 00471fbc     bncs_ws_mandialog.obj
 0003:00000fcc       ??_C@_0N@HOODPHAA@d?5?5c?5?$CDE7E711?$AA@ 00471fcc     bncs_ws_mandialog.obj
 0003:00000fdc       ??_C@_0N@FIGHFINF@f?5?5c?5?$CDECEC13?$AA@ 00471fdc     bncs_ws_mandialog.obj
 0003:00000fec       ??_C@_0N@KGNHFAA@g?5?5c?5?$CDF4F412?$AA@ 00471fec     bncs_ws_mandialog.obj
 0003:00000ffc       ??_C@_0N@NEMJDECI@h?5?5c?5?$CDFCFC13?$AA@ 00471ffc     bncs_ws_mandialog.obj
 0003:0000100c       ??_C@_0N@JLKKPIJF@j?5?5c?5?$CDFCFC1C?$AA@ 0047200c     bncs_ws_mandialog.obj
 0003:0000101c       ??_C@_0N@OHNDFNJL@k?5?5c?5?$CDCBCB37?$AA@ 0047201c     bncs_ws_mandialog.obj
 0003:0000102c       ??_C@_0N@HAOKJECP@l?5?5c?5?$CDC4C43A?$AA@ 0047202c     bncs_ws_mandialog.obj
 0003:0000103c       ??_C@_0N@LGPBCKPG@z?5?5c?5?$CDCCCC3C?$AA@ 0047203c     bncs_ws_mandialog.obj
 0003:0000104c       ??_C@_0N@OEINMDDI@x?5?5c?5?$CDD2D23E?$AA@ 0047204c     bncs_ws_mandialog.obj
 0003:0000105c       ??_C@_0N@NCLCOMBJ@c?5?5c?5?$CDFCFC28?$AA@ 0047205c     bncs_ws_mandialog.obj
 0003:0000106c       ??_C@_0N@LMBGFJGK@v?5?5c?5?$CDFBFB35?$AA@ 0047206c     bncs_ws_mandialog.obj
 0003:0000107c       ??_C@_0N@CMMHGGGJ@b?5?5c?5?$CD888848?$AA@ 0047207c     bncs_ws_mandialog.obj
 0003:0000108c       ??_C@_0N@CPOENMMF@n?5?5c?5?$CD9B9B44?$AA@ 0047208c     bncs_ws_mandialog.obj
 0003:0000109c       ??_C@_0N@GLJJGGHK@m?5?5c?5?$CD9E9E4B?$AA@ 0047209c     bncs_ws_mandialog.obj
 0003:000010ac       ??_C@_0N@EILHAPAM@M?5?5c?5?$CD8D8D54?$AA@ 004720ac     bncs_ws_mandialog.obj
 0003:000010bc       ??_C@_0N@CMMLFPNM@N?5?5c?5?$CDA1A14A?$AA@ 004720bc     bncs_ws_mandialog.obj
 0003:000010cc       ??_C@_0N@PAKJPMLJ@B?5?5c?5?$CDAEAE4C?$AA@ 004720cc     bncs_ws_mandialog.obj
 0003:000010dc       ??_C@_0N@MHGHPOOG@V?5?5c?5?$CDB0B04A?$AA@ 004720dc     bncs_ws_mandialog.obj
 0003:000010ec       ??_C@_0N@FPHOLJKH@C?5?5c?5?$CDA4A454?$AA@ 004720ec     bncs_ws_mandialog.obj
 0003:000010fc       ??_C@_0N@IBKIBGKF@Z?5?5c?5?$CDA7A75B?$AA@ 004720fc     bncs_ws_mandialog.obj
 0003:0000110c       ??_C@_0N@OAIIIIH@A?5?5c?5?$CDAAAA5E?$AA@ 0047210c     bncs_ws_mandialog.obj
 0003:0000111c       ??_C@_0N@HNHFMFEP@S?5?5c?5?$CD8D8D6B?$AA@ 0047211c     bncs_ws_mandialog.obj
 0003:0000112c       ??_C@_0N@GKMGMOCB@D?5?5c?5?$CD98987C?$AA@ 0047212c     bncs_ws_mandialog.obj
 0003:0000113c       ??_C@_0N@CAAKBJLA@F?5?5c?5?$CDADAD64?$AA@ 0047213c     bncs_ws_mandialog.obj
 0003:0000114c       ??_C@_0N@LGOIOGLJ@G?5?5c?5?$CDAFAF68?$AA@ 0047214c     bncs_ws_mandialog.obj
 0003:0000115c       ??_C@_0N@PDGHFOJC@H?5?5c?5?$CDB0B067?$AA@ 0047215c     bncs_ws_mandialog.obj
 0003:0000116c       ??_C@_0N@DPKJDOKL@J?5?5c?5?$CDB2B26C?$AA@ 0047216c     bncs_ws_mandialog.obj
 0003:0000117c       ??_C@_0N@NMGCKKM@K?5?5c?5?$CDB4B471?$AA@ 0047217c     bncs_ws_mandialog.obj
 0003:0000118c       ??_C@_0N@COAMFPA@L?5?5c?5?$CDB8B876?$AA@ 0047218c     bncs_ws_mandialog.obj
 0003:0000119c       ??_C@_0N@KDMOINPN@P?5?5c?5?$CDBCBC7C?$AA@ 0047219c     bncs_ws_mandialog.obj
 0003:000011ac       ??_C@_0N@INMNJPKG@I?5?5c?5?$CDCDCD40?$AA@ 004721ac     bncs_ws_mandialog.obj
 0003:000011bc       ??_C@_0N@FAFEACEB@U?5?5c?5?$CDD3D344?$AA@ 004721bc     bncs_ws_mandialog.obj
 0003:000011cc       ??_C@_0N@HPAEBNOF@Y?5?5c?5?$CDDADA46?$AA@ 004721cc     bncs_ws_mandialog.obj
 0003:000011dc       ??_C@_0N@FPHPMEAI@T?5?5c?5?$CDD6D649?$AA@ 004721dc     bncs_ws_mandialog.obj
 0003:000011ec       ??_C@_0N@CNEEEGHF@R?5?5c?5?$CDDCDC4C?$AA@ 004721ec     bncs_ws_mandialog.obj
 0003:000011fc       ??_C@_0N@LMJCLHF@E?5?5c?5?$CDDEDE51?$AA@ 004721fc     bncs_ws_mandialog.obj
 0003:0000120c       ??_C@_0N@OONLGJHJ@W?5?5c?5?$CDE2E24E?$AA@ 0047220c     bncs_ws_mandialog.obj
 0003:0000121c       ??_C@_0N@IKOKCIOF@Q?5?5c?5?$CDE4E454?$AA@ 0047221c     bncs_ws_mandialog.obj
 0003:0000122c       ??_C@_0N@GHPBKOCD@?$CB?5?5c?5?$CDE9E955?$AA@ 0047222c     bncs_ws_mandialog.obj
 0003:0000123c       ??_C@_0N@MBLBENOJ@?$HO?5?5c?5?$CDE5E558?$AA@ 0047223c     bncs_ws_mandialog.obj
 0003:0000124c       ??_C@_0N@DEDAIGPM@?$FO?5?5c?5?$CDECEC5B?$AA@ 0047224c     bncs_ws_mandialog.obj
 0003:0000125c       ??_C@_0N@PEJMCAOL@?1?5?5c?5?$CDF1F15D?$AA@ 0047225c     bncs_ws_mandialog.obj
 0003:0000126c       ??_C@_0N@LHBDPLJE@?$CI?5?5c?5?$CDD3D365?$AA@ 0047226c     bncs_ws_mandialog.obj
 0003:0000127c       ??_C@_0N@BDIDLOAN@?$CJ?5?5c?5?$CDDCDC64?$AA@ 0047227c     bncs_ws_mandialog.obj
 0003:0000128c       ??_C@_0N@HGDLPCFF@_?5?5c?5?$CDEDED60?$AA@ 0047228c     bncs_ws_mandialog.obj
 0003:0000129c       ??_C@_0N@CEALMCFL@?$GA?5?5c?5?$CDF4F464?$AA@ 0047229c     bncs_ws_mandialog.obj
 0003:000012ac       ??_C@_0N@DIPNBCGF@?8?5?5c?5?$CD8A8A87?$AA@ 004722ac     bncs_ws_mandialog.obj
 0003:000012bc       ??_C@_0M@OFBNPEMJ@?$FN?5?5c?5gray59?$AA@ 004722bc     bncs_ws_mandialog.obj
 0003:000012cc       ??_C@_0N@LHDNHDBL@?$FL?5?5c?5?$CD9D9D9B?$AA@ 004722cc     bncs_ws_mandialog.obj
 0003:000012dc       ??_C@_0N@MKABHGCB@?$HL?5?5c?5?$CDBCBC82?$AA@ 004722dc     bncs_ws_mandialog.obj
 0003:000012ec       ??_C@_0N@IOBOLMOL@?$HN?5?5c?5?$CDB6B689?$AA@ 004722ec     bncs_ws_mandialog.obj
 0003:000012fc       ??_C@_0N@FEIGKJLC@?$HM?5?5c?5?$CDBCBC89?$AA@ 004722fc     bncs_ws_mandialog.obj
 0003:0000130c       ??_C@_0N@LCLJBHBK@?5?4?5c?5?$CDBFBF93?$AA@ 0047230c     bncs_ws_mandialog.obj
 0003:0000131c       ??_C@_0N@ODCJIGNC@?4?4?5c?5?$CDA4A4A3?$AA@ 0047231c     bncs_ws_mandialog.obj
 0003:0000132c       ??_C@_0N@NDKACLIM@X?4?5c?5?$CDA9A9A7?$AA@ 0047232c     bncs_ws_mandialog.obj
 0003:0000133c       ??_C@_0N@CGDJJHNH@o?4?5c?5?$CDABABAB?$AA@ 0047233c     bncs_ws_mandialog.obj
 0003:0000134c       ??_C@_0N@GBPIEIFL@O?4?5c?5?$CDB5B5B5?$AA@ 0047234c     bncs_ws_mandialog.obj
 0003:0000135c       ??_C@_0N@CPADLCPO@?$CL?4?5c?5?$CDBBBBBB?$AA@ 0047235c     bncs_ws_mandialog.obj
 0003:0000136c       ??_C@_0N@JAAKIHKN@?$EA?4?5c?5?$CDC1C185?$AA@ 0047236c     bncs_ws_mandialog.obj
 0003:0000137c       ??_C@_0N@LNJHIGMN@?$CD?4?5c?5?$CDC3C38C?$AA@ 0047237c     bncs_ws_mandialog.obj
 0003:0000138c       ??_C@_0N@DGAGHMFG@$?4?5c?5?$CDC5C590?$AA@ 0047238c     bncs_ws_mandialog.obj
 0003:0000139c       ??_C@_0N@CAHCFDEM@?$CF?4?5c?5?$CDCBCB93?$AA@ 0047239c     bncs_ws_mandialog.obj
 0003:000013ac       ??_C@_0N@DPLNKKHF@?$CG?4?5c?5?$CDCACA9B?$AA@ 004723ac     bncs_ws_mandialog.obj
 0003:000013bc       ??_C@_0N@CGLMIBAN@?$CK?4?5c?5?$CDD2D29B?$AA@ 004723bc     bncs_ws_mandialog.obj
 0003:000013cc       ??_C@_0N@KBFAJMAG@?$DN?4?5c?5?$CDF1F183?$AA@ 004723cc     bncs_ws_mandialog.obj
 0003:000013dc       ??_C@_0N@LJFKIAIJ@?9?4?5c?5?$CDCECEA2?$AA@ 004723dc     bncs_ws_mandialog.obj
 0003:000013ec       ??_C@_0N@JPJIKFAL@?$DL?4?5c?5?$CDD4D4A4?$AA@ 004723ec     bncs_ws_mandialog.obj
 0003:000013fc       ??_C@_0N@BFOBIGMM@?3?4?5c?5?$CDD9D9A5?$AA@ 004723fc     bncs_ws_mandialog.obj
 0003:0000140c       ??_C@_0N@HLAAMAGJ@?$DO?4?5c?5?$CDD3D3AB?$AA@ 0047240c     bncs_ws_mandialog.obj
 0003:0000141c       ??_C@_0N@NHAHBHFE@?0?4?5c?5?$CDD6D6B0?$AA@ 0047241c     bncs_ws_mandialog.obj
 0003:0000142c       ??_C@_0N@LHECOHEI@?$DM?4?5c?5?$CDD9D9B5?$AA@ 0047242c     bncs_ws_mandialog.obj
 0003:0000143c       ??_C@_0N@ENMLLCJI@1?4?5c?5?$CDDBDBBB?$AA@ 0047243c     bncs_ws_mandialog.obj
 0003:0000144c       ??_C@_0N@GMAOJJBD@2?4?5c?5?$CDC4C4C4?$AA@ 0047244c     bncs_ws_mandialog.obj
 0003:0000145c       ??_C@_0N@CIDCDLLK@3?4?5c?5?$CDCCCCCB?$AA@ 0047245c     bncs_ws_mandialog.obj
 0003:0000146c       ??_C@_0N@EBMHJEMI@4?4?5c?5?$CDDFDFC1?$AA@ 0047246c     bncs_ws_mandialog.obj
 0003:0000147c       ??_C@_0N@GDLFGLFA@5?4?5c?5?$CDD4D4D4?$AA@ 0047247c     bncs_ws_mandialog.obj
 0003:0000148c       ??_C@_0N@DEDFMIHC@6?4?5c?5?$CDDBDBDB?$AA@ 0047248c     bncs_ws_mandialog.obj
 0003:0000149c       ??_C@_0N@MIJEOJJJ@7?4?5c?5?$CDE1E1C6?$AA@ 0047249c     bncs_ws_mandialog.obj
 0003:000014ac       ??_C@_0N@MDKEOBNP@8?4?5c?5?$CDE4E4CB?$AA@ 004724ac     bncs_ws_mandialog.obj
 0003:000014bc       ??_C@_0N@ILEONJKK@9?4?5c?5?$CDE7E7D1?$AA@ 004724bc     bncs_ws_mandialog.obj
 0003:000014cc       ??_C@_0N@LCGCAAAF@0?4?5c?5?$CDE9E9D5?$AA@ 004724cc     bncs_ws_mandialog.obj
 0003:000014dc       ??_C@_0N@KAEPODED@q?4?5c?5?$CDEEEEDE?$AA@ 004724dc     bncs_ws_mandialog.obj
 0003:000014ec       ??_C@_0N@CELBAHID@w?4?5c?5?$CDE4E4E4?$AA@ 004724ec     bncs_ws_mandialog.obj
 0003:000014fc       ??_C@_0N@BDFKBFML@e?4?5c?5?$CDEFEFE0?$AA@ 004724fc     bncs_ws_mandialog.obj
 0003:0000150c       ??_C@_0N@LJCPPOPN@r?4?5c?5?$CDECECEC?$AA@ 0047250c     bncs_ws_mandialog.obj
 0003:0000151c       ??_C@_0N@JBDLFLMA@t?4?5c?5?$CDF1F1E5?$AA@ 0047251c     bncs_ws_mandialog.obj
 0003:0000152c       ??_C@_0N@LLIBDAIP@y?4?5c?5?$CDF5F5EC?$AA@ 0047252c     bncs_ws_mandialog.obj
 0003:0000153c       ??_C@_0N@JIGDJDJL@u?4?5c?5?$CDF6F6F3?$AA@ 0047253c     bncs_ws_mandialog.obj
 0003:0000154c       ??_C@_0N@BPOLCODJ@i?4?5c?5?$CDF9F9F3?$AA@ 0047254c     bncs_ws_mandialog.obj
 0003:0000155c       ??_C@_0N@JMDEFDKF@p?4?5c?5?$CDFFFFFE?$AA@ 0047255c     bncs_ws_mandialog.obj
 0003:0000156c       ??_C@_09PCKCOIFL@a?4?5c?5None?$AA@ 0047256c     bncs_ws_mandialog.obj
 0003:00001578       ??_C@_0EB@MJEOKEMK@a?4a?4a?4a?4a?4a?4?$DN?4?$GA?5?$GA?5?1?5?$GA?5?$GA?5?$GA?5?$GA?5?$GA?5?1?5@ 00472578     bncs_ws_mandialog.obj
 0003:000015c8       ??_C@_0EB@EOIEOOPC@a?4a?4a?4a?4a?4?$DN?4v?5s?5f?5u?5i?5y?5y?5u?5u?5y?5@ 004725c8     bncs_ws_mandialog.obj
 0003:00001618       ??_C@_0EB@NNIGMJBF@a?4a?4a?4a?4?$DN?4c?5h?5?9?5?$EA?5?$CG?5?$CG?5X?5?$EA?5?$CG?5?$CG?5?$EA?5@ 00472618     bncs_ws_mandialog.obj
 0003:00001668       ??_C@_0EB@CHCKMNEG@a?4a?4a?4?$DN?4j?5a?5?9?5X?5?4?5?$CG?5?$CG?5?4?5?$CG?5?$CG?5?$CG?5?$CG?5@ 00472668     bncs_ws_mandialog.obj
 0003:000016b8       ??_C@_0EB@KEAJMFCH@a?4a?4?$DN?4j?5i?5?9?5?$CG?5?$CG?5?$CG?5?$CG?5O?5?4?5?$CG?5?$EA?5?$CG?5?$CG?5@ 004726b8     bncs_ws_mandialog.obj
 0003:00001708       ??_C@_0EB@CEDEONNH@a?4?$DN?4h?5i?5?$CD?5?$CG?5?$CG?5X?5?$EA?5?$CG?5?$CG?5X?5?$CG?5?$EA?5X?5?$CG?5@ 00472708     bncs_ws_mandialog.obj
 0003:00001758       ??_C@_0EB@DPGJDOJH@?$DN?4h?5i?5?$CL?5X?5?$CG?5?$EA?5?4?5?4?5?$CG?5?$CG?5?$EA?5?$CG?5?4?5?4?5?$CG?5@ 00472758     bncs_ws_mandialog.obj
 0003:000017a8       ??_C@_0EB@HBPOALFF@?$GA?5p?5?$CL?5?4?5?$EA?5?$CG?5?$EA?5X?5?$EA?5?$CG?5?$EA?5?$CG?5?$CG?5?4?5?4?5?$CG?5@ 004727a8     bncs_ws_mandialog.obj
 0003:000017f8       ??_C@_0EB@BLFOCPBB@?$GA?5i?5?4?5?$CK?5q?4e?4m?5?$CG?5?$EA?5X?5?4?5?$CG?5?$EA?5?$DO?4q?4L?5@ 004727f8     bncs_ws_mandialog.obj
 0003:00001848       ??_C@_0EB@GMOKCKGI@?$GA?5i?5?4?5?$CG?5p?4p?4N?5?4?5?4?5?4?5?4?5?4?5?4?50?4p?4K?5@ 00472848     bncs_ws_mandialog.obj
 0003:00001898       ??_C@_0EB@PEADLCKI@?$GA?5i?5?4?5?4?5p?4p?4C?5?4?5?4?5?4?5?4?5?4?5?4?5q?4i?4H?5@ 00472898     bncs_ws_mandialog.obj
 0003:000018e8       ??_C@_0EB@MELMLDJE@?$GA?5i?5?4?5?4?5i?4p?4A?5?4?5?4?5?4?5?4?5?4?5?4?5y?4p?4C?5@ 004728e8     bncs_ws_mandialog.obj
 0003:00001938       ??_C@_0EB@PCGOKMD@?$GA?5i?5?4?5?4?5r?4p?4G?5?4?5?$CG?5?$CD?4Z?5?4?5?4?5i?4p?4n?5@ 00472938     bncs_ws_mandialog.obj
 0003:00001988       ??_C@_0EB@KMDGKMLD@?$GA?5i?5?4?5?4?50?4p?4K?5?4?5G?5p?4y?4?4?5?4?5i?4p?47?5@ 00472988     bncs_ws_mandialog.obj
 0003:000019d8       ??_C@_0EB@IDCBNOBD@?$GA?5i?5?4?5?4?57?4p?4P?5?4?5?$DM?4p?4p?47?5X?5p?4p?42?5@ 004729d8     bncs_ws_mandialog.obj
 0003:00001a28       ??_C@_0EB@BIMBNGO@?$GA?5i?5?4?5?4?51?4p?4?$HL?5?$EA?5i?4p?4p?4?$CD?4?$EA?5p?4p?4?$DN?5@ 00472a28     bncs_ws_mandialog.obj
 0003:00001a78       ??_C@_0EB@KDOGLICH@_?5i?5?4?5?4?5?$DO?4p?4?$CD?4C?5p?4q?4p?40?4?$DN?5p?4p?4X?5@ 00472a78     bncs_ws_mandialog.obj
 0003:00001ac8       ??_C@_0EB@NKNLPKHO@_?5i?5?4?5?4?5?$CG?4p?4?$CG?4?9?4p?4C?5p?4p?4m?5p?4p?4?4?5@ 00472ac8     bncs_ws_mandialog.obj
 0003:00001b18       ??_C@_0EB@IGPHIP@?$FO?5i?5?4?5?4?5?$CD?4p?4?9?4y?4i?4X?54?4p?4?$CG?4p?4y?4?4?5@ 00472b18     bncs_ws_mandialog.obj
 0003:00001b68       ??_C@_0EB@PNOAMIFJ@?$FO?5i?5?4?5?4?5?$HL?5p?4t?4p?4?$DL?4?4?5J?5p?4t?4p?4q?4?4?5@ 00472b68     bncs_ws_mandialog.obj
 0003:00001bb8       ??_C@_0EB@PHDHJMBO@?$HO?5i?5?4?5?4?5K?5p?4p?4p?4C?5?4?5?$DN?5p?4p?4p?49?4X?5@ 00472bb8     bncs_ws_mandialog.obj
 0003:00001c08       ??_C@_0EB@NAJMAMEB@Q?5i?5?4?5?4?5G?5p?4p?4i?4X?5?4?5?4?57?4p?4p?44?4?$CG?5@ 00472c08     bncs_ws_mandialog.obj
 0003:00001c58       ??_C@_0EB@KGFKAODG@E?5i?5?4?5?4?52?5P?5L?5A?5?4?5X?5X?5m?5?$HL?5?$HL?5G?5?$DM?5@ 00472c58     bncs_ws_mandialog.obj
 0003:00001ca8       ??_C@_0EB@FPAHHEP@R?5y?5?4?5?4?5?4?5?4?5?4?5X?5X?5o?5o?5?$DN?5?$CK?5?$DM?52?52?5@ 00472ca8     bncs_ws_mandialog.obj
 0003:00001cf8       ??_C@_0EB@GDLKGDJL@R?5i?5?4?5?4?5?4?5X?5o?5o?5o?5?$DM?5?$DM?5?$DM?52?55?56?56?5@ 00472cf8     bncs_ws_mandialog.obj
 0003:00001d48       ??_C@_0EB@HOPIGDHE@T?5i?5X?5X?5o?5o?5?$CK?5?$DM?5?$DM?5?$DM?54?5b?5?$FL?5?4?4S?5N?5@ 00472d48     bncs_ws_mandialog.obj
 0003:00001d98       ??_C@_0EB@NDAMMNGA@U?5i?5o?5o?5?$CK?5?$DM?5?$DM?52?54?54?5b?5M?52?45?4?8?5A?5@ 00472d98     bncs_ws_mandialog.obj
 0003:00001de8       ??_C@_0EB@BAIJPGAK@I?5d?5?8?5?$FL?5?$FL?5?$FL?5?$FL?5?$FL?5?4?4X?4X?4o?45?45?4O?4O?4@ 00472de8     bncs_ws_mandialog.obj
 0003:00001e38       ??_C@_0EB@CLGLHLPL@I?5d?5o?42?42?43?43?43?43?45?45?45?46?46?4w?4w?4@ 00472e38     bncs_ws_mandialog.obj
 0003:00001e88       ??_C@_0EB@GHBPABDJ@I?5d?5?$FN?5X?4o?4o?4O?4O?4O?4?$CL?4?$CL?4?$DO?42?42?43?43?4@ 00472e88     bncs_ws_mandialog.obj
 0003:00001ed8       ??_C@_0EB@PHDINMNK@l?5p?5f?5f?5f?5f?5f?5f?5f?5f?5f?5f?5f?5f?5f?5f?5@ 00472ed8     bncs_ws_mandialog.obj
 0003:00001f28       ??_C@_0EB@OFAFOAE@B?5w?5q?59?59?59?58?58?5?0?53?58?5?9?5?9?5?9?5$?5$?5@ 00472f28     bncs_ws_mandialog.obj
 0003:00001f78       ??_C@_15GANGMFKL@?$AA?$CF?$AAs?$AA?$AA@ 00472f78     bncs_ws_mandialog.obj
 0003:00001f80       ??_C@_04LOAJBDKD@true?$AA@ 00472f80     bncs_ws_mandialog.obj
 0003:00001f8c       ??_7error_category@std@@6B@ 00472f8c     bncs_ws_mandialog.obj
 0003:00001fb0       ??_7_Generic_error_category@std@@6B@ 00472fb0     bncs_ws_mandialog.obj
 0003:00001fd0       ??_C@_07DCLBNMLN@generic?$AA@ 00472fd0     bncs_ws_mandialog.obj
 0003:00001fdc       ??_C@_0O@BFJCFAAK@unknown?5error?$AA@ 00472fdc     bncs_ws_mandialog.obj
 0003:00001ff0       ??_7_Iostream_error_category@std@@6B@ 00472ff0     bncs_ws_mandialog.obj
 0003:00002010       ??_C@_08LLGCOLLL@iostream?$AA@ 00473010     bncs_ws_mandialog.obj
 0003:0000201c       ??_C@_0BG@PADBLCHM@iostream?5stream?5error?$AA@ 0047301c     bncs_ws_mandialog.obj
 0003:0000203c       ??_7_System_error_category@std@@6B@ 0047303c     bncs_ws_mandialog.obj
 0003:0000205c       ??_C@_06FHFOAHML@system?$AA@ 0047305c     bncs_ws_mandialog.obj
 0003:00002068       ??_7bncs_ws_manDialog@@6BQObject@@@ 00473068     bncs_ws_mandialog.obj
 0003:000022ec       ??_7bncs_ws_manDialog@@6BQPaintDevice@@@ 004732ec     bncs_ws_mandialog.obj
 0003:00002314       ??_C@_0N@ENLBDDCH@CC_DEVELOPER?$AA@ 00473314     bncs_ws_mandialog.obj
 0003:00002324       ??_C@_05CEHLIBAJ@?9TEST?$AA@ 00473324     bncs_ws_mandialog.obj
 0003:0000232c       ??_C@_05EODGNIGB@?9LOAD?$AA@ 0047332c     bncs_ws_mandialog.obj
 0003:00002334       ??_C@_0BK@LNANHAID@Unrecognized?5option?5?8?$CF1?8?4?$AA@ 00473334     bncs_ws_mandialog.obj
 0003:00002354       ??_C@_0BK@DKAEALOG@Workstation?5Manager?5Error?$AA@ 00473354     bncs_ws_mandialog.obj
 0003:00002374       ??_C@_0BP@CKFKNPGJ@1UpdateAndRestartButtonClick?$CI?$CJ?$AA@ 00473374     bncs_ws_mandialog.obj
 0003:0000239c       ??_C@_0L@OELOHDKG@2clicked?$CI?$CJ?$AA@ 0047339c     bncs_ws_mandialog.obj
 0003:000023ac       ??_C@_0BG@FJIAHHMN@1RestartButtonClick?$CI?$CJ?$AA@ 004733ac     bncs_ws_mandialog.obj
 0003:000023c8       ??_C@_0BD@EBJEPJLK@1StopButtonClick?$CI?$CJ?$AA@ 004733c8     bncs_ws_mandialog.obj
 0003:000023e0       ??_C@_0BB@MIFEODEC@1showLogViewer?$CI?$CJ?$AA@ 004733e0     bncs_ws_mandialog.obj
 0003:000023f4       ??_C@_08MEDCBHAF@1quit?$CI?5?$CJ?$AA@ 004733f4     bncs_ws_mandialog.obj
 0003:00002400       ??_C@_0N@KCMOKDBB@2activated?$CI?$CJ?$AA@ 00473400     bncs_ws_mandialog.obj
 0003:00002410       ??_C@_0BE@GAGCGKAP@1StopButtonClick?$CI?5?$CJ?$AA@ 00473410     bncs_ws_mandialog.obj
 0003:00002428       ??_C@_0BH@KOBLJKBO@1RestartButtonClick?$CI?5?$CJ?$AA@ 00473428     bncs_ws_mandialog.obj
 0003:00002444       ??_C@_0CA@HPNDCHEH@1UpdateAndRestartButtonClick?$CI?5?$CJ?$AA@ 00473444     bncs_ws_mandialog.obj
 0003:0000246c       ??_C@_0P@LJKIIEFE@1slotOpenCmd?$CI?$CJ?$AA@ 0047346c     bncs_ws_mandialog.obj
 0003:00002480       ??_C@_0BB@JAABPEBB@1slotOpenVisEd?$CI?$CJ?$AA@ 00473480     bncs_ws_mandialog.obj
 0003:00002494       ??_C@_0BE@ODAKHNEA@1slotOpenV3Caplog?$CI?$CJ?$AA@ 00473494     bncs_ws_mandialog.obj
 0003:000024ac       ??_C@_0BF@KOECFFIN@1slotOpenNetViewer?$CI?$CJ?$AA@ 004734ac     bncs_ws_mandialog.obj
 0003:000024c8       ??_C@_0BG@FMEDJGPE@1programSelect?$CI?5int?5?$CJ?$AA@ 004734c8     bncs_ws_mandialog.obj
 0003:000024e4       ??_C@_0CC@JKIDPDCA@Stop?5without?5clearing?5launch?5lis@ 004734e4     bncs_ws_mandialog.obj
 0003:0000250c       ??_C@_0CI@KAGCFNNK@Stop?5?$CIif?5running?$CJ?5?$CG?$CG?5reload?5laun@ 0047350c     bncs_ws_mandialog.obj
 0003:0000253c       ??_C@_0DA@FEMCLGM@Stop?5?$CIif?5running?$CJ?0?5resync?5?$CG?$CG?5rel@ 0047353c     bncs_ws_mandialog.obj
 0003:00002578       ??_C@_0CG@OHCFGFKM@Restart?5without?5reloading?5launch@ 00473578     bncs_ws_mandialog.obj
 0003:000025a8       ??_C@_0P@MCACDBOL@1AboutClick?$CI?5?$CJ?$AA@ 004735a8     bncs_ws_mandialog.obj
 0003:000025bc       ??_C@_0N@GLEJDIMA@1doStop?$CIint?$CJ?$AA@ 004735bc     bncs_ws_mandialog.obj
 0003:000025cc       ??_C@_0L@CHGDPIA@2stop?$CIint?$CJ?$AA@ 004735cc     bncs_ws_mandialog.obj
 0003:000025dc       ??_C@_0O@JMDPEEIO@1doStart?$CIint?$CJ?$AA@ 004735dc     bncs_ws_mandialog.obj
 0003:000025ec       ??_C@_0M@OKIKDKBJ@2start?$CIint?$CJ?$AA@ 004735ec     bncs_ws_mandialog.obj
 0003:000025fc       ??_C@_0BA@BBKKEJLH@1doRestart?$CIint?$CJ?$AA@ 004735fc     bncs_ws_mandialog.obj
 0003:00002610       ??_C@_0O@JIBHHPOE@2restart?$CIint?$CJ?$AA@ 00473610     bncs_ws_mandialog.obj
 0003:00002620       ??_C@_0CI@EGPDOCM@Workstation?5Manager?5?9?5Version?5?$CF1@ 00473620     bncs_ws_mandialog.obj
 0003:00002650       ??_C@_0CO@DKMPEGDF@start?5timer?5event?4?5launch?5stoppi@ 00473650     bncs_ws_mandialog.obj
 0003:00002688       ??_C@_0DL@OONAEFIA@Waited?5ten?5times?5for?5stop?5but?5no@ 00473688     bncs_ws_mandialog.obj
 0003:000026d0       ??_C@_0CA@IJHLKMEH@start?5timer?5event?4?5no?5launcher?4?$AA@ 004736d0     bncs_ws_mandialog.obj
 0003:000026f8       ??_C@_0P@LMIBIGPC@CC_SERVER_ROOT?$AA@ 004736f8     bncs_ws_mandialog.obj
 0003:0000270c       ??_C@_0CG@CBGKIABH@No?5CC_SERVER_ROOT?5environment?5se@ 0047370c     bncs_ws_mandialog.obj
 0003:00002740       ??_C@_0EK@KMDCILFL@Can?8t?5run?5workstation?5manager?5CC@ 00473740     bncs_ws_mandialog.obj
 0003:00002798       ??_C@_07JBEBLGDD@CC_ROOT?$AA@ 00473798     bncs_ws_mandialog.obj
 0003:000027a4       ??_C@_0BP@HCONNJIK@No?5CC_ROOT?5environment?5setting?$AA@ 004737a4     bncs_ws_mandialog.obj
 0003:000027d0       ??_C@_0ED@MKDMJMKE@Can?8t?5run?5workstation?5manager?5CC@ 004737d0     bncs_ws_mandialog.obj
 0003:00002820       ??_C@_09DDAHAMBK@CC_SYSTEM?$AA@ 00473820     bncs_ws_mandialog.obj
 0003:0000282c       ??_C@_0CB@MBIIAEOC@No?5CC_SYSTEM?5environment?5setting@ 0047382c     bncs_ws_mandialog.obj
 0003:00002858       ??_C@_0EF@IEIICIOE@Can?8t?5run?5workstation?5manager?5CC@ 00473858     bncs_ws_mandialog.obj
 0003:000028ac       ??_C@_01KMDKNFGN@?1?$AA@   004738ac     bncs_ws_mandialog.obj
 0003:000028b0       ??_C@_0L@OKFIEGJM@?$CF1?2?$CF2?2temp?$AA@ 004738b0     bncs_ws_mandialog.obj
 0003:000028c0       ??_C@_0L@EFPEPNKG@?$CF1?2?$CF2?2data?$AA@ 004738c0     bncs_ws_mandialog.obj
 0003:000028d0       ??_C@_0L@PDMPKMKO@?$CF1?2?$CF2?2logs?$AA@ 004738d0     bncs_ws_mandialog.obj
 0003:000028e0       ??_C@_08JACIFJBK@OSPL_URI?$AA@ 004738e0     bncs_ws_mandialog.obj
 0003:000028ec       ??_C@_0CK@BBMKCEBJ@OSPL_URI?$DNfile?3?1?1?$CF1?1?$CF2?1config?1dds@ 004738ec     bncs_ws_mandialog.obj
 0003:00002920       ??_C@_01KICIPPFI@?2?$AA@   00473920     bncs_ws_mandialog.obj
 0003:00002924       ??_C@_0P@OIAKINBL@ADLINK_LICENSE?$AA@ 00473924     bncs_ws_mandialog.obj
 0003:00002938       ??_C@_0CM@PHADPHJA@ADLINK_LICENSE?$DN?$CF1?2?$CF2?2config?2dds?2@ 00473938     bncs_ws_mandialog.obj
 0003:0000296c       ??_C@_0BL@NADOEGOA@Starting?5File?9Sync?5Process?$AA@ 0047396c     bncs_ws_mandialog.obj
 0003:0000298c       ??_C@_0BJ@OPNJFLBA@Starting?5No?9Sync?5Process?$AA@ 0047398c     bncs_ws_mandialog.obj
 0003:000029ac       ??_C@_0M@DBBGGCOO@1doLaunch?$CI?$CJ?$AA@ 004739ac     bncs_ws_mandialog.obj
 0003:000029bc       ??_C@_0M@BMAHFEDH@2finished?$CI?$CJ?$AA@ 004739bc     bncs_ws_mandialog.obj
 0003:000029cc       ??_C@_0BG@LJMEJNMD@1setStatus?$CI?5QString?5?$CJ?$AA@ 004739cc     bncs_ws_mandialog.obj
 0003:000029e8       ??_C@_0BG@IALMDAID@2setStatus?$CI?5QString?5?$CJ?$AA@ 004739e8     bncs_ws_mandialog.obj
 0003:00002a04       ??_C@_0BB@HECEFMLB@About?5to?5Restart?$AA@ 00473a04     bncs_ws_mandialog.obj
 0003:00002a18       ??_C@_0BG@LLBOOGDA@Sync?5Process?5finished?$AA@ 00473a18     bncs_ws_mandialog.obj
 0003:00002a34       ??_C@_09PODAFOJP@Sync?5Done?$AA@ 00473a34     bncs_ws_mandialog.obj
 0003:00002a40       ??_C@_0P@PKHJHOPF@CC_WORKSTATION?$AA@ 00473a40     bncs_ws_mandialog.obj
 0003:00002a54       ??_C@_0DM@MACMCGLC@Workstation?5Manager?5?9?5Version?5?$CF1@ 00473a54     bncs_ws_mandialog.obj
 0003:00002a9c       ??_C@_0BE@HHIGOMMJ@reallocate?5Launcher?$AA@ 00473a9c     bncs_ws_mandialog.obj
 0003:00002ab4       ??_C@_0N@IFAOJIKD@1doRestart?$CI?$CJ?$AA@ 00473ab4     bncs_ws_mandialog.obj
 0003:00002ac4       ??_C@_0L@OMDBJPOD@2restart?$CI?$CJ?$AA@ 00473ac4     bncs_ws_mandialog.obj
 0003:00002ad4       ??_C@_0CJ@MBELPKJI@1statusChange?$CIworkstationStatus?3@ 00473ad4     bncs_ws_mandialog.obj
 0003:00002b08       ??_C@_0CJ@KJEMCKNA@2stateChanged?$CIworkstationStatus?3@ 00473b08     bncs_ws_mandialog.obj
 0003:00002b3c       ??_C@_08LPOBGBL@1close?$CI?$CJ?$AA@ 00473b3c     bncs_ws_mandialog.obj
 0003:00002b48       ??_C@_08DCHDCKNO@2close?$CI?$CJ?$AA@ 00473b48     bncs_ws_mandialog.obj
 0003:00002b54       ??_C@_0O@GGBEFAAE@load?5Launcher?$AA@ 00473b54     bncs_ws_mandialog.obj
 0003:00002b64       ??_C@_0BM@IGGKNGCG@finish?5when?5launcher?5loaded?$AA@ 00473b64     bncs_ws_mandialog.obj
 0003:00002b88       ??_C@_0BK@KEIIJFPO@Sync?5Process?5finished?4?5go?$AA@ 00473b88     bncs_ws_mandialog.obj
 0003:00002ba8       ??_C@_0N@DMALALNN@Launching?4?4?4?$AA@ 00473ba8     bncs_ws_mandialog.obj
 0003:00002bb8       ??_C@_0N@MGOHBJDA@Not?5Starting?$AA@ 00473bb8     bncs_ws_mandialog.obj
 0003:00002bc8       ??_C@_0CE@NNEAJKPL@doRestart?4?5Launcher?5exists?5so?5st@ 00473bc8     bncs_ws_mandialog.obj
 0003:00002bf4       ??_C@_0DA@DOMGKAII@doRestart?4?5Launcher?5doesn?8t?5exis@ 00473bf4     bncs_ws_mandialog.obj
 0003:00002c30       ??_C@_1JC@KDEOFKBF@?$AAc?$AA?3?$AA?2?$AAb?$AAn?$AAc?$AAs?$AA?2?$AAc?$AAo?$AAr?$AAe?$AA_?$AAs?$AAy?$AAs?$AAt?$AAe?$AAm?$AA?2?$AAs?$AAo?$AAu?$AAr?$AAc?$AAe?$AA?2?$AAw?$AAi?$AAn?$AAd?$AAo@ 00473c30     bncs_ws_mandialog.obj
 0003:00002ce0       ??_C@_0CF@FJCHEOF@doStop?4?5Launcher?5exists?5so?5stop?5@ 00473ce0     bncs_ws_mandialog.obj
 0003:00002d0c       ??_C@_0DG@JGCFOCJE@doStop?4?5Launcher?5doesn?8t?5exist?5s@ 00473d0c     bncs_ws_mandialog.obj
 0003:00002d4c       ??_C@_08DEJGAPAI@startAll?$AA@ 00473d4c     bncs_ws_mandialog.obj
 0003:00002d58       ??_C@_0M@BKAOIE@start?5timer?$AA@ 00473d58     bncs_ws_mandialog.obj
 0003:00002d68       ??_C@_0BA@FHIEPMBO@statusChange?5?$CFd?$AA@ 00473d68     bncs_ws_mandialog.obj
 0003:00002d7c       ??_C@_02PIGFKFFE@?$CF1?$AA@ 00473d7c     bncs_ws_mandialog.obj
 0003:00002d80       ??_C@_06IBHKBEGE@Errors?$AA@ 00473d80     bncs_ws_mandialog.obj
 0003:00002d88       ??_C@_0BP@FPPDIOMD@Errors?4?5finish?5because?5started?$AA@ 00473d88     bncs_ws_mandialog.obj
 0003:00002db0       ??_C@_07JKJCPGE@Running?$AA@ 00473db0     bncs_ws_mandialog.obj
 0003:00002dbc       ??_C@_0CA@CIFFGPNA@Running?4?5finish?5because?5started?$AA@ 00473dbc     bncs_ws_mandialog.obj
 0003:00002de4       ??_C@_08NLOGHLEJ@Stopping?$AA@ 00473de4     bncs_ws_mandialog.obj
 0003:00002df0       ??_C@_07HNJBHKDP@Stopped?$AA@ 00473df0     bncs_ws_mandialog.obj
 0003:00002dfc       ??_C@_0CA@JNBIOEO@Stopped?4?5finish?5because?5stopped?$AA@ 00473dfc     bncs_ws_mandialog.obj
 0003:00002e24       ??_C@_0CN@PBAILHMO@Stopped?4?5delete?5Launcher?4?5launch@ 00473e24     bncs_ws_mandialog.obj
 0003:00002e5c       ??_C@_0CJ@JHAJHNFB@Stopped?4?5finish?5because?5launcher@ 00473e5c     bncs_ws_mandialog.obj
 0003:00002e90       ??_C@_0BA@KMOEKAOL@Restart?5pending?$AA@ 00473e90     bncs_ws_mandialog.obj
 0003:00002ea4       ??_C@_0BB@NHIHLBME@Stop?5For?5Restart?$AA@ 00473ea4     bncs_ws_mandialog.obj
 0003:00002eb8       ??_C@_0BO@COJIFJMG@Restart?5with?5delay?5?$CF1?5seconds?$AA@ 00473eb8     bncs_ws_mandialog.obj
 0003:00002edc       ??_C@_0BP@LLHKDLND@select?4?5Delete?5current?5program?$AA@ 00473edc     bncs_ws_mandialog.obj
 0003:00002f04       ??_C@_0P@HMMMMOBE@resync?1restart?$AA@ 00473f04     bncs_ws_mandialog.obj
 0003:00002f18       ??_C@_07INNMNHPJ@cmd?4exe?$AA@ 00473f18     bncs_ws_mandialog.obj
 0003:00002f24       ??_C@_0BN@PBNJDLHF@?1windows?1bin?1bncs_vis_ed?4exe?$AA@ 00473f24     bncs_ws_mandialog.obj
 0003:00002f48       ??_C@_0BK@BHBPJLKL@?1windows?1bin?1v3caplog?4exe?$AA@ 00473f48     bncs_ws_mandialog.obj
 0003:00002f68       ??_C@_0CA@NGAFJEIM@?1windows?1bin?1bncs_netViewer?4exe?$AA@ 00473f68     bncs_ws_mandialog.obj
 0003:00002f90       ??_C@_1IO@JLPDPDPD@?$AAc?$AA?3?$AA?2?$AAp?$AAr?$AAo?$AAg?$AAr?$AAa?$AAm?$AA?5?$AAf?$AAi?$AAl?$AAe?$AAs?$AA?5?$AA?$CI?$AAx?$AA8?$AA6?$AA?$CJ?$AA?2?$AAm?$AAi?$AAc?$AAr?$AAo?$AAs?$AAo?$AAf?$AAt@ 00473f90     bncs_ws_mandialog.obj
 0003:0000303c       ??_C@_0BA@JFNIOLAK@string?5too?5long?$AA@ 0047403c     bncs_ws_mandialog.obj
 0003:00003050       ??_C@_0BI@CFPLBAOH@invalid?5string?5position?$AA@ 00474050     bncs_ws_mandialog.obj
 0003:0000306c       ??_C@_1CK@EOPGIILJ@?$AAi?$AAn?$AAv?$AAa?$AAl?$AAi?$AAd?$AA?5?$AAn?$AAu?$AAl?$AAl?$AA?5?$AAp?$AAo?$AAi?$AAn?$AAt?$AAe?$AAr?$AA?$AA@ 0047406c     bncs_ws_mandialog.obj
 0003:000030a4       ??_7?$QPtrList@VprocessBase@@@@6B@ 004740a4     csi_startdialog.obj
 0003:000030d0       ??_7csi_startDialog@@6BQObject@@@ 004740d0     csi_startdialog.obj
 0003:000032e0       ??_7csi_startDialog@@6BQPaintDevice@@@ 004742e0     csi_startdialog.obj
 0003:00003308       ??_C@_05LAPONLG@false?$AA@ 00474308     csi_startdialog.obj
 0003:00003310       ??_C@_0DO@LPFEAOO@1contextMenuRequested?$CI?5QListView@ 00474310     csi_startdialog.obj
 0003:0000335c       ??_C@_0DO@KKIGGDP@2contextMenuRequested?$CI?5QListView@ 0047435c     csi_startdialog.obj
 0003:000033a8       ??_C@_0BE@GEEFGBHJ@1listItemSelected?$CI?$CJ?$AA@ 004743a8     csi_startdialog.obj
 0003:000033c0       ??_C@_0BE@BLJBKCLJ@2selectionChanged?$CI?$CJ?$AA@ 004743c0     csi_startdialog.obj
 0003:000033d8       ??_C@_0BB@LMAFJLDH@1doButtonStart?$CI?$CJ?$AA@ 004743d8     csi_startdialog.obj
 0003:000033ec       ??_C@_0BA@EICOCFKC@1doButtonStop?$CI?$CJ?$AA@ 004743ec     csi_startdialog.obj
 0003:00003400       ??_C@_0BG@FGIKMLDG@1doButtonGoFromHere?$CI?$CJ?$AA@ 00474400     csi_startdialog.obj
 0003:0000341c       ??_C@_0BG@MJHNIOPB@1doButtonGoSelected?$CI?$CJ?$AA@ 0047441c     csi_startdialog.obj
 0003:00003438       ??_C@_0CG@MONHEPFF@?9?9?9?9?5Workstation?5Manager?5Started@ 00474438     csi_startdialog.obj
 0003:00003468       ??_C@_0BE@DAJIEGCO@Workstation?5Manager?$AA@ 00474468     csi_startdialog.obj
 0003:00003480       ??_C@_0BC@PPPILPDC@1procDone?$CI?5bool?5?$CJ?$AA@ 00474480     csi_startdialog.obj
 0003:00003498       ??_C@_0O@PGFBOEBI@2done?$CI?5bool?5?$CJ?$AA@ 00474498     csi_startdialog.obj
 0003:000034a8       ??_C@_0BB@KIGELAMK@1processExited?$CI?$CJ?$AA@ 004744a8     csi_startdialog.obj
 0003:000034bc       ??_C@_0BB@PLPOOLEO@2processExited?$CI?$CJ?$AA@ 004744bc     csi_startdialog.obj
 0003:000034d0       ??_C@_0CB@DDKFCEBM@1fixUpAutoStart?$CI?5processBase?5?$CK?5?$CJ@ 004744d0     csi_startdialog.obj
 0003:000034f8       ??_C@_0CH@HJFMAFEO@2signalFixUpAutoStart?$CI?5processBa@ 004744f8     csi_startdialog.obj
 0003:00003528       ??_C@_0BD@MONCFOHL@adding?5argument?5?$CFs?$AA@ 00474528     csi_startdialog.obj
 0003:00003540       ??_C@_01CLKCMJKC@?5?$AA@   00474540     csi_startdialog.obj
 0003:00003544       ??_C@_09DMJLFEBA@launch?4?$CF1?$AA@ 00474544     csi_startdialog.obj
 0003:00003550       ??_C@_0CM@DJEIOAIE@bncs_ws_man?3?5load?5Launcher?4?5conf@ 00474550     csi_startdialog.obj
 0003:00003588       ??_C@_0EP@HLJGGIPP@Failed?5to?5read?5launch?5configurat@ 00474588     csi_startdialog.obj
 0003:000035e8       ??_C@_0N@LBJPLEDE@autostart_ws?$AA@ 004745e8     csi_startdialog.obj
 0003:000035f8       ??_C@_03BFKAHOOJ@csi?$AA@  004745f8     csi_startdialog.obj
 0003:000035fc       ??_C@_04CGFJFPFD@none?$AA@ 004745fc     csi_startdialog.obj
 0003:00003604       ??_C@_0O@EKEBHLCH@autostart_csi?$AA@ 00474604     csi_startdialog.obj
 0003:00003614       ??_C@_0O@BLEGCJOE@rebootoncrash?$AA@ 00474614     csi_startdialog.obj
 0003:00003624       ??_C@_09PBNAMLIK@arguments?$AA@ 00474624     csi_startdialog.obj
 0003:00003630       ??_C@_04MEMAJGDJ@name?$AA@ 00474630     csi_startdialog.obj
 0003:00003638       ??_C@_09NDNIHEPB@autostart?$AA@ 00474638     csi_startdialog.obj
 0003:00003644       ??_C@_0L@NJNAEGOO@workingdir?$AA@ 00474644     csi_startdialog.obj
 0003:00003654       ??_C@_05EKJCMADO@delay?$AA@ 00474654     csi_startdialog.obj
 0003:0000365c       ??_C@_0P@MHGKLOBA@restartoncrash?$AA@ 0047465c     csi_startdialog.obj
 0003:00003670       ??_C@_0M@JBKOEEEE@waitforidle?$AA@ 00474670     csi_startdialog.obj
 0003:00003680       ??_C@_0M@KJBJAJBG@waitForIdle?$AA@ 00474680     csi_startdialog.obj
 0003:00003690       ??_C@_0N@KOIOPABD@logdelete?4?$CF1?$AA@ 00474690     csi_startdialog.obj
 0003:000036a0       ??_C@_06OFNJOBDK@enable?$AA@ 004746a0     csi_startdialog.obj
 0003:000036a8       ??_C@_0BB@KJCJFFK@logdelete?4global?$AA@ 004746a8     csi_startdialog.obj
 0003:000036bc       ??_C@_0CE@GIDLJKI@bncs_ws_man?3?5Trying?5to?5terminate@ 004746bc     csi_startdialog.obj
 0003:000036e8       ??_C@_05IDLMAFGM@v2csi?$AA@ 004746e8     csi_startdialog.obj
 0003:000036f0       ??_C@_0CO@JLFJHENA@bncs_ws_man?3?5Destructor?5manual?5c@ 004746f0     csi_startdialog.obj
 0003:00003728       ??_C@_05LONMCMNM@v3csi?$AA@ 00474728     csi_startdialog.obj
 0003:00003730       ??_C@_0CO@KGDJFNGA@bncs_ws_man?3?5Destructor?5manual?5c@ 00474730     csi_startdialog.obj
 0003:00003768       ??_C@_05MPMPAMM@v4csi?$AA@ 00474768     csi_startdialog.obj
 0003:00003770       ??_C@_0CO@BEBJIBHA@bncs_ws_man?3?5Destructor?5manual?5c@ 00474770     csi_startdialog.obj
 0003:000037a8       ??_C@_05PDFMAOIG@csi32?$AA@ 004747a8     csi_startdialog.obj
 0003:000037b0       ??_C@_0CO@OLLJHPDK@bncs_ws_man?3?5Destructor?5manual?5c@ 004747b0     csi_startdialog.obj
 0003:000037e8       ??_C@_0CI@JKOHKOAG@?9?9?9?9?5Workstation?5Manager?5Shut?5Do@ 004747e8     csi_startdialog.obj
 0003:00003818       ??_C@_0BM@GBEEMBCJ@bncs_ws_man?3?5proc?5done?5?8?$CFs?8?$AA@ 00474818     csi_startdialog.obj
 0003:0000383c       ??_C@_0BG@JLMELEKF@Started?5application?3?5?$AA@ 0047483c     csi_startdialog.obj
 0003:00003858       ??_C@_0BO@MMKDNCBA@Unable?5to?5start?5application?3?5?$AA@ 00474858     csi_startdialog.obj
 0003:0000387c       ??_C@_0DB@DMJBGPON@bncs_ws_man?3?5csi_startDialog?3?3pr@ 0047487c     csi_startdialog.obj
 0003:000038b8       ??_C@_0BJ@OKFCPABO@Crashed?5while?5stopping?3?5?$AA@ 004748b8     csi_startdialog.obj
 0003:000038d8       ??_C@_09MLCFPLFA@Crashed?3?5?$AA@ 004748d8     csi_startdialog.obj
 0003:000038e4       ??_C@_0BH@JGGHKABP@Crashed?5?$CIno?5restart?$CJ?3?5?$AA@ 004748e4     csi_startdialog.obj
 0003:00003900       ??_C@_09FEHGILGL@Stopped?3?5?$AA@ 00474900     csi_startdialog.obj
 0003:00003910       ??_C@_0EE@FCKHPCBA@bncs_ws_man?3?5startNext?4?5process?5@ 00474910     csi_startdialog.obj
 0003:00003964       ??_C@_0BL@BHODIGIO@bncs_ws_man?3?5start?5it?5?8?$CFs?8?$AA@ 00474964     csi_startdialog.obj
 0003:00003984       ??_C@_07EBMMDMPE@Start?3?5?$AA@ 00474984     csi_startdialog.obj
 0003:00003990       ??_C@_0BC@CLCDAHCL@Failed?5to?5start?3?5?$AA@ 00474990     csi_startdialog.obj
 0003:000039a8       ??_C@_05FHMJPCKA@Start?$AA@ 004749a8     csi_startdialog.obj
 0003:000039b0       ??_C@_04MOIHHPNJ@Stop?$AA@ 004749b0     csi_startdialog.obj
 0003:000039b8       ??_C@_0P@MONKAHFG@Set?5Auto?9start?$AA@ 004749b8     csi_startdialog.obj
 0003:000039cc       ??_C@_0BC@EKBFJEGD@Set?5No?5Auto?9start?$AA@ 004749cc     csi_startdialog.obj
 0003:000039e4       ??_C@_0N@GOFMGDPF@Go?5From?5Here?$AA@ 004749e4     csi_startdialog.obj
 0003:000039f4       ??_C@_0M@POBJPAOL@Go?5Selected?$AA@ 004749f4     csi_startdialog.obj
 0003:00003a04       ??_C@_0N@LDALHIFD@Man?4?5Start?3?5?$AA@ 00474a04     csi_startdialog.obj
 0003:00003a18       ??_C@_0GA@CPMBMAPB@bncs_ws_man?3?5checkStatus?4?5Runnin@ 00474a18     csi_startdialog.obj
 0003:00003a8c       ??_C@_0N@MNHBMJID@Stopping?5All?$AA@ 00474a8c     csi_startdialog.obj
 0003:00003a9c       ??_C@_0BC@MOMKDBEH@1forceTerminate?$CI?$CJ?$AA@ 00474a9c     csi_startdialog.obj
 0003:00003ab4       ??_C@_0CE@DPGEKFBP@bncs_ws_man?3?5?$CFd?5processes?5stoppi@ 00474ab4     csi_startdialog.obj
 0003:00003ae0       ??_C@_0EI@BCBGCOKM@bncs_ws_man?3?5serious?5error?5?$DN?5req@ 00474ae0     csi_startdialog.obj
 0003:00003b3c       ??_7launchListViewItem@@6B@ 00474b3c     launchListViewItem.obj
 0003:00003bf4       ??_C@_04DMHGEFBE@?$CF1ms?$AA@ 00474bf4     launchListViewItem.obj
 0003:00003bfc       ??_C@_07EDEIKPIG@?$CDffffd0?$AA@ 00474bfc     launchListViewItem.obj
 0003:00003c08       ??_C@_07CKIHGHEN@?$CDff7f40?$AA@ 00474c08     launchListViewItem.obj
 0003:00003c14       ??_C@_0P@GBGAIHHH@Stop?1Crash?3?5?$CF1?$AA@ 00474c14     launchListViewItem.obj
 0003:00003c28       ??_C@_0BD@BFNLMIMH@dd?1MM?1yy?5hh?3mm?3ss?5?$AA@ 00474c28     launchListViewItem.obj
 0003:00003c40       ??_C@_0M@GIAPDOFM@Crashed?3?5?$CF1?$AA@ 00474c40     launchListViewItem.obj
 0003:00003c50       ??_C@_0BA@EMBJCGAE@First?5Start?3?5?$CF1?$AA@ 00474c50     launchListViewItem.obj
 0003:00003c64       ??_C@_0P@DHJDMHCL@Man?4?5Start?3?5?$CF1?$AA@ 00474c64     launchListViewItem.obj
 0003:00003c78       ??_C@_0M@ELIDPAL@Stopped?3?5?$CF1?$AA@ 00474c78     launchListViewItem.obj
 0003:00003c88       ??_C@_06POGAFBAL@Queued?$AA@ 00474c88     launchListViewItem.obj
 0003:00003c90       ??_C@_0N@DDBJJCIA@Not?9Starting?$AA@ 00474c90     launchListViewItem.obj
 0003:00003ca0       ??_C@_0M@PLFEIJHO@NOT?5started?$AA@ 00474ca0     launchListViewItem.obj
 0003:00003cb0       ??_C@_0BH@HJIIIPAD@Crashed?5while?5stopping?$AA@ 00474cb0     launchListViewItem.obj
 0003:00003ccc       ??_C@_0BF@HJPNHDLM@Crashed?5?$CIrestarting?$CJ?$AA@ 00474ccc     launchListViewItem.obj
 0003:00003ce8       ??_C@_0M@DHKFPNOA@Starting?4?4?4?$AA@ 00474ce8     launchListViewItem.obj
 0003:00003cf8       ??_C@_0BF@KFJLHEAF@Crashed?5?$CIno?5restart?$CJ?$AA@ 00474cf8     launchListViewItem.obj
 0003:00003d14       ??_C@_07NBCGADJA@Unknown?$AA@ 00474d14     launchListViewItem.obj
 0003:00003d24       ??_7logDelete@@6B@         00474d24     logDelete.obj
 0003:00003d84       ??_C@_08FMIOACBF@daysback?$AA@ 00474d84     logDelete.obj
 0003:00003d90       ??_C@_07DLHCIBDH@default?$AA@ 00474d90     logDelete.obj
 0003:00003d9c       ??_C@_05MOMKGDDG@?1logs?$AA@ 00474d9c     logDelete.obj
 0003:00003da4       ??_C@_0L@LCCKLLID@caplog?4ini?$AA@ 00474da4     logDelete.obj
 0003:00003db4       ??_C@_0M@HCACLJPN@LogFilePath?$AA@ 00474db4     logDelete.obj
 0003:00003dc4       ??_C@_05EAGKIPDA@Paths?$AA@ 00474dc4     logDelete.obj
 0003:00003dcc       ??_C@_0BD@GCCEPFAI@c?3?1bncs_config?4ini?$AA@ 00474dcc     logDelete.obj
 0003:00003de4       ??_C@_0L@DHJBNFFA@ConfigPath?$AA@ 00474de4     logDelete.obj
 0003:00003df4       ??_C@_06LLCHJONG@Config?$AA@ 00474df4     logDelete.obj
 0003:00003dfc       ??_C@_0O@CMEKDBNO@?$CFs?1caplog?4ini?$AA@ 00474dfc     logDelete.obj
 0003:00003e0c       ??_C@_0BM@GHGIMFH@logDelete?3?3deleteOldFiles?$CI?$CJ?$AA@ 00474e0c     logDelete.obj
 0003:00003e30       ??_C@_09DCDCJKOA@LogDelete?$AA@ 00474e30     logDelete.obj
 0003:00003e3c       ??_C@_0BC@KNGIIECO@logDelete?5Started?$AA@ 00474e3c     logDelete.obj
 0003:00003e54       ??_C@_0BD@CNCAEGH@logDelete?5Finished?$AA@ 00474e54     logDelete.obj
 0003:00003e6c       ??_C@_01LFCBOECM@?4?$AA@   00474e6c     logDelete.obj
 0003:00003e70       ??_C@_02DJGKEECL@?4?4?$AA@ 00474e70     logDelete.obj
 0003:00003e74       ??_C@_0BA@EBGNEOM@Deleting?5file?3?5?$AA@ 00474e74     logDelete.obj
 0003:00003e88       ??_C@_0BI@JJKJNMFG@Could?5not?5delete?5file?3?5?$AA@ 00474e88     logDelete.obj
 0003:00003ea8       ??_7logDialog@@6BQObject@@@ 00474ea8     logdialogimpl.obj
 0003:000040c8       ??_7logDialog@@6BQPaintDevice@@@ 004750c8     logdialogimpl.obj
 0003:000040f0       ??_C@_0L@PEHOHLDN@1doClose?$CI?$CJ?$AA@ 004750f0     logdialogimpl.obj
 0003:00004100       ??_C@_0N@GOLLBBFH@1doRefresh?$CI?$CJ?$AA@ 00475100     logdialogimpl.obj
 0003:00004110       ??_C@_0L@ILPMAFPO@?$CFs?2?$CFs?2logs?$AA@ 00475110     logdialogimpl.obj
 0003:00004120       ??_C@_0M@EEBKEKAD@c?3?2bncslogs?$AA@ 00475120     logdialogimpl.obj
 0003:00004130       ??_C@_0N@GLHMENIG@?$CFs?2?$CFs?2?$CFs?4log?$AA@ 00475130     logdialogimpl.obj
 0003:00004140       ??_C@_0BD@NNGECHKK@Unable?5to?5open?5?$CF1?$CB?$AA@ 00475140     logdialogimpl.obj
 0003:00004158       ??_C@_05NAOIJFC@Error?$AA@ 00475158     logdialogimpl.obj
 0003:00004160       ??_C@_0BJ@HADDLMA@BNCS?5Workstation?5Manager?$AA@ 00475160     main.obj
 0003:00004180       ??_C@_08IHECODCE@Wake?5up?$CB?$AA@ 00475180     main.obj
 0003:0000418c       ??_C@_0CM@CGNNKEII@1singletonMessageReceived?$CI?5const@ 0047518c     main.obj
 0003:000041c0       ??_C@_0CD@MMNICAAE@2messageReceived?$CI?5const?5QString?$CG@ 004751c0     main.obj
 0003:00004208       ??_C@_0P@DMEOIADN@languageChange?$AA@ 00475208     moc_AboutDialogBase.obj
 0003:0000421c       ??_C@_0BB@PFEIHPGD@languageChange?$CI?$CJ?$AA@ 0047521c     moc_AboutDialogBase.obj
 0003:00004230       ??_C@_0BA@CDJANNPO@AboutDialogBase?$AA@ 00475230     moc_AboutDialogBase.obj
 0003:000042f0       ??_C@_0L@IOFBMNNP@readStdout?$AA@ 004752f0     moc_SyncProcess.obj
 0003:00004300       ??_C@_0L@LCPJJMLI@readStderr?$AA@ 00475300     moc_SyncProcess.obj
 0003:00004310       ??_C@_0N@JBGNGBDP@readStdout?$CI?$CJ?$AA@ 00475310     moc_SyncProcess.obj
 0003:00004320       ??_C@_0N@KHLNMBJF@readStderr?$CI?$CJ?$AA@ 00475320     moc_SyncProcess.obj
 0003:00004330       ??_C@_08FOICJHGO@sMessage?$AA@ 00475330     moc_SyncProcess.obj
 0003:0000433c       ??_C@_09KLEMKHNG@setStatus?$AA@ 0047533c     moc_SyncProcess.obj
 0003:00004348       ??_C@_08CDECDFO@finished?$AA@ 00475348     moc_SyncProcess.obj
 0003:00004354       ??_C@_0BD@MNCHEFIC@setStatus?$CIQString?$CJ?$AA@ 00475354     moc_SyncProcess.obj
 0003:0000436c       ??_C@_0L@PEEHILCP@finished?$CI?$CJ?$AA@ 0047536c     moc_SyncProcess.obj
 0003:0000437c       ??_C@_0O@JPPMAJEI@processExited?$AA@ 0047537c     moc_SyncProcess.obj
 0003:0000438c       ??_C@_0BA@DDGEGKOG@processExited?$CI?$CJ?$AA@ 0047538c     moc_SyncProcess.obj
 0003:000043a0       ??_C@_0M@LHNMCNGD@SyncProcess?$AA@ 004753a0     moc_SyncProcess.obj
 0003:000043b0       ??_C@_0O@LOBDDPNB@NoSyncProcess?$AA@ 004753b0     moc_SyncProcess.obj
 0003:000043c0       ??_C@_0BA@NMOFBKIC@FileSyncProcess?$AA@ 004753c0     moc_SyncProcess.obj
 0003:000043d8       ??_7netComms@@6B@          004753d8     netComms.obj
 0003:0000443c       ??_SQSocketDevice@@6B@     0047543c     netComms.obj
 0003:000044c4       ??_SQSocketNotifier@@6B@   004754c4     netComms.obj
 0003:0000452c       ??_C@_07OHKHACFK@0?40?40?40?$AA@ 0047552c     netComms.obj
 0003:00004538       ??_C@_0DF@IDGNGDAG@Workstation?5tracker?5?9?5Can?8t?5crea@ 00475538     netComms.obj
 0003:00004578       ??_C@_0BP@LIJKKPGL@Can?8t?5create?5UDP?5listen?5socket?$AA@ 00475578     netComms.obj
 0003:000045a0       ??_C@_0N@MMPMIGDM@1rxData?$CIint?$CJ?$AA@ 004755a0     netComms.obj
 0003:000045b0       ??_C@_0BA@HAKGEOGG@2activated?$CIint?$CJ?$AA@ 004755b0     netComms.obj
 0003:000045c4       ??_C@_0BB@LHJDOLA@Notifier?5created?$AA@ 004755c4     netComms.obj
 0003:000045d8       ??_C@_0DC@PICDCNNK@Workstation?5tracker?5?9?5Notifier?5n@ 004755d8     netComms.obj
 0003:00004614       ??_C@_0BM@NJAHCDBH@Notifier?5not?5created?$CB?$CB?$CB?$CB?$CB?$CB?$CB?$AA@ 00475614     netComms.obj
 0003:00004638       ??_C@_0CA@CCBLCDOA@netComms?3?3connect?$CI?$CJ?5?9?5Connected?$AA@ 00475638     netComms.obj
 0003:00004660       ??_C@_0BN@BCOJGGEE@Socket?5has?5disconnected?$CB?$CB?$CB?$CB?$CB?$AA@ 00475660     netComms.obj
 0003:00004684       ??_C@_01JOAMLHOP@?9?$AA@   00475684     netComms.obj
 0003:00004688       ??_C@_04JCINDIMM@WS?$CF1?$AA@ 00475688     netComms.obj
 0003:00004690       ??_C@_0BG@GGMLDCAG@?1config?1instances?4xml?$AA@ 00475690     netComms.obj
 0003:000046ac       ??_C@_0CC@GIOKLGAJ@Workstation?5tracker?5?9?5can?8t?5open@ 004756ac     netComms.obj
 0003:000046d4       ??_C@_09BJOJOOIO@instances?$AA@ 004756d4     netComms.obj
 0003:000046e0       ??_C@_08EMNENPBA@instance?$AA@ 004756e0     netComms.obj
 0003:000046ec       ??_C@_0BE@IIKIKCJ@workstation_tracker?$AA@ 004756ec     netComms.obj
 0003:00004704       ??_C@_02EGCJHIOB@id?$AA@   00475704     netComms.obj
 0003:00004708       ??_C@_03GCDGINBO@ref?$AA@  00475708     netComms.obj
 0003:0000470c       ??_C@_0DF@NHPJFJID@Workstation?5tracker?5?9?5No?5entry?5i@ 0047570c     netComms.obj
 0003:0000474c       ??_C@_07FDMMAPON@device?$DN?$AA@ 0047574c     netComms.obj
 0003:00004758       ??_C@_0CE@IHAJHEIK@Workstation?5tracker?5?9?5No?5device?5@ 00475758     netComms.obj
 0003:00004784       ??_C@_0CB@EBCGLOCD@?$CFs?1?$CFs?1config?1system?1dev_?$CF03d?4ini@ 00475784     netComms.obj
 0003:000047ac       ??_C@_0M@INDCIDGH@main_server?$AA@ 004757ac     netComms.obj
 0003:000047bc       ??_C@_09EPBPIOK@WSTracker?$AA@ 004757bc     netComms.obj
 0003:000047c8       ??_C@_0CJ@NIGPGEJM@Workstation?5tracker?5?9?5No?5main?5se@ 004757c8     netComms.obj
 0003:000047fc       ??_C@_0P@OFEGEMFA@reserve_server?$AA@ 004757fc     netComms.obj
 0003:00004810       ??_C@_0CM@DHCPGFLE@Workstation?5tracker?5?9?5No?5reserve@ 00475810     netComms.obj
 0003:00004844       ??_C@_04LPGMAPLE@port?$AA@ 00475844     netComms.obj
 0003:0000484c       ??_C@_0N@KLABCGLG@updateperiod?$AA@ 0047584c     netComms.obj
 0003:0000485c       ??_C@_0M@KAJNMODM@WS_Man_Text?$AA@ 0047585c     netComms.obj
 0003:0000486c       ??_C@_0CE@MLEHMCEM@?$CFs?1?$CFs?1config?1system?1bncs_system?4@ 0047586c     netComms.obj
 0003:00004898       ??_C@_07DMJBFPJJ@Channel?$AA@ 00475898     netComms.obj
 0003:000048a4       ??_C@_07BGDMAJAE@Network?$AA@ 004758a4     netComms.obj
 0003:000048b0       ??_C@_0CM@EFMNBPCH@Workstation?5tracker?5?9?5can?8t?5set?5@ 004758b0     netComms.obj
 0003:000048e4       ??_C@_0BG@BLOLOEOP@can?8t?5set?5UDP?5sockopt?$AA@ 004758e4     netComms.obj
 0003:00004900       ??_C@_0BF@OPHIHMIB@?$CF1?$HM?$CF2?$HM?$CF3?$HM?$CF4?$HM?$CF5?$HM?$CF6?$HM?$CF7?$AA@ 00475900     netComms.obj
 0003:0000491c       ??_C@_0DA@IPIMMDIK@Workstation?5tracker?5?9?5Failed?5to?5@ 0047591c     netComms.obj
 0003:00004958       ??_C@_0DD@FHBHMAPJ@netComms?3?3sendStatus?$CI?$CJ?5?9?5Failed?5@ 00475958     netComms.obj
 0003:00004998       ??_C@_0BE@HLKFLAJF@GetNativeSystemInfo?$AA@ 00475998     netComms.obj
 0003:000049b0       ??_C@_0N@MDJJJHMB@kernel32?4dll?$AA@ 004759b0     netComms.obj
 0003:000049c0       ??_C@_06IJPJPHKC@Win?5NT?$AA@ 004759c0     netComms.obj
 0003:000049c8       ??_C@_05JJOGOPLG@Win95?$AA@ 004759c8     netComms.obj
 0003:000049d0       ??_C@_05MIHJNBED@WinXP?$AA@ 004759d0     netComms.obj
 0003:000049d8       ??_C@_05CMEIJBPL@Win98?$AA@ 004759d8     netComms.obj
 0003:000049e0       ??_C@_05OFCBFGMM@WinME?$AA@ 004759e0     netComms.obj
 0003:000049e8       ??_C@_0O@MFPNDOLF@Windows?5?$CF1?4?$CF2?$AA@ 004759e8     netComms.obj
 0003:000049f8       ??_C@_05LBILHAIN@Win2k?$AA@ 004759f8     netComms.obj
 0003:00004a00       ??_C@_06PFDOONGE@Win?5XP?$AA@ 00475a00     netComms.obj
 0003:00004a08       ??_C@_0BL@KNFLLCAB@Win?5Server2003?$FLR2?$FN?1XP?$CI64b?$CJ?$AA@ 00475a08     netComms.obj
 0003:00004a28       ??_C@_0P@GMNDIIHG@Win?5Vista?12008?$AA@ 00475a28     netComms.obj
 0003:00004a3c       ??_C@_0BE@OCPGBDDF@Win?57?1Server?52008r2?$AA@ 00475a3c     netComms.obj
 0003:00004a54       ??_C@_0BF@NIFGNFH@Win?58?110?1Server?52012?$AA@ 00475a54     netComms.obj
 0003:00004a70       ??_C@_0BH@GIMODNBL@Win?58?41?1Server?52012?5R2?$AA@ 00475a70     netComms.obj
 0003:00004a8c       ??_C@_06NHMFHGGM@Win?510?$AA@ 00475a8c     netComms.obj
 0003:00004a94       ??_C@_03NLJIHOMM@?5?9?5?$AA@ 00475a94     netComms.obj
 0003:00004a98       ??_C@_04PEGFANN@stop?$AA@  00475a98     netComms.obj
 0003:00004aa0       ??_C@_05FAGFPHJG@start?$AA@ 00475aa0     netComms.obj
 0003:00004aa8       ??_C@_07LDHOHMPD@restart?$AA@ 00475aa8     netComms.obj
 0003:00004ab4       ??_C@_0CK@CBBFHFCG@netComms?3?3performAction?5?9?5unknow@ 00475ab4     netComms.obj
 0003:00004aec       ??_7processBase@@6B@       00475aec     processBase.obj
 0003:00004b90       ??_C@_0EB@PJDFPPJE@?3?5The?5wait?5was?5terminated?5becaus@ 00475b90     processBase.obj
 0003:00004be0       ??_C@_0EC@GDELCGKI@The?5wait?5was?5terminated?5because?5@ 00475be0     processBase.obj
 0003:00004c30       ??_C@_0CC@LOAMEKBA@A?5WaitForInputIdle?5error?5occurre@ 00475c30     processBase.obj
 0003:00004c58       ??_C@_0CK@JPGGHAHO@A?5process?5WaitForInputIdle?5error@ 00475c58     processBase.obj
 0003:00004c8c       ??_C@_0CC@HCCNNLBM@processBase?3?3Process?5?8?$CFs?8?5exited@ 00475c8c     processBase.obj
 0003:00004cb4       ??_C@_0BO@OLLLLGHN@Process?5?8?$CFs?8?5already?5stopped?4?$AA@ 00475cb4     processBase.obj
 0003:00004cd8       ??_C@_0BO@PICNPJMH@Force?5Terminate?5process?5?8?$CFs?8?4?$AA@ 00475cd8     processBase.obj
 0003:00004cfc       ??_C@_0CD@DIDBMCMO@Forcible?5termination?5disabled?5?8?$CF@ 00475cfc     processBase.obj
 0003:00004d2c       ??_7Program@@6B@           00475d2c     Program.obj
 0003:00004d54       ??_7StopAllProgram@@6B@    00475d54     Program.obj
 0003:00004d7c       ??_7RestartAllProgram@@6B@ 00475d7c     Program.obj
 0003:00004da4       ??_7UpdateAndRestartProgram@@6B@ 00475da4     Program.obj
 0003:00004dcc       ??_7InitializeProgram@@6B@ 00475dcc     Program.obj
 0003:00004df4       ??_7StopAndTestProgram@@6B@ 00475df4     Program.obj
 0003:00004e1c       ??_7StopAndReloadLauncherProgram@@6B@ 00475e1c     Program.obj
 0003:00004e44       ??_7StartAndStopWithSyncProgram@@6B@ 00475e44     Program.obj
 0003:00004e6c       ??_7StartAndStopNoSyncProgram@@6B@ 00475e6c     Program.obj
 0003:00004e94       ??_7RestartNoReloadLauncherProgram@@6B@ 00475e94     Program.obj
 0003:00004ebc       ??_7ResyncAndReloadLauncherProgram@@6B@ 00475ebc     Program.obj
 0003:00004ee0       ??_C@_08GGADDOPG@Stop?5All?$AA@ 00475ee0     Program.obj
 0003:00004eec       ??_C@_0M@FIDBEDHI@Restart?5All?$AA@ 00475eec     Program.obj
 0003:00004efc       ??_C@_0BD@BHMGAECK@Update?5and?5Restart?$AA@ 00475efc     Program.obj
 0003:00004f14       ??_C@_0L@KIAPHAEH@Initialize?$AA@ 00475f14     Program.obj
 0003:00004f24       ??_C@_0O@EMIIBAPK@Stop?5And?5Test?$AA@ 00475f24     Program.obj
 0003:00004f34       ??_C@_0CG@FFMFBNPD@Stop?5?$CIif?5running?$CJ?5And?5Reload?5Lau@ 00475f34     Program.obj
 0003:00004f64       ??_C@_0BJ@LKDEEFMO@Start?5And?5Stop?5With?5Sync?$AA@ 00475f64     Program.obj
 0003:00004f84       ??_C@_0BH@LMFPKDMM@Start?5And?5Stop?5No?5Sync?$AA@ 00475f84     Program.obj
 0003:00004fa0       ??_C@_0BL@DMCFKAD@Restart?5No?5Reload?5Launcher?$AA@ 00475fa0     Program.obj
 0003:00004fc0       ??_C@_0BL@MNPPPNEL@Resync?5And?5Reload?5Launcher?$AA@ 00475fc0     Program.obj
 0003:00004fe4       ??_7restartDialog@@6BQObject@@@ 00475fe4     restartdialogimpl.obj
 0003:00005204       ??_7restartDialog@@6BQPaintDevice@@@ 00476204     restartdialogimpl.obj
 0003:0000522c       ??_C@_0BG@IMGEPACO@Restarting?5in?5?$CF1?5secs?$AA@ 0047622c     restartdialogimpl.obj
 0003:0000524c       ??_7restartThread@@6B@     0047624c     restartThread.obj
 0003:00005258       ??_C@_0DP@DJBNAGJM@CSI?5failed?3?5Unclean?5reboot?5reque@ 00476258     restartThread.obj
 0003:000052a8       ??_7startCSI@@6B@          004762a8     startCSI.obj
 0003:00005348       ??_C@_0N@BCBLBBBG@?1windows?1bin?$AA@ 00476348     startCSI.obj
 0003:00005358       ??_C@_0BE@KBAPIHEH@1csiProcessExited?$CI?$CJ?$AA@ 00476358     startCSI.obj
 0003:00005370       ??_C@_0GF@EOAGIJJK@The?5CSI?5specified?5does?5not?5exist@ 00476370     startCSI.obj
 0003:000053ec       ??_C@_0BG@OJIEILEH@CSI?5Application?5Error?$AA@ 004763ec     startCSI.obj
 0003:00005408       ??_C@_0GD@DBKPGAIB@The?5CSI?5specified?5will?5not?5run?3?6@ 00476408     startCSI.obj
 0003:00005480       ??_C@_0BB@KIFBKAAH@csiProcessExited?$AA@ 00476480     startCSI.obj
 0003:00005494       ??_C@_0BJ@GBOOGGLB@Colledia?5Control?5WS?5Mgr?4?$AA@ 00476494     startCSI.obj
 0003:000054b8       ??_C@_0IB@HKKIMAKB@CSI?5has?5crashed?6Developer?5mode?5?$CI@ 004764b8     startCSI.obj
 0003:00005554       ??_C@_0CO@BMJEILDJ@CSI?5failed?3?5Clean?5reboot?5request@ 00476554     startCSI.obj
 0003:0000558c       ??_C@_0CF@KBFMDCAH@ERROR?3?5Unable?5to?5open?5process?5to@ 0047658c     startCSI.obj
 0003:000055b8       ??_C@_0BE@POPFGFGJ@SeShutdownPrivilege?$AA@ 004765b8     startCSI.obj
 0003:000055d0       ??_C@_0CK@EJBBHPBN@ERROR?3?5Unable?5to?5adjust?5token?5pr@ 004765d0     startCSI.obj
 0003:00005608       ??_C@_0FO@DLIGJPBP@NOT?5Restarting?5machine?5on?5CSI?5fa@ 00476608     startCSI.obj
 0003:0000567c       ??_7startCSIHelper@@6BQObject@@@ 0047667c     startCSIHelper.obj
 0003:00005888       ??_7startCSIHelper@@6BQPaintDevice@@@ 00476888     startCSIHelper.obj
 0003:000058b4       ??_SQProcess@@6B@          004768b4     SyncProcess.obj
 0003:00005958       ??_7SyncProcess@@6B@       00476958     SyncProcess.obj
 0003:000059bc       ??_7NoSyncProcess@@6B@     004769bc     SyncProcess.obj
 0003:00005a20       ??_7FileSyncProcess@@6B@   00476a20     SyncProcess.obj
 0003:00005a80       ??_C@_04BKCENFIL@Err?3?$AA@ 00476a80     SyncProcess.obj
 0003:00005a88       ??_C@_0BD@FFAKGAPP@c?3?2bncs_config?4ini?$AA@ 00476a88     SyncProcess.obj
 0003:00005aa0       ??_C@_0L@BCFCBKLG@?$CF1?2csi?4ini?$AA@ 00476aa0     SyncProcess.obj
 0003:00005ab0       ??_C@_0M@CILGCIDH@Workstation?$AA@ 00476ab0     SyncProcess.obj
 0003:00005ac0       ??_C@_0CE@EHDKCKCA@?$CF1?2?$CF2?2config?2system?2bncs_system?4@ 00476ac0     SyncProcess.obj
 0003:00005aec       ??_C@_0BG@LEPEFEGG@?$CF1?2local_settings?4ini?$AA@ 00476aec     SyncProcess.obj
 0003:00005b08       ??_C@_02PGHGPEOM@?91?$AA@  00476b08     SyncProcess.obj
 0003:00005b0c       ??_C@_0P@IOLOJICH@DefaultAdaptor?$AA@ 00476b0c     SyncProcess.obj
 0003:00005b20       ??_C@_0N@EAJPAAFD@BBC_NBIF?4INI?$AA@ 00476b20     SyncProcess.obj
 0003:00005b30       ??_C@_07IALGBGIB@Adaptor?$AA@ 00476b30     SyncProcess.obj
 0003:00005b3c       ??_C@_07MBIIAECI@NetBIOS?$AA@ 00476b3c     SyncProcess.obj
 0003:00005b48       ??_C@_0N@GEIGIPJD@BBC2NBIF?4INI?$AA@ 00476b48     SyncProcess.obj
 0003:00005b58       ??_C@_0BC@BBKPEPEP@2processExited?5?$CI?$CJ?$AA@ 00476b58     SyncProcess.obj
 0003:00005b70       ??_C@_0O@HJHLPLLI@1readStdout?$CI?$CJ?$AA@ 00476b70     SyncProcess.obj
 0003:00005b80       ??_C@_0BD@OGLINKBC@2readyReadStdout?$CI?$CJ?$AA@ 00476b80     SyncProcess.obj
 0003:00005b98       ??_C@_0O@EPKLFLBC@1readStderr?$CI?$CJ?$AA@ 00476b98     SyncProcess.obj
 0003:00005ba8       ??_C@_0BD@NAGIHKLI@2readyReadStderr?$CI?$CJ?$AA@ 00476ba8     SyncProcess.obj
 0003:00005bc0       ??_C@_0BI@EOIKKCDE@?2windows?2bin?2nosync?4bat?$AA@ 00476bc0     SyncProcess.obj
 0003:00005bdc       ??_C@_0BB@HOMFPGJE@Unable?5to?5run?5?$CF1?$AA@ 00476bdc     SyncProcess.obj
 0003:00005bf0       ??_C@_0BB@FHEAEHDD@Doing?5nosync?4bat?$AA@ 00476bf0     SyncProcess.obj
 0003:00005c04       ??_C@_0BD@PBCMCHKP@Running?5nosync?4bat?$AA@ 00476c04     SyncProcess.obj
 0003:00005c1c       ??_C@_0BC@DKPFMBBA@No?9sync?5Finished?4?$AA@ 00476c1c     SyncProcess.obj
 0003:00005c34       ??_C@_0O@PJHAFFOJ@?2windows?2bin?2?$AA@ 00476c34     SyncProcess.obj
 0003:00005c44       ??_C@_0O@JHNPBMBM@bncs_filesync?$AA@ 00476c44     SyncProcess.obj
 0003:00005c54       ??_C@_08MOAFDKBJ@?1source?$DN?$AA@ 00476c54     SyncProcess.obj
 0003:00005c60       ??_C@_0BH@BBBHDMNC@CC_RESERVE_SERVER_ROOT?$AA@ 00476c60     SyncProcess.obj
 0003:00005c7c       ??_C@_0BA@FKKMGPPK@?1reservesource?$DN?$AA@ 00476c7c     SyncProcess.obj
 0003:00005c90       ??_C@_06NJELFLMF@?1dest?$DN?$AA@ 00476c90     SyncProcess.obj
 0003:00005c98       ??_C@_07IGADGEGA@?1delete?$AA@ 00476c98     SyncProcess.obj
 0003:00005ca4       ??_C@_0O@GHECLBCG@postsync?4bat?$CC?$AA@ 00476ca4     SyncProcess.obj
 0003:00005cb4       ??_C@_0M@KEEICHPA@?1postsync?$DN?$CC?$AA@ 00476cb4     SyncProcess.obj
 0003:00005cc4       ??_C@_0N@DEEIBJKN@presync?4bat?$CC?$AA@ 00476cc4     SyncProcess.obj
 0003:00005cd4       ??_C@_0L@EEDGMCIL@?1presync?$DN?$CC?$AA@ 00476cd4     SyncProcess.obj
 0003:00005ce4       ??_C@_0DD@DDOIANHK@?1exclude?$DNsource?0temp?0docs?0data?0i@ 00476ce4     SyncProcess.obj
 0003:00005d24       ??_C@_0DJ@JMDHLHK@Error?3?5File?5updating?5program?5?$CCbn@ 00476d24     SyncProcess.obj
 0003:00005d68       ??_C@_0BC@CEPMOENC@Updating?5files?4?4?4?$AA@ 00476d68     SyncProcess.obj
 0003:00005d80       ??_C@_0BG@KODDIKEE@Running?5bncs_filesync?$AA@ 00476d80     SyncProcess.obj
 0003:00005d9c       ??_C@_0BG@BHBGAJBL@bncs_deferredSync?4dat?$AA@ 00476d9c     SyncProcess.obj
 0003:00005db8       ??_C@_02EFPGLDEA@Up?$AA@   00476db8     SyncProcess.obj
 0003:00005dbc       ??_C@_04EJOLCIFM@Blow?$AA@ 00476dbc     SyncProcess.obj
 0003:00005dc4       ??_C@_0BC@GDMIMODO@bncs_deferredCopy?$AA@ 00476dc4     SyncProcess.obj
 0003:00005ddc       ??_C@_0BF@OLNELNOH@?1WORKSTATION_MANAGER?$AA@ 00476ddc     SyncProcess.obj
 0003:00005df8       ??_C@_0DH@ICCNPIFJ@Tried?55?5times?5to?5update?5but?5fail@ 00476df8     SyncProcess.obj
 0003:00005e3c       ??_C@_01GBGANLPD@0?$AA@    00476e3c     SyncProcess.obj
 0003:00005e40       ??_C@_0CG@NGBBMLFN@?1windows?1bin?1CC_WS_Manager_Updat@ 00476e40     SyncProcess.obj
 0003:00005e70       ??_C@_0M@FIAENGAA@bncs_ws_man?$AA@ 00476e70     SyncProcess.obj
 0003:00005e80       ??_C@_0P@MFHAKMPM@BBC?5Technology?$AA@ 00476e80     SyncProcess.obj
 0003:00005e94       ??_C@_0BL@FPEGKLMM@?1CC_WS_Manager_Update?1date?$AA@ 00476e94     SyncProcess.obj
 0003:00005eb4       ??_C@_0CG@HLDIELII@Workstation?5Manager?5running?5upda@ 00476eb4     SyncProcess.obj
 0003:00005ee4       ??_C@_0CO@IGHDCKJL@Updating?5workstation?5manager?5and@ 00476ee4     SyncProcess.obj
 0003:00005f1c       ??_C@_0BF@DOJMHFFM@CC_WS_Manager_Update?$AA@ 00476f1c     SyncProcess.obj
 0003:00005f38       ??_C@_04OPGCGECE@?1SP?9?$AA@ 00476f38     SyncProcess.obj
 0003:00005f40       ??_C@_0M@LPKKKKNE@?1VERYSILENT?$AA@ 00476f40     SyncProcess.obj
 0003:00005f50       ??_C@_05KPMGHEDL@?1dir?$DN?$AA@ 00476f50     SyncProcess.obj
 0003:00005f58       ??_C@_0BH@POBLCGJH@?5to?5update?5bncs_ws_man?$AA@ 00476f58     SyncProcess.obj
 0003:00005f74       ??_C@_0BC@MLPICLGD@Unable?5to?5launch?5?$AA@ 00476f74     SyncProcess.obj
 0003:00005f8c       ??_C@_0CJ@DDPCKNAF@CC_WS_Manager_Update?5?9?5manually?5@ 00476f8c     SyncProcess.obj
 0003:00005fc0       ??_C@_0ED@KHEAFHIN@Not?5attempting?5to?5use?5CC_WS_Mana@ 00476fc0     SyncProcess.obj
 0003:00006010       ??_C@_0OO@KJMEFGCI@Not?5attempting?5to?5use?5CC_WS_Mana@ 00477010     SyncProcess.obj
 0003:00006130       ??_C@_0P@KEKAMDC@Sync?5Finished?4?$AA@ 00477130     SyncProcess.obj
 0003:00006148       ??_7AboutDialogBase@@6BQObject@@@ 00477148     AboutDialogBase.obj
 0003:00006368       ??_7AboutDialogBase@@6BQPaintDevice@@@ 00477368     AboutDialogBase.obj
 0003:00006394       ??_SQPushButton@@6BQObject@@@ 00477394     AboutDialogBase.obj
 0003:000065e8       ??_SQPushButton@@6BQPaintDevice@@@ 004775e8     AboutDialogBase.obj
 0003:00006614       ??_SQLabel@@6BQObject@@@   00477614     AboutDialogBase.obj
 0003:00006870       ??_SQLabel@@6BQPaintDevice@@@ 00477870     AboutDialogBase.obj
 0003:0000689c       ??_SQSpacerItem@@6B@       0047789c     AboutDialogBase.obj
 0003:000068f4       ??_SQHBoxLayout@@6BQObject@@@ 004778f4     AboutDialogBase.obj
 0003:00006974       ??_SQHBoxLayout@@6BQLayoutItem@@@ 00477974     AboutDialogBase.obj
 0003:000069cc       ??_SQVBoxLayout@@6BQObject@@@ 004779cc     AboutDialogBase.obj
 0003:00006a4c       ??_SQVBoxLayout@@6BQLayoutItem@@@ 00477a4c     AboutDialogBase.obj
 0003:00006a9c       ??_C@_0BG@BHFLGKMM@AboutDialogBaseLayout?$AA@ 00477a9c     AboutDialogBase.obj
 0003:00006ab8       ??_C@_0L@KGLFILOJ@textLabel1?$AA@ 00477ab8     AboutDialogBase.obj
 0003:00006ac8       ??_C@_08HEFODFJH@layout14?$AA@ 00477ac8     AboutDialogBase.obj
 0003:00006ad4       ??_C@_08CCAEJCBB@layout12?$AA@ 00477ad4     AboutDialogBase.obj
 0003:00006ae0       ??_C@_0L@INJINICK@textLabel2?$AA@ 00477ae0     AboutDialogBase.obj
 0003:00006af0       ??_C@_0L@JEIDOJGL@textLabel3?$AA@ 00477af0     AboutDialogBase.obj
 0003:00006b00       ??_C@_0L@NLMCHPKM@textLabel4?$AA@ 00477b00     AboutDialogBase.obj
 0003:00006b10       ??_C@_0L@MCNJEOON@textLabel5?$AA@ 00477b10     AboutDialogBase.obj
 0003:00006b20       ??_C@_0M@GDGNJKE@textLabel10?$AA@ 00477b20     AboutDialogBase.obj
 0003:00006b30       ??_C@_08DLBPKDFA@layout13?$AA@ 00477b30     AboutDialogBase.obj
 0003:00006b3c       ??_C@_0N@JGKOAMH@versionLabel?$AA@ 00477b3c     AboutDialogBase.obj
 0003:00006b4c       ??_C@_0BD@MGHMEIMJ@buildDateTimeLabel?$AA@ 00477b4c     AboutDialogBase.obj
 0003:00006b64       ??_C@_0L@HHHHDAKA@textLabel8?$AA@ 00477b64     AboutDialogBase.obj
 0003:00006b74       ??_C@_0L@GOGMABOB@textLabel9?$AA@ 00477b74     AboutDialogBase.obj
 0003:00006b84       ??_C@_0P@MABFMOGN@copyrightLabel?$AA@ 00477b84     AboutDialogBase.obj
 0003:00006b98       ??_C@_07DHCFJLGA@Layout1?$AA@ 00477b98     AboutDialogBase.obj
 0003:00006ba4       ??_C@_08DKBDHOFF@buttonOk?$AA@ 00477ba4     AboutDialogBase.obj
 0003:00006bb0       ??_C@_09DMINLBG@1accept?$CI?$CJ?$AA@ 00477bb0     AboutDialogBase.obj
 0003:00006bbc       ??_C@_0BP@BCFOFOHF@About?5BNCS?5Workstation?5Manager?$AA@ 00477bbc     AboutDialogBase.obj
 0003:00006be4       ??_C@_07NGFJPNPN@Version?$AA@ 00477be4     AboutDialogBase.obj
 0003:00006bf0       ??_C@_0BE@DCCOCKLF@Build?5Date?5and?5Time?$AA@ 00477bf0     AboutDialogBase.obj
 0003:00006c08       ??_C@_0BP@OHAILCIA@Derived?5from?5an?5application?5by?$AA@ 00477c08     AboutDialogBase.obj
 0003:00006c30       ??_C@_0BH@BHHABBPK@Further?5development?5by?$AA@ 00477c30     AboutDialogBase.obj
 0003:00006c4c       ??_C@_09EGCMDBBB@Copyright?$AA@ 00477c4c     AboutDialogBase.obj
 0003:00006c58       ??_C@_0P@LNANDOE@version?5string?$AA@ 00477c58     AboutDialogBase.obj
 0003:00006c6c       ??_C@_0BH@LKIIMGEJ@build?5date?5time?5string?$AA@ 00477c6c     AboutDialogBase.obj
 0003:00006c88       ??_C@_0M@JHBOLKON@David?5Yates?$AA@ 00477c88     AboutDialogBase.obj
 0003:00006c98       ??_C@_0BL@PPOPPBFE@Mark?5Baldry?0?5Richard?5Kerry?$AA@ 00477c98     AboutDialogBase.obj
 0003:00006cb8       ??_C@_09JHBDCMB@copyright?$AA@ 00477cb8     AboutDialogBase.obj
 0003:00006cc4       ??_C@_03DDKJIMDC@?$CGOK?$AA@ 00477cc4     AboutDialogBase.obj
 0003:000077ec       ??_C@_0L@IOGKLOOH@32?532?569?52?$AA@ 004787ec     bncs_ws_mandialogbase.obj
 0003:000077fc       ??_C@_0N@KKKDJNLG@?4g?5c?5?$CD000000?$AA@ 004787fc     bncs_ws_mandialogbase.obj
 0003:0000780c       ??_C@_0N@LLNOCHDL@?4t?5c?5?$CD010101?$AA@ 0047880c     bncs_ws_mandialogbase.obj
 0003:0000781c       ??_C@_0N@NLIMLLKI@?42?5c?5?$CD020202?$AA@ 0047881c     bncs_ws_mandialogbase.obj
 0003:0000782c       ??_C@_0N@INAMGECF@?4b?5c?5?$CD030303?$AA@ 0047882c     bncs_ws_mandialogbase.obj
 0003:0000783c       ??_C@_0N@LKINFCHI@?4P?5c?5?$CD040404?$AA@ 0047883c     bncs_ws_mandialogbase.obj
 0003:0000784c       ??_C@_0N@DAFFKEJK@?4B?5c?5?$CD050505?$AA@ 0047884c     bncs_ws_mandialogbase.obj
 0003:0000785c       ??_C@_0N@POMLIOBH@?4I?5c?5?$CD060606?$AA@ 0047885c     bncs_ws_mandialogbase.obj
 0003:0000786c       ??_C@_0N@HOAHODPH@?4C?5c?5?$CD070707?$AA@ 0047886c     bncs_ws_mandialogbase.obj
 0003:0000787c       ??_C@_0N@GFEMGDLM@?$CDc?5c?5?$CD090909?$AA@ 0047887c     bncs_ws_mandialogbase.obj
 0003:0000788c       ??_C@_0N@ONFBGJFF@?4a?5c?5?$CD0b0b0b?$AA@ 0047888c     bncs_ws_mandialogbase.obj
 0003:0000789c       ??_C@_0N@KEACOMIN@?4c?5c?5?$CD0d0d0d?$AA@ 0047889c     bncs_ws_mandialogbase.obj
 0003:000078ac       ??_C@_0N@IPOLDJOK@?4Y?5c?5?$CD0f0f0f?$AA@ 004788ac     bncs_ws_mandialogbase.obj
 0003:000078bc       ??_C@_0N@CEABCCIJ@?4x?5c?5?$CD111111?$AA@ 004788bc     bncs_ws_mandialogbase.obj
 0003:000078cc       ??_C@_0N@BCINKAJP@?4A?5c?5?$CD121212?$AA@ 004788cc     bncs_ws_mandialogbase.obj
 0003:000078dc       ??_C@_0N@GJHIMNLL@Qt?5c?5?$CD131313?$AA@ 004788dc     bncs_ws_mandialogbase.obj
 0003:000078ec       ??_C@_0N@HDIMEJEP@?4?$CD?5c?5?$CD141414?$AA@ 004788ec     bncs_ws_mandialogbase.obj
 0003:000078fc       ??_C@_0N@KPIKKBCI@?4N?5c?5?$CD151515?$AA@ 004788fc     bncs_ws_mandialogbase.obj
 0003:0000790c       ??_C@_0N@BKJCLEKJ@?4V?5c?5?$CD161616?$AA@ 0047890c     bncs_ws_mandialogbase.obj
 0003:0000791c       ??_C@_0N@EBAIKDHA@?4X?5c?5?$CD1a1a1a?$AA@ 0047891c     bncs_ws_mandialogbase.obj
 0003:0000792c       ??_C@_0N@PFDJCGNC@?4W?5c?5?$CD262626?$AA@ 0047892c     bncs_ws_mandialogbase.obj
 0003:0000793c       ??_C@_0N@KIKPEHPF@?4Q?5c?5?$CD2a2a2a?$AA@ 0047893c     bncs_ws_mandialogbase.obj
 0003:0000794c       ??_C@_0N@DOIODAMB@?4u?5c?5?$CD303030?$AA@ 0047894c     bncs_ws_mandialogbase.obj
 0003:0000795c       ??_C@_0N@LLEIBAKA@?4s?5c?5?$CD313131?$AA@ 0047895c     bncs_ws_mandialogbase.obj
 0003:0000796c       ??_C@_0N@JBEPDCJE@?43?5c?5?$CD343434?$AA@ 0047896c     bncs_ws_mandialogbase.obj
 0003:0000797c       ??_C@_0N@BHIPCJIK@?41?5c?5?$CD353535?$AA@ 0047897c     bncs_ws_mandialogbase.obj
 0003:0000798c       ??_C@_0N@EIANLBNI@?4d?5c?5?$CD383838?$AA@ 0047898c     bncs_ws_mandialogbase.obj
 0003:0000799c       ??_C@_0N@NPBCOEBK@?4w?5c?5?$CD3d3d3d?$AA@ 0047899c     bncs_ws_mandialogbase.obj
 0003:000079ac       ??_C@_0N@GJFCALOM@?4D?5c?5?$CD3f3f3f?$AA@ 004789ac     bncs_ws_mandialogbase.obj
 0003:000079bc       ??_C@_0N@FIGPPCNO@?4E?5c?5?$CD404040?$AA@ 004789bc     bncs_ws_mandialogbase.obj
 0003:000079cc       ??_C@_0N@EMBIAFNC@?4Z?5c?5?$CD414141?$AA@ 004789cc     bncs_ws_mandialogbase.obj
 0003:000079dc       ??_C@_0N@GHKPBBLN@?4O?5c?5?$CD424242?$AA@ 004789dc     bncs_ws_mandialogbase.obj
 0003:000079ec       ??_C@_0N@FMOHMPGC@?$CD?4?5c?5?$CD454545?$AA@ 004789ec     bncs_ws_mandialogbase.obj
 0003:000079fc       ??_C@_0N@NGICLLJA@?$CDb?5c?5?$CD464646?$AA@ 004789fc     bncs_ws_mandialogbase.obj
 0003:00007a0c       ??_C@_0N@DNDILCCP@?4J?5c?5?$CD4a4a4a?$AA@ 00478a0c     bncs_ws_mandialogbase.obj
 0003:00007a1c       ??_C@_0N@DDCLNAOH@?4U?5c?5?$CD4e4e4e?$AA@ 00478a1c     bncs_ws_mandialogbase.obj
 0003:00007a2c       ??_C@_0N@PMJEKONN@?45?5c?5?$CD555555?$AA@ 00478a2c     bncs_ws_mandialogbase.obj
 0003:00007a3c       ??_C@_0N@CGNABGOO@?4f?5c?5?$CD595959?$AA@ 00478a3c     bncs_ws_mandialogbase.obj
 0003:00007a4c       ??_C@_0N@MNEILOJF@?4e?5c?5?$CD5a5a5a?$AA@ 00478a4c     bncs_ws_mandialogbase.obj
 0003:00007a5c       ??_C@_0N@JMMJKDKN@?46?5c?5?$CD5d5d5d?$AA@ 00478a5c     bncs_ws_mandialogbase.obj
 0003:00007a6c       ??_C@_0N@MKGNFIEI@?4z?5c?5?$CD656565?$AA@ 00478a6c     bncs_ws_mandialogbase.obj
 0003:00007a7c       ??_C@_0N@BFNAAJEA@?4M?5c?5?$CD666666?$AA@ 00478a7c     bncs_ws_mandialogbase.obj
 0003:00007a8c       ??_C@_0N@EGJIPM@?4m?5c?5?$CD6b6b6b?$AA@ 00478a8c     bncs_ws_mandialogbase.obj
 0003:00007a9c       ??_C@_0N@EPEHKKNC@?4H?5c?5?$CD6e6e6e?$AA@ 00478a9c     bncs_ws_mandialogbase.obj
 0003:00007aac       ??_C@_0N@JADFFIDO@?4n?5c?5?$CD727272?$AA@ 00478aac     bncs_ws_mandialogbase.obj
 0003:00007abc       ??_C@_0N@GBGLJBNA@?4o?5c?5?$CD737373?$AA@ 00478abc     bncs_ws_mandialogbase.obj
 0003:00007acc       ??_C@_0N@GKBODJPH@?$CDa?5c?5?$CD757575?$AA@ 00478acc     bncs_ws_mandialogbase.obj
 0003:00007adc       ??_C@_0N@JEKJOBL@?$CD?$CD?5c?5?$CD767676?$AA@ 00478adc     bncs_ws_mandialogbase.obj
 0003:00007aec       ??_C@_0N@CGCEOHCD@?47?5c?5?$CD7c7c7c?$AA@ 00478aec     bncs_ws_mandialogbase.obj
 0003:00007afc       ??_C@_0N@JOCJKLBF@?44?5c?5?$CD7d7d7d?$AA@ 00478afc     bncs_ws_mandialogbase.obj
 0003:00007b0c       ??_C@_0N@BNJLBJFJ@?4p?5c?5?$CD8c8c8c?$AA@ 00478b0c     bncs_ws_mandialogbase.obj
 0003:00007b1c       ??_C@_0N@NLBKCHOC@?4l?5c?5?$CD8d8d8d?$AA@ 00478b1c     bncs_ws_mandialogbase.obj
 0003:00007b2c       ??_C@_0N@PMOLBPHJ@?4F?5c?5?$CD8f8f8f?$AA@ 00478b2c     bncs_ws_mandialogbase.obj
 0003:00007b3c       ??_C@_0N@HFBJDCBI@?40?5c?5?$CD909090?$AA@ 00478b3c     bncs_ws_mandialogbase.obj
 0003:00007b4c       ??_C@_0N@FCALEJJL@?4k?5c?5?$CD919191?$AA@ 00478b4c     bncs_ws_mandialogbase.obj
 0003:00007b5c       ??_C@_0N@HMLGBAHF@?4r?5c?5?$CD929292?$AA@ 00478b5c     bncs_ws_mandialogbase.obj
 0003:00007b6c       ??_C@_0N@GBNDEHAE@?4q?5c?5?$CD939393?$AA@ 00478b6c     bncs_ws_mandialogbase.obj
 0003:00007b7c       ??_C@_0N@NKNIDAEN@?4v?5c?5?$CD949494?$AA@ 00478b7c     bncs_ws_mandialogbase.obj
 0003:00007b8c       ??_C@_0N@DKKFICCG@?4K?5c?5?$CD959595?$AA@ 00478b8c     bncs_ws_mandialogbase.obj
 0003:00007b9c       ??_C@_0N@NGHNFPKB@?48?5c?5?$CD969696?$AA@ 00478b9c     bncs_ws_mandialogbase.obj
 0003:00007bac       ??_C@_0N@IAPNIACM@?4h?5c?5?$CD979797?$AA@ 00478bac     bncs_ws_mandialogbase.obj
 0003:00007bbc       ??_C@_0N@JIOCIAD@?49?5c?5?$CD989898?$AA@ 00478bbc     bncs_ws_mandialogbase.obj
 0003:00007bcc       ??_C@_0N@CIJACFHO@?4j?5c?5?$CD999999?$AA@ 00478bcc     bncs_ws_mandialogbase.obj
 0003:00007bdc       ??_C@_0N@BKOHGLPL@?4y?5c?5?$CD9c9c9c?$AA@ 00478bdc     bncs_ws_mandialogbase.obj
 0003:00007bec       ??_C@_0N@MGCBNGBJ@?4R?5c?5?$CDadadad?$AA@ 00478bec     bncs_ws_mandialogbase.obj
 0003:00007bfc       ??_C@_0N@PMOLHIPL@?4T?5c?5?$CDafafaf?$AA@ 00478bfc     bncs_ws_mandialogbase.obj
 0003:00007c0c       ??_C@_0N@CECNAOCG@?4S?5c?5?$CDb0b0b0?$AA@ 00478c0c     bncs_ws_mandialogbase.obj
 0003:00007c1c       ??_C@_0N@NHLHOLBI@?4L?5c?5?$CDcacaca?$AA@ 00478c1c     bncs_ws_mandialogbase.obj
 0003:00007c2c       ??_C@_0N@NJEKPBEJ@?4G?5c?5?$CDd5d5d5?$AA@ 00478c2c     bncs_ws_mandialogbase.obj
 0003:00007c3c       ??_C@_0N@EKFLLAK@?4i?5c?5?$CDffffff?$AA@ 00478c3c     bncs_ws_mandialogbase.obj
 0003:00007c50       ??_C@_0EB@LIFDHAPP@QtQtQtQtQtQtQtQtQtQtQtQtQtQtQtQt@ 00478c50     bncs_ws_mandialogbase.obj
 0003:00007ca0       ??_C@_0EB@MLAGKPFA@QtQt?4?$CD?4a?4b?4b?4b?4b?4b?4b?4b?4b?4b?4b?4b?4b@ 00478ca0     bncs_ws_mandialogbase.obj
 0003:00007cf0       ??_C@_0EB@EPDBDNMK@QtQt?4c?4d?4e?4f?4f?4f?4f?4f?4f?4f?4f?4f?4f?4f@ 00478cf0     bncs_ws_mandialogbase.obj
 0003:00007d40       ??_C@_0EB@FOHOAAFI@QtQt?4g?4h?4i?4i?4i?4i?4i?4i?4i?4i?4i?4i?4i?4i@ 00478d40     bncs_ws_mandialogbase.obj
 0003:00007d90       ??_C@_0EB@DAHJEAHC@QtQt?4g?4k?4i?4l?4m?4n?4o?4o?4o?4o?4o?4o?4o?4o@ 00478d90     bncs_ws_mandialogbase.obj
 0003:00007de0       ??_C@_0EB@IBIHGPDC@QtQt?4g?4r?4i?4s?4g?4g?4g?4g?4t?4g?4g?4g?4g?4g@ 00478de0     bncs_ws_mandialogbase.obj
 0003:00007e30       ??_C@_0EB@JPPHHCEI@QtQt?4g?4r?4i?4w?4x?4y?4z?4A?4B?4?$CDQtQtQtQt@ 00478e30     bncs_ws_mandialogbase.obj
 0003:00007e80       ??_C@_0EB@BPMJLGDD@QtQt?4g?4r?4i?4E?4B?4D?4F?4G?4H?4IQtQtQtQt@ 00478e80     bncs_ws_mandialogbase.obj
 0003:00007ed0       ??_C@_0EB@IGNJBPPD@QtQt?4g?4r?4i?4E?4I?4J?4K?4L?4M?4I?4x?4x?4AQt@ 00478ed0     bncs_ws_mandialogbase.obj
 0003:00007f20       ??_C@_0EB@GAODLPAK@QtQt?4g?4r?4i?4w?4x?4K?4f?4c?4B?4N?4?$CD?4?$CDQtQt@ 00478f20     bncs_ws_mandialogbase.obj
 0003:00007f70       ??_C@_0EB@OGIMDNIM@QtQt?4g?4k?4i?4O?4C?4P?4I?4a?4Q?4R?4S?4T?4U?4C@ 00478f70     bncs_ws_mandialogbase.obj
 0003:00007fc0       ??_C@_0EB@LBEJAFIC@QtQt?4g?4k?4i?4O?4CQtQt?4A?4V?4W?4W?4W?4X?4A@ 00478fc0     bncs_ws_mandialogbase.obj
 0003:00008010       ??_C@_0EB@CCLNJGN@QtQt?4g?4k?4i?4O?4CQtQtQt?4A?4Y?4Y?4Y?4xQt@ 00479010     bncs_ws_mandialogbase.obj
 0003:00008060       ??_C@_0EB@EACEHFEC@QtQt?4g?4k?4i?4O?4CQtQtQtQtQtQtQtQtQt@ 00479060     bncs_ws_mandialogbase.obj
 0003:000080b0       ??_C@_0EB@DOKIAHMP@QtQt?4g?4k?4i?4O?4CQtQtQtQtQtQtQtQtQt@ 004790b0     bncs_ws_mandialogbase.obj
 0003:00008100       ??_C@_0EB@CFLJDOON@QtQt?4g?40?4i?4O?4CQtQtQtQtQtQtQtQtQt@ 00479100     bncs_ws_mandialogbase.obj
 0003:00008150       ??_C@_0EB@FLDFEMGA@QtQt?4g?40?4i?4O?4CQtQtQtQtQtQtQtQtQt@ 00479150     bncs_ws_mandialogbase.obj
 0003:000081a0       ??_C@_0EB@HDPLCJLL@QtQt?4g?40?4i?41?4g?42?42?42?42?42?42?42?42?42@ 004791a0     bncs_ws_mandialogbase.obj
 0003:000081f0       ??_C@_0EB@LPIGKCFM@QtQt?4g?4F?4i?44?45?46?46?46?46?46?46?46?46?46@ 004791f0     bncs_ws_mandialogbase.obj
 0003:00008240       ??_C@_0EB@PEKLKMFC@QtQt?4g?48?4i?4i?4i?4i?4i?4i?4i?4i?4i?4i?4i?4i@ 00479240     bncs_ws_mandialogbase.obj
 0003:00008290       ??_C@_0EB@NNMCJKEL@QtQt?4a?$CD?4?$CD?$CD?$CDa?$CD?$CD?$CDa?$CDa?$CDa?$CDa?$CDa?$CDa?$CDa?$CDa?$CDa@ 00479290     bncs_ws_mandialogbase.obj
 0003:000082e0       ??_C@_0EB@FPPBBDO@QtQt?4?$CD?$CDc?4g?4g?4g?4g?4g?4g?4g?4g?4g?4g?4g?4g@ 004792e0     bncs_ws_mandialogbase.obj
 0003:00008330       ??_C@_0M@HEOKDKAD@32?532?5118?52?$AA@ 00479330     bncs_ws_mandialogbase.obj
 0003:00008340       ??_C@_09HNCNKBIL@Qt?5c?5None?$AA@ 00479340     bncs_ws_mandialogbase.obj
 0003:0000834c       ??_C@_0N@NBNCOMKN@?$CDH?5c?5?$CD006c00?$AA@ 0047934c     bncs_ws_mandialogbase.obj
 0003:0000835c       ??_C@_0N@JMJFHJLB@?$CDt?5c?5?$CD007100?$AA@ 0047935c     bncs_ws_mandialogbase.obj
 0003:0000836c       ??_C@_0N@EFMMCOAN@?$CDZ?5c?5?$CD008300?$AA@ 0047936c     bncs_ws_mandialogbase.obj
 0003:0000837c       ??_C@_0N@PEIBOBKG@?$CDX?5c?5?$CD00c000?$AA@ 0047937c     bncs_ws_mandialogbase.obj
 0003:0000838c       ??_C@_0N@PFKEBGBA@?$CDW?5c?5?$CD00ca00?$AA@ 0047938c     bncs_ws_mandialogbase.obj
 0003:0000839c       ??_C@_0N@CKJIOANF@?$CDG?5c?5?$CD00d300?$AA@ 0047939c     bncs_ws_mandialogbase.obj
 0003:000083ac       ??_C@_0N@FJFGLIOG@?4u?5c?5?$CD017a01?$AA@ 004793ac     bncs_ws_mandialogbase.obj
 0003:000083bc       ??_C@_0N@EDDFLHDD@?4H?5c?5?$CD018b01?$AA@ 004793bc     bncs_ws_mandialogbase.obj
 0003:000083cc       ??_C@_0N@KFICOOKE@?4p?5c?5?$CD01f301?$AA@ 004793cc     bncs_ws_mandialogbase.obj
 0003:000083dc       ??_C@_0N@KGPDFAEJ@?4B?5c?5?$CD02fd02?$AA@ 004793dc     bncs_ws_mandialogbase.obj
 0003:000083ec       ??_C@_0N@CDCGKKOF@?4E?5c?5?$CD049404?$AA@ 004793ec     bncs_ws_mandialogbase.obj
 0003:000083fc       ??_C@_0N@BHJPKIOC@?4v?5c?5?$CD0a7e0a?$AA@ 004793fc     bncs_ws_mandialogbase.obj
 0003:0000840c       ??_C@_0N@FLCOHLNO@?$CDY?5c?5?$CD0b940b?$AA@ 0047940c     bncs_ws_mandialogbase.obj
 0003:0000841c       ??_C@_0N@GELJLFCA@?4s?5c?5?$CD0d810d?$AA@ 0047941c     bncs_ws_mandialogbase.obj
 0003:0000842c       ??_C@_0N@IGPNKFDG@?4C?5c?5?$CD0d9a0d?$AA@ 0047942c     bncs_ws_mandialogbase.obj
 0003:0000843c       ??_C@_0N@GFOKPDKA@?4o?5c?5?$CD0df50d?$AA@ 0047943c     bncs_ws_mandialogbase.obj
 0003:0000844c       ??_C@_0N@MCGOANFF@?4n?5c?5?$CD0efc0e?$AA@ 0047944c     bncs_ws_mandialogbase.obj
 0003:0000845c       ??_C@_0N@IPAPHPED@?4w?5c?5?$CD117f11?$AA@ 0047945c     bncs_ws_mandialogbase.obj
 0003:0000846c       ??_C@_0N@EFJAOEL@?$CDI?5c?5?$CD11e711?$AA@ 0047946c     bncs_ws_mandialogbase.obj
 0003:0000847c       ??_C@_0N@LFOLDMOJ@?4m?5c?5?$CD11f511?$AA@ 0047947c     bncs_ws_mandialogbase.obj
 0003:0000848c       ??_C@_0N@EPNOCJMJ@?$CD?$CD?5c?5?$CD129d12?$AA@ 0047948c     bncs_ws_mandialogbase.obj
 0003:0000849c       ??_C@_0N@PJOMAGHL@?4t?5c?5?$CD138313?$AA@ 0047949c     bncs_ws_mandialogbase.obj
 0003:000084ac       ??_C@_0N@LPNGODHB@?4l?5c?5?$CD13fc13?$AA@ 004794ac     bncs_ws_mandialogbase.obj
 0003:000084bc       ??_C@_0N@OMEBJAOH@?4r?5c?5?$CD14a414?$AA@ 004794bc     bncs_ws_mandialogbase.obj
 0003:000084cc       ??_C@_0N@LHHHKLIP@?4I?5c?5?$CD14ed14?$AA@ 004794cc     bncs_ws_mandialogbase.obj
 0003:000084dc       ??_C@_0N@EAOHEGHL@?4F?5c?5?$CD1b851b?$AA@ 004794dc     bncs_ws_mandialogbase.obj
 0003:000084ec       ??_C@_0N@CPCHDGEB@?4K?5c?5?$CD1daa1d?$AA@ 004794ec     bncs_ws_mandialogbase.obj
 0003:000084fc       ??_C@_0N@NNDJMKLL@?4A?5c?5?$CD1dfc1d?$AA@ 004794fc     bncs_ws_mandialogbase.obj
 0003:0000850c       ??_C@_0N@PCNMEFAG@?4O?5c?5?$CD228722?$AA@ 0047950c     bncs_ws_mandialogbase.obj
 0003:0000851c       ??_C@_0N@FEIDNNAE@?4J?5c?5?$CD23ad23?$AA@ 0047951c     bncs_ws_mandialogbase.obj
 0003:0000852c       ??_C@_0N@BFKJLCGC@?4N?5c?5?$CD248b24?$AA@ 0047952c     bncs_ws_mandialogbase.obj
 0003:0000853c       ??_C@_0N@PCDLBMED@?4y?5c?5?$CD24fb24?$AA@ 0047953c     bncs_ws_mandialogbase.obj
 0003:0000854c       ??_C@_0N@EIBGJHNP@?4Q?5c?5?$CD2a8c2a?$AA@ 0047954c     bncs_ws_mandialogbase.obj
 0003:0000855c       ??_C@_0N@CCPDBONP@?4G?5c?5?$CD2bb42b?$AA@ 0047955c     bncs_ws_mandialogbase.obj
 0003:0000856c       ??_C@_0N@HFEAPGBG@?4D?5c?5?$CD2cb92c?$AA@ 0047956c     bncs_ws_mandialogbase.obj
 0003:0000857c       ??_C@_0N@GLINLNKI@?4L?5c?5?$CD2e922e?$AA@ 0047957c     bncs_ws_mandialogbase.obj
 0003:0000858c       ??_C@_0N@DBFFOIEL@?$CDq?5c?5?$CD318f31?$AA@ 0047958c     bncs_ws_mandialogbase.obj
 0003:0000859c       ??_C@_0N@GMINMBCG@?4q?5c?5?$CD31fa31?$AA@ 0047959c     bncs_ws_mandialogbase.obj
 0003:000085ac       ??_C@_0N@IFNEKPIP@?4z?5c?5?$CD33bb33?$AA@ 004795ac     bncs_ws_mandialogbase.obj
 0003:000085bc       ??_C@_0N@KJEGNIEA@?4Z?5c?5?$CD369536?$AA@ 004795bc     bncs_ws_mandialogbase.obj
 0003:000085cc       ??_C@_0N@GJKMKPBG@?$CDi?5c?5?$CD3a953a?$AA@ 004795cc     bncs_ws_mandialogbase.obj
 0003:000085dc       ??_C@_0N@PBJKDJGP@?4i?5c?5?$CD3bc53b?$AA@ 004795dc     bncs_ws_mandialogbase.obj
 0003:000085ec       ??_C@_0N@ECANFMAK@?4x?5c?5?$CD3cbe3c?$AA@ 004795ec     bncs_ws_mandialogbase.obj
 0003:000085fc       ??_C@_0N@GONDDHGH@?4k?5c?5?$CD3ffa3f?$AA@ 004795fc     bncs_ws_mandialogbase.obj
 0003:0000860c       ??_C@_0N@EKDIDPLD@?4h?5c?5?$CD42cb42?$AA@ 0047960c     bncs_ws_mandialogbase.obj
 0003:0000861c       ??_C@_0N@IALGGHMP@?4M?5c?5?$CD449c44?$AA@ 0047961c     bncs_ws_mandialogbase.obj
 0003:0000862c       ??_C@_0N@BDMFNFAP@?4g?5c?5?$CD45d245?$AA@ 0047962c     bncs_ws_mandialogbase.obj
 0003:0000863c       ??_C@_0N@PPLFMMFO@?$CDr?5c?5?$CD468846?$AA@ 0047963c     bncs_ws_mandialogbase.obj
 0003:0000864c       ??_C@_0N@PEIGJICI@?$CDg?5c?5?$CD4c9e4c?$AA@ 0047964c     bncs_ws_mandialogbase.obj
 0003:0000865c       ??_C@_0N@JPBHDLCC@?4P?5c?5?$CD4ca14c?$AA@ 0047965c     bncs_ws_mandialogbase.obj
 0003:0000866c       ??_C@_0N@CFGGHNLC@?4j?5c?5?$CD4cae4c?$AA@ 0047966c     bncs_ws_mandialogbase.obj
 0003:0000867c       ??_C@_0N@CDIBLAOB@?4f?5c?5?$CD4cd54c?$AA@ 0047967c     bncs_ws_mandialogbase.obj
 0003:0000868c       ??_C@_0N@LEHINFOB@?$CDn?5c?5?$CD4edb4e?$AA@ 0047968c     bncs_ws_mandialogbase.obj
 0003:0000869c       ??_C@_0N@KLPJAGEP@?4e?5c?5?$CD53dc53?$AA@ 0047969c     bncs_ws_mandialogbase.obj
 0003:000086ac       ??_C@_0N@KACJKILA@?$CDz?5c?5?$CD548d54?$AA@ 004796ac     bncs_ws_mandialogbase.obj
 0003:000086bc       ??_C@_0N@HDKOCOFP@?4U?5c?5?$CD54a454?$AA@ 004796bc     bncs_ws_mandialogbase.obj
 0003:000086cc       ??_C@_0N@LMKIGCDD@?$CDh?5c?5?$CD55e255?$AA@ 004796cc     bncs_ws_mandialogbase.obj
 0003:000086dc       ??_C@_0N@DGLADPAO@?4R?5c?5?$CD5aa65a?$AA@ 004796dc     bncs_ws_mandialogbase.obj
 0003:000086ec       ??_C@_0N@PBOIJOHJ@?$CDd?5c?5?$CD5daa5d?$AA@ 004796ec     bncs_ws_mandialogbase.obj
 0003:000086fc       ??_C@_0N@EDEEFIMH@?4d?5c?5?$CD5dea5d?$AA@ 004796fc     bncs_ws_mandialogbase.obj
 0003:0000870c       ??_C@_0N@JIENMMDP@?4c?5c?5?$CD62ec62?$AA@ 0047970c     bncs_ws_mandialogbase.obj
 0003:0000871c       ??_C@_0N@KDFPOJDB@?45?5c?5?$CD64ad64?$AA@ 0047971c     bncs_ws_mandialogbase.obj
 0003:0000872c       ??_C@_0N@CFNLEONE@?$CDy?5c?5?$CD65d265?$AA@ 0047972c     bncs_ws_mandialogbase.obj
 0003:0000873c       ??_C@_0N@DPCIKIGN@?4b?5c?5?$CD67f467?$AA@ 0047973c     bncs_ws_mandialogbase.obj
 0003:0000874c       ??_C@_0N@NGFPICON@?$CDw?5c?5?$CD688d68?$AA@ 0047974c     bncs_ws_mandialogbase.obj
 0003:0000875c       ??_C@_0N@ENCJHLKG@?$CDs?5c?5?$CD6adb6a?$AA@ 0047975c     bncs_ws_mandialogbase.obj
 0003:0000876c       ??_C@_0N@EOOOHCHB@?4a?5c?5?$CD6bf36b?$AA@ 0047976c     bncs_ws_mandialogbase.obj
 0003:0000877c       ??_C@_0N@OHCLJFEA@?$CDj?5c?5?$CD6cb26c?$AA@ 0047977c     bncs_ws_mandialogbase.obj
 0003:0000878c       ??_C@_0N@MEGADHLB@?42?5c?5?$CD72b572?$AA@ 0047978c     bncs_ws_mandialogbase.obj
 0003:0000879c       ??_C@_0N@OJIKBJG@?4T?5c?5?$CD76b876?$AA@ 0047979c     bncs_ws_mandialogbase.obj
 0003:000087ac       ??_C@_0N@MNIAFIDL@?$CDl?5c?5?$CD79b679?$AA@ 004797ac     bncs_ws_mandialogbase.obj
 0003:000087bc       ??_C@_0N@PNIDPAOP@?4S?5c?5?$CD7cbc7c?$AA@ 004797bc     bncs_ws_mandialogbase.obj
 0003:000087cc       ??_C@_0N@LHDMKNGL@?$CDC?5c?5?$CD7d987d?$AA@ 004797cc     bncs_ws_mandialogbase.obj
 0003:000087dc       ??_C@_0N@ODNFLADE@?$CDb?5c?5?$CD83bd83?$AA@ 004797dc     bncs_ws_mandialogbase.obj
 0003:000087ec       ??_C@_0N@FECINEPK@?4?$CD?5c?5?$CD84f184?$AA@ 004797ec     bncs_ws_mandialogbase.obj
 0003:000087fc       ??_C@_0N@GKPHHOPM@?$CDa?5c?5?$CD86c286?$AA@ 004797fc     bncs_ws_mandialogbase.obj
 0003:0000880c       ??_C@_0N@PDIOKOIA@?4V?5c?5?$CD8cc48c?$AA@ 0047980c     bncs_ws_mandialogbase.obj
 0003:0000881c       ??_C@_0N@JGKFLILB@?$CDe?5c?5?$CD8eba8e?$AA@ 0047981c     bncs_ws_mandialogbase.obj
 0003:0000882c       ??_C@_0N@JKHCHLDD@?$CDx?5c?5?$CD8fc98f?$AA@ 0047982c     bncs_ws_mandialogbase.obj
 0003:0000883c       ??_C@_0N@HEJKEFEC@?$CDJ?5c?5?$CD939693?$AA@ 0047983c     bncs_ws_mandialogbase.obj
 0003:0000884c       ??_C@_0N@MLAHADDG@?40?5c?5?$CD93cb93?$AA@ 0047984c     bncs_ws_mandialogbase.obj
 0003:0000885c       ??_C@_0N@MFFMAMCO@?$CDk?5c?5?$CD94c594?$AA@ 0047985c     bncs_ws_mandialogbase.obj
 0003:0000886c       ??_C@_0N@MEPOJPLH@?$CDu?5c?5?$CD959a95?$AA@ 0047986c     bncs_ws_mandialogbase.obj
 0003:0000887c       ??_C@_0N@HFMKAIKB@?$CDv?5c?5?$CD9a9e9a?$AA@ 0047987c     bncs_ws_mandialogbase.obj
 0003:0000888c       ??_C@_0N@JDEDDLF@?$CDD?5c?5?$CD9ad19a?$AA@ 0047988c     bncs_ws_mandialogbase.obj
 0003:0000889c       ??_C@_0N@HLDOCAGL@?48?5c?5?$CD9ccb9c?$AA@ 0047989c     bncs_ws_mandialogbase.obj
 0003:000088ac       ??_C@_0N@LHDOCPBA@?$CDV?5c?5?$CD9dbd9d?$AA@ 004798ac     bncs_ws_mandialogbase.obj
 0003:000088bc       ??_C@_0N@JCHJLMBJ@?$CDK?5c?5?$CDa0a4a0?$AA@ 004798bc     bncs_ws_mandialogbase.obj
 0003:000088cc       ??_C@_0N@LBEIHBC@?$CDE?5c?5?$CDa0d5a0?$AA@ 004798cc     bncs_ws_mandialogbase.obj
 0003:000088dc       ??_C@_0N@OLKIHPLJ@?49?5c?5?$CDa4cea4?$AA@ 004798dc     bncs_ws_mandialogbase.obj
 0003:000088ec       ??_C@_0N@IBINIPNI@?$CDL?5c?5?$CDa5a8a5?$AA@ 004798ec     bncs_ws_mandialogbase.obj
 0003:000088fc       ??_C@_0N@BLOGIPKM@?$CDF?5c?5?$CDa5d9a5?$AA@ 004798fc     bncs_ws_mandialogbase.obj
 0003:0000890c       ??_C@_0N@CEGFKNCA@?$CDR?5c?5?$CDababab?$AA@ 0047990c     bncs_ws_mandialogbase.obj
 0003:0000891c       ??_C@_0N@KHMLIEGE@?44?5c?5?$CDabd2ab?$AA@ 0047991c     bncs_ws_mandialogbase.obj
 0003:0000892c       ??_C@_0N@DKFOEGLJ@?$CDf?5c?5?$CDb2d6b2?$AA@ 0047992c     bncs_ws_mandialogbase.obj
 0003:0000893c       ??_C@_0N@NDGNDEHA@?$CDN?5c?5?$CDb3b4b3?$AA@ 0047993c     bncs_ws_mandialogbase.obj
 0003:0000894c       ??_C@_0N@HKGAPIED@?$CDO?5c?5?$CDbbbcbb?$AA@ 0047994c     bncs_ws_mandialogbase.obj
 0003:0000895c       ??_C@_0N@NHFIBFMM@?4X?5c?5?$CDbdddbd?$AA@ 0047995c     bncs_ws_mandialogbase.obj
 0003:0000896c       ??_C@_0N@LFMAEMKL@?$CDP?5c?5?$CDbfc2bf?$AA@ 0047996c     bncs_ws_mandialogbase.obj
 0003:0000897c       ??_C@_0N@NIIIAMOD@?$CDp?5c?5?$CDc0dec0?$AA@ 0047997c     bncs_ws_mandialogbase.obj
 0003:0000898c       ??_C@_0N@MPAEMEKC@?$CDc?5c?5?$CDc3e0c3?$AA@ 0047998c     bncs_ws_mandialogbase.obj
 0003:0000899c       ??_C@_0N@GJGIEFEN@?$CDA?5c?5?$CDc4c4c4?$AA@ 0047999c     bncs_ws_mandialogbase.obj
 0003:000089ac       ??_C@_0N@FJMIOJC@?$CDQ?5c?5?$CDcbcccb?$AA@ 004799ac     bncs_ws_mandialogbase.obj
 0003:000089bc       ??_C@_0N@IKNIFCKM@?$CD?4?5c?5?$CDcbe4cb?$AA@ 004799bc     bncs_ws_mandialogbase.obj
 0003:000089cc       ??_C@_0N@CAFHLCME@?$CDM?5c?5?$CDcfd1cf?$AA@ 004799cc     bncs_ws_mandialogbase.obj
 0003:000089dc       ??_C@_0N@PJEOIIOP@?4Y?5c?5?$CDd2e7d2?$AA@ 004799dc     bncs_ws_mandialogbase.obj
 0003:000089ec       ??_C@_0N@DOHKMFNJ@?$CDB?5c?5?$CDd3d4d3?$AA@ 004799ec     bncs_ws_mandialogbase.obj
 0003:000089fc       ??_C@_0N@BLNGDEKG@?$CDm?5c?5?$CDd5e9d5?$AA@ 004799fc     bncs_ws_mandialogbase.obj
 0003:00008a0c       ??_C@_0N@NGGIKNAO@?46?5c?5?$CDd9ebd9?$AA@ 00479a0c     bncs_ws_mandialogbase.obj
 0003:00008a1c       ??_C@_0N@DCPAPIPG@?$CDo?5c?5?$CDdbdbdb?$AA@ 00479a1c     bncs_ws_mandialogbase.obj
 0003:00008a2c       ??_C@_0N@GBFGIKAG@?$CDS?5c?5?$CDe4e4e4?$AA@ 00479a2c     bncs_ws_mandialogbase.obj
 0003:00008a3c       ??_C@_0N@BABLFLIK@?47?5c?5?$CDe6f2e6?$AA@ 00479a3c     bncs_ws_mandialogbase.obj
 0003:00008a4c       ??_C@_0N@DODMFCGK@?41?5c?5?$CDeaf4ea?$AA@ 00479a4c     bncs_ws_mandialogbase.obj
 0003:00008a5c       ??_C@_0N@KHGFKHEO@?$CDT?5c?5?$CDececec?$AA@ 00479a5c     bncs_ws_mandialogbase.obj
 0003:00008a6c       ??_C@_0N@JAJOHEHD@?$CDU?5c?5?$CDf5f5f5?$AA@ 00479a6c     bncs_ws_mandialogbase.obj
 0003:00008a7c       ??_C@_0N@FELCEFBA@?43?5c?5?$CDf5faf5?$AA@ 00479a7c     bncs_ws_mandialogbase.obj
 0003:00008a8c       ??_C@_0N@FEAEHPHN@?4W?5c?5?$CDfefffe?$AA@ 00479a8c     bncs_ws_mandialogbase.obj
 0003:00008aa0       ??_C@_0EB@JNNGHMBD@QtQtQtQtQtQt?4?$CD?4a?4b?4a?4a?4a?4a?4a?4b?4a@ 00479aa0     bncs_ws_mandialogbase.obj
 0003:00008af0       ??_C@_0EB@FDIJPLGF@QtQtQtQtQt?4?$CD?4k?4l?4m?4n?4o?4p?4o?4m?4m?4p@ 00479af0     bncs_ws_mandialogbase.obj
 0003:00008b40       ??_C@_0EB@OAHFGMG@QtQtQtQt?4?$CD?4q?4l?4r?4s?4t?4s?4s?4s?4t?4t?4s@ 00479b40     bncs_ws_mandialogbase.obj
 0003:00008b90       ??_C@_0EB@IEDCAECH@QtQtQt?4?$CD?4y?4o?4r?4s?4u?4s?4t?4u?4t?4t?4t?4s@ 00479b90     bncs_ws_mandialogbase.obj
 0003:00008be0       ??_C@_0EB@ENLBAMEA@QtQt?4?$CD?4A?4B?4C?4t?4t?4t?4t?4s?4u?4t?4s?4t?4t@ 00479be0     bncs_ws_mandialogbase.obj
 0003:00008c30       ??_C@_0EB@PABOMNBC@Qt?4?$CD?4A?4p?4E?4t?4t?4s?4t?4t?4s?4s?4t?4s?4s?4t@ 00479c30     bncs_ws_mandialogbase.obj
 0003:00008c80       ??_C@_0EB@HINKIAMI@?4?$CD?4l?4p?4H?4u?4t?4s?4u?4u?4t?4t?4s?4t?4u?4u?4t@ 00479c80     bncs_ws_mandialogbase.obj
 0003:00008cd0       ??_C@_0EB@BKGDHFB@?4b?4B?4H?4u?4s?4t?4s?4s?4s?4t?4s?4t?4t?4u?4u?4s@ 00479cd0     bncs_ws_mandialogbase.obj
 0003:00008d20       ??_C@_0EB@MIKAIIJE@?4b?4p?4u?4u?4s?4t?4t?4t?4s?4v?4u?4t?4s?4u?4u?4s@ 00479d20     bncs_ws_mandialogbase.obj
 0003:00008d70       ??_C@_0EB@JGIENHMA@?4b?4p?4u?4u?4u?4u?4u?4u?4u?4u?4u?4u?4u?4u?4u?4u@ 00479d70     bncs_ws_mandialogbase.obj
 0003:00008dc0       ??_C@_0EB@LMLKBNGC@?4b?4p?4L?4M?4N?4u?4u?4u?4u?4L?4M?4O?4s?4M?4M?4M@ 00479dc0     bncs_ws_mandialogbase.obj
 0003:00008e10       ??_C@_0EB@IFJJEKP@?4b?4p?4V?4W?4X?4u?4u?4u?4u?4Y?4W?4U?4Z?4W?4W?4W@ 00479e10     bncs_ws_mandialogbase.obj
 0003:00008e60       ??_C@_0EB@LIBEMBDE@?4b?4p?4P?4W?43?4u?4u?4u?4t?4W?4W?4t?4N?44?44?43@ 00479e60     bncs_ws_mandialogbase.obj
 0003:00008eb0       ??_C@_0EB@LPPLIDMH@?4b?4p?4s?4W?4W?4Z?4u?4u?4P?4W?$CD?4?4u?4u?4u?4u?46@ 00479eb0     bncs_ws_mandialogbase.obj
 0003:00008f00       ??_C@_0EB@EIPBAPGC@?4b?4p?4u?$CD?4?4W?42?4u?4u?$CDa?4W?4V?4u?4u?4u?4u?46@ 00479f00     bncs_ws_mandialogbase.obj
 0003:00008f50       ??_C@_0EB@GCADNCNI@?4b?4p?4u?$CDb?4W?44?4u?4u?$CDc?4W?4P?4u?4u?4u?4u?46@ 00479f50     bncs_ws_mandialogbase.obj
 0003:00008fa0       ??_C@_0EB@GFMAIGIG@?4b?4p?4u?4M?4W?47?4u?4s?43?4W?4v?4u?4u?4u?4u?46@ 00479fa0     bncs_ws_mandialogbase.obj
 0003:00008ff0       ??_C@_0EB@LPPOODKM@?4d?4p?4u?4s?4W?4W?4O?4Z?4W?$CD?4?4u?4u?4u?4u?4u?46@ 00479ff0     bncs_ws_mandialogbase.obj
 0003:00009040       ??_C@_0EB@DBECDOCJ@?4d?4p?4u?4u?$CDc?4W?$CDd?4S?4W?$CDe?4u?4u?4u?4u?4u?46@ 0047a040     bncs_ws_mandialogbase.obj
 0003:00009090       ??_C@_0EB@FMJFFFGB@?4d?4p?4u?4u?$CDb?4W?48?$CDf?4W?4P?4u?4u?4u?4u?4u?46@ 0047a090     bncs_ws_mandialogbase.obj
 0003:000090e0       ??_C@_0EB@HCGMDJCM@?$CDh?4p?4u?4u?4M?4W?4Y?41?43?4s?4u?4u?4u?4u?4u?46@ 0047a0e0     bncs_ws_mandialogbase.obj
 0003:00009130       ??_C@_0EB@OOAIMADE@?$CDh?4p?4u?4u?4s?43?4W?4W?$CDc?4u?4u?4u?4F?$CDj?42?47@ 0047a130     bncs_ws_mandialogbase.obj
 0003:00009180       ??_C@_0EB@OHBLENEC@?4e?4p?4u?4u?4u?4X?4W?4W?$CDb?4v?4v?4v?4M?4W?4W?4W@ 0047a180     bncs_ws_mandialogbase.obj
 0003:000091d0       ??_C@_0EB@LJCLEMJG@?$CDn?4p?4u?4u?4u?4U?48?48?$CDi?4w?4t?4F?$CDi?49?44?44@ 0047a1d0     bncs_ws_mandialogbase.obj
 0003:00009220       ??_C@_0EB@OKGEPAFF@?$CDn?4p?4u?4u?4v?4v?4w?4w?4w?4O?4O?4O?$CDq?$CDq?4Z?$CDr@ 0047a220     bncs_ws_mandialogbase.obj
 0003:00009270       ??_C@_0EB@GMFBEINP@?4f?4p?$CDt?4v?4w?4w?4w?4O?4O?4Q?$CDq?$CDr?$CDu?$CDv?$CDw?$CDg@ 0047a270     bncs_ws_mandialogbase.obj
 0003:000092c0       ??_C@_0EB@BCLDGCDI@?4g?4p?4s?4w?4w?4O?4O?4Q?$CDq?$CDq?$CDi?$CDz?$CDA?$CDB?$CDC?4R@ 0047a2c0     bncs_ws_mandialogbase.obj
 0003:00009310       ??_C@_0EB@FINEDAPP@?4g?$CDI?$CDC?$CDJ?$CDu?$CDu?$CDu?$CDv?$CDv?$CDv?$CDK?$CDL?$CDM?$CDo?$CDN?$CDN@ 0047a310     bncs_ws_mandialogbase.obj
 0003:00009360       ??_C@_0EB@KBEALLAI@?4h?$CDI?$CDR?$CDA?$CDQ?$CDQ?$CDQ?$CDQ?$CDQ?$CDB?$CDB?$CDo?$CDo?$CDo?$CDS?$CDS@ 0047a360     bncs_ws_mandialogbase.obj
 0003:000093b0       ??_C@_0EB@GMJHFLN@?4h?$CDI?$CDJ?$CDR?$CDR?$CDN?$CDN?$CDN?$CDN?$CDO?$CDO?$CDO?$CDA?$CDA?$CDA?$CDQ@ 0047a3b0     bncs_ws_mandialogbase.obj
 0003:00009400       ??_C@_0EB@JEEDDAOC@?4i?4B?$CDI?$CDI?$CDI?$CDI?$CDI?4I?4I?4I?4I?4I?4I?4I?4I?4I@ 0047a400     bncs_ws_mandialogbase.obj
 0003:00009450       ??_C@_0EB@HEMHFEFB@?4j?4z?4z?4z?4G?4G?4G?4J?4J?4J?4N?$CD?$CD?$CD?$CD?$CD?$CD?4C?$CDY@ 0047a450     bncs_ws_mandialogbase.obj
 0003:000094a0       ??_C@_0M@OHJFKKHD@16?516?5163?52?$AA@ 0047a4a0     bncs_ws_mandialogbase.obj
 0003:000094b0       ??_C@_0N@GOIMFLF@?4D?5c?5?$CD7a7a00?$AA@ 0047a4b0     bncs_ws_mandialogbase.obj
 0003:000094c0       ??_C@_0N@BAHHGFNL@?4E?5c?5?$CD7b7b01?$AA@ 0047a4c0     bncs_ws_mandialogbase.obj
 0003:000094d0       ??_C@_0N@PDCLCJHD@?47?5c?5?$CD7b7b02?$AA@ 0047a4d0     bncs_ws_mandialogbase.obj
 0003:000094e0       ??_C@_0N@KJLIGGHH@?$CDd?5c?5?$CD7b7b04?$AA@ 0047a4e0     bncs_ws_mandialogbase.obj
 0003:000094f0       ??_C@_0N@GCBFDKGI@?$CDB?5c?5?$CD7c7c03?$AA@ 0047a4f0     bncs_ws_mandialogbase.obj
 0003:00009500       ??_C@_0N@KKOAJMAA@?$CDO?5c?5?$CD7c7c05?$AA@ 0047a500     bncs_ws_mandialogbase.obj
 0003:00009510       ??_C@_0N@IBCFGKOA@?4M?5c?5?$CD7d7d05?$AA@ 0047a510     bncs_ws_mandialogbase.obj
 0003:00009520       ??_C@_0N@DOONGCMH@?4w?5c?5?$CD7e7e07?$AA@ 0047a520     bncs_ws_mandialogbase.obj
 0003:00009530       ??_C@_0N@MOOLKMPI@?4t?5c?5?$CD7e7e08?$AA@ 0047a530     bncs_ws_mandialogbase.obj
 0003:00009540       ??_C@_0N@OBEFKMFD@?$CDk?5c?5?$CD7e7e0d?$AA@ 0047a540     bncs_ws_mandialogbase.obj
 0003:00009550       ??_C@_0N@FBACEICO@?4C?5c?5?$CD7f7f0a?$AA@ 0047a550     bncs_ws_mandialogbase.obj
 0003:00009560       ??_C@_0N@MBJCNEKF@?4u?5c?5?$CD80800b?$AA@ 0047a560     bncs_ws_mandialogbase.obj
 0003:00009570       ??_C@_0N@NLIPNOJL@?4q?5c?5?$CD80800c?$AA@ 0047a570     bncs_ws_mandialogbase.obj
 0003:00009580       ??_C@_0N@KMHGFENF@?$CDl?5c?5?$CD808012?$AA@ 0047a580     bncs_ws_mandialogbase.obj
 0003:00009590       ??_C@_0N@GNKIMLHG@?4L?5c?5?$CD81810d?$AA@ 0047a590     bncs_ws_mandialogbase.obj
 0003:000095a0       ??_C@_0N@OMBAINCH@?4I?5c?5?$CD81810e?$AA@ 0047a5a0     bncs_ws_mandialogbase.obj
 0003:000095b0       ??_C@_0N@KKNJFOJE@?$CDP?5c?5?$CD818116?$AA@ 0047a5b0     bncs_ws_mandialogbase.obj
 0003:000095c0       ??_C@_0N@DJEEFIDP@?$CDm?5c?5?$CD818117?$AA@ 0047a5c0     bncs_ws_mandialogbase.obj
 0003:000095d0       ??_C@_0N@CCIOKHKK@?4B?5c?5?$CD82820f?$AA@ 0047a5d0     bncs_ws_mandialogbase.obj
 0003:000095e0       ??_C@_0N@EACBENCE@?4s?5c?5?$CD828210?$AA@ 0047a5e0     bncs_ws_mandialogbase.obj
 0003:000095f0       ??_C@_0N@LBHPIEMK@?4r?5c?5?$CD838311?$AA@ 0047a5f0     bncs_ws_mandialogbase.obj
 0003:00009600       ??_C@_0N@JJFEOMHG@?4v?5c?5?$CD838312?$AA@ 0047a600     bncs_ws_mandialogbase.obj
 0003:00009610       ??_C@_0N@IKBLOCNM@?4K?5c?5?$CD848413?$AA@ 0047a610     bncs_ws_mandialogbase.obj
 0003:00009620       ??_C@_0N@PHBOHDBO@?$CDn?5c?5?$CD84841c?$AA@ 0047a620     bncs_ws_mandialogbase.obj
 0003:00009630       ??_C@_0N@BPCJOODG@?4J?5c?5?$CD858516?$AA@ 0047a630     bncs_ws_mandialogbase.obj
 0003:00009640       ??_C@_0N@JPDEJKOO@?$CDQ?5c?5?$CD85851f?$AA@ 0047a640     bncs_ws_mandialogbase.obj
 0003:00009650       ??_C@_0N@NJBLNAAF@?$CD2?5c?5?$CD868664?$AA@ 0047a650     bncs_ws_mandialogbase.obj
 0003:00009660       ??_C@_0N@IKLOHGJC@?$CDF?5c?5?$CD878724?$AA@ 0047a660     bncs_ws_mandialogbase.obj
 0003:00009670       ??_C@_0N@KEBIDNEE@?$CDR?5c?5?$CD88882f?$AA@ 0047a670     bncs_ws_mandialogbase.obj
 0003:00009680       ??_C@_0N@BHBDKEE@?41?5c?5?$CD8c8c23?$AA@ 0047a680     bncs_ws_mandialogbase.obj
 0003:00009690       ??_C@_0N@HINALFLN@?$CDG?5c?5?$CD8c8c2d?$AA@ 0047a690     bncs_ws_mandialogbase.obj
 0003:000096a0       ??_C@_0N@JJJBHJKJ@?$CD3?5c?5?$CD8e8e6f?$AA@ 0047a6a0     bncs_ws_mandialogbase.obj
 0003:000096b0       ??_C@_0N@DFDKAEJG@?$CD4?5c?5?$CD919175?$AA@ 0047a6b0     bncs_ws_mandialogbase.obj
 0003:000096c0       ??_C@_0N@KFOJOLIE@?$CDy?5c?5?$CD93933a?$AA@ 0047a6c0     bncs_ws_mandialogbase.obj
 0003:000096d0       ??_C@_0N@NLJNNLFD@?$CDT?5c?5?$CD94944d?$AA@ 0047a6d0     bncs_ws_mandialogbase.obj
 0003:000096e0       ??_C@_0N@NBLGBLFM@?$CDS?5c?5?$CD959579?$AA@ 0047a6e0     bncs_ws_mandialogbase.obj
 0003:000096f0       ??_C@_0N@PDLILGHP@?4X?5c?5?$CD969636?$AA@ 0047a6f0     bncs_ws_mandialogbase.obj
 0003:00009700       ??_C@_0N@FHJNLCHN@?$CDC?5c?5?$CD969638?$AA@ 0047a700     bncs_ws_mandialogbase.obj
 0003:00009710       ??_C@_0N@KLPPPBHC@?4T?5c?5?$CD989839?$AA@ 0047a710     bncs_ws_mandialogbase.obj
 0003:00009720       ??_C@_0N@BIHJKMGJ@?$CD5?5c?5?$CD98987c?$AA@ 0047a720     bncs_ws_mandialogbase.obj
 0003:00009730       ??_C@_0N@PHCOHKFA@?$CDE?5c?5?$CD999943?$AA@ 0047a730     bncs_ws_mandialogbase.obj
 0003:00009740       ??_C@_0N@KKNCFEOC@?$CD6?5c?5?$CD9b9b86?$AA@ 0047a740     bncs_ws_mandialogbase.obj
 0003:00009750       ??_C@_0N@NBIGEKPM@?$CDi?5c?5?$CD9c9c41?$AA@ 0047a750     bncs_ws_mandialogbase.obj
 0003:00009760       ??_C@_0N@HJGBMIKI@?$CDU?5c?5?$CD9f9f4e?$AA@ 0047a760     bncs_ws_mandialogbase.obj
 0003:00009770       ??_C@_0N@JJFMFBLG@?$CDt?5c?5?$CDa0a04b?$AA@ 0047a770     bncs_ws_mandialogbase.obj
 0003:00009780       ??_C@_0N@DDDHGJIH@?4H?5c?5?$CDa1a100?$AA@ 0047a780     bncs_ws_mandialogbase.obj
 0003:00009790       ??_C@_0N@JOPFAJIH@?40?5c?5?$CDa1a14b?$AA@ 0047a790     bncs_ws_mandialogbase.obj
 0003:000097a0       ??_C@_0N@GLKPDNBO@?4A?5c?5?$CDa5a509?$AA@ 0047a7a0     bncs_ws_mandialogbase.obj
 0003:000097b0       ??_C@_0N@OMEGHGOH@?$CDV?5c?5?$CDa7a75b?$AA@ 0047a7b0     bncs_ws_mandialogbase.obj
 0003:000097c0       ??_C@_0N@EGCONOMC@?$CDH?5c?5?$CDa7a75e?$AA@ 0047a7c0     bncs_ws_mandialogbase.obj
 0003:000097d0       ??_C@_0N@JJPBIFAA@?$CDD?5c?5?$CDa9a95e?$AA@ 0047a7d0     bncs_ws_mandialogbase.obj
 0003:000097e0       ??_C@_0N@CPLGAFAO@?$CDM?5c?5?$CDaaaa60?$AA@ 0047a7e0     bncs_ws_mandialogbase.obj
 0003:000097f0       ??_C@_0N@BAIOILAB@?$CD8?5c?5?$CDaaaa9b?$AA@ 0047a7f0     bncs_ws_mandialogbase.obj
 0003:00009800       ??_C@_0N@MKDCEGFH@ag?5c?5?$CDaaaaaa?$AA@ 0047a800     bncs_ws_mandialogbase.obj
 0003:00009810       ??_C@_0N@HDHCJJFP@?4p?5c?5?$CDabab10?$AA@ 0047a810     bncs_ws_mandialogbase.obj
 0003:00009820       ??_C@_0N@IEDAMBDG@?$CDI?5c?5?$CDacac67?$AA@ 0047a820     bncs_ws_mandialogbase.obj
 0003:00009830       ??_C@_0N@IECFNJKC@?4P?5c?5?$CDadad61?$AA@ 0047a830     bncs_ws_mandialogbase.obj
 0003:00009840       ??_C@_0N@IDBFGPAH@ae?5c?5?$CDaeae35?$AA@ 0047a840     bncs_ws_mandialogbase.obj
 0003:00009850       ??_C@_0N@EHLNHPJH@at?5c?5?$CDaeae43?$AA@ 0047a850     bncs_ws_mandialogbase.obj
 0003:00009860       ??_C@_0N@BDILCKDG@aG?5c?5?$CDafaf4b?$AA@ 0047a860     bncs_ws_mandialogbase.obj
 0003:00009870       ??_C@_0N@MDJIIDAF@?4V?5c?5?$CDafaf66?$AA@ 0047a870     bncs_ws_mandialogbase.obj
 0003:00009880       ??_C@_0N@PMBIMLGI@?$CDL?5c?5?$CDafaf68?$AA@ 0047a880     bncs_ws_mandialogbase.obj
 0003:00009890       ??_C@_0N@CIILHCIF@?43?5c?5?$CDb0b067?$AA@ 0047a890     bncs_ws_mandialogbase.obj
 0003:000098a0       ??_C@_0N@FOMJJGEI@?$CDJ?5c?5?$CDb0b06e?$AA@ 0047a8a0     bncs_ws_mandialogbase.obj
 0003:000098b0       ??_C@_0N@HKFJGPLH@?$CDj?5c?5?$CDb1b16b?$AA@ 0047a8b0     bncs_ws_mandialogbase.obj
 0003:000098c0       ??_C@_0N@JCGAFPDB@?$CD9?5c?5?$CDb3b39e?$AA@ 0047a8c0     bncs_ws_mandialogbase.obj
 0003:000098d0       ??_C@_0N@GKOGDIAF@?$CDK?5c?5?$CDb4b475?$AA@ 0047a8d0     bncs_ws_mandialogbase.obj
 0003:000098e0       ??_C@_0N@OOMOHEHJ@?$CDW?5c?5?$CDb7b774?$AA@ 0047a8e0     bncs_ws_mandialogbase.obj
 0003:000098f0       ??_C@_0N@GBOEICHM@?$CDg?5c?5?$CDb8b876?$AA@ 0047a8f0     bncs_ws_mandialogbase.obj
 0003:00009900       ??_C@_0N@FAKOHNLJ@ah?5c?5?$CDb9b9b9?$AA@ 0047a900     bncs_ws_mandialogbase.obj
 0003:00009910       ??_C@_0N@HKMJENGG@a?4?5c?5?$CDbabaa8?$AA@ 0047a910     bncs_ws_mandialogbase.obj
 0003:00009920       ??_C@_0N@PHLIPOBL@?$CDx?5c?5?$CDbdbd87?$AA@ 0047a920     bncs_ws_mandialogbase.obj
 0003:00009930       ??_C@_0N@BPLIOJMI@?$CDX?5c?5?$CDbebe7e?$AA@ 0047a930     bncs_ws_mandialogbase.obj
 0003:00009940       ??_C@_0N@CHJCFLBI@ai?5c?5?$CDbebebe?$AA@ 0047a940     bncs_ws_mandialogbase.obj
 0003:00009950       ??_C@_0N@CAIADFGJ@?$CDz?5c?5?$CDc0c002?$AA@ 0047a950     bncs_ws_mandialogbase.obj
 0003:00009960       ??_C@_0N@MHHOILJP@aj?5c?5?$CDc1c1c1?$AA@ 0047a960     bncs_ws_mandialogbase.obj
 0003:00009970       ??_C@_0N@EKOBPHEE@?$CDo?5c?5?$CDc2c203?$AA@ 0047a970     bncs_ws_mandialogbase.obj
 0003:00009980       ??_C@_0N@EKGFNFMO@aF?5c?5?$CDc3c300?$AA@ 0047a980     bncs_ws_mandialogbase.obj
 0003:00009990       ??_C@_0N@GOPFLHLI@?$CD0?5c?5?$CDc3c302?$AA@ 0047a990     bncs_ws_mandialogbase.obj
 0003:000099a0       ??_C@_0N@KEDCDOHO@aE?5c?5?$CDc4c401?$AA@ 0047a9a0     bncs_ws_mandialogbase.obj
 0003:000099b0       ??_C@_0N@BMKFDFCD@?$CDe?5c?5?$CDc4c404?$AA@ 0047a9b0     bncs_ws_mandialogbase.obj
 0003:000099c0       ??_C@_0N@DBKDHNJM@?$CDY?5c?5?$CDc4c486?$AA@ 0047a9c0     bncs_ws_mandialogbase.obj
 0003:000099d0       ??_C@_0N@DOFDGPMK@a?$CD?5c?5?$CDc4c4b3?$AA@ 0047a9d0     bncs_ws_mandialogbase.obj
 0003:000099e0       ??_C@_0N@CCCNLOAH@?$CDZ?5c?5?$CDc6c67d?$AA@ 0047a9e0     bncs_ws_mandialogbase.obj
 0003:000099f0       ??_C@_0N@JDEIFJDG@ak?5c?5?$CDc6c6c6?$AA@ 0047a9f0     bncs_ws_mandialogbase.obj
 0003:00009a00       ??_C@_0N@NGMBFLBE@aD?5c?5?$CDc7c704?$AA@ 0047aa00     bncs_ws_mandialogbase.obj
 0003:00009a10       ??_C@_0N@HMPHKJLA@?$CD?$CD?5c?5?$CDc7c707?$AA@ 0047aa10     bncs_ws_mandialogbase.obj
 0003:00009a20       ??_C@_0N@LNMFFKMM@aC?5c?5?$CDcaca07?$AA@ 0047aa20     bncs_ws_mandialogbase.obj
 0003:00009a30       ??_C@_0N@JOABMBHK@?48?5c?5?$CDcaca0a?$AA@ 0047aa30     bncs_ws_mandialogbase.obj
 0003:00009a40       ??_C@_0N@CHNLNPDO@?4Z?5c?5?$CDcaca99?$AA@ 0047aa40     bncs_ws_mandialogbase.obj
 0003:00009a50       ??_C@_0N@OKHHPKPN@al?5c?5?$CDcbcbcb?$AA@ 0047aa50     bncs_ws_mandialogbase.obj
 0003:00009a60       ??_C@_0N@HGKKMKCD@av?5c?5?$CDcccc2f?$AA@ 0047aa60     bncs_ws_mandialogbase.obj
 0003:00009a70       ??_C@_0N@JFMJGGNO@?45?5c?5?$CDcccc9d?$AA@ 0047aa70     bncs_ws_mandialogbase.obj
 0003:00009a80       ??_C@_0N@PBJMDEGD@ac?5c?5?$CDccccac?$AA@ 0047aa80     bncs_ws_mandialogbase.obj
 0003:00009a90       ??_C@_0N@FAKAICGC@aa?5c?5?$CDccccbd?$AA@ 0047aa90     bncs_ws_mandialogbase.obj
 0003:00009aa0       ??_C@_0N@IBGPBJDP@?44?5c?5?$CDcdcd0d?$AA@ 0047aaa0     bncs_ws_mandialogbase.obj
 0003:00009ab0       ??_C@_0N@PFFPGKPD@aB?5c?5?$CDcece0b?$AA@ 0047aab0     bncs_ws_mandialogbase.obj
 0003:00009ac0       ??_C@_0N@KNADAFK@?$CD7?5c?5?$CDcfcfcf?$AA@ 0047aac0     bncs_ws_mandialogbase.obj
 0003:00009ad0       ??_C@_0N@DIMJLMP@aA?5c?5?$CDd0d00d?$AA@ 0047aad0     bncs_ws_mandialogbase.obj
 0003:00009ae0       ??_C@_0N@KFEBGFCK@?4W?5c?5?$CDd0d010?$AA@ 0047aae0     bncs_ws_mandialogbase.obj
 0003:00009af0       ??_C@_0N@EBMAFOGA@?4m?5c?5?$CDd0d031?$AA@ 0047aaf0     bncs_ws_mandialogbase.obj
 0003:00009b00       ??_C@_0N@CNADCGOC@az?5c?5?$CDd3d310?$AA@ 0047ab00     bncs_ws_mandialogbase.obj
 0003:00009b10       ??_C@_0N@CIFMFANB@?4N?5c?5?$CDd3d31b?$AA@ 0047ab10     bncs_ws_mandialogbase.obj
 0003:00009b20       ??_C@_0N@CMEDICDK@ab?5c?5?$CDd3d3c4?$AA@ 0047ab20     bncs_ws_mandialogbase.obj
 0003:00009b30       ??_C@_0N@BENJJNAJ@am?5c?5?$CDd3d3d3?$AA@ 0047ab30     bncs_ws_mandialogbase.obj
 0003:00009b40       ??_C@_0N@JPAJIGLL@as?5c?5?$CDd5d52d?$AA@ 0047ab40     bncs_ws_mandialogbase.obj
 0003:00009b50       ??_C@_0N@FAFIHGOP@?4F?5c?5?$CDd6d61c?$AA@ 0047ab50     bncs_ws_mandialogbase.obj
 0003:00009b60       ??_C@_0N@CKACOEFH@ay?5c?5?$CDd7d714?$AA@ 0047ab60     bncs_ws_mandialogbase.obj
 0003:00009b70       ??_C@_0N@KLOCIPGL@?$CDb?5c?5?$CDd7d7b3?$AA@ 0047ab70     bncs_ws_mandialogbase.obj
 0003:00009b80       ??_C@_0N@GBOEHABP@?$CD?4?5c?5?$CDd8d8b5?$AA@ 0047ab80     bncs_ws_mandialogbase.obj
 0003:00009b90       ??_C@_0N@FJEENMPJ@ax?5c?5?$CDd9d916?$AA@ 0047ab90     bncs_ws_mandialogbase.obj
 0003:00009ba0       ??_C@_0N@IOLOLAPJ@?4x?5c?5?$CDd9d921?$AA@ 0047aba0     bncs_ws_mandialogbase.obj
 0003:00009bb0       ??_C@_0N@FHIOGEHB@an?5c?5?$CDd9d9d9?$AA@ 0047abb0     bncs_ws_mandialogbase.obj
 0003:00009bc0       ??_C@_0N@KJODFIJK@ar?5c?5?$CDdadad8?$AA@ 0047abc0     bncs_ws_mandialogbase.obj
 0003:00009bd0       ??_C@_0N@MEGOCMNF@af?5c?5?$CDdbdb26?$AA@ 0047abd0     bncs_ws_mandialogbase.obj
 0003:00009be0       ??_C@_0N@FHFNEEEN@aw?5c?5?$CDdddd1a?$AA@ 0047abe0     bncs_ws_mandialogbase.obj
 0003:00009bf0       ??_C@_0N@HGDMKBOB@?$CDq?5c?5?$CDddddbd?$AA@ 0047abf0     bncs_ws_mandialogbase.obj
 0003:00009c00       ??_C@_0N@BIKKLGGG@?4l?5c?5?$CDdfdf1f?$AA@ 0047ac00     bncs_ws_mandialogbase.obj
 0003:00009c10       ??_C@_0N@CGLAKKDH@?49?5c?5?$CDdfdfc1?$AA@ 0047ac10     bncs_ws_mandialogbase.obj
 0003:00009c20       ??_C@_0N@OKAJPHGH@?$CD1?5c?5?$CDe0e026?$AA@ 0047ac20     bncs_ws_mandialogbase.obj
 0003:00009c30       ??_C@_0N@NNDLMFCG@ao?5c?5?$CDe0e0e0?$AA@ 0047ac30     bncs_ws_mandialogbase.obj
 0003:00009c40       ??_C@_0N@PHIPMDK@?4k?5c?5?$CDe2e21e?$AA@ 0047ac40     bncs_ws_mandialogbase.obj
 0003:00009c50       ??_C@_0N@COHFDDHN@?$CDc?5c?5?$CDe2e2c8?$AA@ 0047ac50     bncs_ws_mandialogbase.obj
 0003:00009c60       ??_C@_0N@MGAJNONI@?4j?5c?5?$CDe4e424?$AA@ 0047ac60     bncs_ws_mandialogbase.obj
 0003:00009c70       ??_C@_0N@PAOJNLKA@?$CDN?5c?5?$CDe5e525?$AA@ 0047ac70     bncs_ws_mandialogbase.obj
 0003:00009c80       ??_C@_0N@OJLICKL@?4i?5c?5?$CDe7e727?$AA@ 0047ac80     bncs_ws_mandialogbase.obj
 0003:00009c90       ??_C@_0N@GMCECJGN@ap?5c?5?$CDe7e7e7?$AA@ 0047ac90     bncs_ws_mandialogbase.obj
 0003:00009ca0       ??_C@_0N@HJCHPBJP@?$CDA?5c?5?$CDe8e828?$AA@ 0047aca0     bncs_ws_mandialogbase.obj
 0003:00009cb0       ??_C@_0N@GEMGILEE@?4h?5c?5?$CDe9e924?$AA@ 0047acb0     bncs_ws_mandialogbase.obj
 0003:00009cc0       ??_C@_0N@EADOCLMH@?4Q?5c?5?$CDeaead7?$AA@ 0047acc0     bncs_ws_mandialogbase.obj
 0003:00009cd0       ??_C@_0N@CPNBCEEE@aq?5c?5?$CDeaeaea?$AA@ 0047acd0     bncs_ws_mandialogbase.obj
 0003:00009ce0       ??_C@_0N@IDDCEMJF@ad?5c?5?$CDebeb14?$AA@ 0047ace0     bncs_ws_mandialogbase.obj
 0003:00009cf0       ??_C@_0N@LPFKPKHN@?$CDp?5c?5?$CDebeb2b?$AA@ 0047acf0     bncs_ws_mandialogbase.obj
 0003:00009d00       ??_C@_0N@NIDLHJHD@?4g?5c?5?$CDecec2a?$AA@ 0047ad00     bncs_ws_mandialogbase.obj
 0003:00009d10       ??_C@_0N@LAKMIJNN@?4f?5c?5?$CDeeee2a?$AA@ 0047ad10     bncs_ws_mandialogbase.obj
 0003:00009d20       ??_C@_0N@JDOMCMKH@?$CDf?5c?5?$CDeeee2e?$AA@ 0047ad20     bncs_ws_mandialogbase.obj
 0003:00009d30       ??_C@_0N@IAIKEENH@?46?5c?5?$CDeeeede?$AA@ 0047ad30     bncs_ws_mandialogbase.obj
 0003:00009d40       ??_C@_0N@PHKCAAJH@?$CDa?5c?5?$CDf0f030?$AA@ 0047ad40     bncs_ws_mandialogbase.obj
 0003:00009d50       ??_C@_0N@MPDIDOFK@?$CDr?5c?5?$CDf0f0e3?$AA@ 0047ad50     bncs_ws_mandialogbase.obj
 0003:00009d60       ??_C@_0N@PAEALINB@?4c?5c?5?$CDf1f12d?$AA@ 0047ad60     bncs_ws_mandialogbase.obj
 0003:00009d70       ??_C@_0N@CNELHPLD@?4e?5c?5?$CDf1f12f?$AA@ 0047ad70     bncs_ws_mandialogbase.obj
 0003:00009d80       ??_C@_0N@FLMNKDDJ@?4d?5c?5?$CDf1f130?$AA@ 0047ad80     bncs_ws_mandialogbase.obj
 0003:00009d90       ??_C@_0N@KNOLDHJI@?4b?5c?5?$CDf1f131?$AA@ 0047ad90     bncs_ws_mandialogbase.obj
 0003:00009da0       ??_C@_0N@BEPAHEBH@?4U?5c?5?$CDf3f3e7?$AA@ 0047ada0     bncs_ws_mandialogbase.obj
 0003:00009db0       ??_C@_0N@DBBBHIEK@?4O?5c?5?$CDf4f434?$AA@ 0047adb0     bncs_ws_mandialogbase.obj
 0003:00009dc0       ??_C@_0N@JKNCOHHG@?4G?5c?5?$CDf6f643?$AA@ 0047adc0     bncs_ws_mandialogbase.obj
 0003:00009dd0       ??_C@_0N@OHDJJNJA@?$CDw?5c?5?$CDf7f7f1?$AA@ 0047add0     bncs_ws_mandialogbase.obj
 0003:00009de0       ??_C@_0N@CGACLOPD@?4o?5c?5?$CDf8f836?$AA@ 0047ade0     bncs_ws_mandialogbase.obj
 0003:00009df0       ??_C@_0N@JNOELGNJ@?4a?5c?5?$CDf8f850?$AA@ 0047adf0     bncs_ws_mandialogbase.obj
 0003:00009e00       ??_C@_0N@DJDKOMCJ@?4S?5c?5?$CDf8f8f2?$AA@ 0047ae00     bncs_ws_mandialogbase.obj
 0003:00009e10       ??_C@_0N@JHADDHFJ@?4z?5c?5?$CDf9f930?$AA@ 0047ae10     bncs_ws_mandialogbase.obj
 0003:00009e20       ??_C@_0N@MACHGAOM@?4y?5c?5?$CDfafaba?$AA@ 0047ae20     bncs_ws_mandialogbase.obj
 0003:00009e30       ??_C@_0N@HGMPMKM@?$CDv?5c?5?$CDfafaf6?$AA@ 0047ae30     bncs_ws_mandialogbase.obj
 0003:00009e40       ??_C@_0N@LMNCNNHP@?4n?5c?5?$CDfbfbc2?$AA@ 0047ae40     bncs_ws_mandialogbase.obj
 0003:00009e50       ??_C@_0N@BCPFGHLN@?$CDs?5c?5?$CDfbfbf7?$AA@ 0047ae50     bncs_ws_mandialogbase.obj
 0003:00009e60       ??_C@_0N@HJIHOAJD@?42?5c?5?$CDfbfbf8?$AA@ 0047ae60     bncs_ws_mandialogbase.obj
 0003:00009e70       ??_C@_0N@GELBMJCE@?4?$CD?5c?5?$CDfcfcd2?$AA@ 0047ae70     bncs_ws_mandialogbase.obj
 0003:00009e80       ??_C@_0N@BAKLFLBD@?$CDu?5c?5?$CDfcfcf9?$AA@ 0047ae80     bncs_ws_mandialogbase.obj
 0003:00009e90       ??_C@_0N@DPMKKAKO@au?5c?5?$CDfdfdfa?$AA@ 0047ae90     bncs_ws_mandialogbase.obj
 0003:00009ea0       ??_C@_0N@PLKILEMF@?4R?5c?5?$CDfdfdfc?$AA@ 0047aea0     bncs_ws_mandialogbase.obj
 0003:00009eb0       ??_C@_0N@HODLCINJ@?$CDh?5c?5?$CDfefefd?$AA@ 0047aeb0     bncs_ws_mandialogbase.obj
 0003:00009ec0       ??_C@_0N@KPIAADIN@?4Y?5c?5?$CDfefefe?$AA@ 0047aec0     bncs_ws_mandialogbase.obj
 0003:00009ed0       ??_C@_0N@LJGPOKJ@Qt?5c?5?$CDffffff?$AA@ 0047aed0     bncs_ws_mandialogbase.obj
 0003:00009ee0       ??_C@_0CB@EGEKIDDA@QtQt?4?$CD?4a?4b?4c?4d?4e?4f?4g?4h?4i?4j?4k?4l?4m@ 0047aee0     bncs_ws_mandialogbase.obj
 0003:00009f08       ??_C@_0CB@GBCFFAAP@Qt?4n?4o?4p?4q?4q?4r?4s?4t?4q?4r?4t?4u?4v?4w?4x@ 0047af08     bncs_ws_mandialogbase.obj
 0003:00009f30       ??_C@_0CB@KCMMPENM@?4y?4z?4A?4s?4v?4t?4B?4s?4s?4B?4C?4D?4E?4s?4v?4F@ 0047af30     bncs_ws_mandialogbase.obj
 0003:00009f58       ??_C@_0CB@LBNFGPFN@?4G?4H?4I?4C?4B?4J?4u?4C?4K?4q?4L?4M?4u?4M?4q?4N@ 0047af58     bncs_ws_mandialogbase.obj
 0003:00009f80       ??_C@_0CB@NHIBPGAM@?4O?4D?4t?4P?4Q?4R?4S?4T?4t?4U?4V?4C?4w?4u?4t?4W@ 0047af80     bncs_ws_mandialogbase.obj
 0003:00009fa8       ??_C@_0CB@BDLGDJFF@?4O?4D?4X?4Y?4Z?4T?40?41?4D?42?43?4D?4D?4D?4D?44@ 0047afa8     bncs_ws_mandialogbase.obj
 0003:00009fd0       ??_C@_0CB@MPIFDOLG@?4O?4D?45?46?47?4D?4D?4D?4D?42?43?4D?4D?4D?4D?48@ 0047afd0     bncs_ws_mandialogbase.obj
 0003:00009ff8       ??_C@_0CB@KIFIHIHD@?4O?4D?49?$CD?4?4D?4D?4D?4D?4D?42?43?4D?4D?4D?4D?$CD?$CD@ 0047aff8     bncs_ws_mandialogbase.obj
 0003:0000a020       ??_C@_0CB@DDCPPJFL@?$CDa?4D?$CDb?$CDc?4D?4D?4D?4D?4D?42?43?4D?4D?4E?$CDd?$CDe@ 0047b020     bncs_ws_mandialogbase.obj
 0003:0000a048       ??_C@_0CB@KCAICCAH@?$CDf?4D?$CDg?$CDh?$CDi?4D?4t?4s?4D?42?$CDj?$CDk?$CDl?$CDm?$CDn?$CDo@ 0047b048     bncs_ws_mandialogbase.obj
 0003:0000a070       ??_C@_0CB@IHNEGIHF@?$CDp?4D?4C?$CDqQt?$CDr?$CDs?$CDt?$CDl?$CDu?$CDv?$CDw?$CDw?$CDx?$CDy?$CDz@ 0047b070     bncs_ws_mandialogbase.obj
 0003:0000a098       ??_C@_0CB@FFHGMEL@?$CDA?4D?4D?$CDB?$CDC?$CDD?$CDE?$CDF?$CDG?$CDH?$CDI?$CDJ?$CDK?$CDL?$CDM?$CDo@ 0047b098     bncs_ws_mandialogbase.obj
 0003:0000a0c0       ??_C@_0CB@JPKJIMEJ@?$CDN?$CDO?$CDk?$CDP?$CDQ?$CDR?$CDS?$CDT?$CDU?$CDV?$CDL?$CDW?$CDX?$CDY?$CDZ?$CD0@ 0047b0c0     bncs_ws_mandialogbase.obj
 0003:0000a0e8       ??_C@_0CB@JIIKKAHM@?$CD1?$CD2?$CD3?$CD4?$CD5?$CD6?$CD7?$CD8?$CD9a?4a?$CDaaabacadae@ 0047b0e8     bncs_ws_mandialogbase.obj
 0003:0000a110       ??_C@_0CB@DMDLNHMG@afagahaiajakalamanaoapaqarasatau@ 0047b110     bncs_ws_mandialogbase.obj
 0003:0000a138       ??_C@_0CB@LGAJCGAO@avawaxayazaAaBaCaDaEaFaFaFaG?4RQt@ 0047b138     bncs_ws_mandialogbase.obj
 0003:0000a160       ??_C@_0M@GLCJFAIF@32?532?5127?52?$AA@ 0047b160     bncs_ws_mandialogbase.obj
 0003:0000a170       ??_C@_0N@NODHKGFD@?$CDR?5c?5?$CD6c6c00?$AA@ 0047b170     bncs_ws_mandialogbase.obj
 0003:0000a180       ??_C@_0N@IHFAIDOE@?4A?5c?5?$CD7a7a01?$AA@ 0047b180     bncs_ws_mandialogbase.obj
 0003:0000a190       ??_C@_0N@EMKDJJPL@?4z?5c?5?$CD7e7e0a?$AA@ 0047b190     bncs_ws_mandialogbase.obj
 0003:0000a1a0       ??_C@_0N@FMFHBHNF@?$CDm?5c?5?$CD7f7f11?$AA@ 0047b1a0     bncs_ws_mandialogbase.obj
 0003:0000a1b0       ??_C@_0N@HKIHMGAN@?4x?5c?5?$CD81810d?$AA@ 0047b1b0     bncs_ws_mandialogbase.obj
 0003:0000a1c0       ??_C@_0N@LOIJNCMH@?4F?5c?5?$CD838300?$AA@ 0047b1c0     bncs_ws_mandialogbase.obj
 0003:0000a1d0       ??_C@_0N@PCNLECEG@?4y?5c?5?$CD838313?$AA@ 0047b1d0     bncs_ws_mandialogbase.obj
 0003:0000a1e0       ??_C@_0N@KLAFPDOH@?4J?5c?5?$CD84841c?$AA@ 0047b1e0     bncs_ws_mandialogbase.obj
 0003:0000a1f0       ??_C@_0N@EAGHABDM@?$CDo?5c?5?$CD878723?$AA@ 0047b1f0     bncs_ws_mandialogbase.obj
 0003:0000a200       ??_C@_0N@IGBIBNBI@?4V?5c?5?$CD88881b?$AA@ 0047b200     bncs_ws_mandialogbase.obj
 0003:0000a210       ??_C@_0N@MBIEHGLE@?$CDp?5c?5?$CD888825?$AA@ 0047b210     bncs_ws_mandialogbase.obj
 0003:0000a220       ??_C@_0N@GHIIHJDA@?$CDD?5c?5?$CD888848?$AA@ 0047b220     bncs_ws_mandialogbase.obj
 0003:0000a230       ??_C@_0N@ODDDCEBP@?$CDU?5c?5?$CD8a8a87?$AA@ 0047b230     bncs_ws_mandialogbase.obj
 0003:0000a240       ??_C@_0N@PJMGLIHC@?4L?5c?5?$CD8b8b01?$AA@ 0047b240     bncs_ws_mandialogbase.obj
 0003:0000a250       ??_C@_0N@ICGKHFOD@?$CD?4?5c?5?$CD8c8c2c?$AA@ 0047b250     bncs_ws_mandialogbase.obj
 0003:0000a260       ??_C@_0N@NJFJPHID@?$CDJ?5c?5?$CD8d8d54?$AA@ 0047b260     bncs_ws_mandialogbase.obj
 0003:0000a270       ??_C@_0N@KJFBLCOG@?$CDG?5c?5?$CD8d8d6b?$AA@ 0047b270     bncs_ws_mandialogbase.obj
 0003:0000a280       ??_C@_0N@OGGBCLCC@?$CDh?5c?5?$CD91912c?$AA@ 0047b280     bncs_ws_mandialogbase.obj
 0003:0000a290       ??_C@_0N@NLCDFCBJ@?4H?5c?5?$CD929204?$AA@ 0047b290     bncs_ws_mandialogbase.obj
 0003:0000a2a0       ??_C@_0N@HJEMGDBK@?$CDr?5c?5?$CD929235?$AA@ 0047b2a0     bncs_ws_mandialogbase.obj
 0003:0000a2b0       ??_C@_0N@OJHJDAPN@?$CDg?5c?5?$CD94940b?$AA@ 0047b2b0     bncs_ws_mandialogbase.obj
 0003:0000a2c0       ??_C@_0N@HEOEKEPL@?$CDe?5c?5?$CD95953b?$AA@ 0047b2c0     bncs_ws_mandialogbase.obj
 0003:0000a2d0       ??_C@_0N@JEFLHCFO@?$CD4?5c?5?$CD969696?$AA@ 0047b2d0     bncs_ws_mandialogbase.obj
 0003:0000a2e0       ??_C@_0N@NJOECCJK@?40?5c?5?$CD98983b?$AA@ 0047b2e0     bncs_ws_mandialogbase.obj
 0003:0000a2f0       ??_C@_0N@DKDPFLGD@?$CDM?5c?5?$CD98987c?$AA@ 0047b2f0     bncs_ws_mandialogbase.obj
 0003:0000a300       ??_C@_0N@IHBAIGLP@?$CDb?5c?5?$CD9a9a0d?$AA@ 0047b300     bncs_ws_mandialogbase.obj
 0003:0000a310       ??_C@_0N@GPDBBEBP@?4O?5c?5?$CD9b9b44?$AA@ 0047b310     bncs_ws_mandialogbase.obj
 0003:0000a320       ??_C@_0N@FOGFIFEI@?4w?5c?5?$CD9c9c12?$AA@ 0047b320     bncs_ws_mandialogbase.obj
 0003:0000a330       ??_C@_0N@NFCBEJEA@?$CDE?5c?5?$CD9d9d9b?$AA@ 0047b330     bncs_ws_mandialogbase.obj
 0003:0000a340       ??_C@_0N@DNIEGIHI@?$CDx?5c?5?$CD9e9e4c?$AA@ 0047b340     bncs_ws_mandialogbase.obj
 0003:0000a350       ??_C@_0N@NGLGOIEM@?43?5c?5?$CDa3a316?$AA@ 0047b350     bncs_ws_mandialogbase.obj
 0003:0000a360       ??_C@_0N@OLAHDFBG@?4R?5c?5?$CDa3a34d?$AA@ 0047b360     bncs_ws_mandialogbase.obj
 0003:0000a370       ??_C@_0N@LOANLMGN@?$CD8?5c?5?$CDa4a41b?$AA@ 0047b370     bncs_ws_mandialogbase.obj
 0003:0000a380       ??_C@_0N@LMGKKMCC@?$CDF?5c?5?$CDa4a4a3?$AA@ 0047b380     bncs_ws_mandialogbase.obj
 0003:0000a390       ??_C@_0N@CBPCMDJK@?4S?5c?5?$CDa5a555?$AA@ 0047b390     bncs_ws_mandialogbase.obj
 0003:0000a3a0       ??_C@_0N@PIGPEAOD@?$CDf?5c?5?$CDa7a75b?$AA@ 0047b3a0     bncs_ws_mandialogbase.obj
 0003:0000a3b0       ??_C@_0N@IEJPKPAE@?4T?5c?5?$CDa9a95c?$AA@ 0047b3b0     bncs_ws_mandialogbase.obj
 0003:0000a3c0       ??_C@_0N@JKOKEPNJ@?$CDV?5c?5?$CDa9a9a7?$AA@ 0047b3c0     bncs_ws_mandialogbase.obj
 0003:0000a3d0       ??_C@_0N@MEJMDJFF@?4N?5c?5?$CDaaaa1d?$AA@ 0047b3d0     bncs_ws_mandialogbase.obj
 0003:0000a3e0       ??_C@_0N@HIKPCIKH@?$CD5?5c?5?$CDababab?$AA@ 0047b3e0     bncs_ws_mandialogbase.obj
 0003:0000a3f0       ??_C@_0N@JMCNKCAH@?41?5c?5?$CDacac62?$AA@ 0047b3f0     bncs_ws_mandialogbase.obj
 0003:0000a400       ??_C@_0N@CDKNPPOO@?4M?5c?5?$CDadad23?$AA@ 0047b400     bncs_ws_mandialogbase.obj
 0003:0000a410       ??_C@_0N@GHCKGDCD@?$CD7?5c?5?$CDaeae4c?$AA@ 0047b410     bncs_ws_mandialogbase.obj
 0003:0000a420       ??_C@_0N@BBAJLPEO@?$CDn?5c?5?$CDafaf69?$AA@ 0047b420     bncs_ws_mandialogbase.obj
 0003:0000a430       ??_C@_0N@IJABJJEE@?4l?5c?5?$CDb0b04a?$AA@ 0047b430     bncs_ws_mandialogbase.obj
 0003:0000a440       ??_C@_0N@GLOLCOOL@?4P?5c?5?$CDb3b36e?$AA@ 0047b440     bncs_ws_mandialogbase.obj
 0003:0000a450       ??_C@_0N@DCMAMPJM@?4I?5c?5?$CDb4b42b?$AA@ 0047b450     bncs_ws_mandialogbase.obj
 0003:0000a460       ??_C@_0N@PHEEHPOB@?4Q?5c?5?$CDb5b572?$AA@ 0047b460     bncs_ws_mandialogbase.obj
 0003:0000a470       ??_C@_0N@JDFCBDPN@?$CDY?5c?5?$CDb5b5b5?$AA@ 0047b470     bncs_ws_mandialogbase.obj
 0003:0000a480       ??_C@_0N@NHNGLMKO@?$CDu?5c?5?$CDb6b689?$AA@ 0047b480     bncs_ws_mandialogbase.obj
 0003:0000a490       ??_C@_0N@NONKEKJJ@?4U?5c?5?$CDb8b876?$AA@ 0047b490     bncs_ws_mandialogbase.obj
 0003:0000a4a0       ??_C@_0N@IMBOOGMA@?4G?5c?5?$CDb9b92c?$AA@ 0047b4a0     bncs_ws_mandialogbase.obj
 0003:0000a4b0       ??_C@_0N@IKLDMAL@?$CD6?5c?5?$CDbaba00?$AA@ 0047b4b0     bncs_ws_mandialogbase.obj
 0003:0000a4c0       ??_C@_0N@KBBJDPKL@?4E?5c?5?$CDbbbb33?$AA@ 0047b4c0     bncs_ws_mandialogbase.obj
 0003:0000a4d0       ??_C@_0N@FGGHAFMK@?$CDZ?5c?5?$CDbbbbbb?$AA@ 0047b4d0     bncs_ws_mandialogbase.obj
 0003:0000a4e0       ??_C@_0N@BEKCEFB@?49?5c?5?$CDbcbc7d?$AA@ 0047b4e0     bncs_ws_mandialogbase.obj
 0003:0000a4f0       ??_C@_0N@HEENMPBO@?4C?5c?5?$CDbebe3c?$AA@ 0047b4f0     bncs_ws_mandialogbase.obj
 0003:0000a500       ??_C@_0N@NCPPFAOK@?$CDc?5c?5?$CDbebe84?$AA@ 0047b500     bncs_ws_mandialogbase.obj
 0003:0000a510       ??_C@_0N@GNLDPNII@?$CDt?5c?5?$CDbebe8a?$AA@ 0047b510     bncs_ws_mandialogbase.obj
 0003:0000a520       ??_C@_0N@JJOMKGDH@?$CDz?5c?5?$CDbfbf93?$AA@ 0047b520     bncs_ws_mandialogbase.obj
 0003:0000a530       ??_C@_0N@LHILMDKB@?4Y?5c?5?$CDc2c284?$AA@ 0047b530     bncs_ws_mandialogbase.obj
 0003:0000a540       ??_C@_0N@JLOODIG@?4t?5c?5?$CDc4c43a?$AA@ 0047b540     bncs_ws_mandialogbase.obj
 0003:0000a550       ??_C@_0N@IDFPKNCM@?$CDK?5c?5?$CDc4c4c4?$AA@ 0047b550     bncs_ws_mandialogbase.obj
 0003:0000a560       ??_C@_0N@NIGPLLAL@?$CD3?5c?5?$CDc5c500?$AA@ 0047b560     bncs_ws_mandialogbase.obj
 0003:0000a570       ??_C@_0N@LCJPAJP@?$CDH?5c?5?$CDc5c58b?$AA@ 0047b570     bncs_ws_mandialogbase.obj
 0003:0000a580       ??_C@_0N@DDMEFAGL@?$CDi?5c?5?$CDc5c592?$AA@ 0047b580     bncs_ws_mandialogbase.obj
 0003:0000a590       ??_C@_0N@EFBCHOKO@?$CD?$CD?5c?5?$CDc9c99a?$AA@ 0047b590     bncs_ws_mandialogbase.obj
 0003:0000a5a0       ??_C@_0N@KPGCNAEN@?4k?5c?5?$CDcbcb37?$AA@ 0047b5a0     bncs_ws_mandialogbase.obj
 0003:0000a5b0       ??_C@_0N@JJPALALC@?4j?5c?5?$CDcccc3c?$AA@ 0047b5b0     bncs_ws_mandialogbase.obj
 0003:0000a5c0       ??_C@_0N@BPEEDAAH@?$CDI?5c?5?$CDcccc92?$AA@ 0047b5c0     bncs_ws_mandialogbase.obj
 0003:0000a5d0       ??_C@_0N@CBPNPINH@?$CDW?5c?5?$CDcccccb?$AA@ 0047b5d0     bncs_ws_mandialogbase.obj
 0003:0000a5e0       ??_C@_0N@EDFHMMEK@?$CDS?5c?5?$CDcdcd40?$AA@ 0047b5e0     bncs_ws_mandialogbase.obj
 0003:0000a5f0       ??_C@_0N@GIHCGOKO@?$CD0?5c?5?$CDcece00?$AA@ 0047b5f0     bncs_ws_mandialogbase.obj
 0003:0000a600       ??_C@_0N@JMPMLDDE@?$CDq?5c?5?$CDcecea2?$AA@ 0047b600     bncs_ws_mandialogbase.obj
 0003:0000a610       ??_C@_0N@HLNAJEMP@?4i?5c?5?$CDd2d23e?$AA@ 0047b610     bncs_ws_mandialogbase.obj
 0003:0000a620       ??_C@_0N@BCIDNFNH@?$CDN?5c?5?$CDd2d29b?$AA@ 0047b620     bncs_ws_mandialogbase.obj
 0003:0000a630       ??_C@_0N@CLIDFKO@?$CDA?5c?5?$CDd2d2ab?$AA@ 0047b630     bncs_ws_mandialogbase.obj
 0003:0000a640       ??_C@_0N@DFHKBGPA@?4h?5c?5?$CDd3d344?$AA@ 0047b640     bncs_ws_mandialogbase.obj
 0003:0000a650       ??_C@_0N@BGKOMFH@?$CDC?5c?5?$CDd3d365?$AA@ 0047b650     bncs_ws_mandialogbase.obj
 0003:0000a660       ??_C@_0N@FCGKEBJD@?$CDd?5c?5?$CDd3d3a3?$AA@ 0047b660     bncs_ws_mandialogbase.obj
 0003:0000a670       ??_C@_0N@IFAPLALI@?$CDL?5c?5?$CDd4d4d4?$AA@ 0047b670     bncs_ws_mandialogbase.obj
 0003:0000a680       ??_C@_0N@FCONFKNL@?$CDB?5c?5?$CDd6d649?$AA@ 0047b680     bncs_ws_mandialogbase.obj
 0003:0000a690       ??_C@_0N@LGIHNIBK@?$CDa?5c?5?$CDd6d6b2?$AA@ 0047b690     bncs_ws_mandialogbase.obj
 0003:0000a6a0       ??_C@_0N@MFONFIHN@?48?5c?5?$CDd8d8b5?$AA@ 0047b6a0     bncs_ws_mandialogbase.obj
 0003:0000a6b0       ??_C@_0N@KDLFFKOB@?$CDO?5c?5?$CDd9d9a5?$AA@ 0047b6b0     bncs_ws_mandialogbase.obj
 0003:0000a6c0       ??_C@_0N@LIPBHJBG@?$CDQ?5c?5?$CDdada00?$AA@ 0047b6c0     bncs_ws_mandialogbase.obj
 0003:0000a6d0       ??_C@_0N@FFJKIFNG@?4g?5c?5?$CDdada46?$AA@ 0047b6d0     bncs_ws_mandialogbase.obj
 0003:0000a6e0       ??_C@_0N@FCEBCHHN@?$CDX?5c?5?$CDdbdbdb?$AA@ 0047b6e0     bncs_ws_mandialogbase.obj
 0003:0000a6f0       ??_C@_0N@NHJCBLNL@?$CDy?5c?5?$CDdcdc4c?$AA@ 0047b6f0     bncs_ws_mandialogbase.obj
 0003:0000a700       ??_C@_0N@KEHEOFEP@?$CDP?5c?5?$CDdcdc64?$AA@ 0047b700     bncs_ws_mandialogbase.obj
 0003:0000a710       ??_C@_0N@ICHGEAGP@?$CDv?5c?5?$CDdcdcbd?$AA@ 0047b710     bncs_ws_mandialogbase.obj
 0003:0000a720       ??_C@_0N@EENOCBOF@?$CDw?5c?5?$CDdede51?$AA@ 0047b720     bncs_ws_mandialogbase.obj
 0003:0000a730       ??_C@_0N@LHJLDKPG@?45?5c?5?$CDdedec1?$AA@ 0047b730     bncs_ws_mandialogbase.obj
 0003:0000a740       ??_C@_0N@GKMOMGAM@?44?5c?5?$CDe0e0c4?$AA@ 0047b740     bncs_ws_mandialogbase.obj
 0003:0000a750       ??_C@_0N@JHBMDPDP@?4f?5c?5?$CDe2e24e?$AA@ 0047b750     bncs_ws_mandialogbase.obj
 0003:0000a760       ??_C@_0N@ENMCFPGG@?4W?5c?5?$CDe3e3cb?$AA@ 0047b760     bncs_ws_mandialogbase.obj
 0003:0000a770       ??_C@_0N@LBNCFHCM@?4e?5c?5?$CDe4e454?$AA@ 0047b770     bncs_ws_mandialogbase.obj
 0003:0000a780       ??_C@_0N@KFDPHIJB@?$CD1?5c?5?$CDe4e4e4?$AA@ 0047b780     bncs_ws_mandialogbase.obj
 0003:0000a790       ??_C@_0N@MAJKBPIA@?$CDk?5c?5?$CDe5e558?$AA@ 0047b790     bncs_ws_mandialogbase.obj
 0003:0000a7a0       ??_C@_0N@JHCNMMOA@?$CDT?5c?5?$CDe7e711?$AA@ 0047b7a0     bncs_ws_mandialogbase.obj
 0003:0000a7b0       ??_C@_0N@CLGPJGGC@?$CDj?5c?5?$CDe7e7d2?$AA@ 0047b7b0     bncs_ws_mandialogbase.obj
 0003:0000a7c0       ??_C@_0N@HNJIOBAB@?4d?5c?5?$CDe9e955?$AA@ 0047b7c0     bncs_ws_mandialogbase.obj
 0003:0000a7d0       ??_C@_0N@PEOFHBNN@?4Z?5c?5?$CDe9e9d4?$AA@ 0047b7d0     bncs_ws_mandialogbase.obj
 0003:0000a7e0       ??_C@_0N@KAMGAJM@?$CDl?5c?5?$CDeaead8?$AA@ 0047b7e0     bncs_ws_mandialogbase.obj
 0003:0000a7f0       ??_C@_0N@MDPHGOBH@?4q?5c?5?$CDebeb03?$AA@ 0047b7f0     bncs_ws_mandialogbase.obj
 0003:0000a800       ??_C@_0N@OCOJHPCM@?4p?5c?5?$CDebeb0c?$AA@ 0047b800     bncs_ws_mandialogbase.obj
 0003:0000a810       ??_C@_0N@FEPMIOAC@?4o?5c?5?$CDecec13?$AA@ 0047b810     bncs_ws_mandialogbase.obj
 0003:0000a820       ??_C@_0N@PFFPAHEK@?4c?5c?5?$CDecec5b?$AA@ 0047b820     bncs_ws_mandialogbase.obj
 0003:0000a830       ??_C@_0N@MLMMJFDJ@?$CDs?5c?5?$CDececec?$AA@ 0047b830     bncs_ws_mandialogbase.obj
 0003:0000a840       ??_C@_0N@FABLCHJP@?47?5c?5?$CDefefe1?$AA@ 0047b840     bncs_ws_mandialogbase.obj
 0003:0000a850       ??_C@_0N@GOKKOCDL@?4b?5c?5?$CDf1f15d?$AA@ 0047b850     bncs_ws_mandialogbase.obj
 0003:0000a860       ??_C@_0N@DIEOEBGE@?4?$CD?5c?5?$CDf1f183?$AA@ 0047b860     bncs_ws_mandialogbase.obj
 0003:0000a870       ??_C@_0N@NPNBEBNC@?4s?5c?5?$CDf3f301?$AA@ 0047b870     bncs_ws_mandialogbase.obj
 0003:0000a880       ??_C@_0N@OOEJDMEI@?4r?5c?5?$CDf4f412?$AA@ 0047b880     bncs_ws_mandialogbase.obj
 0003:0000a890       ??_C@_0N@MGNKLCEH@?4a?5c?5?$CDf4f464?$AA@ 0047b890     bncs_ws_mandialogbase.obj
 0003:0000a8a0       ??_C@_0N@MCCGLPP@?46?5c?5?$CDf4f4eb?$AA@ 0047b8a0     bncs_ws_mandialogbase.obj
 0003:0000a8b0       ??_C@_0N@MMFEPBPE@?$CD2?5c?5?$CDf5f5f5?$AA@ 0047b8b0     bncs_ws_mandialogbase.obj
 0003:0000a8c0       ??_C@_0N@POBFLDKM@?4B?5c?5?$CDf7f70a?$AA@ 0047b8c0     bncs_ws_mandialogbase.obj
 0003:0000a8d0       ??_C@_0N@HDCFBAFN@?42?5c?5?$CDfafaf6?$AA@ 0047b8d0     bncs_ws_mandialogbase.obj
 0003:0000a8e0       ??_C@_0N@OILBLHPI@?4m?5c?5?$CDfbfb35?$AA@ 0047b8e0     bncs_ws_mandialogbase.obj
 0003:0000a8f0       ??_C@_0N@HPBPGBAG@?4n?5c?5?$CDfcfc0f?$AA@ 0047b8f0     bncs_ws_mandialogbase.obj
 0003:0000a900       ??_C@_0N@LDAFDJCC@?4v?5c?5?$CDfcfc13?$AA@ 0047b900     bncs_ws_mandialogbase.obj
 0003:0000a910       ??_C@_0N@PBKMMMON@?4D?5c?5?$CDfcfc1c?$AA@ 0047b910     bncs_ws_mandialogbase.obj
 0003:0000a920       ??_C@_0N@CFCJIMEA@?4u?5c?5?$CDfcfc28?$AA@ 0047b920     bncs_ws_mandialogbase.obj
 0003:0000a930       ??_C@_0N@PJEFLKLM@?4K?5c?5?$CDfefe01?$AA@ 0047b930     bncs_ws_mandialogbase.obj
 0003:0000a940       ??_C@_0N@ILCJMBGB@?4X?5c?5?$CDffffff?$AA@ 0047b940     bncs_ws_mandialogbase.obj
 0003:0000a950       ??_C@_0EB@DBINDDOG@QtQtQtQtQtQt?4?$CD?4a?4a?4b?4a?4b?4a?4b?4a?4b@ 0047b950     bncs_ws_mandialogbase.obj
 0003:0000a9a0       ??_C@_0EB@GKNMEEKK@QtQtQtQtQt?4?$CD?4m?4n?4o?4p?4p?4q?4q?4r?4p?4q@ 0047b9a0     bncs_ws_mandialogbase.obj
 0003:0000a9f0       ??_C@_0EB@IENBMHCA@QtQtQtQt?4?$CD?4u?4v?4w?4x?4y?4y?4z?4x?4y?4y?4x@ 0047b9f0     bncs_ws_mandialogbase.obj
 0003:0000aa40       ??_C@_0EB@FDACDEDP@QtQtQt?4?$CD?4D?4B?4w?4z?4A?4y?4x?4A?4y?4y?4y?4y@ 0047ba40     bncs_ws_mandialogbase.obj
 0003:0000aa90       ??_C@_0EB@MHIEDGII@QtQt?4?$CD?4v?4s?4w?4y?4y?4y?4y?4F?4z?4y?4x?4y?4y@ 0047ba90     bncs_ws_mandialogbase.obj
 0003:0000aae0       ??_C@_0EB@PGPDBMBK@Qt?4?$CD?4v?4s?4H?4y?4y?4z?4x?4y?4y?4z?4y?4x?4x?4y@ 0047bae0     bncs_ws_mandialogbase.obj
 0003:0000ab30       ??_C@_0EB@MIGJINPH@?4?$CD?4v?4q?4H?4z?4y?4x?4A?4A?4y?4y?4x?4y?4A?4A?4y@ 0047bb30     bncs_ws_mandialogbase.obj
 0003:0000ab80       ??_C@_0EB@OEOBPIPM@?4a?4K?4L?4A?4x?4y?4x?4z?4x?4y?4x?4y?4y?4A?4A?4x@ 0047bb80     bncs_ws_mandialogbase.obj
 0003:0000abd0       ??_C@_0EB@MODPLLAD@?4a?4s?4A?4A?4x?4y?4y?4y?4x?4x?4A?4y?4x?4A?4A?4x@ 0047bbd0     bncs_ws_mandialogbase.obj
 0003:0000ac20       ??_C@_0EB@IMOIDKLJ@?4a?4s?4A?4A?4A?4A?4A?4A?4A?4A?4A?4A?4A?4A?4A?4A@ 0047bc20     bncs_ws_mandialogbase.obj
 0003:0000ac70       ??_C@_0EB@HNDFFCAI@?4a?4s?4A?4A?4A?4A?4O?4P?4Q?4R?4x?4A?4A?4O?4S?4y@ 0047bc70     bncs_ws_mandialogbase.obj
 0003:0000acc0       ??_C@_0EB@JMCBNOOM@?4a?4s?4A?4A?4V?4W?4X?4X?4X?4X?4Y?4A?4A?4Z?4X?40@ 0047bcc0     bncs_ws_mandialogbase.obj
 0003:0000ad10       ??_C@_0EB@OGIIHCHA@?4a?4s?4A?4z?4W?4X?4X?44?45?46?4Y?4A?4A?4Z?4X?40@ 0047bd10     bncs_ws_mandialogbase.obj
 0003:0000ad60       ??_C@_0EB@BJKIGBKF@?4a?4s?4A?41?4X?42?40?4A?4A?4x?$CD?4?4A?4A?4Z?4X?40@ 0047bd60     bncs_ws_mandialogbase.obj
 0003:0000adb0       ??_C@_0EB@ENFLGFHC@?4a?4s?4A?48?4X?$CD?$CD?4A?4A?4A?4A?4A?4A?4A?4Z?4X?40@ 0047bdb0     bncs_ws_mandialogbase.obj
 0003:0000ae00       ??_C@_0EB@FJMLCEEG@?4a?4p?4A?46?4X?4S?4A?4A?4A?4A?4A?4A?4A?4Z?4X?40@ 0047be00     bncs_ws_mandialogbase.obj
 0003:0000ae50       ??_C@_0EB@EOKPIEFL@?4a?4s?4z?4X?4X?$CDe?4A?4A?4A?4A?4A?4A?4A?4Z?4X?40@ 0047be50     bncs_ws_mandialogbase.obj
 0003:0000aea0       ??_C@_0EB@HKNHJIBC@?4c?4s?4x?4X?4X?$CDh?4A?4A?4A?4A?4A?4A?4A?4Z?4X?40@ 0047bea0     bncs_ws_mandialogbase.obj
 0003:0000aef0       ??_C@_0EB@LIJONDHA@?4c?4s?4x?4X?4X?4O?4A?4A?4A?4A?4A?4A?4A?4Z?4X?40@ 0047bef0     bncs_ws_mandialogbase.obj
 0003:0000af40       ??_C@_0EB@KJBIGAMO@?$CDk?4s?4A?$CDl?4X?49?4A?4A?4A?4A?4A?4A?4A?4Z?4X?40@ 0047bf40     bncs_ws_mandialogbase.obj
 0003:0000af90       ??_C@_0EB@LPCABDOD@?$CDk?4s?4A?$CDq?4X?47?4z?4A?4A?4A?4A?4A?4A?$CDj?4X?4O@ 0047bf90     bncs_ws_mandialogbase.obj
 0003:0000afe0       ??_C@_0EB@LNMAJME@?$CDk?4s?4A?40?4X?4X?4Z?4Q?4P?$CDa?$CDc?4A?4z?4Z?4X?$CD?$CD@ 0047bfe0     bncs_ws_mandialogbase.obj
 0003:0000b030       ??_C@_0EB@BAHBKFCG@?$CDw?4s?4A?4A?$CDc?4X?4X?4X?4X?4X?$CDt?$CDm?$CDm?$CDl?4X?4X@ 0047c030     bncs_ws_mandialogbase.obj
 0003:0000b080       ??_C@_0EB@HOEPLALE@?$CDy?4s?4A?4A?4A?4O?$CDd?4W?$CDv?$CDc?$CD?4?4J?4J?$CDz?$CDA?$CDA@ 0047c080     bncs_ws_mandialogbase.obj
 0003:0000b0d0       ??_C@_0EB@DCCDACJN@?$CDB?4s?4A?4A?4A?4z?$CDm?$CDm?$CDm?$CDo?$CDo?$CDp?$CD?4?$CDr?$CDr?$CDe@ 0047c0d0     bncs_ws_mandialogbase.obj
 0003:0000b120       ??_C@_0EB@PFOFAIPI@?$CDB?4s?4z?4z?$CDm?$CDm?4J?$CDo?$CDp?$CD?4?$CD?4?$CDD?$CDE?$CDF?$CDG?$CDx@ 0047c120     bncs_ws_mandialogbase.obj
 0003:0000b170       ??_C@_0EB@HGHEAEDO@?4h?4s?4y?$CDm?4J?$CDp?$CDo?$CDp?$CD?4?$CDr?$CDe?$CDJ?$CDK?$CDL?$CDM?41@ 0047c170     bncs_ws_mandialogbase.obj
 0003:0000b1c0       ??_C@_0EB@CNINNALG@?$CDS?$CDT?$CDU?$CDE?$CDE?$CDE?$CDE?$CDE?$CDF?$CDF?$CDV?$CDV?$CDW?$CDX?$CDY?$CDY@ 0047c1c0     bncs_ws_mandialogbase.obj
 0003:0000b210       ??_C@_0EB@HDPABMIN@?$CDS?$CDT?$CDF?$CDW?$CDK?$CDW?$CDW?$CDW?$CDW?$CDL?$CDL?$CDX?$CDX?$CDX?$CDX?$CD1@ 0047c210     bncs_ws_mandialogbase.obj
 0003:0000b260       ??_C@_0EB@LMGPMCIF@?4j?$CDT?$CD4?$CD5?$CD5?$CDY?$CD5?$CDY?$CDY?$CDZ?$CDZ?$CDZ?$CDK?$CDK?$CDW?$CDW@ 0047c260     bncs_ws_mandialogbase.obj
 0003:0000b2b0       ??_C@_0EB@HNHHMJCD@?4t?4K?$CDT?$CDT?$CDT?$CDT?4o?4o?$CDT?4o?4o?4o?4o?4o?4o?4o@ 0047c2b0     bncs_ws_mandialogbase.obj
 0003:0000b300       ??_C@_0EB@BMIAKJPC@?$CD7?4C?4E?4E?4E?4I?4M?4M?4M?4N?$CD8?$CDh?4w?4w?4w?$CDg@ 0047c300     bncs_ws_mandialogbase.obj
 0003:0000b354       ??_SQWidget@@6BQObject@@@  0047c354     bncs_ws_mandialogbase.obj
 0003:0000b560       ??_SQWidget@@6BQPaintDevice@@@ 0047c560     bncs_ws_mandialogbase.obj
 0003:0000b58c       ??_SQToolBar@@6BQObject@@@ 0047c58c     bncs_ws_mandialogbase.obj
 0003:0000b814       ??_SQToolBar@@6BQPaintDevice@@@ 0047c814     bncs_ws_mandialogbase.obj
 0003:0000b840       ??_7bncs_ws_manDialogBase@@6BQObject@@@ 0047c840     bncs_ws_mandialogbase.obj
 0003:0000bac4       ??_7bncs_ws_manDialogBase@@6BQPaintDevice@@@ 0047cac4     bncs_ws_mandialogbase.obj
 0003:0000baf4       ??_SQGroupBox@@6BQObject@@@ 0047caf4     bncs_ws_mandialogbase.obj
 0003:0000bd34       ??_SQGroupBox@@6BQPaintDevice@@@ 0047cd34     bncs_ws_mandialogbase.obj
 0003:0000bd64       ??_SQAction@@6B@           0047cd64     bncs_ws_mandialogbase.obj
 0003:0000be0c       ??_SQPopupMenu@@6BQObject@@@ 0047ce0c     bncs_ws_mandialogbase.obj
 0003:0000c04c       ??_SQPopupMenu@@6BQPaintDevice@@@ 0047d04c     bncs_ws_mandialogbase.obj
 0003:0000c078       ??_SQPopupMenu@@6B@        0047d078     bncs_ws_mandialogbase.obj
 0003:0000c0a4       ??_SQMenuBar@@6BQObject@@@ 0047d0a4     bncs_ws_mandialogbase.obj
 0003:0000c2dc       ??_SQMenuBar@@6BQPaintDevice@@@ 0047d2dc     bncs_ws_mandialogbase.obj
 0003:0000c308       ??_SQMenuBar@@6B@          0047d308     bncs_ws_mandialogbase.obj
 0003:0000c330       ??_C@_0BG@PDMJCFBH@bncs_ws_manDialogBase?$AA@ 0047d330     bncs_ws_mandialogbase.obj
 0003:0000c34c       ??_C@_0BC@LHPKNN@qt_central_widget?$AA@ 0047d34c     bncs_ws_mandialogbase.obj
 0003:0000c364       ??_C@_0BM@GFNIEOAC@bncs_ws_manDialogBaseLayout?$AA@ 0047d364     bncs_ws_mandialogbase.obj
 0003:0000c388       ??_C@_09JAGLPBKP@groupBox1?$AA@ 0047d388     bncs_ws_mandialogbase.obj
 0003:0000c394       ??_C@_07KKDPDMDC@layout5?$AA@ 0047d394     bncs_ws_mandialogbase.obj
 0003:0000c3a0       ??_C@_0M@OBNNLOMK@StatusLabel?$AA@ 0047d3a0     bncs_ws_mandialogbase.obj
 0003:0000c3b0       ??_C@_0N@CDKBAMMB@ProgramLabel?$AA@ 0047d3b0     bncs_ws_mandialogbase.obj
 0003:0000c3c0       ??_C@_07OFHOKKPF@layout2?$AA@ 0047d3c0     bncs_ws_mandialogbase.obj
 0003:0000c3cc       ??_C@_09LLEGKCGM@groupBox2?$AA@ 0047d3cc     bncs_ws_mandialogbase.obj
 0003:0000c3d8       ??_C@_0BD@LDGAEDOM@labelWSTrackerText?$AA@ 0047d3d8     bncs_ws_mandialogbase.obj
 0003:0000c3f0       ??_C@_0O@BKPAMJOG@ViewLogButton?$AA@ 0047d3f0     bncs_ws_mandialogbase.obj
 0003:0000c400       ??_C@_0O@DPGNDHOO@StopAllButton?$AA@ 0047d400     bncs_ws_mandialogbase.obj
 0003:0000c410       ??_C@_0BB@MOMEGLNP@RestartAllButton?$AA@ 0047d410     bncs_ws_mandialogbase.obj
 0003:0000c424       ??_C@_0BL@BHLNBDIL@RestartAllWithUpdateButton?$AA@ 0047d424     bncs_ws_mandialogbase.obj
 0003:0000c444       ??_C@_0BF@HDGABDAB@programStopAllAction?$AA@ 0047d444     bncs_ws_mandialogbase.obj
 0003:0000c460       ??_C@_0BI@JHNDGILK@programRestartAllAction?$AA@ 0047d460     bncs_ws_mandialogbase.obj
 0003:0000c47c       ??_C@_0BO@FDLFHLNN@programResyncAndRestartAction?$AA@ 0047d47c     bncs_ws_mandialogbase.obj
 0003:0000c4a0       ??_C@_0P@EKBFIKAC@fileExitAction?$AA@ 0047d4a0     bncs_ws_mandialogbase.obj
 0003:0000c4b4       ??_C@_0BA@LLFKJKGK@helpAboutAction?$AA@ 0047d4b4     bncs_ws_mandialogbase.obj
 0003:0000c4c8       ??_C@_07MJHKBEGM@openCmd?$AA@ 0047d4c8     bncs_ws_mandialogbase.obj
 0003:0000c4d4       ??_C@_09MPAHICOK@openVisEd?$AA@ 0047d4d4     bncs_ws_mandialogbase.obj
 0003:0000c4e0       ??_C@_0N@EOLLDPCL@openV3Caplog?$AA@ 0047d4e0     bncs_ws_mandialogbase.obj
 0003:0000c4f0       ??_C@_0O@NJOGPLGP@openNetViewer?$AA@ 0047d4f0     bncs_ws_mandialogbase.obj
 0003:0000c500       ??_C@_0O@BBEEFPOD@MenuBarEditor?$AA@ 0047d500     bncs_ws_mandialogbase.obj
 0003:0000c510       ??_C@_06PGDKHFME@Status?$AA@ 0047d510     bncs_ws_mandialogbase.obj
 0003:0000c518       ??_C@_0BC@GCGECAOH@WSTracker?5Message?$AA@ 0047d518     bncs_ws_mandialogbase.obj
 0003:0000c530       ??_C@_08GBIHIPPK@View?5Log?$AA@ 0047d530     bncs_ws_mandialogbase.obj
 0003:0000c53c       ??_C@_0BC@JKNFDLLB@Resync?5?$CG?$CG?5Restart?$AA@ 0047d53c     bncs_ws_mandialogbase.obj
 0003:0000c554       ??_C@_05PNPHNLAJ@E?$CGxit?$AA@ 0047d554     bncs_ws_mandialogbase.obj
 0003:0000c55c       ??_C@_06JDCECANP@?$CGAbout?$AA@ 0047d55c     bncs_ws_mandialogbase.obj
 0003:0000c564       ??_C@_0BA@LKKGBCLL@Open?5Cmd?5Window?$AA@ 0047d564     bncs_ws_mandialogbase.obj
 0003:0000c578       ??_C@_05NNOKJPNF@Alt?$CLC?$AA@ 0047d578     bncs_ws_mandialogbase.obj
 0003:0000c580       ??_C@_0BD@KIOEAGIC@Open?5Visual?5Editor?$AA@ 0047d580     bncs_ws_mandialogbase.obj
 0003:0000c598       ??_C@_05OKFPHJMB@Alt?$CLV?$AA@ 0047d598     bncs_ws_mandialogbase.obj
 0003:0000c5a0       ??_C@_06PMAGBHAK@Action?$AA@ 0047d5a0     bncs_ws_mandialogbase.obj
 0003:0000c5a8       ??_C@_0BA@CNMOOOHO@Open?5Net?5Viewer?$AA@ 0047d5a8     bncs_ws_mandialogbase.obj
 0003:0000c5bc       ??_C@_05GIEEOBJI@Alt?$CLN?$AA@ 0047d5bc     bncs_ws_mandialogbase.obj
 0003:0000c5c4       ??_C@_07FGBMEDIO@Toolbar?$AA@ 0047d5c4     bncs_ws_mandialogbase.obj
 0003:0000c5d0       ??_C@_05FHBCAALB@?$CGFile?$AA@ 0047d5d0     bncs_ws_mandialogbase.obj
 0003:0000c5d8       ??_C@_08EMAMOIIE@?$CGProgram?$AA@ 0047d5d8     bncs_ws_mandialogbase.obj
 0003:0000c5e4       ??_C@_05JFEBOHHM@?$CGHelp?$AA@ 0047d5e4     bncs_ws_mandialogbase.obj
 0003:0000c5f0       ??_7csi_startDialogBase@@6BQObject@@@ 0047d5f0     csi_startdialogbase.obj
 0003:0000c800       ??_7csi_startDialogBase@@6BQPaintDevice@@@ 0047d800     csi_startdialogbase.obj
 0003:0000c82c       ??_SQListView@@6BQObject@@@ 0047d82c     csi_startdialogbase.obj
 0003:0000cba4       ??_SQListView@@6BQPaintDevice@@@ 0047dba4     csi_startdialogbase.obj
 0003:0000cbcc       ??_C@_0BE@KOFOPAGK@csi_startDialogBase?$AA@ 0047dbcc     csi_startdialogbase.obj
 0003:0000cbe4       ??_C@_0BK@NHICMEMK@csi_startDialogBaseLayout?$AA@ 0047dbe4     csi_startdialogbase.obj
 0003:0000cc04       ??_C@_09MIHIKGED@listView1?$AA@ 0047dc04     csi_startdialogbase.obj
 0003:0000cc10       ??_C@_0M@NJALGCHB@Application?$AA@ 0047dc10     csi_startdialogbase.obj
 0003:0000cc20       ??_C@_07IPHOJOGI@Crashes?$AA@ 0047dc20     csi_startdialogbase.obj
 0003:0000cc2c       ??_C@_0L@HEGDCAMK@Last?5Event?$AA@ 0047dc2c     csi_startdialogbase.obj
 0003:0000cc3c       ??_C@_09LOINMIFK@Arguments?$AA@ 0047dc3c     csi_startdialogbase.obj
 0003:0000cc48       ??_C@_0BC@IINCGMGA@Working?5Directory?$AA@ 0047dc48     csi_startdialogbase.obj
 0003:0000cc60       ??_C@_0P@BHLKEFJH@Settling?5Delay?$AA@ 0047dc60     csi_startdialogbase.obj
 0003:0000cc74       ??_C@_0M@LBCINCOO@WaitForIdle?$AA@ 0047dc74     csi_startdialogbase.obj
 0003:0000cc84       ??_C@_07PMGFJLLE@layout3?$AA@ 0047dc84     csi_startdialogbase.obj
 0003:0000cc90       ??_C@_07KKHGBOCH@doStart?$AA@ 0047dc90     csi_startdialogbase.obj
 0003:0000cc9c       ??_C@_06BDJCICMD@doStop?$AA@ 0047dc9c     csi_startdialogbase.obj
 0003:0000cca4       ??_C@_0N@BKHFFCNA@doGoFromHere?$AA@ 0047dca4     csi_startdialogbase.obj
 0003:0000ccb4       ??_C@_0N@JCBFPHH@doGoSelected?$AA@ 0047dcb4     csi_startdialogbase.obj
 0003:0000ccc4       ??_C@_09OLOKFMOO@csi_start?$AA@ 0047dcc4     csi_startdialogbase.obj
 0003:0000ccd4       ??_7logDialogBase@@6BQObject@@@ 0047dcd4     logdialog.obj
 0003:0000cef4       ??_7logDialogBase@@6BQPaintDevice@@@ 0047def4     logdialog.obj
 0003:0000cf24       ??_SQListBox@@6BQObject@@@ 0047df24     logdialog.obj
 0003:0000d254       ??_SQListBox@@6BQPaintDevice@@@ 0047e254     logdialog.obj
 0003:0000d27c       ??_C@_0O@PNIBKGFO@logDialogBase?$AA@ 0047e27c     logdialog.obj
 0003:0000d28c       ??_C@_0BE@OPPHICDM@logDialogBaseLayout?$AA@ 0047e28c     logdialog.obj
 0003:0000d2a4       ??_C@_0L@FJBBOBAF@listBoxLog?$AA@ 0047e2a4     logdialog.obj
 0003:0000d2b4       ??_C@_0O@HCNHHCLP@refreshButton?$AA@ 0047e2b4     logdialog.obj
 0003:0000d2c4       ??_C@_0M@CIGAMOHH@closeButton?$AA@ 0047e2c4     logdialog.obj
 0003:0000d2d4       ??_C@_0BP@NOEBBMD@Workstation?5Manager?5Log?5Viewer?$AA@ 0047e2d4     logdialog.obj
 0003:0000d2fc       ??_C@_07POIENIBA@Refresh?$AA@ 0047e2fc     logdialog.obj
 0003:0000d308       ??_C@_05LGELBCGM@Close?$AA@ 0047e308     logdialog.obj
 0003:0000d550       ??_C@_09JHHGEDMF@doRestart?$AA@ 0047e550     moc_bncs_ws_mandialog.obj
 0003:0000d55c       ??_C@_06HPLOLCOD@iDelay?$AA@ 0047e55c     moc_bncs_ws_mandialog.obj
 0003:0000d564       ??_C@_0N@JNBHBBBG@statusChange?$AA@ 0047e564     moc_bncs_ws_mandialog.obj
 0003:0000d574       ??_C@_0BD@DGPCKDDE@RestartButtonClick?$AA@ 0047e574     moc_bncs_ws_mandialog.obj
 0003:0000d58c       ??_C@_0BM@MMOLFDFO@UpdateAndRestartButtonClick?$AA@ 0047e58c     moc_bncs_ws_mandialog.obj
 0003:0000d5b0       ??_C@_0BA@JCHCEIPA@StopButtonClick?$AA@ 0047e5b0     moc_bncs_ws_mandialog.obj
 0003:0000d5c4       ??_C@_0L@HGFJOENK@AboutClick?$AA@ 0047e5c4     moc_bncs_ws_mandialog.obj
 0003:0000d5d4       ??_C@_0O@CHMGFNNN@showLogViewer?$AA@ 0047e5d4     moc_bncs_ws_mandialog.obj
 0003:0000d5e4       ??_C@_04JCNKDJHE@sMsg?$AA@ 0047e5e4     moc_bncs_ws_mandialog.obj
 0003:0000d5ec       ??_C@_08FMMPDBEF@doLaunch?$AA@ 0047e5ec     moc_bncs_ws_mandialog.obj
 0003:0000d5f8       ??_C@_0O@NEBMMAGN@programSelect?$AA@ 0047e5f8     moc_bncs_ws_mandialog.obj
 0003:0000d608       ??_C@_03GLPMCEFE@msg?$AA@  0047e608     moc_bncs_ws_mandialog.obj
 0003:0000d60c       ??_C@_0BJ@FNJIIOEB@singletonMessageReceived?$AA@ 0047e60c     moc_bncs_ws_mandialog.obj
 0003:0000d62c       ??_C@_0M@KKECPFOD@slotOpenCmd?$AA@ 0047e62c     moc_bncs_ws_mandialog.obj
 0003:0000d63c       ??_C@_0O@KEBBLHLI@slotOpenVisEd?$AA@ 0047e63c     moc_bncs_ws_mandialog.obj
 0003:0000d64c       ??_C@_0BB@HHGGLCHJ@slotOpenV3Caplog?$AA@ 0047e64c     moc_bncs_ws_mandialog.obj
 0003:0000d660       ??_C@_0BC@FMLKBGDK@slotOpenNetViewer?$AA@ 0047e660     moc_bncs_ws_mandialog.obj
 0003:0000d678       ??_C@_08JBHJPNKA@doStop?$CI?$CJ?$AA@ 0047e678     moc_bncs_ws_mandialog.obj
 0003:0000d684       ??_C@_0M@CLEACMOE@doRestart?$CI?$CJ?$AA@ 0047e684     moc_bncs_ws_mandialog.obj
 0003:0000d694       ??_C@_0P@HFLCNFHH@doRestart?$CIint?$CJ?$AA@ 0047e694     moc_bncs_ws_mandialog.obj
 0003:0000d6a8       ??_C@_0N@HECJNOAJ@doStart?$CIint?$CJ?$AA@ 0047e6a8     moc_bncs_ws_mandialog.obj
 0003:0000d6b8       ??_C@_0M@MFAHIMIH@doStop?$CIint?$CJ?$AA@ 0047e6b8     moc_bncs_ws_mandialog.obj
 0003:0000d6c8       ??_C@_0L@CKHOCLLM@startAll?$CI?$CJ?$AA@ 0047e6c8     moc_bncs_ws_mandialog.obj
 0003:0000d6d8       ??_C@_0CI@EBCOJPAK@statusChange?$CIworkstationStatus?3?3@ 0047e6d8     moc_bncs_ws_mandialog.obj
 0003:0000d708       ??_C@_0BF@IGONLPOE@RestartButtonClick?$CI?$CJ?$AA@ 0047e708     moc_bncs_ws_mandialog.obj
 0003:0000d724       ??_C@_0BO@KEECDEMM@UpdateAndRestartButtonClick?$CI?$CJ?$AA@ 0047e724     moc_bncs_ws_mandialog.obj
 0003:0000d748       ??_C@_0BC@BOKDDCNO@StopButtonClick?$CI?$CJ?$AA@ 0047e748     moc_bncs_ws_mandialog.obj
 0003:0000d760       ??_C@_0N@KOKIPFBO@AboutClick?$CI?$CJ?$AA@ 0047e760     moc_bncs_ws_mandialog.obj
 0003:0000d770       ??_C@_0BA@FDFEDJGO@showLogViewer?$CI?$CJ?$AA@ 0047e770     moc_bncs_ws_mandialog.obj
 0003:0000d784       ??_C@_0L@KOMIGPAG@doLaunch?$CI?$CJ?$AA@ 0047e784     moc_bncs_ws_mandialog.obj
 0003:0000d794       ??_C@_0BD@FEBNEKMF@programSelect?$CIint?$CJ?$AA@ 0047e794     moc_bncs_ws_mandialog.obj
 0003:0000d7ac       ??_C@_0CJ@NJCBLNC@singletonMessageReceived?$CIconst?5Q@ 0047e7ac     moc_bncs_ws_mandialog.obj
 0003:0000d7e0       ??_C@_0O@MKJMIEEN@slotOpenCmd?$CI?$CJ?$AA@ 0047e7e0     moc_bncs_ws_mandialog.obj
 0003:0000d7f0       ??_C@_0BA@LABCODN@slotOpenVisEd?$CI?$CJ?$AA@ 0047e7f0     moc_bncs_ws_mandialog.obj
 0003:0000d804       ??_C@_0BD@KJIKOPMK@slotOpenV3Caplog?$CI?$CJ?$AA@ 0047e804     moc_bncs_ws_mandialog.obj
 0003:0000d81c       ??_C@_0BE@KDGFLPCB@slotOpenNetViewer?$CI?$CJ?$AA@ 0047e81c     moc_bncs_ws_mandialog.obj
 0003:0000d834       ??_C@_0BC@MIFCAKGF@bncs_ws_manDialog?$AA@ 0047e834     moc_bncs_ws_mandialog.obj
 0003:0000d84c       ??_C@_0BK@PBDMPGIE@workstationStatus?3?3status?$AA@ 0047e84c     moc_bncs_ws_mandialog.obj
 0003:0000d888       ??_C@_02MFDMBIJM@ok?$AA@   0047e888     moc_csi_startdialog.obj
 0003:0000d9ec       ??_C@_08GAELJPIF@procDone?$AA@ 0047e9ec     moc_csi_startdialog.obj
 0003:0000d9f8       ??_C@_0BF@PMNFHAHE@contextMenuRequested?$AA@ 0047e9f8     moc_csi_startdialog.obj
 0003:0000da14       ??_C@_0BB@HKECFMJH@listItemSelected?$AA@ 0047ea14     moc_csi_startdialog.obj
 0003:0000da28       ??_C@_0O@FIMAMANH@doButtonStart?$AA@ 0047ea28     moc_csi_startdialog.obj
 0003:0000da38       ??_C@_0N@MHEMDMJA@doButtonStop?$AA@ 0047ea38     moc_csi_startdialog.obj
 0003:0000da48       ??_C@_0BD@HDJDMNLK@doButtonGoFromHere?$AA@ 0047ea48     moc_csi_startdialog.obj
 0003:0000da60       ??_C@_0BD@GAMHMABN@doButtonGoSelected?$AA@ 0047ea60     moc_csi_startdialog.obj
 0003:0000da78       ??_C@_0P@FHDCCIPI@fixUpAutoStart?$AA@ 0047ea78     moc_csi_startdialog.obj
 0003:0000da8c       ??_C@_0P@NNCLFCHK@procDone?$CIbool?$CJ?$AA@ 0047ea8c     moc_csi_startdialog.obj
 0003:0000daa0       ??_C@_0DH@PLDKHNJF@contextMenuRequested?$CIQListViewIt@ 0047eaa0     moc_csi_startdialog.obj
 0003:0000dae4       ??_C@_0BD@COMFPDPD@listItemSelected?$CI?$CJ?$AA@ 0047eae4     moc_csi_startdialog.obj
 0003:0000dafc       ??_C@_0BA@CHAFEBBL@doButtonStart?$CI?$CJ?$AA@ 0047eafc     moc_csi_startdialog.obj
 0003:0000db10       ??_C@_0P@CMDGLJGC@doButtonStop?$CI?$CJ?$AA@ 0047eb10     moc_csi_startdialog.obj
 0003:0000db24       ??_C@_0BF@IJOHADBP@doButtonGoFromHere?$CI?$CJ?$AA@ 0047eb24     moc_csi_startdialog.obj
 0003:0000db40       ??_C@_0BF@BGBAEGNI@doButtonGoSelected?$CI?$CJ?$AA@ 0047eb40     moc_csi_startdialog.obj
 0003:0000db5c       ??_C@_0BN@PBMBOOON@fixUpAutoStart?$CIprocessBase?$CK?$CJ?$AA@ 0047eb5c     moc_csi_startdialog.obj
 0003:0000db80       ??_C@_0N@LLGIABMA@stateChanged?$AA@ 0047eb80     moc_csi_startdialog.obj
 0003:0000db90       ??_C@_05LBOHBHFK@close?$AA@ 0047eb90     moc_csi_startdialog.obj
 0003:0000db98       ??_C@_09BEDKLEKE@restart?$CI?$CJ?$AA@ 0047eb98     moc_csi_startdialog.obj
 0003:0000dba4       ??_C@_0CI@MKGAPIOA@stateChanged?$CIworkstationStatus?3?3@ 0047eba4     moc_csi_startdialog.obj
 0003:0000dbd4       ??_C@_07LBJPAJEN@close?$CI?$CJ?$AA@ 0047ebd4     moc_csi_startdialog.obj
 0003:0000dbe0       ??_C@_0BA@OOPCKOOG@csi_startDialog?$AA@ 0047ebe0     moc_csi_startdialog.obj
 0003:0000dbf4       ??_C@_0O@LAFKAPIP@QListViewItem?$AA@ 0047ebf4     moc_csi_startdialog.obj
 0003:0000dc04       ??_C@_01CAKFMAIO@?$AO?$AA@ 0047ec04     moc_csi_startdialog.obj
 0003:0000dc08       ??_C@_0M@GEIFHIGI@processBase?$AA@ 0047ec08     moc_csi_startdialog.obj
 0003:0000dc34       ??_C@_09HNGPJJDA@logDelete?$AA@ 0047ec34     moc_logDelete.obj
 0003:0000dc98       ??_C@_07ELPEPOOL@doClose?$AA@ 0047ec98     moc_logdialogimpl.obj
 0003:0000dca4       ??_C@_09CDPKIFHA@doRefresh?$AA@ 0047eca4     moc_logdialogimpl.obj
 0003:0000dcb0       ??_C@_09JFJHDGHL@doClose?$CI?$CJ?$AA@ 0047ecb0     moc_logdialogimpl.obj
 0003:0000dcbc       ??_C@_0M@MAPFKFBA@doRefresh?$CI?$CJ?$AA@ 0047ecbc     moc_logdialogimpl.obj
 0003:0000dccc       ??_C@_09KNHAPMGD@logDialog?$AA@ 0047eccc     moc_logdialogimpl.obj
 0003:0000dcd8       ??_C@_01LKDEMHDF@s?$AA@    0047ecd8     moc_netComms.obj
 0003:0000dd50       ??_C@_06PPOCJKKK@rxData?$AA@ 0047ed50     moc_netComms.obj
 0003:0000dd58       ??_C@_0M@GCLCDCHL@rxData?$CIint?$CJ?$AA@ 0047ed58     moc_netComms.obj
 0003:0000dd68       ??_C@_0N@MGAMALI@restart?$CIint?$CJ?$AA@ 0047ed68     moc_netComms.obj
 0003:0000dd78       ??_C@_09PKHNBEMH@stop?$CIint?$CJ?$AA@ 0047ed78     moc_netComms.obj
 0003:0000dd84       ??_C@_0L@CMKOFAB@start?$CIint?$CJ?$AA@ 0047ed84     moc_netComms.obj
 0003:0000dd94       ??_C@_08BCIECOEG@netComms?$AA@ 0047ed94     moc_netComms.obj
 0003:0000de4c       ??_C@_0P@FFEIBKDM@forceTerminate?$AA@ 0047ee4c     moc_processBase.obj
 0003:0000de60       ??_C@_0BB@PMIJFNHO@forceTerminate?$CI?$CJ?$AA@ 0047ee60     moc_processBase.obj
 0003:0000de74       ??_C@_0BB@JLMIBMMO@fixUpAutoStart?$CI?$CJ?$AA@ 0047ee74     moc_processBase.obj
 0003:0000de88       ??_C@_04GMOJEHPC@done?$AA@ 0047ee88     moc_processBase.obj
 0003:0000de90       ??_C@_05LBGBEADI@pProc?$AA@ 0047ee90     moc_processBase.obj
 0003:0000de98       ??_C@_0BF@HIDPDMGJ@signalFixUpAutoStart?$AA@ 0047ee98     moc_processBase.obj
 0003:0000deb4       ??_C@_0L@JMPBHDHB@done?$CIbool?$CJ?$AA@ 0047eeb4     moc_processBase.obj
 0003:0000dec4       ??_C@_0CD@HGHKGKKG@signalFixUpAutoStart?$CIprocessBase@ 0047eec4     moc_processBase.obj
 0003:0000df0c       ??_C@_0BC@EFAPGFEK@restartDialogBase?$AA@ 0047ef0c     moc_restartdialog.obj
 0003:0000df24       ??_C@_0O@MAPGJJFM@restartDialog?$AA@ 0047ef24     moc_restartdialogimpl.obj
 0003:0000df50       ??_C@_0BD@OLIPBFMN@csiProcessExited?$CI?$CJ?$AA@ 0047ef50     moc_startCSI.obj
 0003:0000df68       ??_C@_08FJFLLFMJ@startCSI?$AA@ 0047ef68     moc_startCSI.obj
 0003:0000df74       ??_C@_0P@NKJENIBM@startCSIHelper?$AA@ 0047ef74     moc_startCSIHelper.obj
 0003:0000df8c       ??_7restartDialogBase@@6BQObject@@@ 0047ef8c     restartdialog.obj
 0003:0000e1ac       ??_7restartDialogBase@@6BQPaintDevice@@@ 0047f1ac     restartdialog.obj
 0003:0000e1d4       ??_C@_0BI@BPMODOBK@restartDialogBaseLayout?$AA@ 0047f1d4     restartdialog.obj
 0003:0000e1f0       ??_C@_0N@MMDIMCLB@TextLabel1_2?$AA@ 0047f1f0     restartdialog.obj
 0003:0000e200       ??_C@_0L@CACJAEDO@TextLabel1?$AA@ 0047f200     restartdialog.obj
 0003:0000e210       ??_C@_0M@PJOMGFDC@statusLabel?$AA@ 0047f210     restartdialog.obj
 0003:0000e220       ??_C@_0N@HEPLAFNE@buttonAccept?$AA@ 0047f220     restartdialog.obj
 0003:0000e230       ??_C@_0N@OLKBNHFJ@buttonCancel?$AA@ 0047f230     restartdialog.obj
 0003:0000e240       ??_C@_09OCDCAEKE@1reject?$CI?$CJ?$AA@ 0047f240     restartdialog.obj
 0003:0000e24c       ??_C@_0CL@FENDHLLO@Workstation?5Manager?5Restart?5Warn@ 0047f24c     restartdialog.obj
 0003:0000e280       ??_C@_0BI@BPMNMGDC@?$DMh1?$DORestarting?4?4?4?4?$DM?1h1?$DO?$AA@ 0047f280     restartdialog.obj
 0003:0000e2a0       ??_C@_0BIH@COLGMLLA@?$DMp?$DOWorkstation?5manager?5component@ 0047f2a0     restartdialog.obj
 0003:0000e478       ??_C@_0BE@FMMEJLBG@?$CGUpdate?5and?5Restart?$AA@ 0047f478     restartdialog.obj
 0003:0000e490       ??_C@_05MBHCCKAC@Alt?$CLU?$AA@ 0047f490     restartdialog.obj
 0003:0000e498       ??_C@_06EGLNCGAA@?$CGDefer?$AA@ 0047f498     restartdialog.obj
 0003:0000e4a0       ??_C@_05JCKLAJBC@Alt?$CLD?$AA@ 0047f4a0     restartdialog.obj
 0003:0000e4ac       ??_7bncs_disklog@@6B@      0047f4ac     bncs_disklogdb:bncs_disklog.obj
 0003:0000e4b4       ??_C@_0BG@DPKAAFIM@localtime?5has?5failed?6?$AA@ 0047f4b4     bncs_disklogdb:bncs_disklog.obj
 0003:0000e4d0       ??_C@_0BH@EBDFGIGN@?$CFs?2?$CFs?2?$CF04d?$CF02d?$CF02d?4log?$AA@ 0047f4d0     bncs_disklogdb:bncs_disklog.obj
 0003:0000e4ec       ??_C@_0BM@MFEMPJOF@?$CFs?2?$CFs?2?$CF04d?$CF02d?$CF02d?9?$CF02d?4log?$AA@ 0047f4ec     bncs_disklogdb:bncs_disklog.obj
 0003:0000e510       ??_C@_0CE@NIPIAOPO@bncs_disklog?3?5Can?8t?5open?5log?5fil@ 0047f510     bncs_disklogdb:bncs_disklog.obj
 0003:0000e53c       ??_C@_01EEMJAFIK@?6?$AA@   0047f53c     bncs_disklogdb:bncs_disklog.obj
 0003:0000e540       ??_C@_0CE@NLINMDII@?$CF02d?1?$CF02d?1?$CF04d?5?$CF02d?3?$CF02d?3?$CF02d?4?$CF0@ 0047f540     bncs_disklogdb:bncs_disklog.obj
 0003:0000e56c       ??_C@_02KEGNLNML@?0?5?$AA@ 0047f56c     bncs_disklogdb:bncs_disklog.obj
 0003:0000e570       ??_C@_02PCIJFNDE@?$AN?6?$AA@ 0047f570     bncs_disklogdb:bncs_disklog.obj
 0003:0000e578       ??_7cBncsVersion@@6B@      0047f578     bncsversioninfodb:cBncsVersion.obj
 0003:0000e580       ??_C@_01IHBHIGKO@?0?$AA@   0047f580     bncsversioninfodb:cBncsVersion.obj
 0003:0000e584       ??_C@_0CD@DNOFBAPJ@?2StringFileInfo?2?$CFs?2FileDescripti@ 0047f584     bncsversioninfodb:cBncsVersion.obj
 0003:0000e5b0       ??_C@_0BM@HLKDAPDC@?2StringFileInfo?2?$CFs?2Comments?$AA@ 0047f5b0     bncsversioninfodb:cBncsVersion.obj
 0003:0000e5d4       ??_C@_0CA@EHAODNDK@?2StringFileInfo?2?$CFs?2InternalName?$AA@ 0047f5d4     bncsversioninfodb:cBncsVersion.obj
 0003:0000e5fc       ??_C@_0BP@MGNIHEJF@?2StringFileInfo?2?$CFs?2ProductName?$AA@ 0047f5fc     bncsversioninfodb:cBncsVersion.obj
 0003:0000e624       ??_C@_0BP@IFNEMNK@?2StringFileInfo?2?$CFs?2CompanyName?$AA@ 0047f624     bncsversioninfodb:cBncsVersion.obj
 0003:0000e64c       ??_C@_0CD@CHCCGCCP@?2StringFileInfo?2?$CFs?2LegalTradeMar@ 0047f64c     bncsversioninfodb:cBncsVersion.obj
 0003:0000e678       ??_C@_0CA@GODGGLFO@?2StringFileInfo?2?$CFs?2PrivateBuild?$AA@ 0047f678     bncsversioninfodb:cBncsVersion.obj
 0003:0000e6a0       ??_C@_0CE@NLHFPOLE@?2StringFileInfo?2?$CFs?2OriginalFileN@ 0047f6a0     bncsversioninfodb:cBncsVersion.obj
 0003:0000e6cc       ??_C@_0CA@OOEBJJOA@?2StringFileInfo?2?$CFs?2SpecialBuild?$AA@ 0047f6cc     bncsversioninfodb:cBncsVersion.obj
 0003:0000e6f8       ??_7QtSingleApplication@@6B@ 0047f6f8     qtsingleapplication:qtsingleapplication.obj
 0003:0000e77c       ??_C@_0BG@JKLICJAA@1activateMainWidget?$CI?$CJ?$AA@ 0047f77c     qtsingleapplication:qtsingleapplication_win.obj
 0003:0000e798       ??_C@_0CB@LALAPPDK@2messageReceived?$CIconst?5QString?$CG?$CJ@ 0047f798     qtsingleapplication:qtsingleapplication_win.obj
 0003:0000e7c0       ??_C@_0BE@JFAHMHGH@QtSingleApplication?$AA@ 0047f7c0     qtsingleapplication:moc_qtsingleapplication.obj
 0003:0000e7d8       ??_C@_07ONPBMBOP@message?$AA@ 0047f7d8     qtsingleapplication:moc_qtsingleapplication.obj
 0003:0000e7f4       ??_C@_0M@LGIGDHKK@sendMessage?$AA@ 0047f7f4     qtsingleapplication:moc_qtsingleapplication.obj
 0003:0000e804       ??_C@_07DDHNKDGP@timeout?$AA@ 0047f804     qtsingleapplication:moc_qtsingleapplication.obj
 0003:0000e830       ??_C@_0BD@IIEHKCFN@activateMainWidget?$AA@ 0047f830     qtsingleapplication:moc_qtsingleapplication.obj
 0003:0000e874       ??_C@_0BM@CCNODPBP@sendMessage?$CIconst?5QString?$CG?$CJ?$AA@ 0047f874     qtsingleapplication:moc_qtsingleapplication.obj
 0003:0000e898       ??_C@_0CA@OFDOBHMJ@sendMessage?$CIconst?5QString?$CG?0int?$CJ?$AA@ 0047f898     qtsingleapplication:moc_qtsingleapplication.obj
 0003:0000e8c0       ??_C@_0BF@EFNFOBCJ@activateMainWidget?$CI?$CJ?$AA@ 0047f8c0     qtsingleapplication:moc_qtsingleapplication.obj
 0003:0000e8ec       ??_C@_0BA@INCDCIIK@messageReceived?$AA@ 0047f8ec     qtsingleapplication:moc_qtsingleapplication.obj
 0003:0000e910       ??_C@_0CA@PAPLDGL@messageReceived?$CIconst?5QString?$CG?$CJ?$AA@ 0047f910     qtsingleapplication:moc_qtsingleapplication.obj
 0003:0000e936       ?value@?$integral_constant@_N$0A@@std@@2_NB 0047f936     MSVCRTD:ti_inst.obj
 0003:0000e937       ?value@?$integral_constant@_N$00@std@@2_NB 0047f937     MSVCRTD:ti_inst.obj
 0003:0000e93c       ??_7type_info@@6B@         0047f93c     MSVCRTD:ti_inst.obj
 0003:0000e948       ??_C@_1MC@KPMPFEII@?$AA?$CI?$AA_?$AA_?$AAo?$AAn?$AAe?$AAx?$AAi?$AAt?$AAb?$AAe?$AAg?$AAi?$AAn?$AA?5?$AA?$CB?$AA?$DN?$AA?5?$AAN?$AAU?$AAL?$AAL?$AA?5?$AA?$CG?$AA?$CG?$AA?5?$AA_?$AA_?$AAo?$AAn?$AAe?$AAx@ 0047f948     MSVCRTD:atonexit.obj
 0003:0000ea30       ??_C@_1FK@IGIDCAPD@?$AAf?$AA?3?$AA?2?$AAd?$AAd?$AA?2?$AAv?$AAc?$AAt?$AAo?$AAo?$AAl?$AAs?$AA?2?$AAc?$AAr?$AAt?$AA?2?$AAc?$AAr?$AAt?$AAw?$AA3?$AA2?$AA?2?$AAd?$AAl?$AAl?$AAs?$AAt?$AAu?$AAf@ 0047fa30     MSVCRTD:atonexit.obj
 0003:0000ea9c       ??_C@_0CN@LMJJPMEG@f?3?2dd?2vctools?2crt?2crtw32?2dllstuf@ 0047fa9c     MSVCRTD:atonexit.obj
 0003:0000eba0       ??_C@_0NN@NGPKDKPD@The?5value?5of?5ESP?5was?5not?5properl@ 0047fba0     MSVCRTD:error.obj
 0003:0000ecb0       ??_C@_0BBN@GPMLNJCF@A?5cast?5to?5a?5smaller?5data?5type?5ha@ 0047fcb0     MSVCRTD:error.obj
 0003:0000ee08       ??_C@_0BN@FFOINMNJ@Stack?5memory?5was?5corrupted?6?$AN?$AA@ 0047fe08     MSVCRTD:error.obj
 0003:0000ee2c       ??_C@_0DG@HKJMLLLP@A?5local?5variable?5was?5used?5before@ 0047fe2c     MSVCRTD:error.obj
 0003:0000ee6c       ??_C@_0CM@NGINOKPC@Stack?5memory?5around?5_alloca?5was?5@ 0047fe6c     MSVCRTD:error.obj
 0003:0000eea0       ??_C@_0BO@GNIAFIKK@Unknown?5Runtime?5Check?5Error?6?$AN?$AA@ 0047fea0     MSVCRTD:error.obj
 0003:0000eec8       ??_C@_1GM@OLMCBDMB@?$AAR?$AAu?$AAn?$AAt?$AAi?$AAm?$AAe?$AA?5?$AAC?$AAh?$AAe?$AAc?$AAk?$AA?5?$AAE?$AAr?$AAr?$AAo?$AAr?$AA?4?$AA?6?$AA?$AN?$AA?5?$AAU?$AAn?$AAa?$AAb?$AAl?$AAe?$AA?5?$AAt?$AAo@ 0047fec8     MSVCRTD:error.obj
 0003:0000ef50       ??_C@_1EA@NFKNIFJP@?$AAR?$AAu?$AAn?$AA?9?$AAT?$AAi?$AAm?$AAe?$AA?5?$AAC?$AAh?$AAe?$AAc?$AAk?$AA?5?$AAF?$AAa?$AAi?$AAl?$AAu?$AAr?$AAe?$AA?5?$AA?$CD?$AA?$CF?$AAd?$AA?5?$AA?9?$AA?5?$AA?$CF?$AAs?$AA?$AA@ 0047ff50     MSVCRTD:error.obj
 0003:0000ef9c       ??_C@_0BB@PFFGGCJP@Unknown?5Filename?$AA@ 0047ff9c     MSVCRTD:error.obj
 0003:0000efb0       ??_C@_0BE@GNBOBNCK@Unknown?5Module?5Name?$AA@ 0047ffb0     MSVCRTD:error.obj
 0003:0000efc8       ??_C@_0CA@IODNCDPG@Run?9Time?5Check?5Failure?5?$CD?$CFd?5?9?5?$CFs?$AA@ 0047ffc8     MSVCRTD:error.obj
 0003:0000eff0       ??_C@_0CG@IAFNJNEE@Stack?5corrupted?5near?5unknown?5var@ 0047fff0     MSVCRTD:error.obj
 0003:0000f020       ??_C@_05MKKEDADM@?$CF?42X?5?$AA@ 00480020     MSVCRTD:error.obj
 0003:0000f028       ??_C@_1BG@OILDLIOJ@?$AAu?$AAs?$AAe?$AAr?$AA3?$AA2?$AA?4?$AAd?$AAl?$AAl?$AA?$AA@ 00480028     MSVCRTD:error.obj
 0003:0000f044       ??_C@_09FOPFMPEJ@wsprintfA?$AA@ 00480044     MSVCRTD:error.obj
 0003:0000f050       ??_C@_0EJ@LJKNEOLN@Stack?5area?5around?5_alloca?5memory@ 00480050     MSVCRTD:error.obj
 0003:0000f0a8       ??_C@_08OMAHNMHJ@?6Data?3?5?$DM?$AA@ 004800a8     MSVCRTD:error.obj
 0003:0000f0b4       ??_C@_0CK@DKGBICFE@?6Allocation?5number?5within?5this?5f@ 004800b4     MSVCRTD:error.obj
 0003:0000f0e8       ??_C@_07DFDJCKFN@?6Size?3?5?$AA@ 004800e8     MSVCRTD:error.obj
 0003:0000f0f4       ??_C@_0N@MHFFIMFG@?6Address?3?50x?$AA@ 004800f4     MSVCRTD:error.obj
 0003:0000f108       ??_C@_0EI@CLEPFNGI@Stack?5area?5around?5_alloca?5memory@ 00480108     MSVCRTD:error.obj
 0003:0000f160       ??_C@_0BC@KIBAILCI@?$CFs?$CFs?$CFp?$CFs?$CFld?$CFs?$CFd?$CFs?$AA@ 00480160     MSVCRTD:error.obj
 0003:0000f178       ??_C@_02LLMPMKNF@?$DO?5?$AA@ 00480178     MSVCRTD:error.obj
 0003:0000f17c       ??_C@_08KJEDNCKC@?$CFs?$CFs?$CFs?$CFs?$AA@ 0048017c     MSVCRTD:error.obj
 0003:0000f188       ??_C@_0DE@OHJBPMBP@A?5variable?5is?5being?5used?5without@ 00480188     MSVCRTD:error.obj
 0003:0000f1c8       ??_C@_1FA@DALEHHGL@?$AA_?$AA_?$AAn?$AAa?$AAt?$AAi?$AAv?$AAe?$AA_?$AAs?$AAt?$AAa?$AAr?$AAt?$AAu?$AAp?$AA_?$AAs?$AAt?$AAa?$AAt?$AAe?$AA?5?$AA?$DN?$AA?$DN?$AA?5?$AA_?$AA_?$AAi?$AAn?$AAi?$AAt@ 004801c8     MSVCRTD:crtexew.obj
 0003:0000f228       ??_C@_1FG@DKNDLLJO@?$AAf?$AA?3?$AA?2?$AAd?$AAd?$AA?2?$AAv?$AAc?$AAt?$AAo?$AAo?$AAl?$AAs?$AA?2?$AAc?$AAr?$AAt?$AA?2?$AAc?$AAr?$AAt?$AAw?$AA3?$AA2?$AA?2?$AAd?$AAl?$AAl?$AAs?$AAt?$AAu?$AAf@ 00480228     MSVCRTD:crtexew.obj
 0003:0000f2a8       ??_C@_0BJ@HEGAHDFO@Stack?5pointer?5corruption?$AA@ 004802a8     MSVCRTD:userapi.obj
 0003:0000f2c8       ??_C@_0CK@FEGOIOPB@Cast?5to?5smaller?5type?5causing?5los@ 004802c8     MSVCRTD:userapi.obj
 0003:0000f2fc       ??_C@_0BI@CIGMDCBH@Stack?5memory?5corruption?$AA@ 004802fc     MSVCRTD:userapi.obj
 0003:0000f318       ??_C@_0CK@CNLNOEPB@Local?5variable?5used?5before?5initi@ 00480318     MSVCRTD:userapi.obj
 0003:0000f34c       ??_C@_0BP@OGBCLIBO@Stack?5around?5_alloca?5corrupted?$AA@ 0048034c     MSVCRTD:userapi.obj
 0003:0000f3c0       ?LocalIdBitWidth@CrossScopeId@CodeViewInfo@@2IB 004803c0     MSVCRTD:pdblkup.obj
 0003:0000f3c4       ?IdScopeBitWidth@CrossScopeId@CodeViewInfo@@2IB 004803c4     MSVCRTD:pdblkup.obj
 0003:0000f3c8       ?StartCrossScopeId@CrossScopeId@CodeViewInfo@@2IB 004803c8     MSVCRTD:pdblkup.obj
 0003:0000f3cc       ?LocalIdMask@CrossScopeId@CodeViewInfo@@2IB 004803cc     MSVCRTD:pdblkup.obj
 0003:0000f3d0       ?ScopeIdMask@CrossScopeId@CodeViewInfo@@2IB 004803d0     MSVCRTD:pdblkup.obj
 0003:0000f3d4       ?MaxLocalId@CrossScopeId@CodeViewInfo@@2IB 004803d4     MSVCRTD:pdblkup.obj
 0003:0000f3d8       ?MaxScopeId@CrossScopeId@CodeViewInfo@@2IB 004803d8     MSVCRTD:pdblkup.obj
 0003:0000f3dc       ??_C@_1BK@GAEMIDIL@?$AAA?$AAD?$AAV?$AAA?$AAP?$AAI?$AA3?$AA2?$AA?4?$AAD?$AAL?$AAL?$AA?$AA@ 004803dc     MSVCRTD:pdblkup.obj
 0003:0000f3fc       ??_C@_0O@COHOBMLB@RegOpenKeyExW?$AA@ 004803fc     MSVCRTD:pdblkup.obj
 0003:0000f40c       ??_C@_0BB@GLNAEDBD@RegQueryValueExW?$AA@ 0048040c     MSVCRTD:pdblkup.obj
 0003:0000f420       ??_C@_0M@HLOHPNFA@RegCloseKey?$AA@ 00480420     MSVCRTD:pdblkup.obj
 0003:0000f430       ??_C@_1FM@EGIBBNPP@?$AAS?$AAO?$AAF?$AAT?$AAW?$AAA?$AAR?$AAE?$AA?2?$AAM?$AAi?$AAc?$AAr?$AAo?$AAs?$AAo?$AAf?$AAt?$AA?2?$AAV?$AAi?$AAs?$AAu?$AAa?$AAl?$AAS?$AAt?$AAu?$AAd?$AAi?$AAo?$AA?2@ 00480430     MSVCRTD:pdblkup.obj
 0003:0000f4a0       ??_C@_1BG@EABPBLLF@?$AAP?$AAr?$AAo?$AAd?$AAu?$AAc?$AAt?$AAD?$AAi?$AAr?$AA?$AA@ 004804a0     MSVCRTD:pdblkup.obj
 0003:0000f4e0       ??_C@_1BC@EOIMGOME@?$AAM?$AAS?$AAP?$AAD?$AAB?$AA1?$AA2?$AA0?$AA?$AA@ 004804e0     MSVCRTD:pdblkup.obj
 0003:0000f4f8       ??_C@_0BB@KCIACLNC@PDBOpenValidate5?$AA@ 004804f8     MSVCRTD:pdblkup.obj
 0003:0000f50c       ??_C@_01KDCPPGHE@r?$AA@    0048050c     MSVCRTD:pdblkup.obj
 0003:0000f510       ?ProcessDetach@NativeDll@<CrtImplementationDetails>@@0IB 00480510     MSVCRTD:unhandld.obj
 0003:0000f514       ?ProcessAttach@NativeDll@<CrtImplementationDetails>@@0IB 00480514     MSVCRTD:unhandld.obj
 0003:0000f518       ?ThreadAttach@NativeDll@<CrtImplementationDetails>@@0IB 00480518     MSVCRTD:unhandld.obj
 0003:0000f51c       ?ThreadDetach@NativeDll@<CrtImplementationDetails>@@0IB 0048051c     MSVCRTD:unhandld.obj
 0003:0000f520       ?ProcessVerifier@NativeDll@<CrtImplementationDetails>@@0IB 00480520     MSVCRTD:unhandld.obj
 0003:0000f528       ??_C@_1FI@JJOJLGLE@?$AAf?$AA?3?$AA?2?$AAd?$AAd?$AA?2?$AAv?$AAc?$AAt?$AAo?$AAo?$AAl?$AAs?$AA?2?$AAc?$AAr?$AAt?$AA?2?$AAc?$AAr?$AAt?$AAw?$AA3?$AA2?$AA?2?$AAs?$AAt?$AAa?$AAr?$AAt?$AAu?$AAp@ 00480528     MSVCRTD:fp8.obj
 0003:0000f594       ??_C@_1CK@JMKHCBEI@?$AA_?$AAs?$AAe?$AAt?$AAd?$AAe?$AAf?$AAa?$AAu?$AAl?$AAt?$AAp?$AAr?$AAe?$AAc?$AAi?$AAs?$AAi?$AAo?$AAn?$AA?$AA@ 00480594     MSVCRTD:fp8.obj
 0003:0000f5c8       ??_C@_1GE@KOCFNGPB@?$AA_?$AAc?$AAo?$AAn?$AAt?$AAr?$AAo?$AAl?$AAf?$AAp?$AA_?$AAs?$AA?$CI?$AA?$CI?$AA?$CI?$AAv?$AAo?$AAi?$AAd?$AA?5?$AA?$CK?$AA?$CJ?$AA0?$AA?$CJ?$AA?0?$AA?5?$AA0?$AAx?$AA0?$AA0?$AA0?$AA1@ 004805c8     MSVCRTD:fp8.obj
 0003:0000f640       ??_7?$QMemArray@PAD@@6B@   00480640     qtmain:qtmain_win.obj
 0003:0000f658       __load_config_used         00480658     MSVCRTD:loadcfg.obj
 0003:0000fd98       ??_R4decodeBNCSString@@6B@ 00480d98     decodeBNCSString.obj
 0003:0000fdb0       ??_R3decodeBNCSString@@8   00480db0     decodeBNCSString.obj
 0003:0000fdc4       ??_R2decodeBNCSString@@8   00480dc4     decodeBNCSString.obj
 0003:0000fdcc       ??_R1A@?0A@EA@decodeBNCSString@@8 00480dcc     decodeBNCSString.obj
 0003:0000fdf0       ??_R4AboutDialog@@6BQObject@@@ 00480df0     AboutDialog.obj
 0003:0000fe08       ??_R3AboutDialog@@8        00480e08     AboutDialog.obj
 0003:0000fe1c       ??_R2AboutDialog@@8        00480e1c     AboutDialog.obj
 0003:0000fe40       ??_R1A@?0A@EA@AboutDialog@@8 00480e40     AboutDialog.obj
 0003:0000fe64       ??_R1A@?0A@EA@AboutDialogBase@@8 00480e64     AboutDialog.obj
 0003:0000fe88       ??_R3AboutDialogBase@@8    00480e88     AboutDialog.obj
 0003:0000fe9c       ??_R2AboutDialogBase@@8    00480e9c     AboutDialog.obj
 0003:0000febc       ??_R1A@?0A@EA@QDialog@@8   00480ebc     AboutDialog.obj
 0003:0000fee0       ??_R3QDialog@@8            00480ee0     AboutDialog.obj
 0003:0000fef4       ??_R2QDialog@@8            00480ef4     AboutDialog.obj
 0003:0000ff10       ??_R1A@?0A@EA@QWidget@@8   00480f10     AboutDialog.obj
 0003:0000ff34       ??_R3QWidget@@8            00480f34     AboutDialog.obj
 0003:0000ff48       ??_R2QWidget@@8            00480f48     AboutDialog.obj
 0003:0000ff5c       ??_R1A@?0A@EA@QObject@@8   00480f5c     AboutDialog.obj
 0003:0000ff80       ??_R3QObject@@8            00480f80     AboutDialog.obj
 0003:0000ff94       ??_R2QObject@@8            00480f94     AboutDialog.obj
 0003:0000ffa0       ??_R13?0A@EA@Qt@@8         00480fa0     AboutDialog.obj
 0003:0000ffc4       ??_R3Qt@@8                 00480fc4     AboutDialog.obj
 0003:0000ffd8       ??_R2Qt@@8                 00480fd8     AboutDialog.obj
 0003:0000ffe0       ??_R1A@?0A@EA@Qt@@8        00480fe0     AboutDialog.obj
 0003:00010004       ??_R1CI@?0A@EA@QPaintDevice@@8 00481004     AboutDialog.obj
 0003:00010028       ??_R3QPaintDevice@@8       00481028     AboutDialog.obj
 0003:0001003c       ??_R2QPaintDevice@@8       0048103c     AboutDialog.obj
 0003:00010044       ??_R1A@?0A@EA@QPaintDevice@@8 00481044     AboutDialog.obj
 0003:00010068       ??_R4AboutDialog@@6BQPaintDevice@@@ 00481068     AboutDialog.obj
 0003:00010080       ??_R4error_category@std@@6B@ 00481080     bncs_ws_mandialog.obj
 0003:00010098       ??_R3error_category@std@@8 00481098     bncs_ws_mandialog.obj
 0003:000100ac       ??_R2error_category@std@@8 004810ac     bncs_ws_mandialog.obj
 0003:000100b4       ??_R1A@?0A@EA@error_category@std@@8 004810b4     bncs_ws_mandialog.obj
 0003:000100d8       ??_R4_Generic_error_category@std@@6B@ 004810d8     bncs_ws_mandialog.obj
 0003:000100f0       ??_R3_Generic_error_category@std@@8 004810f0     bncs_ws_mandialog.obj
 0003:00010104       ??_R2_Generic_error_category@std@@8 00481104     bncs_ws_mandialog.obj
 0003:00010110       ??_R1A@?0A@EA@_Generic_error_category@std@@8 00481110     bncs_ws_mandialog.obj
 0003:00010134       ??_R4_Iostream_error_category@std@@6B@ 00481134     bncs_ws_mandialog.obj
 0003:0001014c       ??_R3_Iostream_error_category@std@@8 0048114c     bncs_ws_mandialog.obj
 0003:00010160       ??_R2_Iostream_error_category@std@@8 00481160     bncs_ws_mandialog.obj
 0003:00010170       ??_R1A@?0A@EA@_Iostream_error_category@std@@8 00481170     bncs_ws_mandialog.obj
 0003:00010194       ??_R4_System_error_category@std@@6B@ 00481194     bncs_ws_mandialog.obj
 0003:000101ac       ??_R3_System_error_category@std@@8 004811ac     bncs_ws_mandialog.obj
 0003:000101c0       ??_R2_System_error_category@std@@8 004811c0     bncs_ws_mandialog.obj
 0003:000101d0       ??_R1A@?0A@EA@_System_error_category@std@@8 004811d0     bncs_ws_mandialog.obj
 0003:000101f4       ??_R4bncs_ws_manDialog@@6BQObject@@@ 004811f4     bncs_ws_mandialog.obj
 0003:0001020c       ??_R3bncs_ws_manDialog@@8  0048120c     bncs_ws_mandialog.obj
 0003:00010220       ??_R2bncs_ws_manDialog@@8  00481220     bncs_ws_mandialog.obj
 0003:00010244       ??_R1A@?0A@EA@bncs_ws_manDialog@@8 00481244     bncs_ws_mandialog.obj
 0003:00010268       ??_R1A@?0A@EA@bncs_ws_manDialogBase@@8 00481268     bncs_ws_mandialog.obj
 0003:0001028c       ??_R3bncs_ws_manDialogBase@@8 0048128c     bncs_ws_mandialog.obj
 0003:000102a0       ??_R2bncs_ws_manDialogBase@@8 004812a0     bncs_ws_mandialog.obj
 0003:000102c0       ??_R1A@?0A@EA@QMainWindow@@8 004812c0     bncs_ws_mandialog.obj
 0003:000102e4       ??_R3QMainWindow@@8        004812e4     bncs_ws_mandialog.obj
 0003:000102f8       ??_R2QMainWindow@@8        004812f8     bncs_ws_mandialog.obj
 0003:00010314       ??_R4bncs_ws_manDialog@@6BQPaintDevice@@@ 00481314     bncs_ws_mandialog.obj
 0003:0001032c       ??_R1A@?0A@EA@QGList@@8    0048132c     csi_startdialog.obj
 0003:00010350       ??_R3QGList@@8             00481350     csi_startdialog.obj
 0003:00010364       ??_R2QGList@@8             00481364     csi_startdialog.obj
 0003:00010370       ??_R1A@?0A@EA@QPtrCollection@@8 00481370     csi_startdialog.obj
 0003:00010394       ??_R3QPtrCollection@@8     00481394     csi_startdialog.obj
 0003:000103a8       ??_R2QPtrCollection@@8     004813a8     csi_startdialog.obj
 0003:000103b0       ??_R4csi_startDialog@@6BQObject@@@ 004813b0     csi_startdialog.obj
 0003:000103c8       ??_R3csi_startDialog@@8    004813c8     csi_startdialog.obj
 0003:000103dc       ??_R2csi_startDialog@@8    004813dc     csi_startdialog.obj
 0003:000103fc       ??_R1A@?0A@EA@csi_startDialog@@8 004813fc     csi_startdialog.obj
 0003:00010420       ??_R1A@?0A@EA@csi_startDialogBase@@8 00481420     csi_startdialog.obj
 0003:00010444       ??_R3csi_startDialogBase@@8 00481444     csi_startdialog.obj
 0003:00010458       ??_R2csi_startDialogBase@@8 00481458     csi_startdialog.obj
 0003:00010474       ??_R4csi_startDialog@@6BQPaintDevice@@@ 00481474     csi_startdialog.obj
 0003:0001048c       ??_R4?$QPtrList@VprocessBase@@@@6B@ 0048148c     csi_startdialog.obj
 0003:000104a4       ??_R3?$QPtrList@VprocessBase@@@@8 004814a4     csi_startdialog.obj
 0003:000104b8       ??_R2?$QPtrList@VprocessBase@@@@8 004814b8     csi_startdialog.obj
 0003:000104c8       ??_R1A@?0A@EA@?$QPtrList@VprocessBase@@@@8 004814c8     csi_startdialog.obj
 0003:000104ec       ??_R4launchListViewItem@@6B@ 004814ec     launchListViewItem.obj
 0003:00010504       ??_R3launchListViewItem@@8 00481504     launchListViewItem.obj
 0003:00010518       ??_R2launchListViewItem@@8 00481518     launchListViewItem.obj
 0003:00010528       ??_R1A@?0A@EA@launchListViewItem@@8 00481528     launchListViewItem.obj
 0003:0001054c       ??_R1A@?0A@EA@QListViewItem@@8 0048154c     launchListViewItem.obj
 0003:00010570       ??_R3QListViewItem@@8      00481570     launchListViewItem.obj
 0003:00010584       ??_R2QListViewItem@@8      00481584     launchListViewItem.obj
 0003:00010590       ??_R4logDelete@@6B@        00481590     logDelete.obj
 0003:000105a8       ??_R3logDelete@@8          004815a8     logDelete.obj
 0003:000105bc       ??_R2logDelete@@8          004815bc     logDelete.obj
 0003:000105cc       ??_R1A@?0A@EA@logDelete@@8 004815cc     logDelete.obj
 0003:000105f0       ??_R4logDialog@@6BQObject@@@ 004815f0     logdialogimpl.obj
 0003:00010608       ??_R3logDialog@@8          00481608     logdialogimpl.obj
 0003:0001061c       ??_R2logDialog@@8          0048161c     logdialogimpl.obj
 0003:00010640       ??_R1A@?0A@EA@logDialog@@8 00481640     logdialogimpl.obj
 0003:00010664       ??_R1A@?0A@EA@logDialogBase@@8 00481664     logdialogimpl.obj
 0003:00010688       ??_R3logDialogBase@@8      00481688     logdialogimpl.obj
 0003:0001069c       ??_R2logDialogBase@@8      0048169c     logdialogimpl.obj
 0003:000106bc       ??_R4logDialog@@6BQPaintDevice@@@ 004816bc     logdialogimpl.obj
 0003:000106d4       ??_R4QSocketDevice@@6B@    004816d4     netComms.obj
 0003:000106ec       ??_R3QSocketDevice@@8      004816ec     netComms.obj
 0003:00010700       ??_R2QSocketDevice@@8      00481700     netComms.obj
 0003:0001070c       ??_R1A@?0A@EA@QSocketDevice@@8 0048170c     netComms.obj
 0003:00010730       ??_R1A@?0A@EA@QIODevice@@8 00481730     netComms.obj
 0003:00010754       ??_R3QIODevice@@8          00481754     netComms.obj
 0003:00010768       ??_R2QIODevice@@8          00481768     netComms.obj
 0003:00010770       ??_R4QSocketNotifier@@6B@  00481770     netComms.obj
 0003:00010788       ??_R3QSocketNotifier@@8    00481788     netComms.obj
 0003:0001079c       ??_R2QSocketNotifier@@8    0048179c     netComms.obj
 0003:000107ac       ??_R1A@?0A@EA@QSocketNotifier@@8 004817ac     netComms.obj
 0003:000107d0       ??_R4netComms@@6B@         004817d0     netComms.obj
 0003:000107e8       ??_R3netComms@@8           004817e8     netComms.obj
 0003:000107fc       ??_R2netComms@@8           004817fc     netComms.obj
 0003:0001080c       ??_R1A@?0A@EA@netComms@@8  0048180c     netComms.obj
 0003:00010830       ??_R4processBase@@6B@      00481830     processBase.obj
 0003:00010848       ??_R3processBase@@8        00481848     processBase.obj
 0003:0001085c       ??_R2processBase@@8        0048185c     processBase.obj
 0003:00010870       ??_R1A@?0A@EA@processBase@@8 00481870     processBase.obj
 0003:00010894       ??_R1A@?0A@EA@QProcess@@8  00481894     processBase.obj
 0003:000108b8       ??_R3QProcess@@8           004818b8     processBase.obj
 0003:000108cc       ??_R2QProcess@@8           004818cc     processBase.obj
 0003:000108dc       ??_R4Program@@6B@          004818dc     Program.obj
 0003:000108f4       ??_R3Program@@8            004818f4     Program.obj
 0003:00010908       ??_R2Program@@8            00481908     Program.obj
 0003:00010910       ??_R1A@?0A@EA@Program@@8   00481910     Program.obj
 0003:00010934       ??_R4StopAllProgram@@6B@   00481934     Program.obj
 0003:0001094c       ??_R3StopAllProgram@@8     0048194c     Program.obj
 0003:00010960       ??_R2StopAllProgram@@8     00481960     Program.obj
 0003:0001096c       ??_R1A@?0A@EA@StopAllProgram@@8 0048196c     Program.obj
 0003:00010990       ??_R4RestartAllProgram@@6B@ 00481990     Program.obj
 0003:000109a8       ??_R3RestartAllProgram@@8  004819a8     Program.obj
 0003:000109bc       ??_R2RestartAllProgram@@8  004819bc     Program.obj
 0003:000109c8       ??_R1A@?0A@EA@RestartAllProgram@@8 004819c8     Program.obj
 0003:000109ec       ??_R4UpdateAndRestartProgram@@6B@ 004819ec     Program.obj
 0003:00010a04       ??_R3UpdateAndRestartProgram@@8 00481a04     Program.obj
 0003:00010a18       ??_R2UpdateAndRestartProgram@@8 00481a18     Program.obj
 0003:00010a24       ??_R1A@?0A@EA@UpdateAndRestartProgram@@8 00481a24     Program.obj
 0003:00010a48       ??_R4InitializeProgram@@6B@ 00481a48     Program.obj
 0003:00010a60       ??_R3InitializeProgram@@8  00481a60     Program.obj
 0003:00010a74       ??_R2InitializeProgram@@8  00481a74     Program.obj
 0003:00010a80       ??_R1A@?0A@EA@InitializeProgram@@8 00481a80     Program.obj
 0003:00010aa4       ??_R4StopAndTestProgram@@6B@ 00481aa4     Program.obj
 0003:00010abc       ??_R3StopAndTestProgram@@8 00481abc     Program.obj
 0003:00010ad0       ??_R2StopAndTestProgram@@8 00481ad0     Program.obj
 0003:00010adc       ??_R1A@?0A@EA@StopAndTestProgram@@8 00481adc     Program.obj
 0003:00010b00       ??_R4StopAndReloadLauncherProgram@@6B@ 00481b00     Program.obj
 0003:00010b18       ??_R3StopAndReloadLauncherProgram@@8 00481b18     Program.obj
 0003:00010b2c       ??_R2StopAndReloadLauncherProgram@@8 00481b2c     Program.obj
 0003:00010b38       ??_R1A@?0A@EA@StopAndReloadLauncherProgram@@8 00481b38     Program.obj
 0003:00010b5c       ??_R4StartAndStopWithSyncProgram@@6B@ 00481b5c     Program.obj
 0003:00010b74       ??_R3StartAndStopWithSyncProgram@@8 00481b74     Program.obj
 0003:00010b88       ??_R2StartAndStopWithSyncProgram@@8 00481b88     Program.obj
 0003:00010b94       ??_R1A@?0A@EA@StartAndStopWithSyncProgram@@8 00481b94     Program.obj
 0003:00010bb8       ??_R4StartAndStopNoSyncProgram@@6B@ 00481bb8     Program.obj
 0003:00010bd0       ??_R3StartAndStopNoSyncProgram@@8 00481bd0     Program.obj
 0003:00010be4       ??_R2StartAndStopNoSyncProgram@@8 00481be4     Program.obj
 0003:00010bf0       ??_R1A@?0A@EA@StartAndStopNoSyncProgram@@8 00481bf0     Program.obj
 0003:00010c14       ??_R4RestartNoReloadLauncherProgram@@6B@ 00481c14     Program.obj
 0003:00010c2c       ??_R3RestartNoReloadLauncherProgram@@8 00481c2c     Program.obj
 0003:00010c40       ??_R2RestartNoReloadLauncherProgram@@8 00481c40     Program.obj
 0003:00010c4c       ??_R1A@?0A@EA@RestartNoReloadLauncherProgram@@8 00481c4c     Program.obj
 0003:00010c70       ??_R4ResyncAndReloadLauncherProgram@@6B@ 00481c70     Program.obj
 0003:00010c88       ??_R3ResyncAndReloadLauncherProgram@@8 00481c88     Program.obj
 0003:00010c9c       ??_R2ResyncAndReloadLauncherProgram@@8 00481c9c     Program.obj
 0003:00010ca8       ??_R1A@?0A@EA@ResyncAndReloadLauncherProgram@@8 00481ca8     Program.obj
 0003:00010ccc       ??_R4restartDialog@@6BQObject@@@ 00481ccc     restartdialogimpl.obj
 0003:00010ce4       ??_R3restartDialog@@8      00481ce4     restartdialogimpl.obj
 0003:00010cf8       ??_R2restartDialog@@8      00481cf8     restartdialogimpl.obj
 0003:00010d1c       ??_R1A@?0A@EA@restartDialog@@8 00481d1c     restartdialogimpl.obj
 0003:00010d40       ??_R1A@?0A@EA@restartDialogBase@@8 00481d40     restartdialogimpl.obj
 0003:00010d64       ??_R3restartDialogBase@@8  00481d64     restartdialogimpl.obj
 0003:00010d78       ??_R2restartDialogBase@@8  00481d78     restartdialogimpl.obj
 0003:00010d98       ??_R4restartDialog@@6BQPaintDevice@@@ 00481d98     restartdialogimpl.obj
 0003:00010db0       ??_R4restartThread@@6B@    00481db0     restartThread.obj
 0003:00010dc8       ??_R3restartThread@@8      00481dc8     restartThread.obj
 0003:00010ddc       ??_R2restartThread@@8      00481ddc     restartThread.obj
 0003:00010dec       ??_R1A@?0A@EA@restartThread@@8 00481dec     restartThread.obj
 0003:00010e10       ??_R1A@?0A@EA@QThread@@8   00481e10     restartThread.obj
 0003:00010e34       ??_R3QThread@@8            00481e34     restartThread.obj
 0003:00010e48       ??_R2QThread@@8            00481e48     restartThread.obj
 0003:00010e54       ??_R4startCSI@@6B@         00481e54     startCSI.obj
 0003:00010e6c       ??_R3startCSI@@8           00481e6c     startCSI.obj
 0003:00010e80       ??_R2startCSI@@8           00481e80     startCSI.obj
 0003:00010e9c       ??_R1A@?0A@EA@startCSI@@8  00481e9c     startCSI.obj
 0003:00010ec0       ??_R4startCSIHelper@@6BQObject@@@ 00481ec0     startCSIHelper.obj
 0003:00010ed8       ??_R3startCSIHelper@@8     00481ed8     startCSIHelper.obj
 0003:00010eec       ??_R2startCSIHelper@@8     00481eec     startCSIHelper.obj
 0003:00010f08       ??_R1A@?0A@EA@startCSIHelper@@8 00481f08     startCSIHelper.obj
 0003:00010f2c       ??_R4startCSIHelper@@6BQPaintDevice@@@ 00481f2c     startCSIHelper.obj
 0003:00010f44       ??_R4QProcess@@6B@         00481f44     SyncProcess.obj
 0003:00010f5c       ??_R4SyncProcess@@6B@      00481f5c     SyncProcess.obj
 0003:00010f74       ??_R3SyncProcess@@8        00481f74     SyncProcess.obj
 0003:00010f88       ??_R2SyncProcess@@8        00481f88     SyncProcess.obj
 0003:00010f98       ??_R1A@?0A@EA@SyncProcess@@8 00481f98     SyncProcess.obj
 0003:00010fbc       ??_R4NoSyncProcess@@6B@    00481fbc     SyncProcess.obj
 0003:00010fd4       ??_R3NoSyncProcess@@8      00481fd4     SyncProcess.obj
 0003:00010fe8       ??_R2NoSyncProcess@@8      00481fe8     SyncProcess.obj
 0003:00010ffc       ??_R1A@?0A@EA@NoSyncProcess@@8 00481ffc     SyncProcess.obj
 0003:00011020       ??_R4FileSyncProcess@@6B@  00482020     SyncProcess.obj
 0003:00011038       ??_R3FileSyncProcess@@8    00482038     SyncProcess.obj
 0003:0001104c       ??_R2FileSyncProcess@@8    0048204c     SyncProcess.obj
 0003:00011060       ??_R1A@?0A@EA@FileSyncProcess@@8 00482060     SyncProcess.obj
 0003:00011084       ??_R4QPushButton@@6BQObject@@@ 00482084     AboutDialogBase.obj
 0003:0001109c       ??_R3QPushButton@@8        0048209c     AboutDialogBase.obj
 0003:000110b0       ??_R2QPushButton@@8        004820b0     AboutDialogBase.obj
 0003:000110d0       ??_R1A@?0A@EA@QPushButton@@8 004820d0     AboutDialogBase.obj
 0003:000110f4       ??_R1A@?0A@EA@QButton@@8   004820f4     AboutDialogBase.obj
 0003:00011118       ??_R3QButton@@8            00482118     AboutDialogBase.obj
 0003:0001112c       ??_R2QButton@@8            0048212c     AboutDialogBase.obj
 0003:00011148       ??_R4QPushButton@@6BQPaintDevice@@@ 00482148     AboutDialogBase.obj
 0003:00011160       ??_R4QVBoxLayout@@6BQObject@@@ 00482160     AboutDialogBase.obj
 0003:00011178       ??_R3QVBoxLayout@@8        00482178     AboutDialogBase.obj
 0003:0001118c       ??_R2QVBoxLayout@@8        0048218c     AboutDialogBase.obj
 0003:000111ac       ??_R1A@?0A@EA@QVBoxLayout@@8 004821ac     AboutDialogBase.obj
 0003:000111d0       ??_R1A@?0A@EA@QBoxLayout@@8 004821d0     AboutDialogBase.obj
 0003:000111f4       ??_R3QBoxLayout@@8         004821f4     AboutDialogBase.obj
 0003:00011208       ??_R2QBoxLayout@@8         00482208     AboutDialogBase.obj
 0003:00011224       ??_R1A@?0A@EA@QLayout@@8   00482224     AboutDialogBase.obj
 0003:00011248       ??_R3QLayout@@8            00482248     AboutDialogBase.obj
 0003:0001125c       ??_R2QLayout@@8            0048225c     AboutDialogBase.obj
 0003:00011270       ??_R1CI@?0A@EA@QLayoutItem@@8 00482270     AboutDialogBase.obj
 0003:00011294       ??_R3QLayoutItem@@8        00482294     AboutDialogBase.obj
 0003:000112a8       ??_R2QLayoutItem@@8        004822a8     AboutDialogBase.obj
 0003:000112b0       ??_R1A@?0A@EA@QLayoutItem@@8 004822b0     AboutDialogBase.obj
 0003:000112d4       ??_R4QVBoxLayout@@6BQLayoutItem@@@ 004822d4     AboutDialogBase.obj
 0003:000112ec       ??_R4QHBoxLayout@@6BQObject@@@ 004822ec     AboutDialogBase.obj
 0003:00011304       ??_R3QHBoxLayout@@8        00482304     AboutDialogBase.obj
 0003:00011318       ??_R2QHBoxLayout@@8        00482318     AboutDialogBase.obj
 0003:00011338       ??_R1A@?0A@EA@QHBoxLayout@@8 00482338     AboutDialogBase.obj
 0003:0001135c       ??_R4QHBoxLayout@@6BQLayoutItem@@@ 0048235c     AboutDialogBase.obj
 0003:00011374       ??_R4QLabel@@6BQObject@@@  00482374     AboutDialogBase.obj
 0003:0001138c       ??_R3QLabel@@8             0048238c     AboutDialogBase.obj
 0003:000113a0       ??_R2QLabel@@8             004823a0     AboutDialogBase.obj
 0003:000113c0       ??_R1A@?0A@EA@QLabel@@8    004823c0     AboutDialogBase.obj
 0003:000113e4       ??_R1A@?0A@EA@QFrame@@8    004823e4     AboutDialogBase.obj
 0003:00011408       ??_R3QFrame@@8             00482408     AboutDialogBase.obj
 0003:0001141c       ??_R2QFrame@@8             0048241c     AboutDialogBase.obj
 0003:00011438       ??_R4QLabel@@6BQPaintDevice@@@ 00482438     AboutDialogBase.obj
 0003:00011450       ??_R4AboutDialogBase@@6BQObject@@@ 00482450     AboutDialogBase.obj
 0003:00011468       ??_R4AboutDialogBase@@6BQPaintDevice@@@ 00482468     AboutDialogBase.obj
 0003:00011480       ??_R4QSpacerItem@@6B@      00482480     AboutDialogBase.obj
 0003:00011498       ??_R3QSpacerItem@@8        00482498     AboutDialogBase.obj
 0003:000114ac       ??_R2QSpacerItem@@8        004824ac     AboutDialogBase.obj
 0003:000114b8       ??_R1A@?0A@EA@QSpacerItem@@8 004824b8     AboutDialogBase.obj
 0003:000114dc       ??_R4QWidget@@6BQObject@@@ 004824dc     bncs_ws_mandialogbase.obj
 0003:000114f4       ??_R4QWidget@@6BQPaintDevice@@@ 004824f4     bncs_ws_mandialogbase.obj
 0003:0001150c       ??_R4QToolBar@@6BQObject@@@ 0048250c     bncs_ws_mandialogbase.obj
 0003:00011524       ??_R3QToolBar@@8           00482524     bncs_ws_mandialogbase.obj
 0003:00011538       ??_R2QToolBar@@8           00482538     bncs_ws_mandialogbase.obj
 0003:0001155c       ??_R1A@?0A@EA@QToolBar@@8  0048255c     bncs_ws_mandialogbase.obj
 0003:00011580       ??_R1A@?0A@EA@QDockWindow@@8 00482580     bncs_ws_mandialogbase.obj
 0003:000115a4       ??_R3QDockWindow@@8        004825a4     bncs_ws_mandialogbase.obj
 0003:000115b8       ??_R2QDockWindow@@8        004825b8     bncs_ws_mandialogbase.obj
 0003:000115d8       ??_R4QToolBar@@6BQPaintDevice@@@ 004825d8     bncs_ws_mandialogbase.obj
 0003:000115f0       ??_R4QMenuBar@@6BQObject@@@ 004825f0     bncs_ws_mandialogbase.obj
 0003:00011608       ??_R3QMenuBar@@8           00482608     bncs_ws_mandialogbase.obj
 0003:0001161c       ??_R2QMenuBar@@8           0048261c     bncs_ws_mandialogbase.obj
 0003:00011640       ??_R1A@?0A@EA@QMenuBar@@8  00482640     bncs_ws_mandialogbase.obj
 0003:00011664       ??_R1IM@?0A@EA@QMenuData@@8 00482664     bncs_ws_mandialogbase.obj
 0003:00011688       ??_R3QMenuData@@8          00482688     bncs_ws_mandialogbase.obj
 0003:0001169c       ??_R2QMenuData@@8          0048269c     bncs_ws_mandialogbase.obj
 0003:000116a4       ??_R1A@?0A@EA@QMenuData@@8 004826a4     bncs_ws_mandialogbase.obj
 0003:000116c8       ??_R4QMenuBar@@6BQPaintDevice@@@ 004826c8     bncs_ws_mandialogbase.obj
 0003:000116e0       ??_R4QMenuBar@@6B@         004826e0     bncs_ws_mandialogbase.obj
 0003:000116f8       ??_R4QPopupMenu@@6BQObject@@@ 004826f8     bncs_ws_mandialogbase.obj
 0003:00011710       ??_R3QPopupMenu@@8         00482710     bncs_ws_mandialogbase.obj
 0003:00011724       ??_R2QPopupMenu@@8         00482724     bncs_ws_mandialogbase.obj
 0003:00011748       ??_R1A@?0A@EA@QPopupMenu@@8 00482748     bncs_ws_mandialogbase.obj
 0003:0001176c       ??_R4QPopupMenu@@6BQPaintDevice@@@ 0048276c     bncs_ws_mandialogbase.obj
 0003:00011784       ??_R4QPopupMenu@@6B@       00482784     bncs_ws_mandialogbase.obj
 0003:0001179c       ??_R4QAction@@6B@          0048279c     bncs_ws_mandialogbase.obj
 0003:000117b4       ??_R3QAction@@8            004827b4     bncs_ws_mandialogbase.obj
 0003:000117c8       ??_R2QAction@@8            004827c8     bncs_ws_mandialogbase.obj
 0003:000117d8       ??_R1A@?0A@EA@QAction@@8   004827d8     bncs_ws_mandialogbase.obj
 0003:000117fc       ??_R4QGroupBox@@6BQObject@@@ 004827fc     bncs_ws_mandialogbase.obj
 0003:00011814       ??_R3QGroupBox@@8          00482814     bncs_ws_mandialogbase.obj
 0003:00011828       ??_R2QGroupBox@@8          00482828     bncs_ws_mandialogbase.obj
 0003:00011848       ??_R1A@?0A@EA@QGroupBox@@8 00482848     bncs_ws_mandialogbase.obj
 0003:0001186c       ??_R4QGroupBox@@6BQPaintDevice@@@ 0048286c     bncs_ws_mandialogbase.obj
 0003:00011884       ??_R4bncs_ws_manDialogBase@@6BQObject@@@ 00482884     bncs_ws_mandialogbase.obj
 0003:0001189c       ??_R4bncs_ws_manDialogBase@@6BQPaintDevice@@@ 0048289c     bncs_ws_mandialogbase.obj
 0003:000118b4       ??_R4QListView@@6BQObject@@@ 004828b4     csi_startdialogbase.obj
 0003:000118cc       ??_R3QListView@@8          004828cc     csi_startdialogbase.obj
 0003:000118e0       ??_R2QListView@@8          004828e0     csi_startdialogbase.obj
 0003:00011904       ??_R1A@?0A@EA@QListView@@8 00482904     csi_startdialogbase.obj
 0003:00011928       ??_R1A@?0A@EA@QScrollView@@8 00482928     csi_startdialogbase.obj
 0003:0001194c       ??_R3QScrollView@@8        0048294c     csi_startdialogbase.obj
 0003:00011960       ??_R2QScrollView@@8        00482960     csi_startdialogbase.obj
 0003:00011980       ??_R4QListView@@6BQPaintDevice@@@ 00482980     csi_startdialogbase.obj
 0003:00011998       ??_R4csi_startDialogBase@@6BQObject@@@ 00482998     csi_startdialogbase.obj
 0003:000119b0       ??_R4csi_startDialogBase@@6BQPaintDevice@@@ 004829b0     csi_startdialogbase.obj
 0003:000119c8       ??_R4QListBox@@6BQObject@@@ 004829c8     logdialog.obj
 0003:000119e0       ??_R3QListBox@@8           004829e0     logdialog.obj
 0003:000119f4       ??_R2QListBox@@8           004829f4     logdialog.obj
 0003:00011a18       ??_R1A@?0A@EA@QListBox@@8  00482a18     logdialog.obj
 0003:00011a3c       ??_R4QListBox@@6BQPaintDevice@@@ 00482a3c     logdialog.obj
 0003:00011a54       ??_R4logDialogBase@@6BQObject@@@ 00482a54     logdialog.obj
 0003:00011a6c       ??_R4logDialogBase@@6BQPaintDevice@@@ 00482a6c     logdialog.obj
 0003:00011a84       ??_R4restartDialogBase@@6BQObject@@@ 00482a84     restartdialog.obj
 0003:00011a9c       ??_R4restartDialogBase@@6BQPaintDevice@@@ 00482a9c     restartdialog.obj
 0003:00011ab4       ??_R4bncs_disklog@@6B@     00482ab4     bncs_disklogdb:bncs_disklog.obj
 0003:00011acc       ??_R3bncs_disklog@@8       00482acc     bncs_disklogdb:bncs_disklog.obj
 0003:00011ae0       ??_R2bncs_disklog@@8       00482ae0     bncs_disklogdb:bncs_disklog.obj
 0003:00011ae8       ??_R1A@?0A@EA@bncs_disklog@@8 00482ae8     bncs_disklogdb:bncs_disklog.obj
 0003:00011b0c       ??_R4cBncsVersion@@6B@     00482b0c     bncsversioninfodb:cBncsVersion.obj
 0003:00011b24       ??_R3cBncsVersion@@8       00482b24     bncsversioninfodb:cBncsVersion.obj
 0003:00011b38       ??_R2cBncsVersion@@8       00482b38     bncsversioninfodb:cBncsVersion.obj
 0003:00011b40       ??_R1A@?0A@EA@cBncsVersion@@8 00482b40     bncsversioninfodb:cBncsVersion.obj
 0003:00011b64       ??_R4QtSingleApplication@@6B@ 00482b64     qtsingleapplication:qtsingleapplication.obj
 0003:00011b7c       ??_R3QtSingleApplication@@8 00482b7c     qtsingleapplication:qtsingleapplication.obj
 0003:00011b90       ??_R2QtSingleApplication@@8 00482b90     qtsingleapplication:qtsingleapplication.obj
 0003:00011ba4       ??_R1A@?0A@EA@QtSingleApplication@@8 00482ba4     qtsingleapplication:qtsingleapplication.obj
 0003:00011bc8       ??_R1A@?0A@EA@QApplication@@8 00482bc8     qtsingleapplication:qtsingleapplication.obj
 0003:00011bec       ??_R3QApplication@@8       00482bec     qtsingleapplication:qtsingleapplication.obj
 0003:00011c00       ??_R2QApplication@@8       00482c00     qtsingleapplication:qtsingleapplication.obj
 0003:00011c10       ??_R4type_info@@6B@        00482c10     MSVCRTD:ti_inst.obj
 0003:00011c28       ??_R3type_info@@8          00482c28     MSVCRTD:ti_inst.obj
 0003:00011c3c       ??_R2type_info@@8          00482c3c     MSVCRTD:ti_inst.obj
 0003:00011c44       ??_R1A@?0A@EA@type_info@@8 00482c44     MSVCRTD:ti_inst.obj
 0003:00011e20       ___rtc_iaa                 00482e20     MSVCRTD:initsect.obj
 0003:000120dc       ___rtc_izz                 004830dc     MSVCRTD:initsect.obj
 0003:000121e0       ___rtc_taa                 004831e0     MSVCRTD:initsect.obj
 0003:0001249c       ___rtc_tzz                 0048349c     MSVCRTD:initsect.obj
 0004:00000314       ?__LINE__Var@?1??doStop@bncs_ws_manDialog@@AAEXXZ@4JA 00487314     bncs_ws_mandialog.obj
 0004:00000480       ___security_cookie         00487480     MSVCRTD:gs_cookie.obj
 0004:00000484       ___security_cookie_complement 00487484     MSVCRTD:gs_cookie.obj
 0004:00000490       ?_RTC_ErrorLevels@@3PAHA   00487490     MSVCRTD:error.obj
 0004:000004b0       ___defaultmatherr          004874b0     MSVCRTD:merr.obj
 0004:000004b4       ___globallocalestatus      004874b4     MSVCRTD:xthdloc.obj
 0004:000004b8       ___native_dllmain_reason   004874b8     MSVCRTD:natstart.obj
 0004:000005cc       ??_R0?AVdecodeBNCSString@@@8 004875cc     decodeBNCSString.obj
 0004:000005f4       ??_R0?AVAboutDialog@@@8    004875f4     AboutDialog.obj
 0004:00000614       ??_R0?AVAboutDialogBase@@@8 00487614     AboutDialog.obj
 0004:00000638       ??_R0?AVQDialog@@@8        00487638     AboutDialog.obj
 0004:00000654       ??_R0?AVQWidget@@@8        00487654     AboutDialog.obj
 0004:00000670       ??_R0?AVQObject@@@8        00487670     AboutDialog.obj
 0004:0000068c       ??_R0?AVQt@@@8             0048768c     AboutDialog.obj
 0004:000006a0       ??_R0?AVQPaintDevice@@@8   004876a0     AboutDialog.obj
 0004:000006c0       ??_R0?AVerror_category@std@@@8 004876c0     bncs_ws_mandialog.obj
 0004:000006e8       ??_R0?AV_Generic_error_category@std@@@8 004876e8     bncs_ws_mandialog.obj
 0004:0000071c       ??_R0?AV_Iostream_error_category@std@@@8 0048771c     bncs_ws_mandialog.obj
 0004:00000750       ??_R0?AV_System_error_category@std@@@8 00487750     bncs_ws_mandialog.obj
 0004:00000784       ??_R0?AVbncs_ws_manDialog@@@8 00487784     bncs_ws_mandialog.obj
 0004:000007ac       ??_R0?AVbncs_ws_manDialogBase@@@8 004877ac     bncs_ws_mandialog.obj
 0004:000007d8       ??_R0?AVQMainWindow@@@8    004877d8     bncs_ws_mandialog.obj
 0004:000007f8       ??_R0?AVQListViewItem@@@8  004877f8     csi_startdialog.obj
 0004:0000081c       ??_R0?AVlaunchListViewItem@@@8 0048781c     csi_startdialog.obj
 0004:00000844       ??_R0?AVQGList@@@8         00487844     csi_startdialog.obj
 0004:00000860       ??_R0?AVQPtrCollection@@@8 00487860     csi_startdialog.obj
 0004:00000884       ??_R0?AVcsi_startDialog@@@8 00487884     csi_startdialog.obj
 0004:000008a8       ??_R0?AVcsi_startDialogBase@@@8 004878a8     csi_startdialog.obj
 0004:000008d0       ??_R0?AV?$QPtrList@VprocessBase@@@@@8 004878d0     csi_startdialog.obj
 0004:00000900       ??_R0?AVlogDelete@@@8      00487900     logDelete.obj
 0004:0000091c       ??_R0?AVlogDialog@@@8      0048791c     logdialogimpl.obj
 0004:00000938       ??_R0?AVlogDialogBase@@@8  00487938     logdialogimpl.obj
 0004:0000095c       ??_R0?AVQSocketDevice@@@8  0048795c     netComms.obj
 0004:00000980       ??_R0?AVQIODevice@@@8      00487980     netComms.obj
 0004:0000099c       ??_R0?AVQSocketNotifier@@@8 0048799c     netComms.obj
 0004:000009c0       ??_R0?AVnetComms@@@8       004879c0     netComms.obj
 0004:000009dc       ??_R0?AVprocessBase@@@8    004879dc     processBase.obj
 0004:000009fc       ??_R0?AVQProcess@@@8       004879fc     processBase.obj
 0004:00000a18       ??_R0?AVProgram@@@8        00487a18     Program.obj
 0004:00000a34       ??_R0?AVStopAllProgram@@@8 00487a34     Program.obj
 0004:00000a58       ??_R0?AVRestartAllProgram@@@8 00487a58     Program.obj
 0004:00000a80       ??_R0?AVUpdateAndRestartProgram@@@8 00487a80     Program.obj
 0004:00000ab0       ??_R0?AVInitializeProgram@@@8 00487ab0     Program.obj
 0004:00000ad8       ??_R0?AVStopAndTestProgram@@@8 00487ad8     Program.obj
 0004:00000b00       ??_R0?AVStopAndReloadLauncherProgram@@@8 00487b00     Program.obj
 0004:00000b34       ??_R0?AVStartAndStopWithSyncProgram@@@8 00487b34     Program.obj
 0004:00000b68       ??_R0?AVStartAndStopNoSyncProgram@@@8 00487b68     Program.obj
 0004:00000b98       ??_R0?AVRestartNoReloadLauncherProgram@@@8 00487b98     Program.obj
 0004:00000bd0       ??_R0?AVResyncAndReloadLauncherProgram@@@8 00487bd0     Program.obj
 0004:00000c08       ??_R0?AVrestartDialog@@@8  00487c08     restartdialogimpl.obj
 0004:00000c2c       ??_R0?AVrestartDialogBase@@@8 00487c2c     restartdialogimpl.obj
 0004:00000c54       ??_R0?AVrestartThread@@@8  00487c54     restartThread.obj
 0004:00000c78       ??_R0?AVQThread@@@8        00487c78     restartThread.obj
 0004:00000c94       ??_R0?AVstartCSI@@@8       00487c94     startCSI.obj
 0004:00000cb0       ??_R0?AVstartCSIHelper@@@8 00487cb0     startCSIHelper.obj
 0004:00000cd4       ??_R0?AVSyncProcess@@@8    00487cd4     SyncProcess.obj
 0004:00000cf4       ??_R0?AVNoSyncProcess@@@8  00487cf4     SyncProcess.obj
 0004:00000d18       ??_R0?AVFileSyncProcess@@@8 00487d18     SyncProcess.obj
 0004:00000d3c       ??_R0?AVQPushButton@@@8    00487d3c     AboutDialogBase.obj
 0004:00000d5c       ??_R0?AVQButton@@@8        00487d5c     AboutDialogBase.obj
 0004:00000d78       ??_R0?AVQVBoxLayout@@@8    00487d78     AboutDialogBase.obj
 0004:00000d98       ??_R0?AVQBoxLayout@@@8     00487d98     AboutDialogBase.obj
 0004:00000db8       ??_R0?AVQLayout@@@8        00487db8     AboutDialogBase.obj
 0004:00000dd4       ??_R0?AVQLayoutItem@@@8    00487dd4     AboutDialogBase.obj
 0004:00000df4       ??_R0?AVQHBoxLayout@@@8    00487df4     AboutDialogBase.obj
 0004:00000e14       ??_R0?AVQLabel@@@8         00487e14     AboutDialogBase.obj
 0004:00000e30       ??_R0?AVQFrame@@@8         00487e30     AboutDialogBase.obj
 0004:00000e4c       ??_R0?AVQSpacerItem@@@8    00487e4c     AboutDialogBase.obj
 0004:00000e6c       ??_R0?AVQToolBar@@@8       00487e6c     bncs_ws_mandialogbase.obj
 0004:00000e88       ??_R0?AVQDockWindow@@@8    00487e88     bncs_ws_mandialogbase.obj
 0004:00000ea8       ??_R0?AVQMenuBar@@@8       00487ea8     bncs_ws_mandialogbase.obj
 0004:00000ec4       ??_R0?AVQMenuData@@@8      00487ec4     bncs_ws_mandialogbase.obj
 0004:00000ee0       ??_R0?AVQPopupMenu@@@8     00487ee0     bncs_ws_mandialogbase.obj
 0004:00000f00       ??_R0?AVQAction@@@8        00487f00     bncs_ws_mandialogbase.obj
 0004:00000f1c       ??_R0?AVQGroupBox@@@8      00487f1c     bncs_ws_mandialogbase.obj
 0004:00000f38       ??_R0?AVQListView@@@8      00487f38     csi_startdialogbase.obj
 0004:00000f54       ??_R0?AVQScrollView@@@8    00487f54     csi_startdialogbase.obj
 0004:00000f74       ??_R0?AVQListBox@@@8       00487f74     logdialog.obj
 0004:00000f90       ??_R0?AVbncs_disklog@@@8   00487f90     bncs_disklogdb:bncs_disklog.obj
 0004:00000fb0       ??_R0?AVcBncsVersion@@@8   00487fb0     bncsversioninfodb:cBncsVersion.obj
 0004:00000fd0       ??_R0?AVQtSingleApplication@@@8 00487fd0     qtsingleapplication:qtsingleapplication.obj
 0004:00000ff8       ??_R0?AVQApplication@@@8   00487ff8     qtsingleapplication:qtsingleapplication.obj
 0004:00001018       ??_R0?AVtype_info@@@8      00488018     MSVCRTD:ti_inst.obj
 0004:0000116c       ?_Generic_object@?$_Error_objects@H@std@@2V_Generic_error_category@2@A 0048816c     bncs_ws_mandialog.obj
 0004:00001170       ?_Iostream_object@?$_Error_objects@H@std@@2V_Iostream_error_category@2@A 00488170     bncs_ws_mandialog.obj
 0004:00001174       ?_System_object@?$_Error_objects@H@std@@2V_System_error_category@2@A 00488174     bncs_ws_mandialog.obj
 0004:00001178       ?id@?$num_put@DV?$back_insert_iterator@V?$basic_string@DU?$char_traits@D@std@@V?$allocator@D@2@@std@@@std@@@std@@2V0locale@2@A 00488178     bncs_ws_mandialog.obj
 0004:0000117c       ?id@?$num_put@_WV?$back_insert_iterator@V?$basic_string@_WU?$char_traits@_W@std@@V?$allocator@_W@2@@std@@@std@@@std@@2V0locale@2@A 0048817c     bncs_ws_mandialog.obj
 0004:00001184       ?metaObj@AboutDialogBase@@0PAVQMetaObject@@A 00488184     moc_AboutDialogBase.obj
 0004:00001190       ?metaObj@SyncProcess@@0PAVQMetaObject@@A 00488190     moc_SyncProcess.obj
 0004:00001194       ?metaObj@NoSyncProcess@@0PAVQMetaObject@@A 00488194     moc_SyncProcess.obj
 0004:00001198       ?metaObj@FileSyncProcess@@0PAVQMetaObject@@A 00488198     moc_SyncProcess.obj
 0004:000011d4       ?metaObj@bncs_ws_manDialog@@0PAVQMetaObject@@A 004881d4     moc_bncs_ws_mandialog.obj
 0004:000011e8       ?metaObj@bncs_ws_manDialogBase@@0PAVQMetaObject@@A 004881e8     moc_bncs_ws_mandialogbase.obj
 0004:000011f4       ?metaObj@csi_startDialog@@0PAVQMetaObject@@A 004881f4     moc_csi_startdialog.obj
 0004:00001264       ?metaObj@csi_startDialogBase@@0PAVQMetaObject@@A 00488264     moc_csi_startdialogbase.obj
 0004:00001270       ?metaObj@logDelete@@0PAVQMetaObject@@A 00488270     moc_logDelete.obj
 0004:0000127c       ?metaObj@logDialogBase@@0PAVQMetaObject@@A 0048827c     moc_logdialog.obj
 0004:00001288       ?metaObj@logDialog@@0PAVQMetaObject@@A 00488288     moc_logdialogimpl.obj
 0004:000012c4       ?metaObj@netComms@@0PAVQMetaObject@@A 004882c4     moc_netComms.obj
 0004:000012dc       ?metaObj@processBase@@0PAVQMetaObject@@A 004882dc     moc_processBase.obj
 0004:000012ec       ?metaObj@restartDialogBase@@0PAVQMetaObject@@A 004882ec     moc_restartdialog.obj
 0004:000012f8       ?metaObj@restartDialog@@0PAVQMetaObject@@A 004882f8     moc_restartdialogimpl.obj
 0004:00001304       ?metaObj@startCSI@@0PAVQMetaObject@@A 00488304     moc_startCSI.obj
 0004:00001310       ?metaObj@startCSIHelper@@0PAVQMetaObject@@A 00488310     moc_startCSIHelper.obj
 0004:0000131c       ?metaObj@QtSingleApplication@@0PAVQMetaObject@@A 0048831c     qtsingleapplication:moc_qtsingleapplication.obj
 0004:00001750       ?wsprintffp@@3P6AHPADPBDZZA 00488750     MSVCRTD:error.obj
 0004:00001790       __commode                  00488790     MSVCRTD:xncommod.obj
 0004:00001794       __dowildcard               00488794     MSVCRTD:wildcard.obj
 0004:00001798       __newmode                  00488798     MSVCRTD:_newmode.obj
 0004:0000179c       __fmode                    0048879c     MSVCRTD:xtxtmode.obj
 0004:000017a0       ___native_startup_lock     004887a0     <common>
 0004:000017b0       ___native_startup_state    004887b0     <common>
 0004:000017b4       ___dyn_tls_init_callback   004887b4     <common>
 0004:000017c4       ___onexitend               004887c4     <common>
 0004:000017d4       ___onexitbegin             004887d4     <common>
 0005:00000000       __imp__AdjustTokenPrivileges@24 00489000     advapi32:ADVAPI32.dll
 0005:00000004       __imp__OpenProcessToken@12 00489004     advapi32:ADVAPI32.dll
 0005:00000008       __imp__GetUserNameA@8      00489008     advapi32:ADVAPI32.dll
 0005:0000000c       __imp__LookupPrivilegeValueA@12 0048900c     advapi32:ADVAPI32.dll
 0005:00000010       \177ADVAPI32_NULL_THUNK_DATA 00489010     advapi32:ADVAPI32.dll
 0005:0000003c       __imp__GetSystemTimeAsFileTime@4 0048903c     kernel32:KERNEL32.dll
 0005:00000040       __imp__GetCurrentThreadId@0 00489040     kernel32:KERNEL32.dll
 0005:00000044       __imp__GetCurrentProcessId@0 00489044     kernel32:KERNEL32.dll
 0005:00000048       __imp__QueryPerformanceCounter@4 00489048     kernel32:KERNEL32.dll
 0005:0000004c       __imp__GetModuleHandleW@4  0048904c     kernel32:KERNEL32.dll
 0005:00000050       __imp__GetModuleFileNameW@12 00489050     kernel32:KERNEL32.dll
 0005:00000054       __imp__FreeLibrary@4       00489054     kernel32:KERNEL32.dll
 0005:00000058       __imp__VirtualQuery@12     00489058     kernel32:KERNEL32.dll
 0005:0000005c       __imp__GetProcessHeap@0    0048905c     kernel32:KERNEL32.dll
 0005:00000060       __imp__HeapFree@12         00489060     kernel32:KERNEL32.dll
 0005:00000064       __imp__HeapAlloc@12        00489064     kernel32:KERNEL32.dll
 0005:00000068       __imp__WideCharToMultiByte@32 00489068     kernel32:KERNEL32.dll
 0005:0000006c       __imp__MultiByteToWideChar@24 0048906c     kernel32:KERNEL32.dll
 0005:00000070       __imp__LoadLibraryExW@12   00489070     kernel32:KERNEL32.dll
 0005:00000074       __imp__RaiseException@16   00489074     kernel32:KERNEL32.dll
 0005:00000078       __imp__IsProcessorFeaturePresent@4 00489078     kernel32:KERNEL32.dll
 0005:0000007c       __imp__IsDebuggerPresent@0 0048907c     kernel32:KERNEL32.dll
 0005:00000080       __imp__WritePrivateProfileStringA@16 00489080     kernel32:KERNEL32.dll
 0005:00000084       __imp__EncodePointer@4     00489084     kernel32:KERNEL32.dll
 0005:00000088       __imp__GetSystemDirectoryA@8 00489088     kernel32:KERNEL32.dll
 0005:0000008c       __imp__WriteFile@20        0048908c     kernel32:KERNEL32.dll
 0005:00000090       __imp__SetEndOfFile@4      00489090     kernel32:KERNEL32.dll
 0005:00000094       __imp__SetFilePointer@16   00489094     kernel32:KERNEL32.dll
 0005:00000098       __imp__CloseHandle@4       00489098     kernel32:KERNEL32.dll
 0005:0000009c       __imp__GetSystemTime@4     0048909c     kernel32:KERNEL32.dll
 0005:000000a0       __imp__GetLocalTime@4      004890a0     kernel32:KERNEL32.dll
 0005:000000a4       __imp__CreateFileA@28      004890a4     kernel32:KERNEL32.dll
 0005:000000a8       __imp__GetCurrentProcess@0 004890a8     kernel32:KERNEL32.dll
 0005:000000ac       __imp__Sleep@4             004890ac     kernel32:KERNEL32.dll
 0005:000000b0       __imp__GetVersionExA@4     004890b0     kernel32:KERNEL32.dll
 0005:000000b4       __imp__GetPrivateProfileIntA@16 004890b4     kernel32:KERNEL32.dll
 0005:000000b8       __imp__GetModuleHandleA@4  004890b8     kernel32:KERNEL32.dll
 0005:000000bc       __imp__GetSystemInfo@4     004890bc     kernel32:KERNEL32.dll
 0005:000000c0       __imp__GetProcAddress@8    004890c0     kernel32:KERNEL32.dll
 0005:000000c4       __imp__GetPrivateProfileStringA@24 004890c4     kernel32:KERNEL32.dll
 0005:000000c8       __imp__WinExec@8           004890c8     kernel32:KERNEL32.dll
 0005:000000cc       __imp__GetModuleFileNameA@12 004890cc     kernel32:KERNEL32.dll
 0005:000000d0       __imp__lstrcpynA@12        004890d0     kernel32:KERNEL32.dll
 0005:000000d4       __imp__DecodePointer@4     004890d4     kernel32:KERNEL32.dll
 0005:000000d8       __imp__OutputDebugStringA@4 004890d8     kernel32:KERNEL32.dll
 0005:000000dc       __imp__GetLastError@0      004890dc     kernel32:KERNEL32.dll
 0005:000000e0       \177KERNEL32_NULL_THUNK_DATA 004890e0     kernel32:KERNEL32.dll
 0005:0000012c       __imp_?_Syserror_map@std@@YAPBDH@Z 0048912c     msvcprtd:MSVCP120D.dll
 0005:00000130       __imp_??0id@locale@std@@QAE@I@Z 00489130     msvcprtd:MSVCP120D.dll
 0005:00000134       __imp_?_Xout_of_range@std@@YAXPBD@Z 00489134     msvcprtd:MSVCP120D.dll
 0005:00000138       __imp_?_Xlength_error@std@@YAXPBD@Z 00489138     msvcprtd:MSVCP120D.dll
 0005:0000013c       __imp_?_Xbad_alloc@std@@YAXXZ 0048913c     msvcprtd:MSVCP120D.dll
 0005:00000140       __imp_?_Orphan_all@_Container_base12@std@@QAEXXZ 00489140     msvcprtd:MSVCP120D.dll
 0005:00000144       __imp_??1_Container_base12@std@@QAE@XZ 00489144     msvcprtd:MSVCP120D.dll
 0005:00000148       __imp_??0_Container_base12@std@@QAE@XZ 00489148     msvcprtd:MSVCP120D.dll
 0005:0000014c       __imp_?_Debug_message@std@@YAXPB_W0I@Z 0048914c     msvcprtd:MSVCP120D.dll
 0005:00000150       __imp_?_Winerror_map@std@@YAPBDH@Z 00489150     msvcprtd:MSVCP120D.dll
 0005:00000154       \177MSVCP120D_NULL_THUNK_DATA 00489154     msvcprtd:MSVCP120D.dll
 0005:00000188       __imp____crtGetShowWindowMode 00489188     MSVCRTD:MSVCR120D.dll
 0005:0000018c       __imp___XcptFilter         0048918c     MSVCRTD:MSVCR120D.dll
 0005:00000190       __imp_?terminate@@YAXXZ    00489190     MSVCRTD:MSVCR120D.dll
 0005:00000194       __imp___initterm           00489194     MSVCRTD:MSVCR120D.dll
 0005:00000198       __imp____crtUnhandledException 00489198     MSVCRTD:MSVCR120D.dll
 0005:0000019c       __imp___crt_debugger_hook  0048919c     MSVCRTD:MSVCR120D.dll
 0005:000001a0       __imp___onexit             004891a0     MSVCRTD:MSVCR120D.dll
 0005:000001a4       __imp____dllonexit         004891a4     MSVCRTD:MSVCR120D.dll
 0005:000001a8       __imp___calloc_dbg         004891a8     MSVCRTD:MSVCR120D.dll
 0005:000001ac       __imp___unlock             004891ac     MSVCRTD:MSVCR120D.dll
 0005:000001b0       __imp___lock               004891b0     MSVCRTD:MSVCR120D.dll
 0005:000001b4       __imp_??1type_info@@UAE@XZ 004891b4     MSVCRTD:MSVCR120D.dll
 0005:000001b8       __imp___CRT_RTC_INITW      004891b8     MSVCRTD:MSVCR120D.dll
 0005:000001bc       __imp__malloc              004891bc     MSVCRTD:MSVCR120D.dll
 0005:000001c0       __imp__free                004891c0     MSVCRTD:MSVCR120D.dll
 0005:000001c4       __imp__strpbrk             004891c4     MSVCRTD:MSVCR120D.dll
 0005:000001c8       __imp___mkdir              004891c8     MSVCRTD:MSVCR120D.dll
 0005:000001cc       __imp___time64             004891cc     MSVCRTD:MSVCR120D.dll
 0005:000001d0       __imp___localtime64        004891d0     MSVCRTD:MSVCR120D.dll
 0005:000001d4       __imp__strtok              004891d4     MSVCRTD:MSVCR120D.dll
 0005:000001d8       __imp__strcat              004891d8     MSVCRTD:MSVCR120D.dll
 0005:000001dc       __imp__memset              004891dc     MSVCRTD:MSVCR120D.dll
 0005:000001e0       __imp__sprintf             004891e0     MSVCRTD:MSVCR120D.dll
 0005:000001e4       __imp____RTDynamicCast     004891e4     MSVCRTD:MSVCR120D.dll
 0005:000001e8       __imp_??_U@YAPAXI@Z        004891e8     MSVCRTD:MSVCR120D.dll
 0005:000001ec       __imp___amsg_exit          004891ec     MSVCRTD:MSVCR120D.dll
 0005:000001f0       __imp__strcpy              004891f0     MSVCRTD:MSVCR120D.dll
 0005:000001f4       __imp___CxxThrowException@8 004891f4     MSVCRTD:MSVCR120D.dll
 0005:000001f8       __imp___hypot              004891f8     MSVCRTD:MSVCR120D.dll
 0005:000001fc       __imp___CrtDbgReportW      004891fc     MSVCRTD:MSVCR120D.dll
 0005:00000200       __imp__getenv              00489200     MSVCRTD:MSVCR120D.dll
 0005:00000204       __imp__atoi                00489204     MSVCRTD:MSVCR120D.dll
 0005:00000208       __imp__memmove             00489208     MSVCRTD:MSVCR120D.dll
 0005:0000020c       __imp__memcpy              0048920c     MSVCRTD:MSVCR120D.dll
 0005:00000210       __imp___purecall           00489210     MSVCRTD:MSVCR120D.dll
 0005:00000214       __imp____CxxFrameHandler3  00489214     MSVCRTD:MSVCR120D.dll
 0005:00000218       __imp__strchr              00489218     MSVCRTD:MSVCR120D.dll
 0005:0000021c       __imp__strncpy             0048921c     MSVCRTD:MSVCR120D.dll
 0005:00000220       __imp__strlen              00489220     MSVCRTD:MSVCR120D.dll
 0005:00000224       __imp_??3@YAXPAX@Z         00489224     MSVCRTD:MSVCR120D.dll
 0005:00000228       __imp_??2@YAPAXI@Z         00489228     MSVCRTD:MSVCR120D.dll
 0005:0000022c       __imp___acmdln             0048922c     MSVCRTD:MSVCR120D.dll
 0005:00000230       __imp___fmode              00489230     MSVCRTD:MSVCR120D.dll
 0005:00000234       __imp___commode            00489234     MSVCRTD:MSVCR120D.dll
 0005:00000238       __imp___except_handler4_common 00489238     MSVCRTD:MSVCR120D.dll
 0005:0000023c       __imp__wcscpy_s            0048923c     MSVCRTD:MSVCR120D.dll
 0005:00000240       __imp___wmakepath_s        00489240     MSVCRTD:MSVCR120D.dll
 0005:00000244       __imp___wsplitpath_s       00489244     MSVCRTD:MSVCR120D.dll
 0005:00000248       __imp____crtSetUnhandledExceptionFilter 00489248     MSVCRTD:MSVCR120D.dll
 0005:0000024c       __imp___invoke_watson      0048924c     MSVCRTD:MSVCR120D.dll
 0005:00000250       __imp___controlfp_s        00489250     MSVCRTD:MSVCR120D.dll
 0005:00000254       __imp____getmainargs       00489254     MSVCRTD:MSVCR120D.dll
 0005:00000258       __imp____set_app_type      00489258     MSVCRTD:MSVCR120D.dll
 0005:0000025c       __imp___CrtSetCheckCount   0048925c     MSVCRTD:MSVCR120D.dll
 0005:00000260       __imp__exit                00489260     MSVCRTD:MSVCR120D.dll
 0005:00000264       __imp___exit               00489264     MSVCRTD:MSVCR120D.dll
 0005:00000268       __imp___cexit              00489268     MSVCRTD:MSVCR120D.dll
 0005:0000026c       __imp___ismbblead          0048926c     MSVCRTD:MSVCR120D.dll
 0005:00000270       __imp___configthreadlocale 00489270     MSVCRTD:MSVCR120D.dll
 0005:00000274       __imp____setusermatherr    00489274     MSVCRTD:MSVCR120D.dll
 0005:00000278       __imp_??_V@YAXPAX@Z        00489278     MSVCRTD:MSVCR120D.dll
 0005:0000027c       __imp___initterm_e         0048927c     MSVCRTD:MSVCR120D.dll
 0005:00000280       __imp___stricmp            00489280     MSVCRTD:MSVCR120D.dll
 0005:00000280       __imp__stricmp             00489280     MSVCRTD:MSVCR120D.dll
 0005:00000284       __imp____crtTerminateProcess 00489284     MSVCRTD:MSVCR120D.dll
 0005:00000288       __imp___putenv             00489288     MSVCRTD:MSVCR120D.dll
 0005:00000288       __imp__putenv              00489288     MSVCRTD:MSVCR120D.dll
 0005:0000028c       \177MSVCR120D_NULL_THUNK_DATA 0048928c     MSVCRTD:MSVCR120D.dll
 0005:000002ec       __imp__PostMessageA@16     004892ec     user32:USER32.dll
 0005:000002f0       __imp__FindWindowA@8       004892f0     user32:USER32.dll
 0005:000002f4       __imp__WaitForInputIdle@8  004892f4     user32:USER32.dll
 0005:000002f8       __imp__ExitWindowsEx@8     004892f8     user32:USER32.dll
 0005:000002fc       __imp__MessageBoxA@16      004892fc     user32:USER32.dll
 0005:00000300       __imp__SendMessageTimeoutA@28 00489300     user32:USER32.dll
 0005:00000304       __imp__wsprintfA           00489304     user32:USER32.dll
 0005:00000308       \177USER32_NULL_THUNK_DATA 00489308     user32:USER32.dll
 0005:00000338       __imp__GetFileVersionInfoA@16 00489338     version:VERSION.dll
 0005:0000033c       __imp__VerQueryValueA@16   0048933c     version:VERSION.dll
 0005:00000340       __imp__GetFileVersionInfoSizeA@8 00489340     version:VERSION.dll
 0005:00000344       \177VERSION_NULL_THUNK_DATA 00489344     version:VERSION.dll
 0005:00000370       __imp__setsockopt@20       00489370     wsock32:WSOCK32.dll
 0005:00000374       \177WSOCK32_NULL_THUNK_DATA 00489374     wsock32:WSOCK32.dll
 0005:000003a0       __imp_?attr@bncs_config@@QAE?AVbncs_string@@ABV2@@Z 004893a0     bncs_configdb:bncs_configdb.dll
 0005:000003a4       __imp_?childAttr@bncs_config@@QAE?AVbncs_string@@ABV2@@Z 004893a4     bncs_configdb:bncs_configdb.dll
 0005:000003a8       __imp_?nextChild@bncs_config@@QAE_NXZ 004893a8     bncs_configdb:bncs_configdb.dll
 0005:000003ac       __imp_?isChildValid@bncs_config@@QAE_NXZ 004893ac     bncs_configdb:bncs_configdb.dll
 0005:000003b0       __imp_?clearCache@bncs_config@@SAXXZ 004893b0     bncs_configdb:bncs_configdb.dll
 0005:000003b4       __imp_??0bncs_config@@QAE@ABVbncs_string@@@Z 004893b4     bncs_configdb:bncs_configdb.dll
 0005:000003b8       __imp_??1bncs_config@@UAE@XZ 004893b8     bncs_configdb:bncs_configdb.dll
 0005:000003bc       __imp_?isValid@bncs_config@@QAE_NXZ 004893bc     bncs_configdb:bncs_configdb.dll
 0005:000003c0       \177bncs_configdb_NULL_THUNK_DATA 004893c0     bncs_configdb:bncs_configdb.dll
 0005:000003f0       __imp_?arg@bncs_string@@QBE?AV1@PBD@Z 004893f0     bncs_stringdb:bncs_stringdb.dll
 0005:000003f4       __imp_??8@YA_NABVbncs_string@@PBD@Z 004893f4     bncs_stringdb:bncs_stringdb.dll
 0005:000003f8       __imp_??H@YA?BVbncs_string@@PBDABV0@@Z 004893f8     bncs_stringdb:bncs_stringdb.dll
 0005:000003fc       __imp_??Bbncs_string@@QBEHXZ 004893fc     bncs_stringdb:bncs_stringdb.dll
 0005:00000400       __imp_??Bbncs_string@@QBEPBDXZ 00489400     bncs_stringdb:bncs_stringdb.dll
 0005:00000404       __imp_??0bncs_string@@QAE@PBD@Z 00489404     bncs_stringdb:bncs_stringdb.dll
 0005:00000408       __imp_??1bncs_string@@UAE@XZ 00489408     bncs_stringdb:bncs_stringdb.dll
 0005:0000040c       \177bncs_stringdb_NULL_THUNK_DATA 0048940c     bncs_stringdb:bncs_stringdb.dll
 0005:0000043c       __imp_?killTimer@QObject@@QAEXH@Z 0048943c     qt-mt323:qt-mt323.dll
 0005:00000440       __imp_?connect@QObject@@SA_NPBV1@PBD01@Z 00489440     qt-mt323:qt-mt323.dll
 0005:00000444       __imp_?disconnect@QObject@@QAE_NPBDPBV1@0@Z 00489444     qt-mt323:qt-mt323.dll
 0005:00000448       __imp_?deleteLater@QObject@@QAEXXZ 00489448     qt-mt323:qt-mt323.dll
 0005:0000044c       __imp_?argv@QApplication@@QBEPAPADXZ 0048944c     qt-mt323:qt-mt323.dll
 0005:00000450       __imp_?quit@QApplication@@QAEXXZ 00489450     qt-mt323:qt-mt323.dll
 0005:00000454       __imp_?exec@QDialog@@QAEHXZ 00489454     qt-mt323:qt-mt323.dll
 0005:00000458       __imp_?information@QMessageBox@@SAHPAVQWidget@@ABVQString@@1111HH@Z 00489458     qt-mt323:qt-mt323.dll
 0005:0000045c       __imp_?critical@QMessageBox@@SAHPAVQWidget@@ABVQString@@1111HH@Z 0048945c     qt-mt323:qt-mt323.dll
 0005:00000460       __imp_?remove@QLayout@@QAEXPAVQWidget@@@Z 00489460     qt-mt323:qt-mt323.dll
 0005:00000464       __imp_?addWidget@QBoxLayout@@QAEXPAVQWidget@@HH@Z 00489464     qt-mt323:qt-mt323.dll
 0005:00000468       __imp_??0QDir@@QAE@XZ      00489468     qt-mt323:qt-mt323.dll
 0005:0000046c       __imp_??1QDir@@UAE@XZ      0048946c     qt-mt323:qt-mt323.dll
 0005:00000470       __imp_?mkdir@QDir@@UBE_NABVQString@@_N@Z 00489470     qt-mt323:qt-mt323.dll
 0005:00000474       __imp_??0QProcess@@QAE@PAVQObject@@PBD@Z 00489474     qt-mt323:qt-mt323.dll
 0005:00000478       __imp_??1QProcess@@UAE@XZ  00489478     qt-mt323:qt-mt323.dll
 0005:0000047c       __imp_?addArgument@QProcess@@UAEXABVQString@@@Z 0048947c     qt-mt323:qt-mt323.dll
 0005:00000480       __imp_?start@QProcess@@UAE_NPAVQStringList@@@Z 00489480     qt-mt323:qt-mt323.dll
 0005:00000484       __imp_??0QPixmap@@QAE@QAPBD@Z 00489484     qt-mt323:qt-mt323.dll
 0005:00000488       __imp_??1QPixmap@@UAE@XZ   00489488     qt-mt323:qt-mt323.dll
 0005:0000048c       __imp_??0QKeySequence@@QAE@H@Z 0048948c     qt-mt323:qt-mt323.dll
 0005:00000490       __imp_??1QKeySequence@@QAE@XZ 00489490     qt-mt323:qt-mt323.dll
 0005:00000494       __imp_?count@QMenuData@@QBEIXZ 00489494     qt-mt323:qt-mt323.dll
 0005:00000498       __imp_?insertItem@QMenuData@@QAEHABVQString@@PBVQObject@@PBDABVQKeySequence@@HH@Z 00489498     qt-mt323:qt-mt323.dll
 0005:0000049c       __imp_?insertSeparator@QMenuData@@QAEHH@Z 0048949c     qt-mt323:qt-mt323.dll
 0005:000004a0       __imp_?findItem@QMenuData@@QBEPAVQMenuItem@@HPAPAV1@@Z 004894a0     qt-mt323:qt-mt323.dll
 0005:000004a4       __imp_?menuBar@QMainWindow@@QBEPAVQMenuBar@@XZ 004894a4     qt-mt323:qt-mt323.dll
 0005:000004a8       __imp_?addDockWindow@QMainWindow@@UAEXPAVQDockWindow@@ABVQString@@W4Dock@Qt@@_N@Z 004894a8     qt-mt323:qt-mt323.dll
 0005:000004ac       __imp_?addDockWindow@QMainWindow@@UAEXPAVQDockWindow@@W4Dock@Qt@@_N@Z 004894ac     qt-mt323:qt-mt323.dll
 0005:000004b0       __imp_?childEvent@QMainWindow@@MAEXPAVQChildEvent@@@Z 004894b0     qt-mt323:qt-mt323.dll
 0005:000004b4       __imp_?closeEvent@QWidget@@MAEXPAVQCloseEvent@@@Z 004894b4     qt-mt323:qt-mt323.dll
 0005:000004b8       __imp_?contextMenuEvent@QWidget@@MAEXPAVQContextMenuEvent@@@Z 004894b8     qt-mt323:qt-mt323.dll
 0005:000004bc       __imp_?customize@QMainWindow@@UAEXXZ 004894bc     qt-mt323:qt-mt323.dll
 0005:000004c0       __imp_?dockingArea@QMainWindow@@UAEPAVQDockArea@@ABVQPoint@@@Z 004894c0     qt-mt323:qt-mt323.dll
 0005:000004c4       __imp_?event@QMainWindow@@MAE_NPAVQEvent@@@Z 004894c4     qt-mt323:qt-mt323.dll
 0005:000004c8       __imp_?eventFilter@QMainWindow@@UAE_NPAVQObject@@PAVQEvent@@@Z 004894c8     qt-mt323:qt-mt323.dll
 0005:000004cc       __imp_?hide@QMainWindow@@UAEXXZ 004894cc     qt-mt323:qt-mt323.dll
 0005:000004d0       __imp_?isCustomizable@QMainWindow@@UBE_NXZ 004894d0     qt-mt323:qt-mt323.dll
 0005:000004d4       __imp_?keyPressEvent@QWidget@@MAEXPAVQKeyEvent@@@Z 004894d4     qt-mt323:qt-mt323.dll
 0005:000004d8       __imp_?minimumSizeHint@QMainWindow@@UBE?AVQSize@@XZ 004894d8     qt-mt323:qt-mt323.dll
 0005:000004dc       __imp_?move@QWidget@@UAEXHH@Z 004894dc     qt-mt323:qt-mt323.dll
 0005:000004e0       __imp_?moveDockWindow@QMainWindow@@UAEXPAVQDockWindow@@W4Dock@Qt@@@Z 004894e0     qt-mt323:qt-mt323.dll
 0005:000004e4       __imp_?moveDockWindow@QMainWindow@@UAEXPAVQDockWindow@@W4Dock@Qt@@_NHH@Z 004894e4     qt-mt323:qt-mt323.dll
 0005:000004e8       __imp_?paintEvent@QMainWindow@@MAEXPAVQPaintEvent@@@Z 004894e8     qt-mt323:qt-mt323.dll
 0005:000004ec       __imp_?removeDockWindow@QMainWindow@@UAEXPAVQDockWindow@@@Z 004894ec     qt-mt323:qt-mt323.dll
 0005:000004f0       __imp_?resize@QWidget@@UAEXHH@Z 004894f0     qt-mt323:qt-mt323.dll
 0005:000004f4       __imp_?resizeEvent@QWidget@@MAEXPAVQResizeEvent@@@Z 004894f4     qt-mt323:qt-mt323.dll
 0005:000004f8       __imp_?setAppropriate@QMainWindow@@UAEXPAVQDockWindow@@_N@Z 004894f8     qt-mt323:qt-mt323.dll
 0005:000004fc       __imp_?setCentralWidget@QMainWindow@@UAEXPAVQWidget@@@Z 004894fc     qt-mt323:qt-mt323.dll
 0005:00000500       __imp_?setDockEnabled@QMainWindow@@UAEXPAVQDockWindow@@W4Dock@Qt@@_N@Z 00489500     qt-mt323:qt-mt323.dll
 0005:00000504       __imp_?setDockEnabled@QMainWindow@@UAEXW4Dock@Qt@@_N@Z 00489504     qt-mt323:qt-mt323.dll
 0005:00000508       __imp_?setDockMenuEnabled@QMainWindow@@UAEX_N@Z 00489508     qt-mt323:qt-mt323.dll
 0005:0000050c       __imp_?setDockWindowsMovable@QMainWindow@@UAEX_N@Z 0048950c     qt-mt323:qt-mt323.dll
 0005:00000510       __imp_?setGeometry@QWidget@@UAEXABVQRect@@@Z 00489510     qt-mt323:qt-mt323.dll
 0005:00000514       __imp_?setGeometry@QWidget@@UAEXHHHH@Z 00489514     qt-mt323:qt-mt323.dll
 0005:00000518       __imp_?setMenuBar@QMainWindow@@EAEXPAVQMenuBar@@@Z 00489518     qt-mt323:qt-mt323.dll
 0005:0000051c       __imp_?setOpaqueMoving@QMainWindow@@UAEX_N@Z 0048951c     qt-mt323:qt-mt323.dll
 0005:00000520       __imp_?setRightJustification@QMainWindow@@UAEX_N@Z 00489520     qt-mt323:qt-mt323.dll
 0005:00000524       __imp_?setStatusBar@QMainWindow@@EAEXPAVQStatusBar@@@Z 00489524     qt-mt323:qt-mt323.dll
 0005:00000528       __imp_?setToolTipGroup@QMainWindow@@EAEXPAVQToolTipGroup@@@Z 00489528     qt-mt323:qt-mt323.dll
 0005:0000052c       __imp_?setUpLayout@QMainWindow@@MAEXXZ 0048952c     qt-mt323:qt-mt323.dll
 0005:00000530       __imp_?setUsesBigPixmaps@QMainWindow@@UAEX_N@Z 00489530     qt-mt323:qt-mt323.dll
 0005:00000534       __imp_?setUsesTextLabel@QMainWindow@@UAEX_N@Z 00489534     qt-mt323:qt-mt323.dll
 0005:00000538       __imp_?show@QMainWindow@@UAEXXZ 00489538     qt-mt323:qt-mt323.dll
 0005:0000053c       __imp_?showDockMenu@QMainWindow@@MAE_NABVQPoint@@@Z 0048953c     qt-mt323:qt-mt323.dll
 0005:00000540       __imp_?sizeHint@QMainWindow@@UBE?AVQSize@@XZ 00489540     qt-mt323:qt-mt323.dll
 0005:00000544       __imp_?styleChange@QMainWindow@@MAEXAAVQStyle@@@Z 00489544     qt-mt323:qt-mt323.dll
 0005:00000548       __imp_?whatsThis@QMainWindow@@UAEXXZ 00489548     qt-mt323:qt-mt323.dll
 0005:0000054c       __imp_?null@QString@@2V1@A 0048954c     qt-mt323:qt-mt323.dll
 0005:00000550       __imp_?qApp@@3PAVQApplication@@A 00489550     qt-mt323:qt-mt323.dll
 0005:00000554       __imp_?deref@QShared@@QAE_NXZ 00489554     qt-mt323:qt-mt323.dll
 0005:00000558       __imp_??4QString@@QAEAAV0@PBD@Z 00489558     qt-mt323:qt-mt323.dll
 0005:0000055c       __imp_?length@QString@@QBEIXZ 0048955c     qt-mt323:qt-mt323.dll
 0005:00000560       __imp_?toULong@QString@@QBEKPA_NH@Z 00489560     qt-mt323:qt-mt323.dll
 0005:00000564       __imp_??YQString@@QAEAAV0@PBD@Z 00489564     qt-mt323:qt-mt323.dll
 0005:00000568       __imp_??YQString@@QAEAAV0@D@Z 00489568     qt-mt323:qt-mt323.dll
 0005:0000056c       __imp_?ascii@QString@@QBEPBDXZ 0048956c     qt-mt323:qt-mt323.dll
 0005:00000570       __imp_??H@YA?BVQString@@ABV0@0@Z 00489570     qt-mt323:qt-mt323.dll
 0005:00000574       __imp_??H@YA?BVQString@@PBDABV0@@Z 00489574     qt-mt323:qt-mt323.dll
 0005:00000578       __imp_?setAutoDelete@QPtrCollection@@QAEX_N@Z 00489578     qt-mt323:qt-mt323.dll
 0005:0000057c       __imp_?count@QGList@@UBEIXZ 0048957c     qt-mt323:qt-mt323.dll
 0005:00000580       __imp_??0QGList@@IAE@XZ    00489580     qt-mt323:qt-mt323.dll
 0005:00000584       __imp_??1QGList@@MAE@XZ    00489584     qt-mt323:qt-mt323.dll
 0005:00000588       __imp_?append@QGList@@IAEXPAX@Z 00489588     qt-mt323:qt-mt323.dll
 0005:0000058c       __imp_?clear@QGList@@MAEXXZ 0048958c     qt-mt323:qt-mt323.dll
 0005:00000590       __imp_?first@QGList@@IAEPAXXZ 00489590     qt-mt323:qt-mt323.dll
 0005:00000594       __imp_?next@QGList@@IAEPAXXZ 00489594     qt-mt323:qt-mt323.dll
 0005:00000598       __imp_??0QGListIterator@@IAE@ABVQGList@@@Z 00489598     qt-mt323:qt-mt323.dll
 0005:0000059c       __imp_??1QGListIterator@@IAE@XZ 0048959c     qt-mt323:qt-mt323.dll
 0005:000005a0       __imp_?toLast@QGListIterator@@IAEPAXXZ 004895a0     qt-mt323:qt-mt323.dll
 0005:000005a4       __imp_?get@QGListIterator@@IBEPAXXZ 004895a4     qt-mt323:qt-mt323.dll
 0005:000005a8       __imp_??FQGListIterator@@IAEPAXXZ 004895a8     qt-mt323:qt-mt323.dll
 0005:000005ac       __imp_?join@QStringList@@QBE?AVQString@@ABV2@@Z 004895ac     qt-mt323:qt-mt323.dll
 0005:000005b0       __imp_??1QStringList@@QAE@XZ 004895b0     qt-mt323:qt-mt323.dll
 0005:000005b4       __imp_?minimum@QMapNodeBase@@QAEPAU1@XZ 004895b4     qt-mt323:qt-mt323.dll
 0005:000005b8       __imp_?maximum@QMapNodeBase@@QAEPAU1@XZ 004895b8     qt-mt323:qt-mt323.dll
 0005:000005bc       __imp_??0QMapPrivateBase@@QAE@XZ 004895bc     qt-mt323:qt-mt323.dll
 0005:000005c0       __imp_??0QMapPrivateBase@@QAE@PBV0@@Z 004895c0     qt-mt323:qt-mt323.dll
 0005:000005c4       __imp_?rebalance@QMapPrivateBase@@QAEXPAUQMapNodeBase@@AAPAU2@@Z 004895c4     qt-mt323:qt-mt323.dll
 0005:000005c8       __imp_?name@QObject@@QBEPBDXZ 004895c8     qt-mt323:qt-mt323.dll
 0005:000005cc       __imp_?sender@QObject@@IAEPBV1@XZ 004895cc     qt-mt323:qt-mt323.dll
 0005:000005d0       __imp_??0QDir@@QAE@ABVQString@@0HH@Z 004895d0     qt-mt323:qt-mt323.dll
 0005:000005d4       __imp_?arguments@QProcess@@QBE?AVQStringList@@XZ 004895d4     qt-mt323:qt-mt323.dll
 0005:000005d8       __imp_?isRunning@QProcess@@QBE_NXZ 004895d8     qt-mt323:qt-mt323.dll
 0005:000005dc       __imp_?normalExit@QProcess@@QBE_NXZ 004895dc     qt-mt323:qt-mt323.dll
 0005:000005e0       __imp_?exitStatus@QProcess@@QBEHXZ 004895e0     qt-mt323:qt-mt323.dll
 0005:000005e4       __imp_?tryTerminate@QProcess@@QBEXXZ 004895e4     qt-mt323:qt-mt323.dll
 0005:000005e8       __imp_?isSelected@QListViewItem@@QBE_NXZ 004895e8     qt-mt323:qt-mt323.dll
 0005:000005ec       __imp_??0QListViewItemIterator@@QAE@PAVQListViewItem@@@Z 004895ec     qt-mt323:qt-mt323.dll
 0005:000005f0       __imp_??0QListViewItemIterator@@QAE@PAVQListView@@@Z 004895f0     qt-mt323:qt-mt323.dll
 0005:000005f4       __imp_??1QListViewItemIterator@@QAE@XZ 004895f4     qt-mt323:qt-mt323.dll
 0005:000005f8       __imp_??EQListViewItemIterator@@QAEAAV0@XZ 004895f8     qt-mt323:qt-mt323.dll
 0005:000005fc       __imp_??DQListViewItemIterator@@QAEPAVQListViewItem@@XZ 004895fc     qt-mt323:qt-mt323.dll
 0005:00000600       __imp_?current@QListViewItemIterator@@QBEPAVQListViewItem@@XZ 00489600     qt-mt323:qt-mt323.dll
 0005:00000604       __imp_?pos@QCursor@@SA?AVQPoint@@XZ 00489604     qt-mt323:qt-mt323.dll
 0005:00000608       __imp_?insertItem@QMenuData@@QAEHABVQString@@HH@Z 00489608     qt-mt323:qt-mt323.dll
 0005:0000060c       __imp_??0QPopupMenu@@QAE@PAVQWidget@@PBD@Z 0048960c     qt-mt323:qt-mt323.dll
 0005:00000610       __imp_??1QPopupMenu@@UAE@XZ 00489610     qt-mt323:qt-mt323.dll
 0005:00000614       __imp_?exec@QPopupMenu@@QAEHABVQPoint@@H@Z 00489614     qt-mt323:qt-mt323.dll
 0005:00000618       __imp_?singleShot@QTimer@@SAXHPAVQObject@@PBD@Z 00489618     qt-mt323:qt-mt323.dll
 0005:0000061c       __imp_?compareItems@QGList@@MAEHPAX0@Z 0048961c     qt-mt323:qt-mt323.dll
 0005:00000620       __imp_?eventFilter@QObject@@UAE_NPAV1@PAVQEvent@@@Z 00489620     qt-mt323:qt-mt323.dll
 0005:00000624       __imp_?hide@QWidget@@UAEXXZ 00489624     qt-mt323:qt-mt323.dll
 0005:00000628       __imp_?minimumSizeHint@QWidget@@UBE?AVQSize@@XZ 00489628     qt-mt323:qt-mt323.dll
 0005:0000062c       __imp_?newItem@QPtrCollection@@MAEPAXPAX@Z 0048962c     qt-mt323:qt-mt323.dll
 0005:00000630       __imp_?read@QGList@@MAEAAVQDataStream@@AAV2@AAPAX@Z 00489630     qt-mt323:qt-mt323.dll
 0005:00000634       __imp_?show@QWidget@@UAEXXZ 00489634     qt-mt323:qt-mt323.dll
 0005:00000638       __imp_?sizeHint@QWidget@@UBE?AVQSize@@XZ 00489638     qt-mt323:qt-mt323.dll
 0005:0000063c       __imp_?write@QGList@@MBEAAVQDataStream@@AAV2@PAX@Z 0048963c     qt-mt323:qt-mt323.dll
 0005:00000640       __imp_?arg@QString@@QBE?AV1@KHH@Z 00489640     qt-mt323:qt-mt323.dll
 0005:00000644       __imp_??0QColor@@QAE@PBD@Z 00489644     qt-mt323:qt-mt323.dll
 0005:00000648       __imp_??0QBrush@@QAE@ABVQColor@@W4BrushStyle@Qt@@@Z 00489648     qt-mt323:qt-mt323.dll
 0005:0000064c       __imp_??1QBrush@@QAE@XZ    0048964c     qt-mt323:qt-mt323.dll
 0005:00000650       __imp_??0QColorGroup@@QAE@ABV0@@Z 00489650     qt-mt323:qt-mt323.dll
 0005:00000654       __imp_??1QColorGroup@@QAE@XZ 00489654     qt-mt323:qt-mt323.dll
 0005:00000658       __imp_?setBrush@QColorGroup@@QAEXW4ColorRole@1@ABVQBrush@@@Z 00489658     qt-mt323:qt-mt323.dll
 0005:0000065c       __imp_??0QListViewItem@@QAE@PAVQListView@@PAV0@VQString@@2222222@Z 0048965c     qt-mt323:qt-mt323.dll
 0005:00000660       __imp_??1QListViewItem@@UAE@XZ 00489660     qt-mt323:qt-mt323.dll
 0005:00000664       __imp_?setText@QListViewItem@@UAEXHABVQString@@@Z 00489664     qt-mt323:qt-mt323.dll
 0005:00000668       __imp_?paintCell@QListViewItem@@UAEXPAVQPainter@@ABVQColorGroup@@HHH@Z 00489668     qt-mt323:qt-mt323.dll
 0005:0000066c       __imp_?lastItem@QListView@@QBEPAVQListViewItem@@XZ 0048966c     qt-mt323:qt-mt323.dll
 0005:00000670       __imp_?toString@QDateTime@@QBE?AVQString@@ABV2@@Z 00489670     qt-mt323:qt-mt323.dll
 0005:00000674       __imp_?currentDateTime@QDateTime@@SA?AV1@XZ 00489674     qt-mt323:qt-mt323.dll
 0005:00000678       __imp_?acceptDrop@QListViewItem@@UBE_NPBVQMimeSource@@@Z 00489678     qt-mt323:qt-mt323.dll
 0005:0000067c       __imp_?activate@QListViewItem@@MAEXXZ 0048967c     qt-mt323:qt-mt323.dll
 0005:00000680       __imp_?cancelRename@QListViewItem@@MAEXH@Z 00489680     qt-mt323:qt-mt323.dll
 0005:00000684       __imp_?compare@QListViewItem@@UBEHPAV1@H_N@Z 00489684     qt-mt323:qt-mt323.dll
 0005:00000688       __imp_?dragEntered@QListViewItem@@MAEXXZ 00489688     qt-mt323:qt-mt323.dll
 0005:0000068c       __imp_?dragLeft@QListViewItem@@MAEXXZ 0048968c     qt-mt323:qt-mt323.dll
 0005:00000690       __imp_?dropped@QListViewItem@@MAEXPAVQDropEvent@@@Z 00489690     qt-mt323:qt-mt323.dll
 0005:00000694       __imp_?enforceSortOrder@QListViewItem@@MBEXXZ 00489694     qt-mt323:qt-mt323.dll
 0005:00000698       __imp_?insertItem@QListViewItem@@UAEXPAV1@@Z 00489698     qt-mt323:qt-mt323.dll
 0005:0000069c       __imp_?invalidateHeight@QListViewItem@@UAEXXZ 0048969c     qt-mt323:qt-mt323.dll
 0005:000006a0       __imp_?key@QListViewItem@@UBE?AVQString@@H_N@Z 004896a0     qt-mt323:qt-mt323.dll
 0005:000006a4       __imp_?okRename@QListViewItem@@MAEXH@Z 004896a4     qt-mt323:qt-mt323.dll
 0005:000006a8       __imp_?paintBranches@QListViewItem@@UAEXPAVQPainter@@ABVQColorGroup@@HHH@Z 004896a8     qt-mt323:qt-mt323.dll
 0005:000006ac       __imp_?paintFocus@QListViewItem@@UAEXPAVQPainter@@ABVQColorGroup@@ABVQRect@@@Z 004896ac     qt-mt323:qt-mt323.dll
 0005:000006b0       __imp_?pixmap@QListViewItem@@UBEPBVQPixmap@@H@Z 004896b0     qt-mt323:qt-mt323.dll
 0005:000006b4       __imp_?removeItem@QListViewItem@@UAEXPAV1@@Z 004896b4     qt-mt323:qt-mt323.dll
 0005:000006b8       __imp_?rtti@QListViewItem@@UBEHXZ 004896b8     qt-mt323:qt-mt323.dll
 0005:000006bc       __imp_?setDragEnabled@QListViewItem@@UAEX_N@Z 004896bc     qt-mt323:qt-mt323.dll
 0005:000006c0       __imp_?setDropEnabled@QListViewItem@@UAEX_N@Z 004896c0     qt-mt323:qt-mt323.dll
 0005:000006c4       __imp_?setEnabled@QListViewItem@@UAEX_N@Z 004896c4     qt-mt323:qt-mt323.dll
 0005:000006c8       __imp_?setExpandable@QListViewItem@@UAEX_N@Z 004896c8     qt-mt323:qt-mt323.dll
 0005:000006cc       __imp_?setHeight@QListViewItem@@MAEXH@Z 004896cc     qt-mt323:qt-mt323.dll
 0005:000006d0       __imp_?setMultiLinesEnabled@QListViewItem@@UAEX_N@Z 004896d0     qt-mt323:qt-mt323.dll
 0005:000006d4       __imp_?setOpen@QListViewItem@@UAEX_N@Z 004896d4     qt-mt323:qt-mt323.dll
 0005:000006d8       __imp_?setPixmap@QListViewItem@@UAEXHABVQPixmap@@@Z 004896d8     qt-mt323:qt-mt323.dll
 0005:000006dc       __imp_?setRenameEnabled@QListViewItem@@UAEXH_N@Z 004896dc     qt-mt323:qt-mt323.dll
 0005:000006e0       __imp_?setSelectable@QListViewItem@@UAEX_N@Z 004896e0     qt-mt323:qt-mt323.dll
 0005:000006e4       __imp_?setSelected@QListViewItem@@UAEX_N@Z 004896e4     qt-mt323:qt-mt323.dll
 0005:000006e8       __imp_?setup@QListViewItem@@UAEXXZ 004896e8     qt-mt323:qt-mt323.dll
 0005:000006ec       __imp_?sort@QListViewItem@@UAEXXZ 004896ec     qt-mt323:qt-mt323.dll
 0005:000006f0       __imp_?sortChildItems@QListViewItem@@UAEXH_N@Z 004896f0     qt-mt323:qt-mt323.dll
 0005:000006f4       __imp_?startRename@QListViewItem@@UAEXH@Z 004896f4     qt-mt323:qt-mt323.dll
 0005:000006f8       __imp_?takeItem@QListViewItem@@UAEXPAV1@@Z 004896f8     qt-mt323:qt-mt323.dll
 0005:000006fc       __imp_?text@QListViewItem@@UBE?AVQString@@H@Z 004896fc     qt-mt323:qt-mt323.dll
 0005:00000700       __imp_?width@QListViewItem@@UBEHABVQFontMetrics@@PBVQListView@@H@Z 00489700     qt-mt323:qt-mt323.dll
 0005:00000704       __imp_?black@Qt@@2AAVQColor@@A 00489704     qt-mt323:qt-mt323.dll
 0005:00000708       __imp_?white@Qt@@2AAVQColor@@A 00489708     qt-mt323:qt-mt323.dll
 0005:0000070c       __imp_?gray@Qt@@2AAVQColor@@A 0048970c     qt-mt323:qt-mt323.dll
 0005:00000710       __imp_?lightGray@Qt@@2AAVQColor@@A 00489710     qt-mt323:qt-mt323.dll
 0005:00000714       __imp_?red@Qt@@2AAVQColor@@A 00489714     qt-mt323:qt-mt323.dll
 0005:00000718       __imp_?yellow@Qt@@2AAVQColor@@A 00489718     qt-mt323:qt-mt323.dll
 0005:0000071c       __imp_?darkGreen@Qt@@2AAVQColor@@A 0048971c     qt-mt323:qt-mt323.dll
 0005:00000720       __imp_?prepend@QString@@QAEAAV1@ABV1@@Z 00489720     qt-mt323:qt-mt323.dll
 0005:00000724       __imp_??H@YA?BVQString@@ABV0@D@Z 00489724     qt-mt323:qt-mt323.dll
 0005:00000728       __imp_??9?$QValueListIterator@VQString@@@@QBE_NABV0@@Z 00489728     qt-mt323:qt-mt323.dll
 0005:0000072c       __imp_??D?$QValueListIterator@VQString@@@@QAEAAVQString@@XZ 0048972c     qt-mt323:qt-mt323.dll
 0005:00000730       __imp_??E?$QValueListIterator@VQString@@@@QAEAAV0@XZ 00489730     qt-mt323:qt-mt323.dll
 0005:00000734       __imp_?begin@?$QValueList@VQString@@@@QAE?AV?$QValueListIterator@VQString@@@@XZ 00489734     qt-mt323:qt-mt323.dll
 0005:00000738       __imp_?end@?$QValueList@VQString@@@@QAE?AV?$QValueListIterator@VQString@@@@XZ 00489738     qt-mt323:qt-mt323.dll
 0005:0000073c       __imp_?append@?$QValueList@VQString@@@@QAE?AV?$QValueListIterator@VQString@@@@ABVQString@@@Z 0048973c     qt-mt323:qt-mt323.dll
 0005:00000740       __imp_?count@?$QValueList@VQString@@@@QBEIXZ 00489740     qt-mt323:qt-mt323.dll
 0005:00000744       __imp_??0QObject@@QAE@PAV0@PBD@Z 00489744     qt-mt323:qt-mt323.dll
 0005:00000748       __imp_??1QObject@@UAE@XZ   00489748     qt-mt323:qt-mt323.dll
 0005:0000074c       __imp_??0QStringList@@QAE@XZ 0048974c     qt-mt323:qt-mt323.dll
 0005:00000750       __imp_?remove@QFile@@SA_NABVQString@@@Z 00489750     qt-mt323:qt-mt323.dll
 0005:00000754       __imp_??0QDate@@QAE@XZ     00489754     qt-mt323:qt-mt323.dll
 0005:00000758       __imp_?addDays@QDate@@QBE?AV1@H@Z 00489758     qt-mt323:qt-mt323.dll
 0005:0000075c       __imp_??9QDate@@QBE_NABV0@@Z 0048975c     qt-mt323:qt-mt323.dll
 0005:00000760       __imp_?currentDate@QDate@@SA?AV1@XZ 00489760     qt-mt323:qt-mt323.dll
 0005:00000764       __imp_??0QDateTime@@QAE@ABVQDate@@@Z 00489764     qt-mt323:qt-mt323.dll
 0005:00000768       __imp_??MQDateTime@@QBE_NABV0@@Z 00489768     qt-mt323:qt-mt323.dll
 0005:0000076c       __imp_??0QFileInfo@@QAE@ABVQString@@@Z 0048976c     qt-mt323:qt-mt323.dll
 0005:00000770       __imp_??1QFileInfo@@QAE@XZ 00489770     qt-mt323:qt-mt323.dll
 0005:00000774       __imp_?exists@QFileInfo@@QBE_NXZ 00489774     qt-mt323:qt-mt323.dll
 0005:00000778       __imp_?filePath@QFileInfo@@QBE?AVQString@@XZ 00489778     qt-mt323:qt-mt323.dll
 0005:0000077c       __imp_?isFile@QFileInfo@@QBE_NXZ 0048977c     qt-mt323:qt-mt323.dll
 0005:00000780       __imp_?isDir@QFileInfo@@QBE_NXZ 00489780     qt-mt323:qt-mt323.dll
 0005:00000784       __imp_?lastModified@QFileInfo@@QBE?AVQDateTime@@XZ 00489784     qt-mt323:qt-mt323.dll
 0005:00000788       __imp_?entryList@QDir@@UBE?AVQStringList@@HH@Z 00489788     qt-mt323:qt-mt323.dll
 0005:0000078c       __imp_?separator@QDir@@SADXZ 0048978c     qt-mt323:qt-mt323.dll
 0005:00000790       __imp_?isRelativePath@QDir@@SA_NABVQString@@@Z 00489790     qt-mt323:qt-mt323.dll
 0005:00000794       __imp_?event@QObject@@UAE_NPAVQEvent@@@Z 00489794     qt-mt323:qt-mt323.dll
 0005:00000798       __imp_?setName@QObject@@UAEXPBD@Z 00489798     qt-mt323:qt-mt323.dll
 0005:0000079c       __imp_??0QTextStream@@QAE@PAVQIODevice@@@Z 0048979c     qt-mt323:qt-mt323.dll
 0005:000007a0       __imp_??1QTextStream@@UAE@XZ 004897a0     qt-mt323:qt-mt323.dll
 0005:000007a4       __imp_?eof@QTextStream@@QBE_NXZ 004897a4     qt-mt323:qt-mt323.dll
 0005:000007a8       __imp_?readLine@QTextStream@@QAE?AVQString@@XZ 004897a8     qt-mt323:qt-mt323.dll
 0005:000007ac       __imp_?close@QWidget@@QAE_NXZ 004897ac     qt-mt323:qt-mt323.dll
 0005:000007b0       __imp_??0QFile@@QAE@ABVQString@@@Z 004897b0     qt-mt323:qt-mt323.dll
 0005:000007b4       __imp_??1QFile@@UAE@XZ     004897b4     qt-mt323:qt-mt323.dll
 0005:000007b8       __imp_?open@QFile@@UAE_NH@Z 004897b8     qt-mt323:qt-mt323.dll
 0005:000007bc       __imp_?close@QFile@@UAEXXZ 004897bc     qt-mt323:qt-mt323.dll
 0005:000007c0       __imp_?value@QScrollBar@@QBEHXZ 004897c0     qt-mt323:qt-mt323.dll
 0005:000007c4       __imp_?setValue@QScrollBar@@QAEXH@Z 004897c4     qt-mt323:qt-mt323.dll
 0005:000007c8       __imp_?horizontalScrollBar@QScrollView@@QBEPAVQScrollBar@@XZ 004897c8     qt-mt323:qt-mt323.dll
 0005:000007cc       __imp_?verticalScrollBar@QScrollView@@QBEPAVQScrollBar@@XZ 004897cc     qt-mt323:qt-mt323.dll
 0005:000007d0       __imp_?insertItem@QListBox@@QAEXABVQString@@H@Z 004897d0     qt-mt323:qt-mt323.dll
 0005:000007d4       __imp_?clear@QListBox@@QAEXXZ 004897d4     qt-mt323:qt-mt323.dll
 0005:000007d8       __imp_?warning@QMessageBox@@SAHPAVQWidget@@ABVQString@@1111HH@Z 004897d8     qt-mt323:qt-mt323.dll
 0005:000007dc       __imp_?setMainWidget@QApplication@@UAEXPAVQWidget@@@Z 004897dc     qt-mt323:qt-mt323.dll
 0005:000007e0       __imp_?exec@QApplication@@QAEHXZ 004897e0     qt-mt323:qt-mt323.dll
 0005:000007e4       __imp_?qstrcmp@@YAHPBD0@Z  004897e4     qt-mt323:qt-mt323.dll
 0005:000007e8       __imp_?fromLatin1@QString@@SA?AV1@PBDH@Z 004897e8     qt-mt323:qt-mt323.dll
 0005:000007ec       __imp_?fromUtf8@QString@@SA?AV1@PBDH@Z 004897ec     qt-mt323:qt-mt323.dll
 0005:000007f0       __imp_?qt_cast@QDialog@@UAEPAXPBD@Z 004897f0     qt-mt323:qt-mt323.dll
 0005:000007f4       __imp_?qt_invoke@QDialog@@UAE_NHPAUQUObject@@@Z 004897f4     qt-mt323:qt-mt323.dll
 0005:000007f8       __imp_?qt_emit@QDialog@@UAE_NHPAUQUObject@@@Z 004897f8     qt-mt323:qt-mt323.dll
 0005:000007fc       __imp_?qt_property@QDialog@@UAE_NHHPAVQVariant@@@Z 004897fc     qt-mt323:qt-mt323.dll
 0005:00000800       __imp_?staticMetaObject@QDialog@@SAPAVQMetaObject@@XZ 00489800     qt-mt323:qt-mt323.dll
 0005:00000804       __imp_?slotOffset@QMetaObject@@QBEHXZ 00489804     qt-mt323:qt-mt323.dll
 0005:00000808       __imp_?new_metaobject@QMetaObject@@SAPAV1@PBDPAV1@QBUQMetaData@@H2HQBVQMetaProperty@@HQBUQMetaEnum@@HQBUQClassInfo@@H@Z 00489808     qt-mt323:qt-mt323.dll
 0005:0000080c       __imp_??0QMetaObjectCleanUp@@QAE@PBDP6APAVQMetaObject@@XZ@Z 0048980c     qt-mt323:qt-mt323.dll
 0005:00000810       __imp_??1QMetaObjectCleanUp@@QAE@XZ 00489810     qt-mt323:qt-mt323.dll
 0005:00000814       __imp_?setMetaObject@QMetaObjectCleanUp@@QAEXAAPAVQMetaObject@@@Z 00489814     qt-mt323:qt-mt323.dll
 0005:00000818       __imp_?translate@QApplication@@QBE?AVQString@@PBD00W4Encoding@1@@Z 00489818     qt-mt323:qt-mt323.dll
 0005:0000081c       __imp_?qt_cast@QObject@@UAEPAXPBD@Z 0048981c     qt-mt323:qt-mt323.dll
 0005:00000820       __imp_?qt_invoke@QObject@@UAE_NHPAUQUObject@@@Z 00489820     qt-mt323:qt-mt323.dll
 0005:00000824       __imp_?qt_emit@QObject@@UAE_NHPAUQUObject@@@Z 00489824     qt-mt323:qt-mt323.dll
 0005:00000828       __imp_?qt_property@QObject@@UAE_NHHPAVQVariant@@@Z 00489828     qt-mt323:qt-mt323.dll
 0005:0000082c       __imp_?staticMetaObject@QObject@@SAPAVQMetaObject@@XZ 0048982c     qt-mt323:qt-mt323.dll
 0005:00000830       __imp_?activate_signal@QObject@@IAEXH@Z 00489830     qt-mt323:qt-mt323.dll
 0005:00000834       __imp_?activate_signal@QObject@@IAEXHVQString@@@Z 00489834     qt-mt323:qt-mt323.dll
 0005:00000838       __imp_?signalOffset@QMetaObject@@QBEHXZ 00489838     qt-mt323:qt-mt323.dll
 0005:0000083c       __imp_?get@QUType_QString@@QAEAAVQString@@PAUQUObject@@@Z 0048983c     qt-mt323:qt-mt323.dll
 0005:00000840       __imp_?static_QUType_QString@@3UQUType_QString@@A 00489840     qt-mt323:qt-mt323.dll
 0005:00000844       __imp_?arg@QString@@QBE?AV1@IHH@Z 00489844     qt-mt323:qt-mt323.dll
 0005:00000848       __imp_?find@QString@@QBEHPBDH@Z 00489848     qt-mt323:qt-mt323.dll
 0005:0000084c       __imp_?contains@QString@@QBEHPBD_N@Z 0048984c     qt-mt323:qt-mt323.dll
 0005:00000850       __imp_?right@QString@@QBE?AV1@I@Z 00489850     qt-mt323:qt-mt323.dll
 0005:00000854       __imp_?remove@QString@@QAEAAV1@D@Z 00489854     qt-mt323:qt-mt323.dll
 0005:00000858       __imp_?toInt@QString@@QBEHPA_NH@Z 00489858     qt-mt323:qt-mt323.dll
 0005:0000085c       __imp_??YQString@@QAEAAV0@ABV0@@Z 0048985c     qt-mt323:qt-mt323.dll
 0005:00000860       __imp_?reset@QIODevice@@QAE_NXZ 00489860     qt-mt323:qt-mt323.dll
 0005:00000864       __imp_??A?$QValueList@VQString@@@@QAEAAVQString@@I@Z 00489864     qt-mt323:qt-mt323.dll
 0005:00000868       __imp_??0QDateTime@@QAE@XZ 00489868     qt-mt323:qt-mt323.dll
 0005:0000086c       __imp_?toTime_t@QDateTime@@QBEIXZ 0048986c     qt-mt323:qt-mt323.dll
 0005:00000870       __imp_??0QHostAddress@@QAE@XZ 00489870     qt-mt323:qt-mt323.dll
 0005:00000874       __imp_??0QHostAddress@@QAE@I@Z 00489874     qt-mt323:qt-mt323.dll
 0005:00000878       __imp_??1QHostAddress@@UAE@XZ 00489878     qt-mt323:qt-mt323.dll
 0005:0000087c       __imp_?setAddress@QHostAddress@@QAE_NABVQString@@@Z 0048987c     qt-mt323:qt-mt323.dll
 0005:00000880       __imp_??0QSocketDevice@@QAE@W4Type@0@@Z 00489880     qt-mt323:qt-mt323.dll
 0005:00000884       __imp_??1QSocketDevice@@UAE@XZ 00489884     qt-mt323:qt-mt323.dll
 0005:00000888       __imp_?isValid@QSocketDevice@@QBE_NXZ 00489888     qt-mt323:qt-mt323.dll
 0005:0000088c       __imp_?socket@QSocketDevice@@QBEHXZ 0048988c     qt-mt323:qt-mt323.dll
 0005:00000890       __imp_??0QSocketNotifier@@QAE@HW4Type@0@PAVQObject@@PBD@Z 00489890     qt-mt323:qt-mt323.dll
 0005:00000894       __imp_??1QSocketNotifier@@UAE@XZ 00489894     qt-mt323:qt-mt323.dll
 0005:00000898       __imp_?split@QStringList@@SA?AV1@ABVQString@@0_N@Z 00489898     qt-mt323:qt-mt323.dll
 0005:0000089c       __imp_??4QDomNode@@QAEAAV0@ABV0@@Z 0048989c     qt-mt323:qt-mt323.dll
 0005:000008a0       __imp_??1QDomNode@@UAE@XZ  004898a0     qt-mt323:qt-mt323.dll
 0005:000008a4       __imp_?nextSibling@QDomNode@@UBE?AV1@XZ 004898a4     qt-mt323:qt-mt323.dll
 0005:000008a8       __imp_?isNull@QDomNode@@QBE_NXZ 004898a8     qt-mt323:qt-mt323.dll
 0005:000008ac       __imp_?toElement@QDomNode@@QAE?AVQDomElement@@XZ 004898ac     qt-mt323:qt-mt323.dll
 0005:000008b0       __imp_??0QDomDocument@@QAE@XZ 004898b0     qt-mt323:qt-mt323.dll
 0005:000008b4       __imp_??1QDomDocument@@UAE@XZ 004898b4     qt-mt323:qt-mt323.dll
 0005:000008b8       __imp_?documentElement@QDomDocument@@QBE?AVQDomElement@@XZ 004898b8     qt-mt323:qt-mt323.dll
 0005:000008bc       __imp_?setContent@QDomDocument@@QAE_NPAVQIODevice@@PAVQString@@PAH2@Z 004898bc     qt-mt323:qt-mt323.dll
 0005:000008c0       __imp_??1QDomElement@@UAE@XZ 004898c0     qt-mt323:qt-mt323.dll
 0005:000008c4       __imp_?attribute@QDomElement@@QBE?AVQString@@ABV2@0@Z 004898c4     qt-mt323:qt-mt323.dll
 0005:000008c8       __imp_?tagName@QDomElement@@QBE?AVQString@@XZ 004898c8     qt-mt323:qt-mt323.dll
 0005:000008cc       __imp_?accept@QSocketDevice@@UAEHXZ 004898cc     qt-mt323:qt-mt323.dll
 0005:000008d0       __imp_?at@QSocketDevice@@UAE_NK@Z 004898d0     qt-mt323:qt-mt323.dll
 0005:000008d4       __imp_?at@QSocketDevice@@UBEKXZ 004898d4     qt-mt323:qt-mt323.dll
 0005:000008d8       __imp_?atEnd@QSocketDevice@@UBE_NXZ 004898d8     qt-mt323:qt-mt323.dll
 0005:000008dc       __imp_?bind@QSocketDevice@@UAE_NABVQHostAddress@@G@Z 004898dc     qt-mt323:qt-mt323.dll
 0005:000008e0       __imp_?className@QSocketNotifier@@UBEPBDXZ 004898e0     qt-mt323:qt-mt323.dll
 0005:000008e4       __imp_?close@QSocketDevice@@UAEXXZ 004898e4     qt-mt323:qt-mt323.dll
 0005:000008e8       __imp_?connect@QSocketDevice@@UAE_NABVQHostAddress@@G@Z 004898e8     qt-mt323:qt-mt323.dll
 0005:000008ec       __imp_?event@QSocketNotifier@@MAE_NPAVQEvent@@@Z 004898ec     qt-mt323:qt-mt323.dll
 0005:000008f0       __imp_?flush@QSocketDevice@@UAEXXZ 004898f0     qt-mt323:qt-mt323.dll
 0005:000008f4       __imp_?getch@QSocketDevice@@UAEHXZ 004898f4     qt-mt323:qt-mt323.dll
 0005:000008f8       __imp_?listen@QSocketDevice@@UAE_NH@Z 004898f8     qt-mt323:qt-mt323.dll
 0005:000008fc       __imp_?metaObject@QSocketNotifier@@UBEPAVQMetaObject@@XZ 004898fc     qt-mt323:qt-mt323.dll
 0005:00000900       __imp_?open@QSocketDevice@@UAE_NH@Z 00489900     qt-mt323:qt-mt323.dll
 0005:00000904       __imp_?putch@QSocketDevice@@UAEHH@Z 00489904     qt-mt323:qt-mt323.dll
 0005:00000908       __imp_?qt_cast@QSocketNotifier@@UAEPAXPBD@Z 00489908     qt-mt323:qt-mt323.dll
 0005:0000090c       __imp_?qt_emit@QSocketNotifier@@UAE_NHPAUQUObject@@@Z 0048990c     qt-mt323:qt-mt323.dll
 0005:00000910       __imp_?qt_invoke@QSocketNotifier@@UAE_NHPAUQUObject@@@Z 00489910     qt-mt323:qt-mt323.dll
 0005:00000914       __imp_?qt_property@QSocketNotifier@@UAE_NHHPAVQVariant@@@Z 00489914     qt-mt323:qt-mt323.dll
 0005:00000918       __imp_?readAll@QIODevice@@UAE?AV?$QMemArray@D@@XZ 00489918     qt-mt323:qt-mt323.dll
 0005:0000091c       __imp_?readBlock@QSocketDevice@@UAEJPADK@Z 0048991c     qt-mt323:qt-mt323.dll
 0005:00000920       __imp_?readLine@QIODevice@@UAEJPADK@Z 00489920     qt-mt323:qt-mt323.dll
 0005:00000924       __imp_?setAddressReusable@QSocketDevice@@UAEX_N@Z 00489924     qt-mt323:qt-mt323.dll
 0005:00000928       __imp_?setBlocking@QSocketDevice@@UAEX_N@Z 00489928     qt-mt323:qt-mt323.dll
 0005:0000092c       __imp_?setEnabled@QSocketNotifier@@UAEX_N@Z 0048992c     qt-mt323:qt-mt323.dll
 0005:00000930       __imp_?setOption@QSocketDevice@@EAEXW4Option@1@H@Z 00489930     qt-mt323:qt-mt323.dll
 0005:00000934       __imp_?setReceiveBufferSize@QSocketDevice@@UAEXI@Z 00489934     qt-mt323:qt-mt323.dll
 0005:00000938       __imp_?setSendBufferSize@QSocketDevice@@UAEXI@Z 00489938     qt-mt323:qt-mt323.dll
 0005:0000093c       __imp_?setSocket@QSocketDevice@@UAEXHW4Type@1@@Z 0048993c     qt-mt323:qt-mt323.dll
 0005:00000940       __imp_?size@QSocketDevice@@UBEKXZ 00489940     qt-mt323:qt-mt323.dll
 0005:00000944       __imp_?ungetch@QSocketDevice@@UAEHH@Z 00489944     qt-mt323:qt-mt323.dll
 0005:00000948       __imp_?writeBlock@QSocketDevice@@UAEJPBDK@Z 00489948     qt-mt323:qt-mt323.dll
 0005:0000094c       __imp_?writeBlock@QSocketDevice@@UAEJPBDKABVQHostAddress@@G@Z 0048994c     qt-mt323:qt-mt323.dll
 0005:00000950       __imp_?setCommunication@QProcess@@QAEXH@Z 00489950     qt-mt323:qt-mt323.dll
 0005:00000954       __imp_?processIdentifier@QProcess@@QAEPAXXZ 00489954     qt-mt323:qt-mt323.dll
 0005:00000958       __imp_?kill@QProcess@@QBEXXZ 00489958     qt-mt323:qt-mt323.dll
 0005:0000095c       __imp_?closeStdin@QProcess@@UAEXXZ 0048995c     qt-mt323:qt-mt323.dll
 0005:00000960       __imp_?connectNotify@QProcess@@MAEXPBD@Z 00489960     qt-mt323:qt-mt323.dll
 0005:00000964       __imp_?disconnectNotify@QProcess@@MAEXPBD@Z 00489964     qt-mt323:qt-mt323.dll
 0005:00000968       __imp_?launch@QProcess@@UAE_NABV?$QMemArray@D@@PAVQStringList@@@Z 00489968     qt-mt323:qt-mt323.dll
 0005:0000096c       __imp_?launch@QProcess@@UAE_NABVQString@@PAVQStringList@@@Z 0048996c     qt-mt323:qt-mt323.dll
 0005:00000970       __imp_?readLineStderr@QProcess@@UAE?AVQString@@XZ 00489970     qt-mt323:qt-mt323.dll
 0005:00000974       __imp_?readLineStdout@QProcess@@UAE?AVQString@@XZ 00489974     qt-mt323:qt-mt323.dll
 0005:00000978       __imp_?readStderr@QProcess@@UAE?AV?$QMemArray@D@@XZ 00489978     qt-mt323:qt-mt323.dll
 0005:0000097c       __imp_?readStdout@QProcess@@UAE?AV?$QMemArray@D@@XZ 0048997c     qt-mt323:qt-mt323.dll
 0005:00000980       __imp_?setArguments@QProcess@@UAEXABVQStringList@@@Z 00489980     qt-mt323:qt-mt323.dll
 0005:00000984       __imp_?setWorkingDirectory@QProcess@@UAEXABVQDir@@@Z 00489984     qt-mt323:qt-mt323.dll
 0005:00000988       __imp_?writeToStdin@QProcess@@UAEXABV?$QMemArray@D@@@Z 00489988     qt-mt323:qt-mt323.dll
 0005:0000098c       __imp_?writeToStdin@QProcess@@UAEXABVQString@@@Z 0048998c     qt-mt323:qt-mt323.dll
 0005:00000990       __imp_??0QThread@@QAE@XZ   00489990     qt-mt323:qt-mt323.dll
 0005:00000994       __imp_??1QThread@@UAE@XZ   00489994     qt-mt323:qt-mt323.dll
 0005:00000998       __imp_?exists@QFile@@SA_NABVQString@@@Z 00489998     qt-mt323:qt-mt323.dll
 0005:0000099c       __imp_?workingDirectory@QProcess@@QBE?AVQDir@@XZ 0048999c     qt-mt323:qt-mt323.dll
 0005:000009a0       __imp_?start@QThread@@QAEXXZ 004899a0     qt-mt323:qt-mt323.dll
 0005:000009a4       __imp_??0QWidget@@QAE@PAV0@PBDI@Z 004899a4     qt-mt323:qt-mt323.dll
 0005:000009a8       __imp_??1QWidget@@UAE@XZ   004899a8     qt-mt323:qt-mt323.dll
 0005:000009ac       __imp_?winId@QWidget@@QBEPAUHWND__@@XZ 004899ac     qt-mt323:qt-mt323.dll
 0005:000009b0       __imp_??1?$QMemArray@D@@UAE@XZ 004899b0     qt-mt323:qt-mt323.dll
 0005:000009b4       __imp_??0QString@@QAE@ABV?$QMemArray@D@@@Z 004899b4     qt-mt323:qt-mt323.dll
 0005:000009b8       __imp_?isValid@QDateTime@@QBE_NXZ 004899b8     qt-mt323:qt-mt323.dll
 0005:000009bc       __imp_?toString@QDateTime@@QBE?AVQString@@W4DateFormat@Qt@@@Z 004899bc     qt-mt323:qt-mt323.dll
 0005:000009c0       __imp_??9QDateTime@@QBE_NABV0@@Z 004899c0     qt-mt323:qt-mt323.dll
 0005:000009c4       __imp_?fromString@QDateTime@@SA?AV1@ABVQString@@W4DateFormat@Qt@@@Z 004899c4     qt-mt323:qt-mt323.dll
 0005:000009c8       __imp_??0QSettings@@QAE@XZ 004899c8     qt-mt323:qt-mt323.dll
 0005:000009cc       __imp_??1QSettings@@QAE@XZ 004899cc     qt-mt323:qt-mt323.dll
 0005:000009d0       __imp_?writeEntry@QSettings@@QAE_NABVQString@@0@Z 004899d0     qt-mt323:qt-mt323.dll
 0005:000009d4       __imp_?readEntry@QSettings@@QAE?AVQString@@ABV2@0PA_N@Z 004899d4     qt-mt323:qt-mt323.dll
 0005:000009d8       __imp_?setPath@QSettings@@QAEXABVQString@@0W4Scope@1@@Z 004899d8     qt-mt323:qt-mt323.dll
 0005:000009dc       __imp_?mainWidget@QApplication@@QBEPAVQWidget@@XZ 004899dc     qt-mt323:qt-mt323.dll
 0005:000009e0       __imp_?className@QProcess@@UBEPBDXZ 004899e0     qt-mt323:qt-mt323.dll
 0005:000009e4       __imp_?metaObject@QProcess@@UBEPAVQMetaObject@@XZ 004899e4     qt-mt323:qt-mt323.dll
 0005:000009e8       __imp_?qt_cast@QProcess@@UAEPAXPBD@Z 004899e8     qt-mt323:qt-mt323.dll
 0005:000009ec       __imp_?qt_emit@QProcess@@UAE_NHPAUQUObject@@@Z 004899ec     qt-mt323:qt-mt323.dll
 0005:000009f0       __imp_?qt_invoke@QProcess@@UAE_NHPAUQUObject@@@Z 004899f0     qt-mt323:qt-mt323.dll
 0005:000009f4       __imp_?qt_property@QProcess@@UAE_NHHPAVQVariant@@@Z 004899f4     qt-mt323:qt-mt323.dll
 0005:000009f8       __imp_??0QSize@@QAE@HH@Z   004899f8     qt-mt323:qt-mt323.dll
 0005:000009fc       __imp_?expandedTo@QSize@@QBE?AV1@ABV1@@Z 004899fc     qt-mt323:qt-mt323.dll
 0005:00000a00       __imp_??0QSizePolicy@@QAE@W4SizeType@0@0EE_N@Z 00489a00     qt-mt323:qt-mt323.dll
 0005:00000a04       __imp_?hasHeightForWidth@QSizePolicy@@QBE_NXZ 00489a04     qt-mt323:qt-mt323.dll
 0005:00000a08       __imp_?clearWState@QWidget@@IAEXI@Z 00489a08     qt-mt323:qt-mt323.dll
 0005:00000a0c       __imp_??0QDialog@@QAE@PAVQWidget@@PBD_NI@Z 00489a0c     qt-mt323:qt-mt323.dll
 0005:00000a10       __imp_??1QDialog@@UAE@XZ   00489a10     qt-mt323:qt-mt323.dll
 0005:00000a14       __imp_?resize@QDialog@@QAEXABVQSize@@@Z 00489a14     qt-mt323:qt-mt323.dll
 0005:00000a18       __imp_?setSizeGripEnabled@QDialog@@QAEX_N@Z 00489a18     qt-mt323:qt-mt323.dll
 0005:00000a1c       __imp_??0QKeySequence@@QAE@ABVQString@@@Z 00489a1c     qt-mt323:qt-mt323.dll
 0005:00000a20       __imp_??0QPushButton@@QAE@PAVQWidget@@PBD@Z 00489a20     qt-mt323:qt-mt323.dll
 0005:00000a24       __imp_??1QPushButton@@UAE@XZ 00489a24     qt-mt323:qt-mt323.dll
 0005:00000a28       __imp_??0QLabel@@QAE@PAVQWidget@@PBDI@Z 00489a28     qt-mt323:qt-mt323.dll
 0005:00000a2c       __imp_??1QLabel@@UAE@XZ    00489a2c     qt-mt323:qt-mt323.dll
 0005:00000a30       __imp_??0QSpacerItem@@QAE@HHW4SizeType@QSizePolicy@@0@Z 00489a30     qt-mt323:qt-mt323.dll
 0005:00000a34       __imp_??1QSpacerItem@@UAE@XZ 00489a34     qt-mt323:qt-mt323.dll
 0005:00000a38       __imp_?addLayout@QBoxLayout@@QAEXPAVQLayout@@H@Z 00489a38     qt-mt323:qt-mt323.dll
 0005:00000a3c       __imp_??0QHBoxLayout@@QAE@PAVQWidget@@HHPBD@Z 00489a3c     qt-mt323:qt-mt323.dll
 0005:00000a40       __imp_??1QHBoxLayout@@UAE@XZ 00489a40     qt-mt323:qt-mt323.dll
 0005:00000a44       __imp_??0QVBoxLayout@@QAE@PAVQWidget@@HHPBD@Z 00489a44     qt-mt323:qt-mt323.dll
 0005:00000a48       __imp_??1QVBoxLayout@@UAE@XZ 00489a48     qt-mt323:qt-mt323.dll
 0005:00000a4c       __imp_??0QCursor@@QAE@H@Z  00489a4c     qt-mt323:qt-mt323.dll
 0005:00000a50       __imp_??1QCursor@@QAE@XZ   00489a50     qt-mt323:qt-mt323.dll
 0005:00000a54       __imp_?addItem@QBoxLayout@@UAEXPAVQLayoutItem@@@Z 00489a54     qt-mt323:qt-mt323.dll
 0005:00000a58       __imp_?childEvent@QLayout@@MAEXPAVQChildEvent@@@Z 00489a58     qt-mt323:qt-mt323.dll
 0005:00000a5c       __imp_?className@QHBoxLayout@@UBEPBDXZ 00489a5c     qt-mt323:qt-mt323.dll
 0005:00000a60       __imp_?className@QLabel@@UBEPBDXZ 00489a60     qt-mt323:qt-mt323.dll
 0005:00000a64       __imp_?className@QPushButton@@UBEPBDXZ 00489a64     qt-mt323:qt-mt323.dll
 0005:00000a68       __imp_?className@QVBoxLayout@@UBEPBDXZ 00489a68     qt-mt323:qt-mt323.dll
 0005:00000a6c       __imp_?drawButton@QPushButton@@MAEXPAVQPainter@@@Z 00489a6c     qt-mt323:qt-mt323.dll
 0005:00000a70       __imp_?drawButtonLabel@QPushButton@@MAEXPAVQPainter@@@Z 00489a70     qt-mt323:qt-mt323.dll
 0005:00000a74       __imp_?drawContents@QLabel@@MAEXPAVQPainter@@@Z 00489a74     qt-mt323:qt-mt323.dll
 0005:00000a78       __imp_?drawFrame@QFrame@@MAEXPAVQPainter@@@Z 00489a78     qt-mt323:qt-mt323.dll
 0005:00000a7c       __imp_?enabledChange@QButton@@MAEX_N@Z 00489a7c     qt-mt323:qt-mt323.dll
 0005:00000a80       __imp_?eventFilter@QLayout@@MAE_NPAVQObject@@PAVQEvent@@@Z 00489a80     qt-mt323:qt-mt323.dll
 0005:00000a84       __imp_?expanding@QBoxLayout@@UBE?AW4ExpandData@QSizePolicy@@XZ 00489a84     qt-mt323:qt-mt323.dll
 0005:00000a88       __imp_?expanding@QSpacerItem@@UBE?AW4ExpandData@QSizePolicy@@XZ 00489a88     qt-mt323:qt-mt323.dll
 0005:00000a8c       __imp_?focusInEvent@QPushButton@@MAEXPAVQFocusEvent@@@Z 00489a8c     qt-mt323:qt-mt323.dll
 0005:00000a90       __imp_?focusOutEvent@QPushButton@@MAEXPAVQFocusEvent@@@Z 00489a90     qt-mt323:qt-mt323.dll
 0005:00000a94       __imp_?fontChange@QLabel@@MAEXABVQFont@@@Z 00489a94     qt-mt323:qt-mt323.dll
 0005:00000a98       __imp_?frameChanged@QFrame@@MAEXXZ 00489a98     qt-mt323:qt-mt323.dll
 0005:00000a9c       __imp_?geometry@QLayout@@UBE?AVQRect@@XZ 00489a9c     qt-mt323:qt-mt323.dll
 0005:00000aa0       __imp_?geometry@QSpacerItem@@UBE?AVQRect@@XZ 00489aa0     qt-mt323:qt-mt323.dll
 0005:00000aa4       __imp_?hasHeightForWidth@QBoxLayout@@UBE_NXZ 00489aa4     qt-mt323:qt-mt323.dll
 0005:00000aa8       __imp_?hasHeightForWidth@QLayoutItem@@UBE_NXZ 00489aa8     qt-mt323:qt-mt323.dll
 0005:00000aac       __imp_?heightForWidth@QBoxLayout@@UBEHH@Z 00489aac     qt-mt323:qt-mt323.dll
 0005:00000ab0       __imp_?heightForWidth@QLabel@@UBEHH@Z 00489ab0     qt-mt323:qt-mt323.dll
 0005:00000ab4       __imp_?heightForWidth@QLayoutItem@@UBEHH@Z 00489ab4     qt-mt323:qt-mt323.dll
 0005:00000ab8       __imp_?hitButton@QButton@@MBE_NABVQPoint@@@Z 00489ab8     qt-mt323:qt-mt323.dll
 0005:00000abc       __imp_?invalidate@QBoxLayout@@UAEXXZ 00489abc     qt-mt323:qt-mt323.dll
 0005:00000ac0       __imp_?invalidate@QLayoutItem@@UAEXXZ 00489ac0     qt-mt323:qt-mt323.dll
 0005:00000ac4       __imp_?isEmpty@QLayout@@UBE_NXZ 00489ac4     qt-mt323:qt-mt323.dll
 0005:00000ac8       __imp_?isEmpty@QSpacerItem@@UBE_NXZ 00489ac8     qt-mt323:qt-mt323.dll
 0005:00000acc       __imp_?iterator@QBoxLayout@@UAE?AVQLayoutIterator@@XZ 00489acc     qt-mt323:qt-mt323.dll
 0005:00000ad0       __imp_?iterator@QLayoutItem@@UAE?AVQLayoutIterator@@XZ 00489ad0     qt-mt323:qt-mt323.dll
 0005:00000ad4       __imp_?keyPressEvent@QButton@@MAEXPAVQKeyEvent@@@Z 00489ad4     qt-mt323:qt-mt323.dll
 0005:00000ad8       __imp_?keyReleaseEvent@QButton@@MAEXPAVQKeyEvent@@@Z 00489ad8     qt-mt323:qt-mt323.dll
 0005:00000adc       __imp_?layout@QLayout@@UAEPAV1@XZ 00489adc     qt-mt323:qt-mt323.dll
 0005:00000ae0       __imp_?layout@QLayoutItem@@UAEPAVQLayout@@XZ 00489ae0     qt-mt323:qt-mt323.dll
 0005:00000ae4       __imp_?maximumSize@QBoxLayout@@UBE?AVQSize@@XZ 00489ae4     qt-mt323:qt-mt323.dll
 0005:00000ae8       __imp_?maximumSize@QSpacerItem@@UBE?AVQSize@@XZ 00489ae8     qt-mt323:qt-mt323.dll
 0005:00000aec       __imp_?metaObject@QHBoxLayout@@UBEPAVQMetaObject@@XZ 00489aec     qt-mt323:qt-mt323.dll
 0005:00000af0       __imp_?metaObject@QLabel@@UBEPAVQMetaObject@@XZ 00489af0     qt-mt323:qt-mt323.dll
 0005:00000af4       __imp_?windowActivationChange@QWidget@@MAEX_N@Z 00489af4     qt-mt323:qt-mt323.dll
 0005:00000af8       __imp_?metaObject@QVBoxLayout@@UBEPAVQMetaObject@@XZ 00489af8     qt-mt323:qt-mt323.dll
 0005:00000afc       __imp_?minimumSize@QBoxLayout@@UBE?AVQSize@@XZ 00489afc     qt-mt323:qt-mt323.dll
 0005:00000b00       __imp_?minimumSize@QSpacerItem@@UBE?AVQSize@@XZ 00489b00     qt-mt323:qt-mt323.dll
 0005:00000b04       __imp_?minimumSizeHint@QLabel@@UBE?AVQSize@@XZ 00489b04     qt-mt323:qt-mt323.dll
 0005:00000b08       __imp_?mouseMoveEvent@QButton@@MAEXPAVQMouseEvent@@@Z 00489b08     qt-mt323:qt-mt323.dll
 0005:00000b0c       __imp_?mousePressEvent@QButton@@MAEXPAVQMouseEvent@@@Z 00489b0c     qt-mt323:qt-mt323.dll
 0005:00000b10       __imp_?mouseReleaseEvent@QButton@@MAEXPAVQMouseEvent@@@Z 00489b10     qt-mt323:qt-mt323.dll
 0005:00000b14       __imp_?move@QPushButton@@UAEXHH@Z 00489b14     qt-mt323:qt-mt323.dll
 0005:00000b18       __imp_?paintEvent@QButton@@MAEXPAVQPaintEvent@@@Z 00489b18     qt-mt323:qt-mt323.dll
 0005:00000b1c       __imp_?paintEvent@QFrame@@MAEXPAVQPaintEvent@@@Z 00489b1c     qt-mt323:qt-mt323.dll
 0005:00000b20       __imp_?qt_cast@QHBoxLayout@@UAEPAXPBD@Z 00489b20     qt-mt323:qt-mt323.dll
 0005:00000b24       __imp_?qt_cast@QLabel@@UAEPAXPBD@Z 00489b24     qt-mt323:qt-mt323.dll
 0005:00000b28       __imp_?qt_cast@QPushButton@@UAEPAXPBD@Z 00489b28     qt-mt323:qt-mt323.dll
 0005:00000b2c       __imp_?qt_cast@QVBoxLayout@@UAEPAXPBD@Z 00489b2c     qt-mt323:qt-mt323.dll
 0005:00000b30       __imp_?qt_emit@QHBoxLayout@@UAE_NHPAUQUObject@@@Z 00489b30     qt-mt323:qt-mt323.dll
 0005:00000b34       __imp_?qt_emit@QLabel@@UAE_NHPAUQUObject@@@Z 00489b34     qt-mt323:qt-mt323.dll
 0005:00000b38       __imp_?qt_emit@QPushButton@@UAE_NHPAUQUObject@@@Z 00489b38     qt-mt323:qt-mt323.dll
 0005:00000b3c       __imp_?qt_emit@QVBoxLayout@@UAE_NHPAUQUObject@@@Z 00489b3c     qt-mt323:qt-mt323.dll
 0005:00000b40       __imp_?qt_invoke@QHBoxLayout@@UAE_NHPAUQUObject@@@Z 00489b40     qt-mt323:qt-mt323.dll
 0005:00000b44       __imp_?qt_invoke@QLabel@@UAE_NHPAUQUObject@@@Z 00489b44     qt-mt323:qt-mt323.dll
 0005:00000b48       __imp_?qt_invoke@QPushButton@@UAE_NHPAUQUObject@@@Z 00489b48     qt-mt323:qt-mt323.dll
 0005:00000b4c       __imp_?qt_invoke@QVBoxLayout@@UAE_NHPAUQUObject@@@Z 00489b4c     qt-mt323:qt-mt323.dll
 0005:00000b50       __imp_?qt_property@QHBoxLayout@@UAE_NHHPAVQVariant@@@Z 00489b50     qt-mt323:qt-mt323.dll
 0005:00000b54       __imp_?qt_property@QLabel@@UAE_NHHPAVQVariant@@@Z 00489b54     qt-mt323:qt-mt323.dll
 0005:00000b58       __imp_?qt_property@QPushButton@@UAE_NHHPAVQVariant@@@Z 00489b58     qt-mt323:qt-mt323.dll
 0005:00000b5c       __imp_?qt_property@QVBoxLayout@@UAE_NHHPAVQVariant@@@Z 00489b5c     qt-mt323:qt-mt323.dll
 0005:00000b60       __imp_?resize@QPushButton@@UAEXHH@Z 00489b60     qt-mt323:qt-mt323.dll
 0005:00000b64       __imp_?resizeEvent@QLabel@@MAEXPAVQResizeEvent@@@Z 00489b64     qt-mt323:qt-mt323.dll
 0005:00000b68       __imp_?resizeEvent@QPushButton@@MAEXPAVQResizeEvent@@@Z 00489b68     qt-mt323:qt-mt323.dll
 0005:00000b6c       __imp_?setAccel@QButton@@UAEXABVQKeySequence@@@Z 00489b6c     qt-mt323:qt-mt323.dll
 0005:00000b70       __imp_?setAlignment@QLabel@@UAEXH@Z 00489b70     qt-mt323:qt-mt323.dll
 0005:00000b74       __imp_?setAlignment@QLayoutItem@@UAEXH@Z 00489b74     qt-mt323:qt-mt323.dll
 0005:00000b78       __imp_?setAutoAdd@QLayout@@UAEX_N@Z 00489b78     qt-mt323:qt-mt323.dll
 0005:00000b7c       __imp_?setAutoDefault@QPushButton@@UAEX_N@Z 00489b7c     qt-mt323:qt-mt323.dll
 0005:00000b80       __imp_?setAutoRepeat@QButton@@UAEX_N@Z 00489b80     qt-mt323:qt-mt323.dll
 0005:00000b84       __imp_?setAutoResize@QLabel@@UAEX_N@Z 00489b84     qt-mt323:qt-mt323.dll
 0005:00000b88       __imp_?setBuddy@QLabel@@UAEXPAVQWidget@@@Z 00489b88     qt-mt323:qt-mt323.dll
 0005:00000b8c       __imp_?setDefault@QPushButton@@UAEX_N@Z 00489b8c     qt-mt323:qt-mt323.dll
 0005:00000b90       __imp_?setDown@QButton@@UAEX_N@Z 00489b90     qt-mt323:qt-mt323.dll
 0005:00000b94       __imp_?setFont@QLabel@@UAEXABVQFont@@@Z 00489b94     qt-mt323:qt-mt323.dll
 0005:00000b98       __imp_?setFrameRect@QFrame@@UAEXABVQRect@@@Z 00489b98     qt-mt323:qt-mt323.dll
 0005:00000b9c       __imp_?setFrameStyle@QFrame@@UAEXH@Z 00489b9c     qt-mt323:qt-mt323.dll
 0005:00000ba0       __imp_?setGeometry@QBoxLayout@@UAEXABVQRect@@@Z 00489ba0     qt-mt323:qt-mt323.dll
 0005:00000ba4       __imp_?setGeometry@QPushButton@@UAEXABVQRect@@@Z 00489ba4     qt-mt323:qt-mt323.dll
 0005:00000ba8       __imp_?setGeometry@QPushButton@@UAEXHHHH@Z 00489ba8     qt-mt323:qt-mt323.dll
 0005:00000bac       __imp_?setGeometry@QSpacerItem@@UAEXABVQRect@@@Z 00489bac     qt-mt323:qt-mt323.dll
 0005:00000bb0       __imp_?setGroup@QButton@@EAEXPAVQButtonGroup@@@Z 00489bb0     qt-mt323:qt-mt323.dll
 0005:00000bb4       __imp_?setIsMenuButton@QPushButton@@UAEX_N@Z 00489bb4     qt-mt323:qt-mt323.dll
 0005:00000bb8       __imp_?setLineWidth@QFrame@@UAEXH@Z 00489bb8     qt-mt323:qt-mt323.dll
 0005:00000bbc       __imp_?setMargin@QFrame@@UAEXH@Z 00489bbc     qt-mt323:qt-mt323.dll
 0005:00000bc0       __imp_?setMargin@QLayout@@UAEXH@Z 00489bc0     qt-mt323:qt-mt323.dll
 0005:00000bc4       __imp_?setMenuBar@QLayout@@UAEXPAVQMenuBar@@@Z 00489bc4     qt-mt323:qt-mt323.dll
 0005:00000bc8       __imp_?setMidLineWidth@QFrame@@UAEXH@Z 00489bc8     qt-mt323:qt-mt323.dll
 0005:00000bcc       __imp_?setMovie@QLabel@@UAEXABVQMovie@@@Z 00489bcc     qt-mt323:qt-mt323.dll
 0005:00000bd0       __imp_?setNum@QLabel@@UAEXH@Z 00489bd0     qt-mt323:qt-mt323.dll
 0005:00000bd4       __imp_?setNum@QLabel@@UAEXN@Z 00489bd4     qt-mt323:qt-mt323.dll
 0005:00000bd8       __imp_?setOn@QPushButton@@UAEX_N@Z 00489bd8     qt-mt323:qt-mt323.dll
 0005:00000bdc       __imp_?setPicture@QLabel@@UAEXABVQPicture@@@Z 00489bdc     qt-mt323:qt-mt323.dll
 0005:00000be0       __imp_?setPixmap@QButton@@UAEXABVQPixmap@@@Z 00489be0     qt-mt323:qt-mt323.dll
 0005:00000be4       __imp_?setPixmap@QLabel@@UAEXABVQPixmap@@@Z 00489be4     qt-mt323:qt-mt323.dll
 0005:00000be8       __imp_?setSpacing@QLayout@@UAEXH@Z 00489be8     qt-mt323:qt-mt323.dll
 0005:00000bec       __imp_?setState@QButton@@MAEXW4ToggleState@1@@Z 00489bec     qt-mt323:qt-mt323.dll
 0005:00000bf0       __imp_?setText@QButton@@UAEXABVQString@@@Z 00489bf0     qt-mt323:qt-mt323.dll
 0005:00000bf4       __imp_?setText@QLabel@@UAEXABVQString@@@Z 00489bf4     qt-mt323:qt-mt323.dll
 0005:00000bf8       __imp_?setToggleType@QButton@@MAEXW4ToggleType@1@@Z 00489bf8     qt-mt323:qt-mt323.dll
 0005:00000bfc       __imp_?sizeHint@QBoxLayout@@UBE?AVQSize@@XZ 00489bfc     qt-mt323:qt-mt323.dll
 0005:00000c00       __imp_?startTimer@QObject@@QAEHH@Z 00489c00     qt-mt323:qt-mt323.dll
 0005:00000c04       __imp_?sizeHint@QPushButton@@UBE?AVQSize@@XZ 00489c04     qt-mt323:qt-mt323.dll
 0005:00000c08       __imp_?sizeHint@QSpacerItem@@UBE?AVQSize@@XZ 00489c08     qt-mt323:qt-mt323.dll
 0005:00000c0c       __imp_?spacerItem@QLayoutItem@@UAEPAVQSpacerItem@@XZ 00489c0c     qt-mt323:qt-mt323.dll
 0005:00000c10       __imp_?spacerItem@QSpacerItem@@UAEPAV1@XZ 00489c10     qt-mt323:qt-mt323.dll
 0005:00000c14       __imp_?styleChange@QFrame@@MAEXAAVQStyle@@@Z 00489c14     qt-mt323:qt-mt323.dll
 0005:00000c18       __imp_?updateMask@QPushButton@@MAEXXZ 00489c18     qt-mt323:qt-mt323.dll
 0005:00000c1c       __imp_?widget@QLayoutItem@@UAEPAVQWidget@@XZ 00489c1c     qt-mt323:qt-mt323.dll
 0005:00000c20       __imp_?setMinimumSize@QWidget@@QAEXABVQSize@@@Z 00489c20     qt-mt323:qt-mt323.dll
 0005:00000c24       __imp_?resize@QWidget@@QAEXABVQSize@@@Z 00489c24     qt-mt323:qt-mt323.dll
 0005:00000c28       __imp_?layout@QWidget@@QBEPAVQLayout@@XZ 00489c28     qt-mt323:qt-mt323.dll
 0005:00000c2c       __imp_??0QToolBar@@QAE@ABVQString@@PAVQMainWindow@@W4Dock@Qt@@_NPBD@Z 00489c2c     qt-mt323:qt-mt323.dll
 0005:00000c30       __imp_??1QToolBar@@UAE@XZ  00489c30     qt-mt323:qt-mt323.dll
 0005:00000c34       __imp_??0QMainWindow@@QAE@PAVQWidget@@PBDI@Z 00489c34     qt-mt323:qt-mt323.dll
 0005:00000c38       __imp_??1QMainWindow@@UAE@XZ 00489c38     qt-mt323:qt-mt323.dll
 0005:00000c3c       __imp_?statusBar@QMainWindow@@QBEPAVQStatusBar@@XZ 00489c3c     qt-mt323:qt-mt323.dll
 0005:00000c40       __imp_?centralWidget@QMainWindow@@QBEPAVQWidget@@XZ 00489c40     qt-mt323:qt-mt323.dll
 0005:00000c44       __imp_??0QIconSet@@QAE@ABVQPixmap@@W4Size@0@@Z 00489c44     qt-mt323:qt-mt323.dll
 0005:00000c48       __imp_??1QIconSet@@UAE@XZ  00489c48     qt-mt323:qt-mt323.dll
 0005:00000c4c       __imp_??0QGroupBox@@QAE@PAVQWidget@@PBD@Z 00489c4c     qt-mt323:qt-mt323.dll
 0005:00000c50       __imp_??1QGroupBox@@UAE@XZ 00489c50     qt-mt323:qt-mt323.dll
 0005:00000c54       __imp_??0QHBoxLayout@@QAE@PAVQLayout@@HPBD@Z 00489c54     qt-mt323:qt-mt323.dll
 0005:00000c58       __imp_??0QVBoxLayout@@QAE@PAVQLayout@@HPBD@Z 00489c58     qt-mt323:qt-mt323.dll
 0005:00000c5c       __imp_??0QAction@@QAE@PAVQObject@@PBD@Z 00489c5c     qt-mt323:qt-mt323.dll
 0005:00000c60       __imp_??1QAction@@UAE@XZ   00489c60     qt-mt323:qt-mt323.dll
 0005:00000c64       __imp_?setText@QMenuItem@@QAEXABVQString@@@Z 00489c64     qt-mt323:qt-mt323.dll
 0005:00000c68       __imp_?insertItem@QMenuData@@QAEHABVQString@@PAVQPopupMenu@@HH@Z 00489c68     qt-mt323:qt-mt323.dll
 0005:00000c6c       __imp_?findItem@QMenuData@@QBEPAVQMenuItem@@H@Z 00489c6c     qt-mt323:qt-mt323.dll
 0005:00000c70       __imp_??0QMenuBar@@QAE@PAVQWidget@@PBD@Z 00489c70     qt-mt323:qt-mt323.dll
 0005:00000c74       __imp_??1QMenuBar@@UAE@XZ  00489c74     qt-mt323:qt-mt323.dll
 0005:00000c78       __imp_?activateItemAt@QMenuBar@@UAEXH@Z 00489c78     qt-mt323:qt-mt323.dll
 0005:00000c7c       __imp_?activateItemAt@QPopupMenu@@UAEXH@Z 00489c7c     qt-mt323:qt-mt323.dll
 0005:00000c80       __imp_?addTo@QAction@@UAE_NPAVQWidget@@@Z 00489c80     qt-mt323:qt-mt323.dll
 0005:00000c84       __imp_?addedTo@QAction@@MAEXHPAVQPopupMenu@@@Z 00489c84     qt-mt323:qt-mt323.dll
 0005:00000c88       __imp_?addedTo@QAction@@MAEXPAVQWidget@@0@Z 00489c88     qt-mt323:qt-mt323.dll
 0005:00000c8c       __imp_?childEvent@QGroupBox@@MAEXPAVQChildEvent@@@Z 00489c8c     qt-mt323:qt-mt323.dll
 0005:00000c90       __imp_?className@QAction@@UBEPBDXZ 00489c90     qt-mt323:qt-mt323.dll
 0005:00000c94       __imp_?className@QGroupBox@@UBEPBDXZ 00489c94     qt-mt323:qt-mt323.dll
 0005:00000c98       __imp_?className@QMenuBar@@UBEPBDXZ 00489c98     qt-mt323:qt-mt323.dll
 0005:00000c9c       __imp_?className@QPopupMenu@@UBEPBDXZ 00489c9c     qt-mt323:qt-mt323.dll
 0005:00000ca0       __imp_?className@QToolBar@@UBEPBDXZ 00489ca0     qt-mt323:qt-mt323.dll
 0005:00000ca4       __imp_?className@QWidget@@UBEPBDXZ 00489ca4     qt-mt323:qt-mt323.dll
 0005:00000ca8       __imp_?clear@QToolBar@@UAEXXZ 00489ca8     qt-mt323:qt-mt323.dll
 0005:00000cac       __imp_?closeEvent@QPopupMenu@@MAEXPAVQCloseEvent@@@Z 00489cac     qt-mt323:qt-mt323.dll
 0005:00000cb0       __imp_?contextMenuEvent@QDockWindow@@MAEXPAVQContextMenuEvent@@@Z 00489cb0     qt-mt323:qt-mt323.dll
 0005:00000cb4       __imp_?customWhatsThis@QMenuBar@@UBE_NXZ 00489cb4     qt-mt323:qt-mt323.dll
 0005:00000cb8       __imp_?customWhatsThis@QPopupMenu@@UBE_NXZ 00489cb8     qt-mt323:qt-mt323.dll
 0005:00000cbc       __imp_?dock@QDockWindow@@UAEXXZ 00489cbc     qt-mt323:qt-mt323.dll
 0005:00000cc0       __imp_?drawContents@QDockWindow@@MAEXPAVQPainter@@@Z 00489cc0     qt-mt323:qt-mt323.dll
 0005:00000cc4       __imp_?drawContents@QFrame@@MAEXPAVQPainter@@@Z 00489cc4     qt-mt323:qt-mt323.dll
 0005:00000cc8       __imp_?drawContents@QMenuBar@@MAEXPAVQPainter@@@Z 00489cc8     qt-mt323:qt-mt323.dll
 0005:00000ccc       __imp_?drawContents@QPopupMenu@@MAEXPAVQPainter@@@Z 00489ccc     qt-mt323:qt-mt323.dll
 0005:00000cd0       __imp_?drawFrame@QDockWindow@@MAEXPAVQPainter@@@Z 00489cd0     qt-mt323:qt-mt323.dll
 0005:00000cd4       __imp_?enabledChange@QPopupMenu@@MAEX_N@Z 00489cd4     qt-mt323:qt-mt323.dll
 0005:00000cd8       __imp_?event@QGroupBox@@MAE_NPAVQEvent@@@Z 00489cd8     qt-mt323:qt-mt323.dll
 0005:00000cdc       __imp_?event@QToolBar@@UAE_NPAVQEvent@@@Z 00489cdc     qt-mt323:qt-mt323.dll
 0005:00000ce0       __imp_?eventFilter@QDockWindow@@UAE_NPAVQObject@@PAVQEvent@@@Z 00489ce0     qt-mt323:qt-mt323.dll
 0005:00000ce4       __imp_?eventFilter@QMenuBar@@UAE_NPAVQObject@@PAVQEvent@@@Z 00489ce4     qt-mt323:qt-mt323.dll
 0005:00000ce8       __imp_?focusInEvent@QGroupBox@@MAEXPAVQFocusEvent@@@Z 00489ce8     qt-mt323:qt-mt323.dll
 0005:00000cec       __imp_?focusInEvent@QMenuBar@@MAEXPAVQFocusEvent@@@Z 00489cec     qt-mt323:qt-mt323.dll
 0005:00000cf0       __imp_?focusInEvent@QPopupMenu@@MAEXPAVQFocusEvent@@@Z 00489cf0     qt-mt323:qt-mt323.dll
 0005:00000cf4       __imp_?focusNextPrevChild@QPopupMenu@@MAE_N_N@Z 00489cf4     qt-mt323:qt-mt323.dll
 0005:00000cf8       __imp_?focusOutEvent@QMenuBar@@MAEXPAVQFocusEvent@@@Z 00489cf8     qt-mt323:qt-mt323.dll
 0005:00000cfc       __imp_?focusOutEvent@QPopupMenu@@MAEXPAVQFocusEvent@@@Z 00489cfc     qt-mt323:qt-mt323.dll
 0005:00000d00       __imp_?fontChange@QGroupBox@@MAEXABVQFont@@@Z 00489d00     qt-mt323:qt-mt323.dll
 0005:00000d04       __imp_?fontChange@QMenuBar@@MAEXABVQFont@@@Z 00489d04     qt-mt323:qt-mt323.dll
 0005:00000d08       __imp_?frameChanged@QMenuBar@@EAEXXZ 00489d08     qt-mt323:qt-mt323.dll
 0005:00000d0c       __imp_?frameChanged@QPopupMenu@@EAEXXZ 00489d0c     qt-mt323:qt-mt323.dll
 0005:00000d10       __imp_?heightForWidth@QMenuBar@@UBEHH@Z 00489d10     qt-mt323:qt-mt323.dll
 0005:00000d14       __imp_?hide@QMenuBar@@UAEXXZ 00489d14     qt-mt323:qt-mt323.dll
 0005:00000d18       __imp_?hide@QPopupMenu@@UAEXXZ 00489d18     qt-mt323:qt-mt323.dll
 0005:00000d1c       __imp_?hide@QToolBar@@UAEXXZ 00489d1c     qt-mt323:qt-mt323.dll
 0005:00000d20       __imp_?hideEvent@QDockWindow@@MAEXPAVQHideEvent@@@Z 00489d20     qt-mt323:qt-mt323.dll
 0005:00000d24       __imp_?keyPressEvent@QMenuBar@@MAEXPAVQKeyEvent@@@Z 00489d24     qt-mt323:qt-mt323.dll
 0005:00000d28       __imp_?keyPressEvent@QPopupMenu@@MAEXPAVQKeyEvent@@@Z 00489d28     qt-mt323:qt-mt323.dll
 0005:00000d2c       __imp_?leaveEvent@QMenuBar@@MAEXPAVQEvent@@@Z 00489d2c     qt-mt323:qt-mt323.dll
 0005:00000d30       __imp_?leaveEvent@QPopupMenu@@MAEXPAVQEvent@@@Z 00489d30     qt-mt323:qt-mt323.dll
 0005:00000d34       __imp_?menuContentsChanged@QMenuBar@@MAEXXZ 00489d34     qt-mt323:qt-mt323.dll
 0005:00000d38       __imp_?menuContentsChanged@QPopupMenu@@EAEXXZ 00489d38     qt-mt323:qt-mt323.dll
 0005:00000d3c       __imp_?menuDelPopup@QMenuBar@@EAEXPAVQPopupMenu@@@Z 00489d3c     qt-mt323:qt-mt323.dll
 0005:00000d40       __imp_?menuDelPopup@QPopupMenu@@EAEXPAV1@@Z 00489d40     qt-mt323:qt-mt323.dll
 0005:00000d44       __imp_?menuInsPopup@QMenuBar@@EAEXPAVQPopupMenu@@@Z 00489d44     qt-mt323:qt-mt323.dll
 0005:00000d48       __imp_?menuInsPopup@QPopupMenu@@EAEXPAV1@@Z 00489d48     qt-mt323:qt-mt323.dll
 0005:00000d4c       __imp_?menuStateChanged@QMenuBar@@MAEXXZ 00489d4c     qt-mt323:qt-mt323.dll
 0005:00000d50       __imp_?menuStateChanged@QPopupMenu@@EAEXXZ 00489d50     qt-mt323:qt-mt323.dll
 0005:00000d54       __imp_?metaObject@QAction@@UBEPAVQMetaObject@@XZ 00489d54     qt-mt323:qt-mt323.dll
 0005:00000d58       __imp_?metaObject@QGroupBox@@UBEPAVQMetaObject@@XZ 00489d58     qt-mt323:qt-mt323.dll
 0005:00000d5c       __imp_?metaObject@QMenuBar@@UBEPAVQMetaObject@@XZ 00489d5c     qt-mt323:qt-mt323.dll
 0005:00000d60       __imp_?metaObject@QPopupMenu@@UBEPAVQMetaObject@@XZ 00489d60     qt-mt323:qt-mt323.dll
 0005:00000d64       __imp_?metaObject@QToolBar@@UBEPAVQMetaObject@@XZ 00489d64     qt-mt323:qt-mt323.dll
 0005:00000d68       __imp_?metaObject@QWidget@@UBEPAVQMetaObject@@XZ 00489d68     qt-mt323:qt-mt323.dll
 0005:00000d6c       __imp_?minimumSizeHint@QMenuBar@@UBE?AVQSize@@XZ 00489d6c     qt-mt323:qt-mt323.dll
 0005:00000d70       __imp_?minimumSizeHint@QToolBar@@UBE?AVQSize@@XZ 00489d70     qt-mt323:qt-mt323.dll
 0005:00000d74       __imp_?mouseMoveEvent@QMenuBar@@MAEXPAVQMouseEvent@@@Z 00489d74     qt-mt323:qt-mt323.dll
 0005:00000d78       __imp_?mouseMoveEvent@QPopupMenu@@MAEXPAVQMouseEvent@@@Z 00489d78     qt-mt323:qt-mt323.dll
 0005:00000d7c       __imp_?mousePressEvent@QMenuBar@@MAEXPAVQMouseEvent@@@Z 00489d7c     qt-mt323:qt-mt323.dll
 0005:00000d80       __imp_?mousePressEvent@QPopupMenu@@MAEXPAVQMouseEvent@@@Z 00489d80     qt-mt323:qt-mt323.dll
 0005:00000d84       __imp_?mouseReleaseEvent@QMenuBar@@MAEXPAVQMouseEvent@@@Z 00489d84     qt-mt323:qt-mt323.dll
 0005:00000d88       __imp_?mouseReleaseEvent@QPopupMenu@@MAEXPAVQMouseEvent@@@Z 00489d88     qt-mt323:qt-mt323.dll
 0005:00000d8c       __imp_?paintEvent@QGroupBox@@MAEXPAVQPaintEvent@@@Z 00489d8c     qt-mt323:qt-mt323.dll
 0005:00000d90       __imp_?paintEvent@QPopupMenu@@MAEXPAVQPaintEvent@@@Z 00489d90     qt-mt323:qt-mt323.dll
 0005:00000d94       __imp_?qt_cast@QAction@@UAEPAXPBD@Z 00489d94     qt-mt323:qt-mt323.dll
 0005:00000d98       __imp_?qt_cast@QGroupBox@@UAEPAXPBD@Z 00489d98     qt-mt323:qt-mt323.dll
 0005:00000d9c       __imp_?qt_cast@QMenuBar@@UAEPAXPBD@Z 00489d9c     qt-mt323:qt-mt323.dll
 0005:00000da0       __imp_?qt_cast@QPopupMenu@@UAEPAXPBD@Z 00489da0     qt-mt323:qt-mt323.dll
 0005:00000da4       __imp_?qt_cast@QToolBar@@UAEPAXPBD@Z 00489da4     qt-mt323:qt-mt323.dll
 0005:00000da8       __imp_?qt_cast@QWidget@@UAEPAXPBD@Z 00489da8     qt-mt323:qt-mt323.dll
 0005:00000dac       __imp_?qt_emit@QAction@@UAE_NHPAUQUObject@@@Z 00489dac     qt-mt323:qt-mt323.dll
 0005:00000db0       __imp_?qt_emit@QGroupBox@@UAE_NHPAUQUObject@@@Z 00489db0     qt-mt323:qt-mt323.dll
 0005:00000db4       __imp_?qt_emit@QMenuBar@@UAE_NHPAUQUObject@@@Z 00489db4     qt-mt323:qt-mt323.dll
 0005:00000db8       __imp_?qt_emit@QPopupMenu@@UAE_NHPAUQUObject@@@Z 00489db8     qt-mt323:qt-mt323.dll
 0005:00000dbc       __imp_?qt_emit@QToolBar@@UAE_NHPAUQUObject@@@Z 00489dbc     qt-mt323:qt-mt323.dll
 0005:00000dc0       __imp_?qt_emit@QWidget@@UAE_NHPAUQUObject@@@Z 00489dc0     qt-mt323:qt-mt323.dll
 0005:00000dc4       __imp_?qt_invoke@QAction@@UAE_NHPAUQUObject@@@Z 00489dc4     qt-mt323:qt-mt323.dll
 0005:00000dc8       __imp_?qt_invoke@QGroupBox@@UAE_NHPAUQUObject@@@Z 00489dc8     qt-mt323:qt-mt323.dll
 0005:00000dcc       __imp_?qt_invoke@QMenuBar@@UAE_NHPAUQUObject@@@Z 00489dcc     qt-mt323:qt-mt323.dll
 0005:00000dd0       __imp_?qt_invoke@QPopupMenu@@UAE_NHPAUQUObject@@@Z 00489dd0     qt-mt323:qt-mt323.dll
 0005:00000dd4       __imp_?qt_invoke@QToolBar@@UAE_NHPAUQUObject@@@Z 00489dd4     qt-mt323:qt-mt323.dll
 0005:00000dd8       __imp_?qt_invoke@QWidget@@UAE_NHPAUQUObject@@@Z 00489dd8     qt-mt323:qt-mt323.dll
 0005:00000ddc       __imp_?qt_property@QAction@@UAE_NHHPAVQVariant@@@Z 00489ddc     qt-mt323:qt-mt323.dll
 0005:00000de0       __imp_?qt_property@QGroupBox@@UAE_NHHPAVQVariant@@@Z 00489de0     qt-mt323:qt-mt323.dll
 0005:00000de4       __imp_?qt_property@QMenuBar@@UAE_NHHPAVQVariant@@@Z 00489de4     qt-mt323:qt-mt323.dll
 0005:00000de8       __imp_?qt_property@QPopupMenu@@UAE_NHHPAVQVariant@@@Z 00489de8     qt-mt323:qt-mt323.dll
 0005:00000dec       __imp_?qt_property@QToolBar@@UAE_NHHPAVQVariant@@@Z 00489dec     qt-mt323:qt-mt323.dll
 0005:00000df0       __imp_?qt_property@QWidget@@UAE_NHHPAVQVariant@@@Z 00489df0     qt-mt323:qt-mt323.dll
 0005:00000df4       __imp_?removeFrom@QAction@@UAE_NPAVQWidget@@@Z 00489df4     qt-mt323:qt-mt323.dll
 0005:00000df8       __imp_?resizeEvent@QFrame@@MAEXPAVQResizeEvent@@@Z 00489df8     qt-mt323:qt-mt323.dll
 0005:00000dfc       __imp_?resizeEvent@QGroupBox@@MAEXPAVQResizeEvent@@@Z 00489dfc     qt-mt323:qt-mt323.dll
 0005:00000e00       __imp_?resizeEvent@QMenuBar@@MAEXPAVQResizeEvent@@@Z 00489e00     qt-mt323:qt-mt323.dll
 0005:00000e04       __imp_?resizeEvent@QToolBar@@MAEXPAVQResizeEvent@@@Z 00489e04     qt-mt323:qt-mt323.dll
 0005:00000e08       __imp_?setAccel@QAction@@UAEXABVQKeySequence@@@Z 00489e08     qt-mt323:qt-mt323.dll
 0005:00000e0c       __imp_?setActiveItem@QPopupMenu@@UAEXH@Z 00489e0c     qt-mt323:qt-mt323.dll
 0005:00000e10       __imp_?setAlignment@QGroupBox@@UAEXH@Z 00489e10     qt-mt323:qt-mt323.dll
 0005:00000e14       __imp_?setCaption@QDockWindow@@UAEXABVQString@@@Z 00489e14     qt-mt323:qt-mt323.dll
 0005:00000e18       __imp_?setCheckable@QPopupMenu@@UAEX_N@Z 00489e18     qt-mt323:qt-mt323.dll
 0005:00000e1c       __imp_?setCloseMode@QDockWindow@@UAEXH@Z 00489e1c     qt-mt323:qt-mt323.dll
 0005:00000e20       __imp_?setColumnLayout@QGroupBox@@UAEXHW4Orientation@Qt@@@Z 00489e20     qt-mt323:qt-mt323.dll
 0005:00000e24       __imp_?setEnabled@QAction@@UAEX_N@Z 00489e24     qt-mt323:qt-mt323.dll
 0005:00000e28       __imp_?setEnabled@QGroupBox@@UAEX_N@Z 00489e28     qt-mt323:qt-mt323.dll
 0005:00000e2c       __imp_?setFirstItemActive@QPopupMenu@@EAEXXZ 00489e2c     qt-mt323:qt-mt323.dll
 0005:00000e30       __imp_?setFixedExtentHeight@QDockWindow@@UAEXH@Z 00489e30     qt-mt323:qt-mt323.dll
 0005:00000e34       __imp_?setFixedExtentWidth@QDockWindow@@UAEXH@Z 00489e34     qt-mt323:qt-mt323.dll
 0005:00000e38       __imp_?setFont@QPopupMenu@@UAEXABVQFont@@@Z 00489e38     qt-mt323:qt-mt323.dll
 0005:00000e3c       __imp_?setHorizontallyStretchable@QDockWindow@@UAEX_N@Z 00489e3c     qt-mt323:qt-mt323.dll
 0005:00000e40       __imp_?setIconSet@QAction@@UAEXABVQIconSet@@@Z 00489e40     qt-mt323:qt-mt323.dll
 0005:00000e44       __imp_?setId@QMenuData@@UAEXHH@Z 00489e44     qt-mt323:qt-mt323.dll
 0005:00000e48       __imp_?setLabel@QToolBar@@UAEXABVQString@@@Z 00489e48     qt-mt323:qt-mt323.dll
 0005:00000e4c       __imp_?setMenuText@QAction@@UAEXABVQString@@@Z 00489e4c     qt-mt323:qt-mt323.dll
 0005:00000e50       __imp_?setMinimumSize@QToolBar@@UAEXHH@Z 00489e50     qt-mt323:qt-mt323.dll
 0005:00000e54       __imp_?setMovingEnabled@QDockWindow@@UAEX_N@Z 00489e54     qt-mt323:qt-mt323.dll
 0005:00000e58       __imp_?setNewLine@QDockWindow@@UAEX_N@Z 00489e58     qt-mt323:qt-mt323.dll
 0005:00000e5c       __imp_?setOffset@QDockWindow@@UAEXH@Z 00489e5c     qt-mt323:qt-mt323.dll
 0005:00000e60       __imp_?setOn@QAction@@UAEX_N@Z 00489e60     qt-mt323:qt-mt323.dll
 0005:00000e64       __imp_?setOpaqueMoving@QDockWindow@@UAEX_N@Z 00489e64     qt-mt323:qt-mt323.dll
 0005:00000e68       __imp_?setOrientation@QToolBar@@UAEXW4Orientation@Qt@@@Z 00489e68     qt-mt323:qt-mt323.dll
 0005:00000e6c       __imp_?setResizeEnabled@QDockWindow@@UAEX_N@Z 00489e6c     qt-mt323:qt-mt323.dll
 0005:00000e70       __imp_?setSeparator@QMenuBar@@UAEXW4Separator@1@@Z 00489e70     qt-mt323:qt-mt323.dll
 0005:00000e74       __imp_?setStatusTip@QAction@@UAEXABVQString@@@Z 00489e74     qt-mt323:qt-mt323.dll
 0005:00000e78       __imp_?setStretchableWidget@QToolBar@@UAEXPAVQWidget@@@Z 00489e78     qt-mt323:qt-mt323.dll
 0005:00000e7c       __imp_?setText@QAction@@UAEXABVQString@@@Z 00489e7c     qt-mt323:qt-mt323.dll
 0005:00000e80       __imp_?setTitle@QGroupBox@@UAEXABVQString@@@Z 00489e80     qt-mt323:qt-mt323.dll
 0005:00000e84       __imp_?setToggleAction@QAction@@UAEX_N@Z 00489e84     qt-mt323:qt-mt323.dll
 0005:00000e88       __imp_?setToolTip@QAction@@UAEXABVQString@@@Z 00489e88     qt-mt323:qt-mt323.dll
 0005:00000e8c       __imp_?setVerticallyStretchable@QDockWindow@@UAEX_N@Z 00489e8c     qt-mt323:qt-mt323.dll
 0005:00000e90       __imp_?setWhatsThis@QAction@@UAEXABVQString@@@Z 00489e90     qt-mt323:qt-mt323.dll
 0005:00000e94       __imp_?setWidget@QDockWindow@@UAEXPAVQWidget@@@Z 00489e94     qt-mt323:qt-mt323.dll
 0005:00000e98       __imp_?show@QMenuBar@@UAEXXZ 00489e98     qt-mt323:qt-mt323.dll
 0005:00000e9c       __imp_?show@QPopupMenu@@UAEXXZ 00489e9c     qt-mt323:qt-mt323.dll
 0005:00000ea0       __imp_?show@QToolBar@@UAEXXZ 00489ea0     qt-mt323:qt-mt323.dll
 0005:00000ea4       __imp_?showEvent@QDockWindow@@MAEXPAVQShowEvent@@@Z 00489ea4     qt-mt323:qt-mt323.dll
 0005:00000ea8       __imp_?sizeHint@QDockWindow@@UBE?AVQSize@@XZ 00489ea8     qt-mt323:qt-mt323.dll
 0005:00000eac       __imp_?sizeHint@QGroupBox@@UBE?AVQSize@@XZ 00489eac     qt-mt323:qt-mt323.dll
 0005:00000eb0       __imp_?sizeHint@QMenuBar@@UBE?AVQSize@@XZ 00489eb0     qt-mt323:qt-mt323.dll
 0005:00000eb4       __imp_?sizeHint@QPopupMenu@@UBE?AVQSize@@XZ 00489eb4     qt-mt323:qt-mt323.dll
 0005:00000eb8       __imp_?styleChange@QMenuBar@@MAEXAAVQStyle@@@Z 00489eb8     qt-mt323:qt-mt323.dll
 0005:00000ebc       __imp_?styleChange@QPopupMenu@@MAEXAAVQStyle@@@Z 00489ebc     qt-mt323:qt-mt323.dll
 0005:00000ec0       __imp_?styleChange@QToolBar@@MAEXAAVQStyle@@@Z 00489ec0     qt-mt323:qt-mt323.dll
 0005:00000ec4       __imp_?timerEvent@QPopupMenu@@MAEXPAVQTimerEvent@@@Z 00489ec4     qt-mt323:qt-mt323.dll
 0005:00000ec8       __imp_?undock@QDockWindow@@UAEXPAVQWidget@@@Z 00489ec8     qt-mt323:qt-mt323.dll
 0005:00000ecc       __imp_?undock@QDockWindow@@UAEXXZ 00489ecc     qt-mt323:qt-mt323.dll
 0005:00000ed0       __imp_?updateItem@QMenuBar@@UAEXH@Z 00489ed0     qt-mt323:qt-mt323.dll
 0005:00000ed4       __imp_?updateItem@QPopupMenu@@UAEXH@Z 00489ed4     qt-mt323:qt-mt323.dll
 0005:00000ed8       __imp_??1QFont@@QAE@XZ     00489ed8     qt-mt323:qt-mt323.dll
 0005:00000edc       __imp_?setPointSize@QFont@@QAEXH@Z 00489edc     qt-mt323:qt-mt323.dll
 0005:00000ee0       __imp_?setMaximumSize@QWidget@@QAEXABVQSize@@@Z 00489ee0     qt-mt323:qt-mt323.dll
 0005:00000ee4       __imp_?font@QWidget@@QBE?AVQFont@@XZ 00489ee4     qt-mt323:qt-mt323.dll
 0005:00000ee8       __imp_??0QListView@@QAE@PAVQWidget@@PBDI@Z 00489ee8     qt-mt323:qt-mt323.dll
 0005:00000eec       __imp_??1QListView@@UAE@XZ 00489eec     qt-mt323:qt-mt323.dll
 0005:00000ef0       __imp_?header@QListView@@QBEPAVQHeader@@XZ 00489ef0     qt-mt323:qt-mt323.dll
 0005:00000ef4       __imp_?setSelectionMode@QListView@@QAEXW4SelectionMode@1@@Z 00489ef4     qt-mt323:qt-mt323.dll
 0005:00000ef8       __imp_?addChild@QScrollView@@UAEXPAVQWidget@@HH@Z 00489ef8     qt-mt323:qt-mt323.dll
 0005:00000efc       __imp_?addColumn@QListView@@UAEHABVQIconSet@@ABVQString@@H@Z 00489efc     qt-mt323:qt-mt323.dll
 0005:00000f00       __imp_?addColumn@QListView@@UAEHABVQString@@H@Z 00489f00     qt-mt323:qt-mt323.dll
 0005:00000f04       __imp_?className@QListView@@UBEPBDXZ 00489f04     qt-mt323:qt-mt323.dll
 0005:00000f08       __imp_?clear@QListView@@UAEXXZ 00489f08     qt-mt323:qt-mt323.dll
 0005:00000f0c       __imp_?clearSelection@QListView@@UAEXXZ 00489f0c     qt-mt323:qt-mt323.dll
 0005:00000f10       __imp_?contentsContextMenuEvent@QListView@@MAEXPAVQContextMenuEvent@@@Z 00489f10     qt-mt323:qt-mt323.dll
 0005:00000f14       __imp_?contentsDragEnterEvent@QListView@@MAEXPAVQDragEnterEvent@@@Z 00489f14     qt-mt323:qt-mt323.dll
 0005:00000f18       __imp_?contentsDragLeaveEvent@QListView@@MAEXPAVQDragLeaveEvent@@@Z 00489f18     qt-mt323:qt-mt323.dll
 0005:00000f1c       __imp_?contentsDragMoveEvent@QListView@@MAEXPAVQDragMoveEvent@@@Z 00489f1c     qt-mt323:qt-mt323.dll
 0005:00000f20       __imp_?contentsDropEvent@QListView@@MAEXPAVQDropEvent@@@Z 00489f20     qt-mt323:qt-mt323.dll
 0005:00000f24       __imp_?contentsMouseDoubleClickEvent@QListView@@MAEXPAVQMouseEvent@@@Z 00489f24     qt-mt323:qt-mt323.dll
 0005:00000f28       __imp_?contentsMouseMoveEvent@QListView@@MAEXPAVQMouseEvent@@@Z 00489f28     qt-mt323:qt-mt323.dll
 0005:00000f2c       __imp_?contentsMousePressEvent@QListView@@MAEXPAVQMouseEvent@@@Z 00489f2c     qt-mt323:qt-mt323.dll
 0005:00000f30       __imp_?contentsMouseReleaseEvent@QListView@@MAEXPAVQMouseEvent@@@Z 00489f30     qt-mt323:qt-mt323.dll
 0005:00000f34       __imp_?contentsWheelEvent@QScrollView@@MAEXPAVQWheelEvent@@@Z 00489f34     qt-mt323:qt-mt323.dll
 0005:00000f38       __imp_?contextMenuEvent@QScrollView@@MAEXPAVQContextMenuEvent@@@Z 00489f38     qt-mt323:qt-mt323.dll
 0005:00000f3c       __imp_?dragObject@QListView@@MAEPAVQDragObject@@XZ 00489f3c     qt-mt323:qt-mt323.dll
 0005:00000f40       __imp_?drawContents@QScrollView@@EAEXPAVQPainter@@@Z 00489f40     qt-mt323:qt-mt323.dll
 0005:00000f44       __imp_?drawContents@QScrollView@@MAEXPAVQPainter@@HHHH@Z 00489f44     qt-mt323:qt-mt323.dll
 0005:00000f48       __imp_?drawContentsOffset@QListView@@MAEXPAVQPainter@@HHHHHH@Z 00489f48     qt-mt323:qt-mt323.dll
 0005:00000f4c       __imp_?eventFilter@QListView@@UAE_NPAVQObject@@PAVQEvent@@@Z 00489f4c     qt-mt323:qt-mt323.dll
 0005:00000f50       __imp_?focusInEvent@QListView@@MAEXPAVQFocusEvent@@@Z 00489f50     qt-mt323:qt-mt323.dll
 0005:00000f54       __imp_?focusNextPrevChild@QScrollView@@MAE_N_N@Z 00489f54     qt-mt323:qt-mt323.dll
 0005:00000f58       __imp_?focusOutEvent@QListView@@MAEXPAVQFocusEvent@@@Z 00489f58     qt-mt323:qt-mt323.dll
 0005:00000f5c       __imp_?fontChange@QScrollView@@MAEXABVQFont@@@Z 00489f5c     qt-mt323:qt-mt323.dll
 0005:00000f60       __imp_?frameChanged@QScrollView@@MAEXXZ 00489f60     qt-mt323:qt-mt323.dll
 0005:00000f64       __imp_?insertItem@QListView@@UAEXPAVQListViewItem@@@Z 00489f64     qt-mt323:qt-mt323.dll
 0005:00000f68       __imp_?invertSelection@QListView@@UAEXXZ 00489f68     qt-mt323:qt-mt323.dll
 0005:00000f6c       __imp_?keyPressEvent@QListView@@MAEXPAVQKeyEvent@@@Z 00489f6c     qt-mt323:qt-mt323.dll
 0005:00000f70       __imp_?metaObject@QListView@@UBEPAVQMetaObject@@XZ 00489f70     qt-mt323:qt-mt323.dll
 0005:00000f74       __imp_?minimumSizeHint@QListView@@UBE?AVQSize@@XZ 00489f74     qt-mt323:qt-mt323.dll
 0005:00000f78       __imp_?mouseDoubleClickEvent@QScrollView@@MAEXPAVQMouseEvent@@@Z 00489f78     qt-mt323:qt-mt323.dll
 0005:00000f7c       __imp_?mouseMoveEvent@QScrollView@@MAEXPAVQMouseEvent@@@Z 00489f7c     qt-mt323:qt-mt323.dll
 0005:00000f80       __imp_?mousePressEvent@QScrollView@@MAEXPAVQMouseEvent@@@Z 00489f80     qt-mt323:qt-mt323.dll
 0005:00000f84       __imp_?mouseReleaseEvent@QScrollView@@MAEXPAVQMouseEvent@@@Z 00489f84     qt-mt323:qt-mt323.dll
 0005:00000f88       __imp_?moveChild@QScrollView@@UAEXPAVQWidget@@HH@Z 00489f88     qt-mt323:qt-mt323.dll
 0005:00000f8c       __imp_?paintEmptyArea@QListView@@MAEXPAVQPainter@@ABVQRect@@@Z 00489f8c     qt-mt323:qt-mt323.dll
 0005:00000f90       __imp_?qt_cast@QListView@@UAEPAXPBD@Z 00489f90     qt-mt323:qt-mt323.dll
 0005:00000f94       __imp_?qt_emit@QListView@@UAE_NHPAUQUObject@@@Z 00489f94     qt-mt323:qt-mt323.dll
 0005:00000f98       __imp_?qt_invoke@QListView@@UAE_NHPAUQUObject@@@Z 00489f98     qt-mt323:qt-mt323.dll
 0005:00000f9c       __imp_?qt_property@QListView@@UAE_NHHPAVQVariant@@@Z 00489f9c     qt-mt323:qt-mt323.dll
 0005:00000fa0       __imp_?removeChild@QScrollView@@UAEXPAVQObject@@@Z 00489fa0     qt-mt323:qt-mt323.dll
 0005:00000fa4       __imp_?removeColumn@QListView@@UAEXH@Z 00489fa4     qt-mt323:qt-mt323.dll
 0005:00000fa8       __imp_?removeItem@QListView@@UAEXPAVQListViewItem@@@Z 00489fa8     qt-mt323:qt-mt323.dll
 0005:00000fac       __imp_?resize@QScrollView@@UAEXHH@Z 00489fac     qt-mt323:qt-mt323.dll
 0005:00000fb0       __imp_?resizeContents@QScrollView@@UAEXHH@Z 00489fb0     qt-mt323:qt-mt323.dll
 0005:00000fb4       __imp_?resizeEvent@QListView@@MAEXPAVQResizeEvent@@@Z 00489fb4     qt-mt323:qt-mt323.dll
 0005:00000fb8       __imp_?selectAll@QListView@@UAEX_N@Z 00489fb8     qt-mt323:qt-mt323.dll
 0005:00000fbc       __imp_?setAllColumnsShowFocus@QListView@@UAEX_N@Z 00489fbc     qt-mt323:qt-mt323.dll
 0005:00000fc0       __imp_?setColumnAlignment@QListView@@UAEXHH@Z 00489fc0     qt-mt323:qt-mt323.dll
 0005:00000fc4       __imp_?setColumnText@QListView@@UAEXHABVQIconSet@@ABVQString@@@Z 00489fc4     qt-mt323:qt-mt323.dll
 0005:00000fc8       __imp_?setColumnText@QListView@@UAEXHABVQString@@@Z 00489fc8     qt-mt323:qt-mt323.dll
 0005:00000fcc       __imp_?setColumnWidth@QListView@@UAEXHH@Z 00489fcc     qt-mt323:qt-mt323.dll
 0005:00000fd0       __imp_?setColumnWidthMode@QListView@@UAEXHW4WidthMode@1@@Z 00489fd0     qt-mt323:qt-mt323.dll
 0005:00000fd4       __imp_?setContentsPos@QListView@@UAEXHH@Z 00489fd4     qt-mt323:qt-mt323.dll
 0005:00000fd8       __imp_?setCornerWidget@QScrollView@@UAEXPAVQWidget@@@Z 00489fd8     qt-mt323:qt-mt323.dll
 0005:00000fdc       __imp_?setCurrentItem@QListView@@UAEXPAVQListViewItem@@@Z 00489fdc     qt-mt323:qt-mt323.dll
 0005:00000fe0       __imp_?setDefaultRenameAction@QListView@@UAEXW4RenameAction@1@@Z 00489fe0     qt-mt323:qt-mt323.dll
 0005:00000fe4       __imp_?setDragAutoScroll@QScrollView@@UAEX_N@Z 00489fe4     qt-mt323:qt-mt323.dll
 0005:00000fe8       __imp_?setEnabled@QScrollView@@UAEX_N@Z 00489fe8     qt-mt323:qt-mt323.dll
 0005:00000fec       __imp_?setFont@QListView@@UAEXABVQFont@@@Z 00489fec     qt-mt323:qt-mt323.dll
 0005:00000ff0       __imp_?setHBarGeometry@QScrollView@@MAEXAAVQScrollBar@@HHHH@Z 00489ff0     qt-mt323:qt-mt323.dll
 0005:00000ff4       __imp_?setHScrollBarMode@QScrollView@@UAEXW4ScrollBarMode@1@@Z 00489ff4     qt-mt323:qt-mt323.dll
 0005:00000ff8       __imp_?setItemMargin@QListView@@UAEXH@Z 00489ff8     qt-mt323:qt-mt323.dll
 0005:00000ffc       __imp_?setMargins@QScrollView@@MAEXHHHH@Z 00489ffc     qt-mt323:qt-mt323.dll
 0005:00001000       __imp_?setMultiSelection@QListView@@UAEX_N@Z 0048a000     qt-mt323:qt-mt323.dll
 0005:00001004       __imp_?setOpen@QListView@@UAEXPAVQListViewItem@@_N@Z 0048a004     qt-mt323:qt-mt323.dll
 0005:00001008       __imp_?setPalette@QListView@@UAEXABVQPalette@@@Z 0048a008     qt-mt323:qt-mt323.dll
 0005:0000100c       __imp_?setResizeMode@QListView@@UAEXW4ResizeMode@1@@Z 0048a00c     qt-mt323:qt-mt323.dll
 0005:00001010       __imp_?setResizePolicy@QScrollView@@UAEXW4ResizePolicy@1@@Z 0048a010     qt-mt323:qt-mt323.dll
 0005:00001014       __imp_?setRootIsDecorated@QListView@@UAEX_N@Z 0048a014     qt-mt323:qt-mt323.dll
 0005:00001018       __imp_?setSelected@QListView@@UAEXPAVQListViewItem@@_N@Z 0048a018     qt-mt323:qt-mt323.dll
 0005:0000101c       __imp_?setShowSortIndicator@QListView@@UAEX_N@Z 0048a01c     qt-mt323:qt-mt323.dll
 0005:00001020       __imp_?setShowToolTips@QListView@@UAEX_N@Z 0048a020     qt-mt323:qt-mt323.dll
 0005:00001024       __imp_?setSorting@QListView@@UAEXH_N@Z 0048a024     qt-mt323:qt-mt323.dll
 0005:00001028       __imp_?setTreeStepSize@QListView@@UAEXH@Z 0048a028     qt-mt323:qt-mt323.dll
 0005:0000102c       __imp_?setVBarGeometry@QScrollView@@MAEXAAVQScrollBar@@HHHH@Z 0048a02c     qt-mt323:qt-mt323.dll
 0005:00001030       __imp_?setVScrollBarMode@QScrollView@@UAEXW4ScrollBarMode@1@@Z 0048a030     qt-mt323:qt-mt323.dll
 0005:00001034       __imp_?show@QListView@@UAEXXZ 0048a034     qt-mt323:qt-mt323.dll
 0005:00001038       __imp_?showEvent@QListView@@MAEXPAVQShowEvent@@@Z 0048a038     qt-mt323:qt-mt323.dll
 0005:0000103c       __imp_?sizeHint@QListView@@UBE?AVQSize@@XZ 0048a03c     qt-mt323:qt-mt323.dll
 0005:00001040       __imp_?sort@QListView@@UAEXXZ 0048a040     qt-mt323:qt-mt323.dll
 0005:00001044       __imp_?startDrag@QListView@@MAEXXZ 0048a044     qt-mt323:qt-mt323.dll
 0005:00001048       __imp_?styleChange@QListView@@MAEXAAVQStyle@@@Z 0048a048     qt-mt323:qt-mt323.dll
 0005:0000104c       __imp_?takeItem@QListView@@UAEXPAVQListViewItem@@@Z 0048a04c     qt-mt323:qt-mt323.dll
 0005:00001050       __imp_?viewportContextMenuEvent@QScrollView@@MAEXPAVQContextMenuEvent@@@Z 0048a050     qt-mt323:qt-mt323.dll
 0005:00001054       __imp_?viewportDragEnterEvent@QScrollView@@MAEXPAVQDragEnterEvent@@@Z 0048a054     qt-mt323:qt-mt323.dll
 0005:00001058       __imp_?viewportDragLeaveEvent@QScrollView@@MAEXPAVQDragLeaveEvent@@@Z 0048a058     qt-mt323:qt-mt323.dll
 0005:0000105c       __imp_?viewportDragMoveEvent@QScrollView@@MAEXPAVQDragMoveEvent@@@Z 0048a05c     qt-mt323:qt-mt323.dll
 0005:00001060       __imp_?viewportDropEvent@QScrollView@@MAEXPAVQDropEvent@@@Z 0048a060     qt-mt323:qt-mt323.dll
 0005:00001064       __imp_?viewportMouseDoubleClickEvent@QScrollView@@MAEXPAVQMouseEvent@@@Z 0048a064     qt-mt323:qt-mt323.dll
 0005:00001068       __imp_?viewportMouseMoveEvent@QScrollView@@MAEXPAVQMouseEvent@@@Z 0048a068     qt-mt323:qt-mt323.dll
 0005:0000106c       __imp_?viewportMousePressEvent@QScrollView@@MAEXPAVQMouseEvent@@@Z 0048a06c     qt-mt323:qt-mt323.dll
 0005:00001070       __imp_?viewportMouseReleaseEvent@QScrollView@@MAEXPAVQMouseEvent@@@Z 0048a070     qt-mt323:qt-mt323.dll
 0005:00001074       __imp_?viewportPaintEvent@QScrollView@@MAEXPAVQPaintEvent@@@Z 0048a074     qt-mt323:qt-mt323.dll
 0005:00001078       __imp_?viewportResizeEvent@QListView@@MAEXPAVQResizeEvent@@@Z 0048a078     qt-mt323:qt-mt323.dll
 0005:0000107c       __imp_?viewportWheelEvent@QScrollView@@MAEXPAVQWheelEvent@@@Z 0048a07c     qt-mt323:qt-mt323.dll
 0005:00001080       __imp_?wheelEvent@QScrollView@@MAEXPAVQWheelEvent@@@Z 0048a080     qt-mt323:qt-mt323.dll
 0005:00001084       __imp_?windowActivationChange@QListView@@MAEX_N@Z 0048a084     qt-mt323:qt-mt323.dll
 0005:00001088       __imp_??0QListBox@@QAE@PAVQWidget@@PBDI@Z 0048a088     qt-mt323:qt-mt323.dll
 0005:0000108c       __imp_??1QListBox@@UAE@XZ  0048a08c     qt-mt323:qt-mt323.dll
 0005:00001090       __imp_?className@QListBox@@UBEPBDXZ 0048a090     qt-mt323:qt-mt323.dll
 0005:00001094       __imp_?clearSelection@QListBox@@UAEXXZ 0048a094     qt-mt323:qt-mt323.dll
 0005:00001098       __imp_?contentsContextMenuEvent@QListBox@@MAEXPAVQContextMenuEvent@@@Z 0048a098     qt-mt323:qt-mt323.dll
 0005:0000109c       __imp_?contentsDragEnterEvent@QScrollView@@MAEXPAVQDragEnterEvent@@@Z 0048a09c     qt-mt323:qt-mt323.dll
 0005:000010a0       __imp_?contentsDragLeaveEvent@QScrollView@@MAEXPAVQDragLeaveEvent@@@Z 0048a0a0     qt-mt323:qt-mt323.dll
 0005:000010a4       __imp_?contentsDragMoveEvent@QScrollView@@MAEXPAVQDragMoveEvent@@@Z 0048a0a4     qt-mt323:qt-mt323.dll
 0005:000010a8       __imp_?contentsDropEvent@QScrollView@@MAEXPAVQDropEvent@@@Z 0048a0a8     qt-mt323:qt-mt323.dll
 0005:000010ac       __imp_?contentsMouseDoubleClickEvent@QScrollView@@MAEXPAVQMouseEvent@@@Z 0048a0ac     qt-mt323:qt-mt323.dll
 0005:000010b0       __imp_?contentsMouseMoveEvent@QScrollView@@MAEXPAVQMouseEvent@@@Z 0048a0b0     qt-mt323:qt-mt323.dll
 0005:000010b4       __imp_?contentsMousePressEvent@QScrollView@@MAEXPAVQMouseEvent@@@Z 0048a0b4     qt-mt323:qt-mt323.dll
 0005:000010b8       __imp_?contentsMouseReleaseEvent@QScrollView@@MAEXPAVQMouseEvent@@@Z 0048a0b8     qt-mt323:qt-mt323.dll
 0005:000010bc       __imp_?drawContentsOffset@QScrollView@@MAEXPAVQPainter@@HHHHHH@Z 0048a0bc     qt-mt323:qt-mt323.dll
 0005:000010c0       __imp_?ensureCurrentVisible@QListBox@@UAEXXZ 0048a0c0     qt-mt323:qt-mt323.dll
 0005:000010c4       __imp_?eventFilter@QListBox@@MAE_NPAVQObject@@PAVQEvent@@@Z 0048a0c4     qt-mt323:qt-mt323.dll
 0005:000010c8       __imp_?focusInEvent@QListBox@@MAEXPAVQFocusEvent@@@Z 0048a0c8     qt-mt323:qt-mt323.dll
 0005:000010cc       __imp_?focusOutEvent@QListBox@@MAEXPAVQFocusEvent@@@Z 0048a0cc     qt-mt323:qt-mt323.dll
 0005:000010d0       __imp_?invertSelection@QListBox@@UAEXXZ 0048a0d0     qt-mt323:qt-mt323.dll
 0005:000010d4       __imp_?keyPressEvent@QListBox@@MAEXPAVQKeyEvent@@@Z 0048a0d4     qt-mt323:qt-mt323.dll
 0005:000010d8       __imp_?metaObject@QListBox@@UBEPAVQMetaObject@@XZ 0048a0d8     qt-mt323:qt-mt323.dll
 0005:000010dc       __imp_?minimumSizeHint@QListBox@@UBE?AVQSize@@XZ 0048a0dc     qt-mt323:qt-mt323.dll
 0005:000010e0       __imp_?mouseDoubleClickEvent@QListBox@@MAEXPAVQMouseEvent@@@Z 0048a0e0     qt-mt323:qt-mt323.dll
 0005:000010e4       __imp_?mouseMoveEvent@QListBox@@MAEXPAVQMouseEvent@@@Z 0048a0e4     qt-mt323:qt-mt323.dll
 0005:000010e8       __imp_?mousePressEvent@QListBox@@MAEXPAVQMouseEvent@@@Z 0048a0e8     qt-mt323:qt-mt323.dll
 0005:000010ec       __imp_?mouseReleaseEvent@QListBox@@MAEXPAVQMouseEvent@@@Z 0048a0ec     qt-mt323:qt-mt323.dll
 0005:000010f0       __imp_?paintCell@QListBox@@MAEXPAVQPainter@@HH@Z 0048a0f0     qt-mt323:qt-mt323.dll
 0005:000010f4       __imp_?qt_cast@QListBox@@UAEPAXPBD@Z 0048a0f4     qt-mt323:qt-mt323.dll
 0005:000010f8       __imp_?qt_emit@QListBox@@UAE_NHPAUQUObject@@@Z 0048a0f8     qt-mt323:qt-mt323.dll
 0005:000010fc       __imp_?qt_invoke@QListBox@@UAE_NHPAUQUObject@@@Z 0048a0fc     qt-mt323:qt-mt323.dll
 0005:00001100       __imp_?qt_property@QListBox@@UAE_NHHPAVQVariant@@@Z 0048a100     qt-mt323:qt-mt323.dll
 0005:00001104       __imp_?resizeEvent@QListBox@@MAEXPAVQResizeEvent@@@Z 0048a104     qt-mt323:qt-mt323.dll
 0005:00001108       __imp_?selectAll@QListBox@@UAEX_N@Z 0048a108     qt-mt323:qt-mt323.dll
 0005:0000110c       __imp_?setBottomItem@QListBox@@UAEXH@Z 0048a10c     qt-mt323:qt-mt323.dll
 0005:00001110       __imp_?setColumnMode@QListBox@@UAEXH@Z 0048a110     qt-mt323:qt-mt323.dll
 0005:00001114       __imp_?setColumnMode@QListBox@@UAEXW4LayoutMode@1@@Z 0048a114     qt-mt323:qt-mt323.dll
 0005:00001118       __imp_?setContentsPos@QScrollView@@UAEXHH@Z 0048a118     qt-mt323:qt-mt323.dll
 0005:0000111c       __imp_?setCurrentItem@QListBox@@UAEXH@Z 0048a11c     qt-mt323:qt-mt323.dll
 0005:00001120       __imp_?setCurrentItem@QListBox@@UAEXPAVQListBoxItem@@@Z 0048a120     qt-mt323:qt-mt323.dll
 0005:00001124       __imp_?setFont@QListBox@@UAEXABVQFont@@@Z 0048a124     qt-mt323:qt-mt323.dll
 0005:00001128       __imp_?setRowMode@QListBox@@UAEXH@Z 0048a128     qt-mt323:qt-mt323.dll
 0005:0000112c       __imp_?setRowMode@QListBox@@UAEXW4LayoutMode@1@@Z 0048a12c     qt-mt323:qt-mt323.dll
 0005:00001130       __imp_?setSelected@QListBox@@UAEXPAVQListBoxItem@@_N@Z 0048a130     qt-mt323:qt-mt323.dll
 0005:00001134       __imp_?setSelectionMode@QListBox@@UAEXW4SelectionMode@1@@Z 0048a134     qt-mt323:qt-mt323.dll
 0005:00001138       __imp_?setTopItem@QListBox@@UAEXH@Z 0048a138     qt-mt323:qt-mt323.dll
 0005:0000113c       __imp_?setVariableHeight@QListBox@@UAEX_N@Z 0048a13c     qt-mt323:qt-mt323.dll
 0005:00001140       __imp_?setVariableWidth@QListBox@@UAEX_N@Z 0048a140     qt-mt323:qt-mt323.dll
 0005:00001144       __imp_?show@QScrollView@@UAEXXZ 0048a144     qt-mt323:qt-mt323.dll
 0005:00001148       __imp_?showEvent@QListBox@@MAEXPAVQShowEvent@@@Z 0048a148     qt-mt323:qt-mt323.dll
 0005:0000114c       __imp_?sizeHint@QListBox@@UBE?AVQSize@@XZ 0048a14c     qt-mt323:qt-mt323.dll
 0005:00001150       __imp_?styleChange@QScrollView@@UAEXAAVQStyle@@@Z 0048a150     qt-mt323:qt-mt323.dll
 0005:00001154       __imp_?viewportPaintEvent@QListBox@@UAEXPAVQPaintEvent@@@Z 0048a154     qt-mt323:qt-mt323.dll
 0005:00001158       __imp_?viewportResizeEvent@QScrollView@@MAEXPAVQResizeEvent@@@Z 0048a158     qt-mt323:qt-mt323.dll
 0005:0000115c       __imp_?windowActivationChange@QListBox@@MAEX_N@Z 0048a15c     qt-mt323:qt-mt323.dll
 0005:00001160       __imp_?get@QUType_ptr@@QAEAAPAXPAUQUObject@@@Z 0048a160     qt-mt323:qt-mt323.dll
 0005:00001164       __imp_?get@QUType_int@@QAEAAHPAUQUObject@@@Z 0048a164     qt-mt323:qt-mt323.dll
 0005:00001168       __imp_?static_QUType_ptr@@3UQUType_ptr@@A 0048a168     qt-mt323:qt-mt323.dll
 0005:0000116c       __imp_?static_QUType_int@@3UQUType_int@@A 0048a16c     qt-mt323:qt-mt323.dll
 0005:00001170       __imp_?qt_cast@QMainWindow@@UAEPAXPBD@Z 0048a170     qt-mt323:qt-mt323.dll
 0005:00001174       __imp_?qt_invoke@QMainWindow@@UAE_NHPAUQUObject@@@Z 0048a174     qt-mt323:qt-mt323.dll
 0005:00001178       __imp_?qt_emit@QMainWindow@@UAE_NHPAUQUObject@@@Z 0048a178     qt-mt323:qt-mt323.dll
 0005:0000117c       __imp_?qt_property@QMainWindow@@UAE_NHHPAVQVariant@@@Z 0048a17c     qt-mt323:qt-mt323.dll
 0005:00001180       __imp_?staticMetaObject@QMainWindow@@SAPAVQMetaObject@@XZ 0048a180     qt-mt323:qt-mt323.dll
 0005:00001184       __imp_?signalsBlocked@QObject@@QBE_NXZ 0048a184     qt-mt323:qt-mt323.dll
 0005:00001188       __imp_?receivers@QObject@@IBEPAVQConnectionList@@H@Z 0048a188     qt-mt323:qt-mt323.dll
 0005:0000118c       __imp_?activate_signal@QObject@@IAEXPAVQConnectionList@@PAUQUObject@@@Z 0048a18c     qt-mt323:qt-mt323.dll
 0005:00001190       __imp_??0QUObject@@QAE@XZ  0048a190     qt-mt323:qt-mt323.dll
 0005:00001194       __imp_??1QUObject@@QAE@XZ  0048a194     qt-mt323:qt-mt323.dll
 0005:00001198       __imp_?set@QUType_ptr@@QAEXPAUQUObject@@PBX@Z 0048a198     qt-mt323:qt-mt323.dll
 0005:0000119c       __imp_?get@QUType_bool@@QAEAA_NPAUQUObject@@@Z 0048a19c     qt-mt323:qt-mt323.dll
 0005:000011a0       __imp_?static_QUType_bool@@3UQUType_bool@@A 0048a1a0     qt-mt323:qt-mt323.dll
 0005:000011a4       __imp_?static_QUType_varptr@@3UQUType_varptr@@A 0048a1a4     qt-mt323:qt-mt323.dll
 0005:000011a8       __imp_?staticMetaObject@QWidget@@SAPAVQMetaObject@@XZ 0048a1a8     qt-mt323:qt-mt323.dll
 0005:000011ac       __imp_?activate_signal@QObject@@IAEXHH@Z 0048a1ac     qt-mt323:qt-mt323.dll
 0005:000011b0       __imp_?activate_signal_bool@QObject@@IAEXH_N@Z 0048a1b0     qt-mt323:qt-mt323.dll
 0005:000011b4       __imp_?staticMetaObject@QProcess@@SAPAVQMetaObject@@XZ 0048a1b4     qt-mt323:qt-mt323.dll
 0005:000011b8       __imp_?raise@QWidget@@QAEXXZ 0048a1b8     qt-mt323:qt-mt323.dll
 0005:000011bc       __imp_??0QApplication@@QAE@AAHPAPADW4Type@0@@Z 0048a1bc     qt-mt323:qt-mt323.dll
 0005:000011c0       __imp_??1QApplication@@UAE@XZ 0048a1c0     qt-mt323:qt-mt323.dll
 0005:000011c4       __imp_?commitData@QApplication@@UAEXAAVQSessionManager@@@Z 0048a1c4     qt-mt323:qt-mt323.dll
 0005:000011c8       __imp_?event@QApplication@@MAE_NPAVQEvent@@@Z 0048a1c8     qt-mt323:qt-mt323.dll
 0005:000011cc       __imp_?notify@QApplication@@UAE_NPAVQObject@@PAVQEvent@@@Z 0048a1cc     qt-mt323:qt-mt323.dll
 0005:000011d0       __imp_?polish@QApplication@@UAEXPAVQWidget@@@Z 0048a1d0     qt-mt323:qt-mt323.dll
 0005:000011d4       __imp_?saveState@QApplication@@UAEXAAVQSessionManager@@@Z 0048a1d4     qt-mt323:qt-mt323.dll
 0005:000011d8       __imp_?main_widget@QApplication@@0PAVQWidget@@A 0048a1d8     qt-mt323:qt-mt323.dll
 0005:000011dc       __imp_??1QCString@@UAE@XZ  0048a1dc     qt-mt323:qt-mt323.dll
 0005:000011e0       __imp_?local8Bit@QString@@QBE?AVQCString@@XZ 0048a1e0     qt-mt323:qt-mt323.dll
 0005:000011e4       __imp_?fromUcs2@QString@@SA?AV1@PBG@Z 0048a1e4     qt-mt323:qt-mt323.dll
 0005:000011e8       __imp_?ucs2@QString@@QBEPBGXZ 0048a1e8     qt-mt323:qt-mt323.dll
 0005:000011ec       __imp_?winEventFilter@QApplication@@UAE_NPAUtagMSG@@@Z 0048a1ec     qt-mt323:qt-mt323.dll
 0005:000011f0       __imp_?qt_cast@QApplication@@UAEPAXPBD@Z 0048a1f0     qt-mt323:qt-mt323.dll
 0005:000011f4       __imp_?qt_invoke@QApplication@@UAE_NHPAUQUObject@@@Z 0048a1f4     qt-mt323:qt-mt323.dll
 0005:000011f8       __imp_?qt_emit@QApplication@@UAE_NHPAUQUObject@@@Z 0048a1f8     qt-mt323:qt-mt323.dll
 0005:000011fc       __imp_?qt_property@QApplication@@UAE_NHHPAVQVariant@@@Z 0048a1fc     qt-mt323:qt-mt323.dll
 0005:00001200       __imp_?staticMetaObject@QApplication@@SAPAVQMetaObject@@XZ 0048a200     qt-mt323:qt-mt323.dll
 0005:00001204       __imp_?set@QUType_bool@@QAEXPAUQUObject@@_N@Z 0048a204     qt-mt323:qt-mt323.dll
 0005:00001208       __imp_?winEvent@QWidget@@MAE_NPAUtagMSG@@@Z 0048a208     qt-mt323:qt-mt323.dll
 0005:0000120c       __imp_?wheelEvent@QWidget@@MAEXPAVQWheelEvent@@@Z 0048a20c     qt-mt323:qt-mt323.dll
 0005:00001210       __imp_?updateMask@QWidget@@MAEXXZ 0048a210     qt-mt323:qt-mt323.dll
 0005:00001214       __imp_?unsetCursor@QWidget@@UAEXXZ 0048a214     qt-mt323:qt-mt323.dll
 0005:00001218       __imp_?timerEvent@QObject@@MAEXPAVQTimerEvent@@@Z 0048a218     qt-mt323:qt-mt323.dll
 0005:0000121c       __imp_?tabletEvent@QWidget@@MAEXPAVQTabletEvent@@@Z 0048a21c     qt-mt323:qt-mt323.dll
 0005:00001220       __imp_?styleChange@QWidget@@MAEXAAVQStyle@@@Z 0048a220     qt-mt323:qt-mt323.dll
 0005:00001224       __imp_?sizePolicy@QWidget@@UBE?AVQSizePolicy@@XZ 0048a224     qt-mt323:qt-mt323.dll
 0005:00001228       __imp_?sizeHint@QDialog@@UBE?AVQSize@@XZ 0048a228     qt-mt323:qt-mt323.dll
 0005:0000122c       __imp_?showNormal@QWidget@@UAEXXZ 0048a22c     qt-mt323:qt-mt323.dll
 0005:00001230       __imp_?showMinimized@QWidget@@UAEXXZ 0048a230     qt-mt323:qt-mt323.dll
 0005:00001234       __imp_?showMaximized@QWidget@@UAEXXZ 0048a234     qt-mt323:qt-mt323.dll
 0005:00001238       __imp_?showEvent@QWidget@@MAEXPAVQShowEvent@@@Z 0048a238     qt-mt323:qt-mt323.dll
 0005:0000123c       __imp_?show@QDialog@@UAEXXZ 0048a23c     qt-mt323:qt-mt323.dll
 0005:00001240       __imp_?setWState@QWidget@@MAEXI@Z 0048a240     qt-mt323:qt-mt323.dll
 0005:00001244       __imp_?setWFlags@QWidget@@MAEXI@Z 0048a244     qt-mt323:qt-mt323.dll
 0005:00001248       __imp_?setUpdatesEnabled@QWidget@@UAEX_N@Z 0048a248     qt-mt323:qt-mt323.dll
 0005:0000124c       __imp_?setSizePolicy@QWidget@@UAEXVQSizePolicy@@@Z 0048a24c     qt-mt323:qt-mt323.dll
 0005:00001250       __imp_?setSizeIncrement@QWidget@@UAEXHH@Z 0048a250     qt-mt323:qt-mt323.dll
 0005:00001254       __imp_?setResolution@QPaintDevice@@UAEXH@Z 0048a254     qt-mt323:qt-mt323.dll
 0005:00001258       __imp_?setProperty@QObject@@UAE_NPBDABVQVariant@@@Z 0048a258     qt-mt323:qt-mt323.dll
 0005:0000125c       __imp_?setPaletteBackgroundPixmap@QWidget@@UAEXABVQPixmap@@@Z 0048a25c     qt-mt323:qt-mt323.dll
 0005:00001260       __imp_?setPaletteBackgroundColor@QWidget@@UAEXABVQColor@@@Z 0048a260     qt-mt323:qt-mt323.dll
 0005:00001264       __imp_?setPalette@QWidget@@UAEXABVQPalette@@@Z 0048a264     qt-mt323:qt-mt323.dll
 0005:00001268       __imp_?setName@QWidget@@UAEXPBD@Z 0048a268     qt-mt323:qt-mt323.dll
 0005:0000126c       __imp_?setMouseTracking@QWidget@@UAEX_N@Z 0048a26c     qt-mt323:qt-mt323.dll
 0005:00001270       __imp_?setMinimumSize@QWidget@@UAEXHH@Z 0048a270     qt-mt323:qt-mt323.dll
 0005:00001274       __imp_?setMicroFocusHint@QWidget@@MAEXHHHH_NPAVQFont@@@Z 0048a274     qt-mt323:qt-mt323.dll
 0005:00001278       __imp_?setMaximumSize@QWidget@@UAEXHH@Z 0048a278     qt-mt323:qt-mt323.dll
 0005:0000127c       __imp_?setMask@QWidget@@UAEXABVQRegion@@@Z 0048a27c     qt-mt323:qt-mt323.dll
 0005:00001280       __imp_?setMask@QWidget@@UAEXABVQBitmap@@@Z 0048a280     qt-mt323:qt-mt323.dll
 0005:00001284       __imp_?setKeyCompression@QWidget@@MAEX_N@Z 0048a284     qt-mt323:qt-mt323.dll
 0005:00001288       __imp_?setIconText@QWidget@@UAEXABVQString@@@Z 0048a288     qt-mt323:qt-mt323.dll
 0005:0000128c       __imp_?setIcon@QWidget@@UAEXABVQPixmap@@@Z 0048a28c     qt-mt323:qt-mt323.dll
 0005:00001290       __imp_?setGeometry@QDialog@@UAEXHHHH@Z 0048a290     qt-mt323:qt-mt323.dll
 0005:00001294       __imp_?setGeometry@QDialog@@UAEXABVQRect@@@Z 0048a294     qt-mt323:qt-mt323.dll
 0005:00001298       __imp_?setFont@QWidget@@UAEXABVQFont@@@Z 0048a298     qt-mt323:qt-mt323.dll
 0005:0000129c       __imp_?setFocusProxy@QWidget@@UAEXPAV1@@Z 0048a29c     qt-mt323:qt-mt323.dll
 0005:000012a0       __imp_?setFocusPolicy@QWidget@@UAEXW4FocusPolicy@1@@Z 0048a2a0     qt-mt323:qt-mt323.dll
 0005:000012a4       __imp_?setFocus@QWidget@@UAEXXZ 0048a2a4     qt-mt323:qt-mt323.dll
 0005:000012a8       __imp_?setErasePixmap@QWidget@@UAEXABVQPixmap@@@Z 0048a2a8     qt-mt323:qt-mt323.dll
 0005:000012ac       __imp_?setEraseColor@QWidget@@UAEXABVQColor@@@Z 0048a2ac     qt-mt323:qt-mt323.dll
 0005:000012b0       __imp_?setEnabled@QWidget@@UAEX_N@Z 0048a2b0     qt-mt323:qt-mt323.dll
 0005:000012b4       __imp_?setCursor@QWidget@@UAEXABVQCursor@@@Z 0048a2b4     qt-mt323:qt-mt323.dll
 0005:000012b8       __imp_?setCaption@QWidget@@UAEXABVQString@@@Z 0048a2b8     qt-mt323:qt-mt323.dll
 0005:000012bc       __imp_?setBackgroundPixmap@QWidget@@UAEXABVQPixmap@@@Z 0048a2bc     qt-mt323:qt-mt323.dll
 0005:000012c0       __imp_?setBackgroundOrigin@QWidget@@UAEXW4BackgroundOrigin@1@@Z 0048a2c0     qt-mt323:qt-mt323.dll
 0005:000012c4       __imp_?setBackgroundMode@QWidget@@UAEXW4BackgroundMode@Qt@@@Z 0048a2c4     qt-mt323:qt-mt323.dll
 0005:000012c8       __imp_?setBackgroundColor@QWidget@@UAEXABVQColor@@@Z 0048a2c8     qt-mt323:qt-mt323.dll
 0005:000012cc       __imp_?setAutoMask@QWidget@@UAEX_N@Z 0048a2cc     qt-mt323:qt-mt323.dll
 0005:000012d0       __imp_?setActiveWindow@QWidget@@UAEXXZ 0048a2d0     qt-mt323:qt-mt323.dll
 0005:000012d4       __imp_?setAcceptDrops@QWidget@@UAEX_N@Z 0048a2d4     qt-mt323:qt-mt323.dll
 0005:000012d8       __imp_?resolution@QPaintDevice@@UBEHXZ 0048a2d8     qt-mt323:qt-mt323.dll
 0005:000012dc       __imp_?resizeEvent@QDialog@@MAEXPAVQResizeEvent@@@Z 0048a2dc     qt-mt323:qt-mt323.dll
 0005:000012e0       __imp_?resize@QDialog@@UAEXHH@Z 0048a2e0     qt-mt323:qt-mt323.dll
 0005:000012e4       __imp_?reparent@QWidget@@UAEXPAV1@IABVQPoint@@_N@Z 0048a2e4     qt-mt323:qt-mt323.dll
 0005:000012e8       __imp_?removeChild@QObject@@UAEXPAV1@@Z 0048a2e8     qt-mt323:qt-mt323.dll
 0005:000012ec       __imp_?reject@QDialog@@MAEXXZ 0048a2ec     qt-mt323:qt-mt323.dll
 0005:000012f0       __imp_?property@QObject@@UBE?AVQVariant@@PBD@Z 0048a2f0     qt-mt323:qt-mt323.dll
 0005:000012f4       __imp_?polish@QWidget@@UAEXXZ 0048a2f4     qt-mt323:qt-mt323.dll
 0005:000012f8       __imp_?paletteChange@QWidget@@MAEXABVQPalette@@@Z 0048a2f8     qt-mt323:qt-mt323.dll
 0005:000012fc       __imp_?paintEvent@QWidget@@MAEXPAVQPaintEvent@@@Z 0048a2fc     qt-mt323:qt-mt323.dll
 0005:00001300       __imp_?moveEvent@QWidget@@MAEXPAVQMoveEvent@@@Z 0048a300     qt-mt323:qt-mt323.dll
 0005:00001304       __imp_?move@QDialog@@UAEXHH@Z 0048a304     qt-mt323:qt-mt323.dll
 0005:00001308       __imp_?mouseReleaseEvent@QWidget@@MAEXPAVQMouseEvent@@@Z 0048a308     qt-mt323:qt-mt323.dll
 0005:0000130c       __imp_?mousePressEvent@QWidget@@MAEXPAVQMouseEvent@@@Z 0048a30c     qt-mt323:qt-mt323.dll
 0005:00001310       __imp_?mouseMoveEvent@QWidget@@MAEXPAVQMouseEvent@@@Z 0048a310     qt-mt323:qt-mt323.dll
 0005:00001314       __imp_?mouseDoubleClickEvent@QWidget@@MAEXPAVQMouseEvent@@@Z 0048a314     qt-mt323:qt-mt323.dll
 0005:00001318       __imp_?minimumSizeHint@QDialog@@UBE?AVQSize@@XZ 0048a318     qt-mt323:qt-mt323.dll
 0005:0000131c       __imp_?metric@QWidget@@MBEHH@Z 0048a31c     qt-mt323:qt-mt323.dll
 0005:00001320       __imp_?leaveEvent@QWidget@@MAEXPAVQEvent@@@Z 0048a320     qt-mt323:qt-mt323.dll
 0005:00001324       __imp_?keyReleaseEvent@QWidget@@MAEXPAVQKeyEvent@@@Z 0048a324     qt-mt323:qt-mt323.dll
 0005:00001328       __imp_?keyPressEvent@QDialog@@MAEXPAVQKeyEvent@@@Z 0048a328     qt-mt323:qt-mt323.dll
 0005:0000132c       __imp_?insertChild@QObject@@UAEXPAV1@@Z 0048a32c     qt-mt323:qt-mt323.dll
 0005:00001330       __imp_?imStartEvent@QWidget@@MAEXPAVQIMEvent@@@Z 0048a330     qt-mt323:qt-mt323.dll
 0005:00001334       __imp_?imEndEvent@QWidget@@MAEXPAVQIMEvent@@@Z 0048a334     qt-mt323:qt-mt323.dll
 0005:00001338       __imp_?imComposeEvent@QWidget@@MAEXPAVQIMEvent@@@Z 0048a338     qt-mt323:qt-mt323.dll
 0005:0000133c       __imp_?hideEvent@QWidget@@MAEXPAVQHideEvent@@@Z 0048a33c     qt-mt323:qt-mt323.dll
 0005:00001340       __imp_?hide@QDialog@@UAEXXZ 0048a340     qt-mt323:qt-mt323.dll
 0005:00001344       __imp_?heightForWidth@QWidget@@UBEHH@Z 0048a344     qt-mt323:qt-mt323.dll
 0005:00001348       __imp_?handle@QPaintDevice@@UBEPAUHDC__@@XZ 0048a348     qt-mt323:qt-mt323.dll
 0005:0000134c       __imp_?fontMet@QPaintDevice@@MBEHPAVQFont@@HPBDH@Z 0048a34c     qt-mt323:qt-mt323.dll
 0005:00001350       __imp_?fontInf@QPaintDevice@@MBEHPAVQFont@@H@Z 0048a350     qt-mt323:qt-mt323.dll
 0005:00001354       __imp_?fontChange@QWidget@@MAEXABVQFont@@@Z 0048a354     qt-mt323:qt-mt323.dll
 0005:00001358       __imp_?focusOutEvent@QWidget@@MAEXPAVQFocusEvent@@@Z 0048a358     qt-mt323:qt-mt323.dll
 0005:0000135c       __imp_?focusNextPrevChild@QWidget@@MAE_N_N@Z 0048a35c     qt-mt323:qt-mt323.dll
 0005:00001360       __imp_?focusInEvent@QWidget@@MAEXPAVQFocusEvent@@@Z 0048a360     qt-mt323:qt-mt323.dll
 0005:00001364       __imp_?eventFilter@QDialog@@MAE_NPAVQObject@@PAVQEvent@@@Z 0048a364     qt-mt323:qt-mt323.dll
 0005:00001368       __imp_?event@QWidget@@MAE_NPAVQEvent@@@Z 0048a368     qt-mt323:qt-mt323.dll
 0005:0000136c       __imp_?enterEvent@QWidget@@MAEXPAVQEvent@@@Z 0048a36c     qt-mt323:qt-mt323.dll
 0005:00001370       __imp_?enabledChange@QWidget@@MAEX_N@Z 0048a370     qt-mt323:qt-mt323.dll
 0005:00001374       __imp_?dropEvent@QWidget@@MAEXPAVQDropEvent@@@Z 0048a374     qt-mt323:qt-mt323.dll
 0005:00001378       __imp_?dragMoveEvent@QWidget@@MAEXPAVQDragMoveEvent@@@Z 0048a378     qt-mt323:qt-mt323.dll
 0005:0000137c       __imp_?dragLeaveEvent@QWidget@@MAEXPAVQDragLeaveEvent@@@Z 0048a37c     qt-mt323:qt-mt323.dll
 0005:00001380       __imp_?dragEnterEvent@QWidget@@MAEXPAVQDragEnterEvent@@@Z 0048a380     qt-mt323:qt-mt323.dll
 0005:00001384       __imp_?done@QDialog@@MAEXH@Z 0048a384     qt-mt323:qt-mt323.dll
 0005:00001388       __imp_?disconnectNotify@QObject@@MAEXPBD@Z 0048a388     qt-mt323:qt-mt323.dll
 0005:0000138c       __imp_?destroy@QWidget@@MAEX_N0@Z 0048a38c     qt-mt323:qt-mt323.dll
 0005:00001390       __imp_?customWhatsThis@QWidget@@UBE_NXZ 0048a390     qt-mt323:qt-mt323.dll
 0005:00001394       __imp_?customEvent@QObject@@MAEXPAVQCustomEvent@@@Z 0048a394     qt-mt323:qt-mt323.dll
 0005:00001398       __imp_?create@QWidget@@MAEXPAUHWND__@@_N1@Z 0048a398     qt-mt323:qt-mt323.dll
 0005:0000139c       __imp_?contextMenuEvent@QDialog@@MAEXPAVQContextMenuEvent@@@Z 0048a39c     qt-mt323:qt-mt323.dll
 0005:000013a0       __imp_?connectNotify@QObject@@MAEXPBD@Z 0048a3a0     qt-mt323:qt-mt323.dll
 0005:000013a4       __imp_?cmd@QPaintDevice@@MAE_NHPAVQPainter@@PATQPDevCmdParam@@@Z 0048a3a4     qt-mt323:qt-mt323.dll
 0005:000013a8       __imp_?closeEvent@QDialog@@MAEXPAVQCloseEvent@@@Z 0048a3a8     qt-mt323:qt-mt323.dll
 0005:000013ac       __imp_?close@QWidget@@UAE_N_N@Z 0048a3ac     qt-mt323:qt-mt323.dll
 0005:000013b0       __imp_?childEvent@QObject@@MAEXPAVQChildEvent@@@Z 0048a3b0     qt-mt323:qt-mt323.dll
 0005:000013b4       __imp_?checkConnectArgs@QObject@@MAE_NPBDPBV1@0@Z 0048a3b4     qt-mt323:qt-mt323.dll
 0005:000013b8       __imp_?adjustSize@QWidget@@UAEXXZ 0048a3b8     qt-mt323:qt-mt323.dll
 0005:000013bc       __imp_?accept@QDialog@@MAEXXZ 0048a3bc     qt-mt323:qt-mt323.dll
 0005:000013c0       __imp_??1QString@@QAE@XZ   0048a3c0     qt-mt323:qt-mt323.dll
 0005:000013c4       __imp_??0QString@@QAE@PBD@Z 0048a3c4     qt-mt323:qt-mt323.dll
 0005:000013c8       __imp_?timerId@QTimerEvent@@QBEHXZ 0048a3c8     qt-mt323:qt-mt323.dll
 0005:000013cc       __imp_??H@YA?BVQString@@ABV0@PBD@Z 0048a3cc     qt-mt323:qt-mt323.dll
 0005:000013d0       __imp_??8@YA_NABVQString@@PBD@Z 0048a3d0     qt-mt323:qt-mt323.dll
